 OPOSKeylock

 Timestamp is 5defa99a (Tue Dec 10 23:20:10 2019)

 Preferred load address is 0000000180000000

 Start         Length     Name                   Class
 0001:00000000 00001400H .text$di                CODE
 0001:00001400 000d35b0H .text$mn                CODE
 0001:000d49b0 00000020H .text$mn$00             CODE
 0001:000d49d0 00001370H .text$x                 CODE
 0001:000d5d40 000001b4H .text$yd                CODE
 0002:00000000 000006d8H .idata$5                DATA
 0002:000006d8 00000010H .00cfg                  DATA
 0002:000006e8 00000008H .CRT$XCA                DATA
 0002:000006f0 00000008H .CRT$XCL                DATA
 0002:000006f8 000000d8H .CRT$XCU                DATA
 0002:000007d0 00000008H .CRT$XCZ                DATA
 0002:000007d8 00000008H .CRT$XIA                DATA
 0002:000007e0 00000020H .CRT$XIC                DATA
 0002:00000800 00000008H .CRT$XIZ                DATA
 0002:00000808 00000008H .CRT$XLA                DATA
 0002:00000810 00000008H .CRT$XLZ                DATA
 0002:00000818 00000008H .CRT$XPA                DATA
 0002:00000820 00000010H .CRT$XPX                DATA
 0002:00000830 00000008H .CRT$XPXA               DATA
 0002:00000838 00000008H .CRT$XPZ                DATA
 0002:00000840 00000008H .CRT$XTA                DATA
 0002:00000848 00000008H .CRT$XTZ                DATA
 0002:00000850 00000000H .gfids$y                DATA
 0002:00000850 0003aca8H .rdata                  DATA
 0002:0003b4f8 00000028H .rdata$T                DATA
 0002:0003b520 0000056cH .rdata$r                DATA
 0002:0003ba8c 0000042cH .rdata$zzzdbg           DATA
 0002:0003beb8 00000008H .rtc$IAA                DATA
 0002:0003bec0 00000030H .rtc$IMZ                DATA
 0002:0003bef0 00000008H .rtc$IZZ                DATA
 0002:0003bef8 00000008H .rtc$TAA                DATA
 0002:0003bf00 00000030H .rtc$TMZ                DATA
 0002:0003bf30 00000008H .rtc$TZZ                DATA
 0002:0003bf38 00000004H .tls                    DATA
 0002:0003bf3c 00000004H .tls$                   DATA
 0002:0003bf40 00000010H .tls$ZZZ                DATA
 0002:0003bf50 00009718H .xdata                  DATA
 0002:00045668 00000150H .xdata$x                DATA
 0002:000457b8 00000008H ATL$__a                 DATA
 0002:000457c0 00000010H ATL$__z                 DATA
 0002:000457d0 000000a8H .edata                  DATA
 0002:00045878 00000078H .idata$2                DATA
 0002:000458f0 00000018H .idata$3                DATA
 0002:00045908 000006d8H .idata$4                DATA
 0002:00045fe0 00000db8H .idata$6                DATA
 0003:00000000 00000ea8H .data                   DATA
 0003:00000ea8 00000198H .data$r                 DATA
 0003:00001040 00003e9cH .bss                    DATA
 0004:00000000 0000bf88H .pdata                  DATA
 0005:00000000 00000094H _RDATA                  DATA
 0006:00000000 00000220H .rsrc$01                DATA
 0006:00000220 000038f0H .rsrc$02                DATA

  Address         Publics by Value              Rva+Base               Lib:Object

 0000:00000000       __guard_longjmp_table      0000000000000000     <absolute>
 0000:00000000       __guard_iat_table          0000000000000000     <absolute>
 0000:00000000       ___safe_se_handler_count   0000000000000000     <absolute>
 0000:00000000       __volatile_metadata        0000000000000000     <absolute>
 0000:00000000       __hybrid_code_map_count    0000000000000000     <absolute>
 0000:00000000       __guard_fids_table         0000000000000000     <absolute>
 0000:00000000       __guard_iat_count          0000000000000000     <absolute>
 0000:00000000       __guard_fids_count         0000000000000000     <absolute>
 0000:00000000       __enclave_config           0000000000000000     <absolute>
 0000:00000000       __guard_longjmp_count      0000000000000000     <absolute>
 0000:00000000       ___safe_se_handler_table   0000000000000000     <absolute>
 0000:00000000       __AbsoluteZero             0000000000000000     <absolute>
 0000:00000000       __hybrid_auxiliary_iat     0000000000000000     <absolute>
 0000:00000000       __dynamic_value_reloc_table 0000000000000000     <absolute>
 0000:00000000       __hybrid_code_map          0000000000000000     <absolute>
 0000:00000100       __guard_flags              0000000000000100     <absolute>
 0000:00000000       __ImageBase                0000000180000000     <linker-defined>
 0001:00001400       ?_assert@@YAXPEB_W0I@Z     0000000180002400 f   Assert.obj
 0001:00001500       __local_stdio_printf_options 0000000180002500 f i Assert.obj
 0001:00001510       __vswprintf_l              0000000180002510 f i Assert.obj
 0001:00001570       _swprintf                  0000000180002570 f i Assert.obj
 0001:000015f0       _vswprintf_c_l             00000001800025f0 f i Assert.obj
 0001:00001680       _vswprintf_l               0000000180002680 f i Assert.obj
 0001:000016e0       ?cw_memcpy@@YAHPEADPEB_WH@Z 00000001800026e0 f   CWString.obj
 0001:00001770       ?cw_memcpy@@YAHPEA_WPEBDH@Z 0000000180002770 f   CWString.obj
 0001:000017f0       ?cw_memcpy@@YAHPEADPEBDH@Z 00000001800027f0 f   CWString.obj
 0001:00001890       ?cw_memcpy@@YAHPEA_WPEB_WH@Z 0000000180002890 f   CWString.obj
 0001:00001900       ?cw_memset@@YAXPEADDH@Z    0000000180002900 f   CWString.obj
 0001:00001970       ?cw_memset@@YAXPEA_W_WH@Z  0000000180002970 f   CWString.obj
 0001:00001a10       ?cw_strlen@@YAHPEBD@Z      0000000180002a10 f   CWString.obj
 0001:00001a80       ?cw_strlen@@YAHPEB_W@Z     0000000180002a80 f   CWString.obj
 0001:00001af0       ?cw_strcpy@@YAHPEADPEB_W@Z 0000000180002af0 f   CWString.obj
 0001:00001b40       ?cw_strcpy@@YAHPEA_WPEBD@Z 0000000180002b40 f   CWString.obj
 0001:00001b90       ?cw_strcpy@@YAHPEADPEBD@Z  0000000180002b90 f   CWString.obj
 0001:00001be0       ?cw_strcpy@@YAHPEA_WPEB_W@Z 0000000180002be0 f   CWString.obj
 0001:00001c30       ?cw_strcat@@YAHPEADPEB_W@Z 0000000180002c30 f   CWString.obj
 0001:00001c90       ?cw_strcat@@YAHPEA_WPEBD@Z 0000000180002c90 f   CWString.obj
 0001:00001cf0       ?cw_strcat@@YAHPEADPEBD@Z  0000000180002cf0 f   CWString.obj
 0001:00001d50       ?cw_strcat@@YAHPEA_WPEB_W@Z 0000000180002d50 f   CWString.obj
 0001:00001db0       ?cw_dup@@YAXPEBDAEAHAEAPEA_W1@Z 0000000180002db0 f   CWString.obj
 0001:00001ec0       ?cw_dup@@YAXPEB_WAEAHAEAPEAD1@Z 0000000180002ec0 f   CWString.obj
 0001:00001fb0       ?DupChar@_CW@@AEAAXXZ      0000000180002fb0 f   CWString.obj
 0001:00002010       ?DupWide@_CW@@AEAAXXZ      0000000180003010 f   CWString.obj
 0001:00002080       ?GetCharsMbcs@_CW@@QEAAHXZ 0000000180003080 f   CWString.obj
 0001:000020f0       ?GetCharsWide@_CW@@QEAAHXZ 00000001800030f0 f   CWString.obj
 0001:00002160       ?SetVARIANT_BOOL@OposVariant@@QEAAXF@Z 0000000180003160 f   OposVariant.obj
 0001:000021d0       ?SetVARIANT_BOOL_Ptr@OposVariant@@QEAAXPEAFAEAJ@Z 00000001800031d0 f   OposVariant.obj
 0001:00002240       ?GetLONG@OposVariant@@QEAAJXZ 0000000180003240 f   OposVariant.obj
 0001:000022a0       ?ChangeLONG@OposVariant@@QEAAXPEAJAEAJ@Z 00000001800032a0 f   OposVariant.obj
 0001:00002350       ?SetLONG@OposVariant@@QEAAXJ@Z 0000000180003350 f   OposVariant.obj
 0001:000023b0       ?SetLONG_Ptr@OposVariant@@QEAAXPEAJAEAJ@Z 00000001800033b0 f   OposVariant.obj
 0001:00002420       ?ChangeCURRENCY@OposVariant@@QEAAXPEATtagCY@@AEAJ@Z 0000000180003420 f   OposVariant.obj
 0001:000024d0       ?SetCURRENCY@OposVariant@@QEAAXTtagCY@@@Z 00000001800034d0 f   OposVariant.obj
 0001:00002530       ?SetCURRENCY_Ptr@OposVariant@@QEAAXPEATtagCY@@AEAJ@Z 0000000180003530 f   OposVariant.obj
 0001:000025a0       ?ChangeBSTR@OposVariant@@QEAAXPEAPEA_WAEAJ@Z 00000001800035a0 f   OposVariant.obj
 0001:00002650       ?SetBSTR@OposVariant@@QEAAXPEA_WAEAJ@Z 0000000180003650 f   OposVariant.obj
 0001:000026d0       ?SetBSTR_Copy@OposVariant@@QEAAXPEA_WAEAJ@Z 00000001800036d0 f   OposVariant.obj
 0001:00002780       ?SetBSTR_OutPtr@OposVariant@@QEAA_NPEAPEA_WAEAJ@Z 0000000180003780 f   OposVariant.obj
 0001:000027f0       ?SetBSTR_InOutPtr@OposVariant@@QEAA_NPEAPEA_WAEAJ@Z 00000001800037f0 f   OposVariant.obj
 0001:00002870       ?SetVARIANT@OposVariant@@QEAAXAEAUtagVARIANT@@GAEAJ@Z 0000000180003870 f   OposVariant.obj
 0001:00002910       ?SetVARIANT_Ptr@OposVariant@@QEAAXAEAPEAUtagVARIANT@@GAEAJ@Z 0000000180003910 f   OposVariant.obj
 0001:000029c0       ?SetString@OposVariant@@QEAAXPEB_WAEAJ@Z 00000001800039c0 f   OposVariant.obj
 0001:00002a70       ?SetDispatch_Ptr@OposVariant@@QEAAXPEAUIDispatch@@AEAJ@Z 0000000180003a70 f   OposVariant.obj
 0001:00002b00       ??0OposDispParms@@QEAA@PEAVOposVariant@@H@Z 0000000180003b00 f   OposVariant.obj
 0001:00002c10       ??1OposDispParms@@QEAA@XZ  0000000180003c10 f   OposVariant.obj
 0001:00002c60       ??$AtlMultiply@_K@ATL@@YAJPEA_K_K1@Z 0000000180003c60 f i OposVariant.obj
 0001:00002ce0       ??0?$CHeapPtr@_WVCCRTAllocator@ATL@@@ATL@@QEAA@XZ 0000000180003ce0 f i OposVariant.obj
 0001:00002d20       ??0?$CHeapPtrBase@_WVCCRTAllocator@ATL@@@ATL@@IEAA@XZ 0000000180003d20 f i OposVariant.obj
 0001:00002d40       ??0?$CSimpleArray@GV?$CSimpleArrayEqualHelper@G@ATL@@@ATL@@QEAA@XZ 0000000180003d40 f i OposVariant.obj
 0001:00002d80       ??0?$CTraceCategoryEx@$00$0A@@ATL@@QEAA@PEB_W@Z 0000000180003d80 f i OposVariant.obj
 0001:00002dc0       ??0?$CTraceCategoryEx@$01$0A@@ATL@@QEAA@PEB_W@Z 0000000180003dc0 f i OposVariant.obj
 0001:00002e00       ??0?$CTraceCategoryEx@$03$0A@@ATL@@QEAA@PEB_W@Z 0000000180003e00 f i OposVariant.obj
 0001:00002e40       ??0?$CTraceCategoryEx@$07$0A@@ATL@@QEAA@PEB_W@Z 0000000180003e40 f i OposVariant.obj
 0001:00002e80       ??0?$CTraceCategoryEx@$0BA@$0A@@ATL@@QEAA@PEB_W@Z 0000000180003e80 f i OposVariant.obj
 0001:00002ec0       ??0?$CTraceCategoryEx@$0BAA@$0A@@ATL@@QEAA@PEB_W@Z 0000000180003ec0 f i OposVariant.obj
 0001:00002f00       ??0?$CTraceCategoryEx@$0BAAA@$0A@@ATL@@QEAA@PEB_W@Z 0000000180003f00 f i OposVariant.obj
 0001:00002f40       ??0?$CTraceCategoryEx@$0BAAAA@$0A@@ATL@@QEAA@PEB_W@Z 0000000180003f40 f i OposVariant.obj
 0001:00002f80       ??0?$CTraceCategoryEx@$0BAAAAA@$0A@@ATL@@QEAA@PEB_W@Z 0000000180003f80 f i OposVariant.obj
 0001:00002fc0       ??0?$CTraceCategoryEx@$0CA@$0A@@ATL@@QEAA@PEB_W@Z 0000000180003fc0 f i OposVariant.obj
 0001:00003000       ??0?$CTraceCategoryEx@$0CAA@$0A@@ATL@@QEAA@PEB_W@Z 0000000180004000 f i OposVariant.obj
 0001:00003040       ??0?$CTraceCategoryEx@$0CAAA@$0A@@ATL@@QEAA@PEB_W@Z 0000000180004040 f i OposVariant.obj
 0001:00003080       ??0?$CTraceCategoryEx@$0CAAAA@$0A@@ATL@@QEAA@PEB_W@Z 0000000180004080 f i OposVariant.obj
 0001:000030c0       ??0?$CTraceCategoryEx@$0CAAAAA@$0A@@ATL@@QEAA@PEB_W@Z 00000001800040c0 f i OposVariant.obj
 0001:00003100       ??0?$CTraceCategoryEx@$0EA@$0A@@ATL@@QEAA@PEB_W@Z 0000000180004100 f i OposVariant.obj
 0001:00003140       ??0?$CTraceCategoryEx@$0EAA@$0A@@ATL@@QEAA@PEB_W@Z 0000000180004140 f i OposVariant.obj
 0001:00003180       ??0?$CTraceCategoryEx@$0EAAA@$0A@@ATL@@QEAA@PEB_W@Z 0000000180004180 f i OposVariant.obj
 0001:000031c0       ??0?$CTraceCategoryEx@$0EAAAA@$0A@@ATL@@QEAA@PEB_W@Z 00000001800041c0 f i OposVariant.obj
 0001:00003200       ??0?$CTraceCategoryEx@$0EAAAAA@$0A@@ATL@@QEAA@PEB_W@Z 0000000180004200 f i OposVariant.obj
 0001:00003240       ??0?$CTraceCategoryEx@$0IA@$0A@@ATL@@QEAA@PEB_W@Z 0000000180004240 f i OposVariant.obj
 0001:00003280       ??0?$CTraceCategoryEx@$0IAA@$0A@@ATL@@QEAA@PEB_W@Z 0000000180004280 f i OposVariant.obj
 0001:000032c0       ??0?$CTraceCategoryEx@$0IAAA@$0A@@ATL@@QEAA@PEB_W@Z 00000001800042c0 f i OposVariant.obj
 0001:00003300       ??0?$CTraceCategoryEx@$0IAAAA@$0A@@ATL@@QEAA@PEB_W@Z 0000000180004300 f i OposVariant.obj
 0001:00003340       ??0CAtlComModule@ATL@@QEAA@XZ 0000000180004340 f i OposVariant.obj
 0001:00003460       ??0CAtlWinModule@ATL@@QEAA@XZ 0000000180004460 f i OposVariant.obj
 0001:00003510       ??0CComCriticalSection@ATL@@QEAA@XZ 0000000180004510 f i OposVariant.obj
 0001:00003550       ??0CPreserveLastError@ATL@@QEAA@XZ 0000000180004550 f i OposVariant.obj
 0001:00003590       ??0CTraceFileAndLineInfo@ATL@@QEAA@PEBDH@Z 0000000180004590 f i OposVariant.obj
 0001:000035c0       ??0_ATL_COM_MODULE70@ATL@@QEAA@XZ 00000001800045c0 f i OposVariant.obj
 0001:00003600       ??0_ATL_WIN_MODULE70@ATL@@QEAA@XZ 0000000180004600 f i OposVariant.obj
 0001:00003650       ??1?$CHeapPtr@_WVCCRTAllocator@ATL@@@ATL@@QEAA@XZ 0000000180004650 f i OposVariant.obj
 0001:00003680       ??1?$CHeapPtrBase@_WVCCRTAllocator@ATL@@@ATL@@QEAA@XZ 0000000180004680 f i OposVariant.obj
 0001:000036b0       ??1?$CSimpleArray@GV?$CSimpleArrayEqualHelper@G@ATL@@@ATL@@QEAA@XZ 00000001800046b0 f i OposVariant.obj
 0001:000036e0       ??1CAtlComModule@ATL@@QEAA@XZ 00000001800046e0 f i OposVariant.obj
 0001:00003720       ??1CAtlWinModule@ATL@@QEAA@XZ 0000000180004720 f i OposVariant.obj
 0001:00003760       ??1CComBSTR@ATL@@QEAA@XZ   0000000180004760 f i OposVariant.obj
 0001:000037a0       ??1CComCriticalSection@ATL@@QEAA@XZ 00000001800047a0 f i OposVariant.obj
 0001:000037b0       ??1CPreserveLastError@ATL@@QEAA@XZ 00000001800047b0 f i OposVariant.obj
 0001:000037f0       ??1_ATL_COM_MODULE70@ATL@@QEAA@XZ 00000001800047f0 f i OposVariant.obj
 0001:00003830       ??1_ATL_WIN_MODULE70@ATL@@QEAA@XZ 0000000180004830 f i OposVariant.obj
 0001:00003880       ??1stringdispid@CComTypeInfoHolder@ATL@@QEAA@XZ 0000000180004880 f i OposVariant.obj
 0001:000038c0       ??A?$CSimpleArray@GV?$CSimpleArrayEqualHelper@G@ATL@@@ATL@@QEAAAEAGH@Z 00000001800048c0 f i OposVariant.obj
 0001:00003970       ??B?$CHeapPtrBase@_WVCCRTAllocator@ATL@@@ATL@@QEBAPEA_WXZ 0000000180004970 f i OposVariant.obj
 0001:00003980       ??B?$CTraceCategoryEx@$01$0A@@ATL@@QEAAIXZ 0000000180004980 f i OposVariant.obj
 0001:00003990       ??B?$CTraceCategoryEx@$0CA@$0A@@ATL@@QEAAIXZ 0000000180004990 f i OposVariant.obj
 0001:000039a0       ??RCTraceFileAndLineInfo@ATL@@QEBAXHIPEB_WZZ 00000001800049a0 f i OposVariant.obj
 0001:00003a50       ??_Estringdispid@CComTypeInfoHolder@ATL@@QEAAPEAXI@Z 0000000180004a50 f i OposVariant.obj
 0001:00003b00       ??_H@YAXPEAX_K1P6APEAX0@Z@Z 0000000180004b00 f i OposVariant.obj
 0001:00003b90       ??_I@YAXPEAX_K1P6AX0@Z@Z   0000000180004b90 f i OposVariant.obj
 0001:00003c40       ?Allocate@?$CHeapPtr@_WVCCRTAllocator@ATL@@@ATL@@QEAA_N_K@Z 0000000180004c40 f i OposVariant.obj
 0001:00003cc0       ?Allocate@CCRTAllocator@ATL@@SAPEAX_K@Z 0000000180004cc0 f i OposVariant.obj
 0001:00003cf0       ?AllocateBytes@?$CHeapPtrBase@_WVCCRTAllocator@ATL@@@ATL@@QEAA_N_K@Z 0000000180004cf0 f i OposVariant.obj
 0001:00003d90       ?AtlWinModuleInit@ATL@@YAJPEAU_ATL_WIN_MODULE70@1@@Z 0000000180004d90 f i OposVariant.obj
 0001:00003e90       ?AtlWinModuleTerm@ATL@@YAJPEAU_ATL_WIN_MODULE70@1@PEAUHINSTANCE__@@@Z 0000000180004e90 f i OposVariant.obj
 0001:00003f80       ?Clear@OposVariant@@QEAAJXZ 0000000180004f80 f i OposVariant.obj
 0001:00003fc0       ?Free@?$CHeapPtrBase@_WVCCRTAllocator@ATL@@@ATL@@QEAAXXZ 0000000180004fc0 f i OposVariant.obj
 0001:00004000       ?Free@CCRTAllocator@ATL@@SAXPEAX@Z 0000000180005000 f i OposVariant.obj
 0001:00004030       ?GetCategoryName@CTrace@ATL@@CAPEA_WI@Z 0000000180005030 f i OposVariant.obj
 0001:000040b0       ?GetModuleInstance@CAtlBaseModule@ATL@@QEAAPEAUHINSTANCE__@@XZ 00000001800050b0 f i OposVariant.obj
 0001:000040d0       ?GetSize@?$CSimpleArray@GV?$CSimpleArrayEqualHelper@G@ATL@@@ATL@@QEBAHXZ 00000001800050d0 f i OposVariant.obj
 0001:000040e0       ?Init@CComCriticalSection@ATL@@QEAAJXZ 00000001800050e0 f i OposVariant.obj
 0001:00004140       ?RegisterCategory@CTrace@ATL@@SAXPEB_WI@Z 0000000180005140 f i OposVariant.obj
 0001:00004220       ?RemoveAll@?$CSimpleArray@GV?$CSimpleArrayEqualHelper@G@ATL@@@ATL@@QEAAXXZ 0000000180005220 f i OposVariant.obj
 0001:000042b0       ?Term@CAtlComModule@ATL@@QEAAXXZ 00000001800052b0 f i OposVariant.obj
 0001:00004390       ?Term@CAtlWinModule@ATL@@QEAAXXZ 0000000180005390 f i OposVariant.obj
 0001:000043d0       ?Term@CComCriticalSection@ATL@@QEAAJXZ 00000001800053d0 f i OposVariant.obj
 0001:00004410       ?TraceV@CTrace@ATL@@CAXPEBDHIIPEB_W@Z 0000000180005410 f i OposVariant.obj
 0001:000046c0       ?TraceV@CTrace@ATL@@SAXPEBDHIIPEB_WPEAD@Z 00000001800056c0 f i OposVariant.obj
 0001:00004870       ?_AtlInitializeCriticalSectionEx@ATL@@YAHPEAU_RTL_CRITICAL_SECTION@@KK@Z 0000000180005870 f i OposVariant.obj
 0001:000048c0       ?_AtlRaiseException@ATL@@YAXKK@Z 00000001800058c0 f i OposVariant.obj
 0001:00004900       HRESULT_FROM_WIN32         0000000180005900 f i OposVariant.obj
 0001:00004950       _vswprintf_s_l             0000000180005950 f i OposVariant.obj
 0001:000049e0       swprintf_s                 00000001800059e0 f i OposVariant.obj
 0001:00004a70       ?ObjectMain@CComObjectRootBase@ATL@@SAX_N@Z 0000000180005a70 f i Keylock.obj
 0001:00004a80       ?GetCategoryMap@CComObjectRootBase@ATL@@SAPEBU_ATL_CATMAP_ENTRY@2@XZ 0000000180005a80 f i Keylock.obj
 0001:00004a90       ?GetObjectDescription@?$CComCoClass@VCOPOSKeylock@@$1?CLSID_OPOSKeylock@@3U_GUID@@B@ATL@@SAPEB_WXZ 0000000180005a90 f i Keylock.obj
 0001:00004aa0       ?UpdateRegistry@COPOSKeylock@@SAJH@Z 0000000180005aa0 f i Keylock.obj
 0001:00004ae0       ?CreateInstance@?$CComCreator@V?$CComObjectCached@VCComClassFactory@ATL@@@ATL@@@ATL@@SAJPEAXAEBU_GUID@@PEAPEAX@Z 0000000180005ae0 f i Keylock.obj
 0001:00004cd0       ?CreateInstance@?$CComCreator2@V?$CComCreator@V?$CComObject@VCOPOSKeylock@@@ATL@@@ATL@@V?$CComCreator@V?$CComAggObject@VCOPOSKeylock@@@ATL@@@2@@ATL@@SAJPEAXAEBU_GUID@@PEAPEAX@Z 0000000180005cd0 f i Keylock.obj
 0001:00004ee0       DllGetClassObject          0000000180005ee0 f   Keylock.obj
 0001:00004f30       DllCanUnloadNow            0000000180005f30 f   Keylock.obj
 0001:00004f80       DllRegisterServer          0000000180005f80 f   Keylock.obj
 0001:00004fc0       DllUnregisterServer        0000000180005fc0 f   Keylock.obj
 0001:000051c0       DllMain                    00000001800061c0 f   Keylock.obj
 0001:00005240       ??$?2G@Wrapper@?$CSimpleArray@GV?$CSimpleArrayEqualHelper@G@ATL@@@ATL@@SAPEAX_KPEAG@Z 0000000180006240 f i Keylock.obj
 0001:00005260       ??$?2PEA_W@?$Wrapper@PEA_W@?$CSimpleMap@PEA_WPEA_WVCExpansionVectorEqualHelper@ATL@@@ATL@@SAPEAX_KPEAPEA_W@Z 0000000180006260 f i Keylock.obj
 0001:00005280       ??$?4UITypeInfo2@@@?$CComPtr@UITypeInfo@@@ATL@@QEAAPEAUITypeInfo@@AEBV?$CComPtr@UITypeInfo2@@@1@@Z 0000000180006280 f i Keylock.obj
 0001:000052f0       ??$AtlAdd@_K@ATL@@YAJPEA_K_K1@Z 00000001800062f0 f i Keylock.obj
 0001:00005360       ??$AtlAddThrow@_K@ATL@@YA_K_K0@Z 0000000180006360 f i Keylock.obj
 0001:000053d0       ??$AtlModuleRegisterWndClassInfoT@VAtlModuleRegisterWndClassInfoParamW@ATL@@@ATL@@YAGPEAU_ATL_BASE_MODULE70@0@PEAU_ATL_WIN_MODULE70@0@PEAU_ATL_WNDCLASSINFOW@0@PEAP6A_JPEAUHWND__@@I_K_J@ZVAtlModuleRegisterWndClassInfoParamW@0@@Z 00000001800063d0 f i Keylock.obj
 0001:000059a0       ??$AtlMultiply@H@ATL@@YAJPEAHHH@Z 00000001800069a0 f i Keylock.obj
 0001:00005a10       ??$AtlMultiply@K@ATL@@YAJPEAKKK@Z 0000000180006a10 f i Keylock.obj
 0001:00005a80       ??$AtlMultiplyThrow@_K@ATL@@YA_K_K0@Z 0000000180006a80 f i Keylock.obj
 0001:00005af0       ??$QueryInterface@UIPersistStream@@@IUnknown@@QEAAJPEAPEAUIPersistStream@@@Z 0000000180006af0 f i Keylock.obj
 0001:00005b40       ??$QueryInterface@UITypeInfo2@@@IUnknown@@QEAAJPEAPEAUITypeInfo2@@@Z 0000000180006b40 f i Keylock.obj
 0001:00005b90       ??0?$CAtlModuleT@VCComModule@ATL@@@ATL@@QEAA@XZ 0000000180006b90 f i Keylock.obj
 0001:00005bd0       ??0?$CAtlSafeAllocBufferManager@VCCRTAllocator@ATL@@@_ATL_SAFE_ALLOCA_IMPL@ATL@@QEAA@XZ 0000000180006bd0 f i Keylock.obj
 0001:00005bf0       ??0?$CAutoVectorPtr@_W@ATL@@QEAA@XZ 0000000180006bf0 f i Keylock.obj
 0001:00005c10       ??0?$CComAggObject@VCOPOSKeylock@@@ATL@@QEAA@PEAX@Z 0000000180006c10 f i Keylock.obj
 0001:00005ca0       ??0?$CComContainedObject@VCOPOSKeylock@@@ATL@@QEAA@PEAX@Z 0000000180006ca0 f i Keylock.obj
 0001:00005e40       ??0?$CComCritSecLock@VCComCriticalSection@ATL@@@ATL@@QEAA@AEAVCComCriticalSection@1@_N@Z 0000000180006e40 f i Keylock.obj
 0001:00005eb0       ??0?$CComEnum@UIEnumConnectionPoints@@$1?_GUID_b196b285_bab4_101a_b69c_00aa00341d07@@3U__s_GUID@@BPEAUIConnectionPoint@@V?$_CopyInterface@UIConnectionPoint@@@ATL@@VCComSingleThreadModel@6@@ATL@@QEAA@XZ 0000000180006eb0 f i Keylock.obj
 0001:00005f00       ??0?$CComEnum@UIEnumConnections@@$1?_GUID_b196b287_bab4_101a_b69c_00aa00341d07@@3U__s_GUID@@BUtagCONNECTDATA@@V?$_Copy@UtagCONNECTDATA@@@ATL@@VCComSingleThreadModel@6@@ATL@@QEAA@XZ 0000000180006f00 f i Keylock.obj
 0001:00005f50       ??0?$CComEnumImpl@UIEnumConnectionPoints@@$1?_GUID_b196b285_bab4_101a_b69c_00aa00341d07@@3U__s_GUID@@BPEAUIConnectionPoint@@V?$_CopyInterface@UIConnectionPoint@@@ATL@@@ATL@@QEAA@XZ 0000000180006f50 f i Keylock.obj
 0001:00005fd0       ??0?$CComEnumImpl@UIEnumConnections@@$1?_GUID_b196b287_bab4_101a_b69c_00aa00341d07@@3U__s_GUID@@BUtagCONNECTDATA@@V?$_Copy@UtagCONNECTDATA@@@ATL@@@ATL@@QEAA@XZ 0000000180006fd0 f i Keylock.obj
 0001:00006050       ??0?$CComObject@V?$CComEnum@UIEnumConnectionPoints@@$1?_GUID_b196b285_bab4_101a_b69c_00aa00341d07@@3U__s_GUID@@BPEAUIConnectionPoint@@V?$_CopyInterface@UIConnectionPoint@@@ATL@@VCComSingleThreadModel@6@@ATL@@@ATL@@QEAA@PEAX@Z 0000000180007050 f i Keylock.obj
 0001:000060b0       ??0?$CComObject@V?$CComEnum@UIEnumConnections@@$1?_GUID_b196b287_bab4_101a_b69c_00aa00341d07@@3U__s_GUID@@BUtagCONNECTDATA@@V?$_Copy@UtagCONNECTDATA@@@ATL@@VCComSingleThreadModel@6@@ATL@@@ATL@@QEAA@PEAX@Z 00000001800070b0 f i Keylock.obj
 0001:00006110       ??0?$CComObject@VCOPOSKeylock@@@ATL@@QEAA@PEAX@Z 0000000180007110 f i Keylock.obj
 0001:000062b0       ??0?$CComObjectCached@VCComClassFactory@ATL@@@ATL@@QEAA@PEAX@Z 00000001800072b0 f i Keylock.obj
 0001:00006300       ??0?$CComObjectRootEx@VCComMultiThreadModel@ATL@@@ATL@@QEAA@XZ 0000000180007300 f i Keylock.obj
 0001:00006350       ??0?$CComObjectRootEx@VCComSingleThreadModel@ATL@@@ATL@@QEAA@XZ 0000000180007350 f i Keylock.obj
 0001:00006390       ??0?$CComPtr@UIAdviseSink@@@ATL@@QEAA@PEAUIAdviseSink@@@Z 0000000180007390 f i Keylock.obj
 0001:000063d0       ??0?$CComPtr@UICatRegister@@@ATL@@QEAA@XZ 00000001800073d0 f i Keylock.obj
 0001:00006410       ??0?$CComPtr@UIConnectionPoint@@@ATL@@QEAA@XZ 0000000180007410 f i Keylock.obj
 0001:00006450       ??0?$CComPtr@UIConnectionPointContainer@@@ATL@@QEAA@XZ 0000000180007450 f i Keylock.obj
 0001:00006490       ??0?$CComPtr@UIDataObject@@@ATL@@QEAA@XZ 0000000180007490 f i Keylock.obj
 0001:000064d0       ??0?$CComPtr@UIDispatch@@@ATL@@QEAA@XZ 00000001800074d0 f i Keylock.obj
 0001:00006510       ??0?$CComPtr@UIOleClientSite@@@ATL@@QEAA@PEAUIOleClientSite@@@Z 0000000180007510 f i Keylock.obj
 0001:00006550       ??0?$CComPtr@UIOleControlSite@@@ATL@@QEAA@XZ 0000000180007550 f i Keylock.obj
 0001:00006590       ??0?$CComPtr@UIOleInPlaceActiveObject@@@ATL@@QEAA@XZ 0000000180007590 f i Keylock.obj
 0001:000065d0       ??0?$CComPtr@UIOleInPlaceFrame@@@ATL@@QEAA@XZ 00000001800075d0 f i Keylock.obj
 0001:00006610       ??0?$CComPtr@UIOleInPlaceObject@@@ATL@@QEAA@XZ 0000000180007610 f i Keylock.obj
 0001:00006650       ??0?$CComPtr@UIOleInPlaceUIWindow@@@ATL@@QEAA@XZ 0000000180007650 f i Keylock.obj
 0001:00006690       ??0?$CComPtr@UIOleObject@@@ATL@@QEAA@XZ 0000000180007690 f i Keylock.obj
 0001:000066d0       ??0?$CComPtr@UIPersistStream@@@ATL@@QEAA@XZ 00000001800076d0 f i Keylock.obj
 0001:00006710       ??0?$CComPtr@UIPersistStreamInit@@@ATL@@QEAA@XZ 0000000180007710 f i Keylock.obj
 0001:00006750       ??0?$CComPtr@UIPointerInactive@@@ATL@@QEAA@XZ 0000000180007750 f i Keylock.obj
 0001:00006790       ??0?$CComPtr@UIProvideClassInfo2@@@ATL@@QEAA@XZ 0000000180007790 f i Keylock.obj
 0001:000067d0       ??0?$CComPtr@UISpecifyPropertyPages@@@ATL@@QEAA@XZ 00000001800077d0 f i Keylock.obj
 0001:00006810       ??0?$CComPtr@UIStream@@@ATL@@QEAA@XZ 0000000180007810 f i Keylock.obj
 0001:00006850       ??0?$CComPtr@UITypeInfo2@@@ATL@@QEAA@XZ 0000000180007850 f i Keylock.obj
 0001:00006890       ??0?$CComPtr@UITypeInfo@@@ATL@@QEAA@AEBV01@@Z 0000000180007890 f i Keylock.obj
 0001:000068d0       ??0?$CComPtr@UITypeInfo@@@ATL@@QEAA@XZ 00000001800078d0 f i Keylock.obj
 0001:00006910       ??0?$CComPtr@UITypeLib@@@ATL@@QEAA@XZ 0000000180007910 f i Keylock.obj
 0001:00006950       ??0?$CComPtr@UIUnknown@@@ATL@@QEAA@AEBV01@@Z 0000000180007950 f i Keylock.obj
 0001:00006990       ??0?$CComPtr@UIUnknown@@@ATL@@QEAA@PEAUIUnknown@@@Z 0000000180007990 f i Keylock.obj
 0001:000069d0       ??0?$CComPtr@UIUnknown@@@ATL@@QEAA@XZ 00000001800079d0 f i Keylock.obj
 0001:00006a10       ??0?$CComPtr@UIViewObjectEx@@@ATL@@QEAA@XZ 0000000180007a10 f i Keylock.obj
 0001:00006a50       ??0?$CComPtrBase@UIAdviseSink@@@ATL@@IEAA@PEAUIAdviseSink@@@Z 0000000180007a50 f i Keylock.obj
 0001:00006ab0       ??0?$CComPtrBase@UICatRegister@@@ATL@@IEAA@XZ 0000000180007ab0 f i Keylock.obj
 0001:00006ad0       ??0?$CComPtrBase@UIConnectionPoint@@@ATL@@IEAA@XZ 0000000180007ad0 f i Keylock.obj
 0001:00006af0       ??0?$CComPtrBase@UIConnectionPointContainer@@@ATL@@IEAA@XZ 0000000180007af0 f i Keylock.obj
 0001:00006b10       ??0?$CComPtrBase@UIDataObject@@@ATL@@IEAA@XZ 0000000180007b10 f i Keylock.obj
 0001:00006b30       ??0?$CComPtrBase@UIDispatch@@@ATL@@IEAA@XZ 0000000180007b30 f i Keylock.obj
 0001:00006b50       ??0?$CComPtrBase@UIOleClientSite@@@ATL@@IEAA@PEAUIOleClientSite@@@Z 0000000180007b50 f i Keylock.obj
 0001:00006bb0       ??0?$CComPtrBase@UIOleControlSite@@@ATL@@IEAA@XZ 0000000180007bb0 f i Keylock.obj
 0001:00006bd0       ??0?$CComPtrBase@UIOleInPlaceActiveObject@@@ATL@@IEAA@XZ 0000000180007bd0 f i Keylock.obj
 0001:00006bf0       ??0?$CComPtrBase@UIOleInPlaceFrame@@@ATL@@IEAA@XZ 0000000180007bf0 f i Keylock.obj
 0001:00006c10       ??0?$CComPtrBase@UIOleInPlaceObject@@@ATL@@IEAA@XZ 0000000180007c10 f i Keylock.obj
 0001:00006c30       ??0?$CComPtrBase@UIOleInPlaceUIWindow@@@ATL@@IEAA@XZ 0000000180007c30 f i Keylock.obj
 0001:00006c50       ??0?$CComPtrBase@UIOleObject@@@ATL@@IEAA@XZ 0000000180007c50 f i Keylock.obj
 0001:00006c70       ??0?$CComPtrBase@UIPersistStream@@@ATL@@IEAA@XZ 0000000180007c70 f i Keylock.obj
 0001:00006c90       ??0?$CComPtrBase@UIPersistStreamInit@@@ATL@@IEAA@XZ 0000000180007c90 f i Keylock.obj
 0001:00006cb0       ??0?$CComPtrBase@UIPointerInactive@@@ATL@@IEAA@XZ 0000000180007cb0 f i Keylock.obj
 0001:00006cd0       ??0?$CComPtrBase@UIProvideClassInfo2@@@ATL@@IEAA@XZ 0000000180007cd0 f i Keylock.obj
 0001:00006cf0       ??0?$CComPtrBase@UISpecifyPropertyPages@@@ATL@@IEAA@XZ 0000000180007cf0 f i Keylock.obj
 0001:00006d10       ??0?$CComPtrBase@UIStream@@@ATL@@IEAA@XZ 0000000180007d10 f i Keylock.obj
 0001:00006d30       ??0?$CComPtrBase@UITypeInfo2@@@ATL@@IEAA@XZ 0000000180007d30 f i Keylock.obj
 0001:00006d50       ??0?$CComPtrBase@UITypeInfo@@@ATL@@IEAA@PEAUITypeInfo@@@Z 0000000180007d50 f i Keylock.obj
 0001:00006db0       ??0?$CComPtrBase@UITypeInfo@@@ATL@@IEAA@XZ 0000000180007db0 f i Keylock.obj
 0001:00006dd0       ??0?$CComPtrBase@UITypeLib@@@ATL@@IEAA@XZ 0000000180007dd0 f i Keylock.obj
 0001:00006df0       ??0?$CComPtrBase@UIUnknown@@@ATL@@IEAA@PEAUIUnknown@@@Z 0000000180007df0 f i Keylock.obj
 0001:00006e50       ??0?$CComPtrBase@UIUnknown@@@ATL@@IEAA@XZ 0000000180007e50 f i Keylock.obj
 0001:00006e70       ??0?$CComPtrBase@UIViewObjectEx@@@ATL@@IEAA@XZ 0000000180007e70 f i Keylock.obj
 0001:00006e90       ??0?$CComQIPtr@UIOleControlSite@@$1?_GUID_b196b289_bab4_101a_b69c_00aa00341d07@@3U__s_GUID@@B@ATL@@QEAA@PEAUIUnknown@@@Z 0000000180007e90 f i Keylock.obj
 0001:00006f00       ??0?$CComQIPtr@UIOleObject@@$1?_GUID_00000112_0000_0000_c000_000000000046@@3U__s_GUID@@B@ATL@@QEAA@XZ 0000000180007f00 f i Keylock.obj
 0001:00006f40       ??0?$CComQIPtr@UISpecifyPropertyPages@@$1?_GUID_b196b28b_bab4_101a_b69c_00aa00341d07@@3U__s_GUID@@B@ATL@@QEAA@XZ 0000000180007f40 f i Keylock.obj
 0001:00006f80       ??0?$CSimpleMap@PEA_WPEA_WVCExpansionVectorEqualHelper@ATL@@@ATL@@QEAA@XZ 0000000180007f80 f i Keylock.obj
 0001:00006fc0       ??0?$CTempBuffer@E$0BAA@VCCRTAllocator@ATL@@@ATL@@QEAA@XZ 0000000180007fc0 f i Keylock.obj
 0001:00006fe0       ??0?$CTempBuffer@_W$0BAA@VCCRTAllocator@ATL@@@ATL@@QEAA@XZ 0000000180007fe0 f i Keylock.obj
 0001:00007000       ??0?$CTempBuffer@_W$0EAA@VCCRTAllocator@ATL@@@ATL@@QEAA@XZ 0000000180008000 f i Keylock.obj
 0001:00007020       ??0?$Wrapper@PEA_W@?$CSimpleMap@PEA_WPEA_WVCExpansionVectorEqualHelper@ATL@@@ATL@@QEAA@AEBQEA_W@Z 0000000180008020 f i Keylock.obj
 0001:00007050       ??0CAtlModule@ATL@@QEAA@XZ 0000000180008050 f i Keylock.obj
 0001:000071c0       ??0CComAutoDeleteCriticalSection@ATL@@QEAA@XZ 00000001800081c0 f i Keylock.obj
 0001:00007200       ??0CComBSTR@ATL@@QEAA@XZ   0000000180008200 f i Keylock.obj
 0001:00007220       ??0CComClassFactory@ATL@@QEAA@XZ 0000000180008220 f i Keylock.obj
 0001:00007280       ??0CComModule@ATL@@QEAA@XZ 0000000180008280 f i Keylock.obj
 0001:00007320       ??0CComObjectRootBase@ATL@@QEAA@XZ 0000000180008320 f i Keylock.obj
 0001:00007340       ??0CComSafeDeleteCriticalSection@ATL@@QEAA@XZ 0000000180008340 f i Keylock.obj
 0001:00007380       ??0CComVariant@ATL@@QEAA@XZ 0000000180008380 f i Keylock.obj
 0001:000073d0       ??0CExpansionVector@ATL@@QEAA@XZ 00000001800083d0 f i Keylock.obj
 0001:00007410       ??0CParseBuffer@CRegParser@ATL@@QEAA@H@Z 0000000180008410 f i Keylock.obj
 0001:000074a0       ??0CRegKey@ATL@@QEAA@PEAUHKEY__@@@Z 00000001800084a0 f i Keylock.obj
 0001:000074e0       ??0CRegKey@ATL@@QEAA@PEAVCAtlTransactionManager@1@@Z 00000001800084e0 f i Keylock.obj
 0001:00007520       ??0CRegObject@ATL@@QEAA@XZ 0000000180008520 f i Keylock.obj
 0001:00007580       ??0CRegParser@ATL@@QEAA@PEAVCRegObject@1@@Z 0000000180008580 f i Keylock.obj
 0001:000075b0       ??0IClassFactory@@QEAA@XZ  00000001800085b0 f i Keylock.obj
 0001:000075f0       ??0IEnumConnectionPoints@@QEAA@XZ 00000001800085f0 f i Keylock.obj
 0001:00007630       ??0IEnumConnections@@QEAA@XZ 0000000180008630 f i Keylock.obj
 0001:00007670       ??0IRegistrarBase@@QEAA@XZ 0000000180008670 f i Keylock.obj
 0001:000076b0       ??0IUnknown@@QEAA@XZ       00000001800086b0 f i Keylock.obj
 0001:000076c0       ??0ModuleLockHelper@ATL@@QEAA@XZ 00000001800086c0 f i Keylock.obj
 0001:00007700       ??0OposVariant@@QEAA@XZ    0000000180008700 f i Keylock.obj
 0001:00007720       ??0Wrapper@?$CSimpleArray@GV?$CSimpleArrayEqualHelper@G@ATL@@@ATL@@QEAA@AEBG@Z 0000000180008720 f i Keylock.obj
 0001:00007750       ??0_ATL_MODULE70@ATL@@QEAA@XZ 0000000180008750 f i Keylock.obj
 0001:00007790       ??0_ATL_MSG@ATL@@QEAA@PEAUHWND__@@I_K_JH@Z 0000000180008790 f i Keylock.obj
 0001:00007820       ??0_U_MENUorID@ATL@@QEAA@I@Z 0000000180008820 f i Keylock.obj
 0001:00007840       ??0_U_RECT@ATL@@QEAA@AEAUtagRECT@@@Z 0000000180008840 f i Keylock.obj
 0001:00007860       ??0stringdispid@CComTypeInfoHolder@ATL@@QEAA@XZ 0000000180008860 f i Keylock.obj
 0001:000078b0       ??1?$CAtlModuleT@VCComModule@ATL@@@ATL@@UEAA@XZ 00000001800088b0 f i Keylock.obj
 0001:000078e0       ??1?$CAtlSafeAllocBufferManager@VCCRTAllocator@ATL@@@_ATL_SAFE_ALLOCA_IMPL@ATL@@QEAA@XZ 00000001800088e0 f i Keylock.obj
 0001:00007940       ??1?$CAutoVectorPtr@_W@ATL@@QEAA@XZ 0000000180008940 f i Keylock.obj
 0001:00007970       ??1?$CComAggObject@VCOPOSKeylock@@@ATL@@UEAA@XZ 0000000180008970 f i Keylock.obj
 0001:000079f0       ??1?$CComContainedObject@VCOPOSKeylock@@@ATL@@UEAA@XZ 00000001800089f0 f i Keylock.obj
 0001:00007a20       ??1?$CComCritSecLock@VCComCriticalSection@ATL@@@ATL@@QEAA@XZ 0000000180008a20 f i Keylock.obj
 0001:00007a60       ??1?$CComEnum@UIEnumConnectionPoints@@$1?_GUID_b196b285_bab4_101a_b69c_00aa00341d07@@3U__s_GUID@@BPEAUIConnectionPoint@@V?$_CopyInterface@UIConnectionPoint@@@ATL@@VCComSingleThreadModel@6@@ATL@@UEAA@XZ 0000000180008a60 f i Keylock.obj
 0001:00007aa0       ??1?$CComEnum@UIEnumConnections@@$1?_GUID_b196b287_bab4_101a_b69c_00aa00341d07@@3U__s_GUID@@BUtagCONNECTDATA@@V?$_Copy@UtagCONNECTDATA@@@ATL@@VCComSingleThreadModel@6@@ATL@@UEAA@XZ 0000000180008aa0 f i Keylock.obj
 0001:00007ae0       ??1?$CComEnumImpl@UIEnumConnectionPoints@@$1?_GUID_b196b285_bab4_101a_b69c_00aa00341d07@@3U__s_GUID@@BPEAUIConnectionPoint@@V?$_CopyInterface@UIConnectionPoint@@@ATL@@@ATL@@UEAA@XZ 0000000180008ae0 f i Keylock.obj
 0001:00007b80       ??1?$CComEnumImpl@UIEnumConnections@@$1?_GUID_b196b287_bab4_101a_b69c_00aa00341d07@@3U__s_GUID@@BUtagCONNECTDATA@@V?$_Copy@UtagCONNECTDATA@@@ATL@@@ATL@@UEAA@XZ 0000000180008b80 f i Keylock.obj
 0001:00007c20       ??1?$CComObject@V?$CComEnum@UIEnumConnectionPoints@@$1?_GUID_b196b285_bab4_101a_b69c_00aa00341d07@@3U__s_GUID@@BPEAUIConnectionPoint@@V?$_CopyInterface@UIConnectionPoint@@@ATL@@VCComSingleThreadModel@6@@ATL@@@ATL@@UEAA@XZ 0000000180008c20 f i Keylock.obj
 0001:00007c90       ??1?$CComObject@V?$CComEnum@UIEnumConnections@@$1?_GUID_b196b287_bab4_101a_b69c_00aa00341d07@@3U__s_GUID@@BUtagCONNECTDATA@@V?$_Copy@UtagCONNECTDATA@@@ATL@@VCComSingleThreadModel@6@@ATL@@@ATL@@UEAA@XZ 0000000180008c90 f i Keylock.obj
 0001:00007d00       ??1?$CComObject@VCOPOSKeylock@@@ATL@@UEAA@XZ 0000000180008d00 f i Keylock.obj
 0001:00007eb0       ??1?$CComObjectCached@VCComClassFactory@ATL@@@ATL@@UEAA@XZ 0000000180008eb0 f i Keylock.obj
 0001:00007f10       ??1?$CComObjectRootEx@VCComMultiThreadModel@ATL@@@ATL@@QEAA@XZ 0000000180008f10 f i Keylock.obj
 0001:00007f50       ??1?$CComObjectRootEx@VCComSingleThreadModel@ATL@@@ATL@@QEAA@XZ 0000000180008f50 f i Keylock.obj
 0001:00007f80       ??1?$CComPtr@UIAdviseSink@@@ATL@@QEAA@XZ 0000000180008f80 f i Keylock.obj
 0001:00007fb0       ??1?$CComPtr@UICatRegister@@@ATL@@QEAA@XZ 0000000180008fb0 f i Keylock.obj
 0001:00007fe0       ??1?$CComPtr@UIConnectionPoint@@@ATL@@QEAA@XZ 0000000180008fe0 f i Keylock.obj
 0001:00008010       ??1?$CComPtr@UIConnectionPointContainer@@@ATL@@QEAA@XZ 0000000180009010 f i Keylock.obj
 0001:00008040       ??1?$CComPtr@UIDataObject@@@ATL@@QEAA@XZ 0000000180009040 f i Keylock.obj
 0001:00008070       ??1?$CComPtr@UIDispatch@@@ATL@@QEAA@XZ 0000000180009070 f i Keylock.obj
 0001:000080a0       ??1?$CComPtr@UIOleClientSite@@@ATL@@QEAA@XZ 00000001800090a0 f i Keylock.obj
 0001:000080d0       ??1?$CComPtr@UIOleControlSite@@@ATL@@QEAA@XZ 00000001800090d0 f i Keylock.obj
 0001:00008100       ??1?$CComPtr@UIOleInPlaceActiveObject@@@ATL@@QEAA@XZ 0000000180009100 f i Keylock.obj
 0001:00008130       ??1?$CComPtr@UIOleInPlaceFrame@@@ATL@@QEAA@XZ 0000000180009130 f i Keylock.obj
 0001:00008160       ??1?$CComPtr@UIOleInPlaceObject@@@ATL@@QEAA@XZ 0000000180009160 f i Keylock.obj
 0001:00008190       ??1?$CComPtr@UIOleInPlaceUIWindow@@@ATL@@QEAA@XZ 0000000180009190 f i Keylock.obj
 0001:000081c0       ??1?$CComPtr@UIOleObject@@@ATL@@QEAA@XZ 00000001800091c0 f i Keylock.obj
 0001:000081f0       ??1?$CComPtr@UIPersistStream@@@ATL@@QEAA@XZ 00000001800091f0 f i Keylock.obj
 0001:00008220       ??1?$CComPtr@UIPersistStreamInit@@@ATL@@QEAA@XZ 0000000180009220 f i Keylock.obj
 0001:00008250       ??1?$CComPtr@UIPointerInactive@@@ATL@@QEAA@XZ 0000000180009250 f i Keylock.obj
 0001:00008280       ??1?$CComPtr@UIProvideClassInfo2@@@ATL@@QEAA@XZ 0000000180009280 f i Keylock.obj
 0001:000082b0       ??1?$CComPtr@UISpecifyPropertyPages@@@ATL@@QEAA@XZ 00000001800092b0 f i Keylock.obj
 0001:000082e0       ??1?$CComPtr@UIStream@@@ATL@@QEAA@XZ 00000001800092e0 f i Keylock.obj
 0001:00008310       ??1?$CComPtr@UITypeInfo2@@@ATL@@QEAA@XZ 0000000180009310 f i Keylock.obj
 0001:00008340       ??1?$CComPtr@UITypeInfo@@@ATL@@QEAA@XZ 0000000180009340 f i Keylock.obj
 0001:00008370       ??1?$CComPtr@UITypeLib@@@ATL@@QEAA@XZ 0000000180009370 f i Keylock.obj
 0001:000083a0       ??1?$CComPtr@UIUnknown@@@ATL@@QEAA@XZ 00000001800093a0 f i Keylock.obj
 0001:000083d0       ??1?$CComPtr@UIViewObjectEx@@@ATL@@QEAA@XZ 00000001800093d0 f i Keylock.obj
 0001:00008400       ??1?$CComPtrBase@UIAdviseSink@@@ATL@@QEAA@XZ 0000000180009400 f i Keylock.obj
 0001:00008450       ??1?$CComPtrBase@UICatRegister@@@ATL@@QEAA@XZ 0000000180009450 f i Keylock.obj
 0001:000084a0       ??1?$CComPtrBase@UIConnectionPoint@@@ATL@@QEAA@XZ 00000001800094a0 f i Keylock.obj
 0001:000084f0       ??1?$CComPtrBase@UIConnectionPointContainer@@@ATL@@QEAA@XZ 00000001800094f0 f i Keylock.obj
 0001:00008540       ??1?$CComPtrBase@UIDataObject@@@ATL@@QEAA@XZ 0000000180009540 f i Keylock.obj
 0001:00008590       ??1?$CComPtrBase@UIDispatch@@@ATL@@QEAA@XZ 0000000180009590 f i Keylock.obj
 0001:000085e0       ??1?$CComPtrBase@UIOleClientSite@@@ATL@@QEAA@XZ 00000001800095e0 f i Keylock.obj
 0001:00008630       ??1?$CComPtrBase@UIOleControlSite@@@ATL@@QEAA@XZ 0000000180009630 f i Keylock.obj
 0001:00008680       ??1?$CComPtrBase@UIOleInPlaceActiveObject@@@ATL@@QEAA@XZ 0000000180009680 f i Keylock.obj
 0001:000086d0       ??1?$CComPtrBase@UIOleInPlaceFrame@@@ATL@@QEAA@XZ 00000001800096d0 f i Keylock.obj
 0001:00008720       ??1?$CComPtrBase@UIOleInPlaceObject@@@ATL@@QEAA@XZ 0000000180009720 f i Keylock.obj
 0001:00008770       ??1?$CComPtrBase@UIOleInPlaceUIWindow@@@ATL@@QEAA@XZ 0000000180009770 f i Keylock.obj
 0001:000087c0       ??1?$CComPtrBase@UIOleObject@@@ATL@@QEAA@XZ 00000001800097c0 f i Keylock.obj
 0001:00008810       ??1?$CComPtrBase@UIPersistStream@@@ATL@@QEAA@XZ 0000000180009810 f i Keylock.obj
 0001:00008860       ??1?$CComPtrBase@UIPersistStreamInit@@@ATL@@QEAA@XZ 0000000180009860 f i Keylock.obj
 0001:000088b0       ??1?$CComPtrBase@UIPointerInactive@@@ATL@@QEAA@XZ 00000001800098b0 f i Keylock.obj
 0001:00008900       ??1?$CComPtrBase@UIProvideClassInfo2@@@ATL@@QEAA@XZ 0000000180009900 f i Keylock.obj
 0001:00008950       ??1?$CComPtrBase@UISpecifyPropertyPages@@@ATL@@QEAA@XZ 0000000180009950 f i Keylock.obj
 0001:000089a0       ??1?$CComPtrBase@UIStream@@@ATL@@QEAA@XZ 00000001800099a0 f i Keylock.obj
 0001:000089f0       ??1?$CComPtrBase@UITypeInfo2@@@ATL@@QEAA@XZ 00000001800099f0 f i Keylock.obj
 0001:00008a40       ??1?$CComPtrBase@UITypeInfo@@@ATL@@QEAA@XZ 0000000180009a40 f i Keylock.obj
 0001:00008a90       ??1?$CComPtrBase@UITypeLib@@@ATL@@QEAA@XZ 0000000180009a90 f i Keylock.obj
 0001:00008ae0       ??1?$CComPtrBase@UIUnknown@@@ATL@@QEAA@XZ 0000000180009ae0 f i Keylock.obj
 0001:00008b30       ??1?$CComPtrBase@UIViewObjectEx@@@ATL@@QEAA@XZ 0000000180009b30 f i Keylock.obj
 0001:00008b80       ??1?$CComQIPtr@UIOleControlSite@@$1?_GUID_b196b289_bab4_101a_b69c_00aa00341d07@@3U__s_GUID@@B@ATL@@QEAA@XZ 0000000180009b80 f i Keylock.obj
 0001:00008bb0       ??1?$CComQIPtr@UIOleObject@@$1?_GUID_00000112_0000_0000_c000_000000000046@@3U__s_GUID@@B@ATL@@QEAA@XZ 0000000180009bb0 f i Keylock.obj
 0001:00008be0       ??1?$CComQIPtr@UISpecifyPropertyPages@@$1?_GUID_b196b28b_bab4_101a_b69c_00aa00341d07@@3U__s_GUID@@B@ATL@@QEAA@XZ 0000000180009be0 f i Keylock.obj
 0001:00008c10       ??1?$CSimpleMap@PEA_WPEA_WVCExpansionVectorEqualHelper@ATL@@@ATL@@QEAA@XZ 0000000180009c10 f i Keylock.obj
 0001:00008c40       ??1?$CTempBuffer@E$0BAA@VCCRTAllocator@ATL@@@ATL@@QEAA@XZ 0000000180009c40 f i Keylock.obj
 0001:00008c90       ??1?$CTempBuffer@_W$0BAA@VCCRTAllocator@ATL@@@ATL@@QEAA@XZ 0000000180009c90 f i Keylock.obj
 0001:00008ce0       ??1?$CTempBuffer@_W$0EAA@VCCRTAllocator@ATL@@@ATL@@QEAA@XZ 0000000180009ce0 f i Keylock.obj
 0001:00008d30       ??1CAtlModule@ATL@@UEAA@XZ 0000000180009d30 f i Keylock.obj
 0001:00008d70       ??1CComAutoDeleteCriticalSection@ATL@@QEAA@XZ 0000000180009d70 f i Keylock.obj
 0001:00008da0       ??1CComClassFactory@ATL@@UEAA@XZ 0000000180009da0 f i Keylock.obj
 0001:00008df0       ??1CComModule@ATL@@UEAA@XZ 0000000180009df0 f i Keylock.obj
 0001:00008e30       ??1CComObjectRootBase@ATL@@QEAA@XZ 0000000180009e30 f i Keylock.obj
 0001:00008e40       ??1CComSafeDeleteCriticalSection@ATL@@QEAA@XZ 0000000180009e40 f i Keylock.obj
 0001:00008e90       ??1CComVariant@ATL@@QEAA@XZ 0000000180009e90 f i Keylock.obj
 0001:00008f10       ??1CExpansionVector@ATL@@QEAA@XZ 0000000180009f10 f i Keylock.obj
 0001:00008f50       ??1CParseBuffer@CRegParser@ATL@@QEAA@XZ 0000000180009f50 f i Keylock.obj
 0001:00008f90       ??1CRegKey@ATL@@QEAA@XZ    0000000180009f90 f i Keylock.obj
 0001:00008fc0       ??1CRegObject@ATL@@UEAA@XZ 0000000180009fc0 f i Keylock.obj
 0001:00009010       ??1ModuleLockHelper@ATL@@QEAA@XZ 000000018000a010 f i Keylock.obj
 0001:00009050       ??1OposVariant@@QEAA@XZ    000000018000a050 f i Keylock.obj
 0001:00009090       ??1_ATL_MODULE70@ATL@@QEAA@XZ 000000018000a090 f i Keylock.obj
 0001:000090d0       ??4?$CComPtr@UIAdviseSink@@@ATL@@QEAAPEAUIAdviseSink@@PEAU2@@Z 000000018000a0d0 f i Keylock.obj
 0001:00009140       ??4?$CComPtr@UIOleClientSite@@@ATL@@QEAAPEAUIOleClientSite@@PEAU2@@Z 000000018000a140 f i Keylock.obj
 0001:000091b0       ??4?$CComPtr@UIUnknown@@@ATL@@QEAAPEAUIUnknown@@PEAU2@@Z 000000018000a1b0 f i Keylock.obj
 0001:00009220       ??4?$CComQIPtr@UIOleObject@@$1?_GUID_00000112_0000_0000_c000_000000000046@@3U__s_GUID@@B@ATL@@QEAAPEAUIOleObject@@PEAUIUnknown@@@Z 000000018000a220 f i Keylock.obj
 0001:00009280       ??4?$CComQIPtr@UISpecifyPropertyPages@@$1?_GUID_b196b28b_bab4_101a_b69c_00aa00341d07@@3U__s_GUID@@B@ATL@@QEAAPEAUISpecifyPropertyPages@@PEAUIUnknown@@@Z 000000018000a280 f i Keylock.obj
 0001:000092e0       ??7?$CComPtrBase@UIOleClientSite@@@ATL@@QEBA_NXZ 000000018000a2e0 f i Keylock.obj
 0001:00009330       ??7?$CComPtrBase@UIOleInPlaceSiteWindowless@@@ATL@@QEBA_NXZ 000000018000a330 f i Keylock.obj
 0001:00009380       ??7CComBSTR@ATL@@QEBA_NXZ  000000018000a380 f i Keylock.obj
 0001:000093d0       ??8?$CComPtrBase@UIAdviseSink@@@ATL@@QEBA_NPEAUIAdviseSink@@@Z 000000018000a3d0 f i Keylock.obj
 0001:00009420       ??8?$CComPtrBase@UIConnectionPointContainer@@@ATL@@QEBA_NPEAUIConnectionPointContainer@@@Z 000000018000a420 f i Keylock.obj
 0001:00009470       ??8?$CComPtrBase@UIDataAdviseHolder@@@ATL@@QEBA_NPEAUIDataAdviseHolder@@@Z 000000018000a470 f i Keylock.obj
 0001:000094c0       ??8?$CComPtrBase@UIOleAdviseHolder@@@ATL@@QEBA_NPEAUIOleAdviseHolder@@@Z 000000018000a4c0 f i Keylock.obj
 0001:00009510       ??8?$CComPtrBase@UIOleClientSite@@@ATL@@QEBA_NPEAUIOleClientSite@@@Z 000000018000a510 f i Keylock.obj
 0001:00009560       ??8?$CComPtrBase@UIOleControlSite@@@ATL@@QEBA_NPEAUIOleControlSite@@@Z 000000018000a560 f i Keylock.obj
 0001:000095b0       ??8?$CComPtrBase@UIOleInPlaceObject@@@ATL@@QEBA_NPEAUIOleInPlaceObject@@@Z 000000018000a5b0 f i Keylock.obj
 0001:00009600       ??8?$CComPtrBase@UIOleInPlaceSiteWindowless@@@ATL@@QEBA_NPEAUIOleInPlaceSiteWindowless@@@Z 000000018000a600 f i Keylock.obj
 0001:00009650       ??8?$CComPtrBase@UIOleObject@@@ATL@@QEBA_NPEAUIOleObject@@@Z 000000018000a650 f i Keylock.obj
 0001:000096a0       ??8?$CComPtrBase@UIPersistStream@@@ATL@@QEBA_NPEAUIPersistStream@@@Z 000000018000a6a0 f i Keylock.obj
 0001:000096f0       ??8?$CComPtrBase@UIPersistStreamInit@@@ATL@@QEBA_NPEAUIPersistStreamInit@@@Z 000000018000a6f0 f i Keylock.obj
 0001:00009740       ??8?$CComPtrBase@UIPointerInactive@@@ATL@@QEBA_NPEAUIPointerInactive@@@Z 000000018000a740 f i Keylock.obj
 0001:00009790       ??8?$CComPtrBase@UIUnknown@@@ATL@@QEBA_NPEAUIUnknown@@@Z 000000018000a790 f i Keylock.obj
 0001:000097e0       ??8?$CComPtrBase@UIViewObjectEx@@@ATL@@QEBA_NPEAUIViewObjectEx@@@Z 000000018000a7e0 f i Keylock.obj
 0001:00009830       ??8CComBSTR@ATL@@QEBA_NH@Z 000000018000a830 f i Keylock.obj
 0001:000098b0       ??9?$CComPtrBase@UIAdviseSink@@@ATL@@QEBA_NPEAUIAdviseSink@@@Z 000000018000a8b0 f i Keylock.obj
 0001:00009910       ??9?$CComPtrBase@UIConnectionPointContainer@@@ATL@@QEBA_NPEAUIConnectionPointContainer@@@Z 000000018000a910 f i Keylock.obj
 0001:00009970       ??9?$CComPtrBase@UIDataAdviseHolder@@@ATL@@QEBA_NPEAUIDataAdviseHolder@@@Z 000000018000a970 f i Keylock.obj
 0001:000099d0       ??9?$CComPtrBase@UIOleAdviseHolder@@@ATL@@QEBA_NPEAUIOleAdviseHolder@@@Z 000000018000a9d0 f i Keylock.obj
 0001:00009a30       ??9?$CComPtrBase@UIOleClientSite@@@ATL@@QEBA_NPEAUIOleClientSite@@@Z 000000018000aa30 f i Keylock.obj
 0001:00009a90       ??9?$CComPtrBase@UIOleControlSite@@@ATL@@QEBA_NPEAUIOleControlSite@@@Z 000000018000aa90 f i Keylock.obj
 0001:00009af0       ??9?$CComPtrBase@UIOleInPlaceObject@@@ATL@@QEBA_NPEAUIOleInPlaceObject@@@Z 000000018000aaf0 f i Keylock.obj
 0001:00009b50       ??9?$CComPtrBase@UIOleInPlaceSiteWindowless@@@ATL@@QEBA_NPEAUIOleInPlaceSiteWindowless@@@Z 000000018000ab50 f i Keylock.obj
 0001:00009bb0       ??9?$CComPtrBase@UIOleObject@@@ATL@@QEBA_NPEAUIOleObject@@@Z 000000018000abb0 f i Keylock.obj
 0001:00009c10       ??9?$CComPtrBase@UIPersistStream@@@ATL@@QEBA_NPEAUIPersistStream@@@Z 000000018000ac10 f i Keylock.obj
 0001:00009c70       ??9?$CComPtrBase@UIPersistStreamInit@@@ATL@@QEBA_NPEAUIPersistStreamInit@@@Z 000000018000ac70 f i Keylock.obj
 0001:00009cd0       ??9?$CComPtrBase@UIPointerInactive@@@ATL@@QEBA_NPEAUIPointerInactive@@@Z 000000018000acd0 f i Keylock.obj
 0001:00009d30       ??9?$CComPtrBase@UIUnknown@@@ATL@@QEBA_NPEAUIUnknown@@@Z 000000018000ad30 f i Keylock.obj
 0001:00009d90       ??9?$CComPtrBase@UIViewObjectEx@@@ATL@@QEBA_NPEAUIViewObjectEx@@@Z 000000018000ad90 f i Keylock.obj
 0001:00009df0       ??9CComBSTR@ATL@@QEBA_NH@Z 000000018000adf0 f i Keylock.obj
 0001:00009e50       ??B?$CComPtrBase@UIAdviseSink@@@ATL@@QEBAPEAUIAdviseSink@@XZ 000000018000ae50 f i Keylock.obj
 0001:00009e60       ??B?$CComPtrBase@UIDataAdviseHolder@@@ATL@@QEBAPEAUIDataAdviseHolder@@XZ 000000018000ae60 f i Keylock.obj
 0001:00009e70       ??B?$CComPtrBase@UIDataObject@@@ATL@@QEBAPEAUIDataObject@@XZ 000000018000ae70 f i Keylock.obj
 0001:00009e80       ??B?$CComPtrBase@UIOleAdviseHolder@@@ATL@@QEBAPEAUIOleAdviseHolder@@XZ 000000018000ae80 f i Keylock.obj
 0001:00009e90       ??B?$CComPtrBase@UIOleClientSite@@@ATL@@QEBAPEAUIOleClientSite@@XZ 000000018000ae90 f i Keylock.obj
 0001:00009ea0       ??B?$CComPtrBase@UIOleControlSite@@@ATL@@QEBAPEAUIOleControlSite@@XZ 000000018000aea0 f i Keylock.obj
 0001:00009eb0       ??B?$CComPtrBase@UIOleInPlaceActiveObject@@@ATL@@QEBAPEAUIOleInPlaceActiveObject@@XZ 000000018000aeb0 f i Keylock.obj
 0001:00009ec0       ??B?$CComPtrBase@UIOleInPlaceFrame@@@ATL@@QEBAPEAUIOleInPlaceFrame@@XZ 000000018000aec0 f i Keylock.obj
 0001:00009ed0       ??B?$CComPtrBase@UIOleInPlaceSiteWindowless@@@ATL@@QEBAPEAUIOleInPlaceSiteWindowless@@XZ 000000018000aed0 f i Keylock.obj
 0001:00009ee0       ??B?$CComPtrBase@UIOleInPlaceUIWindow@@@ATL@@QEBAPEAUIOleInPlaceUIWindow@@XZ 000000018000aee0 f i Keylock.obj
 0001:00009ef0       ??B?$CComPtrBase@UIOleObject@@@ATL@@QEBAPEAUIOleObject@@XZ 000000018000aef0 f i Keylock.obj
 0001:00009f00       ??B?$CComPtrBase@UIPersistStream@@@ATL@@QEBAPEAUIPersistStream@@XZ 000000018000af00 f i Keylock.obj
 0001:00009f10       ??B?$CComPtrBase@UIProvideClassInfo2@@@ATL@@QEBAPEAUIProvideClassInfo2@@XZ 000000018000af10 f i Keylock.obj
 0001:00009f20       ??B?$CComPtrBase@UISpecifyPropertyPages@@@ATL@@QEBAPEAUISpecifyPropertyPages@@XZ 000000018000af20 f i Keylock.obj
 0001:00009f30       ??B?$CComPtrBase@UIStream@@@ATL@@QEBAPEAUIStream@@XZ 000000018000af30 f i Keylock.obj
 0001:00009f40       ??B?$CComPtrBase@UITypeInfo2@@@ATL@@QEBAPEAUITypeInfo2@@XZ 000000018000af40 f i Keylock.obj
 0001:00009f50       ??B?$CComPtrBase@UITypeInfo@@@ATL@@QEBAPEAUITypeInfo@@XZ 000000018000af50 f i Keylock.obj
 0001:00009f60       ??B?$CComPtrBase@UITypeLib@@@ATL@@QEBAPEAUITypeLib@@XZ 000000018000af60 f i Keylock.obj
 0001:00009f70       ??B?$CComPtrBase@UIUnknown@@@ATL@@QEBAPEAUIUnknown@@XZ 000000018000af70 f i Keylock.obj
 0001:00009f80       ??B?$CTempBuffer@E$0BAA@VCCRTAllocator@ATL@@@ATL@@QEBAPEAEXZ 000000018000af80 f i Keylock.obj
 0001:00009f90       ??B?$CTempBuffer@_W$0BAA@VCCRTAllocator@ATL@@@ATL@@QEBAPEA_WXZ 000000018000af90 f i Keylock.obj
 0001:00009fa0       ??B?$CTempBuffer@_W$0EAA@VCCRTAllocator@ATL@@@ATL@@QEBAPEA_WXZ 000000018000afa0 f i Keylock.obj
 0001:00009fb0       ??B?$CTraceCategoryEx@$00$0A@@ATL@@QEAAIXZ 000000018000afb0 f i Keylock.obj
 0001:00009fc0       ??B?$CTraceCategoryEx@$07$0A@@ATL@@QEAAIXZ 000000018000afc0 f i Keylock.obj
 0001:00009fd0       ??B?$CTraceCategoryEx@$0CAAA@$0A@@ATL@@QEAAIXZ 000000018000afd0 f i Keylock.obj
 0001:00009fe0       ??B?$CTraceCategoryEx@$0EA@$0A@@ATL@@QEAAIXZ 000000018000afe0 f i Keylock.obj
 0001:00009ff0       ??B?$CTraceCategoryEx@$0IAA@$0A@@ATL@@QEAAIXZ 000000018000aff0 f i Keylock.obj
 0001:0000a000       ??BCComBSTR@ATL@@QEBAPEA_WXZ 000000018000b000 f i Keylock.obj
 0001:0000a010       ??BCRegKey@ATL@@QEBAPEAUHKEY__@@XZ 000000018000b010 f i Keylock.obj
 0001:0000a020       ??C?$CComPtrBase@UIAdviseSink@@@ATL@@QEBAPEAV?$_NoAddRefReleaseOnCComPtr@UIAdviseSink@@@1@XZ 000000018000b020 f i Keylock.obj
 0001:0000a0a0       ??C?$CComPtrBase@UICatRegister@@@ATL@@QEBAPEAV?$_NoAddRefReleaseOnCComPtr@UICatRegister@@@1@XZ 000000018000b0a0 f i Keylock.obj
 0001:0000a120       ??C?$CComPtrBase@UIConnectionPoint@@@ATL@@QEBAPEAV?$_NoAddRefReleaseOnCComPtr@UIConnectionPoint@@@1@XZ 000000018000b120 f i Keylock.obj
 0001:0000a1a0       ??C?$CComPtrBase@UIConnectionPointContainer@@@ATL@@QEBAPEAV?$_NoAddRefReleaseOnCComPtr@UIConnectionPointContainer@@@1@XZ 000000018000b1a0 f i Keylock.obj
 0001:0000a220       ??C?$CComPtrBase@UIDataAdviseHolder@@@ATL@@QEBAPEAV?$_NoAddRefReleaseOnCComPtr@UIDataAdviseHolder@@@1@XZ 000000018000b220 f i Keylock.obj
 0001:0000a2a0       ??C?$CComPtrBase@UIOleAdviseHolder@@@ATL@@QEBAPEAV?$_NoAddRefReleaseOnCComPtr@UIOleAdviseHolder@@@1@XZ 000000018000b2a0 f i Keylock.obj
 0001:0000a320       ??C?$CComPtrBase@UIOleClientSite@@@ATL@@QEBAPEAV?$_NoAddRefReleaseOnCComPtr@UIOleClientSite@@@1@XZ 000000018000b320 f i Keylock.obj
 0001:0000a3a0       ??C?$CComPtrBase@UIOleControlSite@@@ATL@@QEBAPEAV?$_NoAddRefReleaseOnCComPtr@UIOleControlSite@@@1@XZ 000000018000b3a0 f i Keylock.obj
 0001:0000a420       ??C?$CComPtrBase@UIOleInPlaceFrame@@@ATL@@QEBAPEAV?$_NoAddRefReleaseOnCComPtr@UIOleInPlaceFrame@@@1@XZ 000000018000b420 f i Keylock.obj
 0001:0000a4a0       ??C?$CComPtrBase@UIOleInPlaceObject@@@ATL@@QEBAPEAV?$_NoAddRefReleaseOnCComPtr@UIOleInPlaceObject@@@1@XZ 000000018000b4a0 f i Keylock.obj
 0001:0000a520       ??C?$CComPtrBase@UIOleInPlaceSiteWindowless@@@ATL@@QEBAPEAV?$_NoAddRefReleaseOnCComPtr@UIOleInPlaceSiteWindowless@@@1@XZ 000000018000b520 f i Keylock.obj
 0001:0000a5a0       ??C?$CComPtrBase@UIOleInPlaceUIWindow@@@ATL@@QEBAPEAV?$_NoAddRefReleaseOnCComPtr@UIOleInPlaceUIWindow@@@1@XZ 000000018000b5a0 f i Keylock.obj
 0001:0000a620       ??C?$CComPtrBase@UIOleObject@@@ATL@@QEBAPEAV?$_NoAddRefReleaseOnCComPtr@UIOleObject@@@1@XZ 000000018000b620 f i Keylock.obj
 0001:0000a6a0       ??C?$CComPtrBase@UIPersistStream@@@ATL@@QEBAPEAV?$_NoAddRefReleaseOnCComPtr@UIPersistStream@@@1@XZ 000000018000b6a0 f i Keylock.obj
 0001:0000a720       ??C?$CComPtrBase@UIPersistStreamInit@@@ATL@@QEBAPEAV?$_NoAddRefReleaseOnCComPtr@UIPersistStreamInit@@@1@XZ 000000018000b720 f i Keylock.obj
 0001:0000a7a0       ??C?$CComPtrBase@UIPointerInactive@@@ATL@@QEBAPEAV?$_NoAddRefReleaseOnCComPtr@UIPointerInactive@@@1@XZ 000000018000b7a0 f i Keylock.obj
 0001:0000a820       ??C?$CComPtrBase@UIProvideClassInfo2@@@ATL@@QEBAPEAV?$_NoAddRefReleaseOnCComPtr@UIProvideClassInfo2@@@1@XZ 000000018000b820 f i Keylock.obj
 0001:0000a8a0       ??C?$CComPtrBase@UISpecifyPropertyPages@@@ATL@@QEBAPEAV?$_NoAddRefReleaseOnCComPtr@UISpecifyPropertyPages@@@1@XZ 000000018000b8a0 f i Keylock.obj
 0001:0000a920       ??C?$CComPtrBase@UITypeInfo@@@ATL@@QEBAPEAV?$_NoAddRefReleaseOnCComPtr@UITypeInfo@@@1@XZ 000000018000b920 f i Keylock.obj
 0001:0000a9a0       ??C?$CComPtrBase@UITypeLib@@@ATL@@QEBAPEAV?$_NoAddRefReleaseOnCComPtr@UITypeLib@@@1@XZ 000000018000b9a0 f i Keylock.obj
 0001:0000aa20       ??C?$CComPtrBase@UIUnknown@@@ATL@@QEBAPEAV?$_NoAddRefReleaseOnCComPtr@UIUnknown@@@1@XZ 000000018000ba20 f i Keylock.obj
 0001:0000aaa0       ??C?$CComPtrBase@UIViewObjectEx@@@ATL@@QEBAPEAV?$_NoAddRefReleaseOnCComPtr@UIViewObjectEx@@@1@XZ 000000018000baa0 f i Keylock.obj
 0001:0000ab20       ??I?$CComPtrBase@UICatRegister@@@ATL@@QEAAPEAPEAUICatRegister@@XZ 000000018000bb20 f i Keylock.obj
 0001:0000ab90       ??I?$CComPtrBase@UIConnectionPoint@@@ATL@@QEAAPEAPEAUIConnectionPoint@@XZ 000000018000bb90 f i Keylock.obj
 0001:0000ac00       ??I?$CComPtrBase@UIConnectionPointContainer@@@ATL@@QEAAPEAPEAUIConnectionPointContainer@@XZ 000000018000bc00 f i Keylock.obj
 0001:0000ac70       ??I?$CComPtrBase@UIDataAdviseHolder@@@ATL@@QEAAPEAPEAUIDataAdviseHolder@@XZ 000000018000bc70 f i Keylock.obj
 0001:0000ace0       ??I?$CComPtrBase@UIDataObject@@@ATL@@QEAAPEAPEAUIDataObject@@XZ 000000018000bce0 f i Keylock.obj
 0001:0000ad50       ??I?$CComPtrBase@UIDispatch@@@ATL@@QEAAPEAPEAUIDispatch@@XZ 000000018000bd50 f i Keylock.obj
 0001:0000adc0       ??I?$CComPtrBase@UIOleAdviseHolder@@@ATL@@QEAAPEAPEAUIOleAdviseHolder@@XZ 000000018000bdc0 f i Keylock.obj
 0001:0000ae30       ??I?$CComPtrBase@UIOleControlSite@@@ATL@@QEAAPEAPEAUIOleControlSite@@XZ 000000018000be30 f i Keylock.obj
 0001:0000aea0       ??I?$CComPtrBase@UIOleInPlaceActiveObject@@@ATL@@QEAAPEAPEAUIOleInPlaceActiveObject@@XZ 000000018000bea0 f i Keylock.obj
 0001:0000af10       ??I?$CComPtrBase@UIOleInPlaceFrame@@@ATL@@QEAAPEAPEAUIOleInPlaceFrame@@XZ 000000018000bf10 f i Keylock.obj
 0001:0000af80       ??I?$CComPtrBase@UIOleInPlaceObject@@@ATL@@QEAAPEAPEAUIOleInPlaceObject@@XZ 000000018000bf80 f i Keylock.obj
 0001:0000aff0       ??I?$CComPtrBase@UIOleInPlaceSiteWindowless@@@ATL@@QEAAPEAPEAUIOleInPlaceSiteWindowless@@XZ 000000018000bff0 f i Keylock.obj
 0001:0000b060       ??I?$CComPtrBase@UIOleInPlaceUIWindow@@@ATL@@QEAAPEAPEAUIOleInPlaceUIWindow@@XZ 000000018000c060 f i Keylock.obj
 0001:0000b0d0       ??I?$CComPtrBase@UIOleObject@@@ATL@@QEAAPEAPEAUIOleObject@@XZ 000000018000c0d0 f i Keylock.obj
 0001:0000b140       ??I?$CComPtrBase@UIPersistStream@@@ATL@@QEAAPEAPEAUIPersistStream@@XZ 000000018000c140 f i Keylock.obj
 0001:0000b1b0       ??I?$CComPtrBase@UIPointerInactive@@@ATL@@QEAAPEAPEAUIPointerInactive@@XZ 000000018000c1b0 f i Keylock.obj
 0001:0000b220       ??I?$CComPtrBase@UIProvideClassInfo2@@@ATL@@QEAAPEAPEAUIProvideClassInfo2@@XZ 000000018000c220 f i Keylock.obj
 0001:0000b290       ??I?$CComPtrBase@UIStream@@@ATL@@QEAAPEAPEAUIStream@@XZ 000000018000c290 f i Keylock.obj
 0001:0000b300       ??I?$CComPtrBase@UITypeInfo2@@@ATL@@QEAAPEAPEAUITypeInfo2@@XZ 000000018000c300 f i Keylock.obj
 0001:0000b370       ??I?$CComPtrBase@UITypeInfo@@@ATL@@QEAAPEAPEAUITypeInfo@@XZ 000000018000c370 f i Keylock.obj
 0001:0000b3e0       ??I?$CComPtrBase@UITypeLib@@@ATL@@QEAAPEAPEAUITypeLib@@XZ 000000018000c3e0 f i Keylock.obj
 0001:0000b450       ??I?$CComPtrBase@UIUnknown@@@ATL@@QEAAPEAPEAUIUnknown@@XZ 000000018000c450 f i Keylock.obj
 0001:0000b4c0       ??I?$CComPtrBase@UIViewObjectEx@@@ATL@@QEAAPEAPEAUIViewObjectEx@@XZ 000000018000c4c0 f i Keylock.obj
 0001:0000b530       ??ICComBSTR@ATL@@QEAAPEAPEA_WXZ 000000018000c530 f i Keylock.obj
 0001:0000b540       ??_E?$CComContainedObject@VCOPOSKeylock@@@ATL@@W7EAAPEAXI@Z 000000018000c540 f i Keylock.obj
 0001:0000b54c       ??_E?$CComContainedObject@VCOPOSKeylock@@@ATL@@WHA@EAAPEAXI@Z 000000018000c54c f i Keylock.obj
 0001:0000b558       ??_E?$CComObject@VCOPOSKeylock@@@ATL@@W7EAAPEAXI@Z 000000018000c558 f i Keylock.obj
 0001:0000b564       ??_E?$CComObject@VCOPOSKeylock@@@ATL@@WHA@EAAPEAXI@Z 000000018000c564 f i Keylock.obj
 0001:0000b570       ??_E?$CComAggObject@VCOPOSKeylock@@@ATL@@UEAAPEAXI@Z 000000018000c570 f i Keylock.obj
 0001:0000b570       ??_G?$CComAggObject@VCOPOSKeylock@@@ATL@@UEAAPEAXI@Z 000000018000c570 f i Keylock.obj
 0001:0000b5d0       ??_E?$CComContainedObject@VCOPOSKeylock@@@ATL@@UEAAPEAXI@Z 000000018000c5d0 f i Keylock.obj
 0001:0000b5d0       ??_G?$CComContainedObject@VCOPOSKeylock@@@ATL@@UEAAPEAXI@Z 000000018000c5d0 f i Keylock.obj
 0001:0000b630       ??_G?$CComObject@V?$CComEnum@UIEnumConnectionPoints@@$1?_GUID_b196b285_bab4_101a_b69c_00aa00341d07@@3U__s_GUID@@BPEAUIConnectionPoint@@V?$_CopyInterface@UIConnectionPoint@@@ATL@@VCComSingleThreadModel@6@@ATL@@@ATL@@UEAAPEAXI@Z 000000018000c630 f i Keylock.obj
 0001:0000b630       ??_E?$CComObject@V?$CComEnum@UIEnumConnectionPoints@@$1?_GUID_b196b285_bab4_101a_b69c_00aa00341d07@@3U__s_GUID@@BPEAUIConnectionPoint@@V?$_CopyInterface@UIConnectionPoint@@@ATL@@VCComSingleThreadModel@6@@ATL@@@ATL@@UEAAPEAXI@Z 000000018000c630 f i Keylock.obj
 0001:0000b690       ??_E?$CComObject@V?$CComEnum@UIEnumConnections@@$1?_GUID_b196b287_bab4_101a_b69c_00aa00341d07@@3U__s_GUID@@BUtagCONNECTDATA@@V?$_Copy@UtagCONNECTDATA@@@ATL@@VCComSingleThreadModel@6@@ATL@@@ATL@@UEAAPEAXI@Z 000000018000c690 f i Keylock.obj
 0001:0000b690       ??_G?$CComObject@V?$CComEnum@UIEnumConnections@@$1?_GUID_b196b287_bab4_101a_b69c_00aa00341d07@@3U__s_GUID@@BUtagCONNECTDATA@@V?$_Copy@UtagCONNECTDATA@@@ATL@@VCComSingleThreadModel@6@@ATL@@@ATL@@UEAAPEAXI@Z 000000018000c690 f i Keylock.obj
 0001:0000b6f0       ??_G?$CComObject@VCOPOSKeylock@@@ATL@@UEAAPEAXI@Z 000000018000c6f0 f i Keylock.obj
 0001:0000b6f0       ??_E?$CComObject@VCOPOSKeylock@@@ATL@@UEAAPEAXI@Z 000000018000c6f0 f i Keylock.obj
 0001:0000b750       ??_G?$CComObjectCached@VCComClassFactory@ATL@@@ATL@@UEAAPEAXI@Z 000000018000c750 f i Keylock.obj
 0001:0000b750       ??_E?$CComObjectCached@VCComClassFactory@ATL@@@ATL@@UEAAPEAXI@Z 000000018000c750 f i Keylock.obj
 0001:0000b7b0       ??_ECComClassFactory@ATL@@UEAAPEAXI@Z 000000018000c7b0 f i Keylock.obj
 0001:0000b7b0       ??_GCComClassFactory@ATL@@UEAAPEAXI@Z 000000018000c7b0 f i Keylock.obj
 0001:0000b810       ??_ECComModule@ATL@@UEAAPEAXI@Z 000000018000c810 f i Keylock.obj
 0001:0000b810       ??_GCComModule@ATL@@UEAAPEAXI@Z 000000018000c810 f i Keylock.obj
 0001:0000b870       ??_GCRegObject@ATL@@UEAAPEAXI@Z 000000018000c870 f i Keylock.obj
 0001:0000b870       ??_ECRegObject@ATL@@UEAAPEAXI@Z 000000018000c870 f i Keylock.obj
 0001:0000b8d0       ?Add@?$CSimpleArray@GV?$CSimpleArrayEqualHelper@G@ATL@@@ATL@@QEAAHAEBG@Z 000000018000c8d0 f i Keylock.obj
 0001:0000ba70       ?Add@?$CSimpleMap@PEA_WPEA_WVCExpansionVectorEqualHelper@ATL@@@ATL@@QEAAHAEBQEA_W0@Z 000000018000ca70 f i Keylock.obj
 0001:0000bb60       ?Add@CComDynamicUnkArray@ATL@@QEAAKPEAUIUnknown@@@Z 000000018000cb60 f i Keylock.obj
 0001:0000bd40       ?Add@CExpansionVector@ATL@@QEAAHPEB_W0@Z 000000018000cd40 f i Keylock.obj
 0001:0000c070       ?AddChar@CParseBuffer@CRegParser@ATL@@QEAAHPEB_W@Z 000000018000d070 f i Keylock.obj
 0001:0000c0c0       ?AddCommonRGSReplacements@?$CAtlModuleT@VCComModule@ATL@@@ATL@@UEAAJPEAUIRegistrarBase@@@Z 000000018000d0c0 f i Keylock.obj
 0001:0000c120       ?AddCreateWndData@CAtlWinModule@ATL@@QEAAXPEAU_AtlCreateWndData@2@PEAX@Z 000000018000d120 f i Keylock.obj
 0001:0000c170       ?AddRef@?$CComAggObject@VCOPOSKeylock@@@ATL@@UEAAKXZ 000000018000d170 f i Keylock.obj
 0001:0000c1b0       ?AddRef@?$CComContainedObject@VCOPOSKeylock@@@ATL@@UEAAKXZ 000000018000d1b0 f i Keylock.obj
 0001:0000c1e8       ?AddRef@?$CComContainedObject@VCOPOSKeylock@@@ATL@@WBAA@EAAKXZ 000000018000d1e8 f i Keylock.obj
 0001:0000c1f4       ?AddRef@?$CComContainedObject@VCOPOSKeylock@@@ATL@@WBAI@EAAKXZ 000000018000d1f4 f i Keylock.obj
 0001:0000c200       ?AddRef@?$CComContainedObject@VCOPOSKeylock@@@ATL@@WBBA@EAAKXZ 000000018000d200 f i Keylock.obj
 0001:0000c20c       ?AddRef@?$CComContainedObject@VCOPOSKeylock@@@ATL@@WBBI@EAAKXZ 000000018000d20c f i Keylock.obj
 0001:0000c218       ?AddRef@?$CComContainedObject@VCOPOSKeylock@@@ATL@@WBCI@EAAKXZ 000000018000d218 f i Keylock.obj
 0001:0000c224       ?AddRef@?$CComContainedObject@VCOPOSKeylock@@@ATL@@WBEA@EAAKXZ 000000018000d224 f i Keylock.obj
 0001:0000c230       ?AddRef@?$CComContainedObject@VCOPOSKeylock@@@ATL@@WLI@EAAKXZ 000000018000d230 f i Keylock.obj
 0001:0000c23c       ?AddRef@?$CComContainedObject@VCOPOSKeylock@@@ATL@@WMA@EAAKXZ 000000018000d23c f i Keylock.obj
 0001:0000c248       ?AddRef@?$CComContainedObject@VCOPOSKeylock@@@ATL@@WMI@EAAKXZ 000000018000d248 f i Keylock.obj
 0001:0000c254       ?AddRef@?$CComContainedObject@VCOPOSKeylock@@@ATL@@WNA@EAAKXZ 000000018000d254 f i Keylock.obj
 0001:0000c260       ?AddRef@?$CComContainedObject@VCOPOSKeylock@@@ATL@@WNI@EAAKXZ 000000018000d260 f i Keylock.obj
 0001:0000c26c       ?AddRef@?$CComContainedObject@VCOPOSKeylock@@@ATL@@WOA@EAAKXZ 000000018000d26c f i Keylock.obj
 0001:0000c278       ?AddRef@?$CComContainedObject@VCOPOSKeylock@@@ATL@@WOI@EAAKXZ 000000018000d278 f i Keylock.obj
 0001:0000c284       ?AddRef@?$CComContainedObject@VCOPOSKeylock@@@ATL@@WPA@EAAKXZ 000000018000d284 f i Keylock.obj
 0001:0000c290       ?AddRef@?$CComContainedObject@VCOPOSKeylock@@@ATL@@WPI@EAAKXZ 000000018000d290 f i Keylock.obj
 0001:0000c2a0       ?AddRef@?$CComObject@V?$CComEnum@UIEnumConnectionPoints@@$1?_GUID_b196b285_bab4_101a_b69c_00aa00341d07@@3U__s_GUID@@BPEAUIConnectionPoint@@V?$_CopyInterface@UIConnectionPoint@@@ATL@@VCComSingleThreadModel@6@@ATL@@@ATL@@UEAAKXZ 000000018000d2a0 f i Keylock.obj
 0001:0000c2e0       ?AddRef@?$CComObject@V?$CComEnum@UIEnumConnections@@$1?_GUID_b196b287_bab4_101a_b69c_00aa00341d07@@3U__s_GUID@@BUtagCONNECTDATA@@V?$_Copy@UtagCONNECTDATA@@@ATL@@VCComSingleThreadModel@6@@ATL@@@ATL@@UEAAKXZ 000000018000d2e0 f i Keylock.obj
 0001:0000c320       ?AddRef@?$CComObject@VCOPOSKeylock@@@ATL@@UEAAKXZ 000000018000d320 f i Keylock.obj
 0001:0000c358       ?AddRef@?$CComObject@VCOPOSKeylock@@@ATL@@WBAA@EAAKXZ 000000018000d358 f i Keylock.obj
 0001:0000c364       ?AddRef@?$CComObject@VCOPOSKeylock@@@ATL@@WBAI@EAAKXZ 000000018000d364 f i Keylock.obj
 0001:0000c370       ?AddRef@?$CComObject@VCOPOSKeylock@@@ATL@@WBBA@EAAKXZ 000000018000d370 f i Keylock.obj
 0001:0000c37c       ?AddRef@?$CComObject@VCOPOSKeylock@@@ATL@@WBBI@EAAKXZ 000000018000d37c f i Keylock.obj
 0001:0000c388       ?AddRef@?$CComObject@VCOPOSKeylock@@@ATL@@WBCI@EAAKXZ 000000018000d388 f i Keylock.obj
 0001:0000c394       ?AddRef@?$CComObject@VCOPOSKeylock@@@ATL@@WBEA@EAAKXZ 000000018000d394 f i Keylock.obj
 0001:0000c3a0       ?AddRef@?$CComObject@VCOPOSKeylock@@@ATL@@WLI@EAAKXZ 000000018000d3a0 f i Keylock.obj
 0001:0000c3ac       ?AddRef@?$CComObject@VCOPOSKeylock@@@ATL@@WMA@EAAKXZ 000000018000d3ac f i Keylock.obj
 0001:0000c3b8       ?AddRef@?$CComObject@VCOPOSKeylock@@@ATL@@WMI@EAAKXZ 000000018000d3b8 f i Keylock.obj
 0001:0000c3c4       ?AddRef@?$CComObject@VCOPOSKeylock@@@ATL@@WNA@EAAKXZ 000000018000d3c4 f i Keylock.obj
 0001:0000c3d0       ?AddRef@?$CComObject@VCOPOSKeylock@@@ATL@@WNI@EAAKXZ 000000018000d3d0 f i Keylock.obj
 0001:0000c3dc       ?AddRef@?$CComObject@VCOPOSKeylock@@@ATL@@WOA@EAAKXZ 000000018000d3dc f i Keylock.obj
 0001:0000c3e8       ?AddRef@?$CComObject@VCOPOSKeylock@@@ATL@@WOI@EAAKXZ 000000018000d3e8 f i Keylock.obj
 0001:0000c3f4       ?AddRef@?$CComObject@VCOPOSKeylock@@@ATL@@WPA@EAAKXZ 000000018000d3f4 f i Keylock.obj
 0001:0000c400       ?AddRef@?$CComObject@VCOPOSKeylock@@@ATL@@WPI@EAAKXZ 000000018000d400 f i Keylock.obj
 0001:0000c410       ?AddRef@?$CComObjectCached@VCComClassFactory@ATL@@@ATL@@UEAAKXZ 000000018000d410 f i Keylock.obj
 0001:0000c470       ?AddRef@CRegObject@ATL@@UEAAKXZ 000000018000d470 f i Keylock.obj
 0001:0000c4e0       ?AddReplacement@CRegObject@ATL@@UEAAJPEB_W0@Z 000000018000d4e0 f i Keylock.obj
 0001:0000c610       ?AddString@CParseBuffer@CRegParser@ATL@@QEAAHPEB_W@Z 000000018000d610 f i Keylock.obj
 0001:0000c700       ?AddTermFunc@CAtlModule@ATL@@QEAAJP6AX_K@Z0@Z 000000018000d700 f i Keylock.obj
 0001:0000c770       ?AddValue@CRegParser@ATL@@IEAAJAEAVCRegKey@2@PEB_WPEA_W@Z 000000018000d770 f i Keylock.obj
 0001:0000d040       ?Advise@?$CProxy_IOPOSEvents@VCOPOSKeylock@@@@UEAAJPEAUIUnknown@@PEAK@Z 000000018000e040 f i Keylock.obj
 0001:0000d0b0       ?Advise@?$IConnectionPointImpl@VCOPOSKeylock@@$1?DIID__IOPOSKeylockEvents@@3U_GUID@@BVCComDynamicUnkArray@ATL@@@ATL@@UEAAJPEAUIUnknown@@PEAK@Z 000000018000e0b0 f i Keylock.obj
 0001:0000d2b0       ?Advise@?$IConnectionPointImpl@VCOPOSKeylock@@$1?IID_IPropertyNotifySink@@3U_GUID@@BVCComDynamicUnkArray@ATL@@@ATL@@UEAAJPEAUIUnknown@@PEAK@Z 000000018000e2b0 f i Keylock.obj
 0001:0000d4b0       ?Advise@?$IOleObjectImpl@VCOPOSKeylock@@@ATL@@UEAAJPEAUIAdviseSink@@PEAK@Z 000000018000e4b0 f i Keylock.obj
 0001:0000d570       ?Allocate@?$CAtlSafeAllocBufferManager@VCCRTAllocator@ATL@@@_ATL_SAFE_ALLOCA_IMPL@ATL@@QEAAPEAX_K@Z 000000018000e570 f i Keylock.obj
 0001:0000d5f0       ?Allocate@?$CTempBuffer@E$0BAA@VCCRTAllocator@ATL@@@ATL@@QEAAPEAE_K@Z 000000018000e5f0 f i Keylock.obj
 0001:0000d640       ?Allocate@?$CTempBuffer@_W$0BAA@VCCRTAllocator@ATL@@@ATL@@QEAAPEA_W_K@Z 000000018000e640 f i Keylock.obj
 0001:0000d690       ?Allocate@?$CTempBuffer@_W$0EAA@VCCRTAllocator@ATL@@@ATL@@QEAAPEA_W_K@Z 000000018000e690 f i Keylock.obj
 0001:0000d6e0       ?AllocateBytes@?$CTempBuffer@E$0BAA@VCCRTAllocator@ATL@@@ATL@@QEAAPEAE_K@Z 000000018000e6e0 f i Keylock.obj
 0001:0000d790       ?AllocateBytes@?$CTempBuffer@_W$0BAA@VCCRTAllocator@ATL@@@ATL@@QEAAPEA_W_K@Z 000000018000e790 f i Keylock.obj
 0001:0000d840       ?AllocateBytes@?$CTempBuffer@_W$0EAA@VCCRTAllocator@ATL@@@ATL@@QEAAPEA_W_K@Z 000000018000e840 f i Keylock.obj
 0001:0000d8f0       ?AllocateHeap@?$CTempBuffer@E$0BAA@VCCRTAllocator@ATL@@@ATL@@AEAAX_K@Z 000000018000e8f0 f i Keylock.obj
 0001:0000d950       ?AllocateHeap@?$CTempBuffer@_W$0BAA@VCCRTAllocator@ATL@@@ATL@@AEAAX_K@Z 000000018000e950 f i Keylock.obj
 0001:0000d9b0       ?AllocateHeap@?$CTempBuffer@_W$0EAA@VCCRTAllocator@ATL@@@ATL@@AEAAX_K@Z 000000018000e9b0 f i Keylock.obj
 0001:0000da10       ?Append@CParseBuffer@CRegParser@ATL@@QEAAHPEB_WH@Z 000000018000ea10 f i Keylock.obj
 0001:0000dc40       ?AtlCallTermFunc@ATL@@YAXPEAU_ATL_MODULE70@1@@Z 000000018000ec40 f i Keylock.obj
 0001:0000dcf0       ?AtlCoTaskMemCAlloc@ATL@@YAPEAXKK@Z 000000018000ecf0 f i Keylock.obj
 0001:0000dd70       ?AtlCoTaskMemRecalloc@ATL@@YAPEAXPEAXKK@Z 000000018000ed70 f i Keylock.obj
 0001:0000ddf0       ?AtlComModuleGetClassObject@ATL@@YAJPEAU_ATL_COM_MODULE70@1@AEBU_GUID@@1PEAPEAX@Z 000000018000edf0 f i Keylock.obj
 0001:0000e120       ?AtlComModuleRegisterServer@ATL@@YAJPEAU_ATL_COM_MODULE70@1@HPEBU_GUID@@@Z 000000018000f120 f i Keylock.obj
 0001:0000e320       ?AtlComModuleUnregisterServer@ATL@@YAJPEAU_ATL_COM_MODULE70@1@HPEBU_GUID@@@Z 000000018000f320 f i Keylock.obj
 0001:0000e480       ?AtlComQIPtrAssign2@ATL@@YAXPEAPEAUIUnknown@@PEAU2@AEBU_GUID@@@Z 000000018000f480 f i Keylock.obj
 0001:0000e510       ?AtlCreateTargetDC@ATL@@YAPEAUHDC__@@PEAU2@PEAUtagDVTARGETDEVICE@@@Z 000000018000f510 f i Keylock.obj
 0001:0000e740       ?AtlCrtErrorCheck@ATL@@YAHH@Z 000000018000f740 f i Keylock.obj
 0001:0000e7c0       ?AtlGetPerUserRegistration@ATL@@YAJPEA_N@Z 000000018000f7c0 f i Keylock.obj
 0001:0000e7f0       ?AtlHiMetricToPixel@ATL@@YAXPEBUtagSIZE@@PEAU2@@Z 000000018000f7f0 f i Keylock.obj
 0001:0000e9f0       ?AtlHresultFromLastError@ATL@@YAJXZ 000000018000f9f0 f i Keylock.obj
 0001:0000ea20       ?AtlHresultFromWin32@ATL@@YAJK@Z 000000018000fa20 f i Keylock.obj
 0001:0000ea50       ?AtlIPersistStreamInit_Load@ATL@@YAJPEAUIStream@@PEBUATL_PROPMAP_ENTRY@1@PEAXPEAUIUnknown@@@Z 000000018000fa50 f i Keylock.obj
 0001:0000f0c0       ?AtlIPersistStreamInit_Save@ATL@@YAJPEAUIStream@@HPEBUATL_PROPMAP_ENTRY@1@PEAXPEAUIUnknown@@@Z 00000001800100c0 f i Keylock.obj
 0001:0000f650       ?AtlInternalOleLoadFromStream@ATL@@YAJPEAUIStream@@AEBU_GUID@@PEAPEAXTClassesAllowedInStream@1@K@Z 0000000180010650 f i Keylock.obj
 0001:0000f990       ?AtlInternalQueryInterface@ATL@@YAJPEAXPEBU_ATL_INTMAP_ENTRY@1@AEBU_GUID@@PEAPEAX@Z 0000000180010990 f i Keylock.obj
 0001:0000fc50       ?AtlLoadTypeLib@ATL@@YAJPEAUHINSTANCE__@@PEB_WPEAPEA_WPEAPEAUITypeLib@@@Z 0000000180010c50 f i Keylock.obj
 0001:00010120       ?AtlModuleAddTermFunc@ATL@@YAJPEAU_ATL_MODULE70@1@P6AX_K@Z1@Z 0000000180011120 f i Keylock.obj
 0001:000102f0       ?AtlRegisterClassCategoriesHelper@ATL@@YAJAEBU_GUID@@PEBU_ATL_CATMAP_ENTRY@1@H@Z 00000001800112f0 f i Keylock.obj
 0001:00010ac0       ?AtlRegisterTypeLib@ATL@@YAJPEAUHINSTANCE__@@PEB_W@Z 0000000180011ac0 f i Keylock.obj
 0001:00010e20       ?AtlThrowImpl@ATL@@YAXJ@Z  0000000180011e20 f i Keylock.obj
 0001:00010f00       ?AtlUnRegisterTypeLib@ATL@@YAJPEAUHINSTANCE__@@PEB_W@Z 0000000180011f00 f i Keylock.obj
 0001:00011130       ?AtlWinModuleAddCreateWndData@ATL@@YAXPEAU_ATL_WIN_MODULE70@1@PEAU_AtlCreateWndData@1@PEAX@Z 0000000180012130 f i Keylock.obj
 0001:00011320       ?AtlWinModuleExtractCreateWndData@ATL@@YAPEAXPEAU_ATL_WIN_MODULE70@1@@Z 0000000180012320 f i Keylock.obj
 0001:00011520       ?AtlWinModuleRegisterClassExW@ATL@@YAGPEAU_ATL_WIN_MODULE70@1@PEBUtagWNDCLASSEXW@@@Z 0000000180012520 f i Keylock.obj
 0001:000115f0       ?AtlWinModuleRegisterWndClassInfoW@ATL@@YAGPEAU_ATL_WIN_MODULE70@1@PEAU_ATL_BASE_MODULE70@1@PEAU_ATL_WNDCLASSINFOW@1@PEAP6A_JPEAUHWND__@@I_K_J@Z@Z 00000001800125f0 f i Keylock.obj
 0001:00011660       ?Attach@?$CAutoVectorPtr@_W@ATL@@QEAAXPEA_W@Z 0000000180012660 f i Keylock.obj
 0001:000116f0       ?Attach@CComBSTR@ATL@@QEAAXPEA_W@Z 00000001800126f0 f i Keylock.obj
 0001:00011750       ?Attach@CRegKey@ATL@@QEAAXPEAUHKEY__@@@Z 0000000180012750 f i Keylock.obj
 0001:000117f0       ?CanForceRemoveKey@CRegParser@ATL@@IEAAHPEB_W@Z 00000001800127f0 f i Keylock.obj
 0001:00011860       ?ChToByte@CRegParser@ATL@@KAE_W@Z 0000000180012860 f i Keylock.obj
 0001:000119c0       ?ChangeType@CComVariant@ATL@@QEAAJGPEBUtagVARIANT@@@Z 00000001800129c0 f i Keylock.obj
 0001:00011a30       ?Cleanup@CComTypeInfoHolder@ATL@@SAX_K@Z 0000000180012a30 f i Keylock.obj
 0001:00011b20       ?Clear@CComVariant@ATL@@QEAAJXZ 0000000180012b20 f i Keylock.obj
 0001:00011b50       ?ClearReplacements@CExpansionVector@ATL@@QEAAJXZ 0000000180012b50 f i Keylock.obj
 0001:00011bf0       ?ClearReplacements@CRegObject@ATL@@UEAAJXZ 0000000180012bf0 f i Keylock.obj
 0001:00011c50       ?Clone@?$CComEnumImpl@UIEnumConnectionPoints@@$1?_GUID_b196b285_bab4_101a_b69c_00aa00341d07@@3U__s_GUID@@BPEAUIConnectionPoint@@V?$_CopyInterface@UIConnectionPoint@@@ATL@@@ATL@@UEAAJPEAPEAUIEnumConnectionPoints@@@Z 0000000180012c50 f i Keylock.obj
 0001:00011e40       ?Clone@?$CComEnumImpl@UIEnumConnections@@$1?_GUID_b196b287_bab4_101a_b69c_00aa00341d07@@3U__s_GUID@@BUtagCONNECTDATA@@V?$_Copy@UtagCONNECTDATA@@@ATL@@@ATL@@UEAAJPEAPEAUIEnumConnections@@@Z 0000000180012e40 f i Keylock.obj
 0001:00012030       ?Close@?$IOleObjectImpl@VCOPOSKeylock@@@ATL@@UEAAJK@Z 0000000180013030 f i Keylock.obj
 0001:000120e0       ?Close@CRegKey@ATL@@QEAAJXZ 00000001800130e0 f i Keylock.obj
 0001:00012150       ?ContextSensitiveHelp@?$IOleInPlaceActiveObjectImpl@VCOPOSKeylock@@@ATL@@UEAAJH@Z 0000000180013150 f i Keylock.obj
 0001:000121d0       ?ContextSensitiveHelp@?$IOleInPlaceObjectWindowlessImpl@VCOPOSKeylock@@@ATL@@UEAAJH@Z 00000001800131d0 f i Keylock.obj
 0001:00012250       ?ControlQueryInterface@?$CComControl@VCOPOSKeylock@@V?$CWindowImpl@VCOPOSKeylock@@VCWindow@ATL@@V?$CWinTraits@$0FGAAAAAA@$0A@@3@@ATL@@@ATL@@UEAAJAEBU_GUID@@PEAPEAX@Z 0000000180013250 f i Keylock.obj
 0001:000122e0       ?CreateControlWindow@?$CComControl@VCOPOSKeylock@@V?$CWindowImpl@VCOPOSKeylock@@VCWindow@ATL@@V?$CWinTraits@$0FGAAAAAA@$0A@@3@@ATL@@@ATL@@UEAAPEAUHWND__@@PEAU3@AEAUtagRECT@@@Z 00000001800132e0 f i Keylock.obj
 0001:000123d0       ?CreateInstance@?$CComCreator@V?$CComAggObject@VCOPOSKeylock@@@ATL@@@ATL@@SAJPEAXAEBU_GUID@@PEAPEAX@Z 00000001800133d0 f i Keylock.obj
 0001:000125b0       ?CreateInstance@?$CComCreator@V?$CComObject@VCOPOSKeylock@@@ATL@@@ATL@@SAJPEAXAEBU_GUID@@PEAPEAX@Z 00000001800135b0 f i Keylock.obj
 0001:000127b0       ?CreateInstance@?$CComObject@V?$CComEnum@UIEnumConnectionPoints@@$1?_GUID_b196b285_bab4_101a_b69c_00aa00341d07@@3U__s_GUID@@BPEAUIConnectionPoint@@V?$_CopyInterface@UIConnectionPoint@@@ATL@@VCComSingleThreadModel@6@@ATL@@@ATL@@SAJPEAPEAV12@@Z 00000001800137b0 f i Keylock.obj
 0001:00012970       ?CreateInstance@?$CComObject@V?$CComEnum@UIEnumConnections@@$1?_GUID_b196b287_bab4_101a_b69c_00aa00341d07@@3U__s_GUID@@BUtagCONNECTDATA@@V?$_Copy@UtagCONNECTDATA@@@ATL@@VCComSingleThreadModel@6@@ATL@@@ATL@@SAJPEAPEAV12@@Z 0000000180013970 f i Keylock.obj
 0001:00012b30       ?CreateInstance@CComClassFactory@ATL@@UEAAJPEAUIUnknown@@AEBU_GUID@@PEAPEAX@Z 0000000180013b30 f i Keylock.obj
 0001:00012c50       ?DAdvise@?$IDataObjectImpl@VCOPOSKeylock@@@ATL@@UEAAJPEAUtagFORMATETC@@KPEAUIAdviseSink@@PEAK@Z 0000000180013c50 f i Keylock.obj
 0001:00012db0       ?DEVMODEOLE2T_EX@@YAPEAU_devicemodeW@@PEAU1@@Z 0000000180013db0 f i Keylock.obj
 0001:00012dc0       ?DUnadvise@?$IDataObjectImpl@VCOPOSKeylock@@@ATL@@UEAAJK@Z 0000000180013dc0 f i Keylock.obj
 0001:00012ec0       ?Decrement@CComMultiThreadModel@ATL@@SAKPEAJ@Z 0000000180013ec0 f i Keylock.obj
 0001:00012ee0       ?Decrement@CComSingleThreadModel@ATL@@SAKPEAJ@Z 0000000180013ee0 f i Keylock.obj
 0001:00012f00       ?DefWindowProcW@?$CWindowImplBaseT@VCWindow@ATL@@V?$CWinTraits@$0FGAAAAAA@$0A@@2@@ATL@@QEAA_JI_K_J@Z 0000000180013f00 f i Keylock.obj
 0001:00012f60       ?DefaultReflectionHandler@?$CWindowImplRoot@VCWindow@ATL@@@ATL@@SAHPEAUHWND__@@I_K_JAEA_J@Z 0000000180013f60 f i Keylock.obj
 0001:00013050       ?DeleteSubKey@CRegKey@ATL@@QEAAJPEB_W@Z 0000000180014050 f i Keylock.obj
 0001:00013180       ?DeleteValue@CRegKey@ATL@@QEAAJPEB_W@Z 0000000180014180 f i Keylock.obj
 0001:00013210       ?Detach@?$CAutoVectorPtr@_W@ATL@@QEAAPEA_WXZ 0000000180014210 f i Keylock.obj
 0001:00013250       ?Detach@?$CComPtrBase@UIPersistStream@@@ATL@@QEAAPEAUIPersistStream@@XZ 0000000180014250 f i Keylock.obj
 0001:00013290       ?Detach@?$CComPtrBase@UITypeInfo@@@ATL@@QEAAPEAUITypeInfo@@XZ 0000000180014290 f i Keylock.obj
 0001:000132d0       ?Detach@?$CComPtrBase@UIUnknown@@@ATL@@QEAAPEAUIUnknown@@XZ 00000001800142d0 f i Keylock.obj
 0001:00013310       ?Detach@CComBSTR@ATL@@QEAAPEA_WXZ 0000000180014310 f i Keylock.obj
 0001:00013350       ?Detach@CParseBuffer@CRegParser@ATL@@QEAAPEA_WXZ 0000000180014350 f i Keylock.obj
 0001:000133b0       ?Detach@CRegKey@ATL@@QEAAPEAUHKEY__@@XZ 00000001800143b0 f i Keylock.obj
 0001:00013410       ?DoEvent@COPOSKeylock@@IEAAXI_K_J@Z 0000000180014410 f i Keylock.obj
 0001:00013550       ?DoVerb@?$IOleObjectImpl@VCOPOSKeylock@@@ATL@@UEAAJJPEAUtagMSG@@PEAUIOleClientSite@@JPEAUHWND__@@PEBUtagRECT@@@Z 0000000180014550 f i Keylock.obj
 0001:00013860       ?DoVerbDiscardUndo@?$IOleObjectImpl@VCOPOSKeylock@@@ATL@@QEAAJPEBUtagRECT@@PEAUHWND__@@@Z 0000000180014860 f i Keylock.obj
 0001:00013900       ?DoVerbHide@?$IOleObjectImpl@VCOPOSKeylock@@@ATL@@QEAAJPEBUtagRECT@@PEAUHWND__@@@Z 0000000180014900 f i Keylock.obj
 0001:000139e0       ?DoVerbInPlaceActivate@?$IOleObjectImpl@VCOPOSKeylock@@@ATL@@QEAAJPEBUtagRECT@@PEAUHWND__@@@Z 00000001800149e0 f i Keylock.obj
 0001:00013ac0       ?DoVerbOpen@?$IOleObjectImpl@VCOPOSKeylock@@@ATL@@QEAAJPEBUtagRECT@@PEAUHWND__@@@Z 0000000180014ac0 f i Keylock.obj
 0001:00013b60       ?DoVerbPrimary@?$IOleObjectImpl@VCOPOSKeylock@@@ATL@@QEAAJPEBUtagRECT@@PEAUHWND__@@@Z 0000000180014b60 f i Keylock.obj
 0001:00013ca0       ?DoVerbProperties@CComControlBase@ATL@@QEAAJPEBUtagRECT@@PEAUHWND__@@@Z 0000000180014ca0 f i Keylock.obj
 0001:00014050       ?DoVerbShow@?$IOleObjectImpl@VCOPOSKeylock@@@ATL@@QEAAJPEBUtagRECT@@PEAUHWND__@@@Z 0000000180015050 f i Keylock.obj
 0001:00014110       ?DoVerbUIActivate@?$IOleObjectImpl@VCOPOSKeylock@@@ATL@@QEAAJPEBUtagRECT@@PEAUHWND__@@@Z 0000000180015110 f i Keylock.obj
 0001:000141f0       ?DoesVerbActivate@CComControlBase@ATL@@QEAAHJ@Z 00000001800151f0 f i Keylock.obj
 0001:00014250       ?DoesVerbUIActivate@CComControlBase@ATL@@QEAAHJ@Z 0000000180015250 f i Keylock.obj
 0001:000142d0       ?Draw@?$IViewObjectExImpl@VCOPOSKeylock@@@ATL@@UEAAJKJPEAXPEAUtagDVTARGETDEVICE@@PEAUHDC__@@2PEBU_RECTL@@3P6AH_K@Z4@Z 00000001800152d0 f i Keylock.obj
 0001:000143f0       ?Empty@CComBSTR@ATL@@QEAAXXZ 00000001800153f0 f i Keylock.obj
 0001:00014430       ?EnableModeless@?$IOleInPlaceActiveObjectImpl@VCOPOSKeylock@@@ATL@@UEAAJH@Z 0000000180015430 f i Keylock.obj
 0001:000144a0       ?EndOfVar@CRegParser@ATL@@IEAAHXZ 00000001800154a0 f i Keylock.obj
 0001:00014500       ?EnsureTI@CComTypeInfoHolder@ATL@@QEAAJK@Z 0000000180015500 f i Keylock.obj
 0001:00014560       ?EnumAdvise@?$IOleObjectImpl@VCOPOSKeylock@@@ATL@@UEAAJPEAPEAUIEnumSTATDATA@@@Z 0000000180015560 f i Keylock.obj
 0001:000146c0       ?EnumConnectionPoints@?$IConnectionPointContainerImpl@VCOPOSKeylock@@@ATL@@UEAAJPEAPEAUIEnumConnectionPoints@@@Z 00000001800156c0 f i Keylock.obj
 0001:00014bb0       ?EnumConnections@?$IConnectionPointImpl@VCOPOSKeylock@@$1?DIID__IOPOSKeylockEvents@@3U_GUID@@BVCComDynamicUnkArray@ATL@@@ATL@@UEAAJPEAPEAUIEnumConnections@@@Z 0000000180015bb0 f i Keylock.obj
 0001:00014f00       ?EnumConnections@?$IConnectionPointImpl@VCOPOSKeylock@@$1?IID_IPropertyNotifySink@@3U_GUID@@BVCComDynamicUnkArray@ATL@@@ATL@@UEAAJPEAPEAUIEnumConnections@@@Z 0000000180015f00 f i Keylock.obj
 0001:00015250       ?EnumDAdvise@?$IDataObjectImpl@VCOPOSKeylock@@@ATL@@UEAAJPEAPEAUIEnumSTATDATA@@@Z 0000000180016250 f i Keylock.obj
 0001:000153a0       ?EnumFormatEtc@?$IDataObjectImpl@VCOPOSKeylock@@@ATL@@UEAAJKPEAPEAUIEnumFORMATETC@@@Z 00000001800163a0 f i Keylock.obj
 0001:00015430       ?EnumVerbs@?$IOleObjectImpl@VCOPOSKeylock@@@ATL@@UEAAJPEAPEAUIEnumOLEVERB@@@Z 0000000180016430 f i Keylock.obj
 0001:00015500       ?EscapeSingleQuote@CAtlModule@ATL@@SAXPEA_W_KPEB_W@Z 0000000180016500 f i Keylock.obj
 0001:00015600       ?ExtractCreateWndData@CAtlWinModule@ATL@@QEAAPEAXXZ 0000000180016600 f i Keylock.obj
 0001:00015630       ?FAccessAllowed@?$IObjectSafetyImpl@VCOPOSKeylock@@$02@ATL@@MEAAHXZ 0000000180016630 f i Keylock.obj
 0001:00015640       ?FinalConstruct@?$CComAggObject@VCOPOSKeylock@@@ATL@@QEAAJXZ 0000000180016640 f i Keylock.obj
 0001:00015690       ?FinalConstruct@CComObjectRootBase@ATL@@QEAAJXZ 0000000180016690 f i Keylock.obj
 0001:000156a0       ?FinalConstruct@CRegObject@ATL@@QEAAJXZ 00000001800166a0 f i Keylock.obj
 0001:000156e0       ?FinalRelease@?$CComAggObject@VCOPOSKeylock@@@ATL@@QEAAXXZ 00000001800166e0 f i Keylock.obj
 0001:00015730       ?FinalRelease@CComObjectRootBase@ATL@@QEAAXXZ 0000000180016730 f i Keylock.obj
 0001:00015740       ?FindConnectionPoint@?$IConnectionPointContainerImpl@VCOPOSKeylock@@@ATL@@UEAAJAEBU_GUID@@PEAPEAUIConnectionPoint@@@Z 0000000180016740 f i Keylock.obj
 0001:000158b0       ?FindKey@?$CSimpleMap@PEA_WPEA_WVCExpansionVectorEqualHelper@ATL@@@ATL@@QEBAHAEBQEA_W@Z 00000001800168b0 f i Keylock.obj
 0001:00015930       ?FireTheEvent@?$CProxy_IOPOSEvents@VCOPOSKeylock@@@@IEAAXPEAUIUnknown@@PEAVOposVariant@@IAEAJPEB_WJ@Z 0000000180016930 f i Keylock.obj
 0001:00015b10       ?FireViewChange@CComControlBase@ATL@@QEAAJXZ 0000000180016b10 f i Keylock.obj
 0001:00015bf0       ?Fire_DirectIOEvent@?$CProxy_IOPOSEvents@VCOPOSKeylock@@@@QEAAXJPEAJPEAPEA_W@Z 0000000180016bf0 f i Keylock.obj
 0001:00015e80       ?Fire_StatusUpdateEvent@?$CProxy_IOPOSEvents@VCOPOSKeylock@@@@QEAAXJ@Z 0000000180016e80 f i Keylock.obj
 0001:00016070       ?FormatWindowClassName@AtlModuleRegisterWndClassInfoParamW@ATL@@SAXPEA_WKPEAX@Z 0000000180017070 f i Keylock.obj
 0001:000160c0       ?Free@?$CAutoVectorPtr@_W@ATL@@QEAAXXZ 00000001800170c0 f i Keylock.obj
 0001:00016110       ?FreeHeap@?$CTempBuffer@E$0BAA@VCCRTAllocator@ATL@@@ATL@@AEAAXXZ 0000000180017110 f i Keylock.obj
 0001:00016150       ?FreeHeap@?$CTempBuffer@_W$0BAA@VCCRTAllocator@ATL@@@ATL@@AEAAXXZ 0000000180017150 f i Keylock.obj
 0001:00016190       ?FreeHeap@?$CTempBuffer@_W$0EAA@VCCRTAllocator@ATL@@@ATL@@AEAAXXZ 0000000180017190 f i Keylock.obj
 0001:000161d0       ?Freeze@?$IViewObjectExImpl@VCOPOSKeylock@@@ATL@@UEAAJKJPEAXPEAK@Z 00000001800171d0 f i Keylock.obj
 0001:00016260       ?GenerateError@CRegParser@ATL@@IEAAJI@Z 0000000180017260 f i Keylock.obj
 0001:00016280       ?GetAdvise@?$IViewObjectExImpl@VCOPOSKeylock@@@ATL@@UEAAJPEAK0PEAPEAUIAdviseSink@@@Z 0000000180017280 f i Keylock.obj
 0001:000163d0       ?GetAmbientLocaleID@CComControlBase@ATL@@QEAAJAEAK@Z 00000001800173d0 f i Keylock.obj
 0001:000164b0       ?GetAmbientProperty@CComControlBase@ATL@@QEAAJJAEAUtagVARIANT@@@Z 00000001800174b0 f i Keylock.obj
 0001:00016520       ?GetAmbientUserMode@CComControlBase@ATL@@QEAAJAEAH@Z 0000000180017520 f i Keylock.obj
 0001:00016640       ?GetAppId@?$CAtlModuleT@VCComModule@ATL@@@ATL@@SAPEB_WXZ 0000000180017640 f i Keylock.obj
 0001:00016650       ?GetAt@CComDynamicUnkArray@ATL@@QEAAPEAUIUnknown@@H@Z 0000000180017650 f i Keylock.obj
 0001:00016700       ?GetCanonicalFormatEtc@?$IDataObjectImpl@VCOPOSKeylock@@@ATL@@UEAAJPEAUtagFORMATETC@@0@Z 0000000180017700 f i Keylock.obj
 0001:00016790       ?GetClassID@?$IPersistStorageImpl@VCOPOSKeylock@@@ATL@@UEAAJPEAU_GUID@@@Z 0000000180017790 f i Keylock.obj
 0001:00016830       ?GetClassID@?$IPersistStreamInitImpl@VCOPOSKeylock@@@ATL@@UEAAJPEAU_GUID@@@Z 0000000180017830 f i Keylock.obj
 0001:000168d0       ?GetClassInfoExW@AtlModuleRegisterWndClassInfoParamW@ATL@@SAHPEAUHINSTANCE__@@PEB_WPEAUtagWNDCLASSEXW@@@Z 00000001800178d0 f i Keylock.obj
 0001:00016920       ?GetClassInfoW@?$IProvideClassInfo2Impl@$1?CLSID_OPOSKeylock@@3U_GUID@@B$1?DIID__IOPOSKeylockEvents@@3U2@B$1?LIBID_OposKeylock_CCO@@3U2@B$00$0A@VCComTypeInfoHolder@ATL@@@ATL@@UEAAJPEAPEAUITypeInfo@@@Z 0000000180017920 f i Keylock.obj
 0001:00016960       ?GetClassObject@CComModule@ATL@@QEAAJAEBU_GUID@@0PEAPEAX@Z 0000000180017960 f i Keylock.obj
 0001:00016bd0       ?GetClientSite@?$IOleObjectImpl@VCOPOSKeylock@@@ATL@@UEAAJPEAPEAUIOleClientSite@@@Z 0000000180017bd0 f i Keylock.obj
 0001:00016c80       ?GetClipboardData@?$IOleObjectImpl@VCOPOSKeylock@@@ATL@@UEAAJKPEAPEAUIDataObject@@@Z 0000000180017c80 f i Keylock.obj
 0001:00016d10       ?GetCodeAddress@CDynamicStdCallThunk2@ATL@@QEAAPEAXXZ 0000000180017d10 f i Keylock.obj
 0001:00016d50       ?GetColorSet@?$IViewObjectExImpl@VCOPOSKeylock@@@ATL@@UEAAJKJPEAXPEAUtagDVTARGETDEVICE@@PEAUHDC__@@PEAPEAUtagLOGPALETTE@@@Z 0000000180017d50 f i Keylock.obj
 0001:00016de0       ?GetConnMap@COPOSKeylock@@SAPEBU_ATL_CONNMAP_ENTRY@ATL@@PEAH@Z 0000000180017de0 f i Keylock.obj
 0001:00016f40       ?GetConnectionInterface@?$IConnectionPointImpl@VCOPOSKeylock@@$1?DIID__IOPOSKeylockEvents@@3U_GUID@@BVCComDynamicUnkArray@ATL@@@ATL@@UEAAJPEAU_GUID@@@Z 0000000180017f40 f i Keylock.obj
 0001:00016f80       ?GetConnectionInterface@?$IConnectionPointImpl@VCOPOSKeylock@@$1?IID_IPropertyNotifySink@@3U_GUID@@BVCComDynamicUnkArray@ATL@@@ATL@@UEAAJPEAU_GUID@@@Z 0000000180017f80 f i Keylock.obj
 0001:00016fc0       ?GetConnectionPointContainer@?$IConnectionPointImpl@VCOPOSKeylock@@$1?DIID__IOPOSKeylockEvents@@3U_GUID@@BVCComDynamicUnkArray@ATL@@@ATL@@UEAAJPEAPEAUIConnectionPointContainer@@@Z 0000000180017fc0 f i Keylock.obj
 0001:00017040       ?GetConnectionPointContainer@?$IConnectionPointImpl@VCOPOSKeylock@@$1?IID_IPropertyNotifySink@@3U_GUID@@BVCComDynamicUnkArray@ATL@@@ATL@@UEAAJPEAPEAUIConnectionPointContainer@@@Z 0000000180018040 f i Keylock.obj
 0001:000170c0       ?GetContentExtent@?$IQuickActivateImpl@VCOPOSKeylock@@@ATL@@UEAAJPEAUtagSIZE@@@Z 00000001800180c0 f i Keylock.obj
 0001:00017180       ?GetControlInfo@?$IOleControlImpl@VCOPOSKeylock@@@ATL@@UEAAJPEAUtagCONTROLINFO@@@Z 0000000180018180 f i Keylock.obj
 0001:00017210       ?GetCookie@CComDynamicUnkArray@ATL@@QEAAKPEAPEAUIUnknown@@@Z 0000000180018210 f i Keylock.obj
 0001:00017300       ?GetData@?$IDataObjectImpl@VCOPOSKeylock@@@ATL@@UEAAJPEAUtagFORMATETC@@PEAUtagSTGMEDIUM@@@Z 0000000180018300 f i Keylock.obj
 0001:000173c0       ?GetData@CAtlSafeAllocBufferNode@?$CAtlSafeAllocBufferManager@VCCRTAllocator@ATL@@@_ATL_SAFE_ALLOCA_IMPL@ATL@@QEAAPEAXXZ 00000001800183c0 f i Keylock.obj
 0001:000173e0       ?GetDataHere@?$IDataObjectImpl@VCOPOSKeylock@@@ATL@@UEAAJPEAUtagFORMATETC@@PEAUtagSTGMEDIUM@@@Z 00000001800183e0 f i Keylock.obj
 0001:00017470       ?GetDropTarget@?$IOleInPlaceObjectWindowlessImpl@VCOPOSKeylock@@@ATL@@UEAAJPEAPEAUIDropTarget@@@Z 0000000180018470 f i Keylock.obj
 0001:00017500       ?GetExtent@?$IOleObjectImpl@VCOPOSKeylock@@@ATL@@UEAAJKPEAUtagSIZE@@@Z 0000000180018500 f i Keylock.obj
 0001:000175d0       ?GetExtent@?$IViewObjectExImpl@VCOPOSKeylock@@@ATL@@UEAAJKJPEAUtagDVTARGETDEVICE@@PEAUtagSIZE@@@Z 00000001800185d0 f i Keylock.obj
 0001:000176e0       ?GetGITPtr@CAtlModule@ATL@@UEAAJPEAPEAUIGlobalInterfaceTable@@@Z 00000001800186e0 f i Keylock.obj
 0001:00017820       ?GetGUID@?$IProvideClassInfo2Impl@$1?CLSID_OPOSKeylock@@3U_GUID@@B$1?DIID__IOPOSKeylockEvents@@3U2@B$1?LIBID_OposKeylock_CCO@@3U2@B$00$0A@VCComTypeInfoHolder@ATL@@@ATL@@UEAAJKPEAU_GUID@@@Z 0000000180018820 f i Keylock.obj
 0001:000178a0       ?GetIDsOfNames@?$IDispatchImpl@UIOPOSKeylock@@$1?IID_IOPOSKeylock@@3U_GUID@@B$1?LIBID_OposKeylock_CCO@@3U3@B$00$0A@VCComTypeInfoHolder@ATL@@@ATL@@UEAAJAEBU_GUID@@PEAPEA_WIKPEAJ@Z 00000001800188a0 f i Keylock.obj
 0001:00017900       ?GetIDsOfNames@CComTypeInfoHolder@ATL@@QEAAJAEBU_GUID@@PEAPEA_WIKPEAJ@Z 0000000180018900 f i Keylock.obj
 0001:00017b20       ?GetInterfaceSafetyOptions@?$IObjectSafetyImpl@VCOPOSKeylock@@$02@ATL@@UEAAJAEBU_GUID@@PEAK1@Z 0000000180018b20 f i Keylock.obj
 0001:00017cc0       ?GetKeyAt@?$CSimpleMap@PEA_WPEA_WVCExpansionVectorEqualHelper@ATL@@@ATL@@QEBAAEAPEA_WH@Z 0000000180018cc0 f i Keylock.obj
 0001:00017d70       ?GetLockCount@CAtlModule@ATL@@UEAAJXZ 0000000180018d70 f i Keylock.obj
 0001:00017d80       ?GetMiscStatus@?$IOleObjectImpl@VCOPOSKeylock@@@ATL@@UEAAJKPEAK@Z 0000000180018d80 f i Keylock.obj
 0001:00017e10       ?GetMoniker@?$IOleObjectImpl@VCOPOSKeylock@@@ATL@@UEAAJKKPEAPEAUIMoniker@@@Z 0000000180018e10 f i Keylock.obj
 0001:00017ea0       ?GetNaturalExtent@?$IViewObjectExImpl@VCOPOSKeylock@@@ATL@@UEAAJKJPEAUtagDVTARGETDEVICE@@PEAUHDC__@@PEAUtagExtentInfo@@PEAUtagSIZE@@@Z 0000000180018ea0 f i Keylock.obj
 0001:00018030       ?GetObjectCLSID@?$CComCoClass@VCOPOSKeylock@@$1?CLSID_OPOSKeylock@@3U_GUID@@B@ATL@@SAAEBU_GUID@@XZ 0000000180019030 f i Keylock.obj
 0001:00018040       ?GetPages@?$ISpecifyPropertyPagesImpl@VCOPOSKeylock@@@ATL@@UEAAJPEAUtagCAUUID@@@Z 0000000180019040 f i Keylock.obj
 0001:000180d0       ?GetPagesHelper@?$ISpecifyPropertyPagesImpl@VCOPOSKeylock@@@ATL@@IEAAJPEAUtagCAUUID@@PEBUATL_PROPMAP_ENTRY@2@@Z 00000001800190d0 f i Keylock.obj
 0001:00018340       ?GetProperty@?$CComPtr@UIDispatch@@@ATL@@QEAAJJPEAUtagVARIANT@@@Z 0000000180019340 f i Keylock.obj
 0001:00018390       ?GetProperty@?$CComPtr@UIDispatch@@@ATL@@SAJPEAUIDispatch@@JPEAUtagVARIANT@@@Z 0000000180019390 f i Keylock.obj
 0001:00018560       ?GetPropertyMap@COPOSKeylock@@SAPEBUATL_PROPMAP_ENTRY@ATL@@XZ 0000000180019560 f i Keylock.obj
 0001:00018570       ?GetRect@?$IViewObjectExImpl@VCOPOSKeylock@@@ATL@@UEAAJKPEAU_RECTL@@@Z 0000000180019570 f i Keylock.obj
 0001:00018600       ?GetSize@?$CSimpleMap@PEA_WPEA_WVCExpansionVectorEqualHelper@ATL@@@ATL@@QEBAHXZ 0000000180019600 f i Keylock.obj
 0001:00018610       ?GetSize@CComDynamicUnkArray@ATL@@QEBAHXZ 0000000180019610 f i Keylock.obj
 0001:00018620       ?GetSizeMax@?$IPersistStreamInitImpl@VCOPOSKeylock@@@ATL@@UEAAJPEAT_ULARGE_INTEGER@@@Z 0000000180019620 f i Keylock.obj
 0001:00018db0       ?GetSizeMax@CComVariant@ATL@@QEBAJPEAT_ULARGE_INTEGER@@@Z 0000000180019db0 f i Keylock.obj
 0001:000191e0       ?GetStreamSize@CComBSTR@ATL@@SAKPEA_W@Z 000000018001a1e0 f i Keylock.obj
 0001:00019240       ?GetTI@CComTypeInfoHolder@ATL@@QEAAJK@Z 000000018001a240 f i Keylock.obj
 0001:00019b10       ?GetTI@CComTypeInfoHolder@ATL@@QEAAJKPEAPEAUITypeInfo@@@Z 000000018001ab10 f i Keylock.obj
 0001:00019c00       ?GetTypeInfo@?$IDispatchImpl@UIOPOSKeylock@@$1?IID_IOPOSKeylock@@3U_GUID@@B$1?LIBID_OposKeylock_CCO@@3U3@B$00$0A@VCComTypeInfoHolder@ATL@@@ATL@@UEAAJIKPEAPEAUITypeInfo@@@Z 000000018001ac00 f i Keylock.obj
 0001:00019c50       ?GetTypeInfo@CComTypeInfoHolder@ATL@@QEAAJIKPEAPEAUITypeInfo@@@Z 000000018001ac50 f i Keylock.obj
 0001:00019cb0       ?GetTypeInfoCount@?$IDispatchImpl@UIOPOSKeylock@@$1?IID_IOPOSKeylock@@3U_GUID@@B$1?LIBID_OposKeylock_CCO@@3U3@B$00$0A@VCComTypeInfoHolder@ATL@@@ATL@@UEAAJPEAI@Z 000000018001acb0 f i Keylock.obj
 0001:00019ce0       ?GetUnknown@CComDynamicUnkArray@ATL@@QEAAPEAUIUnknown@@K@Z 000000018001ace0 f i Keylock.obj
 0001:00019d90       ?GetUnknown@COPOSKeylock@@QEAAPEAUIUnknown@@XZ 000000018001ad90 f i Keylock.obj
 0001:00019dc0       ?GetUserClassID@?$IOleObjectImpl@VCOPOSKeylock@@@ATL@@UEAAJPEAU_GUID@@@Z 000000018001adc0 f i Keylock.obj
 0001:00019ea0       ?GetUserType@?$IOleObjectImpl@VCOPOSKeylock@@@ATL@@UEAAJKPEAPEA_W@Z 000000018001aea0 f i Keylock.obj
 0001:00019f30       ?GetValueAt@?$CSimpleMap@PEA_WPEA_WVCExpansionVectorEqualHelper@ATL@@@ATL@@QEBAAEAPEA_WH@Z 000000018001af30 f i Keylock.obj
 0001:00019fe0       ?GetViewStatus@?$IViewObjectExImpl@VCOPOSKeylock@@@ATL@@UEAAJPEAK@Z 000000018001afe0 f i Keylock.obj
 0001:0001a0e0       ?GetWNDPROC@CWndProcThunk@ATL@@QEAAP6A_JPEAUHWND__@@I_K_J@ZXZ 000000018001b0e0 f i Keylock.obj
 0001:0001a120       ?GetWindow@?$IOleInPlaceActiveObjectImpl@VCOPOSKeylock@@@ATL@@UEAAJPEAPEAUHWND__@@@Z 000000018001b120 f i Keylock.obj
 0001:0001a220       ?GetWindow@?$IOleInPlaceObjectWindowlessImpl@VCOPOSKeylock@@@ATL@@UEAAJPEAPEAUHWND__@@@Z 000000018001b220 f i Keylock.obj
 0001:0001a320       ?GetWindowProc@?$CWindowImplBaseT@VCWindow@ATL@@V?$CWinTraits@$0FGAAAAAA@$0A@@2@@ATL@@UEAAP6A_JPEAUHWND__@@I_K_J@ZXZ 000000018001b320 f i Keylock.obj
 0001:0001a330       ?GetWndCaption@?$CWindowImpl@VCOPOSKeylock@@VCWindow@ATL@@V?$CWinTraits@$0FGAAAAAA@$0A@@3@@ATL@@SAPEB_WXZ 000000018001b330 f i Keylock.obj
 0001:0001a340       ?GetWndClassInfo@?$CWindowImpl@VCOPOSKeylock@@VCWindow@ATL@@V?$CWinTraits@$0FGAAAAAA@$0A@@3@@ATL@@SAAEAU_ATL_WNDCLASSINFOW@2@XZ 000000018001b340 f i Keylock.obj
 0001:0001a350       ?GetWndClassName@CWindow@ATL@@SAPEB_WXZ 000000018001b350 f i Keylock.obj
 0001:0001a360       ?GetWndExStyle@?$CWinTraits@$0FGAAAAAA@$0A@@ATL@@SAKK@Z 000000018001b360 f i Keylock.obj
 0001:0001a3a0       ?GetWndExStyle@?$CWindowImplBaseT@VCWindow@ATL@@V?$CWinTraits@$0FGAAAAAA@$0A@@2@@ATL@@SAKK@Z 000000018001b3a0 f i Keylock.obj
 0001:0001a3d0       ?GetWndStyle@?$CWinTraits@$0FGAAAAAA@$0A@@ATL@@SAKK@Z 000000018001b3d0 f i Keylock.obj
 0001:0001a410       ?GetWndStyle@?$CWindowImplBaseT@VCWindow@ATL@@V?$CWinTraits@$0FGAAAAAA@$0A@@2@@ATL@@SAKK@Z 000000018001b410 f i Keylock.obj
 0001:0001a440       ?GetZoomInfo@CComControlBase@ATL@@QEAAXAEAUATL_DRAWINFO@@@Z 000000018001b440 f i Keylock.obj
 0001:0001a5f0       ?HKeyFromString@CRegParser@ATL@@KAPEAUHKEY__@@PEA_W@Z 000000018001b5f0 f i Keylock.obj
 0001:0001a680       ?HandsOffStorage@?$IPersistStorageImpl@VCOPOSKeylock@@@ATL@@UEAAJXZ 000000018001b680 f i Keylock.obj
 0001:0001a6f0       ?HasSubKeys@CRegParser@ATL@@IEAAHPEAUHKEY__@@@Z 000000018001b6f0 f i Keylock.obj
 0001:0001a860       ?IDataObject_GetData@CComControlBase@ATL@@QEAAJPEAUtagFORMATETC@@PEAUtagSTGMEDIUM@@@Z 000000018001b860 f i Keylock.obj
 0001:0001ad10       ?IOleInPlaceObject_InPlaceDeactivate@CComControlBase@ATL@@QEAAJXZ 000000018001bd10 f i Keylock.obj
 0001:0001af80       ?IOleInPlaceObject_SetObjectRects@CComControlBase@ATL@@QEAAJPEBUtagRECT@@0@Z 000000018001bf80 f i Keylock.obj
 0001:0001b160       ?IOleInPlaceObject_UIDeactivate@CComControlBase@ATL@@QEAAJXZ 000000018001c160 f i Keylock.obj
 0001:0001b3d0       ?IOleObject_Advise@CComControlBase@ATL@@QEAAJPEAUIAdviseSink@@PEAK@Z 000000018001c3d0 f i Keylock.obj
 0001:0001b480       ?IOleObject_Close@CComControlBase@ATL@@QEAAJK@Z 000000018001c480 f i Keylock.obj
 0001:0001b7f0       ?IOleObject_GetClientSite@CComControlBase@ATL@@QEAAJPEAPEAUIOleClientSite@@@Z 000000018001c7f0 f i Keylock.obj
 0001:0001b8c0       ?IOleObject_SetClientSite@CComControlBase@ATL@@QEAAJPEAUIOleClientSite@@@Z 000000018001c8c0 f i Keylock.obj
 0001:0001b9d0       ?IOleObject_SetExtent@CComControlBase@ATL@@QEAAJKPEAUtagSIZE@@@Z 000000018001c9d0 f i Keylock.obj
 0001:0001bb40       ?IPSI_GetIPersistStreamInit@?$IPersistStorageImpl@VCOPOSKeylock@@@ATL@@AEAAPEAUIPersistStreamInit@@XZ 000000018001cb40 f i Keylock.obj
 0001:0001bc00       ?IPersistStreamInit_Load@?$IPersistStreamInitImpl@VCOPOSKeylock@@@ATL@@QEAAJPEAUIStream@@PEBUATL_PROPMAP_ENTRY@2@@Z 000000018001cc00 f i Keylock.obj
 0001:0001bca0       ?IPersistStreamInit_Save@?$IPersistStreamInitImpl@VCOPOSKeylock@@@ATL@@QEAAJPEAUIStream@@HPEBUATL_PROPMAP_ENTRY@2@@Z 000000018001cca0 f i Keylock.obj
 0001:0001bd60       ?IQuickActivate_QuickActivate@CComControlBase@ATL@@QEAAJPEAUtagQACONTAINER@@PEAUtagQACONTROL@@@Z 000000018001cd60 f i Keylock.obj
 0001:0001c5a0       ?IViewObject_Draw@CComControlBase@ATL@@QEAAJKJPEAXPEAUtagDVTARGETDEVICE@@PEAUHDC__@@2PEBU_RECTL@@3@Z 000000018001d5a0 f i Keylock.obj
 0001:0001c9f0       ?InPlaceActivate@CComControlBase@ATL@@QEAAJJPEBUtagRECT@@@Z 000000018001d9f0 f i Keylock.obj
 0001:0001d590       ?InPlaceDeactivate@?$IOleInPlaceObjectWindowlessImpl@VCOPOSKeylock@@@ATL@@UEAAJXZ 000000018001e590 f i Keylock.obj
 0001:0001d640       ?Increment@CComMultiThreadModel@ATL@@SAKPEAJ@Z 000000018001e640 f i Keylock.obj
 0001:0001d660       ?Increment@CComSingleThreadModel@ATL@@SAKPEAJ@Z 000000018001e660 f i Keylock.obj
 0001:0001d680       ?Init@?$CComEnumImpl@UIEnumConnectionPoints@@$1?_GUID_b196b285_bab4_101a_b69c_00aa00341d07@@3U__s_GUID@@BPEAUIConnectionPoint@@V?$_CopyInterface@UIConnectionPoint@@@ATL@@@ATL@@QEAAJPEAPEAUIConnectionPoint@@0PEAUIUnknown@@W4CComEnumFlags@2@@Z 000000018001e680 f i Keylock.obj
 0001:0001d970       ?Init@?$CComEnumImpl@UIEnumConnections@@$1?_GUID_b196b287_bab4_101a_b69c_00aa00341d07@@3U__s_GUID@@BUtagCONNECTDATA@@V?$_Copy@UtagCONNECTDATA@@@ATL@@@ATL@@QEAAJPEAUtagCONNECTDATA@@0PEAUIUnknown@@W4CComEnumFlags@2@@Z 000000018001e970 f i Keylock.obj
 0001:0001dc60       ?Init@CComFakeCriticalSection@ATL@@QEAAJXZ 000000018001ec60 f i Keylock.obj
 0001:0001dc70       ?Init@CComModule@ATL@@QEAAJPEAU_ATL_OBJMAP_ENTRY30@2@PEAUHINSTANCE__@@PEBU_GUID@@@Z 000000018001ec70 f i Keylock.obj
 0001:0001dd60       ?Init@CComSafeDeleteCriticalSection@ATL@@QEAAJXZ 000000018001ed60 f i Keylock.obj
 0001:0001ddf0       ?Init@CDynamicStdCallThunk2@ATL@@QEAAH_KPEAX@Z 000000018001edf0 f i Keylock.obj
 0001:0001de70       ?Init@CWndProcThunk@ATL@@QEAAHP6A_JPEAUHWND__@@I_K_J@ZPEAX@Z 000000018001ee70 f i Keylock.obj
 0001:0001dec0       ?InitFromData@?$IOleObjectImpl@VCOPOSKeylock@@@ATL@@UEAAJPEAUIDataObject@@HK@Z 000000018001eec0 f i Keylock.obj
 0001:0001df50       ?InitLibId@?$CAtlModuleT@VCComModule@ATL@@@ATL@@SAXXZ 000000018001ef50 f i Keylock.obj
 0001:0001df60       ?InitNew@?$IPersistStorageImpl@VCOPOSKeylock@@@ATL@@UEAAJPEAUIStorage@@@Z 000000018001ef60 f i Keylock.obj
 0001:0001e050       ?InitNew@?$IPersistStreamInitImpl@VCOPOSKeylock@@@ATL@@UEAAJXZ 000000018001f050 f i Keylock.obj
 0001:0001e100       ?InlineIsEqualUnknown@ATL@@YAHAEBU_GUID@@@Z 000000018001f100 f i Keylock.obj
 0001:0001e190       ?InternalAddRef@?$CComObjectRootEx@VCComMultiThreadModel@ATL@@@ATL@@QEAAKXZ 000000018001f190 f i Keylock.obj
 0001:0001e210       ?InternalAddRef@?$CComObjectRootEx@VCComSingleThreadModel@ATL@@@ATL@@QEAAKXZ 000000018001f210 f i Keylock.obj
 0001:0001e290       ?InternalFinalConstructAddRef@CComObjectRootBase@ATL@@QEAAXXZ 000000018001f290 f i Keylock.obj
 0001:0001e2a0       ?InternalFinalConstructAddRef@COPOSKeylock@@QEAAXXZ 000000018001f2a0 f i Keylock.obj
 0001:0001e2e0       ?InternalFinalConstructRelease@CComObjectRootBase@ATL@@QEAAXXZ 000000018001f2e0 f i Keylock.obj
 0001:0001e350       ?InternalFinalConstructRelease@COPOSKeylock@@QEAAXXZ 000000018001f350 f i Keylock.obj
 0001:0001e390       ?InternalGetSite@CComControlBase@ATL@@QEAAJAEBU_GUID@@PEAPEAX@Z 000000018001f390 f i Keylock.obj
 0001:0001e470       ?InternalQueryInterface@CComObjectRootBase@ATL@@SAJPEAXPEBU_ATL_INTMAP_ENTRY@2@AEBU_GUID@@PEAPEAX@Z 000000018001f470 f i Keylock.obj
 0001:0001e590       ?InternalRelease@?$CComObjectRootEx@VCComMultiThreadModel@ATL@@@ATL@@QEAAKXZ 000000018001f590 f i Keylock.obj
 0001:0001e610       ?InternalRelease@?$CComObjectRootEx@VCComSingleThreadModel@ATL@@@ATL@@QEAAKXZ 000000018001f610 f i Keylock.obj
 0001:0001e690       ?InternalSetAtIndex@?$CSimpleArray@GV?$CSimpleArrayEqualHelper@G@ATL@@@ATL@@QEAAXHAEBG@Z 000000018001f690 f i Keylock.obj
 0001:0001e710       ?InternalSetAtIndex@?$CSimpleMap@PEA_WPEA_WVCExpansionVectorEqualHelper@ATL@@@ATL@@QEAAXHAEBQEA_W0@Z 000000018001f710 f i Keylock.obj
 0001:0001e7e0       ?Invoke@?$IDispatchImpl@UIOPOSKeylock@@$1?IID_IOPOSKeylock@@3U_GUID@@B$1?LIBID_OposKeylock_CCO@@3U3@B$00$0A@VCComTypeInfoHolder@ATL@@@ATL@@UEAAJJAEBU_GUID@@KGPEAUtagDISPPARAMS@@PEAUtagVARIANT@@PEAUtagEXCEPINFO@@PEAI@Z 000000018001f7e0 f i Keylock.obj
 0001:0001e880       ?Invoke@CComTypeInfoHolder@ATL@@QEAAJPEAUIDispatch@@JAEBU_GUID@@KGPEAUtagDISPPARAMS@@PEAUtagVARIANT@@PEAUtagEXCEPINFO@@PEAI@Z 000000018001f880 f i Keylock.obj
 0001:0001e940       ?IsDirty@?$IPersistStorageImpl@VCOPOSKeylock@@@ATL@@UEAAJXZ 000000018001f940 f i Keylock.obj
 0001:0001ea30       ?IsDirty@?$IPersistStreamInitImpl@VCOPOSKeylock@@@ATL@@UEAAJXZ 000000018001fa30 f i Keylock.obj
 0001:0001eaf0       ?IsEqualKey@CExpansionVectorEqualHelper@ATL@@SA_NQEA_W0@Z 000000018001faf0 f i Keylock.obj
 0001:0001eb40       ?IsEqualObject@?$CComPtrBase@UIOleClientSite@@@ATL@@QEAA_NPEAUIUnknown@@@Z 000000018001fb40 f i Keylock.obj
 0001:0001ec90       ?IsEqualObject@?$CComPtrBase@UITypeInfo@@@ATL@@QEAA_NPEAUIUnknown@@@Z 000000018001fc90 f i Keylock.obj
 0001:0001ede0       ?IsSpace@CRegParser@ATL@@IEAAH_W@Z 000000018001fde0 f i Keylock.obj
 0001:0001ee40       ?IsUpToDate@?$IOleObjectImpl@VCOPOSKeylock@@@ATL@@UEAAJXZ 000000018001fe40 f i Keylock.obj
 0001:0001eeb0       ?Length@CComBSTR@ATL@@QEBAIXZ 000000018001feb0 f i Keylock.obj
 0001:0001eef0       ?Load@?$IPersistStorageImpl@VCOPOSKeylock@@@ATL@@UEAAJPEAUIStorage@@@Z 000000018001fef0 f i Keylock.obj
 0001:0001f0a0       ?Load@?$IPersistStreamInitImpl@VCOPOSKeylock@@@ATL@@UEAAJPEAUIStream@@@Z 00000001800200a0 f i Keylock.obj
 0001:0001f160       ?LoadCursorW@AtlModuleRegisterWndClassInfoParamW@ATL@@SAPEAUHICON__@@PEAUHINSTANCE__@@PEB_W@Z 0000000180020160 f i Keylock.obj
 0001:0001f1a0       ?LoadNameCache@CComTypeInfoHolder@ATL@@QEAAJPEAUITypeInfo@@@Z 00000001800201a0 f i Keylock.obj
 0001:0001f4e0       ?Lock@?$CComCritSecLock@VCComCriticalSection@ATL@@@ATL@@QEAAJXZ 00000001800204e0 f i Keylock.obj
 0001:0001f5d0       ?Lock@?$CComObjectRootEx@VCComSingleThreadModel@ATL@@@ATL@@QEAAXXZ 00000001800205d0 f i Keylock.obj
 0001:0001f5e0       ?Lock@CAtlModule@ATL@@UEAAJXZ 00000001800205e0 f i Keylock.obj
 0001:0001f620       ?Lock@CComCriticalSection@ATL@@QEAAJXZ 0000000180020620 f i Keylock.obj
 0001:0001f660       ?Lock@CComFakeCriticalSection@ATL@@QEAAJXZ 0000000180020660 f i Keylock.obj
 0001:0001f670       ?LockServer@CComClassFactory@ATL@@UEAAJH@Z 0000000180020670 f i Keylock.obj
 0001:0001f6d0       ?Lookup@?$CSimpleMap@PEA_WPEA_WVCExpansionVectorEqualHelper@ATL@@@ATL@@QEBAPEA_WAEBQEA_W@Z 00000001800206d0 f i Keylock.obj
 0001:0001f730       ?Next@?$CComEnumImpl@UIEnumConnectionPoints@@$1?_GUID_b196b285_bab4_101a_b69c_00aa00341d07@@3U__s_GUID@@BPEAUIConnectionPoint@@V?$_CopyInterface@UIConnectionPoint@@@ATL@@@ATL@@UEAAJKPEAPEAUIConnectionPoint@@PEAK@Z 0000000180020730 f i Keylock.obj
 0001:0001f8f0       ?Next@?$CComEnumImpl@UIEnumConnections@@$1?_GUID_b196b287_bab4_101a_b69c_00aa00341d07@@3U__s_GUID@@BUtagCONNECTDATA@@V?$_Copy@UtagCONNECTDATA@@@ATL@@@ATL@@UEAAJKPEAUtagCONNECTDATA@@PEAK@Z 00000001800208f0 f i Keylock.obj
 0001:0001fab0       ?NextToken@CRegParser@ATL@@IEAAJPEA_W@Z 0000000180020ab0 f i Keylock.obj
 0001:0001fe40       ?OLE2CT_EX@@YAPEB_WPEB_WI@Z 0000000180020e40 f i Keylock.obj
 0001:0001fe60       ?OLE2CT_EX_DEF@@YAPEB_WPEB_W@Z 0000000180020e60 f i Keylock.obj
 0001:0001fe70       ?OLE2T_EX@@YAPEA_WPEA_WI@Z 0000000180020e70 f i Keylock.obj
 0001:0001fe90       ?OnAmbientPropertyChange@?$IOleControlImpl@VCOPOSKeylock@@@ATL@@UEAAJJ@Z 0000000180020e90 f i Keylock.obj
 0001:0001ff50       ?OnDocWindowActivate@?$IOleInPlaceActiveObjectImpl@VCOPOSKeylock@@@ATL@@UEAAJH@Z 0000000180020f50 f i Keylock.obj
 0001:00020010       ?OnDrawAdvanced@CComControlBase@ATL@@UEAAJAEAUATL_DRAWINFO@@@Z 0000000180021010 f i Keylock.obj
 0001:00020260       ?OnFinalMessage@?$CWindowImplBaseT@VCWindow@ATL@@V?$CWinTraits@$0FGAAAAAA@$0A@@2@@ATL@@UEAAXPEAUHWND__@@@Z 0000000180021260 f i Keylock.obj
 0001:00020270       ?OnFrameWindowActivate@?$IOleInPlaceActiveObjectImpl@VCOPOSKeylock@@@ATL@@UEAAJH@Z 0000000180021270 f i Keylock.obj
 0001:000202e0       ?OnKillFocus@CComControlBase@ATL@@QEAA_JI_K_JAEAH@Z 00000001800212e0 f i Keylock.obj
 0001:000203d0       ?OnMnemonic@?$IOleControlImpl@VCOPOSKeylock@@@ATL@@UEAAJPEAUtagMSG@@@Z 00000001800213d0 f i Keylock.obj
 0001:00020460       ?OnMouseActivate@CComControlBase@ATL@@QEAA_JI_K_JAEAH@Z 0000000180021460 f i Keylock.obj
 0001:00020600       ?OnPaint@CComControlBase@ATL@@QEAA_JI_K_JAEAH@Z 0000000180021600 f i Keylock.obj
 0001:00020790       ?OnPostVerbDiscardUndo@?$IOleObjectImpl@VCOPOSKeylock@@@ATL@@QEAAJXZ 0000000180021790 f i Keylock.obj
 0001:000207a0       ?OnPostVerbHide@?$IOleObjectImpl@VCOPOSKeylock@@@ATL@@QEAAJXZ 00000001800217a0 f i Keylock.obj
 0001:000207b0       ?OnPostVerbInPlaceActivate@?$IOleObjectImpl@VCOPOSKeylock@@@ATL@@QEAAJXZ 00000001800217b0 f i Keylock.obj
 0001:000207c0       ?OnPostVerbOpen@?$IOleObjectImpl@VCOPOSKeylock@@@ATL@@QEAAJXZ 00000001800217c0 f i Keylock.obj
 0001:000207d0       ?OnPostVerbShow@?$IOleObjectImpl@VCOPOSKeylock@@@ATL@@QEAAJXZ 00000001800217d0 f i Keylock.obj
 0001:000207e0       ?OnPostVerbUIActivate@?$IOleObjectImpl@VCOPOSKeylock@@@ATL@@QEAAJXZ 00000001800217e0 f i Keylock.obj
 0001:000207f0       ?OnPreVerbDiscardUndo@?$IOleObjectImpl@VCOPOSKeylock@@@ATL@@QEAAJXZ 00000001800217f0 f i Keylock.obj
 0001:00020800       ?OnPreVerbHide@?$IOleObjectImpl@VCOPOSKeylock@@@ATL@@QEAAJXZ 0000000180021800 f i Keylock.obj
 0001:00020810       ?OnPreVerbInPlaceActivate@?$IOleObjectImpl@VCOPOSKeylock@@@ATL@@QEAAJXZ 0000000180021810 f i Keylock.obj
 0001:00020820       ?OnPreVerbOpen@?$IOleObjectImpl@VCOPOSKeylock@@@ATL@@QEAAJXZ 0000000180021820 f i Keylock.obj
 0001:00020830       ?OnPreVerbShow@?$IOleObjectImpl@VCOPOSKeylock@@@ATL@@QEAAJXZ 0000000180021830 f i Keylock.obj
 0001:00020840       ?OnPreVerbUIActivate@?$IOleObjectImpl@VCOPOSKeylock@@@ATL@@QEAAJXZ 0000000180021840 f i Keylock.obj
 0001:00020850       ?OnSetFocus@CComControlBase@ATL@@QEAA_JI_K_JAEAH@Z 0000000180021850 f i Keylock.obj
 0001:00020a50       ?OnWindowMessage@?$IOleInPlaceObjectWindowlessImpl@VCOPOSKeylock@@@ATL@@UEAAJI_K_JPEA_J@Z 0000000180021a50 f i Keylock.obj
 0001:00020c70       ?Open@CRegKey@ATL@@QEAAJPEAUHKEY__@@PEB_WK@Z 0000000180021c70 f i Keylock.obj
 0001:00020df0       ?OuterAddRef@CComObjectRootBase@ATL@@QEAAKXZ 0000000180021df0 f i Keylock.obj
 0001:00020e30       ?OuterQueryInterface@CComObjectRootBase@ATL@@QEAAJAEBU_GUID@@PEAPEAX@Z 0000000180021e30 f i Keylock.obj
 0001:00020e80       ?OuterRelease@CComObjectRootBase@ATL@@QEAAKXZ 0000000180021e80 f i Keylock.obj
 0001:00020ec0       ?PreProcessBuffer@CRegParser@ATL@@QEAAJPEA_WPEAPEA_W@Z 0000000180021ec0 f i Keylock.obj
 0001:000215a0       ?PreTranslateAccelerator@CComControlBase@ATL@@QEAAHPEAUtagMSG@@AEAJ@Z 00000001800225a0 f i Keylock.obj
 0001:000215c0       ?ProcessWindowMessage@?$CComControl@VCOPOSKeylock@@V?$CWindowImpl@VCOPOSKeylock@@VCWindow@ATL@@V?$CWinTraits@$0FGAAAAAA@$0A@@3@@ATL@@@ATL@@UEAAHPEAUHWND__@@I_K_JAEA_JK@Z 00000001800225c0 f i Keylock.obj
 0001:00021840       ?ProcessWindowMessage@COPOSKeylock@@UEAAHPEAUHWND__@@I_K_JAEA_JK@Z 0000000180022840 f i Keylock.obj
 0001:000219c0       ?PutProperty@?$CComPtr@UIDispatch@@@ATL@@QEAAJJPEAUtagVARIANT@@@Z 00000001800229c0 f i Keylock.obj
 0001:00021a10       ?PutProperty@?$CComPtr@UIDispatch@@@ATL@@SAJPEAUIDispatch@@JPEAUtagVARIANT@@@Z 0000000180022a10 f i Keylock.obj
 0001:00021cb0       ?QueryGetData@?$IDataObjectImpl@VCOPOSKeylock@@@ATL@@UEAAJPEAUtagFORMATETC@@@Z 0000000180022cb0 f i Keylock.obj
 0001:00021d40       ?QueryHitPoint@?$IViewObjectExImpl@VCOPOSKeylock@@@ATL@@UEAAJKPEBUtagRECT@@UtagPOINT@@JPEAK@Z 0000000180022d40 f i Keylock.obj
 0001:00021eb0       ?QueryHitRect@?$IViewObjectExImpl@VCOPOSKeylock@@@ATL@@UEAAJKPEBUtagRECT@@0JPEAK@Z 0000000180022eb0 f i Keylock.obj
 0001:00022080       ?QueryInterface@?$CComAggObject@VCOPOSKeylock@@@ATL@@UEAAJAEBU_GUID@@PEAPEAX@Z 0000000180023080 f i Keylock.obj
 0001:00022170       ?QueryInterface@?$CComContainedObject@VCOPOSKeylock@@@ATL@@UEAAJAEBU_GUID@@PEAPEAX@Z 0000000180023170 f i Keylock.obj
 0001:000221bc       ?QueryInterface@?$CComContainedObject@VCOPOSKeylock@@@ATL@@WBAA@EAAJAEBU_GUID@@PEAPEAX@Z 00000001800231bc f i Keylock.obj
 0001:000221c8       ?QueryInterface@?$CComContainedObject@VCOPOSKeylock@@@ATL@@WBAI@EAAJAEBU_GUID@@PEAPEAX@Z 00000001800231c8 f i Keylock.obj
 0001:000221d4       ?QueryInterface@?$CComContainedObject@VCOPOSKeylock@@@ATL@@WBBA@EAAJAEBU_GUID@@PEAPEAX@Z 00000001800231d4 f i Keylock.obj
 0001:000221e0       ?QueryInterface@?$CComContainedObject@VCOPOSKeylock@@@ATL@@WBBI@EAAJAEBU_GUID@@PEAPEAX@Z 00000001800231e0 f i Keylock.obj
 0001:000221ec       ?QueryInterface@?$CComContainedObject@VCOPOSKeylock@@@ATL@@WLI@EAAJAEBU_GUID@@PEAPEAX@Z 00000001800231ec f i Keylock.obj
 0001:000221f8       ?QueryInterface@?$CComContainedObject@VCOPOSKeylock@@@ATL@@WMA@EAAJAEBU_GUID@@PEAPEAX@Z 00000001800231f8 f i Keylock.obj
 0001:00022204       ?QueryInterface@?$CComContainedObject@VCOPOSKeylock@@@ATL@@WMI@EAAJAEBU_GUID@@PEAPEAX@Z 0000000180023204 f i Keylock.obj
 0001:00022210       ?QueryInterface@?$CComContainedObject@VCOPOSKeylock@@@ATL@@WNA@EAAJAEBU_GUID@@PEAPEAX@Z 0000000180023210 f i Keylock.obj
 0001:0002221c       ?QueryInterface@?$CComContainedObject@VCOPOSKeylock@@@ATL@@WNI@EAAJAEBU_GUID@@PEAPEAX@Z 000000018002321c f i Keylock.obj
 0001:00022228       ?QueryInterface@?$CComContainedObject@VCOPOSKeylock@@@ATL@@WOA@EAAJAEBU_GUID@@PEAPEAX@Z 0000000180023228 f i Keylock.obj
 0001:00022234       ?QueryInterface@?$CComContainedObject@VCOPOSKeylock@@@ATL@@WOI@EAAJAEBU_GUID@@PEAPEAX@Z 0000000180023234 f i Keylock.obj
 0001:00022240       ?QueryInterface@?$CComContainedObject@VCOPOSKeylock@@@ATL@@WPA@EAAJAEBU_GUID@@PEAPEAX@Z 0000000180023240 f i Keylock.obj
 0001:0002224c       ?QueryInterface@?$CComContainedObject@VCOPOSKeylock@@@ATL@@WPI@EAAJAEBU_GUID@@PEAPEAX@Z 000000018002324c f i Keylock.obj
 0001:00022260       ?QueryInterface@?$CComObject@V?$CComEnum@UIEnumConnectionPoints@@$1?_GUID_b196b285_bab4_101a_b69c_00aa00341d07@@3U__s_GUID@@BPEAUIConnectionPoint@@V?$_CopyInterface@UIConnectionPoint@@@ATL@@VCComSingleThreadModel@6@@ATL@@@ATL@@UEAAJAEBU_GUID@@PEAPEAX@Z 0000000180023260 f i Keylock.obj
 0001:000222b0       ?QueryInterface@?$CComObject@V?$CComEnum@UIEnumConnections@@$1?_GUID_b196b287_bab4_101a_b69c_00aa00341d07@@3U__s_GUID@@BUtagCONNECTDATA@@V?$_Copy@UtagCONNECTDATA@@@ATL@@VCComSingleThreadModel@6@@ATL@@@ATL@@UEAAJAEBU_GUID@@PEAPEAX@Z 00000001800232b0 f i Keylock.obj
 0001:00022300       ?QueryInterface@?$CComObject@VCOPOSKeylock@@@ATL@@UEAAJAEBU_GUID@@PEAPEAX@Z 0000000180023300 f i Keylock.obj
 0001:00022344       ?QueryInterface@?$CComObject@VCOPOSKeylock@@@ATL@@WBAA@EAAJAEBU_GUID@@PEAPEAX@Z 0000000180023344 f i Keylock.obj
 0001:00022350       ?QueryInterface@?$CComObject@VCOPOSKeylock@@@ATL@@WBAI@EAAJAEBU_GUID@@PEAPEAX@Z 0000000180023350 f i Keylock.obj
 0001:0002235c       ?QueryInterface@?$CComObject@VCOPOSKeylock@@@ATL@@WBBA@EAAJAEBU_GUID@@PEAPEAX@Z 000000018002335c f i Keylock.obj
 0001:00022368       ?QueryInterface@?$CComObject@VCOPOSKeylock@@@ATL@@WBBI@EAAJAEBU_GUID@@PEAPEAX@Z 0000000180023368 f i Keylock.obj
 0001:00022374       ?QueryInterface@?$CComObject@VCOPOSKeylock@@@ATL@@WLI@EAAJAEBU_GUID@@PEAPEAX@Z 0000000180023374 f i Keylock.obj
 0001:00022380       ?QueryInterface@?$CComObject@VCOPOSKeylock@@@ATL@@WMA@EAAJAEBU_GUID@@PEAPEAX@Z 0000000180023380 f i Keylock.obj
 0001:0002238c       ?QueryInterface@?$CComObject@VCOPOSKeylock@@@ATL@@WMI@EAAJAEBU_GUID@@PEAPEAX@Z 000000018002338c f i Keylock.obj
 0001:00022398       ?QueryInterface@?$CComObject@VCOPOSKeylock@@@ATL@@WNA@EAAJAEBU_GUID@@PEAPEAX@Z 0000000180023398 f i Keylock.obj
 0001:000223a4       ?QueryInterface@?$CComObject@VCOPOSKeylock@@@ATL@@WNI@EAAJAEBU_GUID@@PEAPEAX@Z 00000001800233a4 f i Keylock.obj
 0001:000223b0       ?QueryInterface@?$CComObject@VCOPOSKeylock@@@ATL@@WOA@EAAJAEBU_GUID@@PEAPEAX@Z 00000001800233b0 f i Keylock.obj
 0001:000223bc       ?QueryInterface@?$CComObject@VCOPOSKeylock@@@ATL@@WOI@EAAJAEBU_GUID@@PEAPEAX@Z 00000001800233bc f i Keylock.obj
 0001:000223c8       ?QueryInterface@?$CComObject@VCOPOSKeylock@@@ATL@@WPA@EAAJAEBU_GUID@@PEAPEAX@Z 00000001800233c8 f i Keylock.obj
 0001:000223d4       ?QueryInterface@?$CComObject@VCOPOSKeylock@@@ATL@@WPI@EAAJAEBU_GUID@@PEAPEAX@Z 00000001800233d4 f i Keylock.obj
 0001:000223e0       ?QueryInterface@?$CComObjectCached@VCComClassFactory@ATL@@@ATL@@UEAAJAEBU_GUID@@PEAPEAX@Z 00000001800233e0 f i Keylock.obj
 0001:00022430       ?QueryInterface@CRegObject@ATL@@UEAAJAEBU_GUID@@PEAPEAX@Z 0000000180023430 f i Keylock.obj
 0001:000224b0       ?QuickActivate@?$IQuickActivateImpl@VCOPOSKeylock@@@ATL@@UEAAJPEAUtagQACONTAINER@@PEAUtagQACONTROL@@@Z 00000001800234b0 f i Keylock.obj
 0001:00022570       ?ReactivateAndUndo@?$IOleInPlaceObjectWindowlessImpl@VCOPOSKeylock@@@ATL@@UEAAJXZ 0000000180023570 f i Keylock.obj
 0001:000225f0       ?ReadFromStream@CComBSTR@ATL@@QEAAJPEAUIStream@@@Z 00000001800235f0 f i Keylock.obj
 0001:00022ad0       ?ReadFromStream@CComVariant@ATL@@QEAAJPEAUIStream@@GTClassesAllowedInStream@2@K@Z 0000000180023ad0 f i Keylock.obj
 0001:00022f00       ?RecurseDeleteKey@CRegKey@ATL@@QEAAJPEB_W@Z 0000000180023f00 f i Keylock.obj
 0001:00023120       ?RegCreateKeyExW@CAtlTransactionManager@ATL@@QEAAJPEAUHKEY__@@PEB_WKPEA_WKKQEAU_SECURITY_ATTRIBUTES@@PEAPEAU3@PEAK@Z 0000000180024120 f i Keylock.obj
 0001:000232f0       ?RegDeleteKeyW@CAtlTransactionManager@ATL@@QEAAJPEAUHKEY__@@PEB_W@Z 00000001800242f0 f i Keylock.obj
 0001:00023400       ?RegOpenKeyExW@CAtlTransactionManager@ATL@@QEAAJPEAUHKEY__@@PEB_WKKPEAPEAU3@@Z 0000000180024400 f i Keylock.obj
 0001:00023550       ?Register@_ATL_WNDCLASSINFOW@ATL@@QEAAGPEAP6A_JPEAUHWND__@@I_K_J@Z@Z 0000000180024550 f i Keylock.obj
 0001:000235a0       ?RegisterBuffer@CRegParser@ATL@@QEAAJPEA_WH@Z 00000001800245a0 f i Keylock.obj
 0001:00023990       ?RegisterClassExW@AtlModuleRegisterWndClassInfoParamW@ATL@@SAGPEAU_ATL_WIN_MODULE70@2@PEBUtagWNDCLASSEXW@@@Z 0000000180024990 f i Keylock.obj
 0001:000239d0       ?RegisterFromResource@CRegObject@ATL@@IEAAJPEB_W00H@Z 00000001800249d0 f i Keylock.obj
 0001:00023e30       ?RegisterServer@?$CAtlModuleT@VCComModule@ATL@@@ATL@@QEAAJHPEBU_GUID@@@Z 0000000180024e30 f i Keylock.obj
 0001:00023eb0       ?RegisterServer@CAtlComModule@ATL@@QEAAJHPEBU_GUID@@@Z 0000000180024eb0 f i Keylock.obj
 0001:00023ef0       ?RegisterServer@CComModule@ATL@@QEAAJHPEBU_GUID@@@Z 0000000180024ef0 f i Keylock.obj
 0001:00023ff0       ?RegisterSubkeys@CRegParser@ATL@@IEAAJPEA_WPEAUHKEY__@@HH@Z 0000000180024ff0 f i Keylock.obj
 0001:00024dd0       ?Release@?$CComAggObject@VCOPOSKeylock@@@ATL@@UEAAKXZ 0000000180025dd0 f i Keylock.obj
 0001:00024e80       ?Release@?$CComContainedObject@VCOPOSKeylock@@@ATL@@UEAAKXZ 0000000180025e80 f i Keylock.obj
 0001:00024eb8       ?Release@?$CComContainedObject@VCOPOSKeylock@@@ATL@@WBAA@EAAKXZ 0000000180025eb8 f i Keylock.obj
 0001:00024ec4       ?Release@?$CComContainedObject@VCOPOSKeylock@@@ATL@@WBAI@EAAKXZ 0000000180025ec4 f i Keylock.obj
 0001:00024ed0       ?Release@?$CComContainedObject@VCOPOSKeylock@@@ATL@@WBBA@EAAKXZ 0000000180025ed0 f i Keylock.obj
 0001:00024edc       ?Release@?$CComContainedObject@VCOPOSKeylock@@@ATL@@WBBI@EAAKXZ 0000000180025edc f i Keylock.obj
 0001:00024ee8       ?Release@?$CComContainedObject@VCOPOSKeylock@@@ATL@@WBCI@EAAKXZ 0000000180025ee8 f i Keylock.obj
 0001:00024ef4       ?Release@?$CComContainedObject@VCOPOSKeylock@@@ATL@@WBEA@EAAKXZ 0000000180025ef4 f i Keylock.obj
 0001:00024f00       ?Release@?$CComContainedObject@VCOPOSKeylock@@@ATL@@WLI@EAAKXZ 0000000180025f00 f i Keylock.obj
 0001:00024f0c       ?Release@?$CComContainedObject@VCOPOSKeylock@@@ATL@@WMA@EAAKXZ 0000000180025f0c f i Keylock.obj
 0001:00024f18       ?Release@?$CComContainedObject@VCOPOSKeylock@@@ATL@@WMI@EAAKXZ 0000000180025f18 f i Keylock.obj
 0001:00024f24       ?Release@?$CComContainedObject@VCOPOSKeylock@@@ATL@@WNA@EAAKXZ 0000000180025f24 f i Keylock.obj
 0001:00024f30       ?Release@?$CComContainedObject@VCOPOSKeylock@@@ATL@@WNI@EAAKXZ 0000000180025f30 f i Keylock.obj
 0001:00024f3c       ?Release@?$CComContainedObject@VCOPOSKeylock@@@ATL@@WOA@EAAKXZ 0000000180025f3c f i Keylock.obj
 0001:00024f48       ?Release@?$CComContainedObject@VCOPOSKeylock@@@ATL@@WOI@EAAKXZ 0000000180025f48 f i Keylock.obj
 0001:00024f54       ?Release@?$CComContainedObject@VCOPOSKeylock@@@ATL@@WPA@EAAKXZ 0000000180025f54 f i Keylock.obj
 0001:00024f60       ?Release@?$CComContainedObject@VCOPOSKeylock@@@ATL@@WPI@EAAKXZ 0000000180025f60 f i Keylock.obj
 0001:00024f70       ?Release@?$CComObject@V?$CComEnum@UIEnumConnectionPoints@@$1?_GUID_b196b285_bab4_101a_b69c_00aa00341d07@@3U__s_GUID@@BPEAUIConnectionPoint@@V?$_CopyInterface@UIConnectionPoint@@@ATL@@VCComSingleThreadModel@6@@ATL@@@ATL@@UEAAKXZ 0000000180025f70 f i Keylock.obj
 0001:00025020       ?Release@?$CComObject@V?$CComEnum@UIEnumConnections@@$1?_GUID_b196b287_bab4_101a_b69c_00aa00341d07@@3U__s_GUID@@BUtagCONNECTDATA@@V?$_Copy@UtagCONNECTDATA@@@ATL@@VCComSingleThreadModel@6@@ATL@@@ATL@@UEAAKXZ 0000000180026020 f i Keylock.obj
 0001:000250d0       ?Release@?$CComObject@VCOPOSKeylock@@@ATL@@UEAAKXZ 00000001800260d0 f i Keylock.obj
 0001:00025188       ?Release@?$CComObject@VCOPOSKeylock@@@ATL@@WBAA@EAAKXZ 0000000180026188 f i Keylock.obj
 0001:00025194       ?Release@?$CComObject@VCOPOSKeylock@@@ATL@@WBAI@EAAKXZ 0000000180026194 f i Keylock.obj
 0001:000251a0       ?Release@?$CComObject@VCOPOSKeylock@@@ATL@@WBBA@EAAKXZ 00000001800261a0 f i Keylock.obj
 0001:000251ac       ?Release@?$CComObject@VCOPOSKeylock@@@ATL@@WBBI@EAAKXZ 00000001800261ac f i Keylock.obj
 0001:000251b8       ?Release@?$CComObject@VCOPOSKeylock@@@ATL@@WBCI@EAAKXZ 00000001800261b8 f i Keylock.obj
 0001:000251c4       ?Release@?$CComObject@VCOPOSKeylock@@@ATL@@WBEA@EAAKXZ 00000001800261c4 f i Keylock.obj
 0001:000251d0       ?Release@?$CComObject@VCOPOSKeylock@@@ATL@@WLI@EAAKXZ 00000001800261d0 f i Keylock.obj
 0001:000251dc       ?Release@?$CComObject@VCOPOSKeylock@@@ATL@@WMA@EAAKXZ 00000001800261dc f i Keylock.obj
 0001:000251e8       ?Release@?$CComObject@VCOPOSKeylock@@@ATL@@WMI@EAAKXZ 00000001800261e8 f i Keylock.obj
 0001:000251f4       ?Release@?$CComObject@VCOPOSKeylock@@@ATL@@WNA@EAAKXZ 00000001800261f4 f i Keylock.obj
 0001:00025200       ?Release@?$CComObject@VCOPOSKeylock@@@ATL@@WNI@EAAKXZ 0000000180026200 f i Keylock.obj
 0001:0002520c       ?Release@?$CComObject@VCOPOSKeylock@@@ATL@@WOA@EAAKXZ 000000018002620c f i Keylock.obj
 0001:00025218       ?Release@?$CComObject@VCOPOSKeylock@@@ATL@@WOI@EAAKXZ 0000000180026218 f i Keylock.obj
 0001:00025224       ?Release@?$CComObject@VCOPOSKeylock@@@ATL@@WPA@EAAKXZ 0000000180026224 f i Keylock.obj
 0001:00025230       ?Release@?$CComObject@VCOPOSKeylock@@@ATL@@WPI@EAAKXZ 0000000180026230 f i Keylock.obj
 0001:00025240       ?Release@?$CComObjectCached@VCComClassFactory@ATL@@@ATL@@UEAAKXZ 0000000180026240 f i Keylock.obj
 0001:000252e0       ?Release@?$CComPtrBase@UIAdviseSink@@@ATL@@QEAAXXZ 00000001800262e0 f i Keylock.obj
 0001:00025340       ?Release@?$CComPtrBase@UIDispatch@@@ATL@@QEAAXXZ 0000000180026340 f i Keylock.obj
 0001:000253a0       ?Release@?$CComPtrBase@UIOleInPlaceSiteWindowless@@@ATL@@QEAAXXZ 00000001800263a0 f i Keylock.obj
 0001:00025400       ?Release@CRegObject@ATL@@UEAAKXZ 0000000180026400 f i Keylock.obj
 0001:00025470       ?Remove@CComDynamicUnkArray@ATL@@QEAAHK@Z 0000000180026470 f i Keylock.obj
 0001:00025550       ?RemoveAll@?$CSimpleMap@PEA_WPEA_WVCExpansionVectorEqualHelper@ATL@@@ATL@@QEAAXXZ 0000000180026550 f i Keylock.obj
 0001:000255f0       ?Reset@?$CComEnumImpl@UIEnumConnectionPoints@@$1?_GUID_b196b285_bab4_101a_b69c_00aa00341d07@@3U__s_GUID@@BPEAUIConnectionPoint@@V?$_CopyInterface@UIConnectionPoint@@@ATL@@@ATL@@UEAAJXZ 00000001800265f0 f i Keylock.obj
 0001:00025610       ?Reset@?$CComEnumImpl@UIEnumConnections@@$1?_GUID_b196b287_bab4_101a_b69c_00aa00341d07@@3U__s_GUID@@BUtagCONNECTDATA@@V?$_Copy@UtagCONNECTDATA@@@ATL@@@ATL@@UEAAJXZ 0000000180026610 f i Keylock.obj
 0001:00025630       ?ResizeBorder@?$IOleInPlaceActiveObjectImpl@VCOPOSKeylock@@@ATL@@UEAAJPEBUtagRECT@@PEAUIOleInPlaceUIWindow@@H@Z 0000000180026630 f i Keylock.obj
 0001:000256b0       ?ResourceRegister@CRegObject@ATL@@QEAAJPEB_WI0@Z 00000001800266b0 f i Keylock.obj
 0001:00025790       ?ResourceRegisterSz@CRegObject@ATL@@QEAAJPEB_W00@Z 0000000180026790 f i Keylock.obj
 0001:000258b0       ?ResourceUnregister@CRegObject@ATL@@QEAAJPEB_WI0@Z 00000001800268b0 f i Keylock.obj
 0001:00025990       ?ResourceUnregisterSz@CRegObject@ATL@@QEAAJPEB_W00@Z 0000000180026990 f i Keylock.obj
 0001:00025ab0       ?SODataDummy@COPOSKeylock@@MEAAJJ@Z 0000000180026ab0 f i Keylock.obj
 0001:00025ad0       ?SODirectIO@COPOSKeylock@@MEAAJJPEAJPEAPEA_W@Z 0000000180026ad0 f i Keylock.obj
 0001:00025d10       ?SOErrorDummy@COPOSKeylock@@MEAAJJJJPEAJ@Z 0000000180026d10 f i Keylock.obj
 0001:00025d30       ?SOOutputCompleteDummy@COPOSKeylock@@MEAAJJ@Z 0000000180026d30 f i Keylock.obj
 0001:00025d50       ?SOStatusUpdate@COPOSKeylock@@MEAAJJ@Z 0000000180026d50 f i Keylock.obj
 0001:00025df0       ?Save@?$IPersistStorageImpl@VCOPOSKeylock@@@ATL@@UEAAJPEAUIStorage@@H@Z 0000000180026df0 f i Keylock.obj
 0001:00025fb0       ?Save@?$IPersistStreamInitImpl@VCOPOSKeylock@@@ATL@@UEAAJPEAUIStream@@H@Z 0000000180026fb0 f i Keylock.obj
 0001:00026070       ?SaveCompleted@?$IPersistStorageImpl@VCOPOSKeylock@@@ATL@@UEAAJPEAUIStorage@@@Z 0000000180027070 f i Keylock.obj
 0001:000260e0       ?SendOnDataChange@CComControlBase@ATL@@QEAAJK@Z 00000001800270e0 f i Keylock.obj
 0001:000261d0       ?SendOnSave@CComControlBase@ATL@@QEAAJXZ 00000001800271d0 f i Keylock.obj
 0001:00026240       ?SendOnViewChange@CComControlBase@ATL@@QEAAJKJ@Z 0000000180027240 f i Keylock.obj
 0001:000262c0       ?SetAdvise@?$IViewObjectExImpl@VCOPOSKeylock@@@ATL@@UEAAJKKPEAUIAdviseSink@@@Z 00000001800272c0 f i Keylock.obj
 0001:00026380       ?SetClientSite@?$IOleObjectImpl@VCOPOSKeylock@@@ATL@@UEAAJPEAUIOleClientSite@@@Z 0000000180027380 f i Keylock.obj
 0001:00026430       ?SetColorScheme@?$IOleObjectImpl@VCOPOSKeylock@@@ATL@@UEAAJPEAUtagLOGPALETTE@@@Z 0000000180027430 f i Keylock.obj
 0001:000264c0       ?SetContentExtent@?$IQuickActivateImpl@VCOPOSKeylock@@@ATL@@UEAAJPEAUtagSIZE@@@Z 00000001800274c0 f i Keylock.obj
 0001:00026580       ?SetControlFocus@CComControlBase@ATL@@QEAAHH@Z 0000000180027580 f i Keylock.obj
 0001:00026710       ?SetDWORDValue@CRegKey@ATL@@QEAAJPEB_WK@Z 0000000180027710 f i Keylock.obj
 0001:000267c0       ?SetData@?$IDataObjectImpl@VCOPOSKeylock@@@ATL@@UEAAJPEAUtagFORMATETC@@PEAUtagSTGMEDIUM@@H@Z 00000001800277c0 f i Keylock.obj
 0001:00026850       ?SetExtent@?$IOleObjectImpl@VCOPOSKeylock@@@ATL@@UEAAJKPEAUtagSIZE@@@Z 0000000180027850 f i Keylock.obj
 0001:00026910       ?SetHostNames@?$IOleObjectImpl@VCOPOSKeylock@@@ATL@@UEAAJPEB_W0@Z 0000000180027910 f i Keylock.obj
 0001:00026990       ?SetInterfaceSafetyOptions@?$IObjectSafetyImpl@VCOPOSKeylock@@$02@ATL@@UEAAJAEBU_GUID@@KK@Z 0000000180027990 f i Keylock.obj
 0001:00026b30       ?SetMoniker@?$IOleObjectImpl@VCOPOSKeylock@@@ATL@@UEAAJKPEAUIMoniker@@@Z 0000000180027b30 f i Keylock.obj
 0001:00026bc0       ?SetMultiStringValue@CRegKey@ATL@@QEAAJPEB_W0@Z 0000000180027bc0 f i Keylock.obj
 0001:00026d30       ?SetObjectRects@?$IOleInPlaceObjectWindowlessImpl@VCOPOSKeylock@@@ATL@@UEAAJPEBUtagRECT@@0@Z 0000000180027d30 f i Keylock.obj
 0001:00026df0       ?SetStringValue@CRegKey@ATL@@QEAAJPEB_W0K@Z 0000000180027df0 f i Keylock.obj
 0001:00026f70       ?SetVoid@CComClassFactory@ATL@@QEAAXPEAX@Z 0000000180027f70 f i Keylock.obj
 0001:00026f90       ?SetVoid@CComObjectRootBase@ATL@@QEAAXPEAX@Z 0000000180027f90 f i Keylock.obj
 0001:00026fa0       ?ShowWindow@CWindow@ATL@@QEAAHH@Z 0000000180027fa0 f i Keylock.obj
 0001:00027030       ?Skip@?$CComEnumImpl@UIEnumConnectionPoints@@$1?_GUID_b196b285_bab4_101a_b69c_00aa00341d07@@3U__s_GUID@@BPEAUIConnectionPoint@@V?$_CopyInterface@UIConnectionPoint@@@ATL@@@ATL@@UEAAJK@Z 0000000180028030 f i Keylock.obj
 0001:000270d0       ?Skip@?$CComEnumImpl@UIEnumConnections@@$1?_GUID_b196b287_bab4_101a_b69c_00aa00341d07@@3U__s_GUID@@BUtagCONNECTDATA@@V?$_Copy@UtagCONNECTDATA@@@ATL@@@ATL@@UEAAJK@Z 00000001800280d0 f i Keylock.obj
 0001:00027170       ?SkipAssignment@CRegParser@ATL@@IEAAJPEA_W@Z 0000000180028170 f i Keylock.obj
 0001:00027270       ?SkipWhiteSpace@CRegParser@ATL@@IEAAXXZ 0000000180028270 f i Keylock.obj
 0001:000272d0       ?StartWindowProc@?$CWindowImplBaseT@VCWindow@ATL@@V?$CWinTraits@$0FGAAAAAA@$0A@@2@@ATL@@SA_JPEAUHWND__@@I_K_J@Z 00000001800282d0 f i Keylock.obj
 0001:00027440       ?StrChrW@CRegParser@ATL@@KAPEA_WPEA_W_W@Z 0000000180028440 f i Keylock.obj
 0001:000274c0       ?StrFromMap@CRegObject@ATL@@QEAAPEB_WPEA_W@Z 00000001800284c0 f i Keylock.obj
 0001:00027580       ?Swap@?$CComPtrBase@UIAdviseSink@@@ATL@@IEAAXAEAV12@@Z 0000000180028580 f i Keylock.obj
 0001:000275e0       ?Swap@?$CComPtrBase@UIOleClientSite@@@ATL@@IEAAXAEAV12@@Z 00000001800285e0 f i Keylock.obj
 0001:00027640       ?Swap@?$CComPtrBase@UIUnknown@@@ATL@@IEAAXAEAV12@@Z 0000000180028640 f i Keylock.obj
 0001:000276a0       ?T2COLE_EX@@YAPEB_WPEB_WI@Z 00000001800286a0 f i Keylock.obj
 0001:000276c0       ?T2OLE_EX@@YAPEA_WPEA_WI@Z 00000001800286c0 f i Keylock.obj
 0001:000276e0       ?Term@CAtlModule@ATL@@QEAAXXZ 00000001800286e0 f i Keylock.obj
 0001:000277a0       ?Term@CComModule@ATL@@QEAAXXZ 00000001800287a0 f i Keylock.obj
 0001:00027890       ?TranslateAcceleratorW@?$IOleInPlaceActiveObjectImpl@VCOPOSKeylock@@@ATL@@UEAAJPEAUtagMSG@@@Z 0000000180028890 f i Keylock.obj
 0001:00027b00       ?UIDeactivate@?$IOleInPlaceObjectWindowlessImpl@VCOPOSKeylock@@@ATL@@UEAAJXZ 0000000180028b00 f i Keylock.obj
 0001:00027bb0       ?Unadvise@?$CProxy_IOPOSEvents@VCOPOSKeylock@@@@UEAAJK@Z 0000000180028bb0 f i Keylock.obj
 0001:00027c00       ?Unadvise@?$IConnectionPointImpl@VCOPOSKeylock@@$1?DIID__IOPOSKeylockEvents@@3U_GUID@@BVCComDynamicUnkArray@ATL@@@ATL@@UEAAJK@Z 0000000180028c00 f i Keylock.obj
 0001:00027cf0       ?Unadvise@?$IConnectionPointImpl@VCOPOSKeylock@@$1?IID_IPropertyNotifySink@@3U_GUID@@BVCComDynamicUnkArray@ATL@@@ATL@@UEAAJK@Z 0000000180028cf0 f i Keylock.obj
 0001:00027de0       ?Unadvise@?$IOleObjectImpl@VCOPOSKeylock@@@ATL@@UEAAJK@Z 0000000180028de0 f i Keylock.obj
 0001:00027ed0       ?Unfreeze@?$IViewObjectExImpl@VCOPOSKeylock@@@ATL@@UEAAJK@Z 0000000180028ed0 f i Keylock.obj
 0001:00027f50       ?Unlock@?$CComCritSecLock@VCComCriticalSection@ATL@@@ATL@@QEAAXXZ 0000000180028f50 f i Keylock.obj
 0001:00027fe0       ?Unlock@?$CComObjectRootEx@VCComSingleThreadModel@ATL@@@ATL@@QEAAXXZ 0000000180028fe0 f i Keylock.obj
 0001:00027ff0       ?Unlock@CAtlModule@ATL@@UEAAJXZ 0000000180028ff0 f i Keylock.obj
 0001:00028030       ?Unlock@CComCriticalSection@ATL@@QEAAJXZ 0000000180029030 f i Keylock.obj
 0001:00028070       ?Unlock@CComFakeCriticalSection@ATL@@QEAAJXZ 0000000180029070 f i Keylock.obj
 0001:00028080       ?UnregisterServer@?$CAtlModuleT@VCComModule@ATL@@@ATL@@QEAAJHPEBU_GUID@@@Z 0000000180029080 f i Keylock.obj
 0001:000280f0       ?UnregisterServer@CAtlComModule@ATL@@QEAAJHPEBU_GUID@@@Z 00000001800290f0 f i Keylock.obj
 0001:00028130       ?UnregisterServer@CComModule@ATL@@QEAAJHPEBU_GUID@@@Z 0000000180029130 f i Keylock.obj
 0001:00028220       ?Update@?$IOleObjectImpl@VCOPOSKeylock@@@ATL@@UEAAJXZ 0000000180029220 f i Keylock.obj
 0001:00028290       ?UpdateRegistryFromResource@CAtlModule@ATL@@QEAAJIHPEAU_ATL_REGMAP_ENTRY@2@@Z 0000000180029290 f i Keylock.obj
 0001:000287c0       ?UpdateRegistryFromResource@CAtlModule@ATL@@QEAAJPEB_WHPEAU_ATL_REGMAP_ENTRY@2@@Z 00000001800297c0 f i Keylock.obj
 0001:00028d10       ?UpdateRegistryFromResource@CComModule@ATL@@UEAAJIHPEAU_ATL_REGMAP_ENTRY@2@@Z 0000000180029d10 f i Keylock.obj
 0001:00028d60       ?UpdateRegistryFromResource@CComModule@ATL@@UEAAJPEB_WHPEAU_ATL_REGMAP_ENTRY@2@@Z 0000000180029d60 f i Keylock.obj
 0001:00028db0       ?UpdateRegistryFromResourceD@CComModule@ATL@@UEAAJIHPEAU_ATL_REGMAP_ENTRY@2@@Z 0000000180029db0 f i Keylock.obj
 0001:00028dd0       ?UpdateRegistryFromResourceD@CComModule@ATL@@UEAAJPEB_WHPEAU_ATL_REGMAP_ENTRY@2@@Z 0000000180029dd0 f i Keylock.obj
 0001:00028df0       ?VTFromRegType@CRegParser@ATL@@KAHPEB_WAEAG@Z 0000000180029df0 f i Keylock.obj
 0001:00028ed0       ?WindowProc@?$CWindowImplBaseT@VCWindow@ATL@@V?$CWinTraits@$0FGAAAAAA@$0A@@2@@ATL@@SA_JPEAUHWND__@@I_K_J@Z 0000000180029ed0 f i Keylock.obj
 0001:000291b0       ?WriteToStream@CComBSTR@ATL@@QEAAJPEAUIStream@@@Z 000000018002a1b0 f i Keylock.obj
 0001:00029320       ?WriteToStream@CComVariant@ATL@@QEAAJPEAUIStream@@@Z 000000018002a320 f i Keylock.obj
 0001:00029730       ?WriteToStream@CComVariant@ATL@@QEAAJPEAUIStream@@G@Z 000000018002a730 f i Keylock.obj
 0001:00029810       ?_AtlFinalConstruct@CComObjectRootBase@ATL@@QEAAJXZ 000000018002a810 f i Keylock.obj
 0001:00029820       ?_AtlGetConversionACP@ATL@@YAIXZ 000000018002a820 f i Keylock.obj
 0001:00029830       ?_AtlInitialConstruct@?$CComAggObject@VCOPOSKeylock@@@ATL@@QEAAJXZ 000000018002a830 f i Keylock.obj
 0001:00029890       ?_AtlInitialConstruct@?$CComObjectRootEx@VCComMultiThreadModel@ATL@@@ATL@@QEAAJXZ 000000018002a890 f i Keylock.obj
 0001:000298d0       ?_AtlInitialConstruct@?$CComObjectRootEx@VCComSingleThreadModel@ATL@@@ATL@@QEAAJXZ 000000018002a8d0 f i Keylock.obj
 0001:000298e0       ?_AtlVerifyStackAvailable@_ATL_SAFE_ALLOCA_IMPL@ATL@@YA_N_K@Z 000000018002a8e0 f i Keylock.obj
 0001:00029a40       ?_GetEntries@?$CComEnum@UIEnumConnectionPoints@@$1?_GUID_b196b285_bab4_101a_b69c_00aa00341d07@@3U__s_GUID@@BPEAUIConnectionPoint@@V?$_CopyInterface@UIConnectionPoint@@@ATL@@VCComSingleThreadModel@6@@ATL@@SAPEBU_ATL_INTMAP_ENTRY@2@XZ 000000018002aa40 f i Keylock.obj
 0001:00029a60       ?_GetEntries@?$CComEnum@UIEnumConnections@@$1?_GUID_b196b287_bab4_101a_b69c_00aa00341d07@@3U__s_GUID@@BUtagCONNECTDATA@@V?$_Copy@UtagCONNECTDATA@@@ATL@@VCComSingleThreadModel@6@@ATL@@SAPEBU_ATL_INTMAP_ENTRY@2@XZ 000000018002aa60 f i Keylock.obj
 0001:00029a80       ?_GetEntries@CComClassFactory@ATL@@SAPEBU_ATL_INTMAP_ENTRY@2@XZ 000000018002aa80 f i Keylock.obj
 0001:00029aa0       ?_GetEntries@COPOSKeylock@@SAPEBU_ATL_INTMAP_ENTRY@ATL@@XZ 000000018002aaa0 f i Keylock.obj
 0001:00029ac0       ?_GetRawUnknown@COPOSKeylock@@QEAAPEAUIUnknown@@XZ 000000018002aac0 f i Keylock.obj
 0001:00029b50       ?_GetViewStatus@COPOSKeylock@@QEAAKXZ 000000018002ab50 f i Keylock.obj
 0001:00029b60       ?_InternalQueryInterface@?$CComEnum@UIEnumConnectionPoints@@$1?_GUID_b196b285_bab4_101a_b69c_00aa00341d07@@3U__s_GUID@@BPEAUIConnectionPoint@@V?$_CopyInterface@UIConnectionPoint@@@ATL@@VCComSingleThreadModel@6@@ATL@@QEAAJAEBU_GUID@@PEAPEAX@Z 000000018002ab60 f i Keylock.obj
 0001:00029bb0       ?_InternalQueryInterface@?$CComEnum@UIEnumConnections@@$1?_GUID_b196b287_bab4_101a_b69c_00aa00341d07@@3U__s_GUID@@BUtagCONNECTDATA@@V?$_Copy@UtagCONNECTDATA@@@ATL@@VCComSingleThreadModel@6@@ATL@@QEAAJAEBU_GUID@@PEAPEAX@Z 000000018002abb0 f i Keylock.obj
 0001:00029c00       ?_InternalQueryInterface@CComClassFactory@ATL@@QEAAJAEBU_GUID@@PEAPEAX@Z 000000018002ac00 f i Keylock.obj
 0001:00029c50       ?_InternalQueryInterface@COPOSKeylock@@QEAAJAEBU_GUID@@PEAPEAX@Z 000000018002ac50 f i Keylock.obj
 0001:00029ca0       ?_LocCPQueryInterface@?$IConnectionPointImpl@VCOPOSKeylock@@$1?DIID__IOPOSKeylockEvents@@3U_GUID@@BVCComDynamicUnkArray@ATL@@@ATL@@UEAAJAEBU_GUID@@PEAPEAX@Z 000000018002aca0 f i Keylock.obj
 0001:00029d80       ?_LocCPQueryInterface@?$IConnectionPointImpl@VCOPOSKeylock@@$1?IID_IPropertyNotifySink@@3U_GUID@@BVCComDynamicUnkArray@ATL@@@ATL@@UEAAJAEBU_GUID@@PEAPEAX@Z 000000018002ad80 f i Keylock.obj
 0001:00029e60       ?atlCreate@?$CWindowImpl@VCOPOSKeylock@@VCWindow@ATL@@V?$CWinTraits@$0FGAAAAAA@$0A@@3@@ATL@@QEAAPEAUHWND__@@PEAU3@V_U_RECT@2@PEB_WKKV_U_MENUorID@2@PEAX@Z 000000018002ae60 f i Keylock.obj
 0001:00029f90       ?atlCreate@?$CWindowImplBaseT@VCWindow@ATL@@V?$CWinTraits@$0FGAAAAAA@$0A@@2@@ATL@@QEAAPEAUHWND__@@PEAU3@V_U_RECT@2@PEB_WKKV_U_MENUorID@2@GPEAX@Z 000000018002af90 f i Keylock.obj
 0001:0002a1f0       ?atlCreate@CRegKey@ATL@@QEAAJPEAUHKEY__@@PEB_WPEA_WKKPEAU_SECURITY_ATTRIBUTES@@PEAK@Z 000000018002b1f0 f i Keylock.obj
 0001:0002a3e0       ?begin@CComDynamicUnkArray@ATL@@QEAAPEAPEAUIUnknown@@XZ 000000018002b3e0 f i Keylock.obj
 0001:0002a3f0       ?copy@?$_Copy@UtagCONNECTDATA@@@ATL@@SAJPEAUtagCONNECTDATA@@PEBU3@@Z 000000018002b3f0 f i Keylock.obj
 0001:0002a4e0       ?copy@?$_CopyInterface@UIConnectionPoint@@@ATL@@SAJPEAPEAUIConnectionPoint@@PEBQEAU3@@Z 000000018002b4e0 f i Keylock.obj
 0001:0002a5d0       ?destroy@?$_Copy@UtagCONNECTDATA@@@ATL@@SAXPEAUtagCONNECTDATA@@@Z 000000018002b5d0 f i Keylock.obj
 0001:0002a620       ?destroy@?$_CopyInterface@UIConnectionPoint@@@ATL@@SAXPEAPEAUIConnectionPoint@@@Z 000000018002b620 f i Keylock.obj
 0001:0002a670       ?end@CComDynamicUnkArray@ATL@@QEAAPEAPEAUIUnknown@@XZ 000000018002b670 f i Keylock.obj
 0001:0002a690       ?init@?$_Copy@UtagCONNECTDATA@@@ATL@@SAXPEAUtagCONNECTDATA@@@Z 000000018002b690 f i Keylock.obj
 0001:0002a6a0       ?init@?$_CopyInterface@UIConnectionPoint@@@ATL@@SAXPEAPEAUIConnectionPoint@@@Z 000000018002b6a0 f i Keylock.obj
 0001:0002a6b0       ?memcpy_s@Checked@ATL@@YAXPEAX_KPEBX1@Z 000000018002b6b0 f i Keylock.obj
 0001:0002a710       ?ocscpy_s@@YA_NPEA_W_KPEB_W@Z 000000018002b710 f i Keylock.obj
 0001:0002a790       ?ocslen@@YAHPEB_W@Z        000000018002b790 f i Keylock.obj
 0001:0002a7d0       ?tcsncpy_s@Checked@ATL@@YAHPEA_W_KPEB_W1@Z 000000018002b7d0 f i Keylock.obj
 0001:0002a830       ?wcscat_s@Checked@ATL@@YAXPEA_W_KPEB_W@Z 000000018002b830 f i Keylock.obj
 0001:0002a880       ?wcscpy_s@Checked@ATL@@YAXPEA_W_KPEB_W@Z 000000018002b880 f i Keylock.obj
 0001:0002a8d0       ?wcsncpy_s@Checked@ATL@@YAHPEA_W_KPEB_W1@Z 000000018002b8d0 f i Keylock.obj
 0001:0002a930       ?wcsstr@@YAPEA_WPEA_WPEB_W@Z 000000018002b930 f i Keylock.obj
 0001:0002a970       InlineIsEqualGUID          000000018002b970 f i Keylock.obj
 0001:0002aa40       IsEqualGUID                000000018002ba40 f i Keylock.obj
 0001:0002aaa0       ??0COPOSKeylock@@QEAA@XZ   000000018002baa0 f   KeylockImpl.obj
 0001:0002ac20       ?FinalConstruct@COPOSKeylock@@QEAAJXZ 000000018002bc20 f   KeylockImpl.obj
 0001:0002ad10       ??1COPOSKeylock@@UEAA@XZ   000000018002bd10 f   KeylockImpl.obj
 0001:0002adf0       ?WriteTrace@COPOSKeylock@@QEAAXPEB_WZZ 000000018002bdf0 f   KeylockImpl.obj
 0001:0002aeb0       ?WriteTraceString@COPOSKeylock@@QEAAXPEB_WPEA_W@Z 000000018002beb0 f   KeylockImpl.obj
 0001:0002b2f0       ?WriteTraceString@COPOSKeylock@@QEAAXPEAXHHHPEB_WZZ 000000018002c2f0 f   KeylockImpl.obj
 0001:0002b580       ?WriteTraceError@COPOSKeylock@@QEAAXPEB_WK@Z 000000018002c580 f   KeylockImpl.obj
 0001:0002b680       ?WriteTraceMethods@COPOSKeylock@@QEAAXPEAJH@Z 000000018002c680 f   KeylockImpl.obj
 0001:0002b710       ?GetOposProp@COPOSKeylock@@IEAAJPEBDJPEAJJ@Z 000000018002c710 f   KeylockImpl.obj
 0001:0002ba30       ?SetOposProp@COPOSKeylock@@IEAAJPEBDJJJ@Z 000000018002ca30 f   KeylockImpl.obj
 0001:0002bd90       ?GetOposProp@COPOSKeylock@@IEAAJPEBDJPEAFJ@Z 000000018002cd90 f   KeylockImpl.obj
 0001:0002be30       ?SetOposProp@COPOSKeylock@@IEAAJPEBDJFJ@Z 000000018002ce30 f   KeylockImpl.obj
 0001:0002beb0       ?GetOposProp@COPOSKeylock@@IEAAJPEBDJPEAPEA_WJ@Z 000000018002ceb0 f   KeylockImpl.obj
 0001:0002c1d0       ?SetOposProp@COPOSKeylock@@IEAAJPEBDJPEA_WJ@Z 000000018002d1d0 f   KeylockImpl.obj
 0001:0002c5b0       ?DoInvoke@COPOSKeylock@@IEAAJPEBDJPEAVOposVariant@@IHPEAJ_N@Z 000000018002d5b0 f   KeylockImpl.obj
 0001:0002d100       ?SetCOFreezeEvents@COPOSKeylock@@IEAAXF@Z 000000018002e100 f   KeylockImpl.obj
 0001:0002d290       ?FreezeEvents@COPOSKeylock@@MEAAJH@Z 000000018002e290 f   KeylockImpl.obj
 0001:0002d3c0       ?OnDraw@COPOSKeylock@@MEAAJAEAUATL_DRAWINFO@@@Z 000000018002e3c0 f   KeylockImpl.obj
 0001:0002d590       ?SOProcessID@COPOSKeylock@@UEAAJPEAJ@Z 000000018002e590 f   KeylockImpl.obj
 0001:0002d5f0       ?get_OpenResult@COPOSKeylock@@UEAAJPEAJ@Z 000000018002e5f0 f   KeylockImpl.obj
 0001:0002d650       ?get_CheckHealthText@COPOSKeylock@@UEAAJPEAPEA_W@Z 000000018002e650 f   KeylockImpl.obj
 0001:0002d6b0       ?get_Claimed@COPOSKeylock@@UEAAJPEAF@Z 000000018002e6b0 f   KeylockImpl.obj
 0001:0002d710       ?get_DeviceEnabled@COPOSKeylock@@UEAAJPEAF@Z 000000018002e710 f   KeylockImpl.obj
 0001:0002d770       ?put_DeviceEnabled@COPOSKeylock@@UEAAJF@Z 000000018002e770 f   KeylockImpl.obj
 0001:0002d7d0       ?get_FreezeEvents@COPOSKeylock@@UEAAJPEAF@Z 000000018002e7d0 f   KeylockImpl.obj
 0001:0002d830       ?put_FreezeEvents@COPOSKeylock@@UEAAJF@Z 000000018002e830 f   KeylockImpl.obj
 0001:0002d910       ?get_ResultCode@COPOSKeylock@@UEAAJPEAJ@Z 000000018002e910 f   KeylockImpl.obj
 0001:0002d9e0       ?get_ResultCodeExtended@COPOSKeylock@@UEAAJPEAJ@Z 000000018002e9e0 f   KeylockImpl.obj
 0001:0002da40       ?get_State@COPOSKeylock@@UEAAJPEAJ@Z 000000018002ea40 f   KeylockImpl.obj
 0001:0002dad0       ?get_ControlObjectDescription@COPOSKeylock@@UEAAJPEAPEA_W@Z 000000018002ead0 f   KeylockImpl.obj
 0001:0002db50       ?get_ControlObjectVersion@COPOSKeylock@@UEAAJPEAJ@Z 000000018002eb50 f   KeylockImpl.obj
 0001:0002dbb0       ?get_ServiceObjectDescription@COPOSKeylock@@UEAAJPEAPEA_W@Z 000000018002ebb0 f   KeylockImpl.obj
 0001:0002dc10       ?get_ServiceObjectVersion@COPOSKeylock@@UEAAJPEAJ@Z 000000018002ec10 f   KeylockImpl.obj
 0001:0002dc70       ?get_DeviceDescription@COPOSKeylock@@UEAAJPEAPEA_W@Z 000000018002ec70 f   KeylockImpl.obj
 0001:0002dcd0       ?get_DeviceName@COPOSKeylock@@UEAAJPEAPEA_W@Z 000000018002ecd0 f   KeylockImpl.obj
 0001:0002dd30       ?CheckHealth@COPOSKeylock@@UEAAJJPEAJ@Z 000000018002ed30 f   KeylockImpl.obj
 0001:0002ddf0       ?ClaimDevice@COPOSKeylock@@UEAAJJPEAJ@Z 000000018002edf0 f   KeylockImpl.obj
 0001:0002df00       ?Close@COPOSKeylock@@UEAAJPEAJ@Z 000000018002ef00 f   KeylockImpl.obj
 0001:0002e010       ?DirectIO@COPOSKeylock@@UEAAJJPEAJPEAPEA_W0@Z 000000018002f010 f   KeylockImpl.obj
 0001:0002e190       ?Open@COPOSKeylock@@UEAAJPEA_WPEAJ@Z 000000018002f190 f   KeylockImpl.obj
 0001:0002f660       ?ReleaseDevice@COPOSKeylock@@UEAAJPEAJ@Z 0000000180030660 f   KeylockImpl.obj
 0001:0002f710       ?get_KeyPosition@COPOSKeylock@@UEAAJPEAJ@Z 0000000180030710 f   KeylockImpl.obj
 0001:0002f770       ?get_PositionCount@COPOSKeylock@@UEAAJPEAJ@Z 0000000180030770 f   KeylockImpl.obj
 0001:0002f7d0       ?WaitForKeylockChange@COPOSKeylock@@UEAAJJJPEAJ@Z 00000001800307d0 f   KeylockImpl.obj
 0001:0002f8f0       ?get_BinaryConversion@COPOSKeylock@@UEAAJPEAJ@Z 00000001800308f0 f   KeylockImpl.obj
 0001:0002f950       ?put_BinaryConversion@COPOSKeylock@@UEAAJJ@Z 0000000180030950 f   KeylockImpl.obj
 0001:0002f9c0       ?get_CapPowerReporting@COPOSKeylock@@UEAAJPEAJ@Z 00000001800309c0 f   KeylockImpl.obj
 0001:0002fa20       ?get_PowerNotify@COPOSKeylock@@UEAAJPEAJ@Z 0000000180030a20 f   KeylockImpl.obj
 0001:0002fa80       ?put_PowerNotify@COPOSKeylock@@UEAAJJ@Z 0000000180030a80 f   KeylockImpl.obj
 0001:0002fae0       ?get_PowerState@COPOSKeylock@@UEAAJPEAJ@Z 0000000180030ae0 f   KeylockImpl.obj
 0001:0002fb40       ?get_CapStatisticsReporting@COPOSKeylock@@UEAAJPEAF@Z 0000000180030b40 f   KeylockImpl.obj
 0001:0002fba0       ?get_CapUpdateStatistics@COPOSKeylock@@UEAAJPEAF@Z 0000000180030ba0 f   KeylockImpl.obj
 0001:0002fc00       ?ResetStatistics@COPOSKeylock@@UEAAJPEA_WPEAJ@Z 0000000180030c00 f   KeylockImpl.obj
 0001:0002fce0       ?RetrieveStatistics@COPOSKeylock@@UEAAJPEAPEA_WPEAJ@Z 0000000180030ce0 f   KeylockImpl.obj
 0001:0002fdc0       ?UpdateStatistics@COPOSKeylock@@UEAAJPEA_WPEAJ@Z 0000000180030dc0 f   KeylockImpl.obj
 0001:0002fea0       ?get_CapCompareFirmwareVersion@COPOSKeylock@@UEAAJPEAF@Z 0000000180030ea0 f   KeylockImpl.obj
 0001:0002ff00       ?get_CapUpdateFirmware@COPOSKeylock@@UEAAJPEAF@Z 0000000180030f00 f   KeylockImpl.obj
 0001:0002ff60       ?CompareFirmwareVersion@COPOSKeylock@@UEAAJPEA_WPEAJ1@Z 0000000180030f60 f   KeylockImpl.obj
 0001:000300a0       ?UpdateFirmware@COPOSKeylock@@UEAAJPEA_WPEAJ@Z 00000001800310a0 f   KeylockImpl.obj
 0001:00030180       ?get_CapKeylockType@COPOSKeylock@@UEAAJPEAJ@Z 0000000180031180 f   KeylockImpl.obj
 0001:000301e0       ?get_ElectronicKeyValue@COPOSKeylock@@UEAAJPEAPEA_W@Z 00000001800311e0 f   KeylockImpl.obj
 0001:00030230       ??0?$CComControl@VCOPOSKeylock@@V?$CWindowImpl@VCOPOSKeylock@@VCWindow@ATL@@V?$CWinTraits@$0FGAAAAAA@$0A@@3@@ATL@@@ATL@@QEAA@XZ 0000000180031230 f i KeylockImpl.obj
 0001:00030280       ??0?$CComPtr@UIAdviseSink@@@ATL@@QEAA@XZ 0000000180031280 f i KeylockImpl.obj
 0001:000302c0       ??0?$CComPtr@UIDataAdviseHolder@@@ATL@@QEAA@XZ 00000001800312c0 f i KeylockImpl.obj
 0001:00030300       ??0?$CComPtr@UIOleAdviseHolder@@@ATL@@QEAA@XZ 0000000180031300 f i KeylockImpl.obj
 0001:00030340       ??0?$CComPtr@UIOleClientSite@@@ATL@@QEAA@XZ 0000000180031340 f i KeylockImpl.obj
 0001:00030380       ??0?$CComPtr@UIOleInPlaceSiteWindowless@@@ATL@@QEAA@XZ 0000000180031380 f i KeylockImpl.obj
 0001:000303c0       ??0?$CComPtrBase@UIAdviseSink@@@ATL@@IEAA@XZ 00000001800313c0 f i KeylockImpl.obj
 0001:000303e0       ??0?$CComPtrBase@UIDataAdviseHolder@@@ATL@@IEAA@XZ 00000001800313e0 f i KeylockImpl.obj
 0001:00030400       ??0?$CComPtrBase@UIOleAdviseHolder@@@ATL@@IEAA@XZ 0000000180031400 f i KeylockImpl.obj
 0001:00030420       ??0?$CComPtrBase@UIOleClientSite@@@ATL@@IEAA@XZ 0000000180031420 f i KeylockImpl.obj
 0001:00030440       ??0?$CComPtrBase@UIOleInPlaceSiteWindowless@@@ATL@@IEAA@XZ 0000000180031440 f i KeylockImpl.obj
 0001:00030460       ??0?$CComQIPtr@UIDispatch@@$1?_GUID_00020400_0000_0000_c000_000000000046@@3U__s_GUID@@B@ATL@@QEAA@XZ 0000000180031460 f i KeylockImpl.obj
 0001:000304a0       ??0?$CProxy_IOPOSEvents@VCOPOSKeylock@@@@QEAA@PEAVCOPOSKeylock@@@Z 00000001800314a0 f i KeylockImpl.obj
 0001:00030510       ??0?$CWindowImpl@VCOPOSKeylock@@VCWindow@ATL@@V?$CWinTraits@$0FGAAAAAA@$0A@@3@@ATL@@QEAA@XZ 0000000180031510 f i KeylockImpl.obj
 0001:00030550       ??0?$CWindowImplBaseT@VCWindow@ATL@@V?$CWinTraits@$0FGAAAAAA@$0A@@2@@ATL@@QEAA@XZ 0000000180031550 f i KeylockImpl.obj
 0001:000305a0       ??0?$CWindowImplRoot@VCWindow@ATL@@@ATL@@QEAA@XZ 00000001800315a0 f i KeylockImpl.obj
 0001:00030610       ??0?$IConnectionPointContainerImpl@VCOPOSKeylock@@@ATL@@QEAA@XZ 0000000180031610 f i KeylockImpl.obj
 0001:00030650       ??0?$IConnectionPointImpl@VCOPOSKeylock@@$1?DIID__IOPOSKeylockEvents@@3U_GUID@@BVCComDynamicUnkArray@ATL@@@ATL@@QEAA@XZ 0000000180031650 f i KeylockImpl.obj
 0001:000306a0       ??0?$IConnectionPointImpl@VCOPOSKeylock@@$1?IID_IPropertyNotifySink@@3U_GUID@@BVCComDynamicUnkArray@ATL@@@ATL@@QEAA@XZ 00000001800316a0 f i KeylockImpl.obj
 0001:000306f0       ??0?$IDataObjectImpl@VCOPOSKeylock@@@ATL@@QEAA@XZ 00000001800316f0 f i KeylockImpl.obj
 0001:00030730       ??0?$IDispatchImpl@UIOPOSKeylock@@$1?IID_IOPOSKeylock@@3U_GUID@@B$1?LIBID_OposKeylock_CCO@@3U3@B$00$0A@VCComTypeInfoHolder@ATL@@@ATL@@QEAA@XZ 0000000180031730 f i KeylockImpl.obj
 0001:00030770       ??0?$IObjectSafetyImpl@VCOPOSKeylock@@$02@ATL@@QEAA@XZ 0000000180031770 f i KeylockImpl.obj
 0001:000307b0       ??0?$IOleControlImpl@VCOPOSKeylock@@@ATL@@QEAA@XZ 00000001800317b0 f i KeylockImpl.obj
 0001:000307f0       ??0?$IOleInPlaceActiveObjectImpl@VCOPOSKeylock@@@ATL@@QEAA@XZ 00000001800317f0 f i KeylockImpl.obj
 0001:00030830       ??0?$IOleInPlaceObjectWindowlessImpl@VCOPOSKeylock@@@ATL@@QEAA@XZ 0000000180031830 f i KeylockImpl.obj
 0001:00030870       ??0?$IOleObjectImpl@VCOPOSKeylock@@@ATL@@QEAA@XZ 0000000180031870 f i KeylockImpl.obj
 0001:000308b0       ??0?$IPersistStorageImpl@VCOPOSKeylock@@@ATL@@QEAA@XZ 00000001800318b0 f i KeylockImpl.obj
 0001:000308f0       ??0?$IPersistStreamInitImpl@VCOPOSKeylock@@@ATL@@QEAA@XZ 00000001800318f0 f i KeylockImpl.obj
 0001:00030930       ??0?$IPropertyNotifySinkCP@VCOPOSKeylock@@VCComDynamicUnkArray@ATL@@@ATL@@QEAA@XZ 0000000180031930 f i KeylockImpl.obj
 0001:00030970       ??0?$IProvideClassInfo2Impl@$1?CLSID_OPOSKeylock@@3U_GUID@@B$1?DIID__IOPOSKeylockEvents@@3U2@B$1?LIBID_OposKeylock_CCO@@3U2@B$00$0A@VCComTypeInfoHolder@ATL@@@ATL@@QEAA@XZ 0000000180031970 f i KeylockImpl.obj
 0001:000309b0       ??0?$IQuickActivateImpl@VCOPOSKeylock@@@ATL@@QEAA@XZ 00000001800319b0 f i KeylockImpl.obj
 0001:000309f0       ??0?$ISpecifyPropertyPagesImpl@VCOPOSKeylock@@@ATL@@QEAA@XZ 00000001800319f0 f i KeylockImpl.obj
 0001:00030a30       ??0?$IViewObjectExImpl@VCOPOSKeylock@@@ATL@@QEAA@XZ 0000000180031a30 f i KeylockImpl.obj
 0001:00030a70       ??0?$_ICPLocator@$1?DIID__IOPOSKeylockEvents@@3U_GUID@@B@ATL@@QEAA@XZ 0000000180031a70 f i KeylockImpl.obj
 0001:00030a80       ??0?$_ICPLocator@$1?IID_IPropertyNotifySink@@3U_GUID@@B@ATL@@QEAA@XZ 0000000180031a80 f i KeylockImpl.obj
 0001:00030a90       ??0CComControlBase@ATL@@QEAA@AEAPEAUHWND__@@@Z 0000000180031a90 f i KeylockImpl.obj
 0001:00030cb0       ??0CComDynamicUnkArray@ATL@@QEAA@XZ 0000000180031cb0 f i KeylockImpl.obj
 0001:00030ce0       ??0CDynamicStdCallThunk2@ATL@@QEAA@XZ 0000000180031ce0 f i KeylockImpl.obj
 0001:00030d00       ??0CMessageMap@ATL@@QEAA@XZ 0000000180031d00 f i KeylockImpl.obj
 0001:00030d10       ??0CWindow@ATL@@QEAA@PEAUHWND__@@@Z 0000000180031d10 f i KeylockImpl.obj
 0001:00030d30       ??0CWndProcThunk@ATL@@QEAA@XZ 0000000180031d30 f i KeylockImpl.obj
 0001:00030d70       ??0IConnectionPointContainer@@QEAA@XZ 0000000180031d70 f i KeylockImpl.obj
 0001:00030db0       ??0IDataObject@@QEAA@XZ    0000000180031db0 f i KeylockImpl.obj
 0001:00030df0       ??0IDispatch@@QEAA@XZ      0000000180031df0 f i KeylockImpl.obj
 0001:00030e30       ??0IOPOSKeylock@@QEAA@XZ   0000000180031e30 f i KeylockImpl.obj
 0001:00030e70       ??0IOPOSKeylock_1_11@@QEAA@XZ 0000000180031e70 f i KeylockImpl.obj
 0001:00030eb0       ??0IOPOSKeylock_1_5@@QEAA@XZ 0000000180031eb0 f i KeylockImpl.obj
 0001:00030ef0       ??0IOPOSKeylock_1_8@@QEAA@XZ 0000000180031ef0 f i KeylockImpl.obj
 0001:00030f30       ??0IOPOSKeylock_1_9@@QEAA@XZ 0000000180031f30 f i KeylockImpl.obj
 0001:00030f70       ??0IObjectSafety@@QEAA@XZ  0000000180031f70 f i KeylockImpl.obj
 0001:00030fb0       ??0IOleControl@@QEAA@XZ    0000000180031fb0 f i KeylockImpl.obj
 0001:00030ff0       ??0IOleInPlaceActiveObject@@QEAA@XZ 0000000180031ff0 f i KeylockImpl.obj
 0001:00031030       ??0IOleInPlaceObject@@QEAA@XZ 0000000180032030 f i KeylockImpl.obj
 0001:00031070       ??0IOleInPlaceObjectWindowless@@QEAA@XZ 0000000180032070 f i KeylockImpl.obj
 0001:000310b0       ??0IOleObject@@QEAA@XZ     00000001800320b0 f i KeylockImpl.obj
 0001:000310f0       ??0IOleWindow@@QEAA@XZ     00000001800320f0 f i KeylockImpl.obj
 0001:00031130       ??0IPersist@@QEAA@XZ       0000000180032130 f i KeylockImpl.obj
 0001:00031170       ??0IPersistStorage@@QEAA@XZ 0000000180032170 f i KeylockImpl.obj
 0001:000311b0       ??0IPersistStreamInit@@QEAA@XZ 00000001800321b0 f i KeylockImpl.obj
 0001:000311f0       ??0IProvideClassInfo2@@QEAA@XZ 00000001800321f0 f i KeylockImpl.obj
 0001:00031230       ??0IProvideClassInfo@@QEAA@XZ 0000000180032230 f i KeylockImpl.obj
 0001:00031270       ??0IQuickActivate@@QEAA@XZ 0000000180032270 f i KeylockImpl.obj
 0001:000312b0       ??0ISpecifyPropertyPages@@QEAA@XZ 00000001800322b0 f i KeylockImpl.obj
 0001:000312f0       ??0IViewObject2@@QEAA@XZ   00000001800322f0 f i KeylockImpl.obj
 0001:00031330       ??0IViewObject@@QEAA@XZ    0000000180032330 f i KeylockImpl.obj
 0001:00031370       ??0IViewObjectEx@@QEAA@XZ  0000000180032370 f i KeylockImpl.obj
 0001:000313b0       ??0OposVariantResult@@QEAA@XZ 00000001800323b0 f i KeylockImpl.obj
 0001:000313f0       ??0_CW@@QEAA@PEBD@Z        00000001800323f0 f i KeylockImpl.obj
 0001:00031440       ??0_CW@@QEAA@PEB_W@Z       0000000180032440 f i KeylockImpl.obj
 0001:00031490       ??0_CWNCC@@QEAA@PEBD@Z     0000000180032490 f i KeylockImpl.obj
 0001:000314d0       ??1?$CComControl@VCOPOSKeylock@@V?$CWindowImpl@VCOPOSKeylock@@VCWindow@ATL@@V?$CWinTraits@$0FGAAAAAA@$0A@@3@@ATL@@@ATL@@UEAA@XZ 00000001800324d0 f i KeylockImpl.obj
 0001:00031510       ??1?$CComPtr@UIDataAdviseHolder@@@ATL@@QEAA@XZ 0000000180032510 f i KeylockImpl.obj
 0001:00031540       ??1?$CComPtr@UIOleAdviseHolder@@@ATL@@QEAA@XZ 0000000180032540 f i KeylockImpl.obj
 0001:00031570       ??1?$CComPtr@UIOleInPlaceSiteWindowless@@@ATL@@QEAA@XZ 0000000180032570 f i KeylockImpl.obj
 0001:000315a0       ??1?$CComPtrBase@UIDataAdviseHolder@@@ATL@@QEAA@XZ 00000001800325a0 f i KeylockImpl.obj
 0001:000315f0       ??1?$CComPtrBase@UIOleAdviseHolder@@@ATL@@QEAA@XZ 00000001800325f0 f i KeylockImpl.obj
 0001:00031640       ??1?$CComPtrBase@UIOleInPlaceSiteWindowless@@@ATL@@QEAA@XZ 0000000180032640 f i KeylockImpl.obj
 0001:00031690       ??1?$CComQIPtr@UIDispatch@@$1?_GUID_00020400_0000_0000_c000_000000000046@@3U__s_GUID@@B@ATL@@QEAA@XZ 0000000180032690 f i KeylockImpl.obj
 0001:000316c0       ??1?$CProxy_IOPOSEvents@VCOPOSKeylock@@@@QEAA@XZ 00000001800326c0 f i KeylockImpl.obj
 0001:000316f0       ??1?$CWindowImpl@VCOPOSKeylock@@VCWindow@ATL@@V?$CWinTraits@$0FGAAAAAA@$0A@@3@@ATL@@UEAA@XZ 00000001800326f0 f i KeylockImpl.obj
 0001:00031720       ??1?$CWindowImplBaseT@VCWindow@ATL@@V?$CWinTraits@$0FGAAAAAA@$0A@@2@@ATL@@UEAA@XZ 0000000180032720 f i KeylockImpl.obj
 0001:00031750       ??1?$CWindowImplRoot@VCWindow@ATL@@@ATL@@UEAA@XZ 0000000180032750 f i KeylockImpl.obj
 0001:00031810       ??1?$IConnectionPointImpl@VCOPOSKeylock@@$1?DIID__IOPOSKeylockEvents@@3U_GUID@@BVCComDynamicUnkArray@ATL@@@ATL@@QEAA@XZ 0000000180032810 f i KeylockImpl.obj
 0001:000318b0       ??1?$IConnectionPointImpl@VCOPOSKeylock@@$1?IID_IPropertyNotifySink@@3U_GUID@@BVCComDynamicUnkArray@ATL@@@ATL@@QEAA@XZ 00000001800328b0 f i KeylockImpl.obj
 0001:00031950       ??1?$IPropertyNotifySinkCP@VCOPOSKeylock@@VCComDynamicUnkArray@ATL@@@ATL@@QEAA@XZ 0000000180032950 f i KeylockImpl.obj
 0001:00031980       ??1CComControlBase@ATL@@UEAA@XZ 0000000180032980 f i KeylockImpl.obj
 0001:00031a70       ??1CComDynamicUnkArray@ATL@@QEAA@XZ 0000000180032a70 f i KeylockImpl.obj
 0001:00031ab0       ??1CDynamicStdCallThunk2@ATL@@QEAA@XZ 0000000180032ab0 f i KeylockImpl.obj
 0001:00031af0       ??1CWndProcThunk@ATL@@QEAA@XZ 0000000180032af0 f i KeylockImpl.obj
 0001:00031b30       ??1OposVariantResult@@QEAA@XZ 0000000180032b30 f i KeylockImpl.obj
 0001:00031b70       ??1_CW@@QEAA@XZ            0000000180032b70 f i KeylockImpl.obj
 0001:00031bf0       ??1_CWNCC@@QEAA@XZ         0000000180032bf0 f i KeylockImpl.obj
 0001:00031c20       ??B_CW@@QEAAPEB_WXZ        0000000180032c20 f i KeylockImpl.obj
 0001:00031c70       ??B_CWNCC@@QEAAPEA_WXZ     0000000180032c70 f i KeylockImpl.obj
 0001:00031ca0       ??_EOposVariant@@QEAAPEAXI@Z 0000000180032ca0 f i KeylockImpl.obj
 0001:00031d50       ?EventClose@COPOSKeylock@@IEAAXXZ 0000000180032d50 f i KeylockImpl.obj
 0001:00031df0       ?EventInit@COPOSKeylock@@IEAAJXZ 0000000180032df0 f i KeylockImpl.obj
 0001:000320a0       ?EventOpen@COPOSKeylock@@IEAAXXZ 00000001800330a0 f i KeylockImpl.obj
 0001:000320e0       ?EventPreClose@COPOSKeylock@@IEAAXXZ 00000001800330e0 f i KeylockImpl.obj
 0001:00032160       ?EventUninit@COPOSKeylock@@IEAAXXZ 0000000180033160 f i KeylockImpl.obj
 0001:00032290       ?EventWindowProc@COPOSKeylock@@IEAA_JI_K_J@Z 0000000180033290 f i KeylockImpl.obj
 0001:00032390       ?FireEventCleanup@COPOSKeylock@@IEAAXXZ 0000000180033390 f i KeylockImpl.obj
 0001:000323e0       ?FireEventSetup@COPOSKeylock@@IEAA_NXZ 00000001800333e0 f i KeylockImpl.obj
 0001:00032460       ?GetModuleInstance@CComModule@ATL@@QEAAPEAUHINSTANCE__@@XZ 0000000180033460 f i KeylockImpl.obj
 0001:00032470       ?SetRC@COPOSKeylock@@IEAAJJ@Z 0000000180033470 f i KeylockImpl.obj
 0001:00032490       ?s_EventWindowProc@COPOSKeylock@@KA_JPEAUHWND__@@I_K_J@Z 0000000180033490 f i KeylockImpl.obj
 0001:00032540       _snwprintf                 0000000180033540 f i KeylockImpl.obj
 0001:000325d0       _vfwprintf_l               00000001800335d0 f i KeylockImpl.obj
 0001:00032630       _vsnwprintf                0000000180033630 f i KeylockImpl.obj
 0001:00032690       _vsnwprintf_l              0000000180033690 f i KeylockImpl.obj
 0001:00032720       vfwprintf                  0000000180033720 f i KeylockImpl.obj
 0001:00032765       DebugBreak                 0000000180033765 f   kernel32:KERNEL32.dll
 0001:0003276b       Sleep                      000000018003376b f   kernel32:KERNEL32.dll
 0001:00032771       GetCurrentProcess          0000000180033771 f   kernel32:KERNEL32.dll
 0001:00032777       TerminateProcess           0000000180033777 f   kernel32:KERNEL32.dll
 0001:0003277d       MultiByteToWideChar        000000018003377d f   kernel32:KERNEL32.dll
 0001:00032783       WideCharToMultiByte        0000000180033783 f   kernel32:KERNEL32.dll
 0001:00032789       DecodePointer              0000000180033789 f   kernel32:KERNEL32.dll
 0001:0003278f       RaiseException             000000018003378f f   kernel32:KERNEL32.dll
 0001:00032795       GetLastError               0000000180033795 f   kernel32:KERNEL32.dll
 0001:0003279b       SetLastError               000000018003379b f   kernel32:KERNEL32.dll
 0001:000327a1       InitializeCriticalSectionEx 00000001800337a1 f   kernel32:KERNEL32.dll
 0001:000327a7       DeleteCriticalSection      00000001800337a7 f   kernel32:KERNEL32.dll
 0001:000327ad       EncodePointer              00000001800337ad f   kernel32:KERNEL32.dll
 0001:000327b3       EnterCriticalSection       00000001800337b3 f   kernel32:KERNEL32.dll
 0001:000327b9       LeaveCriticalSection       00000001800337b9 f   kernel32:KERNEL32.dll
 0001:000327bf       ResetEvent                 00000001800337bf f   kernel32:KERNEL32.dll
 0001:000327c5       ReleaseMutex               00000001800337c5 f   kernel32:KERNEL32.dll
 0001:000327cb       WaitForSingleObject        00000001800337cb f   kernel32:KERNEL32.dll
 0001:000327d1       GetCurrentThreadId         00000001800337d1 f   kernel32:KERNEL32.dll
 0001:000327d7       DisableThreadLibraryCalls  00000001800337d7 f   kernel32:KERNEL32.dll
 0001:000327dd       FreeLibrary                00000001800337dd f   kernel32:KERNEL32.dll
 0001:000327e3       GetModuleFileNameW         00000001800337e3 f   kernel32:KERNEL32.dll
 0001:000327e9       GetModuleHandleW           00000001800337e9 f   kernel32:KERNEL32.dll
 0001:000327ef       GetProcAddress             00000001800337ef f   kernel32:KERNEL32.dll
 0001:000327f5       LoadLibraryExW             00000001800337f5 f   kernel32:KERNEL32.dll
 0001:000327fb       LoadResource               00000001800337fb f   kernel32:KERNEL32.dll
 0001:00032801       SizeofResource             0000000180033801 f   kernel32:KERNEL32.dll
 0001:00032807       FindResourceW              0000000180033807 f   kernel32:KERNEL32.dll
 0001:0003280d       GlobalAlloc                000000018003380d f   kernel32:KERNEL32.dll
 0001:00032813       GlobalUnlock               0000000180033813 f   kernel32:KERNEL32.dll
 0001:00032819       GlobalLock                 0000000180033819 f   kernel32:KERNEL32.dll
 0001:0003281f       MulDiv                     000000018003381f f   kernel32:KERNEL32.dll
 0001:00032825       lstrcmpiW                  0000000180033825 f   kernel32:KERNEL32.dll
 0001:0003282b       DeleteFileW                000000018003382b f   kernel32:KERNEL32.dll
 0001:00032831       CloseHandle                0000000180033831 f   kernel32:KERNEL32.dll
 0001:00032837       SetEvent                   0000000180033837 f   kernel32:KERNEL32.dll
 0001:0003283d       CreateMutexW               000000018003383d f   kernel32:KERNEL32.dll
 0001:00032843       CreateEventW               0000000180033843 f   kernel32:KERNEL32.dll
 0001:00032849       GetCurrentProcessId        0000000180033849 f   kernel32:KERNEL32.dll
 0001:0003284f       LocalFree                  000000018003384f f   kernel32:KERNEL32.dll
 0001:00032855       FormatMessageW             0000000180033855 f   kernel32:KERNEL32.dll
 0001:0003285b       GetActiveWindow            000000018003385b f   user32:USER32.dll
 0001:00032861       MessageBoxW                0000000180033861 f   user32:USER32.dll
 0001:00032867       UnregisterClassW           0000000180033867 f   user32:USER32.dll
 0001:0003286d       PostMessageW               000000018003386d f   user32:USER32.dll
 0001:00032873       DefWindowProcW             0000000180033873 f   user32:USER32.dll
 0001:00032879       CallWindowProcW            0000000180033879 f   user32:USER32.dll
 0001:0003287f       RegisterClassExW           000000018003387f f   user32:USER32.dll
 0001:00032885       GetClassInfoExW            0000000180033885 f   user32:USER32.dll
 0001:0003288b       CreateWindowExW            000000018003388b f   user32:USER32.dll
 0001:00032891       IsWindow                   0000000180033891 f   user32:USER32.dll
 0001:00032897       IsChild                    0000000180033897 f   user32:USER32.dll
 0001:0003289d       DestroyWindow              000000018003389d f   user32:USER32.dll
 0001:000328a3       ShowWindow                 00000001800338a3 f   user32:USER32.dll
 0001:000328a9       SetWindowPos               00000001800338a9 f   user32:USER32.dll
 0001:000328af       CharNextW                  00000001800338af f   user32:USER32.dll
 0001:000328b5       SetFocus                   00000001800338b5 f   user32:USER32.dll
 0001:000328bb       GetFocus                   00000001800338bb f   user32:USER32.dll
 0001:000328c1       GetKeyState                00000001800338c1 f   user32:USER32.dll
 0001:000328c7       GetDC                      00000001800338c7 f   user32:USER32.dll
 0001:000328cd       ReleaseDC                  00000001800338cd f   user32:USER32.dll
 0001:000328d3       BeginPaint                 00000001800338d3 f   user32:USER32.dll
 0001:000328d9       EndPaint                   00000001800338d9 f   user32:USER32.dll
 0001:000328df       SetWindowRgn               00000001800338df f   user32:USER32.dll
 0001:000328e5       InvalidateRect             00000001800338e5 f   user32:USER32.dll
 0001:000328eb       GetClientRect              00000001800338eb f   user32:USER32.dll
 0001:000328f1       IntersectRect              00000001800338f1 f   user32:USER32.dll
 0001:000328f7       UnionRect                  00000001800338f7 f   user32:USER32.dll
 0001:000328fd       OffsetRect                 00000001800338fd f   user32:USER32.dll
 0001:00032903       EqualRect                  0000000180033903 f   user32:USER32.dll
 0001:00032909       PtInRect                   0000000180033909 f   user32:USER32.dll
 0001:0003290f       GetWindowLongPtrW          000000018003390f f   user32:USER32.dll
 0001:00032915       SetWindowLongPtrW          0000000180033915 f   user32:USER32.dll
 0001:0003291b       GetParent                  000000018003391b f   user32:USER32.dll
 0001:00032921       LoadCursorW                0000000180033921 f   user32:USER32.dll
 0001:00032927       PeekMessageW               0000000180033927 f   user32:USER32.dll
 0001:0003292d       RegisterClassW             000000018003392d f   user32:USER32.dll
 0001:00032933       LoadBitmapW                0000000180033933 f   user32:USER32.dll
 0001:00032939       CloseMetaFile              0000000180033939 f   gdi32:GDI32.dll
 0001:0003293f       CreateDCW                  000000018003393f f   gdi32:GDI32.dll
 0001:00032945       CreateMetaFileW            0000000180033945 f   gdi32:GDI32.dll
 0001:0003294b       CreateRectRgnIndirect      000000018003394b f   gdi32:GDI32.dll
 0001:00032951       DeleteDC                   0000000180033951 f   gdi32:GDI32.dll
 0001:00032957       DeleteMetaFile             0000000180033957 f   gdi32:GDI32.dll
 0001:0003295d       GetDeviceCaps              000000018003395d f   gdi32:GDI32.dll
 0001:00032963       RestoreDC                  0000000180033963 f   gdi32:GDI32.dll
 0001:00032969       SaveDC                     0000000180033969 f   gdi32:GDI32.dll
 0001:0003296f       SetMapMode                 000000018003396f f   gdi32:GDI32.dll
 0001:00032975       LPtoDP                     0000000180033975 f   gdi32:GDI32.dll
 0001:0003297b       SetViewportOrgEx           000000018003397b f   gdi32:GDI32.dll
 0001:00032981       SetWindowExtEx             0000000180033981 f   gdi32:GDI32.dll
 0001:00032987       SetWindowOrgEx             0000000180033987 f   gdi32:GDI32.dll
 0001:0003298d       BitBlt                     000000018003398d f   gdi32:GDI32.dll
 0001:00032993       CreateCompatibleDC         0000000180033993 f   gdi32:GDI32.dll
 0001:00032999       DeleteObject               0000000180033999 f   gdi32:GDI32.dll
 0001:0003299f       SelectObject               000000018003399f f   gdi32:GDI32.dll
 0001:000329a5       GetObjectW                 00000001800339a5 f   gdi32:GDI32.dll
 0001:000329ab       RegCloseKey                00000001800339ab f   advapi32:ADVAPI32.dll
 0001:000329b1       RegCreateKeyExW            00000001800339b1 f   advapi32:ADVAPI32.dll
 0001:000329b7       RegDeleteKeyW              00000001800339b7 f   advapi32:ADVAPI32.dll
 0001:000329bd       RegDeleteValueW            00000001800339bd f   advapi32:ADVAPI32.dll
 0001:000329c3       RegEnumKeyExW              00000001800339c3 f   advapi32:ADVAPI32.dll
 0001:000329c9       RegOpenKeyExW              00000001800339c9 f   advapi32:ADVAPI32.dll
 0001:000329cf       RegQueryInfoKeyW           00000001800339cf f   advapi32:ADVAPI32.dll
 0001:000329d5       RegSetValueExW             00000001800339d5 f   advapi32:ADVAPI32.dll
 0001:000329db       RegQueryValueExW           00000001800339db f   advapi32:ADVAPI32.dll
 0001:000329e1       CoCreateInstance           00000001800339e1 f   ole32:ole32.dll
 0001:000329e7       StringFromGUID2            00000001800339e7 f   ole32:ole32.dll
 0001:000329ed       CoTaskMemAlloc             00000001800339ed f   ole32:ole32.dll
 0001:000329f3       CoTaskMemRealloc           00000001800339f3 f   ole32:ole32.dll
 0001:000329f9       CoTaskMemFree              00000001800339f9 f   ole32:ole32.dll
 0001:000329ff       ReadClassStm               00000001800339ff f   ole32:ole32.dll
 0001:00032a05       WriteClassStm              0000000180033a05 f   ole32:ole32.dll
 0001:00032a0b       CreateDataAdviseHolder     0000000180033a0b f   ole32:ole32.dll
 0001:00032a11       OleSaveToStream            0000000180033a11 f   ole32:ole32.dll
 0001:00032a17       CreateOleAdviseHolder      0000000180033a17 f   ole32:ole32.dll
 0001:00032a1d       OleRegGetUserType          0000000180033a1d f   ole32:ole32.dll
 0001:00032a23       OleRegGetMiscStatus        0000000180033a23 f   ole32:ole32.dll
 0001:00032a29       OleRegEnumVerbs            0000000180033a29 f   ole32:ole32.dll
 0001:00032a2f       CLSIDFromProgID            0000000180033a2f f   ole32:ole32.dll
 0001:00032a35       SysAllocString             0000000180033a35 f   oleaut32:OLEAUT32.dll
 0001:00032a3b       SysAllocStringLen          0000000180033a3b f   oleaut32:OLEAUT32.dll
 0001:00032a41       SysFreeString              0000000180033a41 f   oleaut32:OLEAUT32.dll
 0001:00032a47       SysStringLen               0000000180033a47 f   oleaut32:OLEAUT32.dll
 0001:00032a4d       VariantClear               0000000180033a4d f   oleaut32:OLEAUT32.dll
 0001:00032a53       VariantCopyInd             0000000180033a53 f   oleaut32:OLEAUT32.dll
 0001:00032a59       VariantChangeType          0000000180033a59 f   oleaut32:OLEAUT32.dll
 0001:00032a5f       SysStringByteLen           0000000180033a5f f   oleaut32:OLEAUT32.dll
 0001:00032a65       SysAllocStringByteLen      0000000180033a65 f   oleaut32:OLEAUT32.dll
 0001:00032a6b       VariantInit                0000000180033a6b f   oleaut32:OLEAUT32.dll
 0001:00032a71       VarUI4FromStr              0000000180033a71 f   oleaut32:OLEAUT32.dll
 0001:00032a77       LoadTypeLib                0000000180033a77 f   oleaut32:OLEAUT32.dll
 0001:00032a7d       LoadRegTypeLib             0000000180033a7d f   oleaut32:OLEAUT32.dll
 0001:00032a83       RegisterTypeLib            0000000180033a83 f   oleaut32:OLEAUT32.dll
 0001:00032a89       UnRegisterTypeLib          0000000180033a89 f   oleaut32:OLEAUT32.dll
 0001:00032a8f       OleCreatePropertyFrame     0000000180033a8f f   oleaut32:OLEAUT32.dll
 0001:00032aa0       _RTC_AllocaHelper          0000000180033aa0 f   LIBCMTD:stack.obj
 0001:00032ae0       _RTC_CheckStackVars        0000000180033ae0 f   LIBCMTD:stack.obj
 0001:00032b70       _RTC_CheckStackVars2       0000000180033b70 f   LIBCMTD:stack.obj
 0001:00032c80       _CRT_RTC_INIT              0000000180033c80 f   LIBCMTD:init.obj
 0001:00032c90       _CRT_RTC_INITW             0000000180033c90 f   LIBCMTD:init.obj
 0001:00032ca0       _RTC_InitBase              0000000180033ca0 f   LIBCMTD:init.obj
 0001:00032ce0       _RTC_Shutdown              0000000180033ce0 f   LIBCMTD:init.obj
 0001:00032d10       __GSHandlerCheck           0000000180033d10 f   LIBCMTD:gshandler.obj
 0001:00032d50       __GSHandlerCheckCommon     0000000180033d50 f   LIBCMTD:gshandler.obj
 0001:00032e60       __security_check_cookie    0000000180033e60 f   LIBCMTD:amdsecgs.obj
 0001:00032e90       ??_U@YAPEAX_K@Z            0000000180033e90 f   LIBCMTD:new_array.obj
 0001:00032eb0       ??3@YAXPEAX_K@Z            0000000180033eb0 f   LIBCMTD:delete_scalar_size.obj
 0001:00032ed0       ??_V@YAXPEAX@Z             0000000180033ed0 f   LIBCMTD:delete_array.obj
 0001:00032ef0       ??_V@YAXPEAX_K@Z           0000000180033ef0 f   LIBCMTD:delete_array_size.obj
 0001:00032f10       ?configure_argv@__scrt_narrow_argv_policy@@SAHXZ 0000000180033f10 f i LIBCMTD:utility.obj
 0001:00033000       ?initialize_environment@__scrt_narrow_environment_policy@@SAHXZ 0000000180034000 f i LIBCMTD:utility.obj
 0001:000330a0       NtCurrentTeb               00000001800340a0 f i LIBCMTD:utility.obj
 0001:000330b0       __scrt_acquire_startup_lock 00000001800340b0 f   LIBCMTD:utility.obj
 0001:00033120       __scrt_dllmain_after_initialize_c 0000000180034120 f   LIBCMTD:utility.obj
 0001:00033150       __scrt_dllmain_before_initialize_c 0000000180034150 f   LIBCMTD:utility.obj
 0001:00033170       __scrt_dllmain_crt_thread_attach 0000000180034170 f   LIBCMTD:utility.obj
 0001:000331a0       __scrt_dllmain_crt_thread_detach 00000001800341a0 f   LIBCMTD:utility.obj
 0001:000331c0       __scrt_dllmain_exception_filter 00000001800341c0 f   LIBCMTD:utility.obj
 0001:00033230       __scrt_dllmain_uninitialize_c 0000000180034230 f   LIBCMTD:utility.obj
 0001:00033260       __scrt_dllmain_uninitialize_critical 0000000180034260 f   LIBCMTD:utility.obj
 0001:00033280       __scrt_initialize_crt      0000000180034280 f   LIBCMTD:utility.obj
 0001:000332d0       __scrt_initialize_onexit_tables 00000001800342d0 f   LIBCMTD:utility.obj
 0001:000333e0       __scrt_is_nonwritable_in_current_image 00000001800343e0 f   LIBCMTD:utility.obj
 0001:00033470       __scrt_release_startup_lock 0000000180034470 f   LIBCMTD:utility.obj
 0001:000334a0       __scrt_uninitialize_crt    00000001800344a0 f   LIBCMTD:utility.obj
 0001:000334e0       _onexit                    00000001800344e0 f   LIBCMTD:utility.obj
 0001:00033560       at_quick_exit              0000000180034560 f   LIBCMTD:utility.obj
 0001:000335b0       atexit                     00000001800345b0 f   LIBCMTD:utility.obj
 0001:000335f0       ??3@YAXPEAX@Z              00000001800345f0 f   LIBCMTD:delete_scalar.obj
 0001:00033610       __raise_securityfailure    0000000180034610 f   LIBCMTD:gs_report.obj
 0001:00033650       __report_gsfailure         0000000180034650 f   LIBCMTD:gs_report.obj
 0001:00033730       __report_rangecheckfailure 0000000180034730 f   LIBCMTD:gs_report.obj
 0001:00033750       __report_securityfailure   0000000180034750 f   LIBCMTD:gs_report.obj
 0001:000337f0       __report_securityfailureEx 00000001800347f0 f   LIBCMTD:gs_report.obj
 0001:00033bb0       _Init_thread_abort         0000000180034bb0 f   LIBCMTD:thread_safe_statics.obj
 0001:00033be0       _Init_thread_footer        0000000180034be0 f   LIBCMTD:thread_safe_statics.obj
 0001:00033c40       _Init_thread_header        0000000180034c40 f   LIBCMTD:thread_safe_statics.obj
 0001:00033cd0       _Init_thread_lock          0000000180034cd0 f   LIBCMTD:thread_safe_statics.obj
 0001:00033cf0       _Init_thread_notify        0000000180034cf0 f   LIBCMTD:thread_safe_statics.obj
 0001:00033d50       _Init_thread_unlock        0000000180034d50 f   LIBCMTD:thread_safe_statics.obj
 0001:00033d70       _Init_thread_wait          0000000180034d70 f   LIBCMTD:thread_safe_statics.obj
 0001:00033e20       ??2@YAPEAX_KAEBUnothrow_t@std@@@Z 0000000180034e20 f   LIBCMTD:new_scalar_nothrow.obj
 0001:00033e60       ??_U@YAPEAX_KAEBUnothrow_t@std@@@Z 0000000180034e60 f   LIBCMTD:new_array_nothrow.obj
 0001:00033e90       __GSHandlerCheck_SEH       0000000180034e90 f   LIBCMTD:gshandlerseh.obj
 0001:00033f60       __chkstk                   0000000180034f60 f   LIBCMTD:chkstk.obj
 0001:00033f60       _alloca_probe              0000000180034f60 f   LIBCMTD:chkstk.obj
 0001:000343d0       _CRT_INIT                  00000001800353d0 f   LIBCMTD:dll_dllmain.obj
 0001:00034400       _DllMainCRTStartup         0000000180035400 f   LIBCMTD:dll_dllmain.obj
 0001:000344d0       ?_RTC_AllocaFailure@@YAXPEAXPEAU_RTC_ALLOCA_NODE@@H@Z 00000001800354d0 f   LIBCMTD:error.obj
 0001:00034630       ?_RTC_Failure@@YAXPEAXH@Z  0000000180035630 f   LIBCMTD:error.obj
 0001:00034680       ?_RTC_StackFailure@@YAXPEAXPEBD@Z 0000000180035680 f   LIBCMTD:error.obj
 0001:00034ab0       _RTC_UninitUse             0000000180035ab0 f   LIBCMTD:error.obj
 0001:00034b80       _vsprintf_s_l              0000000180035b80 f i LIBCMTD:error.obj
 0001:00034bf0       sprintf_s                  0000000180035bf0 f i LIBCMTD:error.obj
 0001:00034c20       ?_RTC_GetErrorFunc@@YAP6AHHPEBDH00ZZPEBX@Z 0000000180035c20 f   LIBCMTD:userapi.obj
 0001:00034c30       ?_RTC_GetErrorFuncW@@YAP6AHHPEB_WH00ZZPEBX@Z 0000000180035c30 f   LIBCMTD:userapi.obj
 0001:00034c40       _RTC_GetErrDesc            0000000180035c40 f   LIBCMTD:userapi.obj
 0001:00034c60       _RTC_NumErrors             0000000180035c60 f   LIBCMTD:userapi.obj
 0001:00034c70       _RTC_SetErrorFunc          0000000180035c70 f   LIBCMTD:userapi.obj
 0001:00034c90       _RTC_SetErrorFuncW         0000000180035c90 f   LIBCMTD:userapi.obj
 0001:00034cb0       _RTC_SetErrorType          0000000180035cb0 f   LIBCMTD:userapi.obj
 0001:00034cd0       ??2@YAPEAX_K@Z             0000000180035cd0 f   LIBCMTD:new_scalar.obj
 0001:00034d20       __isa_available_init       0000000180035d20 f   LIBCMTD:cpu_disp.obj
 0001:000350c0       _get_startup_argv_mode     00000001800360c0 f   LIBCMTD:argv_mode.obj
 0001:000350d0       __scrt_is_ucrt_dll_in_use  00000001800360d0 f   LIBCMTD:ucrt_detection.obj
 0001:00035100       __crt_debugger_hook        0000000180036100 f   LIBCMTD:utility_desktop.obj
 0001:00035110       __scrt_fastfail            0000000180036110 f   LIBCMTD:utility_desktop.obj
 0001:000352b0       __scrt_get_show_window_mode 00000001800362b0 f   LIBCMTD:utility_desktop.obj
 0001:00035310       __scrt_initialize_mta      0000000180036310 f   LIBCMTD:utility_desktop.obj
 0001:00035320       __scrt_initialize_winrt    0000000180036320 f   LIBCMTD:utility_desktop.obj
 0001:00035330       __scrt_is_managed_app      0000000180036330 f   LIBCMTD:utility_desktop.obj
 0001:000353e0       __scrt_set_unhandled_exception_filter 00000001800363e0 f   LIBCMTD:utility_desktop.obj
 0001:00035400       __scrt_stub_for_initialize_mta 0000000180036400 f   LIBCMTD:utility_desktop.obj
 0001:00035400       __scrt_exe_initialize_mta  0000000180036400 f   LIBCMTD:utility_desktop.obj
 0001:00035410       __scrt_unhandled_exception_filter 0000000180036410 f   LIBCMTD:utility_desktop.obj
 0001:000354b0       _guard_check_icall_nop     00000001800364b0 f i LIBCMTD:guard_support.obj
 0001:000354c0       ReadNoFence64              00000001800364c0 f i LIBCMTD:guard_support.obj
 0001:000354e0       ReadPointerNoFence         00000001800364e0 f i LIBCMTD:guard_support.obj
 0001:00035500       _guard_icall_checks_enforced 0000000180036500 f i LIBCMTD:guard_support.obj
 0001:00035540       _guard_rf_checks_enforced  0000000180036540 f i LIBCMTD:guard_support.obj
 0001:00035610       __security_init_cookie     0000000180036610 f   LIBCMTD:gs_support.obj
 0001:00035690       ?__scrt_initialize_type_info@@YAXXZ 0000000180036690 f   LIBCMTD:tncleanup.obj
 0001:000356b0       ?__scrt_uninitialize_type_info@@YAXXZ 00000001800366b0 f   LIBCMTD:tncleanup.obj
 0001:000356d0       __local_stdio_scanf_options 00000001800366d0 f i LIBCMTD:default_local_stdio_options.obj
 0001:000356e0       __scrt_initialize_default_local_stdio_options 00000001800366e0 f   LIBCMTD:default_local_stdio_options.obj
 0001:00035730       __scrt_get_dyn_tls_init_callback 0000000180036730 f   LIBCMTD:dyn_tls_init.obj
 0001:00035740       _RTC_Initialize            0000000180036740 f   LIBCMTD:initsect.obj
 0001:00035790       _RTC_Terminate             0000000180036790 f   LIBCMTD:initsect.obj
 0001:00035cf0       ?_RTC_GetSrcLine@@YAHPEAEPEA_WKPEAH1K@Z 0000000180036cf0 f   LIBCMTD:pdblkup.obj
 0001:000360c0       ??0bad_alloc@std@@AEAA@QEBD@Z 00000001800370c0 f i LIBCMTD:throw_bad_alloc.obj
 0001:00036100       ??0bad_alloc@std@@QEAA@AEBV01@@Z 0000000180037100 f i LIBCMTD:throw_bad_alloc.obj
 0001:00036140       ??0bad_alloc@std@@QEAA@XZ  0000000180037140 f i LIBCMTD:throw_bad_alloc.obj
 0001:00036180       ??0bad_array_new_length@std@@QEAA@AEBV01@@Z 0000000180037180 f i LIBCMTD:throw_bad_alloc.obj
 0001:000361c0       ??0bad_array_new_length@std@@QEAA@XZ 00000001800371c0 f i LIBCMTD:throw_bad_alloc.obj
 0001:00036200       ??0exception@std@@QEAA@AEBV01@@Z 0000000180037200 f i LIBCMTD:throw_bad_alloc.obj
 0001:00036260       ??0exception@std@@QEAA@QEBDH@Z 0000000180037260 f i LIBCMTD:throw_bad_alloc.obj
 0001:000362b0       ??1bad_alloc@std@@UEAA@XZ  00000001800372b0 f i LIBCMTD:throw_bad_alloc.obj
 0001:000362d0       ??1bad_array_new_length@std@@UEAA@XZ 00000001800372d0 f i LIBCMTD:throw_bad_alloc.obj
 0001:000362f0       ??1exception@std@@UEAA@XZ  00000001800372f0 f i LIBCMTD:throw_bad_alloc.obj
 0001:00036320       ??_Ebad_alloc@std@@UEAAPEAXI@Z 0000000180037320 f i LIBCMTD:throw_bad_alloc.obj
 0001:00036320       ??_Gbad_alloc@std@@UEAAPEAXI@Z 0000000180037320 f i LIBCMTD:throw_bad_alloc.obj
 0001:00036360       ??_Gbad_array_new_length@std@@UEAAPEAXI@Z 0000000180037360 f i LIBCMTD:throw_bad_alloc.obj
 0001:00036360       ??_Ebad_array_new_length@std@@UEAAPEAXI@Z 0000000180037360 f i LIBCMTD:throw_bad_alloc.obj
 0001:000363a0       ??_Eexception@std@@UEAAPEAXI@Z 00000001800373a0 f i LIBCMTD:throw_bad_alloc.obj
 0001:000363a0       ??_Gexception@std@@UEAAPEAXI@Z 00000001800373a0 f i LIBCMTD:throw_bad_alloc.obj
 0001:000363e0       ?__scrt_throw_std_bad_alloc@@YAXXZ 00000001800373e0 f   LIBCMTD:throw_bad_alloc.obj
 0001:00036410       ?__scrt_throw_std_bad_array_new_length@@YAXXZ 0000000180037410 f   LIBCMTD:throw_bad_alloc.obj
 0001:00036440       ?what@exception@std@@UEBAPEBDXZ 0000000180037440 f i LIBCMTD:throw_bad_alloc.obj
 0001:00036480       ??1type_info@@UEAA@XZ      0000000180037480 f   LIBCMTD:std_type_info_static.obj
 0001:000364a0       ??_Etype_info@@UEAAPEAXI@Z 00000001800374a0 f i LIBCMTD:std_type_info_static.obj
 0001:000364a0       ??_Gtype_info@@UEAAPEAXI@Z 00000001800374a0 f i LIBCMTD:std_type_info_static.obj
 0001:000364dc       ??$?2PEAUHINSTANCE__@@@Wrapper@?$CSimpleArray@PEAUHINSTANCE__@@V?$CSimpleArrayEqualHelper@PEAUHINSTANCE__@@@ATL@@@ATL@@SAPEAX_KPEAPEAUHINSTANCE__@@@Z 00000001800374dc f i atls:atlbase.obj
 0001:000364e0       ??0?$CSimpleArray@PEAUHINSTANCE__@@V?$CSimpleArrayEqualHelper@PEAUHINSTANCE__@@@ATL@@@ATL@@QEAA@XZ 00000001800374e0 f i atls:atlbase.obj
 0001:000364f0       ??0CAtlBaseModule@ATL@@QEAA@XZ 00000001800374f0 f   atls:atlbase.obj
 0001:00036598       ??0Wrapper@?$CSimpleArray@PEAUHINSTANCE__@@V?$CSimpleArrayEqualHelper@PEAUHINSTANCE__@@@ATL@@@ATL@@QEAA@AEBQEAUHINSTANCE__@@@Z 0000000180037598 f i atls:atlbase.obj
 0001:000365a4       ??0_ATL_BASE_MODULE70@ATL@@QEAA@XZ 00000001800375a4 f i atls:atlbase.obj
 0001:000365d0       ??1?$CSimpleArray@PEAUHINSTANCE__@@V?$CSimpleArrayEqualHelper@PEAUHINSTANCE__@@@ATL@@@ATL@@QEAA@XZ 00000001800375d0 f i atls:atlbase.obj
 0001:000365f8       ??1CAtlBaseModule@ATL@@QEAA@XZ 00000001800375f8 f   atls:atlbase.obj
 0001:0003662c       ??1_ATL_BASE_MODULE70@ATL@@QEAA@XZ 000000018003762c f i atls:atlbase.obj
 0001:00036658       ??A?$CSimpleArray@PEAUHINSTANCE__@@V?$CSimpleArrayEqualHelper@PEAUHINSTANCE__@@@ATL@@@ATL@@QEAAAEAPEAUHINSTANCE__@@H@Z 0000000180037658 f i atls:atlbase.obj
 0001:00036684       ?Add@?$CSimpleArray@PEAUHINSTANCE__@@V?$CSimpleArrayEqualHelper@PEAUHINSTANCE__@@@ATL@@@ATL@@QEAAHAEBQEAUHINSTANCE__@@@Z 0000000180037684 f i atls:atlbase.obj
 0001:00036738       ?AddResourceInstance@CAtlBaseModule@ATL@@QEAA_NPEAUHINSTANCE__@@@Z 0000000180037738 f   atls:atlbase.obj
 0001:00036780       ?GetHInstanceAt@CAtlBaseModule@ATL@@QEAAPEAUHINSTANCE__@@H@Z 0000000180037780 f   atls:atlbase.obj
 0001:000367f8       ?GetSize@?$CSimpleArray@PEAUHINSTANCE__@@V?$CSimpleArrayEqualHelper@PEAUHINSTANCE__@@@ATL@@@ATL@@QEBAHXZ 00000001800377f8 f i atls:atlbase.obj
 0001:000367fc       ?InternalSetAtIndex@?$CSimpleArray@PEAUHINSTANCE__@@V?$CSimpleArrayEqualHelper@PEAUHINSTANCE__@@@ATL@@@ATL@@QEAAXHAEBQEAUHINSTANCE__@@@Z 00000001800377fc f i atls:atlbase.obj
 0001:00036814       ?RemoveAll@?$CSimpleArray@PEAUHINSTANCE__@@V?$CSimpleArrayEqualHelper@PEAUHINSTANCE__@@@ATL@@@ATL@@QEAAXXZ 0000000180037814 f i atls:atlbase.obj
 0001:0003683c       ?RemoveAt@?$CSimpleArray@PEAUHINSTANCE__@@V?$CSimpleArrayEqualHelper@PEAUHINSTANCE__@@@ATL@@@ATL@@QEAAHH@Z 000000018003783c f i atls:atlbase.obj
 0001:000368e0       ?RemoveResourceInstance@CAtlBaseModule@ATL@@QEAA_NPEAUHINSTANCE__@@@Z 00000001800378e0 f   atls:atlbase.obj
 0001:00036960       ?memmove_s@Checked@ATL@@YAXPEAX_KPEBX1@Z 0000000180037960 f i atls:atlbase.obj
 0001:00036e08       ?GetCodeAddress@_stdcallthunk@ATL@@QEAAPEAXXZ 0000000180037e08 f i atls:atlthunk.obj
 0001:00036e34       ?Init@_stdcallthunk@ATL@@QEAAH_KPEAX@Z 0000000180037e34 f i atls:atlthunk.obj
 0001:00036e84       ?__AllocStdCallThunk@@YAPEAXXZ 0000000180037e84 f   atls:atlthunk.obj
 0001:00036e8c       ?__AllocStdCallThunk@ATL@@YAPEAXXZ 0000000180037e8c f   atls:atlthunk.obj
 0001:00036e94       ?__AllocStdCallThunk_cmn@@YAPEAXXZ 0000000180037e94 f   atls:atlthunk.obj
 0001:00036f6c       ?__FreeStdCallThunk@@YAXPEAX@Z 0000000180037f6c f   atls:atlthunk.obj
 0001:00036f8c       ?__FreeStdCallThunk@ATL@@YAXPEAX@Z 0000000180037f8c f   atls:atlthunk.obj
 0001:00036fac       ?__FreeStdCallThunk_cmn@@YAXPEAX@Z 0000000180037fac f   atls:atlthunk.obj
 0001:0003704c       AtlThunk_AllocateData      000000018003804c f   atls:atlthunk.obj
 0001:000370c8       AtlThunk_DataToCode        00000001800380c8 f   atls:atlthunk.obj
 0001:0003711c       AtlThunk_FreeData          000000018003811c f   atls:atlthunk.obj
 0001:0003717c       AtlThunk_InitData          000000018003817c f   atls:atlthunk.obj
 0001:00037240       memset_repmovs             0000000180038240 f   libvcruntimed:memset.obj
 0001:00037260       memset                     0000000180038260 f   libvcruntimed:memset.obj
 0001:000373f0       ??$__crt_interlocked_exchange_pointer@$$A6AXXZP6AXXZ@@YAP6AXXZPEDS6AXXZQ6AXXZ@Z 00000001800383f0 f i libvcruntimed:purevirt.obj
 0001:00037410       ??$__crt_interlocked_read_pointer@$$A6AXXZ@@YAP6AXXZPEDS6AXXZ@Z 0000000180038410 f i libvcruntimed:purevirt.obj
 0001:00037430       ?__crt_interlocked_read_64@@YA_JPED_J@Z 0000000180038430 f i libvcruntimed:purevirt.obj
 0001:00037450       _get_purecall_handler      0000000180038450 f   libvcruntimed:purevirt.obj
 0001:00037470       _purecall                  0000000180038470 f   libvcruntimed:purevirt.obj
 0001:000374b0       _set_purecall_handler      00000001800384b0 f   libvcruntimed:purevirt.obj
 0001:000374e0       memcmp                     00000001800384e0 f   libvcruntimed:memcmp.obj
 0001:000375c0       memcpy_repmovs             00000001800385c0 f   libvcruntimed:memcpy.obj
 0001:000375e0       memcpy                     00000001800385e0 f   libvcruntimed:memcpy.obj
 0001:000375e0       memmove                    00000001800385e0 f   libvcruntimed:memcpy.obj
 0001:000379c0       wcsstr                     00000001800389c0 f   libvcruntimed:wcsstr.obj
 0001:00038020       __vcrt_initialize          0000000180039020 f   libvcruntimed:initialization.obj
 0001:00038060       __vcrt_thread_attach       0000000180039060 f   libvcruntimed:initialization.obj
 0001:00038080       __vcrt_thread_detach       0000000180039080 f   libvcruntimed:initialization.obj
 0001:000380a0       __vcrt_uninitialize        00000001800390a0 f   libvcruntimed:initialization.obj
 0001:000380c0       __vcrt_uninitialize_critical 00000001800390c0 f   libvcruntimed:initialization.obj
 0001:000380e0       __C_specific_handler       00000001800390e0 f   libvcruntimed:riscchandler.obj
 0001:00038550       ??$?0AEAViterator@TryBlockMap4@FH4@@AEAV012@$0A@@?$pair@Viterator@TryBlockMap4@FH4@@V123@@std@@QEAA@AEAViterator@TryBlockMap4@FH4@@0@Z 0000000180039550 f i libvcruntimed:risctrnsctrl.obj
 0001:000385b0       ??$?0AEAViterator@TryBlockMap@__FrameHandler3@@AEAV012@$0A@@?$pair@Viterator@TryBlockMap@__FrameHandler3@@V123@@std@@QEAA@AEAViterator@TryBlockMap@__FrameHandler3@@0@Z 00000001800395b0 f i libvcruntimed:risctrnsctrl.obj
 0001:00038770       ??$_CallSETranslator@V__FrameHandler3@@@@YAHPEAUEHExceptionRecord@@PEA_KPEAU_CONTEXT@@PEAU_xDISPATCHER_CONTEXT@@PEBU_s_FuncInfo@@K1@Z 0000000180039770 f i libvcruntimed:risctrnsctrl.obj
 0001:00038800       ??$_CallSETranslator@V__FrameHandler4@@@@YAHPEAUEHExceptionRecord@@PEA_KPEAU_CONTEXT@@PEAU_xDISPATCHER_CONTEXT@@PEAUFuncInfo4@FH4@@K1@Z 0000000180039800 f i libvcruntimed:risctrnsctrl.obj
 0001:00038890       ??$forward@AEAViterator@TryBlockMap4@FH4@@@std@@YAAEAViterator@TryBlockMap4@FH4@@AEAV123@@Z 0000000180039890 f i libvcruntimed:risctrnsctrl.obj
 0001:000388a0       ??$forward@AEAViterator@TryBlockMap@__FrameHandler3@@@std@@YAAEAViterator@TryBlockMap@__FrameHandler3@@AEAV123@@Z 00000001800398a0 f i libvcruntimed:risctrnsctrl.obj
 0001:000388b0       ??0FuncInfo4@FH4@@QEAA@XZ  00000001800398b0 f i libvcruntimed:risctrnsctrl.obj
 0001:00038920       ??0FuncInfoHeader@FH4@@QEAA@XZ 0000000180039920 f i libvcruntimed:risctrnsctrl.obj
 0001:00038940       ??0iterator@TryBlockMap4@FH4@@QEAA@AEAV12@I@Z 0000000180039940 f i libvcruntimed:risctrnsctrl.obj
 0001:00038970       ??0iterator@TryBlockMap@__FrameHandler3@@QEAA@AEAV12@I@Z 0000000180039970 f i libvcruntimed:risctrnsctrl.obj
 0001:000389a0       ??4iterator@TryBlockMap4@FH4@@QEAAAEAV012@AEBV012@@Z 00000001800399a0 f i libvcruntimed:risctrnsctrl.obj
 0001:000389c0       ??9iterator@TryBlockMap4@FH4@@QEBA_NAEBV012@@Z 00000001800399c0 f i libvcruntimed:risctrnsctrl.obj
 0001:00038a00       ??Diterator@TryBlockMap4@FH4@@QEAA?AUTryBlockMapEntry4@2@XZ 0000000180039a00 f i libvcruntimed:risctrnsctrl.obj
 0001:00038a30       ??Eiterator@TryBlockMap4@FH4@@QEAAAEAV012@XZ 0000000180039a30 f i libvcruntimed:risctrnsctrl.obj
 0001:00038a70       ?CatchTryBlock@__FrameHandler3@@SAPEBU_s_TryBlockMapEntry@@PEBU_s_FuncInfo@@H@Z 0000000180039a70 f   libvcruntimed:risctrnsctrl.obj
 0001:00038b00       ?DecompFuncInfo@FH4@@YA_JPEAEAEAUFuncInfo4@1@_KH@Z 0000000180039b00 f i libvcruntimed:risctrnsctrl.obj
 0001:00038b40       ?DecompFuncInfo@FH4@@YA_JPEAEAEAUFuncInfo4@1@_KH_N@Z 0000000180039b40 f i libvcruntimed:risctrnsctrl.obj
 0001:00038d10       ?DecompTryBlock@TryBlockMap4@FH4@@AEAAXXZ 0000000180039d10 f i libvcruntimed:risctrnsctrl.obj
 0001:00038d90       ?ExecutionInCatch@__FrameHandler3@@SA_NPEAU_xDISPATCHER_CONTEXT@@PEBU_s_FuncInfo@@@Z 0000000180039d90 f   libvcruntimed:risctrnsctrl.obj
 0001:00038de0       ?ExecutionInCatch@__FrameHandler4@@SA_NPEAU_xDISPATCHER_CONTEXT@@PEAUFuncInfo4@FH4@@@Z 0000000180039de0 f   libvcruntimed:risctrnsctrl.obj
 0001:00038e00       ?FrameUnwindToEmptyState@__FrameHandler3@@SAXPEA_KPEAU_xDISPATCHER_CONTEXT@@PEBU_s_FuncInfo@@@Z 0000000180039e00 f   libvcruntimed:risctrnsctrl.obj
 0001:00038ea0       ?FrameUnwindToEmptyState@__FrameHandler4@@SAXPEA_KPEAU_xDISPATCHER_CONTEXT@@PEAUFuncInfo4@FH4@@@Z 0000000180039ea0 f   libvcruntimed:risctrnsctrl.obj
 0001:00038ef0       ?GetEstablisherFrame@__FrameHandler3@@SAPEA_KPEA_KPEAU_xDISPATCHER_CONTEXT@@PEBU_s_FuncInfo@@0@Z 0000000180039ef0 f   libvcruntimed:risctrnsctrl.obj
 0001:00039060       ?GetEstablisherFrame@__FrameHandler4@@SAPEA_KPEA_KPEAU_xDISPATCHER_CONTEXT@@PEAUFuncInfo4@FH4@@0@Z 000000018003a060 f   libvcruntimed:risctrnsctrl.obj
 0001:000390d0       ?GetRangeOfTrysToCheck@__FrameHandler3@@SA?AU?$pair@Viterator@TryBlockMap@__FrameHandler3@@V123@@std@@AEAVTryBlockMap@1@HPEAU_xDISPATCHER_CONTEXT@@PEBU_s_FuncInfo@@H@Z 000000018003a0d0 f   libvcruntimed:risctrnsctrl.obj
 0001:00039310       ?GetRangeOfTrysToCheck@__FrameHandler4@@SA?AU?$pair@Viterator@TryBlockMap4@FH4@@V123@@std@@AEAVTryBlockMap4@FH4@@HPEAU_xDISPATCHER_CONTEXT@@PEAUFuncInfo4@5@H@Z 000000018003a310 f   libvcruntimed:risctrnsctrl.obj
 0001:000394c0       ?ReadInt@FH4@@YAHPEAPEAE@Z 000000018003a4c0 f i libvcruntimed:risctrnsctrl.obj
 0001:00039500       ?ReadUnsigned@FH4@@YAIPEAPEAE@Z 000000018003a500 f i libvcruntimed:risctrnsctrl.obj
 0001:00039590       ?UnwindNestedFrames@__FrameHandler3@@SAXPEA_KPEAUEHExceptionRecord@@PEAU_CONTEXT@@0PEAXPEBU_s_FuncInfo@@HHPEBU_s_HandlerType@@PEAU_xDISPATCHER_CONTEXT@@E@Z 000000018003a590 f   libvcruntimed:risctrnsctrl.obj
 0001:00039700       ?UnwindNestedFrames@__FrameHandler4@@SAXPEA_KPEAUEHExceptionRecord@@PEAU_CONTEXT@@0PEAXPEAUFuncInfo4@FH4@@HHPEAUHandlerType4@5@PEAU_xDISPATCHER_CONTEXT@@E@Z 000000018003a700 f   libvcruntimed:risctrnsctrl.obj
 0001:000398d0       ?begin@TryBlockMap4@FH4@@QEAA?AViterator@12@XZ 000000018003a8d0 f i libvcruntimed:risctrnsctrl.obj
 0001:00039900       ?end@TryBlockMap4@FH4@@QEAA?AViterator@12@XZ 000000018003a900 f i libvcruntimed:risctrnsctrl.obj
 0001:00039930       ?imageRelToByteBuffer@FH4@@YAPEAE_KH@Z 000000018003a930 f i libvcruntimed:risctrnsctrl.obj
 0001:00039950       ?incrementToSentinel@iterator@TryBlockMap4@FH4@@QEAAXXZ 000000018003a950 f i libvcruntimed:risctrnsctrl.obj
 0001:00039970       ?setBuffer@TryBlockMap4@FH4@@QEAAXViterator@12@@Z 000000018003a970 f i libvcruntimed:risctrnsctrl.obj
 0001:000399e0       _CreateFrameInfo           000000018003a9e0 f   libvcruntimed:risctrnsctrl.obj
 0001:00039a50       _FindAndUnlinkFrame        000000018003aa50 f   libvcruntimed:risctrnsctrl.obj
 0001:00039ad0       _GetImageBase              000000018003aad0 f   libvcruntimed:risctrnsctrl.obj
 0001:00039af0       _GetThrowImageBase         000000018003aaf0 f   libvcruntimed:risctrnsctrl.obj
 0001:00039b10       _SetImageBase              000000018003ab10 f   libvcruntimed:risctrnsctrl.obj
 0001:00039b30       _SetThrowImageBase         000000018003ab30 f   libvcruntimed:risctrnsctrl.obj
 0001:00039b50       __CxxFrameHandler          000000018003ab50 f   libvcruntimed:risctrnsctrl.obj
 0001:00039b90       __CxxFrameHandler2         000000018003ab90 f   libvcruntimed:risctrnsctrl.obj
 0001:00039bd0       __CxxFrameHandler3         000000018003abd0 f   libvcruntimed:risctrnsctrl.obj
 0001:00039cb0       __CxxFrameHandler4         000000018003acb0 f   libvcruntimed:risctrnsctrl.obj
 0001:00039dc0       __C_specific_handler_noexcept 000000018003adc0 f   libvcruntimed:chandler_noexcept.obj
 0001:00039e50       __DestructExceptionObject  000000018003ae50 f   libvcruntimed:ehhelpers.obj
 0001:00039f50       ?_CallMemberFunction0@@YAXQEAX0@Z 000000018003af50 f i libvcruntimed:ehhelpers.obj
 0001:0003a020       ?raw_name@type_info@@QEBAPEBDXZ 000000018003b020 f i libvcruntimed:ehhelpers.obj
 0001:0003a030       _IsExceptionObjectToBeDestroyed 000000018003b030 f   libvcruntimed:ehhelpers.obj
 0001:0003a080       _SetWinRTOutOfMemoryExceptionCallback 000000018003b080 f   libvcruntimed:ehhelpers.obj
 0001:0003a0a0       __AdjustPointer            000000018003b0a0 f   libvcruntimed:ehhelpers.obj
 0001:0003a120       __FrameUnwindFilter        000000018003b120 f   libvcruntimed:ehhelpers.obj
 0001:0003a1d0       __GetPlatformExceptionInfo 000000018003b1d0 f   libvcruntimed:ehhelpers.obj
 0001:0003a280       __current_exception        000000018003b280 f   libvcruntimed:ehhelpers.obj
 0001:0003a2a0       __current_exception_context 000000018003b2a0 f   libvcruntimed:ehhelpers.obj
 0001:0003a2c0       __processing_throw         000000018003b2c0 f   libvcruntimed:ehhelpers.obj
 0001:0003a2e0       __std_terminate            000000018003b2e0 f   libvcruntimed:ehhelpers.obj
 0001:0003a2f0       _is_exception_typeof       000000018003b2f0 f   libvcruntimed:ehhelpers.obj
 0001:0003a480       ??$?RD@__crt_internal_free_policy@@QEBAXQEBD@Z 000000018003b480 f i libvcruntimed:std_type_info.obj
 0001:0003a4b0       ??$?RX@__crt_internal_free_policy@@QEBAXQEBX@Z 000000018003b4b0 f i libvcruntimed:std_type_info.obj
 0001:0003a4e0       ??$__crt_interlocked_compare_exchange_pointer@$$CBDPEAD$$T@@YAPEBDPEDSEBDQEAD$$T@Z 000000018003b4e0 f i libvcruntimed:std_type_info.obj
 0001:0003a520       ??$__crt_interlocked_read_pointer@$$CBD@@YAPEBDPEDSEBD@Z 000000018003b520 f i libvcruntimed:std_type_info.obj
 0001:0003a540       ??0?$__crt_unique_heap_ptr@DU__crt_internal_free_policy@@@@QEAA@QEAD@Z 000000018003b540 f i libvcruntimed:std_type_info.obj
 0001:0003a560       ??0?$__crt_unique_heap_ptr@XU__crt_internal_free_policy@@@@QEAA@QEAX@Z 000000018003b560 f i libvcruntimed:std_type_info.obj
 0001:0003a580       ??1?$__crt_unique_heap_ptr@DU__crt_internal_free_policy@@@@QEAA@XZ 000000018003b580 f i libvcruntimed:std_type_info.obj
 0001:0003a5a0       ??1?$__crt_unique_heap_ptr@XU__crt_internal_free_policy@@@@QEAA@XZ 000000018003b5a0 f i libvcruntimed:std_type_info.obj
 0001:0003a5c0       ??B?$__crt_unique_heap_ptr@DU__crt_internal_free_policy@@@@QEBA_NXZ 000000018003b5c0 f i libvcruntimed:std_type_info.obj
 0001:0003a5e0       ??B?$__crt_unique_heap_ptr@XU__crt_internal_free_policy@@@@QEBA_NXZ 000000018003b5e0 f i libvcruntimed:std_type_info.obj
 0001:0003a680       ?detach@?$__crt_unique_heap_ptr@XU__crt_internal_free_policy@@@@QEAAPEAXXZ 000000018003b680 f i libvcruntimed:std_type_info.obj
 0001:0003a6b0       ?get@?$__crt_unique_heap_ptr@DU__crt_internal_free_policy@@@@QEBAPEADXZ 000000018003b6b0 f i libvcruntimed:std_type_info.obj
 0001:0003a6c0       ?get@?$__crt_unique_heap_ptr@XU__crt_internal_free_policy@@@@QEBAPEAXXZ 000000018003b6c0 f i libvcruntimed:std_type_info.obj
 0001:0003a6d0       ?is_valid@?$__crt_unique_heap_ptr@DU__crt_internal_free_policy@@@@QEBA_NXZ 000000018003b6d0 f i libvcruntimed:std_type_info.obj
 0001:0003a700       ?is_valid@?$__crt_unique_heap_ptr@XU__crt_internal_free_policy@@@@QEBA_NXZ 000000018003b700 f i libvcruntimed:std_type_info.obj
 0001:0003a730       ?release@?$__crt_unique_heap_ptr@DU__crt_internal_free_policy@@@@QEAAXXZ 000000018003b730 f i libvcruntimed:std_type_info.obj
 0001:0003a760       ?release@?$__crt_unique_heap_ptr@XU__crt_internal_free_policy@@@@QEAAXXZ 000000018003b760 f i libvcruntimed:std_type_info.obj
 0001:0003a790       __std_type_info_compare    000000018003b790 f   libvcruntimed:std_type_info.obj
 0001:0003a7d0       __std_type_info_destroy_list 000000018003b7d0 f   libvcruntimed:std_type_info.obj
 0001:0003a830       __std_type_info_hash       000000018003b830 f   libvcruntimed:std_type_info.obj
 0001:0003a8e0       __std_type_info_name       000000018003b8e0 f   libvcruntimed:std_type_info.obj
 0001:0003ab90       __vcrt_GetModuleFileNameW  000000018003bb90 f   libvcruntimed:winapi_thunks.obj
 0001:0003abc0       __vcrt_GetModuleHandleW    000000018003bbc0 f   libvcruntimed:winapi_thunks.obj
 0001:0003abe0       __vcrt_LoadLibraryExW      000000018003bbe0 f   libvcruntimed:winapi_thunks.obj
 0001:0003ac10       ??$?RD@__crt_public_free_policy@@QEBAXQEBD@Z 000000018003bc10 f i libvcruntimed:std_exception.obj
 0001:0003ac30       ??0?$__crt_unique_heap_ptr@DU__crt_public_free_policy@@@@QEAA@QEAD@Z 000000018003bc30 f i libvcruntimed:std_exception.obj
 0001:0003ac50       ??1?$__crt_unique_heap_ptr@DU__crt_public_free_policy@@@@QEAA@XZ 000000018003bc50 f i libvcruntimed:std_exception.obj
 0001:0003ac70       ??B?$__crt_unique_heap_ptr@DU__crt_public_free_policy@@@@QEBA_NXZ 000000018003bc70 f i libvcruntimed:std_exception.obj
 0001:0003ac90       ?detach@?$__crt_unique_heap_ptr@DU__crt_public_free_policy@@@@QEAAPEADXZ 000000018003bc90 f i libvcruntimed:std_exception.obj
 0001:0003acc0       ?get@?$__crt_unique_heap_ptr@DU__crt_public_free_policy@@@@QEBAPEADXZ 000000018003bcc0 f i libvcruntimed:std_exception.obj
 0001:0003acd0       ?is_valid@?$__crt_unique_heap_ptr@DU__crt_public_free_policy@@@@QEBA_NXZ 000000018003bcd0 f i libvcruntimed:std_exception.obj
 0001:0003ad00       ?release@?$__crt_unique_heap_ptr@DU__crt_public_free_policy@@@@QEAAXXZ 000000018003bd00 f i libvcruntimed:std_exception.obj
 0001:0003ad30       __std_exception_copy       000000018003bd30 f   libvcruntimed:std_exception.obj
 0001:0003ae70       __std_exception_destroy    000000018003be70 f   libvcruntimed:std_exception.obj
 0001:0003aeb0       _CxxThrowException         000000018003beb0 f   libvcruntimed:throw.obj
 0001:0003afe0       ??$?RU__vcrt_ptd@@@__crt_internal_free_policy@@QEBAXQEBU__vcrt_ptd@@@Z 000000018003bfe0 f i libvcruntimed:per_thread_data.obj
 0001:0003b010       ??0?$__crt_unique_heap_ptr@U__vcrt_ptd@@U__crt_internal_free_policy@@@@QEAA@QEAU__vcrt_ptd@@@Z 000000018003c010 f i libvcruntimed:per_thread_data.obj
 0001:0003b050       ??1?$__crt_unique_heap_ptr@U__vcrt_ptd@@U__crt_internal_free_policy@@@@QEAA@XZ 000000018003c050 f i libvcruntimed:per_thread_data.obj
 0001:0003b090       ??B?$__crt_unique_heap_ptr@U__vcrt_ptd@@U__crt_internal_free_policy@@@@QEBA_NXZ 000000018003c090 f i libvcruntimed:per_thread_data.obj
 0001:0003b0b0       ?detach@?$__crt_unique_heap_ptr@U__vcrt_ptd@@U__crt_internal_free_policy@@@@QEAAPEAU__vcrt_ptd@@XZ 000000018003c0b0 f i libvcruntimed:per_thread_data.obj
 0001:0003b0e0       ?get@?$__crt_unique_heap_ptr@U__vcrt_ptd@@U__crt_internal_free_policy@@@@QEBAPEAU__vcrt_ptd@@XZ 000000018003c0e0 f i libvcruntimed:per_thread_data.obj
 0001:0003b0f0       ?is_valid@?$__crt_unique_heap_ptr@U__vcrt_ptd@@U__crt_internal_free_policy@@@@QEBA_NXZ 000000018003c0f0 f i libvcruntimed:per_thread_data.obj
 0001:0003b120       ?release@?$__crt_unique_heap_ptr@U__vcrt_ptd@@U__crt_internal_free_policy@@@@QEAAXXZ 000000018003c120 f i libvcruntimed:per_thread_data.obj
 0001:0003b190       __vcrt_freefls             000000018003c190 f   libvcruntimed:per_thread_data.obj
 0001:0003b1d0       __vcrt_freeptd             000000018003c1d0 f   libvcruntimed:per_thread_data.obj
 0001:0003b230       __vcrt_getptd              000000018003c230 f   libvcruntimed:per_thread_data.obj
 0001:0003b260       __vcrt_getptd_noexit       000000018003c260 f   libvcruntimed:per_thread_data.obj
 0001:0003b400       __vcrt_getptd_noinit       000000018003c400 f   libvcruntimed:per_thread_data.obj
 0001:0003b460       __vcrt_initialize_ptd      000000018003c460 f   libvcruntimed:per_thread_data.obj
 0001:0003b4b0       __vcrt_uninitialize_ptd    000000018003c4b0 f   libvcruntimed:per_thread_data.obj
 0001:0003b4e0       __vcrt_initialize_locks    000000018003c4e0 f   libvcruntimed:locks.obj
 0001:0003b550       __vcrt_lock                000000018003c550 f   libvcruntimed:locks.obj
 0001:0003b580       __vcrt_uninitialize_locks  000000018003c580 f   libvcruntimed:locks.obj
 0001:0003b5e0       __vcrt_unlock              000000018003c5e0 f   libvcruntimed:locks.obj
 0001:0003b620       _NLG_Notify                000000018003c620 f   libvcruntimed:notify.obj
 0001:0003b640       __NLG_Dispatch2            000000018003c640 f   libvcruntimed:notify.obj
 0001:0003b650       __NLG_Return2              000000018003c650 f   libvcruntimed:notify.obj
 0001:0003b670       __except_validate_context_record 000000018003c670 f   libvcruntimed:jbcxrval.obj
 0001:0003b6d0       __except_validate_jump_buffer 000000018003c6d0 f   libvcruntimed:jbcxrval.obj
 0001:0003b6f0       __except_validate_jump_buffer_common 000000018003c6f0 f i libvcruntimed:jbcxrval.obj
 0001:0003b770       ?GetCurrentState@__FrameHandler3@@SAHPEA_KPEAU_xDISPATCHER_CONTEXT@@PEBU_s_FuncInfo@@@Z 000000018003c770 f   libvcruntimed:ehstate.obj
 0001:0003b7d0       ?GetUnwindTryBlock@__FrameHandler3@@SAHPEA_KPEAU_xDISPATCHER_CONTEXT@@PEBU_s_FuncInfo@@@Z 000000018003c7d0 f   libvcruntimed:ehstate.obj
 0001:0003b820       ?SetState@__FrameHandler3@@SAXPEA_KPEBU_s_FuncInfo@@H@Z 000000018003c820 f   libvcruntimed:ehstate.obj
 0001:0003b850       ?SetUnwindTryBlock@__FrameHandler3@@SAXPEA_KPEAU_xDISPATCHER_CONTEXT@@PEBU_s_FuncInfo@@H@Z 000000018003c850 f   libvcruntimed:ehstate.obj
 0001:0003b8c0       ?StateFromControlPc@__FrameHandler3@@SAHPEBU_s_FuncInfo@@PEAU_xDISPATCHER_CONTEXT@@@Z 000000018003c8c0 f   libvcruntimed:ehstate.obj
 0001:0003b900       ?StateFromControlPc@__FrameHandler4@@SAHPEAUFuncInfo4@FH4@@PEAU_xDISPATCHER_CONTEXT@@@Z 000000018003c900 f   libvcruntimed:ehstate.obj
 0001:0003b940       ?StateFromIp@__FrameHandler3@@SAHPEBU_s_FuncInfo@@PEAU_xDISPATCHER_CONTEXT@@_K@Z 000000018003c940 f   libvcruntimed:ehstate.obj
 0001:0003ba30       ?StateFromIp@__FrameHandler4@@SAHPEAUFuncInfo4@FH4@@PEAU_xDISPATCHER_CONTEXT@@_K@Z 000000018003ca30 f   libvcruntimed:ehstate.obj
 0001:0003bb20       ?__FuncRelToRealOffset@@YA_KPEAU_xDISPATCHER_CONTEXT@@I@Z 000000018003cb20 f i libvcruntimed:ehstate.obj
 0001:0003bb50       ?__RVAtoRealOffset@@YA_KPEAU_xDISPATCHER_CONTEXT@@H@Z 000000018003cb50 f i libvcruntimed:ehstate.obj
 0001:0003ddc0       ??$TypeMatchHelper@V__FrameHandler3@@@@YAHPEBU_s_HandlerType@@PEBU_s_CatchableType@@PEBU_s_ThrowInfo@@@Z 000000018003edc0 f i libvcruntimed:frame.obj
 0001:0003dfc0       ??$TypeMatchHelper@V__FrameHandler4@@@@YAHPEAUHandlerType4@FH4@@PEBU_s_CatchableType@@PEBU_s_ThrowInfo@@@Z 000000018003efc0 f i libvcruntimed:frame.obj
 0001:0003e1d0       ??$__InternalCxxFrameHandler@V__FrameHandler3@@@@YA?AW4_EXCEPTION_DISPOSITION@@PEAUEHExceptionRecord@@PEA_KPEAU_CONTEXT@@PEAU_xDISPATCHER_CONTEXT@@PEBU_s_FuncInfo@@H1E@Z 000000018003f1d0 f i libvcruntimed:frame.obj
 0001:0003e640       ??$__InternalCxxFrameHandler@V__FrameHandler4@@@@YA?AW4_EXCEPTION_DISPOSITION@@PEAUEHExceptionRecord@@PEA_KPEAU_CONTEXT@@PEAU_xDISPATCHER_CONTEXT@@PEAUFuncInfo4@FH4@@H1E@Z 000000018003f640 f i libvcruntimed:frame.obj
 0001:0003ead0       ??0HandlerMap4@FH4@@QEAA@PEBUTryBlockMapEntry4@1@_KH@Z 000000018003fad0 f i libvcruntimed:frame.obj
 0001:0003eb90       ??0HandlerMap@__FrameHandler3@@QEAA@PEBU_s_TryBlockMapEntry@@_KI@Z 000000018003fb90 f i libvcruntimed:frame.obj
 0001:0003ebe0       ??0HandlerType4@FH4@@QEAA@XZ 000000018003fbe0 f i libvcruntimed:frame.obj
 0001:0003ec00       ??0TryBlockMap4@FH4@@QEAA@PEBUFuncInfo4@1@_K@Z 000000018003fc00 f i libvcruntimed:frame.obj
 0001:0003ec90       ??0TryBlockMap@__FrameHandler3@@QEAA@PEBU_s_FuncInfo@@_K@Z 000000018003fc90 f i libvcruntimed:frame.obj
 0001:0003ecc0       ??0UWMap4@FH4@@QEAA@PEBUFuncInfo4@1@_K@Z 000000018003fcc0 f i libvcruntimed:frame.obj
 0001:0003ed30       ??0bad_exception@std@@QEAA@AEBV01@@Z 000000018003fd30 f i libvcruntimed:frame.obj
 0001:0003ed70       ??0bad_exception@std@@QEAA@XZ 000000018003fd70 f i libvcruntimed:frame.obj
 0001:0003edb0       ??0iterator@HandlerMap4@FH4@@QEAA@AEAV12@I@Z 000000018003fdb0 f i libvcruntimed:frame.obj
 0001:0003ede0       ??0iterator@HandlerMap@__FrameHandler3@@QEAA@AEAV12@I@Z 000000018003fde0 f i libvcruntimed:frame.obj
 0001:0003ee10       ??0iterator@UWMap4@FH4@@QEAA@AEAV12@PEAE@Z 000000018003fe10 f i libvcruntimed:frame.obj
 0001:0003ee40       ??1bad_exception@std@@UEAA@XZ 000000018003fe40 f i libvcruntimed:frame.obj
 0001:0003ee60       ??4iterator@UWMap4@FH4@@QEAAAEAV012@AEBV012@@Z 000000018003fe60 f i libvcruntimed:frame.obj
 0001:0003eeb0       ??8iterator@HandlerMap4@FH4@@QEBA_NAEBV012@@Z 000000018003feb0 f i libvcruntimed:frame.obj
 0001:0003eef0       ??8iterator@HandlerMap@__FrameHandler3@@QEBA_NAEBV012@@Z 000000018003fef0 f i libvcruntimed:frame.obj
 0001:0003ef30       ??8type_info@@QEBA_NAEBV0@@Z 000000018003ff30 f i libvcruntimed:frame.obj
 0001:0003ef80       ??9iterator@HandlerMap4@FH4@@QEBA_NAEBV012@@Z 000000018003ff80 f i libvcruntimed:frame.obj
 0001:0003efc0       ??9iterator@HandlerMap@__FrameHandler3@@QEBA_NAEBV012@@Z 000000018003ffc0 f i libvcruntimed:frame.obj
 0001:0003f000       ??Diterator@HandlerMap4@FH4@@QEAA?AUHandlerType4@2@XZ 0000000180040000 f i libvcruntimed:frame.obj
 0001:0003f030       ??Diterator@HandlerMap@__FrameHandler3@@QEAA?BU_s_HandlerType@@XZ 0000000180040030 f i libvcruntimed:frame.obj
 0001:0003f070       ??Diterator@TryBlockMap@__FrameHandler3@@QEAA?BU_s_TryBlockMapEntry@@XZ 0000000180040070 f i libvcruntimed:frame.obj
 0001:0003f0c0       ??Diterator@UWMap4@FH4@@QEAA?AUUnwindMapEntry4@2@XZ 00000001800400c0 f i libvcruntimed:frame.obj
 0001:0003f140       ??Eiterator@HandlerMap4@FH4@@QEAAAEAV012@XZ 0000000180040140 f i libvcruntimed:frame.obj
 0001:0003f180       ??Eiterator@HandlerMap@__FrameHandler3@@QEAAAEAV012@XZ 0000000180040180 f i libvcruntimed:frame.obj
 0001:0003f1a0       ??Eiterator@TryBlockMap@__FrameHandler3@@QEAAAEAV012@XZ 00000001800401a0 f i libvcruntimed:frame.obj
 0001:0003f1c0       ??Eiterator@UWMap4@FH4@@QEAAAEAV012@XZ 00000001800401c0 f i libvcruntimed:frame.obj
 0001:0003f200       ??Giterator@UWMap4@FH4@@QEBA_JAEBV012@@Z 0000000180040200 f i libvcruntimed:frame.obj
 0001:0003f220       ??Miterator@TryBlockMap4@FH4@@QEBA_NAEBV012@@Z 0000000180040220 f i libvcruntimed:frame.obj
 0001:0003f260       ??Miterator@TryBlockMap@__FrameHandler3@@QEBA_NAEBV012@@Z 0000000180040260 f i libvcruntimed:frame.obj
 0001:0003f2a0       ??Oiterator@UWMap4@FH4@@QEBA_NAEBV012@@Z 00000001800402a0 f i libvcruntimed:frame.obj
 0001:0003f2e0       ??Piterator@UWMap4@FH4@@QEBA_NAEBV012@@Z 00000001800402e0 f i libvcruntimed:frame.obj
 0001:0003f320       ??_Gbad_exception@std@@UEAAPEAXI@Z 0000000180040320 f i libvcruntimed:frame.obj
 0001:0003f320       ??_Ebad_exception@std@@UEAAPEAXI@Z 0000000180040320 f i libvcruntimed:frame.obj
 0001:0003f360       ?BuildCatchObject@__FrameHandler3@@SAXPEAUEHExceptionRecord@@PEAXPEBU_s_HandlerType@@PEBU_s_CatchableType@@@Z 0000000180040360 f   libvcruntimed:frame.obj
 0001:0003f3a0       ?BuildCatchObject@__FrameHandler4@@SAXPEAUEHExceptionRecord@@PEAXPEAUHandlerType4@FH4@@PEBU_s_CatchableType@@@Z 00000001800403a0 f   libvcruntimed:frame.obj
 0001:0003f3e0       ?BuildCatchObjectHelper@__FrameHandler3@@SAHPEAUEHExceptionRecord@@PEAXPEBU_s_HandlerType@@PEBU_s_CatchableType@@@Z 00000001800403e0 f   libvcruntimed:frame.obj
 0001:0003f420       ?BuildCatchObjectHelper@__FrameHandler4@@SAHPEAUEHExceptionRecord@@PEAXPEAUHandlerType4@FH4@@PEBU_s_CatchableType@@@Z 0000000180040420 f   libvcruntimed:frame.obj
 0001:0003f460       ?CxxCallCatchBlock@__FrameHandler3@@SAPEAXPEAU_EXCEPTION_RECORD@@@Z 0000000180040460 f   libvcruntimed:frame.obj
 0001:0003f6c0       ?CxxCallCatchBlock@__FrameHandler4@@SAPEAXPEAU_EXCEPTION_RECORD@@@Z 00000001800406c0 f   libvcruntimed:frame.obj
 0001:0003f9f0       ?DecompHandler@HandlerMap4@FH4@@AEAAXXZ 00000001800409f0 f i libvcruntimed:frame.obj
 0001:0003fdc0       ?FrameUnwindToState@__FrameHandler3@@SAXPEA_KPEAU_xDISPATCHER_CONTEXT@@PEBU_s_FuncInfo@@H@Z 0000000180040dc0 f   libvcruntimed:frame.obj
 0001:00040010       ?FrameUnwindToState@__FrameHandler4@@SAXPEA_KPEAU_xDISPATCHER_CONTEXT@@PEAUFuncInfo4@FH4@@H@Z 0000000180041010 f   libvcruntimed:frame.obj
 0001:00040360       ?GetHandlerSearchState@__FrameHandler3@@SAHPEA_KPEAU_xDISPATCHER_CONTEXT@@PEBU_s_FuncInfo@@@Z 0000000180041360 f i libvcruntimed:frame.obj
 0001:00040410       ?GetHandlerSearchState@__FrameHandler4@@SAHPEA_KPEAU_xDISPATCHER_CONTEXT@@PEAUFuncInfo4@FH4@@@Z 0000000180041410 f i libvcruntimed:frame.obj
 0001:00040490       ?GetMaxState@__FrameHandler3@@SAHPEAU_xDISPATCHER_CONTEXT@@PEBU_s_FuncInfo@@@Z 0000000180041490 f i libvcruntimed:frame.obj
 0001:000404b0       ?GetMaxState@__FrameHandler4@@SAHPEAU_xDISPATCHER_CONTEXT@@PEAUFuncInfo4@FH4@@@Z 00000001800414b0 f i libvcruntimed:frame.obj
 0001:000406e0       ?ReadEntry@UWMap4@FH4@@AEAAXPEAPEAE@Z 00000001800416e0 f i libvcruntimed:frame.obj
 0001:00040790       ?TypeMatch@__FrameHandler3@@SAHPEBU_s_HandlerType@@PEBU_s_CatchableType@@PEBU_s_ThrowInfo@@@Z 0000000180041790 f   libvcruntimed:frame.obj
 0001:000407c0       ?TypeMatch@__FrameHandler4@@SAHPEAUHandlerType4@FH4@@PEBU_s_CatchableType@@PEBU_s_ThrowInfo@@@Z 00000001800417c0 f   libvcruntimed:frame.obj
 0001:000407f0       ?WalkBack@UWMap4@FH4@@AEAAXPEAPEAE@Z 00000001800417f0 f i libvcruntimed:frame.obj
 0001:00040840       ?WalkBack@iterator@UWMap4@FH4@@QEAAXXZ 0000000180041840 f i libvcruntimed:frame.obj
 0001:00040880       ?WalkForward@UWMap4@FH4@@AEAAXPEAPEAE@Z 0000000180041880 f i libvcruntimed:frame.obj
 0001:000408b0       ?_CallMemberFunction1@@YAXQEAX00@Z 00000001800418b0 f i libvcruntimed:frame.obj
 0001:000408f0       ?_CallMemberFunction2@@YAXQEAX00H@Z 00000001800418f0 f i libvcruntimed:frame.obj
 0001:00040980       ?begin@HandlerMap4@FH4@@QEAA?AViterator@12@XZ 0000000180041980 f i libvcruntimed:frame.obj
 0001:000409b0       ?begin@HandlerMap@__FrameHandler3@@QEAA?AViterator@12@XZ 00000001800419b0 f i libvcruntimed:frame.obj
 0001:000409e0       ?begin@UWMap4@FH4@@QEAA?AViterator@12@XZ 00000001800419e0 f i libvcruntimed:frame.obj
 0001:00040a10       ?end@HandlerMap4@FH4@@QEAA?AViterator@12@XZ 0000000180041a10 f i libvcruntimed:frame.obj
 0001:00040a40       ?end@HandlerMap@__FrameHandler3@@QEAA?AViterator@12@XZ 0000000180041a40 f i libvcruntimed:frame.obj
 0001:00040a70       ?getESTypes@__FrameHandler3@@SAPEBU_s_ESTypeList@@PEBU_s_FuncInfo@@@Z 0000000180041a70 f i libvcruntimed:frame.obj
 0001:00040ab0       ?getESTypes@__FrameHandler4@@SAPEBU_s_ESTypeList@@PEAUFuncInfo4@FH4@@@Z 0000000180041ab0 f i libvcruntimed:frame.obj
 0001:00040ac0       ?getLastEntry@HandlerMap4@FH4@@QEAAPEAUHandlerType4@2@XZ 0000000180041ac0 f i libvcruntimed:frame.obj
 0001:00040b00       ?getLastEntry@HandlerMap@__FrameHandler3@@QEAAPEBU_s_HandlerType@@XZ 0000000180041b00 f i libvcruntimed:frame.obj
 0001:00040b20       ?getMagicNum@__FrameHandler3@@SAIPEBU_s_FuncInfo@@@Z 0000000180041b20 f i libvcruntimed:frame.obj
 0001:00040b40       ?getMagicNum@__FrameHandler4@@SAIPEAUFuncInfo4@FH4@@@Z 0000000180041b40 f i libvcruntimed:frame.obj
 0001:00040b50       ?getNumTryBlocks@TryBlockMap4@FH4@@QEAAIXZ 0000000180041b50 f i libvcruntimed:frame.obj
 0001:00040b60       ?getNumTryBlocks@TryBlockMap@__FrameHandler3@@QEAAIXZ 0000000180041b60 f i libvcruntimed:frame.obj
 0001:00040b80       ?getStartStop@UWMap4@FH4@@QEAAXHHAEAViterator@12@0@Z 0000000180041b80 f i libvcruntimed:frame.obj
 0001:00040ca0       ?getStateFromIterators@UWMap4@FH4@@SAHAEBViterator@12@H0H0@Z 0000000180041ca0 f i libvcruntimed:frame.obj
 0001:00040de0       ?isEHs@__FrameHandler3@@SA_NPEBU_s_FuncInfo@@@Z 0000000180041de0 f i libvcruntimed:frame.obj
 0001:00040e20       ?isEHs@__FrameHandler4@@SA_NPEAUFuncInfo4@FH4@@@Z 0000000180041e20 f i libvcruntimed:frame.obj
 0001:00040e40       ?isNoExcept@__FrameHandler3@@SA_NPEBU_s_FuncInfo@@@Z 0000000180041e40 f i libvcruntimed:frame.obj
 0001:00040e80       ?isNoExcept@__FrameHandler4@@SA_NPEAUFuncInfo4@FH4@@@Z 0000000180041e80 f i libvcruntimed:frame.obj
 0001:00040ea0       ?reset@HandlerType4@FH4@@QEAAXXZ 0000000180041ea0 f i libvcruntimed:frame.obj
 0001:00040f00       ?resetBuffer@HandlerMap4@FH4@@QEAAXXZ 0000000180041f00 f i libvcruntimed:frame.obj
 0001:00040f20       ?setBuffer@HandlerMap4@FH4@@QEAAXI@Z 0000000180041f20 f i libvcruntimed:frame.obj
 0001:00040f80       __BuildCatchObject         0000000180041f80 f   libvcruntimed:frame.obj
 0001:00040fc0       __BuildCatchObjectHelper   0000000180041fc0 f   libvcruntimed:frame.obj
 0001:00041000       __TypeMatch                0000000180042000 f   libvcruntimed:frame.obj
 0001:00041030       __vcrt_EncodePointer       0000000180042030 f i libvcruntimed:frame.obj
 0001:00041050       ??$?0$00@DName@@QEAA@PEBDU?$StringLifeSelector@$00@@@Z 0000000180042050 f i libvcruntimed:undname.obj
 0001:000410c0       ??$?0$00@pcharNode@@QEAA@PEBDHU?$StringLifeSelector@$00@@@Z 00000001800420c0 f i libvcruntimed:undname.obj
 0001:00041120       ??$?0$01@DName@@QEAA@PEBDU?$StringLifeSelector@$01@@@Z 0000000180042120 f i libvcruntimed:undname.obj
 0001:00041190       ??$?0$01@pcharNode@@QEAA@PEBDHU?$StringLifeSelector@$01@@@Z 0000000180042190 f i libvcruntimed:undname.obj
 0001:00041240       ??$?0$0A@@DName@@QEAA@PEBDU?$StringLifeSelector@$0A@@@@Z 0000000180042240 f i libvcruntimed:undname.obj
 0001:000412b0       ??$?0$0A@@pcharNode@@QEAA@PEBDHU?$StringLifeSelector@$0A@@@@Z 00000001800422b0 f i libvcruntimed:undname.obj
 0001:00041360       ??$append@VDNameNode@@@DName@@AEAAXPEBVDNameNode@@@Z 0000000180042360 f i libvcruntimed:undname.obj
 0001:00041410       ??$append@VDNameStatusNode@@@DName@@AEAAXPEBVDNameStatusNode@@@Z 0000000180042410 f i libvcruntimed:undname.obj
 0001:000414c0       ??$append@VcharNode@@@DName@@AEAAXPEBVcharNode@@@Z 00000001800424c0 f i libvcruntimed:undname.obj
 0001:00041570       ??$append@VpDNameNode@@@DName@@AEAAXPEBVpDNameNode@@@Z 0000000180042570 f i libvcruntimed:undname.obj
 0001:00041620       ??$append@VpcharNode@@@DName@@AEAAXPEBVpcharNode@@@Z 0000000180042620 f i libvcruntimed:undname.obj
 0001:000416d0       ??$doPchar@$00@DName@@AEAAXPEBDH@Z 00000001800426d0 f i libvcruntimed:undname.obj
 0001:00041830       ??$doPchar@$01@DName@@AEAAXPEBDH@Z 0000000180042830 f i libvcruntimed:undname.obj
 0001:00041990       ??$doPchar@$0A@@DName@@AEAAXPEBDH@Z 0000000180042990 f i libvcruntimed:undname.obj
 0001:00041af0       ??0Block@_HeapManager@@QEAA@XZ 0000000180042af0 f i libvcruntimed:undname.obj
 0001:00041b10       ??0DName@@QEAA@AEAPEBDD@Z  0000000180042b10 f   libvcruntimed:undname.obj
 0001:00041ce0       ??0DName@@QEAA@AEBUStringLiteral@@@Z 0000000180042ce0 f   libvcruntimed:undname.obj
 0001:00041d40       ??0DName@@QEAA@AEBV0@@Z    0000000180042d40 f i libvcruntimed:undname.obj
 0001:00041d70       ??0DName@@QEAA@D@Z         0000000180042d70 f   libvcruntimed:undname.obj
 0001:00041db0       ??0DName@@QEAA@PEAV0@@Z    0000000180042db0 f   libvcruntimed:undname.obj
 0001:00041e90       ??0DName@@QEAA@W4DNameStatus@@@Z 0000000180042e90 f   libvcruntimed:undname.obj
 0001:00041f40       ??0DName@@QEAA@XZ          0000000180042f40 f i libvcruntimed:undname.obj
 0001:00041f70       ??0DName@@QEAA@_J@Z        0000000180042f70 f   libvcruntimed:undname.obj
 0001:00042080       ??0DName@@QEAA@_K@Z        0000000180043080 f   libvcruntimed:undname.obj
 0001:00042150       ??0DNameNode@@IEAA@XZ      0000000180043150 f i libvcruntimed:undname.obj
 0001:00042170       ??0Replicator@@QEAA@XZ     0000000180043170 f i libvcruntimed:undname.obj
 0001:000421b0       ??0UnDecorator@@QEAA@PEBDP6APEADJ@ZK@Z 00000001800431b0 f i libvcruntimed:undname.obj
 0001:00042260       ??0charNode@@QEAA@D@Z      0000000180043260 f i libvcruntimed:undname.obj
 0001:000422a0       ??0pDNameNode@@QEAA@PEAVDName@@@Z 00000001800432a0 f   libvcruntimed:undname.obj
 0001:00042320       ??0pairNode@@QEAA@PEBVDNameNode@@0@Z 0000000180043320 f i libvcruntimed:undname.obj
 0001:000423a0       ??2@YAPEAX_KAEAV_HeapManager@@H@Z 00000001800433a0 f   libvcruntimed:undname.obj
 0001:00042400       ??4DName@@QEAAAEAV0@AEBUStringLiteral@@@Z 0000000180043400 f   libvcruntimed:undname.obj
 0001:00042450       ??4DName@@QEAAAEAV0@AEBV0@@Z 0000000180043450 f   libvcruntimed:undname.obj
 0001:00042480       ??4DName@@QEAAAEAV0@D@Z    0000000180043480 f i libvcruntimed:undname.obj
 0001:000424c0       ??4DName@@QEAAAEAV0@PEAV0@@Z 00000001800434c0 f   libvcruntimed:undname.obj
 0001:00042590       ??4DName@@QEAAAEAV0@W4DNameStatus@@@Z 0000000180043590 f   libvcruntimed:undname.obj
 0001:00042620       ??AReplicator@@QEBA?AVDName@@H@Z 0000000180043620 f   libvcruntimed:undname.obj
 0001:000426b0       ??H@YA?AVDName@@AEBUStringLiteral@@AEBV0@@Z 00000001800436b0 f i libvcruntimed:undname.obj
 0001:00042700       ??H@YA?AVDName@@DAEBV0@@Z  0000000180043700 f i libvcruntimed:undname.obj
 0001:00042750       ??H@YA?AVDName@@W4DNameStatus@@AEBV0@@Z 0000000180043750 f i libvcruntimed:undname.obj
 0001:000427a0       ??HDName@@QEBA?AV0@AEBUStringLiteral@@@Z 00000001800437a0 f   libvcruntimed:undname.obj
 0001:000427f0       ??HDName@@QEBA?AV0@AEBV0@@Z 00000001800437f0 f   libvcruntimed:undname.obj
 0001:00042840       ??HDName@@QEBA?AV0@D@Z     0000000180043840 f   libvcruntimed:undname.obj
 0001:00042890       ??HDName@@QEBA?AV0@PEAV0@@Z 0000000180043890 f   libvcruntimed:undname.obj
 0001:000428e0       ??HDName@@QEBA?AV0@W4DNameStatus@@@Z 00000001800438e0 f   libvcruntimed:undname.obj
 0001:00042930       ??HStringLiteral@@QEBA?AU0@H@Z 0000000180043930 f i libvcruntimed:undname.obj
 0001:00042970       ??YDName@@QEAAAEAV0@AEBUStringLiteral@@@Z 0000000180043970 f   libvcruntimed:undname.obj
 0001:00042a40       ??YDName@@QEAAAEAV0@AEBV0@@Z 0000000180043a40 f   libvcruntimed:undname.obj
 0001:00042b00       ??YDName@@QEAAAEAV0@D@Z    0000000180043b00 f   libvcruntimed:undname.obj
 0001:00042ba0       ??YDName@@QEAAAEAV0@PEAV0@@Z 0000000180043ba0 f   libvcruntimed:undname.obj
 0001:00042c80       ??YDName@@QEAAAEAV0@W4DNameStatus@@@Z 0000000180043c80 f   libvcruntimed:undname.obj
 0001:00042cf0       ??YReplicator@@QEAAAEAV0@AEBVDName@@@Z 0000000180043cf0 f   libvcruntimed:undname.obj
 0001:00042db0       ??_5DName@@QEAAAEAV0@AEBV0@@Z 0000000180043db0 f   libvcruntimed:undname.obj
 0001:00042e20       ??__K_l@@YA?AUStringLiteral@@PEBD_K@Z 0000000180043e20 f i libvcruntimed:undname.obj
 0001:00042e70       ?Constructor@_HeapManager@@QEAAXP6APEAX_K@ZP6AXPEAX@Z@Z 0000000180043e70 f i libvcruntimed:undname.obj
 0001:00042ed0       ?Destructor@_HeapManager@@QEAAXXZ 0000000180043ed0 f i libvcruntimed:undname.obj
 0001:00042f70       ?UScore@UnDecorator@@SA?AUStringLiteral@@W4Tokens@@@Z 0000000180043f70 f   libvcruntimed:undname.obj
 0001:00043000       ?composeDeclaration@UnDecorator@@CA?AVDName@@AEBV2@@Z 0000000180044000 f i libvcruntimed:undname.obj
 0001:00045500       ?dbGetString@DName@@QEBAPEADXZ 0000000180046500 f   libvcruntimed:undname.obj
 0001:00045530       ?doAccessSpecifiers@UnDecorator@@SAHXZ 0000000180046530 f i libvcruntimed:undname.obj
 0001:00045560       ?doAllocationLanguage@UnDecorator@@SAHXZ 0000000180046560 f i libvcruntimed:undname.obj
 0001:00045590       ?doAllocationModel@UnDecorator@@SAHXZ 0000000180046590 f i libvcruntimed:undname.obj
 0001:000455c0       ?doEcsu@UnDecorator@@SAHXZ 00000001800465c0 f i libvcruntimed:undname.obj
 0001:000455f0       ?doEllipsis@UnDecorator@@SAHXZ 00000001800465f0 f i libvcruntimed:undname.obj
 0001:00045620       ?doFunctionReturns@UnDecorator@@SAHXZ 0000000180046620 f i libvcruntimed:undname.obj
 0001:00045650       ?doMSKeywords@UnDecorator@@SAHXZ 0000000180046650 f i libvcruntimed:undname.obj
 0001:00045680       ?doMemberTypes@UnDecorator@@SAHXZ 0000000180046680 f i libvcruntimed:undname.obj
 0001:000456b0       ?doNameOnly@UnDecorator@@SAHXZ 00000001800466b0 f i libvcruntimed:undname.obj
 0001:000456c0       ?doNoIdentCharCheck@UnDecorator@@SAHXZ 00000001800466c0 f i libvcruntimed:undname.obj
 0001:000456d0       ?doPchar@DName@@AEAAXD@Z   00000001800466d0 f   libvcruntimed:undname.obj
 0001:00045760       ?doPtr64@UnDecorator@@SAHXZ 0000000180046760 f i libvcruntimed:undname.obj
 0001:00045790       ?doRestrictionSpec@UnDecorator@@SAHXZ 0000000180046790 f i libvcruntimed:undname.obj
 0001:000457c0       ?doThisTypes@UnDecorator@@SAHXZ 00000001800467c0 f i libvcruntimed:undname.obj
 0001:000457f0       ?doThrowTypes@UnDecorator@@SAHXZ 00000001800467f0 f i libvcruntimed:undname.obj
 0001:00045820       ?doTypeOnly@UnDecorator@@SAHXZ 0000000180046820 f i libvcruntimed:undname.obj
 0001:00045830       ?doUnderScore@UnDecorator@@SAHXZ 0000000180046830 f i libvcruntimed:undname.obj
 0001:00045860       ?getArgumentList@UnDecorator@@CA?AVDName@@XZ 0000000180046860 f   libvcruntimed:undname.obj
 0001:00045a00       ?getArgumentTypes@UnDecorator@@CA?AVDName@@XZ 0000000180046a00 f   libvcruntimed:undname.obj
 0001:00045d60       ?getArrayType@UnDecorator@@CA?AVDName@@AEBV2@@Z 0000000180046d60 f i libvcruntimed:undname.obj
 0001:00046120       ?getBasedType@UnDecorator@@CA?AVDName@@XZ 0000000180047120 f   libvcruntimed:undname.obj
 0001:00046290       ?getBasicDataType@UnDecorator@@CA?AVDName@@AEBV2@@Z 0000000180047290 f   libvcruntimed:undname.obj
 0001:00046f60       ?getCHPEName@UnDecorator@@QEAAPEADPEADH@Z 0000000180047f60 f i libvcruntimed:undname.obj
 0001:00047130       ?getCallIndex@UnDecorator@@CA?AVDName@@XZ 0000000180048130 f i libvcruntimed:undname.obj
 0001:00047150       ?getCallingConvention@UnDecorator@@CA?AVDName@@XZ 0000000180048150 f   libvcruntimed:undname.obj
 0001:000474f0       ?getDataIndirectType@UnDecorator@@CA?AVDName@@AEBV2@W4IndirectionKind@@0H@Z 00000001800484f0 f   libvcruntimed:undname.obj
 0001:00048190       ?getDataIndirectType@UnDecorator@@CA?AVDName@@XZ 0000000180049190 f i libvcruntimed:undname.obj
 0001:000481e0       ?getDataType@UnDecorator@@CA?AVDName@@PEAV2@@Z 00000001800491e0 f   libvcruntimed:undname.obj
 0001:000483c0       ?getDecoratedName@UnDecorator@@CA?AVDName@@XZ 00000001800493c0 f   libvcruntimed:undname.obj
 0001:000488c0       ?getDimension@UnDecorator@@CA?AVDName@@_N@Z 00000001800498c0 f   libvcruntimed:undname.obj
 0001:00048c70       ?getDispatchTarget@UnDecorator@@CA?AVDName@@XZ 0000000180049c70 f   libvcruntimed:undname.obj
 0001:00048d40       ?getDisplacement@UnDecorator@@CA?AVDName@@XZ 0000000180049d40 f i libvcruntimed:undname.obj
 0001:00048d60       ?getECSUDataType@UnDecorator@@CA?AVDName@@XZ 0000000180049d60 f   libvcruntimed:undname.obj
 0001:000490d0       ?getECSUName@UnDecorator@@CA?AVDName@@XZ 000000018004a0d0 f i libvcruntimed:undname.obj
 0001:000490f0       ?getEnumType@UnDecorator@@CA?AVDName@@XZ 000000018004a0f0 f i libvcruntimed:undname.obj
 0001:00049380       ?getExtendedDataIndirectType@UnDecorator@@CA?AVDName@@AEAW4IndirectionKind@@AEA_NH@Z 000000018004a380 f   libvcruntimed:undname.obj
 0001:000496a0       ?getExternalDataType@UnDecorator@@CA?AVDName@@AEBV2@@Z 000000018004a6a0 f i libvcruntimed:undname.obj
 0001:00049780       ?getFunctionIndirectType@UnDecorator@@CA?AVDName@@AEBV2@@Z 000000018004a780 f   libvcruntimed:undname.obj
 0001:00049db0       ?getGuardNumber@UnDecorator@@CA?AVDName@@XZ 000000018004adb0 f i libvcruntimed:undname.obj
 0001:00049dd0       ?getLastChar@DName@@QEBADXZ 000000018004add0 f i libvcruntimed:undname.obj
 0001:00049e20       ?getLastChar@DNameStatusNode@@UEBADXZ 000000018004ae20 f i libvcruntimed:undname.obj
 0001:00049e60       ?getLastChar@charNode@@UEBADXZ 000000018004ae60 f i libvcruntimed:undname.obj
 0001:00049e70       ?getLastChar@pDNameNode@@UEBADXZ 000000018004ae70 f i libvcruntimed:undname.obj
 0001:00049eb0       ?getLastChar@pairNode@@UEBADXZ 000000018004aeb0 f i libvcruntimed:undname.obj
 0001:00049f30       ?getLastChar@pcharNode@@UEBADXZ 000000018004af30 f i libvcruntimed:undname.obj
 0001:00049f70       ?getLexicalFrame@UnDecorator@@CA?AVDName@@XZ 000000018004af70 f i libvcruntimed:undname.obj
 0001:00049fc0       ?getMemoryWithBuffer@_HeapManager@@QEAAPEAX_K@Z 000000018004afc0 f   libvcruntimed:undname.obj
 0001:0004a110       ?getMemoryWithoutBuffer@_HeapManager@@QEAAPEAX_K@Z 000000018004b110 f   libvcruntimed:undname.obj
 0001:0004a160       ?getNoexcept@UnDecorator@@CA?AVDName@@XZ 000000018004b160 f   libvcruntimed:undname.obj
 0001:0004a210       ?getNumberOfDimensions@UnDecorator@@CAHXZ 000000018004b210 f   libvcruntimed:undname.obj
 0001:0004a330       ?getOperatorName@UnDecorator@@CA?AVDName@@_NPEA_N@Z 000000018004b330 f i libvcruntimed:undname.obj
 0001:0004b1e0       ?getPointerType@UnDecorator@@CA?AVDName@@AEBV2@0@Z 000000018004c1e0 f i libvcruntimed:undname.obj
 0001:0004b220       ?getPointerTypeArray@UnDecorator@@CA?AVDName@@AEBV2@0@Z 000000018004c220 f i libvcruntimed:undname.obj
 0001:0004b260       ?getPrimaryDataType@UnDecorator@@CA?AVDName@@AEBV2@@Z 000000018004c260 f   libvcruntimed:undname.obj
 0001:0004b850       ?getPtrRefDataType@UnDecorator@@CA?AVDName@@AEBV2@H@Z 000000018004c850 f   libvcruntimed:undname.obj
 0001:0004bc40       ?getPtrRefType@UnDecorator@@CA?AVDName@@AEBV2@0W4IndirectionKind@@@Z 000000018004cc40 f   libvcruntimed:undname.obj
 0001:0004be80       ?getReferenceType@UnDecorator@@CA?AVDName@@AEBV2@0W4IndirectionKind@@@Z 000000018004ce80 f i libvcruntimed:undname.obj
 0001:0004bec0       ?getRestrictionSpec@UnDecorator@@CA?AVDName@@XZ 000000018004cec0 f   libvcruntimed:undname.obj
 0001:0004c150       ?getReturnType@UnDecorator@@CA?AVDName@@PEAV2@@Z 000000018004d150 f   libvcruntimed:undname.obj
 0001:0004c1b0       ?getScope@UnDecorator@@CA?AVDName@@XZ 000000018004d1b0 f   libvcruntimed:undname.obj
 0001:0004c900       ?getScopedName@UnDecorator@@CA?AVDName@@XZ 000000018004d900 f   libvcruntimed:undname.obj
 0001:0004cb00       ?getSignedDimension@UnDecorator@@CA?AVDName@@XZ 000000018004db00 f   libvcruntimed:undname.obj
 0001:0004cb90       ?getStorageConvention@UnDecorator@@CA?AVDName@@XZ 000000018004db90 f i libvcruntimed:undname.obj
 0001:0004cbb0       ?getString@DName@@QEBAPEADPEAD0@Z 000000018004dbb0 f i libvcruntimed:undname.obj
 0001:0004cc30       ?getString@DName@@QEBAPEADPEADH@Z 000000018004dc30 f i libvcruntimed:undname.obj
 0001:0004ccf0       ?getString@DNameStatusNode@@UEBAPEADPEAD0@Z 000000018004dcf0 f i libvcruntimed:undname.obj
 0001:0004cd40       ?getString@charNode@@UEBAPEADPEAD0@Z 000000018004dd40 f i libvcruntimed:undname.obj
 0001:0004cd80       ?getString@pDNameNode@@UEBAPEADPEAD0@Z 000000018004dd80 f i libvcruntimed:undname.obj
 0001:0004cde0       ?getString@pairNode@@UEBAPEADPEAD0@Z 000000018004dde0 f i libvcruntimed:undname.obj
 0001:0004ceb0       ?getString@pcharNode@@UEBAPEADPEAD0@Z 000000018004deb0 f i libvcruntimed:undname.obj
 0001:0004cef0       ?getStringEncoding@UnDecorator@@CA?AVDName@@W4PrefixKind@@H@Z 000000018004def0 f   libvcruntimed:undname.obj
 0001:0004d050       ?getStringHelper@@YAPEADPEADPEBD1H@Z 000000018004e050 f i libvcruntimed:undname.obj
 0001:0004d0c0       ?getSymbolName@UnDecorator@@CA?AVDName@@XZ 000000018004e0c0 f i libvcruntimed:undname.obj
 0001:0004d160       ?getTemplateArgumentList@UnDecorator@@CA?AVDName@@XZ 000000018004e160 f   libvcruntimed:undname.obj
 0001:0004d470       ?getTemplateName@UnDecorator@@CA?AVDName@@_N@Z 000000018004e470 f   libvcruntimed:undname.obj
 0001:0004d6b0       ?getTemplateNonTypeArgument@UnDecorator@@CA?AVDName@@XZ 000000018004e6b0 f   libvcruntimed:undname.obj
 0001:0004def0       ?getTemplateTypeArgument@UnDecorator@@CA?AVDName@@XZ 000000018004eef0 f   libvcruntimed:undname.obj
 0001:0004e160       ?getThisType@UnDecorator@@CA?AVDName@@XZ 000000018004f160 f i libvcruntimed:undname.obj
 0001:0004e1b0       ?getThrowTypes@UnDecorator@@CA?AVDName@@XZ 000000018004f1b0 f   libvcruntimed:undname.obj
 0001:0004e200       ?getTypeEncoding@UnDecorator@@CAHXZ 000000018004f200 f i libvcruntimed:undname.obj
 0001:0004ee30       ?getUndecoratedName@UnDecorator@@QEAAPEADPEADH@Z 000000018004fe30 f i libvcruntimed:undname.obj
 0001:0004f020       ?getVCallThunkType@UnDecorator@@CA?AVDName@@XZ 0000000180050020 f i libvcruntimed:undname.obj
 0001:0004f0d0       ?getVbTableType@UnDecorator@@CA?AVDName@@AEBV2@@Z 00000001800500d0 f i libvcruntimed:undname.obj
 0001:0004f100       ?getVdispMapType@UnDecorator@@CA?AVDName@@AEBV2@@Z 0000000180050100 f i libvcruntimed:undname.obj
 0001:0004f1c0       ?getVfTableType@UnDecorator@@CA?AVDName@@AEBV2@@Z 00000001800501c0 f i libvcruntimed:undname.obj
 0001:0004f460       ?getZName@UnDecorator@@CA?AVDName@@_N0@Z 0000000180050460 f   libvcruntimed:undname.obj
 0001:0004f8f0       ?haveTemplateParameters@UnDecorator@@SAHXZ 00000001800508f0 f i libvcruntimed:undname.obj
 0001:0004f900       ?isArray@DName@@QEBAHXZ    0000000180050900 f i libvcruntimed:undname.obj
 0001:0004f920       ?isComArray@DName@@QEBAHXZ 0000000180050920 f i libvcruntimed:undname.obj
 0001:0004f940       ?isEmpty@DName@@QEBAHXZ    0000000180050940 f i libvcruntimed:undname.obj
 0001:0004f970       ?isFull@Replicator@@QEBAHXZ 0000000180050970 f i libvcruntimed:undname.obj
 0001:0004f9a0       ?isNoTE@DName@@QEBAHXZ     00000001800509a0 f i libvcruntimed:undname.obj
 0001:0004f9c0       ?isPinPtr@DName@@QEBAHXZ   00000001800509c0 f i libvcruntimed:undname.obj
 0001:0004f9e0       ?isPtrRef@DName@@QEBAHXZ   00000001800509e0 f i libvcruntimed:undname.obj
 0001:0004fa00       ?isUDC@DName@@QEBAHXZ      0000000180050a00 f i libvcruntimed:undname.obj
 0001:0004fa50       ?isUDTThunk@DName@@QEBAHXZ 0000000180050a50 f i libvcruntimed:undname.obj
 0001:0004faa0       ?isVCallThunk@DName@@QEBAHXZ 0000000180050aa0 f i libvcruntimed:undname.obj
 0001:0004fac0       ?isValid@DName@@QEBAHXZ    0000000180050ac0 f i libvcruntimed:undname.obj
 0001:0004fb00       ?length@DName@@QEBAHXZ     0000000180050b00 f i libvcruntimed:undname.obj
 0001:0004fb50       ?length@DNameStatusNode@@UEBAHXZ 0000000180050b50 f i libvcruntimed:undname.obj
 0001:0004fb60       ?length@charNode@@UEBAHXZ  0000000180050b60 f i libvcruntimed:undname.obj
 0001:0004fb70       ?length@pDNameNode@@UEBAHXZ 0000000180050b70 f i libvcruntimed:undname.obj
 0001:0004fbb0       ?length@pairNode@@UEBAHXZ  0000000180050bb0 f i libvcruntimed:undname.obj
 0001:0004fc40       ?length@pcharNode@@UEBAHXZ 0000000180050c40 f i libvcruntimed:undname.obj
 0001:0004fc50       ?make@DNameStatusNode@@SAPEBV1@W4DNameStatus@@@Z 0000000180050c50 f i libvcruntimed:undname.obj
 0001:0004fca0       ?parseDecoratedName@UnDecorator@@CA?AVDName@@XZ 0000000180050ca0 f   libvcruntimed:undname.obj
 0001:0004fe90       ?raw_length@DNameStatusNode@@UEBAHXZ 0000000180050e90 f i libvcruntimed:undname.obj
 0001:0004feb0       ?raw_length@charNode@@UEBAHXZ 0000000180050eb0 f i libvcruntimed:undname.obj
 0001:0004fed0       ?raw_length@pDNameNode@@UEBAHXZ 0000000180050ed0 f i libvcruntimed:undname.obj
 0001:0004fee0       ?raw_length@pairNode@@UEBAHXZ 0000000180050ee0 f i libvcruntimed:undname.obj
 0001:0004fef0       ?raw_length@pcharNode@@UEBAHXZ 0000000180050ef0 f i libvcruntimed:undname.obj
 0001:0004ff10       ?setIsArray@DName@@QEAAXXZ 0000000180050f10 f i libvcruntimed:undname.obj
 0001:0004ff30       ?setIsComArray@DName@@QEAAXXZ 0000000180050f30 f i libvcruntimed:undname.obj
 0001:0004ff50       ?setIsNoTE@DName@@QEAAXXZ  0000000180050f50 f i libvcruntimed:undname.obj
 0001:0004ff70       ?setIsPinPtr@DName@@QEAAXXZ 0000000180050f70 f i libvcruntimed:undname.obj
 0001:0004ff90       ?setIsUDC@DName@@QEAAXXZ   0000000180050f90 f i libvcruntimed:undname.obj
 0001:0004ffc0       ?setIsVCallThunk@DName@@QEAAXXZ 0000000180050fc0 f i libvcruntimed:undname.obj
 0001:0004ffe0       ?setPtrRef@DName@@QEAAAEAV1@XZ 0000000180050fe0 f i libvcruntimed:undname.obj
 0001:00050000       ?status@DName@@QEBA?AW4DNameStatus@@XZ 0000000180051000 f i libvcruntimed:undname.obj
 0001:00050130       __unDName                  0000000180051130 f   libvcruntimed:undname.obj
 0001:00050190       __unDNameEx                0000000180051190 f   libvcruntimed:undname.obj
 0001:00050250       unDNameGenerateCHPE        0000000180051250 f   libvcruntimed:undname.obj
 0001:00050300       ??$__crt_interlocked_exchange_pointer@UHINSTANCE__@@PEAU1@@@YAPEAUHINSTANCE__@@PEDSEAU0@QEAU0@@Z 0000000180051300 f i libvcruntimed:winapi_downlevel.obj
 0001:00050320       ??$__crt_interlocked_exchange_pointer@UHINSTANCE__@@PEAX@@YAPEAUHINSTANCE__@@PEDSEAU0@QEAX@Z 0000000180051320 f i libvcruntimed:winapi_downlevel.obj
 0001:00050340       ??$__crt_interlocked_exchange_pointer@XPEAX@@YAPEAXPEDSEAXQEAX@Z 0000000180051340 f i libvcruntimed:winapi_downlevel.obj
 0001:00050360       ??$__crt_interlocked_read_pointer@UHINSTANCE__@@@@YAPEAUHINSTANCE__@@PEDSEAU0@@Z 0000000180051360 f i libvcruntimed:winapi_downlevel.obj
 0001:00050380       ??$__crt_interlocked_read_pointer@X@@YAPEAXPEDSEAX@Z 0000000180051380 f i libvcruntimed:winapi_downlevel.obj
 0001:00050890       __vcrt_FlsAlloc            0000000180051890 f   libvcruntimed:winapi_downlevel.obj
 0001:000508e0       __vcrt_FlsFree             00000001800518e0 f   libvcruntimed:winapi_downlevel.obj
 0001:00050930       __vcrt_FlsGetValue         0000000180051930 f   libvcruntimed:winapi_downlevel.obj
 0001:00050980       __vcrt_FlsSetValue         0000000180051980 f   libvcruntimed:winapi_downlevel.obj
 0001:000509e0       __vcrt_InitializeCriticalSectionEx 00000001800519e0 f   libvcruntimed:winapi_downlevel.obj
 0001:00050a60       _CallSettingFrame          0000000180051a60 f   libvcruntimed:handlers.obj
 0001:00050ab0       _CallSettingFrame_LookupContinuationIndex 0000000180051ab0 f   libvcruntimed:handlers.obj
 0001:00050ae0       _CallSettingFrame_NotifyContinuationAddr 0000000180051ae0 f   libvcruntimed:handlers.obj
 0001:00050b10       _CallSettingFrameEncoded   0000000180051b10 f   libvcruntimed:handlers.obj
 0001:00050b60       ??$?0AEBV?$stream_output_adapter@D@__crt_stdio_output@@AEB_KAEBQEBDAEBQEAU__crt_locale_pointers@@AEBQEAD@?$format_validation_base@DV?$stream_output_adapter@D@__crt_stdio_output@@@__crt_stdio_output@@IEAA@AEBV?$stream_output_adapter@D@1@AEB_KAEBQEBDAEBQEAU__crt_locale_pointers@@AEBQEAD@Z 0000000180051b60 f i libucrtd:output.obj
 0001:00050bb0       ??$?0AEBV?$stream_output_adapter@D@__crt_stdio_output@@AEB_KAEBQEBDAEBQEAU__crt_locale_pointers@@AEBQEAD@?$positional_parameter_base@DV?$stream_output_adapter@D@__crt_stdio_output@@@__crt_stdio_output@@IEAA@AEBV?$stream_output_adapter@D@1@AEB_KAEBQEBDAEBQEAU__crt_locale_pointers@@AEBQEAD@Z 0000000180051bb0 f i libucrtd:output.obj
 0001:00050c50       ??$?0AEBV?$stream_output_adapter@D@__crt_stdio_output@@AEB_KAEBQEBDAEBQEAU__crt_locale_pointers@@AEBQEAD@?$standard_base@DV?$stream_output_adapter@D@__crt_stdio_output@@@__crt_stdio_output@@IEAA@AEBV?$stream_output_adapter@D@1@AEB_KAEBQEBDAEBQEAU__crt_locale_pointers@@AEBQEAD@Z 0000000180051c50 f i libucrtd:output.obj
 0001:00050cc0       ??$?0AEBV?$stream_output_adapter@_W@__crt_stdio_output@@AEB_KAEBQEB_WAEBQEAU__crt_locale_pointers@@AEBQEAD@?$format_validation_base@_WV?$stream_output_adapter@_W@__crt_stdio_output@@@__crt_stdio_output@@IEAA@AEBV?$stream_output_adapter@_W@1@AEB_KAEBQEB_WAEBQEAU__crt_locale_pointers@@AEBQEAD@Z 0000000180051cc0 f i libucrtd:output.obj
 0001:00050d10       ??$?0AEBV?$stream_output_adapter@_W@__crt_stdio_output@@AEB_KAEBQEB_WAEBQEAU__crt_locale_pointers@@AEBQEAD@?$positional_parameter_base@_WV?$stream_output_adapter@_W@__crt_stdio_output@@@__crt_stdio_output@@IEAA@AEBV?$stream_output_adapter@_W@1@AEB_KAEBQEB_WAEBQEAU__crt_locale_pointers@@AEBQEAD@Z 0000000180051d10 f i libucrtd:output.obj
 0001:00050db0       ??$?0AEBV?$stream_output_adapter@_W@__crt_stdio_output@@AEB_KAEBQEB_WAEBQEAU__crt_locale_pointers@@AEBQEAD@?$standard_base@_WV?$stream_output_adapter@_W@__crt_stdio_output@@@__crt_stdio_output@@IEAA@AEBV?$stream_output_adapter@_W@1@AEB_KAEBQEB_WAEBQEAU__crt_locale_pointers@@AEBQEAD@Z 0000000180051db0 f i libucrtd:output.obj
 0001:00050e20       ??$?0AEBV?$string_output_adapter@D@__crt_stdio_output@@AEB_KAEBQEBDAEBQEAU__crt_locale_pointers@@AEBQEAD@?$format_validation_base@DV?$string_output_adapter@D@__crt_stdio_output@@@__crt_stdio_output@@IEAA@AEBV?$string_output_adapter@D@1@AEB_KAEBQEBDAEBQEAU__crt_locale_pointers@@AEBQEAD@Z 0000000180051e20 f i libucrtd:output.obj
 0001:00050e70       ??$?0AEBV?$string_output_adapter@D@__crt_stdio_output@@AEB_KAEBQEBDAEBQEAU__crt_locale_pointers@@AEBQEAD@?$positional_parameter_base@DV?$string_output_adapter@D@__crt_stdio_output@@@__crt_stdio_output@@IEAA@AEBV?$string_output_adapter@D@1@AEB_KAEBQEBDAEBQEAU__crt_locale_pointers@@AEBQEAD@Z 0000000180051e70 f i libucrtd:output.obj
 0001:00050f10       ??$?0AEBV?$string_output_adapter@D@__crt_stdio_output@@AEB_KAEBQEBDAEBQEAU__crt_locale_pointers@@AEBQEAD@?$standard_base@DV?$string_output_adapter@D@__crt_stdio_output@@@__crt_stdio_output@@IEAA@AEBV?$string_output_adapter@D@1@AEB_KAEBQEBDAEBQEAU__crt_locale_pointers@@AEBQEAD@Z 0000000180051f10 f i libucrtd:output.obj
 0001:00050f80       ??$?0AEBV?$string_output_adapter@_W@__crt_stdio_output@@AEB_KAEBQEB_WAEBQEAU__crt_locale_pointers@@AEBQEAD@?$format_validation_base@_WV?$string_output_adapter@_W@__crt_stdio_output@@@__crt_stdio_output@@IEAA@AEBV?$string_output_adapter@_W@1@AEB_KAEBQEB_WAEBQEAU__crt_locale_pointers@@AEBQEAD@Z 0000000180051f80 f i libucrtd:output.obj
 0001:00050fd0       ??$?0AEBV?$string_output_adapter@_W@__crt_stdio_output@@AEB_KAEBQEB_WAEBQEAU__crt_locale_pointers@@AEBQEAD@?$positional_parameter_base@_WV?$string_output_adapter@_W@__crt_stdio_output@@@__crt_stdio_output@@IEAA@AEBV?$string_output_adapter@_W@1@AEB_KAEBQEB_WAEBQEAU__crt_locale_pointers@@AEBQEAD@Z 0000000180051fd0 f i libucrtd:output.obj
 0001:00051070       ??$?0AEBV?$string_output_adapter@_W@__crt_stdio_output@@AEB_KAEBQEB_WAEBQEAU__crt_locale_pointers@@AEBQEAD@?$standard_base@_WV?$string_output_adapter@_W@__crt_stdio_output@@@__crt_stdio_output@@IEAA@AEBV?$string_output_adapter@_W@1@AEB_KAEBQEB_WAEBQEAU__crt_locale_pointers@@AEBQEAD@Z 0000000180052070 f i libucrtd:output.obj
 0001:000514a0       ??$__crt_interlocked_read@J@@YAJPEDJ@Z 00000001800524a0 f i libucrtd:output.obj
 0001:00054f80       ??$count@D@formatting_buffer@__crt_stdio_output@@QEBA_KXZ 0000000180055f80 f i libucrtd:output.obj
 0001:00054fd0       ??$count@_W@formatting_buffer@__crt_stdio_output@@QEBA_KXZ 0000000180055fd0 f i libucrtd:output.obj
 0001:00055020       ??$data@D@formatting_buffer@__crt_stdio_output@@QEAAPEADXZ 0000000180056020 f i libucrtd:output.obj
 0001:00055070       ??$data@_W@formatting_buffer@__crt_stdio_output@@QEAAPEA_WXZ 0000000180056070 f i libucrtd:output.obj
 0001:000550c0       ??$ensure_buffer_is_big_enough@D@formatting_buffer@__crt_stdio_output@@QEAA_N_K@Z 00000001800560c0 f i libucrtd:output.obj
 0001:000551f0       ??$ensure_buffer_is_big_enough@_W@formatting_buffer@__crt_stdio_output@@QEAA_N_K@Z 00000001800561f0 f i libucrtd:output.obj
 0001:00055320       ??$extract_argument_from_va_list@C_J@?$positional_parameter_base@DV?$stream_output_adapter@D@__crt_stdio_output@@@__crt_stdio_output@@IEAA_NAEA_J@Z 0000000180056320 f i libucrtd:output.obj
 0001:000554a0       ??$extract_argument_from_va_list@C_J@?$positional_parameter_base@DV?$string_output_adapter@D@__crt_stdio_output@@@__crt_stdio_output@@IEAA_NAEA_J@Z 00000001800564a0 f i libucrtd:output.obj
 0001:00055620       ??$extract_argument_from_va_list@C_J@?$positional_parameter_base@_WV?$stream_output_adapter@_W@__crt_stdio_output@@@__crt_stdio_output@@IEAA_NAEA_J@Z 0000000180056620 f i libucrtd:output.obj
 0001:000557a0       ??$extract_argument_from_va_list@C_J@?$positional_parameter_base@_WV?$string_output_adapter@_W@__crt_stdio_output@@@__crt_stdio_output@@IEAA_NAEA_J@Z 00000001800567a0 f i libucrtd:output.obj
 0001:00055920       ??$extract_argument_from_va_list@C_J@?$standard_base@DV?$stream_output_adapter@D@__crt_stdio_output@@@__crt_stdio_output@@IEAA_NAEA_J@Z 0000000180056920 f i libucrtd:output.obj
 0001:00055960       ??$extract_argument_from_va_list@C_J@?$standard_base@DV?$string_output_adapter@D@__crt_stdio_output@@@__crt_stdio_output@@IEAA_NAEA_J@Z 0000000180056960 f i libucrtd:output.obj
 0001:000559a0       ??$extract_argument_from_va_list@C_J@?$standard_base@_WV?$stream_output_adapter@_W@__crt_stdio_output@@@__crt_stdio_output@@IEAA_NAEA_J@Z 00000001800569a0 f i libucrtd:output.obj
 0001:000559e0       ??$extract_argument_from_va_list@C_J@?$standard_base@_WV?$string_output_adapter@_W@__crt_stdio_output@@@__crt_stdio_output@@IEAA_NAEA_J@Z 00000001800569e0 f i libucrtd:output.obj
 0001:00055a20       ??$extract_argument_from_va_list@E_J@?$positional_parameter_base@DV?$stream_output_adapter@D@__crt_stdio_output@@@__crt_stdio_output@@IEAA_NAEA_J@Z 0000000180056a20 f i libucrtd:output.obj
 0001:00055ba0       ??$extract_argument_from_va_list@E_J@?$positional_parameter_base@DV?$string_output_adapter@D@__crt_stdio_output@@@__crt_stdio_output@@IEAA_NAEA_J@Z 0000000180056ba0 f i libucrtd:output.obj
 0001:00055d20       ??$extract_argument_from_va_list@E_J@?$positional_parameter_base@_WV?$stream_output_adapter@_W@__crt_stdio_output@@@__crt_stdio_output@@IEAA_NAEA_J@Z 0000000180056d20 f i libucrtd:output.obj
 0001:00055ea0       ??$extract_argument_from_va_list@E_J@?$positional_parameter_base@_WV?$string_output_adapter@_W@__crt_stdio_output@@@__crt_stdio_output@@IEAA_NAEA_J@Z 0000000180056ea0 f i libucrtd:output.obj
 0001:00056020       ??$extract_argument_from_va_list@E_J@?$standard_base@DV?$stream_output_adapter@D@__crt_stdio_output@@@__crt_stdio_output@@IEAA_NAEA_J@Z 0000000180057020 f i libucrtd:output.obj
 0001:00056060       ??$extract_argument_from_va_list@E_J@?$standard_base@DV?$string_output_adapter@D@__crt_stdio_output@@@__crt_stdio_output@@IEAA_NAEA_J@Z 0000000180057060 f i libucrtd:output.obj
 0001:000560a0       ??$extract_argument_from_va_list@E_J@?$standard_base@_WV?$stream_output_adapter@_W@__crt_stdio_output@@@__crt_stdio_output@@IEAA_NAEA_J@Z 00000001800570a0 f i libucrtd:output.obj
 0001:000560e0       ??$extract_argument_from_va_list@E_J@?$standard_base@_WV?$string_output_adapter@_W@__crt_stdio_output@@@__crt_stdio_output@@IEAA_NAEA_J@Z 00000001800570e0 f i libucrtd:output.obj
 0001:00056120       ??$extract_argument_from_va_list@F_J@?$positional_parameter_base@DV?$stream_output_adapter@D@__crt_stdio_output@@@__crt_stdio_output@@IEAA_NAEA_J@Z 0000000180057120 f i libucrtd:output.obj
 0001:000562a0       ??$extract_argument_from_va_list@F_J@?$positional_parameter_base@DV?$string_output_adapter@D@__crt_stdio_output@@@__crt_stdio_output@@IEAA_NAEA_J@Z 00000001800572a0 f i libucrtd:output.obj
 0001:00056420       ??$extract_argument_from_va_list@F_J@?$positional_parameter_base@_WV?$stream_output_adapter@_W@__crt_stdio_output@@@__crt_stdio_output@@IEAA_NAEA_J@Z 0000000180057420 f i libucrtd:output.obj
 0001:000565a0       ??$extract_argument_from_va_list@F_J@?$positional_parameter_base@_WV?$string_output_adapter@_W@__crt_stdio_output@@@__crt_stdio_output@@IEAA_NAEA_J@Z 00000001800575a0 f i libucrtd:output.obj
 0001:00056720       ??$extract_argument_from_va_list@F_J@?$standard_base@DV?$stream_output_adapter@D@__crt_stdio_output@@@__crt_stdio_output@@IEAA_NAEA_J@Z 0000000180057720 f i libucrtd:output.obj
 0001:00056760       ??$extract_argument_from_va_list@F_J@?$standard_base@DV?$string_output_adapter@D@__crt_stdio_output@@@__crt_stdio_output@@IEAA_NAEA_J@Z 0000000180057760 f i libucrtd:output.obj
 0001:000567a0       ??$extract_argument_from_va_list@F_J@?$standard_base@_WV?$stream_output_adapter@_W@__crt_stdio_output@@@__crt_stdio_output@@IEAA_NAEA_J@Z 00000001800577a0 f i libucrtd:output.obj
 0001:000567e0       ??$extract_argument_from_va_list@F_J@?$standard_base@_WV?$string_output_adapter@_W@__crt_stdio_output@@@__crt_stdio_output@@IEAA_NAEA_J@Z 00000001800577e0 f i libucrtd:output.obj
 0001:00056820       ??$extract_argument_from_va_list@GD@?$positional_parameter_base@DV?$stream_output_adapter@D@__crt_stdio_output@@@__crt_stdio_output@@IEAA_NAEAD@Z 0000000180057820 f i libucrtd:output.obj
 0001:000569a0       ??$extract_argument_from_va_list@GD@?$positional_parameter_base@DV?$string_output_adapter@D@__crt_stdio_output@@@__crt_stdio_output@@IEAA_NAEAD@Z 00000001800579a0 f i libucrtd:output.obj
 0001:00056b20       ??$extract_argument_from_va_list@GD@?$standard_base@DV?$stream_output_adapter@D@__crt_stdio_output@@@__crt_stdio_output@@IEAA_NAEAD@Z 0000000180057b20 f i libucrtd:output.obj
 0001:00056b50       ??$extract_argument_from_va_list@GD@?$standard_base@DV?$string_output_adapter@D@__crt_stdio_output@@@__crt_stdio_output@@IEAA_NAEAD@Z 0000000180057b50 f i libucrtd:output.obj
 0001:00056b80       ??$extract_argument_from_va_list@G_J@?$positional_parameter_base@DV?$stream_output_adapter@D@__crt_stdio_output@@@__crt_stdio_output@@IEAA_NAEA_J@Z 0000000180057b80 f i libucrtd:output.obj
 0001:00056d00       ??$extract_argument_from_va_list@G_J@?$positional_parameter_base@DV?$string_output_adapter@D@__crt_stdio_output@@@__crt_stdio_output@@IEAA_NAEA_J@Z 0000000180057d00 f i libucrtd:output.obj
 0001:00056e80       ??$extract_argument_from_va_list@G_J@?$positional_parameter_base@_WV?$stream_output_adapter@_W@__crt_stdio_output@@@__crt_stdio_output@@IEAA_NAEA_J@Z 0000000180057e80 f i libucrtd:output.obj
 0001:00057000       ??$extract_argument_from_va_list@G_J@?$positional_parameter_base@_WV?$string_output_adapter@_W@__crt_stdio_output@@@__crt_stdio_output@@IEAA_NAEA_J@Z 0000000180058000 f i libucrtd:output.obj
 0001:00057180       ??$extract_argument_from_va_list@G_J@?$standard_base@DV?$stream_output_adapter@D@__crt_stdio_output@@@__crt_stdio_output@@IEAA_NAEA_J@Z 0000000180058180 f i libucrtd:output.obj
 0001:000571c0       ??$extract_argument_from_va_list@G_J@?$standard_base@DV?$string_output_adapter@D@__crt_stdio_output@@@__crt_stdio_output@@IEAA_NAEA_J@Z 00000001800581c0 f i libucrtd:output.obj
 0001:00057200       ??$extract_argument_from_va_list@G_J@?$standard_base@_WV?$stream_output_adapter@_W@__crt_stdio_output@@@__crt_stdio_output@@IEAA_NAEA_J@Z 0000000180058200 f i libucrtd:output.obj
 0001:00057240       ??$extract_argument_from_va_list@G_J@?$standard_base@_WV?$string_output_adapter@_W@__crt_stdio_output@@@__crt_stdio_output@@IEAA_NAEA_J@Z 0000000180058240 f i libucrtd:output.obj
 0001:00057280       ??$extract_argument_from_va_list@H_J@?$positional_parameter_base@DV?$stream_output_adapter@D@__crt_stdio_output@@@__crt_stdio_output@@IEAA_NAEA_J@Z 0000000180058280 f i libucrtd:output.obj
 0001:00057400       ??$extract_argument_from_va_list@H_J@?$positional_parameter_base@DV?$string_output_adapter@D@__crt_stdio_output@@@__crt_stdio_output@@IEAA_NAEA_J@Z 0000000180058400 f i libucrtd:output.obj
 0001:00057580       ??$extract_argument_from_va_list@H_J@?$positional_parameter_base@_WV?$stream_output_adapter@_W@__crt_stdio_output@@@__crt_stdio_output@@IEAA_NAEA_J@Z 0000000180058580 f i libucrtd:output.obj
 0001:00057700       ??$extract_argument_from_va_list@H_J@?$positional_parameter_base@_WV?$string_output_adapter@_W@__crt_stdio_output@@@__crt_stdio_output@@IEAA_NAEA_J@Z 0000000180058700 f i libucrtd:output.obj
 0001:00057880       ??$extract_argument_from_va_list@H_J@?$standard_base@DV?$stream_output_adapter@D@__crt_stdio_output@@@__crt_stdio_output@@IEAA_NAEA_J@Z 0000000180058880 f i libucrtd:output.obj
 0001:000578b0       ??$extract_argument_from_va_list@H_J@?$standard_base@DV?$string_output_adapter@D@__crt_stdio_output@@@__crt_stdio_output@@IEAA_NAEA_J@Z 00000001800588b0 f i libucrtd:output.obj
 0001:000578e0       ??$extract_argument_from_va_list@H_J@?$standard_base@_WV?$stream_output_adapter@_W@__crt_stdio_output@@@__crt_stdio_output@@IEAA_NAEA_J@Z 00000001800588e0 f i libucrtd:output.obj
 0001:00057910       ??$extract_argument_from_va_list@H_J@?$standard_base@_WV?$string_output_adapter@_W@__crt_stdio_output@@@__crt_stdio_output@@IEAA_NAEA_J@Z 0000000180058910 f i libucrtd:output.obj
 0001:00057940       ??$extract_argument_from_va_list@I_J@?$positional_parameter_base@DV?$stream_output_adapter@D@__crt_stdio_output@@@__crt_stdio_output@@IEAA_NAEA_J@Z 0000000180058940 f i libucrtd:output.obj
 0001:00057ac0       ??$extract_argument_from_va_list@I_J@?$positional_parameter_base@DV?$string_output_adapter@D@__crt_stdio_output@@@__crt_stdio_output@@IEAA_NAEA_J@Z 0000000180058ac0 f i libucrtd:output.obj
 0001:00057c40       ??$extract_argument_from_va_list@I_J@?$positional_parameter_base@_WV?$stream_output_adapter@_W@__crt_stdio_output@@@__crt_stdio_output@@IEAA_NAEA_J@Z 0000000180058c40 f i libucrtd:output.obj
 0001:00057dc0       ??$extract_argument_from_va_list@I_J@?$positional_parameter_base@_WV?$string_output_adapter@_W@__crt_stdio_output@@@__crt_stdio_output@@IEAA_NAEA_J@Z 0000000180058dc0 f i libucrtd:output.obj
 0001:00057f40       ??$extract_argument_from_va_list@I_J@?$standard_base@DV?$stream_output_adapter@D@__crt_stdio_output@@@__crt_stdio_output@@IEAA_NAEA_J@Z 0000000180058f40 f i libucrtd:output.obj
 0001:00057f70       ??$extract_argument_from_va_list@I_J@?$standard_base@DV?$string_output_adapter@D@__crt_stdio_output@@@__crt_stdio_output@@IEAA_NAEA_J@Z 0000000180058f70 f i libucrtd:output.obj
 0001:00057fa0       ??$extract_argument_from_va_list@I_J@?$standard_base@_WV?$stream_output_adapter@_W@__crt_stdio_output@@@__crt_stdio_output@@IEAA_NAEA_J@Z 0000000180058fa0 f i libucrtd:output.obj
 0001:00057fd0       ??$extract_argument_from_va_list@I_J@?$standard_base@_WV?$string_output_adapter@_W@__crt_stdio_output@@@__crt_stdio_output@@IEAA_NAEA_J@Z 0000000180058fd0 f i libucrtd:output.obj
 0001:00058000       ??$extract_argument_from_va_list@PEADPEAD@?$positional_parameter_base@DV?$stream_output_adapter@D@__crt_stdio_output@@@__crt_stdio_output@@IEAA_NAEAPEAD@Z 0000000180059000 f i libucrtd:output.obj
 0001:00058180       ??$extract_argument_from_va_list@PEADPEAD@?$positional_parameter_base@DV?$string_output_adapter@D@__crt_stdio_output@@@__crt_stdio_output@@IEAA_NAEAPEAD@Z 0000000180059180 f i libucrtd:output.obj
 0001:00058300       ??$extract_argument_from_va_list@PEADPEAD@?$positional_parameter_base@_WV?$stream_output_adapter@_W@__crt_stdio_output@@@__crt_stdio_output@@IEAA_NAEAPEAD@Z 0000000180059300 f i libucrtd:output.obj
 0001:00058480       ??$extract_argument_from_va_list@PEADPEAD@?$positional_parameter_base@_WV?$string_output_adapter@_W@__crt_stdio_output@@@__crt_stdio_output@@IEAA_NAEAPEAD@Z 0000000180059480 f i libucrtd:output.obj
 0001:00058600       ??$extract_argument_from_va_list@PEADPEAD@?$standard_base@DV?$stream_output_adapter@D@__crt_stdio_output@@@__crt_stdio_output@@IEAA_NAEAPEAD@Z 0000000180059600 f i libucrtd:output.obj
 0001:00058630       ??$extract_argument_from_va_list@PEADPEAD@?$standard_base@DV?$string_output_adapter@D@__crt_stdio_output@@@__crt_stdio_output@@IEAA_NAEAPEAD@Z 0000000180059630 f i libucrtd:output.obj
 0001:00058660       ??$extract_argument_from_va_list@PEADPEAD@?$standard_base@_WV?$stream_output_adapter@_W@__crt_stdio_output@@@__crt_stdio_output@@IEAA_NAEAPEAD@Z 0000000180059660 f i libucrtd:output.obj
 0001:00058690       ??$extract_argument_from_va_list@PEADPEAD@?$standard_base@_WV?$string_output_adapter@_W@__crt_stdio_output@@@__crt_stdio_output@@IEAA_NAEAPEAD@Z 0000000180059690 f i libucrtd:output.obj
 0001:00058f00       ??$extract_argument_from_va_list@PEAXPEAX@?$positional_parameter_base@DV?$stream_output_adapter@D@__crt_stdio_output@@@__crt_stdio_output@@IEAA_NAEAPEAX@Z 0000000180059f00 f i libucrtd:output.obj
 0001:00059080       ??$extract_argument_from_va_list@PEAXPEAX@?$positional_parameter_base@DV?$string_output_adapter@D@__crt_stdio_output@@@__crt_stdio_output@@IEAA_NAEAPEAX@Z 000000018005a080 f i libucrtd:output.obj
 0001:00059200       ??$extract_argument_from_va_list@PEAXPEAX@?$positional_parameter_base@_WV?$stream_output_adapter@_W@__crt_stdio_output@@@__crt_stdio_output@@IEAA_NAEAPEAX@Z 000000018005a200 f i libucrtd:output.obj
 0001:00059380       ??$extract_argument_from_va_list@PEAXPEAX@?$positional_parameter_base@_WV?$string_output_adapter@_W@__crt_stdio_output@@@__crt_stdio_output@@IEAA_NAEAPEAX@Z 000000018005a380 f i libucrtd:output.obj
 0001:00059500       ??$extract_argument_from_va_list@PEAXPEAX@?$standard_base@DV?$stream_output_adapter@D@__crt_stdio_output@@@__crt_stdio_output@@IEAA_NAEAPEAX@Z 000000018005a500 f i libucrtd:output.obj
 0001:00059530       ??$extract_argument_from_va_list@PEAXPEAX@?$standard_base@DV?$string_output_adapter@D@__crt_stdio_output@@@__crt_stdio_output@@IEAA_NAEAPEAX@Z 000000018005a530 f i libucrtd:output.obj
 0001:00059560       ??$extract_argument_from_va_list@PEAXPEAX@?$standard_base@_WV?$stream_output_adapter@_W@__crt_stdio_output@@@__crt_stdio_output@@IEAA_NAEAPEAX@Z 000000018005a560 f i libucrtd:output.obj
 0001:00059590       ??$extract_argument_from_va_list@PEAXPEAX@?$standard_base@_WV?$string_output_adapter@_W@__crt_stdio_output@@@__crt_stdio_output@@IEAA_NAEAPEAX@Z 000000018005a590 f i libucrtd:output.obj
 0001:000595c0       ??$extract_argument_from_va_list@U_CRT_DOUBLE@@U1@@?$positional_parameter_base@DV?$stream_output_adapter@D@__crt_stdio_output@@@__crt_stdio_output@@IEAA_NAEAU_CRT_DOUBLE@@@Z 000000018005a5c0 f i libucrtd:output.obj
 0001:00059760       ??$extract_argument_from_va_list@U_CRT_DOUBLE@@U1@@?$positional_parameter_base@DV?$string_output_adapter@D@__crt_stdio_output@@@__crt_stdio_output@@IEAA_NAEAU_CRT_DOUBLE@@@Z 000000018005a760 f i libucrtd:output.obj
 0001:00059900       ??$extract_argument_from_va_list@U_CRT_DOUBLE@@U1@@?$positional_parameter_base@_WV?$stream_output_adapter@_W@__crt_stdio_output@@@__crt_stdio_output@@IEAA_NAEAU_CRT_DOUBLE@@@Z 000000018005a900 f i libucrtd:output.obj
 0001:00059aa0       ??$extract_argument_from_va_list@U_CRT_DOUBLE@@U1@@?$positional_parameter_base@_WV?$string_output_adapter@_W@__crt_stdio_output@@@__crt_stdio_output@@IEAA_NAEAU_CRT_DOUBLE@@@Z 000000018005aaa0 f i libucrtd:output.obj
 0001:00059c40       ??$extract_argument_from_va_list@U_CRT_DOUBLE@@U1@@?$standard_base@DV?$stream_output_adapter@D@__crt_stdio_output@@@__crt_stdio_output@@IEAA_NAEAU_CRT_DOUBLE@@@Z 000000018005ac40 f i libucrtd:output.obj
 0001:00059c90       ??$extract_argument_from_va_list@U_CRT_DOUBLE@@U1@@?$standard_base@DV?$string_output_adapter@D@__crt_stdio_output@@@__crt_stdio_output@@IEAA_NAEAU_CRT_DOUBLE@@@Z 000000018005ac90 f i libucrtd:output.obj
 0001:00059ce0       ??$extract_argument_from_va_list@U_CRT_DOUBLE@@U1@@?$standard_base@_WV?$stream_output_adapter@_W@__crt_stdio_output@@@__crt_stdio_output@@IEAA_NAEAU_CRT_DOUBLE@@@Z 000000018005ace0 f i libucrtd:output.obj
 0001:00059d30       ??$extract_argument_from_va_list@U_CRT_DOUBLE@@U1@@?$standard_base@_WV?$string_output_adapter@_W@__crt_stdio_output@@@__crt_stdio_output@@IEAA_NAEAU_CRT_DOUBLE@@@Z 000000018005ad30 f i libucrtd:output.obj
 0001:00059d80       ??$extract_argument_from_va_list@_J_J@?$positional_parameter_base@DV?$stream_output_adapter@D@__crt_stdio_output@@@__crt_stdio_output@@IEAA_NAEA_J@Z 000000018005ad80 f i libucrtd:output.obj
 0001:00059f00       ??$extract_argument_from_va_list@_J_J@?$positional_parameter_base@DV?$string_output_adapter@D@__crt_stdio_output@@@__crt_stdio_output@@IEAA_NAEA_J@Z 000000018005af00 f i libucrtd:output.obj
 0001:0005a080       ??$extract_argument_from_va_list@_J_J@?$positional_parameter_base@_WV?$stream_output_adapter@_W@__crt_stdio_output@@@__crt_stdio_output@@IEAA_NAEA_J@Z 000000018005b080 f i libucrtd:output.obj
 0001:0005a200       ??$extract_argument_from_va_list@_J_J@?$positional_parameter_base@_WV?$string_output_adapter@_W@__crt_stdio_output@@@__crt_stdio_output@@IEAA_NAEA_J@Z 000000018005b200 f i libucrtd:output.obj
 0001:0005a380       ??$extract_argument_from_va_list@_J_J@?$standard_base@DV?$stream_output_adapter@D@__crt_stdio_output@@@__crt_stdio_output@@IEAA_NAEA_J@Z 000000018005b380 f i libucrtd:output.obj
 0001:0005a3b0       ??$extract_argument_from_va_list@_J_J@?$standard_base@DV?$string_output_adapter@D@__crt_stdio_output@@@__crt_stdio_output@@IEAA_NAEA_J@Z 000000018005b3b0 f i libucrtd:output.obj
 0001:0005a3e0       ??$extract_argument_from_va_list@_J_J@?$standard_base@_WV?$stream_output_adapter@_W@__crt_stdio_output@@@__crt_stdio_output@@IEAA_NAEA_J@Z 000000018005b3e0 f i libucrtd:output.obj
 0001:0005a410       ??$extract_argument_from_va_list@_J_J@?$standard_base@_WV?$string_output_adapter@_W@__crt_stdio_output@@@__crt_stdio_output@@IEAA_NAEA_J@Z 000000018005b410 f i libucrtd:output.obj
 0001:0005a440       ??$extract_argument_from_va_list@_K_J@?$positional_parameter_base@DV?$stream_output_adapter@D@__crt_stdio_output@@@__crt_stdio_output@@IEAA_NAEA_J@Z 000000018005b440 f i libucrtd:output.obj
 0001:0005a5c0       ??$extract_argument_from_va_list@_K_J@?$positional_parameter_base@DV?$string_output_adapter@D@__crt_stdio_output@@@__crt_stdio_output@@IEAA_NAEA_J@Z 000000018005b5c0 f i libucrtd:output.obj
 0001:0005a740       ??$extract_argument_from_va_list@_K_J@?$positional_parameter_base@_WV?$stream_output_adapter@_W@__crt_stdio_output@@@__crt_stdio_output@@IEAA_NAEA_J@Z 000000018005b740 f i libucrtd:output.obj
 0001:0005a8c0       ??$extract_argument_from_va_list@_K_J@?$positional_parameter_base@_WV?$string_output_adapter@_W@__crt_stdio_output@@@__crt_stdio_output@@IEAA_NAEA_J@Z 000000018005b8c0 f i libucrtd:output.obj
 0001:0005aa40       ??$extract_argument_from_va_list@_K_J@?$standard_base@DV?$stream_output_adapter@D@__crt_stdio_output@@@__crt_stdio_output@@IEAA_NAEA_J@Z 000000018005ba40 f i libucrtd:output.obj
 0001:0005aa70       ??$extract_argument_from_va_list@_K_J@?$standard_base@DV?$string_output_adapter@D@__crt_stdio_output@@@__crt_stdio_output@@IEAA_NAEA_J@Z 000000018005ba70 f i libucrtd:output.obj
 0001:0005aaa0       ??$extract_argument_from_va_list@_K_J@?$standard_base@_WV?$stream_output_adapter@_W@__crt_stdio_output@@@__crt_stdio_output@@IEAA_NAEA_J@Z 000000018005baa0 f i libucrtd:output.obj
 0001:0005aad0       ??$extract_argument_from_va_list@_K_J@?$standard_base@_WV?$string_output_adapter@_W@__crt_stdio_output@@@__crt_stdio_output@@IEAA_NAEA_J@Z 000000018005bad0 f i libucrtd:output.obj
 0001:0005ab00       ??$extract_argument_from_va_list@_W_W@?$positional_parameter_base@DV?$stream_output_adapter@D@__crt_stdio_output@@@__crt_stdio_output@@IEAA_NAEA_W@Z 000000018005bb00 f i libucrtd:output.obj
 0001:0005ac80       ??$extract_argument_from_va_list@_W_W@?$positional_parameter_base@DV?$string_output_adapter@D@__crt_stdio_output@@@__crt_stdio_output@@IEAA_NAEA_W@Z 000000018005bc80 f i libucrtd:output.obj
 0001:0005ae00       ??$extract_argument_from_va_list@_W_W@?$positional_parameter_base@_WV?$stream_output_adapter@_W@__crt_stdio_output@@@__crt_stdio_output@@IEAA_NAEA_W@Z 000000018005be00 f i libucrtd:output.obj
 0001:0005af80       ??$extract_argument_from_va_list@_W_W@?$positional_parameter_base@_WV?$string_output_adapter@_W@__crt_stdio_output@@@__crt_stdio_output@@IEAA_NAEA_W@Z 000000018005bf80 f i libucrtd:output.obj
 0001:0005b100       ??$extract_argument_from_va_list@_W_W@?$standard_base@DV?$stream_output_adapter@D@__crt_stdio_output@@@__crt_stdio_output@@IEAA_NAEA_W@Z 000000018005c100 f i libucrtd:output.obj
 0001:0005b130       ??$extract_argument_from_va_list@_W_W@?$standard_base@DV?$string_output_adapter@D@__crt_stdio_output@@@__crt_stdio_output@@IEAA_NAEA_W@Z 000000018005c130 f i libucrtd:output.obj
 0001:0005b160       ??$extract_argument_from_va_list@_W_W@?$standard_base@_WV?$stream_output_adapter@_W@__crt_stdio_output@@@__crt_stdio_output@@IEAA_NAEA_W@Z 000000018005c160 f i libucrtd:output.obj
 0001:0005b190       ??$extract_argument_from_va_list@_W_W@?$standard_base@_WV?$string_output_adapter@_W@__crt_stdio_output@@@__crt_stdio_output@@IEAA_NAEA_W@Z 000000018005c190 f i libucrtd:output.obj
 0001:0005b1c0       ??$get_parameter_type@D@?$positional_parameter_base@DV?$stream_output_adapter@D@__crt_stdio_output@@@__crt_stdio_output@@CA?AW4parameter_type@01@PEAD@Z 000000018005c1c0 f i libucrtd:output.obj
 0001:0005b1d0       ??$get_parameter_type@D@?$positional_parameter_base@DV?$string_output_adapter@D@__crt_stdio_output@@@__crt_stdio_output@@CA?AW4parameter_type@01@PEAD@Z 000000018005c1d0 f i libucrtd:output.obj
 0001:0005b1e0       ??$get_parameter_type@D@?$positional_parameter_base@_WV?$stream_output_adapter@_W@__crt_stdio_output@@@__crt_stdio_output@@CA?AW4parameter_type@01@PEAD@Z 000000018005c1e0 f i libucrtd:output.obj
 0001:0005b1f0       ??$get_parameter_type@D@?$positional_parameter_base@_WV?$string_output_adapter@_W@__crt_stdio_output@@@__crt_stdio_output@@CA?AW4parameter_type@01@PEAD@Z 000000018005c1f0 f i libucrtd:output.obj
 0001:0005b240       ??$get_parameter_type@X@?$positional_parameter_base@DV?$stream_output_adapter@D@__crt_stdio_output@@@__crt_stdio_output@@CA?AW4parameter_type@01@PEAX@Z 000000018005c240 f i libucrtd:output.obj
 0001:0005b250       ??$get_parameter_type@X@?$positional_parameter_base@DV?$string_output_adapter@D@__crt_stdio_output@@@__crt_stdio_output@@CA?AW4parameter_type@01@PEAX@Z 000000018005c250 f i libucrtd:output.obj
 0001:0005b260       ??$get_parameter_type@X@?$positional_parameter_base@_WV?$stream_output_adapter@_W@__crt_stdio_output@@@__crt_stdio_output@@CA?AW4parameter_type@01@PEAX@Z 000000018005c260 f i libucrtd:output.obj
 0001:0005b270       ??$get_parameter_type@X@?$positional_parameter_base@_WV?$string_output_adapter@_W@__crt_stdio_output@@@__crt_stdio_output@@CA?AW4parameter_type@01@PEAX@Z 000000018005c270 f i libucrtd:output.obj
 0001:0005b280       ??$is_character_specifier@D@?$positional_parameter_base@DV?$stream_output_adapter@D@__crt_stdio_output@@@__crt_stdio_output@@CA_ND@Z 000000018005c280 f i libucrtd:output.obj
 0001:0005b2c0       ??$is_character_specifier@D@?$positional_parameter_base@DV?$string_output_adapter@D@__crt_stdio_output@@@__crt_stdio_output@@CA_ND@Z 000000018005c2c0 f i libucrtd:output.obj
 0001:0005b300       ??$is_character_specifier@_W@?$positional_parameter_base@_WV?$stream_output_adapter@_W@__crt_stdio_output@@@__crt_stdio_output@@CA_N_W@Z 000000018005c300 f i libucrtd:output.obj
 0001:0005b340       ??$is_character_specifier@_W@?$positional_parameter_base@_WV?$string_output_adapter@_W@__crt_stdio_output@@@__crt_stdio_output@@CA_N_W@Z 000000018005c340 f i libucrtd:output.obj
 0001:0005b380       ??$is_integral_specifier@D@?$positional_parameter_base@DV?$stream_output_adapter@D@__crt_stdio_output@@@__crt_stdio_output@@CA_ND@Z 000000018005c380 f i libucrtd:output.obj
 0001:0005b3f0       ??$is_integral_specifier@D@?$positional_parameter_base@DV?$string_output_adapter@D@__crt_stdio_output@@@__crt_stdio_output@@CA_ND@Z 000000018005c3f0 f i libucrtd:output.obj
 0001:0005b460       ??$is_integral_specifier@_W@?$positional_parameter_base@_WV?$stream_output_adapter@_W@__crt_stdio_output@@@__crt_stdio_output@@CA_N_W@Z 000000018005c460 f i libucrtd:output.obj
 0001:0005b4d0       ??$is_integral_specifier@_W@?$positional_parameter_base@_WV?$string_output_adapter@_W@__crt_stdio_output@@@__crt_stdio_output@@CA_N_W@Z 000000018005c4d0 f i libucrtd:output.obj
 0001:0005b540       ??$is_pointer_specifier@D@?$positional_parameter_base@DV?$stream_output_adapter@D@__crt_stdio_output@@@__crt_stdio_output@@CA_ND@Z 000000018005c540 f i libucrtd:output.obj
 0001:0005b570       ??$is_pointer_specifier@D@?$positional_parameter_base@DV?$string_output_adapter@D@__crt_stdio_output@@@__crt_stdio_output@@CA_ND@Z 000000018005c570 f i libucrtd:output.obj
 0001:0005b5a0       ??$is_pointer_specifier@_W@?$positional_parameter_base@_WV?$stream_output_adapter@_W@__crt_stdio_output@@@__crt_stdio_output@@CA_N_W@Z 000000018005c5a0 f i libucrtd:output.obj
 0001:0005b5d0       ??$is_pointer_specifier@_W@?$positional_parameter_base@_WV?$string_output_adapter@_W@__crt_stdio_output@@@__crt_stdio_output@@CA_N_W@Z 000000018005c5d0 f i libucrtd:output.obj
 0001:0005b600       ??$is_string_specifier@D@?$positional_parameter_base@DV?$stream_output_adapter@D@__crt_stdio_output@@@__crt_stdio_output@@CA_ND@Z 000000018005c600 f i libucrtd:output.obj
 0001:0005b640       ??$is_string_specifier@D@?$positional_parameter_base@DV?$string_output_adapter@D@__crt_stdio_output@@@__crt_stdio_output@@CA_ND@Z 000000018005c640 f i libucrtd:output.obj
 0001:0005b680       ??$is_string_specifier@_W@?$positional_parameter_base@_WV?$stream_output_adapter@_W@__crt_stdio_output@@@__crt_stdio_output@@CA_N_W@Z 000000018005c680 f i libucrtd:output.obj
 0001:0005b6c0       ??$is_string_specifier@_W@?$positional_parameter_base@_WV?$string_output_adapter@_W@__crt_stdio_output@@@__crt_stdio_output@@CA_N_W@Z 000000018005c6c0 f i libucrtd:output.obj
 0001:0005b700       ??$is_wide_character_specifier@D@__crt_stdio_output@@YA_N_KDW4length_modifier@0@@Z 000000018005c700 f i libucrtd:output.obj
 0001:0005b7a0       ??$is_wide_character_specifier@_W@__crt_stdio_output@@YA_N_K_WW4length_modifier@0@@Z 000000018005c7a0 f i libucrtd:output.obj
 0001:0005b870       ??$peek_va_arg@C@__crt_stdio_output@@YACPEAD@Z 000000018005c870 f i libucrtd:output.obj
 0001:0005b8d0       ??$peek_va_arg@E@__crt_stdio_output@@YAEPEAD@Z 000000018005c8d0 f i libucrtd:output.obj
 0001:0005b930       ??$peek_va_arg@F@__crt_stdio_output@@YAFPEAD@Z 000000018005c930 f i libucrtd:output.obj
 0001:0005b990       ??$peek_va_arg@G@__crt_stdio_output@@YAGPEAD@Z 000000018005c990 f i libucrtd:output.obj
 0001:0005b9f0       ??$peek_va_arg@H@__crt_stdio_output@@YAHPEAD@Z 000000018005c9f0 f i libucrtd:output.obj
 0001:0005ba40       ??$peek_va_arg@I@__crt_stdio_output@@YAIPEAD@Z 000000018005ca40 f i libucrtd:output.obj
 0001:0005ba90       ??$peek_va_arg@PEAD@__crt_stdio_output@@YAPEADPEAD@Z 000000018005ca90 f i libucrtd:output.obj
 0001:0005bc70       ??$peek_va_arg@PEAX@__crt_stdio_output@@YAPEAXPEAD@Z 000000018005cc70 f i libucrtd:output.obj
 0001:0005bcd0       ??$peek_va_arg@U_CRT_DOUBLE@@@__crt_stdio_output@@YA?AU_CRT_DOUBLE@@PEAD@Z 000000018005ccd0 f i libucrtd:output.obj
 0001:0005bd30       ??$peek_va_arg@_J@__crt_stdio_output@@YA_JPEAD@Z 000000018005cd30 f i libucrtd:output.obj
 0001:0005bd90       ??$peek_va_arg@_K@__crt_stdio_output@@YA_KPEAD@Z 000000018005cd90 f i libucrtd:output.obj
 0001:0005bdf0       ??$peek_va_arg@_W@__crt_stdio_output@@YA_WPEAD@Z 000000018005cdf0 f i libucrtd:output.obj
 0001:0005be50       ??$puttc_nolock@AEBDPEAU_iobuf@@@?$__crt_char_traits@D@@SAHAEBD$$QEAPEAU_iobuf@@@Z 000000018005ce50 f i libucrtd:output.obj
 0001:0005be80       ??$puttc_nolock@AEB_WPEAU_iobuf@@@?$__crt_char_traits@_W@@SAGAEB_W$$QEAPEAU_iobuf@@@Z 000000018005ce80 f i libucrtd:output.obj
 0001:0005beb0       ??$read_va_arg@C@__crt_stdio_output@@YACAEAPEAD@Z 000000018005ceb0 f i libucrtd:output.obj
 0001:0005bf20       ??$read_va_arg@E@__crt_stdio_output@@YAEAEAPEAD@Z 000000018005cf20 f i libucrtd:output.obj
 0001:0005bf90       ??$read_va_arg@F@__crt_stdio_output@@YAFAEAPEAD@Z 000000018005cf90 f i libucrtd:output.obj
 0001:0005c000       ??$read_va_arg@G@__crt_stdio_output@@YAGAEAPEAD@Z 000000018005d000 f i libucrtd:output.obj
 0001:0005c070       ??$read_va_arg@H@__crt_stdio_output@@YAHAEAPEAD@Z 000000018005d070 f i libucrtd:output.obj
 0001:0005c0d0       ??$read_va_arg@I@__crt_stdio_output@@YAIAEAPEAD@Z 000000018005d0d0 f i libucrtd:output.obj
 0001:0005c130       ??$read_va_arg@PEAD@__crt_stdio_output@@YAPEADAEAPEAD@Z 000000018005d130 f i libucrtd:output.obj
 0001:0005c6e0       ??$read_va_arg@PEAX@__crt_stdio_output@@YAPEAXAEAPEAD@Z 000000018005d6e0 f i libucrtd:output.obj
 0001:0005c750       ??$read_va_arg@U_CRT_DOUBLE@@@__crt_stdio_output@@YA?AU_CRT_DOUBLE@@AEAPEAD@Z 000000018005d750 f i libucrtd:output.obj
 0001:0005c7c0       ??$read_va_arg@_J@__crt_stdio_output@@YA_JAEAPEAD@Z 000000018005d7c0 f i libucrtd:output.obj
 0001:0005c830       ??$read_va_arg@_K@__crt_stdio_output@@YA_KAEAPEAD@Z 000000018005d830 f i libucrtd:output.obj
 0001:0005c8a0       ??$read_va_arg@_W@__crt_stdio_output@@YA_WAEAPEAD@Z 000000018005d8a0 f i libucrtd:output.obj
 0001:0005c910       ??$scratch_count@D@formatting_buffer@__crt_stdio_output@@QEBA_KXZ 000000018005d910 f i libucrtd:output.obj
 0001:0005c930       ??$scratch_data@D@formatting_buffer@__crt_stdio_output@@QEAAPEADXZ 000000018005d930 f i libucrtd:output.obj
 0001:0005c9a0       ??$tcstol@AEAPEBDPEAPEADH@?$__crt_char_traits@D@@SAJAEAPEBD$$QEAPEAPEAD$$QEAH@Z 000000018005d9a0 f i libucrtd:output.obj
 0001:0005c9e0       ??$tcstol@AEAPEB_WPEAPEA_WH@?$__crt_char_traits@_W@@SAJAEAPEB_W$$QEAPEAPEA_W$$QEAH@Z 000000018005d9e0 f i libucrtd:output.obj
 0001:0005ca20       ??$tcstol@PEBDPEAPEADH@?$__crt_char_traits@D@@SAJ$$QEAPEBD$$QEAPEAPEAD$$QEAH@Z 000000018005da20 f i libucrtd:output.obj
 0001:0005ca60       ??$tcstol@PEB_WPEAPEA_WH@?$__crt_char_traits@_W@@SAJ$$QEAPEB_W$$QEAPEAPEA_W$$QEAH@Z 000000018005da60 f i libucrtd:output.obj
 0001:0005caa0       ??$type_case_integer_parse_into_buffer@I@?$output_processor@DV?$stream_output_adapter@D@__crt_stdio_output@@V?$format_validation_base@DV?$stream_output_adapter@D@__crt_stdio_output@@@2@@__crt_stdio_output@@AEAAXII_N@Z 000000018005daa0 f i libucrtd:output.obj
 0001:0005cbd0       ??$type_case_integer_parse_into_buffer@I@?$output_processor@DV?$stream_output_adapter@D@__crt_stdio_output@@V?$positional_parameter_base@DV?$stream_output_adapter@D@__crt_stdio_output@@@2@@__crt_stdio_output@@AEAAXII_N@Z 000000018005dbd0 f i libucrtd:output.obj
 0001:0005cd00       ??$type_case_integer_parse_into_buffer@I@?$output_processor@DV?$stream_output_adapter@D@__crt_stdio_output@@V?$standard_base@DV?$stream_output_adapter@D@__crt_stdio_output@@@2@@__crt_stdio_output@@AEAAXII_N@Z 000000018005dd00 f i libucrtd:output.obj
 0001:0005ce30       ??$type_case_integer_parse_into_buffer@I@?$output_processor@DV?$string_output_adapter@D@__crt_stdio_output@@V?$format_validation_base@DV?$string_output_adapter@D@__crt_stdio_output@@@2@@__crt_stdio_output@@AEAAXII_N@Z 000000018005de30 f i libucrtd:output.obj
 0001:0005cf60       ??$type_case_integer_parse_into_buffer@I@?$output_processor@DV?$string_output_adapter@D@__crt_stdio_output@@V?$positional_parameter_base@DV?$string_output_adapter@D@__crt_stdio_output@@@2@@__crt_stdio_output@@AEAAXII_N@Z 000000018005df60 f i libucrtd:output.obj
 0001:0005d090       ??$type_case_integer_parse_into_buffer@I@?$output_processor@DV?$string_output_adapter@D@__crt_stdio_output@@V?$standard_base@DV?$string_output_adapter@D@__crt_stdio_output@@@2@@__crt_stdio_output@@AEAAXII_N@Z 000000018005e090 f i libucrtd:output.obj
 0001:0005d1c0       ??$type_case_integer_parse_into_buffer@I@?$output_processor@_WV?$stream_output_adapter@_W@__crt_stdio_output@@V?$format_validation_base@_WV?$stream_output_adapter@_W@__crt_stdio_output@@@2@@__crt_stdio_output@@AEAAXII_N@Z 000000018005e1c0 f i libucrtd:output.obj
 0001:0005d300       ??$type_case_integer_parse_into_buffer@I@?$output_processor@_WV?$stream_output_adapter@_W@__crt_stdio_output@@V?$positional_parameter_base@_WV?$stream_output_adapter@_W@__crt_stdio_output@@@2@@__crt_stdio_output@@AEAAXII_N@Z 000000018005e300 f i libucrtd:output.obj
 0001:0005d440       ??$type_case_integer_parse_into_buffer@I@?$output_processor@_WV?$stream_output_adapter@_W@__crt_stdio_output@@V?$standard_base@_WV?$stream_output_adapter@_W@__crt_stdio_output@@@2@@__crt_stdio_output@@AEAAXII_N@Z 000000018005e440 f i libucrtd:output.obj
 0001:0005d580       ??$type_case_integer_parse_into_buffer@I@?$output_processor@_WV?$string_output_adapter@_W@__crt_stdio_output@@V?$format_validation_base@_WV?$string_output_adapter@_W@__crt_stdio_output@@@2@@__crt_stdio_output@@AEAAXII_N@Z 000000018005e580 f i libucrtd:output.obj
 0001:0005d6c0       ??$type_case_integer_parse_into_buffer@I@?$output_processor@_WV?$string_output_adapter@_W@__crt_stdio_output@@V?$positional_parameter_base@_WV?$string_output_adapter@_W@__crt_stdio_output@@@2@@__crt_stdio_output@@AEAAXII_N@Z 000000018005e6c0 f i libucrtd:output.obj
 0001:0005d800       ??$type_case_integer_parse_into_buffer@I@?$output_processor@_WV?$string_output_adapter@_W@__crt_stdio_output@@V?$standard_base@_WV?$string_output_adapter@_W@__crt_stdio_output@@@2@@__crt_stdio_output@@AEAAXII_N@Z 000000018005e800 f i libucrtd:output.obj
 0001:0005d940       ??$type_case_integer_parse_into_buffer@_K@?$output_processor@DV?$stream_output_adapter@D@__crt_stdio_output@@V?$format_validation_base@DV?$stream_output_adapter@D@__crt_stdio_output@@@2@@__crt_stdio_output@@AEAAX_KI_N@Z 000000018005e940 f i libucrtd:output.obj
 0001:0005da90       ??$type_case_integer_parse_into_buffer@_K@?$output_processor@DV?$stream_output_adapter@D@__crt_stdio_output@@V?$positional_parameter_base@DV?$stream_output_adapter@D@__crt_stdio_output@@@2@@__crt_stdio_output@@AEAAX_KI_N@Z 000000018005ea90 f i libucrtd:output.obj
 0001:0005dbe0       ??$type_case_integer_parse_into_buffer@_K@?$output_processor@DV?$stream_output_adapter@D@__crt_stdio_output@@V?$standard_base@DV?$stream_output_adapter@D@__crt_stdio_output@@@2@@__crt_stdio_output@@AEAAX_KI_N@Z 000000018005ebe0 f i libucrtd:output.obj
 0001:0005dd30       ??$type_case_integer_parse_into_buffer@_K@?$output_processor@DV?$string_output_adapter@D@__crt_stdio_output@@V?$format_validation_base@DV?$string_output_adapter@D@__crt_stdio_output@@@2@@__crt_stdio_output@@AEAAX_KI_N@Z 000000018005ed30 f i libucrtd:output.obj
 0001:0005de80       ??$type_case_integer_parse_into_buffer@_K@?$output_processor@DV?$string_output_adapter@D@__crt_stdio_output@@V?$positional_parameter_base@DV?$string_output_adapter@D@__crt_stdio_output@@@2@@__crt_stdio_output@@AEAAX_KI_N@Z 000000018005ee80 f i libucrtd:output.obj
 0001:0005dfd0       ??$type_case_integer_parse_into_buffer@_K@?$output_processor@DV?$string_output_adapter@D@__crt_stdio_output@@V?$standard_base@DV?$string_output_adapter@D@__crt_stdio_output@@@2@@__crt_stdio_output@@AEAAX_KI_N@Z 000000018005efd0 f i libucrtd:output.obj
 0001:0005e120       ??$type_case_integer_parse_into_buffer@_K@?$output_processor@_WV?$stream_output_adapter@_W@__crt_stdio_output@@V?$format_validation_base@_WV?$stream_output_adapter@_W@__crt_stdio_output@@@2@@__crt_stdio_output@@AEAAX_KI_N@Z 000000018005f120 f i libucrtd:output.obj
 0001:0005e280       ??$type_case_integer_parse_into_buffer@_K@?$output_processor@_WV?$stream_output_adapter@_W@__crt_stdio_output@@V?$positional_parameter_base@_WV?$stream_output_adapter@_W@__crt_stdio_output@@@2@@__crt_stdio_output@@AEAAX_KI_N@Z 000000018005f280 f i libucrtd:output.obj
 0001:0005e3e0       ??$type_case_integer_parse_into_buffer@_K@?$output_processor@_WV?$stream_output_adapter@_W@__crt_stdio_output@@V?$standard_base@_WV?$stream_output_adapter@_W@__crt_stdio_output@@@2@@__crt_stdio_output@@AEAAX_KI_N@Z 000000018005f3e0 f i libucrtd:output.obj
 0001:0005e540       ??$type_case_integer_parse_into_buffer@_K@?$output_processor@_WV?$string_output_adapter@_W@__crt_stdio_output@@V?$format_validation_base@_WV?$string_output_adapter@_W@__crt_stdio_output@@@2@@__crt_stdio_output@@AEAAX_KI_N@Z 000000018005f540 f i libucrtd:output.obj
 0001:0005e6a0       ??$type_case_integer_parse_into_buffer@_K@?$output_processor@_WV?$string_output_adapter@_W@__crt_stdio_output@@V?$positional_parameter_base@_WV?$string_output_adapter@_W@__crt_stdio_output@@@2@@__crt_stdio_output@@AEAAX_KI_N@Z 000000018005f6a0 f i libucrtd:output.obj
 0001:0005e800       ??$type_case_integer_parse_into_buffer@_K@?$output_processor@_WV?$string_output_adapter@_W@__crt_stdio_output@@V?$standard_base@_WV?$string_output_adapter@_W@__crt_stdio_output@@@2@@__crt_stdio_output@@AEAAX_KI_N@Z 000000018005f800 f i libucrtd:output.obj
 0001:0005e960       ??$write_multiple_characters@V?$stream_output_adapter@D@__crt_stdio_output@@D@__crt_stdio_output@@YAXAEBV?$stream_output_adapter@D@0@DHQEAH@Z 000000018005f960 f i libucrtd:output.obj
 0001:0005e9c0       ??$write_multiple_characters@V?$stream_output_adapter@_W@__crt_stdio_output@@D@__crt_stdio_output@@YAXAEBV?$stream_output_adapter@_W@0@DHQEAH@Z 000000018005f9c0 f i libucrtd:output.obj
 0001:0005ea20       ??$write_multiple_characters@V?$string_output_adapter@D@__crt_stdio_output@@D@__crt_stdio_output@@YAXAEBV?$string_output_adapter@D@0@DHQEAH@Z 000000018005fa20 f i libucrtd:output.obj
 0001:0005ea80       ??$write_multiple_characters@V?$string_output_adapter@_W@__crt_stdio_output@@D@__crt_stdio_output@@YAXAEBV?$string_output_adapter@_W@0@DHQEAH@Z 000000018005fa80 f i libucrtd:output.obj
 0001:0005eea0       ??0?$common_data@D@__crt_stdio_output@@IEAA@XZ 000000018005fea0 f i libucrtd:output.obj
 0001:0005ef70       ??0?$common_data@_W@__crt_stdio_output@@IEAA@XZ 000000018005ff70 f i libucrtd:output.obj
 0001:0005f040       ??0?$output_adapter_data@DV?$stream_output_adapter@D@__crt_stdio_output@@@__crt_stdio_output@@IEAA@AEBV?$stream_output_adapter@D@1@_KQEBDQEAU__crt_locale_pointers@@QEAD@Z 0000000180060040 f i libucrtd:output.obj
 0001:0005f0c0       ??0?$output_adapter_data@DV?$string_output_adapter@D@__crt_stdio_output@@@__crt_stdio_output@@IEAA@AEBV?$string_output_adapter@D@1@_KQEBDQEAU__crt_locale_pointers@@QEAD@Z 00000001800600c0 f i libucrtd:output.obj
 0001:0005f140       ??0?$output_adapter_data@_WV?$stream_output_adapter@_W@__crt_stdio_output@@@__crt_stdio_output@@IEAA@AEBV?$stream_output_adapter@_W@1@_KQEB_WQEAU__crt_locale_pointers@@QEAD@Z 0000000180060140 f i libucrtd:output.obj
 0001:0005f1c0       ??0?$output_adapter_data@_WV?$string_output_adapter@_W@__crt_stdio_output@@@__crt_stdio_output@@IEAA@AEBV?$string_output_adapter@_W@1@_KQEB_WQEAU__crt_locale_pointers@@QEAD@Z 00000001800601c0 f i libucrtd:output.obj
 0001:0005f240       ??0?$output_processor@DV?$stream_output_adapter@D@__crt_stdio_output@@V?$format_validation_base@DV?$stream_output_adapter@D@__crt_stdio_output@@@2@@__crt_stdio_output@@QEAA@AEBV?$stream_output_adapter@D@1@_KQEBDQEAU__crt_locale_pointers@@QEAD@Z 0000000180060240 f i libucrtd:output.obj
 0001:0005f290       ??0?$output_processor@DV?$stream_output_adapter@D@__crt_stdio_output@@V?$positional_parameter_base@DV?$stream_output_adapter@D@__crt_stdio_output@@@2@@__crt_stdio_output@@QEAA@AEBV?$stream_output_adapter@D@1@_KQEBDQEAU__crt_locale_pointers@@QEAD@Z 0000000180060290 f i libucrtd:output.obj
 0001:0005f2e0       ??0?$output_processor@DV?$stream_output_adapter@D@__crt_stdio_output@@V?$standard_base@DV?$stream_output_adapter@D@__crt_stdio_output@@@2@@__crt_stdio_output@@QEAA@AEBV?$stream_output_adapter@D@1@_KQEBDQEAU__crt_locale_pointers@@QEAD@Z 00000001800602e0 f i libucrtd:output.obj
 0001:0005f330       ??0?$output_processor@DV?$string_output_adapter@D@__crt_stdio_output@@V?$format_validation_base@DV?$string_output_adapter@D@__crt_stdio_output@@@2@@__crt_stdio_output@@QEAA@AEBV?$string_output_adapter@D@1@_KQEBDQEAU__crt_locale_pointers@@QEAD@Z 0000000180060330 f i libucrtd:output.obj
 0001:0005f380       ??0?$output_processor@DV?$string_output_adapter@D@__crt_stdio_output@@V?$positional_parameter_base@DV?$string_output_adapter@D@__crt_stdio_output@@@2@@__crt_stdio_output@@QEAA@AEBV?$string_output_adapter@D@1@_KQEBDQEAU__crt_locale_pointers@@QEAD@Z 0000000180060380 f i libucrtd:output.obj
 0001:0005f3d0       ??0?$output_processor@DV?$string_output_adapter@D@__crt_stdio_output@@V?$standard_base@DV?$string_output_adapter@D@__crt_stdio_output@@@2@@__crt_stdio_output@@QEAA@AEBV?$string_output_adapter@D@1@_KQEBDQEAU__crt_locale_pointers@@QEAD@Z 00000001800603d0 f i libucrtd:output.obj
 0001:0005f420       ??0?$output_processor@_WV?$stream_output_adapter@_W@__crt_stdio_output@@V?$format_validation_base@_WV?$stream_output_adapter@_W@__crt_stdio_output@@@2@@__crt_stdio_output@@QEAA@AEBV?$stream_output_adapter@_W@1@_KQEB_WQEAU__crt_locale_pointers@@QEAD@Z 0000000180060420 f i libucrtd:output.obj
 0001:0005f470       ??0?$output_processor@_WV?$stream_output_adapter@_W@__crt_stdio_output@@V?$positional_parameter_base@_WV?$stream_output_adapter@_W@__crt_stdio_output@@@2@@__crt_stdio_output@@QEAA@AEBV?$stream_output_adapter@_W@1@_KQEB_WQEAU__crt_locale_pointers@@QEAD@Z 0000000180060470 f i libucrtd:output.obj
 0001:0005f4c0       ??0?$output_processor@_WV?$stream_output_adapter@_W@__crt_stdio_output@@V?$standard_base@_WV?$stream_output_adapter@_W@__crt_stdio_output@@@2@@__crt_stdio_output@@QEAA@AEBV?$stream_output_adapter@_W@1@_KQEB_WQEAU__crt_locale_pointers@@QEAD@Z 00000001800604c0 f i libucrtd:output.obj
 0001:0005f510       ??0?$output_processor@_WV?$string_output_adapter@_W@__crt_stdio_output@@V?$format_validation_base@_WV?$string_output_adapter@_W@__crt_stdio_output@@@2@@__crt_stdio_output@@QEAA@AEBV?$string_output_adapter@_W@1@_KQEB_WQEAU__crt_locale_pointers@@QEAD@Z 0000000180060510 f i libucrtd:output.obj
 0001:0005f560       ??0?$output_processor@_WV?$string_output_adapter@_W@__crt_stdio_output@@V?$positional_parameter_base@_WV?$string_output_adapter@_W@__crt_stdio_output@@@2@@__crt_stdio_output@@QEAA@AEBV?$string_output_adapter@_W@1@_KQEB_WQEAU__crt_locale_pointers@@QEAD@Z 0000000180060560 f i libucrtd:output.obj
 0001:0005f5b0       ??0?$output_processor@_WV?$string_output_adapter@_W@__crt_stdio_output@@V?$standard_base@_WV?$string_output_adapter@_W@__crt_stdio_output@@@2@@__crt_stdio_output@@QEAA@AEBV?$string_output_adapter@_W@1@_KQEB_WQEAU__crt_locale_pointers@@QEAD@Z 00000001800605b0 f i libucrtd:output.obj
 0001:0005f600       ??0?$stream_output_adapter@D@__crt_stdio_output@@QEAA@QEAU_iobuf@@@Z 0000000180060600 f i libucrtd:output.obj
 0001:0005f630       ??0?$stream_output_adapter@_W@__crt_stdio_output@@QEAA@QEAU_iobuf@@@Z 0000000180060630 f i libucrtd:output.obj
 0001:0005f660       ??0?$string_output_adapter@D@__crt_stdio_output@@QEAA@QEAU?$string_output_adapter_context@D@1@@Z 0000000180060660 f i libucrtd:output.obj
 0001:0005f680       ??0?$string_output_adapter@_W@__crt_stdio_output@@QEAA@QEAU?$string_output_adapter_context@_W@1@@Z 0000000180060680 f i libucrtd:output.obj
 0001:0005f6a0       ??0_LocaleUpdate@@QEAA@QEAU__crt_locale_pointers@@@Z 00000001800606a0 f i libucrtd:output.obj
 0001:0005f7c0       ??0__acrt_stdio_temporary_buffering_guard@@QEAA@QEAU_iobuf@@@Z 00000001800607c0 f i libucrtd:output.obj
 0001:0005f800       ??0__crt_deferred_errno_cache@@QEAA@XZ 0000000180060800 f i libucrtd:output.obj
 0001:0005f820       ??0__crt_errno_guard@@QEAA@QEAH@Z 0000000180060820 f i libucrtd:output.obj
 0001:0005f860       ??0__crt_stdio_stream@@QEAA@QEAU_iobuf@@@Z 0000000180060860 f i libucrtd:output.obj
 0001:0005f880       ??0formatting_buffer@__crt_stdio_output@@QEAA@XZ 0000000180060880 f i libucrtd:output.obj
 0001:0005f8c0       ??1?$common_data@D@__crt_stdio_output@@QEAA@XZ 00000001800608c0 f i libucrtd:output.obj
 0001:0005f8e0       ??1?$common_data@_W@__crt_stdio_output@@QEAA@XZ 00000001800608e0 f i libucrtd:output.obj
 0001:0005f900       ??1?$format_validation_base@DV?$stream_output_adapter@D@__crt_stdio_output@@@__crt_stdio_output@@QEAA@XZ 0000000180060900 f i libucrtd:output.obj
 0001:0005f920       ??1?$format_validation_base@DV?$string_output_adapter@D@__crt_stdio_output@@@__crt_stdio_output@@QEAA@XZ 0000000180060920 f i libucrtd:output.obj
 0001:0005f940       ??1?$format_validation_base@_WV?$stream_output_adapter@_W@__crt_stdio_output@@@__crt_stdio_output@@QEAA@XZ 0000000180060940 f i libucrtd:output.obj
 0001:0005f960       ??1?$format_validation_base@_WV?$string_output_adapter@_W@__crt_stdio_output@@@__crt_stdio_output@@QEAA@XZ 0000000180060960 f i libucrtd:output.obj
 0001:0005f980       ??1?$output_adapter_data@DV?$stream_output_adapter@D@__crt_stdio_output@@@__crt_stdio_output@@QEAA@XZ 0000000180060980 f i libucrtd:output.obj
 0001:0005f9a0       ??1?$output_adapter_data@DV?$string_output_adapter@D@__crt_stdio_output@@@__crt_stdio_output@@QEAA@XZ 00000001800609a0 f i libucrtd:output.obj
 0001:0005f9c0       ??1?$output_adapter_data@_WV?$stream_output_adapter@_W@__crt_stdio_output@@@__crt_stdio_output@@QEAA@XZ 00000001800609c0 f i libucrtd:output.obj
 0001:0005f9e0       ??1?$output_adapter_data@_WV?$string_output_adapter@_W@__crt_stdio_output@@@__crt_stdio_output@@QEAA@XZ 00000001800609e0 f i libucrtd:output.obj
 0001:0005fa00       ??1?$output_processor@DV?$stream_output_adapter@D@__crt_stdio_output@@V?$format_validation_base@DV?$stream_output_adapter@D@__crt_stdio_output@@@2@@__crt_stdio_output@@QEAA@XZ 0000000180060a00 f i libucrtd:output.obj
 0001:0005fa20       ??1?$output_processor@DV?$stream_output_adapter@D@__crt_stdio_output@@V?$positional_parameter_base@DV?$stream_output_adapter@D@__crt_stdio_output@@@2@@__crt_stdio_output@@QEAA@XZ 0000000180060a20 f i libucrtd:output.obj
 0001:0005fa40       ??1?$output_processor@DV?$stream_output_adapter@D@__crt_stdio_output@@V?$standard_base@DV?$stream_output_adapter@D@__crt_stdio_output@@@2@@__crt_stdio_output@@QEAA@XZ 0000000180060a40 f i libucrtd:output.obj
 0001:0005fa60       ??1?$output_processor@DV?$string_output_adapter@D@__crt_stdio_output@@V?$format_validation_base@DV?$string_output_adapter@D@__crt_stdio_output@@@2@@__crt_stdio_output@@QEAA@XZ 0000000180060a60 f i libucrtd:output.obj
 0001:0005fa80       ??1?$output_processor@DV?$string_output_adapter@D@__crt_stdio_output@@V?$positional_parameter_base@DV?$string_output_adapter@D@__crt_stdio_output@@@2@@__crt_stdio_output@@QEAA@XZ 0000000180060a80 f i libucrtd:output.obj
 0001:0005faa0       ??1?$output_processor@DV?$string_output_adapter@D@__crt_stdio_output@@V?$standard_base@DV?$string_output_adapter@D@__crt_stdio_output@@@2@@__crt_stdio_output@@QEAA@XZ 0000000180060aa0 f i libucrtd:output.obj
 0001:0005fac0       ??1?$output_processor@_WV?$stream_output_adapter@_W@__crt_stdio_output@@V?$format_validation_base@_WV?$stream_output_adapter@_W@__crt_stdio_output@@@2@@__crt_stdio_output@@QEAA@XZ 0000000180060ac0 f i libucrtd:output.obj
 0001:0005fae0       ??1?$output_processor@_WV?$stream_output_adapter@_W@__crt_stdio_output@@V?$positional_parameter_base@_WV?$stream_output_adapter@_W@__crt_stdio_output@@@2@@__crt_stdio_output@@QEAA@XZ 0000000180060ae0 f i libucrtd:output.obj
 0001:0005fb00       ??1?$output_processor@_WV?$stream_output_adapter@_W@__crt_stdio_output@@V?$standard_base@_WV?$stream_output_adapter@_W@__crt_stdio_output@@@2@@__crt_stdio_output@@QEAA@XZ 0000000180060b00 f i libucrtd:output.obj
 0001:0005fb20       ??1?$output_processor@_WV?$string_output_adapter@_W@__crt_stdio_output@@V?$format_validation_base@_WV?$string_output_adapter@_W@__crt_stdio_output@@@2@@__crt_stdio_output@@QEAA@XZ 0000000180060b20 f i libucrtd:output.obj
 0001:0005fb40       ??1?$output_processor@_WV?$string_output_adapter@_W@__crt_stdio_output@@V?$positional_parameter_base@_WV?$string_output_adapter@_W@__crt_stdio_output@@@2@@__crt_stdio_output@@QEAA@XZ 0000000180060b40 f i libucrtd:output.obj
 0001:0005fb60       ??1?$output_processor@_WV?$string_output_adapter@_W@__crt_stdio_output@@V?$standard_base@_WV?$string_output_adapter@_W@__crt_stdio_output@@@2@@__crt_stdio_output@@QEAA@XZ 0000000180060b60 f i libucrtd:output.obj
 0001:0005fb80       ??1?$positional_parameter_base@DV?$stream_output_adapter@D@__crt_stdio_output@@@__crt_stdio_output@@QEAA@XZ 0000000180060b80 f i libucrtd:output.obj
 0001:0005fba0       ??1?$positional_parameter_base@DV?$string_output_adapter@D@__crt_stdio_output@@@__crt_stdio_output@@QEAA@XZ 0000000180060ba0 f i libucrtd:output.obj
 0001:0005fbc0       ??1?$positional_parameter_base@_WV?$stream_output_adapter@_W@__crt_stdio_output@@@__crt_stdio_output@@QEAA@XZ 0000000180060bc0 f i libucrtd:output.obj
 0001:0005fbe0       ??1?$positional_parameter_base@_WV?$string_output_adapter@_W@__crt_stdio_output@@@__crt_stdio_output@@QEAA@XZ 0000000180060be0 f i libucrtd:output.obj
 0001:0005fc00       ??1?$standard_base@DV?$stream_output_adapter@D@__crt_stdio_output@@@__crt_stdio_output@@QEAA@XZ 0000000180060c00 f i libucrtd:output.obj
 0001:0005fc20       ??1?$standard_base@DV?$string_output_adapter@D@__crt_stdio_output@@@__crt_stdio_output@@QEAA@XZ 0000000180060c20 f i libucrtd:output.obj
 0001:0005fc40       ??1?$standard_base@_WV?$stream_output_adapter@_W@__crt_stdio_output@@@__crt_stdio_output@@QEAA@XZ 0000000180060c40 f i libucrtd:output.obj
 0001:0005fc60       ??1?$standard_base@_WV?$string_output_adapter@_W@__crt_stdio_output@@@__crt_stdio_output@@QEAA@XZ 0000000180060c60 f i libucrtd:output.obj
 0001:0005fc80       ??1_LocaleUpdate@@QEAA@XZ  0000000180060c80 f i libucrtd:output.obj
 0001:0005fcc0       ??1__acrt_stdio_temporary_buffering_guard@@QEAA@XZ 0000000180060cc0 f i libucrtd:output.obj
 0001:0005fcf0       ??1__crt_errno_guard@@QEAA@XZ 0000000180060cf0 f i libucrtd:output.obj
 0001:0005fd20       ??1formatting_buffer@__crt_stdio_output@@QEAA@XZ 0000000180060d20 f i libucrtd:output.obj
 0001:0005fd50       ??4?$__crt_unique_heap_ptr@DU__crt_internal_free_policy@@@@QEAAAEAV0@$$QEAV0@@Z 0000000180060d50 f i libucrtd:output.obj
 0001:0005fd90       ??C__crt_stdio_stream@@QEBAPEAU__crt_stdio_stream_data@@XZ 0000000180060d90 f i libucrtd:output.obj
 0001:00060640       ?GetLocaleT@_LocaleUpdate@@QEAAPEAU__crt_locale_pointers@@XZ 0000000180061640 f i libucrtd:output.obj
 0001:00060650       ?__crt_interlocked_read_32@@YAHPEDH@Z 0000000180061650 f i libucrtd:output.obj
 0001:00060670       ?adjust_hexit@?$output_processor@DV?$stream_output_adapter@D@__crt_stdio_output@@V?$format_validation_base@DV?$stream_output_adapter@D@__crt_stdio_output@@@2@@__crt_stdio_output@@CADH_N@Z 0000000180061670 f i libucrtd:output.obj
 0001:000606c0       ?adjust_hexit@?$output_processor@DV?$stream_output_adapter@D@__crt_stdio_output@@V?$positional_parameter_base@DV?$stream_output_adapter@D@__crt_stdio_output@@@2@@__crt_stdio_output@@CADH_N@Z 00000001800616c0 f i libucrtd:output.obj
 0001:00060710       ?adjust_hexit@?$output_processor@DV?$stream_output_adapter@D@__crt_stdio_output@@V?$standard_base@DV?$stream_output_adapter@D@__crt_stdio_output@@@2@@__crt_stdio_output@@CADH_N@Z 0000000180061710 f i libucrtd:output.obj
 0001:00060760       ?adjust_hexit@?$output_processor@DV?$string_output_adapter@D@__crt_stdio_output@@V?$format_validation_base@DV?$string_output_adapter@D@__crt_stdio_output@@@2@@__crt_stdio_output@@CADH_N@Z 0000000180061760 f i libucrtd:output.obj
 0001:000607b0       ?adjust_hexit@?$output_processor@DV?$string_output_adapter@D@__crt_stdio_output@@V?$positional_parameter_base@DV?$string_output_adapter@D@__crt_stdio_output@@@2@@__crt_stdio_output@@CADH_N@Z 00000001800617b0 f i libucrtd:output.obj
 0001:00060800       ?adjust_hexit@?$output_processor@DV?$string_output_adapter@D@__crt_stdio_output@@V?$standard_base@DV?$string_output_adapter@D@__crt_stdio_output@@@2@@__crt_stdio_output@@CADH_N@Z 0000000180061800 f i libucrtd:output.obj
 0001:00060850       ?adjust_hexit@?$output_processor@_WV?$stream_output_adapter@_W@__crt_stdio_output@@V?$format_validation_base@_WV?$stream_output_adapter@_W@__crt_stdio_output@@@2@@__crt_stdio_output@@CADH_N@Z 0000000180061850 f i libucrtd:output.obj
 0001:000608a0       ?adjust_hexit@?$output_processor@_WV?$stream_output_adapter@_W@__crt_stdio_output@@V?$positional_parameter_base@_WV?$stream_output_adapter@_W@__crt_stdio_output@@@2@@__crt_stdio_output@@CADH_N@Z 00000001800618a0 f i libucrtd:output.obj
 0001:000608f0       ?adjust_hexit@?$output_processor@_WV?$stream_output_adapter@_W@__crt_stdio_output@@V?$standard_base@_WV?$stream_output_adapter@_W@__crt_stdio_output@@@2@@__crt_stdio_output@@CADH_N@Z 00000001800618f0 f i libucrtd:output.obj
 0001:00060940       ?adjust_hexit@?$output_processor@_WV?$string_output_adapter@_W@__crt_stdio_output@@V?$format_validation_base@_WV?$string_output_adapter@_W@__crt_stdio_output@@@2@@__crt_stdio_output@@CADH_N@Z 0000000180061940 f i libucrtd:output.obj
 0001:00060990       ?adjust_hexit@?$output_processor@_WV?$string_output_adapter@_W@__crt_stdio_output@@V?$positional_parameter_base@_WV?$string_output_adapter@_W@__crt_stdio_output@@@2@@__crt_stdio_output@@CADH_N@Z 0000000180061990 f i libucrtd:output.obj
 0001:000609e0       ?adjust_hexit@?$output_processor@_WV?$string_output_adapter@_W@__crt_stdio_output@@V?$standard_base@_WV?$string_output_adapter@_W@__crt_stdio_output@@@2@@__crt_stdio_output@@CADH_N@Z 00000001800619e0 f i libucrtd:output.obj
 0001:00060a30       ?advance_to_next_pass@?$positional_parameter_base@DV?$stream_output_adapter@D@__crt_stdio_output@@@__crt_stdio_output@@IEAA_NXZ 0000000180061a30 f i libucrtd:output.obj
 0001:00060ae0       ?advance_to_next_pass@?$positional_parameter_base@DV?$string_output_adapter@D@__crt_stdio_output@@@__crt_stdio_output@@IEAA_NXZ 0000000180061ae0 f i libucrtd:output.obj
 0001:00060b90       ?advance_to_next_pass@?$positional_parameter_base@_WV?$stream_output_adapter@_W@__crt_stdio_output@@@__crt_stdio_output@@IEAA_NXZ 0000000180061b90 f i libucrtd:output.obj
 0001:00060c40       ?advance_to_next_pass@?$positional_parameter_base@_WV?$string_output_adapter@_W@__crt_stdio_output@@@__crt_stdio_output@@IEAA_NXZ 0000000180061c40 f i libucrtd:output.obj
 0001:00060cf0       ?advance_to_next_pass@?$standard_base@DV?$stream_output_adapter@D@__crt_stdio_output@@@__crt_stdio_output@@IEAA_NXZ 0000000180061cf0 f i libucrtd:output.obj
 0001:00060d40       ?advance_to_next_pass@?$standard_base@DV?$string_output_adapter@D@__crt_stdio_output@@@__crt_stdio_output@@IEAA_NXZ 0000000180061d40 f i libucrtd:output.obj
 0001:00060d90       ?advance_to_next_pass@?$standard_base@_WV?$stream_output_adapter@_W@__crt_stdio_output@@@__crt_stdio_output@@IEAA_NXZ 0000000180061d90 f i libucrtd:output.obj
 0001:00060de0       ?advance_to_next_pass@?$standard_base@_WV?$string_output_adapter@_W@__crt_stdio_output@@@__crt_stdio_output@@IEAA_NXZ 0000000180061de0 f i libucrtd:output.obj
 0001:00060e30       ?crop_zeroes@__crt_stdio_output@@YAXPEADQEAU__crt_locale_pointers@@@Z 0000000180061e30 f i libucrtd:output.obj
 0001:00060f70       ?find_next_state@?$output_processor@DV?$stream_output_adapter@D@__crt_stdio_output@@V?$format_validation_base@DV?$stream_output_adapter@D@__crt_stdio_output@@@2@@__crt_stdio_output@@AEBA?AW4state@2@DW432@@Z 0000000180061f70 f i libucrtd:output.obj
 0001:00061010       ?find_next_state@?$output_processor@DV?$stream_output_adapter@D@__crt_stdio_output@@V?$positional_parameter_base@DV?$stream_output_adapter@D@__crt_stdio_output@@@2@@__crt_stdio_output@@AEBA?AW4state@2@DW432@@Z 0000000180062010 f i libucrtd:output.obj
 0001:000610b0       ?find_next_state@?$output_processor@DV?$stream_output_adapter@D@__crt_stdio_output@@V?$standard_base@DV?$stream_output_adapter@D@__crt_stdio_output@@@2@@__crt_stdio_output@@AEBA?AW4state@2@DW432@@Z 00000001800620b0 f i libucrtd:output.obj
 0001:00061150       ?find_next_state@?$output_processor@DV?$string_output_adapter@D@__crt_stdio_output@@V?$format_validation_base@DV?$string_output_adapter@D@__crt_stdio_output@@@2@@__crt_stdio_output@@AEBA?AW4state@2@DW432@@Z 0000000180062150 f i libucrtd:output.obj
 0001:000611f0       ?find_next_state@?$output_processor@DV?$string_output_adapter@D@__crt_stdio_output@@V?$positional_parameter_base@DV?$string_output_adapter@D@__crt_stdio_output@@@2@@__crt_stdio_output@@AEBA?AW4state@2@DW432@@Z 00000001800621f0 f i libucrtd:output.obj
 0001:00061290       ?find_next_state@?$output_processor@DV?$string_output_adapter@D@__crt_stdio_output@@V?$standard_base@DV?$string_output_adapter@D@__crt_stdio_output@@@2@@__crt_stdio_output@@AEBA?AW4state@2@DW432@@Z 0000000180062290 f i libucrtd:output.obj
 0001:00061330       ?find_next_state@?$output_processor@_WV?$stream_output_adapter@_W@__crt_stdio_output@@V?$format_validation_base@_WV?$stream_output_adapter@_W@__crt_stdio_output@@@2@@__crt_stdio_output@@AEBA?AW4state@2@_WW432@@Z 0000000180062330 f i libucrtd:output.obj
 0001:000613d0       ?find_next_state@?$output_processor@_WV?$stream_output_adapter@_W@__crt_stdio_output@@V?$positional_parameter_base@_WV?$stream_output_adapter@_W@__crt_stdio_output@@@2@@__crt_stdio_output@@AEBA?AW4state@2@_WW432@@Z 00000001800623d0 f i libucrtd:output.obj
 0001:00061470       ?find_next_state@?$output_processor@_WV?$stream_output_adapter@_W@__crt_stdio_output@@V?$standard_base@_WV?$stream_output_adapter@_W@__crt_stdio_output@@@2@@__crt_stdio_output@@AEBA?AW4state@2@_WW432@@Z 0000000180062470 f i libucrtd:output.obj
 0001:00061510       ?find_next_state@?$output_processor@_WV?$string_output_adapter@_W@__crt_stdio_output@@V?$format_validation_base@_WV?$string_output_adapter@_W@__crt_stdio_output@@@2@@__crt_stdio_output@@AEBA?AW4state@2@_WW432@@Z 0000000180062510 f i libucrtd:output.obj
 0001:000615b0       ?find_next_state@?$output_processor@_WV?$string_output_adapter@_W@__crt_stdio_output@@V?$positional_parameter_base@_WV?$string_output_adapter@_W@__crt_stdio_output@@@2@@__crt_stdio_output@@AEBA?AW4state@2@_WW432@@Z 00000001800625b0 f i libucrtd:output.obj
 0001:00061650       ?find_next_state@?$output_processor@_WV?$string_output_adapter@_W@__crt_stdio_output@@V?$standard_base@_WV?$string_output_adapter@_W@__crt_stdio_output@@@2@@__crt_stdio_output@@AEBA?AW4state@2@_WW432@@Z 0000000180062650 f i libucrtd:output.obj
 0001:000616f0       ?force_decimal_point@__crt_stdio_output@@YAXPEADQEAU__crt_locale_pointers@@@Z 00000001800626f0 f i libucrtd:output.obj
 0001:000617f0       ?get@__crt_deferred_errno_cache@@QEAAAEAHXZ 00000001800627f0 f i libucrtd:output.obj
 0001:00061820       ?get_flags@__crt_stdio_stream@@QEBAJXZ 0000000180062820 f i libucrtd:output.obj
 0001:00061850       ?get_parameter_type@?$positional_parameter_base@DV?$stream_output_adapter@D@__crt_stdio_output@@@__crt_stdio_output@@CA?AW4parameter_type@12@F@Z 0000000180062850 f i libucrtd:output.obj
 0001:00061860       ?get_parameter_type@?$positional_parameter_base@DV?$stream_output_adapter@D@__crt_stdio_output@@@__crt_stdio_output@@CA?AW4parameter_type@12@G@Z 0000000180062860 f i libucrtd:output.obj
 0001:00061870       ?get_parameter_type@?$positional_parameter_base@DV?$stream_output_adapter@D@__crt_stdio_output@@@__crt_stdio_output@@CA?AW4parameter_type@12@H@Z 0000000180062870 f i libucrtd:output.obj
 0001:00061880       ?get_parameter_type@?$positional_parameter_base@DV?$stream_output_adapter@D@__crt_stdio_output@@@__crt_stdio_output@@CA?AW4parameter_type@12@I@Z 0000000180062880 f i libucrtd:output.obj
 0001:00061890       ?get_parameter_type@?$positional_parameter_base@DV?$stream_output_adapter@D@__crt_stdio_output@@@__crt_stdio_output@@CA?AW4parameter_type@12@U_CRT_DOUBLE@@@Z 0000000180062890 f i libucrtd:output.obj
 0001:000618a0       ?get_parameter_type@?$positional_parameter_base@DV?$stream_output_adapter@D@__crt_stdio_output@@@__crt_stdio_output@@CA?AW4parameter_type@12@_J@Z 00000001800628a0 f i libucrtd:output.obj
 0001:000618b0       ?get_parameter_type@?$positional_parameter_base@DV?$stream_output_adapter@D@__crt_stdio_output@@@__crt_stdio_output@@CA?AW4parameter_type@12@_K@Z 00000001800628b0 f i libucrtd:output.obj
 0001:000618c0       ?get_parameter_type@?$positional_parameter_base@DV?$stream_output_adapter@D@__crt_stdio_output@@@__crt_stdio_output@@CA?AW4parameter_type@12@_W@Z 00000001800628c0 f i libucrtd:output.obj
 0001:000618d0       ?get_parameter_type@?$positional_parameter_base@DV?$string_output_adapter@D@__crt_stdio_output@@@__crt_stdio_output@@CA?AW4parameter_type@12@F@Z 00000001800628d0 f i libucrtd:output.obj
 0001:000618e0       ?get_parameter_type@?$positional_parameter_base@DV?$string_output_adapter@D@__crt_stdio_output@@@__crt_stdio_output@@CA?AW4parameter_type@12@G@Z 00000001800628e0 f i libucrtd:output.obj
 0001:000618f0       ?get_parameter_type@?$positional_parameter_base@DV?$string_output_adapter@D@__crt_stdio_output@@@__crt_stdio_output@@CA?AW4parameter_type@12@H@Z 00000001800628f0 f i libucrtd:output.obj
 0001:00061900       ?get_parameter_type@?$positional_parameter_base@DV?$string_output_adapter@D@__crt_stdio_output@@@__crt_stdio_output@@CA?AW4parameter_type@12@I@Z 0000000180062900 f i libucrtd:output.obj
 0001:00061910       ?get_parameter_type@?$positional_parameter_base@DV?$string_output_adapter@D@__crt_stdio_output@@@__crt_stdio_output@@CA?AW4parameter_type@12@U_CRT_DOUBLE@@@Z 0000000180062910 f i libucrtd:output.obj
 0001:00061920       ?get_parameter_type@?$positional_parameter_base@DV?$string_output_adapter@D@__crt_stdio_output@@@__crt_stdio_output@@CA?AW4parameter_type@12@_J@Z 0000000180062920 f i libucrtd:output.obj
 0001:00061930       ?get_parameter_type@?$positional_parameter_base@DV?$string_output_adapter@D@__crt_stdio_output@@@__crt_stdio_output@@CA?AW4parameter_type@12@_K@Z 0000000180062930 f i libucrtd:output.obj
 0001:00061940       ?get_parameter_type@?$positional_parameter_base@DV?$string_output_adapter@D@__crt_stdio_output@@@__crt_stdio_output@@CA?AW4parameter_type@12@_W@Z 0000000180062940 f i libucrtd:output.obj
 0001:00061950       ?get_parameter_type@?$positional_parameter_base@_WV?$stream_output_adapter@_W@__crt_stdio_output@@@__crt_stdio_output@@CA?AW4parameter_type@12@F@Z 0000000180062950 f i libucrtd:output.obj
 0001:00061960       ?get_parameter_type@?$positional_parameter_base@_WV?$stream_output_adapter@_W@__crt_stdio_output@@@__crt_stdio_output@@CA?AW4parameter_type@12@G@Z 0000000180062960 f i libucrtd:output.obj
 0001:00061970       ?get_parameter_type@?$positional_parameter_base@_WV?$stream_output_adapter@_W@__crt_stdio_output@@@__crt_stdio_output@@CA?AW4parameter_type@12@H@Z 0000000180062970 f i libucrtd:output.obj
 0001:00061980       ?get_parameter_type@?$positional_parameter_base@_WV?$stream_output_adapter@_W@__crt_stdio_output@@@__crt_stdio_output@@CA?AW4parameter_type@12@I@Z 0000000180062980 f i libucrtd:output.obj
 0001:00061990       ?get_parameter_type@?$positional_parameter_base@_WV?$stream_output_adapter@_W@__crt_stdio_output@@@__crt_stdio_output@@CA?AW4parameter_type@12@U_CRT_DOUBLE@@@Z 0000000180062990 f i libucrtd:output.obj
 0001:000619a0       ?get_parameter_type@?$positional_parameter_base@_WV?$stream_output_adapter@_W@__crt_stdio_output@@@__crt_stdio_output@@CA?AW4parameter_type@12@_J@Z 00000001800629a0 f i libucrtd:output.obj
 0001:000619b0       ?get_parameter_type@?$positional_parameter_base@_WV?$stream_output_adapter@_W@__crt_stdio_output@@@__crt_stdio_output@@CA?AW4parameter_type@12@_K@Z 00000001800629b0 f i libucrtd:output.obj
 0001:000619c0       ?get_parameter_type@?$positional_parameter_base@_WV?$stream_output_adapter@_W@__crt_stdio_output@@@__crt_stdio_output@@CA?AW4parameter_type@12@_W@Z 00000001800629c0 f i libucrtd:output.obj
 0001:000619d0       ?get_parameter_type@?$positional_parameter_base@_WV?$string_output_adapter@_W@__crt_stdio_output@@@__crt_stdio_output@@CA?AW4parameter_type@12@F@Z 00000001800629d0 f i libucrtd:output.obj
 0001:000619e0       ?get_parameter_type@?$positional_parameter_base@_WV?$string_output_adapter@_W@__crt_stdio_output@@@__crt_stdio_output@@CA?AW4parameter_type@12@G@Z 00000001800629e0 f i libucrtd:output.obj
 0001:000619f0       ?get_parameter_type@?$positional_parameter_base@_WV?$string_output_adapter@_W@__crt_stdio_output@@@__crt_stdio_output@@CA?AW4parameter_type@12@H@Z 00000001800629f0 f i libucrtd:output.obj
 0001:00061a00       ?get_parameter_type@?$positional_parameter_base@_WV?$string_output_adapter@_W@__crt_stdio_output@@@__crt_stdio_output@@CA?AW4parameter_type@12@I@Z 0000000180062a00 f i libucrtd:output.obj
 0001:00061a10       ?get_parameter_type@?$positional_parameter_base@_WV?$string_output_adapter@_W@__crt_stdio_output@@@__crt_stdio_output@@CA?AW4parameter_type@12@U_CRT_DOUBLE@@@Z 0000000180062a10 f i libucrtd:output.obj
 0001:00061a20       ?get_parameter_type@?$positional_parameter_base@_WV?$string_output_adapter@_W@__crt_stdio_output@@@__crt_stdio_output@@CA?AW4parameter_type@12@_J@Z 0000000180062a20 f i libucrtd:output.obj
 0001:00061a30       ?get_parameter_type@?$positional_parameter_base@_WV?$string_output_adapter@_W@__crt_stdio_output@@@__crt_stdio_output@@CA?AW4parameter_type@12@_K@Z 0000000180062a30 f i libucrtd:output.obj
 0001:00061a40       ?get_parameter_type@?$positional_parameter_base@_WV?$string_output_adapter@_W@__crt_stdio_output@@@__crt_stdio_output@@CA?AW4parameter_type@12@_W@Z 0000000180062a40 f i libucrtd:output.obj
 0001:00061a50       ?has_flag@?$output_processor@DV?$stream_output_adapter@D@__crt_stdio_output@@V?$format_validation_base@DV?$stream_output_adapter@D@__crt_stdio_output@@@2@@__crt_stdio_output@@AEBA_NI@Z 0000000180062a50 f i libucrtd:output.obj
 0001:00061a90       ?has_flag@?$output_processor@DV?$stream_output_adapter@D@__crt_stdio_output@@V?$positional_parameter_base@DV?$stream_output_adapter@D@__crt_stdio_output@@@2@@__crt_stdio_output@@AEBA_NI@Z 0000000180062a90 f i libucrtd:output.obj
 0001:00061ad0       ?has_flag@?$output_processor@DV?$stream_output_adapter@D@__crt_stdio_output@@V?$standard_base@DV?$stream_output_adapter@D@__crt_stdio_output@@@2@@__crt_stdio_output@@AEBA_NI@Z 0000000180062ad0 f i libucrtd:output.obj
 0001:00061b10       ?has_flag@?$output_processor@DV?$string_output_adapter@D@__crt_stdio_output@@V?$format_validation_base@DV?$string_output_adapter@D@__crt_stdio_output@@@2@@__crt_stdio_output@@AEBA_NI@Z 0000000180062b10 f i libucrtd:output.obj
 0001:00061b50       ?has_flag@?$output_processor@DV?$string_output_adapter@D@__crt_stdio_output@@V?$positional_parameter_base@DV?$string_output_adapter@D@__crt_stdio_output@@@2@@__crt_stdio_output@@AEBA_NI@Z 0000000180062b50 f i libucrtd:output.obj
 0001:00061b90       ?has_flag@?$output_processor@DV?$string_output_adapter@D@__crt_stdio_output@@V?$standard_base@DV?$string_output_adapter@D@__crt_stdio_output@@@2@@__crt_stdio_output@@AEBA_NI@Z 0000000180062b90 f i libucrtd:output.obj
 0001:00061bd0       ?has_flag@?$output_processor@_WV?$stream_output_adapter@_W@__crt_stdio_output@@V?$format_validation_base@_WV?$stream_output_adapter@_W@__crt_stdio_output@@@2@@__crt_stdio_output@@AEBA_NI@Z 0000000180062bd0 f i libucrtd:output.obj
 0001:00061c10       ?has_flag@?$output_processor@_WV?$stream_output_adapter@_W@__crt_stdio_output@@V?$positional_parameter_base@_WV?$stream_output_adapter@_W@__crt_stdio_output@@@2@@__crt_stdio_output@@AEBA_NI@Z 0000000180062c10 f i libucrtd:output.obj
 0001:00061c50       ?has_flag@?$output_processor@_WV?$stream_output_adapter@_W@__crt_stdio_output@@V?$standard_base@_WV?$stream_output_adapter@_W@__crt_stdio_output@@@2@@__crt_stdio_output@@AEBA_NI@Z 0000000180062c50 f i libucrtd:output.obj
 0001:00061c90       ?has_flag@?$output_processor@_WV?$string_output_adapter@_W@__crt_stdio_output@@V?$format_validation_base@_WV?$string_output_adapter@_W@__crt_stdio_output@@@2@@__crt_stdio_output@@AEBA_NI@Z 0000000180062c90 f i libucrtd:output.obj
 0001:00061cd0       ?has_flag@?$output_processor@_WV?$string_output_adapter@_W@__crt_stdio_output@@V?$positional_parameter_base@_WV?$string_output_adapter@_W@__crt_stdio_output@@@2@@__crt_stdio_output@@AEBA_NI@Z 0000000180062cd0 f i libucrtd:output.obj
 0001:00061d10       ?has_flag@?$output_processor@_WV?$string_output_adapter@_W@__crt_stdio_output@@V?$standard_base@_WV?$string_output_adapter@_W@__crt_stdio_output@@@2@@__crt_stdio_output@@AEBA_NI@Z 0000000180062d10 f i libucrtd:output.obj
 0001:00061d50       ?is_positional_parameter_reappearance_consistent@?$positional_parameter_base@DV?$stream_output_adapter@D@__crt_stdio_output@@@__crt_stdio_output@@AEAA_NAEBUparameter_data@12@W4parameter_type@12@DW4length_modifier@2@@Z 0000000180062d50 f i libucrtd:output.obj
 0001:00061fb0       ?is_positional_parameter_reappearance_consistent@?$positional_parameter_base@DV?$string_output_adapter@D@__crt_stdio_output@@@__crt_stdio_output@@AEAA_NAEBUparameter_data@12@W4parameter_type@12@DW4length_modifier@2@@Z 0000000180062fb0 f i libucrtd:output.obj
 0001:00062210       ?is_positional_parameter_reappearance_consistent@?$positional_parameter_base@_WV?$stream_output_adapter@_W@__crt_stdio_output@@@__crt_stdio_output@@AEAA_NAEBUparameter_data@12@W4parameter_type@12@_WW4length_modifier@2@@Z 0000000180063210 f i libucrtd:output.obj
 0001:00062470       ?is_positional_parameter_reappearance_consistent@?$positional_parameter_base@_WV?$string_output_adapter@_W@__crt_stdio_output@@@__crt_stdio_output@@AEAA_NAEBUparameter_data@12@W4parameter_type@12@_WW4length_modifier@2@@Z 0000000180063470 f i libucrtd:output.obj
 0001:000626d0       ?is_string_backed@__crt_stdio_stream@@QEBA_NXZ 00000001800636d0 f i libucrtd:output.obj
 0001:00062710       ?narrow_null_string@?$output_processor@DV?$stream_output_adapter@D@__crt_stdio_output@@V?$format_validation_base@DV?$stream_output_adapter@D@__crt_stdio_output@@@2@@__crt_stdio_output@@CAPEADXZ 0000000180063710 f i libucrtd:output.obj
 0001:00062720       ?narrow_null_string@?$output_processor@DV?$stream_output_adapter@D@__crt_stdio_output@@V?$positional_parameter_base@DV?$stream_output_adapter@D@__crt_stdio_output@@@2@@__crt_stdio_output@@CAPEADXZ 0000000180063720 f i libucrtd:output.obj
 0001:00062730       ?narrow_null_string@?$output_processor@DV?$stream_output_adapter@D@__crt_stdio_output@@V?$standard_base@DV?$stream_output_adapter@D@__crt_stdio_output@@@2@@__crt_stdio_output@@CAPEADXZ 0000000180063730 f i libucrtd:output.obj
 0001:00062740       ?narrow_null_string@?$output_processor@DV?$string_output_adapter@D@__crt_stdio_output@@V?$format_validation_base@DV?$string_output_adapter@D@__crt_stdio_output@@@2@@__crt_stdio_output@@CAPEADXZ 0000000180063740 f i libucrtd:output.obj
 0001:00062750       ?narrow_null_string@?$output_processor@DV?$string_output_adapter@D@__crt_stdio_output@@V?$positional_parameter_base@DV?$string_output_adapter@D@__crt_stdio_output@@@2@@__crt_stdio_output@@CAPEADXZ 0000000180063750 f i libucrtd:output.obj
 0001:00062760       ?narrow_null_string@?$output_processor@DV?$string_output_adapter@D@__crt_stdio_output@@V?$standard_base@DV?$string_output_adapter@D@__crt_stdio_output@@@2@@__crt_stdio_output@@CAPEADXZ 0000000180063760 f i libucrtd:output.obj
 0001:00062770       ?narrow_null_string@?$output_processor@_WV?$stream_output_adapter@_W@__crt_stdio_output@@V?$format_validation_base@_WV?$stream_output_adapter@_W@__crt_stdio_output@@@2@@__crt_stdio_output@@CAPEADXZ 0000000180063770 f i libucrtd:output.obj
 0001:00062780       ?narrow_null_string@?$output_processor@_WV?$stream_output_adapter@_W@__crt_stdio_output@@V?$positional_parameter_base@_WV?$stream_output_adapter@_W@__crt_stdio_output@@@2@@__crt_stdio_output@@CAPEADXZ 0000000180063780 f i libucrtd:output.obj
 0001:00062790       ?narrow_null_string@?$output_processor@_WV?$stream_output_adapter@_W@__crt_stdio_output@@V?$standard_base@_WV?$stream_output_adapter@_W@__crt_stdio_output@@@2@@__crt_stdio_output@@CAPEADXZ 0000000180063790 f i libucrtd:output.obj
 0001:000627a0       ?narrow_null_string@?$output_processor@_WV?$string_output_adapter@_W@__crt_stdio_output@@V?$format_validation_base@_WV?$string_output_adapter@_W@__crt_stdio_output@@@2@@__crt_stdio_output@@CAPEADXZ 00000001800637a0 f i libucrtd:output.obj
 0001:000627b0       ?narrow_null_string@?$output_processor@_WV?$string_output_adapter@_W@__crt_stdio_output@@V?$positional_parameter_base@_WV?$string_output_adapter@_W@__crt_stdio_output@@@2@@__crt_stdio_output@@CAPEADXZ 00000001800637b0 f i libucrtd:output.obj
 0001:000627c0       ?narrow_null_string@?$output_processor@_WV?$string_output_adapter@_W@__crt_stdio_output@@V?$standard_base@_WV?$string_output_adapter@_W@__crt_stdio_output@@@2@@__crt_stdio_output@@CAPEADXZ 00000001800637c0 f i libucrtd:output.obj
 0001:000627d0       ?parse_int_from_format_string@?$output_processor@DV?$stream_output_adapter@D@__crt_stdio_output@@V?$format_validation_base@DV?$stream_output_adapter@D@__crt_stdio_output@@@2@@__crt_stdio_output@@AEAA_NQEAH@Z 00000001800637d0 f i libucrtd:output.obj
 0001:000628c0       ?parse_int_from_format_string@?$output_processor@DV?$stream_output_adapter@D@__crt_stdio_output@@V?$positional_parameter_base@DV?$stream_output_adapter@D@__crt_stdio_output@@@2@@__crt_stdio_output@@AEAA_NQEAH@Z 00000001800638c0 f i libucrtd:output.obj
 0001:000629b0       ?parse_int_from_format_string@?$output_processor@DV?$stream_output_adapter@D@__crt_stdio_output@@V?$standard_base@DV?$stream_output_adapter@D@__crt_stdio_output@@@2@@__crt_stdio_output@@AEAA_NQEAH@Z 00000001800639b0 f i libucrtd:output.obj
 0001:00062aa0       ?parse_int_from_format_string@?$output_processor@DV?$string_output_adapter@D@__crt_stdio_output@@V?$format_validation_base@DV?$string_output_adapter@D@__crt_stdio_output@@@2@@__crt_stdio_output@@AEAA_NQEAH@Z 0000000180063aa0 f i libucrtd:output.obj
 0001:00062b90       ?parse_int_from_format_string@?$output_processor@DV?$string_output_adapter@D@__crt_stdio_output@@V?$positional_parameter_base@DV?$string_output_adapter@D@__crt_stdio_output@@@2@@__crt_stdio_output@@AEAA_NQEAH@Z 0000000180063b90 f i libucrtd:output.obj
 0001:00062c80       ?parse_int_from_format_string@?$output_processor@DV?$string_output_adapter@D@__crt_stdio_output@@V?$standard_base@DV?$string_output_adapter@D@__crt_stdio_output@@@2@@__crt_stdio_output@@AEAA_NQEAH@Z 0000000180063c80 f i libucrtd:output.obj
 0001:00062d70       ?parse_int_from_format_string@?$output_processor@_WV?$stream_output_adapter@_W@__crt_stdio_output@@V?$format_validation_base@_WV?$stream_output_adapter@_W@__crt_stdio_output@@@2@@__crt_stdio_output@@AEAA_NQEAH@Z 0000000180063d70 f i libucrtd:output.obj
 0001:00062e60       ?parse_int_from_format_string@?$output_processor@_WV?$stream_output_adapter@_W@__crt_stdio_output@@V?$positional_parameter_base@_WV?$stream_output_adapter@_W@__crt_stdio_output@@@2@@__crt_stdio_output@@AEAA_NQEAH@Z 0000000180063e60 f i libucrtd:output.obj
 0001:00062f50       ?parse_int_from_format_string@?$output_processor@_WV?$stream_output_adapter@_W@__crt_stdio_output@@V?$standard_base@_WV?$stream_output_adapter@_W@__crt_stdio_output@@@2@@__crt_stdio_output@@AEAA_NQEAH@Z 0000000180063f50 f i libucrtd:output.obj
 0001:00063040       ?parse_int_from_format_string@?$output_processor@_WV?$string_output_adapter@_W@__crt_stdio_output@@V?$format_validation_base@_WV?$string_output_adapter@_W@__crt_stdio_output@@@2@@__crt_stdio_output@@AEAA_NQEAH@Z 0000000180064040 f i libucrtd:output.obj
 0001:00063130       ?parse_int_from_format_string@?$output_processor@_WV?$string_output_adapter@_W@__crt_stdio_output@@V?$positional_parameter_base@_WV?$string_output_adapter@_W@__crt_stdio_output@@@2@@__crt_stdio_output@@AEAA_NQEAH@Z 0000000180064130 f i libucrtd:output.obj
 0001:00063220       ?parse_int_from_format_string@?$output_processor@_WV?$string_output_adapter@_W@__crt_stdio_output@@V?$standard_base@_WV?$string_output_adapter@_W@__crt_stdio_output@@@2@@__crt_stdio_output@@AEAA_NQEAH@Z 0000000180064220 f i libucrtd:output.obj
 0001:00063310       ?process@?$output_processor@DV?$stream_output_adapter@D@__crt_stdio_output@@V?$format_validation_base@DV?$stream_output_adapter@D@__crt_stdio_output@@@2@@__crt_stdio_output@@QEAAHXZ 0000000180064310 f i libucrtd:output.obj
 0001:00063670       ?process@?$output_processor@DV?$stream_output_adapter@D@__crt_stdio_output@@V?$positional_parameter_base@DV?$stream_output_adapter@D@__crt_stdio_output@@@2@@__crt_stdio_output@@QEAAHXZ 0000000180064670 f i libucrtd:output.obj
 0001:000639d0       ?process@?$output_processor@DV?$stream_output_adapter@D@__crt_stdio_output@@V?$standard_base@DV?$stream_output_adapter@D@__crt_stdio_output@@@2@@__crt_stdio_output@@QEAAHXZ 00000001800649d0 f i libucrtd:output.obj
 0001:00063d30       ?process@?$output_processor@DV?$string_output_adapter@D@__crt_stdio_output@@V?$format_validation_base@DV?$string_output_adapter@D@__crt_stdio_output@@@2@@__crt_stdio_output@@QEAAHXZ 0000000180064d30 f i libucrtd:output.obj
 0001:00064090       ?process@?$output_processor@DV?$string_output_adapter@D@__crt_stdio_output@@V?$positional_parameter_base@DV?$string_output_adapter@D@__crt_stdio_output@@@2@@__crt_stdio_output@@QEAAHXZ 0000000180065090 f i libucrtd:output.obj
 0001:000643f0       ?process@?$output_processor@DV?$string_output_adapter@D@__crt_stdio_output@@V?$standard_base@DV?$string_output_adapter@D@__crt_stdio_output@@@2@@__crt_stdio_output@@QEAAHXZ 00000001800653f0 f i libucrtd:output.obj
 0001:00064750       ?process@?$output_processor@_WV?$stream_output_adapter@_W@__crt_stdio_output@@V?$format_validation_base@_WV?$stream_output_adapter@_W@__crt_stdio_output@@@2@@__crt_stdio_output@@QEAAHXZ 0000000180065750 f i libucrtd:output.obj
 0001:00064ab0       ?process@?$output_processor@_WV?$stream_output_adapter@_W@__crt_stdio_output@@V?$positional_parameter_base@_WV?$stream_output_adapter@_W@__crt_stdio_output@@@2@@__crt_stdio_output@@QEAAHXZ 0000000180065ab0 f i libucrtd:output.obj
 0001:00064e10       ?process@?$output_processor@_WV?$stream_output_adapter@_W@__crt_stdio_output@@V?$standard_base@_WV?$stream_output_adapter@_W@__crt_stdio_output@@@2@@__crt_stdio_output@@QEAAHXZ 0000000180065e10 f i libucrtd:output.obj
 0001:00065170       ?process@?$output_processor@_WV?$string_output_adapter@_W@__crt_stdio_output@@V?$format_validation_base@_WV?$string_output_adapter@_W@__crt_stdio_output@@@2@@__crt_stdio_output@@QEAAHXZ 0000000180066170 f i libucrtd:output.obj
 0001:000654d0       ?process@?$output_processor@_WV?$string_output_adapter@_W@__crt_stdio_output@@V?$positional_parameter_base@_WV?$string_output_adapter@_W@__crt_stdio_output@@@2@@__crt_stdio_output@@QEAAHXZ 00000001800664d0 f i libucrtd:output.obj
 0001:00065830       ?process@?$output_processor@_WV?$string_output_adapter@_W@__crt_stdio_output@@V?$standard_base@_WV?$string_output_adapter@_W@__crt_stdio_output@@@2@@__crt_stdio_output@@QEAAHXZ 0000000180066830 f i libucrtd:output.obj
 0001:00065b90       ?public_stream@__crt_stdio_stream@@QEBAPEAU_iobuf@@XZ 0000000180066b90 f i libucrtd:output.obj
 0001:00065ba0       ?set_flag@?$output_processor@DV?$stream_output_adapter@D@__crt_stdio_output@@V?$format_validation_base@DV?$stream_output_adapter@D@__crt_stdio_output@@@2@@__crt_stdio_output@@AEAAXI@Z 0000000180066ba0 f i libucrtd:output.obj
 0001:00065bc0       ?set_flag@?$output_processor@DV?$stream_output_adapter@D@__crt_stdio_output@@V?$positional_parameter_base@DV?$stream_output_adapter@D@__crt_stdio_output@@@2@@__crt_stdio_output@@AEAAXI@Z 0000000180066bc0 f i libucrtd:output.obj
 0001:00065be0       ?set_flag@?$output_processor@DV?$stream_output_adapter@D@__crt_stdio_output@@V?$standard_base@DV?$stream_output_adapter@D@__crt_stdio_output@@@2@@__crt_stdio_output@@AEAAXI@Z 0000000180066be0 f i libucrtd:output.obj
 0001:00065c00       ?set_flag@?$output_processor@DV?$string_output_adapter@D@__crt_stdio_output@@V?$format_validation_base@DV?$string_output_adapter@D@__crt_stdio_output@@@2@@__crt_stdio_output@@AEAAXI@Z 0000000180066c00 f i libucrtd:output.obj
 0001:00065c20       ?set_flag@?$output_processor@DV?$string_output_adapter@D@__crt_stdio_output@@V?$positional_parameter_base@DV?$string_output_adapter@D@__crt_stdio_output@@@2@@__crt_stdio_output@@AEAAXI@Z 0000000180066c20 f i libucrtd:output.obj
 0001:00065c40       ?set_flag@?$output_processor@DV?$string_output_adapter@D@__crt_stdio_output@@V?$standard_base@DV?$string_output_adapter@D@__crt_stdio_output@@@2@@__crt_stdio_output@@AEAAXI@Z 0000000180066c40 f i libucrtd:output.obj
 0001:00065c60       ?set_flag@?$output_processor@_WV?$stream_output_adapter@_W@__crt_stdio_output@@V?$format_validation_base@_WV?$stream_output_adapter@_W@__crt_stdio_output@@@2@@__crt_stdio_output@@AEAAXI@Z 0000000180066c60 f i libucrtd:output.obj
 0001:00065c80       ?set_flag@?$output_processor@_WV?$stream_output_adapter@_W@__crt_stdio_output@@V?$positional_parameter_base@_WV?$stream_output_adapter@_W@__crt_stdio_output@@@2@@__crt_stdio_output@@AEAAXI@Z 0000000180066c80 f i libucrtd:output.obj
 0001:00065ca0       ?set_flag@?$output_processor@_WV?$stream_output_adapter@_W@__crt_stdio_output@@V?$standard_base@_WV?$stream_output_adapter@_W@__crt_stdio_output@@@2@@__crt_stdio_output@@AEAAXI@Z 0000000180066ca0 f i libucrtd:output.obj
 0001:00065cc0       ?set_flag@?$output_processor@_WV?$string_output_adapter@_W@__crt_stdio_output@@V?$format_validation_base@_WV?$string_output_adapter@_W@__crt_stdio_output@@@2@@__crt_stdio_output@@AEAAXI@Z 0000000180066cc0 f i libucrtd:output.obj
 0001:00065ce0       ?set_flag@?$output_processor@_WV?$string_output_adapter@_W@__crt_stdio_output@@V?$positional_parameter_base@_WV?$string_output_adapter@_W@__crt_stdio_output@@@2@@__crt_stdio_output@@AEAAXI@Z 0000000180066ce0 f i libucrtd:output.obj
 0001:00065d00       ?set_flag@?$output_processor@_WV?$string_output_adapter@_W@__crt_stdio_output@@V?$standard_base@_WV?$string_output_adapter@_W@__crt_stdio_output@@@2@@__crt_stdio_output@@AEAAXI@Z 0000000180066d00 f i libucrtd:output.obj
 0001:00065d20       ?should_format@?$positional_parameter_base@DV?$stream_output_adapter@D@__crt_stdio_output@@@__crt_stdio_output@@IEAA_NXZ 0000000180066d20 f i libucrtd:output.obj
 0001:00065d60       ?should_format@?$positional_parameter_base@DV?$string_output_adapter@D@__crt_stdio_output@@@__crt_stdio_output@@IEAA_NXZ 0000000180066d60 f i libucrtd:output.obj
 0001:00065da0       ?should_format@?$positional_parameter_base@_WV?$stream_output_adapter@_W@__crt_stdio_output@@@__crt_stdio_output@@IEAA_NXZ 0000000180066da0 f i libucrtd:output.obj
 0001:00065de0       ?should_format@?$positional_parameter_base@_WV?$string_output_adapter@_W@__crt_stdio_output@@@__crt_stdio_output@@IEAA_NXZ 0000000180066de0 f i libucrtd:output.obj
 0001:00065e20       ?should_format@?$standard_base@DV?$stream_output_adapter@D@__crt_stdio_output@@@__crt_stdio_output@@IEAA_NXZ 0000000180066e20 f i libucrtd:output.obj
 0001:00065e30       ?should_format@?$standard_base@DV?$string_output_adapter@D@__crt_stdio_output@@@__crt_stdio_output@@IEAA_NXZ 0000000180066e30 f i libucrtd:output.obj
 0001:00065e40       ?should_format@?$standard_base@_WV?$stream_output_adapter@_W@__crt_stdio_output@@@__crt_stdio_output@@IEAA_NXZ 0000000180066e40 f i libucrtd:output.obj
 0001:00065e50       ?should_format@?$standard_base@_WV?$string_output_adapter@_W@__crt_stdio_output@@@__crt_stdio_output@@IEAA_NXZ 0000000180066e50 f i libucrtd:output.obj
 0001:00065e60       ?should_skip_normal_state_processing@?$positional_parameter_base@DV?$stream_output_adapter@D@__crt_stdio_output@@@__crt_stdio_output@@IEAA_NXZ 0000000180066e60 f i libucrtd:output.obj
 0001:00065eb0       ?should_skip_normal_state_processing@?$positional_parameter_base@DV?$string_output_adapter@D@__crt_stdio_output@@@__crt_stdio_output@@IEAA_NXZ 0000000180066eb0 f i libucrtd:output.obj
 0001:00065f00       ?should_skip_normal_state_processing@?$positional_parameter_base@_WV?$stream_output_adapter@_W@__crt_stdio_output@@@__crt_stdio_output@@IEAA_NXZ 0000000180066f00 f i libucrtd:output.obj
 0001:00065f50       ?should_skip_normal_state_processing@?$positional_parameter_base@_WV?$string_output_adapter@_W@__crt_stdio_output@@@__crt_stdio_output@@IEAA_NXZ 0000000180066f50 f i libucrtd:output.obj
 0001:00065fa0       ?should_skip_normal_state_processing@?$standard_base@DV?$stream_output_adapter@D@__crt_stdio_output@@@__crt_stdio_output@@IEAA_NXZ 0000000180066fa0 f i libucrtd:output.obj
 0001:00065fb0       ?should_skip_normal_state_processing@?$standard_base@DV?$string_output_adapter@D@__crt_stdio_output@@@__crt_stdio_output@@IEAA_NXZ 0000000180066fb0 f i libucrtd:output.obj
 0001:00065fc0       ?should_skip_normal_state_processing@?$standard_base@_WV?$stream_output_adapter@_W@__crt_stdio_output@@@__crt_stdio_output@@IEAA_NXZ 0000000180066fc0 f i libucrtd:output.obj
 0001:00065fd0       ?should_skip_normal_state_processing@?$standard_base@_WV?$string_output_adapter@_W@__crt_stdio_output@@@__crt_stdio_output@@IEAA_NXZ 0000000180066fd0 f i libucrtd:output.obj
 0001:00065fe0       ?should_skip_type_state_output@?$positional_parameter_base@DV?$stream_output_adapter@D@__crt_stdio_output@@@__crt_stdio_output@@IEBA_NXZ 0000000180066fe0 f i libucrtd:output.obj
 0001:00066020       ?should_skip_type_state_output@?$positional_parameter_base@DV?$string_output_adapter@D@__crt_stdio_output@@@__crt_stdio_output@@IEBA_NXZ 0000000180067020 f i libucrtd:output.obj
 0001:00066060       ?should_skip_type_state_output@?$positional_parameter_base@_WV?$stream_output_adapter@_W@__crt_stdio_output@@@__crt_stdio_output@@IEBA_NXZ 0000000180067060 f i libucrtd:output.obj
 0001:000660a0       ?should_skip_type_state_output@?$positional_parameter_base@_WV?$string_output_adapter@_W@__crt_stdio_output@@@__crt_stdio_output@@IEBA_NXZ 00000001800670a0 f i libucrtd:output.obj
 0001:000660e0       ?should_skip_type_state_output@?$standard_base@DV?$stream_output_adapter@D@__crt_stdio_output@@@__crt_stdio_output@@IEBA_NXZ 00000001800670e0 f i libucrtd:output.obj
 0001:000660f0       ?should_skip_type_state_output@?$standard_base@DV?$string_output_adapter@D@__crt_stdio_output@@@__crt_stdio_output@@IEBA_NXZ 00000001800670f0 f i libucrtd:output.obj
 0001:00066100       ?should_skip_type_state_output@?$standard_base@_WV?$stream_output_adapter@_W@__crt_stdio_output@@@__crt_stdio_output@@IEBA_NXZ 0000000180067100 f i libucrtd:output.obj
 0001:00066110       ?should_skip_type_state_output@?$standard_base@_WV?$string_output_adapter@_W@__crt_stdio_output@@@__crt_stdio_output@@IEBA_NXZ 0000000180067110 f i libucrtd:output.obj
 0001:00066120       ?state_case_dot@?$output_processor@DV?$stream_output_adapter@D@__crt_stdio_output@@V?$format_validation_base@DV?$stream_output_adapter@D@__crt_stdio_output@@@2@@__crt_stdio_output@@AEAA_NXZ 0000000180067120 f i libucrtd:output.obj
 0001:00066140       ?state_case_dot@?$output_processor@DV?$stream_output_adapter@D@__crt_stdio_output@@V?$positional_parameter_base@DV?$stream_output_adapter@D@__crt_stdio_output@@@2@@__crt_stdio_output@@AEAA_NXZ 0000000180067140 f i libucrtd:output.obj
 0001:00066160       ?state_case_dot@?$output_processor@DV?$stream_output_adapter@D@__crt_stdio_output@@V?$standard_base@DV?$stream_output_adapter@D@__crt_stdio_output@@@2@@__crt_stdio_output@@AEAA_NXZ 0000000180067160 f i libucrtd:output.obj
 0001:00066180       ?state_case_dot@?$output_processor@DV?$string_output_adapter@D@__crt_stdio_output@@V?$format_validation_base@DV?$string_output_adapter@D@__crt_stdio_output@@@2@@__crt_stdio_output@@AEAA_NXZ 0000000180067180 f i libucrtd:output.obj
 0001:000661a0       ?state_case_dot@?$output_processor@DV?$string_output_adapter@D@__crt_stdio_output@@V?$positional_parameter_base@DV?$string_output_adapter@D@__crt_stdio_output@@@2@@__crt_stdio_output@@AEAA_NXZ 00000001800671a0 f i libucrtd:output.obj
 0001:000661c0       ?state_case_dot@?$output_processor@DV?$string_output_adapter@D@__crt_stdio_output@@V?$standard_base@DV?$string_output_adapter@D@__crt_stdio_output@@@2@@__crt_stdio_output@@AEAA_NXZ 00000001800671c0 f i libucrtd:output.obj
 0001:000661e0       ?state_case_dot@?$output_processor@_WV?$stream_output_adapter@_W@__crt_stdio_output@@V?$format_validation_base@_WV?$stream_output_adapter@_W@__crt_stdio_output@@@2@@__crt_stdio_output@@AEAA_NXZ 00000001800671e0 f i libucrtd:output.obj
 0001:00066200       ?state_case_dot@?$output_processor@_WV?$stream_output_adapter@_W@__crt_stdio_output@@V?$positional_parameter_base@_WV?$stream_output_adapter@_W@__crt_stdio_output@@@2@@__crt_stdio_output@@AEAA_NXZ 0000000180067200 f i libucrtd:output.obj
 0001:00066220       ?state_case_dot@?$output_processor@_WV?$stream_output_adapter@_W@__crt_stdio_output@@V?$standard_base@_WV?$stream_output_adapter@_W@__crt_stdio_output@@@2@@__crt_stdio_output@@AEAA_NXZ 0000000180067220 f i libucrtd:output.obj
 0001:00066240       ?state_case_dot@?$output_processor@_WV?$string_output_adapter@_W@__crt_stdio_output@@V?$format_validation_base@_WV?$string_output_adapter@_W@__crt_stdio_output@@@2@@__crt_stdio_output@@AEAA_NXZ 0000000180067240 f i libucrtd:output.obj
 0001:00066260       ?state_case_dot@?$output_processor@_WV?$string_output_adapter@_W@__crt_stdio_output@@V?$positional_parameter_base@_WV?$string_output_adapter@_W@__crt_stdio_output@@@2@@__crt_stdio_output@@AEAA_NXZ 0000000180067260 f i libucrtd:output.obj
 0001:00066280       ?state_case_dot@?$output_processor@_WV?$string_output_adapter@_W@__crt_stdio_output@@V?$standard_base@_WV?$string_output_adapter@_W@__crt_stdio_output@@@2@@__crt_stdio_output@@AEAA_NXZ 0000000180067280 f i libucrtd:output.obj
 0001:000662a0       ?state_case_flag@?$output_processor@DV?$stream_output_adapter@D@__crt_stdio_output@@V?$format_validation_base@DV?$stream_output_adapter@D@__crt_stdio_output@@@2@@__crt_stdio_output@@AEAA_NXZ 00000001800672a0 f i libucrtd:output.obj
 0001:00066340       ?state_case_flag@?$output_processor@DV?$stream_output_adapter@D@__crt_stdio_output@@V?$positional_parameter_base@DV?$stream_output_adapter@D@__crt_stdio_output@@@2@@__crt_stdio_output@@AEAA_NXZ 0000000180067340 f i libucrtd:output.obj
 0001:000663e0       ?state_case_flag@?$output_processor@DV?$stream_output_adapter@D@__crt_stdio_output@@V?$standard_base@DV?$stream_output_adapter@D@__crt_stdio_output@@@2@@__crt_stdio_output@@AEAA_NXZ 00000001800673e0 f i libucrtd:output.obj
 0001:00066480       ?state_case_flag@?$output_processor@DV?$string_output_adapter@D@__crt_stdio_output@@V?$format_validation_base@DV?$string_output_adapter@D@__crt_stdio_output@@@2@@__crt_stdio_output@@AEAA_NXZ 0000000180067480 f i libucrtd:output.obj
 0001:00066520       ?state_case_flag@?$output_processor@DV?$string_output_adapter@D@__crt_stdio_output@@V?$positional_parameter_base@DV?$string_output_adapter@D@__crt_stdio_output@@@2@@__crt_stdio_output@@AEAA_NXZ 0000000180067520 f i libucrtd:output.obj
 0001:000665c0       ?state_case_flag@?$output_processor@DV?$string_output_adapter@D@__crt_stdio_output@@V?$standard_base@DV?$string_output_adapter@D@__crt_stdio_output@@@2@@__crt_stdio_output@@AEAA_NXZ 00000001800675c0 f i libucrtd:output.obj
 0001:00066660       ?state_case_flag@?$output_processor@_WV?$stream_output_adapter@_W@__crt_stdio_output@@V?$format_validation_base@_WV?$stream_output_adapter@_W@__crt_stdio_output@@@2@@__crt_stdio_output@@AEAA_NXZ 0000000180067660 f i libucrtd:output.obj
 0001:00066700       ?state_case_flag@?$output_processor@_WV?$stream_output_adapter@_W@__crt_stdio_output@@V?$positional_parameter_base@_WV?$stream_output_adapter@_W@__crt_stdio_output@@@2@@__crt_stdio_output@@AEAA_NXZ 0000000180067700 f i libucrtd:output.obj
 0001:000667a0       ?state_case_flag@?$output_processor@_WV?$stream_output_adapter@_W@__crt_stdio_output@@V?$standard_base@_WV?$stream_output_adapter@_W@__crt_stdio_output@@@2@@__crt_stdio_output@@AEAA_NXZ 00000001800677a0 f i libucrtd:output.obj
 0001:00066840       ?state_case_flag@?$output_processor@_WV?$string_output_adapter@_W@__crt_stdio_output@@V?$format_validation_base@_WV?$string_output_adapter@_W@__crt_stdio_output@@@2@@__crt_stdio_output@@AEAA_NXZ 0000000180067840 f i libucrtd:output.obj
 0001:000668e0       ?state_case_flag@?$output_processor@_WV?$string_output_adapter@_W@__crt_stdio_output@@V?$positional_parameter_base@_WV?$string_output_adapter@_W@__crt_stdio_output@@@2@@__crt_stdio_output@@AEAA_NXZ 00000001800678e0 f i libucrtd:output.obj
 0001:00066980       ?state_case_flag@?$output_processor@_WV?$string_output_adapter@_W@__crt_stdio_output@@V?$standard_base@_WV?$string_output_adapter@_W@__crt_stdio_output@@@2@@__crt_stdio_output@@AEAA_NXZ 0000000180067980 f i libucrtd:output.obj
 0001:00066a20       ?state_case_normal@?$output_processor@DV?$stream_output_adapter@D@__crt_stdio_output@@V?$format_validation_base@DV?$stream_output_adapter@D@__crt_stdio_output@@@2@@__crt_stdio_output@@AEAA_NXZ 0000000180067a20 f i libucrtd:output.obj
 0001:00066b00       ?state_case_normal@?$output_processor@DV?$stream_output_adapter@D@__crt_stdio_output@@V?$positional_parameter_base@DV?$stream_output_adapter@D@__crt_stdio_output@@@2@@__crt_stdio_output@@AEAA_NXZ 0000000180067b00 f i libucrtd:output.obj
 0001:00066be0       ?state_case_normal@?$output_processor@DV?$stream_output_adapter@D@__crt_stdio_output@@V?$standard_base@DV?$stream_output_adapter@D@__crt_stdio_output@@@2@@__crt_stdio_output@@AEAA_NXZ 0000000180067be0 f i libucrtd:output.obj
 0001:00066cc0       ?state_case_normal@?$output_processor@DV?$string_output_adapter@D@__crt_stdio_output@@V?$format_validation_base@DV?$string_output_adapter@D@__crt_stdio_output@@@2@@__crt_stdio_output@@AEAA_NXZ 0000000180067cc0 f i libucrtd:output.obj
 0001:00066da0       ?state_case_normal@?$output_processor@DV?$string_output_adapter@D@__crt_stdio_output@@V?$positional_parameter_base@DV?$string_output_adapter@D@__crt_stdio_output@@@2@@__crt_stdio_output@@AEAA_NXZ 0000000180067da0 f i libucrtd:output.obj
 0001:00066e80       ?state_case_normal@?$output_processor@DV?$string_output_adapter@D@__crt_stdio_output@@V?$standard_base@DV?$string_output_adapter@D@__crt_stdio_output@@@2@@__crt_stdio_output@@AEAA_NXZ 0000000180067e80 f i libucrtd:output.obj
 0001:00066f60       ?state_case_normal@?$output_processor@_WV?$stream_output_adapter@_W@__crt_stdio_output@@V?$format_validation_base@_WV?$stream_output_adapter@_W@__crt_stdio_output@@@2@@__crt_stdio_output@@AEAA_NXZ 0000000180067f60 f i libucrtd:output.obj
 0001:00067040       ?state_case_normal@?$output_processor@_WV?$stream_output_adapter@_W@__crt_stdio_output@@V?$positional_parameter_base@_WV?$stream_output_adapter@_W@__crt_stdio_output@@@2@@__crt_stdio_output@@AEAA_NXZ 0000000180068040 f i libucrtd:output.obj
 0001:00067120       ?state_case_normal@?$output_processor@_WV?$stream_output_adapter@_W@__crt_stdio_output@@V?$standard_base@_WV?$stream_output_adapter@_W@__crt_stdio_output@@@2@@__crt_stdio_output@@AEAA_NXZ 0000000180068120 f i libucrtd:output.obj
 0001:00067200       ?state_case_normal@?$output_processor@_WV?$string_output_adapter@_W@__crt_stdio_output@@V?$format_validation_base@_WV?$string_output_adapter@_W@__crt_stdio_output@@@2@@__crt_stdio_output@@AEAA_NXZ 0000000180068200 f i libucrtd:output.obj
 0001:000672e0       ?state_case_normal@?$output_processor@_WV?$string_output_adapter@_W@__crt_stdio_output@@V?$positional_parameter_base@_WV?$string_output_adapter@_W@__crt_stdio_output@@@2@@__crt_stdio_output@@AEAA_NXZ 00000001800682e0 f i libucrtd:output.obj
 0001:000673c0       ?state_case_normal@?$output_processor@_WV?$string_output_adapter@_W@__crt_stdio_output@@V?$standard_base@_WV?$string_output_adapter@_W@__crt_stdio_output@@@2@@__crt_stdio_output@@AEAA_NXZ 00000001800683c0 f i libucrtd:output.obj
 0001:000674a0       ?state_case_normal_common@?$output_processor@DV?$stream_output_adapter@D@__crt_stdio_output@@V?$format_validation_base@DV?$stream_output_adapter@D@__crt_stdio_output@@@2@@__crt_stdio_output@@AEAA_NXZ 00000001800684a0 f i libucrtd:output.obj
 0001:000674f0       ?state_case_normal_common@?$output_processor@DV?$stream_output_adapter@D@__crt_stdio_output@@V?$positional_parameter_base@DV?$stream_output_adapter@D@__crt_stdio_output@@@2@@__crt_stdio_output@@AEAA_NXZ 00000001800684f0 f i libucrtd:output.obj
 0001:00067540       ?state_case_normal_common@?$output_processor@DV?$stream_output_adapter@D@__crt_stdio_output@@V?$standard_base@DV?$stream_output_adapter@D@__crt_stdio_output@@@2@@__crt_stdio_output@@AEAA_NXZ 0000000180068540 f i libucrtd:output.obj
 0001:00067590       ?state_case_normal_common@?$output_processor@DV?$string_output_adapter@D@__crt_stdio_output@@V?$format_validation_base@DV?$string_output_adapter@D@__crt_stdio_output@@@2@@__crt_stdio_output@@AEAA_NXZ 0000000180068590 f i libucrtd:output.obj
 0001:000675e0       ?state_case_normal_common@?$output_processor@DV?$string_output_adapter@D@__crt_stdio_output@@V?$positional_parameter_base@DV?$string_output_adapter@D@__crt_stdio_output@@@2@@__crt_stdio_output@@AEAA_NXZ 00000001800685e0 f i libucrtd:output.obj
 0001:00067630       ?state_case_normal_common@?$output_processor@DV?$string_output_adapter@D@__crt_stdio_output@@V?$standard_base@DV?$string_output_adapter@D@__crt_stdio_output@@@2@@__crt_stdio_output@@AEAA_NXZ 0000000180068630 f i libucrtd:output.obj
 0001:00067680       ?state_case_normal_common@?$output_processor@_WV?$stream_output_adapter@_W@__crt_stdio_output@@V?$format_validation_base@_WV?$stream_output_adapter@_W@__crt_stdio_output@@@2@@__crt_stdio_output@@AEAA_NXZ 0000000180068680 f i libucrtd:output.obj
 0001:000676d0       ?state_case_normal_common@?$output_processor@_WV?$stream_output_adapter@_W@__crt_stdio_output@@V?$positional_parameter_base@_WV?$stream_output_adapter@_W@__crt_stdio_output@@@2@@__crt_stdio_output@@AEAA_NXZ 00000001800686d0 f i libucrtd:output.obj
 0001:00067720       ?state_case_normal_common@?$output_processor@_WV?$stream_output_adapter@_W@__crt_stdio_output@@V?$standard_base@_WV?$stream_output_adapter@_W@__crt_stdio_output@@@2@@__crt_stdio_output@@AEAA_NXZ 0000000180068720 f i libucrtd:output.obj
 0001:00067770       ?state_case_normal_common@?$output_processor@_WV?$string_output_adapter@_W@__crt_stdio_output@@V?$format_validation_base@_WV?$string_output_adapter@_W@__crt_stdio_output@@@2@@__crt_stdio_output@@AEAA_NXZ 0000000180068770 f i libucrtd:output.obj
 0001:000677c0       ?state_case_normal_common@?$output_processor@_WV?$string_output_adapter@_W@__crt_stdio_output@@V?$positional_parameter_base@_WV?$string_output_adapter@_W@__crt_stdio_output@@@2@@__crt_stdio_output@@AEAA_NXZ 00000001800687c0 f i libucrtd:output.obj
 0001:00067810       ?state_case_normal_common@?$output_processor@_WV?$string_output_adapter@_W@__crt_stdio_output@@V?$standard_base@_WV?$string_output_adapter@_W@__crt_stdio_output@@@2@@__crt_stdio_output@@AEAA_NXZ 0000000180068810 f i libucrtd:output.obj
 0001:00067860       ?state_case_normal_tchar@?$output_processor@DV?$stream_output_adapter@D@__crt_stdio_output@@V?$format_validation_base@DV?$stream_output_adapter@D@__crt_stdio_output@@@2@@__crt_stdio_output@@AEAA_ND@Z 0000000180068860 f i libucrtd:output.obj
 0001:000679a0       ?state_case_normal_tchar@?$output_processor@DV?$stream_output_adapter@D@__crt_stdio_output@@V?$positional_parameter_base@DV?$stream_output_adapter@D@__crt_stdio_output@@@2@@__crt_stdio_output@@AEAA_ND@Z 00000001800689a0 f i libucrtd:output.obj
 0001:00067ae0       ?state_case_normal_tchar@?$output_processor@DV?$stream_output_adapter@D@__crt_stdio_output@@V?$standard_base@DV?$stream_output_adapter@D@__crt_stdio_output@@@2@@__crt_stdio_output@@AEAA_ND@Z 0000000180068ae0 f i libucrtd:output.obj
 0001:00067c20       ?state_case_normal_tchar@?$output_processor@DV?$string_output_adapter@D@__crt_stdio_output@@V?$format_validation_base@DV?$string_output_adapter@D@__crt_stdio_output@@@2@@__crt_stdio_output@@AEAA_ND@Z 0000000180068c20 f i libucrtd:output.obj
 0001:00067d60       ?state_case_normal_tchar@?$output_processor@DV?$string_output_adapter@D@__crt_stdio_output@@V?$positional_parameter_base@DV?$string_output_adapter@D@__crt_stdio_output@@@2@@__crt_stdio_output@@AEAA_ND@Z 0000000180068d60 f i libucrtd:output.obj
 0001:00067ea0       ?state_case_normal_tchar@?$output_processor@DV?$string_output_adapter@D@__crt_stdio_output@@V?$standard_base@DV?$string_output_adapter@D@__crt_stdio_output@@@2@@__crt_stdio_output@@AEAA_ND@Z 0000000180068ea0 f i libucrtd:output.obj
 0001:00067fe0       ?state_case_normal_tchar@?$output_processor@_WV?$stream_output_adapter@_W@__crt_stdio_output@@V?$format_validation_base@_WV?$stream_output_adapter@_W@__crt_stdio_output@@@2@@__crt_stdio_output@@AEAA_N_W@Z 0000000180068fe0 f i libucrtd:output.obj
 0001:00068000       ?state_case_normal_tchar@?$output_processor@_WV?$stream_output_adapter@_W@__crt_stdio_output@@V?$positional_parameter_base@_WV?$stream_output_adapter@_W@__crt_stdio_output@@@2@@__crt_stdio_output@@AEAA_N_W@Z 0000000180069000 f i libucrtd:output.obj
 0001:00068020       ?state_case_normal_tchar@?$output_processor@_WV?$stream_output_adapter@_W@__crt_stdio_output@@V?$standard_base@_WV?$stream_output_adapter@_W@__crt_stdio_output@@@2@@__crt_stdio_output@@AEAA_N_W@Z 0000000180069020 f i libucrtd:output.obj
 0001:00068040       ?state_case_normal_tchar@?$output_processor@_WV?$string_output_adapter@_W@__crt_stdio_output@@V?$format_validation_base@_WV?$string_output_adapter@_W@__crt_stdio_output@@@2@@__crt_stdio_output@@AEAA_N_W@Z 0000000180069040 f i libucrtd:output.obj
 0001:00068060       ?state_case_normal_tchar@?$output_processor@_WV?$string_output_adapter@_W@__crt_stdio_output@@V?$positional_parameter_base@_WV?$string_output_adapter@_W@__crt_stdio_output@@@2@@__crt_stdio_output@@AEAA_N_W@Z 0000000180069060 f i libucrtd:output.obj
 0001:00068080       ?state_case_normal_tchar@?$output_processor@_WV?$string_output_adapter@_W@__crt_stdio_output@@V?$standard_base@_WV?$string_output_adapter@_W@__crt_stdio_output@@@2@@__crt_stdio_output@@AEAA_N_W@Z 0000000180069080 f i libucrtd:output.obj
 0001:000680a0       ?state_case_percent@?$output_processor@DV?$stream_output_adapter@D@__crt_stdio_output@@V?$format_validation_base@DV?$stream_output_adapter@D@__crt_stdio_output@@@2@@__crt_stdio_output@@AEAA_NXZ 00000001800690a0 f i libucrtd:output.obj
 0001:000680f0       ?state_case_percent@?$output_processor@DV?$stream_output_adapter@D@__crt_stdio_output@@V?$positional_parameter_base@DV?$stream_output_adapter@D@__crt_stdio_output@@@2@@__crt_stdio_output@@AEAA_NXZ 00000001800690f0 f i libucrtd:output.obj
 0001:00068140       ?state_case_percent@?$output_processor@DV?$stream_output_adapter@D@__crt_stdio_output@@V?$standard_base@DV?$stream_output_adapter@D@__crt_stdio_output@@@2@@__crt_stdio_output@@AEAA_NXZ 0000000180069140 f i libucrtd:output.obj
 0001:00068190       ?state_case_percent@?$output_processor@DV?$string_output_adapter@D@__crt_stdio_output@@V?$format_validation_base@DV?$string_output_adapter@D@__crt_stdio_output@@@2@@__crt_stdio_output@@AEAA_NXZ 0000000180069190 f i libucrtd:output.obj
 0001:000681e0       ?state_case_percent@?$output_processor@DV?$string_output_adapter@D@__crt_stdio_output@@V?$positional_parameter_base@DV?$string_output_adapter@D@__crt_stdio_output@@@2@@__crt_stdio_output@@AEAA_NXZ 00000001800691e0 f i libucrtd:output.obj
 0001:00068230       ?state_case_percent@?$output_processor@DV?$string_output_adapter@D@__crt_stdio_output@@V?$standard_base@DV?$string_output_adapter@D@__crt_stdio_output@@@2@@__crt_stdio_output@@AEAA_NXZ 0000000180069230 f i libucrtd:output.obj
 0001:00068280       ?state_case_percent@?$output_processor@_WV?$stream_output_adapter@_W@__crt_stdio_output@@V?$format_validation_base@_WV?$stream_output_adapter@_W@__crt_stdio_output@@@2@@__crt_stdio_output@@AEAA_NXZ 0000000180069280 f i libucrtd:output.obj
 0001:000682d0       ?state_case_percent@?$output_processor@_WV?$stream_output_adapter@_W@__crt_stdio_output@@V?$positional_parameter_base@_WV?$stream_output_adapter@_W@__crt_stdio_output@@@2@@__crt_stdio_output@@AEAA_NXZ 00000001800692d0 f i libucrtd:output.obj
 0001:00068320       ?state_case_percent@?$output_processor@_WV?$stream_output_adapter@_W@__crt_stdio_output@@V?$standard_base@_WV?$stream_output_adapter@_W@__crt_stdio_output@@@2@@__crt_stdio_output@@AEAA_NXZ 0000000180069320 f i libucrtd:output.obj
 0001:00068370       ?state_case_percent@?$output_processor@_WV?$string_output_adapter@_W@__crt_stdio_output@@V?$format_validation_base@_WV?$string_output_adapter@_W@__crt_stdio_output@@@2@@__crt_stdio_output@@AEAA_NXZ 0000000180069370 f i libucrtd:output.obj
 0001:000683c0       ?state_case_percent@?$output_processor@_WV?$string_output_adapter@_W@__crt_stdio_output@@V?$positional_parameter_base@_WV?$string_output_adapter@_W@__crt_stdio_output@@@2@@__crt_stdio_output@@AEAA_NXZ 00000001800693c0 f i libucrtd:output.obj
 0001:00068410       ?state_case_percent@?$output_processor@_WV?$string_output_adapter@_W@__crt_stdio_output@@V?$standard_base@_WV?$string_output_adapter@_W@__crt_stdio_output@@@2@@__crt_stdio_output@@AEAA_NXZ 0000000180069410 f i libucrtd:output.obj
 0001:00068460       ?state_case_precision@?$output_processor@DV?$stream_output_adapter@D@__crt_stdio_output@@V?$format_validation_base@DV?$stream_output_adapter@D@__crt_stdio_output@@@2@@__crt_stdio_output@@AEAA_NXZ 0000000180069460 f i libucrtd:output.obj
 0001:000684e0       ?state_case_precision@?$output_processor@DV?$stream_output_adapter@D@__crt_stdio_output@@V?$positional_parameter_base@DV?$stream_output_adapter@D@__crt_stdio_output@@@2@@__crt_stdio_output@@AEAA_NXZ 00000001800694e0 f i libucrtd:output.obj
 0001:00068560       ?state_case_precision@?$output_processor@DV?$stream_output_adapter@D@__crt_stdio_output@@V?$standard_base@DV?$stream_output_adapter@D@__crt_stdio_output@@@2@@__crt_stdio_output@@AEAA_NXZ 0000000180069560 f i libucrtd:output.obj
 0001:000685e0       ?state_case_precision@?$output_processor@DV?$string_output_adapter@D@__crt_stdio_output@@V?$format_validation_base@DV?$string_output_adapter@D@__crt_stdio_output@@@2@@__crt_stdio_output@@AEAA_NXZ 00000001800695e0 f i libucrtd:output.obj
 0001:00068660       ?state_case_precision@?$output_processor@DV?$string_output_adapter@D@__crt_stdio_output@@V?$positional_parameter_base@DV?$string_output_adapter@D@__crt_stdio_output@@@2@@__crt_stdio_output@@AEAA_NXZ 0000000180069660 f i libucrtd:output.obj
 0001:000686e0       ?state_case_precision@?$output_processor@DV?$string_output_adapter@D@__crt_stdio_output@@V?$standard_base@DV?$string_output_adapter@D@__crt_stdio_output@@@2@@__crt_stdio_output@@AEAA_NXZ 00000001800696e0 f i libucrtd:output.obj
 0001:00068760       ?state_case_precision@?$output_processor@_WV?$stream_output_adapter@_W@__crt_stdio_output@@V?$format_validation_base@_WV?$stream_output_adapter@_W@__crt_stdio_output@@@2@@__crt_stdio_output@@AEAA_NXZ 0000000180069760 f i libucrtd:output.obj
 0001:000687e0       ?state_case_precision@?$output_processor@_WV?$stream_output_adapter@_W@__crt_stdio_output@@V?$positional_parameter_base@_WV?$stream_output_adapter@_W@__crt_stdio_output@@@2@@__crt_stdio_output@@AEAA_NXZ 00000001800697e0 f i libucrtd:output.obj
 0001:00068860       ?state_case_precision@?$output_processor@_WV?$stream_output_adapter@_W@__crt_stdio_output@@V?$standard_base@_WV?$stream_output_adapter@_W@__crt_stdio_output@@@2@@__crt_stdio_output@@AEAA_NXZ 0000000180069860 f i libucrtd:output.obj
 0001:000688e0       ?state_case_precision@?$output_processor@_WV?$string_output_adapter@_W@__crt_stdio_output@@V?$format_validation_base@_WV?$string_output_adapter@_W@__crt_stdio_output@@@2@@__crt_stdio_output@@AEAA_NXZ 00000001800698e0 f i libucrtd:output.obj
 0001:00068960       ?state_case_precision@?$output_processor@_WV?$string_output_adapter@_W@__crt_stdio_output@@V?$positional_parameter_base@_WV?$string_output_adapter@_W@__crt_stdio_output@@@2@@__crt_stdio_output@@AEAA_NXZ 0000000180069960 f i libucrtd:output.obj
 0001:000689e0       ?state_case_precision@?$output_processor@_WV?$string_output_adapter@_W@__crt_stdio_output@@V?$standard_base@_WV?$string_output_adapter@_W@__crt_stdio_output@@@2@@__crt_stdio_output@@AEAA_NXZ 00000001800699e0 f i libucrtd:output.obj
 0001:00068a60       ?state_case_size@?$output_processor@DV?$stream_output_adapter@D@__crt_stdio_output@@V?$format_validation_base@DV?$stream_output_adapter@D@__crt_stdio_output@@@2@@__crt_stdio_output@@AEAA_NXZ 0000000180069a60 f i libucrtd:output.obj
 0001:00068ee0       ?state_case_size@?$output_processor@DV?$stream_output_adapter@D@__crt_stdio_output@@V?$positional_parameter_base@DV?$stream_output_adapter@D@__crt_stdio_output@@@2@@__crt_stdio_output@@AEAA_NXZ 0000000180069ee0 f i libucrtd:output.obj
 0001:00069360       ?state_case_size@?$output_processor@DV?$stream_output_adapter@D@__crt_stdio_output@@V?$standard_base@DV?$stream_output_adapter@D@__crt_stdio_output@@@2@@__crt_stdio_output@@AEAA_NXZ 000000018006a360 f i libucrtd:output.obj
 0001:000697e0       ?state_case_size@?$output_processor@DV?$string_output_adapter@D@__crt_stdio_output@@V?$format_validation_base@DV?$string_output_adapter@D@__crt_stdio_output@@@2@@__crt_stdio_output@@AEAA_NXZ 000000018006a7e0 f i libucrtd:output.obj
 0001:00069c60       ?state_case_size@?$output_processor@DV?$string_output_adapter@D@__crt_stdio_output@@V?$positional_parameter_base@DV?$string_output_adapter@D@__crt_stdio_output@@@2@@__crt_stdio_output@@AEAA_NXZ 000000018006ac60 f i libucrtd:output.obj
 0001:0006a0e0       ?state_case_size@?$output_processor@DV?$string_output_adapter@D@__crt_stdio_output@@V?$standard_base@DV?$string_output_adapter@D@__crt_stdio_output@@@2@@__crt_stdio_output@@AEAA_NXZ 000000018006b0e0 f i libucrtd:output.obj
 0001:0006a560       ?state_case_size@?$output_processor@_WV?$stream_output_adapter@_W@__crt_stdio_output@@V?$format_validation_base@_WV?$stream_output_adapter@_W@__crt_stdio_output@@@2@@__crt_stdio_output@@AEAA_NXZ 000000018006b560 f i libucrtd:output.obj
 0001:0006a9e0       ?state_case_size@?$output_processor@_WV?$stream_output_adapter@_W@__crt_stdio_output@@V?$positional_parameter_base@_WV?$stream_output_adapter@_W@__crt_stdio_output@@@2@@__crt_stdio_output@@AEAA_NXZ 000000018006b9e0 f i libucrtd:output.obj
 0001:0006ae60       ?state_case_size@?$output_processor@_WV?$stream_output_adapter@_W@__crt_stdio_output@@V?$standard_base@_WV?$stream_output_adapter@_W@__crt_stdio_output@@@2@@__crt_stdio_output@@AEAA_NXZ 000000018006be60 f i libucrtd:output.obj
 0001:0006b2e0       ?state_case_size@?$output_processor@_WV?$string_output_adapter@_W@__crt_stdio_output@@V?$format_validation_base@_WV?$string_output_adapter@_W@__crt_stdio_output@@@2@@__crt_stdio_output@@AEAA_NXZ 000000018006c2e0 f i libucrtd:output.obj
 0001:0006b760       ?state_case_size@?$output_processor@_WV?$string_output_adapter@_W@__crt_stdio_output@@V?$positional_parameter_base@_WV?$string_output_adapter@_W@__crt_stdio_output@@@2@@__crt_stdio_output@@AEAA_NXZ 000000018006c760 f i libucrtd:output.obj
 0001:0006bbe0       ?state_case_size@?$output_processor@_WV?$string_output_adapter@_W@__crt_stdio_output@@V?$standard_base@_WV?$string_output_adapter@_W@__crt_stdio_output@@@2@@__crt_stdio_output@@AEAA_NXZ 000000018006cbe0 f i libucrtd:output.obj
 0001:0006c060       ?state_case_type@?$output_processor@DV?$stream_output_adapter@D@__crt_stdio_output@@V?$format_validation_base@DV?$stream_output_adapter@D@__crt_stdio_output@@@2@@__crt_stdio_output@@AEAA_NXZ 000000018006d060 f i libucrtd:output.obj
 0001:0006c500       ?state_case_type@?$output_processor@DV?$stream_output_adapter@D@__crt_stdio_output@@V?$positional_parameter_base@DV?$stream_output_adapter@D@__crt_stdio_output@@@2@@__crt_stdio_output@@AEAA_NXZ 000000018006d500 f i libucrtd:output.obj
 0001:0006c9a0       ?state_case_type@?$output_processor@DV?$stream_output_adapter@D@__crt_stdio_output@@V?$standard_base@DV?$stream_output_adapter@D@__crt_stdio_output@@@2@@__crt_stdio_output@@AEAA_NXZ 000000018006d9a0 f i libucrtd:output.obj
 0001:0006ce40       ?state_case_type@?$output_processor@DV?$string_output_adapter@D@__crt_stdio_output@@V?$format_validation_base@DV?$string_output_adapter@D@__crt_stdio_output@@@2@@__crt_stdio_output@@AEAA_NXZ 000000018006de40 f i libucrtd:output.obj
 0001:0006d2e0       ?state_case_type@?$output_processor@DV?$string_output_adapter@D@__crt_stdio_output@@V?$positional_parameter_base@DV?$string_output_adapter@D@__crt_stdio_output@@@2@@__crt_stdio_output@@AEAA_NXZ 000000018006e2e0 f i libucrtd:output.obj
 0001:0006d780       ?state_case_type@?$output_processor@DV?$string_output_adapter@D@__crt_stdio_output@@V?$standard_base@DV?$string_output_adapter@D@__crt_stdio_output@@@2@@__crt_stdio_output@@AEAA_NXZ 000000018006e780 f i libucrtd:output.obj
 0001:0006dc20       ?state_case_type@?$output_processor@_WV?$stream_output_adapter@_W@__crt_stdio_output@@V?$format_validation_base@_WV?$stream_output_adapter@_W@__crt_stdio_output@@@2@@__crt_stdio_output@@AEAA_NXZ 000000018006ec20 f i libucrtd:output.obj
 0001:0006e180       ?state_case_type@?$output_processor@_WV?$stream_output_adapter@_W@__crt_stdio_output@@V?$positional_parameter_base@_WV?$stream_output_adapter@_W@__crt_stdio_output@@@2@@__crt_stdio_output@@AEAA_NXZ 000000018006f180 f i libucrtd:output.obj
 0001:0006e6e0       ?state_case_type@?$output_processor@_WV?$stream_output_adapter@_W@__crt_stdio_output@@V?$standard_base@_WV?$stream_output_adapter@_W@__crt_stdio_output@@@2@@__crt_stdio_output@@AEAA_NXZ 000000018006f6e0 f i libucrtd:output.obj
 0001:0006ec40       ?state_case_type@?$output_processor@_WV?$string_output_adapter@_W@__crt_stdio_output@@V?$format_validation_base@_WV?$string_output_adapter@_W@__crt_stdio_output@@@2@@__crt_stdio_output@@AEAA_NXZ 000000018006fc40 f i libucrtd:output.obj
 0001:0006f1a0       ?state_case_type@?$output_processor@_WV?$string_output_adapter@_W@__crt_stdio_output@@V?$positional_parameter_base@_WV?$string_output_adapter@_W@__crt_stdio_output@@@2@@__crt_stdio_output@@AEAA_NXZ 00000001800701a0 f i libucrtd:output.obj
 0001:0006f700       ?state_case_type@?$output_processor@_WV?$string_output_adapter@_W@__crt_stdio_output@@V?$standard_base@_WV?$string_output_adapter@_W@__crt_stdio_output@@@2@@__crt_stdio_output@@AEAA_NXZ 0000000180070700 f i libucrtd:output.obj
 0001:0006fc60       ?state_case_width@?$output_processor@DV?$stream_output_adapter@D@__crt_stdio_output@@V?$format_validation_base@DV?$stream_output_adapter@D@__crt_stdio_output@@@2@@__crt_stdio_output@@AEAA_NXZ 0000000180070c60 f i libucrtd:output.obj
 0001:0006fcf0       ?state_case_width@?$output_processor@DV?$stream_output_adapter@D@__crt_stdio_output@@V?$positional_parameter_base@DV?$stream_output_adapter@D@__crt_stdio_output@@@2@@__crt_stdio_output@@AEAA_NXZ 0000000180070cf0 f i libucrtd:output.obj
 0001:0006fd80       ?state_case_width@?$output_processor@DV?$stream_output_adapter@D@__crt_stdio_output@@V?$standard_base@DV?$stream_output_adapter@D@__crt_stdio_output@@@2@@__crt_stdio_output@@AEAA_NXZ 0000000180070d80 f i libucrtd:output.obj
 0001:0006fe10       ?state_case_width@?$output_processor@DV?$string_output_adapter@D@__crt_stdio_output@@V?$format_validation_base@DV?$string_output_adapter@D@__crt_stdio_output@@@2@@__crt_stdio_output@@AEAA_NXZ 0000000180070e10 f i libucrtd:output.obj
 0001:0006fea0       ?state_case_width@?$output_processor@DV?$string_output_adapter@D@__crt_stdio_output@@V?$positional_parameter_base@DV?$string_output_adapter@D@__crt_stdio_output@@@2@@__crt_stdio_output@@AEAA_NXZ 0000000180070ea0 f i libucrtd:output.obj
 0001:0006ff30       ?state_case_width@?$output_processor@DV?$string_output_adapter@D@__crt_stdio_output@@V?$standard_base@DV?$string_output_adapter@D@__crt_stdio_output@@@2@@__crt_stdio_output@@AEAA_NXZ 0000000180070f30 f i libucrtd:output.obj
 0001:0006ffc0       ?state_case_width@?$output_processor@_WV?$stream_output_adapter@_W@__crt_stdio_output@@V?$format_validation_base@_WV?$stream_output_adapter@_W@__crt_stdio_output@@@2@@__crt_stdio_output@@AEAA_NXZ 0000000180070fc0 f i libucrtd:output.obj
 0001:00070050       ?state_case_width@?$output_processor@_WV?$stream_output_adapter@_W@__crt_stdio_output@@V?$positional_parameter_base@_WV?$stream_output_adapter@_W@__crt_stdio_output@@@2@@__crt_stdio_output@@AEAA_NXZ 0000000180071050 f i libucrtd:output.obj
 0001:000700e0       ?state_case_width@?$output_processor@_WV?$stream_output_adapter@_W@__crt_stdio_output@@V?$standard_base@_WV?$stream_output_adapter@_W@__crt_stdio_output@@@2@@__crt_stdio_output@@AEAA_NXZ 00000001800710e0 f i libucrtd:output.obj
 0001:00070170       ?state_case_width@?$output_processor@_WV?$string_output_adapter@_W@__crt_stdio_output@@V?$format_validation_base@_WV?$string_output_adapter@_W@__crt_stdio_output@@@2@@__crt_stdio_output@@AEAA_NXZ 0000000180071170 f i libucrtd:output.obj
 0001:00070200       ?state_case_width@?$output_processor@_WV?$string_output_adapter@_W@__crt_stdio_output@@V?$positional_parameter_base@_WV?$string_output_adapter@_W@__crt_stdio_output@@@2@@__crt_stdio_output@@AEAA_NXZ 0000000180071200 f i libucrtd:output.obj
 0001:00070290       ?state_case_width@?$output_processor@_WV?$string_output_adapter@_W@__crt_stdio_output@@V?$standard_base@_WV?$string_output_adapter@_W@__crt_stdio_output@@@2@@__crt_stdio_output@@AEAA_NXZ 0000000180071290 f i libucrtd:output.obj
 0001:00070320       ?state_count@?$format_validation_base@DV?$stream_output_adapter@D@__crt_stdio_output@@@__crt_stdio_output@@KAIXZ 0000000180071320 f i libucrtd:output.obj
 0001:00070330       ?state_count@?$format_validation_base@DV?$string_output_adapter@D@__crt_stdio_output@@@__crt_stdio_output@@KAIXZ 0000000180071330 f i libucrtd:output.obj
 0001:00070340       ?state_count@?$format_validation_base@_WV?$stream_output_adapter@_W@__crt_stdio_output@@@__crt_stdio_output@@KAIXZ 0000000180071340 f i libucrtd:output.obj
 0001:00070350       ?state_count@?$format_validation_base@_WV?$string_output_adapter@_W@__crt_stdio_output@@@__crt_stdio_output@@KAIXZ 0000000180071350 f i libucrtd:output.obj
 0001:00070360       ?state_count@?$standard_base@DV?$stream_output_adapter@D@__crt_stdio_output@@@__crt_stdio_output@@KAIXZ 0000000180071360 f i libucrtd:output.obj
 0001:00070370       ?state_count@?$standard_base@DV?$string_output_adapter@D@__crt_stdio_output@@@__crt_stdio_output@@KAIXZ 0000000180071370 f i libucrtd:output.obj
 0001:00070380       ?state_count@?$standard_base@_WV?$stream_output_adapter@_W@__crt_stdio_output@@@__crt_stdio_output@@KAIXZ 0000000180071380 f i libucrtd:output.obj
 0001:00070390       ?state_count@?$standard_base@_WV?$string_output_adapter@_W@__crt_stdio_output@@@__crt_stdio_output@@KAIXZ 0000000180071390 f i libucrtd:output.obj
 0001:000703a0       ?state_transition_table@?$format_validation_base@DV?$stream_output_adapter@D@__crt_stdio_output@@@__crt_stdio_output@@KAPEBEXZ 00000001800713a0 f i libucrtd:output.obj
 0001:000703b0       ?state_transition_table@?$format_validation_base@DV?$string_output_adapter@D@__crt_stdio_output@@@__crt_stdio_output@@KAPEBEXZ 00000001800713b0 f i libucrtd:output.obj
 0001:000703c0       ?state_transition_table@?$format_validation_base@_WV?$stream_output_adapter@_W@__crt_stdio_output@@@__crt_stdio_output@@KAPEBEXZ 00000001800713c0 f i libucrtd:output.obj
 0001:000703d0       ?state_transition_table@?$format_validation_base@_WV?$string_output_adapter@_W@__crt_stdio_output@@@__crt_stdio_output@@KAPEBEXZ 00000001800713d0 f i libucrtd:output.obj
 0001:000703e0       ?state_transition_table@?$standard_base@DV?$stream_output_adapter@D@__crt_stdio_output@@@__crt_stdio_output@@KAPEBEXZ 00000001800713e0 f i libucrtd:output.obj
 0001:000703f0       ?state_transition_table@?$standard_base@DV?$string_output_adapter@D@__crt_stdio_output@@@__crt_stdio_output@@KAPEBEXZ 00000001800713f0 f i libucrtd:output.obj
 0001:00070400       ?state_transition_table@?$standard_base@_WV?$stream_output_adapter@_W@__crt_stdio_output@@@__crt_stdio_output@@KAPEBEXZ 0000000180071400 f i libucrtd:output.obj
 0001:00070410       ?state_transition_table@?$standard_base@_WV?$string_output_adapter@_W@__crt_stdio_output@@@__crt_stdio_output@@KAPEBEXZ 0000000180071410 f i libucrtd:output.obj
 0001:00070420       ?tchar_string@?$common_data@D@__crt_stdio_output@@IEAAAEAPEADD@Z 0000000180071420 f i libucrtd:output.obj
 0001:00070440       ?tchar_string@?$common_data@D@__crt_stdio_output@@IEAAAEAPEADXZ 0000000180071440 f i libucrtd:output.obj
 0001:00070460       ?tchar_string@?$common_data@_W@__crt_stdio_output@@IEAAAEAPEA_WXZ 0000000180071460 f i libucrtd:output.obj
 0001:00070480       ?tchar_string@?$common_data@_W@__crt_stdio_output@@IEAAAEAPEA_W_W@Z 0000000180071480 f i libucrtd:output.obj
 0001:000704a0       ?to_integer_size@__crt_stdio_output@@YA_KW4length_modifier@1@@Z 00000001800714a0 f i libucrtd:output.obj
 0001:00070550       ?type_case_X@?$output_processor@DV?$stream_output_adapter@D@__crt_stdio_output@@V?$format_validation_base@DV?$stream_output_adapter@D@__crt_stdio_output@@@2@@__crt_stdio_output@@AEAA_NXZ 0000000180071550 f i libucrtd:output.obj
 0001:00070570       ?type_case_X@?$output_processor@DV?$stream_output_adapter@D@__crt_stdio_output@@V?$positional_parameter_base@DV?$stream_output_adapter@D@__crt_stdio_output@@@2@@__crt_stdio_output@@AEAA_NXZ 0000000180071570 f i libucrtd:output.obj
 0001:00070590       ?type_case_X@?$output_processor@DV?$stream_output_adapter@D@__crt_stdio_output@@V?$standard_base@DV?$stream_output_adapter@D@__crt_stdio_output@@@2@@__crt_stdio_output@@AEAA_NXZ 0000000180071590 f i libucrtd:output.obj
 0001:000705b0       ?type_case_X@?$output_processor@DV?$string_output_adapter@D@__crt_stdio_output@@V?$format_validation_base@DV?$string_output_adapter@D@__crt_stdio_output@@@2@@__crt_stdio_output@@AEAA_NXZ 00000001800715b0 f i libucrtd:output.obj
 0001:000705d0       ?type_case_X@?$output_processor@DV?$string_output_adapter@D@__crt_stdio_output@@V?$positional_parameter_base@DV?$string_output_adapter@D@__crt_stdio_output@@@2@@__crt_stdio_output@@AEAA_NXZ 00000001800715d0 f i libucrtd:output.obj
 0001:000705f0       ?type_case_X@?$output_processor@DV?$string_output_adapter@D@__crt_stdio_output@@V?$standard_base@DV?$string_output_adapter@D@__crt_stdio_output@@@2@@__crt_stdio_output@@AEAA_NXZ 00000001800715f0 f i libucrtd:output.obj
 0001:00070610       ?type_case_X@?$output_processor@_WV?$stream_output_adapter@_W@__crt_stdio_output@@V?$format_validation_base@_WV?$stream_output_adapter@_W@__crt_stdio_output@@@2@@__crt_stdio_output@@AEAA_NXZ 0000000180071610 f i libucrtd:output.obj
 0001:00070630       ?type_case_X@?$output_processor@_WV?$stream_output_adapter@_W@__crt_stdio_output@@V?$positional_parameter_base@_WV?$stream_output_adapter@_W@__crt_stdio_output@@@2@@__crt_stdio_output@@AEAA_NXZ 0000000180071630 f i libucrtd:output.obj
 0001:00070650       ?type_case_X@?$output_processor@_WV?$stream_output_adapter@_W@__crt_stdio_output@@V?$standard_base@_WV?$stream_output_adapter@_W@__crt_stdio_output@@@2@@__crt_stdio_output@@AEAA_NXZ 0000000180071650 f i libucrtd:output.obj
 0001:00070670       ?type_case_X@?$output_processor@_WV?$string_output_adapter@_W@__crt_stdio_output@@V?$format_validation_base@_WV?$string_output_adapter@_W@__crt_stdio_output@@@2@@__crt_stdio_output@@AEAA_NXZ 0000000180071670 f i libucrtd:output.obj
 0001:00070690       ?type_case_X@?$output_processor@_WV?$string_output_adapter@_W@__crt_stdio_output@@V?$positional_parameter_base@_WV?$string_output_adapter@_W@__crt_stdio_output@@@2@@__crt_stdio_output@@AEAA_NXZ 0000000180071690 f i libucrtd:output.obj
 0001:000706b0       ?type_case_X@?$output_processor@_WV?$string_output_adapter@_W@__crt_stdio_output@@V?$standard_base@_WV?$string_output_adapter@_W@__crt_stdio_output@@@2@@__crt_stdio_output@@AEAA_NXZ 00000001800716b0 f i libucrtd:output.obj
 0001:000706d0       ?type_case_Z@?$output_processor@DV?$stream_output_adapter@D@__crt_stdio_output@@V?$format_validation_base@DV?$stream_output_adapter@D@__crt_stdio_output@@@2@@__crt_stdio_output@@AEAA_NXZ 00000001800716d0 f i libucrtd:output.obj
 0001:000707f0       ?type_case_Z@?$output_processor@DV?$stream_output_adapter@D@__crt_stdio_output@@V?$positional_parameter_base@DV?$stream_output_adapter@D@__crt_stdio_output@@@2@@__crt_stdio_output@@AEAA_NXZ 00000001800717f0 f i libucrtd:output.obj
 0001:00070910       ?type_case_Z@?$output_processor@DV?$stream_output_adapter@D@__crt_stdio_output@@V?$standard_base@DV?$stream_output_adapter@D@__crt_stdio_output@@@2@@__crt_stdio_output@@AEAA_NXZ 0000000180071910 f i libucrtd:output.obj
 0001:00070a30       ?type_case_Z@?$output_processor@DV?$string_output_adapter@D@__crt_stdio_output@@V?$format_validation_base@DV?$string_output_adapter@D@__crt_stdio_output@@@2@@__crt_stdio_output@@AEAA_NXZ 0000000180071a30 f i libucrtd:output.obj
 0001:00070b50       ?type_case_Z@?$output_processor@DV?$string_output_adapter@D@__crt_stdio_output@@V?$positional_parameter_base@DV?$string_output_adapter@D@__crt_stdio_output@@@2@@__crt_stdio_output@@AEAA_NXZ 0000000180071b50 f i libucrtd:output.obj
 0001:00070c70       ?type_case_Z@?$output_processor@DV?$string_output_adapter@D@__crt_stdio_output@@V?$standard_base@DV?$string_output_adapter@D@__crt_stdio_output@@@2@@__crt_stdio_output@@AEAA_NXZ 0000000180071c70 f i libucrtd:output.obj
 0001:00070d90       ?type_case_Z@?$output_processor@_WV?$stream_output_adapter@_W@__crt_stdio_output@@V?$format_validation_base@_WV?$stream_output_adapter@_W@__crt_stdio_output@@@2@@__crt_stdio_output@@AEAA_NXZ 0000000180071d90 f i libucrtd:output.obj
 0001:00070eb0       ?type_case_Z@?$output_processor@_WV?$stream_output_adapter@_W@__crt_stdio_output@@V?$positional_parameter_base@_WV?$stream_output_adapter@_W@__crt_stdio_output@@@2@@__crt_stdio_output@@AEAA_NXZ 0000000180071eb0 f i libucrtd:output.obj
 0001:00070fd0       ?type_case_Z@?$output_processor@_WV?$stream_output_adapter@_W@__crt_stdio_output@@V?$standard_base@_WV?$stream_output_adapter@_W@__crt_stdio_output@@@2@@__crt_stdio_output@@AEAA_NXZ 0000000180071fd0 f i libucrtd:output.obj
 0001:000710f0       ?type_case_Z@?$output_processor@_WV?$string_output_adapter@_W@__crt_stdio_output@@V?$format_validation_base@_WV?$string_output_adapter@_W@__crt_stdio_output@@@2@@__crt_stdio_output@@AEAA_NXZ 00000001800720f0 f i libucrtd:output.obj
 0001:00071210       ?type_case_Z@?$output_processor@_WV?$string_output_adapter@_W@__crt_stdio_output@@V?$positional_parameter_base@_WV?$string_output_adapter@_W@__crt_stdio_output@@@2@@__crt_stdio_output@@AEAA_NXZ 0000000180072210 f i libucrtd:output.obj
 0001:00071330       ?type_case_Z@?$output_processor@_WV?$string_output_adapter@_W@__crt_stdio_output@@V?$standard_base@_WV?$string_output_adapter@_W@__crt_stdio_output@@@2@@__crt_stdio_output@@AEAA_NXZ 0000000180072330 f i libucrtd:output.obj
 0001:00071450       ?type_case_a@?$output_processor@DV?$stream_output_adapter@D@__crt_stdio_output@@V?$format_validation_base@DV?$stream_output_adapter@D@__crt_stdio_output@@@2@@__crt_stdio_output@@AEAA_NXZ 0000000180072450 f i libucrtd:output.obj
 0001:00071810       ?type_case_a@?$output_processor@DV?$stream_output_adapter@D@__crt_stdio_output@@V?$positional_parameter_base@DV?$stream_output_adapter@D@__crt_stdio_output@@@2@@__crt_stdio_output@@AEAA_NXZ 0000000180072810 f i libucrtd:output.obj
 0001:00071bd0       ?type_case_a@?$output_processor@DV?$stream_output_adapter@D@__crt_stdio_output@@V?$standard_base@DV?$stream_output_adapter@D@__crt_stdio_output@@@2@@__crt_stdio_output@@AEAA_NXZ 0000000180072bd0 f i libucrtd:output.obj
 0001:00071f90       ?type_case_a@?$output_processor@DV?$string_output_adapter@D@__crt_stdio_output@@V?$format_validation_base@DV?$string_output_adapter@D@__crt_stdio_output@@@2@@__crt_stdio_output@@AEAA_NXZ 0000000180072f90 f i libucrtd:output.obj
 0001:00072350       ?type_case_a@?$output_processor@DV?$string_output_adapter@D@__crt_stdio_output@@V?$positional_parameter_base@DV?$string_output_adapter@D@__crt_stdio_output@@@2@@__crt_stdio_output@@AEAA_NXZ 0000000180073350 f i libucrtd:output.obj
 0001:00072710       ?type_case_a@?$output_processor@DV?$string_output_adapter@D@__crt_stdio_output@@V?$standard_base@DV?$string_output_adapter@D@__crt_stdio_output@@@2@@__crt_stdio_output@@AEAA_NXZ 0000000180073710 f i libucrtd:output.obj
 0001:00072ad0       ?type_case_a@?$output_processor@_WV?$stream_output_adapter@_W@__crt_stdio_output@@V?$format_validation_base@_WV?$stream_output_adapter@_W@__crt_stdio_output@@@2@@__crt_stdio_output@@AEAA_NXZ 0000000180073ad0 f i libucrtd:output.obj
 0001:00072ea0       ?type_case_a@?$output_processor@_WV?$stream_output_adapter@_W@__crt_stdio_output@@V?$positional_parameter_base@_WV?$stream_output_adapter@_W@__crt_stdio_output@@@2@@__crt_stdio_output@@AEAA_NXZ 0000000180073ea0 f i libucrtd:output.obj
 0001:00073270       ?type_case_a@?$output_processor@_WV?$stream_output_adapter@_W@__crt_stdio_output@@V?$standard_base@_WV?$stream_output_adapter@_W@__crt_stdio_output@@@2@@__crt_stdio_output@@AEAA_NXZ 0000000180074270 f i libucrtd:output.obj
 0001:00073640       ?type_case_a@?$output_processor@_WV?$string_output_adapter@_W@__crt_stdio_output@@V?$format_validation_base@_WV?$string_output_adapter@_W@__crt_stdio_output@@@2@@__crt_stdio_output@@AEAA_NXZ 0000000180074640 f i libucrtd:output.obj
 0001:00073a10       ?type_case_a@?$output_processor@_WV?$string_output_adapter@_W@__crt_stdio_output@@V?$positional_parameter_base@_WV?$string_output_adapter@_W@__crt_stdio_output@@@2@@__crt_stdio_output@@AEAA_NXZ 0000000180074a10 f i libucrtd:output.obj
 0001:00073de0       ?type_case_a@?$output_processor@_WV?$string_output_adapter@_W@__crt_stdio_output@@V?$standard_base@_WV?$string_output_adapter@_W@__crt_stdio_output@@@2@@__crt_stdio_output@@AEAA_NXZ 0000000180074de0 f i libucrtd:output.obj
 0001:000741b0       ?type_case_c@?$output_processor@DV?$stream_output_adapter@D@__crt_stdio_output@@V?$format_validation_base@DV?$stream_output_adapter@D@__crt_stdio_output@@@2@@__crt_stdio_output@@AEAA_NXZ 00000001800751b0 f i libucrtd:output.obj
 0001:000741d0       ?type_case_c@?$output_processor@DV?$stream_output_adapter@D@__crt_stdio_output@@V?$positional_parameter_base@DV?$stream_output_adapter@D@__crt_stdio_output@@@2@@__crt_stdio_output@@AEAA_NXZ 00000001800751d0 f i libucrtd:output.obj
 0001:000741f0       ?type_case_c@?$output_processor@DV?$stream_output_adapter@D@__crt_stdio_output@@V?$standard_base@DV?$stream_output_adapter@D@__crt_stdio_output@@@2@@__crt_stdio_output@@AEAA_NXZ 00000001800751f0 f i libucrtd:output.obj
 0001:00074210       ?type_case_c@?$output_processor@DV?$string_output_adapter@D@__crt_stdio_output@@V?$format_validation_base@DV?$string_output_adapter@D@__crt_stdio_output@@@2@@__crt_stdio_output@@AEAA_NXZ 0000000180075210 f i libucrtd:output.obj
 0001:00074230       ?type_case_c@?$output_processor@DV?$string_output_adapter@D@__crt_stdio_output@@V?$positional_parameter_base@DV?$string_output_adapter@D@__crt_stdio_output@@@2@@__crt_stdio_output@@AEAA_NXZ 0000000180075230 f i libucrtd:output.obj
 0001:00074250       ?type_case_c@?$output_processor@DV?$string_output_adapter@D@__crt_stdio_output@@V?$standard_base@DV?$string_output_adapter@D@__crt_stdio_output@@@2@@__crt_stdio_output@@AEAA_NXZ 0000000180075250 f i libucrtd:output.obj
 0001:00074270       ?type_case_c@?$output_processor@_WV?$stream_output_adapter@_W@__crt_stdio_output@@V?$format_validation_base@_WV?$stream_output_adapter@_W@__crt_stdio_output@@@2@@__crt_stdio_output@@AEAA_NXZ 0000000180075270 f i libucrtd:output.obj
 0001:00074290       ?type_case_c@?$output_processor@_WV?$stream_output_adapter@_W@__crt_stdio_output@@V?$positional_parameter_base@_WV?$stream_output_adapter@_W@__crt_stdio_output@@@2@@__crt_stdio_output@@AEAA_NXZ 0000000180075290 f i libucrtd:output.obj
 0001:000742b0       ?type_case_c@?$output_processor@_WV?$stream_output_adapter@_W@__crt_stdio_output@@V?$standard_base@_WV?$stream_output_adapter@_W@__crt_stdio_output@@@2@@__crt_stdio_output@@AEAA_NXZ 00000001800752b0 f i libucrtd:output.obj
 0001:000742d0       ?type_case_c@?$output_processor@_WV?$string_output_adapter@_W@__crt_stdio_output@@V?$format_validation_base@_WV?$string_output_adapter@_W@__crt_stdio_output@@@2@@__crt_stdio_output@@AEAA_NXZ 00000001800752d0 f i libucrtd:output.obj
 0001:000742f0       ?type_case_c@?$output_processor@_WV?$string_output_adapter@_W@__crt_stdio_output@@V?$positional_parameter_base@_WV?$string_output_adapter@_W@__crt_stdio_output@@@2@@__crt_stdio_output@@AEAA_NXZ 00000001800752f0 f i libucrtd:output.obj
 0001:00074310       ?type_case_c@?$output_processor@_WV?$string_output_adapter@_W@__crt_stdio_output@@V?$standard_base@_WV?$string_output_adapter@_W@__crt_stdio_output@@@2@@__crt_stdio_output@@AEAA_NXZ 0000000180075310 f i libucrtd:output.obj
 0001:00074330       ?type_case_c_tchar@?$output_processor@DV?$stream_output_adapter@D@__crt_stdio_output@@V?$format_validation_base@DV?$stream_output_adapter@D@__crt_stdio_output@@@2@@__crt_stdio_output@@AEAA_ND@Z 0000000180075330 f i libucrtd:output.obj
 0001:00074480       ?type_case_c_tchar@?$output_processor@DV?$stream_output_adapter@D@__crt_stdio_output@@V?$positional_parameter_base@DV?$stream_output_adapter@D@__crt_stdio_output@@@2@@__crt_stdio_output@@AEAA_ND@Z 0000000180075480 f i libucrtd:output.obj
 0001:000745d0       ?type_case_c_tchar@?$output_processor@DV?$stream_output_adapter@D@__crt_stdio_output@@V?$standard_base@DV?$stream_output_adapter@D@__crt_stdio_output@@@2@@__crt_stdio_output@@AEAA_ND@Z 00000001800755d0 f i libucrtd:output.obj
 0001:00074720       ?type_case_c_tchar@?$output_processor@DV?$string_output_adapter@D@__crt_stdio_output@@V?$format_validation_base@DV?$string_output_adapter@D@__crt_stdio_output@@@2@@__crt_stdio_output@@AEAA_ND@Z 0000000180075720 f i libucrtd:output.obj
 0001:00074870       ?type_case_c_tchar@?$output_processor@DV?$string_output_adapter@D@__crt_stdio_output@@V?$positional_parameter_base@DV?$string_output_adapter@D@__crt_stdio_output@@@2@@__crt_stdio_output@@AEAA_ND@Z 0000000180075870 f i libucrtd:output.obj
 0001:000749c0       ?type_case_c_tchar@?$output_processor@DV?$string_output_adapter@D@__crt_stdio_output@@V?$standard_base@DV?$string_output_adapter@D@__crt_stdio_output@@@2@@__crt_stdio_output@@AEAA_ND@Z 00000001800759c0 f i libucrtd:output.obj
 0001:00074b10       ?type_case_c_tchar@?$output_processor@_WV?$stream_output_adapter@_W@__crt_stdio_output@@V?$format_validation_base@_WV?$stream_output_adapter@_W@__crt_stdio_output@@@2@@__crt_stdio_output@@AEAA_N_W@Z 0000000180075b10 f i libucrtd:output.obj
 0001:00074c40       ?type_case_c_tchar@?$output_processor@_WV?$stream_output_adapter@_W@__crt_stdio_output@@V?$positional_parameter_base@_WV?$stream_output_adapter@_W@__crt_stdio_output@@@2@@__crt_stdio_output@@AEAA_N_W@Z 0000000180075c40 f i libucrtd:output.obj
 0001:00074d70       ?type_case_c_tchar@?$output_processor@_WV?$stream_output_adapter@_W@__crt_stdio_output@@V?$standard_base@_WV?$stream_output_adapter@_W@__crt_stdio_output@@@2@@__crt_stdio_output@@AEAA_N_W@Z 0000000180075d70 f i libucrtd:output.obj
 0001:00074ea0       ?type_case_c_tchar@?$output_processor@_WV?$string_output_adapter@_W@__crt_stdio_output@@V?$format_validation_base@_WV?$string_output_adapter@_W@__crt_stdio_output@@@2@@__crt_stdio_output@@AEAA_N_W@Z 0000000180075ea0 f i libucrtd:output.obj
 0001:00074fd0       ?type_case_c_tchar@?$output_processor@_WV?$string_output_adapter@_W@__crt_stdio_output@@V?$positional_parameter_base@_WV?$string_output_adapter@_W@__crt_stdio_output@@@2@@__crt_stdio_output@@AEAA_N_W@Z 0000000180075fd0 f i libucrtd:output.obj
 0001:00075100       ?type_case_c_tchar@?$output_processor@_WV?$string_output_adapter@_W@__crt_stdio_output@@V?$standard_base@_WV?$string_output_adapter@_W@__crt_stdio_output@@@2@@__crt_stdio_output@@AEAA_N_W@Z 0000000180076100 f i libucrtd:output.obj
 0001:00075230       ?type_case_d@?$output_processor@DV?$stream_output_adapter@D@__crt_stdio_output@@V?$format_validation_base@DV?$stream_output_adapter@D@__crt_stdio_output@@@2@@__crt_stdio_output@@AEAA_NXZ 0000000180076230 f i libucrtd:output.obj
 0001:00075260       ?type_case_d@?$output_processor@DV?$stream_output_adapter@D@__crt_stdio_output@@V?$positional_parameter_base@DV?$stream_output_adapter@D@__crt_stdio_output@@@2@@__crt_stdio_output@@AEAA_NXZ 0000000180076260 f i libucrtd:output.obj
 0001:00075290       ?type_case_d@?$output_processor@DV?$stream_output_adapter@D@__crt_stdio_output@@V?$standard_base@DV?$stream_output_adapter@D@__crt_stdio_output@@@2@@__crt_stdio_output@@AEAA_NXZ 0000000180076290 f i libucrtd:output.obj
 0001:000752c0       ?type_case_d@?$output_processor@DV?$string_output_adapter@D@__crt_stdio_output@@V?$format_validation_base@DV?$string_output_adapter@D@__crt_stdio_output@@@2@@__crt_stdio_output@@AEAA_NXZ 00000001800762c0 f i libucrtd:output.obj
 0001:000752f0       ?type_case_d@?$output_processor@DV?$string_output_adapter@D@__crt_stdio_output@@V?$positional_parameter_base@DV?$string_output_adapter@D@__crt_stdio_output@@@2@@__crt_stdio_output@@AEAA_NXZ 00000001800762f0 f i libucrtd:output.obj
 0001:00075320       ?type_case_d@?$output_processor@DV?$string_output_adapter@D@__crt_stdio_output@@V?$standard_base@DV?$string_output_adapter@D@__crt_stdio_output@@@2@@__crt_stdio_output@@AEAA_NXZ 0000000180076320 f i libucrtd:output.obj
 0001:00075350       ?type_case_d@?$output_processor@_WV?$stream_output_adapter@_W@__crt_stdio_output@@V?$format_validation_base@_WV?$stream_output_adapter@_W@__crt_stdio_output@@@2@@__crt_stdio_output@@AEAA_NXZ 0000000180076350 f i libucrtd:output.obj
 0001:00075380       ?type_case_d@?$output_processor@_WV?$stream_output_adapter@_W@__crt_stdio_output@@V?$positional_parameter_base@_WV?$stream_output_adapter@_W@__crt_stdio_output@@@2@@__crt_stdio_output@@AEAA_NXZ 0000000180076380 f i libucrtd:output.obj
 0001:000753b0       ?type_case_d@?$output_processor@_WV?$stream_output_adapter@_W@__crt_stdio_output@@V?$standard_base@_WV?$stream_output_adapter@_W@__crt_stdio_output@@@2@@__crt_stdio_output@@AEAA_NXZ 00000001800763b0 f i libucrtd:output.obj
 0001:000753e0       ?type_case_d@?$output_processor@_WV?$string_output_adapter@_W@__crt_stdio_output@@V?$format_validation_base@_WV?$string_output_adapter@_W@__crt_stdio_output@@@2@@__crt_stdio_output@@AEAA_NXZ 00000001800763e0 f i libucrtd:output.obj
 0001:00075410       ?type_case_d@?$output_processor@_WV?$string_output_adapter@_W@__crt_stdio_output@@V?$positional_parameter_base@_WV?$string_output_adapter@_W@__crt_stdio_output@@@2@@__crt_stdio_output@@AEAA_NXZ 0000000180076410 f i libucrtd:output.obj
 0001:00075440       ?type_case_d@?$output_processor@_WV?$string_output_adapter@_W@__crt_stdio_output@@V?$standard_base@_WV?$string_output_adapter@_W@__crt_stdio_output@@@2@@__crt_stdio_output@@AEAA_NXZ 0000000180076440 f i libucrtd:output.obj
 0001:00075470       ?type_case_integer@?$output_processor@DV?$stream_output_adapter@D@__crt_stdio_output@@V?$format_validation_base@DV?$stream_output_adapter@D@__crt_stdio_output@@@2@@__crt_stdio_output@@AEAA_NI_N@Z 0000000180076470 f i libucrtd:output.obj
 0001:000758c0       ?type_case_integer@?$output_processor@DV?$stream_output_adapter@D@__crt_stdio_output@@V?$positional_parameter_base@DV?$stream_output_adapter@D@__crt_stdio_output@@@2@@__crt_stdio_output@@AEAA_NI_N@Z 00000001800768c0 f i libucrtd:output.obj
 0001:00075d10       ?type_case_integer@?$output_processor@DV?$stream_output_adapter@D@__crt_stdio_output@@V?$standard_base@DV?$stream_output_adapter@D@__crt_stdio_output@@@2@@__crt_stdio_output@@AEAA_NI_N@Z 0000000180076d10 f i libucrtd:output.obj
 0001:00076160       ?type_case_integer@?$output_processor@DV?$string_output_adapter@D@__crt_stdio_output@@V?$format_validation_base@DV?$string_output_adapter@D@__crt_stdio_output@@@2@@__crt_stdio_output@@AEAA_NI_N@Z 0000000180077160 f i libucrtd:output.obj
 0001:000765b0       ?type_case_integer@?$output_processor@DV?$string_output_adapter@D@__crt_stdio_output@@V?$positional_parameter_base@DV?$string_output_adapter@D@__crt_stdio_output@@@2@@__crt_stdio_output@@AEAA_NI_N@Z 00000001800775b0 f i libucrtd:output.obj
 0001:00076a00       ?type_case_integer@?$output_processor@DV?$string_output_adapter@D@__crt_stdio_output@@V?$standard_base@DV?$string_output_adapter@D@__crt_stdio_output@@@2@@__crt_stdio_output@@AEAA_NI_N@Z 0000000180077a00 f i libucrtd:output.obj
 0001:00076e50       ?type_case_integer@?$output_processor@_WV?$stream_output_adapter@_W@__crt_stdio_output@@V?$format_validation_base@_WV?$stream_output_adapter@_W@__crt_stdio_output@@@2@@__crt_stdio_output@@AEAA_NI_N@Z 0000000180077e50 f i libucrtd:output.obj
 0001:000772a0       ?type_case_integer@?$output_processor@_WV?$stream_output_adapter@_W@__crt_stdio_output@@V?$positional_parameter_base@_WV?$stream_output_adapter@_W@__crt_stdio_output@@@2@@__crt_stdio_output@@AEAA_NI_N@Z 00000001800782a0 f i libucrtd:output.obj
 0001:000776f0       ?type_case_integer@?$output_processor@_WV?$stream_output_adapter@_W@__crt_stdio_output@@V?$standard_base@_WV?$stream_output_adapter@_W@__crt_stdio_output@@@2@@__crt_stdio_output@@AEAA_NI_N@Z 00000001800786f0 f i libucrtd:output.obj
 0001:00077b40       ?type_case_integer@?$output_processor@_WV?$string_output_adapter@_W@__crt_stdio_output@@V?$format_validation_base@_WV?$string_output_adapter@_W@__crt_stdio_output@@@2@@__crt_stdio_output@@AEAA_NI_N@Z 0000000180078b40 f i libucrtd:output.obj
 0001:00077f90       ?type_case_integer@?$output_processor@_WV?$string_output_adapter@_W@__crt_stdio_output@@V?$positional_parameter_base@_WV?$string_output_adapter@_W@__crt_stdio_output@@@2@@__crt_stdio_output@@AEAA_NI_N@Z 0000000180078f90 f i libucrtd:output.obj
 0001:000783e0       ?type_case_integer@?$output_processor@_WV?$string_output_adapter@_W@__crt_stdio_output@@V?$standard_base@_WV?$string_output_adapter@_W@__crt_stdio_output@@@2@@__crt_stdio_output@@AEAA_NI_N@Z 00000001800793e0 f i libucrtd:output.obj
 0001:00078830       ?type_case_n@?$output_processor@DV?$stream_output_adapter@D@__crt_stdio_output@@V?$format_validation_base@DV?$stream_output_adapter@D@__crt_stdio_output@@@2@@__crt_stdio_output@@AEAA_NXZ 0000000180079830 f i libucrtd:output.obj
 0001:00078a70       ?type_case_n@?$output_processor@DV?$stream_output_adapter@D@__crt_stdio_output@@V?$positional_parameter_base@DV?$stream_output_adapter@D@__crt_stdio_output@@@2@@__crt_stdio_output@@AEAA_NXZ 0000000180079a70 f i libucrtd:output.obj
 0001:00078cb0       ?type_case_n@?$output_processor@DV?$stream_output_adapter@D@__crt_stdio_output@@V?$standard_base@DV?$stream_output_adapter@D@__crt_stdio_output@@@2@@__crt_stdio_output@@AEAA_NXZ 0000000180079cb0 f i libucrtd:output.obj
 0001:00078ef0       ?type_case_n@?$output_processor@DV?$string_output_adapter@D@__crt_stdio_output@@V?$format_validation_base@DV?$string_output_adapter@D@__crt_stdio_output@@@2@@__crt_stdio_output@@AEAA_NXZ 0000000180079ef0 f i libucrtd:output.obj
 0001:00079130       ?type_case_n@?$output_processor@DV?$string_output_adapter@D@__crt_stdio_output@@V?$positional_parameter_base@DV?$string_output_adapter@D@__crt_stdio_output@@@2@@__crt_stdio_output@@AEAA_NXZ 000000018007a130 f i libucrtd:output.obj
 0001:00079370       ?type_case_n@?$output_processor@DV?$string_output_adapter@D@__crt_stdio_output@@V?$standard_base@DV?$string_output_adapter@D@__crt_stdio_output@@@2@@__crt_stdio_output@@AEAA_NXZ 000000018007a370 f i libucrtd:output.obj
 0001:000795b0       ?type_case_n@?$output_processor@_WV?$stream_output_adapter@_W@__crt_stdio_output@@V?$format_validation_base@_WV?$stream_output_adapter@_W@__crt_stdio_output@@@2@@__crt_stdio_output@@AEAA_NXZ 000000018007a5b0 f i libucrtd:output.obj
 0001:000797f0       ?type_case_n@?$output_processor@_WV?$stream_output_adapter@_W@__crt_stdio_output@@V?$positional_parameter_base@_WV?$stream_output_adapter@_W@__crt_stdio_output@@@2@@__crt_stdio_output@@AEAA_NXZ 000000018007a7f0 f i libucrtd:output.obj
 0001:00079a30       ?type_case_n@?$output_processor@_WV?$stream_output_adapter@_W@__crt_stdio_output@@V?$standard_base@_WV?$stream_output_adapter@_W@__crt_stdio_output@@@2@@__crt_stdio_output@@AEAA_NXZ 000000018007aa30 f i libucrtd:output.obj
 0001:00079c70       ?type_case_n@?$output_processor@_WV?$string_output_adapter@_W@__crt_stdio_output@@V?$format_validation_base@_WV?$string_output_adapter@_W@__crt_stdio_output@@@2@@__crt_stdio_output@@AEAA_NXZ 000000018007ac70 f i libucrtd:output.obj
 0001:00079eb0       ?type_case_n@?$output_processor@_WV?$string_output_adapter@_W@__crt_stdio_output@@V?$positional_parameter_base@_WV?$string_output_adapter@_W@__crt_stdio_output@@@2@@__crt_stdio_output@@AEAA_NXZ 000000018007aeb0 f i libucrtd:output.obj
 0001:0007a0f0       ?type_case_n@?$output_processor@_WV?$string_output_adapter@_W@__crt_stdio_output@@V?$standard_base@_WV?$string_output_adapter@_W@__crt_stdio_output@@@2@@__crt_stdio_output@@AEAA_NXZ 000000018007b0f0 f i libucrtd:output.obj
 0001:0007a330       ?type_case_o@?$output_processor@DV?$stream_output_adapter@D@__crt_stdio_output@@V?$format_validation_base@DV?$stream_output_adapter@D@__crt_stdio_output@@@2@@__crt_stdio_output@@AEAA_NXZ 000000018007b330 f i libucrtd:output.obj
 0001:0007a380       ?type_case_o@?$output_processor@DV?$stream_output_adapter@D@__crt_stdio_output@@V?$positional_parameter_base@DV?$stream_output_adapter@D@__crt_stdio_output@@@2@@__crt_stdio_output@@AEAA_NXZ 000000018007b380 f i libucrtd:output.obj
 0001:0007a3d0       ?type_case_o@?$output_processor@DV?$stream_output_adapter@D@__crt_stdio_output@@V?$standard_base@DV?$stream_output_adapter@D@__crt_stdio_output@@@2@@__crt_stdio_output@@AEAA_NXZ 000000018007b3d0 f i libucrtd:output.obj
 0001:0007a420       ?type_case_o@?$output_processor@DV?$string_output_adapter@D@__crt_stdio_output@@V?$format_validation_base@DV?$string_output_adapter@D@__crt_stdio_output@@@2@@__crt_stdio_output@@AEAA_NXZ 000000018007b420 f i libucrtd:output.obj
 0001:0007a470       ?type_case_o@?$output_processor@DV?$string_output_adapter@D@__crt_stdio_output@@V?$positional_parameter_base@DV?$string_output_adapter@D@__crt_stdio_output@@@2@@__crt_stdio_output@@AEAA_NXZ 000000018007b470 f i libucrtd:output.obj
 0001:0007a4c0       ?type_case_o@?$output_processor@DV?$string_output_adapter@D@__crt_stdio_output@@V?$standard_base@DV?$string_output_adapter@D@__crt_stdio_output@@@2@@__crt_stdio_output@@AEAA_NXZ 000000018007b4c0 f i libucrtd:output.obj
 0001:0007a510       ?type_case_o@?$output_processor@_WV?$stream_output_adapter@_W@__crt_stdio_output@@V?$format_validation_base@_WV?$stream_output_adapter@_W@__crt_stdio_output@@@2@@__crt_stdio_output@@AEAA_NXZ 000000018007b510 f i libucrtd:output.obj
 0001:0007a560       ?type_case_o@?$output_processor@_WV?$stream_output_adapter@_W@__crt_stdio_output@@V?$positional_parameter_base@_WV?$stream_output_adapter@_W@__crt_stdio_output@@@2@@__crt_stdio_output@@AEAA_NXZ 000000018007b560 f i libucrtd:output.obj
 0001:0007a5b0       ?type_case_o@?$output_processor@_WV?$stream_output_adapter@_W@__crt_stdio_output@@V?$standard_base@_WV?$stream_output_adapter@_W@__crt_stdio_output@@@2@@__crt_stdio_output@@AEAA_NXZ 000000018007b5b0 f i libucrtd:output.obj
 0001:0007a600       ?type_case_o@?$output_processor@_WV?$string_output_adapter@_W@__crt_stdio_output@@V?$format_validation_base@_WV?$string_output_adapter@_W@__crt_stdio_output@@@2@@__crt_stdio_output@@AEAA_NXZ 000000018007b600 f i libucrtd:output.obj
 0001:0007a650       ?type_case_o@?$output_processor@_WV?$string_output_adapter@_W@__crt_stdio_output@@V?$positional_parameter_base@_WV?$string_output_adapter@_W@__crt_stdio_output@@@2@@__crt_stdio_output@@AEAA_NXZ 000000018007b650 f i libucrtd:output.obj
 0001:0007a6a0       ?type_case_o@?$output_processor@_WV?$string_output_adapter@_W@__crt_stdio_output@@V?$standard_base@_WV?$string_output_adapter@_W@__crt_stdio_output@@@2@@__crt_stdio_output@@AEAA_NXZ 000000018007b6a0 f i libucrtd:output.obj
 0001:0007a6f0       ?type_case_p@?$output_processor@DV?$stream_output_adapter@D@__crt_stdio_output@@V?$format_validation_base@DV?$stream_output_adapter@D@__crt_stdio_output@@@2@@__crt_stdio_output@@AEAA_NXZ 000000018007b6f0 f i libucrtd:output.obj
 0001:0007a730       ?type_case_p@?$output_processor@DV?$stream_output_adapter@D@__crt_stdio_output@@V?$positional_parameter_base@DV?$stream_output_adapter@D@__crt_stdio_output@@@2@@__crt_stdio_output@@AEAA_NXZ 000000018007b730 f i libucrtd:output.obj
 0001:0007a770       ?type_case_p@?$output_processor@DV?$stream_output_adapter@D@__crt_stdio_output@@V?$standard_base@DV?$stream_output_adapter@D@__crt_stdio_output@@@2@@__crt_stdio_output@@AEAA_NXZ 000000018007b770 f i libucrtd:output.obj
 0001:0007a7b0       ?type_case_p@?$output_processor@DV?$string_output_adapter@D@__crt_stdio_output@@V?$format_validation_base@DV?$string_output_adapter@D@__crt_stdio_output@@@2@@__crt_stdio_output@@AEAA_NXZ 000000018007b7b0 f i libucrtd:output.obj
 0001:0007a7f0       ?type_case_p@?$output_processor@DV?$string_output_adapter@D@__crt_stdio_output@@V?$positional_parameter_base@DV?$string_output_adapter@D@__crt_stdio_output@@@2@@__crt_stdio_output@@AEAA_NXZ 000000018007b7f0 f i libucrtd:output.obj
 0001:0007a830       ?type_case_p@?$output_processor@DV?$string_output_adapter@D@__crt_stdio_output@@V?$standard_base@DV?$string_output_adapter@D@__crt_stdio_output@@@2@@__crt_stdio_output@@AEAA_NXZ 000000018007b830 f i libucrtd:output.obj
 0001:0007a870       ?type_case_p@?$output_processor@_WV?$stream_output_adapter@_W@__crt_stdio_output@@V?$format_validation_base@_WV?$stream_output_adapter@_W@__crt_stdio_output@@@2@@__crt_stdio_output@@AEAA_NXZ 000000018007b870 f i libucrtd:output.obj
 0001:0007a8b0       ?type_case_p@?$output_processor@_WV?$stream_output_adapter@_W@__crt_stdio_output@@V?$positional_parameter_base@_WV?$stream_output_adapter@_W@__crt_stdio_output@@@2@@__crt_stdio_output@@AEAA_NXZ 000000018007b8b0 f i libucrtd:output.obj
 0001:0007a8f0       ?type_case_p@?$output_processor@_WV?$stream_output_adapter@_W@__crt_stdio_output@@V?$standard_base@_WV?$stream_output_adapter@_W@__crt_stdio_output@@@2@@__crt_stdio_output@@AEAA_NXZ 000000018007b8f0 f i libucrtd:output.obj
 0001:0007a930       ?type_case_p@?$output_processor@_WV?$string_output_adapter@_W@__crt_stdio_output@@V?$format_validation_base@_WV?$string_output_adapter@_W@__crt_stdio_output@@@2@@__crt_stdio_output@@AEAA_NXZ 000000018007b930 f i libucrtd:output.obj
 0001:0007a970       ?type_case_p@?$output_processor@_WV?$string_output_adapter@_W@__crt_stdio_output@@V?$positional_parameter_base@_WV?$string_output_adapter@_W@__crt_stdio_output@@@2@@__crt_stdio_output@@AEAA_NXZ 000000018007b970 f i libucrtd:output.obj
 0001:0007a9b0       ?type_case_p@?$output_processor@_WV?$string_output_adapter@_W@__crt_stdio_output@@V?$standard_base@_WV?$string_output_adapter@_W@__crt_stdio_output@@@2@@__crt_stdio_output@@AEAA_NXZ 000000018007b9b0 f i libucrtd:output.obj
 0001:0007a9f0       ?type_case_s@?$output_processor@DV?$stream_output_adapter@D@__crt_stdio_output@@V?$format_validation_base@DV?$stream_output_adapter@D@__crt_stdio_output@@@2@@__crt_stdio_output@@AEAA_NXZ 000000018007b9f0 f i libucrtd:output.obj
 0001:0007ab10       ?type_case_s@?$output_processor@DV?$stream_output_adapter@D@__crt_stdio_output@@V?$positional_parameter_base@DV?$stream_output_adapter@D@__crt_stdio_output@@@2@@__crt_stdio_output@@AEAA_NXZ 000000018007bb10 f i libucrtd:output.obj
 0001:0007ac30       ?type_case_s@?$output_processor@DV?$stream_output_adapter@D@__crt_stdio_output@@V?$standard_base@DV?$stream_output_adapter@D@__crt_stdio_output@@@2@@__crt_stdio_output@@AEAA_NXZ 000000018007bc30 f i libucrtd:output.obj
 0001:0007ad50       ?type_case_s@?$output_processor@DV?$string_output_adapter@D@__crt_stdio_output@@V?$format_validation_base@DV?$string_output_adapter@D@__crt_stdio_output@@@2@@__crt_stdio_output@@AEAA_NXZ 000000018007bd50 f i libucrtd:output.obj
 0001:0007ae70       ?type_case_s@?$output_processor@DV?$string_output_adapter@D@__crt_stdio_output@@V?$positional_parameter_base@DV?$string_output_adapter@D@__crt_stdio_output@@@2@@__crt_stdio_output@@AEAA_NXZ 000000018007be70 f i libucrtd:output.obj
 0001:0007af90       ?type_case_s@?$output_processor@DV?$string_output_adapter@D@__crt_stdio_output@@V?$standard_base@DV?$string_output_adapter@D@__crt_stdio_output@@@2@@__crt_stdio_output@@AEAA_NXZ 000000018007bf90 f i libucrtd:output.obj
 0001:0007b0b0       ?type_case_s@?$output_processor@_WV?$stream_output_adapter@_W@__crt_stdio_output@@V?$format_validation_base@_WV?$stream_output_adapter@_W@__crt_stdio_output@@@2@@__crt_stdio_output@@AEAA_NXZ 000000018007c0b0 f i libucrtd:output.obj
 0001:0007b1d0       ?type_case_s@?$output_processor@_WV?$stream_output_adapter@_W@__crt_stdio_output@@V?$positional_parameter_base@_WV?$stream_output_adapter@_W@__crt_stdio_output@@@2@@__crt_stdio_output@@AEAA_NXZ 000000018007c1d0 f i libucrtd:output.obj
 0001:0007b2f0       ?type_case_s@?$output_processor@_WV?$stream_output_adapter@_W@__crt_stdio_output@@V?$standard_base@_WV?$stream_output_adapter@_W@__crt_stdio_output@@@2@@__crt_stdio_output@@AEAA_NXZ 000000018007c2f0 f i libucrtd:output.obj
 0001:0007b410       ?type_case_s@?$output_processor@_WV?$string_output_adapter@_W@__crt_stdio_output@@V?$format_validation_base@_WV?$string_output_adapter@_W@__crt_stdio_output@@@2@@__crt_stdio_output@@AEAA_NXZ 000000018007c410 f i libucrtd:output.obj
 0001:0007b530       ?type_case_s@?$output_processor@_WV?$string_output_adapter@_W@__crt_stdio_output@@V?$positional_parameter_base@_WV?$string_output_adapter@_W@__crt_stdio_output@@@2@@__crt_stdio_output@@AEAA_NXZ 000000018007c530 f i libucrtd:output.obj
 0001:0007b650       ?type_case_s@?$output_processor@_WV?$string_output_adapter@_W@__crt_stdio_output@@V?$standard_base@_WV?$string_output_adapter@_W@__crt_stdio_output@@@2@@__crt_stdio_output@@AEAA_NXZ 000000018007c650 f i libucrtd:output.obj
 0001:0007b770       ?type_case_s_compute_narrow_string_length@?$output_processor@DV?$stream_output_adapter@D@__crt_stdio_output@@V?$format_validation_base@DV?$stream_output_adapter@D@__crt_stdio_output@@@2@@__crt_stdio_output@@AEBAHHD@Z 000000018007c770 f i libucrtd:output.obj
 0001:0007b7a0       ?type_case_s_compute_narrow_string_length@?$output_processor@DV?$stream_output_adapter@D@__crt_stdio_output@@V?$positional_parameter_base@DV?$stream_output_adapter@D@__crt_stdio_output@@@2@@__crt_stdio_output@@AEBAHHD@Z 000000018007c7a0 f i libucrtd:output.obj
 0001:0007b7d0       ?type_case_s_compute_narrow_string_length@?$output_processor@DV?$stream_output_adapter@D@__crt_stdio_output@@V?$standard_base@DV?$stream_output_adapter@D@__crt_stdio_output@@@2@@__crt_stdio_output@@AEBAHHD@Z 000000018007c7d0 f i libucrtd:output.obj
 0001:0007b800       ?type_case_s_compute_narrow_string_length@?$output_processor@DV?$string_output_adapter@D@__crt_stdio_output@@V?$format_validation_base@DV?$string_output_adapter@D@__crt_stdio_output@@@2@@__crt_stdio_output@@AEBAHHD@Z 000000018007c800 f i libucrtd:output.obj
 0001:0007b830       ?type_case_s_compute_narrow_string_length@?$output_processor@DV?$string_output_adapter@D@__crt_stdio_output@@V?$positional_parameter_base@DV?$string_output_adapter@D@__crt_stdio_output@@@2@@__crt_stdio_output@@AEBAHHD@Z 000000018007c830 f i libucrtd:output.obj
 0001:0007b860       ?type_case_s_compute_narrow_string_length@?$output_processor@DV?$string_output_adapter@D@__crt_stdio_output@@V?$standard_base@DV?$string_output_adapter@D@__crt_stdio_output@@@2@@__crt_stdio_output@@AEBAHHD@Z 000000018007c860 f i libucrtd:output.obj
 0001:0007b890       ?type_case_s_compute_narrow_string_length@?$output_processor@_WV?$stream_output_adapter@_W@__crt_stdio_output@@V?$format_validation_base@_WV?$stream_output_adapter@_W@__crt_stdio_output@@@2@@__crt_stdio_output@@AEBAHH_W@Z 000000018007c890 f i libucrtd:output.obj
 0001:0007b920       ?type_case_s_compute_narrow_string_length@?$output_processor@_WV?$stream_output_adapter@_W@__crt_stdio_output@@V?$positional_parameter_base@_WV?$stream_output_adapter@_W@__crt_stdio_output@@@2@@__crt_stdio_output@@AEBAHH_W@Z 000000018007c920 f i libucrtd:output.obj
 0001:0007b9b0       ?type_case_s_compute_narrow_string_length@?$output_processor@_WV?$stream_output_adapter@_W@__crt_stdio_output@@V?$standard_base@_WV?$stream_output_adapter@_W@__crt_stdio_output@@@2@@__crt_stdio_output@@AEBAHH_W@Z 000000018007c9b0 f i libucrtd:output.obj
 0001:0007ba40       ?type_case_s_compute_narrow_string_length@?$output_processor@_WV?$string_output_adapter@_W@__crt_stdio_output@@V?$format_validation_base@_WV?$string_output_adapter@_W@__crt_stdio_output@@@2@@__crt_stdio_output@@AEBAHH_W@Z 000000018007ca40 f i libucrtd:output.obj
 0001:0007bad0       ?type_case_s_compute_narrow_string_length@?$output_processor@_WV?$string_output_adapter@_W@__crt_stdio_output@@V?$positional_parameter_base@_WV?$string_output_adapter@_W@__crt_stdio_output@@@2@@__crt_stdio_output@@AEBAHH_W@Z 000000018007cad0 f i libucrtd:output.obj
 0001:0007bb60       ?type_case_s_compute_narrow_string_length@?$output_processor@_WV?$string_output_adapter@_W@__crt_stdio_output@@V?$standard_base@_WV?$string_output_adapter@_W@__crt_stdio_output@@@2@@__crt_stdio_output@@AEBAHH_W@Z 000000018007cb60 f i libucrtd:output.obj
 0001:0007bbf0       ?type_case_u@?$output_processor@DV?$stream_output_adapter@D@__crt_stdio_output@@V?$format_validation_base@DV?$stream_output_adapter@D@__crt_stdio_output@@@2@@__crt_stdio_output@@AEAA_NXZ 000000018007cbf0 f i libucrtd:output.obj
 0001:0007bc10       ?type_case_u@?$output_processor@DV?$stream_output_adapter@D@__crt_stdio_output@@V?$positional_parameter_base@DV?$stream_output_adapter@D@__crt_stdio_output@@@2@@__crt_stdio_output@@AEAA_NXZ 000000018007cc10 f i libucrtd:output.obj
 0001:0007bc30       ?type_case_u@?$output_processor@DV?$stream_output_adapter@D@__crt_stdio_output@@V?$standard_base@DV?$stream_output_adapter@D@__crt_stdio_output@@@2@@__crt_stdio_output@@AEAA_NXZ 000000018007cc30 f i libucrtd:output.obj
 0001:0007bc50       ?type_case_u@?$output_processor@DV?$string_output_adapter@D@__crt_stdio_output@@V?$format_validation_base@DV?$string_output_adapter@D@__crt_stdio_output@@@2@@__crt_stdio_output@@AEAA_NXZ 000000018007cc50 f i libucrtd:output.obj
 0001:0007bc70       ?type_case_u@?$output_processor@DV?$string_output_adapter@D@__crt_stdio_output@@V?$positional_parameter_base@DV?$string_output_adapter@D@__crt_stdio_output@@@2@@__crt_stdio_output@@AEAA_NXZ 000000018007cc70 f i libucrtd:output.obj
 0001:0007bc90       ?type_case_u@?$output_processor@DV?$string_output_adapter@D@__crt_stdio_output@@V?$standard_base@DV?$string_output_adapter@D@__crt_stdio_output@@@2@@__crt_stdio_output@@AEAA_NXZ 000000018007cc90 f i libucrtd:output.obj
 0001:0007bcb0       ?type_case_u@?$output_processor@_WV?$stream_output_adapter@_W@__crt_stdio_output@@V?$format_validation_base@_WV?$stream_output_adapter@_W@__crt_stdio_output@@@2@@__crt_stdio_output@@AEAA_NXZ 000000018007ccb0 f i libucrtd:output.obj
 0001:0007bcd0       ?type_case_u@?$output_processor@_WV?$stream_output_adapter@_W@__crt_stdio_output@@V?$positional_parameter_base@_WV?$stream_output_adapter@_W@__crt_stdio_output@@@2@@__crt_stdio_output@@AEAA_NXZ 000000018007ccd0 f i libucrtd:output.obj
 0001:0007bcf0       ?type_case_u@?$output_processor@_WV?$stream_output_adapter@_W@__crt_stdio_output@@V?$standard_base@_WV?$stream_output_adapter@_W@__crt_stdio_output@@@2@@__crt_stdio_output@@AEAA_NXZ 000000018007ccf0 f i libucrtd:output.obj
 0001:0007bd10       ?type_case_u@?$output_processor@_WV?$string_output_adapter@_W@__crt_stdio_output@@V?$format_validation_base@_WV?$string_output_adapter@_W@__crt_stdio_output@@@2@@__crt_stdio_output@@AEAA_NXZ 000000018007cd10 f i libucrtd:output.obj
 0001:0007bd30       ?type_case_u@?$output_processor@_WV?$string_output_adapter@_W@__crt_stdio_output@@V?$positional_parameter_base@_WV?$string_output_adapter@_W@__crt_stdio_output@@@2@@__crt_stdio_output@@AEAA_NXZ 000000018007cd30 f i libucrtd:output.obj
 0001:0007bd50       ?type_case_u@?$output_processor@_WV?$string_output_adapter@_W@__crt_stdio_output@@V?$standard_base@_WV?$string_output_adapter@_W@__crt_stdio_output@@@2@@__crt_stdio_output@@AEAA_NXZ 000000018007cd50 f i libucrtd:output.obj
 0001:0007bd70       ?type_case_x@?$output_processor@DV?$stream_output_adapter@D@__crt_stdio_output@@V?$format_validation_base@DV?$stream_output_adapter@D@__crt_stdio_output@@@2@@__crt_stdio_output@@AEAA_NXZ 000000018007cd70 f i libucrtd:output.obj
 0001:0007bd90       ?type_case_x@?$output_processor@DV?$stream_output_adapter@D@__crt_stdio_output@@V?$positional_parameter_base@DV?$stream_output_adapter@D@__crt_stdio_output@@@2@@__crt_stdio_output@@AEAA_NXZ 000000018007cd90 f i libucrtd:output.obj
 0001:0007bdb0       ?type_case_x@?$output_processor@DV?$stream_output_adapter@D@__crt_stdio_output@@V?$standard_base@DV?$stream_output_adapter@D@__crt_stdio_output@@@2@@__crt_stdio_output@@AEAA_NXZ 000000018007cdb0 f i libucrtd:output.obj
 0001:0007bdd0       ?type_case_x@?$output_processor@DV?$string_output_adapter@D@__crt_stdio_output@@V?$format_validation_base@DV?$string_output_adapter@D@__crt_stdio_output@@@2@@__crt_stdio_output@@AEAA_NXZ 000000018007cdd0 f i libucrtd:output.obj
 0001:0007bdf0       ?type_case_x@?$output_processor@DV?$string_output_adapter@D@__crt_stdio_output@@V?$positional_parameter_base@DV?$string_output_adapter@D@__crt_stdio_output@@@2@@__crt_stdio_output@@AEAA_NXZ 000000018007cdf0 f i libucrtd:output.obj
 0001:0007be10       ?type_case_x@?$output_processor@DV?$string_output_adapter@D@__crt_stdio_output@@V?$standard_base@DV?$string_output_adapter@D@__crt_stdio_output@@@2@@__crt_stdio_output@@AEAA_NXZ 000000018007ce10 f i libucrtd:output.obj
 0001:0007be30       ?type_case_x@?$output_processor@_WV?$stream_output_adapter@_W@__crt_stdio_output@@V?$format_validation_base@_WV?$stream_output_adapter@_W@__crt_stdio_output@@@2@@__crt_stdio_output@@AEAA_NXZ 000000018007ce30 f i libucrtd:output.obj
 0001:0007be50       ?type_case_x@?$output_processor@_WV?$stream_output_adapter@_W@__crt_stdio_output@@V?$positional_parameter_base@_WV?$stream_output_adapter@_W@__crt_stdio_output@@@2@@__crt_stdio_output@@AEAA_NXZ 000000018007ce50 f i libucrtd:output.obj
 0001:0007be70       ?type_case_x@?$output_processor@_WV?$stream_output_adapter@_W@__crt_stdio_output@@V?$standard_base@_WV?$stream_output_adapter@_W@__crt_stdio_output@@@2@@__crt_stdio_output@@AEAA_NXZ 000000018007ce70 f i libucrtd:output.obj
 0001:0007be90       ?type_case_x@?$output_processor@_WV?$string_output_adapter@_W@__crt_stdio_output@@V?$format_validation_base@_WV?$string_output_adapter@_W@__crt_stdio_output@@@2@@__crt_stdio_output@@AEAA_NXZ 000000018007ce90 f i libucrtd:output.obj
 0001:0007beb0       ?type_case_x@?$output_processor@_WV?$string_output_adapter@_W@__crt_stdio_output@@V?$positional_parameter_base@_WV?$string_output_adapter@_W@__crt_stdio_output@@@2@@__crt_stdio_output@@AEAA_NXZ 000000018007ceb0 f i libucrtd:output.obj
 0001:0007bed0       ?type_case_x@?$output_processor@_WV?$string_output_adapter@_W@__crt_stdio_output@@V?$standard_base@_WV?$string_output_adapter@_W@__crt_stdio_output@@@2@@__crt_stdio_output@@AEAA_NXZ 000000018007ced0 f i libucrtd:output.obj
 0001:0007bef0       ?unset_flag@?$output_processor@DV?$stream_output_adapter@D@__crt_stdio_output@@V?$format_validation_base@DV?$stream_output_adapter@D@__crt_stdio_output@@@2@@__crt_stdio_output@@AEAAXI@Z 000000018007cef0 f i libucrtd:output.obj
 0001:0007bf20       ?unset_flag@?$output_processor@DV?$stream_output_adapter@D@__crt_stdio_output@@V?$positional_parameter_base@DV?$stream_output_adapter@D@__crt_stdio_output@@@2@@__crt_stdio_output@@AEAAXI@Z 000000018007cf20 f i libucrtd:output.obj
 0001:0007bf50       ?unset_flag@?$output_processor@DV?$stream_output_adapter@D@__crt_stdio_output@@V?$standard_base@DV?$stream_output_adapter@D@__crt_stdio_output@@@2@@__crt_stdio_output@@AEAAXI@Z 000000018007cf50 f i libucrtd:output.obj
 0001:0007bf80       ?unset_flag@?$output_processor@DV?$string_output_adapter@D@__crt_stdio_output@@V?$format_validation_base@DV?$string_output_adapter@D@__crt_stdio_output@@@2@@__crt_stdio_output@@AEAAXI@Z 000000018007cf80 f i libucrtd:output.obj
 0001:0007bfb0       ?unset_flag@?$output_processor@DV?$string_output_adapter@D@__crt_stdio_output@@V?$positional_parameter_base@DV?$string_output_adapter@D@__crt_stdio_output@@@2@@__crt_stdio_output@@AEAAXI@Z 000000018007cfb0 f i libucrtd:output.obj
 0001:0007bfe0       ?unset_flag@?$output_processor@DV?$string_output_adapter@D@__crt_stdio_output@@V?$standard_base@DV?$string_output_adapter@D@__crt_stdio_output@@@2@@__crt_stdio_output@@AEAAXI@Z 000000018007cfe0 f i libucrtd:output.obj
 0001:0007c010       ?unset_flag@?$output_processor@_WV?$stream_output_adapter@_W@__crt_stdio_output@@V?$format_validation_base@_WV?$stream_output_adapter@_W@__crt_stdio_output@@@2@@__crt_stdio_output@@AEAAXI@Z 000000018007d010 f i libucrtd:output.obj
 0001:0007c040       ?unset_flag@?$output_processor@_WV?$stream_output_adapter@_W@__crt_stdio_output@@V?$positional_parameter_base@_WV?$stream_output_adapter@_W@__crt_stdio_output@@@2@@__crt_stdio_output@@AEAAXI@Z 000000018007d040 f i libucrtd:output.obj
 0001:0007c070       ?unset_flag@?$output_processor@_WV?$stream_output_adapter@_W@__crt_stdio_output@@V?$standard_base@_WV?$stream_output_adapter@_W@__crt_stdio_output@@@2@@__crt_stdio_output@@AEAAXI@Z 000000018007d070 f i libucrtd:output.obj
 0001:0007c0a0       ?unset_flag@?$output_processor@_WV?$string_output_adapter@_W@__crt_stdio_output@@V?$format_validation_base@_WV?$string_output_adapter@_W@__crt_stdio_output@@@2@@__crt_stdio_output@@AEAAXI@Z 000000018007d0a0 f i libucrtd:output.obj
 0001:0007c0d0       ?unset_flag@?$output_processor@_WV?$string_output_adapter@_W@__crt_stdio_output@@V?$positional_parameter_base@_WV?$string_output_adapter@_W@__crt_stdio_output@@@2@@__crt_stdio_output@@AEAAXI@Z 000000018007d0d0 f i libucrtd:output.obj
 0001:0007c100       ?unset_flag@?$output_processor@_WV?$string_output_adapter@_W@__crt_stdio_output@@V?$standard_base@_WV?$string_output_adapter@_W@__crt_stdio_output@@@2@@__crt_stdio_output@@AEAAXI@Z 000000018007d100 f i libucrtd:output.obj
 0001:0007c130       ?update_field_width@?$positional_parameter_base@DV?$stream_output_adapter@D@__crt_stdio_output@@@__crt_stdio_output@@IEAA_NXZ 000000018007d130 f i libucrtd:output.obj
 0001:0007c320       ?update_field_width@?$positional_parameter_base@DV?$string_output_adapter@D@__crt_stdio_output@@@__crt_stdio_output@@IEAA_NXZ 000000018007d320 f i libucrtd:output.obj
 0001:0007c510       ?update_field_width@?$positional_parameter_base@_WV?$stream_output_adapter@_W@__crt_stdio_output@@@__crt_stdio_output@@IEAA_NXZ 000000018007d510 f i libucrtd:output.obj
 0001:0007c700       ?update_field_width@?$positional_parameter_base@_WV?$string_output_adapter@_W@__crt_stdio_output@@@__crt_stdio_output@@IEAA_NXZ 000000018007d700 f i libucrtd:output.obj
 0001:0007c8f0       ?update_field_width@?$standard_base@DV?$stream_output_adapter@D@__crt_stdio_output@@@__crt_stdio_output@@IEAA_NXZ 000000018007d8f0 f i libucrtd:output.obj
 0001:0007c920       ?update_field_width@?$standard_base@DV?$string_output_adapter@D@__crt_stdio_output@@@__crt_stdio_output@@IEAA_NXZ 000000018007d920 f i libucrtd:output.obj
 0001:0007c950       ?update_field_width@?$standard_base@_WV?$stream_output_adapter@_W@__crt_stdio_output@@@__crt_stdio_output@@IEAA_NXZ 000000018007d950 f i libucrtd:output.obj
 0001:0007c980       ?update_field_width@?$standard_base@_WV?$string_output_adapter@_W@__crt_stdio_output@@@__crt_stdio_output@@IEAA_NXZ 000000018007d980 f i libucrtd:output.obj
 0001:0007c9b0       ?update_precision@?$positional_parameter_base@DV?$stream_output_adapter@D@__crt_stdio_output@@@__crt_stdio_output@@IEAA_NXZ 000000018007d9b0 f i libucrtd:output.obj
 0001:0007cba0       ?update_precision@?$positional_parameter_base@DV?$string_output_adapter@D@__crt_stdio_output@@@__crt_stdio_output@@IEAA_NXZ 000000018007dba0 f i libucrtd:output.obj
 0001:0007cd90       ?update_precision@?$positional_parameter_base@_WV?$stream_output_adapter@_W@__crt_stdio_output@@@__crt_stdio_output@@IEAA_NXZ 000000018007dd90 f i libucrtd:output.obj
 0001:0007cf80       ?update_precision@?$positional_parameter_base@_WV?$string_output_adapter@_W@__crt_stdio_output@@@__crt_stdio_output@@IEAA_NXZ 000000018007df80 f i libucrtd:output.obj
 0001:0007d170       ?update_precision@?$standard_base@DV?$stream_output_adapter@D@__crt_stdio_output@@@__crt_stdio_output@@IEAA_NXZ 000000018007e170 f i libucrtd:output.obj
 0001:0007d1a0       ?update_precision@?$standard_base@DV?$string_output_adapter@D@__crt_stdio_output@@@__crt_stdio_output@@IEAA_NXZ 000000018007e1a0 f i libucrtd:output.obj
 0001:0007d1d0       ?update_precision@?$standard_base@_WV?$stream_output_adapter@_W@__crt_stdio_output@@@__crt_stdio_output@@IEAA_NXZ 000000018007e1d0 f i libucrtd:output.obj
 0001:0007d200       ?update_precision@?$standard_base@_WV?$string_output_adapter@_W@__crt_stdio_output@@@__crt_stdio_output@@IEAA_NXZ 000000018007e200 f i libucrtd:output.obj
 0001:0007d230       ?valid@__crt_stdio_stream@@QEBA_NXZ 000000018007e230 f i libucrtd:output.obj
 0001:0007d260       ?validate@?$stream_output_adapter@D@__crt_stdio_output@@QEBA_NXZ 000000018007e260 f i libucrtd:output.obj
 0001:0007d340       ?validate@?$stream_output_adapter@_W@__crt_stdio_output@@QEBA_NXZ 000000018007e340 f i libucrtd:output.obj
 0001:0007d420       ?validate@?$string_output_adapter@D@__crt_stdio_output@@QEBA_NXZ 000000018007e420 f i libucrtd:output.obj
 0001:0007d4e0       ?validate@?$string_output_adapter@_W@__crt_stdio_output@@QEBA_NXZ 000000018007e4e0 f i libucrtd:output.obj
 0001:0007d5a0       ?validate_and_store_parameter_data@?$positional_parameter_base@DV?$stream_output_adapter@D@__crt_stdio_output@@@__crt_stdio_output@@AEAA_NAEAUparameter_data@12@W4parameter_type@12@DW4length_modifier@2@@Z 000000018007e5a0 f i libucrtd:output.obj
 0001:0007d6c0       ?validate_and_store_parameter_data@?$positional_parameter_base@DV?$string_output_adapter@D@__crt_stdio_output@@@__crt_stdio_output@@AEAA_NAEAUparameter_data@12@W4parameter_type@12@DW4length_modifier@2@@Z 000000018007e6c0 f i libucrtd:output.obj
 0001:0007d7e0       ?validate_and_store_parameter_data@?$positional_parameter_base@_WV?$stream_output_adapter@_W@__crt_stdio_output@@@__crt_stdio_output@@AEAA_NAEAUparameter_data@12@W4parameter_type@12@_WW4length_modifier@2@@Z 000000018007e7e0 f i libucrtd:output.obj
 0001:0007d900       ?validate_and_store_parameter_data@?$positional_parameter_base@_WV?$string_output_adapter@_W@__crt_stdio_output@@@__crt_stdio_output@@AEAA_NAEAUparameter_data@12@W4parameter_type@12@_WW4length_modifier@2@@Z 000000018007e900 f i libucrtd:output.obj
 0001:0007da20       ?validate_and_update_state_at_beginning_of_format_character@?$positional_parameter_base@DV?$stream_output_adapter@D@__crt_stdio_output@@@__crt_stdio_output@@IEAA_NXZ 000000018007ea20 f i libucrtd:output.obj
 0001:0007dd00       ?validate_and_update_state_at_beginning_of_format_character@?$positional_parameter_base@DV?$string_output_adapter@D@__crt_stdio_output@@@__crt_stdio_output@@IEAA_NXZ 000000018007ed00 f i libucrtd:output.obj
 0001:0007dfe0       ?validate_and_update_state_at_beginning_of_format_character@?$positional_parameter_base@_WV?$stream_output_adapter@_W@__crt_stdio_output@@@__crt_stdio_output@@IEAA_NXZ 000000018007efe0 f i libucrtd:output.obj
 0001:0007e2c0       ?validate_and_update_state_at_beginning_of_format_character@?$positional_parameter_base@_WV?$string_output_adapter@_W@__crt_stdio_output@@@__crt_stdio_output@@IEAA_NXZ 000000018007f2c0 f i libucrtd:output.obj
 0001:0007e5a0       ?validate_and_update_state_at_beginning_of_format_character@?$standard_base@DV?$stream_output_adapter@D@__crt_stdio_output@@@__crt_stdio_output@@IEAA_NXZ 000000018007f5a0 f i libucrtd:output.obj
 0001:0007e5b0       ?validate_and_update_state_at_beginning_of_format_character@?$standard_base@DV?$string_output_adapter@D@__crt_stdio_output@@@__crt_stdio_output@@IEAA_NXZ 000000018007f5b0 f i libucrtd:output.obj
 0001:0007e5c0       ?validate_and_update_state_at_beginning_of_format_character@?$standard_base@_WV?$stream_output_adapter@_W@__crt_stdio_output@@@__crt_stdio_output@@IEAA_NXZ 000000018007f5c0 f i libucrtd:output.obj
 0001:0007e5d0       ?validate_and_update_state_at_beginning_of_format_character@?$standard_base@_WV?$string_output_adapter@_W@__crt_stdio_output@@@__crt_stdio_output@@IEAA_NXZ 000000018007f5d0 f i libucrtd:output.obj
 0001:0007e5e0       ?validate_and_update_state_at_end_of_format_string@?$format_validation_base@DV?$stream_output_adapter@D@__crt_stdio_output@@@__crt_stdio_output@@IEBA_NXZ 000000018007f5e0 f i libucrtd:output.obj
 0001:0007e6a0       ?validate_and_update_state_at_end_of_format_string@?$format_validation_base@DV?$string_output_adapter@D@__crt_stdio_output@@@__crt_stdio_output@@IEBA_NXZ 000000018007f6a0 f i libucrtd:output.obj
 0001:0007e760       ?validate_and_update_state_at_end_of_format_string@?$format_validation_base@_WV?$stream_output_adapter@_W@__crt_stdio_output@@@__crt_stdio_output@@IEBA_NXZ 000000018007f760 f i libucrtd:output.obj
 0001:0007e820       ?validate_and_update_state_at_end_of_format_string@?$format_validation_base@_WV?$string_output_adapter@_W@__crt_stdio_output@@@__crt_stdio_output@@IEBA_NXZ 000000018007f820 f i libucrtd:output.obj
 0001:0007e8e0       ?validate_and_update_state_at_end_of_format_string@?$positional_parameter_base@DV?$stream_output_adapter@D@__crt_stdio_output@@@__crt_stdio_output@@IEAA_NXZ 000000018007f8e0 f i libucrtd:output.obj
 0001:0007ead0       ?validate_and_update_state_at_end_of_format_string@?$positional_parameter_base@DV?$string_output_adapter@D@__crt_stdio_output@@@__crt_stdio_output@@IEAA_NXZ 000000018007fad0 f i libucrtd:output.obj
 0001:0007ecc0       ?validate_and_update_state_at_end_of_format_string@?$positional_parameter_base@_WV?$stream_output_adapter@_W@__crt_stdio_output@@@__crt_stdio_output@@IEAA_NXZ 000000018007fcc0 f i libucrtd:output.obj
 0001:0007eeb0       ?validate_and_update_state_at_end_of_format_string@?$positional_parameter_base@_WV?$string_output_adapter@_W@__crt_stdio_output@@@__crt_stdio_output@@IEAA_NXZ 000000018007feb0 f i libucrtd:output.obj
 0001:0007f0a0       ?validate_and_update_state_at_end_of_format_string@?$standard_base@DV?$stream_output_adapter@D@__crt_stdio_output@@@__crt_stdio_output@@IEBA_NXZ 00000001800800a0 f i libucrtd:output.obj
 0001:0007f0b0       ?validate_and_update_state_at_end_of_format_string@?$standard_base@DV?$string_output_adapter@D@__crt_stdio_output@@@__crt_stdio_output@@IEBA_NXZ 00000001800800b0 f i libucrtd:output.obj
 0001:0007f0c0       ?validate_and_update_state_at_end_of_format_string@?$standard_base@_WV?$stream_output_adapter@_W@__crt_stdio_output@@@__crt_stdio_output@@IEBA_NXZ 00000001800800c0 f i libucrtd:output.obj
 0001:0007f0d0       ?validate_and_update_state_at_end_of_format_string@?$standard_base@_WV?$string_output_adapter@_W@__crt_stdio_output@@@__crt_stdio_output@@IEBA_NXZ 00000001800800d0 f i libucrtd:output.obj
 0001:0007f0e0       ?validate_state_for_type_case_a@?$positional_parameter_base@DV?$stream_output_adapter@D@__crt_stdio_output@@@__crt_stdio_output@@IEAA_NXZ 00000001800800e0 f i libucrtd:output.obj
 0001:0007f220       ?validate_state_for_type_case_a@?$positional_parameter_base@DV?$string_output_adapter@D@__crt_stdio_output@@@__crt_stdio_output@@IEAA_NXZ 0000000180080220 f i libucrtd:output.obj
 0001:0007f360       ?validate_state_for_type_case_a@?$positional_parameter_base@_WV?$stream_output_adapter@_W@__crt_stdio_output@@@__crt_stdio_output@@IEAA_NXZ 0000000180080360 f i libucrtd:output.obj
 0001:0007f4a0       ?validate_state_for_type_case_a@?$positional_parameter_base@_WV?$string_output_adapter@_W@__crt_stdio_output@@@__crt_stdio_output@@IEAA_NXZ 00000001800804a0 f i libucrtd:output.obj
 0001:0007f5e0       ?validate_state_for_type_case_a@?$standard_base@DV?$stream_output_adapter@D@__crt_stdio_output@@@__crt_stdio_output@@IEBA_NXZ 00000001800805e0 f i libucrtd:output.obj
 0001:0007f5f0       ?validate_state_for_type_case_a@?$standard_base@DV?$string_output_adapter@D@__crt_stdio_output@@@__crt_stdio_output@@IEBA_NXZ 00000001800805f0 f i libucrtd:output.obj
 0001:0007f600       ?validate_state_for_type_case_a@?$standard_base@_WV?$stream_output_adapter@_W@__crt_stdio_output@@@__crt_stdio_output@@IEBA_NXZ 0000000180080600 f i libucrtd:output.obj
 0001:0007f610       ?validate_state_for_type_case_a@?$standard_base@_WV?$string_output_adapter@_W@__crt_stdio_output@@@__crt_stdio_output@@IEBA_NXZ 0000000180080610 f i libucrtd:output.obj
 0001:0007f620       ?validate_stream_is_ansi_if_required@?$__acrt_stdio_char_traits@D@@SA_NQEAU_iobuf@@@Z 0000000180080620 f i libucrtd:output.obj
 0001:0007f7b0       ?validate_stream_is_ansi_if_required@?$__acrt_stdio_char_traits@_W@@SA_NQEAU_iobuf@@@Z 00000001800807b0 f i libucrtd:output.obj
 0001:0007f7c0       ?wide_null_string@?$output_processor@DV?$stream_output_adapter@D@__crt_stdio_output@@V?$format_validation_base@DV?$stream_output_adapter@D@__crt_stdio_output@@@2@@__crt_stdio_output@@CAPEA_WXZ 00000001800807c0 f i libucrtd:output.obj
 0001:0007f7d0       ?wide_null_string@?$output_processor@DV?$stream_output_adapter@D@__crt_stdio_output@@V?$positional_parameter_base@DV?$stream_output_adapter@D@__crt_stdio_output@@@2@@__crt_stdio_output@@CAPEA_WXZ 00000001800807d0 f i libucrtd:output.obj
 0001:0007f7e0       ?wide_null_string@?$output_processor@DV?$stream_output_adapter@D@__crt_stdio_output@@V?$standard_base@DV?$stream_output_adapter@D@__crt_stdio_output@@@2@@__crt_stdio_output@@CAPEA_WXZ 00000001800807e0 f i libucrtd:output.obj
 0001:0007f7f0       ?wide_null_string@?$output_processor@DV?$string_output_adapter@D@__crt_stdio_output@@V?$format_validation_base@DV?$string_output_adapter@D@__crt_stdio_output@@@2@@__crt_stdio_output@@CAPEA_WXZ 00000001800807f0 f i libucrtd:output.obj
 0001:0007f800       ?wide_null_string@?$output_processor@DV?$string_output_adapter@D@__crt_stdio_output@@V?$positional_parameter_base@DV?$string_output_adapter@D@__crt_stdio_output@@@2@@__crt_stdio_output@@CAPEA_WXZ 0000000180080800 f i libucrtd:output.obj
 0001:0007f810       ?wide_null_string@?$output_processor@DV?$string_output_adapter@D@__crt_stdio_output@@V?$standard_base@DV?$string_output_adapter@D@__crt_stdio_output@@@2@@__crt_stdio_output@@CAPEA_WXZ 0000000180080810 f i libucrtd:output.obj
 0001:0007f820       ?wide_null_string@?$output_processor@_WV?$stream_output_adapter@_W@__crt_stdio_output@@V?$format_validation_base@_WV?$stream_output_adapter@_W@__crt_stdio_output@@@2@@__crt_stdio_output@@CAPEA_WXZ 0000000180080820 f i libucrtd:output.obj
 0001:0007f830       ?wide_null_string@?$output_processor@_WV?$stream_output_adapter@_W@__crt_stdio_output@@V?$positional_parameter_base@_WV?$stream_output_adapter@_W@__crt_stdio_output@@@2@@__crt_stdio_output@@CAPEA_WXZ 0000000180080830 f i libucrtd:output.obj
 0001:0007f840       ?wide_null_string@?$output_processor@_WV?$stream_output_adapter@_W@__crt_stdio_output@@V?$standard_base@_WV?$stream_output_adapter@_W@__crt_stdio_output@@@2@@__crt_stdio_output@@CAPEA_WXZ 0000000180080840 f i libucrtd:output.obj
 0001:0007f850       ?wide_null_string@?$output_processor@_WV?$string_output_adapter@_W@__crt_stdio_output@@V?$format_validation_base@_WV?$string_output_adapter@_W@__crt_stdio_output@@@2@@__crt_stdio_output@@CAPEA_WXZ 0000000180080850 f i libucrtd:output.obj
 0001:0007f860       ?wide_null_string@?$output_processor@_WV?$string_output_adapter@_W@__crt_stdio_output@@V?$positional_parameter_base@_WV?$string_output_adapter@_W@__crt_stdio_output@@@2@@__crt_stdio_output@@CAPEA_WXZ 0000000180080860 f i libucrtd:output.obj
 0001:0007f870       ?wide_null_string@?$output_processor@_WV?$string_output_adapter@_W@__crt_stdio_output@@V?$standard_base@_WV?$string_output_adapter@_W@__crt_stdio_output@@@2@@__crt_stdio_output@@CAPEA_WXZ 0000000180080870 f i libucrtd:output.obj
 0001:0007f880       ?write_character@?$output_adapter_common@DV?$stream_output_adapter@D@__crt_stdio_output@@@__crt_stdio_output@@QEBAXDQEAH@Z 0000000180080880 f i libucrtd:output.obj
 0001:0007f8d0       ?write_character@?$output_adapter_common@_WV?$stream_output_adapter@_W@__crt_stdio_output@@@__crt_stdio_output@@QEBAX_WQEAH@Z 00000001800808d0 f i libucrtd:output.obj
 0001:0007f920       ?write_character@?$string_output_adapter@D@__crt_stdio_output@@QEBA_NDQEAH@Z 0000000180080920 f i libucrtd:output.obj
 0001:0007f9e0       ?write_character@?$string_output_adapter@_W@__crt_stdio_output@@QEBA_N_WQEAH@Z 00000001800809e0 f i libucrtd:output.obj
 0001:0007faa0       ?write_character_without_count_update@?$stream_output_adapter@D@__crt_stdio_output@@QEBA_ND@Z 0000000180080aa0 f i libucrtd:output.obj
 0001:0007fb20       ?write_character_without_count_update@?$stream_output_adapter@_W@__crt_stdio_output@@QEBA_N_W@Z 0000000180080b20 f i libucrtd:output.obj
 0001:0007fbb0       ?write_stored_string_tchar@?$output_processor@DV?$stream_output_adapter@D@__crt_stdio_output@@V?$format_validation_base@DV?$stream_output_adapter@D@__crt_stdio_output@@@2@@__crt_stdio_output@@AEAA_ND@Z 0000000180080bb0 f i libucrtd:output.obj
 0001:0007fd60       ?write_stored_string_tchar@?$output_processor@DV?$stream_output_adapter@D@__crt_stdio_output@@V?$positional_parameter_base@DV?$stream_output_adapter@D@__crt_stdio_output@@@2@@__crt_stdio_output@@AEAA_ND@Z 0000000180080d60 f i libucrtd:output.obj
 0001:0007ff10       ?write_stored_string_tchar@?$output_processor@DV?$stream_output_adapter@D@__crt_stdio_output@@V?$standard_base@DV?$stream_output_adapter@D@__crt_stdio_output@@@2@@__crt_stdio_output@@AEAA_ND@Z 0000000180080f10 f i libucrtd:output.obj
 0001:000800c0       ?write_stored_string_tchar@?$output_processor@DV?$string_output_adapter@D@__crt_stdio_output@@V?$format_validation_base@DV?$string_output_adapter@D@__crt_stdio_output@@@2@@__crt_stdio_output@@AEAA_ND@Z 00000001800810c0 f i libucrtd:output.obj
 0001:00080270       ?write_stored_string_tchar@?$output_processor@DV?$string_output_adapter@D@__crt_stdio_output@@V?$positional_parameter_base@DV?$string_output_adapter@D@__crt_stdio_output@@@2@@__crt_stdio_output@@AEAA_ND@Z 0000000180081270 f i libucrtd:output.obj
 0001:00080420       ?write_stored_string_tchar@?$output_processor@DV?$string_output_adapter@D@__crt_stdio_output@@V?$standard_base@DV?$string_output_adapter@D@__crt_stdio_output@@@2@@__crt_stdio_output@@AEAA_ND@Z 0000000180081420 f i libucrtd:output.obj
 0001:000805d0       ?write_stored_string_tchar@?$output_processor@_WV?$stream_output_adapter@_W@__crt_stdio_output@@V?$format_validation_base@_WV?$stream_output_adapter@_W@__crt_stdio_output@@@2@@__crt_stdio_output@@AEAA_N_W@Z 00000001800815d0 f i libucrtd:output.obj
 0001:00080720       ?write_stored_string_tchar@?$output_processor@_WV?$stream_output_adapter@_W@__crt_stdio_output@@V?$positional_parameter_base@_WV?$stream_output_adapter@_W@__crt_stdio_output@@@2@@__crt_stdio_output@@AEAA_N_W@Z 0000000180081720 f i libucrtd:output.obj
 0001:00080870       ?write_stored_string_tchar@?$output_processor@_WV?$stream_output_adapter@_W@__crt_stdio_output@@V?$standard_base@_WV?$stream_output_adapter@_W@__crt_stdio_output@@@2@@__crt_stdio_output@@AEAA_N_W@Z 0000000180081870 f i libucrtd:output.obj
 0001:000809c0       ?write_stored_string_tchar@?$output_processor@_WV?$string_output_adapter@_W@__crt_stdio_output@@V?$format_validation_base@_WV?$string_output_adapter@_W@__crt_stdio_output@@@2@@__crt_stdio_output@@AEAA_N_W@Z 00000001800819c0 f i libucrtd:output.obj
 0001:00080b10       ?write_stored_string_tchar@?$output_processor@_WV?$string_output_adapter@_W@__crt_stdio_output@@V?$positional_parameter_base@_WV?$string_output_adapter@_W@__crt_stdio_output@@@2@@__crt_stdio_output@@AEAA_N_W@Z 0000000180081b10 f i libucrtd:output.obj
 0001:00080c60       ?write_stored_string_tchar@?$output_processor@_WV?$string_output_adapter@_W@__crt_stdio_output@@V?$standard_base@_WV?$string_output_adapter@_W@__crt_stdio_output@@@2@@__crt_stdio_output@@AEAA_N_W@Z 0000000180081c60 f i libucrtd:output.obj
 0001:00080db0       ?write_string@?$stream_output_adapter@D@__crt_stdio_output@@QEBAXQEBDHQEAHAEAV__crt_deferred_errno_cache@@@Z 0000000180081db0 f i libucrtd:output.obj
 0001:00080e30       ?write_string@?$stream_output_adapter@_W@__crt_stdio_output@@QEBAXQEB_WHQEAHAEAV__crt_deferred_errno_cache@@@Z 0000000180081e30 f i libucrtd:output.obj
 0001:00080eb0       ?write_string@?$string_output_adapter@D@__crt_stdio_output@@QEBAXQEBDHQEAHAEAV__crt_deferred_errno_cache@@@Z 0000000180081eb0 f i libucrtd:output.obj
 0001:00081020       ?write_string@?$string_output_adapter@_W@__crt_stdio_output@@QEBAXQEB_WHQEAHAEAV__crt_deferred_errno_cache@@@Z 0000000180082020 f i libucrtd:output.obj
 0001:00081190       ?write_string_impl@?$output_adapter_common@DV?$stream_output_adapter@D@__crt_stdio_output@@@__crt_stdio_output@@IEBAXQEBDHQEAHAEAV__crt_deferred_errno_cache@@@Z 0000000180082190 f i libucrtd:output.obj
 0001:00081270       ?write_string_impl@?$output_adapter_common@_WV?$stream_output_adapter@_W@__crt_stdio_output@@@__crt_stdio_output@@IEBAXQEB_WHQEAHAEAV__crt_deferred_errno_cache@@@Z 0000000180082270 f i libucrtd:output.obj
 0001:00081350       __acrt_isleadbyte_l_noupdate 0000000180082350 f i libucrtd:output.obj
 0001:00081380       __acrt_locale_changed      0000000180082380 f i libucrtd:output.obj
 0001:000813b0       __acrt_locale_get_ctype_array_value 00000001800823b0 f i libucrtd:output.obj
 0001:000813f0       __stdio_common_vfprintf    00000001800823f0 f   libucrtd:output.obj
 0001:00081430       __stdio_common_vfprintf_p  0000000180082430 f   libucrtd:output.obj
 0001:00081470       __stdio_common_vfprintf_s  0000000180082470 f   libucrtd:output.obj
 0001:000814b0       __stdio_common_vfwprintf   00000001800824b0 f   libucrtd:output.obj
 0001:000814f0       __stdio_common_vfwprintf_p 00000001800824f0 f   libucrtd:output.obj
 0001:00081530       __stdio_common_vfwprintf_s 0000000180082530 f   libucrtd:output.obj
 0001:00081570       __stdio_common_vsnprintf_s 0000000180082570 f   libucrtd:output.obj
 0001:000815d0       __stdio_common_vsnwprintf_s 00000001800825d0 f   libucrtd:output.obj
 0001:00081630       __stdio_common_vsprintf    0000000180082630 f   libucrtd:output.obj
 0001:00081680       __stdio_common_vsprintf_p  0000000180082680 f   libucrtd:output.obj
 0001:000816d0       __stdio_common_vsprintf_s  00000001800826d0 f   libucrtd:output.obj
 0001:00081720       __stdio_common_vswprintf   0000000180082720 f   libucrtd:output.obj
 0001:00081770       __stdio_common_vswprintf_p 0000000180082770 f   libucrtd:output.obj
 0001:000817c0       __stdio_common_vswprintf_s 00000001800827c0 f   libucrtd:output.obj
 0001:00081810       _ctype_fast_check_internal 0000000180082810 f i libucrtd:output.obj
 0001:00081840       _isdigit_fast_internal     0000000180082840 f i libucrtd:output.obj
 0001:00081870       _tolower_fast_internal     0000000180082870 f i libucrtd:output.obj
 0001:000818a0       free                       00000001800828a0 f   libucrtd:free.obj
 0001:000818d0       malloc                     00000001800828d0 f   libucrtd:malloc.obj
 0001:00081900       ??$?RU?$__crt_report_hook_node@D@@@__crt_internal_free_policy@@QEBAXQEBU?$__crt_report_hook_node@D@@@Z 0000000180082900 f i libucrtd:dbgrpt.obj
 0001:00081930       ??$?RU?$__crt_report_hook_node@_W@@@__crt_internal_free_policy@@QEBAXQEBU?$__crt_report_hook_node@_W@@@Z 0000000180082930 f i libucrtd:dbgrpt.obj
 0001:00082b70       ??$get_module_file_name@AEAPEAUHINSTANCE__@@AEAY0BAF@DK@?$__crt_char_traits@D@@SAKAEAPEAUHINSTANCE__@@AEAY0BAF@D$$QEAK@Z 0000000180083b70 f i libucrtd:dbgrpt.obj
 0001:00082bb0       ??$get_module_file_name@AEAPEAUHINSTANCE__@@AEAY0BAF@_WK@?$__crt_char_traits@_W@@SAKAEAPEAUHINSTANCE__@@AEAY0BAF@_W$$QEAK@Z 0000000180083bb0 f i libucrtd:dbgrpt.obj
 0001:00082bf0       ??$tcscpy_s@AEAY0BAF@D_KPEBD@?$__crt_char_traits@D@@SAHAEAY0BAF@D$$QEA_K$$QEAPEBD@Z 0000000180083bf0 f i libucrtd:dbgrpt.obj
 0001:00082c30       ??$tcscpy_s@AEAY0BAF@_W_KPEB_W@?$__crt_char_traits@_W@@SAHAEAY0BAF@_W$$QEA_K$$QEAPEB_W@Z 0000000180083c30 f i libucrtd:dbgrpt.obj
 0001:00082c70       ??$tcslen@AEAY0BAF@D@?$__crt_char_traits@D@@SA_KAEAY0BAF@D@Z 0000000180083c70 f i libucrtd:dbgrpt.obj
 0001:00082c90       ??$tcslen@AEAY0BAF@_W@?$__crt_char_traits@_W@@SA_KAEAY0BAF@_W@Z 0000000180083c90 f i libucrtd:dbgrpt.obj
 0001:00082cb0       ??$tcslen@AEBQEBD@?$__crt_char_traits@D@@SA_KAEBQEBD@Z 0000000180083cb0 f i libucrtd:dbgrpt.obj
 0001:00082cd0       ??$tcslen@AEBQEB_W@?$__crt_char_traits@_W@@SA_KAEBQEB_W@Z 0000000180083cd0 f i libucrtd:dbgrpt.obj
 0001:00082dd0       ??0?$__crt_unique_heap_ptr@U?$__crt_report_hook_node@D@@U__crt_internal_free_policy@@@@QEAA@QEAU?$__crt_report_hook_node@D@@@Z 0000000180083dd0 f i libucrtd:dbgrpt.obj
 0001:00082df0       ??0?$__crt_unique_heap_ptr@U?$__crt_report_hook_node@_W@@U__crt_internal_free_policy@@@@QEAA@QEAU?$__crt_report_hook_node@_W@@@Z 0000000180083df0 f i libucrtd:dbgrpt.obj
 0001:00082e10       ??1?$__crt_unique_heap_ptr@U?$__crt_report_hook_node@D@@U__crt_internal_free_policy@@@@QEAA@XZ 0000000180083e10 f i libucrtd:dbgrpt.obj
 0001:00082e30       ??1?$__crt_unique_heap_ptr@U?$__crt_report_hook_node@_W@@U__crt_internal_free_policy@@@@QEAA@XZ 0000000180083e30 f i libucrtd:dbgrpt.obj
 0001:00082e50       ??B?$__crt_unique_heap_ptr@U?$__crt_report_hook_node@D@@U__crt_internal_free_policy@@@@QEBA_NXZ 0000000180083e50 f i libucrtd:dbgrpt.obj
 0001:00082e70       ??B?$__crt_unique_heap_ptr@U?$__crt_report_hook_node@_W@@U__crt_internal_free_policy@@@@QEBA_NXZ 0000000180083e70 f i libucrtd:dbgrpt.obj
 0001:00083550       ?detach@?$__crt_unique_heap_ptr@U?$__crt_report_hook_node@D@@U__crt_internal_free_policy@@@@QEAAPEAU?$__crt_report_hook_node@D@@XZ 0000000180084550 f i libucrtd:dbgrpt.obj
 0001:00083580       ?detach@?$__crt_unique_heap_ptr@U?$__crt_report_hook_node@_W@@U__crt_internal_free_policy@@@@QEAAPEAU?$__crt_report_hook_node@_W@@XZ 0000000180084580 f i libucrtd:dbgrpt.obj
 0001:000835b0       ?get@?$__crt_unique_heap_ptr@U?$__crt_report_hook_node@D@@U__crt_internal_free_policy@@@@QEBAPEAU?$__crt_report_hook_node@D@@XZ 00000001800845b0 f i libucrtd:dbgrpt.obj
 0001:000835c0       ?get@?$__crt_unique_heap_ptr@U?$__crt_report_hook_node@_W@@U__crt_internal_free_policy@@@@QEBAPEAU?$__crt_report_hook_node@_W@@XZ 00000001800845c0 f i libucrtd:dbgrpt.obj
 0001:00083630       ?is_valid@?$__crt_unique_heap_ptr@U?$__crt_report_hook_node@D@@U__crt_internal_free_policy@@@@QEBA_NXZ 0000000180084630 f i libucrtd:dbgrpt.obj
 0001:00083660       ?is_valid@?$__crt_unique_heap_ptr@U?$__crt_report_hook_node@_W@@U__crt_internal_free_policy@@@@QEBA_NXZ 0000000180084660 f i libucrtd:dbgrpt.obj
 0001:00083690       ?release@?$__crt_unique_heap_ptr@U?$__crt_report_hook_node@D@@U__crt_internal_free_policy@@@@QEAAXXZ 0000000180084690 f i libucrtd:dbgrpt.obj
 0001:000836c0       ?release@?$__crt_unique_heap_ptr@U?$__crt_report_hook_node@_W@@U__crt_internal_free_policy@@@@QEAAXXZ 00000001800846c0 f i libucrtd:dbgrpt.obj
 0001:000836f0       _CrtDbgReport              00000001800846f0 f   libucrtd:dbgrpt.obj
 0001:00083770       _CrtDbgReportW             0000000180084770 f   libucrtd:dbgrpt.obj
 0001:000837f0       _CrtSetReportHook2         00000001800847f0 f   libucrtd:dbgrpt.obj
 0001:00083810       _CrtSetReportHookW2        0000000180084810 f   libucrtd:dbgrpt.obj
 0001:00083830       __acrt_MessageWindowA      0000000180084830 f   libucrtd:dbgrpt.obj
 0001:00083880       __acrt_MessageWindowW      0000000180084880 f   libucrtd:dbgrpt.obj
 0001:000838d0       _invoke_watson_if_error    00000001800848d0 f i libucrtd:dbgrpt.obj
 0001:00083920       _invoke_watson_if_oneof    0000000180084920 f i libucrtd:dbgrpt.obj
 0001:00083980       _snwprintf_s               0000000180084980 f i libucrtd:dbgrpt.obj
 0001:000839f0       _vsnwprintf_s_l            00000001800849f0 f i libucrtd:dbgrpt.obj
 0001:00083f50       wcscpy_s                   0000000180084f50 f   libucrtd:wcscpy_s.obj
 0001:000852e0       ??1?$__crt_simd_cleanup_guard@$00@@QEAA@XZ 00000001800862e0 f i libucrtd:strnlen.obj
 0001:000852f0       ??1?$__crt_simd_cleanup_guard@$0A@@@QEAA@XZ 00000001800862f0 f i libucrtd:strnlen.obj
 0001:00085300       ?compare_equals@?$__crt_simd_traits@$00E@@SA?AT__m256i@@T2@0@Z 0000000180086300 f i libucrtd:strnlen.obj
 0001:00085340       ?compare_equals@?$__crt_simd_traits@$00G@@SA?AT__m256i@@T2@0@Z 0000000180086340 f i libucrtd:strnlen.obj
 0001:00085380       ?compare_equals@?$__crt_simd_traits@$0A@E@@SA?AT__m128i@@T2@0@Z 0000000180086380 f i libucrtd:strnlen.obj
 0001:000853b0       ?compare_equals@?$__crt_simd_traits@$0A@G@@SA?AT__m128i@@T2@0@Z 00000001800863b0 f i libucrtd:strnlen.obj
 0001:000853e0       ?compute_byte_mask@?$__crt_simd_pack_traits@$00@@SAHT__m256i@@@Z 00000001800863e0 f i libucrtd:strnlen.obj
 0001:00085400       ?compute_byte_mask@?$__crt_simd_pack_traits@$0A@@@SAHT__m128i@@@Z 0000000180086400 f i libucrtd:strnlen.obj
 0001:00085420       ?get_zero_pack@?$__crt_simd_pack_traits@$00@@SA?AT__m256i@@XZ 0000000180086420 f i libucrtd:strnlen.obj
 0001:00085450       ?get_zero_pack@?$__crt_simd_pack_traits@$0A@@@SA?AT__m128i@@XZ 0000000180086450 f i libucrtd:strnlen.obj
 0001:00085470       strnlen                    0000000180086470 f   libucrtd:strnlen.obj
 0001:000854a0       wcslen                     00000001800864a0 f   libucrtd:strnlen.obj
 0001:000854c0       wcsnlen                    00000001800864c0 f   libucrtd:strnlen.obj
 0001:000854f0       ??$__crt_fast_decode_pointer@P6AXPEB_W00I_K@Z@@YAP6AXPEB_W00I_K@ZQ6AX000I1@Z@Z 00000001800864f0 f i libucrtd:invalid_parameter.obj
 0001:00085530       ??$__crt_fast_encode_pointer@P6AXPEB_W00I_K@Z@@YAP6AXPEB_W00I_K@ZQ6AX000I1@Z@Z 0000000180086530 f i libucrtd:invalid_parameter.obj
 0001:00085570       ??$initialize_from_array@$$BY00Q6AXPEB_W00I_K@Z@?$dual_state_global@P6AXPEB_W00I_K@Z@__crt_state_management@@QEAAXAEAY00Q6AXPEB_W00I_K@Z@Z 0000000180086570 f i libucrtd:invalid_parameter.obj
 0001:000855d0       ?__crt_rotate_pointer_value@@YA_K_KH@Z 00000001800865d0 f i libucrtd:invalid_parameter.obj
 0001:00085690       ?dangerous_get_state_array@?$dual_state_global@P6AXPEB_W00I_K@Z@__crt_state_management@@QEAAPEAP6AXPEB_W00I_K@ZXZ 0000000180086690 f i libucrtd:invalid_parameter.obj
 0001:000856a0       ?get_current_state_index@__crt_state_management@@YA_KXZ 00000001800866a0 f i libucrtd:invalid_parameter.obj
 0001:000856b0       ?value@?$dual_state_global@P6AXPEB_W00I_K@Z@__crt_state_management@@QEAAAEAP6AXPEB_W00I_K@ZXZ 00000001800866b0 f i libucrtd:invalid_parameter.obj
 0001:000856d0       __acrt_call_reportfault    00000001800866d0 f   libucrtd:invalid_parameter.obj
 0001:00085800       __acrt_initialize_invalid_parameter_handler 0000000180086800 f   libucrtd:invalid_parameter.obj
 0001:00085830       _get_invalid_parameter_handler 0000000180086830 f   libucrtd:invalid_parameter.obj
 0001:00085850       _get_thread_local_invalid_parameter_handler 0000000180086850 f   libucrtd:invalid_parameter.obj
 0001:00085880       _invalid_parameter         0000000180086880 f   libucrtd:invalid_parameter.obj
 0001:00085980       _invalid_parameter_noinfo  0000000180086980 f   libucrtd:invalid_parameter.obj
 0001:000859b0       _invalid_parameter_noinfo_noreturn 00000001800869b0 f   libucrtd:invalid_parameter.obj
 0001:000859f0       _invoke_watson             00000001800869f0 f   libucrtd:invalid_parameter.obj
 0001:00085a50       _set_invalid_parameter_handler 0000000180086a50 f   libucrtd:invalid_parameter.obj
 0001:00085aa0       _set_thread_local_invalid_parameter_handler 0000000180086aa0 f   libucrtd:invalid_parameter.obj
 0001:00085ae0       __acrt_errno_from_os_error 0000000180086ae0 f   libucrtd:errno.obj
 0001:00085b70       __acrt_errno_map_os_error  0000000180086b70 f   libucrtd:errno.obj
 0001:00085ba0       __doserrno                 0000000180086ba0 f   libucrtd:errno.obj
 0001:00085bd0       _errno                     0000000180086bd0 f   libucrtd:errno.obj
 0001:00085c00       _get_doserrno              0000000180086c00 f   libucrtd:errno.obj
 0001:00085cc0       _get_errno                 0000000180086cc0 f   libucrtd:errno.obj
 0001:00085d80       _set_doserrno              0000000180086d80 f   libucrtd:errno.obj
 0001:00085dc0       _set_errno                 0000000180086dc0 f   libucrtd:errno.obj
 0001:00085e00       calloc                     0000000180086e00 f   libucrtd:calloc.obj
 0001:00085e40       _recalloc                  0000000180086e40 f   libucrtd:recalloc.obj
 0001:00085e90       _recalloc_base             0000000180086e90 f   libucrtd:recalloc.obj
 0001:00085f6c       _resetstkoflw              0000000180086f6c f   libucrtd:resetstk.obj
 0001:00086720       wcscat_s                   0000000180087720 f   libucrtd:wcscat_s.obj
 0001:00086df0       wcsncpy_s                  0000000180087df0 f   libucrtd:wcsncpy_s.obj
 0001:00086e50       __acrt_get_locale_data_prefix 0000000180087e50 f i libucrtd:_ctype.obj
 0001:00086e70       __isascii                  0000000180087e70 f i libucrtd:_ctype.obj
 0001:00086ea0       __iscsym                   0000000180087ea0 f i libucrtd:_ctype.obj
 0001:00086ee0       __iscsymf                  0000000180087ee0 f i libucrtd:_ctype.obj
 0001:00086f20       __toascii                  0000000180087f20 f i libucrtd:_ctype.obj
 0001:00086f30       _chvalidchk_l              0000000180087f30 f i libucrtd:_ctype.obj
 0001:00086f60       _isalnum_l                 0000000180087f60 f i libucrtd:_ctype.obj
 0001:00086fb0       _isalpha_l                 0000000180087fb0 f i libucrtd:_ctype.obj
 0001:00087000       _isblank_l                 0000000180088000 f i libucrtd:_ctype.obj
 0001:00087070       _ischartype_l              0000000180088070 f i libucrtd:_ctype.obj
 0001:00087100       _iscntrl_l                 0000000180088100 f i libucrtd:_ctype.obj
 0001:00087150       _iscsym_l                  0000000180088150 f i libucrtd:_ctype.obj
 0001:000871a0       _iscsymf_l                 00000001800881a0 f i libucrtd:_ctype.obj
 0001:000871f0       _isdigit_l                 00000001800881f0 f i libucrtd:_ctype.obj
 0001:00087240       _isgraph_l                 0000000180088240 f i libucrtd:_ctype.obj
 0001:00087290       _islower_l                 0000000180088290 f i libucrtd:_ctype.obj
 0001:000872e0       _isprint_l                 00000001800882e0 f i libucrtd:_ctype.obj
 0001:00087330       _ispunct_l                 0000000180088330 f i libucrtd:_ctype.obj
 0001:00087380       _isspace_l                 0000000180088380 f i libucrtd:_ctype.obj
 0001:000873d0       _isupper_l                 00000001800883d0 f i libucrtd:_ctype.obj
 0001:00087420       _isxdigit_l                0000000180088420 f i libucrtd:_ctype.obj
 0001:00087470       isalnum                    0000000180088470 f i libucrtd:_ctype.obj
 0001:000874b0       isalpha                    00000001800884b0 f i libucrtd:_ctype.obj
 0001:000874f0       isblank                    00000001800884f0 f i libucrtd:_ctype.obj
 0001:00087550       iscntrl                    0000000180088550 f i libucrtd:_ctype.obj
 0001:00087590       isdigit                    0000000180088590 f i libucrtd:_ctype.obj
 0001:000875d0       isgraph                    00000001800885d0 f i libucrtd:_ctype.obj
 0001:00087610       islower                    0000000180088610 f i libucrtd:_ctype.obj
 0001:00087650       isprint                    0000000180088650 f i libucrtd:_ctype.obj
 0001:00087690       ispunct                    0000000180088690 f i libucrtd:_ctype.obj
 0001:000876d0       isspace                    00000001800886d0 f i libucrtd:_ctype.obj
 0001:00087710       isupper                    0000000180088710 f i libucrtd:_ctype.obj
 0001:00087750       isxdigit                   0000000180088750 f i libucrtd:_ctype.obj
 0001:00087790       wcscat                     0000000180088790 f   libucrtd:wcscat.obj
 0001:00087810       wcscpy                     0000000180088810 f   libucrtd:wcscpy.obj
 0001:00087fc0       ??$open_file@AEBQEBDAEBQEBDAEBHPEAU_iobuf@@@?$__crt_char_traits@D@@SAPEAU_iobuf@@AEBQEBD0AEBH$$QEAPEAU1@@Z 0000000180088fc0 f i libucrtd:fopen.obj
 0001:00088010       ??$open_file@AEBQEB_WAEBQEB_WAEBHPEAU_iobuf@@@?$__crt_char_traits@_W@@SAPEAU_iobuf@@AEBQEB_W0AEBH$$QEAPEAU1@@Z 0000000180089010 f i libucrtd:fopen.obj
 0001:00088060       ?unlock@__crt_stdio_stream@@QEBAXXZ 0000000180089060 f i libucrtd:fopen.obj
 0001:00088080       _fsopen                    0000000180089080 f   libucrtd:fopen.obj
 0001:000880b0       _wfopen                    00000001800890b0 f   libucrtd:fopen.obj
 0001:000880e0       _wfopen_s                  00000001800890e0 f   libucrtd:fopen.obj
 0001:00088110       _wfsopen                   0000000180089110 f   libucrtd:fopen.obj
 0001:00088140       fopen                      0000000180089140 f   libucrtd:fopen.obj
 0001:00088170       fopen_s                    0000000180089170 f   libucrtd:fopen.obj
 0001:000881a0       ?is_in_use@__crt_stdio_stream@@QEBA_NXZ 00000001800891a0 f i libucrtd:fclose.obj
 0001:000881e0       _fclose_nolock             00000001800891e0 f   libucrtd:fclose.obj
 0001:00088370       fclose                     0000000180089370 f   libucrtd:fclose.obj
 0001:000884b0       _fputc_nolock              00000001800894b0 f   libucrtd:fputc.obj
 0001:00088560       _fputchar                  0000000180089560 f   libucrtd:fputc.obj
 0001:00088590       _putc_nolock               0000000180089590 f   libucrtd:fputc.obj
 0001:000885b0       fputc                      00000001800895b0 f   libucrtd:fputc.obj
 0001:00088850       putc                       0000000180089850 f   libucrtd:fputc.obj
 0001:00088870       putchar                    0000000180089870 f   libucrtd:fputc.obj
 0001:00088900       _seh_filter_dll            0000000180089900 f   libucrtd:exception_filter.obj
 0001:00088930       _seh_filter_exe            0000000180089930 f   libucrtd:exception_filter.obj
 0001:00088bd0       ??$?B$$A6AXPEAXK0@Z@__crt_fast_encoded_nullptr_t@@QEBAP6AXPEAXK0@ZXZ 0000000180089bd0 f i libucrtd:exit.obj
 0001:00088c80       ??$__crt_fast_decode_pointer@P6AXPEAXK0@Z@@YAP6AXPEAXK0@ZQ6AX0K0@Z@Z 0000000180089c80 f i libucrtd:exit.obj
 0001:00088cc0       ??$__crt_fast_encode_pointer@P6AXPEAXK0@Z@@YAP6AXPEAXK0@ZQ6AX0K0@Z@Z 0000000180089cc0 f i libucrtd:exit.obj
 0001:00088d00       ??$__crt_get_proc_address@P6AXI@Z@@YAP6AXI@ZQEAUHINSTANCE__@@QEBD@Z 0000000180089d00 f i libucrtd:exit.obj
 0001:00088dc0       ??0?$__crt_unique_handle_t@U__crt_hmodule_traits@@@@QEAA@QEAUHINSTANCE__@@@Z 0000000180089dc0 f i libucrtd:exit.obj
 0001:00088de0       ??1?$__crt_unique_handle_t@U__crt_hmodule_traits@@@@QEAA@XZ 0000000180089de0 f i libucrtd:exit.obj
 0001:00088f40       ?__acrt_select_exit_lock@@YA?AW4__acrt_lock_id@@XZ 0000000180089f40 f i libucrtd:exit.obj
 0001:00088f50       ?__crt_fast_encode_pointer@@YA?AU__crt_fast_encoded_nullptr_t@@$$T@Z 0000000180089f50 f i libucrtd:exit.obj
 0001:00088f90       ?close@?$__crt_unique_handle_t@U__crt_hmodule_traits@@@@QEAAXXZ 0000000180089f90 f i libucrtd:exit.obj
 0001:00088fd0       ?close@__crt_hmodule_traits@@SA_NPEAUHINSTANCE__@@@Z 0000000180089fd0 f i libucrtd:exit.obj
 0001:000890e0       ?get@?$__crt_unique_handle_t@U__crt_hmodule_traits@@@@QEBAPEAUHINSTANCE__@@XZ 000000018008a0e0 f i libucrtd:exit.obj
 0001:000890f0       ?get_address_of@?$__crt_unique_handle_t@U__crt_hmodule_traits@@@@QEAAPEAPEAUHINSTANCE__@@XZ 000000018008a0f0 f i libucrtd:exit.obj
 0001:00089100       ?get_invalid_value@__crt_hmodule_traits@@SAPEAUHINSTANCE__@@XZ 000000018008a100 f i libucrtd:exit.obj
 0001:000892c0       _Exit                      000000018008a2c0 f   libucrtd:exit.obj
 0001:000892e0       __acrt_initialize_thread_local_exit_callback 000000018008a2e0 f   libucrtd:exit.obj
 0001:00089300       _c_exit                    000000018008a300 f   libucrtd:exit.obj
 0001:00089320       _cexit                     000000018008a320 f   libucrtd:exit.obj
 0001:00089340       _exit                      000000018008a340 f   libucrtd:exit.obj
 0001:00089360       _is_c_termination_complete 000000018008a360 f   libucrtd:exit.obj
 0001:00089380       _register_thread_local_exe_atexit_callback 000000018008a380 f   libucrtd:exit.obj
 0001:000893d0       exit                       000000018008a3d0 f   libucrtd:exit.obj
 0001:000893f0       quick_exit                 000000018008a3f0 f   libucrtd:exit.obj
 0001:00089410       ??$?RE@__crt_internal_free_policy@@QEBAXQEBE@Z 000000018008a410 f i libucrtd:argv_parsing.obj
 0001:00089440       ??$?RPEAD@__crt_internal_free_policy@@QEBAXQEBQEAD@Z 000000018008a440 f i libucrtd:argv_parsing.obj
 0001:00089470       ??$?RPEA_W@__crt_internal_free_policy@@QEBAXQEBQEA_W@Z 000000018008a470 f i libucrtd:argv_parsing.obj
 0001:00089bc0       ??$get_module_file_name@$$TAEAY0BAF@DH@?$__crt_char_traits@D@@SAK$$QEA$$TAEAY0BAF@D$$QEAH@Z 000000018008abc0 f i libucrtd:argv_parsing.obj
 0001:00089c00       ??$get_module_file_name@$$TAEAY0BAF@_WH@?$__crt_char_traits@_W@@SAK$$QEA$$TAEAY0BAF@_W$$QEAH@Z 000000018008ac00 f i libucrtd:argv_parsing.obj
 0001:0008a5b0       ??$set_program_name@PEAD@?$__crt_char_traits@D@@SAX$$QEAPEAD@Z 000000018008b5b0 f i libucrtd:argv_parsing.obj
 0001:0008a5d0       ??$set_program_name@PEA_W@?$__crt_char_traits@_W@@SAX$$QEAPEA_W@Z 000000018008b5d0 f i libucrtd:argv_parsing.obj
 0001:0008a630       ??0?$__crt_unique_heap_ptr@EU__crt_internal_free_policy@@@@QEAA@QEAE@Z 000000018008b630 f i libucrtd:argv_parsing.obj
 0001:0008a650       ??0?$__crt_unique_heap_ptr@PEADU__crt_internal_free_policy@@@@QEAA@QEAPEAD@Z 000000018008b650 f i libucrtd:argv_parsing.obj
 0001:0008a670       ??0?$__crt_unique_heap_ptr@PEA_WU__crt_internal_free_policy@@@@QEAA@QEAPEA_W@Z 000000018008b670 f i libucrtd:argv_parsing.obj
 0001:0008a690       ??1?$__crt_unique_heap_ptr@EU__crt_internal_free_policy@@@@QEAA@XZ 000000018008b690 f i libucrtd:argv_parsing.obj
 0001:0008a6b0       ??1?$__crt_unique_heap_ptr@PEADU__crt_internal_free_policy@@@@QEAA@XZ 000000018008b6b0 f i libucrtd:argv_parsing.obj
 0001:0008a6d0       ??1?$__crt_unique_heap_ptr@PEA_WU__crt_internal_free_policy@@@@QEAA@XZ 000000018008b6d0 f i libucrtd:argv_parsing.obj
 0001:0008a6f0       ??B?$__crt_unique_heap_ptr@EU__crt_internal_free_policy@@@@QEBA_NXZ 000000018008b6f0 f i libucrtd:argv_parsing.obj
 0001:0008a7d0       ?detach@?$__crt_unique_heap_ptr@EU__crt_internal_free_policy@@@@QEAAPEAEXZ 000000018008b7d0 f i libucrtd:argv_parsing.obj
 0001:0008a800       ?detach@?$__crt_unique_heap_ptr@PEADU__crt_internal_free_policy@@@@QEAAPEAPEADXZ 000000018008b800 f i libucrtd:argv_parsing.obj
 0001:0008a830       ?detach@?$__crt_unique_heap_ptr@PEA_WU__crt_internal_free_policy@@@@QEAAPEAPEA_WXZ 000000018008b830 f i libucrtd:argv_parsing.obj
 0001:0008a8f0       ?get@?$__crt_unique_heap_ptr@EU__crt_internal_free_policy@@@@QEBAPEAEXZ 000000018008b8f0 f i libucrtd:argv_parsing.obj
 0001:0008a900       ?get@?$__crt_unique_heap_ptr@PEADU__crt_internal_free_policy@@@@QEBAPEAPEADXZ 000000018008b900 f i libucrtd:argv_parsing.obj
 0001:0008a910       ?get@?$__crt_unique_heap_ptr@PEA_WU__crt_internal_free_policy@@@@QEBAPEAPEA_WXZ 000000018008b910 f i libucrtd:argv_parsing.obj
 0001:0008a920       ?get_address_of@?$__crt_unique_heap_ptr@PEADU__crt_internal_free_policy@@@@QEAAPEAPEAPEADXZ 000000018008b920 f i libucrtd:argv_parsing.obj
 0001:0008a930       ?get_address_of@?$__crt_unique_heap_ptr@PEA_WU__crt_internal_free_policy@@@@QEAAPEAPEAPEA_WXZ 000000018008b930 f i libucrtd:argv_parsing.obj
 0001:0008a980       ?is_valid@?$__crt_unique_heap_ptr@EU__crt_internal_free_policy@@@@QEBA_NXZ 000000018008b980 f i libucrtd:argv_parsing.obj
 0001:0008a9b0       ?release@?$__crt_unique_heap_ptr@EU__crt_internal_free_policy@@@@QEAAXXZ 000000018008b9b0 f i libucrtd:argv_parsing.obj
 0001:0008a9e0       ?release@?$__crt_unique_heap_ptr@PEADU__crt_internal_free_policy@@@@QEAAXXZ 000000018008b9e0 f i libucrtd:argv_parsing.obj
 0001:0008aa10       ?release@?$__crt_unique_heap_ptr@PEA_WU__crt_internal_free_policy@@@@QEAAXXZ 000000018008ba10 f i libucrtd:argv_parsing.obj
 0001:0008aa90       __acrt_allocate_buffer_for_argv 000000018008ba90 f   libucrtd:argv_parsing.obj
 0001:0008abb0       _configure_narrow_argv     000000018008bbb0 f   libucrtd:argv_parsing.obj
 0001:0008abd0       _configure_wide_argv       000000018008bbd0 f   libucrtd:argv_parsing.obj
 0001:0008abf0       _set_pgmptr                000000018008bbf0 f i libucrtd:argv_parsing.obj
 0001:0008ac10       _set_wpgmptr               000000018008bc10 f i libucrtd:argv_parsing.obj
 0001:0008ac24       ??$?R_W@__crt_internal_free_policy@@QEBAXQEB_W@Z 000000018008bc24 f i libucrtd:environment_initialization.obj
 0001:0008b1fc       ??$get_environment_from_os@$$V@?$__crt_char_traits@D@@SAPEADXZ 000000018008c1fc f i libucrtd:environment_initialization.obj
 0001:0008b204       ??$get_environment_from_os@$$V@?$__crt_char_traits@_W@@SAPEA_WXZ 000000018008c204 f i libucrtd:environment_initialization.obj
 0001:0008b3d4       ??$set_variable_in_environment_nolock@PEADH@?$__crt_char_traits@D@@SAH$$QEAPEAD$$QEAH@Z 000000018008c3d4 f i libucrtd:environment_initialization.obj
 0001:0008b3e0       ??$set_variable_in_environment_nolock@PEA_WH@?$__crt_char_traits@_W@@SAH$$QEAPEA_W$$QEAH@Z 000000018008c3e0 f i libucrtd:environment_initialization.obj
 0001:0008b3ec       ??$tcscpy_s@PEADAEB_KAEAPEAD@?$__crt_char_traits@D@@SAH$$QEAPEADAEB_KAEAPEAD@Z 000000018008c3ec f i libucrtd:environment_initialization.obj
 0001:0008b3fc       ??$tcscpy_s@PEA_WAEB_KAEAPEA_W@?$__crt_char_traits@_W@@SAH$$QEAPEA_WAEB_KAEAPEA_W@Z 000000018008c3fc f i libucrtd:environment_initialization.obj
 0001:0008b40c       ??$tcslen@AEAPEAD@?$__crt_char_traits@D@@SA_KAEAPEAD@Z 000000018008c40c f i libucrtd:environment_initialization.obj
 0001:0008b420       ??$tcslen@AEAPEA_W@?$__crt_char_traits@_W@@SA_KAEAPEA_W@Z 000000018008c420 f i libucrtd:environment_initialization.obj
 0001:0008b434       ??$uninitialize@A6AXAEAPEAPEAD@Z@?$dual_state_global@PEAPEAD@__crt_state_management@@QEAAXA6AXAEAPEAPEAD@Z@Z 000000018008c434 f i libucrtd:environment_initialization.obj
 0001:0008b478       ??$uninitialize@A6AXAEAPEAPEA_W@Z@?$dual_state_global@PEAPEA_W@__crt_state_management@@QEAAXA6AXAEAPEAPEA_W@Z@Z 000000018008c478 f i libucrtd:environment_initialization.obj
 0001:0008b4f4       ??0?$__crt_unique_heap_ptr@_WU__crt_internal_free_policy@@@@QEAA@QEA_W@Z 000000018008c4f4 f i libucrtd:environment_initialization.obj
 0001:0008b4fc       ??1?$__crt_unique_heap_ptr@_WU__crt_internal_free_policy@@@@QEAA@XZ 000000018008c4fc f i libucrtd:environment_initialization.obj
 0001:0008b51c       ??B?$__crt_unique_heap_ptr@PEADU__crt_internal_free_policy@@@@QEBA_NXZ 000000018008c51c f i libucrtd:environment_initialization.obj
 0001:0008b524       ??B?$__crt_unique_heap_ptr@PEA_WU__crt_internal_free_policy@@@@QEBA_NXZ 000000018008c524 f i libucrtd:environment_initialization.obj
 0001:0008b52c       ??B?$__crt_unique_heap_ptr@_WU__crt_internal_free_policy@@@@QEBA_NXZ 000000018008c52c f i libucrtd:environment_initialization.obj
 0001:0008b534       ?__crt_compute_required_transform_buffer_count@@YA_KIQEBD@Z 000000018008c534 f i libucrtd:environment_initialization.obj
 0001:0008b558       ?__crt_compute_required_transform_buffer_count@@YA_KIQEB_W@Z 000000018008c558 f i libucrtd:environment_initialization.obj
 0001:0008b588       ?__crt_transform_string@@YA_KIQEBDQEA_W_K@Z 000000018008c588 f i libucrtd:environment_initialization.obj
 0001:0008b5ac       ?__crt_transform_string@@YA_KIQEB_WQEAD_K@Z 000000018008c5ac f i libucrtd:environment_initialization.obj
 0001:0008b5dc       ?detach@?$__crt_unique_heap_ptr@DU__crt_internal_free_policy@@@@QEAAPEADXZ 000000018008c5dc f i libucrtd:environment_initialization.obj
 0001:0008b5e4       ?detach@?$__crt_unique_heap_ptr@_WU__crt_internal_free_policy@@@@QEAAPEA_WXZ 000000018008c5e4 f i libucrtd:environment_initialization.obj
 0001:0008b5ec       ?get@?$__crt_unique_heap_ptr@_WU__crt_internal_free_policy@@@@QEBAPEA_WXZ 000000018008c5ec f i libucrtd:environment_initialization.obj
 0001:0008b620       ?initialize@?$dual_state_global@PEAPEAD@__crt_state_management@@QEAAXQEAPEAD@Z 000000018008c620 f i libucrtd:environment_initialization.obj
 0001:0008b648       ?initialize@?$dual_state_global@PEAPEA_W@__crt_state_management@@QEAAXQEAPEA_W@Z 000000018008c648 f i libucrtd:environment_initialization.obj
 0001:0008b670       ?is_valid@?$__crt_unique_heap_ptr@PEADU__crt_internal_free_policy@@@@QEBA_NXZ 000000018008c670 f i libucrtd:environment_initialization.obj
 0001:0008b678       ?is_valid@?$__crt_unique_heap_ptr@PEA_WU__crt_internal_free_policy@@@@QEBA_NXZ 000000018008c678 f i libucrtd:environment_initialization.obj
 0001:0008b680       ?is_valid@?$__crt_unique_heap_ptr@_WU__crt_internal_free_policy@@@@QEBA_NXZ 000000018008c680 f i libucrtd:environment_initialization.obj
 0001:0008b694       ?release@?$__crt_unique_heap_ptr@_WU__crt_internal_free_policy@@@@QEAAXXZ 000000018008c694 f i libucrtd:environment_initialization.obj
 0001:0008b6b4       ?value@?$dual_state_global@PEAPEAD@__crt_state_management@@QEAAAEAPEAPEADXZ 000000018008c6b4 f i libucrtd:environment_initialization.obj
 0001:0008b6b8       ?value@?$dual_state_global@PEAPEA_W@__crt_state_management@@QEAAAEAPEAPEA_WXZ 000000018008c6b8 f i libucrtd:environment_initialization.obj
 0001:0008b6bc       __dcrt_get_or_create_narrow_environment_nolock 000000018008c6bc f   libucrtd:environment_initialization.obj
 0001:0008b6f8       __dcrt_get_or_create_wide_environment_nolock 000000018008c6f8 f   libucrtd:environment_initialization.obj
 0001:0008b734       __dcrt_uninitialize_environments_nolock 000000018008c734 f   libucrtd:environment_initialization.obj
 0001:0008b76c       __p__environ               000000018008c76c f   libucrtd:environment_initialization.obj
 0001:0008b774       __p__wenviron              000000018008c774 f   libucrtd:environment_initialization.obj
 0001:0008b77c       _get_initial_narrow_environment 000000018008c77c f   libucrtd:environment_initialization.obj
 0001:0008b7cc       _get_initial_wide_environment 000000018008c7cc f   libucrtd:environment_initialization.obj
 0001:0008b81c       _initialize_narrow_environment 000000018008c81c f   libucrtd:environment_initialization.obj
 0001:0008b824       _initialize_wide_environment 000000018008c824 f   libucrtd:environment_initialization.obj
 0001:0008b830       ??$?B$$A6AXXZ@__crt_fast_encoded_nullptr_t@@QEBAP6AXXZXZ 000000018008c830 f i libucrtd:onexit.obj
 0001:0008b850       ??$?BP6AXXZ@__crt_fast_encoded_nullptr_t@@QEBAPEAP6AXXZXZ 000000018008c850 f i libucrtd:onexit.obj
 0001:0008b870       ??$?RP6AXXZ@__crt_internal_free_policy@@QEBAXQEBQ6AXXZ@Z 000000018008c870 f i libucrtd:onexit.obj
 0001:0008b9e0       ??$__crt_fast_decode_pointer@P6AXXZ@@YAP6AXXZQ6AXXZ@Z 000000018008c9e0 f i libucrtd:onexit.obj
 0001:0008ba20       ??$__crt_fast_decode_pointer@PEAP6AXXZ@@YAPEAP6AXXZQEAP6AXXZ@Z 000000018008ca20 f i libucrtd:onexit.obj
 0001:0008ba60       ??$__crt_fast_encode_pointer@P6AHXZ@@YAP6AHXZQ6AHXZ@Z 000000018008ca60 f i libucrtd:onexit.obj
 0001:0008baa0       ??$__crt_fast_encode_pointer@P6AXXZ@@YAP6AXXZQ6AXXZ@Z 000000018008caa0 f i libucrtd:onexit.obj
 0001:0008bae0       ??$__crt_fast_encode_pointer@PEAP6AXXZ@@YAPEAP6AXXZQEAP6AXXZ@Z 000000018008cae0 f i libucrtd:onexit.obj
 0001:0008bbf0       ??0?$__crt_unique_heap_ptr@P6AXXZU__crt_internal_free_policy@@@@QEAA@QEAP6AXXZ@Z 000000018008cbf0 f i libucrtd:onexit.obj
 0001:0008bc10       ??1?$__crt_unique_heap_ptr@P6AXXZU__crt_internal_free_policy@@@@QEAA@XZ 000000018008cc10 f i libucrtd:onexit.obj
 0001:0008bc30       ??1scoped_global_state_reset@__crt_state_management@@QEAA@XZ 000000018008cc30 f i libucrtd:onexit.obj
 0001:0008c200       ?detach@?$__crt_unique_heap_ptr@P6AXXZU__crt_internal_free_policy@@@@QEAAPEAP6AXXZXZ 000000018008d200 f i libucrtd:onexit.obj
 0001:0008c230       ?release@?$__crt_unique_heap_ptr@P6AXXZU__crt_internal_free_policy@@@@QEAAXXZ 000000018008d230 f i libucrtd:onexit.obj
 0001:0008c260       _crt_at_quick_exit         000000018008d260 f   libucrtd:onexit.obj
 0001:0008c280       _crt_atexit                000000018008d280 f   libucrtd:onexit.obj
 0001:0008c2a0       _execute_onexit_table      000000018008d2a0 f   libucrtd:onexit.obj
 0001:0008c2e0       _initialize_onexit_table   000000018008d2e0 f   libucrtd:onexit.obj
 0001:0008c360       _register_onexit_function  000000018008d360 f   libucrtd:onexit.obj
 0001:0008c5d0       ??$?BX@__crt_fast_encoded_nullptr_t@@QEBAPEAXXZ 000000018008d5d0 f i libucrtd:initialization.obj
 0001:0008c5f0       ??$__crt_fast_encode_pointer@PEAX@@YAPEAXQEAX@Z 000000018008d5f0 f i libucrtd:initialization.obj
 0001:0008c6e0       ?initialize@?$dual_state_global@PEAU__crt_locale_data@@@__crt_state_management@@QEAAXQEAU__crt_locale_data@@@Z 000000018008d6e0 f i libucrtd:initialization.obj
 0001:0008c730       __acrt_initialize          000000018008d730 f   libucrtd:initialization.obj
 0001:0008c760       __acrt_thread_attach       000000018008d760 f   libucrtd:initialization.obj
 0001:0008c780       __acrt_thread_detach       000000018008d780 f   libucrtd:initialization.obj
 0001:0008c790       __acrt_uninitialize        000000018008d790 f   libucrtd:initialization.obj
 0001:0008c7c0       __acrt_uninitialize_critical 000000018008d7c0 f   libucrtd:initialization.obj
 0001:0008e7b0       _CrtCheckMemory            000000018008f7b0 f   libucrtd:debug_heap.obj
 0001:0008e940       _CrtDoForAllClientObjects  000000018008f940 f   libucrtd:debug_heap.obj
 0001:0008ea70       _CrtDumpMemoryLeaks        000000018008fa70 f   libucrtd:debug_heap.obj
 0001:0008eb30       _CrtGetAllocHook           000000018008fb30 f   libucrtd:debug_heap.obj
 0001:0008eb40       _CrtGetDumpClient          000000018008fb40 f   libucrtd:debug_heap.obj
 0001:0008eb50       _CrtIsMemoryBlock          000000018008fb50 f   libucrtd:debug_heap.obj
 0001:0008ec90       _CrtIsValidHeapPointer     000000018008fc90 f   libucrtd:debug_heap.obj
 0001:0008ecd0       _CrtIsValidPointer         000000018008fcd0 f   libucrtd:debug_heap.obj
 0001:0008ed10       _CrtMemCheckpoint          000000018008fd10 f   libucrtd:debug_heap.obj
 0001:0008ef90       _CrtMemDifference          000000018008ff90 f   libucrtd:debug_heap.obj
 0001:0008f2f0       _CrtMemDumpAllObjectsSince 00000001800902f0 f   libucrtd:debug_heap.obj
 0001:0008f350       _CrtMemDumpStatistics      0000000180090350 f   libucrtd:debug_heap.obj
 0001:0008f4f0       _CrtReportBlockType        00000001800904f0 f   libucrtd:debug_heap.obj
 0001:0008f520       _CrtSetAllocHook           0000000180090520 f   libucrtd:debug_heap.obj
 0001:0008f550       _CrtSetBreakAlloc          0000000180090550 f   libucrtd:debug_heap.obj
 0001:0008f580       _CrtSetDbgBlockType        0000000180090580 f   libucrtd:debug_heap.obj
 0001:0008f620       _CrtSetDbgFlag             0000000180090620 f   libucrtd:debug_heap.obj
 0001:0008f780       _CrtSetDumpClient          0000000180090780 f   libucrtd:debug_heap.obj
 0001:0008f7b0       __p__crtBreakAlloc         00000001800907b0 f   libucrtd:debug_heap.obj
 0001:0008f7c0       __p__crtDbgFlag            00000001800907c0 f   libucrtd:debug_heap.obj
 0001:0008f7d0       _aligned_free_dbg          00000001800907d0 f   libucrtd:debug_heap.obj
 0001:0008f8c0       _aligned_malloc_dbg        00000001800908c0 f   libucrtd:debug_heap.obj
 0001:0008f900       _aligned_msize_dbg         0000000180090900 f   libucrtd:debug_heap.obj
 0001:0008fad0       _aligned_offset_malloc_dbg 0000000180090ad0 f   libucrtd:debug_heap.obj
 0001:0008fdc0       _aligned_offset_realloc_dbg 0000000180090dc0 f   libucrtd:debug_heap.obj
 0001:00090270       _aligned_offset_recalloc_dbg 0000000180091270 f   libucrtd:debug_heap.obj
 0001:00090390       _aligned_realloc_dbg       0000000180091390 f   libucrtd:debug_heap.obj
 0001:000903e0       _aligned_recalloc_dbg      00000001800913e0 f   libucrtd:debug_heap.obj
 0001:00090440       _calloc_dbg                0000000180091440 f   libucrtd:debug_heap.obj
 0001:000904e0       _expand_dbg                00000001800914e0 f   libucrtd:debug_heap.obj
 0001:00090610       _free_dbg                  0000000180091610 f   libucrtd:debug_heap.obj
 0001:00090680       _malloc_dbg                0000000180091680 f   libucrtd:debug_heap.obj
 0001:000906c0       _msize_dbg                 00000001800916c0 f   libucrtd:debug_heap.obj
 0001:00090860       _realloc_dbg               0000000180091860 f   libucrtd:debug_heap.obj
 0001:000908d0       _recalloc_dbg              00000001800918d0 f   libucrtd:debug_heap.obj
 0001:000909d0       _initterm                  00000001800919d0 f   libucrtd:initterm.obj
 0001:00090a30       _initterm_e                0000000180091a30 f   libucrtd:initterm.obj
 0001:00090f80       strcpy_s                   0000000180091f80 f   libucrtd:strcpy_s.obj
 0001:00091620       strcat_s                   0000000180092620 f   libucrtd:strcat_s.obj
 0001:00091650       ??$?B$$A6AH_K@Z@__crt_fast_encoded_nullptr_t@@QEBAP6AH_K@ZXZ 0000000180092650 f i libucrtd:new_handler.obj
 0001:00091670       ??$__crt_fast_decode_pointer@P6AH_K@Z@@YAP6AH_K@ZQ6AH0@Z@Z 0000000180092670 f i libucrtd:new_handler.obj
 0001:000916b0       ??$__crt_fast_encode_pointer@P6AH_K@Z@@YAP6AH_K@ZQ6AH0@Z@Z 00000001800926b0 f i libucrtd:new_handler.obj
 0001:000916f0       ?_set_new_handler@@YAP6AH_K@ZH@Z 00000001800926f0 f   libucrtd:new_handler.obj
 0001:00091760       ?initialize@?$dual_state_global@P6AH_K@Z@__crt_state_management@@QEAAXQ6AH_K@Z@Z 0000000180092760 f i libucrtd:new_handler.obj
 0001:000917b0       ?value@?$dual_state_global@P6AH_K@Z@__crt_state_management@@QEAAAEAP6AH_K@ZXZ 00000001800927b0 f i libucrtd:new_handler.obj
 0001:000917d0       __acrt_initialize_new_handler 00000001800927d0 f   libucrtd:new_handler.obj
 0001:000917f0       _callnewh                  00000001800927f0 f   libucrtd:new_handler.obj
 0001:00091840       _query_new_handler         0000000180092840 f   libucrtd:new_handler.obj
 0001:00091880       _set_new_handler           0000000180092880 f   libucrtd:new_handler.obj
 0001:00091930       _get_terminate             0000000180092930 f   libucrtd:terminate.obj
 0001:00091950       set_terminate              0000000180092950 f   libucrtd:terminate.obj
 0001:00091990       terminate                  0000000180092990 f   libucrtd:terminate.obj
 0001:00092790       _makepath                  0000000180093790 f   libucrtd:makepath.obj
 0001:000927e0       _makepath_s                00000001800937e0 f   libucrtd:makepath.obj
 0001:00092830       _wmakepath                 0000000180093830 f   libucrtd:makepath.obj
 0001:00092880       _wmakepath_s               0000000180093880 f   libucrtd:makepath.obj
 0001:00094eb0       ??$tcsncpy_s@AEAPEAD_KAEAPEBDAEB_K@?$__crt_char_traits@D@@SAHAEAPEAD$$QEA_KAEAPEBDAEB_K@Z 0000000180095eb0 f i libucrtd:splitpath.obj
 0001:00094f00       ??$tcsncpy_s@AEAPEAD_KAEAPEBDH@?$__crt_char_traits@D@@SAHAEAPEAD$$QEA_KAEAPEBD$$QEAH@Z 0000000180095f00 f i libucrtd:splitpath.obj
 0001:00094f50       ??$tcsncpy_s@AEAPEA_W_KAEAPEB_WAEB_K@?$__crt_char_traits@_W@@SAHAEAPEA_W$$QEA_KAEAPEB_WAEB_K@Z 0000000180095f50 f i libucrtd:splitpath.obj
 0001:00094fa0       ??$tcsncpy_s@AEAPEA_W_KAEAPEB_WH@?$__crt_char_traits@_W@@SAHAEAPEA_W$$QEA_KAEAPEB_W$$QEAH@Z 0000000180095fa0 f i libucrtd:splitpath.obj
 0001:00095250       _splitpath                 0000000180096250 f   libucrtd:splitpath.obj
 0001:00095290       _splitpath_s               0000000180096290 f   libucrtd:splitpath.obj
 0001:00095330       _wsplitpath                0000000180096330 f   libucrtd:splitpath.obj
 0001:00095370       _wsplitpath_s              0000000180096370 f   libucrtd:splitpath.obj
 0001:00095410       _set_abort_behavior        0000000180096410 f   libucrtd:abort.obj
 0001:00095450       abort                      0000000180096450 f   libucrtd:abort.obj
 0001:000954e0       strcmp                     00000001800964e0 f   libucrtd:strcmp.obj
 0001:00095560       strlen                     0000000180096560 f   libucrtd:strlen.obj
 0001:00095610       ??$is_overflow_condition@K@__crt_strtox@@YA_NIK@Z 0000000180096610 f i libucrtd:atox.obj
 0001:00095680       ??$is_overflow_condition@_K@__crt_strtox@@YA_NI_K@Z 0000000180096680 f i libucrtd:atox.obj
 0001:000956f0       ??$make_c_string_character_source@D$$T@__crt_strtox@@YA?AV?$c_string_character_source@D@0@QEBD$$T@Z 00000001800966f0 f i libucrtd:atox.obj
 0001:00095730       ??$make_c_string_character_source@_W$$T@__crt_strtox@@YA?AV?$c_string_character_source@_W@0@QEB_W$$T@Z 0000000180096730 f i libucrtd:atox.obj
 0001:00095770       ??$parse_integer@KV?$c_string_character_source@D@__crt_strtox@@@__crt_strtox@@YAKQEAU__crt_locale_pointers@@V?$c_string_character_source@D@0@H_N@Z 0000000180096770 f i libucrtd:atox.obj
 0001:00095c00       ??$parse_integer@KV?$c_string_character_source@_W@__crt_strtox@@@__crt_strtox@@YAKQEAU__crt_locale_pointers@@V?$c_string_character_source@_W@0@H_N@Z 0000000180096c00 f i libucrtd:atox.obj
 0001:000960b0       ??$parse_integer@_KV?$c_string_character_source@D@__crt_strtox@@@__crt_strtox@@YA_KQEAU__crt_locale_pointers@@V?$c_string_character_source@D@0@H_N@Z 00000001800970b0 f i libucrtd:atox.obj
 0001:000965d0       ??$parse_integer@_KV?$c_string_character_source@_W@__crt_strtox@@@__crt_strtox@@YA_KQEAU__crt_locale_pointers@@V?$c_string_character_source@_W@0@H_N@Z 00000001800975d0 f i libucrtd:atox.obj
 0001:00096af0       ??$parse_integer_from_string@JD$$T@__crt_strtox@@YAJQEBD$$THQEAU__crt_locale_pointers@@@Z 0000000180097af0 f i libucrtd:atox.obj
 0001:00096b40       ??$parse_integer_from_string@J_W$$T@__crt_strtox@@YAJQEB_W$$THQEAU__crt_locale_pointers@@@Z 0000000180097b40 f i libucrtd:atox.obj
 0001:00096b90       ??$parse_integer_from_string@_JD$$T@__crt_strtox@@YA_JQEBD$$THQEAU__crt_locale_pointers@@@Z 0000000180097b90 f i libucrtd:atox.obj
 0001:00096be0       ??$parse_integer_from_string@_J_W$$T@__crt_strtox@@YA_JQEB_W$$THQEAU__crt_locale_pointers@@@Z 0000000180097be0 f i libucrtd:atox.obj
 0001:00096c30       ??0?$c_string_character_source@D@__crt_strtox@@QEAA@QEBDQEAPEBD@Z 0000000180097c30 f i libucrtd:atox.obj
 0001:00096c80       ??0?$c_string_character_source@_W@__crt_strtox@@QEAA@QEB_WQEAPEB_W@Z 0000000180097c80 f i libucrtd:atox.obj
 0001:00096cd0       ??1?$c_string_character_source@D@__crt_strtox@@QEAA@XZ 0000000180097cd0 f i libucrtd:atox.obj
 0001:00096d00       ??1?$c_string_character_source@_W@__crt_strtox@@QEAA@XZ 0000000180097d00 f i libucrtd:atox.obj
 0001:00096d30       ?get@?$c_string_character_source@D@__crt_strtox@@QEAADXZ 0000000180097d30 f i libucrtd:atox.obj
 0001:00096d70       ?get@?$c_string_character_source@_W@__crt_strtox@@QEAA_WXZ 0000000180097d70 f i libucrtd:atox.obj
 0001:00096db0       ?is_space@__crt_strtox@@YA_NDQEAU__crt_locale_pointers@@@Z 0000000180097db0 f i libucrtd:atox.obj
 0001:00096e00       ?is_space@__crt_strtox@@YA_N_WPEAU__crt_locale_pointers@@@Z 0000000180097e00 f i libucrtd:atox.obj
 0001:00096e40       ?maximum_signed_value@__crt_strtox@@YAJK@Z 0000000180097e40 f i libucrtd:atox.obj
 0001:00096e50       ?maximum_signed_value@__crt_strtox@@YA_J_K@Z 0000000180097e50 f i libucrtd:atox.obj
 0001:00096e60       ?minimum_signed_value@__crt_strtox@@YAJK@Z 0000000180097e60 f i libucrtd:atox.obj
 0001:00096e70       ?minimum_signed_value@__crt_strtox@@YA_J_K@Z 0000000180097e70 f i libucrtd:atox.obj
 0001:00096e80       ?parse_digit@__crt_strtox@@YAID@Z 0000000180097e80 f i libucrtd:atox.obj
 0001:00096ef0       ?parse_digit@__crt_strtox@@YAI_W@Z 0000000180097ef0 f i libucrtd:atox.obj
 0001:00096f40       ?restore_state@?$c_string_character_source@D@__crt_strtox@@QEAA_NQEBD@Z 0000000180097f40 f i libucrtd:atox.obj
 0001:00096f60       ?restore_state@?$c_string_character_source@_W@__crt_strtox@@QEAA_NQEB_W@Z 0000000180097f60 f i libucrtd:atox.obj
 0001:00096f80       ?save_state@?$c_string_character_source@D@__crt_strtox@@QEBAPEBDXZ 0000000180097f80 f i libucrtd:atox.obj
 0001:00096f90       ?save_state@?$c_string_character_source@_W@__crt_strtox@@QEBAPEB_WXZ 0000000180097f90 f i libucrtd:atox.obj
 0001:00096fa0       ?unget@?$c_string_character_source@D@__crt_strtox@@QEAAXD@Z 0000000180097fa0 f i libucrtd:atox.obj
 0001:00097080       ?unget@?$c_string_character_source@_W@__crt_strtox@@QEAAX_W@Z 0000000180098080 f i libucrtd:atox.obj
 0001:00097160       ?validate@?$c_string_character_source@D@__crt_strtox@@QEBA_NXZ 0000000180098160 f i libucrtd:atox.obj
 0001:00097220       ?validate@?$c_string_character_source@_W@__crt_strtox@@QEBA_NXZ 0000000180098220 f i libucrtd:atox.obj
 0001:000972e0       ?wide_character_to_digit@__crt_strtox@@YAH_W@Z 00000001800982e0 f i libucrtd:atox.obj
 0001:00097650       __ascii_iswalpha           0000000180098650 f i libucrtd:atox.obj
 0001:00097690       __ascii_toupper            0000000180098690 f i libucrtd:atox.obj
 0001:000976b0       __ascii_towupper           00000001800986b0 f i libucrtd:atox.obj
 0001:000976d0       _atoi64                    00000001800986d0 f   libucrtd:atox.obj
 0001:00097700       _atoi64_l                  0000000180098700 f   libucrtd:atox.obj
 0001:00097730       _atoi_l                    0000000180098730 f   libucrtd:atox.obj
 0001:00097760       _atol_l                    0000000180098760 f   libucrtd:atox.obj
 0001:00097790       _atoll_l                   0000000180098790 f   libucrtd:atox.obj
 0001:000977c0       _wtoi                      00000001800987c0 f   libucrtd:atox.obj
 0001:000977f0       _wtoi64                    00000001800987f0 f   libucrtd:atox.obj
 0001:00097820       _wtoi64_l                  0000000180098820 f   libucrtd:atox.obj
 0001:00097850       _wtoi_l                    0000000180098850 f   libucrtd:atox.obj
 0001:00097880       _wtol                      0000000180098880 f   libucrtd:atox.obj
 0001:000978b0       _wtol_l                    00000001800988b0 f   libucrtd:atox.obj
 0001:000978e0       _wtoll                     00000001800988e0 f   libucrtd:atox.obj
 0001:00097910       _wtoll_l                   0000000180098910 f   libucrtd:atox.obj
 0001:00097940       atoi                       0000000180098940 f   libucrtd:atox.obj
 0001:00097970       atol                       0000000180098970 f   libucrtd:atox.obj
 0001:000979a0       atoll                      00000001800989a0 f   libucrtd:atox.obj
 0001:000979e0       strncmp                    00000001800989e0 f   libucrtd:strncmp.obj
 0001:00097a60       wcsncmp                    0000000180098a60 f   libucrtd:wcsncmp.obj
 0001:00097af0       _CrtGetDebugFillThreshold  0000000180098af0 f   libucrtd:debug_fill_threshold.obj
 0001:00097b00       _CrtSetDebugFillThreshold  0000000180098b00 f   libucrtd:debug_fill_threshold.obj
 0001:00097b30       ??$make_c_string_character_source@DPEAPEAD@__crt_strtox@@YA?AV?$c_string_character_source@D@0@QEBDQEAPEAD@Z 0000000180098b30 f i libucrtd:strtox.obj
 0001:00097b70       ??$make_c_string_character_source@_WPEAPEA_W@__crt_strtox@@YA?AV?$c_string_character_source@_W@0@QEB_WQEAPEA_W@Z 0000000180098b70 f i libucrtd:strtox.obj
 0001:00097bb0       ??$parse_integer_from_string@JDPEAPEAD@__crt_strtox@@YAJQEBDQEAPEADHQEAU__crt_locale_pointers@@@Z 0000000180098bb0 f i libucrtd:strtox.obj
 0001:00097c00       ??$parse_integer_from_string@J_WPEAPEA_W@__crt_strtox@@YAJQEB_WQEAPEA_WHQEAU__crt_locale_pointers@@@Z 0000000180098c00 f i libucrtd:strtox.obj
 0001:00097c50       ??$parse_integer_from_string@KDPEAPEAD@__crt_strtox@@YAKQEBDQEAPEADHQEAU__crt_locale_pointers@@@Z 0000000180098c50 f i libucrtd:strtox.obj
 0001:00097ca0       ??$parse_integer_from_string@K_WPEAPEA_W@__crt_strtox@@YAKQEB_WQEAPEA_WHQEAU__crt_locale_pointers@@@Z 0000000180098ca0 f i libucrtd:strtox.obj
 0001:00097cf0       ??$parse_integer_from_string@_JDPEAPEAD@__crt_strtox@@YA_JQEBDQEAPEADHQEAU__crt_locale_pointers@@@Z 0000000180098cf0 f i libucrtd:strtox.obj
 0001:00097d40       ??$parse_integer_from_string@_J_WPEAPEA_W@__crt_strtox@@YA_JQEB_WQEAPEA_WHQEAU__crt_locale_pointers@@@Z 0000000180098d40 f i libucrtd:strtox.obj
 0001:00097d90       ??$parse_integer_from_string@_KDPEAPEAD@__crt_strtox@@YA_KQEBDQEAPEADHQEAU__crt_locale_pointers@@@Z 0000000180098d90 f i libucrtd:strtox.obj
 0001:00097de0       ??$parse_integer_from_string@_K_WPEAPEA_W@__crt_strtox@@YA_KQEB_WQEAPEA_WHQEAU__crt_locale_pointers@@@Z 0000000180098de0 f i libucrtd:strtox.obj
 0001:00097e30       _strtoi64                  0000000180098e30 f   libucrtd:strtox.obj
 0001:00097e60       _strtoi64_l                0000000180098e60 f   libucrtd:strtox.obj
 0001:00097ea0       _strtoimax_l               0000000180098ea0 f   libucrtd:strtox.obj
 0001:00097ee0       _strtol_l                  0000000180098ee0 f   libucrtd:strtox.obj
 0001:00097f20       _strtoll_l                 0000000180098f20 f   libucrtd:strtox.obj
 0001:00097f60       _strtoui64                 0000000180098f60 f   libucrtd:strtox.obj
 0001:00097f90       _strtoui64_l               0000000180098f90 f   libucrtd:strtox.obj
 0001:00097fd0       _strtoul_l                 0000000180098fd0 f   libucrtd:strtox.obj
 0001:00098010       _strtoull_l                0000000180099010 f   libucrtd:strtox.obj
 0001:00098050       _strtoumax_l               0000000180099050 f   libucrtd:strtox.obj
 0001:00098090       _wcstoi64                  0000000180099090 f   libucrtd:strtox.obj
 0001:000980c0       _wcstoi64_l                00000001800990c0 f   libucrtd:strtox.obj
 0001:00098100       _wcstoimax_l               0000000180099100 f   libucrtd:strtox.obj
 0001:00098140       _wcstol_l                  0000000180099140 f   libucrtd:strtox.obj
 0001:00098180       _wcstoll_l                 0000000180099180 f   libucrtd:strtox.obj
 0001:000981c0       _wcstoui64                 00000001800991c0 f   libucrtd:strtox.obj
 0001:000981f0       _wcstoui64_l               00000001800991f0 f   libucrtd:strtox.obj
 0001:00098230       _wcstoul_l                 0000000180099230 f   libucrtd:strtox.obj
 0001:00098270       _wcstoull_l                0000000180099270 f   libucrtd:strtox.obj
 0001:000982b0       _wcstoumax_l               00000001800992b0 f   libucrtd:strtox.obj
 0001:000982f0       strtoimax                  00000001800992f0 f   libucrtd:strtox.obj
 0001:00098320       strtol                     0000000180099320 f   libucrtd:strtox.obj
 0001:00098350       strtoll                    0000000180099350 f   libucrtd:strtox.obj
 0001:00098380       strtoul                    0000000180099380 f   libucrtd:strtox.obj
 0001:000983b0       strtoull                   00000001800993b0 f   libucrtd:strtox.obj
 0001:000983e0       strtoumax                  00000001800993e0 f   libucrtd:strtox.obj
 0001:00098410       wcstoimax                  0000000180099410 f   libucrtd:strtox.obj
 0001:00098440       wcstol                     0000000180099440 f   libucrtd:strtox.obj
 0001:00098470       wcstoll                    0000000180099470 f   libucrtd:strtox.obj
 0001:000984a0       wcstoul                    00000001800994a0 f   libucrtd:strtox.obj
 0001:000984d0       wcstoull                   00000001800994d0 f   libucrtd:strtox.obj
 0001:00098500       wcstoumax                  0000000180099500 f   libucrtd:strtox.obj
 0001:00098530       _mbtowc_l                  0000000180099530 f   libucrtd:mbtowc.obj
 0001:00098990       mbtowc                     0000000180099990 f   libucrtd:mbtowc.obj
 0001:000989c0       _wctomb_l                  00000001800999c0 f   libucrtd:wctomb.obj
 0001:00098a80       _wctomb_s_l                0000000180099a80 f   libucrtd:wctomb.obj
 0001:00099000       wctomb                     000000018009a000 f   libucrtd:wctomb.obj
 0001:00099060       wctomb_s                   000000018009a060 f   libucrtd:wctomb.obj
 0001:000990b0       ??$?RU__acrt_ptd@@@__crt_internal_free_policy@@QEBAXQEBU__acrt_ptd@@@Z 000000018009a0b0 f i libucrtd:per_thread_data.obj
 0001:000994b0       ??0?$__crt_unique_heap_ptr@U__acrt_ptd@@U__crt_internal_free_policy@@@@QEAA@QEAU__acrt_ptd@@@Z 000000018009a4b0 f i libucrtd:per_thread_data.obj
 0001:000994d0       ??0__crt_scoped_get_last_error_reset@@QEAA@XZ 000000018009a4d0 f i libucrtd:per_thread_data.obj
 0001:000994f0       ??1?$__crt_unique_heap_ptr@U__acrt_ptd@@U__crt_internal_free_policy@@@@QEAA@XZ 000000018009a4f0 f i libucrtd:per_thread_data.obj
 0001:00099510       ??1__crt_scoped_get_last_error_reset@@QEAA@XZ 000000018009a510 f i libucrtd:per_thread_data.obj
 0001:00099530       ??B?$__crt_unique_heap_ptr@U__acrt_ptd@@U__crt_internal_free_policy@@@@QEBA_NXZ 000000018009a530 f i libucrtd:per_thread_data.obj
 0001:00099880       ?dangerous_get_state_array@?$dual_state_global@PEAU__crt_locale_data@@@__crt_state_management@@QEAAPEAPEAU__crt_locale_data@@XZ 000000018009a880 f i libucrtd:per_thread_data.obj
 0001:00099a40       ?detach@?$__crt_unique_heap_ptr@U__acrt_ptd@@U__crt_internal_free_policy@@@@QEAAPEAU__acrt_ptd@@XZ 000000018009aa40 f i libucrtd:per_thread_data.obj
 0001:00099a70       ?get@?$__crt_unique_heap_ptr@U__acrt_ptd@@U__crt_internal_free_policy@@@@QEBAPEAU__acrt_ptd@@XZ 000000018009aa70 f i libucrtd:per_thread_data.obj
 0001:00099a80       ?get_current_state_index@__crt_state_management@@YA_KAEBV__crt_scoped_get_last_error_reset@@@Z 000000018009aa80 f i libucrtd:per_thread_data.obj
 0001:00099c30       ?is_valid@?$__crt_unique_heap_ptr@U__acrt_ptd@@U__crt_internal_free_policy@@@@QEBA_NXZ 000000018009ac30 f i libucrtd:per_thread_data.obj
 0001:00099c60       ?release@?$__crt_unique_heap_ptr@U__acrt_ptd@@U__crt_internal_free_policy@@@@QEAAXXZ 000000018009ac60 f i libucrtd:per_thread_data.obj
 0001:00099d90       ?value@?$dual_state_global@PEAU__crt_locale_data@@@__crt_state_management@@QEAAAEAPEAU__crt_locale_data@@XZ 000000018009ad90 f i libucrtd:per_thread_data.obj
 0001:00099db0       __acrt_freeptd             000000018009adb0 f   libucrtd:per_thread_data.obj
 0001:00099df0       __acrt_getptd              000000018009adf0 f   libucrtd:per_thread_data.obj
 0001:00099e20       __acrt_getptd_head         000000018009ae20 f   libucrtd:per_thread_data.obj
 0001:00099e50       __acrt_getptd_noexit       000000018009ae50 f   libucrtd:per_thread_data.obj
 0001:00099e60       __acrt_initialize_ptd      000000018009ae60 f   libucrtd:per_thread_data.obj
 0001:00099ea0       __acrt_uninitialize_ptd    000000018009aea0 f   libucrtd:per_thread_data.obj
 0001:00099ed0       __threadhandle             000000018009aed0 f   libucrtd:per_thread_data.obj
 0001:00099ee0       __threadid                 000000018009aee0 f   libucrtd:per_thread_data.obj
 0001:00099ef0       ?value@?$dual_state_global@PEAU__crt_multibyte_data@@@__crt_state_management@@QEAAAEAPEAU__crt_multibyte_data@@XZ 000000018009aef0 f i libucrtd:locale_update.obj
 0001:00099f10       __acrt_update_locale_info  000000018009af10 f   libucrtd:locale_update.obj
 0001:00099f60       __acrt_update_multibyte_info 000000018009af60 f   libucrtd:locale_update.obj
 0001:00099fb0       ?__acrt_fp_classify@@YA?AW4__acrt_fp_class@@AEBN@Z 000000018009afb0 f i libucrtd:cvt.obj
 0001:0009a0b0       ?__acrt_fp_is_negative@@YA_NAEBN@Z 000000018009b0b0 f i libucrtd:cvt.obj
 0001:0009b760       ?strrchr@@YAPEADQEADH@Z    000000018009c760 f i libucrtd:cvt.obj
 0001:0009b780       __acrt_fp_format           000000018009c780 f   libucrtd:cvt.obj
 0001:0009bdf0       _fputwc_nolock             000000018009cdf0 f   libucrtd:fputwc.obj
 0001:0009c060       _fputwchar                 000000018009d060 f   libucrtd:fputwc.obj
 0001:0009c090       _putwc_nolock              000000018009d090 f   libucrtd:fputwc.obj
 0001:0009c0c0       fputwc                     000000018009d0c0 f   libucrtd:fputwc.obj
 0001:0009c1b0       putwc                      000000018009d1b0 f   libucrtd:fputwc.obj
 0001:0009c1e0       putwchar                   000000018009d1e0 f   libucrtd:fputwc.obj
 0001:0009c200       ?lowio_handle@__crt_stdio_stream@@QEBAHXZ 000000018009d200 f i libucrtd:fileno.obj
 0001:0009c230       _fileno                    000000018009d230 f   libucrtd:fileno.obj
 0001:0009c310       ??$?RPEAU__crt_stdio_stream_data@@@__crt_internal_free_policy@@QEBAXQEBQEAU__crt_stdio_stream_data@@@Z 000000018009d310 f i libucrtd:_file.obj
 0001:0009c340       ??0?$__crt_unique_heap_ptr@PEAU__crt_stdio_stream_data@@U__crt_internal_free_policy@@@@QEAA@QEAPEAU__crt_stdio_stream_data@@@Z 000000018009d340 f i libucrtd:_file.obj
 0001:0009c360       ??1?$__crt_unique_heap_ptr@PEAU__crt_stdio_stream_data@@U__crt_internal_free_policy@@@@QEAA@XZ 000000018009d360 f i libucrtd:_file.obj
 0001:0009c380       ?detach@?$__crt_unique_heap_ptr@PEAU__crt_stdio_stream_data@@U__crt_internal_free_policy@@@@QEAAPEAPEAU__crt_stdio_stream_data@@XZ 000000018009d380 f i libucrtd:_file.obj
 0001:0009c3b0       ?release@?$__crt_unique_heap_ptr@PEAU__crt_stdio_stream_data@@U__crt_internal_free_policy@@@@QEAAXXZ 000000018009d3b0 f i libucrtd:_file.obj
 0001:0009c3e0       __acrt_initialize_stdio    000000018009d3e0 f   libucrtd:_file.obj
 0001:0009c5d0       __acrt_iob_func            000000018009d5d0 f   libucrtd:_file.obj
 0001:0009c5f0       __acrt_uninitialize_stdio  000000018009d5f0 f   libucrtd:_file.obj
 0001:0009c680       _get_stream_buffer_pointers 000000018009d680 f   libucrtd:_file.obj
 0001:0009c7b0       _lock_file                 000000018009d7b0 f   libucrtd:_file.obj
 0001:0009c7f0       _unlock_file               000000018009d7f0 f   libucrtd:_file.obj
 0001:0009c830       _get_printf_count_output   000000018009d830 f   libucrtd:printf_count_output.obj
 0001:0009c860       _set_printf_count_output   000000018009d860 f   libucrtd:printf_count_output.obj
 0001:0009c8d0       ?has_any_buffer@__crt_stdio_stream@@QEBA_NXZ 000000018009d8d0 f i libucrtd:_sftbuf.obj
 0001:0009c8f0       ?has_any_of@__crt_stdio_stream@@QEBA_NJ@Z 000000018009d8f0 f i libucrtd:_sftbuf.obj
 0001:0009c930       ?has_temporary_buffer@__crt_stdio_stream@@QEBA_NXZ 000000018009d930 f i libucrtd:_sftbuf.obj
 0001:0009c950       ?set_flags@__crt_stdio_stream@@QEBA_NJ@Z 000000018009d950 f i libucrtd:_sftbuf.obj
 0001:0009c9c0       ?unset_flags@__crt_stdio_stream@@QEBA_NJ@Z 000000018009d9c0 f i libucrtd:_sftbuf.obj
 0001:0009ca20       __acrt_stdio_begin_temporary_buffering_nolock 000000018009da20 f   libucrtd:_sftbuf.obj
 0001:0009cc60       __acrt_stdio_end_temporary_buffering_nolock 000000018009dc60 f   libucrtd:_sftbuf.obj
 0001:0009cd10       ??$?RU__crt_locale_data@@@__crt_internal_free_policy@@QEBAXQEBU__crt_locale_data@@@Z 000000018009dd10 f i libucrtd:wsetlocale.obj
 0001:0009cd40       ??$?RU__crt_locale_pointers@@@__crt_internal_free_policy@@QEBAXQEBU__crt_locale_pointers@@@Z 000000018009dd40 f i libucrtd:wsetlocale.obj
 0001:0009cd70       ??$?RU__crt_multibyte_data@@@__crt_internal_free_policy@@QEBAXQEBU__crt_multibyte_data@@@Z 000000018009dd70 f i libucrtd:wsetlocale.obj
 0001:0009d2d0       ??0?$__crt_unique_heap_ptr@U__crt_locale_data@@U__crt_internal_free_policy@@@@QEAA@QEAU__crt_locale_data@@@Z 000000018009e2d0 f i libucrtd:wsetlocale.obj
 0001:0009d2f0       ??0?$__crt_unique_heap_ptr@U__crt_locale_pointers@@U__crt_internal_free_policy@@@@QEAA@QEAU__crt_locale_pointers@@@Z 000000018009e2f0 f i libucrtd:wsetlocale.obj
 0001:0009d310       ??0?$__crt_unique_heap_ptr@U__crt_multibyte_data@@U__crt_internal_free_policy@@@@QEAA@QEAU__crt_multibyte_data@@@Z 000000018009e310 f i libucrtd:wsetlocale.obj
 0001:0009d330       ??0_expandlocale_locale_name_cache@@QEAA@QEA_W_KQEAU__crt_qualified_locale_data@@@Z 000000018009e330 f i libucrtd:wsetlocale.obj
 0001:0009d3e0       ??1?$__crt_unique_heap_ptr@U__crt_locale_data@@U__crt_internal_free_policy@@@@QEAA@XZ 000000018009e3e0 f i libucrtd:wsetlocale.obj
 0001:0009d400       ??1?$__crt_unique_heap_ptr@U__crt_locale_pointers@@U__crt_internal_free_policy@@@@QEAA@XZ 000000018009e400 f i libucrtd:wsetlocale.obj
 0001:0009d420       ??1?$__crt_unique_heap_ptr@U__crt_multibyte_data@@U__crt_internal_free_policy@@@@QEAA@XZ 000000018009e420 f i libucrtd:wsetlocale.obj
 0001:0009d440       ??1_expandlocale_locale_name_cache@@QEAA@XZ 000000018009e440 f i libucrtd:wsetlocale.obj
 0001:0009d4c0       ??B?$__crt_unique_heap_ptr@U__crt_locale_data@@U__crt_internal_free_policy@@@@QEBA_NXZ 000000018009e4c0 f i libucrtd:wsetlocale.obj
 0001:0009d4e0       ??B?$__crt_unique_heap_ptr@U__crt_locale_pointers@@U__crt_internal_free_policy@@@@QEBA_NXZ 000000018009e4e0 f i libucrtd:wsetlocale.obj
 0001:0009d500       ??B?$__crt_unique_heap_ptr@U__crt_multibyte_data@@U__crt_internal_free_policy@@@@QEBA_NXZ 000000018009e500 f i libucrtd:wsetlocale.obj
 0001:0009d9b0       ?commit_locale_name@_expandlocale_locale_name_cache@@QEAAXQEB_W_K@Z 000000018009e9b0 f i libucrtd:wsetlocale.obj
 0001:0009da30       ?commit_locale_name_cache_already_updated@_expandlocale_locale_name_cache@@QEAAXQEB_W_K@Z 000000018009ea30 f i libucrtd:wsetlocale.obj
 0001:0009daa0       ?detach@?$__crt_unique_heap_ptr@U__crt_locale_data@@U__crt_internal_free_policy@@@@QEAAPEAU__crt_locale_data@@XZ 000000018009eaa0 f i libucrtd:wsetlocale.obj
 0001:0009dad0       ?detach@?$__crt_unique_heap_ptr@U__crt_locale_pointers@@U__crt_internal_free_policy@@@@QEAAPEAU__crt_locale_pointers@@XZ 000000018009ead0 f i libucrtd:wsetlocale.obj
 0001:0009db00       ?detach@?$__crt_unique_heap_ptr@U__crt_multibyte_data@@U__crt_internal_free_policy@@@@QEAAPEAU__crt_multibyte_data@@XZ 000000018009eb00 f i libucrtd:wsetlocale.obj
 0001:0009db30       ?get@?$__crt_unique_heap_ptr@U__crt_locale_data@@U__crt_internal_free_policy@@@@QEBAPEAU__crt_locale_data@@XZ 000000018009eb30 f i libucrtd:wsetlocale.obj
 0001:0009db40       ?get@?$__crt_unique_heap_ptr@U__crt_locale_pointers@@U__crt_internal_free_policy@@@@QEBAPEAU__crt_locale_pointers@@XZ 000000018009eb40 f i libucrtd:wsetlocale.obj
 0001:0009db50       ?get@?$__crt_unique_heap_ptr@U__crt_multibyte_data@@U__crt_internal_free_policy@@@@QEBAPEAU__crt_multibyte_data@@XZ 000000018009eb50 f i libucrtd:wsetlocale.obj
 0001:0009db60       ?is_valid@?$__crt_unique_heap_ptr@U__crt_locale_data@@U__crt_internal_free_policy@@@@QEBA_NXZ 000000018009eb60 f i libucrtd:wsetlocale.obj
 0001:0009db90       ?is_valid@?$__crt_unique_heap_ptr@U__crt_locale_pointers@@U__crt_internal_free_policy@@@@QEBA_NXZ 000000018009eb90 f i libucrtd:wsetlocale.obj
 0001:0009dbc0       ?is_valid@?$__crt_unique_heap_ptr@U__crt_multibyte_data@@U__crt_internal_free_policy@@@@QEBA_NXZ 000000018009ebc0 f i libucrtd:wsetlocale.obj
 0001:0009dbf0       ?release@?$__crt_unique_heap_ptr@U__crt_locale_data@@U__crt_internal_free_policy@@@@QEAAXXZ 000000018009ebf0 f i libucrtd:wsetlocale.obj
 0001:0009dc20       ?release@?$__crt_unique_heap_ptr@U__crt_locale_pointers@@U__crt_internal_free_policy@@@@QEAAXXZ 000000018009ec20 f i libucrtd:wsetlocale.obj
 0001:0009dc50       ?release@?$__crt_unique_heap_ptr@U__crt_multibyte_data@@U__crt_internal_free_policy@@@@QEAAXXZ 000000018009ec50 f i libucrtd:wsetlocale.obj
 0001:0009dc80       __acrt_copy_locale_name    000000018009ec80 f   libucrtd:wsetlocale.obj
 0001:0009dd50       __acrt_set_locale_changed  000000018009ed50 f   libucrtd:wsetlocale.obj
 0001:0009dd60       __acrt_uninitialize_locale 000000018009ed60 f   libucrtd:wsetlocale.obj
 0001:0009dd90       __ascii_tolower            000000018009ed90 f i libucrtd:wsetlocale.obj
 0001:0009ddb0       __ascii_towlower           000000018009edb0 f i libucrtd:wsetlocale.obj
 0001:0009ddd0       __lc_lctowcs               000000018009edd0 f   libucrtd:wsetlocale.obj
 0001:0009dec0       __lc_wcstolc               000000018009eec0 f   libucrtd:wsetlocale.obj
 0001:0009e180       _configthreadlocale        000000018009f180 f   libucrtd:wsetlocale.obj
 0001:0009e340       _create_locale             000000018009f340 f   libucrtd:wsetlocale.obj
 0001:0009ea40       _free_locale               000000018009fa40 f   libucrtd:wsetlocale.obj
 0001:0009eb30       _get_current_locale        000000018009fb30 f   libucrtd:wsetlocale.obj
 0001:0009ec40       _wcreate_locale            000000018009fc40 f   libucrtd:wsetlocale.obj
 0001:0009ef30       _wcscats                   000000018009ff30 f   libucrtd:wsetlocale.obj
 0001:0009f010       _wsetlocale                00000001800a0010 f   libucrtd:wsetlocale.obj
 0001:000a0c30       __p___mb_cur_max           00000001800a1c30 f   libucrtd:nlsdata.obj
 0001:000a1010       __acrt_initialize_lowio    00000001800a2010 f   libucrtd:ioinit.obj
 0001:000a1060       __acrt_uninitialize_lowio  00000001800a2060 f   libucrtd:ioinit.obj
 0001:000a10e0       _CrtGetReportHook          00000001800a20e0 f   libucrtd:dbgrptt.obj
 0001:000a10f0       _CrtSetReportFile          00000001800a20f0 f   libucrtd:dbgrptt.obj
 0001:000a1250       _CrtSetReportHook          00000001800a2250 f   libucrtd:dbgrptt.obj
 0001:000a1280       _CrtSetReportMode          00000001800a2280 f   libucrtd:dbgrptt.obj
 0001:000a1430       _VCrtDbgReportA            00000001800a2430 f   libucrtd:dbgrptt.obj
 0001:000a1e10       _VCrtDbgReportW            00000001800a2e10 f   libucrtd:dbgrptt.obj
 0001:000a2990       _snprintf_s                00000001800a3990 f i libucrtd:dbgrptt.obj
 0001:000a2a00       _vsnprintf_s               00000001800a3a00 f i libucrtd:dbgrptt.obj
 0001:000a2a50       _vsnprintf_s_l             00000001800a3a50 f i libucrtd:dbgrptt.obj
 0001:000a2c70       ??$__acrt_wcs_to_mbs_cp@U__crt_win32_buffer_no_resizing@@@@YAHQEB_WAEAV?$__crt_win32_buffer@DU__crt_win32_buffer_no_resizing@@@@I@Z 00000001800a3c70 f i libucrtd:getmodulefilenamea.obj
 0001:000a2cc0       ??0?$__crt_win32_buffer@DU__crt_win32_buffer_no_resizing@@@@QEAA@QEAD_K@Z 00000001800a3cc0 f i libucrtd:getmodulefilenamea.obj
 0001:000a2d30       ??1?$__crt_win32_buffer@DU__crt_win32_buffer_no_resizing@@@@QEAA@XZ 00000001800a3d30 f i libucrtd:getmodulefilenamea.obj
 0001:000a2dc0       ?__acrt_get_utf8_acp_compatibility_codepage@@YAIXZ 00000001800a3dc0 f i libucrtd:getmodulefilenamea.obj
 0001:000a2e60       ?_deallocate@?$__crt_win32_buffer@DU__crt_win32_buffer_no_resizing@@@@AEAAXXZ 00000001800a3e60 f i libucrtd:getmodulefilenamea.obj
 0001:000a2ea0       ?allocate@?$__crt_win32_buffer@DU__crt_win32_buffer_no_resizing@@@@QEAAH_K@Z 00000001800a3ea0 f i libucrtd:getmodulefilenamea.obj
 0001:000a2f20       ?allocate@__crt_win32_buffer_no_resizing@@SAHQEAPEAX_KAEBV__crt_win32_buffer_empty_debug_info@@@Z 00000001800a3f20 f i libucrtd:getmodulefilenamea.obj
 0001:000a2f50       ?capacity@?$__crt_win32_buffer@DU__crt_win32_buffer_no_resizing@@@@QEBA_KXZ 00000001800a3f50 f i libucrtd:getmodulefilenamea.obj
 0001:000a2f60       ?data@?$__crt_win32_buffer@DU__crt_win32_buffer_no_resizing@@@@QEAAPEADXZ 00000001800a3f60 f i libucrtd:getmodulefilenamea.obj
 0001:000a2f70       ?deallocate@__crt_win32_buffer_no_resizing@@SAXQEAXAEBV__crt_win32_buffer_empty_debug_info@@@Z 00000001800a3f70 f i libucrtd:getmodulefilenamea.obj
 0001:000a2f80       ?debug_info@?$__crt_win32_buffer@DU__crt_win32_buffer_no_resizing@@@@QEBAAEBV__crt_win32_buffer_empty_debug_info@@XZ 00000001800a3f80 f i libucrtd:getmodulefilenamea.obj
 0001:000a2f90       ?set_to_nullptr@?$__crt_win32_buffer@DU__crt_win32_buffer_no_resizing@@@@QEAAXXZ 00000001800a3f90 f i libucrtd:getmodulefilenamea.obj
 0001:000a2fd0       ?size@?$__crt_win32_buffer@DU__crt_win32_buffer_no_resizing@@@@QEAAX_K@Z 00000001800a3fd0 f i libucrtd:getmodulefilenamea.obj
 0001:000a2ff0       ?size@?$__crt_win32_buffer@DU__crt_win32_buffer_no_resizing@@@@QEBA_KXZ 00000001800a3ff0 f i libucrtd:getmodulefilenamea.obj
 0001:000a3000       __acrt_GetModuleFileNameA  00000001800a4000 f   libucrtd:getmodulefilenamea.obj
 0001:000a3360       ??$message_box@$$TAEBQEBDAEBQEBDK@?$__crt_char_traits@D@@SAH$$QEA$$TAEBQEBD1$$QEAK@Z 00000001800a4360 f i libucrtd:crtmbox.obj
 0001:000a33b0       ??$message_box@$$TAEBQEB_WAEBQEB_WK@?$__crt_char_traits@_W@@SAH$$QEA$$TAEBQEB_W1$$QEAK@Z 00000001800a43b0 f i libucrtd:crtmbox.obj
 0001:000a3400       ??$message_box@PEAUHWND__@@AEBQEBDAEBQEBDAEBI@?$__crt_char_traits@D@@SAH$$QEAPEAUHWND__@@AEBQEBD1AEBI@Z 00000001800a4400 f i libucrtd:crtmbox.obj
 0001:000a3450       ??$message_box@PEAUHWND__@@AEBQEB_WAEBQEB_WAEBI@?$__crt_char_traits@_W@@SAH$$QEAPEAUHWND__@@AEBQEB_W1AEBI@Z 00000001800a4450 f i libucrtd:crtmbox.obj
 0001:000a34a0       ??$output_debug_string@AEBQEBD@?$__crt_char_traits@D@@SAXAEBQEBD@Z 00000001800a44a0 f i libucrtd:crtmbox.obj
 0001:000a34c0       ??$output_debug_string@AEBQEB_W@?$__crt_char_traits@_W@@SAXAEBQEB_W@Z 00000001800a44c0 f i libucrtd:crtmbox.obj
 0001:000a34e0       __acrt_show_narrow_message_box 00000001800a44e0 f   libucrtd:crtmbox.obj
 0001:000a3510       __acrt_show_wide_message_box 00000001800a4510 f   libucrtd:crtmbox.obj
 0001:000a3540       __acrt_initialize_locks    00000001800a4540 f   libucrtd:locks.obj
 0001:000a35b0       __acrt_lock                00000001800a45b0 f   libucrtd:locks.obj
 0001:000a35e0       __acrt_uninitialize_locks  00000001800a45e0 f   libucrtd:locks.obj
 0001:000a3640       __acrt_unlock              00000001800a4640 f   libucrtd:locks.obj
 0001:000a3670       _lock_locales              00000001800a4670 f   libucrtd:locks.obj
 0001:000a3690       _unlock_locales            00000001800a4690 f   libucrtd:locks.obj
 0001:000a36b0       ??$?B$$A6AXH@Z@__crt_fast_encoded_nullptr_t@@QEBAP6AXH@ZXZ 00000001800a46b0 f i libucrtd:signal.obj
 0001:000a3770       ??$__crt_fast_decode_pointer@P6AXH@Z@@YAP6AXH@ZQ6AXH@Z@Z 00000001800a4770 f i libucrtd:signal.obj
 0001:000a37b0       ??$__crt_fast_encode_pointer@P6AXH@Z@@YAP6AXH@ZQ6AXH@Z@Z 00000001800a47b0 f i libucrtd:signal.obj
 0001:000a3a30       ?initialize@?$dual_state_global@P6AXH@Z@__crt_state_management@@QEAAXQ6AXH@Z@Z 00000001800a4a30 f i libucrtd:signal.obj
 0001:000a3bb0       ?value@?$dual_state_global@P6AXH@Z@__crt_state_management@@QEAAAEAP6AXH@ZXZ 00000001800a4bb0 f i libucrtd:signal.obj
 0001:000a3bd0       __acrt_get_sigabrt_handler 00000001800a4bd0 f   libucrtd:signal.obj
 0001:000a3c00       __acrt_initialize_signal_handlers 00000001800a4c00 f   libucrtd:signal.obj
 0001:000a3c60       __fpecode                  00000001800a4c60 f   libucrtd:signal.obj
 0001:000a3c80       __pxcptinfoptrs            00000001800a4c80 f   libucrtd:signal.obj
 0001:000a3ca0       raise                      00000001800a4ca0 f   libucrtd:signal.obj
 0001:000a4160       signal                     00000001800a5160 f   libucrtd:signal.obj
 0001:000a4430       _msize                     00000001800a5430 f   libucrtd:msize.obj
 0001:000a4450       _msize_base                00000001800a5450 f   libucrtd:msize.obj
 0001:000a4520       _realloc_base              00000001800a5520 f   libucrtd:realloc_base.obj
 0001:000a45f0       ??$?B$$A6AHPEA_WK_J@Z@__crt_fast_encoded_nullptr_t@@QEBAP6AHPEA_WK_J@ZXZ 00000001800a55f0 f i libucrtd:winapi_thunks.obj
 0001:000a46b0       ??$__crt_fast_decode_pointer@P6AHPEA_WK_J@Z@@YAP6AHPEA_WK_J@ZQ6AH0K1@Z@Z 00000001800a56b0 f i libucrtd:winapi_thunks.obj
 0001:000a46f0       ??$__crt_fast_decode_pointer@PEAX@@YAPEAXQEAX@Z 00000001800a56f0 f i libucrtd:winapi_thunks.obj
 0001:000a4730       ??$__crt_fast_encode_pointer@P6AHPEA_WK_J@Z@@YAP6AHPEA_WK_J@ZQ6AH0K1@Z@Z 00000001800a5730 f i libucrtd:winapi_thunks.obj
 0001:000a53a0       GetCurrentThreadEffectiveToken 00000001800a63a0 f i libucrtd:winapi_thunks.obj
 0001:000a53b0       __acrt_AppPolicyGetProcessTerminationMethodInternal 00000001800a63b0 f   libucrtd:winapi_thunks.obj
 0001:000a5400       __acrt_AppPolicyGetShowDeveloperDiagnosticInternal 00000001800a6400 f   libucrtd:winapi_thunks.obj
 0001:000a5450       __acrt_AppPolicyGetThreadInitializationTypeInternal 00000001800a6450 f   libucrtd:winapi_thunks.obj
 0001:000a54a0       __acrt_AppPolicyGetWindowingModelInternal 00000001800a64a0 f   libucrtd:winapi_thunks.obj
 0001:000a54f0       __acrt_AreFileApisANSI     00000001800a64f0 f   libucrtd:winapi_thunks.obj
 0001:000a5530       __acrt_CompareStringEx     00000001800a6530 f   libucrtd:winapi_thunks.obj
 0001:000a5610       __acrt_EnumSystemLocalesEx 00000001800a6610 f   libucrtd:winapi_thunks.obj
 0001:000a5690       __acrt_FlsAlloc            00000001800a6690 f   libucrtd:winapi_thunks.obj
 0001:000a56e0       __acrt_FlsFree             00000001800a66e0 f   libucrtd:winapi_thunks.obj
 0001:000a5730       __acrt_FlsGetValue         00000001800a6730 f   libucrtd:winapi_thunks.obj
 0001:000a5780       __acrt_FlsSetValue         00000001800a6780 f   libucrtd:winapi_thunks.obj
 0001:000a57e0       __acrt_GetDateFormatEx     00000001800a67e0 f   libucrtd:winapi_thunks.obj
 0001:000a58a0       __acrt_GetEnabledXStateFeatures 00000001800a68a0 f   libucrtd:winapi_thunks.obj
 0001:000a58e0       __acrt_GetLocaleInfoEx     00000001800a68e0 f   libucrtd:winapi_thunks.obj
 0001:000a5960       __acrt_GetSystemTimePreciseAsFileTime 00000001800a6960 f   libucrtd:winapi_thunks.obj
 0001:000a59b0       __acrt_GetTimeFormatEx     00000001800a69b0 f   libucrtd:winapi_thunks.obj
 0001:000a5a60       __acrt_GetUserDefaultLocaleName 00000001800a6a60 f   libucrtd:winapi_thunks.obj
 0001:000a5ac0       __acrt_GetXStateFeaturesMask 00000001800a6ac0 f   libucrtd:winapi_thunks.obj
 0001:000a5b10       __acrt_InitializeCriticalSectionEx 00000001800a6b10 f   libucrtd:winapi_thunks.obj
 0001:000a5b70       __acrt_IsValidLocaleName   00000001800a6b70 f   libucrtd:winapi_thunks.obj
 0001:000a5bd0       __acrt_LCIDToLocaleName    00000001800a6bd0 f   libucrtd:winapi_thunks.obj
 0001:000a5c40       __acrt_LCMapStringEx       00000001800a6c40 f   libucrtd:winapi_thunks.obj
 0001:000a5d20       __acrt_LocaleNameToLCID    00000001800a6d20 f   libucrtd:winapi_thunks.obj
 0001:000a5d70       __acrt_LocateXStateFeature 00000001800a6d70 f   libucrtd:winapi_thunks.obj
 0001:000a5dd0       __acrt_MessageBoxA         00000001800a6dd0 f   libucrtd:winapi_thunks.obj
 0001:000a5e30       __acrt_MessageBoxW         00000001800a6e30 f   libucrtd:winapi_thunks.obj
 0001:000a5e90       __acrt_RoInitialize        00000001800a6e90 f   libucrtd:winapi_thunks.obj
 0001:000a5ed0       __acrt_RoUninitialize      00000001800a6ed0 f   libucrtd:winapi_thunks.obj
 0001:000a5f00       __acrt_RtlGenRandom        00000001800a6f00 f   libucrtd:winapi_thunks.obj
 0001:000a5f50       __acrt_SetThreadStackGuarantee 00000001800a6f50 f   libucrtd:winapi_thunks.obj
 0001:000a5f90       __acrt_can_show_message_box 00000001800a6f90 f   libucrtd:winapi_thunks.obj
 0001:000a5fd0       __acrt_can_use_vista_locale_apis 00000001800a6fd0 f   libucrtd:winapi_thunks.obj
 0001:000a6000       __acrt_can_use_xstate_apis 00000001800a7000 f   libucrtd:winapi_thunks.obj
 0001:000a6030       __acrt_eagerly_load_locale_apis 00000001800a7030 f   libucrtd:winapi_thunks.obj
 0001:000a6070       __acrt_get_parent_window   00000001800a7070 f   libucrtd:winapi_thunks.obj
 0001:000a60f0       __acrt_initialize_winapi_thunks 00000001800a70f0 f   libucrtd:winapi_thunks.obj
 0001:000a6170       __acrt_is_interactive      00000001800a7170 f   libucrtd:winapi_thunks.obj
 0001:000a6250       __acrt_uninitialize_winapi_thunks 00000001800a7250 f   libucrtd:winapi_thunks.obj
 0001:000a62f0       _chvalidator               00000001800a72f0 f   libucrtd:isctype.obj
 0001:000a6360       _chvalidator_l             00000001800a7360 f   libucrtd:isctype.obj
 0001:000a6410       _isctype                   00000001800a7410 f   libucrtd:isctype.obj
 0001:000a6460       _isctype_l                 00000001800a7460 f   libucrtd:isctype.obj
 0001:000a6690       _isleadbyte_fast_internal  00000001800a7690 f i libucrtd:isctype.obj
 0001:000a66c0       ??$?RU__crt_stdio_stream_data@@@__crt_internal_free_policy@@QEBAXQEBU__crt_stdio_stream_data@@@Z 00000001800a76c0 f i libucrtd:stream.obj
 0001:000a66f0       ??0?$__crt_unique_heap_ptr@U__crt_stdio_stream_data@@U__crt_internal_free_policy@@@@QEAA@QEAU__crt_stdio_stream_data@@@Z 00000001800a76f0 f i libucrtd:stream.obj
 0001:000a6710       ??0__crt_stdio_stream@@QEAA@QEAU__crt_stdio_stream_data@@@Z 00000001800a7710 f i libucrtd:stream.obj
 0001:000a6730       ??0__crt_stdio_stream@@QEAA@XZ 00000001800a7730 f i libucrtd:stream.obj
 0001:000a6750       ??1?$__crt_unique_heap_ptr@U__crt_stdio_stream_data@@U__crt_internal_free_policy@@@@QEAA@XZ 00000001800a7750 f i libucrtd:stream.obj
 0001:000a6770       ?__acrt_stdio_allocate_stream@@YA?AV__crt_stdio_stream@@XZ 00000001800a7770 f   libucrtd:stream.obj
 0001:000a6830       ?__acrt_stdio_free_stream@@YAXV__crt_stdio_stream@@@Z 00000001800a7830 f   libucrtd:stream.obj
 0001:000a68d0       ?deallocate@__crt_stdio_stream@@QEAAXXZ 00000001800a78d0 f i libucrtd:stream.obj
 0001:000a68f0       ?detach@?$__crt_unique_heap_ptr@U__crt_stdio_stream_data@@U__crt_internal_free_policy@@@@QEAAPEAU__crt_stdio_stream_data@@XZ 00000001800a78f0 f i libucrtd:stream.obj
 0001:000a6ad0       ?lock@__crt_stdio_stream@@QEBAXXZ 00000001800a7ad0 f i libucrtd:stream.obj
 0001:000a6af0       ?release@?$__crt_unique_heap_ptr@U__crt_stdio_stream_data@@U__crt_internal_free_policy@@@@QEAAXXZ 00000001800a7af0 f i libucrtd:stream.obj
 0001:000a6b20       ?try_allocate@__crt_stdio_stream@@QEAA_NXZ 00000001800a7b20 f i libucrtd:stream.obj
 0001:000a6b90       ??$__acrt_stdio_parse_mode@D@@YA?AU__acrt_stdio_stream_mode@@QEBD@Z 00000001800a7b90 f i libucrtd:openfile.obj
 0001:000a76a0       ??$__acrt_stdio_parse_mode@_W@@YA?AU__acrt_stdio_stream_mode@@QEB_W@Z 00000001800a86a0 f i libucrtd:openfile.obj
 0001:000a8640       ??$tcsncmp@AEAPEBDAEAY02$$CBD_K@?$__crt_char_traits@D@@SAHAEAPEBDAEAY02$$CBD$$QEA_K@Z 00000001800a9640 f i libucrtd:openfile.obj
 0001:000a8680       ??$tcsncmp@AEAPEB_WAEAY02$$CB_W_K@?$__crt_char_traits@_W@@SAHAEAPEB_WAEAY02$$CB_W$$QEA_K@Z 00000001800a9680 f i libucrtd:openfile.obj
 0001:000a86c0       ??$tcsnicmp@AEAPEBDAEAY04$$CBD_K@?$__crt_char_traits@D@@SAHAEAPEBDAEAY04$$CBD$$QEA_K@Z 00000001800a96c0 f i libucrtd:openfile.obj
 0001:000a8700       ??$tcsnicmp@AEAPEBDAEAY06$$CBD_K@?$__crt_char_traits@D@@SAHAEAPEBDAEAY06$$CBD$$QEA_K@Z 00000001800a9700 f i libucrtd:openfile.obj
 0001:000a8740       ??$tcsnicmp@AEAPEBDAEAY07$$CBD_K@?$__crt_char_traits@D@@SAHAEAPEBDAEAY07$$CBD$$QEA_K@Z 00000001800a9740 f i libucrtd:openfile.obj
 0001:000a8780       ??$tcsnicmp@AEAPEB_WAEAY04$$CB_W_K@?$__crt_char_traits@_W@@SAHAEAPEB_WAEAY04$$CB_W$$QEA_K@Z 00000001800a9780 f i libucrtd:openfile.obj
 0001:000a87c0       ??$tcsnicmp@AEAPEB_WAEAY06$$CB_W_K@?$__crt_char_traits@_W@@SAHAEAPEB_WAEAY06$$CB_W$$QEA_K@Z 00000001800a97c0 f i libucrtd:openfile.obj
 0001:000a8800       ??$tcsnicmp@AEAPEB_WAEAY07$$CB_W_K@?$__crt_char_traits@_W@@SAHAEAPEB_WAEAY07$$CB_W$$QEA_K@Z 00000001800a9800 f i libucrtd:openfile.obj
 0001:000a8840       ??$tsopen_s@PEAHAEBQEBDAEBHAEBHH@?$__crt_char_traits@D@@SAH$$QEAPEAHAEBQEBDAEBH2$$QEAH@Z 00000001800a9840 f i libucrtd:openfile.obj
 0001:000a8890       ??$tsopen_s@PEAHAEBQEB_WAEBHAEBHH@?$__crt_char_traits@_W@@SAH$$QEAPEAHAEBQEB_WAEBH2$$QEAH@Z 00000001800a9890 f i libucrtd:openfile.obj
 0001:000a88e0       ?__acrt_stdio_parse_mode_D@@YA_NAEAU__acrt_stdio_stream_mode@@@Z 00000001800a98e0 f i libucrtd:openfile.obj
 0001:000a8910       ?__acrt_stdio_parse_mode_N@@YA_NAEAU__acrt_stdio_stream_mode@@@Z 00000001800a9910 f i libucrtd:openfile.obj
 0001:000a8930       ?__acrt_stdio_parse_mode_R@@YA_NAEAU__acrt_stdio_stream_mode@@AEA_N@Z 00000001800a9930 f i libucrtd:openfile.obj
 0001:000a8970       ?__acrt_stdio_parse_mode_S@@YA_NAEAU__acrt_stdio_stream_mode@@AEA_N@Z 00000001800a9970 f i libucrtd:openfile.obj
 0001:000a89b0       ?__acrt_stdio_parse_mode_T@@YA_NAEAU__acrt_stdio_stream_mode@@@Z 00000001800a99b0 f i libucrtd:openfile.obj
 0001:000a89e0       ?__acrt_stdio_parse_mode_b@@YA_NAEAU__acrt_stdio_stream_mode@@@Z 00000001800a99e0 f i libucrtd:openfile.obj
 0001:000a8a10       ?__acrt_stdio_parse_mode_c@@YA_NAEAU__acrt_stdio_stream_mode@@AEA_N@Z 00000001800a9a10 f i libucrtd:openfile.obj
 0001:000a8a50       ?__acrt_stdio_parse_mode_n@@YA_NAEAU__acrt_stdio_stream_mode@@AEA_N@Z 00000001800a9a50 f i libucrtd:openfile.obj
 0001:000a8a90       ?__acrt_stdio_parse_mode_plus@@YA_NAEAU__acrt_stdio_stream_mode@@AEA_N@Z 00000001800a9a90 f i libucrtd:openfile.obj
 0001:000a8b10       ?__acrt_stdio_parse_mode_t@@YA_NAEAU__acrt_stdio_stream_mode@@@Z 00000001800a9b10 f i libucrtd:openfile.obj
 0001:000a8b40       ?__acrt_stdio_parse_mode_x@@YA_NAEAU__acrt_stdio_stream_mode@@@Z 00000001800a9b40 f i libucrtd:openfile.obj
 0001:000a8b70       _openfile                  00000001800a9b70 f   libucrtd:openfile.obj
 0001:000a8bc0       _wopenfile                 00000001800a9bc0 f   libucrtd:openfile.obj
 0001:000a8ee0       _close                     00000001800a9ee0 f   libucrtd:close.obj
 0001:000a90d0       _close_nolock              00000001800aa0d0 f   libucrtd:close.obj
 0001:000a9140       ?has_crt_buffer@__crt_stdio_stream@@QEBA_NXZ 00000001800aa140 f i libucrtd:_freebuf.obj
 0001:000a9160       __acrt_stdio_free_buffer_nolock 00000001800aa160 f   libucrtd:_freebuf.obj
 0001:000a9810       ?__acrt_stdio_reset_buffer@@YAXV__crt_stdio_stream@@@Z 00000001800aa810 f i libucrtd:fflush.obj
 0001:000a9940       ?has_all_of@__crt_stdio_stream@@QEBA_NJ@Z 00000001800aa940 f i libucrtd:fflush.obj
 0001:000a9a20       __acrt_stdio_flush_nolock  00000001800aaa20 f   libucrtd:fflush.obj
 0001:000a9b30       _fflush_nolock             00000001800aab30 f   libucrtd:fflush.obj
 0001:000a9bc0       _flushall                  00000001800aabc0 f   libucrtd:fflush.obj
 0001:000a9bd0       fflush                     00000001800aabd0 f   libucrtd:fflush.obj
 0001:000aa630       ?has_big_buffer@__crt_stdio_stream@@QEBA_NXZ 00000001800ab630 f i libucrtd:_flsbuf.obj
 0001:000aa750       __acrt_stdio_flush_and_write_narrow_nolock 00000001800ab750 f   libucrtd:_flsbuf.obj
 0001:000aa780       __acrt_stdio_flush_and_write_wide_nolock 00000001800ab780 f   libucrtd:_flsbuf.obj
 0001:000aaba0       __acrt_get_begin_thread_init_policy 00000001800abba0 f   libucrtd:win_policies.obj
 0001:000aabb0       __acrt_get_developer_information_policy 00000001800abbb0 f   libucrtd:win_policies.obj
 0001:000aabd0       __acrt_get_process_end_policy 00000001800abbd0 f   libucrtd:win_policies.obj
 0001:000aabe0       __acrt_get_windowing_model_policy 00000001800abbe0 f   libucrtd:win_policies.obj
 0001:000aafa0       ??$__acrt_mbs_to_wcs_cp@U__crt_win32_buffer_internal_dynamic_resizing@@@@YAHQEBDAEAV?$__crt_win32_buffer@_WU__crt_win32_buffer_internal_dynamic_resizing@@@@I@Z 00000001800abfa0 f i libucrtd:argv_wildcards.obj
 0001:000aaff0       ??$__acrt_wcs_to_mbs_cp@U__crt_win32_buffer_internal_dynamic_resizing@@@@YAHQEB_WAEAV?$__crt_win32_buffer@DU__crt_win32_buffer_internal_dynamic_resizing@@@@I@Z 00000001800abff0 f i libucrtd:argv_wildcards.obj
 0001:000ac470       ??$tcsncpy_s@AEAPEAD_KAEAPEADAEB_K@?$__crt_char_traits@D@@SAHAEAPEAD$$QEA_K0AEB_K@Z 00000001800ad470 f i libucrtd:argv_wildcards.obj
 0001:000ac4c0       ??$tcsncpy_s@AEAPEA_W_KAEAPEA_WAEB_K@?$__crt_char_traits@_W@@SAHAEAPEA_W$$QEA_K0AEB_K@Z 00000001800ad4c0 f i libucrtd:argv_wildcards.obj
 0001:000ac510       ??$tcsncpy_s@PEADAEB_KAEBQEBDAEB_K@?$__crt_char_traits@D@@SAH$$QEAPEADAEB_KAEBQEBD1@Z 00000001800ad510 f i libucrtd:argv_wildcards.obj
 0001:000ac560       ??$tcsncpy_s@PEAD_KAEBQEBDAEB_K@?$__crt_char_traits@D@@SAH$$QEAPEAD$$QEA_KAEBQEBDAEB_K@Z 00000001800ad560 f i libucrtd:argv_wildcards.obj
 0001:000ac5b0       ??$tcsncpy_s@PEA_WAEB_KAEBQEB_WAEB_K@?$__crt_char_traits@_W@@SAH$$QEAPEA_WAEB_KAEBQEB_W1@Z 00000001800ad5b0 f i libucrtd:argv_wildcards.obj
 0001:000ac600       ??$tcsncpy_s@PEA_W_KAEBQEB_WAEB_K@?$__crt_char_traits@_W@@SAH$$QEAPEA_W$$QEA_KAEBQEB_WAEB_K@Z 00000001800ad600 f i libucrtd:argv_wildcards.obj
 0001:000ac650       ??$tcspbrk@AEAPEADAEAY02$$CBD@?$__crt_char_traits@D@@SAPEADAEAPEADAEAY02$$CBD@Z 00000001800ad650 f i libucrtd:argv_wildcards.obj
 0001:000ac680       ??$tcspbrk@AEAPEA_WAEAY02$$CB_W@?$__crt_char_traits@_W@@SAPEA_WAEAPEA_WAEAY02$$CB_W@Z 00000001800ad680 f i libucrtd:argv_wildcards.obj
 0001:000ac6b0       ??0?$__crt_unique_handle_t@U__crt_findfile_traits@@@@QEAA@QEAX@Z 00000001800ad6b0 f i libucrtd:argv_wildcards.obj
