; Listing generated by Microsoft (R) Optimizing Compiler Version 19.28.29336.0 

	TITLE	C:\Develop\OPOS-CCO\zGestureControl\GestureControl.cpp
	.686P
	.XMM
	include listing.inc
	.model	flat

INCLUDELIB LIBCMTD
INCLUDELIB OLDNAMES

PUBLIC	?ObjectMain@CComObjectRootBase@ATL@@SGX_N@Z	; ATL::CComObjectRootBase::ObjectMain
PUBLIC	?GetCategoryMap@CComObjectRootBase@ATL@@SAPBU_ATL_CATMAP_ENTRY@2@XZ ; ATL::CComObjectRootBase::GetCategoryMap
PUBLIC	?WM_ATLGETHOST@ATL@@3IA				; ATL::WM_ATLGETHOST
PUBLIC	?WM_ATLGETCONTROL@ATL@@3IA			; ATL::WM_ATLGETCONTROL
PUBLIC	_LIBID_ATLLib
PUBLIC	___pobjMapEntryFirst
PUBLIC	___pobjMapEntryLast
PUBLIC	_IID_IOPOSGestureControl_1_16
PUBLIC	?_pPerfRegFunc@ATL@@3P6AJPAUHINSTANCE__@@@ZA	; ATL::_pPerfRegFunc
PUBLIC	?_pPerfUnRegFunc@ATL@@3P6AJXZA			; ATL::_pPerfUnRegFunc
PUBLIC	?_AtlRegisterPerUser@ATL@@3_NA			; ATL::_AtlRegisterPerUser
PUBLIC	_IID_IOPOSGestureControl
PUBLIC	_LIBID_OposGestureControl_CCO
PUBLIC	_DIID__IOPOSGestureControlEvents
PUBLIC	_CLSID_OPOSGestureControl
PUBLIC	?_pAtlModule@ATL@@3PAVCAtlModule@1@A		; ATL::_pAtlModule
PUBLIC	?_pModule@ATL@@3PAVCComModule@1@A		; ATL::_pModule
PUBLIC	?GetObjectDescription@?$CComCoClass@VCOPOSGestureControl@@$1?CLSID_OPOSGestureControl@@3U_GUID@@B@ATL@@SGPB_WXZ ; ATL::CComCoClass<COPOSGestureControl,&CLSID_OPOSGestureControl>::GetObjectDescription
PUBLIC	?UpdateRegistry@COPOSGestureControl@@SGJH@Z	; COPOSGestureControl::UpdateRegistry
PUBLIC	?_pAtlAutoThreadModule@ATL@@3PAUIAtlAutoThreadModule@1@A ; ATL::_pAtlAutoThreadModule
PUBLIC	?CreateInstance@?$CComCreator@V?$CComObjectCached@VCComClassFactory@ATL@@@ATL@@@ATL@@SGJPAXABU_GUID@@PAPAX@Z ; ATL::CComCreator<ATL::CComObjectCached<ATL::CComClassFactory> >::CreateInstance
PUBLIC	?CreateInstance@?$CComCreator2@V?$CComCreator@V?$CComObject@VCOPOSGestureControl@@@ATL@@@ATL@@V?$CComCreator@V?$CComAggObject@VCOPOSGestureControl@@@ATL@@@2@@ATL@@SGJPAXABU_GUID@@PAPAX@Z ; ATL::CComCreator2<ATL::CComCreator<ATL::CComObject<COPOSGestureControl> >,ATL::CComCreator<ATL::CComAggObject<COPOSGestureControl> > >::CreateInstance
PUBLIC	?chDirSep@ATL@@3_WB				; ATL::chDirSep
PUBLIC	?chRightBracket@ATL@@3_WB			; ATL::chRightBracket
PUBLIC	?chLeftBracket@ATL@@3_WB			; ATL::chLeftBracket
PUBLIC	?chQuote@ATL@@3_WB				; ATL::chQuote
PUBLIC	?chEquals@ATL@@3_WB				; ATL::chEquals
PUBLIC	?szStringVal@ATL@@3QB_WB			; ATL::szStringVal
PUBLIC	?multiszStringVal@ATL@@3QB_WB			; ATL::multiszStringVal
PUBLIC	?szDwordVal@ATL@@3QB_WB				; ATL::szDwordVal
PUBLIC	?szBinaryVal@ATL@@3QB_WB			; ATL::szBinaryVal
PUBLIC	?szValToken@ATL@@3QB_WB				; ATL::szValToken
PUBLIC	?szForceRemove@ATL@@3QB_WB			; ATL::szForceRemove
PUBLIC	?szNoRemove@ATL@@3QB_WB				; ATL::szNoRemove
PUBLIC	?szDelete@ATL@@3QB_WB				; ATL::szDelete
PUBLIC	_CLSID_Registrar
PUBLIC	_IID_IRegistrar
PUBLIC	_IID_IDocHostUIHandlerDispatch
PUBLIC	_IID_IAxWinHostWindow
PUBLIC	_IID_IAxWinHostWindowLic
PUBLIC	_IID_IAxWinAmbientDispatch
PUBLIC	_IID_IAxWinAmbientDispatchEx
PUBLIC	_IID_IInternalConnection
;	COMDAT ?WM_ATLGETHOST@ATL@@3IA
_BSS	SEGMENT
?WM_ATLGETHOST@ATL@@3IA DD 01H DUP (?)			; ATL::WM_ATLGETHOST
_BSS	ENDS
;	COMDAT ?WM_ATLGETCONTROL@ATL@@3IA
_BSS	SEGMENT
?WM_ATLGETCONTROL@ATL@@3IA DD 01H DUP (?)		; ATL::WM_ATLGETCONTROL
_BSS	ENDS
;	COMDAT ?_pPerfRegFunc@ATL@@3P6AJPAUHINSTANCE__@@@ZA
_BSS	SEGMENT
?_pPerfRegFunc@ATL@@3P6AJPAUHINSTANCE__@@@ZA DD 01H DUP (?) ; ATL::_pPerfRegFunc
_BSS	ENDS
;	COMDAT ?_pPerfUnRegFunc@ATL@@3P6AJXZA
_BSS	SEGMENT
?_pPerfUnRegFunc@ATL@@3P6AJXZA DD 01H DUP (?)		; ATL::_pPerfUnRegFunc
_BSS	ENDS
;	COMDAT ?_AtlRegisterPerUser@ATL@@3_NA
_BSS	SEGMENT
?_AtlRegisterPerUser@ATL@@3_NA DB 01H DUP (?)		; ATL::_AtlRegisterPerUser
_BSS	ENDS
;	COMDAT ?_pAtlModule@ATL@@3PAVCAtlModule@1@A
_BSS	SEGMENT
?_pAtlModule@ATL@@3PAVCAtlModule@1@A DD 01H DUP (?)	; ATL::_pAtlModule
_BSS	ENDS
;	COMDAT ?_pModule@ATL@@3PAVCComModule@1@A
_BSS	SEGMENT
?_pModule@ATL@@3PAVCComModule@1@A DD 01H DUP (?)	; ATL::_pModule
_BSS	ENDS
;	COMDAT ?_pAtlAutoThreadModule@ATL@@3PAUIAtlAutoThreadModule@1@A
_BSS	SEGMENT
?_pAtlAutoThreadModule@ATL@@3PAUIAtlAutoThreadModule@1@A DD 01H DUP (?) ; ATL::_pAtlAutoThreadModule
_BSS	ENDS
;	COMDAT _IID_IInternalConnection
CONST	SEGMENT
_IID_IInternalConnection DD 072ad0770H
	DW	06a9fH
	DW	011d1H
	DB	0bcH
	DB	0ecH
	DB	00H
	DB	060H
	DB	08H
	DB	08fH
	DB	044H
	DB	04eH
CONST	ENDS
;	COMDAT _IID_IAxWinAmbientDispatchEx
CONST	SEGMENT
_IID_IAxWinAmbientDispatchEx DD 0b2d0778bH
	DW	0ac99H
	DW	04c58H
	DB	0a5H
	DB	0c8H
	DB	0e7H
	DB	072H
	DB	04eH
	DB	053H
	DB	016H
	DB	0b5H
CONST	ENDS
;	COMDAT _IID_IAxWinAmbientDispatch
CONST	SEGMENT
_IID_IAxWinAmbientDispatch DD 0b6ea2051H
	DW	048aH
	DW	011d1H
	DB	082H
	DB	0b9H
	DB	00H
	DB	0c0H
	DB	04fH
	DB	0b9H
	DB	094H
	DB	02eH
CONST	ENDS
;	COMDAT _IID_IAxWinHostWindowLic
CONST	SEGMENT
_IID_IAxWinHostWindowLic DD 03935bda8H
	DW	04ed9H
	DW	0495cH
	DB	086H
	DB	050H
	DB	0e0H
	DB	01fH
	DB	0c1H
	DB	0e3H
	DB	08aH
	DB	04bH
CONST	ENDS
;	COMDAT _IID_IAxWinHostWindow
CONST	SEGMENT
_IID_IAxWinHostWindow DD 0b6ea2050H
	DW	048aH
	DW	011d1H
	DB	082H
	DB	0b9H
	DB	00H
	DB	0c0H
	DB	04fH
	DB	0b9H
	DB	094H
	DB	02eH
CONST	ENDS
;	COMDAT _IID_IDocHostUIHandlerDispatch
CONST	SEGMENT
_IID_IDocHostUIHandlerDispatch DD 0425b5af0H
	DW	065f1H
	DW	011d1H
	DB	096H
	DB	011H
	DB	00H
	DB	00H
	DB	0f8H
	DB	01eH
	DB	0dH
	DB	0dH
CONST	ENDS
;	COMDAT _IID_IRegistrar
CONST	SEGMENT
_IID_IRegistrar DD 044ec053bH
	DW	0400fH
	DW	011d0H
	DB	09dH
	DB	0cdH
	DB	00H
	DB	0a0H
	DB	0c9H
	DB	03H
	DB	091H
	DB	0d3H
CONST	ENDS
;	COMDAT _CLSID_Registrar
CONST	SEGMENT
_CLSID_Registrar DD 044ec053aH
	DW	0400fH
	DW	011d0H
	DB	09dH
	DB	0cdH
	DB	00H
	DB	0a0H
	DB	0c9H
	DB	03H
	DB	091H
	DB	0d3H
CONST	ENDS
;	COMDAT ?szDelete@ATL@@3QB_WB
CONST	SEGMENT
?szDelete@ATL@@3QB_WB DD FLAT:$SG111376			; ATL::szDelete
CONST	ENDS
;	COMDAT ?szNoRemove@ATL@@3QB_WB
CONST	SEGMENT
?szNoRemove@ATL@@3QB_WB DD FLAT:$SG111374		; ATL::szNoRemove
CONST	ENDS
;	COMDAT ?szForceRemove@ATL@@3QB_WB
CONST	SEGMENT
?szForceRemove@ATL@@3QB_WB DD FLAT:$SG111372		; ATL::szForceRemove
CONST	ENDS
;	COMDAT ?szValToken@ATL@@3QB_WB
CONST	SEGMENT
?szValToken@ATL@@3QB_WB DD FLAT:$SG111370		; ATL::szValToken
CONST	ENDS
;	COMDAT ?szBinaryVal@ATL@@3QB_WB
CONST	SEGMENT
?szBinaryVal@ATL@@3QB_WB DD FLAT:$SG111368		; ATL::szBinaryVal
CONST	ENDS
;	COMDAT ?szDwordVal@ATL@@3QB_WB
CONST	SEGMENT
?szDwordVal@ATL@@3QB_WB DD FLAT:$SG111366		; ATL::szDwordVal
CONST	ENDS
;	COMDAT ?multiszStringVal@ATL@@3QB_WB
CONST	SEGMENT
?multiszStringVal@ATL@@3QB_WB DD FLAT:$SG111364		; ATL::multiszStringVal
CONST	ENDS
;	COMDAT ?szStringVal@ATL@@3QB_WB
CONST	SEGMENT
?szStringVal@ATL@@3QB_WB DD FLAT:$SG111362		; ATL::szStringVal
CONST	ENDS
;	COMDAT ?chEquals@ATL@@3_WB
CONST	SEGMENT
?chEquals@ATL@@3_WB DW 03dH				; ATL::chEquals
CONST	ENDS
;	COMDAT ?chQuote@ATL@@3_WB
CONST	SEGMENT
?chQuote@ATL@@3_WB DW 027H				; ATL::chQuote
CONST	ENDS
;	COMDAT ?chLeftBracket@ATL@@3_WB
CONST	SEGMENT
?chLeftBracket@ATL@@3_WB DW 07bH			; ATL::chLeftBracket
CONST	ENDS
;	COMDAT ?chRightBracket@ATL@@3_WB
CONST	SEGMENT
?chRightBracket@ATL@@3_WB DW 07dH			; ATL::chRightBracket
CONST	ENDS
;	COMDAT ?chDirSep@ATL@@3_WB
CONST	SEGMENT
?chDirSep@ATL@@3_WB DW 05cH				; ATL::chDirSep
CONST	ENDS
;	COMDAT _CLSID_OPOSGestureControl
CONST	SEGMENT
_CLSID_OPOSGestureControl DD 0ccb90392H
	DW	0b81eH
	DW	011d2H
	DB	0abH
	DB	074H
	DB	00H
	DB	040H
	DB	05H
	DB	04cH
	DB	037H
	DB	019H
CONST	ENDS
;	COMDAT _DIID__IOPOSGestureControlEvents
CONST	SEGMENT
_DIID__IOPOSGestureControlEvents DD 0ccb90393H
	DW	0b81eH
	DW	011d2H
	DB	0abH
	DB	074H
	DB	00H
	DB	040H
	DB	05H
	DB	04cH
	DB	037H
	DB	019H
CONST	ENDS
;	COMDAT _LIBID_OposGestureControl_CCO
CONST	SEGMENT
_LIBID_OposGestureControl_CCO DD 0ccb90390H
	DW	0b81eH
	DW	011d2H
	DB	0abH
	DB	074H
	DB	00H
	DB	040H
	DB	05H
	DB	04cH
	DB	037H
	DB	019H
CONST	ENDS
;	COMDAT _IID_IOPOSGestureControl
CONST	SEGMENT
_IID_IOPOSGestureControl DD 0ccb91391H
	DW	0b81eH
	DW	011d2H
	DB	0abH
	DB	074H
	DB	00H
	DB	040H
	DB	05H
	DB	04cH
	DB	037H
	DB	019H
CONST	ENDS
;	COMDAT _IID_IOPOSGestureControl_1_16
CONST	SEGMENT
_IID_IOPOSGestureControl_1_16 DD 0ccb90391H
	DW	0b81eH
	DW	011d2H
	DB	0abH
	DB	074H
	DB	00H
	DB	040H
	DB	05H
	DB	04cH
	DB	037H
	DB	019H
CONST	ENDS
;	COMDAT ___pobjMapEntryLast
ATL$__z	SEGMENT
___pobjMapEntryLast DD 00H
ATL$__z	ENDS
;	COMDAT ___pobjMapEntryFirst
ATL$__a	SEGMENT
___pobjMapEntryFirst DD 00H
ATL$__a	ENDS
;	COMDAT _LIBID_ATLLib
CONST	SEGMENT
_LIBID_ATLLib DD 044ec0535H
	DW	0400fH
	DW	011d0H
	DB	09dH
	DB	0cdH
	DB	00H
	DB	0a0H
	DB	0c9H
	DB	03H
	DB	091H
	DB	0d3H
CONST	ENDS
CONST	SEGMENT
$SG197010 DB	'p', 00H, 'T', 00H, 'h', 00H, 'i', 00H, 's', 00H, ' ', 00H
	DB	'!', 00H, '=', 00H, ' ', 00H, '0', 00H, 00H, 00H
	ORG $+2
$SG197011 DB	'%', 00H, 'l', 00H, 's', 00H, 00H, 00H
$SG197012 DB	'C', 00H, ':', 00H, '\', 00H, 'P', 00H, 'r', 00H, 'o', 00H
	DB	'g', 00H, 'r', 00H, 'a', 00H, 'm', 00H, ' ', 00H, 'F', 00H, 'i'
	DB	00H, 'l', 00H, 'e', 00H, 's', 00H, ' ', 00H, '(', 00H, 'x', 00H
	DB	'8', 00H, '6', 00H, ')', 00H, '\', 00H, 'M', 00H, 'i', 00H, 'c'
	DB	00H, 'r', 00H, 'o', 00H, 's', 00H, 'o', 00H, 'f', 00H, 't', 00H
	DB	' ', 00H, 'V', 00H, 'i', 00H, 's', 00H, 'u', 00H, 'a', 00H, 'l'
	DB	00H, ' ', 00H, 'S', 00H, 't', 00H, 'u', 00H, 'd', 00H, 'i', 00H
	DB	'o', 00H, '\', 00H, '2', 00H, '0', 00H, '1', 00H, '9', 00H, '\'
	DB	00H, 'C', 00H, 'o', 00H, 'm', 00H, 'm', 00H, 'u', 00H, 'n', 00H
	DB	'i', 00H, 't', 00H, 'y', 00H, '\', 00H, 'V', 00H, 'C', 00H, '\'
	DB	00H, 'T', 00H, 'o', 00H, 'o', 00H, 'l', 00H, 's', 00H, '\', 00H
	DB	'M', 00H, 'S', 00H, 'V', 00H, 'C', 00H, '\', 00H, '1', 00H, '4'
	DB	00H, '.', 00H, '2', 00H, '8', 00H, '.', 00H, '2', 00H, '9', 00H
	DB	'3', 00H, '3', 00H, '3', 00H, '\', 00H, 'a', 00H, 't', 00H, 'l'
	DB	00H, 'm', 00H, 'f', 00H, 'c', 00H, '\', 00H, 'i', 00H, 'n', 00H
	DB	'c', 00H, 'l', 00H, 'u', 00H, 'd', 00H, 'e', 00H, '\', 00H, 'a'
	DB	00H, 't', 00H, 'l', 00H, 'w', 00H, 'i', 00H, 'n', 00H, '.', 00H
	DB	'h', 00H, 00H, 00H
$SG197015 DB	'C:\Program Files (x86)\Microsoft Visual Studio\2019\Comm'
	DB	'unity\VC\Tools\MSVC\14.28.29333\atlmfc\include\atlwin.h', 00H
$SG197016 DB	'S', 00H, 'u', 00H, 'b', 00H, 'c', 00H, 'l', 00H, 'a', 00H
	DB	's', 00H, 's', 00H, 'i', 00H, 'n', 00H, 'g', 00H, ' ', 00H, 't'
	DB	00H, 'h', 00H, 'r', 00H, 'o', 00H, 'u', 00H, 'g', 00H, 'h', 00H
	DB	' ', 00H, 'a', 00H, ' ', 00H, 'h', 00H, 'o', 00H, 'o', 00H, 'k'
	DB	00H, ' ', 00H, 'd', 00H, 'i', 00H, 's', 00H, 'c', 00H, 'a', 00H
	DB	'r', 00H, 'd', 00H, 'e', 00H, 'd', 00H, '.', 00H, 0aH, 00H, 00H
	DB	00H
	ORG $+2
$SG197035 DB	'p', 00H, 'T', 00H, 'h', 00H, 'i', 00H, 's', 00H, '-', 00H
	DB	'>', 00H, 'm', 00H, '_', 00H, 'p', 00H, 'C', 00H, 'u', 00H, 'r'
	DB	00H, 'r', 00H, 'e', 00H, 'n', 00H, 't', 00H, 'M', 00H, 's', 00H
	DB	'g', 00H, ' ', 00H, '=', 00H, '=', 00H, ' ', 00H, '&', 00H, 'm'
	DB	00H, 's', 00H, 'g', 00H, 00H, 00H
	ORG $+2
$SG197036 DB	'%', 00H, 'l', 00H, 's', 00H, 00H, 00H
$SG197072 DB	't', 00H, 'h', 00H, 'i', 00H, 's', 00H, '-', 00H, '>', 00H
	DB	'm', 00H, '_', 00H, 'h', 00H, 'W', 00H, 'n', 00H, 'd', 00H, ' '
	DB	00H, '=', 00H, '=', 00H, ' ', 00H, '0', 00H, 00H, 00H
$SG197037 DB	'C', 00H, ':', 00H, '\', 00H, 'P', 00H, 'r', 00H, 'o', 00H
	DB	'g', 00H, 'r', 00H, 'a', 00H, 'm', 00H, ' ', 00H, 'F', 00H, 'i'
	DB	00H, 'l', 00H, 'e', 00H, 's', 00H, ' ', 00H, '(', 00H, 'x', 00H
	DB	'8', 00H, '6', 00H, ')', 00H, '\', 00H, 'M', 00H, 'i', 00H, 'c'
	DB	00H, 'r', 00H, 'o', 00H, 's', 00H, 'o', 00H, 'f', 00H, 't', 00H
	DB	' ', 00H, 'V', 00H, 'i', 00H, 's', 00H, 'u', 00H, 'a', 00H, 'l'
	DB	00H, ' ', 00H, 'S', 00H, 't', 00H, 'u', 00H, 'd', 00H, 'i', 00H
	DB	'o', 00H, '\', 00H, '2', 00H, '0', 00H, '1', 00H, '9', 00H, '\'
	DB	00H, 'C', 00H, 'o', 00H, 'm', 00H, 'm', 00H, 'u', 00H, 'n', 00H
	DB	'i', 00H, 't', 00H, 'y', 00H, '\', 00H, 'V', 00H, 'C', 00H, '\'
	DB	00H, 'T', 00H, 'o', 00H, 'o', 00H, 'l', 00H, 's', 00H, '\', 00H
	DB	'M', 00H, 'S', 00H, 'V', 00H, 'C', 00H, '\', 00H, '1', 00H, '4'
	DB	00H, '.', 00H, '2', 00H, '8', 00H, '.', 00H, '2', 00H, '9', 00H
	DB	'3', 00H, '3', 00H, '3', 00H, '\', 00H, 'a', 00H, 't', 00H, 'l'
	DB	00H, 'm', 00H, 'f', 00H, 'c', 00H, '\', 00H, 'i', 00H, 'n', 00H
	DB	'c', 00H, 'l', 00H, 'u', 00H, 'd', 00H, 'e', 00H, '\', 00H, 'a'
	DB	00H, 't', 00H, 'l', 00H, 'w', 00H, 'i', 00H, 'n', 00H, '.', 00H
	DB	'h', 00H, 00H, 00H
$SG197073 DB	'%', 00H, 'l', 00H, 's', 00H, 00H, 00H
$SG197074 DB	'C', 00H, ':', 00H, '\', 00H, 'P', 00H, 'r', 00H, 'o', 00H
	DB	'g', 00H, 'r', 00H, 'a', 00H, 'm', 00H, ' ', 00H, 'F', 00H, 'i'
	DB	00H, 'l', 00H, 'e', 00H, 's', 00H, ' ', 00H, '(', 00H, 'x', 00H
	DB	'8', 00H, '6', 00H, ')', 00H, '\', 00H, 'M', 00H, 'i', 00H, 'c'
	DB	00H, 'r', 00H, 'o', 00H, 's', 00H, 'o', 00H, 'f', 00H, 't', 00H
	DB	' ', 00H, 'V', 00H, 'i', 00H, 's', 00H, 'u', 00H, 'a', 00H, 'l'
	DB	00H, ' ', 00H, 'S', 00H, 't', 00H, 'u', 00H, 'd', 00H, 'i', 00H
	DB	'o', 00H, '\', 00H, '2', 00H, '0', 00H, '1', 00H, '9', 00H, '\'
	DB	00H, 'C', 00H, 'o', 00H, 'm', 00H, 'm', 00H, 'u', 00H, 'n', 00H
	DB	'i', 00H, 't', 00H, 'y', 00H, '\', 00H, 'V', 00H, 'C', 00H, '\'
	DB	00H, 'T', 00H, 'o', 00H, 'o', 00H, 'l', 00H, 's', 00H, '\', 00H
	DB	'M', 00H, 'S', 00H, 'V', 00H, 'C', 00H, '\', 00H, '1', 00H, '4'
	DB	00H, '.', 00H, '2', 00H, '8', 00H, '.', 00H, '2', 00H, '9', 00H
	DB	'3', 00H, '3', 00H, '3', 00H, '\', 00H, 'a', 00H, 't', 00H, 'l'
	DB	00H, 'm', 00H, 'f', 00H, 'c', 00H, '\', 00H, 'i', 00H, 'n', 00H
	DB	'c', 00H, 'l', 00H, 'u', 00H, 'd', 00H, 'e', 00H, '\', 00H, 'a'
	DB	00H, 't', 00H, 'l', 00H, 'w', 00H, 'i', 00H, 'n', 00H, '.', 00H
	DB	'h', 00H, 00H, 00H
$SG197079 DB	't', 00H, 'h', 00H, 'i', 00H, 's', 00H, '-', 00H, '>', 00H
	DB	'm', 00H, '_', 00H, 'h', 00H, 'W', 00H, 'n', 00H, 'd', 00H, ' '
	DB	00H, '=', 00H, '=', 00H, ' ', 00H, 'h', 00H, 'W', 00H, 'n', 00H
	DB	'd', 00H, 00H, 00H
	ORG $+2
$SG197080 DB	'%', 00H, 'l', 00H, 's', 00H, 00H, 00H
$SG197098 DB	't', 00H, 'h', 00H, 'i', 00H, 's', 00H, '-', 00H, '>', 00H
	DB	'm', 00H, '_', 00H, 'h', 00H, 'W', 00H, 'n', 00H, 'd', 00H, ' '
	DB	00H, '=', 00H, '=', 00H, ' ', 00H, '0', 00H, 00H, 00H
$SG197081 DB	'C', 00H, ':', 00H, '\', 00H, 'P', 00H, 'r', 00H, 'o', 00H
	DB	'g', 00H, 'r', 00H, 'a', 00H, 'm', 00H, ' ', 00H, 'F', 00H, 'i'
	DB	00H, 'l', 00H, 'e', 00H, 's', 00H, ' ', 00H, '(', 00H, 'x', 00H
	DB	'8', 00H, '6', 00H, ')', 00H, '\', 00H, 'M', 00H, 'i', 00H, 'c'
	DB	00H, 'r', 00H, 'o', 00H, 's', 00H, 'o', 00H, 'f', 00H, 't', 00H
	DB	' ', 00H, 'V', 00H, 'i', 00H, 's', 00H, 'u', 00H, 'a', 00H, 'l'
	DB	00H, ' ', 00H, 'S', 00H, 't', 00H, 'u', 00H, 'd', 00H, 'i', 00H
	DB	'o', 00H, '\', 00H, '2', 00H, '0', 00H, '1', 00H, '9', 00H, '\'
	DB	00H, 'C', 00H, 'o', 00H, 'm', 00H, 'm', 00H, 'u', 00H, 'n', 00H
	DB	'i', 00H, 't', 00H, 'y', 00H, '\', 00H, 'V', 00H, 'C', 00H, '\'
	DB	00H, 'T', 00H, 'o', 00H, 'o', 00H, 'l', 00H, 's', 00H, '\', 00H
	DB	'M', 00H, 'S', 00H, 'V', 00H, 'C', 00H, '\', 00H, '1', 00H, '4'
	DB	00H, '.', 00H, '2', 00H, '8', 00H, '.', 00H, '2', 00H, '9', 00H
	DB	'3', 00H, '3', 00H, '3', 00H, '\', 00H, 'a', 00H, 't', 00H, 'l'
	DB	00H, 'm', 00H, 'f', 00H, 'c', 00H, '\', 00H, 'i', 00H, 'n', 00H
	DB	'c', 00H, 'l', 00H, 'u', 00H, 'd', 00H, 'e', 00H, '\', 00H, 'a'
	DB	00H, 't', 00H, 'l', 00H, 'w', 00H, 'i', 00H, 'n', 00H, '.', 00H
	DB	'h', 00H, 00H, 00H
$SG197099 DB	'%', 00H, 'l', 00H, 's', 00H, 00H, 00H
$SG197100 DB	'C', 00H, ':', 00H, '\', 00H, 'P', 00H, 'r', 00H, 'o', 00H
	DB	'g', 00H, 'r', 00H, 'a', 00H, 'm', 00H, ' ', 00H, 'F', 00H, 'i'
	DB	00H, 'l', 00H, 'e', 00H, 's', 00H, ' ', 00H, '(', 00H, 'x', 00H
	DB	'8', 00H, '6', 00H, ')', 00H, '\', 00H, 'M', 00H, 'i', 00H, 'c'
	DB	00H, 'r', 00H, 'o', 00H, 's', 00H, 'o', 00H, 'f', 00H, 't', 00H
	DB	' ', 00H, 'V', 00H, 'i', 00H, 's', 00H, 'u', 00H, 'a', 00H, 'l'
	DB	00H, ' ', 00H, 'S', 00H, 't', 00H, 'u', 00H, 'd', 00H, 'i', 00H
	DB	'o', 00H, '\', 00H, '2', 00H, '0', 00H, '1', 00H, '9', 00H, '\'
	DB	00H, 'C', 00H, 'o', 00H, 'm', 00H, 'm', 00H, 'u', 00H, 'n', 00H
	DB	'i', 00H, 't', 00H, 'y', 00H, '\', 00H, 'V', 00H, 'C', 00H, '\'
	DB	00H, 'T', 00H, 'o', 00H, 'o', 00H, 'l', 00H, 's', 00H, '\', 00H
	DB	'M', 00H, 'S', 00H, 'V', 00H, 'C', 00H, '\', 00H, '1', 00H, '4'
	DB	00H, '.', 00H, '2', 00H, '8', 00H, '.', 00H, '2', 00H, '9', 00H
	DB	'3', 00H, '3', 00H, '3', 00H, '\', 00H, 'a', 00H, 't', 00H, 'l'
	DB	00H, 'm', 00H, 'f', 00H, 'c', 00H, '\', 00H, 'i', 00H, 'n', 00H
	DB	'c', 00H, 'l', 00H, 'u', 00H, 'd', 00H, 'e', 00H, '\', 00H, 'a'
	DB	00H, 't', 00H, 'l', 00H, 'w', 00H, 'i', 00H, 'n', 00H, '.', 00H
	DB	'h', 00H, 00H, 00H
$SG197101 DB	':', 00H, ':', 00H, 'I', 00H, 's', 00H, 'W', 00H, 'i', 00H
	DB	'n', 00H, 'd', 00H, 'o', 00H, 'w', 00H, '(', 00H, 'h', 00H, 'W'
	DB	00H, 'n', 00H, 'd', 00H, ')', 00H, 00H, 00H
	ORG $+2
$SG197102 DB	'%', 00H, 'l', 00H, 's', 00H, 00H, 00H
$SG197121 DB	't', 00H, 'h', 00H, 'i', 00H, 's', 00H, '-', 00H, '>', 00H
	DB	'm', 00H, '_', 00H, 'h', 00H, 'W', 00H, 'n', 00H, 'd', 00H, ' '
	DB	00H, '!', 00H, '=', 00H, ' ', 00H, '0', 00H, 00H, 00H
$SG197103 DB	'C', 00H, ':', 00H, '\', 00H, 'P', 00H, 'r', 00H, 'o', 00H
	DB	'g', 00H, 'r', 00H, 'a', 00H, 'm', 00H, ' ', 00H, 'F', 00H, 'i'
	DB	00H, 'l', 00H, 'e', 00H, 's', 00H, ' ', 00H, '(', 00H, 'x', 00H
	DB	'8', 00H, '6', 00H, ')', 00H, '\', 00H, 'M', 00H, 'i', 00H, 'c'
	DB	00H, 'r', 00H, 'o', 00H, 's', 00H, 'o', 00H, 'f', 00H, 't', 00H
	DB	' ', 00H, 'V', 00H, 'i', 00H, 's', 00H, 'u', 00H, 'a', 00H, 'l'
	DB	00H, ' ', 00H, 'S', 00H, 't', 00H, 'u', 00H, 'd', 00H, 'i', 00H
	DB	'o', 00H, '\', 00H, '2', 00H, '0', 00H, '1', 00H, '9', 00H, '\'
	DB	00H, 'C', 00H, 'o', 00H, 'm', 00H, 'm', 00H, 'u', 00H, 'n', 00H
	DB	'i', 00H, 't', 00H, 'y', 00H, '\', 00H, 'V', 00H, 'C', 00H, '\'
	DB	00H, 'T', 00H, 'o', 00H, 'o', 00H, 'l', 00H, 's', 00H, '\', 00H
	DB	'M', 00H, 'S', 00H, 'V', 00H, 'C', 00H, '\', 00H, '1', 00H, '4'
	DB	00H, '.', 00H, '2', 00H, '8', 00H, '.', 00H, '2', 00H, '9', 00H
	DB	'3', 00H, '3', 00H, '3', 00H, '\', 00H, 'a', 00H, 't', 00H, 'l'
	DB	00H, 'm', 00H, 'f', 00H, 'c', 00H, '\', 00H, 'i', 00H, 'n', 00H
	DB	'c', 00H, 'l', 00H, 'u', 00H, 'd', 00H, 'e', 00H, '\', 00H, 'a'
	DB	00H, 't', 00H, 'l', 00H, 'w', 00H, 'i', 00H, 'n', 00H, '.', 00H
	DB	'h', 00H, 00H, 00H
$SG197122 DB	'%', 00H, 'l', 00H, 's', 00H, 00H, 00H
$SG197123 DB	'C', 00H, ':', 00H, '\', 00H, 'P', 00H, 'r', 00H, 'o', 00H
	DB	'g', 00H, 'r', 00H, 'a', 00H, 'm', 00H, ' ', 00H, 'F', 00H, 'i'
	DB	00H, 'l', 00H, 'e', 00H, 's', 00H, ' ', 00H, '(', 00H, 'x', 00H
	DB	'8', 00H, '6', 00H, ')', 00H, '\', 00H, 'M', 00H, 'i', 00H, 'c'
	DB	00H, 'r', 00H, 'o', 00H, 's', 00H, 'o', 00H, 'f', 00H, 't', 00H
	DB	' ', 00H, 'V', 00H, 'i', 00H, 's', 00H, 'u', 00H, 'a', 00H, 'l'
	DB	00H, ' ', 00H, 'S', 00H, 't', 00H, 'u', 00H, 'd', 00H, 'i', 00H
	DB	'o', 00H, '\', 00H, '2', 00H, '0', 00H, '1', 00H, '9', 00H, '\'
	DB	00H, 'C', 00H, 'o', 00H, 'm', 00H, 'm', 00H, 'u', 00H, 'n', 00H
	DB	'i', 00H, 't', 00H, 'y', 00H, '\', 00H, 'V', 00H, 'C', 00H, '\'
	DB	00H, 'T', 00H, 'o', 00H, 'o', 00H, 'l', 00H, 's', 00H, '\', 00H
	DB	'M', 00H, 'S', 00H, 'V', 00H, 'C', 00H, '\', 00H, '1', 00H, '4'
	DB	00H, '.', 00H, '2', 00H, '8', 00H, '.', 00H, '2', 00H, '9', 00H
	DB	'3', 00H, '3', 00H, '3', 00H, '\', 00H, 'a', 00H, 't', 00H, 'l'
	DB	00H, 'm', 00H, 'f', 00H, 'c', 00H, '\', 00H, 'i', 00H, 'n', 00H
	DB	'c', 00H, 'l', 00H, 'u', 00H, 'd', 00H, 'e', 00H, '\', 00H, 'a'
	DB	00H, 't', 00H, 'l', 00H, 'w', 00H, 'i', 00H, 'n', 00H, '.', 00H
	DB	'h', 00H, 00H, 00H
$SG197145 DB	'p', 00H, 'T', 00H, 'h', 00H, 'i', 00H, 's', 00H, '-', 00H
	DB	'>', 00H, 'm', 00H, '_', 00H, 'p', 00H, 'C', 00H, 'u', 00H, 'r'
	DB	00H, 'r', 00H, 'e', 00H, 'n', 00H, 't', 00H, 'M', 00H, 's', 00H
	DB	'g', 00H, ' ', 00H, '=', 00H, '=', 00H, ' ', 00H, '&', 00H, 'm'
	DB	00H, 's', 00H, 'g', 00H, 00H, 00H
	ORG $+2
$SG197146 DB	'%', 00H, 'l', 00H, 's', 00H, 00H, 00H
$SG197386 DB	'm', 00H, '_', 00H, 'b', 00H, 'e', 00H, 'g', 00H, 'i', 00H
	DB	'n', 00H, ' ', 00H, '=', 00H, '=', 00H, ' ', 00H, '0', 00H, 00H
	DB	00H
	ORG $+2
$SG197147 DB	'C', 00H, ':', 00H, '\', 00H, 'P', 00H, 'r', 00H, 'o', 00H
	DB	'g', 00H, 'r', 00H, 'a', 00H, 'm', 00H, ' ', 00H, 'F', 00H, 'i'
	DB	00H, 'l', 00H, 'e', 00H, 's', 00H, ' ', 00H, '(', 00H, 'x', 00H
	DB	'8', 00H, '6', 00H, ')', 00H, '\', 00H, 'M', 00H, 'i', 00H, 'c'
	DB	00H, 'r', 00H, 'o', 00H, 's', 00H, 'o', 00H, 'f', 00H, 't', 00H
	DB	' ', 00H, 'V', 00H, 'i', 00H, 's', 00H, 'u', 00H, 'a', 00H, 'l'
	DB	00H, ' ', 00H, 'S', 00H, 't', 00H, 'u', 00H, 'd', 00H, 'i', 00H
	DB	'o', 00H, '\', 00H, '2', 00H, '0', 00H, '1', 00H, '9', 00H, '\'
	DB	00H, 'C', 00H, 'o', 00H, 'm', 00H, 'm', 00H, 'u', 00H, 'n', 00H
	DB	'i', 00H, 't', 00H, 'y', 00H, '\', 00H, 'V', 00H, 'C', 00H, '\'
	DB	00H, 'T', 00H, 'o', 00H, 'o', 00H, 'l', 00H, 's', 00H, '\', 00H
	DB	'M', 00H, 'S', 00H, 'V', 00H, 'C', 00H, '\', 00H, '1', 00H, '4'
	DB	00H, '.', 00H, '2', 00H, '8', 00H, '.', 00H, '2', 00H, '9', 00H
	DB	'3', 00H, '3', 00H, '3', 00H, '\', 00H, 'a', 00H, 't', 00H, 'l'
	DB	00H, 'm', 00H, 'f', 00H, 'c', 00H, '\', 00H, 'i', 00H, 'n', 00H
	DB	'c', 00H, 'l', 00H, 'u', 00H, 'd', 00H, 'e', 00H, '\', 00H, 'a'
	DB	00H, 't', 00H, 'l', 00H, 'w', 00H, 'i', 00H, 'n', 00H, '.', 00H
	DB	'h', 00H, 00H, 00H
$SG197205 DB	'p', 00H, 'p', 00H, ' ', 00H, '!', 00H, '=', 00H, ' ', 00H
	DB	'0', 00H, 00H, 00H
$SG197206 DB	'%', 00H, 'l', 00H, 's', 00H, 00H, 00H
$SG197207 DB	'C', 00H, ':', 00H, '\', 00H, 'D', 00H, 'e', 00H, 'v', 00H
	DB	'e', 00H, 'l', 00H, 'o', 00H, 'p', 00H, '\', 00H, 'O', 00H, 'P'
	DB	00H, 'O', 00H, 'S', 00H, '-', 00H, 'C', 00H, 'C', 00H, 'O', 00H
	DB	'\', 00H, 'C', 00H, 'o', 00H, 'm', 00H, 'm', 00H, 'o', 00H, 'n'
	DB	00H, '\', 00H, 'A', 00H, 'T', 00H, 'L', 00H, '\', 00H, 'a', 00H
	DB	't', 00H, 'l', 00H, 'c', 00H, 'o', 00H, 'm', 00H, '.', 00H, 'h'
	DB	00H, 00H, 00H
$SG197232 DB	'p', 00H, 'p', 00H, ' ', 00H, '!', 00H, '=', 00H, ' ', 00H
	DB	'0', 00H, 00H, 00H
$SG197233 DB	'%', 00H, 'l', 00H, 's', 00H, 00H, 00H
$SG197234 DB	'C', 00H, ':', 00H, '\', 00H, 'D', 00H, 'e', 00H, 'v', 00H
	DB	'e', 00H, 'l', 00H, 'o', 00H, 'p', 00H, '\', 00H, 'O', 00H, 'P'
	DB	00H, 'O', 00H, 'S', 00H, '-', 00H, 'C', 00H, 'C', 00H, 'O', 00H
	DB	'\', 00H, 'C', 00H, 'o', 00H, 'm', 00H, 'm', 00H, 'o', 00H, 'n'
	DB	00H, '\', 00H, 'A', 00H, 'T', 00H, 'L', 00H, '\', 00H, 'a', 00H
	DB	't', 00H, 'l', 00H, 'c', 00H, 'o', 00H, 'm', 00H, '.', 00H, 'h'
	DB	00H, 00H, 00H
$SG197387 DB	'%', 00H, 'l', 00H, 's', 00H, 00H, 00H
$SG197388 DB	'C', 00H, ':', 00H, '\', 00H, 'D', 00H, 'e', 00H, 'v', 00H
	DB	'e', 00H, 'l', 00H, 'o', 00H, 'p', 00H, '\', 00H, 'O', 00H, 'P'
	DB	00H, 'O', 00H, 'S', 00H, '-', 00H, 'C', 00H, 'C', 00H, 'O', 00H
	DB	'\', 00H, 'C', 00H, 'o', 00H, 'm', 00H, 'm', 00H, 'o', 00H, 'n'
	DB	00H, '\', 00H, 'A', 00H, 'T', 00H, 'L', 00H, '\', 00H, 'a', 00H
	DB	't', 00H, 'l', 00H, 'c', 00H, 'o', 00H, 'm', 00H, '.', 00H, 'h'
	DB	00H, 00H, 00H
$SG197417 DB	'h', 00H, 'D', 00H, 'a', 00H, 't', 00H, 'a', 00H, ' ', 00H
	DB	'!', 00H, '=', 00H, ' ', 00H, '0', 00H, 00H, 00H
	ORG $+2
$SG197418 DB	'%', 00H, 'l', 00H, 's', 00H, 00H, 00H
$SG197419 DB	'C', 00H, ':', 00H, '\', 00H, 'P', 00H, 'r', 00H, 'o', 00H
	DB	'g', 00H, 'r', 00H, 'a', 00H, 'm', 00H, ' ', 00H, 'F', 00H, 'i'
	DB	00H, 'l', 00H, 'e', 00H, 's', 00H, ' ', 00H, '(', 00H, 'x', 00H
	DB	'8', 00H, '6', 00H, ')', 00H, '\', 00H, 'M', 00H, 'i', 00H, 'c'
	DB	00H, 'r', 00H, 'o', 00H, 's', 00H, 'o', 00H, 'f', 00H, 't', 00H
	DB	' ', 00H, 'V', 00H, 'i', 00H, 's', 00H, 'u', 00H, 'a', 00H, 'l'
	DB	00H, ' ', 00H, 'S', 00H, 't', 00H, 'u', 00H, 'd', 00H, 'i', 00H
	DB	'o', 00H, '\', 00H, '2', 00H, '0', 00H, '1', 00H, '9', 00H, '\'
	DB	00H, 'C', 00H, 'o', 00H, 'm', 00H, 'm', 00H, 'u', 00H, 'n', 00H
	DB	'i', 00H, 't', 00H, 'y', 00H, '\', 00H, 'V', 00H, 'C', 00H, '\'
	DB	00H, 'T', 00H, 'o', 00H, 'o', 00H, 'l', 00H, 's', 00H, '\', 00H
	DB	'M', 00H, 'S', 00H, 'V', 00H, 'C', 00H, '\', 00H, '1', 00H, '4'
	DB	00H, '.', 00H, '2', 00H, '8', 00H, '.', 00H, '2', 00H, '9', 00H
	DB	'3', 00H, '3', 00H, '3', 00H, '\', 00H, 'a', 00H, 't', 00H, 'l'
	DB	00H, 'm', 00H, 'f', 00H, 'c', 00H, '\', 00H, 'i', 00H, 'n', 00H
	DB	'c', 00H, 'l', 00H, 'u', 00H, 'd', 00H, 'e', 00H, '\', 00H, 'a'
	DB	00H, 't', 00H, 'l', 00H, 'h', 00H, 'o', 00H, 's', 00H, 't', 00H
	DB	'.', 00H, 'h', 00H, 00H, 00H
	ORG $+2
$SG197453 DB	'h', 00H, 'D', 00H, 'a', 00H, 't', 00H, 'a', 00H, ' ', 00H
	DB	'!', 00H, '=', 00H, ' ', 00H, '0', 00H, 00H, 00H
	ORG $+2
$SG197454 DB	'%', 00H, 'l', 00H, 's', 00H, 00H, 00H
$SG198090 DB	'm', 00H, '_', 00H, 'b', 00H, 'e', 00H, 'g', 00H, 'i', 00H
	DB	'n', 00H, ' ', 00H, '=', 00H, '=', 00H, ' ', 00H, '0', 00H, 00H
	DB	00H
	ORG $+2
$SG197455 DB	'C', 00H, ':', 00H, '\', 00H, 'P', 00H, 'r', 00H, 'o', 00H
	DB	'g', 00H, 'r', 00H, 'a', 00H, 'm', 00H, ' ', 00H, 'F', 00H, 'i'
	DB	00H, 'l', 00H, 'e', 00H, 's', 00H, ' ', 00H, '(', 00H, 'x', 00H
	DB	'8', 00H, '6', 00H, ')', 00H, '\', 00H, 'M', 00H, 'i', 00H, 'c'
	DB	00H, 'r', 00H, 'o', 00H, 's', 00H, 'o', 00H, 'f', 00H, 't', 00H
	DB	' ', 00H, 'V', 00H, 'i', 00H, 's', 00H, 'u', 00H, 'a', 00H, 'l'
	DB	00H, ' ', 00H, 'S', 00H, 't', 00H, 'u', 00H, 'd', 00H, 'i', 00H
	DB	'o', 00H, '\', 00H, '2', 00H, '0', 00H, '1', 00H, '9', 00H, '\'
	DB	00H, 'C', 00H, 'o', 00H, 'm', 00H, 'm', 00H, 'u', 00H, 'n', 00H
	DB	'i', 00H, 't', 00H, 'y', 00H, '\', 00H, 'V', 00H, 'C', 00H, '\'
	DB	00H, 'T', 00H, 'o', 00H, 'o', 00H, 'l', 00H, 's', 00H, '\', 00H
	DB	'M', 00H, 'S', 00H, 'V', 00H, 'C', 00H, '\', 00H, '1', 00H, '4'
	DB	00H, '.', 00H, '2', 00H, '8', 00H, '.', 00H, '2', 00H, '9', 00H
	DB	'3', 00H, '3', 00H, '3', 00H, '\', 00H, 'a', 00H, 't', 00H, 'l'
	DB	00H, 'm', 00H, 'f', 00H, 'c', 00H, '\', 00H, 'i', 00H, 'n', 00H
	DB	'c', 00H, 'l', 00H, 'u', 00H, 'd', 00H, 'e', 00H, '\', 00H, 'a'
	DB	00H, 't', 00H, 'l', 00H, 'h', 00H, 'o', 00H, 's', 00H, 't', 00H
	DB	'.', 00H, 'h', 00H, 00H, 00H
	ORG $+2
$SG197489 DB	'h', 00H, 'D', 00H, 'a', 00H, 't', 00H, 'a', 00H, ' ', 00H
	DB	'!', 00H, '=', 00H, ' ', 00H, '0', 00H, 00H, 00H
	ORG $+2
$SG197490 DB	'%', 00H, 'l', 00H, 's', 00H, 00H, 00H
$SG198471 DB	'm', 00H, '_', 00H, 'b', 00H, 'e', 00H, 'g', 00H, 'i', 00H
	DB	'n', 00H, ' ', 00H, '=', 00H, '=', 00H, ' ', 00H, '0', 00H, 00H
	DB	00H
	ORG $+2
$SG197491 DB	'C', 00H, ':', 00H, '\', 00H, 'P', 00H, 'r', 00H, 'o', 00H
	DB	'g', 00H, 'r', 00H, 'a', 00H, 'm', 00H, ' ', 00H, 'F', 00H, 'i'
	DB	00H, 'l', 00H, 'e', 00H, 's', 00H, ' ', 00H, '(', 00H, 'x', 00H
	DB	'8', 00H, '6', 00H, ')', 00H, '\', 00H, 'M', 00H, 'i', 00H, 'c'
	DB	00H, 'r', 00H, 'o', 00H, 's', 00H, 'o', 00H, 'f', 00H, 't', 00H
	DB	' ', 00H, 'V', 00H, 'i', 00H, 's', 00H, 'u', 00H, 'a', 00H, 'l'
	DB	00H, ' ', 00H, 'S', 00H, 't', 00H, 'u', 00H, 'd', 00H, 'i', 00H
	DB	'o', 00H, '\', 00H, '2', 00H, '0', 00H, '1', 00H, '9', 00H, '\'
	DB	00H, 'C', 00H, 'o', 00H, 'm', 00H, 'm', 00H, 'u', 00H, 'n', 00H
	DB	'i', 00H, 't', 00H, 'y', 00H, '\', 00H, 'V', 00H, 'C', 00H, '\'
	DB	00H, 'T', 00H, 'o', 00H, 'o', 00H, 'l', 00H, 's', 00H, '\', 00H
	DB	'M', 00H, 'S', 00H, 'V', 00H, 'C', 00H, '\', 00H, '1', 00H, '4'
	DB	00H, '.', 00H, '2', 00H, '8', 00H, '.', 00H, '2', 00H, '9', 00H
	DB	'3', 00H, '3', 00H, '3', 00H, '\', 00H, 'a', 00H, 't', 00H, 'l'
	DB	00H, 'm', 00H, 'f', 00H, 'c', 00H, '\', 00H, 'i', 00H, 'n', 00H
	DB	'c', 00H, 'l', 00H, 'u', 00H, 'd', 00H, 'e', 00H, '\', 00H, 'a'
	DB	00H, 't', 00H, 'l', 00H, 'h', 00H, 'o', 00H, 's', 00H, 't', 00H
	DB	'.', 00H, 'h', 00H, 00H, 00H
	ORG $+2
$SG197525 DB	'h', 00H, 'D', 00H, 'a', 00H, 't', 00H, 'a', 00H, ' ', 00H
	DB	'!', 00H, '=', 00H, ' ', 00H, '0', 00H, 00H, 00H
	ORG $+2
$SG197526 DB	'%', 00H, 'l', 00H, 's', 00H, 00H, 00H
$SG182609 DB	':', 00H, 00H, 00H
$SG197527 DB	'C', 00H, ':', 00H, '\', 00H, 'P', 00H, 'r', 00H, 'o', 00H
	DB	'g', 00H, 'r', 00H, 'a', 00H, 'm', 00H, ' ', 00H, 'F', 00H, 'i'
	DB	00H, 'l', 00H, 'e', 00H, 's', 00H, ' ', 00H, '(', 00H, 'x', 00H
	DB	'8', 00H, '6', 00H, ')', 00H, '\', 00H, 'M', 00H, 'i', 00H, 'c'
	DB	00H, 'r', 00H, 'o', 00H, 's', 00H, 'o', 00H, 'f', 00H, 't', 00H
	DB	' ', 00H, 'V', 00H, 'i', 00H, 's', 00H, 'u', 00H, 'a', 00H, 'l'
	DB	00H, ' ', 00H, 'S', 00H, 't', 00H, 'u', 00H, 'd', 00H, 'i', 00H
	DB	'o', 00H, '\', 00H, '2', 00H, '0', 00H, '1', 00H, '9', 00H, '\'
	DB	00H, 'C', 00H, 'o', 00H, 'm', 00H, 'm', 00H, 'u', 00H, 'n', 00H
	DB	'i', 00H, 't', 00H, 'y', 00H, '\', 00H, 'V', 00H, 'C', 00H, '\'
	DB	00H, 'T', 00H, 'o', 00H, 'o', 00H, 'l', 00H, 's', 00H, '\', 00H
	DB	'M', 00H, 'S', 00H, 'V', 00H, 'C', 00H, '\', 00H, '1', 00H, '4'
	DB	00H, '.', 00H, '2', 00H, '8', 00H, '.', 00H, '2', 00H, '9', 00H
	DB	'3', 00H, '3', 00H, '3', 00H, '\', 00H, 'a', 00H, 't', 00H, 'l'
	DB	00H, 'm', 00H, 'f', 00H, 'c', 00H, '\', 00H, 'i', 00H, 'n', 00H
	DB	'c', 00H, 'l', 00H, 'u', 00H, 'd', 00H, 'e', 00H, '\', 00H, 'a'
	DB	00H, 't', 00H, 'l', 00H, 'h', 00H, 'o', 00H, 's', 00H, 't', 00H
	DB	'.', 00H, 'h', 00H, 00H, 00H
	ORG $+2
$SG198091 DB	'%', 00H, 'l', 00H, 's', 00H, 00H, 00H
$SG93305 DB	'a', 00H, 't', 00H, 'l', 00H, 'T', 00H, 'r', 00H, 'a', 00H
	DB	'c', 00H, 'e', 00H, 'R', 00H, 'e', 00H, 'g', 00H, 'i', 00H, 's'
	DB	00H, 't', 00H, 'r', 00H, 'a', 00H, 'r', 00H, 00H, 00H
$SG198092 DB	'C', 00H, ':', 00H, '\', 00H, 'D', 00H, 'e', 00H, 'v', 00H
	DB	'e', 00H, 'l', 00H, 'o', 00H, 'p', 00H, '\', 00H, 'O', 00H, 'P'
	DB	00H, 'O', 00H, 'S', 00H, '-', 00H, 'C', 00H, 'C', 00H, 'O', 00H
	DB	'\', 00H, 'C', 00H, 'o', 00H, 'm', 00H, 'm', 00H, 'o', 00H, 'n'
	DB	00H, '\', 00H, 'A', 00H, 'T', 00H, 'L', 00H, '\', 00H, 'a', 00H
	DB	't', 00H, 'l', 00H, 'c', 00H, 'o', 00H, 'm', 00H, '.', 00H, 'h'
	DB	00H, 00H, 00H
$SG198293 DB	'p', 00H, 'p', 00H, ' ', 00H, '!', 00H, '=', 00H, ' ', 00H
	DB	'0', 00H, 00H, 00H
$SG198294 DB	'%', 00H, 'l', 00H, 's', 00H, 00H, 00H
$SG198295 DB	'C', 00H, ':', 00H, '\', 00H, 'D', 00H, 'e', 00H, 'v', 00H
	DB	'e', 00H, 'l', 00H, 'o', 00H, 'p', 00H, '\', 00H, 'O', 00H, 'P'
	DB	00H, 'O', 00H, 'S', 00H, '-', 00H, 'C', 00H, 'C', 00H, 'O', 00H
	DB	'\', 00H, 'C', 00H, 'o', 00H, 'm', 00H, 'm', 00H, 'o', 00H, 'n'
	DB	00H, '\', 00H, 'A', 00H, 'T', 00H, 'L', 00H, '\', 00H, 'a', 00H
	DB	't', 00H, 'l', 00H, 'c', 00H, 'o', 00H, 'm', 00H, '.', 00H, 'h'
	DB	00H, 00H, 00H
$SG198320 DB	'p', 00H, 'p', 00H, ' ', 00H, '!', 00H, '=', 00H, ' ', 00H
	DB	'0', 00H, 00H, 00H
$SG198321 DB	'%', 00H, 'l', 00H, 's', 00H, 00H, 00H
$SG198322 DB	'C', 00H, ':', 00H, '\', 00H, 'D', 00H, 'e', 00H, 'v', 00H
	DB	'e', 00H, 'l', 00H, 'o', 00H, 'p', 00H, '\', 00H, 'O', 00H, 'P'
	DB	00H, 'O', 00H, 'S', 00H, '-', 00H, 'C', 00H, 'C', 00H, 'O', 00H
	DB	'\', 00H, 'C', 00H, 'o', 00H, 'm', 00H, 'm', 00H, 'o', 00H, 'n'
	DB	00H, '\', 00H, 'A', 00H, 'T', 00H, 'L', 00H, '\', 00H, 'a', 00H
	DB	't', 00H, 'l', 00H, 'c', 00H, 'o', 00H, 'm', 00H, '.', 00H, 'h'
	DB	00H, 00H, 00H
$SG198472 DB	'%', 00H, 'l', 00H, 's', 00H, 00H, 00H
$SG198473 DB	'C', 00H, ':', 00H, '\', 00H, 'D', 00H, 'e', 00H, 'v', 00H
	DB	'e', 00H, 'l', 00H, 'o', 00H, 'p', 00H, '\', 00H, 'O', 00H, 'P'
	DB	00H, 'O', 00H, 'S', 00H, '-', 00H, 'C', 00H, 'C', 00H, 'O', 00H
	DB	'\', 00H, 'C', 00H, 'o', 00H, 'm', 00H, 'm', 00H, 'o', 00H, 'n'
	DB	00H, '\', 00H, 'A', 00H, 'T', 00H, 'L', 00H, '\', 00H, 'a', 00H
	DB	't', 00H, 'l', 00H, 'c', 00H, 'o', 00H, 'm', 00H, '.', 00H, 'h'
	DB	00H, 00H, 00H
$SG198495 DB	'p', 00H, 'p', 00H, ' ', 00H, '!', 00H, '=', 00H, ' ', 00H
	DB	'0', 00H, 00H, 00H
$SG198496 DB	'%', 00H, 'l', 00H, 's', 00H, 00H, 00H
$SG198497 DB	'C', 00H, ':', 00H, '\', 00H, 'D', 00H, 'e', 00H, 'v', 00H
	DB	'e', 00H, 'l', 00H, 'o', 00H, 'p', 00H, '\', 00H, 'O', 00H, 'P'
	DB	00H, 'O', 00H, 'S', 00H, '-', 00H, 'C', 00H, 'C', 00H, 'O', 00H
	DB	'\', 00H, 'C', 00H, 'o', 00H, 'm', 00H, 'm', 00H, 'o', 00H, 'n'
	DB	00H, '\', 00H, 'A', 00H, 'T', 00H, 'L', 00H, '\', 00H, 'a', 00H
	DB	't', 00H, 'l', 00H, 'c', 00H, 'o', 00H, 'm', 00H, '.', 00H, 'h'
	DB	00H, 00H, 00H
$SG182592 DB	'p', 00H, 'p', 00H, 'v', 00H, 'O', 00H, 'b', 00H, 'j', 00H
	DB	00H, 00H
	ORG $+2
$SG182593 DB	'%', 00H, 'l', 00H, 's', 00H, 00H, 00H
$SG182594 DB	'C', 00H, ':', 00H, '\', 00H, 'P', 00H, 'r', 00H, 'o', 00H
	DB	'g', 00H, 'r', 00H, 'a', 00H, 'm', 00H, ' ', 00H, 'F', 00H, 'i'
	DB	00H, 'l', 00H, 'e', 00H, 's', 00H, ' ', 00H, '(', 00H, 'x', 00H
	DB	'8', 00H, '6', 00H, ')', 00H, '\', 00H, 'M', 00H, 'i', 00H, 'c'
	DB	00H, 'r', 00H, 'o', 00H, 's', 00H, 'o', 00H, 'f', 00H, 't', 00H
	DB	' ', 00H, 'V', 00H, 'i', 00H, 's', 00H, 'u', 00H, 'a', 00H, 'l'
	DB	00H, ' ', 00H, 'S', 00H, 't', 00H, 'u', 00H, 'd', 00H, 'i', 00H
	DB	'o', 00H, '\', 00H, '2', 00H, '0', 00H, '1', 00H, '9', 00H, '\'
	DB	00H, 'C', 00H, 'o', 00H, 'm', 00H, 'm', 00H, 'u', 00H, 'n', 00H
	DB	'i', 00H, 't', 00H, 'y', 00H, '\', 00H, 'V', 00H, 'C', 00H, '\'
	DB	00H, 'T', 00H, 'o', 00H, 'o', 00H, 'l', 00H, 's', 00H, '\', 00H
	DB	'M', 00H, 'S', 00H, 'V', 00H, 'C', 00H, '\', 00H, '1', 00H, '4'
	DB	00H, '.', 00H, '2', 00H, '8', 00H, '.', 00H, '2', 00H, '9', 00H
	DB	'3', 00H, '3', 00H, '3', 00H, '\', 00H, 'a', 00H, 't', 00H, 'l'
	DB	00H, 'm', 00H, 'f', 00H, 'c', 00H, '\', 00H, 'i', 00H, 'n', 00H
	DB	'c', 00H, 'l', 00H, 'u', 00H, 'd', 00H, 'e', 00H, '\', 00H, 'a'
	DB	00H, 't', 00H, 'l', 00H, 'h', 00H, 'o', 00H, 's', 00H, 't', 00H
	DB	'.', 00H, 'h', 00H, 00H, 00H
	ORG $+2
$SG93134 DB	'a', 00H, 't', 00H, 'l', 00H, 'T', 00H, 'r', 00H, 'a', 00H
	DB	'c', 00H, 'e', 00H, 'G', 00H, 'e', 00H, 'n', 00H, 'e', 00H, 'r'
	DB	00H, 'a', 00H, 'l', 00H, 00H, 00H
$SG93207 DB	'a', 00H, 't', 00H, 'l', 00H, 'T', 00H, 'r', 00H, 'a', 00H
	DB	'c', 00H, 'e', 00H, 'C', 00H, 'O', 00H, 'M', 00H, 00H, 00H
$SG93256 DB	'a', 00H, 't', 00H, 'l', 00H, 'T', 00H, 'r', 00H, 'a', 00H
	DB	'c', 00H, 'e', 00H, 'Q', 00H, 'I', 00H, 00H, 00H
	ORG $+2
$SG93354 DB	'a', 00H, 't', 00H, 'l', 00H, 'T', 00H, 'r', 00H, 'a', 00H
	DB	'c', 00H, 'e', 00H, 'R', 00H, 'e', 00H, 'f', 00H, 'c', 00H, 'o'
	DB	00H, 'u', 00H, 'n', 00H, 't', 00H, 00H, 00H
	ORG $+2
$SG93403 DB	'a', 00H, 't', 00H, 'l', 00H, 'T', 00H, 'r', 00H, 'a', 00H
	DB	'c', 00H, 'e', 00H, 'W', 00H, 'i', 00H, 'n', 00H, 'd', 00H, 'o'
	DB	00H, 'w', 00H, 'i', 00H, 'n', 00H, 'g', 00H, 00H, 00H
$SG93452 DB	'a', 00H, 't', 00H, 'l', 00H, 'T', 00H, 'r', 00H, 'a', 00H
	DB	'c', 00H, 'e', 00H, 'C', 00H, 'o', 00H, 'n', 00H, 't', 00H, 'r'
	DB	00H, 'o', 00H, 'l', 00H, 's', 00H, 00H, 00H
	ORG $+2
$SG93501 DB	'a', 00H, 't', 00H, 'l', 00H, 'T', 00H, 'r', 00H, 'a', 00H
	DB	'c', 00H, 'e', 00H, 'H', 00H, 'o', 00H, 's', 00H, 't', 00H, 'i'
	DB	00H, 'n', 00H, 'g', 00H, 00H, 00H
$SG93550 DB	'a', 00H, 't', 00H, 'l', 00H, 'T', 00H, 'r', 00H, 'a', 00H
	DB	'c', 00H, 'e', 00H, 'D', 00H, 'B', 00H, 'C', 00H, 'l', 00H, 'i'
	DB	00H, 'e', 00H, 'n', 00H, 't', 00H, 00H, 00H
	ORG $+2
$SG93599 DB	'a', 00H, 't', 00H, 'l', 00H, 'T', 00H, 'r', 00H, 'a', 00H
	DB	'c', 00H, 'e', 00H, 'D', 00H, 'B', 00H, 'P', 00H, 'r', 00H, 'o'
	DB	00H, 'v', 00H, 'i', 00H, 'd', 00H, 'e', 00H, 'r', 00H, 00H, 00H
	ORG $+2
$SG93648 DB	'a', 00H, 't', 00H, 'l', 00H, 'T', 00H, 'r', 00H, 'a', 00H
	DB	'c', 00H, 'e', 00H, 'S', 00H, 'n', 00H, 'a', 00H, 'p', 00H, 'i'
	DB	00H, 'n', 00H, 00H, 00H
	ORG $+2
$SG93697 DB	'a', 00H, 't', 00H, 'l', 00H, 'T', 00H, 'r', 00H, 'a', 00H
	DB	'c', 00H, 'e', 00H, 'N', 00H, 'o', 00H, 't', 00H, 'I', 00H, 'm'
	DB	00H, 'p', 00H, 'l', 00H, 00H, 00H
$SG93746 DB	'a', 00H, 't', 00H, 'l', 00H, 'T', 00H, 'r', 00H, 'a', 00H
	DB	'c', 00H, 'e', 00H, 'A', 00H, 'l', 00H, 'l', 00H, 'o', 00H, 'c'
	DB	00H, 'a', 00H, 't', 00H, 'i', 00H, 'o', 00H, 'n', 00H, 00H, 00H
	ORG $+2
$SG93795 DB	'a', 00H, 't', 00H, 'l', 00H, 'T', 00H, 'r', 00H, 'a', 00H
	DB	'c', 00H, 'e', 00H, 'E', 00H, 'x', 00H, 'c', 00H, 'e', 00H, 'p'
	DB	00H, 't', 00H, 'i', 00H, 'o', 00H, 'n', 00H, 00H, 00H
$SG93844 DB	'a', 00H, 't', 00H, 'l', 00H, 'T', 00H, 'r', 00H, 'a', 00H
	DB	'c', 00H, 'e', 00H, 'T', 00H, 'i', 00H, 'm', 00H, 'e', 00H, 00H
	DB	00H
	ORG $+2
$SG93893 DB	'a', 00H, 't', 00H, 'l', 00H, 'T', 00H, 'r', 00H, 'a', 00H
	DB	'c', 00H, 'e', 00H, 'C', 00H, 'a', 00H, 'c', 00H, 'h', 00H, 'e'
	DB	00H, 00H, 00H
$SG93942 DB	'a', 00H, 't', 00H, 'l', 00H, 'T', 00H, 'r', 00H, 'a', 00H
	DB	'c', 00H, 'e', 00H, 'S', 00H, 't', 00H, 'e', 00H, 'n', 00H, 'c'
	DB	00H, 'i', 00H, 'l', 00H, 00H, 00H
$SG93991 DB	'a', 00H, 't', 00H, 'l', 00H, 'T', 00H, 'r', 00H, 'a', 00H
	DB	'c', 00H, 'e', 00H, 'S', 00H, 't', 00H, 'r', 00H, 'i', 00H, 'n'
	DB	00H, 'g', 00H, 00H, 00H
	ORG $+2
$SG94040 DB	'a', 00H, 't', 00H, 'l', 00H, 'T', 00H, 'r', 00H, 'a', 00H
	DB	'c', 00H, 'e', 00H, 'M', 00H, 'a', 00H, 'p', 00H, 00H, 00H
$SG94045 DB	'a', 00H, 't', 00H, 'l', 00H, 'T', 00H, 'r', 00H, 'a', 00H
	DB	'c', 00H, 'e', 00H, 'U', 00H, 't', 00H, 'i', 00H, 'l', 00H, 00H
	DB	00H
	ORG $+2
$SG94094 DB	'a', 00H, 't', 00H, 'l', 00H, 'T', 00H, 'r', 00H, 'a', 00H
	DB	'c', 00H, 'e', 00H, 'S', 00H, 'e', 00H, 'c', 00H, 'u', 00H, 'r'
	DB	00H, 'i', 00H, 't', 00H, 'y', 00H, 00H, 00H
	ORG $+2
$SG94143 DB	'a', 00H, 't', 00H, 'l', 00H, 'T', 00H, 'r', 00H, 'a', 00H
	DB	'c', 00H, 'e', 00H, 'S', 00H, 'y', 00H, 'n', 00H, 'c', 00H, 00H
	DB	00H
	ORG $+2
$SG94192 DB	'a', 00H, 't', 00H, 'l', 00H, 'T', 00H, 'r', 00H, 'a', 00H
	DB	'c', 00H, 'e', 00H, 'I', 00H, 'S', 00H, 'A', 00H, 'P', 00H, 'I'
	DB	00H, 00H, 00H
$SG111362 DB	'S', 00H, 00H, 00H
$SG111364 DB	'M', 00H, 00H, 00H
$SG111366 DB	'D', 00H, 00H, 00H
$SG111368 DB	'B', 00H, 00H, 00H
$SG111370 DB	'V', 00H, 'a', 00H, 'l', 00H, 00H, 00H
$SG111372 DB	'F', 00H, 'o', 00H, 'r', 00H, 'c', 00H, 'e', 00H, 'R', 00H
	DB	'e', 00H, 'm', 00H, 'o', 00H, 'v', 00H, 'e', 00H, 00H, 00H
$SG111374 DB	'N', 00H, 'o', 00H, 'R', 00H, 'e', 00H, 'm', 00H, 'o', 00H
	DB	'v', 00H, 'e', 00H, 00H, 00H
	ORG $+2
$SG111376 DB	'D', 00H, 'e', 00H, 'l', 00H, 'e', 00H, 't', 00H, 'e', 00H
	DB	00H, 00H
	ORG $+2
$SG112072 DB	'A', 00H, 'p', 00H, 'p', 00H, 'I', 00H, 'D', 00H, 00H, 00H
$SG112073 DB	'C', 00H, 'L', 00H, 'S', 00H, 'I', 00H, 'D', 00H, 00H, 00H
$SG112074 DB	'C', 00H, 'o', 00H, 'm', 00H, 'p', 00H, 'o', 00H, 'n', 00H
	DB	'e', 00H, 'n', 00H, 't', 00H, ' ', 00H, 'C', 00H, 'a', 00H, 't'
	DB	00H, 'e', 00H, 'g', 00H, 'o', 00H, 'r', 00H, 'i', 00H, 'e', 00H
	DB	's', 00H, 00H, 00H
	ORG $+2
$SG112075 DB	'F', 00H, 'i', 00H, 'l', 00H, 'e', 00H, 'T', 00H, 'y', 00H
	DB	'p', 00H, 'e', 00H, 00H, 00H
	ORG $+2
$SG112076 DB	'I', 00H, 'n', 00H, 't', 00H, 'e', 00H, 'r', 00H, 'f', 00H
	DB	'a', 00H, 'c', 00H, 'e', 00H, 00H, 00H
$SG112077 DB	'H', 00H, 'a', 00H, 'r', 00H, 'd', 00H, 'w', 00H, 'a', 00H
	DB	'r', 00H, 'e', 00H, 00H, 00H
	ORG $+2
$SG112078 DB	'M', 00H, 'i', 00H, 'm', 00H, 'e', 00H, 00H, 00H
	ORG $+2
$SG112079 DB	'S', 00H, 'A', 00H, 'M', 00H, 00H, 00H
$SG112080 DB	'S', 00H, 'E', 00H, 'C', 00H, 'U', 00H, 'R', 00H, 'I', 00H
	DB	'T', 00H, 'Y', 00H, 00H, 00H
	ORG $+2
$SG112081 DB	'S', 00H, 'Y', 00H, 'S', 00H, 'T', 00H, 'E', 00H, 'M', 00H
	DB	00H, 00H
	ORG $+2
$SG112082 DB	'S', 00H, 'o', 00H, 'f', 00H, 't', 00H, 'w', 00H, 'a', 00H
	DB	'r', 00H, 'e', 00H, 00H, 00H
	ORG $+2
$SG112083 DB	'T', 00H, 'y', 00H, 'p', 00H, 'e', 00H, 'L', 00H, 'i', 00H
	DB	'b', 00H, 00H, 00H
$SG186909 DB	00H, 00H
	ORG $+2
$SG186913 DB	'_', 00H, '_', 00H, 'a', 00H, 't', 00H, 'l', 00H, '_', 00H
	DB	'c', 00H, 'o', 00H, 'n', 00H, 'd', 00H, 'V', 00H, 'a', 00H, 'l'
	DB	00H, 00H, 00H
$SG186914 DB	'%', 00H, 'l', 00H, 's', 00H, 00H, 00H
$SG186915 DB	'C', 00H, ':', 00H, '\', 00H, 'P', 00H, 'r', 00H, 'o', 00H
	DB	'g', 00H, 'r', 00H, 'a', 00H, 'm', 00H, ' ', 00H, 'F', 00H, 'i'
	DB	00H, 'l', 00H, 'e', 00H, 's', 00H, ' ', 00H, '(', 00H, 'x', 00H
	DB	'8', 00H, '6', 00H, ')', 00H, '\', 00H, 'M', 00H, 'i', 00H, 'c'
	DB	00H, 'r', 00H, 'o', 00H, 's', 00H, 'o', 00H, 'f', 00H, 't', 00H
	DB	' ', 00H, 'V', 00H, 'i', 00H, 's', 00H, 'u', 00H, 'a', 00H, 'l'
	DB	00H, ' ', 00H, 'S', 00H, 't', 00H, 'u', 00H, 'd', 00H, 'i', 00H
	DB	'o', 00H, '\', 00H, '2', 00H, '0', 00H, '1', 00H, '9', 00H, '\'
	DB	00H, 'C', 00H, 'o', 00H, 'm', 00H, 'm', 00H, 'u', 00H, 'n', 00H
	DB	'i', 00H, 't', 00H, 'y', 00H, '\', 00H, 'V', 00H, 'C', 00H, '\'
	DB	00H, 'T', 00H, 'o', 00H, 'o', 00H, 'l', 00H, 's', 00H, '\', 00H
	DB	'M', 00H, 'S', 00H, 'V', 00H, 'C', 00H, '\', 00H, '1', 00H, '4'
	DB	00H, '.', 00H, '2', 00H, '8', 00H, '.', 00H, '2', 00H, '9', 00H
	DB	'3', 00H, '3', 00H, '3', 00H, '\', 00H, 'a', 00H, 't', 00H, 'l'
	DB	00H, 'm', 00H, 'f', 00H, 'c', 00H, '\', 00H, 'i', 00H, 'n', 00H
	DB	'c', 00H, 'l', 00H, 'u', 00H, 'd', 00H, 'e', 00H, '\', 00H, 'a'
	DB	00H, 't', 00H, 'l', 00H, 'h', 00H, 'o', 00H, 's', 00H, 't', 00H
	DB	'.', 00H, 'h', 00H, 00H, 00H
	ORG $+2
$SG186918 DB	'l', 00H, 'p', 00H, 's', 00H, 'z', 00H, 'N', 00H, 'a', 00H
	DB	'm', 00H, 'e', 00H, 00H, 00H
	ORG $+2
$SG186919 DB	'%', 00H, 'l', 00H, 's', 00H, 00H, 00H
$SG186920 DB	'C', 00H, ':', 00H, '\', 00H, 'P', 00H, 'r', 00H, 'o', 00H
	DB	'g', 00H, 'r', 00H, 'a', 00H, 'm', 00H, ' ', 00H, 'F', 00H, 'i'
	DB	00H, 'l', 00H, 'e', 00H, 's', 00H, ' ', 00H, '(', 00H, 'x', 00H
	DB	'8', 00H, '6', 00H, ')', 00H, '\', 00H, 'M', 00H, 'i', 00H, 'c'
	DB	00H, 'r', 00H, 'o', 00H, 's', 00H, 'o', 00H, 'f', 00H, 't', 00H
	DB	' ', 00H, 'V', 00H, 'i', 00H, 's', 00H, 'u', 00H, 'a', 00H, 'l'
	DB	00H, ' ', 00H, 'S', 00H, 't', 00H, 'u', 00H, 'd', 00H, 'i', 00H
	DB	'o', 00H, '\', 00H, '2', 00H, '0', 00H, '1', 00H, '9', 00H, '\'
	DB	00H, 'C', 00H, 'o', 00H, 'm', 00H, 'm', 00H, 'u', 00H, 'n', 00H
	DB	'i', 00H, 't', 00H, 'y', 00H, '\', 00H, 'V', 00H, 'C', 00H, '\'
	DB	00H, 'T', 00H, 'o', 00H, 'o', 00H, 'l', 00H, 's', 00H, '\', 00H
	DB	'M', 00H, 'S', 00H, 'V', 00H, 'C', 00H, '\', 00H, '1', 00H, '4'
	DB	00H, '.', 00H, '2', 00H, '8', 00H, '.', 00H, '2', 00H, '9', 00H
	DB	'3', 00H, '3', 00H, '3', 00H, '\', 00H, 'a', 00H, 't', 00H, 'l'
	DB	00H, 'm', 00H, 'f', 00H, 'c', 00H, '\', 00H, 'i', 00H, 'n', 00H
	DB	'c', 00H, 'l', 00H, 'u', 00H, 'd', 00H, 'e', 00H, '\', 00H, 'a'
	DB	00H, 't', 00H, 'l', 00H, 'h', 00H, 'o', 00H, 's', 00H, 't', 00H
	DB	'.', 00H, 'h', 00H, 00H, 00H
	ORG $+2
$SG113203 DB	'l', 00H, 'p', 00H, 's', 00H, 'z', 00H, 'P', 00H, 'a', 00H
	DB	't', 00H, 'h', 00H, 'N', 00H, 'a', 00H, 'm', 00H, 'e', 00H, ' '
	DB	00H, '!', 00H, '=', 00H, ' ', 00H, '0', 00H, 00H, 00H
$SG186922 DB	'C:\Program Files (x86)\Microsoft Visual Studio\2019\Comm'
	DB	'unity\VC\Tools\MSVC\14.28.29333\atlmfc\include\atlhost.h', 00H
	ORG $+3
$SG186925 DB	'E', 00H, 'r', 00H, 'r', 00H, 'o', 00H, 'r', 00H, ' ', 00H
	DB	'c', 00H, 'o', 00H, 'd', 00H, 'e', 00H, ':', 00H, ' ', 00H, '0'
	DB	00H, 'x', 00H, '%', 00H, 'x', 00H, ' ', 00H, '-', 00H, ' ', 00H
	DB	'%', 00H, 'T', 00H, 's', 00H, 00H, 00H
	ORG $+2
$SG113204 DB	'%', 00H, 'l', 00H, 's', 00H, 00H, 00H
$SG187003 DB	00H, 00H
	ORG $+2
$SG186923 DB	'C', 00H, 'o', 00H, 'n', 00H, 't', 00H, 'r', 00H, 'o', 00H
	DB	'l', 00H, ' ', 00H, 'c', 00H, 'r', 00H, 'e', 00H, 'a', 00H, 't'
	DB	00H, 'i', 00H, 'o', 00H, 'n', 00H, ' ', 00H, 'f', 00H, 'a', 00H
	DB	'i', 00H, 'l', 00H, 'e', 00H, 'd', 00H, ' ', 00H, 'f', 00H, 'o'
	DB	00H, 'r', 00H, ' ', 00H, '''', 00H, '%', 00H, 'T', 00H, 's', 00H
	DB	'''', 00H, 0aH, 00H, 00H, 00H
	ORG $+2
$SG186924 DB	'C:\Program Files (x86)\Microsoft Visual Studio\2019\Comm'
	DB	'unity\VC\Tools\MSVC\14.28.29333\atlmfc\include\atlhost.h', 00H
	ORG $+3
$SG186933 DB	'l', 00H, 'P', 00H, 'a', 00H, 'r', 00H, 'a', 00H, 'm', 00H
	DB	00H, 00H
	ORG $+2
$SG186934 DB	'%', 00H, 'l', 00H, 's', 00H, 00H, 00H
$SG187007 DB	'_', 00H, '_', 00H, 'a', 00H, 't', 00H, 'l', 00H, '_', 00H
	DB	'c', 00H, 'o', 00H, 'n', 00H, 'd', 00H, 'V', 00H, 'a', 00H, 'l'
	DB	00H, 00H, 00H
$SG113205 DB	'C', 00H, ':', 00H, '\', 00H, 'P', 00H, 'r', 00H, 'o', 00H
	DB	'g', 00H, 'r', 00H, 'a', 00H, 'm', 00H, ' ', 00H, 'F', 00H, 'i'
	DB	00H, 'l', 00H, 'e', 00H, 's', 00H, ' ', 00H, '(', 00H, 'x', 00H
	DB	'8', 00H, '6', 00H, ')', 00H, '\', 00H, 'M', 00H, 'i', 00H, 'c'
	DB	00H, 'r', 00H, 'o', 00H, 's', 00H, 'o', 00H, 'f', 00H, 't', 00H
	DB	' ', 00H, 'V', 00H, 'i', 00H, 's', 00H, 'u', 00H, 'a', 00H, 'l'
	DB	00H, ' ', 00H, 'S', 00H, 't', 00H, 'u', 00H, 'd', 00H, 'i', 00H
	DB	'o', 00H, '\', 00H, '2', 00H, '0', 00H, '1', 00H, '9', 00H, '\'
	DB	00H, 'C', 00H, 'o', 00H, 'm', 00H, 'm', 00H, 'u', 00H, 'n', 00H
	DB	'i', 00H, 't', 00H, 'y', 00H, '\', 00H, 'V', 00H, 'C', 00H, '\'
	DB	00H, 'T', 00H, 'o', 00H, 'o', 00H, 'l', 00H, 's', 00H, '\', 00H
	DB	'M', 00H, 'S', 00H, 'V', 00H, 'C', 00H, '\', 00H, '1', 00H, '4'
	DB	00H, '.', 00H, '2', 00H, '8', 00H, '.', 00H, '2', 00H, '9', 00H
	DB	'3', 00H, '3', 00H, '3', 00H, '\', 00H, 'a', 00H, 't', 00H, 'l'
	DB	00H, 'm', 00H, 'f', 00H, 'c', 00H, '\', 00H, 'i', 00H, 'n', 00H
	DB	'c', 00H, 'l', 00H, 'u', 00H, 'd', 00H, 'e', 00H, '\', 00H, 'a'
	DB	00H, 't', 00H, 'l', 00H, 'b', 00H, 'a', 00H, 's', 00H, 'e', 00H
	DB	'.', 00H, 'h', 00H, 00H, 00H
	ORG $+2
$SG187008 DB	'%', 00H, 'l', 00H, 's', 00H, 00H, 00H
$SG187014 DB	'l', 00H, 'p', 00H, 's', 00H, 'z', 00H, 'N', 00H, 'a', 00H
	DB	'm', 00H, 'e', 00H, 00H, 00H
	ORG $+2
$SG186935 DB	'C', 00H, ':', 00H, '\', 00H, 'P', 00H, 'r', 00H, 'o', 00H
	DB	'g', 00H, 'r', 00H, 'a', 00H, 'm', 00H, ' ', 00H, 'F', 00H, 'i'
	DB	00H, 'l', 00H, 'e', 00H, 's', 00H, ' ', 00H, '(', 00H, 'x', 00H
	DB	'8', 00H, '6', 00H, ')', 00H, '\', 00H, 'M', 00H, 'i', 00H, 'c'
	DB	00H, 'r', 00H, 'o', 00H, 's', 00H, 'o', 00H, 'f', 00H, 't', 00H
	DB	' ', 00H, 'V', 00H, 'i', 00H, 's', 00H, 'u', 00H, 'a', 00H, 'l'
	DB	00H, ' ', 00H, 'S', 00H, 't', 00H, 'u', 00H, 'd', 00H, 'i', 00H
	DB	'o', 00H, '\', 00H, '2', 00H, '0', 00H, '1', 00H, '9', 00H, '\'
	DB	00H, 'C', 00H, 'o', 00H, 'm', 00H, 'm', 00H, 'u', 00H, 'n', 00H
	DB	'i', 00H, 't', 00H, 'y', 00H, '\', 00H, 'V', 00H, 'C', 00H, '\'
	DB	00H, 'T', 00H, 'o', 00H, 'o', 00H, 'l', 00H, 's', 00H, '\', 00H
	DB	'M', 00H, 'S', 00H, 'V', 00H, 'C', 00H, '\', 00H, '1', 00H, '4'
	DB	00H, '.', 00H, '2', 00H, '8', 00H, '.', 00H, '2', 00H, '9', 00H
	DB	'3', 00H, '3', 00H, '3', 00H, '\', 00H, 'a', 00H, 't', 00H, 'l'
	DB	00H, 'm', 00H, 'f', 00H, 'c', 00H, '\', 00H, 'i', 00H, 'n', 00H
	DB	'c', 00H, 'l', 00H, 'u', 00H, 'd', 00H, 'e', 00H, '\', 00H, 'a'
	DB	00H, 't', 00H, 'l', 00H, 'h', 00H, 'o', 00H, 's', 00H, 't', 00H
	DB	'.', 00H, 'h', 00H, 00H, 00H
	ORG $+2
$SG187015 DB	'%', 00H, 'l', 00H, 's', 00H, 00H, 00H
	ORG $+4
$SG187009 DB	'C', 00H, ':', 00H, '\', 00H, 'P', 00H, 'r', 00H, 'o', 00H
	DB	'g', 00H, 'r', 00H, 'a', 00H, 'm', 00H, ' ', 00H, 'F', 00H, 'i'
	DB	00H, 'l', 00H, 'e', 00H, 's', 00H, ' ', 00H, '(', 00H, 'x', 00H
	DB	'8', 00H, '6', 00H, ')', 00H, '\', 00H, 'M', 00H, 'i', 00H, 'c'
	DB	00H, 'r', 00H, 'o', 00H, 's', 00H, 'o', 00H, 'f', 00H, 't', 00H
	DB	' ', 00H, 'V', 00H, 'i', 00H, 's', 00H, 'u', 00H, 'a', 00H, 'l'
	DB	00H, ' ', 00H, 'S', 00H, 't', 00H, 'u', 00H, 'd', 00H, 'i', 00H
	DB	'o', 00H, '\', 00H, '2', 00H, '0', 00H, '1', 00H, '9', 00H, '\'
	DB	00H, 'C', 00H, 'o', 00H, 'm', 00H, 'm', 00H, 'u', 00H, 'n', 00H
	DB	'i', 00H, 't', 00H, 'y', 00H, '\', 00H, 'V', 00H, 'C', 00H, '\'
	DB	00H, 'T', 00H, 'o', 00H, 'o', 00H, 'l', 00H, 's', 00H, '\', 00H
	DB	'M', 00H, 'S', 00H, 'V', 00H, 'C', 00H, '\', 00H, '1', 00H, '4'
	DB	00H, '.', 00H, '2', 00H, '8', 00H, '.', 00H, '2', 00H, '9', 00H
	DB	'3', 00H, '3', 00H, '3', 00H, '\', 00H, 'a', 00H, 't', 00H, 'l'
	DB	00H, 'm', 00H, 'f', 00H, 'c', 00H, '\', 00H, 'i', 00H, 'n', 00H
	DB	'c', 00H, 'l', 00H, 'u', 00H, 'd', 00H, 'e', 00H, '\', 00H, 'a'
	DB	00H, 't', 00H, 'l', 00H, 'h', 00H, 'o', 00H, 's', 00H, 't', 00H
	DB	'.', 00H, 'h', 00H, 00H, 00H
	ORG $+6
$SG187016 DB	'C', 00H, ':', 00H, '\', 00H, 'P', 00H, 'r', 00H, 'o', 00H
	DB	'g', 00H, 'r', 00H, 'a', 00H, 'm', 00H, ' ', 00H, 'F', 00H, 'i'
	DB	00H, 'l', 00H, 'e', 00H, 's', 00H, ' ', 00H, '(', 00H, 'x', 00H
	DB	'8', 00H, '6', 00H, ')', 00H, '\', 00H, 'M', 00H, 'i', 00H, 'c'
	DB	00H, 'r', 00H, 'o', 00H, 's', 00H, 'o', 00H, 'f', 00H, 't', 00H
	DB	' ', 00H, 'V', 00H, 'i', 00H, 's', 00H, 'u', 00H, 'a', 00H, 'l'
	DB	00H, ' ', 00H, 'S', 00H, 't', 00H, 'u', 00H, 'd', 00H, 'i', 00H
	DB	'o', 00H, '\', 00H, '2', 00H, '0', 00H, '1', 00H, '9', 00H, '\'
	DB	00H, 'C', 00H, 'o', 00H, 'm', 00H, 'm', 00H, 'u', 00H, 'n', 00H
	DB	'i', 00H, 't', 00H, 'y', 00H, '\', 00H, 'V', 00H, 'C', 00H, '\'
	DB	00H, 'T', 00H, 'o', 00H, 'o', 00H, 'l', 00H, 's', 00H, '\', 00H
	DB	'M', 00H, 'S', 00H, 'V', 00H, 'C', 00H, '\', 00H, '1', 00H, '4'
	DB	00H, '.', 00H, '2', 00H, '8', 00H, '.', 00H, '2', 00H, '9', 00H
	DB	'3', 00H, '3', 00H, '3', 00H, '\', 00H, 'a', 00H, 't', 00H, 'l'
	DB	00H, 'm', 00H, 'f', 00H, 'c', 00H, '\', 00H, 'i', 00H, 'n', 00H
	DB	'c', 00H, 'l', 00H, 'u', 00H, 'd', 00H, 'e', 00H, '\', 00H, 'a'
	DB	00H, 't', 00H, 'l', 00H, 'h', 00H, 'o', 00H, 's', 00H, 't', 00H
	DB	'.', 00H, 'h', 00H, 00H, 00H
	ORG $+6
$SG187018 DB	'C:\Program Files (x86)\Microsoft Visual Studio\2019\Comm'
	DB	'unity\VC\Tools\MSVC\14.28.29333\atlmfc\include\atlhost.h', 00H
	ORG $+7
$SG187019 DB	'C', 00H, 'o', 00H, 'n', 00H, 't', 00H, 'r', 00H, 'o', 00H
	DB	'l', 00H, ' ', 00H, 'c', 00H, 'r', 00H, 'e', 00H, 'a', 00H, 't'
	DB	00H, 'i', 00H, 'o', 00H, 'n', 00H, ' ', 00H, 'f', 00H, 'a', 00H
	DB	'i', 00H, 'l', 00H, 'e', 00H, 'd', 00H, ' ', 00H, 'f', 00H, 'o'
	DB	00H, 'r', 00H, ' ', 00H, '''', 00H, '%', 00H, 'T', 00H, 's', 00H
	DB	'''', 00H, 0aH, 00H, 00H, 00H
	ORG $+2
$SG187020 DB	'C:\Program Files (x86)\Microsoft Visual Studio\2019\Comm'
	DB	'unity\VC\Tools\MSVC\14.28.29333\atlmfc\include\atlhost.h', 00H
	ORG $+3
$SG187021 DB	'E', 00H, 'r', 00H, 'r', 00H, 'o', 00H, 'r', 00H, ' ', 00H
	DB	'c', 00H, 'o', 00H, 'd', 00H, 'e', 00H, ':', 00H, ' ', 00H, '0'
	DB	00H, 'x', 00H, '%', 00H, 'x', 00H, ' ', 00H, '-', 00H, ' ', 00H
	DB	'%', 00H, 'T', 00H, 's', 00H, 00H, 00H
	ORG $+2
$SG187029 DB	'l', 00H, 'P', 00H, 'a', 00H, 'r', 00H, 'a', 00H, 'm', 00H
	DB	00H, 00H
	ORG $+2
$SG187030 DB	'%', 00H, 'l', 00H, 's', 00H, 00H, 00H
	ORG $+4
$SG187031 DB	'C', 00H, ':', 00H, '\', 00H, 'P', 00H, 'r', 00H, 'o', 00H
	DB	'g', 00H, 'r', 00H, 'a', 00H, 'm', 00H, ' ', 00H, 'F', 00H, 'i'
	DB	00H, 'l', 00H, 'e', 00H, 's', 00H, ' ', 00H, '(', 00H, 'x', 00H
	DB	'8', 00H, '6', 00H, ')', 00H, '\', 00H, 'M', 00H, 'i', 00H, 'c'
	DB	00H, 'r', 00H, 'o', 00H, 's', 00H, 'o', 00H, 'f', 00H, 't', 00H
	DB	' ', 00H, 'V', 00H, 'i', 00H, 's', 00H, 'u', 00H, 'a', 00H, 'l'
	DB	00H, ' ', 00H, 'S', 00H, 't', 00H, 'u', 00H, 'd', 00H, 'i', 00H
	DB	'o', 00H, '\', 00H, '2', 00H, '0', 00H, '1', 00H, '9', 00H, '\'
	DB	00H, 'C', 00H, 'o', 00H, 'm', 00H, 'm', 00H, 'u', 00H, 'n', 00H
	DB	'i', 00H, 't', 00H, 'y', 00H, '\', 00H, 'V', 00H, 'C', 00H, '\'
	DB	00H, 'T', 00H, 'o', 00H, 'o', 00H, 'l', 00H, 's', 00H, '\', 00H
	DB	'M', 00H, 'S', 00H, 'V', 00H, 'C', 00H, '\', 00H, '1', 00H, '4'
	DB	00H, '.', 00H, '2', 00H, '8', 00H, '.', 00H, '2', 00H, '9', 00H
	DB	'3', 00H, '3', 00H, '3', 00H, '\', 00H, 'a', 00H, 't', 00H, 'l'
	DB	00H, 'm', 00H, 'f', 00H, 'c', 00H, '\', 00H, 'i', 00H, 'n', 00H
	DB	'c', 00H, 'l', 00H, 'u', 00H, 'd', 00H, 'e', 00H, '\', 00H, 'a'
	DB	00H, 't', 00H, 'l', 00H, 'h', 00H, 'o', 00H, 's', 00H, 't', 00H
	DB	'.', 00H, 'h', 00H, 00H, 00H
CONST	ENDS
PUBLIC	??_H@YGXPAXIIP6EPAX0@Z@Z			; `vector constructor iterator'
PUBLIC	??_I@YGXPAXIIP6EX0@Z@Z				; `vector destructor iterator'
PUBLIC	?wcsstr@@YAPA_WPA_WPB_W@Z			; wcsstr
PUBLIC	_InlineIsEqualGUID
PUBLIC	_IsEqualGUID
PUBLIC	_HRESULT_FROM_WIN32
PUBLIC	??0IUnknown@@QAE@XZ				; IUnknown::IUnknown
PUBLIC	??0IClassFactory@@QAE@XZ			; IClassFactory::IClassFactory
PUBLIC	_DllGetClassObject@12
PUBLIC	_DllCanUnloadNow@0
PUBLIC	?AtlThrowImpl@ATL@@YGXJ@Z			; ATL::AtlThrowImpl
PUBLIC	___local_stdio_printf_options
PUBLIC	__vswprintf_s_l
PUBLIC	_swprintf_s
PUBLIC	??$AtlMultiply@H@ATL@@YAJPAHHH@Z		; ATL::AtlMultiply<int>
PUBLIC	??$AtlMultiply@I@ATL@@YAJPAIII@Z		; ATL::AtlMultiply<unsigned int>
PUBLIC	??$AtlMultiply@K@ATL@@YAJPAKKK@Z		; ATL::AtlMultiply<unsigned long>
PUBLIC	?AtlCoTaskMemCAlloc@ATL@@YAPAXKK@Z		; ATL::AtlCoTaskMemCAlloc
PUBLIC	?AtlCoTaskMemRecalloc@ATL@@YAPAXPAXKK@Z		; ATL::AtlCoTaskMemRecalloc
PUBLIC	?memcpy_s@Checked@ATL@@YAXPAXIPBXI@Z		; ATL::Checked::memcpy_s
PUBLIC	?Allocate@CCRTAllocator@ATL@@SAPAXI@Z		; ATL::CCRTAllocator::Allocate
PUBLIC	?Free@CCRTAllocator@ATL@@SAXPAX@Z		; ATL::CCRTAllocator::Free
PUBLIC	?_AtlVerifyStackAvailable@_ATL_SAFE_ALLOCA_IMPL@ATL@@YA_NK@Z ; ATL::_ATL_SAFE_ALLOCA_IMPL::_AtlVerifyStackAvailable
PUBLIC	??$AtlAdd@K@ATL@@YAJPAKKK@Z			; ATL::AtlAdd<unsigned long>
PUBLIC	?_AtlGetConversionACP@ATL@@YGIXZ		; ATL::_AtlGetConversionACP
PUBLIC	?ocslen@@YAHPB_W@Z				; ocslen
PUBLIC	?ocscpy_s@@YA_NPA_WIPB_W@Z			; ocscpy_s
PUBLIC	?T2COLE_EX@@YAPB_WPB_WI@Z			; T2COLE_EX
PUBLIC	?OLE2CT_EX@@YAPB_WPB_WI@Z			; OLE2CT_EX
PUBLIC	?OLE2CT_EX_DEF@@YAPB_WPB_W@Z			; OLE2CT_EX_DEF
PUBLIC	?T2OLE_EX@@YAPA_WPA_WI@Z			; T2OLE_EX
PUBLIC	?OLE2T_EX@@YAPA_WPA_WI@Z			; OLE2T_EX
PUBLIC	??0?$CAtlSafeAllocBufferManager@VCCRTAllocator@ATL@@@_ATL_SAFE_ALLOCA_IMPL@ATL@@QAE@XZ ; ATL::_ATL_SAFE_ALLOCA_IMPL::CAtlSafeAllocBufferManager<ATL::CCRTAllocator>::CAtlSafeAllocBufferManager<ATL::CCRTAllocator>
PUBLIC	?Allocate@?$CAtlSafeAllocBufferManager@VCCRTAllocator@ATL@@@_ATL_SAFE_ALLOCA_IMPL@ATL@@QAEPAXK@Z ; ATL::_ATL_SAFE_ALLOCA_IMPL::CAtlSafeAllocBufferManager<ATL::CCRTAllocator>::Allocate
PUBLIC	??1?$CAtlSafeAllocBufferManager@VCCRTAllocator@ATL@@@_ATL_SAFE_ALLOCA_IMPL@ATL@@QAE@XZ ; ATL::_ATL_SAFE_ALLOCA_IMPL::CAtlSafeAllocBufferManager<ATL::CCRTAllocator>::~CAtlSafeAllocBufferManager<ATL::CCRTAllocator>
PUBLIC	?DEVMODEOLE2T_EX@@YAPAU_devicemodeW@@PAU1@@Z	; DEVMODEOLE2T_EX
PUBLIC	??0?$CTraceCategoryEx@$0IAAAA@$0A@@ATL@@QAE@PB_W@Z ; ATL::CTraceCategoryEx<524288,0>::CTraceCategoryEx<524288,0>
PUBLIC	??0?$CTraceCategoryEx@$00$0A@@ATL@@QAE@PB_W@Z	; ATL::CTraceCategoryEx<1,0>::CTraceCategoryEx<1,0>
PUBLIC	??B?$CTraceCategoryEx@$00$0A@@ATL@@QAEIXZ	; ATL::CTraceCategoryEx<1,0>::operator unsigned int
PUBLIC	??0?$CTraceCategoryEx@$01$0A@@ATL@@QAE@PB_W@Z	; ATL::CTraceCategoryEx<2,0>::CTraceCategoryEx<2,0>
PUBLIC	??B?$CTraceCategoryEx@$01$0A@@ATL@@QAEIXZ	; ATL::CTraceCategoryEx<2,0>::operator unsigned int
PUBLIC	??0?$CTraceCategoryEx@$03$0A@@ATL@@QAE@PB_W@Z	; ATL::CTraceCategoryEx<4,0>::CTraceCategoryEx<4,0>
PUBLIC	??0?$CTraceCategoryEx@$07$0A@@ATL@@QAE@PB_W@Z	; ATL::CTraceCategoryEx<8,0>::CTraceCategoryEx<8,0>
PUBLIC	??B?$CTraceCategoryEx@$07$0A@@ATL@@QAEIXZ	; ATL::CTraceCategoryEx<8,0>::operator unsigned int
PUBLIC	??0?$CTraceCategoryEx@$0BA@$0A@@ATL@@QAE@PB_W@Z	; ATL::CTraceCategoryEx<16,0>::CTraceCategoryEx<16,0>
PUBLIC	??0?$CTraceCategoryEx@$0CA@$0A@@ATL@@QAE@PB_W@Z	; ATL::CTraceCategoryEx<32,0>::CTraceCategoryEx<32,0>
PUBLIC	??B?$CTraceCategoryEx@$0CA@$0A@@ATL@@QAEIXZ	; ATL::CTraceCategoryEx<32,0>::operator unsigned int
PUBLIC	??0?$CTraceCategoryEx@$0EA@$0A@@ATL@@QAE@PB_W@Z	; ATL::CTraceCategoryEx<64,0>::CTraceCategoryEx<64,0>
PUBLIC	??B?$CTraceCategoryEx@$0EA@$0A@@ATL@@QAEIXZ	; ATL::CTraceCategoryEx<64,0>::operator unsigned int
PUBLIC	??0?$CTraceCategoryEx@$0IA@$0A@@ATL@@QAE@PB_W@Z	; ATL::CTraceCategoryEx<128,0>::CTraceCategoryEx<128,0>
PUBLIC	??0?$CTraceCategoryEx@$0BAA@$0A@@ATL@@QAE@PB_W@Z ; ATL::CTraceCategoryEx<256,0>::CTraceCategoryEx<256,0>
PUBLIC	??0?$CTraceCategoryEx@$0CAA@$0A@@ATL@@QAE@PB_W@Z ; ATL::CTraceCategoryEx<512,0>::CTraceCategoryEx<512,0>
PUBLIC	??0?$CTraceCategoryEx@$0EAA@$0A@@ATL@@QAE@PB_W@Z ; ATL::CTraceCategoryEx<1024,0>::CTraceCategoryEx<1024,0>
PUBLIC	??0?$CTraceCategoryEx@$0IAA@$0A@@ATL@@QAE@PB_W@Z ; ATL::CTraceCategoryEx<2048,0>::CTraceCategoryEx<2048,0>
PUBLIC	??B?$CTraceCategoryEx@$0IAA@$0A@@ATL@@QAEIXZ	; ATL::CTraceCategoryEx<2048,0>::operator unsigned int
PUBLIC	??0?$CTraceCategoryEx@$0BAAA@$0A@@ATL@@QAE@PB_W@Z ; ATL::CTraceCategoryEx<4096,0>::CTraceCategoryEx<4096,0>
PUBLIC	??0?$CTraceCategoryEx@$0CAAA@$0A@@ATL@@QAE@PB_W@Z ; ATL::CTraceCategoryEx<8192,0>::CTraceCategoryEx<8192,0>
PUBLIC	??B?$CTraceCategoryEx@$0CAAA@$0A@@ATL@@QAEIXZ	; ATL::CTraceCategoryEx<8192,0>::operator unsigned int
PUBLIC	??0?$CTraceCategoryEx@$0EAAA@$0A@@ATL@@QAE@PB_W@Z ; ATL::CTraceCategoryEx<16384,0>::CTraceCategoryEx<16384,0>
PUBLIC	??0?$CTraceCategoryEx@$0IAAA@$0A@@ATL@@QAE@PB_W@Z ; ATL::CTraceCategoryEx<32768,0>::CTraceCategoryEx<32768,0>
PUBLIC	??0?$CTraceCategoryEx@$0BAAAA@$0A@@ATL@@QAE@PB_W@Z ; ATL::CTraceCategoryEx<65536,0>::CTraceCategoryEx<65536,0>
PUBLIC	??0?$CTraceCategoryEx@$0CAAAA@$0A@@ATL@@QAE@PB_W@Z ; ATL::CTraceCategoryEx<131072,0>::CTraceCategoryEx<131072,0>
PUBLIC	??0?$CTraceCategoryEx@$0EAAAA@$0A@@ATL@@QAE@PB_W@Z ; ATL::CTraceCategoryEx<262144,0>::CTraceCategoryEx<262144,0>
PUBLIC	??0?$CTraceCategoryEx@$0BAAAAA@$0A@@ATL@@QAE@PB_W@Z ; ATL::CTraceCategoryEx<1048576,0>::CTraceCategoryEx<1048576,0>
PUBLIC	??0?$CTraceCategoryEx@$0CAAAAA@$0A@@ATL@@QAE@PB_W@Z ; ATL::CTraceCategoryEx<2097152,0>::CTraceCategoryEx<2097152,0>
PUBLIC	??0?$CTraceCategoryEx@$0EAAAAA@$0A@@ATL@@QAE@PB_W@Z ; ATL::CTraceCategoryEx<4194304,0>::CTraceCategoryEx<4194304,0>
PUBLIC	?GetCategoryName@CTrace@ATL@@CAPA_WI@Z		; ATL::CTrace::GetCategoryName
PUBLIC	?TraceV@CTrace@ATL@@CAXPBDHIIPB_W@Z		; ATL::CTrace::TraceV
PUBLIC	?TraceV@CTrace@ATL@@SAXPBDHIIPB_WPAD@Z		; ATL::CTrace::TraceV
PUBLIC	?RegisterCategory@CTrace@ATL@@SAXPB_WI@Z	; ATL::CTrace::RegisterCategory
PUBLIC	??0?$CHeapPtrBase@_WVCCRTAllocator@ATL@@@ATL@@IAE@XZ ; ATL::CHeapPtrBase<wchar_t,ATL::CCRTAllocator>::CHeapPtrBase<wchar_t,ATL::CCRTAllocator>
PUBLIC	??1?$CHeapPtrBase@_WVCCRTAllocator@ATL@@@ATL@@QAE@XZ ; ATL::CHeapPtrBase<wchar_t,ATL::CCRTAllocator>::~CHeapPtrBase<wchar_t,ATL::CCRTAllocator>
PUBLIC	??B?$CHeapPtrBase@_WVCCRTAllocator@ATL@@@ATL@@QBEPA_WXZ ; ATL::CHeapPtrBase<wchar_t,ATL::CCRTAllocator>::operator wchar_t *
PUBLIC	?AllocateBytes@?$CHeapPtrBase@_WVCCRTAllocator@ATL@@@ATL@@QAE_NI@Z ; ATL::CHeapPtrBase<wchar_t,ATL::CCRTAllocator>::AllocateBytes
PUBLIC	?Free@?$CHeapPtrBase@_WVCCRTAllocator@ATL@@@ATL@@QAEXXZ ; ATL::CHeapPtrBase<wchar_t,ATL::CCRTAllocator>::Free
PUBLIC	??0?$CHeapPtr@_WVCCRTAllocator@ATL@@@ATL@@QAE@XZ ; ATL::CHeapPtr<wchar_t,ATL::CCRTAllocator>::CHeapPtr<wchar_t,ATL::CCRTAllocator>
PUBLIC	?Allocate@?$CHeapPtr@_WVCCRTAllocator@ATL@@@ATL@@QAE_NI@Z ; ATL::CHeapPtr<wchar_t,ATL::CCRTAllocator>::Allocate
PUBLIC	??1?$CHeapPtr@_WVCCRTAllocator@ATL@@@ATL@@QAE@XZ ; ATL::CHeapPtr<wchar_t,ATL::CCRTAllocator>::~CHeapPtr<wchar_t,ATL::CCRTAllocator>
PUBLIC	??0CPreserveLastError@ATL@@QAE@XZ		; ATL::CPreserveLastError::CPreserveLastError
PUBLIC	??1CPreserveLastError@ATL@@QAE@XZ		; ATL::CPreserveLastError::~CPreserveLastError
PUBLIC	??0CTraceFileAndLineInfo@ATL@@QAE@PBDH@Z	; ATL::CTraceFileAndLineInfo::CTraceFileAndLineInfo
PUBLIC	??RCTraceFileAndLineInfo@ATL@@QBAXHIPB_WZZ	; ATL::CTraceFileAndLineInfo::operator()
PUBLIC	?_AtlRaiseException@ATL@@YAXKK@Z		; ATL::_AtlRaiseException
PUBLIC	?AtlCrtErrorCheck@ATL@@YAHH@Z			; ATL::AtlCrtErrorCheck
PUBLIC	?wcscpy_s@Checked@ATL@@YAXPA_WIPB_W@Z		; ATL::Checked::wcscpy_s
PUBLIC	?wcsncpy_s@Checked@ATL@@YAHPA_WIPB_WI@Z		; ATL::Checked::wcsncpy_s
PUBLIC	?tcsncpy_s@Checked@ATL@@YAHPA_WIPB_WI@Z		; ATL::Checked::tcsncpy_s
PUBLIC	?wcscat_s@Checked@ATL@@YAXPA_WIPB_W@Z		; ATL::Checked::wcscat_s
PUBLIC	?_AtlInitializeCriticalSectionEx@ATL@@YAHPAU_RTL_CRITICAL_SECTION@@KK@Z ; ATL::_AtlInitializeCriticalSectionEx
PUBLIC	??0CComCriticalSection@ATL@@QAE@XZ		; ATL::CComCriticalSection::CComCriticalSection
PUBLIC	??1CComCriticalSection@ATL@@QAE@XZ		; ATL::CComCriticalSection::~CComCriticalSection
PUBLIC	?Lock@CComCriticalSection@ATL@@QAEJXZ		; ATL::CComCriticalSection::Lock
PUBLIC	?Unlock@CComCriticalSection@ATL@@QAEJXZ		; ATL::CComCriticalSection::Unlock
PUBLIC	?Init@CComCriticalSection@ATL@@QAEJXZ		; ATL::CComCriticalSection::Init
PUBLIC	?Term@CComCriticalSection@ATL@@QAEJXZ		; ATL::CComCriticalSection::Term
PUBLIC	??0CComSafeDeleteCriticalSection@ATL@@QAE@XZ	; ATL::CComSafeDeleteCriticalSection::CComSafeDeleteCriticalSection
PUBLIC	??1CComSafeDeleteCriticalSection@ATL@@QAE@XZ	; ATL::CComSafeDeleteCriticalSection::~CComSafeDeleteCriticalSection
PUBLIC	?Init@CComSafeDeleteCriticalSection@ATL@@QAEJXZ	; ATL::CComSafeDeleteCriticalSection::Init
PUBLIC	??0CComAutoDeleteCriticalSection@ATL@@QAE@XZ	; ATL::CComAutoDeleteCriticalSection::CComAutoDeleteCriticalSection
PUBLIC	??1CComAutoDeleteCriticalSection@ATL@@QAE@XZ	; ATL::CComAutoDeleteCriticalSection::~CComAutoDeleteCriticalSection
PUBLIC	?Lock@CComFakeCriticalSection@ATL@@QAEJXZ	; ATL::CComFakeCriticalSection::Lock
PUBLIC	?Unlock@CComFakeCriticalSection@ATL@@QAEJXZ	; ATL::CComFakeCriticalSection::Unlock
PUBLIC	?Init@CComFakeCriticalSection@ATL@@QAEJXZ	; ATL::CComFakeCriticalSection::Init
PUBLIC	?GetModuleInstance@CAtlBaseModule@ATL@@QAEPAUHINSTANCE__@@XZ ; ATL::CAtlBaseModule::GetModuleInstance
PUBLIC	??0IEnumConnections@@QAE@XZ			; IEnumConnections::IEnumConnections
PUBLIC	??0IEnumConnectionPoints@@QAE@XZ		; IEnumConnectionPoints::IEnumConnectionPoints
PUBLIC	_DllRegisterServer@0
PUBLIC	_DllUnregisterServer@0
PUBLIC	?AtlHresultFromLastError@ATL@@YAJXZ		; ATL::AtlHresultFromLastError
PUBLIC	?AtlHresultFromWin32@ATL@@YAJK@Z		; ATL::AtlHresultFromWin32
PUBLIC	?AtlComQIPtrAssign2@ATL@@YAXPAPAUIUnknown@@PAU2@ABU_GUID@@@Z ; ATL::AtlComQIPtrAssign2
PUBLIC	?AtlInternalOleLoadFromStream@ATL@@YAJPAUIStream@@ABU_GUID@@PAPAXTClassesAllowedInStream@1@K@Z ; ATL::AtlInternalOleLoadFromStream
PUBLIC	??0?$CComPtrBase@UIDispatch@@@ATL@@IAE@XZ	; ATL::CComPtrBase<IDispatch>::CComPtrBase<IDispatch>
PUBLIC	??1?$CComPtrBase@UIDispatch@@@ATL@@QAE@XZ	; ATL::CComPtrBase<IDispatch>::~CComPtrBase<IDispatch>
PUBLIC	??I?$CComPtrBase@UIDispatch@@@ATL@@QAEPAPAUIDispatch@@XZ ; ATL::CComPtrBase<IDispatch>::operator&
PUBLIC	?Release@?$CComPtrBase@UIDispatch@@@ATL@@QAEXXZ	; ATL::CComPtrBase<IDispatch>::Release
PUBLIC	??0?$CComPtr@UIDispatch@@@ATL@@QAE@XZ		; ATL::CComPtr<IDispatch>::CComPtr<IDispatch>
PUBLIC	?GetProperty@?$CComPtr@UIDispatch@@@ATL@@QAEJJPAUtagVARIANT@@@Z ; ATL::CComPtr<IDispatch>::GetProperty
PUBLIC	?PutProperty@?$CComPtr@UIDispatch@@@ATL@@QAEJJPAUtagVARIANT@@@Z ; ATL::CComPtr<IDispatch>::PutProperty
PUBLIC	?PutProperty@?$CComPtr@UIDispatch@@@ATL@@SAJPAUIDispatch@@JPAUtagVARIANT@@@Z ; ATL::CComPtr<IDispatch>::PutProperty
PUBLIC	?GetProperty@?$CComPtr@UIDispatch@@@ATL@@SAJPAUIDispatch@@JPAUtagVARIANT@@@Z ; ATL::CComPtr<IDispatch>::GetProperty
PUBLIC	??1?$CComPtr@UIDispatch@@@ATL@@QAE@XZ		; ATL::CComPtr<IDispatch>::~CComPtr<IDispatch>
PUBLIC	??0?$CComPtrBase@UIUnknown@@@ATL@@IAE@XZ	; ATL::CComPtrBase<IUnknown>::CComPtrBase<IUnknown>
PUBLIC	??0?$CComPtrBase@UIUnknown@@@ATL@@IAE@PAUIUnknown@@@Z ; ATL::CComPtrBase<IUnknown>::CComPtrBase<IUnknown>
PUBLIC	?Swap@?$CComPtrBase@UIUnknown@@@ATL@@IAEXAAV12@@Z ; ATL::CComPtrBase<IUnknown>::Swap
PUBLIC	??1?$CComPtrBase@UIUnknown@@@ATL@@QAE@XZ	; ATL::CComPtrBase<IUnknown>::~CComPtrBase<IUnknown>
PUBLIC	??B?$CComPtrBase@UIUnknown@@@ATL@@QBEPAUIUnknown@@XZ ; ATL::CComPtrBase<IUnknown>::operator IUnknown *
PUBLIC	??I?$CComPtrBase@UIUnknown@@@ATL@@QAEPAPAUIUnknown@@XZ ; ATL::CComPtrBase<IUnknown>::operator&
PUBLIC	??C?$CComPtrBase@UIUnknown@@@ATL@@QBEPAV?$_NoAddRefReleaseOnCComPtr@UIUnknown@@@1@XZ ; ATL::CComPtrBase<IUnknown>::operator->
PUBLIC	??9?$CComPtrBase@UIUnknown@@@ATL@@QBE_NPAUIUnknown@@@Z ; ATL::CComPtrBase<IUnknown>::operator!=
PUBLIC	??8?$CComPtrBase@UIUnknown@@@ATL@@QBE_NPAUIUnknown@@@Z ; ATL::CComPtrBase<IUnknown>::operator==
PUBLIC	?Detach@?$CComPtrBase@UIUnknown@@@ATL@@QAEPAUIUnknown@@XZ ; ATL::CComPtrBase<IUnknown>::Detach
PUBLIC	??0?$CComPtr@UIUnknown@@@ATL@@QAE@XZ		; ATL::CComPtr<IUnknown>::CComPtr<IUnknown>
PUBLIC	??0?$CComPtr@UIUnknown@@@ATL@@QAE@PAUIUnknown@@@Z ; ATL::CComPtr<IUnknown>::CComPtr<IUnknown>
PUBLIC	??0?$CComPtr@UIUnknown@@@ATL@@QAE@ABV01@@Z	; ATL::CComPtr<IUnknown>::CComPtr<IUnknown>
PUBLIC	??4?$CComPtr@UIUnknown@@@ATL@@QAEPAUIUnknown@@PAU2@@Z ; ATL::CComPtr<IUnknown>::operator=
PUBLIC	??1?$CComPtr@UIUnknown@@@ATL@@QAE@XZ		; ATL::CComPtr<IUnknown>::~CComPtr<IUnknown>
PUBLIC	??0CComBSTR@ATL@@QAE@XZ				; ATL::CComBSTR::CComBSTR
PUBLIC	??1CComBSTR@ATL@@QAE@XZ				; ATL::CComBSTR::~CComBSTR
PUBLIC	?Length@CComBSTR@ATL@@QBEIXZ			; ATL::CComBSTR::Length
PUBLIC	??BCComBSTR@ATL@@QBEPA_WXZ			; ATL::CComBSTR::operator wchar_t *
PUBLIC	??ICComBSTR@ATL@@QAEPAPA_WXZ			; ATL::CComBSTR::operator&
PUBLIC	?Attach@CComBSTR@ATL@@QAEXPA_W@Z		; ATL::CComBSTR::Attach
PUBLIC	?Detach@CComBSTR@ATL@@QAEPA_WXZ			; ATL::CComBSTR::Detach
PUBLIC	?Empty@CComBSTR@ATL@@QAEXXZ			; ATL::CComBSTR::Empty
PUBLIC	??7CComBSTR@ATL@@QBE_NXZ			; ATL::CComBSTR::operator!
PUBLIC	??9CComBSTR@ATL@@QBE_NH@Z			; ATL::CComBSTR::operator!=
PUBLIC	??8CComBSTR@ATL@@QBE_NH@Z			; ATL::CComBSTR::operator==
PUBLIC	?WriteToStream@CComBSTR@ATL@@QAEJPAUIStream@@@Z	; ATL::CComBSTR::WriteToStream
PUBLIC	?ReadFromStream@CComBSTR@ATL@@QAEJPAUIStream@@@Z ; ATL::CComBSTR::ReadFromStream
PUBLIC	?GetStreamSize@CComBSTR@ATL@@SAKPA_W@Z		; ATL::CComBSTR::GetStreamSize
PUBLIC	??0CComVariant@ATL@@QAE@XZ			; ATL::CComVariant::CComVariant
PUBLIC	??1CComVariant@ATL@@QAE@XZ			; ATL::CComVariant::~CComVariant
PUBLIC	?Clear@CComVariant@ATL@@QAEJXZ			; ATL::CComVariant::Clear
PUBLIC	?ChangeType@CComVariant@ATL@@QAEJGPBUtagVARIANT@@@Z ; ATL::CComVariant::ChangeType
PUBLIC	?WriteToStream@CComVariant@ATL@@QAEJPAUIStream@@@Z ; ATL::CComVariant::WriteToStream
PUBLIC	?WriteToStream@CComVariant@ATL@@QAEJPAUIStream@@G@Z ; ATL::CComVariant::WriteToStream
PUBLIC	?ReadFromStream@CComVariant@ATL@@QAEJPAUIStream@@GTClassesAllowedInStream@2@K@Z ; ATL::CComVariant::ReadFromStream
PUBLIC	?GetSizeMax@CComVariant@ATL@@QBEJPAT_ULARGE_INTEGER@@@Z ; ATL::CComVariant::GetSizeMax
PUBLIC	??0?$CComPtrBase@UIPersistStream@@@ATL@@IAE@XZ	; ATL::CComPtrBase<IPersistStream>::CComPtrBase<IPersistStream>
PUBLIC	??1?$CComPtrBase@UIPersistStream@@@ATL@@QAE@XZ	; ATL::CComPtrBase<IPersistStream>::~CComPtrBase<IPersistStream>
PUBLIC	??B?$CComPtrBase@UIPersistStream@@@ATL@@QBEPAUIPersistStream@@XZ ; ATL::CComPtrBase<IPersistStream>::operator IPersistStream *
PUBLIC	??I?$CComPtrBase@UIPersistStream@@@ATL@@QAEPAPAUIPersistStream@@XZ ; ATL::CComPtrBase<IPersistStream>::operator&
PUBLIC	??C?$CComPtrBase@UIPersistStream@@@ATL@@QBEPAV?$_NoAddRefReleaseOnCComPtr@UIPersistStream@@@1@XZ ; ATL::CComPtrBase<IPersistStream>::operator->
PUBLIC	??9?$CComPtrBase@UIPersistStream@@@ATL@@QBE_NPAUIPersistStream@@@Z ; ATL::CComPtrBase<IPersistStream>::operator!=
PUBLIC	??8?$CComPtrBase@UIPersistStream@@@ATL@@QBE_NPAUIPersistStream@@@Z ; ATL::CComPtrBase<IPersistStream>::operator==
PUBLIC	?Detach@?$CComPtrBase@UIPersistStream@@@ATL@@QAEPAUIPersistStream@@XZ ; ATL::CComPtrBase<IPersistStream>::Detach
PUBLIC	??0?$CComPtr@UIPersistStream@@@ATL@@QAE@XZ	; ATL::CComPtr<IPersistStream>::CComPtr<IPersistStream>
PUBLIC	??1?$CComPtr@UIPersistStream@@@ATL@@QAE@XZ	; ATL::CComPtr<IPersistStream>::~CComPtr<IPersistStream>
PUBLIC	??$AtlAdd@_K@ATL@@YAJPA_K_K1@Z			; ATL::AtlAdd<unsigned __int64>
PUBLIC	??$QueryInterface@UIPersistStream@@@IUnknown@@QAGJPAPAUIPersistStream@@@Z ; IUnknown::QueryInterface<IPersistStream>
PUBLIC	??0IRegistrarBase@@QAE@XZ			; IRegistrarBase::IRegistrarBase
PUBLIC	?RegCreateKeyExW@CAtlTransactionManager@ATL@@QAEJPAUHKEY__@@PB_WKPA_WKKQAU_SECURITY_ATTRIBUTES@@PAPAU3@PAK@Z ; ATL::CAtlTransactionManager::RegCreateKeyExW
PUBLIC	?RegOpenKeyExW@CAtlTransactionManager@ATL@@QAEJPAUHKEY__@@PB_WKKPAPAU3@@Z ; ATL::CAtlTransactionManager::RegOpenKeyExW
PUBLIC	?RegDeleteKeyW@CAtlTransactionManager@ATL@@QAEJPAUHKEY__@@PB_W@Z ; ATL::CAtlTransactionManager::RegDeleteKeyW
PUBLIC	?Increment@CComMultiThreadModel@ATL@@SGKPAJ@Z	; ATL::CComMultiThreadModel::Increment
PUBLIC	?Decrement@CComMultiThreadModel@ATL@@SGKPAJ@Z	; ATL::CComMultiThreadModel::Decrement
PUBLIC	?Increment@CComSingleThreadModel@ATL@@SGKPAJ@Z	; ATL::CComSingleThreadModel::Increment
PUBLIC	?Decrement@CComSingleThreadModel@ATL@@SGKPAJ@Z	; ATL::CComSingleThreadModel::Decrement
PUBLIC	??0_ATL_COM_MODULE70@ATL@@QAE@XZ		; ATL::_ATL_COM_MODULE70::_ATL_COM_MODULE70
PUBLIC	??1_ATL_COM_MODULE70@ATL@@QAE@XZ		; ATL::_ATL_COM_MODULE70::~_ATL_COM_MODULE70
PUBLIC	??0?$CSimpleArray@GV?$CSimpleArrayEqualHelper@G@ATL@@@ATL@@QAE@XZ ; ATL::CSimpleArray<unsigned short,ATL::CSimpleArrayEqualHelper<unsigned short> >::CSimpleArray<unsigned short,ATL::CSimpleArrayEqualHelper<unsigned short> >
PUBLIC	??1?$CSimpleArray@GV?$CSimpleArrayEqualHelper@G@ATL@@@ATL@@QAE@XZ ; ATL::CSimpleArray<unsigned short,ATL::CSimpleArrayEqualHelper<unsigned short> >::~CSimpleArray<unsigned short,ATL::CSimpleArrayEqualHelper<unsigned short> >
PUBLIC	?GetSize@?$CSimpleArray@GV?$CSimpleArrayEqualHelper@G@ATL@@@ATL@@QBEHXZ ; ATL::CSimpleArray<unsigned short,ATL::CSimpleArrayEqualHelper<unsigned short> >::GetSize
PUBLIC	?Add@?$CSimpleArray@GV?$CSimpleArrayEqualHelper@G@ATL@@@ATL@@QAEHABG@Z ; ATL::CSimpleArray<unsigned short,ATL::CSimpleArrayEqualHelper<unsigned short> >::Add
PUBLIC	?RemoveAll@?$CSimpleArray@GV?$CSimpleArrayEqualHelper@G@ATL@@@ATL@@QAEXXZ ; ATL::CSimpleArray<unsigned short,ATL::CSimpleArrayEqualHelper<unsigned short> >::RemoveAll
PUBLIC	??A?$CSimpleArray@GV?$CSimpleArrayEqualHelper@G@ATL@@@ATL@@QAEAAGH@Z ; ATL::CSimpleArray<unsigned short,ATL::CSimpleArrayEqualHelper<unsigned short> >::operator[]
PUBLIC	?InternalSetAtIndex@?$CSimpleArray@GV?$CSimpleArrayEqualHelper@G@ATL@@@ATL@@QAEXHABG@Z ; ATL::CSimpleArray<unsigned short,ATL::CSimpleArrayEqualHelper<unsigned short> >::InternalSetAtIndex
PUBLIC	??0_ATL_WIN_MODULE70@ATL@@QAE@XZ		; ATL::_ATL_WIN_MODULE70::_ATL_WIN_MODULE70
PUBLIC	??1_ATL_WIN_MODULE70@ATL@@QAE@XZ		; ATL::_ATL_WIN_MODULE70::~_ATL_WIN_MODULE70
PUBLIC	??0_ATL_MODULE70@ATL@@QAE@XZ			; ATL::_ATL_MODULE70::_ATL_MODULE70
PUBLIC	??1_ATL_MODULE70@ATL@@QAE@XZ			; ATL::_ATL_MODULE70::~_ATL_MODULE70
PUBLIC	?AtlInternalQueryInterface@ATL@@YGJPAXPBU_ATL_INTMAP_ENTRY@1@ABU_GUID@@PAPAX@Z ; ATL::AtlInternalQueryInterface
PUBLIC	?AtlComModuleGetClassObject@ATL@@YGJPAU_ATL_COM_MODULE70@1@ABU_GUID@@1PAPAX@Z ; ATL::AtlComModuleGetClassObject
PUBLIC	?AtlRegisterClassCategoriesHelper@ATL@@YGJABU_GUID@@PBU_ATL_CATMAP_ENTRY@1@H@Z ; ATL::AtlRegisterClassCategoriesHelper
PUBLIC	?AtlGetPerUserRegistration@ATL@@YGJPA_N@Z	; ATL::AtlGetPerUserRegistration
PUBLIC	?AtlLoadTypeLib@ATL@@YGJPAUHINSTANCE__@@PB_WPAPA_WPAPAUITypeLib@@@Z ; ATL::AtlLoadTypeLib
PUBLIC	?AtlRegisterTypeLib@ATL@@YGJPAUHINSTANCE__@@PB_W@Z ; ATL::AtlRegisterTypeLib
PUBLIC	?AtlUnRegisterTypeLib@ATL@@YGJPAUHINSTANCE__@@PB_W@Z ; ATL::AtlUnRegisterTypeLib
PUBLIC	?AtlComModuleRegisterServer@ATL@@YGJPAU_ATL_COM_MODULE70@1@HPBU_GUID@@@Z ; ATL::AtlComModuleRegisterServer
PUBLIC	?AtlComModuleUnregisterServer@ATL@@YGJPAU_ATL_COM_MODULE70@1@HPBU_GUID@@@Z ; ATL::AtlComModuleUnregisterServer
PUBLIC	?AtlModuleAddTermFunc@ATL@@YGJPAU_ATL_MODULE70@1@P6GXK@ZK@Z ; ATL::AtlModuleAddTermFunc
PUBLIC	?AtlCallTermFunc@ATL@@YGXPAU_ATL_MODULE70@1@@Z	; ATL::AtlCallTermFunc
PUBLIC	?AtlWinModuleInit@ATL@@YGJPAU_ATL_WIN_MODULE70@1@@Z ; ATL::AtlWinModuleInit
PUBLIC	?AtlWinModuleTerm@ATL@@YGJPAU_ATL_WIN_MODULE70@1@PAUHINSTANCE__@@@Z ; ATL::AtlWinModuleTerm
PUBLIC	?AtlWinModuleAddCreateWndData@ATL@@YGXPAU_ATL_WIN_MODULE70@1@PAU_AtlCreateWndData@1@PAX@Z ; ATL::AtlWinModuleAddCreateWndData
PUBLIC	?AtlWinModuleExtractCreateWndData@ATL@@YGPAXPAU_ATL_WIN_MODULE70@1@@Z ; ATL::AtlWinModuleExtractCreateWndData
PUBLIC	?InlineIsEqualUnknown@ATL@@YGHABU_GUID@@@Z	; ATL::InlineIsEqualUnknown
PUBLIC	??0CRegKey@ATL@@QAE@PAVCAtlTransactionManager@1@@Z ; ATL::CRegKey::CRegKey
PUBLIC	??0CRegKey@ATL@@QAE@PAUHKEY__@@@Z		; ATL::CRegKey::CRegKey
PUBLIC	??1CRegKey@ATL@@QAE@XZ				; ATL::CRegKey::~CRegKey
PUBLIC	??BCRegKey@ATL@@QBEPAUHKEY__@@XZ		; ATL::CRegKey::operator HKEY__ *
PUBLIC	?SetDWORDValue@CRegKey@ATL@@QAEJPB_WK@Z		; ATL::CRegKey::SetDWORDValue
PUBLIC	?SetStringValue@CRegKey@ATL@@QAEJPB_W0K@Z	; ATL::CRegKey::SetStringValue
PUBLIC	?SetMultiStringValue@CRegKey@ATL@@QAEJPB_W0@Z	; ATL::CRegKey::SetMultiStringValue
PUBLIC	?atlCreate@CRegKey@ATL@@QAEJPAUHKEY__@@PB_WPA_WKKPAU_SECURITY_ATTRIBUTES@@PAK@Z ; ATL::CRegKey::atlCreate
PUBLIC	?Open@CRegKey@ATL@@QAEJPAUHKEY__@@PB_WK@Z	; ATL::CRegKey::Open
PUBLIC	?Close@CRegKey@ATL@@QAEJXZ			; ATL::CRegKey::Close
PUBLIC	?Detach@CRegKey@ATL@@QAEPAUHKEY__@@XZ		; ATL::CRegKey::Detach
PUBLIC	?Attach@CRegKey@ATL@@QAEXPAUHKEY__@@@Z		; ATL::CRegKey::Attach
PUBLIC	?DeleteSubKey@CRegKey@ATL@@QAEJPB_W@Z		; ATL::CRegKey::DeleteSubKey
PUBLIC	?RecurseDeleteKey@CRegKey@ATL@@QAEJPB_W@Z	; ATL::CRegKey::RecurseDeleteKey
PUBLIC	?DeleteValue@CRegKey@ATL@@QAEJPB_W@Z		; ATL::CRegKey::DeleteValue
PUBLIC	??0CAtlComModule@ATL@@QAE@XZ			; ATL::CAtlComModule::CAtlComModule
PUBLIC	??1CAtlComModule@ATL@@QAE@XZ			; ATL::CAtlComModule::~CAtlComModule
PUBLIC	?Term@CAtlComModule@ATL@@QAEXXZ			; ATL::CAtlComModule::Term
PUBLIC	?RegisterServer@CAtlComModule@ATL@@QAEJHPBU_GUID@@@Z ; ATL::CAtlComModule::RegisterServer
PUBLIC	?UnregisterServer@CAtlComModule@ATL@@QAEJHPBU_GUID@@@Z ; ATL::CAtlComModule::UnregisterServer
PUBLIC	??0CAtlWinModule@ATL@@QAE@XZ			; ATL::CAtlWinModule::CAtlWinModule
PUBLIC	??1CAtlWinModule@ATL@@QAE@XZ			; ATL::CAtlWinModule::~CAtlWinModule
PUBLIC	?Term@CAtlWinModule@ATL@@QAEXXZ			; ATL::CAtlWinModule::Term
PUBLIC	?AddCreateWndData@CAtlWinModule@ATL@@QAEXPAU_AtlCreateWndData@2@PAX@Z ; ATL::CAtlWinModule::AddCreateWndData
PUBLIC	?ExtractCreateWndData@CAtlWinModule@ATL@@QAEPAXXZ ; ATL::CAtlWinModule::ExtractCreateWndData
PUBLIC	??0CAtlModule@ATL@@QAE@XZ			; ATL::CAtlModule::CAtlModule
PUBLIC	?Term@CAtlModule@ATL@@QAEXXZ			; ATL::CAtlModule::Term
PUBLIC	??1CAtlModule@ATL@@UAE@XZ			; ATL::CAtlModule::~CAtlModule
PUBLIC	?Lock@CAtlModule@ATL@@UAEJXZ			; ATL::CAtlModule::Lock
PUBLIC	?Unlock@CAtlModule@ATL@@UAEJXZ			; ATL::CAtlModule::Unlock
PUBLIC	?GetLockCount@CAtlModule@ATL@@UAEJXZ		; ATL::CAtlModule::GetLockCount
PUBLIC	?AddTermFunc@CAtlModule@ATL@@QAEJP6GXK@ZK@Z	; ATL::CAtlModule::AddTermFunc
PUBLIC	?GetGITPtr@CAtlModule@ATL@@UAEJPAPAUIGlobalInterfaceTable@@@Z ; ATL::CAtlModule::GetGITPtr
PUBLIC	?UpdateRegistryFromResource@CAtlModule@ATL@@QAGJPB_WHPAU_ATL_REGMAP_ENTRY@2@@Z ; ATL::CAtlModule::UpdateRegistryFromResource
PUBLIC	?UpdateRegistryFromResource@CAtlModule@ATL@@QAGJIHPAU_ATL_REGMAP_ENTRY@2@@Z ; ATL::CAtlModule::UpdateRegistryFromResource
PUBLIC	?EscapeSingleQuote@CAtlModule@ATL@@SAXPA_WIPB_W@Z ; ATL::CAtlModule::EscapeSingleQuote
PUBLIC	??0?$CAtlModuleT@VCComModule@ATL@@@ATL@@QAE@XZ	; ATL::CAtlModuleT<ATL::CComModule>::CAtlModuleT<ATL::CComModule>
PUBLIC	?InitLibId@?$CAtlModuleT@VCComModule@ATL@@@ATL@@SAXXZ ; ATL::CAtlModuleT<ATL::CComModule>::InitLibId
PUBLIC	?RegisterServer@?$CAtlModuleT@VCComModule@ATL@@@ATL@@QAEJHPBU_GUID@@@Z ; ATL::CAtlModuleT<ATL::CComModule>::RegisterServer
PUBLIC	?UnregisterServer@?$CAtlModuleT@VCComModule@ATL@@@ATL@@QAEJHPBU_GUID@@@Z ; ATL::CAtlModuleT<ATL::CComModule>::UnregisterServer
PUBLIC	?AddCommonRGSReplacements@?$CAtlModuleT@VCComModule@ATL@@@ATL@@UAEJPAUIRegistrarBase@@@Z ; ATL::CAtlModuleT<ATL::CComModule>::AddCommonRGSReplacements
PUBLIC	?GetAppId@?$CAtlModuleT@VCComModule@ATL@@@ATL@@SAPB_WXZ ; ATL::CAtlModuleT<ATL::CComModule>::GetAppId
PUBLIC	??1?$CAtlModuleT@VCComModule@ATL@@@ATL@@UAE@XZ	; ATL::CAtlModuleT<ATL::CComModule>::~CAtlModuleT<ATL::CComModule>
PUBLIC	??0CComModule@ATL@@QAE@XZ			; ATL::CComModule::CComModule
PUBLIC	??1CComModule@ATL@@UAE@XZ			; ATL::CComModule::~CComModule
PUBLIC	?Init@CComModule@ATL@@QAEJPAU_ATL_OBJMAP_ENTRY30@2@PAUHINSTANCE__@@PBU_GUID@@@Z ; ATL::CComModule::Init
PUBLIC	?Term@CComModule@ATL@@QAEXXZ			; ATL::CComModule::Term
PUBLIC	?GetClassObject@CComModule@ATL@@QAEJABU_GUID@@0PAPAX@Z ; ATL::CComModule::GetClassObject
PUBLIC	?RegisterServer@CComModule@ATL@@QAEJHPBU_GUID@@@Z ; ATL::CComModule::RegisterServer
PUBLIC	?UnregisterServer@CComModule@ATL@@QAEJHPBU_GUID@@@Z ; ATL::CComModule::UnregisterServer
PUBLIC	?UpdateRegistryFromResourceD@CComModule@ATL@@UAGJPB_WHPAU_ATL_REGMAP_ENTRY@2@@Z ; ATL::CComModule::UpdateRegistryFromResourceD
PUBLIC	?UpdateRegistryFromResourceD@CComModule@ATL@@UAGJIHPAU_ATL_REGMAP_ENTRY@2@@Z ; ATL::CComModule::UpdateRegistryFromResourceD
PUBLIC	?UpdateRegistryFromResource@CComModule@ATL@@UAGJPB_WHPAU_ATL_REGMAP_ENTRY@2@@Z ; ATL::CComModule::UpdateRegistryFromResource
PUBLIC	?UpdateRegistryFromResource@CComModule@ATL@@UAGJIHPAU_ATL_REGMAP_ENTRY@2@@Z ; ATL::CComModule::UpdateRegistryFromResource
PUBLIC	??_GCComModule@ATL@@UAEPAXI@Z			; ATL::CComModule::`scalar deleting destructor'
PUBLIC	?IsEqualKey@CExpansionVectorEqualHelper@ATL@@SA_NQA_W0@Z ; ATL::CExpansionVectorEqualHelper::IsEqualKey
PUBLIC	??0?$CSimpleMap@PA_WPA_WVCExpansionVectorEqualHelper@ATL@@@ATL@@QAE@XZ ; ATL::CSimpleMap<wchar_t *,wchar_t *,ATL::CExpansionVectorEqualHelper>::CSimpleMap<wchar_t *,wchar_t *,ATL::CExpansionVectorEqualHelper>
PUBLIC	??1?$CSimpleMap@PA_WPA_WVCExpansionVectorEqualHelper@ATL@@@ATL@@QAE@XZ ; ATL::CSimpleMap<wchar_t *,wchar_t *,ATL::CExpansionVectorEqualHelper>::~CSimpleMap<wchar_t *,wchar_t *,ATL::CExpansionVectorEqualHelper>
PUBLIC	?GetSize@?$CSimpleMap@PA_WPA_WVCExpansionVectorEqualHelper@ATL@@@ATL@@QBEHXZ ; ATL::CSimpleMap<wchar_t *,wchar_t *,ATL::CExpansionVectorEqualHelper>::GetSize
PUBLIC	?Add@?$CSimpleMap@PA_WPA_WVCExpansionVectorEqualHelper@ATL@@@ATL@@QAEHABQA_W0@Z ; ATL::CSimpleMap<wchar_t *,wchar_t *,ATL::CExpansionVectorEqualHelper>::Add
PUBLIC	?RemoveAll@?$CSimpleMap@PA_WPA_WVCExpansionVectorEqualHelper@ATL@@@ATL@@QAEXXZ ; ATL::CSimpleMap<wchar_t *,wchar_t *,ATL::CExpansionVectorEqualHelper>::RemoveAll
PUBLIC	?Lookup@?$CSimpleMap@PA_WPA_WVCExpansionVectorEqualHelper@ATL@@@ATL@@QBEPA_WABQA_W@Z ; ATL::CSimpleMap<wchar_t *,wchar_t *,ATL::CExpansionVectorEqualHelper>::Lookup
PUBLIC	?GetKeyAt@?$CSimpleMap@PA_WPA_WVCExpansionVectorEqualHelper@ATL@@@ATL@@QBEAAPA_WH@Z ; ATL::CSimpleMap<wchar_t *,wchar_t *,ATL::CExpansionVectorEqualHelper>::GetKeyAt
PUBLIC	?GetValueAt@?$CSimpleMap@PA_WPA_WVCExpansionVectorEqualHelper@ATL@@@ATL@@QBEAAPA_WH@Z ; ATL::CSimpleMap<wchar_t *,wchar_t *,ATL::CExpansionVectorEqualHelper>::GetValueAt
PUBLIC	?FindKey@?$CSimpleMap@PA_WPA_WVCExpansionVectorEqualHelper@ATL@@@ATL@@QBEHABQA_W@Z ; ATL::CSimpleMap<wchar_t *,wchar_t *,ATL::CExpansionVectorEqualHelper>::FindKey
PUBLIC	?InternalSetAtIndex@?$CSimpleMap@PA_WPA_WVCExpansionVectorEqualHelper@ATL@@@ATL@@QAEXHABQA_W0@Z ; ATL::CSimpleMap<wchar_t *,wchar_t *,ATL::CExpansionVectorEqualHelper>::InternalSetAtIndex
PUBLIC	??1CExpansionVector@ATL@@QAE@XZ			; ATL::CExpansionVector::~CExpansionVector
PUBLIC	?Add@CExpansionVector@ATL@@QAEHPB_W0@Z		; ATL::CExpansionVector::Add
PUBLIC	?ClearReplacements@CExpansionVector@ATL@@QAEJXZ	; ATL::CExpansionVector::ClearReplacements
PUBLIC	??0CExpansionVector@ATL@@QAE@XZ			; ATL::CExpansionVector::CExpansionVector
PUBLIC	??0?$CAutoVectorPtr@_W@ATL@@QAE@XZ		; ATL::CAutoVectorPtr<wchar_t>::CAutoVectorPtr<wchar_t>
PUBLIC	??1?$CAutoVectorPtr@_W@ATL@@QAE@XZ		; ATL::CAutoVectorPtr<wchar_t>::~CAutoVectorPtr<wchar_t>
PUBLIC	?Attach@?$CAutoVectorPtr@_W@ATL@@QAEXPA_W@Z	; ATL::CAutoVectorPtr<wchar_t>::Attach
PUBLIC	?Detach@?$CAutoVectorPtr@_W@ATL@@QAEPA_WXZ	; ATL::CAutoVectorPtr<wchar_t>::Detach
PUBLIC	?Free@?$CAutoVectorPtr@_W@ATL@@QAEXXZ		; ATL::CAutoVectorPtr<wchar_t>::Free
PUBLIC	??0CRegParser@ATL@@QAE@PAVCRegObject@1@@Z	; ATL::CRegParser::CRegParser
PUBLIC	?PreProcessBuffer@CRegParser@ATL@@QAEJPA_WPAPA_W@Z ; ATL::CRegParser::PreProcessBuffer
PUBLIC	?RegisterBuffer@CRegParser@ATL@@QAEJPA_WH@Z	; ATL::CRegParser::RegisterBuffer
PUBLIC	?SkipWhiteSpace@CRegParser@ATL@@IAEXXZ		; ATL::CRegParser::SkipWhiteSpace
PUBLIC	?NextToken@CRegParser@ATL@@IAEJPA_W@Z		; ATL::CRegParser::NextToken
PUBLIC	?AddValue@CRegParser@ATL@@IAEJAAVCRegKey@2@PB_WPA_W@Z ; ATL::CRegParser::AddValue
PUBLIC	?CanForceRemoveKey@CRegParser@ATL@@IAEHPB_W@Z	; ATL::CRegParser::CanForceRemoveKey
PUBLIC	?HasSubKeys@CRegParser@ATL@@IAEHPAUHKEY__@@@Z	; ATL::CRegParser::HasSubKeys
PUBLIC	?RegisterSubkeys@CRegParser@ATL@@IAEJPA_WPAUHKEY__@@HH@Z ; ATL::CRegParser::RegisterSubkeys
PUBLIC	?IsSpace@CRegParser@ATL@@IAEH_W@Z		; ATL::CRegParser::IsSpace
PUBLIC	?GenerateError@CRegParser@ATL@@IAEJI@Z		; ATL::CRegParser::GenerateError
PUBLIC	?SkipAssignment@CRegParser@ATL@@IAEJPA_W@Z	; ATL::CRegParser::SkipAssignment
PUBLIC	?EndOfVar@CRegParser@ATL@@IAEHXZ		; ATL::CRegParser::EndOfVar
PUBLIC	?StrChrW@CRegParser@ATL@@KAPA_WPA_W_W@Z		; ATL::CRegParser::StrChrW
PUBLIC	?HKeyFromString@CRegParser@ATL@@KAPAUHKEY__@@PA_W@Z ; ATL::CRegParser::HKeyFromString
PUBLIC	?ChToByte@CRegParser@ATL@@KAE_W@Z		; ATL::CRegParser::ChToByte
PUBLIC	?VTFromRegType@CRegParser@ATL@@KAHPB_WAAG@Z	; ATL::CRegParser::VTFromRegType
PUBLIC	??0CParseBuffer@CRegParser@ATL@@QAE@H@Z		; ATL::CRegParser::CParseBuffer::CParseBuffer
PUBLIC	??1CParseBuffer@CRegParser@ATL@@QAE@XZ		; ATL::CRegParser::CParseBuffer::~CParseBuffer
PUBLIC	?Append@CParseBuffer@CRegParser@ATL@@QAEHPB_WH@Z ; ATL::CRegParser::CParseBuffer::Append
PUBLIC	?AddChar@CParseBuffer@CRegParser@ATL@@QAEHPB_W@Z ; ATL::CRegParser::CParseBuffer::AddChar
PUBLIC	?AddString@CParseBuffer@CRegParser@ATL@@QAEHPB_W@Z ; ATL::CRegParser::CParseBuffer::AddString
PUBLIC	?Detach@CParseBuffer@CRegParser@ATL@@QAEPA_WXZ	; ATL::CRegParser::CParseBuffer::Detach
PUBLIC	?QueryInterface@CRegObject@ATL@@UAGJABU_GUID@@PAPAX@Z ; ATL::CRegObject::QueryInterface
PUBLIC	?AddRef@CRegObject@ATL@@UAGKXZ			; ATL::CRegObject::AddRef
PUBLIC	?Release@CRegObject@ATL@@UAGKXZ			; ATL::CRegObject::Release
PUBLIC	??1CRegObject@ATL@@UAE@XZ			; ATL::CRegObject::~CRegObject
PUBLIC	?FinalConstruct@CRegObject@ATL@@QAEJXZ		; ATL::CRegObject::FinalConstruct
PUBLIC	?AddReplacement@CRegObject@ATL@@UAGJPB_W0@Z	; ATL::CRegObject::AddReplacement
PUBLIC	?ClearReplacements@CRegObject@ATL@@UAGJXZ	; ATL::CRegObject::ClearReplacements
PUBLIC	?StrFromMap@CRegObject@ATL@@QAEPB_WPA_W@Z	; ATL::CRegObject::StrFromMap
PUBLIC	?ResourceRegister@CRegObject@ATL@@QAGJPB_WI0@Z	; ATL::CRegObject::ResourceRegister
PUBLIC	?ResourceRegisterSz@CRegObject@ATL@@QAGJPB_W00@Z ; ATL::CRegObject::ResourceRegisterSz
PUBLIC	?ResourceUnregister@CRegObject@ATL@@QAGJPB_WI0@Z ; ATL::CRegObject::ResourceUnregister
PUBLIC	?ResourceUnregisterSz@CRegObject@ATL@@QAGJPB_W00@Z ; ATL::CRegObject::ResourceUnregisterSz
PUBLIC	?RegisterFromResource@CRegObject@ATL@@IAEJPB_W00H@Z ; ATL::CRegObject::RegisterFromResource
PUBLIC	??0CRegObject@ATL@@QAE@XZ			; ATL::CRegObject::CRegObject
PUBLIC	??_GCRegObject@ATL@@UAEPAXI@Z			; ATL::CRegObject::`scalar deleting destructor'
PUBLIC	??0?$CTempBuffer@_W$0EAA@VCCRTAllocator@ATL@@@ATL@@QAE@XZ ; ATL::CTempBuffer<wchar_t,1024,ATL::CCRTAllocator>::CTempBuffer<wchar_t,1024,ATL::CCRTAllocator>
PUBLIC	??1?$CTempBuffer@_W$0EAA@VCCRTAllocator@ATL@@@ATL@@QAE@XZ ; ATL::CTempBuffer<wchar_t,1024,ATL::CCRTAllocator>::~CTempBuffer<wchar_t,1024,ATL::CCRTAllocator>
PUBLIC	??B?$CTempBuffer@_W$0EAA@VCCRTAllocator@ATL@@@ATL@@QBEPA_WXZ ; ATL::CTempBuffer<wchar_t,1024,ATL::CCRTAllocator>::operator wchar_t *
PUBLIC	?Allocate@?$CTempBuffer@_W$0EAA@VCCRTAllocator@ATL@@@ATL@@QAEPA_WI@Z ; ATL::CTempBuffer<wchar_t,1024,ATL::CCRTAllocator>::Allocate
PUBLIC	?AllocateBytes@?$CTempBuffer@_W$0EAA@VCCRTAllocator@ATL@@@ATL@@QAEPA_WI@Z ; ATL::CTempBuffer<wchar_t,1024,ATL::CCRTAllocator>::AllocateBytes
PUBLIC	?AllocateHeap@?$CTempBuffer@_W$0EAA@VCCRTAllocator@ATL@@@ATL@@AAEXI@Z ; ATL::CTempBuffer<wchar_t,1024,ATL::CCRTAllocator>::AllocateHeap
PUBLIC	?FreeHeap@?$CTempBuffer@_W$0EAA@VCCRTAllocator@ATL@@@ATL@@AAEXXZ ; ATL::CTempBuffer<wchar_t,1024,ATL::CCRTAllocator>::FreeHeap
PUBLIC	??0?$CTempBuffer@_W$0BAA@VCCRTAllocator@ATL@@@ATL@@QAE@XZ ; ATL::CTempBuffer<wchar_t,256,ATL::CCRTAllocator>::CTempBuffer<wchar_t,256,ATL::CCRTAllocator>
PUBLIC	??1?$CTempBuffer@_W$0BAA@VCCRTAllocator@ATL@@@ATL@@QAE@XZ ; ATL::CTempBuffer<wchar_t,256,ATL::CCRTAllocator>::~CTempBuffer<wchar_t,256,ATL::CCRTAllocator>
PUBLIC	??B?$CTempBuffer@_W$0BAA@VCCRTAllocator@ATL@@@ATL@@QBEPA_WXZ ; ATL::CTempBuffer<wchar_t,256,ATL::CCRTAllocator>::operator wchar_t *
PUBLIC	?Allocate@?$CTempBuffer@_W$0BAA@VCCRTAllocator@ATL@@@ATL@@QAEPA_WI@Z ; ATL::CTempBuffer<wchar_t,256,ATL::CCRTAllocator>::Allocate
PUBLIC	?AllocateBytes@?$CTempBuffer@_W$0BAA@VCCRTAllocator@ATL@@@ATL@@QAEPA_WI@Z ; ATL::CTempBuffer<wchar_t,256,ATL::CCRTAllocator>::AllocateBytes
PUBLIC	?AllocateHeap@?$CTempBuffer@_W$0BAA@VCCRTAllocator@ATL@@@ATL@@AAEXI@Z ; ATL::CTempBuffer<wchar_t,256,ATL::CCRTAllocator>::AllocateHeap
PUBLIC	?FreeHeap@?$CTempBuffer@_W$0BAA@VCCRTAllocator@ATL@@@ATL@@AAEXXZ ; ATL::CTempBuffer<wchar_t,256,ATL::CCRTAllocator>::FreeHeap
PUBLIC	??0?$CTempBuffer@E$0BAA@VCCRTAllocator@ATL@@@ATL@@QAE@XZ ; ATL::CTempBuffer<unsigned char,256,ATL::CCRTAllocator>::CTempBuffer<unsigned char,256,ATL::CCRTAllocator>
PUBLIC	??1?$CTempBuffer@E$0BAA@VCCRTAllocator@ATL@@@ATL@@QAE@XZ ; ATL::CTempBuffer<unsigned char,256,ATL::CCRTAllocator>::~CTempBuffer<unsigned char,256,ATL::CCRTAllocator>
PUBLIC	??B?$CTempBuffer@E$0BAA@VCCRTAllocator@ATL@@@ATL@@QBEPAEXZ ; ATL::CTempBuffer<unsigned char,256,ATL::CCRTAllocator>::operator unsigned char *
PUBLIC	?Allocate@?$CTempBuffer@E$0BAA@VCCRTAllocator@ATL@@@ATL@@QAEPAEI@Z ; ATL::CTempBuffer<unsigned char,256,ATL::CCRTAllocator>::Allocate
PUBLIC	?AllocateBytes@?$CTempBuffer@E$0BAA@VCCRTAllocator@ATL@@@ATL@@QAEPAEI@Z ; ATL::CTempBuffer<unsigned char,256,ATL::CCRTAllocator>::AllocateBytes
PUBLIC	?AllocateHeap@?$CTempBuffer@E$0BAA@VCCRTAllocator@ATL@@@ATL@@AAEXI@Z ; ATL::CTempBuffer<unsigned char,256,ATL::CCRTAllocator>::AllocateHeap
PUBLIC	?FreeHeap@?$CTempBuffer@E$0BAA@VCCRTAllocator@ATL@@@ATL@@AAEXXZ ; ATL::CTempBuffer<unsigned char,256,ATL::CCRTAllocator>::FreeHeap
PUBLIC	??0?$CComPtrBase@UICatRegister@@@ATL@@IAE@XZ	; ATL::CComPtrBase<ICatRegister>::CComPtrBase<ICatRegister>
PUBLIC	??1?$CComPtrBase@UICatRegister@@@ATL@@QAE@XZ	; ATL::CComPtrBase<ICatRegister>::~CComPtrBase<ICatRegister>
PUBLIC	??I?$CComPtrBase@UICatRegister@@@ATL@@QAEPAPAUICatRegister@@XZ ; ATL::CComPtrBase<ICatRegister>::operator&
PUBLIC	??C?$CComPtrBase@UICatRegister@@@ATL@@QBEPAV?$_NoAddRefReleaseOnCComPtr@UICatRegister@@@1@XZ ; ATL::CComPtrBase<ICatRegister>::operator->
PUBLIC	??0?$CComPtr@UICatRegister@@@ATL@@QAE@XZ	; ATL::CComPtr<ICatRegister>::CComPtr<ICatRegister>
PUBLIC	??1?$CComPtr@UICatRegister@@@ATL@@QAE@XZ	; ATL::CComPtr<ICatRegister>::~CComPtr<ICatRegister>
PUBLIC	??0?$CComPtrBase@UITypeLib@@@ATL@@IAE@XZ	; ATL::CComPtrBase<ITypeLib>::CComPtrBase<ITypeLib>
PUBLIC	??1?$CComPtrBase@UITypeLib@@@ATL@@QAE@XZ	; ATL::CComPtrBase<ITypeLib>::~CComPtrBase<ITypeLib>
PUBLIC	??B?$CComPtrBase@UITypeLib@@@ATL@@QBEPAUITypeLib@@XZ ; ATL::CComPtrBase<ITypeLib>::operator ITypeLib *
PUBLIC	??I?$CComPtrBase@UITypeLib@@@ATL@@QAEPAPAUITypeLib@@XZ ; ATL::CComPtrBase<ITypeLib>::operator&
PUBLIC	??C?$CComPtrBase@UITypeLib@@@ATL@@QBEPAV?$_NoAddRefReleaseOnCComPtr@UITypeLib@@@1@XZ ; ATL::CComPtrBase<ITypeLib>::operator->
PUBLIC	??0?$CComPtr@UITypeLib@@@ATL@@QAE@XZ		; ATL::CComPtr<ITypeLib>::CComPtr<ITypeLib>
PUBLIC	??1?$CComPtr@UITypeLib@@@ATL@@QAE@XZ		; ATL::CComPtr<ITypeLib>::~CComPtr<ITypeLib>
PUBLIC	??0?$CComCritSecLock@VCComCriticalSection@ATL@@@ATL@@QAE@AAVCComCriticalSection@1@_N@Z ; ATL::CComCritSecLock<ATL::CComCriticalSection>::CComCritSecLock<ATL::CComCriticalSection>
PUBLIC	??1?$CComCritSecLock@VCComCriticalSection@ATL@@@ATL@@QAE@XZ ; ATL::CComCritSecLock<ATL::CComCriticalSection>::~CComCritSecLock<ATL::CComCriticalSection>
PUBLIC	?Lock@?$CComCritSecLock@VCComCriticalSection@ATL@@@ATL@@QAEJXZ ; ATL::CComCritSecLock<ATL::CComCriticalSection>::Lock
PUBLIC	?Unlock@?$CComCritSecLock@VCComCriticalSection@ATL@@@ATL@@QAEXXZ ; ATL::CComCritSecLock<ATL::CComCriticalSection>::Unlock
PUBLIC	??0?$CComPtrBase@UIConnectionPointContainer@@@ATL@@IAE@XZ ; ATL::CComPtrBase<IConnectionPointContainer>::CComPtrBase<IConnectionPointContainer>
PUBLIC	??1?$CComPtrBase@UIConnectionPointContainer@@@ATL@@QAE@XZ ; ATL::CComPtrBase<IConnectionPointContainer>::~CComPtrBase<IConnectionPointContainer>
PUBLIC	??I?$CComPtrBase@UIConnectionPointContainer@@@ATL@@QAEPAPAUIConnectionPointContainer@@XZ ; ATL::CComPtrBase<IConnectionPointContainer>::operator&
PUBLIC	??C?$CComPtrBase@UIConnectionPointContainer@@@ATL@@QBEPAV?$_NoAddRefReleaseOnCComPtr@UIConnectionPointContainer@@@1@XZ ; ATL::CComPtrBase<IConnectionPointContainer>::operator->
PUBLIC	??9?$CComPtrBase@UIConnectionPointContainer@@@ATL@@QBE_NPAUIConnectionPointContainer@@@Z ; ATL::CComPtrBase<IConnectionPointContainer>::operator!=
PUBLIC	??8?$CComPtrBase@UIConnectionPointContainer@@@ATL@@QBE_NPAUIConnectionPointContainer@@@Z ; ATL::CComPtrBase<IConnectionPointContainer>::operator==
PUBLIC	??0?$CComPtr@UIConnectionPointContainer@@@ATL@@QAE@XZ ; ATL::CComPtr<IConnectionPointContainer>::CComPtr<IConnectionPointContainer>
PUBLIC	??1?$CComPtr@UIConnectionPointContainer@@@ATL@@QAE@XZ ; ATL::CComPtr<IConnectionPointContainer>::~CComPtr<IConnectionPointContainer>
PUBLIC	??0?$CComPtrBase@UIConnectionPoint@@@ATL@@IAE@XZ ; ATL::CComPtrBase<IConnectionPoint>::CComPtrBase<IConnectionPoint>
PUBLIC	??1?$CComPtrBase@UIConnectionPoint@@@ATL@@QAE@XZ ; ATL::CComPtrBase<IConnectionPoint>::~CComPtrBase<IConnectionPoint>
PUBLIC	??I?$CComPtrBase@UIConnectionPoint@@@ATL@@QAEPAPAUIConnectionPoint@@XZ ; ATL::CComPtrBase<IConnectionPoint>::operator&
PUBLIC	??C?$CComPtrBase@UIConnectionPoint@@@ATL@@QBEPAV?$_NoAddRefReleaseOnCComPtr@UIConnectionPoint@@@1@XZ ; ATL::CComPtrBase<IConnectionPoint>::operator->
PUBLIC	??0?$CComPtr@UIConnectionPoint@@@ATL@@QAE@XZ	; ATL::CComPtr<IConnectionPoint>::CComPtr<IConnectionPoint>
PUBLIC	??1?$CComPtr@UIConnectionPoint@@@ATL@@QAE@XZ	; ATL::CComPtr<IConnectionPoint>::~CComPtr<IConnectionPoint>
PUBLIC	?Init@CDynamicStdCallThunk2@ATL@@QAEHKPAX@Z	; ATL::CDynamicStdCallThunk2::Init
PUBLIC	?GetCodeAddress@CDynamicStdCallThunk2@ATL@@QAEPAXXZ ; ATL::CDynamicStdCallThunk2::GetCodeAddress
PUBLIC	??0?$CComPtrBase@UITypeInfo@@@ATL@@IAE@XZ	; ATL::CComPtrBase<ITypeInfo>::CComPtrBase<ITypeInfo>
PUBLIC	??0?$CComPtrBase@UITypeInfo@@@ATL@@IAE@PAUITypeInfo@@@Z ; ATL::CComPtrBase<ITypeInfo>::CComPtrBase<ITypeInfo>
PUBLIC	??1?$CComPtrBase@UITypeInfo@@@ATL@@QAE@XZ	; ATL::CComPtrBase<ITypeInfo>::~CComPtrBase<ITypeInfo>
PUBLIC	??B?$CComPtrBase@UITypeInfo@@@ATL@@QBEPAUITypeInfo@@XZ ; ATL::CComPtrBase<ITypeInfo>::operator ITypeInfo *
PUBLIC	??I?$CComPtrBase@UITypeInfo@@@ATL@@QAEPAPAUITypeInfo@@XZ ; ATL::CComPtrBase<ITypeInfo>::operator&
PUBLIC	??C?$CComPtrBase@UITypeInfo@@@ATL@@QBEPAV?$_NoAddRefReleaseOnCComPtr@UITypeInfo@@@1@XZ ; ATL::CComPtrBase<ITypeInfo>::operator->
PUBLIC	?IsEqualObject@?$CComPtrBase@UITypeInfo@@@ATL@@QAE_NPAUIUnknown@@@Z ; ATL::CComPtrBase<ITypeInfo>::IsEqualObject
PUBLIC	?Detach@?$CComPtrBase@UITypeInfo@@@ATL@@QAEPAUITypeInfo@@XZ ; ATL::CComPtrBase<ITypeInfo>::Detach
PUBLIC	??0?$CComPtr@UITypeInfo@@@ATL@@QAE@XZ		; ATL::CComPtr<ITypeInfo>::CComPtr<ITypeInfo>
PUBLIC	??0?$CComPtr@UITypeInfo@@@ATL@@QAE@ABV01@@Z	; ATL::CComPtr<ITypeInfo>::CComPtr<ITypeInfo>
PUBLIC	??1?$CComPtr@UITypeInfo@@@ATL@@QAE@XZ		; ATL::CComPtr<ITypeInfo>::~CComPtr<ITypeInfo>
PUBLIC	?AtlIPersistStreamInit_Load@ATL@@YGJPAUIStream@@PBUATL_PROPMAP_ENTRY@1@PAXPAUIUnknown@@@Z ; ATL::AtlIPersistStreamInit_Load
PUBLIC	?AtlIPersistStreamInit_Save@ATL@@YGJPAUIStream@@HPBUATL_PROPMAP_ENTRY@1@PAXPAUIUnknown@@@Z ; ATL::AtlIPersistStreamInit_Save
PUBLIC	??0CComObjectRootBase@ATL@@QAE@XZ		; ATL::CComObjectRootBase::CComObjectRootBase
PUBLIC	??1CComObjectRootBase@ATL@@QAE@XZ		; ATL::CComObjectRootBase::~CComObjectRootBase
PUBLIC	?FinalConstruct@CComObjectRootBase@ATL@@QAEJXZ	; ATL::CComObjectRootBase::FinalConstruct
PUBLIC	?_AtlFinalConstruct@CComObjectRootBase@ATL@@QAEJXZ ; ATL::CComObjectRootBase::_AtlFinalConstruct
PUBLIC	?FinalRelease@CComObjectRootBase@ATL@@QAEXXZ	; ATL::CComObjectRootBase::FinalRelease
PUBLIC	?InternalQueryInterface@CComObjectRootBase@ATL@@SGJPAXPBU_ATL_INTMAP_ENTRY@2@ABU_GUID@@PAPAX@Z ; ATL::CComObjectRootBase::InternalQueryInterface
PUBLIC	?OuterAddRef@CComObjectRootBase@ATL@@QAEKXZ	; ATL::CComObjectRootBase::OuterAddRef
PUBLIC	?OuterRelease@CComObjectRootBase@ATL@@QAEKXZ	; ATL::CComObjectRootBase::OuterRelease
PUBLIC	?OuterQueryInterface@CComObjectRootBase@ATL@@QAEJABU_GUID@@PAPAX@Z ; ATL::CComObjectRootBase::OuterQueryInterface
PUBLIC	?SetVoid@CComObjectRootBase@ATL@@QAEXPAX@Z	; ATL::CComObjectRootBase::SetVoid
PUBLIC	?InternalFinalConstructAddRef@CComObjectRootBase@ATL@@QAEXXZ ; ATL::CComObjectRootBase::InternalFinalConstructAddRef
PUBLIC	?InternalFinalConstructRelease@CComObjectRootBase@ATL@@QAEXXZ ; ATL::CComObjectRootBase::InternalFinalConstructRelease
PUBLIC	??1?$CComObjectRootEx@VCComSingleThreadModel@ATL@@@ATL@@QAE@XZ ; ATL::CComObjectRootEx<ATL::CComSingleThreadModel>::~CComObjectRootEx<ATL::CComSingleThreadModel>
PUBLIC	?InternalAddRef@?$CComObjectRootEx@VCComSingleThreadModel@ATL@@@ATL@@QAEKXZ ; ATL::CComObjectRootEx<ATL::CComSingleThreadModel>::InternalAddRef
PUBLIC	?InternalRelease@?$CComObjectRootEx@VCComSingleThreadModel@ATL@@@ATL@@QAEKXZ ; ATL::CComObjectRootEx<ATL::CComSingleThreadModel>::InternalRelease
PUBLIC	?_AtlInitialConstruct@?$CComObjectRootEx@VCComSingleThreadModel@ATL@@@ATL@@QAEJXZ ; ATL::CComObjectRootEx<ATL::CComSingleThreadModel>::_AtlInitialConstruct
PUBLIC	?Lock@?$CComObjectRootEx@VCComSingleThreadModel@ATL@@@ATL@@QAEXXZ ; ATL::CComObjectRootEx<ATL::CComSingleThreadModel>::Lock
PUBLIC	?Unlock@?$CComObjectRootEx@VCComSingleThreadModel@ATL@@@ATL@@QAEXXZ ; ATL::CComObjectRootEx<ATL::CComSingleThreadModel>::Unlock
PUBLIC	??0?$CComObjectRootEx@VCComSingleThreadModel@ATL@@@ATL@@QAE@XZ ; ATL::CComObjectRootEx<ATL::CComSingleThreadModel>::CComObjectRootEx<ATL::CComSingleThreadModel>
PUBLIC	??0ModuleLockHelper@ATL@@QAE@XZ			; ATL::ModuleLockHelper::ModuleLockHelper
PUBLIC	??1ModuleLockHelper@ATL@@QAE@XZ			; ATL::ModuleLockHelper::~ModuleLockHelper
PUBLIC	??1?$CComObjectRootEx@VCComMultiThreadModel@ATL@@@ATL@@QAE@XZ ; ATL::CComObjectRootEx<ATL::CComMultiThreadModel>::~CComObjectRootEx<ATL::CComMultiThreadModel>
PUBLIC	?InternalAddRef@?$CComObjectRootEx@VCComMultiThreadModel@ATL@@@ATL@@QAEKXZ ; ATL::CComObjectRootEx<ATL::CComMultiThreadModel>::InternalAddRef
PUBLIC	?InternalRelease@?$CComObjectRootEx@VCComMultiThreadModel@ATL@@@ATL@@QAEKXZ ; ATL::CComObjectRootEx<ATL::CComMultiThreadModel>::InternalRelease
PUBLIC	?_AtlInitialConstruct@?$CComObjectRootEx@VCComMultiThreadModel@ATL@@@ATL@@QAEJXZ ; ATL::CComObjectRootEx<ATL::CComMultiThreadModel>::_AtlInitialConstruct
PUBLIC	??0?$CComObjectRootEx@VCComMultiThreadModel@ATL@@@ATL@@QAE@XZ ; ATL::CComObjectRootEx<ATL::CComMultiThreadModel>::CComObjectRootEx<ATL::CComMultiThreadModel>
PUBLIC	?_InternalQueryInterface@CComClassFactory@ATL@@QAEJABU_GUID@@PAPAX@Z ; ATL::CComClassFactory::_InternalQueryInterface
PUBLIC	?_GetEntries@CComClassFactory@ATL@@SGPBU_ATL_INTMAP_ENTRY@2@XZ ; ATL::CComClassFactory::_GetEntries
PUBLIC	??1CComClassFactory@ATL@@UAE@XZ			; ATL::CComClassFactory::~CComClassFactory
PUBLIC	?CreateInstance@CComClassFactory@ATL@@UAGJPAUIUnknown@@ABU_GUID@@PAPAX@Z ; ATL::CComClassFactory::CreateInstance
PUBLIC	?LockServer@CComClassFactory@ATL@@UAGJH@Z	; ATL::CComClassFactory::LockServer
PUBLIC	?SetVoid@CComClassFactory@ATL@@QAEXPAX@Z	; ATL::CComClassFactory::SetVoid
PUBLIC	??0CComClassFactory@ATL@@QAE@XZ			; ATL::CComClassFactory::CComClassFactory
PUBLIC	??_GCComClassFactory@ATL@@UAEPAXI@Z		; ATL::CComClassFactory::`scalar deleting destructor'
PUBLIC	??0stringdispid@CComTypeInfoHolder@ATL@@QAE@XZ	; ATL::CComTypeInfoHolder::stringdispid::stringdispid
PUBLIC	??1stringdispid@CComTypeInfoHolder@ATL@@QAE@XZ	; ATL::CComTypeInfoHolder::stringdispid::~stringdispid
PUBLIC	??_Estringdispid@CComTypeInfoHolder@ATL@@QAEPAXI@Z ; ATL::CComTypeInfoHolder::stringdispid::`vector deleting destructor'
PUBLIC	?GetTI@CComTypeInfoHolder@ATL@@QAEJKPAPAUITypeInfo@@@Z ; ATL::CComTypeInfoHolder::GetTI
PUBLIC	?GetTI@CComTypeInfoHolder@ATL@@QAEJK@Z		; ATL::CComTypeInfoHolder::GetTI
PUBLIC	?EnsureTI@CComTypeInfoHolder@ATL@@QAEJK@Z	; ATL::CComTypeInfoHolder::EnsureTI
PUBLIC	?Cleanup@CComTypeInfoHolder@ATL@@SGXK@Z		; ATL::CComTypeInfoHolder::Cleanup
PUBLIC	?GetTypeInfo@CComTypeInfoHolder@ATL@@QAEJIKPAPAUITypeInfo@@@Z ; ATL::CComTypeInfoHolder::GetTypeInfo
PUBLIC	?GetIDsOfNames@CComTypeInfoHolder@ATL@@QAEJABU_GUID@@PAPA_WIKPAJ@Z ; ATL::CComTypeInfoHolder::GetIDsOfNames
PUBLIC	?Invoke@CComTypeInfoHolder@ATL@@QAEJPAUIDispatch@@JABU_GUID@@KGPAUtagDISPPARAMS@@PAUtagVARIANT@@PAUtagEXCEPINFO@@PAI@Z ; ATL::CComTypeInfoHolder::Invoke
PUBLIC	?LoadNameCache@CComTypeInfoHolder@ATL@@QAEJPAUITypeInfo@@@Z ; ATL::CComTypeInfoHolder::LoadNameCache
PUBLIC	??0?$CComPtrBase@UITypeInfo2@@@ATL@@IAE@XZ	; ATL::CComPtrBase<ITypeInfo2>::CComPtrBase<ITypeInfo2>
PUBLIC	??1?$CComPtrBase@UITypeInfo2@@@ATL@@QAE@XZ	; ATL::CComPtrBase<ITypeInfo2>::~CComPtrBase<ITypeInfo2>
PUBLIC	??B?$CComPtrBase@UITypeInfo2@@@ATL@@QBEPAUITypeInfo2@@XZ ; ATL::CComPtrBase<ITypeInfo2>::operator ITypeInfo2 *
PUBLIC	??I?$CComPtrBase@UITypeInfo2@@@ATL@@QAEPAPAUITypeInfo2@@XZ ; ATL::CComPtrBase<ITypeInfo2>::operator&
PUBLIC	??0?$CComPtr@UITypeInfo2@@@ATL@@QAE@XZ		; ATL::CComPtr<ITypeInfo2>::CComPtr<ITypeInfo2>
PUBLIC	??1?$CComPtr@UITypeInfo2@@@ATL@@QAE@XZ		; ATL::CComPtr<ITypeInfo2>::~CComPtr<ITypeInfo2>
PUBLIC	??$QueryInterface@UITypeInfo2@@@IUnknown@@QAGJPAPAUITypeInfo2@@@Z ; IUnknown::QueryInterface<ITypeInfo2>
PUBLIC	??$?4UITypeInfo2@@@?$CComPtr@UITypeInfo@@@ATL@@QAEPAUITypeInfo@@ABV?$CComPtr@UITypeInfo2@@@1@@Z ; ATL::CComPtr<ITypeInfo>::operator=<ITypeInfo2>
PUBLIC	?copy@?$_Copy@UtagCONNECTDATA@@@ATL@@SAJPAUtagCONNECTDATA@@PBU3@@Z ; ATL::_Copy<tagCONNECTDATA>::copy
PUBLIC	?init@?$_Copy@UtagCONNECTDATA@@@ATL@@SAXPAUtagCONNECTDATA@@@Z ; ATL::_Copy<tagCONNECTDATA>::init
PUBLIC	?destroy@?$_Copy@UtagCONNECTDATA@@@ATL@@SAXPAUtagCONNECTDATA@@@Z ; ATL::_Copy<tagCONNECTDATA>::destroy
PUBLIC	?Add@CComDynamicUnkArray@ATL@@QAEKPAUIUnknown@@@Z ; ATL::CComDynamicUnkArray::Add
PUBLIC	?Remove@CComDynamicUnkArray@ATL@@QAEHK@Z	; ATL::CComDynamicUnkArray::Remove
PUBLIC	?GetCookie@CComDynamicUnkArray@ATL@@QAGKPAPAUIUnknown@@@Z ; ATL::CComDynamicUnkArray::GetCookie
PUBLIC	?GetUnknown@CComDynamicUnkArray@ATL@@QAGPAUIUnknown@@K@Z ; ATL::CComDynamicUnkArray::GetUnknown
PUBLIC	?begin@CComDynamicUnkArray@ATL@@QAEPAPAUIUnknown@@XZ ; ATL::CComDynamicUnkArray::begin
PUBLIC	?end@CComDynamicUnkArray@ATL@@QAEPAPAUIUnknown@@XZ ; ATL::CComDynamicUnkArray::end
PUBLIC	?GetAt@CComDynamicUnkArray@ATL@@QAEPAUIUnknown@@H@Z ; ATL::CComDynamicUnkArray::GetAt
PUBLIC	?GetSize@CComDynamicUnkArray@ATL@@QBEHXZ	; ATL::CComDynamicUnkArray::GetSize
PUBLIC	??0?$CComPtrBase@UIProvideClassInfo2@@@ATL@@IAE@XZ ; ATL::CComPtrBase<IProvideClassInfo2>::CComPtrBase<IProvideClassInfo2>
PUBLIC	??1?$CComPtrBase@UIProvideClassInfo2@@@ATL@@QAE@XZ ; ATL::CComPtrBase<IProvideClassInfo2>::~CComPtrBase<IProvideClassInfo2>
PUBLIC	??B?$CComPtrBase@UIProvideClassInfo2@@@ATL@@QBEPAUIProvideClassInfo2@@XZ ; ATL::CComPtrBase<IProvideClassInfo2>::operator IProvideClassInfo2 *
PUBLIC	??I?$CComPtrBase@UIProvideClassInfo2@@@ATL@@QAEPAPAUIProvideClassInfo2@@XZ ; ATL::CComPtrBase<IProvideClassInfo2>::operator&
PUBLIC	??C?$CComPtrBase@UIProvideClassInfo2@@@ATL@@QBEPAV?$_NoAddRefReleaseOnCComPtr@UIProvideClassInfo2@@@1@XZ ; ATL::CComPtrBase<IProvideClassInfo2>::operator->
PUBLIC	??0?$CComPtr@UIProvideClassInfo2@@@ATL@@QAE@XZ	; ATL::CComPtr<IProvideClassInfo2>::CComPtr<IProvideClassInfo2>
PUBLIC	??1?$CComPtr@UIProvideClassInfo2@@@ATL@@QAE@XZ	; ATL::CComPtr<IProvideClassInfo2>::~CComPtr<IProvideClassInfo2>
PUBLIC	?SetWindowLongPtrW@@YAJPAUHWND__@@HJ@Z		; SetWindowLongPtrW
PUBLIC	?GetWindowLongPtrW@@YAJPAUHWND__@@H@Z		; GetWindowLongPtrW
PUBLIC	??0_U_RECT@ATL@@QAE@AAUtagRECT@@@Z		; ATL::_U_RECT::_U_RECT
PUBLIC	??0_U_MENUorID@ATL@@QAE@I@Z			; ATL::_U_MENUorID::_U_MENUorID
PUBLIC	?AtlWinModuleRegisterWndClassInfoW@ATL@@YGGPAU_ATL_WIN_MODULE70@1@PAU_ATL_BASE_MODULE70@1@PAU_ATL_WNDCLASSINFOW@1@PAP6GJPAUHWND__@@IIJ@Z@Z ; ATL::AtlWinModuleRegisterWndClassInfoW
PUBLIC	?AtlWinModuleRegisterClassExW@ATL@@YGGPAU_ATL_WIN_MODULE70@1@PBUtagWNDCLASSEXW@@@Z ; ATL::AtlWinModuleRegisterClassExW
PUBLIC	?AtlCreateTargetDC@ATL@@YGPAUHDC__@@PAU2@PAUtagDVTARGETDEVICE@@@Z ; ATL::AtlCreateTargetDC
PUBLIC	?AtlHiMetricToPixel@ATL@@YGXPBUtagSIZE@@PAU2@@Z	; ATL::AtlHiMetricToPixel
PUBLIC	??0_ATL_MSG@ATL@@QAE@PAUHWND__@@IIJH@Z		; ATL::_ATL_MSG::_ATL_MSG
PUBLIC	?Register@_ATL_WNDCLASSINFOW@ATL@@QAEGPAP6GJPAUHWND__@@IIJ@Z@Z ; ATL::_ATL_WNDCLASSINFOW::Register
PUBLIC	?GetWndClassName@CWindow@ATL@@SAPB_WXZ		; ATL::CWindow::GetWndClassName
PUBLIC	?ShowWindow@CWindow@ATL@@QAEHH@Z		; ATL::CWindow::ShowWindow
PUBLIC	?Init@CWndProcThunk@ATL@@QAEHP6GJPAUHWND__@@IIJ@ZPAX@Z ; ATL::CWndProcThunk::Init
PUBLIC	?GetWNDPROC@CWndProcThunk@ATL@@QAEP6GJPAUHWND__@@IIJ@ZXZ ; ATL::CWndProcThunk::GetWNDPROC
PUBLIC	?DefaultReflectionHandler@?$CWindowImplRoot@VCWindow@ATL@@@ATL@@SAHPAUHWND__@@IIJAAJ@Z ; ATL::CWindowImplRoot<ATL::CWindow>::DefaultReflectionHandler
PUBLIC	?GetWndStyle@?$CWindowImplBaseT@VCWindow@ATL@@V?$CWinTraits@$0FGAAAAAA@$0A@@2@@ATL@@SAKK@Z ; ATL::CWindowImplBaseT<ATL::CWindow,ATL::CWinTraits<1442840576,0> >::GetWndStyle
PUBLIC	?GetWndExStyle@?$CWindowImplBaseT@VCWindow@ATL@@V?$CWinTraits@$0FGAAAAAA@$0A@@2@@ATL@@SAKK@Z ; ATL::CWindowImplBaseT<ATL::CWindow,ATL::CWinTraits<1442840576,0> >::GetWndExStyle
PUBLIC	?GetWindowProc@?$CWindowImplBaseT@VCWindow@ATL@@V?$CWinTraits@$0FGAAAAAA@$0A@@2@@ATL@@UAEP6GJPAUHWND__@@IIJ@ZXZ ; ATL::CWindowImplBaseT<ATL::CWindow,ATL::CWinTraits<1442840576,0> >::GetWindowProc
PUBLIC	?StartWindowProc@?$CWindowImplBaseT@VCWindow@ATL@@V?$CWinTraits@$0FGAAAAAA@$0A@@2@@ATL@@SGJPAUHWND__@@IIJ@Z ; ATL::CWindowImplBaseT<ATL::CWindow,ATL::CWinTraits<1442840576,0> >::StartWindowProc
PUBLIC	?WindowProc@?$CWindowImplBaseT@VCWindow@ATL@@V?$CWinTraits@$0FGAAAAAA@$0A@@2@@ATL@@SGJPAUHWND__@@IIJ@Z ; ATL::CWindowImplBaseT<ATL::CWindow,ATL::CWinTraits<1442840576,0> >::WindowProc
PUBLIC	?atlCreate@?$CWindowImplBaseT@VCWindow@ATL@@V?$CWinTraits@$0FGAAAAAA@$0A@@2@@ATL@@QAEPAUHWND__@@PAU3@V_U_RECT@2@PB_WKKV_U_MENUorID@2@GPAX@Z ; ATL::CWindowImplBaseT<ATL::CWindow,ATL::CWinTraits<1442840576,0> >::atlCreate
PUBLIC	?DefWindowProcW@?$CWindowImplBaseT@VCWindow@ATL@@V?$CWinTraits@$0FGAAAAAA@$0A@@2@@ATL@@QAEJIIJ@Z ; ATL::CWindowImplBaseT<ATL::CWindow,ATL::CWinTraits<1442840576,0> >::DefWindowProcW
PUBLIC	?OnFinalMessage@?$CWindowImplBaseT@VCWindow@ATL@@V?$CWinTraits@$0FGAAAAAA@$0A@@2@@ATL@@UAEXPAUHWND__@@@Z ; ATL::CWindowImplBaseT<ATL::CWindow,ATL::CWinTraits<1442840576,0> >::OnFinalMessage
PUBLIC	??0?$CComPtrBase@UIOleInPlaceActiveObject@@@ATL@@IAE@XZ ; ATL::CComPtrBase<IOleInPlaceActiveObject>::CComPtrBase<IOleInPlaceActiveObject>
PUBLIC	??1?$CComPtrBase@UIOleInPlaceActiveObject@@@ATL@@QAE@XZ ; ATL::CComPtrBase<IOleInPlaceActiveObject>::~CComPtrBase<IOleInPlaceActiveObject>
PUBLIC	??B?$CComPtrBase@UIOleInPlaceActiveObject@@@ATL@@QBEPAUIOleInPlaceActiveObject@@XZ ; ATL::CComPtrBase<IOleInPlaceActiveObject>::operator IOleInPlaceActiveObject *
PUBLIC	??I?$CComPtrBase@UIOleInPlaceActiveObject@@@ATL@@QAEPAPAUIOleInPlaceActiveObject@@XZ ; ATL::CComPtrBase<IOleInPlaceActiveObject>::operator&
PUBLIC	??0?$CComPtr@UIOleInPlaceActiveObject@@@ATL@@QAE@XZ ; ATL::CComPtr<IOleInPlaceActiveObject>::CComPtr<IOleInPlaceActiveObject>
PUBLIC	??1?$CComPtr@UIOleInPlaceActiveObject@@@ATL@@QAE@XZ ; ATL::CComPtr<IOleInPlaceActiveObject>::~CComPtr<IOleInPlaceActiveObject>
PUBLIC	??0?$CComPtrBase@UIOleObject@@@ATL@@IAE@XZ	; ATL::CComPtrBase<IOleObject>::CComPtrBase<IOleObject>
PUBLIC	??1?$CComPtrBase@UIOleObject@@@ATL@@QAE@XZ	; ATL::CComPtrBase<IOleObject>::~CComPtrBase<IOleObject>
PUBLIC	??B?$CComPtrBase@UIOleObject@@@ATL@@QBEPAUIOleObject@@XZ ; ATL::CComPtrBase<IOleObject>::operator IOleObject *
PUBLIC	??I?$CComPtrBase@UIOleObject@@@ATL@@QAEPAPAUIOleObject@@XZ ; ATL::CComPtrBase<IOleObject>::operator&
PUBLIC	??C?$CComPtrBase@UIOleObject@@@ATL@@QBEPAV?$_NoAddRefReleaseOnCComPtr@UIOleObject@@@1@XZ ; ATL::CComPtrBase<IOleObject>::operator->
PUBLIC	??9?$CComPtrBase@UIOleObject@@@ATL@@QBE_NPAUIOleObject@@@Z ; ATL::CComPtrBase<IOleObject>::operator!=
PUBLIC	??8?$CComPtrBase@UIOleObject@@@ATL@@QBE_NPAUIOleObject@@@Z ; ATL::CComPtrBase<IOleObject>::operator==
PUBLIC	??0?$CComPtr@UIOleObject@@@ATL@@QAE@XZ		; ATL::CComPtr<IOleObject>::CComPtr<IOleObject>
PUBLIC	??1?$CComPtr@UIOleObject@@@ATL@@QAE@XZ		; ATL::CComPtr<IOleObject>::~CComPtr<IOleObject>
PUBLIC	??0?$CComPtrBase@UIOleInPlaceFrame@@@ATL@@IAE@XZ ; ATL::CComPtrBase<IOleInPlaceFrame>::CComPtrBase<IOleInPlaceFrame>
PUBLIC	??1?$CComPtrBase@UIOleInPlaceFrame@@@ATL@@QAE@XZ ; ATL::CComPtrBase<IOleInPlaceFrame>::~CComPtrBase<IOleInPlaceFrame>
PUBLIC	??B?$CComPtrBase@UIOleInPlaceFrame@@@ATL@@QBEPAUIOleInPlaceFrame@@XZ ; ATL::CComPtrBase<IOleInPlaceFrame>::operator IOleInPlaceFrame *
PUBLIC	??I?$CComPtrBase@UIOleInPlaceFrame@@@ATL@@QAEPAPAUIOleInPlaceFrame@@XZ ; ATL::CComPtrBase<IOleInPlaceFrame>::operator&
PUBLIC	??C?$CComPtrBase@UIOleInPlaceFrame@@@ATL@@QBEPAV?$_NoAddRefReleaseOnCComPtr@UIOleInPlaceFrame@@@1@XZ ; ATL::CComPtrBase<IOleInPlaceFrame>::operator->
PUBLIC	??0?$CComPtr@UIOleInPlaceFrame@@@ATL@@QAE@XZ	; ATL::CComPtr<IOleInPlaceFrame>::CComPtr<IOleInPlaceFrame>
PUBLIC	??1?$CComPtr@UIOleInPlaceFrame@@@ATL@@QAE@XZ	; ATL::CComPtr<IOleInPlaceFrame>::~CComPtr<IOleInPlaceFrame>
PUBLIC	??0?$CComPtrBase@UIOleInPlaceUIWindow@@@ATL@@IAE@XZ ; ATL::CComPtrBase<IOleInPlaceUIWindow>::CComPtrBase<IOleInPlaceUIWindow>
PUBLIC	??1?$CComPtrBase@UIOleInPlaceUIWindow@@@ATL@@QAE@XZ ; ATL::CComPtrBase<IOleInPlaceUIWindow>::~CComPtrBase<IOleInPlaceUIWindow>
PUBLIC	??B?$CComPtrBase@UIOleInPlaceUIWindow@@@ATL@@QBEPAUIOleInPlaceUIWindow@@XZ ; ATL::CComPtrBase<IOleInPlaceUIWindow>::operator IOleInPlaceUIWindow *
PUBLIC	??I?$CComPtrBase@UIOleInPlaceUIWindow@@@ATL@@QAEPAPAUIOleInPlaceUIWindow@@XZ ; ATL::CComPtrBase<IOleInPlaceUIWindow>::operator&
PUBLIC	??C?$CComPtrBase@UIOleInPlaceUIWindow@@@ATL@@QBEPAV?$_NoAddRefReleaseOnCComPtr@UIOleInPlaceUIWindow@@@1@XZ ; ATL::CComPtrBase<IOleInPlaceUIWindow>::operator->
PUBLIC	??0?$CComPtr@UIOleInPlaceUIWindow@@@ATL@@QAE@XZ	; ATL::CComPtr<IOleInPlaceUIWindow>::CComPtr<IOleInPlaceUIWindow>
PUBLIC	??1?$CComPtr@UIOleInPlaceUIWindow@@@ATL@@QAE@XZ	; ATL::CComPtr<IOleInPlaceUIWindow>::~CComPtr<IOleInPlaceUIWindow>
PUBLIC	??0?$CComPtrBase@UIViewObjectEx@@@ATL@@IAE@XZ	; ATL::CComPtrBase<IViewObjectEx>::CComPtrBase<IViewObjectEx>
PUBLIC	??1?$CComPtrBase@UIViewObjectEx@@@ATL@@QAE@XZ	; ATL::CComPtrBase<IViewObjectEx>::~CComPtrBase<IViewObjectEx>
PUBLIC	??I?$CComPtrBase@UIViewObjectEx@@@ATL@@QAEPAPAUIViewObjectEx@@XZ ; ATL::CComPtrBase<IViewObjectEx>::operator&
PUBLIC	??C?$CComPtrBase@UIViewObjectEx@@@ATL@@QBEPAV?$_NoAddRefReleaseOnCComPtr@UIViewObjectEx@@@1@XZ ; ATL::CComPtrBase<IViewObjectEx>::operator->
PUBLIC	??9?$CComPtrBase@UIViewObjectEx@@@ATL@@QBE_NPAUIViewObjectEx@@@Z ; ATL::CComPtrBase<IViewObjectEx>::operator!=
PUBLIC	??8?$CComPtrBase@UIViewObjectEx@@@ATL@@QBE_NPAUIViewObjectEx@@@Z ; ATL::CComPtrBase<IViewObjectEx>::operator==
PUBLIC	??0?$CComPtr@UIViewObjectEx@@@ATL@@QAE@XZ	; ATL::CComPtr<IViewObjectEx>::CComPtr<IViewObjectEx>
PUBLIC	??1?$CComPtr@UIViewObjectEx@@@ATL@@QAE@XZ	; ATL::CComPtr<IViewObjectEx>::~CComPtr<IViewObjectEx>
PUBLIC	??0?$CComPtrBase@UIOleClientSite@@@ATL@@IAE@PAUIOleClientSite@@@Z ; ATL::CComPtrBase<IOleClientSite>::CComPtrBase<IOleClientSite>
PUBLIC	?Swap@?$CComPtrBase@UIOleClientSite@@@ATL@@IAEXAAV12@@Z ; ATL::CComPtrBase<IOleClientSite>::Swap
PUBLIC	??1?$CComPtrBase@UIOleClientSite@@@ATL@@QAE@XZ	; ATL::CComPtrBase<IOleClientSite>::~CComPtrBase<IOleClientSite>
PUBLIC	??B?$CComPtrBase@UIOleClientSite@@@ATL@@QBEPAUIOleClientSite@@XZ ; ATL::CComPtrBase<IOleClientSite>::operator IOleClientSite *
PUBLIC	??C?$CComPtrBase@UIOleClientSite@@@ATL@@QBEPAV?$_NoAddRefReleaseOnCComPtr@UIOleClientSite@@@1@XZ ; ATL::CComPtrBase<IOleClientSite>::operator->
PUBLIC	??7?$CComPtrBase@UIOleClientSite@@@ATL@@QBE_NXZ	; ATL::CComPtrBase<IOleClientSite>::operator!
PUBLIC	??9?$CComPtrBase@UIOleClientSite@@@ATL@@QBE_NPAUIOleClientSite@@@Z ; ATL::CComPtrBase<IOleClientSite>::operator!=
PUBLIC	??8?$CComPtrBase@UIOleClientSite@@@ATL@@QBE_NPAUIOleClientSite@@@Z ; ATL::CComPtrBase<IOleClientSite>::operator==
PUBLIC	?IsEqualObject@?$CComPtrBase@UIOleClientSite@@@ATL@@QAE_NPAUIUnknown@@@Z ; ATL::CComPtrBase<IOleClientSite>::IsEqualObject
PUBLIC	??0?$CComPtr@UIOleClientSite@@@ATL@@QAE@PAUIOleClientSite@@@Z ; ATL::CComPtr<IOleClientSite>::CComPtr<IOleClientSite>
PUBLIC	??4?$CComPtr@UIOleClientSite@@@ATL@@QAEPAUIOleClientSite@@PAU2@@Z ; ATL::CComPtr<IOleClientSite>::operator=
PUBLIC	??1?$CComPtr@UIOleClientSite@@@ATL@@QAE@XZ	; ATL::CComPtr<IOleClientSite>::~CComPtr<IOleClientSite>
PUBLIC	??0?$CComPtrBase@UIStream@@@ATL@@IAE@XZ		; ATL::CComPtrBase<IStream>::CComPtrBase<IStream>
PUBLIC	??1?$CComPtrBase@UIStream@@@ATL@@QAE@XZ		; ATL::CComPtrBase<IStream>::~CComPtrBase<IStream>
PUBLIC	??B?$CComPtrBase@UIStream@@@ATL@@QBEPAUIStream@@XZ ; ATL::CComPtrBase<IStream>::operator IStream *
PUBLIC	??I?$CComPtrBase@UIStream@@@ATL@@QAEPAPAUIStream@@XZ ; ATL::CComPtrBase<IStream>::operator&
PUBLIC	??0?$CComPtr@UIStream@@@ATL@@QAE@XZ		; ATL::CComPtr<IStream>::CComPtr<IStream>
PUBLIC	??1?$CComPtr@UIStream@@@ATL@@QAE@XZ		; ATL::CComPtr<IStream>::~CComPtr<IStream>
PUBLIC	??0?$CComPtrBase@UIPersistStreamInit@@@ATL@@IAE@XZ ; ATL::CComPtrBase<IPersistStreamInit>::CComPtrBase<IPersistStreamInit>
PUBLIC	??1?$CComPtrBase@UIPersistStreamInit@@@ATL@@QAE@XZ ; ATL::CComPtrBase<IPersistStreamInit>::~CComPtrBase<IPersistStreamInit>
PUBLIC	??C?$CComPtrBase@UIPersistStreamInit@@@ATL@@QBEPAV?$_NoAddRefReleaseOnCComPtr@UIPersistStreamInit@@@1@XZ ; ATL::CComPtrBase<IPersistStreamInit>::operator->
PUBLIC	??9?$CComPtrBase@UIPersistStreamInit@@@ATL@@QBE_NPAUIPersistStreamInit@@@Z ; ATL::CComPtrBase<IPersistStreamInit>::operator!=
PUBLIC	??8?$CComPtrBase@UIPersistStreamInit@@@ATL@@QBE_NPAUIPersistStreamInit@@@Z ; ATL::CComPtrBase<IPersistStreamInit>::operator==
PUBLIC	??0?$CComPtr@UIPersistStreamInit@@@ATL@@QAE@XZ	; ATL::CComPtr<IPersistStreamInit>::CComPtr<IPersistStreamInit>
PUBLIC	??1?$CComPtr@UIPersistStreamInit@@@ATL@@QAE@XZ	; ATL::CComPtr<IPersistStreamInit>::~CComPtr<IPersistStreamInit>
PUBLIC	??0?$CComPtrBase@UIAdviseSink@@@ATL@@IAE@PAUIAdviseSink@@@Z ; ATL::CComPtrBase<IAdviseSink>::CComPtrBase<IAdviseSink>
PUBLIC	?Swap@?$CComPtrBase@UIAdviseSink@@@ATL@@IAEXAAV12@@Z ; ATL::CComPtrBase<IAdviseSink>::Swap
PUBLIC	??1?$CComPtrBase@UIAdviseSink@@@ATL@@QAE@XZ	; ATL::CComPtrBase<IAdviseSink>::~CComPtrBase<IAdviseSink>
PUBLIC	??B?$CComPtrBase@UIAdviseSink@@@ATL@@QBEPAUIAdviseSink@@XZ ; ATL::CComPtrBase<IAdviseSink>::operator IAdviseSink *
PUBLIC	??C?$CComPtrBase@UIAdviseSink@@@ATL@@QBEPAV?$_NoAddRefReleaseOnCComPtr@UIAdviseSink@@@1@XZ ; ATL::CComPtrBase<IAdviseSink>::operator->
PUBLIC	?Release@?$CComPtrBase@UIAdviseSink@@@ATL@@QAEXXZ ; ATL::CComPtrBase<IAdviseSink>::Release
PUBLIC	??0?$CComPtr@UIAdviseSink@@@ATL@@QAE@PAUIAdviseSink@@@Z ; ATL::CComPtr<IAdviseSink>::CComPtr<IAdviseSink>
PUBLIC	??4?$CComPtr@UIAdviseSink@@@ATL@@QAEPAUIAdviseSink@@PAU2@@Z ; ATL::CComPtr<IAdviseSink>::operator=
PUBLIC	??1?$CComPtr@UIAdviseSink@@@ATL@@QAE@XZ		; ATL::CComPtr<IAdviseSink>::~CComPtr<IAdviseSink>
PUBLIC	?GetClassInfoExW@AtlModuleRegisterWndClassInfoParamW@ATL@@SAHPAUHINSTANCE__@@PB_WPAUtagWNDCLASSEXW@@@Z ; ATL::AtlModuleRegisterWndClassInfoParamW::GetClassInfoExW
PUBLIC	?FormatWindowClassName@AtlModuleRegisterWndClassInfoParamW@ATL@@SAXPA_WKPAX@Z ; ATL::AtlModuleRegisterWndClassInfoParamW::FormatWindowClassName
PUBLIC	?LoadCursorW@AtlModuleRegisterWndClassInfoParamW@ATL@@SAPAUHICON__@@PAUHINSTANCE__@@PB_W@Z ; ATL::AtlModuleRegisterWndClassInfoParamW::LoadCursorW
PUBLIC	?RegisterClassExW@AtlModuleRegisterWndClassInfoParamW@ATL@@SAGPAU_ATL_WIN_MODULE70@2@PBUtagWNDCLASSEXW@@@Z ; ATL::AtlModuleRegisterWndClassInfoParamW::RegisterClassExW
PUBLIC	??$AtlModuleRegisterWndClassInfoT@VAtlModuleRegisterWndClassInfoParamW@ATL@@@ATL@@YAGPAU_ATL_BASE_MODULE70@0@PAU_ATL_WIN_MODULE70@0@PAU_ATL_WNDCLASSINFOW@0@PAP6GJPAUHWND__@@IIJ@ZVAtlModuleRegisterWndClassInfoParamW@0@@Z ; ATL::AtlModuleRegisterWndClassInfoT<ATL::AtlModuleRegisterWndClassInfoParamW>
PUBLIC	?GetZoomInfo@CComControlBase@ATL@@QAEXAAUATL_DRAWINFO@@@Z ; ATL::CComControlBase::GetZoomInfo
PUBLIC	?SendOnSave@CComControlBase@ATL@@QAEJXZ		; ATL::CComControlBase::SendOnSave
PUBLIC	?SendOnDataChange@CComControlBase@ATL@@QAEJK@Z	; ATL::CComControlBase::SendOnDataChange
PUBLIC	?SendOnViewChange@CComControlBase@ATL@@QAEJKJ@Z	; ATL::CComControlBase::SendOnViewChange
PUBLIC	?OnSetFocus@CComControlBase@ATL@@QAEJIIJAAH@Z	; ATL::CComControlBase::OnSetFocus
PUBLIC	?OnKillFocus@CComControlBase@ATL@@QAEJIIJAAH@Z	; ATL::CComControlBase::OnKillFocus
PUBLIC	?OnMouseActivate@CComControlBase@ATL@@QAEJIIJAAH@Z ; ATL::CComControlBase::OnMouseActivate
PUBLIC	?PreTranslateAccelerator@CComControlBase@ATL@@QAEHPAUtagMSG@@AAJ@Z ; ATL::CComControlBase::PreTranslateAccelerator
PUBLIC	?GetAmbientProperty@CComControlBase@ATL@@QAEJJAAUtagVARIANT@@@Z ; ATL::CComControlBase::GetAmbientProperty
PUBLIC	?GetAmbientLocaleID@CComControlBase@ATL@@QAEJAAK@Z ; ATL::CComControlBase::GetAmbientLocaleID
PUBLIC	?GetAmbientUserMode@CComControlBase@ATL@@QAEJAAH@Z ; ATL::CComControlBase::GetAmbientUserMode
PUBLIC	?InternalGetSite@CComControlBase@ATL@@QAEJABU_GUID@@PAPAX@Z ; ATL::CComControlBase::InternalGetSite
PUBLIC	?DoesVerbUIActivate@CComControlBase@ATL@@QAEHJ@Z ; ATL::CComControlBase::DoesVerbUIActivate
PUBLIC	?DoesVerbActivate@CComControlBase@ATL@@QAEHJ@Z	; ATL::CComControlBase::DoesVerbActivate
PUBLIC	?SetControlFocus@CComControlBase@ATL@@QAEHH@Z	; ATL::CComControlBase::SetControlFocus
PUBLIC	?IQuickActivate_QuickActivate@CComControlBase@ATL@@QAEJPAUtagQACONTAINER@@PAUtagQACONTROL@@@Z ; ATL::CComControlBase::IQuickActivate_QuickActivate
PUBLIC	?DoVerbProperties@CComControlBase@ATL@@QAEJPBUtagRECT@@PAUHWND__@@@Z ; ATL::CComControlBase::DoVerbProperties
PUBLIC	?InPlaceActivate@CComControlBase@ATL@@QAEJJPBUtagRECT@@@Z ; ATL::CComControlBase::InPlaceActivate
PUBLIC	?IOleObject_SetClientSite@CComControlBase@ATL@@QAEJPAUIOleClientSite@@@Z ; ATL::CComControlBase::IOleObject_SetClientSite
PUBLIC	?IOleObject_GetClientSite@CComControlBase@ATL@@QAEJPAPAUIOleClientSite@@@Z ; ATL::CComControlBase::IOleObject_GetClientSite
PUBLIC	?IOleObject_Advise@CComControlBase@ATL@@QAEJPAUIAdviseSink@@PAK@Z ; ATL::CComControlBase::IOleObject_Advise
PUBLIC	?IOleObject_Close@CComControlBase@ATL@@QAEJK@Z	; ATL::CComControlBase::IOleObject_Close
PUBLIC	?IOleObject_SetExtent@CComControlBase@ATL@@QAEJKPAUtagSIZE@@@Z ; ATL::CComControlBase::IOleObject_SetExtent
PUBLIC	?IOleInPlaceObject_InPlaceDeactivate@CComControlBase@ATL@@QAEJXZ ; ATL::CComControlBase::IOleInPlaceObject_InPlaceDeactivate
PUBLIC	?IOleInPlaceObject_UIDeactivate@CComControlBase@ATL@@QAEJXZ ; ATL::CComControlBase::IOleInPlaceObject_UIDeactivate
PUBLIC	?IOleInPlaceObject_SetObjectRects@CComControlBase@ATL@@QAEJPBUtagRECT@@0@Z ; ATL::CComControlBase::IOleInPlaceObject_SetObjectRects
PUBLIC	?IViewObject_Draw@CComControlBase@ATL@@QAEJKJPAXPAUtagDVTARGETDEVICE@@PAUHDC__@@2PBU_RECTL@@3@Z ; ATL::CComControlBase::IViewObject_Draw
PUBLIC	?IDataObject_GetData@CComControlBase@ATL@@QAEJPAUtagFORMATETC@@PAUtagSTGMEDIUM@@@Z ; ATL::CComControlBase::IDataObject_GetData
PUBLIC	?FireViewChange@CComControlBase@ATL@@QAEJXZ	; ATL::CComControlBase::FireViewChange
PUBLIC	?OnPaint@CComControlBase@ATL@@QAEJIIJAAH@Z	; ATL::CComControlBase::OnPaint
PUBLIC	?OnDrawAdvanced@CComControlBase@ATL@@UAEJAAUATL_DRAWINFO@@@Z ; ATL::CComControlBase::OnDrawAdvanced
PUBLIC	??B?$CComPtrBase@UIOleInPlaceSiteWindowless@@@ATL@@QBEPAUIOleInPlaceSiteWindowless@@XZ ; ATL::CComPtrBase<IOleInPlaceSiteWindowless>::operator IOleInPlaceSiteWindowless *
PUBLIC	??I?$CComPtrBase@UIOleInPlaceSiteWindowless@@@ATL@@QAEPAPAUIOleInPlaceSiteWindowless@@XZ ; ATL::CComPtrBase<IOleInPlaceSiteWindowless>::operator&
PUBLIC	??C?$CComPtrBase@UIOleInPlaceSiteWindowless@@@ATL@@QBEPAV?$_NoAddRefReleaseOnCComPtr@UIOleInPlaceSiteWindowless@@@1@XZ ; ATL::CComPtrBase<IOleInPlaceSiteWindowless>::operator->
PUBLIC	??7?$CComPtrBase@UIOleInPlaceSiteWindowless@@@ATL@@QBE_NXZ ; ATL::CComPtrBase<IOleInPlaceSiteWindowless>::operator!
PUBLIC	??9?$CComPtrBase@UIOleInPlaceSiteWindowless@@@ATL@@QBE_NPAUIOleInPlaceSiteWindowless@@@Z ; ATL::CComPtrBase<IOleInPlaceSiteWindowless>::operator!=
PUBLIC	??8?$CComPtrBase@UIOleInPlaceSiteWindowless@@@ATL@@QBE_NPAUIOleInPlaceSiteWindowless@@@Z ; ATL::CComPtrBase<IOleInPlaceSiteWindowless>::operator==
PUBLIC	?Release@?$CComPtrBase@UIOleInPlaceSiteWindowless@@@ATL@@QAEXXZ ; ATL::CComPtrBase<IOleInPlaceSiteWindowless>::Release
PUBLIC	??B?$CComPtrBase@UIDataAdviseHolder@@@ATL@@QBEPAUIDataAdviseHolder@@XZ ; ATL::CComPtrBase<IDataAdviseHolder>::operator IDataAdviseHolder *
PUBLIC	??I?$CComPtrBase@UIDataAdviseHolder@@@ATL@@QAEPAPAUIDataAdviseHolder@@XZ ; ATL::CComPtrBase<IDataAdviseHolder>::operator&
PUBLIC	??C?$CComPtrBase@UIDataAdviseHolder@@@ATL@@QBEPAV?$_NoAddRefReleaseOnCComPtr@UIDataAdviseHolder@@@1@XZ ; ATL::CComPtrBase<IDataAdviseHolder>::operator->
PUBLIC	??9?$CComPtrBase@UIDataAdviseHolder@@@ATL@@QBE_NPAUIDataAdviseHolder@@@Z ; ATL::CComPtrBase<IDataAdviseHolder>::operator!=
PUBLIC	??8?$CComPtrBase@UIDataAdviseHolder@@@ATL@@QBE_NPAUIDataAdviseHolder@@@Z ; ATL::CComPtrBase<IDataAdviseHolder>::operator==
PUBLIC	??B?$CComPtrBase@UIOleAdviseHolder@@@ATL@@QBEPAUIOleAdviseHolder@@XZ ; ATL::CComPtrBase<IOleAdviseHolder>::operator IOleAdviseHolder *
PUBLIC	??I?$CComPtrBase@UIOleAdviseHolder@@@ATL@@QAEPAPAUIOleAdviseHolder@@XZ ; ATL::CComPtrBase<IOleAdviseHolder>::operator&
PUBLIC	??C?$CComPtrBase@UIOleAdviseHolder@@@ATL@@QBEPAV?$_NoAddRefReleaseOnCComPtr@UIOleAdviseHolder@@@1@XZ ; ATL::CComPtrBase<IOleAdviseHolder>::operator->
PUBLIC	??9?$CComPtrBase@UIOleAdviseHolder@@@ATL@@QBE_NPAUIOleAdviseHolder@@@Z ; ATL::CComPtrBase<IOleAdviseHolder>::operator!=
PUBLIC	??8?$CComPtrBase@UIOleAdviseHolder@@@ATL@@QBE_NPAUIOleAdviseHolder@@@Z ; ATL::CComPtrBase<IOleAdviseHolder>::operator==
PUBLIC	??0?$CComPtrBase@UIOleControlSite@@@ATL@@IAE@XZ	; ATL::CComPtrBase<IOleControlSite>::CComPtrBase<IOleControlSite>
PUBLIC	??1?$CComPtrBase@UIOleControlSite@@@ATL@@QAE@XZ	; ATL::CComPtrBase<IOleControlSite>::~CComPtrBase<IOleControlSite>
PUBLIC	??B?$CComPtrBase@UIOleControlSite@@@ATL@@QBEPAUIOleControlSite@@XZ ; ATL::CComPtrBase<IOleControlSite>::operator IOleControlSite *
PUBLIC	??I?$CComPtrBase@UIOleControlSite@@@ATL@@QAEPAPAUIOleControlSite@@XZ ; ATL::CComPtrBase<IOleControlSite>::operator&
PUBLIC	??C?$CComPtrBase@UIOleControlSite@@@ATL@@QBEPAV?$_NoAddRefReleaseOnCComPtr@UIOleControlSite@@@1@XZ ; ATL::CComPtrBase<IOleControlSite>::operator->
PUBLIC	??9?$CComPtrBase@UIOleControlSite@@@ATL@@QBE_NPAUIOleControlSite@@@Z ; ATL::CComPtrBase<IOleControlSite>::operator!=
PUBLIC	??8?$CComPtrBase@UIOleControlSite@@@ATL@@QBE_NPAUIOleControlSite@@@Z ; ATL::CComPtrBase<IOleControlSite>::operator==
PUBLIC	??0?$CComPtr@UIOleControlSite@@@ATL@@QAE@XZ	; ATL::CComPtr<IOleControlSite>::CComPtr<IOleControlSite>
PUBLIC	??1?$CComPtr@UIOleControlSite@@@ATL@@QAE@XZ	; ATL::CComPtr<IOleControlSite>::~CComPtr<IOleControlSite>
PUBLIC	??0?$CComQIPtr@UIOleControlSite@@$1?_GUID_b196b289_bab4_101a_b69c_00aa00341d07@@3U__s_GUID@@B@ATL@@QAE@PAUIUnknown@@@Z ; ATL::CComQIPtr<IOleControlSite,&_GUID_b196b289_bab4_101a_b69c_00aa00341d07>::CComQIPtr<IOleControlSite,&_GUID_b196b289_bab4_101a_b69c_00aa00341d07>
PUBLIC	??1?$CComQIPtr@UIOleControlSite@@$1?_GUID_b196b289_bab4_101a_b69c_00aa00341d07@@3U__s_GUID@@B@ATL@@QAE@XZ ; ATL::CComQIPtr<IOleControlSite,&_GUID_b196b289_bab4_101a_b69c_00aa00341d07>::~CComQIPtr<IOleControlSite,&_GUID_b196b289_bab4_101a_b69c_00aa00341d07>
PUBLIC	??0?$CComPtrBase@UIPointerInactive@@@ATL@@IAE@XZ ; ATL::CComPtrBase<IPointerInactive>::CComPtrBase<IPointerInactive>
PUBLIC	??1?$CComPtrBase@UIPointerInactive@@@ATL@@QAE@XZ ; ATL::CComPtrBase<IPointerInactive>::~CComPtrBase<IPointerInactive>
PUBLIC	??I?$CComPtrBase@UIPointerInactive@@@ATL@@QAEPAPAUIPointerInactive@@XZ ; ATL::CComPtrBase<IPointerInactive>::operator&
PUBLIC	??C?$CComPtrBase@UIPointerInactive@@@ATL@@QBEPAV?$_NoAddRefReleaseOnCComPtr@UIPointerInactive@@@1@XZ ; ATL::CComPtrBase<IPointerInactive>::operator->
PUBLIC	??9?$CComPtrBase@UIPointerInactive@@@ATL@@QBE_NPAUIPointerInactive@@@Z ; ATL::CComPtrBase<IPointerInactive>::operator!=
PUBLIC	??8?$CComPtrBase@UIPointerInactive@@@ATL@@QBE_NPAUIPointerInactive@@@Z ; ATL::CComPtrBase<IPointerInactive>::operator==
PUBLIC	??0?$CComPtr@UIPointerInactive@@@ATL@@QAE@XZ	; ATL::CComPtr<IPointerInactive>::CComPtr<IPointerInactive>
PUBLIC	??1?$CComPtr@UIPointerInactive@@@ATL@@QAE@XZ	; ATL::CComPtr<IPointerInactive>::~CComPtr<IPointerInactive>
PUBLIC	??0?$CComPtrBase@UISpecifyPropertyPages@@@ATL@@IAE@XZ ; ATL::CComPtrBase<ISpecifyPropertyPages>::CComPtrBase<ISpecifyPropertyPages>
PUBLIC	??1?$CComPtrBase@UISpecifyPropertyPages@@@ATL@@QAE@XZ ; ATL::CComPtrBase<ISpecifyPropertyPages>::~CComPtrBase<ISpecifyPropertyPages>
PUBLIC	??B?$CComPtrBase@UISpecifyPropertyPages@@@ATL@@QBEPAUISpecifyPropertyPages@@XZ ; ATL::CComPtrBase<ISpecifyPropertyPages>::operator ISpecifyPropertyPages *
PUBLIC	??C?$CComPtrBase@UISpecifyPropertyPages@@@ATL@@QBEPAV?$_NoAddRefReleaseOnCComPtr@UISpecifyPropertyPages@@@1@XZ ; ATL::CComPtrBase<ISpecifyPropertyPages>::operator->
PUBLIC	??0?$CComPtr@UISpecifyPropertyPages@@@ATL@@QAE@XZ ; ATL::CComPtr<ISpecifyPropertyPages>::CComPtr<ISpecifyPropertyPages>
PUBLIC	??1?$CComPtr@UISpecifyPropertyPages@@@ATL@@QAE@XZ ; ATL::CComPtr<ISpecifyPropertyPages>::~CComPtr<ISpecifyPropertyPages>
PUBLIC	??0?$CComQIPtr@UISpecifyPropertyPages@@$1?_GUID_b196b28b_bab4_101a_b69c_00aa00341d07@@3U__s_GUID@@B@ATL@@QAE@XZ ; ATL::CComQIPtr<ISpecifyPropertyPages,&_GUID_b196b28b_bab4_101a_b69c_00aa00341d07>::CComQIPtr<ISpecifyPropertyPages,&_GUID_b196b28b_bab4_101a_b69c_00aa00341d07>
PUBLIC	??4?$CComQIPtr@UISpecifyPropertyPages@@$1?_GUID_b196b28b_bab4_101a_b69c_00aa00341d07@@3U__s_GUID@@B@ATL@@QAEPAUISpecifyPropertyPages@@PAUIUnknown@@@Z ; ATL::CComQIPtr<ISpecifyPropertyPages,&_GUID_b196b28b_bab4_101a_b69c_00aa00341d07>::operator=
PUBLIC	??1?$CComQIPtr@UISpecifyPropertyPages@@$1?_GUID_b196b28b_bab4_101a_b69c_00aa00341d07@@3U__s_GUID@@B@ATL@@QAE@XZ ; ATL::CComQIPtr<ISpecifyPropertyPages,&_GUID_b196b28b_bab4_101a_b69c_00aa00341d07>::~CComQIPtr<ISpecifyPropertyPages,&_GUID_b196b28b_bab4_101a_b69c_00aa00341d07>
PUBLIC	??0?$CComQIPtr@UIOleObject@@$1?_GUID_00000112_0000_0000_c000_000000000046@@3U__s_GUID@@B@ATL@@QAE@XZ ; ATL::CComQIPtr<IOleObject,&_GUID_00000112_0000_0000_c000_000000000046>::CComQIPtr<IOleObject,&_GUID_00000112_0000_0000_c000_000000000046>
PUBLIC	??4?$CComQIPtr@UIOleObject@@$1?_GUID_00000112_0000_0000_c000_000000000046@@3U__s_GUID@@B@ATL@@QAEPAUIOleObject@@PAUIUnknown@@@Z ; ATL::CComQIPtr<IOleObject,&_GUID_00000112_0000_0000_c000_000000000046>::operator=
PUBLIC	??1?$CComQIPtr@UIOleObject@@$1?_GUID_00000112_0000_0000_c000_000000000046@@3U__s_GUID@@B@ATL@@QAE@XZ ; ATL::CComQIPtr<IOleObject,&_GUID_00000112_0000_0000_c000_000000000046>::~CComQIPtr<IOleObject,&_GUID_00000112_0000_0000_c000_000000000046>
PUBLIC	??0?$CComPtrBase@UIOleInPlaceObject@@@ATL@@IAE@XZ ; ATL::CComPtrBase<IOleInPlaceObject>::CComPtrBase<IOleInPlaceObject>
PUBLIC	??1?$CComPtrBase@UIOleInPlaceObject@@@ATL@@QAE@XZ ; ATL::CComPtrBase<IOleInPlaceObject>::~CComPtrBase<IOleInPlaceObject>
PUBLIC	??I?$CComPtrBase@UIOleInPlaceObject@@@ATL@@QAEPAPAUIOleInPlaceObject@@XZ ; ATL::CComPtrBase<IOleInPlaceObject>::operator&
PUBLIC	??C?$CComPtrBase@UIOleInPlaceObject@@@ATL@@QBEPAV?$_NoAddRefReleaseOnCComPtr@UIOleInPlaceObject@@@1@XZ ; ATL::CComPtrBase<IOleInPlaceObject>::operator->
PUBLIC	??9?$CComPtrBase@UIOleInPlaceObject@@@ATL@@QBE_NPAUIOleInPlaceObject@@@Z ; ATL::CComPtrBase<IOleInPlaceObject>::operator!=
PUBLIC	??8?$CComPtrBase@UIOleInPlaceObject@@@ATL@@QBE_NPAUIOleInPlaceObject@@@Z ; ATL::CComPtrBase<IOleInPlaceObject>::operator==
PUBLIC	??0?$CComPtr@UIOleInPlaceObject@@@ATL@@QAE@XZ	; ATL::CComPtr<IOleInPlaceObject>::CComPtr<IOleInPlaceObject>
PUBLIC	??1?$CComPtr@UIOleInPlaceObject@@@ATL@@QAE@XZ	; ATL::CComPtr<IOleInPlaceObject>::~CComPtr<IOleInPlaceObject>
PUBLIC	??0?$CComPtrBase@UIDataObject@@@ATL@@IAE@XZ	; ATL::CComPtrBase<IDataObject>::CComPtrBase<IDataObject>
PUBLIC	??1?$CComPtrBase@UIDataObject@@@ATL@@QAE@XZ	; ATL::CComPtrBase<IDataObject>::~CComPtrBase<IDataObject>
PUBLIC	??B?$CComPtrBase@UIDataObject@@@ATL@@QBEPAUIDataObject@@XZ ; ATL::CComPtrBase<IDataObject>::operator IDataObject *
PUBLIC	??I?$CComPtrBase@UIDataObject@@@ATL@@QAEPAPAUIDataObject@@XZ ; ATL::CComPtrBase<IDataObject>::operator&
PUBLIC	??0?$CComPtr@UIDataObject@@@ATL@@QAE@XZ		; ATL::CComPtr<IDataObject>::CComPtr<IDataObject>
PUBLIC	??1?$CComPtr@UIDataObject@@@ATL@@QAE@XZ		; ATL::CComPtr<IDataObject>::~CComPtr<IDataObject>
PUBLIC	??0OposVariant@@QAE@XZ				; OposVariant::OposVariant
PUBLIC	??1OposVariant@@QAE@XZ				; OposVariant::~OposVariant
PUBLIC	?Clear@OposVariant@@QAEJXZ			; OposVariant::Clear
PUBLIC	?GetTypeInfoCount@?$IDispatchImpl@UIOPOSGestureControl@@$1?IID_IOPOSGestureControl@@3U_GUID@@B$1?LIBID_OposGestureControl_CCO@@3U3@B$00$0A@VCComTypeInfoHolder@ATL@@@ATL@@UAGJPAI@Z ; ATL::IDispatchImpl<IOPOSGestureControl,&IID_IOPOSGestureControl,&LIBID_OposGestureControl_CCO,1,0,ATL::CComTypeInfoHolder>::GetTypeInfoCount
PUBLIC	?GetTypeInfo@?$IDispatchImpl@UIOPOSGestureControl@@$1?IID_IOPOSGestureControl@@3U_GUID@@B$1?LIBID_OposGestureControl_CCO@@3U3@B$00$0A@VCComTypeInfoHolder@ATL@@@ATL@@UAGJIKPAPAUITypeInfo@@@Z ; ATL::IDispatchImpl<IOPOSGestureControl,&IID_IOPOSGestureControl,&LIBID_OposGestureControl_CCO,1,0,ATL::CComTypeInfoHolder>::GetTypeInfo
PUBLIC	?GetIDsOfNames@?$IDispatchImpl@UIOPOSGestureControl@@$1?IID_IOPOSGestureControl@@3U_GUID@@B$1?LIBID_OposGestureControl_CCO@@3U3@B$00$0A@VCComTypeInfoHolder@ATL@@@ATL@@UAGJABU_GUID@@PAPA_WIKPAJ@Z ; ATL::IDispatchImpl<IOPOSGestureControl,&IID_IOPOSGestureControl,&LIBID_OposGestureControl_CCO,1,0,ATL::CComTypeInfoHolder>::GetIDsOfNames
PUBLIC	?Invoke@?$IDispatchImpl@UIOPOSGestureControl@@$1?IID_IOPOSGestureControl@@3U_GUID@@B$1?LIBID_OposGestureControl_CCO@@3U3@B$00$0A@VCComTypeInfoHolder@ATL@@@ATL@@UAGJJABU_GUID@@KGPAUtagDISPPARAMS@@PAUtagVARIANT@@PAUtagEXCEPINFO@@PAI@Z ; ATL::IDispatchImpl<IOPOSGestureControl,&IID_IOPOSGestureControl,&LIBID_OposGestureControl_CCO,1,0,ATL::CComTypeInfoHolder>::Invoke
PUBLIC	?GetWndClassInfo@?$CWindowImpl@VCOPOSGestureControl@@VCWindow@ATL@@V?$CWinTraits@$0FGAAAAAA@$0A@@3@@ATL@@SAAAU_ATL_WNDCLASSINFOW@2@XZ ; ATL::CWindowImpl<COPOSGestureControl,ATL::CWindow,ATL::CWinTraits<1442840576,0> >::GetWndClassInfo
PUBLIC	?GetWndCaption@?$CWindowImpl@VCOPOSGestureControl@@VCWindow@ATL@@V?$CWinTraits@$0FGAAAAAA@$0A@@3@@ATL@@SAPB_WXZ ; ATL::CWindowImpl<COPOSGestureControl,ATL::CWindow,ATL::CWinTraits<1442840576,0> >::GetWndCaption
PUBLIC	?atlCreate@?$CWindowImpl@VCOPOSGestureControl@@VCWindow@ATL@@V?$CWinTraits@$0FGAAAAAA@$0A@@3@@ATL@@QAEPAUHWND__@@PAU3@V_U_RECT@2@PB_WKKV_U_MENUorID@2@PAX@Z ; ATL::CWindowImpl<COPOSGestureControl,ATL::CWindow,ATL::CWinTraits<1442840576,0> >::atlCreate
PUBLIC	?CreateControlWindow@?$CComControl@VCOPOSGestureControl@@V?$CWindowImpl@VCOPOSGestureControl@@VCWindow@ATL@@V?$CWinTraits@$0FGAAAAAA@$0A@@3@@ATL@@@ATL@@UAEPAUHWND__@@PAU3@AAUtagRECT@@@Z ; ATL::CComControl<COPOSGestureControl,ATL::CWindowImpl<COPOSGestureControl,ATL::CWindow,ATL::CWinTraits<1442840576,0> > >::CreateControlWindow
PUBLIC	?ControlQueryInterface@?$CComControl@VCOPOSGestureControl@@V?$CWindowImpl@VCOPOSGestureControl@@VCWindow@ATL@@V?$CWinTraits@$0FGAAAAAA@$0A@@3@@ATL@@@ATL@@UAEJABU_GUID@@PAPAX@Z ; ATL::CComControl<COPOSGestureControl,ATL::CWindowImpl<COPOSGestureControl,ATL::CWindow,ATL::CWinTraits<1442840576,0> > >::ControlQueryInterface
PUBLIC	?ProcessWindowMessage@?$CComControl@VCOPOSGestureControl@@V?$CWindowImpl@VCOPOSGestureControl@@VCWindow@ATL@@V?$CWinTraits@$0FGAAAAAA@$0A@@3@@ATL@@@ATL@@UAEHPAUHWND__@@IIJAAJK@Z ; ATL::CComControl<COPOSGestureControl,ATL::CWindowImpl<COPOSGestureControl,ATL::CWindow,ATL::CWinTraits<1442840576,0> > >::ProcessWindowMessage
PUBLIC	?GetClassID@?$IPersistStreamInitImpl@VCOPOSGestureControl@@@ATL@@UAGJPAU_GUID@@@Z ; ATL::IPersistStreamInitImpl<COPOSGestureControl>::GetClassID
PUBLIC	?IsDirty@?$IPersistStreamInitImpl@VCOPOSGestureControl@@@ATL@@UAGJXZ ; ATL::IPersistStreamInitImpl<COPOSGestureControl>::IsDirty
PUBLIC	?Load@?$IPersistStreamInitImpl@VCOPOSGestureControl@@@ATL@@UAGJPAUIStream@@@Z ; ATL::IPersistStreamInitImpl<COPOSGestureControl>::Load
PUBLIC	?Save@?$IPersistStreamInitImpl@VCOPOSGestureControl@@@ATL@@UAGJPAUIStream@@H@Z ; ATL::IPersistStreamInitImpl<COPOSGestureControl>::Save
PUBLIC	?GetSizeMax@?$IPersistStreamInitImpl@VCOPOSGestureControl@@@ATL@@UAGJPAT_ULARGE_INTEGER@@@Z ; ATL::IPersistStreamInitImpl<COPOSGestureControl>::GetSizeMax
PUBLIC	?InitNew@?$IPersistStreamInitImpl@VCOPOSGestureControl@@@ATL@@UAGJXZ ; ATL::IPersistStreamInitImpl<COPOSGestureControl>::InitNew
PUBLIC	?IPersistStreamInit_Load@?$IPersistStreamInitImpl@VCOPOSGestureControl@@@ATL@@QAEJPAUIStream@@PBUATL_PROPMAP_ENTRY@2@@Z ; ATL::IPersistStreamInitImpl<COPOSGestureControl>::IPersistStreamInit_Load
PUBLIC	?IPersistStreamInit_Save@?$IPersistStreamInitImpl@VCOPOSGestureControl@@@ATL@@QAEJPAUIStream@@HPBUATL_PROPMAP_ENTRY@2@@Z ; ATL::IPersistStreamInitImpl<COPOSGestureControl>::IPersistStreamInit_Save
PUBLIC	?GetControlInfo@?$IOleControlImpl@VCOPOSGestureControl@@@ATL@@UAGJPAUtagCONTROLINFO@@@Z ; ATL::IOleControlImpl<COPOSGestureControl>::GetControlInfo
PUBLIC	?OnMnemonic@?$IOleControlImpl@VCOPOSGestureControl@@@ATL@@UAGJPAUtagMSG@@@Z ; ATL::IOleControlImpl<COPOSGestureControl>::OnMnemonic
PUBLIC	?OnAmbientPropertyChange@?$IOleControlImpl@VCOPOSGestureControl@@@ATL@@UAGJJ@Z ; ATL::IOleControlImpl<COPOSGestureControl>::OnAmbientPropertyChange
PUBLIC	?SetClientSite@?$IOleObjectImpl@VCOPOSGestureControl@@@ATL@@UAGJPAUIOleClientSite@@@Z ; ATL::IOleObjectImpl<COPOSGestureControl>::SetClientSite
PUBLIC	?GetClientSite@?$IOleObjectImpl@VCOPOSGestureControl@@@ATL@@UAGJPAPAUIOleClientSite@@@Z ; ATL::IOleObjectImpl<COPOSGestureControl>::GetClientSite
PUBLIC	?SetHostNames@?$IOleObjectImpl@VCOPOSGestureControl@@@ATL@@UAGJPB_W0@Z ; ATL::IOleObjectImpl<COPOSGestureControl>::SetHostNames
PUBLIC	?Close@?$IOleObjectImpl@VCOPOSGestureControl@@@ATL@@UAGJK@Z ; ATL::IOleObjectImpl<COPOSGestureControl>::Close
PUBLIC	?SetMoniker@?$IOleObjectImpl@VCOPOSGestureControl@@@ATL@@UAGJKPAUIMoniker@@@Z ; ATL::IOleObjectImpl<COPOSGestureControl>::SetMoniker
PUBLIC	?GetMoniker@?$IOleObjectImpl@VCOPOSGestureControl@@@ATL@@UAGJKKPAPAUIMoniker@@@Z ; ATL::IOleObjectImpl<COPOSGestureControl>::GetMoniker
PUBLIC	?InitFromData@?$IOleObjectImpl@VCOPOSGestureControl@@@ATL@@UAGJPAUIDataObject@@HK@Z ; ATL::IOleObjectImpl<COPOSGestureControl>::InitFromData
PUBLIC	?GetClipboardData@?$IOleObjectImpl@VCOPOSGestureControl@@@ATL@@UAGJKPAPAUIDataObject@@@Z ; ATL::IOleObjectImpl<COPOSGestureControl>::GetClipboardData
PUBLIC	?DoVerbPrimary@?$IOleObjectImpl@VCOPOSGestureControl@@@ATL@@QAEJPBUtagRECT@@PAUHWND__@@@Z ; ATL::IOleObjectImpl<COPOSGestureControl>::DoVerbPrimary
PUBLIC	?DoVerbShow@?$IOleObjectImpl@VCOPOSGestureControl@@@ATL@@QAEJPBUtagRECT@@PAUHWND__@@@Z ; ATL::IOleObjectImpl<COPOSGestureControl>::DoVerbShow
PUBLIC	?DoVerbInPlaceActivate@?$IOleObjectImpl@VCOPOSGestureControl@@@ATL@@QAEJPBUtagRECT@@PAUHWND__@@@Z ; ATL::IOleObjectImpl<COPOSGestureControl>::DoVerbInPlaceActivate
PUBLIC	?DoVerbUIActivate@?$IOleObjectImpl@VCOPOSGestureControl@@@ATL@@QAEJPBUtagRECT@@PAUHWND__@@@Z ; ATL::IOleObjectImpl<COPOSGestureControl>::DoVerbUIActivate
PUBLIC	?DoVerbHide@?$IOleObjectImpl@VCOPOSGestureControl@@@ATL@@QAEJPBUtagRECT@@PAUHWND__@@@Z ; ATL::IOleObjectImpl<COPOSGestureControl>::DoVerbHide
PUBLIC	?DoVerbOpen@?$IOleObjectImpl@VCOPOSGestureControl@@@ATL@@QAEJPBUtagRECT@@PAUHWND__@@@Z ; ATL::IOleObjectImpl<COPOSGestureControl>::DoVerbOpen
PUBLIC	?DoVerbDiscardUndo@?$IOleObjectImpl@VCOPOSGestureControl@@@ATL@@QAEJPBUtagRECT@@PAUHWND__@@@Z ; ATL::IOleObjectImpl<COPOSGestureControl>::DoVerbDiscardUndo
PUBLIC	?DoVerb@?$IOleObjectImpl@VCOPOSGestureControl@@@ATL@@UAGJJPAUtagMSG@@PAUIOleClientSite@@JPAUHWND__@@PBUtagRECT@@@Z ; ATL::IOleObjectImpl<COPOSGestureControl>::DoVerb
PUBLIC	?EnumVerbs@?$IOleObjectImpl@VCOPOSGestureControl@@@ATL@@UAGJPAPAUIEnumOLEVERB@@@Z ; ATL::IOleObjectImpl<COPOSGestureControl>::EnumVerbs
PUBLIC	?Update@?$IOleObjectImpl@VCOPOSGestureControl@@@ATL@@UAGJXZ ; ATL::IOleObjectImpl<COPOSGestureControl>::Update
PUBLIC	?IsUpToDate@?$IOleObjectImpl@VCOPOSGestureControl@@@ATL@@UAGJXZ ; ATL::IOleObjectImpl<COPOSGestureControl>::IsUpToDate
PUBLIC	?GetUserClassID@?$IOleObjectImpl@VCOPOSGestureControl@@@ATL@@UAGJPAU_GUID@@@Z ; ATL::IOleObjectImpl<COPOSGestureControl>::GetUserClassID
PUBLIC	?GetUserType@?$IOleObjectImpl@VCOPOSGestureControl@@@ATL@@UAGJKPAPA_W@Z ; ATL::IOleObjectImpl<COPOSGestureControl>::GetUserType
PUBLIC	?SetExtent@?$IOleObjectImpl@VCOPOSGestureControl@@@ATL@@UAGJKPAUtagSIZE@@@Z ; ATL::IOleObjectImpl<COPOSGestureControl>::SetExtent
PUBLIC	?GetExtent@?$IOleObjectImpl@VCOPOSGestureControl@@@ATL@@UAGJKPAUtagSIZE@@@Z ; ATL::IOleObjectImpl<COPOSGestureControl>::GetExtent
PUBLIC	?Advise@?$IOleObjectImpl@VCOPOSGestureControl@@@ATL@@UAGJPAUIAdviseSink@@PAK@Z ; ATL::IOleObjectImpl<COPOSGestureControl>::Advise
PUBLIC	?Unadvise@?$IOleObjectImpl@VCOPOSGestureControl@@@ATL@@UAGJK@Z ; ATL::IOleObjectImpl<COPOSGestureControl>::Unadvise
PUBLIC	?EnumAdvise@?$IOleObjectImpl@VCOPOSGestureControl@@@ATL@@UAGJPAPAUIEnumSTATDATA@@@Z ; ATL::IOleObjectImpl<COPOSGestureControl>::EnumAdvise
PUBLIC	?GetMiscStatus@?$IOleObjectImpl@VCOPOSGestureControl@@@ATL@@UAGJKPAK@Z ; ATL::IOleObjectImpl<COPOSGestureControl>::GetMiscStatus
PUBLIC	?SetColorScheme@?$IOleObjectImpl@VCOPOSGestureControl@@@ATL@@UAGJPAUtagLOGPALETTE@@@Z ; ATL::IOleObjectImpl<COPOSGestureControl>::SetColorScheme
PUBLIC	?OnPreVerbShow@?$IOleObjectImpl@VCOPOSGestureControl@@@ATL@@QAEJXZ ; ATL::IOleObjectImpl<COPOSGestureControl>::OnPreVerbShow
PUBLIC	?OnPostVerbShow@?$IOleObjectImpl@VCOPOSGestureControl@@@ATL@@QAEJXZ ; ATL::IOleObjectImpl<COPOSGestureControl>::OnPostVerbShow
PUBLIC	?OnPreVerbInPlaceActivate@?$IOleObjectImpl@VCOPOSGestureControl@@@ATL@@QAEJXZ ; ATL::IOleObjectImpl<COPOSGestureControl>::OnPreVerbInPlaceActivate
PUBLIC	?OnPostVerbInPlaceActivate@?$IOleObjectImpl@VCOPOSGestureControl@@@ATL@@QAEJXZ ; ATL::IOleObjectImpl<COPOSGestureControl>::OnPostVerbInPlaceActivate
PUBLIC	?OnPreVerbUIActivate@?$IOleObjectImpl@VCOPOSGestureControl@@@ATL@@QAEJXZ ; ATL::IOleObjectImpl<COPOSGestureControl>::OnPreVerbUIActivate
PUBLIC	?OnPostVerbUIActivate@?$IOleObjectImpl@VCOPOSGestureControl@@@ATL@@QAEJXZ ; ATL::IOleObjectImpl<COPOSGestureControl>::OnPostVerbUIActivate
PUBLIC	?OnPreVerbHide@?$IOleObjectImpl@VCOPOSGestureControl@@@ATL@@QAEJXZ ; ATL::IOleObjectImpl<COPOSGestureControl>::OnPreVerbHide
PUBLIC	?OnPostVerbHide@?$IOleObjectImpl@VCOPOSGestureControl@@@ATL@@QAEJXZ ; ATL::IOleObjectImpl<COPOSGestureControl>::OnPostVerbHide
PUBLIC	?OnPreVerbOpen@?$IOleObjectImpl@VCOPOSGestureControl@@@ATL@@QAEJXZ ; ATL::IOleObjectImpl<COPOSGestureControl>::OnPreVerbOpen
PUBLIC	?OnPostVerbOpen@?$IOleObjectImpl@VCOPOSGestureControl@@@ATL@@QAEJXZ ; ATL::IOleObjectImpl<COPOSGestureControl>::OnPostVerbOpen
PUBLIC	?OnPreVerbDiscardUndo@?$IOleObjectImpl@VCOPOSGestureControl@@@ATL@@QAEJXZ ; ATL::IOleObjectImpl<COPOSGestureControl>::OnPreVerbDiscardUndo
PUBLIC	?OnPostVerbDiscardUndo@?$IOleObjectImpl@VCOPOSGestureControl@@@ATL@@QAEJXZ ; ATL::IOleObjectImpl<COPOSGestureControl>::OnPostVerbDiscardUndo
PUBLIC	?GetWindow@?$IOleInPlaceActiveObjectImpl@VCOPOSGestureControl@@@ATL@@UAGJPAPAUHWND__@@@Z ; ATL::IOleInPlaceActiveObjectImpl<COPOSGestureControl>::GetWindow
PUBLIC	?ContextSensitiveHelp@?$IOleInPlaceActiveObjectImpl@VCOPOSGestureControl@@@ATL@@UAGJH@Z ; ATL::IOleInPlaceActiveObjectImpl<COPOSGestureControl>::ContextSensitiveHelp
PUBLIC	?TranslateAcceleratorW@?$IOleInPlaceActiveObjectImpl@VCOPOSGestureControl@@@ATL@@UAGJPAUtagMSG@@@Z ; ATL::IOleInPlaceActiveObjectImpl<COPOSGestureControl>::TranslateAcceleratorW
PUBLIC	?OnFrameWindowActivate@?$IOleInPlaceActiveObjectImpl@VCOPOSGestureControl@@@ATL@@UAGJH@Z ; ATL::IOleInPlaceActiveObjectImpl<COPOSGestureControl>::OnFrameWindowActivate
PUBLIC	?OnDocWindowActivate@?$IOleInPlaceActiveObjectImpl@VCOPOSGestureControl@@@ATL@@UAGJH@Z ; ATL::IOleInPlaceActiveObjectImpl<COPOSGestureControl>::OnDocWindowActivate
PUBLIC	?ResizeBorder@?$IOleInPlaceActiveObjectImpl@VCOPOSGestureControl@@@ATL@@UAGJPBUtagRECT@@PAUIOleInPlaceUIWindow@@H@Z ; ATL::IOleInPlaceActiveObjectImpl<COPOSGestureControl>::ResizeBorder
PUBLIC	?EnableModeless@?$IOleInPlaceActiveObjectImpl@VCOPOSGestureControl@@@ATL@@UAGJH@Z ; ATL::IOleInPlaceActiveObjectImpl<COPOSGestureControl>::EnableModeless
PUBLIC	?Draw@?$IViewObjectExImpl@VCOPOSGestureControl@@@ATL@@UAGJKJPAXPAUtagDVTARGETDEVICE@@PAUHDC__@@2PBU_RECTL@@3P6GHK@ZK@Z ; ATL::IViewObjectExImpl<COPOSGestureControl>::Draw
PUBLIC	?GetColorSet@?$IViewObjectExImpl@VCOPOSGestureControl@@@ATL@@UAGJKJPAXPAUtagDVTARGETDEVICE@@PAUHDC__@@PAPAUtagLOGPALETTE@@@Z ; ATL::IViewObjectExImpl<COPOSGestureControl>::GetColorSet
PUBLIC	?Freeze@?$IViewObjectExImpl@VCOPOSGestureControl@@@ATL@@UAGJKJPAXPAK@Z ; ATL::IViewObjectExImpl<COPOSGestureControl>::Freeze
PUBLIC	?Unfreeze@?$IViewObjectExImpl@VCOPOSGestureControl@@@ATL@@UAGJK@Z ; ATL::IViewObjectExImpl<COPOSGestureControl>::Unfreeze
PUBLIC	?SetAdvise@?$IViewObjectExImpl@VCOPOSGestureControl@@@ATL@@UAGJKKPAUIAdviseSink@@@Z ; ATL::IViewObjectExImpl<COPOSGestureControl>::SetAdvise
PUBLIC	?GetAdvise@?$IViewObjectExImpl@VCOPOSGestureControl@@@ATL@@UAGJPAK0PAPAUIAdviseSink@@@Z ; ATL::IViewObjectExImpl<COPOSGestureControl>::GetAdvise
PUBLIC	?GetExtent@?$IViewObjectExImpl@VCOPOSGestureControl@@@ATL@@UAGJKJPAUtagDVTARGETDEVICE@@PAUtagSIZE@@@Z ; ATL::IViewObjectExImpl<COPOSGestureControl>::GetExtent
PUBLIC	?GetRect@?$IViewObjectExImpl@VCOPOSGestureControl@@@ATL@@UAGJKPAU_RECTL@@@Z ; ATL::IViewObjectExImpl<COPOSGestureControl>::GetRect
PUBLIC	?GetViewStatus@?$IViewObjectExImpl@VCOPOSGestureControl@@@ATL@@UAGJPAK@Z ; ATL::IViewObjectExImpl<COPOSGestureControl>::GetViewStatus
PUBLIC	?QueryHitPoint@?$IViewObjectExImpl@VCOPOSGestureControl@@@ATL@@UAGJKPBUtagRECT@@UtagPOINT@@JPAK@Z ; ATL::IViewObjectExImpl<COPOSGestureControl>::QueryHitPoint
PUBLIC	?QueryHitRect@?$IViewObjectExImpl@VCOPOSGestureControl@@@ATL@@UAGJKPBUtagRECT@@0JPAK@Z ; ATL::IViewObjectExImpl<COPOSGestureControl>::QueryHitRect
PUBLIC	?GetNaturalExtent@?$IViewObjectExImpl@VCOPOSGestureControl@@@ATL@@UAGJKJPAUtagDVTARGETDEVICE@@PAUHDC__@@PAUtagExtentInfo@@PAUtagSIZE@@@Z ; ATL::IViewObjectExImpl<COPOSGestureControl>::GetNaturalExtent
PUBLIC	?GetWindow@?$IOleInPlaceObjectWindowlessImpl@VCOPOSGestureControl@@@ATL@@UAGJPAPAUHWND__@@@Z ; ATL::IOleInPlaceObjectWindowlessImpl<COPOSGestureControl>::GetWindow
PUBLIC	?ContextSensitiveHelp@?$IOleInPlaceObjectWindowlessImpl@VCOPOSGestureControl@@@ATL@@UAGJH@Z ; ATL::IOleInPlaceObjectWindowlessImpl<COPOSGestureControl>::ContextSensitiveHelp
PUBLIC	?InPlaceDeactivate@?$IOleInPlaceObjectWindowlessImpl@VCOPOSGestureControl@@@ATL@@UAGJXZ ; ATL::IOleInPlaceObjectWindowlessImpl<COPOSGestureControl>::InPlaceDeactivate
PUBLIC	?UIDeactivate@?$IOleInPlaceObjectWindowlessImpl@VCOPOSGestureControl@@@ATL@@UAGJXZ ; ATL::IOleInPlaceObjectWindowlessImpl<COPOSGestureControl>::UIDeactivate
PUBLIC	?SetObjectRects@?$IOleInPlaceObjectWindowlessImpl@VCOPOSGestureControl@@@ATL@@UAGJPBUtagRECT@@0@Z ; ATL::IOleInPlaceObjectWindowlessImpl<COPOSGestureControl>::SetObjectRects
PUBLIC	?ReactivateAndUndo@?$IOleInPlaceObjectWindowlessImpl@VCOPOSGestureControl@@@ATL@@UAGJXZ ; ATL::IOleInPlaceObjectWindowlessImpl<COPOSGestureControl>::ReactivateAndUndo
PUBLIC	?OnWindowMessage@?$IOleInPlaceObjectWindowlessImpl@VCOPOSGestureControl@@@ATL@@UAGJIIJPAJ@Z ; ATL::IOleInPlaceObjectWindowlessImpl<COPOSGestureControl>::OnWindowMessage
PUBLIC	?GetDropTarget@?$IOleInPlaceObjectWindowlessImpl@VCOPOSGestureControl@@@ATL@@UAGJPAPAUIDropTarget@@@Z ; ATL::IOleInPlaceObjectWindowlessImpl<COPOSGestureControl>::GetDropTarget
PUBLIC	?EnumConnectionPoints@?$IConnectionPointContainerImpl@VCOPOSGestureControl@@@ATL@@UAGJPAPAUIEnumConnectionPoints@@@Z ; ATL::IConnectionPointContainerImpl<COPOSGestureControl>::EnumConnectionPoints
PUBLIC	?FindConnectionPoint@?$IConnectionPointContainerImpl@VCOPOSGestureControl@@@ATL@@UAGJABU_GUID@@PAPAUIConnectionPoint@@@Z ; ATL::IConnectionPointContainerImpl<COPOSGestureControl>::FindConnectionPoint
PUBLIC	?GetClassID@?$IPersistStorageImpl@VCOPOSGestureControl@@@ATL@@UAGJPAU_GUID@@@Z ; ATL::IPersistStorageImpl<COPOSGestureControl>::GetClassID
PUBLIC	?IsDirty@?$IPersistStorageImpl@VCOPOSGestureControl@@@ATL@@UAGJXZ ; ATL::IPersistStorageImpl<COPOSGestureControl>::IsDirty
PUBLIC	?InitNew@?$IPersistStorageImpl@VCOPOSGestureControl@@@ATL@@UAGJPAUIStorage@@@Z ; ATL::IPersistStorageImpl<COPOSGestureControl>::InitNew
PUBLIC	?Load@?$IPersistStorageImpl@VCOPOSGestureControl@@@ATL@@UAGJPAUIStorage@@@Z ; ATL::IPersistStorageImpl<COPOSGestureControl>::Load
PUBLIC	?Save@?$IPersistStorageImpl@VCOPOSGestureControl@@@ATL@@UAGJPAUIStorage@@H@Z ; ATL::IPersistStorageImpl<COPOSGestureControl>::Save
PUBLIC	?SaveCompleted@?$IPersistStorageImpl@VCOPOSGestureControl@@@ATL@@UAGJPAUIStorage@@@Z ; ATL::IPersistStorageImpl<COPOSGestureControl>::SaveCompleted
PUBLIC	?HandsOffStorage@?$IPersistStorageImpl@VCOPOSGestureControl@@@ATL@@UAGJXZ ; ATL::IPersistStorageImpl<COPOSGestureControl>::HandsOffStorage
PUBLIC	?IPSI_GetIPersistStreamInit@?$IPersistStorageImpl@VCOPOSGestureControl@@@ATL@@AAEPAUIPersistStreamInit@@XZ ; ATL::IPersistStorageImpl<COPOSGestureControl>::IPSI_GetIPersistStreamInit
PUBLIC	?GetPages@?$ISpecifyPropertyPagesImpl@VCOPOSGestureControl@@@ATL@@UAGJPAUtagCAUUID@@@Z ; ATL::ISpecifyPropertyPagesImpl<COPOSGestureControl>::GetPages
PUBLIC	?GetPagesHelper@?$ISpecifyPropertyPagesImpl@VCOPOSGestureControl@@@ATL@@IAEJPAUtagCAUUID@@PBUATL_PROPMAP_ENTRY@2@@Z ; ATL::ISpecifyPropertyPagesImpl<COPOSGestureControl>::GetPagesHelper
PUBLIC	?QuickActivate@?$IQuickActivateImpl@VCOPOSGestureControl@@@ATL@@UAGJPAUtagQACONTAINER@@PAUtagQACONTROL@@@Z ; ATL::IQuickActivateImpl<COPOSGestureControl>::QuickActivate
PUBLIC	?SetContentExtent@?$IQuickActivateImpl@VCOPOSGestureControl@@@ATL@@UAGJPAUtagSIZE@@@Z ; ATL::IQuickActivateImpl<COPOSGestureControl>::SetContentExtent
PUBLIC	?GetContentExtent@?$IQuickActivateImpl@VCOPOSGestureControl@@@ATL@@UAGJPAUtagSIZE@@@Z ; ATL::IQuickActivateImpl<COPOSGestureControl>::GetContentExtent
PUBLIC	?GetData@?$IDataObjectImpl@VCOPOSGestureControl@@@ATL@@UAGJPAUtagFORMATETC@@PAUtagSTGMEDIUM@@@Z ; ATL::IDataObjectImpl<COPOSGestureControl>::GetData
PUBLIC	?GetDataHere@?$IDataObjectImpl@VCOPOSGestureControl@@@ATL@@UAGJPAUtagFORMATETC@@PAUtagSTGMEDIUM@@@Z ; ATL::IDataObjectImpl<COPOSGestureControl>::GetDataHere
PUBLIC	?QueryGetData@?$IDataObjectImpl@VCOPOSGestureControl@@@ATL@@UAGJPAUtagFORMATETC@@@Z ; ATL::IDataObjectImpl<COPOSGestureControl>::QueryGetData
PUBLIC	?GetCanonicalFormatEtc@?$IDataObjectImpl@VCOPOSGestureControl@@@ATL@@UAGJPAUtagFORMATETC@@0@Z ; ATL::IDataObjectImpl<COPOSGestureControl>::GetCanonicalFormatEtc
PUBLIC	?SetData@?$IDataObjectImpl@VCOPOSGestureControl@@@ATL@@UAGJPAUtagFORMATETC@@PAUtagSTGMEDIUM@@H@Z ; ATL::IDataObjectImpl<COPOSGestureControl>::SetData
PUBLIC	?EnumFormatEtc@?$IDataObjectImpl@VCOPOSGestureControl@@@ATL@@UAGJKPAPAUIEnumFORMATETC@@@Z ; ATL::IDataObjectImpl<COPOSGestureControl>::EnumFormatEtc
PUBLIC	?DAdvise@?$IDataObjectImpl@VCOPOSGestureControl@@@ATL@@UAGJPAUtagFORMATETC@@KPAUIAdviseSink@@PAK@Z ; ATL::IDataObjectImpl<COPOSGestureControl>::DAdvise
PUBLIC	?DUnadvise@?$IDataObjectImpl@VCOPOSGestureControl@@@ATL@@UAGJK@Z ; ATL::IDataObjectImpl<COPOSGestureControl>::DUnadvise
PUBLIC	?EnumDAdvise@?$IDataObjectImpl@VCOPOSGestureControl@@@ATL@@UAGJPAPAUIEnumSTATDATA@@@Z ; ATL::IDataObjectImpl<COPOSGestureControl>::EnumDAdvise
PUBLIC	?GetClassInfoW@?$IProvideClassInfo2Impl@$1?CLSID_OPOSGestureControl@@3U_GUID@@B$1?DIID__IOPOSGestureControlEvents@@3U2@B$1?LIBID_OposGestureControl_CCO@@3U2@B$00$0A@VCComTypeInfoHolder@ATL@@@ATL@@UAGJPAPAUITypeInfo@@@Z ; ATL::IProvideClassInfo2Impl<&CLSID_OPOSGestureControl,&DIID__IOPOSGestureControlEvents,&LIBID_OposGestureControl_CCO,1,0,ATL::CComTypeInfoHolder>::GetClassInfoW
PUBLIC	?GetGUID@?$IProvideClassInfo2Impl@$1?CLSID_OPOSGestureControl@@3U_GUID@@B$1?DIID__IOPOSGestureControlEvents@@3U2@B$1?LIBID_OposGestureControl_CCO@@3U2@B$00$0A@VCComTypeInfoHolder@ATL@@@ATL@@UAGJKPAU_GUID@@@Z ; ATL::IProvideClassInfo2Impl<&CLSID_OPOSGestureControl,&DIID__IOPOSGestureControlEvents,&LIBID_OposGestureControl_CCO,1,0,ATL::CComTypeInfoHolder>::GetGUID
PUBLIC	?FAccessAllowed@?$IObjectSafetyImpl@VCOPOSGestureControl@@$02@ATL@@MAEHXZ ; ATL::IObjectSafetyImpl<COPOSGestureControl,3>::FAccessAllowed
PUBLIC	?GetInterfaceSafetyOptions@?$IObjectSafetyImpl@VCOPOSGestureControl@@$02@ATL@@UAGJABU_GUID@@PAK1@Z ; ATL::IObjectSafetyImpl<COPOSGestureControl,3>::GetInterfaceSafetyOptions
PUBLIC	?SetInterfaceSafetyOptions@?$IObjectSafetyImpl@VCOPOSGestureControl@@$02@ATL@@UAGJABU_GUID@@KK@Z ; ATL::IObjectSafetyImpl<COPOSGestureControl,3>::SetInterfaceSafetyOptions
PUBLIC	?_LocCPQueryInterface@?$IConnectionPointImpl@VCOPOSGestureControl@@$1?IID_IPropertyNotifySink@@3U_GUID@@BVCComDynamicUnkArray@ATL@@@ATL@@UAGJABU_GUID@@PAPAX@Z ; ATL::IConnectionPointImpl<COPOSGestureControl,&IID_IPropertyNotifySink,ATL::CComDynamicUnkArray>::_LocCPQueryInterface
PUBLIC	?GetConnectionInterface@?$IConnectionPointImpl@VCOPOSGestureControl@@$1?IID_IPropertyNotifySink@@3U_GUID@@BVCComDynamicUnkArray@ATL@@@ATL@@UAGJPAU_GUID@@@Z ; ATL::IConnectionPointImpl<COPOSGestureControl,&IID_IPropertyNotifySink,ATL::CComDynamicUnkArray>::GetConnectionInterface
PUBLIC	?GetConnectionPointContainer@?$IConnectionPointImpl@VCOPOSGestureControl@@$1?IID_IPropertyNotifySink@@3U_GUID@@BVCComDynamicUnkArray@ATL@@@ATL@@UAGJPAPAUIConnectionPointContainer@@@Z ; ATL::IConnectionPointImpl<COPOSGestureControl,&IID_IPropertyNotifySink,ATL::CComDynamicUnkArray>::GetConnectionPointContainer
PUBLIC	?Advise@?$IConnectionPointImpl@VCOPOSGestureControl@@$1?IID_IPropertyNotifySink@@3U_GUID@@BVCComDynamicUnkArray@ATL@@@ATL@@UAGJPAUIUnknown@@PAK@Z ; ATL::IConnectionPointImpl<COPOSGestureControl,&IID_IPropertyNotifySink,ATL::CComDynamicUnkArray>::Advise
PUBLIC	?Unadvise@?$IConnectionPointImpl@VCOPOSGestureControl@@$1?IID_IPropertyNotifySink@@3U_GUID@@BVCComDynamicUnkArray@ATL@@@ATL@@UAGJK@Z ; ATL::IConnectionPointImpl<COPOSGestureControl,&IID_IPropertyNotifySink,ATL::CComDynamicUnkArray>::Unadvise
PUBLIC	?EnumConnections@?$IConnectionPointImpl@VCOPOSGestureControl@@$1?IID_IPropertyNotifySink@@3U_GUID@@BVCComDynamicUnkArray@ATL@@@ATL@@UAGJPAPAUIEnumConnections@@@Z ; ATL::IConnectionPointImpl<COPOSGestureControl,&IID_IPropertyNotifySink,ATL::CComDynamicUnkArray>::EnumConnections
PUBLIC	?GetObjectCLSID@?$CComCoClass@VCOPOSGestureControl@@$1?CLSID_OPOSGestureControl@@3U_GUID@@B@ATL@@SGABU_GUID@@XZ ; ATL::CComCoClass<COPOSGestureControl,&CLSID_OPOSGestureControl>::GetObjectCLSID
PUBLIC	?_LocCPQueryInterface@?$IConnectionPointImpl@VCOPOSGestureControl@@$1?DIID__IOPOSGestureControlEvents@@3U_GUID@@BVCComDynamicUnkArray@ATL@@@ATL@@UAGJABU_GUID@@PAPAX@Z ; ATL::IConnectionPointImpl<COPOSGestureControl,&DIID__IOPOSGestureControlEvents,ATL::CComDynamicUnkArray>::_LocCPQueryInterface
PUBLIC	?GetConnectionInterface@?$IConnectionPointImpl@VCOPOSGestureControl@@$1?DIID__IOPOSGestureControlEvents@@3U_GUID@@BVCComDynamicUnkArray@ATL@@@ATL@@UAGJPAU_GUID@@@Z ; ATL::IConnectionPointImpl<COPOSGestureControl,&DIID__IOPOSGestureControlEvents,ATL::CComDynamicUnkArray>::GetConnectionInterface
PUBLIC	?GetConnectionPointContainer@?$IConnectionPointImpl@VCOPOSGestureControl@@$1?DIID__IOPOSGestureControlEvents@@3U_GUID@@BVCComDynamicUnkArray@ATL@@@ATL@@UAGJPAPAUIConnectionPointContainer@@@Z ; ATL::IConnectionPointImpl<COPOSGestureControl,&DIID__IOPOSGestureControlEvents,ATL::CComDynamicUnkArray>::GetConnectionPointContainer
PUBLIC	?Advise@?$IConnectionPointImpl@VCOPOSGestureControl@@$1?DIID__IOPOSGestureControlEvents@@3U_GUID@@BVCComDynamicUnkArray@ATL@@@ATL@@UAGJPAUIUnknown@@PAK@Z ; ATL::IConnectionPointImpl<COPOSGestureControl,&DIID__IOPOSGestureControlEvents,ATL::CComDynamicUnkArray>::Advise
PUBLIC	?Unadvise@?$IConnectionPointImpl@VCOPOSGestureControl@@$1?DIID__IOPOSGestureControlEvents@@3U_GUID@@BVCComDynamicUnkArray@ATL@@@ATL@@UAGJK@Z ; ATL::IConnectionPointImpl<COPOSGestureControl,&DIID__IOPOSGestureControlEvents,ATL::CComDynamicUnkArray>::Unadvise
PUBLIC	?EnumConnections@?$IConnectionPointImpl@VCOPOSGestureControl@@$1?DIID__IOPOSGestureControlEvents@@3U_GUID@@BVCComDynamicUnkArray@ATL@@@ATL@@UAGJPAPAUIEnumConnections@@@Z ; ATL::IConnectionPointImpl<COPOSGestureControl,&DIID__IOPOSGestureControlEvents,ATL::CComDynamicUnkArray>::EnumConnections
PUBLIC	?Fire_DirectIOEvent@?$CProxy_IOPOSEvents@VCOPOSGestureControl@@@@QAEXJPAJPAPA_W@Z ; CProxy_IOPOSEvents<COPOSGestureControl>::Fire_DirectIOEvent
PUBLIC	?Fire_ErrorEvent@?$CProxy_IOPOSEvents@VCOPOSGestureControl@@@@QAEXJJJPAJ@Z ; CProxy_IOPOSEvents<COPOSGestureControl>::Fire_ErrorEvent
PUBLIC	?Fire_OutputCompleteEvent@?$CProxy_IOPOSEvents@VCOPOSGestureControl@@@@QAEXJ@Z ; CProxy_IOPOSEvents<COPOSGestureControl>::Fire_OutputCompleteEvent
PUBLIC	?Fire_StatusUpdateEvent@?$CProxy_IOPOSEvents@VCOPOSGestureControl@@@@QAEXJ@Z ; CProxy_IOPOSEvents<COPOSGestureControl>::Fire_StatusUpdateEvent
PUBLIC	?Advise@?$CProxy_IOPOSEvents@VCOPOSGestureControl@@@@UAGJPAUIUnknown@@PAK@Z ; CProxy_IOPOSEvents<COPOSGestureControl>::Advise
PUBLIC	?Unadvise@?$CProxy_IOPOSEvents@VCOPOSGestureControl@@@@UAGJK@Z ; CProxy_IOPOSEvents<COPOSGestureControl>::Unadvise
PUBLIC	?FireTheEvent@?$CProxy_IOPOSEvents@VCOPOSGestureControl@@@@IAEXPAUIUnknown@@PAVOposVariant@@IAAJPB_WJ@Z ; CProxy_IOPOSEvents<COPOSGestureControl>::FireTheEvent
PUBLIC	?InternalFinalConstructAddRef@COPOSGestureControl@@QAEXXZ ; COPOSGestureControl::InternalFinalConstructAddRef
PUBLIC	?InternalFinalConstructRelease@COPOSGestureControl@@QAEXXZ ; COPOSGestureControl::InternalFinalConstructRelease
PUBLIC	?_GetRawUnknown@COPOSGestureControl@@QAEPAUIUnknown@@XZ ; COPOSGestureControl::_GetRawUnknown
PUBLIC	?GetUnknown@COPOSGestureControl@@QAEPAUIUnknown@@XZ ; COPOSGestureControl::GetUnknown
PUBLIC	?_InternalQueryInterface@COPOSGestureControl@@QAEJABU_GUID@@PAPAX@Z ; COPOSGestureControl::_InternalQueryInterface
PUBLIC	?_GetEntries@COPOSGestureControl@@SGPBU_ATL_INTMAP_ENTRY@ATL@@XZ ; COPOSGestureControl::_GetEntries
PUBLIC	?GetPropertyMap@COPOSGestureControl@@SAPBUATL_PROPMAP_ENTRY@ATL@@XZ ; COPOSGestureControl::GetPropertyMap
PUBLIC	?GetConnMap@COPOSGestureControl@@SAPBU_ATL_CONNMAP_ENTRY@ATL@@PAH@Z ; COPOSGestureControl::GetConnMap
PUBLIC	?ProcessWindowMessage@COPOSGestureControl@@UAEHPAUHWND__@@IIJAAJK@Z ; COPOSGestureControl::ProcessWindowMessage
PUBLIC	?_GetViewStatus@COPOSGestureControl@@QAEKXZ	; COPOSGestureControl::_GetViewStatus
PUBLIC	?SODataDummy@COPOSGestureControl@@MAGJJ@Z	; COPOSGestureControl::SODataDummy
PUBLIC	?SODirectIO@COPOSGestureControl@@MAGJJPAJPAPA_W@Z ; COPOSGestureControl::SODirectIO
PUBLIC	?SOError@COPOSGestureControl@@MAGJJJJPAJ@Z	; COPOSGestureControl::SOError
PUBLIC	?SOOutputComplete@COPOSGestureControl@@MAGJJ@Z	; COPOSGestureControl::SOOutputComplete
PUBLIC	?SOStatusUpdate@COPOSGestureControl@@MAGJJ@Z	; COPOSGestureControl::SOStatusUpdate
PUBLIC	?DoEvent@COPOSGestureControl@@IAEXIIJ@Z		; COPOSGestureControl::DoEvent
PUBLIC	_DllMain@12
PUBLIC	?CreateInstance@?$CComCreator@V?$CComObject@VCOPOSGestureControl@@@ATL@@@ATL@@SGJPAXABU_GUID@@PAPAX@Z ; ATL::CComCreator<ATL::CComObject<COPOSGestureControl> >::CreateInstance
PUBLIC	?CreateInstance@?$CComCreator@V?$CComAggObject@VCOPOSGestureControl@@@ATL@@@ATL@@SGJPAXABU_GUID@@PAPAX@Z ; ATL::CComCreator<ATL::CComAggObject<COPOSGestureControl> >::CreateInstance
PUBLIC	??0?$CComObjectCached@VCComClassFactory@ATL@@@ATL@@QAE@PAX@Z ; ATL::CComObjectCached<ATL::CComClassFactory>::CComObjectCached<ATL::CComClassFactory>
PUBLIC	??1?$CComObjectCached@VCComClassFactory@ATL@@@ATL@@UAE@XZ ; ATL::CComObjectCached<ATL::CComClassFactory>::~CComObjectCached<ATL::CComClassFactory>
PUBLIC	?AddRef@?$CComObjectCached@VCComClassFactory@ATL@@@ATL@@UAGKXZ ; ATL::CComObjectCached<ATL::CComClassFactory>::AddRef
PUBLIC	?Release@?$CComObjectCached@VCComClassFactory@ATL@@@ATL@@UAGKXZ ; ATL::CComObjectCached<ATL::CComClassFactory>::Release
PUBLIC	?QueryInterface@?$CComObjectCached@VCComClassFactory@ATL@@@ATL@@UAGJABU_GUID@@PAPAX@Z ; ATL::CComObjectCached<ATL::CComClassFactory>::QueryInterface
PUBLIC	??_G?$CComObjectCached@VCComClassFactory@ATL@@@ATL@@UAEPAXI@Z ; ATL::CComObjectCached<ATL::CComClassFactory>::`scalar deleting destructor'
PUBLIC	??0?$CComEnumImpl@UIEnumConnectionPoints@@$1?_GUID_b196b285_bab4_101a_b69c_00aa00341d07@@3U__s_GUID@@BPAUIConnectionPoint@@V?$_CopyInterface@UIConnectionPoint@@@ATL@@@ATL@@QAE@XZ ; ATL::CComEnumImpl<IEnumConnectionPoints,&_GUID_b196b285_bab4_101a_b69c_00aa00341d07,IConnectionPoint *,ATL::_CopyInterface<IConnectionPoint> >::CComEnumImpl<IEnumConnectionPoints,&_GUID_b196b285_bab4_101a_b69c_00aa00341d07,IConnectionPoint *,ATL::_CopyInterface<IConnectionPoint> >
PUBLIC	??1?$CComEnumImpl@UIEnumConnectionPoints@@$1?_GUID_b196b285_bab4_101a_b69c_00aa00341d07@@3U__s_GUID@@BPAUIConnectionPoint@@V?$_CopyInterface@UIConnectionPoint@@@ATL@@@ATL@@UAE@XZ ; ATL::CComEnumImpl<IEnumConnectionPoints,&_GUID_b196b285_bab4_101a_b69c_00aa00341d07,IConnectionPoint *,ATL::_CopyInterface<IConnectionPoint> >::~CComEnumImpl<IEnumConnectionPoints,&_GUID_b196b285_bab4_101a_b69c_00aa00341d07,IConnectionPoint *,ATL::_CopyInterface<IConnectionPoint> >
PUBLIC	?Next@?$CComEnumImpl@UIEnumConnectionPoints@@$1?_GUID_b196b285_bab4_101a_b69c_00aa00341d07@@3U__s_GUID@@BPAUIConnectionPoint@@V?$_CopyInterface@UIConnectionPoint@@@ATL@@@ATL@@UAGJKPAPAUIConnectionPoint@@PAK@Z ; ATL::CComEnumImpl<IEnumConnectionPoints,&_GUID_b196b285_bab4_101a_b69c_00aa00341d07,IConnectionPoint *,ATL::_CopyInterface<IConnectionPoint> >::Next
PUBLIC	?Skip@?$CComEnumImpl@UIEnumConnectionPoints@@$1?_GUID_b196b285_bab4_101a_b69c_00aa00341d07@@3U__s_GUID@@BPAUIConnectionPoint@@V?$_CopyInterface@UIConnectionPoint@@@ATL@@@ATL@@UAGJK@Z ; ATL::CComEnumImpl<IEnumConnectionPoints,&_GUID_b196b285_bab4_101a_b69c_00aa00341d07,IConnectionPoint *,ATL::_CopyInterface<IConnectionPoint> >::Skip
PUBLIC	?Reset@?$CComEnumImpl@UIEnumConnectionPoints@@$1?_GUID_b196b285_bab4_101a_b69c_00aa00341d07@@3U__s_GUID@@BPAUIConnectionPoint@@V?$_CopyInterface@UIConnectionPoint@@@ATL@@@ATL@@UAGJXZ ; ATL::CComEnumImpl<IEnumConnectionPoints,&_GUID_b196b285_bab4_101a_b69c_00aa00341d07,IConnectionPoint *,ATL::_CopyInterface<IConnectionPoint> >::Reset
PUBLIC	?Clone@?$CComEnumImpl@UIEnumConnectionPoints@@$1?_GUID_b196b285_bab4_101a_b69c_00aa00341d07@@3U__s_GUID@@BPAUIConnectionPoint@@V?$_CopyInterface@UIConnectionPoint@@@ATL@@@ATL@@UAGJPAPAUIEnumConnectionPoints@@@Z ; ATL::CComEnumImpl<IEnumConnectionPoints,&_GUID_b196b285_bab4_101a_b69c_00aa00341d07,IConnectionPoint *,ATL::_CopyInterface<IConnectionPoint> >::Clone
PUBLIC	?Init@?$CComEnumImpl@UIEnumConnectionPoints@@$1?_GUID_b196b285_bab4_101a_b69c_00aa00341d07@@3U__s_GUID@@BPAUIConnectionPoint@@V?$_CopyInterface@UIConnectionPoint@@@ATL@@@ATL@@QAEJPAPAUIConnectionPoint@@0PAUIUnknown@@W4CComEnumFlags@2@@Z ; ATL::CComEnumImpl<IEnumConnectionPoints,&_GUID_b196b285_bab4_101a_b69c_00aa00341d07,IConnectionPoint *,ATL::_CopyInterface<IConnectionPoint> >::Init
PUBLIC	?_InternalQueryInterface@?$CComEnum@UIEnumConnectionPoints@@$1?_GUID_b196b285_bab4_101a_b69c_00aa00341d07@@3U__s_GUID@@BPAUIConnectionPoint@@V?$_CopyInterface@UIConnectionPoint@@@ATL@@VCComSingleThreadModel@6@@ATL@@QAEJABU_GUID@@PAPAX@Z ; ATL::CComEnum<IEnumConnectionPoints,&_GUID_b196b285_bab4_101a_b69c_00aa00341d07,IConnectionPoint *,ATL::_CopyInterface<IConnectionPoint>,ATL::CComSingleThreadModel>::_InternalQueryInterface
PUBLIC	?_GetEntries@?$CComEnum@UIEnumConnectionPoints@@$1?_GUID_b196b285_bab4_101a_b69c_00aa00341d07@@3U__s_GUID@@BPAUIConnectionPoint@@V?$_CopyInterface@UIConnectionPoint@@@ATL@@VCComSingleThreadModel@6@@ATL@@SGPBU_ATL_INTMAP_ENTRY@2@XZ ; ATL::CComEnum<IEnumConnectionPoints,&_GUID_b196b285_bab4_101a_b69c_00aa00341d07,IConnectionPoint *,ATL::_CopyInterface<IConnectionPoint>,ATL::CComSingleThreadModel>::_GetEntries
PUBLIC	??0?$CComEnum@UIEnumConnectionPoints@@$1?_GUID_b196b285_bab4_101a_b69c_00aa00341d07@@3U__s_GUID@@BPAUIConnectionPoint@@V?$_CopyInterface@UIConnectionPoint@@@ATL@@VCComSingleThreadModel@6@@ATL@@QAE@XZ ; ATL::CComEnum<IEnumConnectionPoints,&_GUID_b196b285_bab4_101a_b69c_00aa00341d07,IConnectionPoint *,ATL::_CopyInterface<IConnectionPoint>,ATL::CComSingleThreadModel>::CComEnum<IEnumConnectionPoints,&_GUID_b196b285_bab4_101a_b69c_00aa00341d07,IConnectionPoint *,ATL::_CopyInterface<IConnectionPoint>,ATL::CComSingleThreadModel>
PUBLIC	??1?$CComEnum@UIEnumConnectionPoints@@$1?_GUID_b196b285_bab4_101a_b69c_00aa00341d07@@3U__s_GUID@@BPAUIConnectionPoint@@V?$_CopyInterface@UIConnectionPoint@@@ATL@@VCComSingleThreadModel@6@@ATL@@UAE@XZ ; ATL::CComEnum<IEnumConnectionPoints,&_GUID_b196b285_bab4_101a_b69c_00aa00341d07,IConnectionPoint *,ATL::_CopyInterface<IConnectionPoint>,ATL::CComSingleThreadModel>::~CComEnum<IEnumConnectionPoints,&_GUID_b196b285_bab4_101a_b69c_00aa00341d07,IConnectionPoint *,ATL::_CopyInterface<IConnectionPoint>,ATL::CComSingleThreadModel>
PUBLIC	??0?$CComObject@V?$CComEnum@UIEnumConnectionPoints@@$1?_GUID_b196b285_bab4_101a_b69c_00aa00341d07@@3U__s_GUID@@BPAUIConnectionPoint@@V?$_CopyInterface@UIConnectionPoint@@@ATL@@VCComSingleThreadModel@6@@ATL@@@ATL@@QAE@PAX@Z ; ATL::CComObject<ATL::CComEnum<IEnumConnectionPoints,&_GUID_b196b285_bab4_101a_b69c_00aa00341d07,IConnectionPoint *,ATL::_CopyInterface<IConnectionPoint>,ATL::CComSingleThreadModel> >::CComObject<ATL::CComEnum<IEnumConnectionPoints,&_GUID_b196b285_bab4_101a_b69c_00aa00341d07,IConnectionPoint *,ATL::_CopyInterface<IConnectionPoint>,ATL::CComSingleThreadModel> >
PUBLIC	??1?$CComObject@V?$CComEnum@UIEnumConnectionPoints@@$1?_GUID_b196b285_bab4_101a_b69c_00aa00341d07@@3U__s_GUID@@BPAUIConnectionPoint@@V?$_CopyInterface@UIConnectionPoint@@@ATL@@VCComSingleThreadModel@6@@ATL@@@ATL@@UAE@XZ ; ATL::CComObject<ATL::CComEnum<IEnumConnectionPoints,&_GUID_b196b285_bab4_101a_b69c_00aa00341d07,IConnectionPoint *,ATL::_CopyInterface<IConnectionPoint>,ATL::CComSingleThreadModel> >::~CComObject<ATL::CComEnum<IEnumConnectionPoints,&_GUID_b196b285_bab4_101a_b69c_00aa00341d07,IConnectionPoint *,ATL::_CopyInterface<IConnectionPoint>,ATL::CComSingleThreadModel> >
PUBLIC	?AddRef@?$CComObject@V?$CComEnum@UIEnumConnectionPoints@@$1?_GUID_b196b285_bab4_101a_b69c_00aa00341d07@@3U__s_GUID@@BPAUIConnectionPoint@@V?$_CopyInterface@UIConnectionPoint@@@ATL@@VCComSingleThreadModel@6@@ATL@@@ATL@@UAGKXZ ; ATL::CComObject<ATL::CComEnum<IEnumConnectionPoints,&_GUID_b196b285_bab4_101a_b69c_00aa00341d07,IConnectionPoint *,ATL::_CopyInterface<IConnectionPoint>,ATL::CComSingleThreadModel> >::AddRef
PUBLIC	?Release@?$CComObject@V?$CComEnum@UIEnumConnectionPoints@@$1?_GUID_b196b285_bab4_101a_b69c_00aa00341d07@@3U__s_GUID@@BPAUIConnectionPoint@@V?$_CopyInterface@UIConnectionPoint@@@ATL@@VCComSingleThreadModel@6@@ATL@@@ATL@@UAGKXZ ; ATL::CComObject<ATL::CComEnum<IEnumConnectionPoints,&_GUID_b196b285_bab4_101a_b69c_00aa00341d07,IConnectionPoint *,ATL::_CopyInterface<IConnectionPoint>,ATL::CComSingleThreadModel> >::Release
PUBLIC	?QueryInterface@?$CComObject@V?$CComEnum@UIEnumConnectionPoints@@$1?_GUID_b196b285_bab4_101a_b69c_00aa00341d07@@3U__s_GUID@@BPAUIConnectionPoint@@V?$_CopyInterface@UIConnectionPoint@@@ATL@@VCComSingleThreadModel@6@@ATL@@@ATL@@UAGJABU_GUID@@PAPAX@Z ; ATL::CComObject<ATL::CComEnum<IEnumConnectionPoints,&_GUID_b196b285_bab4_101a_b69c_00aa00341d07,IConnectionPoint *,ATL::_CopyInterface<IConnectionPoint>,ATL::CComSingleThreadModel> >::QueryInterface
PUBLIC	?CreateInstance@?$CComObject@V?$CComEnum@UIEnumConnectionPoints@@$1?_GUID_b196b285_bab4_101a_b69c_00aa00341d07@@3U__s_GUID@@BPAUIConnectionPoint@@V?$_CopyInterface@UIConnectionPoint@@@ATL@@VCComSingleThreadModel@6@@ATL@@@ATL@@SGJPAPAV12@@Z ; ATL::CComObject<ATL::CComEnum<IEnumConnectionPoints,&_GUID_b196b285_bab4_101a_b69c_00aa00341d07,IConnectionPoint *,ATL::_CopyInterface<IConnectionPoint>,ATL::CComSingleThreadModel> >::CreateInstance
PUBLIC	??_G?$CComObject@V?$CComEnum@UIEnumConnectionPoints@@$1?_GUID_b196b285_bab4_101a_b69c_00aa00341d07@@3U__s_GUID@@BPAUIConnectionPoint@@V?$_CopyInterface@UIConnectionPoint@@@ATL@@VCComSingleThreadModel@6@@ATL@@@ATL@@UAEPAXI@Z ; ATL::CComObject<ATL::CComEnum<IEnumConnectionPoints,&_GUID_b196b285_bab4_101a_b69c_00aa00341d07,IConnectionPoint *,ATL::_CopyInterface<IConnectionPoint>,ATL::CComSingleThreadModel> >::`scalar deleting destructor'
PUBLIC	??$AtlMultiplyThrow@I@ATL@@YAIII@Z		; ATL::AtlMultiplyThrow<unsigned int>
PUBLIC	?GetData@CAtlSafeAllocBufferNode@?$CAtlSafeAllocBufferManager@VCCRTAllocator@ATL@@@_ATL_SAFE_ALLOCA_IMPL@ATL@@QAEPAXXZ ; ATL::_ATL_SAFE_ALLOCA_IMPL::CAtlSafeAllocBufferManager<ATL::CCRTAllocator>::CAtlSafeAllocBufferNode::GetData
PUBLIC	??$AtlAddThrow@K@ATL@@YAKKK@Z			; ATL::AtlAddThrow<unsigned long>
PUBLIC	??0?$CComAggObject@VCOPOSGestureControl@@@ATL@@QAE@PAX@Z ; ATL::CComAggObject<COPOSGestureControl>::CComAggObject<COPOSGestureControl>
PUBLIC	?_AtlInitialConstruct@?$CComAggObject@VCOPOSGestureControl@@@ATL@@QAEJXZ ; ATL::CComAggObject<COPOSGestureControl>::_AtlInitialConstruct
PUBLIC	?FinalConstruct@?$CComAggObject@VCOPOSGestureControl@@@ATL@@QAEJXZ ; ATL::CComAggObject<COPOSGestureControl>::FinalConstruct
PUBLIC	?FinalRelease@?$CComAggObject@VCOPOSGestureControl@@@ATL@@QAEXXZ ; ATL::CComAggObject<COPOSGestureControl>::FinalRelease
PUBLIC	??1?$CComAggObject@VCOPOSGestureControl@@@ATL@@UAE@XZ ; ATL::CComAggObject<COPOSGestureControl>::~CComAggObject<COPOSGestureControl>
PUBLIC	?AddRef@?$CComAggObject@VCOPOSGestureControl@@@ATL@@UAGKXZ ; ATL::CComAggObject<COPOSGestureControl>::AddRef
PUBLIC	?Release@?$CComAggObject@VCOPOSGestureControl@@@ATL@@UAGKXZ ; ATL::CComAggObject<COPOSGestureControl>::Release
PUBLIC	?QueryInterface@?$CComAggObject@VCOPOSGestureControl@@@ATL@@UAGJABU_GUID@@PAPAX@Z ; ATL::CComAggObject<COPOSGestureControl>::QueryInterface
PUBLIC	??0?$CComContainedObject@VCOPOSGestureControl@@@ATL@@QAE@PAX@Z ; ATL::CComContainedObject<COPOSGestureControl>::CComContainedObject<COPOSGestureControl>
PUBLIC	?AddRef@?$CComContainedObject@VCOPOSGestureControl@@@ATL@@UAGKXZ ; ATL::CComContainedObject<COPOSGestureControl>::AddRef
PUBLIC	?Release@?$CComContainedObject@VCOPOSGestureControl@@@ATL@@UAGKXZ ; ATL::CComContainedObject<COPOSGestureControl>::Release
PUBLIC	?QueryInterface@?$CComContainedObject@VCOPOSGestureControl@@@ATL@@UAGJABU_GUID@@PAPAX@Z ; ATL::CComContainedObject<COPOSGestureControl>::QueryInterface
PUBLIC	??1?$CComContainedObject@VCOPOSGestureControl@@@ATL@@UAE@XZ ; ATL::CComContainedObject<COPOSGestureControl>::~CComContainedObject<COPOSGestureControl>
PUBLIC	??_G?$CComContainedObject@VCOPOSGestureControl@@@ATL@@UAEPAXI@Z ; ATL::CComContainedObject<COPOSGestureControl>::`scalar deleting destructor'
PUBLIC	??_G?$CComAggObject@VCOPOSGestureControl@@@ATL@@UAEPAXI@Z ; ATL::CComAggObject<COPOSGestureControl>::`scalar deleting destructor'
PUBLIC	??0?$CComObject@VCOPOSGestureControl@@@ATL@@QAE@PAX@Z ; ATL::CComObject<COPOSGestureControl>::CComObject<COPOSGestureControl>
PUBLIC	??1?$CComObject@VCOPOSGestureControl@@@ATL@@UAE@XZ ; ATL::CComObject<COPOSGestureControl>::~CComObject<COPOSGestureControl>
PUBLIC	?AddRef@?$CComObject@VCOPOSGestureControl@@@ATL@@UAGKXZ ; ATL::CComObject<COPOSGestureControl>::AddRef
PUBLIC	?Release@?$CComObject@VCOPOSGestureControl@@@ATL@@UAGKXZ ; ATL::CComObject<COPOSGestureControl>::Release
PUBLIC	?QueryInterface@?$CComObject@VCOPOSGestureControl@@@ATL@@UAGJABU_GUID@@PAPAX@Z ; ATL::CComObject<COPOSGestureControl>::QueryInterface
PUBLIC	??_G?$CComObject@VCOPOSGestureControl@@@ATL@@UAEPAXI@Z ; ATL::CComObject<COPOSGestureControl>::`scalar deleting destructor'
PUBLIC	?GetWndStyle@?$CWinTraits@$0FGAAAAAA@$0A@@ATL@@SAKK@Z ; ATL::CWinTraits<1442840576,0>::GetWndStyle
PUBLIC	?GetWndExStyle@?$CWinTraits@$0FGAAAAAA@$0A@@ATL@@SAKK@Z ; ATL::CWinTraits<1442840576,0>::GetWndExStyle
PUBLIC	??0?$Wrapper@PA_W@?$CSimpleMap@PA_WPA_WVCExpansionVectorEqualHelper@ATL@@@ATL@@QAE@ABQA_W@Z ; ATL::CSimpleMap<wchar_t *,wchar_t *,ATL::CExpansionVectorEqualHelper>::Wrapper<wchar_t *>::Wrapper<wchar_t *>
PUBLIC	??$?2PA_W@?$Wrapper@PA_W@?$CSimpleMap@PA_WPA_WVCExpansionVectorEqualHelper@ATL@@@ATL@@SAPAXIPAPA_W@Z ; ATL::CSimpleMap<wchar_t *,wchar_t *,ATL::CExpansionVectorEqualHelper>::Wrapper<wchar_t *>::operator new<wchar_t *>
PUBLIC	??0Wrapper@?$CSimpleArray@GV?$CSimpleArrayEqualHelper@G@ATL@@@ATL@@QAE@ABG@Z ; ATL::CSimpleArray<unsigned short,ATL::CSimpleArrayEqualHelper<unsigned short> >::Wrapper::Wrapper
PUBLIC	??$?2G@Wrapper@?$CSimpleArray@GV?$CSimpleArrayEqualHelper@G@ATL@@@ATL@@SAPAXIPAG@Z ; ATL::CSimpleArray<unsigned short,ATL::CSimpleArrayEqualHelper<unsigned short> >::Wrapper::operator new<unsigned short>
PUBLIC	??0?$CComEnumImpl@UIEnumConnections@@$1?_GUID_b196b287_bab4_101a_b69c_00aa00341d07@@3U__s_GUID@@BUtagCONNECTDATA@@V?$_Copy@UtagCONNECTDATA@@@ATL@@@ATL@@QAE@XZ ; ATL::CComEnumImpl<IEnumConnections,&_GUID_b196b287_bab4_101a_b69c_00aa00341d07,tagCONNECTDATA,ATL::_Copy<tagCONNECTDATA> >::CComEnumImpl<IEnumConnections,&_GUID_b196b287_bab4_101a_b69c_00aa00341d07,tagCONNECTDATA,ATL::_Copy<tagCONNECTDATA> >
PUBLIC	??1?$CComEnumImpl@UIEnumConnections@@$1?_GUID_b196b287_bab4_101a_b69c_00aa00341d07@@3U__s_GUID@@BUtagCONNECTDATA@@V?$_Copy@UtagCONNECTDATA@@@ATL@@@ATL@@UAE@XZ ; ATL::CComEnumImpl<IEnumConnections,&_GUID_b196b287_bab4_101a_b69c_00aa00341d07,tagCONNECTDATA,ATL::_Copy<tagCONNECTDATA> >::~CComEnumImpl<IEnumConnections,&_GUID_b196b287_bab4_101a_b69c_00aa00341d07,tagCONNECTDATA,ATL::_Copy<tagCONNECTDATA> >
PUBLIC	?Next@?$CComEnumImpl@UIEnumConnections@@$1?_GUID_b196b287_bab4_101a_b69c_00aa00341d07@@3U__s_GUID@@BUtagCONNECTDATA@@V?$_Copy@UtagCONNECTDATA@@@ATL@@@ATL@@UAGJKPAUtagCONNECTDATA@@PAK@Z ; ATL::CComEnumImpl<IEnumConnections,&_GUID_b196b287_bab4_101a_b69c_00aa00341d07,tagCONNECTDATA,ATL::_Copy<tagCONNECTDATA> >::Next
PUBLIC	?Skip@?$CComEnumImpl@UIEnumConnections@@$1?_GUID_b196b287_bab4_101a_b69c_00aa00341d07@@3U__s_GUID@@BUtagCONNECTDATA@@V?$_Copy@UtagCONNECTDATA@@@ATL@@@ATL@@UAGJK@Z ; ATL::CComEnumImpl<IEnumConnections,&_GUID_b196b287_bab4_101a_b69c_00aa00341d07,tagCONNECTDATA,ATL::_Copy<tagCONNECTDATA> >::Skip
PUBLIC	?Reset@?$CComEnumImpl@UIEnumConnections@@$1?_GUID_b196b287_bab4_101a_b69c_00aa00341d07@@3U__s_GUID@@BUtagCONNECTDATA@@V?$_Copy@UtagCONNECTDATA@@@ATL@@@ATL@@UAGJXZ ; ATL::CComEnumImpl<IEnumConnections,&_GUID_b196b287_bab4_101a_b69c_00aa00341d07,tagCONNECTDATA,ATL::_Copy<tagCONNECTDATA> >::Reset
PUBLIC	?Clone@?$CComEnumImpl@UIEnumConnections@@$1?_GUID_b196b287_bab4_101a_b69c_00aa00341d07@@3U__s_GUID@@BUtagCONNECTDATA@@V?$_Copy@UtagCONNECTDATA@@@ATL@@@ATL@@UAGJPAPAUIEnumConnections@@@Z ; ATL::CComEnumImpl<IEnumConnections,&_GUID_b196b287_bab4_101a_b69c_00aa00341d07,tagCONNECTDATA,ATL::_Copy<tagCONNECTDATA> >::Clone
PUBLIC	?Init@?$CComEnumImpl@UIEnumConnections@@$1?_GUID_b196b287_bab4_101a_b69c_00aa00341d07@@3U__s_GUID@@BUtagCONNECTDATA@@V?$_Copy@UtagCONNECTDATA@@@ATL@@@ATL@@QAEJPAUtagCONNECTDATA@@0PAUIUnknown@@W4CComEnumFlags@2@@Z ; ATL::CComEnumImpl<IEnumConnections,&_GUID_b196b287_bab4_101a_b69c_00aa00341d07,tagCONNECTDATA,ATL::_Copy<tagCONNECTDATA> >::Init
PUBLIC	?_InternalQueryInterface@?$CComEnum@UIEnumConnections@@$1?_GUID_b196b287_bab4_101a_b69c_00aa00341d07@@3U__s_GUID@@BUtagCONNECTDATA@@V?$_Copy@UtagCONNECTDATA@@@ATL@@VCComSingleThreadModel@6@@ATL@@QAEJABU_GUID@@PAPAX@Z ; ATL::CComEnum<IEnumConnections,&_GUID_b196b287_bab4_101a_b69c_00aa00341d07,tagCONNECTDATA,ATL::_Copy<tagCONNECTDATA>,ATL::CComSingleThreadModel>::_InternalQueryInterface
PUBLIC	?_GetEntries@?$CComEnum@UIEnumConnections@@$1?_GUID_b196b287_bab4_101a_b69c_00aa00341d07@@3U__s_GUID@@BUtagCONNECTDATA@@V?$_Copy@UtagCONNECTDATA@@@ATL@@VCComSingleThreadModel@6@@ATL@@SGPBU_ATL_INTMAP_ENTRY@2@XZ ; ATL::CComEnum<IEnumConnections,&_GUID_b196b287_bab4_101a_b69c_00aa00341d07,tagCONNECTDATA,ATL::_Copy<tagCONNECTDATA>,ATL::CComSingleThreadModel>::_GetEntries
PUBLIC	??0?$CComEnum@UIEnumConnections@@$1?_GUID_b196b287_bab4_101a_b69c_00aa00341d07@@3U__s_GUID@@BUtagCONNECTDATA@@V?$_Copy@UtagCONNECTDATA@@@ATL@@VCComSingleThreadModel@6@@ATL@@QAE@XZ ; ATL::CComEnum<IEnumConnections,&_GUID_b196b287_bab4_101a_b69c_00aa00341d07,tagCONNECTDATA,ATL::_Copy<tagCONNECTDATA>,ATL::CComSingleThreadModel>::CComEnum<IEnumConnections,&_GUID_b196b287_bab4_101a_b69c_00aa00341d07,tagCONNECTDATA,ATL::_Copy<tagCONNECTDATA>,ATL::CComSingleThreadModel>
PUBLIC	??1?$CComEnum@UIEnumConnections@@$1?_GUID_b196b287_bab4_101a_b69c_00aa00341d07@@3U__s_GUID@@BUtagCONNECTDATA@@V?$_Copy@UtagCONNECTDATA@@@ATL@@VCComSingleThreadModel@6@@ATL@@UAE@XZ ; ATL::CComEnum<IEnumConnections,&_GUID_b196b287_bab4_101a_b69c_00aa00341d07,tagCONNECTDATA,ATL::_Copy<tagCONNECTDATA>,ATL::CComSingleThreadModel>::~CComEnum<IEnumConnections,&_GUID_b196b287_bab4_101a_b69c_00aa00341d07,tagCONNECTDATA,ATL::_Copy<tagCONNECTDATA>,ATL::CComSingleThreadModel>
PUBLIC	??0?$CComObject@V?$CComEnum@UIEnumConnections@@$1?_GUID_b196b287_bab4_101a_b69c_00aa00341d07@@3U__s_GUID@@BUtagCONNECTDATA@@V?$_Copy@UtagCONNECTDATA@@@ATL@@VCComSingleThreadModel@6@@ATL@@@ATL@@QAE@PAX@Z ; ATL::CComObject<ATL::CComEnum<IEnumConnections,&_GUID_b196b287_bab4_101a_b69c_00aa00341d07,tagCONNECTDATA,ATL::_Copy<tagCONNECTDATA>,ATL::CComSingleThreadModel> >::CComObject<ATL::CComEnum<IEnumConnections,&_GUID_b196b287_bab4_101a_b69c_00aa00341d07,tagCONNECTDATA,ATL::_Copy<tagCONNECTDATA>,ATL::CComSingleThreadModel> >
PUBLIC	??1?$CComObject@V?$CComEnum@UIEnumConnections@@$1?_GUID_b196b287_bab4_101a_b69c_00aa00341d07@@3U__s_GUID@@BUtagCONNECTDATA@@V?$_Copy@UtagCONNECTDATA@@@ATL@@VCComSingleThreadModel@6@@ATL@@@ATL@@UAE@XZ ; ATL::CComObject<ATL::CComEnum<IEnumConnections,&_GUID_b196b287_bab4_101a_b69c_00aa00341d07,tagCONNECTDATA,ATL::_Copy<tagCONNECTDATA>,ATL::CComSingleThreadModel> >::~CComObject<ATL::CComEnum<IEnumConnections,&_GUID_b196b287_bab4_101a_b69c_00aa00341d07,tagCONNECTDATA,ATL::_Copy<tagCONNECTDATA>,ATL::CComSingleThreadModel> >
PUBLIC	?AddRef@?$CComObject@V?$CComEnum@UIEnumConnections@@$1?_GUID_b196b287_bab4_101a_b69c_00aa00341d07@@3U__s_GUID@@BUtagCONNECTDATA@@V?$_Copy@UtagCONNECTDATA@@@ATL@@VCComSingleThreadModel@6@@ATL@@@ATL@@UAGKXZ ; ATL::CComObject<ATL::CComEnum<IEnumConnections,&_GUID_b196b287_bab4_101a_b69c_00aa00341d07,tagCONNECTDATA,ATL::_Copy<tagCONNECTDATA>,ATL::CComSingleThreadModel> >::AddRef
PUBLIC	?Release@?$CComObject@V?$CComEnum@UIEnumConnections@@$1?_GUID_b196b287_bab4_101a_b69c_00aa00341d07@@3U__s_GUID@@BUtagCONNECTDATA@@V?$_Copy@UtagCONNECTDATA@@@ATL@@VCComSingleThreadModel@6@@ATL@@@ATL@@UAGKXZ ; ATL::CComObject<ATL::CComEnum<IEnumConnections,&_GUID_b196b287_bab4_101a_b69c_00aa00341d07,tagCONNECTDATA,ATL::_Copy<tagCONNECTDATA>,ATL::CComSingleThreadModel> >::Release
PUBLIC	?QueryInterface@?$CComObject@V?$CComEnum@UIEnumConnections@@$1?_GUID_b196b287_bab4_101a_b69c_00aa00341d07@@3U__s_GUID@@BUtagCONNECTDATA@@V?$_Copy@UtagCONNECTDATA@@@ATL@@VCComSingleThreadModel@6@@ATL@@@ATL@@UAGJABU_GUID@@PAPAX@Z ; ATL::CComObject<ATL::CComEnum<IEnumConnections,&_GUID_b196b287_bab4_101a_b69c_00aa00341d07,tagCONNECTDATA,ATL::_Copy<tagCONNECTDATA>,ATL::CComSingleThreadModel> >::QueryInterface
PUBLIC	?CreateInstance@?$CComObject@V?$CComEnum@UIEnumConnections@@$1?_GUID_b196b287_bab4_101a_b69c_00aa00341d07@@3U__s_GUID@@BUtagCONNECTDATA@@V?$_Copy@UtagCONNECTDATA@@@ATL@@VCComSingleThreadModel@6@@ATL@@@ATL@@SGJPAPAV12@@Z ; ATL::CComObject<ATL::CComEnum<IEnumConnections,&_GUID_b196b287_bab4_101a_b69c_00aa00341d07,tagCONNECTDATA,ATL::_Copy<tagCONNECTDATA>,ATL::CComSingleThreadModel> >::CreateInstance
PUBLIC	??_G?$CComObject@V?$CComEnum@UIEnumConnections@@$1?_GUID_b196b287_bab4_101a_b69c_00aa00341d07@@3U__s_GUID@@BUtagCONNECTDATA@@V?$_Copy@UtagCONNECTDATA@@@ATL@@VCComSingleThreadModel@6@@ATL@@@ATL@@UAEPAXI@Z ; ATL::CComObject<ATL::CComEnum<IEnumConnections,&_GUID_b196b287_bab4_101a_b69c_00aa00341d07,tagCONNECTDATA,ATL::_Copy<tagCONNECTDATA>,ATL::CComSingleThreadModel> >::`scalar deleting destructor'
PUBLIC	?copy@?$_CopyInterface@UIConnectionPoint@@@ATL@@SAJPAPAUIConnectionPoint@@PBQAU3@@Z ; ATL::_CopyInterface<IConnectionPoint>::copy
PUBLIC	?init@?$_CopyInterface@UIConnectionPoint@@@ATL@@SAXPAPAUIConnectionPoint@@@Z ; ATL::_CopyInterface<IConnectionPoint>::init
PUBLIC	?destroy@?$_CopyInterface@UIConnectionPoint@@@ATL@@SAXPAPAUIConnectionPoint@@@Z ; ATL::_CopyInterface<IConnectionPoint>::destroy
PUBLIC	??_E?$CComObject@VCOPOSGestureControl@@@ATL@@W3AEPAXI@Z ; [thunk]:ATL::CComObject<COPOSGestureControl>::`vector deleting destructor'
PUBLIC	??_E?$CComObject@VCOPOSGestureControl@@@ATL@@WEM@AEPAXI@Z ; [thunk]:ATL::CComObject<COPOSGestureControl>::`vector deleting destructor'
PUBLIC	?QueryInterface@?$CComObject@VCOPOSGestureControl@@@ATL@@WHA@AGJABU_GUID@@PAPAX@Z ; [thunk]:ATL::CComObject<COPOSGestureControl>::QueryInterface`adjustor{112}'
PUBLIC	?AddRef@?$CComObject@VCOPOSGestureControl@@@ATL@@WHA@AGKXZ ; [thunk]:ATL::CComObject<COPOSGestureControl>::AddRef`adjustor{112}'
PUBLIC	?Release@?$CComObject@VCOPOSGestureControl@@@ATL@@WHA@AGKXZ ; [thunk]:ATL::CComObject<COPOSGestureControl>::Release`adjustor{112}'
PUBLIC	?QueryInterface@?$CComObject@VCOPOSGestureControl@@@ATL@@WHE@AGJABU_GUID@@PAPAX@Z ; [thunk]:ATL::CComObject<COPOSGestureControl>::QueryInterface`adjustor{116}'
PUBLIC	?AddRef@?$CComObject@VCOPOSGestureControl@@@ATL@@WHE@AGKXZ ; [thunk]:ATL::CComObject<COPOSGestureControl>::AddRef`adjustor{116}'
PUBLIC	?Release@?$CComObject@VCOPOSGestureControl@@@ATL@@WHE@AGKXZ ; [thunk]:ATL::CComObject<COPOSGestureControl>::Release`adjustor{116}'
PUBLIC	?QueryInterface@?$CComObject@VCOPOSGestureControl@@@ATL@@WHI@AGJABU_GUID@@PAPAX@Z ; [thunk]:ATL::CComObject<COPOSGestureControl>::QueryInterface`adjustor{120}'
PUBLIC	?AddRef@?$CComObject@VCOPOSGestureControl@@@ATL@@WHI@AGKXZ ; [thunk]:ATL::CComObject<COPOSGestureControl>::AddRef`adjustor{120}'
PUBLIC	?Release@?$CComObject@VCOPOSGestureControl@@@ATL@@WHI@AGKXZ ; [thunk]:ATL::CComObject<COPOSGestureControl>::Release`adjustor{120}'
PUBLIC	?QueryInterface@?$CComObject@VCOPOSGestureControl@@@ATL@@WHM@AGJABU_GUID@@PAPAX@Z ; [thunk]:ATL::CComObject<COPOSGestureControl>::QueryInterface`adjustor{124}'
PUBLIC	?AddRef@?$CComObject@VCOPOSGestureControl@@@ATL@@WHM@AGKXZ ; [thunk]:ATL::CComObject<COPOSGestureControl>::AddRef`adjustor{124}'
PUBLIC	?Release@?$CComObject@VCOPOSGestureControl@@@ATL@@WHM@AGKXZ ; [thunk]:ATL::CComObject<COPOSGestureControl>::Release`adjustor{124}'
PUBLIC	?QueryInterface@?$CComObject@VCOPOSGestureControl@@@ATL@@WIA@AGJABU_GUID@@PAPAX@Z ; [thunk]:ATL::CComObject<COPOSGestureControl>::QueryInterface`adjustor{128}'
PUBLIC	?AddRef@?$CComObject@VCOPOSGestureControl@@@ATL@@WIA@AGKXZ ; [thunk]:ATL::CComObject<COPOSGestureControl>::AddRef`adjustor{128}'
PUBLIC	?Release@?$CComObject@VCOPOSGestureControl@@@ATL@@WIA@AGKXZ ; [thunk]:ATL::CComObject<COPOSGestureControl>::Release`adjustor{128}'
PUBLIC	?QueryInterface@?$CComObject@VCOPOSGestureControl@@@ATL@@WIE@AGJABU_GUID@@PAPAX@Z ; [thunk]:ATL::CComObject<COPOSGestureControl>::QueryInterface`adjustor{132}'
PUBLIC	?AddRef@?$CComObject@VCOPOSGestureControl@@@ATL@@WIE@AGKXZ ; [thunk]:ATL::CComObject<COPOSGestureControl>::AddRef`adjustor{132}'
PUBLIC	?Release@?$CComObject@VCOPOSGestureControl@@@ATL@@WIE@AGKXZ ; [thunk]:ATL::CComObject<COPOSGestureControl>::Release`adjustor{132}'
PUBLIC	?QueryInterface@?$CComObject@VCOPOSGestureControl@@@ATL@@WII@AGJABU_GUID@@PAPAX@Z ; [thunk]:ATL::CComObject<COPOSGestureControl>::QueryInterface`adjustor{136}'
PUBLIC	?AddRef@?$CComObject@VCOPOSGestureControl@@@ATL@@WII@AGKXZ ; [thunk]:ATL::CComObject<COPOSGestureControl>::AddRef`adjustor{136}'
PUBLIC	?Release@?$CComObject@VCOPOSGestureControl@@@ATL@@WII@AGKXZ ; [thunk]:ATL::CComObject<COPOSGestureControl>::Release`adjustor{136}'
PUBLIC	?QueryInterface@?$CComObject@VCOPOSGestureControl@@@ATL@@WIM@AGJABU_GUID@@PAPAX@Z ; [thunk]:ATL::CComObject<COPOSGestureControl>::QueryInterface`adjustor{140}'
PUBLIC	?AddRef@?$CComObject@VCOPOSGestureControl@@@ATL@@WIM@AGKXZ ; [thunk]:ATL::CComObject<COPOSGestureControl>::AddRef`adjustor{140}'
PUBLIC	?Release@?$CComObject@VCOPOSGestureControl@@@ATL@@WIM@AGKXZ ; [thunk]:ATL::CComObject<COPOSGestureControl>::Release`adjustor{140}'
PUBLIC	?QueryInterface@?$CComObject@VCOPOSGestureControl@@@ATL@@WJA@AGJABU_GUID@@PAPAX@Z ; [thunk]:ATL::CComObject<COPOSGestureControl>::QueryInterface`adjustor{144}'
PUBLIC	?AddRef@?$CComObject@VCOPOSGestureControl@@@ATL@@WJA@AGKXZ ; [thunk]:ATL::CComObject<COPOSGestureControl>::AddRef`adjustor{144}'
PUBLIC	?Release@?$CComObject@VCOPOSGestureControl@@@ATL@@WJA@AGKXZ ; [thunk]:ATL::CComObject<COPOSGestureControl>::Release`adjustor{144}'
PUBLIC	?QueryInterface@?$CComObject@VCOPOSGestureControl@@@ATL@@WJE@AGJABU_GUID@@PAPAX@Z ; [thunk]:ATL::CComObject<COPOSGestureControl>::QueryInterface`adjustor{148}'
PUBLIC	?AddRef@?$CComObject@VCOPOSGestureControl@@@ATL@@WJE@AGKXZ ; [thunk]:ATL::CComObject<COPOSGestureControl>::AddRef`adjustor{148}'
PUBLIC	?Release@?$CComObject@VCOPOSGestureControl@@@ATL@@WJE@AGKXZ ; [thunk]:ATL::CComObject<COPOSGestureControl>::Release`adjustor{148}'
PUBLIC	?QueryInterface@?$CComObject@VCOPOSGestureControl@@@ATL@@WJI@AGJABU_GUID@@PAPAX@Z ; [thunk]:ATL::CComObject<COPOSGestureControl>::QueryInterface`adjustor{152}'
PUBLIC	?AddRef@?$CComObject@VCOPOSGestureControl@@@ATL@@WJI@AGKXZ ; [thunk]:ATL::CComObject<COPOSGestureControl>::AddRef`adjustor{152}'
PUBLIC	?Release@?$CComObject@VCOPOSGestureControl@@@ATL@@WJI@AGKXZ ; [thunk]:ATL::CComObject<COPOSGestureControl>::Release`adjustor{152}'
PUBLIC	?QueryInterface@?$CComObject@VCOPOSGestureControl@@@ATL@@WJM@AGJABU_GUID@@PAPAX@Z ; [thunk]:ATL::CComObject<COPOSGestureControl>::QueryInterface`adjustor{156}'
PUBLIC	?AddRef@?$CComObject@VCOPOSGestureControl@@@ATL@@WJM@AGKXZ ; [thunk]:ATL::CComObject<COPOSGestureControl>::AddRef`adjustor{156}'
PUBLIC	?Release@?$CComObject@VCOPOSGestureControl@@@ATL@@WJM@AGKXZ ; [thunk]:ATL::CComObject<COPOSGestureControl>::Release`adjustor{156}'
PUBLIC	?QueryInterface@?$CComObject@VCOPOSGestureControl@@@ATL@@WKA@AGJABU_GUID@@PAPAX@Z ; [thunk]:ATL::CComObject<COPOSGestureControl>::QueryInterface`adjustor{160}'
PUBLIC	?AddRef@?$CComObject@VCOPOSGestureControl@@@ATL@@WKA@AGKXZ ; [thunk]:ATL::CComObject<COPOSGestureControl>::AddRef`adjustor{160}'
PUBLIC	?Release@?$CComObject@VCOPOSGestureControl@@@ATL@@WKA@AGKXZ ; [thunk]:ATL::CComObject<COPOSGestureControl>::Release`adjustor{160}'
PUBLIC	?AddRef@?$CComObject@VCOPOSGestureControl@@@ATL@@WKI@AGKXZ ; [thunk]:ATL::CComObject<COPOSGestureControl>::AddRef`adjustor{168}'
PUBLIC	?Release@?$CComObject@VCOPOSGestureControl@@@ATL@@WKI@AGKXZ ; [thunk]:ATL::CComObject<COPOSGestureControl>::Release`adjustor{168}'
PUBLIC	?AddRef@?$CComObject@VCOPOSGestureControl@@@ATL@@WLE@AGKXZ ; [thunk]:ATL::CComObject<COPOSGestureControl>::AddRef`adjustor{180}'
PUBLIC	?Release@?$CComObject@VCOPOSGestureControl@@@ATL@@WLE@AGKXZ ; [thunk]:ATL::CComObject<COPOSGestureControl>::Release`adjustor{180}'
PUBLIC	??_E?$CComContainedObject@VCOPOSGestureControl@@@ATL@@W3AEPAXI@Z ; [thunk]:ATL::CComContainedObject<COPOSGestureControl>::`vector deleting destructor'
PUBLIC	??_E?$CComContainedObject@VCOPOSGestureControl@@@ATL@@WEM@AEPAXI@Z ; [thunk]:ATL::CComContainedObject<COPOSGestureControl>::`vector deleting destructor'
PUBLIC	?QueryInterface@?$CComContainedObject@VCOPOSGestureControl@@@ATL@@WHA@AGJABU_GUID@@PAPAX@Z ; [thunk]:ATL::CComContainedObject<COPOSGestureControl>::QueryInterface`adjustor{112}'
PUBLIC	?AddRef@?$CComContainedObject@VCOPOSGestureControl@@@ATL@@WHA@AGKXZ ; [thunk]:ATL::CComContainedObject<COPOSGestureControl>::AddRef`adjustor{112}'
PUBLIC	?Release@?$CComContainedObject@VCOPOSGestureControl@@@ATL@@WHA@AGKXZ ; [thunk]:ATL::CComContainedObject<COPOSGestureControl>::Release`adjustor{112}'
PUBLIC	?QueryInterface@?$CComContainedObject@VCOPOSGestureControl@@@ATL@@WHE@AGJABU_GUID@@PAPAX@Z ; [thunk]:ATL::CComContainedObject<COPOSGestureControl>::QueryInterface`adjustor{116}'
PUBLIC	?AddRef@?$CComContainedObject@VCOPOSGestureControl@@@ATL@@WHE@AGKXZ ; [thunk]:ATL::CComContainedObject<COPOSGestureControl>::AddRef`adjustor{116}'
PUBLIC	?Release@?$CComContainedObject@VCOPOSGestureControl@@@ATL@@WHE@AGKXZ ; [thunk]:ATL::CComContainedObject<COPOSGestureControl>::Release`adjustor{116}'
PUBLIC	?QueryInterface@?$CComContainedObject@VCOPOSGestureControl@@@ATL@@WHI@AGJABU_GUID@@PAPAX@Z ; [thunk]:ATL::CComContainedObject<COPOSGestureControl>::QueryInterface`adjustor{120}'
PUBLIC	?AddRef@?$CComContainedObject@VCOPOSGestureControl@@@ATL@@WHI@AGKXZ ; [thunk]:ATL::CComContainedObject<COPOSGestureControl>::AddRef`adjustor{120}'
PUBLIC	?Release@?$CComContainedObject@VCOPOSGestureControl@@@ATL@@WHI@AGKXZ ; [thunk]:ATL::CComContainedObject<COPOSGestureControl>::Release`adjustor{120}'
PUBLIC	?QueryInterface@?$CComContainedObject@VCOPOSGestureControl@@@ATL@@WHM@AGJABU_GUID@@PAPAX@Z ; [thunk]:ATL::CComContainedObject<COPOSGestureControl>::QueryInterface`adjustor{124}'
PUBLIC	?AddRef@?$CComContainedObject@VCOPOSGestureControl@@@ATL@@WHM@AGKXZ ; [thunk]:ATL::CComContainedObject<COPOSGestureControl>::AddRef`adjustor{124}'
PUBLIC	?Release@?$CComContainedObject@VCOPOSGestureControl@@@ATL@@WHM@AGKXZ ; [thunk]:ATL::CComContainedObject<COPOSGestureControl>::Release`adjustor{124}'
PUBLIC	?QueryInterface@?$CComContainedObject@VCOPOSGestureControl@@@ATL@@WIA@AGJABU_GUID@@PAPAX@Z ; [thunk]:ATL::CComContainedObject<COPOSGestureControl>::QueryInterface`adjustor{128}'
PUBLIC	?AddRef@?$CComContainedObject@VCOPOSGestureControl@@@ATL@@WIA@AGKXZ ; [thunk]:ATL::CComContainedObject<COPOSGestureControl>::AddRef`adjustor{128}'
PUBLIC	?Release@?$CComContainedObject@VCOPOSGestureControl@@@ATL@@WIA@AGKXZ ; [thunk]:ATL::CComContainedObject<COPOSGestureControl>::Release`adjustor{128}'
PUBLIC	?QueryInterface@?$CComContainedObject@VCOPOSGestureControl@@@ATL@@WIE@AGJABU_GUID@@PAPAX@Z ; [thunk]:ATL::CComContainedObject<COPOSGestureControl>::QueryInterface`adjustor{132}'
PUBLIC	?AddRef@?$CComContainedObject@VCOPOSGestureControl@@@ATL@@WIE@AGKXZ ; [thunk]:ATL::CComContainedObject<COPOSGestureControl>::AddRef`adjustor{132}'
PUBLIC	?Release@?$CComContainedObject@VCOPOSGestureControl@@@ATL@@WIE@AGKXZ ; [thunk]:ATL::CComContainedObject<COPOSGestureControl>::Release`adjustor{132}'
PUBLIC	?QueryInterface@?$CComContainedObject@VCOPOSGestureControl@@@ATL@@WII@AGJABU_GUID@@PAPAX@Z ; [thunk]:ATL::CComContainedObject<COPOSGestureControl>::QueryInterface`adjustor{136}'
PUBLIC	?AddRef@?$CComContainedObject@VCOPOSGestureControl@@@ATL@@WII@AGKXZ ; [thunk]:ATL::CComContainedObject<COPOSGestureControl>::AddRef`adjustor{136}'
PUBLIC	?Release@?$CComContainedObject@VCOPOSGestureControl@@@ATL@@WII@AGKXZ ; [thunk]:ATL::CComContainedObject<COPOSGestureControl>::Release`adjustor{136}'
PUBLIC	?QueryInterface@?$CComContainedObject@VCOPOSGestureControl@@@ATL@@WIM@AGJABU_GUID@@PAPAX@Z ; [thunk]:ATL::CComContainedObject<COPOSGestureControl>::QueryInterface`adjustor{140}'
PUBLIC	?AddRef@?$CComContainedObject@VCOPOSGestureControl@@@ATL@@WIM@AGKXZ ; [thunk]:ATL::CComContainedObject<COPOSGestureControl>::AddRef`adjustor{140}'
PUBLIC	?Release@?$CComContainedObject@VCOPOSGestureControl@@@ATL@@WIM@AGKXZ ; [thunk]:ATL::CComContainedObject<COPOSGestureControl>::Release`adjustor{140}'
PUBLIC	?QueryInterface@?$CComContainedObject@VCOPOSGestureControl@@@ATL@@WJA@AGJABU_GUID@@PAPAX@Z ; [thunk]:ATL::CComContainedObject<COPOSGestureControl>::QueryInterface`adjustor{144}'
PUBLIC	?AddRef@?$CComContainedObject@VCOPOSGestureControl@@@ATL@@WJA@AGKXZ ; [thunk]:ATL::CComContainedObject<COPOSGestureControl>::AddRef`adjustor{144}'
PUBLIC	?Release@?$CComContainedObject@VCOPOSGestureControl@@@ATL@@WJA@AGKXZ ; [thunk]:ATL::CComContainedObject<COPOSGestureControl>::Release`adjustor{144}'
PUBLIC	?QueryInterface@?$CComContainedObject@VCOPOSGestureControl@@@ATL@@WJE@AGJABU_GUID@@PAPAX@Z ; [thunk]:ATL::CComContainedObject<COPOSGestureControl>::QueryInterface`adjustor{148}'
PUBLIC	?AddRef@?$CComContainedObject@VCOPOSGestureControl@@@ATL@@WJE@AGKXZ ; [thunk]:ATL::CComContainedObject<COPOSGestureControl>::AddRef`adjustor{148}'
PUBLIC	?Release@?$CComContainedObject@VCOPOSGestureControl@@@ATL@@WJE@AGKXZ ; [thunk]:ATL::CComContainedObject<COPOSGestureControl>::Release`adjustor{148}'
PUBLIC	?QueryInterface@?$CComContainedObject@VCOPOSGestureControl@@@ATL@@WJI@AGJABU_GUID@@PAPAX@Z ; [thunk]:ATL::CComContainedObject<COPOSGestureControl>::QueryInterface`adjustor{152}'
PUBLIC	?AddRef@?$CComContainedObject@VCOPOSGestureControl@@@ATL@@WJI@AGKXZ ; [thunk]:ATL::CComContainedObject<COPOSGestureControl>::AddRef`adjustor{152}'
PUBLIC	?Release@?$CComContainedObject@VCOPOSGestureControl@@@ATL@@WJI@AGKXZ ; [thunk]:ATL::CComContainedObject<COPOSGestureControl>::Release`adjustor{152}'
PUBLIC	?QueryInterface@?$CComContainedObject@VCOPOSGestureControl@@@ATL@@WJM@AGJABU_GUID@@PAPAX@Z ; [thunk]:ATL::CComContainedObject<COPOSGestureControl>::QueryInterface`adjustor{156}'
PUBLIC	?AddRef@?$CComContainedObject@VCOPOSGestureControl@@@ATL@@WJM@AGKXZ ; [thunk]:ATL::CComContainedObject<COPOSGestureControl>::AddRef`adjustor{156}'
PUBLIC	?Release@?$CComContainedObject@VCOPOSGestureControl@@@ATL@@WJM@AGKXZ ; [thunk]:ATL::CComContainedObject<COPOSGestureControl>::Release`adjustor{156}'
PUBLIC	?QueryInterface@?$CComContainedObject@VCOPOSGestureControl@@@ATL@@WKA@AGJABU_GUID@@PAPAX@Z ; [thunk]:ATL::CComContainedObject<COPOSGestureControl>::QueryInterface`adjustor{160}'
PUBLIC	?AddRef@?$CComContainedObject@VCOPOSGestureControl@@@ATL@@WKA@AGKXZ ; [thunk]:ATL::CComContainedObject<COPOSGestureControl>::AddRef`adjustor{160}'
PUBLIC	?Release@?$CComContainedObject@VCOPOSGestureControl@@@ATL@@WKA@AGKXZ ; [thunk]:ATL::CComContainedObject<COPOSGestureControl>::Release`adjustor{160}'
PUBLIC	?AddRef@?$CComContainedObject@VCOPOSGestureControl@@@ATL@@WKI@AGKXZ ; [thunk]:ATL::CComContainedObject<COPOSGestureControl>::AddRef`adjustor{168}'
PUBLIC	?Release@?$CComContainedObject@VCOPOSGestureControl@@@ATL@@WKI@AGKXZ ; [thunk]:ATL::CComContainedObject<COPOSGestureControl>::Release`adjustor{168}'
PUBLIC	?AddRef@?$CComContainedObject@VCOPOSGestureControl@@@ATL@@WLE@AGKXZ ; [thunk]:ATL::CComContainedObject<COPOSGestureControl>::AddRef`adjustor{180}'
PUBLIC	?Release@?$CComContainedObject@VCOPOSGestureControl@@@ATL@@WLE@AGKXZ ; [thunk]:ATL::CComContainedObject<COPOSGestureControl>::Release`adjustor{180}'
PUBLIC	?_OptionsStorage@?1??__local_stdio_printf_options@@9@4_KA ; `__local_stdio_printf_options'::`2'::_OptionsStorage
PUBLIC	??_C@_13COJANIEC@?$AA0@				; `string'
PUBLIC	??_C@_17CNPHIMPH@?$AA?$CF?$AAl?$AAs@		; `string'
PUBLIC	??_C@_1OE@EFJOHFCD@?$AAC?$AA?3?$AA?2?$AAP?$AAr?$AAo?$AAg?$AAr?$AAa?$AAm?$AA?5?$AAF?$AAi?$AAl?$AAe@ ; `string'
PUBLIC	?atlTraceGeneral@ATL@@3V?$CTraceCategoryEx@$00$0A@@1@A ; ATL::atlTraceGeneral
PUBLIC	?atlTraceCOM@ATL@@3V?$CTraceCategoryEx@$01$0A@@1@A ; ATL::atlTraceCOM
PUBLIC	?atlTraceQI@ATL@@3V?$CTraceCategoryEx@$03$0A@@1@A ; ATL::atlTraceQI
PUBLIC	?atlTraceRegistrar@ATL@@3V?$CTraceCategoryEx@$07$0A@@1@A ; ATL::atlTraceRegistrar
PUBLIC	?atlTraceRefcount@ATL@@3V?$CTraceCategoryEx@$0BA@$0A@@1@A ; ATL::atlTraceRefcount
PUBLIC	?atlTraceWindowing@ATL@@3V?$CTraceCategoryEx@$0CA@$0A@@1@A ; ATL::atlTraceWindowing
PUBLIC	?atlTraceControls@ATL@@3V?$CTraceCategoryEx@$0EA@$0A@@1@A ; ATL::atlTraceControls
PUBLIC	?atlTraceHosting@ATL@@3V?$CTraceCategoryEx@$0IA@$0A@@1@A ; ATL::atlTraceHosting
PUBLIC	?atlTraceDBClient@ATL@@3V?$CTraceCategoryEx@$0BAA@$0A@@1@A ; ATL::atlTraceDBClient
PUBLIC	?atlTraceDBProvider@ATL@@3V?$CTraceCategoryEx@$0CAA@$0A@@1@A ; ATL::atlTraceDBProvider
PUBLIC	?atlTraceSnapin@ATL@@3V?$CTraceCategoryEx@$0EAA@$0A@@1@A ; ATL::atlTraceSnapin
PUBLIC	?atlTraceNotImpl@ATL@@3V?$CTraceCategoryEx@$0IAA@$0A@@1@A ; ATL::atlTraceNotImpl
PUBLIC	?atlTraceAllocation@ATL@@3V?$CTraceCategoryEx@$0BAAA@$0A@@1@A ; ATL::atlTraceAllocation
PUBLIC	?atlTraceException@ATL@@3V?$CTraceCategoryEx@$0CAAA@$0A@@1@A ; ATL::atlTraceException
PUBLIC	?atlTraceTime@ATL@@3V?$CTraceCategoryEx@$0EAAA@$0A@@1@A ; ATL::atlTraceTime
PUBLIC	?atlTraceCache@ATL@@3V?$CTraceCategoryEx@$0IAAA@$0A@@1@A ; ATL::atlTraceCache
PUBLIC	?atlTraceStencil@ATL@@3V?$CTraceCategoryEx@$0BAAAA@$0A@@1@A ; ATL::atlTraceStencil
PUBLIC	?atlTraceString@ATL@@3V?$CTraceCategoryEx@$0CAAAA@$0A@@1@A ; ATL::atlTraceString
PUBLIC	?atlTraceMap@ATL@@3V?$CTraceCategoryEx@$0EAAAA@$0A@@1@A ; ATL::atlTraceMap
PUBLIC	?atlTraceUtil@ATL@@3V?$CTraceCategoryEx@$0IAAAA@$0A@@1@A ; ATL::atlTraceUtil
PUBLIC	?atlTraceSecurity@ATL@@3V?$CTraceCategoryEx@$0BAAAAA@$0A@@1@A ; ATL::atlTraceSecurity
PUBLIC	?atlTraceSync@ATL@@3V?$CTraceCategoryEx@$0CAAAAA@$0A@@1@A ; ATL::atlTraceSync
PUBLIC	?atlTraceISAPI@ATL@@3V?$CTraceCategoryEx@$0EAAAAA@$0A@@1@A ; ATL::atlTraceISAPI
PUBLIC	?m_nLevel@CTrace@ATL@@1IA			; ATL::CTrace::m_nLevel
PUBLIC	?m_nCategory@CTrace@ATL@@1IA			; ATL::CTrace::m_nCategory
PUBLIC	?m_nLastCategory@CTrace@ATL@@1IA		; ATL::CTrace::m_nLastCategory
PUBLIC	?m_nMap@CTrace@ATL@@1PAUCategoryMap@12@A	; ATL::CTrace::m_nMap
PUBLIC	??_C@_1O@LFNDFEBP@?$AA?$CF?$AAl?$AAs?$AA?5?$AA?9?$AA?5@ ; `string'
PUBLIC	??_C@_1M@PGKOAACE@?$AA?$CF?$AAu?$AA?5?$AA?9?$AA?5@ ; `string'
PUBLIC	??_C@_1O@OAIPCDPO@?$AA?$CF?$AAl?$AAs?$AA?$CF?$AAl?$AAs@ ; `string'
PUBLIC	??_C@_17LGGGMOOB@?$AA?$CF?$AAh?$AAs@		; `string'
PUBLIC	??_C@_1EO@EBPPKGOM@?$AAf?$AAa?$AAl?$AAs?$AAe?$AA?5?$AA?$CG?$AA?$CG?$AA?5?$AA?$CC?$AAT?$AAo?$AAo?$AA?5?$AAm@ ; `string'
PUBLIC	??_C@_1OE@DGDFBHKA@?$AAC?$AA?3?$AA?2?$AAP?$AAr?$AAo?$AAg?$AAr?$AAa?$AAm?$AA?5?$AAF?$AAi?$AAl?$AAe@ ; `string'
PUBLIC	??_C@_0HD@ECNMIKGK@C?3?2Program?5Files?5?$CIx86?$CJ?2Microsof@ ; `string'
PUBLIC	??_C@_1CK@DFMKPFAK@?$AAA?$AAt?$AAl?$AAT?$AAh?$AAr?$AAo?$AAw?$AA?3?$AA?5?$AAh?$AAr?$AA?5?$AA?$DN?$AA?5@ ; `string'
PUBLIC	??_C@_1M@HLGKFCJM@?$AAf?$AAa?$AAl?$AAs?$AAe@	; `string'
PUBLIC	??_C@_1OG@DEDHKNLM@?$AAC?$AA?3?$AA?2?$AAP?$AAr?$AAo?$AAg?$AAr?$AAa?$AAm?$AA?5?$AAF?$AAi?$AAl?$AAe@ ; `string'
PUBLIC	??_C@_1CA@MNJCDMEH@?$AA?$CB?$AAm?$AA_?$AAb?$AAI?$AAn?$AAi?$AAt?$AAi?$AAa?$AAl?$AAi?$AAz?$AAe?$AAd@ ; `string'
PUBLIC	??_C@_1OC@LDOGAJJJ@?$AAC?$AA?3?$AA?2?$AAP?$AAr?$AAo?$AAg?$AAr?$AAa?$AAm?$AA?5?$AAF?$AAi?$AAl?$AAe@ ; `string'
PUBLIC	?m_bInitFailed@CAtlBaseModule@ATL@@2_NA		; ATL::CAtlBaseModule::m_bInitFailed
PUBLIC	??_C@_1BM@GBBOFEAE@?$AA_?$AA_?$AAa?$AAt?$AAl?$AA_?$AAc?$AAo?$AAn?$AAd?$AAV?$AAa?$AAl@ ; `string'
PUBLIC	??_C@_1OG@NPBPGCCO@?$AAC?$AA?3?$AA?2?$AAP?$AAr?$AAo?$AAg?$AAr?$AAa?$AAm?$AA?5?$AAF?$AAi?$AAl?$AAe@ ; `string'
PUBLIC	??_C@_1BE@LOHOFOCD@?$AAp?$AAD?$AAi?$AAs?$AAp?$AAa?$AAt?$AAc?$AAh@ ; `string'
PUBLIC	??_C@_1BE@GIHDMMGE@?$AAp?$AAV?$AAa?$AAr?$AA?5?$AA?$CB?$AA?$DN?$AA?5?$AA0@ ; `string'
PUBLIC	??_C@_0HD@MGLNKGFD@C?3?2Program?5Files?5?$CIx86?$CJ?2Microsof@ ; `string'
PUBLIC	??_C@_1DM@OFBKNGJC@?$AAC?$AAP?$AAr?$AAo?$AAp?$AAe?$AAr?$AAt?$AAy?$AAH?$AAe?$AAl?$AAp?$AAe?$AAr@ ; `string'
PUBLIC	??_C@_1DM@OIOAIJPB@?$AAC?$AAP?$AAr?$AAo?$AAp?$AAe?$AAr?$AAt?$AAy?$AAH?$AAe?$AAl?$AAp?$AAe?$AAr@ ; `string'
PUBLIC	__GUID_00000000_0000_0000_c000_000000000046
PUBLIC	__GUID_00020400_0000_0000_c000_000000000046
PUBLIC	??_C@_1BG@ILBPLEEF@?$AAn?$AAN?$AAu?$AAl?$AAl?$AA?5?$AA?$DN?$AA?$DN?$AA?5?$AA0@ ; `string'
PUBLIC	??_C@_1BK@PMLCOGII@?$AAp?$AAS?$AAt?$AAr?$AAe?$AAa?$AAm?$AA?5?$AA?$CB?$AA?$DN?$AA?5?$AA0@ ; `string'
PUBLIC	??_C@_1DE@KLNFNPEF@?$AAc?$AAb?$AAS?$AAt?$AAr?$AAL?$AAe?$AAn?$AA?5?$AA?$DO?$AA?$DN?$AA?5?$AAs?$AAi?$AAz@ ; `string'
PUBLIC	??_C@_1O@CGPEODAD@?$AA?$CB?$AA?$CK?$AAt?$AAh?$AAi?$AAs@ ; `string'
PUBLIC	??_C@_1DG@PIJMPOJH@?$AAI?$AAn?$AAp?$AAu?$AAt?$AA?5?$AAs?$AAt?$AAr?$AAe?$AAa?$AAm?$AA?5?$AAi?$AAs@ ; `string'
PUBLIC	??_C@_1IG@BFBDIBOK@?$AAS?$AAt?$AAr?$AAi?$AAn?$AAg?$AA?5?$AAe?$AAx?$AAc?$AAe?$AAe?$AAd?$AAe?$AAd@ ; `string'
PUBLIC	??_C@_1GE@DKMFEMPD@?$AAL?$AAe?$AAn?$AAg?$AAt?$AAh?$AA?5?$AAo?$AAf?$AA?5?$AAs?$AAt?$AAr?$AAi?$AAn@ ; `string'
PUBLIC	??_C@_1FC@BKMPMMIF@?$AAC?$AAa?$AAn?$AAn?$AAo?$AAt?$AA?5?$AAr?$AAe?$AAa?$AAd?$AA?5?$AAN?$AAU?$AAL@ ; `string'
PUBLIC	??_C@_1CO@HIJGNINB@?$AA?$CI?$AA?$CI?$AA?$CI?$AAH?$AAR?$AAE?$AAS?$AAU?$AAL?$AAT?$AA?$CJ?$AA?$CI?$AAh?$AAr?$AA?$CJ@ ; `string'
PUBLIC	__GUID_00000109_0000_0000_c000_000000000046
PUBLIC	__GUID_7fd52380_4e07_101b_ae2d_08002b2ec713
PUBLIC	??_C@_1BK@EKMOGOFM@?$AAp?$AAc?$AAb?$AAS?$AAi?$AAz?$AAe?$AA?5?$AA?$CB?$AA?$DN?$AA?5?$AA0@ ; `string'
PUBLIC	??_C@_1BM@JBGPBNEE@?$AAs?$AAp?$AAS?$AAt?$AAr?$AAe?$AAa?$AAm?$AA?5?$AA?$CB?$AA?$DN?$AA?5?$AA0@ ; `string'
PUBLIC	??_C@_1BE@CANBMGJB@?$AAp?$AAS?$AAt?$AAm?$AA?5?$AA?$CB?$AA?$DN?$AA?5?$AA0@ ; `string'
PUBLIC	??_C@_1EG@GMHEAKOM@?$AAr?$AAg?$AAc?$AAl?$AAs?$AAi?$AAd?$AAA?$AAl?$AAl?$AAo?$AAw?$AAe?$AAd?$AA?4@ ; `string'
PUBLIC	??_C@_1PO@GPALOAFP@?$AAC?$AA?3?$AA?2?$AAP?$AAr?$AAo?$AAg?$AAr?$AAa?$AAm?$AA?5?$AAF?$AAi?$AAl?$AAe@ ; `string'
PUBLIC	??_C@_1BK@BIGILECK@?$AAA?$AAd?$AAv?$AAa?$AAp?$AAi?$AA3?$AA2?$AA?4?$AAd?$AAl?$AAl@ ; `string'
PUBLIC	??_C@_1BO@KNMGNOCJ@?$AAh?$AAA?$AAd?$AAv?$AAA?$AAP?$AAI?$AA3?$AA2?$AA?5?$AA?$CB?$AA?$DN?$AA?5?$AA0@ ; `string'
PUBLIC	??_C@_0BG@EKFFMJIO@RegOpenKeyTransactedW@	; `string'
PUBLIC	??_C@_0BI@MNCFCPFK@RegCreateKeyTransactedW@	; `string'
PUBLIC	??_C@_0BI@HAKLOOGP@RegDeleteKeyTransactedW@	; `string'
PUBLIC	??_C@_1OC@CIBKFAMP@?$AAC?$AA?3?$AA?2?$AAP?$AAr?$AAo?$AAg?$AAr?$AAa?$AAm?$AA?5?$AAF?$AAi?$AAl?$AAe@ ; `string'
PUBLIC	??_C@_1BG@OHCCAGNO@?$AA?$CB?$AAm?$AA_?$AAb?$AAL?$AAo?$AAc?$AAk?$AAe?$AAd@ ; `string'
PUBLIC	??_C@_1BE@NPGJNKLA@?$AAm?$AA_?$AAb?$AAL?$AAo?$AAc?$AAk?$AAe?$AAd@ ; `string'
PUBLIC	??_C@_0HB@KEBNGHII@C?3?2Program?5Files?5?$CIx86?$CJ?2Microsof@ ; `string'
PUBLIC	??_C@_1IA@KEEOONGN@?$AAE?$AAR?$AAR?$AAO?$AAR?$AA?5?$AA?3?$AA?5?$AAU?$AAn?$AAa?$AAb?$AAl?$AAe?$AA?5@ ; `string'
PUBLIC	?_AtlComModule@ATL@@3VCAtlComModule@1@A		; ATL::_AtlComModule
PUBLIC	?_AtlWinModule@ATL@@3VCAtlWinModule@1@A		; ATL::_AtlWinModule
PUBLIC	?m_libid@CAtlModule@ATL@@2U_GUID@@A		; ATL::CAtlModule::m_libid
PUBLIC	??_C@_1CC@DNHFMIHP@?$AA_?$AAp?$AAA?$AAt?$AAl?$AAM?$AAo?$AAd?$AAu?$AAl?$AAe?$AA?5?$AA?$DN?$AA?$DN?$AA?5@ ; `string'
PUBLIC	??_C@_1HK@DFMOIGDB@?$AAE?$AAR?$AAR?$AAO?$AAR?$AA?5?$AA?3?$AA?5?$AAU?$AAn?$AAa?$AAb?$AAl?$AAe?$AA?5@ ; `string'
PUBLIC	__GUID_00000146_0000_0000_c000_000000000046
PUBLIC	??_C@_1BG@LENCCAOJ@?$AAp?$AAp?$AAG?$AAI?$AAT?$AA?5?$AA?$CB?$AA?$DN?$AA?5?$AA0@ ; `string'
PUBLIC	??_C@_1BI@JBLBCKD@?$AAm?$AA_?$AAp?$AAG?$AAI?$AAT?$AA?5?$AA?$CB?$AA?$DN?$AA?5?$AA0@ ; `string'
PUBLIC	??_7CComModule@ATL@@6B@				; ATL::CComModule::`vftable'
PUBLIC	??_C@_1BM@NFPICFEL@?$AA_?$AAp?$AAM?$AAo?$AAd?$AAu?$AAl?$AAe?$AA?5?$AA?$DN?$AA?$DN?$AA?5?$AA0@ ; `string'
PUBLIC	??_C@_1DG@CCMKDBOJ@?$AAA?$AAT?$AAL?$AA?3?$AA?5?$AA?$CF?$AAT?$AAs?$AA?5?$AAn?$AAo?$AAt?$AA?5?$AAi?$AAm@ ; `string'
PUBLIC	??_C@_1BI@JPOONHGO@?$AAm?$AA_?$AAh?$AAK?$AAe?$AAy?$AA?5?$AA?$DN?$AA?$DN?$AA?5?$AA0@ ; `string'
PUBLIC	?pfnRegDeleteKeyEx@?1??DeleteSubKey@CRegKey@ATL@@QAEJPB_W@Z@4P6GJPAUHKEY__@@0KK@ZA ; `ATL::CRegKey::DeleteSubKey'::`2'::pfnRegDeleteKeyEx
PUBLIC	?bInitialized@?1??DeleteSubKey@CRegKey@ATL@@QAEJPB_W@Z@4_NA ; `ATL::CRegKey::DeleteSubKey'::`2'::bInitialized
PUBLIC	??_C@_1BI@KCHMLGAI@?$AAm?$AA_?$AAh?$AAK?$AAe?$AAy?$AA?5?$AA?$CB?$AA?$DN?$AA?5?$AA0@ ; `string'
PUBLIC	??_C@_0BA@LILAPHGE@RegDeleteKeyExW@		; `string'
PUBLIC	??_C@_1CA@JAHJEEHI@?$AAh?$AAK?$AAe?$AAy?$AAP?$AAa?$AAr?$AAe?$AAn?$AAt?$AA?5?$AA?$CB?$AA?$DN?$AA?5?$AA0@ ; `string'
PUBLIC	??_C@_1BG@OMKLFNDM@?$AAl?$AAR?$AAe?$AAs?$AA?5?$AA?$DN?$AA?$DN?$AA?5?$AA0?$AAL@ ; `string'
PUBLIC	??_C@_1FG@MAMCHIIA@?$AA?$CI?$AAd?$AAw?$AAT?$AAy?$AAp?$AAe?$AA?5?$AA?$DN?$AA?$DN?$AA?5?$AA?$CI?$AA?5?$AA1?$AAu@ ; `string'
PUBLIC	??_C@_1IA@CIKBLAHF@?$AAC?$AAR?$AAe?$AAg?$AAK?$AAe?$AAy?$AA?3?$AA?3?$AAR?$AAe?$AAc?$AAu?$AAr?$AAs@ ; `string'
PUBLIC	??_C@_1DO@EIGOLNAA@?$AAl?$AAp?$AAs?$AAz?$AAK?$AAe?$AAy?$AA?5?$AA?$CB?$AA?$DN?$AA?5?$AA0?$AA?5?$AA?$CG?$AA?$CG@ ; `string'
PUBLIC	??_C@_1OC@IGDLHBDL@?$AAC?$AA?3?$AA?2?$AAP?$AAr?$AAo?$AAg?$AAr?$AAa?$AAm?$AA?5?$AAF?$AAi?$AAl?$AAe@ ; `string'
PUBLIC	??_C@_1BG@MMFPEKL@?$AAs?$AAz?$AAK?$AAe?$AAy?$AA?5?$AA?$CB?$AA?$DN?$AA?5?$AA0@ ; `string'
PUBLIC	??_C@_1BK@LDPHGFPN@?$AAs?$AAz?$AAV?$AAa?$AAl?$AAu?$AAe?$AA?5?$AA?$CB?$AA?$DN?$AA?5?$AA0@ ; `string'
PUBLIC	?rgszNeverDelete@CRegParser@ATL@@1QBQB_WB	; ATL::CRegParser::rgszNeverDelete
PUBLIC	??_C@_1O@JFMKDNFA@?$AAp?$AA?5?$AA?$CB?$AA?$DN?$AA?5?$AA0@ ; `string'
PUBLIC	??_7CRegObject@ATL@@6B@				; ATL::CRegObject::`vftable'
PUBLIC	??_C@_1JM@PMKLGAKF@?$AAs?$AAt?$AAa?$AAt?$AAi?$AAc?$AAa?$AAl?$AAl?$AAy?$AA?5?$AAl?$AAi?$AAn?$AAk@ ; `string'
PUBLIC	??_C@_1KC@MLBIPPDL@?$AAL?$AA?$CC?$AAs?$AAt?$AAa?$AAt?$AAi?$AAc?$AAa?$AAl?$AAl?$AAy?$AA?5?$AAl?$AAi@ ; `string'
PUBLIC	??_C@_0HB@NIKGFAOE@C?3?2Program?5Files?5?$CIx86?$CJ?2Microsof@ ; `string'
PUBLIC	??_C@_1DM@JBIDINMA@?$AAF?$AAa?$AAi?$AAl?$AAe?$AAd?$AA?5?$AAt?$AAo?$AA?5?$AAL?$AAo?$AAa?$AAd?$AAL@ ; `string'
PUBLIC	??_C@_1FE@HJDAOHJE@?$AAF?$AAa?$AAi?$AAl?$AAe?$AAd?$AA?5?$AAt?$AAo?$AA?5?$AAF?$AAi?$AAn?$AAd?$AAR@ ; `string'
PUBLIC	??_C@_1FG@BBJFPKL@?$AAF?$AAa?$AAi?$AAl?$AAe?$AAd?$AA?5?$AAt?$AAo?$AA?5?$AAF?$AAi?$AAn?$AAd?$AAR@ ; `string'
PUBLIC	??_C@_1DA@KJKEAFMD@?$AAF?$AAa?$AAi?$AAl?$AAe?$AAd?$AA?5?$AAt?$AAo?$AA?5?$AAL?$AAo?$AAa?$AAd?$AAR@ ; `string'
PUBLIC	??_C@_1CK@BCPDHANH@?$AAM?$AAa?$AAp?$AA?5?$AAE?$AAn?$AAt?$AAr?$AAy?$AA?5?$AAn?$AAo?$AAt?$AA?5?$AAf@ ; `string'
PUBLIC	??_C@_1FI@KMIOGKOO@?$AAB?$AAo?$AAg?$AAu?$AAs?$AA?5?$AAv?$AAa?$AAl?$AAu?$AAe?$AA?5?$AA?$CF?$AAT?$AAc@ ; `string'
PUBLIC	?map@?1??HKeyFromString@CRegParser@ATL@@KAPAUHKEY__@@PA_W@Z@4QBUkeymap@?1??123@KAPAU4@0@Z@B ; `ATL::CRegParser::HKeyFromString'::`2'::map
PUBLIC	??_C@_19NCHLBIN@?$AAH?$AAK?$AAC?$AAR@		; `string'
PUBLIC	??_C@_19JAPAIJDE@?$AAH?$AAK?$AAC?$AAU@		; `string'
PUBLIC	??_C@_19PEALEEJB@?$AAH?$AAK?$AAL?$AAM@		; `string'
PUBLIC	??_C@_17PJOJPMPB@?$AAH?$AAK?$AAU@		; `string'
PUBLIC	??_C@_19PNBHMJPL@?$AAH?$AAK?$AAP?$AAD@		; `string'
PUBLIC	??_C@_19GFFAIJHG@?$AAH?$AAK?$AAD?$AAD@		; `string'
PUBLIC	??_C@_19OFICIBHH@?$AAH?$AAK?$AAC?$AAC@		; `string'
PUBLIC	??_C@_1CE@PACHPJFI@?$AAH?$AAK?$AAE?$AAY?$AA_?$AAC?$AAL?$AAA?$AAS?$AAS?$AAE?$AAS?$AA_?$AAR?$AAO@ ; `string'
PUBLIC	??_C@_1CE@HLHNCBPM@?$AAH?$AAK?$AAE?$AAY?$AA_?$AAC?$AAU?$AAR?$AAR?$AAE?$AAN?$AAT?$AA_?$AAU?$AAS@ ; `string'
PUBLIC	??_C@_1CG@GFBEANJL@?$AAH?$AAK?$AAE?$AAY?$AA_?$AAL?$AAO?$AAC?$AAA?$AAL?$AA_?$AAM?$AAA?$AAC?$AAH@ ; `string'
PUBLIC	??_C@_1BG@BGODANIO@?$AAH?$AAK?$AAE?$AAY?$AA_?$AAU?$AAS?$AAE?$AAR?$AAS@ ; `string'
PUBLIC	??_C@_1CM@KHNNAOIC@?$AAH?$AAK?$AAE?$AAY?$AA_?$AAP?$AAE?$AAR?$AAF?$AAO?$AAR?$AAM?$AAA?$AAN?$AAC@ ; `string'
PUBLIC	??_C@_1BM@HAGMMHIA@?$AAH?$AAK?$AAE?$AAY?$AA_?$AAD?$AAY?$AAN?$AA_?$AAD?$AAA?$AAT?$AAA@ ; `string'
PUBLIC	??_C@_1CI@BBJOACGG@?$AAH?$AAK?$AAE?$AAY?$AA_?$AAC?$AAU?$AAR?$AAR?$AAE?$AAN?$AAT?$AA_?$AAC?$AAO@ ; `string'
PUBLIC	??_C@_1EI@CDDJHMMA@?$AAN?$AAe?$AAx?$AAt?$AAT?$AAo?$AAk?$AAe?$AAn?$AA?5?$AA?3?$AA?5?$AAU?$AAn?$AAe@ ; `string'
PUBLIC	??_C@_1DA@BDBPEMM@?$AA?$CF?$AAT?$AAs?$AA?5?$AAT?$AAy?$AAp?$AAe?$AA?5?$AAn?$AAo?$AAt?$AA?5?$AAs?$AAu@ ; `string'
PUBLIC	??_C@_1BA@HANLFFFG@?$AAd?$AAe?$AAf?$AAa?$AAu?$AAl?$AAt@ ; `string'
PUBLIC	??_C@_1DE@GENBDOHF@?$AAS?$AAe?$AAt?$AAt?$AAi?$AAn?$AAg?$AA?5?$AAV?$AAa?$AAl?$AAu?$AAe?$AA?5?$AA?$CF@ ; `string'
PUBLIC	??_C@_1DC@OPMJCKIB@?$AAS?$AAe?$AAt?$AAt?$AAi?$AAn?$AAg?$AA?5?$AAV?$AAa?$AAl?$AAu?$AAe?$AA?5?$AA?$CF@ ; `string'
PUBLIC	??_C@_1FK@OIDGAAMP@?$AAB?$AAi?$AAn?$AAa?$AAr?$AAy?$AA?5?$AAD?$AAa?$AAt?$AAa?$AA?5?$AAd?$AAo?$AAe@ ; `string'
PUBLIC	??_C@_1CM@LNIALBHN@?$AAS?$AAh?$AAo?$AAu?$AAl?$AAd?$AA?5?$AAn?$AAo?$AAt?$AA?5?$AAb?$AAe?$AA?5?$AAh@ ; `string'
PUBLIC	??_C@_1BK@ODFKMBGC@?$AAl?$AAp?$AAs?$AAz?$AAR?$AAe?$AAg?$AA?5?$AA?$CB?$AA?$DN?$AA?5?$AA0@ ; `string'
PUBLIC	??_C@_1BK@DGLFCBHI@?$AAp?$AAp?$AAs?$AAz?$AAR?$AAe?$AAg?$AA?5?$AA?$CB?$AA?$DN?$AA?5?$AA0@ ; `string'
PUBLIC	??_C@_1EA@NHKLICFA@?$AAH?$AAK?$AAC?$AAU?$AA?$AN?$AA?6?$AA?$HL?$AA?7?$AAS?$AAo?$AAf?$AAt?$AAw?$AAa?$AAr@ ; `string'
PUBLIC	??_C@_1BE@LJOLIMEM@?$AA?$AN?$AA?6?$AA?7?$AA?$HN?$AA?$AN?$AA?6?$AA?$HN?$AA?$AN?$AA?6@ ; `string'
PUBLIC	??_C@_1DG@KOLNJMBJ@?$AAE?$AAr?$AAr?$AAo?$AAr?$AA?5?$AAn?$AAo?$AA?5?$AAc?$AAl?$AAo?$AAs?$AAi?$AAn@ ; `string'
PUBLIC	??_C@_19IGGGDNCK@?$AA?$CF?$AAT?$AAs?$AA?6@	; `string'
PUBLIC	??_C@_1DM@JFHAPNGI@?$AAH?$AAK?$AAe?$AAy?$AAF?$AAr?$AAo?$AAm?$AAS?$AAt?$AAr?$AAi?$AAn?$AAg?$AA?5@ ; `string'
PUBLIC	??_C@_1FE@MCPBFDLN@?$AAS?$AAy?$AAn?$AAt?$AAa?$AAx?$AA?5?$AAe?$AAr?$AAr?$AAo?$AAr?$AA?0?$AA?5?$AAe@ ; `string'
PUBLIC	??_C@_1EE@EMAKHHOG@?$AAF?$AAa?$AAi?$AAl?$AAe?$AAd?$AA?5?$AAt?$AAo?$AA?5?$AAr?$AAe?$AAg?$AAi?$AAs@ ; `string'
PUBLIC	??_C@_1BM@KJDIPNJ@?$AAN?$AAu?$AAm?$AA?5?$AAE?$AAl?$AAs?$AA?5?$AA?$DN?$AA?5?$AA?$CF?$AAd?$AA?6@ ; `string'
PUBLIC	??_C@_1BM@BEOOHDFB@?$AAD?$AAe?$AAl?$AAe?$AAt?$AAi?$AAn?$AAg?$AA?5?$AA?$CF?$AAT?$AAs?$AA?6@ ; `string'
PUBLIC	??_C@_1CE@NOBELHPC@?$AAC?$AAr?$AAe?$AAa?$AAt?$AAi?$AAn?$AAg?$AA?5?$AAk?$AAe?$AAy?$AA?5?$AA?$CF?$AAT@ ; `string'
PUBLIC	??_C@_1CA@MKECKMBH@?$AAO?$AAp?$AAe?$AAn?$AAe?$AAd?$AA?5?$AAK?$AAe?$AAy?$AA?5?$AA?$CF?$AAT?$AAs?$AA?6@ ; `string'
PUBLIC	??_C@_1FK@OAJHMKAA@?$AAI?$AAg?$AAn?$AAo?$AAr?$AAi?$AAn?$AAg?$AA?5?$AAO?$AAp?$AAe?$AAn?$AA?5?$AAk@ ; `string'
PUBLIC	??_C@_1CM@OHCCCDHD@?$AAE?$AAn?$AAd?$AAi?$AAn?$AAg?$AA?5?$AAR?$AAe?$AAc?$AAo?$AAv?$AAe?$AAr?$AAy@ ; `string'
PUBLIC	??_C@_1FA@ECAJCMBE@?$AAD?$AAe?$AAl?$AAe?$AAt?$AAi?$AAn?$AAg?$AA?5?$AAn?$AAo?$AAn?$AA?9?$AAe?$AAm@ ; `string'
PUBLIC	??_C@_1CE@OGJGDPFE@?$AAD?$AAe?$AAl?$AAe?$AAt?$AAi?$AAn?$AAg?$AA?5?$AAK?$AAe?$AAy?$AA?5?$AA?$CF?$AAT@ ; `string'
PUBLIC	??_C@_1DC@HEJCCJC@?$AA0?$AA?5?$AA?$CB?$AA?$DN?$AA?5?$AAp?$AAM?$AAa?$AAp?$AAE?$AAn?$AAt?$AAr?$AAi?$AAe@ ; `string'
PUBLIC	??_C@_1O@MNLDABAF@?$AAM?$AAo?$AAd?$AAu?$AAl?$AAe@ ; `string'
PUBLIC	??_C@_1BG@JBACFMF@?$AAM?$AAo?$AAd?$AAu?$AAl?$AAe?$AA_?$AAR?$AAa?$AAw@ ; `string'
PUBLIC	??_C@_1BC@KAILKFFG@?$AAR?$AAE?$AAG?$AAI?$AAS?$AAT?$AAR?$AAY@ ; `string'
PUBLIC	??_C@_11LOCGONAA@@				; `string'
PUBLIC	??_C@_1EC@GOCPDDCL@?$AAp?$AAb?$AAs?$AAt?$AAr?$AAP?$AAa?$AAt?$AAh?$AA?5?$AA?$CB?$AA?$DN?$AA?5?$AA0?$AA?5@ ; `string'
PUBLIC	??_C@_1CE@MNLFIKHJ@?$AAh?$AAI?$AAn?$AAs?$AAt?$AAT?$AAy?$AAp?$AAe?$AAL?$AAi?$AAb?$AA?5?$AA?$CB?$AA?$DN@ ; `string'
PUBLIC	??_C@_19ILOCMLCJ@?$AA?4?$AAt?$AAl?$AAb@		; `string'
PUBLIC	__GUID_0002e012_0000_0000_c000_000000000046
PUBLIC	??_C@_1OK@NEECLFPA@?$AA0?$AA?5?$AA?$CG?$AA?$CG?$AA?5?$AAL?$AA?$CC?$AAU?$AAs?$AAe?$AA?5?$AAO?$AAB?$AAJ?$AAE@ ; `string'
PUBLIC	??_C@_1CG@IDMIONOG@?$AAp?$AAE?$AAn?$AAt?$AAr?$AAy?$AA?9?$AA?$DO?$AAi?$AAT?$AAy?$AAp?$AAe?$AA?5?$AA?$DN@ ; `string'
PUBLIC	??_C@_1O@FHBGLCIO@?$AAC?$AAL?$AAS?$AAI?$AAD?$AA?2@ ; `string'
PUBLIC	??_C@_1CK@IFBKBFAA@?$AA?2?$AAR?$AAe?$AAq?$AAu?$AAi?$AAr?$AAe?$AAd?$AA?5?$AAC?$AAa?$AAt?$AAe?$AAg@ ; `string'
PUBLIC	??_C@_1DA@BIHALFED@?$AA?2?$AAI?$AAm?$AAp?$AAl?$AAe?$AAm?$AAe?$AAn?$AAt?$AAe?$AAd?$AA?5?$AAC?$AAa@ ; `string'
PUBLIC	??_C@_1BK@EDKOLFBJ@?$AAO?$AAL?$AAE?$AAA?$AAU?$AAT?$AA3?$AA2?$AA?4?$AAD?$AAL?$AAL@ ; `string'
PUBLIC	??_C@_0BJ@CNLFOMHB@UnRegisterTypeLibForUser@	; `string'
PUBLIC	??_C@_0BH@LBOMMKPJ@RegisterTypeLibForUser@	; `string'
PUBLIC	??_C@_1CA@GAOMIJFK@?$AAp?$AAC?$AAo?$AAm?$AAM?$AAo?$AAd?$AAu?$AAl?$AAe?$AA?5?$AA?$CB?$AA?$DN?$AA?5?$AA0@ ; `string'
PUBLIC	??_C@_1EA@JIHAIGJA@?$AAp?$AAC?$AAo?$AAm?$AAM?$AAo?$AAd?$AAu?$AAl?$AAe?$AA?9?$AA?$DO?$AAm?$AA_?$AAh@ ; `string'
PUBLIC	??_C@_1IO@OONIPMJC@?$AAE?$AAR?$AAR?$AAO?$AAR?$AA?5?$AA?3?$AA?5?$AAU?$AAn?$AAa?$AAb?$AAl?$AAe?$AA?5@ ; `string'
PUBLIC	__GUID_b196b284_bab4_101a_b69c_00aa00341d07
PUBLIC	??_C@_1IO@BDEIDBOP@?$AAE?$AAR?$AAR?$AAO?$AAR?$AA?5?$AA?3?$AA?5?$AAU?$AAn?$AAa?$AAb?$AAl?$AAe?$AA?5@ ; `string'
PUBLIC	??_C@_1BG@PEGMCOIG@?$AAp?$AAT?$AAh?$AAi?$AAs?$AA?5?$AA?$CB?$AA?$DN?$AA?5?$AA0@ ; `string'
PUBLIC	??_C@_1BK@ENABKMAI@?$AAp?$AAE?$AAn?$AAt?$AAr?$AAi?$AAe?$AAs?$AA?$CB?$AA?$DN?$AA?5?$AA0@ ; `string'
PUBLIC	??_C@_1GE@KALDMMBC@?$AAp?$AAE?$AAn?$AAt?$AAr?$AAi?$AAe?$AAs?$AA?9?$AA?$DO?$AAp?$AAF?$AAu?$AAn?$AAc@ ; `string'
PUBLIC	??_C@_1BA@JJDNGNLN@?$AA?$CB?$AAb?$AAB?$AAl?$AAi?$AAn?$AAd@ ; `string'
PUBLIC	??_C@_1DG@BEGLAIHK@?$AAp?$AAD?$AAa?$AAt?$AAa?$AA?5?$AA?$CB?$AA?$DN?$AA?5?$AA0?$AA?5?$AA?$CG?$AA?$CG?$AA?5?$AAp@ ; `string'
PUBLIC	??_C@_1JC@NCPNLOIP@?$AAE?$AAR?$AAR?$AAO?$AAR?$AA?5?$AA?3?$AA?5?$AAU?$AAn?$AAa?$AAb?$AAl?$AAe?$AA?5@ ; `string'
PUBLIC	??_C@_1JK@PCFOBMDH@?$AAE?$AAR?$AAR?$AAO?$AAR?$AA?5?$AA?3?$AA?5?$AAU?$AAn?$AAa?$AAb?$AAl?$AAe?$AA?5@ ; `string'
PUBLIC	??_C@_1IG@OPJAFKJH@?$AAE?$AAR?$AAR?$AAO?$AAR?$AA?5?$AA?3?$AA?5?$AAU?$AAn?$AAa?$AAb?$AAl?$AAe?$AA?5@ ; `string'
PUBLIC	??_C@_1IC@DIIBMAJJ@?$AAE?$AAR?$AAR?$AAO?$AAR?$AA?5?$AA?3?$AA?5?$AAU?$AAn?$AAa?$AAb?$AAl?$AAe?$AA?5@ ; `string'
PUBLIC	?_Module@@3VCComModule@ATL@@A			; _Module
PUBLIC	??_C@_1FA@IGOCHCBG@?$AAC?$AA?3?$AA?2?$AAD?$AAe?$AAv?$AAe?$AAl?$AAo?$AAp?$AA?2?$AAO?$AAP?$AAO?$AAS@ ; `string'
PUBLIC	??_C@_1BO@IINBGKAE@?$AAp?$AAp?$AAv?$AAO?$AAb?$AAj?$AAe?$AAc?$AAt?$AA?5?$AA?$CB?$AA?$DN?$AA?5?$AA0@ ; `string'
PUBLIC	??_C@_1BK@MDGGGAPK@?$AAm?$AA_?$AAd?$AAw?$AAR?$AAe?$AAf?$AA?5?$AA?$DN?$AA?$DN?$AA?5?$AA0@ ; `string'
PUBLIC	??_C@_1BO@CFNLNIPO@?$AAm?$AA_?$AAd?$AAw?$AAR?$AAe?$AAf?$AA?5?$AA?$CB?$AA?$DN?$AA?5?$AA?9?$AA1?$AAL@ ; `string'
PUBLIC	??_C@_1IG@BMPHLDAM@?$AA0?$AA?5?$AA?$CG?$AA?$CG?$AA?5?$AAL?$AA?$CC?$AAR?$AAe?$AAl?$AAe?$AAa?$AAs?$AAe?$AA?5@ ; `string'
PUBLIC	??_7CComClassFactory@ATL@@6B@			; ATL::CComClassFactory::`vftable'
PUBLIC	??_C@_1HC@JLHBDINH@?$AA_?$AAG?$AAe?$AAt?$AAE?$AAn?$AAt?$AAr?$AAi?$AAe?$AAs?$AA?$CI?$AA?$CJ?$AA?$FL?$AA0@ ; `string'
PUBLIC	?_entries@?1??_GetEntries@CComClassFactory@ATL@@SGPBU_ATL_INTMAP_ENTRY@3@XZ@4QBU43@B ; `ATL::CComClassFactory::_GetEntries'::`2'::_entries
PUBLIC	__GUID_00000001_0000_0000_c000_000000000046
PUBLIC	??_C@_1CC@KFPLEHE@?$AAC?$AAC?$AAo?$AAm?$AAC?$AAl?$AAa?$AAs?$AAs?$AAF?$AAa?$AAc?$AAt?$AAo?$AAr@ ; `string'
PUBLIC	??_C@_1DC@ENLDIEGP@?$AAm?$AA_?$AAp?$AAf?$AAn?$AAC?$AAr?$AAe?$AAa?$AAt?$AAe?$AAI?$AAn?$AAs?$AAt@ ; `string'
PUBLIC	??_C@_0CI@CCPHDHJN@C?3?2Develop?2OPOS?9CCO?2Common?2ATL?2@ ; `string'
PUBLIC	??_C@_1KO@PPNHIIND@?$AAC?$AAC?$AAo?$AAm?$AAC?$AAl?$AAa?$AAs?$AAs?$AAF?$AAa?$AAc?$AAt?$AAo?$AAr@ ; `string'
PUBLIC	??_C@_1BI@MCKDPFMC@?$AAp?$AAp?$AAI?$AAn?$AAf?$AAo?$AA?5?$AA?$CB?$AA?$DN?$AA?5?$AA0@ ; `string'
PUBLIC	?s_Claim@?7??GetIDsOfNames@CComTypeInfoHolder@ATL@@QAEJABU_GUID@@PAPA_WIKPAJ@Z@4PA_WA ; `ATL::CComTypeInfoHolder::GetIDsOfNames'::`8'::s_Claim
PUBLIC	?s_Release@?7??GetIDsOfNames@CComTypeInfoHolder@ATL@@QAEJABU_GUID@@PAPA_WIKPAJ@Z@4PA_WA ; `ATL::CComTypeInfoHolder::GetIDsOfNames'::`8'::s_Release
PUBLIC	??_C@_1BA@CAHHGEAC@?$AAd?$AAw?$AA?5?$AA?$CB?$AA?$DN?$AA?5?$AA0@ ; `string'
PUBLIC	??_C@_1DM@FHENBGPF@?$AAm?$AA_?$AAp?$AAl?$AAi?$AAb?$AAi?$AAd?$AA?5?$AA?$CB?$AA?$DN?$AA?5?$AA0?$AA?5?$AA?$CG@ ; `string'
PUBLIC	??_C@_1IM@JHDEBJKA@?$AAE?$AAR?$AAR?$AAO?$AAR?$AA?5?$AA?3?$AA?5?$AAU?$AAn?$AAa?$AAb?$AAl?$AAe?$AA?5@ ; `string'
PUBLIC	??_C@_0DP@CJHCKAIL@Module?5LIBID?5not?5initialized?4?5S@ ; `string'
PUBLIC	??_C@_1NK@EGGIGGEE@?$AA?$CB?$AAI?$AAn?$AAl?$AAi?$AAn?$AAe?$AAI?$AAs?$AAE?$AAq?$AAu?$AAa?$AAl?$AAG@ ; `string'
PUBLIC	??_C@_1MK@MBBPECFK@?$AAW?$AAa?$AAr?$AAn?$AAi?$AAn?$AAg?$AA?5?$AA?3?$AA?5?$AAC?$AAC?$AAo?$AAm?$AAT@ ; `string'
PUBLIC	??_C@_1HK@IMBOLHFI@?$AA?7?$AAS?$AAe?$AAe?$AA?5?$AAI?$AAD?$AAi?$AAs?$AAp?$AAa?$AAt?$AAc?$AAh?$AAI@ ; `string'
PUBLIC	??_C@_1GM@JMFGIKJN@?$AAE?$AAR?$AAR?$AAO?$AAR?$AA?5?$AA?3?$AA?5?$AAU?$AAn?$AAa?$AAb?$AAl?$AAe?$AA?5@ ; `string'
PUBLIC	??_C@_1GI@KFOMLMHI@?$AA?7?$AAV?$AAe?$AAr?$AAi?$AAf?$AAy?$AA?5?$AAT?$AAy?$AAp?$AAe?$AAl?$AAi?$AAb@ ; `string'
PUBLIC	??_C@_1KC@EPBNKDJD@?$AA?7?$AAI?$AAD?$AAi?$AAs?$AAp?$AAa?$AAt?$AAc?$AAh?$AAI?$AAm?$AAp?$AAl?$AA?0@ ; `string'
PUBLIC	??_C@_1CE@GFEBMKPP@?$AAp?$AAp?$AAF?$AAi?$AAn?$AAd?$AA?5?$AA?$CG?$AA?$CG?$AA?5?$AA?$CK?$AAp?$AAp?$AAF?$AAi@ ; `string'
PUBLIC	??_C@_1FI@CDNFCAGD@?$AAd?$AAw?$AAC?$AAo?$AAo?$AAk?$AAi?$AAe?$AA?5?$AA?$CB?$AA?$DN?$AA?5?$AA0?$AA?5?$AA?$CG@ ; `string'
PUBLIC	??_C@_1EA@JHMKKLFC@?$AAn?$AAI?$AAn?$AAd?$AAe?$AAx?$AA?5?$AA?$DO?$AA?$DN?$AA?5?$AA0?$AA?5?$AA?$CG?$AA?$CG?$AA?5@ ; `string'
PUBLIC	??_C@_1EO@PKGIEOJK@?$AAi?$AAd?$AAx?$AA?5?$AA?$DM?$AA?5?$AAd?$AAw?$AAC?$AAo?$AAo?$AAk?$AAi?$AAe?$AA?5@ ; `string'
PUBLIC	__GUID_b196b287_bab4_101a_b69c_00aa00341d07
PUBLIC	__GUID_b196b285_bab4_101a_b69c_00aa00341d07
PUBLIC	??_C@_1BE@FKGJCHLP@?$AAp?$AAM?$AAa?$AAp?$AA?5?$AA?$CB?$AA?$DN?$AA?5?$AA0@ ; `string'
PUBLIC	??_C@_1GG@DILCHCCF@?$AAF?$AAa?$AAi?$AAl?$AAe?$AAd?$AA?5?$AAt?$AAo?$AA?5?$AAg?$AAe?$AAt?$AA?5?$AAa@ ; `string'
PUBLIC	??_C@_1DK@CIMELFNK@?$AAI?$AAn?$AAv?$AAo?$AAk?$AAe?$AAd?$AA?5?$AAf?$AAa?$AAi?$AAl?$AAe?$AAd?$AA?5@ ; `string'
PUBLIC	__GUID_a6bc3ac0_dbaa_11ce_9de3_00aa004bb851
PUBLIC	__GUID_0000010c_0000_0000_c000_000000000046
PUBLIC	??_C@_1OA@EJAAKNNE@?$AAC?$AA?3?$AA?2?$AAP?$AAr?$AAo?$AAg?$AAr?$AAa?$AAm?$AA?5?$AAF?$AAi?$AAl?$AAe@ ; `string'
PUBLIC	?rcDefault@CWindow@ATL@@2UtagRECT@@A		; ATL::CWindow::rcDefault
PUBLIC	??_C@_1CG@OFEMDDJL@?$AA?3?$AA?3?$AAI?$AAs?$AAW?$AAi?$AAn?$AAd?$AAo?$AAw?$AA?$CI?$AAm?$AA_?$AAh?$AAW@ ; `string'
PUBLIC	__GUID_00000114_0000_0000_c000_000000000046
PUBLIC	__GUID_922eada0_3424_11cf_b670_00aa004cd6d8
PUBLIC	__GUID_9c2cad80_3424_11cf_b670_00aa004cd6d8
PUBLIC	__GUID_00000119_0000_0000_c000_000000000046
PUBLIC	__GUID_b196b289_bab4_101a_b69c_00aa00341d07
PUBLIC	??_C@_1DK@DAANONID@?$AAI?$AAn?$AAv?$AAa?$AAl?$AAi?$AAd?$AA?5?$AAm?$AAe?$AAs?$AAs?$AAa?$AAg?$AAe@ ; `string'
PUBLIC	__GUID_00000117_0000_0000_c000_000000000046
PUBLIC	__GUID_0000010e_0000_0000_c000_000000000046
PUBLIC	__GUID_b196b288_bab4_101a_b69c_00aa00341d07
PUBLIC	__GUID_00000113_0000_0000_c000_000000000046
PUBLIC	__GUID_1c2056cc_5ef4_101b_8bc8_00aa003e3b29
PUBLIC	__GUID_00000112_0000_0000_c000_000000000046
PUBLIC	__GUID_3af24292_0c96_11ce_a0cf_00aa00600ab8
PUBLIC	__GUID_00000127_0000_0000_c000_000000000046
PUBLIC	__GUID_0000010d_0000_0000_c000_000000000046
PUBLIC	??_C@_1O@GBFKGNEO@?$AAA?$AAT?$AAL?$AA?3?$AA?$CF?$AAp@ ; `string'
PUBLIC	??_C@_19GCAABOFN@?$AAb?$AAR?$AAe?$AAt@		; `string'
PUBLIC	??_C@_1BA@PICGEGJB@?$AAD?$AAI?$AAS?$AAP?$AAL?$AAA?$AAY@ ; `string'
PUBLIC	??_C@_1BO@EKDDFOBL@?$AAh?$AAD?$AAC?$AAS?$AAc?$AAr?$AAe?$AAe?$AAn?$AA?5?$AA?$CB?$AA?$DN?$AA?5?$AA0@ ; `string'
PUBLIC	__GUID_9bfbbc02_eff1_101a_84ed_00aa00341d07
PUBLIC	??_C@_0HA@DOAAAKDA@C?3?2Program?5Files?5?$CIx86?$CJ?2Microsof@ ; `string'
PUBLIC	??_C@_1OA@NGGLHGHC@?$AAC?$AA?3?$AA?2?$AAP?$AAr?$AAo?$AAg?$AAr?$AAa?$AAm?$AA?5?$AAF?$AAi?$AAl?$AAe@ ; `string'
PUBLIC	??_C@_1IC@FBPLOGNL@?$AA?$CI?$AA?$CI?$AA?$CI?$AAH?$AAR?$AAE?$AAS?$AAU?$AAL?$AAT?$AA?$CJ?$AA?$CI?$AAh?$AAR?$AAe@ ; `string'
PUBLIC	??_C@_1CE@EIEAFJJI@?$AAv?$AAa?$AAr?$AA?4?$AAv?$AAt?$AA?5?$AA?$DN?$AA?$DN?$AA?5?$AAV?$AAT?$AA_?$AAB?$AAO@ ; `string'
PUBLIC	??_C@_1BO@NKNHJKPB@?$AAp?$AAp?$AAU?$AAn?$AAk?$AAS?$AAi?$AAt?$AAe?$AA?5?$AA?$CB?$AA?$DN?$AA?5?$AA0@ ; `string'
PUBLIC	__GUID_55980ba0_35aa_11cf_b671_00aa004cd6d8
PUBLIC	??_C@_1BK@IELOKEDE@?$AAp?$AAQ?$AAA?$AAC?$AAo?$AAn?$AAt?$AA?5?$AA?$CB?$AA?$DN?$AA?5?$AA0@ ; `string'
PUBLIC	??_C@_1BK@EDCEEEEO@?$AAp?$AAQ?$AAA?$AAC?$AAt?$AAr?$AAl?$AA?5?$AA?$CB?$AA?$DN?$AA?5?$AA0@ ; `string'
PUBLIC	??_C@_1DM@NOHFMFHB@?$AAS?$AAe?$AAt?$AAt?$AAi?$AAn?$AAg?$AA?5?$AAu?$AAp?$AA?5?$AAI?$AAO?$AAl?$AAe@ ; `string'
PUBLIC	??_C@_1DE@OCCEGLFH@?$AAS?$AAe?$AAt?$AAt?$AAi?$AAn?$AAg?$AA?5?$AAu?$AAp?$AA?5?$AAP?$AAr?$AAo?$AAp@ ; `string'
PUBLIC	??_C@_1FA@GGGGDGB@?$AAS?$AAe?$AAt?$AAt?$AAi?$AAn?$AAg?$AA?5?$AAu?$AAp?$AA?5?$AAD?$AAe?$AAf?$AAa@ ; `string'
PUBLIC	__GUID_b196b28b_bab4_101a_b69c_00aa00341d07
PUBLIC	??_C@_1BE@MEPLLFBA@?$AAp?$AAU?$AAn?$AAk?$AA?5?$AA?$CB?$AA?$DN?$AA?5?$AA0@ ; `string'
PUBLIC	??_C@_1BE@PDPDNEIJ@?$AAp?$AAI?$AAP?$AAO?$AA?5?$AA?$CB?$AA?$DN?$AA?5?$AA0@ ; `string'
PUBLIC	??_C@_1CA@IIDAJDHP@?$AAm?$AA_?$AAs?$AAp?$AAI?$AAn?$AAP?$AAl?$AAa?$AAc?$AAe?$AAS?$AAi?$AAt?$AAe@ ; `string'
PUBLIC	??_C@_1O@MACBBPAK@?$AAh?$AA?5?$AA?$CB?$AA?$DN?$AA?5?$AA0@ ; `string'
PUBLIC	??_C@_1BM@HHHJIMDE@?$AAh?$AA?5?$AA?$DN?$AA?$DN?$AA?5?$AAm?$AA_?$AAh?$AAW?$AAn?$AAd?$AAC?$AAD@ ; `string'
PUBLIC	??_C@_1FA@MLHHLKCI@?$AAp?$AAC?$AAl?$AAi?$AAe?$AAn?$AAt?$AAS?$AAi?$AAt?$AAe?$AA?5?$AA?$DN?$AA?$DN?$AA?5@ ; `string'
PUBLIC	??_C@_1BK@CEDNNLJH@?$AAp?$AAp?$AAC?$AAl?$AAi?$AAe?$AAn?$AAt?$AAS?$AAi?$AAt?$AAe@ ; `string'
PUBLIC	??_C@_1CE@OHCDIKPM@?$AA?$CB?$AAm?$AA_?$AAb?$AAI?$AAn?$AAP?$AAl?$AAa?$AAc?$AAe?$AAA?$AAc?$AAt?$AAi@ ; `string'
PUBLIC	??_C@_1CG@KJDDPODI@?$AAD?$AAe?$AAs?$AAt?$AAr?$AAo?$AAy?$AAi?$AAn?$AAg?$AA?5?$AAW?$AAi?$AAn?$AAd@ ; `string'
PUBLIC	??_C@_1GK@PEJLBIEI@?$AAD?$AAr?$AAa?$AAw?$AA?5?$AAd?$AAw?$AAD?$AAr?$AAa?$AAw?$AAA?$AAs?$AAp?$AAe@ ; `string'
PUBLIC	??_C@_1CC@KIMLOMB@?$AA?7?$AAp?$AAr?$AAc?$AAB?$AAo?$AAu?$AAn?$AAd?$AAs?$AA?$DN?$AAN?$AAU?$AAL?$AAL@ ; `string'
PUBLIC	??_C@_1DA@MIJFAJLJ@?$AA?7?$AAp?$AAr?$AAc?$AAB?$AAo?$AAu?$AAn?$AAd?$AAs?$AA?$DN?$AA?$CF?$AAd?$AA?0?$AA?$CF@ ; `string'
PUBLIC	??_C@_1CE@LIAGMDDA@?$AA?7?$AAp?$AAr?$AAc?$AAW?$AAB?$AAo?$AAu?$AAn?$AAd?$AAs?$AA?$DN?$AAN?$AAU?$AAL@ ; `string'
PUBLIC	??_C@_1DC@EMEJOIFB@?$AA?7?$AAp?$AAr?$AAc?$AAW?$AAB?$AAo?$AAu?$AAn?$AAd?$AAs?$AA?$DN?$AA?$CF?$AAd?$AA?0@ ; `string'
PUBLIC	??_C@_1BK@POAAPOBL@?$AAF?$AAo?$AAr?$AAm?$AAa?$AAt?$AA?5?$AA?$DN?$AA?5?$AA?$CF?$AAx?$AA?6@ ; `string'
PUBLIC	??_C@_1BI@LHCJEHBH@?$AAT?$AAY?$AAM?$AAE?$AAD?$AA?5?$AA?$DN?$AA?5?$AA?$CF?$AAx?$AA?6@ ; `string'
PUBLIC	?_tih@?$IDispatchImpl@UIOPOSGestureControl@@$1?IID_IOPOSGestureControl@@3U_GUID@@B$1?LIBID_OposGestureControl_CCO@@3U3@B$00$0A@VCComTypeInfoHolder@ATL@@@ATL@@1VCComTypeInfoHolder@2@A ; ATL::IDispatchImpl<IOPOSGestureControl,&IID_IOPOSGestureControl,&LIBID_OposGestureControl_CCO,1,0,ATL::CComTypeInfoHolder>::_tih
PUBLIC	?pConnMap@?$IConnectionPointContainerImpl@VCOPOSGestureControl@@@ATL@@0PBU_ATL_CONNMAP_ENTRY@2@B ; ATL::IConnectionPointContainerImpl<COPOSGestureControl>::pConnMap
PUBLIC	?_tih@?$IProvideClassInfo2Impl@$1?CLSID_OPOSGestureControl@@3U_GUID@@B$1?DIID__IOPOSGestureControlEvents@@3U2@B$1?LIBID_OposGestureControl_CCO@@3U2@B$00$0A@VCComTypeInfoHolder@ATL@@@ATL@@1VCComTypeInfoHolder@2@A ; ATL::IProvideClassInfo2Impl<&CLSID_OPOSGestureControl,&DIID__IOPOSGestureControlEvents,&LIBID_OposGestureControl_CCO,1,0,ATL::CComTypeInfoHolder>::_tih
PUBLIC	??_C@_1HC@PBALCFGB@?$AAC?$AA?3?$AA?2?$AAD?$AAe?$AAv?$AAe?$AAl?$AAo?$AAp?$AA?2?$AAO?$AAP?$AAO?$AAS@ ; `string'
PUBLIC	?_entries@?1??_GetEntries@COPOSGestureControl@@SGPBU_ATL_INTMAP_ENTRY@ATL@@XZ@4QBU34@B ; `COPOSGestureControl::_GetEntries'::`2'::_entries
PUBLIC	__GUID_cf51ed10_62fe_11cf_bf86_00a0c9034836
PUBLIC	__GUID_0000010a_0000_0000_c000_000000000046
PUBLIC	__GUID_b196b283_bab4_101a_b69c_00aa00341d07
PUBLIC	__GUID_cb5bdc81_93c1_11cf_8f20_00805f2cd064
PUBLIC	??_C@_1CI@KJKGOLOJ@?$AAC?$AAO?$AAP?$AAO?$AAS?$AAG?$AAe?$AAs?$AAt?$AAu?$AAr?$AAe?$AAC?$AAo?$AAn@ ; `string'
PUBLIC	?pPropMap@?1??GetPropertyMap@COPOSGestureControl@@SAPBUATL_PROPMAP_ENTRY@ATL@@XZ@4QBU34@B ; `COPOSGestureControl::GetPropertyMap'::`2'::pPropMap
PUBLIC	??_C@_17DGDADEHL@?$AA_?$AAc?$AAx@		; `string'
PUBLIC	??_C@_17IOIMFDBO@?$AA_?$AAc?$AAy@		; `string'
PUBLIC	?_entries@?1??GetConnMap@COPOSGestureControl@@SAPBU_ATL_CONNMAP_ENTRY@ATL@@PAH@Z@4QBU34@B ; `COPOSGestureControl::GetConnMap'::`2'::_entries
PUBLIC	?$TSS0@?1??GetConnMap@COPOSGestureControl@@SAPBU_ATL_CONNMAP_ENTRY@ATL@@PAH@Z@4HA ; `COPOSGestureControl::GetConnMap'::`2'::$TSS0
PUBLIC	??_C@_0DJ@ECLACHDO@C?3?2Develop?2OPOS?9CCO?2zGestureCon@ ; `string'
PUBLIC	??_C@_1GA@DMLHJIOB@?$AA?$CL?$AAD?$AAi?$AAr?$AAe?$AAc?$AAt?$AAI?$AAO?$AAE?$AAv?$AAe?$AAn?$AAt?$AA?3@ ; `string'
PUBLIC	??_C@_1BI@KGBJECC@?$AA?5?$AA?5?$AA?5?$AA?5?$AAS?$AAt?$AAr?$AAi?$AAn?$AAg?$AA?4@ ; `string'
PUBLIC	??_C@_1GC@IKMABJEN@?$AA?9?$AAD?$AAi?$AAr?$AAe?$AAc?$AAt?$AAI?$AAO?$AAE?$AAv?$AAe?$AAn?$AAt?$AA?3@ ; `string'
PUBLIC	??_C@_1DO@FFEJMENC@?$AA?9?$AAD?$AAi?$AAr?$AAe?$AAc?$AAt?$AAI?$AAO?$AAE?$AAv?$AAe?$AAn?$AAt?$AA?3@ ; `string'
PUBLIC	??_C@_1HG@FBPJDKIH@?$AA?$CL?$AAE?$AAr?$AAr?$AAo?$AAr?$AAE?$AAv?$AAe?$AAn?$AAt?$AA?3?$AA?5?$AAR?$AAC@ ; `string'
PUBLIC	??_C@_1DC@PMEACJIH@?$AA?9?$AAE?$AAr?$AAr?$AAo?$AAr?$AAE?$AAv?$AAe?$AAn?$AAt?$AA?3?$AA?5?$AAR?$AAe@ ; `string'
PUBLIC	??_C@_1EE@DPNPCNOD@?$AA?$CL?$AAO?$AAu?$AAt?$AAp?$AAu?$AAt?$AAC?$AAo?$AAm?$AAp?$AAl?$AAe?$AAt?$AAe@ ; `string'
PUBLIC	??_C@_1CK@BBCBFAGA@?$AA?9?$AAO?$AAu?$AAt?$AAp?$AAu?$AAt?$AAC?$AAo?$AAm?$AAp?$AAl?$AAe?$AAt?$AAe@ ; `string'
PUBLIC	??_C@_1DI@OMBDAFMJ@?$AA?$CL?$AAS?$AAt?$AAa?$AAt?$AAu?$AAs?$AAU?$AAp?$AAd?$AAa?$AAt?$AAe?$AAE?$AAv@ ; `string'
PUBLIC	??_C@_1CG@NFFONGGK@?$AA?9?$AAS?$AAt?$AAa?$AAt?$AAu?$AAs?$AAU?$AAp?$AAd?$AAa?$AAt?$AAe?$AAE?$AAv@ ; `string'
PUBLIC	??_C@_1CG@BBHLCHLH@?$AA?$CL?$AAD?$AAo?$AAE?$AAv?$AAe?$AAn?$AAt?$AA?3?$AA?5?$AAM?$AAs?$AAg?$AA?5?$AA0@ ; `string'
PUBLIC	??_C@_1EO@NLBACKII@?$AA?$CK?$AAD?$AAo?$AAE?$AAv?$AAe?$AAn?$AAt?$AA?3?$AA?5?$AAP?$AAo?$AAs?$AAt?$AAi@ ; `string'
PUBLIC	??_C@_1CG@IKKLCHHJ@?$AA?9?$AAD?$AAo?$AAE?$AAv?$AAe?$AAn?$AAt?$AA?3?$AA?5?$AAM?$AAs?$AAg?$AA?5?$AA0@ ; `string'
PUBLIC	??_C@_1BC@MNKGOHDN@?$AAp?$AAp?$AAv?$AA?5?$AA?$CB?$AA?$DN?$AA?5?$AA0@ ; `string'
PUBLIC	??_7?$CComObjectCached@VCComClassFactory@ATL@@@ATL@@6B@ ; ATL::CComObjectCached<ATL::CComClassFactory>::`vftable'
PUBLIC	??_C@_1CO@NKNAIIAP@?$AA?$CK?$AAU?$AAn?$AAa?$AAd?$AAv?$AAi?$AAs?$AAe?$AA?3?$AA?5?$AAC?$AAo?$AAo?$AAk@ ; `string'
PUBLIC	??_C@_1EA@IMKHEMDJ@?$AA?$CK?$AAA?$AAd?$AAv?$AAi?$AAs?$AAe?$AA?3?$AA?5?$AAS?$AAi?$AAn?$AAk?$AA?5?$AA0@ ; `string'
PUBLIC	??_C@_1CE@PGFMOFKI@?$AAS?$AAt?$AAa?$AAt?$AAu?$AAs?$AAU?$AAp?$AAd?$AAa?$AAt?$AAe?$AAE?$AAv?$AAe@ ; `string'
PUBLIC	??_C@_1CI@HLBJDONE@?$AAO?$AAu?$AAt?$AAp?$AAu?$AAt?$AAC?$AAo?$AAm?$AAp?$AAl?$AAe?$AAt?$AAe?$AAE@ ; `string'
PUBLIC	??_C@_1BG@LODEBHDD@?$AAE?$AAr?$AAr?$AAo?$AAr?$AAE?$AAv?$AAe?$AAn?$AAt@ ; `string'
PUBLIC	??_C@_1BM@CBGEBBBJ@?$AAD?$AAi?$AAr?$AAe?$AAc?$AAt?$AAI?$AAO?$AAE?$AAv?$AAe?$AAn?$AAt@ ; `string'
PUBLIC	__GUID_b196b286_bab4_101a_b69c_00aa00341d07
PUBLIC	??_C@_1FM@CLKMPFGJ@?$AAI?$AAO?$AAb?$AAj?$AAe?$AAc?$AAt?$AAS?$AAa?$AAf?$AAe?$AAt?$AAy?$AAI?$AAm@ ; `string'
PUBLIC	??_C@_1FM@DHGAMINB@?$AAI?$AAO?$AAb?$AAj?$AAe?$AAc?$AAt?$AAS?$AAa?$AAf?$AAe?$AAt?$AAy?$AAI?$AAm@ ; `string'
PUBLIC	??_C@_1DM@FNLPENOI@?$AAI?$AAD?$AAa?$AAt?$AAa?$AAO?$AAb?$AAj?$AAe?$AAc?$AAt?$AAI?$AAm?$AAp?$AAl@ ; `string'
PUBLIC	??_C@_1CE@PHHHDEOE@?$AAp?$AAp?$AAe?$AAn?$AAu?$AAm?$AAA?$AAd?$AAv?$AAi?$AAs?$AAe?$AA?5?$AA?$CB?$AA?$DN@ ; `string'
PUBLIC	??_C@_1DI@BLCCNEGF@?$AAI?$AAD?$AAa?$AAt?$AAa?$AAO?$AAb?$AAj?$AAe?$AAc?$AAt?$AAI?$AAm?$AAp?$AAl@ ; `string'
PUBLIC	??_C@_1DE@GIJAFMDC@?$AAI?$AAD?$AAa?$AAt?$AAa?$AAO?$AAb?$AAj?$AAe?$AAc?$AAt?$AAI?$AAm?$AAp?$AAl@ ; `string'
PUBLIC	??_C@_1DO@IJEOKODF@?$AAI?$AAD?$AAa?$AAt?$AAa?$AAO?$AAb?$AAj?$AAe?$AAc?$AAt?$AAI?$AAm?$AAp?$AAl@ ; `string'
PUBLIC	??_C@_1DC@EJMOFAGB@?$AAI?$AAD?$AAa?$AAt?$AAa?$AAO?$AAb?$AAj?$AAe?$AAc?$AAt?$AAI?$AAm?$AAp?$AAl@ ; `string'
PUBLIC	??_C@_1EO@CPLAMLOM@?$AAI?$AAD?$AAa?$AAt?$AAa?$AAO?$AAb?$AAj?$AAe?$AAc?$AAt?$AAI?$AAm?$AAp?$AAl@ ; `string'
PUBLIC	??_C@_1DM@BPNENJGE@?$AAI?$AAD?$AAa?$AAt?$AAa?$AAO?$AAb?$AAj?$AAe?$AAc?$AAt?$AAI?$AAm?$AAp?$AAl@ ; `string'
PUBLIC	??_C@_1DK@IIMKPHM@?$AAI?$AAD?$AAa?$AAt?$AAa?$AAO?$AAb?$AAj?$AAe?$AAc?$AAt?$AAI?$AAm?$AAp?$AAl@ ; `string'
PUBLIC	??_C@_1DE@FNDLCJKG@?$AAI?$AAD?$AAa?$AAt?$AAa?$AAO?$AAb?$AAj?$AAe?$AAc?$AAt?$AAI?$AAm?$AAp?$AAl@ ; `string'
PUBLIC	??_C@_1EM@OECHILCB@?$AAI?$AAQ?$AAu?$AAi?$AAc?$AAk?$AAA?$AAc?$AAt?$AAi?$AAv?$AAa?$AAt?$AAe?$AAI@ ; `string'
PUBLIC	??_C@_1EM@DNDGLBOK@?$AAI?$AAQ?$AAu?$AAi?$AAc?$AAk?$AAA?$AAc?$AAt?$AAi?$AAv?$AAa?$AAt?$AAe?$AAI@ ; `string'
PUBLIC	??_C@_1EG@OOLJNHOI@?$AAI?$AAQ?$AAu?$AAi?$AAc?$AAk?$AAA?$AAc?$AAt?$AAi?$AAv?$AAa?$AAt?$AAe?$AAI@ ; `string'
PUBLIC	??_C@_1EK@IMECMPEJ@?$AAI?$AAS?$AAp?$AAe?$AAc?$AAi?$AAf?$AAy?$AAP?$AAr?$AAo?$AAp?$AAe?$AAr?$AAt@ ; `string'
PUBLIC	??_C@_1EM@MKDPAIHC@?$AAI?$AAP?$AAe?$AAr?$AAs?$AAi?$AAs?$AAt?$AAS?$AAt?$AAo?$AAr?$AAa?$AAg?$AAe@ ; `string'
PUBLIC	??_C@_1EI@KGLFIEKA@?$AAI?$AAP?$AAe?$AAr?$AAs?$AAi?$AAs?$AAt?$AAS?$AAt?$AAo?$AAr?$AAa?$AAg?$AAe@ ; `string'
PUBLIC	?vszContents@?6??Save@?$IPersistStorageImpl@VCOPOSGestureControl@@@ATL@@UAGJPAUIStorage@@H@Z@4PB_WB ; `ATL::IPersistStorageImpl<COPOSGestureControl>::Save'::`7'::vszContents
PUBLIC	??_C@_1BC@ENICKDH@?$AAC?$AAo?$AAn?$AAt?$AAe?$AAn?$AAt?$AAs@ ; `string'
PUBLIC	??_C@_1DG@LDJFMFDF@?$AAI?$AAP?$AAe?$AAr?$AAs?$AAi?$AAs?$AAt?$AAS?$AAt?$AAo?$AAr?$AAa?$AAg?$AAe@ ; `string'
PUBLIC	??_C@_1DG@GOPCGMJM@?$AAI?$AAP?$AAe?$AAr?$AAs?$AAi?$AAs?$AAt?$AAS?$AAt?$AAo?$AAr?$AAa?$AAg?$AAe@ ; `string'
PUBLIC	??_C@_1DM@FLFDKDNG@?$AAI?$AAP?$AAe?$AAr?$AAs?$AAi?$AAs?$AAt?$AAS?$AAt?$AAo?$AAr?$AAa?$AAg?$AAe@ ; `string'
PUBLIC	??_C@_1DM@KEMDAJPD@?$AAI?$AAP?$AAe?$AAr?$AAs?$AAi?$AAs?$AAt?$AAS?$AAt?$AAo?$AAr?$AAa?$AAg?$AAe@ ; `string'
PUBLIC	??_C@_1EC@CBCJOIPD@?$AAI?$AAP?$AAe?$AAr?$AAs?$AAi?$AAs?$AAt?$AAS?$AAt?$AAo?$AAr?$AAa?$AAg?$AAe@ ; `string'
PUBLIC	??_7?$CComObject@V?$CComEnum@UIEnumConnectionPoints@@$1?_GUID_b196b285_bab4_101a_b69c_00aa00341d07@@3U__s_GUID@@BPAUIConnectionPoint@@V?$_CopyInterface@UIConnectionPoint@@@ATL@@VCComSingleThreadModel@6@@ATL@@@ATL@@6B@ ; ATL::CComObject<ATL::CComEnum<IEnumConnectionPoints,&_GUID_b196b285_bab4_101a_b69c_00aa00341d07,IConnectionPoint *,ATL::_CopyInterface<IConnectionPoint>,ATL::CComSingleThreadModel> >::`vftable'
PUBLIC	??_C@_1FO@FOAHOGK@?$AAI?$AAO?$AAl?$AAe?$AAI?$AAn?$AAP?$AAl?$AAa?$AAc?$AAe?$AAO?$AAb?$AAj?$AAe@ ; `string'
PUBLIC	??_C@_1GE@GOJAGBD@?$AAI?$AAO?$AAl?$AAe?$AAI?$AAn?$AAP?$AAl?$AAa?$AAc?$AAe?$AAO?$AAb?$AAj?$AAe@ ; `string'
PUBLIC	??_C@_1DM@IDHMCPFB@?$AAp?$AAT?$AA?9?$AA?$DO?$AAm?$AA_?$AAp?$AAC?$AAu?$AAr?$AAr?$AAe?$AAn?$AAt?$AAM@ ; `string'
PUBLIC	??_C@_1GG@CPMHNPED@?$AAI?$AAO?$AAl?$AAe?$AAI?$AAn?$AAP?$AAl?$AAa?$AAc?$AAe?$AAO?$AAb?$AAj?$AAe@ ; `string'
PUBLIC	??_C@_1GC@NABMBGNB@?$AAI?$AAO?$AAl?$AAe?$AAI?$AAn?$AAP?$AAl?$AAa?$AAc?$AAe?$AAO?$AAb?$AAj?$AAe@ ; `string'
PUBLIC	??_C@_1FO@KFPABBGF@?$AAI?$AAO?$AAl?$AAe?$AAI?$AAn?$AAP?$AAl?$AAa?$AAc?$AAe?$AAO?$AAb?$AAj?$AAe@ ; `string'
PUBLIC	??_C@_1GI@FLFGNCEO@?$AAI?$AAO?$AAl?$AAe?$AAI?$AAn?$AAP?$AAl?$AAa?$AAc?$AAe?$AAO?$AAb?$AAj?$AAe@ ; `string'
PUBLIC	??_C@_1GM@OCHIALO@?$AAI?$AAO?$AAl?$AAe?$AAI?$AAn?$AAP?$AAl?$AAa?$AAc?$AAe?$AAO?$AAb?$AAj?$AAe@ ; `string'
PUBLIC	??_C@_1FI@POCNNILF@?$AAI?$AAO?$AAl?$AAe?$AAI?$AAn?$AAP?$AAl?$AAa?$AAc?$AAe?$AAO?$AAb?$AAj?$AAe@ ; `string'
PUBLIC	??_C@_1EK@BJGNOKFG@?$AAI?$AAV?$AAi?$AAe?$AAw?$AAO?$AAb?$AAj?$AAe?$AAc?$AAt?$AAE?$AAx?$AAI?$AAm@ ; `string'
PUBLIC	??_C@_1CC@BNJDLDIH@?$AAp?$AAE?$AAx?$AAt?$AAe?$AAn?$AAt?$AAI?$AAn?$AAf?$AAo?$AA?5?$AA?$CB?$AA?$DN?$AA?5@ ; `string'
PUBLIC	??_C@_1BI@JBIFBCLO@?$AAp?$AAs?$AAi?$AAz?$AAe?$AAl?$AA?5?$AA?$CB?$AA?$DN?$AA?5?$AA0@ ; `string'
PUBLIC	??_C@_1EC@OOPFCKPJ@?$AAI?$AAV?$AAi?$AAe?$AAw?$AAO?$AAb?$AAj?$AAe?$AAc?$AAt?$AAE?$AAx?$AAI?$AAm@ ; `string'
PUBLIC	??_C@_1CA@PALDCHIG@?$AAp?$AAH?$AAi?$AAt?$AAR?$AAe?$AAs?$AAu?$AAl?$AAt?$AA?5?$AA?$CB?$AA?$DN?$AA?5?$AA0@ ; `string'
PUBLIC	??_C@_1CA@PEBIMLJG@?$AAW?$AAr?$AAo?$AAn?$AAg?$AA?5?$AAD?$AAV?$AAA?$AAS?$AAP?$AAE?$AAC?$AAT?$AA?6@ ; `string'
PUBLIC	??_C@_1EE@LBFAGAOE@?$AAI?$AAV?$AAi?$AAe?$AAw?$AAO?$AAb?$AAj?$AAe?$AAc?$AAt?$AAE?$AAx?$AAI?$AAm@ ; `string'
PUBLIC	??_C@_1EE@ICFBLIPC@?$AAI?$AAV?$AAi?$AAe?$AAw?$AAO?$AAb?$AAj?$AAe?$AAc?$AAt?$AAE?$AAx?$AAI?$AAm@ ; `string'
PUBLIC	??_C@_1BO@EONKKIBB@?$AAp?$AAd?$AAw?$AAS?$AAt?$AAa?$AAt?$AAu?$AAs?$AA?5?$AA?$CB?$AA?$DN?$AA?5?$AA0@ ; `string'
PUBLIC	??_C@_1DG@HMMPEHJO@?$AAI?$AAV?$AAi?$AAe?$AAw?$AAO?$AAb?$AAj?$AAe?$AAc?$AAt?$AAE?$AAx?$AAI?$AAm@ ; `string'
PUBLIC	??_C@_1DM@POGPOFEN@?$AAI?$AAV?$AAi?$AAe?$AAw?$AAO?$AAb?$AAj?$AAe?$AAc?$AAt?$AAE?$AAx?$AAI?$AAm@ ; `string'
PUBLIC	??_C@_1BK@KJBKAKFM@?$AAl?$AAp?$AAs?$AAi?$AAz?$AAe?$AAl?$AA?5?$AA?$CB?$AA?$DN?$AA?5?$AA0@ ; `string'
PUBLIC	??_C@_1DM@LPCKIPFO@?$AAI?$AAV?$AAi?$AAe?$AAw?$AAO?$AAb?$AAj?$AAe?$AAc?$AAt?$AAE?$AAx?$AAI?$AAm@ ; `string'
PUBLIC	??_C@_1BO@NDBFONFF@?$AAp?$AAp?$AAA?$AAd?$AAv?$AAS?$AAi?$AAn?$AAk?$AA?5?$AA?$CB?$AA?$DN?$AA?5?$AA0@ ; `string'
PUBLIC	??_C@_1DM@EKHMFGBP@?$AAI?$AAV?$AAi?$AAe?$AAw?$AAO?$AAb?$AAj?$AAe?$AAc?$AAt?$AAE?$AAx?$AAI?$AAm@ ; `string'
PUBLIC	??_C@_1DI@BJKGFPLB@?$AAI?$AAV?$AAi?$AAe?$AAw?$AAO?$AAb?$AAj?$AAe?$AAc?$AAt?$AAE?$AAx?$AAI?$AAm@ ; `string'
PUBLIC	??_C@_1DE@PKOCJOMP@?$AAI?$AAV?$AAi?$AAe?$AAw?$AAO?$AAb?$AAj?$AAe?$AAc?$AAt?$AAE?$AAx?$AAI?$AAm@ ; `string'
PUBLIC	??_C@_1DO@OMBHOJOI@?$AAI?$AAV?$AAi?$AAe?$AAw?$AAO?$AAb?$AAj?$AAe?$AAc?$AAt?$AAE?$AAx?$AAI?$AAm@ ; `string'
PUBLIC	??_C@_1DC@EOPFDCAL@?$AAI?$AAV?$AAi?$AAe?$AAw?$AAO?$AAb?$AAj?$AAe?$AAc?$AAt?$AAE?$AAx?$AAI?$AAm@ ; `string'
PUBLIC	??_C@_1FK@MLCEAOAF@?$AAI?$AAO?$AAl?$AAe?$AAI?$AAn?$AAP?$AAl?$AAa?$AAc?$AAe?$AAA?$AAc?$AAt?$AAi@ ; `string'
PUBLIC	??_C@_1FG@NONNDFDB@?$AAI?$AAO?$AAl?$AAe?$AAI?$AAn?$AAP?$AAl?$AAa?$AAc?$AAe?$AAA?$AAc?$AAt?$AAi@ ; `string'
PUBLIC	??_C@_1GE@HBFPAJL@?$AAI?$AAO?$AAl?$AAe?$AAI?$AAn?$AAP?$AAl?$AAa?$AAc?$AAe?$AAA?$AAc?$AAt?$AAi@ ; `string'
PUBLIC	??_C@_1GI@CGHNFFAP@?$AAI?$AAO?$AAl?$AAe?$AAI?$AAn?$AAP?$AAl?$AAa?$AAc?$AAe?$AAA?$AAc?$AAt?$AAi@ ; `string'
PUBLIC	??_C@_1GG@KHCNGNGO@?$AAI?$AAO?$AAl?$AAe?$AAI?$AAn?$AAP?$AAl?$AAa?$AAc?$AAe?$AAA?$AAc?$AAt?$AAi@ ; `string'
PUBLIC	??_C@_1GE@JEOLIANC@?$AAI?$AAO?$AAl?$AAe?$AAI?$AAn?$AAP?$AAl?$AAa?$AAc?$AAe?$AAA?$AAc?$AAt?$AAi@ ; `string'
PUBLIC	??_C@_1FA@GCGKPCBJ@?$AAI?$AAO?$AAl?$AAe?$AAI?$AAn?$AAP?$AAl?$AAa?$AAc?$AAe?$AAA?$AAc?$AAt?$AAi@ ; `string'
PUBLIC	??_C@_1DO@PBDGGEPN@?$AAI?$AAO?$AAl?$AAe?$AAO?$AAb?$AAj?$AAe?$AAc?$AAt?$AAI?$AAm?$AAp?$AAl?$AA?3@ ; `string'
PUBLIC	??_C@_1DO@GENDACH@?$AAI?$AAO?$AAl?$AAe?$AAO?$AAb?$AAj?$AAe?$AAc?$AAt?$AAI?$AAm?$AAp?$AAl?$AA?3@ ; `string'
PUBLIC	??_C@_1DI@IJKKKNHF@?$AAI?$AAO?$AAl?$AAe?$AAO?$AAb?$AAj?$AAe?$AAc?$AAt?$AAI?$AAm?$AAp?$AAl?$AA?3@ ; `string'
PUBLIC	??_C@_1DE@DIPMKMJO@?$AAI?$AAO?$AAl?$AAe?$AAO?$AAb?$AAj?$AAe?$AAc?$AAt?$AAI?$AAm?$AAp?$AAl?$AA?3@ ; `string'
PUBLIC	??_C@_1DA@OJLCEIKD@?$AAI?$AAO?$AAl?$AAe?$AAO?$AAb?$AAj?$AAe?$AAc?$AAt?$AAI?$AAm?$AAp?$AAl?$AA?3@ ; `string'
PUBLIC	??_C@_1DG@IGBKGHLP@?$AAI?$AAO?$AAl?$AAe?$AAO?$AAb?$AAj?$AAe?$AAc?$AAt?$AAI?$AAm?$AAp?$AAl?$AA?3@ ; `string'
PUBLIC	??_C@_1DG@HDEMLOPO@?$AAI?$AAO?$AAl?$AAe?$AAO?$AAb?$AAj?$AAe?$AAc?$AAt?$AAI?$AAm?$AAp?$AAl?$AA?3@ ; `string'
PUBLIC	??_C@_1DK@OLKKBIEP@?$AAI?$AAO?$AAl?$AAe?$AAO?$AAb?$AAj?$AAe?$AAc?$AAt?$AAI?$AAm?$AAp?$AAl?$AA?3@ ; `string'
PUBLIC	??_C@_1EA@KFGOFNKC@?$AAI?$AAO?$AAl?$AAe?$AAO?$AAb?$AAj?$AAe?$AAc?$AAt?$AAI?$AAm?$AAp?$AAl?$AA?3@ ; `string'
PUBLIC	??_C@_1O@PBGNBMDG@?$AAp?$AAC?$AAl?$AAs?$AAi?$AAd@ ; `string'
PUBLIC	??_C@_1DI@JMCOGOPO@?$AAI?$AAO?$AAl?$AAe?$AAO?$AAb?$AAj?$AAe?$AAc?$AAt?$AAI?$AAm?$AAp?$AAl?$AA?3@ ; `string'
PUBLIC	??_C@_1DA@FNILLDED@?$AAI?$AAO?$AAl?$AAe?$AAO?$AAb?$AAj?$AAe?$AAc?$AAt?$AAI?$AAm?$AAp?$AAl?$AA?3@ ; `string'
PUBLIC	??_C@_1DG@PNMFEDJ@?$AAI?$AAO?$AAl?$AAe?$AAO?$AAb?$AAj?$AAe?$AAc?$AAt?$AAI?$AAm?$AAp?$AAl?$AA?3@ ; `string'
PUBLIC	??_C@_1BM@CEHACOFH@?$AAp?$AAp?$AAE?$AAn?$AAu?$AAm?$AAO?$AAl?$AAe?$AAV?$AAe?$AAr?$AAb@ ; `string'
PUBLIC	??_C@_1DI@MCJJDJOB@?$AAI?$AAO?$AAl?$AAe?$AAO?$AAb?$AAj?$AAe?$AAc?$AAt?$AAI?$AAm?$AAp?$AAl?$AA?3@ ; `string'
PUBLIC	??_C@_1CG@EJEJDDBA@?$AAp?$AAT?$AA?9?$AA?$DO?$AAm?$AA_?$AAs?$AAp?$AAC?$AAl?$AAi?$AAe?$AAn?$AAt?$AAS@ ; `string'
PUBLIC	??_C@_1EC@KDKDKHCO@?$AAI?$AAO?$AAl?$AAe?$AAO?$AAb?$AAj?$AAe?$AAc?$AAt?$AAI?$AAm?$AAp?$AAl?$AA?3@ ; `string'
PUBLIC	??_C@_1DK@PCFABHJP@?$AAI?$AAO?$AAl?$AAe?$AAO?$AAb?$AAj?$AAe?$AAc?$AAt?$AAI?$AAm?$AAp?$AAl?$AA?3@ ; `string'
PUBLIC	??_C@_1DG@CEIENMGG@?$AAI?$AAO?$AAl?$AAe?$AAO?$AAb?$AAj?$AAe?$AAc?$AAt?$AAI?$AAm?$AAp?$AAl?$AA?3@ ; `string'
PUBLIC	??_C@_1DG@NBNCAFCH@?$AAI?$AAO?$AAl?$AAe?$AAO?$AAb?$AAj?$AAe?$AAc?$AAt?$AAI?$AAm?$AAp?$AAl?$AA?3@ ; `string'
PUBLIC	??_C@_1CO@MLHGCMGP@?$AAI?$AAO?$AAl?$AAe?$AAO?$AAb?$AAj?$AAe?$AAc?$AAt?$AAI?$AAm?$AAp?$AAl?$AA?3@ ; `string'
PUBLIC	??_C@_1DM@ENNHEKGE@?$AAI?$AAO?$AAl?$AAe?$AAO?$AAb?$AAj?$AAe?$AAc?$AAt?$AAI?$AAm?$AAp?$AAl?$AA?3@ ; `string'
PUBLIC	??_C@_1DO@FNGOFKPG@?$AAI?$AAO?$AAl?$AAe?$AAO?$AAb?$AAj?$AAe?$AAc?$AAt?$AAI?$AAm?$AAp?$AAl?$AA?3@ ; `string'
PUBLIC	??_C@_1DO@NMABOKNE@?$AAI?$AAO?$AAl?$AAe?$AAO?$AAb?$AAj?$AAe?$AAc?$AAt?$AAI?$AAm?$AAp?$AAl?$AA?3@ ; `string'
PUBLIC	??_C@_1FE@LCIFNEAD@?$AAI?$AAO?$AAl?$AAe?$AAC?$AAo?$AAn?$AAt?$AAr?$AAo?$AAl?$AAI?$AAm?$AAp?$AAl@ ; `string'
PUBLIC	??_C@_1CC@GHJDDODE@?$AA?5?$AA?9?$AA?9?$AA?5?$AAD?$AAI?$AAS?$AAP?$AAI?$AAD?$AA?5?$AA?$DN?$AA?5?$AA?$CF?$AAd@ ; `string'
PUBLIC	??_C@_1DI@HLJHBFHB@?$AAI?$AAO?$AAl?$AAe?$AAC?$AAo?$AAn?$AAt?$AAr?$AAo?$AAl?$AAI?$AAm?$AAp?$AAl@ ; `string'
PUBLIC	??_C@_1EA@IFIKFMIO@?$AAI?$AAO?$AAl?$AAe?$AAC?$AAo?$AAn?$AAt?$AAr?$AAo?$AAl?$AAI?$AAm?$AAp?$AAl@ ; `string'
PUBLIC	??_C@_1EC@OBJBCLBJ@?$AAI?$AAP?$AAe?$AAr?$AAs?$AAi?$AAs?$AAt?$AAS?$AAt?$AAr?$AAe?$AAa?$AAm?$AAI@ ; `string'
PUBLIC	??_C@_1EI@OFMICAKH@?$AAI?$AAP?$AAe?$AAr?$AAs?$AAi?$AAs?$AAt?$AAS?$AAt?$AAr?$AAe?$AAa?$AAm?$AAI@ ; `string'
PUBLIC	??_C@_1EK@BKBPFBNN@?$AAF?$AAa?$AAi?$AAl?$AAe?$AAd?$AA?5?$AAt?$AAo?$AA?5?$AAg?$AAe?$AAt?$AA?5?$AAs@ ; `string'
PUBLIC	??_C@_1FG@PECCGIAK@?$AAR?$AAe?$AAs?$AAu?$AAl?$AAt?$AA?5?$AAo?$AAv?$AAe?$AAr?$AAf?$AAl?$AAo?$AAw@ ; `string'
PUBLIC	??_C@_1DM@INAJINEF@?$AAI?$AAP?$AAe?$AAr?$AAs?$AAi?$AAs?$AAt?$AAS?$AAt?$AAr?$AAe?$AAa?$AAm?$AAI@ ; `string'
PUBLIC	??_C@_1DM@FAGOCEOM@?$AAI?$AAP?$AAe?$AAr?$AAs?$AAi?$AAs?$AAt?$AAS?$AAt?$AAr?$AAe?$AAa?$AAm?$AAI@ ; `string'
PUBLIC	??_C@_1EC@BOABIBDM@?$AAI?$AAP?$AAe?$AAr?$AAs?$AAi?$AAs?$AAt?$AAS?$AAt?$AAr?$AAe?$AAa?$AAm?$AAI@ ; `string'
PUBLIC	??_C@_1EI@FEIMOCIK@?$AAI?$AAP?$AAe?$AAr?$AAs?$AAi?$AAs?$AAt?$AAS?$AAt?$AAr?$AAe?$AAa?$AAm?$AAI@ ; `string'
PUBLIC	??_C@_19LMDLLIGP@?$AAp?$AA?$DN?$AA?$DN?$AA0@	; `string'
PUBLIC	??_C@_19JHCPJMAL@?$AAp?$AA?$CB?$AA?$DN?$AA0@	; `string'
PUBLIC	??_C@_0HA@JEDONBAF@C?3?2Program?5Files?5?$CIx86?$CJ?2Microsof@ ; `string'
PUBLIC	??_C@_1OK@FGCLCILL@?$AAC?$AA?3?$AA?2?$AAP?$AAr?$AAo?$AAg?$AAr?$AAa?$AAm?$AA?5?$AAF?$AAi?$AAl?$AAe@ ; `string'
PUBLIC	??_C@_1BC@EMCLECFJ@?$AAm?$AA_?$AAp?$AA?5?$AA?$DN?$AA?$DN?$AA?5?$AA0@ ; `string'
PUBLIC	??_C@_1M@PPPPCDEP@?$AAA?$AAP?$AAP?$AAI?$AAD@	; `string'
PUBLIC	??_7?$CComContainedObject@VCOPOSGestureControl@@@ATL@@6B?$IDispatchImpl@UIOPOSGestureControl@@$1?IID_IOPOSGestureControl@@3U_GUID@@B$1?LIBID_OposGestureControl_CCO@@3U3@B$00$0A@VCComTypeInfoHolder@ATL@@@1@@ ; ATL::CComContainedObject<COPOSGestureControl>::`vftable'
PUBLIC	??_7?$CComContainedObject@VCOPOSGestureControl@@@ATL@@6BCComControlBase@1@@ ; ATL::CComContainedObject<COPOSGestureControl>::`vftable'
PUBLIC	??_7?$CComContainedObject@VCOPOSGestureControl@@@ATL@@6B?$CWindowImpl@VCOPOSGestureControl@@VCWindow@ATL@@V?$CWinTraits@$0FGAAAAAA@$0A@@3@@1@@ ; ATL::CComContainedObject<COPOSGestureControl>::`vftable'
PUBLIC	??_7?$CComContainedObject@VCOPOSGestureControl@@@ATL@@6B?$IPersistStreamInitImpl@VCOPOSGestureControl@@@1@@ ; ATL::CComContainedObject<COPOSGestureControl>::`vftable'
PUBLIC	??_7?$CComContainedObject@VCOPOSGestureControl@@@ATL@@6B?$IOleControlImpl@VCOPOSGestureControl@@@1@@ ; ATL::CComContainedObject<COPOSGestureControl>::`vftable'
PUBLIC	??_7?$CComContainedObject@VCOPOSGestureControl@@@ATL@@6B?$IOleObjectImpl@VCOPOSGestureControl@@@1@@ ; ATL::CComContainedObject<COPOSGestureControl>::`vftable'
PUBLIC	??_7?$CComContainedObject@VCOPOSGestureControl@@@ATL@@6B?$IOleInPlaceActiveObjectImpl@VCOPOSGestureControl@@@1@@ ; ATL::CComContainedObject<COPOSGestureControl>::`vftable'
PUBLIC	??_7?$CComContainedObject@VCOPOSGestureControl@@@ATL@@6B?$IViewObjectExImpl@VCOPOSGestureControl@@@1@@ ; ATL::CComContainedObject<COPOSGestureControl>::`vftable'
PUBLIC	??_7?$CComContainedObject@VCOPOSGestureControl@@@ATL@@6B?$IOleInPlaceObjectWindowlessImpl@VCOPOSGestureControl@@@1@@ ; ATL::CComContainedObject<COPOSGestureControl>::`vftable'
PUBLIC	??_7?$CComContainedObject@VCOPOSGestureControl@@@ATL@@6B?$IConnectionPointContainerImpl@VCOPOSGestureControl@@@1@@ ; ATL::CComContainedObject<COPOSGestureControl>::`vftable'
PUBLIC	??_7?$CComContainedObject@VCOPOSGestureControl@@@ATL@@6B?$IPersistStorageImpl@VCOPOSGestureControl@@@1@@ ; ATL::CComContainedObject<COPOSGestureControl>::`vftable'
PUBLIC	??_7?$CComContainedObject@VCOPOSGestureControl@@@ATL@@6B?$ISpecifyPropertyPagesImpl@VCOPOSGestureControl@@@1@@ ; ATL::CComContainedObject<COPOSGestureControl>::`vftable'
PUBLIC	??_7?$CComContainedObject@VCOPOSGestureControl@@@ATL@@6B?$IQuickActivateImpl@VCOPOSGestureControl@@@1@@ ; ATL::CComContainedObject<COPOSGestureControl>::`vftable'
PUBLIC	??_7?$CComContainedObject@VCOPOSGestureControl@@@ATL@@6B?$IDataObjectImpl@VCOPOSGestureControl@@@1@@ ; ATL::CComContainedObject<COPOSGestureControl>::`vftable'
PUBLIC	??_7?$CComContainedObject@VCOPOSGestureControl@@@ATL@@6B?$IProvideClassInfo2Impl@$1?CLSID_OPOSGestureControl@@3U_GUID@@B$1?DIID__IOPOSGestureControlEvents@@3U2@B$1?LIBID_OposGestureControl_CCO@@3U2@B$00$0A@VCComTypeInfoHolder@ATL@@@1@@ ; ATL::CComContainedObject<COPOSGestureControl>::`vftable'
PUBLIC	??_7?$CComContainedObject@VCOPOSGestureControl@@@ATL@@6B?$IObjectSafetyImpl@VCOPOSGestureControl@@$02@1@@ ; ATL::CComContainedObject<COPOSGestureControl>::`vftable'
PUBLIC	??_7?$CComContainedObject@VCOPOSGestureControl@@@ATL@@6B?$IPropertyNotifySinkCP@VCOPOSGestureControl@@VCComDynamicUnkArray@ATL@@@1@@ ; ATL::CComContainedObject<COPOSGestureControl>::`vftable'
PUBLIC	??_7?$CComContainedObject@VCOPOSGestureControl@@@ATL@@6B?$CProxy_IOPOSEvents@VCOPOSGestureControl@@@@@ ; ATL::CComContainedObject<COPOSGestureControl>::`vftable'
PUBLIC	??_7?$CComAggObject@VCOPOSGestureControl@@@ATL@@6B@ ; ATL::CComAggObject<COPOSGestureControl>::`vftable'
PUBLIC	??_7?$CComObject@VCOPOSGestureControl@@@ATL@@6B?$IDispatchImpl@UIOPOSGestureControl@@$1?IID_IOPOSGestureControl@@3U_GUID@@B$1?LIBID_OposGestureControl_CCO@@3U3@B$00$0A@VCComTypeInfoHolder@ATL@@@1@@ ; ATL::CComObject<COPOSGestureControl>::`vftable'
PUBLIC	??_7?$CComObject@VCOPOSGestureControl@@@ATL@@6BCComControlBase@1@@ ; ATL::CComObject<COPOSGestureControl>::`vftable'
PUBLIC	??_7?$CComObject@VCOPOSGestureControl@@@ATL@@6B?$CWindowImpl@VCOPOSGestureControl@@VCWindow@ATL@@V?$CWinTraits@$0FGAAAAAA@$0A@@3@@1@@ ; ATL::CComObject<COPOSGestureControl>::`vftable'
PUBLIC	??_7?$CComObject@VCOPOSGestureControl@@@ATL@@6B?$IPersistStreamInitImpl@VCOPOSGestureControl@@@1@@ ; ATL::CComObject<COPOSGestureControl>::`vftable'
PUBLIC	??_7?$CComObject@VCOPOSGestureControl@@@ATL@@6B?$IOleControlImpl@VCOPOSGestureControl@@@1@@ ; ATL::CComObject<COPOSGestureControl>::`vftable'
PUBLIC	??_7?$CComObject@VCOPOSGestureControl@@@ATL@@6B?$IOleObjectImpl@VCOPOSGestureControl@@@1@@ ; ATL::CComObject<COPOSGestureControl>::`vftable'
PUBLIC	??_7?$CComObject@VCOPOSGestureControl@@@ATL@@6B?$IOleInPlaceActiveObjectImpl@VCOPOSGestureControl@@@1@@ ; ATL::CComObject<COPOSGestureControl>::`vftable'
PUBLIC	??_7?$CComObject@VCOPOSGestureControl@@@ATL@@6B?$IViewObjectExImpl@VCOPOSGestureControl@@@1@@ ; ATL::CComObject<COPOSGestureControl>::`vftable'
PUBLIC	??_7?$CComObject@VCOPOSGestureControl@@@ATL@@6B?$IOleInPlaceObjectWindowlessImpl@VCOPOSGestureControl@@@1@@ ; ATL::CComObject<COPOSGestureControl>::`vftable'
PUBLIC	??_7?$CComObject@VCOPOSGestureControl@@@ATL@@6B?$IConnectionPointContainerImpl@VCOPOSGestureControl@@@1@@ ; ATL::CComObject<COPOSGestureControl>::`vftable'
PUBLIC	??_7?$CComObject@VCOPOSGestureControl@@@ATL@@6B?$IPersistStorageImpl@VCOPOSGestureControl@@@1@@ ; ATL::CComObject<COPOSGestureControl>::`vftable'
PUBLIC	??_7?$CComObject@VCOPOSGestureControl@@@ATL@@6B?$ISpecifyPropertyPagesImpl@VCOPOSGestureControl@@@1@@ ; ATL::CComObject<COPOSGestureControl>::`vftable'
PUBLIC	??_7?$CComObject@VCOPOSGestureControl@@@ATL@@6B?$IQuickActivateImpl@VCOPOSGestureControl@@@1@@ ; ATL::CComObject<COPOSGestureControl>::`vftable'
PUBLIC	??_7?$CComObject@VCOPOSGestureControl@@@ATL@@6B?$IDataObjectImpl@VCOPOSGestureControl@@@1@@ ; ATL::CComObject<COPOSGestureControl>::`vftable'
PUBLIC	??_7?$CComObject@VCOPOSGestureControl@@@ATL@@6B?$IProvideClassInfo2Impl@$1?CLSID_OPOSGestureControl@@3U_GUID@@B$1?DIID__IOPOSGestureControlEvents@@3U2@B$1?LIBID_OposGestureControl_CCO@@3U2@B$00$0A@VCComTypeInfoHolder@ATL@@@1@@ ; ATL::CComObject<COPOSGestureControl>::`vftable'
PUBLIC	??_7?$CComObject@VCOPOSGestureControl@@@ATL@@6B?$IObjectSafetyImpl@VCOPOSGestureControl@@$02@1@@ ; ATL::CComObject<COPOSGestureControl>::`vftable'
PUBLIC	??_7?$CComObject@VCOPOSGestureControl@@@ATL@@6B?$IPropertyNotifySinkCP@VCOPOSGestureControl@@VCComDynamicUnkArray@ATL@@@1@@ ; ATL::CComObject<COPOSGestureControl>::`vftable'
PUBLIC	??_7?$CComObject@VCOPOSGestureControl@@@ATL@@6B?$CProxy_IOPOSEvents@VCOPOSGestureControl@@@@@ ; ATL::CComObject<COPOSGestureControl>::`vftable'
PUBLIC	??_C@_1GI@CMBOLMBG@?$AA?$CK?$AAF?$AAi?$AAr?$AAe?$AAT?$AAh?$AAe?$AAE?$AAv?$AAe?$AAn?$AAt?$AA?3?$AA?5@ ; `string'
PUBLIC	??_C@_1BK@NHECDDNK@?$AAm?$AA_?$AAp?$AAD?$AAa?$AAt?$AAa?$AA?5?$AA?$DN?$AA?$DN?$AA?5?$AA0@ ; `string'
PUBLIC	?wc@?1??GetWndClassInfo@?$CWindowImpl@VCOPOSGestureControl@@VCWindow@ATL@@V?$CWinTraits@$0FGAAAAAA@$0A@@3@@ATL@@SAAAU_ATL_WNDCLASSINFOW@3@XZ@4U43@A ; `ATL::CWindowImpl<COPOSGestureControl,ATL::CWindow,ATL::CWinTraits<1442840576,0> >::GetWndClassInfo'::`2'::wc
PUBLIC	??_C@_1BE@ENNDGLJC@?$AA_?$AAC?$AAC?$AAo?$AAm?$AAE?$AAn?$AAu?$AAm@ ; `string'
PUBLIC	?_entries@?1??_GetEntries@?$CComEnum@UIEnumConnectionPoints@@$1?_GUID_b196b285_bab4_101a_b69c_00aa00341d07@@3U__s_GUID@@BPAUIConnectionPoint@@V?$_CopyInterface@UIConnectionPoint@@@ATL@@VCComSingleThreadModel@6@@ATL@@SGPBU_ATL_INTMAP_ENTRY@3@XZ@4QBU43@B ; `ATL::CComEnum<IEnumConnectionPoints,&_GUID_b196b285_bab4_101a_b69c_00aa00341d07,IConnectionPoint *,ATL::_CopyInterface<IConnectionPoint>,ATL::CComSingleThreadModel>::_GetEntries'::`2'::_entries
PUBLIC	__GUID_00020412_0000_0000_c000_000000000046
PUBLIC	__GUID_00020401_0000_0000_c000_000000000046
PUBLIC	??_C@_1HK@LKOJNIEL@?$AAE?$AAR?$AAR?$AAO?$AAR?$AA?5?$AA?3?$AA?5?$AAI?$AAn?$AAv?$AAa?$AAl?$AAi?$AAd@ ; `string'
PUBLIC	??_C@_1JG@LLDBHFHF@?$AAE?$AAR?$AAR?$AAO?$AAR?$AA?5?$AA?3?$AA?5?$AAU?$AAn?$AAa?$AAb?$AAl?$AAe?$AA?5@ ; `string'
PUBLIC	??_C@_1BG@LDIEAJMA@?$AAp?$AAP?$AAr?$AAo?$AAc?$AA?5?$AA?$CB?$AA?$DN?$AA?5?$AA0@ ; `string'
PUBLIC	??_C@_1HG@EHFNCEAN@?$AAE?$AAR?$AAR?$AAO?$AAR?$AA?5?$AA?3?$AA?5?$AAC?$AAo?$AAu?$AAl?$AAd?$AA?5?$AAn@ ; `string'
PUBLIC	??_C@_1CC@GCJALPHP@?$AAp?$AA?9?$AA?$DO?$AAp?$AAW?$AAn?$AAd?$AAP?$AAr?$AAo?$AAc?$AA?5?$AA?$CB?$AA?$DN?$AA?5@ ; `string'
PUBLIC	??_7?$CComObject@V?$CComEnum@UIEnumConnections@@$1?_GUID_b196b287_bab4_101a_b69c_00aa00341d07@@3U__s_GUID@@BUtagCONNECTDATA@@V?$_Copy@UtagCONNECTDATA@@@ATL@@VCComSingleThreadModel@6@@ATL@@@ATL@@6B@ ; ATL::CComObject<ATL::CComEnum<IEnumConnections,&_GUID_b196b287_bab4_101a_b69c_00aa00341d07,tagCONNECTDATA,ATL::_Copy<tagCONNECTDATA>,ATL::CComSingleThreadModel> >::`vftable'
PUBLIC	?_entries@?1??_GetEntries@?$CComEnum@UIEnumConnections@@$1?_GUID_b196b287_bab4_101a_b69c_00aa00341d07@@3U__s_GUID@@BUtagCONNECTDATA@@V?$_Copy@UtagCONNECTDATA@@@ATL@@VCComSingleThreadModel@6@@ATL@@SGPBU_ATL_INTMAP_ENTRY@3@XZ@4QBU43@B ; `ATL::CComEnum<IEnumConnections,&_GUID_b196b287_bab4_101a_b69c_00aa00341d07,tagCONNECTDATA,ATL::_Copy<tagCONNECTDATA>,ATL::CComSingleThreadModel>::_GetEntries'::`2'::_entries
EXTRN	__purecall:PROC
EXTRN	??3@YAXPAXI@Z:PROC				; operator delete
EXTRN	??_V@YAXPAX@Z:PROC				; operator delete[]
EXTRN	??_V@YAXPAXI@Z:PROC				; operator delete[]
EXTRN	_atexit:PROC
EXTRN	___report_rangecheckfailure:PROC
EXTRN	__Init_thread_header:PROC
EXTRN	__Init_thread_footer:PROC
EXTRN	__invalid_parameter_noinfo:PROC
EXTRN	__errno:PROC
EXTRN	_calloc:PROC
EXTRN	_free:PROC
EXTRN	_malloc:PROC
EXTRN	__recalloc:PROC
EXTRN	??2@YAPAXIABUnothrow_t@std@@@Z:PROC		; operator new
EXTRN	??_U@YAPAXIABUnothrow_t@std@@@Z:PROC		; operator new[]
EXTRN	__resetstkoflw:PROC
EXTRN	__CrtDbgReportW:PROC
EXTRN	_memcmp:PROC
EXTRN	_memcpy:PROC
EXTRN	_memset:PROC
EXTRN	_wcsstr:PROC
EXTRN	_wcscat_s:PROC
EXTRN	_wcscpy_s:PROC
EXTRN	_wcsncpy_s:PROC
EXTRN	_wcslen:PROC
EXTRN	__imp__EncodePointer@4:PROC
EXTRN	__imp__DecodePointer@4:PROC
EXTRN	__imp__RaiseException@16:PROC
EXTRN	__imp__GetLastError@0:PROC
EXTRN	__imp__SetLastError@4:PROC
EXTRN	__imp__EnterCriticalSection@4:PROC
EXTRN	__imp__LeaveCriticalSection@4:PROC
EXTRN	__imp__InitializeCriticalSectionEx@12:PROC
EXTRN	__imp__DeleteCriticalSection@4:PROC
EXTRN	__imp__ResetEvent@4:PROC
EXTRN	__imp__ReleaseMutex@4:PROC
EXTRN	__imp__WaitForSingleObject@8:PROC
EXTRN	__imp__Sleep@4:PROC
EXTRN	__imp__GetCurrentThreadId@0:PROC
EXTRN	__imp__DisableThreadLibraryCalls@4:PROC
EXTRN	__imp__FreeLibrary@4:PROC
EXTRN	__imp__GetModuleFileNameW@12:PROC
EXTRN	__imp__GetModuleHandleW@4:PROC
EXTRN	__imp__GetProcAddress@8:PROC
EXTRN	__imp__LoadLibraryExW@12:PROC
EXTRN	__imp__LoadResource@8:PROC
EXTRN	__imp__SizeofResource@8:PROC
EXTRN	__imp__FindResourceW@12:PROC
EXTRN	__imp__GlobalAlloc@8:PROC
EXTRN	__imp__GlobalUnlock@4:PROC
EXTRN	__imp__GlobalLock@4:PROC
EXTRN	__imp__MulDiv@12:PROC
EXTRN	__imp__lstrcmpiW@8:PROC
EXTRN	__imp__CloseMetaFile@4:PROC
EXTRN	__imp__CreateDCW@16:PROC
EXTRN	__imp__CreateMetaFileW@4:PROC
EXTRN	__imp__CreateRectRgnIndirect@4:PROC
EXTRN	__imp__DeleteDC@4:PROC
EXTRN	__imp__DeleteMetaFile@4:PROC
EXTRN	__imp__GetDeviceCaps@8:PROC
EXTRN	__imp__RestoreDC@8:PROC
EXTRN	__imp__SaveDC@4:PROC
EXTRN	__imp__SetMapMode@8:PROC
EXTRN	__imp__LPtoDP@12:PROC
EXTRN	__imp__SetViewportOrgEx@16:PROC
EXTRN	__imp__SetWindowExtEx@16:PROC
EXTRN	__imp__SetWindowOrgEx@16:PROC
EXTRN	__imp__PostMessageW@16:PROC
EXTRN	__imp__DefWindowProcW@16:PROC
EXTRN	__imp__CallWindowProcW@20:PROC
EXTRN	__imp__UnregisterClassW@8:PROC
EXTRN	__imp__RegisterClassExW@4:PROC
EXTRN	__imp__GetClassInfoExW@12:PROC
EXTRN	__imp__CreateWindowExW@48:PROC
EXTRN	__imp__IsWindow@4:PROC
EXTRN	__imp__IsChild@8:PROC
EXTRN	__imp__DestroyWindow@4:PROC
EXTRN	__imp__ShowWindow@8:PROC
EXTRN	__imp__SetWindowPos@28:PROC
EXTRN	__imp__CharNextW@4:PROC
EXTRN	__imp__SetFocus@4:PROC
EXTRN	__imp__GetFocus@0:PROC
EXTRN	__imp__GetKeyState@4:PROC
EXTRN	__imp__GetDC@4:PROC
EXTRN	__imp__ReleaseDC@8:PROC
EXTRN	__imp__BeginPaint@8:PROC
EXTRN	__imp__EndPaint@8:PROC
EXTRN	__imp__SetWindowRgn@12:PROC
EXTRN	__imp__InvalidateRect@12:PROC
EXTRN	__imp__GetClientRect@8:PROC
EXTRN	__imp__IntersectRect@12:PROC
EXTRN	__imp__UnionRect@12:PROC
EXTRN	__imp__OffsetRect@12:PROC
EXTRN	__imp__EqualRect@8:PROC
EXTRN	__imp__PtInRect@12:PROC
EXTRN	__imp__GetWindowLongW@8:PROC
EXTRN	__imp__SetWindowLongW@12:PROC
EXTRN	__imp__GetParent@4:PROC
EXTRN	__imp__LoadCursorW@8:PROC
EXTRN	__imp__MultiByteToWideChar@24:PROC
EXTRN	__imp__RegCloseKey@4:PROC
EXTRN	__imp__RegCreateKeyExW@36:PROC
EXTRN	__imp__RegDeleteKeyW@8:PROC
EXTRN	__imp__RegDeleteValueW@8:PROC
EXTRN	__imp__RegEnumKeyExW@32:PROC
EXTRN	__imp__RegOpenKeyExW@20:PROC
EXTRN	__imp__RegQueryInfoKeyW@48:PROC
EXTRN	__imp__RegSetValueExW@24:PROC
EXTRN	__imp__CoCreateInstance@20:PROC
EXTRN	__imp__StringFromGUID2@12:PROC
EXTRN	__imp__CoTaskMemAlloc@4:PROC
EXTRN	__imp__CoTaskMemRealloc@8:PROC
EXTRN	__imp__CoTaskMemFree@4:PROC
EXTRN	__imp__ReadClassStm@8:PROC
EXTRN	__imp__WriteClassStm@8:PROC
EXTRN	__imp__CreateDataAdviseHolder@4:PROC
EXTRN	__imp__SysAllocString@4:PROC
EXTRN	__imp__SysFreeString@4:PROC
EXTRN	__imp__SysStringLen@4:PROC
EXTRN	__imp__SysStringByteLen@4:PROC
EXTRN	__imp__SysAllocStringByteLen@8:PROC
EXTRN	__imp__VariantInit@4:PROC
EXTRN	__imp__VariantClear@4:PROC
EXTRN	__imp__VariantChangeType@16:PROC
EXTRN	__imp__VarUI4FromStr@16:PROC
EXTRN	__imp__LoadTypeLib@8:PROC
EXTRN	__imp__LoadRegTypeLib@20:PROC
EXTRN	__imp__RegisterTypeLib@12:PROC
EXTRN	__imp__UnRegisterTypeLib@20:PROC
EXTRN	__imp__OleSaveToStream@8:PROC
EXTRN	__imp__CreateOleAdviseHolder@4:PROC
EXTRN	__imp__OleRegGetUserType@12:PROC
EXTRN	__imp__OleRegGetMiscStatus@12:PROC
EXTRN	__imp__OleRegEnumVerbs@8:PROC
EXTRN	___stdio_common_vswprintf:PROC
EXTRN	___stdio_common_vswprintf_s:PROC
EXTRN	___stdio_common_vsnwprintf_s:PROC
EXTRN	__imp__OleCreatePropertyFrame@44:PROC
EXTRN	??_ECComModule@ATL@@UAEPAXI@Z:PROC		; ATL::CComModule::`vector deleting destructor'
EXTRN	??_ECRegObject@ATL@@UAEPAXI@Z:PROC		; ATL::CRegObject::`vector deleting destructor'
EXTRN	_AtlThunk_AllocateData@0:PROC
EXTRN	_AtlThunk_InitData@12:PROC
EXTRN	_AtlThunk_DataToCode@4:PROC
EXTRN	??_ECComClassFactory@ATL@@UAEPAXI@Z:PROC	; ATL::CComClassFactory::`vector deleting destructor'
EXTRN	?SetLONG@OposVariant@@QAEXJ@Z:PROC		; OposVariant::SetLONG
EXTRN	?SetLONG_Ptr@OposVariant@@QAEXPAJAAJ@Z:PROC	; OposVariant::SetLONG_Ptr
EXTRN	?SetBSTR_Copy@OposVariant@@QAEXPA_WAAJ@Z:PROC	; OposVariant::SetBSTR_Copy
EXTRN	?SetBSTR_InOutPtr@OposVariant@@QAE_NPAPA_WAAJ@Z:PROC ; OposVariant::SetBSTR_InOutPtr
EXTRN	??0OposDispParms@@QAE@PAVOposVariant@@H@Z:PROC	; OposDispParms::OposDispParms
EXTRN	??1OposDispParms@@QAE@XZ:PROC			; OposDispParms::~OposDispParms
EXTRN	??0COPOSGestureControl@@QAE@XZ:PROC		; COPOSGestureControl::COPOSGestureControl
EXTRN	?FinalConstruct@COPOSGestureControl@@QAEJXZ:PROC ; COPOSGestureControl::FinalConstruct
EXTRN	??1COPOSGestureControl@@UAE@XZ:PROC		; COPOSGestureControl::~COPOSGestureControl
EXTRN	?WriteTrace@COPOSGestureControl@@QAAXPB_WZZ:PROC ; COPOSGestureControl::WriteTrace
EXTRN	?WriteTraceString@COPOSGestureControl@@QAEXPB_WPA_W@Z:PROC ; COPOSGestureControl::WriteTraceString
EXTRN	?FreezeEvents@COPOSGestureControl@@MAGJH@Z:PROC	; COPOSGestureControl::FreezeEvents
EXTRN	?OnDraw@COPOSGestureControl@@MAEJAAUATL_DRAWINFO@@@Z:PROC ; COPOSGestureControl::OnDraw
EXTRN	?SOProcessID@COPOSGestureControl@@UAGJPAJ@Z:PROC ; COPOSGestureControl::SOProcessID
EXTRN	?get_OpenResult@COPOSGestureControl@@UAGJPAJ@Z:PROC ; COPOSGestureControl::get_OpenResult
EXTRN	?get_BinaryConversion@COPOSGestureControl@@UAGJPAJ@Z:PROC ; COPOSGestureControl::get_BinaryConversion
EXTRN	?put_BinaryConversion@COPOSGestureControl@@UAGJJ@Z:PROC ; COPOSGestureControl::put_BinaryConversion
EXTRN	?get_CapPowerReporting@COPOSGestureControl@@UAGJPAJ@Z:PROC ; COPOSGestureControl::get_CapPowerReporting
EXTRN	?get_CheckHealthText@COPOSGestureControl@@UAGJPAPA_W@Z:PROC ; COPOSGestureControl::get_CheckHealthText
EXTRN	?get_Claimed@COPOSGestureControl@@UAGJPAF@Z:PROC ; COPOSGestureControl::get_Claimed
EXTRN	?get_DeviceEnabled@COPOSGestureControl@@UAGJPAF@Z:PROC ; COPOSGestureControl::get_DeviceEnabled
EXTRN	?put_DeviceEnabled@COPOSGestureControl@@UAGJF@Z:PROC ; COPOSGestureControl::put_DeviceEnabled
EXTRN	?get_FreezeEvents@COPOSGestureControl@@UAGJPAF@Z:PROC ; COPOSGestureControl::get_FreezeEvents
EXTRN	?put_FreezeEvents@COPOSGestureControl@@UAGJF@Z:PROC ; COPOSGestureControl::put_FreezeEvents
EXTRN	?get_OutputID@COPOSGestureControl@@UAGJPAJ@Z:PROC ; COPOSGestureControl::get_OutputID
EXTRN	?get_PowerNotify@COPOSGestureControl@@UAGJPAJ@Z:PROC ; COPOSGestureControl::get_PowerNotify
EXTRN	?put_PowerNotify@COPOSGestureControl@@UAGJJ@Z:PROC ; COPOSGestureControl::put_PowerNotify
EXTRN	?get_PowerState@COPOSGestureControl@@UAGJPAJ@Z:PROC ; COPOSGestureControl::get_PowerState
EXTRN	?get_ResultCode@COPOSGestureControl@@UAGJPAJ@Z:PROC ; COPOSGestureControl::get_ResultCode
EXTRN	?get_ResultCodeExtended@COPOSGestureControl@@UAGJPAJ@Z:PROC ; COPOSGestureControl::get_ResultCodeExtended
EXTRN	?get_State@COPOSGestureControl@@UAGJPAJ@Z:PROC	; COPOSGestureControl::get_State
EXTRN	?get_ControlObjectDescription@COPOSGestureControl@@UAGJPAPA_W@Z:PROC ; COPOSGestureControl::get_ControlObjectDescription
EXTRN	?get_ControlObjectVersion@COPOSGestureControl@@UAGJPAJ@Z:PROC ; COPOSGestureControl::get_ControlObjectVersion
EXTRN	?get_ServiceObjectDescription@COPOSGestureControl@@UAGJPAPA_W@Z:PROC ; COPOSGestureControl::get_ServiceObjectDescription
EXTRN	?get_ServiceObjectVersion@COPOSGestureControl@@UAGJPAJ@Z:PROC ; COPOSGestureControl::get_ServiceObjectVersion
EXTRN	?get_DeviceDescription@COPOSGestureControl@@UAGJPAPA_W@Z:PROC ; COPOSGestureControl::get_DeviceDescription
EXTRN	?get_DeviceName@COPOSGestureControl@@UAGJPAPA_W@Z:PROC ; COPOSGestureControl::get_DeviceName
EXTRN	?get_CapStatisticsReporting@COPOSGestureControl@@UAGJPAF@Z:PROC ; COPOSGestureControl::get_CapStatisticsReporting
EXTRN	?get_CapUpdateStatistics@COPOSGestureControl@@UAGJPAF@Z:PROC ; COPOSGestureControl::get_CapUpdateStatistics
EXTRN	?get_CapCompareFirmwareVersion@COPOSGestureControl@@UAGJPAF@Z:PROC ; COPOSGestureControl::get_CapCompareFirmwareVersion
EXTRN	?get_CapUpdateFirmware@COPOSGestureControl@@UAGJPAF@Z:PROC ; COPOSGestureControl::get_CapUpdateFirmware
EXTRN	?CheckHealth@COPOSGestureControl@@UAGJJPAJ@Z:PROC ; COPOSGestureControl::CheckHealth
EXTRN	?ClaimDevice@COPOSGestureControl@@UAGJJPAJ@Z:PROC ; COPOSGestureControl::ClaimDevice
EXTRN	?ClearOutput@COPOSGestureControl@@UAGJPAJ@Z:PROC ; COPOSGestureControl::ClearOutput
EXTRN	?Close@COPOSGestureControl@@UAGJPAJ@Z:PROC	; COPOSGestureControl::Close
EXTRN	?DirectIO@COPOSGestureControl@@UAGJJPAJPAPA_W0@Z:PROC ; COPOSGestureControl::DirectIO
EXTRN	?Open@COPOSGestureControl@@UAGJPA_WPAJ@Z:PROC	; COPOSGestureControl::Open
EXTRN	?ReleaseDevice@COPOSGestureControl@@UAGJPAJ@Z:PROC ; COPOSGestureControl::ReleaseDevice
EXTRN	?ResetStatistics@COPOSGestureControl@@UAGJPA_WPAJ@Z:PROC ; COPOSGestureControl::ResetStatistics
EXTRN	?RetrieveStatistics@COPOSGestureControl@@UAGJPAPA_WPAJ@Z:PROC ; COPOSGestureControl::RetrieveStatistics
EXTRN	?UpdateStatistics@COPOSGestureControl@@UAGJPA_WPAJ@Z:PROC ; COPOSGestureControl::UpdateStatistics
EXTRN	?CompareFirmwareVersion@COPOSGestureControl@@UAGJPA_WPAJ1@Z:PROC ; COPOSGestureControl::CompareFirmwareVersion
EXTRN	?UpdateFirmware@COPOSGestureControl@@UAGJPA_WPAJ@Z:PROC ; COPOSGestureControl::UpdateFirmware
EXTRN	?get_AutoMode@COPOSGestureControl@@UAGJPAPA_W@Z:PROC ; COPOSGestureControl::get_AutoMode
EXTRN	?put_AutoMode@COPOSGestureControl@@UAGJPA_W@Z:PROC ; COPOSGestureControl::put_AutoMode
EXTRN	?get_AutoModeList@COPOSGestureControl@@UAGJPAPA_W@Z:PROC ; COPOSGestureControl::get_AutoModeList
EXTRN	?get_CapAssociatedHardTotalsDevice@COPOSGestureControl@@UAGJPAPA_W@Z:PROC ; COPOSGestureControl::get_CapAssociatedHardTotalsDevice
EXTRN	?get_CapMotion@COPOSGestureControl@@UAGJPAF@Z:PROC ; COPOSGestureControl::get_CapMotion
EXTRN	?get_CapMotionCreation@COPOSGestureControl@@UAGJPAF@Z:PROC ; COPOSGestureControl::get_CapMotionCreation
EXTRN	?get_CapPose@COPOSGestureControl@@UAGJPAF@Z:PROC ; COPOSGestureControl::get_CapPose
EXTRN	?get_CapPoseCreation@COPOSGestureControl@@UAGJPAF@Z:PROC ; COPOSGestureControl::get_CapPoseCreation
EXTRN	?get_CapStorage@COPOSGestureControl@@UAGJPAJ@Z:PROC ; COPOSGestureControl::get_CapStorage
EXTRN	?get_JointList@COPOSGestureControl@@UAGJPAPA_W@Z:PROC ; COPOSGestureControl::get_JointList
EXTRN	?get_MotionList@COPOSGestureControl@@UAGJPAPA_W@Z:PROC ; COPOSGestureControl::get_MotionList
EXTRN	?get_PoseCreationMode@COPOSGestureControl@@UAGJPAF@Z:PROC ; COPOSGestureControl::get_PoseCreationMode
EXTRN	?put_PoseCreationMode@COPOSGestureControl@@UAGJF@Z:PROC ; COPOSGestureControl::put_PoseCreationMode
EXTRN	?get_PoseList@COPOSGestureControl@@UAGJPAPA_W@Z:PROC ; COPOSGestureControl::get_PoseList
EXTRN	?get_Storage@COPOSGestureControl@@UAGJPAJ@Z:PROC ; COPOSGestureControl::get_Storage
EXTRN	?put_Storage@COPOSGestureControl@@UAGJJ@Z:PROC	; COPOSGestureControl::put_Storage
EXTRN	?CreateMotion@COPOSGestureControl@@UAGJPA_W0PAJ@Z:PROC ; COPOSGestureControl::CreateMotion
EXTRN	?CreatePose@COPOSGestureControl@@UAGJPA_WJPAJ@Z:PROC ; COPOSGestureControl::CreatePose
EXTRN	?GetPosition@COPOSGestureControl@@UAGJPA_WPAJ1@Z:PROC ; COPOSGestureControl::GetPosition
EXTRN	?SetPosition@COPOSGestureControl@@UAGJPA_WJFPAJ@Z:PROC ; COPOSGestureControl::SetPosition
EXTRN	?SetSpeed@COPOSGestureControl@@UAGJPA_WJPAJ@Z:PROC ; COPOSGestureControl::SetSpeed
EXTRN	?StartMotion@COPOSGestureControl@@UAGJPA_WPAJ@Z:PROC ; COPOSGestureControl::StartMotion
EXTRN	?StartPose@COPOSGestureControl@@UAGJPA_WPAJ@Z:PROC ; COPOSGestureControl::StartPose
EXTRN	?StopControl@COPOSGestureControl@@UAGJJPAJ@Z:PROC ; COPOSGestureControl::StopControl
EXTRN	??_E?$CComObjectCached@VCComClassFactory@ATL@@@ATL@@UAEPAXI@Z:PROC ; ATL::CComObjectCached<ATL::CComClassFactory>::`vector deleting destructor'
EXTRN	??_E?$CComObject@V?$CComEnum@UIEnumConnectionPoints@@$1?_GUID_b196b285_bab4_101a_b69c_00aa00341d07@@3U__s_GUID@@BPAUIConnectionPoint@@V?$_CopyInterface@UIConnectionPoint@@@ATL@@VCComSingleThreadModel@6@@ATL@@@ATL@@UAEPAXI@Z:PROC ; ATL::CComObject<ATL::CComEnum<IEnumConnectionPoints,&_GUID_b196b285_bab4_101a_b69c_00aa00341d07,IConnectionPoint *,ATL::_CopyInterface<IConnectionPoint>,ATL::CComSingleThreadModel> >::`vector deleting destructor'
