; Listing generated by Microsoft (R) Optimizing Compiler Version 19.28.29336.0 

include listing.inc

INCLUDELIB LIBCMTD
INCLUDELIB OLDNAMES

PUBLIC	?WM_ATLGETHOST@ATL@@3IA				; ATL::WM_ATLGETHOST
PUBLIC	?WM_ATLGETCONTROL@ATL@@3IA			; ATL::WM_ATLGETCONTROL
PUBLIC	LIBID_ATLLib
PUBLIC	__pobjMapEntryFirst
PUBLIC	__pobjMapEntryLast
PUBLIC	?_pPerfRegFunc@ATL@@3P6AJPEAUHINSTANCE__@@@ZEA	; ATL::_pPerfRegFunc
PUBLIC	?_pPerfUnRegFunc@ATL@@3P6AJXZEA			; ATL::_pPerfUnRegFunc
PUBLIC	?_AtlRegisterPerUser@ATL@@3_NA			; ATL::_AtlRegisterPerUser
PUBLIC	?g_WindowName@@3PA_WA				; g_WindowName
PUBLIC	?g_ControlDescription@@3PADA			; g_ControlDescription
PUBLIC	?_pAtlModule@ATL@@3PEAVCAtlModule@1@EA		; ATL::_pAtlModule
PUBLIC	?s_nInstances@COPOSSpeechSynthesis@@1HA		; COPOSSpeechSynthesis::s_nInstances
PUBLIC	?_pModule@ATL@@3PEAVCComModule@1@EA		; ATL::_pModule
PUBLIC	?_pAtlAutoThreadModule@ATL@@3PEAUIAtlAutoThreadModule@1@EA ; ATL::_pAtlAutoThreadModule
PUBLIC	?g_ControlVersion@@3JA				; g_ControlVersion
PUBLIC	?chDirSep@ATL@@3_WB				; ATL::chDirSep
PUBLIC	?chRightBracket@ATL@@3_WB			; ATL::chRightBracket
PUBLIC	?chLeftBracket@ATL@@3_WB			; ATL::chLeftBracket
PUBLIC	?chQuote@ATL@@3_WB				; ATL::chQuote
PUBLIC	?chEquals@ATL@@3_WB				; ATL::chEquals
PUBLIC	?szStringVal@ATL@@3QEB_WEB			; ATL::szStringVal
PUBLIC	?multiszStringVal@ATL@@3QEB_WEB			; ATL::multiszStringVal
PUBLIC	?szDwordVal@ATL@@3QEB_WEB			; ATL::szDwordVal
PUBLIC	?szBinaryVal@ATL@@3QEB_WEB			; ATL::szBinaryVal
PUBLIC	?szValToken@ATL@@3QEB_WEB			; ATL::szValToken
PUBLIC	?szForceRemove@ATL@@3QEB_WEB			; ATL::szForceRemove
PUBLIC	?szNoRemove@ATL@@3QEB_WEB			; ATL::szNoRemove
PUBLIC	?szDelete@ATL@@3QEB_WEB				; ATL::szDelete
PUBLIC	CLSID_Registrar
PUBLIC	IID_IRegistrar
PUBLIC	IID_IDocHostUIHandlerDispatch
PUBLIC	IID_IAxWinHostWindow
PUBLIC	IID_IAxWinHostWindowLic
PUBLIC	IID_IAxWinAmbientDispatch
PUBLIC	IID_IAxWinAmbientDispatchEx
PUBLIC	IID_IInternalConnection
;	COMDAT ?WM_ATLGETHOST@ATL@@3IA
_BSS	SEGMENT
?WM_ATLGETHOST@ATL@@3IA DD 01H DUP (?)			; ATL::WM_ATLGETHOST
_BSS	ENDS
;	COMDAT ?WM_ATLGETCONTROL@ATL@@3IA
_BSS	SEGMENT
?WM_ATLGETCONTROL@ATL@@3IA DD 01H DUP (?)		; ATL::WM_ATLGETCONTROL
_BSS	ENDS
;	COMDAT ?_pPerfRegFunc@ATL@@3P6AJPEAUHINSTANCE__@@@ZEA
_BSS	SEGMENT
?_pPerfRegFunc@ATL@@3P6AJPEAUHINSTANCE__@@@ZEA DQ 01H DUP (?) ; ATL::_pPerfRegFunc
_BSS	ENDS
;	COMDAT ?_pPerfUnRegFunc@ATL@@3P6AJXZEA
_BSS	SEGMENT
?_pPerfUnRegFunc@ATL@@3P6AJXZEA DQ 01H DUP (?)		; ATL::_pPerfUnRegFunc
_BSS	ENDS
;	COMDAT ?_AtlRegisterPerUser@ATL@@3_NA
_BSS	SEGMENT
?_AtlRegisterPerUser@ATL@@3_NA DB 01H DUP (?)		; ATL::_AtlRegisterPerUser
_BSS	ENDS
;	COMDAT ?_pAtlModule@ATL@@3PEAVCAtlModule@1@EA
_BSS	SEGMENT
?_pAtlModule@ATL@@3PEAVCAtlModule@1@EA DQ 01H DUP (?)	; ATL::_pAtlModule
_BSS	ENDS
_BSS	SEGMENT
?s_nInstances@COPOSSpeechSynthesis@@1HA DD 01H DUP (?)	; COPOSSpeechSynthesis::s_nInstances
_BSS	ENDS
;	COMDAT ?_pModule@ATL@@3PEAVCComModule@1@EA
_BSS	SEGMENT
?_pModule@ATL@@3PEAVCComModule@1@EA DQ 01H DUP (?)	; ATL::_pModule
_BSS	ENDS
;	COMDAT ?_pAtlAutoThreadModule@ATL@@3PEAUIAtlAutoThreadModule@1@EA
_BSS	SEGMENT
?_pAtlAutoThreadModule@ATL@@3PEAUIAtlAutoThreadModule@1@EA DQ 01H DUP (?) ; ATL::_pAtlAutoThreadModule
_BSS	ENDS
;	COMDAT IID_IInternalConnection
CONST	SEGMENT
IID_IInternalConnection DD 072ad0770H
	DW	06a9fH
	DW	011d1H
	DB	0bcH
	DB	0ecH
	DB	00H
	DB	060H
	DB	08H
	DB	08fH
	DB	044H
	DB	04eH
CONST	ENDS
;	COMDAT IID_IAxWinAmbientDispatchEx
CONST	SEGMENT
IID_IAxWinAmbientDispatchEx DD 0b2d0778bH
	DW	0ac99H
	DW	04c58H
	DB	0a5H
	DB	0c8H
	DB	0e7H
	DB	072H
	DB	04eH
	DB	053H
	DB	016H
	DB	0b5H
CONST	ENDS
;	COMDAT IID_IAxWinAmbientDispatch
CONST	SEGMENT
IID_IAxWinAmbientDispatch DD 0b6ea2051H
	DW	048aH
	DW	011d1H
	DB	082H
	DB	0b9H
	DB	00H
	DB	0c0H
	DB	04fH
	DB	0b9H
	DB	094H
	DB	02eH
CONST	ENDS
;	COMDAT IID_IAxWinHostWindowLic
CONST	SEGMENT
IID_IAxWinHostWindowLic DD 03935bda8H
	DW	04ed9H
	DW	0495cH
	DB	086H
	DB	050H
	DB	0e0H
	DB	01fH
	DB	0c1H
	DB	0e3H
	DB	08aH
	DB	04bH
CONST	ENDS
;	COMDAT IID_IAxWinHostWindow
CONST	SEGMENT
IID_IAxWinHostWindow DD 0b6ea2050H
	DW	048aH
	DW	011d1H
	DB	082H
	DB	0b9H
	DB	00H
	DB	0c0H
	DB	04fH
	DB	0b9H
	DB	094H
	DB	02eH
CONST	ENDS
;	COMDAT IID_IDocHostUIHandlerDispatch
CONST	SEGMENT
IID_IDocHostUIHandlerDispatch DD 0425b5af0H
	DW	065f1H
	DW	011d1H
	DB	096H
	DB	011H
	DB	00H
	DB	00H
	DB	0f8H
	DB	01eH
	DB	0dH
	DB	0dH
CONST	ENDS
;	COMDAT IID_IRegistrar
CONST	SEGMENT
IID_IRegistrar DD 044ec053bH
	DW	0400fH
	DW	011d0H
	DB	09dH
	DB	0cdH
	DB	00H
	DB	0a0H
	DB	0c9H
	DB	03H
	DB	091H
	DB	0d3H
CONST	ENDS
;	COMDAT CLSID_Registrar
CONST	SEGMENT
CLSID_Registrar DD 044ec053aH
	DW	0400fH
	DW	011d0H
	DB	09dH
	DB	0cdH
	DB	00H
	DB	0a0H
	DB	0c9H
	DB	03H
	DB	091H
	DB	0d3H
CONST	ENDS
;	COMDAT ?szDelete@ATL@@3QEB_WEB
CONST	SEGMENT
?szDelete@ATL@@3QEB_WEB DQ FLAT:$SG110909		; ATL::szDelete
CONST	ENDS
;	COMDAT ?szNoRemove@ATL@@3QEB_WEB
CONST	SEGMENT
?szNoRemove@ATL@@3QEB_WEB DQ FLAT:$SG110907		; ATL::szNoRemove
CONST	ENDS
;	COMDAT ?szForceRemove@ATL@@3QEB_WEB
CONST	SEGMENT
?szForceRemove@ATL@@3QEB_WEB DQ FLAT:$SG110905		; ATL::szForceRemove
CONST	ENDS
;	COMDAT ?szValToken@ATL@@3QEB_WEB
CONST	SEGMENT
?szValToken@ATL@@3QEB_WEB DQ FLAT:$SG110903		; ATL::szValToken
CONST	ENDS
;	COMDAT ?szBinaryVal@ATL@@3QEB_WEB
CONST	SEGMENT
?szBinaryVal@ATL@@3QEB_WEB DQ FLAT:$SG110901		; ATL::szBinaryVal
CONST	ENDS
;	COMDAT ?szDwordVal@ATL@@3QEB_WEB
CONST	SEGMENT
?szDwordVal@ATL@@3QEB_WEB DQ FLAT:$SG110899		; ATL::szDwordVal
CONST	ENDS
;	COMDAT ?multiszStringVal@ATL@@3QEB_WEB
CONST	SEGMENT
?multiszStringVal@ATL@@3QEB_WEB DQ FLAT:$SG110897	; ATL::multiszStringVal
CONST	ENDS
;	COMDAT ?szStringVal@ATL@@3QEB_WEB
CONST	SEGMENT
?szStringVal@ATL@@3QEB_WEB DQ FLAT:$SG110895		; ATL::szStringVal
CONST	ENDS
;	COMDAT ?chEquals@ATL@@3_WB
CONST	SEGMENT
?chEquals@ATL@@3_WB DW 03dH				; ATL::chEquals
CONST	ENDS
;	COMDAT ?chQuote@ATL@@3_WB
CONST	SEGMENT
?chQuote@ATL@@3_WB DW 027H				; ATL::chQuote
CONST	ENDS
;	COMDAT ?chLeftBracket@ATL@@3_WB
CONST	SEGMENT
?chLeftBracket@ATL@@3_WB DW 07bH			; ATL::chLeftBracket
CONST	ENDS
;	COMDAT ?chRightBracket@ATL@@3_WB
CONST	SEGMENT
?chRightBracket@ATL@@3_WB DW 07dH			; ATL::chRightBracket
CONST	ENDS
;	COMDAT ?chDirSep@ATL@@3_WB
CONST	SEGMENT
?chDirSep@ATL@@3_WB DW 05cH				; ATL::chDirSep
CONST	ENDS
_DATA	SEGMENT
?g_WindowName@@3PA_WA DB 'H', 00H, 'W', 00H, '_', 00H, 'O', 00H, 'P', 00H
	DB	'O', 00H, 'S', 00H, 'S', 00H, 'p', 00H, 'e', 00H, 'e', 00H, 'c'
	DB	00H, 'h', 00H, 'S', 00H, 'y', 00H, 'n', 00H, 't', 00H, 'h', 00H
	DB	'e', 00H, 's', 00H, 'i', 00H, 's', 00H, 00H, 00H ; g_WindowName
	ORG $+2
?g_ControlDescription@@3PADA DB 'OPOS SpeechSynthesis Control 1.16.000 [P'
	DB	'ublic, by KF] [With Tracing]', 00H		; g_ControlDescription
	ORG $+3
?g_ControlVersion@@3JA DD 0f80c0H			; g_ControlVersion
_DATA	ENDS
;	COMDAT __pobjMapEntryLast
ATL$__z	SEGMENT
__pobjMapEntryLast DQ 0000000000000000H
ATL$__z	ENDS
;	COMDAT __pobjMapEntryFirst
ATL$__a	SEGMENT
__pobjMapEntryFirst DQ 0000000000000000H
ATL$__a	ENDS
;	COMDAT LIBID_ATLLib
CONST	SEGMENT
LIBID_ATLLib DD	044ec0535H
	DW	0400fH
	DW	011d0H
	DB	09dH
	DB	0cdH
	DB	00H
	DB	0a0H
	DB	0c9H
	DB	03H
	DB	091H
	DB	0d3H
CONST	ENDS
CONST	SEGMENT
$SG197472 DB	'p', 00H, 'T', 00H, 'h', 00H, 'i', 00H, 's', 00H, ' ', 00H
	DB	'!', 00H, '=', 00H, ' ', 00H, '0', 00H, 00H, 00H
	ORG $+2
$SG197473 DB	'%', 00H, 'l', 00H, 's', 00H, 00H, 00H
$SG197474 DB	'C', 00H, ':', 00H, '\', 00H, 'P', 00H, 'r', 00H, 'o', 00H
	DB	'g', 00H, 'r', 00H, 'a', 00H, 'm', 00H, ' ', 00H, 'F', 00H, 'i'
	DB	00H, 'l', 00H, 'e', 00H, 's', 00H, ' ', 00H, '(', 00H, 'x', 00H
	DB	'8', 00H, '6', 00H, ')', 00H, '\', 00H, 'M', 00H, 'i', 00H, 'c'
	DB	00H, 'r', 00H, 'o', 00H, 's', 00H, 'o', 00H, 'f', 00H, 't', 00H
	DB	' ', 00H, 'V', 00H, 'i', 00H, 's', 00H, 'u', 00H, 'a', 00H, 'l'
	DB	00H, ' ', 00H, 'S', 00H, 't', 00H, 'u', 00H, 'd', 00H, 'i', 00H
	DB	'o', 00H, '\', 00H, '2', 00H, '0', 00H, '1', 00H, '9', 00H, '\'
	DB	00H, 'C', 00H, 'o', 00H, 'm', 00H, 'm', 00H, 'u', 00H, 'n', 00H
	DB	'i', 00H, 't', 00H, 'y', 00H, '\', 00H, 'V', 00H, 'C', 00H, '\'
	DB	00H, 'T', 00H, 'o', 00H, 'o', 00H, 'l', 00H, 's', 00H, '\', 00H
	DB	'M', 00H, 'S', 00H, 'V', 00H, 'C', 00H, '\', 00H, '1', 00H, '4'
	DB	00H, '.', 00H, '2', 00H, '8', 00H, '.', 00H, '2', 00H, '9', 00H
	DB	'3', 00H, '3', 00H, '3', 00H, '\', 00H, 'a', 00H, 't', 00H, 'l'
	DB	00H, 'm', 00H, 'f', 00H, 'c', 00H, '\', 00H, 'i', 00H, 'n', 00H
	DB	'c', 00H, 'l', 00H, 'u', 00H, 'd', 00H, 'e', 00H, '\', 00H, 'a'
	DB	00H, 't', 00H, 'l', 00H, 'w', 00H, 'i', 00H, 'n', 00H, '.', 00H
	DB	'h', 00H, 00H, 00H
$SG197477 DB	'C:\Program Files (x86)\Microsoft Visual Studio\2019\Comm'
	DB	'unity\VC\Tools\MSVC\14.28.29333\atlmfc\include\atlwin.h', 00H
$SG197478 DB	'S', 00H, 'u', 00H, 'b', 00H, 'c', 00H, 'l', 00H, 'a', 00H
	DB	's', 00H, 's', 00H, 'i', 00H, 'n', 00H, 'g', 00H, ' ', 00H, 't'
	DB	00H, 'h', 00H, 'r', 00H, 'o', 00H, 'u', 00H, 'g', 00H, 'h', 00H
	DB	' ', 00H, 'a', 00H, ' ', 00H, 'h', 00H, 'o', 00H, 'o', 00H, 'k'
	DB	00H, ' ', 00H, 'd', 00H, 'i', 00H, 's', 00H, 'c', 00H, 'a', 00H
	DB	'r', 00H, 'd', 00H, 'e', 00H, 'd', 00H, '.', 00H, 0aH, 00H, 00H
	DB	00H
	ORG $+2
$SG197497 DB	'p', 00H, 'T', 00H, 'h', 00H, 'i', 00H, 's', 00H, '-', 00H
	DB	'>', 00H, 'm', 00H, '_', 00H, 'p', 00H, 'C', 00H, 'u', 00H, 'r'
	DB	00H, 'r', 00H, 'e', 00H, 'n', 00H, 't', 00H, 'M', 00H, 's', 00H
	DB	'g', 00H, ' ', 00H, '=', 00H, '=', 00H, ' ', 00H, '&', 00H, 'm'
	DB	00H, 's', 00H, 'g', 00H, 00H, 00H
	ORG $+2
$SG181918 DB	':', 00H, 00H, 00H
$SG197498 DB	'%', 00H, 'l', 00H, 's', 00H, 00H, 00H
$SG197534 DB	't', 00H, 'h', 00H, 'i', 00H, 's', 00H, '-', 00H, '>', 00H
	DB	'm', 00H, '_', 00H, 'h', 00H, 'W', 00H, 'n', 00H, 'd', 00H, ' '
	DB	00H, '=', 00H, '=', 00H, ' ', 00H, '0', 00H, 00H, 00H
	ORG $+4
$SG197499 DB	'C', 00H, ':', 00H, '\', 00H, 'P', 00H, 'r', 00H, 'o', 00H
	DB	'g', 00H, 'r', 00H, 'a', 00H, 'm', 00H, ' ', 00H, 'F', 00H, 'i'
	DB	00H, 'l', 00H, 'e', 00H, 's', 00H, ' ', 00H, '(', 00H, 'x', 00H
	DB	'8', 00H, '6', 00H, ')', 00H, '\', 00H, 'M', 00H, 'i', 00H, 'c'
	DB	00H, 'r', 00H, 'o', 00H, 's', 00H, 'o', 00H, 'f', 00H, 't', 00H
	DB	' ', 00H, 'V', 00H, 'i', 00H, 's', 00H, 'u', 00H, 'a', 00H, 'l'
	DB	00H, ' ', 00H, 'S', 00H, 't', 00H, 'u', 00H, 'd', 00H, 'i', 00H
	DB	'o', 00H, '\', 00H, '2', 00H, '0', 00H, '1', 00H, '9', 00H, '\'
	DB	00H, 'C', 00H, 'o', 00H, 'm', 00H, 'm', 00H, 'u', 00H, 'n', 00H
	DB	'i', 00H, 't', 00H, 'y', 00H, '\', 00H, 'V', 00H, 'C', 00H, '\'
	DB	00H, 'T', 00H, 'o', 00H, 'o', 00H, 'l', 00H, 's', 00H, '\', 00H
	DB	'M', 00H, 'S', 00H, 'V', 00H, 'C', 00H, '\', 00H, '1', 00H, '4'
	DB	00H, '.', 00H, '2', 00H, '8', 00H, '.', 00H, '2', 00H, '9', 00H
	DB	'3', 00H, '3', 00H, '3', 00H, '\', 00H, 'a', 00H, 't', 00H, 'l'
	DB	00H, 'm', 00H, 'f', 00H, 'c', 00H, '\', 00H, 'i', 00H, 'n', 00H
	DB	'c', 00H, 'l', 00H, 'u', 00H, 'd', 00H, 'e', 00H, '\', 00H, 'a'
	DB	00H, 't', 00H, 'l', 00H, 'w', 00H, 'i', 00H, 'n', 00H, '.', 00H
	DB	'h', 00H, 00H, 00H
$SG197535 DB	'%', 00H, 'l', 00H, 's', 00H, 00H, 00H
$SG197542 DB	'%', 00H, 'l', 00H, 's', 00H, 00H, 00H
$SG197536 DB	'C', 00H, ':', 00H, '\', 00H, 'P', 00H, 'r', 00H, 'o', 00H
	DB	'g', 00H, 'r', 00H, 'a', 00H, 'm', 00H, ' ', 00H, 'F', 00H, 'i'
	DB	00H, 'l', 00H, 'e', 00H, 's', 00H, ' ', 00H, '(', 00H, 'x', 00H
	DB	'8', 00H, '6', 00H, ')', 00H, '\', 00H, 'M', 00H, 'i', 00H, 'c'
	DB	00H, 'r', 00H, 'o', 00H, 's', 00H, 'o', 00H, 'f', 00H, 't', 00H
	DB	' ', 00H, 'V', 00H, 'i', 00H, 's', 00H, 'u', 00H, 'a', 00H, 'l'
	DB	00H, ' ', 00H, 'S', 00H, 't', 00H, 'u', 00H, 'd', 00H, 'i', 00H
	DB	'o', 00H, '\', 00H, '2', 00H, '0', 00H, '1', 00H, '9', 00H, '\'
	DB	00H, 'C', 00H, 'o', 00H, 'm', 00H, 'm', 00H, 'u', 00H, 'n', 00H
	DB	'i', 00H, 't', 00H, 'y', 00H, '\', 00H, 'V', 00H, 'C', 00H, '\'
	DB	00H, 'T', 00H, 'o', 00H, 'o', 00H, 'l', 00H, 's', 00H, '\', 00H
	DB	'M', 00H, 'S', 00H, 'V', 00H, 'C', 00H, '\', 00H, '1', 00H, '4'
	DB	00H, '.', 00H, '2', 00H, '8', 00H, '.', 00H, '2', 00H, '9', 00H
	DB	'3', 00H, '3', 00H, '3', 00H, '\', 00H, 'a', 00H, 't', 00H, 'l'
	DB	00H, 'm', 00H, 'f', 00H, 'c', 00H, '\', 00H, 'i', 00H, 'n', 00H
	DB	'c', 00H, 'l', 00H, 'u', 00H, 'd', 00H, 'e', 00H, '\', 00H, 'a'
	DB	00H, 't', 00H, 'l', 00H, 'w', 00H, 'i', 00H, 'n', 00H, '.', 00H
	DB	'h', 00H, 00H, 00H
$SG197541 DB	't', 00H, 'h', 00H, 'i', 00H, 's', 00H, '-', 00H, '>', 00H
	DB	'm', 00H, '_', 00H, 'h', 00H, 'W', 00H, 'n', 00H, 'd', 00H, ' '
	DB	00H, '=', 00H, '=', 00H, ' ', 00H, 'h', 00H, 'W', 00H, 'n', 00H
	DB	'd', 00H, 00H, 00H
	ORG $+6
$SG197543 DB	'C', 00H, ':', 00H, '\', 00H, 'P', 00H, 'r', 00H, 'o', 00H
	DB	'g', 00H, 'r', 00H, 'a', 00H, 'm', 00H, ' ', 00H, 'F', 00H, 'i'
	DB	00H, 'l', 00H, 'e', 00H, 's', 00H, ' ', 00H, '(', 00H, 'x', 00H
	DB	'8', 00H, '6', 00H, ')', 00H, '\', 00H, 'M', 00H, 'i', 00H, 'c'
	DB	00H, 'r', 00H, 'o', 00H, 's', 00H, 'o', 00H, 'f', 00H, 't', 00H
	DB	' ', 00H, 'V', 00H, 'i', 00H, 's', 00H, 'u', 00H, 'a', 00H, 'l'
	DB	00H, ' ', 00H, 'S', 00H, 't', 00H, 'u', 00H, 'd', 00H, 'i', 00H
	DB	'o', 00H, '\', 00H, '2', 00H, '0', 00H, '1', 00H, '9', 00H, '\'
	DB	00H, 'C', 00H, 'o', 00H, 'm', 00H, 'm', 00H, 'u', 00H, 'n', 00H
	DB	'i', 00H, 't', 00H, 'y', 00H, '\', 00H, 'V', 00H, 'C', 00H, '\'
	DB	00H, 'T', 00H, 'o', 00H, 'o', 00H, 'l', 00H, 's', 00H, '\', 00H
	DB	'M', 00H, 'S', 00H, 'V', 00H, 'C', 00H, '\', 00H, '1', 00H, '4'
	DB	00H, '.', 00H, '2', 00H, '8', 00H, '.', 00H, '2', 00H, '9', 00H
	DB	'3', 00H, '3', 00H, '3', 00H, '\', 00H, 'a', 00H, 't', 00H, 'l'
	DB	00H, 'm', 00H, 'f', 00H, 'c', 00H, '\', 00H, 'i', 00H, 'n', 00H
	DB	'c', 00H, 'l', 00H, 'u', 00H, 'd', 00H, 'e', 00H, '\', 00H, 'a'
	DB	00H, 't', 00H, 'l', 00H, 'w', 00H, 'i', 00H, 'n', 00H, '.', 00H
	DB	'h', 00H, 00H, 00H
$SG197560 DB	't', 00H, 'h', 00H, 'i', 00H, 's', 00H, '-', 00H, '>', 00H
	DB	'm', 00H, '_', 00H, 'h', 00H, 'W', 00H, 'n', 00H, 'd', 00H, ' '
	DB	00H, '=', 00H, '=', 00H, ' ', 00H, '0', 00H, 00H, 00H
$SG192699 DB	00H, 00H
	ORG $+2
$SG197561 DB	'%', 00H, 'l', 00H, 's', 00H, 00H, 00H
$SG197562 DB	'C', 00H, ':', 00H, '\', 00H, 'P', 00H, 'r', 00H, 'o', 00H
	DB	'g', 00H, 'r', 00H, 'a', 00H, 'm', 00H, ' ', 00H, 'F', 00H, 'i'
	DB	00H, 'l', 00H, 'e', 00H, 's', 00H, ' ', 00H, '(', 00H, 'x', 00H
	DB	'8', 00H, '6', 00H, ')', 00H, '\', 00H, 'M', 00H, 'i', 00H, 'c'
	DB	00H, 'r', 00H, 'o', 00H, 's', 00H, 'o', 00H, 'f', 00H, 't', 00H
	DB	' ', 00H, 'V', 00H, 'i', 00H, 's', 00H, 'u', 00H, 'a', 00H, 'l'
	DB	00H, ' ', 00H, 'S', 00H, 't', 00H, 'u', 00H, 'd', 00H, 'i', 00H
	DB	'o', 00H, '\', 00H, '2', 00H, '0', 00H, '1', 00H, '9', 00H, '\'
	DB	00H, 'C', 00H, 'o', 00H, 'm', 00H, 'm', 00H, 'u', 00H, 'n', 00H
	DB	'i', 00H, 't', 00H, 'y', 00H, '\', 00H, 'V', 00H, 'C', 00H, '\'
	DB	00H, 'T', 00H, 'o', 00H, 'o', 00H, 'l', 00H, 's', 00H, '\', 00H
	DB	'M', 00H, 'S', 00H, 'V', 00H, 'C', 00H, '\', 00H, '1', 00H, '4'
	DB	00H, '.', 00H, '2', 00H, '8', 00H, '.', 00H, '2', 00H, '9', 00H
	DB	'3', 00H, '3', 00H, '3', 00H, '\', 00H, 'a', 00H, 't', 00H, 'l'
	DB	00H, 'm', 00H, 'f', 00H, 'c', 00H, '\', 00H, 'i', 00H, 'n', 00H
	DB	'c', 00H, 'l', 00H, 'u', 00H, 'd', 00H, 'e', 00H, '\', 00H, 'a'
	DB	00H, 't', 00H, 'l', 00H, 'w', 00H, 'i', 00H, 'n', 00H, '.', 00H
	DB	'h', 00H, 00H, 00H
$SG197563 DB	':', 00H, ':', 00H, 'I', 00H, 's', 00H, 'W', 00H, 'i', 00H
	DB	'n', 00H, 'd', 00H, 'o', 00H, 'w', 00H, '(', 00H, 'h', 00H, 'W'
	DB	00H, 'n', 00H, 'd', 00H, ')', 00H, 00H, 00H
	ORG $+2
$SG192707 DB	00H, 00H
	ORG $+2
$SG197564 DB	'%', 00H, 'l', 00H, 's', 00H, 00H, 00H
$SG197565 DB	'C', 00H, ':', 00H, '\', 00H, 'P', 00H, 'r', 00H, 'o', 00H
	DB	'g', 00H, 'r', 00H, 'a', 00H, 'm', 00H, ' ', 00H, 'F', 00H, 'i'
	DB	00H, 'l', 00H, 'e', 00H, 's', 00H, ' ', 00H, '(', 00H, 'x', 00H
	DB	'8', 00H, '6', 00H, ')', 00H, '\', 00H, 'M', 00H, 'i', 00H, 'c'
	DB	00H, 'r', 00H, 'o', 00H, 's', 00H, 'o', 00H, 'f', 00H, 't', 00H
	DB	' ', 00H, 'V', 00H, 'i', 00H, 's', 00H, 'u', 00H, 'a', 00H, 'l'
	DB	00H, ' ', 00H, 'S', 00H, 't', 00H, 'u', 00H, 'd', 00H, 'i', 00H
	DB	'o', 00H, '\', 00H, '2', 00H, '0', 00H, '1', 00H, '9', 00H, '\'
	DB	00H, 'C', 00H, 'o', 00H, 'm', 00H, 'm', 00H, 'u', 00H, 'n', 00H
	DB	'i', 00H, 't', 00H, 'y', 00H, '\', 00H, 'V', 00H, 'C', 00H, '\'
	DB	00H, 'T', 00H, 'o', 00H, 'o', 00H, 'l', 00H, 's', 00H, '\', 00H
	DB	'M', 00H, 'S', 00H, 'V', 00H, 'C', 00H, '\', 00H, '1', 00H, '4'
	DB	00H, '.', 00H, '2', 00H, '8', 00H, '.', 00H, '2', 00H, '9', 00H
	DB	'3', 00H, '3', 00H, '3', 00H, '\', 00H, 'a', 00H, 't', 00H, 'l'
	DB	00H, 'm', 00H, 'f', 00H, 'c', 00H, '\', 00H, 'i', 00H, 'n', 00H
	DB	'c', 00H, 'l', 00H, 'u', 00H, 'd', 00H, 'e', 00H, '\', 00H, 'a'
	DB	00H, 't', 00H, 'l', 00H, 'w', 00H, 'i', 00H, 'n', 00H, '.', 00H
	DB	'h', 00H, 00H, 00H
$SG197583 DB	't', 00H, 'h', 00H, 'i', 00H, 's', 00H, '-', 00H, '>', 00H
	DB	'm', 00H, '_', 00H, 'h', 00H, 'W', 00H, 'n', 00H, 'd', 00H, ' '
	DB	00H, '!', 00H, '=', 00H, ' ', 00H, '0', 00H, 00H, 00H
$SG192764 DB	00H, 00H
	ORG $+2
$SG197584 DB	'%', 00H, 'l', 00H, 's', 00H, 00H, 00H
$SG197585 DB	'C', 00H, ':', 00H, '\', 00H, 'P', 00H, 'r', 00H, 'o', 00H
	DB	'g', 00H, 'r', 00H, 'a', 00H, 'm', 00H, ' ', 00H, 'F', 00H, 'i'
	DB	00H, 'l', 00H, 'e', 00H, 's', 00H, ' ', 00H, '(', 00H, 'x', 00H
	DB	'8', 00H, '6', 00H, ')', 00H, '\', 00H, 'M', 00H, 'i', 00H, 'c'
	DB	00H, 'r', 00H, 'o', 00H, 's', 00H, 'o', 00H, 'f', 00H, 't', 00H
	DB	' ', 00H, 'V', 00H, 'i', 00H, 's', 00H, 'u', 00H, 'a', 00H, 'l'
	DB	00H, ' ', 00H, 'S', 00H, 't', 00H, 'u', 00H, 'd', 00H, 'i', 00H
	DB	'o', 00H, '\', 00H, '2', 00H, '0', 00H, '1', 00H, '9', 00H, '\'
	DB	00H, 'C', 00H, 'o', 00H, 'm', 00H, 'm', 00H, 'u', 00H, 'n', 00H
	DB	'i', 00H, 't', 00H, 'y', 00H, '\', 00H, 'V', 00H, 'C', 00H, '\'
	DB	00H, 'T', 00H, 'o', 00H, 'o', 00H, 'l', 00H, 's', 00H, '\', 00H
	DB	'M', 00H, 'S', 00H, 'V', 00H, 'C', 00H, '\', 00H, '1', 00H, '4'
	DB	00H, '.', 00H, '2', 00H, '8', 00H, '.', 00H, '2', 00H, '9', 00H
	DB	'3', 00H, '3', 00H, '3', 00H, '\', 00H, 'a', 00H, 't', 00H, 'l'
	DB	00H, 'm', 00H, 'f', 00H, 'c', 00H, '\', 00H, 'i', 00H, 'n', 00H
	DB	'c', 00H, 'l', 00H, 'u', 00H, 'd', 00H, 'e', 00H, '\', 00H, 'a'
	DB	00H, 't', 00H, 'l', 00H, 'w', 00H, 'i', 00H, 'n', 00H, '.', 00H
	DB	'h', 00H, 00H, 00H
$SG197607 DB	'p', 00H, 'T', 00H, 'h', 00H, 'i', 00H, 's', 00H, '-', 00H
	DB	'>', 00H, 'm', 00H, '_', 00H, 'p', 00H, 'C', 00H, 'u', 00H, 'r'
	DB	00H, 'r', 00H, 'e', 00H, 'n', 00H, 't', 00H, 'M', 00H, 's', 00H
	DB	'g', 00H, ' ', 00H, '=', 00H, '=', 00H, ' ', 00H, '&', 00H, 'm'
	DB	00H, 's', 00H, 'g', 00H, 00H, 00H
	ORG $+2
$SG192806 DB	00H, 00H
	ORG $+2
$SG197608 DB	'%', 00H, 'l', 00H, 's', 00H, 00H, 00H
$SG197668 DB	'%', 00H, 'l', 00H, 's', 00H, 00H, 00H
$SG197609 DB	'C', 00H, ':', 00H, '\', 00H, 'P', 00H, 'r', 00H, 'o', 00H
	DB	'g', 00H, 'r', 00H, 'a', 00H, 'm', 00H, ' ', 00H, 'F', 00H, 'i'
	DB	00H, 'l', 00H, 'e', 00H, 's', 00H, ' ', 00H, '(', 00H, 'x', 00H
	DB	'8', 00H, '6', 00H, ')', 00H, '\', 00H, 'M', 00H, 'i', 00H, 'c'
	DB	00H, 'r', 00H, 'o', 00H, 's', 00H, 'o', 00H, 'f', 00H, 't', 00H
	DB	' ', 00H, 'V', 00H, 'i', 00H, 's', 00H, 'u', 00H, 'a', 00H, 'l'
	DB	00H, ' ', 00H, 'S', 00H, 't', 00H, 'u', 00H, 'd', 00H, 'i', 00H
	DB	'o', 00H, '\', 00H, '2', 00H, '0', 00H, '1', 00H, '9', 00H, '\'
	DB	00H, 'C', 00H, 'o', 00H, 'm', 00H, 'm', 00H, 'u', 00H, 'n', 00H
	DB	'i', 00H, 't', 00H, 'y', 00H, '\', 00H, 'V', 00H, 'C', 00H, '\'
	DB	00H, 'T', 00H, 'o', 00H, 'o', 00H, 'l', 00H, 's', 00H, '\', 00H
	DB	'M', 00H, 'S', 00H, 'V', 00H, 'C', 00H, '\', 00H, '1', 00H, '4'
	DB	00H, '.', 00H, '2', 00H, '8', 00H, '.', 00H, '2', 00H, '9', 00H
	DB	'3', 00H, '3', 00H, '3', 00H, '\', 00H, 'a', 00H, 't', 00H, 'l'
	DB	00H, 'm', 00H, 'f', 00H, 'c', 00H, '\', 00H, 'i', 00H, 'n', 00H
	DB	'c', 00H, 'l', 00H, 'u', 00H, 'd', 00H, 'e', 00H, '\', 00H, 'a'
	DB	00H, 't', 00H, 'l', 00H, 'w', 00H, 'i', 00H, 'n', 00H, '.', 00H
	DB	'h', 00H, 00H, 00H
$SG197667 DB	'p', 00H, 'p', 00H, ' ', 00H, '!', 00H, '=', 00H, ' ', 00H
	DB	'0', 00H, 00H, 00H
$SG197669 DB	'C', 00H, ':', 00H, '\', 00H, 'D', 00H, 'e', 00H, 'v', 00H
	DB	'e', 00H, 'l', 00H, 'o', 00H, 'p', 00H, '\', 00H, 'O', 00H, 'P'
	DB	00H, 'O', 00H, 'S', 00H, '-', 00H, 'C', 00H, 'C', 00H, 'O', 00H
	DB	'\', 00H, 'C', 00H, 'o', 00H, 'm', 00H, 'm', 00H, 'o', 00H, 'n'
	DB	00H, '\', 00H, 'A', 00H, 'T', 00H, 'L', 00H, '\', 00H, 'a', 00H
	DB	't', 00H, 'l', 00H, 'c', 00H, 'o', 00H, 'm', 00H, '.', 00H, 'h'
	DB	00H, 00H, 00H
$SG197694 DB	'p', 00H, 'p', 00H, ' ', 00H, '!', 00H, '=', 00H, ' ', 00H
	DB	'0', 00H, 00H, 00H
$SG197695 DB	'%', 00H, 'l', 00H, 's', 00H, 00H, 00H
$SG197849 DB	'%', 00H, 'l', 00H, 's', 00H, 00H, 00H
$SG197696 DB	'C', 00H, ':', 00H, '\', 00H, 'D', 00H, 'e', 00H, 'v', 00H
	DB	'e', 00H, 'l', 00H, 'o', 00H, 'p', 00H, '\', 00H, 'O', 00H, 'P'
	DB	00H, 'O', 00H, 'S', 00H, '-', 00H, 'C', 00H, 'C', 00H, 'O', 00H
	DB	'\', 00H, 'C', 00H, 'o', 00H, 'm', 00H, 'm', 00H, 'o', 00H, 'n'
	DB	00H, '\', 00H, 'A', 00H, 'T', 00H, 'L', 00H, '\', 00H, 'a', 00H
	DB	't', 00H, 'l', 00H, 'c', 00H, 'o', 00H, 'm', 00H, '.', 00H, 'h'
	DB	00H, 00H, 00H
$SG197848 DB	'm', 00H, '_', 00H, 'b', 00H, 'e', 00H, 'g', 00H, 'i', 00H
	DB	'n', 00H, ' ', 00H, '=', 00H, '=', 00H, ' ', 00H, '0', 00H, 00H
	DB	00H
	ORG $+6
$SG197850 DB	'C', 00H, ':', 00H, '\', 00H, 'D', 00H, 'e', 00H, 'v', 00H
	DB	'e', 00H, 'l', 00H, 'o', 00H, 'p', 00H, '\', 00H, 'O', 00H, 'P'
	DB	00H, 'O', 00H, 'S', 00H, '-', 00H, 'C', 00H, 'C', 00H, 'O', 00H
	DB	'\', 00H, 'C', 00H, 'o', 00H, 'm', 00H, 'm', 00H, 'o', 00H, 'n'
	DB	00H, '\', 00H, 'A', 00H, 'T', 00H, 'L', 00H, '\', 00H, 'a', 00H
	DB	't', 00H, 'l', 00H, 'c', 00H, 'o', 00H, 'm', 00H, '.', 00H, 'h'
	DB	00H, 00H, 00H
$SG197879 DB	'h', 00H, 'D', 00H, 'a', 00H, 't', 00H, 'a', 00H, ' ', 00H
	DB	'!', 00H, '=', 00H, ' ', 00H, '0', 00H, 00H, 00H
	ORG $+2
$SG197880 DB	'%', 00H, 'l', 00H, 's', 00H, 00H, 00H
$SG197881 DB	'C', 00H, ':', 00H, '\', 00H, 'P', 00H, 'r', 00H, 'o', 00H
	DB	'g', 00H, 'r', 00H, 'a', 00H, 'm', 00H, ' ', 00H, 'F', 00H, 'i'
	DB	00H, 'l', 00H, 'e', 00H, 's', 00H, ' ', 00H, '(', 00H, 'x', 00H
	DB	'8', 00H, '6', 00H, ')', 00H, '\', 00H, 'M', 00H, 'i', 00H, 'c'
	DB	00H, 'r', 00H, 'o', 00H, 's', 00H, 'o', 00H, 'f', 00H, 't', 00H
	DB	' ', 00H, 'V', 00H, 'i', 00H, 's', 00H, 'u', 00H, 'a', 00H, 'l'
	DB	00H, ' ', 00H, 'S', 00H, 't', 00H, 'u', 00H, 'd', 00H, 'i', 00H
	DB	'o', 00H, '\', 00H, '2', 00H, '0', 00H, '1', 00H, '9', 00H, '\'
	DB	00H, 'C', 00H, 'o', 00H, 'm', 00H, 'm', 00H, 'u', 00H, 'n', 00H
	DB	'i', 00H, 't', 00H, 'y', 00H, '\', 00H, 'V', 00H, 'C', 00H, '\'
	DB	00H, 'T', 00H, 'o', 00H, 'o', 00H, 'l', 00H, 's', 00H, '\', 00H
	DB	'M', 00H, 'S', 00H, 'V', 00H, 'C', 00H, '\', 00H, '1', 00H, '4'
	DB	00H, '.', 00H, '2', 00H, '8', 00H, '.', 00H, '2', 00H, '9', 00H
	DB	'3', 00H, '3', 00H, '3', 00H, '\', 00H, 'a', 00H, 't', 00H, 'l'
	DB	00H, 'm', 00H, 'f', 00H, 'c', 00H, '\', 00H, 'i', 00H, 'n', 00H
	DB	'c', 00H, 'l', 00H, 'u', 00H, 'd', 00H, 'e', 00H, '\', 00H, 'a'
	DB	00H, 't', 00H, 'l', 00H, 'h', 00H, 'o', 00H, 's', 00H, 't', 00H
	DB	'.', 00H, 'h', 00H, 00H, 00H
	ORG $+2
$SG110895 DB	'S', 00H, 00H, 00H
$SG197915 DB	'h', 00H, 'D', 00H, 'a', 00H, 't', 00H, 'a', 00H, ' ', 00H
	DB	'!', 00H, '=', 00H, ' ', 00H, '0', 00H, 00H, 00H
	ORG $+2
$SG197916 DB	'%', 00H, 'l', 00H, 's', 00H, 00H, 00H
$SG197951 DB	'h', 00H, 'D', 00H, 'a', 00H, 't', 00H, 'a', 00H, ' ', 00H
	DB	'!', 00H, '=', 00H, ' ', 00H, '0', 00H, 00H, 00H
	ORG $+2
$SG197917 DB	'C', 00H, ':', 00H, '\', 00H, 'P', 00H, 'r', 00H, 'o', 00H
	DB	'g', 00H, 'r', 00H, 'a', 00H, 'm', 00H, ' ', 00H, 'F', 00H, 'i'
	DB	00H, 'l', 00H, 'e', 00H, 's', 00H, ' ', 00H, '(', 00H, 'x', 00H
	DB	'8', 00H, '6', 00H, ')', 00H, '\', 00H, 'M', 00H, 'i', 00H, 'c'
	DB	00H, 'r', 00H, 'o', 00H, 's', 00H, 'o', 00H, 'f', 00H, 't', 00H
	DB	' ', 00H, 'V', 00H, 'i', 00H, 's', 00H, 'u', 00H, 'a', 00H, 'l'
	DB	00H, ' ', 00H, 'S', 00H, 't', 00H, 'u', 00H, 'd', 00H, 'i', 00H
	DB	'o', 00H, '\', 00H, '2', 00H, '0', 00H, '1', 00H, '9', 00H, '\'
	DB	00H, 'C', 00H, 'o', 00H, 'm', 00H, 'm', 00H, 'u', 00H, 'n', 00H
	DB	'i', 00H, 't', 00H, 'y', 00H, '\', 00H, 'V', 00H, 'C', 00H, '\'
	DB	00H, 'T', 00H, 'o', 00H, 'o', 00H, 'l', 00H, 's', 00H, '\', 00H
	DB	'M', 00H, 'S', 00H, 'V', 00H, 'C', 00H, '\', 00H, '1', 00H, '4'
	DB	00H, '.', 00H, '2', 00H, '8', 00H, '.', 00H, '2', 00H, '9', 00H
	DB	'3', 00H, '3', 00H, '3', 00H, '\', 00H, 'a', 00H, 't', 00H, 'l'
	DB	00H, 'm', 00H, 'f', 00H, 'c', 00H, '\', 00H, 'i', 00H, 'n', 00H
	DB	'c', 00H, 'l', 00H, 'u', 00H, 'd', 00H, 'e', 00H, '\', 00H, 'a'
	DB	00H, 't', 00H, 'l', 00H, 'h', 00H, 'o', 00H, 's', 00H, 't', 00H
	DB	'.', 00H, 'h', 00H, 00H, 00H
	ORG $+2
$SG110897 DB	'M', 00H, 00H, 00H
$SG197952 DB	'%', 00H, 'l', 00H, 's', 00H, 00H, 00H
$SG197953 DB	'C', 00H, ':', 00H, '\', 00H, 'P', 00H, 'r', 00H, 'o', 00H
	DB	'g', 00H, 'r', 00H, 'a', 00H, 'm', 00H, ' ', 00H, 'F', 00H, 'i'
	DB	00H, 'l', 00H, 'e', 00H, 's', 00H, ' ', 00H, '(', 00H, 'x', 00H
	DB	'8', 00H, '6', 00H, ')', 00H, '\', 00H, 'M', 00H, 'i', 00H, 'c'
	DB	00H, 'r', 00H, 'o', 00H, 's', 00H, 'o', 00H, 'f', 00H, 't', 00H
	DB	' ', 00H, 'V', 00H, 'i', 00H, 's', 00H, 'u', 00H, 'a', 00H, 'l'
	DB	00H, ' ', 00H, 'S', 00H, 't', 00H, 'u', 00H, 'd', 00H, 'i', 00H
	DB	'o', 00H, '\', 00H, '2', 00H, '0', 00H, '1', 00H, '9', 00H, '\'
	DB	00H, 'C', 00H, 'o', 00H, 'm', 00H, 'm', 00H, 'u', 00H, 'n', 00H
	DB	'i', 00H, 't', 00H, 'y', 00H, '\', 00H, 'V', 00H, 'C', 00H, '\'
	DB	00H, 'T', 00H, 'o', 00H, 'o', 00H, 'l', 00H, 's', 00H, '\', 00H
	DB	'M', 00H, 'S', 00H, 'V', 00H, 'C', 00H, '\', 00H, '1', 00H, '4'
	DB	00H, '.', 00H, '2', 00H, '8', 00H, '.', 00H, '2', 00H, '9', 00H
	DB	'3', 00H, '3', 00H, '3', 00H, '\', 00H, 'a', 00H, 't', 00H, 'l'
	DB	00H, 'm', 00H, 'f', 00H, 'c', 00H, '\', 00H, 'i', 00H, 'n', 00H
	DB	'c', 00H, 'l', 00H, 'u', 00H, 'd', 00H, 'e', 00H, '\', 00H, 'a'
	DB	00H, 't', 00H, 'l', 00H, 'h', 00H, 'o', 00H, 's', 00H, 't', 00H
	DB	'.', 00H, 'h', 00H, 00H, 00H
	ORG $+2
$SG110899 DB	'D', 00H, 00H, 00H
$SG197987 DB	'h', 00H, 'D', 00H, 'a', 00H, 't', 00H, 'a', 00H, ' ', 00H
	DB	'!', 00H, '=', 00H, ' ', 00H, '0', 00H, 00H, 00H
	ORG $+2
$SG197988 DB	'%', 00H, 'l', 00H, 's', 00H, 00H, 00H
$SG181902 DB	'%', 00H, 'l', 00H, 's', 00H, 00H, 00H
$SG197989 DB	'C', 00H, ':', 00H, '\', 00H, 'P', 00H, 'r', 00H, 'o', 00H
	DB	'g', 00H, 'r', 00H, 'a', 00H, 'm', 00H, ' ', 00H, 'F', 00H, 'i'
	DB	00H, 'l', 00H, 'e', 00H, 's', 00H, ' ', 00H, '(', 00H, 'x', 00H
	DB	'8', 00H, '6', 00H, ')', 00H, '\', 00H, 'M', 00H, 'i', 00H, 'c'
	DB	00H, 'r', 00H, 'o', 00H, 's', 00H, 'o', 00H, 'f', 00H, 't', 00H
	DB	' ', 00H, 'V', 00H, 'i', 00H, 's', 00H, 'u', 00H, 'a', 00H, 'l'
	DB	00H, ' ', 00H, 'S', 00H, 't', 00H, 'u', 00H, 'd', 00H, 'i', 00H
	DB	'o', 00H, '\', 00H, '2', 00H, '0', 00H, '1', 00H, '9', 00H, '\'
	DB	00H, 'C', 00H, 'o', 00H, 'm', 00H, 'm', 00H, 'u', 00H, 'n', 00H
	DB	'i', 00H, 't', 00H, 'y', 00H, '\', 00H, 'V', 00H, 'C', 00H, '\'
	DB	00H, 'T', 00H, 'o', 00H, 'o', 00H, 'l', 00H, 's', 00H, '\', 00H
	DB	'M', 00H, 'S', 00H, 'V', 00H, 'C', 00H, '\', 00H, '1', 00H, '4'
	DB	00H, '.', 00H, '2', 00H, '8', 00H, '.', 00H, '2', 00H, '9', 00H
	DB	'3', 00H, '3', 00H, '3', 00H, '\', 00H, 'a', 00H, 't', 00H, 'l'
	DB	00H, 'm', 00H, 'f', 00H, 'c', 00H, '\', 00H, 'i', 00H, 'n', 00H
	DB	'c', 00H, 'l', 00H, 'u', 00H, 'd', 00H, 'e', 00H, '\', 00H, 'a'
	DB	00H, 't', 00H, 'l', 00H, 'h', 00H, 'o', 00H, 's', 00H, 't', 00H
	DB	'.', 00H, 'h', 00H, 00H, 00H
	ORG $+2
$SG110901 DB	'B', 00H, 00H, 00H
$SG181901 DB	'p', 00H, 'p', 00H, 'v', 00H, 'O', 00H, 'b', 00H, 'j', 00H
	DB	00H, 00H
	ORG $+2
$SG198573 DB	'%', 00H, 'l', 00H, 's', 00H, 00H, 00H
$SG181903 DB	'C', 00H, ':', 00H, '\', 00H, 'P', 00H, 'r', 00H, 'o', 00H
	DB	'g', 00H, 'r', 00H, 'a', 00H, 'm', 00H, ' ', 00H, 'F', 00H, 'i'
	DB	00H, 'l', 00H, 'e', 00H, 's', 00H, ' ', 00H, '(', 00H, 'x', 00H
	DB	'8', 00H, '6', 00H, ')', 00H, '\', 00H, 'M', 00H, 'i', 00H, 'c'
	DB	00H, 'r', 00H, 'o', 00H, 's', 00H, 'o', 00H, 'f', 00H, 't', 00H
	DB	' ', 00H, 'V', 00H, 'i', 00H, 's', 00H, 'u', 00H, 'a', 00H, 'l'
	DB	00H, ' ', 00H, 'S', 00H, 't', 00H, 'u', 00H, 'd', 00H, 'i', 00H
	DB	'o', 00H, '\', 00H, '2', 00H, '0', 00H, '1', 00H, '9', 00H, '\'
	DB	00H, 'C', 00H, 'o', 00H, 'm', 00H, 'm', 00H, 'u', 00H, 'n', 00H
	DB	'i', 00H, 't', 00H, 'y', 00H, '\', 00H, 'V', 00H, 'C', 00H, '\'
	DB	00H, 'T', 00H, 'o', 00H, 'o', 00H, 'l', 00H, 's', 00H, '\', 00H
	DB	'M', 00H, 'S', 00H, 'V', 00H, 'C', 00H, '\', 00H, '1', 00H, '4'
	DB	00H, '.', 00H, '2', 00H, '8', 00H, '.', 00H, '2', 00H, '9', 00H
	DB	'3', 00H, '3', 00H, '3', 00H, '\', 00H, 'a', 00H, 't', 00H, 'l'
	DB	00H, 'm', 00H, 'f', 00H, 'c', 00H, '\', 00H, 'i', 00H, 'n', 00H
	DB	'c', 00H, 'l', 00H, 'u', 00H, 'd', 00H, 'e', 00H, '\', 00H, 'a'
	DB	00H, 't', 00H, 'l', 00H, 'h', 00H, 'o', 00H, 's', 00H, 't', 00H
	DB	'.', 00H, 'h', 00H, 00H, 00H
	ORG $+2
$SG192910 DB	00H, 00H
	ORG $+2
$SG198572 DB	'm', 00H, '_', 00H, 'b', 00H, 'e', 00H, 'g', 00H, 'i', 00H
	DB	'n', 00H, ' ', 00H, '=', 00H, '=', 00H, ' ', 00H, '0', 00H, 00H
	DB	00H
	ORG $+6
$SG198775 DB	'p', 00H, 'p', 00H, ' ', 00H, '!', 00H, '=', 00H, ' ', 00H
	DB	'0', 00H, 00H, 00H
$SG198776 DB	'%', 00H, 'l', 00H, 's', 00H, 00H, 00H
$SG198574 DB	'C', 00H, ':', 00H, '\', 00H, 'D', 00H, 'e', 00H, 'v', 00H
	DB	'e', 00H, 'l', 00H, 'o', 00H, 'p', 00H, '\', 00H, 'O', 00H, 'P'
	DB	00H, 'O', 00H, 'S', 00H, '-', 00H, 'C', 00H, 'C', 00H, 'O', 00H
	DB	'\', 00H, 'C', 00H, 'o', 00H, 'm', 00H, 'm', 00H, 'o', 00H, 'n'
	DB	00H, '\', 00H, 'A', 00H, 'T', 00H, 'L', 00H, '\', 00H, 'a', 00H
	DB	't', 00H, 'l', 00H, 'c', 00H, 'o', 00H, 'm', 00H, '.', 00H, 'h'
	DB	00H, 00H, 00H
$SG198777 DB	'C', 00H, ':', 00H, '\', 00H, 'D', 00H, 'e', 00H, 'v', 00H
	DB	'e', 00H, 'l', 00H, 'o', 00H, 'p', 00H, '\', 00H, 'O', 00H, 'P'
	DB	00H, 'O', 00H, 'S', 00H, '-', 00H, 'C', 00H, 'C', 00H, 'O', 00H
	DB	'\', 00H, 'C', 00H, 'o', 00H, 'm', 00H, 'm', 00H, 'o', 00H, 'n'
	DB	00H, '\', 00H, 'A', 00H, 'T', 00H, 'L', 00H, '\', 00H, 'a', 00H
	DB	't', 00H, 'l', 00H, 'c', 00H, 'o', 00H, 'm', 00H, '.', 00H, 'h'
	DB	00H, 00H, 00H
$SG198802 DB	'p', 00H, 'p', 00H, ' ', 00H, '!', 00H, '=', 00H, ' ', 00H
	DB	'0', 00H, 00H, 00H
$SG198803 DB	'%', 00H, 'l', 00H, 's', 00H, 00H, 00H
$SG198954 DB	'%', 00H, 'l', 00H, 's', 00H, 00H, 00H
$SG198804 DB	'C', 00H, ':', 00H, '\', 00H, 'D', 00H, 'e', 00H, 'v', 00H
	DB	'e', 00H, 'l', 00H, 'o', 00H, 'p', 00H, '\', 00H, 'O', 00H, 'P'
	DB	00H, 'O', 00H, 'S', 00H, '-', 00H, 'C', 00H, 'C', 00H, 'O', 00H
	DB	'\', 00H, 'C', 00H, 'o', 00H, 'm', 00H, 'm', 00H, 'o', 00H, 'n'
	DB	00H, '\', 00H, 'A', 00H, 'T', 00H, 'L', 00H, '\', 00H, 'a', 00H
	DB	't', 00H, 'l', 00H, 'c', 00H, 'o', 00H, 'm', 00H, '.', 00H, 'h'
	DB	00H, 00H, 00H
$SG198953 DB	'm', 00H, '_', 00H, 'b', 00H, 'e', 00H, 'g', 00H, 'i', 00H
	DB	'n', 00H, ' ', 00H, '=', 00H, '=', 00H, ' ', 00H, '0', 00H, 00H
	DB	00H
	ORG $+6
$SG198955 DB	'C', 00H, ':', 00H, '\', 00H, 'D', 00H, 'e', 00H, 'v', 00H
	DB	'e', 00H, 'l', 00H, 'o', 00H, 'p', 00H, '\', 00H, 'O', 00H, 'P'
	DB	00H, 'O', 00H, 'S', 00H, '-', 00H, 'C', 00H, 'C', 00H, 'O', 00H
	DB	'\', 00H, 'C', 00H, 'o', 00H, 'm', 00H, 'm', 00H, 'o', 00H, 'n'
	DB	00H, '\', 00H, 'A', 00H, 'T', 00H, 'L', 00H, '\', 00H, 'a', 00H
	DB	't', 00H, 'l', 00H, 'c', 00H, 'o', 00H, 'm', 00H, '.', 00H, 'h'
	DB	00H, 00H, 00H
$SG198977 DB	'p', 00H, 'p', 00H, ' ', 00H, '!', 00H, '=', 00H, ' ', 00H
	DB	'0', 00H, 00H, 00H
$SG198978 DB	'%', 00H, 'l', 00H, 's', 00H, 00H, 00H
$SG93252 DB	'a', 00H, 't', 00H, 'l', 00H, 'T', 00H, 'r', 00H, 'a', 00H
	DB	'c', 00H, 'e', 00H, 'C', 00H, 'O', 00H, 'M', 00H, 00H, 00H
$SG198979 DB	'C', 00H, ':', 00H, '\', 00H, 'D', 00H, 'e', 00H, 'v', 00H
	DB	'e', 00H, 'l', 00H, 'o', 00H, 'p', 00H, '\', 00H, 'O', 00H, 'P'
	DB	00H, 'O', 00H, 'S', 00H, '-', 00H, 'C', 00H, 'C', 00H, 'O', 00H
	DB	'\', 00H, 'C', 00H, 'o', 00H, 'm', 00H, 'm', 00H, 'o', 00H, 'n'
	DB	00H, '\', 00H, 'A', 00H, 'T', 00H, 'L', 00H, '\', 00H, 'a', 00H
	DB	't', 00H, 'l', 00H, 'c', 00H, 'o', 00H, 'm', 00H, '.', 00H, 'h'
	DB	00H, 00H, 00H
$SG93179 DB	'a', 00H, 't', 00H, 'l', 00H, 'T', 00H, 'r', 00H, 'a', 00H
	DB	'c', 00H, 'e', 00H, 'G', 00H, 'e', 00H, 'n', 00H, 'e', 00H, 'r'
	DB	00H, 'a', 00H, 'l', 00H, 00H, 00H
$SG93301 DB	'a', 00H, 't', 00H, 'l', 00H, 'T', 00H, 'r', 00H, 'a', 00H
	DB	'c', 00H, 'e', 00H, 'Q', 00H, 'I', 00H, 00H, 00H
	ORG $+2
$SG93350 DB	'a', 00H, 't', 00H, 'l', 00H, 'T', 00H, 'r', 00H, 'a', 00H
	DB	'c', 00H, 'e', 00H, 'R', 00H, 'e', 00H, 'g', 00H, 'i', 00H, 's'
	DB	00H, 't', 00H, 'r', 00H, 'a', 00H, 'r', 00H, 00H, 00H
$SG192988 DB	00H, 00H
	ORG $+2
$SG93399 DB	'a', 00H, 't', 00H, 'l', 00H, 'T', 00H, 'r', 00H, 'a', 00H
	DB	'c', 00H, 'e', 00H, 'R', 00H, 'e', 00H, 'f', 00H, 'c', 00H, 'o'
	DB	00H, 'u', 00H, 'n', 00H, 't', 00H, 00H, 00H
	ORG $+2
$SG192989 DB	's', 00H, 00H, 00H
$SG93448 DB	'a', 00H, 't', 00H, 'l', 00H, 'T', 00H, 'r', 00H, 'a', 00H
	DB	'c', 00H, 'e', 00H, 'W', 00H, 'i', 00H, 'n', 00H, 'd', 00H, 'o'
	DB	00H, 'w', 00H, 'i', 00H, 'n', 00H, 'g', 00H, 00H, 00H
$SG193018 DB	00H, 00H
	ORG $+2
$SG93497 DB	'a', 00H, 't', 00H, 'l', 00H, 'T', 00H, 'r', 00H, 'a', 00H
	DB	'c', 00H, 'e', 00H, 'C', 00H, 'o', 00H, 'n', 00H, 't', 00H, 'r'
	DB	00H, 'o', 00H, 'l', 00H, 's', 00H, 00H, 00H
	ORG $+2
$SG193685 DB	'Volume', 00H
	ORG $+1
$SG193705 DB	'a', 00H, 00H, 00H
$SG93546 DB	'a', 00H, 't', 00H, 'l', 00H, 'T', 00H, 'r', 00H, 'a', 00H
	DB	'c', 00H, 'e', 00H, 'H', 00H, 'o', 00H, 's', 00H, 't', 00H, 'i'
	DB	00H, 'n', 00H, 'g', 00H, 00H, 00H
$SG93595 DB	'a', 00H, 't', 00H, 'l', 00H, 'T', 00H, 'r', 00H, 'a', 00H
	DB	'c', 00H, 'e', 00H, 'D', 00H, 'B', 00H, 'C', 00H, 'l', 00H, 'i'
	DB	00H, 'e', 00H, 'n', 00H, 't', 00H, 00H, 00H
	ORG $+2
$SG193690 DB	'Volume', 00H
	ORG $+1
$SG193812 DB	'>', 00H, 00H, 00H
$SG93644 DB	'a', 00H, 't', 00H, 'l', 00H, 'T', 00H, 'r', 00H, 'a', 00H
	DB	'c', 00H, 'e', 00H, 'D', 00H, 'B', 00H, 'P', 00H, 'r', 00H, 'o'
	DB	00H, 'v', 00H, 'i', 00H, 'd', 00H, 'e', 00H, 'r', 00H, 00H, 00H
	ORG $+2
$SG93693 DB	'a', 00H, 't', 00H, 'l', 00H, 'T', 00H, 'r', 00H, 'a', 00H
	DB	'c', 00H, 'e', 00H, 'S', 00H, 'n', 00H, 'a', 00H, 'p', 00H, 'i'
	DB	00H, 'n', 00H, 00H, 00H
	ORG $+2
$SG93742 DB	'a', 00H, 't', 00H, 'l', 00H, 'T', 00H, 'r', 00H, 'a', 00H
	DB	'c', 00H, 'e', 00H, 'N', 00H, 'o', 00H, 't', 00H, 'I', 00H, 'm'
	DB	00H, 'p', 00H, 'l', 00H, 00H, 00H
$SG93791 DB	'a', 00H, 't', 00H, 'l', 00H, 'T', 00H, 'r', 00H, 'a', 00H
	DB	'c', 00H, 'e', 00H, 'A', 00H, 'l', 00H, 'l', 00H, 'o', 00H, 'c'
	DB	00H, 'a', 00H, 't', 00H, 'i', 00H, 'o', 00H, 'n', 00H, 00H, 00H
	ORG $+2
$SG93840 DB	'a', 00H, 't', 00H, 'l', 00H, 'T', 00H, 'r', 00H, 'a', 00H
	DB	'c', 00H, 'e', 00H, 'E', 00H, 'x', 00H, 'c', 00H, 'e', 00H, 'p'
	DB	00H, 't', 00H, 'i', 00H, 'o', 00H, 'n', 00H, 00H, 00H
$SG186218 DB	00H, 00H
	ORG $+2
$SG93889 DB	'a', 00H, 't', 00H, 'l', 00H, 'T', 00H, 'r', 00H, 'a', 00H
	DB	'c', 00H, 'e', 00H, 'T', 00H, 'i', 00H, 'm', 00H, 'e', 00H, 00H
	DB	00H
	ORG $+2
$SG186312 DB	00H, 00H
	ORG $+2
$SG93938 DB	'a', 00H, 't', 00H, 'l', 00H, 'T', 00H, 'r', 00H, 'a', 00H
	DB	'c', 00H, 'e', 00H, 'C', 00H, 'a', 00H, 'c', 00H, 'h', 00H, 'e'
	DB	00H, 00H, 00H
	ORG $+4
$SG93987 DB	'a', 00H, 't', 00H, 'l', 00H, 'T', 00H, 'r', 00H, 'a', 00H
	DB	'c', 00H, 'e', 00H, 'S', 00H, 't', 00H, 'e', 00H, 'n', 00H, 'c'
	DB	00H, 'i', 00H, 'l', 00H, 00H, 00H
$SG94036 DB	'a', 00H, 't', 00H, 'l', 00H, 'T', 00H, 'r', 00H, 'a', 00H
	DB	'c', 00H, 'e', 00H, 'S', 00H, 't', 00H, 'r', 00H, 'i', 00H, 'n'
	DB	00H, 'g', 00H, 00H, 00H
	ORG $+2
$SG94085 DB	'a', 00H, 't', 00H, 'l', 00H, 'T', 00H, 'r', 00H, 'a', 00H
	DB	'c', 00H, 'e', 00H, 'M', 00H, 'a', 00H, 'p', 00H, 00H, 00H
$SG94090 DB	'a', 00H, 't', 00H, 'l', 00H, 'T', 00H, 'r', 00H, 'a', 00H
	DB	'c', 00H, 'e', 00H, 'U', 00H, 't', 00H, 'i', 00H, 'l', 00H, 00H
	DB	00H
	ORG $+6
$SG94139 DB	'a', 00H, 't', 00H, 'l', 00H, 'T', 00H, 'r', 00H, 'a', 00H
	DB	'c', 00H, 'e', 00H, 'S', 00H, 'e', 00H, 'c', 00H, 'u', 00H, 'r'
	DB	00H, 'i', 00H, 't', 00H, 'y', 00H, 00H, 00H
	ORG $+6
$SG94188 DB	'a', 00H, 't', 00H, 'l', 00H, 'T', 00H, 'r', 00H, 'a', 00H
	DB	'c', 00H, 'e', 00H, 'S', 00H, 'y', 00H, 'n', 00H, 'c', 00H, 00H
	DB	00H
	ORG $+6
$SG94237 DB	'a', 00H, 't', 00H, 'l', 00H, 'T', 00H, 'r', 00H, 'a', 00H
	DB	'c', 00H, 'e', 00H, 'I', 00H, 'S', 00H, 'A', 00H, 'P', 00H, 'I'
	DB	00H, 00H, 00H
	ORG $+4
$SG192587 DB	'COFreezeEvents', 00H
	ORG $+1
$SG192588 DB	'GetPropertyNumber', 00H
	ORG $+6
$SG192589 DB	'SetPropertyNumber', 00H
	ORG $+6
$SG192590 DB	'GetPropertyString', 00H
	ORG $+6
$SG192591 DB	'SetPropertyString', 00H
	ORG $+6
$SG192592 DB	'OpenService', 00H
	ORG $+4
$SG192593 DB	'CheckHealth', 00H
	ORG $+4
$SG192594 DB	'ClaimDevice', 00H
	ORG $+4
$SG192595 DB	'ClearOutput', 00H
	ORG $+4
$SG192596 DB	'CloseService', 00H
	ORG $+3
$SG192597 DB	'DirectIO', 00H
	ORG $+3
$SG192604 DB	'Speak', 00H
	ORG $+6
$SG192598 DB	'ReleaseDevice', 00H
	ORG $+2
$SG192599 DB	'ResetStatistics', 00H
$SG192600 DB	'RetrieveStatistics', 00H
	ORG $+5
$SG192601 DB	'UpdateStatistics', 00H
	ORG $+3
$SG193418 DB	'Speak', 00H
	ORG $+6
$SG192602 DB	'CompareFirmwareVersion', 00H
	ORG $+1
$SG192603 DB	'UpdateFirmware', 00H
	ORG $+1
$SG192605 DB	'SpeakImmediate', 00H
	ORG $+1
$SG192606 DB	'StopCurrentSpeaking', 00H
	ORG $+4
$SG192607 DB	'StopSpeaking', 00H
	ORG $+3
$SG192700 DB	'*', 00H, 'C', 00H, 'o', 00H, 'n', 00H, 's', 00H, 't', 00H
	DB	'r', 00H, 'u', 00H, 'c', 00H, 't', 00H, 'i', 00H, 'n', 00H, 'g'
	DB	00H, ':', 00H, ' ', 00H, '%', 00H, 'h', 00H, 's', 00H, 00H, 00H
	ORG $+2
$SG192705 DB	'*', 00H, 'D', 00H, 'e', 00H, 's', 00H, 't', 00H, 'r', 00H
	DB	'u', 00H, 'c', 00H, 't', 00H, 'i', 00H, 'n', 00H, 'g', 00H, 00H
	DB	00H
	ORG $+6
$SG192715 DB	'*', 00H, 'F', 00H, 'r', 00H, 'e', 00H, 'e', 00H, 'z', 00H
	DB	'e', 00H, 'E', 00H, 'v', 00H, 'e', 00H, 'n', 00H, 't', 00H, 's'
	DB	00H, ':', 00H, ' ', 00H, 'F', 00H, 'r', 00H, 'e', 00H, 'e', 00H
	DB	'z', 00H, 'i', 00H, 'n', 00H, 'g', 00H, ' ', 00H, '%', 00H, 'd'
	DB	00H, 00H, 00H
	ORG $+2
$SG192717 DB	'*', 00H, 'F', 00H, 'r', 00H, 'e', 00H, 'e', 00H, 'z', 00H
	DB	'e', 00H, 'E', 00H, 'v', 00H, 'e', 00H, 'n', 00H, 't', 00H, 's'
	DB	00H, ':', 00H, ' ', 00H, 'U', 00H, 'n', 00H, 'f', 00H, 'r', 00H
	DB	'e', 00H, 'e', 00H, 'z', 00H, 'i', 00H, 'n', 00H, 'g', 00H, ' '
	DB	00H, '%', 00H, 'd', 00H, 00H, 00H
	ORG $+6
$SG192761 DB	'+', 00H, '%', 00H, 'h', 00H, 's', 00H, ' ', 00H, '[', 00H
	DB	'G', 00H, 'e', 00H, 't', 00H, ']', 00H, 00H, 00H
	ORG $+2
$SG192767 DB	' ', 00H, '-', 00H, '-', 00H, ' ', 00H, 'C', 00H, 'l', 00H
	DB	'o', 00H, 's', 00H, 'e', 00H, 'd', 00H, 00H, 00H
	ORG $+2
$SG192770 DB	' ', 00H, '-', 00H, '-', 00H, ' ', 00H, 'N', 00H, 'o', 00H
	DB	't', 00H, ' ', 00H, 's', 00H, 'u', 00H, 'p', 00H, 'p', 00H, 'o'
	DB	00H, 'r', 00H, 't', 00H, 'e', 00H, 'd', 00H, ' ', 00H, 'b', 00H
	DB	'y', 00H, ' ', 00H, 'S', 00H, 'O', 00H, 00H, 00H
$SG192772 DB	' ', 00H, '-', 00H, '-', 00H, ' ', 00H, 'C', 00H, 'O', 00H
	DB	'M', 00H, ' ', 00H, 'e', 00H, 'r', 00H, 'r', 00H, 'o', 00H, 'r'
	DB	00H, ':', 00H, ' ', 00H, 'H', 00H, 'R', 00H, ' ', 00H, '=', 00H
	DB	' ', 00H, '0', 00H, 'x', 00H, '%', 00H, 'X', 00H, 00H, 00H
	ORG $+6
$SG192773 DB	'-', 00H, '%', 00H, 'h', 00H, 's', 00H, ' ', 00H, '[', 00H
	DB	'G', 00H, 'e', 00H, 't', 00H, ']', 00H, ':', 00H, ' ', 00H, '%'
	DB	00H, 'd', 00H, ' ', 00H, '(', 00H, '0', 00H, 'x', 00H, '%', 00H
	DB	'X', 00H, ')', 00H, '%', 00H, 's', 00H, 00H, 00H
$SG192802 DB	'+', 00H, '%', 00H, 'h', 00H, 's', 00H, ' ', 00H, '[', 00H
	DB	'S', 00H, 'e', 00H, 't', 00H, ']', 00H, ':', 00H, ' ', 00H, '%'
	DB	00H, 'd', 00H, ' ', 00H, '(', 00H, '0', 00H, 'x', 00H, '%', 00H
	DB	'X', 00H, ')', 00H, 00H, 00H
	ORG $+4
$SG192809 DB	' ', 00H, '-', 00H, '-', 00H, ' ', 00H, 'C', 00H, 'l', 00H
	DB	'o', 00H, 's', 00H, 'e', 00H, 'd', 00H, 00H, 00H
	ORG $+2
$SG192812 DB	' ', 00H, '-', 00H, '-', 00H, ' ', 00H, 'N', 00H, 'o', 00H
	DB	't', 00H, ' ', 00H, 's', 00H, 'u', 00H, 'p', 00H, 'p', 00H, 'o'
	DB	00H, 'r', 00H, 't', 00H, 'e', 00H, 'd', 00H, ' ', 00H, 'b', 00H
	DB	'y', 00H, ' ', 00H, 'S', 00H, 'O', 00H, 00H, 00H
$SG192814 DB	' ', 00H, '-', 00H, '-', 00H, ' ', 00H, 'C', 00H, 'O', 00H
	DB	'M', 00H, ' ', 00H, 'e', 00H, 'r', 00H, 'r', 00H, 'o', 00H, 'r'
	DB	00H, ':', 00H, ' ', 00H, 'H', 00H, 'R', 00H, ' ', 00H, '=', 00H
	DB	' ', 00H, '0', 00H, 'x', 00H, '%', 00H, 'X', 00H, 00H, 00H
	ORG $+6
$SG192815 DB	'-', 00H, '%', 00H, 'h', 00H, 's', 00H, ' ', 00H, '[', 00H
	DB	'S', 00H, 'e', 00H, 't', 00H, ']', 00H, '%', 00H, 's', 00H, 00H
	DB	00H
	ORG $+6
$SG110903 DB	'V', 00H, 'a', 00H, 'l', 00H, 00H, 00H
$SG110905 DB	'F', 00H, 'o', 00H, 'r', 00H, 'c', 00H, 'e', 00H, 'R', 00H
	DB	'e', 00H, 'm', 00H, 'o', 00H, 'v', 00H, 'e', 00H, 00H, 00H
$SG110907 DB	'N', 00H, 'o', 00H, 'R', 00H, 'e', 00H, 'm', 00H, 'o', 00H
	DB	'v', 00H, 'e', 00H, 00H, 00H
	ORG $+6
$SG110909 DB	'D', 00H, 'e', 00H, 'l', 00H, 'e', 00H, 't', 00H, 'e', 00H
	DB	00H, 00H
	ORG $+2
$SG192860 DB	'+', 00H, '%', 00H, 'h', 00H, 's', 00H, ' ', 00H, '[', 00H
	DB	'G', 00H, 'e', 00H, 't', 00H, ']', 00H, 00H, 00H
	ORG $+2
$SG192864 DB	'[', 00H, 'E', 00H, 'r', 00H, 'r', 00H, 'o', 00H, 'r', 00H
	DB	']', 00H, 00H, 00H
$SG192865 DB	'-', 00H, '%', 00H, 'h', 00H, 's', 00H, ' ', 00H, '[', 00H
	DB	'G', 00H, 'e', 00H, 't', 00H, ']', 00H, '.', 00H, 00H, 00H
$SG192868 DB	'-', 00H, '%', 00H, 'h', 00H, 's', 00H, ' ', 00H, '[', 00H
	DB	'G', 00H, 'e', 00H, 't', 00H, ']', 00H, ' ', 00H, '-', 00H, '-'
	DB	00H, ' ', 00H, 'C', 00H, 'l', 00H, 'o', 00H, 's', 00H, 'e', 00H
	DB	'd', 00H, '.', 00H, 00H, 00H
$SG193481 DB	'State', 00H
	ORG $+6
$SG192871 DB	'-', 00H, '%', 00H, 'h', 00H, 's', 00H, ' ', 00H, '[', 00H
	DB	'G', 00H, 'e', 00H, 't', 00H, ']', 00H, ' ', 00H, '-', 00H, '-'
	DB	00H, ' ', 00H, 'N', 00H, 'o', 00H, 't', 00H, ' ', 00H, 's', 00H
	DB	'u', 00H, 'p', 00H, 'p', 00H, 'o', 00H, 'r', 00H, 't', 00H, 'e'
	DB	00H, 'd', 00H, ' ', 00H, 'b', 00H, 'y', 00H, ' ', 00H, 'S', 00H
	DB	'O', 00H, '.', 00H, 00H, 00H
	ORG $+2
$SG192905 DB	'+', 00H, '%', 00H, 'h', 00H, 's', 00H, ' ', 00H, '[', 00H
	DB	'S', 00H, 'e', 00H, 't', 00H, ']', 00H, '.', 00H, 00H, 00H
$SG192873 DB	'-', 00H, '%', 00H, 'h', 00H, 's', 00H, ' ', 00H, '[', 00H
	DB	'G', 00H, 'e', 00H, 't', 00H, ']', 00H, ' ', 00H, '-', 00H, '-'
	DB	00H, ' ', 00H, 'C', 00H, 'O', 00H, 'M', 00H, ' ', 00H, 'e', 00H
	DB	'r', 00H, 'r', 00H, 'o', 00H, 'r', 00H, ':', 00H, ' ', 00H, 'H'
	DB	00H, 'R', 00H, ' ', 00H, '=', 00H, ' ', 00H, '0', 00H, 'x', 00H
	DB	'%', 00H, 'X', 00H, 00H, 00H
	ORG $+2
$SG192913 DB	' ', 00H, '-', 00H, '-', 00H, ' ', 00H, 'C', 00H, 'l', 00H
	DB	'o', 00H, 's', 00H, 'e', 00H, 'd', 00H, 00H, 00H
	ORG $+2
$SG192916 DB	' ', 00H, '-', 00H, '-', 00H, ' ', 00H, 'N', 00H, 'o', 00H
	DB	't', 00H, ' ', 00H, 's', 00H, 'u', 00H, 'p', 00H, 'p', 00H, 'o'
	DB	00H, 'r', 00H, 't', 00H, 'e', 00H, 'd', 00H, ' ', 00H, 'b', 00H
	DB	'y', 00H, ' ', 00H, 'S', 00H, 'O', 00H, 00H, 00H
$SG192918 DB	' ', 00H, '-', 00H, '-', 00H, ' ', 00H, 'C', 00H, 'O', 00H
	DB	'M', 00H, ' ', 00H, 'e', 00H, 'r', 00H, 'r', 00H, 'o', 00H, 'r'
	DB	00H, ':', 00H, ' ', 00H, 'H', 00H, 'R', 00H, ' ', 00H, '=', 00H
	DB	' ', 00H, '0', 00H, 'x', 00H, '%', 00H, 'X', 00H, 00H, 00H
	ORG $+6
$SG192919 DB	'-', 00H, '%', 00H, 'h', 00H, 's', 00H, ' ', 00H, '[', 00H
	DB	'S', 00H, 'e', 00H, 't', 00H, ']', 00H, '%', 00H, 's', 00H, 00H
	DB	00H
	ORG $+6
$SG192991 DB	' ', 00H, ' ', 00H, ' ', 00H, ' ', 00H, '#', 00H, '%', 00H
	DB	'u', 00H, ':', 00H, ' ', 00H, 00H, 00H
	ORG $+4
$SG192990 DB	'+', 00H, '%', 00H, 'h', 00H, 's', 00H, ' ', 00H, '[', 00H
	DB	'F', 00H, 'u', 00H, 'n', 00H, 'c', 00H, 't', 00H, 'i', 00H, 'o'
	DB	00H, 'n', 00H, ']', 00H, ' ', 00H, ' ', 00H, '%', 00H, 'u', 00H
	DB	' ', 00H, 'p', 00H, 'a', 00H, 'r', 00H, 'a', 00H, 'm', 00H, 'e'
	DB	00H, 't', 00H, 'e', 00H, 'r', 00H, '%', 00H, 's', 00H, 00H, 00H
$SG192993 DB	'%', 00H, 's', 00H, 'E', 00H, 'M', 00H, 'P', 00H, 'T', 00H
	DB	'Y', 00H, 00H, 00H
$SG192995 DB	'%', 00H, 's', 00H, 'B', 00H, 'O', 00H, 'O', 00H, 'L', 00H
	DB	' ', 00H, '0', 00H, 'x', 00H, '%', 00H, 'X', 00H, 00H, 00H
$SG192997 DB	'%', 00H, 's', 00H, 'B', 00H, 'O', 00H, 'O', 00H, 'L', 00H
	DB	'*', 00H, ' ', 00H, '0', 00H, 'x', 00H, '%', 00H, 'X', 00H, 00H
	DB	00H
	ORG $+6
$SG192999 DB	'%', 00H, 's', 00H, 'L', 00H, 'O', 00H, 'N', 00H, 'G', 00H
	DB	' ', 00H, '%', 00H, 'd', 00H, ' ', 00H, '(', 00H, '0', 00H, 'x'
	DB	00H, '%', 00H, 'X', 00H, ')', 00H, 00H, 00H
	ORG $+6
$SG193001 DB	'%', 00H, 's', 00H, 'L', 00H, 'O', 00H, 'N', 00H, 'G', 00H
	DB	'*', 00H, ' ', 00H, '%', 00H, 'd', 00H, ' ', 00H, '(', 00H, '0'
	DB	00H, 'x', 00H, '%', 00H, 'X', 00H, ')', 00H, 00H, 00H
	ORG $+4
$SG193003 DB	'%', 00H, 's', 00H, 'D', 00H, 'I', 00H, 'S', 00H, 'P', 00H
	DB	'A', 00H, 'T', 00H, 'C', 00H, 'H', 00H, ' ', 00H, '0', 00H, 'x'
	DB	00H, '%', 00H, 'X', 00H, 00H, 00H
$SG193005 DB	'%', 00H, 's', 00H, 'S', 00H, 'T', 00H, 'R', 00H, 'I', 00H
	DB	'N', 00H, 'G', 00H, ';', 00H, 00H, 00H
	ORG $+4
$SG193007 DB	'%', 00H, 's', 00H, 'S', 00H, 'T', 00H, 'R', 00H, 'I', 00H
	DB	'N', 00H, 'G', 00H, '*', 00H, ';', 00H, 00H, 00H
	ORG $+2
$SG193009 DB	'%', 00H, 's', 00H, 'U', 00H, 'n', 00H, 'k', 00H, 'n', 00H
	DB	'o', 00H, 'w', 00H, 'n', 00H, ' ', 00H, '(', 00H, 'V', 00H, 'a'
	DB	00H, 'r', 00H, 'T', 00H, 'y', 00H, 'p', 00H, 'e', 00H, '=', 00H
	DB	'0', 00H, 'x', 00H, '%', 00H, 'X', 00H, ')', 00H, 00H, 00H
	ORG $+6
$SG193012 DB	'-', 00H, ' ', 00H, ' ', 00H, 'F', 00H, 'a', 00H, 'i', 00H
	DB	'l', 00H, 'e', 00H, 'd', 00H, ':', 00H, ' ', 00H, 'P', 00H, 'a'
	DB	00H, 'r', 00H, 'a', 00H, 'm', 00H, 'e', 00H, 't', 00H, 'e', 00H
	DB	'r', 00H, ' ', 00H, 'e', 00H, 'r', 00H, 'r', 00H, 'o', 00H, 'r'
	DB	00H, ' ', 00H, '0', 00H, 'x', 00H, '%', 00H, 'X', 00H, 0aH, 00H
	DB	' ', 00H, ' ', 00H, ' ', 00H, ' ', 00H, '%', 00H, 's', 00H, 00H
	DB	00H
	ORG $+2
$SG193021 DB	' ', 00H, '-', 00H, '-', 00H, ' ', 00H, 'C', 00H, 'l', 00H
	DB	'o', 00H, 's', 00H, 'e', 00H, 'd', 00H, 00H, 00H
	ORG $+2
$SG193024 DB	' ', 00H, '-', 00H, '-', 00H, ' ', 00H, 'N', 00H, 'o', 00H
	DB	't', 00H, ' ', 00H, 's', 00H, 'u', 00H, 'p', 00H, 'p', 00H, 'o'
	DB	00H, 'r', 00H, 't', 00H, 'e', 00H, 'd', 00H, ' ', 00H, 'b', 00H
	DB	'y', 00H, ' ', 00H, 'S', 00H, 'O', 00H, 00H, 00H
$SG193026 DB	' ', 00H, '-', 00H, '-', 00H, ' ', 00H, 'C', 00H, 'O', 00H
	DB	'M', 00H, ' ', 00H, 'e', 00H, 'r', 00H, 'r', 00H, 'o', 00H, 'r'
	DB	00H, ':', 00H, ' ', 00H, 'H', 00H, 'R', 00H, ' ', 00H, '=', 00H
	DB	' ', 00H, '0', 00H, 'x', 00H, '%', 00H, 'X', 00H, 00H, 00H
	ORG $+6
$SG193027 DB	'-', 00H, '%', 00H, 'h', 00H, 's', 00H, ' ', 00H, '[', 00H
	DB	'F', 00H, 'u', 00H, 'n', 00H, 'c', 00H, 't', 00H, 'i', 00H, 'o'
	DB	00H, 'n', 00H, ']', 00H, ' ', 00H, ' ', 00H, 'R', 00H, 'C', 00H
	DB	'=', 00H, '%', 00H, 'd', 00H, '%', 00H, 's', 00H, 00H, 00H
	ORG $+6
$SG193028 DB	' ', 00H, ' ', 00H, ' ', 00H, ' ', 00H, '#', 00H, '%', 00H
	DB	'u', 00H, ':', 00H, ' ', 00H, 00H, 00H
	ORG $+4
$SG193030 DB	'%', 00H, 's', 00H, 'B', 00H, 'O', 00H, 'O', 00H, 'L', 00H
	DB	'*', 00H, ' ', 00H, '0', 00H, 'x', 00H, '%', 00H, 'X', 00H, 00H
	DB	00H
	ORG $+6
$SG193032 DB	'%', 00H, 's', 00H, 'L', 00H, 'O', 00H, 'N', 00H, 'G', 00H
	DB	'*', 00H, ' ', 00H, '%', 00H, 'd', 00H, ' ', 00H, '(', 00H, '0'
	DB	00H, 'x', 00H, '%', 00H, 'X', 00H, ')', 00H, 00H, 00H
	ORG $+4
$SG193034 DB	'%', 00H, 's', 00H, 'S', 00H, 'T', 00H, 'R', 00H, 'I', 00H
	DB	'N', 00H, 'G', 00H, '*', 00H, ';', 00H, 00H, 00H
	ORG $+2
$SG193037 DB	'%', 00H, 's', 00H, ' ', 00H, 'U', 00H, 'n', 00H, 'c', 00H
	DB	'h', 00H, 'a', 00H, 'n', 00H, 'g', 00H, 'e', 00H, 'd', 00H, 00H
	DB	00H
	ORG $+6
$SG193060 DB	'*', 00H, 'S', 00H, 'e', 00H, 't', 00H, 'C', 00H, 'O', 00H
	DB	'F', 00H, 'r', 00H, 'e', 00H, 'e', 00H, 'z', 00H, 'e', 00H, 'E'
	DB	00H, 'v', 00H, 'e', 00H, 'n', 00H, 't', 00H, 's', 00H, ':', 00H
	DB	' ', 00H, '0', 00H, 'x', 00H, '%', 00H, 'X', 00H, 00H, 00H
	ORG $+6
$SG193195 DB	'SOFTWARE\OLEforRetail\ServiceOPOS\SpeechSynthesis', 00H
	ORG $+6
$SG193188 DB	'*', 00H, 'O', 00H, 'p', 00H, 'e', 00H, 'n', 00H, ' ', 00H
	DB	'[', 00H, 'F', 00H, 'u', 00H, 'n', 00H, 'c', 00H, 't', 00H, 'i'
	DB	00H, 'o', 00H, 'n', 00H, ']', 00H, ':', 00H, ' ', 00H, 'D', 00H
	DB	'e', 00H, 'v', 00H, 'i', 00H, 'c', 00H, 'e', 00H, 'N', 00H, 'a'
	DB	00H, 'm', 00H, 'e', 00H, ' ', 00H, '<', 00H, '%', 00H, 'l', 00H
	DB	's', 00H, '>', 00H, 00H, 00H
	ORG $+2
$SG193221 DB	' ', 00H, ' ', 00H, ' ', 00H, ' ', 00H, 'C', 00H, 'r', 00H
	DB	'e', 00H, 'a', 00H, 't', 00H, 'e', 00H, 'd', 00H, ' ', 00H, 'S'
	DB	00H, 'e', 00H, 'r', 00H, 'v', 00H, 'i', 00H, 'c', 00H, 'e', 00H
	DB	' ', 00H, 'O', 00H, 'b', 00H, 'j', 00H, 'e', 00H, 'c', 00H, 't'
	DB	00H, 00H, 00H
	ORG $+2
$SG193190 DB	'-', 00H, ' ', 00H, ' ', 00H, 'F', 00H, 'a', 00H, 'i', 00H
	DB	'l', 00H, 'e', 00H, 'd', 00H, ':', 00H, ' ', 00H, 'C', 00H, 'C'
	DB	00H, 'O', 00H, ' ', 00H, 'a', 00H, 'l', 00H, 'r', 00H, 'e', 00H
	DB	'a', 00H, 'd', 00H, 'y', 00H, ' ', 00H, 'o', 00H, 'p', 00H, 'e'
	DB	00H, 'n', 00H, ' ', 00H, '(', 00H, '%', 00H, 'd', 00H, '/', 00H
	DB	'%', 00H, 'd', 00H, ')', 00H, 00H, 00H
$SG193257 DB	'Open-OpenService', 00H
	ORG $+3
$SG193650 DB	'Pitch', 00H
	ORG $+6
$SG193229 DB	'C', 00H, 'l', 00H, 'o', 00H, 's', 00H, 'e', 00H, 00H, 00H
$SG193655 DB	'Pitch', 00H
	ORG $+6
$SG193192 DB	'-', 00H, ' ', 00H, ' ', 00H, 'F', 00H, 'a', 00H, 'i', 00H
	DB	'l', 00H, 'e', 00H, 'd', 00H, ':', 00H, ' ', 00H, 'E', 00H, 'm'
	DB	00H, 'p', 00H, 't', 00H, 'y', 00H, ' ', 00H, 'd', 00H, 'e', 00H
	DB	'v', 00H, 'i', 00H, 'c', 00H, 'e', 00H, ' ', 00H, 'n', 00H, 'a'
	DB	00H, 'm', 00H, 'e', 00H, ' ', 00H, '(', 00H, '%', 00H, 'd', 00H
	DB	'/', 00H, '%', 00H, 'd', 00H, ')', 00H, 00H, 00H
	ORG $+6
$SG193194 DB	'-', 00H, ' ', 00H, ' ', 00H, 'F', 00H, 'a', 00H, 'i', 00H
	DB	'l', 00H, 'e', 00H, 'd', 00H, ':', 00H, ' ', 00H, 'D', 00H, 'e'
	DB	00H, 'v', 00H, 'i', 00H, 'c', 00H, 'e', 00H, ' ', 00H, 'n', 00H
	DB	'a', 00H, 'm', 00H, 'e', 00H, ' ', 00H, 't', 00H, 'o', 00H, 'o'
	DB	00H, ' ', 00H, 'b', 00H, 'i', 00H, 'g', 00H, ' ', 00H, '(', 00H
	DB	'%', 00H, 'd', 00H, '/', 00H, '%', 00H, 'd', 00H, ')', 00H, 00H
	DB	00H
	ORG $+2
$SG193197 DB	'-', 00H, ' ', 00H, ' ', 00H, 'F', 00H, 'a', 00H, 'i', 00H
	DB	'l', 00H, 'e', 00H, 'd', 00H, ':', 00H, ' ', 00H, 'C', 00H, 'a'
	DB	00H, 'n', 00H, 'n', 00H, 'o', 00H, 't', 00H, ' ', 00H, 'o', 00H
	DB	'p', 00H, 'e', 00H, 'n', 00H, ' ', 00H, 'r', 00H, 'e', 00H, 'g'
	DB	00H, 'i', 00H, 's', 00H, 't', 00H, 'r', 00H, 'y', 00H, ' ', 00H
	DB	'k', 00H, 'e', 00H, 'y', 00H, ' ', 00H, '<', 00H, '%', 00H, 's'
	DB	00H, '>', 00H, ' ', 00H, '(', 00H, '%', 00H, 'd', 00H, '/', 00H
	DB	'%', 00H, 'd', 00H, ')', 00H, 00H, 00H
	ORG $+6
$SG193232 DB	'C', 00H, 'l', 00H, 'a', 00H, 'i', 00H, 'm', 00H, 00H, 00H
$SG193660 DB	'Speed', 00H
	ORG $+6
$SG193198 DB	' ', 00H, ' ', 00H, ' ', 00H, ' ', 00H, 'R', 00H, 'e', 00H
	DB	'g', 00H, 'O', 00H, 'p', 00H, 'e', 00H, 'n', 00H, 'K', 00H, 'e'
	DB	00H, 'y', 00H, 'E', 00H, 'x', 00H, ' ', 00H, 'e', 00H, 'r', 00H
	DB	'r', 00H, 'o', 00H, 'r', 00H, ' ', 00H, '%', 00H, 'd', 00H, 0aH
	DB	00H, ' ', 00H, ' ', 00H, ' ', 00H, ' ', 00H, '%', 00H, 's', 00H
	DB	00H, 00H
	ORG $+6
$SG193235 DB	'R', 00H, 'e', 00H, 'l', 00H, 'e', 00H, 'a', 00H, 's', 00H
	DB	'e', 00H, 00H, 00H
$SG193270 DB	'Open-DeviceDescription', 00H
	ORG $+1
$SG193199 DB	' ', 00H, ' ', 00H, ' ', 00H, ' ', 00H, 'O', 00H, 'p', 00H
	DB	'e', 00H, 'n', 00H, 'e', 00H, 'd', 00H, ' ', 00H, 'r', 00H, 'e'
	DB	00H, 'g', 00H, 'i', 00H, 's', 00H, 't', 00H, 'r', 00H, 'y', 00H
	DB	' ', 00H, 'k', 00H, 'e', 00H, 'y', 00H, ' ', 00H, 'H', 00H, 'K'
	DB	00H, 'L', 00H, 'M', 00H, '\', 00H, '%', 00H, 's', 00H, 00H, 00H
$SG193203 DB	' ', 00H, ' ', 00H, ' ', 00H, ' ', 00H, 'D', 00H, 'e', 00H
	DB	'v', 00H, 'i', 00H, 'c', 00H, 'e', 00H, 'N', 00H, 'a', 00H, 'm'
	DB	00H, 'e', 00H, ' ', 00H, 'i', 00H, 's', 00H, ' ', 00H, 'n', 00H
	DB	'o', 00H, 't', 00H, ' ', 00H, 'a', 00H, ' ', 00H, 'L', 00H, 'o'
	DB	00H, 'g', 00H, 'i', 00H, 'c', 00H, 'a', 00H, 'l', 00H, 'N', 00H
	DB	'a', 00H, 'm', 00H, 'e', 00H, ';', 00H, ' ', 00H, 't', 00H, 'r'
	DB	00H, 'e', 00H, 'a', 00H, 't', 00H, 'i', 00H, 'n', 00H, 'g', 00H
	DB	' ', 00H, 'a', 00H, 's', 00H, ' ', 00H, 'P', 00H, 'h', 00H, 'y'
	DB	00H, 's', 00H, 'i', 00H, 'c', 00H, 'a', 00H, 'l', 00H, 'N', 00H
	DB	'a', 00H, 'm', 00H, 'e', 00H, 00H, 00H
	ORG $+4
$SG193204 DB	' ', 00H, ' ', 00H, ' ', 00H, ' ', 00H, 'D', 00H, 'e', 00H
	DB	'v', 00H, 'i', 00H, 'c', 00H, 'e', 00H, 'N', 00H, 'a', 00H, 'm'
	DB	00H, 'e', 00H, ' ', 00H, 'i', 00H, 's', 00H, ' ', 00H, 'a', 00H
	DB	' ', 00H, 'L', 00H, 'o', 00H, 'g', 00H, 'i', 00H, 'c', 00H, 'a'
	DB	00H, 'l', 00H, 'N', 00H, 'a', 00H, 'm', 00H, 'e', 00H, ';', 00H
	DB	' ', 00H, 'c', 00H, 'o', 00H, 'n', 00H, 'v', 00H, 'e', 00H, 'r'
	DB	00H, 't', 00H, 'e', 00H, 'd', 00H, ' ', 00H, 't', 00H, 'o', 00H
	DB	' ', 00H, 'P', 00H, 'h', 00H, 'y', 00H, 's', 00H, 'i', 00H, 'c'
	DB	00H, 'a', 00H, 'l', 00H, 'N', 00H, 'a', 00H, 'm', 00H, 'e', 00H
	DB	' ', 00H, '<', 00H, '%', 00H, 's', 00H, '>', 00H, 00H, 00H
$SG193206 DB	'-', 00H, ' ', 00H, ' ', 00H, 'F', 00H, 'a', 00H, 'i', 00H
	DB	'l', 00H, 'e', 00H, 'd', 00H, ':', 00H, ' ', 00H, 'C', 00H, 'a'
	DB	00H, 'n', 00H, 'n', 00H, 'o', 00H, 't', 00H, ' ', 00H, 'o', 00H
	DB	'p', 00H, 'e', 00H, 'n', 00H, ' ', 00H, 'D', 00H, 'e', 00H, 'v'
	DB	00H, 'i', 00H, 'c', 00H, 'e', 00H, 'N', 00H, 'a', 00H, 'm', 00H
	DB	'e', 00H, ' ', 00H, 's', 00H, 'u', 00H, 'b', 00H, 'k', 00H, 'e'
	DB	00H, 'y', 00H, ' ', 00H, '(', 00H, '%', 00H, 'd', 00H, '/', 00H
	DB	'%', 00H, 'd', 00H, ')', 00H, 00H, 00H
	ORG $+6
$SG193240 DB	'C', 00H, 'l', 00H, 'o', 00H, 's', 00H, 'e', 00H, 00H, 00H
$SG193665 DB	'Speed', 00H
	ORG $+6
$SG193207 DB	' ', 00H, ' ', 00H, ' ', 00H, ' ', 00H, 'R', 00H, 'e', 00H
	DB	'g', 00H, 'O', 00H, 'p', 00H, 'e', 00H, 'n', 00H, 'K', 00H, 'e'
	DB	00H, 'y', 00H, 'E', 00H, 'x', 00H, ' ', 00H, 'e', 00H, 'r', 00H
	DB	'r', 00H, 'o', 00H, 'r', 00H, ' ', 00H, '%', 00H, 'd', 00H, 0aH
	DB	00H, ' ', 00H, ' ', 00H, ' ', 00H, ' ', 00H, '%', 00H, 's', 00H
	DB	00H, 00H
	ORG $+6
$SG193208 DB	' ', 00H, ' ', 00H, ' ', 00H, ' ', 00H, 'O', 00H, 'p', 00H
	DB	'e', 00H, 'n', 00H, 'e', 00H, 'd', 00H, ' ', 00H, 'D', 00H, 'e'
	DB	00H, 'v', 00H, 'i', 00H, 'c', 00H, 'e', 00H, 'N', 00H, 'a', 00H
	DB	'm', 00H, 'e', 00H, ' ', 00H, 's', 00H, 'u', 00H, 'b', 00H, 'k'
	DB	00H, 'e', 00H, 'y', 00H, 00H, 00H
	ORG $+6
$SG193243 DB	'C', 00H, 'l', 00H, 'a', 00H, 'i', 00H, 'm', 00H, 00H, 00H
$SG193670 DB	'Voice', 00H
	ORG $+6
$SG193211 DB	'-', 00H, ' ', 00H, ' ', 00H, 'F', 00H, 'a', 00H, 'i', 00H
	DB	'l', 00H, 'e', 00H, 'd', 00H, ':', 00H, ' ', 00H, 'C', 00H, 'a'
	DB	00H, 'n', 00H, 'n', 00H, 'o', 00H, 't', 00H, ' ', 00H, 'g', 00H
	DB	'e', 00H, 't', 00H, ' ', 00H, 'P', 00H, 'r', 00H, 'o', 00H, 'g'
	DB	00H, 'I', 00H, 'D', 00H, ' ', 00H, 'f', 00H, 'r', 00H, 'o', 00H
	DB	'm', 00H, ' ', 00H, 'r', 00H, 'e', 00H, 'g', 00H, 'i', 00H, 's'
	DB	00H, 't', 00H, 'r', 00H, 'y', 00H, ' ', 00H, '(', 00H, '%', 00H
	DB	'd', 00H, '/', 00H, '%', 00H, 'd', 00H, ')', 00H, 00H, 00H
	ORG $+2
$SG193246 DB	'R', 00H, 'e', 00H, 'l', 00H, 'e', 00H, 'a', 00H, 's', 00H
	DB	'e', 00H, 00H, 00H
$SG193285 DB	'-', 00H, ' ', 00H, ' ', 00H, 'S', 00H, 'u', 00H, 'c', 00H
	DB	'c', 00H, 'e', 00H, 's', 00H, 's', 00H, ' ', 00H, '(', 00H, '0'
	DB	00H, '/', 00H, '0', 00H, ')', 00H, 00H, 00H
	ORG $+6
$SG193212 DB	' ', 00H, ' ', 00H, ' ', 00H, ' ', 00H, 'R', 00H, 'e', 00H
	DB	'g', 00H, 'O', 00H, 'p', 00H, 'e', 00H, 'n', 00H, 'K', 00H, 'e'
	DB	00H, 'y', 00H, 'E', 00H, 'x', 00H, ' ', 00H, 'e', 00H, 'r', 00H
	DB	'r', 00H, 'o', 00H, 'r', 00H, ' ', 00H, '%', 00H, 'd', 00H, 0aH
	DB	00H, ' ', 00H, ' ', 00H, ' ', 00H, ' ', 00H, '%', 00H, 's', 00H
	DB	00H, 00H
	ORG $+6
$SG193253 DB	'SpeechSynthesis', 00H
$SG193297 DB	'*', 00H, 'C', 00H, 'l', 00H, 'o', 00H, 's', 00H, 'e', 00H
	DB	' ', 00H, '[', 00H, 'F', 00H, 'u', 00H, 'n', 00H, 'c', 00H, 't'
	DB	00H, 'i', 00H, 'o', 00H, 'n', 00H, ']', 00H, ' ', 00H, ' ', 00H
	DB	'R', 00H, 'C', 00H, '=', 00H, '%', 00H, 'd', 00H, 00H, 00H
	ORG $+6
$SG193213 DB	' ', 00H, ' ', 00H, ' ', 00H, ' ', 00H, 'D', 00H, 'e', 00H
	DB	'v', 00H, 'i', 00H, 'c', 00H, 'e', 00H, 'N', 00H, 'a', 00H, 'm'
	DB	00H, 'e', 00H, ' ', 00H, 'm', 00H, 'a', 00H, 'p', 00H, 'p', 00H
	DB	'e', 00H, 'd', 00H, ' ', 00H, 't', 00H, 'o', 00H, ' ', 00H, 'P'
	DB	00H, 'r', 00H, 'o', 00H, 'g', 00H, 'I', 00H, 'D', 00H, ' ', 00H
	DB	'<', 00H, '%', 00H, 's', 00H, '>', 00H, 00H, 00H
	ORG $+6
$SG193215 DB	'-', 00H, ' ', 00H, ' ', 00H, 'F', 00H, 'a', 00H, 'i', 00H
	DB	'l', 00H, 'e', 00H, 'd', 00H, ':', 00H, ' ', 00H, 'C', 00H, 'a'
	DB	00H, 'n', 00H, 'n', 00H, 'o', 00H, 't', 00H, ' ', 00H, 'c', 00H
	DB	'o', 00H, 'n', 00H, 'v', 00H, 'e', 00H, 'r', 00H, 't', 00H, ' '
	DB	00H, 'P', 00H, 'r', 00H, 'o', 00H, 'g', 00H, 'I', 00H, 'D', 00H
	DB	' ', 00H, 't', 00H, 'o', 00H, ' ', 00H, 'C', 00H, 'l', 00H, 'a'
	DB	00H, 's', 00H, 's', 00H, 'I', 00H, 'D', 00H, ' ', 00H, '(', 00H
	DB	'%', 00H, 'd', 00H, '/', 00H, '%', 00H, 'd', 00H, ')', 00H, 00H
	DB	00H
$SG193298 DB	'Close-CloseService', 00H
	ORG $+5
$SG193216 DB	' ', 00H, ' ', 00H, ' ', 00H, ' ', 00H, 'C', 00H, 'L', 00H
	DB	'S', 00H, 'I', 00H, 'D', 00H, 'F', 00H, 'r', 00H, 'o', 00H, 'm'
	DB	00H, 'P', 00H, 'r', 00H, 'o', 00H, 'g', 00H, 'I', 00H, 'D', 00H
	DB	' ', 00H, 'e', 00H, 'r', 00H, 'r', 00H, 'o', 00H, 'r', 00H, ' '
	DB	00H, '0', 00H, 'x', 00H, '%', 00H, 'X', 00H, 0aH, 00H, ' ', 00H
	DB	' ', 00H, ' ', 00H, ' ', 00H, '%', 00H, 's', 00H, 00H, 00H
	ORG $+4
$SG193217 DB	' ', 00H, ' ', 00H, ' ', 00H, ' ', 00H, 'P', 00H, 'r', 00H
	DB	'o', 00H, 'g', 00H, 'I', 00H, 'D', 00H, ' ', 00H, 'm', 00H, 'a'
	DB	00H, 'p', 00H, 'p', 00H, 'e', 00H, 'd', 00H, ' ', 00H, 't', 00H
	DB	'o', 00H, ' ', 00H, 'C', 00H, 'l', 00H, 'a', 00H, 's', 00H, 's'
	DB	00H, 'I', 00H, 'D', 00H, 00H, 00H
	ORG $+6
$SG193219 DB	'-', 00H, ' ', 00H, ' ', 00H, 'F', 00H, 'a', 00H, 'i', 00H
	DB	'l', 00H, 'e', 00H, 'd', 00H, ':', 00H, ' ', 00H, 'C', 00H, 'a'
	DB	00H, 'n', 00H, 'n', 00H, 'o', 00H, 't', 00H, ' ', 00H, 'c', 00H
	DB	'r', 00H, 'e', 00H, 'a', 00H, 't', 00H, 'e', 00H, ' ', 00H, 'S'
	DB	00H, 'e', 00H, 'r', 00H, 'v', 00H, 'i', 00H, 'c', 00H, 'e', 00H
	DB	' ', 00H, 'O', 00H, 'b', 00H, 'j', 00H, 'e', 00H, 'c', 00H, 't'
	DB	00H, ' ', 00H, '(', 00H, '%', 00H, 'd', 00H, '/', 00H, '%', 00H
	DB	'd', 00H, ')', 00H, 00H, 00H
$SG193220 DB	' ', 00H, ' ', 00H, ' ', 00H, ' ', 00H, 'C', 00H, 'o', 00H
	DB	'C', 00H, 'r', 00H, 'e', 00H, 'a', 00H, 't', 00H, 'e', 00H, 'I'
	DB	00H, 'n', 00H, 's', 00H, 't', 00H, 'a', 00H, 'n', 00H, 'c', 00H
	DB	'e', 00H, ' ', 00H, 'e', 00H, 'r', 00H, 'r', 00H, 'o', 00H, 'r'
	DB	00H, ' ', 00H, '0', 00H, 'x', 00H, '%', 00H, 'X', 00H, 0aH, 00H
	DB	' ', 00H, ' ', 00H, ' ', 00H, ' ', 00H, '%', 00H, 's', 00H, 00H
	DB	00H
	ORG $+2
$SG193223 DB	'-', 00H, ' ', 00H, ' ', 00H, 'F', 00H, 'a', 00H, 'i', 00H
	DB	'l', 00H, 'e', 00H, 'd', 00H, ':', 00H, ' ', 00H, 'C', 00H, 'a'
	DB	00H, 'n', 00H, 'n', 00H, 'o', 00H, 't', 00H, ' ', 00H, 'g', 00H
	DB	'e', 00H, 't', 00H, ' ', 00H, 'S', 00H, 'e', 00H, 'r', 00H, 'v'
	DB	00H, 'i', 00H, 'c', 00H, 'e', 00H, ' ', 00H, 'O', 00H, 'b', 00H
	DB	'j', 00H, 'e', 00H, 'c', 00H, 't', 00H, '''', 00H, 's', 00H, ' '
	DB	00H, 'D', 00H, 'i', 00H, 's', 00H, 'p', 00H, 'a', 00H, 't', 00H
	DB	'c', 00H, 'h', 00H, ' ', 00H, 'p', 00H, 'o', 00H, 'i', 00H, 'n'
	DB	00H, 't', 00H, 'e', 00H, 'r', 00H, ' ', 00H, '(', 00H, '%', 00H
	DB	'd', 00H, '/', 00H, '%', 00H, 'd', 00H, ')', 00H, 00H, 00H
$SG193224 DB	' ', 00H, ' ', 00H, ' ', 00H, ' ', 00H, 'Q', 00H, 'u', 00H
	DB	'e', 00H, 'r', 00H, 'y', 00H, 'I', 00H, 'n', 00H, 't', 00H, 'e'
	DB	00H, 'r', 00H, 'f', 00H, 'a', 00H, 'c', 00H, 'e', 00H, ' ', 00H
	DB	'e', 00H, 'r', 00H, 'r', 00H, 'o', 00H, 'r', 00H, ' ', 00H, '0'
	DB	00H, 'x', 00H, '%', 00H, 'X', 00H, 0aH, 00H, ' ', 00H, ' ', 00H
	DB	' ', 00H, ' ', 00H, '%', 00H, 's', 00H, 00H, 00H
	ORG $+6
$SG193225 DB	' ', 00H, ' ', 00H, ' ', 00H, ' ', 00H, 'A', 00H, 'c', 00H
	DB	'q', 00H, 'u', 00H, 'i', 00H, 'r', 00H, 'e', 00H, 'd', 00H, ' '
	DB	00H, 'S', 00H, 'e', 00H, 'r', 00H, 'v', 00H, 'i', 00H, 'c', 00H
	DB	'e', 00H, ' ', 00H, 'O', 00H, 'b', 00H, 'j', 00H, 'e', 00H, 'c'
	DB	00H, 't', 00H, '''', 00H, 's', 00H, ' ', 00H, 'd', 00H, 'i', 00H
	DB	's', 00H, 'p', 00H, 'a', 00H, 't', 00H, 'c', 00H, 'h', 00H, ' '
	DB	00H, 'p', 00H, 'o', 00H, 'i', 00H, 'n', 00H, 't', 00H, 'e', 00H
	DB	'r', 00H, 00H, 00H
	ORG $+2
$SG193249 DB	'-', 00H, ' ', 00H, ' ', 00H, 'F', 00H, 'a', 00H, 'i', 00H
	DB	'l', 00H, 'e', 00H, 'd', 00H, ':', 00H, ' ', 00H, 'D', 00H, 'o'
	DB	00H, 'e', 00H, 's', 00H, 'n', 00H, '''', 00H, 't', 00H, ' ', 00H
	DB	's', 00H, 'u', 00H, 'p', 00H, 'p', 00H, 'o', 00H, 'r', 00H, 't'
	DB	00H, ' ', 00H, 'a', 00H, 'l', 00H, 'l', 00H, ' ', 00H, 'o', 00H
	DB	'f', 00H, ' ', 00H, 'i', 00H, 'n', 00H, 'i', 00H, 't', 00H, 'i'
	DB	00H, 'a', 00H, 'l', 00H, ' ', 00H, 'r', 00H, 'e', 00H, 'l', 00H
	DB	'e', 00H, 'a', 00H, 's', 00H, 'e', 00H, '''', 00H, 's', 00H, ' '
	DB	00H, 'm', 00H, 'e', 00H, 't', 00H, 'h', 00H, 'o', 00H, 'd', 00H
	DB	's', 00H, ' ', 00H, '(', 00H, '%', 00H, 'd', 00H, '/', 00H, '%'
	DB	00H, 'd', 00H, ')', 00H, 00H, 00H
$SG193299 DB	'*', 00H, 'C', 00H, 'l', 00H, 'o', 00H, 's', 00H, 'e', 00H
	DB	' ', 00H, '[', 00H, 'F', 00H, 'u', 00H, 'n', 00H, 'c', 00H, 't'
	DB	00H, 'i', 00H, 'o', 00H, 'n', 00H, ']', 00H, ' ', 00H, ' ', 00H
	DB	'R', 00H, 'C', 00H, '=', 00H, '%', 00H, 'd', 00H, 00H, 00H
	ORG $+6
$SG193250 DB	'C', 00H, ':', 00H, '\', 00H, 'D', 00H, 'e', 00H, 'v', 00H
	DB	'e', 00H, 'l', 00H, 'o', 00H, 'p', 00H, '\', 00H, 'O', 00H, 'P'
	DB	00H, 'O', 00H, 'S', 00H, '-', 00H, 'C', 00H, 'C', 00H, 'O', 00H
	DB	'\', 00H, 'z', 00H, 'S', 00H, 'p', 00H, 'e', 00H, 'e', 00H, 'c'
	DB	00H, 'h', 00H, 'S', 00H, 'y', 00H, 'n', 00H, 't', 00H, 'h', 00H
	DB	'e', 00H, 's', 00H, 'i', 00H, 's', 00H, '\', 00H, 'S', 00H, 'p'
	DB	00H, 'e', 00H, 'e', 00H, 'c', 00H, 'h', 00H, 'S', 00H, 'y', 00H
	DB	'n', 00H, 't', 00H, 'h', 00H, 'e', 00H, 's', 00H, 'i', 00H, 's'
	DB	00H, 'I', 00H, 'm', 00H, 'p', 00H, 'l', 00H, '.', 00H, 'c', 00H
	DB	'p', 00H, 'p', 00H, 00H, 00H
	ORG $+6
$SG193251 DB	'(', 00H, '(', 00H, 'H', 00H, 'R', 00H, 'E', 00H, 'S', 00H
	DB	'U', 00H, 'L', 00H, 'T', 00H, ')', 00H, '0', 00H, 'L', 00H, ')'
	DB	00H, ' ', 00H, '=', 00H, '=', 00H, ' ', 00H, 'Q', 00H, 'u', 00H
	DB	'e', 00H, 'r', 00H, 'y', 00H, 'I', 00H, 'n', 00H, 't', 00H, 'e'
	DB	00H, 'r', 00H, 'f', 00H, 'a', 00H, 'c', 00H, 'e', 00H, '(', 00H
	DB	' ', 00H, 'I', 00H, 'I', 00H, 'D', 00H, '_', 00H, 'I', 00H, 'D'
	DB	00H, 'i', 00H, 's', 00H, 'p', 00H, 'a', 00H, 't', 00H, 'c', 00H
	DB	'h', 00H, ',', 00H, ' ', 00H, '(', 00H, 'v', 00H, 'o', 00H, 'i'
	DB	00H, 'd', 00H, '*', 00H, '*', 00H, ')', 00H, ' ', 00H, '&', 00H
	DB	'p', 00H, 'D', 00H, 'i', 00H, 's', 00H, 'p', 00H, 'a', 00H, 't'
	DB	00H, 'c', 00H, 'h', 00H, ' ', 00H, ')', 00H, 00H, 00H
	ORG $+4
$SG193255 DB	'-', 00H, ' ', 00H, ' ', 00H, 'F', 00H, 'a', 00H, 'i', 00H
	DB	'l', 00H, 'e', 00H, 'd', 00H, ':', 00H, ' ', 00H, 'S', 00H, 'e'
	DB	00H, 't', 00H, 'u', 00H, 'p', 00H, ' ', 00H, 'f', 00H, 'o', 00H
	DB	'r', 00H, ' ', 00H, 'O', 00H, 'p', 00H, 'e', 00H, 'n', 00H, 'S'
	DB	00H, 'e', 00H, 'r', 00H, 'v', 00H, 'i', 00H, 'c', 00H, 'e', 00H
	DB	' ', 00H, 'c', 00H, 'a', 00H, 'l', 00H, 'l', 00H, ' ', 00H, '0'
	DB	00H, 'x', 00H, '%', 00H, 'X', 00H, 0aH, 00H, ' ', 00H, ' ', 00H
	DB	' ', 00H, ' ', 00H, '%', 00H, 's', 00H, 00H, 00H
	ORG $+4
$SG193261 DB	'G', 00H, 'e', 00H, 't', 00H, 'O', 00H, 'p', 00H, 'e', 00H
	DB	'n', 00H, 'R', 00H, 'e', 00H, 's', 00H, 'u', 00H, 'l', 00H, 't'
	DB	00H, 00H, 00H
$SG193675 DB	'Voice', 00H
	ORG $+6
$SG193264 DB	'-', 00H, ' ', 00H, ' ', 00H, 'F', 00H, 'a', 00H, 'i', 00H
	DB	'l', 00H, 'e', 00H, 'd', 00H, ':', 00H, ' ', 00H, 'S', 00H, 'e'
	DB	00H, 'r', 00H, 'v', 00H, 'i', 00H, 'c', 00H, 'e', 00H, ' ', 00H
	DB	'O', 00H, 'b', 00H, 'j', 00H, 'e', 00H, 'c', 00H, 't', 00H, ''''
	DB	00H, 's', 00H, ' ', 00H, 'O', 00H, 'p', 00H, 'e', 00H, 'n', 00H
	DB	'S', 00H, 'e', 00H, 'r', 00H, 'v', 00H, 'i', 00H, 'c', 00H, 'e'
	DB	00H, ' ', 00H, 'r', 00H, 'e', 00H, 'p', 00H, 'o', 00H, 'r', 00H
	DB	't', 00H, 'e', 00H, 'd', 00H, ' ', 00H, 'f', 00H, 'a', 00H, 'i'
	DB	00H, 'l', 00H, 'u', 00H, 'r', 00H, 'e', 00H, ' ', 00H, '(', 00H
	DB	'%', 00H, 'd', 00H, '/', 00H, '%', 00H, 'd', 00H, ')', 00H, 00H
	DB	00H
	ORG $+6
$SG193265 DB	' ', 00H, ' ', 00H, ' ', 00H, ' ', 00H, 'I', 00H, 'n', 00H
	DB	'v', 00H, 'o', 00H, 'k', 00H, 'e', 00H, ' ', 00H, 'e', 00H, 'r'
	DB	00H, 'r', 00H, 'o', 00H, 'r', 00H, ' ', 00H, '0', 00H, 'x', 00H
	DB	'%', 00H, 'X', 00H, 0aH, 00H, ' ', 00H, ' ', 00H, ' ', 00H, ' '
	DB	00H, '%', 00H, 's', 00H, 00H, 00H
	ORG $+6
$SG193269 DB	'Open-ServiceObjectDescription', 00H
	ORG $+2
$SG193271 DB	'Open-DeviceName', 00H
$SG193326 DB	'*', 00H, 'S', 00H, 'O', 00H, 'P', 00H, 'r', 00H, 'o', 00H
	DB	'c', 00H, 'e', 00H, 's', 00H, 's', 00H, 'I', 00H, 'D', 00H, ':'
	DB	00H, ' ', 00H, '0', 00H, 'x', 00H, '%', 00H, 'X', 00H, 00H, 00H
	ORG $+2
$SG193267 DB	' ', 00H, ' ', 00H, ' ', 00H, ' ', 00H, 'S', 00H, 'e', 00H
	DB	'r', 00H, 'v', 00H, 'i', 00H, 'c', 00H, 'e', 00H, ' ', 00H, 'O'
	DB	00H, 'b', 00H, 'j', 00H, 'e', 00H, 'c', 00H, 't', 00H, '''', 00H
	DB	's', 00H, ' ', 00H, 'O', 00H, 'p', 00H, 'e', 00H, 'n', 00H, 'S'
	DB	00H, 'e', 00H, 'r', 00H, 'v', 00H, 'i', 00H, 'c', 00H, 'e', 00H
	DB	' ', 00H, 's', 00H, 'u', 00H, 'c', 00H, 'c', 00H, 'e', 00H, 'e'
	DB	00H, 'd', 00H, 'e', 00H, 'd', 00H, 00H, 00H
	ORG $+2
$SG193365 DB	'ResetStatistics', 00H
$SG193375 DB	'RetrieveStatistics', 00H
	ORG $+5
$SG193268 DB	' ', 00H, ' ', 00H, ' ', 00H, ' ', 00H, '<', 00H, 'S', 00H
	DB	't', 00H, 'a', 00H, 'r', 00H, 't', 00H, '>', 00H, ' ', 00H, 'S'
	DB	00H, 'e', 00H, 'r', 00H, 'v', 00H, 'i', 00H, 'c', 00H, 'e', 00H
	DB	' ', 00H, 'O', 00H, 'b', 00H, 'j', 00H, 'e', 00H, 'c', 00H, 't'
	DB	00H, ' ', 00H, 'P', 00H, 'r', 00H, 'o', 00H, 'p', 00H, 'e', 00H
	DB	'r', 00H, 't', 00H, 'i', 00H, 'e', 00H, 's', 00H, '.', 00H, 00H
	DB	00H
	ORG $+2
$SG193272 DB	' ', 00H, ' ', 00H, ' ', 00H, ' ', 00H, '<', 00H, 'E', 00H
	DB	'n', 00H, 'd', 00H, '>', 00H, ' ', 00H, 'S', 00H, 'e', 00H, 'r'
	DB	00H, 'v', 00H, 'i', 00H, 'c', 00H, 'e', 00H, ' ', 00H, 'O', 00H
	DB	'b', 00H, 'j', 00H, 'e', 00H, 'c', 00H, 't', 00H, ' ', 00H, 'P'
	DB	00H, 'r', 00H, 'o', 00H, 'p', 00H, 'e', 00H, 'r', 00H, 't', 00H
	DB	'i', 00H, 'e', 00H, 's', 00H, '.', 00H, 00H, 00H
	ORG $+6
$SG193273 DB	'Open-ServiceObjectVersion', 00H
	ORG $+6
$SG193276 DB	'-', 00H, ' ', 00H, ' ', 00H, 'F', 00H, 'a', 00H, 'i', 00H
	DB	'l', 00H, 'e', 00H, 'd', 00H, ':', 00H, ' ', 00H, 'S', 00H, 'e'
	DB	00H, 'r', 00H, 'v', 00H, 'i', 00H, 'c', 00H, 'e', 00H, ' ', 00H
	DB	'O', 00H, 'b', 00H, 'j', 00H, 'e', 00H, 'c', 00H, 't', 00H, ''''
	DB	00H, 's', 00H, ' ', 00H, 'm', 00H, 'a', 00H, 'j', 00H, 'o', 00H
	DB	'r', 00H, ' ', 00H, 'v', 00H, 'e', 00H, 'r', 00H, 's', 00H, 'i'
	DB	00H, 'o', 00H, 'n', 00H, ' ', 00H, 'i', 00H, 's', 00H, ' ', 00H
	DB	'n', 00H, 'o', 00H, 't', 00H, ' ', 00H, '1', 00H, ' ', 00H, '('
	DB	00H, '%', 00H, 'd', 00H, '/', 00H, '%', 00H, 'd', 00H, ')', 00H
	DB	00H, 00H
	ORG $+2
$SG193385 DB	'UpdateStatistics', 00H
	ORG $+3
$SG193805 DB	'h', 00H, 's', 00H, 00H, 00H
	ORG $+6
$SG193311 DB	'ClaimDevice', 00H
$SG193806 DB	'l', 00H, 's', 00H, 00H, 00H
	ORG $+6
$SG193281 DB	'-', 00H, ' ', 00H, ' ', 00H, 'F', 00H, 'a', 00H, 'i', 00H
	DB	'l', 00H, 'e', 00H, 'd', 00H, ':', 00H, ' ', 00H, 'D', 00H, 'o'
	DB	00H, 'e', 00H, 's', 00H, 'n', 00H, '''', 00H, 't', 00H, ' ', 00H
	DB	's', 00H, 'u', 00H, 'p', 00H, 'p', 00H, 'o', 00H, 'r', 00H, 't'
	DB	00H, ' ', 00H, 'a', 00H, 'l', 00H, 'l', 00H, ' ', 00H, 'o', 00H
	DB	'f', 00H, ' ', 00H, 'i', 00H, 't', 00H, 's', 00H, ' ', 00H, 'r'
	DB	00H, 'e', 00H, 'l', 00H, 'e', 00H, 'a', 00H, 's', 00H, 'e', 00H
	DB	'''', 00H, 's', 00H, ' ', 00H, 'm', 00H, 'e', 00H, 't', 00H, 'h'
	DB	00H, 'o', 00H, 'd', 00H, 's', 00H, ' ', 00H, '(', 00H, '%', 00H
	DB	'd', 00H, '/', 00H, '%', 00H, 'd', 00H, ')', 00H, 00H, 00H
$SG193309 DB	'*', 00H, 'C', 00H, 'l', 00H, 'a', 00H, 'i', 00H, 'm', 00H
	DB	'D', 00H, 'e', 00H, 'v', 00H, 'i', 00H, 'c', 00H, 'e', 00H, ' '
	DB	00H, '[', 00H, 'F', 00H, 'u', 00H, 'n', 00H, 'c', 00H, 't', 00H
	DB	'i', 00H, 'o', 00H, 'n', 00H, ']', 00H, ' ', 00H, '-', 00H, '-'
	DB	00H, ' ', 00H, 'C', 00H, 'l', 00H, 'o', 00H, 's', 00H, 'e', 00H
	DB	'd', 00H, 00H, 00H
	ORG $+12
$SG193319 DB	'*', 00H, 'R', 00H, 'e', 00H, 'l', 00H, 'e', 00H, 'a', 00H
	DB	's', 00H, 'e', 00H, 'D', 00H, 'e', 00H, 'v', 00H, 'i', 00H, 'c'
	DB	00H, 'e', 00H, ' ', 00H, '[', 00H, 'F', 00H, 'u', 00H, 'n', 00H
	DB	'c', 00H, 't', 00H, 'i', 00H, 'o', 00H, 'n', 00H, ']', 00H, ' '
	DB	00H, '-', 00H, '-', 00H, ' ', 00H, 'C', 00H, 'l', 00H, 'o', 00H
	DB	's', 00H, 'e', 00H, 'd', 00H, 00H, 00H
$SG193320 DB	'ReleaseDevice', 00H
	ORG $+2
$SG193335 DB	'CheckHealth', 00H
	ORG $+4
$SG193341 DB	'ClearOutput', 00H
	ORG $+4
$SG193355 DB	'DirectIO', 00H
	ORG $+7
$SG193398 DB	'CompareFirmwareVersion', 00H
	ORG $+1
$SG193408 DB	'UpdateFirmware', 00H
	ORG $+1
$SG193428 DB	'SpeakImmediate', 00H
	ORG $+1
$SG193434 DB	'StopCurrentSpeaking', 00H
	ORG $+4
$SG193443 DB	'StopSpeaking', 00H
	ORG $+3
$SG193448 DB	'FreezeEvents', 00H
	ORG $+3
$SG193456 DB	'*', 00H, 'F', 00H, 'r', 00H, 'e', 00H, 'e', 00H, 'z', 00H
	DB	'e', 00H, 'E', 00H, 'v', 00H, 'e', 00H, 'n', 00H, 't', 00H, 's'
	DB	00H, ' ', 00H, '[', 00H, 'S', 00H, 'e', 00H, 't', 00H, ']', 00H
	DB	' ', 00H, '-', 00H, '-', 00H, ' ', 00H, 'C', 00H, 'l', 00H, 'o'
	DB	00H, 's', 00H, 'e', 00H, 'd', 00H, 00H, 00H
	ORG $+4
$SG193459 DB	'FreezeEvents', 00H
	ORG $+3
$SG193460 DB	'FreezeEvents', 00H
	ORG $+3
$SG193468 DB	'*', 00H, 'R', 00H, 'e', 00H, 's', 00H, 'u', 00H, 'l', 00H
	DB	't', 00H, 'C', 00H, 'o', 00H, 'd', 00H, 'e', 00H, ' ', 00H, '['
	DB	00H, 'G', 00H, 'e', 00H, 't', 00H, ']', 00H, ' ', 00H, '-', 00H
	DB	'-', 00H, ' ', 00H, 'C', 00H, 'l', 00H, 'o', 00H, 's', 00H, 'e'
	DB	00H, 'd', 00H, 00H, 00H
$SG193471 DB	'*', 00H, 'R', 00H, 'e', 00H, 's', 00H, 'u', 00H, 'l', 00H
	DB	't', 00H, 'C', 00H, 'o', 00H, 'd', 00H, 'e', 00H, ' ', 00H, '['
	DB	00H, 'G', 00H, 'e', 00H, 't', 00H, ']', 00H, ':', 00H, ' ', 00H
	DB	'%', 00H, 'd', 00H, ' ', 00H, '-', 00H, '-', 00H, ' ', 00H, 'f'
	DB	00H, 'r', 00H, 'o', 00H, 'm', 00H, ' ', 00H, 'C', 00H, 'O', 00H
	DB	00H, 00H
	ORG $+6
$SG193472 DB	'ResultCode', 00H
	ORG $+5
$SG193480 DB	'*', 00H, 'S', 00H, 't', 00H, 'a', 00H, 't', 00H, 'e', 00H
	DB	' ', 00H, '[', 00H, 'G', 00H, 'e', 00H, 't', 00H, ']', 00H, ' '
	DB	00H, '-', 00H, '-', 00H, ' ', 00H, 'C', 00H, 'l', 00H, 'o', 00H
	DB	's', 00H, 'e', 00H, 'd', 00H, 00H, 00H
	ORG $+2
$SG193505 DB	'BinaryConversion', 00H
	ORG $+7
$SG193488 DB	'*', 00H, 'C', 00H, 'o', 00H, 'n', 00H, 't', 00H, 'r', 00H
	DB	'o', 00H, 'l', 00H, 'O', 00H, 'b', 00H, 'j', 00H, 'e', 00H, 'c'
	DB	00H, 't', 00H, 'D', 00H, 'e', 00H, 's', 00H, 'c', 00H, 'r', 00H
	DB	'i', 00H, 'p', 00H, 't', 00H, 'i', 00H, 'o', 00H, 'n', 00H, ' '
	DB	00H, '[', 00H, 'G', 00H, 'e', 00H, 't', 00H, ']', 00H, ':', 00H
	DB	' ', 00H, '<', 00H, '%', 00H, 'h', 00H, 's', 00H, '>', 00H, 00H
	DB	00H
	ORG $+2
$SG193494 DB	'*', 00H, 'C', 00H, 'o', 00H, 'n', 00H, 't', 00H, 'r', 00H
	DB	'o', 00H, 'l', 00H, 'O', 00H, 'b', 00H, 'j', 00H, 'e', 00H, 'c'
	DB	00H, 't', 00H, 'V', 00H, 'e', 00H, 'r', 00H, 's', 00H, 'i', 00H
	DB	'o', 00H, 'n', 00H, ' ', 00H, '[', 00H, 'G', 00H, 'e', 00H, 't'
	DB	00H, ']', 00H, ':', 00H, ' ', 00H, '%', 00H, 'd', 00H, 00H, 00H
$SG193500 DB	'*', 00H, 'O', 00H, 'p', 00H, 'e', 00H, 'n', 00H, 'R', 00H
	DB	'e', 00H, 's', 00H, 'u', 00H, 'l', 00H, 't', 00H, ' ', 00H, '['
	DB	00H, 'G', 00H, 'e', 00H, 't', 00H, ']', 00H, ':', 00H, ' ', 00H
	DB	'%', 00H, 'd', 00H, 00H, 00H
	ORG $+4
$SG193510 DB	'BinaryConversion', 00H
	ORG $+7
$SG193515 DB	'CapPowerReporting', 00H
	ORG $+6
$SG193520 DB	'CheckHealthText', 00H
$SG193525 DB	'Claimed', 00H
$SG111605 DB	'A', 00H, 'p', 00H, 'p', 00H, 'I', 00H, 'D', 00H, 00H, 00H
	ORG $+4
$SG111606 DB	'C', 00H, 'L', 00H, 'S', 00H, 'I', 00H, 'D', 00H, 00H, 00H
	ORG $+4
$SG111607 DB	'C', 00H, 'o', 00H, 'm', 00H, 'p', 00H, 'o', 00H, 'n', 00H
	DB	'e', 00H, 'n', 00H, 't', 00H, ' ', 00H, 'C', 00H, 'a', 00H, 't'
	DB	00H, 'e', 00H, 'g', 00H, 'o', 00H, 'r', 00H, 'i', 00H, 'e', 00H
	DB	's', 00H, 00H, 00H
	ORG $+6
$SG111608 DB	'F', 00H, 'i', 00H, 'l', 00H, 'e', 00H, 'T', 00H, 'y', 00H
	DB	'p', 00H, 'e', 00H, 00H, 00H
	ORG $+6
$SG111609 DB	'I', 00H, 'n', 00H, 't', 00H, 'e', 00H, 'r', 00H, 'f', 00H
	DB	'a', 00H, 'c', 00H, 'e', 00H, 00H, 00H
	ORG $+4
$SG193530 DB	'DeviceEnabled', 00H
	ORG $+2
$SG111610 DB	'H', 00H, 'a', 00H, 'r', 00H, 'd', 00H, 'w', 00H, 'a', 00H
	DB	'r', 00H, 'e', 00H, 00H, 00H
	ORG $+6
$SG111611 DB	'M', 00H, 'i', 00H, 'm', 00H, 'e', 00H, 00H, 00H
	ORG $+6
$SG111612 DB	'S', 00H, 'A', 00H, 'M', 00H, 00H, 00H
$SG111613 DB	'S', 00H, 'E', 00H, 'C', 00H, 'U', 00H, 'R', 00H, 'I', 00H
	DB	'T', 00H, 'Y', 00H, 00H, 00H
	ORG $+6
$SG111614 DB	'S', 00H, 'Y', 00H, 'S', 00H, 'T', 00H, 'E', 00H, 'M', 00H
	DB	00H, 00H
	ORG $+2
$SG193535 DB	'DeviceEnabled', 00H
	ORG $+2
$SG111615 DB	'S', 00H, 'o', 00H, 'f', 00H, 't', 00H, 'w', 00H, 'a', 00H
	DB	'r', 00H, 'e', 00H, 00H, 00H
	ORG $+6
$SG111616 DB	'T', 00H, 'y', 00H, 'p', 00H, 'e', 00H, 'L', 00H, 'i', 00H
	DB	'b', 00H, 00H, 00H
$SG193540 DB	'OutputID', 00H
	ORG $+7
$SG193545 DB	'PowerNotify', 00H
	ORG $+4
$SG193550 DB	'PowerNotify', 00H
	ORG $+4
$SG193555 DB	'PowerState', 00H
	ORG $+5
$SG193560 DB	'ResultCodeExtended', 00H
	ORG $+5
$SG193565 DB	'ServiceObjectDescription', 00H
	ORG $+7
$SG193570 DB	'ServiceObjectVersion', 00H
	ORG $+3
$SG193575 DB	'DeviceDescription', 00H
	ORG $+6
$SG193580 DB	'DeviceName', 00H
	ORG $+5
$SG193585 DB	'CapStatisticsReporting', 00H
	ORG $+1
$SG193590 DB	'CapUpdateStatistics', 00H
	ORG $+4
$SG193595 DB	'CapCompareFirmwareVersion', 00H
	ORG $+6
$SG193600 DB	'CapUpdateFirmware', 00H
	ORG $+6
$SG193605 DB	'CapLanguage', 00H
	ORG $+4
$SG193610 DB	'CapPitch', 00H
	ORG $+7
$SG193615 DB	'CapSpeed', 00H
	ORG $+7
$SG193620 DB	'CapVoice', 00H
	ORG $+7
$SG193625 DB	'CapVolume', 00H
	ORG $+6
$SG193630 DB	'Language', 00H
	ORG $+7
$SG193635 DB	'Language', 00H
	ORG $+7
$SG193640 DB	'LanguageList', 00H
	ORG $+3
$SG193645 DB	'OutputIDList', 00H
	ORG $+3
$SG193680 DB	'VoiceList', 00H
	ORG $+6
$SG193720 DB	'[', 00H, 'U', 00H, 'n', 00H, 'k', 00H, 'n', 00H, 'o', 00H
	DB	'w', 00H, 'n', 00H, ']', 00H, 00H, 00H
	ORG $+4
$SG193733 DB	' ', 00H, ' ', 00H, ' ', 00H, ' ', 00H, '%', 00H, 'h', 00H
	DB	's', 00H, 00H, 00H
$SG193763 DB	'%', 00H, 's', 00H, ' ', 00H, 'L', 00H, 'e', 00H, 'n', 00H
	DB	'g', 00H, 't', 00H, 'h', 00H, ' ', 00H, '0', 00H, ' ', 00H, '<'
	DB	00H, '>', 00H, 00H, 00H
	ORG $+2
$SG193766 DB	'%', 00H, 's', 00H, ' ', 00H, 'L', 00H, 'e', 00H, 'n', 00H
	DB	'g', 00H, 't', 00H, 'h', 00H, ' ', 00H, '%', 00H, 'u', 00H, 00H
	DB	00H
	ORG $+6
$SG193778 DB	'%', 00H, 's', 00H, ' ', 00H, 'L', 00H, 'e', 00H, 'n', 00H
	DB	'g', 00H, 't', 00H, 'h', 00H, ' ', 00H, '%', 00H, 'u', 00H, ' '
	DB	00H, '[', 00H, 'B', 00H, 'i', 00H, 'n', 00H, 'C', 00H, 'o', 00H
	DB	'n', 00H, 'v', 00H, ']', 00H, 00H, 00H
	ORG $+2
$SG193811 DB	' ', 00H, '<', 00H, '%', 00H, 00H, 00H
$SG193813 DB	' ', 00H, ' ', 00H, '<', 00H, '%', 00H, '%', 00H, '.', 00H
	DB	'%', 00H, 'u', 00H, '%', 00H, 's', 00H, '>', 00H, 00H, 00H
$SG193814 DB	'%', 00H, 's', 00H, ' ', 00H, '[', 00H, 'C', 00H, 'o', 00H
	DB	'n', 00H, 't', 00H, 'a', 00H, 'i', 00H, 'n', 00H, 's', 00H, ' '
	DB	00H, 'n', 00H, 'o', 00H, 'n', 00H, '-', 00H, 'A', 00H, 'S', 00H
	DB	'C', 00H, 'I', 00H, 'I', 00H, ']', 00H, 00H, 00H
$SG186222 DB	'_', 00H, '_', 00H, 'a', 00H, 't', 00H, 'l', 00H, '_', 00H
	DB	'c', 00H, 'o', 00H, 'n', 00H, 'd', 00H, 'V', 00H, 'a', 00H, 'l'
	DB	00H, 00H, 00H
	ORG $+4
$SG186223 DB	'%', 00H, 'l', 00H, 's', 00H, 00H, 00H
$SG186227 DB	'l', 00H, 'p', 00H, 's', 00H, 'z', 00H, 'N', 00H, 'a', 00H
	DB	'm', 00H, 'e', 00H, 00H, 00H
	ORG $+6
$SG186224 DB	'C', 00H, ':', 00H, '\', 00H, 'P', 00H, 'r', 00H, 'o', 00H
	DB	'g', 00H, 'r', 00H, 'a', 00H, 'm', 00H, ' ', 00H, 'F', 00H, 'i'
	DB	00H, 'l', 00H, 'e', 00H, 's', 00H, ' ', 00H, '(', 00H, 'x', 00H
	DB	'8', 00H, '6', 00H, ')', 00H, '\', 00H, 'M', 00H, 'i', 00H, 'c'
	DB	00H, 'r', 00H, 'o', 00H, 's', 00H, 'o', 00H, 'f', 00H, 't', 00H
	DB	' ', 00H, 'V', 00H, 'i', 00H, 's', 00H, 'u', 00H, 'a', 00H, 'l'
	DB	00H, ' ', 00H, 'S', 00H, 't', 00H, 'u', 00H, 'd', 00H, 'i', 00H
	DB	'o', 00H, '\', 00H, '2', 00H, '0', 00H, '1', 00H, '9', 00H, '\'
	DB	00H, 'C', 00H, 'o', 00H, 'm', 00H, 'm', 00H, 'u', 00H, 'n', 00H
	DB	'i', 00H, 't', 00H, 'y', 00H, '\', 00H, 'V', 00H, 'C', 00H, '\'
	DB	00H, 'T', 00H, 'o', 00H, 'o', 00H, 'l', 00H, 's', 00H, '\', 00H
	DB	'M', 00H, 'S', 00H, 'V', 00H, 'C', 00H, '\', 00H, '1', 00H, '4'
	DB	00H, '.', 00H, '2', 00H, '8', 00H, '.', 00H, '2', 00H, '9', 00H
	DB	'3', 00H, '3', 00H, '3', 00H, '\', 00H, 'a', 00H, 't', 00H, 'l'
	DB	00H, 'm', 00H, 'f', 00H, 'c', 00H, '\', 00H, 'i', 00H, 'n', 00H
	DB	'c', 00H, 'l', 00H, 'u', 00H, 'd', 00H, 'e', 00H, '\', 00H, 'a'
	DB	00H, 't', 00H, 'l', 00H, 'h', 00H, 'o', 00H, 's', 00H, 't', 00H
	DB	'.', 00H, 'h', 00H, 00H, 00H
	ORG $+6
$SG186228 DB	'%', 00H, 'l', 00H, 's', 00H, 00H, 00H
$SG186229 DB	'C', 00H, ':', 00H, '\', 00H, 'P', 00H, 'r', 00H, 'o', 00H
	DB	'g', 00H, 'r', 00H, 'a', 00H, 'm', 00H, ' ', 00H, 'F', 00H, 'i'
	DB	00H, 'l', 00H, 'e', 00H, 's', 00H, ' ', 00H, '(', 00H, 'x', 00H
	DB	'8', 00H, '6', 00H, ')', 00H, '\', 00H, 'M', 00H, 'i', 00H, 'c'
	DB	00H, 'r', 00H, 'o', 00H, 's', 00H, 'o', 00H, 'f', 00H, 't', 00H
	DB	' ', 00H, 'V', 00H, 'i', 00H, 's', 00H, 'u', 00H, 'a', 00H, 'l'
	DB	00H, ' ', 00H, 'S', 00H, 't', 00H, 'u', 00H, 'd', 00H, 'i', 00H
	DB	'o', 00H, '\', 00H, '2', 00H, '0', 00H, '1', 00H, '9', 00H, '\'
	DB	00H, 'C', 00H, 'o', 00H, 'm', 00H, 'm', 00H, 'u', 00H, 'n', 00H
	DB	'i', 00H, 't', 00H, 'y', 00H, '\', 00H, 'V', 00H, 'C', 00H, '\'
	DB	00H, 'T', 00H, 'o', 00H, 'o', 00H, 'l', 00H, 's', 00H, '\', 00H
	DB	'M', 00H, 'S', 00H, 'V', 00H, 'C', 00H, '\', 00H, '1', 00H, '4'
	DB	00H, '.', 00H, '2', 00H, '8', 00H, '.', 00H, '2', 00H, '9', 00H
	DB	'3', 00H, '3', 00H, '3', 00H, '\', 00H, 'a', 00H, 't', 00H, 'l'
	DB	00H, 'm', 00H, 'f', 00H, 'c', 00H, '\', 00H, 'i', 00H, 'n', 00H
	DB	'c', 00H, 'l', 00H, 'u', 00H, 'd', 00H, 'e', 00H, '\', 00H, 'a'
	DB	00H, 't', 00H, 'l', 00H, 'h', 00H, 'o', 00H, 's', 00H, 't', 00H
	DB	'.', 00H, 'h', 00H, 00H, 00H
	ORG $+6
$SG186234 DB	'E', 00H, 'r', 00H, 'r', 00H, 'o', 00H, 'r', 00H, ' ', 00H
	DB	'c', 00H, 'o', 00H, 'd', 00H, 'e', 00H, ':', 00H, ' ', 00H, '0'
	DB	00H, 'x', 00H, '%', 00H, 'x', 00H, ' ', 00H, '-', 00H, ' ', 00H
	DB	'%', 00H, 'T', 00H, 's', 00H, 00H, 00H
	ORG $+2
$SG186243 DB	'%', 00H, 'l', 00H, 's', 00H, 00H, 00H
$SG186231 DB	'C:\Program Files (x86)\Microsoft Visual Studio\2019\Comm'
	DB	'unity\VC\Tools\MSVC\14.28.29333\atlmfc\include\atlhost.h', 00H
	ORG $+7
$SG186242 DB	'l', 00H, 'P', 00H, 'a', 00H, 'r', 00H, 'a', 00H, 'm', 00H
	DB	00H, 00H
	ORG $+2
$SG186317 DB	'%', 00H, 'l', 00H, 's', 00H, 00H, 00H
$SG186232 DB	'C', 00H, 'o', 00H, 'n', 00H, 't', 00H, 'r', 00H, 'o', 00H
	DB	'l', 00H, ' ', 00H, 'c', 00H, 'r', 00H, 'e', 00H, 'a', 00H, 't'
	DB	00H, 'i', 00H, 'o', 00H, 'n', 00H, ' ', 00H, 'f', 00H, 'a', 00H
	DB	'i', 00H, 'l', 00H, 'e', 00H, 'd', 00H, ' ', 00H, 'f', 00H, 'o'
	DB	00H, 'r', 00H, ' ', 00H, '''', 00H, '%', 00H, 'T', 00H, 's', 00H
	DB	'''', 00H, 0aH, 00H, 00H, 00H
	ORG $+2
$SG186323 DB	'l', 00H, 'p', 00H, 's', 00H, 'z', 00H, 'N', 00H, 'a', 00H
	DB	'm', 00H, 'e', 00H, 00H, 00H
	ORG $+6
$SG186233 DB	'C:\Program Files (x86)\Microsoft Visual Studio\2019\Comm'
	DB	'unity\VC\Tools\MSVC\14.28.29333\atlmfc\include\atlhost.h', 00H
	ORG $+7
$SG186316 DB	'_', 00H, '_', 00H, 'a', 00H, 't', 00H, 'l', 00H, '_', 00H
	DB	'c', 00H, 'o', 00H, 'n', 00H, 'd', 00H, 'V', 00H, 'a', 00H, 'l'
	DB	00H, 00H, 00H
	ORG $+4
$SG186324 DB	'%', 00H, 'l', 00H, 's', 00H, 00H, 00H
$SG186244 DB	'C', 00H, ':', 00H, '\', 00H, 'P', 00H, 'r', 00H, 'o', 00H
	DB	'g', 00H, 'r', 00H, 'a', 00H, 'm', 00H, ' ', 00H, 'F', 00H, 'i'
	DB	00H, 'l', 00H, 'e', 00H, 's', 00H, ' ', 00H, '(', 00H, 'x', 00H
	DB	'8', 00H, '6', 00H, ')', 00H, '\', 00H, 'M', 00H, 'i', 00H, 'c'
	DB	00H, 'r', 00H, 'o', 00H, 's', 00H, 'o', 00H, 'f', 00H, 't', 00H
	DB	' ', 00H, 'V', 00H, 'i', 00H, 's', 00H, 'u', 00H, 'a', 00H, 'l'
	DB	00H, ' ', 00H, 'S', 00H, 't', 00H, 'u', 00H, 'd', 00H, 'i', 00H
	DB	'o', 00H, '\', 00H, '2', 00H, '0', 00H, '1', 00H, '9', 00H, '\'
	DB	00H, 'C', 00H, 'o', 00H, 'm', 00H, 'm', 00H, 'u', 00H, 'n', 00H
	DB	'i', 00H, 't', 00H, 'y', 00H, '\', 00H, 'V', 00H, 'C', 00H, '\'
	DB	00H, 'T', 00H, 'o', 00H, 'o', 00H, 'l', 00H, 's', 00H, '\', 00H
	DB	'M', 00H, 'S', 00H, 'V', 00H, 'C', 00H, '\', 00H, '1', 00H, '4'
	DB	00H, '.', 00H, '2', 00H, '8', 00H, '.', 00H, '2', 00H, '9', 00H
	DB	'3', 00H, '3', 00H, '3', 00H, '\', 00H, 'a', 00H, 't', 00H, 'l'
	DB	00H, 'm', 00H, 'f', 00H, 'c', 00H, '\', 00H, 'i', 00H, 'n', 00H
	DB	'c', 00H, 'l', 00H, 'u', 00H, 'd', 00H, 'e', 00H, '\', 00H, 'a'
	DB	00H, 't', 00H, 'l', 00H, 'h', 00H, 'o', 00H, 's', 00H, 't', 00H
	DB	'.', 00H, 'h', 00H, 00H, 00H
	ORG $+6
$SG186330 DB	'E', 00H, 'r', 00H, 'r', 00H, 'o', 00H, 'r', 00H, ' ', 00H
	DB	'c', 00H, 'o', 00H, 'd', 00H, 'e', 00H, ':', 00H, ' ', 00H, '0'
	DB	00H, 'x', 00H, '%', 00H, 'x', 00H, ' ', 00H, '-', 00H, ' ', 00H
	DB	'%', 00H, 'T', 00H, 's', 00H, 00H, 00H
	ORG $+2
$SG186339 DB	'%', 00H, 'l', 00H, 's', 00H, 00H, 00H
$SG186318 DB	'C', 00H, ':', 00H, '\', 00H, 'P', 00H, 'r', 00H, 'o', 00H
	DB	'g', 00H, 'r', 00H, 'a', 00H, 'm', 00H, ' ', 00H, 'F', 00H, 'i'
	DB	00H, 'l', 00H, 'e', 00H, 's', 00H, ' ', 00H, '(', 00H, 'x', 00H
	DB	'8', 00H, '6', 00H, ')', 00H, '\', 00H, 'M', 00H, 'i', 00H, 'c'
	DB	00H, 'r', 00H, 'o', 00H, 's', 00H, 'o', 00H, 'f', 00H, 't', 00H
	DB	' ', 00H, 'V', 00H, 'i', 00H, 's', 00H, 'u', 00H, 'a', 00H, 'l'
	DB	00H, ' ', 00H, 'S', 00H, 't', 00H, 'u', 00H, 'd', 00H, 'i', 00H
	DB	'o', 00H, '\', 00H, '2', 00H, '0', 00H, '1', 00H, '9', 00H, '\'
	DB	00H, 'C', 00H, 'o', 00H, 'm', 00H, 'm', 00H, 'u', 00H, 'n', 00H
	DB	'i', 00H, 't', 00H, 'y', 00H, '\', 00H, 'V', 00H, 'C', 00H, '\'
	DB	00H, 'T', 00H, 'o', 00H, 'o', 00H, 'l', 00H, 's', 00H, '\', 00H
	DB	'M', 00H, 'S', 00H, 'V', 00H, 'C', 00H, '\', 00H, '1', 00H, '4'
	DB	00H, '.', 00H, '2', 00H, '8', 00H, '.', 00H, '2', 00H, '9', 00H
	DB	'3', 00H, '3', 00H, '3', 00H, '\', 00H, 'a', 00H, 't', 00H, 'l'
	DB	00H, 'm', 00H, 'f', 00H, 'c', 00H, '\', 00H, 'i', 00H, 'n', 00H
	DB	'c', 00H, 'l', 00H, 'u', 00H, 'd', 00H, 'e', 00H, '\', 00H, 'a'
	DB	00H, 't', 00H, 'l', 00H, 'h', 00H, 'o', 00H, 's', 00H, 't', 00H
	DB	'.', 00H, 'h', 00H, 00H, 00H
	ORG $+6
$SG186338 DB	'l', 00H, 'P', 00H, 'a', 00H, 'r', 00H, 'a', 00H, 'm', 00H
	DB	00H, 00H
	ORG $+2
$SG112736 DB	'l', 00H, 'p', 00H, 's', 00H, 'z', 00H, 'P', 00H, 'a', 00H
	DB	't', 00H, 'h', 00H, 'N', 00H, 'a', 00H, 'm', 00H, 'e', 00H, ' '
	DB	00H, '!', 00H, '=', 00H, ' ', 00H, '0', 00H, 00H, 00H
	ORG $+4
$SG186325 DB	'C', 00H, ':', 00H, '\', 00H, 'P', 00H, 'r', 00H, 'o', 00H
	DB	'g', 00H, 'r', 00H, 'a', 00H, 'm', 00H, ' ', 00H, 'F', 00H, 'i'
	DB	00H, 'l', 00H, 'e', 00H, 's', 00H, ' ', 00H, '(', 00H, 'x', 00H
	DB	'8', 00H, '6', 00H, ')', 00H, '\', 00H, 'M', 00H, 'i', 00H, 'c'
	DB	00H, 'r', 00H, 'o', 00H, 's', 00H, 'o', 00H, 'f', 00H, 't', 00H
	DB	' ', 00H, 'V', 00H, 'i', 00H, 's', 00H, 'u', 00H, 'a', 00H, 'l'
	DB	00H, ' ', 00H, 'S', 00H, 't', 00H, 'u', 00H, 'd', 00H, 'i', 00H
	DB	'o', 00H, '\', 00H, '2', 00H, '0', 00H, '1', 00H, '9', 00H, '\'
	DB	00H, 'C', 00H, 'o', 00H, 'm', 00H, 'm', 00H, 'u', 00H, 'n', 00H
	DB	'i', 00H, 't', 00H, 'y', 00H, '\', 00H, 'V', 00H, 'C', 00H, '\'
	DB	00H, 'T', 00H, 'o', 00H, 'o', 00H, 'l', 00H, 's', 00H, '\', 00H
	DB	'M', 00H, 'S', 00H, 'V', 00H, 'C', 00H, '\', 00H, '1', 00H, '4'
	DB	00H, '.', 00H, '2', 00H, '8', 00H, '.', 00H, '2', 00H, '9', 00H
	DB	'3', 00H, '3', 00H, '3', 00H, '\', 00H, 'a', 00H, 't', 00H, 'l'
	DB	00H, 'm', 00H, 'f', 00H, 'c', 00H, '\', 00H, 'i', 00H, 'n', 00H
	DB	'c', 00H, 'l', 00H, 'u', 00H, 'd', 00H, 'e', 00H, '\', 00H, 'a'
	DB	00H, 't', 00H, 'l', 00H, 'h', 00H, 'o', 00H, 's', 00H, 't', 00H
	DB	'.', 00H, 'h', 00H, 00H, 00H
	ORG $+6
$SG112737 DB	'%', 00H, 'l', 00H, 's', 00H, 00H, 00H
$SG186327 DB	'C:\Program Files (x86)\Microsoft Visual Studio\2019\Comm'
	DB	'unity\VC\Tools\MSVC\14.28.29333\atlmfc\include\atlhost.h', 00H
	ORG $+15
$SG186328 DB	'C', 00H, 'o', 00H, 'n', 00H, 't', 00H, 'r', 00H, 'o', 00H
	DB	'l', 00H, ' ', 00H, 'c', 00H, 'r', 00H, 'e', 00H, 'a', 00H, 't'
	DB	00H, 'i', 00H, 'o', 00H, 'n', 00H, ' ', 00H, 'f', 00H, 'a', 00H
	DB	'i', 00H, 'l', 00H, 'e', 00H, 'd', 00H, ' ', 00H, 'f', 00H, 'o'
	DB	00H, 'r', 00H, ' ', 00H, '''', 00H, '%', 00H, 'T', 00H, 's', 00H
	DB	'''', 00H, 0aH, 00H, 00H, 00H
	ORG $+10
$SG186329 DB	'C:\Program Files (x86)\Microsoft Visual Studio\2019\Comm'
	DB	'unity\VC\Tools\MSVC\14.28.29333\atlmfc\include\atlhost.h', 00H
	ORG $+15
$SG186340 DB	'C', 00H, ':', 00H, '\', 00H, 'P', 00H, 'r', 00H, 'o', 00H
	DB	'g', 00H, 'r', 00H, 'a', 00H, 'm', 00H, ' ', 00H, 'F', 00H, 'i'
	DB	00H, 'l', 00H, 'e', 00H, 's', 00H, ' ', 00H, '(', 00H, 'x', 00H
	DB	'8', 00H, '6', 00H, ')', 00H, '\', 00H, 'M', 00H, 'i', 00H, 'c'
	DB	00H, 'r', 00H, 'o', 00H, 's', 00H, 'o', 00H, 'f', 00H, 't', 00H
	DB	' ', 00H, 'V', 00H, 'i', 00H, 's', 00H, 'u', 00H, 'a', 00H, 'l'
	DB	00H, ' ', 00H, 'S', 00H, 't', 00H, 'u', 00H, 'd', 00H, 'i', 00H
	DB	'o', 00H, '\', 00H, '2', 00H, '0', 00H, '1', 00H, '9', 00H, '\'
	DB	00H, 'C', 00H, 'o', 00H, 'm', 00H, 'm', 00H, 'u', 00H, 'n', 00H
	DB	'i', 00H, 't', 00H, 'y', 00H, '\', 00H, 'V', 00H, 'C', 00H, '\'
	DB	00H, 'T', 00H, 'o', 00H, 'o', 00H, 'l', 00H, 's', 00H, '\', 00H
	DB	'M', 00H, 'S', 00H, 'V', 00H, 'C', 00H, '\', 00H, '1', 00H, '4'
	DB	00H, '.', 00H, '2', 00H, '8', 00H, '.', 00H, '2', 00H, '9', 00H
	DB	'3', 00H, '3', 00H, '3', 00H, '\', 00H, 'a', 00H, 't', 00H, 'l'
	DB	00H, 'm', 00H, 'f', 00H, 'c', 00H, '\', 00H, 'i', 00H, 'n', 00H
	DB	'c', 00H, 'l', 00H, 'u', 00H, 'd', 00H, 'e', 00H, '\', 00H, 'a'
	DB	00H, 't', 00H, 'l', 00H, 'h', 00H, 'o', 00H, 's', 00H, 't', 00H
	DB	'.', 00H, 'h', 00H, 00H, 00H
	ORG $+14
$SG112738 DB	'C', 00H, ':', 00H, '\', 00H, 'P', 00H, 'r', 00H, 'o', 00H
	DB	'g', 00H, 'r', 00H, 'a', 00H, 'm', 00H, ' ', 00H, 'F', 00H, 'i'
	DB	00H, 'l', 00H, 'e', 00H, 's', 00H, ' ', 00H, '(', 00H, 'x', 00H
	DB	'8', 00H, '6', 00H, ')', 00H, '\', 00H, 'M', 00H, 'i', 00H, 'c'
	DB	00H, 'r', 00H, 'o', 00H, 's', 00H, 'o', 00H, 'f', 00H, 't', 00H
	DB	' ', 00H, 'V', 00H, 'i', 00H, 's', 00H, 'u', 00H, 'a', 00H, 'l'
	DB	00H, ' ', 00H, 'S', 00H, 't', 00H, 'u', 00H, 'd', 00H, 'i', 00H
	DB	'o', 00H, '\', 00H, '2', 00H, '0', 00H, '1', 00H, '9', 00H, '\'
	DB	00H, 'C', 00H, 'o', 00H, 'm', 00H, 'm', 00H, 'u', 00H, 'n', 00H
	DB	'i', 00H, 't', 00H, 'y', 00H, '\', 00H, 'V', 00H, 'C', 00H, '\'
	DB	00H, 'T', 00H, 'o', 00H, 'o', 00H, 'l', 00H, 's', 00H, '\', 00H
	DB	'M', 00H, 'S', 00H, 'V', 00H, 'C', 00H, '\', 00H, '1', 00H, '4'
	DB	00H, '.', 00H, '2', 00H, '8', 00H, '.', 00H, '2', 00H, '9', 00H
	DB	'3', 00H, '3', 00H, '3', 00H, '\', 00H, 'a', 00H, 't', 00H, 'l'
	DB	00H, 'm', 00H, 'f', 00H, 'c', 00H, '\', 00H, 'i', 00H, 'n', 00H
	DB	'c', 00H, 'l', 00H, 'u', 00H, 'd', 00H, 'e', 00H, '\', 00H, 'a'
	DB	00H, 't', 00H, 'l', 00H, 'b', 00H, 'a', 00H, 's', 00H, 'e', 00H
	DB	'.', 00H, 'h', 00H, 00H, 00H
CONST	ENDS
PUBLIC	??_H@YAXPEAX_K1P6APEAX0@Z@Z			; `vector constructor iterator'
PUBLIC	??_I@YAXPEAX_K1P6AX0@Z@Z			; `vector destructor iterator'
PUBLIC	InlineIsEqualGUID
PUBLIC	HRESULT_FROM_WIN32
PUBLIC	??0IUnknown@@QEAA@XZ				; IUnknown::IUnknown
PUBLIC	??0IPersist@@QEAA@XZ				; IPersist::IPersist
PUBLIC	??0IPersistStorage@@QEAA@XZ			; IPersistStorage::IPersistStorage
PUBLIC	??0IDataObject@@QEAA@XZ				; IDataObject::IDataObject
PUBLIC	??0IDispatch@@QEAA@XZ				; IDispatch::IDispatch
PUBLIC	??0IOleObject@@QEAA@XZ				; IOleObject::IOleObject
PUBLIC	??0IOleWindow@@QEAA@XZ				; IOleWindow::IOleWindow
PUBLIC	??0IOleInPlaceActiveObject@@QEAA@XZ		; IOleInPlaceActiveObject::IOleInPlaceActiveObject
PUBLIC	??0IOleInPlaceObject@@QEAA@XZ			; IOleInPlaceObject::IOleInPlaceObject
PUBLIC	??0IViewObject@@QEAA@XZ				; IViewObject::IViewObject
PUBLIC	??0IViewObject2@@QEAA@XZ			; IViewObject2::IViewObject2
PUBLIC	?AtlThrowImpl@ATL@@YAXJ@Z			; ATL::AtlThrowImpl
PUBLIC	__local_stdio_printf_options
PUBLIC	_vfwprintf_l
PUBLIC	vfwprintf
PUBLIC	_vsnwprintf_l
PUBLIC	_snwprintf
PUBLIC	_vsnwprintf
PUBLIC	_vswprintf_s_l
PUBLIC	swprintf_s
PUBLIC	??$AtlMultiply@H@ATL@@YAJPEAHHH@Z		; ATL::AtlMultiply<int>
PUBLIC	?Allocate@CCRTAllocator@ATL@@SAPEAX_K@Z		; ATL::CCRTAllocator::Allocate
PUBLIC	?Free@CCRTAllocator@ATL@@SAXPEAX@Z		; ATL::CCRTAllocator::Free
PUBLIC	??0?$CTraceCategoryEx@$0IAAAA@$0A@@ATL@@QEAA@PEB_W@Z ; ATL::CTraceCategoryEx<524288,0>::CTraceCategoryEx<524288,0>
PUBLIC	??0?$CTraceCategoryEx@$00$0A@@ATL@@QEAA@PEB_W@Z	; ATL::CTraceCategoryEx<1,0>::CTraceCategoryEx<1,0>
PUBLIC	??0?$CTraceCategoryEx@$01$0A@@ATL@@QEAA@PEB_W@Z	; ATL::CTraceCategoryEx<2,0>::CTraceCategoryEx<2,0>
PUBLIC	??B?$CTraceCategoryEx@$01$0A@@ATL@@QEAAIXZ	; ATL::CTraceCategoryEx<2,0>::operator unsigned int
PUBLIC	??0?$CTraceCategoryEx@$03$0A@@ATL@@QEAA@PEB_W@Z	; ATL::CTraceCategoryEx<4,0>::CTraceCategoryEx<4,0>
PUBLIC	??0?$CTraceCategoryEx@$07$0A@@ATL@@QEAA@PEB_W@Z	; ATL::CTraceCategoryEx<8,0>::CTraceCategoryEx<8,0>
PUBLIC	??0?$CTraceCategoryEx@$0BA@$0A@@ATL@@QEAA@PEB_W@Z ; ATL::CTraceCategoryEx<16,0>::CTraceCategoryEx<16,0>
PUBLIC	??0?$CTraceCategoryEx@$0CA@$0A@@ATL@@QEAA@PEB_W@Z ; ATL::CTraceCategoryEx<32,0>::CTraceCategoryEx<32,0>
PUBLIC	??B?$CTraceCategoryEx@$0CA@$0A@@ATL@@QEAAIXZ	; ATL::CTraceCategoryEx<32,0>::operator unsigned int
PUBLIC	??0?$CTraceCategoryEx@$0EA@$0A@@ATL@@QEAA@PEB_W@Z ; ATL::CTraceCategoryEx<64,0>::CTraceCategoryEx<64,0>
PUBLIC	??B?$CTraceCategoryEx@$0EA@$0A@@ATL@@QEAAIXZ	; ATL::CTraceCategoryEx<64,0>::operator unsigned int
PUBLIC	??0?$CTraceCategoryEx@$0IA@$0A@@ATL@@QEAA@PEB_W@Z ; ATL::CTraceCategoryEx<128,0>::CTraceCategoryEx<128,0>
PUBLIC	??0?$CTraceCategoryEx@$0BAA@$0A@@ATL@@QEAA@PEB_W@Z ; ATL::CTraceCategoryEx<256,0>::CTraceCategoryEx<256,0>
PUBLIC	??0?$CTraceCategoryEx@$0CAA@$0A@@ATL@@QEAA@PEB_W@Z ; ATL::CTraceCategoryEx<512,0>::CTraceCategoryEx<512,0>
PUBLIC	??0?$CTraceCategoryEx@$0EAA@$0A@@ATL@@QEAA@PEB_W@Z ; ATL::CTraceCategoryEx<1024,0>::CTraceCategoryEx<1024,0>
PUBLIC	??0?$CTraceCategoryEx@$0IAA@$0A@@ATL@@QEAA@PEB_W@Z ; ATL::CTraceCategoryEx<2048,0>::CTraceCategoryEx<2048,0>
PUBLIC	??0?$CTraceCategoryEx@$0BAAA@$0A@@ATL@@QEAA@PEB_W@Z ; ATL::CTraceCategoryEx<4096,0>::CTraceCategoryEx<4096,0>
PUBLIC	??0?$CTraceCategoryEx@$0CAAA@$0A@@ATL@@QEAA@PEB_W@Z ; ATL::CTraceCategoryEx<8192,0>::CTraceCategoryEx<8192,0>
PUBLIC	??B?$CTraceCategoryEx@$0CAAA@$0A@@ATL@@QEAAIXZ	; ATL::CTraceCategoryEx<8192,0>::operator unsigned int
PUBLIC	??0?$CTraceCategoryEx@$0EAAA@$0A@@ATL@@QEAA@PEB_W@Z ; ATL::CTraceCategoryEx<16384,0>::CTraceCategoryEx<16384,0>
PUBLIC	??0?$CTraceCategoryEx@$0IAAA@$0A@@ATL@@QEAA@PEB_W@Z ; ATL::CTraceCategoryEx<32768,0>::CTraceCategoryEx<32768,0>
PUBLIC	??0?$CTraceCategoryEx@$0BAAAA@$0A@@ATL@@QEAA@PEB_W@Z ; ATL::CTraceCategoryEx<65536,0>::CTraceCategoryEx<65536,0>
PUBLIC	??0?$CTraceCategoryEx@$0CAAAA@$0A@@ATL@@QEAA@PEB_W@Z ; ATL::CTraceCategoryEx<131072,0>::CTraceCategoryEx<131072,0>
PUBLIC	??0?$CTraceCategoryEx@$0EAAAA@$0A@@ATL@@QEAA@PEB_W@Z ; ATL::CTraceCategoryEx<262144,0>::CTraceCategoryEx<262144,0>
PUBLIC	??0?$CTraceCategoryEx@$0BAAAAA@$0A@@ATL@@QEAA@PEB_W@Z ; ATL::CTraceCategoryEx<1048576,0>::CTraceCategoryEx<1048576,0>
PUBLIC	??0?$CTraceCategoryEx@$0CAAAAA@$0A@@ATL@@QEAA@PEB_W@Z ; ATL::CTraceCategoryEx<2097152,0>::CTraceCategoryEx<2097152,0>
PUBLIC	??0?$CTraceCategoryEx@$0EAAAAA@$0A@@ATL@@QEAA@PEB_W@Z ; ATL::CTraceCategoryEx<4194304,0>::CTraceCategoryEx<4194304,0>
PUBLIC	?GetCategoryName@CTrace@ATL@@CAPEA_WI@Z		; ATL::CTrace::GetCategoryName
PUBLIC	?TraceV@CTrace@ATL@@CAXPEBDHIIPEB_W@Z		; ATL::CTrace::TraceV
PUBLIC	?TraceV@CTrace@ATL@@SAXPEBDHIIPEB_WPEAD@Z	; ATL::CTrace::TraceV
PUBLIC	?RegisterCategory@CTrace@ATL@@SAXPEB_WI@Z	; ATL::CTrace::RegisterCategory
PUBLIC	??0?$CHeapPtrBase@_WVCCRTAllocator@ATL@@@ATL@@IEAA@XZ ; ATL::CHeapPtrBase<wchar_t,ATL::CCRTAllocator>::CHeapPtrBase<wchar_t,ATL::CCRTAllocator>
PUBLIC	??1?$CHeapPtrBase@_WVCCRTAllocator@ATL@@@ATL@@QEAA@XZ ; ATL::CHeapPtrBase<wchar_t,ATL::CCRTAllocator>::~CHeapPtrBase<wchar_t,ATL::CCRTAllocator>
PUBLIC	??B?$CHeapPtrBase@_WVCCRTAllocator@ATL@@@ATL@@QEBAPEA_WXZ ; ATL::CHeapPtrBase<wchar_t,ATL::CCRTAllocator>::operator wchar_t *
PUBLIC	?AllocateBytes@?$CHeapPtrBase@_WVCCRTAllocator@ATL@@@ATL@@QEAA_N_K@Z ; ATL::CHeapPtrBase<wchar_t,ATL::CCRTAllocator>::AllocateBytes
PUBLIC	?Free@?$CHeapPtrBase@_WVCCRTAllocator@ATL@@@ATL@@QEAAXXZ ; ATL::CHeapPtrBase<wchar_t,ATL::CCRTAllocator>::Free
PUBLIC	??0?$CHeapPtr@_WVCCRTAllocator@ATL@@@ATL@@QEAA@XZ ; ATL::CHeapPtr<wchar_t,ATL::CCRTAllocator>::CHeapPtr<wchar_t,ATL::CCRTAllocator>
PUBLIC	?Allocate@?$CHeapPtr@_WVCCRTAllocator@ATL@@@ATL@@QEAA_N_K@Z ; ATL::CHeapPtr<wchar_t,ATL::CCRTAllocator>::Allocate
PUBLIC	??1?$CHeapPtr@_WVCCRTAllocator@ATL@@@ATL@@QEAA@XZ ; ATL::CHeapPtr<wchar_t,ATL::CCRTAllocator>::~CHeapPtr<wchar_t,ATL::CCRTAllocator>
PUBLIC	??0CPreserveLastError@ATL@@QEAA@XZ		; ATL::CPreserveLastError::CPreserveLastError
PUBLIC	??1CPreserveLastError@ATL@@QEAA@XZ		; ATL::CPreserveLastError::~CPreserveLastError
PUBLIC	??0CTraceFileAndLineInfo@ATL@@QEAA@PEBDH@Z	; ATL::CTraceFileAndLineInfo::CTraceFileAndLineInfo
PUBLIC	??RCTraceFileAndLineInfo@ATL@@QEBAXHIPEB_WZZ	; ATL::CTraceFileAndLineInfo::operator()
PUBLIC	?_AtlRaiseException@ATL@@YAXKK@Z		; ATL::_AtlRaiseException
PUBLIC	?_AtlInitializeCriticalSectionEx@ATL@@YAHPEAU_RTL_CRITICAL_SECTION@@KK@Z ; ATL::_AtlInitializeCriticalSectionEx
PUBLIC	??0CComCriticalSection@ATL@@QEAA@XZ		; ATL::CComCriticalSection::CComCriticalSection
PUBLIC	??1CComCriticalSection@ATL@@QEAA@XZ		; ATL::CComCriticalSection::~CComCriticalSection
PUBLIC	?Init@CComCriticalSection@ATL@@QEAAJXZ		; ATL::CComCriticalSection::Init
PUBLIC	?Term@CComCriticalSection@ATL@@QEAAJXZ		; ATL::CComCriticalSection::Term
PUBLIC	?GetModuleInstance@CAtlBaseModule@ATL@@QEAAPEAUHINSTANCE__@@XZ ; ATL::CAtlBaseModule::GetModuleInstance
PUBLIC	??0IEnumConnections@@QEAA@XZ			; IEnumConnections::IEnumConnections
PUBLIC	??0IConnectionPointContainer@@QEAA@XZ		; IConnectionPointContainer::IConnectionPointContainer
PUBLIC	??0IProvideClassInfo@@QEAA@XZ			; IProvideClassInfo::IProvideClassInfo
PUBLIC	??0IProvideClassInfo2@@QEAA@XZ			; IProvideClassInfo2::IProvideClassInfo2
PUBLIC	??0IOleControl@@QEAA@XZ				; IOleControl::IOleControl
PUBLIC	??0ISpecifyPropertyPages@@QEAA@XZ		; ISpecifyPropertyPages::ISpecifyPropertyPages
PUBLIC	??0IPersistStreamInit@@QEAA@XZ			; IPersistStreamInit::IPersistStreamInit
PUBLIC	??0IOleInPlaceObjectWindowless@@QEAA@XZ		; IOleInPlaceObjectWindowless::IOleInPlaceObjectWindowless
PUBLIC	??0IViewObjectEx@@QEAA@XZ			; IViewObjectEx::IViewObjectEx
PUBLIC	??0IQuickActivate@@QEAA@XZ			; IQuickActivate::IQuickActivate
PUBLIC	??0?$CComPtrBase@UIDispatch@@@ATL@@IEAA@XZ	; ATL::CComPtrBase<IDispatch>::CComPtrBase<IDispatch>
PUBLIC	??1?$CComPtrBase@UIDispatch@@@ATL@@QEAA@XZ	; ATL::CComPtrBase<IDispatch>::~CComPtrBase<IDispatch>
PUBLIC	??0?$CComPtr@UIDispatch@@@ATL@@QEAA@XZ		; ATL::CComPtr<IDispatch>::CComPtr<IDispatch>
PUBLIC	??1?$CComPtr@UIDispatch@@@ATL@@QEAA@XZ		; ATL::CComPtr<IDispatch>::~CComPtr<IDispatch>
PUBLIC	??0?$CComPtrBase@UIUnknown@@@ATL@@IEAA@XZ	; ATL::CComPtrBase<IUnknown>::CComPtrBase<IUnknown>
PUBLIC	??0?$CComPtrBase@UIUnknown@@@ATL@@IEAA@PEAUIUnknown@@@Z ; ATL::CComPtrBase<IUnknown>::CComPtrBase<IUnknown>
PUBLIC	?Swap@?$CComPtrBase@UIUnknown@@@ATL@@IEAAXAEAV12@@Z ; ATL::CComPtrBase<IUnknown>::Swap
PUBLIC	??1?$CComPtrBase@UIUnknown@@@ATL@@QEAA@XZ	; ATL::CComPtrBase<IUnknown>::~CComPtrBase<IUnknown>
PUBLIC	??B?$CComPtrBase@UIUnknown@@@ATL@@QEBAPEAUIUnknown@@XZ ; ATL::CComPtrBase<IUnknown>::operator IUnknown *
PUBLIC	??0?$CComPtr@UIUnknown@@@ATL@@QEAA@XZ		; ATL::CComPtr<IUnknown>::CComPtr<IUnknown>
PUBLIC	??0?$CComPtr@UIUnknown@@@ATL@@QEAA@PEAUIUnknown@@@Z ; ATL::CComPtr<IUnknown>::CComPtr<IUnknown>
PUBLIC	??0?$CComPtr@UIUnknown@@@ATL@@QEAA@AEBV01@@Z	; ATL::CComPtr<IUnknown>::CComPtr<IUnknown>
PUBLIC	??4?$CComPtr@UIUnknown@@@ATL@@QEAAPEAUIUnknown@@PEAU2@@Z ; ATL::CComPtr<IUnknown>::operator=
PUBLIC	??1?$CComPtr@UIUnknown@@@ATL@@QEAA@XZ		; ATL::CComPtr<IUnknown>::~CComPtr<IUnknown>
PUBLIC	??1CComBSTR@ATL@@QEAA@XZ			; ATL::CComBSTR::~CComBSTR
PUBLIC	?Increment@CComSingleThreadModel@ATL@@SAKPEAJ@Z	; ATL::CComSingleThreadModel::Increment
PUBLIC	?Decrement@CComSingleThreadModel@ATL@@SAKPEAJ@Z	; ATL::CComSingleThreadModel::Decrement
PUBLIC	??0_ATL_COM_MODULE70@ATL@@QEAA@XZ		; ATL::_ATL_COM_MODULE70::_ATL_COM_MODULE70
PUBLIC	??1_ATL_COM_MODULE70@ATL@@QEAA@XZ		; ATL::_ATL_COM_MODULE70::~_ATL_COM_MODULE70
PUBLIC	??0?$CSimpleArray@GV?$CSimpleArrayEqualHelper@G@ATL@@@ATL@@QEAA@XZ ; ATL::CSimpleArray<unsigned short,ATL::CSimpleArrayEqualHelper<unsigned short> >::CSimpleArray<unsigned short,ATL::CSimpleArrayEqualHelper<unsigned short> >
PUBLIC	??1?$CSimpleArray@GV?$CSimpleArrayEqualHelper@G@ATL@@@ATL@@QEAA@XZ ; ATL::CSimpleArray<unsigned short,ATL::CSimpleArrayEqualHelper<unsigned short> >::~CSimpleArray<unsigned short,ATL::CSimpleArrayEqualHelper<unsigned short> >
PUBLIC	?GetSize@?$CSimpleArray@GV?$CSimpleArrayEqualHelper@G@ATL@@@ATL@@QEBAHXZ ; ATL::CSimpleArray<unsigned short,ATL::CSimpleArrayEqualHelper<unsigned short> >::GetSize
PUBLIC	?RemoveAll@?$CSimpleArray@GV?$CSimpleArrayEqualHelper@G@ATL@@@ATL@@QEAAXXZ ; ATL::CSimpleArray<unsigned short,ATL::CSimpleArrayEqualHelper<unsigned short> >::RemoveAll
PUBLIC	??A?$CSimpleArray@GV?$CSimpleArrayEqualHelper@G@ATL@@@ATL@@QEAAAEAGH@Z ; ATL::CSimpleArray<unsigned short,ATL::CSimpleArrayEqualHelper<unsigned short> >::operator[]
PUBLIC	??0_ATL_WIN_MODULE70@ATL@@QEAA@XZ		; ATL::_ATL_WIN_MODULE70::_ATL_WIN_MODULE70
PUBLIC	??1_ATL_WIN_MODULE70@ATL@@QEAA@XZ		; ATL::_ATL_WIN_MODULE70::~_ATL_WIN_MODULE70
PUBLIC	?AtlInternalQueryInterface@ATL@@YAJPEAXPEBU_ATL_INTMAP_ENTRY@1@AEBU_GUID@@PEAPEAX@Z ; ATL::AtlInternalQueryInterface
PUBLIC	?AtlWinModuleInit@ATL@@YAJPEAU_ATL_WIN_MODULE70@1@@Z ; ATL::AtlWinModuleInit
PUBLIC	?AtlWinModuleTerm@ATL@@YAJPEAU_ATL_WIN_MODULE70@1@PEAUHINSTANCE__@@@Z ; ATL::AtlWinModuleTerm
PUBLIC	?InlineIsEqualUnknown@ATL@@YAHAEBU_GUID@@@Z	; ATL::InlineIsEqualUnknown
PUBLIC	??0CAtlComModule@ATL@@QEAA@XZ			; ATL::CAtlComModule::CAtlComModule
PUBLIC	??1CAtlComModule@ATL@@QEAA@XZ			; ATL::CAtlComModule::~CAtlComModule
PUBLIC	?Term@CAtlComModule@ATL@@QEAAXXZ		; ATL::CAtlComModule::Term
PUBLIC	??0CAtlWinModule@ATL@@QEAA@XZ			; ATL::CAtlWinModule::CAtlWinModule
PUBLIC	??1CAtlWinModule@ATL@@QEAA@XZ			; ATL::CAtlWinModule::~CAtlWinModule
PUBLIC	?Term@CAtlWinModule@ATL@@QEAAXXZ		; ATL::CAtlWinModule::Term
PUBLIC	?GetModuleInstance@CComModule@ATL@@QEAAPEAUHINSTANCE__@@XZ ; ATL::CComModule::GetModuleInstance
PUBLIC	??0CDynamicStdCallThunk2@ATL@@QEAA@XZ		; ATL::CDynamicStdCallThunk2::CDynamicStdCallThunk2
PUBLIC	??1CDynamicStdCallThunk2@ATL@@QEAA@XZ		; ATL::CDynamicStdCallThunk2::~CDynamicStdCallThunk2
PUBLIC	??0CComObjectRootBase@ATL@@QEAA@XZ		; ATL::CComObjectRootBase::CComObjectRootBase
PUBLIC	??1CComObjectRootBase@ATL@@QEAA@XZ		; ATL::CComObjectRootBase::~CComObjectRootBase
PUBLIC	?FinalConstruct@CComObjectRootBase@ATL@@QEAAJXZ	; ATL::CComObjectRootBase::FinalConstruct
PUBLIC	?_AtlFinalConstruct@CComObjectRootBase@ATL@@QEAAJXZ ; ATL::CComObjectRootBase::_AtlFinalConstruct
PUBLIC	?FinalRelease@CComObjectRootBase@ATL@@QEAAXXZ	; ATL::CComObjectRootBase::FinalRelease
PUBLIC	?InternalQueryInterface@CComObjectRootBase@ATL@@SAJPEAXPEBU_ATL_INTMAP_ENTRY@2@AEBU_GUID@@PEAPEAX@Z ; ATL::CComObjectRootBase::InternalQueryInterface
PUBLIC	?SetVoid@CComObjectRootBase@ATL@@QEAAXPEAX@Z	; ATL::CComObjectRootBase::SetVoid
PUBLIC	?InternalFinalConstructAddRef@CComObjectRootBase@ATL@@QEAAXXZ ; ATL::CComObjectRootBase::InternalFinalConstructAddRef
PUBLIC	?InternalFinalConstructRelease@CComObjectRootBase@ATL@@QEAAXXZ ; ATL::CComObjectRootBase::InternalFinalConstructRelease
PUBLIC	??1?$CComObjectRootEx@VCComSingleThreadModel@ATL@@@ATL@@QEAA@XZ ; ATL::CComObjectRootEx<ATL::CComSingleThreadModel>::~CComObjectRootEx<ATL::CComSingleThreadModel>
PUBLIC	?InternalAddRef@?$CComObjectRootEx@VCComSingleThreadModel@ATL@@@ATL@@QEAAKXZ ; ATL::CComObjectRootEx<ATL::CComSingleThreadModel>::InternalAddRef
PUBLIC	?InternalRelease@?$CComObjectRootEx@VCComSingleThreadModel@ATL@@@ATL@@QEAAKXZ ; ATL::CComObjectRootEx<ATL::CComSingleThreadModel>::InternalRelease
PUBLIC	?_AtlInitialConstruct@?$CComObjectRootEx@VCComSingleThreadModel@ATL@@@ATL@@QEAAJXZ ; ATL::CComObjectRootEx<ATL::CComSingleThreadModel>::_AtlInitialConstruct
PUBLIC	?Lock@?$CComObjectRootEx@VCComSingleThreadModel@ATL@@@ATL@@QEAAXXZ ; ATL::CComObjectRootEx<ATL::CComSingleThreadModel>::Lock
PUBLIC	?Unlock@?$CComObjectRootEx@VCComSingleThreadModel@ATL@@@ATL@@QEAAXXZ ; ATL::CComObjectRootEx<ATL::CComSingleThreadModel>::Unlock
PUBLIC	??0?$CComObjectRootEx@VCComSingleThreadModel@ATL@@@ATL@@QEAA@XZ ; ATL::CComObjectRootEx<ATL::CComSingleThreadModel>::CComObjectRootEx<ATL::CComSingleThreadModel>
PUBLIC	??0ModuleLockHelper@ATL@@QEAA@XZ		; ATL::ModuleLockHelper::ModuleLockHelper
PUBLIC	??1ModuleLockHelper@ATL@@QEAA@XZ		; ATL::ModuleLockHelper::~ModuleLockHelper
PUBLIC	??1stringdispid@CComTypeInfoHolder@ATL@@QEAA@XZ	; ATL::CComTypeInfoHolder::stringdispid::~stringdispid
PUBLIC	??_Estringdispid@CComTypeInfoHolder@ATL@@QEAAPEAXI@Z ; ATL::CComTypeInfoHolder::stringdispid::`vector deleting destructor'
PUBLIC	?copy@?$_Copy@UtagCONNECTDATA@@@ATL@@SAJPEAUtagCONNECTDATA@@PEBU3@@Z ; ATL::_Copy<tagCONNECTDATA>::copy
PUBLIC	?init@?$_Copy@UtagCONNECTDATA@@@ATL@@SAXPEAUtagCONNECTDATA@@@Z ; ATL::_Copy<tagCONNECTDATA>::init
PUBLIC	?destroy@?$_Copy@UtagCONNECTDATA@@@ATL@@SAXPEAUtagCONNECTDATA@@@Z ; ATL::_Copy<tagCONNECTDATA>::destroy
PUBLIC	??0CComDynamicUnkArray@ATL@@QEAA@XZ		; ATL::CComDynamicUnkArray::CComDynamicUnkArray
PUBLIC	??1CComDynamicUnkArray@ATL@@QEAA@XZ		; ATL::CComDynamicUnkArray::~CComDynamicUnkArray
PUBLIC	?Add@CComDynamicUnkArray@ATL@@QEAAKPEAUIUnknown@@@Z ; ATL::CComDynamicUnkArray::Add
PUBLIC	?Remove@CComDynamicUnkArray@ATL@@QEAAHK@Z	; ATL::CComDynamicUnkArray::Remove
PUBLIC	?GetCookie@CComDynamicUnkArray@ATL@@QEAAKPEAPEAUIUnknown@@@Z ; ATL::CComDynamicUnkArray::GetCookie
PUBLIC	?GetUnknown@CComDynamicUnkArray@ATL@@QEAAPEAUIUnknown@@K@Z ; ATL::CComDynamicUnkArray::GetUnknown
PUBLIC	?begin@CComDynamicUnkArray@ATL@@QEAAPEAPEAUIUnknown@@XZ ; ATL::CComDynamicUnkArray::begin
PUBLIC	?end@CComDynamicUnkArray@ATL@@QEAAPEAPEAUIUnknown@@XZ ; ATL::CComDynamicUnkArray::end
PUBLIC	?GetAt@CComDynamicUnkArray@ATL@@QEAAPEAUIUnknown@@H@Z ; ATL::CComDynamicUnkArray::GetAt
PUBLIC	?GetSize@CComDynamicUnkArray@ATL@@QEBAHXZ	; ATL::CComDynamicUnkArray::GetSize
PUBLIC	??$AtlMultiply@_K@ATL@@YAJPEA_K_K1@Z		; ATL::AtlMultiply<unsigned __int64>
PUBLIC	??0CWindow@ATL@@QEAA@PEAUHWND__@@@Z		; ATL::CWindow::CWindow
PUBLIC	??0CWndProcThunk@ATL@@QEAA@XZ			; ATL::CWndProcThunk::CWndProcThunk
PUBLIC	??1CWndProcThunk@ATL@@QEAA@XZ			; ATL::CWndProcThunk::~CWndProcThunk
PUBLIC	??0CMessageMap@ATL@@QEAA@XZ			; ATL::CMessageMap::CMessageMap
PUBLIC	??0?$CWindowImplRoot@VCWindow@ATL@@@ATL@@QEAA@XZ ; ATL::CWindowImplRoot<ATL::CWindow>::CWindowImplRoot<ATL::CWindow>
PUBLIC	??1?$CWindowImplRoot@VCWindow@ATL@@@ATL@@UEAA@XZ ; ATL::CWindowImplRoot<ATL::CWindow>::~CWindowImplRoot<ATL::CWindow>
PUBLIC	??0?$CWindowImplBaseT@VCWindow@ATL@@V?$CWinTraits@$0FGAAAAAA@$0A@@2@@ATL@@QEAA@XZ ; ATL::CWindowImplBaseT<ATL::CWindow,ATL::CWinTraits<1442840576,0> >::CWindowImplBaseT<ATL::CWindow,ATL::CWinTraits<1442840576,0> >
PUBLIC	??1?$CWindowImplBaseT@VCWindow@ATL@@V?$CWinTraits@$0FGAAAAAA@$0A@@2@@ATL@@UEAA@XZ ; ATL::CWindowImplBaseT<ATL::CWindow,ATL::CWinTraits<1442840576,0> >::~CWindowImplBaseT<ATL::CWindow,ATL::CWinTraits<1442840576,0> >
PUBLIC	??0?$CComPtrBase@UIOleClientSite@@@ATL@@IEAA@XZ	; ATL::CComPtrBase<IOleClientSite>::CComPtrBase<IOleClientSite>
PUBLIC	??1?$CComPtrBase@UIOleClientSite@@@ATL@@QEAA@XZ	; ATL::CComPtrBase<IOleClientSite>::~CComPtrBase<IOleClientSite>
PUBLIC	??0?$CComPtr@UIOleClientSite@@@ATL@@QEAA@XZ	; ATL::CComPtr<IOleClientSite>::CComPtr<IOleClientSite>
PUBLIC	??1?$CComPtr@UIOleClientSite@@@ATL@@QEAA@XZ	; ATL::CComPtr<IOleClientSite>::~CComPtr<IOleClientSite>
PUBLIC	??0?$CComPtrBase@UIAdviseSink@@@ATL@@IEAA@XZ	; ATL::CComPtrBase<IAdviseSink>::CComPtrBase<IAdviseSink>
PUBLIC	??1?$CComPtrBase@UIAdviseSink@@@ATL@@QEAA@XZ	; ATL::CComPtrBase<IAdviseSink>::~CComPtrBase<IAdviseSink>
PUBLIC	??0?$CComPtr@UIAdviseSink@@@ATL@@QEAA@XZ	; ATL::CComPtr<IAdviseSink>::CComPtr<IAdviseSink>
PUBLIC	??1?$CComPtr@UIAdviseSink@@@ATL@@QEAA@XZ	; ATL::CComPtr<IAdviseSink>::~CComPtr<IAdviseSink>
PUBLIC	??0IObjectSafety@@QEAA@XZ			; IObjectSafety::IObjectSafety
PUBLIC	??0CComControlBase@ATL@@QEAA@AEAPEAUHWND__@@@Z	; ATL::CComControlBase::CComControlBase
PUBLIC	??1CComControlBase@ATL@@UEAA@XZ			; ATL::CComControlBase::~CComControlBase
PUBLIC	??0?$CComPtrBase@UIOleInPlaceSiteWindowless@@@ATL@@IEAA@XZ ; ATL::CComPtrBase<IOleInPlaceSiteWindowless>::CComPtrBase<IOleInPlaceSiteWindowless>
PUBLIC	??1?$CComPtrBase@UIOleInPlaceSiteWindowless@@@ATL@@QEAA@XZ ; ATL::CComPtrBase<IOleInPlaceSiteWindowless>::~CComPtrBase<IOleInPlaceSiteWindowless>
PUBLIC	??0?$CComPtr@UIOleInPlaceSiteWindowless@@@ATL@@QEAA@XZ ; ATL::CComPtr<IOleInPlaceSiteWindowless>::CComPtr<IOleInPlaceSiteWindowless>
PUBLIC	??1?$CComPtr@UIOleInPlaceSiteWindowless@@@ATL@@QEAA@XZ ; ATL::CComPtr<IOleInPlaceSiteWindowless>::~CComPtr<IOleInPlaceSiteWindowless>
PUBLIC	??0?$CComPtrBase@UIDataAdviseHolder@@@ATL@@IEAA@XZ ; ATL::CComPtrBase<IDataAdviseHolder>::CComPtrBase<IDataAdviseHolder>
PUBLIC	??1?$CComPtrBase@UIDataAdviseHolder@@@ATL@@QEAA@XZ ; ATL::CComPtrBase<IDataAdviseHolder>::~CComPtrBase<IDataAdviseHolder>
PUBLIC	??0?$CComPtr@UIDataAdviseHolder@@@ATL@@QEAA@XZ	; ATL::CComPtr<IDataAdviseHolder>::CComPtr<IDataAdviseHolder>
PUBLIC	??1?$CComPtr@UIDataAdviseHolder@@@ATL@@QEAA@XZ	; ATL::CComPtr<IDataAdviseHolder>::~CComPtr<IDataAdviseHolder>
PUBLIC	??0?$CComPtrBase@UIOleAdviseHolder@@@ATL@@IEAA@XZ ; ATL::CComPtrBase<IOleAdviseHolder>::CComPtrBase<IOleAdviseHolder>
PUBLIC	??1?$CComPtrBase@UIOleAdviseHolder@@@ATL@@QEAA@XZ ; ATL::CComPtrBase<IOleAdviseHolder>::~CComPtrBase<IOleAdviseHolder>
PUBLIC	??0?$CComPtr@UIOleAdviseHolder@@@ATL@@QEAA@XZ	; ATL::CComPtr<IOleAdviseHolder>::CComPtr<IOleAdviseHolder>
PUBLIC	??1?$CComPtr@UIOleAdviseHolder@@@ATL@@QEAA@XZ	; ATL::CComPtr<IOleAdviseHolder>::~CComPtr<IOleAdviseHolder>
PUBLIC	??0?$CComQIPtr@UIDispatch@@$1?_GUID_00020400_0000_0000_c000_000000000046@@3U__s_GUID@@B@ATL@@QEAA@XZ ; ATL::CComQIPtr<IDispatch,&_GUID_00020400_0000_0000_c000_000000000046>::CComQIPtr<IDispatch,&_GUID_00020400_0000_0000_c000_000000000046>
PUBLIC	??1?$CComQIPtr@UIDispatch@@$1?_GUID_00020400_0000_0000_c000_000000000046@@3U__s_GUID@@B@ATL@@QEAA@XZ ; ATL::CComQIPtr<IDispatch,&_GUID_00020400_0000_0000_c000_000000000046>::~CComQIPtr<IDispatch,&_GUID_00020400_0000_0000_c000_000000000046>
PUBLIC	??0IOPOSSpeechSynthesis_1_16@@QEAA@XZ		; IOPOSSpeechSynthesis_1_16::IOPOSSpeechSynthesis_1_16
PUBLIC	??0IOPOSSpeechSynthesis@@QEAA@XZ		; IOPOSSpeechSynthesis::IOPOSSpeechSynthesis
PUBLIC	??0OposVariant@@QEAA@XZ				; OposVariant::OposVariant
PUBLIC	??1OposVariant@@QEAA@XZ				; OposVariant::~OposVariant
PUBLIC	?Clear@OposVariant@@QEAAJXZ			; OposVariant::Clear
PUBLIC	??_EOposVariant@@QEAAPEAXI@Z			; OposVariant::`vector deleting destructor'
PUBLIC	??1OposVariantResult@@QEAA@XZ			; OposVariantResult::~OposVariantResult
PUBLIC	??0OposVariantResult@@QEAA@XZ			; OposVariantResult::OposVariantResult
PUBLIC	??0?$IDispatchImpl@UIOPOSSpeechSynthesis@@$1?IID_IOPOSSpeechSynthesis@@3U_GUID@@B$1?LIBID_OposSpeechSynthesis_CCO@@3U3@B$00$0A@VCComTypeInfoHolder@ATL@@@ATL@@QEAA@XZ ; ATL::IDispatchImpl<IOPOSSpeechSynthesis,&IID_IOPOSSpeechSynthesis,&LIBID_OposSpeechSynthesis_CCO,1,0,ATL::CComTypeInfoHolder>::IDispatchImpl<IOPOSSpeechSynthesis,&IID_IOPOSSpeechSynthesis,&LIBID_OposSpeechSynthesis_CCO,1,0,ATL::CComTypeInfoHolder>
PUBLIC	??0?$CWindowImpl@VCOPOSSpeechSynthesis@@VCWindow@ATL@@V?$CWinTraits@$0FGAAAAAA@$0A@@3@@ATL@@QEAA@XZ ; ATL::CWindowImpl<COPOSSpeechSynthesis,ATL::CWindow,ATL::CWinTraits<1442840576,0> >::CWindowImpl<COPOSSpeechSynthesis,ATL::CWindow,ATL::CWinTraits<1442840576,0> >
PUBLIC	??1?$CWindowImpl@VCOPOSSpeechSynthesis@@VCWindow@ATL@@V?$CWinTraits@$0FGAAAAAA@$0A@@3@@ATL@@UEAA@XZ ; ATL::CWindowImpl<COPOSSpeechSynthesis,ATL::CWindow,ATL::CWinTraits<1442840576,0> >::~CWindowImpl<COPOSSpeechSynthesis,ATL::CWindow,ATL::CWinTraits<1442840576,0> >
PUBLIC	??0?$CComControl@VCOPOSSpeechSynthesis@@V?$CWindowImpl@VCOPOSSpeechSynthesis@@VCWindow@ATL@@V?$CWinTraits@$0FGAAAAAA@$0A@@3@@ATL@@@ATL@@QEAA@XZ ; ATL::CComControl<COPOSSpeechSynthesis,ATL::CWindowImpl<COPOSSpeechSynthesis,ATL::CWindow,ATL::CWinTraits<1442840576,0> > >::CComControl<COPOSSpeechSynthesis,ATL::CWindowImpl<COPOSSpeechSynthesis,ATL::CWindow,ATL::CWinTraits<1442840576,0> > >
PUBLIC	??1?$CComControl@VCOPOSSpeechSynthesis@@V?$CWindowImpl@VCOPOSSpeechSynthesis@@VCWindow@ATL@@V?$CWinTraits@$0FGAAAAAA@$0A@@3@@ATL@@@ATL@@UEAA@XZ ; ATL::CComControl<COPOSSpeechSynthesis,ATL::CWindowImpl<COPOSSpeechSynthesis,ATL::CWindow,ATL::CWinTraits<1442840576,0> > >::~CComControl<COPOSSpeechSynthesis,ATL::CWindowImpl<COPOSSpeechSynthesis,ATL::CWindow,ATL::CWinTraits<1442840576,0> > >
PUBLIC	??0?$IPersistStreamInitImpl@VCOPOSSpeechSynthesis@@@ATL@@QEAA@XZ ; ATL::IPersistStreamInitImpl<COPOSSpeechSynthesis>::IPersistStreamInitImpl<COPOSSpeechSynthesis>
PUBLIC	??0?$IOleControlImpl@VCOPOSSpeechSynthesis@@@ATL@@QEAA@XZ ; ATL::IOleControlImpl<COPOSSpeechSynthesis>::IOleControlImpl<COPOSSpeechSynthesis>
PUBLIC	??0?$IOleObjectImpl@VCOPOSSpeechSynthesis@@@ATL@@QEAA@XZ ; ATL::IOleObjectImpl<COPOSSpeechSynthesis>::IOleObjectImpl<COPOSSpeechSynthesis>
PUBLIC	??0?$IOleInPlaceActiveObjectImpl@VCOPOSSpeechSynthesis@@@ATL@@QEAA@XZ ; ATL::IOleInPlaceActiveObjectImpl<COPOSSpeechSynthesis>::IOleInPlaceActiveObjectImpl<COPOSSpeechSynthesis>
PUBLIC	??0?$IViewObjectExImpl@VCOPOSSpeechSynthesis@@@ATL@@QEAA@XZ ; ATL::IViewObjectExImpl<COPOSSpeechSynthesis>::IViewObjectExImpl<COPOSSpeechSynthesis>
PUBLIC	??0?$IOleInPlaceObjectWindowlessImpl@VCOPOSSpeechSynthesis@@@ATL@@QEAA@XZ ; ATL::IOleInPlaceObjectWindowlessImpl<COPOSSpeechSynthesis>::IOleInPlaceObjectWindowlessImpl<COPOSSpeechSynthesis>
PUBLIC	??0?$IConnectionPointContainerImpl@VCOPOSSpeechSynthesis@@@ATL@@QEAA@XZ ; ATL::IConnectionPointContainerImpl<COPOSSpeechSynthesis>::IConnectionPointContainerImpl<COPOSSpeechSynthesis>
PUBLIC	??0?$IPersistStorageImpl@VCOPOSSpeechSynthesis@@@ATL@@QEAA@XZ ; ATL::IPersistStorageImpl<COPOSSpeechSynthesis>::IPersistStorageImpl<COPOSSpeechSynthesis>
PUBLIC	??0?$ISpecifyPropertyPagesImpl@VCOPOSSpeechSynthesis@@@ATL@@QEAA@XZ ; ATL::ISpecifyPropertyPagesImpl<COPOSSpeechSynthesis>::ISpecifyPropertyPagesImpl<COPOSSpeechSynthesis>
PUBLIC	??0?$IQuickActivateImpl@VCOPOSSpeechSynthesis@@@ATL@@QEAA@XZ ; ATL::IQuickActivateImpl<COPOSSpeechSynthesis>::IQuickActivateImpl<COPOSSpeechSynthesis>
PUBLIC	??0?$IDataObjectImpl@VCOPOSSpeechSynthesis@@@ATL@@QEAA@XZ ; ATL::IDataObjectImpl<COPOSSpeechSynthesis>::IDataObjectImpl<COPOSSpeechSynthesis>
PUBLIC	??0?$IProvideClassInfo2Impl@$1?CLSID_OPOSSpeechSynthesis@@3U_GUID@@B$1?DIID__IOPOSSpeechSynthesisEvents@@3U2@B$1?LIBID_OposSpeechSynthesis_CCO@@3U2@B$00$0A@VCComTypeInfoHolder@ATL@@@ATL@@QEAA@XZ ; ATL::IProvideClassInfo2Impl<&CLSID_OPOSSpeechSynthesis,&DIID__IOPOSSpeechSynthesisEvents,&LIBID_OposSpeechSynthesis_CCO,1,0,ATL::CComTypeInfoHolder>::IProvideClassInfo2Impl<&CLSID_OPOSSpeechSynthesis,&DIID__IOPOSSpeechSynthesisEvents,&LIBID_OposSpeechSynthesis_CCO,1,0,ATL::CComTypeInfoHolder>
PUBLIC	??0?$IObjectSafetyImpl@VCOPOSSpeechSynthesis@@$02@ATL@@QEAA@XZ ; ATL::IObjectSafetyImpl<COPOSSpeechSynthesis,3>::IObjectSafetyImpl<COPOSSpeechSynthesis,3>
PUBLIC	??0?$_ICPLocator@$1?IID_IPropertyNotifySink@@3U_GUID@@B@ATL@@QEAA@XZ ; ATL::_ICPLocator<&IID_IPropertyNotifySink>::_ICPLocator<&IID_IPropertyNotifySink>
PUBLIC	??1?$IConnectionPointImpl@VCOPOSSpeechSynthesis@@$1?IID_IPropertyNotifySink@@3U_GUID@@BVCComDynamicUnkArray@ATL@@@ATL@@QEAA@XZ ; ATL::IConnectionPointImpl<COPOSSpeechSynthesis,&IID_IPropertyNotifySink,ATL::CComDynamicUnkArray>::~IConnectionPointImpl<COPOSSpeechSynthesis,&IID_IPropertyNotifySink,ATL::CComDynamicUnkArray>
PUBLIC	??0?$IConnectionPointImpl@VCOPOSSpeechSynthesis@@$1?IID_IPropertyNotifySink@@3U_GUID@@BVCComDynamicUnkArray@ATL@@@ATL@@QEAA@XZ ; ATL::IConnectionPointImpl<COPOSSpeechSynthesis,&IID_IPropertyNotifySink,ATL::CComDynamicUnkArray>::IConnectionPointImpl<COPOSSpeechSynthesis,&IID_IPropertyNotifySink,ATL::CComDynamicUnkArray>
PUBLIC	??0?$IPropertyNotifySinkCP@VCOPOSSpeechSynthesis@@VCComDynamicUnkArray@ATL@@@ATL@@QEAA@XZ ; ATL::IPropertyNotifySinkCP<COPOSSpeechSynthesis,ATL::CComDynamicUnkArray>::IPropertyNotifySinkCP<COPOSSpeechSynthesis,ATL::CComDynamicUnkArray>
PUBLIC	??1?$IPropertyNotifySinkCP@VCOPOSSpeechSynthesis@@VCComDynamicUnkArray@ATL@@@ATL@@QEAA@XZ ; ATL::IPropertyNotifySinkCP<COPOSSpeechSynthesis,ATL::CComDynamicUnkArray>::~IPropertyNotifySinkCP<COPOSSpeechSynthesis,ATL::CComDynamicUnkArray>
PUBLIC	??0?$_ICPLocator@$1?DIID__IOPOSSpeechSynthesisEvents@@3U_GUID@@B@ATL@@QEAA@XZ ; ATL::_ICPLocator<&DIID__IOPOSSpeechSynthesisEvents>::_ICPLocator<&DIID__IOPOSSpeechSynthesisEvents>
PUBLIC	??1?$IConnectionPointImpl@VCOPOSSpeechSynthesis@@$1?DIID__IOPOSSpeechSynthesisEvents@@3U_GUID@@BVCComDynamicUnkArray@ATL@@@ATL@@QEAA@XZ ; ATL::IConnectionPointImpl<COPOSSpeechSynthesis,&DIID__IOPOSSpeechSynthesisEvents,ATL::CComDynamicUnkArray>::~IConnectionPointImpl<COPOSSpeechSynthesis,&DIID__IOPOSSpeechSynthesisEvents,ATL::CComDynamicUnkArray>
PUBLIC	?_LocCPQueryInterface@?$IConnectionPointImpl@VCOPOSSpeechSynthesis@@$1?DIID__IOPOSSpeechSynthesisEvents@@3U_GUID@@BVCComDynamicUnkArray@ATL@@@ATL@@UEAAJAEBU_GUID@@PEAPEAX@Z ; ATL::IConnectionPointImpl<COPOSSpeechSynthesis,&DIID__IOPOSSpeechSynthesisEvents,ATL::CComDynamicUnkArray>::_LocCPQueryInterface
PUBLIC	?GetConnectionInterface@?$IConnectionPointImpl@VCOPOSSpeechSynthesis@@$1?DIID__IOPOSSpeechSynthesisEvents@@3U_GUID@@BVCComDynamicUnkArray@ATL@@@ATL@@UEAAJPEAU_GUID@@@Z ; ATL::IConnectionPointImpl<COPOSSpeechSynthesis,&DIID__IOPOSSpeechSynthesisEvents,ATL::CComDynamicUnkArray>::GetConnectionInterface
PUBLIC	?GetConnectionPointContainer@?$IConnectionPointImpl@VCOPOSSpeechSynthesis@@$1?DIID__IOPOSSpeechSynthesisEvents@@3U_GUID@@BVCComDynamicUnkArray@ATL@@@ATL@@UEAAJPEAPEAUIConnectionPointContainer@@@Z ; ATL::IConnectionPointImpl<COPOSSpeechSynthesis,&DIID__IOPOSSpeechSynthesisEvents,ATL::CComDynamicUnkArray>::GetConnectionPointContainer
PUBLIC	?Advise@?$IConnectionPointImpl@VCOPOSSpeechSynthesis@@$1?DIID__IOPOSSpeechSynthesisEvents@@3U_GUID@@BVCComDynamicUnkArray@ATL@@@ATL@@UEAAJPEAUIUnknown@@PEAK@Z ; ATL::IConnectionPointImpl<COPOSSpeechSynthesis,&DIID__IOPOSSpeechSynthesisEvents,ATL::CComDynamicUnkArray>::Advise
PUBLIC	?Unadvise@?$IConnectionPointImpl@VCOPOSSpeechSynthesis@@$1?DIID__IOPOSSpeechSynthesisEvents@@3U_GUID@@BVCComDynamicUnkArray@ATL@@@ATL@@UEAAJK@Z ; ATL::IConnectionPointImpl<COPOSSpeechSynthesis,&DIID__IOPOSSpeechSynthesisEvents,ATL::CComDynamicUnkArray>::Unadvise
PUBLIC	?EnumConnections@?$IConnectionPointImpl@VCOPOSSpeechSynthesis@@$1?DIID__IOPOSSpeechSynthesisEvents@@3U_GUID@@BVCComDynamicUnkArray@ATL@@@ATL@@UEAAJPEAPEAUIEnumConnections@@@Z ; ATL::IConnectionPointImpl<COPOSSpeechSynthesis,&DIID__IOPOSSpeechSynthesisEvents,ATL::CComDynamicUnkArray>::EnumConnections
PUBLIC	??0?$IConnectionPointImpl@VCOPOSSpeechSynthesis@@$1?DIID__IOPOSSpeechSynthesisEvents@@3U_GUID@@BVCComDynamicUnkArray@ATL@@@ATL@@QEAA@XZ ; ATL::IConnectionPointImpl<COPOSSpeechSynthesis,&DIID__IOPOSSpeechSynthesisEvents,ATL::CComDynamicUnkArray>::IConnectionPointImpl<COPOSSpeechSynthesis,&DIID__IOPOSSpeechSynthesisEvents,ATL::CComDynamicUnkArray>
PUBLIC	?Fire_DirectIOEvent@?$CProxy_IOPOSEvents@VCOPOSSpeechSynthesis@@@@QEAAXJPEAJPEAPEA_W@Z ; CProxy_IOPOSEvents<COPOSSpeechSynthesis>::Fire_DirectIOEvent
PUBLIC	?Fire_ErrorEvent@?$CProxy_IOPOSEvents@VCOPOSSpeechSynthesis@@@@QEAAXJJJPEAJ@Z ; CProxy_IOPOSEvents<COPOSSpeechSynthesis>::Fire_ErrorEvent
PUBLIC	?Fire_OutputCompleteEvent@?$CProxy_IOPOSEvents@VCOPOSSpeechSynthesis@@@@QEAAXJ@Z ; CProxy_IOPOSEvents<COPOSSpeechSynthesis>::Fire_OutputCompleteEvent
PUBLIC	?Fire_StatusUpdateEvent@?$CProxy_IOPOSEvents@VCOPOSSpeechSynthesis@@@@QEAAXJ@Z ; CProxy_IOPOSEvents<COPOSSpeechSynthesis>::Fire_StatusUpdateEvent
PUBLIC	??0?$CProxy_IOPOSEvents@VCOPOSSpeechSynthesis@@@@QEAA@PEAVCOPOSSpeechSynthesis@@@Z ; CProxy_IOPOSEvents<COPOSSpeechSynthesis>::CProxy_IOPOSEvents<COPOSSpeechSynthesis>
PUBLIC	?Advise@?$CProxy_IOPOSEvents@VCOPOSSpeechSynthesis@@@@UEAAJPEAUIUnknown@@PEAK@Z ; CProxy_IOPOSEvents<COPOSSpeechSynthesis>::Advise
PUBLIC	?Unadvise@?$CProxy_IOPOSEvents@VCOPOSSpeechSynthesis@@@@UEAAJK@Z ; CProxy_IOPOSEvents<COPOSSpeechSynthesis>::Unadvise
PUBLIC	?FireTheEvent@?$CProxy_IOPOSEvents@VCOPOSSpeechSynthesis@@@@IEAAXPEAUIUnknown@@PEAVOposVariant@@IAEAJPEB_WJ@Z ; CProxy_IOPOSEvents<COPOSSpeechSynthesis>::FireTheEvent
PUBLIC	??1?$CProxy_IOPOSEvents@VCOPOSSpeechSynthesis@@@@QEAA@XZ ; CProxy_IOPOSEvents<COPOSSpeechSynthesis>::~CProxy_IOPOSEvents<COPOSSpeechSynthesis>
PUBLIC	??0COPOSSpeechSynthesis@@QEAA@XZ		; COPOSSpeechSynthesis::COPOSSpeechSynthesis
PUBLIC	?FinalConstruct@COPOSSpeechSynthesis@@QEAAJXZ	; COPOSSpeechSynthesis::FinalConstruct
PUBLIC	??1COPOSSpeechSynthesis@@UEAA@XZ		; COPOSSpeechSynthesis::~COPOSSpeechSynthesis
PUBLIC	?SetRC@COPOSSpeechSynthesis@@IEAAJJ@Z		; COPOSSpeechSynthesis::SetRC
PUBLIC	?WriteTrace@COPOSSpeechSynthesis@@QEAAXPEB_WZZ	; COPOSSpeechSynthesis::WriteTrace
PUBLIC	?WriteTraceString@COPOSSpeechSynthesis@@QEAAXPEB_WPEA_W@Z ; COPOSSpeechSynthesis::WriteTraceString
PUBLIC	?WriteTraceString@COPOSSpeechSynthesis@@QEAAXPEAXHHHPEB_WZZ ; COPOSSpeechSynthesis::WriteTraceString
PUBLIC	?WriteTraceError@COPOSSpeechSynthesis@@QEAAXPEB_WK@Z ; COPOSSpeechSynthesis::WriteTraceError
PUBLIC	?WriteTraceMethods@COPOSSpeechSynthesis@@QEAAXPEAJH@Z ; COPOSSpeechSynthesis::WriteTraceMethods
PUBLIC	?GetOposProp@COPOSSpeechSynthesis@@IEAAJPEBDJPEAJJ@Z ; COPOSSpeechSynthesis::GetOposProp
PUBLIC	?SetOposProp@COPOSSpeechSynthesis@@IEAAJPEBDJJJ@Z ; COPOSSpeechSynthesis::SetOposProp
PUBLIC	?GetOposProp@COPOSSpeechSynthesis@@IEAAJPEBDJPEAFJ@Z ; COPOSSpeechSynthesis::GetOposProp
PUBLIC	?SetOposProp@COPOSSpeechSynthesis@@IEAAJPEBDJFJ@Z ; COPOSSpeechSynthesis::SetOposProp
PUBLIC	?GetOposProp@COPOSSpeechSynthesis@@IEAAJPEBDJPEAPEA_WJ@Z ; COPOSSpeechSynthesis::GetOposProp
PUBLIC	?SetOposProp@COPOSSpeechSynthesis@@IEAAJPEBDJPEA_WJ@Z ; COPOSSpeechSynthesis::SetOposProp
PUBLIC	?DoInvoke@COPOSSpeechSynthesis@@IEAAJPEBDJPEAVOposVariant@@IHPEAJ_N@Z ; COPOSSpeechSynthesis::DoInvoke
PUBLIC	?SetCOFreezeEvents@COPOSSpeechSynthesis@@IEAAXF@Z ; COPOSSpeechSynthesis::SetCOFreezeEvents
PUBLIC	?FreezeEvents@COPOSSpeechSynthesis@@MEAAJH@Z	; COPOSSpeechSynthesis::FreezeEvents
PUBLIC	?OnDraw@COPOSSpeechSynthesis@@MEAAJAEAUATL_DRAWINFO@@@Z ; COPOSSpeechSynthesis::OnDraw
PUBLIC	?GetConnMap@COPOSSpeechSynthesis@@SAPEBU_ATL_CONNMAP_ENTRY@ATL@@PEAH@Z ; COPOSSpeechSynthesis::GetConnMap
PUBLIC	?EventInit@COPOSSpeechSynthesis@@IEAAJXZ	; COPOSSpeechSynthesis::EventInit
PUBLIC	?EventOpen@COPOSSpeechSynthesis@@IEAAXXZ	; COPOSSpeechSynthesis::EventOpen
PUBLIC	?EventClaim@COPOSSpeechSynthesis@@IEAAXXZ	; COPOSSpeechSynthesis::EventClaim
PUBLIC	?EventPreCloseRelease@COPOSSpeechSynthesis@@IEAAXXZ ; COPOSSpeechSynthesis::EventPreCloseRelease
PUBLIC	?EventClose@COPOSSpeechSynthesis@@IEAAXXZ	; COPOSSpeechSynthesis::EventClose
PUBLIC	?EventUninit@COPOSSpeechSynthesis@@IEAAXXZ	; COPOSSpeechSynthesis::EventUninit
PUBLIC	?s_EventWindowProc@COPOSSpeechSynthesis@@KA_JPEAUHWND__@@I_K_J@Z ; COPOSSpeechSynthesis::s_EventWindowProc
PUBLIC	?EventWindowProc@COPOSSpeechSynthesis@@IEAA_JI_K_J@Z ; COPOSSpeechSynthesis::EventWindowProc
PUBLIC	?FireEventSetup@COPOSSpeechSynthesis@@IEAA_NXZ	; COPOSSpeechSynthesis::FireEventSetup
PUBLIC	?FireEventCleanup@COPOSSpeechSynthesis@@IEAAXXZ	; COPOSSpeechSynthesis::FireEventCleanup
PUBLIC	?SOProcessID@COPOSSpeechSynthesis@@UEAAJPEAJ@Z	; COPOSSpeechSynthesis::SOProcessID
PUBLIC	?get_OpenResult@COPOSSpeechSynthesis@@UEAAJPEAJ@Z ; COPOSSpeechSynthesis::get_OpenResult
PUBLIC	?get_BinaryConversion@COPOSSpeechSynthesis@@UEAAJPEAJ@Z ; COPOSSpeechSynthesis::get_BinaryConversion
PUBLIC	?put_BinaryConversion@COPOSSpeechSynthesis@@UEAAJJ@Z ; COPOSSpeechSynthesis::put_BinaryConversion
PUBLIC	?get_CapPowerReporting@COPOSSpeechSynthesis@@UEAAJPEAJ@Z ; COPOSSpeechSynthesis::get_CapPowerReporting
PUBLIC	?get_CheckHealthText@COPOSSpeechSynthesis@@UEAAJPEAPEA_W@Z ; COPOSSpeechSynthesis::get_CheckHealthText
PUBLIC	?get_Claimed@COPOSSpeechSynthesis@@UEAAJPEAF@Z	; COPOSSpeechSynthesis::get_Claimed
PUBLIC	?get_DeviceEnabled@COPOSSpeechSynthesis@@UEAAJPEAF@Z ; COPOSSpeechSynthesis::get_DeviceEnabled
PUBLIC	?put_DeviceEnabled@COPOSSpeechSynthesis@@UEAAJF@Z ; COPOSSpeechSynthesis::put_DeviceEnabled
PUBLIC	?get_FreezeEvents@COPOSSpeechSynthesis@@UEAAJPEAF@Z ; COPOSSpeechSynthesis::get_FreezeEvents
PUBLIC	?put_FreezeEvents@COPOSSpeechSynthesis@@UEAAJF@Z ; COPOSSpeechSynthesis::put_FreezeEvents
PUBLIC	?get_OutputID@COPOSSpeechSynthesis@@UEAAJPEAJ@Z	; COPOSSpeechSynthesis::get_OutputID
PUBLIC	?get_PowerNotify@COPOSSpeechSynthesis@@UEAAJPEAJ@Z ; COPOSSpeechSynthesis::get_PowerNotify
PUBLIC	?put_PowerNotify@COPOSSpeechSynthesis@@UEAAJJ@Z	; COPOSSpeechSynthesis::put_PowerNotify
PUBLIC	?get_PowerState@COPOSSpeechSynthesis@@UEAAJPEAJ@Z ; COPOSSpeechSynthesis::get_PowerState
PUBLIC	?get_ResultCode@COPOSSpeechSynthesis@@UEAAJPEAJ@Z ; COPOSSpeechSynthesis::get_ResultCode
PUBLIC	?get_ResultCodeExtended@COPOSSpeechSynthesis@@UEAAJPEAJ@Z ; COPOSSpeechSynthesis::get_ResultCodeExtended
PUBLIC	?get_State@COPOSSpeechSynthesis@@UEAAJPEAJ@Z	; COPOSSpeechSynthesis::get_State
PUBLIC	?get_ControlObjectDescription@COPOSSpeechSynthesis@@UEAAJPEAPEA_W@Z ; COPOSSpeechSynthesis::get_ControlObjectDescription
PUBLIC	?get_ControlObjectVersion@COPOSSpeechSynthesis@@UEAAJPEAJ@Z ; COPOSSpeechSynthesis::get_ControlObjectVersion
PUBLIC	?get_ServiceObjectDescription@COPOSSpeechSynthesis@@UEAAJPEAPEA_W@Z ; COPOSSpeechSynthesis::get_ServiceObjectDescription
PUBLIC	?get_ServiceObjectVersion@COPOSSpeechSynthesis@@UEAAJPEAJ@Z ; COPOSSpeechSynthesis::get_ServiceObjectVersion
PUBLIC	?get_DeviceDescription@COPOSSpeechSynthesis@@UEAAJPEAPEA_W@Z ; COPOSSpeechSynthesis::get_DeviceDescription
PUBLIC	?get_DeviceName@COPOSSpeechSynthesis@@UEAAJPEAPEA_W@Z ; COPOSSpeechSynthesis::get_DeviceName
PUBLIC	?get_CapStatisticsReporting@COPOSSpeechSynthesis@@UEAAJPEAF@Z ; COPOSSpeechSynthesis::get_CapStatisticsReporting
PUBLIC	?get_CapUpdateStatistics@COPOSSpeechSynthesis@@UEAAJPEAF@Z ; COPOSSpeechSynthesis::get_CapUpdateStatistics
PUBLIC	?get_CapCompareFirmwareVersion@COPOSSpeechSynthesis@@UEAAJPEAF@Z ; COPOSSpeechSynthesis::get_CapCompareFirmwareVersion
PUBLIC	?get_CapUpdateFirmware@COPOSSpeechSynthesis@@UEAAJPEAF@Z ; COPOSSpeechSynthesis::get_CapUpdateFirmware
PUBLIC	?CheckHealth@COPOSSpeechSynthesis@@UEAAJJPEAJ@Z	; COPOSSpeechSynthesis::CheckHealth
PUBLIC	?ClaimDevice@COPOSSpeechSynthesis@@UEAAJJPEAJ@Z	; COPOSSpeechSynthesis::ClaimDevice
PUBLIC	?ClearOutput@COPOSSpeechSynthesis@@UEAAJPEAJ@Z	; COPOSSpeechSynthesis::ClearOutput
PUBLIC	?Close@COPOSSpeechSynthesis@@UEAAJPEAJ@Z	; COPOSSpeechSynthesis::Close
PUBLIC	?DirectIO@COPOSSpeechSynthesis@@UEAAJJPEAJPEAPEA_W0@Z ; COPOSSpeechSynthesis::DirectIO
PUBLIC	?Open@COPOSSpeechSynthesis@@UEAAJPEA_WPEAJ@Z	; COPOSSpeechSynthesis::Open
PUBLIC	?ReleaseDevice@COPOSSpeechSynthesis@@UEAAJPEAJ@Z ; COPOSSpeechSynthesis::ReleaseDevice
PUBLIC	?ResetStatistics@COPOSSpeechSynthesis@@UEAAJPEA_WPEAJ@Z ; COPOSSpeechSynthesis::ResetStatistics
PUBLIC	?RetrieveStatistics@COPOSSpeechSynthesis@@UEAAJPEAPEA_WPEAJ@Z ; COPOSSpeechSynthesis::RetrieveStatistics
PUBLIC	?UpdateStatistics@COPOSSpeechSynthesis@@UEAAJPEA_WPEAJ@Z ; COPOSSpeechSynthesis::UpdateStatistics
PUBLIC	?CompareFirmwareVersion@COPOSSpeechSynthesis@@UEAAJPEA_WPEAJ1@Z ; COPOSSpeechSynthesis::CompareFirmwareVersion
PUBLIC	?UpdateFirmware@COPOSSpeechSynthesis@@UEAAJPEA_WPEAJ@Z ; COPOSSpeechSynthesis::UpdateFirmware
PUBLIC	?get_CapLanguage@COPOSSpeechSynthesis@@UEAAJPEAF@Z ; COPOSSpeechSynthesis::get_CapLanguage
PUBLIC	?get_CapPitch@COPOSSpeechSynthesis@@UEAAJPEAF@Z	; COPOSSpeechSynthesis::get_CapPitch
PUBLIC	?get_CapSpeed@COPOSSpeechSynthesis@@UEAAJPEAF@Z	; COPOSSpeechSynthesis::get_CapSpeed
PUBLIC	?get_CapVoice@COPOSSpeechSynthesis@@UEAAJPEAF@Z	; COPOSSpeechSynthesis::get_CapVoice
PUBLIC	?get_CapVolume@COPOSSpeechSynthesis@@UEAAJPEAF@Z ; COPOSSpeechSynthesis::get_CapVolume
PUBLIC	?get_Language@COPOSSpeechSynthesis@@UEAAJPEAPEA_W@Z ; COPOSSpeechSynthesis::get_Language
PUBLIC	?put_Language@COPOSSpeechSynthesis@@UEAAJPEA_W@Z ; COPOSSpeechSynthesis::put_Language
PUBLIC	?get_LanguageList@COPOSSpeechSynthesis@@UEAAJPEAPEA_W@Z ; COPOSSpeechSynthesis::get_LanguageList
PUBLIC	?get_OutputIDList@COPOSSpeechSynthesis@@UEAAJPEAPEA_W@Z ; COPOSSpeechSynthesis::get_OutputIDList
PUBLIC	?get_Pitch@COPOSSpeechSynthesis@@UEAAJPEAJ@Z	; COPOSSpeechSynthesis::get_Pitch
PUBLIC	?put_Pitch@COPOSSpeechSynthesis@@UEAAJJ@Z	; COPOSSpeechSynthesis::put_Pitch
PUBLIC	?get_Speed@COPOSSpeechSynthesis@@UEAAJPEAJ@Z	; COPOSSpeechSynthesis::get_Speed
PUBLIC	?put_Speed@COPOSSpeechSynthesis@@UEAAJJ@Z	; COPOSSpeechSynthesis::put_Speed
PUBLIC	?get_Voice@COPOSSpeechSynthesis@@UEAAJPEAPEA_W@Z ; COPOSSpeechSynthesis::get_Voice
PUBLIC	?put_Voice@COPOSSpeechSynthesis@@UEAAJPEA_W@Z	; COPOSSpeechSynthesis::put_Voice
PUBLIC	?get_VoiceList@COPOSSpeechSynthesis@@UEAAJPEAPEA_W@Z ; COPOSSpeechSynthesis::get_VoiceList
PUBLIC	?get_Volume@COPOSSpeechSynthesis@@UEAAJPEAJ@Z	; COPOSSpeechSynthesis::get_Volume
PUBLIC	?put_Volume@COPOSSpeechSynthesis@@UEAAJJ@Z	; COPOSSpeechSynthesis::put_Volume
PUBLIC	?Speak@COPOSSpeechSynthesis@@UEAAJPEA_WPEAJ@Z	; COPOSSpeechSynthesis::Speak
PUBLIC	?SpeakImmediate@COPOSSpeechSynthesis@@UEAAJPEA_WPEAJ@Z ; COPOSSpeechSynthesis::SpeakImmediate
PUBLIC	?StopCurrentSpeaking@COPOSSpeechSynthesis@@UEAAJPEAJ@Z ; COPOSSpeechSynthesis::StopCurrentSpeaking
PUBLIC	?StopSpeaking@COPOSSpeechSynthesis@@UEAAJJPEAJ@Z ; COPOSSpeechSynthesis::StopSpeaking
PUBLIC	??0_CW@@QEAA@PEBD@Z				; _CW::_CW
PUBLIC	??0_CW@@QEAA@PEB_W@Z				; _CW::_CW
PUBLIC	??B_CW@@QEAAPEB_WXZ				; _CW::operator wchar_t const *
PUBLIC	??1_CW@@QEAA@XZ					; _CW::~_CW
PUBLIC	??0_CWNCC@@QEAA@PEBD@Z				; _CWNCC::_CWNCC
PUBLIC	??B_CWNCC@@QEAAPEA_WXZ				; _CWNCC::operator wchar_t *
PUBLIC	??1_CWNCC@@QEAA@XZ				; _CWNCC::~_CWNCC
PUBLIC	??0?$CComEnumImpl@UIEnumConnections@@$1?_GUID_b196b287_bab4_101a_b69c_00aa00341d07@@3U__s_GUID@@BUtagCONNECTDATA@@V?$_Copy@UtagCONNECTDATA@@@ATL@@@ATL@@QEAA@XZ ; ATL::CComEnumImpl<IEnumConnections,&_GUID_b196b287_bab4_101a_b69c_00aa00341d07,tagCONNECTDATA,ATL::_Copy<tagCONNECTDATA> >::CComEnumImpl<IEnumConnections,&_GUID_b196b287_bab4_101a_b69c_00aa00341d07,tagCONNECTDATA,ATL::_Copy<tagCONNECTDATA> >
PUBLIC	??1?$CComEnumImpl@UIEnumConnections@@$1?_GUID_b196b287_bab4_101a_b69c_00aa00341d07@@3U__s_GUID@@BUtagCONNECTDATA@@V?$_Copy@UtagCONNECTDATA@@@ATL@@@ATL@@UEAA@XZ ; ATL::CComEnumImpl<IEnumConnections,&_GUID_b196b287_bab4_101a_b69c_00aa00341d07,tagCONNECTDATA,ATL::_Copy<tagCONNECTDATA> >::~CComEnumImpl<IEnumConnections,&_GUID_b196b287_bab4_101a_b69c_00aa00341d07,tagCONNECTDATA,ATL::_Copy<tagCONNECTDATA> >
PUBLIC	?Next@?$CComEnumImpl@UIEnumConnections@@$1?_GUID_b196b287_bab4_101a_b69c_00aa00341d07@@3U__s_GUID@@BUtagCONNECTDATA@@V?$_Copy@UtagCONNECTDATA@@@ATL@@@ATL@@UEAAJKPEAUtagCONNECTDATA@@PEAK@Z ; ATL::CComEnumImpl<IEnumConnections,&_GUID_b196b287_bab4_101a_b69c_00aa00341d07,tagCONNECTDATA,ATL::_Copy<tagCONNECTDATA> >::Next
PUBLIC	?Skip@?$CComEnumImpl@UIEnumConnections@@$1?_GUID_b196b287_bab4_101a_b69c_00aa00341d07@@3U__s_GUID@@BUtagCONNECTDATA@@V?$_Copy@UtagCONNECTDATA@@@ATL@@@ATL@@UEAAJK@Z ; ATL::CComEnumImpl<IEnumConnections,&_GUID_b196b287_bab4_101a_b69c_00aa00341d07,tagCONNECTDATA,ATL::_Copy<tagCONNECTDATA> >::Skip
PUBLIC	?Reset@?$CComEnumImpl@UIEnumConnections@@$1?_GUID_b196b287_bab4_101a_b69c_00aa00341d07@@3U__s_GUID@@BUtagCONNECTDATA@@V?$_Copy@UtagCONNECTDATA@@@ATL@@@ATL@@UEAAJXZ ; ATL::CComEnumImpl<IEnumConnections,&_GUID_b196b287_bab4_101a_b69c_00aa00341d07,tagCONNECTDATA,ATL::_Copy<tagCONNECTDATA> >::Reset
PUBLIC	?Clone@?$CComEnumImpl@UIEnumConnections@@$1?_GUID_b196b287_bab4_101a_b69c_00aa00341d07@@3U__s_GUID@@BUtagCONNECTDATA@@V?$_Copy@UtagCONNECTDATA@@@ATL@@@ATL@@UEAAJPEAPEAUIEnumConnections@@@Z ; ATL::CComEnumImpl<IEnumConnections,&_GUID_b196b287_bab4_101a_b69c_00aa00341d07,tagCONNECTDATA,ATL::_Copy<tagCONNECTDATA> >::Clone
PUBLIC	?Init@?$CComEnumImpl@UIEnumConnections@@$1?_GUID_b196b287_bab4_101a_b69c_00aa00341d07@@3U__s_GUID@@BUtagCONNECTDATA@@V?$_Copy@UtagCONNECTDATA@@@ATL@@@ATL@@QEAAJPEAUtagCONNECTDATA@@0PEAUIUnknown@@W4CComEnumFlags@2@@Z ; ATL::CComEnumImpl<IEnumConnections,&_GUID_b196b287_bab4_101a_b69c_00aa00341d07,tagCONNECTDATA,ATL::_Copy<tagCONNECTDATA> >::Init
PUBLIC	?_InternalQueryInterface@?$CComEnum@UIEnumConnections@@$1?_GUID_b196b287_bab4_101a_b69c_00aa00341d07@@3U__s_GUID@@BUtagCONNECTDATA@@V?$_Copy@UtagCONNECTDATA@@@ATL@@VCComSingleThreadModel@6@@ATL@@QEAAJAEBU_GUID@@PEAPEAX@Z ; ATL::CComEnum<IEnumConnections,&_GUID_b196b287_bab4_101a_b69c_00aa00341d07,tagCONNECTDATA,ATL::_Copy<tagCONNECTDATA>,ATL::CComSingleThreadModel>::_InternalQueryInterface
PUBLIC	?_GetEntries@?$CComEnum@UIEnumConnections@@$1?_GUID_b196b287_bab4_101a_b69c_00aa00341d07@@3U__s_GUID@@BUtagCONNECTDATA@@V?$_Copy@UtagCONNECTDATA@@@ATL@@VCComSingleThreadModel@6@@ATL@@SAPEBU_ATL_INTMAP_ENTRY@2@XZ ; ATL::CComEnum<IEnumConnections,&_GUID_b196b287_bab4_101a_b69c_00aa00341d07,tagCONNECTDATA,ATL::_Copy<tagCONNECTDATA>,ATL::CComSingleThreadModel>::_GetEntries
PUBLIC	??0?$CComEnum@UIEnumConnections@@$1?_GUID_b196b287_bab4_101a_b69c_00aa00341d07@@3U__s_GUID@@BUtagCONNECTDATA@@V?$_Copy@UtagCONNECTDATA@@@ATL@@VCComSingleThreadModel@6@@ATL@@QEAA@XZ ; ATL::CComEnum<IEnumConnections,&_GUID_b196b287_bab4_101a_b69c_00aa00341d07,tagCONNECTDATA,ATL::_Copy<tagCONNECTDATA>,ATL::CComSingleThreadModel>::CComEnum<IEnumConnections,&_GUID_b196b287_bab4_101a_b69c_00aa00341d07,tagCONNECTDATA,ATL::_Copy<tagCONNECTDATA>,ATL::CComSingleThreadModel>
PUBLIC	??1?$CComEnum@UIEnumConnections@@$1?_GUID_b196b287_bab4_101a_b69c_00aa00341d07@@3U__s_GUID@@BUtagCONNECTDATA@@V?$_Copy@UtagCONNECTDATA@@@ATL@@VCComSingleThreadModel@6@@ATL@@UEAA@XZ ; ATL::CComEnum<IEnumConnections,&_GUID_b196b287_bab4_101a_b69c_00aa00341d07,tagCONNECTDATA,ATL::_Copy<tagCONNECTDATA>,ATL::CComSingleThreadModel>::~CComEnum<IEnumConnections,&_GUID_b196b287_bab4_101a_b69c_00aa00341d07,tagCONNECTDATA,ATL::_Copy<tagCONNECTDATA>,ATL::CComSingleThreadModel>
PUBLIC	??0?$CComObject@V?$CComEnum@UIEnumConnections@@$1?_GUID_b196b287_bab4_101a_b69c_00aa00341d07@@3U__s_GUID@@BUtagCONNECTDATA@@V?$_Copy@UtagCONNECTDATA@@@ATL@@VCComSingleThreadModel@6@@ATL@@@ATL@@QEAA@PEAX@Z ; ATL::CComObject<ATL::CComEnum<IEnumConnections,&_GUID_b196b287_bab4_101a_b69c_00aa00341d07,tagCONNECTDATA,ATL::_Copy<tagCONNECTDATA>,ATL::CComSingleThreadModel> >::CComObject<ATL::CComEnum<IEnumConnections,&_GUID_b196b287_bab4_101a_b69c_00aa00341d07,tagCONNECTDATA,ATL::_Copy<tagCONNECTDATA>,ATL::CComSingleThreadModel> >
PUBLIC	??1?$CComObject@V?$CComEnum@UIEnumConnections@@$1?_GUID_b196b287_bab4_101a_b69c_00aa00341d07@@3U__s_GUID@@BUtagCONNECTDATA@@V?$_Copy@UtagCONNECTDATA@@@ATL@@VCComSingleThreadModel@6@@ATL@@@ATL@@UEAA@XZ ; ATL::CComObject<ATL::CComEnum<IEnumConnections,&_GUID_b196b287_bab4_101a_b69c_00aa00341d07,tagCONNECTDATA,ATL::_Copy<tagCONNECTDATA>,ATL::CComSingleThreadModel> >::~CComObject<ATL::CComEnum<IEnumConnections,&_GUID_b196b287_bab4_101a_b69c_00aa00341d07,tagCONNECTDATA,ATL::_Copy<tagCONNECTDATA>,ATL::CComSingleThreadModel> >
PUBLIC	?AddRef@?$CComObject@V?$CComEnum@UIEnumConnections@@$1?_GUID_b196b287_bab4_101a_b69c_00aa00341d07@@3U__s_GUID@@BUtagCONNECTDATA@@V?$_Copy@UtagCONNECTDATA@@@ATL@@VCComSingleThreadModel@6@@ATL@@@ATL@@UEAAKXZ ; ATL::CComObject<ATL::CComEnum<IEnumConnections,&_GUID_b196b287_bab4_101a_b69c_00aa00341d07,tagCONNECTDATA,ATL::_Copy<tagCONNECTDATA>,ATL::CComSingleThreadModel> >::AddRef
PUBLIC	?Release@?$CComObject@V?$CComEnum@UIEnumConnections@@$1?_GUID_b196b287_bab4_101a_b69c_00aa00341d07@@3U__s_GUID@@BUtagCONNECTDATA@@V?$_Copy@UtagCONNECTDATA@@@ATL@@VCComSingleThreadModel@6@@ATL@@@ATL@@UEAAKXZ ; ATL::CComObject<ATL::CComEnum<IEnumConnections,&_GUID_b196b287_bab4_101a_b69c_00aa00341d07,tagCONNECTDATA,ATL::_Copy<tagCONNECTDATA>,ATL::CComSingleThreadModel> >::Release
PUBLIC	?QueryInterface@?$CComObject@V?$CComEnum@UIEnumConnections@@$1?_GUID_b196b287_bab4_101a_b69c_00aa00341d07@@3U__s_GUID@@BUtagCONNECTDATA@@V?$_Copy@UtagCONNECTDATA@@@ATL@@VCComSingleThreadModel@6@@ATL@@@ATL@@UEAAJAEBU_GUID@@PEAPEAX@Z ; ATL::CComObject<ATL::CComEnum<IEnumConnections,&_GUID_b196b287_bab4_101a_b69c_00aa00341d07,tagCONNECTDATA,ATL::_Copy<tagCONNECTDATA>,ATL::CComSingleThreadModel> >::QueryInterface
PUBLIC	?CreateInstance@?$CComObject@V?$CComEnum@UIEnumConnections@@$1?_GUID_b196b287_bab4_101a_b69c_00aa00341d07@@3U__s_GUID@@BUtagCONNECTDATA@@V?$_Copy@UtagCONNECTDATA@@@ATL@@VCComSingleThreadModel@6@@ATL@@@ATL@@SAJPEAPEAV12@@Z ; ATL::CComObject<ATL::CComEnum<IEnumConnections,&_GUID_b196b287_bab4_101a_b69c_00aa00341d07,tagCONNECTDATA,ATL::_Copy<tagCONNECTDATA>,ATL::CComSingleThreadModel> >::CreateInstance
PUBLIC	??_G?$CComObject@V?$CComEnum@UIEnumConnections@@$1?_GUID_b196b287_bab4_101a_b69c_00aa00341d07@@3U__s_GUID@@BUtagCONNECTDATA@@V?$_Copy@UtagCONNECTDATA@@@ATL@@VCComSingleThreadModel@6@@ATL@@@ATL@@UEAAPEAXI@Z ; ATL::CComObject<ATL::CComEnum<IEnumConnections,&_GUID_b196b287_bab4_101a_b69c_00aa00341d07,tagCONNECTDATA,ATL::_Copy<tagCONNECTDATA>,ATL::CComSingleThreadModel> >::`scalar deleting destructor'
PUBLIC	?_OptionsStorage@?1??__local_stdio_printf_options@@9@4_KA ; `__local_stdio_printf_options'::`2'::_OptionsStorage
PUBLIC	??_C@_13COJANIEC@?$AA0@				; `string'
PUBLIC	??_C@_17CNPHIMPH@?$AA?$CF?$AAl?$AAs@		; `string'
PUBLIC	??_C@_1OE@EFJOHFCD@?$AAC?$AA?3?$AA?2?$AAP?$AAr?$AAo?$AAg?$AAr?$AAa?$AAm?$AA?5?$AAF?$AAi?$AAl?$AAe@ ; `string'
PUBLIC	?atlTraceGeneral@ATL@@3V?$CTraceCategoryEx@$00$0A@@1@A ; ATL::atlTraceGeneral
PUBLIC	?atlTraceCOM@ATL@@3V?$CTraceCategoryEx@$01$0A@@1@A ; ATL::atlTraceCOM
PUBLIC	?atlTraceQI@ATL@@3V?$CTraceCategoryEx@$03$0A@@1@A ; ATL::atlTraceQI
PUBLIC	?atlTraceRegistrar@ATL@@3V?$CTraceCategoryEx@$07$0A@@1@A ; ATL::atlTraceRegistrar
PUBLIC	?atlTraceRefcount@ATL@@3V?$CTraceCategoryEx@$0BA@$0A@@1@A ; ATL::atlTraceRefcount
PUBLIC	?atlTraceWindowing@ATL@@3V?$CTraceCategoryEx@$0CA@$0A@@1@A ; ATL::atlTraceWindowing
PUBLIC	?atlTraceControls@ATL@@3V?$CTraceCategoryEx@$0EA@$0A@@1@A ; ATL::atlTraceControls
PUBLIC	?atlTraceHosting@ATL@@3V?$CTraceCategoryEx@$0IA@$0A@@1@A ; ATL::atlTraceHosting
PUBLIC	?atlTraceDBClient@ATL@@3V?$CTraceCategoryEx@$0BAA@$0A@@1@A ; ATL::atlTraceDBClient
PUBLIC	?atlTraceDBProvider@ATL@@3V?$CTraceCategoryEx@$0CAA@$0A@@1@A ; ATL::atlTraceDBProvider
PUBLIC	?atlTraceSnapin@ATL@@3V?$CTraceCategoryEx@$0EAA@$0A@@1@A ; ATL::atlTraceSnapin
PUBLIC	?atlTraceNotImpl@ATL@@3V?$CTraceCategoryEx@$0IAA@$0A@@1@A ; ATL::atlTraceNotImpl
PUBLIC	?atlTraceAllocation@ATL@@3V?$CTraceCategoryEx@$0BAAA@$0A@@1@A ; ATL::atlTraceAllocation
PUBLIC	?atlTraceException@ATL@@3V?$CTraceCategoryEx@$0CAAA@$0A@@1@A ; ATL::atlTraceException
PUBLIC	?atlTraceTime@ATL@@3V?$CTraceCategoryEx@$0EAAA@$0A@@1@A ; ATL::atlTraceTime
PUBLIC	?atlTraceCache@ATL@@3V?$CTraceCategoryEx@$0IAAA@$0A@@1@A ; ATL::atlTraceCache
PUBLIC	?atlTraceStencil@ATL@@3V?$CTraceCategoryEx@$0BAAAA@$0A@@1@A ; ATL::atlTraceStencil
PUBLIC	?atlTraceString@ATL@@3V?$CTraceCategoryEx@$0CAAAA@$0A@@1@A ; ATL::atlTraceString
PUBLIC	?atlTraceMap@ATL@@3V?$CTraceCategoryEx@$0EAAAA@$0A@@1@A ; ATL::atlTraceMap
PUBLIC	?atlTraceUtil@ATL@@3V?$CTraceCategoryEx@$0IAAAA@$0A@@1@A ; ATL::atlTraceUtil
PUBLIC	?atlTraceSecurity@ATL@@3V?$CTraceCategoryEx@$0BAAAAA@$0A@@1@A ; ATL::atlTraceSecurity
PUBLIC	?atlTraceSync@ATL@@3V?$CTraceCategoryEx@$0CAAAAA@$0A@@1@A ; ATL::atlTraceSync
PUBLIC	?atlTraceISAPI@ATL@@3V?$CTraceCategoryEx@$0EAAAAA@$0A@@1@A ; ATL::atlTraceISAPI
PUBLIC	?m_nLevel@CTrace@ATL@@1IA			; ATL::CTrace::m_nLevel
PUBLIC	?m_nCategory@CTrace@ATL@@1IA			; ATL::CTrace::m_nCategory
PUBLIC	?m_nLastCategory@CTrace@ATL@@1IA		; ATL::CTrace::m_nLastCategory
PUBLIC	?m_nMap@CTrace@ATL@@1PAUCategoryMap@12@A	; ATL::CTrace::m_nMap
PUBLIC	??_C@_1O@LFNDFEBP@?$AA?$CF?$AAl?$AAs?$AA?5?$AA?9?$AA?5@ ; `string'
PUBLIC	??_C@_1M@PGKOAACE@?$AA?$CF?$AAu?$AA?5?$AA?9?$AA?5@ ; `string'
PUBLIC	??_C@_1O@OAIPCDPO@?$AA?$CF?$AAl?$AAs?$AA?$CF?$AAl?$AAs@ ; `string'
PUBLIC	??_C@_17LGGGMOOB@?$AA?$CF?$AAh?$AAs@		; `string'
PUBLIC	??_C@_1EO@EBPPKGOM@?$AAf?$AAa?$AAl?$AAs?$AAe?$AA?5?$AA?$CG?$AA?$CG?$AA?5?$AA?$CC?$AAT?$AAo?$AAo?$AA?5?$AAm@ ; `string'
PUBLIC	??_C@_1OE@DGDFBHKA@?$AAC?$AA?3?$AA?2?$AAP?$AAr?$AAo?$AAg?$AAr?$AAa?$AAm?$AA?5?$AAF?$AAi?$AAl?$AAe@ ; `string'
PUBLIC	??_C@_0HD@ECNMIKGK@C?3?2Program?5Files?5?$CIx86?$CJ?2Microsof@ ; `string'
PUBLIC	??_C@_1CK@DFMKPFAK@?$AAA?$AAt?$AAl?$AAT?$AAh?$AAr?$AAo?$AAw?$AA?3?$AA?5?$AAh?$AAr?$AA?5?$AA?$DN?$AA?5@ ; `string'
PUBLIC	??_C@_1M@HLGKFCJM@?$AAf?$AAa?$AAl?$AAs?$AAe@	; `string'
PUBLIC	??_C@_1OG@DEDHKNLM@?$AAC?$AA?3?$AA?2?$AAP?$AAr?$AAo?$AAg?$AAr?$AAa?$AAm?$AA?5?$AAF?$AAi?$AAl?$AAe@ ; `string'
PUBLIC	?m_bInitFailed@CAtlBaseModule@ATL@@2_NA		; ATL::CAtlBaseModule::m_bInitFailed
PUBLIC	??_C@_1BM@GBBOFEAE@?$AA_?$AA_?$AAa?$AAt?$AAl?$AA_?$AAc?$AAo?$AAn?$AAd?$AAV?$AAa?$AAl@ ; `string'
PUBLIC	??_C@_1OC@CIBKFAMP@?$AAC?$AA?3?$AA?2?$AAP?$AAr?$AAo?$AAg?$AAr?$AAa?$AAm?$AA?5?$AAF?$AAi?$AAl?$AAe@ ; `string'
PUBLIC	??_C@_0HB@KEBNGHII@C?3?2Program?5Files?5?$CIx86?$CJ?2Microsof@ ; `string'
PUBLIC	??_C@_1IA@KEEOONGN@?$AAE?$AAR?$AAR?$AAO?$AAR?$AA?5?$AA?3?$AA?5?$AAU?$AAn?$AAa?$AAb?$AAl?$AAe?$AA?5@ ; `string'
PUBLIC	?_AtlComModule@ATL@@3VCAtlComModule@1@A		; ATL::_AtlComModule
PUBLIC	?_AtlWinModule@ATL@@3VCAtlWinModule@1@A		; ATL::_AtlWinModule
PUBLIC	_GUID_b196b284_bab4_101a_b69c_00aa00341d07
PUBLIC	??_C@_1BG@PEGMCOIG@?$AAp?$AAT?$AAh?$AAi?$AAs?$AA?5?$AA?$CB?$AA?$DN?$AA?5?$AA0@ ; `string'
PUBLIC	??_C@_1BK@ENABKMAI@?$AAp?$AAE?$AAn?$AAt?$AAr?$AAi?$AAe?$AAs?$AA?$CB?$AA?$DN?$AA?5?$AA0@ ; `string'
PUBLIC	??_C@_1GE@KALDMMBC@?$AAp?$AAE?$AAn?$AAt?$AAr?$AAi?$AAe?$AAs?$AA?9?$AA?$DO?$AAp?$AAF?$AAu?$AAn?$AAc@ ; `string'
PUBLIC	??_C@_1BA@JJDNGNLN@?$AA?$CB?$AAb?$AAB?$AAl?$AAi?$AAn?$AAd@ ; `string'
PUBLIC	??_C@_1IG@OPJAFKJH@?$AAE?$AAR?$AAR?$AAO?$AAR?$AA?5?$AA?3?$AA?5?$AAU?$AAn?$AAa?$AAb?$AAl?$AAe?$AA?5@ ; `string'
PUBLIC	??_C@_1FA@IGOCHCBG@?$AAC?$AA?3?$AA?2?$AAD?$AAe?$AAv?$AAe?$AAl?$AAo?$AAp?$AA?2?$AAO?$AAP?$AAO?$AAS@ ; `string'
PUBLIC	??_C@_1BO@IINBGKAE@?$AAp?$AAp?$AAv?$AAO?$AAb?$AAj?$AAe?$AAc?$AAt?$AA?5?$AA?$CB?$AA?$DN?$AA?5?$AA0@ ; `string'
PUBLIC	??_C@_1BK@MDGGGAPK@?$AAm?$AA_?$AAd?$AAw?$AAR?$AAe?$AAf?$AA?5?$AA?$DN?$AA?$DN?$AA?5?$AA0@ ; `string'
PUBLIC	??_C@_1BO@CFNLNIPO@?$AAm?$AA_?$AAd?$AAw?$AAR?$AAe?$AAf?$AA?5?$AA?$CB?$AA?$DN?$AA?5?$AA?9?$AA1?$AAL@ ; `string'
PUBLIC	??_C@_1IG@BMPHLDAM@?$AA0?$AA?5?$AA?$CG?$AA?$CG?$AA?5?$AAL?$AA?$CC?$AAR?$AAe?$AAl?$AAe?$AAa?$AAs?$AAe?$AA?5@ ; `string'
PUBLIC	??_C@_1CE@GFEBMKPP@?$AAp?$AAp?$AAF?$AAi?$AAn?$AAd?$AA?5?$AA?$CG?$AA?$CG?$AA?5?$AA?$CK?$AAp?$AAp?$AAF?$AAi@ ; `string'
PUBLIC	??_C@_1FI@CDNFCAGD@?$AAd?$AAw?$AAC?$AAo?$AAo?$AAk?$AAi?$AAe?$AA?5?$AA?$CB?$AA?$DN?$AA?5?$AA0?$AA?5?$AA?$CG@ ; `string'
PUBLIC	??_C@_1EA@JHMKKLFC@?$AAn?$AAI?$AAn?$AAd?$AAe?$AAx?$AA?5?$AA?$DO?$AA?$DN?$AA?5?$AA0?$AA?5?$AA?$CG?$AA?$CG?$AA?5@ ; `string'
PUBLIC	??_C@_1EO@PKGIEOJK@?$AAi?$AAd?$AAx?$AA?5?$AA?$DM?$AA?5?$AAd?$AAw?$AAC?$AAo?$AAo?$AAk?$AAi?$AAe?$AA?5@ ; `string'
PUBLIC	_GUID_b196b287_bab4_101a_b69c_00aa00341d07
PUBLIC	??_C@_1OA@EJAAKNNE@?$AAC?$AA?3?$AA?2?$AAP?$AAr?$AAo?$AAg?$AAr?$AAa?$AAm?$AA?5?$AAF?$AAi?$AAl?$AAe@ ; `string'
PUBLIC	??_C@_0HA@DOAAAKDA@C?3?2Program?5Files?5?$CIx86?$CJ?2Microsof@ ; `string'
PUBLIC	??_C@_1CG@KBMKEOOB@?$AAC?$AAo?$AAn?$AAt?$AAr?$AAo?$AAl?$AA?5?$AAD?$AAe?$AAs?$AAt?$AAr?$AAo?$AAy@ ; `string'
PUBLIC	?pConnMap@?$IConnectionPointContainerImpl@VCOPOSSpeechSynthesis@@@ATL@@0PEBU_ATL_CONNMAP_ENTRY@2@EB ; ATL::IConnectionPointContainerImpl<COPOSSpeechSynthesis>::pConnMap
PUBLIC	??_7?$CProxy_IOPOSEvents@VCOPOSSpeechSynthesis@@@@6B@ ; CProxy_IOPOSEvents<COPOSSpeechSynthesis>::`vftable'
PUBLIC	?_entries@?1??GetConnMap@COPOSSpeechSynthesis@@SAPEBU_ATL_CONNMAP_ENTRY@ATL@@PEAH@Z@4QBU34@B ; `COPOSSpeechSynthesis::GetConnMap'::`2'::_entries
PUBLIC	?$TSS0@?1??GetConnMap@COPOSSpeechSynthesis@@SAPEBU_ATL_CONNMAP_ENTRY@ATL@@PEAH@Z@4HA ; `COPOSSpeechSynthesis::GetConnMap'::`2'::$TSS0
PUBLIC	??_C@_1FK@EJDCNMFO@?$AA?5?$AA?5?$AAE?$AAv?$AAe?$AAn?$AAt?$AAI?$AAn?$AAi?$AAt?$AA?3?$AA?5?$AAF?$AAa@ ; `string'
PUBLIC	??_C@_1FM@GHFMGGAO@?$AA?5?$AA?5?$AAE?$AAv?$AAe?$AAn?$AAt?$AAI?$AAn?$AAi?$AAt?$AA?3?$AA?5?$AAF?$AAa@ ; `string'
PUBLIC	??_C@_1GC@FLDBIEFG@?$AA?5?$AA?5?$AAE?$AAv?$AAe?$AAn?$AAt?$AAI?$AAn?$AAi?$AAt?$AA?3?$AA?5?$AAF?$AAa@ ; `string'
PUBLIC	??_C@_1BI@PMBJJHKM@?$AA?$CK?$AAE?$AAv?$AAe?$AAn?$AAt?$AAC?$AAl?$AAa?$AAi?$AAm@ ; `string'
PUBLIC	??_C@_1CM@JMADAJDC@?$AA?$CK?$AAE?$AAv?$AAe?$AAn?$AAt?$AAP?$AAr?$AAe?$AAC?$AAl?$AAo?$AAs?$AAe?$AAR@ ; `string'
PUBLIC	??_C@_1HI@GMEJDJHN@?$AAC?$AA?3?$AA?2?$AAD?$AAe?$AAv?$AAe?$AAl?$AAo?$AAp?$AA?2?$AAO?$AAP?$AAO?$AAS@ ; `string'
PUBLIC	??_C@_1DE@EPLGDCDL@?$AA?$CB?$AA?5?$AA_?$AAE?$AAv?$AAe?$AAn?$AAt?$AA_?$AAb?$AAE?$AAv?$AAe?$AAn?$AAt@ ; `string'
PUBLIC	??_C@_1BI@IOGKIMIM@?$AA?$CK?$AAE?$AAv?$AAe?$AAn?$AAt?$AAC?$AAl?$AAo?$AAs?$AAe@ ; `string'
PUBLIC	??_C@_1FC@INBMHOIJ@?$AA?3?$AA?3?$AAD?$AAe?$AAs?$AAt?$AAr?$AAo?$AAy?$AAW?$AAi?$AAn?$AAd?$AAo?$AAw@ ; `string'
PUBLIC	??_C@_1IK@JGLBMEDC@?$AA?3?$AA?3?$AAU?$AAn?$AAr?$AAe?$AAg?$AAi?$AAs?$AAt?$AAe?$AAr?$AAC?$AAl?$AAa@ ; `string'
PUBLIC	??_C@_1FK@NNNDFBMJ@?$AA?3?$AA?3?$AAC?$AAl?$AAo?$AAs?$AAe?$AAH?$AAa?$AAn?$AAd?$AAl?$AAe?$AA?$CI?$AA?5@ ; `string'
PUBLIC	??_C@_1FE@CAEAEALH@?$AA?3?$AA?3?$AAC?$AAl?$AAo?$AAs?$AAe?$AAH?$AAa?$AAn?$AAd?$AAl?$AAe?$AA?$CI?$AA?5@ ; `string'
PUBLIC	??_C@_1EO@JKFBLFHJ@?$AA?$CK?$AAE?$AAv?$AAe?$AAn?$AAt?$AAW?$AAi?$AAn?$AAd?$AAo?$AAw?$AAP?$AAr?$AAo@ ; `string'
PUBLIC	??_C@_1EI@OGEHNNLE@?$AA?$CK?$AAE?$AAv?$AAe?$AAn?$AAt?$AAW?$AAi?$AAn?$AAd?$AAo?$AAw?$AAP?$AAr?$AAo@ ; `string'
PUBLIC	??_C@_1FK@FGAEIMCK@?$AA?$CK?$AAE?$AAv?$AAe?$AAn?$AAt?$AAW?$AAi?$AAn?$AAd?$AAo?$AAw?$AAP?$AAr?$AAo@ ; `string'
PUBLIC	??_C@_1FG@KGPDBNHF@?$AA?$CK?$AAE?$AAv?$AAe?$AAn?$AAt?$AAW?$AAi?$AAn?$AAd?$AAo?$AAw?$AAP?$AAr?$AAo@ ; `string'
PUBLIC	??_C@_1CO@NKNAIIAP@?$AA?$CK?$AAU?$AAn?$AAa?$AAd?$AAv?$AAi?$AAs?$AAe?$AA?3?$AA?5?$AAC?$AAo?$AAo?$AAk@ ; `string'
PUBLIC	??_C@_1EA@IMKHEMDJ@?$AA?$CK?$AAA?$AAd?$AAv?$AAi?$AAs?$AAe?$AA?3?$AA?5?$AAS?$AAi?$AAn?$AAk?$AA?5?$AA0@ ; `string'
PUBLIC	??_C@_1CE@PGFMOFKI@?$AAS?$AAt?$AAa?$AAt?$AAu?$AAs?$AAU?$AAp?$AAd?$AAa?$AAt?$AAe?$AAE?$AAv?$AAe@ ; `string'
PUBLIC	??_C@_1CI@HLBJDONE@?$AAO?$AAu?$AAt?$AAp?$AAu?$AAt?$AAC?$AAo?$AAm?$AAp?$AAl?$AAe?$AAt?$AAe?$AAE@ ; `string'
PUBLIC	??_C@_1BG@LODEBHDD@?$AAE?$AAr?$AAr?$AAo?$AAr?$AAE?$AAv?$AAe?$AAn?$AAt@ ; `string'
PUBLIC	??_C@_1BM@CBGEBBBJ@?$AAD?$AAi?$AAr?$AAe?$AAc?$AAt?$AAI?$AAO?$AAE?$AAv?$AAe?$AAn?$AAt@ ; `string'
PUBLIC	_GUID_b196b286_bab4_101a_b69c_00aa00341d07
PUBLIC	??_C@_0HA@JEDONBAF@C?3?2Program?5Files?5?$CIx86?$CJ?2Microsof@ ; `string'
PUBLIC	??_C@_1GI@EDPGCMOP@?$AAE?$AAR?$AAR?$AAO?$AAR?$AA?5?$AA?9?$AA?5?$AAO?$AAb?$AAj?$AAe?$AAc?$AAt?$AA?5@ ; `string'
PUBLIC	??_C@_1OK@FGCLCILL@?$AAC?$AA?3?$AA?2?$AAP?$AAr?$AAo?$AAg?$AAr?$AAa?$AAm?$AA?5?$AAF?$AAi?$AAl?$AAe@ ; `string'
PUBLIC	??_C@_1GI@CMBOLMBG@?$AA?$CK?$AAF?$AAi?$AAr?$AAe?$AAT?$AAh?$AAe?$AAE?$AAv?$AAe?$AAn?$AAt?$AA?3?$AA?5@ ; `string'
PUBLIC	??_C@_1BK@NHECDDNK@?$AAm?$AA_?$AAp?$AAD?$AAa?$AAt?$AAa?$AA?5?$AA?$DN?$AA?$DN?$AA?5?$AA0@ ; `string'
PUBLIC	??_C@_1BE@ENNDGLJC@?$AA_?$AAC?$AAC?$AAo?$AAm?$AAE?$AAn?$AAu?$AAm@ ; `string'
PUBLIC	??_7?$CComObject@V?$CComEnum@UIEnumConnections@@$1?_GUID_b196b287_bab4_101a_b69c_00aa00341d07@@3U__s_GUID@@BUtagCONNECTDATA@@V?$_Copy@UtagCONNECTDATA@@@ATL@@VCComSingleThreadModel@6@@ATL@@@ATL@@6B@ ; ATL::CComObject<ATL::CComEnum<IEnumConnections,&_GUID_b196b287_bab4_101a_b69c_00aa00341d07,tagCONNECTDATA,ATL::_Copy<tagCONNECTDATA>,ATL::CComSingleThreadModel> >::`vftable'
PUBLIC	?_entries@?1??_GetEntries@?$CComEnum@UIEnumConnections@@$1?_GUID_b196b287_bab4_101a_b69c_00aa00341d07@@3U__s_GUID@@BUtagCONNECTDATA@@V?$_Copy@UtagCONNECTDATA@@@ATL@@VCComSingleThreadModel@6@@ATL@@SAPEBU_ATL_INTMAP_ENTRY@3@XZ@4QBU43@B ; `ATL::CComEnum<IEnumConnections,&_GUID_b196b287_bab4_101a_b69c_00aa00341d07,tagCONNECTDATA,ATL::_Copy<tagCONNECTDATA>,ATL::CComSingleThreadModel>::_GetEntries'::`2'::_entries
EXTRN	_purecall:PROC
EXTRN	??3@YAXPEAX_K@Z:PROC				; operator delete
EXTRN	??_U@YAPEAX_K@Z:PROC				; operator new[]
EXTRN	??_V@YAXPEAX@Z:PROC				; operator delete[]
EXTRN	??_V@YAXPEAX_K@Z:PROC				; operator delete[]
EXTRN	atexit:PROC
EXTRN	__report_rangecheckfailure:PROC
EXTRN	_Init_thread_header:PROC
EXTRN	_Init_thread_footer:PROC
EXTRN	calloc:PROC
EXTRN	free:PROC
EXTRN	malloc:PROC
EXTRN	_recalloc:PROC
EXTRN	??2@YAPEAX_KAEBUnothrow_t@std@@@Z:PROC		; operator new
EXTRN	??_U@YAPEAX_KAEBUnothrow_t@std@@@Z:PROC		; operator new[]
EXTRN	_CrtDbgReportW:PROC
EXTRN	isdigit:PROC
EXTRN	memcmp:PROC
EXTRN	memset:PROC
EXTRN	wcscpy_s:PROC
EXTRN	wcscat:PROC
EXTRN	wcscpy:PROC
EXTRN	wcslen:PROC
EXTRN	__imp_DeleteFileW:PROC
EXTRN	__imp_DecodePointer:PROC
EXTRN	__imp_CloseHandle:PROC
EXTRN	__imp_RaiseException:PROC
EXTRN	__imp_GetLastError:PROC
EXTRN	__imp_SetLastError:PROC
EXTRN	__imp_InitializeCriticalSectionEx:PROC
EXTRN	__imp_DeleteCriticalSection:PROC
EXTRN	__imp_SetEvent:PROC
EXTRN	__imp_CreateMutexW:PROC
EXTRN	__imp_CreateEventW:PROC
EXTRN	__imp_GetCurrentProcessId:PROC
EXTRN	__imp_GetCurrentThreadId:PROC
EXTRN	__imp_LocalFree:PROC
EXTRN	__imp_FormatMessageW:PROC
EXTRN	__imp_BitBlt:PROC
EXTRN	__imp_CreateCompatibleDC:PROC
EXTRN	__imp_DeleteObject:PROC
EXTRN	__imp_SelectObject:PROC
EXTRN	__imp_GetObjectW:PROC
EXTRN	__imp_PeekMessageW:PROC
EXTRN	__imp_DefWindowProcW:PROC
EXTRN	__imp_RegisterClassW:PROC
EXTRN	__imp_UnregisterClassW:PROC
EXTRN	__imp_CreateWindowExW:PROC
EXTRN	__imp_DestroyWindow:PROC
EXTRN	__imp_GetWindowLongPtrW:PROC
EXTRN	__imp_SetWindowLongPtrW:PROC
EXTRN	__imp_LoadBitmapW:PROC
EXTRN	__imp_RegCloseKey:PROC
EXTRN	__imp_RegOpenKeyExW:PROC
EXTRN	__imp_RegQueryValueExW:PROC
EXTRN	__imp_CoCreateInstance:PROC
EXTRN	__imp_CLSIDFromProgID:PROC
EXTRN	__imp_SysAllocString:PROC
EXTRN	__imp_SysFreeString:PROC
EXTRN	__imp_SysStringLen:PROC
EXTRN	__imp_SysStringByteLen:PROC
EXTRN	__imp_VariantClear:PROC
EXTRN	_wfopen:PROC
EXTRN	__stdio_common_vfwprintf:PROC
EXTRN	__stdio_common_vswprintf:PROC
EXTRN	__stdio_common_vswprintf_s:PROC
EXTRN	__stdio_common_vsnwprintf_s:PROC
EXTRN	fclose:PROC
EXTRN	putc:PROC
EXTRN	AtlThunk_FreeData:PROC
EXTRN	?_assert@@YAXPEB_W0I@Z:PROC			; _assert
EXTRN	?SetVARIANT_BOOL@OposVariant@@QEAAXF@Z:PROC	; OposVariant::SetVARIANT_BOOL
EXTRN	?GetLONG@OposVariant@@QEAAJXZ:PROC		; OposVariant::GetLONG
EXTRN	?ChangeLONG@OposVariant@@QEAAXPEAJAEAJ@Z:PROC	; OposVariant::ChangeLONG
EXTRN	?SetLONG@OposVariant@@QEAAXJ@Z:PROC		; OposVariant::SetLONG
EXTRN	?SetLONG_Ptr@OposVariant@@QEAAXPEAJAEAJ@Z:PROC	; OposVariant::SetLONG_Ptr
EXTRN	?ChangeBSTR@OposVariant@@QEAAXPEAPEA_WAEAJ@Z:PROC ; OposVariant::ChangeBSTR
EXTRN	?SetBSTR@OposVariant@@QEAAXPEA_WAEAJ@Z:PROC	; OposVariant::SetBSTR
EXTRN	?SetBSTR_Copy@OposVariant@@QEAAXPEA_WAEAJ@Z:PROC ; OposVariant::SetBSTR_Copy
EXTRN	?SetBSTR_InOutPtr@OposVariant@@QEAA_NPEAPEA_WAEAJ@Z:PROC ; OposVariant::SetBSTR_InOutPtr
EXTRN	?SetString@OposVariant@@QEAAXPEB_WAEAJ@Z:PROC	; OposVariant::SetString
EXTRN	?SetDispatch_Ptr@OposVariant@@QEAAXPEAUIDispatch@@AEAJ@Z:PROC ; OposVariant::SetDispatch_Ptr
EXTRN	??0OposDispParms@@QEAA@PEAVOposVariant@@H@Z:PROC ; OposDispParms::OposDispParms
EXTRN	??1OposDispParms@@QEAA@XZ:PROC			; OposDispParms::~OposDispParms
EXTRN	?cw_strcpy@@YAHPEA_WPEBD@Z:PROC			; cw_strcpy
EXTRN	?DupWide@_CW@@AEAAXXZ:PROC			; _CW::DupWide
EXTRN	??_E?$CComObject@V?$CComEnum@UIEnumConnections@@$1?_GUID_b196b287_bab4_101a_b69c_00aa00341d07@@3U__s_GUID@@BUtagCONNECTDATA@@V?$_Copy@UtagCONNECTDATA@@@ATL@@VCComSingleThreadModel@6@@ATL@@@ATL@@UEAAPEAXI@Z:PROC ; ATL::CComObject<ATL::CComEnum<IEnumConnections,&_GUID_b196b287_bab4_101a_b69c_00aa00341d07,tagCONNECTDATA,ATL::_Copy<tagCONNECTDATA>,ATL::CComSingleThreadModel> >::`vector deleting destructor'
EXTRN	_RTC_CheckStackVars:PROC
EXTRN	_RTC_InitBase:PROC
EXTRN	_RTC_Shutdown:PROC
EXTRN	__GSHandlerCheck:PROC
EXTRN	__security_check_cookie:PROC
EXTRN	_Init_thread_epoch:DWORD
EXTRN	?nothrow@std@@3Unothrow_t@1@B:BYTE		; std::nothrow
EXTRN	IID_IUnknown:BYTE
EXTRN	GUID_NULL:BYTE
EXTRN	IID_IDispatch:BYTE
EXTRN	?_AtlBaseModule@ATL@@3VCAtlBaseModule@1@A:BYTE	; ATL::_AtlBaseModule
EXTRN	__ImageBase:ZWORD
EXTRN	?_Module@@3VCComModule@ATL@@A:BYTE		; _Module
EXTRN	DIID__IOPOSSpeechSynthesisEvents:BYTE
EXTRN	__security_cookie:QWORD
EXTRN	_tls_index:DWORD
;	COMDAT ?_OptionsStorage@?1??__local_stdio_printf_options@@9@4_KA
_BSS	SEGMENT
?_OptionsStorage@?1??__local_stdio_printf_options@@9@4_KA DQ 01H DUP (?) ; `__local_stdio_printf_options'::`2'::_OptionsStorage
_BSS	ENDS
;	COMDAT ?atlTraceGeneral@ATL@@3V?$CTraceCategoryEx@$00$0A@@1@A
_BSS	SEGMENT
?atlTraceGeneral@ATL@@3V?$CTraceCategoryEx@$00$0A@@1@A DD 01H DUP (?) ; ATL::atlTraceGeneral
_BSS	ENDS
;	COMDAT ?atlTraceCOM@ATL@@3V?$CTraceCategoryEx@$01$0A@@1@A
_BSS	SEGMENT
?atlTraceCOM@ATL@@3V?$CTraceCategoryEx@$01$0A@@1@A DD 01H DUP (?) ; ATL::atlTraceCOM
_BSS	ENDS
;	COMDAT ?atlTraceQI@ATL@@3V?$CTraceCategoryEx@$03$0A@@1@A
_BSS	SEGMENT
?atlTraceQI@ATL@@3V?$CTraceCategoryEx@$03$0A@@1@A DD 01H DUP (?) ; ATL::atlTraceQI
_BSS	ENDS
;	COMDAT ?atlTraceRegistrar@ATL@@3V?$CTraceCategoryEx@$07$0A@@1@A
_BSS	SEGMENT
?atlTraceRegistrar@ATL@@3V?$CTraceCategoryEx@$07$0A@@1@A DD 01H DUP (?) ; ATL::atlTraceRegistrar
_BSS	ENDS
;	COMDAT ?atlTraceRefcount@ATL@@3V?$CTraceCategoryEx@$0BA@$0A@@1@A
_BSS	SEGMENT
?atlTraceRefcount@ATL@@3V?$CTraceCategoryEx@$0BA@$0A@@1@A DD 01H DUP (?) ; ATL::atlTraceRefcount
_BSS	ENDS
;	COMDAT ?atlTraceWindowing@ATL@@3V?$CTraceCategoryEx@$0CA@$0A@@1@A
_BSS	SEGMENT
?atlTraceWindowing@ATL@@3V?$CTraceCategoryEx@$0CA@$0A@@1@A DD 01H DUP (?) ; ATL::atlTraceWindowing
_BSS	ENDS
;	COMDAT ?atlTraceControls@ATL@@3V?$CTraceCategoryEx@$0EA@$0A@@1@A
_BSS	SEGMENT
?atlTraceControls@ATL@@3V?$CTraceCategoryEx@$0EA@$0A@@1@A DD 01H DUP (?) ; ATL::atlTraceControls
_BSS	ENDS
;	COMDAT ?atlTraceHosting@ATL@@3V?$CTraceCategoryEx@$0IA@$0A@@1@A
_BSS	SEGMENT
?atlTraceHosting@ATL@@3V?$CTraceCategoryEx@$0IA@$0A@@1@A DD 01H DUP (?) ; ATL::atlTraceHosting
_BSS	ENDS
;	COMDAT ?atlTraceDBClient@ATL@@3V?$CTraceCategoryEx@$0BAA@$0A@@1@A
_BSS	SEGMENT
?atlTraceDBClient@ATL@@3V?$CTraceCategoryEx@$0BAA@$0A@@1@A DD 01H DUP (?) ; ATL::atlTraceDBClient
_BSS	ENDS
;	COMDAT ?atlTraceDBProvider@ATL@@3V?$CTraceCategoryEx@$0CAA@$0A@@1@A
_BSS	SEGMENT
?atlTraceDBProvider@ATL@@3V?$CTraceCategoryEx@$0CAA@$0A@@1@A DD 01H DUP (?) ; ATL::atlTraceDBProvider
_BSS	ENDS
;	COMDAT ?atlTraceSnapin@ATL@@3V?$CTraceCategoryEx@$0EAA@$0A@@1@A
_BSS	SEGMENT
?atlTraceSnapin@ATL@@3V?$CTraceCategoryEx@$0EAA@$0A@@1@A DD 01H DUP (?) ; ATL::atlTraceSnapin
_BSS	ENDS
;	COMDAT ?atlTraceNotImpl@ATL@@3V?$CTraceCategoryEx@$0IAA@$0A@@1@A
_BSS	SEGMENT
?atlTraceNotImpl@ATL@@3V?$CTraceCategoryEx@$0IAA@$0A@@1@A DD 01H DUP (?) ; ATL::atlTraceNotImpl
_BSS	ENDS
;	COMDAT ?atlTraceAllocation@ATL@@3V?$CTraceCategoryEx@$0BAAA@$0A@@1@A
_BSS	SEGMENT
?atlTraceAllocation@ATL@@3V?$CTraceCategoryEx@$0BAAA@$0A@@1@A DD 01H DUP (?) ; ATL::atlTraceAllocation
_BSS	ENDS
;	COMDAT ?atlTraceException@ATL@@3V?$CTraceCategoryEx@$0CAAA@$0A@@1@A
_BSS	SEGMENT
?atlTraceException@ATL@@3V?$CTraceCategoryEx@$0CAAA@$0A@@1@A DD 01H DUP (?) ; ATL::atlTraceException
_BSS	ENDS
;	COMDAT ?atlTraceTime@ATL@@3V?$CTraceCategoryEx@$0EAAA@$0A@@1@A
_BSS	SEGMENT
?atlTraceTime@ATL@@3V?$CTraceCategoryEx@$0EAAA@$0A@@1@A DD 01H DUP (?) ; ATL::atlTraceTime
_BSS	ENDS
;	COMDAT ?atlTraceCache@ATL@@3V?$CTraceCategoryEx@$0IAAA@$0A@@1@A
_BSS	SEGMENT
?atlTraceCache@ATL@@3V?$CTraceCategoryEx@$0IAAA@$0A@@1@A DD 01H DUP (?) ; ATL::atlTraceCache
_BSS	ENDS
;	COMDAT ?atlTraceStencil@ATL@@3V?$CTraceCategoryEx@$0BAAAA@$0A@@1@A
_BSS	SEGMENT
?atlTraceStencil@ATL@@3V?$CTraceCategoryEx@$0BAAAA@$0A@@1@A DD 01H DUP (?) ; ATL::atlTraceStencil
_BSS	ENDS
;	COMDAT ?atlTraceString@ATL@@3V?$CTraceCategoryEx@$0CAAAA@$0A@@1@A
_BSS	SEGMENT
?atlTraceString@ATL@@3V?$CTraceCategoryEx@$0CAAAA@$0A@@1@A DD 01H DUP (?) ; ATL::atlTraceString
_BSS	ENDS
;	COMDAT ?atlTraceMap@ATL@@3V?$CTraceCategoryEx@$0EAAAA@$0A@@1@A
_BSS	SEGMENT
?atlTraceMap@ATL@@3V?$CTraceCategoryEx@$0EAAAA@$0A@@1@A DD 01H DUP (?) ; ATL::atlTraceMap
_BSS	ENDS
;	COMDAT ?atlTraceUtil@ATL@@3V?$CTraceCategoryEx@$0IAAAA@$0A@@1@A
_BSS	SEGMENT
?atlTraceUtil@ATL@@3V?$CTraceCategoryEx@$0IAAAA@$0A@@1@A DD 01H DUP (?) ; ATL::atlTraceUtil
_BSS	ENDS
;	COMDAT ?atlTraceSecurity@ATL@@3V?$CTraceCategoryEx@$0BAAAAA@$0A@@1@A
_BSS	SEGMENT
?atlTraceSecurity@ATL@@3V?$CTraceCategoryEx@$0BAAAAA@$0A@@1@A DD 01H DUP (?) ; ATL::atlTraceSecurity
_BSS	ENDS
;	COMDAT ?atlTraceSync@ATL@@3V?$CTraceCategoryEx@$0CAAAAA@$0A@@1@A
_BSS	SEGMENT
?atlTraceSync@ATL@@3V?$CTraceCategoryEx@$0CAAAAA@$0A@@1@A DD 01H DUP (?) ; ATL::atlTraceSync
_BSS	ENDS
;	COMDAT ?atlTraceISAPI@ATL@@3V?$CTraceCategoryEx@$0EAAAAA@$0A@@1@A
_BSS	SEGMENT
?atlTraceISAPI@ATL@@3V?$CTraceCategoryEx@$0EAAAAA@$0A@@1@A DD 01H DUP (?) ; ATL::atlTraceISAPI
_BSS	ENDS
;	COMDAT ?m_nLevel@CTrace@ATL@@1IA
_BSS	SEGMENT
?m_nLevel@CTrace@ATL@@1IA DD 01H DUP (?)		; ATL::CTrace::m_nLevel
_BSS	ENDS
;	COMDAT ?m_nLastCategory@CTrace@ATL@@1IA
_BSS	SEGMENT
?m_nLastCategory@CTrace@ATL@@1IA DD 01H DUP (?)		; ATL::CTrace::m_nLastCategory
_BSS	ENDS
;	COMDAT ?m_nMap@CTrace@ATL@@1PAUCategoryMap@12@A
_BSS	SEGMENT
?m_nMap@CTrace@ATL@@1PAUCategoryMap@12@A DB 02080H DUP (?) ; ATL::CTrace::m_nMap
_BSS	ENDS
;	COMDAT ?m_bInitFailed@CAtlBaseModule@ATL@@2_NA
_BSS	SEGMENT
?m_bInitFailed@CAtlBaseModule@ATL@@2_NA DB 01H DUP (?)	; ATL::CAtlBaseModule::m_bInitFailed
_BSS	ENDS
;	COMDAT ?_AtlComModule@ATL@@3VCAtlComModule@1@A
_BSS	SEGMENT
?_AtlComModule@ATL@@3VCAtlComModule@1@A DB 048H DUP (?)	; ATL::_AtlComModule
_BSS	ENDS
;	COMDAT ?_AtlWinModule@ATL@@3VCAtlWinModule@1@A
_BSS	SEGMENT
?_AtlWinModule@ATL@@3VCAtlWinModule@1@A DB 048H DUP (?)	; ATL::_AtlWinModule
_BSS	ENDS
;	COMDAT ?pConnMap@?$IConnectionPointContainerImpl@VCOPOSSpeechSynthesis@@@ATL@@0PEBU_ATL_CONNMAP_ENTRY@2@EB
_BSS	SEGMENT
?pConnMap@?$IConnectionPointContainerImpl@VCOPOSSpeechSynthesis@@@ATL@@0PEBU_ATL_CONNMAP_ENTRY@2@EB DQ 01H DUP (?) ; ATL::IConnectionPointContainerImpl<COPOSSpeechSynthesis>::pConnMap
_BSS	ENDS
;	COMDAT ?_entries@?1??GetConnMap@COPOSSpeechSynthesis@@SAPEBU_ATL_CONNMAP_ENTRY@ATL@@PEAH@Z@4QBU34@B
_BSS	SEGMENT
?_entries@?1??GetConnMap@COPOSSpeechSynthesis@@SAPEBU_ATL_CONNMAP_ENTRY@ATL@@PEAH@Z@4QBU34@B DQ 03H DUP (?) ; `COPOSSpeechSynthesis::GetConnMap'::`2'::_entries
_BSS	ENDS
;	COMDAT ?$TSS0@?1??GetConnMap@COPOSSpeechSynthesis@@SAPEBU_ATL_CONNMAP_ENTRY@ATL@@PEAH@Z@4HA
_BSS	SEGMENT
?$TSS0@?1??GetConnMap@COPOSSpeechSynthesis@@SAPEBU_ATL_CONNMAP_ENTRY@ATL@@PEAH@Z@4HA DD 01H DUP (?) ; `COPOSSpeechSynthesis::GetConnMap'::`2'::$TSS0
_BSS	ENDS
;	COMDAT pdata
pdata	SEGMENT
$pdata$??_H@YAXPEAX_K1P6APEAX0@Z@Z DD imagerel $LN7
	DD	imagerel $LN7+139
	DD	imagerel $unwind$??_H@YAXPEAX_K1P6APEAX0@Z@Z
pdata	ENDS
;	COMDAT pdata
pdata	SEGMENT
$pdata$??_I@YAXPEAX_K1P6AX0@Z@Z DD imagerel $LN7
	DD	imagerel $LN7+166
	DD	imagerel $unwind$??_I@YAXPEAX_K1P6AX0@Z@Z
pdata	ENDS
;	COMDAT pdata
pdata	SEGMENT
$pdata$InlineIsEqualGUID DD imagerel $LN5
	DD	imagerel $LN5+208
	DD	imagerel $unwind$InlineIsEqualGUID
pdata	ENDS
;	COMDAT pdata
pdata	SEGMENT
$pdata$HRESULT_FROM_WIN32 DD imagerel $LN5
	DD	imagerel $LN5+74
	DD	imagerel $unwind$HRESULT_FROM_WIN32
pdata	ENDS
;	COMDAT pdata
pdata	SEGMENT
$pdata$??0IUnknown@@QEAA@XZ DD imagerel $LN3
	DD	imagerel $LN3+13
	DD	imagerel $unwind$??0IUnknown@@QEAA@XZ
pdata	ENDS
;	COMDAT pdata
pdata	SEGMENT
$pdata$??0IPersist@@QEAA@XZ DD imagerel $LN3
	DD	imagerel $LN3+51
	DD	imagerel $unwind$??0IPersist@@QEAA@XZ
pdata	ENDS
;	COMDAT pdata
pdata	SEGMENT
$pdata$??0IPersistStorage@@QEAA@XZ DD imagerel $LN3
	DD	imagerel $LN3+51
	DD	imagerel $unwind$??0IPersistStorage@@QEAA@XZ
pdata	ENDS
;	COMDAT pdata
pdata	SEGMENT
$pdata$??0IDataObject@@QEAA@XZ DD imagerel $LN3
	DD	imagerel $LN3+51
	DD	imagerel $unwind$??0IDataObject@@QEAA@XZ
pdata	ENDS
;	COMDAT pdata
pdata	SEGMENT
$pdata$??0IDispatch@@QEAA@XZ DD imagerel $LN3
	DD	imagerel $LN3+51
	DD	imagerel $unwind$??0IDispatch@@QEAA@XZ
pdata	ENDS
;	COMDAT pdata
pdata	SEGMENT
$pdata$??0IOleObject@@QEAA@XZ DD imagerel $LN3
	DD	imagerel $LN3+51
	DD	imagerel $unwind$??0IOleObject@@QEAA@XZ
pdata	ENDS
;	COMDAT pdata
pdata	SEGMENT
$pdata$??0IOleWindow@@QEAA@XZ DD imagerel $LN3
	DD	imagerel $LN3+51
	DD	imagerel $unwind$??0IOleWindow@@QEAA@XZ
pdata	ENDS
;	COMDAT pdata
pdata	SEGMENT
$pdata$??0IOleInPlaceActiveObject@@QEAA@XZ DD imagerel $LN3
	DD	imagerel $LN3+51
	DD	imagerel $unwind$??0IOleInPlaceActiveObject@@QEAA@XZ
pdata	ENDS
;	COMDAT pdata
pdata	SEGMENT
$pdata$??0IOleInPlaceObject@@QEAA@XZ DD imagerel $LN3
	DD	imagerel $LN3+51
	DD	imagerel $unwind$??0IOleInPlaceObject@@QEAA@XZ
pdata	ENDS
;	COMDAT pdata
pdata	SEGMENT
$pdata$??0IViewObject@@QEAA@XZ DD imagerel $LN3
	DD	imagerel $LN3+51
	DD	imagerel $unwind$??0IViewObject@@QEAA@XZ
pdata	ENDS
;	COMDAT pdata
pdata	SEGMENT
$pdata$??0IViewObject2@@QEAA@XZ DD imagerel $LN3
	DD	imagerel $LN3+51
	DD	imagerel $unwind$??0IViewObject2@@QEAA@XZ
pdata	ENDS
;	COMDAT pdata
pdata	SEGMENT
$pdata$?AtlThrowImpl@ATL@@YAXJ@Z DD imagerel $LN8
	DD	imagerel $LN8+221
	DD	imagerel $unwind$?AtlThrowImpl@ATL@@YAXJ@Z
pdata	ENDS
;	COMDAT pdata
pdata	SEGMENT
$pdata$__local_stdio_printf_options DD imagerel $LN3
	DD	imagerel $LN3+11
	DD	imagerel $unwind$__local_stdio_printf_options
pdata	ENDS
;	COMDAT pdata
pdata	SEGMENT
$pdata$_vfwprintf_l DD imagerel $LN3
	DD	imagerel $LN3+89
	DD	imagerel $unwind$_vfwprintf_l
pdata	ENDS
;	COMDAT pdata
pdata	SEGMENT
$pdata$vfwprintf DD imagerel $LN3
	DD	imagerel $LN3+69
	DD	imagerel $unwind$vfwprintf
pdata	ENDS
;	COMDAT pdata
pdata	SEGMENT
$pdata$_vsnwprintf_l DD imagerel $LN5
	DD	imagerel $LN5+139
	DD	imagerel $unwind$_vsnwprintf_l
pdata	ENDS
;	COMDAT pdata
pdata	SEGMENT
$pdata$_snwprintf DD imagerel $LN3
	DD	imagerel $LN3+136
	DD	imagerel $unwind$_snwprintf
pdata	ENDS
;	COMDAT pdata
pdata	SEGMENT
$pdata$_vsnwprintf DD imagerel $LN3
	DD	imagerel $LN3+84
	DD	imagerel $unwind$_vsnwprintf
pdata	ENDS
;	COMDAT pdata
pdata	SEGMENT
$pdata$_vswprintf_s_l DD imagerel $LN5
	DD	imagerel $LN5+132
	DD	imagerel $unwind$_vswprintf_s_l
pdata	ENDS
;	COMDAT pdata
pdata	SEGMENT
$pdata$swprintf_s DD imagerel $LN3
	DD	imagerel $LN3+136
	DD	imagerel $unwind$swprintf_s
pdata	ENDS
;	COMDAT pdata
pdata	SEGMENT
$pdata$??$AtlMultiply@H@ATL@@YAJPEAHHH@Z DD imagerel $LN5
	DD	imagerel $LN5+111
	DD	imagerel $unwind$??$AtlMultiply@H@ATL@@YAJPEAHHH@Z
pdata	ENDS
;	COMDAT pdata
pdata	SEGMENT
$pdata$?Allocate@CCRTAllocator@ATL@@SAPEAX_K@Z DD imagerel $LN3
	DD	imagerel $LN3+46
	DD	imagerel $unwind$?Allocate@CCRTAllocator@ATL@@SAPEAX_K@Z
pdata	ENDS
;	COMDAT pdata
pdata	SEGMENT
$pdata$?Free@CCRTAllocator@ATL@@SAXPEAX@Z DD imagerel $LN3
	DD	imagerel $LN3+46
	DD	imagerel $unwind$?Free@CCRTAllocator@ATL@@SAXPEAX@Z
pdata	ENDS
;	COMDAT pdata
pdata	SEGMENT
$pdata$??0?$CTraceCategoryEx@$0IAAAA@$0A@@ATL@@QEAA@PEB_W@Z DD imagerel $LN3
	DD	imagerel $LN3+61
	DD	imagerel $unwind$??0?$CTraceCategoryEx@$0IAAAA@$0A@@ATL@@QEAA@PEB_W@Z
pdata	ENDS
;	COMDAT pdata
pdata	SEGMENT
$pdata$??0?$CTraceCategoryEx@$00$0A@@ATL@@QEAA@PEB_W@Z DD imagerel $LN3
	DD	imagerel $LN3+61
	DD	imagerel $unwind$??0?$CTraceCategoryEx@$00$0A@@ATL@@QEAA@PEB_W@Z
pdata	ENDS
;	COMDAT pdata
pdata	SEGMENT
$pdata$??__EatlTraceGeneral@ATL@@YAXXZ DD imagerel ??__EatlTraceGeneral@ATL@@YAXXZ
	DD	imagerel ??__EatlTraceGeneral@ATL@@YAXXZ+46
	DD	imagerel $unwind$??__EatlTraceGeneral@ATL@@YAXXZ
pdata	ENDS
;	COMDAT pdata
pdata	SEGMENT
$pdata$??0?$CTraceCategoryEx@$01$0A@@ATL@@QEAA@PEB_W@Z DD imagerel $LN3
	DD	imagerel $LN3+61
	DD	imagerel $unwind$??0?$CTraceCategoryEx@$01$0A@@ATL@@QEAA@PEB_W@Z
pdata	ENDS
;	COMDAT pdata
pdata	SEGMENT
$pdata$??B?$CTraceCategoryEx@$01$0A@@ATL@@QEAAIXZ DD imagerel $LN3
	DD	imagerel $LN3+13
	DD	imagerel $unwind$??B?$CTraceCategoryEx@$01$0A@@ATL@@QEAAIXZ
pdata	ENDS
;	COMDAT pdata
pdata	SEGMENT
$pdata$??__EatlTraceCOM@ATL@@YAXXZ DD imagerel ??__EatlTraceCOM@ATL@@YAXXZ
	DD	imagerel ??__EatlTraceCOM@ATL@@YAXXZ+46
	DD	imagerel $unwind$??__EatlTraceCOM@ATL@@YAXXZ
pdata	ENDS
;	COMDAT pdata
pdata	SEGMENT
$pdata$??0?$CTraceCategoryEx@$03$0A@@ATL@@QEAA@PEB_W@Z DD imagerel $LN3
	DD	imagerel $LN3+61
	DD	imagerel $unwind$??0?$CTraceCategoryEx@$03$0A@@ATL@@QEAA@PEB_W@Z
pdata	ENDS
;	COMDAT pdata
pdata	SEGMENT
$pdata$??__EatlTraceQI@ATL@@YAXXZ DD imagerel ??__EatlTraceQI@ATL@@YAXXZ
	DD	imagerel ??__EatlTraceQI@ATL@@YAXXZ+46
	DD	imagerel $unwind$??__EatlTraceQI@ATL@@YAXXZ
pdata	ENDS
;	COMDAT pdata
pdata	SEGMENT
$pdata$??0?$CTraceCategoryEx@$07$0A@@ATL@@QEAA@PEB_W@Z DD imagerel $LN3
	DD	imagerel $LN3+61
	DD	imagerel $unwind$??0?$CTraceCategoryEx@$07$0A@@ATL@@QEAA@PEB_W@Z
pdata	ENDS
;	COMDAT pdata
pdata	SEGMENT
$pdata$??__EatlTraceRegistrar@ATL@@YAXXZ DD imagerel ??__EatlTraceRegistrar@ATL@@YAXXZ
	DD	imagerel ??__EatlTraceRegistrar@ATL@@YAXXZ+46
	DD	imagerel $unwind$??__EatlTraceRegistrar@ATL@@YAXXZ
pdata	ENDS
;	COMDAT pdata
pdata	SEGMENT
$pdata$??0?$CTraceCategoryEx@$0BA@$0A@@ATL@@QEAA@PEB_W@Z DD imagerel $LN3
	DD	imagerel $LN3+61
	DD	imagerel $unwind$??0?$CTraceCategoryEx@$0BA@$0A@@ATL@@QEAA@PEB_W@Z
pdata	ENDS
;	COMDAT pdata
pdata	SEGMENT
$pdata$??__EatlTraceRefcount@ATL@@YAXXZ DD imagerel ??__EatlTraceRefcount@ATL@@YAXXZ
	DD	imagerel ??__EatlTraceRefcount@ATL@@YAXXZ+46
	DD	imagerel $unwind$??__EatlTraceRefcount@ATL@@YAXXZ
pdata	ENDS
;	COMDAT pdata
pdata	SEGMENT
$pdata$??0?$CTraceCategoryEx@$0CA@$0A@@ATL@@QEAA@PEB_W@Z DD imagerel $LN3
	DD	imagerel $LN3+61
	DD	imagerel $unwind$??0?$CTraceCategoryEx@$0CA@$0A@@ATL@@QEAA@PEB_W@Z
pdata	ENDS
;	COMDAT pdata
pdata	SEGMENT
$pdata$??B?$CTraceCategoryEx@$0CA@$0A@@ATL@@QEAAIXZ DD imagerel $LN3
	DD	imagerel $LN3+13
	DD	imagerel $unwind$??B?$CTraceCategoryEx@$0CA@$0A@@ATL@@QEAAIXZ
pdata	ENDS
;	COMDAT pdata
pdata	SEGMENT
$pdata$??__EatlTraceWindowing@ATL@@YAXXZ DD imagerel ??__EatlTraceWindowing@ATL@@YAXXZ
	DD	imagerel ??__EatlTraceWindowing@ATL@@YAXXZ+46
	DD	imagerel $unwind$??__EatlTraceWindowing@ATL@@YAXXZ
pdata	ENDS
;	COMDAT pdata
pdata	SEGMENT
$pdata$??0?$CTraceCategoryEx@$0EA@$0A@@ATL@@QEAA@PEB_W@Z DD imagerel $LN3
	DD	imagerel $LN3+61
	DD	imagerel $unwind$??0?$CTraceCategoryEx@$0EA@$0A@@ATL@@QEAA@PEB_W@Z
pdata	ENDS
;	COMDAT pdata
pdata	SEGMENT
$pdata$??B?$CTraceCategoryEx@$0EA@$0A@@ATL@@QEAAIXZ DD imagerel $LN3
	DD	imagerel $LN3+13
	DD	imagerel $unwind$??B?$CTraceCategoryEx@$0EA@$0A@@ATL@@QEAAIXZ
pdata	ENDS
;	COMDAT pdata
pdata	SEGMENT
$pdata$??__EatlTraceControls@ATL@@YAXXZ DD imagerel ??__EatlTraceControls@ATL@@YAXXZ
	DD	imagerel ??__EatlTraceControls@ATL@@YAXXZ+46
	DD	imagerel $unwind$??__EatlTraceControls@ATL@@YAXXZ
pdata	ENDS
;	COMDAT pdata
pdata	SEGMENT
$pdata$??0?$CTraceCategoryEx@$0IA@$0A@@ATL@@QEAA@PEB_W@Z DD imagerel $LN3
	DD	imagerel $LN3+61
	DD	imagerel $unwind$??0?$CTraceCategoryEx@$0IA@$0A@@ATL@@QEAA@PEB_W@Z
pdata	ENDS
;	COMDAT pdata
pdata	SEGMENT
$pdata$??__EatlTraceHosting@ATL@@YAXXZ DD imagerel ??__EatlTraceHosting@ATL@@YAXXZ
	DD	imagerel ??__EatlTraceHosting@ATL@@YAXXZ+46
	DD	imagerel $unwind$??__EatlTraceHosting@ATL@@YAXXZ
pdata	ENDS
;	COMDAT pdata
pdata	SEGMENT
$pdata$??0?$CTraceCategoryEx@$0BAA@$0A@@ATL@@QEAA@PEB_W@Z DD imagerel $LN3
	DD	imagerel $LN3+61
	DD	imagerel $unwind$??0?$CTraceCategoryEx@$0BAA@$0A@@ATL@@QEAA@PEB_W@Z
pdata	ENDS
;	COMDAT pdata
pdata	SEGMENT
$pdata$??__EatlTraceDBClient@ATL@@YAXXZ DD imagerel ??__EatlTraceDBClient@ATL@@YAXXZ
	DD	imagerel ??__EatlTraceDBClient@ATL@@YAXXZ+46
	DD	imagerel $unwind$??__EatlTraceDBClient@ATL@@YAXXZ
pdata	ENDS
;	COMDAT pdata
pdata	SEGMENT
$pdata$??0?$CTraceCategoryEx@$0CAA@$0A@@ATL@@QEAA@PEB_W@Z DD imagerel $LN3
	DD	imagerel $LN3+61
	DD	imagerel $unwind$??0?$CTraceCategoryEx@$0CAA@$0A@@ATL@@QEAA@PEB_W@Z
pdata	ENDS
;	COMDAT pdata
pdata	SEGMENT
$pdata$??__EatlTraceDBProvider@ATL@@YAXXZ DD imagerel ??__EatlTraceDBProvider@ATL@@YAXXZ
	DD	imagerel ??__EatlTraceDBProvider@ATL@@YAXXZ+46
	DD	imagerel $unwind$??__EatlTraceDBProvider@ATL@@YAXXZ
pdata	ENDS
;	COMDAT pdata
pdata	SEGMENT
$pdata$??0?$CTraceCategoryEx@$0EAA@$0A@@ATL@@QEAA@PEB_W@Z DD imagerel $LN3
	DD	imagerel $LN3+61
	DD	imagerel $unwind$??0?$CTraceCategoryEx@$0EAA@$0A@@ATL@@QEAA@PEB_W@Z
pdata	ENDS
;	COMDAT pdata
pdata	SEGMENT
$pdata$??__EatlTraceSnapin@ATL@@YAXXZ DD imagerel ??__EatlTraceSnapin@ATL@@YAXXZ
	DD	imagerel ??__EatlTraceSnapin@ATL@@YAXXZ+46
	DD	imagerel $unwind$??__EatlTraceSnapin@ATL@@YAXXZ
pdata	ENDS
;	COMDAT pdata
pdata	SEGMENT
$pdata$??0?$CTraceCategoryEx@$0IAA@$0A@@ATL@@QEAA@PEB_W@Z DD imagerel $LN3
	DD	imagerel $LN3+61
	DD	imagerel $unwind$??0?$CTraceCategoryEx@$0IAA@$0A@@ATL@@QEAA@PEB_W@Z
pdata	ENDS
;	COMDAT pdata
pdata	SEGMENT
$pdata$??__EatlTraceNotImpl@ATL@@YAXXZ DD imagerel ??__EatlTraceNotImpl@ATL@@YAXXZ
	DD	imagerel ??__EatlTraceNotImpl@ATL@@YAXXZ+46
	DD	imagerel $unwind$??__EatlTraceNotImpl@ATL@@YAXXZ
pdata	ENDS
;	COMDAT pdata
pdata	SEGMENT
$pdata$??0?$CTraceCategoryEx@$0BAAA@$0A@@ATL@@QEAA@PEB_W@Z DD imagerel $LN3
	DD	imagerel $LN3+61
	DD	imagerel $unwind$??0?$CTraceCategoryEx@$0BAAA@$0A@@ATL@@QEAA@PEB_W@Z
pdata	ENDS
;	COMDAT pdata
pdata	SEGMENT
$pdata$??__EatlTraceAllocation@ATL@@YAXXZ DD imagerel ??__EatlTraceAllocation@ATL@@YAXXZ
	DD	imagerel ??__EatlTraceAllocation@ATL@@YAXXZ+46
	DD	imagerel $unwind$??__EatlTraceAllocation@ATL@@YAXXZ
pdata	ENDS
;	COMDAT pdata
pdata	SEGMENT
$pdata$??0?$CTraceCategoryEx@$0CAAA@$0A@@ATL@@QEAA@PEB_W@Z DD imagerel $LN3
	DD	imagerel $LN3+61
	DD	imagerel $unwind$??0?$CTraceCategoryEx@$0CAAA@$0A@@ATL@@QEAA@PEB_W@Z
pdata	ENDS
;	COMDAT pdata
pdata	SEGMENT
$pdata$??B?$CTraceCategoryEx@$0CAAA@$0A@@ATL@@QEAAIXZ DD imagerel $LN3
	DD	imagerel $LN3+13
	DD	imagerel $unwind$??B?$CTraceCategoryEx@$0CAAA@$0A@@ATL@@QEAAIXZ
pdata	ENDS
;	COMDAT pdata
pdata	SEGMENT
$pdata$??__EatlTraceException@ATL@@YAXXZ DD imagerel ??__EatlTraceException@ATL@@YAXXZ
	DD	imagerel ??__EatlTraceException@ATL@@YAXXZ+46
	DD	imagerel $unwind$??__EatlTraceException@ATL@@YAXXZ
pdata	ENDS
;	COMDAT pdata
pdata	SEGMENT
$pdata$??0?$CTraceCategoryEx@$0EAAA@$0A@@ATL@@QEAA@PEB_W@Z DD imagerel $LN3
	DD	imagerel $LN3+61
	DD	imagerel $unwind$??0?$CTraceCategoryEx@$0EAAA@$0A@@ATL@@QEAA@PEB_W@Z
pdata	ENDS
;	COMDAT pdata
pdata	SEGMENT
$pdata$??__EatlTraceTime@ATL@@YAXXZ DD imagerel ??__EatlTraceTime@ATL@@YAXXZ
	DD	imagerel ??__EatlTraceTime@ATL@@YAXXZ+46
	DD	imagerel $unwind$??__EatlTraceTime@ATL@@YAXXZ
pdata	ENDS
;	COMDAT pdata
pdata	SEGMENT
$pdata$??0?$CTraceCategoryEx@$0IAAA@$0A@@ATL@@QEAA@PEB_W@Z DD imagerel $LN3
	DD	imagerel $LN3+61
	DD	imagerel $unwind$??0?$CTraceCategoryEx@$0IAAA@$0A@@ATL@@QEAA@PEB_W@Z
pdata	ENDS
;	COMDAT pdata
pdata	SEGMENT
$pdata$??__EatlTraceCache@ATL@@YAXXZ DD imagerel ??__EatlTraceCache@ATL@@YAXXZ
	DD	imagerel ??__EatlTraceCache@ATL@@YAXXZ+46
	DD	imagerel $unwind$??__EatlTraceCache@ATL@@YAXXZ
pdata	ENDS
;	COMDAT pdata
pdata	SEGMENT
$pdata$??0?$CTraceCategoryEx@$0BAAAA@$0A@@ATL@@QEAA@PEB_W@Z DD imagerel $LN3
	DD	imagerel $LN3+61
	DD	imagerel $unwind$??0?$CTraceCategoryEx@$0BAAAA@$0A@@ATL@@QEAA@PEB_W@Z
pdata	ENDS
;	COMDAT pdata
pdata	SEGMENT
$pdata$??__EatlTraceStencil@ATL@@YAXXZ DD imagerel ??__EatlTraceStencil@ATL@@YAXXZ
	DD	imagerel ??__EatlTraceStencil@ATL@@YAXXZ+46
	DD	imagerel $unwind$??__EatlTraceStencil@ATL@@YAXXZ
pdata	ENDS
;	COMDAT pdata
pdata	SEGMENT
$pdata$??0?$CTraceCategoryEx@$0CAAAA@$0A@@ATL@@QEAA@PEB_W@Z DD imagerel $LN3
	DD	imagerel $LN3+61
	DD	imagerel $unwind$??0?$CTraceCategoryEx@$0CAAAA@$0A@@ATL@@QEAA@PEB_W@Z
pdata	ENDS
;	COMDAT pdata
pdata	SEGMENT
$pdata$??__EatlTraceString@ATL@@YAXXZ DD imagerel ??__EatlTraceString@ATL@@YAXXZ
	DD	imagerel ??__EatlTraceString@ATL@@YAXXZ+46
	DD	imagerel $unwind$??__EatlTraceString@ATL@@YAXXZ
pdata	ENDS
;	COMDAT pdata
pdata	SEGMENT
$pdata$??0?$CTraceCategoryEx@$0EAAAA@$0A@@ATL@@QEAA@PEB_W@Z DD imagerel $LN3
	DD	imagerel $LN3+61
	DD	imagerel $unwind$??0?$CTraceCategoryEx@$0EAAAA@$0A@@ATL@@QEAA@PEB_W@Z
pdata	ENDS
;	COMDAT pdata
pdata	SEGMENT
$pdata$??__EatlTraceMap@ATL@@YAXXZ DD imagerel ??__EatlTraceMap@ATL@@YAXXZ
	DD	imagerel ??__EatlTraceMap@ATL@@YAXXZ+46
	DD	imagerel $unwind$??__EatlTraceMap@ATL@@YAXXZ
pdata	ENDS
;	COMDAT pdata
pdata	SEGMENT
$pdata$??__EatlTraceUtil@ATL@@YAXXZ DD imagerel ??__EatlTraceUtil@ATL@@YAXXZ
	DD	imagerel ??__EatlTraceUtil@ATL@@YAXXZ+46
	DD	imagerel $unwind$??__EatlTraceUtil@ATL@@YAXXZ
pdata	ENDS
;	COMDAT pdata
pdata	SEGMENT
$pdata$??0?$CTraceCategoryEx@$0BAAAAA@$0A@@ATL@@QEAA@PEB_W@Z DD imagerel $LN3
	DD	imagerel $LN3+61
	DD	imagerel $unwind$??0?$CTraceCategoryEx@$0BAAAAA@$0A@@ATL@@QEAA@PEB_W@Z
pdata	ENDS
;	COMDAT pdata
pdata	SEGMENT
$pdata$??__EatlTraceSecurity@ATL@@YAXXZ DD imagerel ??__EatlTraceSecurity@ATL@@YAXXZ
	DD	imagerel ??__EatlTraceSecurity@ATL@@YAXXZ+46
	DD	imagerel $unwind$??__EatlTraceSecurity@ATL@@YAXXZ
pdata	ENDS
;	COMDAT pdata
pdata	SEGMENT
$pdata$??0?$CTraceCategoryEx@$0CAAAAA@$0A@@ATL@@QEAA@PEB_W@Z DD imagerel $LN3
	DD	imagerel $LN3+61
	DD	imagerel $unwind$??0?$CTraceCategoryEx@$0CAAAAA@$0A@@ATL@@QEAA@PEB_W@Z
pdata	ENDS
;	COMDAT pdata
pdata	SEGMENT
$pdata$??__EatlTraceSync@ATL@@YAXXZ DD imagerel ??__EatlTraceSync@ATL@@YAXXZ
	DD	imagerel ??__EatlTraceSync@ATL@@YAXXZ+46
	DD	imagerel $unwind$??__EatlTraceSync@ATL@@YAXXZ
pdata	ENDS
;	COMDAT pdata
pdata	SEGMENT
$pdata$??0?$CTraceCategoryEx@$0EAAAAA@$0A@@ATL@@QEAA@PEB_W@Z DD imagerel $LN3
	DD	imagerel $LN3+61
	DD	imagerel $unwind$??0?$CTraceCategoryEx@$0EAAAAA@$0A@@ATL@@QEAA@PEB_W@Z
pdata	ENDS
;	COMDAT pdata
pdata	SEGMENT
$pdata$??__EatlTraceISAPI@ATL@@YAXXZ DD imagerel ??__EatlTraceISAPI@ATL@@YAXXZ
	DD	imagerel ??__EatlTraceISAPI@ATL@@YAXXZ+46
	DD	imagerel $unwind$??__EatlTraceISAPI@ATL@@YAXXZ
pdata	ENDS
;	COMDAT pdata
pdata	SEGMENT
$pdata$?GetCategoryName@CTrace@ATL@@CAPEA_WI@Z DD imagerel $LN7
	DD	imagerel $LN7+116
	DD	imagerel $unwind$?GetCategoryName@CTrace@ATL@@CAPEA_WI@Z
pdata	ENDS
;	COMDAT pdata
pdata	SEGMENT
$pdata$?TraceV@CTrace@ATL@@CAXPEBDHIIPEB_W@Z DD imagerel $LN12
	DD	imagerel $LN12+682
	DD	imagerel $unwind$?TraceV@CTrace@ATL@@CAXPEBDHIIPEB_W@Z
pdata	ENDS
;	COMDAT pdata
pdata	SEGMENT
$pdata$?TraceV@CTrace@ATL@@SAXPEBDHIIPEB_WPEAD@Z DD imagerel $LN6
	DD	imagerel $LN6+429
	DD	imagerel $unwind$?TraceV@CTrace@ATL@@SAXPEBDHIIPEB_WPEAD@Z
pdata	ENDS
;	COMDAT pdata
pdata	SEGMENT
$pdata$?RegisterCategory@CTrace@ATL@@SAXPEB_WI@Z DD imagerel $LN6
	DD	imagerel $LN6+212
	DD	imagerel $unwind$?RegisterCategory@CTrace@ATL@@SAXPEB_WI@Z
pdata	ENDS
;	COMDAT pdata
pdata	SEGMENT
$pdata$??0?$CHeapPtrBase@_WVCCRTAllocator@ATL@@@ATL@@IEAA@XZ DD imagerel $LN3
	DD	imagerel $LN3+25
	DD	imagerel $unwind$??0?$CHeapPtrBase@_WVCCRTAllocator@ATL@@@ATL@@IEAA@XZ
pdata	ENDS
;	COMDAT pdata
pdata	SEGMENT
$pdata$??1?$CHeapPtrBase@_WVCCRTAllocator@ATL@@@ATL@@QEAA@XZ DD imagerel $LN3
	DD	imagerel $LN3+46
	DD	imagerel $unwind$??1?$CHeapPtrBase@_WVCCRTAllocator@ATL@@@ATL@@QEAA@XZ
pdata	ENDS
;	COMDAT pdata
pdata	SEGMENT
$pdata$??B?$CHeapPtrBase@_WVCCRTAllocator@ATL@@@ATL@@QEBAPEA_WXZ DD imagerel $LN3
	DD	imagerel $LN3+16
	DD	imagerel $unwind$??B?$CHeapPtrBase@_WVCCRTAllocator@ATL@@@ATL@@QEBAPEA_WXZ
pdata	ENDS
;	COMDAT pdata
pdata	SEGMENT
$pdata$?AllocateBytes@?$CHeapPtrBase@_WVCCRTAllocator@ATL@@@ATL@@QEAA_N_K@Z DD imagerel $LN5
	DD	imagerel $LN5+145
	DD	imagerel $unwind$?AllocateBytes@?$CHeapPtrBase@_WVCCRTAllocator@ATL@@@ATL@@QEAA_N_K@Z
pdata	ENDS
;	COMDAT pdata
pdata	SEGMENT
$pdata$?Free@?$CHeapPtrBase@_WVCCRTAllocator@ATL@@@ATL@@QEAAXXZ DD imagerel $LN3
	DD	imagerel $LN3+61
	DD	imagerel $unwind$?Free@?$CHeapPtrBase@_WVCCRTAllocator@ATL@@@ATL@@QEAAXXZ
pdata	ENDS
;	COMDAT pdata
pdata	SEGMENT
$pdata$??0?$CHeapPtr@_WVCCRTAllocator@ATL@@@ATL@@QEAA@XZ DD imagerel $LN3
	DD	imagerel $LN3+51
	DD	imagerel $unwind$??0?$CHeapPtr@_WVCCRTAllocator@ATL@@@ATL@@QEAA@XZ
pdata	ENDS
;	COMDAT pdata
pdata	SEGMENT
$pdata$?Allocate@?$CHeapPtr@_WVCCRTAllocator@ATL@@@ATL@@QEAA_N_K@Z DD imagerel $LN4
	DD	imagerel $LN4+115
	DD	imagerel $unwind$?Allocate@?$CHeapPtr@_WVCCRTAllocator@ATL@@@ATL@@QEAA_N_K@Z
pdata	ENDS
;	COMDAT pdata
pdata	SEGMENT
$pdata$??1?$CHeapPtr@_WVCCRTAllocator@ATL@@@ATL@@QEAA@XZ DD imagerel $LN3
	DD	imagerel $LN3+46
	DD	imagerel $unwind$??1?$CHeapPtr@_WVCCRTAllocator@ATL@@@ATL@@QEAA@XZ
pdata	ENDS
;	COMDAT pdata
pdata	SEGMENT
$pdata$??0CPreserveLastError@ATL@@QEAA@XZ DD imagerel $LN3
	DD	imagerel $LN3+54
	DD	imagerel $unwind$??0CPreserveLastError@ATL@@QEAA@XZ
pdata	ENDS
;	COMDAT pdata
pdata	SEGMENT
$pdata$??1CPreserveLastError@ATL@@QEAA@XZ DD imagerel $LN3
	DD	imagerel $LN3+49
	DD	imagerel $unwind$??1CPreserveLastError@ATL@@QEAA@XZ
pdata	ENDS
;	COMDAT pdata
pdata	SEGMENT
$pdata$??0CTraceFileAndLineInfo@ATL@@QEAA@PEBDH@Z DD imagerel $LN3
	DD	imagerel $LN3+48
	DD	imagerel $unwind$??0CTraceFileAndLineInfo@ATL@@QEAA@PEBDH@Z
pdata	ENDS
;	COMDAT pdata
pdata	SEGMENT
$pdata$??RCTraceFileAndLineInfo@ATL@@QEBAXHIPEB_WZZ DD imagerel $LN3
	DD	imagerel $LN3+176
	DD	imagerel $unwind$??RCTraceFileAndLineInfo@ATL@@QEBAXHIPEB_WZZ
pdata	ENDS
;	COMDAT pdata
pdata	SEGMENT
$pdata$?_AtlRaiseException@ATL@@YAXKK@Z DD imagerel $LN3
	DD	imagerel $LN3+58
	DD	imagerel $unwind$?_AtlRaiseException@ATL@@YAXKK@Z
pdata	ENDS
;	COMDAT pdata
pdata	SEGMENT
$pdata$?_AtlInitializeCriticalSectionEx@ATL@@YAHPEAU_RTL_CRITICAL_SECTION@@KK@Z DD imagerel $LN3
	DD	imagerel $LN3+65
	DD	imagerel $unwind$?_AtlInitializeCriticalSectionEx@ATL@@YAHPEAU_RTL_CRITICAL_SECTION@@KK@Z
pdata	ENDS
;	COMDAT pdata
pdata	SEGMENT
$pdata$??0CComCriticalSection@ATL@@QEAA@XZ DD imagerel $LN3
	DD	imagerel $LN3+62
	DD	imagerel $unwind$??0CComCriticalSection@ATL@@QEAA@XZ
pdata	ENDS
;	COMDAT pdata
pdata	SEGMENT
$pdata$??1CComCriticalSection@ATL@@QEAA@XZ DD imagerel $LN3
	DD	imagerel $LN3+8
	DD	imagerel $unwind$??1CComCriticalSection@ATL@@QEAA@XZ
pdata	ENDS
;	COMDAT pdata
pdata	SEGMENT
$pdata$?Init@CComCriticalSection@ATL@@QEAAJXZ DD imagerel $LN4
	DD	imagerel $LN4+87
	DD	imagerel $unwind$?Init@CComCriticalSection@ATL@@QEAAJXZ
pdata	ENDS
;	COMDAT pdata
pdata	SEGMENT
$pdata$?Term@CComCriticalSection@ATL@@QEAAJXZ DD imagerel $LN3
	DD	imagerel $LN3+52
	DD	imagerel $unwind$?Term@CComCriticalSection@ATL@@QEAAJXZ
pdata	ENDS
;	COMDAT pdata
pdata	SEGMENT
$pdata$?GetModuleInstance@CAtlBaseModule@ATL@@QEAAPEAUHINSTANCE__@@XZ DD imagerel $LN3
	DD	imagerel $LN3+17
	DD	imagerel $unwind$?GetModuleInstance@CAtlBaseModule@ATL@@QEAAPEAUHINSTANCE__@@XZ
pdata	ENDS
;	COMDAT pdata
pdata	SEGMENT
$pdata$??0IEnumConnections@@QEAA@XZ DD imagerel $LN3
	DD	imagerel $LN3+51
	DD	imagerel $unwind$??0IEnumConnections@@QEAA@XZ
pdata	ENDS
;	COMDAT pdata
pdata	SEGMENT
$pdata$??0IConnectionPointContainer@@QEAA@XZ DD imagerel $LN3
	DD	imagerel $LN3+51
	DD	imagerel $unwind$??0IConnectionPointContainer@@QEAA@XZ
pdata	ENDS
;	COMDAT pdata
pdata	SEGMENT
$pdata$??0IProvideClassInfo@@QEAA@XZ DD imagerel $LN3
	DD	imagerel $LN3+51
	DD	imagerel $unwind$??0IProvideClassInfo@@QEAA@XZ
pdata	ENDS
;	COMDAT pdata
pdata	SEGMENT
$pdata$??0IProvideClassInfo2@@QEAA@XZ DD imagerel $LN3
	DD	imagerel $LN3+51
	DD	imagerel $unwind$??0IProvideClassInfo2@@QEAA@XZ
pdata	ENDS
;	COMDAT pdata
pdata	SEGMENT
$pdata$??0IOleControl@@QEAA@XZ DD imagerel $LN3
	DD	imagerel $LN3+51
	DD	imagerel $unwind$??0IOleControl@@QEAA@XZ
pdata	ENDS
;	COMDAT pdata
pdata	SEGMENT
$pdata$??0ISpecifyPropertyPages@@QEAA@XZ DD imagerel $LN3
	DD	imagerel $LN3+51
	DD	imagerel $unwind$??0ISpecifyPropertyPages@@QEAA@XZ
pdata	ENDS
;	COMDAT pdata
pdata	SEGMENT
$pdata$??0IPersistStreamInit@@QEAA@XZ DD imagerel $LN3
	DD	imagerel $LN3+51
	DD	imagerel $unwind$??0IPersistStreamInit@@QEAA@XZ
pdata	ENDS
;	COMDAT pdata
pdata	SEGMENT
$pdata$??0IOleInPlaceObjectWindowless@@QEAA@XZ DD imagerel $LN3
	DD	imagerel $LN3+51
	DD	imagerel $unwind$??0IOleInPlaceObjectWindowless@@QEAA@XZ
pdata	ENDS
;	COMDAT pdata
pdata	SEGMENT
$pdata$??0IViewObjectEx@@QEAA@XZ DD imagerel $LN3
	DD	imagerel $LN3+51
	DD	imagerel $unwind$??0IViewObjectEx@@QEAA@XZ
pdata	ENDS
;	COMDAT pdata
pdata	SEGMENT
$pdata$??0IQuickActivate@@QEAA@XZ DD imagerel $LN3
	DD	imagerel $LN3+51
	DD	imagerel $unwind$??0IQuickActivate@@QEAA@XZ
pdata	ENDS
;	COMDAT pdata
pdata	SEGMENT
$pdata$??0?$CComPtrBase@UIDispatch@@@ATL@@IEAA@XZ DD imagerel $LN3
	DD	imagerel $LN3+25
	DD	imagerel $unwind$??0?$CComPtrBase@UIDispatch@@@ATL@@IEAA@XZ
pdata	ENDS
;	COMDAT pdata
pdata	SEGMENT
$pdata$??1?$CComPtrBase@UIDispatch@@@ATL@@QEAA@XZ DD imagerel $LN4
	DD	imagerel $LN4+69
	DD	imagerel $unwind$??1?$CComPtrBase@UIDispatch@@@ATL@@QEAA@XZ
pdata	ENDS
;	COMDAT pdata
pdata	SEGMENT
$pdata$??0?$CComPtr@UIDispatch@@@ATL@@QEAA@XZ DD imagerel $LN3
	DD	imagerel $LN3+51
	DD	imagerel $unwind$??0?$CComPtr@UIDispatch@@@ATL@@QEAA@XZ
pdata	ENDS
;	COMDAT pdata
pdata	SEGMENT
$pdata$??1?$CComPtr@UIDispatch@@@ATL@@QEAA@XZ DD imagerel $LN3
	DD	imagerel $LN3+46
	DD	imagerel $unwind$??1?$CComPtr@UIDispatch@@@ATL@@QEAA@XZ
pdata	ENDS
;	COMDAT pdata
pdata	SEGMENT
$pdata$??0?$CComPtrBase@UIUnknown@@@ATL@@IEAA@XZ DD imagerel $LN3
	DD	imagerel $LN3+25
	DD	imagerel $unwind$??0?$CComPtrBase@UIUnknown@@@ATL@@IEAA@XZ
pdata	ENDS
;	COMDAT pdata
pdata	SEGMENT
$pdata$??0?$CComPtrBase@UIUnknown@@@ATL@@IEAA@PEAUIUnknown@@@Z DD imagerel $LN4
	DD	imagerel $LN4+92
	DD	imagerel $unwind$??0?$CComPtrBase@UIUnknown@@@ATL@@IEAA@PEAUIUnknown@@@Z
pdata	ENDS
;	COMDAT pdata
pdata	SEGMENT
$pdata$?Swap@?$CComPtrBase@UIUnknown@@@ATL@@IEAAXAEAV12@@Z DD imagerel $LN3
	DD	imagerel $LN3+81
	DD	imagerel $unwind$?Swap@?$CComPtrBase@UIUnknown@@@ATL@@IEAAXAEAV12@@Z
pdata	ENDS
;	COMDAT pdata
pdata	SEGMENT
$pdata$??1?$CComPtrBase@UIUnknown@@@ATL@@QEAA@XZ DD imagerel $LN4
	DD	imagerel $LN4+69
	DD	imagerel $unwind$??1?$CComPtrBase@UIUnknown@@@ATL@@QEAA@XZ
pdata	ENDS
;	COMDAT pdata
pdata	SEGMENT
$pdata$??B?$CComPtrBase@UIUnknown@@@ATL@@QEBAPEAUIUnknown@@XZ DD imagerel $LN3
	DD	imagerel $LN3+16
	DD	imagerel $unwind$??B?$CComPtrBase@UIUnknown@@@ATL@@QEBAPEAUIUnknown@@XZ
pdata	ENDS
;	COMDAT pdata
pdata	SEGMENT
$pdata$??0?$CComPtr@UIUnknown@@@ATL@@QEAA@XZ DD imagerel $LN3
	DD	imagerel $LN3+51
	DD	imagerel $unwind$??0?$CComPtr@UIUnknown@@@ATL@@QEAA@XZ
pdata	ENDS
;	COMDAT pdata
pdata	SEGMENT
$pdata$??0?$CComPtr@UIUnknown@@@ATL@@QEAA@PEAUIUnknown@@@Z DD imagerel $LN3
	DD	imagerel $LN3+61
	DD	imagerel $unwind$??0?$CComPtr@UIUnknown@@@ATL@@QEAA@PEAUIUnknown@@@Z
pdata	ENDS
;	COMDAT pdata
pdata	SEGMENT
$pdata$??0?$CComPtr@UIUnknown@@@ATL@@QEAA@AEBV01@@Z DD imagerel $LN3
	DD	imagerel $LN3+64
	DD	imagerel $unwind$??0?$CComPtr@UIUnknown@@@ATL@@QEAA@AEBV01@@Z
pdata	ENDS
;	COMDAT pdata
pdata	SEGMENT
$pdata$??4?$CComPtr@UIUnknown@@@ATL@@QEAAPEAUIUnknown@@PEAU2@@Z DD imagerel $LN4
	DD	imagerel $LN4+104
	DD	imagerel $unwind$??4?$CComPtr@UIUnknown@@@ATL@@QEAAPEAUIUnknown@@PEAU2@@Z
pdata	ENDS
;	COMDAT pdata
pdata	SEGMENT
$pdata$??1?$CComPtr@UIUnknown@@@ATL@@QEAA@XZ DD imagerel $LN3
	DD	imagerel $LN3+46
	DD	imagerel $unwind$??1?$CComPtr@UIUnknown@@@ATL@@QEAA@XZ
pdata	ENDS
;	COMDAT pdata
pdata	SEGMENT
$pdata$??1CComBSTR@ATL@@QEAA@XZ DD imagerel $LN3
	DD	imagerel $LN3+50
	DD	imagerel $unwind$??1CComBSTR@ATL@@QEAA@XZ
pdata	ENDS
;	COMDAT pdata
pdata	SEGMENT
$pdata$?Increment@CComSingleThreadModel@ATL@@SAKPEAJ@Z DD imagerel $LN3
	DD	imagerel $LN3+31
	DD	imagerel $unwind$?Increment@CComSingleThreadModel@ATL@@SAKPEAJ@Z
pdata	ENDS
;	COMDAT pdata
pdata	SEGMENT
$pdata$?Decrement@CComSingleThreadModel@ATL@@SAKPEAJ@Z DD imagerel $LN3
	DD	imagerel $LN3+31
	DD	imagerel $unwind$?Decrement@CComSingleThreadModel@ATL@@SAKPEAJ@Z
pdata	ENDS
;	COMDAT pdata
pdata	SEGMENT
$pdata$??0_ATL_COM_MODULE70@ATL@@QEAA@XZ DD imagerel $LN3
	DD	imagerel $LN3+58
	DD	imagerel $unwind$??0_ATL_COM_MODULE70@ATL@@QEAA@XZ
pdata	ENDS
;	COMDAT pdata
pdata	SEGMENT
$pdata$??1_ATL_COM_MODULE70@ATL@@QEAA@XZ DD imagerel $LN3
	DD	imagerel $LN3+53
	DD	imagerel $unwind$??1_ATL_COM_MODULE70@ATL@@QEAA@XZ
pdata	ENDS
;	COMDAT pdata
pdata	SEGMENT
$pdata$??0?$CSimpleArray@GV?$CSimpleArrayEqualHelper@G@ATL@@@ATL@@QEAA@XZ DD imagerel $LN3
	DD	imagerel $LN3+49
	DD	imagerel $unwind$??0?$CSimpleArray@GV?$CSimpleArrayEqualHelper@G@ATL@@@ATL@@QEAA@XZ
pdata	ENDS
;	COMDAT pdata
pdata	SEGMENT
$pdata$??1?$CSimpleArray@GV?$CSimpleArrayEqualHelper@G@ATL@@@ATL@@QEAA@XZ DD imagerel $LN3
	DD	imagerel $LN3+46
	DD	imagerel $unwind$??1?$CSimpleArray@GV?$CSimpleArrayEqualHelper@G@ATL@@@ATL@@QEAA@XZ
pdata	ENDS
;	COMDAT pdata
pdata	SEGMENT
$pdata$?GetSize@?$CSimpleArray@GV?$CSimpleArrayEqualHelper@G@ATL@@@ATL@@QEBAHXZ DD imagerel $LN3
	DD	imagerel $LN3+16
	DD	imagerel $unwind$?GetSize@?$CSimpleArray@GV?$CSimpleArrayEqualHelper@G@ATL@@@ATL@@QEBAHXZ
pdata	ENDS
;	COMDAT pdata
pdata	SEGMENT
$pdata$?RemoveAll@?$CSimpleArray@GV?$CSimpleArrayEqualHelper@G@ATL@@@ATL@@QEAAXXZ DD imagerel $LN7
	DD	imagerel $LN7+132
	DD	imagerel $unwind$?RemoveAll@?$CSimpleArray@GV?$CSimpleArrayEqualHelper@G@ATL@@@ATL@@QEAAXXZ
pdata	ENDS
;	COMDAT pdata
pdata	SEGMENT
$pdata$??A?$CSimpleArray@GV?$CSimpleArrayEqualHelper@G@ATL@@@ATL@@QEAAAEAGH@Z DD imagerel $LN7
	DD	imagerel $LN7+172
	DD	imagerel $unwind$??A?$CSimpleArray@GV?$CSimpleArrayEqualHelper@G@ATL@@@ATL@@QEAAAEAGH@Z
pdata	ENDS
;	COMDAT pdata
pdata	SEGMENT
$pdata$??0_ATL_WIN_MODULE70@ATL@@QEAA@XZ DD imagerel $LN3
	DD	imagerel $LN3+75
	DD	imagerel $unwind$??0_ATL_WIN_MODULE70@ATL@@QEAA@XZ
pdata	ENDS
;	COMDAT pdata
pdata	SEGMENT
$pdata$??1_ATL_WIN_MODULE70@ATL@@QEAA@XZ DD imagerel $LN3
	DD	imagerel $LN3+70
	DD	imagerel $unwind$??1_ATL_WIN_MODULE70@ATL@@QEAA@XZ
pdata	ENDS
;	COMDAT pdata
pdata	SEGMENT
$pdata$?AtlInternalQueryInterface@ATL@@YAJPEAXPEBU_ATL_INTMAP_ENTRY@1@AEBU_GUID@@PEAPEAX@Z DD imagerel $LN22
	DD	imagerel $LN22+702
	DD	imagerel $unwind$?AtlInternalQueryInterface@ATL@@YAJPEAXPEBU_ATL_INTMAP_ENTRY@1@AEBU_GUID@@PEAPEAX@Z
pdata	ENDS
;	COMDAT pdata
pdata	SEGMENT
$pdata$?AtlWinModuleInit@ATL@@YAJPEAU_ATL_WIN_MODULE70@1@@Z DD imagerel $LN7
	DD	imagerel $LN7+249
	DD	imagerel $unwind$?AtlWinModuleInit@ATL@@YAJPEAU_ATL_WIN_MODULE70@1@@Z
pdata	ENDS
;	COMDAT pdata
pdata	SEGMENT
$pdata$?AtlWinModuleTerm@ATL@@YAJPEAU_ATL_WIN_MODULE70@1@PEAUHINSTANCE__@@@Z DD imagerel $LN9
	DD	imagerel $LN9+228
	DD	imagerel $unwind$?AtlWinModuleTerm@ATL@@YAJPEAU_ATL_WIN_MODULE70@1@PEAUHINSTANCE__@@@Z
pdata	ENDS
;	COMDAT pdata
pdata	SEGMENT
$pdata$?InlineIsEqualUnknown@ATL@@YAHAEBU_GUID@@@Z DD imagerel $LN5
	DD	imagerel $LN5+141
	DD	imagerel $unwind$?InlineIsEqualUnknown@ATL@@YAHAEBU_GUID@@@Z
pdata	ENDS
;	COMDAT pdata
pdata	SEGMENT
$pdata$??0CAtlComModule@ATL@@QEAA@XZ DD imagerel $LN5
	DD	imagerel $LN5+286
	DD	imagerel $unwind$??0CAtlComModule@ATL@@QEAA@XZ
pdata	ENDS
;	COMDAT pdata
pdata	SEGMENT
$pdata$??1CAtlComModule@ATL@@QEAA@XZ DD imagerel $LN3
	DD	imagerel $LN3+56
	DD	imagerel $unwind$??1CAtlComModule@ATL@@QEAA@XZ
pdata	ENDS
;	COMDAT pdata
pdata	SEGMENT
$pdata$?Term@CAtlComModule@ATL@@QEAAXXZ DD imagerel $LN9
	DD	imagerel $LN9+213
	DD	imagerel $unwind$?Term@CAtlComModule@ATL@@QEAAXXZ
pdata	ENDS
;	COMDAT pdata
pdata	SEGMENT
$pdata$??__E_AtlComModule@ATL@@YAXXZ DD imagerel ??__E_AtlComModule@ATL@@YAXXZ
	DD	imagerel ??__E_AtlComModule@ATL@@YAXXZ+51
	DD	imagerel $unwind$??__E_AtlComModule@ATL@@YAXXZ
pdata	ENDS
;	COMDAT pdata
pdata	SEGMENT
$pdata$??__F_AtlComModule@ATL@@YAXXZ DD imagerel ??__F_AtlComModule@ATL@@YAXXZ
	DD	imagerel ??__F_AtlComModule@ATL@@YAXXZ+39
	DD	imagerel $unwind$??__F_AtlComModule@ATL@@YAXXZ
pdata	ENDS
;	COMDAT pdata
pdata	SEGMENT
$pdata$??0CAtlWinModule@ATL@@QEAA@XZ DD imagerel $LN5
	DD	imagerel $LN5+165
	DD	imagerel $unwind$??0CAtlWinModule@ATL@@QEAA@XZ
pdata	ENDS
;	COMDAT pdata
pdata	SEGMENT
$pdata$??1CAtlWinModule@ATL@@QEAA@XZ DD imagerel $LN3
	DD	imagerel $LN3+56
	DD	imagerel $unwind$??1CAtlWinModule@ATL@@QEAA@XZ
pdata	ENDS
;	COMDAT pdata
pdata	SEGMENT
$pdata$?Term@CAtlWinModule@ATL@@QEAAXXZ DD imagerel $LN3
	DD	imagerel $LN3+61
	DD	imagerel $unwind$?Term@CAtlWinModule@ATL@@QEAAXXZ
pdata	ENDS
;	COMDAT pdata
pdata	SEGMENT
$pdata$??__E_AtlWinModule@ATL@@YAXXZ DD imagerel ??__E_AtlWinModule@ATL@@YAXXZ
	DD	imagerel ??__E_AtlWinModule@ATL@@YAXXZ+51
	DD	imagerel $unwind$??__E_AtlWinModule@ATL@@YAXXZ
pdata	ENDS
;	COMDAT pdata
pdata	SEGMENT
$pdata$??__F_AtlWinModule@ATL@@YAXXZ DD imagerel ??__F_AtlWinModule@ATL@@YAXXZ
	DD	imagerel ??__F_AtlWinModule@ATL@@YAXXZ+39
	DD	imagerel $unwind$??__F_AtlWinModule@ATL@@YAXXZ
pdata	ENDS
;	COMDAT pdata
pdata	SEGMENT
$pdata$?GetModuleInstance@CComModule@ATL@@QEAAPEAUHINSTANCE__@@XZ DD imagerel $LN3
	DD	imagerel $LN3+15
	DD	imagerel $unwind$?GetModuleInstance@CComModule@ATL@@QEAAPEAUHINSTANCE__@@XZ
pdata	ENDS
;	COMDAT pdata
pdata	SEGMENT
$pdata$??0CDynamicStdCallThunk2@ATL@@QEAA@XZ DD imagerel $LN3
	DD	imagerel $LN3+25
	DD	imagerel $unwind$??0CDynamicStdCallThunk2@ATL@@QEAA@XZ
pdata	ENDS
;	COMDAT pdata
pdata	SEGMENT
$pdata$??1CDynamicStdCallThunk2@ATL@@QEAA@XZ DD imagerel $LN4
	DD	imagerel $LN4+60
	DD	imagerel $unwind$??1CDynamicStdCallThunk2@ATL@@QEAA@XZ
pdata	ENDS
;	COMDAT pdata
pdata	SEGMENT
$pdata$??0CComObjectRootBase@ATL@@QEAA@XZ DD imagerel $LN3
	DD	imagerel $LN3+24
	DD	imagerel $unwind$??0CComObjectRootBase@ATL@@QEAA@XZ
pdata	ENDS
;	COMDAT pdata
pdata	SEGMENT
$pdata$??1CComObjectRootBase@ATL@@QEAA@XZ DD imagerel $LN3
	DD	imagerel $LN3+8
	DD	imagerel $unwind$??1CComObjectRootBase@ATL@@QEAA@XZ
pdata	ENDS
;	COMDAT pdata
pdata	SEGMENT
$pdata$?FinalConstruct@CComObjectRootBase@ATL@@QEAAJXZ DD imagerel $LN3
	DD	imagerel $LN3+10
	DD	imagerel $unwind$?FinalConstruct@CComObjectRootBase@ATL@@QEAAJXZ
pdata	ENDS
;	COMDAT pdata
pdata	SEGMENT
$pdata$?_AtlFinalConstruct@CComObjectRootBase@ATL@@QEAAJXZ DD imagerel $LN3
	DD	imagerel $LN3+10
	DD	imagerel $unwind$?_AtlFinalConstruct@CComObjectRootBase@ATL@@QEAAJXZ
pdata	ENDS
;	COMDAT pdata
pdata	SEGMENT
$pdata$?FinalRelease@CComObjectRootBase@ATL@@QEAAXXZ DD imagerel $LN3
	DD	imagerel $LN3+8
	DD	imagerel $unwind$?FinalRelease@CComObjectRootBase@ATL@@QEAAXXZ
pdata	ENDS
;	COMDAT pdata
pdata	SEGMENT
$pdata$?InternalQueryInterface@CComObjectRootBase@ATL@@SAJPEAXPEBU_ATL_INTMAP_ENTRY@2@AEBU_GUID@@PEAPEAX@Z DD imagerel $LN6
	DD	imagerel $LN6+286
	DD	imagerel $unwind$?InternalQueryInterface@CComObjectRootBase@ATL@@SAJPEAXPEBU_ATL_INTMAP_ENTRY@2@AEBU_GUID@@PEAPEAX@Z
pdata	ENDS
;	COMDAT pdata
pdata	SEGMENT
$pdata$?SetVoid@CComObjectRootBase@ATL@@QEAAXPEAX@Z DD imagerel $LN3
	DD	imagerel $LN3+13
	DD	imagerel $unwind$?SetVoid@CComObjectRootBase@ATL@@QEAAXPEAX@Z
pdata	ENDS
;	COMDAT pdata
pdata	SEGMENT
$pdata$?InternalFinalConstructAddRef@CComObjectRootBase@ATL@@QEAAXXZ DD imagerel $LN3
	DD	imagerel $LN3+8
	DD	imagerel $unwind$?InternalFinalConstructAddRef@CComObjectRootBase@ATL@@QEAAXXZ
pdata	ENDS
;	COMDAT pdata
pdata	SEGMENT
$pdata$?InternalFinalConstructRelease@CComObjectRootBase@ATL@@QEAAXXZ DD imagerel $LN7
	DD	imagerel $LN7+110
	DD	imagerel $unwind$?InternalFinalConstructRelease@CComObjectRootBase@ATL@@QEAAXXZ
pdata	ENDS
;	COMDAT pdata
pdata	SEGMENT
$pdata$??1?$CComObjectRootEx@VCComSingleThreadModel@ATL@@@ATL@@QEAA@XZ DD imagerel $LN3
	DD	imagerel $LN3+46
	DD	imagerel $unwind$??1?$CComObjectRootEx@VCComSingleThreadModel@ATL@@@ATL@@QEAA@XZ
pdata	ENDS
;	COMDAT pdata
pdata	SEGMENT
$pdata$?InternalAddRef@?$CComObjectRootEx@VCComSingleThreadModel@ATL@@@ATL@@QEAAKXZ DD imagerel $LN7
	DD	imagerel $LN7+120
	DD	imagerel $unwind$?InternalAddRef@?$CComObjectRootEx@VCComSingleThreadModel@ATL@@@ATL@@QEAAKXZ
pdata	ENDS
;	COMDAT pdata
pdata	SEGMENT
$pdata$?InternalRelease@?$CComObjectRootEx@VCComSingleThreadModel@ATL@@@ATL@@QEAAKXZ DD imagerel $LN5
	DD	imagerel $LN5+128
	DD	imagerel $unwind$?InternalRelease@?$CComObjectRootEx@VCComSingleThreadModel@ATL@@@ATL@@QEAAKXZ
pdata	ENDS
;	COMDAT pdata
pdata	SEGMENT
$pdata$?_AtlInitialConstruct@?$CComObjectRootEx@VCComSingleThreadModel@ATL@@@ATL@@QEAAJXZ DD imagerel $LN3
	DD	imagerel $LN3+10
	DD	imagerel $unwind$?_AtlInitialConstruct@?$CComObjectRootEx@VCComSingleThreadModel@ATL@@@ATL@@QEAAJXZ
pdata	ENDS
;	COMDAT pdata
pdata	SEGMENT
$pdata$?Lock@?$CComObjectRootEx@VCComSingleThreadModel@ATL@@@ATL@@QEAAXXZ DD imagerel $LN3
	DD	imagerel $LN3+8
	DD	imagerel $unwind$?Lock@?$CComObjectRootEx@VCComSingleThreadModel@ATL@@@ATL@@QEAAXXZ
pdata	ENDS
;	COMDAT pdata
pdata	SEGMENT
$pdata$?Unlock@?$CComObjectRootEx@VCComSingleThreadModel@ATL@@@ATL@@QEAAXXZ DD imagerel $LN3
	DD	imagerel $LN3+8
	DD	imagerel $unwind$?Unlock@?$CComObjectRootEx@VCComSingleThreadModel@ATL@@@ATL@@QEAAXXZ
pdata	ENDS
;	COMDAT pdata
pdata	SEGMENT
$pdata$??0?$CComObjectRootEx@VCComSingleThreadModel@ATL@@@ATL@@QEAA@XZ DD imagerel $LN3
	DD	imagerel $LN3+51
	DD	imagerel $unwind$??0?$CComObjectRootEx@VCComSingleThreadModel@ATL@@@ATL@@QEAA@XZ
pdata	ENDS
;	COMDAT pdata
pdata	SEGMENT
$pdata$??0ModuleLockHelper@ATL@@QEAA@XZ DD imagerel $LN3
	DD	imagerel $LN3+61
	DD	imagerel $unwind$??0ModuleLockHelper@ATL@@QEAA@XZ
pdata	ENDS
;	COMDAT pdata
pdata	SEGMENT
$pdata$??1ModuleLockHelper@ATL@@QEAA@XZ DD imagerel $LN3
	DD	imagerel $LN3+56
	DD	imagerel $unwind$??1ModuleLockHelper@ATL@@QEAA@XZ
pdata	ENDS
;	COMDAT pdata
pdata	SEGMENT
$pdata$??1stringdispid@CComTypeInfoHolder@ATL@@QEAA@XZ DD imagerel $LN3
	DD	imagerel $LN3+49
	DD	imagerel $unwind$??1stringdispid@CComTypeInfoHolder@ATL@@QEAA@XZ
pdata	ENDS
;	COMDAT pdata
pdata	SEGMENT
$pdata$??_Estringdispid@CComTypeInfoHolder@ATL@@QEAAPEAXI@Z DD imagerel $LN6
	DD	imagerel $LN6+176
	DD	imagerel $unwind$??_Estringdispid@CComTypeInfoHolder@ATL@@QEAAPEAXI@Z
pdata	ENDS
;	COMDAT pdata
pdata	SEGMENT
$pdata$?copy@?$_Copy@UtagCONNECTDATA@@@ATL@@SAJPEAUtagCONNECTDATA@@PEBU3@@Z DD imagerel $LN14
	DD	imagerel $LN14+235
	DD	imagerel $unwind$?copy@?$_Copy@UtagCONNECTDATA@@@ATL@@SAJPEAUtagCONNECTDATA@@PEBU3@@Z
pdata	ENDS
;	COMDAT pdata
pdata	SEGMENT
$pdata$?init@?$_Copy@UtagCONNECTDATA@@@ATL@@SAXPEAUtagCONNECTDATA@@@Z DD imagerel $LN3
	DD	imagerel $LN3+8
	DD	imagerel $unwind$?init@?$_Copy@UtagCONNECTDATA@@@ATL@@SAXPEAUtagCONNECTDATA@@@Z
pdata	ENDS
;	COMDAT pdata
pdata	SEGMENT
$pdata$?destroy@?$_Copy@UtagCONNECTDATA@@@ATL@@SAXPEAUtagCONNECTDATA@@@Z DD imagerel $LN4
	DD	imagerel $LN4+69
	DD	imagerel $unwind$?destroy@?$_Copy@UtagCONNECTDATA@@@ATL@@SAXPEAUtagCONNECTDATA@@@Z
pdata	ENDS
;	COMDAT pdata
pdata	SEGMENT
$pdata$??0CComDynamicUnkArray@ATL@@QEAA@XZ DD imagerel $LN3
	DD	imagerel $LN3+37
	DD	imagerel $unwind$??0CComDynamicUnkArray@ATL@@QEAA@XZ
pdata	ENDS
;	COMDAT pdata
pdata	SEGMENT
$pdata$??1CComDynamicUnkArray@ATL@@QEAA@XZ DD imagerel $LN4
	DD	imagerel $LN4+60
	DD	imagerel $unwind$??1CComDynamicUnkArray@ATL@@QEAA@XZ
pdata	ENDS
;	COMDAT pdata
pdata	SEGMENT
$pdata$?Add@CComDynamicUnkArray@ATL@@QEAAKPEAUIUnknown@@@Z DD imagerel $LN11
	DD	imagerel $LN11+467
	DD	imagerel $unwind$?Add@CComDynamicUnkArray@ATL@@QEAAKPEAUIUnknown@@@Z
pdata	ENDS
;	COMDAT pdata
pdata	SEGMENT
$pdata$?Remove@CComDynamicUnkArray@ATL@@QEAAHK@Z DD imagerel $LN8
	DD	imagerel $LN8+210
	DD	imagerel $unwind$?Remove@CComDynamicUnkArray@ATL@@QEAAHK@Z
pdata	ENDS
;	COMDAT pdata
pdata	SEGMENT
$pdata$?GetCookie@CComDynamicUnkArray@ATL@@QEAAKPEAPEAUIUnknown@@@Z DD imagerel $LN10
	DD	imagerel $LN10+240
	DD	imagerel $unwind$?GetCookie@CComDynamicUnkArray@ATL@@QEAAKPEAPEAUIUnknown@@@Z
pdata	ENDS
;	COMDAT pdata
pdata	SEGMENT
$pdata$?GetUnknown@CComDynamicUnkArray@ATL@@QEAAPEAUIUnknown@@K@Z DD imagerel $LN7
	DD	imagerel $LN7+164
	DD	imagerel $unwind$?GetUnknown@CComDynamicUnkArray@ATL@@QEAAPEAUIUnknown@@K@Z
pdata	ENDS
;	COMDAT pdata
pdata	SEGMENT
$pdata$?begin@CComDynamicUnkArray@ATL@@QEAAPEAPEAUIUnknown@@XZ DD imagerel $LN3
	DD	imagerel $LN3+16
	DD	imagerel $unwind$?begin@CComDynamicUnkArray@ATL@@QEAAPEAPEAUIUnknown@@XZ
pdata	ENDS
;	COMDAT pdata
pdata	SEGMENT
$pdata$?end@CComDynamicUnkArray@ATL@@QEAAPEAPEAUIUnknown@@XZ DD imagerel $LN3
	DD	imagerel $LN3+29
	DD	imagerel $unwind$?end@CComDynamicUnkArray@ATL@@QEAAPEAPEAUIUnknown@@XZ
pdata	ENDS
;	COMDAT pdata
pdata	SEGMENT
$pdata$?GetAt@CComDynamicUnkArray@ATL@@QEAAPEAUIUnknown@@H@Z DD imagerel $LN7
	DD	imagerel $LN7+163
	DD	imagerel $unwind$?GetAt@CComDynamicUnkArray@ATL@@QEAAPEAUIUnknown@@H@Z
pdata	ENDS
;	COMDAT pdata
pdata	SEGMENT
$pdata$?GetSize@CComDynamicUnkArray@ATL@@QEBAHXZ DD imagerel $LN3
	DD	imagerel $LN3+16
	DD	imagerel $unwind$?GetSize@CComDynamicUnkArray@ATL@@QEBAHXZ
pdata	ENDS
;	COMDAT pdata
pdata	SEGMENT
$pdata$??$AtlMultiply@_K@ATL@@YAJPEA_K_K1@Z DD imagerel $LN5
	DD	imagerel $LN5+124
	DD	imagerel $unwind$??$AtlMultiply@_K@ATL@@YAJPEA_K_K1@Z
pdata	ENDS
;	COMDAT pdata
pdata	SEGMENT
$pdata$??0CWindow@ATL@@QEAA@PEAUHWND__@@@Z DD imagerel $LN3
	DD	imagerel $LN3+31
	DD	imagerel $unwind$??0CWindow@ATL@@QEAA@PEAUHWND__@@@Z
pdata	ENDS
;	COMDAT pdata
pdata	SEGMENT
$pdata$??0CWndProcThunk@ATL@@QEAA@XZ DD imagerel $LN3
	DD	imagerel $LN3+58
	DD	imagerel $unwind$??0CWndProcThunk@ATL@@QEAA@XZ
pdata	ENDS
;	COMDAT pdata
pdata	SEGMENT
$pdata$??1CWndProcThunk@ATL@@QEAA@XZ DD imagerel $LN3
	DD	imagerel $LN3+53
	DD	imagerel $unwind$??1CWndProcThunk@ATL@@QEAA@XZ
pdata	ENDS
;	COMDAT pdata
pdata	SEGMENT
$pdata$??0CMessageMap@ATL@@QEAA@XZ DD imagerel $LN3
	DD	imagerel $LN3+13
	DD	imagerel $unwind$??0CMessageMap@ATL@@QEAA@XZ
pdata	ENDS
;	COMDAT pdata
pdata	SEGMENT
$pdata$??0?$CWindowImplRoot@VCWindow@ATL@@@ATL@@QEAA@XZ DD imagerel $LN3
	DD	imagerel $LN3+112
	DD	imagerel $unwind$??0?$CWindowImplRoot@VCWindow@ATL@@@ATL@@QEAA@XZ
pdata	ENDS
;	COMDAT pdata
pdata	SEGMENT
$pdata$??1?$CWindowImplRoot@VCWindow@ATL@@@ATL@@UEAA@XZ DD imagerel $LN5
	DD	imagerel $LN5+192
	DD	imagerel $unwind$??1?$CWindowImplRoot@VCWindow@ATL@@@ATL@@UEAA@XZ
pdata	ENDS
;	COMDAT pdata
pdata	SEGMENT
$pdata$??0?$CWindowImplBaseT@VCWindow@ATL@@V?$CWinTraits@$0FGAAAAAA@$0A@@2@@ATL@@QEAA@XZ DD imagerel $LN3
	DD	imagerel $LN3+67
	DD	imagerel $unwind$??0?$CWindowImplBaseT@VCWindow@ATL@@V?$CWinTraits@$0FGAAAAAA@$0A@@2@@ATL@@QEAA@XZ
pdata	ENDS
;	COMDAT pdata
pdata	SEGMENT
$pdata$??1?$CWindowImplBaseT@VCWindow@ATL@@V?$CWinTraits@$0FGAAAAAA@$0A@@2@@ATL@@UEAA@XZ DD imagerel $LN3
	DD	imagerel $LN3+46
	DD	imagerel $unwind$??1?$CWindowImplBaseT@VCWindow@ATL@@V?$CWinTraits@$0FGAAAAAA@$0A@@2@@ATL@@UEAA@XZ
pdata	ENDS
;	COMDAT pdata
pdata	SEGMENT
$pdata$??0?$CComPtrBase@UIOleClientSite@@@ATL@@IEAA@XZ DD imagerel $LN3
	DD	imagerel $LN3+25
	DD	imagerel $unwind$??0?$CComPtrBase@UIOleClientSite@@@ATL@@IEAA@XZ
pdata	ENDS
;	COMDAT pdata
pdata	SEGMENT
$pdata$??1?$CComPtrBase@UIOleClientSite@@@ATL@@QEAA@XZ DD imagerel $LN4
	DD	imagerel $LN4+69
	DD	imagerel $unwind$??1?$CComPtrBase@UIOleClientSite@@@ATL@@QEAA@XZ
pdata	ENDS
;	COMDAT pdata
pdata	SEGMENT
$pdata$??0?$CComPtr@UIOleClientSite@@@ATL@@QEAA@XZ DD imagerel $LN3
	DD	imagerel $LN3+51
	DD	imagerel $unwind$??0?$CComPtr@UIOleClientSite@@@ATL@@QEAA@XZ
pdata	ENDS
;	COMDAT pdata
pdata	SEGMENT
$pdata$??1?$CComPtr@UIOleClientSite@@@ATL@@QEAA@XZ DD imagerel $LN3
	DD	imagerel $LN3+46
	DD	imagerel $unwind$??1?$CComPtr@UIOleClientSite@@@ATL@@QEAA@XZ
pdata	ENDS
;	COMDAT pdata
pdata	SEGMENT
$pdata$??0?$CComPtrBase@UIAdviseSink@@@ATL@@IEAA@XZ DD imagerel $LN3
	DD	imagerel $LN3+25
	DD	imagerel $unwind$??0?$CComPtrBase@UIAdviseSink@@@ATL@@IEAA@XZ
pdata	ENDS
;	COMDAT pdata
pdata	SEGMENT
$pdata$??1?$CComPtrBase@UIAdviseSink@@@ATL@@QEAA@XZ DD imagerel $LN4
	DD	imagerel $LN4+69
	DD	imagerel $unwind$??1?$CComPtrBase@UIAdviseSink@@@ATL@@QEAA@XZ
pdata	ENDS
;	COMDAT pdata
pdata	SEGMENT
$pdata$??0?$CComPtr@UIAdviseSink@@@ATL@@QEAA@XZ DD imagerel $LN3
	DD	imagerel $LN3+51
	DD	imagerel $unwind$??0?$CComPtr@UIAdviseSink@@@ATL@@QEAA@XZ
pdata	ENDS
;	COMDAT pdata
pdata	SEGMENT
$pdata$??1?$CComPtr@UIAdviseSink@@@ATL@@QEAA@XZ DD imagerel $LN3
	DD	imagerel $LN3+46
	DD	imagerel $unwind$??1?$CComPtr@UIAdviseSink@@@ATL@@QEAA@XZ
pdata	ENDS
;	COMDAT pdata
pdata	SEGMENT
$pdata$??0IObjectSafety@@QEAA@XZ DD imagerel $LN3
	DD	imagerel $LN3+51
	DD	imagerel $unwind$??0IObjectSafety@@QEAA@XZ
pdata	ENDS
;	COMDAT pdata
pdata	SEGMENT
$pdata$??0CComControlBase@ATL@@QEAA@AEAPEAUHWND__@@@Z DD imagerel $LN3
	DD	imagerel $LN3+537
	DD	imagerel $unwind$??0CComControlBase@ATL@@QEAA@AEAPEAUHWND__@@@Z
pdata	ENDS
;	COMDAT pdata
pdata	SEGMENT
$pdata$??1CComControlBase@ATL@@UEAA@XZ DD imagerel $LN4
	DD	imagerel $LN4+237
	DD	imagerel $unwind$??1CComControlBase@ATL@@UEAA@XZ
pdata	ENDS
;	COMDAT pdata
pdata	SEGMENT
$pdata$??0?$CComPtrBase@UIOleInPlaceSiteWindowless@@@ATL@@IEAA@XZ DD imagerel $LN3
	DD	imagerel $LN3+25
	DD	imagerel $unwind$??0?$CComPtrBase@UIOleInPlaceSiteWindowless@@@ATL@@IEAA@XZ
pdata	ENDS
;	COMDAT pdata
pdata	SEGMENT
$pdata$??1?$CComPtrBase@UIOleInPlaceSiteWindowless@@@ATL@@QEAA@XZ DD imagerel $LN4
	DD	imagerel $LN4+69
	DD	imagerel $unwind$??1?$CComPtrBase@UIOleInPlaceSiteWindowless@@@ATL@@QEAA@XZ
pdata	ENDS
;	COMDAT pdata
pdata	SEGMENT
$pdata$??0?$CComPtr@UIOleInPlaceSiteWindowless@@@ATL@@QEAA@XZ DD imagerel $LN3
	DD	imagerel $LN3+51
	DD	imagerel $unwind$??0?$CComPtr@UIOleInPlaceSiteWindowless@@@ATL@@QEAA@XZ
pdata	ENDS
;	COMDAT pdata
pdata	SEGMENT
$pdata$??1?$CComPtr@UIOleInPlaceSiteWindowless@@@ATL@@QEAA@XZ DD imagerel $LN3
	DD	imagerel $LN3+46
	DD	imagerel $unwind$??1?$CComPtr@UIOleInPlaceSiteWindowless@@@ATL@@QEAA@XZ
pdata	ENDS
;	COMDAT pdata
pdata	SEGMENT
$pdata$??0?$CComPtrBase@UIDataAdviseHolder@@@ATL@@IEAA@XZ DD imagerel $LN3
	DD	imagerel $LN3+25
	DD	imagerel $unwind$??0?$CComPtrBase@UIDataAdviseHolder@@@ATL@@IEAA@XZ
pdata	ENDS
;	COMDAT pdata
pdata	SEGMENT
$pdata$??1?$CComPtrBase@UIDataAdviseHolder@@@ATL@@QEAA@XZ DD imagerel $LN4
	DD	imagerel $LN4+69
	DD	imagerel $unwind$??1?$CComPtrBase@UIDataAdviseHolder@@@ATL@@QEAA@XZ
pdata	ENDS
;	COMDAT pdata
pdata	SEGMENT
$pdata$??0?$CComPtr@UIDataAdviseHolder@@@ATL@@QEAA@XZ DD imagerel $LN3
	DD	imagerel $LN3+51
	DD	imagerel $unwind$??0?$CComPtr@UIDataAdviseHolder@@@ATL@@QEAA@XZ
pdata	ENDS
;	COMDAT pdata
pdata	SEGMENT
$pdata$??1?$CComPtr@UIDataAdviseHolder@@@ATL@@QEAA@XZ DD imagerel $LN3
	DD	imagerel $LN3+46
	DD	imagerel $unwind$??1?$CComPtr@UIDataAdviseHolder@@@ATL@@QEAA@XZ
pdata	ENDS
;	COMDAT pdata
pdata	SEGMENT
$pdata$??0?$CComPtrBase@UIOleAdviseHolder@@@ATL@@IEAA@XZ DD imagerel $LN3
	DD	imagerel $LN3+25
	DD	imagerel $unwind$??0?$CComPtrBase@UIOleAdviseHolder@@@ATL@@IEAA@XZ
pdata	ENDS
;	COMDAT pdata
pdata	SEGMENT
$pdata$??1?$CComPtrBase@UIOleAdviseHolder@@@ATL@@QEAA@XZ DD imagerel $LN4
	DD	imagerel $LN4+69
	DD	imagerel $unwind$??1?$CComPtrBase@UIOleAdviseHolder@@@ATL@@QEAA@XZ
pdata	ENDS
;	COMDAT pdata
pdata	SEGMENT
$pdata$??0?$CComPtr@UIOleAdviseHolder@@@ATL@@QEAA@XZ DD imagerel $LN3
	DD	imagerel $LN3+51
	DD	imagerel $unwind$??0?$CComPtr@UIOleAdviseHolder@@@ATL@@QEAA@XZ
pdata	ENDS
;	COMDAT pdata
pdata	SEGMENT
$pdata$??1?$CComPtr@UIOleAdviseHolder@@@ATL@@QEAA@XZ DD imagerel $LN3
	DD	imagerel $LN3+46
	DD	imagerel $unwind$??1?$CComPtr@UIOleAdviseHolder@@@ATL@@QEAA@XZ
pdata	ENDS
;	COMDAT pdata
pdata	SEGMENT
$pdata$??0?$CComQIPtr@UIDispatch@@$1?_GUID_00020400_0000_0000_c000_000000000046@@3U__s_GUID@@B@ATL@@QEAA@XZ DD imagerel $LN3
	DD	imagerel $LN3+51
	DD	imagerel $unwind$??0?$CComQIPtr@UIDispatch@@$1?_GUID_00020400_0000_0000_c000_000000000046@@3U__s_GUID@@B@ATL@@QEAA@XZ
pdata	ENDS
;	COMDAT pdata
pdata	SEGMENT
$pdata$??1?$CComQIPtr@UIDispatch@@$1?_GUID_00020400_0000_0000_c000_000000000046@@3U__s_GUID@@B@ATL@@QEAA@XZ DD imagerel $LN3
	DD	imagerel $LN3+46
	DD	imagerel $unwind$??1?$CComQIPtr@UIDispatch@@$1?_GUID_00020400_0000_0000_c000_000000000046@@3U__s_GUID@@B@ATL@@QEAA@XZ
pdata	ENDS
;	COMDAT pdata
pdata	SEGMENT
$pdata$??0IOPOSSpeechSynthesis_1_16@@QEAA@XZ DD imagerel $LN3
	DD	imagerel $LN3+51
	DD	imagerel $unwind$??0IOPOSSpeechSynthesis_1_16@@QEAA@XZ
pdata	ENDS
;	COMDAT pdata
pdata	SEGMENT
$pdata$??0IOPOSSpeechSynthesis@@QEAA@XZ DD imagerel $LN3
	DD	imagerel $LN3+51
	DD	imagerel $unwind$??0IOPOSSpeechSynthesis@@QEAA@XZ
pdata	ENDS
;	COMDAT pdata
pdata	SEGMENT
$pdata$??0OposVariant@@QEAA@XZ DD imagerel $LN3
	DD	imagerel $LN3+32
	DD	imagerel $unwind$??0OposVariant@@QEAA@XZ
pdata	ENDS
;	COMDAT pdata
pdata	SEGMENT
$pdata$??1OposVariant@@QEAA@XZ DD imagerel $LN4
	DD	imagerel $LN4+59
	DD	imagerel $unwind$??1OposVariant@@QEAA@XZ
pdata	ENDS
;	COMDAT pdata
pdata	SEGMENT
$pdata$?Clear@OposVariant@@QEAAJXZ DD imagerel $LN3
	DD	imagerel $LN3+56
	DD	imagerel $unwind$?Clear@OposVariant@@QEAAJXZ
pdata	ENDS
;	COMDAT pdata
pdata	SEGMENT
$pdata$??_EOposVariant@@QEAAPEAXI@Z DD imagerel $LN6
	DD	imagerel $LN6+176
	DD	imagerel $unwind$??_EOposVariant@@QEAAPEAXI@Z
pdata	ENDS
;	COMDAT pdata
pdata	SEGMENT
$pdata$??1OposVariantResult@@QEAA@XZ DD imagerel $LN3
	DD	imagerel $LN3+56
	DD	imagerel $unwind$??1OposVariantResult@@QEAA@XZ
pdata	ENDS
;	COMDAT pdata
pdata	SEGMENT
$pdata$??0OposVariantResult@@QEAA@XZ DD imagerel $LN3
	DD	imagerel $LN3+51
	DD	imagerel $unwind$??0OposVariantResult@@QEAA@XZ
pdata	ENDS
;	COMDAT pdata
pdata	SEGMENT
$pdata$??0?$IDispatchImpl@UIOPOSSpeechSynthesis@@$1?IID_IOPOSSpeechSynthesis@@3U_GUID@@B$1?LIBID_OposSpeechSynthesis_CCO@@3U3@B$00$0A@VCComTypeInfoHolder@ATL@@@ATL@@QEAA@XZ DD imagerel $LN3
	DD	imagerel $LN3+51
	DD	imagerel $unwind$??0?$IDispatchImpl@UIOPOSSpeechSynthesis@@$1?IID_IOPOSSpeechSynthesis@@3U_GUID@@B$1?LIBID_OposSpeechSynthesis_CCO@@3U3@B$00$0A@VCComTypeInfoHolder@ATL@@@ATL@@QEAA@XZ
pdata	ENDS
;	COMDAT pdata
pdata	SEGMENT
$pdata$??0?$CWindowImpl@VCOPOSSpeechSynthesis@@VCWindow@ATL@@V?$CWinTraits@$0FGAAAAAA@$0A@@3@@ATL@@QEAA@XZ DD imagerel $LN3
	DD	imagerel $LN3+51
	DD	imagerel $unwind$??0?$CWindowImpl@VCOPOSSpeechSynthesis@@VCWindow@ATL@@V?$CWinTraits@$0FGAAAAAA@$0A@@3@@ATL@@QEAA@XZ
pdata	ENDS
;	COMDAT pdata
pdata	SEGMENT
$pdata$??1?$CWindowImpl@VCOPOSSpeechSynthesis@@VCWindow@ATL@@V?$CWinTraits@$0FGAAAAAA@$0A@@3@@ATL@@UEAA@XZ DD imagerel $LN3
	DD	imagerel $LN3+46
	DD	imagerel $unwind$??1?$CWindowImpl@VCOPOSSpeechSynthesis@@VCWindow@ATL@@V?$CWinTraits@$0FGAAAAAA@$0A@@3@@ATL@@UEAA@XZ
pdata	ENDS
;	COMDAT pdata
pdata	SEGMENT
$pdata$??0?$CComControl@VCOPOSSpeechSynthesis@@V?$CWindowImpl@VCOPOSSpeechSynthesis@@VCWindow@ATL@@V?$CWinTraits@$0FGAAAAAA@$0A@@3@@ATL@@@ATL@@QEAA@XZ DD imagerel $LN3
	DD	imagerel $LN3+80
	DD	imagerel $unwind$??0?$CComControl@VCOPOSSpeechSynthesis@@V?$CWindowImpl@VCOPOSSpeechSynthesis@@VCWindow@ATL@@V?$CWinTraits@$0FGAAAAAA@$0A@@3@@ATL@@@ATL@@QEAA@XZ
pdata	ENDS
;	COMDAT pdata
pdata	SEGMENT
$pdata$??1?$CComControl@VCOPOSSpeechSynthesis@@V?$CWindowImpl@VCOPOSSpeechSynthesis@@VCWindow@ATL@@V?$CWinTraits@$0FGAAAAAA@$0A@@3@@ATL@@@ATL@@UEAA@XZ DD imagerel $LN3
	DD	imagerel $LN3+63
	DD	imagerel $unwind$??1?$CComControl@VCOPOSSpeechSynthesis@@V?$CWindowImpl@VCOPOSSpeechSynthesis@@VCWindow@ATL@@V?$CWinTraits@$0FGAAAAAA@$0A@@3@@ATL@@@ATL@@UEAA@XZ
pdata	ENDS
;	COMDAT pdata
pdata	SEGMENT
$pdata$??0?$IPersistStreamInitImpl@VCOPOSSpeechSynthesis@@@ATL@@QEAA@XZ DD imagerel $LN3
	DD	imagerel $LN3+51
	DD	imagerel $unwind$??0?$IPersistStreamInitImpl@VCOPOSSpeechSynthesis@@@ATL@@QEAA@XZ
pdata	ENDS
;	COMDAT pdata
pdata	SEGMENT
$pdata$??0?$IOleControlImpl@VCOPOSSpeechSynthesis@@@ATL@@QEAA@XZ DD imagerel $LN3
	DD	imagerel $LN3+51
	DD	imagerel $unwind$??0?$IOleControlImpl@VCOPOSSpeechSynthesis@@@ATL@@QEAA@XZ
pdata	ENDS
;	COMDAT pdata
pdata	SEGMENT
$pdata$??0?$IOleObjectImpl@VCOPOSSpeechSynthesis@@@ATL@@QEAA@XZ DD imagerel $LN3
	DD	imagerel $LN3+51
	DD	imagerel $unwind$??0?$IOleObjectImpl@VCOPOSSpeechSynthesis@@@ATL@@QEAA@XZ
pdata	ENDS
;	COMDAT pdata
pdata	SEGMENT
$pdata$??0?$IOleInPlaceActiveObjectImpl@VCOPOSSpeechSynthesis@@@ATL@@QEAA@XZ DD imagerel $LN3
	DD	imagerel $LN3+51
	DD	imagerel $unwind$??0?$IOleInPlaceActiveObjectImpl@VCOPOSSpeechSynthesis@@@ATL@@QEAA@XZ
pdata	ENDS
;	COMDAT pdata
pdata	SEGMENT
$pdata$??0?$IViewObjectExImpl@VCOPOSSpeechSynthesis@@@ATL@@QEAA@XZ DD imagerel $LN3
	DD	imagerel $LN3+51
	DD	imagerel $unwind$??0?$IViewObjectExImpl@VCOPOSSpeechSynthesis@@@ATL@@QEAA@XZ
pdata	ENDS
;	COMDAT pdata
pdata	SEGMENT
$pdata$??0?$IOleInPlaceObjectWindowlessImpl@VCOPOSSpeechSynthesis@@@ATL@@QEAA@XZ DD imagerel $LN3
	DD	imagerel $LN3+51
	DD	imagerel $unwind$??0?$IOleInPlaceObjectWindowlessImpl@VCOPOSSpeechSynthesis@@@ATL@@QEAA@XZ
pdata	ENDS
;	COMDAT pdata
pdata	SEGMENT
$pdata$??0?$IConnectionPointContainerImpl@VCOPOSSpeechSynthesis@@@ATL@@QEAA@XZ DD imagerel $LN3
	DD	imagerel $LN3+51
	DD	imagerel $unwind$??0?$IConnectionPointContainerImpl@VCOPOSSpeechSynthesis@@@ATL@@QEAA@XZ
pdata	ENDS
;	COMDAT pdata
pdata	SEGMENT
$pdata$??0?$IPersistStorageImpl@VCOPOSSpeechSynthesis@@@ATL@@QEAA@XZ DD imagerel $LN3
	DD	imagerel $LN3+51
	DD	imagerel $unwind$??0?$IPersistStorageImpl@VCOPOSSpeechSynthesis@@@ATL@@QEAA@XZ
pdata	ENDS
;	COMDAT pdata
pdata	SEGMENT
$pdata$??0?$ISpecifyPropertyPagesImpl@VCOPOSSpeechSynthesis@@@ATL@@QEAA@XZ DD imagerel $LN3
	DD	imagerel $LN3+51
	DD	imagerel $unwind$??0?$ISpecifyPropertyPagesImpl@VCOPOSSpeechSynthesis@@@ATL@@QEAA@XZ
pdata	ENDS
;	COMDAT pdata
pdata	SEGMENT
$pdata$??0?$IQuickActivateImpl@VCOPOSSpeechSynthesis@@@ATL@@QEAA@XZ DD imagerel $LN3
	DD	imagerel $LN3+51
	DD	imagerel $unwind$??0?$IQuickActivateImpl@VCOPOSSpeechSynthesis@@@ATL@@QEAA@XZ
pdata	ENDS
;	COMDAT pdata
pdata	SEGMENT
$pdata$??0?$IDataObjectImpl@VCOPOSSpeechSynthesis@@@ATL@@QEAA@XZ DD imagerel $LN3
	DD	imagerel $LN3+51
	DD	imagerel $unwind$??0?$IDataObjectImpl@VCOPOSSpeechSynthesis@@@ATL@@QEAA@XZ
pdata	ENDS
;	COMDAT pdata
pdata	SEGMENT
$pdata$??0?$IProvideClassInfo2Impl@$1?CLSID_OPOSSpeechSynthesis@@3U_GUID@@B$1?DIID__IOPOSSpeechSynthesisEvents@@3U2@B$1?LIBID_OposSpeechSynthesis_CCO@@3U2@B$00$0A@VCComTypeInfoHolder@ATL@@@ATL@@QEAA@XZ DD imagerel $LN3
	DD	imagerel $LN3+51
	DD	imagerel $unwind$??0?$IProvideClassInfo2Impl@$1?CLSID_OPOSSpeechSynthesis@@3U_GUID@@B$1?DIID__IOPOSSpeechSynthesisEvents@@3U2@B$1?LIBID_OposSpeechSynthesis_CCO@@3U2@B$00$0A@VCComTypeInfoHolder@ATL@@@ATL@@QEAA@XZ
pdata	ENDS
;	COMDAT pdata
pdata	SEGMENT
$pdata$??0?$IObjectSafetyImpl@VCOPOSSpeechSynthesis@@$02@ATL@@QEAA@XZ DD imagerel $LN3
	DD	imagerel $LN3+63
	DD	imagerel $unwind$??0?$IObjectSafetyImpl@VCOPOSSpeechSynthesis@@$02@ATL@@QEAA@XZ
pdata	ENDS
;	COMDAT pdata
pdata	SEGMENT
$pdata$??0?$_ICPLocator@$1?IID_IPropertyNotifySink@@3U_GUID@@B@ATL@@QEAA@XZ DD imagerel $LN3
	DD	imagerel $LN3+13
	DD	imagerel $unwind$??0?$_ICPLocator@$1?IID_IPropertyNotifySink@@3U_GUID@@B@ATL@@QEAA@XZ
pdata	ENDS
;	COMDAT pdata
pdata	SEGMENT
$pdata$??1?$IConnectionPointImpl@VCOPOSSpeechSynthesis@@$1?IID_IPropertyNotifySink@@3U_GUID@@BVCComDynamicUnkArray@ATL@@@ATL@@QEAA@XZ DD imagerel $LN6
	DD	imagerel $LN6+148
	DD	imagerel $unwind$??1?$IConnectionPointImpl@VCOPOSSpeechSynthesis@@$1?IID_IPropertyNotifySink@@3U_GUID@@BVCComDynamicUnkArray@ATL@@@ATL@@QEAA@XZ
pdata	ENDS
;	COMDAT pdata
pdata	SEGMENT
$pdata$??0?$IConnectionPointImpl@VCOPOSSpeechSynthesis@@$1?IID_IPropertyNotifySink@@3U_GUID@@BVCComDynamicUnkArray@ATL@@@ATL@@QEAA@XZ DD imagerel $LN3
	DD	imagerel $LN3+68
	DD	imagerel $unwind$??0?$IConnectionPointImpl@VCOPOSSpeechSynthesis@@$1?IID_IPropertyNotifySink@@3U_GUID@@BVCComDynamicUnkArray@ATL@@@ATL@@QEAA@XZ
pdata	ENDS
;	COMDAT pdata
pdata	SEGMENT
$pdata$??0?$IPropertyNotifySinkCP@VCOPOSSpeechSynthesis@@VCComDynamicUnkArray@ATL@@@ATL@@QEAA@XZ DD imagerel $LN3
	DD	imagerel $LN3+51
	DD	imagerel $unwind$??0?$IPropertyNotifySinkCP@VCOPOSSpeechSynthesis@@VCComDynamicUnkArray@ATL@@@ATL@@QEAA@XZ
pdata	ENDS
;	COMDAT pdata
pdata	SEGMENT
$pdata$??1?$IPropertyNotifySinkCP@VCOPOSSpeechSynthesis@@VCComDynamicUnkArray@ATL@@@ATL@@QEAA@XZ DD imagerel $LN3
	DD	imagerel $LN3+46
	DD	imagerel $unwind$??1?$IPropertyNotifySinkCP@VCOPOSSpeechSynthesis@@VCComDynamicUnkArray@ATL@@@ATL@@QEAA@XZ
pdata	ENDS
;	COMDAT pdata
pdata	SEGMENT
$pdata$??0?$_ICPLocator@$1?DIID__IOPOSSpeechSynthesisEvents@@3U_GUID@@B@ATL@@QEAA@XZ DD imagerel $LN3
	DD	imagerel $LN3+13
	DD	imagerel $unwind$??0?$_ICPLocator@$1?DIID__IOPOSSpeechSynthesisEvents@@3U_GUID@@B@ATL@@QEAA@XZ
pdata	ENDS
;	COMDAT pdata
pdata	SEGMENT
$pdata$??1?$IConnectionPointImpl@VCOPOSSpeechSynthesis@@$1?DIID__IOPOSSpeechSynthesisEvents@@3U_GUID@@BVCComDynamicUnkArray@ATL@@@ATL@@QEAA@XZ DD imagerel $LN6
	DD	imagerel $LN6+148
	DD	imagerel $unwind$??1?$IConnectionPointImpl@VCOPOSSpeechSynthesis@@$1?DIID__IOPOSSpeechSynthesisEvents@@3U_GUID@@BVCComDynamicUnkArray@ATL@@@ATL@@QEAA@XZ
pdata	ENDS
;	COMDAT pdata
pdata	SEGMENT
$pdata$?_LocCPQueryInterface@?$IConnectionPointImpl@VCOPOSSpeechSynthesis@@$1?DIID__IOPOSSpeechSynthesisEvents@@3U_GUID@@BVCComDynamicUnkArray@ATL@@@ATL@@UEAAJAEBU_GUID@@PEAPEAX@Z DD imagerel $LN8
	DD	imagerel $LN8+214
	DD	imagerel $unwind$?_LocCPQueryInterface@?$IConnectionPointImpl@VCOPOSSpeechSynthesis@@$1?DIID__IOPOSSpeechSynthesisEvents@@3U_GUID@@BVCComDynamicUnkArray@ATL@@@ATL@@UEAAJAEBU_GUID@@PEAPEAX@Z
pdata	ENDS
;	COMDAT pdata
pdata	SEGMENT
$pdata$?GetConnectionInterface@?$IConnectionPointImpl@VCOPOSSpeechSynthesis@@$1?DIID__IOPOSSpeechSynthesisEvents@@3U_GUID@@BVCComDynamicUnkArray@ATL@@@ATL@@UEAAJPEAU_GUID@@@Z DD imagerel $LN4
	DD	imagerel $LN4+54
	DD	imagerel $unwind$?GetConnectionInterface@?$IConnectionPointImpl@VCOPOSSpeechSynthesis@@$1?DIID__IOPOSSpeechSynthesisEvents@@3U_GUID@@BVCComDynamicUnkArray@ATL@@@ATL@@UEAAJPEAU_GUID@@@Z
pdata	ENDS
;	COMDAT pdata
pdata	SEGMENT
$pdata$?GetConnectionPointContainer@?$IConnectionPointImpl@VCOPOSSpeechSynthesis@@$1?DIID__IOPOSSpeechSynthesisEvents@@3U_GUID@@BVCComDynamicUnkArray@ATL@@@ATL@@UEAAJPEAPEAUIConnectionPointContainer@@@Z DD imagerel $LN5
	DD	imagerel $LN5+113
	DD	imagerel $unwind$?GetConnectionPointContainer@?$IConnectionPointImpl@VCOPOSSpeechSynthesis@@$1?DIID__IOPOSSpeechSynthesisEvents@@3U_GUID@@BVCComDynamicUnkArray@ATL@@@ATL@@UEAAJPEAPEAUIConnectionPointContainer@@@Z
pdata	ENDS
;	COMDAT pdata
pdata	SEGMENT
$pdata$?Advise@?$IConnectionPointImpl@VCOPOSSpeechSynthesis@@$1?DIID__IOPOSSpeechSynthesisEvents@@3U_GUID@@BVCComDynamicUnkArray@ATL@@@ATL@@UEAAJPEAUIUnknown@@PEAK@Z DD imagerel $LN15
	DD	imagerel $LN15+506
	DD	imagerel $unwind$?Advise@?$IConnectionPointImpl@VCOPOSSpeechSynthesis@@$1?DIID__IOPOSSpeechSynthesisEvents@@3U_GUID@@BVCComDynamicUnkArray@ATL@@@ATL@@UEAAJPEAUIUnknown@@PEAK@Z
pdata	ENDS
;	COMDAT pdata
pdata	SEGMENT
$pdata$?Unadvise@?$IConnectionPointImpl@VCOPOSSpeechSynthesis@@$1?DIID__IOPOSSpeechSynthesisEvents@@3U_GUID@@BVCComDynamicUnkArray@ATL@@@ATL@@UEAAJK@Z DD imagerel $LN8
	DD	imagerel $LN8+235
	DD	imagerel $unwind$?Unadvise@?$IConnectionPointImpl@VCOPOSSpeechSynthesis@@$1?DIID__IOPOSSpeechSynthesisEvents@@3U_GUID@@BVCComDynamicUnkArray@ATL@@@ATL@@UEAAJK@Z
pdata	ENDS
;	COMDAT pdata
pdata	SEGMENT
$pdata$?EnumConnections@?$IConnectionPointImpl@VCOPOSSpeechSynthesis@@$1?DIID__IOPOSSpeechSynthesisEvents@@3U_GUID@@BVCComDynamicUnkArray@ATL@@@ATL@@UEAAJPEAPEAUIEnumConnections@@@Z DD imagerel $LN19
	DD	imagerel $LN19+834
	DD	imagerel $unwind$?EnumConnections@?$IConnectionPointImpl@VCOPOSSpeechSynthesis@@$1?DIID__IOPOSSpeechSynthesisEvents@@3U_GUID@@BVCComDynamicUnkArray@ATL@@@ATL@@UEAAJPEAPEAUIEnumConnections@@@Z
pdata	ENDS
;	COMDAT pdata
pdata	SEGMENT
$pdata$??0?$IConnectionPointImpl@VCOPOSSpeechSynthesis@@$1?DIID__IOPOSSpeechSynthesisEvents@@3U_GUID@@BVCComDynamicUnkArray@ATL@@@ATL@@QEAA@XZ DD imagerel $LN3
	DD	imagerel $LN3+68
	DD	imagerel $unwind$??0?$IConnectionPointImpl@VCOPOSSpeechSynthesis@@$1?DIID__IOPOSSpeechSynthesisEvents@@3U_GUID@@BVCComDynamicUnkArray@ATL@@@ATL@@QEAA@XZ
pdata	ENDS
;	COMDAT pdata
pdata	SEGMENT
$pdata$?Fire_DirectIOEvent@?$CProxy_IOPOSEvents@VCOPOSSpeechSynthesis@@@@QEAAXJPEAJPEAPEA_W@Z DD imagerel $LN9
	DD	imagerel $LN9+656
	DD	imagerel $unwind$?Fire_DirectIOEvent@?$CProxy_IOPOSEvents@VCOPOSSpeechSynthesis@@@@QEAAXJPEAJPEAPEA_W@Z
pdata	ENDS
;	COMDAT pdata
pdata	SEGMENT
$pdata$?Fire_ErrorEvent@?$CProxy_IOPOSEvents@VCOPOSSpeechSynthesis@@@@QEAAXJJJPEAJ@Z DD imagerel $LN9
	DD	imagerel $LN9+676
	DD	imagerel $unwind$?Fire_ErrorEvent@?$CProxy_IOPOSEvents@VCOPOSSpeechSynthesis@@@@QEAAXJJJPEAJ@Z
pdata	ENDS
;	COMDAT pdata
pdata	SEGMENT
$pdata$?Fire_OutputCompleteEvent@?$CProxy_IOPOSEvents@VCOPOSSpeechSynthesis@@@@QEAAXJ@Z DD imagerel $LN9
	DD	imagerel $LN9+484
	DD	imagerel $unwind$?Fire_OutputCompleteEvent@?$CProxy_IOPOSEvents@VCOPOSSpeechSynthesis@@@@QEAAXJ@Z
pdata	ENDS
;	COMDAT pdata
pdata	SEGMENT
$pdata$?Fire_StatusUpdateEvent@?$CProxy_IOPOSEvents@VCOPOSSpeechSynthesis@@@@QEAAXJ@Z DD imagerel $LN9
	DD	imagerel $LN9+484
	DD	imagerel $unwind$?Fire_StatusUpdateEvent@?$CProxy_IOPOSEvents@VCOPOSSpeechSynthesis@@@@QEAAXJ@Z
pdata	ENDS
;	COMDAT pdata
pdata	SEGMENT
$pdata$??0?$CProxy_IOPOSEvents@VCOPOSSpeechSynthesis@@@@QEAA@PEAVCOPOSSpeechSynthesis@@@Z DD imagerel $LN3
	DD	imagerel $LN3+145
	DD	imagerel $unwind$??0?$CProxy_IOPOSEvents@VCOPOSSpeechSynthesis@@@@QEAA@PEAVCOPOSSpeechSynthesis@@@Z
pdata	ENDS
;	COMDAT pdata
pdata	SEGMENT
$pdata$?Advise@?$CProxy_IOPOSEvents@VCOPOSSpeechSynthesis@@@@UEAAJPEAUIUnknown@@PEAK@Z DD imagerel $LN3
	DD	imagerel $LN3+108
	DD	imagerel $unwind$?Advise@?$CProxy_IOPOSEvents@VCOPOSSpeechSynthesis@@@@UEAAJPEAUIUnknown@@PEAK@Z
pdata	ENDS
;	COMDAT pdata
pdata	SEGMENT
$pdata$?Unadvise@?$CProxy_IOPOSEvents@VCOPOSSpeechSynthesis@@@@UEAAJK@Z DD imagerel $LN3
	DD	imagerel $LN3+80
	DD	imagerel $unwind$?Unadvise@?$CProxy_IOPOSEvents@VCOPOSSpeechSynthesis@@@@UEAAJK@Z
pdata	ENDS
;	COMDAT pdata
pdata	SEGMENT
$pdata$?FireTheEvent@?$CProxy_IOPOSEvents@VCOPOSSpeechSynthesis@@@@IEAAXPEAUIUnknown@@PEAVOposVariant@@IAEAJPEB_WJ@Z DD imagerel $LN9
	DD	imagerel $LN9+478
	DD	imagerel $unwind$?FireTheEvent@?$CProxy_IOPOSEvents@VCOPOSSpeechSynthesis@@@@IEAAXPEAUIUnknown@@PEAVOposVariant@@IAEAJPEB_WJ@Z
pdata	ENDS
;	COMDAT pdata
pdata	SEGMENT
$pdata$??1?$CProxy_IOPOSEvents@VCOPOSSpeechSynthesis@@@@QEAA@XZ DD imagerel $LN3
	DD	imagerel $LN3+46
	DD	imagerel $unwind$??1?$CProxy_IOPOSEvents@VCOPOSSpeechSynthesis@@@@QEAA@XZ
pdata	ENDS
pdata	SEGMENT
$pdata$??0COPOSSpeechSynthesis@@QEAA@XZ DD imagerel $LN3
	DD	imagerel $LN3+377
	DD	imagerel $unwind$??0COPOSSpeechSynthesis@@QEAA@XZ
$pdata$?FinalConstruct@COPOSSpeechSynthesis@@QEAAJXZ DD imagerel $LN3
	DD	imagerel $LN3+223
	DD	imagerel $unwind$?FinalConstruct@COPOSSpeechSynthesis@@QEAAJXZ
$pdata$??1COPOSSpeechSynthesis@@UEAA@XZ DD imagerel $LN4
	DD	imagerel $LN4+214
	DD	imagerel $unwind$??1COPOSSpeechSynthesis@@UEAA@XZ
pdata	ENDS
;	COMDAT pdata
pdata	SEGMENT
$pdata$?SetRC@COPOSSpeechSynthesis@@IEAAJJ@Z DD imagerel $LN3
	DD	imagerel $LN3+31
	DD	imagerel $unwind$?SetRC@COPOSSpeechSynthesis@@IEAAJJ@Z
pdata	ENDS
pdata	SEGMENT
$pdata$?WriteTrace@COPOSSpeechSynthesis@@QEAAXPEB_WZZ DD imagerel $LN5
	DD	imagerel $LN5+185
	DD	imagerel $unwind$?WriteTrace@COPOSSpeechSynthesis@@QEAAXPEB_WZZ
$pdata$?WriteTraceString@COPOSSpeechSynthesis@@QEAAXPEB_WPEA_W@Z DD imagerel $LN34
	DD	imagerel $LN34+1080
	DD	imagerel $unwind$?WriteTraceString@COPOSSpeechSynthesis@@QEAAXPEB_WPEA_W@Z
$pdata$?WriteTraceString@COPOSSpeechSynthesis@@QEAAXPEAXHHHPEB_WZZ DD imagerel $LN16
	DD	imagerel $LN16+640
	DD	imagerel $unwind$?WriteTraceString@COPOSSpeechSynthesis@@QEAAXPEAXHHHPEB_WZZ
$pdata$?WriteTraceError@COPOSSpeechSynthesis@@QEAAXPEB_WK@Z DD imagerel $LN8
	DD	imagerel $LN8+241
	DD	imagerel $unwind$?WriteTraceError@COPOSSpeechSynthesis@@QEAAXPEB_WK@Z
$pdata$?WriteTraceMethods@COPOSSpeechSynthesis@@QEAAXPEAJH@Z DD imagerel $LN7
	DD	imagerel $LN7+135
	DD	imagerel $unwind$?WriteTraceMethods@COPOSSpeechSynthesis@@QEAAXPEAJH@Z
$pdata$?GetOposProp@COPOSSpeechSynthesis@@IEAAJPEBDJPEAJJ@Z DD imagerel $LN12
	DD	imagerel $LN12+792
	DD	imagerel $unwind$?GetOposProp@COPOSSpeechSynthesis@@IEAAJPEBDJPEAJJ@Z
$pdata$?SetOposProp@COPOSSpeechSynthesis@@IEAAJPEBDJJJ@Z DD imagerel $LN13
	DD	imagerel $LN13+858
	DD	imagerel $unwind$?SetOposProp@COPOSSpeechSynthesis@@IEAAJPEBDJJJ@Z
$pdata$?GetOposProp@COPOSSpeechSynthesis@@IEAAJPEBDJPEAFJ@Z DD imagerel $LN5
	DD	imagerel $LN5+153
	DD	imagerel $unwind$?GetOposProp@COPOSSpeechSynthesis@@IEAAJPEBDJPEAFJ@Z
$pdata$?SetOposProp@COPOSSpeechSynthesis@@IEAAJPEBDJFJ@Z DD imagerel $LN5
	DD	imagerel $LN5+112
	DD	imagerel $unwind$?SetOposProp@COPOSSpeechSynthesis@@IEAAJPEBDJFJ@Z
$pdata$?GetOposProp@COPOSSpeechSynthesis@@IEAAJPEBDJPEAPEA_WJ@Z DD imagerel $LN13
	DD	imagerel $LN13+781
	DD	imagerel $unwind$?GetOposProp@COPOSSpeechSynthesis@@IEAAJPEBDJPEAPEA_WJ@Z
$pdata$?SetOposProp@COPOSSpeechSynthesis@@IEAAJPEBDJPEA_WJ@Z DD imagerel $LN16
	DD	imagerel $LN16+973
	DD	imagerel $unwind$?SetOposProp@COPOSSpeechSynthesis@@IEAAJPEBDJPEA_WJ@Z
$pdata$?DoInvoke@COPOSSpeechSynthesis@@IEAAJPEBDJPEAVOposVariant@@IHPEAJ_N@Z DD imagerel $LN62
	DD	imagerel $LN62+2890
	DD	imagerel $unwind$?DoInvoke@COPOSSpeechSynthesis@@IEAAJPEBDJPEAVOposVariant@@IHPEAJ_N@Z
$pdata$?SetCOFreezeEvents@COPOSSpeechSynthesis@@IEAAXF@Z DD imagerel $LN4
	DD	imagerel $LN4+390
	DD	imagerel $unwind$?SetCOFreezeEvents@COPOSSpeechSynthesis@@IEAAXF@Z
$pdata$?FreezeEvents@COPOSSpeechSynthesis@@MEAAJH@Z DD imagerel $LN7
	DD	imagerel $LN7+298
	DD	imagerel $unwind$?FreezeEvents@COPOSSpeechSynthesis@@MEAAJH@Z
$pdata$?OnDraw@COPOSSpeechSynthesis@@MEAAJAEAUATL_DRAWINFO@@@Z DD imagerel $LN7
	DD	imagerel $LN7+452
	DD	imagerel $unwind$?OnDraw@COPOSSpeechSynthesis@@MEAAJAEAUATL_DRAWINFO@@@Z
pdata	ENDS
;	COMDAT pdata
pdata	SEGMENT
$pdata$?GetConnMap@COPOSSpeechSynthesis@@SAPEBU_ATL_CONNMAP_ENTRY@ATL@@PEAH@Z DD imagerel $LN13
	DD	imagerel $LN13+347
	DD	imagerel $unwind$?GetConnMap@COPOSSpeechSynthesis@@SAPEBU_ATL_CONNMAP_ENTRY@ATL@@PEAH@Z
pdata	ENDS
;	COMDAT pdata
pdata	SEGMENT
$pdata$?EventInit@COPOSSpeechSynthesis@@IEAAJXZ DD imagerel $LN8
	DD	imagerel $LN8+684
	DD	imagerel $unwind$?EventInit@COPOSSpeechSynthesis@@IEAAJXZ
pdata	ENDS
;	COMDAT pdata
pdata	SEGMENT
$pdata$?EventOpen@COPOSSpeechSynthesis@@IEAAXXZ DD imagerel $LN3
	DD	imagerel $LN3+56
	DD	imagerel $unwind$?EventOpen@COPOSSpeechSynthesis@@IEAAXXZ
pdata	ENDS
;	COMDAT pdata
pdata	SEGMENT
$pdata$?EventClaim@COPOSSpeechSynthesis@@IEAAXXZ DD imagerel $LN3
	DD	imagerel $LN3+65
	DD	imagerel $unwind$?EventClaim@COPOSSpeechSynthesis@@IEAAXXZ
pdata	ENDS
;	COMDAT pdata
pdata	SEGMENT
$pdata$?EventPreCloseRelease@COPOSSpeechSynthesis@@IEAAXXZ DD imagerel $LN4
	DD	imagerel $LN4+126
	DD	imagerel $unwind$?EventPreCloseRelease@COPOSSpeechSynthesis@@IEAAXXZ
pdata	ENDS
;	COMDAT pdata
pdata	SEGMENT
$pdata$?EventClose@COPOSSpeechSynthesis@@IEAAXXZ DD imagerel $LN5
	DD	imagerel $LN5+147
	DD	imagerel $unwind$?EventClose@COPOSSpeechSynthesis@@IEAAXXZ
pdata	ENDS
;	COMDAT pdata
pdata	SEGMENT
$pdata$?EventUninit@COPOSSpeechSynthesis@@IEAAXXZ DD imagerel $LN11
	DD	imagerel $LN11+296
	DD	imagerel $unwind$?EventUninit@COPOSSpeechSynthesis@@IEAAXXZ
pdata	ENDS
;	COMDAT pdata
pdata	SEGMENT
$pdata$?s_EventWindowProc@COPOSSpeechSynthesis@@KA_JPEAUHWND__@@I_K_J@Z DD imagerel $LN6
	DD	imagerel $LN6+174
	DD	imagerel $unwind$?s_EventWindowProc@COPOSSpeechSynthesis@@KA_JPEAUHWND__@@I_K_J@Z
pdata	ENDS
;	COMDAT pdata
pdata	SEGMENT
$pdata$?EventWindowProc@COPOSSpeechSynthesis@@IEAA_JI_K_J@Z DD imagerel $LN14
	DD	imagerel $LN14+459
	DD	imagerel $unwind$?EventWindowProc@COPOSSpeechSynthesis@@IEAA_JI_K_J@Z
pdata	ENDS
;	COMDAT pdata
pdata	SEGMENT
$pdata$?FireEventSetup@COPOSSpeechSynthesis@@IEAA_NXZ DD imagerel $LN5
	DD	imagerel $LN5+118
	DD	imagerel $unwind$?FireEventSetup@COPOSSpeechSynthesis@@IEAA_NXZ
pdata	ENDS
;	COMDAT pdata
pdata	SEGMENT
$pdata$?FireEventCleanup@COPOSSpeechSynthesis@@IEAAXXZ DD imagerel $LN3
	DD	imagerel $LN3+78
	DD	imagerel $unwind$?FireEventCleanup@COPOSSpeechSynthesis@@IEAAXXZ
pdata	ENDS
pdata	SEGMENT
$pdata$?SOProcessID@COPOSSpeechSynthesis@@UEAAJPEAJ@Z DD imagerel $LN3
	DD	imagerel $LN3+81
	DD	imagerel $unwind$?SOProcessID@COPOSSpeechSynthesis@@UEAAJPEAJ@Z
$pdata$?get_OpenResult@COPOSSpeechSynthesis@@UEAAJPEAJ@Z DD imagerel $LN3
	DD	imagerel $LN3+90
	DD	imagerel $unwind$?get_OpenResult@COPOSSpeechSynthesis@@UEAAJPEAJ@Z
$pdata$?get_BinaryConversion@COPOSSpeechSynthesis@@UEAAJPEAJ@Z DD imagerel $LN3
	DD	imagerel $LN3+77
	DD	imagerel $unwind$?get_BinaryConversion@COPOSSpeechSynthesis@@UEAAJPEAJ@Z
$pdata$?put_BinaryConversion@COPOSSpeechSynthesis@@UEAAJJ@Z DD imagerel $LN3
	DD	imagerel $LN3+91
	DD	imagerel $unwind$?put_BinaryConversion@COPOSSpeechSynthesis@@UEAAJJ@Z
$pdata$?get_CapPowerReporting@COPOSSpeechSynthesis@@UEAAJPEAJ@Z DD imagerel $LN3
	DD	imagerel $LN3+77
	DD	imagerel $unwind$?get_CapPowerReporting@COPOSSpeechSynthesis@@UEAAJPEAJ@Z
$pdata$?get_CheckHealthText@COPOSSpeechSynthesis@@UEAAJPEAPEA_W@Z DD imagerel $LN3
	DD	imagerel $LN3+77
	DD	imagerel $unwind$?get_CheckHealthText@COPOSSpeechSynthesis@@UEAAJPEAPEA_W@Z
$pdata$?get_Claimed@COPOSSpeechSynthesis@@UEAAJPEAF@Z DD imagerel $LN3
	DD	imagerel $LN3+77
	DD	imagerel $unwind$?get_Claimed@COPOSSpeechSynthesis@@UEAAJPEAF@Z
$pdata$?get_DeviceEnabled@COPOSSpeechSynthesis@@UEAAJPEAF@Z DD imagerel $LN3
	DD	imagerel $LN3+77
	DD	imagerel $unwind$?get_DeviceEnabled@COPOSSpeechSynthesis@@UEAAJPEAF@Z
$pdata$?put_DeviceEnabled@COPOSSpeechSynthesis@@UEAAJF@Z DD imagerel $LN3
	DD	imagerel $LN3+78
	DD	imagerel $unwind$?put_DeviceEnabled@COPOSSpeechSynthesis@@UEAAJF@Z
$pdata$?get_FreezeEvents@COPOSSpeechSynthesis@@UEAAJPEAF@Z DD imagerel $LN3
	DD	imagerel $LN3+77
	DD	imagerel $unwind$?get_FreezeEvents@COPOSSpeechSynthesis@@UEAAJPEAF@Z
$pdata$?put_FreezeEvents@COPOSSpeechSynthesis@@UEAAJF@Z DD imagerel $LN6
	DD	imagerel $LN6+204
	DD	imagerel $unwind$?put_FreezeEvents@COPOSSpeechSynthesis@@UEAAJF@Z
$pdata$?get_OutputID@COPOSSpeechSynthesis@@UEAAJPEAJ@Z DD imagerel $LN3
	DD	imagerel $LN3+77
	DD	imagerel $unwind$?get_OutputID@COPOSSpeechSynthesis@@UEAAJPEAJ@Z
$pdata$?get_PowerNotify@COPOSSpeechSynthesis@@UEAAJPEAJ@Z DD imagerel $LN3
	DD	imagerel $LN3+77
	DD	imagerel $unwind$?get_PowerNotify@COPOSSpeechSynthesis@@UEAAJPEAJ@Z
$pdata$?put_PowerNotify@COPOSSpeechSynthesis@@UEAAJJ@Z DD imagerel $LN3
	DD	imagerel $LN3+76
	DD	imagerel $unwind$?put_PowerNotify@COPOSSpeechSynthesis@@UEAAJJ@Z
$pdata$?get_PowerState@COPOSSpeechSynthesis@@UEAAJPEAJ@Z DD imagerel $LN3
	DD	imagerel $LN3+77
	DD	imagerel $unwind$?get_PowerState@COPOSSpeechSynthesis@@UEAAJPEAJ@Z
$pdata$?get_ResultCode@COPOSSpeechSynthesis@@UEAAJPEAJ@Z DD imagerel $LN7
	DD	imagerel $LN7+188
	DD	imagerel $unwind$?get_ResultCode@COPOSSpeechSynthesis@@UEAAJPEAJ@Z
$pdata$?get_ResultCodeExtended@COPOSSpeechSynthesis@@UEAAJPEAJ@Z DD imagerel $LN3
	DD	imagerel $LN3+77
	DD	imagerel $unwind$?get_ResultCodeExtended@COPOSSpeechSynthesis@@UEAAJPEAJ@Z
$pdata$?get_State@COPOSSpeechSynthesis@@UEAAJPEAJ@Z DD imagerel $LN5
	DD	imagerel $LN5+125
	DD	imagerel $unwind$?get_State@COPOSSpeechSynthesis@@UEAAJPEAJ@Z
$pdata$?get_ControlObjectDescription@COPOSSpeechSynthesis@@UEAAJPEAPEA_W@Z DD imagerel $LN3
	DD	imagerel $LN3+119
	DD	imagerel $unwind$?get_ControlObjectDescription@COPOSSpeechSynthesis@@UEAAJPEAPEA_W@Z
$pdata$?get_ControlObjectVersion@COPOSSpeechSynthesis@@UEAAJPEAJ@Z DD imagerel $LN3
	DD	imagerel $LN3+80
	DD	imagerel $unwind$?get_ControlObjectVersion@COPOSSpeechSynthesis@@UEAAJPEAJ@Z
$pdata$?get_ServiceObjectDescription@COPOSSpeechSynthesis@@UEAAJPEAPEA_W@Z DD imagerel $LN3
	DD	imagerel $LN3+77
	DD	imagerel $unwind$?get_ServiceObjectDescription@COPOSSpeechSynthesis@@UEAAJPEAPEA_W@Z
$pdata$?get_ServiceObjectVersion@COPOSSpeechSynthesis@@UEAAJPEAJ@Z DD imagerel $LN3
	DD	imagerel $LN3+77
	DD	imagerel $unwind$?get_ServiceObjectVersion@COPOSSpeechSynthesis@@UEAAJPEAJ@Z
$pdata$?get_DeviceDescription@COPOSSpeechSynthesis@@UEAAJPEAPEA_W@Z DD imagerel $LN3
	DD	imagerel $LN3+77
	DD	imagerel $unwind$?get_DeviceDescription@COPOSSpeechSynthesis@@UEAAJPEAPEA_W@Z
$pdata$?get_DeviceName@COPOSSpeechSynthesis@@UEAAJPEAPEA_W@Z DD imagerel $LN3
	DD	imagerel $LN3+77
	DD	imagerel $unwind$?get_DeviceName@COPOSSpeechSynthesis@@UEAAJPEAPEA_W@Z
$pdata$?get_CapStatisticsReporting@COPOSSpeechSynthesis@@UEAAJPEAF@Z DD imagerel $LN3
	DD	imagerel $LN3+77
	DD	imagerel $unwind$?get_CapStatisticsReporting@COPOSSpeechSynthesis@@UEAAJPEAF@Z
$pdata$?get_CapUpdateStatistics@COPOSSpeechSynthesis@@UEAAJPEAF@Z DD imagerel $LN3
	DD	imagerel $LN3+77
	DD	imagerel $unwind$?get_CapUpdateStatistics@COPOSSpeechSynthesis@@UEAAJPEAF@Z
$pdata$?get_CapCompareFirmwareVersion@COPOSSpeechSynthesis@@UEAAJPEAF@Z DD imagerel $LN3
	DD	imagerel $LN3+77
	DD	imagerel $unwind$?get_CapCompareFirmwareVersion@COPOSSpeechSynthesis@@UEAAJPEAF@Z
$pdata$?get_CapUpdateFirmware@COPOSSpeechSynthesis@@UEAAJPEAF@Z DD imagerel $LN3
	DD	imagerel $LN3+77
	DD	imagerel $unwind$?get_CapUpdateFirmware@COPOSSpeechSynthesis@@UEAAJPEAF@Z
$pdata$?CheckHealth@COPOSSpeechSynthesis@@UEAAJJPEAJ@Z DD imagerel $LN3
	DD	imagerel $LN3+180
	DD	imagerel $unwind$?CheckHealth@COPOSSpeechSynthesis@@UEAAJJPEAJ@Z
$pdata$?ClaimDevice@COPOSSpeechSynthesis@@UEAAJJPEAJ@Z DD imagerel $LN4
	DD	imagerel $LN4+270
	DD	imagerel $unwind$?ClaimDevice@COPOSSpeechSynthesis@@UEAAJJPEAJ@Z
$pdata$?ClearOutput@COPOSSpeechSynthesis@@UEAAJPEAJ@Z DD imagerel $LN3
	DD	imagerel $LN3+95
	DD	imagerel $unwind$?ClearOutput@COPOSSpeechSynthesis@@UEAAJPEAJ@Z
$pdata$?Close@COPOSSpeechSynthesis@@UEAAJPEAJ@Z DD imagerel $LN4
	DD	imagerel $LN4+264
	DD	imagerel $unwind$?Close@COPOSSpeechSynthesis@@UEAAJPEAJ@Z
$pdata$?DirectIO@COPOSSpeechSynthesis@@UEAAJJPEAJPEAPEA_W0@Z DD imagerel $LN3
	DD	imagerel $LN3+365
	DD	imagerel $unwind$?DirectIO@COPOSSpeechSynthesis@@UEAAJJPEAJPEAPEA_W0@Z
$pdata$?Open@COPOSSpeechSynthesis@@UEAAJPEA_WPEAJ@Z DD imagerel $LN59
	DD	imagerel $LN59+5325
	DD	imagerel $unwind$?Open@COPOSSpeechSynthesis@@UEAAJPEA_WPEAJ@Z
$pdata$?ReleaseDevice@COPOSSpeechSynthesis@@UEAAJPEAJ@Z DD imagerel $LN4
	DD	imagerel $LN4+168
	DD	imagerel $unwind$?ReleaseDevice@COPOSSpeechSynthesis@@UEAAJPEAJ@Z
$pdata$?ResetStatistics@COPOSSpeechSynthesis@@UEAAJPEA_WPEAJ@Z DD imagerel $LN3
	DD	imagerel $LN3+212
	DD	imagerel $unwind$?ResetStatistics@COPOSSpeechSynthesis@@UEAAJPEA_WPEAJ@Z
$pdata$?RetrieveStatistics@COPOSSpeechSynthesis@@UEAAJPEAPEA_WPEAJ@Z DD imagerel $LN3
	DD	imagerel $LN3+212
	DD	imagerel $unwind$?RetrieveStatistics@COPOSSpeechSynthesis@@UEAAJPEAPEA_WPEAJ@Z
$pdata$?UpdateStatistics@COPOSSpeechSynthesis@@UEAAJPEA_WPEAJ@Z DD imagerel $LN3
	DD	imagerel $LN3+212
	DD	imagerel $unwind$?UpdateStatistics@COPOSSpeechSynthesis@@UEAAJPEA_WPEAJ@Z
$pdata$?CompareFirmwareVersion@COPOSSpeechSynthesis@@UEAAJPEA_WPEAJ1@Z DD imagerel $LN3
	DD	imagerel $LN3+303
	DD	imagerel $unwind$?CompareFirmwareVersion@COPOSSpeechSynthesis@@UEAAJPEA_WPEAJ1@Z
$pdata$?UpdateFirmware@COPOSSpeechSynthesis@@UEAAJPEA_WPEAJ@Z DD imagerel $LN3
	DD	imagerel $LN3+212
	DD	imagerel $unwind$?UpdateFirmware@COPOSSpeechSynthesis@@UEAAJPEA_WPEAJ@Z
$pdata$?get_CapLanguage@COPOSSpeechSynthesis@@UEAAJPEAF@Z DD imagerel $LN3
	DD	imagerel $LN3+77
	DD	imagerel $unwind$?get_CapLanguage@COPOSSpeechSynthesis@@UEAAJPEAF@Z
$pdata$?get_CapPitch@COPOSSpeechSynthesis@@UEAAJPEAF@Z DD imagerel $LN3
	DD	imagerel $LN3+77
	DD	imagerel $unwind$?get_CapPitch@COPOSSpeechSynthesis@@UEAAJPEAF@Z
$pdata$?get_CapSpeed@COPOSSpeechSynthesis@@UEAAJPEAF@Z DD imagerel $LN3
	DD	imagerel $LN3+77
	DD	imagerel $unwind$?get_CapSpeed@COPOSSpeechSynthesis@@UEAAJPEAF@Z
$pdata$?get_CapVoice@COPOSSpeechSynthesis@@UEAAJPEAF@Z DD imagerel $LN3
	DD	imagerel $LN3+77
	DD	imagerel $unwind$?get_CapVoice@COPOSSpeechSynthesis@@UEAAJPEAF@Z
$pdata$?get_CapVolume@COPOSSpeechSynthesis@@UEAAJPEAF@Z DD imagerel $LN3
	DD	imagerel $LN3+77
	DD	imagerel $unwind$?get_CapVolume@COPOSSpeechSynthesis@@UEAAJPEAF@Z
$pdata$?get_Language@COPOSSpeechSynthesis@@UEAAJPEAPEA_W@Z DD imagerel $LN3
	DD	imagerel $LN3+77
	DD	imagerel $unwind$?get_Language@COPOSSpeechSynthesis@@UEAAJPEAPEA_W@Z
$pdata$?put_Language@COPOSSpeechSynthesis@@UEAAJPEA_W@Z DD imagerel $LN3
	DD	imagerel $LN3+77
	DD	imagerel $unwind$?put_Language@COPOSSpeechSynthesis@@UEAAJPEA_W@Z
$pdata$?get_LanguageList@COPOSSpeechSynthesis@@UEAAJPEAPEA_W@Z DD imagerel $LN3
	DD	imagerel $LN3+77
	DD	imagerel $unwind$?get_LanguageList@COPOSSpeechSynthesis@@UEAAJPEAPEA_W@Z
$pdata$?get_OutputIDList@COPOSSpeechSynthesis@@UEAAJPEAPEA_W@Z DD imagerel $LN3
	DD	imagerel $LN3+77
	DD	imagerel $unwind$?get_OutputIDList@COPOSSpeechSynthesis@@UEAAJPEAPEA_W@Z
$pdata$?get_Pitch@COPOSSpeechSynthesis@@UEAAJPEAJ@Z DD imagerel $LN3
	DD	imagerel $LN3+77
	DD	imagerel $unwind$?get_Pitch@COPOSSpeechSynthesis@@UEAAJPEAJ@Z
$pdata$?put_Pitch@COPOSSpeechSynthesis@@UEAAJJ@Z DD imagerel $LN3
	DD	imagerel $LN3+76
	DD	imagerel $unwind$?put_Pitch@COPOSSpeechSynthesis@@UEAAJJ@Z
$pdata$?get_Speed@COPOSSpeechSynthesis@@UEAAJPEAJ@Z DD imagerel $LN3
	DD	imagerel $LN3+77
	DD	imagerel $unwind$?get_Speed@COPOSSpeechSynthesis@@UEAAJPEAJ@Z
$pdata$?put_Speed@COPOSSpeechSynthesis@@UEAAJJ@Z DD imagerel $LN3
	DD	imagerel $LN3+76
	DD	imagerel $unwind$?put_Speed@COPOSSpeechSynthesis@@UEAAJJ@Z
$pdata$?get_Voice@COPOSSpeechSynthesis@@UEAAJPEAPEA_W@Z DD imagerel $LN3
	DD	imagerel $LN3+77
	DD	imagerel $unwind$?get_Voice@COPOSSpeechSynthesis@@UEAAJPEAPEA_W@Z
$pdata$?put_Voice@COPOSSpeechSynthesis@@UEAAJPEA_W@Z DD imagerel $LN3
	DD	imagerel $LN3+77
	DD	imagerel $unwind$?put_Voice@COPOSSpeechSynthesis@@UEAAJPEA_W@Z
$pdata$?get_VoiceList@COPOSSpeechSynthesis@@UEAAJPEAPEA_W@Z DD imagerel $LN3
	DD	imagerel $LN3+77
	DD	imagerel $unwind$?get_VoiceList@COPOSSpeechSynthesis@@UEAAJPEAPEA_W@Z
$pdata$?get_Volume@COPOSSpeechSynthesis@@UEAAJPEAJ@Z DD imagerel $LN3
	DD	imagerel $LN3+77
	DD	imagerel $unwind$?get_Volume@COPOSSpeechSynthesis@@UEAAJPEAJ@Z
$pdata$?put_Volume@COPOSSpeechSynthesis@@UEAAJJ@Z DD imagerel $LN3
	DD	imagerel $LN3+76
	DD	imagerel $unwind$?put_Volume@COPOSSpeechSynthesis@@UEAAJJ@Z
$pdata$?Speak@COPOSSpeechSynthesis@@UEAAJPEA_WPEAJ@Z DD imagerel $LN3
	DD	imagerel $LN3+212
	DD	imagerel $unwind$?Speak@COPOSSpeechSynthesis@@UEAAJPEA_WPEAJ@Z
$pdata$?SpeakImmediate@COPOSSpeechSynthesis@@UEAAJPEA_WPEAJ@Z DD imagerel $LN3
	DD	imagerel $LN3+212
	DD	imagerel $unwind$?SpeakImmediate@COPOSSpeechSynthesis@@UEAAJPEA_WPEAJ@Z
$pdata$?StopCurrentSpeaking@COPOSSpeechSynthesis@@UEAAJPEAJ@Z DD imagerel $LN3
	DD	imagerel $LN3+95
	DD	imagerel $unwind$?StopCurrentSpeaking@COPOSSpeechSynthesis@@UEAAJPEAJ@Z
$pdata$?StopSpeaking@COPOSSpeechSynthesis@@UEAAJJPEAJ@Z DD imagerel $LN3
	DD	imagerel $LN3+180
	DD	imagerel $unwind$?StopSpeaking@COPOSSpeechSynthesis@@UEAAJJPEAJ@Z
pdata	ENDS
;	COMDAT pdata
pdata	SEGMENT
$pdata$??0_CW@@QEAA@PEBD@Z DD imagerel $LN3
	DD	imagerel $LN3+65
	DD	imagerel $unwind$??0_CW@@QEAA@PEBD@Z
pdata	ENDS
;	COMDAT pdata
pdata	SEGMENT
$pdata$??0_CW@@QEAA@PEB_W@Z DD imagerel $LN3
	DD	imagerel $LN3+65
	DD	imagerel $unwind$??0_CW@@QEAA@PEB_W@Z
pdata	ENDS
;	COMDAT pdata
pdata	SEGMENT
$pdata$??B_CW@@QEAAPEB_WXZ DD imagerel $LN4
	DD	imagerel $LN4+67
	DD	imagerel $unwind$??B_CW@@QEAAPEB_WXZ
pdata	ENDS
;	COMDAT pdata
pdata	SEGMENT
$pdata$??1_CW@@QEAA@XZ DD imagerel $LN6
	DD	imagerel $LN6+113
	DD	imagerel $unwind$??1_CW@@QEAA@XZ
pdata	ENDS
;	COMDAT pdata
pdata	SEGMENT
$pdata$??0_CWNCC@@QEAA@PEBD@Z DD imagerel $LN3
	DD	imagerel $LN3+61
	DD	imagerel $unwind$??0_CWNCC@@QEAA@PEBD@Z
pdata	ENDS
;	COMDAT pdata
pdata	SEGMENT
$pdata$??B_CWNCC@@QEAAPEA_WXZ DD imagerel $LN3
	DD	imagerel $LN3+46
	DD	imagerel $unwind$??B_CWNCC@@QEAAPEA_WXZ
pdata	ENDS
;	COMDAT pdata
pdata	SEGMENT
$pdata$??1_CWNCC@@QEAA@XZ DD imagerel $LN3
	DD	imagerel $LN3+46
	DD	imagerel $unwind$??1_CWNCC@@QEAA@XZ
pdata	ENDS
;	COMDAT pdata
pdata	SEGMENT
$pdata$??__E?pConnMap@?$IConnectionPointContainerImpl@VCOPOSSpeechSynthesis@@@ATL@@0PEBU_ATL_CONNMAP_ENTRY@2@EB@@YAXXZ DD imagerel ??__E?pConnMap@?$IConnectionPointContainerImpl@VCOPOSSpeechSynthesis@@@ATL@@0PEBU_ATL_CONNMAP_ENTRY@2@EB@@YAXXZ
	DD	imagerel ??__E?pConnMap@?$IConnectionPointContainerImpl@VCOPOSSpeechSynthesis@@@ATL@@0PEBU_ATL_CONNMAP_ENTRY@2@EB@@YAXXZ+41
	DD	imagerel $unwind$??__E?pConnMap@?$IConnectionPointContainerImpl@VCOPOSSpeechSynthesis@@@ATL@@0PEBU_ATL_CONNMAP_ENTRY@2@EB@@YAXXZ
pdata	ENDS
;	COMDAT pdata
pdata	SEGMENT
$pdata$??0?$CComEnumImpl@UIEnumConnections@@$1?_GUID_b196b287_bab4_101a_b69c_00aa00341d07@@3U__s_GUID@@BUtagCONNECTDATA@@V?$_Copy@UtagCONNECTDATA@@@ATL@@@ATL@@QEAA@XZ DD imagerel $LN3
	DD	imagerel $LN3+119
	DD	imagerel $unwind$??0?$CComEnumImpl@UIEnumConnections@@$1?_GUID_b196b287_bab4_101a_b69c_00aa00341d07@@3U__s_GUID@@BUtagCONNECTDATA@@V?$_Copy@UtagCONNECTDATA@@@ATL@@@ATL@@QEAA@XZ
pdata	ENDS
;	COMDAT pdata
pdata	SEGMENT
$pdata$??1?$CComEnumImpl@UIEnumConnections@@$1?_GUID_b196b287_bab4_101a_b69c_00aa00341d07@@3U__s_GUID@@BUtagCONNECTDATA@@V?$_Copy@UtagCONNECTDATA@@@ATL@@@ATL@@UEAA@XZ DD imagerel $LN7
	DD	imagerel $LN7+150
	DD	imagerel $unwind$??1?$CComEnumImpl@UIEnumConnections@@$1?_GUID_b196b287_bab4_101a_b69c_00aa00341d07@@3U__s_GUID@@BUtagCONNECTDATA@@V?$_Copy@UtagCONNECTDATA@@@ATL@@@ATL@@UEAA@XZ
pdata	ENDS
;	COMDAT pdata
pdata	SEGMENT
$pdata$?Next@?$CComEnumImpl@UIEnumConnections@@$1?_GUID_b196b287_bab4_101a_b69c_00aa00341d07@@3U__s_GUID@@BUtagCONNECTDATA@@V?$_Copy@UtagCONNECTDATA@@@ATL@@@ATL@@UEAAJKPEAUtagCONNECTDATA@@PEAK@Z DD imagerel $LN18
	DD	imagerel $LN18+445
	DD	imagerel $unwind$?Next@?$CComEnumImpl@UIEnumConnections@@$1?_GUID_b196b287_bab4_101a_b69c_00aa00341d07@@3U__s_GUID@@BUtagCONNECTDATA@@V?$_Copy@UtagCONNECTDATA@@@ATL@@@ATL@@UEAAJKPEAUtagCONNECTDATA@@PEAK@Z
pdata	ENDS
;	COMDAT pdata
pdata	SEGMENT
$pdata$?Skip@?$CComEnumImpl@UIEnumConnections@@$1?_GUID_b196b287_bab4_101a_b69c_00aa00341d07@@3U__s_GUID@@BUtagCONNECTDATA@@V?$_Copy@UtagCONNECTDATA@@@ATL@@@ATL@@UEAAJK@Z DD imagerel $LN7
	DD	imagerel $LN7+160
	DD	imagerel $unwind$?Skip@?$CComEnumImpl@UIEnumConnections@@$1?_GUID_b196b287_bab4_101a_b69c_00aa00341d07@@3U__s_GUID@@BUtagCONNECTDATA@@V?$_Copy@UtagCONNECTDATA@@@ATL@@@ATL@@UEAAJK@Z
pdata	ENDS
;	COMDAT pdata
pdata	SEGMENT
$pdata$?Reset@?$CComEnumImpl@UIEnumConnections@@$1?_GUID_b196b287_bab4_101a_b69c_00aa00341d07@@3U__s_GUID@@BUtagCONNECTDATA@@V?$_Copy@UtagCONNECTDATA@@@ATL@@@ATL@@UEAAJXZ DD imagerel $LN3
	DD	imagerel $LN3+28
	DD	imagerel $unwind$?Reset@?$CComEnumImpl@UIEnumConnections@@$1?_GUID_b196b287_bab4_101a_b69c_00aa00341d07@@3U__s_GUID@@BUtagCONNECTDATA@@V?$_Copy@UtagCONNECTDATA@@@ATL@@@ATL@@UEAAJXZ
pdata	ENDS
;	COMDAT pdata
pdata	SEGMENT
$pdata$?Clone@?$CComEnumImpl@UIEnumConnections@@$1?_GUID_b196b287_bab4_101a_b69c_00aa00341d07@@3U__s_GUID@@BUtagCONNECTDATA@@V?$_Copy@UtagCONNECTDATA@@@ATL@@@ATL@@UEAAJPEAPEAUIEnumConnections@@@Z DD imagerel $LN13
	DD	imagerel $LN13+482
	DD	imagerel $unwind$?Clone@?$CComEnumImpl@UIEnumConnections@@$1?_GUID_b196b287_bab4_101a_b69c_00aa00341d07@@3U__s_GUID@@BUtagCONNECTDATA@@V?$_Copy@UtagCONNECTDATA@@@ATL@@@ATL@@UEAAJPEAPEAUIEnumConnections@@@Z
pdata	ENDS
;	COMDAT pdata
pdata	SEGMENT
$pdata$?Init@?$CComEnumImpl@UIEnumConnections@@$1?_GUID_b196b287_bab4_101a_b69c_00aa00341d07@@3U__s_GUID@@BUtagCONNECTDATA@@V?$_Copy@UtagCONNECTDATA@@@ATL@@@ATL@@QEAAJPEAUtagCONNECTDATA@@0PEAUIUnknown@@W4CComEnumFlags@2@@Z DD imagerel $LN16
	DD	imagerel $LN16+747
	DD	imagerel $unwind$?Init@?$CComEnumImpl@UIEnumConnections@@$1?_GUID_b196b287_bab4_101a_b69c_00aa00341d07@@3U__s_GUID@@BUtagCONNECTDATA@@V?$_Copy@UtagCONNECTDATA@@@ATL@@@ATL@@QEAAJPEAUtagCONNECTDATA@@0PEAUIUnknown@@W4CComEnumFlags@2@@Z
pdata	ENDS
;	COMDAT pdata
pdata	SEGMENT
$pdata$?_InternalQueryInterface@?$CComEnum@UIEnumConnections@@$1?_GUID_b196b287_bab4_101a_b69c_00aa00341d07@@3U__s_GUID@@BUtagCONNECTDATA@@V?$_Copy@UtagCONNECTDATA@@@ATL@@VCComSingleThreadModel@6@@ATL@@QEAAJAEBU_GUID@@PEAPEAX@Z DD imagerel $LN3
	DD	imagerel $LN3+74
	DD	imagerel $unwind$?_InternalQueryInterface@?$CComEnum@UIEnumConnections@@$1?_GUID_b196b287_bab4_101a_b69c_00aa00341d07@@3U__s_GUID@@BUtagCONNECTDATA@@V?$_Copy@UtagCONNECTDATA@@@ATL@@VCComSingleThreadModel@6@@ATL@@QEAAJAEBU_GUID@@PEAPEAX@Z
pdata	ENDS
;	COMDAT pdata
pdata	SEGMENT
$pdata$?_GetEntries@?$CComEnum@UIEnumConnections@@$1?_GUID_b196b287_bab4_101a_b69c_00aa00341d07@@3U__s_GUID@@BUtagCONNECTDATA@@V?$_Copy@UtagCONNECTDATA@@@ATL@@VCComSingleThreadModel@6@@ATL@@SAPEBU_ATL_INTMAP_ENTRY@2@XZ DD imagerel $LN3
	DD	imagerel $LN3+26
	DD	imagerel $unwind$?_GetEntries@?$CComEnum@UIEnumConnections@@$1?_GUID_b196b287_bab4_101a_b69c_00aa00341d07@@3U__s_GUID@@BUtagCONNECTDATA@@V?$_Copy@UtagCONNECTDATA@@@ATL@@VCComSingleThreadModel@6@@ATL@@SAPEBU_ATL_INTMAP_ENTRY@2@XZ
pdata	ENDS
;	COMDAT pdata
pdata	SEGMENT
$pdata$??0?$CComEnum@UIEnumConnections@@$1?_GUID_b196b287_bab4_101a_b69c_00aa00341d07@@3U__s_GUID@@BUtagCONNECTDATA@@V?$_Copy@UtagCONNECTDATA@@@ATL@@VCComSingleThreadModel@6@@ATL@@QEAA@XZ DD imagerel $LN3
	DD	imagerel $LN3+68
	DD	imagerel $unwind$??0?$CComEnum@UIEnumConnections@@$1?_GUID_b196b287_bab4_101a_b69c_00aa00341d07@@3U__s_GUID@@BUtagCONNECTDATA@@V?$_Copy@UtagCONNECTDATA@@@ATL@@VCComSingleThreadModel@6@@ATL@@QEAA@XZ
pdata	ENDS
;	COMDAT pdata
pdata	SEGMENT
$pdata$??1?$CComEnum@UIEnumConnections@@$1?_GUID_b196b287_bab4_101a_b69c_00aa00341d07@@3U__s_GUID@@BUtagCONNECTDATA@@V?$_Copy@UtagCONNECTDATA@@@ATL@@VCComSingleThreadModel@6@@ATL@@UEAA@XZ DD imagerel $LN3
	DD	imagerel $LN3+63
	DD	imagerel $unwind$??1?$CComEnum@UIEnumConnections@@$1?_GUID_b196b287_bab4_101a_b69c_00aa00341d07@@3U__s_GUID@@BUtagCONNECTDATA@@V?$_Copy@UtagCONNECTDATA@@@ATL@@VCComSingleThreadModel@6@@ATL@@UEAA@XZ
pdata	ENDS
;	COMDAT pdata
pdata	SEGMENT
$pdata$??0?$CComObject@V?$CComEnum@UIEnumConnections@@$1?_GUID_b196b287_bab4_101a_b69c_00aa00341d07@@3U__s_GUID@@BUtagCONNECTDATA@@V?$_Copy@UtagCONNECTDATA@@@ATL@@VCComSingleThreadModel@6@@ATL@@@ATL@@QEAA@PEAX@Z DD imagerel $LN3
	DD	imagerel $LN3+91
	DD	imagerel $unwind$??0?$CComObject@V?$CComEnum@UIEnumConnections@@$1?_GUID_b196b287_bab4_101a_b69c_00aa00341d07@@3U__s_GUID@@BUtagCONNECTDATA@@V?$_Copy@UtagCONNECTDATA@@@ATL@@VCComSingleThreadModel@6@@ATL@@@ATL@@QEAA@PEAX@Z
pdata	ENDS
;	COMDAT pdata
pdata	SEGMENT
$pdata$??1?$CComObject@V?$CComEnum@UIEnumConnections@@$1?_GUID_b196b287_bab4_101a_b69c_00aa00341d07@@3U__s_GUID@@BUtagCONNECTDATA@@V?$_Copy@UtagCONNECTDATA@@@ATL@@VCComSingleThreadModel@6@@ATL@@@ATL@@UEAA@XZ DD imagerel $LN3
	DD	imagerel $LN3+110
	DD	imagerel $unwind$??1?$CComObject@V?$CComEnum@UIEnumConnections@@$1?_GUID_b196b287_bab4_101a_b69c_00aa00341d07@@3U__s_GUID@@BUtagCONNECTDATA@@V?$_Copy@UtagCONNECTDATA@@@ATL@@VCComSingleThreadModel@6@@ATL@@@ATL@@UEAA@XZ
pdata	ENDS
;	COMDAT pdata
pdata	SEGMENT
$pdata$?AddRef@?$CComObject@V?$CComEnum@UIEnumConnections@@$1?_GUID_b196b287_bab4_101a_b69c_00aa00341d07@@3U__s_GUID@@BUtagCONNECTDATA@@V?$_Copy@UtagCONNECTDATA@@@ATL@@VCComSingleThreadModel@6@@ATL@@@ATL@@UEAAKXZ DD imagerel $LN3
	DD	imagerel $LN3+53
	DD	imagerel $unwind$?AddRef@?$CComObject@V?$CComEnum@UIEnumConnections@@$1?_GUID_b196b287_bab4_101a_b69c_00aa00341d07@@3U__s_GUID@@BUtagCONNECTDATA@@V?$_Copy@UtagCONNECTDATA@@@ATL@@VCComSingleThreadModel@6@@ATL@@@ATL@@UEAAKXZ
pdata	ENDS
;	COMDAT pdata
pdata	SEGMENT
$pdata$?Release@?$CComObject@V?$CComEnum@UIEnumConnections@@$1?_GUID_b196b287_bab4_101a_b69c_00aa00341d07@@3U__s_GUID@@BUtagCONNECTDATA@@V?$_Copy@UtagCONNECTDATA@@@ATL@@VCComSingleThreadModel@6@@ATL@@@ATL@@UEAAKXZ DD imagerel $LN6
	DD	imagerel $LN6+162
	DD	imagerel $unwind$?Release@?$CComObject@V?$CComEnum@UIEnumConnections@@$1?_GUID_b196b287_bab4_101a_b69c_00aa00341d07@@3U__s_GUID@@BUtagCONNECTDATA@@V?$_Copy@UtagCONNECTDATA@@@ATL@@VCComSingleThreadModel@6@@ATL@@@ATL@@UEAAKXZ
pdata	ENDS
;	COMDAT pdata
pdata	SEGMENT
$pdata$?QueryInterface@?$CComObject@V?$CComEnum@UIEnumConnections@@$1?_GUID_b196b287_bab4_101a_b69c_00aa00341d07@@3U__s_GUID@@BUtagCONNECTDATA@@V?$_Copy@UtagCONNECTDATA@@@ATL@@VCComSingleThreadModel@6@@ATL@@@ATL@@UEAAJAEBU_GUID@@PEAPEAX@Z DD imagerel $LN3
	DD	imagerel $LN3+66
	DD	imagerel $unwind$?QueryInterface@?$CComObject@V?$CComEnum@UIEnumConnections@@$1?_GUID_b196b287_bab4_101a_b69c_00aa00341d07@@3U__s_GUID@@BUtagCONNECTDATA@@V?$_Copy@UtagCONNECTDATA@@@ATL@@VCComSingleThreadModel@6@@ATL@@@ATL@@UEAAJAEBU_GUID@@PEAPEAX@Z
pdata	ENDS
;	COMDAT pdata
pdata	SEGMENT
$pdata$?CreateInstance@?$CComObject@V?$CComEnum@UIEnumConnections@@$1?_GUID_b196b287_bab4_101a_b69c_00aa00341d07@@3U__s_GUID@@BUtagCONNECTDATA@@V?$_Copy@UtagCONNECTDATA@@@ATL@@VCComSingleThreadModel@6@@ATL@@@ATL@@SAJPEAPEAV12@@Z DD imagerel $LN13
	DD	imagerel $LN13+447
	DD	imagerel $unwind$?CreateInstance@?$CComObject@V?$CComEnum@UIEnumConnections@@$1?_GUID_b196b287_bab4_101a_b69c_00aa00341d07@@3U__s_GUID@@BUtagCONNECTDATA@@V?$_Copy@UtagCONNECTDATA@@@ATL@@VCComSingleThreadModel@6@@ATL@@@ATL@@SAJPEAPEAV12@@Z
pdata	ENDS
;	COMDAT pdata
pdata	SEGMENT
$pdata$??_G?$CComObject@V?$CComEnum@UIEnumConnections@@$1?_GUID_b196b287_bab4_101a_b69c_00aa00341d07@@3U__s_GUID@@BUtagCONNECTDATA@@V?$_Copy@UtagCONNECTDATA@@@ATL@@VCComSingleThreadModel@6@@ATL@@@ATL@@UEAAPEAXI@Z DD imagerel $LN4
	DD	imagerel $LN4+81
	DD	imagerel $unwind$??_G?$CComObject@V?$CComEnum@UIEnumConnections@@$1?_GUID_b196b287_bab4_101a_b69c_00aa00341d07@@3U__s_GUID@@BUtagCONNECTDATA@@V?$_Copy@UtagCONNECTDATA@@@ATL@@VCComSingleThreadModel@6@@ATL@@@ATL@@UEAAPEAXI@Z
pdata	ENDS
;	COMDAT CRT$XCU
CRT$XCU	SEGMENT
?atlTraceGeneral$initializer$@ATL@@3P6AXXZEA DQ FLAT:??__EatlTraceGeneral@ATL@@YAXXZ ; ATL::atlTraceGeneral$initializer$
CRT$XCU	ENDS
;	COMDAT rtc$TMZ
rtc$TMZ	SEGMENT
_RTC_Shutdown.rtc$TMZ DQ FLAT:_RTC_Shutdown
rtc$TMZ	ENDS
;	COMDAT rtc$IMZ
rtc$IMZ	SEGMENT
_RTC_InitBase.rtc$IMZ DQ FLAT:_RTC_InitBase
rtc$IMZ	ENDS
;	COMDAT ?_entries@?1??_GetEntries@?$CComEnum@UIEnumConnections@@$1?_GUID_b196b287_bab4_101a_b69c_00aa00341d07@@3U__s_GUID@@BUtagCONNECTDATA@@V?$_Copy@UtagCONNECTDATA@@@ATL@@VCComSingleThreadModel@6@@ATL@@SAPEBU_ATL_INTMAP_ENTRY@3@XZ@4QBU43@B
CONST	SEGMENT
?_entries@?1??_GetEntries@?$CComEnum@UIEnumConnections@@$1?_GUID_b196b287_bab4_101a_b69c_00aa00341d07@@3U__s_GUID@@BUtagCONNECTDATA@@V?$_Copy@UtagCONNECTDATA@@@ATL@@VCComSingleThreadModel@6@@ATL@@SAPEBU_ATL_INTMAP_ENTRY@3@XZ@4QBU43@B DQ 0000000000000000H ; `ATL::CComEnum<IEnumConnections,&_GUID_b196b287_bab4_101a_b69c_00aa00341d07,tagCONNECTDATA,ATL::_Copy<tagCONNECTDATA>,ATL::CComSingleThreadModel>::_GetEntries'::`2'::_entries
	DQ	FLAT:??_C@_1BE@ENNDGLJC@?$AA_?$AAC?$AAC?$AAo?$AAm?$AAE?$AAn?$AAu?$AAm@
	DQ	0000000000000000H
	DQ	FLAT:_GUID_b196b287_bab4_101a_b69c_00aa00341d07
	DQ	0000000000000000H
	DQ	0000000000000001H
	DQ	0000000000000000H
	DQ	0000000000000000H
	DQ	0000000000000000H
CONST	ENDS
;	COMDAT ??_7?$CComObject@V?$CComEnum@UIEnumConnections@@$1?_GUID_b196b287_bab4_101a_b69c_00aa00341d07@@3U__s_GUID@@BUtagCONNECTDATA@@V?$_Copy@UtagCONNECTDATA@@@ATL@@VCComSingleThreadModel@6@@ATL@@@ATL@@6B@
CONST	SEGMENT
??_7?$CComObject@V?$CComEnum@UIEnumConnections@@$1?_GUID_b196b287_bab4_101a_b69c_00aa00341d07@@3U__s_GUID@@BUtagCONNECTDATA@@V?$_Copy@UtagCONNECTDATA@@@ATL@@VCComSingleThreadModel@6@@ATL@@@ATL@@6B@ DQ FLAT:?QueryInterface@?$CComObject@V?$CComEnum@UIEnumConnections@@$1?_GUID_b196b287_bab4_101a_b69c_00aa00341d07@@3U__s_GUID@@BUtagCONNECTDATA@@V?$_Copy@UtagCONNECTDATA@@@ATL@@VCComSingleThreadModel@6@@ATL@@@ATL@@UEAAJAEBU_GUID@@PEAPEAX@Z ; ATL::CComObject<ATL::CComEnum<IEnumConnections,&_GUID_b196b287_bab4_101a_b69c_00aa00341d07,tagCONNECTDATA,ATL::_Copy<tagCONNECTDATA>,ATL::CComSingleThreadModel> >::`vftable'
	DQ	FLAT:?AddRef@?$CComObject@V?$CComEnum@UIEnumConnections@@$1?_GUID_b196b287_bab4_101a_b69c_00aa00341d07@@3U__s_GUID@@BUtagCONNECTDATA@@V?$_Copy@UtagCONNECTDATA@@@ATL@@VCComSingleThreadModel@6@@ATL@@@ATL@@UEAAKXZ
	DQ	FLAT:?Release@?$CComObject@V?$CComEnum@UIEnumConnections@@$1?_GUID_b196b287_bab4_101a_b69c_00aa00341d07@@3U__s_GUID@@BUtagCONNECTDATA@@V?$_Copy@UtagCONNECTDATA@@@ATL@@VCComSingleThreadModel@6@@ATL@@@ATL@@UEAAKXZ
	DQ	FLAT:?Next@?$CComEnumImpl@UIEnumConnections@@$1?_GUID_b196b287_bab4_101a_b69c_00aa00341d07@@3U__s_GUID@@BUtagCONNECTDATA@@V?$_Copy@UtagCONNECTDATA@@@ATL@@@ATL@@UEAAJKPEAUtagCONNECTDATA@@PEAK@Z
	DQ	FLAT:?Skip@?$CComEnumImpl@UIEnumConnections@@$1?_GUID_b196b287_bab4_101a_b69c_00aa00341d07@@3U__s_GUID@@BUtagCONNECTDATA@@V?$_Copy@UtagCONNECTDATA@@@ATL@@@ATL@@UEAAJK@Z
	DQ	FLAT:?Reset@?$CComEnumImpl@UIEnumConnections@@$1?_GUID_b196b287_bab4_101a_b69c_00aa00341d07@@3U__s_GUID@@BUtagCONNECTDATA@@V?$_Copy@UtagCONNECTDATA@@@ATL@@@ATL@@UEAAJXZ
	DQ	FLAT:?Clone@?$CComEnumImpl@UIEnumConnections@@$1?_GUID_b196b287_bab4_101a_b69c_00aa00341d07@@3U__s_GUID@@BUtagCONNECTDATA@@V?$_Copy@UtagCONNECTDATA@@@ATL@@@ATL@@UEAAJPEAPEAUIEnumConnections@@@Z
	DQ	FLAT:??_E?$CComObject@V?$CComEnum@UIEnumConnections@@$1?_GUID_b196b287_bab4_101a_b69c_00aa00341d07@@3U__s_GUID@@BUtagCONNECTDATA@@V?$_Copy@UtagCONNECTDATA@@@ATL@@VCComSingleThreadModel@6@@ATL@@@ATL@@UEAAPEAXI@Z
CONST	ENDS
;	COMDAT ??_C@_1BE@ENNDGLJC@?$AA_?$AAC?$AAC?$AAo?$AAm?$AAE?$AAn?$AAu?$AAm@
CONST	SEGMENT
??_C@_1BE@ENNDGLJC@?$AA_?$AAC?$AAC?$AAo?$AAm?$AAE?$AAn?$AAu?$AAm@ DB '_', 00H
	DB	'C', 00H, 'C', 00H, 'o', 00H, 'm', 00H, 'E', 00H, 'n', 00H, 'u'
	DB	00H, 'm', 00H, 00H, 00H			; `string'
CONST	ENDS
;	COMDAT ??_C@_1BK@NHECDDNK@?$AAm?$AA_?$AAp?$AAD?$AAa?$AAt?$AAa?$AA?5?$AA?$DN?$AA?$DN?$AA?5?$AA0@
CONST	SEGMENT
??_C@_1BK@NHECDDNK@?$AAm?$AA_?$AAp?$AAD?$AAa?$AAt?$AAa?$AA?5?$AA?$DN?$AA?$DN?$AA?5?$AA0@ DB 'm'
	DB	00H, '_', 00H, 'p', 00H, 'D', 00H, 'a', 00H, 't', 00H, 'a', 00H
	DB	' ', 00H, '=', 00H, '=', 00H, ' ', 00H, '0', 00H, 00H, 00H ; `string'
CONST	ENDS
;	COMDAT ??_C@_1GI@CMBOLMBG@?$AA?$CK?$AAF?$AAi?$AAr?$AAe?$AAT?$AAh?$AAe?$AAE?$AAv?$AAe?$AAn?$AAt?$AA?3?$AA?5@
CONST	SEGMENT
??_C@_1GI@CMBOLMBG@?$AA?$CK?$AAF?$AAi?$AAr?$AAe?$AAT?$AAh?$AAe?$AAE?$AAv?$AAe?$AAn?$AAt?$AA?3?$AA?5@ DB '*'
	DB	00H, 'F', 00H, 'i', 00H, 'r', 00H, 'e', 00H, 'T', 00H, 'h', 00H
	DB	'e', 00H, 'E', 00H, 'v', 00H, 'e', 00H, 'n', 00H, 't', 00H, ':'
	DB	00H, ' ', 00H, 'D', 00H, 'e', 00H, 'l', 00H, 'i', 00H, 'v', 00H
	DB	'e', 00H, 'r', 00H, 'i', 00H, 'n', 00H, 'g', 00H, ' ', 00H, '%'
	DB	00H, 'l', 00H, 's', 00H, ';', 00H, ' ', 00H, 'S', 00H, 'i', 00H
	DB	'n', 00H, 'k', 00H, ' ', 00H, '0', 00H, 'x', 00H, '%', 00H, 'X'
	DB	00H, ';', 00H, ' ', 00H, 'D', 00H, 'i', 00H, 's', 00H, 'p', 00H
	DB	'I', 00H, 'D', 00H, ' ', 00H, '%', 00H, 'd', 00H, 00H, 00H ; `string'
CONST	ENDS
;	COMDAT ??_C@_1OK@FGCLCILL@?$AAC?$AA?3?$AA?2?$AAP?$AAr?$AAo?$AAg?$AAr?$AAa?$AAm?$AA?5?$AAF?$AAi?$AAl?$AAe@
CONST	SEGMENT
??_C@_1OK@FGCLCILL@?$AAC?$AA?3?$AA?2?$AAP?$AAr?$AAo?$AAg?$AAr?$AAa?$AAm?$AA?5?$AAF?$AAi?$AAl?$AAe@ DB 'C'
	DB	00H, ':', 00H, '\', 00H, 'P', 00H, 'r', 00H, 'o', 00H, 'g', 00H
	DB	'r', 00H, 'a', 00H, 'm', 00H, ' ', 00H, 'F', 00H, 'i', 00H, 'l'
	DB	00H, 'e', 00H, 's', 00H, ' ', 00H, '(', 00H, 'x', 00H, '8', 00H
	DB	'6', 00H, ')', 00H, '\', 00H, 'M', 00H, 'i', 00H, 'c', 00H, 'r'
	DB	00H, 'o', 00H, 's', 00H, 'o', 00H, 'f', 00H, 't', 00H, ' ', 00H
	DB	'V', 00H, 'i', 00H, 's', 00H, 'u', 00H, 'a', 00H, 'l', 00H, ' '
	DB	00H, 'S', 00H, 't', 00H, 'u', 00H, 'd', 00H, 'i', 00H, 'o', 00H
	DB	'\', 00H, '2', 00H, '0', 00H, '1', 00H, '9', 00H, '\', 00H, 'C'
	DB	00H, 'o', 00H, 'm', 00H, 'm', 00H, 'u', 00H, 'n', 00H, 'i', 00H
	DB	't', 00H, 'y', 00H, '\', 00H, 'V', 00H, 'C', 00H, '\', 00H, 'T'
	DB	00H, 'o', 00H, 'o', 00H, 'l', 00H, 's', 00H, '\', 00H, 'M', 00H
	DB	'S', 00H, 'V', 00H, 'C', 00H, '\', 00H, '1', 00H, '4', 00H, '.'
	DB	00H, '2', 00H, '8', 00H, '.', 00H, '2', 00H, '9', 00H, '3', 00H
	DB	'3', 00H, '3', 00H, '\', 00H, 'a', 00H, 't', 00H, 'l', 00H, 'm'
	DB	00H, 'f', 00H, 'c', 00H, '\', 00H, 'i', 00H, 'n', 00H, 'c', 00H
	DB	'l', 00H, 'u', 00H, 'd', 00H, 'e', 00H, '\', 00H, 'a', 00H, 't'
	DB	00H, 'l', 00H, 's', 00H, 'i', 00H, 'm', 00H, 'p', 00H, 'c', 00H
	DB	'o', 00H, 'l', 00H, 'l', 00H, '.', 00H, 'h', 00H, 00H, 00H ; `string'
CONST	ENDS
;	COMDAT ??_C@_1GI@EDPGCMOP@?$AAE?$AAR?$AAR?$AAO?$AAR?$AA?5?$AA?9?$AA?5?$AAO?$AAb?$AAj?$AAe?$AAc?$AAt?$AA?5@
CONST	SEGMENT
??_C@_1GI@EDPGCMOP@?$AAE?$AAR?$AAR?$AAO?$AAR?$AA?5?$AA?9?$AA?5?$AAO?$AAb?$AAj?$AAe?$AAc?$AAt?$AA?5@ DB 'E'
	DB	00H, 'R', 00H, 'R', 00H, 'O', 00H, 'R', 00H, ' ', 00H, '-', 00H
	DB	' ', 00H, 'O', 00H, 'b', 00H, 'j', 00H, 'e', 00H, 'c', 00H, 't'
	DB	00H, ' ', 00H, 'd', 00H, 'e', 00H, 'l', 00H, 'e', 00H, 't', 00H
	DB	'e', 00H, 'd', 00H, ' ', 00H, 'b', 00H, 'e', 00H, 'f', 00H, 'o'
	DB	00H, 'r', 00H, 'e', 00H, ' ', 00H, 'w', 00H, 'i', 00H, 'n', 00H
	DB	'd', 00H, 'o', 00H, 'w', 00H, ' ', 00H, 'w', 00H, 'a', 00H, 's'
	DB	00H, ' ', 00H, 'd', 00H, 'e', 00H, 's', 00H, 't', 00H, 'r', 00H
	DB	'o', 00H, 'y', 00H, 'e', 00H, 'd', 00H, 0aH, 00H, 00H, 00H ; `string'
CONST	ENDS
;	COMDAT ??_C@_0HA@JEDONBAF@C?3?2Program?5Files?5?$CIx86?$CJ?2Microsof@
CONST	SEGMENT
??_C@_0HA@JEDONBAF@C?3?2Program?5Files?5?$CIx86?$CJ?2Microsof@ DB 'C:\Pro'
	DB	'gram Files (x86)\Microsoft Visual Studio\2019\Community\VC\To'
	DB	'ols\MSVC\14.28.29333\atlmfc\include\atlwin.h', 00H ; `string'
CONST	ENDS
;	COMDAT _GUID_b196b286_bab4_101a_b69c_00aa00341d07
CONST	SEGMENT
_GUID_b196b286_bab4_101a_b69c_00aa00341d07 DD 0b196b286H
	DW	0bab4H
	DW	0101aH
	DB	0b6H
	DB	09cH
	DB	00H
	DB	0aaH
	DB	00H
	DB	034H
	DB	01dH
	DB	07H
CONST	ENDS
;	COMDAT ??_C@_1BM@CBGEBBBJ@?$AAD?$AAi?$AAr?$AAe?$AAc?$AAt?$AAI?$AAO?$AAE?$AAv?$AAe?$AAn?$AAt@
CONST	SEGMENT
??_C@_1BM@CBGEBBBJ@?$AAD?$AAi?$AAr?$AAe?$AAc?$AAt?$AAI?$AAO?$AAE?$AAv?$AAe?$AAn?$AAt@ DB 'D'
	DB	00H, 'i', 00H, 'r', 00H, 'e', 00H, 'c', 00H, 't', 00H, 'I', 00H
	DB	'O', 00H, 'E', 00H, 'v', 00H, 'e', 00H, 'n', 00H, 't', 00H, 00H
	DB	00H						; `string'
CONST	ENDS
;	COMDAT ??_C@_1BG@LODEBHDD@?$AAE?$AAr?$AAr?$AAo?$AAr?$AAE?$AAv?$AAe?$AAn?$AAt@
CONST	SEGMENT
??_C@_1BG@LODEBHDD@?$AAE?$AAr?$AAr?$AAo?$AAr?$AAE?$AAv?$AAe?$AAn?$AAt@ DB 'E'
	DB	00H, 'r', 00H, 'r', 00H, 'o', 00H, 'r', 00H, 'E', 00H, 'v', 00H
	DB	'e', 00H, 'n', 00H, 't', 00H, 00H, 00H	; `string'
CONST	ENDS
;	COMDAT ??_C@_1CI@HLBJDONE@?$AAO?$AAu?$AAt?$AAp?$AAu?$AAt?$AAC?$AAo?$AAm?$AAp?$AAl?$AAe?$AAt?$AAe?$AAE@
CONST	SEGMENT
??_C@_1CI@HLBJDONE@?$AAO?$AAu?$AAt?$AAp?$AAu?$AAt?$AAC?$AAo?$AAm?$AAp?$AAl?$AAe?$AAt?$AAe?$AAE@ DB 'O'
	DB	00H, 'u', 00H, 't', 00H, 'p', 00H, 'u', 00H, 't', 00H, 'C', 00H
	DB	'o', 00H, 'm', 00H, 'p', 00H, 'l', 00H, 'e', 00H, 't', 00H, 'e'
	DB	00H, 'E', 00H, 'v', 00H, 'e', 00H, 'n', 00H, 't', 00H, 00H, 00H ; `string'
CONST	ENDS
;	COMDAT ??_C@_1CE@PGFMOFKI@?$AAS?$AAt?$AAa?$AAt?$AAu?$AAs?$AAU?$AAp?$AAd?$AAa?$AAt?$AAe?$AAE?$AAv?$AAe@
CONST	SEGMENT
??_C@_1CE@PGFMOFKI@?$AAS?$AAt?$AAa?$AAt?$AAu?$AAs?$AAU?$AAp?$AAd?$AAa?$AAt?$AAe?$AAE?$AAv?$AAe@ DB 'S'
	DB	00H, 't', 00H, 'a', 00H, 't', 00H, 'u', 00H, 's', 00H, 'U', 00H
	DB	'p', 00H, 'd', 00H, 'a', 00H, 't', 00H, 'e', 00H, 'E', 00H, 'v'
	DB	00H, 'e', 00H, 'n', 00H, 't', 00H, 00H, 00H	; `string'
CONST	ENDS
;	COMDAT ??_C@_1EA@IMKHEMDJ@?$AA?$CK?$AAA?$AAd?$AAv?$AAi?$AAs?$AAe?$AA?3?$AA?5?$AAS?$AAi?$AAn?$AAk?$AA?5?$AA0@
CONST	SEGMENT
??_C@_1EA@IMKHEMDJ@?$AA?$CK?$AAA?$AAd?$AAv?$AAi?$AAs?$AAe?$AA?3?$AA?5?$AAS?$AAi?$AAn?$AAk?$AA?5?$AA0@ DB '*'
	DB	00H, 'A', 00H, 'd', 00H, 'v', 00H, 'i', 00H, 's', 00H, 'e', 00H
	DB	':', 00H, ' ', 00H, 'S', 00H, 'i', 00H, 'n', 00H, 'k', 00H, ' '
	DB	00H, '0', 00H, 'x', 00H, '%', 00H, 'X', 00H, ';', 00H, ' ', 00H
	DB	'C', 00H, 'o', 00H, 'o', 00H, 'k', 00H, 'i', 00H, 'e', 00H, ' '
	DB	00H, '0', 00H, 'x', 00H, '%', 00H, 'X', 00H, 00H, 00H ; `string'
CONST	ENDS
;	COMDAT ??_C@_1CO@NKNAIIAP@?$AA?$CK?$AAU?$AAn?$AAa?$AAd?$AAv?$AAi?$AAs?$AAe?$AA?3?$AA?5?$AAC?$AAo?$AAo?$AAk@
CONST	SEGMENT
??_C@_1CO@NKNAIIAP@?$AA?$CK?$AAU?$AAn?$AAa?$AAd?$AAv?$AAi?$AAs?$AAe?$AA?3?$AA?5?$AAC?$AAo?$AAo?$AAk@ DB '*'
	DB	00H, 'U', 00H, 'n', 00H, 'a', 00H, 'd', 00H, 'v', 00H, 'i', 00H
	DB	's', 00H, 'e', 00H, ':', 00H, ' ', 00H, 'C', 00H, 'o', 00H, 'o'
	DB	00H, 'k', 00H, 'i', 00H, 'e', 00H, ' ', 00H, '0', 00H, 'x', 00H
	DB	'%', 00H, 'X', 00H, 00H, 00H			; `string'
CONST	ENDS
;	COMDAT ?s_bFirst@?1??WriteTrace@COPOSSpeechSynthesis@@QEAAXPEB_WZZ@4HA
_DATA	SEGMENT
?s_bFirst@?1??WriteTrace@COPOSSpeechSynthesis@@QEAAXPEB_WZZ@4HA DD 01H ; `COPOSSpeechSynthesis::WriteTrace'::`2'::s_bFirst
_DATA	ENDS
;	COMDAT ?s_TraceFile@?1??WriteTrace@COPOSSpeechSynthesis@@QEAAXPEB_WZZ@4PA_WA
_DATA	SEGMENT
?s_TraceFile@?1??WriteTrace@COPOSSpeechSynthesis@@QEAAXPEB_WZZ@4PA_WA DB 'C'
	DB	00H, ':', 00H, '\', 00H, 'O', 00H, 'p', 00H, 'o', 00H, 's', 00H
	DB	'C', 00H, 'C', 00H, 'O', 00H, '_', 00H, 'S', 00H, 'p', 00H, 'e'
	DB	00H, 'e', 00H, 'c', 00H, 'h', 00H, 'S', 00H, 'y', 00H, 'n', 00H
	DB	't', 00H, 'h', 00H, 'e', 00H, 's', 00H, 'i', 00H, 's', 00H, '.'
	DB	00H, 'l', 00H, 'o', 00H, 'g', 00H, 00H, 00H	; `COPOSSpeechSynthesis::WriteTrace'::`2'::s_TraceFile
_DATA	ENDS
_DATA	SEGMENT
?s_RequiredMethodsPerRelease@@3PAHA DD 015H		; s_RequiredMethodsPerRelease
?s_SOMethodNames@@3PAPEADA DQ FLAT:$SG192587		; s_SOMethodNames
	DQ	FLAT:$SG192588
	DQ	FLAT:$SG192589
	DQ	FLAT:$SG192590
	DQ	FLAT:$SG192591
	DQ	FLAT:$SG192592
	DQ	FLAT:$SG192593
	DQ	FLAT:$SG192594
	DQ	FLAT:$SG192595
	DQ	FLAT:$SG192596
	DQ	FLAT:$SG192597
	DQ	FLAT:$SG192598
	DQ	FLAT:$SG192599
	DQ	FLAT:$SG192600
	DQ	FLAT:$SG192601
