; Listing generated by Microsoft (R) Optimizing Compiler Version 19.28.29336.0 

include listing.inc

INCLUDELIB LIBCMT
INCLUDELIB OLDNAMES

PUBLIC	?s_Claim@?7??GetIDsOfNames@CComTypeInfoHolder@ATL@@QEAAJAEBU_GUID@@PEAPEA_WIKPEAJ@Z@4PA_WA ; `ATL::CComTypeInfoHolder::GetIDsOfNames'::`8'::s_Claim
PUBLIC	?s_Release@?7??GetIDsOfNames@CComTypeInfoHolder@ATL@@QEAAJAEBU_GUID@@PEAPEA_WIKPEAJ@Z@4PA_WA ; `ATL::CComTypeInfoHolder::GetIDsOfNames'::`8'::s_Release
PUBLIC	?WM_ATLGETHOST@ATL@@3IA				; ATL::WM_ATLGETHOST
PUBLIC	?WM_ATLGETCONTROL@ATL@@3IA			; ATL::WM_ATLGETCONTROL
PUBLIC	IID_IOPOSSoundPlayer_1_16
PUBLIC	?GetWindowProc@?$CWindowImplBaseT@VCWindow@ATL@@V?$CWinTraits@$0FGAAAAAA@$0A@@2@@ATL@@UEAAP6A_JPEAUHWND__@@I_K_J@ZXZ ; ATL::CWindowImplBaseT<ATL::CWindow,ATL::CWinTraits<1442840576,0> >::GetWindowProc
PUBLIC	?StartWindowProc@?$CWindowImplBaseT@VCWindow@ATL@@V?$CWinTraits@$0FGAAAAAA@$0A@@2@@ATL@@SA_JPEAUHWND__@@I_K_J@Z ; ATL::CWindowImplBaseT<ATL::CWindow,ATL::CWinTraits<1442840576,0> >::StartWindowProc
PUBLIC	?OnFinalMessage@?$CWindowImplBaseT@VCWindow@ATL@@V?$CWinTraits@$0FGAAAAAA@$0A@@2@@ATL@@UEAAXPEAUHWND__@@@Z ; ATL::CWindowImplBaseT<ATL::CWindow,ATL::CWinTraits<1442840576,0> >::OnFinalMessage
PUBLIC	IID_IOPOSSoundPlayer
PUBLIC	LIBID_OposSoundPlayer_CCO
PUBLIC	DIID__IOPOSSoundPlayerEvents
PUBLIC	CLSID_OPOSSoundPlayer
PUBLIC	?GetTypeInfoCount@?$IDispatchImpl@UIOPOSSoundPlayer@@$1?IID_IOPOSSoundPlayer@@3U_GUID@@B$1?LIBID_OposSoundPlayer_CCO@@3U3@B$00$0A@VCComTypeInfoHolder@ATL@@@ATL@@UEAAJPEAI@Z ; ATL::IDispatchImpl<IOPOSSoundPlayer,&IID_IOPOSSoundPlayer,&LIBID_OposSoundPlayer_CCO,1,0,ATL::CComTypeInfoHolder>::GetTypeInfoCount
PUBLIC	?GetTypeInfo@?$IDispatchImpl@UIOPOSSoundPlayer@@$1?IID_IOPOSSoundPlayer@@3U_GUID@@B$1?LIBID_OposSoundPlayer_CCO@@3U3@B$00$0A@VCComTypeInfoHolder@ATL@@@ATL@@UEAAJIKPEAPEAUITypeInfo@@@Z ; ATL::IDispatchImpl<IOPOSSoundPlayer,&IID_IOPOSSoundPlayer,&LIBID_OposSoundPlayer_CCO,1,0,ATL::CComTypeInfoHolder>::GetTypeInfo
PUBLIC	?GetIDsOfNames@?$IDispatchImpl@UIOPOSSoundPlayer@@$1?IID_IOPOSSoundPlayer@@3U_GUID@@B$1?LIBID_OposSoundPlayer_CCO@@3U3@B$00$0A@VCComTypeInfoHolder@ATL@@@ATL@@UEAAJAEBU_GUID@@PEAPEA_WIKPEAJ@Z ; ATL::IDispatchImpl<IOPOSSoundPlayer,&IID_IOPOSSoundPlayer,&LIBID_OposSoundPlayer_CCO,1,0,ATL::CComTypeInfoHolder>::GetIDsOfNames
PUBLIC	_GUID_00000114_0000_0000_c000_000000000046
PUBLIC	?Invoke@?$IDispatchImpl@UIOPOSSoundPlayer@@$1?IID_IOPOSSoundPlayer@@3U_GUID@@B$1?LIBID_OposSoundPlayer_CCO@@3U3@B$00$0A@VCComTypeInfoHolder@ATL@@@ATL@@UEAAJJAEBU_GUID@@KGPEAUtagDISPPARAMS@@PEAUtagVARIANT@@PEAUtagEXCEPINFO@@PEAI@Z ; ATL::IDispatchImpl<IOPOSSoundPlayer,&IID_IOPOSSoundPlayer,&LIBID_OposSoundPlayer_CCO,1,0,ATL::CComTypeInfoHolder>::Invoke
PUBLIC	?_tih@?$IDispatchImpl@UIOPOSSoundPlayer@@$1?IID_IOPOSSoundPlayer@@3U_GUID@@B$1?LIBID_OposSoundPlayer_CCO@@3U3@B$00$0A@VCComTypeInfoHolder@ATL@@@ATL@@1VCComTypeInfoHolder@2@A ; ATL::IDispatchImpl<IOPOSSoundPlayer,&IID_IOPOSSoundPlayer,&LIBID_OposSoundPlayer_CCO,1,0,ATL::CComTypeInfoHolder>::_tih
PUBLIC	?CreateControlWindow@?$CComControl@VCOPOSSoundPlayer@@V?$CWindowImpl@VCOPOSSoundPlayer@@VCWindow@ATL@@V?$CWinTraits@$0FGAAAAAA@$0A@@3@@ATL@@@ATL@@UEAAPEAUHWND__@@PEAU3@AEAUtagRECT@@@Z ; ATL::CComControl<COPOSSoundPlayer,ATL::CWindowImpl<COPOSSoundPlayer,ATL::CWindow,ATL::CWinTraits<1442840576,0> > >::CreateControlWindow
PUBLIC	?ControlQueryInterface@?$CComControl@VCOPOSSoundPlayer@@V?$CWindowImpl@VCOPOSSoundPlayer@@VCWindow@ATL@@V?$CWinTraits@$0FGAAAAAA@$0A@@3@@ATL@@@ATL@@UEAAJAEBU_GUID@@PEAPEAX@Z ; ATL::CComControl<COPOSSoundPlayer,ATL::CWindowImpl<COPOSSoundPlayer,ATL::CWindow,ATL::CWinTraits<1442840576,0> > >::ControlQueryInterface
PUBLIC	?GetClassID@?$IPersistStreamInitImpl@VCOPOSSoundPlayer@@@ATL@@UEAAJPEAU_GUID@@@Z ; ATL::IPersistStreamInitImpl<COPOSSoundPlayer>::GetClassID
PUBLIC	?IsDirty@?$IPersistStreamInitImpl@VCOPOSSoundPlayer@@@ATL@@UEAAJXZ ; ATL::IPersistStreamInitImpl<COPOSSoundPlayer>::IsDirty
PUBLIC	?Load@?$IPersistStreamInitImpl@VCOPOSSoundPlayer@@@ATL@@UEAAJPEAUIStream@@@Z ; ATL::IPersistStreamInitImpl<COPOSSoundPlayer>::Load
PUBLIC	?Save@?$IPersistStreamInitImpl@VCOPOSSoundPlayer@@@ATL@@UEAAJPEAUIStream@@H@Z ; ATL::IPersistStreamInitImpl<COPOSSoundPlayer>::Save
PUBLIC	?GetSizeMax@?$IPersistStreamInitImpl@VCOPOSSoundPlayer@@@ATL@@UEAAJPEAT_ULARGE_INTEGER@@@Z ; ATL::IPersistStreamInitImpl<COPOSSoundPlayer>::GetSizeMax
PUBLIC	?InitNew@?$IPersistStreamInitImpl@VCOPOSSoundPlayer@@@ATL@@UEAAJXZ ; ATL::IPersistStreamInitImpl<COPOSSoundPlayer>::InitNew
PUBLIC	?GetControlInfo@?$IOleControlImpl@VCOPOSSoundPlayer@@@ATL@@UEAAJPEAUtagCONTROLINFO@@@Z ; ATL::IOleControlImpl<COPOSSoundPlayer>::GetControlInfo
PUBLIC	?OnMnemonic@?$IOleControlImpl@VCOPOSSoundPlayer@@@ATL@@UEAAJPEAUtagMSG@@@Z ; ATL::IOleControlImpl<COPOSSoundPlayer>::OnMnemonic
PUBLIC	?OnAmbientPropertyChange@?$IOleControlImpl@VCOPOSSoundPlayer@@@ATL@@UEAAJJ@Z ; ATL::IOleControlImpl<COPOSSoundPlayer>::OnAmbientPropertyChange
PUBLIC	?SetClientSite@?$IOleObjectImpl@VCOPOSSoundPlayer@@@ATL@@UEAAJPEAUIOleClientSite@@@Z ; ATL::IOleObjectImpl<COPOSSoundPlayer>::SetClientSite
PUBLIC	?GetClientSite@?$IOleObjectImpl@VCOPOSSoundPlayer@@@ATL@@UEAAJPEAPEAUIOleClientSite@@@Z ; ATL::IOleObjectImpl<COPOSSoundPlayer>::GetClientSite
PUBLIC	?SetHostNames@?$IOleObjectImpl@VCOPOSSoundPlayer@@@ATL@@UEAAJPEB_W0@Z ; ATL::IOleObjectImpl<COPOSSoundPlayer>::SetHostNames
PUBLIC	?Close@?$IOleObjectImpl@VCOPOSSoundPlayer@@@ATL@@UEAAJK@Z ; ATL::IOleObjectImpl<COPOSSoundPlayer>::Close
PUBLIC	?SetMoniker@?$IOleObjectImpl@VCOPOSSoundPlayer@@@ATL@@UEAAJKPEAUIMoniker@@@Z ; ATL::IOleObjectImpl<COPOSSoundPlayer>::SetMoniker
PUBLIC	?GetMoniker@?$IOleObjectImpl@VCOPOSSoundPlayer@@@ATL@@UEAAJKKPEAPEAUIMoniker@@@Z ; ATL::IOleObjectImpl<COPOSSoundPlayer>::GetMoniker
PUBLIC	?InitFromData@?$IOleObjectImpl@VCOPOSSoundPlayer@@@ATL@@UEAAJPEAUIDataObject@@HK@Z ; ATL::IOleObjectImpl<COPOSSoundPlayer>::InitFromData
PUBLIC	?GetClipboardData@?$IOleObjectImpl@VCOPOSSoundPlayer@@@ATL@@UEAAJKPEAPEAUIDataObject@@@Z ; ATL::IOleObjectImpl<COPOSSoundPlayer>::GetClipboardData
PUBLIC	??_C@_1BK@BIGILECK@?$AAA?$AAd?$AAv?$AAa?$AAp?$AAi?$AA3?$AA2?$AA?4?$AAd?$AAl?$AAl@ ; `string'
PUBLIC	?DoVerb@?$IOleObjectImpl@VCOPOSSoundPlayer@@@ATL@@UEAAJJPEAUtagMSG@@PEAUIOleClientSite@@JPEAUHWND__@@PEBUtagRECT@@@Z ; ATL::IOleObjectImpl<COPOSSoundPlayer>::DoVerb
PUBLIC	?EnumVerbs@?$IOleObjectImpl@VCOPOSSoundPlayer@@@ATL@@UEAAJPEAPEAUIEnumOLEVERB@@@Z ; ATL::IOleObjectImpl<COPOSSoundPlayer>::EnumVerbs
PUBLIC	?Update@?$IOleObjectImpl@VCOPOSSoundPlayer@@@ATL@@UEAAJXZ ; ATL::IOleObjectImpl<COPOSSoundPlayer>::Update
PUBLIC	?IsUpToDate@?$IOleObjectImpl@VCOPOSSoundPlayer@@@ATL@@UEAAJXZ ; ATL::IOleObjectImpl<COPOSSoundPlayer>::IsUpToDate
PUBLIC	?GetUserClassID@?$IOleObjectImpl@VCOPOSSoundPlayer@@@ATL@@UEAAJPEAU_GUID@@@Z ; ATL::IOleObjectImpl<COPOSSoundPlayer>::GetUserClassID
PUBLIC	?GetUserType@?$IOleObjectImpl@VCOPOSSoundPlayer@@@ATL@@UEAAJKPEAPEA_W@Z ; ATL::IOleObjectImpl<COPOSSoundPlayer>::GetUserType
PUBLIC	?SetExtent@?$IOleObjectImpl@VCOPOSSoundPlayer@@@ATL@@UEAAJKPEAUtagSIZE@@@Z ; ATL::IOleObjectImpl<COPOSSoundPlayer>::SetExtent
PUBLIC	?GetExtent@?$IOleObjectImpl@VCOPOSSoundPlayer@@@ATL@@UEAAJKPEAUtagSIZE@@@Z ; ATL::IOleObjectImpl<COPOSSoundPlayer>::GetExtent
PUBLIC	??_C@_0BI@MNCFCPFK@RegCreateKeyTransactedW@	; `string'
PUBLIC	?Advise@?$IOleObjectImpl@VCOPOSSoundPlayer@@@ATL@@UEAAJPEAUIAdviseSink@@PEAK@Z ; ATL::IOleObjectImpl<COPOSSoundPlayer>::Advise
PUBLIC	?Unadvise@?$IOleObjectImpl@VCOPOSSoundPlayer@@@ATL@@UEAAJK@Z ; ATL::IOleObjectImpl<COPOSSoundPlayer>::Unadvise
PUBLIC	?EnumAdvise@?$IOleObjectImpl@VCOPOSSoundPlayer@@@ATL@@UEAAJPEAPEAUIEnumSTATDATA@@@Z ; ATL::IOleObjectImpl<COPOSSoundPlayer>::EnumAdvise
PUBLIC	?GetMiscStatus@?$IOleObjectImpl@VCOPOSSoundPlayer@@@ATL@@UEAAJKPEAK@Z ; ATL::IOleObjectImpl<COPOSSoundPlayer>::GetMiscStatus
PUBLIC	?SetColorScheme@?$IOleObjectImpl@VCOPOSSoundPlayer@@@ATL@@UEAAJPEAUtagLOGPALETTE@@@Z ; ATL::IOleObjectImpl<COPOSSoundPlayer>::SetColorScheme
PUBLIC	LIBID_ATLLib
PUBLIC	?GetWindow@?$IOleInPlaceActiveObjectImpl@VCOPOSSoundPlayer@@@ATL@@UEAAJPEAPEAUHWND__@@@Z ; ATL::IOleInPlaceActiveObjectImpl<COPOSSoundPlayer>::GetWindow
PUBLIC	?ContextSensitiveHelp@?$IOleInPlaceActiveObjectImpl@VCOPOSSoundPlayer@@@ATL@@UEAAJH@Z ; ATL::IOleInPlaceActiveObjectImpl<COPOSSoundPlayer>::ContextSensitiveHelp
PUBLIC	?TranslateAcceleratorW@?$IOleInPlaceActiveObjectImpl@VCOPOSSoundPlayer@@@ATL@@UEAAJPEAUtagMSG@@@Z ; ATL::IOleInPlaceActiveObjectImpl<COPOSSoundPlayer>::TranslateAcceleratorW
PUBLIC	?OnFrameWindowActivate@?$IOleInPlaceActiveObjectImpl@VCOPOSSoundPlayer@@@ATL@@UEAAJH@Z ; ATL::IOleInPlaceActiveObjectImpl<COPOSSoundPlayer>::OnFrameWindowActivate
PUBLIC	?OnDocWindowActivate@?$IOleInPlaceActiveObjectImpl@VCOPOSSoundPlayer@@@ATL@@UEAAJH@Z ; ATL::IOleInPlaceActiveObjectImpl<COPOSSoundPlayer>::OnDocWindowActivate
PUBLIC	?ResizeBorder@?$IOleInPlaceActiveObjectImpl@VCOPOSSoundPlayer@@@ATL@@UEAAJPEBUtagRECT@@PEAUIOleInPlaceUIWindow@@H@Z ; ATL::IOleInPlaceActiveObjectImpl<COPOSSoundPlayer>::ResizeBorder
PUBLIC	?EnableModeless@?$IOleInPlaceActiveObjectImpl@VCOPOSSoundPlayer@@@ATL@@UEAAJH@Z ; ATL::IOleInPlaceActiveObjectImpl<COPOSSoundPlayer>::EnableModeless
PUBLIC	?Draw@?$IViewObjectExImpl@VCOPOSSoundPlayer@@@ATL@@UEAAJKJPEAXPEAUtagDVTARGETDEVICE@@PEAUHDC__@@2PEBU_RECTL@@3P6AH_K@Z4@Z ; ATL::IViewObjectExImpl<COPOSSoundPlayer>::Draw
PUBLIC	?GetColorSet@?$IViewObjectExImpl@VCOPOSSoundPlayer@@@ATL@@UEAAJKJPEAXPEAUtagDVTARGETDEVICE@@PEAUHDC__@@PEAPEAUtagLOGPALETTE@@@Z ; ATL::IViewObjectExImpl<COPOSSoundPlayer>::GetColorSet
PUBLIC	?Freeze@?$IViewObjectExImpl@VCOPOSSoundPlayer@@@ATL@@UEAAJKJPEAXPEAK@Z ; ATL::IViewObjectExImpl<COPOSSoundPlayer>::Freeze
PUBLIC	?Unfreeze@?$IViewObjectExImpl@VCOPOSSoundPlayer@@@ATL@@UEAAJK@Z ; ATL::IViewObjectExImpl<COPOSSoundPlayer>::Unfreeze
PUBLIC	?SetAdvise@?$IViewObjectExImpl@VCOPOSSoundPlayer@@@ATL@@UEAAJKKPEAUIAdviseSink@@@Z ; ATL::IViewObjectExImpl<COPOSSoundPlayer>::SetAdvise
PUBLIC	?GetAdvise@?$IViewObjectExImpl@VCOPOSSoundPlayer@@@ATL@@UEAAJPEAK0PEAPEAUIAdviseSink@@@Z ; ATL::IViewObjectExImpl<COPOSSoundPlayer>::GetAdvise
PUBLIC	?GetExtent@?$IViewObjectExImpl@VCOPOSSoundPlayer@@@ATL@@UEAAJKJPEAUtagDVTARGETDEVICE@@PEAUtagSIZE@@@Z ; ATL::IViewObjectExImpl<COPOSSoundPlayer>::GetExtent
PUBLIC	?GetRect@?$IViewObjectExImpl@VCOPOSSoundPlayer@@@ATL@@UEAAJKPEAU_RECTL@@@Z ; ATL::IViewObjectExImpl<COPOSSoundPlayer>::GetRect
PUBLIC	?GetViewStatus@?$IViewObjectExImpl@VCOPOSSoundPlayer@@@ATL@@UEAAJPEAK@Z ; ATL::IViewObjectExImpl<COPOSSoundPlayer>::GetViewStatus
PUBLIC	?QueryHitPoint@?$IViewObjectExImpl@VCOPOSSoundPlayer@@@ATL@@UEAAJKPEBUtagRECT@@UtagPOINT@@JPEAK@Z ; ATL::IViewObjectExImpl<COPOSSoundPlayer>::QueryHitPoint
PUBLIC	?QueryHitRect@?$IViewObjectExImpl@VCOPOSSoundPlayer@@@ATL@@UEAAJKPEBUtagRECT@@0JPEAK@Z ; ATL::IViewObjectExImpl<COPOSSoundPlayer>::QueryHitRect
PUBLIC	?GetNaturalExtent@?$IViewObjectExImpl@VCOPOSSoundPlayer@@@ATL@@UEAAJKJPEAUtagDVTARGETDEVICE@@PEAUHDC__@@PEAUtagExtentInfo@@PEAUtagSIZE@@@Z ; ATL::IViewObjectExImpl<COPOSSoundPlayer>::GetNaturalExtent
PUBLIC	?GetWindow@?$IOleInPlaceObjectWindowlessImpl@VCOPOSSoundPlayer@@@ATL@@UEAAJPEAPEAUHWND__@@@Z ; ATL::IOleInPlaceObjectWindowlessImpl<COPOSSoundPlayer>::GetWindow
PUBLIC	?ContextSensitiveHelp@?$IOleInPlaceObjectWindowlessImpl@VCOPOSSoundPlayer@@@ATL@@UEAAJH@Z ; ATL::IOleInPlaceObjectWindowlessImpl<COPOSSoundPlayer>::ContextSensitiveHelp
PUBLIC	?InPlaceDeactivate@?$IOleInPlaceObjectWindowlessImpl@VCOPOSSoundPlayer@@@ATL@@UEAAJXZ ; ATL::IOleInPlaceObjectWindowlessImpl<COPOSSoundPlayer>::InPlaceDeactivate
PUBLIC	?UIDeactivate@?$IOleInPlaceObjectWindowlessImpl@VCOPOSSoundPlayer@@@ATL@@UEAAJXZ ; ATL::IOleInPlaceObjectWindowlessImpl<COPOSSoundPlayer>::UIDeactivate
PUBLIC	?SetObjectRects@?$IOleInPlaceObjectWindowlessImpl@VCOPOSSoundPlayer@@@ATL@@UEAAJPEBUtagRECT@@0@Z ; ATL::IOleInPlaceObjectWindowlessImpl<COPOSSoundPlayer>::SetObjectRects
PUBLIC	?ReactivateAndUndo@?$IOleInPlaceObjectWindowlessImpl@VCOPOSSoundPlayer@@@ATL@@UEAAJXZ ; ATL::IOleInPlaceObjectWindowlessImpl<COPOSSoundPlayer>::ReactivateAndUndo
PUBLIC	?OnWindowMessage@?$IOleInPlaceObjectWindowlessImpl@VCOPOSSoundPlayer@@@ATL@@UEAAJI_K_JPEA_J@Z ; ATL::IOleInPlaceObjectWindowlessImpl<COPOSSoundPlayer>::OnWindowMessage
PUBLIC	?GetDropTarget@?$IOleInPlaceObjectWindowlessImpl@VCOPOSSoundPlayer@@@ATL@@UEAAJPEAPEAUIDropTarget@@@Z ; ATL::IOleInPlaceObjectWindowlessImpl<COPOSSoundPlayer>::GetDropTarget
PUBLIC	_GUID_b196b287_bab4_101a_b69c_00aa00341d07
PUBLIC	__pobjMapEntryFirst
PUBLIC	__pobjMapEntryLast
PUBLIC	?EnumConnectionPoints@?$IConnectionPointContainerImpl@VCOPOSSoundPlayer@@@ATL@@UEAAJPEAPEAUIEnumConnectionPoints@@@Z ; ATL::IConnectionPointContainerImpl<COPOSSoundPlayer>::EnumConnectionPoints
PUBLIC	?FindConnectionPoint@?$IConnectionPointContainerImpl@VCOPOSSoundPlayer@@@ATL@@UEAAJAEBU_GUID@@PEAPEAUIConnectionPoint@@@Z ; ATL::IConnectionPointContainerImpl<COPOSSoundPlayer>::FindConnectionPoint
PUBLIC	?_pPerfRegFunc@ATL@@3P6AJPEAUHINSTANCE__@@@ZEA	; ATL::_pPerfRegFunc
PUBLIC	?_pPerfUnRegFunc@ATL@@3P6AJXZEA			; ATL::_pPerfUnRegFunc
PUBLIC	?GetClassID@?$IPersistStorageImpl@VCOPOSSoundPlayer@@@ATL@@UEAAJPEAU_GUID@@@Z ; ATL::IPersistStorageImpl<COPOSSoundPlayer>::GetClassID
PUBLIC	?_AtlRegisterPerUser@ATL@@3_NA			; ATL::_AtlRegisterPerUser
PUBLIC	_GUID_b196b285_bab4_101a_b69c_00aa00341d07
PUBLIC	?IsDirty@?$IPersistStorageImpl@VCOPOSSoundPlayer@@@ATL@@UEAAJXZ ; ATL::IPersistStorageImpl<COPOSSoundPlayer>::IsDirty
PUBLIC	?InitNew@?$IPersistStorageImpl@VCOPOSSoundPlayer@@@ATL@@UEAAJPEAUIStorage@@@Z ; ATL::IPersistStorageImpl<COPOSSoundPlayer>::InitNew
PUBLIC	?Load@?$IPersistStorageImpl@VCOPOSSoundPlayer@@@ATL@@UEAAJPEAUIStorage@@@Z ; ATL::IPersistStorageImpl<COPOSSoundPlayer>::Load
PUBLIC	?Save@?$IPersistStorageImpl@VCOPOSSoundPlayer@@@ATL@@UEAAJPEAUIStorage@@H@Z ; ATL::IPersistStorageImpl<COPOSSoundPlayer>::Save
PUBLIC	?SaveCompleted@?$IPersistStorageImpl@VCOPOSSoundPlayer@@@ATL@@UEAAJPEAUIStorage@@@Z ; ATL::IPersistStorageImpl<COPOSSoundPlayer>::SaveCompleted
PUBLIC	?HandsOffStorage@?$IPersistStorageImpl@VCOPOSSoundPlayer@@@ATL@@UEAAJXZ ; ATL::IPersistStorageImpl<COPOSSoundPlayer>::HandsOffStorage
PUBLIC	?GetPages@?$ISpecifyPropertyPagesImpl@VCOPOSSoundPlayer@@@ATL@@UEAAJPEAUtagCAUUID@@@Z ; ATL::ISpecifyPropertyPagesImpl<COPOSSoundPlayer>::GetPages
PUBLIC	?QuickActivate@?$IQuickActivateImpl@VCOPOSSoundPlayer@@@ATL@@UEAAJPEAUtagQACONTAINER@@PEAUtagQACONTROL@@@Z ; ATL::IQuickActivateImpl<COPOSSoundPlayer>::QuickActivate
PUBLIC	?SetContentExtent@?$IQuickActivateImpl@VCOPOSSoundPlayer@@@ATL@@UEAAJPEAUtagSIZE@@@Z ; ATL::IQuickActivateImpl<COPOSSoundPlayer>::SetContentExtent
PUBLIC	?GetContentExtent@?$IQuickActivateImpl@VCOPOSSoundPlayer@@@ATL@@UEAAJPEAUtagSIZE@@@Z ; ATL::IQuickActivateImpl<COPOSSoundPlayer>::GetContentExtent
PUBLIC	?GetData@?$IDataObjectImpl@VCOPOSSoundPlayer@@@ATL@@UEAAJPEAUtagFORMATETC@@PEAUtagSTGMEDIUM@@@Z ; ATL::IDataObjectImpl<COPOSSoundPlayer>::GetData
PUBLIC	?GetDataHere@?$IDataObjectImpl@VCOPOSSoundPlayer@@@ATL@@UEAAJPEAUtagFORMATETC@@PEAUtagSTGMEDIUM@@@Z ; ATL::IDataObjectImpl<COPOSSoundPlayer>::GetDataHere
PUBLIC	?QueryGetData@?$IDataObjectImpl@VCOPOSSoundPlayer@@@ATL@@UEAAJPEAUtagFORMATETC@@@Z ; ATL::IDataObjectImpl<COPOSSoundPlayer>::QueryGetData
PUBLIC	?GetCanonicalFormatEtc@?$IDataObjectImpl@VCOPOSSoundPlayer@@@ATL@@UEAAJPEAUtagFORMATETC@@0@Z ; ATL::IDataObjectImpl<COPOSSoundPlayer>::GetCanonicalFormatEtc
PUBLIC	?SetData@?$IDataObjectImpl@VCOPOSSoundPlayer@@@ATL@@UEAAJPEAUtagFORMATETC@@PEAUtagSTGMEDIUM@@H@Z ; ATL::IDataObjectImpl<COPOSSoundPlayer>::SetData
PUBLIC	?EnumFormatEtc@?$IDataObjectImpl@VCOPOSSoundPlayer@@@ATL@@UEAAJKPEAPEAUIEnumFORMATETC@@@Z ; ATL::IDataObjectImpl<COPOSSoundPlayer>::EnumFormatEtc
PUBLIC	?DAdvise@?$IDataObjectImpl@VCOPOSSoundPlayer@@@ATL@@UEAAJPEAUtagFORMATETC@@KPEAUIAdviseSink@@PEAK@Z ; ATL::IDataObjectImpl<COPOSSoundPlayer>::DAdvise
PUBLIC	?DUnadvise@?$IDataObjectImpl@VCOPOSSoundPlayer@@@ATL@@UEAAJK@Z ; ATL::IDataObjectImpl<COPOSSoundPlayer>::DUnadvise
PUBLIC	?EnumDAdvise@?$IDataObjectImpl@VCOPOSSoundPlayer@@@ATL@@UEAAJPEAPEAUIEnumSTATDATA@@@Z ; ATL::IDataObjectImpl<COPOSSoundPlayer>::EnumDAdvise
PUBLIC	?GetClassInfoW@?$IProvideClassInfo2Impl@$1?CLSID_OPOSSoundPlayer@@3U_GUID@@B$1?DIID__IOPOSSoundPlayerEvents@@3U2@B$1?LIBID_OposSoundPlayer_CCO@@3U2@B$00$0A@VCComTypeInfoHolder@ATL@@@ATL@@UEAAJPEAPEAUITypeInfo@@@Z ; ATL::IProvideClassInfo2Impl<&CLSID_OPOSSoundPlayer,&DIID__IOPOSSoundPlayerEvents,&LIBID_OposSoundPlayer_CCO,1,0,ATL::CComTypeInfoHolder>::GetClassInfoW
PUBLIC	?GetGUID@?$IProvideClassInfo2Impl@$1?CLSID_OPOSSoundPlayer@@3U_GUID@@B$1?DIID__IOPOSSoundPlayerEvents@@3U2@B$1?LIBID_OposSoundPlayer_CCO@@3U2@B$00$0A@VCComTypeInfoHolder@ATL@@@ATL@@UEAAJKPEAU_GUID@@@Z ; ATL::IProvideClassInfo2Impl<&CLSID_OPOSSoundPlayer,&DIID__IOPOSSoundPlayerEvents,&LIBID_OposSoundPlayer_CCO,1,0,ATL::CComTypeInfoHolder>::GetGUID
PUBLIC	?_tih@?$IProvideClassInfo2Impl@$1?CLSID_OPOSSoundPlayer@@3U_GUID@@B$1?DIID__IOPOSSoundPlayerEvents@@3U2@B$1?LIBID_OposSoundPlayer_CCO@@3U2@B$00$0A@VCComTypeInfoHolder@ATL@@@ATL@@1VCComTypeInfoHolder@2@A ; ATL::IProvideClassInfo2Impl<&CLSID_OPOSSoundPlayer,&DIID__IOPOSSoundPlayerEvents,&LIBID_OposSoundPlayer_CCO,1,0,ATL::CComTypeInfoHolder>::_tih
PUBLIC	?FAccessAllowed@?$IObjectSafetyImpl@VCOPOSSoundPlayer@@$02@ATL@@MEAAHXZ ; ATL::IObjectSafetyImpl<COPOSSoundPlayer,3>::FAccessAllowed
PUBLIC	?GetInterfaceSafetyOptions@?$IObjectSafetyImpl@VCOPOSSoundPlayer@@$02@ATL@@UEAAJAEBU_GUID@@PEAK1@Z ; ATL::IObjectSafetyImpl<COPOSSoundPlayer,3>::GetInterfaceSafetyOptions
PUBLIC	?SetInterfaceSafetyOptions@?$IObjectSafetyImpl@VCOPOSSoundPlayer@@$02@ATL@@UEAAJAEBU_GUID@@KK@Z ; ATL::IObjectSafetyImpl<COPOSSoundPlayer,3>::SetInterfaceSafetyOptions
PUBLIC	?_LocCPQueryInterface@?$IConnectionPointImpl@VCOPOSSoundPlayer@@$1?IID_IPropertyNotifySink@@3U_GUID@@BVCComDynamicUnkArray@ATL@@@ATL@@UEAAJAEBU_GUID@@PEAPEAX@Z ; ATL::IConnectionPointImpl<COPOSSoundPlayer,&IID_IPropertyNotifySink,ATL::CComDynamicUnkArray>::_LocCPQueryInterface
PUBLIC	?GetConnectionInterface@?$IConnectionPointImpl@VCOPOSSoundPlayer@@$1?IID_IPropertyNotifySink@@3U_GUID@@BVCComDynamicUnkArray@ATL@@@ATL@@UEAAJPEAU_GUID@@@Z ; ATL::IConnectionPointImpl<COPOSSoundPlayer,&IID_IPropertyNotifySink,ATL::CComDynamicUnkArray>::GetConnectionInterface
PUBLIC	?GetConnectionPointContainer@?$IConnectionPointImpl@VCOPOSSoundPlayer@@$1?IID_IPropertyNotifySink@@3U_GUID@@BVCComDynamicUnkArray@ATL@@@ATL@@UEAAJPEAPEAUIConnectionPointContainer@@@Z ; ATL::IConnectionPointImpl<COPOSSoundPlayer,&IID_IPropertyNotifySink,ATL::CComDynamicUnkArray>::GetConnectionPointContainer
PUBLIC	?Advise@?$IConnectionPointImpl@VCOPOSSoundPlayer@@$1?IID_IPropertyNotifySink@@3U_GUID@@BVCComDynamicUnkArray@ATL@@@ATL@@UEAAJPEAUIUnknown@@PEAK@Z ; ATL::IConnectionPointImpl<COPOSSoundPlayer,&IID_IPropertyNotifySink,ATL::CComDynamicUnkArray>::Advise
PUBLIC	?Unadvise@?$IConnectionPointImpl@VCOPOSSoundPlayer@@$1?IID_IPropertyNotifySink@@3U_GUID@@BVCComDynamicUnkArray@ATL@@@ATL@@UEAAJK@Z ; ATL::IConnectionPointImpl<COPOSSoundPlayer,&IID_IPropertyNotifySink,ATL::CComDynamicUnkArray>::Unadvise
PUBLIC	?EnumConnections@?$IConnectionPointImpl@VCOPOSSoundPlayer@@$1?IID_IPropertyNotifySink@@3U_GUID@@BVCComDynamicUnkArray@ATL@@@ATL@@UEAAJPEAPEAUIEnumConnections@@@Z ; ATL::IConnectionPointImpl<COPOSSoundPlayer,&IID_IPropertyNotifySink,ATL::CComDynamicUnkArray>::EnumConnections
PUBLIC	?GetObjectDescription@?$CComCoClass@VCOPOSSoundPlayer@@$1?CLSID_OPOSSoundPlayer@@3U_GUID@@B@ATL@@SAPEB_WXZ ; ATL::CComCoClass<COPOSSoundPlayer,&CLSID_OPOSSoundPlayer>::GetObjectDescription
PUBLIC	?_LocCPQueryInterface@?$IConnectionPointImpl@VCOPOSSoundPlayer@@$1?DIID__IOPOSSoundPlayerEvents@@3U_GUID@@BVCComDynamicUnkArray@ATL@@@ATL@@UEAAJAEBU_GUID@@PEAPEAX@Z ; ATL::IConnectionPointImpl<COPOSSoundPlayer,&DIID__IOPOSSoundPlayerEvents,ATL::CComDynamicUnkArray>::_LocCPQueryInterface
PUBLIC	?GetConnectionInterface@?$IConnectionPointImpl@VCOPOSSoundPlayer@@$1?DIID__IOPOSSoundPlayerEvents@@3U_GUID@@BVCComDynamicUnkArray@ATL@@@ATL@@UEAAJPEAU_GUID@@@Z ; ATL::IConnectionPointImpl<COPOSSoundPlayer,&DIID__IOPOSSoundPlayerEvents,ATL::CComDynamicUnkArray>::GetConnectionInterface
PUBLIC	?GetConnectionPointContainer@?$IConnectionPointImpl@VCOPOSSoundPlayer@@$1?DIID__IOPOSSoundPlayerEvents@@3U_GUID@@BVCComDynamicUnkArray@ATL@@@ATL@@UEAAJPEAPEAUIConnectionPointContainer@@@Z ; ATL::IConnectionPointImpl<COPOSSoundPlayer,&DIID__IOPOSSoundPlayerEvents,ATL::CComDynamicUnkArray>::GetConnectionPointContainer
PUBLIC	?Advise@?$IConnectionPointImpl@VCOPOSSoundPlayer@@$1?DIID__IOPOSSoundPlayerEvents@@3U_GUID@@BVCComDynamicUnkArray@ATL@@@ATL@@UEAAJPEAUIUnknown@@PEAK@Z ; ATL::IConnectionPointImpl<COPOSSoundPlayer,&DIID__IOPOSSoundPlayerEvents,ATL::CComDynamicUnkArray>::Advise
PUBLIC	?Unadvise@?$IConnectionPointImpl@VCOPOSSoundPlayer@@$1?DIID__IOPOSSoundPlayerEvents@@3U_GUID@@BVCComDynamicUnkArray@ATL@@@ATL@@UEAAJK@Z ; ATL::IConnectionPointImpl<COPOSSoundPlayer,&DIID__IOPOSSoundPlayerEvents,ATL::CComDynamicUnkArray>::Unadvise
PUBLIC	?EnumConnections@?$IConnectionPointImpl@VCOPOSSoundPlayer@@$1?DIID__IOPOSSoundPlayerEvents@@3U_GUID@@BVCComDynamicUnkArray@ATL@@@ATL@@UEAAJPEAPEAUIEnumConnections@@@Z ; ATL::IConnectionPointImpl<COPOSSoundPlayer,&DIID__IOPOSSoundPlayerEvents,ATL::CComDynamicUnkArray>::EnumConnections
PUBLIC	?UpdateRegistry@COPOSSoundPlayer@@SAJH@Z	; COPOSSoundPlayer::UpdateRegistry
PUBLIC	?ProcessWindowMessage@COPOSSoundPlayer@@UEAAHPEAUHWND__@@I_K_JAEA_JK@Z ; COPOSSoundPlayer::ProcessWindowMessage
PUBLIC	?SODataDummy@COPOSSoundPlayer@@MEAAJJ@Z		; COPOSSoundPlayer::SODataDummy
PUBLIC	?SODirectIO@COPOSSoundPlayer@@MEAAJJPEAJPEAPEA_W@Z ; COPOSSoundPlayer::SODirectIO
PUBLIC	?SOError@COPOSSoundPlayer@@MEAAJJJJPEAJ@Z	; COPOSSoundPlayer::SOError
PUBLIC	?SOOutputComplete@COPOSSoundPlayer@@MEAAJJ@Z	; COPOSSoundPlayer::SOOutputComplete
PUBLIC	?SOStatusUpdate@COPOSSoundPlayer@@MEAAJJ@Z	; COPOSSoundPlayer::SOStatusUpdate
PUBLIC	_GUID_a6bc3ac0_dbaa_11ce_9de3_00aa004bb851
PUBLIC	_GUID_0000010c_0000_0000_c000_000000000046
PUBLIC	?_entries@?1??_GetEntries@COPOSSoundPlayer@@SAPEBU_ATL_INTMAP_ENTRY@ATL@@XZ@4QBU34@B ; `COPOSSoundPlayer::_GetEntries'::`2'::_entries
PUBLIC	?_pAtlModule@ATL@@3PEAVCAtlModule@1@EA		; ATL::_pAtlModule
PUBLIC	?m_libid@CAtlModule@ATL@@2U_GUID@@A		; ATL::CAtlModule::m_libid
PUBLIC	?Lock@CAtlModule@ATL@@UEAAJXZ			; ATL::CAtlModule::Lock
PUBLIC	?Unlock@CAtlModule@ATL@@UEAAJXZ			; ATL::CAtlModule::Unlock
PUBLIC	?GetLockCount@CAtlModule@ATL@@UEAAJXZ		; ATL::CAtlModule::GetLockCount
PUBLIC	?GetGITPtr@CAtlModule@ATL@@UEAAJPEAPEAUIGlobalInterfaceTable@@@Z ; ATL::CAtlModule::GetGITPtr
PUBLIC	_GUID_cf51ed10_62fe_11cf_bf86_00a0c9034836
PUBLIC	_GUID_0000010a_0000_0000_c000_000000000046
PUBLIC	_GUID_00000146_0000_0000_c000_000000000046
PUBLIC	_GUID_b196b283_bab4_101a_b69c_00aa00341d07
PUBLIC	_GUID_cb5bdc81_93c1_11cf_8f20_00805f2cd064
PUBLIC	?pPropMap@?1??GetPropertyMap@COPOSSoundPlayer@@SAPEBUATL_PROPMAP_ENTRY@ATL@@XZ@4QBU34@B ; `COPOSSoundPlayer::GetPropertyMap'::`2'::pPropMap
PUBLIC	??_C@_17DGDADEHL@?$AA_?$AAc?$AAx@		; `string'
PUBLIC	??_C@_17IOIMFDBO@?$AA_?$AAc?$AAy@		; `string'
PUBLIC	?_entries@?1??GetConnMap@COPOSSoundPlayer@@SAPEBU_ATL_CONNMAP_ENTRY@ATL@@PEAH@Z@4QBU34@B ; `COPOSSoundPlayer::GetConnMap'::`2'::_entries
PUBLIC	?$TSS0@?1??GetConnMap@COPOSSoundPlayer@@SAPEBU_ATL_CONNMAP_ENTRY@ATL@@PEAH@Z@4HA ; `COPOSSoundPlayer::GetConnMap'::`2'::$TSS0
PUBLIC	?CreateInstance@?$CComCreator@V?$CComObjectCached@VCComClassFactory@ATL@@@ATL@@@ATL@@SAJPEAXAEBU_GUID@@PEAPEAX@Z ; ATL::CComCreator<ATL::CComObjectCached<ATL::CComClassFactory> >::CreateInstance
PUBLIC	?CreateInstance@?$CComCreator2@V?$CComCreator@V?$CComObject@VCOPOSSoundPlayer@@@ATL@@@ATL@@V?$CComCreator@V?$CComAggObject@VCOPOSSoundPlayer@@@ATL@@@2@@ATL@@SAJPEAXAEBU_GUID@@PEAPEAX@Z ; ATL::CComCreator2<ATL::CComCreator<ATL::CComObject<COPOSSoundPlayer> >,ATL::CComCreator<ATL::CComAggObject<COPOSSoundPlayer> > >::CreateInstance
PUBLIC	?_pModule@ATL@@3PEAVCComModule@1@EA		; ATL::_pModule
PUBLIC	?AddCommonRGSReplacements@?$CAtlModuleT@VCComModule@ATL@@@ATL@@UEAAJPEAUIRegistrarBase@@@Z ; ATL::CAtlModuleT<ATL::CComModule>::AddCommonRGSReplacements
PUBLIC	?AddRef@?$CComObjectCached@VCComClassFactory@ATL@@@ATL@@UEAAKXZ ; ATL::CComObjectCached<ATL::CComClassFactory>::AddRef
PUBLIC	?Release@?$CComObjectCached@VCComClassFactory@ATL@@@ATL@@UEAAKXZ ; ATL::CComObjectCached<ATL::CComClassFactory>::Release
PUBLIC	?QueryInterface@?$CComObjectCached@VCComClassFactory@ATL@@@ATL@@UEAAJAEBU_GUID@@PEAPEAX@Z ; ATL::CComObjectCached<ATL::CComClassFactory>::QueryInterface
PUBLIC	_GUID_922eada0_3424_11cf_b670_00aa004cd6d8
PUBLIC	_GUID_9c2cad80_3424_11cf_b670_00aa004cd6d8
PUBLIC	??_7?$CComObjectCached@VCComClassFactory@ATL@@@ATL@@6B@ ; ATL::CComObjectCached<ATL::CComClassFactory>::`vftable'
PUBLIC	_GUID_00000119_0000_0000_c000_000000000046
PUBLIC	??_G?$CComObjectCached@VCComClassFactory@ATL@@@ATL@@UEAAPEAXI@Z ; ATL::CComObjectCached<ATL::CComClassFactory>::`scalar deleting destructor'
PUBLIC	_GUID_b196b289_bab4_101a_b69c_00aa00341d07
PUBLIC	?UpdateRegistryFromResourceD@CComModule@ATL@@UEAAJPEB_WHPEAU_ATL_REGMAP_ENTRY@2@@Z ; ATL::CComModule::UpdateRegistryFromResourceD
PUBLIC	?UpdateRegistryFromResourceD@CComModule@ATL@@UEAAJIHPEAU_ATL_REGMAP_ENTRY@2@@Z ; ATL::CComModule::UpdateRegistryFromResourceD
PUBLIC	?UpdateRegistryFromResource@CComModule@ATL@@UEAAJPEB_WHPEAU_ATL_REGMAP_ENTRY@2@@Z ; ATL::CComModule::UpdateRegistryFromResource
PUBLIC	?UpdateRegistryFromResource@CComModule@ATL@@UEAAJIHPEAU_ATL_REGMAP_ENTRY@2@@Z ; ATL::CComModule::UpdateRegistryFromResource
PUBLIC	??_C@_1CE@PGFMOFKI@?$AAS?$AAt?$AAa?$AAt?$AAu?$AAs?$AAU?$AAp?$AAd?$AAa?$AAt?$AAe?$AAE?$AAv?$AAe@ ; `string'
PUBLIC	??_C@_1CI@HLBJDONE@?$AAO?$AAu?$AAt?$AAp?$AAu?$AAt?$AAC?$AAo?$AAm?$AAp?$AAl?$AAe?$AAt?$AAe?$AAE@ ; `string'
PUBLIC	??_C@_1BG@LODEBHDD@?$AAE?$AAr?$AAr?$AAo?$AAr?$AAE?$AAv?$AAe?$AAn?$AAt@ ; `string'
PUBLIC	??_C@_1BM@CBGEBBBJ@?$AAD?$AAi?$AAr?$AAe?$AAc?$AAt?$AAI?$AAO?$AAE?$AAv?$AAe?$AAn?$AAt@ ; `string'
PUBLIC	_GUID_b196b286_bab4_101a_b69c_00aa00341d07
PUBLIC	??_7CComModule@ATL@@6B@				; ATL::CComModule::`vftable'
PUBLIC	??_GCComModule@ATL@@UEAAPEAXI@Z			; ATL::CComModule::`scalar deleting destructor'
PUBLIC	_GUID_00000117_0000_0000_c000_000000000046
PUBLIC	?vszContents@?6??Save@?$IPersistStorageImpl@VCOPOSSoundPlayer@@@ATL@@UEAAJPEAUIStorage@@H@Z@4PEB_WEB ; `ATL::IPersistStorageImpl<COPOSSoundPlayer>::Save'::`7'::vszContents
PUBLIC	??_C@_1BC@ENICKDH@?$AAC?$AAo?$AAn?$AAt?$AAe?$AAn?$AAt?$AAs@ ; `string'
PUBLIC	_GUID_00000000_0000_0000_c000_000000000046
PUBLIC	_GUID_00020400_0000_0000_c000_000000000046
PUBLIC	?Next@?$CComEnumImpl@UIEnumConnectionPoints@@$1?_GUID_b196b285_bab4_101a_b69c_00aa00341d07@@3U__s_GUID@@BPEAUIConnectionPoint@@V?$_CopyInterface@UIConnectionPoint@@@ATL@@@ATL@@UEAAJKPEAPEAUIConnectionPoint@@PEAK@Z ; ATL::CComEnumImpl<IEnumConnectionPoints,&_GUID_b196b285_bab4_101a_b69c_00aa00341d07,IConnectionPoint *,ATL::_CopyInterface<IConnectionPoint> >::Next
PUBLIC	?Skip@?$CComEnumImpl@UIEnumConnectionPoints@@$1?_GUID_b196b285_bab4_101a_b69c_00aa00341d07@@3U__s_GUID@@BPEAUIConnectionPoint@@V?$_CopyInterface@UIConnectionPoint@@@ATL@@@ATL@@UEAAJK@Z ; ATL::CComEnumImpl<IEnumConnectionPoints,&_GUID_b196b285_bab4_101a_b69c_00aa00341d07,IConnectionPoint *,ATL::_CopyInterface<IConnectionPoint> >::Skip
PUBLIC	?Reset@?$CComEnumImpl@UIEnumConnectionPoints@@$1?_GUID_b196b285_bab4_101a_b69c_00aa00341d07@@3U__s_GUID@@BPEAUIConnectionPoint@@V?$_CopyInterface@UIConnectionPoint@@@ATL@@@ATL@@UEAAJXZ ; ATL::CComEnumImpl<IEnumConnectionPoints,&_GUID_b196b285_bab4_101a_b69c_00aa00341d07,IConnectionPoint *,ATL::_CopyInterface<IConnectionPoint> >::Reset
PUBLIC	?Clone@?$CComEnumImpl@UIEnumConnectionPoints@@$1?_GUID_b196b285_bab4_101a_b69c_00aa00341d07@@3U__s_GUID@@BPEAUIConnectionPoint@@V?$_CopyInterface@UIConnectionPoint@@@ATL@@@ATL@@UEAAJPEAPEAUIEnumConnectionPoints@@@Z ; ATL::CComEnumImpl<IEnumConnectionPoints,&_GUID_b196b285_bab4_101a_b69c_00aa00341d07,IConnectionPoint *,ATL::_CopyInterface<IConnectionPoint> >::Clone
PUBLIC	?_pAtlAutoThreadModule@ATL@@3PEAUIAtlAutoThreadModule@1@EA ; ATL::_pAtlAutoThreadModule
PUBLIC	??_C@_1CA@ONGMEOAB@?$AAa?$AAt?$AAl?$AAT?$AAr?$AAa?$AAc?$AAe?$AAG?$AAe?$AAn?$AAe?$AAr?$AAa?$AAl@ ; `string'
PUBLIC	?AddRef@?$CComObject@V?$CComEnum@UIEnumConnectionPoints@@$1?_GUID_b196b285_bab4_101a_b69c_00aa00341d07@@3U__s_GUID@@BPEAUIConnectionPoint@@V?$_CopyInterface@UIConnectionPoint@@@ATL@@VCComSingleThreadModel@6@@ATL@@@ATL@@UEAAKXZ ; ATL::CComObject<ATL::CComEnum<IEnumConnectionPoints,&_GUID_b196b285_bab4_101a_b69c_00aa00341d07,IConnectionPoint *,ATL::_CopyInterface<IConnectionPoint>,ATL::CComSingleThreadModel> >::AddRef
PUBLIC	?Release@?$CComObject@V?$CComEnum@UIEnumConnectionPoints@@$1?_GUID_b196b285_bab4_101a_b69c_00aa00341d07@@3U__s_GUID@@BPEAUIConnectionPoint@@V?$_CopyInterface@UIConnectionPoint@@@ATL@@VCComSingleThreadModel@6@@ATL@@@ATL@@UEAAKXZ ; ATL::CComObject<ATL::CComEnum<IEnumConnectionPoints,&_GUID_b196b285_bab4_101a_b69c_00aa00341d07,IConnectionPoint *,ATL::_CopyInterface<IConnectionPoint>,ATL::CComSingleThreadModel> >::Release
PUBLIC	?QueryInterface@?$CComObject@V?$CComEnum@UIEnumConnectionPoints@@$1?_GUID_b196b285_bab4_101a_b69c_00aa00341d07@@3U__s_GUID@@BPEAUIConnectionPoint@@V?$_CopyInterface@UIConnectionPoint@@@ATL@@VCComSingleThreadModel@6@@ATL@@@ATL@@UEAAJAEBU_GUID@@PEAPEAX@Z ; ATL::CComObject<ATL::CComEnum<IEnumConnectionPoints,&_GUID_b196b285_bab4_101a_b69c_00aa00341d07,IConnectionPoint *,ATL::_CopyInterface<IConnectionPoint>,ATL::CComSingleThreadModel> >::QueryInterface
PUBLIC	??_7?$CComObject@V?$CComEnum@UIEnumConnectionPoints@@$1?_GUID_b196b285_bab4_101a_b69c_00aa00341d07@@3U__s_GUID@@BPEAUIConnectionPoint@@V?$_CopyInterface@UIConnectionPoint@@@ATL@@VCComSingleThreadModel@6@@ATL@@@ATL@@6B@ ; ATL::CComObject<ATL::CComEnum<IEnumConnectionPoints,&_GUID_b196b285_bab4_101a_b69c_00aa00341d07,IConnectionPoint *,ATL::_CopyInterface<IConnectionPoint>,ATL::CComSingleThreadModel> >::`vftable'
PUBLIC	??_G?$CComObject@V?$CComEnum@UIEnumConnectionPoints@@$1?_GUID_b196b285_bab4_101a_b69c_00aa00341d07@@3U__s_GUID@@BPEAUIConnectionPoint@@V?$_CopyInterface@UIConnectionPoint@@@ATL@@VCComSingleThreadModel@6@@ATL@@@ATL@@UEAAPEAXI@Z ; ATL::CComObject<ATL::CComEnum<IEnumConnectionPoints,&_GUID_b196b285_bab4_101a_b69c_00aa00341d07,IConnectionPoint *,ATL::_CopyInterface<IConnectionPoint>,ATL::CComSingleThreadModel> >::`scalar deleting destructor'
PUBLIC	??_C@_1BI@MAFGHOEE@?$AAa?$AAt?$AAl?$AAT?$AAr?$AAa?$AAc?$AAe?$AAC?$AAO?$AAM@ ; `string'
PUBLIC	??_C@_1BG@FPLJJEMF@?$AAa?$AAt?$AAl?$AAT?$AAr?$AAa?$AAc?$AAe?$AAQ?$AAI@ ; `string'
PUBLIC	??_C@_1CE@NIAEAIDK@?$AAa?$AAt?$AAl?$AAT?$AAr?$AAa?$AAc?$AAe?$AAR?$AAe?$AAg?$AAi?$AAs?$AAt?$AAr@ ; `string'
PUBLIC	??_C@_1CC@BNHGJFNK@?$AAa?$AAt?$AAl?$AAT?$AAr?$AAa?$AAc?$AAe?$AAR?$AAe?$AAf?$AAc?$AAo?$AAu?$AAn@ ; `string'
PUBLIC	??_C@_1CE@NAJDPMNB@?$AAa?$AAt?$AAl?$AAT?$AAr?$AAa?$AAc?$AAe?$AAW?$AAi?$AAn?$AAd?$AAo?$AAw?$AAi@ ; `string'
PUBLIC	??_C@_1CC@IMNJGBED@?$AAa?$AAt?$AAl?$AAT?$AAr?$AAa?$AAc?$AAe?$AAC?$AAo?$AAn?$AAt?$AAr?$AAo?$AAl@ ; `string'
PUBLIC	??_C@_1CA@OMOMONMN@?$AAa?$AAt?$AAl?$AAT?$AAr?$AAa?$AAc?$AAe?$AAH?$AAo?$AAs?$AAt?$AAi?$AAn?$AAg@ ; `string'
PUBLIC	??_C@_1CC@JNJJDOOH@?$AAa?$AAt?$AAl?$AAT?$AAr?$AAa?$AAc?$AAe?$AAD?$AAB?$AAC?$AAl?$AAi?$AAe?$AAn@ ; `string'
PUBLIC	??_C@_1CG@MNMMIOOI@?$AAa?$AAt?$AAl?$AAT?$AAr?$AAa?$AAc?$AAe?$AAD?$AAB?$AAP?$AAr?$AAo?$AAv?$AAi@ ; `string'
PUBLIC	??_C@_1BO@EFPHNHHN@?$AAa?$AAt?$AAl?$AAT?$AAr?$AAa?$AAc?$AAe?$AAS?$AAn?$AAa?$AAp?$AAi?$AAn@ ; `string'
PUBLIC	??_C@_1CA@DMHPIODO@?$AAa?$AAt?$AAl?$AAT?$AAr?$AAa?$AAc?$AAe?$AAN?$AAo?$AAt?$AAI?$AAm?$AAp?$AAl@ ; `string'
PUBLIC	??_C@_1CG@KFEEMCDH@?$AAa?$AAt?$AAl?$AAT?$AAr?$AAa?$AAc?$AAe?$AAA?$AAl?$AAl?$AAo?$AAc?$AAa?$AAt@ ; `string'
PUBLIC	??_C@_1CE@IMMADNAP@?$AAa?$AAt?$AAl?$AAT?$AAr?$AAa?$AAc?$AAe?$AAE?$AAx?$AAc?$AAe?$AAp?$AAt?$AAi@ ; `string'
PUBLIC	??_C@_1M@KANJNLFF@?$AAC?$AAL?$AAS?$AAI?$AAD@	; `string'
PUBLIC	??_C@_1BK@NCJHOFCL@?$AAa?$AAt?$AAl?$AAT?$AAr?$AAa?$AAc?$AAe?$AAT?$AAi?$AAm?$AAe@ ; `string'
PUBLIC	_GUID_0000010e_0000_0000_c000_000000000046
PUBLIC	_GUID_b196b288_bab4_101a_b69c_00aa00341d07
PUBLIC	??_C@_1M@EJNEECMJ@?$AAA?$AAp?$AAp?$AAI?$AAD@	; `string'
PUBLIC	??_C@_1BM@GIKLHLFD@?$AAa?$AAt?$AAl?$AAT?$AAr?$AAa?$AAc?$AAe?$AAC?$AAa?$AAc?$AAh?$AAe@ ; `string'
PUBLIC	?chDirSep@ATL@@3_WB				; ATL::chDirSep
PUBLIC	?chRightBracket@ATL@@3_WB			; ATL::chRightBracket
PUBLIC	?chLeftBracket@ATL@@3_WB			; ATL::chLeftBracket
PUBLIC	?chQuote@ATL@@3_WB				; ATL::chQuote
PUBLIC	?chEquals@ATL@@3_WB				; ATL::chEquals
PUBLIC	?szStringVal@ATL@@3QEB_WEB			; ATL::szStringVal
PUBLIC	??_C@_13HADIAKP@?$AAS@				; `string'
PUBLIC	?multiszStringVal@ATL@@3QEB_WEB			; ATL::multiszStringVal
PUBLIC	??_C@_1CA@PBPHANCD@?$AAa?$AAt?$AAl?$AAT?$AAr?$AAa?$AAc?$AAe?$AAS?$AAt?$AAe?$AAn?$AAc?$AAi?$AAl@ ; `string'
PUBLIC	??_C@_13LHMFKAAD@?$AAM@				; `string'
PUBLIC	?szDwordVal@ATL@@3QEB_WEB			; ATL::szDwordVal
PUBLIC	??_C@_13MKMNOPIJ@?$AAD@				; `string'
PUBLIC	?szBinaryVal@ATL@@3QEB_WEB			; ATL::szBinaryVal
PUBLIC	??_C@_13OPKGLAFF@?$AAB@				; `string'
PUBLIC	?szValToken@ATL@@3QEB_WEB			; ATL::szValToken
PUBLIC	??_C@_17LLMMEOJD@?$AAV?$AAa?$AAl@		; `string'
PUBLIC	?szForceRemove@ATL@@3QEB_WEB			; ATL::szForceRemove
PUBLIC	??_C@_1BI@JFAIJMHL@?$AAF?$AAo?$AAr?$AAc?$AAe?$AAR?$AAe?$AAm?$AAo?$AAv?$AAe@ ; `string'
PUBLIC	?szNoRemove@ATL@@3QEB_WEB			; ATL::szNoRemove
PUBLIC	??_C@_1BC@GCKHIPE@?$AAN?$AAo?$AAR?$AAe?$AAm?$AAo?$AAv?$AAe@ ; `string'
PUBLIC	?szDelete@ATL@@3QEB_WEB				; ATL::szDelete
PUBLIC	??_C@_1O@JDLOHAN@?$AAD?$AAe?$AAl?$AAe?$AAt?$AAe@ ; `string'
PUBLIC	??_C@_1BO@GMLILNDJ@?$AAa?$AAt?$AAl?$AAT?$AAr?$AAa?$AAc?$AAe?$AAS?$AAt?$AAr?$AAi?$AAn?$AAg@ ; `string'
PUBLIC	??_C@_1BI@OKDLCIEM@?$AAa?$AAt?$AAl?$AAT?$AAr?$AAa?$AAc?$AAe?$AAM?$AAa?$AAp@ ; `string'
PUBLIC	??_C@_1BK@DMHCKHHD@?$AAa?$AAt?$AAl?$AAT?$AAr?$AAa?$AAc?$AAe?$AAU?$AAt?$AAi?$AAl@ ; `string'
PUBLIC	??_C@_1CC@DMMBNCFG@?$AAa?$AAt?$AAl?$AAT?$AAr?$AAa?$AAc?$AAe?$AAS?$AAe?$AAc?$AAu?$AAr?$AAi?$AAt@ ; `string'
PUBLIC	??_C@_1BK@OPAPOCAL@?$AAa?$AAt?$AAl?$AAT?$AAr?$AAa?$AAc?$AAe?$AAS?$AAy?$AAn?$AAc@ ; `string'
PUBLIC	?rgszNeverDelete@CRegParser@ATL@@1QBQEB_WB	; ATL::CRegParser::rgszNeverDelete
PUBLIC	??_C@_1BM@FHAEDBFK@?$AAa?$AAt?$AAl?$AAT?$AAr?$AAa?$AAc?$AAe?$AAI?$AAS?$AAA?$AAP?$AAI@ ; `string'
PUBLIC	_GUID_00000113_0000_0000_c000_000000000046
PUBLIC	?QueryInterface@CRegObject@ATL@@UEAAJAEBU_GUID@@PEAPEAX@Z ; ATL::CRegObject::QueryInterface
PUBLIC	?AddRef@CRegObject@ATL@@UEAAKXZ			; ATL::CRegObject::AddRef
PUBLIC	?Release@CRegObject@ATL@@UEAAKXZ		; ATL::CRegObject::Release
PUBLIC	?AddReplacement@CRegObject@ATL@@UEAAJPEB_W0@Z	; ATL::CRegObject::AddReplacement
PUBLIC	?ClearReplacements@CRegObject@ATL@@UEAAJXZ	; ATL::CRegObject::ClearReplacements
PUBLIC	??_7CRegObject@ATL@@6B@				; ATL::CRegObject::`vftable'
PUBLIC	??_GCRegObject@ATL@@UEAAPEAXI@Z			; ATL::CRegObject::`scalar deleting destructor'
PUBLIC	_GUID_1c2056cc_5ef4_101b_8bc8_00aa003e3b29
PUBLIC	??_C@_1CK@OEKPKBNA@?$AAC?$AAo?$AAm?$AAp?$AAo?$AAn?$AAe?$AAn?$AAt?$AA?5?$AAC?$AAa?$AAt?$AAe?$AAg@ ; `string'
PUBLIC	??_C@_1BC@NKMMNMGL@?$AAF?$AAi?$AAl?$AAe?$AAT?$AAy?$AAp?$AAe@ ; `string'
PUBLIC	??_C@_1BE@EKPAFMCP@?$AAI?$AAn?$AAt?$AAe?$AAr?$AAf?$AAa?$AAc?$AAe@ ; `string'
PUBLIC	??_C@_1BC@MAICEHGI@?$AAH?$AAa?$AAr?$AAd?$AAw?$AAa?$AAr?$AAe@ ; `string'
PUBLIC	??_C@_19HLLLM@?$AAM?$AAi?$AAm?$AAe@		; `string'
PUBLIC	??_C@_17OMAOINJK@?$AAS?$AAA?$AAM@		; `string'
PUBLIC	??_C@_1BC@IBECJAAI@?$AAS?$AAE?$AAC?$AAU?$AAR?$AAI?$AAT?$AAY@ ; `string'
PUBLIC	??_C@_1O@GBFINDKL@?$AAS?$AAY?$AAS?$AAT?$AAE?$AAM@ ; `string'
PUBLIC	??_C@_1BC@EAHCMADO@?$AAS?$AAo?$AAf?$AAt?$AAw?$AAa?$AAr?$AAe@ ; `string'
PUBLIC	??_C@_1BA@JIHHIEDE@?$AAT?$AAy?$AAp?$AAe?$AAL?$AAi?$AAb@ ; `string'
PUBLIC	_GUID_00000112_0000_0000_c000_000000000046
PUBLIC	?map@?1??HKeyFromString@CRegParser@ATL@@KAPEAUHKEY__@@PEA_W@Z@4QBUkeymap@?1??123@KAPEAU4@0@Z@B ; `ATL::CRegParser::HKeyFromString'::`2'::map
PUBLIC	??_C@_19NCHLBIN@?$AAH?$AAK?$AAC?$AAR@		; `string'
PUBLIC	??_C@_19JAPAIJDE@?$AAH?$AAK?$AAC?$AAU@		; `string'
PUBLIC	??_C@_19PEALEEJB@?$AAH?$AAK?$AAL?$AAM@		; `string'
PUBLIC	??_C@_17PJOJPMPB@?$AAH?$AAK?$AAU@		; `string'
PUBLIC	??_C@_19PNBHMJPL@?$AAH?$AAK?$AAP?$AAD@		; `string'
PUBLIC	??_C@_19GFFAIJHG@?$AAH?$AAK?$AAD?$AAD@		; `string'
PUBLIC	??_C@_19OFICIBHH@?$AAH?$AAK?$AAC?$AAC@		; `string'
PUBLIC	??_C@_1CE@PACHPJFI@?$AAH?$AAK?$AAE?$AAY?$AA_?$AAC?$AAL?$AAA?$AAS?$AAS?$AAE?$AAS?$AA_?$AAR?$AAO@ ; `string'
PUBLIC	??_C@_1CE@HLHNCBPM@?$AAH?$AAK?$AAE?$AAY?$AA_?$AAC?$AAU?$AAR?$AAR?$AAE?$AAN?$AAT?$AA_?$AAU?$AAS@ ; `string'
PUBLIC	??_C@_1CG@GFBEANJL@?$AAH?$AAK?$AAE?$AAY?$AA_?$AAL?$AAO?$AAC?$AAA?$AAL?$AA_?$AAM?$AAA?$AAC?$AAH@ ; `string'
PUBLIC	??_C@_1BG@BGODANIO@?$AAH?$AAK?$AAE?$AAY?$AA_?$AAU?$AAS?$AAE?$AAR?$AAS@ ; `string'
PUBLIC	??_C@_1CM@KHNNAOIC@?$AAH?$AAK?$AAE?$AAY?$AA_?$AAP?$AAE?$AAR?$AAF?$AAO?$AAR?$AAM?$AAA?$AAN?$AAC@ ; `string'
PUBLIC	_GUID_3af24292_0c96_11ce_a0cf_00aa00600ab8
PUBLIC	??_C@_1BM@HAGMMHIA@?$AAH?$AAK?$AAE?$AAY?$AA_?$AAD?$AAY?$AAN?$AA_?$AAD?$AAA?$AAT?$AAA@ ; `string'
PUBLIC	??_C@_1CI@BBJOACGG@?$AAH?$AAK?$AAE?$AAY?$AA_?$AAC?$AAU?$AAR?$AAR?$AAE?$AAN?$AAT?$AA_?$AAC?$AAO@ ; `string'
PUBLIC	_GUID_00000127_0000_0000_c000_000000000046
PUBLIC	_GUID_0000010d_0000_0000_c000_000000000046
PUBLIC	_GUID_00000109_0000_0000_c000_000000000046
PUBLIC	_GUID_7fd52380_4e07_101b_ae2d_08002b2ec713
PUBLIC	??_C@_1M@PPPPCDEP@?$AAA?$AAP?$AAP?$AAI?$AAD@	; `string'
PUBLIC	??_C@_1EA@NHKLICFA@?$AAH?$AAK?$AAC?$AAU?$AA?$AN?$AA?6?$AA?$HL?$AA?7?$AAS?$AAo?$AAf?$AAt?$AAw?$AAa?$AAr@ ; `string'
PUBLIC	??_C@_1BE@LJOLIMEM@?$AA?$AN?$AA?6?$AA?7?$AA?$HN?$AA?$AN?$AA?6?$AA?$HN?$AA?$AN?$AA?6@ ; `string'
PUBLIC	?AddRef@?$CComAggObject@VCOPOSSoundPlayer@@@ATL@@UEAAKXZ ; ATL::CComAggObject<COPOSSoundPlayer>::AddRef
PUBLIC	?Release@?$CComAggObject@VCOPOSSoundPlayer@@@ATL@@UEAAKXZ ; ATL::CComAggObject<COPOSSoundPlayer>::Release
PUBLIC	?QueryInterface@?$CComAggObject@VCOPOSSoundPlayer@@@ATL@@UEAAJAEBU_GUID@@PEAPEAX@Z ; ATL::CComAggObject<COPOSSoundPlayer>::QueryInterface
PUBLIC	?AddRef@?$CComContainedObject@VCOPOSSoundPlayer@@@ATL@@UEAAKXZ ; ATL::CComContainedObject<COPOSSoundPlayer>::AddRef
PUBLIC	?Release@?$CComContainedObject@VCOPOSSoundPlayer@@@ATL@@UEAAKXZ ; ATL::CComContainedObject<COPOSSoundPlayer>::Release
PUBLIC	?QueryInterface@?$CComContainedObject@VCOPOSSoundPlayer@@@ATL@@UEAAJAEBU_GUID@@PEAPEAX@Z ; ATL::CComContainedObject<COPOSSoundPlayer>::QueryInterface
PUBLIC	??_7?$CComContainedObject@VCOPOSSoundPlayer@@@ATL@@6B?$IDispatchImpl@UIOPOSSoundPlayer@@$1?IID_IOPOSSoundPlayer@@3U_GUID@@B$1?LIBID_OposSoundPlayer_CCO@@3U3@B$00$0A@VCComTypeInfoHolder@ATL@@@1@@ ; ATL::CComContainedObject<COPOSSoundPlayer>::`vftable'
PUBLIC	??_7?$CComContainedObject@VCOPOSSoundPlayer@@@ATL@@6BCComControlBase@1@@ ; ATL::CComContainedObject<COPOSSoundPlayer>::`vftable'
PUBLIC	??_7?$CComContainedObject@VCOPOSSoundPlayer@@@ATL@@6B?$CWindowImpl@VCOPOSSoundPlayer@@VCWindow@ATL@@V?$CWinTraits@$0FGAAAAAA@$0A@@3@@1@@ ; ATL::CComContainedObject<COPOSSoundPlayer>::`vftable'
PUBLIC	??_7?$CComContainedObject@VCOPOSSoundPlayer@@@ATL@@6B?$IPersistStreamInitImpl@VCOPOSSoundPlayer@@@1@@ ; ATL::CComContainedObject<COPOSSoundPlayer>::`vftable'
PUBLIC	??_7?$CComContainedObject@VCOPOSSoundPlayer@@@ATL@@6B?$IOleControlImpl@VCOPOSSoundPlayer@@@1@@ ; ATL::CComContainedObject<COPOSSoundPlayer>::`vftable'
PUBLIC	??_7?$CComContainedObject@VCOPOSSoundPlayer@@@ATL@@6B?$IOleObjectImpl@VCOPOSSoundPlayer@@@1@@ ; ATL::CComContainedObject<COPOSSoundPlayer>::`vftable'
PUBLIC	??_7?$CComContainedObject@VCOPOSSoundPlayer@@@ATL@@6B?$IOleInPlaceActiveObjectImpl@VCOPOSSoundPlayer@@@1@@ ; ATL::CComContainedObject<COPOSSoundPlayer>::`vftable'
PUBLIC	??_7?$CComContainedObject@VCOPOSSoundPlayer@@@ATL@@6B?$IViewObjectExImpl@VCOPOSSoundPlayer@@@1@@ ; ATL::CComContainedObject<COPOSSoundPlayer>::`vftable'
PUBLIC	??_7?$CComContainedObject@VCOPOSSoundPlayer@@@ATL@@6B?$IOleInPlaceObjectWindowlessImpl@VCOPOSSoundPlayer@@@1@@ ; ATL::CComContainedObject<COPOSSoundPlayer>::`vftable'
PUBLIC	??_7?$CComContainedObject@VCOPOSSoundPlayer@@@ATL@@6B?$IConnectionPointContainerImpl@VCOPOSSoundPlayer@@@1@@ ; ATL::CComContainedObject<COPOSSoundPlayer>::`vftable'
PUBLIC	??_7?$CComContainedObject@VCOPOSSoundPlayer@@@ATL@@6B?$IPersistStorageImpl@VCOPOSSoundPlayer@@@1@@ ; ATL::CComContainedObject<COPOSSoundPlayer>::`vftable'
PUBLIC	??_7?$CComContainedObject@VCOPOSSoundPlayer@@@ATL@@6B?$ISpecifyPropertyPagesImpl@VCOPOSSoundPlayer@@@1@@ ; ATL::CComContainedObject<COPOSSoundPlayer>::`vftable'
PUBLIC	??_7?$CComContainedObject@VCOPOSSoundPlayer@@@ATL@@6B?$IQuickActivateImpl@VCOPOSSoundPlayer@@@1@@ ; ATL::CComContainedObject<COPOSSoundPlayer>::`vftable'
PUBLIC	??_7?$CComContainedObject@VCOPOSSoundPlayer@@@ATL@@6B?$IDataObjectImpl@VCOPOSSoundPlayer@@@1@@ ; ATL::CComContainedObject<COPOSSoundPlayer>::`vftable'
PUBLIC	??_7?$CComContainedObject@VCOPOSSoundPlayer@@@ATL@@6B?$IProvideClassInfo2Impl@$1?CLSID_OPOSSoundPlayer@@3U_GUID@@B$1?DIID__IOPOSSoundPlayerEvents@@3U2@B$1?LIBID_OposSoundPlayer_CCO@@3U2@B$00$0A@VCComTypeInfoHolder@ATL@@@1@@ ; ATL::CComContainedObject<COPOSSoundPlayer>::`vftable'
PUBLIC	??_7?$CComContainedObject@VCOPOSSoundPlayer@@@ATL@@6B?$IObjectSafetyImpl@VCOPOSSoundPlayer@@$02@1@@ ; ATL::CComContainedObject<COPOSSoundPlayer>::`vftable'
PUBLIC	??_7?$CComContainedObject@VCOPOSSoundPlayer@@@ATL@@6B?$IPropertyNotifySinkCP@VCOPOSSoundPlayer@@VCComDynamicUnkArray@ATL@@@1@@ ; ATL::CComContainedObject<COPOSSoundPlayer>::`vftable'
PUBLIC	??_7?$CComContainedObject@VCOPOSSoundPlayer@@@ATL@@6B?$CProxy_IOPOSEvents@VCOPOSSoundPlayer@@@@@ ; ATL::CComContainedObject<COPOSSoundPlayer>::`vftable'
PUBLIC	??_7?$CComAggObject@VCOPOSSoundPlayer@@@ATL@@6B@ ; ATL::CComAggObject<COPOSSoundPlayer>::`vftable'
PUBLIC	??_G?$CComAggObject@VCOPOSSoundPlayer@@@ATL@@UEAAPEAXI@Z ; ATL::CComAggObject<COPOSSoundPlayer>::`scalar deleting destructor'
PUBLIC	??_C@_1O@MNLDABAF@?$AAM?$AAo?$AAd?$AAu?$AAl?$AAe@ ; `string'
PUBLIC	??_C@_1BG@JBACFMF@?$AAM?$AAo?$AAd?$AAu?$AAl?$AAe?$AA_?$AAR?$AAa?$AAw@ ; `string'
PUBLIC	??_C@_1BC@KAILKFFG@?$AAR?$AAE?$AAG?$AAI?$AAS?$AAT?$AAR?$AAY@ ; `string'
PUBLIC	?AddRef@?$CComObject@VCOPOSSoundPlayer@@@ATL@@UEAAKXZ ; ATL::CComObject<COPOSSoundPlayer>::AddRef
PUBLIC	?Release@?$CComObject@VCOPOSSoundPlayer@@@ATL@@UEAAKXZ ; ATL::CComObject<COPOSSoundPlayer>::Release
PUBLIC	?QueryInterface@?$CComObject@VCOPOSSoundPlayer@@@ATL@@UEAAJAEBU_GUID@@PEAPEAX@Z ; ATL::CComObject<COPOSSoundPlayer>::QueryInterface
PUBLIC	??_7?$CComObject@VCOPOSSoundPlayer@@@ATL@@6B?$IDispatchImpl@UIOPOSSoundPlayer@@$1?IID_IOPOSSoundPlayer@@3U_GUID@@B$1?LIBID_OposSoundPlayer_CCO@@3U3@B$00$0A@VCComTypeInfoHolder@ATL@@@1@@ ; ATL::CComObject<COPOSSoundPlayer>::`vftable'
PUBLIC	??_7?$CComObject@VCOPOSSoundPlayer@@@ATL@@6BCComControlBase@1@@ ; ATL::CComObject<COPOSSoundPlayer>::`vftable'
PUBLIC	??_7?$CComObject@VCOPOSSoundPlayer@@@ATL@@6B?$CWindowImpl@VCOPOSSoundPlayer@@VCWindow@ATL@@V?$CWinTraits@$0FGAAAAAA@$0A@@3@@1@@ ; ATL::CComObject<COPOSSoundPlayer>::`vftable'
PUBLIC	??_7?$CComObject@VCOPOSSoundPlayer@@@ATL@@6B?$IPersistStreamInitImpl@VCOPOSSoundPlayer@@@1@@ ; ATL::CComObject<COPOSSoundPlayer>::`vftable'
PUBLIC	??_7?$CComObject@VCOPOSSoundPlayer@@@ATL@@6B?$IOleControlImpl@VCOPOSSoundPlayer@@@1@@ ; ATL::CComObject<COPOSSoundPlayer>::`vftable'
PUBLIC	??_7?$CComObject@VCOPOSSoundPlayer@@@ATL@@6B?$IOleObjectImpl@VCOPOSSoundPlayer@@@1@@ ; ATL::CComObject<COPOSSoundPlayer>::`vftable'
PUBLIC	??_7?$CComObject@VCOPOSSoundPlayer@@@ATL@@6B?$IOleInPlaceActiveObjectImpl@VCOPOSSoundPlayer@@@1@@ ; ATL::CComObject<COPOSSoundPlayer>::`vftable'
PUBLIC	??_7?$CComObject@VCOPOSSoundPlayer@@@ATL@@6B?$IViewObjectExImpl@VCOPOSSoundPlayer@@@1@@ ; ATL::CComObject<COPOSSoundPlayer>::`vftable'
PUBLIC	??_7?$CComObject@VCOPOSSoundPlayer@@@ATL@@6B?$IOleInPlaceObjectWindowlessImpl@VCOPOSSoundPlayer@@@1@@ ; ATL::CComObject<COPOSSoundPlayer>::`vftable'
PUBLIC	??_7?$CComObject@VCOPOSSoundPlayer@@@ATL@@6B?$IConnectionPointContainerImpl@VCOPOSSoundPlayer@@@1@@ ; ATL::CComObject<COPOSSoundPlayer>::`vftable'
PUBLIC	??_7?$CComObject@VCOPOSSoundPlayer@@@ATL@@6B?$IPersistStorageImpl@VCOPOSSoundPlayer@@@1@@ ; ATL::CComObject<COPOSSoundPlayer>::`vftable'
PUBLIC	??_7?$CComObject@VCOPOSSoundPlayer@@@ATL@@6B?$ISpecifyPropertyPagesImpl@VCOPOSSoundPlayer@@@1@@ ; ATL::CComObject<COPOSSoundPlayer>::`vftable'
PUBLIC	??_7?$CComObject@VCOPOSSoundPlayer@@@ATL@@6B?$IQuickActivateImpl@VCOPOSSoundPlayer@@@1@@ ; ATL::CComObject<COPOSSoundPlayer>::`vftable'
PUBLIC	??_7?$CComObject@VCOPOSSoundPlayer@@@ATL@@6B?$IDataObjectImpl@VCOPOSSoundPlayer@@@1@@ ; ATL::CComObject<COPOSSoundPlayer>::`vftable'
PUBLIC	??_7?$CComObject@VCOPOSSoundPlayer@@@ATL@@6B?$IProvideClassInfo2Impl@$1?CLSID_OPOSSoundPlayer@@3U_GUID@@B$1?DIID__IOPOSSoundPlayerEvents@@3U2@B$1?LIBID_OposSoundPlayer_CCO@@3U2@B$00$0A@VCComTypeInfoHolder@ATL@@@1@@ ; ATL::CComObject<COPOSSoundPlayer>::`vftable'
PUBLIC	??_7?$CComObject@VCOPOSSoundPlayer@@@ATL@@6B?$IObjectSafetyImpl@VCOPOSSoundPlayer@@$02@1@@ ; ATL::CComObject<COPOSSoundPlayer>::`vftable'
PUBLIC	??_7?$CComObject@VCOPOSSoundPlayer@@@ATL@@6B?$IPropertyNotifySinkCP@VCOPOSSoundPlayer@@VCComDynamicUnkArray@ATL@@@1@@ ; ATL::CComObject<COPOSSoundPlayer>::`vftable'
PUBLIC	??_7?$CComObject@VCOPOSSoundPlayer@@@ATL@@6B?$CProxy_IOPOSEvents@VCOPOSSoundPlayer@@@@@ ; ATL::CComObject<COPOSSoundPlayer>::`vftable'
PUBLIC	??_C@_11LOCGONAA@@				; `string'
PUBLIC	??_C@_1O@GBFKGNEO@?$AAA?$AAT?$AAL?$AA?3?$AA?$CF?$AAp@ ; `string'
PUBLIC	??_C@_1BA@PICGEGJB@?$AAD?$AAI?$AAS?$AAP?$AAL?$AAA?$AAY@ ; `string'
PUBLIC	CLSID_Registrar
PUBLIC	IID_IRegistrar
PUBLIC	IID_IDocHostUIHandlerDispatch
PUBLIC	_GUID_9bfbbc02_eff1_101a_84ed_00aa00341d07
PUBLIC	?wc@?1??GetWndClassInfo@?$CWindowImpl@VCOPOSSoundPlayer@@VCWindow@ATL@@V?$CWinTraits@$0FGAAAAAA@$0A@@3@@ATL@@SAAEAU_ATL_WNDCLASSINFOW@3@XZ@4U43@A ; `ATL::CWindowImpl<COPOSSoundPlayer,ATL::CWindow,ATL::CWinTraits<1442840576,0> >::GetWndClassInfo'::`2'::wc
PUBLIC	?_entries@?1??_GetEntries@?$CComEnum@UIEnumConnectionPoints@@$1?_GUID_b196b285_bab4_101a_b69c_00aa00341d07@@3U__s_GUID@@BPEAUIConnectionPoint@@V?$_CopyInterface@UIConnectionPoint@@@ATL@@VCComSingleThreadModel@6@@ATL@@SAPEBU_ATL_INTMAP_ENTRY@3@XZ@4QBU43@B ; `ATL::CComEnum<IEnumConnectionPoints,&_GUID_b196b285_bab4_101a_b69c_00aa00341d07,IConnectionPoint *,ATL::_CopyInterface<IConnectionPoint>,ATL::CComSingleThreadModel>::_GetEntries'::`2'::_entries
PUBLIC	IID_IAxWinHostWindow
PUBLIC	?_OptionsStorage@?1??__local_stdio_printf_options@@9@4_KA ; `__local_stdio_printf_options'::`2'::_OptionsStorage
PUBLIC	_GUID_b196b284_bab4_101a_b69c_00aa00341d07
PUBLIC	IID_IAxWinHostWindowLic
PUBLIC	IID_IAxWinAmbientDispatch
PUBLIC	_GUID_00020412_0000_0000_c000_000000000046
PUBLIC	_GUID_00020401_0000_0000_c000_000000000046
PUBLIC	?OnDrawAdvanced@CComControlBase@ATL@@UEAAJAEAUATL_DRAWINFO@@@Z ; ATL::CComControlBase::OnDrawAdvanced
PUBLIC	IID_IAxWinAmbientDispatchEx
PUBLIC	IID_IInternalConnection
PUBLIC	?Next@?$CComEnumImpl@UIEnumConnections@@$1?_GUID_b196b287_bab4_101a_b69c_00aa00341d07@@3U__s_GUID@@BUtagCONNECTDATA@@V?$_Copy@UtagCONNECTDATA@@@ATL@@@ATL@@UEAAJKPEAUtagCONNECTDATA@@PEAK@Z ; ATL::CComEnumImpl<IEnumConnections,&_GUID_b196b287_bab4_101a_b69c_00aa00341d07,tagCONNECTDATA,ATL::_Copy<tagCONNECTDATA> >::Next
PUBLIC	?Skip@?$CComEnumImpl@UIEnumConnections@@$1?_GUID_b196b287_bab4_101a_b69c_00aa00341d07@@3U__s_GUID@@BUtagCONNECTDATA@@V?$_Copy@UtagCONNECTDATA@@@ATL@@@ATL@@UEAAJK@Z ; ATL::CComEnumImpl<IEnumConnections,&_GUID_b196b287_bab4_101a_b69c_00aa00341d07,tagCONNECTDATA,ATL::_Copy<tagCONNECTDATA> >::Skip
PUBLIC	?Reset@?$CComEnumImpl@UIEnumConnections@@$1?_GUID_b196b287_bab4_101a_b69c_00aa00341d07@@3U__s_GUID@@BUtagCONNECTDATA@@V?$_Copy@UtagCONNECTDATA@@@ATL@@@ATL@@UEAAJXZ ; ATL::CComEnumImpl<IEnumConnections,&_GUID_b196b287_bab4_101a_b69c_00aa00341d07,tagCONNECTDATA,ATL::_Copy<tagCONNECTDATA> >::Reset
PUBLIC	?Clone@?$CComEnumImpl@UIEnumConnections@@$1?_GUID_b196b287_bab4_101a_b69c_00aa00341d07@@3U__s_GUID@@BUtagCONNECTDATA@@V?$_Copy@UtagCONNECTDATA@@@ATL@@@ATL@@UEAAJPEAPEAUIEnumConnections@@@Z ; ATL::CComEnumImpl<IEnumConnections,&_GUID_b196b287_bab4_101a_b69c_00aa00341d07,tagCONNECTDATA,ATL::_Copy<tagCONNECTDATA> >::Clone
PUBLIC	?rcDefault@CWindow@ATL@@2UtagRECT@@A		; ATL::CWindow::rcDefault
PUBLIC	?AddRef@?$CComObject@V?$CComEnum@UIEnumConnections@@$1?_GUID_b196b287_bab4_101a_b69c_00aa00341d07@@3U__s_GUID@@BUtagCONNECTDATA@@V?$_Copy@UtagCONNECTDATA@@@ATL@@VCComSingleThreadModel@6@@ATL@@@ATL@@UEAAKXZ ; ATL::CComObject<ATL::CComEnum<IEnumConnections,&_GUID_b196b287_bab4_101a_b69c_00aa00341d07,tagCONNECTDATA,ATL::_Copy<tagCONNECTDATA>,ATL::CComSingleThreadModel> >::AddRef
PUBLIC	?Release@?$CComObject@V?$CComEnum@UIEnumConnections@@$1?_GUID_b196b287_bab4_101a_b69c_00aa00341d07@@3U__s_GUID@@BUtagCONNECTDATA@@V?$_Copy@UtagCONNECTDATA@@@ATL@@VCComSingleThreadModel@6@@ATL@@@ATL@@UEAAKXZ ; ATL::CComObject<ATL::CComEnum<IEnumConnections,&_GUID_b196b287_bab4_101a_b69c_00aa00341d07,tagCONNECTDATA,ATL::_Copy<tagCONNECTDATA>,ATL::CComSingleThreadModel> >::Release
PUBLIC	?QueryInterface@?$CComObject@V?$CComEnum@UIEnumConnections@@$1?_GUID_b196b287_bab4_101a_b69c_00aa00341d07@@3U__s_GUID@@BUtagCONNECTDATA@@V?$_Copy@UtagCONNECTDATA@@@ATL@@VCComSingleThreadModel@6@@ATL@@@ATL@@UEAAJAEBU_GUID@@PEAPEAX@Z ; ATL::CComObject<ATL::CComEnum<IEnumConnections,&_GUID_b196b287_bab4_101a_b69c_00aa00341d07,tagCONNECTDATA,ATL::_Copy<tagCONNECTDATA>,ATL::CComSingleThreadModel> >::QueryInterface
PUBLIC	??_7?$CComObject@V?$CComEnum@UIEnumConnections@@$1?_GUID_b196b287_bab4_101a_b69c_00aa00341d07@@3U__s_GUID@@BUtagCONNECTDATA@@V?$_Copy@UtagCONNECTDATA@@@ATL@@VCComSingleThreadModel@6@@ATL@@@ATL@@6B@ ; ATL::CComObject<ATL::CComEnum<IEnumConnections,&_GUID_b196b287_bab4_101a_b69c_00aa00341d07,tagCONNECTDATA,ATL::_Copy<tagCONNECTDATA>,ATL::CComSingleThreadModel> >::`vftable'
PUBLIC	??_G?$CComObject@V?$CComEnum@UIEnumConnections@@$1?_GUID_b196b287_bab4_101a_b69c_00aa00341d07@@3U__s_GUID@@BUtagCONNECTDATA@@V?$_Copy@UtagCONNECTDATA@@@ATL@@VCComSingleThreadModel@6@@ATL@@@ATL@@UEAAPEAXI@Z ; ATL::CComObject<ATL::CComEnum<IEnumConnections,&_GUID_b196b287_bab4_101a_b69c_00aa00341d07,tagCONNECTDATA,ATL::_Copy<tagCONNECTDATA>,ATL::CComSingleThreadModel> >::`scalar deleting destructor'
PUBLIC	_GUID_55980ba0_35aa_11cf_b671_00aa004cd6d8
PUBLIC	_GUID_b196b28b_bab4_101a_b69c_00aa00341d07
PUBLIC	?_entries@?1??_GetEntries@?$CComEnum@UIEnumConnections@@$1?_GUID_b196b287_bab4_101a_b69c_00aa00341d07@@3U__s_GUID@@BUtagCONNECTDATA@@V?$_Copy@UtagCONNECTDATA@@@ATL@@VCComSingleThreadModel@6@@ATL@@SAPEBU_ATL_INTMAP_ENTRY@3@XZ@4QBU43@B ; `ATL::CComEnum<IEnumConnections,&_GUID_b196b287_bab4_101a_b69c_00aa00341d07,tagCONNECTDATA,ATL::_Copy<tagCONNECTDATA>,ATL::CComSingleThreadModel>::_GetEntries'::`2'::_entries
PUBLIC	??_E?$CComObject@VCOPOSSoundPlayer@@@ATL@@W7EAAPEAXI@Z ; [thunk]:ATL::CComObject<COPOSSoundPlayer>::`vector deleting destructor'
PUBLIC	??_E?$CComObject@VCOPOSSoundPlayer@@@ATL@@WHA@EAAPEAXI@Z ; [thunk]:ATL::CComObject<COPOSSoundPlayer>::`vector deleting destructor'
PUBLIC	?QueryInterface@?$CComObject@VCOPOSSoundPlayer@@@ATL@@WLI@EAAJAEBU_GUID@@PEAPEAX@Z ; [thunk]:ATL::CComObject<COPOSSoundPlayer>::QueryInterface`adjustor{184}'
PUBLIC	?AddRef@?$CComObject@VCOPOSSoundPlayer@@@ATL@@WLI@EAAKXZ ; [thunk]:ATL::CComObject<COPOSSoundPlayer>::AddRef`adjustor{184}'
PUBLIC	?Release@?$CComObject@VCOPOSSoundPlayer@@@ATL@@WLI@EAAKXZ ; [thunk]:ATL::CComObject<COPOSSoundPlayer>::Release`adjustor{184}'
PUBLIC	?QueryInterface@?$CComObject@VCOPOSSoundPlayer@@@ATL@@WMA@EAAJAEBU_GUID@@PEAPEAX@Z ; [thunk]:ATL::CComObject<COPOSSoundPlayer>::QueryInterface`adjustor{192}'
PUBLIC	?AddRef@?$CComObject@VCOPOSSoundPlayer@@@ATL@@WMA@EAAKXZ ; [thunk]:ATL::CComObject<COPOSSoundPlayer>::AddRef`adjustor{192}'
PUBLIC	?Release@?$CComObject@VCOPOSSoundPlayer@@@ATL@@WMA@EAAKXZ ; [thunk]:ATL::CComObject<COPOSSoundPlayer>::Release`adjustor{192}'
PUBLIC	?QueryInterface@?$CComObject@VCOPOSSoundPlayer@@@ATL@@WMI@EAAJAEBU_GUID@@PEAPEAX@Z ; [thunk]:ATL::CComObject<COPOSSoundPlayer>::QueryInterface`adjustor{200}'
PUBLIC	?AddRef@?$CComObject@VCOPOSSoundPlayer@@@ATL@@WMI@EAAKXZ ; [thunk]:ATL::CComObject<COPOSSoundPlayer>::AddRef`adjustor{200}'
PUBLIC	?Release@?$CComObject@VCOPOSSoundPlayer@@@ATL@@WMI@EAAKXZ ; [thunk]:ATL::CComObject<COPOSSoundPlayer>::Release`adjustor{200}'
PUBLIC	?QueryInterface@?$CComObject@VCOPOSSoundPlayer@@@ATL@@WNA@EAAJAEBU_GUID@@PEAPEAX@Z ; [thunk]:ATL::CComObject<COPOSSoundPlayer>::QueryInterface`adjustor{208}'
PUBLIC	?AddRef@?$CComObject@VCOPOSSoundPlayer@@@ATL@@WNA@EAAKXZ ; [thunk]:ATL::CComObject<COPOSSoundPlayer>::AddRef`adjustor{208}'
PUBLIC	?Release@?$CComObject@VCOPOSSoundPlayer@@@ATL@@WNA@EAAKXZ ; [thunk]:ATL::CComObject<COPOSSoundPlayer>::Release`adjustor{208}'
PUBLIC	?QueryInterface@?$CComObject@VCOPOSSoundPlayer@@@ATL@@WNI@EAAJAEBU_GUID@@PEAPEAX@Z ; [thunk]:ATL::CComObject<COPOSSoundPlayer>::QueryInterface`adjustor{216}'
PUBLIC	?AddRef@?$CComObject@VCOPOSSoundPlayer@@@ATL@@WNI@EAAKXZ ; [thunk]:ATL::CComObject<COPOSSoundPlayer>::AddRef`adjustor{216}'
PUBLIC	?Release@?$CComObject@VCOPOSSoundPlayer@@@ATL@@WNI@EAAKXZ ; [thunk]:ATL::CComObject<COPOSSoundPlayer>::Release`adjustor{216}'
PUBLIC	?QueryInterface@?$CComObject@VCOPOSSoundPlayer@@@ATL@@WOA@EAAJAEBU_GUID@@PEAPEAX@Z ; [thunk]:ATL::CComObject<COPOSSoundPlayer>::QueryInterface`adjustor{224}'
PUBLIC	?AddRef@?$CComObject@VCOPOSSoundPlayer@@@ATL@@WOA@EAAKXZ ; [thunk]:ATL::CComObject<COPOSSoundPlayer>::AddRef`adjustor{224}'
PUBLIC	?Release@?$CComObject@VCOPOSSoundPlayer@@@ATL@@WOA@EAAKXZ ; [thunk]:ATL::CComObject<COPOSSoundPlayer>::Release`adjustor{224}'
PUBLIC	?QueryInterface@?$CComObject@VCOPOSSoundPlayer@@@ATL@@WOI@EAAJAEBU_GUID@@PEAPEAX@Z ; [thunk]:ATL::CComObject<COPOSSoundPlayer>::QueryInterface`adjustor{232}'
PUBLIC	?AddRef@?$CComObject@VCOPOSSoundPlayer@@@ATL@@WOI@EAAKXZ ; [thunk]:ATL::CComObject<COPOSSoundPlayer>::AddRef`adjustor{232}'
PUBLIC	?Release@?$CComObject@VCOPOSSoundPlayer@@@ATL@@WOI@EAAKXZ ; [thunk]:ATL::CComObject<COPOSSoundPlayer>::Release`adjustor{232}'
PUBLIC	?QueryInterface@?$CComObject@VCOPOSSoundPlayer@@@ATL@@WPA@EAAJAEBU_GUID@@PEAPEAX@Z ; [thunk]:ATL::CComObject<COPOSSoundPlayer>::QueryInterface`adjustor{240}'
PUBLIC	?AddRef@?$CComObject@VCOPOSSoundPlayer@@@ATL@@WPA@EAAKXZ ; [thunk]:ATL::CComObject<COPOSSoundPlayer>::AddRef`adjustor{240}'
PUBLIC	?Release@?$CComObject@VCOPOSSoundPlayer@@@ATL@@WPA@EAAKXZ ; [thunk]:ATL::CComObject<COPOSSoundPlayer>::Release`adjustor{240}'
PUBLIC	?QueryInterface@?$CComObject@VCOPOSSoundPlayer@@@ATL@@WPI@EAAJAEBU_GUID@@PEAPEAX@Z ; [thunk]:ATL::CComObject<COPOSSoundPlayer>::QueryInterface`adjustor{248}'
PUBLIC	?AddRef@?$CComObject@VCOPOSSoundPlayer@@@ATL@@WPI@EAAKXZ ; [thunk]:ATL::CComObject<COPOSSoundPlayer>::AddRef`adjustor{248}'
PUBLIC	?Release@?$CComObject@VCOPOSSoundPlayer@@@ATL@@WPI@EAAKXZ ; [thunk]:ATL::CComObject<COPOSSoundPlayer>::Release`adjustor{248}'
PUBLIC	?QueryInterface@?$CComObject@VCOPOSSoundPlayer@@@ATL@@WBAA@EAAJAEBU_GUID@@PEAPEAX@Z ; [thunk]:ATL::CComObject<COPOSSoundPlayer>::QueryInterface`adjustor{256}'
PUBLIC	?AddRef@?$CComObject@VCOPOSSoundPlayer@@@ATL@@WBAA@EAAKXZ ; [thunk]:ATL::CComObject<COPOSSoundPlayer>::AddRef`adjustor{256}'
PUBLIC	?Release@?$CComObject@VCOPOSSoundPlayer@@@ATL@@WBAA@EAAKXZ ; [thunk]:ATL::CComObject<COPOSSoundPlayer>::Release`adjustor{256}'
PUBLIC	?QueryInterface@?$CComObject@VCOPOSSoundPlayer@@@ATL@@WBAI@EAAJAEBU_GUID@@PEAPEAX@Z ; [thunk]:ATL::CComObject<COPOSSoundPlayer>::QueryInterface`adjustor{264}'
PUBLIC	?AddRef@?$CComObject@VCOPOSSoundPlayer@@@ATL@@WBAI@EAAKXZ ; [thunk]:ATL::CComObject<COPOSSoundPlayer>::AddRef`adjustor{264}'
PUBLIC	?Release@?$CComObject@VCOPOSSoundPlayer@@@ATL@@WBAI@EAAKXZ ; [thunk]:ATL::CComObject<COPOSSoundPlayer>::Release`adjustor{264}'
PUBLIC	?QueryInterface@?$CComObject@VCOPOSSoundPlayer@@@ATL@@WBBA@EAAJAEBU_GUID@@PEAPEAX@Z ; [thunk]:ATL::CComObject<COPOSSoundPlayer>::QueryInterface`adjustor{272}'
PUBLIC	?AddRef@?$CComObject@VCOPOSSoundPlayer@@@ATL@@WBBA@EAAKXZ ; [thunk]:ATL::CComObject<COPOSSoundPlayer>::AddRef`adjustor{272}'
PUBLIC	?Release@?$CComObject@VCOPOSSoundPlayer@@@ATL@@WBBA@EAAKXZ ; [thunk]:ATL::CComObject<COPOSSoundPlayer>::Release`adjustor{272}'
PUBLIC	?QueryInterface@?$CComObject@VCOPOSSoundPlayer@@@ATL@@WBBI@EAAJAEBU_GUID@@PEAPEAX@Z ; [thunk]:ATL::CComObject<COPOSSoundPlayer>::QueryInterface`adjustor{280}'
PUBLIC	?AddRef@?$CComObject@VCOPOSSoundPlayer@@@ATL@@WBBI@EAAKXZ ; [thunk]:ATL::CComObject<COPOSSoundPlayer>::AddRef`adjustor{280}'
PUBLIC	?Release@?$CComObject@VCOPOSSoundPlayer@@@ATL@@WBBI@EAAKXZ ; [thunk]:ATL::CComObject<COPOSSoundPlayer>::Release`adjustor{280}'
PUBLIC	?ObjectMain@CComObjectRootBase@ATL@@SAX_N@Z	; ATL::CComObjectRootBase::ObjectMain
PUBLIC	?AddRef@?$CComObject@VCOPOSSoundPlayer@@@ATL@@WBCI@EAAKXZ ; [thunk]:ATL::CComObject<COPOSSoundPlayer>::AddRef`adjustor{296}'
PUBLIC	?GetCategoryMap@CComObjectRootBase@ATL@@SAPEBU_ATL_CATMAP_ENTRY@2@XZ ; ATL::CComObjectRootBase::GetCategoryMap
PUBLIC	?Release@?$CComObject@VCOPOSSoundPlayer@@@ATL@@WBCI@EAAKXZ ; [thunk]:ATL::CComObject<COPOSSoundPlayer>::Release`adjustor{296}'
PUBLIC	?AddRef@?$CComObject@VCOPOSSoundPlayer@@@ATL@@WBEA@EAAKXZ ; [thunk]:ATL::CComObject<COPOSSoundPlayer>::AddRef`adjustor{320}'
PUBLIC	?Release@?$CComObject@VCOPOSSoundPlayer@@@ATL@@WBEA@EAAKXZ ; [thunk]:ATL::CComObject<COPOSSoundPlayer>::Release`adjustor{320}'
PUBLIC	??_E?$CComContainedObject@VCOPOSSoundPlayer@@@ATL@@W7EAAPEAXI@Z ; [thunk]:ATL::CComContainedObject<COPOSSoundPlayer>::`vector deleting destructor'
PUBLIC	??_E?$CComContainedObject@VCOPOSSoundPlayer@@@ATL@@WHA@EAAPEAXI@Z ; [thunk]:ATL::CComContainedObject<COPOSSoundPlayer>::`vector deleting destructor'
PUBLIC	?QueryInterface@?$CComContainedObject@VCOPOSSoundPlayer@@@ATL@@WLI@EAAJAEBU_GUID@@PEAPEAX@Z ; [thunk]:ATL::CComContainedObject<COPOSSoundPlayer>::QueryInterface`adjustor{184}'
PUBLIC	?AddRef@?$CComContainedObject@VCOPOSSoundPlayer@@@ATL@@WLI@EAAKXZ ; [thunk]:ATL::CComContainedObject<COPOSSoundPlayer>::AddRef`adjustor{184}'
PUBLIC	?Release@?$CComContainedObject@VCOPOSSoundPlayer@@@ATL@@WLI@EAAKXZ ; [thunk]:ATL::CComContainedObject<COPOSSoundPlayer>::Release`adjustor{184}'
PUBLIC	?QueryInterface@?$CComContainedObject@VCOPOSSoundPlayer@@@ATL@@WMA@EAAJAEBU_GUID@@PEAPEAX@Z ; [thunk]:ATL::CComContainedObject<COPOSSoundPlayer>::QueryInterface`adjustor{192}'
PUBLIC	?AddRef@?$CComContainedObject@VCOPOSSoundPlayer@@@ATL@@WMA@EAAKXZ ; [thunk]:ATL::CComContainedObject<COPOSSoundPlayer>::AddRef`adjustor{192}'
PUBLIC	?Release@?$CComContainedObject@VCOPOSSoundPlayer@@@ATL@@WMA@EAAKXZ ; [thunk]:ATL::CComContainedObject<COPOSSoundPlayer>::Release`adjustor{192}'
PUBLIC	?QueryInterface@?$CComContainedObject@VCOPOSSoundPlayer@@@ATL@@WMI@EAAJAEBU_GUID@@PEAPEAX@Z ; [thunk]:ATL::CComContainedObject<COPOSSoundPlayer>::QueryInterface`adjustor{200}'
PUBLIC	?AddRef@?$CComContainedObject@VCOPOSSoundPlayer@@@ATL@@WMI@EAAKXZ ; [thunk]:ATL::CComContainedObject<COPOSSoundPlayer>::AddRef`adjustor{200}'
PUBLIC	?Release@?$CComContainedObject@VCOPOSSoundPlayer@@@ATL@@WMI@EAAKXZ ; [thunk]:ATL::CComContainedObject<COPOSSoundPlayer>::Release`adjustor{200}'
PUBLIC	?QueryInterface@?$CComContainedObject@VCOPOSSoundPlayer@@@ATL@@WNA@EAAJAEBU_GUID@@PEAPEAX@Z ; [thunk]:ATL::CComContainedObject<COPOSSoundPlayer>::QueryInterface`adjustor{208}'
PUBLIC	?AddRef@?$CComContainedObject@VCOPOSSoundPlayer@@@ATL@@WNA@EAAKXZ ; [thunk]:ATL::CComContainedObject<COPOSSoundPlayer>::AddRef`adjustor{208}'
PUBLIC	?Release@?$CComContainedObject@VCOPOSSoundPlayer@@@ATL@@WNA@EAAKXZ ; [thunk]:ATL::CComContainedObject<COPOSSoundPlayer>::Release`adjustor{208}'
PUBLIC	?QueryInterface@?$CComContainedObject@VCOPOSSoundPlayer@@@ATL@@WNI@EAAJAEBU_GUID@@PEAPEAX@Z ; [thunk]:ATL::CComContainedObject<COPOSSoundPlayer>::QueryInterface`adjustor{216}'
PUBLIC	?AddRef@?$CComContainedObject@VCOPOSSoundPlayer@@@ATL@@WNI@EAAKXZ ; [thunk]:ATL::CComContainedObject<COPOSSoundPlayer>::AddRef`adjustor{216}'
PUBLIC	?Release@?$CComContainedObject@VCOPOSSoundPlayer@@@ATL@@WNI@EAAKXZ ; [thunk]:ATL::CComContainedObject<COPOSSoundPlayer>::Release`adjustor{216}'
PUBLIC	?QueryInterface@?$CComContainedObject@VCOPOSSoundPlayer@@@ATL@@WOA@EAAJAEBU_GUID@@PEAPEAX@Z ; [thunk]:ATL::CComContainedObject<COPOSSoundPlayer>::QueryInterface`adjustor{224}'
PUBLIC	?AddRef@?$CComContainedObject@VCOPOSSoundPlayer@@@ATL@@WOA@EAAKXZ ; [thunk]:ATL::CComContainedObject<COPOSSoundPlayer>::AddRef`adjustor{224}'
PUBLIC	?Release@?$CComContainedObject@VCOPOSSoundPlayer@@@ATL@@WOA@EAAKXZ ; [thunk]:ATL::CComContainedObject<COPOSSoundPlayer>::Release`adjustor{224}'
PUBLIC	?QueryInterface@?$CComContainedObject@VCOPOSSoundPlayer@@@ATL@@WOI@EAAJAEBU_GUID@@PEAPEAX@Z ; [thunk]:ATL::CComContainedObject<COPOSSoundPlayer>::QueryInterface`adjustor{232}'
PUBLIC	?AddRef@?$CComContainedObject@VCOPOSSoundPlayer@@@ATL@@WOI@EAAKXZ ; [thunk]:ATL::CComContainedObject<COPOSSoundPlayer>::AddRef`adjustor{232}'
PUBLIC	?Release@?$CComContainedObject@VCOPOSSoundPlayer@@@ATL@@WOI@EAAKXZ ; [thunk]:ATL::CComContainedObject<COPOSSoundPlayer>::Release`adjustor{232}'
PUBLIC	?QueryInterface@?$CComContainedObject@VCOPOSSoundPlayer@@@ATL@@WPA@EAAJAEBU_GUID@@PEAPEAX@Z ; [thunk]:ATL::CComContainedObject<COPOSSoundPlayer>::QueryInterface`adjustor{240}'
PUBLIC	?AddRef@?$CComContainedObject@VCOPOSSoundPlayer@@@ATL@@WPA@EAAKXZ ; [thunk]:ATL::CComContainedObject<COPOSSoundPlayer>::AddRef`adjustor{240}'
PUBLIC	?Release@?$CComContainedObject@VCOPOSSoundPlayer@@@ATL@@WPA@EAAKXZ ; [thunk]:ATL::CComContainedObject<COPOSSoundPlayer>::Release`adjustor{240}'
PUBLIC	?QueryInterface@?$CComContainedObject@VCOPOSSoundPlayer@@@ATL@@WPI@EAAJAEBU_GUID@@PEAPEAX@Z ; [thunk]:ATL::CComContainedObject<COPOSSoundPlayer>::QueryInterface`adjustor{248}'
PUBLIC	?AddRef@?$CComContainedObject@VCOPOSSoundPlayer@@@ATL@@WPI@EAAKXZ ; [thunk]:ATL::CComContainedObject<COPOSSoundPlayer>::AddRef`adjustor{248}'
PUBLIC	?Release@?$CComContainedObject@VCOPOSSoundPlayer@@@ATL@@WPI@EAAKXZ ; [thunk]:ATL::CComContainedObject<COPOSSoundPlayer>::Release`adjustor{248}'
PUBLIC	?QueryInterface@?$CComContainedObject@VCOPOSSoundPlayer@@@ATL@@WBAA@EAAJAEBU_GUID@@PEAPEAX@Z ; [thunk]:ATL::CComContainedObject<COPOSSoundPlayer>::QueryInterface`adjustor{256}'
PUBLIC	?AddRef@?$CComContainedObject@VCOPOSSoundPlayer@@@ATL@@WBAA@EAAKXZ ; [thunk]:ATL::CComContainedObject<COPOSSoundPlayer>::AddRef`adjustor{256}'
PUBLIC	?Release@?$CComContainedObject@VCOPOSSoundPlayer@@@ATL@@WBAA@EAAKXZ ; [thunk]:ATL::CComContainedObject<COPOSSoundPlayer>::Release`adjustor{256}'
PUBLIC	?QueryInterface@?$CComContainedObject@VCOPOSSoundPlayer@@@ATL@@WBAI@EAAJAEBU_GUID@@PEAPEAX@Z ; [thunk]:ATL::CComContainedObject<COPOSSoundPlayer>::QueryInterface`adjustor{264}'
PUBLIC	?AddRef@?$CComContainedObject@VCOPOSSoundPlayer@@@ATL@@WBAI@EAAKXZ ; [thunk]:ATL::CComContainedObject<COPOSSoundPlayer>::AddRef`adjustor{264}'
PUBLIC	?Release@?$CComContainedObject@VCOPOSSoundPlayer@@@ATL@@WBAI@EAAKXZ ; [thunk]:ATL::CComContainedObject<COPOSSoundPlayer>::Release`adjustor{264}'
PUBLIC	?QueryInterface@?$CComContainedObject@VCOPOSSoundPlayer@@@ATL@@WBBA@EAAJAEBU_GUID@@PEAPEAX@Z ; [thunk]:ATL::CComContainedObject<COPOSSoundPlayer>::QueryInterface`adjustor{272}'
PUBLIC	?AddRef@?$CComContainedObject@VCOPOSSoundPlayer@@@ATL@@WBBA@EAAKXZ ; [thunk]:ATL::CComContainedObject<COPOSSoundPlayer>::AddRef`adjustor{272}'
PUBLIC	?Release@?$CComContainedObject@VCOPOSSoundPlayer@@@ATL@@WBBA@EAAKXZ ; [thunk]:ATL::CComContainedObject<COPOSSoundPlayer>::Release`adjustor{272}'
PUBLIC	?QueryInterface@?$CComContainedObject@VCOPOSSoundPlayer@@@ATL@@WBBI@EAAJAEBU_GUID@@PEAPEAX@Z ; [thunk]:ATL::CComContainedObject<COPOSSoundPlayer>::QueryInterface`adjustor{280}'
PUBLIC	?AddRef@?$CComContainedObject@VCOPOSSoundPlayer@@@ATL@@WBBI@EAAKXZ ; [thunk]:ATL::CComContainedObject<COPOSSoundPlayer>::AddRef`adjustor{280}'
PUBLIC	?Release@?$CComContainedObject@VCOPOSSoundPlayer@@@ATL@@WBBI@EAAKXZ ; [thunk]:ATL::CComContainedObject<COPOSSoundPlayer>::Release`adjustor{280}'
PUBLIC	?AddRef@?$CComContainedObject@VCOPOSSoundPlayer@@@ATL@@WBCI@EAAKXZ ; [thunk]:ATL::CComContainedObject<COPOSSoundPlayer>::AddRef`adjustor{296}'
PUBLIC	?Release@?$CComContainedObject@VCOPOSSoundPlayer@@@ATL@@WBCI@EAAKXZ ; [thunk]:ATL::CComContainedObject<COPOSSoundPlayer>::Release`adjustor{296}'
PUBLIC	?AddRef@?$CComContainedObject@VCOPOSSoundPlayer@@@ATL@@WBEA@EAAKXZ ; [thunk]:ATL::CComContainedObject<COPOSSoundPlayer>::AddRef`adjustor{320}'
PUBLIC	?Release@?$CComContainedObject@VCOPOSSoundPlayer@@@ATL@@WBEA@EAAKXZ ; [thunk]:ATL::CComContainedObject<COPOSSoundPlayer>::Release`adjustor{320}'
PUBLIC	?m_bInitFailed@CAtlBaseModule@ATL@@2_NA		; ATL::CAtlBaseModule::m_bInitFailed
PUBLIC	?CreateInstance@CComClassFactory@ATL@@UEAAJPEAUIUnknown@@AEBU_GUID@@PEAPEAX@Z ; ATL::CComClassFactory::CreateInstance
PUBLIC	?LockServer@CComClassFactory@ATL@@UEAAJH@Z	; ATL::CComClassFactory::LockServer
PUBLIC	??_7CComClassFactory@ATL@@6B@			; ATL::CComClassFactory::`vftable'
PUBLIC	??_GCComClassFactory@ATL@@UEAAPEAXI@Z		; ATL::CComClassFactory::`scalar deleting destructor'
PUBLIC	?_entries@?1??_GetEntries@CComClassFactory@ATL@@SAPEBU_ATL_INTMAP_ENTRY@3@XZ@4QBU43@B ; `ATL::CComClassFactory::_GetEntries'::`2'::_entries
PUBLIC	_GUID_00000001_0000_0000_c000_000000000046
EXTRN	_purecall:PROC
EXTRN	IID_IDispatch:BYTE
EXTRN	_Init_thread_epoch:DWORD
EXTRN	IID_IPropertyNotifySink:BYTE
EXTRN	__ImageBase:ZWORD
EXTRN	?FreezeEvents@COPOSSoundPlayer@@MEAAJH@Z:PROC	; COPOSSoundPlayer::FreezeEvents
EXTRN	?OnDraw@COPOSSoundPlayer@@MEAAJAEAUATL_DRAWINFO@@@Z:PROC ; COPOSSoundPlayer::OnDraw
EXTRN	?SOProcessID@COPOSSoundPlayer@@UEAAJPEAJ@Z:PROC	; COPOSSoundPlayer::SOProcessID
EXTRN	?get_OpenResult@COPOSSoundPlayer@@UEAAJPEAJ@Z:PROC ; COPOSSoundPlayer::get_OpenResult
EXTRN	?get_BinaryConversion@COPOSSoundPlayer@@UEAAJPEAJ@Z:PROC ; COPOSSoundPlayer::get_BinaryConversion
EXTRN	?put_BinaryConversion@COPOSSoundPlayer@@UEAAJJ@Z:PROC ; COPOSSoundPlayer::put_BinaryConversion
EXTRN	?get_CapPowerReporting@COPOSSoundPlayer@@UEAAJPEAJ@Z:PROC ; COPOSSoundPlayer::get_CapPowerReporting
EXTRN	?get_CheckHealthText@COPOSSoundPlayer@@UEAAJPEAPEA_W@Z:PROC ; COPOSSoundPlayer::get_CheckHealthText
EXTRN	?get_Claimed@COPOSSoundPlayer@@UEAAJPEAF@Z:PROC	; COPOSSoundPlayer::get_Claimed
EXTRN	?get_DeviceEnabled@COPOSSoundPlayer@@UEAAJPEAF@Z:PROC ; COPOSSoundPlayer::get_DeviceEnabled
EXTRN	?put_DeviceEnabled@COPOSSoundPlayer@@UEAAJF@Z:PROC ; COPOSSoundPlayer::put_DeviceEnabled
EXTRN	?get_FreezeEvents@COPOSSoundPlayer@@UEAAJPEAF@Z:PROC ; COPOSSoundPlayer::get_FreezeEvents
EXTRN	?put_FreezeEvents@COPOSSoundPlayer@@UEAAJF@Z:PROC ; COPOSSoundPlayer::put_FreezeEvents
EXTRN	?get_OutputID@COPOSSoundPlayer@@UEAAJPEAJ@Z:PROC ; COPOSSoundPlayer::get_OutputID
EXTRN	?get_PowerNotify@COPOSSoundPlayer@@UEAAJPEAJ@Z:PROC ; COPOSSoundPlayer::get_PowerNotify
EXTRN	?put_PowerNotify@COPOSSoundPlayer@@UEAAJJ@Z:PROC ; COPOSSoundPlayer::put_PowerNotify
EXTRN	?get_PowerState@COPOSSoundPlayer@@UEAAJPEAJ@Z:PROC ; COPOSSoundPlayer::get_PowerState
EXTRN	?get_ResultCode@COPOSSoundPlayer@@UEAAJPEAJ@Z:PROC ; COPOSSoundPlayer::get_ResultCode
EXTRN	?get_ResultCodeExtended@COPOSSoundPlayer@@UEAAJPEAJ@Z:PROC ; COPOSSoundPlayer::get_ResultCodeExtended
EXTRN	?get_State@COPOSSoundPlayer@@UEAAJPEAJ@Z:PROC	; COPOSSoundPlayer::get_State
EXTRN	?get_ControlObjectDescription@COPOSSoundPlayer@@UEAAJPEAPEA_W@Z:PROC ; COPOSSoundPlayer::get_ControlObjectDescription
EXTRN	?get_ControlObjectVersion@COPOSSoundPlayer@@UEAAJPEAJ@Z:PROC ; COPOSSoundPlayer::get_ControlObjectVersion
EXTRN	?get_ServiceObjectDescription@COPOSSoundPlayer@@UEAAJPEAPEA_W@Z:PROC ; COPOSSoundPlayer::get_ServiceObjectDescription
EXTRN	?get_ServiceObjectVersion@COPOSSoundPlayer@@UEAAJPEAJ@Z:PROC ; COPOSSoundPlayer::get_ServiceObjectVersion
EXTRN	?get_DeviceDescription@COPOSSoundPlayer@@UEAAJPEAPEA_W@Z:PROC ; COPOSSoundPlayer::get_DeviceDescription
EXTRN	?get_DeviceName@COPOSSoundPlayer@@UEAAJPEAPEA_W@Z:PROC ; COPOSSoundPlayer::get_DeviceName
EXTRN	?get_CapStatisticsReporting@COPOSSoundPlayer@@UEAAJPEAF@Z:PROC ; COPOSSoundPlayer::get_CapStatisticsReporting
EXTRN	?get_CapUpdateStatistics@COPOSSoundPlayer@@UEAAJPEAF@Z:PROC ; COPOSSoundPlayer::get_CapUpdateStatistics
EXTRN	?get_CapCompareFirmwareVersion@COPOSSoundPlayer@@UEAAJPEAF@Z:PROC ; COPOSSoundPlayer::get_CapCompareFirmwareVersion
EXTRN	?get_CapUpdateFirmware@COPOSSoundPlayer@@UEAAJPEAF@Z:PROC ; COPOSSoundPlayer::get_CapUpdateFirmware
EXTRN	?CheckHealth@COPOSSoundPlayer@@UEAAJJPEAJ@Z:PROC ; COPOSSoundPlayer::CheckHealth
EXTRN	?ClaimDevice@COPOSSoundPlayer@@UEAAJJPEAJ@Z:PROC ; COPOSSoundPlayer::ClaimDevice
EXTRN	?ClearOutput@COPOSSoundPlayer@@UEAAJPEAJ@Z:PROC	; COPOSSoundPlayer::ClearOutput
EXTRN	?Close@COPOSSoundPlayer@@UEAAJPEAJ@Z:PROC	; COPOSSoundPlayer::Close
EXTRN	?DirectIO@COPOSSoundPlayer@@UEAAJJPEAJPEAPEA_W0@Z:PROC ; COPOSSoundPlayer::DirectIO
EXTRN	?Open@COPOSSoundPlayer@@UEAAJPEA_WPEAJ@Z:PROC	; COPOSSoundPlayer::Open
EXTRN	?ReleaseDevice@COPOSSoundPlayer@@UEAAJPEAJ@Z:PROC ; COPOSSoundPlayer::ReleaseDevice
EXTRN	?ResetStatistics@COPOSSoundPlayer@@UEAAJPEA_WPEAJ@Z:PROC ; COPOSSoundPlayer::ResetStatistics
EXTRN	?RetrieveStatistics@COPOSSoundPlayer@@UEAAJPEAPEA_WPEAJ@Z:PROC ; COPOSSoundPlayer::RetrieveStatistics
EXTRN	?UpdateStatistics@COPOSSoundPlayer@@UEAAJPEA_WPEAJ@Z:PROC ; COPOSSoundPlayer::UpdateStatistics
EXTRN	?CompareFirmwareVersion@COPOSSoundPlayer@@UEAAJPEA_WPEAJ1@Z:PROC ; COPOSSoundPlayer::CompareFirmwareVersion
EXTRN	?UpdateFirmware@COPOSSoundPlayer@@UEAAJPEA_WPEAJ@Z:PROC ; COPOSSoundPlayer::UpdateFirmware
EXTRN	?get_CapAssociatedHardTotalsDevice@COPOSSoundPlayer@@UEAAJPEAPEA_W@Z:PROC ; COPOSSoundPlayer::get_CapAssociatedHardTotalsDevice
EXTRN	?get_CapMultiPlay@COPOSSoundPlayer@@UEAAJPEAF@Z:PROC ; COPOSSoundPlayer::get_CapMultiPlay
EXTRN	?get_CapSoundTypeList@COPOSSoundPlayer@@UEAAJPEAPEA_W@Z:PROC ; COPOSSoundPlayer::get_CapSoundTypeList
EXTRN	?get_CapStorage@COPOSSoundPlayer@@UEAAJPEAJ@Z:PROC ; COPOSSoundPlayer::get_CapStorage
EXTRN	?get_CapVolume@COPOSSoundPlayer@@UEAAJPEAF@Z:PROC ; COPOSSoundPlayer::get_CapVolume
EXTRN	?get_DeviceSoundList@COPOSSoundPlayer@@UEAAJPEAPEA_W@Z:PROC ; COPOSSoundPlayer::get_DeviceSoundList
EXTRN	?get_OutputIDList@COPOSSoundPlayer@@UEAAJPEAPEA_W@Z:PROC ; COPOSSoundPlayer::get_OutputIDList
EXTRN	?get_Storage@COPOSSoundPlayer@@UEAAJPEAJ@Z:PROC	; COPOSSoundPlayer::get_Storage
EXTRN	?put_Storage@COPOSSoundPlayer@@UEAAJJ@Z:PROC	; COPOSSoundPlayer::put_Storage
EXTRN	?get_Volume@COPOSSoundPlayer@@UEAAJPEAJ@Z:PROC	; COPOSSoundPlayer::get_Volume
EXTRN	?put_Volume@COPOSSoundPlayer@@UEAAJJ@Z:PROC	; COPOSSoundPlayer::put_Volume
EXTRN	?PlaySoundW@COPOSSoundPlayer@@UEAAJPEA_WFPEAJ@Z:PROC ; COPOSSoundPlayer::PlaySoundW
EXTRN	?StopSound@COPOSSoundPlayer@@UEAAJJPEAJ@Z:PROC	; COPOSSoundPlayer::StopSound
EXTRN	??_E?$CComObjectCached@VCComClassFactory@ATL@@@ATL@@UEAAPEAXI@Z:PROC ; ATL::CComObjectCached<ATL::CComClassFactory>::`vector deleting destructor'
EXTRN	??_ECComModule@ATL@@UEAAPEAXI@Z:PROC		; ATL::CComModule::`vector deleting destructor'
EXTRN	??_E?$CComObject@V?$CComEnum@UIEnumConnectionPoints@@$1?_GUID_b196b285_bab4_101a_b69c_00aa00341d07@@3U__s_GUID@@BPEAUIConnectionPoint@@V?$_CopyInterface@UIConnectionPoint@@@ATL@@VCComSingleThreadModel@6@@ATL@@@ATL@@UEAAPEAXI@Z:PROC ; ATL::CComObject<ATL::CComEnum<IEnumConnectionPoints,&_GUID_b196b285_bab4_101a_b69c_00aa00341d07,IConnectionPoint *,ATL::_CopyInterface<IConnectionPoint>,ATL::CComSingleThreadModel> >::`vector deleting destructor'
EXTRN	??_ECRegObject@ATL@@UEAAPEAXI@Z:PROC		; ATL::CRegObject::`vector deleting destructor'
EXTRN	?nothrow@std@@3Unothrow_t@1@B:BYTE		; std::nothrow
EXTRN	GUID_NULL:BYTE
EXTRN	CLSID_StdGlobalInterfaceTable:BYTE
EXTRN	??_E?$CComAggObject@VCOPOSSoundPlayer@@@ATL@@UEAAPEAXI@Z:PROC ; ATL::CComAggObject<COPOSSoundPlayer>::`vector deleting destructor'
EXTRN	??_E?$CComObject@V?$CComEnum@UIEnumConnections@@$1?_GUID_b196b287_bab4_101a_b69c_00aa00341d07@@3U__s_GUID@@BUtagCONNECTDATA@@V?$_Copy@UtagCONNECTDATA@@@ATL@@VCComSingleThreadModel@6@@ATL@@@ATL@@UEAAPEAXI@Z:PROC ; ATL::CComObject<ATL::CComEnum<IEnumConnections,&_GUID_b196b287_bab4_101a_b69c_00aa00341d07,tagCONNECTDATA,ATL::_Copy<tagCONNECTDATA>,ATL::CComSingleThreadModel> >::`vector deleting destructor'
EXTRN	?_AtlBaseModule@ATL@@3VCAtlBaseModule@1@A:BYTE	; ATL::_AtlBaseModule
EXTRN	??_ECComClassFactory@ATL@@UEAAPEAXI@Z:PROC	; ATL::CComClassFactory::`vector deleting destructor'
;	COMDAT ?WM_ATLGETHOST@ATL@@3IA
_BSS	SEGMENT
?WM_ATLGETHOST@ATL@@3IA DD 01H DUP (?)			; ATL::WM_ATLGETHOST
_BSS	ENDS
;	COMDAT ?WM_ATLGETCONTROL@ATL@@3IA
_BSS	SEGMENT
?WM_ATLGETCONTROL@ATL@@3IA DD 01H DUP (?)		; ATL::WM_ATLGETCONTROL
_BSS	ENDS
;	COMDAT ?_pPerfRegFunc@ATL@@3P6AJPEAUHINSTANCE__@@@ZEA
_BSS	SEGMENT
?_pPerfRegFunc@ATL@@3P6AJPEAUHINSTANCE__@@@ZEA DQ 01H DUP (?) ; ATL::_pPerfRegFunc
_BSS	ENDS
;	COMDAT ?_pPerfUnRegFunc@ATL@@3P6AJXZEA
_BSS	SEGMENT
?_pPerfUnRegFunc@ATL@@3P6AJXZEA DQ 01H DUP (?)		; ATL::_pPerfUnRegFunc
_BSS	ENDS
;	COMDAT ?_AtlRegisterPerUser@ATL@@3_NA
_BSS	SEGMENT
?_AtlRegisterPerUser@ATL@@3_NA DB 01H DUP (?)		; ATL::_AtlRegisterPerUser
_BSS	ENDS
;	COMDAT ?_pAtlModule@ATL@@3PEAVCAtlModule@1@EA
_BSS	SEGMENT
?_pAtlModule@ATL@@3PEAVCAtlModule@1@EA DQ 01H DUP (?)	; ATL::_pAtlModule
_BSS	ENDS
;	COMDAT ?m_libid@CAtlModule@ATL@@2U_GUID@@A
_BSS	SEGMENT
?m_libid@CAtlModule@ATL@@2U_GUID@@A DB 010H DUP (?)	; ATL::CAtlModule::m_libid
_BSS	ENDS
;	COMDAT ?_entries@?1??GetConnMap@COPOSSoundPlayer@@SAPEBU_ATL_CONNMAP_ENTRY@ATL@@PEAH@Z@4QBU34@B
_BSS	SEGMENT
?_entries@?1??GetConnMap@COPOSSoundPlayer@@SAPEBU_ATL_CONNMAP_ENTRY@ATL@@PEAH@Z@4QBU34@B DQ 03H DUP (?) ; `COPOSSoundPlayer::GetConnMap'::`2'::_entries
_BSS	ENDS
;	COMDAT ?$TSS0@?1??GetConnMap@COPOSSoundPlayer@@SAPEBU_ATL_CONNMAP_ENTRY@ATL@@PEAH@Z@4HA
_BSS	SEGMENT
?$TSS0@?1??GetConnMap@COPOSSoundPlayer@@SAPEBU_ATL_CONNMAP_ENTRY@ATL@@PEAH@Z@4HA DD 01H DUP (?) ; `COPOSSoundPlayer::GetConnMap'::`2'::$TSS0
_BSS	ENDS
;	COMDAT ?_pModule@ATL@@3PEAVCComModule@1@EA
_BSS	SEGMENT
?_pModule@ATL@@3PEAVCComModule@1@EA DQ 01H DUP (?)	; ATL::_pModule
_BSS	ENDS
;	COMDAT ?_pAtlAutoThreadModule@ATL@@3PEAUIAtlAutoThreadModule@1@EA
_BSS	SEGMENT
?_pAtlAutoThreadModule@ATL@@3PEAUIAtlAutoThreadModule@1@EA DQ 01H DUP (?) ; ATL::_pAtlAutoThreadModule
_BSS	ENDS
;	COMDAT ?_OptionsStorage@?1??__local_stdio_printf_options@@9@4_KA
_BSS	SEGMENT
?_OptionsStorage@?1??__local_stdio_printf_options@@9@4_KA DQ 01H DUP (?) ; `__local_stdio_printf_options'::`2'::_OptionsStorage
_BSS	ENDS
;	COMDAT ?m_bInitFailed@CAtlBaseModule@ATL@@2_NA
_BSS	SEGMENT
?m_bInitFailed@CAtlBaseModule@ATL@@2_NA DB 01H DUP (?)	; ATL::CAtlBaseModule::m_bInitFailed
_BSS	ENDS
;	COMDAT _GUID_00000001_0000_0000_c000_000000000046
CONST	SEGMENT
_GUID_00000001_0000_0000_c000_000000000046 DD 01H
	DW	00H
	DW	00H
	DB	0c0H
	DB	00H
	DB	00H
	DB	00H
	DB	00H
	DB	00H
	DB	00H
	DB	046H
CONST	ENDS
;	COMDAT ?_entries@?1??_GetEntries@CComClassFactory@ATL@@SAPEBU_ATL_INTMAP_ENTRY@3@XZ@4QBU43@B
CONST	SEGMENT
?_entries@?1??_GetEntries@CComClassFactory@ATL@@SAPEBU_ATL_INTMAP_ENTRY@3@XZ@4QBU43@B DQ FLAT:_GUID_00000001_0000_0000_c000_000000000046 ; `ATL::CComClassFactory::_GetEntries'::`2'::_entries
	DQ	0000000000000000H
	DQ	0000000000000001H
	DQ	0000000000000000H
	DQ	0000000000000000H
	DQ	0000000000000000H
CONST	ENDS
;	COMDAT ??_7CComClassFactory@ATL@@6B@
CONST	SEGMENT
??_7CComClassFactory@ATL@@6B@ DQ FLAT:_purecall		; ATL::CComClassFactory::`vftable'
	DQ	FLAT:_purecall
	DQ	FLAT:_purecall
	DQ	FLAT:?CreateInstance@CComClassFactory@ATL@@UEAAJPEAUIUnknown@@AEBU_GUID@@PEAPEAX@Z
	DQ	FLAT:?LockServer@CComClassFactory@ATL@@UEAAJH@Z
	DQ	FLAT:??_ECComClassFactory@ATL@@UEAAPEAXI@Z
CONST	ENDS
;	COMDAT ?_entries@?1??_GetEntries@?$CComEnum@UIEnumConnections@@$1?_GUID_b196b287_bab4_101a_b69c_00aa00341d07@@3U__s_GUID@@BUtagCONNECTDATA@@V?$_Copy@UtagCONNECTDATA@@@ATL@@VCComSingleThreadModel@6@@ATL@@SAPEBU_ATL_INTMAP_ENTRY@3@XZ@4QBU43@B
CONST	SEGMENT
?_entries@?1??_GetEntries@?$CComEnum@UIEnumConnections@@$1?_GUID_b196b287_bab4_101a_b69c_00aa00341d07@@3U__s_GUID@@BUtagCONNECTDATA@@V?$_Copy@UtagCONNECTDATA@@@ATL@@VCComSingleThreadModel@6@@ATL@@SAPEBU_ATL_INTMAP_ENTRY@3@XZ@4QBU43@B DQ FLAT:_GUID_b196b287_bab4_101a_b69c_00aa00341d07 ; `ATL::CComEnum<IEnumConnections,&_GUID_b196b287_bab4_101a_b69c_00aa00341d07,tagCONNECTDATA,ATL::_Copy<tagCONNECTDATA>,ATL::CComSingleThreadModel>::_GetEntries'::`2'::_entries
	DQ	0000000000000000H
	DQ	0000000000000001H
	DQ	0000000000000000H
	DQ	0000000000000000H
	DQ	0000000000000000H
CONST	ENDS
;	COMDAT _GUID_b196b28b_bab4_101a_b69c_00aa00341d07
CONST	SEGMENT
_GUID_b196b28b_bab4_101a_b69c_00aa00341d07 DD 0b196b28bH
	DW	0bab4H
	DW	0101aH
	DB	0b6H
	DB	09cH
	DB	00H
	DB	0aaH
	DB	00H
	DB	034H
	DB	01dH
	DB	07H
CONST	ENDS
;	COMDAT _GUID_55980ba0_35aa_11cf_b671_00aa004cd6d8
CONST	SEGMENT
_GUID_55980ba0_35aa_11cf_b671_00aa004cd6d8 DD 055980ba0H
	DW	035aaH
	DW	011cfH
	DB	0b6H
	DB	071H
	DB	00H
	DB	0aaH
	DB	00H
	DB	04cH
	DB	0d6H
	DB	0d8H
CONST	ENDS
;	COMDAT ??_7?$CComObject@V?$CComEnum@UIEnumConnections@@$1?_GUID_b196b287_bab4_101a_b69c_00aa00341d07@@3U__s_GUID@@BUtagCONNECTDATA@@V?$_Copy@UtagCONNECTDATA@@@ATL@@VCComSingleThreadModel@6@@ATL@@@ATL@@6B@
CONST	SEGMENT
??_7?$CComObject@V?$CComEnum@UIEnumConnections@@$1?_GUID_b196b287_bab4_101a_b69c_00aa00341d07@@3U__s_GUID@@BUtagCONNECTDATA@@V?$_Copy@UtagCONNECTDATA@@@ATL@@VCComSingleThreadModel@6@@ATL@@@ATL@@6B@ DQ FLAT:?QueryInterface@?$CComObject@V?$CComEnum@UIEnumConnections@@$1?_GUID_b196b287_bab4_101a_b69c_00aa00341d07@@3U__s_GUID@@BUtagCONNECTDATA@@V?$_Copy@UtagCONNECTDATA@@@ATL@@VCComSingleThreadModel@6@@ATL@@@ATL@@UEAAJAEBU_GUID@@PEAPEAX@Z ; ATL::CComObject<ATL::CComEnum<IEnumConnections,&_GUID_b196b287_bab4_101a_b69c_00aa00341d07,tagCONNECTDATA,ATL::_Copy<tagCONNECTDATA>,ATL::CComSingleThreadModel> >::`vftable'
	DQ	FLAT:?AddRef@?$CComObject@V?$CComEnum@UIEnumConnections@@$1?_GUID_b196b287_bab4_101a_b69c_00aa00341d07@@3U__s_GUID@@BUtagCONNECTDATA@@V?$_Copy@UtagCONNECTDATA@@@ATL@@VCComSingleThreadModel@6@@ATL@@@ATL@@UEAAKXZ
	DQ	FLAT:?Release@?$CComObject@V?$CComEnum@UIEnumConnections@@$1?_GUID_b196b287_bab4_101a_b69c_00aa00341d07@@3U__s_GUID@@BUtagCONNECTDATA@@V?$_Copy@UtagCONNECTDATA@@@ATL@@VCComSingleThreadModel@6@@ATL@@@ATL@@UEAAKXZ
	DQ	FLAT:?Next@?$CComEnumImpl@UIEnumConnections@@$1?_GUID_b196b287_bab4_101a_b69c_00aa00341d07@@3U__s_GUID@@BUtagCONNECTDATA@@V?$_Copy@UtagCONNECTDATA@@@ATL@@@ATL@@UEAAJKPEAUtagCONNECTDATA@@PEAK@Z
	DQ	FLAT:?Skip@?$CComEnumImpl@UIEnumConnections@@$1?_GUID_b196b287_bab4_101a_b69c_00aa00341d07@@3U__s_GUID@@BUtagCONNECTDATA@@V?$_Copy@UtagCONNECTDATA@@@ATL@@@ATL@@UEAAJK@Z
	DQ	FLAT:?Reset@?$CComEnumImpl@UIEnumConnections@@$1?_GUID_b196b287_bab4_101a_b69c_00aa00341d07@@3U__s_GUID@@BUtagCONNECTDATA@@V?$_Copy@UtagCONNECTDATA@@@ATL@@@ATL@@UEAAJXZ
	DQ	FLAT:?Clone@?$CComEnumImpl@UIEnumConnections@@$1?_GUID_b196b287_bab4_101a_b69c_00aa00341d07@@3U__s_GUID@@BUtagCONNECTDATA@@V?$_Copy@UtagCONNECTDATA@@@ATL@@@ATL@@UEAAJPEAPEAUIEnumConnections@@@Z
	DQ	FLAT:??_E?$CComObject@V?$CComEnum@UIEnumConnections@@$1?_GUID_b196b287_bab4_101a_b69c_00aa00341d07@@3U__s_GUID@@BUtagCONNECTDATA@@V?$_Copy@UtagCONNECTDATA@@@ATL@@VCComSingleThreadModel@6@@ATL@@@ATL@@UEAAPEAXI@Z
CONST	ENDS
;	COMDAT ?rcDefault@CWindow@ATL@@2UtagRECT@@A
_DATA	SEGMENT
?rcDefault@CWindow@ATL@@2UtagRECT@@A DD 080000000H	; ATL::CWindow::rcDefault
	DD	080000000H
	DD	00H
	DD	00H
_DATA	ENDS
;	COMDAT IID_IInternalConnection
CONST	SEGMENT
IID_IInternalConnection DD 072ad0770H
	DW	06a9fH
	DW	011d1H
	DB	0bcH
	DB	0ecH
	DB	00H
	DB	060H
	DB	08H
	DB	08fH
	DB	044H
	DB	04eH
CONST	ENDS
;	COMDAT IID_IAxWinAmbientDispatchEx
CONST	SEGMENT
IID_IAxWinAmbientDispatchEx DD 0b2d0778bH
	DW	0ac99H
	DW	04c58H
	DB	0a5H
	DB	0c8H
	DB	0e7H
	DB	072H
	DB	04eH
	DB	053H
	DB	016H
	DB	0b5H
CONST	ENDS
;	COMDAT _GUID_00020401_0000_0000_c000_000000000046
CONST	SEGMENT
_GUID_00020401_0000_0000_c000_000000000046 DD 020401H
	DW	00H
	DW	00H
	DB	0c0H
	DB	00H
	DB	00H
	DB	00H
	DB	00H
	DB	00H
	DB	00H
	DB	046H
CONST	ENDS
;	COMDAT _GUID_00020412_0000_0000_c000_000000000046
CONST	SEGMENT
_GUID_00020412_0000_0000_c000_000000000046 DD 020412H
	DW	00H
	DW	00H
	DB	0c0H
	DB	00H
	DB	00H
	DB	00H
	DB	00H
	DB	00H
	DB	00H
	DB	046H
CONST	ENDS
;	COMDAT IID_IAxWinAmbientDispatch
CONST	SEGMENT
IID_IAxWinAmbientDispatch DD 0b6ea2051H
	DW	048aH
	DW	011d1H
	DB	082H
	DB	0b9H
	DB	00H
	DB	0c0H
	DB	04fH
	DB	0b9H
	DB	094H
	DB	02eH
CONST	ENDS
;	COMDAT IID_IAxWinHostWindowLic
CONST	SEGMENT
IID_IAxWinHostWindowLic DD 03935bda8H
	DW	04ed9H
	DW	0495cH
	DB	086H
	DB	050H
	DB	0e0H
	DB	01fH
	DB	0c1H
	DB	0e3H
	DB	08aH
	DB	04bH
CONST	ENDS
;	COMDAT _GUID_b196b284_bab4_101a_b69c_00aa00341d07
CONST	SEGMENT
_GUID_b196b284_bab4_101a_b69c_00aa00341d07 DD 0b196b284H
	DW	0bab4H
	DW	0101aH
	DB	0b6H
	DB	09cH
	DB	00H
	DB	0aaH
	DB	00H
	DB	034H
	DB	01dH
	DB	07H
CONST	ENDS
;	COMDAT IID_IAxWinHostWindow
CONST	SEGMENT
IID_IAxWinHostWindow DD 0b6ea2050H
	DW	048aH
	DW	011d1H
	DB	082H
	DB	0b9H
	DB	00H
	DB	0c0H
	DB	04fH
	DB	0b9H
	DB	094H
	DB	02eH
CONST	ENDS
;	COMDAT ?_entries@?1??_GetEntries@?$CComEnum@UIEnumConnectionPoints@@$1?_GUID_b196b285_bab4_101a_b69c_00aa00341d07@@3U__s_GUID@@BPEAUIConnectionPoint@@V?$_CopyInterface@UIConnectionPoint@@@ATL@@VCComSingleThreadModel@6@@ATL@@SAPEBU_ATL_INTMAP_ENTRY@3@XZ@4QBU43@B
CONST	SEGMENT
?_entries@?1??_GetEntries@?$CComEnum@UIEnumConnectionPoints@@$1?_GUID_b196b285_bab4_101a_b69c_00aa00341d07@@3U__s_GUID@@BPEAUIConnectionPoint@@V?$_CopyInterface@UIConnectionPoint@@@ATL@@VCComSingleThreadModel@6@@ATL@@SAPEBU_ATL_INTMAP_ENTRY@3@XZ@4QBU43@B DQ FLAT:_GUID_b196b285_bab4_101a_b69c_00aa00341d07 ; `ATL::CComEnum<IEnumConnectionPoints,&_GUID_b196b285_bab4_101a_b69c_00aa00341d07,IConnectionPoint *,ATL::_CopyInterface<IConnectionPoint>,ATL::CComSingleThreadModel>::_GetEntries'::`2'::_entries
	DQ	0000000000000000H
	DQ	0000000000000001H
	DQ	0000000000000000H
	DQ	0000000000000000H
	DQ	0000000000000000H
CONST	ENDS
;	COMDAT ?wc@?1??GetWndClassInfo@?$CWindowImpl@VCOPOSSoundPlayer@@VCWindow@ATL@@V?$CWinTraits@$0FGAAAAAA@$0A@@3@@ATL@@SAAEAU_ATL_WNDCLASSINFOW@3@XZ@4U43@A
_DATA	SEGMENT
?wc@?1??GetWndClassInfo@?$CWindowImpl@VCOPOSSoundPlayer@@VCWindow@ATL@@V?$CWinTraits@$0FGAAAAAA@$0A@@3@@ATL@@SAAEAU_ATL_WNDCLASSINFOW@3@XZ@4U43@A DD 050H ; `ATL::CWindowImpl<COPOSSoundPlayer,ATL::CWindow,ATL::CWinTraits<1442840576,0> >::GetWndClassInfo'::`2'::wc
	DD	0bH
	DQ	FLAT:?StartWindowProc@?$CWindowImplBaseT@VCWindow@ATL@@V?$CWinTraits@$0FGAAAAAA@$0A@@2@@ATL@@SA_JPEAUHWND__@@I_K_J@Z
	DD	00H
	DD	00H
	DQ	0000000000000000H
	DQ	0000000000000000H
	DQ	0000000000000000H
	DQ	0000000000000006H
	DQ	0000000000000000H
	DQ	0000000000000000H
	DQ	0000000000000000H
	DQ	0000000000000000H
	DQ	0000000000000000H
	DQ	0000000000007f00H
	DD	01H
	DW	00H
	DB	00H, 00H
	ORG $+136
_DATA	ENDS
;	COMDAT _GUID_9bfbbc02_eff1_101a_84ed_00aa00341d07
CONST	SEGMENT
_GUID_9bfbbc02_eff1_101a_84ed_00aa00341d07 DD 09bfbbc02H
	DW	0eff1H
	DW	0101aH
	DB	084H
	DB	0edH
	DB	00H
	DB	0aaH
	DB	00H
	DB	034H
	DB	01dH
	DB	07H
CONST	ENDS
;	COMDAT IID_IDocHostUIHandlerDispatch
CONST	SEGMENT
IID_IDocHostUIHandlerDispatch DD 0425b5af0H
	DW	065f1H
	DW	011d1H
	DB	096H
	DB	011H
	DB	00H
	DB	00H
	DB	0f8H
	DB	01eH
	DB	0dH
	DB	0dH
CONST	ENDS
;	COMDAT IID_IRegistrar
CONST	SEGMENT
IID_IRegistrar DD 044ec053bH
	DW	0400fH
	DW	011d0H
	DB	09dH
	DB	0cdH
	DB	00H
	DB	0a0H
	DB	0c9H
	DB	03H
	DB	091H
	DB	0d3H
CONST	ENDS
;	COMDAT CLSID_Registrar
CONST	SEGMENT
CLSID_Registrar DD 044ec053aH
	DW	0400fH
	DW	011d0H
	DB	09dH
	DB	0cdH
	DB	00H
	DB	0a0H
	DB	0c9H
	DB	03H
	DB	091H
	DB	0d3H
CONST	ENDS
;	COMDAT ??_C@_1BA@PICGEGJB@?$AAD?$AAI?$AAS?$AAP?$AAL?$AAA?$AAY@
CONST	SEGMENT
??_C@_1BA@PICGEGJB@?$AAD?$AAI?$AAS?$AAP?$AAL?$AAA?$AAY@ DB 'D', 00H, 'I', 00H
	DB	'S', 00H, 'P', 00H, 'L', 00H, 'A', 00H, 'Y', 00H, 00H, 00H ; `string'
CONST	ENDS
;	COMDAT ??_C@_1O@GBFKGNEO@?$AAA?$AAT?$AAL?$AA?3?$AA?$CF?$AAp@
CONST	SEGMENT
??_C@_1O@GBFKGNEO@?$AAA?$AAT?$AAL?$AA?3?$AA?$CF?$AAp@ DB 'A', 00H, 'T', 00H
	DB	'L', 00H, ':', 00H, '%', 00H, 'p', 00H, 00H, 00H ; `string'
CONST	ENDS
;	COMDAT ??_C@_11LOCGONAA@@
CONST	SEGMENT
??_C@_11LOCGONAA@@ DB 00H, 00H				; `string'
CONST	ENDS
;	COMDAT ??_7?$CComObject@VCOPOSSoundPlayer@@@ATL@@6B?$CProxy_IOPOSEvents@VCOPOSSoundPlayer@@@@@
CONST	SEGMENT
??_7?$CComObject@VCOPOSSoundPlayer@@@ATL@@6B?$CProxy_IOPOSEvents@VCOPOSSoundPlayer@@@@@ DQ FLAT:?_LocCPQueryInterface@?$IConnectionPointImpl@VCOPOSSoundPlayer@@$1?DIID__IOPOSSoundPlayerEvents@@3U_GUID@@BVCComDynamicUnkArray@ATL@@@ATL@@UEAAJAEBU_GUID@@PEAPEAX@Z ; ATL::CComObject<COPOSSoundPlayer>::`vftable'
	DQ	FLAT:?AddRef@?$CComObject@VCOPOSSoundPlayer@@@ATL@@WBEA@EAAKXZ
	DQ	FLAT:?Release@?$CComObject@VCOPOSSoundPlayer@@@ATL@@WBEA@EAAKXZ
	DQ	FLAT:?GetConnectionInterface@?$IConnectionPointImpl@VCOPOSSoundPlayer@@$1?DIID__IOPOSSoundPlayerEvents@@3U_GUID@@BVCComDynamicUnkArray@ATL@@@ATL@@UEAAJPEAU_GUID@@@Z
	DQ	FLAT:?GetConnectionPointContainer@?$IConnectionPointImpl@VCOPOSSoundPlayer@@$1?DIID__IOPOSSoundPlayerEvents@@3U_GUID@@BVCComDynamicUnkArray@ATL@@@ATL@@UEAAJPEAPEAUIConnectionPointContainer@@@Z
	DQ	FLAT:?Advise@?$IConnectionPointImpl@VCOPOSSoundPlayer@@$1?DIID__IOPOSSoundPlayerEvents@@3U_GUID@@BVCComDynamicUnkArray@ATL@@@ATL@@UEAAJPEAUIUnknown@@PEAK@Z
	DQ	FLAT:?Unadvise@?$IConnectionPointImpl@VCOPOSSoundPlayer@@$1?DIID__IOPOSSoundPlayerEvents@@3U_GUID@@BVCComDynamicUnkArray@ATL@@@ATL@@UEAAJK@Z
	DQ	FLAT:?EnumConnections@?$IConnectionPointImpl@VCOPOSSoundPlayer@@$1?DIID__IOPOSSoundPlayerEvents@@3U_GUID@@BVCComDynamicUnkArray@ATL@@@ATL@@UEAAJPEAPEAUIEnumConnections@@@Z
CONST	ENDS
;	COMDAT ??_7?$CComObject@VCOPOSSoundPlayer@@@ATL@@6B?$IPropertyNotifySinkCP@VCOPOSSoundPlayer@@VCComDynamicUnkArray@ATL@@@1@@
CONST	SEGMENT
??_7?$CComObject@VCOPOSSoundPlayer@@@ATL@@6B?$IPropertyNotifySinkCP@VCOPOSSoundPlayer@@VCComDynamicUnkArray@ATL@@@1@@ DQ FLAT:?_LocCPQueryInterface@?$IConnectionPointImpl@VCOPOSSoundPlayer@@$1?IID_IPropertyNotifySink@@3U_GUID@@BVCComDynamicUnkArray@ATL@@@ATL@@UEAAJAEBU_GUID@@PEAPEAX@Z ; ATL::CComObject<COPOSSoundPlayer>::`vftable'
	DQ	FLAT:?AddRef@?$CComObject@VCOPOSSoundPlayer@@@ATL@@WBCI@EAAKXZ
	DQ	FLAT:?Release@?$CComObject@VCOPOSSoundPlayer@@@ATL@@WBCI@EAAKXZ
	DQ	FLAT:?GetConnectionInterface@?$IConnectionPointImpl@VCOPOSSoundPlayer@@$1?IID_IPropertyNotifySink@@3U_GUID@@BVCComDynamicUnkArray@ATL@@@ATL@@UEAAJPEAU_GUID@@@Z
	DQ	FLAT:?GetConnectionPointContainer@?$IConnectionPointImpl@VCOPOSSoundPlayer@@$1?IID_IPropertyNotifySink@@3U_GUID@@BVCComDynamicUnkArray@ATL@@@ATL@@UEAAJPEAPEAUIConnectionPointContainer@@@Z
	DQ	FLAT:?Advise@?$IConnectionPointImpl@VCOPOSSoundPlayer@@$1?IID_IPropertyNotifySink@@3U_GUID@@BVCComDynamicUnkArray@ATL@@@ATL@@UEAAJPEAUIUnknown@@PEAK@Z
	DQ	FLAT:?Unadvise@?$IConnectionPointImpl@VCOPOSSoundPlayer@@$1?IID_IPropertyNotifySink@@3U_GUID@@BVCComDynamicUnkArray@ATL@@@ATL@@UEAAJK@Z
	DQ	FLAT:?EnumConnections@?$IConnectionPointImpl@VCOPOSSoundPlayer@@$1?IID_IPropertyNotifySink@@3U_GUID@@BVCComDynamicUnkArray@ATL@@@ATL@@UEAAJPEAPEAUIEnumConnections@@@Z
CONST	ENDS
;	COMDAT ??_7?$CComObject@VCOPOSSoundPlayer@@@ATL@@6B?$IObjectSafetyImpl@VCOPOSSoundPlayer@@$02@1@@
CONST	SEGMENT
??_7?$CComObject@VCOPOSSoundPlayer@@@ATL@@6B?$IObjectSafetyImpl@VCOPOSSoundPlayer@@$02@1@@ DQ FLAT:?QueryInterface@?$CComObject@VCOPOSSoundPlayer@@@ATL@@WBBI@EAAJAEBU_GUID@@PEAPEAX@Z ; ATL::CComObject<COPOSSoundPlayer>::`vftable'
	DQ	FLAT:?AddRef@?$CComObject@VCOPOSSoundPlayer@@@ATL@@WBBI@EAAKXZ
	DQ	FLAT:?Release@?$CComObject@VCOPOSSoundPlayer@@@ATL@@WBBI@EAAKXZ
	DQ	FLAT:?GetInterfaceSafetyOptions@?$IObjectSafetyImpl@VCOPOSSoundPlayer@@$02@ATL@@UEAAJAEBU_GUID@@PEAK1@Z
	DQ	FLAT:?SetInterfaceSafetyOptions@?$IObjectSafetyImpl@VCOPOSSoundPlayer@@$02@ATL@@UEAAJAEBU_GUID@@KK@Z
	DQ	FLAT:?FAccessAllowed@?$IObjectSafetyImpl@VCOPOSSoundPlayer@@$02@ATL@@MEAAHXZ
CONST	ENDS
;	COMDAT ??_7?$CComObject@VCOPOSSoundPlayer@@@ATL@@6B?$IProvideClassInfo2Impl@$1?CLSID_OPOSSoundPlayer@@3U_GUID@@B$1?DIID__IOPOSSoundPlayerEvents@@3U2@B$1?LIBID_OposSoundPlayer_CCO@@3U2@B$00$0A@VCComTypeInfoHolder@ATL@@@1@@
CONST	SEGMENT
??_7?$CComObject@VCOPOSSoundPlayer@@@ATL@@6B?$IProvideClassInfo2Impl@$1?CLSID_OPOSSoundPlayer@@3U_GUID@@B$1?DIID__IOPOSSoundPlayerEvents@@3U2@B$1?LIBID_OposSoundPlayer_CCO@@3U2@B$00$0A@VCComTypeInfoHolder@ATL@@@1@@ DQ FLAT:?QueryInterface@?$CComObject@VCOPOSSoundPlayer@@@ATL@@WBBA@EAAJAEBU_GUID@@PEAPEAX@Z ; ATL::CComObject<COPOSSoundPlayer>::`vftable'
	DQ	FLAT:?AddRef@?$CComObject@VCOPOSSoundPlayer@@@ATL@@WBBA@EAAKXZ
	DQ	FLAT:?Release@?$CComObject@VCOPOSSoundPlayer@@@ATL@@WBBA@EAAKXZ
	DQ	FLAT:?GetClassInfoW@?$IProvideClassInfo2Impl@$1?CLSID_OPOSSoundPlayer@@3U_GUID@@B$1?DIID__IOPOSSoundPlayerEvents@@3U2@B$1?LIBID_OposSoundPlayer_CCO@@3U2@B$00$0A@VCComTypeInfoHolder@ATL@@@ATL@@UEAAJPEAPEAUITypeInfo@@@Z
	DQ	FLAT:?GetGUID@?$IProvideClassInfo2Impl@$1?CLSID_OPOSSoundPlayer@@3U_GUID@@B$1?DIID__IOPOSSoundPlayerEvents@@3U2@B$1?LIBID_OposSoundPlayer_CCO@@3U2@B$00$0A@VCComTypeInfoHolder@ATL@@@ATL@@UEAAJKPEAU_GUID@@@Z
CONST	ENDS
;	COMDAT ??_7?$CComObject@VCOPOSSoundPlayer@@@ATL@@6B?$IDataObjectImpl@VCOPOSSoundPlayer@@@1@@
CONST	SEGMENT
??_7?$CComObject@VCOPOSSoundPlayer@@@ATL@@6B?$IDataObjectImpl@VCOPOSSoundPlayer@@@1@@ DQ FLAT:?QueryInterface@?$CComObject@VCOPOSSoundPlayer@@@ATL@@WBAI@EAAJAEBU_GUID@@PEAPEAX@Z ; ATL::CComObject<COPOSSoundPlayer>::`vftable'
	DQ	FLAT:?AddRef@?$CComObject@VCOPOSSoundPlayer@@@ATL@@WBAI@EAAKXZ
	DQ	FLAT:?Release@?$CComObject@VCOPOSSoundPlayer@@@ATL@@WBAI@EAAKXZ
	DQ	FLAT:?GetData@?$IDataObjectImpl@VCOPOSSoundPlayer@@@ATL@@UEAAJPEAUtagFORMATETC@@PEAUtagSTGMEDIUM@@@Z
	DQ	FLAT:?GetDataHere@?$IDataObjectImpl@VCOPOSSoundPlayer@@@ATL@@UEAAJPEAUtagFORMATETC@@PEAUtagSTGMEDIUM@@@Z
	DQ	FLAT:?QueryGetData@?$IDataObjectImpl@VCOPOSSoundPlayer@@@ATL@@UEAAJPEAUtagFORMATETC@@@Z
	DQ	FLAT:?GetCanonicalFormatEtc@?$IDataObjectImpl@VCOPOSSoundPlayer@@@ATL@@UEAAJPEAUtagFORMATETC@@0@Z
	DQ	FLAT:?SetData@?$IDataObjectImpl@VCOPOSSoundPlayer@@@ATL@@UEAAJPEAUtagFORMATETC@@PEAUtagSTGMEDIUM@@H@Z
	DQ	FLAT:?EnumFormatEtc@?$IDataObjectImpl@VCOPOSSoundPlayer@@@ATL@@UEAAJKPEAPEAUIEnumFORMATETC@@@Z
	DQ	FLAT:?DAdvise@?$IDataObjectImpl@VCOPOSSoundPlayer@@@ATL@@UEAAJPEAUtagFORMATETC@@KPEAUIAdviseSink@@PEAK@Z
	DQ	FLAT:?DUnadvise@?$IDataObjectImpl@VCOPOSSoundPlayer@@@ATL@@UEAAJK@Z
	DQ	FLAT:?EnumDAdvise@?$IDataObjectImpl@VCOPOSSoundPlayer@@@ATL@@UEAAJPEAPEAUIEnumSTATDATA@@@Z
CONST	ENDS
;	COMDAT ??_7?$CComObject@VCOPOSSoundPlayer@@@ATL@@6B?$IQuickActivateImpl@VCOPOSSoundPlayer@@@1@@
CONST	SEGMENT
??_7?$CComObject@VCOPOSSoundPlayer@@@ATL@@6B?$IQuickActivateImpl@VCOPOSSoundPlayer@@@1@@ DQ FLAT:?QueryInterface@?$CComObject@VCOPOSSoundPlayer@@@ATL@@WBAA@EAAJAEBU_GUID@@PEAPEAX@Z ; ATL::CComObject<COPOSSoundPlayer>::`vftable'
	DQ	FLAT:?AddRef@?$CComObject@VCOPOSSoundPlayer@@@ATL@@WBAA@EAAKXZ
	DQ	FLAT:?Release@?$CComObject@VCOPOSSoundPlayer@@@ATL@@WBAA@EAAKXZ
	DQ	FLAT:?QuickActivate@?$IQuickActivateImpl@VCOPOSSoundPlayer@@@ATL@@UEAAJPEAUtagQACONTAINER@@PEAUtagQACONTROL@@@Z
	DQ	FLAT:?SetContentExtent@?$IQuickActivateImpl@VCOPOSSoundPlayer@@@ATL@@UEAAJPEAUtagSIZE@@@Z
	DQ	FLAT:?GetContentExtent@?$IQuickActivateImpl@VCOPOSSoundPlayer@@@ATL@@UEAAJPEAUtagSIZE@@@Z
CONST	ENDS
;	COMDAT ??_7?$CComObject@VCOPOSSoundPlayer@@@ATL@@6B?$ISpecifyPropertyPagesImpl@VCOPOSSoundPlayer@@@1@@
CONST	SEGMENT
??_7?$CComObject@VCOPOSSoundPlayer@@@ATL@@6B?$ISpecifyPropertyPagesImpl@VCOPOSSoundPlayer@@@1@@ DQ FLAT:?QueryInterface@?$CComObject@VCOPOSSoundPlayer@@@ATL@@WPI@EAAJAEBU_GUID@@PEAPEAX@Z ; ATL::CComObject<COPOSSoundPlayer>::`vftable'
	DQ	FLAT:?AddRef@?$CComObject@VCOPOSSoundPlayer@@@ATL@@WPI@EAAKXZ
	DQ	FLAT:?Release@?$CComObject@VCOPOSSoundPlayer@@@ATL@@WPI@EAAKXZ
	DQ	FLAT:?GetPages@?$ISpecifyPropertyPagesImpl@VCOPOSSoundPlayer@@@ATL@@UEAAJPEAUtagCAUUID@@@Z
CONST	ENDS
;	COMDAT ??_7?$CComObject@VCOPOSSoundPlayer@@@ATL@@6B?$IPersistStorageImpl@VCOPOSSoundPlayer@@@1@@
CONST	SEGMENT
??_7?$CComObject@VCOPOSSoundPlayer@@@ATL@@6B?$IPersistStorageImpl@VCOPOSSoundPlayer@@@1@@ DQ FLAT:?QueryInterface@?$CComObject@VCOPOSSoundPlayer@@@ATL@@WPA@EAAJAEBU_GUID@@PEAPEAX@Z ; ATL::CComObject<COPOSSoundPlayer>::`vftable'
	DQ	FLAT:?AddRef@?$CComObject@VCOPOSSoundPlayer@@@ATL@@WPA@EAAKXZ
	DQ	FLAT:?Release@?$CComObject@VCOPOSSoundPlayer@@@ATL@@WPA@EAAKXZ
	DQ	FLAT:?GetClassID@?$IPersistStorageImpl@VCOPOSSoundPlayer@@@ATL@@UEAAJPEAU_GUID@@@Z
	DQ	FLAT:?IsDirty@?$IPersistStorageImpl@VCOPOSSoundPlayer@@@ATL@@UEAAJXZ
	DQ	FLAT:?InitNew@?$IPersistStorageImpl@VCOPOSSoundPlayer@@@ATL@@UEAAJPEAUIStorage@@@Z
	DQ	FLAT:?Load@?$IPersistStorageImpl@VCOPOSSoundPlayer@@@ATL@@UEAAJPEAUIStorage@@@Z
	DQ	FLAT:?Save@?$IPersistStorageImpl@VCOPOSSoundPlayer@@@ATL@@UEAAJPEAUIStorage@@H@Z
	DQ	FLAT:?SaveCompleted@?$IPersistStorageImpl@VCOPOSSoundPlayer@@@ATL@@UEAAJPEAUIStorage@@@Z
	DQ	FLAT:?HandsOffStorage@?$IPersistStorageImpl@VCOPOSSoundPlayer@@@ATL@@UEAAJXZ
CONST	ENDS
;	COMDAT ??_7?$CComObject@VCOPOSSoundPlayer@@@ATL@@6B?$IConnectionPointContainerImpl@VCOPOSSoundPlayer@@@1@@
CONST	SEGMENT
??_7?$CComObject@VCOPOSSoundPlayer@@@ATL@@6B?$IConnectionPointContainerImpl@VCOPOSSoundPlayer@@@1@@ DQ FLAT:?QueryInterface@?$CComObject@VCOPOSSoundPlayer@@@ATL@@WOI@EAAJAEBU_GUID@@PEAPEAX@Z ; ATL::CComObject<COPOSSoundPlayer>::`vftable'
	DQ	FLAT:?AddRef@?$CComObject@VCOPOSSoundPlayer@@@ATL@@WOI@EAAKXZ
	DQ	FLAT:?Release@?$CComObject@VCOPOSSoundPlayer@@@ATL@@WOI@EAAKXZ
	DQ	FLAT:?EnumConnectionPoints@?$IConnectionPointContainerImpl@VCOPOSSoundPlayer@@@ATL@@UEAAJPEAPEAUIEnumConnectionPoints@@@Z
	DQ	FLAT:?FindConnectionPoint@?$IConnectionPointContainerImpl@VCOPOSSoundPlayer@@@ATL@@UEAAJAEBU_GUID@@PEAPEAUIConnectionPoint@@@Z
CONST	ENDS
;	COMDAT ??_7?$CComObject@VCOPOSSoundPlayer@@@ATL@@6B?$IOleInPlaceObjectWindowlessImpl@VCOPOSSoundPlayer@@@1@@
CONST	SEGMENT
??_7?$CComObject@VCOPOSSoundPlayer@@@ATL@@6B?$IOleInPlaceObjectWindowlessImpl@VCOPOSSoundPlayer@@@1@@ DQ FLAT:?QueryInterface@?$CComObject@VCOPOSSoundPlayer@@@ATL@@WOA@EAAJAEBU_GUID@@PEAPEAX@Z ; ATL::CComObject<COPOSSoundPlayer>::`vftable'
	DQ	FLAT:?AddRef@?$CComObject@VCOPOSSoundPlayer@@@ATL@@WOA@EAAKXZ
	DQ	FLAT:?Release@?$CComObject@VCOPOSSoundPlayer@@@ATL@@WOA@EAAKXZ
	DQ	FLAT:?GetWindow@?$IOleInPlaceObjectWindowlessImpl@VCOPOSSoundPlayer@@@ATL@@UEAAJPEAPEAUHWND__@@@Z
	DQ	FLAT:?ContextSensitiveHelp@?$IOleInPlaceObjectWindowlessImpl@VCOPOSSoundPlayer@@@ATL@@UEAAJH@Z
	DQ	FLAT:?InPlaceDeactivate@?$IOleInPlaceObjectWindowlessImpl@VCOPOSSoundPlayer@@@ATL@@UEAAJXZ
	DQ	FLAT:?UIDeactivate@?$IOleInPlaceObjectWindowlessImpl@VCOPOSSoundPlayer@@@ATL@@UEAAJXZ
	DQ	FLAT:?SetObjectRects@?$IOleInPlaceObjectWindowlessImpl@VCOPOSSoundPlayer@@@ATL@@UEAAJPEBUtagRECT@@0@Z
	DQ	FLAT:?ReactivateAndUndo@?$IOleInPlaceObjectWindowlessImpl@VCOPOSSoundPlayer@@@ATL@@UEAAJXZ
	DQ	FLAT:?OnWindowMessage@?$IOleInPlaceObjectWindowlessImpl@VCOPOSSoundPlayer@@@ATL@@UEAAJI_K_JPEA_J@Z
	DQ	FLAT:?GetDropTarget@?$IOleInPlaceObjectWindowlessImpl@VCOPOSSoundPlayer@@@ATL@@UEAAJPEAPEAUIDropTarget@@@Z
CONST	ENDS
;	COMDAT ??_7?$CComObject@VCOPOSSoundPlayer@@@ATL@@6B?$IViewObjectExImpl@VCOPOSSoundPlayer@@@1@@
CONST	SEGMENT
??_7?$CComObject@VCOPOSSoundPlayer@@@ATL@@6B?$IViewObjectExImpl@VCOPOSSoundPlayer@@@1@@ DQ FLAT:?QueryInterface@?$CComObject@VCOPOSSoundPlayer@@@ATL@@WNI@EAAJAEBU_GUID@@PEAPEAX@Z ; ATL::CComObject<COPOSSoundPlayer>::`vftable'
	DQ	FLAT:?AddRef@?$CComObject@VCOPOSSoundPlayer@@@ATL@@WNI@EAAKXZ
	DQ	FLAT:?Release@?$CComObject@VCOPOSSoundPlayer@@@ATL@@WNI@EAAKXZ
	DQ	FLAT:?Draw@?$IViewObjectExImpl@VCOPOSSoundPlayer@@@ATL@@UEAAJKJPEAXPEAUtagDVTARGETDEVICE@@PEAUHDC__@@2PEBU_RECTL@@3P6AH_K@Z4@Z
	DQ	FLAT:?GetColorSet@?$IViewObjectExImpl@VCOPOSSoundPlayer@@@ATL@@UEAAJKJPEAXPEAUtagDVTARGETDEVICE@@PEAUHDC__@@PEAPEAUtagLOGPALETTE@@@Z
	DQ	FLAT:?Freeze@?$IViewObjectExImpl@VCOPOSSoundPlayer@@@ATL@@UEAAJKJPEAXPEAK@Z
	DQ	FLAT:?Unfreeze@?$IViewObjectExImpl@VCOPOSSoundPlayer@@@ATL@@UEAAJK@Z
	DQ	FLAT:?SetAdvise@?$IViewObjectExImpl@VCOPOSSoundPlayer@@@ATL@@UEAAJKKPEAUIAdviseSink@@@Z
	DQ	FLAT:?GetAdvise@?$IViewObjectExImpl@VCOPOSSoundPlayer@@@ATL@@UEAAJPEAK0PEAPEAUIAdviseSink@@@Z
	DQ	FLAT:?GetExtent@?$IViewObjectExImpl@VCOPOSSoundPlayer@@@ATL@@UEAAJKJPEAUtagDVTARGETDEVICE@@PEAUtagSIZE@@@Z
	DQ	FLAT:?GetRect@?$IViewObjectExImpl@VCOPOSSoundPlayer@@@ATL@@UEAAJKPEAU_RECTL@@@Z
	DQ	FLAT:?GetViewStatus@?$IViewObjectExImpl@VCOPOSSoundPlayer@@@ATL@@UEAAJPEAK@Z
	DQ	FLAT:?QueryHitPoint@?$IViewObjectExImpl@VCOPOSSoundPlayer@@@ATL@@UEAAJKPEBUtagRECT@@UtagPOINT@@JPEAK@Z
	DQ	FLAT:?QueryHitRect@?$IViewObjectExImpl@VCOPOSSoundPlayer@@@ATL@@UEAAJKPEBUtagRECT@@0JPEAK@Z
	DQ	FLAT:?GetNaturalExtent@?$IViewObjectExImpl@VCOPOSSoundPlayer@@@ATL@@UEAAJKJPEAUtagDVTARGETDEVICE@@PEAUHDC__@@PEAUtagExtentInfo@@PEAUtagSIZE@@@Z
CONST	ENDS
;	COMDAT ??_7?$CComObject@VCOPOSSoundPlayer@@@ATL@@6B?$IOleInPlaceActiveObjectImpl@VCOPOSSoundPlayer@@@1@@
CONST	SEGMENT
??_7?$CComObject@VCOPOSSoundPlayer@@@ATL@@6B?$IOleInPlaceActiveObjectImpl@VCOPOSSoundPlayer@@@1@@ DQ FLAT:?QueryInterface@?$CComObject@VCOPOSSoundPlayer@@@ATL@@WNA@EAAJAEBU_GUID@@PEAPEAX@Z ; ATL::CComObject<COPOSSoundPlayer>::`vftable'
	DQ	FLAT:?AddRef@?$CComObject@VCOPOSSoundPlayer@@@ATL@@WNA@EAAKXZ
	DQ	FLAT:?Release@?$CComObject@VCOPOSSoundPlayer@@@ATL@@WNA@EAAKXZ
	DQ	FLAT:?GetWindow@?$IOleInPlaceActiveObjectImpl@VCOPOSSoundPlayer@@@ATL@@UEAAJPEAPEAUHWND__@@@Z
	DQ	FLAT:?ContextSensitiveHelp@?$IOleInPlaceActiveObjectImpl@VCOPOSSoundPlayer@@@ATL@@UEAAJH@Z
	DQ	FLAT:?TranslateAcceleratorW@?$IOleInPlaceActiveObjectImpl@VCOPOSSoundPlayer@@@ATL@@UEAAJPEAUtagMSG@@@Z
	DQ	FLAT:?OnFrameWindowActivate@?$IOleInPlaceActiveObjectImpl@VCOPOSSoundPlayer@@@ATL@@UEAAJH@Z
	DQ	FLAT:?OnDocWindowActivate@?$IOleInPlaceActiveObjectImpl@VCOPOSSoundPlayer@@@ATL@@UEAAJH@Z
	DQ	FLAT:?ResizeBorder@?$IOleInPlaceActiveObjectImpl@VCOPOSSoundPlayer@@@ATL@@UEAAJPEBUtagRECT@@PEAUIOleInPlaceUIWindow@@H@Z
	DQ	FLAT:?EnableModeless@?$IOleInPlaceActiveObjectImpl@VCOPOSSoundPlayer@@@ATL@@UEAAJH@Z
CONST	ENDS
;	COMDAT ??_7?$CComObject@VCOPOSSoundPlayer@@@ATL@@6B?$IOleObjectImpl@VCOPOSSoundPlayer@@@1@@
CONST	SEGMENT
??_7?$CComObject@VCOPOSSoundPlayer@@@ATL@@6B?$IOleObjectImpl@VCOPOSSoundPlayer@@@1@@ DQ FLAT:?QueryInterface@?$CComObject@VCOPOSSoundPlayer@@@ATL@@WMI@EAAJAEBU_GUID@@PEAPEAX@Z ; ATL::CComObject<COPOSSoundPlayer>::`vftable'
	DQ	FLAT:?AddRef@?$CComObject@VCOPOSSoundPlayer@@@ATL@@WMI@EAAKXZ
	DQ	FLAT:?Release@?$CComObject@VCOPOSSoundPlayer@@@ATL@@WMI@EAAKXZ
	DQ	FLAT:?SetClientSite@?$IOleObjectImpl@VCOPOSSoundPlayer@@@ATL@@UEAAJPEAUIOleClientSite@@@Z
	DQ	FLAT:?GetClientSite@?$IOleObjectImpl@VCOPOSSoundPlayer@@@ATL@@UEAAJPEAPEAUIOleClientSite@@@Z
	DQ	FLAT:?SetHostNames@?$IOleObjectImpl@VCOPOSSoundPlayer@@@ATL@@UEAAJPEB_W0@Z
	DQ	FLAT:?Close@?$IOleObjectImpl@VCOPOSSoundPlayer@@@ATL@@UEAAJK@Z
	DQ	FLAT:?SetMoniker@?$IOleObjectImpl@VCOPOSSoundPlayer@@@ATL@@UEAAJKPEAUIMoniker@@@Z
	DQ	FLAT:?GetMoniker@?$IOleObjectImpl@VCOPOSSoundPlayer@@@ATL@@UEAAJKKPEAPEAUIMoniker@@@Z
	DQ	FLAT:?InitFromData@?$IOleObjectImpl@VCOPOSSoundPlayer@@@ATL@@UEAAJPEAUIDataObject@@HK@Z
	DQ	FLAT:?GetClipboardData@?$IOleObjectImpl@VCOPOSSoundPlayer@@@ATL@@UEAAJKPEAPEAUIDataObject@@@Z
	DQ	FLAT:?DoVerb@?$IOleObjectImpl@VCOPOSSoundPlayer@@@ATL@@UEAAJJPEAUtagMSG@@PEAUIOleClientSite@@JPEAUHWND__@@PEBUtagRECT@@@Z
	DQ	FLAT:?EnumVerbs@?$IOleObjectImpl@VCOPOSSoundPlayer@@@ATL@@UEAAJPEAPEAUIEnumOLEVERB@@@Z
	DQ	FLAT:?Update@?$IOleObjectImpl@VCOPOSSoundPlayer@@@ATL@@UEAAJXZ
	DQ	FLAT:?IsUpToDate@?$IOleObjectImpl@VCOPOSSoundPlayer@@@ATL@@UEAAJXZ
	DQ	FLAT:?GetUserClassID@?$IOleObjectImpl@VCOPOSSoundPlayer@@@ATL@@UEAAJPEAU_GUID@@@Z
	DQ	FLAT:?GetUserType@?$IOleObjectImpl@VCOPOSSoundPlayer@@@ATL@@UEAAJKPEAPEA_W@Z
	DQ	FLAT:?SetExtent@?$IOleObjectImpl@VCOPOSSoundPlayer@@@ATL@@UEAAJKPEAUtagSIZE@@@Z
	DQ	FLAT:?GetExtent@?$IOleObjectImpl@VCOPOSSoundPlayer@@@ATL@@UEAAJKPEAUtagSIZE@@@Z
	DQ	FLAT:?Advise@?$IOleObjectImpl@VCOPOSSoundPlayer@@@ATL@@UEAAJPEAUIAdviseSink@@PEAK@Z
	DQ	FLAT:?Unadvise@?$IOleObjectImpl@VCOPOSSoundPlayer@@@ATL@@UEAAJK@Z
	DQ	FLAT:?EnumAdvise@?$IOleObjectImpl@VCOPOSSoundPlayer@@@ATL@@UEAAJPEAPEAUIEnumSTATDATA@@@Z
	DQ	FLAT:?GetMiscStatus@?$IOleObjectImpl@VCOPOSSoundPlayer@@@ATL@@UEAAJKPEAK@Z
	DQ	FLAT:?SetColorScheme@?$IOleObjectImpl@VCOPOSSoundPlayer@@@ATL@@UEAAJPEAUtagLOGPALETTE@@@Z
CONST	ENDS
;	COMDAT ??_7?$CComObject@VCOPOSSoundPlayer@@@ATL@@6B?$IOleControlImpl@VCOPOSSoundPlayer@@@1@@
CONST	SEGMENT
??_7?$CComObject@VCOPOSSoundPlayer@@@ATL@@6B?$IOleControlImpl@VCOPOSSoundPlayer@@@1@@ DQ FLAT:?QueryInterface@?$CComObject@VCOPOSSoundPlayer@@@ATL@@WMA@EAAJAEBU_GUID@@PEAPEAX@Z ; ATL::CComObject<COPOSSoundPlayer>::`vftable'
	DQ	FLAT:?AddRef@?$CComObject@VCOPOSSoundPlayer@@@ATL@@WMA@EAAKXZ
	DQ	FLAT:?Release@?$CComObject@VCOPOSSoundPlayer@@@ATL@@WMA@EAAKXZ
	DQ	FLAT:?GetControlInfo@?$IOleControlImpl@VCOPOSSoundPlayer@@@ATL@@UEAAJPEAUtagCONTROLINFO@@@Z
	DQ	FLAT:?OnMnemonic@?$IOleControlImpl@VCOPOSSoundPlayer@@@ATL@@UEAAJPEAUtagMSG@@@Z
	DQ	FLAT:?OnAmbientPropertyChange@?$IOleControlImpl@VCOPOSSoundPlayer@@@ATL@@UEAAJJ@Z
	DQ	FLAT:?FreezeEvents@COPOSSoundPlayer@@MEAAJH@Z
CONST	ENDS
;	COMDAT ??_7?$CComObject@VCOPOSSoundPlayer@@@ATL@@6B?$IPersistStreamInitImpl@VCOPOSSoundPlayer@@@1@@
CONST	SEGMENT
??_7?$CComObject@VCOPOSSoundPlayer@@@ATL@@6B?$IPersistStreamInitImpl@VCOPOSSoundPlayer@@@1@@ DQ FLAT:?QueryInterface@?$CComObject@VCOPOSSoundPlayer@@@ATL@@WLI@EAAJAEBU_GUID@@PEAPEAX@Z ; ATL::CComObject<COPOSSoundPlayer>::`vftable'
	DQ	FLAT:?AddRef@?$CComObject@VCOPOSSoundPlayer@@@ATL@@WLI@EAAKXZ
	DQ	FLAT:?Release@?$CComObject@VCOPOSSoundPlayer@@@ATL@@WLI@EAAKXZ
	DQ	FLAT:?GetClassID@?$IPersistStreamInitImpl@VCOPOSSoundPlayer@@@ATL@@UEAAJPEAU_GUID@@@Z
	DQ	FLAT:?IsDirty@?$IPersistStreamInitImpl@VCOPOSSoundPlayer@@@ATL@@UEAAJXZ
	DQ	FLAT:?Load@?$IPersistStreamInitImpl@VCOPOSSoundPlayer@@@ATL@@UEAAJPEAUIStream@@@Z
	DQ	FLAT:?Save@?$IPersistStreamInitImpl@VCOPOSSoundPlayer@@@ATL@@UEAAJPEAUIStream@@H@Z
	DQ	FLAT:?GetSizeMax@?$IPersistStreamInitImpl@VCOPOSSoundPlayer@@@ATL@@UEAAJPEAT_ULARGE_INTEGER@@@Z
	DQ	FLAT:?InitNew@?$IPersistStreamInitImpl@VCOPOSSoundPlayer@@@ATL@@UEAAJXZ
CONST	ENDS
;	COMDAT ??_7?$CComObject@VCOPOSSoundPlayer@@@ATL@@6B?$CWindowImpl@VCOPOSSoundPlayer@@VCWindow@ATL@@V?$CWinTraits@$0FGAAAAAA@$0A@@3@@1@@
CONST	SEGMENT
??_7?$CComObject@VCOPOSSoundPlayer@@@ATL@@6B?$CWindowImpl@VCOPOSSoundPlayer@@VCWindow@ATL@@V?$CWinTraits@$0FGAAAAAA@$0A@@3@@1@@ DQ FLAT:?ProcessWindowMessage@COPOSSoundPlayer@@UEAAHPEAUHWND__@@I_K_JAEA_JK@Z ; ATL::CComObject<COPOSSoundPlayer>::`vftable'
	DQ	FLAT:??_E?$CComObject@VCOPOSSoundPlayer@@@ATL@@WHA@EAAPEAXI@Z
	DQ	FLAT:?GetWindowProc@?$CWindowImplBaseT@VCWindow@ATL@@V?$CWinTraits@$0FGAAAAAA@$0A@@2@@ATL@@UEAAP6A_JPEAUHWND__@@I_K_J@ZXZ
	DQ	FLAT:?OnFinalMessage@?$CWindowImplBaseT@VCWindow@ATL@@V?$CWinTraits@$0FGAAAAAA@$0A@@2@@ATL@@UEAAXPEAUHWND__@@@Z
CONST	ENDS
;	COMDAT ??_7?$CComObject@VCOPOSSoundPlayer@@@ATL@@6BCComControlBase@1@@
CONST	SEGMENT
??_7?$CComObject@VCOPOSSoundPlayer@@@ATL@@6BCComControlBase@1@@ DQ FLAT:??_E?$CComObject@VCOPOSSoundPlayer@@@ATL@@W7EAAPEAXI@Z ; ATL::CComObject<COPOSSoundPlayer>::`vftable'
	DQ	FLAT:?CreateControlWindow@?$CComControl@VCOPOSSoundPlayer@@V?$CWindowImpl@VCOPOSSoundPlayer@@VCWindow@ATL@@V?$CWinTraits@$0FGAAAAAA@$0A@@3@@ATL@@@ATL@@UEAAPEAUHWND__@@PEAU3@AEAUtagRECT@@@Z
	DQ	FLAT:?ControlQueryInterface@?$CComControl@VCOPOSSoundPlayer@@V?$CWindowImpl@VCOPOSSoundPlayer@@VCWindow@ATL@@V?$CWinTraits@$0FGAAAAAA@$0A@@3@@ATL@@@ATL@@UEAAJAEBU_GUID@@PEAPEAX@Z
	DQ	FLAT:?OnDrawAdvanced@CComControlBase@ATL@@UEAAJAEAUATL_DRAWINFO@@@Z
	DQ	FLAT:?OnDraw@COPOSSoundPlayer@@MEAAJAEAUATL_DRAWINFO@@@Z
CONST	ENDS
;	COMDAT ??_7?$CComObject@VCOPOSSoundPlayer@@@ATL@@6B?$IDispatchImpl@UIOPOSSoundPlayer@@$1?IID_IOPOSSoundPlayer@@3U_GUID@@B$1?LIBID_OposSoundPlayer_CCO@@3U3@B$00$0A@VCComTypeInfoHolder@ATL@@@1@@
CONST	SEGMENT
??_7?$CComObject@VCOPOSSoundPlayer@@@ATL@@6B?$IDispatchImpl@UIOPOSSoundPlayer@@$1?IID_IOPOSSoundPlayer@@3U_GUID@@B$1?LIBID_OposSoundPlayer_CCO@@3U3@B$00$0A@VCComTypeInfoHolder@ATL@@@1@@ DQ FLAT:?QueryInterface@?$CComObject@VCOPOSSoundPlayer@@@ATL@@UEAAJAEBU_GUID@@PEAPEAX@Z ; ATL::CComObject<COPOSSoundPlayer>::`vftable'
	DQ	FLAT:?AddRef@?$CComObject@VCOPOSSoundPlayer@@@ATL@@UEAAKXZ
	DQ	FLAT:?Release@?$CComObject@VCOPOSSoundPlayer@@@ATL@@UEAAKXZ
	DQ	FLAT:?GetTypeInfoCount@?$IDispatchImpl@UIOPOSSoundPlayer@@$1?IID_IOPOSSoundPlayer@@3U_GUID@@B$1?LIBID_OposSoundPlayer_CCO@@3U3@B$00$0A@VCComTypeInfoHolder@ATL@@@ATL@@UEAAJPEAI@Z
	DQ	FLAT:?GetTypeInfo@?$IDispatchImpl@UIOPOSSoundPlayer@@$1?IID_IOPOSSoundPlayer@@3U_GUID@@B$1?LIBID_OposSoundPlayer_CCO@@3U3@B$00$0A@VCComTypeInfoHolder@ATL@@@ATL@@UEAAJIKPEAPEAUITypeInfo@@@Z
	DQ	FLAT:?GetIDsOfNames@?$IDispatchImpl@UIOPOSSoundPlayer@@$1?IID_IOPOSSoundPlayer@@3U_GUID@@B$1?LIBID_OposSoundPlayer_CCO@@3U3@B$00$0A@VCComTypeInfoHolder@ATL@@@ATL@@UEAAJAEBU_GUID@@PEAPEA_WIKPEAJ@Z
	DQ	FLAT:?Invoke@?$IDispatchImpl@UIOPOSSoundPlayer@@$1?IID_IOPOSSoundPlayer@@3U_GUID@@B$1?LIBID_OposSoundPlayer_CCO@@3U3@B$00$0A@VCComTypeInfoHolder@ATL@@@ATL@@UEAAJJAEBU_GUID@@KGPEAUtagDISPPARAMS@@PEAUtagVARIANT@@PEAUtagEXCEPINFO@@PEAI@Z
	DQ	FLAT:?SODataDummy@COPOSSoundPlayer@@MEAAJJ@Z
	DQ	FLAT:?SODirectIO@COPOSSoundPlayer@@MEAAJJPEAJPEAPEA_W@Z
	DQ	FLAT:?SOError@COPOSSoundPlayer@@MEAAJJJJPEAJ@Z
	DQ	FLAT:?SOOutputComplete@COPOSSoundPlayer@@MEAAJJ@Z
	DQ	FLAT:?SOStatusUpdate@COPOSSoundPlayer@@MEAAJJ@Z
	DQ	FLAT:?SOProcessID@COPOSSoundPlayer@@UEAAJPEAJ@Z
	DQ	FLAT:?get_OpenResult@COPOSSoundPlayer@@UEAAJPEAJ@Z
	DQ	FLAT:?get_BinaryConversion@COPOSSoundPlayer@@UEAAJPEAJ@Z
	DQ	FLAT:?put_BinaryConversion@COPOSSoundPlayer@@UEAAJJ@Z
	DQ	FLAT:?get_CapPowerReporting@COPOSSoundPlayer@@UEAAJPEAJ@Z
	DQ	FLAT:?get_CheckHealthText@COPOSSoundPlayer@@UEAAJPEAPEA_W@Z
	DQ	FLAT:?get_Claimed@COPOSSoundPlayer@@UEAAJPEAF@Z
	DQ	FLAT:?get_DeviceEnabled@COPOSSoundPlayer@@UEAAJPEAF@Z
	DQ	FLAT:?put_DeviceEnabled@COPOSSoundPlayer@@UEAAJF@Z
	DQ	FLAT:?get_FreezeEvents@COPOSSoundPlayer@@UEAAJPEAF@Z
	DQ	FLAT:?put_FreezeEvents@COPOSSoundPlayer@@UEAAJF@Z
	DQ	FLAT:?get_OutputID@COPOSSoundPlayer@@UEAAJPEAJ@Z
	DQ	FLAT:?get_PowerNotify@COPOSSoundPlayer@@UEAAJPEAJ@Z
	DQ	FLAT:?put_PowerNotify@COPOSSoundPlayer@@UEAAJJ@Z
	DQ	FLAT:?get_PowerState@COPOSSoundPlayer@@UEAAJPEAJ@Z
	DQ	FLAT:?get_ResultCode@COPOSSoundPlayer@@UEAAJPEAJ@Z
	DQ	FLAT:?get_ResultCodeExtended@COPOSSoundPlayer@@UEAAJPEAJ@Z
	DQ	FLAT:?get_State@COPOSSoundPlayer@@UEAAJPEAJ@Z
	DQ	FLAT:?get_ControlObjectDescription@COPOSSoundPlayer@@UEAAJPEAPEA_W@Z
	DQ	FLAT:?get_ControlObjectVersion@COPOSSoundPlayer@@UEAAJPEAJ@Z
	DQ	FLAT:?get_ServiceObjectDescription@COPOSSoundPlayer@@UEAAJPEAPEA_W@Z
	DQ	FLAT:?get_ServiceObjectVersion@COPOSSoundPlayer@@UEAAJPEAJ@Z
	DQ	FLAT:?get_DeviceDescription@COPOSSoundPlayer@@UEAAJPEAPEA_W@Z
	DQ	FLAT:?get_DeviceName@COPOSSoundPlayer@@UEAAJPEAPEA_W@Z
	DQ	FLAT:?get_CapStatisticsReporting@COPOSSoundPlayer@@UEAAJPEAF@Z
	DQ	FLAT:?get_CapUpdateStatistics@COPOSSoundPlayer@@UEAAJPEAF@Z
	DQ	FLAT:?get_CapCompareFirmwareVersion@COPOSSoundPlayer@@UEAAJPEAF@Z
	DQ	FLAT:?get_CapUpdateFirmware@COPOSSoundPlayer@@UEAAJPEAF@Z
	DQ	FLAT:?CheckHealth@COPOSSoundPlayer@@UEAAJJPEAJ@Z
	DQ	FLAT:?ClaimDevice@COPOSSoundPlayer@@UEAAJJPEAJ@Z
	DQ	FLAT:?ClearOutput@COPOSSoundPlayer@@UEAAJPEAJ@Z
	DQ	FLAT:?Close@COPOSSoundPlayer@@UEAAJPEAJ@Z
	DQ	FLAT:?DirectIO@COPOSSoundPlayer@@UEAAJJPEAJPEAPEA_W0@Z
	DQ	FLAT:?Open@COPOSSoundPlayer@@UEAAJPEA_WPEAJ@Z
	DQ	FLAT:?ReleaseDevice@COPOSSoundPlayer@@UEAAJPEAJ@Z
	DQ	FLAT:?ResetStatistics@COPOSSoundPlayer@@UEAAJPEA_WPEAJ@Z
	DQ	FLAT:?RetrieveStatistics@COPOSSoundPlayer@@UEAAJPEAPEA_WPEAJ@Z
	DQ	FLAT:?UpdateStatistics@COPOSSoundPlayer@@UEAAJPEA_WPEAJ@Z
	DQ	FLAT:?CompareFirmwareVersion@COPOSSoundPlayer@@UEAAJPEA_WPEAJ1@Z
	DQ	FLAT:?UpdateFirmware@COPOSSoundPlayer@@UEAAJPEA_WPEAJ@Z
	DQ	FLAT:?get_CapAssociatedHardTotalsDevice@COPOSSoundPlayer@@UEAAJPEAPEA_W@Z
	DQ	FLAT:?get_CapMultiPlay@COPOSSoundPlayer@@UEAAJPEAF@Z
	DQ	FLAT:?get_CapSoundTypeList@COPOSSoundPlayer@@UEAAJPEAPEA_W@Z
	DQ	FLAT:?get_CapStorage@COPOSSoundPlayer@@UEAAJPEAJ@Z
	DQ	FLAT:?get_CapVolume@COPOSSoundPlayer@@UEAAJPEAF@Z
	DQ	FLAT:?get_DeviceSoundList@COPOSSoundPlayer@@UEAAJPEAPEA_W@Z
	DQ	FLAT:?get_OutputIDList@COPOSSoundPlayer@@UEAAJPEAPEA_W@Z
	DQ	FLAT:?get_Storage@COPOSSoundPlayer@@UEAAJPEAJ@Z
	DQ	FLAT:?put_Storage@COPOSSoundPlayer@@UEAAJJ@Z
	DQ	FLAT:?get_Volume@COPOSSoundPlayer@@UEAAJPEAJ@Z
	DQ	FLAT:?put_Volume@COPOSSoundPlayer@@UEAAJJ@Z
	DQ	FLAT:?PlaySoundW@COPOSSoundPlayer@@UEAAJPEA_WFPEAJ@Z
	DQ	FLAT:?StopSound@COPOSSoundPlayer@@UEAAJJPEAJ@Z
CONST	ENDS
;	COMDAT ??_C@_1BC@KAILKFFG@?$AAR?$AAE?$AAG?$AAI?$AAS?$AAT?$AAR?$AAY@
CONST	SEGMENT
??_C@_1BC@KAILKFFG@?$AAR?$AAE?$AAG?$AAI?$AAS?$AAT?$AAR?$AAY@ DB 'R', 00H, 'E'
	DB	00H, 'G', 00H, 'I', 00H, 'S', 00H, 'T', 00H, 'R', 00H, 'Y', 00H
	DB	00H, 00H					; `string'
CONST	ENDS
;	COMDAT ??_C@_1BG@JBACFMF@?$AAM?$AAo?$AAd?$AAu?$AAl?$AAe?$AA_?$AAR?$AAa?$AAw@
CONST	SEGMENT
??_C@_1BG@JBACFMF@?$AAM?$AAo?$AAd?$AAu?$AAl?$AAe?$AA_?$AAR?$AAa?$AAw@ DB 'M'
	DB	00H, 'o', 00H, 'd', 00H, 'u', 00H, 'l', 00H, 'e', 00H, '_', 00H
	DB	'R', 00H, 'a', 00H, 'w', 00H, 00H, 00H	; `string'
CONST	ENDS
;	COMDAT ??_C@_1O@MNLDABAF@?$AAM?$AAo?$AAd?$AAu?$AAl?$AAe@
CONST	SEGMENT
??_C@_1O@MNLDABAF@?$AAM?$AAo?$AAd?$AAu?$AAl?$AAe@ DB 'M', 00H, 'o', 00H, 'd'
	DB	00H, 'u', 00H, 'l', 00H, 'e', 00H, 00H, 00H	; `string'
CONST	ENDS
;	COMDAT ??_7?$CComAggObject@VCOPOSSoundPlayer@@@ATL@@6B@
CONST	SEGMENT
??_7?$CComAggObject@VCOPOSSoundPlayer@@@ATL@@6B@ DQ FLAT:?QueryInterface@?$CComAggObject@VCOPOSSoundPlayer@@@ATL@@UEAAJAEBU_GUID@@PEAPEAX@Z ; ATL::CComAggObject<COPOSSoundPlayer>::`vftable'
	DQ	FLAT:?AddRef@?$CComAggObject@VCOPOSSoundPlayer@@@ATL@@UEAAKXZ
	DQ	FLAT:?Release@?$CComAggObject@VCOPOSSoundPlayer@@@ATL@@UEAAKXZ
	DQ	FLAT:??_E?$CComAggObject@VCOPOSSoundPlayer@@@ATL@@UEAAPEAXI@Z
CONST	ENDS
;	COMDAT ??_7?$CComContainedObject@VCOPOSSoundPlayer@@@ATL@@6B?$CProxy_IOPOSEvents@VCOPOSSoundPlayer@@@@@
CONST	SEGMENT
??_7?$CComContainedObject@VCOPOSSoundPlayer@@@ATL@@6B?$CProxy_IOPOSEvents@VCOPOSSoundPlayer@@@@@ DQ FLAT:?_LocCPQueryInterface@?$IConnectionPointImpl@VCOPOSSoundPlayer@@$1?DIID__IOPOSSoundPlayerEvents@@3U_GUID@@BVCComDynamicUnkArray@ATL@@@ATL@@UEAAJAEBU_GUID@@PEAPEAX@Z ; ATL::CComContainedObject<COPOSSoundPlayer>::`vftable'
	DQ	FLAT:?AddRef@?$CComContainedObject@VCOPOSSoundPlayer@@@ATL@@WBEA@EAAKXZ
	DQ	FLAT:?Release@?$CComContainedObject@VCOPOSSoundPlayer@@@ATL@@WBEA@EAAKXZ
	DQ	FLAT:?GetConnectionInterface@?$IConnectionPointImpl@VCOPOSSoundPlayer@@$1?DIID__IOPOSSoundPlayerEvents@@3U_GUID@@BVCComDynamicUnkArray@ATL@@@ATL@@UEAAJPEAU_GUID@@@Z
	DQ	FLAT:?GetConnectionPointContainer@?$IConnectionPointImpl@VCOPOSSoundPlayer@@$1?DIID__IOPOSSoundPlayerEvents@@3U_GUID@@BVCComDynamicUnkArray@ATL@@@ATL@@UEAAJPEAPEAUIConnectionPointContainer@@@Z
	DQ	FLAT:?Advise@?$IConnectionPointImpl@VCOPOSSoundPlayer@@$1?DIID__IOPOSSoundPlayerEvents@@3U_GUID@@BVCComDynamicUnkArray@ATL@@@ATL@@UEAAJPEAUIUnknown@@PEAK@Z
	DQ	FLAT:?Unadvise@?$IConnectionPointImpl@VCOPOSSoundPlayer@@$1?DIID__IOPOSSoundPlayerEvents@@3U_GUID@@BVCComDynamicUnkArray@ATL@@@ATL@@UEAAJK@Z
	DQ	FLAT:?EnumConnections@?$IConnectionPointImpl@VCOPOSSoundPlayer@@$1?DIID__IOPOSSoundPlayerEvents@@3U_GUID@@BVCComDynamicUnkArray@ATL@@@ATL@@UEAAJPEAPEAUIEnumConnections@@@Z
CONST	ENDS
;	COMDAT ??_7?$CComContainedObject@VCOPOSSoundPlayer@@@ATL@@6B?$IPropertyNotifySinkCP@VCOPOSSoundPlayer@@VCComDynamicUnkArray@ATL@@@1@@
CONST	SEGMENT
??_7?$CComContainedObject@VCOPOSSoundPlayer@@@ATL@@6B?$IPropertyNotifySinkCP@VCOPOSSoundPlayer@@VCComDynamicUnkArray@ATL@@@1@@ DQ FLAT:?_LocCPQueryInterface@?$IConnectionPointImpl@VCOPOSSoundPlayer@@$1?IID_IPropertyNotifySink@@3U_GUID@@BVCComDynamicUnkArray@ATL@@@ATL@@UEAAJAEBU_GUID@@PEAPEAX@Z ; ATL::CComContainedObject<COPOSSoundPlayer>::`vftable'
	DQ	FLAT:?AddRef@?$CComContainedObject@VCOPOSSoundPlayer@@@ATL@@WBCI@EAAKXZ
	DQ	FLAT:?Release@?$CComContainedObject@VCOPOSSoundPlayer@@@ATL@@WBCI@EAAKXZ
	DQ	FLAT:?GetConnectionInterface@?$IConnectionPointImpl@VCOPOSSoundPlayer@@$1?IID_IPropertyNotifySink@@3U_GUID@@BVCComDynamicUnkArray@ATL@@@ATL@@UEAAJPEAU_GUID@@@Z
	DQ	FLAT:?GetConnectionPointContainer@?$IConnectionPointImpl@VCOPOSSoundPlayer@@$1?IID_IPropertyNotifySink@@3U_GUID@@BVCComDynamicUnkArray@ATL@@@ATL@@UEAAJPEAPEAUIConnectionPointContainer@@@Z
	DQ	FLAT:?Advise@?$IConnectionPointImpl@VCOPOSSoundPlayer@@$1?IID_IPropertyNotifySink@@3U_GUID@@BVCComDynamicUnkArray@ATL@@@ATL@@UEAAJPEAUIUnknown@@PEAK@Z
	DQ	FLAT:?Unadvise@?$IConnectionPointImpl@VCOPOSSoundPlayer@@$1?IID_IPropertyNotifySink@@3U_GUID@@BVCComDynamicUnkArray@ATL@@@ATL@@UEAAJK@Z
	DQ	FLAT:?EnumConnections@?$IConnectionPointImpl@VCOPOSSoundPlayer@@$1?IID_IPropertyNotifySink@@3U_GUID@@BVCComDynamicUnkArray@ATL@@@ATL@@UEAAJPEAPEAUIEnumConnections@@@Z
CONST	ENDS
;	COMDAT ??_7?$CComContainedObject@VCOPOSSoundPlayer@@@ATL@@6B?$IObjectSafetyImpl@VCOPOSSoundPlayer@@$02@1@@
CONST	SEGMENT
??_7?$CComContainedObject@VCOPOSSoundPlayer@@@ATL@@6B?$IObjectSafetyImpl@VCOPOSSoundPlayer@@$02@1@@ DQ FLAT:?QueryInterface@?$CComContainedObject@VCOPOSSoundPlayer@@@ATL@@WBBI@EAAJAEBU_GUID@@PEAPEAX@Z ; ATL::CComContainedObject<COPOSSoundPlayer>::`vftable'
	DQ	FLAT:?AddRef@?$CComContainedObject@VCOPOSSoundPlayer@@@ATL@@WBBI@EAAKXZ
	DQ	FLAT:?Release@?$CComContainedObject@VCOPOSSoundPlayer@@@ATL@@WBBI@EAAKXZ
	DQ	FLAT:?GetInterfaceSafetyOptions@?$IObjectSafetyImpl@VCOPOSSoundPlayer@@$02@ATL@@UEAAJAEBU_GUID@@PEAK1@Z
	DQ	FLAT:?SetInterfaceSafetyOptions@?$IObjectSafetyImpl@VCOPOSSoundPlayer@@$02@ATL@@UEAAJAEBU_GUID@@KK@Z
	DQ	FLAT:?FAccessAllowed@?$IObjectSafetyImpl@VCOPOSSoundPlayer@@$02@ATL@@MEAAHXZ
CONST	ENDS
;	COMDAT ??_7?$CComContainedObject@VCOPOSSoundPlayer@@@ATL@@6B?$IProvideClassInfo2Impl@$1?CLSID_OPOSSoundPlayer@@3U_GUID@@B$1?DIID__IOPOSSoundPlayerEvents@@3U2@B$1?LIBID_OposSoundPlayer_CCO@@3U2@B$00$0A@VCComTypeInfoHolder@ATL@@@1@@
CONST	SEGMENT
??_7?$CComContainedObject@VCOPOSSoundPlayer@@@ATL@@6B?$IProvideClassInfo2Impl@$1?CLSID_OPOSSoundPlayer@@3U_GUID@@B$1?DIID__IOPOSSoundPlayerEvents@@3U2@B$1?LIBID_OposSoundPlayer_CCO@@3U2@B$00$0A@VCComTypeInfoHolder@ATL@@@1@@ DQ FLAT:?QueryInterface@?$CComContainedObject@VCOPOSSoundPlayer@@@ATL@@WBBA@EAAJAEBU_GUID@@PEAPEAX@Z ; ATL::CComContainedObject<COPOSSoundPlayer>::`vftable'
	DQ	FLAT:?AddRef@?$CComContainedObject@VCOPOSSoundPlayer@@@ATL@@WBBA@EAAKXZ
	DQ	FLAT:?Release@?$CComContainedObject@VCOPOSSoundPlayer@@@ATL@@WBBA@EAAKXZ
	DQ	FLAT:?GetClassInfoW@?$IProvideClassInfo2Impl@$1?CLSID_OPOSSoundPlayer@@3U_GUID@@B$1?DIID__IOPOSSoundPlayerEvents@@3U2@B$1?LIBID_OposSoundPlayer_CCO@@3U2@B$00$0A@VCComTypeInfoHolder@ATL@@@ATL@@UEAAJPEAPEAUITypeInfo@@@Z
	DQ	FLAT:?GetGUID@?$IProvideClassInfo2Impl@$1?CLSID_OPOSSoundPlayer@@3U_GUID@@B$1?DIID__IOPOSSoundPlayerEvents@@3U2@B$1?LIBID_OposSoundPlayer_CCO@@3U2@B$00$0A@VCComTypeInfoHolder@ATL@@@ATL@@UEAAJKPEAU_GUID@@@Z
CONST	ENDS
;	COMDAT ??_7?$CComContainedObject@VCOPOSSoundPlayer@@@ATL@@6B?$IDataObjectImpl@VCOPOSSoundPlayer@@@1@@
CONST	SEGMENT
??_7?$CComContainedObject@VCOPOSSoundPlayer@@@ATL@@6B?$IDataObjectImpl@VCOPOSSoundPlayer@@@1@@ DQ FLAT:?QueryInterface@?$CComContainedObject@VCOPOSSoundPlayer@@@ATL@@WBAI@EAAJAEBU_GUID@@PEAPEAX@Z ; ATL::CComContainedObject<COPOSSoundPlayer>::`vftable'
	DQ	FLAT:?AddRef@?$CComContainedObject@VCOPOSSoundPlayer@@@ATL@@WBAI@EAAKXZ
	DQ	FLAT:?Release@?$CComContainedObject@VCOPOSSoundPlayer@@@ATL@@WBAI@EAAKXZ
	DQ	FLAT:?GetData@?$IDataObjectImpl@VCOPOSSoundPlayer@@@ATL@@UEAAJPEAUtagFORMATETC@@PEAUtagSTGMEDIUM@@@Z
	DQ	FLAT:?GetDataHere@?$IDataObjectImpl@VCOPOSSoundPlayer@@@ATL@@UEAAJPEAUtagFORMATETC@@PEAUtagSTGMEDIUM@@@Z
	DQ	FLAT:?QueryGetData@?$IDataObjectImpl@VCOPOSSoundPlayer@@@ATL@@UEAAJPEAUtagFORMATETC@@@Z
	DQ	FLAT:?GetCanonicalFormatEtc@?$IDataObjectImpl@VCOPOSSoundPlayer@@@ATL@@UEAAJPEAUtagFORMATETC@@0@Z
	DQ	FLAT:?SetData@?$IDataObjectImpl@VCOPOSSoundPlayer@@@ATL@@UEAAJPEAUtagFORMATETC@@PEAUtagSTGMEDIUM@@H@Z
	DQ	FLAT:?EnumFormatEtc@?$IDataObjectImpl@VCOPOSSoundPlayer@@@ATL@@UEAAJKPEAPEAUIEnumFORMATETC@@@Z
	DQ	FLAT:?DAdvise@?$IDataObjectImpl@VCOPOSSoundPlayer@@@ATL@@UEAAJPEAUtagFORMATETC@@KPEAUIAdviseSink@@PEAK@Z
	DQ	FLAT:?DUnadvise@?$IDataObjectImpl@VCOPOSSoundPlayer@@@ATL@@UEAAJK@Z
	DQ	FLAT:?EnumDAdvise@?$IDataObjectImpl@VCOPOSSoundPlayer@@@ATL@@UEAAJPEAPEAUIEnumSTATDATA@@@Z
CONST	ENDS
;	COMDAT ??_7?$CComContainedObject@VCOPOSSoundPlayer@@@ATL@@6B?$IQuickActivateImpl@VCOPOSSoundPlayer@@@1@@
CONST	SEGMENT
??_7?$CComContainedObject@VCOPOSSoundPlayer@@@ATL@@6B?$IQuickActivateImpl@VCOPOSSoundPlayer@@@1@@ DQ FLAT:?QueryInterface@?$CComContainedObject@VCOPOSSoundPlayer@@@ATL@@WBAA@EAAJAEBU_GUID@@PEAPEAX@Z ; ATL::CComContainedObject<COPOSSoundPlayer>::`vftable'
	DQ	FLAT:?AddRef@?$CComContainedObject@VCOPOSSoundPlayer@@@ATL@@WBAA@EAAKXZ
	DQ	FLAT:?Release@?$CComContainedObject@VCOPOSSoundPlayer@@@ATL@@WBAA@EAAKXZ
	DQ	FLAT:?QuickActivate@?$IQuickActivateImpl@VCOPOSSoundPlayer@@@ATL@@UEAAJPEAUtagQACONTAINER@@PEAUtagQACONTROL@@@Z
	DQ	FLAT:?SetContentExtent@?$IQuickActivateImpl@VCOPOSSoundPlayer@@@ATL@@UEAAJPEAUtagSIZE@@@Z
	DQ	FLAT:?GetContentExtent@?$IQuickActivateImpl@VCOPOSSoundPlayer@@@ATL@@UEAAJPEAUtagSIZE@@@Z
CONST	ENDS
;	COMDAT ??_7?$CComContainedObject@VCOPOSSoundPlayer@@@ATL@@6B?$ISpecifyPropertyPagesImpl@VCOPOSSoundPlayer@@@1@@
CONST	SEGMENT
??_7?$CComContainedObject@VCOPOSSoundPlayer@@@ATL@@6B?$ISpecifyPropertyPagesImpl@VCOPOSSoundPlayer@@@1@@ DQ FLAT:?QueryInterface@?$CComContainedObject@VCOPOSSoundPlayer@@@ATL@@WPI@EAAJAEBU_GUID@@PEAPEAX@Z ; ATL::CComContainedObject<COPOSSoundPlayer>::`vftable'
	DQ	FLAT:?AddRef@?$CComContainedObject@VCOPOSSoundPlayer@@@ATL@@WPI@EAAKXZ
	DQ	FLAT:?Release@?$CComContainedObject@VCOPOSSoundPlayer@@@ATL@@WPI@EAAKXZ
	DQ	FLAT:?GetPages@?$ISpecifyPropertyPagesImpl@VCOPOSSoundPlayer@@@ATL@@UEAAJPEAUtagCAUUID@@@Z
CONST	ENDS
;	COMDAT ??_7?$CComContainedObject@VCOPOSSoundPlayer@@@ATL@@6B?$IPersistStorageImpl@VCOPOSSoundPlayer@@@1@@
CONST	SEGMENT
??_7?$CComContainedObject@VCOPOSSoundPlayer@@@ATL@@6B?$IPersistStorageImpl@VCOPOSSoundPlayer@@@1@@ DQ FLAT:?QueryInterface@?$CComContainedObject@VCOPOSSoundPlayer@@@ATL@@WPA@EAAJAEBU_GUID@@PEAPEAX@Z ; ATL::CComContainedObject<COPOSSoundPlayer>::`vftable'
	DQ	FLAT:?AddRef@?$CComContainedObject@VCOPOSSoundPlayer@@@ATL@@WPA@EAAKXZ
	DQ	FLAT:?Release@?$CComContainedObject@VCOPOSSoundPlayer@@@ATL@@WPA@EAAKXZ
	DQ	FLAT:?GetClassID@?$IPersistStorageImpl@VCOPOSSoundPlayer@@@ATL@@UEAAJPEAU_GUID@@@Z
	DQ	FLAT:?IsDirty@?$IPersistStorageImpl@VCOPOSSoundPlayer@@@ATL@@UEAAJXZ
	DQ	FLAT:?InitNew@?$IPersistStorageImpl@VCOPOSSoundPlayer@@@ATL@@UEAAJPEAUIStorage@@@Z
	DQ	FLAT:?Load@?$IPersistStorageImpl@VCOPOSSoundPlayer@@@ATL@@UEAAJPEAUIStorage@@@Z
	DQ	FLAT:?Save@?$IPersistStorageImpl@VCOPOSSoundPlayer@@@ATL@@UEAAJPEAUIStorage@@H@Z
	DQ	FLAT:?SaveCompleted@?$IPersistStorageImpl@VCOPOSSoundPlayer@@@ATL@@UEAAJPEAUIStorage@@@Z
	DQ	FLAT:?HandsOffStorage@?$IPersistStorageImpl@VCOPOSSoundPlayer@@@ATL@@UEAAJXZ
CONST	ENDS
;	COMDAT ??_7?$CComContainedObject@VCOPOSSoundPlayer@@@ATL@@6B?$IConnectionPointContainerImpl@VCOPOSSoundPlayer@@@1@@
CONST	SEGMENT
??_7?$CComContainedObject@VCOPOSSoundPlayer@@@ATL@@6B?$IConnectionPointContainerImpl@VCOPOSSoundPlayer@@@1@@ DQ FLAT:?QueryInterface@?$CComContainedObject@VCOPOSSoundPlayer@@@ATL@@WOI@EAAJAEBU_GUID@@PEAPEAX@Z ; ATL::CComContainedObject<COPOSSoundPlayer>::`vftable'
	DQ	FLAT:?AddRef@?$CComContainedObject@VCOPOSSoundPlayer@@@ATL@@WOI@EAAKXZ
	DQ	FLAT:?Release@?$CComContainedObject@VCOPOSSoundPlayer@@@ATL@@WOI@EAAKXZ
	DQ	FLAT:?EnumConnectionPoints@?$IConnectionPointContainerImpl@VCOPOSSoundPlayer@@@ATL@@UEAAJPEAPEAUIEnumConnectionPoints@@@Z
	DQ	FLAT:?FindConnectionPoint@?$IConnectionPointContainerImpl@VCOPOSSoundPlayer@@@ATL@@UEAAJAEBU_GUID@@PEAPEAUIConnectionPoint@@@Z
CONST	ENDS
;	COMDAT ??_7?$CComContainedObject@VCOPOSSoundPlayer@@@ATL@@6B?$IOleInPlaceObjectWindowlessImpl@VCOPOSSoundPlayer@@@1@@
CONST	SEGMENT
??_7?$CComContainedObject@VCOPOSSoundPlayer@@@ATL@@6B?$IOleInPlaceObjectWindowlessImpl@VCOPOSSoundPlayer@@@1@@ DQ FLAT:?QueryInterface@?$CComContainedObject@VCOPOSSoundPlayer@@@ATL@@WOA@EAAJAEBU_GUID@@PEAPEAX@Z ; ATL::CComContainedObject<COPOSSoundPlayer>::`vftable'
	DQ	FLAT:?AddRef@?$CComContainedObject@VCOPOSSoundPlayer@@@ATL@@WOA@EAAKXZ
	DQ	FLAT:?Release@?$CComContainedObject@VCOPOSSoundPlayer@@@ATL@@WOA@EAAKXZ
	DQ	FLAT:?GetWindow@?$IOleInPlaceObjectWindowlessImpl@VCOPOSSoundPlayer@@@ATL@@UEAAJPEAPEAUHWND__@@@Z
	DQ	FLAT:?ContextSensitiveHelp@?$IOleInPlaceObjectWindowlessImpl@VCOPOSSoundPlayer@@@ATL@@UEAAJH@Z
	DQ	FLAT:?InPlaceDeactivate@?$IOleInPlaceObjectWindowlessImpl@VCOPOSSoundPlayer@@@ATL@@UEAAJXZ
	DQ	FLAT:?UIDeactivate@?$IOleInPlaceObjectWindowlessImpl@VCOPOSSoundPlayer@@@ATL@@UEAAJXZ
	DQ	FLAT:?SetObjectRects@?$IOleInPlaceObjectWindowlessImpl@VCOPOSSoundPlayer@@@ATL@@UEAAJPEBUtagRECT@@0@Z
	DQ	FLAT:?ReactivateAndUndo@?$IOleInPlaceObjectWindowlessImpl@VCOPOSSoundPlayer@@@ATL@@UEAAJXZ
	DQ	FLAT:?OnWindowMessage@?$IOleInPlaceObjectWindowlessImpl@VCOPOSSoundPlayer@@@ATL@@UEAAJI_K_JPEA_J@Z
	DQ	FLAT:?GetDropTarget@?$IOleInPlaceObjectWindowlessImpl@VCOPOSSoundPlayer@@@ATL@@UEAAJPEAPEAUIDropTarget@@@Z
CONST	ENDS
;	COMDAT ??_7?$CComContainedObject@VCOPOSSoundPlayer@@@ATL@@6B?$IViewObjectExImpl@VCOPOSSoundPlayer@@@1@@
CONST	SEGMENT
??_7?$CComContainedObject@VCOPOSSoundPlayer@@@ATL@@6B?$IViewObjectExImpl@VCOPOSSoundPlayer@@@1@@ DQ FLAT:?QueryInterface@?$CComContainedObject@VCOPOSSoundPlayer@@@ATL@@WNI@EAAJAEBU_GUID@@PEAPEAX@Z ; ATL::CComContainedObject<COPOSSoundPlayer>::`vftable'
	DQ	FLAT:?AddRef@?$CComContainedObject@VCOPOSSoundPlayer@@@ATL@@WNI@EAAKXZ
	DQ	FLAT:?Release@?$CComContainedObject@VCOPOSSoundPlayer@@@ATL@@WNI@EAAKXZ
	DQ	FLAT:?Draw@?$IViewObjectExImpl@VCOPOSSoundPlayer@@@ATL@@UEAAJKJPEAXPEAUtagDVTARGETDEVICE@@PEAUHDC__@@2PEBU_RECTL@@3P6AH_K@Z4@Z
	DQ	FLAT:?GetColorSet@?$IViewObjectExImpl@VCOPOSSoundPlayer@@@ATL@@UEAAJKJPEAXPEAUtagDVTARGETDEVICE@@PEAUHDC__@@PEAPEAUtagLOGPALETTE@@@Z
	DQ	FLAT:?Freeze@?$IViewObjectExImpl@VCOPOSSoundPlayer@@@ATL@@UEAAJKJPEAXPEAK@Z
	DQ	FLAT:?Unfreeze@?$IViewObjectExImpl@VCOPOSSoundPlayer@@@ATL@@UEAAJK@Z
	DQ	FLAT:?SetAdvise@?$IViewObjectExImpl@VCOPOSSoundPlayer@@@ATL@@UEAAJKKPEAUIAdviseSink@@@Z
	DQ	FLAT:?GetAdvise@?$IViewObjectExImpl@VCOPOSSoundPlayer@@@ATL@@UEAAJPEAK0PEAPEAUIAdviseSink@@@Z
	DQ	FLAT:?GetExtent@?$IViewObjectExImpl@VCOPOSSoundPlayer@@@ATL@@UEAAJKJPEAUtagDVTARGETDEVICE@@PEAUtagSIZE@@@Z
	DQ	FLAT:?GetRect@?$IViewObjectExImpl@VCOPOSSoundPlayer@@@ATL@@UEAAJKPEAU_RECTL@@@Z
	DQ	FLAT:?GetViewStatus@?$IViewObjectExImpl@VCOPOSSoundPlayer@@@ATL@@UEAAJPEAK@Z
	DQ	FLAT:?QueryHitPoint@?$IViewObjectExImpl@VCOPOSSoundPlayer@@@ATL@@UEAAJKPEBUtagRECT@@UtagPOINT@@JPEAK@Z
	DQ	FLAT:?QueryHitRect@?$IViewObjectExImpl@VCOPOSSoundPlayer@@@ATL@@UEAAJKPEBUtagRECT@@0JPEAK@Z
	DQ	FLAT:?GetNaturalExtent@?$IViewObjectExImpl@VCOPOSSoundPlayer@@@ATL@@UEAAJKJPEAUtagDVTARGETDEVICE@@PEAUHDC__@@PEAUtagExtentInfo@@PEAUtagSIZE@@@Z
CONST	ENDS
;	COMDAT ??_7?$CComContainedObject@VCOPOSSoundPlayer@@@ATL@@6B?$IOleInPlaceActiveObjectImpl@VCOPOSSoundPlayer@@@1@@
CONST	SEGMENT
??_7?$CComContainedObject@VCOPOSSoundPlayer@@@ATL@@6B?$IOleInPlaceActiveObjectImpl@VCOPOSSoundPlayer@@@1@@ DQ FLAT:?QueryInterface@?$CComContainedObject@VCOPOSSoundPlayer@@@ATL@@WNA@EAAJAEBU_GUID@@PEAPEAX@Z ; ATL::CComContainedObject<COPOSSoundPlayer>::`vftable'
	DQ	FLAT:?AddRef@?$CComContainedObject@VCOPOSSoundPlayer@@@ATL@@WNA@EAAKXZ
	DQ	FLAT:?Release@?$CComContainedObject@VCOPOSSoundPlayer@@@ATL@@WNA@EAAKXZ
	DQ	FLAT:?GetWindow@?$IOleInPlaceActiveObjectImpl@VCOPOSSoundPlayer@@@ATL@@UEAAJPEAPEAUHWND__@@@Z
	DQ	FLAT:?ContextSensitiveHelp@?$IOleInPlaceActiveObjectImpl@VCOPOSSoundPlayer@@@ATL@@UEAAJH@Z
	DQ	FLAT:?TranslateAcceleratorW@?$IOleInPlaceActiveObjectImpl@VCOPOSSoundPlayer@@@ATL@@UEAAJPEAUtagMSG@@@Z
	DQ	FLAT:?OnFrameWindowActivate@?$IOleInPlaceActiveObjectImpl@VCOPOSSoundPlayer@@@ATL@@UEAAJH@Z
	DQ	FLAT:?OnDocWindowActivate@?$IOleInPlaceActiveObjectImpl@VCOPOSSoundPlayer@@@ATL@@UEAAJH@Z
	DQ	FLAT:?ResizeBorder@?$IOleInPlaceActiveObjectImpl@VCOPOSSoundPlayer@@@ATL@@UEAAJPEBUtagRECT@@PEAUIOleInPlaceUIWindow@@H@Z
	DQ	FLAT:?EnableModeless@?$IOleInPlaceActiveObjectImpl@VCOPOSSoundPlayer@@@ATL@@UEAAJH@Z
CONST	ENDS
;	COMDAT ??_7?$CComContainedObject@VCOPOSSoundPlayer@@@ATL@@6B?$IOleObjectImpl@VCOPOSSoundPlayer@@@1@@
CONST	SEGMENT
??_7?$CComContainedObject@VCOPOSSoundPlayer@@@ATL@@6B?$IOleObjectImpl@VCOPOSSoundPlayer@@@1@@ DQ FLAT:?QueryInterface@?$CComContainedObject@VCOPOSSoundPlayer@@@ATL@@WMI@EAAJAEBU_GUID@@PEAPEAX@Z ; ATL::CComContainedObject<COPOSSoundPlayer>::`vftable'
	DQ	FLAT:?AddRef@?$CComContainedObject@VCOPOSSoundPlayer@@@ATL@@WMI@EAAKXZ
	DQ	FLAT:?Release@?$CComContainedObject@VCOPOSSoundPlayer@@@ATL@@WMI@EAAKXZ
	DQ	FLAT:?SetClientSite@?$IOleObjectImpl@VCOPOSSoundPlayer@@@ATL@@UEAAJPEAUIOleClientSite@@@Z
	DQ	FLAT:?GetClientSite@?$IOleObjectImpl@VCOPOSSoundPlayer@@@ATL@@UEAAJPEAPEAUIOleClientSite@@@Z
	DQ	FLAT:?SetHostNames@?$IOleObjectImpl@VCOPOSSoundPlayer@@@ATL@@UEAAJPEB_W0@Z
	DQ	FLAT:?Close@?$IOleObjectImpl@VCOPOSSoundPlayer@@@ATL@@UEAAJK@Z
	DQ	FLAT:?SetMoniker@?$IOleObjectImpl@VCOPOSSoundPlayer@@@ATL@@UEAAJKPEAUIMoniker@@@Z
	DQ	FLAT:?GetMoniker@?$IOleObjectImpl@VCOPOSSoundPlayer@@@ATL@@UEAAJKKPEAPEAUIMoniker@@@Z
	DQ	FLAT:?InitFromData@?$IOleObjectImpl@VCOPOSSoundPlayer@@@ATL@@UEAAJPEAUIDataObject@@HK@Z
	DQ	FLAT:?GetClipboardData@?$IOleObjectImpl@VCOPOSSoundPlayer@@@ATL@@UEAAJKPEAPEAUIDataObject@@@Z
	DQ	FLAT:?DoVerb@?$IOleObjectImpl@VCOPOSSoundPlayer@@@ATL@@UEAAJJPEAUtagMSG@@PEAUIOleClientSite@@JPEAUHWND__@@PEBUtagRECT@@@Z
	DQ	FLAT:?EnumVerbs@?$IOleObjectImpl@VCOPOSSoundPlayer@@@ATL@@UEAAJPEAPEAUIEnumOLEVERB@@@Z
	DQ	FLAT:?Update@?$IOleObjectImpl@VCOPOSSoundPlayer@@@ATL@@UEAAJXZ
	DQ	FLAT:?IsUpToDate@?$IOleObjectImpl@VCOPOSSoundPlayer@@@ATL@@UEAAJXZ
	DQ	FLAT:?GetUserClassID@?$IOleObjectImpl@VCOPOSSoundPlayer@@@ATL@@UEAAJPEAU_GUID@@@Z
	DQ	FLAT:?GetUserType@?$IOleObjectImpl@VCOPOSSoundPlayer@@@ATL@@UEAAJKPEAPEA_W@Z
	DQ	FLAT:?SetExtent@?$IOleObjectImpl@VCOPOSSoundPlayer@@@ATL@@UEAAJKPEAUtagSIZE@@@Z
	DQ	FLAT:?GetExtent@?$IOleObjectImpl@VCOPOSSoundPlayer@@@ATL@@UEAAJKPEAUtagSIZE@@@Z
	DQ	FLAT:?Advise@?$IOleObjectImpl@VCOPOSSoundPlayer@@@ATL@@UEAAJPEAUIAdviseSink@@PEAK@Z
	DQ	FLAT:?Unadvise@?$IOleObjectImpl@VCOPOSSoundPlayer@@@ATL@@UEAAJK@Z
	DQ	FLAT:?EnumAdvise@?$IOleObjectImpl@VCOPOSSoundPlayer@@@ATL@@UEAAJPEAPEAUIEnumSTATDATA@@@Z
	DQ	FLAT:?GetMiscStatus@?$IOleObjectImpl@VCOPOSSoundPlayer@@@ATL@@UEAAJKPEAK@Z
	DQ	FLAT:?SetColorScheme@?$IOleObjectImpl@VCOPOSSoundPlayer@@@ATL@@UEAAJPEAUtagLOGPALETTE@@@Z
CONST	ENDS
;	COMDAT ??_7?$CComContainedObject@VCOPOSSoundPlayer@@@ATL@@6B?$IOleControlImpl@VCOPOSSoundPlayer@@@1@@
CONST	SEGMENT
??_7?$CComContainedObject@VCOPOSSoundPlayer@@@ATL@@6B?$IOleControlImpl@VCOPOSSoundPlayer@@@1@@ DQ FLAT:?QueryInterface@?$CComContainedObject@VCOPOSSoundPlayer@@@ATL@@WMA@EAAJAEBU_GUID@@PEAPEAX@Z ; ATL::CComContainedObject<COPOSSoundPlayer>::`vftable'
	DQ	FLAT:?AddRef@?$CComContainedObject@VCOPOSSoundPlayer@@@ATL@@WMA@EAAKXZ
	DQ	FLAT:?Release@?$CComContainedObject@VCOPOSSoundPlayer@@@ATL@@WMA@EAAKXZ
	DQ	FLAT:?GetControlInfo@?$IOleControlImpl@VCOPOSSoundPlayer@@@ATL@@UEAAJPEAUtagCONTROLINFO@@@Z
	DQ	FLAT:?OnMnemonic@?$IOleControlImpl@VCOPOSSoundPlayer@@@ATL@@UEAAJPEAUtagMSG@@@Z
	DQ	FLAT:?OnAmbientPropertyChange@?$IOleControlImpl@VCOPOSSoundPlayer@@@ATL@@UEAAJJ@Z
	DQ	FLAT:?FreezeEvents@COPOSSoundPlayer@@MEAAJH@Z
CONST	ENDS
;	COMDAT ??_7?$CComContainedObject@VCOPOSSoundPlayer@@@ATL@@6B?$IPersistStreamInitImpl@VCOPOSSoundPlayer@@@1@@
CONST	SEGMENT
??_7?$CComContainedObject@VCOPOSSoundPlayer@@@ATL@@6B?$IPersistStreamInitImpl@VCOPOSSoundPlayer@@@1@@ DQ FLAT:?QueryInterface@?$CComContainedObject@VCOPOSSoundPlayer@@@ATL@@WLI@EAAJAEBU_GUID@@PEAPEAX@Z ; ATL::CComContainedObject<COPOSSoundPlayer>::`vftable'
	DQ	FLAT:?AddRef@?$CComContainedObject@VCOPOSSoundPlayer@@@ATL@@WLI@EAAKXZ
	DQ	FLAT:?Release@?$CComContainedObject@VCOPOSSoundPlayer@@@ATL@@WLI@EAAKXZ
	DQ	FLAT:?GetClassID@?$IPersistStreamInitImpl@VCOPOSSoundPlayer@@@ATL@@UEAAJPEAU_GUID@@@Z
	DQ	FLAT:?IsDirty@?$IPersistStreamInitImpl@VCOPOSSoundPlayer@@@ATL@@UEAAJXZ
	DQ	FLAT:?Load@?$IPersistStreamInitImpl@VCOPOSSoundPlayer@@@ATL@@UEAAJPEAUIStream@@@Z
	DQ	FLAT:?Save@?$IPersistStreamInitImpl@VCOPOSSoundPlayer@@@ATL@@UEAAJPEAUIStream@@H@Z
	DQ	FLAT:?GetSizeMax@?$IPersistStreamInitImpl@VCOPOSSoundPlayer@@@ATL@@UEAAJPEAT_ULARGE_INTEGER@@@Z
	DQ	FLAT:?InitNew@?$IPersistStreamInitImpl@VCOPOSSoundPlayer@@@ATL@@UEAAJXZ
CONST	ENDS
;	COMDAT ??_7?$CComContainedObject@VCOPOSSoundPlayer@@@ATL@@6B?$CWindowImpl@VCOPOSSoundPlayer@@VCWindow@ATL@@V?$CWinTraits@$0FGAAAAAA@$0A@@3@@1@@
CONST	SEGMENT
??_7?$CComContainedObject@VCOPOSSoundPlayer@@@ATL@@6B?$CWindowImpl@VCOPOSSoundPlayer@@VCWindow@ATL@@V?$CWinTraits@$0FGAAAAAA@$0A@@3@@1@@ DQ FLAT:?ProcessWindowMessage@COPOSSoundPlayer@@UEAAHPEAUHWND__@@I_K_JAEA_JK@Z ; ATL::CComContainedObject<COPOSSoundPlayer>::`vftable'
	DQ	FLAT:??_E?$CComContainedObject@VCOPOSSoundPlayer@@@ATL@@WHA@EAAPEAXI@Z
	DQ	FLAT:?GetWindowProc@?$CWindowImplBaseT@VCWindow@ATL@@V?$CWinTraits@$0FGAAAAAA@$0A@@2@@ATL@@UEAAP6A_JPEAUHWND__@@I_K_J@ZXZ
	DQ	FLAT:?OnFinalMessage@?$CWindowImplBaseT@VCWindow@ATL@@V?$CWinTraits@$0FGAAAAAA@$0A@@2@@ATL@@UEAAXPEAUHWND__@@@Z
CONST	ENDS
;	COMDAT ??_7?$CComContainedObject@VCOPOSSoundPlayer@@@ATL@@6BCComControlBase@1@@
CONST	SEGMENT
??_7?$CComContainedObject@VCOPOSSoundPlayer@@@ATL@@6BCComControlBase@1@@ DQ FLAT:??_E?$CComContainedObject@VCOPOSSoundPlayer@@@ATL@@W7EAAPEAXI@Z ; ATL::CComContainedObject<COPOSSoundPlayer>::`vftable'
	DQ	FLAT:?CreateControlWindow@?$CComControl@VCOPOSSoundPlayer@@V?$CWindowImpl@VCOPOSSoundPlayer@@VCWindow@ATL@@V?$CWinTraits@$0FGAAAAAA@$0A@@3@@ATL@@@ATL@@UEAAPEAUHWND__@@PEAU3@AEAUtagRECT@@@Z
	DQ	FLAT:?ControlQueryInterface@?$CComControl@VCOPOSSoundPlayer@@V?$CWindowImpl@VCOPOSSoundPlayer@@VCWindow@ATL@@V?$CWinTraits@$0FGAAAAAA@$0A@@3@@ATL@@@ATL@@UEAAJAEBU_GUID@@PEAPEAX@Z
	DQ	FLAT:?OnDrawAdvanced@CComControlBase@ATL@@UEAAJAEAUATL_DRAWINFO@@@Z
	DQ	FLAT:?OnDraw@COPOSSoundPlayer@@MEAAJAEAUATL_DRAWINFO@@@Z
CONST	ENDS
;	COMDAT ??_7?$CComContainedObject@VCOPOSSoundPlayer@@@ATL@@6B?$IDispatchImpl@UIOPOSSoundPlayer@@$1?IID_IOPOSSoundPlayer@@3U_GUID@@B$1?LIBID_OposSoundPlayer_CCO@@3U3@B$00$0A@VCComTypeInfoHolder@ATL@@@1@@
CONST	SEGMENT
??_7?$CComContainedObject@VCOPOSSoundPlayer@@@ATL@@6B?$IDispatchImpl@UIOPOSSoundPlayer@@$1?IID_IOPOSSoundPlayer@@3U_GUID@@B$1?LIBID_OposSoundPlayer_CCO@@3U3@B$00$0A@VCComTypeInfoHolder@ATL@@@1@@ DQ FLAT:?QueryInterface@?$CComContainedObject@VCOPOSSoundPlayer@@@ATL@@UEAAJAEBU_GUID@@PEAPEAX@Z ; ATL::CComContainedObject<COPOSSoundPlayer>::`vftable'
	DQ	FLAT:?AddRef@?$CComContainedObject@VCOPOSSoundPlayer@@@ATL@@UEAAKXZ
	DQ	FLAT:?Release@?$CComContainedObject@VCOPOSSoundPlayer@@@ATL@@UEAAKXZ
	DQ	FLAT:?GetTypeInfoCount@?$IDispatchImpl@UIOPOSSoundPlayer@@$1?IID_IOPOSSoundPlayer@@3U_GUID@@B$1?LIBID_OposSoundPlayer_CCO@@3U3@B$00$0A@VCComTypeInfoHolder@ATL@@@ATL@@UEAAJPEAI@Z
	DQ	FLAT:?GetTypeInfo@?$IDispatchImpl@UIOPOSSoundPlayer@@$1?IID_IOPOSSoundPlayer@@3U_GUID@@B$1?LIBID_OposSoundPlayer_CCO@@3U3@B$00$0A@VCComTypeInfoHolder@ATL@@@ATL@@UEAAJIKPEAPEAUITypeInfo@@@Z
	DQ	FLAT:?GetIDsOfNames@?$IDispatchImpl@UIOPOSSoundPlayer@@$1?IID_IOPOSSoundPlayer@@3U_GUID@@B$1?LIBID_OposSoundPlayer_CCO@@3U3@B$00$0A@VCComTypeInfoHolder@ATL@@@ATL@@UEAAJAEBU_GUID@@PEAPEA_WIKPEAJ@Z
	DQ	FLAT:?Invoke@?$IDispatchImpl@UIOPOSSoundPlayer@@$1?IID_IOPOSSoundPlayer@@3U_GUID@@B$1?LIBID_OposSoundPlayer_CCO@@3U3@B$00$0A@VCComTypeInfoHolder@ATL@@@ATL@@UEAAJJAEBU_GUID@@KGPEAUtagDISPPARAMS@@PEAUtagVARIANT@@PEAUtagEXCEPINFO@@PEAI@Z
	DQ	FLAT:?SODataDummy@COPOSSoundPlayer@@MEAAJJ@Z
	DQ	FLAT:?SODirectIO@COPOSSoundPlayer@@MEAAJJPEAJPEAPEA_W@Z
	DQ	FLAT:?SOError@COPOSSoundPlayer@@MEAAJJJJPEAJ@Z
	DQ	FLAT:?SOOutputComplete@COPOSSoundPlayer@@MEAAJJ@Z
	DQ	FLAT:?SOStatusUpdate@COPOSSoundPlayer@@MEAAJJ@Z
	DQ	FLAT:?SOProcessID@COPOSSoundPlayer@@UEAAJPEAJ@Z
	DQ	FLAT:?get_OpenResult@COPOSSoundPlayer@@UEAAJPEAJ@Z
	DQ	FLAT:?get_BinaryConversion@COPOSSoundPlayer@@UEAAJPEAJ@Z
	DQ	FLAT:?put_BinaryConversion@COPOSSoundPlayer@@UEAAJJ@Z
	DQ	FLAT:?get_CapPowerReporting@COPOSSoundPlayer@@UEAAJPEAJ@Z
	DQ	FLAT:?get_CheckHealthText@COPOSSoundPlayer@@UEAAJPEAPEA_W@Z
	DQ	FLAT:?get_Claimed@COPOSSoundPlayer@@UEAAJPEAF@Z
	DQ	FLAT:?get_DeviceEnabled@COPOSSoundPlayer@@UEAAJPEAF@Z
	DQ	FLAT:?put_DeviceEnabled@COPOSSoundPlayer@@UEAAJF@Z
	DQ	FLAT:?get_FreezeEvents@COPOSSoundPlayer@@UEAAJPEAF@Z
	DQ	FLAT:?put_FreezeEvents@COPOSSoundPlayer@@UEAAJF@Z
	DQ	FLAT:?get_OutputID@COPOSSoundPlayer@@UEAAJPEAJ@Z
	DQ	FLAT:?get_PowerNotify@COPOSSoundPlayer@@UEAAJPEAJ@Z
	DQ	FLAT:?put_PowerNotify@COPOSSoundPlayer@@UEAAJJ@Z
	DQ	FLAT:?get_PowerState@COPOSSoundPlayer@@UEAAJPEAJ@Z
	DQ	FLAT:?get_ResultCode@COPOSSoundPlayer@@UEAAJPEAJ@Z
	DQ	FLAT:?get_ResultCodeExtended@COPOSSoundPlayer@@UEAAJPEAJ@Z
	DQ	FLAT:?get_State@COPOSSoundPlayer@@UEAAJPEAJ@Z
	DQ	FLAT:?get_ControlObjectDescription@COPOSSoundPlayer@@UEAAJPEAPEA_W@Z
	DQ	FLAT:?get_ControlObjectVersion@COPOSSoundPlayer@@UEAAJPEAJ@Z
	DQ	FLAT:?get_ServiceObjectDescription@COPOSSoundPlayer@@UEAAJPEAPEA_W@Z
	DQ	FLAT:?get_ServiceObjectVersion@COPOSSoundPlayer@@UEAAJPEAJ@Z
	DQ	FLAT:?get_DeviceDescription@COPOSSoundPlayer@@UEAAJPEAPEA_W@Z
	DQ	FLAT:?get_DeviceName@COPOSSoundPlayer@@UEAAJPEAPEA_W@Z
	DQ	FLAT:?get_CapStatisticsReporting@COPOSSoundPlayer@@UEAAJPEAF@Z
	DQ	FLAT:?get_CapUpdateStatistics@COPOSSoundPlayer@@UEAAJPEAF@Z
	DQ	FLAT:?get_CapCompareFirmwareVersion@COPOSSoundPlayer@@UEAAJPEAF@Z
	DQ	FLAT:?get_CapUpdateFirmware@COPOSSoundPlayer@@UEAAJPEAF@Z
	DQ	FLAT:?CheckHealth@COPOSSoundPlayer@@UEAAJJPEAJ@Z
	DQ	FLAT:?ClaimDevice@COPOSSoundPlayer@@UEAAJJPEAJ@Z
	DQ	FLAT:?ClearOutput@COPOSSoundPlayer@@UEAAJPEAJ@Z
	DQ	FLAT:?Close@COPOSSoundPlayer@@UEAAJPEAJ@Z
	DQ	FLAT:?DirectIO@COPOSSoundPlayer@@UEAAJJPEAJPEAPEA_W0@Z
	DQ	FLAT:?Open@COPOSSoundPlayer@@UEAAJPEA_WPEAJ@Z
	DQ	FLAT:?ReleaseDevice@COPOSSoundPlayer@@UEAAJPEAJ@Z
	DQ	FLAT:?ResetStatistics@COPOSSoundPlayer@@UEAAJPEA_WPEAJ@Z
	DQ	FLAT:?RetrieveStatistics@COPOSSoundPlayer@@UEAAJPEAPEA_WPEAJ@Z
	DQ	FLAT:?UpdateStatistics@COPOSSoundPlayer@@UEAAJPEA_WPEAJ@Z
	DQ	FLAT:?CompareFirmwareVersion@COPOSSoundPlayer@@UEAAJPEA_WPEAJ1@Z
	DQ	FLAT:?UpdateFirmware@COPOSSoundPlayer@@UEAAJPEA_WPEAJ@Z
	DQ	FLAT:?get_CapAssociatedHardTotalsDevice@COPOSSoundPlayer@@UEAAJPEAPEA_W@Z
	DQ	FLAT:?get_CapMultiPlay@COPOSSoundPlayer@@UEAAJPEAF@Z
	DQ	FLAT:?get_CapSoundTypeList@COPOSSoundPlayer@@UEAAJPEAPEA_W@Z
	DQ	FLAT:?get_CapStorage@COPOSSoundPlayer@@UEAAJPEAJ@Z
	DQ	FLAT:?get_CapVolume@COPOSSoundPlayer@@UEAAJPEAF@Z
	DQ	FLAT:?get_DeviceSoundList@COPOSSoundPlayer@@UEAAJPEAPEA_W@Z
	DQ	FLAT:?get_OutputIDList@COPOSSoundPlayer@@UEAAJPEAPEA_W@Z
	DQ	FLAT:?get_Storage@COPOSSoundPlayer@@UEAAJPEAJ@Z
	DQ	FLAT:?put_Storage@COPOSSoundPlayer@@UEAAJJ@Z
	DQ	FLAT:?get_Volume@COPOSSoundPlayer@@UEAAJPEAJ@Z
	DQ	FLAT:?put_Volume@COPOSSoundPlayer@@UEAAJJ@Z
	DQ	FLAT:?PlaySoundW@COPOSSoundPlayer@@UEAAJPEA_WFPEAJ@Z
	DQ	FLAT:?StopSound@COPOSSoundPlayer@@UEAAJJPEAJ@Z
CONST	ENDS
;	COMDAT ??_C@_1BE@LJOLIMEM@?$AA?$AN?$AA?6?$AA?7?$AA?$HN?$AA?$AN?$AA?6?$AA?$HN?$AA?$AN?$AA?6@
CONST	SEGMENT
??_C@_1BE@LJOLIMEM@?$AA?$AN?$AA?6?$AA?7?$AA?$HN?$AA?$AN?$AA?6?$AA?$HN?$AA?$AN?$AA?6@ DB 0dH
	DB	00H, 0aH, 00H, 09H, 00H, '}', 00H, 0dH, 00H, 0aH, 00H, '}', 00H
	DB	0dH, 00H, 0aH, 00H, 00H, 00H			; `string'
CONST	ENDS
;	COMDAT ??_C@_1EA@NHKLICFA@?$AAH?$AAK?$AAC?$AAU?$AA?$AN?$AA?6?$AA?$HL?$AA?7?$AAS?$AAo?$AAf?$AAt?$AAw?$AAa?$AAr@
CONST	SEGMENT
??_C@_1EA@NHKLICFA@?$AAH?$AAK?$AAC?$AAU?$AA?$AN?$AA?6?$AA?$HL?$AA?7?$AAS?$AAo?$AAf?$AAt?$AAw?$AAa?$AAr@ DB 'H'
	DB	00H, 'K', 00H, 'C', 00H, 'U', 00H, 0dH, 00H, 0aH, 00H, '{', 00H
	DB	09H, 00H, 'S', 00H, 'o', 00H, 'f', 00H, 't', 00H, 'w', 00H, 'a'
	DB	00H, 'r', 00H, 'e', 00H, 0dH, 00H, 0aH, 00H, 09H, 00H, '{', 00H
	DB	0dH, 00H, 0aH, 00H, 09H, 00H, 09H, 00H, 'C', 00H, 'l', 00H, 'a'
	DB	00H, 's', 00H, 's', 00H, 'e', 00H, 's', 00H, 00H, 00H ; `string'
CONST	ENDS
;	COMDAT ??_C@_1M@PPPPCDEP@?$AAA?$AAP?$AAP?$AAI?$AAD@
CONST	SEGMENT
??_C@_1M@PPPPCDEP@?$AAA?$AAP?$AAP?$AAI?$AAD@ DB 'A', 00H, 'P', 00H, 'P', 00H
	DB	'I', 00H, 'D', 00H, 00H, 00H			; `string'
CONST	ENDS
;	COMDAT _GUID_7fd52380_4e07_101b_ae2d_08002b2ec713
CONST	SEGMENT
_GUID_7fd52380_4e07_101b_ae2d_08002b2ec713 DD 07fd52380H
	DW	04e07H
	DW	0101bH
	DB	0aeH
	DB	02dH
	DB	08H
	DB	00H
	DB	02bH
	DB	02eH
	DB	0c7H
	DB	013H
CONST	ENDS
;	COMDAT _GUID_00000109_0000_0000_c000_000000000046
CONST	SEGMENT
_GUID_00000109_0000_0000_c000_000000000046 DD 0109H
	DW	00H
	DW	00H
	DB	0c0H
	DB	00H
	DB	00H
	DB	00H
	DB	00H
	DB	00H
	DB	00H
	DB	046H
CONST	ENDS
;	COMDAT _GUID_0000010d_0000_0000_c000_000000000046
CONST	SEGMENT
_GUID_0000010d_0000_0000_c000_000000000046 DD 010dH
	DW	00H
	DW	00H
	DB	0c0H
	DB	00H
	DB	00H
	DB	00H
	DB	00H
	DB	00H
	DB	00H
	DB	046H
CONST	ENDS
;	COMDAT _GUID_00000127_0000_0000_c000_000000000046
CONST	SEGMENT
_GUID_00000127_0000_0000_c000_000000000046 DD 0127H
	DW	00H
	DW	00H
	DB	0c0H
	DB	00H
	DB	00H
	DB	00H
	DB	00H
	DB	00H
	DB	00H
	DB	046H
CONST	ENDS
;	COMDAT ??_C@_1CI@BBJOACGG@?$AAH?$AAK?$AAE?$AAY?$AA_?$AAC?$AAU?$AAR?$AAR?$AAE?$AAN?$AAT?$AA_?$AAC?$AAO@
CONST	SEGMENT
??_C@_1CI@BBJOACGG@?$AAH?$AAK?$AAE?$AAY?$AA_?$AAC?$AAU?$AAR?$AAR?$AAE?$AAN?$AAT?$AA_?$AAC?$AAO@ DB 'H'
	DB	00H, 'K', 00H, 'E', 00H, 'Y', 00H, '_', 00H, 'C', 00H, 'U', 00H
	DB	'R', 00H, 'R', 00H, 'E', 00H, 'N', 00H, 'T', 00H, '_', 00H, 'C'
	DB	00H, 'O', 00H, 'N', 00H, 'F', 00H, 'I', 00H, 'G', 00H, 00H, 00H ; `string'
CONST	ENDS
;	COMDAT ??_C@_1BM@HAGMMHIA@?$AAH?$AAK?$AAE?$AAY?$AA_?$AAD?$AAY?$AAN?$AA_?$AAD?$AAA?$AAT?$AAA@
CONST	SEGMENT
??_C@_1BM@HAGMMHIA@?$AAH?$AAK?$AAE?$AAY?$AA_?$AAD?$AAY?$AAN?$AA_?$AAD?$AAA?$AAT?$AAA@ DB 'H'
	DB	00H, 'K', 00H, 'E', 00H, 'Y', 00H, '_', 00H, 'D', 00H, 'Y', 00H
	DB	'N', 00H, '_', 00H, 'D', 00H, 'A', 00H, 'T', 00H, 'A', 00H, 00H
	DB	00H						; `string'
CONST	ENDS
;	COMDAT _GUID_3af24292_0c96_11ce_a0cf_00aa00600ab8
CONST	SEGMENT
_GUID_3af24292_0c96_11ce_a0cf_00aa00600ab8 DD 03af24292H
	DW	0c96H
	DW	011ceH
	DB	0a0H
	DB	0cfH
	DB	00H
	DB	0aaH
	DB	00H
	DB	060H
	DB	0aH
	DB	0b8H
CONST	ENDS
;	COMDAT ??_C@_1CM@KHNNAOIC@?$AAH?$AAK?$AAE?$AAY?$AA_?$AAP?$AAE?$AAR?$AAF?$AAO?$AAR?$AAM?$AAA?$AAN?$AAC@
CONST	SEGMENT
??_C@_1CM@KHNNAOIC@?$AAH?$AAK?$AAE?$AAY?$AA_?$AAP?$AAE?$AAR?$AAF?$AAO?$AAR?$AAM?$AAA?$AAN?$AAC@ DB 'H'
	DB	00H, 'K', 00H, 'E', 00H, 'Y', 00H, '_', 00H, 'P', 00H, 'E', 00H
	DB	'R', 00H, 'F', 00H, 'O', 00H, 'R', 00H, 'M', 00H, 'A', 00H, 'N'
	DB	00H, 'C', 00H, 'E', 00H, '_', 00H, 'D', 00H, 'A', 00H, 'T', 00H
	DB	'A', 00H, 00H, 00H				; `string'
CONST	ENDS
;	COMDAT ??_C@_1BG@BGODANIO@?$AAH?$AAK?$AAE?$AAY?$AA_?$AAU?$AAS?$AAE?$AAR?$AAS@
CONST	SEGMENT
??_C@_1BG@BGODANIO@?$AAH?$AAK?$AAE?$AAY?$AA_?$AAU?$AAS?$AAE?$AAR?$AAS@ DB 'H'
	DB	00H, 'K', 00H, 'E', 00H, 'Y', 00H, '_', 00H, 'U', 00H, 'S', 00H
	DB	'E', 00H, 'R', 00H, 'S', 00H, 00H, 00H	; `string'
CONST	ENDS
;	COMDAT ??_C@_1CG@GFBEANJL@?$AAH?$AAK?$AAE?$AAY?$AA_?$AAL?$AAO?$AAC?$AAA?$AAL?$AA_?$AAM?$AAA?$AAC?$AAH@
CONST	SEGMENT
??_C@_1CG@GFBEANJL@?$AAH?$AAK?$AAE?$AAY?$AA_?$AAL?$AAO?$AAC?$AAA?$AAL?$AA_?$AAM?$AAA?$AAC?$AAH@ DB 'H'
	DB	00H, 'K', 00H, 'E', 00H, 'Y', 00H, '_', 00H, 'L', 00H, 'O', 00H
	DB	'C', 00H, 'A', 00H, 'L', 00H, '_', 00H, 'M', 00H, 'A', 00H, 'C'
	DB	00H, 'H', 00H, 'I', 00H, 'N', 00H, 'E', 00H, 00H, 00H ; `string'
CONST	ENDS
;	COMDAT ??_C@_1CE@HLHNCBPM@?$AAH?$AAK?$AAE?$AAY?$AA_?$AAC?$AAU?$AAR?$AAR?$AAE?$AAN?$AAT?$AA_?$AAU?$AAS@
CONST	SEGMENT
??_C@_1CE@HLHNCBPM@?$AAH?$AAK?$AAE?$AAY?$AA_?$AAC?$AAU?$AAR?$AAR?$AAE?$AAN?$AAT?$AA_?$AAU?$AAS@ DB 'H'
	DB	00H, 'K', 00H, 'E', 00H, 'Y', 00H, '_', 00H, 'C', 00H, 'U', 00H
	DB	'R', 00H, 'R', 00H, 'E', 00H, 'N', 00H, 'T', 00H, '_', 00H, 'U'
	DB	00H, 'S', 00H, 'E', 00H, 'R', 00H, 00H, 00H	; `string'
CONST	ENDS
;	COMDAT ??_C@_1CE@PACHPJFI@?$AAH?$AAK?$AAE?$AAY?$AA_?$AAC?$AAL?$AAA?$AAS?$AAS?$AAE?$AAS?$AA_?$AAR?$AAO@
CONST	SEGMENT
??_C@_1CE@PACHPJFI@?$AAH?$AAK?$AAE?$AAY?$AA_?$AAC?$AAL?$AAA?$AAS?$AAS?$AAE?$AAS?$AA_?$AAR?$AAO@ DB 'H'
	DB	00H, 'K', 00H, 'E', 00H, 'Y', 00H, '_', 00H, 'C', 00H, 'L', 00H
	DB	'A', 00H, 'S', 00H, 'S', 00H, 'E', 00H, 'S', 00H, '_', 00H, 'R'
	DB	00H, 'O', 00H, 'O', 00H, 'T', 00H, 00H, 00H	; `string'
CONST	ENDS
;	COMDAT ??_C@_19OFICIBHH@?$AAH?$AAK?$AAC?$AAC@
CONST	SEGMENT
??_C@_19OFICIBHH@?$AAH?$AAK?$AAC?$AAC@ DB 'H', 00H, 'K', 00H, 'C', 00H, 'C'
	DB	00H, 00H, 00H				; `string'
CONST	ENDS
;	COMDAT ??_C@_19GFFAIJHG@?$AAH?$AAK?$AAD?$AAD@
CONST	SEGMENT
??_C@_19GFFAIJHG@?$AAH?$AAK?$AAD?$AAD@ DB 'H', 00H, 'K', 00H, 'D', 00H, 'D'
	DB	00H, 00H, 00H				; `string'
CONST	ENDS
;	COMDAT ??_C@_19PNBHMJPL@?$AAH?$AAK?$AAP?$AAD@
CONST	SEGMENT
??_C@_19PNBHMJPL@?$AAH?$AAK?$AAP?$AAD@ DB 'H', 00H, 'K', 00H, 'P', 00H, 'D'
	DB	00H, 00H, 00H				; `string'
CONST	ENDS
;	COMDAT ??_C@_17PJOJPMPB@?$AAH?$AAK?$AAU@
CONST	SEGMENT
??_C@_17PJOJPMPB@?$AAH?$AAK?$AAU@ DB 'H', 00H, 'K', 00H, 'U', 00H, 00H, 00H ; `string'
CONST	ENDS
;	COMDAT ??_C@_19PEALEEJB@?$AAH?$AAK?$AAL?$AAM@
CONST	SEGMENT
??_C@_19PEALEEJB@?$AAH?$AAK?$AAL?$AAM@ DB 'H', 00H, 'K', 00H, 'L', 00H, 'M'
	DB	00H, 00H, 00H				; `string'
CONST	ENDS
;	COMDAT ??_C@_19JAPAIJDE@?$AAH?$AAK?$AAC?$AAU@
CONST	SEGMENT
??_C@_19JAPAIJDE@?$AAH?$AAK?$AAC?$AAU@ DB 'H', 00H, 'K', 00H, 'C', 00H, 'U'
	DB	00H, 00H, 00H				; `string'
CONST	ENDS
;	COMDAT ??_C@_19NCHLBIN@?$AAH?$AAK?$AAC?$AAR@
CONST	SEGMENT
??_C@_19NCHLBIN@?$AAH?$AAK?$AAC?$AAR@ DB 'H', 00H, 'K', 00H, 'C', 00H, 'R'
	DB	00H, 00H, 00H				; `string'
CONST	ENDS
;	COMDAT ?map@?1??HKeyFromString@CRegParser@ATL@@KAPEAUHKEY__@@PEA_W@Z@4QBUkeymap@?1??123@KAPEAU4@0@Z@B
CONST	SEGMENT
?map@?1??HKeyFromString@CRegParser@ATL@@KAPEAUHKEY__@@PEA_W@Z@4QBUkeymap@?1??123@KAPEAU4@0@Z@B DQ FLAT:??_C@_19NCHLBIN@?$AAH?$AAK?$AAC?$AAR@ ; `ATL::CRegParser::HKeyFromString'::`2'::map
	DQ	ffffffff80000000H
	DQ	FLAT:??_C@_19JAPAIJDE@?$AAH?$AAK?$AAC?$AAU@
	DQ	ffffffff80000001H
	DQ	FLAT:??_C@_19PEALEEJB@?$AAH?$AAK?$AAL?$AAM@
	DQ	ffffffff80000002H
	DQ	FLAT:??_C@_17PJOJPMPB@?$AAH?$AAK?$AAU@
	DQ	ffffffff80000003H
	DQ	FLAT:??_C@_19PNBHMJPL@?$AAH?$AAK?$AAP?$AAD@
	DQ	ffffffff80000004H
	DQ	FLAT:??_C@_19GFFAIJHG@?$AAH?$AAK?$AAD?$AAD@
	DQ	ffffffff80000006H
	DQ	FLAT:??_C@_19OFICIBHH@?$AAH?$AAK?$AAC?$AAC@
	DQ	ffffffff80000005H
	DQ	FLAT:??_C@_1CE@PACHPJFI@?$AAH?$AAK?$AAE?$AAY?$AA_?$AAC?$AAL?$AAA?$AAS?$AAS?$AAE?$AAS?$AA_?$AAR?$AAO@
	DQ	ffffffff80000000H
	DQ	FLAT:??_C@_1CE@HLHNCBPM@?$AAH?$AAK?$AAE?$AAY?$AA_?$AAC?$AAU?$AAR?$AAR?$AAE?$AAN?$AAT?$AA_?$AAU?$AAS@
	DQ	ffffffff80000001H
	DQ	FLAT:??_C@_1CG@GFBEANJL@?$AAH?$AAK?$AAE?$AAY?$AA_?$AAL?$AAO?$AAC?$AAA?$AAL?$AA_?$AAM?$AAA?$AAC?$AAH@
	DQ	ffffffff80000002H
	DQ	FLAT:??_C@_1BG@BGODANIO@?$AAH?$AAK?$AAE?$AAY?$AA_?$AAU?$AAS?$AAE?$AAR?$AAS@
	DQ	ffffffff80000003H
	DQ	FLAT:??_C@_1CM@KHNNAOIC@?$AAH?$AAK?$AAE?$AAY?$AA_?$AAP?$AAE?$AAR?$AAF?$AAO?$AAR?$AAM?$AAA?$AAN?$AAC@
	DQ	ffffffff80000004H
	DQ	FLAT:??_C@_1BM@HAGMMHIA@?$AAH?$AAK?$AAE?$AAY?$AA_?$AAD?$AAY?$AAN?$AA_?$AAD?$AAA?$AAT?$AAA@
	DQ	ffffffff80000006H
	DQ	FLAT:??_C@_1CI@BBJOACGG@?$AAH?$AAK?$AAE?$AAY?$AA_?$AAC?$AAU?$AAR?$AAR?$AAE?$AAN?$AAT?$AA_?$AAC?$AAO@
	DQ	ffffffff80000005H
CONST	ENDS
;	COMDAT _GUID_00000112_0000_0000_c000_000000000046
CONST	SEGMENT
_GUID_00000112_0000_0000_c000_000000000046 DD 0112H
	DW	00H
	DW	00H
	DB	0c0H
	DB	00H
	DB	00H
	DB	00H
	DB	00H
	DB	00H
	DB	00H
	DB	046H
CONST	ENDS
;	COMDAT ??_C@_1BA@JIHHIEDE@?$AAT?$AAy?$AAp?$AAe?$AAL?$AAi?$AAb@
CONST	SEGMENT
??_C@_1BA@JIHHIEDE@?$AAT?$AAy?$AAp?$AAe?$AAL?$AAi?$AAb@ DB 'T', 00H, 'y', 00H
	DB	'p', 00H, 'e', 00H, 'L', 00H, 'i', 00H, 'b', 00H, 00H, 00H ; `string'
CONST	ENDS
;	COMDAT ??_C@_1BC@EAHCMADO@?$AAS?$AAo?$AAf?$AAt?$AAw?$AAa?$AAr?$AAe@
CONST	SEGMENT
??_C@_1BC@EAHCMADO@?$AAS?$AAo?$AAf?$AAt?$AAw?$AAa?$AAr?$AAe@ DB 'S', 00H, 'o'
	DB	00H, 'f', 00H, 't', 00H, 'w', 00H, 'a', 00H, 'r', 00H, 'e', 00H
	DB	00H, 00H					; `string'
CONST	ENDS
;	COMDAT ??_C@_1O@GBFINDKL@?$AAS?$AAY?$AAS?$AAT?$AAE?$AAM@
CONST	SEGMENT
??_C@_1O@GBFINDKL@?$AAS?$AAY?$AAS?$AAT?$AAE?$AAM@ DB 'S', 00H, 'Y', 00H, 'S'
	DB	00H, 'T', 00H, 'E', 00H, 'M', 00H, 00H, 00H	; `string'
CONST	ENDS
;	COMDAT ??_C@_1BC@IBECJAAI@?$AAS?$AAE?$AAC?$AAU?$AAR?$AAI?$AAT?$AAY@
CONST	SEGMENT
??_C@_1BC@IBECJAAI@?$AAS?$AAE?$AAC?$AAU?$AAR?$AAI?$AAT?$AAY@ DB 'S', 00H, 'E'
	DB	00H, 'C', 00H, 'U', 00H, 'R', 00H, 'I', 00H, 'T', 00H, 'Y', 00H
	DB	00H, 00H					; `string'
CONST	ENDS
;	COMDAT ??_C@_17OMAOINJK@?$AAS?$AAA?$AAM@
CONST	SEGMENT
??_C@_17OMAOINJK@?$AAS?$AAA?$AAM@ DB 'S', 00H, 'A', 00H, 'M', 00H, 00H, 00H ; `string'
CONST	ENDS
;	COMDAT ??_C@_19HLLLM@?$AAM?$AAi?$AAm?$AAe@
CONST	SEGMENT
??_C@_19HLLLM@?$AAM?$AAi?$AAm?$AAe@ DB 'M', 00H, 'i', 00H, 'm', 00H, 'e', 00H
	DB	00H, 00H					; `string'
CONST	ENDS
;	COMDAT ??_C@_1BC@MAICEHGI@?$AAH?$AAa?$AAr?$AAd?$AAw?$AAa?$AAr?$AAe@
CONST	SEGMENT
??_C@_1BC@MAICEHGI@?$AAH?$AAa?$AAr?$AAd?$AAw?$AAa?$AAr?$AAe@ DB 'H', 00H, 'a'
	DB	00H, 'r', 00H, 'd', 00H, 'w', 00H, 'a', 00H, 'r', 00H, 'e', 00H
	DB	00H, 00H					; `string'
CONST	ENDS
;	COMDAT ??_C@_1BE@EKPAFMCP@?$AAI?$AAn?$AAt?$AAe?$AAr?$AAf?$AAa?$AAc?$AAe@
CONST	SEGMENT
??_C@_1BE@EKPAFMCP@?$AAI?$AAn?$AAt?$AAe?$AAr?$AAf?$AAa?$AAc?$AAe@ DB 'I', 00H
	DB	'n', 00H, 't', 00H, 'e', 00H, 'r', 00H, 'f', 00H, 'a', 00H, 'c'
	DB	00H, 'e', 00H, 00H, 00H			; `string'
CONST	ENDS
;	COMDAT ??_C@_1BC@NKMMNMGL@?$AAF?$AAi?$AAl?$AAe?$AAT?$AAy?$AAp?$AAe@
CONST	SEGMENT
??_C@_1BC@NKMMNMGL@?$AAF?$AAi?$AAl?$AAe?$AAT?$AAy?$AAp?$AAe@ DB 'F', 00H, 'i'
	DB	00H, 'l', 00H, 'e', 00H, 'T', 00H, 'y', 00H, 'p', 00H, 'e', 00H
	DB	00H, 00H					; `string'
CONST	ENDS
;	COMDAT ??_C@_1CK@OEKPKBNA@?$AAC?$AAo?$AAm?$AAp?$AAo?$AAn?$AAe?$AAn?$AAt?$AA?5?$AAC?$AAa?$AAt?$AAe?$AAg@
CONST	SEGMENT
??_C@_1CK@OEKPKBNA@?$AAC?$AAo?$AAm?$AAp?$AAo?$AAn?$AAe?$AAn?$AAt?$AA?5?$AAC?$AAa?$AAt?$AAe?$AAg@ DB 'C'
	DB	00H, 'o', 00H, 'm', 00H, 'p', 00H, 'o', 00H, 'n', 00H, 'e', 00H
	DB	'n', 00H, 't', 00H, ' ', 00H, 'C', 00H, 'a', 00H, 't', 00H, 'e'
	DB	00H, 'g', 00H, 'o', 00H, 'r', 00H, 'i', 00H, 'e', 00H, 's', 00H
	DB	00H, 00H					; `string'
CONST	ENDS
;	COMDAT _GUID_1c2056cc_5ef4_101b_8bc8_00aa003e3b29
CONST	SEGMENT
_GUID_1c2056cc_5ef4_101b_8bc8_00aa003e3b29 DD 01c2056ccH
	DW	05ef4H
	DW	0101bH
	DB	08bH
	DB	0c8H
	DB	00H
	DB	0aaH
	DB	00H
	DB	03eH
	DB	03bH
	DB	029H
CONST	ENDS
;	COMDAT ??_7CRegObject@ATL@@6B@
CONST	SEGMENT
??_7CRegObject@ATL@@6B@ DQ FLAT:?QueryInterface@CRegObject@ATL@@UEAAJAEBU_GUID@@PEAPEAX@Z ; ATL::CRegObject::`vftable'
	DQ	FLAT:?AddRef@CRegObject@ATL@@UEAAKXZ
	DQ	FLAT:?Release@CRegObject@ATL@@UEAAKXZ
	DQ	FLAT:?AddReplacement@CRegObject@ATL@@UEAAJPEB_W0@Z
	DQ	FLAT:?ClearReplacements@CRegObject@ATL@@UEAAJXZ
	DQ	FLAT:??_ECRegObject@ATL@@UEAAPEAXI@Z
CONST	ENDS
;	COMDAT _GUID_00000113_0000_0000_c000_000000000046
CONST	SEGMENT
_GUID_00000113_0000_0000_c000_000000000046 DD 0113H
	DW	00H
	DW	00H
	DB	0c0H
	DB	00H
	DB	00H
	DB	00H
	DB	00H
	DB	00H
	DB	00H
	DB	046H
CONST	ENDS
;	COMDAT ??_C@_1BM@FHAEDBFK@?$AAa?$AAt?$AAl?$AAT?$AAr?$AAa?$AAc?$AAe?$AAI?$AAS?$AAA?$AAP?$AAI@
CONST	SEGMENT
??_C@_1BM@FHAEDBFK@?$AAa?$AAt?$AAl?$AAT?$AAr?$AAa?$AAc?$AAe?$AAI?$AAS?$AAA?$AAP?$AAI@ DB 'a'
	DB	00H, 't', 00H, 'l', 00H, 'T', 00H, 'r', 00H, 'a', 00H, 'c', 00H
	DB	'e', 00H, 'I', 00H, 'S', 00H, 'A', 00H, 'P', 00H, 'I', 00H, 00H
	DB	00H						; `string'
CONST	ENDS
;	COMDAT ?rgszNeverDelete@CRegParser@ATL@@1QBQEB_WB
CONST	SEGMENT
?rgszNeverDelete@CRegParser@ATL@@1QBQEB_WB DQ FLAT:??_C@_1M@EJNEECMJ@?$AAA?$AAp?$AAp?$AAI?$AAD@ ; ATL::CRegParser::rgszNeverDelete
	DQ	FLAT:??_C@_1M@KANJNLFF@?$AAC?$AAL?$AAS?$AAI?$AAD@
	DQ	FLAT:??_C@_1CK@OEKPKBNA@?$AAC?$AAo?$AAm?$AAp?$AAo?$AAn?$AAe?$AAn?$AAt?$AA?5?$AAC?$AAa?$AAt?$AAe?$AAg@
	DQ	FLAT:??_C@_1BC@NKMMNMGL@?$AAF?$AAi?$AAl?$AAe?$AAT?$AAy?$AAp?$AAe@
	DQ	FLAT:??_C@_1BE@EKPAFMCP@?$AAI?$AAn?$AAt?$AAe?$AAr?$AAf?$AAa?$AAc?$AAe@
	DQ	FLAT:??_C@_1BC@MAICEHGI@?$AAH?$AAa?$AAr?$AAd?$AAw?$AAa?$AAr?$AAe@
	DQ	FLAT:??_C@_19HLLLM@?$AAM?$AAi?$AAm?$AAe@
	DQ	FLAT:??_C@_17OMAOINJK@?$AAS?$AAA?$AAM@
	DQ	FLAT:??_C@_1BC@IBECJAAI@?$AAS?$AAE?$AAC?$AAU?$AAR?$AAI?$AAT?$AAY@
	DQ	FLAT:??_C@_1O@GBFINDKL@?$AAS?$AAY?$AAS?$AAT?$AAE?$AAM@
	DQ	FLAT:??_C@_1BC@EAHCMADO@?$AAS?$AAo?$AAf?$AAt?$AAw?$AAa?$AAr?$AAe@
	DQ	FLAT:??_C@_1BA@JIHHIEDE@?$AAT?$AAy?$AAp?$AAe?$AAL?$AAi?$AAb@
CONST	ENDS
;	COMDAT ??_C@_1BK@OPAPOCAL@?$AAa?$AAt?$AAl?$AAT?$AAr?$AAa?$AAc?$AAe?$AAS?$AAy?$AAn?$AAc@
CONST	SEGMENT
??_C@_1BK@OPAPOCAL@?$AAa?$AAt?$AAl?$AAT?$AAr?$AAa?$AAc?$AAe?$AAS?$AAy?$AAn?$AAc@ DB 'a'
	DB	00H, 't', 00H, 'l', 00H, 'T', 00H, 'r', 00H, 'a', 00H, 'c', 00H
	DB	'e', 00H, 'S', 00H, 'y', 00H, 'n', 00H, 'c', 00H, 00H, 00H ; `string'
CONST	ENDS
;	COMDAT ??_C@_1CC@DMMBNCFG@?$AAa?$AAt?$AAl?$AAT?$AAr?$AAa?$AAc?$AAe?$AAS?$AAe?$AAc?$AAu?$AAr?$AAi?$AAt@
CONST	SEGMENT
??_C@_1CC@DMMBNCFG@?$AAa?$AAt?$AAl?$AAT?$AAr?$AAa?$AAc?$AAe?$AAS?$AAe?$AAc?$AAu?$AAr?$AAi?$AAt@ DB 'a'
	DB	00H, 't', 00H, 'l', 00H, 'T', 00H, 'r', 00H, 'a', 00H, 'c', 00H
	DB	'e', 00H, 'S', 00H, 'e', 00H, 'c', 00H, 'u', 00H, 'r', 00H, 'i'
	DB	00H, 't', 00H, 'y', 00H, 00H, 00H		; `string'
CONST	ENDS
;	COMDAT ??_C@_1BK@DMHCKHHD@?$AAa?$AAt?$AAl?$AAT?$AAr?$AAa?$AAc?$AAe?$AAU?$AAt?$AAi?$AAl@
CONST	SEGMENT
??_C@_1BK@DMHCKHHD@?$AAa?$AAt?$AAl?$AAT?$AAr?$AAa?$AAc?$AAe?$AAU?$AAt?$AAi?$AAl@ DB 'a'
	DB	00H, 't', 00H, 'l', 00H, 'T', 00H, 'r', 00H, 'a', 00H, 'c', 00H
	DB	'e', 00H, 'U', 00H, 't', 00H, 'i', 00H, 'l', 00H, 00H, 00H ; `string'
CONST	ENDS
;	COMDAT ??_C@_1BI@OKDLCIEM@?$AAa?$AAt?$AAl?$AAT?$AAr?$AAa?$AAc?$AAe?$AAM?$AAa?$AAp@
CONST	SEGMENT
??_C@_1BI@OKDLCIEM@?$AAa?$AAt?$AAl?$AAT?$AAr?$AAa?$AAc?$AAe?$AAM?$AAa?$AAp@ DB 'a'
	DB	00H, 't', 00H, 'l', 00H, 'T', 00H, 'r', 00H, 'a', 00H, 'c', 00H
	DB	'e', 00H, 'M', 00H, 'a', 00H, 'p', 00H, 00H, 00H ; `string'
CONST	ENDS
;	COMDAT ??_C@_1BO@GMLILNDJ@?$AAa?$AAt?$AAl?$AAT?$AAr?$AAa?$AAc?$AAe?$AAS?$AAt?$AAr?$AAi?$AAn?$AAg@
CONST	SEGMENT
??_C@_1BO@GMLILNDJ@?$AAa?$AAt?$AAl?$AAT?$AAr?$AAa?$AAc?$AAe?$AAS?$AAt?$AAr?$AAi?$AAn?$AAg@ DB 'a'
	DB	00H, 't', 00H, 'l', 00H, 'T', 00H, 'r', 00H, 'a', 00H, 'c', 00H
	DB	'e', 00H, 'S', 00H, 't', 00H, 'r', 00H, 'i', 00H, 'n', 00H, 'g'
	DB	00H, 00H, 00H				; `string'
CONST	ENDS
;	COMDAT ??_C@_1O@JDLOHAN@?$AAD?$AAe?$AAl?$AAe?$AAt?$AAe@
CONST	SEGMENT
??_C@_1O@JDLOHAN@?$AAD?$AAe?$AAl?$AAe?$AAt?$AAe@ DB 'D', 00H, 'e', 00H, 'l'
	DB	00H, 'e', 00H, 't', 00H, 'e', 00H, 00H, 00H	; `string'
CONST	ENDS
;	COMDAT ?szDelete@ATL@@3QEB_WEB
CONST	SEGMENT
?szDelete@ATL@@3QEB_WEB DQ FLAT:??_C@_1O@JDLOHAN@?$AAD?$AAe?$AAl?$AAe?$AAt?$AAe@ ; ATL::szDelete
CONST	ENDS
;	COMDAT ??_C@_1BC@GCKHIPE@?$AAN?$AAo?$AAR?$AAe?$AAm?$AAo?$AAv?$AAe@
CONST	SEGMENT
??_C@_1BC@GCKHIPE@?$AAN?$AAo?$AAR?$AAe?$AAm?$AAo?$AAv?$AAe@ DB 'N', 00H, 'o'
	DB	00H, 'R', 00H, 'e', 00H, 'm', 00H, 'o', 00H, 'v', 00H, 'e', 00H
	DB	00H, 00H					; `string'
CONST	ENDS
;	COMDAT ?szNoRemove@ATL@@3QEB_WEB
CONST	SEGMENT
?szNoRemove@ATL@@3QEB_WEB DQ FLAT:??_C@_1BC@GCKHIPE@?$AAN?$AAo?$AAR?$AAe?$AAm?$AAo?$AAv?$AAe@ ; ATL::szNoRemove
CONST	ENDS
;	COMDAT ??_C@_1BI@JFAIJMHL@?$AAF?$AAo?$AAr?$AAc?$AAe?$AAR?$AAe?$AAm?$AAo?$AAv?$AAe@
CONST	SEGMENT
??_C@_1BI@JFAIJMHL@?$AAF?$AAo?$AAr?$AAc?$AAe?$AAR?$AAe?$AAm?$AAo?$AAv?$AAe@ DB 'F'
	DB	00H, 'o', 00H, 'r', 00H, 'c', 00H, 'e', 00H, 'R', 00H, 'e', 00H
	DB	'm', 00H, 'o', 00H, 'v', 00H, 'e', 00H, 00H, 00H ; `string'
CONST	ENDS
;	COMDAT ?szForceRemove@ATL@@3QEB_WEB
CONST	SEGMENT
?szForceRemove@ATL@@3QEB_WEB DQ FLAT:??_C@_1BI@JFAIJMHL@?$AAF?$AAo?$AAr?$AAc?$AAe?$AAR?$AAe?$AAm?$AAo?$AAv?$AAe@ ; ATL::szForceRemove
CONST	ENDS
;	COMDAT ??_C@_17LLMMEOJD@?$AAV?$AAa?$AAl@
CONST	SEGMENT
??_C@_17LLMMEOJD@?$AAV?$AAa?$AAl@ DB 'V', 00H, 'a', 00H, 'l', 00H, 00H, 00H ; `string'
CONST	ENDS
;	COMDAT ?szValToken@ATL@@3QEB_WEB
CONST	SEGMENT
?szValToken@ATL@@3QEB_WEB DQ FLAT:??_C@_17LLMMEOJD@?$AAV?$AAa?$AAl@ ; ATL::szValToken
CONST	ENDS
;	COMDAT ??_C@_13OPKGLAFF@?$AAB@
CONST	SEGMENT
??_C@_13OPKGLAFF@?$AAB@ DB 'B', 00H, 00H, 00H		; `string'
CONST	ENDS
;	COMDAT ?szBinaryVal@ATL@@3QEB_WEB
CONST	SEGMENT
?szBinaryVal@ATL@@3QEB_WEB DQ FLAT:??_C@_13OPKGLAFF@?$AAB@ ; ATL::szBinaryVal
CONST	ENDS
;	COMDAT ??_C@_13MKMNOPIJ@?$AAD@
CONST	SEGMENT
??_C@_13MKMNOPIJ@?$AAD@ DB 'D', 00H, 00H, 00H		; `string'
CONST	ENDS
;	COMDAT ?szDwordVal@ATL@@3QEB_WEB
CONST	SEGMENT
?szDwordVal@ATL@@3QEB_WEB DQ FLAT:??_C@_13MKMNOPIJ@?$AAD@ ; ATL::szDwordVal
CONST	ENDS
;	COMDAT ??_C@_13LHMFKAAD@?$AAM@
CONST	SEGMENT
??_C@_13LHMFKAAD@?$AAM@ DB 'M', 00H, 00H, 00H		; `string'
CONST	ENDS
;	COMDAT ??_C@_1CA@PBPHANCD@?$AAa?$AAt?$AAl?$AAT?$AAr?$AAa?$AAc?$AAe?$AAS?$AAt?$AAe?$AAn?$AAc?$AAi?$AAl@
CONST	SEGMENT
??_C@_1CA@PBPHANCD@?$AAa?$AAt?$AAl?$AAT?$AAr?$AAa?$AAc?$AAe?$AAS?$AAt?$AAe?$AAn?$AAc?$AAi?$AAl@ DB 'a'
	DB	00H, 't', 00H, 'l', 00H, 'T', 00H, 'r', 00H, 'a', 00H, 'c', 00H
	DB	'e', 00H, 'S', 00H, 't', 00H, 'e', 00H, 'n', 00H, 'c', 00H, 'i'
	DB	00H, 'l', 00H, 00H, 00H			; `string'
CONST	ENDS
;	COMDAT ?multiszStringVal@ATL@@3QEB_WEB
CONST	SEGMENT
?multiszStringVal@ATL@@3QEB_WEB DQ FLAT:??_C@_13LHMFKAAD@?$AAM@ ; ATL::multiszStringVal
CONST	ENDS
;	COMDAT ??_C@_13HADIAKP@?$AAS@
CONST	SEGMENT
??_C@_13HADIAKP@?$AAS@ DB 'S', 00H, 00H, 00H		; `string'
CONST	ENDS
;	COMDAT ?szStringVal@ATL@@3QEB_WEB
CONST	SEGMENT
?szStringVal@ATL@@3QEB_WEB DQ FLAT:??_C@_13HADIAKP@?$AAS@ ; ATL::szStringVal
CONST	ENDS
;	COMDAT ?chEquals@ATL@@3_WB
CONST	SEGMENT
?chEquals@ATL@@3_WB DW 03dH				; ATL::chEquals
CONST	ENDS
;	COMDAT ?chQuote@ATL@@3_WB
CONST	SEGMENT
?chQuote@ATL@@3_WB DW 027H				; ATL::chQuote
CONST	ENDS
;	COMDAT ?chLeftBracket@ATL@@3_WB
CONST	SEGMENT
?chLeftBracket@ATL@@3_WB DW 07bH			; ATL::chLeftBracket
CONST	ENDS
;	COMDAT ?chRightBracket@ATL@@3_WB
CONST	SEGMENT
?chRightBracket@ATL@@3_WB DW 07dH			; ATL::chRightBracket
CONST	ENDS
;	COMDAT ?chDirSep@ATL@@3_WB
CONST	SEGMENT
?chDirSep@ATL@@3_WB DW 05cH				; ATL::chDirSep
CONST	ENDS
;	COMDAT ??_C@_1BM@GIKLHLFD@?$AAa?$AAt?$AAl?$AAT?$AAr?$AAa?$AAc?$AAe?$AAC?$AAa?$AAc?$AAh?$AAe@
CONST	SEGMENT
??_C@_1BM@GIKLHLFD@?$AAa?$AAt?$AAl?$AAT?$AAr?$AAa?$AAc?$AAe?$AAC?$AAa?$AAc?$AAh?$AAe@ DB 'a'
	DB	00H, 't', 00H, 'l', 00H, 'T', 00H, 'r', 00H, 'a', 00H, 'c', 00H
	DB	'e', 00H, 'C', 00H, 'a', 00H, 'c', 00H, 'h', 00H, 'e', 00H, 00H
	DB	00H						; `string'
CONST	ENDS
;	COMDAT ??_C@_1M@EJNEECMJ@?$AAA?$AAp?$AAp?$AAI?$AAD@
CONST	SEGMENT
??_C@_1M@EJNEECMJ@?$AAA?$AAp?$AAp?$AAI?$AAD@ DB 'A', 00H, 'p', 00H, 'p', 00H
	DB	'I', 00H, 'D', 00H, 00H, 00H			; `string'
CONST	ENDS
;	COMDAT _GUID_b196b288_bab4_101a_b69c_00aa00341d07
CONST	SEGMENT
_GUID_b196b288_bab4_101a_b69c_00aa00341d07 DD 0b196b288H
	DW	0bab4H
	DW	0101aH
	DB	0b6H
	DB	09cH
	DB	00H
	DB	0aaH
	DB	00H
	DB	034H
	DB	01dH
	DB	07H
CONST	ENDS
;	COMDAT _GUID_0000010e_0000_0000_c000_000000000046
CONST	SEGMENT
_GUID_0000010e_0000_0000_c000_000000000046 DD 010eH
	DW	00H
	DW	00H
	DB	0c0H
	DB	00H
	DB	00H
	DB	00H
	DB	00H
	DB	00H
	DB	00H
	DB	046H
CONST	ENDS
;	COMDAT ??_C@_1BK@NCJHOFCL@?$AAa?$AAt?$AAl?$AAT?$AAr?$AAa?$AAc?$AAe?$AAT?$AAi?$AAm?$AAe@
CONST	SEGMENT
??_C@_1BK@NCJHOFCL@?$AAa?$AAt?$AAl?$AAT?$AAr?$AAa?$AAc?$AAe?$AAT?$AAi?$AAm?$AAe@ DB 'a'
	DB	00H, 't', 00H, 'l', 00H, 'T', 00H, 'r', 00H, 'a', 00H, 'c', 00H
	DB	'e', 00H, 'T', 00H, 'i', 00H, 'm', 00H, 'e', 00H, 00H, 00H ; `string'
CONST	ENDS
;	COMDAT ??_C@_1M@KANJNLFF@?$AAC?$AAL?$AAS?$AAI?$AAD@
CONST	SEGMENT
??_C@_1M@KANJNLFF@?$AAC?$AAL?$AAS?$AAI?$AAD@ DB 'C', 00H, 'L', 00H, 'S', 00H
	DB	'I', 00H, 'D', 00H, 00H, 00H			; `string'
CONST	ENDS
;	COMDAT ??_C@_1CE@IMMADNAP@?$AAa?$AAt?$AAl?$AAT?$AAr?$AAa?$AAc?$AAe?$AAE?$AAx?$AAc?$AAe?$AAp?$AAt?$AAi@
CONST	SEGMENT
??_C@_1CE@IMMADNAP@?$AAa?$AAt?$AAl?$AAT?$AAr?$AAa?$AAc?$AAe?$AAE?$AAx?$AAc?$AAe?$AAp?$AAt?$AAi@ DB 'a'
	DB	00H, 't', 00H, 'l', 00H, 'T', 00H, 'r', 00H, 'a', 00H, 'c', 00H
	DB	'e', 00H, 'E', 00H, 'x', 00H, 'c', 00H, 'e', 00H, 'p', 00H, 't'
	DB	00H, 'i', 00H, 'o', 00H, 'n', 00H, 00H, 00H	; `string'
CONST	ENDS
;	COMDAT ??_C@_1CG@KFEEMCDH@?$AAa?$AAt?$AAl?$AAT?$AAr?$AAa?$AAc?$AAe?$AAA?$AAl?$AAl?$AAo?$AAc?$AAa?$AAt@
CONST	SEGMENT
??_C@_1CG@KFEEMCDH@?$AAa?$AAt?$AAl?$AAT?$AAr?$AAa?$AAc?$AAe?$AAA?$AAl?$AAl?$AAo?$AAc?$AAa?$AAt@ DB 'a'
	DB	00H, 't', 00H, 'l', 00H, 'T', 00H, 'r', 00H, 'a', 00H, 'c', 00H
	DB	'e', 00H, 'A', 00H, 'l', 00H, 'l', 00H, 'o', 00H, 'c', 00H, 'a'
	DB	00H, 't', 00H, 'i', 00H, 'o', 00H, 'n', 00H, 00H, 00H ; `string'
CONST	ENDS
;	COMDAT ??_C@_1CA@DMHPIODO@?$AAa?$AAt?$AAl?$AAT?$AAr?$AAa?$AAc?$AAe?$AAN?$AAo?$AAt?$AAI?$AAm?$AAp?$AAl@
CONST	SEGMENT
??_C@_1CA@DMHPIODO@?$AAa?$AAt?$AAl?$AAT?$AAr?$AAa?$AAc?$AAe?$AAN?$AAo?$AAt?$AAI?$AAm?$AAp?$AAl@ DB 'a'
	DB	00H, 't', 00H, 'l', 00H, 'T', 00H, 'r', 00H, 'a', 00H, 'c', 00H
	DB	'e', 00H, 'N', 00H, 'o', 00H, 't', 00H, 'I', 00H, 'm', 00H, 'p'
	DB	00H, 'l', 00H, 00H, 00H			; `string'
CONST	ENDS
;	COMDAT ??_C@_1BO@EFPHNHHN@?$AAa?$AAt?$AAl?$AAT?$AAr?$AAa?$AAc?$AAe?$AAS?$AAn?$AAa?$AAp?$AAi?$AAn@
CONST	SEGMENT
??_C@_1BO@EFPHNHHN@?$AAa?$AAt?$AAl?$AAT?$AAr?$AAa?$AAc?$AAe?$AAS?$AAn?$AAa?$AAp?$AAi?$AAn@ DB 'a'
	DB	00H, 't', 00H, 'l', 00H, 'T', 00H, 'r', 00H, 'a', 00H, 'c', 00H
	DB	'e', 00H, 'S', 00H, 'n', 00H, 'a', 00H, 'p', 00H, 'i', 00H, 'n'
	DB	00H, 00H, 00H				; `string'
CONST	ENDS
;	COMDAT ??_C@_1CG@MNMMIOOI@?$AAa?$AAt?$AAl?$AAT?$AAr?$AAa?$AAc?$AAe?$AAD?$AAB?$AAP?$AAr?$AAo?$AAv?$AAi@
CONST	SEGMENT
??_C@_1CG@MNMMIOOI@?$AAa?$AAt?$AAl?$AAT?$AAr?$AAa?$AAc?$AAe?$AAD?$AAB?$AAP?$AAr?$AAo?$AAv?$AAi@ DB 'a'
	DB	00H, 't', 00H, 'l', 00H, 'T', 00H, 'r', 00H, 'a', 00H, 'c', 00H
	DB	'e', 00H, 'D', 00H, 'B', 00H, 'P', 00H, 'r', 00H, 'o', 00H, 'v'
	DB	00H, 'i', 00H, 'd', 00H, 'e', 00H, 'r', 00H, 00H, 00H ; `string'
CONST	ENDS
;	COMDAT ??_C@_1CC@JNJJDOOH@?$AAa?$AAt?$AAl?$AAT?$AAr?$AAa?$AAc?$AAe?$AAD?$AAB?$AAC?$AAl?$AAi?$AAe?$AAn@
CONST	SEGMENT
??_C@_1CC@JNJJDOOH@?$AAa?$AAt?$AAl?$AAT?$AAr?$AAa?$AAc?$AAe?$AAD?$AAB?$AAC?$AAl?$AAi?$AAe?$AAn@ DB 'a'
	DB	00H, 't', 00H, 'l', 00H, 'T', 00H, 'r', 00H, 'a', 00H, 'c', 00H
	DB	'e', 00H, 'D', 00H, 'B', 00H, 'C', 00H, 'l', 00H, 'i', 00H, 'e'
	DB	00H, 'n', 00H, 't', 00H, 00H, 00H		; `string'
CONST	ENDS
;	COMDAT ??_C@_1CA@OMOMONMN@?$AAa?$AAt?$AAl?$AAT?$AAr?$AAa?$AAc?$AAe?$AAH?$AAo?$AAs?$AAt?$AAi?$AAn?$AAg@
CONST	SEGMENT
??_C@_1CA@OMOMONMN@?$AAa?$AAt?$AAl?$AAT?$AAr?$AAa?$AAc?$AAe?$AAH?$AAo?$AAs?$AAt?$AAi?$AAn?$AAg@ DB 'a'
	DB	00H, 't', 00H, 'l', 00H, 'T', 00H, 'r', 00H, 'a', 00H, 'c', 00H
	DB	'e', 00H, 'H', 00H, 'o', 00H, 's', 00H, 't', 00H, 'i', 00H, 'n'
	DB	00H, 'g', 00H, 00H, 00H			; `string'
CONST	ENDS
;	COMDAT ??_C@_1CC@IMNJGBED@?$AAa?$AAt?$AAl?$AAT?$AAr?$AAa?$AAc?$AAe?$AAC?$AAo?$AAn?$AAt?$AAr?$AAo?$AAl@
CONST	SEGMENT
??_C@_1CC@IMNJGBED@?$AAa?$AAt?$AAl?$AAT?$AAr?$AAa?$AAc?$AAe?$AAC?$AAo?$AAn?$AAt?$AAr?$AAo?$AAl@ DB 'a'
	DB	00H, 't', 00H, 'l', 00H, 'T', 00H, 'r', 00H, 'a', 00H, 'c', 00H
	DB	'e', 00H, 'C', 00H, 'o', 00H, 'n', 00H, 't', 00H, 'r', 00H, 'o'
	DB	00H, 'l', 00H, 's', 00H, 00H, 00H		; `string'
CONST	ENDS
;	COMDAT ??_C@_1CE@NAJDPMNB@?$AAa?$AAt?$AAl?$AAT?$AAr?$AAa?$AAc?$AAe?$AAW?$AAi?$AAn?$AAd?$AAo?$AAw?$AAi@
CONST	SEGMENT
??_C@_1CE@NAJDPMNB@?$AAa?$AAt?$AAl?$AAT?$AAr?$AAa?$AAc?$AAe?$AAW?$AAi?$AAn?$AAd?$AAo?$AAw?$AAi@ DB 'a'
	DB	00H, 't', 00H, 'l', 00H, 'T', 00H, 'r', 00H, 'a', 00H, 'c', 00H
	DB	'e', 00H, 'W', 00H, 'i', 00H, 'n', 00H, 'd', 00H, 'o', 00H, 'w'
	DB	00H, 'i', 00H, 'n', 00H, 'g', 00H, 00H, 00H	; `string'
CONST	ENDS
;	COMDAT ??_C@_1CC@BNHGJFNK@?$AAa?$AAt?$AAl?$AAT?$AAr?$AAa?$AAc?$AAe?$AAR?$AAe?$AAf?$AAc?$AAo?$AAu?$AAn@
CONST	SEGMENT
??_C@_1CC@BNHGJFNK@?$AAa?$AAt?$AAl?$AAT?$AAr?$AAa?$AAc?$AAe?$AAR?$AAe?$AAf?$AAc?$AAo?$AAu?$AAn@ DB 'a'
	DB	00H, 't', 00H, 'l', 00H, 'T', 00H, 'r', 00H, 'a', 00H, 'c', 00H
	DB	'e', 00H, 'R', 00H, 'e', 00H, 'f', 00H, 'c', 00H, 'o', 00H, 'u'
	DB	00H, 'n', 00H, 't', 00H, 00H, 00H		; `string'
CONST	ENDS
;	COMDAT ??_C@_1CE@NIAEAIDK@?$AAa?$AAt?$AAl?$AAT?$AAr?$AAa?$AAc?$AAe?$AAR?$AAe?$AAg?$AAi?$AAs?$AAt?$AAr@
CONST	SEGMENT
??_C@_1CE@NIAEAIDK@?$AAa?$AAt?$AAl?$AAT?$AAr?$AAa?$AAc?$AAe?$AAR?$AAe?$AAg?$AAi?$AAs?$AAt?$AAr@ DB 'a'
	DB	00H, 't', 00H, 'l', 00H, 'T', 00H, 'r', 00H, 'a', 00H, 'c', 00H
	DB	'e', 00H, 'R', 00H, 'e', 00H, 'g', 00H, 'i', 00H, 's', 00H, 't'
	DB	00H, 'r', 00H, 'a', 00H, 'r', 00H, 00H, 00H	; `string'
CONST	ENDS
;	COMDAT ??_C@_1BG@FPLJJEMF@?$AAa?$AAt?$AAl?$AAT?$AAr?$AAa?$AAc?$AAe?$AAQ?$AAI@
CONST	SEGMENT
??_C@_1BG@FPLJJEMF@?$AAa?$AAt?$AAl?$AAT?$AAr?$AAa?$AAc?$AAe?$AAQ?$AAI@ DB 'a'
	DB	00H, 't', 00H, 'l', 00H, 'T', 00H, 'r', 00H, 'a', 00H, 'c', 00H
	DB	'e', 00H, 'Q', 00H, 'I', 00H, 00H, 00H	; `string'
CONST	ENDS
;	COMDAT ??_C@_1BI@MAFGHOEE@?$AAa?$AAt?$AAl?$AAT?$AAr?$AAa?$AAc?$AAe?$AAC?$AAO?$AAM@
CONST	SEGMENT
??_C@_1BI@MAFGHOEE@?$AAa?$AAt?$AAl?$AAT?$AAr?$AAa?$AAc?$AAe?$AAC?$AAO?$AAM@ DB 'a'
	DB	00H, 't', 00H, 'l', 00H, 'T', 00H, 'r', 00H, 'a', 00H, 'c', 00H
	DB	'e', 00H, 'C', 00H, 'O', 00H, 'M', 00H, 00H, 00H ; `string'
CONST	ENDS
;	COMDAT ??_7?$CComObject@V?$CComEnum@UIEnumConnectionPoints@@$1?_GUID_b196b285_bab4_101a_b69c_00aa00341d07@@3U__s_GUID@@BPEAUIConnectionPoint@@V?$_CopyInterface@UIConnectionPoint@@@ATL@@VCComSingleThreadModel@6@@ATL@@@ATL@@6B@
CONST	SEGMENT
??_7?$CComObject@V?$CComEnum@UIEnumConnectionPoints@@$1?_GUID_b196b285_bab4_101a_b69c_00aa00341d07@@3U__s_GUID@@BPEAUIConnectionPoint@@V?$_CopyInterface@UIConnectionPoint@@@ATL@@VCComSingleThreadModel@6@@ATL@@@ATL@@6B@ DQ FLAT:?QueryInterface@?$CComObject@V?$CComEnum@UIEnumConnectionPoints@@$1?_GUID_b196b285_bab4_101a_b69c_00aa00341d07@@3U__s_GUID@@BPEAUIConnectionPoint@@V?$_CopyInterface@UIConnectionPoint@@@ATL@@VCComSingleThreadModel@6@@ATL@@@ATL@@UEAAJAEBU_GUID@@PEAPEAX@Z ; ATL::CComObject<ATL::CComEnum<IEnumConnectionPoints,&_GUID_b196b285_bab4_101a_b69c_00aa00341d07,IConnectionPoint *,ATL::_CopyInterface<IConnectionPoint>,ATL::CComSingleThreadModel> >::`vftable'
	DQ	FLAT:?AddRef@?$CComObject@V?$CComEnum@UIEnumConnectionPoints@@$1?_GUID_b196b285_bab4_101a_b69c_00aa00341d07@@3U__s_GUID@@BPEAUIConnectionPoint@@V?$_CopyInterface@UIConnectionPoint@@@ATL@@VCComSingleThreadModel@6@@ATL@@@ATL@@UEAAKXZ
	DQ	FLAT:?Release@?$CComObject@V?$CComEnum@UIEnumConnectionPoints@@$1?_GUID_b196b285_bab4_101a_b69c_00aa00341d07@@3U__s_GUID@@BPEAUIConnectionPoint@@V?$_CopyInterface@UIConnectionPoint@@@ATL@@VCComSingleThreadModel@6@@ATL@@@ATL@@UEAAKXZ
	DQ	FLAT:?Next@?$CComEnumImpl@UIEnumConnectionPoints@@$1?_GUID_b196b285_bab4_101a_b69c_00aa00341d07@@3U__s_GUID@@BPEAUIConnectionPoint@@V?$_CopyInterface@UIConnectionPoint@@@ATL@@@ATL@@UEAAJKPEAPEAUIConnectionPoint@@PEAK@Z
	DQ	FLAT:?Skip@?$CComEnumImpl@UIEnumConnectionPoints@@$1?_GUID_b196b285_bab4_101a_b69c_00aa00341d07@@3U__s_GUID@@BPEAUIConnectionPoint@@V?$_CopyInterface@UIConnectionPoint@@@ATL@@@ATL@@UEAAJK@Z
	DQ	FLAT:?Reset@?$CComEnumImpl@UIEnumConnectionPoints@@$1?_GUID_b196b285_bab4_101a_b69c_00aa00341d07@@3U__s_GUID@@BPEAUIConnectionPoint@@V?$_CopyInterface@UIConnectionPoint@@@ATL@@@ATL@@UEAAJXZ
	DQ	FLAT:?Clone@?$CComEnumImpl@UIEnumConnectionPoints@@$1?_GUID_b196b285_bab4_101a_b69c_00aa00341d07@@3U__s_GUID@@BPEAUIConnectionPoint@@V?$_CopyInterface@UIConnectionPoint@@@ATL@@@ATL@@UEAAJPEAPEAUIEnumConnectionPoints@@@Z
	DQ	FLAT:??_E?$CComObject@V?$CComEnum@UIEnumConnectionPoints@@$1?_GUID_b196b285_bab4_101a_b69c_00aa00341d07@@3U__s_GUID@@BPEAUIConnectionPoint@@V?$_CopyInterface@UIConnectionPoint@@@ATL@@VCComSingleThreadModel@6@@ATL@@@ATL@@UEAAPEAXI@Z
CONST	ENDS
;	COMDAT ??_C@_1CA@ONGMEOAB@?$AAa?$AAt?$AAl?$AAT?$AAr?$AAa?$AAc?$AAe?$AAG?$AAe?$AAn?$AAe?$AAr?$AAa?$AAl@
CONST	SEGMENT
??_C@_1CA@ONGMEOAB@?$AAa?$AAt?$AAl?$AAT?$AAr?$AAa?$AAc?$AAe?$AAG?$AAe?$AAn?$AAe?$AAr?$AAa?$AAl@ DB 'a'
	DB	00H, 't', 00H, 'l', 00H, 'T', 00H, 'r', 00H, 'a', 00H, 'c', 00H
	DB	'e', 00H, 'G', 00H, 'e', 00H, 'n', 00H, 'e', 00H, 'r', 00H, 'a'
	DB	00H, 'l', 00H, 00H, 00H			; `string'
CONST	ENDS
;	COMDAT _GUID_00020400_0000_0000_c000_000000000046
CONST	SEGMENT
_GUID_00020400_0000_0000_c000_000000000046 DD 020400H
	DW	00H
	DW	00H
	DB	0c0H
	DB	00H
	DB	00H
	DB	00H
	DB	00H
	DB	00H
	DB	00H
	DB	046H
CONST	ENDS
;	COMDAT _GUID_00000000_0000_0000_c000_000000000046
CONST	SEGMENT
_GUID_00000000_0000_0000_c000_000000000046 DD 00H
	DW	00H
	DW	00H
	DB	0c0H
	DB	00H
	DB	00H
	DB	00H
	DB	00H
	DB	00H
	DB	00H
	DB	046H
CONST	ENDS
;	COMDAT ??_C@_1BC@ENICKDH@?$AAC?$AAo?$AAn?$AAt?$AAe?$AAn?$AAt?$AAs@
CONST	SEGMENT
??_C@_1BC@ENICKDH@?$AAC?$AAo?$AAn?$AAt?$AAe?$AAn?$AAt?$AAs@ DB 'C', 00H, 'o'
	DB	00H, 'n', 00H, 't', 00H, 'e', 00H, 'n', 00H, 't', 00H, 's', 00H
	DB	00H, 00H					; `string'
CONST	ENDS
;	COMDAT ?vszContents@?6??Save@?$IPersistStorageImpl@VCOPOSSoundPlayer@@@ATL@@UEAAJPEAUIStorage@@H@Z@4PEB_WEB
_DATA	SEGMENT
?vszContents@?6??Save@?$IPersistStorageImpl@VCOPOSSoundPlayer@@@ATL@@UEAAJPEAUIStorage@@H@Z@4PEB_WEB DQ FLAT:??_C@_1BC@ENICKDH@?$AAC?$AAo?$AAn?$AAt?$AAe?$AAn?$AAt?$AAs@ ; `ATL::IPersistStorageImpl<COPOSSoundPlayer>::Save'::`7'::vszContents
_DATA	ENDS
;	COMDAT _GUID_00000117_0000_0000_c000_000000000046
CONST	SEGMENT
_GUID_00000117_0000_0000_c000_000000000046 DD 0117H
	DW	00H
	DW	00H
	DB	0c0H
	DB	00H
	DB	00H
	DB	00H
	DB	00H
	DB	00H
	DB	00H
	DB	046H
CONST	ENDS
;	COMDAT ??_7CComModule@ATL@@6B@
CONST	SEGMENT
??_7CComModule@ATL@@6B@ DQ FLAT:??_ECComModule@ATL@@UEAAPEAXI@Z ; ATL::CComModule::`vftable'
	DQ	FLAT:?Lock@CAtlModule@ATL@@UEAAJXZ
	DQ	FLAT:?Unlock@CAtlModule@ATL@@UEAAJXZ
	DQ	FLAT:?GetLockCount@CAtlModule@ATL@@UEAAJXZ
	DQ	FLAT:?GetGITPtr@CAtlModule@ATL@@UEAAJPEAPEAUIGlobalInterfaceTable@@@Z
	DQ	FLAT:?AddCommonRGSReplacements@?$CAtlModuleT@VCComModule@ATL@@@ATL@@UEAAJPEAUIRegistrarBase@@@Z
	DQ	FLAT:?UpdateRegistryFromResourceD@CComModule@ATL@@UEAAJIHPEAU_ATL_REGMAP_ENTRY@2@@Z
	DQ	FLAT:?UpdateRegistryFromResourceD@CComModule@ATL@@UEAAJPEB_WHPEAU_ATL_REGMAP_ENTRY@2@@Z
	DQ	FLAT:?UpdateRegistryFromResource@CComModule@ATL@@UEAAJIHPEAU_ATL_REGMAP_ENTRY@2@@Z
	DQ	FLAT:?UpdateRegistryFromResource@CComModule@ATL@@UEAAJPEB_WHPEAU_ATL_REGMAP_ENTRY@2@@Z
CONST	ENDS
;	COMDAT _GUID_b196b286_bab4_101a_b69c_00aa00341d07
CONST	SEGMENT
_GUID_b196b286_bab4_101a_b69c_00aa00341d07 DD 0b196b286H
	DW	0bab4H
	DW	0101aH
	DB	0b6H
	DB	09cH
	DB	00H
	DB	0aaH
	DB	00H
	DB	034H
	DB	01dH
	DB	07H
CONST	ENDS
;	COMDAT ??_C@_1BM@CBGEBBBJ@?$AAD?$AAi?$AAr?$AAe?$AAc?$AAt?$AAI?$AAO?$AAE?$AAv?$AAe?$AAn?$AAt@
CONST	SEGMENT
??_C@_1BM@CBGEBBBJ@?$AAD?$AAi?$AAr?$AAe?$AAc?$AAt?$AAI?$AAO?$AAE?$AAv?$AAe?$AAn?$AAt@ DB 'D'
	DB	00H, 'i', 00H, 'r', 00H, 'e', 00H, 'c', 00H, 't', 00H, 'I', 00H
	DB	'O', 00H, 'E', 00H, 'v', 00H, 'e', 00H, 'n', 00H, 't', 00H, 00H
	DB	00H						; `string'
CONST	ENDS
;	COMDAT ??_C@_1BG@LODEBHDD@?$AAE?$AAr?$AAr?$AAo?$AAr?$AAE?$AAv?$AAe?$AAn?$AAt@
CONST	SEGMENT
??_C@_1BG@LODEBHDD@?$AAE?$AAr?$AAr?$AAo?$AAr?$AAE?$AAv?$AAe?$AAn?$AAt@ DB 'E'
	DB	00H, 'r', 00H, 'r', 00H, 'o', 00H, 'r', 00H, 'E', 00H, 'v', 00H
	DB	'e', 00H, 'n', 00H, 't', 00H, 00H, 00H	; `string'
CONST	ENDS
;	COMDAT ??_C@_1CI@HLBJDONE@?$AAO?$AAu?$AAt?$AAp?$AAu?$AAt?$AAC?$AAo?$AAm?$AAp?$AAl?$AAe?$AAt?$AAe?$AAE@
CONST	SEGMENT
??_C@_1CI@HLBJDONE@?$AAO?$AAu?$AAt?$AAp?$AAu?$AAt?$AAC?$AAo?$AAm?$AAp?$AAl?$AAe?$AAt?$AAe?$AAE@ DB 'O'
	DB	00H, 'u', 00H, 't', 00H, 'p', 00H, 'u', 00H, 't', 00H, 'C', 00H
	DB	'o', 00H, 'm', 00H, 'p', 00H, 'l', 00H, 'e', 00H, 't', 00H, 'e'
	DB	00H, 'E', 00H, 'v', 00H, 'e', 00H, 'n', 00H, 't', 00H, 00H, 00H ; `string'
CONST	ENDS
;	COMDAT ??_C@_1CE@PGFMOFKI@?$AAS?$AAt?$AAa?$AAt?$AAu?$AAs?$AAU?$AAp?$AAd?$AAa?$AAt?$AAe?$AAE?$AAv?$AAe@
CONST	SEGMENT
??_C@_1CE@PGFMOFKI@?$AAS?$AAt?$AAa?$AAt?$AAu?$AAs?$AAU?$AAp?$AAd?$AAa?$AAt?$AAe?$AAE?$AAv?$AAe@ DB 'S'
	DB	00H, 't', 00H, 'a', 00H, 't', 00H, 'u', 00H, 's', 00H, 'U', 00H
	DB	'p', 00H, 'd', 00H, 'a', 00H, 't', 00H, 'e', 00H, 'E', 00H, 'v'
	DB	00H, 'e', 00H, 'n', 00H, 't', 00H, 00H, 00H	; `string'
CONST	ENDS
;	COMDAT _GUID_b196b289_bab4_101a_b69c_00aa00341d07
CONST	SEGMENT
_GUID_b196b289_bab4_101a_b69c_00aa00341d07 DD 0b196b289H
	DW	0bab4H
	DW	0101aH
	DB	0b6H
	DB	09cH
	DB	00H
	DB	0aaH
	DB	00H
	DB	034H
	DB	01dH
	DB	07H
CONST	ENDS
;	COMDAT _GUID_00000119_0000_0000_c000_000000000046
CONST	SEGMENT
_GUID_00000119_0000_0000_c000_000000000046 DD 0119H
	DW	00H
	DW	00H
	DB	0c0H
	DB	00H
	DB	00H
	DB	00H
	DB	00H
	DB	00H
	DB	00H
	DB	046H
CONST	ENDS
;	COMDAT ??_7?$CComObjectCached@VCComClassFactory@ATL@@@ATL@@6B@
CONST	SEGMENT
??_7?$CComObjectCached@VCComClassFactory@ATL@@@ATL@@6B@ DQ FLAT:?QueryInterface@?$CComObjectCached@VCComClassFactory@ATL@@@ATL@@UEAAJAEBU_GUID@@PEAPEAX@Z ; ATL::CComObjectCached<ATL::CComClassFactory>::`vftable'
	DQ	FLAT:?AddRef@?$CComObjectCached@VCComClassFactory@ATL@@@ATL@@UEAAKXZ
	DQ	FLAT:?Release@?$CComObjectCached@VCComClassFactory@ATL@@@ATL@@UEAAKXZ
	DQ	FLAT:?CreateInstance@CComClassFactory@ATL@@UEAAJPEAUIUnknown@@AEBU_GUID@@PEAPEAX@Z
	DQ	FLAT:?LockServer@CComClassFactory@ATL@@UEAAJH@Z
	DQ	FLAT:??_E?$CComObjectCached@VCComClassFactory@ATL@@@ATL@@UEAAPEAXI@Z
CONST	ENDS
;	COMDAT _GUID_9c2cad80_3424_11cf_b670_00aa004cd6d8
CONST	SEGMENT
_GUID_9c2cad80_3424_11cf_b670_00aa004cd6d8 DD 09c2cad80H
	DW	03424H
	DW	011cfH
	DB	0b6H
	DB	070H
	DB	00H
	DB	0aaH
	DB	00H
	DB	04cH
	DB	0d6H
	DB	0d8H
CONST	ENDS
;	COMDAT _GUID_922eada0_3424_11cf_b670_00aa004cd6d8
CONST	SEGMENT
_GUID_922eada0_3424_11cf_b670_00aa004cd6d8 DD 0922eada0H
	DW	03424H
	DW	011cfH
	DB	0b6H
	DB	070H
	DB	00H
	DB	0aaH
	DB	00H
	DB	04cH
	DB	0d6H
	DB	0d8H
CONST	ENDS
;	COMDAT ??_C@_17IOIMFDBO@?$AA_?$AAc?$AAy@
CONST	SEGMENT
??_C@_17IOIMFDBO@?$AA_?$AAc?$AAy@ DB '_', 00H, 'c', 00H, 'y', 00H, 00H, 00H ; `string'
CONST	ENDS
;	COMDAT ??_C@_17DGDADEHL@?$AA_?$AAc?$AAx@
CONST	SEGMENT
??_C@_17DGDADEHL@?$AA_?$AAc?$AAx@ DB '_', 00H, 'c', 00H, 'x', 00H, 00H, 00H ; `string'
CONST	ENDS
;	COMDAT ?pPropMap@?1??GetPropertyMap@COPOSSoundPlayer@@SAPEBUATL_PROPMAP_ENTRY@ATL@@XZ@4QBU34@B
CONST	SEGMENT
?pPropMap@?1??GetPropertyMap@COPOSSoundPlayer@@SAPEBUATL_PROPMAP_ENTRY@ATL@@XZ@4QBU34@B DQ FLAT:??_C@_17DGDADEHL@?$AA_?$AAc?$AAx@ ; `COPOSSoundPlayer::GetPropertyMap'::`2'::pPropMap
	DQ	FLAT:GUID_NULL
	DQ	0000000000000000H
	DQ	0000000000000000H
	DD	00H
	DD	00H
	DD	048H
	DD	04H
	DW	013H
	ORG $+6
	DQ	FLAT:??_C@_17IOIMFDBO@?$AA_?$AAc?$AAy@
	DQ	FLAT:GUID_NULL
	DQ	0000000000000000H
	DQ	0000000000000000H
	DD	00H
	DD	00H
	DD	04cH
	DD	04H
	DW	013H
	ORG $+6
	DQ	0000000000000000H
	DQ	0000000000000000H
	DQ	FLAT:GUID_NULL
	DQ	0000000000000000H
	DD	00H
	DD	00H
	DD	00H
	DD	00H
	DW	00H
	ORG $+6
CONST	ENDS
;	COMDAT _GUID_cb5bdc81_93c1_11cf_8f20_00805f2cd064
CONST	SEGMENT
_GUID_cb5bdc81_93c1_11cf_8f20_00805f2cd064 DD 0cb5bdc81H
	DW	093c1H
	DW	011cfH
	DB	08fH
	DB	020H
	DB	00H
	DB	080H
	DB	05fH
	DB	02cH
	DB	0d0H
	DB	064H
CONST	ENDS
;	COMDAT _GUID_b196b283_bab4_101a_b69c_00aa00341d07
CONST	SEGMENT
_GUID_b196b283_bab4_101a_b69c_00aa00341d07 DD 0b196b283H
	DW	0bab4H
	DW	0101aH
	DB	0b6H
	DB	09cH
	DB	00H
	DB	0aaH
	DB	00H
	DB	034H
	DB	01dH
	DB	07H
CONST	ENDS
;	COMDAT _GUID_00000146_0000_0000_c000_000000000046
CONST	SEGMENT
_GUID_00000146_0000_0000_c000_000000000046 DD 0146H
	DW	00H
	DW	00H
	DB	0c0H
	DB	00H
	DB	00H
	DB	00H
	DB	00H
	DB	00H
	DB	00H
	DB	046H
CONST	ENDS
;	COMDAT _GUID_0000010a_0000_0000_c000_000000000046
CONST	SEGMENT
_GUID_0000010a_0000_0000_c000_000000000046 DD 010aH
	DW	00H
	DW	00H
	DB	0c0H
	DB	00H
	DB	00H
	DB	00H
	DB	00H
	DB	00H
	DB	00H
	DB	046H
CONST	ENDS
;	COMDAT _GUID_cf51ed10_62fe_11cf_bf86_00a0c9034836
CONST	SEGMENT
_GUID_cf51ed10_62fe_11cf_bf86_00a0c9034836 DD 0cf51ed10H
	DW	062feH
	DW	011cfH
	DB	0bfH
	DB	086H
	DB	00H
	DB	0a0H
	DB	0c9H
	DB	03H
	DB	048H
	DB	036H
CONST	ENDS
;	COMDAT ?_entries@?1??_GetEntries@COPOSSoundPlayer@@SAPEBU_ATL_INTMAP_ENTRY@ATL@@XZ@4QBU34@B
CONST	SEGMENT
?_entries@?1??_GetEntries@COPOSSoundPlayer@@SAPEBU_ATL_INTMAP_ENTRY@ATL@@XZ@4QBU34@B DQ FLAT:IID_IDispatch ; `COPOSSoundPlayer::_GetEntries'::`2'::_entries
	DQ	0000000000000000H
	DQ	0000000000000001H
	DQ	FLAT:IID_IOPOSSoundPlayer
	DQ	0000000000000000H
	DQ	0000000000000001H
	DQ	FLAT:IID_IOPOSSoundPlayer_1_16
	DQ	0000000000000000H
	DQ	0000000000000001H
	DQ	FLAT:_GUID_3af24292_0c96_11ce_a0cf_00aa00600ab8
	DQ	00000000000000d8H
	DQ	0000000000000001H
	DQ	FLAT:_GUID_00000127_0000_0000_c000_000000000046
	DQ	00000000000000d8H
	DQ	0000000000000001H
	DQ	FLAT:_GUID_0000010d_0000_0000_c000_000000000046
	DQ	00000000000000d8H
	DQ	0000000000000001H
	DQ	FLAT:_GUID_1c2056cc_5ef4_101b_8bc8_00aa003e3b29
	DQ	00000000000000e0H
	DQ	0000000000000001H
	DQ	FLAT:_GUID_00000113_0000_0000_c000_000000000046
	DQ	00000000000000e0H
	DQ	0000000000000001H
	DQ	FLAT:_GUID_00000114_0000_0000_c000_000000000046
	DQ	00000000000000e0H
	DQ	0000000000000001H
	DQ	FLAT:_GUID_00000117_0000_0000_c000_000000000046
	DQ	00000000000000d0H
	DQ	0000000000000001H
	DQ	FLAT:_GUID_b196b288_bab4_101a_b69c_00aa00341d07
	DQ	00000000000000c0H
	DQ	0000000000000001H
	DQ	FLAT:_GUID_00000112_0000_0000_c000_000000000046
	DQ	00000000000000c8H
	DQ	0000000000000001H
	DQ	FLAT:_GUID_7fd52380_4e07_101b_ae2d_08002b2ec713
	DQ	00000000000000b8H
	DQ	0000000000000001H
	DQ	FLAT:_GUID_0000010c_0000_0000_c000_000000000046
	DQ	00000000000000b8H
	DQ	0000000000000001H
	DQ	FLAT:_GUID_b196b284_bab4_101a_b69c_00aa00341d07
	DQ	00000000000000e8H
	DQ	0000000000000001H
	DQ	FLAT:_GUID_b196b28b_bab4_101a_b69c_00aa00341d07
	DQ	00000000000000f8H
	DQ	0000000000000001H
	DQ	FLAT:_GUID_cf51ed10_62fe_11cf_bf86_00a0c9034836
	DQ	0000000000000100H
	DQ	0000000000000001H
	DQ	FLAT:_GUID_0000010a_0000_0000_c000_000000000046
	DQ	00000000000000f0H
	DQ	0000000000000001H
	DQ	FLAT:_GUID_0000010e_0000_0000_c000_000000000046
	DQ	0000000000000108H
	DQ	0000000000000001H
	DQ	FLAT:_GUID_b196b283_bab4_101a_b69c_00aa00341d07
	DQ	0000000000000110H
	DQ	0000000000000001H
	DQ	FLAT:_GUID_a6bc3ac0_dbaa_11ce_9de3_00aa004bb851
	DQ	0000000000000110H
	DQ	0000000000000001H
	DQ	FLAT:_GUID_cb5bdc81_93c1_11cf_8f20_00805f2cd064
	DQ	0000000000000118H
	DQ	0000000000000001H
	DQ	FLAT:_GUID_b196b284_bab4_101a_b69c_00aa00341d07
	DQ	00000000000000e8H
	DQ	0000000000000001H
	DQ	0000000000000000H
	DQ	0000000000000000H
	DQ	0000000000000000H
CONST	ENDS
;	COMDAT _GUID_0000010c_0000_0000_c000_000000000046
CONST	SEGMENT
_GUID_0000010c_0000_0000_c000_000000000046 DD 010cH
	DW	00H
	DW	00H
	DB	0c0H
	DB	00H
	DB	00H
	DB	00H
	DB	00H
	DB	00H
	DB	00H
	DB	046H
CONST	ENDS
;	COMDAT _GUID_a6bc3ac0_dbaa_11ce_9de3_00aa004bb851
CONST	SEGMENT
_GUID_a6bc3ac0_dbaa_11ce_9de3_00aa004bb851 DD 0a6bc3ac0H
	DW	0dbaaH
	DW	011ceH
	DB	09dH
	DB	0e3H
	DB	00H
	DB	0aaH
	DB	00H
	DB	04bH
	DB	0b8H
	DB	051H
CONST	ENDS
;	COMDAT ?_tih@?$IProvideClassInfo2Impl@$1?CLSID_OPOSSoundPlayer@@3U_GUID@@B$1?DIID__IOPOSSoundPlayerEvents@@3U2@B$1?LIBID_OposSoundPlayer_CCO@@3U2@B$00$0A@VCComTypeInfoHolder@ATL@@@ATL@@1VCComTypeInfoHolder@2@A
_DATA	SEGMENT
?_tih@?$IProvideClassInfo2Impl@$1?CLSID_OPOSSoundPlayer@@3U_GUID@@B$1?DIID__IOPOSSoundPlayerEvents@@3U2@B$1?LIBID_OposSoundPlayer_CCO@@3U2@B$00$0A@VCComTypeInfoHolder@ATL@@@ATL@@1VCComTypeInfoHolder@2@A DQ FLAT:CLSID_OPOSSoundPlayer ; ATL::IProvideClassInfo2Impl<&CLSID_OPOSSoundPlayer,&DIID__IOPOSSoundPlayerEvents,&LIBID_OposSoundPlayer_CCO,1,0,ATL::CComTypeInfoHolder>::_tih
	DQ	FLAT:LIBID_OposSoundPlayer_CCO
	DW	01H
	DW	00H
	ORG $+4
	DQ	0000000000000000H
	DD	00H
	ORG $+4
	DQ	0000000000000000H
	DD	00H
	ORG $+4
_DATA	ENDS
;	COMDAT _GUID_b196b285_bab4_101a_b69c_00aa00341d07
CONST	SEGMENT
_GUID_b196b285_bab4_101a_b69c_00aa00341d07 DD 0b196b285H
	DW	0bab4H
	DW	0101aH
	DB	0b6H
	DB	09cH
	DB	00H
	DB	0aaH
	DB	00H
	DB	034H
	DB	01dH
	DB	07H
CONST	ENDS
;	COMDAT __pobjMapEntryLast
ATL$__z	SEGMENT
__pobjMapEntryLast DQ 0000000000000000H
ATL$__z	ENDS
;	COMDAT __pobjMapEntryFirst
ATL$__a	SEGMENT
__pobjMapEntryFirst DQ 0000000000000000H
ATL$__a	ENDS
;	COMDAT _GUID_b196b287_bab4_101a_b69c_00aa00341d07
CONST	SEGMENT
_GUID_b196b287_bab4_101a_b69c_00aa00341d07 DD 0b196b287H
	DW	0bab4H
	DW	0101aH
	DB	0b6H
	DB	09cH
	DB	00H
	DB	0aaH
	DB	00H
	DB	034H
	DB	01dH
	DB	07H
CONST	ENDS
;	COMDAT LIBID_ATLLib
CONST	SEGMENT
LIBID_ATLLib DD	044ec0535H
	DW	0400fH
	DW	011d0H
	DB	09dH
	DB	0cdH
	DB	00H
	DB	0a0H
	DB	0c9H
	DB	03H
	DB	091H
	DB	0d3H
CONST	ENDS
;	COMDAT ??_C@_0BI@MNCFCPFK@RegCreateKeyTransactedW@
CONST	SEGMENT
??_C@_0BI@MNCFCPFK@RegCreateKeyTransactedW@ DB 'RegCreateKeyTransactedW', 00H ; `string'
CONST	ENDS
;	COMDAT ??_C@_1BK@BIGILECK@?$AAA?$AAd?$AAv?$AAa?$AAp?$AAi?$AA3?$AA2?$AA?4?$AAd?$AAl?$AAl@
CONST	SEGMENT
??_C@_1BK@BIGILECK@?$AAA?$AAd?$AAv?$AAa?$AAp?$AAi?$AA3?$AA2?$AA?4?$AAd?$AAl?$AAl@ DB 'A'
	DB	00H, 'd', 00H, 'v', 00H, 'a', 00H, 'p', 00H, 'i', 00H, '3', 00H
	DB	'2', 00H, '.', 00H, 'd', 00H, 'l', 00H, 'l', 00H, 00H, 00H ; `string'
CONST	ENDS
;	COMDAT ?_tih@?$IDispatchImpl@UIOPOSSoundPlayer@@$1?IID_IOPOSSoundPlayer@@3U_GUID@@B$1?LIBID_OposSoundPlayer_CCO@@3U3@B$00$0A@VCComTypeInfoHolder@ATL@@@ATL@@1VCComTypeInfoHolder@2@A
_DATA	SEGMENT
?_tih@?$IDispatchImpl@UIOPOSSoundPlayer@@$1?IID_IOPOSSoundPlayer@@3U_GUID@@B$1?LIBID_OposSoundPlayer_CCO@@3U3@B$00$0A@VCComTypeInfoHolder@ATL@@@ATL@@1VCComTypeInfoHolder@2@A DQ FLAT:IID_IOPOSSoundPlayer ; ATL::IDispatchImpl<IOPOSSoundPlayer,&IID_IOPOSSoundPlayer,&LIBID_OposSoundPlayer_CCO,1,0,ATL::CComTypeInfoHolder>::_tih
	DQ	FLAT:LIBID_OposSoundPlayer_CCO
	DW	01H
	DW	00H
	ORG $+4
	DQ	0000000000000000H
	DD	00H
	ORG $+4
	DQ	0000000000000000H
	DD	00H
	ORG $+4
_DATA	ENDS
;	COMDAT _GUID_00000114_0000_0000_c000_000000000046
CONST	SEGMENT
_GUID_00000114_0000_0000_c000_000000000046 DD 0114H
	DW	00H
	DW	00H
	DB	0c0H
	DB	00H
	DB	00H
	DB	00H
	DB	00H
	DB	00H
	DB	00H
	DB	046H
CONST	ENDS
;	COMDAT CLSID_OPOSSoundPlayer
CONST	SEGMENT
CLSID_OPOSSoundPlayer DD 0ccb90422H
	DW	0b81eH
	DW	011d2H
	DB	0abH
	DB	074H
	DB	00H
	DB	040H
	DB	05H
	DB	04cH
	DB	037H
	DB	019H
CONST	ENDS
;	COMDAT DIID__IOPOSSoundPlayerEvents
CONST	SEGMENT
DIID__IOPOSSoundPlayerEvents DD 0ccb90423H
	DW	0b81eH
	DW	011d2H
	DB	0abH
	DB	074H
	DB	00H
	DB	040H
	DB	05H
	DB	04cH
	DB	037H
	DB	019H
CONST	ENDS
;	COMDAT LIBID_OposSoundPlayer_CCO
CONST	SEGMENT
LIBID_OposSoundPlayer_CCO DD 0ccb90420H
	DW	0b81eH
	DW	011d2H
	DB	0abH
	DB	074H
	DB	00H
	DB	040H
	DB	05H
	DB	04cH
	DB	037H
	DB	019H
CONST	ENDS
;	COMDAT IID_IOPOSSoundPlayer
CONST	SEGMENT
IID_IOPOSSoundPlayer DD 0ccb91421H
	DW	0b81eH
	DW	011d2H
	DB	0abH
	DB	074H
	DB	00H
	DB	040H
	DB	05H
	DB	04cH
	DB	037H
	DB	019H
CONST	ENDS
;	COMDAT IID_IOPOSSoundPlayer_1_16
CONST	SEGMENT
IID_IOPOSSoundPlayer_1_16 DD 0ccb90421H
	DW	0b81eH
	DW	011d2H
	DB	0abH
	DB	074H
	DB	00H
	DB	040H
	DB	05H
	DB	04cH
	DB	037H
	DB	019H
CONST	ENDS
;	COMDAT ?s_Release@?7??GetIDsOfNames@CComTypeInfoHolder@ATL@@QEAAJAEBU_GUID@@PEAPEA_WIKPEAJ@Z@4PA_WA
_DATA	SEGMENT
?s_Release@?7??GetIDsOfNames@CComTypeInfoHolder@ATL@@QEAAJAEBU_GUID@@PEAPEA_WIKPEAJ@Z@4PA_WA DB 'R'
	DB	00H, 'e', 00H, 'l', 00H, 'e', 00H, 'a', 00H, 's', 00H, 'e', 00H
	DB	'D', 00H, 'e', 00H, 'v', 00H, 'i', 00H, 'c', 00H, 'e', 00H, 00H
	DB	00H						; `ATL::CComTypeInfoHolder::GetIDsOfNames'::`8'::s_Release
_DATA	ENDS
;	COMDAT ?s_Claim@?7??GetIDsOfNames@CComTypeInfoHolder@ATL@@QEAAJAEBU_GUID@@PEAPEA_WIKPEAJ@Z@4PA_WA
_DATA	SEGMENT
?s_Claim@?7??GetIDsOfNames@CComTypeInfoHolder@ATL@@QEAAJAEBU_GUID@@PEAPEA_WIKPEAJ@Z@4PA_WA DB 'C'
	DB	00H, 'l', 00H, 'a', 00H, 'i', 00H, 'm', 00H, 'D', 00H, 'e', 00H
	DB	'v', 00H, 'i', 00H, 'c', 00H, 'e', 00H, 00H, 00H ; `ATL::CComTypeInfoHolder::GetIDsOfNames'::`8'::s_Claim
_DATA	ENDS
PUBLIC	??_H@YAXPEAX_K1P6APEAX0@Z@Z			; `vector constructor iterator'
PUBLIC	??_I@YAXPEAX_K1P6AX0@Z@Z			; `vector destructor iterator'
PUBLIC	DllGetClassObject
PUBLIC	DllCanUnloadNow
PUBLIC	?AtlThrowImpl@ATL@@YAXJ@Z			; ATL::AtlThrowImpl
PUBLIC	__local_stdio_printf_options
PUBLIC	swprintf_s
PUBLIC	?_AtlVerifyStackAvailable@_ATL_SAFE_ALLOCA_IMPL@ATL@@YA_N_K@Z ; ATL::_ATL_SAFE_ALLOCA_IMPL::_AtlVerifyStackAvailable
PUBLIC	?ocscpy_s@@YA_NPEA_W_KPEB_W@Z			; ocscpy_s
PUBLIC	?_AtlRaiseException@ATL@@YAXKK@Z		; ATL::_AtlRaiseException
PUBLIC	?_AtlInitializeCriticalSectionEx@ATL@@YAHPEAU_RTL_CRITICAL_SECTION@@KK@Z ; ATL::_AtlInitializeCriticalSectionEx
PUBLIC	DllRegisterServer
PUBLIC	DllUnregisterServer
PUBLIC	?AtlHresultFromLastError@ATL@@YAJXZ		; ATL::AtlHresultFromLastError
PUBLIC	?AtlHresultFromWin32@ATL@@YAJK@Z		; ATL::AtlHresultFromWin32
PUBLIC	?AtlInternalOleLoadFromStream@ATL@@YAJPEAUIStream@@AEBU_GUID@@PEAPEAXTClassesAllowedInStream@1@K@Z ; ATL::AtlInternalOleLoadFromStream
PUBLIC	?ReadFromStream@CComBSTR@ATL@@QEAAJPEAUIStream@@@Z ; ATL::CComBSTR::ReadFromStream
PUBLIC	??1CComVariant@ATL@@QEAA@XZ			; ATL::CComVariant::~CComVariant
PUBLIC	?WriteToStream@CComVariant@ATL@@QEAAJPEAUIStream@@@Z ; ATL::CComVariant::WriteToStream
PUBLIC	?WriteToStream@CComVariant@ATL@@QEAAJPEAUIStream@@G@Z ; ATL::CComVariant::WriteToStream
PUBLIC	?ReadFromStream@CComVariant@ATL@@QEAAJPEAUIStream@@GTClassesAllowedInStream@2@K@Z ; ATL::CComVariant::ReadFromStream
PUBLIC	?GetSizeMax@CComVariant@ATL@@QEBAJPEAT_ULARGE_INTEGER@@@Z ; ATL::CComVariant::GetSizeMax
PUBLIC	?RegCreateKeyExW@CAtlTransactionManager@ATL@@QEAAJPEAUHKEY__@@PEB_WKPEA_WKKQEAU_SECURITY_ATTRIBUTES@@PEAPEAU3@PEAK@Z ; ATL::CAtlTransactionManager::RegCreateKeyExW
PUBLIC	?RegOpenKeyExW@CAtlTransactionManager@ATL@@QEAAJPEAUHKEY__@@PEB_WKKPEAPEAU3@@Z ; ATL::CAtlTransactionManager::RegOpenKeyExW
PUBLIC	?RegDeleteKeyW@CAtlTransactionManager@ATL@@QEAAJPEAUHKEY__@@PEB_W@Z ; ATL::CAtlTransactionManager::RegDeleteKeyW
PUBLIC	?Add@?$CSimpleArray@GV?$CSimpleArrayEqualHelper@G@ATL@@@ATL@@QEAAHAEBG@Z ; ATL::CSimpleArray<unsigned short,ATL::CSimpleArrayEqualHelper<unsigned short> >::Add
PUBLIC	?AtlInternalQueryInterface@ATL@@YAJPEAXPEBU_ATL_INTMAP_ENTRY@1@AEBU_GUID@@PEAPEAX@Z ; ATL::AtlInternalQueryInterface
PUBLIC	?AtlComModuleGetClassObject@ATL@@YAJPEAU_ATL_COM_MODULE70@1@AEBU_GUID@@1PEAPEAX@Z ; ATL::AtlComModuleGetClassObject
PUBLIC	?AtlRegisterClassCategoriesHelper@ATL@@YAJAEBU_GUID@@PEBU_ATL_CATMAP_ENTRY@1@H@Z ; ATL::AtlRegisterClassCategoriesHelper
PUBLIC	?AtlLoadTypeLib@ATL@@YAJPEAUHINSTANCE__@@PEB_WPEAPEA_WPEAPEAUITypeLib@@@Z ; ATL::AtlLoadTypeLib
PUBLIC	?AtlRegisterTypeLib@ATL@@YAJPEAUHINSTANCE__@@PEB_W@Z ; ATL::AtlRegisterTypeLib
PUBLIC	?AtlUnRegisterTypeLib@ATL@@YAJPEAUHINSTANCE__@@PEB_W@Z ; ATL::AtlUnRegisterTypeLib
PUBLIC	?AtlComModuleRegisterServer@ATL@@YAJPEAU_ATL_COM_MODULE70@1@HPEBU_GUID@@@Z ; ATL::AtlComModuleRegisterServer
PUBLIC	?AtlComModuleUnregisterServer@ATL@@YAJPEAU_ATL_COM_MODULE70@1@HPEBU_GUID@@@Z ; ATL::AtlComModuleUnregisterServer
PUBLIC	?AtlWinModuleTerm@ATL@@YAJPEAU_ATL_WIN_MODULE70@1@PEAUHINSTANCE__@@@Z ; ATL::AtlWinModuleTerm
PUBLIC	?AtlWinModuleExtractCreateWndData@ATL@@YAPEAXPEAU_ATL_WIN_MODULE70@1@@Z ; ATL::AtlWinModuleExtractCreateWndData
PUBLIC	?DeleteSubKey@CRegKey@ATL@@QEAAJPEB_W@Z		; ATL::CRegKey::DeleteSubKey
PUBLIC	?RecurseDeleteKey@CRegKey@ATL@@QEAAJPEB_W@Z	; ATL::CRegKey::RecurseDeleteKey
PUBLIC	??0CAtlComModule@ATL@@QEAA@XZ			; ATL::CAtlComModule::CAtlComModule
PUBLIC	?Term@CAtlComModule@ATL@@QEAAXXZ		; ATL::CAtlComModule::Term
PUBLIC	??0CAtlWinModule@ATL@@QEAA@XZ			; ATL::CAtlWinModule::CAtlWinModule
PUBLIC	??0CAtlModule@ATL@@QEAA@XZ			; ATL::CAtlModule::CAtlModule
PUBLIC	?Term@CAtlModule@ATL@@QEAAXXZ			; ATL::CAtlModule::Term
PUBLIC	??1CAtlModule@ATL@@UEAA@XZ			; ATL::CAtlModule::~CAtlModule
PUBLIC	?AddTermFunc@CAtlModule@ATL@@QEAAJP6AX_K@Z0@Z	; ATL::CAtlModule::AddTermFunc
PUBLIC	?UpdateRegistryFromResource@CAtlModule@ATL@@QEAAJPEB_WHPEAU_ATL_REGMAP_ENTRY@2@@Z ; ATL::CAtlModule::UpdateRegistryFromResource
PUBLIC	?UpdateRegistryFromResource@CAtlModule@ATL@@QEAAJIHPEAU_ATL_REGMAP_ENTRY@2@@Z ; ATL::CAtlModule::UpdateRegistryFromResource
PUBLIC	?Term@CComModule@ATL@@QEAAXXZ			; ATL::CComModule::Term
PUBLIC	?GetClassObject@CComModule@ATL@@QEAAJAEBU_GUID@@0PEAPEAX@Z ; ATL::CComModule::GetClassObject
PUBLIC	?RegisterServer@CComModule@ATL@@QEAAJHPEBU_GUID@@@Z ; ATL::CComModule::RegisterServer
PUBLIC	?UnregisterServer@CComModule@ATL@@QEAAJHPEBU_GUID@@@Z ; ATL::CComModule::UnregisterServer
PUBLIC	?Add@?$CSimpleMap@PEA_WPEA_WVCExpansionVectorEqualHelper@ATL@@@ATL@@QEAAHAEBQEA_W0@Z ; ATL::CSimpleMap<wchar_t *,wchar_t *,ATL::CExpansionVectorEqualHelper>::Add
PUBLIC	?Lookup@?$CSimpleMap@PEA_WPEA_WVCExpansionVectorEqualHelper@ATL@@@ATL@@QEBAPEA_WAEBQEA_W@Z ; ATL::CSimpleMap<wchar_t *,wchar_t *,ATL::CExpansionVectorEqualHelper>::Lookup
PUBLIC	?Add@CExpansionVector@ATL@@QEAAHPEB_W0@Z	; ATL::CExpansionVector::Add
PUBLIC	?ClearReplacements@CExpansionVector@ATL@@QEAAJXZ ; ATL::CExpansionVector::ClearReplacements
PUBLIC	?PreProcessBuffer@CRegParser@ATL@@QEAAJPEA_WPEAPEA_W@Z ; ATL::CRegParser::PreProcessBuffer
PUBLIC	?RegisterBuffer@CRegParser@ATL@@QEAAJPEA_WH@Z	; ATL::CRegParser::RegisterBuffer
PUBLIC	?NextToken@CRegParser@ATL@@IEAAJPEA_W@Z		; ATL::CRegParser::NextToken
PUBLIC	?AddValue@CRegParser@ATL@@IEAAJAEAVCRegKey@2@PEB_WPEA_W@Z ; ATL::CRegParser::AddValue
PUBLIC	?RegisterSubkeys@CRegParser@ATL@@IEAAJPEA_WPEAUHKEY__@@HH@Z ; ATL::CRegParser::RegisterSubkeys
PUBLIC	?SkipAssignment@CRegParser@ATL@@IEAAJPEA_W@Z	; ATL::CRegParser::SkipAssignment
PUBLIC	?HKeyFromString@CRegParser@ATL@@KAPEAUHKEY__@@PEA_W@Z ; ATL::CRegParser::HKeyFromString
PUBLIC	?VTFromRegType@CRegParser@ATL@@KAHPEB_WAEAG@Z	; ATL::CRegParser::VTFromRegType
PUBLIC	?Append@CParseBuffer@CRegParser@ATL@@QEAAHPEB_WH@Z ; ATL::CRegParser::CParseBuffer::Append
PUBLIC	??1CRegObject@ATL@@UEAA@XZ			; ATL::CRegObject::~CRegObject
PUBLIC	?RegisterFromResource@CRegObject@ATL@@IEAAJPEB_W00H@Z ; ATL::CRegObject::RegisterFromResource
PUBLIC	?AllocateHeap@?$CTempBuffer@_W$0EAA@VCCRTAllocator@ATL@@@ATL@@AEAAX_K@Z ; ATL::CTempBuffer<wchar_t,1024,ATL::CCRTAllocator>::AllocateHeap
PUBLIC	?FreeHeap@?$CTempBuffer@_W$0EAA@VCCRTAllocator@ATL@@@ATL@@AEAAXXZ ; ATL::CTempBuffer<wchar_t,1024,ATL::CCRTAllocator>::FreeHeap
PUBLIC	?AllocateHeap@?$CTempBuffer@_W$0BAA@VCCRTAllocator@ATL@@@ATL@@AEAAX_K@Z ; ATL::CTempBuffer<wchar_t,256,ATL::CCRTAllocator>::AllocateHeap
PUBLIC	?FreeHeap@?$CTempBuffer@_W$0BAA@VCCRTAllocator@ATL@@@ATL@@AEAAXXZ ; ATL::CTempBuffer<wchar_t,256,ATL::CCRTAllocator>::FreeHeap
PUBLIC	?AllocateHeap@?$CTempBuffer@E$0BAA@VCCRTAllocator@ATL@@@ATL@@AEAAX_K@Z ; ATL::CTempBuffer<unsigned char,256,ATL::CCRTAllocator>::AllocateHeap
PUBLIC	?FreeHeap@?$CTempBuffer@E$0BAA@VCCRTAllocator@ATL@@@ATL@@AEAAXXZ ; ATL::CTempBuffer<unsigned char,256,ATL::CCRTAllocator>::FreeHeap
PUBLIC	??1CComClassFactory@ATL@@UEAA@XZ		; ATL::CComClassFactory::~CComClassFactory
PUBLIC	??0stringdispid@CComTypeInfoHolder@ATL@@QEAA@XZ	; ATL::CComTypeInfoHolder::stringdispid::stringdispid
PUBLIC	??1stringdispid@CComTypeInfoHolder@ATL@@QEAA@XZ	; ATL::CComTypeInfoHolder::stringdispid::~stringdispid
PUBLIC	??_Estringdispid@CComTypeInfoHolder@ATL@@QEAAPEAXI@Z ; ATL::CComTypeInfoHolder::stringdispid::`vector deleting destructor'
PUBLIC	?GetTI@CComTypeInfoHolder@ATL@@QEAAJK@Z		; ATL::CComTypeInfoHolder::GetTI
PUBLIC	?Cleanup@CComTypeInfoHolder@ATL@@SAX_K@Z	; ATL::CComTypeInfoHolder::Cleanup
PUBLIC	?GetIDsOfNames@CComTypeInfoHolder@ATL@@QEAAJAEBU_GUID@@PEAPEA_WIKPEAJ@Z ; ATL::CComTypeInfoHolder::GetIDsOfNames
PUBLIC	?LoadNameCache@CComTypeInfoHolder@ATL@@QEAAJPEAUITypeInfo@@@Z ; ATL::CComTypeInfoHolder::LoadNameCache
PUBLIC	?Add@CComDynamicUnkArray@ATL@@QEAAKPEAUIUnknown@@@Z ; ATL::CComDynamicUnkArray::Add
PUBLIC	?AtlHiMetricToPixel@ATL@@YAXPEBUtagSIZE@@PEAU2@@Z ; ATL::AtlHiMetricToPixel
PUBLIC	?DefaultReflectionHandler@?$CWindowImplRoot@VCWindow@ATL@@@ATL@@SAHPEAUHWND__@@I_K_JAEA_J@Z ; ATL::CWindowImplRoot<ATL::CWindow>::DefaultReflectionHandler
PUBLIC	?WindowProc@?$CWindowImplBaseT@VCWindow@ATL@@V?$CWinTraits@$0FGAAAAAA@$0A@@2@@ATL@@SA_JPEAUHWND__@@I_K_J@Z ; ATL::CWindowImplBaseT<ATL::CWindow,ATL::CWinTraits<1442840576,0> >::WindowProc
PUBLIC	?atlCreate@?$CWindowImplBaseT@VCWindow@ATL@@V?$CWinTraits@$0FGAAAAAA@$0A@@2@@ATL@@QEAAPEAUHWND__@@PEAU3@V_U_RECT@2@PEB_WKKV_U_MENUorID@2@GPEAX@Z ; ATL::CWindowImplBaseT<ATL::CWindow,ATL::CWinTraits<1442840576,0> >::atlCreate
PUBLIC	?IsEqualObject@?$CComPtrBase@UIOleClientSite@@@ATL@@QEAA_NPEAUIUnknown@@@Z ; ATL::CComPtrBase<IOleClientSite>::IsEqualObject
PUBLIC	??$AtlModuleRegisterWndClassInfoT@VAtlModuleRegisterWndClassInfoParamW@ATL@@@ATL@@YAGPEAU_ATL_BASE_MODULE70@0@PEAU_ATL_WIN_MODULE70@0@PEAU_ATL_WNDCLASSINFOW@0@PEAP6A_JPEAUHWND__@@I_K_J@ZVAtlModuleRegisterWndClassInfoParamW@0@@Z ; ATL::AtlModuleRegisterWndClassInfoT<ATL::AtlModuleRegisterWndClassInfoParamW>
PUBLIC	?GetZoomInfo@CComControlBase@ATL@@QEAAXAEAUATL_DRAWINFO@@@Z ; ATL::CComControlBase::GetZoomInfo
PUBLIC	?SendOnDataChange@CComControlBase@ATL@@QEAAJK@Z	; ATL::CComControlBase::SendOnDataChange
PUBLIC	?OnSetFocus@CComControlBase@ATL@@QEAA_JI_K_JAEAH@Z ; ATL::CComControlBase::OnSetFocus
PUBLIC	?OnKillFocus@CComControlBase@ATL@@QEAA_JI_K_JAEAH@Z ; ATL::CComControlBase::OnKillFocus
PUBLIC	?OnMouseActivate@CComControlBase@ATL@@QEAA_JI_K_JAEAH@Z ; ATL::CComControlBase::OnMouseActivate
PUBLIC	?GetAmbientLocaleID@CComControlBase@ATL@@QEAAJAEAK@Z ; ATL::CComControlBase::GetAmbientLocaleID
PUBLIC	?GetAmbientUserMode@CComControlBase@ATL@@QEAAJAEAH@Z ; ATL::CComControlBase::GetAmbientUserMode
PUBLIC	?SetControlFocus@CComControlBase@ATL@@QEAAHH@Z	; ATL::CComControlBase::SetControlFocus
PUBLIC	?IQuickActivate_QuickActivate@CComControlBase@ATL@@QEAAJPEAUtagQACONTAINER@@PEAUtagQACONTROL@@@Z ; ATL::CComControlBase::IQuickActivate_QuickActivate
PUBLIC	?DoVerbProperties@CComControlBase@ATL@@QEAAJPEBUtagRECT@@PEAUHWND__@@@Z ; ATL::CComControlBase::DoVerbProperties
PUBLIC	?InPlaceActivate@CComControlBase@ATL@@QEAAJJPEBUtagRECT@@@Z ; ATL::CComControlBase::InPlaceActivate
PUBLIC	?IOleObject_SetClientSite@CComControlBase@ATL@@QEAAJPEAUIOleClientSite@@@Z ; ATL::CComControlBase::IOleObject_SetClientSite
PUBLIC	?IOleObject_Close@CComControlBase@ATL@@QEAAJK@Z	; ATL::CComControlBase::IOleObject_Close
PUBLIC	?IOleObject_SetExtent@CComControlBase@ATL@@QEAAJKPEAUtagSIZE@@@Z ; ATL::CComControlBase::IOleObject_SetExtent
PUBLIC	?IOleInPlaceObject_InPlaceDeactivate@CComControlBase@ATL@@QEAAJXZ ; ATL::CComControlBase::IOleInPlaceObject_InPlaceDeactivate
PUBLIC	?IOleInPlaceObject_UIDeactivate@CComControlBase@ATL@@QEAAJXZ ; ATL::CComControlBase::IOleInPlaceObject_UIDeactivate
PUBLIC	?IOleInPlaceObject_SetObjectRects@CComControlBase@ATL@@QEAAJPEBUtagRECT@@0@Z ; ATL::CComControlBase::IOleInPlaceObject_SetObjectRects
PUBLIC	?IViewObject_Draw@CComControlBase@ATL@@QEAAJKJPEAXPEAUtagDVTARGETDEVICE@@PEAUHDC__@@2PEBU_RECTL@@3@Z ; ATL::CComControlBase::IViewObject_Draw
PUBLIC	?IDataObject_GetData@CComControlBase@ATL@@QEAAJPEAUtagFORMATETC@@PEAUtagSTGMEDIUM@@@Z ; ATL::CComControlBase::IDataObject_GetData
PUBLIC	?FireViewChange@CComControlBase@ATL@@QEAAJXZ	; ATL::CComControlBase::FireViewChange
PUBLIC	?OnPaint@CComControlBase@ATL@@QEAA_JI_K_JAEAH@Z	; ATL::CComControlBase::OnPaint
PUBLIC	??0OposVariant@@QEAA@XZ				; OposVariant::OposVariant
PUBLIC	??1OposVariant@@QEAA@XZ				; OposVariant::~OposVariant
PUBLIC	?atlCreate@?$CWindowImpl@VCOPOSSoundPlayer@@VCWindow@ATL@@V?$CWinTraits@$0FGAAAAAA@$0A@@3@@ATL@@QEAAPEAUHWND__@@PEAU3@V_U_RECT@2@PEB_WKKV_U_MENUorID@2@PEAX@Z ; ATL::CWindowImpl<COPOSSoundPlayer,ATL::CWindow,ATL::CWinTraits<1442840576,0> >::atlCreate
PUBLIC	?ProcessWindowMessage@?$CComControl@VCOPOSSoundPlayer@@V?$CWindowImpl@VCOPOSSoundPlayer@@VCWindow@ATL@@V?$CWinTraits@$0FGAAAAAA@$0A@@3@@ATL@@@ATL@@UEAAHPEAUHWND__@@I_K_JAEA_JK@Z ; ATL::CComControl<COPOSSoundPlayer,ATL::CWindowImpl<COPOSSoundPlayer,ATL::CWindow,ATL::CWinTraits<1442840576,0> > >::ProcessWindowMessage
PUBLIC	?IPersistStreamInit_Load@?$IPersistStreamInitImpl@VCOPOSSoundPlayer@@@ATL@@QEAAJPEAUIStream@@PEBUATL_PROPMAP_ENTRY@2@@Z ; ATL::IPersistStreamInitImpl<COPOSSoundPlayer>::IPersistStreamInit_Load
PUBLIC	?IPersistStreamInit_Save@?$IPersistStreamInitImpl@VCOPOSSoundPlayer@@@ATL@@QEAAJPEAUIStream@@HPEBUATL_PROPMAP_ENTRY@2@@Z ; ATL::IPersistStreamInitImpl<COPOSSoundPlayer>::IPersistStreamInit_Save
PUBLIC	?DoVerbPrimary@?$IOleObjectImpl@VCOPOSSoundPlayer@@@ATL@@QEAAJPEBUtagRECT@@PEAUHWND__@@@Z ; ATL::IOleObjectImpl<COPOSSoundPlayer>::DoVerbPrimary
PUBLIC	?IPSI_GetIPersistStreamInit@?$IPersistStorageImpl@VCOPOSSoundPlayer@@@ATL@@AEAAPEAUIPersistStreamInit@@XZ ; ATL::IPersistStorageImpl<COPOSSoundPlayer>::IPSI_GetIPersistStreamInit
PUBLIC	?GetPagesHelper@?$ISpecifyPropertyPagesImpl@VCOPOSSoundPlayer@@@ATL@@IEAAJPEAUtagCAUUID@@PEBUATL_PROPMAP_ENTRY@2@@Z ; ATL::ISpecifyPropertyPagesImpl<COPOSSoundPlayer>::GetPagesHelper
PUBLIC	?Fire_DirectIOEvent@?$CProxy_IOPOSEvents@VCOPOSSoundPlayer@@@@QEAAXJPEAJPEAPEA_W@Z ; CProxy_IOPOSEvents<COPOSSoundPlayer>::Fire_DirectIOEvent
PUBLIC	?Fire_ErrorEvent@?$CProxy_IOPOSEvents@VCOPOSSoundPlayer@@@@QEAAXJJJPEAJ@Z ; CProxy_IOPOSEvents<COPOSSoundPlayer>::Fire_ErrorEvent
PUBLIC	?Fire_OutputCompleteEvent@?$CProxy_IOPOSEvents@VCOPOSSoundPlayer@@@@QEAAXJ@Z ; CProxy_IOPOSEvents<COPOSSoundPlayer>::Fire_OutputCompleteEvent
PUBLIC	?Fire_StatusUpdateEvent@?$CProxy_IOPOSEvents@VCOPOSSoundPlayer@@@@QEAAXJ@Z ; CProxy_IOPOSEvents<COPOSSoundPlayer>::Fire_StatusUpdateEvent
PUBLIC	?FireTheEvent@?$CProxy_IOPOSEvents@VCOPOSSoundPlayer@@@@IEAAXPEAVOposVariant@@IAEAJPEB_WJ@Z ; CProxy_IOPOSEvents<COPOSSoundPlayer>::FireTheEvent
PUBLIC	?GetConnMap@COPOSSoundPlayer@@SAPEBU_ATL_CONNMAP_ENTRY@ATL@@PEAH@Z ; COPOSSoundPlayer::GetConnMap
PUBLIC	?DoEvent@COPOSSoundPlayer@@IEAAXI_K_J@Z		; COPOSSoundPlayer::DoEvent
PUBLIC	DllMain
PUBLIC	?CreateInstance@?$CComCreator@V?$CComObject@VCOPOSSoundPlayer@@@ATL@@@ATL@@SAJPEAXAEBU_GUID@@PEAPEAX@Z ; ATL::CComCreator<ATL::CComObject<COPOSSoundPlayer> >::CreateInstance
PUBLIC	?CreateInstance@?$CComCreator@V?$CComAggObject@VCOPOSSoundPlayer@@@ATL@@@ATL@@SAJPEAXAEBU_GUID@@PEAPEAX@Z ; ATL::CComCreator<ATL::CComAggObject<COPOSSoundPlayer> >::CreateInstance
PUBLIC	??1?$CComObjectCached@VCComClassFactory@ATL@@@ATL@@UEAA@XZ ; ATL::CComObjectCached<ATL::CComClassFactory>::~CComObjectCached<ATL::CComClassFactory>
PUBLIC	??1?$CComEnumImpl@UIEnumConnectionPoints@@$1?_GUID_b196b285_bab4_101a_b69c_00aa00341d07@@3U__s_GUID@@BPEAUIConnectionPoint@@V?$_CopyInterface@UIConnectionPoint@@@ATL@@@ATL@@UEAA@XZ ; ATL::CComEnumImpl<IEnumConnectionPoints,&_GUID_b196b285_bab4_101a_b69c_00aa00341d07,IConnectionPoint *,ATL::_CopyInterface<IConnectionPoint> >::~CComEnumImpl<IEnumConnectionPoints,&_GUID_b196b285_bab4_101a_b69c_00aa00341d07,IConnectionPoint *,ATL::_CopyInterface<IConnectionPoint> >
PUBLIC	?Init@?$CComEnumImpl@UIEnumConnectionPoints@@$1?_GUID_b196b285_bab4_101a_b69c_00aa00341d07@@3U__s_GUID@@BPEAUIConnectionPoint@@V?$_CopyInterface@UIConnectionPoint@@@ATL@@@ATL@@QEAAJPEAPEAUIConnectionPoint@@0PEAUIUnknown@@W4CComEnumFlags@2@@Z ; ATL::CComEnumImpl<IEnumConnectionPoints,&_GUID_b196b285_bab4_101a_b69c_00aa00341d07,IConnectionPoint *,ATL::_CopyInterface<IConnectionPoint> >::Init
PUBLIC	??1?$CComObject@V?$CComEnum@UIEnumConnectionPoints@@$1?_GUID_b196b285_bab4_101a_b69c_00aa00341d07@@3U__s_GUID@@BPEAUIConnectionPoint@@V?$_CopyInterface@UIConnectionPoint@@@ATL@@VCComSingleThreadModel@6@@ATL@@@ATL@@UEAA@XZ ; ATL::CComObject<ATL::CComEnum<IEnumConnectionPoints,&_GUID_b196b285_bab4_101a_b69c_00aa00341d07,IConnectionPoint *,ATL::_CopyInterface<IConnectionPoint>,ATL::CComSingleThreadModel> >::~CComObject<ATL::CComEnum<IEnumConnectionPoints,&_GUID_b196b285_bab4_101a_b69c_00aa00341d07,IConnectionPoint *,ATL::_CopyInterface<IConnectionPoint>,ATL::CComSingleThreadModel> >
PUBLIC	?CreateInstance@?$CComObject@V?$CComEnum@UIEnumConnectionPoints@@$1?_GUID_b196b285_bab4_101a_b69c_00aa00341d07@@3U__s_GUID@@BPEAUIConnectionPoint@@V?$_CopyInterface@UIConnectionPoint@@@ATL@@VCComSingleThreadModel@6@@ATL@@@ATL@@SAJPEAPEAV12@@Z ; ATL::CComObject<ATL::CComEnum<IEnumConnectionPoints,&_GUID_b196b285_bab4_101a_b69c_00aa00341d07,IConnectionPoint *,ATL::_CopyInterface<IConnectionPoint>,ATL::CComSingleThreadModel> >::CreateInstance
PUBLIC	??1?$CComAggObject@VCOPOSSoundPlayer@@@ATL@@UEAA@XZ ; ATL::CComAggObject<COPOSSoundPlayer>::~CComAggObject<COPOSSoundPlayer>
PUBLIC	??0?$CComContainedObject@VCOPOSSoundPlayer@@@ATL@@QEAA@PEAX@Z ; ATL::CComContainedObject<COPOSSoundPlayer>::CComContainedObject<COPOSSoundPlayer>
PUBLIC	??_G?$CComContainedObject@VCOPOSSoundPlayer@@@ATL@@UEAAPEAXI@Z ; ATL::CComContainedObject<COPOSSoundPlayer>::`scalar deleting destructor'
PUBLIC	??0?$CComObject@VCOPOSSoundPlayer@@@ATL@@QEAA@PEAX@Z ; ATL::CComObject<COPOSSoundPlayer>::CComObject<COPOSSoundPlayer>
PUBLIC	??1?$CComObject@VCOPOSSoundPlayer@@@ATL@@UEAA@XZ ; ATL::CComObject<COPOSSoundPlayer>::~CComObject<COPOSSoundPlayer>
PUBLIC	??_G?$CComObject@VCOPOSSoundPlayer@@@ATL@@UEAAPEAXI@Z ; ATL::CComObject<COPOSSoundPlayer>::`scalar deleting destructor'
PUBLIC	??1?$CComEnumImpl@UIEnumConnections@@$1?_GUID_b196b287_bab4_101a_b69c_00aa00341d07@@3U__s_GUID@@BUtagCONNECTDATA@@V?$_Copy@UtagCONNECTDATA@@@ATL@@@ATL@@UEAA@XZ ; ATL::CComEnumImpl<IEnumConnections,&_GUID_b196b287_bab4_101a_b69c_00aa00341d07,tagCONNECTDATA,ATL::_Copy<tagCONNECTDATA> >::~CComEnumImpl<IEnumConnections,&_GUID_b196b287_bab4_101a_b69c_00aa00341d07,tagCONNECTDATA,ATL::_Copy<tagCONNECTDATA> >
PUBLIC	?Init@?$CComEnumImpl@UIEnumConnections@@$1?_GUID_b196b287_bab4_101a_b69c_00aa00341d07@@3U__s_GUID@@BUtagCONNECTDATA@@V?$_Copy@UtagCONNECTDATA@@@ATL@@@ATL@@QEAAJPEAUtagCONNECTDATA@@0PEAUIUnknown@@W4CComEnumFlags@2@@Z ; ATL::CComEnumImpl<IEnumConnections,&_GUID_b196b287_bab4_101a_b69c_00aa00341d07,tagCONNECTDATA,ATL::_Copy<tagCONNECTDATA> >::Init
PUBLIC	??1?$CComObject@V?$CComEnum@UIEnumConnections@@$1?_GUID_b196b287_bab4_101a_b69c_00aa00341d07@@3U__s_GUID@@BUtagCONNECTDATA@@V?$_Copy@UtagCONNECTDATA@@@ATL@@VCComSingleThreadModel@6@@ATL@@@ATL@@UEAA@XZ ; ATL::CComObject<ATL::CComEnum<IEnumConnections,&_GUID_b196b287_bab4_101a_b69c_00aa00341d07,tagCONNECTDATA,ATL::_Copy<tagCONNECTDATA>,ATL::CComSingleThreadModel> >::~CComObject<ATL::CComEnum<IEnumConnections,&_GUID_b196b287_bab4_101a_b69c_00aa00341d07,tagCONNECTDATA,ATL::_Copy<tagCONNECTDATA>,ATL::CComSingleThreadModel> >
PUBLIC	?CreateInstance@?$CComObject@V?$CComEnum@UIEnumConnections@@$1?_GUID_b196b287_bab4_101a_b69c_00aa00341d07@@3U__s_GUID@@BUtagCONNECTDATA@@V?$_Copy@UtagCONNECTDATA@@@ATL@@VCComSingleThreadModel@6@@ATL@@@ATL@@SAJPEAPEAV12@@Z ; ATL::CComObject<ATL::CComEnum<IEnumConnections,&_GUID_b196b287_bab4_101a_b69c_00aa00341d07,tagCONNECTDATA,ATL::_Copy<tagCONNECTDATA>,ATL::CComSingleThreadModel> >::CreateInstance
PUBLIC	?atlTraceGeneral@ATL@@3V?$CTraceCategoryEx@$00$0A@@1@A ; ATL::atlTraceGeneral
PUBLIC	?atlTraceCOM@ATL@@3V?$CTraceCategoryEx@$01$0A@@1@A ; ATL::atlTraceCOM
PUBLIC	?atlTraceQI@ATL@@3V?$CTraceCategoryEx@$03$0A@@1@A ; ATL::atlTraceQI
PUBLIC	?atlTraceRegistrar@ATL@@3V?$CTraceCategoryEx@$07$0A@@1@A ; ATL::atlTraceRegistrar
PUBLIC	?atlTraceRefcount@ATL@@3V?$CTraceCategoryEx@$0BA@$0A@@1@A ; ATL::atlTraceRefcount
PUBLIC	?atlTraceWindowing@ATL@@3V?$CTraceCategoryEx@$0CA@$0A@@1@A ; ATL::atlTraceWindowing
PUBLIC	?atlTraceControls@ATL@@3V?$CTraceCategoryEx@$0EA@$0A@@1@A ; ATL::atlTraceControls
PUBLIC	?atlTraceHosting@ATL@@3V?$CTraceCategoryEx@$0IA@$0A@@1@A ; ATL::atlTraceHosting
PUBLIC	?atlTraceDBClient@ATL@@3V?$CTraceCategoryEx@$0BAA@$0A@@1@A ; ATL::atlTraceDBClient
PUBLIC	?atlTraceDBProvider@ATL@@3V?$CTraceCategoryEx@$0CAA@$0A@@1@A ; ATL::atlTraceDBProvider
PUBLIC	?atlTraceSnapin@ATL@@3V?$CTraceCategoryEx@$0EAA@$0A@@1@A ; ATL::atlTraceSnapin
PUBLIC	?atlTraceNotImpl@ATL@@3V?$CTraceCategoryEx@$0IAA@$0A@@1@A ; ATL::atlTraceNotImpl
PUBLIC	?atlTraceAllocation@ATL@@3V?$CTraceCategoryEx@$0BAAA@$0A@@1@A ; ATL::atlTraceAllocation
PUBLIC	?atlTraceException@ATL@@3V?$CTraceCategoryEx@$0CAAA@$0A@@1@A ; ATL::atlTraceException
PUBLIC	?atlTraceTime@ATL@@3V?$CTraceCategoryEx@$0EAAA@$0A@@1@A ; ATL::atlTraceTime
PUBLIC	?atlTraceCache@ATL@@3V?$CTraceCategoryEx@$0IAAA@$0A@@1@A ; ATL::atlTraceCache
PUBLIC	?atlTraceStencil@ATL@@3V?$CTraceCategoryEx@$0BAAAA@$0A@@1@A ; ATL::atlTraceStencil
PUBLIC	?atlTraceString@ATL@@3V?$CTraceCategoryEx@$0CAAAA@$0A@@1@A ; ATL::atlTraceString
PUBLIC	?atlTraceMap@ATL@@3V?$CTraceCategoryEx@$0EAAAA@$0A@@1@A ; ATL::atlTraceMap
PUBLIC	?atlTraceUtil@ATL@@3V?$CTraceCategoryEx@$0IAAAA@$0A@@1@A ; ATL::atlTraceUtil
PUBLIC	?atlTraceSecurity@ATL@@3V?$CTraceCategoryEx@$0BAAAAA@$0A@@1@A ; ATL::atlTraceSecurity
PUBLIC	?atlTraceSync@ATL@@3V?$CTraceCategoryEx@$0CAAAAA@$0A@@1@A ; ATL::atlTraceSync
PUBLIC	?atlTraceISAPI@ATL@@3V?$CTraceCategoryEx@$0EAAAAA@$0A@@1@A ; ATL::atlTraceISAPI
PUBLIC	??_C@_0BG@EKFFMJIO@RegOpenKeyTransactedW@	; `string'
PUBLIC	??_C@_0BI@HAKLOOGP@RegDeleteKeyTransactedW@	; `string'
PUBLIC	?_AtlComModule@ATL@@3VCAtlComModule@1@A		; ATL::_AtlComModule
PUBLIC	?_AtlWinModule@ATL@@3VCAtlWinModule@1@A		; ATL::_AtlWinModule
PUBLIC	?pfnRegDeleteKeyEx@?1??DeleteSubKey@CRegKey@ATL@@QEAAJPEB_W@Z@4P6AJPEAUHKEY__@@0KK@ZEA ; `ATL::CRegKey::DeleteSubKey'::`2'::pfnRegDeleteKeyEx
PUBLIC	?bInitialized@?1??DeleteSubKey@CRegKey@ATL@@QEAAJPEB_W@Z@4_NA ; `ATL::CRegKey::DeleteSubKey'::`2'::bInitialized
PUBLIC	??_C@_0BA@LILAPHGE@RegDeleteKeyExW@		; `string'
PUBLIC	??_C@_19ILOCMLCJ@?$AA?4?$AAt?$AAl?$AAb@		; `string'
PUBLIC	_GUID_0002e012_0000_0000_c000_000000000046
PUBLIC	??_C@_1O@FHBGLCIO@?$AAC?$AAL?$AAS?$AAI?$AAD?$AA?2@ ; `string'
PUBLIC	??_C@_1CK@IFBKBFAA@?$AA?2?$AAR?$AAe?$AAq?$AAu?$AAi?$AAr?$AAe?$AAd?$AA?5?$AAC?$AAa?$AAt?$AAe?$AAg@ ; `string'
PUBLIC	??_C@_1DA@BIHALFED@?$AA?2?$AAI?$AAm?$AAp?$AAl?$AAe?$AAm?$AAe?$AAn?$AAt?$AAe?$AAd?$AA?5?$AAC?$AAa@ ; `string'
PUBLIC	??_C@_1BK@EDKOLFBJ@?$AAO?$AAL?$AAE?$AAA?$AAU?$AAT?$AA3?$AA2?$AA?4?$AAD?$AAL?$AAL@ ; `string'
PUBLIC	??_C@_0BJ@CNLFOMHB@UnRegisterTypeLibForUser@	; `string'
PUBLIC	??_C@_0BH@LBOMMKPJ@RegisterTypeLibForUser@	; `string'
PUBLIC	?_Module@@3VCComModule@ATL@@A			; _Module
PUBLIC	?pConnMap@?$IConnectionPointContainerImpl@VCOPOSSoundPlayer@@@ATL@@0PEBU_ATL_CONNMAP_ENTRY@2@EB ; ATL::IConnectionPointContainerImpl<COPOSSoundPlayer>::pConnMap
EXTRN	??3@YAXPEAX_K@Z:PROC				; operator delete
EXTRN	??_V@YAXPEAX@Z:PROC				; operator delete[]
EXTRN	??_V@YAXPEAX_K@Z:PROC				; operator delete[]
EXTRN	atexit:PROC
EXTRN	__report_rangecheckfailure:PROC
EXTRN	_Init_thread_header:PROC
EXTRN	_Init_thread_footer:PROC
EXTRN	_invalid_parameter_noinfo:PROC
EXTRN	_errno:PROC
EXTRN	calloc:PROC
EXTRN	free:PROC
EXTRN	malloc:PROC
EXTRN	_recalloc:PROC
EXTRN	??2@YAPEAX_KAEBUnothrow_t@std@@@Z:PROC		; operator new
EXTRN	??_U@YAPEAX_KAEBUnothrow_t@std@@@Z:PROC		; operator new[]
EXTRN	_resetstkoflw:PROC
EXTRN	wcsstr:PROC
EXTRN	wcscat_s:PROC
EXTRN	wcscpy_s:PROC
EXTRN	wcsncpy_s:PROC
EXTRN	__imp_EncodePointer:PROC
EXTRN	__imp_DecodePointer:PROC
EXTRN	__imp_RaiseException:PROC
EXTRN	__imp_GetLastError:PROC
EXTRN	__imp_SetLastError:PROC
EXTRN	__imp_EnterCriticalSection:PROC
EXTRN	__imp_LeaveCriticalSection:PROC
EXTRN	__imp_InitializeCriticalSectionEx:PROC
EXTRN	__imp_DeleteCriticalSection:PROC
EXTRN	__imp_ResetEvent:PROC
EXTRN	__imp_ReleaseMutex:PROC
EXTRN	__imp_WaitForSingleObject:PROC
EXTRN	__imp_Sleep:PROC
EXTRN	__imp_GetCurrentThreadId:PROC
EXTRN	__imp_DisableThreadLibraryCalls:PROC
EXTRN	__imp_FreeLibrary:PROC
EXTRN	__imp_GetModuleFileNameW:PROC
EXTRN	__imp_GetModuleHandleW:PROC
EXTRN	__imp_GetProcAddress:PROC
EXTRN	__imp_LoadLibraryExW:PROC
EXTRN	__imp_LoadResource:PROC
EXTRN	__imp_SizeofResource:PROC
EXTRN	__imp_FindResourceW:PROC
EXTRN	__imp_GlobalAlloc:PROC
EXTRN	__imp_GlobalUnlock:PROC
EXTRN	__imp_GlobalLock:PROC
EXTRN	__imp_MulDiv:PROC
EXTRN	__imp_lstrcmpiW:PROC
EXTRN	__imp_CloseMetaFile:PROC
EXTRN	__imp_CreateDCW:PROC
EXTRN	__imp_CreateMetaFileW:PROC
EXTRN	__imp_CreateRectRgnIndirect:PROC
EXTRN	__imp_DeleteDC:PROC
EXTRN	__imp_DeleteMetaFile:PROC
EXTRN	__imp_GetDeviceCaps:PROC
EXTRN	__imp_RestoreDC:PROC
EXTRN	__imp_SaveDC:PROC
EXTRN	__imp_SetMapMode:PROC
EXTRN	__imp_LPtoDP:PROC
EXTRN	__imp_SetViewportOrgEx:PROC
EXTRN	__imp_SetWindowExtEx:PROC
EXTRN	__imp_SetWindowOrgEx:PROC
EXTRN	__imp_PostMessageW:PROC
EXTRN	__imp_DefWindowProcW:PROC
EXTRN	__imp_CallWindowProcW:PROC
EXTRN	__imp_UnregisterClassW:PROC
EXTRN	__imp_RegisterClassExW:PROC
EXTRN	__imp_GetClassInfoExW:PROC
EXTRN	__imp_CreateWindowExW:PROC
EXTRN	__imp_IsWindow:PROC
EXTRN	__imp_IsChild:PROC
EXTRN	__imp_DestroyWindow:PROC
EXTRN	__imp_ShowWindow:PROC
EXTRN	__imp_SetWindowPos:PROC
EXTRN	__imp_CharNextW:PROC
EXTRN	__imp_SetFocus:PROC
EXTRN	__imp_GetFocus:PROC
EXTRN	__imp_GetKeyState:PROC
EXTRN	__imp_GetDC:PROC
EXTRN	__imp_ReleaseDC:PROC
EXTRN	__imp_BeginPaint:PROC
EXTRN	__imp_EndPaint:PROC
EXTRN	__imp_SetWindowRgn:PROC
EXTRN	__imp_InvalidateRect:PROC
EXTRN	__imp_GetClientRect:PROC
EXTRN	__imp_IntersectRect:PROC
EXTRN	__imp_UnionRect:PROC
EXTRN	__imp_OffsetRect:PROC
EXTRN	__imp_EqualRect:PROC
EXTRN	__imp_PtInRect:PROC
EXTRN	__imp_GetWindowLongPtrW:PROC
EXTRN	__imp_SetWindowLongPtrW:PROC
EXTRN	__imp_GetParent:PROC
EXTRN	__imp_LoadCursorW:PROC
EXTRN	__imp_MultiByteToWideChar:PROC
EXTRN	__imp_RegCloseKey:PROC
EXTRN	__imp_RegCreateKeyExW:PROC
EXTRN	__imp_RegDeleteKeyW:PROC
EXTRN	__imp_RegDeleteValueW:PROC
EXTRN	__imp_RegEnumKeyExW:PROC
EXTRN	__imp_RegOpenKeyExW:PROC
EXTRN	__imp_RegQueryInfoKeyW:PROC
EXTRN	__imp_RegSetValueExW:PROC
EXTRN	__imp_CoCreateInstance:PROC
EXTRN	__imp_StringFromGUID2:PROC
EXTRN	__imp_CoTaskMemAlloc:PROC
EXTRN	__imp_CoTaskMemRealloc:PROC
EXTRN	__imp_CoTaskMemFree:PROC
EXTRN	__imp_ReadClassStm:PROC
EXTRN	__imp_WriteClassStm:PROC
EXTRN	__imp_CreateDataAdviseHolder:PROC
EXTRN	__imp_SysAllocString:PROC
EXTRN	__imp_SysFreeString:PROC
EXTRN	__imp_SysStringLen:PROC
EXTRN	__imp_SysStringByteLen:PROC
EXTRN	__imp_SysAllocStringByteLen:PROC
EXTRN	__imp_VariantInit:PROC
EXTRN	__imp_VariantClear:PROC
EXTRN	__imp_VariantChangeType:PROC
EXTRN	__imp_VarUI4FromStr:PROC
EXTRN	__imp_LoadTypeLib:PROC
EXTRN	__imp_LoadRegTypeLib:PROC
EXTRN	__imp_RegisterTypeLib:PROC
EXTRN	__imp_UnRegisterTypeLib:PROC
EXTRN	__imp_OleSaveToStream:PROC
EXTRN	__imp_CreateOleAdviseHolder:PROC
EXTRN	__imp_OleRegGetUserType:PROC
EXTRN	__imp_OleRegGetMiscStatus:PROC
EXTRN	__imp_OleRegEnumVerbs:PROC
EXTRN	__stdio_common_vswprintf_s:PROC
EXTRN	__imp_OleCreatePropertyFrame:PROC
EXTRN	AtlThunk_AllocateData:PROC
EXTRN	AtlThunk_InitData:PROC
EXTRN	AtlThunk_DataToCode:PROC
EXTRN	?SetLONG@OposVariant@@QEAAXJ@Z:PROC		; OposVariant::SetLONG
EXTRN	?SetLONG_Ptr@OposVariant@@QEAAXPEAJAEAJ@Z:PROC	; OposVariant::SetLONG_Ptr
EXTRN	?SetBSTR_InOutPtr@OposVariant@@QEAA_NPEAPEA_WAEAJ@Z:PROC ; OposVariant::SetBSTR_InOutPtr
EXTRN	??0OposDispParms@@QEAA@PEAVOposVariant@@H@Z:PROC ; OposDispParms::OposDispParms
EXTRN	??1OposDispParms@@QEAA@XZ:PROC			; OposDispParms::~OposDispParms
EXTRN	??0COPOSSoundPlayer@@QEAA@XZ:PROC		; COPOSSoundPlayer::COPOSSoundPlayer
EXTRN	?FinalConstruct@COPOSSoundPlayer@@QEAAJXZ:PROC	; COPOSSoundPlayer::FinalConstruct
EXTRN	??1COPOSSoundPlayer@@UEAA@XZ:PROC		; COPOSSoundPlayer::~COPOSSoundPlayer
EXTRN	??_E?$CComContainedObject@VCOPOSSoundPlayer@@@ATL@@UEAAPEAXI@Z:PROC ; ATL::CComContainedObject<COPOSSoundPlayer>::`vector deleting destructor'
EXTRN	??_E?$CComObject@VCOPOSSoundPlayer@@@ATL@@UEAAPEAXI@Z:PROC ; ATL::CComObject<COPOSSoundPlayer>::`vector deleting destructor'
EXTRN	__GSHandlerCheck:PROC
EXTRN	__GSHandlerCheck_SEH:PROC
EXTRN	__chkstk:PROC
EXTRN	__security_check_cookie:PROC
EXTRN	memcmp:PROC
EXTRN	memcpy:PROC
EXTRN	memset:PROC
EXTRN	CLSID_StdComponentCategoriesMgr:BYTE
EXTRN	__security_cookie:QWORD
EXTRN	_tls_index:DWORD
;	COMDAT ?atlTraceGeneral@ATL@@3V?$CTraceCategoryEx@$00$0A@@1@A
_BSS	SEGMENT
?atlTraceGeneral@ATL@@3V?$CTraceCategoryEx@$00$0A@@1@A DD 01H DUP (?) ; ATL::atlTraceGeneral
_BSS	ENDS
;	COMDAT ?atlTraceCOM@ATL@@3V?$CTraceCategoryEx@$01$0A@@1@A
_BSS	SEGMENT
?atlTraceCOM@ATL@@3V?$CTraceCategoryEx@$01$0A@@1@A DD 01H DUP (?) ; ATL::atlTraceCOM
_BSS	ENDS
;	COMDAT ?atlTraceQI@ATL@@3V?$CTraceCategoryEx@$03$0A@@1@A
_BSS	SEGMENT
?atlTraceQI@ATL@@3V?$CTraceCategoryEx@$03$0A@@1@A DD 01H DUP (?) ; ATL::atlTraceQI
_BSS	ENDS
;	COMDAT ?atlTraceRegistrar@ATL@@3V?$CTraceCategoryEx@$07$0A@@1@A
_BSS	SEGMENT
?atlTraceRegistrar@ATL@@3V?$CTraceCategoryEx@$07$0A@@1@A DD 01H DUP (?) ; ATL::atlTraceRegistrar
_BSS	ENDS
;	COMDAT ?atlTraceRefcount@ATL@@3V?$CTraceCategoryEx@$0BA@$0A@@1@A
_BSS	SEGMENT
?atlTraceRefcount@ATL@@3V?$CTraceCategoryEx@$0BA@$0A@@1@A DD 01H DUP (?) ; ATL::atlTraceRefcount
_BSS	ENDS
;	COMDAT ?atlTraceWindowing@ATL@@3V?$CTraceCategoryEx@$0CA@$0A@@1@A
_BSS	SEGMENT
?atlTraceWindowing@ATL@@3V?$CTraceCategoryEx@$0CA@$0A@@1@A DD 01H DUP (?) ; ATL::atlTraceWindowing
_BSS	ENDS
;	COMDAT ?atlTraceControls@ATL@@3V?$CTraceCategoryEx@$0EA@$0A@@1@A
_BSS	SEGMENT
?atlTraceControls@ATL@@3V?$CTraceCategoryEx@$0EA@$0A@@1@A DD 01H DUP (?) ; ATL::atlTraceControls
_BSS	ENDS
;	COMDAT ?atlTraceHosting@ATL@@3V?$CTraceCategoryEx@$0IA@$0A@@1@A
_BSS	SEGMENT
?atlTraceHosting@ATL@@3V?$CTraceCategoryEx@$0IA@$0A@@1@A DD 01H DUP (?) ; ATL::atlTraceHosting
_BSS	ENDS
;	COMDAT ?atlTraceDBClient@ATL@@3V?$CTraceCategoryEx@$0BAA@$0A@@1@A
_BSS	SEGMENT
?atlTraceDBClient@ATL@@3V?$CTraceCategoryEx@$0BAA@$0A@@1@A DD 01H DUP (?) ; ATL::atlTraceDBClient
_BSS	ENDS
;	COMDAT ?atlTraceDBProvider@ATL@@3V?$CTraceCategoryEx@$0CAA@$0A@@1@A
_BSS	SEGMENT
?atlTraceDBProvider@ATL@@3V?$CTraceCategoryEx@$0CAA@$0A@@1@A DD 01H DUP (?) ; ATL::atlTraceDBProvider
_BSS	ENDS
;	COMDAT ?atlTraceSnapin@ATL@@3V?$CTraceCategoryEx@$0EAA@$0A@@1@A
_BSS	SEGMENT
?atlTraceSnapin@ATL@@3V?$CTraceCategoryEx@$0EAA@$0A@@1@A DD 01H DUP (?) ; ATL::atlTraceSnapin
_BSS	ENDS
;	COMDAT ?atlTraceNotImpl@ATL@@3V?$CTraceCategoryEx@$0IAA@$0A@@1@A
_BSS	SEGMENT
?atlTraceNotImpl@ATL@@3V?$CTraceCategoryEx@$0IAA@$0A@@1@A DD 01H DUP (?) ; ATL::atlTraceNotImpl
_BSS	ENDS
;	COMDAT ?atlTraceAllocation@ATL@@3V?$CTraceCategoryEx@$0BAAA@$0A@@1@A
_BSS	SEGMENT
?atlTraceAllocation@ATL@@3V?$CTraceCategoryEx@$0BAAA@$0A@@1@A DD 01H DUP (?) ; ATL::atlTraceAllocation
_BSS	ENDS
;	COMDAT ?atlTraceException@ATL@@3V?$CTraceCategoryEx@$0CAAA@$0A@@1@A
_BSS	SEGMENT
?atlTraceException@ATL@@3V?$CTraceCategoryEx@$0CAAA@$0A@@1@A DD 01H DUP (?) ; ATL::atlTraceException
_BSS	ENDS
;	COMDAT ?atlTraceTime@ATL@@3V?$CTraceCategoryEx@$0EAAA@$0A@@1@A
_BSS	SEGMENT
?atlTraceTime@ATL@@3V?$CTraceCategoryEx@$0EAAA@$0A@@1@A DD 01H DUP (?) ; ATL::atlTraceTime
_BSS	ENDS
;	COMDAT ?atlTraceCache@ATL@@3V?$CTraceCategoryEx@$0IAAA@$0A@@1@A
_BSS	SEGMENT
?atlTraceCache@ATL@@3V?$CTraceCategoryEx@$0IAAA@$0A@@1@A DD 01H DUP (?) ; ATL::atlTraceCache
_BSS	ENDS
;	COMDAT ?atlTraceStencil@ATL@@3V?$CTraceCategoryEx@$0BAAAA@$0A@@1@A
_BSS	SEGMENT
?atlTraceStencil@ATL@@3V?$CTraceCategoryEx@$0BAAAA@$0A@@1@A DD 01H DUP (?) ; ATL::atlTraceStencil
_BSS	ENDS
;	COMDAT ?atlTraceString@ATL@@3V?$CTraceCategoryEx@$0CAAAA@$0A@@1@A
_BSS	SEGMENT
?atlTraceString@ATL@@3V?$CTraceCategoryEx@$0CAAAA@$0A@@1@A DD 01H DUP (?) ; ATL::atlTraceString
_BSS	ENDS
;	COMDAT ?atlTraceMap@ATL@@3V?$CTraceCategoryEx@$0EAAAA@$0A@@1@A
_BSS	SEGMENT
?atlTraceMap@ATL@@3V?$CTraceCategoryEx@$0EAAAA@$0A@@1@A DD 01H DUP (?) ; ATL::atlTraceMap
_BSS	ENDS
;	COMDAT ?atlTraceUtil@ATL@@3V?$CTraceCategoryEx@$0IAAAA@$0A@@1@A
_BSS	SEGMENT
?atlTraceUtil@ATL@@3V?$CTraceCategoryEx@$0IAAAA@$0A@@1@A DD 01H DUP (?) ; ATL::atlTraceUtil
_BSS	ENDS
;	COMDAT ?atlTraceSecurity@ATL@@3V?$CTraceCategoryEx@$0BAAAAA@$0A@@1@A
_BSS	SEGMENT
?atlTraceSecurity@ATL@@3V?$CTraceCategoryEx@$0BAAAAA@$0A@@1@A DD 01H DUP (?) ; ATL::atlTraceSecurity
_BSS	ENDS
;	COMDAT ?atlTraceSync@ATL@@3V?$CTraceCategoryEx@$0CAAAAA@$0A@@1@A
_BSS	SEGMENT
?atlTraceSync@ATL@@3V?$CTraceCategoryEx@$0CAAAAA@$0A@@1@A DD 01H DUP (?) ; ATL::atlTraceSync
_BSS	ENDS
;	COMDAT ?atlTraceISAPI@ATL@@3V?$CTraceCategoryEx@$0EAAAAA@$0A@@1@A
_BSS	SEGMENT
?atlTraceISAPI@ATL@@3V?$CTraceCategoryEx@$0EAAAAA@$0A@@1@A DD 01H DUP (?) ; ATL::atlTraceISAPI
_BSS	ENDS
;	COMDAT ?_AtlComModule@ATL@@3VCAtlComModule@1@A
_BSS	SEGMENT
?_AtlComModule@ATL@@3VCAtlComModule@1@A DB 048H DUP (?)	; ATL::_AtlComModule
_BSS	ENDS
;	COMDAT ?_AtlWinModule@ATL@@3VCAtlWinModule@1@A
_BSS	SEGMENT
?_AtlWinModule@ATL@@3VCAtlWinModule@1@A DB 048H DUP (?)	; ATL::_AtlWinModule
_BSS	ENDS
;	COMDAT ?pfnRegDeleteKeyEx@?1??DeleteSubKey@CRegKey@ATL@@QEAAJPEB_W@Z@4P6AJPEAUHKEY__@@0KK@ZEA
_BSS	SEGMENT
?pfnRegDeleteKeyEx@?1??DeleteSubKey@CRegKey@ATL@@QEAAJPEB_W@Z@4P6AJPEAUHKEY__@@0KK@ZEA DQ 01H DUP (?) ; `ATL::CRegKey::DeleteSubKey'::`2'::pfnRegDeleteKeyEx
_BSS	ENDS
;	COMDAT ?bInitialized@?1??DeleteSubKey@CRegKey@ATL@@QEAAJPEB_W@Z@4_NA
_BSS	SEGMENT
?bInitialized@?1??DeleteSubKey@CRegKey@ATL@@QEAAJPEB_W@Z@4_NA DB 01H DUP (?) ; `ATL::CRegKey::DeleteSubKey'::`2'::bInitialized
_BSS	ENDS
_BSS	SEGMENT
?_Module@@3VCComModule@ATL@@A DB 050H DUP (?)		; _Module
_BSS	ENDS
;	COMDAT ?pConnMap@?$IConnectionPointContainerImpl@VCOPOSSoundPlayer@@@ATL@@0PEBU_ATL_CONNMAP_ENTRY@2@EB
_BSS	SEGMENT
?pConnMap@?$IConnectionPointContainerImpl@VCOPOSSoundPlayer@@@ATL@@0PEBU_ATL_CONNMAP_ENTRY@2@EB DQ 01H DUP (?) ; ATL::IConnectionPointContainerImpl<COPOSSoundPlayer>::pConnMap
_BSS	ENDS
;	COMDAT pdata
pdata	SEGMENT
$pdata$??_H@YAXPEAX_K1P6APEAX0@Z@Z DD imagerel $LN12
	DD	imagerel $LN12+72
	DD	imagerel $unwind$??_H@YAXPEAX_K1P6APEAX0@Z@Z
pdata	ENDS
;	COMDAT pdata
pdata	SEGMENT
$pdata$??_I@YAXPEAX_K1P6AX0@Z@Z DD imagerel $LN12
	DD	imagerel $LN12+79
	DD	imagerel $unwind$??_I@YAXPEAX_K1P6AX0@Z@Z
pdata	ENDS
;	COMDAT pdata
pdata	SEGMENT
$pdata$memcpy_s DD imagerel memcpy_s
	DD	imagerel memcpy_s+135
	DD	imagerel $unwind$memcpy_s
pdata	ENDS
;	COMDAT pdata
pdata	SEGMENT
$pdata$?AtlThrowImpl@ATL@@YAXJ@Z DD imagerel $LN8
	DD	imagerel $LN8+36
	DD	imagerel $unwind$?AtlThrowImpl@ATL@@YAXJ@Z
pdata	ENDS
;	COMDAT pdata
pdata	SEGMENT
$pdata$_vswprintf_s_l DD imagerel $LN4
	DD	imagerel $LN4+98
	DD	imagerel $unwind$_vswprintf_s_l
pdata	ENDS
;	COMDAT pdata
pdata	SEGMENT
$pdata$swprintf_s DD imagerel $LN6
	DD	imagerel $LN6+82
	DD	imagerel $unwind$swprintf_s
pdata	ENDS
;	COMDAT pdata
pdata	SEGMENT
$pdata$?memcpy_s@Checked@ATL@@YAXPEAX_KPEBX1@Z DD imagerel $LN27
	DD	imagerel $LN27+131
	DD	imagerel $unwind$?memcpy_s@Checked@ATL@@YAXPEAX_KPEBX1@Z
pdata	ENDS
;	COMDAT pdata
pdata	SEGMENT
$pdata$?_AtlVerifyStackAvailable@_ATL_SAFE_ALLOCA_IMPL@ATL@@YA_N_K@Z DD imagerel $LN19
	DD	imagerel $LN19+130
	DD	imagerel $unwind$?_AtlVerifyStackAvailable@_ATL_SAFE_ALLOCA_IMPL@ATL@@YA_N_K@Z
pdata	ENDS
;	COMDAT pdata
pdata	SEGMENT
$pdata$?filt$0@?0??_AtlVerifyStackAvailable@_ATL_SAFE_ALLOCA_IMPL@ATL@@YA_N_K@Z@4HA DD imagerel ?filt$0@?0??_AtlVerifyStackAvailable@_ATL_SAFE_ALLOCA_IMPL@ATL@@YA_N_K@Z@4HA
	DD	imagerel ?filt$0@?0??_AtlVerifyStackAvailable@_ATL_SAFE_ALLOCA_IMPL@ATL@@YA_N_K@Z@4HA+33
	DD	imagerel $unwind$?filt$0@?0??_AtlVerifyStackAvailable@_ATL_SAFE_ALLOCA_IMPL@ATL@@YA_N_K@Z@4HA
pdata	ENDS
;	COMDAT pdata
pdata	SEGMENT
$pdata$?ocscpy_s@@YA_NPEA_W_KPEB_W@Z DD imagerel $LN19
	DD	imagerel $LN19+176
	DD	imagerel $unwind$?ocscpy_s@@YA_NPEA_W_KPEB_W@Z
pdata	ENDS
;	COMDAT pdata
pdata	SEGMENT
$pdata$?Allocate@?$CAtlSafeAllocBufferManager@VCCRTAllocator@ATL@@@_ATL_SAFE_ALLOCA_IMPL@ATL@@QEAAPEAX_K@Z DD imagerel $LN18
	DD	imagerel $LN18+70
	DD	imagerel $unwind$?Allocate@?$CAtlSafeAllocBufferManager@VCCRTAllocator@ATL@@@_ATL_SAFE_ALLOCA_IMPL@ATL@@QEAAPEAX_K@Z
pdata	ENDS
;	COMDAT pdata
pdata	SEGMENT
$pdata$??1?$CAtlSafeAllocBufferManager@VCCRTAllocator@ATL@@@_ATL_SAFE_ALLOCA_IMPL@ATL@@QEAA@XZ DD imagerel $LN12
	DD	imagerel $LN12+41
	DD	imagerel $unwind$??1?$CAtlSafeAllocBufferManager@VCCRTAllocator@ATL@@@_ATL_SAFE_ALLOCA_IMPL@ATL@@QEAA@XZ
pdata	ENDS
;	COMDAT pdata
pdata	SEGMENT
$pdata$?AtlCrtErrorCheck@ATL@@YAHH@Z DD imagerel $LN12
	DD	imagerel $LN12+68
	DD	imagerel $unwind$?AtlCrtErrorCheck@ATL@@YAHH@Z
pdata	ENDS
;	COMDAT pdata
pdata	SEGMENT
$pdata$?wcscpy_s@Checked@ATL@@YAXPEA_W_KPEB_W@Z DD imagerel $LN15
	DD	imagerel $LN15+71
	DD	imagerel $unwind$?wcscpy_s@Checked@ATL@@YAXPEA_W_KPEB_W@Z
pdata	ENDS
;	COMDAT pdata
pdata	SEGMENT
$pdata$?wcsncpy_s@Checked@ATL@@YAHPEA_W_KPEB_W1@Z DD imagerel $LN15
	DD	imagerel $LN15+71
	DD	imagerel $unwind$?wcsncpy_s@Checked@ATL@@YAHPEA_W_KPEB_W1@Z
pdata	ENDS
;	COMDAT pdata
pdata	SEGMENT
$pdata$?tcsncpy_s@Checked@ATL@@YAHPEA_W_KPEB_W1@Z DD imagerel $LN15
	DD	imagerel $LN15+71
	DD	imagerel $unwind$?tcsncpy_s@Checked@ATL@@YAHPEA_W_KPEB_W1@Z
pdata	ENDS
;	COMDAT pdata
pdata	SEGMENT
$pdata$?wcscat_s@Checked@ATL@@YAXPEA_W_KPEB_W@Z DD imagerel $LN15
	DD	imagerel $LN15+71
	DD	imagerel $unwind$?wcscat_s@Checked@ATL@@YAXPEA_W_KPEB_W@Z
pdata	ENDS
;	COMDAT pdata
pdata	SEGMENT
$pdata$?Lock@CComCriticalSection@ATL@@QEAAJXZ DD imagerel $LN4
	DD	imagerel $LN4+17
	DD	imagerel $unwind$?Lock@CComCriticalSection@ATL@@QEAAJXZ
pdata	ENDS
;	COMDAT pdata
pdata	SEGMENT
$pdata$?Unlock@CComCriticalSection@ATL@@QEAAJXZ DD imagerel $LN4
	DD	imagerel $LN4+17
	DD	imagerel $unwind$?Unlock@CComCriticalSection@ATL@@QEAAJXZ
pdata	ENDS
;	COMDAT pdata
pdata	SEGMENT
$pdata$?Init@CComCriticalSection@ATL@@QEAAJXZ DD imagerel $LN9
	DD	imagerel $LN9+51
	DD	imagerel $unwind$?Init@CComCriticalSection@ATL@@QEAAJXZ
pdata	ENDS
;	COMDAT pdata
pdata	SEGMENT
$pdata$?Term@CComCriticalSection@ATL@@QEAAJXZ DD imagerel $LN4
	DD	imagerel $LN4+17
	DD	imagerel $unwind$?Term@CComCriticalSection@ATL@@QEAAJXZ
pdata	ENDS
;	COMDAT pdata
pdata	SEGMENT
$pdata$??1CComSafeDeleteCriticalSection@ATL@@QEAA@XZ DD imagerel $LN8
	DD	imagerel $LN8+25
	DD	imagerel $unwind$??1CComSafeDeleteCriticalSection@ATL@@QEAA@XZ
pdata	ENDS
;	COMDAT pdata
pdata	SEGMENT
$pdata$?Init@CComSafeDeleteCriticalSection@ATL@@QEAAJXZ DD imagerel $LN13
	DD	imagerel $LN13+71
	DD	imagerel $unwind$?Init@CComSafeDeleteCriticalSection@ATL@@QEAAJXZ
pdata	ENDS
;	COMDAT pdata
pdata	SEGMENT
$pdata$??1CComAutoDeleteCriticalSection@ATL@@QEAA@XZ DD imagerel $LN10
	DD	imagerel $LN10+25
	DD	imagerel $unwind$??1CComAutoDeleteCriticalSection@ATL@@QEAA@XZ
pdata	ENDS
;	COMDAT pdata
pdata	SEGMENT
$pdata$?AtlHresultFromLastError@ATL@@YAJXZ DD imagerel $LN6
	DD	imagerel $LN6+30
	DD	imagerel $unwind$?AtlHresultFromLastError@ATL@@YAJXZ
pdata	ENDS
;	COMDAT pdata
pdata	SEGMENT
$pdata$?AtlComQIPtrAssign2@ATL@@YAXPEAPEAUIUnknown@@PEAU2@AEBU_GUID@@@Z DD imagerel $LN7
	DD	imagerel $LN7+74
	DD	imagerel $unwind$?AtlComQIPtrAssign2@ATL@@YAXPEAPEAUIUnknown@@PEAU2@AEBU_GUID@@@Z
pdata	ENDS
;	COMDAT pdata
pdata	SEGMENT
$pdata$?AtlInternalOleLoadFromStream@ATL@@YAJPEAUIStream@@AEBU_GUID@@PEAPEAXTClassesAllowedInStream@1@K@Z DD imagerel $LN73
	DD	imagerel $LN73+321
	DD	imagerel $unwind$?AtlInternalOleLoadFromStream@ATL@@YAJPEAUIStream@@AEBU_GUID@@PEAPEAXTClassesAllowedInStream@1@K@Z
pdata	ENDS
;	COMDAT pdata
pdata	SEGMENT
$pdata$??1?$CComPtrBase@UIDispatch@@@ATL@@QEAA@XZ DD imagerel $LN5
	DD	imagerel $LN5+23
	DD	imagerel $unwind$??1?$CComPtrBase@UIDispatch@@@ATL@@QEAA@XZ
pdata	ENDS
;	COMDAT pdata
pdata	SEGMENT
$pdata$?Release@?$CComPtrBase@UIDispatch@@@ATL@@QEAAXXZ DD imagerel $LN5
	DD	imagerel $LN5+30
	DD	imagerel $unwind$?Release@?$CComPtrBase@UIDispatch@@@ATL@@QEAAXXZ
pdata	ENDS
;	COMDAT pdata
pdata	SEGMENT
$pdata$?GetProperty@?$CComPtr@UIDispatch@@@ATL@@QEAAJJPEAUtagVARIANT@@@Z DD imagerel $LN8
	DD	imagerel $LN8+109
	DD	imagerel $unwind$?GetProperty@?$CComPtr@UIDispatch@@@ATL@@QEAAJJPEAUtagVARIANT@@@Z
pdata	ENDS
;	COMDAT pdata
pdata	SEGMENT
$pdata$?PutProperty@?$CComPtr@UIDispatch@@@ATL@@SAJPEAUIDispatch@@JPEAUtagVARIANT@@@Z DD imagerel $LN10
	DD	imagerel $LN10+258
	DD	imagerel $unwind$?PutProperty@?$CComPtr@UIDispatch@@@ATL@@SAJPEAUIDispatch@@JPEAUtagVARIANT@@@Z
pdata	ENDS
;	COMDAT pdata
pdata	SEGMENT
$pdata$?GetProperty@?$CComPtr@UIDispatch@@@ATL@@SAJPEAUIDispatch@@JPEAUtagVARIANT@@@Z DD imagerel $LN6
	DD	imagerel $LN6+106
	DD	imagerel $unwind$?GetProperty@?$CComPtr@UIDispatch@@@ATL@@SAJPEAUIDispatch@@JPEAUtagVARIANT@@@Z
pdata	ENDS
;	COMDAT pdata
pdata	SEGMENT
$pdata$??1?$CComPtr@UIDispatch@@@ATL@@QEAA@XZ DD imagerel $LN8
	DD	imagerel $LN8+23
	DD	imagerel $unwind$??1?$CComPtr@UIDispatch@@@ATL@@QEAA@XZ
pdata	ENDS
;	COMDAT pdata
pdata	SEGMENT
$pdata$??0?$CComPtrBase@UIUnknown@@@ATL@@IEAA@PEAUIUnknown@@@Z DD imagerel $LN5
	DD	imagerel $LN5+35
	DD	imagerel $unwind$??0?$CComPtrBase@UIUnknown@@@ATL@@IEAA@PEAUIUnknown@@@Z
pdata	ENDS
;	COMDAT pdata
pdata	SEGMENT
$pdata$??1?$CComPtrBase@UIUnknown@@@ATL@@QEAA@XZ DD imagerel $LN5
	DD	imagerel $LN5+23
	DD	imagerel $unwind$??1?$CComPtrBase@UIUnknown@@@ATL@@QEAA@XZ
pdata	ENDS
;	COMDAT pdata
pdata	SEGMENT
$pdata$??0?$CComPtr@UIUnknown@@@ATL@@QEAA@PEAUIUnknown@@@Z DD imagerel $LN8
	DD	imagerel $LN8+35
	DD	imagerel $unwind$??0?$CComPtr@UIUnknown@@@ATL@@QEAA@PEAUIUnknown@@@Z
pdata	ENDS
;	COMDAT pdata
pdata	SEGMENT
$pdata$??0?$CComPtr@UIUnknown@@@ATL@@QEAA@AEBV01@@Z DD imagerel $LN8
	DD	imagerel $LN8+35
	DD	imagerel $unwind$??0?$CComPtr@UIUnknown@@@ATL@@QEAA@AEBV01@@Z
pdata	ENDS
;	COMDAT pdata
pdata	SEGMENT
$pdata$??4?$CComPtr@UIUnknown@@@ATL@@QEAAPEAUIUnknown@@PEAU2@@Z DD imagerel $LN18
	DD	imagerel $LN18+75
	DD	imagerel $unwind$??4?$CComPtr@UIUnknown@@@ATL@@QEAAPEAUIUnknown@@PEAU2@@Z
pdata	ENDS
;	COMDAT pdata
pdata	SEGMENT
$pdata$??1?$CComPtr@UIUnknown@@@ATL@@QEAA@XZ DD imagerel $LN8
	DD	imagerel $LN8+23
	DD	imagerel $unwind$??1?$CComPtr@UIUnknown@@@ATL@@QEAA@XZ
pdata	ENDS
;	COMDAT pdata
pdata	SEGMENT
$pdata$?Attach@CComBSTR@ATL@@QEAAXPEA_W@Z DD imagerel $LN5
	DD	imagerel $LN5+44
	DD	imagerel $unwind$?Attach@CComBSTR@ATL@@QEAAXPEA_W@Z
pdata	ENDS
;	COMDAT pdata
pdata	SEGMENT
$pdata$?Empty@CComBSTR@ATL@@QEAAXXZ DD imagerel $LN4
	DD	imagerel $LN4+28
	DD	imagerel $unwind$?Empty@CComBSTR@ATL@@QEAAXXZ
pdata	ENDS
;	COMDAT pdata
pdata	SEGMENT
$pdata$?WriteToStream@CComBSTR@ATL@@QEAAJPEAUIStream@@@Z DD imagerel $LN10
	DD	imagerel $LN10+128
	DD	imagerel $unwind$?WriteToStream@CComBSTR@ATL@@QEAAJPEAUIStream@@@Z
pdata	ENDS
;	COMDAT pdata
pdata	SEGMENT
$pdata$?ReadFromStream@CComBSTR@ATL@@QEAAJPEAUIStream@@@Z DD imagerel $LN31
	DD	imagerel $LN31+334
	DD	imagerel $unwind$?ReadFromStream@CComBSTR@ATL@@QEAAJPEAUIStream@@@Z
pdata	ENDS
;	COMDAT pdata
pdata	SEGMENT
$pdata$?GetStreamSize@CComBSTR@ATL@@SAKPEA_W@Z DD imagerel $LN5
	DD	imagerel $LN5+28
	DD	imagerel $unwind$?GetStreamSize@CComBSTR@ATL@@SAKPEA_W@Z
pdata	ENDS
;	COMDAT pdata
pdata	SEGMENT
$pdata$??0CComVariant@ATL@@QEAA@XZ DD imagerel $LN4
	DD	imagerel $LN4+36
	DD	imagerel $unwind$??0CComVariant@ATL@@QEAA@XZ
pdata	ENDS
;	COMDAT pdata
pdata	SEGMENT
$pdata$?WriteToStream@CComVariant@ATL@@QEAAJPEAUIStream@@@Z DD imagerel $LN88
	DD	imagerel $LN88+634
	DD	imagerel $unwind$?WriteToStream@CComVariant@ATL@@QEAAJPEAUIStream@@@Z
pdata	ENDS
;	COMDAT pdata
pdata	SEGMENT
$pdata$?WriteToStream@CComVariant@ATL@@QEAAJPEAUIStream@@G@Z DD imagerel $LN21
	DD	imagerel $LN21+149
	DD	imagerel $unwind$?WriteToStream@CComVariant@ATL@@QEAAJPEAUIStream@@G@Z
pdata	ENDS
;	COMDAT pdata
pdata	SEGMENT
$pdata$?ReadFromStream@CComVariant@ATL@@QEAAJPEAUIStream@@GTClassesAllowedInStream@2@K@Z DD imagerel $LN41
	DD	imagerel $LN41+545
	DD	imagerel $unwind$?ReadFromStream@CComVariant@ATL@@QEAAJPEAUIStream@@GTClassesAllowedInStream@2@K@Z
pdata	ENDS
;	COMDAT pdata
pdata	SEGMENT
$pdata$?GetSizeMax@CComVariant@ATL@@QEBAJPEAT_ULARGE_INTEGER@@@Z DD imagerel $LN57
	DD	imagerel $LN57+560
	DD	imagerel $unwind$?GetSizeMax@CComVariant@ATL@@QEBAJPEAT_ULARGE_INTEGER@@@Z
pdata	ENDS
;	COMDAT pdata
pdata	SEGMENT
$pdata$??1?$CComPtrBase@UIPersistStream@@@ATL@@QEAA@XZ DD imagerel $LN5
	DD	imagerel $LN5+23
	DD	imagerel $unwind$??1?$CComPtrBase@UIPersistStream@@@ATL@@QEAA@XZ
pdata	ENDS
;	COMDAT pdata
pdata	SEGMENT
$pdata$??1?$CComPtr@UIPersistStream@@@ATL@@QEAA@XZ DD imagerel $LN8
	DD	imagerel $LN8+23
	DD	imagerel $unwind$??1?$CComPtr@UIPersistStream@@@ATL@@QEAA@XZ
pdata	ENDS
;	COMDAT pdata
pdata	SEGMENT
$pdata$?RegCreateKeyExW@CAtlTransactionManager@ATL@@QEAAJPEAUHKEY__@@PEB_WKPEA_WKKQEAU_SECURITY_ATTRIBUTES@@PEAPEAU3@PEAK@Z DD imagerel $LN9
	DD	imagerel $LN9+308
	DD	imagerel $unwind$?RegCreateKeyExW@CAtlTransactionManager@ATL@@QEAAJPEAUHKEY__@@PEB_WKPEA_WKKQEAU_SECURITY_ATTRIBUTES@@PEAPEAU3@PEAK@Z
pdata	ENDS
;	COMDAT pdata
pdata	SEGMENT
$pdata$?RegOpenKeyExW@CAtlTransactionManager@ATL@@QEAAJPEAUHKEY__@@PEB_WKKPEAPEAU3@@Z DD imagerel $LN9
	DD	imagerel $LN9+183
	DD	imagerel $unwind$?RegOpenKeyExW@CAtlTransactionManager@ATL@@QEAAJPEAUHKEY__@@PEB_WKKPEAPEAU3@@Z
pdata	ENDS
;	COMDAT pdata
pdata	SEGMENT
$pdata$?RegDeleteKeyW@CAtlTransactionManager@ATL@@QEAAJPEAUHKEY__@@PEB_W@Z DD imagerel $LN9
	DD	imagerel $LN9+140
	DD	imagerel $unwind$?RegDeleteKeyW@CAtlTransactionManager@ATL@@QEAAJPEAUHKEY__@@PEB_W@Z
pdata	ENDS
;	COMDAT pdata
pdata	SEGMENT
$pdata$??1?$CSimpleArray@GV?$CSimpleArrayEqualHelper@G@ATL@@@ATL@@QEAA@XZ DD imagerel $LN14
	DD	imagerel $LN14+40
	DD	imagerel $unwind$??1?$CSimpleArray@GV?$CSimpleArrayEqualHelper@G@ATL@@@ATL@@QEAA@XZ
pdata	ENDS
;	COMDAT pdata
pdata	SEGMENT
$pdata$?Add@?$CSimpleArray@GV?$CSimpleArrayEqualHelper@G@ATL@@@ATL@@QEAAHAEBG@Z DD imagerel $LN31
	DD	imagerel $LN31+179
	DD	imagerel $unwind$?Add@?$CSimpleArray@GV?$CSimpleArrayEqualHelper@G@ATL@@@ATL@@QEAAHAEBG@Z
pdata	ENDS
;	COMDAT pdata
pdata	SEGMENT
$pdata$?RemoveAll@?$CSimpleArray@GV?$CSimpleArrayEqualHelper@G@ATL@@@ATL@@QEAAXXZ DD imagerel $LN12
	DD	imagerel $LN12+40
	DD	imagerel $unwind$?RemoveAll@?$CSimpleArray@GV?$CSimpleArrayEqualHelper@G@ATL@@@ATL@@QEAAXXZ
pdata	ENDS
;	COMDAT pdata
pdata	SEGMENT
$pdata$??A?$CSimpleArray@GV?$CSimpleArrayEqualHelper@G@ATL@@@ATL@@QEAAAEAGH@Z DD imagerel $LN7
	DD	imagerel $LN7+44
	DD	imagerel $unwind$??A?$CSimpleArray@GV?$CSimpleArrayEqualHelper@G@ATL@@@ATL@@QEAAAEAGH@Z
pdata	ENDS
;	COMDAT pdata
pdata	SEGMENT
$pdata$??1_ATL_WIN_MODULE70@ATL@@QEAA@XZ DD imagerel $LN17
	DD	imagerel $LN17+42
	DD	imagerel $unwind$??1_ATL_WIN_MODULE70@ATL@@QEAA@XZ
pdata	ENDS
;	COMDAT pdata
pdata	SEGMENT
$pdata$?AtlInternalQueryInterface@ATL@@YAJPEAXPEBU_ATL_INTMAP_ENTRY@1@AEBU_GUID@@PEAPEAX@Z DD imagerel $LN36
	DD	imagerel $LN36+264
	DD	imagerel $unwind$?AtlInternalQueryInterface@ATL@@YAJPEAXPEBU_ATL_INTMAP_ENTRY@1@AEBU_GUID@@PEAPEAX@Z
pdata	ENDS
;	COMDAT pdata
pdata	SEGMENT
$pdata$?AtlComModuleGetClassObject@ATL@@YAJPEAU_ATL_COM_MODULE70@1@AEBU_GUID@@1PEAPEAX@Z DD imagerel $LN77
	DD	imagerel $LN77+319
	DD	imagerel $unwind$?AtlComModuleGetClassObject@ATL@@YAJPEAU_ATL_COM_MODULE70@1@AEBU_GUID@@1PEAPEAX@Z
pdata	ENDS
;	COMDAT pdata
pdata	SEGMENT
$pdata$?AtlRegisterClassCategoriesHelper@ATL@@YAJAEBU_GUID@@PEBU_ATL_CATMAP_ENTRY@1@H@Z DD imagerel $LN206
	DD	imagerel $LN206+1155
	DD	imagerel $unwind$?AtlRegisterClassCategoriesHelper@ATL@@YAJAEBU_GUID@@PEBU_ATL_CATMAP_ENTRY@1@H@Z
pdata	ENDS
;	COMDAT pdata
pdata	SEGMENT
$pdata$?AtlLoadTypeLib@ATL@@YAJPEAUHINSTANCE__@@PEB_WPEAPEA_WPEAPEAUITypeLib@@@Z DD imagerel $LN110
	DD	imagerel $LN110+601
	DD	imagerel $unwind$?AtlLoadTypeLib@ATL@@YAJPEAUHINSTANCE__@@PEB_WPEAPEA_WPEAPEAUITypeLib@@@Z
pdata	ENDS
;	COMDAT pdata
pdata	SEGMENT
$pdata$?AtlRegisterTypeLib@ATL@@YAJPEAUHINSTANCE__@@PEB_W@Z DD imagerel $LN80
	DD	imagerel $LN80+506
	DD	imagerel $unwind$?AtlRegisterTypeLib@ATL@@YAJPEAUHINSTANCE__@@PEB_W@Z
pdata	ENDS
;	COMDAT pdata
pdata	SEGMENT
$pdata$?AtlUnRegisterTypeLib@ATL@@YAJPEAUHINSTANCE__@@PEB_W@Z DD imagerel $LN36
	DD	imagerel $LN36+198
	DD	imagerel $unwind$?AtlUnRegisterTypeLib@ATL@@YAJPEAUHINSTANCE__@@PEB_W@Z
pdata	ENDS
;	COMDAT pdata
pdata	SEGMENT
$pdata$?AtlComModuleRegisterServer@ATL@@YAJPEAU_ATL_COM_MODULE70@1@HPEBU_GUID@@@Z DD imagerel $LN28
	DD	imagerel $LN28+191
	DD	imagerel $unwind$?AtlComModuleRegisterServer@ATL@@YAJPEAU_ATL_COM_MODULE70@1@HPEBU_GUID@@@Z
pdata	ENDS
;	COMDAT pdata
pdata	SEGMENT
$pdata$?AtlComModuleUnregisterServer@ATL@@YAJPEAU_ATL_COM_MODULE70@1@HPEBU_GUID@@@Z DD imagerel $LN25
	DD	imagerel $LN25+185
	DD	imagerel $unwind$?AtlComModuleUnregisterServer@ATL@@YAJPEAU_ATL_COM_MODULE70@1@HPEBU_GUID@@@Z
pdata	ENDS
;	COMDAT pdata
pdata	SEGMENT
$pdata$?AtlModuleAddTermFunc@ATL@@YAJPEAU_ATL_MODULE70@1@P6AX_K@Z1@Z DD imagerel $LN43
	DD	imagerel $LN43+148
	DD	imagerel $unwind$?AtlModuleAddTermFunc@ATL@@YAJPEAU_ATL_MODULE70@1@P6AX_K@Z1@Z
pdata	ENDS
;	COMDAT pdata
pdata	SEGMENT
$pdata$?AtlCallTermFunc@ATL@@YAXPEAU_ATL_MODULE70@1@@Z DD imagerel $LN13
	DD	imagerel $LN13+100
	DD	imagerel $unwind$?AtlCallTermFunc@ATL@@YAXPEAU_ATL_MODULE70@1@@Z
pdata	ENDS
;	COMDAT pdata
pdata	SEGMENT
$pdata$?AtlWinModuleInit@ATL@@YAJPEAU_ATL_WIN_MODULE70@1@@Z DD imagerel $LN15
	DD	imagerel $LN15+76
	DD	imagerel $unwind$?AtlWinModuleInit@ATL@@YAJPEAU_ATL_WIN_MODULE70@1@@Z
pdata	ENDS
;	COMDAT pdata
pdata	SEGMENT
$pdata$?AtlWinModuleTerm@ATL@@YAJPEAU_ATL_WIN_MODULE70@1@PEAUHINSTANCE__@@@Z DD imagerel $LN35
	DD	imagerel $LN35+176
	DD	imagerel $unwind$?AtlWinModuleTerm@ATL@@YAJPEAU_ATL_WIN_MODULE70@1@PEAUHINSTANCE__@@@Z
pdata	ENDS
;	COMDAT pdata
pdata	SEGMENT
$pdata$?AtlWinModuleAddCreateWndData@ATL@@YAXPEAU_ATL_WIN_MODULE70@1@PEAU_AtlCreateWndData@1@PEAX@Z DD imagerel $LN53
	DD	imagerel $LN53+112
	DD	imagerel $unwind$?AtlWinModuleAddCreateWndData@ATL@@YAXPEAU_ATL_WIN_MODULE70@1@PEAU_AtlCreateWndData@1@PEAX@Z
pdata	ENDS
;	COMDAT pdata
pdata	SEGMENT
$pdata$?AtlWinModuleExtractCreateWndData@ATL@@YAPEAXPEAU_ATL_WIN_MODULE70@1@@Z DD imagerel $LN62
	DD	imagerel $LN62+138
	DD	imagerel $unwind$?AtlWinModuleExtractCreateWndData@ATL@@YAPEAXPEAU_ATL_WIN_MODULE70@1@@Z
pdata	ENDS
;	COMDAT pdata
pdata	SEGMENT
$pdata$??1CRegKey@ATL@@QEAA@XZ DD imagerel $LN7
	DD	imagerel $LN7+37
	DD	imagerel $unwind$??1CRegKey@ATL@@QEAA@XZ
pdata	ENDS
;	COMDAT pdata
pdata	SEGMENT
$pdata$?SetDWORDValue@CRegKey@ATL@@QEAAJPEB_WK@Z DD imagerel $LN7
	DD	imagerel $LN7+46
	DD	imagerel $unwind$?SetDWORDValue@CRegKey@ATL@@QEAAJPEB_WK@Z
pdata	ENDS
;	COMDAT pdata
pdata	SEGMENT
$pdata$?SetStringValue@CRegKey@ATL@@QEAAJPEB_W0K@Z DD imagerel $LN12
	DD	imagerel $LN12+65
	DD	imagerel $unwind$?SetStringValue@CRegKey@ATL@@QEAAJPEB_W0K@Z
pdata	ENDS
;	COMDAT pdata
pdata	SEGMENT
$pdata$?SetMultiStringValue@CRegKey@ATL@@QEAAJPEB_W0@Z DD imagerel $LN18
	DD	imagerel $LN18+93
	DD	imagerel $unwind$?SetMultiStringValue@CRegKey@ATL@@QEAAJPEB_W0@Z
pdata	ENDS
;	COMDAT pdata
pdata	SEGMENT
$pdata$?atlCreate@CRegKey@ATL@@QEAAJPEAUHKEY__@@PEB_WPEA_WKKPEAU_SECURITY_ATTRIBUTES@@PEAK@Z DD imagerel $LN12
	DD	imagerel $LN12+235
	DD	imagerel $unwind$?atlCreate@CRegKey@ATL@@QEAAJPEAUHKEY__@@PEB_WPEA_WKKPEAU_SECURITY_ATTRIBUTES@@PEAK@Z
pdata	ENDS
;	COMDAT pdata
pdata	SEGMENT
$pdata$?Open@CRegKey@ATL@@QEAAJPEAUHKEY__@@PEB_WK@Z DD imagerel $LN14
	DD	imagerel $LN14+140
	DD	imagerel $unwind$?Open@CRegKey@ATL@@QEAAJPEAUHKEY__@@PEB_WK@Z
pdata	ENDS
;	COMDAT pdata
pdata	SEGMENT
$pdata$?Close@CRegKey@ATL@@QEAAJXZ DD imagerel $LN5
	DD	imagerel $LN5+39
	DD	imagerel $unwind$?Close@CRegKey@ATL@@QEAAJXZ
pdata	ENDS
;	COMDAT pdata
pdata	SEGMENT
$pdata$?DeleteSubKey@CRegKey@ATL@@QEAAJPEB_W@Z DD imagerel $LN13
	DD	imagerel $LN13+152
	DD	imagerel $unwind$?DeleteSubKey@CRegKey@ATL@@QEAAJPEB_W@Z
pdata	ENDS
;	COMDAT pdata
pdata	SEGMENT
$pdata$?RecurseDeleteKey@CRegKey@ATL@@QEAAJPEB_W@Z DD imagerel $LN52
	DD	imagerel $LN52+341
	DD	imagerel $unwind$?RecurseDeleteKey@CRegKey@ATL@@QEAAJPEB_W@Z
pdata	ENDS
;	COMDAT pdata
pdata	SEGMENT
$pdata$??0CAtlComModule@ATL@@QEAA@XZ DD imagerel $LN17
	DD	imagerel $LN17+127
	DD	imagerel $unwind$??0CAtlComModule@ATL@@QEAA@XZ
pdata	ENDS
;	COMDAT pdata
pdata	SEGMENT
$pdata$?Term@CAtlComModule@ATL@@QEAAXXZ DD imagerel $LN16
	DD	imagerel $LN16+111
	DD	imagerel $unwind$?Term@CAtlComModule@ATL@@QEAAXXZ
pdata	ENDS
;	COMDAT pdata
pdata	SEGMENT
$pdata$??__E_AtlComModule@ATL@@YAXXZ DD imagerel ??__E_AtlComModule@ATL@@YAXXZ
	DD	imagerel ??__E_AtlComModule@ATL@@YAXXZ+32
	DD	imagerel $unwind$??__E_AtlComModule@ATL@@YAXXZ
pdata	ENDS
;	COMDAT pdata
pdata	SEGMENT
$pdata$??0CAtlWinModule@ATL@@QEAA@XZ DD imagerel $LN24
	DD	imagerel $LN24+107
	DD	imagerel $unwind$??0CAtlWinModule@ATL@@QEAA@XZ
pdata	ENDS
;	COMDAT pdata
pdata	SEGMENT
$pdata$??1CAtlWinModule@ATL@@QEAA@XZ DD imagerel $LN21
	DD	imagerel $LN21+54
	DD	imagerel $unwind$??1CAtlWinModule@ATL@@QEAA@XZ
pdata	ENDS
;	COMDAT pdata
pdata	SEGMENT
$pdata$?AddCreateWndData@CAtlWinModule@ATL@@QEAAXPEAU_AtlCreateWndData@2@PEAX@Z DD imagerel $LN56
	DD	imagerel $LN56+112
	DD	imagerel $unwind$?AddCreateWndData@CAtlWinModule@ATL@@QEAAXPEAU_AtlCreateWndData@2@PEAX@Z
pdata	ENDS
;	COMDAT pdata
pdata	SEGMENT
$pdata$??__E_AtlWinModule@ATL@@YAXXZ DD imagerel ??__E_AtlWinModule@ATL@@YAXXZ
	DD	imagerel ??__E_AtlWinModule@ATL@@YAXXZ+32
	DD	imagerel $unwind$??__E_AtlWinModule@ATL@@YAXXZ
pdata	ENDS
;	COMDAT pdata
pdata	SEGMENT
$pdata$??__F_AtlWinModule@ATL@@YAXXZ DD imagerel ??__F_AtlWinModule@ATL@@YAXXZ
	DD	imagerel ??__F_AtlWinModule@ATL@@YAXXZ+67
	DD	imagerel $unwind$??__F_AtlWinModule@ATL@@YAXXZ
pdata	ENDS
;	COMDAT pdata
pdata	SEGMENT
$pdata$??0CAtlModule@ATL@@QEAA@XZ DD imagerel $LN17
	DD	imagerel $LN17+114
	DD	imagerel $unwind$??0CAtlModule@ATL@@QEAA@XZ
pdata	ENDS
;	COMDAT pdata
pdata	SEGMENT
$pdata$?Term@CAtlModule@ATL@@QEAAXXZ DD imagerel $LN21
	DD	imagerel $LN21+126
	DD	imagerel $unwind$?Term@CAtlModule@ATL@@QEAAXXZ
pdata	ENDS
;	COMDAT pdata
pdata	SEGMENT
$pdata$?AddTermFunc@CAtlModule@ATL@@QEAAJP6AX_K@Z0@Z DD imagerel $LN48
	DD	imagerel $LN48+155
	DD	imagerel $unwind$?AddTermFunc@CAtlModule@ATL@@QEAAJP6AX_K@Z0@Z
pdata	ENDS
;	COMDAT pdata
pdata	SEGMENT
$pdata$?GetGITPtr@CAtlModule@ATL@@UEAAJPEAPEAUIGlobalInterfaceTable@@@Z DD imagerel $LN11
	DD	imagerel $LN11+111
	DD	imagerel $unwind$?GetGITPtr@CAtlModule@ATL@@UEAAJPEAPEAUIGlobalInterfaceTable@@@Z
pdata	ENDS
;	COMDAT pdata
pdata	SEGMENT
$pdata$?UpdateRegistryFromResource@CAtlModule@ATL@@QEAAJPEB_WHPEAU_ATL_REGMAP_ENTRY@2@@Z DD imagerel $LN399
	DD	imagerel $LN399+804
	DD	imagerel $unwind$?UpdateRegistryFromResource@CAtlModule@ATL@@QEAAJPEB_WHPEAU_ATL_REGMAP_ENTRY@2@@Z
pdata	ENDS
;	COMDAT pdata
pdata	SEGMENT
$pdata$?UpdateRegistryFromResource@CAtlModule@ATL@@QEAAJIHPEAU_ATL_REGMAP_ENTRY@2@@Z DD imagerel $LN367
	DD	imagerel $LN367+777
	DD	imagerel $unwind$?UpdateRegistryFromResource@CAtlModule@ATL@@QEAAJIHPEAU_ATL_REGMAP_ENTRY@2@@Z
pdata	ENDS
;	COMDAT pdata
pdata	SEGMENT
$pdata$??0?$CAtlModuleT@VCComModule@ATL@@@ATL@@QEAA@XZ DD imagerel $LN5
	DD	imagerel $LN5+23
	DD	imagerel $unwind$??0?$CAtlModuleT@VCComModule@ATL@@@ATL@@QEAA@XZ
pdata	ENDS
;	COMDAT pdata
pdata	SEGMENT
$pdata$?RegisterServer@?$CAtlModuleT@VCComModule@ATL@@@ATL@@QEAAJHPEBU_GUID@@@Z DD imagerel $LN7
	DD	imagerel $LN7+46
	DD	imagerel $unwind$?RegisterServer@?$CAtlModuleT@VCComModule@ATL@@@ATL@@QEAAJHPEBU_GUID@@@Z
pdata	ENDS
;	COMDAT pdata
pdata	SEGMENT
$pdata$?UnregisterServer@?$CAtlModuleT@VCComModule@ATL@@@ATL@@QEAAJHPEBU_GUID@@@Z DD imagerel $LN9
	DD	imagerel $LN9+61
	DD	imagerel $unwind$?UnregisterServer@?$CAtlModuleT@VCComModule@ATL@@@ATL@@QEAAJHPEBU_GUID@@@Z
pdata	ENDS
;	COMDAT pdata
pdata	SEGMENT
$pdata$??0CComModule@ATL@@QEAA@XZ DD imagerel $LN7
	DD	imagerel $LN7+40
	DD	imagerel $unwind$??0CComModule@ATL@@QEAA@XZ
pdata	ENDS
;	COMDAT pdata
pdata	SEGMENT
$pdata$?Init@CComModule@ATL@@QEAAJPEAU_ATL_OBJMAP_ENTRY30@2@PEAUHINSTANCE__@@PEBU_GUID@@@Z DD imagerel $LN22
	DD	imagerel $LN22+115
	DD	imagerel $unwind$?Init@CComModule@ATL@@QEAAJPEAU_ATL_OBJMAP_ENTRY30@2@PEAUHINSTANCE__@@PEBU_GUID@@@Z
pdata	ENDS
;	COMDAT pdata
pdata	SEGMENT
$pdata$?Term@CComModule@ATL@@QEAAXXZ DD imagerel $LN22
	DD	imagerel $LN22+122
	DD	imagerel $unwind$?Term@CComModule@ATL@@QEAAXXZ
pdata	ENDS
;	COMDAT pdata
pdata	SEGMENT
$pdata$?GetClassObject@CComModule@ATL@@QEAAJAEBU_GUID@@0PEAPEAX@Z DD imagerel $LN71
	DD	imagerel $LN71+242
	DD	imagerel $unwind$?GetClassObject@CComModule@ATL@@QEAAJAEBU_GUID@@0PEAPEAX@Z
pdata	ENDS
;	COMDAT pdata
pdata	SEGMENT
$pdata$?RegisterServer@CComModule@ATL@@QEAAJHPEBU_GUID@@@Z DD imagerel $LN28
	DD	imagerel $LN28+189
	DD	imagerel $unwind$?RegisterServer@CComModule@ATL@@QEAAJHPEBU_GUID@@@Z
pdata	ENDS
;	COMDAT pdata
pdata	SEGMENT
$pdata$?UnregisterServer@CComModule@ATL@@QEAAJHPEBU_GUID@@@Z DD imagerel $LN30
	DD	imagerel $LN30+176
	DD	imagerel $unwind$?UnregisterServer@CComModule@ATL@@QEAAJHPEBU_GUID@@@Z
pdata	ENDS
;	COMDAT pdata
pdata	SEGMENT
$pdata$??_GCComModule@ATL@@UEAAPEAXI@Z DD imagerel $LN12
	DD	imagerel $LN12+62
	DD	imagerel $unwind$??_GCComModule@ATL@@UEAAPEAXI@Z
pdata	ENDS
;	COMDAT pdata
pdata	SEGMENT
$pdata$?IsEqualKey@CExpansionVectorEqualHelper@ATL@@SA_NQEA_W0@Z DD imagerel $LN5
	DD	imagerel $LN5+20
	DD	imagerel $unwind$?IsEqualKey@CExpansionVectorEqualHelper@ATL@@SA_NQEA_W0@Z
pdata	ENDS
;	COMDAT pdata
pdata	SEGMENT
$pdata$??1?$CSimpleMap@PEA_WPEA_WVCExpansionVectorEqualHelper@ATL@@@ATL@@QEAA@XZ DD imagerel $LN15
	DD	imagerel $LN15+55
	DD	imagerel $unwind$??1?$CSimpleMap@PEA_WPEA_WVCExpansionVectorEqualHelper@ATL@@@ATL@@QEAA@XZ
pdata	ENDS
;	COMDAT pdata
pdata	SEGMENT
$pdata$?Add@?$CSimpleMap@PEA_WPEA_WVCExpansionVectorEqualHelper@ATL@@@ATL@@QEAAHAEBQEA_W0@Z DD imagerel $LN17
	DD	imagerel $LN17+158
	DD	imagerel $unwind$?Add@?$CSimpleMap@PEA_WPEA_WVCExpansionVectorEqualHelper@ATL@@@ATL@@QEAAHAEBQEA_W0@Z
pdata	ENDS
;	COMDAT pdata
pdata	SEGMENT
$pdata$?RemoveAll@?$CSimpleMap@PEA_WPEA_WVCExpansionVectorEqualHelper@ATL@@@ATL@@QEAAXXZ DD imagerel $LN13
	DD	imagerel $LN13+55
	DD	imagerel $unwind$?RemoveAll@?$CSimpleMap@PEA_WPEA_WVCExpansionVectorEqualHelper@ATL@@@ATL@@QEAAXXZ
pdata	ENDS
;	COMDAT pdata
pdata	SEGMENT
$pdata$?Lookup@?$CSimpleMap@PEA_WPEA_WVCExpansionVectorEqualHelper@ATL@@@ATL@@QEBAPEA_WAEBQEA_W@Z DD imagerel $LN28
	DD	imagerel $LN28+134
	DD	imagerel $unwind$?Lookup@?$CSimpleMap@PEA_WPEA_WVCExpansionVectorEqualHelper@ATL@@@ATL@@QEBAPEA_WAEBQEA_W@Z
pdata	ENDS
;	COMDAT pdata
pdata	SEGMENT
$pdata$?GetKeyAt@?$CSimpleMap@PEA_WPEA_WVCExpansionVectorEqualHelper@ATL@@@ATL@@QEBAAEAPEA_WH@Z DD imagerel $LN7
	DD	imagerel $LN7+44
	DD	imagerel $unwind$?GetKeyAt@?$CSimpleMap@PEA_WPEA_WVCExpansionVectorEqualHelper@ATL@@@ATL@@QEBAAEAPEA_WH@Z
pdata	ENDS
;	COMDAT pdata
pdata	SEGMENT
$pdata$?GetValueAt@?$CSimpleMap@PEA_WPEA_WVCExpansionVectorEqualHelper@ATL@@@ATL@@QEBAAEAPEA_WH@Z DD imagerel $LN7
	DD	imagerel $LN7+45
	DD	imagerel $unwind$?GetValueAt@?$CSimpleMap@PEA_WPEA_WVCExpansionVectorEqualHelper@ATL@@@ATL@@QEBAAEAPEA_WH@Z
pdata	ENDS
;	COMDAT pdata
pdata	SEGMENT
$pdata$?FindKey@?$CSimpleMap@PEA_WPEA_WVCExpansionVectorEqualHelper@ATL@@@ATL@@QEBAHAEBQEA_W@Z DD imagerel $LN18
	DD	imagerel $LN18+96
	DD	imagerel $unwind$?FindKey@?$CSimpleMap@PEA_WPEA_WVCExpansionVectorEqualHelper@ATL@@@ATL@@QEBAHAEBQEA_W@Z
pdata	ENDS
;	COMDAT pdata
pdata	SEGMENT
$pdata$??1CExpansionVector@ATL@@QEAA@XZ DD imagerel $LN18
	DD	imagerel $LN18+60
	DD	imagerel $unwind$??1CExpansionVector@ATL@@QEAA@XZ
pdata	ENDS
;	COMDAT pdata
pdata	SEGMENT
$pdata$?Add@CExpansionVector@ATL@@QEAAHPEB_W0@Z DD imagerel $LN78
	DD	imagerel $LN78+305
	DD	imagerel $unwind$?Add@CExpansionVector@ATL@@QEAAHPEB_W0@Z
pdata	ENDS
;	COMDAT pdata
pdata	SEGMENT
$pdata$?ClearReplacements@CExpansionVector@ATL@@QEAAJXZ DD imagerel $LN34
	DD	imagerel $LN34+155
	DD	imagerel $unwind$?ClearReplacements@CExpansionVector@ATL@@QEAAJXZ
pdata	ENDS
;	COMDAT pdata
pdata	SEGMENT
$pdata$??1?$CAutoVectorPtr@_W@ATL@@QEAA@XZ DD imagerel $LN6
	DD	imagerel $LN6+27
	DD	imagerel $unwind$??1?$CAutoVectorPtr@_W@ATL@@QEAA@XZ
pdata	ENDS
;	COMDAT pdata
pdata	SEGMENT
$pdata$?Free@?$CAutoVectorPtr@_W@ATL@@QEAAXXZ DD imagerel $LN4
	DD	imagerel $LN4+27
	DD	imagerel $unwind$?Free@?$CAutoVectorPtr@_W@ATL@@QEAAXXZ
pdata	ENDS
;	COMDAT pdata
pdata	SEGMENT
$pdata$?PreProcessBuffer@CRegParser@ATL@@QEAAJPEA_WPEAPEA_W@Z DD imagerel $LN217
	DD	imagerel $LN217+908
	DD	imagerel $unwind$?PreProcessBuffer@CRegParser@ATL@@QEAAJPEA_WPEAPEA_W@Z
pdata	ENDS
;	COMDAT pdata
pdata	SEGMENT
$pdata$?RegisterBuffer@CRegParser@ATL@@QEAAJPEA_WH@Z DD imagerel $LN47
	DD	imagerel $LN47+360
	DD	imagerel $unwind$?RegisterBuffer@CRegParser@ATL@@QEAAJPEA_WH@Z
pdata	ENDS
;	COMDAT pdata
pdata	SEGMENT
$pdata$?SkipWhiteSpace@CRegParser@ATL@@IEAAXXZ DD imagerel $LN15
	DD	imagerel $LN15+53
	DD	imagerel $unwind$?SkipWhiteSpace@CRegParser@ATL@@IEAAXXZ
pdata	ENDS
;	COMDAT pdata
pdata	SEGMENT
$pdata$?NextToken@CRegParser@ATL@@IEAAJPEA_W@Z DD imagerel $LN71
	DD	imagerel $LN71+440
	DD	imagerel $unwind$?NextToken@CRegParser@ATL@@IEAAJPEA_W@Z
pdata	ENDS
;	COMDAT pdata
pdata	SEGMENT
$pdata$?AddValue@CRegParser@ATL@@IEAAJAEAVCRegKey@2@PEB_WPEA_W@Z DD imagerel $LN210
	DD	imagerel $LN210+1093
	DD	imagerel $unwind$?AddValue@CRegParser@ATL@@IEAAJAEAVCRegKey@2@PEB_WPEA_W@Z
pdata	ENDS
;	COMDAT pdata
pdata	SEGMENT
$pdata$?CanForceRemoveKey@CRegParser@ATL@@IEAAHPEB_W@Z DD imagerel $LN13
	DD	imagerel $LN13+72
	DD	imagerel $unwind$?CanForceRemoveKey@CRegParser@ATL@@IEAAHPEB_W@Z
pdata	ENDS
;	COMDAT pdata
pdata	SEGMENT
$pdata$?HasSubKeys@CRegParser@ATL@@IEAAHPEAUHKEY__@@@Z DD imagerel $LN5
	DD	imagerel $LN5+96
	DD	imagerel $unwind$?HasSubKeys@CRegParser@ATL@@IEAAHPEAUHKEY__@@@Z
pdata	ENDS
;	COMDAT pdata
pdata	SEGMENT
$pdata$?RegisterSubkeys@CRegParser@ATL@@IEAAJPEA_WPEAUHKEY__@@HH@Z DD imagerel $LN388
	DD	imagerel $LN388+2154
	DD	imagerel $unwind$?RegisterSubkeys@CRegParser@ATL@@IEAAJPEA_WPEAUHKEY__@@HH@Z
pdata	ENDS
;	COMDAT pdata
pdata	SEGMENT
$pdata$?SkipAssignment@CRegParser@ATL@@IEAAJPEA_W@Z DD imagerel $LN27
	DD	imagerel $LN27+163
	DD	imagerel $unwind$?SkipAssignment@CRegParser@ATL@@IEAAJPEA_W@Z
pdata	ENDS
;	COMDAT pdata
pdata	SEGMENT
$pdata$?EndOfVar@CRegParser@ATL@@IEAAHXZ DD imagerel $LN6
	DD	imagerel $LN6+43
	DD	imagerel $unwind$?EndOfVar@CRegParser@ATL@@IEAAHXZ
pdata	ENDS
;	COMDAT pdata
pdata	SEGMENT
$pdata$?StrChrW@CRegParser@ATL@@KAPEA_WPEA_W_W@Z DD imagerel $LN14
	DD	imagerel $LN14+69
	DD	imagerel $unwind$?StrChrW@CRegParser@ATL@@KAPEA_WPEA_W_W@Z
pdata	ENDS
;	COMDAT pdata
pdata	SEGMENT
$pdata$?HKeyFromString@CRegParser@ATL@@KAPEAUHKEY__@@PEA_W@Z DD imagerel $LN13
	DD	imagerel $LN13+98
	DD	imagerel $unwind$?HKeyFromString@CRegParser@ATL@@KAPEAUHKEY__@@PEA_W@Z
pdata	ENDS
;	COMDAT pdata
pdata	SEGMENT
$pdata$?VTFromRegType@CRegParser@ATL@@KAHPEB_WAEAG@Z DD imagerel $LN9
	DD	imagerel $LN9+155
	DD	imagerel $unwind$?VTFromRegType@CRegParser@ATL@@KAHPEB_WAEAG@Z
pdata	ENDS
;	COMDAT pdata
pdata	SEGMENT
$pdata$??0CParseBuffer@CRegParser@ATL@@QEAA@H@Z DD imagerel $LN15
	DD	imagerel $LN15+83
	DD	imagerel $unwind$??0CParseBuffer@CRegParser@ATL@@QEAA@H@Z
pdata	ENDS
;	COMDAT pdata
pdata	SEGMENT
$pdata$?Append@CParseBuffer@CRegParser@ATL@@QEAAHPEB_WH@Z DD imagerel $LN59
	DD	imagerel $LN59+326
	DD	imagerel $unwind$?Append@CParseBuffer@CRegParser@ATL@@QEAAHPEB_WH@Z
pdata	ENDS
;	COMDAT pdata
pdata	SEGMENT
$pdata$?AddString@CParseBuffer@CRegParser@ATL@@QEAAHPEB_W@Z DD imagerel $LN27
	DD	imagerel $LN27+35
	DD	imagerel $unwind$?AddString@CParseBuffer@CRegParser@ATL@@QEAAHPEB_W@Z
pdata	ENDS
;	COMDAT pdata
pdata	SEGMENT
$pdata$??1CRegObject@ATL@@UEAA@XZ DD imagerel $LN22
	DD	imagerel $LN22+82
	DD	imagerel $unwind$??1CRegObject@ATL@@UEAA@XZ
pdata	ENDS
;	COMDAT pdata
pdata	SEGMENT
$pdata$?AddReplacement@CRegObject@ATL@@UEAAJPEB_W0@Z DD imagerel $LN19
	DD	imagerel $LN19+46
	DD	imagerel $unwind$?AddReplacement@CRegObject@ATL@@UEAAJPEB_W0@Z
pdata	ENDS
;	COMDAT pdata
pdata	SEGMENT
$pdata$?StrFromMap@CRegObject@ATL@@QEAAPEB_WPEA_W@Z DD imagerel $LN5
	DD	imagerel $LN5+28
	DD	imagerel $unwind$?StrFromMap@CRegObject@ATL@@QEAAPEB_WPEA_W@Z
pdata	ENDS
;	COMDAT pdata
pdata	SEGMENT
$pdata$?ResourceRegister@CRegObject@ATL@@QEAAJPEB_WI0@Z DD imagerel $LN17
	DD	imagerel $LN17+26
	DD	imagerel $unwind$?ResourceRegister@CRegObject@ATL@@QEAAJPEB_WI0@Z
pdata	ENDS
;	COMDAT pdata
pdata	SEGMENT
$pdata$?ResourceRegisterSz@CRegObject@ATL@@QEAAJPEB_W00@Z DD imagerel $LN26
	DD	imagerel $LN26+39
	DD	imagerel $unwind$?ResourceRegisterSz@CRegObject@ATL@@QEAAJPEB_W00@Z
pdata	ENDS
;	COMDAT pdata
pdata	SEGMENT
$pdata$?ResourceUnregister@CRegObject@ATL@@QEAAJPEB_WI0@Z DD imagerel $LN17
	DD	imagerel $LN17+23
	DD	imagerel $unwind$?ResourceUnregister@CRegObject@ATL@@QEAAJPEB_WI0@Z
pdata	ENDS
;	COMDAT pdata
pdata	SEGMENT
$pdata$?ResourceUnregisterSz@CRegObject@ATL@@QEAAJPEB_W00@Z DD imagerel $LN26
	DD	imagerel $LN26+36
	DD	imagerel $unwind$?ResourceUnregisterSz@CRegObject@ATL@@QEAAJPEB_W00@Z
pdata	ENDS
;	COMDAT pdata
pdata	SEGMENT
$pdata$?RegisterFromResource@CRegObject@ATL@@IEAAJPEB_W00H@Z DD imagerel $LN60
	DD	imagerel $LN60+441
	DD	imagerel $unwind$?RegisterFromResource@CRegObject@ATL@@IEAAJPEB_W00H@Z
pdata	ENDS
;	COMDAT pdata
pdata	SEGMENT
$pdata$??_GCRegObject@ATL@@UEAAPEAXI@Z DD imagerel $LN25
	DD	imagerel $LN25+128
	DD	imagerel $unwind$??_GCRegObject@ATL@@UEAAPEAXI@Z
pdata	ENDS
;	COMDAT pdata
pdata	SEGMENT
$pdata$??1?$CTempBuffer@_W$0EAA@VCCRTAllocator@ATL@@@ATL@@QEAA@XZ DD imagerel $LN5
	DD	imagerel $LN5+23
	DD	imagerel $unwind$??1?$CTempBuffer@_W$0EAA@VCCRTAllocator@ATL@@@ATL@@QEAA@XZ
pdata	ENDS
;	COMDAT pdata
pdata	SEGMENT
$pdata$?Allocate@?$CTempBuffer@_W$0EAA@VCCRTAllocator@ATL@@@ATL@@QEAAPEA_W_K@Z DD imagerel $LN20
	DD	imagerel $LN20+79
	DD	imagerel $unwind$?Allocate@?$CTempBuffer@_W$0EAA@VCCRTAllocator@ATL@@@ATL@@QEAAPEA_W_K@Z
pdata	ENDS
;	COMDAT pdata
pdata	SEGMENT
$pdata$?AllocateBytes@?$CTempBuffer@_W$0EAA@VCCRTAllocator@ATL@@@ATL@@QEAAPEA_W_K@Z DD imagerel $LN6
	DD	imagerel $LN6+41
	DD	imagerel $unwind$?AllocateBytes@?$CTempBuffer@_W$0EAA@VCCRTAllocator@ATL@@@ATL@@QEAAPEA_W_K@Z
pdata	ENDS
;	COMDAT pdata
pdata	SEGMENT
$pdata$?AllocateHeap@?$CTempBuffer@_W$0EAA@VCCRTAllocator@ATL@@@ATL@@AEAAX_K@Z DD imagerel $LN9
	DD	imagerel $LN9+42
	DD	imagerel $unwind$?AllocateHeap@?$CTempBuffer@_W$0EAA@VCCRTAllocator@ATL@@@ATL@@AEAAX_K@Z
pdata	ENDS
;	COMDAT pdata
pdata	SEGMENT
$pdata$??1?$CTempBuffer@_W$0BAA@VCCRTAllocator@ATL@@@ATL@@QEAA@XZ DD imagerel $LN5
	DD	imagerel $LN5+23
	DD	imagerel $unwind$??1?$CTempBuffer@_W$0BAA@VCCRTAllocator@ATL@@@ATL@@QEAA@XZ
pdata	ENDS
;	COMDAT pdata
pdata	SEGMENT
$pdata$?Allocate@?$CTempBuffer@_W$0BAA@VCCRTAllocator@ATL@@@ATL@@QEAAPEA_W_K@Z DD imagerel $LN20
	DD	imagerel $LN20+79
	DD	imagerel $unwind$?Allocate@?$CTempBuffer@_W$0BAA@VCCRTAllocator@ATL@@@ATL@@QEAAPEA_W_K@Z
pdata	ENDS
;	COMDAT pdata
pdata	SEGMENT
$pdata$?AllocateBytes@?$CTempBuffer@_W$0BAA@VCCRTAllocator@ATL@@@ATL@@QEAAPEA_W_K@Z DD imagerel $LN6
	DD	imagerel $LN6+41
	DD	imagerel $unwind$?AllocateBytes@?$CTempBuffer@_W$0BAA@VCCRTAllocator@ATL@@@ATL@@QEAAPEA_W_K@Z
pdata	ENDS
;	COMDAT pdata
pdata	SEGMENT
$pdata$?AllocateHeap@?$CTempBuffer@_W$0BAA@VCCRTAllocator@ATL@@@ATL@@AEAAX_K@Z DD imagerel $LN9
	DD	imagerel $LN9+42
	DD	imagerel $unwind$?AllocateHeap@?$CTempBuffer@_W$0BAA@VCCRTAllocator@ATL@@@ATL@@AEAAX_K@Z
pdata	ENDS
;	COMDAT pdata
pdata	SEGMENT
$pdata$??1?$CTempBuffer@E$0BAA@VCCRTAllocator@ATL@@@ATL@@QEAA@XZ DD imagerel $LN5
	DD	imagerel $LN5+23
	DD	imagerel $unwind$??1?$CTempBuffer@E$0BAA@VCCRTAllocator@ATL@@@ATL@@QEAA@XZ
pdata	ENDS
;	COMDAT pdata
pdata	SEGMENT
$pdata$?Allocate@?$CTempBuffer@E$0BAA@VCCRTAllocator@ATL@@@ATL@@QEAAPEAE_K@Z DD imagerel $LN21
	DD	imagerel $LN21+78
	DD	imagerel $unwind$?Allocate@?$CTempBuffer@E$0BAA@VCCRTAllocator@ATL@@@ATL@@QEAAPEAE_K@Z
pdata	ENDS
;	COMDAT pdata
pdata	SEGMENT
$pdata$?AllocateBytes@?$CTempBuffer@E$0BAA@VCCRTAllocator@ATL@@@ATL@@QEAAPEAE_K@Z DD imagerel $LN6
	DD	imagerel $LN6+41
	DD	imagerel $unwind$?AllocateBytes@?$CTempBuffer@E$0BAA@VCCRTAllocator@ATL@@@ATL@@QEAAPEAE_K@Z
pdata	ENDS
;	COMDAT pdata
pdata	SEGMENT
$pdata$?AllocateHeap@?$CTempBuffer@E$0BAA@VCCRTAllocator@ATL@@@ATL@@AEAAX_K@Z DD imagerel $LN9
	DD	imagerel $LN9+42
	DD	imagerel $unwind$?AllocateHeap@?$CTempBuffer@E$0BAA@VCCRTAllocator@ATL@@@ATL@@AEAAX_K@Z
pdata	ENDS
;	COMDAT pdata
pdata	SEGMENT
$pdata$?AtlFindExtension@ATL@@YAPEA_WPEB_W@Z DD imagerel ?AtlFindExtension@ATL@@YAPEA_WPEB_W@Z
	DD	imagerel ?AtlFindExtension@ATL@@YAPEA_WPEB_W@Z+86
	DD	imagerel $unwind$?AtlFindExtension@ATL@@YAPEA_WPEB_W@Z
pdata	ENDS
;	COMDAT pdata
pdata	SEGMENT
$pdata$??1?$CComPtrBase@UICatRegister@@@ATL@@QEAA@XZ DD imagerel $LN5
	DD	imagerel $LN5+23
	DD	imagerel $unwind$??1?$CComPtrBase@UICatRegister@@@ATL@@QEAA@XZ
pdata	ENDS
;	COMDAT pdata
pdata	SEGMENT
$pdata$??1?$CComPtr@UICatRegister@@@ATL@@QEAA@XZ DD imagerel $LN8
	DD	imagerel $LN8+23
	DD	imagerel $unwind$??1?$CComPtr@UICatRegister@@@ATL@@QEAA@XZ
pdata	ENDS
;	COMDAT pdata
pdata	SEGMENT
$pdata$?AtlGetDirLen@ATL@@YAIPEB_W@Z DD imagerel ?AtlGetDirLen@ATL@@YAIPEB_W@Z
	DD	imagerel ?AtlGetDirLen@ATL@@YAIPEB_W@Z+123
	DD	imagerel $unwind$?AtlGetDirLen@ATL@@YAIPEB_W@Z
pdata	ENDS
;	COMDAT pdata
pdata	SEGMENT
$pdata$??1?$CComPtrBase@UITypeLib@@@ATL@@QEAA@XZ DD imagerel $LN5
	DD	imagerel $LN5+23
	DD	imagerel $unwind$??1?$CComPtrBase@UITypeLib@@@ATL@@QEAA@XZ
pdata	ENDS
;	COMDAT pdata
pdata	SEGMENT
$pdata$??1?$CComPtr@UITypeLib@@@ATL@@QEAA@XZ DD imagerel $LN8
	DD	imagerel $LN8+23
	DD	imagerel $unwind$??1?$CComPtr@UITypeLib@@@ATL@@QEAA@XZ
pdata	ENDS
;	COMDAT pdata
pdata	SEGMENT
$pdata$??0?$CComCritSecLock@VCComCriticalSection@ATL@@@ATL@@QEAA@AEAVCComCriticalSection@1@_N@Z DD imagerel $LN15
	DD	imagerel $LN15+43
	DD	imagerel $unwind$??0?$CComCritSecLock@VCComCriticalSection@ATL@@@ATL@@QEAA@AEAVCComCriticalSection@1@_N@Z
pdata	ENDS
;	COMDAT pdata
pdata	SEGMENT
$pdata$??1?$CComCritSecLock@VCComCriticalSection@ATL@@@ATL@@QEAA@XZ DD imagerel $LN12
	DD	imagerel $LN12+34
	DD	imagerel $unwind$??1?$CComCritSecLock@VCComCriticalSection@ATL@@@ATL@@QEAA@XZ
pdata	ENDS
;	COMDAT pdata
pdata	SEGMENT
$pdata$?Lock@?$CComCritSecLock@VCComCriticalSection@ATL@@@ATL@@QEAAJXZ DD imagerel $LN10
	DD	imagerel $LN10+30
	DD	imagerel $unwind$?Lock@?$CComCritSecLock@VCComCriticalSection@ATL@@@ATL@@QEAAJXZ
pdata	ENDS
;	COMDAT pdata
pdata	SEGMENT
$pdata$?Unlock@?$CComCritSecLock@VCComCriticalSection@ATL@@@ATL@@QEAAXXZ DD imagerel $LN9
	DD	imagerel $LN9+28
	DD	imagerel $unwind$?Unlock@?$CComCritSecLock@VCComCriticalSection@ATL@@@ATL@@QEAAXXZ
pdata	ENDS
;	COMDAT pdata
pdata	SEGMENT
$pdata$??1?$CComPtrBase@UIConnectionPointContainer@@@ATL@@QEAA@XZ DD imagerel $LN5
	DD	imagerel $LN5+23
	DD	imagerel $unwind$??1?$CComPtrBase@UIConnectionPointContainer@@@ATL@@QEAA@XZ
pdata	ENDS
;	COMDAT pdata
pdata	SEGMENT
$pdata$??1?$CComPtr@UIConnectionPointContainer@@@ATL@@QEAA@XZ DD imagerel $LN8
	DD	imagerel $LN8+23
	DD	imagerel $unwind$??1?$CComPtr@UIConnectionPointContainer@@@ATL@@QEAA@XZ
pdata	ENDS
;	COMDAT pdata
pdata	SEGMENT
$pdata$??1?$CComPtrBase@UIConnectionPoint@@@ATL@@QEAA@XZ DD imagerel $LN5
	DD	imagerel $LN5+23
	DD	imagerel $unwind$??1?$CComPtrBase@UIConnectionPoint@@@ATL@@QEAA@XZ
pdata	ENDS
;	COMDAT pdata
pdata	SEGMENT
$pdata$??1?$CComPtr@UIConnectionPoint@@@ATL@@QEAA@XZ DD imagerel $LN8
	DD	imagerel $LN8+23
	DD	imagerel $unwind$??1?$CComPtr@UIConnectionPoint@@@ATL@@QEAA@XZ
pdata	ENDS
;	COMDAT pdata
pdata	SEGMENT
$pdata$?Init@CDynamicStdCallThunk2@ATL@@QEAAH_KPEAX@Z DD imagerel $LN6
	DD	imagerel $LN6+80
	DD	imagerel $unwind$?Init@CDynamicStdCallThunk2@ATL@@QEAAH_KPEAX@Z
pdata	ENDS
;	COMDAT pdata
pdata	SEGMENT
$pdata$??0?$CComPtrBase@UITypeInfo@@@ATL@@IEAA@PEAUITypeInfo@@@Z DD imagerel $LN5
	DD	imagerel $LN5+35
	DD	imagerel $unwind$??0?$CComPtrBase@UITypeInfo@@@ATL@@IEAA@PEAUITypeInfo@@@Z
pdata	ENDS
;	COMDAT pdata
pdata	SEGMENT
$pdata$??1?$CComPtrBase@UITypeInfo@@@ATL@@QEAA@XZ DD imagerel $LN5
	DD	imagerel $LN5+23
	DD	imagerel $unwind$??1?$CComPtrBase@UITypeInfo@@@ATL@@QEAA@XZ
pdata	ENDS
;	COMDAT pdata
pdata	SEGMENT
$pdata$?IsEqualObject@?$CComPtrBase@UITypeInfo@@@ATL@@QEAA_NPEAUIUnknown@@@Z DD imagerel $LN29
	DD	imagerel $LN29+139
	DD	imagerel $unwind$?IsEqualObject@?$CComPtrBase@UITypeInfo@@@ATL@@QEAA_NPEAUIUnknown@@@Z
pdata	ENDS
;	COMDAT pdata
pdata	SEGMENT
$pdata$??0?$CComPtr@UITypeInfo@@@ATL@@QEAA@AEBV01@@Z DD imagerel $LN8
	DD	imagerel $LN8+35
	DD	imagerel $unwind$??0?$CComPtr@UITypeInfo@@@ATL@@QEAA@AEBV01@@Z
pdata	ENDS
;	COMDAT pdata
pdata	SEGMENT
$pdata$??1?$CComPtr@UITypeInfo@@@ATL@@QEAA@XZ DD imagerel $LN8
	DD	imagerel $LN8+23
	DD	imagerel $unwind$??1?$CComPtr@UITypeInfo@@@ATL@@QEAA@XZ
pdata	ENDS
;	COMDAT pdata
pdata	SEGMENT
$pdata$?AtlIPersistStreamInit_Load@ATL@@YAJPEAUIStream@@PEBUATL_PROPMAP_ENTRY@1@PEAXPEAUIUnknown@@@Z DD imagerel $LN111
	DD	imagerel $LN111+787
	DD	imagerel $unwind$?AtlIPersistStreamInit_Load@ATL@@YAJPEAUIStream@@PEBUATL_PROPMAP_ENTRY@1@PEAXPEAUIUnknown@@@Z
pdata	ENDS
;	COMDAT pdata
pdata	SEGMENT
$pdata$?AtlIPersistStreamInit_Save@ATL@@YAJPEAUIStream@@HPEBUATL_PROPMAP_ENTRY@1@PEAXPEAUIUnknown@@@Z DD imagerel $LN105
	DD	imagerel $LN105+638
	DD	imagerel $unwind$?AtlIPersistStreamInit_Save@ATL@@YAJPEAUIStream@@HPEBUATL_PROPMAP_ENTRY@1@PEAXPEAUIUnknown@@@Z
pdata	ENDS
;	COMDAT pdata
pdata	SEGMENT
$pdata$??0ModuleLockHelper@ATL@@QEAA@XZ DD imagerel $LN4
	DD	imagerel $LN4+31
	DD	imagerel $unwind$??0ModuleLockHelper@ATL@@QEAA@XZ
pdata	ENDS
;	COMDAT pdata
pdata	SEGMENT
$pdata$??1?$CComObjectRootEx@VCComMultiThreadModel@ATL@@@ATL@@QEAA@XZ DD imagerel $LN12
	DD	imagerel $LN12+29
	DD	imagerel $unwind$??1?$CComObjectRootEx@VCComMultiThreadModel@ATL@@@ATL@@QEAA@XZ
pdata	ENDS
;	COMDAT pdata
pdata	SEGMENT
$pdata$?_AtlInitialConstruct@?$CComObjectRootEx@VCComMultiThreadModel@ATL@@@ATL@@QEAAJXZ DD imagerel $LN15
	DD	imagerel $LN15+75
