 OPOSBumpBar

 Timestamp is 61a758cf (Wed Dec  1 20:13:19 2021)

 Preferred load address is 0000000180000000

 Start         Length     Name                   Class
 0001:00000000 000000c0H .text$di                CODE
 0001:000000c0 00023ed0H .text$mn                CODE
 0001:00023f90 00000040H .text$mn$00             CODE
 0001:00023fd0 00000660H .text$x                 CODE
 0001:00024630 00000078H .text$yd                CODE
 0002:00000000 00000638H .idata$5                DATA
 0002:00000638 00000030H .00cfg                  DATA
 0002:00000668 00000008H .CRT$XCA                DATA
 0002:00000670 00000008H .CRT$XCL                DATA
 0002:00000678 00000020H .CRT$XCU                DATA
 0002:00000698 00000008H .CRT$XCZ                DATA
 0002:000006a0 00000008H .CRT$XIA                DATA
 0002:000006a8 00000020H .CRT$XIC                DATA
 0002:000006c8 00000008H .CRT$XIZ                DATA
 0002:000006d0 00000008H .CRT$XLA                DATA
 0002:000006d8 00000008H .CRT$XLZ                DATA
 0002:000006e0 00000008H .CRT$XPA                DATA
 0002:000006e8 00000010H .CRT$XPX                DATA
 0002:000006f8 00000008H .CRT$XPXA               DATA
 0002:00000700 00000008H .CRT$XPZ                DATA
 0002:00000708 00000008H .CRT$XTA                DATA
 0002:00000710 00000010H .CRT$XTZ                DATA
 0002:00000718 00000000H .gehcont$y              DATA
 0002:00000718 00000000H .gfids$y                DATA
 0002:00000720 0000a560H .rdata                  DATA
 0002:0000ac80 00000000H .rdata$CastGuardVftablesA DATA
 0002:0000ac80 00000000H .rdata$CastGuardVftablesC DATA
 0002:0000ac80 00000028H .rdata$T                DATA
 0002:0000aca8 00000274H .rdata$r                DATA
 0002:0000af1c 00000048H .rdata$voltmd           DATA
 0002:0000af64 00000434H .rdata$zzzdbg           DATA
 0002:0000b398 00000008H .rtc$IAA                DATA
 0002:0000b3a0 00000008H .rtc$IZZ                DATA
 0002:0000b3a8 00000008H .rtc$TAA                DATA
 0002:0000b3b0 00000008H .rtc$TZZ                DATA
 0002:0000b3b8 00000004H .tls                    DATA
 0002:0000b3bc 00000004H .tls$                   DATA
 0002:0000b3c0 00000008H .tls$ZZZ                DATA
 0002:0000b3c8 00001958H .xdata                  DATA
 0002:0000cd20 00000150H .xdata$x                DATA
 0002:0000ce70 00000008H ATL$__a                 DATA
 0002:0000ce78 00000008H ATL$__z                 DATA
 0002:0000ce80 000000a8H .edata                  DATA
 0002:0000cf28 00000078H .idata$2                DATA
 0002:0000cfa0 00000018H .idata$3                DATA
 0002:0000cfb8 00000638H .idata$4                DATA
 0002:0000d5f0 00000c5cH .idata$6                DATA
 0003:00000000 00000d88H .data                   DATA
 0003:00000d88 000000a8H .data$r                 DATA
 0003:00000e30 00000020H .data$rs                DATA
 0003:00000e50 000013ecH .bss                    DATA
 0004:00000000 00002010H .pdata                  DATA
 0005:00000000 000000f4H _RDATA                  DATA
 0006:00000000 00000220H .rsrc$01                DATA
 0006:00000220 000042f0H .rsrc$02                DATA

  Address         Publics by Value              Rva+Base               Lib:Object

 0000:00000000       __x64_code_ranges_to_entry_points 0000000000000000     <absolute>
 0000:00000000       __guard_longjmp_table      0000000000000000     <absolute>
 0000:00000000       __x64_code_ranges_to_entry_points_count 0000000000000000     <absolute>
 0000:00000000       __guard_fids_count         0000000000000000     <absolute>
 0000:00000000       __arm64x_redirection_metadata 0000000000000000     <absolute>
 0000:00000000       __arm64x_extra_rfe_table   0000000000000000     <absolute>
 0000:00000000       __guard_iat_table          0000000000000000     <absolute>
 0000:00000000       __hybrid_code_map          0000000000000000     <absolute>
 0000:00000000       __arm64x_extra_rfe_table_size 0000000000000000     <absolute>
 0000:00000000       __guard_iat_count          0000000000000000     <absolute>
 0000:00000000       ___safe_se_handler_count   0000000000000000     <absolute>
 0000:00000000       __guard_longjmp_count      0000000000000000     <absolute>
 0000:00000000       ___safe_se_handler_table   0000000000000000     <absolute>
 0000:00000000       __dynamic_value_reloc_table 0000000000000000     <absolute>
 0000:00000000       __hybrid_auxiliary_iat     0000000000000000     <absolute>
 0000:00000000       __hybrid_auxiliary_iat_copy 0000000000000000     <absolute>
 0000:00000000       __AbsoluteZero             0000000000000000     <absolute>
 0000:00000000       __guard_eh_cont_count      0000000000000000     <absolute>
 0000:00000000       __guard_check_icall_a64n_fptr 0000000000000000     <absolute>
 0000:00000000       __guard_fids_table         0000000000000000     <absolute>
 0000:00000000       __arm64x_redirection_metadata_count 0000000000000000     <absolute>
 0000:00000000       __enclave_config           0000000000000000     <absolute>
 0000:00000000       __guard_eh_cont_table      0000000000000000     <absolute>
 0000:00000000       __arm64x_native_entrypoint 0000000000000000     <absolute>
 0000:00000000       __hybrid_code_map_count    0000000000000000     <absolute>
 0000:00000100       __guard_flags              0000000000000100     <absolute>
 0000:00000000       __ImageBase                0000000180000000     <linker-defined>
 0001:000000c0       ?DupWide@_CW@@AEAAXXZ      00000001800010c0 f   CWString.obj
 0001:000000e8       ?cw_dup@@YAXPEBDAEAHAEAPEA_W1@Z 00000001800010e8 f   CWString.obj
 0001:000001c8       ?cw_memcpy@@YAHPEA_WPEBDH@Z 00000001800011c8 f   CWString.obj
 0001:00000214       ?cw_strcpy@@YAHPEA_WPEBD@Z 0000000180001214 f   CWString.obj
 0001:00000228       ??0CAtlComModule@ATL@@QEAA@XZ 0000000180001228 f i OposVariant.obj
 0001:000002a8       ??0CAtlWinModule@ATL@@QEAA@XZ 00000001800012a8 f i OposVariant.obj
 0001:00000314       ??0OposDispParms@@QEAA@PEAVOposVariant@@H@Z 0000000180001314 f   OposVariant.obj
 0001:000003bc       ??1OposDispParms@@QEAA@XZ  00000001800013bc f   OposVariant.obj
 0001:000003d4       ??_Estringdispid@CComTypeInfoHolder@ATL@@QEAAPEAXI@Z 00000001800013d4 f i OposVariant.obj
 0001:00000478       ?AtlWinModuleTerm@ATL@@YAJPEAU_ATL_WIN_MODULE70@1@PEAUHINSTANCE__@@@Z 0000000180001478 f i OposVariant.obj
 0001:00000528       ?ChangeBSTR@OposVariant@@QEAAXPEAPEA_WAEAJ@Z 0000000180001528 f   OposVariant.obj
 0001:00000588       ?ChangeLONG@OposVariant@@QEAAXPEAJAEAJ@Z 0000000180001588 f   OposVariant.obj
 0001:000005e4       ?GetLONG@OposVariant@@QEAAJXZ 00000001800015e4 f   OposVariant.obj
 0001:00000608       ?SetBSTR@OposVariant@@QEAAXPEA_WAEAJ@Z 0000000180001608 f   OposVariant.obj
 0001:00000648       ?SetBSTR_Copy@OposVariant@@QEAAXPEA_WAEAJ@Z 0000000180001648 f   OposVariant.obj
 0001:000006b8       ?SetBSTR_InOutPtr@OposVariant@@QEAA_NPEAPEA_WAEAJ@Z 00000001800016b8 f   OposVariant.obj
 0001:00000708       ?SetDispatch_Ptr@OposVariant@@QEAAXPEAUIDispatch@@AEAJ@Z 0000000180001708 f   OposVariant.obj
 0001:00000760       ?SetLONG@OposVariant@@QEAAXJ@Z 0000000180001760 f   OposVariant.obj
 0001:00000790       ?SetLONG_Ptr@OposVariant@@QEAAXPEAJAEAJ@Z 0000000180001790 f   OposVariant.obj
 0001:000007dc       ?SetString@OposVariant@@QEAAXPEB_WAEAJ@Z 00000001800017dc f   OposVariant.obj
 0001:00000840       ?SetVARIANT_BOOL@OposVariant@@QEAAXF@Z 0000000180001840 f   OposVariant.obj
 0001:00000878       ?Term@CAtlComModule@ATL@@QEAAXXZ 0000000180001878 f i OposVariant.obj
 0001:000008e8       ?_AtlInitializeCriticalSectionEx@ATL@@YAHPEAU_RTL_CRITICAL_SECTION@@KK@Z 00000001800018e8 f i OposVariant.obj
 0001:000008f0       ?_AtlRaiseException@ATL@@YAXKK@Z 00000001800018f0 f i OposVariant.obj
 0001:00000900       ?Next@?$CComEnumImpl@UIEnumConnections@@$1?_GUID_b196b287_bab4_101a_b69c_00aa00341d07@@3U__s_GUID@@BUtagCONNECTDATA@@V?$_Copy@UtagCONNECTDATA@@@ATL@@@ATL@@UEAAJKPEAUtagCONNECTDATA@@PEAK@Z 0000000180001900 f i BumpBar.obj
 0001:000009c8       ?Skip@?$CComEnumImpl@UIEnumConnections@@$1?_GUID_b196b287_bab4_101a_b69c_00aa00341d07@@3U__s_GUID@@BUtagCONNECTDATA@@V?$_Copy@UtagCONNECTDATA@@@ATL@@@ATL@@UEAAJK@Z 00000001800019c8 f i BumpBar.obj
 0001:000009f4       ?Reset@?$CComEnumImpl@UIEnumConnections@@$1?_GUID_b196b287_bab4_101a_b69c_00aa00341d07@@3U__s_GUID@@BUtagCONNECTDATA@@V?$_Copy@UtagCONNECTDATA@@@ATL@@@ATL@@UEAAJXZ 00000001800019f4 f i BumpBar.obj
 0001:000009f4       ?Reset@?$CComEnumImpl@UIEnumConnectionPoints@@$1?_GUID_b196b285_bab4_101a_b69c_00aa00341d07@@3U__s_GUID@@BPEAUIConnectionPoint@@V?$_CopyInterface@UIConnectionPoint@@@ATL@@@ATL@@UEAAJXZ 00000001800019f4 f i BumpBar.obj
 0001:00000a00       ?Clone@?$CComEnumImpl@UIEnumConnections@@$1?_GUID_b196b287_bab4_101a_b69c_00aa00341d07@@3U__s_GUID@@BUtagCONNECTDATA@@V?$_Copy@UtagCONNECTDATA@@@ATL@@@ATL@@UEAAJPEAPEAUIEnumConnections@@@Z 0000000180001a00 f i BumpBar.obj
 0001:00000b2c       ?AddRef@?$CComObject@V?$CComEnum@UIEnumConnectionPoints@@$1?_GUID_b196b285_bab4_101a_b69c_00aa00341d07@@3U__s_GUID@@BPEAUIConnectionPoint@@V?$_CopyInterface@UIConnectionPoint@@@ATL@@VCComSingleThreadModel@6@@ATL@@@ATL@@UEAAKXZ 0000000180001b2c f i BumpBar.obj
 0001:00000b2c       ?AddRef@?$CComObject@V?$CComEnum@UIEnumConnections@@$1?_GUID_b196b287_bab4_101a_b69c_00aa00341d07@@3U__s_GUID@@BUtagCONNECTDATA@@V?$_Copy@UtagCONNECTDATA@@@ATL@@VCComSingleThreadModel@6@@ATL@@@ATL@@UEAAKXZ 0000000180001b2c f i BumpBar.obj
 0001:00000b38       ?Release@?$CComObject@V?$CComEnum@UIEnumConnections@@$1?_GUID_b196b287_bab4_101a_b69c_00aa00341d07@@3U__s_GUID@@BUtagCONNECTDATA@@V?$_Copy@UtagCONNECTDATA@@@ATL@@VCComSingleThreadModel@6@@ATL@@@ATL@@UEAAKXZ 0000000180001b38 f i BumpBar.obj
 0001:00000b38       ?Release@?$CComObject@V?$CComEnum@UIEnumConnectionPoints@@$1?_GUID_b196b285_bab4_101a_b69c_00aa00341d07@@3U__s_GUID@@BPEAUIConnectionPoint@@V?$_CopyInterface@UIConnectionPoint@@@ATL@@VCComSingleThreadModel@6@@ATL@@@ATL@@UEAAKXZ 0000000180001b38 f i BumpBar.obj
 0001:00000b8c       ?QueryInterface@?$CComObject@V?$CComEnum@UIEnumConnections@@$1?_GUID_b196b287_bab4_101a_b69c_00aa00341d07@@3U__s_GUID@@BUtagCONNECTDATA@@V?$_Copy@UtagCONNECTDATA@@@ATL@@VCComSingleThreadModel@6@@ATL@@@ATL@@UEAAJAEBU_GUID@@PEAPEAX@Z 0000000180001b8c f i BumpBar.obj
 0001:00000ba0       ??_G?$CComObject@V?$CComEnum@UIEnumConnections@@$1?_GUID_b196b287_bab4_101a_b69c_00aa00341d07@@3U__s_GUID@@BUtagCONNECTDATA@@V?$_Copy@UtagCONNECTDATA@@@ATL@@VCComSingleThreadModel@6@@ATL@@@ATL@@UEAAPEAXI@Z 0000000180001ba0 f i BumpBar.obj
 0001:00000ba0       ??_E?$CComObject@V?$CComEnum@UIEnumConnections@@$1?_GUID_b196b287_bab4_101a_b69c_00aa00341d07@@3U__s_GUID@@BUtagCONNECTDATA@@V?$_Copy@UtagCONNECTDATA@@@ATL@@VCComSingleThreadModel@6@@ATL@@@ATL@@UEAAPEAXI@Z 0000000180001ba0 f i BumpBar.obj
 0001:00000bf8       ?OnFinalMessage@?$CWindowImplBaseT@VCWindow@ATL@@V?$CWinTraits@$0FGAAAAAA@$0A@@2@@ATL@@UEAAXPEAUHWND__@@@Z 0000000180001bf8 f i BumpBar.obj
 0001:00000bf8       ?ObjectMain@CComObjectRootBase@ATL@@SAX_N@Z 0000000180001bf8 f i BumpBar.obj
 0001:00000bf8       _guard_check_icall_nop     0000000180001bf8 f i LIBCMT:guard_support.obj
 0001:00000bfc       ?EnableModeless@?$IOleInPlaceActiveObjectImpl@VCOPOSBumpBar@@@ATL@@UEAAJH@Z 0000000180001bfc f i BumpBar.obj
 0001:00000bfc       ?SetHostNames@?$IOleObjectImpl@VCOPOSBumpBar@@@ATL@@UEAAJPEB_W0@Z 0000000180001bfc f i BumpBar.obj
 0001:00000bfc       ?SaveCompleted@?$IPersistStorageImpl@VCOPOSBumpBar@@@ATL@@UEAAJPEAUIStorage@@@Z 0000000180001bfc f i BumpBar.obj
 0001:00000bfc       ?GetObjectDescription@?$CComCoClass@VCOPOSBumpBar@@$1?CLSID_OPOSBumpBar@@3U_GUID@@B@ATL@@SAPEB_WXZ 0000000180001bfc f i BumpBar.obj
 0001:00000bfc       ?GetCategoryMap@CComObjectRootBase@ATL@@SAPEBU_ATL_CATMAP_ENTRY@2@XZ 0000000180001bfc f i BumpBar.obj
 0001:00000bfc       ?ResizeBorder@?$IOleInPlaceActiveObjectImpl@VCOPOSBumpBar@@@ATL@@UEAAJPEBUtagRECT@@PEAUIOleInPlaceUIWindow@@H@Z 0000000180001bfc f i BumpBar.obj
 0001:00000bfc       ?Release@CRegObject@ATL@@UEAAKXZ 0000000180001bfc f i BumpBar.obj
 0001:00000bfc       ?HandsOffStorage@?$IPersistStorageImpl@VCOPOSBumpBar@@@ATL@@UEAAJXZ 0000000180001bfc f i BumpBar.obj
 0001:00000bfc       ?OnFrameWindowActivate@?$IOleInPlaceActiveObjectImpl@VCOPOSBumpBar@@@ATL@@UEAAJH@Z 0000000180001bfc f i BumpBar.obj
 0001:00000bfc       ?OnAmbientPropertyChange@?$IOleControlImpl@VCOPOSBumpBar@@@ATL@@UEAAJJ@Z 0000000180001bfc f i BumpBar.obj
 0001:00000bfc       ?IsUpToDate@?$IOleObjectImpl@VCOPOSBumpBar@@@ATL@@UEAAJXZ 0000000180001bfc f i BumpBar.obj
 0001:00000bfc       ?Update@?$IOleObjectImpl@VCOPOSBumpBar@@@ATL@@UEAAJXZ 0000000180001bfc f i BumpBar.obj
 0001:00000c00       ??_E?$CComObject@VCOPOSBumpBar@@@ATL@@W7EAAPEAXI@Z 0000000180001c00 f i BumpBar.obj
 0001:00000c0c       ??_E?$CComObject@VCOPOSBumpBar@@@ATL@@WHA@EAAPEAXI@Z 0000000180001c0c f i BumpBar.obj
 0001:00000c18       ?QueryInterface@?$CComObject@VCOPOSBumpBar@@@ATL@@WLI@EAAJAEBU_GUID@@PEAPEAX@Z 0000000180001c18 f i BumpBar.obj
 0001:00000c24       ?AddRef@?$CComObject@VCOPOSBumpBar@@@ATL@@WLI@EAAKXZ 0000000180001c24 f i BumpBar.obj
 0001:00000c30       ?Release@?$CComObject@VCOPOSBumpBar@@@ATL@@WLI@EAAKXZ 0000000180001c30 f i BumpBar.obj
 0001:00000c3c       ?QueryInterface@?$CComObject@VCOPOSBumpBar@@@ATL@@WMA@EAAJAEBU_GUID@@PEAPEAX@Z 0000000180001c3c f i BumpBar.obj
 0001:00000c48       ?AddRef@?$CComObject@VCOPOSBumpBar@@@ATL@@WMA@EAAKXZ 0000000180001c48 f i BumpBar.obj
 0001:00000c54       ?Release@?$CComObject@VCOPOSBumpBar@@@ATL@@WMA@EAAKXZ 0000000180001c54 f i BumpBar.obj
 0001:00000c60       ?QueryInterface@?$CComObject@VCOPOSBumpBar@@@ATL@@WMI@EAAJAEBU_GUID@@PEAPEAX@Z 0000000180001c60 f i BumpBar.obj
 0001:00000c6c       ?AddRef@?$CComObject@VCOPOSBumpBar@@@ATL@@WMI@EAAKXZ 0000000180001c6c f i BumpBar.obj
 0001:00000c78       ?Release@?$CComObject@VCOPOSBumpBar@@@ATL@@WMI@EAAKXZ 0000000180001c78 f i BumpBar.obj
 0001:00000c84       ?QueryInterface@?$CComObject@VCOPOSBumpBar@@@ATL@@WNA@EAAJAEBU_GUID@@PEAPEAX@Z 0000000180001c84 f i BumpBar.obj
 0001:00000c90       ?AddRef@?$CComObject@VCOPOSBumpBar@@@ATL@@WNA@EAAKXZ 0000000180001c90 f i BumpBar.obj
 0001:00000c9c       ?Release@?$CComObject@VCOPOSBumpBar@@@ATL@@WNA@EAAKXZ 0000000180001c9c f i BumpBar.obj
 0001:00000ca8       ?QueryInterface@?$CComObject@VCOPOSBumpBar@@@ATL@@WNI@EAAJAEBU_GUID@@PEAPEAX@Z 0000000180001ca8 f i BumpBar.obj
 0001:00000cb4       ?AddRef@?$CComObject@VCOPOSBumpBar@@@ATL@@WNI@EAAKXZ 0000000180001cb4 f i BumpBar.obj
 0001:00000cc0       ?Release@?$CComObject@VCOPOSBumpBar@@@ATL@@WNI@EAAKXZ 0000000180001cc0 f i BumpBar.obj
 0001:00000ccc       ?QueryInterface@?$CComObject@VCOPOSBumpBar@@@ATL@@WOA@EAAJAEBU_GUID@@PEAPEAX@Z 0000000180001ccc f i BumpBar.obj
 0001:00000cd8       ?AddRef@?$CComObject@VCOPOSBumpBar@@@ATL@@WOA@EAAKXZ 0000000180001cd8 f i BumpBar.obj
 0001:00000ce4       ?Release@?$CComObject@VCOPOSBumpBar@@@ATL@@WOA@EAAKXZ 0000000180001ce4 f i BumpBar.obj
 0001:00000cf0       ?QueryInterface@?$CComObject@VCOPOSBumpBar@@@ATL@@WOI@EAAJAEBU_GUID@@PEAPEAX@Z 0000000180001cf0 f i BumpBar.obj
 0001:00000cfc       ?AddRef@?$CComObject@VCOPOSBumpBar@@@ATL@@WOI@EAAKXZ 0000000180001cfc f i BumpBar.obj
 0001:00000d08       ?Release@?$CComObject@VCOPOSBumpBar@@@ATL@@WOI@EAAKXZ 0000000180001d08 f i BumpBar.obj
 0001:00000d14       ?QueryInterface@?$CComObject@VCOPOSBumpBar@@@ATL@@WPA@EAAJAEBU_GUID@@PEAPEAX@Z 0000000180001d14 f i BumpBar.obj
 0001:00000d20       ?AddRef@?$CComObject@VCOPOSBumpBar@@@ATL@@WPA@EAAKXZ 0000000180001d20 f i BumpBar.obj
 0001:00000d2c       ?Release@?$CComObject@VCOPOSBumpBar@@@ATL@@WPA@EAAKXZ 0000000180001d2c f i BumpBar.obj
 0001:00000d38       ?QueryInterface@?$CComObject@VCOPOSBumpBar@@@ATL@@WPI@EAAJAEBU_GUID@@PEAPEAX@Z 0000000180001d38 f i BumpBar.obj
 0001:00000d44       ?AddRef@?$CComObject@VCOPOSBumpBar@@@ATL@@WPI@EAAKXZ 0000000180001d44 f i BumpBar.obj
 0001:00000d50       ?Release@?$CComObject@VCOPOSBumpBar@@@ATL@@WPI@EAAKXZ 0000000180001d50 f i BumpBar.obj
 0001:00000d5c       ?QueryInterface@?$CComObject@VCOPOSBumpBar@@@ATL@@WBAA@EAAJAEBU_GUID@@PEAPEAX@Z 0000000180001d5c f i BumpBar.obj
 0001:00000d68       ?AddRef@?$CComObject@VCOPOSBumpBar@@@ATL@@WBAA@EAAKXZ 0000000180001d68 f i BumpBar.obj
 0001:00000d74       ?Release@?$CComObject@VCOPOSBumpBar@@@ATL@@WBAA@EAAKXZ 0000000180001d74 f i BumpBar.obj
 0001:00000d80       ?QueryInterface@?$CComObject@VCOPOSBumpBar@@@ATL@@WBAI@EAAJAEBU_GUID@@PEAPEAX@Z 0000000180001d80 f i BumpBar.obj
 0001:00000d8c       ?AddRef@?$CComObject@VCOPOSBumpBar@@@ATL@@WBAI@EAAKXZ 0000000180001d8c f i BumpBar.obj
 0001:00000d98       ?Release@?$CComObject@VCOPOSBumpBar@@@ATL@@WBAI@EAAKXZ 0000000180001d98 f i BumpBar.obj
 0001:00000da4       ?QueryInterface@?$CComObject@VCOPOSBumpBar@@@ATL@@WBBA@EAAJAEBU_GUID@@PEAPEAX@Z 0000000180001da4 f i BumpBar.obj
 0001:00000db0       ?AddRef@?$CComObject@VCOPOSBumpBar@@@ATL@@WBBA@EAAKXZ 0000000180001db0 f i BumpBar.obj
 0001:00000dbc       ?Release@?$CComObject@VCOPOSBumpBar@@@ATL@@WBBA@EAAKXZ 0000000180001dbc f i BumpBar.obj
 0001:00000dc8       ?QueryInterface@?$CComObject@VCOPOSBumpBar@@@ATL@@WBBI@EAAJAEBU_GUID@@PEAPEAX@Z 0000000180001dc8 f i BumpBar.obj
 0001:00000dd4       ?AddRef@?$CComObject@VCOPOSBumpBar@@@ATL@@WBBI@EAAKXZ 0000000180001dd4 f i BumpBar.obj
 0001:00000de0       ?CreateInstance@CComClassFactory@ATL@@UEAAJPEAUIUnknown@@AEBU_GUID@@PEAPEAX@Z 0000000180001de0 f i BumpBar.obj
 0001:00000e40       ?Release@?$CComObject@VCOPOSBumpBar@@@ATL@@WBBI@EAAKXZ 0000000180001e40 f i BumpBar.obj
 0001:00000e4c       ?AddRef@?$CComObject@VCOPOSBumpBar@@@ATL@@WBCI@EAAKXZ 0000000180001e4c f i BumpBar.obj
 0001:00000e58       ?LockServer@CComClassFactory@ATL@@UEAAJH@Z 0000000180001e58 f i BumpBar.obj
 0001:00000e7c       ?Release@?$CComObject@VCOPOSBumpBar@@@ATL@@WBCI@EAAKXZ 0000000180001e7c f i BumpBar.obj
 0001:00000e88       ?AddRef@?$CComObject@VCOPOSBumpBar@@@ATL@@WBEA@EAAKXZ 0000000180001e88 f i BumpBar.obj
 0001:00000e94       ?Release@?$CComObject@VCOPOSBumpBar@@@ATL@@WBEA@EAAKXZ 0000000180001e94 f i BumpBar.obj
 0001:00000ea0       ??_ECComClassFactory@ATL@@UEAAPEAXI@Z 0000000180001ea0 f i BumpBar.obj
 0001:00000ea0       ??_GCComClassFactory@ATL@@UEAAPEAXI@Z 0000000180001ea0 f i BumpBar.obj
 0001:00000ef0       ??_E?$CComContainedObject@VCOPOSBumpBar@@@ATL@@W7EAAPEAXI@Z 0000000180001ef0 f i BumpBar.obj
 0001:00000efc       ??_E?$CComContainedObject@VCOPOSBumpBar@@@ATL@@WHA@EAAPEAXI@Z 0000000180001efc f i BumpBar.obj
 0001:00000f08       ?QueryInterface@?$CComContainedObject@VCOPOSBumpBar@@@ATL@@WLI@EAAJAEBU_GUID@@PEAPEAX@Z 0000000180001f08 f i BumpBar.obj
 0001:00000f14       ?AddRef@?$CComContainedObject@VCOPOSBumpBar@@@ATL@@WLI@EAAKXZ 0000000180001f14 f i BumpBar.obj
 0001:00000f20       ?Release@?$CComContainedObject@VCOPOSBumpBar@@@ATL@@WLI@EAAKXZ 0000000180001f20 f i BumpBar.obj
 0001:00000f2c       ?QueryInterface@?$CComContainedObject@VCOPOSBumpBar@@@ATL@@WMA@EAAJAEBU_GUID@@PEAPEAX@Z 0000000180001f2c f i BumpBar.obj
 0001:00000f38       ?AddRef@?$CComContainedObject@VCOPOSBumpBar@@@ATL@@WMA@EAAKXZ 0000000180001f38 f i BumpBar.obj
 0001:00000f44       ?Release@?$CComContainedObject@VCOPOSBumpBar@@@ATL@@WMA@EAAKXZ 0000000180001f44 f i BumpBar.obj
 0001:00000f50       ?QueryInterface@?$CComContainedObject@VCOPOSBumpBar@@@ATL@@WMI@EAAJAEBU_GUID@@PEAPEAX@Z 0000000180001f50 f i BumpBar.obj
 0001:00000f5c       ?AddRef@?$CComContainedObject@VCOPOSBumpBar@@@ATL@@WMI@EAAKXZ 0000000180001f5c f i BumpBar.obj
 0001:00000f68       ?Release@?$CComContainedObject@VCOPOSBumpBar@@@ATL@@WMI@EAAKXZ 0000000180001f68 f i BumpBar.obj
 0001:00000f74       ?QueryInterface@?$CComContainedObject@VCOPOSBumpBar@@@ATL@@WNA@EAAJAEBU_GUID@@PEAPEAX@Z 0000000180001f74 f i BumpBar.obj
 0001:00000f80       ?AddRef@?$CComContainedObject@VCOPOSBumpBar@@@ATL@@WNA@EAAKXZ 0000000180001f80 f i BumpBar.obj
 0001:00000f8c       ?Release@?$CComContainedObject@VCOPOSBumpBar@@@ATL@@WNA@EAAKXZ 0000000180001f8c f i BumpBar.obj
 0001:00000f98       ?QueryInterface@?$CComContainedObject@VCOPOSBumpBar@@@ATL@@WNI@EAAJAEBU_GUID@@PEAPEAX@Z 0000000180001f98 f i BumpBar.obj
 0001:00000fa4       ?AddRef@?$CComContainedObject@VCOPOSBumpBar@@@ATL@@WNI@EAAKXZ 0000000180001fa4 f i BumpBar.obj
 0001:00000fb0       ?Release@?$CComContainedObject@VCOPOSBumpBar@@@ATL@@WNI@EAAKXZ 0000000180001fb0 f i BumpBar.obj
 0001:00000fbc       ?QueryInterface@?$CComContainedObject@VCOPOSBumpBar@@@ATL@@WOA@EAAJAEBU_GUID@@PEAPEAX@Z 0000000180001fbc f i BumpBar.obj
 0001:00000fc8       ?AddRef@?$CComContainedObject@VCOPOSBumpBar@@@ATL@@WOA@EAAKXZ 0000000180001fc8 f i BumpBar.obj
 0001:00000fd4       ?Release@?$CComContainedObject@VCOPOSBumpBar@@@ATL@@WOA@EAAKXZ 0000000180001fd4 f i BumpBar.obj
 0001:00000fe0       ?QueryInterface@?$CComContainedObject@VCOPOSBumpBar@@@ATL@@WOI@EAAJAEBU_GUID@@PEAPEAX@Z 0000000180001fe0 f i BumpBar.obj
 0001:00000fec       ?AddRef@?$CComContainedObject@VCOPOSBumpBar@@@ATL@@WOI@EAAKXZ 0000000180001fec f i BumpBar.obj
 0001:00000ff8       ?Release@?$CComContainedObject@VCOPOSBumpBar@@@ATL@@WOI@EAAKXZ 0000000180001ff8 f i BumpBar.obj
 0001:00001004       ?QueryInterface@?$CComContainedObject@VCOPOSBumpBar@@@ATL@@WPA@EAAJAEBU_GUID@@PEAPEAX@Z 0000000180002004 f i BumpBar.obj
 0001:00001010       ?AddRef@?$CComContainedObject@VCOPOSBumpBar@@@ATL@@WPA@EAAKXZ 0000000180002010 f i BumpBar.obj
 0001:0000101c       ?Release@?$CComContainedObject@VCOPOSBumpBar@@@ATL@@WPA@EAAKXZ 000000018000201c f i BumpBar.obj
 0001:00001028       ?QueryInterface@?$CComContainedObject@VCOPOSBumpBar@@@ATL@@WPI@EAAJAEBU_GUID@@PEAPEAX@Z 0000000180002028 f i BumpBar.obj
 0001:00001034       ?AddRef@?$CComContainedObject@VCOPOSBumpBar@@@ATL@@WPI@EAAKXZ 0000000180002034 f i BumpBar.obj
 0001:00001040       ?Release@?$CComContainedObject@VCOPOSBumpBar@@@ATL@@WPI@EAAKXZ 0000000180002040 f i BumpBar.obj
 0001:0000104c       ?QueryInterface@?$CComContainedObject@VCOPOSBumpBar@@@ATL@@WBAA@EAAJAEBU_GUID@@PEAPEAX@Z 000000018000204c f i BumpBar.obj
 0001:00001058       ?AddRef@?$CComContainedObject@VCOPOSBumpBar@@@ATL@@WBAA@EAAKXZ 0000000180002058 f i BumpBar.obj
 0001:00001064       ?Release@?$CComContainedObject@VCOPOSBumpBar@@@ATL@@WBAA@EAAKXZ 0000000180002064 f i BumpBar.obj
 0001:00001070       ?QueryInterface@?$CComContainedObject@VCOPOSBumpBar@@@ATL@@WBAI@EAAJAEBU_GUID@@PEAPEAX@Z 0000000180002070 f i BumpBar.obj
 0001:0000107c       ?AddRef@?$CComContainedObject@VCOPOSBumpBar@@@ATL@@WBAI@EAAKXZ 000000018000207c f i BumpBar.obj
 0001:00001088       ?Release@?$CComContainedObject@VCOPOSBumpBar@@@ATL@@WBAI@EAAKXZ 0000000180002088 f i BumpBar.obj
 0001:00001094       ?QueryInterface@?$CComContainedObject@VCOPOSBumpBar@@@ATL@@WBBA@EAAJAEBU_GUID@@PEAPEAX@Z 0000000180002094 f i BumpBar.obj
 0001:000010a0       ?AddRef@?$CComContainedObject@VCOPOSBumpBar@@@ATL@@WBBA@EAAKXZ 00000001800020a0 f i BumpBar.obj
 0001:000010ac       ?Release@?$CComContainedObject@VCOPOSBumpBar@@@ATL@@WBBA@EAAKXZ 00000001800020ac f i BumpBar.obj
 0001:000010b8       ?QueryInterface@?$CComContainedObject@VCOPOSBumpBar@@@ATL@@WBBI@EAAJAEBU_GUID@@PEAPEAX@Z 00000001800020b8 f i BumpBar.obj
 0001:000010c4       ?AddRef@?$CComContainedObject@VCOPOSBumpBar@@@ATL@@WBBI@EAAKXZ 00000001800020c4 f i BumpBar.obj
 0001:000010d0       ?Release@?$CComContainedObject@VCOPOSBumpBar@@@ATL@@WBBI@EAAKXZ 00000001800020d0 f i BumpBar.obj
 0001:000010dc       ?AddRef@?$CComContainedObject@VCOPOSBumpBar@@@ATL@@WBCI@EAAKXZ 00000001800020dc f i BumpBar.obj
 0001:000010e8       ?Release@?$CComContainedObject@VCOPOSBumpBar@@@ATL@@WBCI@EAAKXZ 00000001800020e8 f i BumpBar.obj
 0001:000010f4       ?AddRef@?$CComContainedObject@VCOPOSBumpBar@@@ATL@@WBEA@EAAKXZ 00000001800020f4 f i BumpBar.obj
 0001:00001100       ?Release@?$CComContainedObject@VCOPOSBumpBar@@@ATL@@WBEA@EAAKXZ 0000000180002100 f i BumpBar.obj
 0001:0000110c       ?GetWindowProc@?$CWindowImplBaseT@VCWindow@ATL@@V?$CWinTraits@$0FGAAAAAA@$0A@@2@@ATL@@UEAAP6A_JPEAUHWND__@@I_K_J@ZXZ 000000018000210c f i BumpBar.obj
 0001:00001114       ?StartWindowProc@?$CWindowImplBaseT@VCWindow@ATL@@V?$CWinTraits@$0FGAAAAAA@$0A@@2@@ATL@@SA_JPEAUHWND__@@I_K_J@Z 0000000180002114 f i BumpBar.obj
 0001:000011c8       ?GetTypeInfoCount@?$IDispatchImpl@UIOPOSBumpBar@@$1?IID_IOPOSBumpBar@@3U_GUID@@B$1?LIBID_OposBumpBar_CCO@@3U3@B$00$0A@VCComTypeInfoHolder@ATL@@@ATL@@UEAAJPEAI@Z 00000001800021c8 f i BumpBar.obj
 0001:000011dc       ?GetTypeInfo@?$IDispatchImpl@UIOPOSBumpBar@@$1?IID_IOPOSBumpBar@@3U_GUID@@B$1?LIBID_OposBumpBar_CCO@@3U3@B$00$0A@VCComTypeInfoHolder@ATL@@@ATL@@UEAAJIKPEAPEAUITypeInfo@@@Z 00000001800021dc f i BumpBar.obj
 0001:00001240       ?GetIDsOfNames@?$IDispatchImpl@UIOPOSBumpBar@@$1?IID_IOPOSBumpBar@@3U_GUID@@B$1?LIBID_OposBumpBar_CCO@@3U3@B$00$0A@VCComTypeInfoHolder@ATL@@@ATL@@UEAAJAEBU_GUID@@PEAPEA_WIKPEAJ@Z 0000000180002240 f i BumpBar.obj
 0001:0000124c       ?Invoke@?$IDispatchImpl@UIOPOSBumpBar@@$1?IID_IOPOSBumpBar@@3U_GUID@@B$1?LIBID_OposBumpBar_CCO@@3U3@B$00$0A@VCComTypeInfoHolder@ATL@@@ATL@@UEAAJJAEBU_GUID@@KGPEAUtagDISPPARAMS@@PEAUtagVARIANT@@PEAUtagEXCEPINFO@@PEAI@Z 000000018000224c f i BumpBar.obj
 0001:000012dc       ?CreateControlWindow@?$CComControl@VCOPOSBumpBar@@V?$CWindowImpl@VCOPOSBumpBar@@VCWindow@ATL@@V?$CWinTraits@$0FGAAAAAA@$0A@@3@@ATL@@@ATL@@UEAAPEAUHWND__@@PEAU3@AEAUtagRECT@@@Z 00000001800022dc f i BumpBar.obj
 0001:00001314       ?ControlQueryInterface@?$CComControl@VCOPOSBumpBar@@V?$CWindowImpl@VCOPOSBumpBar@@VCWindow@ATL@@V?$CWinTraits@$0FGAAAAAA@$0A@@3@@ATL@@@ATL@@UEAAJAEBU_GUID@@PEAPEAX@Z 0000000180002314 f i BumpBar.obj
 0001:00001328       ?GetUserClassID@?$IOleObjectImpl@VCOPOSBumpBar@@@ATL@@UEAAJPEAU_GUID@@@Z 0000000180002328 f i BumpBar.obj
 0001:00001328       ?GetClassID@?$IPersistStreamInitImpl@VCOPOSBumpBar@@@ATL@@UEAAJPEAU_GUID@@@Z 0000000180002328 f i BumpBar.obj
 0001:00001328       ?GetClassID@?$IPersistStorageImpl@VCOPOSBumpBar@@@ATL@@UEAAJPEAU_GUID@@@Z 0000000180002328 f i BumpBar.obj
 0001:00001344       ?IsDirty@?$IPersistStreamInitImpl@VCOPOSBumpBar@@@ATL@@UEAAJXZ 0000000180002344 f i BumpBar.obj
 0001:00001360       ?Load@?$IPersistStreamInitImpl@VCOPOSBumpBar@@@ATL@@UEAAJPEAUIStream@@@Z 0000000180002360 f i BumpBar.obj
 0001:00001378       ?Save@?$IPersistStreamInitImpl@VCOPOSBumpBar@@@ATL@@UEAAJPEAUIStream@@H@Z 0000000180002378 f i BumpBar.obj
 0001:00001390       ?GetSizeMax@?$IPersistStreamInitImpl@VCOPOSBumpBar@@@ATL@@UEAAJPEAT_ULARGE_INTEGER@@@Z 0000000180002390 f i BumpBar.obj
 0001:000015b4       ?InitNew@?$IPersistStreamInitImpl@VCOPOSBumpBar@@@ATL@@UEAAJXZ 00000001800025b4 f i BumpBar.obj
 0001:000015cc       ?ReactivateAndUndo@?$IOleInPlaceObjectWindowlessImpl@VCOPOSBumpBar@@@ATL@@UEAAJXZ 00000001800025cc f i BumpBar.obj
 0001:000015cc       ?SetData@?$IDataObjectImpl@VCOPOSBumpBar@@@ATL@@UEAAJPEAUtagFORMATETC@@PEAUtagSTGMEDIUM@@H@Z 00000001800025cc f i BumpBar.obj
 0001:000015cc       ?EnumFormatEtc@?$IDataObjectImpl@VCOPOSBumpBar@@@ATL@@UEAAJKPEAPEAUIEnumFORMATETC@@@Z 00000001800025cc f i BumpBar.obj
 0001:000015cc       ?InitFromData@?$IOleObjectImpl@VCOPOSBumpBar@@@ATL@@UEAAJPEAUIDataObject@@HK@Z 00000001800025cc f i BumpBar.obj
 0001:000015cc       ?GetDropTarget@?$IOleInPlaceObjectWindowlessImpl@VCOPOSBumpBar@@@ATL@@UEAAJPEAPEAUIDropTarget@@@Z 00000001800025cc f i BumpBar.obj
 0001:000015cc       ?OnMnemonic@?$IOleControlImpl@VCOPOSBumpBar@@@ATL@@UEAAJPEAUtagMSG@@@Z 00000001800025cc f i BumpBar.obj
 0001:000015cc       ?GetCanonicalFormatEtc@?$IDataObjectImpl@VCOPOSBumpBar@@@ATL@@UEAAJPEAUtagFORMATETC@@0@Z 00000001800025cc f i BumpBar.obj
 0001:000015cc       ?Unfreeze@?$IViewObjectExImpl@VCOPOSBumpBar@@@ATL@@UEAAJK@Z 00000001800025cc f i BumpBar.obj
 0001:000015cc       ?ContextSensitiveHelp@?$IOleInPlaceObjectWindowlessImpl@VCOPOSBumpBar@@@ATL@@UEAAJH@Z 00000001800025cc f i BumpBar.obj
 0001:000015cc       ?SetColorScheme@?$IOleObjectImpl@VCOPOSBumpBar@@@ATL@@UEAAJPEAUtagLOGPALETTE@@@Z 00000001800025cc f i BumpBar.obj
 0001:000015cc       ?GetMoniker@?$IOleObjectImpl@VCOPOSBumpBar@@@ATL@@UEAAJKKPEAPEAUIMoniker@@@Z 00000001800025cc f i BumpBar.obj
 0001:000015cc       ?Freeze@?$IViewObjectExImpl@VCOPOSBumpBar@@@ATL@@UEAAJKJPEAXPEAK@Z 00000001800025cc f i BumpBar.obj
 0001:000015cc       ?GetControlInfo@?$IOleControlImpl@VCOPOSBumpBar@@@ATL@@UEAAJPEAUtagCONTROLINFO@@@Z 00000001800025cc f i BumpBar.obj
 0001:000015cc       ?GetClipboardData@?$IOleObjectImpl@VCOPOSBumpBar@@@ATL@@UEAAJKPEAPEAUIDataObject@@@Z 00000001800025cc f i BumpBar.obj
 0001:000015cc       ?GetColorSet@?$IViewObjectExImpl@VCOPOSBumpBar@@@ATL@@UEAAJKJPEAXPEAUtagDVTARGETDEVICE@@PEAUHDC__@@PEAPEAUtagLOGPALETTE@@@Z 00000001800025cc f i BumpBar.obj
 0001:000015cc       ?ContextSensitiveHelp@?$IOleInPlaceActiveObjectImpl@VCOPOSBumpBar@@@ATL@@UEAAJH@Z 00000001800025cc f i BumpBar.obj
 0001:000015cc       ?QueryGetData@?$IDataObjectImpl@VCOPOSBumpBar@@@ATL@@UEAAJPEAUtagFORMATETC@@@Z 00000001800025cc f i BumpBar.obj
 0001:000015cc       ?SetMoniker@?$IOleObjectImpl@VCOPOSBumpBar@@@ATL@@UEAAJKPEAUIMoniker@@@Z 00000001800025cc f i BumpBar.obj
 0001:000015cc       ?GetDataHere@?$IDataObjectImpl@VCOPOSBumpBar@@@ATL@@UEAAJPEAUtagFORMATETC@@PEAUtagSTGMEDIUM@@@Z 00000001800025cc f i BumpBar.obj
 0001:000015cc       ?GetRect@?$IViewObjectExImpl@VCOPOSBumpBar@@@ATL@@UEAAJKPEAU_RECTL@@@Z 00000001800025cc f i BumpBar.obj
 0001:000015cc       ?QueryInterface@CRegObject@ATL@@UEAAJAEBU_GUID@@PEAPEAX@Z 00000001800025cc f i BumpBar.obj
 0001:000015d4       ?SetClientSite@?$IOleObjectImpl@VCOPOSBumpBar@@@ATL@@UEAAJPEAUIOleClientSite@@@Z 00000001800025d4 f i BumpBar.obj
 0001:000015f0       ?GetClientSite@?$IOleObjectImpl@VCOPOSBumpBar@@@ATL@@UEAAJPEAPEAUIOleClientSite@@@Z 00000001800025f0 f i BumpBar.obj
 0001:00001638       ?Close@?$IOleObjectImpl@VCOPOSBumpBar@@@ATL@@UEAAJK@Z 0000000180002638 f i BumpBar.obj
 0001:00001654       ?DoVerb@?$IOleObjectImpl@VCOPOSBumpBar@@@ATL@@UEAAJJPEAUtagMSG@@PEAUIOleClientSite@@JPEAUHWND__@@PEBUtagRECT@@@Z 0000000180002654 f i BumpBar.obj
 0001:000017f8       ?EnumVerbs@?$IOleObjectImpl@VCOPOSBumpBar@@@ATL@@UEAAJPEAPEAUIEnumOLEVERB@@@Z 00000001800027f8 f i BumpBar.obj
 0001:00001814       ?GetUserType@?$IOleObjectImpl@VCOPOSBumpBar@@@ATL@@UEAAJKPEAPEA_W@Z 0000000180002814 f i BumpBar.obj
 0001:00001824       ?SetExtent@?$IOleObjectImpl@VCOPOSBumpBar@@@ATL@@UEAAJKPEAUtagSIZE@@@Z 0000000180002824 f i BumpBar.obj
 0001:00001840       ?GetExtent@?$IOleObjectImpl@VCOPOSBumpBar@@@ATL@@UEAAJKPEAUtagSIZE@@@Z 0000000180002840 f i BumpBar.obj
 0001:00001870       ?Advise@?$IOleObjectImpl@VCOPOSBumpBar@@@ATL@@UEAAJPEAUIAdviseSink@@PEAK@Z 0000000180002870 f i BumpBar.obj
 0001:000018cc       ?Unadvise@?$IOleObjectImpl@VCOPOSBumpBar@@@ATL@@UEAAJK@Z 00000001800028cc f i BumpBar.obj
 0001:00001904       ?EnumAdvise@?$IOleObjectImpl@VCOPOSBumpBar@@@ATL@@UEAAJPEAPEAUIEnumSTATDATA@@@Z 0000000180002904 f i BumpBar.obj
 0001:0000194c       ?GetMiscStatus@?$IOleObjectImpl@VCOPOSBumpBar@@@ATL@@UEAAJKPEAK@Z 000000018000294c f i BumpBar.obj
 0001:0000195c       ?GetWindow@?$IOleInPlaceActiveObjectImpl@VCOPOSBumpBar@@@ATL@@UEAAJPEAPEAUHWND__@@@Z 000000018000295c f i BumpBar.obj
 0001:000019b0       ?TranslateAcceleratorW@?$IOleInPlaceActiveObjectImpl@VCOPOSBumpBar@@@ATL@@UEAAJPEAUtagMSG@@@Z 00000001800029b0 f i BumpBar.obj
 0001:00001aa4       ?OnDocWindowActivate@?$IOleInPlaceActiveObjectImpl@VCOPOSBumpBar@@@ATL@@UEAAJH@Z 0000000180002aa4 f i BumpBar.obj
 0001:00001ad0       ?Draw@?$IViewObjectExImpl@VCOPOSBumpBar@@@ATL@@UEAAJKJPEAXPEAUtagDVTARGETDEVICE@@PEAUHDC__@@2PEBU_RECTL@@3P6AH_K@Z4@Z 0000000180002ad0 f i BumpBar.obj
 0001:00001b34       ?SetAdvise@?$IViewObjectExImpl@VCOPOSBumpBar@@@ATL@@UEAAJKKPEAUIAdviseSink@@@Z 0000000180002b34 f i BumpBar.obj
 0001:00001b88       ?GetAdvise@?$IViewObjectExImpl@VCOPOSBumpBar@@@ATL@@UEAAJPEAK0PEAPEAUIAdviseSink@@@Z 0000000180002b88 f i BumpBar.obj
 0001:00001bc4       ?GetExtent@?$IViewObjectExImpl@VCOPOSBumpBar@@@ATL@@UEAAJKJPEAUtagDVTARGETDEVICE@@PEAUtagSIZE@@@Z 0000000180002bc4 f i BumpBar.obj
 0001:00001bf4       ?GetViewStatus@?$IViewObjectExImpl@VCOPOSBumpBar@@@ATL@@UEAAJPEAK@Z 0000000180002bf4 f i BumpBar.obj
 0001:00001c08       ?QueryHitPoint@?$IViewObjectExImpl@VCOPOSBumpBar@@@ATL@@UEAAJKPEBUtagRECT@@UtagPOINT@@JPEAK@Z 0000000180002c08 f i BumpBar.obj
 0001:00001c4c       ?QueryHitRect@?$IViewObjectExImpl@VCOPOSBumpBar@@@ATL@@UEAAJKPEBUtagRECT@@0JPEAK@Z 0000000180002c4c f i BumpBar.obj
 0001:00001cb4       ?GetNaturalExtent@?$IViewObjectExImpl@VCOPOSBumpBar@@@ATL@@UEAAJKJPEAUtagDVTARGETDEVICE@@PEAUHDC__@@PEAUtagExtentInfo@@PEAUtagSIZE@@@Z 0000000180002cb4 f i BumpBar.obj
 0001:00001cfc       ?GetWindow@?$IOleInPlaceObjectWindowlessImpl@VCOPOSBumpBar@@@ATL@@UEAAJPEAPEAUHWND__@@@Z 0000000180002cfc f i BumpBar.obj
 0001:00001d50       ?InPlaceDeactivate@?$IOleInPlaceObjectWindowlessImpl@VCOPOSBumpBar@@@ATL@@UEAAJXZ 0000000180002d50 f i BumpBar.obj
 0001:00001d6c       ?UIDeactivate@?$IOleInPlaceObjectWindowlessImpl@VCOPOSBumpBar@@@ATL@@UEAAJXZ 0000000180002d6c f i BumpBar.obj
 0001:00001d88       ?SetObjectRects@?$IOleInPlaceObjectWindowlessImpl@VCOPOSBumpBar@@@ATL@@UEAAJPEBUtagRECT@@0@Z 0000000180002d88 f i BumpBar.obj
 0001:00001da4       ?OnWindowMessage@?$IOleInPlaceObjectWindowlessImpl@VCOPOSBumpBar@@@ATL@@UEAAJI_K_JPEA_J@Z 0000000180002da4 f i BumpBar.obj
 0001:00001e6c       ?EnumConnectionPoints@?$IConnectionPointContainerImpl@VCOPOSBumpBar@@@ATL@@UEAAJPEAPEAUIEnumConnectionPoints@@@Z 0000000180002e6c f i BumpBar.obj
 0001:000020b4       ?FindConnectionPoint@?$IConnectionPointContainerImpl@VCOPOSBumpBar@@@ATL@@UEAAJAEBU_GUID@@PEAPEAUIConnectionPoint@@@Z 00000001800030b4 f i BumpBar.obj
 0001:00002184       ?IsDirty@?$IPersistStorageImpl@VCOPOSBumpBar@@@ATL@@UEAAJXZ 0000000180003184 f i BumpBar.obj
 0001:000021c4       ?InitNew@?$IPersistStorageImpl@VCOPOSBumpBar@@@ATL@@UEAAJPEAUIStorage@@@Z 00000001800031c4 f i BumpBar.obj
 0001:00002204       ?Load@?$IPersistStorageImpl@VCOPOSBumpBar@@@ATL@@UEAAJPEAUIStorage@@@Z 0000000180003204 f i BumpBar.obj
 0001:000022a4       ?Save@?$IPersistStorageImpl@VCOPOSBumpBar@@@ATL@@UEAAJPEAUIStorage@@H@Z 00000001800032a4 f i BumpBar.obj
 0001:00002354       ?GetPages@?$ISpecifyPropertyPagesImpl@VCOPOSBumpBar@@@ATL@@UEAAJPEAUtagCAUUID@@@Z 0000000180003354 f i BumpBar.obj
 0001:00002360       ?QuickActivate@?$IQuickActivateImpl@VCOPOSBumpBar@@@ATL@@UEAAJPEAUtagQACONTAINER@@PEAUtagQACONTROL@@@Z 0000000180003360 f i BumpBar.obj
 0001:0000237c       ?SetContentExtent@?$IQuickActivateImpl@VCOPOSBumpBar@@@ATL@@UEAAJPEAUtagSIZE@@@Z 000000018000337c f i BumpBar.obj
 0001:000023b0       ?GetContentExtent@?$IQuickActivateImpl@VCOPOSBumpBar@@@ATL@@UEAAJPEAUtagSIZE@@@Z 00000001800033b0 f i BumpBar.obj
 0001:000023e8       ?GetData@?$IDataObjectImpl@VCOPOSBumpBar@@@ATL@@UEAAJPEAUtagFORMATETC@@PEAUtagSTGMEDIUM@@@Z 00000001800033e8 f i BumpBar.obj
 0001:00002404       ?DAdvise@?$IDataObjectImpl@VCOPOSBumpBar@@@ATL@@UEAAJPEAUtagFORMATETC@@KPEAUIAdviseSink@@PEAK@Z 0000000180003404 f i BumpBar.obj
 0001:0000248c       ?DUnadvise@?$IDataObjectImpl@VCOPOSBumpBar@@@ATL@@UEAAJK@Z 000000018000348c f i BumpBar.obj
 0001:000024b8       ?EnumDAdvise@?$IDataObjectImpl@VCOPOSBumpBar@@@ATL@@UEAAJPEAPEAUIEnumSTATDATA@@@Z 00000001800034b8 f i BumpBar.obj
 0001:000024f4       ?GetClassInfoW@?$IProvideClassInfo2Impl@$1?CLSID_OPOSBumpBar@@3U_GUID@@B$1?DIID__IOPOSBumpBarEvents@@3U2@B$1?LIBID_OposBumpBar_CCO@@3U2@B$00$0A@VCComTypeInfoHolder@ATL@@@ATL@@UEAAJPEAPEAUITypeInfo@@@Z 00000001800034f4 f i BumpBar.obj
 0001:0000254c       ?GetGUID@?$IProvideClassInfo2Impl@$1?CLSID_OPOSBumpBar@@3U_GUID@@B$1?DIID__IOPOSBumpBarEvents@@3U2@B$1?LIBID_OposBumpBar_CCO@@3U2@B$00$0A@VCComTypeInfoHolder@ATL@@@ATL@@UEAAJKPEAU_GUID@@@Z 000000018000354c f i BumpBar.obj
 0001:00002580       ?FAccessAllowed@?$IObjectSafetyImpl@VCOPOSBumpBar@@$02@ATL@@MEAAHXZ 0000000180003580 f i BumpBar.obj
 0001:00002580       ?AddRef@CRegObject@ATL@@UEAAKXZ 0000000180003580 f i BumpBar.obj
 0001:00002580       _get_startup_argv_mode     0000000180003580 f i LIBCMT:argv_mode.obj
 0001:00002588       ?GetInterfaceSafetyOptions@?$IObjectSafetyImpl@VCOPOSBumpBar@@$02@ATL@@UEAAJAEBU_GUID@@PEAK1@Z 0000000180003588 f i BumpBar.obj
 0001:0000261c       ?SetInterfaceSafetyOptions@?$IObjectSafetyImpl@VCOPOSBumpBar@@$02@ATL@@UEAAJAEBU_GUID@@KK@Z 000000018000361c f i BumpBar.obj
 0001:000026c0       ?_LocCPQueryInterface@?$IConnectionPointImpl@VCOPOSBumpBar@@$1?DIID__IOPOSBumpBarEvents@@3U_GUID@@BVCComDynamicUnkArray@ATL@@@ATL@@UEAAJAEBU_GUID@@PEAPEAX@Z 00000001800036c0 f i BumpBar.obj
 0001:000026c0       ?_LocCPQueryInterface@?$IConnectionPointImpl@VCOPOSBumpBar@@$1?IID_IPropertyNotifySink@@3U_GUID@@BVCComDynamicUnkArray@ATL@@@ATL@@UEAAJAEBU_GUID@@PEAPEAX@Z 00000001800036c0 f i BumpBar.obj
 0001:00002734       ?GetConnectionInterface@?$IConnectionPointImpl@VCOPOSBumpBar@@$1?IID_IPropertyNotifySink@@3U_GUID@@BVCComDynamicUnkArray@ATL@@@ATL@@UEAAJPEAU_GUID@@@Z 0000000180003734 f i BumpBar.obj
 0001:00002750       ?GetConnectionPointContainer@?$IConnectionPointImpl@VCOPOSBumpBar@@$1?IID_IPropertyNotifySink@@3U_GUID@@BVCComDynamicUnkArray@ATL@@@ATL@@UEAAJPEAPEAUIConnectionPointContainer@@@Z 0000000180003750 f i BumpBar.obj
 0001:00002770       ?Advise@?$IConnectionPointImpl@VCOPOSBumpBar@@$1?DIID__IOPOSBumpBarEvents@@3U_GUID@@BVCComDynamicUnkArray@ATL@@@ATL@@UEAAJPEAUIUnknown@@PEAK@Z 0000000180003770 f i BumpBar.obj
 0001:00002770       ?Advise@?$IConnectionPointImpl@VCOPOSBumpBar@@$1?IID_IPropertyNotifySink@@3U_GUID@@BVCComDynamicUnkArray@ATL@@@ATL@@UEAAJPEAUIUnknown@@PEAK@Z 0000000180003770 f i BumpBar.obj
 0001:0000282c       ?Unadvise@?$IConnectionPointImpl@VCOPOSBumpBar@@$1?DIID__IOPOSBumpBarEvents@@3U_GUID@@BVCComDynamicUnkArray@ATL@@@ATL@@UEAAJK@Z 000000018000382c f i BumpBar.obj
 0001:0000282c       ?Unadvise@?$IConnectionPointImpl@VCOPOSBumpBar@@$1?IID_IPropertyNotifySink@@3U_GUID@@BVCComDynamicUnkArray@ATL@@@ATL@@UEAAJK@Z 000000018000382c f i BumpBar.obj
 0001:00002894       ?EnumConnections@?$IConnectionPointImpl@VCOPOSBumpBar@@$1?IID_IPropertyNotifySink@@3U_GUID@@BVCComDynamicUnkArray@ATL@@@ATL@@UEAAJPEAPEAUIEnumConnections@@@Z 0000000180003894 f i BumpBar.obj
 0001:00002894       ?EnumConnections@?$IConnectionPointImpl@VCOPOSBumpBar@@$1?DIID__IOPOSBumpBarEvents@@3U_GUID@@BVCComDynamicUnkArray@ATL@@@ATL@@UEAAJPEAPEAUIEnumConnections@@@Z 0000000180003894 f i BumpBar.obj
 0001:00002a28       ?GetConnectionInterface@?$IConnectionPointImpl@VCOPOSBumpBar@@$1?DIID__IOPOSBumpBarEvents@@3U_GUID@@BVCComDynamicUnkArray@ATL@@@ATL@@UEAAJPEAU_GUID@@@Z 0000000180003a28 f i BumpBar.obj
 0001:00002a44       ?GetConnectionPointContainer@?$IConnectionPointImpl@VCOPOSBumpBar@@$1?DIID__IOPOSBumpBarEvents@@3U_GUID@@BVCComDynamicUnkArray@ATL@@@ATL@@UEAAJPEAPEAUIConnectionPointContainer@@@Z 0000000180003a44 f i BumpBar.obj
 0001:00002a64       ?Lock@CAtlModule@ATL@@UEAAJXZ 0000000180003a64 f i BumpBar.obj
 0001:00002a74       ?Unlock@CAtlModule@ATL@@UEAAJXZ 0000000180003a74 f i BumpBar.obj
 0001:00002a80       ?GetLockCount@CAtlModule@ATL@@UEAAJXZ 0000000180003a80 f i BumpBar.obj
 0001:00002a84       ?GetGITPtr@CAtlModule@ATL@@UEAAJPEAPEAUIGlobalInterfaceTable@@@Z 0000000180003a84 f i BumpBar.obj
 0001:00002af4       ?UpdateRegistry@COPOSBumpBar@@SAJH@Z 0000000180003af4 f i BumpBar.obj
 0001:00002b0c       ?ProcessWindowMessage@COPOSBumpBar@@UEAAHPEAUHWND__@@I_K_JAEA_JK@Z 0000000180003b0c f i BumpBar.obj
 0001:00002b9c       ?SOData@COPOSBumpBar@@MEAAJJ@Z 0000000180003b9c f i BumpBar.obj
 0001:00002bec       ?SODirectIO@COPOSBumpBar@@MEAAJJPEAJPEAPEA_W@Z 0000000180003bec f i BumpBar.obj
 0001:00002c64       ?SOError@COPOSBumpBar@@MEAAJJJJPEAJ@Z 0000000180003c64 f i BumpBar.obj
 0001:00002cec       ?SOOutputComplete@COPOSBumpBar@@MEAAJJ@Z 0000000180003cec f i BumpBar.obj
 0001:00002d3c       ?SOStatusUpdate@COPOSBumpBar@@MEAAJJ@Z 0000000180003d3c f i BumpBar.obj
 0001:00002d8c       ?AddCommonRGSReplacements@?$CAtlModuleT@VCComModule@ATL@@@ATL@@UEAAJPEAUIRegistrarBase@@@Z 0000000180003d8c f i BumpBar.obj
 0001:00002da4       ?UpdateRegistryFromResourceD@CComModule@ATL@@UEAAJIHPEAU_ATL_REGMAP_ENTRY@2@@Z 0000000180003da4 f i BumpBar.obj
 0001:00002da4       ?UpdateRegistryFromResourceD@CComModule@ATL@@UEAAJPEB_WHPEAU_ATL_REGMAP_ENTRY@2@@Z 0000000180003da4 f i BumpBar.obj
 0001:00002dac       ?UpdateRegistryFromResource@CComModule@ATL@@UEAAJPEB_WHPEAU_ATL_REGMAP_ENTRY@2@@Z 0000000180003dac f i BumpBar.obj
 0001:00002db4       ?UpdateRegistryFromResource@CComModule@ATL@@UEAAJIHPEAU_ATL_REGMAP_ENTRY@2@@Z 0000000180003db4 f i BumpBar.obj
 0001:00002dbc       ??_ECComModule@ATL@@UEAAPEAXI@Z 0000000180003dbc f i BumpBar.obj
 0001:00002dbc       ??_GCComModule@ATL@@UEAAPEAXI@Z 0000000180003dbc f i BumpBar.obj
 0001:00002dfc       ?CreateInstance@?$CComCreator@V?$CComObjectCached@VCComClassFactory@ATL@@@ATL@@@ATL@@SAJPEAXAEBU_GUID@@PEAPEAX@Z 0000000180003dfc f i BumpBar.obj
 0001:00002f20       ?CreateInstance@?$CComCreator2@V?$CComCreator@V?$CComObject@VCOPOSBumpBar@@@ATL@@@ATL@@V?$CComCreator@V?$CComAggObject@VCOPOSBumpBar@@@ATL@@@2@@ATL@@SAJPEAXAEBU_GUID@@PEAPEAX@Z 0000000180003f20 f i BumpBar.obj
 0001:00002f30       ?AddRef@?$CComObjectCached@VCComClassFactory@ATL@@@ATL@@UEAAKXZ 0000000180003f30 f i BumpBar.obj
 0001:00002f5c       ?Release@?$CComObjectCached@VCComClassFactory@ATL@@@ATL@@UEAAKXZ 0000000180003f5c f i BumpBar.obj
 0001:00002f9c       ?QueryInterface@?$CComObjectCached@VCComClassFactory@ATL@@@ATL@@UEAAJAEBU_GUID@@PEAPEAX@Z 0000000180003f9c f i BumpBar.obj
 0001:00002fb0       ??_G?$CComObjectCached@VCComClassFactory@ATL@@@ATL@@UEAAPEAXI@Z 0000000180003fb0 f i BumpBar.obj
 0001:00002fb0       ??_E?$CComObjectCached@VCComClassFactory@ATL@@@ATL@@UEAAPEAXI@Z 0000000180003fb0 f i BumpBar.obj
 0001:00003008       ?Next@?$CComEnumImpl@UIEnumConnectionPoints@@$1?_GUID_b196b285_bab4_101a_b69c_00aa00341d07@@3U__s_GUID@@BPEAUIConnectionPoint@@V?$_CopyInterface@UIConnectionPoint@@@ATL@@@ATL@@UEAAJKPEAPEAUIConnectionPoint@@PEAK@Z 0000000180004008 f i BumpBar.obj
 0001:000030cc       ?Skip@?$CComEnumImpl@UIEnumConnectionPoints@@$1?_GUID_b196b285_bab4_101a_b69c_00aa00341d07@@3U__s_GUID@@BPEAUIConnectionPoint@@V?$_CopyInterface@UIConnectionPoint@@@ATL@@@ATL@@UEAAJK@Z 00000001800040cc f i BumpBar.obj
 0001:000030f8       ?Clone@?$CComEnumImpl@UIEnumConnectionPoints@@$1?_GUID_b196b285_bab4_101a_b69c_00aa00341d07@@3U__s_GUID@@BPEAUIConnectionPoint@@V?$_CopyInterface@UIConnectionPoint@@@ATL@@@ATL@@UEAAJPEAPEAUIEnumConnectionPoints@@@Z 00000001800040f8 f i BumpBar.obj
 0001:00003224       ?QueryInterface@?$CComObject@V?$CComEnum@UIEnumConnectionPoints@@$1?_GUID_b196b285_bab4_101a_b69c_00aa00341d07@@3U__s_GUID@@BPEAUIConnectionPoint@@V?$_CopyInterface@UIConnectionPoint@@@ATL@@VCComSingleThreadModel@6@@ATL@@@ATL@@UEAAJAEBU_GUID@@PEAPEAX@Z 0000000180004224 f i BumpBar.obj
 0001:00003238       ??_E?$CComObject@V?$CComEnum@UIEnumConnectionPoints@@$1?_GUID_b196b285_bab4_101a_b69c_00aa00341d07@@3U__s_GUID@@BPEAUIConnectionPoint@@V?$_CopyInterface@UIConnectionPoint@@@ATL@@VCComSingleThreadModel@6@@ATL@@@ATL@@UEAAPEAXI@Z 0000000180004238 f i BumpBar.obj
 0001:00003238       ??_G?$CComObject@V?$CComEnum@UIEnumConnectionPoints@@$1?_GUID_b196b285_bab4_101a_b69c_00aa00341d07@@3U__s_GUID@@BPEAUIConnectionPoint@@V?$_CopyInterface@UIConnectionPoint@@@ATL@@VCComSingleThreadModel@6@@ATL@@@ATL@@UEAAPEAXI@Z 0000000180004238 f i BumpBar.obj
 0001:00003290       ?AddReplacement@CRegObject@ATL@@UEAAJPEB_W0@Z 0000000180004290 f i BumpBar.obj
 0001:000032c0       ?ClearReplacements@CRegObject@ATL@@UEAAJXZ 00000001800042c0 f i BumpBar.obj
 0001:000032cc       ??_ECRegObject@ATL@@UEAAPEAXI@Z 00000001800042cc f i BumpBar.obj
 0001:000032cc       ??_GCRegObject@ATL@@UEAAPEAXI@Z 00000001800042cc f i BumpBar.obj
 0001:0000334c       ?AddRef@?$CComAggObject@VCOPOSBumpBar@@@ATL@@UEAAKXZ 000000018000434c f i BumpBar.obj
 0001:00003358       ?Release@?$CComAggObject@VCOPOSBumpBar@@@ATL@@UEAAKXZ 0000000180004358 f i BumpBar.obj
 0001:000033ac       ?QueryInterface@?$CComAggObject@VCOPOSBumpBar@@@ATL@@UEAAJAEBU_GUID@@PEAPEAX@Z 00000001800043ac f i BumpBar.obj
 0001:0000340c       ?AddRef@?$CComContainedObject@VCOPOSBumpBar@@@ATL@@UEAAKXZ 000000018000440c f i BumpBar.obj
 0001:0000341c       ?Release@?$CComContainedObject@VCOPOSBumpBar@@@ATL@@UEAAKXZ 000000018000441c f i BumpBar.obj
 0001:0000342c       ?QueryInterface@?$CComContainedObject@VCOPOSBumpBar@@@ATL@@UEAAJAEBU_GUID@@PEAPEAX@Z 000000018000442c f i BumpBar.obj
 0001:0000343c       ??_E?$CComAggObject@VCOPOSBumpBar@@@ATL@@UEAAPEAXI@Z 000000018000443c f i BumpBar.obj
 0001:0000343c       ??_G?$CComAggObject@VCOPOSBumpBar@@@ATL@@UEAAPEAXI@Z 000000018000443c f i BumpBar.obj
 0001:00003494       ?AddRef@?$CComObject@VCOPOSBumpBar@@@ATL@@UEAAKXZ 0000000180004494 f i BumpBar.obj
 0001:000034a4       ?Release@?$CComObject@VCOPOSBumpBar@@@ATL@@UEAAKXZ 00000001800044a4 f i BumpBar.obj
 0001:000034fc       ?QueryInterface@?$CComObject@VCOPOSBumpBar@@@ATL@@UEAAJAEBU_GUID@@PEAPEAX@Z 00000001800044fc f i BumpBar.obj
 0001:00003510       ?OnDrawAdvanced@CComControlBase@ATL@@UEAAJAEAUATL_DRAWINFO@@@Z 0000000180004510 f i BumpBar.obj
 0001:0000369c       ??$AtlModuleRegisterWndClassInfoT@VAtlModuleRegisterWndClassInfoParamW@ATL@@@ATL@@YAGPEAU_ATL_BASE_MODULE70@0@PEAU_ATL_WIN_MODULE70@0@PEAU_ATL_WNDCLASSINFOW@0@PEAP6A_JPEAUHWND__@@I_K_J@ZVAtlModuleRegisterWndClassInfoParamW@0@@Z 000000018000469c f i BumpBar.obj
 0001:0000389c       ??0?$CComContainedObject@VCOPOSBumpBar@@@ATL@@QEAA@PEAX@Z 000000018000489c f i BumpBar.obj
 0001:000039b8       ??0?$CComObject@VCOPOSBumpBar@@@ATL@@QEAA@PEAX@Z 00000001800049b8 f i BumpBar.obj
 0001:00003ad0       ??0CAtlModule@ATL@@QEAA@XZ 0000000180004ad0 f i BumpBar.obj
 0001:00003b44       ??1?$CComEnumImpl@UIEnumConnectionPoints@@$1?_GUID_b196b285_bab4_101a_b69c_00aa00341d07@@3U__s_GUID@@BPEAUIConnectionPoint@@V?$_CopyInterface@UIConnectionPoint@@@ATL@@@ATL@@UEAA@XZ 0000000180004b44 f i BumpBar.obj
 0001:00003b9c       ??1?$CComEnumImpl@UIEnumConnections@@$1?_GUID_b196b287_bab4_101a_b69c_00aa00341d07@@3U__s_GUID@@BUtagCONNECTDATA@@V?$_Copy@UtagCONNECTDATA@@@ATL@@@ATL@@UEAA@XZ 0000000180004b9c f i BumpBar.obj
 0001:00003bf4       ??1?$CComObject@VCOPOSBumpBar@@@ATL@@UEAA@XZ 0000000180004bf4 f i BumpBar.obj
 0001:00003d14       ??_E?$CComContainedObject@VCOPOSBumpBar@@@ATL@@UEAAPEAXI@Z 0000000180004d14 f i BumpBar.obj
 0001:00003d14       ??_G?$CComContainedObject@VCOPOSBumpBar@@@ATL@@UEAAPEAXI@Z 0000000180004d14 f i BumpBar.obj
 0001:00003d48       ??_G?$CComObject@VCOPOSBumpBar@@@ATL@@UEAAPEAXI@Z 0000000180004d48 f i BumpBar.obj
 0001:00003d48       ??_E?$CComObject@VCOPOSBumpBar@@@ATL@@UEAAPEAXI@Z 0000000180004d48 f i BumpBar.obj
 0001:00003d7c       ?Add@?$CSimpleArray@GV?$CSimpleArrayEqualHelper@G@ATL@@@ATL@@QEAAHAEBG@Z 0000000180004d7c f i BumpBar.obj
 0001:00003e1c       ?Add@?$CSimpleMap@PEA_WPEA_WVCExpansionVectorEqualHelper@ATL@@@ATL@@QEAAHAEBQEA_W0@Z 0000000180004e1c f i BumpBar.obj
 0001:00003eb8       ?Add@CComDynamicUnkArray@ATL@@QEAAKPEAUIUnknown@@@Z 0000000180004eb8 f i BumpBar.obj
 0001:00003f9c       ?Add@CExpansionVector@ATL@@QEAAHPEB_W0@Z 0000000180004f9c f i BumpBar.obj
 0001:000040d0       ?AddTermFunc@CAtlModule@ATL@@QEAAJP6AX_K@Z0@Z 00000001800050d0 f i BumpBar.obj
 0001:0000416c       ?AddValue@CRegParser@ATL@@IEAAJAEAVCRegKey@2@PEB_WPEA_W@Z 000000018000516c f i BumpBar.obj
 0001:0000457c       ?AllocateHeap@?$CTempBuffer@_W$0EAA@VCCRTAllocator@ATL@@@ATL@@AEAAX_K@Z 000000018000557c f i BumpBar.obj
 0001:0000457c       ?AllocateHeap@?$CTempBuffer@E$0BAA@VCCRTAllocator@ATL@@@ATL@@AEAAX_K@Z 000000018000557c f i BumpBar.obj
 0001:0000457c       ?AllocateHeap@?$CTempBuffer@_W$0BAA@VCCRTAllocator@ATL@@@ATL@@AEAAX_K@Z 000000018000557c f i BumpBar.obj
 0001:000045a8       ?Append@CParseBuffer@CRegParser@ATL@@QEAAHPEB_WH@Z 00000001800055a8 f i BumpBar.obj
 0001:000046dc       ?AtlComModuleGetClassObject@ATL@@YAJPEAU_ATL_COM_MODULE70@1@AEBU_GUID@@1PEAPEAX@Z 00000001800056dc f i BumpBar.obj
 0001:00004818       ?AtlComModuleRegisterServer@ATL@@YAJPEAU_ATL_COM_MODULE70@1@HPEBU_GUID@@@Z 0000000180005818 f i BumpBar.obj
 0001:000048d8       ?AtlComModuleUnregisterServer@ATL@@YAJPEAU_ATL_COM_MODULE70@1@HPEBU_GUID@@@Z 00000001800058d8 f i BumpBar.obj
 0001:00004994       ?AtlHiMetricToPixel@ATL@@YAXPEBUtagSIZE@@PEAU2@@Z 0000000180005994 f i BumpBar.obj
 0001:00004a44       ?AtlHresultFromLastError@ATL@@YAJXZ 0000000180005a44 f i BumpBar.obj
 0001:00004a64       ?AtlHresultFromWin32@ATL@@YAJK@Z 0000000180005a64 f i BumpBar.obj
 0001:00004a74       ?AtlInternalOleLoadFromStream@ATL@@YAJPEAUIStream@@AEBU_GUID@@PEAPEAXTClassesAllowedInStream@1@K@Z 0000000180005a74 f i BumpBar.obj
 0001:00004bc4       ?AtlInternalQueryInterface@ATL@@YAJPEAXPEBU_ATL_INTMAP_ENTRY@1@AEBU_GUID@@PEAPEAX@Z 0000000180005bc4 f i BumpBar.obj
 0001:00004ccc       ?AtlLoadTypeLib@ATL@@YAJPEAUHINSTANCE__@@PEB_WPEAPEA_WPEAPEAUITypeLib@@@Z 0000000180005ccc f i BumpBar.obj
 0001:00004f28       ?AtlRegisterClassCategoriesHelper@ATL@@YAJAEBU_GUID@@PEBU_ATL_CATMAP_ENTRY@1@H@Z 0000000180005f28 f i BumpBar.obj
 0001:000053ac       ?AtlRegisterTypeLib@ATL@@YAJPEAUHINSTANCE__@@PEB_W@Z 00000001800063ac f i BumpBar.obj
 0001:000055a8       ?AtlThrowImpl@ATL@@YAXJ@Z  00000001800065a8 f i BumpBar.obj
 0001:000055cc       ?AtlUnRegisterTypeLib@ATL@@YAJPEAUHINSTANCE__@@PEB_W@Z 00000001800065cc f i BumpBar.obj
 0001:00005694       ?AtlWinModuleExtractCreateWndData@ATL@@YAPEAXPEAU_ATL_WIN_MODULE70@1@@Z 0000000180006694 f i BumpBar.obj
 0001:00005720       ?ChToByte@CRegParser@ATL@@KAE_W@Z 0000000180006720 f i BumpBar.obj
 0001:000057ac       ?Cleanup@CComTypeInfoHolder@ATL@@SAX_K@Z 00000001800067ac f i BumpBar.obj
 0001:000057ec       ?ClearReplacements@CExpansionVector@ATL@@QEAAJXZ 00000001800067ec f i BumpBar.obj
 0001:00005888       ?CreateInstance@?$CComCreator@V?$CComAggObject@VCOPOSBumpBar@@@ATL@@@ATL@@SAJPEAXAEBU_GUID@@PEAPEAX@Z 0000000180006888 f i BumpBar.obj
 0001:0000596c       ?CreateInstance@?$CComCreator@V?$CComObject@VCOPOSBumpBar@@@ATL@@@ATL@@SAJPEAXAEBU_GUID@@PEAPEAX@Z 000000018000696c f i BumpBar.obj
 0001:00005a2c       ?CreateInstance@?$CComObject@V?$CComEnum@UIEnumConnectionPoints@@$1?_GUID_b196b285_bab4_101a_b69c_00aa00341d07@@3U__s_GUID@@BPEAUIConnectionPoint@@V?$_CopyInterface@UIConnectionPoint@@@ATL@@VCComSingleThreadModel@6@@ATL@@@ATL@@SAJPEAPEAV12@@Z 0000000180006a2c f i BumpBar.obj
 0001:00005abc       ?CreateInstance@?$CComObject@V?$CComEnum@UIEnumConnections@@$1?_GUID_b196b287_bab4_101a_b69c_00aa00341d07@@3U__s_GUID@@BUtagCONNECTDATA@@V?$_Copy@UtagCONNECTDATA@@@ATL@@VCComSingleThreadModel@6@@ATL@@@ATL@@SAJPEAPEAV12@@Z 0000000180006abc f i BumpBar.obj
 0001:00005b4c       ?DefaultReflectionHandler@?$CWindowImplRoot@VCWindow@ATL@@@ATL@@SAHPEAUHWND__@@I_K_JAEA_J@Z 0000000180006b4c f i BumpBar.obj
 0001:00005be0       ?DeleteSubKey@CRegKey@ATL@@QEAAJPEB_W@Z 0000000180006be0 f i BumpBar.obj
 0001:00005c78       ?DoEvent@COPOSBumpBar@@IEAAXI_K_J@Z 0000000180006c78 f i BumpBar.obj
 0001:00005d2c       ?DoVerbPrimary@?$IOleObjectImpl@VCOPOSBumpBar@@@ATL@@QEAAJPEBUtagRECT@@PEAUHWND__@@@Z 0000000180006d2c f i BumpBar.obj
 0001:00005e58       ?DoVerbProperties@CComControlBase@ATL@@QEAAJPEBUtagRECT@@PEAUHWND__@@@Z 0000000180006e58 f i BumpBar.obj
 0001:00006080       ?FireTheEvent@?$CProxy_IOPOSEvents@VCOPOSBumpBar@@@@IEAAXPEAVOposVariant@@IAEAJPEB_WJ@Z 0000000180007080 f i BumpBar.obj
 0001:0000616c       ?FireViewChange@CComControlBase@ATL@@QEAAJXZ 000000018000716c f i BumpBar.obj
 0001:000061d0       ?Fire_DataEvent@?$CProxy_IOPOSEvents@VCOPOSBumpBar@@@@QEAAXJ@Z 00000001800071d0 f i BumpBar.obj
 0001:000062bc       ?Fire_DirectIOEvent@?$CProxy_IOPOSEvents@VCOPOSBumpBar@@@@QEAAXJPEAJPEAPEA_W@Z 00000001800072bc f i BumpBar.obj
 0001:0000641c       ?Fire_ErrorEvent@?$CProxy_IOPOSEvents@VCOPOSBumpBar@@@@QEAAXJJJPEAJ@Z 000000018000741c f i BumpBar.obj
 0001:00006590       ?Fire_OutputCompleteEvent@?$CProxy_IOPOSEvents@VCOPOSBumpBar@@@@QEAAXJ@Z 0000000180007590 f i BumpBar.obj
 0001:0000667c       ?Fire_StatusUpdateEvent@?$CProxy_IOPOSEvents@VCOPOSBumpBar@@@@QEAAXJ@Z 000000018000767c f i BumpBar.obj
 0001:00006768       ?FreeHeap@?$CTempBuffer@E$0BAA@VCCRTAllocator@ATL@@@ATL@@AEAAXXZ 0000000180007768 f i BumpBar.obj
 0001:00006768       ?FreeHeap@?$CTempBuffer@_W$0EAA@VCCRTAllocator@ATL@@@ATL@@AEAAXXZ 0000000180007768 f i BumpBar.obj
 0001:00006768       ?FreeHeap@?$CTempBuffer@_W$0BAA@VCCRTAllocator@ATL@@@ATL@@AEAAXXZ 0000000180007768 f i BumpBar.obj
 0001:00006770       ?GetAmbientLocaleID@CComControlBase@ATL@@QEAAJAEAK@Z 0000000180007770 f i BumpBar.obj
 0001:00006830       ?GetAmbientUserMode@CComControlBase@ATL@@QEAAJAEAH@Z 0000000180007830 f i BumpBar.obj
 0001:00006900       ?GetClassObject@CComModule@ATL@@QEAAJAEBU_GUID@@0PEAPEAX@Z 0000000180007900 f i BumpBar.obj
 0001:000069f4       ?GetConnMap@COPOSBumpBar@@SAPEBU_ATL_CONNMAP_ENTRY@ATL@@PEAH@Z 00000001800079f4 f i BumpBar.obj
 0001:00006a7c       ?GetIDsOfNames@CComTypeInfoHolder@ATL@@QEAAJAEBU_GUID@@PEAPEA_WIKPEAJ@Z 0000000180007a7c f i BumpBar.obj
 0001:00006bec       ?GetPagesHelper@?$ISpecifyPropertyPagesImpl@VCOPOSBumpBar@@@ATL@@IEAAJPEAUtagCAUUID@@PEBUATL_PROPMAP_ENTRY@2@@Z 0000000180007bec f i BumpBar.obj
 0001:00006d8c       ?GetSizeMax@CComVariant@ATL@@QEBAJPEAT_ULARGE_INTEGER@@@Z 0000000180007d8c f i BumpBar.obj
 0001:00006fbc       ?GetTI@CComTypeInfoHolder@ATL@@QEAAJK@Z 0000000180007fbc f i BumpBar.obj
 0001:000072a0       ?GetZoomInfo@CComControlBase@ATL@@QEAAXAEAUATL_DRAWINFO@@@Z 00000001800082a0 f i BumpBar.obj
 0001:00007344       ?HKeyFromString@CRegParser@ATL@@KAPEAUHKEY__@@PEA_W@Z 0000000180008344 f i BumpBar.obj
 0001:000073a8       ?IDataObject_GetData@CComControlBase@ATL@@QEAAJPEAUtagFORMATETC@@PEAUtagSTGMEDIUM@@@Z 00000001800083a8 f i BumpBar.obj
 0001:0000759c       ?IOleInPlaceObject_InPlaceDeactivate@CComControlBase@ATL@@QEAAJXZ 000000018000859c f i BumpBar.obj
 0001:0000763c       ?IOleInPlaceObject_SetObjectRects@CComControlBase@ATL@@QEAAJPEBUtagRECT@@0@Z 000000018000863c f i BumpBar.obj
 0001:0000772c       ?IOleInPlaceObject_UIDeactivate@CComControlBase@ATL@@QEAAJXZ 000000018000872c f i BumpBar.obj
 0001:00007838       ?IOleObject_Close@CComControlBase@ATL@@QEAAJK@Z 0000000180008838 f i BumpBar.obj
 0001:00007950       ?IOleObject_SetClientSite@CComControlBase@ATL@@QEAAJPEAUIOleClientSite@@@Z 0000000180008950 f i BumpBar.obj
 0001:000079c4       ?IOleObject_SetExtent@CComControlBase@ATL@@QEAAJKPEAUtagSIZE@@@Z 00000001800089c4 f i BumpBar.obj
 0001:00007a5c       ?IPSI_GetIPersistStreamInit@?$IPersistStorageImpl@VCOPOSBumpBar@@@ATL@@AEAAPEAUIPersistStreamInit@@XZ 0000000180008a5c f i BumpBar.obj
 0001:00007b44       ?IPersistStreamInit_Load@?$IPersistStreamInitImpl@VCOPOSBumpBar@@@ATL@@QEAAJPEAUIStream@@PEBUATL_PROPMAP_ENTRY@2@@Z 0000000180008b44 f i BumpBar.obj
 0001:00007e6c       ?IPersistStreamInit_Save@?$IPersistStreamInitImpl@VCOPOSBumpBar@@@ATL@@QEAAJPEAUIStream@@HPEBUATL_PROPMAP_ENTRY@2@@Z 0000000180008e6c f i BumpBar.obj
 0001:00008108       ?IQuickActivate_QuickActivate@CComControlBase@ATL@@QEAAJPEAUtagQACONTAINER@@PEAUtagQACONTROL@@@Z 0000000180009108 f i BumpBar.obj
 0001:000083cc       ?IViewObject_Draw@CComControlBase@ATL@@QEAAJKJPEAXPEAUtagDVTARGETDEVICE@@PEAUHDC__@@2PEBU_RECTL@@3@Z 00000001800093cc f i BumpBar.obj
 0001:000084e0       ?InPlaceActivate@CComControlBase@ATL@@QEAAJJPEBUtagRECT@@@Z 00000001800094e0 f i BumpBar.obj
 0001:00008810       ?Init@?$CComEnumImpl@UIEnumConnectionPoints@@$1?_GUID_b196b285_bab4_101a_b69c_00aa00341d07@@3U__s_GUID@@BPEAUIConnectionPoint@@V?$_CopyInterface@UIConnectionPoint@@@ATL@@@ATL@@QEAAJPEAPEAUIConnectionPoint@@0PEAUIUnknown@@W4CComEnumFlags@2@@Z 0000000180009810 f i BumpBar.obj
 0001:0000892c       ?Init@?$CComEnumImpl@UIEnumConnections@@$1?_GUID_b196b287_bab4_101a_b69c_00aa00341d07@@3U__s_GUID@@BUtagCONNECTDATA@@V?$_Copy@UtagCONNECTDATA@@@ATL@@@ATL@@QEAAJPEAUtagCONNECTDATA@@0PEAUIUnknown@@W4CComEnumFlags@2@@Z 000000018000992c f i BumpBar.obj
 0001:00008a4c       ?IsEqualObject@?$CComPtrBase@UIOleClientSite@@@ATL@@QEAA_NPEAUIUnknown@@@Z 0000000180009a4c f i BumpBar.obj
 0001:00008ad8       ?LoadNameCache@CComTypeInfoHolder@ATL@@QEAAJPEAUITypeInfo@@@Z 0000000180009ad8 f i BumpBar.obj
 0001:00008c68       ?Lookup@?$CSimpleMap@PEA_WPEA_WVCExpansionVectorEqualHelper@ATL@@@ATL@@QEBAPEA_WAEBQEA_W@Z 0000000180009c68 f i BumpBar.obj
 0001:00008cf0       ?NextToken@CRegParser@ATL@@IEAAJPEA_W@Z 0000000180009cf0 f i BumpBar.obj
 0001:00008e8c       ?OnKillFocus@CComControlBase@ATL@@QEAA_JI_K_JAEAH@Z 0000000180009e8c f i BumpBar.obj
 0001:00008f28       ?OnMouseActivate@CComControlBase@ATL@@QEAA_JI_K_JAEAH@Z 0000000180009f28 f i BumpBar.obj
 0001:00008fc8       ?OnPaint@CComControlBase@ATL@@QEAA_JI_K_JAEAH@Z 0000000180009fc8 f i BumpBar.obj
 0001:000090b4       ?OnSetFocus@CComControlBase@ATL@@QEAA_JI_K_JAEAH@Z 000000018000a0b4 f i BumpBar.obj
 0001:000091bc       ?PreProcessBuffer@CRegParser@ATL@@QEAAJPEA_WPEAPEA_W@Z 000000018000a1bc f i BumpBar.obj
 0001:00009544       ?ProcessWindowMessage@?$CComControl@VCOPOSBumpBar@@V?$CWindowImpl@VCOPOSBumpBar@@VCWindow@ATL@@V?$CWinTraits@$0FGAAAAAA@$0A@@3@@ATL@@@ATL@@UEAAHPEAUHWND__@@I_K_JAEA_JK@Z 000000018000a544 f i BumpBar.obj
 0001:00009630       ?ReadFromStream@CComBSTR@ATL@@QEAAJPEAUIStream@@@Z 000000018000a630 f i BumpBar.obj
 0001:00009780       ?ReadFromStream@CComVariant@ATL@@QEAAJPEAUIStream@@GTClassesAllowedInStream@2@K@Z 000000018000a780 f i BumpBar.obj
 0001:000099c4       ?RecurseDeleteKey@CRegKey@ATL@@QEAAJPEB_W@Z 000000018000a9c4 f i BumpBar.obj
 0001:00009b1c       ?RegCreateKeyExW@CAtlTransactionManager@ATL@@QEAAJPEAUHKEY__@@PEB_WKPEA_WKKQEAU_SECURITY_ATTRIBUTES@@PEAPEAU3@PEAK@Z 000000018000ab1c f i BumpBar.obj
 0001:00009c50       ?RegDeleteKeyW@CAtlTransactionManager@ATL@@QEAAJPEAUHKEY__@@PEB_W@Z 000000018000ac50 f i BumpBar.obj
 0001:00009cdc       ?RegOpenKeyExW@CAtlTransactionManager@ATL@@QEAAJPEAUHKEY__@@PEB_WKKPEAPEAU3@@Z 000000018000acdc f i BumpBar.obj
 0001:00009d94       ?RegisterBuffer@CRegParser@ATL@@QEAAJPEA_WH@Z 000000018000ad94 f i BumpBar.obj
 0001:00009f00       ?RegisterFromResource@CRegObject@ATL@@IEAAJPEB_W00H@Z 000000018000af00 f i BumpBar.obj
 0001:0000a0bc       ?RegisterServer@CComModule@ATL@@QEAAJHPEBU_GUID@@@Z 000000018000b0bc f i BumpBar.obj
 0001:0000a178       ?RegisterSubkeys@CRegParser@ATL@@IEAAJPEA_WPEAUHKEY__@@HH@Z 000000018000b178 f i BumpBar.obj
 0001:0000a9f8       ?SendOnDataChange@CComControlBase@ATL@@QEAAJK@Z 000000018000b9f8 f i BumpBar.obj
 0001:0000aa68       ?SetControlFocus@CComControlBase@ATL@@QEAAHH@Z 000000018000ba68 f i BumpBar.obj
 0001:0000ab38       ?SkipAssignment@CRegParser@ATL@@IEAAJPEA_W@Z 000000018000bb38 f i BumpBar.obj
 0001:0000abf0       ?Term@CAtlModule@ATL@@QEAAXXZ 000000018000bbf0 f i BumpBar.obj
 0001:0000aca8       ?Term@CComModule@ATL@@QEAAXXZ 000000018000bca8 f i BumpBar.obj
 0001:0000ad24       ?UnregisterServer@CComModule@ATL@@QEAAJHPEBU_GUID@@@Z 000000018000bd24 f i BumpBar.obj
 0001:0000add4       ?UpdateRegistryFromResource@CAtlModule@ATL@@QEAAJIHPEAU_ATL_REGMAP_ENTRY@2@@Z 000000018000bdd4 f i BumpBar.obj
 0001:0000b0e0       ?UpdateRegistryFromResource@CAtlModule@ATL@@QEAAJPEB_WHPEAU_ATL_REGMAP_ENTRY@2@@Z 000000018000c0e0 f i BumpBar.obj
 0001:0000b404       ?VTFromRegType@CRegParser@ATL@@KAHPEB_WAEAG@Z 000000018000c404 f i BumpBar.obj
 0001:0000b4a0       ?WindowProc@?$CWindowImplBaseT@VCWindow@ATL@@V?$CWinTraits@$0FGAAAAAA@$0A@@2@@ATL@@SA_JPEAUHWND__@@I_K_J@Z 000000018000c4a0 f i BumpBar.obj
 0001:0000b60c       ?WriteToStream@CComVariant@ATL@@QEAAJPEAUIStream@@@Z 000000018000c60c f i BumpBar.obj
 0001:0000b878       ?WriteToStream@CComVariant@ATL@@QEAAJPEAUIStream@@G@Z 000000018000c878 f i BumpBar.obj
 0001:0000b910       ?_AtlVerifyStackAvailable@_ATL_SAFE_ALLOCA_IMPL@ATL@@YA_N_K@Z 000000018000c910 f i BumpBar.obj
 0001:0000b994       ?atlCreate@?$CWindowImpl@VCOPOSBumpBar@@VCWindow@ATL@@V?$CWinTraits@$0FGAAAAAA@$0A@@3@@ATL@@QEAAPEAUHWND__@@PEAU3@V_U_RECT@2@PEB_WKKV_U_MENUorID@2@PEAX@Z 000000018000c994 f i BumpBar.obj
 0001:0000ba50       ?atlCreate@?$CWindowImplBaseT@VCWindow@ATL@@V?$CWinTraits@$0FGAAAAAA@$0A@@2@@ATL@@QEAAPEAUHWND__@@PEAU3@V_U_RECT@2@PEB_WKKV_U_MENUorID@2@GPEAX@Z 000000018000ca50 f i BumpBar.obj
 0001:0000bbc0       ?ocscpy_s@@YA_NPEA_W_KPEB_W@Z 000000018000cbc0 f i BumpBar.obj
 0001:0000bc70       DllCanUnloadNow            000000018000cc70 f   BumpBar.obj
 0001:0000bc7c       DllGetClassObject          000000018000cc7c f   BumpBar.obj
 0001:0000bc94       DllMain                    000000018000cc94 f   BumpBar.obj
 0001:0000bd3c       DllRegisterServer          000000018000cd3c f   BumpBar.obj
 0001:0000bd50       DllUnregisterServer        000000018000cd50 f   BumpBar.obj
 0001:0000bd64       __local_stdio_printf_options 000000018000cd64 f i BumpBar.obj
 0001:0000bd6c       swprintf_s                 000000018000cd6c f i BumpBar.obj
 0001:0000bdc0       ??0COPOSBumpBar@@QEAA@XZ   000000018000cdc0 f   BumpBarImpl.obj
 0001:0000be90       ??1?$IConnectionPointImpl@VCOPOSBumpBar@@$1?DIID__IOPOSBumpBarEvents@@3U_GUID@@BVCComDynamicUnkArray@ATL@@@ATL@@QEAA@XZ 000000018000ce90 f i BumpBarImpl.obj
 0001:0000be90       ??1?$IConnectionPointImpl@VCOPOSBumpBar@@$1?IID_IPropertyNotifySink@@3U_GUID@@BVCComDynamicUnkArray@ATL@@@ATL@@QEAA@XZ 000000018000ce90 f i BumpBarImpl.obj
 0001:0000beec       ??1CComControlBase@ATL@@UEAA@XZ 000000018000ceec f i BumpBarImpl.obj
 0001:0000bf68       ??1COPOSBumpBar@@UEAA@XZ   000000018000cf68 f   BumpBarImpl.obj
 0001:0000bfcc       ?BumpBarSound@COPOSBumpBar@@UEAAJJJJJJPEAJ@Z 000000018000cfcc f   BumpBarImpl.obj
 0001:0000c0dc       ?CheckHealth@COPOSBumpBar@@UEAAJJPEAJ@Z 000000018000d0dc f   BumpBarImpl.obj
 0001:0000c158       ?ClaimDevice@COPOSBumpBar@@UEAAJJPEAJ@Z 000000018000d158 f   BumpBarImpl.obj
 0001:0000c1f8       ?ClearInput@COPOSBumpBar@@UEAAJPEAJ@Z 000000018000d1f8 f   BumpBarImpl.obj
 0001:0000c220       ?ClearOutput@COPOSBumpBar@@UEAAJPEAJ@Z 000000018000d220 f   BumpBarImpl.obj
 0001:0000c248       ?Close@COPOSBumpBar@@UEAAJPEAJ@Z 000000018000d248 f   BumpBarImpl.obj
 0001:0000c300       ?CompareFirmwareVersion@COPOSBumpBar@@UEAAJPEA_WPEAJ1@Z 000000018000d300 f   BumpBarImpl.obj
 0001:0000c3dc       ?DirectIO@COPOSBumpBar@@UEAAJJPEAJPEAPEA_W0@Z 000000018000d3dc f   BumpBarImpl.obj
 0001:0000c4d8       ?DoInvoke@COPOSBumpBar@@IEAAJJPEAVOposVariant@@IHPEAJ_N@Z 000000018000d4d8 f   BumpBarImpl.obj
 0001:0000c60c       ?EventInit@COPOSBumpBar@@IEAAJXZ 000000018000d60c f i BumpBarImpl.obj
 0001:0000c75c       ?EventUninit@COPOSBumpBar@@IEAAXXZ 000000018000d75c f i BumpBarImpl.obj
 0001:0000c7c0       ?EventWindowProc@COPOSBumpBar@@IEAA_JI_K_J@Z 000000018000d7c0 f i BumpBarImpl.obj
 0001:0000c984       ?FinalConstruct@COPOSBumpBar@@QEAAJXZ 000000018000d984 f   BumpBarImpl.obj
 0001:0000c9c0       ?FreezeEvents@COPOSBumpBar@@MEAAJH@Z 000000018000d9c0 f   BumpBarImpl.obj
 0001:0000ca2c       ?GetOposProp@COPOSBumpBar@@IEAAJJPEAJJ@Z 000000018000da2c f   BumpBarImpl.obj
 0001:0000cb48       ?GetOposProp@COPOSBumpBar@@IEAAJJPEAPEA_WJ@Z 000000018000db48 f   BumpBarImpl.obj
 0001:0000cc74       ?OnDraw@COPOSBumpBar@@MEAAJAEAUATL_DRAWINFO@@@Z 000000018000dc74 f   BumpBarImpl.obj
 0001:0000cd60       ?Open@COPOSBumpBar@@UEAAJPEA_WPEAJ@Z 000000018000dd60 f   BumpBarImpl.obj
 0001:0000d5d8       ?ReleaseDevice@COPOSBumpBar@@UEAAJPEAJ@Z 000000018000e5d8 f   BumpBarImpl.obj
 0001:0000d644       ?ResetStatistics@COPOSBumpBar@@UEAAJPEA_WPEAJ@Z 000000018000e644 f   BumpBarImpl.obj
 0001:0000d6cc       ?RetrieveStatistics@COPOSBumpBar@@UEAAJPEAPEA_WPEAJ@Z 000000018000e6cc f   BumpBarImpl.obj
 0001:0000d754       ?SOProcessID@COPOSBumpBar@@UEAAJPEAJ@Z 000000018000e754 f   BumpBarImpl.obj
 0001:0000d770       ?SetCOFreezeEvents@COPOSBumpBar@@IEAAXF@Z 000000018000e770 f   BumpBarImpl.obj
 0001:0000d854       ?SetKeyTranslation@COPOSBumpBar@@UEAAJJJJPEAJ@Z 000000018000e854 f   BumpBarImpl.obj
 0001:0000d93c       ?SetOposProp@COPOSBumpBar@@IEAAJJJJ@Z 000000018000e93c f   BumpBarImpl.obj
 0001:0000da9c       ?UpdateFirmware@COPOSBumpBar@@UEAAJPEA_WPEAJ@Z 000000018000ea9c f   BumpBarImpl.obj
 0001:0000db24       ?UpdateStatistics@COPOSBumpBar@@UEAAJPEA_WPEAJ@Z 000000018000eb24 f   BumpBarImpl.obj
 0001:0000dbac       ?get_AsyncMode@COPOSBumpBar@@UEAAJPEAF@Z 000000018000ebac f   BumpBarImpl.obj
 0001:0000dbe0       ?get_AutoToneDuration@COPOSBumpBar@@UEAAJPEAJ@Z 000000018000ebe0 f   BumpBarImpl.obj
 0001:0000dbf4       ?get_AutoToneFrequency@COPOSBumpBar@@UEAAJPEAJ@Z 000000018000ebf4 f   BumpBarImpl.obj
 0001:0000dc08       ?get_BinaryConversion@COPOSBumpBar@@UEAAJPEAJ@Z 000000018000ec08 f   BumpBarImpl.obj
 0001:0000dc1c       ?get_BumpBarDataCount@COPOSBumpBar@@UEAAJPEAJ@Z 000000018000ec1c f   BumpBarImpl.obj
 0001:0000dc30       ?get_CapCompareFirmwareVersion@COPOSBumpBar@@UEAAJPEAF@Z 000000018000ec30 f   BumpBarImpl.obj
 0001:0000dc64       ?get_CapPowerReporting@COPOSBumpBar@@UEAAJPEAJ@Z 000000018000ec64 f   BumpBarImpl.obj
 0001:0000dc78       ?get_CapStatisticsReporting@COPOSBumpBar@@UEAAJPEAF@Z 000000018000ec78 f   BumpBarImpl.obj
 0001:0000dcac       ?get_CapTone@COPOSBumpBar@@UEAAJPEAF@Z 000000018000ecac f   BumpBarImpl.obj
 0001:0000dce0       ?get_CapUpdateFirmware@COPOSBumpBar@@UEAAJPEAF@Z 000000018000ece0 f   BumpBarImpl.obj
 0001:0000dd14       ?get_CapUpdateStatistics@COPOSBumpBar@@UEAAJPEAF@Z 000000018000ed14 f   BumpBarImpl.obj
 0001:0000dd48       ?get_CheckHealthText@COPOSBumpBar@@UEAAJPEAPEA_W@Z 000000018000ed48 f   BumpBarImpl.obj
 0001:0000dd5c       ?get_Claimed@COPOSBumpBar@@UEAAJPEAF@Z 000000018000ed5c f   BumpBarImpl.obj
 0001:0000dd90       ?get_ControlObjectDescription@COPOSBumpBar@@UEAAJPEAPEA_W@Z 000000018000ed90 f   BumpBarImpl.obj
 0001:0000ddf4       ?get_ControlObjectVersion@COPOSBumpBar@@UEAAJPEAJ@Z 000000018000edf4 f   BumpBarImpl.obj
 0001:0000de00       ?get_CurrentUnitID@COPOSBumpBar@@UEAAJPEAJ@Z 000000018000ee00 f   BumpBarImpl.obj
 0001:0000de14       ?get_DataCount@COPOSBumpBar@@UEAAJPEAJ@Z 000000018000ee14 f   BumpBarImpl.obj
 0001:0000de28       ?get_DataEventEnabled@COPOSBumpBar@@UEAAJPEAF@Z 000000018000ee28 f   BumpBarImpl.obj
 0001:0000de5c       ?get_DeviceDescription@COPOSBumpBar@@UEAAJPEAPEA_W@Z 000000018000ee5c f   BumpBarImpl.obj
 0001:0000de70       ?get_DeviceEnabled@COPOSBumpBar@@UEAAJPEAF@Z 000000018000ee70 f   BumpBarImpl.obj
 0001:0000dea0       ?get_DeviceName@COPOSBumpBar@@UEAAJPEAPEA_W@Z 000000018000eea0 f   BumpBarImpl.obj
 0001:0000deb4       ?get_ErrorString@COPOSBumpBar@@UEAAJPEAPEA_W@Z 000000018000eeb4 f   BumpBarImpl.obj
 0001:0000dec8       ?get_ErrorUnits@COPOSBumpBar@@UEAAJPEAJ@Z 000000018000eec8 f   BumpBarImpl.obj
 0001:0000dedc       ?get_EventString@COPOSBumpBar@@UEAAJPEAPEA_W@Z 000000018000eedc f   BumpBarImpl.obj
 0001:0000def0       ?get_EventUnitID@COPOSBumpBar@@UEAAJPEAJ@Z 000000018000eef0 f   BumpBarImpl.obj
 0001:0000df04       ?get_EventUnits@COPOSBumpBar@@UEAAJPEAJ@Z 000000018000ef04 f   BumpBarImpl.obj
 0001:0000df18       ?get_FreezeEvents@COPOSBumpBar@@UEAAJPEAF@Z 000000018000ef18 f   BumpBarImpl.obj
 0001:0000df48       ?get_Keys@COPOSBumpBar@@UEAAJPEAJ@Z 000000018000ef48 f   BumpBarImpl.obj
 0001:0000df5c       ?get_OpenResult@COPOSBumpBar@@UEAAJPEAJ@Z 000000018000ef5c f   BumpBarImpl.obj
 0001:0000df68       ?get_OutputID@COPOSBumpBar@@UEAAJPEAJ@Z 000000018000ef68 f   BumpBarImpl.obj
 0001:0000df7c       ?get_PowerNotify@COPOSBumpBar@@UEAAJPEAJ@Z 000000018000ef7c f   BumpBarImpl.obj
 0001:0000df90       ?get_PowerState@COPOSBumpBar@@UEAAJPEAJ@Z 000000018000ef90 f   BumpBarImpl.obj
 0001:0000dfa4       ?get_ResultCode@COPOSBumpBar@@UEAAJPEAJ@Z 000000018000efa4 f   BumpBarImpl.obj
 0001:0000dfe0       ?get_ResultCodeExtended@COPOSBumpBar@@UEAAJPEAJ@Z 000000018000efe0 f   BumpBarImpl.obj
 0001:0000dff4       ?get_ServiceObjectDescription@COPOSBumpBar@@UEAAJPEAPEA_W@Z 000000018000eff4 f   BumpBarImpl.obj
 0001:0000e008       ?get_ServiceObjectVersion@COPOSBumpBar@@UEAAJPEAJ@Z 000000018000f008 f   BumpBarImpl.obj
 0001:0000e01c       ?get_State@COPOSBumpBar@@UEAAJPEAJ@Z 000000018000f01c f   BumpBarImpl.obj
 0001:0000e048       ?get_Timeout@COPOSBumpBar@@UEAAJPEAJ@Z 000000018000f048 f   BumpBarImpl.obj
 0001:0000e05c       ?get_UnitsOnline@COPOSBumpBar@@UEAAJPEAJ@Z 000000018000f05c f   BumpBarImpl.obj
 0001:0000e070       ?put_AsyncMode@COPOSBumpBar@@UEAAJF@Z 000000018000f070 f   BumpBarImpl.obj
 0001:0000e08c       ?put_AutoToneDuration@COPOSBumpBar@@UEAAJJ@Z 000000018000f08c f   BumpBarImpl.obj
 0001:0000e0a0       ?put_AutoToneFrequency@COPOSBumpBar@@UEAAJJ@Z 000000018000f0a0 f   BumpBarImpl.obj
 0001:0000e0b4       ?put_BinaryConversion@COPOSBumpBar@@UEAAJJ@Z 000000018000f0b4 f   BumpBarImpl.obj
 0001:0000e0c8       ?put_CurrentUnitID@COPOSBumpBar@@UEAAJJ@Z 000000018000f0c8 f   BumpBarImpl.obj
 0001:0000e0dc       ?put_DataEventEnabled@COPOSBumpBar@@UEAAJF@Z 000000018000f0dc f   BumpBarImpl.obj
 0001:0000e0f4       ?put_DeviceEnabled@COPOSBumpBar@@UEAAJF@Z 000000018000f0f4 f   BumpBarImpl.obj
 0001:0000e10c       ?put_FreezeEvents@COPOSBumpBar@@UEAAJF@Z 000000018000f10c f   BumpBarImpl.obj
 0001:0000e15c       ?put_PowerNotify@COPOSBumpBar@@UEAAJJ@Z 000000018000f15c f   BumpBarImpl.obj
 0001:0000e170       ?put_Timeout@COPOSBumpBar@@UEAAJJ@Z 000000018000f170 f   BumpBarImpl.obj
 0001:0000e184       ?s_EventWindowProc@COPOSBumpBar@@KA_JPEAUHWND__@@I_K_J@Z 000000018000f184 f i BumpBarImpl.obj
 0001:0000e200       ??_U@YAPEAX_K@Z            000000018000f200 f   LIBCMT:new_array.obj
 0001:0000e208       ??3@YAXPEAX_K@Z            000000018000f208 f   LIBCMT:delete_scalar_size.obj
 0001:0000e208       ??_V@YAXPEAX@Z             000000018000f208 f   LIBCMT:delete_array.obj
 0001:0000e210       ??_V@YAXPEAX_K@Z           000000018000f210 f   LIBCMT:delete_array_size.obj
 0001:0000e218       __scrt_acquire_startup_lock 000000018000f218 f   LIBCMT:utility.obj
 0001:0000e254       __scrt_dllmain_after_initialize_c 000000018000f254 f   LIBCMT:utility.obj
 0001:0000e288       __scrt_dllmain_before_initialize_c 000000018000f288 f   LIBCMT:utility.obj
 0001:0000e2a0       __scrt_dllmain_crt_thread_attach 000000018000f2a0 f   LIBCMT:utility.obj
 0001:0000e2c8       __scrt_dllmain_crt_thread_detach 000000018000f2c8 f   LIBCMT:utility.obj
 0001:0000e2e0       __scrt_dllmain_exception_filter 000000018000f2e0 f   LIBCMT:utility.obj
 0001:0000e340       __scrt_dllmain_uninitialize_c 000000018000f340 f   LIBCMT:utility.obj
 0001:0000e370       __scrt_dllmain_uninitialize_critical 000000018000f370 f   LIBCMT:utility.obj
 0001:0000e384       __scrt_initialize_crt      000000018000f384 f   LIBCMT:utility.obj
 0001:0000e3d0       __scrt_initialize_onexit_tables 000000018000f3d0 f   LIBCMT:utility.obj
 0001:0000e45c       __scrt_is_nonwritable_in_current_image 000000018000f45c f   LIBCMT:utility.obj
 0001:0000e4f4       __scrt_release_startup_lock 000000018000f4f4 f   LIBCMT:utility.obj
 0001:0000e518       __scrt_uninitialize_crt    000000018000f518 f   LIBCMT:utility.obj
 0001:0000e544       _onexit                    000000018000f544 f   LIBCMT:utility.obj
 0001:0000e580       atexit                     000000018000f580 f   LIBCMT:utility.obj
 0001:0000e598       ??3@YAXPEAX@Z              000000018000f598 f   LIBCMT:delete_scalar.obj
 0001:0000e698       _Init_thread_footer        000000018000f698 f   LIBCMT:thread_safe_statics.obj
 0001:0000e6f8       _Init_thread_header        000000018000f6f8 f   LIBCMT:thread_safe_statics.obj
 0001:0000e760       _Init_thread_notify        000000018000f760 f   LIBCMT:thread_safe_statics.obj
 0001:0000e7a4       _Init_thread_wait          000000018000f7a4 f   LIBCMT:thread_safe_statics.obj
 0001:0000e808       __raise_securityfailure    000000018000f808 f   LIBCMT:gs_report.obj
 0001:0000e83c       __report_gsfailure         000000018000f83c f   LIBCMT:gs_report.obj
 0001:0000e910       __report_rangecheckfailure 000000018000f910 f   LIBCMT:gs_report.obj
 0001:0000e924       __report_securityfailure   000000018000f924 f   LIBCMT:gs_report.obj
 0001:0000eaa4       ??2@YAPEAX_KAEBUnothrow_t@std@@@Z 000000018000faa4 f   LIBCMT:new_scalar_nothrow.obj
 0001:0000eab8       ??_U@YAPEAX_KAEBUnothrow_t@std@@@Z 000000018000fab8 f   LIBCMT:new_array_nothrow.obj
 0001:0000eac0       __GSHandlerCheck           000000018000fac0 f   LIBCMT:gshandler.obj
 0001:0000eae0       __GSHandlerCheckCommon     000000018000fae0 f   LIBCMT:gshandler.obj
 0001:0000eb3c       __GSHandlerCheck_SEH       000000018000fb3c f   LIBCMT:gshandlerseh.obj
 0001:0000ebe0       _alloca_probe              000000018000fbe0 f   LIBCMT:chkstk.obj
 0001:0000ebe0       __chkstk                   000000018000fbe0 f   LIBCMT:chkstk.obj
 0001:0000ec40       __security_check_cookie    000000018000fc40 f   LIBCMT:amdsecgs.obj
 0001:0000ef80       _DllMainCRTStartup         000000018000ff80 f   LIBCMT:dll_dllmain.obj
 0001:0000efc0       ??2@YAPEAX_K@Z             000000018000ffc0 f   LIBCMT:new_scalar.obj
 0001:0000effc       __isa_available_init       000000018000fffc f   LIBCMT:cpu_disp.obj
 0001:0000f1a0       __scrt_is_ucrt_dll_in_use  00000001800101a0 f   LIBCMT:ucrt_detection.obj
 0001:0000f1ac       __crt_debugger_hook        00000001800101ac f   LIBCMT:utility_desktop.obj
 0001:0000f1b4       __scrt_fastfail            00000001800101b4 f   LIBCMT:utility_desktop.obj
 0001:0000f300       __security_init_cookie     0000000180010300 f   LIBCMT:gs_support.obj
 0001:0000f3ac       ?__scrt_initialize_type_info@@YAXXZ 00000001800103ac f   LIBCMT:tncleanup.obj
 0001:0000f3bc       ?__scrt_uninitialize_type_info@@YAXXZ 00000001800103bc f   LIBCMT:tncleanup.obj
 0001:0000f3c8       __local_stdio_scanf_options 00000001800103c8 f i LIBCMT:default_local_stdio_options.obj
 0001:0000f3d0       __scrt_initialize_default_local_stdio_options 00000001800103d0 f   LIBCMT:default_local_stdio_options.obj
 0001:0000f3ec       __scrt_get_dyn_tls_init_callback 00000001800103ec f   LIBCMT:dyn_tls_init.obj
 0001:0000f3f4       _RTC_Initialize            00000001800103f4 f   LIBCMT:initsect.obj
 0001:0000f430       _RTC_Terminate             0000000180010430 f   LIBCMT:initsect.obj
 0001:0000f46c       ??0bad_alloc@std@@QEAA@AEBV01@@Z 000000018001046c f i LIBCMT:throw_bad_alloc.obj
 0001:0000f4a8       ??0bad_alloc@std@@QEAA@XZ  00000001800104a8 f i LIBCMT:throw_bad_alloc.obj
 0001:0000f4c8       ??0bad_array_new_length@std@@QEAA@AEBV01@@Z 00000001800104c8 f i LIBCMT:throw_bad_alloc.obj
 0001:0000f504       ??0bad_array_new_length@std@@QEAA@XZ 0000000180010504 f i LIBCMT:throw_bad_alloc.obj
 0001:0000f524       ??0exception@std@@QEAA@AEBV01@@Z 0000000180010524 f i LIBCMT:throw_bad_alloc.obj
 0001:0000f558       ??1bad_alloc@std@@UEAA@XZ  0000000180010558 f i LIBCMT:throw_bad_alloc.obj
 0001:0000f558       ??1bad_array_new_length@std@@UEAA@XZ 0000000180010558 f i LIBCMT:throw_bad_alloc.obj
 0001:0000f558       ??1bad_exception@std@@UEAA@XZ 0000000180010558 f i libvcruntime:frame.obj
 0001:0000f56c       ??_Ebad_alloc@std@@UEAAPEAXI@Z 000000018001056c f i LIBCMT:throw_bad_alloc.obj
 0001:0000f56c       ??_Gbad_array_new_length@std@@UEAAPEAXI@Z 000000018001056c f i LIBCMT:throw_bad_alloc.obj
 0001:0000f56c       ??_Ebad_array_new_length@std@@UEAAPEAXI@Z 000000018001056c f i LIBCMT:throw_bad_alloc.obj
 0001:0000f56c       ??_Gexception@std@@UEAAPEAXI@Z 000000018001056c f i LIBCMT:throw_bad_alloc.obj
 0001:0000f56c       ??_Gbad_alloc@std@@UEAAPEAXI@Z 000000018001056c f i LIBCMT:throw_bad_alloc.obj
 0001:0000f56c       ??_Ebad_exception@std@@UEAAPEAXI@Z 000000018001056c f i libvcruntime:frame.obj
 0001:0000f56c       ??_Gbad_exception@std@@UEAAPEAXI@Z 000000018001056c f i libvcruntime:frame.obj
 0001:0000f56c       ??_Eexception@std@@UEAAPEAXI@Z 000000018001056c f i LIBCMT:throw_bad_alloc.obj
 0001:0000f5b0       ?__scrt_throw_std_bad_alloc@@YAXXZ 00000001800105b0 f   LIBCMT:throw_bad_alloc.obj
 0001:0000f5d0       ?__scrt_throw_std_bad_array_new_length@@YAXXZ 00000001800105d0 f   LIBCMT:throw_bad_alloc.obj
 0001:0000f5f0       ?what@exception@std@@UEBAPEBDXZ 00000001800105f0 f i LIBCMT:throw_bad_alloc.obj
 0001:0000f610       ??_Gtype_info@@UEAAPEAXI@Z 0000000180010610 f i LIBCMT:std_type_info_static.obj
 0001:0000f610       ??_Etype_info@@UEAAPEAXI@Z 0000000180010610 f i LIBCMT:std_type_info_static.obj
 0001:0000f63c       ??0CAtlBaseModule@ATL@@QEAA@XZ 000000018001063c f   atls:atlbase.obj
 0001:0000f6e4       ??1CAtlBaseModule@ATL@@QEAA@XZ 00000001800106e4 f   atls:atlbase.obj
 0001:0000f818       ?__AllocStdCallThunk_cmn@@YAPEAXXZ 0000000180010818 f   atls:atlthunk.obj
 0001:0000f970       AtlThunk_AllocateData      0000000180010970 f   atls:atlthunk.obj
 0001:0000f9ec       AtlThunk_DataToCode        00000001800109ec f   atls:atlthunk.obj
 0001:0000fa40       AtlThunk_FreeData          0000000180010a40 f   atls:atlthunk.obj
 0001:0000faa0       AtlThunk_InitData          0000000180010aa0 f   atls:atlthunk.obj
 0001:0000fb48       _get_purecall_handler      0000000180010b48 f   libvcruntime:purevirt.obj
 0001:0000fb54       _purecall                  0000000180010b54 f   libvcruntime:purevirt.obj
 0001:0000fb70       wcsstr                     0000000180010b70 f   libvcruntime:wcsstr.obj
 0001:0000fda0       memcmp                     0000000180010da0 f   libvcruntime:memcmp.obj
 0001:0000fe80       memcpy_repmovs             0000000180010e80 f   libvcruntime:memcpy.obj
 0001:0000fea0       memcpy                     0000000180010ea0 f   libvcruntime:memcpy.obj
 0001:0000fea0       memmove                    0000000180010ea0 f   libvcruntime:memcpy.obj
 0001:00010530       memset_repmovs             0000000180011530 f   libvcruntime:memset.obj
 0001:00010550       memset                     0000000180011550 f   libvcruntime:memset.obj
 0001:000106e0       __vcrt_initialize          00000001800116e0 f   libvcruntime:initialization.obj
 0001:00010708       __vcrt_thread_attach       0000000180011708 f   libvcruntime:initialization.obj
 0001:0001071c       __vcrt_thread_detach       000000018001171c f   libvcruntime:initialization.obj
 0001:00010730       __vcrt_uninitialize        0000000180011730 f   libvcruntime:initialization.obj
 0001:0001074c       __vcrt_uninitialize_critical 000000018001174c f   libvcruntime:initialization.obj
 0001:0001075c       __C_specific_handler       000000018001175c f   libvcruntime:riscchandler.obj
 0001:00010954       ??$_CallSETranslator@V__FrameHandler3@@@@YAHPEAUEHExceptionRecord@@PEA_KPEAU_CONTEXT@@PEAU_xDISPATCHER_CONTEXT@@PEBU_s_FuncInfo@@K1H@Z 0000000180011954 f i libvcruntime:risctrnsctrl.obj
 0001:000109a8       ??$_CallSETranslator@V__FrameHandler4@@@@YAHPEAUEHExceptionRecord@@PEA_KPEAU_CONTEXT@@PEAU_xDISPATCHER_CONTEXT@@PEAUFuncInfo4@FH4@@K1H@Z 00000001800119a8 f i libvcruntime:risctrnsctrl.obj
 0001:000109fc       ?CatchTryBlock@__FrameHandler3@@SAPEBU_s_TryBlockMapEntry@@PEBU_s_FuncInfo@@H@Z 00000001800119fc f   libvcruntime:risctrnsctrl.obj
 0001:00010a60       ?DecompFuncInfo@FH4@@YA_JPEAEAEAUFuncInfo4@1@_KH_N@Z 0000000180011a60 f i libvcruntime:risctrnsctrl.obj
 0001:00010b84       ?ExecutionInCatch@__FrameHandler3@@SA_NPEAU_xDISPATCHER_CONTEXT@@PEBU_s_FuncInfo@@@Z 0000000180011b84 f   libvcruntime:risctrnsctrl.obj
 0001:00010bb0       ?ExecutionInCatch@__FrameHandler4@@SA_NPEAU_xDISPATCHER_CONTEXT@@PEAUFuncInfo4@FH4@@@Z 0000000180011bb0 f   libvcruntime:risctrnsctrl.obj
 0001:00010bb8       ?FrameUnwindToEmptyState@__FrameHandler3@@SAXPEA_KPEAU_xDISPATCHER_CONTEXT@@PEBU_s_FuncInfo@@@Z 0000000180011bb8 f   libvcruntime:risctrnsctrl.obj
 0001:00010c1c       ?FrameUnwindToEmptyState@__FrameHandler4@@SAXPEA_KPEAU_xDISPATCHER_CONTEXT@@PEAUFuncInfo4@FH4@@@Z 0000000180011c1c f   libvcruntime:risctrnsctrl.obj
 0001:00010c50       ?GetEstablisherFrame@__FrameHandler3@@SAPEA_KPEA_KPEAU_xDISPATCHER_CONTEXT@@PEBU_s_FuncInfo@@0@Z 0000000180011c50 f   libvcruntime:risctrnsctrl.obj
 0001:00010d1c       ?GetEstablisherFrame@__FrameHandler4@@SAPEA_KPEA_KPEAU_xDISPATCHER_CONTEXT@@PEAUFuncInfo4@FH4@@0@Z 0000000180011d1c f   libvcruntime:risctrnsctrl.obj
 0001:00010d40       ?GetRangeOfTrysToCheck@__FrameHandler3@@SA?AU?$pair@Viterator@TryBlockMap@__FrameHandler3@@V123@@std@@AEAVTryBlockMap@1@HPEAU_xDISPATCHER_CONTEXT@@PEBU_s_FuncInfo@@H@Z 0000000180011d40 f   libvcruntime:risctrnsctrl.obj
 0001:00010e80       ?GetRangeOfTrysToCheck@__FrameHandler4@@SA?AU?$pair@Viterator@TryBlockMap4@FH4@@V123@@std@@AEAVTryBlockMap4@FH4@@HPEAU_xDISPATCHER_CONTEXT@@PEAUFuncInfo4@5@H@Z 0000000180011e80 f   libvcruntime:risctrnsctrl.obj
 0001:00010fec       ?UnwindNestedFrames@__FrameHandler3@@SAXPEA_KPEAUEHExceptionRecord@@PEAU_CONTEXT@@0PEAXPEBU_s_FuncInfo@@HHPEBU_s_HandlerType@@PEAU_xDISPATCHER_CONTEXT@@E@Z 0000000180011fec f   libvcruntime:risctrnsctrl.obj
 0001:000110f0       ?UnwindNestedFrames@__FrameHandler4@@SAXPEA_KPEAUEHExceptionRecord@@PEAU_CONTEXT@@0PEAXPEAUFuncInfo4@FH4@@HHPEAUHandlerType4@5@PEAU_xDISPATCHER_CONTEXT@@E@Z 00000001800120f0 f   libvcruntime:risctrnsctrl.obj
 0001:00011210       ?setBuffer@TryBlockMap4@FH4@@QEAAXViterator@12@@Z 0000000180012210 f i libvcruntime:risctrnsctrl.obj
 0001:000113d4       _CreateFrameInfo           00000001800123d4 f   libvcruntime:risctrnsctrl.obj
 0001:00011410       _FindAndUnlinkFrame        0000000180012410 f   libvcruntime:risctrnsctrl.obj
 0001:00011464       _GetImageBase              0000000180012464 f   libvcruntime:risctrnsctrl.obj
 0001:00011478       _GetThrowImageBase         0000000180012478 f   libvcruntime:risctrnsctrl.obj
 0001:0001148c       _SetImageBase              000000018001248c f   libvcruntime:risctrnsctrl.obj
 0001:000114a4       _SetThrowImageBase         00000001800124a4 f   libvcruntime:risctrnsctrl.obj
 0001:000114bc       __CxxFrameHandler3         00000001800124bc f   libvcruntime:risctrnsctrl.obj
 0001:00011544       __CxxFrameHandler4         0000000180012544 f   libvcruntime:risctrnsctrl.obj
 0001:00011604       __DestructExceptionObject  0000000180012604 f   libvcruntime:ehhelpers.obj
 0001:00011674       ?_CallMemberFunction0@@YAXQEAX0@Z 0000000180012674 f i libvcruntime:ehhelpers.obj
 0001:00011678       _IsExceptionObjectToBeDestroyed 0000000180012678 f   libvcruntime:ehhelpers.obj
 0001:000116a8       __AdjustPointer            00000001800126a8 f   libvcruntime:ehhelpers.obj
 0001:000116cc       __FrameUnwindFilter        00000001800126cc f   libvcruntime:ehhelpers.obj
 0001:00011734       __std_terminate            0000000180012734 f   libvcruntime:ehhelpers.obj
 0001:00011740       __std_type_info_compare    0000000180012740 f   libvcruntime:std_type_info.obj
 0001:00011768       __std_type_info_destroy_list 0000000180012768 f   libvcruntime:std_type_info.obj
 0001:00011794       __std_exception_copy       0000000180012794 f   libvcruntime:std_exception.obj
 0001:00011824       __std_exception_destroy    0000000180012824 f   libvcruntime:std_exception.obj
 0001:0001184c       _CxxThrowException         000000018001284c f   libvcruntime:throw.obj
 0001:000118ec       __vcrt_freefls             00000001800128ec f   libvcruntime:per_thread_data.obj
 0001:0001190c       __vcrt_freeptd             000000018001290c f   libvcruntime:per_thread_data.obj
 0001:0001195c       __vcrt_getptd              000000018001295c f   libvcruntime:per_thread_data.obj
 0001:00011978       __vcrt_getptd_noexit       0000000180012978 f   libvcruntime:per_thread_data.obj
 0001:00011a38       __vcrt_initialize_ptd      0000000180012a38 f   libvcruntime:per_thread_data.obj
 0001:00011a80       __vcrt_uninitialize_ptd    0000000180012a80 f   libvcruntime:per_thread_data.obj
 0001:00011aa4       __vcrt_initialize_locks    0000000180012aa4 f   libvcruntime:locks.obj
 0001:00011aec       __vcrt_uninitialize_locks  0000000180012aec f   libvcruntime:locks.obj
 0001:00011b40       _NLG_Notify                0000000180012b40 f   libvcruntime:notify.obj
 0001:00011b60       __NLG_Dispatch2            0000000180012b60 f   libvcruntime:notify.obj
 0001:00011b70       __NLG_Return2              0000000180012b70 f   libvcruntime:notify.obj
 0001:00011b74       __except_validate_context_record 0000000180012b74 f   libvcruntime:jbcxrval.obj
 0001:00011bac       ?GetCurrentState@__FrameHandler3@@SAHPEA_KPEAU_xDISPATCHER_CONTEXT@@PEBU_s_FuncInfo@@@Z 0000000180012bac f   libvcruntime:ehstate.obj
 0001:00011bd4       ?GetUnwindTryBlock@__FrameHandler3@@SAHPEA_KPEAU_xDISPATCHER_CONTEXT@@PEBU_s_FuncInfo@@@Z 0000000180012bd4 f   libvcruntime:ehstate.obj
 0001:00011c00       ?SetState@__FrameHandler3@@SAXPEA_KPEBU_s_FuncInfo@@H@Z 0000000180012c00 f   libvcruntime:ehstate.obj
 0001:00011c0c       ?SetUnwindTryBlock@__FrameHandler3@@SAXPEA_KPEAU_xDISPATCHER_CONTEXT@@PEBU_s_FuncInfo@@H@Z 0000000180012c0c f   libvcruntime:ehstate.obj
 0001:00011c48       ?StateFromControlPc@__FrameHandler3@@SAHPEBU_s_FuncInfo@@PEAU_xDISPATCHER_CONTEXT@@@Z 0000000180012c48 f   libvcruntime:ehstate.obj
 0001:00011c50       ?StateFromControlPc@__FrameHandler4@@SAHPEAUFuncInfo4@FH4@@PEAU_xDISPATCHER_CONTEXT@@@Z 0000000180012c50 f   libvcruntime:ehstate.obj
 0001:00011c58       ?StateFromIp@__FrameHandler3@@SAHPEBU_s_FuncInfo@@PEAU_xDISPATCHER_CONTEXT@@_K@Z 0000000180012c58 f   libvcruntime:ehstate.obj
 0001:00011cc0       ?StateFromIp@__FrameHandler4@@SAHPEAUFuncInfo4@FH4@@PEAU_xDISPATCHER_CONTEXT@@_K@Z 0000000180012cc0 f   libvcruntime:ehstate.obj
 0001:000133c0       ??$TypeMatchHelper@V__FrameHandler3@@@@YAHPEBU_s_HandlerType@@PEBU_s_CatchableType@@PEBU_s_ThrowInfo@@@Z 00000001800143c0 f i libvcruntime:frame.obj
 0001:00013500       ??$TypeMatchHelper@V__FrameHandler4@@@@YAHPEAUHandlerType4@FH4@@PEBU_s_CatchableType@@PEBU_s_ThrowInfo@@@Z 0000000180014500 f i libvcruntime:frame.obj
 0001:00013644       ??$__InternalCxxFrameHandler@V__FrameHandler3@@@@YA?AW4_EXCEPTION_DISPOSITION@@PEAUEHExceptionRecord@@PEA_KPEAU_CONTEXT@@PEAU_xDISPATCHER_CONTEXT@@PEBU_s_FuncInfo@@H1E@Z 0000000180014644 f i libvcruntime:frame.obj
 0001:0001387c       ??$__InternalCxxFrameHandler@V__FrameHandler4@@@@YA?AW4_EXCEPTION_DISPOSITION@@PEAUEHExceptionRecord@@PEA_KPEAU_CONTEXT@@PEAU_xDISPATCHER_CONTEXT@@PEAUFuncInfo4@FH4@@H1E@Z 000000018001487c f i libvcruntime:frame.obj
 0001:00013b10       ??0HandlerMap4@FH4@@QEAA@PEBUTryBlockMapEntry4@1@_KH@Z 0000000180014b10 f i libvcruntime:frame.obj
 0001:00013b8c       ??0TryBlockMap4@FH4@@QEAA@PEBUFuncInfo4@1@_K@Z 0000000180014b8c f i libvcruntime:frame.obj
 0001:00013c64       ??0bad_exception@std@@QEAA@AEBV01@@Z 0000000180014c64 f i libvcruntime:frame.obj
 0001:00013ca0       ??0bad_exception@std@@QEAA@XZ 0000000180014ca0 f i libvcruntime:frame.obj
 0001:00013cc0       ?CxxCallCatchBlock@__FrameHandler3@@SAPEAXPEAU_EXCEPTION_RECORD@@@Z 0000000180014cc0 f   libvcruntime:frame.obj
 0001:00013eac       ?CxxCallCatchBlock@__FrameHandler4@@SAPEAXPEAU_EXCEPTION_RECORD@@@Z 0000000180014eac f   libvcruntime:frame.obj
 0001:000140fc       ?DecompHandler@HandlerMap4@FH4@@AEAAXXZ 00000001800150fc f i libvcruntime:frame.obj
 0001:00014348       ?FrameUnwindToState@__FrameHandler3@@SAXPEA_KPEAU_xDISPATCHER_CONTEXT@@PEBU_s_FuncInfo@@H@Z 0000000180015348 f   libvcruntime:frame.obj
 0001:000144d4       ?FrameUnwindToState@__FrameHandler4@@SAXPEA_KPEAU_xDISPATCHER_CONTEXT@@PEAUFuncInfo4@FH4@@H@Z 00000001800154d4 f   libvcruntime:frame.obj
 0001:000147d0       ?GetHandlerSearchState@__FrameHandler3@@SAHPEA_KPEAU_xDISPATCHER_CONTEXT@@PEBU_s_FuncInfo@@@Z 00000001800157d0 f i libvcruntime:frame.obj
 0001:000149e0       ?ReadEntry@UWMap4@FH4@@AEAAXPEAPEAE@Z 00000001800159e0 f i libvcruntime:frame.obj
 0001:00014a7c       ?_CallMemberFunction1@@YAXQEAX00@Z 0000000180015a7c f i libvcruntime:frame.obj
 0001:00014a88       ?_CallMemberFunction2@@YAXQEAX00H@Z 0000000180015a88 f i libvcruntime:frame.obj
 0001:00014a98       ?getStartStop@UWMap4@FH4@@QEAAXHHAEAViterator@12@0@Z 0000000180015a98 f i libvcruntime:frame.obj
 0001:00014b68       ?getStateFromIterators@UWMap4@FH4@@SAHAEBViterator@12@H0H0@Z 0000000180015b68 f i libvcruntime:frame.obj
 0001:00014d84       __vcrt_FlsAlloc            0000000180015d84 f   libvcruntime:winapi_downlevel.obj
 0001:00014dcc       __vcrt_FlsFree             0000000180015dcc f   libvcruntime:winapi_downlevel.obj
 0001:00014e14       __vcrt_FlsGetValue         0000000180015e14 f   libvcruntime:winapi_downlevel.obj
 0001:00014e5c       __vcrt_FlsSetValue         0000000180015e5c f   libvcruntime:winapi_downlevel.obj
 0001:00014eb0       __vcrt_InitializeCriticalSectionEx 0000000180015eb0 f   libvcruntime:winapi_downlevel.obj
 0001:00014f30       _CallSettingFrame          0000000180015f30 f   libvcruntime:handlers.obj
 0001:00014f80       _CallSettingFrame_LookupContinuationIndex 0000000180015f80 f   libvcruntime:handlers.obj
 0001:00014fb0       _CallSettingFrame_NotifyContinuationAddr 0000000180015fb0 f   libvcruntime:handlers.obj
 0001:00014fe0       _CallSettingFrameEncoded   0000000180015fe0 f   libvcruntime:handlers.obj
 0001:00015028       free                       0000000180016028 f   libucrt:free.obj
 0001:0001503c       ?get_raw_ptd@__crt_cached_ptd_host@@QEAAPEAU__acrt_ptd@@XZ 000000018001603c f i libucrt:invalid_parameter.obj
 0001:000150a4       ?get_raw_ptd_noexit@__crt_cached_ptd_host@@QEAAPEAU__acrt_ptd@@XZ 00000001800160a4 f i libucrt:invalid_parameter.obj
 0001:00015110       ?value@?$dual_state_global@P6AXPEB_W00I_K@Z@__crt_state_management@@QEAAAEAP6AXPEB_W00I_K@ZAEAV__crt_cached_ptd_host@@@Z 0000000180016110 f i libucrt:invalid_parameter.obj
 0001:0001515c       __acrt_call_reportfault    000000018001615c f   libucrt:invalid_parameter.obj
 0001:000152b8       __acrt_initialize_invalid_parameter_handler 00000001800162b8 f   libucrt:invalid_parameter.obj
 0001:000152c0       _invalid_parameter         00000001800162c0 f   libucrt:invalid_parameter.obj
 0001:0001535c       _invalid_parameter_internal 000000018001635c f   libucrt:invalid_parameter.obj
 0001:0001542c       _invalid_parameter_noinfo  000000018001642c f   libucrt:invalid_parameter.obj
 0001:0001544c       _invoke_watson             000000018001644c f   libucrt:invalid_parameter.obj
 0001:00015494       __acrt_errno_from_os_error 0000000180016494 f   libucrt:errno.obj
 0001:000154dc       __acrt_errno_map_os_error  00000001800164dc f   libucrt:errno.obj
 0001:00015524       __acrt_errno_map_os_error_ptd 0000000180016524 f   libucrt:errno.obj
 0001:00015548       __doserrno                 0000000180016548 f   libucrt:errno.obj
 0001:00015568       _errno                     0000000180016568 f   libucrt:errno.obj
 0001:00015588       calloc                     0000000180016588 f   libucrt:calloc.obj
 0001:00015590       malloc                     0000000180016590 f   libucrt:malloc.obj
 0001:00015598       _recalloc                  0000000180016598 f   libucrt:recalloc.obj
 0001:000155a0       _recalloc_base             00000001800165a0 f   libucrt:recalloc.obj
 0001:00015638       _resetstkoflw              0000000180016638 f   libucrt:resetstk.obj
 0001:00015764       wcscat_s                   0000000180016764 f   libucrt:wcscat_s.obj
 0001:000157e8       wcscpy_s                   00000001800167e8 f   libucrt:wcscpy_s.obj
 0001:00015850       wcsncpy_s                  0000000180016850 f   libucrt:wcsncpy_s.obj
 0001:00015b04       ??$ensure_buffer_is_big_enough@D@formatting_buffer@__crt_stdio_output@@QEAA_N_KAEAV__crt_cached_ptd_host@@@Z 0000000180016b04 f i libucrt:output.obj
 0001:00015bac       ??$ensure_buffer_is_big_enough@_W@formatting_buffer@__crt_stdio_output@@QEAA_N_KAEAV__crt_cached_ptd_host@@@Z 0000000180016bac f i libucrt:output.obj
 0001:00015c58       ??$is_wide_character_specifier@_W@__crt_stdio_output@@YA_N_K_WW4length_modifier@0@@Z 0000000180016c58 f i libucrt:output.obj
 0001:00015c98       ??$parse_integer@KV?$c_string_character_source@_W@__crt_strtox@@$0A@@__crt_strtox@@YAKAEAV__crt_cached_ptd_host@@V?$c_string_character_source@_W@0@H_N@Z 0000000180016c98 f i libucrt:output.obj
 0001:000163f0       ??$type_case_integer@$07@?$output_processor@_WV?$string_output_adapter@_W@__crt_stdio_output@@V?$format_validation_base@_WV?$string_output_adapter@_W@__crt_stdio_output@@@2@@__crt_stdio_output@@AEAA_N_N@Z 00000001800173f0 f i libucrt:output.obj
 0001:000165dc       ??$type_case_integer@$09@?$output_processor@_WV?$string_output_adapter@_W@__crt_stdio_output@@V?$format_validation_base@_WV?$string_output_adapter@_W@__crt_stdio_output@@@2@@__crt_stdio_output@@AEAA_N_N@Z 00000001800175dc f i libucrt:output.obj
 0001:000167c8       ??$type_case_integer@$0BA@@?$output_processor@_WV?$string_output_adapter@_W@__crt_stdio_output@@V?$format_validation_base@_WV?$string_output_adapter@_W@__crt_stdio_output@@@2@@__crt_stdio_output@@AEAA_N_N@Z 00000001800177c8 f i libucrt:output.obj
 0001:000169b4       ??$type_case_integer_parse_into_buffer@I$07@?$output_processor@_WV?$string_output_adapter@_W@__crt_stdio_output@@V?$format_validation_base@_WV?$string_output_adapter@_W@__crt_stdio_output@@@2@@__crt_stdio_output@@AEAAXI_N@Z 00000001800179b4 f i libucrt:output.obj
 0001:00016a3c       ??$type_case_integer_parse_into_buffer@I$09@?$output_processor@_WV?$string_output_adapter@_W@__crt_stdio_output@@V?$format_validation_base@_WV?$string_output_adapter@_W@__crt_stdio_output@@@2@@__crt_stdio_output@@AEAAXI_N@Z 0000000180017a3c f i libucrt:output.obj
 0001:00016af4       ??$type_case_integer_parse_into_buffer@I$0BA@@?$output_processor@_WV?$string_output_adapter@_W@__crt_stdio_output@@V?$format_validation_base@_WV?$string_output_adapter@_W@__crt_stdio_output@@@2@@__crt_stdio_output@@AEAAXI_N@Z 0000000180017af4 f i libucrt:output.obj
 0001:00016b98       ??$type_case_integer_parse_into_buffer@_K$07@?$output_processor@_WV?$string_output_adapter@_W@__crt_stdio_output@@V?$format_validation_base@_WV?$string_output_adapter@_W@__crt_stdio_output@@@2@@__crt_stdio_output@@AEAAX_K_N@Z 0000000180017b98 f i libucrt:output.obj
 0001:00016c20       ??$type_case_integer_parse_into_buffer@_K$09@?$output_processor@_WV?$string_output_adapter@_W@__crt_stdio_output@@V?$format_validation_base@_WV?$string_output_adapter@_W@__crt_stdio_output@@@2@@__crt_stdio_output@@AEAAX_K_N@Z 0000000180017c20 f i libucrt:output.obj
 0001:00016ce0       ??$type_case_integer_parse_into_buffer@_K$0BA@@?$output_processor@_WV?$string_output_adapter@_W@__crt_stdio_output@@V?$format_validation_base@_WV?$string_output_adapter@_W@__crt_stdio_output@@@2@@__crt_stdio_output@@AEAAX_K_N@Z 0000000180017ce0 f i libucrt:output.obj
 0001:00016d84       ?crop_zeroes@__crt_stdio_output@@YAXPEADQEAU__crt_locale_pointers@@@Z 0000000180017d84 f i libucrt:output.obj
 0001:00016df0       ?parse_int_from_format_string@?$output_processor@_WV?$string_output_adapter@_W@__crt_stdio_output@@V?$format_validation_base@_WV?$string_output_adapter@_W@__crt_stdio_output@@@2@@__crt_stdio_output@@AEAA_NQEAH@Z 0000000180017df0 f i libucrt:output.obj
 0001:00016e80       ?process@?$output_processor@_WV?$string_output_adapter@_W@__crt_stdio_output@@V?$format_validation_base@_WV?$string_output_adapter@_W@__crt_stdio_output@@@2@@__crt_stdio_output@@QEAAHXZ 0000000180017e80 f i libucrt:output.obj
 0001:0001715c       ?state_case_size@?$output_processor@_WV?$string_output_adapter@_W@__crt_stdio_output@@V?$format_validation_base@_WV?$string_output_adapter@_W@__crt_stdio_output@@@2@@__crt_stdio_output@@AEAA_NXZ 000000018001815c f i libucrt:output.obj
 0001:00017308       ?state_case_type@?$output_processor@_WV?$string_output_adapter@_W@__crt_stdio_output@@V?$format_validation_base@_WV?$string_output_adapter@_W@__crt_stdio_output@@@2@@__crt_stdio_output@@AEAA_NXZ 0000000180018308 f i libucrt:output.obj
 0001:00017764       ?type_case_Z@?$output_processor@_WV?$string_output_adapter@_W@__crt_stdio_output@@V?$format_validation_base@_WV?$string_output_adapter@_W@__crt_stdio_output@@@2@@__crt_stdio_output@@AEAA_NXZ 0000000180018764 f i libucrt:output.obj
 0001:000177e0       ?type_case_a@?$output_processor@_WV?$string_output_adapter@_W@__crt_stdio_output@@V?$format_validation_base@_WV?$string_output_adapter@_W@__crt_stdio_output@@@2@@__crt_stdio_output@@AEAA_NXZ 00000001800187e0 f i libucrt:output.obj
 0001:00017a40       ?type_case_c_tchar@?$output_processor@_WV?$string_output_adapter@_W@__crt_stdio_output@@V?$format_validation_base@_WV?$string_output_adapter@_W@__crt_stdio_output@@@2@@__crt_stdio_output@@AEAA_N_W@Z 0000000180018a40 f i libucrt:output.obj
 0001:00017b04       ?type_case_n@?$output_processor@_WV?$string_output_adapter@_W@__crt_stdio_output@@V?$format_validation_base@_WV?$string_output_adapter@_W@__crt_stdio_output@@@2@@__crt_stdio_output@@AEAA_NXZ 0000000180018b04 f i libucrt:output.obj
 0001:00017bb8       ?type_case_s@?$output_processor@_WV?$string_output_adapter@_W@__crt_stdio_output@@V?$format_validation_base@_WV?$string_output_adapter@_W@__crt_stdio_output@@@2@@__crt_stdio_output@@AEAA_NXZ 0000000180018bb8 f i libucrt:output.obj
 0001:00017c50       ?type_case_s_compute_narrow_string_length@?$output_processor@_WV?$string_output_adapter@_W@__crt_stdio_output@@V?$format_validation_base@_WV?$string_output_adapter@_W@__crt_stdio_output@@@2@@__crt_stdio_output@@AEAAHH_W@Z 0000000180018c50 f i libucrt:output.obj
 0001:00017cd0       ?update_locale_slow@__crt_cached_ptd_host@@AEAAXXZ 0000000180018cd0 f i libucrt:output.obj
 0001:00017d48       ?write_string@?$string_output_adapter@_W@__crt_stdio_output@@QEBAXQEB_WHQEAHAEAV__crt_cached_ptd_host@@@Z 0000000180018d48 f i libucrt:output.obj
 0001:00017df0       __stdio_common_vswprintf_s 0000000180018df0 f   libucrt:output.obj
 0001:00017f04       _seh_filter_dll            0000000180018f04 f   libucrt:exception_filter.obj
 0001:00017f18       _seh_filter_exe            0000000180018f18 f   libucrt:exception_filter.obj
 0001:0001833c       __acrt_initialize_thread_local_exit_callback 000000018001933c f   libucrt:exit.obj
 0001:00018344       _cexit                     0000000180019344 f   libucrt:exit.obj
 0001:00018354       _exit                      0000000180019354 f   libucrt:exit.obj
 0001:00018360       _is_c_termination_complete 0000000180019360 f   libucrt:exit.obj
 0001:00018528       __acrt_allocate_buffer_for_argv 0000000180019528 f   libucrt:argv_parsing.obj
 0001:00018588       _configure_narrow_argv     0000000180019588 f   libucrt:argv_parsing.obj
 0001:00018910       __dcrt_uninitialize_environments_nolock 0000000180019910 f   libucrt:environment_initialization.obj
 0001:00018954       _initialize_narrow_environment 0000000180019954 f   libucrt:environment_initialization.obj
 0001:00018ca4       _crt_atexit                0000000180019ca4 f   libucrt:onexit.obj
 0001:00018cb4       _execute_onexit_table      0000000180019cb4 f   libucrt:onexit.obj
 0001:00018cf8       _initialize_onexit_table   0000000180019cf8 f   libucrt:onexit.obj
 0001:00018d20       _register_onexit_function  0000000180019d20 f   libucrt:onexit.obj
 0001:00018da0       __acrt_uninitialize_command_line 0000000180019da0 f   libucrt:argv_data.obj
 0001:00018e98       __acrt_initialize          0000000180019e98 f   libucrt:initialization.obj
 0001:00018eac       __acrt_thread_attach       0000000180019eac f   libucrt:initialization.obj
 0001:00018ec0       __acrt_thread_detach       0000000180019ec0 f   libucrt:initialization.obj
 0001:00018ed0       __acrt_uninitialize        0000000180019ed0 f   libucrt:initialization.obj
 0001:00018f08       __acrt_uninitialize_critical 0000000180019f08 f   libucrt:initialization.obj
 0001:00018f18       _initterm                  0000000180019f18 f   libucrt:initterm.obj
 0001:00018f5c       _initterm_e                0000000180019f5c f   libucrt:initterm.obj
 0001:00018fa4       __acrt_initialize_new_handler 0000000180019fa4 f   libucrt:new_handler.obj
 0001:00018fac       _callnewh                  0000000180019fac f   libucrt:new_handler.obj
 0001:00018fe8       _query_new_handler         0000000180019fe8 f   libucrt:new_handler.obj
 0001:0001901c       terminate                  000000018001a01c f   libucrt:terminate.obj
 0001:00019048       abort                      000000018001a048 f   libucrt:abort.obj
 0001:000190a0       strcpy_s                   000000018001a0a0 f   libucrt:strcpy_s.obj
 0001:00019110       strncmp                    000000018001a110 f   libucrt:strncmp.obj
 0001:00019190       wcsncmp                    000000018001a190 f   libucrt:wcsncmp.obj
 0001:000191bc       _free_base                 000000018001a1bc f   libucrt:free_base.obj
 0001:00019570       __acrt_freeptd             000000018001a570 f   libucrt:per_thread_data.obj
 0001:000195b4       __acrt_getptd              000000018001a5b4 f   libucrt:per_thread_data.obj
 0001:00019688       __acrt_getptd_head         000000018001a688 f   libucrt:per_thread_data.obj
 0001:0001972c       __acrt_getptd_noexit       000000018001a72c f   libucrt:per_thread_data.obj
 0001:000197f4       __acrt_getptd_noexit_explicit 000000018001a7f4 f   libucrt:per_thread_data.obj
 0001:000198b4       __acrt_initialize_ptd      000000018001a8b4 f   libucrt:per_thread_data.obj
 0001:000198f0       __acrt_uninitialize_ptd    000000018001a8f0 f   libucrt:per_thread_data.obj
 0001:00019984       __acrt_set_locale_changed  000000018001a984 f   libucrt:wsetlocale.obj
 0001:00019990       __acrt_uninitialize_locale 000000018001a990 f   libucrt:wsetlocale.obj
 0001:000199c0       _calloc_base               000000018001a9c0 f   libucrt:calloc_base.obj
 0001:00019a38       _malloc_base               000000018001aa38 f   libucrt:malloc_base.obj
 0001:00019a98       _msize_base                000000018001aa98 f   libucrt:msize.obj
 0001:00019ad4       _realloc_base              000000018001aad4 f   libucrt:realloc_base.obj
 0001:00019d10       __acrt_AppPolicyGetProcessTerminationMethodInternal 000000018001ad10 f   libucrt:winapi_thunks.obj
 0001:00019d68       __acrt_AreFileApisANSI     000000018001ad68 f   libucrt:winapi_thunks.obj
 0001:00019dac       __acrt_FlsAlloc            000000018001adac f   libucrt:winapi_thunks.obj
 0001:00019db4       __acrt_FlsFree             000000018001adb4 f   libucrt:winapi_thunks.obj
 0001:00019dbc       __acrt_FlsGetValue         000000018001adbc f   libucrt:winapi_thunks.obj
 0001:00019dc4       __acrt_FlsSetValue         000000018001adc4 f   libucrt:winapi_thunks.obj
 0001:00019dcc       __acrt_InitializeCriticalSectionEx 000000018001adcc f   libucrt:winapi_thunks.obj
 0001:00019e3c       __acrt_LCMapStringEx       000000018001ae3c f   libucrt:winapi_thunks.obj
 0001:00019f28       __acrt_LocaleNameToLCID    000000018001af28 f   libucrt:winapi_thunks.obj
 0001:00019f88       __acrt_SetThreadStackGuarantee 000000018001af88 f   libucrt:winapi_thunks.obj
 0001:00019fd4       __acrt_initialize_winapi_thunks 000000018001afd4 f   libucrt:winapi_thunks.obj
 0001:00019ff8       __acrt_uninitialize_winapi_thunks 000000018001aff8 f   libucrt:winapi_thunks.obj
 0001:0001a03c       wcsnlen                    000000018001b03c f   libucrt:strnlen.obj
 0001:0001a214       __acrt_update_locale_info  000000018001b214 f   libucrt:locale_update.obj
 0001:0001a248       __acrt_update_locale_info_explicit 000000018001b248 f   libucrt:locale_update.obj
 0001:0001a280       __acrt_update_multibyte_info 000000018001b280 f   libucrt:locale_update.obj
 0001:0001a2b4       __acrt_update_multibyte_info_explicit 000000018001b2b4 f   libucrt:locale_update.obj
 0001:0001ae1c       __acrt_fp_format           000000018001be1c f   libucrt:cvt.obj
 0001:0001b104       _mbtowc_internal           000000018001c104 f   libucrt:mbtowc.obj
 0001:0001b27c       _fileno                    000000018001c27c f   libucrt:fileno.obj
 0001:0001b2a4       __acrt_initialize_stdio    000000018001c2a4 f   libucrt:_file.obj
 0001:0001b3c4       __acrt_uninitialize_stdio  000000018001c3c4 f   libucrt:_file.obj
 0001:0001b420       _lock_file                 000000018001c420 f   libucrt:_file.obj
 0001:0001b42c       _unlock_file               000000018001c42c f   libucrt:_file.obj
 0001:0001b438       _get_printf_count_output   000000018001c438 f   libucrt:printf_count_output.obj
 0001:0001b648       __acrt_initialize_lowio    000000018001c648 f   libucrt:ioinit.obj
 0001:0001b684       __acrt_uninitialize_lowio  000000018001c684 f   libucrt:ioinit.obj
 0001:0001b6c4       __acrt_initialize_locks    000000018001c6c4 f   libucrt:locks.obj
 0001:0001b70c       __acrt_lock                000000018001c70c f   libucrt:locks.obj
 0001:0001b728       __acrt_uninitialize_locks  000000018001c728 f   libucrt:locks.obj
 0001:0001b760       __acrt_unlock              000000018001c760 f   libucrt:locks.obj
 0001:0001b77c       __acrt_get_process_end_policy 000000018001c77c f   libucrt:win_policies.obj
 0001:0001b7cc       ??$__acrt_convert_wcs_mbs_cp@D_WV<lambda_7c9dea7b4ca7285d2cdb541a38da6275>@@U__crt_win32_buffer_internal_dynamic_resizing@@@@YAHQEBDAEAV?$__crt_win32_buffer@_WU__crt_win32_buffer_internal_dynamic_resizing@@@@AEBV<lambda_7c9dea7b4ca7285d2cdb541a38da6275>@@I@Z 000000018001c7cc f i libucrt:argv_wildcards.obj
 0001:0001b948       ??$__acrt_convert_wcs_mbs_cp@_WDV<lambda_d8593a27d1aa8c02be35c86a17d324c4>@@U__crt_win32_buffer_internal_dynamic_resizing@@@@YAHQEB_WAEAV?$__crt_win32_buffer@DU__crt_win32_buffer_internal_dynamic_resizing@@@@AEBV<lambda_d8593a27d1aa8c02be35c86a17d324c4>@@I@Z 000000018001c948 f i libucrt:argv_wildcards.obj
 0001:0001c1f0       ??0_LocaleUpdate@@QEAA@QEAU__crt_locale_pointers@@@Z 000000018001d1f0 f i libucrt:argv_wildcards.obj
 0001:0001c28c       __acrt_expand_narrow_argv_wildcards 000000018001d28c f   libucrt:argv_wildcards.obj
 0001:0001c294       ??$__acrt_convert_wcs_mbs_cp@_WDV<lambda_f788ae46380686e8b737efdd8c720d07>@@U__crt_win32_buffer_no_resizing@@@@YAHQEB_WAEAV?$__crt_win32_buffer@DU__crt_win32_buffer_no_resizing@@@@AEBV<lambda_f788ae46380686e8b737efdd8c720d07>@@I@Z 000000018001d294 f i libucrt:getmodulefilenamea.obj
 0001:0001c3b0       __acrt_GetModuleFileNameA  000000018001d3b0 f   libucrt:getmodulefilenamea.obj
 0001:0001cccc       __acrt_initialize_multibyte 000000018001dccc f   libucrt:mbctype.obj
 0001:0001cd2c       __acrt_update_thread_multibyte_data 000000018001dd2c f   libucrt:mbctype.obj
 0001:0001cd48       _setmbcp_nolock            000000018001dd48 f   libucrt:mbctype.obj
 0001:0001d07c       _ismbblead                 000000018001e07c f   libucrt:ismbbyte.obj
 0001:0001d090       __acrt_initialize_command_line 000000018001e090 f   libucrt:argv_data.obj
 0001:0001d0b8       __acrt_MultiByteToWideChar 000000018001e0b8 f   libucrt:multibytetowidechar.obj
 0001:0001d114       __acrt_WideCharToMultiByte 000000018001e114 f   libucrt:widechartomultibyte.obj
 0001:0001d1c4       __dcrt_get_narrow_environment_from_os 000000018001e1c4 f   libucrt:get_environment_from_os.obj
 0001:0001d2d4       __acrt_initialize_heap     000000018001e2d4 f   libucrt:heap_handle.obj
 0001:0001d2f0       __acrt_uninitialize_heap   000000018001e2f0 f   libucrt:heap_handle.obj
 0001:0001d2fc       __acrt_execute_initializers 000000018001e2fc f   libucrt:shared_initialization.obj
 0001:0001d390       __acrt_execute_uninitializers 000000018001e390 f   libucrt:shared_initialization.obj
 0001:0001d420       __acrt_get_sigabrt_handler 000000018001e420 f   libucrt:signal.obj
 0001:0001d450       __acrt_initialize_signal_handlers 000000018001e450 f   libucrt:signal.obj
 0001:0001d470       raise                      000000018001e470 f   libucrt:signal.obj
 0001:0001d6f0       __acrt_has_user_matherr    000000018001e6f0 f   libucrt:matherr.obj
 0001:0001d710       __acrt_initialize_user_matherr 000000018001e710 f   libucrt:matherr.obj
 0001:0001d718       __acrt_invoke_user_matherr 000000018001e718 f   libucrt:matherr.obj
 0001:0001d92c       __acrt_stdio_flush_nolock  000000018001e92c f   libucrt:fflush.obj
 0001:0001d9b8       _fflush_nolock             000000018001e9b8 f   libucrt:fflush.obj
 0001:0001da8c       _flushall                  000000018001ea8c f   libucrt:fflush.obj
 0001:0001da94       __acrt_add_locale_ref      000000018001ea94 f   libucrt:locale_refcounting.obj
 0001:0001db20       __acrt_free_locale         000000018001eb20 f   libucrt:locale_refcounting.obj
 0001:0001dc98       __acrt_locale_add_lc_time_reference 000000018001ec98 f   libucrt:locale_refcounting.obj
 0001:0001dcc0       __acrt_locale_free_lc_time_if_unreferenced 000000018001ecc0 f   libucrt:locale_refcounting.obj
 0001:0001dcf8       __acrt_locale_release_lc_time_reference 000000018001ecf8 f   libucrt:locale_refcounting.obj
 0001:0001dd20       __acrt_release_locale_ref  000000018001ed20 f   libucrt:locale_refcounting.obj
 0001:0001ddc8       __acrt_update_thread_locale_data 000000018001edc8 f   libucrt:locale_refcounting.obj
 0001:0001de38       _updatetlocinfoEx_nolock   000000018001ee38 f   libucrt:locale_refcounting.obj
 0001:0001dea0       __acrt_locale_free_monetary 000000018001eea0 f   libucrt:initmon.obj
 0001:0001dfac       __acrt_locale_free_numeric 000000018001efac f   libucrt:initnum.obj
 0001:0001e04c       __acrt_locale_free_time    000000018001f04c f   libucrt:inittime.obj
 0001:0001e154       __acrt_GetStringTypeA      000000018001f154 f   libucrt:getstringtypea.obj
 0001:0001e2f0       _query_new_mode            000000018001f2f0 f   libucrt:new_mode.obj
 0001:0001e2f8       __acrt_DownlevelLocaleNameToLCID 000000018001f2f8 f   libucrt:lcidtoname_downlevel.obj
 0001:0001e3a0       __acrt_fp_strflt_to_string 000000018001f3a0 f   libucrt:_fptostr.obj
 0001:0001e530       ?divide@__crt_strtox@@YA_KAEAUbig_integer@1@AEBU21@@Z 000000018001f530 f i libucrt:cfout.obj
 0001:0001e9bc       __acrt_fltout              000000018001f9bc f   libucrt:cfout.obj
 0001:0001fc84       fegetround                 0000000180020c84 f   libucrt:fegetround.obj
 0001:0001fc98       ?__mbrtowc_utf8@__crt_mbstring@@YA_KPEA_WPEBD_KPEAU_Mbstatet@@AEAV__crt_cached_ptd_host@@@Z 0000000180020c98 f   libucrt:mbrtowc.obj
 0001:0001fcdc       ?__mbsrtowcs_utf8@__crt_mbstring@@YA_KPEA_WPEAPEBD_KPEAU_Mbstatet@@AEAV__crt_cached_ptd_host@@@Z 0000000180020cdc f   libucrt:mbrtowc.obj
 0001:0001fe80       _fcloseall                 0000000180020e80 f   libucrt:closeall.obj
 0001:0001ff34       __acrt_stdio_free_buffer_nolock 0000000180020f34 f   libucrt:_freebuf.obj
 0001:0001ff74       _isatty                    0000000180020f74 f   libucrt:isatty.obj
 0001:0001ffd4       __acrt_lowio_create_handle_array 0000000180020fd4 f   libucrt:osfinfo.obj
 0001:0002007c       __acrt_lowio_destroy_handle_array 000000018002107c f   libucrt:osfinfo.obj
 0001:000200cc       __acrt_lowio_ensure_fh_exists 00000001800210cc f   libucrt:osfinfo.obj
 0001:00020174       __acrt_lowio_lock_fh       0000000180021174 f   libucrt:osfinfo.obj
 0001:0002019c       __acrt_lowio_unlock_fh     000000018002119c f   libucrt:osfinfo.obj
 0001:000201c4       _free_osfhnd               00000001800211c4 f   libucrt:osfinfo.obj
 0001:00020280       _get_osfhandle             0000000180021280 f   libucrt:osfinfo.obj
 0001:00020300       qsort                      0000000180021300 f   libucrt:qsort.obj
 0001:00020710       strncpy_s                  0000000180021710 f   libucrt:strncpy_s.obj
 0001:000208a0       strpbrk                    00000001800218a0 f   libucrt:strpbrk.obj
 0001:00020c68       _mbsdec                    0000000180021c68 f   libucrt:mbsdec.obj
 0001:00020c70       _mbsdec_l                  0000000180021c70 f   libucrt:mbsdec.obj
 0001:00021024       __acrt_LCMapStringA        0000000180022024 f   libucrt:lcmapstringa.obj
 0001:00021160       _commit                    0000000180022160 f   libucrt:commit.obj
 0001:00021a10       _write_internal            0000000180022a10 f   libucrt:write.obj
 0001:00021b38       _write_nolock              0000000180022b38 f   libucrt:write.obj
 0001:00021e48       __ascii_wcsnicmp           0000000180022e48 f   libucrt:wcsnicmp.obj
 0001:00021e94       _controlfp_s               0000000180022e94 f   libucrt:contrlfp.obj
 0001:00021ef8       fegetenv                   0000000180022ef8 f   libucrt:fegetenv.obj
 0001:00021f18       fesetenv                   0000000180022f18 f   libucrt:fesetenv.obj
 0001:00021f64       feholdexcept               0000000180022f64 f   libucrt:feholdexcept.obj
 0001:00021fb4       ceil                       0000000180022fb4 f   libucrt:ceil.obj
 0001:00022080       log10                      0000000180023080 f   libucrt:log10.obj
 0001:0002262c       __acrt_fenv_get_common_round_control 000000018002362c f   libucrt:_fenvutils.obj
 0001:00022638       __acrt_fenv_get_control    0000000180023638 f   libucrt:_fenvutils.obj
 0001:0002271c       __acrt_fenv_get_status     000000018002371c f   libucrt:_fenvutils.obj
 0001:00022774       __acrt_fenv_set_control    0000000180023774 f   libucrt:_fenvutils.obj
 0001:000228b0       __acrt_fenv_set_status     00000001800238b0 f   libucrt:_fenvutils.obj
 0001:00022924       ?reset_and_return@__crt_mbstring@@YA_K_KPEAU_Mbstatet@@@Z 0000000180023924 f   libucrt:common_utf8.obj
 0001:0002292c       ?return_illegal_sequence@__crt_mbstring@@YA_KPEAU_Mbstatet@@AEAV__crt_cached_ptd_host@@@Z 000000018002392c f   libucrt:common_utf8.obj
 0001:00022940       ?__mbrtoc32_utf8@__crt_mbstring@@YA_KPEA_UPEBD_KPEAU_Mbstatet@@AEAV__crt_cached_ptd_host@@@Z 0000000180023940 f   libucrt:mbrtoc32.obj
 0001:00022c3c       fclose                     0000000180023c3c f   libucrt:fclose.obj
 0001:00022d80       _lseeki64_nolock_internal  0000000180023d80 f   libucrt:lseek.obj
 0001:00022d88       _query_app_type            0000000180023d88 f   libucrt:report_runtime_error.obj
 0001:00022d90       __strncnt                  0000000180023d90 f   libucrt:strncnt.obj
 0001:00022da8       _putwch_nolock             0000000180023da8 f   libucrt:putwch.obj
 0001:00022de4       _clearfp                   0000000180023de4 f   libucrt:ieee.obj
 0001:00022e54       _control87                 0000000180023e54 f   libucrt:ieee.obj
 0001:00023240       _handle_error              0000000180024240 f   libucrt:libm_error.obj
 0001:00023368       _handle_nan                0000000180024368 f   libucrt:libm_error.obj
 0001:00023390       __acrt_initialize_fma3     0000000180024390 f   libucrt:fma3_available.obj
 0001:00023400       _log10_special             0000000180024400 f   libucrt:log_special.obj
 0001:00023530       _close_internal            0000000180024530 f   libucrt:close.obj
 0001:000235f4       _close_nolock_internal     00000001800245f4 f   libucrt:close.obj
 0001:000236c4       ?__acrt_stdio_free_stream@@YAXV__crt_stdio_stream@@@Z 00000001800246c4 f   libucrt:stream.obj
 0001:000236e0       __dcrt_lowio_ensure_console_output_initialized 00000001800246e0 f   libucrt:initcon.obj
 0001:00023734       __dcrt_terminate_console_output 0000000180024734 f   libucrt:initcon.obj
 0001:00023750       __dcrt_write_console       0000000180024750 f   libucrt:initcon.obj
 0001:00023820       _get_fpsr                  0000000180024820 f   libucrt:fpsr.obj
 0001:00023830       _set_fpsr                  0000000180024830 f   libucrt:fpsr.obj
 0001:0002383a       _fclrf                     000000018002483a f   libucrt:fpsr.obj
 0001:0002384e       _frnd                      000000018002484e f   libucrt:fpsr.obj
 0001:00023870       _raise_exc                 0000000180024870 f   libucrt:fpexcept.obj
 0001:00023898       _raise_exc_ex              0000000180024898 f   libucrt:fpexcept.obj
 0001:00023ba8       _set_errno_from_matherr    0000000180024ba8 f   libucrt:fpexcept.obj
 0001:00023bd8       _clrfp                     0000000180024bd8 f   libucrt:fpctrl.obj
 0001:00023bf8       _ctrlfp                    0000000180024bf8 f   libucrt:fpctrl.obj
 0001:00023c74       _set_statfp                0000000180024c74 f   libucrt:fpctrl.obj
 0001:00023c94       _statfp                    0000000180024c94 f   libucrt:fpctrl.obj
 0001:00023cb0       _FindPESection             0000000180024cb0 f   LIBCMT:pesect.obj
 0001:00023d00       _IsNonwritableInCurrentImage 0000000180024d00 f   LIBCMT:pesect.obj
 0001:00023d50       _ValidateImageBase         0000000180024d50 f   LIBCMT:pesect.obj
 0001:00023d7c       __GSHandlerCheck_EH        0000000180024d7c f   LIBCMT:gshandlereh.obj
 0001:00023dfc       __C_specific_handler_noexcept 0000000180024dfc f   libvcruntime:chandler_noexcept.obj
 0001:00023e48       strrchr                    0000000180024e48 f   libvcruntime:strrchr.obj
 0001:00023fa0       _guard_dispatch_icall_nop  0000000180024fa0 f   LIBCMT:guard_dispatch.obj
 0001:00023fc0       _guard_xfg_dispatch_icall_nop 0000000180024fc0 f   LIBCMT:guard_xfg_dispatch.obj
 0002:00000000       __imp_RegQueryValueExW     0000000180026000     advapi32:ADVAPI32.dll
 0002:00000008       __imp_RegSetValueExW       0000000180026008     advapi32:ADVAPI32.dll
 0002:00000010       __imp_RegQueryInfoKeyW     0000000180026010     advapi32:ADVAPI32.dll
 0002:00000018       __imp_RegOpenKeyExW        0000000180026018     advapi32:ADVAPI32.dll
 0002:00000020       __imp_RegEnumKeyExW        0000000180026020     advapi32:ADVAPI32.dll
 0002:00000028       __imp_RegDeleteValueW      0000000180026028     advapi32:ADVAPI32.dll
 0002:00000030       __imp_RegDeleteKeyW        0000000180026030     advapi32:ADVAPI32.dll
 0002:00000038       __imp_RegCreateKeyExW      0000000180026038     advapi32:ADVAPI32.dll
 0002:00000040       __imp_RegCloseKey          0000000180026040     advapi32:ADVAPI32.dll
 0002:00000048       \177ADVAPI32_NULL_THUNK_DATA 0000000180026048     advapi32:ADVAPI32.dll
 0002:00000050       __imp_GetObjectW           0000000180026050     gdi32:GDI32.dll
 0002:00000058       __imp_SelectObject         0000000180026058     gdi32:GDI32.dll
 0002:00000060       __imp_DeleteObject         0000000180026060     gdi32:GDI32.dll
 0002:00000068       __imp_CreateCompatibleDC   0000000180026068     gdi32:GDI32.dll
 0002:00000070       __imp_BitBlt               0000000180026070     gdi32:GDI32.dll
 0002:00000078       __imp_SetWindowOrgEx       0000000180026078     gdi32:GDI32.dll
 0002:00000080       __imp_SetWindowExtEx       0000000180026080     gdi32:GDI32.dll
 0002:00000088       __imp_SetViewportOrgEx     0000000180026088     gdi32:GDI32.dll
 0002:00000090       __imp_LPtoDP               0000000180026090     gdi32:GDI32.dll
 0002:00000098       __imp_SetMapMode           0000000180026098     gdi32:GDI32.dll
 0002:000000a0       __imp_SaveDC               00000001800260a0     gdi32:GDI32.dll
 0002:000000a8       __imp_RestoreDC            00000001800260a8     gdi32:GDI32.dll
 0002:000000b0       __imp_GetDeviceCaps        00000001800260b0     gdi32:GDI32.dll
 0002:000000b8       __imp_DeleteMetaFile       00000001800260b8     gdi32:GDI32.dll
 0002:000000c0       __imp_DeleteDC             00000001800260c0     gdi32:GDI32.dll
 0002:000000c8       __imp_CreateRectRgnIndirect 00000001800260c8     gdi32:GDI32.dll
 0002:000000d0       __imp_CreateMetaFileW      00000001800260d0     gdi32:GDI32.dll
 0002:000000d8       __imp_CreateDCW            00000001800260d8     gdi32:GDI32.dll
 0002:000000e0       __imp_CloseMetaFile        00000001800260e0     gdi32:GDI32.dll
 0002:000000e8       \177GDI32_NULL_THUNK_DATA  00000001800260e8     gdi32:GDI32.dll
 0002:000000f0       __imp_CloseHandle          00000001800260f0     kernel32:KERNEL32.dll
 0002:000000f8       __imp_SetEvent             00000001800260f8     kernel32:KERNEL32.dll
 0002:00000100       __imp_CreateMutexW         0000000180026100     kernel32:KERNEL32.dll
 0002:00000108       __imp_CreateEventW         0000000180026108     kernel32:KERNEL32.dll
 0002:00000110       __imp_GetCurrentProcessId  0000000180026110     kernel32:KERNEL32.dll
 0002:00000118       __imp_WriteConsoleW        0000000180026118     kernel32:KERNEL32.dll
 0002:00000120       __imp_CreateFileW          0000000180026120     kernel32:KERNEL32.dll
 0002:00000128       __imp_GetConsoleMode       0000000180026128     kernel32:KERNEL32.dll
 0002:00000130       __imp_GetConsoleOutputCP   0000000180026130     kernel32:KERNEL32.dll
 0002:00000138       __imp_WriteFile            0000000180026138     kernel32:KERNEL32.dll
 0002:00000140       __imp_FlushFileBuffers     0000000180026140     kernel32:KERNEL32.dll
 0002:00000148       __imp_SetStdHandle         0000000180026148     kernel32:KERNEL32.dll
 0002:00000150       __imp_SetFilePointerEx     0000000180026150     kernel32:KERNEL32.dll
 0002:00000158       __imp_GetStringTypeW       0000000180026158     kernel32:KERNEL32.dll
 0002:00000160       __imp_FreeEnvironmentStringsW 0000000180026160     kernel32:KERNEL32.dll
 0002:00000168       __imp_lstrcmpiW            0000000180026168     kernel32:KERNEL32.dll
 0002:00000170       __imp_GetCommandLineW      0000000180026170     kernel32:KERNEL32.dll
 0002:00000178       __imp_GetCommandLineA      0000000180026178     kernel32:KERNEL32.dll
 0002:00000180       __imp_GetCPInfo            0000000180026180     kernel32:KERNEL32.dll
 0002:00000188       __imp_GetOEMCP             0000000180026188     kernel32:KERNEL32.dll
 0002:00000190       __imp_GetACP               0000000180026190     kernel32:KERNEL32.dll
 0002:00000198       __imp_IsValidCodePage      0000000180026198     kernel32:KERNEL32.dll
 0002:000001a0       __imp_FindNextFileW        00000001800261a0     kernel32:KERNEL32.dll
 0002:000001a8       __imp_FindFirstFileExW     00000001800261a8     kernel32:KERNEL32.dll
 0002:000001b0       __imp_FindClose            00000001800261b0     kernel32:KERNEL32.dll
 0002:000001b8       __imp_GetFileType          00000001800261b8     kernel32:KERNEL32.dll
 0002:000001c0       __imp_GetStdHandle         00000001800261c0     kernel32:KERNEL32.dll
 0002:000001c8       __imp_LCMapStringW         00000001800261c8     kernel32:KERNEL32.dll
 0002:000001d0       __imp_FlsFree              00000001800261d0     kernel32:KERNEL32.dll
 0002:000001d8       __imp_FlsSetValue          00000001800261d8     kernel32:KERNEL32.dll
 0002:000001e0       __imp_MulDiv               00000001800261e0     kernel32:KERNEL32.dll
 0002:000001e8       __imp_GlobalLock           00000001800261e8     kernel32:KERNEL32.dll
 0002:000001f0       __imp_GlobalUnlock         00000001800261f0     kernel32:KERNEL32.dll
 0002:000001f8       __imp_GlobalAlloc          00000001800261f8     kernel32:KERNEL32.dll
 0002:00000200       __imp_FindResourceW        0000000180026200     kernel32:KERNEL32.dll
 0002:00000208       __imp_SizeofResource       0000000180026208     kernel32:KERNEL32.dll
 0002:00000210       __imp_LoadResource         0000000180026210     kernel32:KERNEL32.dll
 0002:00000218       __imp_LoadLibraryExW       0000000180026218     kernel32:KERNEL32.dll
 0002:00000220       __imp_GetProcAddress       0000000180026220     kernel32:KERNEL32.dll
 0002:00000228       __imp_GetModuleHandleW     0000000180026228     kernel32:KERNEL32.dll
 0002:00000230       __imp_GetModuleFileNameW   0000000180026230     kernel32:KERNEL32.dll
 0002:00000238       __imp_FreeLibrary          0000000180026238     kernel32:KERNEL32.dll
 0002:00000240       __imp_DisableThreadLibraryCalls 0000000180026240     kernel32:KERNEL32.dll
 0002:00000248       __imp_GetCurrentThreadId   0000000180026248     kernel32:KERNEL32.dll
 0002:00000250       __imp_Sleep                0000000180026250     kernel32:KERNEL32.dll
 0002:00000258       __imp_WaitForSingleObject  0000000180026258     kernel32:KERNEL32.dll
 0002:00000260       __imp_ReleaseMutex         0000000180026260     kernel32:KERNEL32.dll
 0002:00000268       __imp_ResetEvent           0000000180026268     kernel32:KERNEL32.dll
 0002:00000270       __imp_EnterCriticalSection 0000000180026270     kernel32:KERNEL32.dll
 0002:00000278       __imp_LeaveCriticalSection 0000000180026278     kernel32:KERNEL32.dll
 0002:00000280       __imp_SetLastError         0000000180026280     kernel32:KERNEL32.dll
 0002:00000288       __imp_EncodePointer        0000000180026288     kernel32:KERNEL32.dll
 0002:00000290       __imp_DeleteCriticalSection 0000000180026290     kernel32:KERNEL32.dll
 0002:00000298       __imp_InitializeCriticalSectionEx 0000000180026298     kernel32:KERNEL32.dll
 0002:000002a0       __imp_GetLastError         00000001800262a0     kernel32:KERNEL32.dll
 0002:000002a8       __imp_RaiseException       00000001800262a8     kernel32:KERNEL32.dll
 0002:000002b0       __imp_DecodePointer        00000001800262b0     kernel32:KERNEL32.dll
 0002:000002b8       __imp_WideCharToMultiByte  00000001800262b8     kernel32:KERNEL32.dll
 0002:000002c0       __imp_GetEnvironmentStringsW 00000001800262c0     kernel32:KERNEL32.dll
 0002:000002c8       __imp_MultiByteToWideChar  00000001800262c8     kernel32:KERNEL32.dll
 0002:000002d0       __imp_FlsGetValue          00000001800262d0     kernel32:KERNEL32.dll
 0002:000002d8       __imp_FlsAlloc             00000001800262d8     kernel32:KERNEL32.dll
 0002:000002e0       __imp_HeapReAlloc          00000001800262e0     kernel32:KERNEL32.dll
 0002:000002e8       __imp_HeapSize             00000001800262e8     kernel32:KERNEL32.dll
 0002:000002f0       __imp_GetModuleHandleExW   00000001800262f0     kernel32:KERNEL32.dll
 0002:000002f8       __imp_ExitProcess          00000001800262f8     kernel32:KERNEL32.dll
 0002:00000300       __imp_VirtualQuery         0000000180026300     kernel32:KERNEL32.dll
 0002:00000308       __imp_VirtualProtect       0000000180026308     kernel32:KERNEL32.dll
 0002:00000310       __imp_GetSystemInfo        0000000180026310     kernel32:KERNEL32.dll
 0002:00000318       __imp_TlsFree              0000000180026318     kernel32:KERNEL32.dll
 0002:00000320       __imp_TlsSetValue          0000000180026320     kernel32:KERNEL32.dll
 0002:00000328       __imp_TlsGetValue          0000000180026328     kernel32:KERNEL32.dll
 0002:00000330       __imp_TlsAlloc             0000000180026330     kernel32:KERNEL32.dll
 0002:00000338       __imp_RtlPcToFileHeader    0000000180026338     kernel32:KERNEL32.dll
 0002:00000340       __imp_InterlockedFlushSList 0000000180026340     kernel32:KERNEL32.dll
 0002:00000348       __imp_RtlUnwindEx          0000000180026348     kernel32:KERNEL32.dll
 0002:00000350       __imp_LoadLibraryExA       0000000180026350     kernel32:KERNEL32.dll
 0002:00000358       __imp_VirtualFree          0000000180026358     kernel32:KERNEL32.dll
 0002:00000360       __imp_VirtualAlloc         0000000180026360     kernel32:KERNEL32.dll
 0002:00000368       __imp_FlushInstructionCache 0000000180026368     kernel32:KERNEL32.dll
 0002:00000370       __imp_InterlockedPushEntrySList 0000000180026370     kernel32:KERNEL32.dll
 0002:00000378       __imp_InterlockedPopEntrySList 0000000180026378     kernel32:KERNEL32.dll
 0002:00000380       __imp_GetProcessHeap       0000000180026380     kernel32:KERNEL32.dll
 0002:00000388       __imp_HeapFree             0000000180026388     kernel32:KERNEL32.dll
 0002:00000390       __imp_HeapAlloc            0000000180026390     kernel32:KERNEL32.dll
 0002:00000398       __imp_OutputDebugStringW   0000000180026398     kernel32:KERNEL32.dll
 0002:000003a0       __imp_InitializeSListHead  00000001800263a0     kernel32:KERNEL32.dll
 0002:000003a8       __imp_GetSystemTimeAsFileTime 00000001800263a8     kernel32:KERNEL32.dll
 0002:000003b0       __imp_QueryPerformanceCounter 00000001800263b0     kernel32:KERNEL32.dll
 0002:000003b8       __imp_GetStartupInfoW      00000001800263b8     kernel32:KERNEL32.dll
 0002:000003c0       __imp_InitializeCriticalSectionAndSpinCount 00000001800263c0     kernel32:KERNEL32.dll
 0002:000003c8       __imp_WaitForSingleObjectEx 00000001800263c8     kernel32:KERNEL32.dll
 0002:000003d0       __imp_RtlCaptureContext    00000001800263d0     kernel32:KERNEL32.dll
 0002:000003d8       __imp_RtlLookupFunctionEntry 00000001800263d8     kernel32:KERNEL32.dll
 0002:000003e0       __imp_RtlVirtualUnwind     00000001800263e0     kernel32:KERNEL32.dll
 0002:000003e8       __imp_UnhandledExceptionFilter 00000001800263e8     kernel32:KERNEL32.dll
 0002:000003f0       __imp_SetUnhandledExceptionFilter 00000001800263f0     kernel32:KERNEL32.dll
 0002:000003f8       __imp_GetCurrentProcess    00000001800263f8     kernel32:KERNEL32.dll
 0002:00000400       __imp_TerminateProcess     0000000180026400     kernel32:KERNEL32.dll
 0002:00000408       __imp_IsProcessorFeaturePresent 0000000180026408     kernel32:KERNEL32.dll
 0002:00000410       __imp_IsDebuggerPresent    0000000180026410     kernel32:KERNEL32.dll
 0002:00000418       \177KERNEL32_NULL_THUNK_DATA 0000000180026418     kernel32:KERNEL32.dll
 0002:00000420       __imp_OleCreatePropertyFrame 0000000180026420     oleaut32:OLEAUT32.dll
 0002:00000428       __imp_UnRegisterTypeLib    0000000180026428     oleaut32:OLEAUT32.dll
 0002:00000430       __imp_RegisterTypeLib      0000000180026430     oleaut32:OLEAUT32.dll
 0002:00000438       __imp_LoadRegTypeLib       0000000180026438     oleaut32:OLEAUT32.dll
 0002:00000440       __imp_LoadTypeLib          0000000180026440     oleaut32:OLEAUT32.dll
 0002:00000448       __imp_VarUI4FromStr        0000000180026448     oleaut32:OLEAUT32.dll
 0002:00000450       __imp_VariantInit          0000000180026450     oleaut32:OLEAUT32.dll
 0002:00000458       __imp_SysAllocStringByteLen 0000000180026458     oleaut32:OLEAUT32.dll
 0002:00000460       __imp_SysStringByteLen     0000000180026460     oleaut32:OLEAUT32.dll
 0002:00000468       __imp_VariantChangeType    0000000180026468     oleaut32:OLEAUT32.dll
 0002:00000470       __imp_VariantClear         0000000180026470     oleaut32:OLEAUT32.dll
 0002:00000478       __imp_SysStringLen         0000000180026478     oleaut32:OLEAUT32.dll
 0002:00000480       __imp_SysFreeString        0000000180026480     oleaut32:OLEAUT32.dll
 0002:00000488       __imp_SysAllocStringLen    0000000180026488     oleaut32:OLEAUT32.dll
 0002:00000490       __imp_SysAllocString       0000000180026490     oleaut32:OLEAUT32.dll
 0002:00000498       \177OLEAUT32_NULL_THUNK_DATA 0000000180026498     oleaut32:OLEAUT32.dll
 0002:000004a0       __imp_UnregisterClassW     00000001800264a0     user32:USER32.dll
 0002:000004a8       __imp_PostMessageW         00000001800264a8     user32:USER32.dll
 0002:000004b0       __imp_DefWindowProcW       00000001800264b0     user32:USER32.dll
 0002:000004b8       __imp_CallWindowProcW      00000001800264b8     user32:USER32.dll
 0002:000004c0       __imp_RegisterClassExW     00000001800264c0     user32:USER32.dll
 0002:000004c8       __imp_GetClassInfoExW      00000001800264c8     user32:USER32.dll
 0002:000004d0       __imp_CreateWindowExW      00000001800264d0     user32:USER32.dll
 0002:000004d8       __imp_IsWindow             00000001800264d8     user32:USER32.dll
 0002:000004e0       __imp_IsChild              00000001800264e0     user32:USER32.dll
 0002:000004e8       __imp_DestroyWindow        00000001800264e8     user32:USER32.dll
 0002:000004f0       __imp_ShowWindow           00000001800264f0     user32:USER32.dll
 0002:000004f8       __imp_SetWindowPos         00000001800264f8     user32:USER32.dll
 0002:00000500       __imp_CharNextW            0000000180026500     user32:USER32.dll
 0002:00000508       __imp_SetFocus             0000000180026508     user32:USER32.dll
 0002:00000510       __imp_LoadBitmapW          0000000180026510     user32:USER32.dll
 0002:00000518       __imp_RegisterClassW       0000000180026518     user32:USER32.dll
 0002:00000520       __imp_PeekMessageW         0000000180026520     user32:USER32.dll
 0002:00000528       __imp_LoadCursorW          0000000180026528     user32:USER32.dll
 0002:00000530       __imp_GetParent            0000000180026530     user32:USER32.dll
 0002:00000538       __imp_SetWindowLongPtrW    0000000180026538     user32:USER32.dll
 0002:00000540       __imp_GetWindowLongPtrW    0000000180026540     user32:USER32.dll
 0002:00000548       __imp_PtInRect             0000000180026548     user32:USER32.dll
 0002:00000550       __imp_EqualRect            0000000180026550     user32:USER32.dll
 0002:00000558       __imp_OffsetRect           0000000180026558     user32:USER32.dll
 0002:00000560       __imp_UnionRect            0000000180026560     user32:USER32.dll
 0002:00000568       __imp_IntersectRect        0000000180026568     user32:USER32.dll
 0002:00000570       __imp_GetClientRect        0000000180026570     user32:USER32.dll
 0002:00000578       __imp_InvalidateRect       0000000180026578     user32:USER32.dll
 0002:00000580       __imp_SetWindowRgn         0000000180026580     user32:USER32.dll
 0002:00000588       __imp_EndPaint             0000000180026588     user32:USER32.dll
 0002:00000590       __imp_BeginPaint           0000000180026590     user32:USER32.dll
 0002:00000598       __imp_ReleaseDC            0000000180026598     user32:USER32.dll
 0002:000005a0       __imp_GetDC                00000001800265a0     user32:USER32.dll
 0002:000005a8       __imp_GetKeyState          00000001800265a8     user32:USER32.dll
 0002:000005b0       __imp_GetFocus             00000001800265b0     user32:USER32.dll
 0002:000005b8       \177USER32_NULL_THUNK_DATA 00000001800265b8     user32:USER32.dll
 0002:000005c0       __imp_CoCreateInstance     00000001800265c0     ole32:ole32.dll
 0002:000005c8       __imp_StringFromGUID2      00000001800265c8     ole32:ole32.dll
 0002:000005d0       __imp_CoTaskMemAlloc       00000001800265d0     ole32:ole32.dll
 0002:000005d8       __imp_CoTaskMemRealloc     00000001800265d8     ole32:ole32.dll
 0002:000005e0       __imp_CoTaskMemFree        00000001800265e0     ole32:ole32.dll
 0002:000005e8       __imp_WriteClassStm        00000001800265e8     ole32:ole32.dll
 0002:000005f0       __imp_CreateDataAdviseHolder 00000001800265f0     ole32:ole32.dll
 0002:000005f8       __imp_OleSaveToStream      00000001800265f8     ole32:ole32.dll
 0002:00000600       __imp_CreateOleAdviseHolder 0000000180026600     ole32:ole32.dll
 0002:00000608       __imp_OleRegGetUserType    0000000180026608     ole32:ole32.dll
 0002:00000610       __imp_OleRegGetMiscStatus  0000000180026610     ole32:ole32.dll
 0002:00000618       __imp_OleRegEnumVerbs      0000000180026618     ole32:ole32.dll
 0002:00000620       __imp_CLSIDFromProgID      0000000180026620     ole32:ole32.dll
 0002:00000628       __imp_ReadClassStm         0000000180026628     ole32:ole32.dll
 0002:00000630       \177ole32_NULL_THUNK_DATA  0000000180026630     ole32:ole32.dll
 0002:00000638       __guard_check_icall_fptr   0000000180026638     LIBCMT:guard_support.obj
 0002:00000640       __guard_xfg_check_icall_fptr 0000000180026640     LIBCMT:guard_support.obj
 0002:00000648       __guard_dispatch_icall_fptr 0000000180026648     LIBCMT:guard_support.obj
 0002:00000650       __guard_xfg_dispatch_icall_fptr 0000000180026650     LIBCMT:guard_support.obj
 0002:00000658       __guard_xfg_table_dispatch_icall_fptr 0000000180026658     LIBCMT:guard_support.obj
 0002:00000660       __castguard_check_failure_os_handled_fptr 0000000180026660     LIBCMT:guard_support.obj
 0002:00000668       __xc_a                     0000000180026668     LIBCMT:initializers.obj
 0002:00000698       __xc_z                     0000000180026698     LIBCMT:initializers.obj
 0002:000006a0       __xi_a                     00000001800266a0     LIBCMT:initializers.obj
 0002:000006b0       __acrt_stdio_initializer   00000001800266b0     libucrt:stdio_initializer.obj
 0002:000006b8       __acrt_multibyte_initializer 00000001800266b8     libucrt:multibyte_initializer.obj
 0002:000006c0       __acrt_tran_fma3_initializer 00000001800266c0     libucrt:fma3_initializer.obj
 0002:000006c8       __xi_z                     00000001800266c8     LIBCMT:initializers.obj
 0002:000006d0       __xl_a                     00000001800266d0     LIBCMT:tlssup.obj
 0002:000006d8       __xl_z                     00000001800266d8     LIBCMT:tlssup.obj
 0002:000006e0       __xp_a                     00000001800266e0     LIBCMT:initializers.obj
 0002:000006e8       __acrt_locale_terminator   00000001800266e8     libucrt:locale_initializer.obj
 0002:000006f0       __dcrt_console_output_terminator 00000001800266f0     libucrt:console_output_initializer.obj
 0002:000006f8       __acrt_stdio_terminator    00000001800266f8     libucrt:stdio_initializer.obj
 0002:00000700       __xp_z                     0000000180026700     LIBCMT:initializers.obj
 0002:00000708       __xt_a                     0000000180026708     LIBCMT:initializers.obj
 0002:00000710       __xt_z                     0000000180026710     LIBCMT:initializers.obj
 0002:00000720       ??_C@_13HADIAKP@?$AAS@     0000000180026720     OposVariant.obj
 0002:00000724       ??_C@_13LHMFKAAD@?$AAM@    0000000180026724     OposVariant.obj
 0002:00000728       ??_C@_13MKMNOPIJ@?$AAD@    0000000180026728     OposVariant.obj
 0002:0000072c       ??_C@_13OPKGLAFF@?$AAB@    000000018002672c     OposVariant.obj
 0002:00000730       ??_C@_17LLMMEOJD@?$AAV?$AAa?$AAl@ 0000000180026730     OposVariant.obj
 0002:00000738       ??_C@_1BI@JFAIJMHL@?$AAF?$AAo?$AAr?$AAc?$AAe?$AAR?$AAe?$AAm?$AAo?$AAv?$AAe@ 0000000180026738     OposVariant.obj
 0002:00000750       ??_C@_1BC@GCKHIPE@?$AAN?$AAo?$AAR?$AAe?$AAm?$AAo?$AAv?$AAe@ 0000000180026750     OposVariant.obj
 0002:00000768       ??_C@_1O@JDLOHAN@?$AAD?$AAe?$AAl?$AAe?$AAt?$AAe@ 0000000180026768     OposVariant.obj
 0002:00000778       ??_C@_11LOCGONAA@@         0000000180026778     OposVariant.obj
 0002:00000780       _GUID_55980ba0_35aa_11cf_b671_00aa004cd6d8 0000000180026780     BumpBar.obj
 0002:00000790       ??_7?$CComObject@V?$CComEnum@UIEnumConnections@@$1?_GUID_b196b287_bab4_101a_b69c_00aa00341d07@@3U__s_GUID@@BUtagCONNECTDATA@@V?$_Copy@UtagCONNECTDATA@@@ATL@@VCComSingleThreadModel@6@@ATL@@@ATL@@6B@ 0000000180026790     BumpBar.obj
 0002:000007d0       _GUID_b196b28b_bab4_101a_b69c_00aa00341d07 00000001800267d0     BumpBar.obj
 0002:000007e0       ?_entries@?1??_GetEntries@?$CComEnum@UIEnumConnections@@$1?_GUID_b196b287_bab4_101a_b69c_00aa00341d07@@3U__s_GUID@@BUtagCONNECTDATA@@V?$_Copy@UtagCONNECTDATA@@@ATL@@VCComSingleThreadModel@6@@ATL@@SAPEBU_ATL_INTMAP_ENTRY@3@XZ@4QBU43@B 00000001800267e0     BumpBar.obj
 0002:00000810       ??_7CComClassFactory@ATL@@6B@ 0000000180026810     BumpBar.obj
 0002:00000840       ?_entries@?1??_GetEntries@CComClassFactory@ATL@@SAPEBU_ATL_INTMAP_ENTRY@3@XZ@4QBU43@B 0000000180026840     BumpBar.obj
 0002:00000870       _GUID_00000001_0000_0000_c000_000000000046 0000000180026870     BumpBar.obj
 0002:00000880       IID_IOPOSBumpBar_1_5       0000000180026880     BumpBar.obj
 0002:00000890       IID_IOPOSBumpBar_1_8       0000000180026890     BumpBar.obj
 0002:000008a0       IID_IOPOSBumpBar_1_9       00000001800268a0     BumpBar.obj
 0002:000008b0       IID_IOPOSBumpBar           00000001800268b0     BumpBar.obj
 0002:000008c0       LIBID_OposBumpBar_CCO      00000001800268c0     BumpBar.obj
 0002:000008d0       DIID__IOPOSBumpBarEvents   00000001800268d0     BumpBar.obj
 0002:000008e0       ??_C@_1BK@BIGILECK@?$AAA?$AAd?$AAv?$AAa?$AAp?$AAi?$AA3?$AA2?$AA?4?$AAd?$AAl?$AAl@ 00000001800268e0     BumpBar.obj
 0002:00000900       CLSID_OPOSBumpBar          0000000180026900     BumpBar.obj
 0002:00000910       ??_C@_0BI@MNCFCPFK@RegCreateKeyTransactedW@ 0000000180026910     BumpBar.obj
 0002:00000928       _GUID_00000114_0000_0000_c000_000000000046 0000000180026928     BumpBar.obj
 0002:00000938       _GUID_b196b287_bab4_101a_b69c_00aa00341d07 0000000180026938     BumpBar.obj
 0002:00000948       _GUID_b196b285_bab4_101a_b69c_00aa00341d07 0000000180026948     BumpBar.obj
 0002:00000958       _GUID_a6bc3ac0_dbaa_11ce_9de3_00aa004bb851 0000000180026958     BumpBar.obj
 0002:00000968       _GUID_0000010c_0000_0000_c000_000000000046 0000000180026968     BumpBar.obj
 0002:00000978       _GUID_00000146_0000_0000_c000_000000000046 0000000180026978     BumpBar.obj
 0002:00000990       ?_entries@?1??_GetEntries@COPOSBumpBar@@SAPEBU_ATL_INTMAP_ENTRY@ATL@@XZ@4QBU34@B 0000000180026990     BumpBar.obj
 0002:00000c00       ??_7CComModule@ATL@@6B@    0000000180026c00     BumpBar.obj
 0002:00000c50       _GUID_cf51ed10_62fe_11cf_bf86_00a0c9034836 0000000180026c50     BumpBar.obj
 0002:00000c60       _GUID_0000010a_0000_0000_c000_000000000046 0000000180026c60     BumpBar.obj
 0002:00000c70       _GUID_b196b283_bab4_101a_b69c_00aa00341d07 0000000180026c70     BumpBar.obj
 0002:00000c80       _GUID_cb5bdc81_93c1_11cf_8f20_00805f2cd064 0000000180026c80     BumpBar.obj
 0002:00000c90       ?pPropMap@?1??GetPropertyMap@COPOSBumpBar@@SAPEBUATL_PROPMAP_ENTRY@ATL@@XZ@4QBU34@B 0000000180026c90     BumpBar.obj
 0002:00000d38       ??_C@_17DGDADEHL@?$AA_?$AAc?$AAx@ 0000000180026d38     BumpBar.obj
 0002:00000d40       ??_C@_17IOIMFDBO@?$AA_?$AAc?$AAy@ 0000000180026d40     BumpBar.obj
 0002:00000d48       _GUID_00000000_0000_0000_c000_000000000046 0000000180026d48     BumpBar.obj
 0002:00000d58       _GUID_00020400_0000_0000_c000_000000000046 0000000180026d58     BumpBar.obj
 0002:00000d68       _GUID_922eada0_3424_11cf_b670_00aa004cd6d8 0000000180026d68     BumpBar.obj
 0002:00000d78       _GUID_9c2cad80_3424_11cf_b670_00aa004cd6d8 0000000180026d78     BumpBar.obj
 0002:00000d88       _GUID_00000119_0000_0000_c000_000000000046 0000000180026d88     BumpBar.obj
 0002:00000d98       _GUID_b196b289_bab4_101a_b69c_00aa00341d07 0000000180026d98     BumpBar.obj
 0002:00000da8       ??_7?$CComObjectCached@VCComClassFactory@ATL@@@ATL@@6B@ 0000000180026da8     BumpBar.obj
 0002:00000dd8       ??_C@_1CE@PGFMOFKI@?$AAS?$AAt?$AAa?$AAt?$AAu?$AAs?$AAU?$AAp?$AAd?$AAa?$AAt?$AAe?$AAE?$AAv?$AAe@ 0000000180026dd8     BumpBar.obj
 0002:00000e00       ??_C@_1CI@HLBJDONE@?$AAO?$AAu?$AAt?$AAp?$AAu?$AAt?$AAC?$AAo?$AAm?$AAp?$AAl?$AAe?$AAt?$AAe?$AAE@ 0000000180026e00     BumpBar.obj
 0002:00000e28       _GUID_00000117_0000_0000_c000_000000000046 0000000180026e28     BumpBar.obj
 0002:00000e38       ??_C@_1BG@LODEBHDD@?$AAE?$AAr?$AAr?$AAo?$AAr?$AAE?$AAv?$AAe?$AAn?$AAt@ 0000000180026e38     BumpBar.obj
 0002:00000e50       ??_C@_1BM@CBGEBBBJ@?$AAD?$AAi?$AAr?$AAe?$AAc?$AAt?$AAI?$AAO?$AAE?$AAv?$AAe?$AAn?$AAt@ 0000000180026e50     BumpBar.obj
 0002:00000e70       ??_C@_1BE@IEBMACEM@?$AAD?$AAa?$AAt?$AAa?$AAE?$AAv?$AAe?$AAn?$AAt@ 0000000180026e70     BumpBar.obj
 0002:00000e88       _GUID_b196b286_bab4_101a_b69c_00aa00341d07 0000000180026e88     BumpBar.obj
 0002:00000e98       ??_C@_1BC@ENICKDH@?$AAC?$AAo?$AAn?$AAt?$AAe?$AAn?$AAt?$AAs@ 0000000180026e98     BumpBar.obj
 0002:00000eb0       ??_7?$CComObject@V?$CComEnum@UIEnumConnectionPoints@@$1?_GUID_b196b285_bab4_101a_b69c_00aa00341d07@@3U__s_GUID@@BPEAUIConnectionPoint@@V?$_CopyInterface@UIConnectionPoint@@@ATL@@VCComSingleThreadModel@6@@ATL@@@ATL@@6B@ 0000000180026eb0     BumpBar.obj
 0002:00000ef0       ??_C@_1M@KANJNLFF@?$AAC?$AAL?$AAS?$AAI?$AAD@ 0000000180026ef0     BumpBar.obj
 0002:00000f00       ??_C@_1M@EJNEECMJ@?$AAA?$AAp?$AAp?$AAI?$AAD@ 0000000180026f00     BumpBar.obj
 0002:00000f10       _GUID_0000010e_0000_0000_c000_000000000046 0000000180026f10     BumpBar.obj
 0002:00000f20       ?rgszNeverDelete@CRegParser@ATL@@1QBQEB_WB 0000000180026f20     BumpBar.obj
 0002:00000f80       _GUID_b196b288_bab4_101a_b69c_00aa00341d07 0000000180026f80     BumpBar.obj
 0002:00000f90       ??_7CRegObject@ATL@@6B@    0000000180026f90     BumpBar.obj
 0002:00000fc0       _GUID_00000113_0000_0000_c000_000000000046 0000000180026fc0     BumpBar.obj
 0002:00000fd0       ??_C@_1CK@OEKPKBNA@?$AAC?$AAo?$AAm?$AAp?$AAo?$AAn?$AAe?$AAn?$AAt?$AA?5?$AAC?$AAa?$AAt?$AAe?$AAg@ 0000000180026fd0     BumpBar.obj
 0002:00001000       ??_C@_1BC@NKMMNMGL@?$AAF?$AAi?$AAl?$AAe?$AAT?$AAy?$AAp?$AAe@ 0000000180027000     BumpBar.obj
 0002:00001018       ??_C@_1BE@EKPAFMCP@?$AAI?$AAn?$AAt?$AAe?$AAr?$AAf?$AAa?$AAc?$AAe@ 0000000180027018     BumpBar.obj
 0002:00001030       ??_C@_1BC@MAICEHGI@?$AAH?$AAa?$AAr?$AAd?$AAw?$AAa?$AAr?$AAe@ 0000000180027030     BumpBar.obj
 0002:00001048       ??_C@_19HLLLM@?$AAM?$AAi?$AAm?$AAe@ 0000000180027048     BumpBar.obj
 0002:00001058       ??_C@_17OMAOINJK@?$AAS?$AAA?$AAM@ 0000000180027058     BumpBar.obj
 0002:00001060       ??_C@_1BC@IBECJAAI@?$AAS?$AAE?$AAC?$AAU?$AAR?$AAI?$AAT?$AAY@ 0000000180027060     BumpBar.obj
 0002:00001078       ??_C@_1O@GBFINDKL@?$AAS?$AAY?$AAS?$AAT?$AAE?$AAM@ 0000000180027078     BumpBar.obj
 0002:00001088       ??_C@_1BC@EAHCMADO@?$AAS?$AAo?$AAf?$AAt?$AAw?$AAa?$AAr?$AAe@ 0000000180027088     BumpBar.obj
 0002:000010a0       ??_C@_1BA@JIHHIEDE@?$AAT?$AAy?$AAp?$AAe?$AAL?$AAi?$AAb@ 00000001800270a0     BumpBar.obj
 0002:000010b0       _GUID_1c2056cc_5ef4_101b_8bc8_00aa003e3b29 00000001800270b0     BumpBar.obj
 0002:000010c0       ?map@?1??HKeyFromString@CRegParser@ATL@@KAPEAUHKEY__@@PEA_W@Z@4QBUkeymap@?1??123@KAPEAU4@0@Z@B 00000001800270c0     BumpBar.obj
 0002:000011a0       ??_C@_19NCHLBIN@?$AAH?$AAK?$AAC?$AAR@ 00000001800271a0     BumpBar.obj
 0002:000011b0       ??_C@_19JAPAIJDE@?$AAH?$AAK?$AAC?$AAU@ 00000001800271b0     BumpBar.obj
 0002:000011c0       ??_C@_19PEALEEJB@?$AAH?$AAK?$AAL?$AAM@ 00000001800271c0     BumpBar.obj
 0002:000011d0       ??_C@_17PJOJPMPB@?$AAH?$AAK?$AAU@ 00000001800271d0     BumpBar.obj
 0002:000011d8       ??_C@_19PNBHMJPL@?$AAH?$AAK?$AAP?$AAD@ 00000001800271d8     BumpBar.obj
 0002:000011e8       ??_C@_19GFFAIJHG@?$AAH?$AAK?$AAD?$AAD@ 00000001800271e8     BumpBar.obj
 0002:000011f8       ??_C@_19OFICIBHH@?$AAH?$AAK?$AAC?$AAC@ 00000001800271f8     BumpBar.obj
 0002:00001208       ??_C@_1CE@PACHPJFI@?$AAH?$AAK?$AAE?$AAY?$AA_?$AAC?$AAL?$AAA?$AAS?$AAS?$AAE?$AAS?$AA_?$AAR?$AAO@ 0000000180027208     BumpBar.obj
 0002:00001230       ??_C@_1CE@HLHNCBPM@?$AAH?$AAK?$AAE?$AAY?$AA_?$AAC?$AAU?$AAR?$AAR?$AAE?$AAN?$AAT?$AA_?$AAU?$AAS@ 0000000180027230     BumpBar.obj
 0002:00001258       ??_C@_1CG@GFBEANJL@?$AAH?$AAK?$AAE?$AAY?$AA_?$AAL?$AAO?$AAC?$AAA?$AAL?$AA_?$AAM?$AAA?$AAC?$AAH@ 0000000180027258     BumpBar.obj
 0002:00001280       ??_C@_1BG@BGODANIO@?$AAH?$AAK?$AAE?$AAY?$AA_?$AAU?$AAS?$AAE?$AAR?$AAS@ 0000000180027280     BumpBar.obj
 0002:00001298       ??_C@_1CM@KHNNAOIC@?$AAH?$AAK?$AAE?$AAY?$AA_?$AAP?$AAE?$AAR?$AAF?$AAO?$AAR?$AAM?$AAA?$AAN?$AAC@ 0000000180027298     BumpBar.obj
 0002:000012c8       ??_C@_1BM@HAGMMHIA@?$AAH?$AAK?$AAE?$AAY?$AA_?$AAD?$AAY?$AAN?$AA_?$AAD?$AAA?$AAT?$AAA@ 00000001800272c8     BumpBar.obj
 0002:000012e8       ??_C@_1CI@BBJOACGG@?$AAH?$AAK?$AAE?$AAY?$AA_?$AAC?$AAU?$AAR?$AAR?$AAE?$AAN?$AAT?$AA_?$AAC?$AAO@ 00000001800272e8     BumpBar.obj
 0002:00001310       _GUID_00000109_0000_0000_c000_000000000046 0000000180027310     BumpBar.obj
 0002:00001320       _GUID_7fd52380_4e07_101b_ae2d_08002b2ec713 0000000180027320     BumpBar.obj
 0002:00001330       _GUID_00000112_0000_0000_c000_000000000046 0000000180027330     BumpBar.obj
 0002:00001340       ??_C@_1EA@NHKLICFA@?$AAH?$AAK?$AAC?$AAU?$AA?$AN?$AA?6?$AA?$HL?$AA?7?$AAS?$AAo?$AAf?$AAt?$AAw?$AAa?$AAr@ 0000000180027340     BumpBar.obj
 0002:00001380       ??_C@_1BE@LJOLIMEM@?$AA?$AN?$AA?6?$AA?7?$AA?$HN?$AA?$AN?$AA?6?$AA?$HN?$AA?$AN?$AA?6@ 0000000180027380     BumpBar.obj
 0002:00001398       _GUID_3af24292_0c96_11ce_a0cf_00aa00600ab8 0000000180027398     BumpBar.obj
 0002:000013a8       _GUID_00000127_0000_0000_c000_000000000046 00000001800273a8     BumpBar.obj
 0002:000013b8       _GUID_0000010d_0000_0000_c000_000000000046 00000001800273b8     BumpBar.obj
 0002:000013c8       ??_C@_1O@MNLDABAF@?$AAM?$AAo?$AAd?$AAu?$AAl?$AAe@ 00000001800273c8     BumpBar.obj
 0002:000013d8       ??_C@_1BG@JBACFMF@?$AAM?$AAo?$AAd?$AAu?$AAl?$AAe?$AA_?$AAR?$AAa?$AAw@ 00000001800273d8     BumpBar.obj
 0002:000013f0       ??_C@_1BC@KAILKFFG@?$AAR?$AAE?$AAG?$AAI?$AAS?$AAT?$AAR?$AAY@ 00000001800273f0     BumpBar.obj
 0002:00001408       ??_C@_1M@PPPPCDEP@?$AAA?$AAP?$AAP?$AAI?$AAD@ 0000000180027408     BumpBar.obj
 0002:00001418       ??_7?$CComContainedObject@VCOPOSBumpBar@@@ATL@@6B?$IDispatchImpl@UIOPOSBumpBar@@$1?IID_IOPOSBumpBar@@3U_GUID@@B$1?LIBID_OposBumpBar_CCO@@3U3@B$00$0A@VCComTypeInfoHolder@ATL@@@1@@ 0000000180027418     BumpBar.obj
 0002:00001680       ??_7?$CComContainedObject@VCOPOSBumpBar@@@ATL@@6BCComControlBase@1@@ 0000000180027680     BumpBar.obj
 0002:000016a8       ??_7?$CComContainedObject@VCOPOSBumpBar@@@ATL@@6B?$CWindowImpl@VCOPOSBumpBar@@VCWindow@ATL@@V?$CWinTraits@$0FGAAAAAA@$0A@@3@@1@@ 00000001800276a8     BumpBar.obj
 0002:000016c8       ??_7?$CComContainedObject@VCOPOSBumpBar@@@ATL@@6B?$IPersistStreamInitImpl@VCOPOSBumpBar@@@1@@ 00000001800276c8     BumpBar.obj
 0002:00001710       ??_7?$CComContainedObject@VCOPOSBumpBar@@@ATL@@6B?$IOleControlImpl@VCOPOSBumpBar@@@1@@ 0000000180027710     BumpBar.obj
 0002:00001748       ??_7?$CComContainedObject@VCOPOSBumpBar@@@ATL@@6B?$IOleObjectImpl@VCOPOSBumpBar@@@1@@ 0000000180027748     BumpBar.obj
 0002:00001808       ??_7?$CComContainedObject@VCOPOSBumpBar@@@ATL@@6B?$IOleInPlaceActiveObjectImpl@VCOPOSBumpBar@@@1@@ 0000000180027808     BumpBar.obj
 0002:00001858       ??_7?$CComContainedObject@VCOPOSBumpBar@@@ATL@@6B?$IViewObjectExImpl@VCOPOSBumpBar@@@1@@ 0000000180027858     BumpBar.obj
 0002:000018d0       ??_7?$CComContainedObject@VCOPOSBumpBar@@@ATL@@6B?$IOleInPlaceObjectWindowlessImpl@VCOPOSBumpBar@@@1@@ 00000001800278d0     BumpBar.obj
 0002:00001928       ??_7?$CComContainedObject@VCOPOSBumpBar@@@ATL@@6B?$IConnectionPointContainerImpl@VCOPOSBumpBar@@@1@@ 0000000180027928     BumpBar.obj
 0002:00001950       ??_7?$CComContainedObject@VCOPOSBumpBar@@@ATL@@6B?$IPersistStorageImpl@VCOPOSBumpBar@@@1@@ 0000000180027950     BumpBar.obj
 0002:000019a0       ??_7?$CComContainedObject@VCOPOSBumpBar@@@ATL@@6B?$ISpecifyPropertyPagesImpl@VCOPOSBumpBar@@@1@@ 00000001800279a0     BumpBar.obj
 0002:000019c0       ??_7?$CComContainedObject@VCOPOSBumpBar@@@ATL@@6B?$IQuickActivateImpl@VCOPOSBumpBar@@@1@@ 00000001800279c0     BumpBar.obj
 0002:000019f0       ??_7?$CComContainedObject@VCOPOSBumpBar@@@ATL@@6B?$IDataObjectImpl@VCOPOSBumpBar@@@1@@ 00000001800279f0     BumpBar.obj
 0002:00001a50       ??_7?$CComContainedObject@VCOPOSBumpBar@@@ATL@@6B?$IProvideClassInfo2Impl@$1?CLSID_OPOSBumpBar@@3U_GUID@@B$1?DIID__IOPOSBumpBarEvents@@3U2@B$1?LIBID_OposBumpBar_CCO@@3U2@B$00$0A@VCComTypeInfoHolder@ATL@@@1@@ 0000000180027a50     BumpBar.obj
 0002:00001a78       ??_7?$CComContainedObject@VCOPOSBumpBar@@@ATL@@6B?$IObjectSafetyImpl@VCOPOSBumpBar@@$02@1@@ 0000000180027a78     BumpBar.obj
 0002:00001aa8       ??_7?$CComContainedObject@VCOPOSBumpBar@@@ATL@@6B?$IPropertyNotifySinkCP@VCOPOSBumpBar@@VCComDynamicUnkArray@ATL@@@1@@ 0000000180027aa8     BumpBar.obj
 0002:00001ae8       ??_7?$CComContainedObject@VCOPOSBumpBar@@@ATL@@6B?$CProxy_IOPOSEvents@VCOPOSBumpBar@@@@@ 0000000180027ae8     BumpBar.obj
 0002:00001b28       ??_7?$CComAggObject@VCOPOSBumpBar@@@ATL@@6B@ 0000000180027b28     BumpBar.obj
 0002:00001b48       ??_7?$CComObject@VCOPOSBumpBar@@@ATL@@6B?$IDispatchImpl@UIOPOSBumpBar@@$1?IID_IOPOSBumpBar@@3U_GUID@@B$1?LIBID_OposBumpBar_CCO@@3U3@B$00$0A@VCComTypeInfoHolder@ATL@@@1@@ 0000000180027b48     BumpBar.obj
 0002:00001db0       ??_7?$CComObject@VCOPOSBumpBar@@@ATL@@6BCComControlBase@1@@ 0000000180027db0     BumpBar.obj
 0002:00001dd8       ??_7?$CComObject@VCOPOSBumpBar@@@ATL@@6B?$CWindowImpl@VCOPOSBumpBar@@VCWindow@ATL@@V?$CWinTraits@$0FGAAAAAA@$0A@@3@@1@@ 0000000180027dd8     BumpBar.obj
 0002:00001df8       ??_7?$CComObject@VCOPOSBumpBar@@@ATL@@6B?$IPersistStreamInitImpl@VCOPOSBumpBar@@@1@@ 0000000180027df8     BumpBar.obj
 0002:00001e40       ??_7?$CComObject@VCOPOSBumpBar@@@ATL@@6B?$IOleControlImpl@VCOPOSBumpBar@@@1@@ 0000000180027e40     BumpBar.obj
 0002:00001e78       ??_7?$CComObject@VCOPOSBumpBar@@@ATL@@6B?$IOleObjectImpl@VCOPOSBumpBar@@@1@@ 0000000180027e78     BumpBar.obj
 0002:00001f38       ??_7?$CComObject@VCOPOSBumpBar@@@ATL@@6B?$IOleInPlaceActiveObjectImpl@VCOPOSBumpBar@@@1@@ 0000000180027f38     BumpBar.obj
 0002:00001f88       ??_7?$CComObject@VCOPOSBumpBar@@@ATL@@6B?$IViewObjectExImpl@VCOPOSBumpBar@@@1@@ 0000000180027f88     BumpBar.obj
 0002:00002000       ??_7?$CComObject@VCOPOSBumpBar@@@ATL@@6B?$IOleInPlaceObjectWindowlessImpl@VCOPOSBumpBar@@@1@@ 0000000180028000     BumpBar.obj
 0002:00002058       ??_7?$CComObject@VCOPOSBumpBar@@@ATL@@6B?$IConnectionPointContainerImpl@VCOPOSBumpBar@@@1@@ 0000000180028058     BumpBar.obj
 0002:00002080       ??_7?$CComObject@VCOPOSBumpBar@@@ATL@@6B?$IPersistStorageImpl@VCOPOSBumpBar@@@1@@ 0000000180028080     BumpBar.obj
 0002:000020d0       ??_7?$CComObject@VCOPOSBumpBar@@@ATL@@6B?$ISpecifyPropertyPagesImpl@VCOPOSBumpBar@@@1@@ 00000001800280d0     BumpBar.obj
 0002:000020f0       ??_7?$CComObject@VCOPOSBumpBar@@@ATL@@6B?$IQuickActivateImpl@VCOPOSBumpBar@@@1@@ 00000001800280f0     BumpBar.obj
 0002:00002120       ??_7?$CComObject@VCOPOSBumpBar@@@ATL@@6B?$IDataObjectImpl@VCOPOSBumpBar@@@1@@ 0000000180028120     BumpBar.obj
 0002:00002180       ??_7?$CComObject@VCOPOSBumpBar@@@ATL@@6B?$IProvideClassInfo2Impl@$1?CLSID_OPOSBumpBar@@3U_GUID@@B$1?DIID__IOPOSBumpBarEvents@@3U2@B$1?LIBID_OposBumpBar_CCO@@3U2@B$00$0A@VCComTypeInfoHolder@ATL@@@1@@ 0000000180028180     BumpBar.obj
 0002:000021a8       ??_7?$CComObject@VCOPOSBumpBar@@@ATL@@6B?$IObjectSafetyImpl@VCOPOSBumpBar@@$02@1@@ 00000001800281a8     BumpBar.obj
 0002:000021d8       ??_7?$CComObject@VCOPOSBumpBar@@@ATL@@6B?$IPropertyNotifySinkCP@VCOPOSBumpBar@@VCComDynamicUnkArray@ATL@@@1@@ 00000001800281d8     BumpBar.obj
 0002:00002218       ??_7?$CComObject@VCOPOSBumpBar@@@ATL@@6B?$CProxy_IOPOSEvents@VCOPOSBumpBar@@@@@ 0000000180028218     BumpBar.obj
 0002:00002258       ??_C@_1O@GBFKGNEO@?$AAA?$AAT?$AAL?$AA?3?$AA?$CF?$AAp@ 0000000180028258     BumpBar.obj
 0002:00002268       ??_C@_1BA@PICGEGJB@?$AAD?$AAI?$AAS?$AAP?$AAL?$AAA?$AAY@ 0000000180028268     BumpBar.obj
 0002:00002278       _GUID_b196b284_bab4_101a_b69c_00aa00341d07 0000000180028278     BumpBar.obj
 0002:00002288       _GUID_9bfbbc02_eff1_101a_84ed_00aa00341d07 0000000180028288     BumpBar.obj
 0002:00002298       ?_entries@?1??_GetEntries@?$CComEnum@UIEnumConnectionPoints@@$1?_GUID_b196b285_bab4_101a_b69c_00aa00341d07@@3U__s_GUID@@BPEAUIConnectionPoint@@V?$_CopyInterface@UIConnectionPoint@@@ATL@@VCComSingleThreadModel@6@@ATL@@SAPEBU_ATL_INTMAP_ENTRY@3@XZ@4QBU43@B 0000000180028298     BumpBar.obj
 0002:000022c8       _GUID_00020412_0000_0000_c000_000000000046 00000001800282c8     BumpBar.obj
 0002:000022d8       _GUID_00020401_0000_0000_c000_000000000046 00000001800282d8     BumpBar.obj
 0002:000022e8       ??_C@_0BG@EKFFMJIO@RegOpenKeyTransactedW@ 00000001800282e8     BumpBar.obj
 0002:00002300       ??_C@_0BI@HAKLOOGP@RegDeleteKeyTransactedW@ 0000000180028300     BumpBar.obj
 0002:00002318       ??_C@_0BA@LILAPHGE@RegDeleteKeyExW@ 0000000180028318     BumpBar.obj
 0002:00002328       ??_C@_19ILOCMLCJ@?$AA?4?$AAt?$AAl?$AAb@ 0000000180028328     BumpBar.obj
 0002:00002338       _GUID_0002e012_0000_0000_c000_000000000046 0000000180028338     BumpBar.obj
 0002:00002348       ??_C@_1O@FHBGLCIO@?$AAC?$AAL?$AAS?$AAI?$AAD?$AA?2@ 0000000180028348     BumpBar.obj
 0002:00002358       ??_C@_1CK@IFBKBFAA@?$AA?2?$AAR?$AAe?$AAq?$AAu?$AAi?$AAr?$AAe?$AAd?$AA?5?$AAC?$AAa?$AAt?$AAe?$AAg@ 0000000180028358     BumpBar.obj
 0002:00002388       ??_C@_1DA@BIHALFED@?$AA?2?$AAI?$AAm?$AAp?$AAl?$AAe?$AAm?$AAe?$AAn?$AAt?$AAe?$AAd?$AA?5?$AAC?$AAa@ 0000000180028388     BumpBar.obj
 0002:000023b8       ??_C@_1BK@EDKOLFBJ@?$AAO?$AAL?$AAE?$AAA?$AAU?$AAT?$AA3?$AA2?$AA?4?$AAD?$AAL?$AAL@ 00000001800283b8     BumpBar.obj
 0002:000023d8       ??_C@_0BJ@CNLFOMHB@UnRegisterTypeLibForUser@ 00000001800283d8     BumpBar.obj
 0002:000023f8       ??_C@_0BH@LBOMMKPJ@RegisterTypeLibForUser@ 00000001800283f8     BumpBar.obj
 0002:00002410       ??_C@_0P@MMNMMLGK@COFreezeEvents@ 0000000180028410     BumpBarImpl.obj
 0002:00002420       ??_C@_0BC@OGCGGIMP@GetPropertyNumber@ 0000000180028420     BumpBarImpl.obj
 0002:00002438       ??_C@_0BC@MDCNODNB@SetPropertyNumber@ 0000000180028438     BumpBarImpl.obj
 0002:00002450       ??_C@_0BC@CFCCMIMD@GetPropertyString@ 0000000180028450     BumpBarImpl.obj
 0002:00002468       ??_C@_0BC@CJEDNN@SetPropertyString@ 0000000180028468     BumpBarImpl.obj
 0002:00002480       ??_C@_0M@LNPKKKDA@OpenService@ 0000000180028480     BumpBarImpl.obj
 0002:00002490       ??_C@_0M@PCMCHHMH@CheckHealth@ 0000000180028490     BumpBarImpl.obj
 0002:000024a0       ??_C@_0M@JGMIDNEK@ClaimDevice@ 00000001800284a0     BumpBarImpl.obj
 0002:000024b0       ??_C@_0L@BNEIFEJC@ClearInput@ 00000001800284b0     BumpBarImpl.obj
 0002:000024c0       ??_C@_0M@JMBCPNGJ@ClearOutput@ 00000001800284c0     BumpBarImpl.obj
 0002:000024d0       ??_C@_0N@DDFIIBMP@CloseService@ 00000001800284d0     BumpBarImpl.obj
 0002:000024e0       ??_C@_08EEIHICPC@DirectIO@ 00000001800284e0     BumpBarImpl.obj
 0002:000024f0       ??_C@_0O@BCPMENMJ@ReleaseDevice@ 00000001800284f0     BumpBarImpl.obj
 0002:00002500       ??_C@_0N@OFCJPNJK@BumpBarSound@ 0000000180028500     BumpBarImpl.obj
 0002:00002510       ??_C@_0BC@CHBPCIIJ@SetKeyTranslation@ 0000000180028510     BumpBarImpl.obj
 0002:00002528       ??_C@_0BA@GFABKEEE@ResetStatistics@ 0000000180028528     BumpBarImpl.obj
 0002:00002538       ??_C@_0BD@DPALHJGC@RetrieveStatistics@ 0000000180028538     BumpBarImpl.obj
 0002:00002550       ??_C@_0BB@KOHIKNFC@UpdateStatistics@ 0000000180028550     BumpBarImpl.obj
 0002:00002568       ??_C@_0BH@PBKBNMGB@CompareFirmwareVersion@ 0000000180028568     BumpBarImpl.obj
 0002:00002580       ??_C@_0P@FBPDPIPA@UpdateFirmware@ 0000000180028580     BumpBarImpl.obj
 0002:00002590       ??_7?$CProxy_IOPOSEvents@VCOPOSBumpBar@@@@6B@ 0000000180028590     BumpBarImpl.obj
 0002:000025d0       ??_C@_1BA@IFHENID@?$AA?$FL?$AAE?$AAr?$AAr?$AAo?$AAr?$AA?$FN@ 00000001800285d0     BumpBarImpl.obj
 0002:000025e0       ??_C@_0CK@CAJINFBF@SOFTWARE?2OLEforRetail?2ServiceOP@ 00000001800285e0     BumpBarImpl.obj
 0002:00002610       ??_C@_1M@IAIJHCCH@?$AAC?$AAl?$AAo?$AAs?$AAe@ 0000000180028610     BumpBarImpl.obj
 0002:00002620       ??_C@_1M@PCPKGJAH@?$AAC?$AAl?$AAa?$AAi?$AAm@ 0000000180028620     BumpBarImpl.obj
 0002:00002630       ??_C@_1BA@NDFKIOCP@?$AAR?$AAe?$AAl?$AAe?$AAa?$AAs?$AAe@ 0000000180028630     BumpBarImpl.obj
 0002:00002640       ??_C@_07GHIMMMBE@BumpBar@  0000000180028640     BumpBarImpl.obj
 0002:00002648       ??_C@_1BM@IJMNMBPK@?$AAG?$AAe?$AAt?$AAO?$AAp?$AAe?$AAn?$AAR?$AAe?$AAs?$AAu?$AAl?$AAt@ 0000000180028648     BumpBarImpl.obj
 0002:00002668       IID_IDispatch              0000000180028668     uuid:oaidl_i.obj
 0002:00002678       IID_IPropertyNotifySink    0000000180028678     uuid:ocidl_i.obj
 0002:00002688       GUID_NULL                  0000000180028688     uuid:cguid_i.obj
 0002:00002698       CLSID_StdGlobalInterfaceTable 0000000180028698     uuid:cguid_i.obj
 0002:000026a8       CLSID_StdComponentCategoriesMgr 00000001800286a8     uuid:ieguids.obj
 0002:000026b8       IID_IUnknown               00000001800286b8     uuid:unknwn_i.obj
 0002:000026d0       __xmm@ffffffffffffffffffffffffffffffff 00000001800286d0     LIBCMT:utility.obj
 0002:000026e0       ??_C@_1EC@JIJBPKFM@?$AAa?$AAp?$AAi?$AA?9?$AAm?$AAs?$AA?9?$AAw?$AAi?$AAn?$AA?9?$AAc?$AAo?$AAr?$AAe@ 00000001800286e0     LIBCMT:thread_safe_statics.obj
 0002:00002728       ??_C@_1BK@MGMFAEKH@?$AAk?$AAe?$AAr?$AAn?$AAe?$AAl?$AA3?$AA2?$AA?4?$AAd?$AAl?$AAl@ 0000000180028728     LIBCMT:thread_safe_statics.obj
 0002:00002748       ??_C@_0BJ@JEBJOJFJ@SleepConditionVariableCS@ 0000000180028748     LIBCMT:thread_safe_statics.obj
 0002:00002768       ??_C@_0BJ@PGPPEPCC@WakeAllConditionVariable@ 0000000180028768     LIBCMT:thread_safe_statics.obj
 0002:00002781       ?nothrow@std@@3Unothrow_t@1@B 0000000180028781     LIBCMT:std_nothrow.obj
 0002:00002798       _pRawDllMain               0000000180028798     LIBCMT:dll_dllmain.obj
 0002:00002798       _pDefaultRawDllMain        0000000180028798     LIBCMT:dll_dllmain.obj
 0002:000027a8       ??_7exception@std@@6B@     00000001800287a8     LIBCMT:throw_bad_alloc.obj
 0002:000027b8       ??_C@_0BC@EOODALEL@Unknown?5exception@ 00000001800287b8     LIBCMT:throw_bad_alloc.obj
 0002:000027d8       ??_7bad_alloc@std@@6B@     00000001800287d8     LIBCMT:throw_bad_alloc.obj
 0002:000027e8       ??_C@_0P@GHFPNOJB@bad?5allocation@ 00000001800287e8     LIBCMT:throw_bad_alloc.obj
 0002:00002800       ??_7bad_array_new_length@std@@6B@ 0000000180028800     LIBCMT:throw_bad_alloc.obj
 0002:00002810       ??_C@_0BF@KINCDENJ@bad?5array?5new?5length@ 0000000180028810     LIBCMT:throw_bad_alloc.obj
 0002:00002830       ??_7type_info@@6B@         0000000180028830     LIBCMT:std_type_info_static.obj
 0002:00002838       GUID_ATLVer110             0000000180028838     atls:atlbase.obj
 0002:00002850       ??_C@_1IC@ONKHOIDK@?$AAE?$AAR?$AAR?$AAO?$AAR?$AA?5?$AA?3?$AA?5?$AAU?$AAn?$AAa?$AAb?$AAl?$AAe?$AA?5@ 0000000180028850     atls:atlbase.obj
 0002:000028d8       ??_C@_0N@FJEPLCIH@atlthunk?4dll@ 00000001800288d8     atls:atlthunk.obj
 0002:000028e8       ??_C@_0BG@GAKFHCBM@AtlThunk_AllocateData@ 00000001800288e8     atls:atlthunk.obj
 0002:00002900       ??_C@_0BC@JKONFIAH@AtlThunk_InitData@ 0000000180028900     atls:atlthunk.obj
 0002:00002918       ??_C@_0BE@IAOEELAK@AtlThunk_DataToCode@ 0000000180028918     atls:atlthunk.obj
 0002:00002930       ??_C@_0BC@GBGKAIPI@AtlThunk_FreeData@ 0000000180028930     atls:atlthunk.obj
 0002:00002948       ?s_negLengthTab@FH4@@3QBCB 0000000180028948     libvcruntime:risctrnsctrl.obj
 0002:00002958       ?s_shiftTab@FH4@@3QBEB     0000000180028958     libvcruntime:risctrnsctrl.obj
 0002:00002aa8       _pDestructExceptionObject  0000000180028aa8     libvcruntime:ehhelpers.obj
 0002:00002ab8       ??_7bad_exception@std@@6B@ 0000000180028ab8     libvcruntime:frame.obj
 0002:00002ac8       ??_C@_0O@DPKOEFFH@bad?5exception@ 0000000180028ac8     libvcruntime:frame.obj
 0002:000031f0       ??_C@_08EHJDFFNH@__based?$CI@ 00000001800291f0     libvcruntime:undname.obj
 0002:00003200       ??_C@_07KOLFKCDI@__cdecl@  0000000180029200     libvcruntime:undname.obj
 0002:00003208       ??_C@_08GHMPAG@__pascal@   0000000180029208     libvcruntime:undname.obj
 0002:00003218       ??_C@_09IFJBGAPI@__stdcall@ 0000000180029218     libvcruntime:undname.obj
 0002:00003228       ??_C@_0L@NPHFGOKO@__thiscall@ 0000000180029228     libvcruntime:undname.obj
 0002:00003238       ??_C@_0L@JMKHOMEK@__fastcall@ 0000000180029238     libvcruntime:undname.obj
 0002:00003248       ??_C@_0N@BCKKPABJ@__vectorcall@ 0000000180029248     libvcruntime:undname.obj
 0002:00003258       ??_C@_09HIJEGCPM@__clrcall@ 0000000180029258     libvcruntime:undname.obj
 0002:00003264       ??_C@_06GHPCKEAG@__eabi@   0000000180029264     libvcruntime:undname.obj
 0002:00003270       ??_C@_09IOPIDJLG@__swift_1@ 0000000180029270     libvcruntime:undname.obj
 0002:00003280       ??_C@_09KFNFGKHF@__swift_2@ 0000000180029280     libvcruntime:undname.obj
 0002:00003290       ??_C@_09LMMOFLDE@__swift_3@ 0000000180029290     libvcruntime:undname.obj
 0002:000032a0       ??_C@_07JOMMBBKO@__ptr64@  00000001800292a0     libvcruntime:undname.obj
 0002:000032a8       ??_C@_0L@PILCLIHE@__restrict@ 00000001800292a8     libvcruntime:undname.obj
 0002:000032b8       ??_C@_0M@GFIIJFMG@__unaligned@ 00000001800292b8     libvcruntime:undname.obj
 0002:000032c8       ??_C@_09DHDLOLLB@restrict?$CI@ 00000001800292c8     libvcruntime:undname.obj
 0002:000032d2       ??_C@_00CNPNBAHC@@         00000001800292d2     libvcruntime:undname.obj
 0002:000032d4       ??_C@_04NIHEBCM@?5new@     00000001800292d4     libvcruntime:undname.obj
 0002:000032e0       ??_C@_07FPCDHGMM@?5delete@ 00000001800292e0     libvcruntime:undname.obj
 0002:000032e8       ??_C@_01NEMOKFLO@?$DN@     00000001800292e8     libvcruntime:undname.obj
 0002:000032ec       ??_C@_02GPIOPFAK@?$DO?$DO@ 00000001800292ec     libvcruntime:undname.obj
 0002:000032f0       ??_C@_02FODMEDOG@?$DM?$DM@ 00000001800292f0     libvcruntime:undname.obj
 0002:000032f4       ??_C@_01DCLJPIOD@?$CB@     00000001800292f4     libvcruntime:undname.obj
 0002:000032f8       ??_C@_02EGOFBIJA@?$DN?$DN@ 00000001800292f8     libvcruntime:undname.obj
 0002:000032fc       ??_C@_02FDNJECIE@?$CB?$DN@ 00000001800292fc     libvcruntime:undname.obj
 0002:00003300       ??_C@_02GPECMEKF@?$FL?$FN@ 0000000180029300     libvcruntime:undname.obj
 0002:00003308       ??_C@_08LHJFAFGD@operator@ 0000000180029308     libvcruntime:undname.obj
 0002:00003314       ??_C@_02HBOOOICD@?9?$DO@   0000000180029314     libvcruntime:undname.obj
 0002:00003318       ??_C@_01NBENCBCI@?$CK@     0000000180029318     libvcruntime:undname.obj
 0002:0000331c       ??_C@_02ECNGHCIF@?$CL?$CL@ 000000018002931c     libvcruntime:undname.obj
 0002:00003320       ??_C@_02BAABKJLB@?9?9@     0000000180029320     libvcruntime:undname.obj
 0002:00003324       ??_C@_01JOAMLHOP@?9@       0000000180029324     libvcruntime:undname.obj
 0002:00003328       ??_C@_01MIFGBAGJ@?$CL@     0000000180029328     libvcruntime:undname.obj
 0002:0000332c       ??_C@_01HNPIGOCE@?$CG@     000000018002932c     libvcruntime:undname.obj
 0002:00003330       ??_C@_03MNHNFDLC@?9?$DO?$CK@ 0000000180029330     libvcruntime:undname.obj
 0002:00003334       ??_C@_01KMDKNFGN@?1@       0000000180029334     libvcruntime:undname.obj
 0002:00003338       ??_C@_01FGNFDNOH@?$CF@     0000000180029338     libvcruntime:undname.obj
 0002:0000333c       ??_C@_01MNNFJEPP@?$DM@     000000018002933c     libvcruntime:undname.obj
 0002:00003340       ??_C@_02EHCHHCKH@?$DM?$DN@ 0000000180029340     libvcruntime:undname.obj
 0002:00003344       ??_C@_01PPODPGHN@?$DO@     0000000180029344     libvcruntime:undname.obj
 0002:00003348       ??_C@_02EEKDKGMJ@?$DO?$DN@ 0000000180029348     libvcruntime:undname.obj
 0002:0000334c       ??_C@_01IHBHIGKO@?0@       000000018002934c     libvcruntime:undname.obj
 0002:00003350       ??_C@_02HCKGKOFO@?$CI?$CJ@ 0000000180029350     libvcruntime:undname.obj
 0002:00003354       ??_C@_01PJKLJHI@?$HO@      0000000180029354     libvcruntime:undname.obj
 0002:00003358       ??_C@_01JKBOJNNK@?$FO@     0000000180029358     libvcruntime:undname.obj
 0002:0000335c       ??_C@_01DNKMNLPK@?$HM@     000000018002935c     libvcruntime:undname.obj
 0002:00003360       ??_C@_02PPKAJPJL@?$CG?$CG@ 0000000180029360     libvcruntime:undname.obj
 0002:00003364       ??_C@_02NONPIBCD@?$HM?$HM@ 0000000180029364     libvcruntime:undname.obj
 0002:00003368       ??_C@_02FPIMKNGF@?$CK?$DN@ 0000000180029368     libvcruntime:undname.obj
 0002:0000336c       ??_C@_02FOEOMHFC@?$CL?$DN@ 000000018002936c     libvcruntime:undname.obj
 0002:00003370       ??_C@_02FKMDLLOA@?9?$DN@   0000000180029370     libvcruntime:undname.obj
 0002:00003374       ??_C@_02FJEHGPIO@?1?$DN@   0000000180029374     libvcruntime:undname.obj
 0002:00003378       ??_C@_02FENAOKFI@?$CF?$DN@ 0000000180029378     libvcruntime:undname.obj
 0002:0000337c       ??_C@_03IKFCCPFF@?$DO?$DO?$DN@ 000000018002937c     libvcruntime:undname.obj
 0002:00003380       ??_C@_03CDNPDDLA@?$DM?$DM?$DN@ 0000000180029380     libvcruntime:undname.obj
 0002:00003384       ??_C@_02FGJGFEAB@?$CG?$DN@ 0000000180029384     libvcruntime:undname.obj
 0002:00003388       ??_C@_02DHLNPPGH@?$HM?$DN@ 0000000180029388     libvcruntime:undname.obj
 0002:0000338c       ??_C@_02MHEGNOJ@?$FO?$DN@  000000018002938c     libvcruntime:undname.obj
 0002:00003390       ??_C@_09IFPLHPGF@?$GAvftable?8@ 0000000180029390     libvcruntime:undname.obj
 0002:000033a0       ??_C@_09BLBHBJP@?$GAvbtable?8@ 00000001800293a0     libvcruntime:undname.obj
 0002:000033b0       ??_C@_07FEEIOKP@?$GAvcall?8@ 00000001800293b0     libvcruntime:undname.obj
 0002:000033b8       ??_C@_08LLFFHHDJ@?$GAtypeof?8@ 00000001800293b8     libvcruntime:undname.obj
 0002:000033c8       ??_C@_0BF@KDPPACIK@?$GAlocal?5static?5guard?8@ 00000001800293c8     libvcruntime:undname.obj
 0002:000033e0       ??_C@_08OBABFOLI@?$GAstring?8@ 00000001800293e0     libvcruntime:undname.obj
 0002:000033f0       ??_C@_0BD@JDLKDPAB@?$GAvbase?5destructor?8@ 00000001800293f0     libvcruntime:undname.obj
 0002:00003408       ??_C@_0BN@DEGPLNFK@?$GAvector?5deleting?5destructor?8@ 0000000180029408     libvcruntime:undname.obj
 0002:00003428       ??_C@_0BO@OBMKPJIG@?$GAdefault?5constructor?5closure?8@ 0000000180029428     libvcruntime:undname.obj
 0002:00003448       ??_C@_0BN@IMDCHIKM@?$GAscalar?5deleting?5destructor?8@ 0000000180029448     libvcruntime:undname.obj
 0002:00003468       ??_C@_0BO@PFGOCPJJ@?$GAvector?5constructor?5iterator?8@ 0000000180029468     libvcruntime:undname.obj
 0002:00003488       ??_C@_0BN@LFPFMEDL@?$GAvector?5destructor?5iterator?8@ 0000000180029488     libvcruntime:undname.obj
 0002:000034a8       ??_C@_0CE@IKBNEHA@?$GAvector?5vbase?5constructor?5itera@ 00000001800294a8     libvcruntime:undname.obj
 0002:000034d0       ??_C@_0BL@NILFHHPC@?$GAvirtual?5displacement?5map?8@ 00000001800294d0     libvcruntime:undname.obj
 0002:000034f0       ??_C@_0CB@JONCMFFK@?$GAeh?5vector?5constructor?5iterator@ 00000001800294f0     libvcruntime:undname.obj
 0002:00003518       ??_C@_0CA@GCEOPDGL@?$GAeh?5vector?5destructor?5iterator?8@ 0000000180029518     libvcruntime:undname.obj
 0002:00003538       ??_C@_0CH@OOJPLCPH@?$GAeh?5vector?5vbase?5constructor?5it@ 0000000180029538     libvcruntime:undname.obj
 0002:00003560       ??_C@_0BL@LLKPOHJI@?$GAcopy?5constructor?5closure?8@ 0000000180029560     libvcruntime:undname.obj
 0002:00003580       ??_C@_0BA@KBCDOMBN@?$GAudt?5returning?8@ 0000000180029580     libvcruntime:undname.obj
 0002:00003590       ??_C@_03KLGMFNMG@?$GAEH@   0000000180029590     libvcruntime:undname.obj
 0002:00003594       ??_C@_05KHLCHHI@?$GARTTI@  0000000180029594     libvcruntime:undname.obj
 0002:000035a0       ??_C@_0BA@KKLDJDLB@?$GAlocal?5vftable?8@ 00000001800295a0     libvcruntime:undname.obj
 0002:000035b0       ??_C@_0CE@IIHCMGGL@?$GAlocal?5vftable?5constructor?5clos@ 00000001800295b0     libvcruntime:undname.obj
 0002:000035d4       ??_C@_06FHBGPFGH@?5new?$FL?$FN@ 00000001800295d4     libvcruntime:undname.obj
 0002:000035e0       ??_C@_09LBNFPBCA@?5delete?$FL?$FN@ 00000001800295e0     libvcruntime:undname.obj
 0002:000035f0       ??_C@_0P@HJKNJFNN@?$GAomni?5callsig?8@ 00000001800295f0     libvcruntime:undname.obj
 0002:00003600       ??_C@_0BL@CNOONJFP@?$GAplacement?5delete?5closure?8@ 0000000180029600     libvcruntime:undname.obj
 0002:00003620       ??_C@_0BN@CKNJLHMB@?$GAplacement?5delete?$FL?$FN?5closure?8@ 0000000180029620     libvcruntime:undname.obj
 0002:00003640       ??_C@_0CG@CFDHKGGD@?$GAmanaged?5vector?5constructor?5ite@ 0000000180029640     libvcruntime:undname.obj
 0002:00003668       ??_C@_0CF@IMGKMJNO@?$GAmanaged?5vector?5destructor?5iter@ 0000000180029668     libvcruntime:undname.obj
 0002:00003690       ??_C@_0CG@HLDDJMAG@?$GAeh?5vector?5copy?5constructor?5ite@ 0000000180029690     libvcruntime:undname.obj
 0002:000036b8       ??_C@_0CM@FCBBDIGB@?$GAeh?5vector?5vbase?5copy?5construct@ 00000001800296b8     libvcruntime:undname.obj
 0002:000036e8       ??_C@_0BL@CLIPGLGB@?$GAdynamic?5initializer?5for?5?8@ 00000001800296e8     libvcruntime:undname.obj
 0002:00003708       ??_C@_0CB@PDBIFEP@?$GAdynamic?5atexit?5destructor?5for?5@ 0000000180029708     libvcruntime:undname.obj
 0002:00003730       ??_C@_0CD@CGAJBKEJ@?$GAvector?5copy?5constructor?5iterat@ 0000000180029730     libvcruntime:undname.obj
 0002:00003758       ??_C@_0CJ@GJELGAMM@?$GAvector?5vbase?5copy?5constructor?5@ 0000000180029758     libvcruntime:undname.obj
 0002:00003788       ??_C@_0CL@FGIJHLCE@?$GAmanaged?5vector?5copy?5constructo@ 0000000180029788     libvcruntime:undname.obj
 0002:000037b8       ??_C@_0BM@PMGGMLDN@?$GAlocal?5static?5thread?5guard?8@ 00000001800297b8     libvcruntime:undname.obj
 0002:000037d8       ??_C@_0N@BDNMDMOL@operator?5?$CC?$CC?5@ 00000001800297d8     libvcruntime:undname.obj
 0002:000037e8       ??_C@_0BC@GGEBGALA@operator?5co_await@ 00000001800297e8     libvcruntime:undname.obj
 0002:00003800       ??_C@_0M@GAAIMMOH@operator?$DM?$DN?$DO@ 0000000180029800     libvcruntime:undname.obj
 0002:00003810       ??_C@_0BC@DAFEJGAK@?5Type?5Descriptor?8@ 0000000180029810     libvcruntime:undname.obj
 0002:00003828       ??_C@_0BM@LDKODKLH@?5Base?5Class?5Descriptor?5at?5?$CI@ 0000000180029828     libvcruntime:undname.obj
 0002:00003848       ??_C@_0BD@LGICGFMM@?5Base?5Class?5Array?8@ 0000000180029848     libvcruntime:undname.obj
 0002:00003860       ??_C@_0BN@MECKDCOJ@?5Class?5Hierarchy?5Descriptor?8@ 0000000180029860     libvcruntime:undname.obj
 0002:00003880       ??_C@_0BK@CFCOFLF@?5Complete?5Object?5Locator?8@ 0000000180029880     libvcruntime:undname.obj
 0002:000038a0       ??_C@_0BG@JNJLAMPM@?$GAanonymous?5namespace?8@ 00000001800298a0     libvcruntime:undname.obj
 0002:000038d0       ??_C@_1DM@KHCHBNEB@?$AAa?$AAp?$AAi?$AA?9?$AAm?$AAs?$AA?9?$AAw?$AAi?$AAn?$AA?9?$AAc?$AAo?$AAr?$AAe@ 00000001800298d0     libvcruntime:winapi_downlevel.obj
 0002:00003910       ??_C@_1DK@LPPGFMPP@?$AAa?$AAp?$AAi?$AA?9?$AAm?$AAs?$AA?9?$AAw?$AAi?$AAn?$AA?9?$AAc?$AAo?$AAr?$AAe@ 0000000180029910     libvcruntime:winapi_downlevel.obj
 0002:00003950       ??_C@_1BC@GDMECMAK@?$AAk?$AAe?$AAr?$AAn?$AAe?$AAl?$AA3?$AA2@ 0000000180029950     libvcruntime:winapi_downlevel.obj
 0002:00003968       ??_C@_1BA@PFFKHIOG@?$AAa?$AAp?$AAi?$AA?9?$AAm?$AAs?$AA?9@ 0000000180029968     libvcruntime:winapi_downlevel.obj
 0002:00003980       ??_C@_08KNHFBNJ@FlsAlloc@  0000000180029980     libvcruntime:winapi_downlevel.obj
 0002:00003998       ??_C@_07PEJMOBNF@FlsFree@  0000000180029998     libvcruntime:winapi_downlevel.obj
 0002:000039a8       ??_C@_0M@GDNOONDI@FlsGetValue@ 00000001800299a8     libvcruntime:winapi_downlevel.obj
 0002:000039c0       ??_C@_0M@JCPCPOEF@FlsSetValue@ 00000001800299c0     libvcruntime:winapi_downlevel.obj
 0002:000039d8       ??_C@_0BM@HCFOFFN@InitializeCriticalSectionEx@ 00000001800299d8     libvcruntime:winapi_downlevel.obj
 0002:00003b70       ?format_validation_lookup_table_spectre@__crt_stdio_output@@3V?$spectre_mitigated_lookup_table@Ustate_transition_pair@__crt_stdio_output@@$0IA@@1@B 0000000180029b70     libucrt:output.obj
 0002:00003c70       ??_C@_1O@CEDCILHN@?$AA?$CI?$AAn?$AAu?$AAl?$AAl?$AA?$CJ@ 0000000180029c70     libucrt:output.obj
 0002:00003c80       ??_C@_06OJHGLDPL@?$CInull?$CJ@ 0000000180029c80     libucrt:output.obj
 0002:00003c90       __acrt_exception_action_table 0000000180029c90     libucrt:exception_filter.obj
 0002:00003d50       __acrt_signal_action_table_count 0000000180029d50     libucrt:exception_filter.obj
 0002:00003d58       __acrt_signal_action_first_fpe_index 0000000180029d58     libucrt:exception_filter.obj
 0002:00003d60       __acrt_signal_action_fpe_count 0000000180029d60     libucrt:exception_filter.obj
 0002:00003db8       ??_C@_1BI@BGOHAHKC@?$AAm?$AAs?$AAc?$AAo?$AAr?$AAe?$AAe?$AA?4?$AAd?$AAl?$AAl@ 0000000180029db8     libucrt:exit.obj
 0002:00003dd0       ??_C@_0P@MIGLKIOC@CorExitProcess@ 0000000180029dd0     libucrt:exit.obj
 0002:00003f30       __lc_time_c                0000000180029f30     libucrt:nlsdata.obj
 0002:000041f0       ??_C@_03KOEHGMDN@Sun@      000000018002a1f0     libucrt:nlsdata.obj
 0002:000041f4       ??_C@_03PDAGKDH@Mon@       000000018002a1f4     libucrt:nlsdata.obj
 0002:000041f8       ??_C@_03NAGEINEP@Tue@      000000018002a1f8     libucrt:nlsdata.obj
 0002:000041fc       ??_C@_03MHOMLAJA@Wed@      000000018002a1fc     libucrt:nlsdata.obj
 0002:00004200       ??_C@_03IOFIKPDN@Thu@      000000018002a200     libucrt:nlsdata.obj
 0002:00004204       ??_C@_03IDIOELNC@Fri@      000000018002a204     libucrt:nlsdata.obj
 0002:00004208       ??_C@_03FEFJNEK@Sat@       000000018002a208     libucrt:nlsdata.obj
 0002:0000420c       ??_C@_06OOPIFAJ@Sunday@    000000018002a20c     libucrt:nlsdata.obj
 0002:00004214       ??_C@_06JLEDEDGH@Monday@   000000018002a214     libucrt:nlsdata.obj
 0002:00004220       ??_C@_07BAAGCFCM@Tuesday@  000000018002a220     libucrt:nlsdata.obj
 0002:00004228       ??_C@_09DLIGFAKA@Wednesday@ 000000018002a228     libucrt:nlsdata.obj
 0002:00004238       ??_C@_08HACCIKIA@Thursday@ 000000018002a238     libucrt:nlsdata.obj
 0002:00004244       ??_C@_06JECMNKMI@Friday@   000000018002a244     libucrt:nlsdata.obj
 0002:00004250       ??_C@_08INBOOONO@Saturday@ 000000018002a250     libucrt:nlsdata.obj
 0002:0000425c       ??_C@_03JIHJHPIE@Jan@      000000018002a25c     libucrt:nlsdata.obj
 0002:00004260       ??_C@_03HJBDCHOM@Feb@      000000018002a260     libucrt:nlsdata.obj
 0002:00004264       ??_C@_03ODNJBKGA@Mar@      000000018002a264     libucrt:nlsdata.obj
 0002:00004268       ??_C@_03LEOLGMJP@Apr@      000000018002a268     libucrt:nlsdata.obj
 0002:0000426c       ??_C@_03CNMDKL@May@        000000018002a26c     libucrt:nlsdata.obj
 0002:00004270       ??_C@_03IDFGHECI@Jun@      000000018002a270     libucrt:nlsdata.obj
 0002:00004274       ??_C@_03LBGABGKK@Jul@      000000018002a274     libucrt:nlsdata.obj
 0002:00004278       ??_C@_03IFJFEIGA@Aug@      000000018002a278     libucrt:nlsdata.obj
 0002:0000427c       ??_C@_03GGCAPAJC@Sep@      000000018002a27c     libucrt:nlsdata.obj
 0002:00004280       ??_C@_03BMAOKBAD@Oct@      000000018002a280     libucrt:nlsdata.obj
 0002:00004284       ??_C@_03JPJOFNIA@Nov@      000000018002a284     libucrt:nlsdata.obj
 0002:00004288       ??_C@_03MKABNOCG@Dec@      000000018002a288     libucrt:nlsdata.obj
 0002:00004290       ??_C@_07CGJPFGJA@January@  000000018002a290     libucrt:nlsdata.obj
 0002:00004298       ??_C@_08GNJGEPFN@February@ 000000018002a298     libucrt:nlsdata.obj
 0002:000042a4       ??_C@_05HPCKOFNC@March@    000000018002a2a4     libucrt:nlsdata.obj
 0002:000042ac       ??_C@_05DMJDNLEJ@April@    000000018002a2ac     libucrt:nlsdata.obj
 0002:000042b4       ??_C@_04CNLMGBGM@June@     000000018002a2b4     libucrt:nlsdata.obj
 0002:000042bc       ??_C@_04MIEPOIFP@July@     000000018002a2bc     libucrt:nlsdata.obj
 0002:000042c4       ??_C@_06LBBHFDDG@August@   000000018002a2c4     libucrt:nlsdata.obj
 0002:000042d0       ??_C@_09BHHEALKD@September@ 000000018002a2d0     libucrt:nlsdata.obj
 0002:000042e0       ??_C@_07JJNFCEND@October@  000000018002a2e0     libucrt:nlsdata.obj
 0002:000042e8       ??_C@_08HCHEGEOA@November@ 000000018002a2e8     libucrt:nlsdata.obj
 0002:000042f8       ??_C@_08EDHMEBNP@December@ 000000018002a2f8     libucrt:nlsdata.obj
 0002:00004304       ??_C@_02DEDBPAFC@AM@       000000018002a304     libucrt:nlsdata.obj
 0002:00004308       ??_C@_02CJNFDJBF@PM@       000000018002a308     libucrt:nlsdata.obj
 0002:00004310       ??_C@_08BPBNCDIB@MM?1dd?1yy@ 000000018002a310     libucrt:nlsdata.obj
 0002:00004320       ??_C@_0BE@CKGJFCPC@dddd?0?5MMMM?5dd?0?5yyyy@ 000000018002a320     libucrt:nlsdata.obj
 0002:00004338       ??_C@_08JCCMCCIL@HH?3mm?3ss@ 000000018002a338     libucrt:nlsdata.obj
 0002:00004348       ??_C@_17MBGCMIPB@?$AAS?$AAu?$AAn@ 000000018002a348     libucrt:nlsdata.obj
 0002:00004350       ??_C@_17KBOMKBF@?$AAM?$AAo?$AAn@ 000000018002a350     libucrt:nlsdata.obj
 0002:00004358       ??_C@_17BMKGEGOJ@?$AAT?$AAu?$AAe@ 000000018002a358     libucrt:nlsdata.obj
 0002:00004360       ??_C@_17CJEDCEPE@?$AAW?$AAe?$AAd@ 000000018002a360     libucrt:nlsdata.obj
 0002:00004368       ??_C@_17PDPHAADD@?$AAT?$AAh?$AAu@ 000000018002a368     libucrt:nlsdata.obj
 0002:00004370       ??_C@_17HFOLPPLP@?$AAF?$AAr?$AAi@ 000000018002a370     libucrt:nlsdata.obj
 0002:00004378       ??_C@_17GGIBDPIH@?$AAS?$AAa?$AAt@ 000000018002a378     libucrt:nlsdata.obj
 0002:00004380       ??_C@_1O@IHNHDHPB@?$AAS?$AAu?$AAn?$AAd?$AAa?$AAy@ 000000018002a380     libucrt:nlsdata.obj
 0002:00004390       ??_C@_1O@MMNBFLIA@?$AAM?$AAo?$AAn?$AAd?$AAa?$AAy@ 000000018002a390     libucrt:nlsdata.obj
 0002:000043a0       ??_C@_1BA@ENFBFFEK@?$AAT?$AAu?$AAe?$AAs?$AAd?$AAa?$AAy@ 000000018002a3a0     libucrt:nlsdata.obj
 0002:000043b0       ??_C@_1BE@EBOGMDOH@?$AAW?$AAe?$AAd?$AAn?$AAe?$AAs?$AAd?$AAa?$AAy@ 000000018002a3b0     libucrt:nlsdata.obj
 0002:000043c8       ??_C@_1BC@HHMNLIHE@?$AAT?$AAh?$AAu?$AAr?$AAs?$AAd?$AAa?$AAy@ 000000018002a3c8     libucrt:nlsdata.obj
 0002:000043e0       ??_C@_1O@PDICJHAG@?$AAF?$AAr?$AAi?$AAd?$AAa?$AAy@ 000000018002a3e0     libucrt:nlsdata.obj
 0002:000043f0       ??_C@_1BC@ENMNNPAJ@?$AAS?$AAa?$AAt?$AAu?$AAr?$AAd?$AAa?$AAy@ 000000018002a3f0     libucrt:nlsdata.obj
 0002:00004408       ??_C@_17DKNBKCHM@?$AAJ?$AAa?$AAn@ 000000018002a408     libucrt:nlsdata.obj
 0002:00004410       ??_C@_17LMDJEKJN@?$AAF?$AAe?$AAb@ 000000018002a410     libucrt:nlsdata.obj
 0002:00004418       ??_C@_17CKNLEDEC@?$AAM?$AAa?$AAr@ 000000018002a418     libucrt:nlsdata.obj
 0002:00004420       ??_C@_17LFPOIHDD@?$AAA?$AAp?$AAr@ 000000018002a420     libucrt:nlsdata.obj
 0002:00004428       ??_C@_17PNNKMEED@?$AAM?$AAa?$AAy@ 000000018002a428     libucrt:nlsdata.obj
 0002:00004430       ??_C@_17KCJGOCPB@?$AAJ?$AAu?$AAn@ 000000018002a430     libucrt:nlsdata.obj
 0002:00004438       ??_C@_17IJPCKHK@?$AAJ?$AAu?$AAl@ 000000018002a438     libucrt:nlsdata.obj
 0002:00004440       ??_C@_17ICPELBCN@?$AAA?$AAu?$AAg@ 000000018002a440     libucrt:nlsdata.obj
 0002:00004448       ??_C@_17HCHCOKMG@?$AAS?$AAe?$AAp@ 000000018002a448     libucrt:nlsdata.obj
 0002:00004450       ??_C@_17FNLKOI@?$AAO?$AAc?$AAt@ 000000018002a450     libucrt:nlsdata.obj
 0002:00004458       ??_C@_17BBDMLCIG@?$AAN?$AAo?$AAv@ 000000018002a458     libucrt:nlsdata.obj
 0002:00004460       ??_C@_17EGKACKIF@?$AAD?$AAe?$AAc@ 000000018002a460     libucrt:nlsdata.obj
 0002:00004468       ??_C@_1BA@EFMEIEBA@?$AAJ?$AAa?$AAn?$AAu?$AAa?$AAr?$AAy@ 000000018002a468     libucrt:nlsdata.obj
 0002:00004478       ??_C@_1BC@JGDDFFAM@?$AAF?$AAe?$AAb?$AAr?$AAu?$AAa?$AAr?$AAy@ 000000018002a478     libucrt:nlsdata.obj
 0002:00004490       ??_C@_1M@IKEENEDF@?$AAM?$AAa?$AAr?$AAc?$AAh@ 000000018002a490     libucrt:nlsdata.obj
 0002:000044a0       ??_C@_1M@GJNLMHFD@?$AAA?$AAp?$AAr?$AAi?$AAl@ 000000018002a4a0     libucrt:nlsdata.obj
 0002:000044b0       ??_C@_19EPFLPGAP@?$AAJ?$AAu?$AAn?$AAe@ 000000018002a4b0     libucrt:nlsdata.obj
 0002:000044c0       ??_C@_19BIFMLPCD@?$AAJ?$AAu?$AAl?$AAy@ 000000018002a4c0     libucrt:nlsdata.obj
 0002:000044d0       ??_C@_1O@PAHLKOAC@?$AAA?$AAu?$AAg?$AAu?$AAs?$AAt@ 000000018002a4d0     libucrt:nlsdata.obj
 0002:000044e0       ??_C@_1BE@DKAAMBJL@?$AAS?$AAe?$AAp?$AAt?$AAe?$AAm?$AAb?$AAe?$AAr@ 000000018002a4e0     libucrt:nlsdata.obj
 0002:000044f8       ??_C@_1BA@EPANDLNG@?$AAO?$AAc?$AAt?$AAo?$AAb?$AAe?$AAr@ 000000018002a4f8     libucrt:nlsdata.obj
 0002:00004508       ??_C@_1BC@BGLIFPF@?$AAN?$AAo?$AAv?$AAe?$AAm?$AAb?$AAe?$AAr@ 000000018002a508     libucrt:nlsdata.obj
 0002:00004520       ??_C@_1BC@FEMKIFH@?$AAD?$AAe?$AAc?$AAe?$AAm?$AAb?$AAe?$AAr@ 000000018002a520     libucrt:nlsdata.obj
 0002:00004534       ??_C@_15ODEHAHHF@?$AAA?$AAM@ 000000018002a534     libucrt:nlsdata.obj
 0002:0000453c       ??_C@_15CLMNNGEL@?$AAP?$AAM@ 000000018002a53c     libucrt:nlsdata.obj
 0002:00004548       ??_C@_1BC@IEBCMHCM@?$AAM?$AAM?$AA?1?$AAd?$AAd?$AA?1?$AAy?$AAy@ 000000018002a548     libucrt:nlsdata.obj
 0002:00004560       ??_C@_1CI@KNAKOEBC@?$AAd?$AAd?$AAd?$AAd?$AA?0?$AA?5?$AAM?$AAM?$AAM?$AAM?$AA?5?$AAd?$AAd?$AA?0?$AA?5@ 000000018002a560     libucrt:nlsdata.obj
 0002:00004588       ??_C@_1BC@GDGBMEMK@?$AAH?$AAH?$AA?3?$AAm?$AAm?$AA?3?$AAs?$AAs@ 000000018002a588     libucrt:nlsdata.obj
 0002:000045a0       ??_C@_1M@BMHNFIME@?$AAe?$AAn?$AA?9?$AAU?$AAS@ 000000018002a5a0     libucrt:nlsdata.obj
 0002:00004650       ??_C@_1EA@JGEFHKEI@?$AAa?$AAp?$AAi?$AA?9?$AAm?$AAs?$AA?9?$AAw?$AAi?$AAn?$AA?9?$AAc?$AAo?$AAr?$AAe@ 000000018002a650     libucrt:winapi_thunks.obj
 0002:00004690       ??_C@_1DI@IJCEHOCB@?$AAa?$AAp?$AAi?$AA?9?$AAm?$AAs?$AA?9?$AAw?$AAi?$AAn?$AA?9?$AAc?$AAo?$AAr?$AAe@ 000000018002a690     libucrt:winapi_thunks.obj
 0002:000046d0       ??_C@_1EI@MPIAOHOC@?$AAa?$AAp?$AAi?$AA?9?$AAm?$AAs?$AA?9?$AAw?$AAi?$AAn?$AA?9?$AAc?$AAo?$AAr?$AAe@ 000000018002a6d0     libucrt:winapi_thunks.obj
 0002:00004720       ??_C@_1FK@FPHCKFIE@?$AAa?$AAp?$AAi?$AA?9?$AAm?$AAs?$AA?9?$AAw?$AAi?$AAn?$AA?9?$AAc?$AAo?$AAr?$AAe@ 000000018002a720     libucrt:winapi_thunks.obj
 0002:00004780       ??_C@_1EM@DILCGIIO@?$AAa?$AAp?$AAi?$AA?9?$AAm?$AAs?$AA?9?$AAw?$AAi?$AAn?$AA?9?$AAc?$AAo?$AAr?$AAe@ 000000018002a780     libucrt:winapi_thunks.obj
 0002:000047d0       ??_C@_1DM@LNCGDDPN@?$AAa?$AAp?$AAi?$AA?9?$AAm?$AAs?$AA?9?$AAw?$AAi?$AAn?$AA?9?$AAc?$AAo?$AAr?$AAe@ 000000018002a7d0     libucrt:winapi_thunks.obj
 0002:00004810       ??_C@_1DO@FPAPJEMD@?$AAa?$AAp?$AAi?$AA?9?$AAm?$AAs?$AA?9?$AAw?$AAi?$AAn?$AA?9?$AAc?$AAo?$AAr?$AAe@ 000000018002a810     libucrt:winapi_thunks.obj
 0002:00004850       ??_C@_1DK@NDHNAHIO@?$AAa?$AAp?$AAi?$AA?9?$AAm?$AAs?$AA?9?$AAw?$AAi?$AAn?$AA?9?$AAc?$AAo?$AAr?$AAe@ 000000018002a850     libucrt:winapi_thunks.obj
 0002:00004890       ??_C@_1DM@KGHDGBCM@?$AAa?$AAp?$AAi?$AA?9?$AAm?$AAs?$AA?9?$AAw?$AAi?$AAn?$AA?9?$AAc?$AAo?$AAr?$AAe@ 000000018002a890     libucrt:winapi_thunks.obj
 0002:000048d0       ??_C@_1EO@IJIOEFOH@?$AAa?$AAp?$AAi?$AA?9?$AAm?$AAs?$AA?9?$AAw?$AAi?$AAn?$AA?9?$AAr?$AAt?$AAc?$AAo@ 000000018002a8d0     libucrt:winapi_thunks.obj
 0002:00004920       ??_C@_1FG@HHGEKANL@?$AAa?$AAp?$AAi?$AA?9?$AAm?$AAs?$AA?9?$AAw?$AAi?$AAn?$AA?9?$AAs?$AAe?$AAc?$AAu@ 000000018002a920     libucrt:winapi_thunks.obj
 0002:00004980       ??_C@_1EG@DBIOJECG@?$AAe?$AAx?$AAt?$AA?9?$AAm?$AAs?$AA?9?$AAw?$AAi?$AAn?$AA?9?$AAn?$AAt?$AAu?$AAs@ 000000018002a980     libucrt:winapi_thunks.obj
 0002:000049d0       ??_C@_1EO@FIHMJCLF@?$AAe?$AAx?$AAt?$AA?9?$AAm?$AAs?$AA?9?$AAw?$AAi?$AAn?$AA?9?$AAn?$AAt?$AAu?$AAs@ 000000018002a9d0     libucrt:winapi_thunks.obj
 0002:00004a20       ??_C@_1BC@DNHGCMLG@?$AAa?$AAd?$AAv?$AAa?$AAp?$AAi?$AA3?$AA2@ 000000018002aa20     libucrt:winapi_thunks.obj
 0002:00004a38       ??_C@_1M@OAIMIKLP@?$AAn?$AAt?$AAd?$AAl?$AAl@ 000000018002aa38     libucrt:winapi_thunks.obj
 0002:00004a50       ??_C@_1EG@DPGNFKGC@?$AAa?$AAp?$AAi?$AA?9?$AAm?$AAs?$AA?9?$AAw?$AAi?$AAn?$AA?9?$AAa?$AAp?$AAp?$AAm@ 000000018002aa50     libucrt:winapi_thunks.obj
 0002:00004a98       ??_C@_1O@BCCLBEOE@?$AAu?$AAs?$AAe?$AAr?$AA3?$AA2@ 000000018002aa98     libucrt:winapi_thunks.obj
 0002:00004aa8       ??_C@_1BA@IAIFMGEF@?$AAe?$AAx?$AAt?$AA?9?$AAm?$AAs?$AA?9@ 000000018002aaa8     libucrt:winapi_thunks.obj
 0002:00004ac0       ??_C@_0BA@FHFNEAED@AreFileApisANSI@ 000000018002aac0     libucrt:winapi_thunks.obj
 0002:00004ae0       ??_C@_0O@KKBNKAPF@LCMapStringEx@ 000000018002aae0     libucrt:winapi_thunks.obj
 0002:00004af8       ??_C@_0BB@HBDEELFH@LocaleNameToLCID@ 000000018002aaf8     libucrt:winapi_thunks.obj
 0002:00004b10       ??_C@_0CF@OJOFEIGO@AppPolicyGetProcessTerminationM@ 000000018002ab10     libucrt:winapi_thunks.obj
 0002:00004b40       ??_C@_0BI@BKLFFAPO@SetThreadStackGuarantee@ 000000018002ab40     libucrt:winapi_thunks.obj
 0002:00004be0       ??_C@_03OEIAHPBN@INF@      000000018002abe0     libucrt:cvt.obj
 0002:00004be4       ??_C@_03OJHLLCGB@inf@      000000018002abe4     libucrt:cvt.obj
 0002:00004be8       ??_C@_03LKNCIKJB@NAN@      000000018002abe8     libucrt:cvt.obj
 0002:00004bec       ??_C@_03LHCJEHON@nan@      000000018002abec     libucrt:cvt.obj
 0002:00004bf0       ??_C@_09OFJJIMPC@NAN?$CISNAN?$CJ@ 000000018002abf0     libucrt:cvt.obj
 0002:00004c00       ??_C@_09IPFBKMDL@nan?$CIsnan?$CJ@ 000000018002ac00     libucrt:cvt.obj
 0002:00004c10       ??_C@_08IKHNHAJ@NAN?$CIIND?$CJ@ 000000018002ac10     libucrt:cvt.obj
 0002:00004c20       ??_C@_08OFCDMILK@nan?$CIind?$CJ@ 000000018002ac20     libucrt:cvt.obj
 0002:00004c2c       ??_C@_05KLBDPFGC@e?$CL000@ 000000018002ac2c     libucrt:cvt.obj
 0002:00004c58       ??_C@_1M@HPNHIDJI@?$AAj?$AAa?$AA?9?$AAJ?$AAP@ 000000018002ac58     libucrt:mbctype.obj
 0002:00004c68       ??_C@_1M@BIBDDEMK@?$AAz?$AAh?$AA?9?$AAC?$AAN@ 000000018002ac68     libucrt:mbctype.obj
 0002:00004c78       ??_C@_1M@JLOOOEGK@?$AAk?$AAo?$AA?9?$AAK?$AAR@ 000000018002ac78     libucrt:mbctype.obj
 0002:00004c88       ??_C@_1M@CLNBBOPM@?$AAz?$AAh?$AA?9?$AAT?$AAW@ 000000018002ac88     libucrt:mbctype.obj
 0002:00004ca0       __newctype                 000000018002aca0     libucrt:ctype.obj
 0002:00004fa0       __newclmap                 000000018002afa0     libucrt:ctype.obj
 0002:00005120       __newcumap                 000000018002b120     libucrt:ctype.obj
 0002:000052a0       ??_C@_15PJPFLCCM@?$AAu?$AAk@ 000000018002b2a0     libucrt:get_qualified_locale.obj
 0002:000060f0       ??_C@_15EMKDOKLE@?$AAa?$AAr@ 000000018002c0f0     libucrt:lcidtoname_downlevel.obj
 0002:000060f8       ??_C@_15KNPADPLH@?$AAb?$AAg@ 000000018002c0f8     libucrt:lcidtoname_downlevel.obj
 0002:00006100       ??_C@_15EDMHLDMO@?$AAc?$AAa@ 000000018002c100     libucrt:lcidtoname_downlevel.obj
 0002:00006108       ??_C@_1O@BPEAJADD@?$AAz?$AAh?$AA?9?$AAC?$AAH?$AAS@ 000000018002c108     libucrt:lcidtoname_downlevel.obj
 0002:00006118       ??_C@_15LJNHCMNK@?$AAc?$AAs@ 000000018002c118     libucrt:lcidtoname_downlevel.obj
 0002:00006120       ??_C@_15FOMCIDHG@?$AAd?$AAa@ 000000018002c120     libucrt:lcidtoname_downlevel.obj
 0002:00006128       ??_C@_15NBKABECB@?$AAd?$AAe@ 000000018002c128     libucrt:lcidtoname_downlevel.obj
 0002:00006130       ??_C@_15GHPEIIAO@?$AAe?$AAl@ 000000018002c130     libucrt:lcidtoname_downlevel.obj
 0002:00006138       ??_C@_15MNPNEAIF@?$AAe?$AAn@ 000000018002c138     libucrt:lcidtoname_downlevel.obj
 0002:00006140       ??_C@_15GPIOMPMH@?$AAe?$AAs@ 000000018002c140     libucrt:lcidtoname_downlevel.obj
 0002:00006148       ??_C@_15NGLOAKJC@?$AAf?$AAi@ 000000018002c148     libucrt:lcidtoname_downlevel.obj
 0002:00006150       ??_C@_15FBKGNKAM@?$AAf?$AAr@ 000000018002c150     libucrt:lcidtoname_downlevel.obj
 0002:00006158       ??_C@_15KGGCNEFK@?$AAh?$AAe@ 000000018002c158     libucrt:lcidtoname_downlevel.obj
 0002:00006160       ??_C@_15PGHLIDMF@?$AAh?$AAu@ 000000018002c160     libucrt:lcidtoname_downlevel.obj
 0002:00006168       ??_C@_15BIEMAPLM@?$AAi?$AAs@ 000000018002c168     libucrt:lcidtoname_downlevel.obj
 0002:00006170       ??_C@_15IFJLDHAF@?$AAi?$AAt@ 000000018002c170     libucrt:lcidtoname_downlevel.obj
 0002:00006178       ??_C@_15GEMIOCAG@?$AAj?$AAa@ 000000018002c178     libucrt:lcidtoname_downlevel.obj
 0002:00006180       ??_C@_15EPELEGJA@?$AAk?$AAo@ 000000018002c180     libucrt:lcidtoname_downlevel.obj
 0002:00006188       ??_C@_15NDDHIMN@?$AAn?$AAl@ 000000018002c188     libucrt:lcidtoname_downlevel.obj
 0002:00006190       ??_C@_15BPIGNHCD@?$AAn?$AAo@ 000000018002c190     libucrt:lcidtoname_downlevel.obj
 0002:00006198       ??_C@_15DEOPBLCG@?$AAp?$AAl@ 000000018002c198     libucrt:lcidtoname_downlevel.obj
 0002:000061a0       ??_C@_15KBECGEFG@?$AAp?$AAt@ 000000018002c1a0     libucrt:lcidtoname_downlevel.obj
 0002:000061a8       ??_C@_15GLJCBFMD@?$AAr?$AAo@ 000000018002c1a8     libucrt:lcidtoname_downlevel.obj
 0002:000061b0       ??_C@_15FEDGKCDI@?$AAr?$AAu@ 000000018002c1b0     libucrt:lcidtoname_downlevel.obj
 0002:000061b8       ??_C@_15GLKMLLHM@?$AAh?$AAr@ 000000018002c1b8     libucrt:lcidtoname_downlevel.obj
 0002:000061c0       ??_C@_15CPKMFBDB@?$AAs?$AAk@ 000000018002c1c0     libucrt:lcidtoname_downlevel.obj
 0002:000061c8       ??_C@_15BAAIOGMK@?$AAs?$AAq@ 000000018002c1c8     libucrt:lcidtoname_downlevel.obj
 0002:000061d0       ??_C@_15INNPNOHD@?$AAs?$AAv@ 000000018002c1d0     libucrt:lcidtoname_downlevel.obj
 0002:000061d8       ??_C@_15CABMMOGH@?$AAt?$AAh@ 000000018002c1d8     libucrt:lcidtoname_downlevel.obj
 0002:000061e0       ??_C@_15BPLIHJJM@?$AAt?$AAr@ 000000018002c1e0     libucrt:lcidtoname_downlevel.obj
 0002:000061e8       ??_C@_15NEOEKKDJ@?$AAu?$AAr@ 000000018002c1e8     libucrt:lcidtoname_downlevel.obj
 0002:000061f0       ??_C@_15NFICGAJK@?$AAi?$AAd@ 000000018002c1f0     libucrt:lcidtoname_downlevel.obj
 0002:000061f8       ??_C@_15HPJPHDM@?$AAb?$AAe@ 000000018002c1f8     libucrt:lcidtoname_downlevel.obj
 0002:00006200       ??_C@_15LCHLGJII@?$AAs?$AAl@ 000000018002c200     libucrt:lcidtoname_downlevel.obj
 0002:00006208       ??_C@_15PCFJPHHO@?$AAe?$AAt@ 000000018002c208     libucrt:lcidtoname_downlevel.obj
 0002:00006210       ??_C@_15HPFPGODN@?$AAl?$AAv@ 000000018002c210     libucrt:lcidtoname_downlevel.obj
 0002:00006218       ??_C@_15NFFGKGLG@?$AAl?$AAt@ 000000018002c218     libucrt:lcidtoname_downlevel.obj
 0002:00006220       ??_C@_15BDAKCCHN@?$AAf?$AAa@ 000000018002c220     libucrt:lcidtoname_downlevel.obj
 0002:00006228       ??_C@_15NFGIAIAJ@?$AAv?$AAi@ 000000018002c228     libucrt:lcidtoname_downlevel.obj
 0002:00006230       ??_C@_15LMKNDMHN@?$AAh?$AAy@ 000000018002c230     libucrt:lcidtoname_downlevel.obj
 0002:00006238       ??_C@_15IJBHMCFL@?$AAa?$AAz@ 000000018002c238     libucrt:lcidtoname_downlevel.obj
 0002:00006240       ??_C@_15EKOFJABL@?$AAe?$AAu@ 000000018002c240     libucrt:lcidtoname_downlevel.obj
 0002:00006248       ??_C@_15BGHADCNK@?$AAm?$AAk@ 000000018002c248     libucrt:lcidtoname_downlevel.obj
 0002:00006250       ??_C@_15JDNICKHM@?$AAa?$AAf@ 000000018002c250     libucrt:lcidtoname_downlevel.obj
 0002:00006258       ??_C@_15KPJEDBKD@?$AAk?$AAa@ 000000018002c258     libucrt:lcidtoname_downlevel.obj
 0002:00006260       ??_C@_15PDNFFFEO@?$AAf?$AAo@ 000000018002c260     libucrt:lcidtoname_downlevel.obj
 0002:00006268       ??_C@_15OMLEGLOC@?$AAh?$AAi@ 000000018002c268     libucrt:lcidtoname_downlevel.obj
 0002:00006270       ??_C@_15IDNNENKK@?$AAm?$AAs@ 000000018002c270     libucrt:lcidtoname_downlevel.obj
 0002:00006278       ??_C@_15MACJNBMH@?$AAk?$AAk@ 000000018002c278     libucrt:lcidtoname_downlevel.obj
 0002:00006280       ??_C@_15DKDJEOND@?$AAk?$AAy@ 000000018002c280     libucrt:lcidtoname_downlevel.obj
 0002:00006288       ??_C@_15DFGDLJBG@?$AAs?$AAw@ 000000018002c288     libucrt:lcidtoname_downlevel.obj
 0002:00006290       ??_C@_15BBFAICNG@?$AAu?$AAz@ 000000018002c290     libucrt:lcidtoname_downlevel.obj
 0002:00006298       ??_C@_15DKNDCGEA@?$AAt?$AAt@ 000000018002c298     libucrt:lcidtoname_downlevel.obj
 0002:000062a0       ??_C@_15MGIFMDPL@?$AAp?$AAa@ 000000018002c2a0     libucrt:lcidtoname_downlevel.obj
 0002:000062a8       ??_C@_15HCNDBBA@?$AAg?$AAu@ 000000018002c2a8     libucrt:lcidtoname_downlevel.obj
 0002:000062b0       ??_C@_15FNBEIBON@?$AAt?$AAa@ 000000018002c2b0     libucrt:lcidtoname_downlevel.obj
 0002:000062b8       ??_C@_15NCHGBGLK@?$AAt?$AAe@ 000000018002c2b8     libucrt:lcidtoname_downlevel.obj
 0002:000062c0       ??_C@_15PHPHCBPF@?$AAk?$AAn@ 000000018002c2c0     libucrt:lcidtoname_downlevel.obj
 0002:000062c8       ??_C@_15DLGBCKMP@?$AAm?$AAr@ 000000018002c2c8     libucrt:lcidtoname_downlevel.obj
 0002:000062d0       ??_C@_15EABBLBFF@?$AAs?$AAa@ 000000018002c2d0     libucrt:lcidtoname_downlevel.obj
 0002:000062d8       ??_C@_15CBKOMCOI@?$AAm?$AAn@ 000000018002c2d8     libucrt:lcidtoname_downlevel.obj
 0002:000062e0       ??_C@_15CKDMCJAF@?$AAg?$AAl@ 000000018002c2e0     libucrt:lcidtoname_downlevel.obj
 0002:000062e8       ??_C@_17CNJFBPG@?$AAk?$AAo?$AAk@ 000000018002c2e8     libucrt:lcidtoname_downlevel.obj
 0002:000062f0       ??_C@_17FFBJICPL@?$AAs?$AAy?$AAr@ 000000018002c2f0     libucrt:lcidtoname_downlevel.obj
 0002:000062f8       ??_C@_17KPNDCPAF@?$AAd?$AAi?$AAv@ 000000018002c2f8     libucrt:lcidtoname_downlevel.obj
 0002:00006300       ??_C@_1M@OKAHONE@?$AAa?$AAr?$AA?9?$AAS?$AAA@ 000000018002c300     libucrt:lcidtoname_downlevel.obj
 0002:00006310       ??_C@_1M@FFFIGIGK@?$AAb?$AAg?$AA?9?$AAB?$AAG@ 000000018002c310     libucrt:lcidtoname_downlevel.obj
 0002:00006320       ??_C@_1M@BJNKEDC@?$AAc?$AAa?$AA?9?$AAE?$AAS@ 000000018002c320     libucrt:lcidtoname_downlevel.obj
 0002:00006330       ??_C@_1M@IJJHFJHA@?$AAc?$AAs?$AA?9?$AAC?$AAZ@ 000000018002c330     libucrt:lcidtoname_downlevel.obj
 0002:00006340       ??_C@_1M@CLPEOBGI@?$AAd?$AAa?$AA?9?$AAD?$AAK@ 000000018002c340     libucrt:lcidtoname_downlevel.obj
 0002:00006350       ??_C@_1M@MCMADGCB@?$AAd?$AAe?$AA?9?$AAD?$AAE@ 000000018002c350     libucrt:lcidtoname_downlevel.obj
 0002:00006360       ??_C@_1M@OOCKEMAM@?$AAe?$AAl?$AA?9?$AAG?$AAR@ 000000018002c360     libucrt:lcidtoname_downlevel.obj
 0002:00006370       ??_C@_1M@DDNJFGID@?$AAf?$AAi?$AA?9?$AAF?$AAI@ 000000018002c370     libucrt:lcidtoname_downlevel.obj
 0002:00006380       ??_C@_1M@GLIPPMAC@?$AAf?$AAr?$AA?9?$AAF?$AAR@ 000000018002c380     libucrt:lcidtoname_downlevel.obj
 0002:00006390       ??_C@_1M@GFMCHPE@?$AAh?$AAe?$AA?9?$AAI?$AAL@ 000000018002c390     libucrt:lcidtoname_downlevel.obj
 0002:000063a0       ??_C@_1M@MHLPGNKM@?$AAh?$AAu?$AA?9?$AAH?$AAU@ 000000018002c3a0     libucrt:lcidtoname_downlevel.obj
 0002:000063b0       ??_C@_1M@LPDDNNPN@?$AAi?$AAs?$AA?9?$AAI?$AAS@ 000000018002c3b0     libucrt:lcidtoname_downlevel.obj
 0002:000063c0       ??_C@_1M@MADIPODN@?$AAi?$AAt?$AA?9?$AAI?$AAT@ 000000018002c3c0     libucrt:lcidtoname_downlevel.obj
 0002:000063d0       ??_C@_1M@IHBJJGG@?$AAn?$AAl?$AA?9?$AAN?$AAL@ 000000018002c3d0     libucrt:lcidtoname_downlevel.obj
 0002:000063e0       ??_C@_1M@EANAGDL@?$AAn?$AAb?$AA?9?$AAN?$AAO@ 000000018002c3e0     libucrt:lcidtoname_downlevel.obj
 0002:000063f0       ??_C@_1M@NEIEMEGP@?$AAp?$AAl?$AA?9?$AAP?$AAL@ 000000018002c3f0     libucrt:lcidtoname_downlevel.obj
 0002:00006400       ??_C@_1M@BOCFIGEP@?$AAp?$AAt?$AA?9?$AAB?$AAR@ 000000018002c400     libucrt:lcidtoname_downlevel.obj
 0002:00006410       ??_C@_1M@IMPFOPBG@?$AAr?$AAo?$AA?9?$AAR?$AAO@ 000000018002c410     libucrt:lcidtoname_downlevel.obj
 0002:00006420       ??_C@_1M@IDNNEJMM@?$AAr?$AAu?$AA?9?$AAR?$AAU@ 000000018002c420     libucrt:lcidtoname_downlevel.obj
 0002:00006430       ??_C@_1M@LILEEOGM@?$AAh?$AAr?$AA?9?$AAH?$AAR@ 000000018002c430     libucrt:lcidtoname_downlevel.obj
 0002:00006440       ??_C@_1M@FKIFEHPB@?$AAs?$AAk?$AA?9?$AAS?$AAK@ 000000018002c440     libucrt:lcidtoname_downlevel.obj
 0002:00006450       ??_C@_1M@LJMAMNPJ@?$AAs?$AAq?$AA?9?$AAA?$AAL@ 000000018002c450     libucrt:lcidtoname_downlevel.obj
 0002:00006460       ??_C@_1M@GIAKDKJK@?$AAs?$AAv?$AA?9?$AAS?$AAE@ 000000018002c460     libucrt:lcidtoname_downlevel.obj
 0002:00006470       ??_C@_1M@MKJKIKCL@?$AAt?$AAh?$AA?9?$AAT?$AAH@ 000000018002c470     libucrt:lcidtoname_downlevel.obj
 0002:00006480       ??_C@_1M@MFLCCMPB@?$AAt?$AAr?$AA?9?$AAT?$AAR@ 000000018002c480     libucrt:lcidtoname_downlevel.obj
 0002:00006490       ??_C@_1M@OIJHDKJN@?$AAu?$AAr?$AA?9?$AAP?$AAK@ 000000018002c490     libucrt:lcidtoname_downlevel.obj
 0002:000064a0       ??_C@_1M@LHIPCIEK@?$AAi?$AAd?$AA?9?$AAI?$AAD@ 000000018002c4a0     libucrt:lcidtoname_downlevel.obj
 0002:000064b0       ??_C@_1M@MFMOBGI@?$AAu?$AAk?$AA?9?$AAU?$AAA@ 000000018002c4b0     libucrt:lcidtoname_downlevel.obj
 0002:000064c0       ??_C@_1M@OBGLJIPL@?$AAb?$AAe?$AA?9?$AAB?$AAY@ 000000018002c4c0     libucrt:lcidtoname_downlevel.obj
 0002:000064d0       ??_C@_1M@BCFAJEAD@?$AAs?$AAl?$AA?9?$AAS?$AAI@ 000000018002c4d0     libucrt:lcidtoname_downlevel.obj
 0002:000064e0       ??_C@_1M@FKFFEDDN@?$AAe?$AAt?$AA?9?$AAE?$AAE@ 000000018002c4e0     libucrt:lcidtoname_downlevel.obj
 0002:000064f0       ??_C@_1M@KGKKAACI@?$AAl?$AAv?$AA?9?$AAL?$AAV@ 000000018002c4f0     libucrt:lcidtoname_downlevel.obj
 0002:00006500       ??_C@_1M@IFGBIJO@?$AAl?$AAt?$AA?9?$AAL?$AAT@ 000000018002c500     libucrt:lcidtoname_downlevel.obj
 0002:00006510       ??_C@_1M@FGEAHEDM@?$AAf?$AAa?$AA?9?$AAI?$AAR@ 000000018002c510     libucrt:lcidtoname_downlevel.obj
 0002:00006520       ??_C@_1M@KBMAIBFN@?$AAv?$AAi?$AA?9?$AAV?$AAN@ 000000018002c520     libucrt:lcidtoname_downlevel.obj
 0002:00006530       ??_C@_1M@GPCBKDJK@?$AAh?$AAy?$AA?9?$AAA?$AAM@ 000000018002c530     libucrt:lcidtoname_downlevel.obj
 0002:00006540       ??_C@_1BG@BECMDDJB@?$AAa?$AAz?$AA?9?$AAA?$AAZ?$AA?9?$AAL?$AAa?$AAt?$AAn@ 000000018002c540     libucrt:lcidtoname_downlevel.obj
 0002:00006558       ??_C@_1M@MAOFCAEA@?$AAe?$AAu?$AA?9?$AAE?$AAS@ 000000018002c558     libucrt:lcidtoname_downlevel.obj
 0002:00006568       ??_C@_1M@IGHABKPI@?$AAm?$AAk?$AA?9?$AAM?$AAK@ 000000018002c568     libucrt:lcidtoname_downlevel.obj
 0002:00006578       ??_C@_1M@IAIGNEJG@?$AAt?$AAn?$AA?9?$AAZ?$AAA@ 000000018002c578     libucrt:lcidtoname_downlevel.obj
 0002:00006588       ??_C@_1M@IIJCOJFA@?$AAx?$AAh?$AA?9?$AAZ?$AAA@ 000000018002c588     libucrt:lcidtoname_downlevel.obj
 0002:00006598       ??_C@_1M@LGPJHNJH@?$AAz?$AAu?$AA?9?$AAZ?$AAA@ 000000018002c598     libucrt:lcidtoname_downlevel.obj
 0002:000065a8       ??_C@_1M@HOKAOIO@?$AAa?$AAf?$AA?9?$AAZ?$AAA@ 000000018002c5a8     libucrt:lcidtoname_downlevel.obj
 0002:000065b8       ??_C@_1M@DPCLHLIE@?$AAk?$AAa?$AA?9?$AAG?$AAE@ 000000018002c5b8     libucrt:lcidtoname_downlevel.obj
 0002:000065c8       ??_C@_1M@BLKMHJBI@?$AAf?$AAo?$AA?9?$AAF?$AAO@ 000000018002c5c8     libucrt:lcidtoname_downlevel.obj
 0002:000065d8       ??_C@_1M@LGGJAPPB@?$AAh?$AAi?$AA?9?$AAI?$AAN@ 000000018002c5d8     libucrt:lcidtoname_downlevel.obj
 0002:000065e8       ??_C@_1M@FIKPIHFE@?$AAm?$AAt?$AA?9?$AAM?$AAT@ 000000018002c5e8     libucrt:lcidtoname_downlevel.obj
 0002:000065f8       ??_C@_1M@HEGGPBFA@?$AAs?$AAe?$AA?9?$AAN?$AAO@ 000000018002c5f8     libucrt:lcidtoname_downlevel.obj
 0002:00006608       ??_C@_1M@EIBJEEPA@?$AAm?$AAs?$AA?9?$AAM?$AAY@ 000000018002c608     libucrt:lcidtoname_downlevel.obj
 0002:00006618       ??_C@_1M@FHLBGMPP@?$AAk?$AAk?$AA?9?$AAK?$AAZ@ 000000018002c618     libucrt:lcidtoname_downlevel.obj
 0002:00006628       ??_C@_1M@NGJJLCGI@?$AAk?$AAy?$AA?9?$AAK?$AAG@ 000000018002c628     libucrt:lcidtoname_downlevel.obj
 0002:00006638       ??_C@_1M@GIENNBFC@?$AAs?$AAw?$AA?9?$AAK?$AAE@ 000000018002c638     libucrt:lcidtoname_downlevel.obj
 0002:00006648       ??_C@_1BG@NDGMJIMJ@?$AAu?$AAz?$AA?9?$AAU?$AAZ?$AA?9?$AAL?$AAa?$AAt?$AAn@ 000000018002c648     libucrt:lcidtoname_downlevel.obj
 0002:00006660       ??_C@_1M@IDCCIHBC@?$AAt?$AAt?$AA?9?$AAR?$AAU@ 000000018002c660     libucrt:lcidtoname_downlevel.obj
 0002:00006670       ??_C@_1M@LOICPMOJ@?$AAb?$AAn?$AA?9?$AAI?$AAN@ 000000018002c670     libucrt:lcidtoname_downlevel.obj
 0002:00006680       ??_C@_1M@KPKKNEAH@?$AAp?$AAa?$AA?9?$AAI?$AAN@ 000000018002c680     libucrt:lcidtoname_downlevel.obj
 0002:00006690       ??_C@_1M@PJGPPBOG@?$AAg?$AAu?$AA?9?$AAI?$AAN@ 000000018002c690     libucrt:lcidtoname_downlevel.obj
 0002:000066a0       ??_C@_1M@KMKMOPHI@?$AAt?$AAa?$AA?9?$AAI?$AAN@ 000000018002c6a0     libucrt:lcidtoname_downlevel.obj
 0002:000066b0       ??_C@_1M@KFEHEPAC@?$AAt?$AAe?$AA?9?$AAI?$AAN@ 000000018002c6b0     libucrt:lcidtoname_downlevel.obj
 0002:000066c0       ??_C@_1M@CDCLMGHI@?$AAk?$AAn?$AA?9?$AAI?$AAN@ 000000018002c6c0     libucrt:lcidtoname_downlevel.obj
 0002:000066d0       ??_C@_1M@MIODLDKF@?$AAm?$AAl?$AA?9?$AAI?$AAN@ 000000018002c6d0     libucrt:lcidtoname_downlevel.obj
 0002:000066e0       ??_C@_1M@PBIEACPO@?$AAm?$AAr?$AA?9?$AAI?$AAN@ 000000018002c6e0     libucrt:lcidtoname_downlevel.obj
 0002:000066f0       ??_C@_1M@NIDEAGPH@?$AAs?$AAa?$AA?9?$AAI?$AAN@ 000000018002c6f0     libucrt:lcidtoname_downlevel.obj
 0002:00006700       ??_C@_1M@FHIHCBIO@?$AAm?$AAn?$AA?9?$AAM?$AAN@ 000000018002c700     libucrt:lcidtoname_downlevel.obj
 0002:00006710       ??_C@_1M@JAIJPENP@?$AAc?$AAy?$AA?9?$AAG?$AAB@ 000000018002c710     libucrt:lcidtoname_downlevel.obj
 0002:00006720       ??_C@_1M@PHGFBEPN@?$AAg?$AAl?$AA?9?$AAE?$AAS@ 000000018002c720     libucrt:lcidtoname_downlevel.obj
 0002:00006730       ??_C@_1O@KPIPDNCP@?$AAk?$AAo?$AAk?$AA?9?$AAI?$AAN@ 000000018002c730     libucrt:lcidtoname_downlevel.obj
 0002:00006740       ??_C@_1O@KNHJLDJA@?$AAs?$AAy?$AAr?$AA?9?$AAS?$AAY@ 000000018002c740     libucrt:lcidtoname_downlevel.obj
 0002:00006750       ??_C@_1O@MKEKBLAH@?$AAd?$AAi?$AAv?$AA?9?$AAM?$AAV@ 000000018002c750     libucrt:lcidtoname_downlevel.obj
 0002:00006760       ??_C@_1O@OHDCKDDF@?$AAq?$AAu?$AAz?$AA?9?$AAB?$AAO@ 000000018002c760     libucrt:lcidtoname_downlevel.obj
 0002:00006770       ??_C@_1M@LEPJNLFD@?$AAn?$AAs?$AA?9?$AAZ?$AAA@ 000000018002c770     libucrt:lcidtoname_downlevel.obj
 0002:00006780       ??_C@_1M@OMLEIIJB@?$AAm?$AAi?$AA?9?$AAN?$AAZ@ 000000018002c780     libucrt:lcidtoname_downlevel.obj
 0002:00006790       ??_C@_1M@PMPEAILG@?$AAa?$AAr?$AA?9?$AAI?$AAQ@ 000000018002c790     libucrt:lcidtoname_downlevel.obj
 0002:000067a0       ??_C@_1M@CNKPNOEE@?$AAd?$AAe?$AA?9?$AAC?$AAH@ 000000018002c7a0     libucrt:lcidtoname_downlevel.obj
 0002:000067b0       ??_C@_1M@LKMGMLKO@?$AAe?$AAn?$AA?9?$AAG?$AAB@ 000000018002c7b0     libucrt:lcidtoname_downlevel.obj
 0002:000067c0       ??_C@_1M@PGKJFFGL@?$AAe?$AAs?$AA?9?$AAM?$AAX@ 000000018002c7c0     libucrt:lcidtoname_downlevel.obj
 0002:000067d0       ??_C@_1M@DNNANBDC@?$AAf?$AAr?$AA?9?$AAB?$AAE@ 000000018002c7d0     libucrt:lcidtoname_downlevel.obj
 0002:000067e0       ??_C@_1M@HLGMDFHM@?$AAi?$AAt?$AA?9?$AAC?$AAH@ 000000018002c7e0     libucrt:lcidtoname_downlevel.obj
 0002:000067f0       ??_C@_1M@CLLBGJH@?$AAn?$AAl?$AA?9?$AAB?$AAE@ 000000018002c7f0     libucrt:lcidtoname_downlevel.obj
 0002:00006800       ??_C@_1M@BODBOGLF@?$AAn?$AAn?$AA?9?$AAN?$AAO@ 000000018002c800     libucrt:lcidtoname_downlevel.obj
 0002:00006810       ??_C@_1M@HFFAHKAD@?$AAp?$AAt?$AA?9?$AAP?$AAT@ 000000018002c810     libucrt:lcidtoname_downlevel.obj
 0002:00006820       ??_C@_1BG@LNOAKHIE@?$AAs?$AAr?$AA?9?$AAS?$AAP?$AA?9?$AAL?$AAa?$AAt?$AAn@ 000000018002c820     libucrt:lcidtoname_downlevel.obj
 0002:00006838       ??_C@_1M@HBMHBGAK@?$AAs?$AAv?$AA?9?$AAF?$AAI@ 000000018002c838     libucrt:lcidtoname_downlevel.obj
 0002:00006848       ??_C@_1BG@DGCJGJBE@?$AAa?$AAz?$AA?9?$AAA?$AAZ?$AA?9?$AAC?$AAy?$AAr?$AAl@ 000000018002c848     libucrt:lcidtoname_downlevel.obj
 0002:00006860       ??_C@_1M@KEJDAAHB@?$AAs?$AAe?$AA?9?$AAS?$AAE@ 000000018002c860     libucrt:lcidtoname_downlevel.obj
 0002:00006870       ??_C@_1M@HEIBJJAD@?$AAm?$AAs?$AA?9?$AAB?$AAN@ 000000018002c870     libucrt:lcidtoname_downlevel.obj
 0002:00006880       ??_C@_1BG@PBGJMCEM@?$AAu?$AAz?$AA?9?$AAU?$AAZ?$AA?9?$AAC?$AAy?$AAr?$AAl@ 000000018002c880     libucrt:lcidtoname_downlevel.obj
 0002:00006898       ??_C@_1O@LAOBCMDF@?$AAq?$AAu?$AAz?$AA?9?$AAE?$AAC@ 000000018002c898     libucrt:lcidtoname_downlevel.obj
 0002:000068a8       ??_C@_1M@POEEMAIO@?$AAa?$AAr?$AA?9?$AAE?$AAG@ 000000018002c8a8     libucrt:lcidtoname_downlevel.obj
 0002:000068b8       ??_C@_1M@EFAKDEDL@?$AAz?$AAh?$AA?9?$AAH?$AAK@ 000000018002c8b8     libucrt:lcidtoname_downlevel.obj
 0002:000068c8       ??_C@_1M@HKKIJHGI@?$AAd?$AAe?$AA?9?$AAA?$AAT@ 000000018002c8c8     libucrt:lcidtoname_downlevel.obj
 0002:000068d8       ??_C@_1M@KBFBEHJF@?$AAe?$AAn?$AA?9?$AAA?$AAU@ 000000018002c8d8     libucrt:lcidtoname_downlevel.obj
 0002:000068e8       ??_C@_1M@MNPLFAAH@?$AAe?$AAs?$AA?9?$AAE?$AAS@ 000000018002c8e8     libucrt:lcidtoname_downlevel.obj
 0002:000068f8       ??_C@_1M@HJOOJFMA@?$AAf?$AAr?$AA?9?$AAC?$AAA@ 000000018002c8f8     libucrt:lcidtoname_downlevel.obj
 0002:00006908       ??_C@_1BG@JPOFPNAB@?$AAs?$AAr?$AA?9?$AAS?$AAP?$AA?9?$AAC?$AAy?$AAr?$AAl@ 000000018002c908     libucrt:lcidtoname_downlevel.obj
 0002:00006920       ??_C@_1M@LNFOCMOB@?$AAs?$AAe?$AA?9?$AAF?$AAI@ 000000018002c920     libucrt:lcidtoname_downlevel.obj
 0002:00006930       ??_C@_1O@MGJBOAMB@?$AAq?$AAu?$AAz?$AA?9?$AAP?$AAE@ 000000018002c930     libucrt:lcidtoname_downlevel.obj
 0002:00006940       ??_C@_1M@GJINLBOK@?$AAa?$AAr?$AA?9?$AAL?$AAY@ 000000018002c940     libucrt:lcidtoname_downlevel.obj
 0002:00006950       ??_C@_1M@GGMNHJNL@?$AAz?$AAh?$AA?9?$AAS?$AAG@ 000000018002c950     libucrt:lcidtoname_downlevel.obj
 0002:00006960       ??_C@_1M@HOIKODND@?$AAd?$AAe?$AA?9?$AAL?$AAU@ 000000018002c960     libucrt:lcidtoname_downlevel.obj
 0002:00006970       ??_C@_1M@DDOCCGFG@?$AAe?$AAn?$AA?9?$AAC?$AAA@ 000000018002c970     libucrt:lcidtoname_downlevel.obj
 0002:00006980       ??_C@_1M@BNOEMJLF@?$AAe?$AAs?$AA?9?$AAG?$AAT@ 000000018002c980     libucrt:lcidtoname_downlevel.obj
 0002:00006990       ??_C@_1M@EOGNKEK@?$AAf?$AAr?$AA?9?$AAC?$AAH@ 000000018002c990     libucrt:lcidtoname_downlevel.obj
 0002:000069a0       ??_C@_1M@FLIDJFHL@?$AAh?$AAr?$AA?9?$AAB?$AAA@ 000000018002c9a0     libucrt:lcidtoname_downlevel.obj
 0002:000069b0       ??_C@_1O@FMCELNAJ@?$AAs?$AAm?$AAj?$AA?9?$AAN?$AAO@ 000000018002c9b0     libucrt:lcidtoname_downlevel.obj
 0002:000069c0       ??_C@_1M@JHGLJMGJ@?$AAa?$AAr?$AA?9?$AAD?$AAZ@ 000000018002c9c0     libucrt:lcidtoname_downlevel.obj
 0002:000069d0       ??_C@_1M@JKKFDCNP@?$AAz?$AAh?$AA?9?$AAM?$AAO@ 000000018002c9d0     libucrt:lcidtoname_downlevel.obj
 0002:000069e0       ??_C@_1M@GEEFALPE@?$AAd?$AAe?$AA?9?$AAL?$AAI@ 000000018002c9e0     libucrt:lcidtoname_downlevel.obj
 0002:000069f0       ??_C@_1M@IGEOFBG@?$AAe?$AAn?$AA?9?$AAN?$AAZ@ 000000018002c9f0     libucrt:lcidtoname_downlevel.obj
 0002:00006a00       ??_C@_1M@KDBONEHP@?$AAe?$AAs?$AA?9?$AAC?$AAR@ 000000018002ca00     libucrt:lcidtoname_downlevel.obj
 0002:00006a10       ??_C@_1M@FHMDOHNN@?$AAf?$AAr?$AA?9?$AAL?$AAU@ 000000018002ca10     libucrt:lcidtoname_downlevel.obj
 0002:00006a20       ??_C@_1BG@NFKKMAFG@?$AAb?$AAs?$AA?9?$AAB?$AAA?$AA?9?$AAL?$AAa?$AAt?$AAn@ 000000018002ca20     libucrt:lcidtoname_downlevel.obj
 0002:00006a38       ??_C@_1O@IMNBEMCI@?$AAs?$AAm?$AAj?$AA?9?$AAS?$AAE@ 000000018002ca38     libucrt:lcidtoname_downlevel.obj
 0002:00006a48       ??_C@_1M@DHHMBNDP@?$AAa?$AAr?$AA?9?$AAM?$AAA@ 000000018002ca48     libucrt:lcidtoname_downlevel.obj
 0002:00006a58       ??_C@_1M@BNBLJCGH@?$AAe?$AAn?$AA?9?$AAI?$AAE@ 000000018002ca58     libucrt:lcidtoname_downlevel.obj
 0002:00006a68       ??_C@_1M@GEPAFMDL@?$AAe?$AAs?$AA?9?$AAP?$AAA@ 000000018002ca68     libucrt:lcidtoname_downlevel.obj
 0002:00006a78       ??_C@_1M@OJONDMDL@?$AAf?$AAr?$AA?9?$AAM?$AAC@ 000000018002ca78     libucrt:lcidtoname_downlevel.obj
 0002:00006a88       ??_C@_1BG@OBCNFJB@?$AAs?$AAr?$AA?9?$AAB?$AAA?$AA?9?$AAL?$AAa?$AAt?$AAn@ 000000018002ca88     libucrt:lcidtoname_downlevel.obj
 0002:00006aa0       ??_C@_1O@KEMEEGPO@?$AAs?$AAm?$AAa?$AA?9?$AAN?$AAO@ 000000018002caa0     libucrt:lcidtoname_downlevel.obj
 0002:00006ab0       ??_C@_1M@ELMGFODK@?$AAa?$AAr?$AA?9?$AAT?$AAN@ 000000018002cab0     libucrt:lcidtoname_downlevel.obj
 0002:00006ac0       ??_C@_1M@BHDLHFAF@?$AAe?$AAn?$AA?9?$AAZ?$AAA@ 000000018002cac0     libucrt:lcidtoname_downlevel.obj
 0002:00006ad0       ??_C@_1M@BMGIGLIF@?$AAe?$AAs?$AA?9?$AAD?$AAO@ 000000018002cad0     libucrt:lcidtoname_downlevel.obj
 0002:00006ae0       ??_C@_1BG@CMBHIPBE@?$AAs?$AAr?$AA?9?$AAB?$AAA?$AA?9?$AAC?$AAy?$AAr?$AAl@ 000000018002cae0     libucrt:lcidtoname_downlevel.obj
 0002:00006af8       ??_C@_1O@HEDBLHNP@?$AAs?$AAm?$AAa?$AA?9?$AAS?$AAE@ 000000018002caf8     libucrt:lcidtoname_downlevel.obj
 0002:00006b08       ??_C@_1M@DAGCADIM@?$AAa?$AAr?$AA?9?$AAO?$AAM@ 000000018002cb08     libucrt:lcidtoname_downlevel.obj
 0002:00006b18       ??_C@_1M@FODLMICG@?$AAe?$AAn?$AA?9?$AAJ?$AAM@ 000000018002cb18     libucrt:lcidtoname_downlevel.obj
 0002:00006b28       ??_C@_1M@DNMLCIHB@?$AAe?$AAs?$AA?9?$AAV?$AAE@ 000000018002cb28     libucrt:lcidtoname_downlevel.obj
 0002:00006b38       ??_C@_1O@EOKHMKJK@?$AAs?$AAm?$AAs?$AA?9?$AAF?$AAI@ 000000018002cb38     libucrt:lcidtoname_downlevel.obj
 0002:00006b48       ??_C@_1M@CAFJMKOF@?$AAa?$AAr?$AA?9?$AAY?$AAE@ 000000018002cb48     libucrt:lcidtoname_downlevel.obj
 0002:00006b58       ??_C@_1M@CBFHIJLI@?$AAe?$AAn?$AA?9?$AAC?$AAB@ 000000018002cb58     libucrt:lcidtoname_downlevel.obj
 0002:00006b68       ??_C@_1M@BGNFLDN@?$AAe?$AAs?$AA?9?$AAC?$AAO@ 000000018002cb68     libucrt:lcidtoname_downlevel.obj
 0002:00006b78       ??_C@_1O@JMPHMAMC@?$AAs?$AAm?$AAn?$AA?9?$AAF?$AAI@ 000000018002cb78     libucrt:lcidtoname_downlevel.obj
 0002:00006b88       ??_C@_1M@JLANABKE@?$AAa?$AAr?$AA?9?$AAS?$AAY@ 000000018002cb88     libucrt:lcidtoname_downlevel.obj
 0002:00006b98       ??_C@_1M@HPKGCFGN@?$AAe?$AAn?$AA?9?$AAB?$AAZ@ 000000018002cb98     libucrt:lcidtoname_downlevel.obj
 0002:00006ba8       ??_C@_1M@OLJCMLGM@?$AAe?$AAs?$AA?9?$AAP?$AAE@ 000000018002cba8     libucrt:lcidtoname_downlevel.obj
 0002:00006bb8       ??_C@_1M@MKKGFKLE@?$AAa?$AAr?$AA?9?$AAJ?$AAO@ 000000018002cbb8     libucrt:lcidtoname_downlevel.obj
 0002:00006bc8       ??_C@_1M@EKPGLDNI@?$AAe?$AAn?$AA?9?$AAT?$AAT@ 000000018002cbc8     libucrt:lcidtoname_downlevel.obj
 0002:00006bd8       ??_C@_1M@OONGHFHE@?$AAe?$AAs?$AA?9?$AAA?$AAR@ 000000018002cbd8     libucrt:lcidtoname_downlevel.obj
 0002:00006be8       ??_C@_1M@OOJFGBHE@?$AAa?$AAr?$AA?9?$AAL?$AAB@ 000000018002cbe8     libucrt:lcidtoname_downlevel.obj
 0002:00006bf8       ??_C@_1M@GCEJHNEG@?$AAe?$AAn?$AA?9?$AAZ?$AAW@ 000000018002cbf8     libucrt:lcidtoname_downlevel.obj
 0002:00006c08       ??_C@_1M@JNOCAHJI@?$AAe?$AAs?$AA?9?$AAE?$AAC@ 000000018002cc08     libucrt:lcidtoname_downlevel.obj
 0002:00006c18       ??_C@_1M@JEFHPGGB@?$AAa?$AAr?$AA?9?$AAK?$AAW@ 000000018002cc18     libucrt:lcidtoname_downlevel.obj
 0002:00006c28       ??_C@_1M@MLKIBJOJ@?$AAe?$AAn?$AA?9?$AAP?$AAH@ 000000018002cc28     libucrt:lcidtoname_downlevel.obj
 0002:00006c38       ??_C@_1M@BDNIPEND@?$AAe?$AAs?$AA?9?$AAC?$AAL@ 000000018002cc38     libucrt:lcidtoname_downlevel.obj
 0002:00006c48       ??_C@_1M@MPNMEKBD@?$AAa?$AAr?$AA?9?$AAA?$AAE@ 000000018002cc48     libucrt:lcidtoname_downlevel.obj
 0002:00006c58       ??_C@_1M@KBJALCPI@?$AAe?$AAs?$AA?9?$AAU?$AAY@ 000000018002cc58     libucrt:lcidtoname_downlevel.obj
 0002:00006c68       ??_C@_1M@LLCCOAGA@?$AAa?$AAr?$AA?9?$AAB?$AAH@ 000000018002cc68     libucrt:lcidtoname_downlevel.obj
 0002:00006c78       ??_C@_1M@PBFNCDEL@?$AAe?$AAs?$AA?9?$AAP?$AAY@ 000000018002cc78     libucrt:lcidtoname_downlevel.obj
 0002:00006c88       ??_C@_1M@EDGINPNP@?$AAa?$AAr?$AA?9?$AAQ?$AAA@ 000000018002cc88     libucrt:lcidtoname_downlevel.obj
 0002:00006c98       ??_C@_1M@MKDBIIJI@?$AAe?$AAs?$AA?9?$AAB?$AAO@ 000000018002cc98     libucrt:lcidtoname_downlevel.obj
 0002:00006ca8       ??_C@_1M@CPKKEBLD@?$AAe?$AAs?$AA?9?$AAS?$AAV@ 000000018002cca8     libucrt:lcidtoname_downlevel.obj
 0002:00006cb8       ??_C@_1M@NDBGMMJL@?$AAe?$AAs?$AA?9?$AAH?$AAN@ 000000018002ccb8     libucrt:lcidtoname_downlevel.obj
 0002:00006cc8       ??_C@_1M@JIJIBHDP@?$AAe?$AAs?$AA?9?$AAN?$AAI@ 000000018002ccc8     libucrt:lcidtoname_downlevel.obj
 0002:00006cd8       ??_C@_1M@CGFMKEEK@?$AAe?$AAs?$AA?9?$AAP?$AAR@ 000000018002ccd8     libucrt:lcidtoname_downlevel.obj
 0002:00006ce8       ??_C@_1O@ICJHKIIK@?$AAz?$AAh?$AA?9?$AAC?$AAH?$AAT@ 000000018002cce8     libucrt:lcidtoname_downlevel.obj
 0002:00006cf8       ??_C@_15CLNEJCE@?$AAs?$AAr@ 000000018002ccf8     libucrt:lcidtoname_downlevel.obj
 0002:00007b40       ??_C@_1M@KAHEKEIG@?$AAa?$AAf?$AA?9?$AAz?$AAa@ 000000018002db40     libucrt:lcidtoname_downlevel.obj
 0002:00007b50       ??_C@_1M@GIECOABL@?$AAa?$AAr?$AA?9?$AAa?$AAe@ 000000018002db50     libucrt:lcidtoname_downlevel.obj
 0002:00007b60       ??_C@_1M@BMLMEKGI@?$AAa?$AAr?$AA?9?$AAb?$AAh@ 000000018002db60     libucrt:lcidtoname_downlevel.obj
 0002:00007b70       ??_C@_1M@DAPFDGGB@?$AAa?$AAr?$AA?9?$AAd?$AAz@ 000000018002db70     libucrt:lcidtoname_downlevel.obj
 0002:00007b80       ??_C@_1M@FJNKGKIG@?$AAa?$AAr?$AA?9?$AAe?$AAg@ 000000018002db80     libucrt:lcidtoname_downlevel.obj
 0002:00007b90       ??_C@_1M@FLGKKCLO@?$AAa?$AAr?$AA?9?$AAi?$AAq@ 000000018002db90     libucrt:lcidtoname_downlevel.obj
 0002:00007ba0       ??_C@_1M@GNDIPALM@?$AAa?$AAr?$AA?9?$AAj?$AAo@ 000000018002dba0     libucrt:lcidtoname_downlevel.obj
 0002:00007bb0       ??_C@_1M@DDMJFMGJ@?$AAa?$AAr?$AA?9?$AAk?$AAw@ 000000018002dbb0     libucrt:lcidtoname_downlevel.obj
 0002:00007bc0       ??_C@_1M@EJALMLHM@?$AAa?$AAr?$AA?9?$AAl?$AAb@ 000000018002dbc0     libucrt:lcidtoname_downlevel.obj
 0002:00007bd0       ??_C@_1M@MOBDBLOC@?$AAa?$AAr?$AA?9?$AAl?$AAy@ 000000018002dbd0     libucrt:lcidtoname_downlevel.obj
 0002:00007be0       ??_C@_1M@JAOCLHDH@?$AAa?$AAr?$AA?9?$AAm?$AAa@ 000000018002dbe0     libucrt:lcidtoname_downlevel.obj
 0002:00007bf0       ??_C@_1M@JHPMKJIE@?$AAa?$AAr?$AA?9?$AAo?$AAm@ 000000018002dbf0     libucrt:lcidtoname_downlevel.obj
 0002:00007c00       ??_C@_1M@OEPGHFNH@?$AAa?$AAr?$AA?9?$AAq?$AAa@ 000000018002dc00     libucrt:lcidtoname_downlevel.obj
 0002:00007c10       ??_C@_1M@KJDONENM@?$AAa?$AAr?$AA?9?$AAs?$AAa@ 000000018002dc10     libucrt:lcidtoname_downlevel.obj
 0002:00007c20       ??_C@_1M@DMJDKLKM@?$AAa?$AAr?$AA?9?$AAs?$AAy@ 000000018002dc20     libucrt:lcidtoname_downlevel.obj
 0002:00007c30       ??_C@_1M@OMFIPEDC@?$AAa?$AAr?$AA?9?$AAt?$AAn@ 000000018002dc30     libucrt:lcidtoname_downlevel.obj
 0002:00007c40       ??_C@_1M@IHMHGAON@?$AAa?$AAr?$AA?9?$AAy?$AAe@ 000000018002dc40     libucrt:lcidtoname_downlevel.obj
 0002:00007c50       ??_C@_1BG@KDCPGJGB@?$AAa?$AAz?$AA?9?$AAa?$AAz?$AA?9?$AAc?$AAy?$AAr?$AAl@ 000000018002dc50     libucrt:lcidtoname_downlevel.obj
 0002:00007c68       ??_C@_1BG@IBCKDDOE@?$AAa?$AAz?$AA?9?$AAa?$AAz?$AA?9?$AAl?$AAa?$AAt?$AAn@ 000000018002dc68     libucrt:lcidtoname_downlevel.obj
 0002:00007c80       ??_C@_1M@EGPFDCPD@?$AAb?$AAe?$AA?9?$AAb?$AAy@ 000000018002dc80     libucrt:lcidtoname_downlevel.obj
 0002:00007c90       ??_C@_1M@PCMGMCGC@?$AAb?$AAg?$AA?9?$AAb?$AAg@ 000000018002dc90     libucrt:lcidtoname_downlevel.obj
 0002:00007ca0       ??_C@_1M@BJBMFGOB@?$AAb?$AAn?$AA?9?$AAi?$AAn@ 000000018002dca0     libucrt:lcidtoname_downlevel.obj
 0002:00007cb0       ??_C@_1BG@EAKMMACD@?$AAb?$AAs?$AA?9?$AAb?$AAa?$AA?9?$AAl?$AAa?$AAt?$AAn@ 000000018002dcb0     libucrt:lcidtoname_downlevel.obj
 0002:00007cc8       ??_C@_1M@KGADAODK@?$AAc?$AAa?$AA?9?$AAe?$AAs@ 000000018002dcc8     libucrt:lcidtoname_downlevel.obj
 0002:00007cd8       ??_C@_1M@COAJPDHI@?$AAc?$AAs?$AA?9?$AAc?$AAz@ 000000018002dcd8     libucrt:lcidtoname_downlevel.obj
 0002:00007ce8       ??_C@_1M@DHBHFONH@?$AAc?$AAy?$AA?9?$AAg?$AAb@ 000000018002dce8     libucrt:lcidtoname_downlevel.obj
 0002:00007cf8       ??_C@_1M@IMGKELGA@?$AAd?$AAa?$AA?9?$AAd?$AAk@ 000000018002dcf8     libucrt:lcidtoname_downlevel.obj
 0002:00007d08       ??_C@_1M@NNDGDNGA@?$AAd?$AAe?$AA?9?$AAa?$AAt@ 000000018002dd08     libucrt:lcidtoname_downlevel.obj
 0002:00007d18       ??_C@_1M@IKDBHEEM@?$AAd?$AAe?$AA?9?$AAc?$AAh@ 000000018002dd18     libucrt:lcidtoname_downlevel.obj
 0002:00007d28       ??_C@_1M@GFFOJMCJ@?$AAd?$AAe?$AA?9?$AAd?$AAe@ 000000018002dd28     libucrt:lcidtoname_downlevel.obj
 0002:00007d38       ??_C@_1M@MDNLKBPM@?$AAd?$AAe?$AA?9?$AAl?$AAi@ 000000018002dd38     libucrt:lcidtoname_downlevel.obj
 0002:00007d48       ??_C@_1M@NJBEEJNL@?$AAd?$AAe?$AA?9?$AAl?$AAu@ 000000018002dd48     libucrt:lcidtoname_downlevel.obj
 0002:00007d58       ??_C@_1O@GNNELBAP@?$AAd?$AAi?$AAv?$AA?9?$AAm?$AAv@ 000000018002dd58     libucrt:lcidtoname_downlevel.obj
 0002:00007d68       ??_C@_1M@EJLEOGAE@?$AAe?$AAl?$AA?9?$AAg?$AAr@ 000000018002dd68     libucrt:lcidtoname_downlevel.obj
 0002:00007d78       ??_C@_1M@GMPONJN@?$AAe?$AAn?$AA?9?$AAa?$AAu@ 000000018002dd78     libucrt:lcidtoname_downlevel.obj
 0002:00007d88       ??_C@_1M@NIDIIPGF@?$AAe?$AAn?$AA?9?$AAb?$AAz@ 000000018002dd88     libucrt:lcidtoname_downlevel.obj
 0002:00007d98       ??_C@_1M@JEHMIMFO@?$AAe?$AAn?$AA?9?$AAc?$AAa@ 000000018002dd98     libucrt:lcidtoname_downlevel.obj
 0002:00007da8       ??_C@_1M@IGMJCDLA@?$AAe?$AAn?$AA?9?$AAc?$AAb@ 000000018002dda8     libucrt:lcidtoname_downlevel.obj
 0002:00007db8       ??_C@_1M@BNFIGBKG@?$AAe?$AAn?$AA?9?$AAg?$AAb@ 000000018002ddb8     libucrt:lcidtoname_downlevel.obj
 0002:00007dc8       ??_C@_1M@LKIFDIGP@?$AAe?$AAn?$AA?9?$AAi?$AAe@ 000000018002ddc8     libucrt:lcidtoname_downlevel.obj
 0002:00007dd8       ??_C@_1M@PJKFGCCO@?$AAe?$AAn?$AA?9?$AAj?$AAm@ 000000018002ddd8     libucrt:lcidtoname_downlevel.obj
 0002:00007de8       ??_C@_1M@KPPKEPBO@?$AAe?$AAn?$AA?9?$AAn?$AAz@ 000000018002dde8     libucrt:lcidtoname_downlevel.obj
 0002:00007df8       ??_C@_1M@GMDGLDOB@?$AAe?$AAn?$AA?9?$AAp?$AAh@ 000000018002ddf8     libucrt:lcidtoname_downlevel.obj
 0002:00007e08       ??_C@_1M@ONGIBJNA@?$AAe?$AAn?$AA?9?$AAt?$AAt@ 000000018002de08     libucrt:lcidtoname_downlevel.obj
 0002:00007e18       ??_C@_1M@LLODPCMM@?$AAe?$AAn?$AA?9?$AAu?$AAs@ 000000018002de18     libucrt:lcidtoname_downlevel.obj
 0002:00007e28       ??_C@_1M@LAKFNPAN@?$AAe?$AAn?$AA?9?$AAz?$AAa@ 000000018002de28     libucrt:lcidtoname_downlevel.obj
 0002:00007e38       ??_C@_1M@MFNHNHEO@?$AAe?$AAn?$AA?9?$AAz?$AAw@ 000000018002de38     libucrt:lcidtoname_downlevel.obj
 0002:00007e48       ??_C@_1M@EJEINPHM@?$AAe?$AAs?$AA?9?$AAa?$AAr@ 000000018002de48     libucrt:lcidtoname_downlevel.obj
 0002:00007e58       ??_C@_1M@GNKPCCJA@?$AAe?$AAs?$AA?9?$AAb?$AAo@ 000000018002de58     libucrt:lcidtoname_downlevel.obj
 0002:00007e68       ??_C@_1M@LEEGFONL@?$AAe?$AAs?$AA?9?$AAc?$AAl@ 000000018002de68     libucrt:lcidtoname_downlevel.obj
 0002:00007e78       ??_C@_1M@KGPDPBDF@?$AAe?$AAs?$AA?9?$AAc?$AAo@ 000000018002de78     libucrt:lcidtoname_downlevel.obj
 0002:00007e88       ??_C@_1M@EIAHOHH@?$AAe?$AAs?$AA?9?$AAc?$AAr@ 000000018002de88     libucrt:lcidtoname_downlevel.obj
 0002:00007e98       ??_C@_1M@LLPGMBIN@?$AAe?$AAs?$AA?9?$AAd?$AAo@ 000000018002de98     libucrt:lcidtoname_downlevel.obj
 0002:00007ea8       ??_C@_1M@DKHMKNJA@?$AAe?$AAs?$AA?9?$AAe?$AAc@ 000000018002dea8     libucrt:lcidtoname_downlevel.obj
 0002:00007eb8       ??_C@_1M@GKGFPKAP@?$AAe?$AAs?$AA?9?$AAe?$AAs@ 000000018002deb8     libucrt:lcidtoname_downlevel.obj
 0002:00007ec8       ??_C@_1M@LKHKGDLN@?$AAe?$AAs?$AA?9?$AAg?$AAt@ 000000018002dec8     libucrt:lcidtoname_downlevel.obj
 0002:00007ed8       ??_C@_1M@HEIIGGJD@?$AAe?$AAs?$AA?9?$AAh?$AAn@ 000000018002ded8     libucrt:lcidtoname_downlevel.obj
 0002:00007ee8       ??_C@_1M@FBDHPPGD@?$AAe?$AAs?$AA?9?$AAm?$AAx@ 000000018002dee8     libucrt:lcidtoname_downlevel.obj
 0002:00007ef8       ??_C@_1M@DPAGLNDH@?$AAe?$AAs?$AA?9?$AAn?$AAi@ 000000018002def8     libucrt:lcidtoname_downlevel.obj
 0002:00007f08       ??_C@_1M@MDGOPGDD@?$AAe?$AAs?$AA?9?$AAp?$AAa@ 000000018002df08     libucrt:lcidtoname_downlevel.obj
 0002:00007f18       ??_C@_1M@EMAMGBGE@?$AAe?$AAs?$AA?9?$AAp?$AAe@ 000000018002df18     libucrt:lcidtoname_downlevel.obj
 0002:00007f28       ??_C@_1M@IBMCAOEC@?$AAe?$AAs?$AA?9?$AAp?$AAr@ 000000018002df28     libucrt:lcidtoname_downlevel.obj
 0002:00007f38       ??_C@_1M@FGMDIJED@?$AAe?$AAs?$AA?9?$AAp?$AAy@ 000000018002df38     libucrt:lcidtoname_downlevel.obj
 0002:00007f48       ??_C@_1M@IIDEOLLL@?$AAe?$AAs?$AA?9?$AAs?$AAv@ 000000018002df48     libucrt:lcidtoname_downlevel.obj
 0002:00007f58       ??_C@_1M@GAOBIPA@?$AAe?$AAs?$AA?9?$AAu?$AAy@ 000000018002df58     libucrt:lcidtoname_downlevel.obj
 0002:00007f68       ??_C@_1M@JKFFICHJ@?$AAe?$AAs?$AA?9?$AAv?$AAe@ 000000018002df68     libucrt:lcidtoname_downlevel.obj
 0002:00007f78       ??_C@_1M@PNMLOJDF@?$AAe?$AAt?$AA?9?$AAe?$AAe@ 000000018002df78     libucrt:lcidtoname_downlevel.obj
 0002:00007f88       ??_C@_1M@GHHLIKEI@?$AAe?$AAu?$AA?9?$AAe?$AAs@ 000000018002df88     libucrt:lcidtoname_downlevel.obj
 0002:00007f98       ??_C@_1M@PBNONODE@?$AAf?$AAa?$AA?9?$AAi?$AAr@ 000000018002df98     libucrt:lcidtoname_downlevel.obj
 0002:00007fa8       ??_C@_1M@JEEHPMIL@?$AAf?$AAi?$AA?9?$AAf?$AAi@ 000000018002dfa8     libucrt:lcidtoname_downlevel.obj
 0002:00007fb8       ??_C@_1M@LMDCNDBA@?$AAf?$AAo?$AA?9?$AAf?$AAo@ 000000018002dfb8     libucrt:lcidtoname_downlevel.obj
 0002:00007fc8       ??_C@_1M@JKEOHLDK@?$AAf?$AAr?$AA?9?$AAb?$AAe@ 000000018002dfc8     libucrt:lcidtoname_downlevel.obj
 0002:00007fd8       ??_C@_1M@NOHADPMI@?$AAf?$AAr?$AA?9?$AAc?$AAa@ 000000018002dfd8     libucrt:lcidtoname_downlevel.obj
 0002:00007fe8       ??_C@_1M@KDHIHAEC@?$AAf?$AAr?$AA?9?$AAc?$AAh@ 000000018002dfe8     libucrt:lcidtoname_downlevel.obj
 0002:00007ff8       ??_C@_1M@MMBBFGAK@?$AAf?$AAr?$AA?9?$AAf?$AAr@ 000000018002dff8     libucrt:lcidtoname_downlevel.obj
 0002:00008008       ??_C@_1M@PAFNENNF@?$AAf?$AAr?$AA?9?$AAl?$AAu@ 000000018002e008     libucrt:lcidtoname_downlevel.obj
 0002:00008018       ??_C@_1M@EOHDJGDD@?$AAf?$AAr?$AA?9?$AAm?$AAc@ 000000018002e018     libucrt:lcidtoname_downlevel.obj
 0002:00008028       ??_C@_1M@FAPLLOPF@?$AAg?$AAl?$AA?9?$AAe?$AAs@ 000000018002e028     libucrt:lcidtoname_downlevel.obj
 0002:00008038       ??_C@_1M@FOPBFLOO@?$AAg?$AAu?$AA?9?$AAi?$AAn@ 000000018002e038     libucrt:lcidtoname_downlevel.obj
 0002:00008048       ??_C@_1M@KBMCINPM@?$AAh?$AAe?$AA?9?$AAi?$AAl@ 000000018002e048     libucrt:lcidtoname_downlevel.obj
 0002:00008058       ??_C@_1M@BBPHKFPJ@?$AAh?$AAi?$AA?9?$AAi?$AAn@ 000000018002e058     libucrt:lcidtoname_downlevel.obj
 0002:00008068       ??_C@_1M@PMBNDPHD@?$AAh?$AAr?$AA?9?$AAb?$AAa@ 000000018002e068     libucrt:lcidtoname_downlevel.obj
 0002:00008078       ??_C@_1M@BPCKOEGE@?$AAh?$AAr?$AA?9?$AAh?$AAr@ 000000018002e078     libucrt:lcidtoname_downlevel.obj
 0002:00008088       ??_C@_1M@GACBMHKE@?$AAh?$AAu?$AA?9?$AAh?$AAu@ 000000018002e088     libucrt:lcidtoname_downlevel.obj
 0002:00008098       ??_C@_1M@MILPAJJC@?$AAh?$AAy?$AA?9?$AAa?$AAm@ 000000018002e098     libucrt:lcidtoname_downlevel.obj
 0002:000080a8       ??_C@_1M@BABBICEC@?$AAi?$AAd?$AA?9?$AAi?$AAd@ 000000018002e0a8     libucrt:lcidtoname_downlevel.obj
 0002:000080b8       ??_C@_1M@BIKNHHPF@?$AAi?$AAs?$AA?9?$AAi?$AAs@ 000000018002e0b8     libucrt:lcidtoname_downlevel.obj
 0002:000080c8       ??_C@_1M@NMPCJPHE@?$AAi?$AAt?$AA?9?$AAc?$AAh@ 000000018002e0c8     libucrt:lcidtoname_downlevel.obj
 0002:000080d8       ??_C@_1M@GHKGFEDF@?$AAi?$AAt?$AA?9?$AAi?$AAt@ 000000018002e0d8     libucrt:lcidtoname_downlevel.obj
 0002:000080e8       ??_C@_1M@NIEJCJJA@?$AAj?$AAa?$AA?9?$AAj?$AAp@ 000000018002e0e8     libucrt:lcidtoname_downlevel.obj
 0002:000080f8       ??_C@_1M@JILFNBIM@?$AAk?$AAa?$AA?9?$AAg?$AAe@ 000000018002e0f8     libucrt:lcidtoname_downlevel.obj
 0002:00008108       ??_C@_1M@PACPMGPH@?$AAk?$AAk?$AA?9?$AAk?$AAz@ 000000018002e108     libucrt:lcidtoname_downlevel.obj
 0002:00008118       ??_C@_1M@IELFGMHA@?$AAk?$AAn?$AA?9?$AAi?$AAn@ 000000018002e118     libucrt:lcidtoname_downlevel.obj
 0002:00008128       ??_C@_1O@IBBJHCH@?$AAk?$AAo?$AAk?$AA?9?$AAi?$AAn@ 000000018002e128     libucrt:lcidtoname_downlevel.obj
 0002:00008138       ??_C@_1M@DMHAEOGC@?$AAk?$AAo?$AA?9?$AAk?$AAr@ 000000018002e138     libucrt:lcidtoname_downlevel.obj
 0002:00008148       ??_C@_1M@HBAHBIGA@?$AAk?$AAy?$AA?9?$AAk?$AAg@ 000000018002e148     libucrt:lcidtoname_downlevel.obj
 0002:00008158       ??_C@_1M@KPMILCJG@?$AAl?$AAt?$AA?9?$AAl?$AAt@ 000000018002e158     libucrt:lcidtoname_downlevel.obj
 0002:00008168       ??_C@_1M@BDEKKCA@?$AAl?$AAv?$AA?9?$AAl?$AAv@ 000000018002e168     libucrt:lcidtoname_downlevel.obj
 0002:00008178       ??_C@_1M@ELCKCCJJ@?$AAm?$AAi?$AA?9?$AAn?$AAz@ 000000018002e178     libucrt:lcidtoname_downlevel.obj
 0002:00008188       ??_C@_1M@CBOOLAPA@?$AAm?$AAk?$AA?9?$AAm?$AAk@ 000000018002e188     libucrt:lcidtoname_downlevel.obj
 0002:00008198       ??_C@_1M@GPHNBJKN@?$AAm?$AAl?$AA?9?$AAi?$AAn@ 000000018002e198     libucrt:lcidtoname_downlevel.obj
 0002:000081a8       ??_C@_1M@PABJILIG@?$AAm?$AAn?$AA?9?$AAm?$AAn@ 000000018002e1a8     libucrt:lcidtoname_downlevel.obj
 0002:000081b8       ??_C@_1M@FGBKKIPG@?$AAm?$AAr?$AA?9?$AAi?$AAn@ 000000018002e1b8     libucrt:lcidtoname_downlevel.obj
 0002:000081c8       ??_C@_1M@NDBPDDAL@?$AAm?$AAs?$AA?9?$AAb?$AAn@ 000000018002e1c8     libucrt:lcidtoname_downlevel.obj
 0002:000081d8       ??_C@_1M@OPIHOOPI@?$AAm?$AAs?$AA?9?$AAm?$AAy@ 000000018002e1d8     libucrt:lcidtoname_downlevel.obj
 0002:000081e8       ??_C@_1M@PPDBCNFM@?$AAm?$AAt?$AA?9?$AAm?$AAt@ 000000018002e1e8     libucrt:lcidtoname_downlevel.obj
 0002:000081f8       ??_C@_1M@KDJDKMDD@?$AAn?$AAb?$AA?9?$AAn?$AAo@ 000000018002e1f8     libucrt:lcidtoname_downlevel.obj
 0002:00008208       ??_C@_1M@KFCFLMJP@?$AAn?$AAl?$AA?9?$AAb?$AAe@ 000000018002e208     libucrt:lcidtoname_downlevel.obj
 0002:00008218       ??_C@_1M@KPOPDDGO@?$AAn?$AAl?$AA?9?$AAn?$AAl@ 000000018002e218     libucrt:lcidtoname_downlevel.obj
 0002:00008228       ??_C@_1M@LJKPEMLN@?$AAn?$AAn?$AA?9?$AAn?$AAo@ 000000018002e228     libucrt:lcidtoname_downlevel.obj
 0002:00008238       ??_C@_1M@BDGHHBFL@?$AAn?$AAs?$AA?9?$AAz?$AAa@ 000000018002e238     libucrt:lcidtoname_downlevel.obj
 0002:00008248       ??_C@_1M@IDEHOAP@?$AAp?$AAa?$AA?9?$AAi?$AAn@ 000000018002e248     libucrt:lcidtoname_downlevel.obj
 0002:00008258       ??_C@_1M@HDBKGOGH@?$AAp?$AAl?$AA?9?$AAp?$AAl@ 000000018002e258     libucrt:lcidtoname_downlevel.obj
 0002:00008268       ??_C@_1M@LJLLCMEH@?$AAp?$AAt?$AA?9?$AAb?$AAr@ 000000018002e268     libucrt:lcidtoname_downlevel.obj
 0002:00008278       ??_C@_1M@NCMONAAL@?$AAp?$AAt?$AA?9?$AAp?$AAt@ 000000018002e278     libucrt:lcidtoname_downlevel.obj
 0002:00008288       ??_C@_1O@EAKMAJDN@?$AAq?$AAu?$AAz?$AA?9?$AAb?$AAo@ 000000018002e288     libucrt:lcidtoname_downlevel.obj
 0002:00008298       ??_C@_1O@BHHPIGDN@?$AAq?$AAu?$AAz?$AA?9?$AAe?$AAc@ 000000018002e298     libucrt:lcidtoname_downlevel.obj
 0002:000082a8       ??_C@_1O@GBAPEKMJ@?$AAq?$AAu?$AAz?$AA?9?$AAp?$AAe@ 000000018002e2a8     libucrt:lcidtoname_downlevel.obj
 0002:000082b8       ??_C@_1M@CLGLEFBO@?$AAr?$AAo?$AA?9?$AAr?$AAo@ 000000018002e2b8     libucrt:lcidtoname_downlevel.obj
 0002:000082c8       ??_C@_1M@CEEDODME@?$AAr?$AAu?$AA?9?$AAr?$AAu@ 000000018002e2c8     libucrt:lcidtoname_downlevel.obj
 0002:000082d8       ??_C@_1M@HPKKKMPP@?$AAs?$AAa?$AA?9?$AAi?$AAn@ 000000018002e2d8     libucrt:lcidtoname_downlevel.obj
 0002:000082e8       ??_C@_1M@BKMAIGOJ@?$AAs?$AAe?$AA?9?$AAf?$AAi@ 000000018002e2e8     libucrt:lcidtoname_downlevel.obj
 0002:000082f8       ??_C@_1M@NDPIFLFI@?$AAs?$AAe?$AA?9?$AAn?$AAo@ 000000018002e2f8     libucrt:lcidtoname_downlevel.obj
 0002:00008308       ??_C@_1M@DANKKHJ@?$AAs?$AAe?$AA?9?$AAs?$AAe@ 000000018002e308     libucrt:lcidtoname_downlevel.obj
 0002:00008318       ??_C@_1M@PNBLONPJ@?$AAs?$AAk?$AA?9?$AAs?$AAk@ 000000018002e318     libucrt:lcidtoname_downlevel.obj
 0002:00008328       ??_C@_1M@LFMODOAL@?$AAs?$AAl?$AA?9?$AAs?$AAi@ 000000018002e328     libucrt:lcidtoname_downlevel.obj
 0002:00008338       ??_C@_1O@DFKOMPG@?$AAs?$AAm?$AAa?$AA?9?$AAn?$AAo@ 000000018002e338     libucrt:lcidtoname_downlevel.obj
 0002:00008348       ??_C@_1O@NDKPBNNH@?$AAs?$AAm?$AAa?$AA?9?$AAs?$AAe@ 000000018002e348     libucrt:lcidtoname_downlevel.obj
 0002:00008358       ??_C@_1O@PLLKBHAB@?$AAs?$AAm?$AAj?$AA?9?$AAn?$AAo@ 000000018002e358     libucrt:lcidtoname_downlevel.obj
 0002:00008368       ??_C@_1O@CLEPOGCA@?$AAs?$AAm?$AAj?$AA?9?$AAs?$AAe@ 000000018002e368     libucrt:lcidtoname_downlevel.obj
 0002:00008378       ??_C@_1O@DLGJGKMK@?$AAs?$AAm?$AAn?$AA?9?$AAf?$AAi@ 000000018002e378     libucrt:lcidtoname_downlevel.obj
 0002:00008388       ??_C@_1O@OJDJGAJC@?$AAs?$AAm?$AAs?$AA?9?$AAf?$AAi@ 000000018002e388     libucrt:lcidtoname_downlevel.obj
 0002:00008398       ??_C@_1M@BOFOGHPB@?$AAs?$AAq?$AA?9?$AAa?$AAl@ 000000018002e398     libucrt:lcidtoname_downlevel.obj
 0002:000083a8       ??_C@_1BG@LJBBIPGB@?$AAs?$AAr?$AA?9?$AAb?$AAa?$AA?9?$AAc?$AAy?$AAr?$AAl@ 000000018002e3a8     libucrt:lcidtoname_downlevel.obj
 0002:000083c0       ??_C@_1BG@JLBENFOE@?$AAs?$AAr?$AA?9?$AAb?$AAa?$AA?9?$AAl?$AAa?$AAt?$AAn@ 000000018002e3c0     libucrt:lcidtoname_downlevel.obj
 0002:000083d8       ??_C@_1BG@KODPNHE@?$AAs?$AAr?$AA?9?$AAs?$AAp?$AA?9?$AAc?$AAy?$AAr?$AAl@ 000000018002e3d8     libucrt:lcidtoname_downlevel.obj
 0002:000083f0       ??_C@_1BG@CIOGKHPB@?$AAs?$AAr?$AA?9?$AAs?$AAp?$AA?9?$AAl?$AAa?$AAt?$AAn@ 000000018002e3f0     libucrt:lcidtoname_downlevel.obj
 0002:00008408       ??_C@_1M@NGFJLMAC@?$AAs?$AAv?$AA?9?$AAf?$AAi@ 000000018002e408     libucrt:lcidtoname_downlevel.obj
 0002:00008418       ??_C@_1M@MPJEJAJC@?$AAs?$AAv?$AA?9?$AAs?$AAe@ 000000018002e418     libucrt:lcidtoname_downlevel.obj
 0002:00008428       ??_C@_1M@MPNDHLFK@?$AAs?$AAw?$AA?9?$AAk?$AAe@ 000000018002e428     libucrt:lcidtoname_downlevel.obj
 0002:00008438       ??_C@_1O@KOHBJJI@?$AAs?$AAy?$AAr?$AA?9?$AAs?$AAy@ 000000018002e438     libucrt:lcidtoname_downlevel.obj
 0002:00008448       ??_C@_1M@LDCEFHA@?$AAt?$AAa?$AA?9?$AAi?$AAn@ 000000018002e448     libucrt:lcidtoname_downlevel.obj
 0002:00008458       ??_C@_1M@CNJOFAK@?$AAt?$AAe?$AA?9?$AAi?$AAn@ 000000018002e458     libucrt:lcidtoname_downlevel.obj
 0002:00008468       ??_C@_1M@GNAECACD@?$AAt?$AAh?$AA?9?$AAt?$AAh@ 000000018002e468     libucrt:lcidtoname_downlevel.obj
 0002:00008478       ??_C@_1M@CHBIHOJO@?$AAt?$AAn?$AA?9?$AAz?$AAa@ 000000018002e478     libucrt:lcidtoname_downlevel.obj
 0002:00008488       ??_C@_1M@GCCMIGPJ@?$AAt?$AAr?$AA?9?$AAt?$AAr@ 000000018002e488     libucrt:lcidtoname_downlevel.obj
 0002:00008498       ??_C@_1M@CELMCNBK@?$AAt?$AAt?$AA?9?$AAr?$AAu@ 000000018002e498     libucrt:lcidtoname_downlevel.obj
 0002:000084a8       ??_C@_1M@KLMCELGA@?$AAu?$AAk?$AA?9?$AAu?$AAa@ 000000018002e4a8     libucrt:lcidtoname_downlevel.obj
 0002:000084b8       ??_C@_1M@EPAJJAJF@?$AAu?$AAr?$AA?9?$AAp?$AAk@ 000000018002e4b8     libucrt:lcidtoname_downlevel.obj
 0002:000084c8       ??_C@_1BG@GEGPMCDJ@?$AAu?$AAz?$AA?9?$AAu?$AAz?$AA?9?$AAc?$AAy?$AAr?$AAl@ 000000018002e4c8     libucrt:lcidtoname_downlevel.obj
 0002:000084e0       ??_C@_1BG@EGGKJILM@?$AAu?$AAz?$AA?9?$AAu?$AAz?$AA?9?$AAl?$AAa?$AAt?$AAn@ 000000018002e4e0     libucrt:lcidtoname_downlevel.obj
 0002:000084f8       ??_C@_1M@GFOCLFF@?$AAv?$AAi?$AA?9?$AAv?$AAn@ 000000018002e4f8     libucrt:lcidtoname_downlevel.obj
 0002:00008508       ??_C@_1M@CPAMEDFI@?$AAx?$AAh?$AA?9?$AAz?$AAa@ 000000018002e508     libucrt:lcidtoname_downlevel.obj
 0002:00008518       ??_C@_1O@EBKIFIGN@?$AAz?$AAh?$AA?9?$AAc?$AAh?$AAs@ 000000018002e518     libucrt:lcidtoname_downlevel.obj
 0002:00008528       ??_C@_1O@NMHPGANE@?$AAz?$AAh?$AA?9?$AAc?$AAh?$AAt@ 000000018002e528     libucrt:lcidtoname_downlevel.obj
 0002:00008538       ??_C@_1M@LPINJOMC@?$AAz?$AAh?$AA?9?$AAc?$AAn@ 000000018002e538     libucrt:lcidtoname_downlevel.obj
 0002:00008548       ??_C@_1M@OCJEJODD@?$AAz?$AAh?$AA?9?$AAh?$AAk@ 000000018002e548     libucrt:lcidtoname_downlevel.obj
 0002:00008558       ??_C@_1M@DNDLJINH@?$AAz?$AAh?$AA?9?$AAm?$AAo@ 000000018002e558     libucrt:lcidtoname_downlevel.obj
 0002:00008568       ??_C@_1M@MBFDNDND@?$AAz?$AAh?$AA?9?$AAs?$AAg@ 000000018002e568     libucrt:lcidtoname_downlevel.obj
 0002:00008578       ??_C@_1M@IMEPLEPE@?$AAz?$AAh?$AA?9?$AAt?$AAw@ 000000018002e578     libucrt:lcidtoname_downlevel.obj
 0002:00008588       ??_C@_1M@BBGHNHJP@?$AAz?$AAu?$AA?9?$AAz?$AAa@ 000000018002e588     libucrt:lcidtoname_downlevel.obj
 0002:000085a0       ?large_power_data@?1??multiply_by_power_of_ten@__crt_strtox@@YA_NAEAUbig_integer@2@I@Z@4QBIB 000000018002e5a0     libucrt:cfout.obj
 0002:00008eb0       ?large_power_indices@?1??multiply_by_power_of_ten@__crt_strtox@@YA_NAEAUbig_integer@2@I@Z@4QBUunpack_index@?1??12@YA_N0I@Z@B 000000018002eeb0     libucrt:cfout.obj
 0002:00008f48       ?small_powers_of_ten@?1??multiply_by_power_of_ten@__crt_strtox@@YA_NAEAUbig_integer@2@I@Z@4QBIB 000000018002ef48     libucrt:cfout.obj
 0002:00008f6c       ??_C@_01GBGANLPD@0@        000000018002ef6c     libucrt:cfout.obj
 0002:00008f70       ??_C@_05DNEBIAHO@1?$CDINF@ 000000018002ef70     libucrt:cfout.obj
 0002:00008f78       ??_C@_06IMKFLFPG@1?$CDQNAN@ 000000018002ef78     libucrt:cfout.obj
 0002:00008f80       ??_C@_06PGGFOGJG@1?$CDSNAN@ 000000018002ef80     libucrt:cfout.obj
 0002:00008f88       ??_C@_05PHHOCPM@1?$CDIND@  000000018002ef88     libucrt:cfout.obj
 0002:00008fb8       __real@3ff0000000000000    000000018002efb8     libucrt:ceil.obj
 0002:00009210       __log10_256_lead           000000018002f210     libucrt:log10_256_lead_tail_table.obj
 0002:00009a20       __log10_256_tail           000000018002fa20     libucrt:log10_256_lead_tail_table.obj
 0002:0000a230       __log_F_inv_qword          0000000180030230     libucrt:log_f_inv_qword_table.obj
 0002:0000aa40       ??_C@_05HGHHAHAP@log10@    0000000180030a40     libucrt:log_special.obj
 0002:0000aa48       ??_C@_1BA@BALFACEM@?$AAC?$AAO?$AAN?$AAO?$AAU?$AAT?$AA$@ 0000000180030a48     libucrt:initcon.obj
 0002:0000aad0       _load_config_used          0000000180030ad0     LIBCMT:loadcfg.obj
 0002:0000ac80       _tls_used                  0000000180030c80     LIBCMT:tlssup.obj
 0002:0000aca8       ??_R4exception@std@@6B@    0000000180030ca8     LIBCMT:throw_bad_alloc.obj
 0002:0000acd0       ??_R3exception@std@@8      0000000180030cd0     LIBCMT:throw_bad_alloc.obj
 0002:0000ace8       ??_R2exception@std@@8      0000000180030ce8     LIBCMT:throw_bad_alloc.obj
 0002:0000acf8       ??_R1A@?0A@EA@exception@std@@8 0000000180030cf8     LIBCMT:throw_bad_alloc.obj
 0002:0000ad20       ??_R4bad_alloc@std@@6B@    0000000180030d20     LIBCMT:throw_bad_alloc.obj
 0002:0000ad48       ??_R3bad_alloc@std@@8      0000000180030d48     LIBCMT:throw_bad_alloc.obj
 0002:0000ad60       ??_R2bad_alloc@std@@8      0000000180030d60     LIBCMT:throw_bad_alloc.obj
 0002:0000ad78       ??_R1A@?0A@EA@bad_alloc@std@@8 0000000180030d78     LIBCMT:throw_bad_alloc.obj
 0002:0000ada0       ??_R4bad_array_new_length@std@@6B@ 0000000180030da0     LIBCMT:throw_bad_alloc.obj
 0002:0000adc8       ??_R3bad_array_new_length@std@@8 0000000180030dc8     LIBCMT:throw_bad_alloc.obj
 0002:0000ade0       ??_R2bad_array_new_length@std@@8 0000000180030de0     LIBCMT:throw_bad_alloc.obj
 0002:0000ae00       ??_R1A@?0A@EA@bad_array_new_length@std@@8 0000000180030e00     LIBCMT:throw_bad_alloc.obj
 0002:0000ae28       ??_R4type_info@@6B@        0000000180030e28     LIBCMT:std_type_info_static.obj
 0002:0000ae50       ??_R3type_info@@8          0000000180030e50     LIBCMT:std_type_info_static.obj
 0002:0000ae68       ??_R2type_info@@8          0000000180030e68     LIBCMT:std_type_info_static.obj
 0002:0000ae78       ??_R1A@?0A@EA@type_info@@8 0000000180030e78     LIBCMT:std_type_info_static.obj
 0002:0000aea0       ??_R4bad_exception@std@@6B@ 0000000180030ea0     libvcruntime:frame.obj
 0002:0000aec8       ??_R3bad_exception@std@@8  0000000180030ec8     libvcruntime:frame.obj
 0002:0000aee0       ??_R2bad_exception@std@@8  0000000180030ee0     libvcruntime:frame.obj
 0002:0000aef8       ??_R1A@?0A@EA@bad_exception@std@@8 0000000180030ef8     libvcruntime:frame.obj
 0002:0000af1c       __volatile_metadata        0000000180030f1c     <linker-defined>
 0002:0000b398       __rtc_iaa                  0000000180031398     LIBCMT:initsect.obj
 0002:0000b3a0       __rtc_izz                  00000001800313a0     LIBCMT:initsect.obj
 0002:0000b3a8       __rtc_taa                  00000001800313a8     LIBCMT:initsect.obj
 0002:0000b3b0       __rtc_tzz                  00000001800313b0     LIBCMT:initsect.obj
 0002:0000b3b8       _tls_start                 00000001800313b8     LIBCMT:tlssup.obj
 0002:0000b3bc       _Init_thread_epoch         00000001800313bc     LIBCMT:thread_safe_statics.obj
 0002:0000b3c0       _tls_end                   00000001800313c0     LIBCMT:tlssup.obj
 0002:0000cd20       _TI2?AVbad_alloc@std@@     0000000180032d20     LIBCMT:throw_bad_alloc.obj
 0002:0000cd40       _CTA2?AVbad_alloc@std@@    0000000180032d40     LIBCMT:throw_bad_alloc.obj
 0002:0000cd58       _CT??_R0?AVbad_alloc@std@@@8??0bad_alloc@std@@QEAA@AEBV01@@Z24 0000000180032d58     LIBCMT:throw_bad_alloc.obj
 0002:0000cd80       _CT??_R0?AVexception@std@@@8??0exception@std@@QEAA@AEBV01@@Z24 0000000180032d80     LIBCMT:throw_bad_alloc.obj
 0002:0000cda8       _TI3?AVbad_array_new_length@std@@ 0000000180032da8     LIBCMT:throw_bad_alloc.obj
 0002:0000cdc8       _CTA3?AVbad_array_new_length@std@@ 0000000180032dc8     LIBCMT:throw_bad_alloc.obj
 0002:0000cde8       _CT??_R0?AVbad_array_new_length@std@@@8??0bad_array_new_length@std@@QEAA@AEBV01@@Z24 0000000180032de8     LIBCMT:throw_bad_alloc.obj
 0002:0000ce10       _TI2?AVbad_exception@std@@ 0000000180032e10     libvcruntime:frame.obj
 0002:0000ce30       _CTA2?AVbad_exception@std@@ 0000000180032e30     libvcruntime:frame.obj
 0002:0000ce48       _CT??_R0?AVbad_exception@std@@@8??0bad_exception@std@@QEAA@AEBV01@@Z24 0000000180032e48     libvcruntime:frame.obj
 0002:0000ce70       __pobjMapEntryFirst        0000000180032e70     OposVariant.obj
 0002:0000ce78       __pobjMapEntryLast         0000000180032e78     OposVariant.obj
 0002:0000cf28       __IMPORT_DESCRIPTOR_KERNEL32 0000000180032f28     kernel32:KERNEL32.dll
 0002:0000cf3c       __IMPORT_DESCRIPTOR_USER32 0000000180032f3c     user32:USER32.dll
 0002:0000cf50       __IMPORT_DESCRIPTOR_GDI32  0000000180032f50     gdi32:GDI32.dll
 0002:0000cf64       __IMPORT_DESCRIPTOR_ADVAPI32 0000000180032f64     advapi32:ADVAPI32.dll
 0002:0000cf78       __IMPORT_DESCRIPTOR_ole32  0000000180032f78     ole32:ole32.dll
 0002:0000cf8c       __IMPORT_DESCRIPTOR_OLEAUT32 0000000180032f8c     oleaut32:OLEAUT32.dll
 0002:0000cfa0       __NULL_IMPORT_DESCRIPTOR   0000000180032fa0     kernel32:KERNEL32.dll
 0003:00000000       ?rcDefault@CWindow@ATL@@2UtagRECT@@A 0000000180035000     BumpBar.obj
 0003:00000010       ?s_Claim@?7??GetIDsOfNames@CComTypeInfoHolder@ATL@@QEAAJAEBU_GUID@@PEAPEA_WIKPEAJ@Z@4PA_WA 0000000180035010     BumpBar.obj
 0003:00000028       ?s_Release@?7??GetIDsOfNames@CComTypeInfoHolder@ATL@@QEAAJAEBU_GUID@@PEAPEA_WIKPEAJ@Z@4PA_WA 0000000180035028     BumpBar.obj
 0003:00000048       ?_tih@?$IDispatchImpl@UIOPOSBumpBar@@$1?IID_IOPOSBumpBar@@3U_GUID@@B$1?LIBID_OposBumpBar_CCO@@3U3@B$00$0A@VCComTypeInfoHolder@ATL@@@ATL@@1VCComTypeInfoHolder@2@A 0000000180035048     BumpBar.obj
 0003:00000080       ?_tih@?$IProvideClassInfo2Impl@$1?CLSID_OPOSBumpBar@@3U_GUID@@B$1?DIID__IOPOSBumpBarEvents@@3U2@B$1?LIBID_OposBumpBar_CCO@@3U2@B$00$0A@VCComTypeInfoHolder@ATL@@@ATL@@1VCComTypeInfoHolder@2@A 0000000180035080     BumpBar.obj
 0003:000000b8       ?vszContents@?6??Save@?$IPersistStorageImpl@VCOPOSBumpBar@@@ATL@@UEAAJPEAUIStorage@@H@Z@4PEB_WEB 00000001800350b8     BumpBar.obj
 0003:000000c0       ?wc@?1??GetWndClassInfo@?$CWindowImpl@VCOPOSBumpBar@@VCWindow@ATL@@V?$CWinTraits@$0FGAAAAAA@$0A@@3@@ATL@@SAAEAU_ATL_WNDCLASSINFOW@3@XZ@4U43@A 00000001800350c0     BumpBar.obj
 0003:00000250       ?g_WindowName@@3PA_WA      0000000180035250     BumpBarImpl.obj
 0003:00000270       ?g_ControlDescription@@3PADA 0000000180035270     BumpBarImpl.obj
 0003:000002b8       ?g_ControlVersion@@3JA     00000001800352b8     BumpBarImpl.obj
 0003:00000384       __scrt_native_dllmain_reason 0000000180035384     LIBCMT:utility.obj
 0003:00000388       _Init_global_epoch         0000000180035388     LIBCMT:thread_safe_statics.obj
 0003:00000390       __security_cookie          0000000180035390     LIBCMT:gs_cookie.obj
 0003:00000398       __security_cookie_complement 0000000180035398     LIBCMT:gs_cookie.obj
 0003:000003a0       __isa_available            00000001800353a0     LIBCMT:cpu_disp.obj
 0003:000003a4       __isa_enabled              00000001800353a4     LIBCMT:cpu_disp.obj
 0003:000003a8       __memcpy_nt_iters          00000001800353a8     LIBCMT:cpu_disp.obj
 0003:000003b0       __memset_nt_iters          00000001800353b0     LIBCMT:cpu_disp.obj
 0003:000003d8       __abort_behavior           00000001800353d8     libucrt:abort.obj
 0003:000003f0       __acrt_initial_locale_data 00000001800353f0     libucrt:nlsdata.obj
 0003:00000548       __acrt_initial_locale_pointers 0000000180035548     libucrt:nlsdata.obj
 0003:00000558       __acrt_wide_c_locale_string 0000000180035558     libucrt:nlsdata.obj
 0003:00000560       _iob                       0000000180035560     libucrt:_file.obj
 0003:00000670       __acrt_initial_multibyte_data 0000000180035670     libucrt:mbctype.obj
 0003:00000bb0       __acrt_lconv_c             0000000180035bb0     libucrt:localeconv.obj
 0003:00000c48       __acrt_lconv_static_decimal 0000000180035c48     libucrt:localeconv.obj
 0003:00000c4c       __acrt_lconv_static_W_decimal 0000000180035c4c     libucrt:localeconv.obj
 0003:00000c50       __globallocalestatus       0000000180035c50     libucrt:glstatus.obj
 0003:00000c60       _lookuptrailbytes          0000000180035c60     libucrt:read.obj
 0003:00000d84       _fltused                   0000000180035d84     LIBCMT:fltused.obj
 0003:00000d88       ??_R0?AVbad_alloc@std@@@8  0000000180035d88     LIBCMT:throw_bad_alloc.obj
 0003:00000db0       ??_R0?AVexception@std@@@8  0000000180035db0     LIBCMT:throw_bad_alloc.obj
 0003:00000dd8       ??_R0?AVbad_array_new_length@std@@@8 0000000180035dd8     LIBCMT:throw_bad_alloc.obj
 0003:00000e08       ??_R0?AVbad_exception@std@@@8 0000000180035e08     libvcruntime:frame.obj
 0003:00000e30       ??_R0?AVtype_info@@@8      0000000180035e30     LIBCMT:std_type_info_static.obj
 0003:00000e50       ?m_bInitFailed@CAtlBaseModule@ATL@@2_NA 0000000180035e50     OposVariant.obj
 0003:00000e58       ?_pPerfRegFunc@ATL@@3P6AJPEAUHINSTANCE__@@@ZEA 0000000180035e58     OposVariant.obj
 0003:00000e60       ?_pPerfUnRegFunc@ATL@@3P6AJXZEA 0000000180035e60     OposVariant.obj
 0003:00000e68       ?_AtlRegisterPerUser@ATL@@3_NA 0000000180035e68     OposVariant.obj
 0003:00000e70       ?_pAtlModule@ATL@@3PEAVCAtlModule@1@EA 0000000180035e70     OposVariant.obj
 0003:00000e78       ?_pModule@ATL@@3PEAVCComModule@1@EA 0000000180035e78     OposVariant.obj
 0003:00000e80       ?_AtlComModule@ATL@@3VCAtlComModule@1@A 0000000180035e80     OposVariant.obj
 0003:00000ed0       ?_AtlWinModule@ATL@@3VCAtlWinModule@1@A 0000000180035ed0     OposVariant.obj
 0003:00000f18       ?m_libid@CAtlModule@ATL@@2U_GUID@@A 0000000180035f18     BumpBar.obj
 0003:00000f28       ?_entries@?1??GetConnMap@COPOSBumpBar@@SAPEBU_ATL_CONNMAP_ENTRY@ATL@@PEAH@Z@4QBU34@B 0000000180035f28     BumpBar.obj
 0003:00000f40       ?$TSS0@?1??GetConnMap@COPOSBumpBar@@SAPEBU_ATL_CONNMAP_ENTRY@ATL@@PEAH@Z@4HA 0000000180035f40     BumpBar.obj
 0003:00000f48       ?_OptionsStorage@?1??__local_stdio_printf_options@@9@4_KA 0000000180035f48     BumpBar.obj
 0003:00000f50       ?pfnRegDeleteKeyEx@?1??DeleteSubKey@CRegKey@ATL@@QEAAJPEB_W@Z@4P6AJPEAUHKEY__@@0KK@ZEA 0000000180035f50     BumpBar.obj
 0003:00000f58       ?bInitialized@?1??DeleteSubKey@CRegKey@ATL@@QEAAJPEB_W@Z@4_NA 0000000180035f58     BumpBar.obj
 0003:00000f60       ?_Module@@3VCComModule@ATL@@A 0000000180035f60     BumpBar.obj
 0003:00000fb0       ?pConnMap@?$IConnectionPointContainerImpl@VCOPOSBumpBar@@@ATL@@0PEBU_ATL_CONNMAP_ENTRY@2@EB 0000000180035fb0     BumpBar.obj
 0003:00000fb8       ?s_nInstances@COPOSBumpBar@@1HA 0000000180035fb8     BumpBarImpl.obj
 0003:00000fc0       __scrt_current_native_startup_state 0000000180035fc0     LIBCMT:utility.obj
 0003:00000fc8       __scrt_native_startup_lock 0000000180035fc8     LIBCMT:utility.obj
 0003:000015c0       _tls_index                 00000001800365c0     LIBCMT:tlssup.obj
 0003:000015c8       __favor                    00000001800365c8     LIBCMT:cpu_disp.obj
 0003:000015cc       __scrt_debugger_hook_flag  00000001800365cc     LIBCMT:utility_desktop.obj
 0003:000015d0       ?__type_info_root_node@@3U__type_info_node@@A 00000001800365d0     LIBCMT:tncleanup.obj
 0003:000015e0       ?_OptionsStorage@?1??__local_stdio_scanf_options@@9@4_KA 00000001800365e0     LIBCMT:default_local_stdio_options.obj
 0003:000015f0       ?_AtlBaseModule@ATL@@3VCAtlBaseModule@1@A 00000001800365f0     atls:atlbase.obj
 0003:00001650       ?__AtlThunkPool@@3PEAT_SLIST_HEADER@@EA 0000000180036650     atls:atlthunk.obj
 0003:0000167c       __@@_PchSym_@00@UzABUPdlipUCAUhUrmgvinvwrzgvUexgllohUzgohOmzgrevkilqPBACIAJCBDBUlyqiUznwGEUhgwzucOlyq@4B2008FD98C1DD4 000000018003667c     atls:stdafx.obj
 0003:00001680       ?__WinRTOutOfMemoryExceptionCallback@@3P6APEAXXZEA 0000000180036680     libvcruntime:ehhelpers.obj
 0003:00001688       __pPurecall                0000000180036688     libvcruntime:purevirt_data.obj
 0003:00001740       ?pArgList@UnDecorator@@0PEAVReplicator@@EA 0000000180036740     libvcruntime:undname.obj
 0003:00001748       ?pZNameList@UnDecorator@@0PEAVReplicator@@EA 0000000180036748     libvcruntime:undname.obj
 0003:00001750       ?pTemplateArgList@UnDecorator@@0PEAVReplicator@@EA 0000000180036750     libvcruntime:undname.obj
 0003:00001758       ?gName@UnDecorator@@0PEBDEB 0000000180036758     libvcruntime:undname.obj
 0003:00001760       ?name@UnDecorator@@0PEBDEB 0000000180036760     libvcruntime:undname.obj
 0003:00001768       ?disableFlags@UnDecorator@@0KA 0000000180036768     libvcruntime:undname.obj
 0003:0000176c       ?fExplicitTemplateParams@UnDecorator@@0_NA 000000018003676c     libvcruntime:undname.obj
 0003:0000176d       ?fGetTemplateArgumentList@UnDecorator@@0_NA 000000018003676d     libvcruntime:undname.obj
 0003:00001770       ?m_pGetParameter@UnDecorator@@0P6APEADJ@ZEA 0000000180036770     libvcruntime:undname.obj
 0003:00001778       ?m_CHPENameOffset@UnDecorator@@0KA 0000000180036778     libvcruntime:undname.obj
 0003:0000177c       ?m_recursionLevel@UnDecorator@@0KA 000000018003677c     libvcruntime:undname.obj
 0003:00001800       ?c_exit_complete@?1???R<lambda_6e4b09c48022b2350581041d5f6b0c4c>@@QEBA@XZ@4_NA 0000000180036800     libucrt:exit.obj
 0003:00001918       _environ_table             0000000180036918     libucrt:environment_initialization.obj
 0003:00001920       _wenviron_table            0000000180036920     libucrt:environment_initialization.obj
 0003:00001928       __dcrt_initial_wide_environment 0000000180036928     libucrt:environment_initialization.obj
 0003:00001930       __dcrt_initial_narrow_environment 0000000180036930     libucrt:environment_initialization.obj
 0003:00001938       __acrt_atexit_table        0000000180036938     libucrt:onexit.obj
 0003:00001950       __acrt_at_quick_exit_table 0000000180036950     libucrt:onexit.obj
 0003:00001970       __acrt_locale_changed_data 0000000180036970     libucrt:wsetlocale.obj
 0003:00001978       __acrt_current_locale_data 0000000180036978     libucrt:nlsdata.obj
 0003:00001b18       _nstream                   0000000180036b18     libucrt:_file.obj
 0003:00001b20       __piob                     0000000180036b20     libucrt:_file.obj
 0003:00001b30       __acrt_stdout_buffer       0000000180036b30     libucrt:_sftbuf.obj
 0003:00001b38       __acrt_stderr_buffer       0000000180036b38     libucrt:_sftbuf.obj
 0003:00001b40       __pioinfo                  0000000180036b40     libucrt:ioinit.obj
 0003:00001f40       _nhandle                   0000000180036f40     libucrt:ioinit.obj
 0003:00002188       _mbctype                   0000000180037188     libucrt:mbctype.obj
 0003:00002190       _mbcasemap                 0000000180037190     libucrt:mbctype.obj
 0003:00002198       __acrt_current_multibyte_data 0000000180037198     libucrt:mbctype.obj
 0003:000021a8       _pgmptr                    00000001800371a8     libucrt:argv_data.obj
 0003:000021b0       __argc                     00000001800371b0     libucrt:argv_data.obj
 0003:000021b8       __argv                     00000001800371b8     libucrt:argv_data.obj
 0003:000021c0       __wargv                    00000001800371c0     libucrt:argv_data.obj
 0003:000021c8       _acmdln                    00000001800371c8     libucrt:argv_data.obj
 0003:000021d0       _wcmdln                    00000001800371d0     libucrt:argv_data.obj
 0003:000021d8       __acrt_heap                00000001800371d8     libucrt:heap_handle.obj
 0003:00002208       __acrt_lconv_static_null   0000000180037208     libucrt:localeconv.obj
 0003:0000220c       __acrt_lconv_static_W_null 000000018003720c     libucrt:localeconv.obj
 0003:00002224       __fma3_is_available        0000000180037224     libucrt:fma3_available.obj
 0003:00002228       __use_fma3_lib             0000000180037228     libucrt:fma3_available.obj
 0003:00002230       __dyn_tls_init_callback    0000000180037230     <common>
 0003:00002238       __scrt_ucrt_dll_is_in_use  0000000180037238     <common>

 entry point at        0001:0000ef80

 Static symbols

 0000:fffbe000       .debug$S                   0000000180000000     OPOSBumpBar.exp
 0000:fffbe000       .debug$S                   0000000180000000     advapi32:ADVAPI32.dll
 0000:fffbe000       .debug$S                   0000000180000000     advapi32:ADVAPI32.dll
 0000:fffbe000       .debug$S                   0000000180000000     advapi32:ADVAPI32.dll
 0000:fffbe000       .debug$S                   0000000180000000     advapi32:ADVAPI32.dll
 0000:fffbe000       .debug$S                   0000000180000000     advapi32:ADVAPI32.dll
 0000:fffbe000       .debug$S                   0000000180000000     advapi32:ADVAPI32.dll
 0000:fffbe000       .debug$S                   0000000180000000     advapi32:ADVAPI32.dll
 0000:fffbe000       .debug$S                   0000000180000000     advapi32:ADVAPI32.dll
 0000:fffbe000       .debug$S                   0000000180000000     advapi32:ADVAPI32.dll
 0000:fffbe000       .debug$S                   0000000180000000     gdi32:GDI32.dll
 0000:fffbe000       .debug$S                   0000000180000000     gdi32:GDI32.dll
 0000:fffbe000       .debug$S                   0000000180000000     gdi32:GDI32.dll
 0000:fffbe000       .debug$S                   0000000180000000     gdi32:GDI32.dll
 0000:fffbe000       .debug$S                   0000000180000000     gdi32:GDI32.dll
 0000:fffbe000       .debug$S                   0000000180000000     gdi32:GDI32.dll
 0000:fffbe000       .debug$S                   0000000180000000     gdi32:GDI32.dll
 0000:fffbe000       .debug$S                   0000000180000000     gdi32:GDI32.dll
 0000:fffbe000       .debug$S                   0000000180000000     gdi32:GDI32.dll
 0000:fffbe000       .debug$S                   0000000180000000     gdi32:GDI32.dll
 0000:fffbe000       .debug$S                   0000000180000000     gdi32:GDI32.dll
 0000:fffbe000       .debug$S                   0000000180000000     gdi32:GDI32.dll
 0000:fffbe000       .debug$S                   0000000180000000     gdi32:GDI32.dll
 0000:fffbe000       .debug$S                   0000000180000000     gdi32:GDI32.dll
 0000:fffbe000       .debug$S                   0000000180000000     gdi32:GDI32.dll
 0000:fffbe000       .debug$S                   0000000180000000     gdi32:GDI32.dll
 0000:fffbe000       .debug$S                   0000000180000000     gdi32:GDI32.dll
 0000:fffbe000       .debug$S                   0000000180000000     gdi32:GDI32.dll
 0000:fffbe000       .debug$S                   0000000180000000     gdi32:GDI32.dll
 0000:fffbe000       .debug$S                   0000000180000000     kernel32:KERNEL32.dll
 0000:fffbe000       .debug$S                   0000000180000000     kernel32:KERNEL32.dll
 0000:fffbe000       .debug$S                   0000000180000000     kernel32:KERNEL32.dll
 0000:fffbe000       .debug$S                   0000000180000000     kernel32:KERNEL32.dll
 0000:fffbe000       .debug$S                   0000000180000000     kernel32:KERNEL32.dll
 0000:fffbe000       .debug$S                   0000000180000000     kernel32:KERNEL32.dll
 0000:fffbe000       .debug$S                   0000000180000000     kernel32:KERNEL32.dll
 0000:fffbe000       .debug$S                   0000000180000000     kernel32:KERNEL32.dll
 0000:fffbe000       .debug$S                   0000000180000000     kernel32:KERNEL32.dll
 0000:fffbe000       .debug$S                   0000000180000000     kernel32:KERNEL32.dll
 0000:fffbe000       .debug$S                   0000000180000000     kernel32:KERNEL32.dll
 0000:fffbe000       .debug$S                   0000000180000000     kernel32:KERNEL32.dll
 0000:fffbe000       .debug$S                   0000000180000000     kernel32:KERNEL32.dll
 0000:fffbe000       .debug$S                   0000000180000000     kernel32:KERNEL32.dll
 0000:fffbe000       .debug$S                   0000000180000000     kernel32:KERNEL32.dll
 0000:fffbe000       .debug$S                   0000000180000000     kernel32:KERNEL32.dll
 0000:fffbe000       .debug$S                   0000000180000000     kernel32:KERNEL32.dll
 0000:fffbe000       .debug$S                   0000000180000000     kernel32:KERNEL32.dll
 0000:fffbe000       .debug$S                   0000000180000000     kernel32:KERNEL32.dll
 0000:fffbe000       .debug$S                   0000000180000000     kernel32:KERNEL32.dll
 0000:fffbe000       .debug$S                   0000000180000000     kernel32:KERNEL32.dll
 0000:fffbe000       .debug$S                   0000000180000000     kernel32:KERNEL32.dll
 0000:fffbe000       .debug$S                   0000000180000000     kernel32:KERNEL32.dll
 0000:fffbe000       .debug$S                   0000000180000000     kernel32:KERNEL32.dll
 0000:fffbe000       .debug$S                   0000000180000000     kernel32:KERNEL32.dll
 0000:fffbe000       .debug$S                   0000000180000000     kernel32:KERNEL32.dll
 0000:fffbe000       .debug$S                   0000000180000000     kernel32:KERNEL32.dll
 0000:fffbe000       .debug$S                   0000000180000000     kernel32:KERNEL32.dll
 0000:fffbe000       .debug$S                   0000000180000000     kernel32:KERNEL32.dll
 0000:fffbe000       .debug$S                   0000000180000000     kernel32:KERNEL32.dll
 0000:fffbe000       .debug$S                   0000000180000000     kernel32:KERNEL32.dll
 0000:fffbe000       .debug$S                   0000000180000000     kernel32:KERNEL32.dll
 0000:fffbe000       .debug$S                   0000000180000000     kernel32:KERNEL32.dll
 0000:fffbe000       .debug$S                   0000000180000000     kernel32:KERNEL32.dll
 0000:fffbe000       .debug$S                   0000000180000000     kernel32:KERNEL32.dll
 0000:fffbe000       .debug$S                   0000000180000000     kernel32:KERNEL32.dll
 0000:fffbe000       .debug$S                   0000000180000000     kernel32:KERNEL32.dll
 0000:fffbe000       .debug$S                   0000000180000000     kernel32:KERNEL32.dll
 0000:fffbe000       .debug$S                   0000000180000000     kernel32:KERNEL32.dll
 0000:fffbe000       .debug$S                   0000000180000000     kernel32:KERNEL32.dll
 0000:fffbe000       .debug$S                   0000000180000000     kernel32:KERNEL32.dll
 0000:fffbe000       .debug$S                   0000000180000000     kernel32:KERNEL32.dll
 0000:fffbe000       .debug$S                   0000000180000000     kernel32:KERNEL32.dll
 0000:fffbe000       .debug$S                   0000000180000000     kernel32:KERNEL32.dll
 0000:fffbe000       .debug$S                   0000000180000000     kernel32:KERNEL32.dll
 0000:fffbe000       .debug$S                   0000000180000000     kernel32:KERNEL32.dll
 0000:fffbe000       .debug$S                   0000000180000000     kernel32:KERNEL32.dll
 0000:fffbe000       .debug$S                   0000000180000000     kernel32:KERNEL32.dll
 0000:fffbe000       .debug$S                   0000000180000000     kernel32:KERNEL32.dll
 0000:fffbe000       .debug$S                   0000000180000000     kernel32:KERNEL32.dll
 0000:fffbe000       .debug$S                   0000000180000000     kernel32:KERNEL32.dll
 0000:fffbe000       .debug$S                   0000000180000000     kernel32:KERNEL32.dll
 0000:fffbe000       .debug$S                   0000000180000000     kernel32:KERNEL32.dll
 0000:fffbe000       .debug$S                   0000000180000000     kernel32:KERNEL32.dll
 0000:fffbe000       .debug$S                   0000000180000000     kernel32:KERNEL32.dll
 0000:fffbe000       .debug$S                   0000000180000000     kernel32:KERNEL32.dll
 0000:fffbe000       .debug$S                   0000000180000000     kernel32:KERNEL32.dll
 0000:fffbe000       .debug$S                   0000000180000000     kernel32:KERNEL32.dll
 0000:fffbe000       .debug$S                   0000000180000000     kernel32:KERNEL32.dll
 0000:fffbe000       .debug$S                   0000000180000000     kernel32:KERNEL32.dll
 0000:fffbe000       .debug$S                   0000000180000000     kernel32:KERNEL32.dll
 0000:fffbe000       .debug$S                   0000000180000000     kernel32:KERNEL32.dll
 0000:fffbe000       .debug$S                   0000000180000000     kernel32:KERNEL32.dll
 0000:fffbe000       .debug$S                   0000000180000000     kernel32:KERNEL32.dll
 0000:fffbe000       .debug$S                   0000000180000000     kernel32:KERNEL32.dll
 0000:fffbe000       .debug$S                   0000000180000000     kernel32:KERNEL32.dll
 0000:fffbe000       .debug$S                   0000000180000000     kernel32:KERNEL32.dll
 0000:fffbe000       .debug$S                   0000000180000000     kernel32:KERNEL32.dll
 0000:fffbe000       .debug$S                   0000000180000000     kernel32:KERNEL32.dll
 0000:fffbe000       .debug$S                   0000000180000000     kernel32:KERNEL32.dll
 0000:fffbe000       .debug$S                   0000000180000000     kernel32:KERNEL32.dll
 0000:fffbe000       .debug$S                   0000000180000000     kernel32:KERNEL32.dll
 0000:fffbe000       .debug$S                   0000000180000000     kernel32:KERNEL32.dll
 0000:fffbe000       .debug$S                   0000000180000000     kernel32:KERNEL32.dll
 0000:fffbe000       .debug$S                   0000000180000000     kernel32:KERNEL32.dll
 0000:fffbe000       .debug$S                   0000000180000000     kernel32:KERNEL32.dll
 0000:fffbe000       .debug$S                   0000000180000000     kernel32:KERNEL32.dll
 0000:fffbe000       .debug$S                   0000000180000000     kernel32:KERNEL32.dll
 0000:fffbe000       .debug$S                   0000000180000000     kernel32:KERNEL32.dll
 0000:fffbe000       .debug$S                   0000000180000000     kernel32:KERNEL32.dll
 0000:fffbe000       .debug$S                   0000000180000000     kernel32:KERNEL32.dll
 0000:fffbe000       .debug$S                   0000000180000000     kernel32:KERNEL32.dll
 0000:fffbe000       .debug$S                   0000000180000000     kernel32:KERNEL32.dll
 0000:fffbe000       .debug$S                   0000000180000000     kernel32:KERNEL32.dll
 0000:fffbe000       .debug$S                   0000000180000000     kernel32:KERNEL32.dll
 0000:fffbe000       .debug$S                   0000000180000000     kernel32:KERNEL32.dll
 0000:fffbe000       .debug$S                   0000000180000000     kernel32:KERNEL32.dll
 0000:fffbe000       .debug$S                   0000000180000000     kernel32:KERNEL32.dll
 0000:fffbe000       .debug$S                   0000000180000000     kernel32:KERNEL32.dll
 0000:fffbe000       .debug$S                   0000000180000000     kernel32:KERNEL32.dll
 0000:fffbe000       .debug$S                   0000000180000000     kernel32:KERNEL32.dll
 0000:fffbe000       .debug$S                   0000000180000000     kernel32:KERNEL32.dll
 0000:fffbe000       .debug$S                   0000000180000000     kernel32:KERNEL32.dll
 0000:fffbe000       .debug$S                   0000000180000000     kernel32:KERNEL32.dll
 0000:fffbe000       .debug$S                   0000000180000000     kernel32:KERNEL32.dll
 0000:fffbe000       .debug$S                   0000000180000000     kernel32:KERNEL32.dll
 0000:fffbe000       .debug$S                   0000000180000000     kernel32:KERNEL32.dll
 0000:fffbe000       .debug$S                   0000000180000000     kernel32:KERNEL32.dll
 0000:fffbe000       .debug$S                   0000000180000000     kernel32:KERNEL32.dll
 0000:fffbe000       .debug$S                   0000000180000000     kernel32:KERNEL32.dll
 0000:fffbe000       .debug$S                   0000000180000000     kernel32:KERNEL32.dll
 0000:fffbe000       .debug$S                   0000000180000000     kernel32:KERNEL32.dll
 0000:fffbe000       .debug$S                   0000000180000000     kernel32:KERNEL32.dll
 0000:fffbe000       .debug$S                   0000000180000000     kernel32:KERNEL32.dll
 0000:fffbe000       .debug$S                   0000000180000000     kernel32:KERNEL32.dll
 0000:fffbe000       .debug$S                   0000000180000000     kernel32:KERNEL32.dll
 0000:fffbe000       .debug$S                   0000000180000000     kernel32:KERNEL32.dll
 0000:fffbe000       .debug$S                   0000000180000000     kernel32:KERNEL32.dll
 0000:fffbe000       .debug$S                   0000000180000000     kernel32:KERNEL32.dll
 0000:fffbe000       .debug$S                   0000000180000000     kernel32:KERNEL32.dll
 0000:fffbe000       .debug$S                   0000000180000000     kernel32:KERNEL32.dll
 0000:fffbe000       .debug$S                   0000000180000000     kernel32:KERNEL32.dll
 0000:fffbe000       .debug$S                   0000000180000000     kernel32:KERNEL32.dll
 0000:fffbe000       .debug$S                   0000000180000000     kernel32:KERNEL32.dll
 0000:fffbe000       .debug$S                   0000000180000000     kernel32:KERNEL32.dll
 0000:fffbe000       .debug$S                   0000000180000000     ole32:ole32.dll
 0000:fffbe000       .debug$S                   0000000180000000     ole32:ole32.dll
 0000:fffbe000       .debug$S                   0000000180000000     ole32:ole32.dll
 0000:fffbe000       .debug$S                   0000000180000000     ole32:ole32.dll
 0000:fffbe000       .debug$S                   0000000180000000     ole32:ole32.dll
 0000:fffbe000       .debug$S                   0000000180000000     ole32:ole32.dll
 0000:fffbe000       .debug$S                   0000000180000000     ole32:ole32.dll
 0000:fffbe000       .debug$S                   0000000180000000     ole32:ole32.dll
 0000:fffbe000       .debug$S                   0000000180000000     ole32:ole32.dll
 0000:fffbe000       .debug$S                   0000000180000000     ole32:ole32.dll
 0000:fffbe000       .debug$S                   0000000180000000     ole32:ole32.dll
 0000:fffbe000       .debug$S                   0000000180000000     ole32:ole32.dll
 0000:fffbe000       .debug$S                   0000000180000000     ole32:ole32.dll
 0000:fffbe000       .debug$S                   0000000180000000     ole32:ole32.dll
 0000:fffbe000       .debug$S                   0000000180000000     oleaut32:OLEAUT32.dll
 0000:fffbe000       .debug$S                   0000000180000000     oleaut32:OLEAUT32.dll
 0000:fffbe000       .debug$S                   0000000180000000     oleaut32:OLEAUT32.dll
 0000:fffbe000       .debug$S                   0000000180000000     oleaut32:OLEAUT32.dll
 0000:fffbe000       .debug$S                   0000000180000000     oleaut32:OLEAUT32.dll
 0000:fffbe000       .debug$S                   0000000180000000     oleaut32:OLEAUT32.dll
 0000:fffbe000       .debug$S                   0000000180000000     oleaut32:OLEAUT32.dll
 0000:fffbe000       .debug$S                   0000000180000000     oleaut32:OLEAUT32.dll
 0000:fffbe000       .debug$S                   0000000180000000     oleaut32:OLEAUT32.dll
 0000:fffbe000       .debug$S                   0000000180000000     oleaut32:OLEAUT32.dll
 0000:fffbe000       .debug$S                   0000000180000000     oleaut32:OLEAUT32.dll
 0000:fffbe000       .debug$S                   0000000180000000     oleaut32:OLEAUT32.dll
 0000:fffbe000       .debug$S                   0000000180000000     oleaut32:OLEAUT32.dll
 0000:fffbe000       .debug$S                   0000000180000000     oleaut32:OLEAUT32.dll
 0000:fffbe000       .debug$S                   0000000180000000     oleaut32:OLEAUT32.dll
 0000:fffbe000       .debug$S                   0000000180000000     oleaut32:OLEAUT32.dll
 0000:fffbe000       .debug$S                   0000000180000000     user32:USER32.dll
 0000:fffbe000       .debug$S                   0000000180000000     user32:USER32.dll
 0000:fffbe000       .debug$S                   0000000180000000     user32:USER32.dll
 0000:fffbe000       .debug$S                   0000000180000000     user32:USER32.dll
 0000:fffbe000       .debug$S                   0000000180000000     user32:USER32.dll
 0000:fffbe000       .debug$S                   0000000180000000     user32:USER32.dll
 0000:fffbe000       .debug$S                   0000000180000000     user32:USER32.dll
 0000:fffbe000       .debug$S                   0000000180000000     user32:USER32.dll
 0000:fffbe000       .debug$S                   0000000180000000     user32:USER32.dll
 0000:fffbe000       .debug$S                   0000000180000000     user32:USER32.dll
 0000:fffbe000       .debug$S                   0000000180000000     user32:USER32.dll
 0000:fffbe000       .debug$S                   0000000180000000     user32:USER32.dll
 0000:fffbe000       .debug$S                   0000000180000000     user32:USER32.dll
 0000:fffbe000       .debug$S                   0000000180000000     user32:USER32.dll
 0000:fffbe000       .debug$S                   0000000180000000     user32:USER32.dll
 0000:fffbe000       .debug$S                   0000000180000000     user32:USER32.dll
 0000:fffbe000       .debug$S                   0000000180000000     user32:USER32.dll
 0000:fffbe000       .debug$S                   0000000180000000     user32:USER32.dll
 0000:fffbe000       .debug$S                   0000000180000000     user32:USER32.dll
 0000:fffbe000       .debug$S                   0000000180000000     user32:USER32.dll
 0000:fffbe000       .debug$S                   0000000180000000     user32:USER32.dll
 0000:fffbe000       .debug$S                   0000000180000000     user32:USER32.dll
 0000:fffbe000       .debug$S                   0000000180000000     user32:USER32.dll
 0000:fffbe000       .debug$S                   0000000180000000     user32:USER32.dll
 0000:fffbe000       .debug$S                   0000000180000000     user32:USER32.dll
 0000:fffbe000       .debug$S                   0000000180000000     user32:USER32.dll
 0000:fffbe000       .debug$S                   0000000180000000     user32:USER32.dll
 0000:fffbe000       .debug$S                   0000000180000000     user32:USER32.dll
 0000:fffbe000       .debug$S                   0000000180000000     user32:USER32.dll
 0000:fffbe000       .debug$S                   0000000180000000     user32:USER32.dll
 0000:fffbe000       .debug$S                   0000000180000000     user32:USER32.dll
 0000:fffbe000       .debug$S                   0000000180000000     user32:USER32.dll
 0000:fffbe000       .debug$S                   0000000180000000     user32:USER32.dll
 0000:fffbe000       .debug$S                   0000000180000000     user32:USER32.dll
 0000:fffbe000       .debug$S                   0000000180000000     user32:USER32.dll
 0001:00000000       ??__E_AtlComModule@ATL@@YAXXZ 0000000180001000 f   OposVariant.obj
 0001:00000020       ??__E_AtlWinModule@ATL@@YAXXZ 0000000180001020 f   OposVariant.obj
 0001:00000040       ??__E?pConnMap@?$IConnectionPointContainerImpl@VCOPOSBumpBar@@@ATL@@0PEBU_ATL_CONNMAP_ENTRY@2@EB@@YAXXZ 0000000180001040 f   BumpBar.obj
 0001:00000058       ??__E_Module@@YAXXZ        0000000180001058 f   BumpBar.obj
 0001:00000094       ??__E_AtlBaseModule@ATL@@YAXXZ 0000000180001094 f   atls:atlbase.obj
 0001:0000e5a0       ?__scrt_initialize_thread_safe_statics@@YAHXZ 000000018000f5a0 f   LIBCMT:thread_safe_statics.obj
 0001:0000e670       ?__scrt_uninitialize_thread_safe_statics@@YAXXZ 000000018000f670 f   LIBCMT:thread_safe_statics.obj
 0001:0000e9c0       capture_current_context    000000018000f9c0 f   LIBCMT:gs_report.obj
 0001:0000ea30       capture_previous_context   000000018000fa30 f   LIBCMT:gs_report.obj
 0001:0000ebd0       $$000000                   000000018000fbd0     LIBCMT:chkstk.obj
 0001:0000ec30       $$000000                   000000018000fc30     LIBCMT:amdsecgs.obj
 0001:0000ec60       ?dllmain_crt_dispatch@@YAHQEAUHINSTANCE__@@KQEAX@Z 000000018000fc60 f   LIBCMT:dll_dllmain.obj
 0001:0000ecb0       ?dllmain_crt_process_attach@@YAHQEAUHINSTANCE__@@QEAX@Z 000000018000fcb0 f   LIBCMT:dll_dllmain.obj
 0001:0000edc8       ?dllmain_crt_process_detach@@YAH_N@Z 000000018000fdc8 f   LIBCMT:dll_dllmain.obj
 0001:0000ee4c       ?dllmain_dispatch@@YAHQEAUHINSTANCE__@@KQEAX@Z 000000018000fe4c f   LIBCMT:dll_dllmain.obj
 0001:0000f718       ??$GetProcAddressAll@P6AP6A_JPEAUHWND__@@I_K_J@ZPEAUAtlThunkData_t@@@Z@@YAP6AP6A_JPEAUHWND__@@I_K_J@ZPEAUAtlThunkData_t@@@ZPEAP6AP6A_J0I12@Z3@Z@Z 0000000180010718 f   atls:atlthunk.obj
 0001:0000f718       ??$GetProcAddressAll@P6APEAUAtlThunkData_t@@XZ@@YAP6APEAUAtlThunkData_t@@XZPEAP6APEAU0@XZ@Z 0000000180010718 f   atls:atlthunk.obj
 0001:0000f718       ??$GetProcAddressAll@P6AXPEAUAtlThunkData_t@@@Z@@YAP6AXPEAUAtlThunkData_t@@@ZPEAP6AX0@Z@Z 0000000180010718 f   atls:atlthunk.obj
 0001:0000f718       ??$GetProcAddressAll@P6AXPEAUAtlThunkData_t@@PEAX_K@Z@@YAP6AXPEAUAtlThunkData_t@@PEAX_K@ZPEAP6AX012@Z@Z 0000000180010718 f   atls:atlthunk.obj
 0001:0000f8f0       ?__InitializeThunkPool@@YAHXZ 00000001800108f0 f   atls:atlthunk.obj
 0001:0000fd90       $$000000                   0000000180010d90     libvcruntime:memcmp.obj
 0001:0000fe70       $$000000                   0000000180010e70     libvcruntime:memcpy.obj
 0001:00010520       $$000000                   0000000180011520     libvcruntime:memset.obj
 0001:00011b30       $$000000                   0000000180012b30     libvcruntime:notify.obj
 0001:00011db0       ??$BuildCatchObjectHelperInternal@V__FrameHandler3@@@@YAHPEAUEHExceptionRecord@@PEAXPEBU_s_HandlerType@@PEBU_s_CatchableType@@@Z 0000000180012db0 f   libvcruntime:frame.obj
 0001:00011fb0       ??$BuildCatchObjectHelperInternal@V__FrameHandler4@@@@YAHPEAUEHExceptionRecord@@PEAXPEAUHandlerType4@FH4@@PEBU_s_CatchableType@@@Z 0000000180012fb0 f   libvcruntime:frame.obj
 0001:000121b4       ??$BuildCatchObjectInternal@V__FrameHandler3@@@@YAXPEAUEHExceptionRecord@@PEAXPEBU_s_HandlerType@@PEBU_s_CatchableType@@@Z 00000001800131b4 f   libvcruntime:frame.obj
 0001:00012274       ??$BuildCatchObjectInternal@V__FrameHandler4@@@@YAXPEAUEHExceptionRecord@@PEAXPEAUHandlerType4@FH4@@PEBU_s_CatchableType@@@Z 0000000180013274 f   libvcruntime:frame.obj
 0001:00012338       ??$CatchIt@V__FrameHandler3@@@@YAXPEAUEHExceptionRecord@@PEA_KPEAU_CONTEXT@@PEAU_xDISPATCHER_CONTEXT@@PEBU_s_FuncInfo@@PEBU_s_HandlerType@@PEBU_s_CatchableType@@PEBU_s_TryBlockMapEntry@@H1EE@Z 0000000180013338 f   libvcruntime:frame.obj
 0001:0001240c       ??$CatchIt@V__FrameHandler4@@@@YAXPEAUEHExceptionRecord@@PEA_KPEAU_CONTEXT@@PEAU_xDISPATCHER_CONTEXT@@PEAUFuncInfo4@FH4@@PEAUHandlerType4@4@PEBU_s_CatchableType@@PEAUTryBlockMapEntry4@4@H1EE@Z 000000018001340c f   libvcruntime:frame.obj
 0001:000124e0       ??$FindHandler@V__FrameHandler3@@@@YAXPEAUEHExceptionRecord@@PEA_KPEAU_CONTEXT@@PEAU_xDISPATCHER_CONTEXT@@PEBU_s_FuncInfo@@EH1@Z 00000001800134e0 f   libvcruntime:frame.obj
 0001:000129b8       ??$FindHandler@V__FrameHandler4@@@@YAXPEAUEHExceptionRecord@@PEA_KPEAU_CONTEXT@@PEAU_xDISPATCHER_CONTEXT@@PEAUFuncInfo4@FH4@@EH1@Z 00000001800139b8 f   libvcruntime:frame.obj
 0001:00012eb4       ??$FindHandlerForForeignException@V__FrameHandler3@@@@YAXPEAUEHExceptionRecord@@PEA_KPEAU_CONTEXT@@PEAU_xDISPATCHER_CONTEXT@@PEBU_s_FuncInfo@@HH1@Z 0000000180013eb4 f   libvcruntime:frame.obj
 0001:000130d0       ??$FindHandlerForForeignException@V__FrameHandler4@@@@YAXPEAUEHExceptionRecord@@PEA_KPEAU_CONTEXT@@PEAU_xDISPATCHER_CONTEXT@@PEAUFuncInfo4@FH4@@HH1@Z 00000001800140d0 f   libvcruntime:frame.obj
 0001:00014290       ?ExFilterRethrow@@YAHPEAU_EXCEPTION_POINTERS@@PEAUEHExceptionRecord@@PEAH@Z 0000000180015290 f   libvcruntime:frame.obj
 0001:00014318       ?ExFilterRethrowFH4@@YAHPEAU_EXCEPTION_POINTERS@@PEAUEHExceptionRecord@@HPEAH@Z 0000000180015318 f   libvcruntime:frame.obj
 0001:00014868       ?IsInExceptionSpec@@YAEPEAUEHExceptionRecord@@PEBU_s_ESTypeList@@@Z 0000000180015868 f   libvcruntime:frame.obj
 0001:00014958       ?Is_bad_exception_allowed@@YAEPEBU_s_ESTypeList@@@Z 0000000180015958 f   libvcruntime:frame.obj
 0001:00014c34       ?try_get_function@@YAPEAXW4function_id@?A0xbc0cc709@@QEBDQEBW4module_id@2@2@Z 0000000180015c34 f   libvcruntime:winapi_downlevel.obj
 0001:00014f20       $$000000                   0000000180015f20     libvcruntime:handlers.obj
 0001:0001594c       ??$common_vsprintf@Vformat_validation_base@__crt_stdio_output@@_W@@YAH_KQEA_W0QEB_WAEAV__crt_cached_ptd_host@@QEAD@Z 000000018001694c f   libucrt:output.obj
 0001:0001809c       ??$?RV<lambda_d80eeec6fff315bfe5c115232f3240e3>@@AEAV<lambda_6e4b09c48022b2350581041d5f6b0c4c>@@V<lambda_2358e3775559c9db80273638284d5e45>@@@?$__crt_seh_guarded_call@X@@QEAAX$$QEAV<lambda_d80eeec6fff315bfe5c115232f3240e3>@@AEAV<lambda_6e4b09c48022b2350581041d5f6b0c4c>@@$$QEAV<lambda_2358e3775559c9db80273638284d5e45>@@@Z 000000018001909c f   libucrt:exit.obj
 0001:000180d4       ??R<lambda_6e4b09c48022b2350581041d5f6b0c4c>@@QEBA@XZ 00000001800190d4 f   libucrt:exit.obj
 0001:000181a0       ?common_exit@@YAXHW4_crt_exit_cleanup_mode@@W4_crt_exit_return_mode@@@Z 00000001800191a0 f   libucrt:exit.obj
 0001:00018268       ?exit_or_terminate_process@@YAXI@Z 0000000180019268 f   libucrt:exit.obj
 0001:0001829c       ?should_call_terminate_process@@YA_NXZ 000000018001929c f   libucrt:exit.obj
 0001:000182cc       ?try_cor_exit_process@@YAXI@Z 00000001800192cc f   libucrt:exit.obj
 0001:00018368       ??$parse_command_line@D@@YAXPEADPEAPEAD0PEA_K2@Z 0000000180019368 f   libucrt:argv_parsing.obj
 0001:00018710       ??$common_initialize_environment_nolock@D@@YAHXZ 0000000180019710 f   libucrt:environment_initialization.obj
 0001:00018784       ??$create_environment@D@@YAQEAPEADQEAD@Z 0000000180019784 f   libucrt:environment_initialization.obj
 0001:00018894       ??$free_environment@D@@YAXQEAPEAD@Z 0000000180019894 f   libucrt:environment_initialization.obj
 0001:00018894       ??$free_environment@_W@@YAXQEAPEA_W@Z 0000000180019894 f   libucrt:environment_initialization.obj
 0001:000188d8       ??$uninitialize_environment_internal@D@@YAXAEAPEAPEAD@Z 00000001800198d8 f   libucrt:environment_initialization.obj
 0001:000188f4       ??$uninitialize_environment_internal@_W@@YAXAEAPEAPEA_W@Z 00000001800198f4 f   libucrt:environment_initialization.obj
 0001:0001895c       ??$?RV<lambda_638799b9deba96c50f710eeac98168cd>@@AEAV<lambda_22ebabd17bc4fa466a2aca6d8deb888d>@@V<lambda_a6f7d7db0129f75315ebf26d50c089f1>@@@?$__crt_seh_guarded_call@H@@QEAAH$$QEAV<lambda_638799b9deba96c50f710eeac98168cd>@@AEAV<lambda_22ebabd17bc4fa466a2aca6d8deb888d>@@$$QEAV<lambda_a6f7d7db0129f75315ebf26d50c089f1>@@@Z 000000018001995c f   libucrt:onexit.obj
 0001:00018998       ??$?RV<lambda_7777bce6b2f8c936911f934f8298dc43>@@AEAV<lambda_f03950bc5685219e0bcd2087efbe011e>@@V<lambda_3883c3dff614d5e0c5f61bb1ac94921c>@@@?$__crt_seh_guarded_call@H@@QEAAH$$QEAV<lambda_7777bce6b2f8c936911f934f8298dc43>@@AEAV<lambda_f03950bc5685219e0bcd2087efbe011e>@@$$QEAV<lambda_3883c3dff614d5e0c5f61bb1ac94921c>@@@Z 0000000180019998 f   libucrt:onexit.obj
 0001:000189d4       ??R<lambda_22ebabd17bc4fa466a2aca6d8deb888d>@@QEBAHXZ 00000001800199d4 f   libucrt:onexit.obj
 0001:00018b84       ??R<lambda_f03950bc5685219e0bcd2087efbe011e>@@QEBAHXZ 0000000180019b84 f   libucrt:onexit.obj
 0001:00018d68       initialize_global_variables 0000000180019d68 f   libucrt:initialization.obj
 0001:00018d7c       initialize_c               0000000180019d7c f   libucrt:initialization.obj
 0001:00018da0       initialize_environment     0000000180019da0 f   libucrt:initialization.obj
 0001:00018da0       initialize_global_state_isolation 0000000180019da0 f   libucrt:initialization.obj
 0001:00018da0       report_memory_leaks        0000000180019da0 f   libucrt:initialization.obj
 0001:00018da0       uninitialize_c             0000000180019da0 f   libucrt:initialization.obj
 0001:00018da0       uninitialize_global_state_isolation 0000000180019da0 f   libucrt:initialization.obj
 0001:00018da4       uninitialize_environment   0000000180019da4 f   libucrt:initialization.obj
 0001:00018db4       initialize_pointers        0000000180019db4 f   libucrt:initialization.obj
 0001:00018df4       uninitialize_vcruntime     0000000180019df4 f   libucrt:initialization.obj
 0001:00018dfc       uninitialize_allocated_memory 0000000180019dfc f   libucrt:initialization.obj
 0001:00018e3c       uninitialize_allocated_io_buffers 0000000180019e3c f   libucrt:initialization.obj
 0001:00019100       $$000000                   000000018001a100     libucrt:strncmp.obj
 0001:000191f8       ??$?RV<lambda_0ae27a3a962d80f24befdcbee591983d>@@AEAV<lambda_8d0ee55de4b1038c4002e0adecdf1839>@@V<lambda_dc504788e8f1664fe9b84e20bfb512f2>@@@?$__crt_seh_guarded_call@X@@QEAAX$$QEAV<lambda_0ae27a3a962d80f24befdcbee591983d>@@AEAV<lambda_8d0ee55de4b1038c4002e0adecdf1839>@@$$QEAV<lambda_dc504788e8f1664fe9b84e20bfb512f2>@@@Z 000000018001a1f8 f   libucrt:per_thread_data.obj
 0001:00019238       ??$?RV<lambda_2d41944a1d46af3157314b8a01080d33>@@AEAV<lambda_8f455de75cd7d7f24b4096f044d8b9e6>@@V<lambda_aa500f224e6afead328df44964fe2772>@@@?$__crt_seh_guarded_call@X@@QEAAX$$QEAV<lambda_2d41944a1d46af3157314b8a01080d33>@@AEAV<lambda_8f455de75cd7d7f24b4096f044d8b9e6>@@$$QEAV<lambda_aa500f224e6afead328df44964fe2772>@@@Z 000000018001a238 f   libucrt:per_thread_data.obj
 0001:00019278       ??$?RV<lambda_aa87e3671a710a21b5dc78c0bdf72e11>@@AEAV<lambda_92619d2358a28f41a33ba319515a20b9>@@V<lambda_6992ecaafeb10aed2b74cb1fae11a551>@@@?$__crt_seh_guarded_call@X@@QEAAX$$QEAV<lambda_aa87e3671a710a21b5dc78c0bdf72e11>@@AEAV<lambda_92619d2358a28f41a33ba319515a20b9>@@$$QEAV<lambda_6992ecaafeb10aed2b74cb1fae11a551>@@@Z 000000018001a278 f   libucrt:per_thread_data.obj
 0001:000192c0       ??$?RV<lambda_f2e299630e499de9f9a165e60fcd3db5>@@AEAV<lambda_2ae9d31cdba2644fcbeaf08da7c24588>@@V<lambda_40d01ff24d0e7b3814fdbdcee8eab3c7>@@@?$__crt_seh_guarded_call@X@@QEAAX$$QEAV<lambda_f2e299630e499de9f9a165e60fcd3db5>@@AEAV<lambda_2ae9d31cdba2644fcbeaf08da7c24588>@@$$QEAV<lambda_40d01ff24d0e7b3814fdbdcee8eab3c7>@@@Z 000000018001a2c0 f   libucrt:per_thread_data.obj
 0001:00019320       ?construct_ptd_array@@YAXQEAU__acrt_ptd@@@Z 000000018001a320 f   libucrt:per_thread_data.obj
 0001:000193f0       ?destroy_fls@@YAXPEAX@Z    000000018001a3f0 f   libucrt:per_thread_data.obj
 0001:00019410       ?destroy_ptd_array@@YAXQEAU__acrt_ptd@@@Z 000000018001a410 f   libucrt:per_thread_data.obj
 0001:00019508       ?replace_current_thread_locale_nolock@@YAXQEAU__acrt_ptd@@QEAU__crt_locale_data@@@Z 000000018001a508 f   libucrt:per_thread_data.obj
 0001:00019914       ??$?RV<lambda_410d79af7f07d98d83a3f525b3859a53>@@AEAV<lambda_3e16ef9562a7dcce91392c22ab16ea36>@@V<lambda_38119f0e861e05405d8a144b9b982f0a>@@@?$__crt_seh_guarded_call@X@@QEAAX$$QEAV<lambda_410d79af7f07d98d83a3f525b3859a53>@@AEAV<lambda_3e16ef9562a7dcce91392c22ab16ea36>@@$$QEAV<lambda_38119f0e861e05405d8a144b9b982f0a>@@@Z 000000018001a914 f   libucrt:wsetlocale.obj
 0001:00019b50       ?try_get_function@@YAPEAXW4function_id@?A0x391cf84c@@QEBDQEBW4module_id@2@2@Z 000000018001ab50 f   libucrt:winapi_thunks.obj
 0001:0001a2ec       ?fp_format_a@@YAHQEBNPEAD_KQEAD2H_NIW4__acrt_rounding_mode@@AEAV__crt_cached_ptd_host@@@Z 000000018001b2ec f   libucrt:cvt.obj
 0001:0001a6a0       ?fp_format_e@@YAHQEBNQEAD_K12H_NIW4__acrt_rounding_mode@@AEAV__crt_cached_ptd_host@@@Z 000000018001b6a0 f   libucrt:cvt.obj
 0001:0001a79c       ?fp_format_e_internal@@YAHQEAD_KH_NIQEAU_strflt@@2AEAV__crt_cached_ptd_host@@@Z 000000018001b79c f   libucrt:cvt.obj
 0001:0001a980       ?fp_format_f@@YAHQEBNQEAD_K12HW4__acrt_rounding_mode@@AEAV__crt_cached_ptd_host@@@Z 000000018001b980 f   libucrt:cvt.obj
 0001:0001aa58       ?fp_format_f_internal@@YAHQEAD_KHQEAU_strflt@@_NAEAV__crt_cached_ptd_host@@@Z 000000018001ba58 f   libucrt:cvt.obj
 0001:0001abb0       ?fp_format_g@@YAHQEBNQEAD_K12H_NIW4__acrt_rounding_mode@@AEAV__crt_cached_ptd_host@@@Z 000000018001bbb0 f   libucrt:cvt.obj
 0001:0001ad04       ?should_round_up@@YA_NQEBN_KFW4__acrt_rounding_mode@@@Z 000000018001bd04 f   libucrt:cvt.obj
 0001:0001b450       ?initialize_inherited_file_handles_nolock@@YAXXZ 000000018001c450 f   libucrt:ioinit.obj
 0001:0001b540       ?initialize_stdio_handles_nolock@@YAXXZ 000000018001c540 f   libucrt:ioinit.obj
 0001:0001b7b8       ?<lambda_invoker_cdecl>@<lambda_a1ce4c8ae42411fd470c77163914f50e>@@CAHPEBX0@Z 000000018001c7b8 f   libucrt:argv_wildcards.obj
 0001:0001bad4       ??$common_expand_argv_wildcards@D@@YAHQEAPEADQEAPEAPEAD@Z 000000018001cad4 f   libucrt:argv_wildcards.obj
 0001:0001bd18       ??$copy_and_add_argument_to_buffer@D@@YAHQEBD0_KAEAV?$argument_list@D@?A0x5f5c8891@@@Z 000000018001cd18 f   libucrt:argv_wildcards.obj
 0001:0001bea0       ??$expand_argument_wildcards@D@@YAHQEAD0AEAV?$argument_list@D@?A0x5f5c8891@@@Z 000000018001cea0 f   libucrt:argv_wildcards.obj
 0001:0001c4d4       ??$?RV<lambda_efdfa57d1f175319df784efa44bb7b81>@@AEAV<lambda_5f0a4c1567f8adc6734073e5d1e1b35c>@@V<lambda_2e8a7d3640ea6ccb4c2413664c2db6fd>@@@?$__crt_seh_guarded_call@X@@QEAAX$$QEAV<lambda_efdfa57d1f175319df784efa44bb7b81>@@AEAV<lambda_5f0a4c1567f8adc6734073e5d1e1b35c>@@$$QEAV<lambda_2e8a7d3640ea6ccb4c2413664c2db6fd>@@@Z 000000018001d4d4 f   libucrt:mbctype.obj
 0001:0001c6a4       ?getSystemCP@@YAHH@Z       000000018001d6a4 f   libucrt:mbctype.obj
 0001:0001c724       ?setSBCS@@YAXPEAU__crt_multibyte_data@@@Z 000000018001d724 f   libucrt:mbctype.obj
 0001:0001c7bc       ?setSBUpLow@@YAXPEAU__crt_multibyte_data@@@Z 000000018001d7bc f   libucrt:mbctype.obj
 0001:0001c9a4       ?setmbcp_internal@@YAHH_NQEAU__acrt_ptd@@QEAPEAU__crt_multibyte_data@@@Z 000000018001d9a4 f   libucrt:mbctype.obj
 0001:0001cc14       ?update_thread_multibyte_data_internal@@YAPEAU__crt_multibyte_data@@QEAU__acrt_ptd@@QEAPEAU1@@Z 000000018001dc14 f   libucrt:mbctype.obj
 0001:0001d008       ?x_ismbbtype_l@@YAHPEAU__crt_locale_pointers@@IHH@Z 000000018001e008 f   libucrt:ismbbyte.obj
 0001:0001d3d8       ??$?RV<lambda_450d765d439847d4c735a33c368b5fc0>@@AEAV<lambda_44731a7d0e6d81c3e6aa82d741081786>@@V<lambda_601a2a7da3b7a96e9554ac7215c4b07c>@@@?$__crt_seh_guarded_call@P6AXH@Z@@QEAAP6AXH@Z$$QEAV<lambda_450d765d439847d4c735a33c368b5fc0>@@AEAV<lambda_44731a7d0e6d81c3e6aa82d741081786>@@$$QEAV<lambda_601a2a7da3b7a96e9554ac7215c4b07c>@@@Z 000000018001e3d8 f   libucrt:signal.obj
 0001:0001d750       ??$?RV<lambda_842d9ff0dc9ef11c61343bbaebe7f885>@@AEAV<lambda_c5860995281e5c4ce005b3de8f5874ee>@@V<lambda_d90129c13df834fdcbf8d2b88dafcf2d>@@@?$__crt_seh_guarded_call@X@@QEAAX$$QEAV<lambda_842d9ff0dc9ef11c61343bbaebe7f885>@@AEAV<lambda_c5860995281e5c4ce005b3de8f5874ee>@@$$QEAV<lambda_d90129c13df834fdcbf8d2b88dafcf2d>@@@Z 000000018001e750 f   libucrt:fflush.obj
 0001:0001d7ec       ??$?RV<lambda_886d6c58226a84441f68b9f2b8217b83>@@AEAV<lambda_ab61a845afdef5b7c387490eaf3616ee>@@V<lambda_f7f22ab5edc0698d5f6905b0d3f44752>@@@?$__crt_seh_guarded_call@X@@QEAAX$$QEAV<lambda_886d6c58226a84441f68b9f2b8217b83>@@AEAV<lambda_ab61a845afdef5b7c387490eaf3616ee>@@$$QEAV<lambda_f7f22ab5edc0698d5f6905b0d3f44752>@@@Z 000000018001e7ec f   libucrt:fflush.obj
 0001:0001d8cc       ?common_flush_all@@YAH_N@Z 000000018001e8cc f   libucrt:fflush.obj
 0001:0001e018       ?free_crt_array_internal@@YAXQEAPEBX_K@Z 000000018001f018 f   libucrt:inittime.obj
 0001:0001fbfc       memcpy_s                   0000000180020bfc f   libucrt:cfout.obj
 0001:00020800       fallbackMethod             0000000180021800 f   libucrt:strpbrk.obj
 0001:00020bac       $LN78                      0000000180021bac     libucrt:strpbrk.obj
 0001:00020be8       $LN77                      0000000180021be8     libucrt:strpbrk.obj
 0001:00020c28       $LN76                      0000000180021c28     libucrt:strpbrk.obj
 0001:00020d04       ?__acrt_LCMapStringA_stat@@YAHPEAU__crt_locale_pointers@@PEB_WKPEBDHPEADHHH@Z 0000000180021d04 f   libucrt:lcmapstringa.obj
 0001:000210bc       ?initialize_multibyte@@YAHXZ 00000001800220bc f   libucrt:multibyte_initializer.obj
 0001:000210d4       ??$?RV<lambda_a37b2b86f63e897a80ea819b0eb08c01>@@AEAV<lambda_38ce7e780aa69e748d6df282ebc68efe>@@V<lambda_99fb1378e971ab6e7edea83e3a7a83a2>@@@?$__crt_seh_guarded_call@H@@QEAAH$$QEAV<lambda_a37b2b86f63e897a80ea819b0eb08c01>@@AEAV<lambda_38ce7e780aa69e748d6df282ebc68efe>@@$$QEAV<lambda_99fb1378e971ab6e7edea83e3a7a83a2>@@@Z 00000001800220d4 f   libucrt:commit.obj
 0001:000211f4       ?write_double_translated_ansi_nolock@@YA?AUwrite_result@?A0x17268360@@HQEBDIAEAV__crt_cached_ptd_host@@@Z 00000001800221f4 f   libucrt:write.obj
 0001:00021680       ?write_text_ansi_nolock@@YA?AUwrite_result@?A0x17268360@@HQEBDI@Z 0000000180022680 f   libucrt:write.obj
 0001:00021784       ?write_text_utf16le_nolock@@YA?AUwrite_result@?A0x17268360@@HQEBDI@Z 0000000180022784 f   libucrt:write.obj
 0001:000218a0       ?write_text_utf8_nolock@@YA?AUwrite_result@?A0x17268360@@HQEBDI@Z 00000001800228a0 f   libucrt:write.obj
 0001:00022080       $$000000                   0000000180023080     libucrt:log10.obj
 0001:00022b1c       ?_fclose_internal@@YAHQEAU_iobuf@@AEAV__crt_cached_ptd_host@@@Z 0000000180023b1c f   libucrt:fclose.obj
 0001:00022b98       ?_fclose_nolock_internal@@YAHQEAU_iobuf@@AEAV__crt_cached_ptd_host@@@Z 0000000180023b98 f   libucrt:fclose.obj
 0001:00022cd4       ??$common_lseek_nolock@_J@@YA_JH_JHAEAV__crt_cached_ptd_host@@@Z 0000000180023cd4 f   libucrt:lseek.obj
 0001:00022e5c       common_control87           0000000180023e5c f   libucrt:ieee.obj
 0001:0002311c       _call_matherr              000000018002411c f   libucrt:libm_error.obj
 0001:00023184       _exception_enabled         0000000180024184 f   libucrt:libm_error.obj
 0001:00023420       _log_special_common        0000000180024420 f   libucrt:log_special.obj
 0001:000234b8       ??$?RV<lambda_ad8af0d99a0adf03d037d7dffe354bb5>@@AEAV<lambda_c9ba49e555ba839a7b07aa3fbecb7617>@@V<lambda_2f1ebd5d68526518146ae959c9e734c8>@@@?$__crt_seh_guarded_call@H@@QEAAH$$QEAV<lambda_ad8af0d99a0adf03d037d7dffe354bb5>@@AEAV<lambda_c9ba49e555ba839a7b07aa3fbecb7617>@@$$QEAV<lambda_2f1ebd5d68526518146ae959c9e734c8>@@@Z 00000001800244b8 f   libucrt:close.obj
 0001:00023810       $$000000                   0000000180024810     libucrt:fpsr.obj
 0001:00023f90       $$000000                   0000000180024f90     LIBCMT:guard_dispatch.obj
 0001:00023fb0       $$000000                   0000000180024fb0     LIBCMT:guard_xfg_dispatch.obj
 0001:00023fd0       ?filt$0@?0??_AtlVerifyStackAvailable@_ATL_SAFE_ALLOCA_IMPL@ATL@@YA_N_K@Z@4HA 0000000180024fd0 f   BumpBar.obj
 0001:00023ff1       __scrt_is_nonwritable_in_current_image$filt$0 0000000180024ff1 f   LIBCMT:utility.obj
 0001:00024009       ?catch$0@?0???2@YAPEAX_KAEBUnothrow_t@std@@@Z@4HA 0000000180025009 f   LIBCMT:new_scalar_nothrow.obj
 0001:00024016       __catch$??2@YAPEAX_KAEBUnothrow_t@std@@@Z$0 0000000180025016 f   LIBCMT:new_scalar_nothrow.obj
 0001:00024027       ?fin$0@?0??dllmain_crt_process_attach@@YAHQEAUHINSTANCE__@@QEAX@Z@4HA 0000000180025027 f   LIBCMT:dll_dllmain.obj
 0001:0002403e       ?fin$0@?0??dllmain_crt_process_detach@@YAH_N@Z@4HA 000000018002503e f   LIBCMT:dll_dllmain.obj
 0001:00024057       ?fin$1@?0??dllmain_crt_process_detach@@YAH_N@Z@4HA 0000000180025057 f   LIBCMT:dll_dllmain.obj
 0001:0002406b       ?filt$0@?0??dllmain_dispatch@@YAHQEAUHINSTANCE__@@KQEAX@Z@4HA 000000018002506b f   LIBCMT:dll_dllmain.obj
 0001:000240a1       ?filt$0@?0???$_CallSETranslator@V__FrameHandler3@@@@YAHPEAUEHExceptionRecord@@PEA_KPEAU_CONTEXT@@PEAU_xDISPATCHER_CONTEXT@@PEBU_s_FuncInfo@@K1H@Z@4HA 00000001800250a1 f   libvcruntime:risctrnsctrl.obj
 0001:00024132       ?filt$0@?0???$_CallSETranslator@V__FrameHandler4@@@@YAHPEAUEHExceptionRecord@@PEA_KPEAU_CONTEXT@@PEAU_xDISPATCHER_CONTEXT@@PEAUFuncInfo4@FH4@@K1H@Z@4HA 0000000180025132 f   libvcruntime:risctrnsctrl.obj
 0001:000241d1       __DestructExceptionObject$filt$0 00000001800251d1 f   libvcruntime:ehhelpers.obj
 0001:00024267       ?filt$0@?0??CxxCallCatchBlock@__FrameHandler3@@SAPEAXPEAU_EXCEPTION_RECORD@@@Z@4HA 0000000180025267 f   libvcruntime:frame.obj
 0001:0002428c       ?fin$1@?0??CxxCallCatchBlock@__FrameHandler3@@SAPEAXPEAU_EXCEPTION_RECORD@@@Z@4HA 000000018002528c f   libvcruntime:frame.obj
 0001:00024312       ?filt$0@?0??CxxCallCatchBlock@__FrameHandler4@@SAPEAXPEAU_EXCEPTION_RECORD@@@Z@4HA 0000000180025312 f   libvcruntime:frame.obj
 0001:00024341       ?fin$1@?0??CxxCallCatchBlock@__FrameHandler4@@SAPEAXPEAU_EXCEPTION_RECORD@@@Z@4HA 0000000180025341 f   libvcruntime:frame.obj
 0001:000243d2       ?filt$0@?0??FrameUnwindToState@__FrameHandler3@@SAXPEA_KPEAU_xDISPATCHER_CONTEXT@@PEBU_s_FuncInfo@@H@Z@4HA 00000001800253d2 f   libvcruntime:frame.obj
 0001:000243e8       ?fin$1@?0??FrameUnwindToState@__FrameHandler3@@SAXPEA_KPEAU_xDISPATCHER_CONTEXT@@PEBU_s_FuncInfo@@H@Z@4HA 00000001800253e8 f   libvcruntime:frame.obj
 0001:0002440b       ?filt$0@?0??FrameUnwindToState@__FrameHandler4@@SAXPEA_KPEAU_xDISPATCHER_CONTEXT@@PEAUFuncInfo4@FH4@@H@Z@4HA 000000018002540b f   libvcruntime:frame.obj
 0001:00024421       ?fin$1@?0??FrameUnwindToState@__FrameHandler4@@SAXPEA_KPEAU_xDISPATCHER_CONTEXT@@PEAUFuncInfo4@FH4@@H@Z@4HA 0000000180025421 f   libvcruntime:frame.obj
 0001:00024444       ?fin$0@?0???$?RV<lambda_0ae27a3a962d80f24befdcbee591983d>@@AEAV<lambda_8d0ee55de4b1038c4002e0adecdf1839>@@V<lambda_dc504788e8f1664fe9b84e20bfb512f2>@@@?$__crt_seh_guarded_call@X@@QEAAX$$QEAV<lambda_0ae27a3a962d80f24befdcbee591983d>@@AEAV<lambda_8d0ee55de4b1038c4002e0adecdf1839>@@$$QEAV<lambda_dc504788e8f1664fe9b84e20bfb512f2>@@@Z@4HA 0000000180025444 f   libucrt:per_thread_data.obj
 0001:00024444       ?fin$0@?0???$?RV<lambda_2d41944a1d46af3157314b8a01080d33>@@AEAV<lambda_8f455de75cd7d7f24b4096f044d8b9e6>@@V<lambda_aa500f224e6afead328df44964fe2772>@@@?$__crt_seh_guarded_call@X@@QEAAX$$QEAV<lambda_2d41944a1d46af3157314b8a01080d33>@@AEAV<lambda_8f455de75cd7d7f24b4096f044d8b9e6>@@$$QEAV<lambda_aa500f224e6afead328df44964fe2772>@@@Z@4HA 0000000180025444 f   libucrt:per_thread_data.obj
 0001:00024444       ?fin$0@?0???$?RV<lambda_aa87e3671a710a21b5dc78c0bdf72e11>@@AEAV<lambda_92619d2358a28f41a33ba319515a20b9>@@V<lambda_6992ecaafeb10aed2b74cb1fae11a551>@@@?$__crt_seh_guarded_call@X@@QEAAX$$QEAV<lambda_aa87e3671a710a21b5dc78c0bdf72e11>@@AEAV<lambda_92619d2358a28f41a33ba319515a20b9>@@$$QEAV<lambda_6992ecaafeb10aed2b74cb1fae11a551>@@@Z@4HA 0000000180025444 f   libucrt:per_thread_data.obj
 0001:00024444       ?fin$0@?0???$?RV<lambda_f2e299630e499de9f9a165e60fcd3db5>@@AEAV<lambda_2ae9d31cdba2644fcbeaf08da7c24588>@@V<lambda_40d01ff24d0e7b3814fdbdcee8eab3c7>@@@?$__crt_seh_guarded_call@X@@QEAAX$$QEAV<lambda_f2e299630e499de9f9a165e60fcd3db5>@@AEAV<lambda_2ae9d31cdba2644fcbeaf08da7c24588>@@$$QEAV<lambda_40d01ff24d0e7b3814fdbdcee8eab3c7>@@@Z@4HA 0000000180025444 f   libucrt:per_thread_data.obj
 0001:00024444       ?fin$0@?0???$?RV<lambda_450d765d439847d4c735a33c368b5fc0>@@AEAV<lambda_44731a7d0e6d81c3e6aa82d741081786>@@V<lambda_601a2a7da3b7a96e9554ac7215c4b07c>@@@?$__crt_seh_guarded_call@P6AXH@Z@@QEAAP6AXH@Z$$QEAV<lambda_450d765d439847d4c735a33c368b5fc0>@@AEAV<lambda_44731a7d0e6d81c3e6aa82d741081786>@@$$QEAV<lambda_601a2a7da3b7a96e9554ac7215c4b07c>@@@Z@4HA 0000000180025444 f   libucrt:signal.obj
 0001:00024444       ?fin$0@?0???$?RV<lambda_d80eeec6fff315bfe5c115232f3240e3>@@AEAV<lambda_6e4b09c48022b2350581041d5f6b0c4c>@@V<lambda_2358e3775559c9db80273638284d5e45>@@@?$__crt_seh_guarded_call@X@@QEAAX$$QEAV<lambda_d80eeec6fff315bfe5c115232f3240e3>@@AEAV<lambda_6e4b09c48022b2350581041d5f6b0c4c>@@$$QEAV<lambda_2358e3775559c9db80273638284d5e45>@@@Z@4HA 0000000180025444 f   libucrt:exit.obj
 0001:00024444       ?fin$0@?0???$?RV<lambda_638799b9deba96c50f710eeac98168cd>@@AEAV<lambda_22ebabd17bc4fa466a2aca6d8deb888d>@@V<lambda_a6f7d7db0129f75315ebf26d50c089f1>@@@?$__crt_seh_guarded_call@H@@QEAAH$$QEAV<lambda_638799b9deba96c50f710eeac98168cd>@@AEAV<lambda_22ebabd17bc4fa466a2aca6d8deb888d>@@$$QEAV<lambda_a6f7d7db0129f75315ebf26d50c089f1>@@@Z@4HA 0000000180025444 f   libucrt:onexit.obj
 0001:00024444       ?fin$0@?0???$?RV<lambda_7777bce6b2f8c936911f934f8298dc43>@@AEAV<lambda_f03950bc5685219e0bcd2087efbe011e>@@V<lambda_3883c3dff614d5e0c5f61bb1ac94921c>@@@?$__crt_seh_guarded_call@H@@QEAAH$$QEAV<lambda_7777bce6b2f8c936911f934f8298dc43>@@AEAV<lambda_f03950bc5685219e0bcd2087efbe011e>@@$$QEAV<lambda_3883c3dff614d5e0c5f61bb1ac94921c>@@@Z@4HA 0000000180025444 f   libucrt:onexit.obj
 0001:0002445e       ?filt$0@?0???R<lambda_6e4b09c48022b2350581041d5f6b0c4c>@@QEBA@XZ@4HA 000000018002545e f   libucrt:exit.obj
 0001:0002448b       _query_new_handler$fin$0   000000018002548b f   libucrt:new_handler.obj
 0001:000244a1       ?fin$0@?0???$?RV<lambda_410d79af7f07d98d83a3f525b3859a53>@@AEAV<lambda_3e16ef9562a7dcce91392c22ab16ea36>@@V<lambda_38119f0e861e05405d8a144b9b982f0a>@@@?$__crt_seh_guarded_call@X@@QEAAX$$QEAV<lambda_410d79af7f07d98d83a3f525b3859a53>@@AEAV<lambda_3e16ef9562a7dcce91392c22ab16ea36>@@$$QEAV<lambda_38119f0e861e05405d8a144b9b982f0a>@@@Z@4HA 00000001800254a1 f   libucrt:wsetlocale.obj
 0001:000244bb       __acrt_initialize_lowio$fin$0 00000001800254bb f   libucrt:ioinit.obj
 0001:000244bb       __acrt_lowio_ensure_fh_exists$fin$0 00000001800254bb f   libucrt:osfinfo.obj
 0001:000244d4       ?fin$0@?0???$?RV<lambda_efdfa57d1f175319df784efa44bb7b81>@@AEAV<lambda_5f0a4c1567f8adc6734073e5d1e1b35c>@@V<lambda_2e8a7d3640ea6ccb4c2413664c2db6fd>@@@?$__crt_seh_guarded_call@X@@QEAAX$$QEAV<lambda_efdfa57d1f175319df784efa44bb7b81>@@AEAV<lambda_5f0a4c1567f8adc6734073e5d1e1b35c>@@$$QEAV<lambda_2e8a7d3640ea6ccb4c2413664c2db6fd>@@@Z@4HA 00000001800254d4 f   libucrt:mbctype.obj
 0001:000244ee       ?fin$0@?0??update_thread_multibyte_data_internal@@YAPEAU__crt_multibyte_data@@QEAU__acrt_ptd@@QEAPEAU1@@Z@4HA 00000001800254ee f   libucrt:mbctype.obj
 0001:00024507       raise$fin$0                0000000180025507 f   libucrt:signal.obj
 0001:00024528       ?fin$0@?0???$?RV<lambda_842d9ff0dc9ef11c61343bbaebe7f885>@@AEAV<lambda_c5860995281e5c4ce005b3de8f5874ee>@@V<lambda_d90129c13df834fdcbf8d2b88dafcf2d>@@@?$__crt_seh_guarded_call@X@@QEAAX$$QEAV<lambda_842d9ff0dc9ef11c61343bbaebe7f885>@@AEAV<lambda_c5860995281e5c4ce005b3de8f5874ee>@@$$QEAV<lambda_d90129c13df834fdcbf8d2b88dafcf2d>@@@Z@4HA 0000000180025528 f   libucrt:fflush.obj
 0001:00024543       ?fin$0@?0???$?RV<lambda_886d6c58226a84441f68b9f2b8217b83>@@AEAV<lambda_ab61a845afdef5b7c387490eaf3616ee>@@V<lambda_f7f22ab5edc0698d5f6905b0d3f44752>@@@?$__crt_seh_guarded_call@X@@QEAAX$$QEAV<lambda_886d6c58226a84441f68b9f2b8217b83>@@AEAV<lambda_ab61a845afdef5b7c387490eaf3616ee>@@$$QEAV<lambda_f7f22ab5edc0698d5f6905b0d3f44752>@@@Z@4HA 0000000180025543 f   libucrt:fflush.obj
 0001:00024560       __acrt_update_thread_locale_data$fin$0 0000000180025560 f   libucrt:locale_refcounting.obj
 0001:00024579       _fcloseall$fin$0           0000000180025579 f   libucrt:closeall.obj
 0001:00024592       ?fin$0@?0???$?RV<lambda_ad8af0d99a0adf03d037d7dffe354bb5>@@AEAV<lambda_c9ba49e555ba839a7b07aa3fbecb7617>@@V<lambda_2f1ebd5d68526518146ae959c9e734c8>@@@?$__crt_seh_guarded_call@H@@QEAAH$$QEAV<lambda_ad8af0d99a0adf03d037d7dffe354bb5>@@AEAV<lambda_c9ba49e555ba839a7b07aa3fbecb7617>@@$$QEAV<lambda_2f1ebd5d68526518146ae959c9e734c8>@@@Z@4HA 0000000180025592 f   libucrt:close.obj
 0001:00024592       ?fin$0@?0???$?RV<lambda_a37b2b86f63e897a80ea819b0eb08c01>@@AEAV<lambda_38ce7e780aa69e748d6df282ebc68efe>@@V<lambda_99fb1378e971ab6e7edea83e3a7a83a2>@@@?$__crt_seh_guarded_call@H@@QEAAH$$QEAV<lambda_a37b2b86f63e897a80ea819b0eb08c01>@@AEAV<lambda_38ce7e780aa69e748d6df282ebc68efe>@@$$QEAV<lambda_99fb1378e971ab6e7edea83e3a7a83a2>@@@Z@4HA 0000000180025592 f   libucrt:commit.obj
 0001:000245ac       _write_internal$fin$0      00000001800255ac f   libucrt:write.obj
 0001:000245c3       ?fin$0@?0??_fclose_internal@@YAHQEAU_iobuf@@AEAV__crt_cached_ptd_host@@@Z@4HA 00000001800255c3 f   libucrt:fclose.obj
 0001:000245db       _ctrlfp$filt$0             00000001800255db f   libucrt:fpctrl.obj
 0001:000245db       common_control87$filt$0    00000001800255db f   libucrt:ieee.obj
 0001:00024610       _IsNonwritableInCurrentImage$filt$0 0000000180025610 f   LIBCMT:pesect.obj
 0001:00024630       ??__F_AtlComModule@ATL@@YAXXZ 0000000180025630 f   OposVariant.obj
 0001:0002463c       ??__F_AtlWinModule@ATL@@YAXXZ 000000018002563c f   OposVariant.obj
 0001:00024680       ??__F_Module@@YAXXZ        0000000180025680 f   BumpBar.obj
 0001:0002469c       ??__F_AtlBaseModule@ATL@@YAXXZ 000000018002569c f   atls:atlbase.obj
 0002:00000670       ?_AtlBaseModule$initializer$@ATL@@3P6AXXZEA 0000000180026670     atls:atlbase.obj
 0002:00000678       ?_AtlComModule$initializer$@ATL@@3P6AXXZEA 0000000180026678     OposVariant.obj
 0002:00000680       ?_AtlWinModule$initializer$@ATL@@3P6AXXZEA 0000000180026680     OposVariant.obj
 0002:00000688       ?_Module$initializer$@@3P6AXXZEA 0000000180026688     BumpBar.obj
 0002:00000690       ??pConnMap$initializer$@?$IConnectionPointContainerImpl@VCOPOSBumpBar@@@ATL@@0P6AXXZEA@@3P6AXXZEA 0000000180026690     BumpBar.obj
 0002:000006a8       ?__scrt_initialize_tss_var@@3P6AHXZEA 00000001800266a8     LIBCMT:thread_safe_statics.obj
 0002:00002788       GS_ExceptionPointers       0000000180028788     LIBCMT:gs_report.obj
 0002:00002970       ?ExceptionTemplate@?1??UnwindNestedFrames@__FrameHandler4@@SAXPEA_KPEAUEHExceptionRecord@@PEAU_CONTEXT@@0PEAXPEAUFuncInfo4@FH4@@HHPEAUHandlerType4@6@PEAU_xDISPATCHER_CONTEXT@@E@Z@4U_EXCEPTION_RECORD@@B 0000000180028970     libvcruntime:risctrnsctrl.obj
 0002:00002a10       ?ExceptionTemplate@?1??UnwindNestedFrames@__FrameHandler3@@SAXPEA_KPEAUEHExceptionRecord@@PEAU_CONTEXT@@0PEAXPEBU_s_FuncInfo@@HHPEBU_s_HandlerType@@PEAU_xDISPATCHER_CONTEXT@@E@Z@4U_EXCEPTION_RECORD@@B 0000000180028a10     libvcruntime:risctrnsctrl.obj
 0002:00002ae0       ?tokenTable@@3QBUStringLiteral@@B 0000000180028ae0     libvcruntime:undname.obj
 0002:00002bf0       ?nameTable@@3QBUStringLiteral@@B 0000000180028bf0     libvcruntime:undname.obj
 0002:00003120       ?rttiTable@@3QBUStringLiteral@@B 0000000180029120     libvcruntime:undname.obj
 0002:00003170       ?IndirectionName@@3QBUStringLiteral@@B 0000000180029170     libvcruntime:undname.obj
 0002:000031d0       ?PrefixName@@3QBUStringLiteral@@B 00000001800291d0     libvcruntime:undname.obj
 0002:000038b8       ?module_names@?A0xbc0cc709@@3QBQEB_WB 00000001800298b8     libvcruntime:winapi_downlevel.obj
 0002:00003978       ?candidate_modules@?1??try_get_FlsAlloc@@YAP6AKP6AXPEAX@Z@ZXZ@4QBW4module_id@?A0xbc0cc709@@B 0000000180029978     libvcruntime:winapi_downlevel.obj
 0002:00003990       ?candidate_modules@?1??try_get_FlsFree@@YAP6AHK@ZXZ@4QBW4module_id@?A0xbc0cc709@@B 0000000180029990     libvcruntime:winapi_downlevel.obj
 0002:000039a0       ?candidate_modules@?1??try_get_FlsGetValue@@YAP6APEAXK@ZXZ@4QBW4module_id@?A0xbc0cc709@@B 00000001800299a0     libvcruntime:winapi_downlevel.obj
 0002:000039b8       ?candidate_modules@?1??try_get_FlsSetValue@@YAP6AHKPEAX@ZXZ@4QBW4module_id@?A0xbc0cc709@@B 00000001800299b8     libvcruntime:winapi_downlevel.obj
 0002:000039d0       ?candidate_modules@?1??try_get_InitializeCriticalSectionEx@@YAP6AHPEAU_RTL_CRITICAL_SECTION@@KK@ZXZ@4QBW4module_id@?A0xbc0cc709@@B 00000001800299d0     libvcruntime:winapi_downlevel.obj
 0002:00003a00       ?errtable@@3QBUerrentry@?A0x31fdb9ec@@B 0000000180029a00     libucrt:errno.obj
 0002:00003d68       $cppxdata$?try_cor_exit_process@@YAXI@Z 0000000180029d68     libucrt:exit.obj
 0002:00003d90       $cppxdata$?common_exit@@YAXHW4_crt_exit_cleanup_mode@@W4_crt_exit_return_mode@@@Z 0000000180029d90     libucrt:exit.obj
 0002:00003de0       $cppxdata$__dcrt_uninitialize_environments_nolock 0000000180029de0     libucrt:environment_initialization.obj
 0002:00003e08       $cppxdata$_execute_onexit_table 0000000180029e08     libucrt:onexit.obj
 0002:00003e30       __acrt_initializers        0000000180029e30     libucrt:initialization.obj
 0002:000045b0       ?module_names@?A0x391cf84c@@3QBQEB_WB 000000018002a5b0     libucrt:winapi_thunks.obj
 0002:00004ab8       ?candidate_modules@?1??try_get_AreFileApisANSI@@YAP6AHXZXZ@4QBW4module_id@?A0x391cf84c@@B 000000018002aab8     libucrt:winapi_thunks.obj
 0002:00004ad0       ?candidate_modules@?1??try_get_InitializeCriticalSectionEx@@YAP6AHPEAU_RTL_CRITICAL_SECTION@@KK@ZXZ@4QBW4module_id@?A0x391cf84c@@B 000000018002aad0     libucrt:winapi_thunks.obj
 0002:00004ad8       ?candidate_modules@?1??try_get_LCMapStringEx@@YAP6AHPEB_WK0HPEA_WHPEAU_nlsversioninfo@@PEAX_J@ZXZ@4QBW4module_id@?A0x391cf84c@@B 000000018002aad8     libucrt:winapi_thunks.obj
 0002:00004af0       ?candidate_modules@?1??try_get_LocaleNameToLCID@@YAP6AKPEB_WK@ZXZ@4QBW4module_id@?A0x391cf84c@@B 000000018002aaf0     libucrt:winapi_thunks.obj
 0002:00004b0c       ?candidate_modules@?1??try_get_AppPolicyGetProcessTerminationMethod@@YAP6AJPEAXPEAW4AppPolicyProcessTerminationMethod@@@ZXZ@4QBW4module_id@?A0x391cf84c@@B 000000018002ab0c     libucrt:winapi_thunks.obj
 0002:00004b38       ?candidate_modules@?1??try_get_SetThreadStackGuarantee@@YAP6AHPEAK@ZXZ@4QBW4module_id@?A0x391cf84c@@B 000000018002ab38     libucrt:winapi_thunks.obj
 0002:00004b60       ?strings@?1??fp_format_nan_or_infinity@@YAHW4__acrt_fp_class@@_NPEAD_K1@Z@4QAY03QEBDA 000000018002ab60     libucrt:cvt.obj
 0002:00004c38       ?_mb_locale_names@@3QBQEB_WB 000000018002ac38     libucrt:mbctype.obj
 0002:000052b0       ?LcidToLocaleNameTable@?A0x881e4c05@@3QBULcidToLocaleName@1@B 000000018002b2b0     libucrt:lcidtoname_downlevel.obj
 0002:00006d00       ?LocaleNameToIndexTable@?A0x881e4c05@@3QBULocaleNameIndex@1@B 000000018002cd00     libucrt:lcidtoname_downlevel.obj
 0002:00008f90       $cppxdata$?write_double_translated_ansi_nolock@@YA?AUwrite_result@?A0x17268360@@HQEBDIAEAV__crt_cached_ptd_host@@@Z 000000018002ef90     libucrt:write.obj
 0002:00008fc0       __real_ninf                000000018002efc0     libucrt:log10.obj
 0002:00008fd0       __real_inf                 000000018002efd0     libucrt:log10.obj
 0002:00008fe0       __real_neg_qnan            000000018002efe0     libucrt:log10.obj
 0002:00008ff0       __real_qnanbit             000000018002eff0     libucrt:log10.obj
 0002:00009000       __int_1023                 000000018002f000     libucrt:log10.obj
 0002:00009010       __mask_001                 000000018002f010     libucrt:log10.obj
 0002:00009020       __mask_mant                000000018002f020     libucrt:log10.obj
 0002:00009030       __mask_mant_top8           000000018002f030     libucrt:log10.obj
 0002:00009040       __mask_mant9               000000018002f040     libucrt:log10.obj
 0002:00009050       __real_log10_e             000000018002f050     libucrt:log10.obj
 0002:00009060       __real_log10_e_lead        000000018002f060     libucrt:log10.obj
 0002:00009070       __real_log10_e_tail        000000018002f070     libucrt:log10.obj
 0002:00009080       __real_log10_2_lead        000000018002f080     libucrt:log10.obj
 0002:00009090       __real_log10_2_tail        000000018002f090     libucrt:log10.obj
 0002:000090a0       __real_two                 000000018002f0a0     libucrt:log10.obj
 0002:000090b0       __real_one                 000000018002f0b0     libucrt:log10.obj
 0002:000090c0       __real_half                000000018002f0c0     libucrt:log10.obj
 0002:000090d0       __mask_100                 000000018002f0d0     libucrt:log10.obj
 0002:000090e0       __real_1_over_512          000000018002f0e0     libucrt:log10.obj
 0002:000090f0       __real_1_over_2            000000018002f0f0     libucrt:log10.obj
 0002:00009100       __real_1_over_3            000000018002f100     libucrt:log10.obj
 0002:00009110       __real_1_over_4            000000018002f110     libucrt:log10.obj
 0002:00009120       __real_1_over_5            000000018002f120     libucrt:log10.obj
 0002:00009130       __real_1_over_6            000000018002f130     libucrt:log10.obj
 0002:00009140       __real_neg_1023            000000018002f140     libucrt:log10.obj
 0002:00009150       __mask_2045                000000018002f150     libucrt:log10.obj
 0002:00009160       __real_threshold           000000018002f160     libucrt:log10.obj
 0002:00009170       __real_near_one_lt         000000018002f170     libucrt:log10.obj
 0002:00009180       __real_near_one_gt         000000018002f180     libucrt:log10.obj
 0002:00009190       __real_min_norm            000000018002f190     libucrt:log10.obj
 0002:000091a0       __real_notsign             000000018002f1a0     libucrt:log10.obj
 0002:000091b0       __real_ca1                 000000018002f1b0     libucrt:log10.obj
 0002:000091c0       __real_ca2                 000000018002f1c0     libucrt:log10.obj
 0002:000091d0       __real_ca3                 000000018002f1d0     libucrt:log10.obj
 0002:000091e0       __real_ca4                 000000018002f1e0     libucrt:log10.obj
 0002:000091f0       __mask_lower               000000018002f1f0     libucrt:log10.obj
 0002:00009200       __flag_x_zero              000000018002f200     libucrt:log10.obj
 0002:00009204       __flag_x_neg               000000018002f204     libucrt:log10.obj
 0002:00009208       __flag_x_nan               000000018002f208     libucrt:log10.obj
 0002:0000aa60       __real@433fffffffffffff    0000000180030a60     libucrt:fpsr.obj
 0002:0000aa68       __real@c33fffffffffffff    0000000180030a68     libucrt:fpsr.obj
 0002:0000b3c8       $unwind$?cw_memcpy@@YAHPEA_WPEBDH@Z 00000001800313c8     CWString.obj
 0002:0000b3c8       $unwind$_invalid_parameter_noinfo 00000001800313c8     libucrt:invalid_parameter.obj
 0002:0000b3c8       $unwind$?state_case_size@?$output_processor@_WV?$string_output_adapter@_W@__crt_stdio_output@@V?$format_validation_base@_WV?$string_output_adapter@_W@__crt_stdio_output@@@2@@__crt_stdio_output@@AEAA_NXZ 00000001800313c8     libucrt:output.obj
 0002:0000b3c8       $unwind$_log10_special     00000001800313c8     libucrt:log_special.obj
 0002:0000b3d0       $unwind$??__E?pConnMap@?$IConnectionPointContainerImpl@VCOPOSBumpBar@@@ATL@@0PEBU_ATL_CONNMAP_ENTRY@2@EB@@YAXXZ 00000001800313d0     BumpBar.obj
 0002:0000b3d0       $unwind$?AddReplacement@CRegObject@ATL@@UEAAJPEB_W0@Z 00000001800313d0     BumpBar.obj
 0002:0000b3d0       $unwind$?AtlHresultFromLastError@ATL@@YAJXZ 00000001800313d0     BumpBar.obj
 0002:0000b3d0       $unwind$?AtlThrowImpl@ATL@@YAXJ@Z 00000001800313d0     BumpBar.obj
 0002:0000b3d0       $unwind$?CreateInstance@CComClassFactory@ATL@@UEAAJPEAUIUnknown@@AEBU_GUID@@PEAPEAX@Z 00000001800313d0     BumpBar.obj
 0002:0000b3d0       $unwind$?DefaultReflectionHandler@?$CWindowImplRoot@VCWindow@ATL@@@ATL@@SAHPEAUHWND__@@I_K_JAEA_J@Z 00000001800313d0     BumpBar.obj
 0002:0000b3d0       $unwind$?EnumAdvise@?$IOleObjectImpl@VCOPOSBumpBar@@@ATL@@UEAAJPEAPEAUIEnumSTATDATA@@@Z 00000001800313d0     BumpBar.obj
 0002:0000b3d0       $unwind$?FireViewChange@CComControlBase@ATL@@QEAAJXZ 00000001800313d0     BumpBar.obj
 0002:0000b3d0       $unwind$?GetAdvise@?$IViewObjectExImpl@VCOPOSBumpBar@@@ATL@@UEAAJPEAK0PEAPEAUIAdviseSink@@@Z 00000001800313d0     BumpBar.obj
 0002:0000b3d0       $unwind$?LockServer@CComClassFactory@ATL@@UEAAJH@Z 00000001800313d0     BumpBar.obj
 0002:0000b3d0       $unwind$?OnDocWindowActivate@?$IOleInPlaceActiveObjectImpl@VCOPOSBumpBar@@@ATL@@UEAAJH@Z 00000001800313d0     BumpBar.obj
 0002:0000b3d0       $unwind$?Unadvise@?$IOleObjectImpl@VCOPOSBumpBar@@@ATL@@UEAAJK@Z 00000001800313d0     BumpBar.obj
 0002:0000b3d0       $unwind$?_LocCPQueryInterface@?$IConnectionPointImpl@VCOPOSBumpBar@@$1?DIID__IOPOSBumpBarEvents@@3U_GUID@@BVCComDynamicUnkArray@ATL@@@ATL@@UEAAJAEBU_GUID@@PEAPEAX@Z 00000001800313d0     BumpBar.obj
 0002:0000b3d0       $unwind$?_LocCPQueryInterface@?$IConnectionPointImpl@VCOPOSBumpBar@@$1?IID_IPropertyNotifySink@@3U_GUID@@BVCComDynamicUnkArray@ATL@@@ATL@@UEAAJAEBU_GUID@@PEAPEAX@Z 00000001800313d0     BumpBar.obj
 0002:0000b3d0       $unwind$?FinalConstruct@COPOSBumpBar@@QEAAJXZ 00000001800313d0     BumpBarImpl.obj
 0002:0000b3d0       $unwind$?get_ResultCode@COPOSBumpBar@@UEAAJPEAJ@Z 00000001800313d0     BumpBarImpl.obj
 0002:0000b3d0       $unwind$?get_State@COPOSBumpBar@@UEAAJPEAJ@Z 00000001800313d0     BumpBarImpl.obj
 0002:0000b3d0       $unwind$?cw_strcpy@@YAHPEA_WPEBD@Z 00000001800313d0     CWString.obj
 0002:0000b3d0       $unwind$??1OposDispParms@@QEAA@XZ 00000001800313d0     OposVariant.obj
 0002:0000b3d0       $unwind$??__E_AtlComModule@ATL@@YAXXZ 00000001800313d0     OposVariant.obj
 0002:0000b3d0       $unwind$??__E_AtlWinModule@ATL@@YAXXZ 00000001800313d0     OposVariant.obj
 0002:0000b3d0       $unwind$??__F_AtlWinModule@ATL@@YAXXZ 00000001800313d0     OposVariant.obj
 0002:0000b3d0       $unwind$?GetLONG@OposVariant@@QEAAJXZ 00000001800313d0     OposVariant.obj
 0002:0000b3d0       $unwind$__dcrt_terminate_console_output 00000001800313d0     libucrt:initcon.obj
 0002:0000b3d0       $unwind$??$uninitialize_environment_internal@D@@YAXAEAPEAPEAD@Z 00000001800313d0     libucrt:environment_initialization.obj
 0002:0000b3d0       $unwind$??$uninitialize_environment_internal@_W@@YAXAEAPEAPEA_W@Z 00000001800313d0     libucrt:environment_initialization.obj
 0002:0000b3d0       $unwind$__acrt_initialize_heap 00000001800313d0     libucrt:heap_handle.obj
 0002:0000b3d0       $unwind$_msize_base        00000001800313d0     libucrt:msize.obj
 0002:0000b3d0       $unwind$?initialize_multibyte@@YAHXZ 00000001800313d0     libucrt:multibyte_initializer.obj
 0002:0000b3d0       $unwind$__acrt_thread_attach 00000001800313d0     libucrt:initialization.obj
 0002:0000b3d0       $unwind$__acrt_thread_detach 00000001800313d0     libucrt:initialization.obj
 0002:0000b3d0       $unwind$__acrt_uninitialize 00000001800313d0     libucrt:initialization.obj
 0002:0000b3d0       $unwind$__acrt_uninitialize_critical 00000001800313d0     libucrt:initialization.obj
 0002:0000b3d0       $unwind$initialize_c       00000001800313d0     libucrt:initialization.obj
 0002:0000b3d0       $unwind$uninitialize_allocated_io_buffers 00000001800313d0     libucrt:initialization.obj
 0002:0000b3d0       $unwind$uninitialize_environment 00000001800313d0     libucrt:initialization.obj
 0002:0000b3d0       $unwind$__acrt_initialize_ptd 00000001800313d0     libucrt:per_thread_data.obj
 0002:0000b3d0       $unwind$__acrt_uninitialize_ptd 00000001800313d0     libucrt:per_thread_data.obj
 0002:0000b3d0       $unwind$__acrt_AreFileApisANSI 00000001800313d0     libucrt:winapi_thunks.obj
 0002:0000b3d0       $unwind$__acrt_release_locale_ref 00000001800313d0     libucrt:locale_refcounting.obj
 0002:0000b3d0       $unwind$_isatty            00000001800313d0     libucrt:isatty.obj
 0002:0000b3d0       $unwind$_get_osfhandle     00000001800313d0     libucrt:osfinfo.obj
 0002:0000b3d0       $unwind$__acrt_initialize_multibyte 00000001800313d0     libucrt:mbctype.obj
 0002:0000b3d0       $unwind$__acrt_update_thread_multibyte_data 00000001800313d0     libucrt:mbctype.obj
 0002:0000b3d0       $unwind$__doserrno         00000001800313d0     libucrt:errno.obj
 0002:0000b3d0       $unwind$_errno             00000001800313d0     libucrt:errno.obj
 0002:0000b3d0       $unwind$_invoke_watson     00000001800313d0     libucrt:invalid_parameter.obj
 0002:0000b3d0       $unwind$abort              00000001800313d0     libucrt:abort.obj
 0002:0000b3d0       $unwind$__acrt_initialize_command_line 00000001800313d0     libucrt:argv_data.obj
 0002:0000b3d0       $unwind$?should_call_terminate_process@@YA_NXZ 00000001800313d0     libucrt:exit.obj
 0002:0000b3d0       $unwind$_fileno            00000001800313d0     libucrt:fileno.obj
 0002:0000b3d0       $unwind$_statfp            00000001800313d0     libucrt:fpctrl.obj
 0002:0000b3d0       $unwind$fegetround         00000001800313d0     libucrt:fegetround.obj
 0002:0000b3d0       $unwind$_set_errno_from_matherr 00000001800313d0     libucrt:fpexcept.obj
 0002:0000b3d0       $unwind$??__E_AtlBaseModule@ATL@@YAXXZ 00000001800313d0     atls:atlbase.obj
 0002:0000b3d0       $unwind$__scrt_initialize_default_local_stdio_options 00000001800313d0     LIBCMT:default_local_stdio_options.obj
 0002:0000b3d0       $unwind$?dllmain_crt_dispatch@@YAHQEAUHINSTANCE__@@KQEAX@Z 00000001800313d0     LIBCMT:dll_dllmain.obj
 0002:0000b3d0       $unwind$__report_rangecheckfailure 00000001800313d0     LIBCMT:gs_report.obj
 0002:0000b3d0       $unwind$__GSHandlerCheck   00000001800313d0     LIBCMT:gshandler.obj
 0002:0000b3d0       $unwind$?__scrt_uninitialize_thread_safe_statics@@YAXXZ 00000001800313d0     LIBCMT:thread_safe_statics.obj
 0002:0000b3d0       $unwind$_Init_thread_notify 00000001800313d0     LIBCMT:thread_safe_statics.obj
 0002:0000b3d0       $unwind$__scrt_acquire_startup_lock 00000001800313d0     LIBCMT:utility.obj
 0002:0000b3d0       $unwind$__scrt_dllmain_after_initialize_c 00000001800313d0     LIBCMT:utility.obj
 0002:0000b3d0       $unwind$__scrt_dllmain_before_initialize_c 00000001800313d0     LIBCMT:utility.obj
 0002:0000b3d0       $unwind$__scrt_dllmain_crt_thread_attach 00000001800313d0     LIBCMT:utility.obj
 0002:0000b3d0       $unwind$__scrt_dllmain_crt_thread_detach 00000001800313d0     LIBCMT:utility.obj
 0002:0000b3d0       $unwind$__scrt_dllmain_uninitialize_c 00000001800313d0     LIBCMT:utility.obj
 0002:0000b3d0       $unwind$__scrt_dllmain_uninitialize_critical 00000001800313d0     LIBCMT:utility.obj
 0002:0000b3d0       $unwind$atexit             00000001800313d0     LIBCMT:utility.obj
 0002:0000b3d0       $unwind$__std_terminate    00000001800313d0     libvcruntime:ehhelpers.obj
 0002:0000b3d0       $unwind$?GetCurrentState@__FrameHandler3@@SAHPEA_KPEAU_xDISPATCHER_CONTEXT@@PEBU_s_FuncInfo@@@Z 00000001800313d0     libvcruntime:ehstate.obj
 0002:0000b3d0       $unwind$__vcrt_initialize  00000001800313d0     libvcruntime:initialization.obj
 0002:0000b3d0       $unwind$__vcrt_thread_attach 00000001800313d0     libvcruntime:initialization.obj
 0002:0000b3d0       $unwind$__vcrt_thread_detach 00000001800313d0     libvcruntime:initialization.obj
 0002:0000b3d0       $unwind$__vcrt_uninitialize 00000001800313d0     libvcruntime:initialization.obj
 0002:0000b3d0       $unwind$__vcrt_uninitialize_critical 00000001800313d0     libvcruntime:initialization.obj
 0002:0000b3d0       $unwind$__vcrt_freefls     00000001800313d0     libvcruntime:per_thread_data.obj
 0002:0000b3d0       $unwind$__vcrt_getptd      00000001800313d0     libvcruntime:per_thread_data.obj
 0002:0000b3d0       $unwind$__vcrt_initialize_ptd 00000001800313d0     libvcruntime:per_thread_data.obj
 0002:0000b3d0       $unwind$__vcrt_uninitialize_ptd 00000001800313d0     libvcruntime:per_thread_data.obj
 0002:0000b3d0       $unwind$_purecall          00000001800313d0     libvcruntime:purevirt.obj
 0002:0000b3d0       $unwind$?FrameUnwindToEmptyState@__FrameHandler4@@SAXPEA_KPEAU_xDISPATCHER_CONTEXT@@PEAUFuncInfo4@FH4@@@Z 00000001800313d0     libvcruntime:risctrnsctrl.obj
 0002:0000b3d0       $unwind$_GetImageBase      00000001800313d0     libvcruntime:risctrnsctrl.obj
 0002:0000b3d0       $unwind$_GetThrowImageBase 00000001800313d0     libvcruntime:risctrnsctrl.obj
 0002:0000b3d8       $unwind$?DAdvise@?$IDataObjectImpl@VCOPOSBumpBar@@@ATL@@UEAAJPEAUtagFORMATETC@@KPEAUIAdviseSink@@PEAK@Z 00000001800313d8     BumpBar.obj
 0002:0000b3d8       $unwind$?cw_dup@@YAXPEBDAEAHAEAPEA_W1@Z 00000001800313d8     CWString.obj
 0002:0000b3d8       $unwind$??$create_environment@D@@YAQEAPEADQEAD@Z 00000001800313d8     libucrt:environment_initialization.obj
 0002:0000b3d8       $unwind$_mbtowc_internal   00000001800313d8     libucrt:mbtowc.obj
 0002:0000b3d8       $unwind$??$__acrt_convert_wcs_mbs_cp@D_WV<lambda_7c9dea7b4ca7285d2cdb541a38da6275>@@U__crt_win32_buffer_internal_dynamic_resizing@@@@YAHQEBDAEAV?$__crt_win32_buffer@_WU__crt_win32_buffer_internal_dynamic_resizing@@@@AEBV<lambda_7c9dea7b4ca7285d2cdb541a38da6275>@@I@Z 00000001800313d8     libucrt:argv_wildcards.obj
 0002:0000b3d8       $unwind$?process@?$output_processor@_WV?$string_output_adapter@_W@__crt_stdio_output@@V?$format_validation_base@_WV?$string_output_adapter@_W@__crt_stdio_output@@@2@@__crt_stdio_output@@QEAAHXZ 00000001800313d8     libucrt:output.obj
 0002:0000b3f0       $unwind$??0?$CComObject@VCOPOSBumpBar@@@ATL@@QEAA@PEAX@Z 00000001800313f0     BumpBar.obj
 0002:0000b3f0       $unwind$??0CAtlModule@ATL@@QEAA@XZ 00000001800313f0     BumpBar.obj
 0002:0000b3f0       $unwind$??1?$CComObject@VCOPOSBumpBar@@@ATL@@UEAA@XZ 00000001800313f0     BumpBar.obj
 0002:0000b3f0       $unwind$??__E_Module@@YAXXZ 00000001800313f0     BumpBar.obj
 0002:0000b3f0       $unwind$?AddRef@?$CComObjectCached@VCComClassFactory@ATL@@@ATL@@UEAAKXZ 00000001800313f0     BumpBar.obj
 0002:0000b3f0       $unwind$?AllocateHeap@?$CTempBuffer@E$0BAA@VCCRTAllocator@ATL@@@ATL@@AEAAX_K@Z 00000001800313f0     BumpBar.obj
 0002:0000b3f0       $unwind$?AllocateHeap@?$CTempBuffer@_W$0BAA@VCCRTAllocator@ATL@@@ATL@@AEAAX_K@Z 00000001800313f0     BumpBar.obj
 0002:0000b3f0       $unwind$?AllocateHeap@?$CTempBuffer@_W$0EAA@VCCRTAllocator@ATL@@@ATL@@AEAAX_K@Z 00000001800313f0     BumpBar.obj
 0002:0000b3f0       $unwind$?GetClassInfoW@?$IProvideClassInfo2Impl@$1?CLSID_OPOSBumpBar@@3U_GUID@@B$1?DIID__IOPOSBumpBarEvents@@3U2@B$1?LIBID_OposBumpBar_CCO@@3U2@B$00$0A@VCComTypeInfoHolder@ATL@@@ATL@@UEAAJPEAPEAUITypeInfo@@@Z 00000001800313f0     BumpBar.obj
 0002:0000b3f0       $unwind$?GetClientSite@?$IOleObjectImpl@VCOPOSBumpBar@@@ATL@@UEAAJPEAPEAUIOleClientSite@@@Z 00000001800313f0     BumpBar.obj
 0002:0000b3f0       $unwind$?GetConnMap@COPOSBumpBar@@SAPEBU_ATL_CONNMAP_ENTRY@ATL@@PEAH@Z 00000001800313f0     BumpBar.obj
 0002:0000b3f0       $unwind$?GetTypeInfo@?$IDispatchImpl@UIOPOSBumpBar@@$1?IID_IOPOSBumpBar@@3U_GUID@@B$1?LIBID_OposBumpBar_CCO@@3U3@B$00$0A@VCComTypeInfoHolder@ATL@@@ATL@@UEAAJIKPEAPEAUITypeInfo@@@Z 00000001800313f0     BumpBar.obj
 0002:0000b3f0       $unwind$?IOleInPlaceObject_InPlaceDeactivate@CComControlBase@ATL@@QEAAJXZ 00000001800313f0     BumpBar.obj
 0002:0000b3f0       $unwind$?IOleObject_SetExtent@CComControlBase@ATL@@QEAAJKPEAUtagSIZE@@@Z 00000001800313f0     BumpBar.obj
 0002:0000b3f0       $unwind$?IsEqualObject@?$CComPtrBase@UIOleClientSite@@@ATL@@QEAA_NPEAUIUnknown@@@Z 00000001800313f0     BumpBar.obj
 0002:0000b3f0       $unwind$?QueryHitPoint@?$IViewObjectExImpl@VCOPOSBumpBar@@@ATL@@UEAAJKPEBUtagRECT@@UtagPOINT@@JPEAK@Z 00000001800313f0     BumpBar.obj
 0002:0000b3f0       $unwind$?QueryInterface@?$CComAggObject@VCOPOSBumpBar@@@ATL@@UEAAJAEBU_GUID@@PEAPEAX@Z 00000001800313f0     BumpBar.obj
 0002:0000b3f0       $unwind$?Release@?$CComObjectCached@VCComClassFactory@ATL@@@ATL@@UEAAKXZ 00000001800313f0     BumpBar.obj
 0002:0000b3f0       $unwind$?Unadvise@?$IConnectionPointImpl@VCOPOSBumpBar@@$1?DIID__IOPOSBumpBarEvents@@3U_GUID@@BVCComDynamicUnkArray@ATL@@@ATL@@UEAAJK@Z 00000001800313f0     BumpBar.obj
 0002:0000b3f0       $unwind$?Unadvise@?$IConnectionPointImpl@VCOPOSBumpBar@@$1?IID_IPropertyNotifySink@@3U_GUID@@BVCComDynamicUnkArray@ATL@@@ATL@@UEAAJK@Z 00000001800313f0     BumpBar.obj
 0002:0000b3f0       $unwind$??1CComControlBase@ATL@@UEAA@XZ 00000001800313f0     BumpBarImpl.obj
 0002:0000b3f0       $unwind$??1COPOSBumpBar@@UEAA@XZ 00000001800313f0     BumpBarImpl.obj
 0002:0000b3f0       $unwind$?EventUninit@COPOSBumpBar@@IEAAXXZ 00000001800313f0     BumpBarImpl.obj
 0002:0000b3f0       $unwind$?FreezeEvents@COPOSBumpBar@@MEAAJH@Z 00000001800313f0     BumpBarImpl.obj
 0002:0000b3f0       $unwind$?SOProcessID@COPOSBumpBar@@UEAAJPEAJ@Z 00000001800313f0     BumpBarImpl.obj
 0002:0000b3f0       $unwind$?get_AsyncMode@COPOSBumpBar@@UEAAJPEAF@Z 00000001800313f0     BumpBarImpl.obj
 0002:0000b3f0       $unwind$?get_CapCompareFirmwareVersion@COPOSBumpBar@@UEAAJPEAF@Z 00000001800313f0     BumpBarImpl.obj
 0002:0000b3f0       $unwind$?get_CapStatisticsReporting@COPOSBumpBar@@UEAAJPEAF@Z 00000001800313f0     BumpBarImpl.obj
 0002:0000b3f0       $unwind$?get_CapTone@COPOSBumpBar@@UEAAJPEAF@Z 00000001800313f0     BumpBarImpl.obj
 0002:0000b3f0       $unwind$?get_CapUpdateFirmware@COPOSBumpBar@@UEAAJPEAF@Z 00000001800313f0     BumpBarImpl.obj
 0002:0000b3f0       $unwind$?get_CapUpdateStatistics@COPOSBumpBar@@UEAAJPEAF@Z 00000001800313f0     BumpBarImpl.obj
 0002:0000b3f0       $unwind$?get_Claimed@COPOSBumpBar@@UEAAJPEAF@Z 00000001800313f0     BumpBarImpl.obj
 0002:0000b3f0       $unwind$?get_DataEventEnabled@COPOSBumpBar@@UEAAJPEAF@Z 00000001800313f0     BumpBarImpl.obj
 0002:0000b3f0       $unwind$?get_DeviceEnabled@COPOSBumpBar@@UEAAJPEAF@Z 00000001800313f0     BumpBarImpl.obj
 0002:0000b3f0       $unwind$?get_FreezeEvents@COPOSBumpBar@@UEAAJPEAF@Z 00000001800313f0     BumpBarImpl.obj
 0002:0000b3f0       $unwind$?put_FreezeEvents@COPOSBumpBar@@UEAAJF@Z 00000001800313f0     BumpBarImpl.obj
 0002:0000b3f0       $unwind$?DupWide@_CW@@AEAAXXZ 00000001800313f0     CWString.obj
 0002:0000b3f0       $unwind$??0CAtlComModule@ATL@@QEAA@XZ 00000001800313f0     OposVariant.obj
 0002:0000b3f0       $unwind$??0CAtlWinModule@ATL@@QEAA@XZ 00000001800313f0     OposVariant.obj
 0002:0000b3f0       $unwind$_calloc_base       00000001800313f0     libucrt:calloc_base.obj
 0002:0000b3f0       $unwind$_malloc_base       00000001800313f0     libucrt:malloc_base.obj
 0002:0000b3f0       $unwind$_callnewh          00000001800313f0     libucrt:new_handler.obj
 0002:0000b3f0       $unwind$initialize_pointers 00000001800313f0     libucrt:initialization.obj
 0002:0000b3f0       $unwind$uninitialize_allocated_memory 00000001800313f0     libucrt:initialization.obj
 0002:0000b3f0       $unwind$__acrt_initialize_locks 00000001800313f0     libucrt:locks.obj
 0002:0000b3f0       $unwind$__acrt_uninitialize_locks 00000001800313f0     libucrt:locks.obj
 0002:0000b3f0       $unwind$__acrt_freeptd     00000001800313f0     libucrt:per_thread_data.obj
 0002:0000b3f0       $unwind$__acrt_getptd_head 00000001800313f0     libucrt:per_thread_data.obj
 0002:0000b3f0       $unwind$__acrt_get_process_end_policy 00000001800313f0     libucrt:win_policies.obj
 0002:0000b3f0       $unwind$__acrt_AppPolicyGetProcessTerminationMethodInternal 00000001800313f0     libucrt:winapi_thunks.obj
 0002:0000b3f0       $unwind$__acrt_SetThreadStackGuarantee 00000001800313f0     libucrt:winapi_thunks.obj
 0002:0000b3f0       $unwind$__acrt_uninitialize_winapi_thunks 00000001800313f0     libucrt:winapi_thunks.obj
 0002:0000b3f0       $unwind$__acrt_update_locale_info 00000001800313f0     libucrt:locale_update.obj
 0002:0000b3f0       $unwind$__acrt_update_locale_info_explicit 00000001800313f0     libucrt:locale_update.obj
 0002:0000b3f0       $unwind$__acrt_update_multibyte_info 00000001800313f0     libucrt:locale_update.obj
 0002:0000b3f0       $unwind$__acrt_update_multibyte_info_explicit 00000001800313f0     libucrt:locale_update.obj
 0002:0000b3f0       $unwind$__acrt_errno_map_os_error 00000001800313f0     libucrt:errno.obj
 0002:0000b3f0       $unwind$__acrt_errno_map_os_error_ptd 00000001800313f0     libucrt:errno.obj
 0002:0000b3f0       $unwind$__acrt_allocate_buffer_for_argv 00000001800313f0     libucrt:argv_parsing.obj
 0002:0000b3f0       $unwind$?exit_or_terminate_process@@YAXI@Z 00000001800313f0     libucrt:exit.obj
 0002:0000b3f0       $unwind$__acrt_uninitialize_stdio 00000001800313f0     libucrt:_file.obj
 0002:0000b3f0       $unwind$__acrt_stdio_free_buffer_nolock 00000001800313f0     libucrt:_freebuf.obj
 0002:0000b3f0       $unwind$strcpy_s           00000001800313f0     libucrt:strcpy_s.obj
 0002:0000b3f0       $unwind$wcscat_s           00000001800313f0     libucrt:wcscat_s.obj
 0002:0000b3f0       $unwind$wcscpy_s           00000001800313f0     libucrt:wcscpy_s.obj
 0002:0000b3f0       $unwind$_clrfp             00000001800313f0     libucrt:fpctrl.obj
 0002:0000b3f0       $unwind$_set_statfp        00000001800313f0     libucrt:fpctrl.obj
 0002:0000b3f0       $unwind$_clearfp           00000001800313f0     libucrt:ieee.obj
 0002:0000b3f0       $unwind$_controlfp_s       00000001800313f0     libucrt:contrlfp.obj
 0002:0000b3f0       $unwind$fegetenv           00000001800313f0     libucrt:fegetenv.obj
 0002:0000b3f0       $unwind$feholdexcept       00000001800313f0     libucrt:feholdexcept.obj
 0002:0000b3f0       $unwind$fesetenv           00000001800313f0     libucrt:fesetenv.obj
 0002:0000b3f0       $unwind$??1CAtlBaseModule@ATL@@QEAA@XZ 00000001800313f0     atls:atlbase.obj
 0002:0000b3f0       $unwind$AtlThunk_AllocateData 00000001800313f0     atls:atlthunk.obj
 0002:0000b3f0       $unwind$__raise_securityfailure 00000001800313f0     LIBCMT:gs_report.obj
 0002:0000b3f0       $unwind$??2@YAPEAX_K@Z     00000001800313f0     LIBCMT:new_scalar.obj
 0002:0000b3f0       $unwind$??_Gtype_info@@UEAAPEAXI@Z 00000001800313f0     LIBCMT:std_type_info_static.obj
 0002:0000b3f0       $unwind$_Init_thread_footer 00000001800313f0     LIBCMT:thread_safe_statics.obj
 0002:0000b3f0       $unwind$_Init_thread_header 00000001800313f0     LIBCMT:thread_safe_statics.obj
 0002:0000b3f0       $unwind$_Init_thread_wait  00000001800313f0     LIBCMT:thread_safe_statics.obj
 0002:0000b3f0       $unwind$??0bad_alloc@std@@QEAA@AEBV01@@Z 00000001800313f0     LIBCMT:throw_bad_alloc.obj
 0002:0000b3f0       $unwind$??0bad_array_new_length@std@@QEAA@AEBV01@@Z 00000001800313f0     LIBCMT:throw_bad_alloc.obj
 0002:0000b3f0       $unwind$??0exception@std@@QEAA@AEBV01@@Z 00000001800313f0     LIBCMT:throw_bad_alloc.obj
 0002:0000b3f0       $unwind$__scrt_initialize_crt 00000001800313f0     LIBCMT:utility.obj
 0002:0000b3f0       $unwind$__scrt_initialize_onexit_tables 00000001800313f0     LIBCMT:utility.obj
 0002:0000b3f0       $unwind$__scrt_release_startup_lock 00000001800313f0     LIBCMT:utility.obj
 0002:0000b3f0       $unwind$__scrt_uninitialize_crt 00000001800313f0     LIBCMT:utility.obj
 0002:0000b3f0       $unwind$_onexit            00000001800313f0     LIBCMT:utility.obj
 0002:0000b3f0       $unwind$_IsExceptionObjectToBeDestroyed 00000001800313f0     libvcruntime:ehhelpers.obj
 0002:0000b3f0       $unwind$?GetUnwindTryBlock@__FrameHandler3@@SAHPEA_KPEAU_xDISPATCHER_CONTEXT@@PEBU_s_FuncInfo@@@Z 00000001800313f0     libvcruntime:ehstate.obj
 0002:0000b3f0       $unwind$?StateFromIp@__FrameHandler3@@SAHPEBU_s_FuncInfo@@PEAU_xDISPATCHER_CONTEXT@@_K@Z 00000001800313f0     libvcruntime:ehstate.obj
 0002:0000b3f0       $unwind$??0HandlerMap4@FH4@@QEAA@PEBUTryBlockMapEntry4@1@_KH@Z 00000001800313f0     libvcruntime:frame.obj
 0002:0000b3f0       $unwind$??0bad_exception@std@@QEAA@AEBV01@@Z 00000001800313f0     libvcruntime:frame.obj
 0002:0000b3f0       $unwind$__vcrt_initialize_locks 00000001800313f0     libvcruntime:locks.obj
 0002:0000b3f0       $unwind$__vcrt_uninitialize_locks 00000001800313f0     libvcruntime:locks.obj
 0002:0000b3f0       $unwind$__vcrt_freeptd     00000001800313f0     libvcruntime:per_thread_data.obj
 0002:0000b3f0       $unwind$?ExecutionInCatch@__FrameHandler3@@SA_NPEAU_xDISPATCHER_CONTEXT@@PEBU_s_FuncInfo@@@Z 00000001800313f0     libvcruntime:risctrnsctrl.obj
 0002:0000b3f0       $unwind$_CreateFrameInfo   00000001800313f0     libvcruntime:risctrnsctrl.obj
 0002:0000b3f0       $unwind$_SetImageBase      00000001800313f0     libvcruntime:risctrnsctrl.obj
 0002:0000b3f0       $unwind$_SetThrowImageBase 00000001800313f0     libvcruntime:risctrnsctrl.obj
 0002:0000b3f0       $unwind$__std_exception_destroy 00000001800313f0     libvcruntime:std_exception.obj
 0002:0000b3f0       $unwind$__std_type_info_destroy_list 00000001800313f0     libvcruntime:std_type_info.obj
 0002:0000b3f0       $unwind$__vcrt_FlsAlloc    00000001800313f0     libvcruntime:winapi_downlevel.obj
 0002:0000b3f0       $unwind$__vcrt_FlsFree     00000001800313f0     libvcruntime:winapi_downlevel.obj
 0002:0000b3f0       $unwind$__vcrt_FlsGetValue 00000001800313f0     libvcruntime:winapi_downlevel.obj
 0002:0000b3f8       $unwind$?AtlWinModuleExtractCreateWndData@ATL@@YAPEAXPEAU_ATL_WIN_MODULE70@1@@Z 00000001800313f8     BumpBar.obj
 0002:0000b3f8       $unwind$?CreateInstance@?$CComCreator@V?$CComObject@VCOPOSBumpBar@@@ATL@@@ATL@@SAJPEAXAEBU_GUID@@PEAPEAX@Z 00000001800313f8     BumpBar.obj
 0002:0000b3f8       $unwind$?DoEvent@COPOSBumpBar@@IEAAXI_K_J@Z 00000001800313f8     BumpBar.obj
 0002:0000b3f8       $unwind$?DoVerb@?$IOleObjectImpl@VCOPOSBumpBar@@@ATL@@UEAAJJPEAUtagMSG@@PEAUIOleClientSite@@JPEAUHWND__@@PEBUtagRECT@@@Z 00000001800313f8     BumpBar.obj
 0002:0000b3f8       $unwind$?HKeyFromString@CRegParser@ATL@@KAPEAUHKEY__@@PEA_W@Z 00000001800313f8     BumpBar.obj
 0002:0000b3f8       $unwind$?Next@?$CComEnumImpl@UIEnumConnectionPoints@@$1?_GUID_b196b285_bab4_101a_b69c_00aa00341d07@@3U__s_GUID@@BPEAUIConnectionPoint@@V?$_CopyInterface@UIConnectionPoint@@@ATL@@@ATL@@UEAAJKPEAPEAUIConnectionPoint@@PEAK@Z 00000001800313f8     BumpBar.obj
 0002:0000b3f8       $unwind$?Next@?$CComEnumImpl@UIEnumConnections@@$1?_GUID_b196b287_bab4_101a_b69c_00aa00341d07@@3U__s_GUID@@BUtagCONNECTDATA@@V?$_Copy@UtagCONNECTDATA@@@ATL@@@ATL@@UEAAJKPEAUtagCONNECTDATA@@PEAK@Z 00000001800313f8     BumpBar.obj
 0002:0000b3f8       $unwind$?SODirectIO@COPOSBumpBar@@MEAAJJPEAJPEAPEA_W@Z 00000001800313f8     BumpBar.obj
 0002:0000b3f8       $unwind$?SetControlFocus@CComControlBase@ATL@@QEAAHH@Z 00000001800313f8     BumpBar.obj
 0002:0000b3f8       $unwind$?ocscpy_s@@YA_NPEA_W_KPEB_W@Z 00000001800313f8     BumpBar.obj
 0002:0000b3f8       $unwind$?s_EventWindowProc@COPOSBumpBar@@KA_JPEAUHWND__@@I_K_J@Z 00000001800313f8     BumpBarImpl.obj
 0002:0000b3f8       $unwind$?AtlWinModuleTerm@ATL@@YAJPEAU_ATL_WIN_MODULE70@1@PEAUHINSTANCE__@@@Z 00000001800313f8     OposVariant.obj
 0002:0000b3f8       $unwind$_recalloc_base     00000001800313f8     libucrt:recalloc.obj
 0002:0000b3f8       $unwind$__acrt_free_locale 00000001800313f8     libucrt:locale_refcounting.obj
 0002:0000b3f8       $unwind$__acrt_lowio_create_handle_array 00000001800313f8     libucrt:osfinfo.obj
 0002:0000b3f8       $unwind$_seh_filter_exe    00000001800313f8     libucrt:exception_filter.obj
 0002:0000b3f8       $unwind$__acrt_stdio_flush_nolock 00000001800313f8     libucrt:fflush.obj
 0002:0000b3f8       $unwind$??$ensure_buffer_is_big_enough@D@formatting_buffer@__crt_stdio_output@@QEAA_N_KAEAV__crt_cached_ptd_host@@@Z 00000001800313f8     libucrt:output.obj
 0002:0000b3f8       $unwind$??$ensure_buffer_is_big_enough@_W@formatting_buffer@__crt_stdio_output@@QEAA_N_KAEAV__crt_cached_ptd_host@@@Z 00000001800313f8     libucrt:output.obj
 0002:0000b3f8       $unwind$__scrt_dllmain_exception_filter 00000001800313f8     LIBCMT:utility.obj
 0002:0000b3f8       $unwind$?GetHandlerSearchState@__FrameHandler3@@SAHPEA_KPEAU_xDISPATCHER_CONTEXT@@PEBU_s_FuncInfo@@@Z 00000001800313f8     libvcruntime:frame.obj
 0002:0000b3f8       $unwind$?Is_bad_exception_allowed@@YAEPEBU_s_ESTypeList@@@Z 00000001800313f8     libvcruntime:frame.obj
 0002:0000b3f8       $unwind$?CatchTryBlock@__FrameHandler3@@SAPEBU_s_TryBlockMapEntry@@PEBU_s_FuncInfo@@H@Z 00000001800313f8     libvcruntime:risctrnsctrl.obj
 0002:0000b40c       $unwind$??_GCRegObject@ATL@@UEAAPEAXI@Z 000000018003140c     BumpBar.obj
 0002:0000b40c       $unwind$?Add@?$CSimpleArray@GV?$CSimpleArrayEqualHelper@G@ATL@@@ATL@@QEAAHAEBG@Z 000000018003140c     BumpBar.obj
 0002:0000b40c       $unwind$?Add@?$CSimpleMap@PEA_WPEA_WVCExpansionVectorEqualHelper@ATL@@@ATL@@QEAAHAEBQEA_W0@Z 000000018003140c     BumpBar.obj
 0002:0000b40c       $unwind$?Add@CComDynamicUnkArray@ATL@@QEAAKPEAUIUnknown@@@Z 000000018003140c     BumpBar.obj
 0002:0000b40c       $unwind$?Advise@?$IOleObjectImpl@VCOPOSBumpBar@@@ATL@@UEAAJPEAUIAdviseSink@@PEAK@Z 000000018003140c     BumpBar.obj
 0002:0000b40c       $unwind$?ClearReplacements@CExpansionVector@ATL@@QEAAJXZ 000000018003140c     BumpBar.obj
 0002:0000b40c       $unwind$?CreateInstance@?$CComObject@V?$CComEnum@UIEnumConnectionPoints@@$1?_GUID_b196b285_bab4_101a_b69c_00aa00341d07@@3U__s_GUID@@BPEAUIConnectionPoint@@V?$_CopyInterface@UIConnectionPoint@@@ATL@@VCComSingleThreadModel@6@@ATL@@@ATL@@SAJPEAPEAV12@@Z 000000018003140c     BumpBar.obj
 0002:0000b40c       $unwind$?CreateInstance@?$CComObject@V?$CComEnum@UIEnumConnections@@$1?_GUID_b196b287_bab4_101a_b69c_00aa00341d07@@3U__s_GUID@@BUtagCONNECTDATA@@V?$_Copy@UtagCONNECTDATA@@@ATL@@VCComSingleThreadModel@6@@ATL@@@ATL@@SAJPEAPEAV12@@Z 000000018003140c     BumpBar.obj
 0002:0000b40c       $unwind$?RegisterServer@CComModule@ATL@@QEAAJHPEBU_GUID@@@Z 000000018003140c     BumpBar.obj
 0002:0000b40c       $unwind$?UnregisterServer@CComModule@ATL@@QEAAJHPEBU_GUID@@@Z 000000018003140c     BumpBar.obj
 0002:0000b40c       $unwind$?VTFromRegType@CRegParser@ATL@@KAHPEB_WAEAG@Z 000000018003140c     BumpBar.obj
 0002:0000b40c       $unwind$??0OposDispParms@@QEAA@PEAVOposVariant@@H@Z 000000018003140c     OposVariant.obj
 0002:0000b40c       $unwind$?SetBSTR_Copy@OposVariant@@QEAAXPEA_WAEAJ@Z 000000018003140c     OposVariant.obj
 0002:0000b40c       $unwind$?SetBSTR_InOutPtr@OposVariant@@QEAA_NPEAPEA_WAEAJ@Z 000000018003140c     OposVariant.obj
 0002:0000b40c       $unwind$?SetDispatch_Ptr@OposVariant@@QEAAXPEAUIDispatch@@AEAJ@Z 000000018003140c     OposVariant.obj
 0002:0000b40c       $unwind$?SetLONG_Ptr@OposVariant@@QEAAXPEAJAEAJ@Z 000000018003140c     OposVariant.obj
 0002:0000b40c       $unwind$?SetString@OposVariant@@QEAAXPEB_WAEAJ@Z 000000018003140c     OposVariant.obj
 0002:0000b40c       $unwind$?Term@CAtlComModule@ATL@@QEAAXXZ 000000018003140c     OposVariant.obj
 0002:0000b40c       $unwind$memcpy_s           000000018003140c     libucrt:cfout.obj
 0002:0000b40c       $unwind$__acrt_getptd      000000018003140c     libucrt:per_thread_data.obj
 0002:0000b40c       $unwind$__acrt_getptd_noexit 000000018003140c     libucrt:per_thread_data.obj
 0002:0000b40c       $unwind$__acrt_getptd_noexit_explicit 000000018003140c     libucrt:per_thread_data.obj
 0002:0000b40c       $unwind$__acrt_execute_initializers 000000018003140c     libucrt:shared_initialization.obj
 0002:0000b40c       $unwind$__acrt_InitializeCriticalSectionEx 000000018003140c     libucrt:winapi_thunks.obj
 0002:0000b40c       $unwind$_close_nolock_internal 000000018003140c     libucrt:close.obj
 0002:0000b40c       $unwind$?value@?$dual_state_global@P6AXPEB_W00I_K@Z@__crt_state_management@@QEAAAEAP6AXPEB_W00I_K@ZAEAV__crt_cached_ptd_host@@@Z 000000018003140c     libucrt:invalid_parameter.obj
 0002:0000b40c       $unwind$??0_LocaleUpdate@@QEAA@QEAU__crt_locale_pointers@@@Z 000000018003140c     libucrt:argv_wildcards.obj
 0002:0000b40c       $unwind$?type_case_Z@?$output_processor@_WV?$string_output_adapter@_W@__crt_stdio_output@@V?$format_validation_base@_WV?$string_output_adapter@_W@__crt_stdio_output@@@2@@__crt_stdio_output@@AEAA_NXZ 000000018003140c     libucrt:output.obj
 0002:0000b40c       $unwind$?type_case_s@?$output_processor@_WV?$string_output_adapter@_W@__crt_stdio_output@@V?$format_validation_base@_WV?$string_output_adapter@_W@__crt_stdio_output@@@2@@__crt_stdio_output@@AEAA_NXZ 000000018003140c     libucrt:output.obj
 0002:0000b40c       $unwind$?type_case_s_compute_narrow_string_length@?$output_processor@_WV?$string_output_adapter@_W@__crt_stdio_output@@V?$format_validation_base@_WV?$string_output_adapter@_W@__crt_stdio_output@@@2@@__crt_stdio_output@@AEAAHH_W@Z 000000018003140c     libucrt:output.obj
 0002:0000b40c       $unwind$?update_locale_slow@__crt_cached_ptd_host@@AEAAXXZ 000000018003140c     libucrt:output.obj
 0002:0000b40c       $unwind$strncpy_s          000000018003140c     libucrt:strncpy_s.obj
 0002:0000b40c       $unwind$wcsncpy_s          000000018003140c     libucrt:wcsncpy_s.obj
 0002:0000b40c       $unwind$_exception_enabled 000000018003140c     libucrt:libm_error.obj
 0002:0000b40c       $unwind$_DllMainCRTStartup 000000018003140c     LIBCMT:dll_dllmain.obj
 0002:0000b40c       $unwind$__vcrt_getptd_noexit 000000018003140c     libvcruntime:per_thread_data.obj
 0002:0000b40c       $unwind$?FrameUnwindToEmptyState@__FrameHandler3@@SAXPEA_KPEAU_xDISPATCHER_CONTEXT@@PEBU_s_FuncInfo@@@Z 000000018003140c     libvcruntime:risctrnsctrl.obj
 0002:0000b40c       $unwind$__vcrt_InitializeCriticalSectionEx 000000018003140c     libvcruntime:winapi_downlevel.obj
 0002:0000b41c       $unwind$?AddTermFunc@CAtlModule@ATL@@QEAAJP6AX_K@Z0@Z 000000018003141c     BumpBar.obj
 0002:0000b41c       $unwind$?AtlComModuleRegisterServer@ATL@@YAJPEAU_ATL_COM_MODULE70@1@HPEBU_GUID@@@Z 000000018003141c     BumpBar.obj
 0002:0000b41c       $unwind$?AtlComModuleUnregisterServer@ATL@@YAJPEAU_ATL_COM_MODULE70@1@HPEBU_GUID@@@Z 000000018003141c     BumpBar.obj
 0002:0000b41c       $unwind$?CreateInstance@?$CComCreator@V?$CComAggObject@VCOPOSBumpBar@@@ATL@@@ATL@@SAJPEAXAEBU_GUID@@PEAPEAX@Z 000000018003141c     BumpBar.obj
 0002:0000b41c       $unwind$?CreateInstance@?$CComCreator@V?$CComObjectCached@VCComClassFactory@ATL@@@ATL@@@ATL@@SAJPEAXAEBU_GUID@@PEAPEAX@Z 000000018003141c     BumpBar.obj
 0002:0000b41c       $unwind$?GetPagesHelper@?$ISpecifyPropertyPagesImpl@VCOPOSBumpBar@@@ATL@@IEAAJPEAUtagCAUUID@@PEBUATL_PROPMAP_ENTRY@2@@Z 000000018003141c     BumpBar.obj
 0002:0000b41c       $unwind$?Term@CAtlModule@ATL@@QEAAXXZ 000000018003141c     BumpBar.obj
 0002:0000b41c       $unwind$??_Estringdispid@CComTypeInfoHolder@ATL@@QEAAPEAXI@Z 000000018003141c     OposVariant.obj
 0002:0000b41c       $unwind$?initialize_stdio_handles_nolock@@YAXXZ 000000018003141c     libucrt:ioinit.obj
 0002:0000b41c       $unwind$__acrt_initialize_stdio 000000018003141c     libucrt:_file.obj
 0002:0000b41c       $unwind$__GSHandlerCheck_EH 000000018003141c     LIBCMT:gshandlereh.obj
 0002:0000b41c       $unwind$__GSHandlerCheck_SEH 000000018003141c     LIBCMT:gshandlerseh.obj
 0002:0000b41c       $unwind$??$TypeMatchHelper@V__FrameHandler3@@@@YAHPEBU_s_HandlerType@@PEBU_s_CatchableType@@PEBU_s_ThrowInfo@@@Z 000000018003141c     libvcruntime:frame.obj
 0002:0000b41c       $unwind$??$TypeMatchHelper@V__FrameHandler4@@@@YAHPEAUHandlerType4@FH4@@PEBU_s_CatchableType@@PEBU_s_ThrowInfo@@@Z 000000018003141c     libvcruntime:frame.obj
 0002:0000b434       $unwind$??0?$CComContainedObject@VCOPOSBumpBar@@@ATL@@QEAA@PEAX@Z 0000000180031434     BumpBar.obj
 0002:0000b434       $unwind$??1?$CComEnumImpl@UIEnumConnectionPoints@@$1?_GUID_b196b285_bab4_101a_b69c_00aa00341d07@@3U__s_GUID@@BPEAUIConnectionPoint@@V?$_CopyInterface@UIConnectionPoint@@@ATL@@@ATL@@UEAA@XZ 0000000180031434     BumpBar.obj
 0002:0000b434       $unwind$??1?$CComEnumImpl@UIEnumConnections@@$1?_GUID_b196b287_bab4_101a_b69c_00aa00341d07@@3U__s_GUID@@BUtagCONNECTDATA@@V?$_Copy@UtagCONNECTDATA@@@ATL@@@ATL@@UEAA@XZ 0000000180031434     BumpBar.obj
 0002:0000b434       $unwind$??_G?$CComAggObject@VCOPOSBumpBar@@@ATL@@UEAAPEAXI@Z 0000000180031434     BumpBar.obj
 0002:0000b434       $unwind$??_G?$CComContainedObject@VCOPOSBumpBar@@@ATL@@UEAAPEAXI@Z 0000000180031434     BumpBar.obj
 0002:0000b434       $unwind$??_G?$CComObject@V?$CComEnum@UIEnumConnectionPoints@@$1?_GUID_b196b285_bab4_101a_b69c_00aa00341d07@@3U__s_GUID@@BPEAUIConnectionPoint@@V?$_CopyInterface@UIConnectionPoint@@@ATL@@VCComSingleThreadModel@6@@ATL@@@ATL@@UEAAPEAXI@Z 0000000180031434     BumpBar.obj
 0002:0000b434       $unwind$??_G?$CComObject@V?$CComEnum@UIEnumConnections@@$1?_GUID_b196b287_bab4_101a_b69c_00aa00341d07@@3U__s_GUID@@BUtagCONNECTDATA@@V?$_Copy@UtagCONNECTDATA@@@ATL@@VCComSingleThreadModel@6@@ATL@@@ATL@@UEAAPEAXI@Z 0000000180031434     BumpBar.obj
 0002:0000b434       $unwind$??_G?$CComObject@VCOPOSBumpBar@@@ATL@@UEAAPEAXI@Z 0000000180031434     BumpBar.obj
 0002:0000b434       $unwind$??_G?$CComObjectCached@VCComClassFactory@ATL@@@ATL@@UEAAPEAXI@Z 0000000180031434     BumpBar.obj
 0002:0000b434       $unwind$??_GCComClassFactory@ATL@@UEAAPEAXI@Z 0000000180031434     BumpBar.obj
 0002:0000b434       $unwind$??_GCComModule@ATL@@UEAAPEAXI@Z 0000000180031434     BumpBar.obj
 0002:0000b434       $unwind$?DeleteSubKey@CRegKey@ATL@@QEAAJPEB_W@Z 0000000180031434     BumpBar.obj
 0002:0000b434       $unwind$?IOleObject_SetClientSite@CComControlBase@ATL@@QEAAJPEAUIOleClientSite@@@Z 0000000180031434     BumpBar.obj
 0002:0000b434       $unwind$?InitNew@?$IPersistStorageImpl@VCOPOSBumpBar@@@ATL@@UEAAJPEAUIStorage@@@Z 0000000180031434     BumpBar.obj
 0002:0000b434       $unwind$?IsDirty@?$IPersistStorageImpl@VCOPOSBumpBar@@@ATL@@UEAAJXZ 0000000180031434     BumpBar.obj
 0002:0000b434       $unwind$?Release@?$CComAggObject@VCOPOSBumpBar@@@ATL@@UEAAKXZ 0000000180031434     BumpBar.obj
 0002:0000b434       $unwind$?Release@?$CComObject@V?$CComEnum@UIEnumConnectionPoints@@$1?_GUID_b196b285_bab4_101a_b69c_00aa00341d07@@3U__s_GUID@@BPEAUIConnectionPoint@@V?$_CopyInterface@UIConnectionPoint@@@ATL@@VCComSingleThreadModel@6@@ATL@@@ATL@@UEAAKXZ 0000000180031434     BumpBar.obj
 0002:0000b434       $unwind$?Release@?$CComObject@V?$CComEnum@UIEnumConnections@@$1?_GUID_b196b287_bab4_101a_b69c_00aa00341d07@@3U__s_GUID@@BUtagCONNECTDATA@@V?$_Copy@UtagCONNECTDATA@@@ATL@@VCComSingleThreadModel@6@@ATL@@@ATL@@UEAAKXZ 0000000180031434     BumpBar.obj
 0002:0000b434       $unwind$?Release@?$CComObject@VCOPOSBumpBar@@@ATL@@UEAAKXZ 0000000180031434     BumpBar.obj
 0002:0000b434       $unwind$?SOData@COPOSBumpBar@@MEAAJJ@Z 0000000180031434     BumpBar.obj
 0002:0000b434       $unwind$?SOOutputComplete@COPOSBumpBar@@MEAAJJ@Z 0000000180031434     BumpBar.obj
 0002:0000b434       $unwind$?SOStatusUpdate@COPOSBumpBar@@MEAAJJ@Z 0000000180031434     BumpBar.obj
 0002:0000b434       $unwind$?SetAdvise@?$IViewObjectExImpl@VCOPOSBumpBar@@@ATL@@UEAAJKKPEAUIAdviseSink@@@Z 0000000180031434     BumpBar.obj
 0002:0000b434       $unwind$?Term@CComModule@ATL@@QEAAXXZ 0000000180031434     BumpBar.obj
 0002:0000b434       $unwind$DllMain            0000000180031434     BumpBar.obj
 0002:0000b434       $unwind$??1?$IConnectionPointImpl@VCOPOSBumpBar@@$1?DIID__IOPOSBumpBarEvents@@3U_GUID@@BVCComDynamicUnkArray@ATL@@@ATL@@QEAA@XZ 0000000180031434     BumpBarImpl.obj
 0002:0000b434       $unwind$??1?$IConnectionPointImpl@VCOPOSBumpBar@@$1?IID_IPropertyNotifySink@@3U_GUID@@BVCComDynamicUnkArray@ATL@@@ATL@@QEAA@XZ 0000000180031434     BumpBarImpl.obj
 0002:0000b434       $unwind$?SetBSTR@OposVariant@@QEAAXPEA_WAEAJ@Z 0000000180031434     OposVariant.obj
 0002:0000b434       $unwind$?SetLONG@OposVariant@@QEAAXJ@Z 0000000180031434     OposVariant.obj
 0002:0000b434       $unwind$?SetVARIANT_BOOL@OposVariant@@QEAAXF@Z 0000000180031434     OposVariant.obj
 0002:0000b434       $unwind$??$common_initialize_environment_nolock@D@@YAHXZ 0000000180031434     libucrt:environment_initialization.obj
 0002:0000b434       $unwind$_realloc_base      0000000180031434     libucrt:realloc_base.obj
 0002:0000b434       $unwind$?replace_current_thread_locale_nolock@@YAXQEAU__acrt_ptd@@QEAU__crt_locale_data@@@Z 0000000180031434     libucrt:per_thread_data.obj
 0002:0000b434       $unwind$__acrt_execute_uninitializers 0000000180031434     libucrt:shared_initialization.obj
 0002:0000b434       $unwind$__acrt_LocaleNameToLCID 0000000180031434     libucrt:winapi_thunks.obj
 0002:0000b434       $unwind$?free_crt_array_internal@@YAXQEAPEBX_K@Z 0000000180031434     libucrt:inittime.obj
 0002:0000b434       $unwind$_updatetlocinfoEx_nolock 0000000180031434     libucrt:locale_refcounting.obj
 0002:0000b434       $unwind$__acrt_uninitialize_lowio 0000000180031434     libucrt:ioinit.obj
 0002:0000b434       $unwind$?setSBCS@@YAXPEAU__crt_multibyte_data@@@Z 0000000180031434     libucrt:mbctype.obj
 0002:0000b434       $unwind$_initterm_e        0000000180031434     libucrt:initterm.obj
 0002:0000b434       $unwind$??0CAtlBaseModule@ATL@@QEAA@XZ 0000000180031434     atls:atlbase.obj
 0002:0000b434       $unwind$??$GetProcAddressAll@P6AP6A_JPEAUHWND__@@I_K_J@ZPEAUAtlThunkData_t@@@Z@@YAP6AP6A_JPEAUHWND__@@I_K_J@ZPEAUAtlThunkData_t@@@ZPEAP6AP6A_J0I12@Z3@Z@Z 0000000180031434     atls:atlthunk.obj
 0002:0000b434       $unwind$??$GetProcAddressAll@P6APEAUAtlThunkData_t@@XZ@@YAP6APEAUAtlThunkData_t@@XZPEAP6APEAU0@XZ@Z 0000000180031434     atls:atlthunk.obj
 0002:0000b434       $unwind$??$GetProcAddressAll@P6AXPEAUAtlThunkData_t@@@Z@@YAP6AXPEAUAtlThunkData_t@@@ZPEAP6AX0@Z@Z 0000000180031434     atls:atlthunk.obj
 0002:0000b434       $unwind$??$GetProcAddressAll@P6AXPEAUAtlThunkData_t@@PEAX_K@Z@@YAP6AXPEAUAtlThunkData_t@@PEAX_K@ZPEAP6AX012@Z@Z 0000000180031434     atls:atlthunk.obj
 0002:0000b434       $unwind$?__AllocStdCallThunk_cmn@@YAPEAXXZ 0000000180031434     atls:atlthunk.obj
 0002:0000b434       $unwind$?__InitializeThunkPool@@YAHXZ 0000000180031434     atls:atlthunk.obj
 0002:0000b434       $unwind$AtlThunk_DataToCode 0000000180031434     atls:atlthunk.obj
 0002:0000b434       $unwind$_RTC_Initialize    0000000180031434     LIBCMT:initsect.obj
 0002:0000b434       $unwind$_RTC_Terminate     0000000180031434     LIBCMT:initsect.obj
 0002:0000b434       $unwind$?__scrt_initialize_thread_safe_statics@@YAHXZ 0000000180031434     LIBCMT:thread_safe_statics.obj
 0002:0000b434       $unwind$??_Gbad_alloc@std@@UEAAPEAXI@Z 0000000180031434     LIBCMT:throw_bad_alloc.obj
 0002:0000b434       $unwind$??_Gbad_array_new_length@std@@UEAAPEAXI@Z 0000000180031434     LIBCMT:throw_bad_alloc.obj
 0002:0000b434       $unwind$??_Gexception@std@@UEAAPEAXI@Z 0000000180031434     LIBCMT:throw_bad_alloc.obj
 0002:0000b434       $unwind$__C_specific_handler_noexcept 0000000180031434     libvcruntime:chandler_noexcept.obj
 0002:0000b434       $unwind$__FrameUnwindFilter 0000000180031434     libvcruntime:ehhelpers.obj
 0002:0000b434       $unwind$?SetUnwindTryBlock@__FrameHandler3@@SAXPEA_KPEAU_xDISPATCHER_CONTEXT@@PEBU_s_FuncInfo@@H@Z 0000000180031434     libvcruntime:ehstate.obj
 0002:0000b434       $unwind$??_Gbad_exception@std@@UEAAPEAXI@Z 0000000180031434     libvcruntime:frame.obj
 0002:0000b434       $unwind$?ExFilterRethrow@@YAHPEAU_EXCEPTION_POINTERS@@PEAUEHExceptionRecord@@PEAH@Z 0000000180031434     libvcruntime:frame.obj
 0002:0000b434       $unwind$?ExFilterRethrowFH4@@YAHPEAU_EXCEPTION_POINTERS@@PEAUEHExceptionRecord@@HPEAH@Z 0000000180031434     libvcruntime:frame.obj
 0002:0000b434       $unwind$_FindAndUnlinkFrame 0000000180031434     libvcruntime:risctrnsctrl.obj
 0002:0000b434       $unwind$__vcrt_FlsSetValue 0000000180031434     libvcruntime:winapi_downlevel.obj
 0002:0000b440       $unwind$?ChangeBSTR@OposVariant@@QEAAXPEAPEA_WAEAJ@Z 0000000180031440     OposVariant.obj
 0002:0000b440       $unwind$?ChangeLONG@OposVariant@@QEAAXPEAJAEAJ@Z 0000000180031440     OposVariant.obj
 0002:0000b440       $unwind$?x_ismbbtype_l@@YAHPEAU__crt_locale_pointers@@IHH@Z 0000000180031440     libucrt:ismbbyte.obj
 0002:0000b450       $unwind$swprintf_s         0000000180031450     BumpBar.obj
 0002:0000b460       $unwind$?_AtlVerifyStackAvailable@_ATL_SAFE_ALLOCA_IMPL@ATL@@YA_N_K@Z 0000000180031460     BumpBar.obj
 0002:0000b48c       $unwind$?filt$0@?0??_AtlVerifyStackAvailable@_ATL_SAFE_ALLOCA_IMPL@ATL@@YA_N_K@Z@4HA 000000018003148c     BumpBar.obj
 0002:0000b48c       $unwind$_query_new_handler$fin$0 000000018003148c     libucrt:new_handler.obj
 0002:0000b48c       $unwind$?fin$0@?0???$?RV<lambda_0ae27a3a962d80f24befdcbee591983d>@@AEAV<lambda_8d0ee55de4b1038c4002e0adecdf1839>@@V<lambda_dc504788e8f1664fe9b84e20bfb512f2>@@@?$__crt_seh_guarded_call@X@@QEAAX$$QEAV<lambda_0ae27a3a962d80f24befdcbee591983d>@@AEAV<lambda_8d0ee55de4b1038c4002e0adecdf1839>@@$$QEAV<lambda_dc504788e8f1664fe9b84e20bfb512f2>@@@Z@4HA 000000018003148c     libucrt:per_thread_data.obj
 0002:0000b48c       $unwind$?fin$0@?0???$?RV<lambda_2d41944a1d46af3157314b8a01080d33>@@AEAV<lambda_8f455de75cd7d7f24b4096f044d8b9e6>@@V<lambda_aa500f224e6afead328df44964fe2772>@@@?$__crt_seh_guarded_call@X@@QEAAX$$QEAV<lambda_2d41944a1d46af3157314b8a01080d33>@@AEAV<lambda_8f455de75cd7d7f24b4096f044d8b9e6>@@$$QEAV<lambda_aa500f224e6afead328df44964fe2772>@@@Z@4HA 000000018003148c     libucrt:per_thread_data.obj
 0002:0000b48c       $unwind$?fin$0@?0???$?RV<lambda_aa87e3671a710a21b5dc78c0bdf72e11>@@AEAV<lambda_92619d2358a28f41a33ba319515a20b9>@@V<lambda_6992ecaafeb10aed2b74cb1fae11a551>@@@?$__crt_seh_guarded_call@X@@QEAAX$$QEAV<lambda_aa87e3671a710a21b5dc78c0bdf72e11>@@AEAV<lambda_92619d2358a28f41a33ba319515a20b9>@@$$QEAV<lambda_6992ecaafeb10aed2b74cb1fae11a551>@@@Z@4HA 000000018003148c     libucrt:per_thread_data.obj
 0002:0000b48c       $unwind$?fin$0@?0???$?RV<lambda_f2e299630e499de9f9a165e60fcd3db5>@@AEAV<lambda_2ae9d31cdba2644fcbeaf08da7c24588>@@V<lambda_40d01ff24d0e7b3814fdbdcee8eab3c7>@@@?$__crt_seh_guarded_call@X@@QEAAX$$QEAV<lambda_f2e299630e499de9f9a165e60fcd3db5>@@AEAV<lambda_2ae9d31cdba2644fcbeaf08da7c24588>@@$$QEAV<lambda_40d01ff24d0e7b3814fdbdcee8eab3c7>@@@Z@4HA 000000018003148c     libucrt:per_thread_data.obj
 0002:0000b48c       $unwind$__acrt_update_thread_locale_data$fin$0 000000018003148c     libucrt:locale_refcounting.obj
 0002:0000b48c       $unwind$?fin$0@?0???$?RV<lambda_410d79af7f07d98d83a3f525b3859a53>@@AEAV<lambda_3e16ef9562a7dcce91392c22ab16ea36>@@V<lambda_38119f0e861e05405d8a144b9b982f0a>@@@?$__crt_seh_guarded_call@X@@QEAAX$$QEAV<lambda_410d79af7f07d98d83a3f525b3859a53>@@AEAV<lambda_3e16ef9562a7dcce91392c22ab16ea36>@@$$QEAV<lambda_38119f0e861e05405d8a144b9b982f0a>@@@Z@4HA 000000018003148c     libucrt:wsetlocale.obj
 0002:0000b48c       $unwind$?fin$0@?0???$?RV<lambda_ad8af0d99a0adf03d037d7dffe354bb5>@@AEAV<lambda_c9ba49e555ba839a7b07aa3fbecb7617>@@V<lambda_2f1ebd5d68526518146ae959c9e734c8>@@@?$__crt_seh_guarded_call@H@@QEAAH$$QEAV<lambda_ad8af0d99a0adf03d037d7dffe354bb5>@@AEAV<lambda_c9ba49e555ba839a7b07aa3fbecb7617>@@$$QEAV<lambda_2f1ebd5d68526518146ae959c9e734c8>@@@Z@4HA 000000018003148c     libucrt:close.obj
 0002:0000b48c       $unwind$?fin$0@?0???$?RV<lambda_a37b2b86f63e897a80ea819b0eb08c01>@@AEAV<lambda_38ce7e780aa69e748d6df282ebc68efe>@@V<lambda_99fb1378e971ab6e7edea83e3a7a83a2>@@@?$__crt_seh_guarded_call@H@@QEAAH$$QEAV<lambda_a37b2b86f63e897a80ea819b0eb08c01>@@AEAV<lambda_38ce7e780aa69e748d6df282ebc68efe>@@$$QEAV<lambda_99fb1378e971ab6e7edea83e3a7a83a2>@@@Z@4HA 000000018003148c     libucrt:commit.obj
 0002:0000b48c       $unwind$__acrt_initialize_lowio$fin$0 000000018003148c     libucrt:ioinit.obj
 0002:0000b48c       $unwind$__acrt_lowio_ensure_fh_exists$fin$0 000000018003148c     libucrt:osfinfo.obj
 0002:0000b48c       $unwind$?fin$0@?0???$?RV<lambda_efdfa57d1f175319df784efa44bb7b81>@@AEAV<lambda_5f0a4c1567f8adc6734073e5d1e1b35c>@@V<lambda_2e8a7d3640ea6ccb4c2413664c2db6fd>@@@?$__crt_seh_guarded_call@X@@QEAAX$$QEAV<lambda_efdfa57d1f175319df784efa44bb7b81>@@AEAV<lambda_5f0a4c1567f8adc6734073e5d1e1b35c>@@$$QEAV<lambda_2e8a7d3640ea6ccb4c2413664c2db6fd>@@@Z@4HA 000000018003148c     libucrt:mbctype.obj
 0002:0000b48c       $unwind$?fin$0@?0??update_thread_multibyte_data_internal@@YAPEAU__crt_multibyte_data@@QEAU__acrt_ptd@@QEAPEAU1@@Z@4HA 000000018003148c     libucrt:mbctype.obj
 0002:0000b48c       $unwind$?fin$0@?0???$?RV<lambda_450d765d439847d4c735a33c368b5fc0>@@AEAV<lambda_44731a7d0e6d81c3e6aa82d741081786>@@V<lambda_601a2a7da3b7a96e9554ac7215c4b07c>@@@?$__crt_seh_guarded_call@P6AXH@Z@@QEAAP6AXH@Z$$QEAV<lambda_450d765d439847d4c735a33c368b5fc0>@@AEAV<lambda_44731a7d0e6d81c3e6aa82d741081786>@@$$QEAV<lambda_601a2a7da3b7a96e9554ac7215c4b07c>@@@Z@4HA 000000018003148c     libucrt:signal.obj
 0002:0000b48c       $unwind$raise$fin$0        000000018003148c     libucrt:signal.obj
 0002:0000b48c       $unwind$?filt$0@?0???R<lambda_6e4b09c48022b2350581041d5f6b0c4c>@@QEBA@XZ@4HA 000000018003148c     libucrt:exit.obj
 0002:0000b48c       $unwind$?fin$0@?0???$?RV<lambda_d80eeec6fff315bfe5c115232f3240e3>@@AEAV<lambda_6e4b09c48022b2350581041d5f6b0c4c>@@V<lambda_2358e3775559c9db80273638284d5e45>@@@?$__crt_seh_guarded_call@X@@QEAAX$$QEAV<lambda_d80eeec6fff315bfe5c115232f3240e3>@@AEAV<lambda_6e4b09c48022b2350581041d5f6b0c4c>@@$$QEAV<lambda_2358e3775559c9db80273638284d5e45>@@@Z@4HA 000000018003148c     libucrt:exit.obj
 0002:0000b48c       $unwind$?fin$0@?0???$?RV<lambda_638799b9deba96c50f710eeac98168cd>@@AEAV<lambda_22ebabd17bc4fa466a2aca6d8deb888d>@@V<lambda_a6f7d7db0129f75315ebf26d50c089f1>@@@?$__crt_seh_guarded_call@H@@QEAAH$$QEAV<lambda_638799b9deba96c50f710eeac98168cd>@@AEAV<lambda_22ebabd17bc4fa466a2aca6d8deb888d>@@$$QEAV<lambda_a6f7d7db0129f75315ebf26d50c089f1>@@@Z@4HA 000000018003148c     libucrt:onexit.obj
 0002:0000b48c       $unwind$?fin$0@?0???$?RV<lambda_7777bce6b2f8c936911f934f8298dc43>@@AEAV<lambda_f03950bc5685219e0bcd2087efbe011e>@@V<lambda_3883c3dff614d5e0c5f61bb1ac94921c>@@@?$__crt_seh_guarded_call@H@@QEAAH$$QEAV<lambda_7777bce6b2f8c936911f934f8298dc43>@@AEAV<lambda_f03950bc5685219e0bcd2087efbe011e>@@$$QEAV<lambda_3883c3dff614d5e0c5f61bb1ac94921c>@@@Z@4HA 000000018003148c     libucrt:onexit.obj
 0002:0000b48c       $unwind$_fcloseall$fin$0   000000018003148c     libucrt:closeall.obj
 0002:0000b48c       $unwind$?fin$0@?0???$?RV<lambda_842d9ff0dc9ef11c61343bbaebe7f885>@@AEAV<lambda_c5860995281e5c4ce005b3de8f5874ee>@@V<lambda_d90129c13df834fdcbf8d2b88dafcf2d>@@@?$__crt_seh_guarded_call@X@@QEAAX$$QEAV<lambda_842d9ff0dc9ef11c61343bbaebe7f885>@@AEAV<lambda_c5860995281e5c4ce005b3de8f5874ee>@@$$QEAV<lambda_d90129c13df834fdcbf8d2b88dafcf2d>@@@Z@4HA 000000018003148c     libucrt:fflush.obj
 0002:0000b48c       $unwind$?fin$0@?0???$?RV<lambda_886d6c58226a84441f68b9f2b8217b83>@@AEAV<lambda_ab61a845afdef5b7c387490eaf3616ee>@@V<lambda_f7f22ab5edc0698d5f6905b0d3f44752>@@@?$__crt_seh_guarded_call@X@@QEAAX$$QEAV<lambda_886d6c58226a84441f68b9f2b8217b83>@@AEAV<lambda_ab61a845afdef5b7c387490eaf3616ee>@@$$QEAV<lambda_f7f22ab5edc0698d5f6905b0d3f44752>@@@Z@4HA 000000018003148c     libucrt:fflush.obj
 0002:0000b48c       $unwind$_ctrlfp$filt$0     000000018003148c     libucrt:fpctrl.obj
 0002:0000b48c       $unwind$common_control87$filt$0 000000018003148c     libucrt:ieee.obj
 0002:0000b48c       $unwind$?fin$0@?0??dllmain_crt_process_attach@@YAHQEAUHINSTANCE__@@QEAX@Z@4HA 000000018003148c     LIBCMT:dll_dllmain.obj
 0002:0000b48c       $unwind$?fin$0@?0??dllmain_crt_process_detach@@YAH_N@Z@4HA 000000018003148c     LIBCMT:dll_dllmain.obj
 0002:0000b48c       $unwind$?fin$1@?0??dllmain_crt_process_detach@@YAH_N@Z@4HA 000000018003148c     LIBCMT:dll_dllmain.obj
 0002:0000b48c       $unwind$_IsNonwritableInCurrentImage$filt$0 000000018003148c     LIBCMT:pesect.obj
 0002:0000b48c       $unwind$?filt$0@?0??CxxCallCatchBlock@__FrameHandler3@@SAPEAXPEAU_EXCEPTION_RECORD@@@Z@4HA 000000018003148c     libvcruntime:frame.obj
 0002:0000b48c       $unwind$?filt$0@?0??CxxCallCatchBlock@__FrameHandler4@@SAPEAXPEAU_EXCEPTION_RECORD@@@Z@4HA 000000018003148c     libvcruntime:frame.obj
 0002:0000b48c       $unwind$?filt$0@?0??FrameUnwindToState@__FrameHandler3@@SAXPEA_KPEAU_xDISPATCHER_CONTEXT@@PEBU_s_FuncInfo@@H@Z@4HA 000000018003148c     libvcruntime:frame.obj
 0002:0000b48c       $unwind$?fin$1@?0??FrameUnwindToState@__FrameHandler3@@SAXPEA_KPEAU_xDISPATCHER_CONTEXT@@PEBU_s_FuncInfo@@H@Z@4HA 000000018003148c     libvcruntime:frame.obj
 0002:0000b494       $unwind$?AtlInternalOleLoadFromStream@ATL@@YAJPEAUIStream@@AEBU_GUID@@PEAPEAXTClassesAllowedInStream@1@K@Z 0000000180031494     BumpBar.obj
 0002:0000b4b0       $unwind$?ReadFromStream@CComBSTR@ATL@@QEAAJPEAUIStream@@@Z 00000001800314b0     BumpBar.obj
 0002:0000b4b0       $unwind$_configure_narrow_argv 00000001800314b0     libucrt:argv_parsing.obj
 0002:0000b4c4       $unwind$?WriteToStream@CComVariant@ATL@@QEAAJPEAUIStream@@@Z 00000001800314c4     BumpBar.obj
 0002:0000b4d8       $unwind$?RegOpenKeyExW@CAtlTransactionManager@ATL@@QEAAJPEAUHKEY__@@PEB_WKKPEAPEAU3@@Z 00000001800314d8     BumpBar.obj
 0002:0000b4d8       $unwind$?WriteToStream@CComVariant@ATL@@QEAAJPEAUIStream@@G@Z 00000001800314d8     BumpBar.obj
 0002:0000b4d8       $unwind$__dcrt_write_console 00000001800314d8     libucrt:initcon.obj
 0002:0000b4d8       $unwind$??$__acrt_convert_wcs_mbs_cp@_WDV<lambda_f788ae46380686e8b737efdd8c720d07>@@U__crt_win32_buffer_no_resizing@@@@YAHQEB_WAEAV?$__crt_win32_buffer@DU__crt_win32_buffer_no_resizing@@@@AEBV<lambda_f788ae46380686e8b737efdd8c720d07>@@I@Z 00000001800314d8     libucrt:getmodulefilenamea.obj
 0002:0000b4ec       $unwind$?ReadFromStream@CComVariant@ATL@@QEAAJPEAUIStream@@GTClassesAllowedInStream@2@K@Z 00000001800314ec     BumpBar.obj
 0002:0000b504       $unwind$?GetSizeMax@CComVariant@ATL@@QEBAJPEAT_ULARGE_INTEGER@@@Z 0000000180031504     BumpBar.obj
 0002:0000b518       $unwind$?RegCreateKeyExW@CAtlTransactionManager@ATL@@QEAAJPEAUHKEY__@@PEB_WKPEA_WKKQEAU_SECURITY_ATTRIBUTES@@PEAPEAU3@PEAK@Z 0000000180031518     BumpBar.obj
 0002:0000b52c       $unwind$?GetGITPtr@CAtlModule@ATL@@UEAAJPEAPEAUIGlobalInterfaceTable@@@Z 000000018003152c     BumpBar.obj
 0002:0000b52c       $unwind$?RegDeleteKeyW@CAtlTransactionManager@ATL@@QEAAJPEAUHKEY__@@PEB_W@Z 000000018003152c     BumpBar.obj
 0002:0000b52c       $unwind$?getStateFromIterators@UWMap4@FH4@@SAHAEBViterator@12@H0H0@Z 000000018003152c     libvcruntime:frame.obj
 0002:0000b53c       $unwind$?AtlHiMetricToPixel@ATL@@YAXPEBUtagSIZE@@PEAU2@@Z 000000018003153c     BumpBar.obj
 0002:0000b53c       $unwind$?AtlInternalQueryInterface@ATL@@YAJPEAXPEBU_ATL_INTMAP_ENTRY@1@AEBU_GUID@@PEAPEAX@Z 000000018003153c     BumpBar.obj
 0002:0000b554       $unwind$?Append@CParseBuffer@CRegParser@ATL@@QEAAHPEB_WH@Z 0000000180031554     BumpBar.obj
 0002:0000b554       $unwind$?AtlComModuleGetClassObject@ATL@@YAJPEAU_ATL_COM_MODULE70@1@AEBU_GUID@@1PEAPEAX@Z 0000000180031554     BumpBar.obj
 0002:0000b554       $unwind$?GetClassObject@CComModule@ATL@@QEAAJAEBU_GUID@@0PEAPEAX@Z 0000000180031554     BumpBar.obj
 0002:0000b554       $unwind$?NextToken@CRegParser@ATL@@IEAAJPEA_W@Z 0000000180031554     BumpBar.obj
 0002:0000b554       $unwind$?StartWindowProc@?$CWindowImplBaseT@VCWindow@ATL@@V?$CWinTraits@$0FGAAAAAA@$0A@@2@@ATL@@SA_JPEAUHWND__@@I_K_J@Z 0000000180031554     BumpBar.obj
 0002:0000b554       $unwind$?fp_format_f_internal@@YAHQEAD_KHQEAU_strflt@@_NAEAV__crt_cached_ptd_host@@@Z 0000000180031554     libucrt:cvt.obj
 0002:0000b554       $unwind$__acrt_DownlevelLocaleNameToLCID 0000000180031554     libucrt:lcidtoname_downlevel.obj
 0002:0000b554       $unwind$??R<lambda_f03950bc5685219e0bcd2087efbe011e>@@QEBAHXZ 0000000180031554     libucrt:onexit.obj
 0002:0000b56c       $unwind$?AtlRegisterClassCategoriesHelper@ATL@@YAJAEBU_GUID@@PEBU_ATL_CATMAP_ENTRY@1@H@Z 000000018003156c     BumpBar.obj
 0002:0000b590       $unwind$?AtlLoadTypeLib@ATL@@YAJPEAUHINSTANCE__@@PEB_WPEAPEA_WPEAPEAUITypeLib@@@Z 0000000180031590     BumpBar.obj
 0002:0000b5b0       $unwind$?AtlRegisterTypeLib@ATL@@YAJPEAUHINSTANCE__@@PEB_W@Z 00000001800315b0     BumpBar.obj
 0002:0000b5cc       $unwind$?AtlUnRegisterTypeLib@ATL@@YAJPEAUHINSTANCE__@@PEB_W@Z 00000001800315cc     BumpBar.obj
 0002:0000b5d4       $unwind$?GetTI@CComTypeInfoHolder@ATL@@QEAAJK@Z 00000001800315d4     BumpBar.obj
 0002:0000b5d4       $unwind$?RecurseDeleteKey@CRegKey@ATL@@QEAAJPEB_W@Z 00000001800315d4     BumpBar.obj
 0002:0000b5f4       $unwind$?UpdateRegistryFromResource@CAtlModule@ATL@@QEAAJIHPEAU_ATL_REGMAP_ENTRY@2@@Z 00000001800315f4     BumpBar.obj
 0002:0000b5f4       $unwind$?UpdateRegistryFromResource@CAtlModule@ATL@@QEAAJPEB_WHPEAU_ATL_REGMAP_ENTRY@2@@Z 00000001800315f4     BumpBar.obj
 0002:0000b614       $unwind$?Lookup@?$CSimpleMap@PEA_WPEA_WVCExpansionVectorEqualHelper@ATL@@@ATL@@QEBAPEA_WAEBQEA_W@Z 0000000180031614     BumpBar.obj
 0002:0000b614       $unwind$_free_osfhnd       0000000180031614     libucrt:osfinfo.obj
 0002:0000b614       $unwind$__std_exception_copy 0000000180031614     libvcruntime:std_exception.obj
 0002:0000b628       $unwind$?Add@CExpansionVector@ATL@@QEAAHPEB_W0@Z 0000000180031628     BumpBar.obj
 0002:0000b640       $unwind$?PreProcessBuffer@CRegParser@ATL@@QEAAJPEA_WPEAPEA_W@Z 0000000180031640     BumpBar.obj
 0002:0000b664       $unwind$?RegisterBuffer@CRegParser@ATL@@QEAAJPEA_WH@Z 0000000180031664     BumpBar.obj
 0002:0000b684       $unwind$?AddValue@CRegParser@ATL@@IEAAJAEAVCRegKey@2@PEB_WPEA_W@Z 0000000180031684     BumpBar.obj
 0002:0000b6a4       $unwind$?RegisterSubkeys@CRegParser@ATL@@IEAAJPEA_WPEAUHKEY__@@HH@Z 00000001800316a4     BumpBar.obj
 0002:0000b6c4       $unwind$?SkipAssignment@CRegParser@ATL@@IEAAJPEA_W@Z 00000001800316c4     BumpBar.obj
 0002:0000b6e0       $unwind$?RegisterFromResource@CRegObject@ATL@@IEAAJPEB_W00H@Z 00000001800316e0     BumpBar.obj
 0002:0000b700       $unwind$?Cleanup@CComTypeInfoHolder@ATL@@SAX_K@Z 0000000180031700     BumpBar.obj
 0002:0000b700       $unwind$_free_base         0000000180031700     libucrt:free_base.obj
 0002:0000b700       $unwind$?destroy_fls@@YAXPEAX@Z 0000000180031700     libucrt:per_thread_data.obj
 0002:0000b700       $unwind$__acrt_locale_free_numeric 0000000180031700     libucrt:initnum.obj
 0002:0000b700       $unwind$__acrt_locale_free_lc_time_if_unreferenced 0000000180031700     libucrt:locale_refcounting.obj
 0002:0000b700       $unwind$AtlThunk_FreeData  0000000180031700     atls:atlthunk.obj
 0002:0000b708       $unwind$?GetIDsOfNames@CComTypeInfoHolder@ATL@@QEAAJAEBU_GUID@@PEAPEA_WIKPEAJ@Z 0000000180031708     BumpBar.obj
 0002:0000b724       $unwind$?LoadNameCache@CComTypeInfoHolder@ATL@@QEAAJPEAUITypeInfo@@@Z 0000000180031724     BumpBar.obj
 0002:0000b73c       $unwind$?WindowProc@?$CWindowImplBaseT@VCWindow@ATL@@V?$CWinTraits@$0FGAAAAAA@$0A@@2@@ATL@@SA_JPEAUHWND__@@I_K_J@Z 000000018003173c     BumpBar.obj
 0002:0000b754       $unwind$?atlCreate@?$CWindowImplBaseT@VCWindow@ATL@@V?$CWinTraits@$0FGAAAAAA@$0A@@2@@ATL@@QEAAPEAUHWND__@@PEAU3@V_U_RECT@2@PEB_WKKV_U_MENUorID@2@GPEAX@Z 0000000180031754     BumpBar.obj
 0002:0000b76c       $unwind$??$AtlModuleRegisterWndClassInfoT@VAtlModuleRegisterWndClassInfoParamW@ATL@@@ATL@@YAGPEAU_ATL_BASE_MODULE70@0@PEAU_ATL_WIN_MODULE70@0@PEAU_ATL_WNDCLASSINFOW@0@PEAP6A_JPEAUHWND__@@I_K_J@ZVAtlModuleRegisterWndClassInfoParamW@0@@Z 000000018003176c     BumpBar.obj
 0002:0000b78c       $unwind$?GetZoomInfo@CComControlBase@ATL@@QEAAXAEAUATL_DRAWINFO@@@Z 000000018003178c     BumpBar.obj
 0002:0000b78c       $unwind$?OnKillFocus@CComControlBase@ATL@@QEAA_JI_K_JAEAH@Z 000000018003178c     BumpBar.obj
 0002:0000b78c       $unwind$?get_raw_ptd@__crt_cached_ptd_host@@QEAAPEAU__acrt_ptd@@XZ 000000018003178c     libucrt:invalid_parameter.obj
 0002:0000b798       $unwind$?SendOnDataChange@CComControlBase@ATL@@QEAAJK@Z 0000000180031798     BumpBar.obj
 0002:0000b7a8       $unwind$?OnSetFocus@CComControlBase@ATL@@QEAA_JI_K_JAEAH@Z 00000001800317a8     BumpBar.obj
 0002:0000b7bc       $unwind$?OnMouseActivate@CComControlBase@ATL@@QEAA_JI_K_JAEAH@Z 00000001800317bc     BumpBar.obj
 0002:0000b7c4       $unwind$?GetAmbientLocaleID@CComControlBase@ATL@@QEAAJAEAK@Z 00000001800317c4     BumpBar.obj
 0002:0000b7c4       $unwind$?GetAmbientUserMode@CComControlBase@ATL@@QEAAJAEAH@Z 00000001800317c4     BumpBar.obj
 0002:0000b7d4       $unwind$?IQuickActivate_QuickActivate@CComControlBase@ATL@@QEAAJPEAUtagQACONTAINER@@PEAUtagQACONTROL@@@Z 00000001800317d4     BumpBar.obj
 0002:0000b7ec       $unwind$?DoVerbProperties@CComControlBase@ATL@@QEAAJPEBUtagRECT@@PEAUHWND__@@@Z 00000001800317ec     BumpBar.obj
 0002:0000b804       $unwind$?InPlaceActivate@CComControlBase@ATL@@QEAAJJPEBUtagRECT@@@Z 0000000180031804     BumpBar.obj
 0002:0000b824       $unwind$?IOleObject_Close@CComControlBase@ATL@@QEAAJK@Z 0000000180031824     BumpBar.obj
 0002:0000b824       $unwind$?get_raw_ptd_noexit@__crt_cached_ptd_host@@QEAAPEAU__acrt_ptd@@XZ 0000000180031824     libucrt:invalid_parameter.obj
 0002:0000b824       $unwind$?type_case_c_tchar@?$output_processor@_WV?$string_output_adapter@_W@__crt_stdio_output@@V?$format_validation_base@_WV?$string_output_adapter@_W@__crt_stdio_output@@@2@@__crt_stdio_output@@AEAA_N_W@Z 0000000180031824     libucrt:output.obj
 0002:0000b834       $unwind$?IOleInPlaceObject_UIDeactivate@CComControlBase@ATL@@QEAAJXZ 0000000180031834     BumpBar.obj
 0002:0000b84c       $unwind$?IOleInPlaceObject_SetObjectRects@CComControlBase@ATL@@QEAAJPEBUtagRECT@@0@Z 000000018003184c     BumpBar.obj
 0002:0000b860       $unwind$?IViewObject_Draw@CComControlBase@ATL@@QEAAJKJPEAXPEAUtagDVTARGETDEVICE@@PEAUHDC__@@2PEBU_RECTL@@3@Z 0000000180031860     BumpBar.obj
 0002:0000b87c       $unwind$?IDataObject_GetData@CComControlBase@ATL@@QEAAJPEAUtagFORMATETC@@PEAUtagSTGMEDIUM@@@Z 000000018003187c     BumpBar.obj
 0002:0000b89c       $unwind$?OnPaint@CComControlBase@ATL@@QEAA_JI_K_JAEAH@Z 000000018003189c     BumpBar.obj
 0002:0000b8b8       $unwind$?OnDrawAdvanced@CComControlBase@ATL@@UEAAJAEAUATL_DRAWINFO@@@Z 00000001800318b8     BumpBar.obj
 0002:0000b8d4       $unwind$?Invoke@?$IDispatchImpl@UIOPOSBumpBar@@$1?IID_IOPOSBumpBar@@3U_GUID@@B$1?LIBID_OposBumpBar_CCO@@3U3@B$00$0A@VCComTypeInfoHolder@ATL@@@ATL@@UEAAJJAEBU_GUID@@KGPEAUtagDISPPARAMS@@PEAUtagVARIANT@@PEAUtagEXCEPINFO@@PEAI@Z 00000001800318d4     BumpBar.obj
 0002:0000b8d4       $unwind$?ReleaseDevice@COPOSBumpBar@@UEAAJPEAJ@Z 00000001800318d4     BumpBarImpl.obj
 0002:0000b8d4       $unwind$_mbsdec_l          00000001800318d4     libucrt:mbsdec.obj
 0002:0000b8e0       $unwind$?atlCreate@?$CWindowImpl@VCOPOSBumpBar@@VCWindow@ATL@@V?$CWinTraits@$0FGAAAAAA@$0A@@3@@ATL@@QEAAPEAUHWND__@@PEAU3@V_U_RECT@2@PEB_WKKV_U_MENUorID@2@PEAX@Z 00000001800318e0     BumpBar.obj
 0002:0000b8e0       $unwind$?fp_format_f@@YAHQEBNQEAD_K12HW4__acrt_rounding_mode@@AEAV__crt_cached_ptd_host@@@Z 00000001800318e0     libucrt:cvt.obj
 0002:0000b8e0       $unwind$__acrt_LCMapStringEx 00000001800318e0     libucrt:winapi_thunks.obj
 0002:0000b8f4       $unwind$?CreateControlWindow@?$CComControl@VCOPOSBumpBar@@V?$CWindowImpl@VCOPOSBumpBar@@VCWindow@ATL@@V?$CWinTraits@$0FGAAAAAA@$0A@@3@@ATL@@@ATL@@UEAAPEAUHWND__@@PEAU3@AEAUtagRECT@@@Z 00000001800318f4     BumpBar.obj
 0002:0000b8f4       $unwind$?ClearInput@COPOSBumpBar@@UEAAJPEAJ@Z 00000001800318f4     BumpBarImpl.obj
 0002:0000b8f4       $unwind$?ClearOutput@COPOSBumpBar@@UEAAJPEAJ@Z 00000001800318f4     BumpBarImpl.obj
 0002:0000b8f4       $unwind$_raise_exc         00000001800318f4     libucrt:fpexcept.obj
 0002:0000b8f4       $unwind$?__scrt_throw_std_bad_alloc@@YAXXZ 00000001800318f4     LIBCMT:throw_bad_alloc.obj
 0002:0000b8f4       $unwind$?__scrt_throw_std_bad_array_new_length@@YAXXZ 00000001800318f4     LIBCMT:throw_bad_alloc.obj
 0002:0000b8fc       $unwind$?ProcessWindowMessage@?$CComControl@VCOPOSBumpBar@@V?$CWindowImpl@VCOPOSBumpBar@@VCWindow@ATL@@V?$CWinTraits@$0FGAAAAAA@$0A@@3@@ATL@@@ATL@@UEAAHPEAUHWND__@@I_K_JAEA_JK@Z 00000001800318fc     BumpBar.obj
 0002:0000b904       $unwind$?GetSizeMax@?$IPersistStreamInitImpl@VCOPOSBumpBar@@@ATL@@UEAAJPEAT_ULARGE_INTEGER@@@Z 0000000180031904     BumpBar.obj
 0002:0000b91c       $unwind$?IPersistStreamInit_Load@?$IPersistStreamInitImpl@VCOPOSBumpBar@@@ATL@@QEAAJPEAUIStream@@PEBUATL_PROPMAP_ENTRY@2@@Z 000000018003191c     BumpBar.obj
 0002:0000b938       $unwind$?IPersistStreamInit_Save@?$IPersistStreamInitImpl@VCOPOSBumpBar@@@ATL@@QEAAJPEAUIStream@@HPEBUATL_PROPMAP_ENTRY@2@@Z 0000000180031938     BumpBar.obj
 0002:0000b954       $unwind$?DoVerbPrimary@?$IOleObjectImpl@VCOPOSBumpBar@@@ATL@@QEAAJPEBUtagRECT@@PEAUHWND__@@@Z 0000000180031954     BumpBar.obj
 0002:0000b96c       $unwind$?TranslateAcceleratorW@?$IOleInPlaceActiveObjectImpl@VCOPOSBumpBar@@@ATL@@UEAAJPEAUtagMSG@@@Z 000000018003196c     BumpBar.obj
 0002:0000b978       $unwind$?Draw@?$IViewObjectExImpl@VCOPOSBumpBar@@@ATL@@UEAAJKJPEAXPEAUtagDVTARGETDEVICE@@PEAUHDC__@@2PEBU_RECTL@@3P6AH_K@Z4@Z 0000000180031978     BumpBar.obj
 0002:0000b980       $unwind$?QueryHitRect@?$IViewObjectExImpl@VCOPOSBumpBar@@@ATL@@UEAAJKPEBUtagRECT@@0JPEAK@Z 0000000180031980     BumpBar.obj
 0002:0000b990       $unwind$?OnWindowMessage@?$IOleInPlaceObjectWindowlessImpl@VCOPOSBumpBar@@@ATL@@UEAAJI_K_JPEA_J@Z 0000000180031990     BumpBar.obj
 0002:0000b9a4       $unwind$?EnumConnectionPoints@?$IConnectionPointContainerImpl@VCOPOSBumpBar@@@ATL@@UEAAJPEAPEAUIEnumConnectionPoints@@@Z 00000001800319a4     BumpBar.obj
 0002:0000b9cc       $unwind$?FindConnectionPoint@?$IConnectionPointContainerImpl@VCOPOSBumpBar@@@ATL@@UEAAJAEBU_GUID@@PEAPEAUIConnectionPoint@@@Z 00000001800319cc     BumpBar.obj
 0002:0000b9e8       $unwind$?Load@?$IPersistStorageImpl@VCOPOSBumpBar@@@ATL@@UEAAJPEAUIStorage@@@Z 00000001800319e8     BumpBar.obj
 0002:0000b9f8       $unwind$?Save@?$IPersistStorageImpl@VCOPOSBumpBar@@@ATL@@UEAAJPEAUIStorage@@H@Z 00000001800319f8     BumpBar.obj
 0002:0000ba0c       $unwind$?IPSI_GetIPersistStreamInit@?$IPersistStorageImpl@VCOPOSBumpBar@@@ATL@@AEAAPEAUIPersistStreamInit@@XZ 0000000180031a0c     BumpBar.obj
 0002:0000ba20       $unwind$?GetInterfaceSafetyOptions@?$IObjectSafetyImpl@VCOPOSBumpBar@@$02@ATL@@UEAAJAEBU_GUID@@PEAK1@Z 0000000180031a20     BumpBar.obj
 0002:0000ba34       $unwind$?SetInterfaceSafetyOptions@?$IObjectSafetyImpl@VCOPOSBumpBar@@$02@ATL@@UEAAJAEBU_GUID@@KK@Z 0000000180031a34     BumpBar.obj
 0002:0000ba48       $unwind$?Advise@?$IConnectionPointImpl@VCOPOSBumpBar@@$1?DIID__IOPOSBumpBarEvents@@3U_GUID@@BVCComDynamicUnkArray@ATL@@@ATL@@UEAAJPEAUIUnknown@@PEAK@Z 0000000180031a48     BumpBar.obj
 0002:0000ba48       $unwind$?Advise@?$IConnectionPointImpl@VCOPOSBumpBar@@$1?IID_IPropertyNotifySink@@3U_GUID@@BVCComDynamicUnkArray@ATL@@@ATL@@UEAAJPEAUIUnknown@@PEAK@Z 0000000180031a48     BumpBar.obj
 0002:0000ba5c       $unwind$?EnumConnections@?$IConnectionPointImpl@VCOPOSBumpBar@@$1?DIID__IOPOSBumpBarEvents@@3U_GUID@@BVCComDynamicUnkArray@ATL@@@ATL@@UEAAJPEAPEAUIEnumConnections@@@Z 0000000180031a5c     BumpBar.obj
 0002:0000ba5c       $unwind$?EnumConnections@?$IConnectionPointImpl@VCOPOSBumpBar@@$1?IID_IPropertyNotifySink@@3U_GUID@@BVCComDynamicUnkArray@ATL@@@ATL@@UEAAJPEAPEAUIEnumConnections@@@Z 0000000180031a5c     BumpBar.obj
 0002:0000ba74       $unwind$?Fire_DataEvent@?$CProxy_IOPOSEvents@VCOPOSBumpBar@@@@QEAAXJ@Z 0000000180031a74     BumpBar.obj
 0002:0000ba74       $unwind$?Fire_OutputCompleteEvent@?$CProxy_IOPOSEvents@VCOPOSBumpBar@@@@QEAAXJ@Z 0000000180031a74     BumpBar.obj
 0002:0000ba74       $unwind$?Fire_StatusUpdateEvent@?$CProxy_IOPOSEvents@VCOPOSBumpBar@@@@QEAAXJ@Z 0000000180031a74     BumpBar.obj
 0002:0000ba74       $unwind$?fp_format_e@@YAHQEBNQEAD_K12H_NIW4__acrt_rounding_mode@@AEAV__crt_cached_ptd_host@@@Z 0000000180031a74     libucrt:cvt.obj
 0002:0000ba74       $unwind$??$__InternalCxxFrameHandler@V__FrameHandler3@@@@YA?AW4_EXCEPTION_DISPOSITION@@PEAUEHExceptionRecord@@PEA_KPEAU_CONTEXT@@PEAU_xDISPATCHER_CONTEXT@@PEBU_s_FuncInfo@@H1E@Z 0000000180031a74     libvcruntime:frame.obj
 0002:0000ba8c       $unwind$?Fire_DirectIOEvent@?$CProxy_IOPOSEvents@VCOPOSBumpBar@@@@QEAAXJPEAJPEAPEA_W@Z 0000000180031a8c     BumpBar.obj
 0002:0000baac       $unwind$?Fire_ErrorEvent@?$CProxy_IOPOSEvents@VCOPOSBumpBar@@@@QEAAXJJJPEAJ@Z 0000000180031aac     BumpBar.obj
 0002:0000bacc       $unwind$?FireTheEvent@?$CProxy_IOPOSEvents@VCOPOSBumpBar@@@@IEAAXPEAVOposVariant@@IAEAJPEB_WJ@Z 0000000180031acc     BumpBar.obj
 0002:0000badc       $unwind$?ProcessWindowMessage@COPOSBumpBar@@UEAAHPEAUHWND__@@I_K_JAEA_JK@Z 0000000180031adc     BumpBar.obj
 0002:0000baf4       $unwind$?SOError@COPOSBumpBar@@MEAAJJJJPEAJ@Z 0000000180031af4     BumpBar.obj
 0002:0000baf4       $unwind$??$common_lseek_nolock@_J@@YA_JH_JHAEAV__crt_cached_ptd_host@@@Z 0000000180031af4     libucrt:lseek.obj
 0002:0000baf4       $unwind$_invalid_parameter_internal 0000000180031af4     libucrt:invalid_parameter.obj
 0002:0000baf4       $unwind$??$type_case_integer@$07@?$output_processor@_WV?$string_output_adapter@_W@__crt_stdio_output@@V?$format_validation_base@_WV?$string_output_adapter@_W@__crt_stdio_output@@@2@@__crt_stdio_output@@AEAA_N_N@Z 0000000180031af4     libucrt:output.obj
 0002:0000baf4       $unwind$??$type_case_integer@$09@?$output_processor@_WV?$string_output_adapter@_W@__crt_stdio_output@@V?$format_validation_base@_WV?$string_output_adapter@_W@__crt_stdio_output@@@2@@__crt_stdio_output@@AEAA_N_N@Z 0000000180031af4     libucrt:output.obj
 0002:0000baf4       $unwind$??$type_case_integer@$0BA@@?$output_processor@_WV?$string_output_adapter@_W@__crt_stdio_output@@V?$format_validation_base@_WV?$string_output_adapter@_W@__crt_stdio_output@@@2@@__crt_stdio_output@@AEAA_N_N@Z 0000000180031af4     libucrt:output.obj
 0002:0000bb08       $unwind$?Clone@?$CComEnumImpl@UIEnumConnectionPoints@@$1?_GUID_b196b285_bab4_101a_b69c_00aa00341d07@@3U__s_GUID@@BPEAUIConnectionPoint@@V?$_CopyInterface@UIConnectionPoint@@@ATL@@@ATL@@UEAAJPEAPEAUIEnumConnectionPoints@@@Z 0000000180031b08     BumpBar.obj
 0002:0000bb08       $unwind$?Clone@?$CComEnumImpl@UIEnumConnections@@$1?_GUID_b196b287_bab4_101a_b69c_00aa00341d07@@3U__s_GUID@@BUtagCONNECTDATA@@V?$_Copy@UtagCONNECTDATA@@@ATL@@@ATL@@UEAAJPEAPEAUIEnumConnections@@@Z 0000000180031b08     BumpBar.obj
 0002:0000bb20       $unwind$?Init@?$CComEnumImpl@UIEnumConnectionPoints@@$1?_GUID_b196b285_bab4_101a_b69c_00aa00341d07@@3U__s_GUID@@BPEAUIConnectionPoint@@V?$_CopyInterface@UIConnectionPoint@@@ATL@@@ATL@@QEAAJPEAPEAUIConnectionPoint@@0PEAUIUnknown@@W4CComEnumFlags@2@@Z 0000000180031b20     BumpBar.obj
 0002:0000bb20       $unwind$?Init@?$CComEnumImpl@UIEnumConnections@@$1?_GUID_b196b287_bab4_101a_b69c_00aa00341d07@@3U__s_GUID@@BUtagCONNECTDATA@@V?$_Copy@UtagCONNECTDATA@@@ATL@@@ATL@@QEAAJPEAUtagCONNECTDATA@@0PEAUIUnknown@@W4CComEnumFlags@2@@Z 0000000180031b20     BumpBar.obj
 0002:0000bb20       $unwind$?should_round_up@@YA_NQEBN_KFW4__acrt_rounding_mode@@@Z 0000000180031b20     libucrt:cvt.obj
 0002:0000bb20       $unwind$??$parse_command_line@D@@YAXPEADPEAPEAD0PEA_K2@Z 0000000180031b20     libucrt:argv_parsing.obj
 0002:0000bb3c       $unwind$?GetOposProp@COPOSBumpBar@@IEAAJJPEAJJ@Z 0000000180031b3c     BumpBarImpl.obj
 0002:0000bb3c       $unwind$?GetOposProp@COPOSBumpBar@@IEAAJJPEAPEA_WJ@Z 0000000180031b3c     BumpBarImpl.obj
 0002:0000bb54       $unwind$?SetOposProp@COPOSBumpBar@@IEAAJJJJ@Z 0000000180031b54     BumpBarImpl.obj
 0002:0000bb74       $unwind$?DoInvoke@COPOSBumpBar@@IEAAJJPEAVOposVariant@@IHPEAJ_N@Z 0000000180031b74     BumpBarImpl.obj
 0002:0000bb8c       $unwind$?SetCOFreezeEvents@COPOSBumpBar@@IEAAXF@Z 0000000180031b8c     BumpBarImpl.obj
 0002:0000bba0       $unwind$?OnDraw@COPOSBumpBar@@MEAAJAEAUATL_DRAWINFO@@@Z 0000000180031ba0     BumpBarImpl.obj
 0002:0000bbb8       $unwind$?EventInit@COPOSBumpBar@@IEAAJXZ 0000000180031bb8     BumpBarImpl.obj
 0002:0000bbcc       $unwind$?EventWindowProc@COPOSBumpBar@@IEAA_JI_K_J@Z 0000000180031bcc     BumpBarImpl.obj
 0002:0000bbcc       $unwind$?type_case_n@?$output_processor@_WV?$string_output_adapter@_W@__crt_stdio_output@@V?$format_validation_base@_WV?$string_output_adapter@_W@__crt_stdio_output@@@2@@__crt_stdio_output@@AEAA_NXZ 0000000180031bcc     libucrt:output.obj
 0002:0000bbd8       $unwind$?get_ControlObjectDescription@COPOSBumpBar@@UEAAJPEAPEA_W@Z 0000000180031bd8     BumpBarImpl.obj
 0002:0000bbd8       $unwind$__dcrt_lowio_ensure_console_output_initialized 0000000180031bd8     libucrt:initcon.obj
 0002:0000bbd8       $unwind$?__mbrtowc_utf8@__crt_mbstring@@YA_KPEA_WPEBD_KPEAU_Mbstatet@@AEAV__crt_cached_ptd_host@@@Z 0000000180031bd8     libucrt:mbrtowc.obj
 0002:0000bbd8       $unwind$?getSystemCP@@YAHH@Z 0000000180031bd8     libucrt:mbctype.obj
 0002:0000bbe0       $unwind$?CheckHealth@COPOSBumpBar@@UEAAJJPEAJ@Z 0000000180031be0     BumpBarImpl.obj
 0002:0000bbe0       $unwind$?ResetStatistics@COPOSBumpBar@@UEAAJPEA_WPEAJ@Z 0000000180031be0     BumpBarImpl.obj
 0002:0000bbe0       $unwind$?RetrieveStatistics@COPOSBumpBar@@UEAAJPEAPEA_WPEAJ@Z 0000000180031be0     BumpBarImpl.obj
 0002:0000bbe0       $unwind$?UpdateFirmware@COPOSBumpBar@@UEAAJPEA_WPEAJ@Z 0000000180031be0     BumpBarImpl.obj
 0002:0000bbe0       $unwind$?UpdateStatistics@COPOSBumpBar@@UEAAJPEA_WPEAJ@Z 0000000180031be0     BumpBarImpl.obj
 0002:0000bbf0       $unwind$?ClaimDevice@COPOSBumpBar@@UEAAJJPEAJ@Z 0000000180031bf0     BumpBarImpl.obj
 0002:0000bc00       $unwind$?Close@COPOSBumpBar@@UEAAJPEAJ@Z 0000000180031c00     BumpBarImpl.obj
 0002:0000bc0c       $unwind$?DirectIO@COPOSBumpBar@@UEAAJJPEAJPEAPEA_W0@Z 0000000180031c0c     BumpBarImpl.obj
 0002:0000bc28       $unwind$?Open@COPOSBumpBar@@UEAAJPEA_WPEAJ@Z 0000000180031c28     BumpBarImpl.obj
 0002:0000bc4c       $unwind$?BumpBarSound@COPOSBumpBar@@UEAAJJJJJJPEAJ@Z 0000000180031c4c     BumpBarImpl.obj
 0002:0000bc68       $unwind$?SetKeyTranslation@COPOSBumpBar@@UEAAJJJJPEAJ@Z 0000000180031c68     BumpBarImpl.obj
 0002:0000bc84       $unwind$?CompareFirmwareVersion@COPOSBumpBar@@UEAAJPEA_WPEAJ1@Z 0000000180031c84     BumpBarImpl.obj
 0002:0000bc84       $unwind$?initialize_inherited_file_handles_nolock@@YAXXZ 0000000180031c84     libucrt:ioinit.obj
 0002:0000bca0       $unwind$__scrt_is_nonwritable_in_current_image 0000000180031ca0     LIBCMT:utility.obj
 0002:0000bcc0       $unwind$__scrt_is_nonwritable_in_current_image$filt$0 0000000180031cc0     LIBCMT:utility.obj
 0002:0000bcc8       $unwind$__report_securityfailure 0000000180031cc8     LIBCMT:gs_report.obj
 0002:0000bcd0       $unwind$__report_gsfailure 0000000180031cd0     LIBCMT:gs_report.obj
 0002:0000bcd8       $unwind$capture_current_context 0000000180031cd8     LIBCMT:gs_report.obj
 0002:0000bce4       $unwind$capture_previous_context 0000000180031ce4     LIBCMT:gs_report.obj
 0002:0000bcf0       $unwind$??2@YAPEAX_KAEBUnothrow_t@std@@@Z 0000000180031cf0     LIBCMT:new_scalar_nothrow.obj
 0002:0000bd00       $cppxdata$??2@YAPEAX_KAEBUnothrow_t@std@@@Z 0000000180031d00     LIBCMT:new_scalar_nothrow.obj
 0002:0000bd0d       $stateUnwindMap$??2@YAPEAX_KAEBUnothrow_t@std@@@Z 0000000180031d0d     LIBCMT:new_scalar_nothrow.obj
 0002:0000bd10       $tryMap$??2@YAPEAX_KAEBUnothrow_t@std@@@Z 0000000180031d10     LIBCMT:new_scalar_nothrow.obj
 0002:0000bd18       $handlerMap$??2@YAPEAX_KAEBUnothrow_t@std@@@Z 0000000180031d18     LIBCMT:new_scalar_nothrow.obj
 0002:0000bd20       $ip2state$??2@YAPEAX_KAEBUnothrow_t@std@@@Z 0000000180031d20     LIBCMT:new_scalar_nothrow.obj
 0002:0000bd24       $unwind$?catch$0@?0???2@YAPEAX_KAEBUnothrow_t@std@@@Z@4HA 0000000180031d24     LIBCMT:new_scalar_nothrow.obj
 0002:0000bd34       $cppxdata$?catch$0@?0???2@YAPEAX_KAEBUnothrow_t@std@@@Z@4HA 0000000180031d34     LIBCMT:new_scalar_nothrow.obj
 0002:0000bd3e       $stateUnwindMap$?catch$0@?0???2@YAPEAX_KAEBUnothrow_t@std@@@Z@4HA 0000000180031d3e     LIBCMT:new_scalar_nothrow.obj
 0002:0000bd40       $ip2state$?catch$0@?0???2@YAPEAX_KAEBUnothrow_t@std@@@Z@4HA 0000000180031d40     LIBCMT:new_scalar_nothrow.obj
 0002:0000bd44       $unwind$__GSHandlerCheckCommon 0000000180031d44     LIBCMT:gshandler.obj
 0002:0000bd50       $xdatasym                  0000000180031d50     LIBCMT:chkstk.obj
 0002:0000bd58       $xdatasym                  0000000180031d58     LIBCMT:amdsecgs.obj
 0002:0000bd5c       $unwind$?dllmain_crt_process_attach@@YAHQEAUHINSTANCE__@@QEAX@Z 0000000180031d5c     LIBCMT:dll_dllmain.obj
 0002:0000bd98       $unwind$?dllmain_crt_process_detach@@YAH_N@Z 0000000180031d98     LIBCMT:dll_dllmain.obj
 0002:0000bdec       $unwind$?dllmain_dispatch@@YAHQEAUHINSTANCE__@@KQEAX@Z 0000000180031dec     LIBCMT:dll_dllmain.obj
 0002:0000be14       $unwind$_write_internal$fin$0 0000000180031e14     libucrt:write.obj
 0002:0000be14       $unwind$?fin$0@?0??_fclose_internal@@YAHQEAU_iobuf@@AEAV__crt_cached_ptd_host@@@Z@4HA 0000000180031e14     libucrt:fclose.obj
 0002:0000be14       $unwind$?filt$0@?0??dllmain_dispatch@@YAHQEAUHINSTANCE__@@KQEAX@Z@4HA 0000000180031e14     LIBCMT:dll_dllmain.obj
 0002:0000be14       $unwind$?filt$0@?0??FrameUnwindToState@__FrameHandler4@@SAXPEA_KPEAU_xDISPATCHER_CONTEXT@@PEAUFuncInfo4@FH4@@H@Z@4HA 0000000180031e14     libvcruntime:frame.obj
 0002:0000be14       $unwind$?fin$1@?0??FrameUnwindToState@__FrameHandler4@@SAXPEA_KPEAU_xDISPATCHER_CONTEXT@@PEAUFuncInfo4@FH4@@H@Z@4HA 0000000180031e14     libvcruntime:frame.obj
 0002:0000be1c       $unwind$__isa_available_init 0000000180031e1c     LIBCMT:cpu_disp.obj
 0002:0000be2c       $unwind$__scrt_fastfail    0000000180031e2c     LIBCMT:utility_desktop.obj
 0002:0000be3c       $unwind$__security_init_cookie 0000000180031e3c     LIBCMT:gs_support.obj
 0002:0000be48       $xdatasym                  0000000180031e48     LIBCMT:guard_dispatch.obj
 0002:0000be50       $xdatasym                  0000000180031e50     LIBCMT:guard_xfg_dispatch.obj
 0002:0000be54       $unwind$AtlThunk_InitData  0000000180031e54     atls:atlthunk.obj
 0002:0000be68       $unwind$wcsstr             0000000180031e68     libvcruntime:wcsstr.obj
 0002:0000be80       $xdatasym                  0000000180031e80     libvcruntime:memcmp.obj
 0002:0000be88       $xdatasym                  0000000180031e88     libvcruntime:memcpy.obj
 0002:0000be98       $xdatasym                  0000000180031e98     libvcruntime:memset.obj
 0002:0000bea8       $unwind$__C_specific_handler 0000000180031ea8     libvcruntime:riscchandler.obj
 0002:0000bea8       $unwind$?GetRangeOfTrysToCheck@__FrameHandler3@@SA?AU?$pair@Viterator@TryBlockMap@__FrameHandler3@@V123@@std@@AEAVTryBlockMap@1@HPEAU_xDISPATCHER_CONTEXT@@PEBU_s_FuncInfo@@H@Z 0000000180031ea8     libvcruntime:risctrnsctrl.obj
 0002:0000bec4       $unwind$?StateFromIp@__FrameHandler4@@SAHPEAUFuncInfo4@FH4@@PEAU_xDISPATCHER_CONTEXT@@_K@Z 0000000180031ec4     libvcruntime:ehstate.obj
 0002:0000bec4       $unwind$?DecompFuncInfo@FH4@@YA_JPEAEAEAUFuncInfo4@1@_KH_N@Z 0000000180031ec4     libvcruntime:risctrnsctrl.obj
 0002:0000bedc       $unwind$?GetEstablisherFrame@__FrameHandler3@@SAPEA_KPEA_KPEAU_xDISPATCHER_CONTEXT@@PEBU_s_FuncInfo@@0@Z 0000000180031edc     libvcruntime:risctrnsctrl.obj
 0002:0000bef4       $unwind$?UnwindNestedFrames@__FrameHandler3@@SAXPEA_KPEAUEHExceptionRecord@@PEAU_CONTEXT@@0PEAXPEBU_s_FuncInfo@@HHPEBU_s_HandlerType@@PEAU_xDISPATCHER_CONTEXT@@E@Z 0000000180031ef4     libvcruntime:risctrnsctrl.obj
 0002:0000bef4       $unwind$?UnwindNestedFrames@__FrameHandler4@@SAXPEA_KPEAUEHExceptionRecord@@PEAU_CONTEXT@@0PEAXPEAUFuncInfo4@FH4@@HHPEAUHandlerType4@5@PEAU_xDISPATCHER_CONTEXT@@E@Z 0000000180031ef4     libvcruntime:risctrnsctrl.obj
 0002:0000bf08       $unwind$?GetRangeOfTrysToCheck@__FrameHandler4@@SA?AU?$pair@Viterator@TryBlockMap4@FH4@@V123@@std@@AEAVTryBlockMap4@FH4@@HPEAU_xDISPATCHER_CONTEXT@@PEAUFuncInfo4@5@H@Z 0000000180031f08     libvcruntime:risctrnsctrl.obj
 0002:0000bf24       $unwind$__CxxFrameHandler3 0000000180031f24     libvcruntime:risctrnsctrl.obj
 0002:0000bf38       $unwind$__CxxFrameHandler4 0000000180031f38     libvcruntime:risctrnsctrl.obj
 0002:0000bf4c       $unwind$??$_CallSETranslator@V__FrameHandler4@@@@YAHPEAUEHExceptionRecord@@PEA_KPEAU_CONTEXT@@PEAU_xDISPATCHER_CONTEXT@@PEAUFuncInfo4@FH4@@K1H@Z 0000000180031f4c     libvcruntime:risctrnsctrl.obj
 0002:0000bf6c       $unwind$?filt$0@?0???$_CallSETranslator@V__FrameHandler3@@@@YAHPEAUEHExceptionRecord@@PEA_KPEAU_CONTEXT@@PEAU_xDISPATCHER_CONTEXT@@PEBU_s_FuncInfo@@K1H@Z@4HA 0000000180031f6c     libvcruntime:risctrnsctrl.obj
 0002:0000bf6c       $unwind$?filt$0@?0???$_CallSETranslator@V__FrameHandler4@@@@YAHPEAUEHExceptionRecord@@PEA_KPEAU_CONTEXT@@PEAU_xDISPATCHER_CONTEXT@@PEAUFuncInfo4@FH4@@K1H@Z@4HA 0000000180031f6c     libvcruntime:risctrnsctrl.obj
 0002:0000bf78       $unwind$??$_CallSETranslator@V__FrameHandler3@@@@YAHPEAUEHExceptionRecord@@PEA_KPEAU_CONTEXT@@PEAU_xDISPATCHER_CONTEXT@@PEBU_s_FuncInfo@@K1H@Z 0000000180031f78     libvcruntime:risctrnsctrl.obj
 0002:0000bf98       $unwind$__DestructExceptionObject 0000000180031f98     libvcruntime:ehhelpers.obj
 0002:0000bfb8       $unwind$__DestructExceptionObject$filt$0 0000000180031fb8     libvcruntime:ehhelpers.obj
 0002:0000bfb8       $unwind$?fin$1@?0??CxxCallCatchBlock@__FrameHandler3@@SAPEAXPEAU_EXCEPTION_RECORD@@@Z@4HA 0000000180031fb8     libvcruntime:frame.obj
 0002:0000bfb8       $unwind$?fin$1@?0??CxxCallCatchBlock@__FrameHandler4@@SAPEAXPEAU_EXCEPTION_RECORD@@@Z@4HA 0000000180031fb8     libvcruntime:frame.obj
 0002:0000bfc4       $unwind$_CxxThrowException 0000000180031fc4     libvcruntime:throw.obj
 0002:0000bfd8       $xdatasym                  0000000180031fd8     libvcruntime:notify.obj
 0002:0000bfe4       $unwind$?getStartStop@UWMap4@FH4@@QEAAXHHAEAViterator@12@0@Z 0000000180031fe4     libvcruntime:frame.obj
 0002:0000bffc       $unwind$?FrameUnwindToState@__FrameHandler3@@SAXPEA_KPEAU_xDISPATCHER_CONTEXT@@PEBU_s_FuncInfo@@H@Z 0000000180031ffc     libvcruntime:frame.obj
 0002:0000c048       $unwind$?CxxCallCatchBlock@__FrameHandler3@@SAPEAXPEAU_EXCEPTION_RECORD@@@Z 0000000180032048     libvcruntime:frame.obj
 0002:0000c084       $unwind$?FrameUnwindToState@__FrameHandler4@@SAXPEA_KPEAU_xDISPATCHER_CONTEXT@@PEAUFuncInfo4@FH4@@H@Z 0000000180032084     libvcruntime:frame.obj
 0002:0000c0cc       $unwind$?CxxCallCatchBlock@__FrameHandler4@@SAPEAXPEAU_EXCEPTION_RECORD@@@Z 00000001800320cc     libvcruntime:frame.obj
 0002:0000c128       $unwind$?IsInExceptionSpec@@YAEPEAUEHExceptionRecord@@PEBU_s_ESTypeList@@@Z 0000000180032128     libvcruntime:frame.obj
 0002:0000c144       $unwind$??$__InternalCxxFrameHandler@V__FrameHandler4@@@@YA?AW4_EXCEPTION_DISPOSITION@@PEAUEHExceptionRecord@@PEA_KPEAU_CONTEXT@@PEAU_xDISPATCHER_CONTEXT@@PEAUFuncInfo4@FH4@@H1E@Z 0000000180032144     libvcruntime:frame.obj
 0002:0000c15c       $unwind$??$BuildCatchObjectHelperInternal@V__FrameHandler3@@@@YAHPEAUEHExceptionRecord@@PEAXPEBU_s_HandlerType@@PEBU_s_CatchableType@@@Z 000000018003215c     libvcruntime:frame.obj
 0002:0000c19c       $unwind$??$BuildCatchObjectHelperInternal@V__FrameHandler4@@@@YAHPEAUEHExceptionRecord@@PEAXPEAUHandlerType4@FH4@@PEBU_s_CatchableType@@@Z 000000018003219c     libvcruntime:frame.obj
 0002:0000c1dc       $unwind$??$BuildCatchObjectInternal@V__FrameHandler3@@@@YAXPEAUEHExceptionRecord@@PEAXPEBU_s_HandlerType@@PEBU_s_CatchableType@@@Z 00000001800321dc     libvcruntime:frame.obj
 0002:0000c208       $unwind$??$BuildCatchObjectInternal@V__FrameHandler4@@@@YAXPEAUEHExceptionRecord@@PEAXPEAUHandlerType4@FH4@@PEBU_s_CatchableType@@@Z 0000000180032208     libvcruntime:frame.obj
 0002:0000c234       $unwind$??$FindHandler@V__FrameHandler3@@@@YAXPEAUEHExceptionRecord@@PEA_KPEAU_CONTEXT@@PEAU_xDISPATCHER_CONTEXT@@PEBU_s_FuncInfo@@EH1@Z 0000000180032234     libvcruntime:frame.obj
 0002:0000c254       $unwind$??$FindHandler@V__FrameHandler4@@@@YAXPEAUEHExceptionRecord@@PEA_KPEAU_CONTEXT@@PEAU_xDISPATCHER_CONTEXT@@PEAUFuncInfo4@FH4@@EH1@Z 0000000180032254     libvcruntime:frame.obj
 0002:0000c274       $unwind$??$CatchIt@V__FrameHandler3@@@@YAXPEAUEHExceptionRecord@@PEA_KPEAU_CONTEXT@@PEAU_xDISPATCHER_CONTEXT@@PEBU_s_FuncInfo@@PEBU_s_HandlerType@@PEBU_s_CatchableType@@PEBU_s_TryBlockMapEntry@@H1EE@Z 0000000180032274     libvcruntime:frame.obj
 0002:0000c274       $unwind$??$CatchIt@V__FrameHandler4@@@@YAXPEAUEHExceptionRecord@@PEA_KPEAU_CONTEXT@@PEAU_xDISPATCHER_CONTEXT@@PEAUFuncInfo4@FH4@@PEAUHandlerType4@4@PEBU_s_CatchableType@@PEAUTryBlockMapEntry4@4@H1EE@Z 0000000180032274     libvcruntime:frame.obj
 0002:0000c28c       $unwind$??$FindHandlerForForeignException@V__FrameHandler3@@@@YAXPEAUEHExceptionRecord@@PEA_KPEAU_CONTEXT@@PEAU_xDISPATCHER_CONTEXT@@PEBU_s_FuncInfo@@HH1@Z 000000018003228c     libvcruntime:frame.obj
 0002:0000c2a8       $unwind$??$FindHandlerForForeignException@V__FrameHandler4@@@@YAXPEAUEHExceptionRecord@@PEA_KPEAU_CONTEXT@@PEAU_xDISPATCHER_CONTEXT@@PEAUFuncInfo4@FH4@@HH1@Z 00000001800322a8     libvcruntime:frame.obj
 0002:0000c2c8       $unwind$?try_get_function@@YAPEAXW4function_id@?A0x391cf84c@@QEBDQEBW4module_id@2@2@Z 00000001800322c8     libucrt:winapi_thunks.obj
 0002:0000c2c8       $unwind$?try_get_function@@YAPEAXW4function_id@?A0xbc0cc709@@QEBDQEBW4module_id@2@2@Z 00000001800322c8     libvcruntime:winapi_downlevel.obj
 0002:0000c2e8       $xdatasym                  00000001800322e8     libvcruntime:handlers.obj
 0002:0000c308       $unwind$__acrt_call_reportfault 0000000180032308     libucrt:invalid_parameter.obj
 0002:0000c328       $unwind$_invalid_parameter 0000000180032328     libucrt:invalid_parameter.obj
 0002:0000c334       $unwind$_resetstkoflw      0000000180032334     libucrt:resetstk.obj
 0002:0000c358       $unwind$__stdio_common_vswprintf_s 0000000180032358     libucrt:output.obj
 0002:0000c36c       $unwind$?write_string@?$string_output_adapter@_W@__crt_stdio_output@@QEBAXQEB_WHQEAHAEAV__crt_cached_ptd_host@@@Z 000000018003236c     libucrt:output.obj
 0002:0000c384       $unwind$??$common_vsprintf@Vformat_validation_base@__crt_stdio_output@@_W@@YAH_KQEA_W0QEB_WAEAV__crt_cached_ptd_host@@QEAD@Z 0000000180032384     libucrt:output.obj
 0002:0000c3a4       $unwind$?parse_int_from_format_string@?$output_processor@_WV?$string_output_adapter@_W@__crt_stdio_output@@V?$format_validation_base@_WV?$string_output_adapter@_W@__crt_stdio_output@@@2@@__crt_stdio_output@@AEAA_NQEAH@Z 00000001800323a4     libucrt:output.obj
 0002:0000c3b8       $unwind$?state_case_type@?$output_processor@_WV?$string_output_adapter@_W@__crt_stdio_output@@V?$format_validation_base@_WV?$string_output_adapter@_W@__crt_stdio_output@@@2@@__crt_stdio_output@@AEAA_NXZ 00000001800323b8     libucrt:output.obj
 0002:0000c3dc       $unwind$?type_case_a@?$output_processor@_WV?$string_output_adapter@_W@__crt_stdio_output@@V?$format_validation_base@_WV?$string_output_adapter@_W@__crt_stdio_output@@@2@@__crt_stdio_output@@AEAA_NXZ 00000001800323dc     libucrt:output.obj
 0002:0000c3f0       $unwind$??$parse_integer@KV?$c_string_character_source@_W@__crt_strtox@@$0A@@__crt_strtox@@YAKAEAV__crt_cached_ptd_host@@V?$c_string_character_source@_W@0@H_N@Z 00000001800323f0     libucrt:output.obj
 0002:0000c40c       $unwind$?try_cor_exit_process@@YAXI@Z 000000018003240c     libucrt:exit.obj
 0002:0000c420       $ip2state$?try_cor_exit_process@@YAXI@Z 0000000180032420     libucrt:exit.obj
 0002:0000c428       $unwind$?common_exit@@YAXHW4_crt_exit_cleanup_mode@@W4_crt_exit_return_mode@@@Z 0000000180032428     libucrt:exit.obj
 0002:0000c43c       $stateUnwindMap$__dcrt_uninitialize_environments_nolock 000000018003243c     libucrt:environment_initialization.obj
 0002:0000c43c       $stateUnwindMap$?common_exit@@YAXHW4_crt_exit_cleanup_mode@@W4_crt_exit_return_mode@@@Z 000000018003243c     libucrt:exit.obj
 0002:0000c43c       $stateUnwindMap$_execute_onexit_table 000000018003243c     libucrt:onexit.obj
 0002:0000c448       $ip2state$?common_exit@@YAXHW4_crt_exit_cleanup_mode@@W4_crt_exit_return_mode@@@Z 0000000180032448     libucrt:exit.obj
 0002:0000c450       $unwind$??R<lambda_6e4b09c48022b2350581041d5f6b0c4c>@@QEBA@XZ 0000000180032450     libucrt:exit.obj
 0002:0000c470       $unwind$??$?RV<lambda_d80eeec6fff315bfe5c115232f3240e3>@@AEAV<lambda_6e4b09c48022b2350581041d5f6b0c4c>@@V<lambda_2358e3775559c9db80273638284d5e45>@@@?$__crt_seh_guarded_call@X@@QEAAX$$QEAV<lambda_d80eeec6fff315bfe5c115232f3240e3>@@AEAV<lambda_6e4b09c48022b2350581041d5f6b0c4c>@@$$QEAV<lambda_2358e3775559c9db80273638284d5e45>@@@Z 0000000180032470     libucrt:exit.obj
 0002:0000c494       $unwind$__dcrt_uninitialize_environments_nolock 0000000180032494     libucrt:environment_initialization.obj
 0002:0000c4a4       $unwind$??$free_environment@D@@YAXQEAPEAD@Z 00000001800324a4     libucrt:environment_initialization.obj
 0002:0000c4a4       $unwind$??$free_environment@_W@@YAXQEAPEA_W@Z 00000001800324a4     libucrt:environment_initialization.obj
 0002:0000c4a4       $unwind$_initterm          00000001800324a4     libucrt:initterm.obj
 0002:0000c4b0       $unwind$_register_onexit_function 00000001800324b0     libucrt:onexit.obj
 0002:0000c4b8       $unwind$_execute_onexit_table 00000001800324b8     libucrt:onexit.obj
 0002:0000c4c8       $ip2state$_execute_onexit_table 00000001800324c8     libucrt:onexit.obj
 0002:0000c4d0       $unwind$??R<lambda_22ebabd17bc4fa466a2aca6d8deb888d>@@QEBAHXZ 00000001800324d0     libucrt:onexit.obj
 0002:0000c4e8       $unwind$??$?RV<lambda_638799b9deba96c50f710eeac98168cd>@@AEAV<lambda_22ebabd17bc4fa466a2aca6d8deb888d>@@V<lambda_a6f7d7db0129f75315ebf26d50c089f1>@@@?$__crt_seh_guarded_call@H@@QEAAH$$QEAV<lambda_638799b9deba96c50f710eeac98168cd>@@AEAV<lambda_22ebabd17bc4fa466a2aca6d8deb888d>@@$$QEAV<lambda_a6f7d7db0129f75315ebf26d50c089f1>@@@Z 00000001800324e8     libucrt:onexit.obj
 0002:0000c50c       $unwind$??$?RV<lambda_7777bce6b2f8c936911f934f8298dc43>@@AEAV<lambda_f03950bc5685219e0bcd2087efbe011e>@@V<lambda_3883c3dff614d5e0c5f61bb1ac94921c>@@@?$__crt_seh_guarded_call@H@@QEAAH$$QEAV<lambda_7777bce6b2f8c936911f934f8298dc43>@@AEAV<lambda_f03950bc5685219e0bcd2087efbe011e>@@$$QEAV<lambda_3883c3dff614d5e0c5f61bb1ac94921c>@@@Z 000000018003250c     libucrt:onexit.obj
 0002:0000c530       $unwind$_query_new_handler 0000000180032530     libucrt:new_handler.obj
 0002:0000c550       $unwind$terminate          0000000180032550     libucrt:terminate.obj
 0002:0000c570       $xdatasym                  0000000180032570     libucrt:strncmp.obj
 0002:0000c574       $unwind$?construct_ptd_array@@YAXQEAU__acrt_ptd@@@Z 0000000180032574     libucrt:per_thread_data.obj
 0002:0000c57c       $unwind$?destroy_ptd_array@@YAXQEAU__acrt_ptd@@@Z 000000018003257c     libucrt:per_thread_data.obj
 0002:0000c584       $unwind$??$?RV<lambda_0ae27a3a962d80f24befdcbee591983d>@@AEAV<lambda_8d0ee55de4b1038c4002e0adecdf1839>@@V<lambda_dc504788e8f1664fe9b84e20bfb512f2>@@@?$__crt_seh_guarded_call@X@@QEAAX$$QEAV<lambda_0ae27a3a962d80f24befdcbee591983d>@@AEAV<lambda_8d0ee55de4b1038c4002e0adecdf1839>@@$$QEAV<lambda_dc504788e8f1664fe9b84e20bfb512f2>@@@Z 0000000180032584     libucrt:per_thread_data.obj
 0002:0000c5a8       $unwind$??$?RV<lambda_aa87e3671a710a21b5dc78c0bdf72e11>@@AEAV<lambda_92619d2358a28f41a33ba319515a20b9>@@V<lambda_6992ecaafeb10aed2b74cb1fae11a551>@@@?$__crt_seh_guarded_call@X@@QEAAX$$QEAV<lambda_aa87e3671a710a21b5dc78c0bdf72e11>@@AEAV<lambda_92619d2358a28f41a33ba319515a20b9>@@$$QEAV<lambda_6992ecaafeb10aed2b74cb1fae11a551>@@@Z 00000001800325a8     libucrt:per_thread_data.obj
 0002:0000c5cc       $unwind$??$?RV<lambda_f2e299630e499de9f9a165e60fcd3db5>@@AEAV<lambda_2ae9d31cdba2644fcbeaf08da7c24588>@@V<lambda_40d01ff24d0e7b3814fdbdcee8eab3c7>@@@?$__crt_seh_guarded_call@X@@QEAAX$$QEAV<lambda_f2e299630e499de9f9a165e60fcd3db5>@@AEAV<lambda_2ae9d31cdba2644fcbeaf08da7c24588>@@$$QEAV<lambda_40d01ff24d0e7b3814fdbdcee8eab3c7>@@@Z 00000001800325cc     libucrt:per_thread_data.obj
 0002:0000c5f0       $unwind$??$?RV<lambda_2d41944a1d46af3157314b8a01080d33>@@AEAV<lambda_8f455de75cd7d7f24b4096f044d8b9e6>@@V<lambda_aa500f224e6afead328df44964fe2772>@@@?$__crt_seh_guarded_call@X@@QEAAX$$QEAV<lambda_2d41944a1d46af3157314b8a01080d33>@@AEAV<lambda_8f455de75cd7d7f24b4096f044d8b9e6>@@$$QEAV<lambda_aa500f224e6afead328df44964fe2772>@@@Z 00000001800325f0     libucrt:per_thread_data.obj
 0002:0000c614       $unwind$__acrt_uninitialize_locale 0000000180032614     libucrt:wsetlocale.obj
 0002:0000c614       $unwind$__acrt_get_sigabrt_handler 0000000180032614     libucrt:signal.obj
 0002:0000c61c       $unwind$??$?RV<lambda_410d79af7f07d98d83a3f525b3859a53>@@AEAV<lambda_3e16ef9562a7dcce91392c22ab16ea36>@@V<lambda_38119f0e861e05405d8a144b9b982f0a>@@@?$__crt_seh_guarded_call@X@@QEAAX$$QEAV<lambda_410d79af7f07d98d83a3f525b3859a53>@@AEAV<lambda_3e16ef9562a7dcce91392c22ab16ea36>@@$$QEAV<lambda_38119f0e861e05405d8a144b9b982f0a>@@@Z 000000018003261c     libucrt:wsetlocale.obj
 0002:0000c644       $unwind$__acrt_initialize_winapi_thunks 0000000180032644     libucrt:winapi_thunks.obj
 0002:0000c644       $unwind$__acrt_fenv_get_control 0000000180032644     libucrt:_fenvutils.obj
 0002:0000c64c       $unwind$__acrt_fp_format   000000018003264c     libucrt:cvt.obj
 0002:0000c65c       $unwind$?fp_format_e_internal@@YAHQEAD_KH_NIQEAU_strflt@@2AEAV__crt_cached_ptd_host@@@Z 000000018003265c     libucrt:cvt.obj
 0002:0000c678       $unwind$?fp_format_a@@YAHQEBNPEAD_KQEAD2H_NIW4__acrt_rounding_mode@@AEAV__crt_cached_ptd_host@@@Z 0000000180032678     libucrt:cvt.obj
 0002:0000c694       $unwind$?fp_format_g@@YAHQEBNQEAD_K12H_NIW4__acrt_rounding_mode@@AEAV__crt_cached_ptd_host@@@Z 0000000180032694     libucrt:cvt.obj
 0002:0000c6ac       $unwind$__acrt_initialize_lowio 00000001800326ac     libucrt:ioinit.obj
 0002:0000c6cc       $unwind$??$common_expand_argv_wildcards@D@@YAHQEAPEADQEAPEAPEAD@Z 00000001800326cc     libucrt:argv_wildcards.obj
 0002:0000c6e4       $unwind$__dcrt_get_narrow_environment_from_os 00000001800326e4     libucrt:get_environment_from_os.obj
 0002:0000c6e4       $unwind$??$__acrt_convert_wcs_mbs_cp@_WDV<lambda_d8593a27d1aa8c02be35c86a17d324c4>@@U__crt_win32_buffer_internal_dynamic_resizing@@@@YAHQEB_WAEAV?$__crt_win32_buffer@DU__crt_win32_buffer_internal_dynamic_resizing@@@@AEBV<lambda_d8593a27d1aa8c02be35c86a17d324c4>@@I@Z 00000001800326e4     libucrt:argv_wildcards.obj
 0002:0000c6fc       $unwind$??$copy_and_add_argument_to_buffer@D@@YAHQEBD0_KAEAV?$argument_list@D@?A0x5f5c8891@@@Z 00000001800326fc     libucrt:argv_wildcards.obj
 0002:0000c718       $unwind$??$expand_argument_wildcards@D@@YAHQEAD0AEAV?$argument_list@D@?A0x5f5c8891@@@Z 0000000180032718     libucrt:argv_wildcards.obj
 0002:0000c738       $unwind$__acrt_GetModuleFileNameA 0000000180032738     libucrt:getmodulefilenamea.obj
 0002:0000c754       $unwind$_setmbcp_nolock    0000000180032754     libucrt:mbctype.obj
 0002:0000c774       $unwind$?update_thread_multibyte_data_internal@@YAPEAU__crt_multibyte_data@@QEAU__acrt_ptd@@QEAPEAU1@@Z 0000000180032774     libucrt:mbctype.obj
 0002:0000c79c       $unwind$?setmbcp_internal@@YAHH_NQEAU__acrt_ptd@@QEAPEAU__crt_multibyte_data@@@Z 000000018003279c     libucrt:mbctype.obj
 0002:0000c7b4       $unwind$?setSBUpLow@@YAXPEAU__crt_multibyte_data@@@Z 00000001800327b4     libucrt:mbctype.obj
 0002:0000c7d0       $unwind$??$?RV<lambda_efdfa57d1f175319df784efa44bb7b81>@@AEAV<lambda_5f0a4c1567f8adc6734073e5d1e1b35c>@@V<lambda_2e8a7d3640ea6ccb4c2413664c2db6fd>@@@?$__crt_seh_guarded_call@X@@QEAAX$$QEAV<lambda_efdfa57d1f175319df784efa44bb7b81>@@AEAV<lambda_5f0a4c1567f8adc6734073e5d1e1b35c>@@$$QEAV<lambda_2e8a7d3640ea6ccb4c2413664c2db6fd>@@@Z 00000001800327d0     libucrt:mbctype.obj
 0002:0000c7f4       $unwind$__acrt_WideCharToMultiByte 00000001800327f4     libucrt:widechartomultibyte.obj
 0002:0000c800       $unwind$raise              0000000180032800     libucrt:signal.obj
 0002:0000c83c       $unwind$??$?RV<lambda_450d765d439847d4c735a33c368b5fc0>@@AEAV<lambda_44731a7d0e6d81c3e6aa82d741081786>@@V<lambda_601a2a7da3b7a96e9554ac7215c4b07c>@@@?$__crt_seh_guarded_call@P6AXH@Z@@QEAAP6AXH@Z$$QEAV<lambda_450d765d439847d4c735a33c368b5fc0>@@AEAV<lambda_44731a7d0e6d81c3e6aa82d741081786>@@$$QEAV<lambda_601a2a7da3b7a96e9554ac7215c4b07c>@@@Z 000000018003283c     libucrt:signal.obj
 0002:0000c860       $unwind$fclose             0000000180032860     libucrt:fclose.obj
 0002:0000c860       $unwind$_fflush_nolock     0000000180032860     libucrt:fflush.obj
 0002:0000c870       $unwind$?common_flush_all@@YAH_N@Z 0000000180032870     libucrt:fflush.obj
 0002:0000c878       $unwind$??$?RV<lambda_842d9ff0dc9ef11c61343bbaebe7f885>@@AEAV<lambda_c5860995281e5c4ce005b3de8f5874ee>@@V<lambda_d90129c13df834fdcbf8d2b88dafcf2d>@@@?$__crt_seh_guarded_call@X@@QEAAX$$QEAV<lambda_842d9ff0dc9ef11c61343bbaebe7f885>@@AEAV<lambda_c5860995281e5c4ce005b3de8f5874ee>@@$$QEAV<lambda_d90129c13df834fdcbf8d2b88dafcf2d>@@@Z 0000000180032878     libucrt:fflush.obj
 0002:0000c89c       $unwind$??$?RV<lambda_886d6c58226a84441f68b9f2b8217b83>@@AEAV<lambda_ab61a845afdef5b7c387490eaf3616ee>@@V<lambda_f7f22ab5edc0698d5f6905b0d3f44752>@@@?$__crt_seh_guarded_call@X@@QEAAX$$QEAV<lambda_886d6c58226a84441f68b9f2b8217b83>@@AEAV<lambda_ab61a845afdef5b7c387490eaf3616ee>@@$$QEAV<lambda_f7f22ab5edc0698d5f6905b0d3f44752>@@@Z 000000018003289c     libucrt:fflush.obj
 0002:0000c8c4       $unwind$__acrt_update_thread_locale_data 00000001800328c4     libucrt:locale_refcounting.obj
 0002:0000c8e8       $unwind$__acrt_locale_free_monetary 00000001800328e8     libucrt:initmon.obj
 0002:0000c8f0       $unwind$__acrt_locale_free_time 00000001800328f0     libucrt:inittime.obj
 0002:0000c900       $unwind$__acrt_GetStringTypeA 0000000180032900     libucrt:getstringtypea.obj
 0002:0000c928       $unwind$__acrt_fp_strflt_to_string 0000000180032928     libucrt:_fptostr.obj
 0002:0000c944       $unwind$__acrt_fltout      0000000180032944     libucrt:cfout.obj
 0002:0000c964       $unwind$?divide@__crt_strtox@@YA_KAEAUbig_integer@1@AEBU21@@Z 0000000180032964     libucrt:cfout.obj
 0002:0000c97c       $chain$0$?divide@__crt_strtox@@YA_KAEAUbig_integer@1@AEBU21@@Z 000000018003297c     libucrt:cfout.obj
 0002:0000c990       $chain$1$?divide@__crt_strtox@@YA_KAEAUbig_integer@1@AEBU21@@Z 0000000180032990     libucrt:cfout.obj
 0002:0000c9a0       $unwind$?__mbsrtowcs_utf8@__crt_mbstring@@YA_KPEA_WPEAPEBD_KPEAU_Mbstatet@@AEAV__crt_cached_ptd_host@@@Z 00000001800329a0     libucrt:mbrtowc.obj
 0002:0000c9b8       $unwind$_fcloseall         00000001800329b8     libucrt:closeall.obj
 0002:0000c9dc       $unwind$__acrt_lowio_destroy_handle_array 00000001800329dc     libucrt:osfinfo.obj
 0002:0000c9ec       $unwind$__acrt_lowio_ensure_fh_exists 00000001800329ec     libucrt:osfinfo.obj
 0002:0000ca18       $unwind$qsort              0000000180032a18     libucrt:qsort.obj
 0002:0000ca30       $chain$4$qsort             0000000180032a30     libucrt:qsort.obj
 0002:0000ca54       $chain$5$qsort             0000000180032a54     libucrt:qsort.obj
 0002:0000ca64       $unwind$strpbrk            0000000180032a64     libucrt:strpbrk.obj
 0002:0000ca74       $unwind$fallbackMethod     0000000180032a74     libucrt:strpbrk.obj
 0002:0000ca84       $unwind$__acrt_LCMapStringA 0000000180032a84     libucrt:lcmapstringa.obj
 0002:0000ca94       $unwind$?__acrt_LCMapStringA_stat@@YAHPEAU__crt_locale_pointers@@PEB_WKPEBDHPEADHHH@Z 0000000180032a94     libucrt:lcmapstringa.obj
 0002:0000cabc       $unwind$_commit            0000000180032abc     libucrt:commit.obj
 0002:0000cac4       $unwind$??$?RV<lambda_a37b2b86f63e897a80ea819b0eb08c01>@@AEAV<lambda_38ce7e780aa69e748d6df282ebc68efe>@@V<lambda_99fb1378e971ab6e7edea83e3a7a83a2>@@@?$__crt_seh_guarded_call@H@@QEAAH$$QEAV<lambda_a37b2b86f63e897a80ea819b0eb08c01>@@AEAV<lambda_38ce7e780aa69e748d6df282ebc68efe>@@$$QEAV<lambda_99fb1378e971ab6e7edea83e3a7a83a2>@@@Z 0000000180032ac4     libucrt:commit.obj
 0002:0000cae8       $unwind$_write_nolock      0000000180032ae8     libucrt:write.obj
 0002:0000cb00       $unwind$_write_internal    0000000180032b00     libucrt:write.obj
 0002:0000cb30       $unwind$?write_double_translated_ansi_nolock@@YA?AUwrite_result@?A0x17268360@@HQEBDIAEAV__crt_cached_ptd_host@@@Z 0000000180032b30     libucrt:write.obj
 0002:0000cb58       $ip2state$?write_double_translated_ansi_nolock@@YA?AUwrite_result@?A0x17268360@@HQEBDIAEAV__crt_cached_ptd_host@@@Z 0000000180032b58     libucrt:write.obj
 0002:0000cb60       $unwind$?write_text_ansi_nolock@@YA?AUwrite_result@?A0x17268360@@HQEBDI@Z 0000000180032b60     libucrt:write.obj
 0002:0000cb60       $unwind$?write_text_utf16le_nolock@@YA?AUwrite_result@?A0x17268360@@HQEBDI@Z 0000000180032b60     libucrt:write.obj
 0002:0000cb80       $unwind$?write_text_utf8_nolock@@YA?AUwrite_result@?A0x17268360@@HQEBDI@Z 0000000180032b80     libucrt:write.obj
 0002:0000cba8       $xdatasym                  0000000180032ba8     libucrt:log10.obj
 0002:0000cbb4       $unwind$__acrt_fenv_set_control 0000000180032bb4     libucrt:_fenvutils.obj
 0002:0000cbc4       $unwind$?__mbrtoc32_utf8@__crt_mbstring@@YA_KPEA_UPEBD_KPEAU_Mbstatet@@AEAV__crt_cached_ptd_host@@@Z 0000000180032bc4     libucrt:mbrtoc32.obj
 0002:0000cbe0       $unwind$?_fclose_nolock_internal@@YAHQEAU_iobuf@@AEAV__crt_cached_ptd_host@@@Z 0000000180032be0     libucrt:fclose.obj
 0002:0000cbf0       $unwind$?_fclose_internal@@YAHQEAU_iobuf@@AEAV__crt_cached_ptd_host@@@Z 0000000180032bf0     libucrt:fclose.obj
 0002:0000cc14       $unwind$_putwch_nolock     0000000180032c14     libucrt:putwch.obj
 0002:0000cc1c       $unwind$common_control87   0000000180032c1c     libucrt:ieee.obj
 0002:0000cc48       $unwind$_call_matherr      0000000180032c48     libucrt:libm_error.obj
 0002:0000cc50       $unwind$_handle_error      0000000180032c50     libucrt:libm_error.obj
 0002:0000cc70       $unwind$__acrt_initialize_fma3 0000000180032c70     libucrt:fma3_available.obj
 0002:0000cc78       $unwind$_log_special_common 0000000180032c78     libucrt:log_special.obj
 0002:0000cc84       $unwind$_close_internal    0000000180032c84     libucrt:close.obj
 0002:0000cc8c       $unwind$??$?RV<lambda_ad8af0d99a0adf03d037d7dffe354bb5>@@AEAV<lambda_c9ba49e555ba839a7b07aa3fbecb7617>@@V<lambda_2f1ebd5d68526518146ae959c9e734c8>@@@?$__crt_seh_guarded_call@H@@QEAAH$$QEAV<lambda_ad8af0d99a0adf03d037d7dffe354bb5>@@AEAV<lambda_c9ba49e555ba839a7b07aa3fbecb7617>@@$$QEAV<lambda_2f1ebd5d68526518146ae959c9e734c8>@@@Z 0000000180032c8c     libucrt:close.obj
 0002:0000ccb0       $xdatasym                  0000000180032cb0     libucrt:fpsr.obj
 0002:0000ccb8       $unwind$_raise_exc_ex      0000000180032cb8     libucrt:fpexcept.obj
 0002:0000cccc       $unwind$_ctrlfp            0000000180032ccc     libucrt:fpctrl.obj
 0002:0000ccf4       $unwind$_IsNonwritableInCurrentImage 0000000180032cf4     LIBCMT:pesect.obj
 0002:0000cd18       $unwind$strrchr            0000000180032d18     libvcruntime:strrchr.obj
 0002:0000ce80       .edata                     0000000180032e80     OPOSBumpBar.exp
 0002:0000cea8       rgpv                       0000000180032ea8     OPOSBumpBar.exp
 0002:0000ceb8       rgszName                   0000000180032eb8     OPOSBumpBar.exp
 0002:0000cec8       rgwOrd                     0000000180032ec8     OPOSBumpBar.exp
 0002:0000ced0       szName                     0000000180032ed0     OPOSBumpBar.exp
 0002:0000cee0       $N00001                    0000000180032ee0     OPOSBumpBar.exp
 0002:0000cef0       $N00002                    0000000180032ef0     OPOSBumpBar.exp
 0002:0000cf02       $N00003                    0000000180032f02     OPOSBumpBar.exp
 0002:0000cf14       $N00004                    0000000180032f14     OPOSBumpBar.exp
 0002:0000d862       .idata$6                   0000000180033862     kernel32:KERNEL32.dll
 0002:0000da7a       .idata$6                   0000000180033a7a     user32:USER32.dll
 0002:0000dbae       .idata$6                   0000000180033bae     gdi32:GDI32.dll
 0002:0000dc54       .idata$6                   0000000180033c54     advapi32:ADVAPI32.dll
 0002:0000dd70       .idata$6                   0000000180033d70     ole32:ole32.dll
 0002:0000dd7a       .idata$6                   0000000180033d7a     oleaut32:OLEAUT32.dll
 0003:000001c0       ?ObjectMap@@3PAU_ATL_OBJMAP_ENTRY30@ATL@@A 00000001800351c0     BumpBar.obj
 0003:000002c0       ?s_SOMethodNames@@3PAPEADA 00000001800352c0     BumpBarImpl.obj
 0003:00000368       ?s_RequiredMethodsPerRelease@@3PAHA 0000000180035368     BumpBarImpl.obj
 0003:000003c0       ?__vcrt_flsindex@@3KA      00000001800353c0     libvcruntime:per_thread_data.obj
 0003:000003d0       ?errno_no_memory@@3HA      00000001800353d0     libucrt:errno.obj
 0003:000003d4       ?doserrno_no_memory@@3KA   00000001800353d4     libucrt:errno.obj
 0003:000003e0       ?__acrt_flsindex@@3KA      00000001800353e0     libucrt:per_thread_data.obj
 0003:000008a0       _mbctypes                  00000001800358a0     libucrt:mbctype.obj
 0003:000009b0       _mbcasemaps                00000001800359b0     libucrt:mbctype.obj
 0003:00000ab0       ?__rgctypeflag@@3PADA      0000000180035ab0     libucrt:mbctype.obj
 0003:00000ac0       ?__rgcode_page_info@@3PAUcode_page_info@@A 0000000180035ac0     libucrt:mbctype.obj
 0003:00000d60       ?dazSupported@?1??common_control87@@9@9 0000000180035d60     libucrt:ieee.obj
 0003:00000d70       ?__dcrt_lowio_console_output_handle@@3PEAXEA 0000000180035d70     libucrt:initcon.obj
 0003:00000d80       ?dazSupported@?1??_ctrlfp@@9@9 0000000180035d80     libucrt:fpctrl.obj
 0003:00000fd0       ?is_initialized_as_dll@@3_NA 0000000180035fd0     LIBCMT:utility.obj
 0003:00000fd1       ?module_local_atexit_table_initialized@@3_NA 0000000180035fd1     LIBCMT:utility.obj
 0003:00000fd8       ?module_local_atexit_table@@3U_onexit_table_t@@A 0000000180035fd8     LIBCMT:utility.obj
 0003:00000ff0       ?module_local_at_quick_exit_table@@3U_onexit_table_t@@A 0000000180035ff0     LIBCMT:utility.obj
 0003:00001008       ?g_tss_cv@@3U_RTL_CONDITION_VARIABLE@@A 0000000180036008     LIBCMT:thread_safe_statics.obj
 0003:00001010       ?g_tss_event@@3PEAXEA      0000000180036010     LIBCMT:thread_safe_statics.obj
 0003:00001018       ?g_tss_mutex@@3U_RTL_CRITICAL_SECTION@@A 0000000180036018     LIBCMT:thread_safe_statics.obj
 0003:00001040       ?g_sleep_condition_variable_cs@@3P6AHPEAU_RTL_CONDITION_VARIABLE@@PEAU_RTL_CRITICAL_SECTION@@K@ZEA 0000000180036040     LIBCMT:thread_safe_statics.obj
 0003:00001048       ?g_wake_all_condition_variable@@3P6AXPEAU_RTL_CONDITION_VARIABLE@@@ZEA 0000000180036048     LIBCMT:thread_safe_statics.obj
 0003:00001050       GS_ExceptionRecord         0000000180036050     LIBCMT:gs_report.obj
 0003:000010f0       GS_ContextRecord           00000001800360f0     LIBCMT:gs_report.obj
 0003:000015c4       ?__proc_attached@@3HA      00000001800365c4     LIBCMT:dll_dllmain.obj
 0003:00001658       ?AllocateData@@3P6APEAUAtlThunkData_t@@XZEA 0000000180036658     atls:atlthunk.obj
 0003:00001660       ?InitData@@3P6AXPEAUAtlThunkData_t@@PEAX_K@ZEA 0000000180036660     atls:atlthunk.obj
 0003:00001668       ?DataToCode@@3P6AP6A_JPEAUHWND__@@I_K_J@ZPEAUAtlThunkData_t@@@ZEA 0000000180036668     atls:atlthunk.obj
 0003:00001670       ?FreeData@@3P6AXPEAUAtlThunkData_t@@@ZEA 0000000180036670     atls:atlthunk.obj
 0003:00001678       ?Initialized@@3_NA         0000000180036678     atls:atlthunk.obj
 0003:00001690       ?__vcrt_startup_thread_ptd@@3U__vcrt_ptd@@A 0000000180036690     libvcruntime:per_thread_data.obj
 0003:00001710       __vcrt_lock_table          0000000180036710     libvcruntime:locks.obj
 0003:00001738       __vcrt_locks_initialized   0000000180036738     libvcruntime:locks.obj
 0003:00001780       ?heap@@3V_HeapManager@@A   0000000180036780     libvcruntime:undname.obj
 0003:000017a8       ?module_handles@@3PAPEAUHINSTANCE__@@A 00000001800367a8     libvcruntime:winapi_downlevel.obj
 0003:000017c0       ?function_pointers@@3PAPEAXA 00000001800367c0     libvcruntime:winapi_downlevel.obj
 0003:000017e8       ?__acrt_invalid_parameter_handler@@3V?$dual_state_global@P6AXPEB_W00I_K@Z@__crt_state_management@@A 00000001800367e8     libucrt:invalid_parameter.obj
 0003:000017f0       ?c_termination_complete@@3JA 00000001800367f0     libucrt:exit.obj
 0003:000017f8       ?thread_local_exit_callback_func@@3P6AXPEAXK0@ZEA 00000001800367f8     libucrt:exit.obj
 0003:00001810       ?program_name@?1???$common_configure_argv@D@@YAHW4_crt_argv_mode@@@Z@4PADA 0000000180036810     libucrt:argv_parsing.obj
 0003:00001968       ?__acrt_new_handler@@3V?$dual_state_global@P6AH_K@Z@__crt_state_management@@A 0000000180036968     libucrt:new_handler.obj
 0003:00001980       ?module_handles@@3PAPEAUHINSTANCE__@@A 0000000180036980     libucrt:winapi_thunks.obj
 0003:00001a20       ?encoded_function_pointers@@3PAPEAXA 0000000180036a20     libucrt:winapi_thunks.obj
 0003:00001b10       ?internal_state@?1??_mbtowc_internal@@9@4U_Mbstatet@@A 0000000180036b10     libucrt:mbtowc.obj
 0003:00001b28       ?enable_percent_n@@3_KA    0000000180036b28     libucrt:printf_count_output.obj
 0003:00001f50       ?__acrt_lock_table@@3PAU_RTL_CRITICAL_SECTION@@A 0000000180036f50     libucrt:locks.obj
 0003:00002180       ?__acrt_locks_initialized@@3IA 0000000180037180     libucrt:locks.obj
 0003:000021a0       ?fSystemSet@@3HA           00000001800371a0     libucrt:mbctype.obj
 0003:000021a4       ?initialized@?1??__acrt_initialize_multibyte@@9@4_NA 00000001800371a4     libucrt:mbctype.obj
 0003:000021e0       ?ctrlc_action@@3V?$dual_state_global@P6AXH@Z@__crt_state_management@@A 00000001800371e0     libucrt:signal.obj
 0003:000021e8       ?ctrlbreak_action@@3V?$dual_state_global@P6AXH@Z@__crt_state_management@@A 00000001800371e8     libucrt:signal.obj
 0003:000021f0       ?abort_action@@3V?$dual_state_global@P6AXH@Z@__crt_state_management@@A 00000001800371f0     libucrt:signal.obj
 0003:000021f8       ?term_action@@3V?$dual_state_global@P6AXH@Z@__crt_state_management@@A 00000001800371f8     libucrt:signal.obj
 0003:00002200       ?user_matherr@@3V?$dual_state_global@P6AHPEAU_exception@@@Z@__crt_state_management@@A 0000000180037200     libucrt:matherr.obj
 0003:00002210       ?__acrt_global_new_mode@@3V?$dual_state_global@J@__crt_state_management@@A 0000000180037210     libucrt:new_mode.obj
 0003:00002218       ?internal_pst@?1??__mbrtoc32_utf8@__crt_mbstring@@YA_KPEA_UPEBD_KPEAU_Mbstatet@@AEAV__crt_cached_ptd_host@@@Z@4U3@A 0000000180037218     libucrt:mbrtoc32.obj
 0003:00002220       ?__acrt_app_type@@3W4_crt_app_type@@A 0000000180037220     libucrt:report_runtime_error.obj
 0005:00000000       MoveSmall                  000000018003b000     libvcruntime:memcpy.obj
 0005:00000040       MoveSmallYmm               000000018003b040     libvcruntime:memcpy.obj
 0005:00000064       MoveSmallYmmNT             000000018003b064     libvcruntime:memcpy.obj
 0005:00000088       MoveSmallXmm               000000018003b088     libvcruntime:memcpy.obj
 0005:000000b0       MsetTab                    000000018003b0b0     libvcruntime:memset.obj
 0006:00000220       $R000000                   000000018003c220     BumpBar.res
 0006:00000ba8       $R000988                   000000018003cba8     BumpBar.res
 0006:00000c90       $R000A70                   000000018003cc90     BumpBar.res
 0006:00000ef8       $R000CD8                   000000018003cef8     BumpBar.res
 0006:00001448       $R001228                   000000018003d448     BumpBar.res
 0006:00004360       $R004140                   0000000180040360     BumpBar.res
 0006:00004390       $R004170                   0000000180040390     BumpBar.res
