 OPOSLights

 Timestamp is 61a7586f (Wed Dec  1 20:11:43 2021)

 Preferred load address is 0000000180000000

 Start         Length     Name                   Class
 0001:00000000 000000c0H .text$di                CODE
 0001:000000c0 000236c0H .text$mn                CODE
 0001:00023780 00000040H .text$mn$00             CODE
 0001:000237c0 00000660H .text$x                 CODE
 0001:00023e20 00000078H .text$yd                CODE
 0002:00000000 00000638H .idata$5                DATA
 0002:00000638 00000030H .00cfg                  DATA
 0002:00000668 00000008H .CRT$XCA                DATA
 0002:00000670 00000008H .CRT$XCL                DATA
 0002:00000678 00000020H .CRT$XCU                DATA
 0002:00000698 00000008H .CRT$XCZ                DATA
 0002:000006a0 00000008H .CRT$XIA                DATA
 0002:000006a8 00000020H .CRT$XIC                DATA
 0002:000006c8 00000008H .CRT$XIZ                DATA
 0002:000006d0 00000008H .CRT$XLA                DATA
 0002:000006d8 00000008H .CRT$XLZ                DATA
 0002:000006e0 00000008H .CRT$XPA                DATA
 0002:000006e8 00000010H .CRT$XPX                DATA
 0002:000006f8 00000008H .CRT$XPXA               DATA
 0002:00000700 00000008H .CRT$XPZ                DATA
 0002:00000708 00000008H .CRT$XTA                DATA
 0002:00000710 00000010H .CRT$XTZ                DATA
 0002:00000718 00000000H .gehcont$y              DATA
 0002:00000718 00000000H .gfids$y                DATA
 0002:00000720 0000a2e0H .rdata                  DATA
 0002:0000aa00 00000000H .rdata$CastGuardVftablesA DATA
 0002:0000aa00 00000000H .rdata$CastGuardVftablesC DATA
 0002:0000aa00 00000028H .rdata$T                DATA
 0002:0000aa28 00000274H .rdata$r                DATA
 0002:0000ac9c 00000048H .rdata$voltmd           DATA
 0002:0000ace4 00000434H .rdata$zzzdbg           DATA
 0002:0000b118 00000008H .rtc$IAA                DATA
 0002:0000b120 00000008H .rtc$IZZ                DATA
 0002:0000b128 00000008H .rtc$TAA                DATA
 0002:0000b130 00000008H .rtc$TZZ                DATA
 0002:0000b138 00000004H .tls                    DATA
 0002:0000b13c 00000004H .tls$                   DATA
 0002:0000b140 00000008H .tls$ZZZ                DATA
 0002:0000b148 00001918H .xdata                  DATA
 0002:0000ca60 00000150H .xdata$x                DATA
 0002:0000cbb0 00000008H ATL$__a                 DATA
 0002:0000cbb8 00000008H ATL$__z                 DATA
 0002:0000cbc0 000000a8H .edata                  DATA
 0002:0000cc68 00000078H .idata$2                DATA
 0002:0000cce0 00000018H .idata$3                DATA
 0002:0000ccf8 00000638H .idata$4                DATA
 0002:0000d330 00000c5cH .idata$6                DATA
 0003:00000000 00000d68H .data                   DATA
 0003:00000d68 000000a8H .data$r                 DATA
 0003:00000e10 00000020H .data$rs                DATA
 0003:00000e30 000013ecH .bss                    DATA
 0004:00000000 00001f98H .pdata                  DATA
 0005:00000000 000000f4H _RDATA                  DATA
 0006:00000000 00000220H .rsrc$01                DATA
 0006:00000220 000036a8H .rsrc$02                DATA

  Address         Publics by Value              Rva+Base               Lib:Object

 0000:00000000       ___safe_se_handler_table   0000000000000000     <absolute>
 0000:00000000       __guard_longjmp_table      0000000000000000     <absolute>
 0000:00000000       __x64_code_ranges_to_entry_points 0000000000000000     <absolute>
 0000:00000000       __arm64x_redirection_metadata 0000000000000000     <absolute>
 0000:00000000       __guard_iat_table          0000000000000000     <absolute>
 0000:00000000       __guard_fids_count         0000000000000000     <absolute>
 0000:00000000       __arm64x_extra_rfe_table   0000000000000000     <absolute>
 0000:00000000       __guard_iat_count          0000000000000000     <absolute>
 0000:00000000       __guard_longjmp_count      0000000000000000     <absolute>
 0000:00000000       __dynamic_value_reloc_table 0000000000000000     <absolute>
 0000:00000000       __x64_code_ranges_to_entry_points_count 0000000000000000     <absolute>
 0000:00000000       __hybrid_auxiliary_iat     0000000000000000     <absolute>
 0000:00000000       __hybrid_code_map          0000000000000000     <absolute>
 0000:00000000       __hybrid_auxiliary_iat_copy 0000000000000000     <absolute>
 0000:00000000       __arm64x_extra_rfe_table_size 0000000000000000     <absolute>
 0000:00000000       ___safe_se_handler_count   0000000000000000     <absolute>
 0000:00000000       __AbsoluteZero             0000000000000000     <absolute>
 0000:00000000       __guard_check_icall_a64n_fptr 0000000000000000     <absolute>
 0000:00000000       __guard_fids_table         0000000000000000     <absolute>
 0000:00000000       __guard_eh_cont_count      0000000000000000     <absolute>
 0000:00000000       __arm64x_redirection_metadata_count 0000000000000000     <absolute>
 0000:00000000       __enclave_config           0000000000000000     <absolute>
 0000:00000000       __guard_eh_cont_table      0000000000000000     <absolute>
 0000:00000000       __arm64x_native_entrypoint 0000000000000000     <absolute>
 0000:00000000       __hybrid_code_map_count    0000000000000000     <absolute>
 0000:00000100       __guard_flags              0000000000000100     <absolute>
 0000:00000000       __ImageBase                0000000180000000     <linker-defined>
 0001:000000c0       ?DupWide@_CW@@AEAAXXZ      00000001800010c0 f   CWString.obj
 0001:000000e8       ?cw_dup@@YAXPEBDAEAHAEAPEA_W1@Z 00000001800010e8 f   CWString.obj
 0001:000001c8       ?cw_memcpy@@YAHPEA_WPEBDH@Z 00000001800011c8 f   CWString.obj
 0001:00000214       ?cw_strcpy@@YAHPEA_WPEBD@Z 0000000180001214 f   CWString.obj
 0001:00000228       ??0CAtlComModule@ATL@@QEAA@XZ 0000000180001228 f i OposVariant.obj
 0001:000002a8       ??0CAtlWinModule@ATL@@QEAA@XZ 00000001800012a8 f i OposVariant.obj
 0001:00000314       ??0OposDispParms@@QEAA@PEAVOposVariant@@H@Z 0000000180001314 f   OposVariant.obj
 0001:000003bc       ??1OposDispParms@@QEAA@XZ  00000001800013bc f   OposVariant.obj
 0001:000003d4       ??_Estringdispid@CComTypeInfoHolder@ATL@@QEAAPEAXI@Z 00000001800013d4 f i OposVariant.obj
 0001:00000478       ?AtlWinModuleTerm@ATL@@YAJPEAU_ATL_WIN_MODULE70@1@PEAUHINSTANCE__@@@Z 0000000180001478 f i OposVariant.obj
 0001:00000528       ?ChangeBSTR@OposVariant@@QEAAXPEAPEA_WAEAJ@Z 0000000180001528 f   OposVariant.obj
 0001:00000588       ?ChangeLONG@OposVariant@@QEAAXPEAJAEAJ@Z 0000000180001588 f   OposVariant.obj
 0001:000005e4       ?GetLONG@OposVariant@@QEAAJXZ 00000001800015e4 f   OposVariant.obj
 0001:00000608       ?SetBSTR@OposVariant@@QEAAXPEA_WAEAJ@Z 0000000180001608 f   OposVariant.obj
 0001:00000648       ?SetBSTR_Copy@OposVariant@@QEAAXPEA_WAEAJ@Z 0000000180001648 f   OposVariant.obj
 0001:000006b8       ?SetBSTR_InOutPtr@OposVariant@@QEAA_NPEAPEA_WAEAJ@Z 00000001800016b8 f   OposVariant.obj
 0001:00000708       ?SetDispatch_Ptr@OposVariant@@QEAAXPEAUIDispatch@@AEAJ@Z 0000000180001708 f   OposVariant.obj
 0001:00000760       ?SetLONG@OposVariant@@QEAAXJ@Z 0000000180001760 f   OposVariant.obj
 0001:00000790       ?SetLONG_Ptr@OposVariant@@QEAAXPEAJAEAJ@Z 0000000180001790 f   OposVariant.obj
 0001:000007dc       ?SetString@OposVariant@@QEAAXPEB_WAEAJ@Z 00000001800017dc f   OposVariant.obj
 0001:00000840       ?SetVARIANT_BOOL@OposVariant@@QEAAXF@Z 0000000180001840 f   OposVariant.obj
 0001:00000878       ?Term@CAtlComModule@ATL@@QEAAXXZ 0000000180001878 f i OposVariant.obj
 0001:000008e8       ?_AtlInitializeCriticalSectionEx@ATL@@YAHPEAU_RTL_CRITICAL_SECTION@@KK@Z 00000001800018e8 f i OposVariant.obj
 0001:000008f0       ?_AtlRaiseException@ATL@@YAXKK@Z 00000001800018f0 f i OposVariant.obj
 0001:00000900       ?Next@?$CComEnumImpl@UIEnumConnections@@$1?_GUID_b196b287_bab4_101a_b69c_00aa00341d07@@3U__s_GUID@@BUtagCONNECTDATA@@V?$_Copy@UtagCONNECTDATA@@@ATL@@@ATL@@UEAAJKPEAUtagCONNECTDATA@@PEAK@Z 0000000180001900 f i Lights.obj
 0001:000009c8       ?Skip@?$CComEnumImpl@UIEnumConnections@@$1?_GUID_b196b287_bab4_101a_b69c_00aa00341d07@@3U__s_GUID@@BUtagCONNECTDATA@@V?$_Copy@UtagCONNECTDATA@@@ATL@@@ATL@@UEAAJK@Z 00000001800019c8 f i Lights.obj
 0001:000009f4       ?Reset@?$CComEnumImpl@UIEnumConnections@@$1?_GUID_b196b287_bab4_101a_b69c_00aa00341d07@@3U__s_GUID@@BUtagCONNECTDATA@@V?$_Copy@UtagCONNECTDATA@@@ATL@@@ATL@@UEAAJXZ 00000001800019f4 f i Lights.obj
 0001:000009f4       ?Reset@?$CComEnumImpl@UIEnumConnectionPoints@@$1?_GUID_b196b285_bab4_101a_b69c_00aa00341d07@@3U__s_GUID@@BPEAUIConnectionPoint@@V?$_CopyInterface@UIConnectionPoint@@@ATL@@@ATL@@UEAAJXZ 00000001800019f4 f i Lights.obj
 0001:00000a00       ?Clone@?$CComEnumImpl@UIEnumConnections@@$1?_GUID_b196b287_bab4_101a_b69c_00aa00341d07@@3U__s_GUID@@BUtagCONNECTDATA@@V?$_Copy@UtagCONNECTDATA@@@ATL@@@ATL@@UEAAJPEAPEAUIEnumConnections@@@Z 0000000180001a00 f i Lights.obj
 0001:00000b2c       ?AddRef@?$CComObject@V?$CComEnum@UIEnumConnections@@$1?_GUID_b196b287_bab4_101a_b69c_00aa00341d07@@3U__s_GUID@@BUtagCONNECTDATA@@V?$_Copy@UtagCONNECTDATA@@@ATL@@VCComSingleThreadModel@6@@ATL@@@ATL@@UEAAKXZ 0000000180001b2c f i Lights.obj
 0001:00000b2c       ?AddRef@?$CComObject@V?$CComEnum@UIEnumConnectionPoints@@$1?_GUID_b196b285_bab4_101a_b69c_00aa00341d07@@3U__s_GUID@@BPEAUIConnectionPoint@@V?$_CopyInterface@UIConnectionPoint@@@ATL@@VCComSingleThreadModel@6@@ATL@@@ATL@@UEAAKXZ 0000000180001b2c f i Lights.obj
 0001:00000b38       ?Release@?$CComObject@V?$CComEnum@UIEnumConnections@@$1?_GUID_b196b287_bab4_101a_b69c_00aa00341d07@@3U__s_GUID@@BUtagCONNECTDATA@@V?$_Copy@UtagCONNECTDATA@@@ATL@@VCComSingleThreadModel@6@@ATL@@@ATL@@UEAAKXZ 0000000180001b38 f i Lights.obj
 0001:00000b38       ?Release@?$CComObject@V?$CComEnum@UIEnumConnectionPoints@@$1?_GUID_b196b285_bab4_101a_b69c_00aa00341d07@@3U__s_GUID@@BPEAUIConnectionPoint@@V?$_CopyInterface@UIConnectionPoint@@@ATL@@VCComSingleThreadModel@6@@ATL@@@ATL@@UEAAKXZ 0000000180001b38 f i Lights.obj
 0001:00000b8c       ?QueryInterface@?$CComObject@V?$CComEnum@UIEnumConnections@@$1?_GUID_b196b287_bab4_101a_b69c_00aa00341d07@@3U__s_GUID@@BUtagCONNECTDATA@@V?$_Copy@UtagCONNECTDATA@@@ATL@@VCComSingleThreadModel@6@@ATL@@@ATL@@UEAAJAEBU_GUID@@PEAPEAX@Z 0000000180001b8c f i Lights.obj
 0001:00000ba0       ??_E?$CComObject@V?$CComEnum@UIEnumConnections@@$1?_GUID_b196b287_bab4_101a_b69c_00aa00341d07@@3U__s_GUID@@BUtagCONNECTDATA@@V?$_Copy@UtagCONNECTDATA@@@ATL@@VCComSingleThreadModel@6@@ATL@@@ATL@@UEAAPEAXI@Z 0000000180001ba0 f i Lights.obj
 0001:00000ba0       ??_G?$CComObject@V?$CComEnum@UIEnumConnections@@$1?_GUID_b196b287_bab4_101a_b69c_00aa00341d07@@3U__s_GUID@@BUtagCONNECTDATA@@V?$_Copy@UtagCONNECTDATA@@@ATL@@VCComSingleThreadModel@6@@ATL@@@ATL@@UEAAPEAXI@Z 0000000180001ba0 f i Lights.obj
 0001:00000bf8       ?ObjectMain@CComObjectRootBase@ATL@@SAX_N@Z 0000000180001bf8 f i Lights.obj
 0001:00000bf8       ?OnFinalMessage@?$CWindowImplBaseT@VCWindow@ATL@@V?$CWinTraits@$0FGAAAAAA@$0A@@2@@ATL@@UEAAXPEAUHWND__@@@Z 0000000180001bf8 f i Lights.obj
 0001:00000bf8       _guard_check_icall_nop     0000000180001bf8 f i LIBCMT:guard_support.obj
 0001:00000bfc       ?IsUpToDate@?$IOleObjectImpl@VCOPOSLights@@@ATL@@UEAAJXZ 0000000180001bfc f i Lights.obj
 0001:00000bfc       ?Update@?$IOleObjectImpl@VCOPOSLights@@@ATL@@UEAAJXZ 0000000180001bfc f i Lights.obj
 0001:00000bfc       ?SetHostNames@?$IOleObjectImpl@VCOPOSLights@@@ATL@@UEAAJPEB_W0@Z 0000000180001bfc f i Lights.obj
 0001:00000bfc       ?ResizeBorder@?$IOleInPlaceActiveObjectImpl@VCOPOSLights@@@ATL@@UEAAJPEBUtagRECT@@PEAUIOleInPlaceUIWindow@@H@Z 0000000180001bfc f i Lights.obj
 0001:00000bfc       ?GetObjectDescription@?$CComCoClass@VCOPOSLights@@$1?CLSID_OPOSLights@@3U_GUID@@B@ATL@@SAPEB_WXZ 0000000180001bfc f i Lights.obj
 0001:00000bfc       ?OnFrameWindowActivate@?$IOleInPlaceActiveObjectImpl@VCOPOSLights@@@ATL@@UEAAJH@Z 0000000180001bfc f i Lights.obj
 0001:00000bfc       ?SaveCompleted@?$IPersistStorageImpl@VCOPOSLights@@@ATL@@UEAAJPEAUIStorage@@@Z 0000000180001bfc f i Lights.obj
 0001:00000bfc       ?GetCategoryMap@CComObjectRootBase@ATL@@SAPEBU_ATL_CATMAP_ENTRY@2@XZ 0000000180001bfc f i Lights.obj
 0001:00000bfc       ?OnAmbientPropertyChange@?$IOleControlImpl@VCOPOSLights@@@ATL@@UEAAJJ@Z 0000000180001bfc f i Lights.obj
 0001:00000bfc       ?Release@CRegObject@ATL@@UEAAKXZ 0000000180001bfc f i Lights.obj
 0001:00000bfc       ?EnableModeless@?$IOleInPlaceActiveObjectImpl@VCOPOSLights@@@ATL@@UEAAJH@Z 0000000180001bfc f i Lights.obj
 0001:00000bfc       ?HandsOffStorage@?$IPersistStorageImpl@VCOPOSLights@@@ATL@@UEAAJXZ 0000000180001bfc f i Lights.obj
 0001:00000c00       ??_E?$CComObject@VCOPOSLights@@@ATL@@W7EAAPEAXI@Z 0000000180001c00 f i Lights.obj
 0001:00000c0c       ??_E?$CComObject@VCOPOSLights@@@ATL@@WHA@EAAPEAXI@Z 0000000180001c0c f i Lights.obj
 0001:00000c18       ?QueryInterface@?$CComObject@VCOPOSLights@@@ATL@@WLI@EAAJAEBU_GUID@@PEAPEAX@Z 0000000180001c18 f i Lights.obj
 0001:00000c24       ?AddRef@?$CComObject@VCOPOSLights@@@ATL@@WLI@EAAKXZ 0000000180001c24 f i Lights.obj
 0001:00000c30       ?Release@?$CComObject@VCOPOSLights@@@ATL@@WLI@EAAKXZ 0000000180001c30 f i Lights.obj
 0001:00000c3c       ?QueryInterface@?$CComObject@VCOPOSLights@@@ATL@@WMA@EAAJAEBU_GUID@@PEAPEAX@Z 0000000180001c3c f i Lights.obj
 0001:00000c48       ?AddRef@?$CComObject@VCOPOSLights@@@ATL@@WMA@EAAKXZ 0000000180001c48 f i Lights.obj
 0001:00000c54       ?Release@?$CComObject@VCOPOSLights@@@ATL@@WMA@EAAKXZ 0000000180001c54 f i Lights.obj
 0001:00000c60       ?QueryInterface@?$CComObject@VCOPOSLights@@@ATL@@WMI@EAAJAEBU_GUID@@PEAPEAX@Z 0000000180001c60 f i Lights.obj
 0001:00000c6c       ?AddRef@?$CComObject@VCOPOSLights@@@ATL@@WMI@EAAKXZ 0000000180001c6c f i Lights.obj
 0001:00000c78       ?Release@?$CComObject@VCOPOSLights@@@ATL@@WMI@EAAKXZ 0000000180001c78 f i Lights.obj
 0001:00000c84       ?QueryInterface@?$CComObject@VCOPOSLights@@@ATL@@WNA@EAAJAEBU_GUID@@PEAPEAX@Z 0000000180001c84 f i Lights.obj
 0001:00000c90       ?AddRef@?$CComObject@VCOPOSLights@@@ATL@@WNA@EAAKXZ 0000000180001c90 f i Lights.obj
 0001:00000c9c       ?Release@?$CComObject@VCOPOSLights@@@ATL@@WNA@EAAKXZ 0000000180001c9c f i Lights.obj
 0001:00000ca8       ?QueryInterface@?$CComObject@VCOPOSLights@@@ATL@@WNI@EAAJAEBU_GUID@@PEAPEAX@Z 0000000180001ca8 f i Lights.obj
 0001:00000cb4       ?AddRef@?$CComObject@VCOPOSLights@@@ATL@@WNI@EAAKXZ 0000000180001cb4 f i Lights.obj
 0001:00000cc0       ?Release@?$CComObject@VCOPOSLights@@@ATL@@WNI@EAAKXZ 0000000180001cc0 f i Lights.obj
 0001:00000ccc       ?QueryInterface@?$CComObject@VCOPOSLights@@@ATL@@WOA@EAAJAEBU_GUID@@PEAPEAX@Z 0000000180001ccc f i Lights.obj
 0001:00000cd8       ?AddRef@?$CComObject@VCOPOSLights@@@ATL@@WOA@EAAKXZ 0000000180001cd8 f i Lights.obj
 0001:00000ce4       ?Release@?$CComObject@VCOPOSLights@@@ATL@@WOA@EAAKXZ 0000000180001ce4 f i Lights.obj
 0001:00000cf0       ?QueryInterface@?$CComObject@VCOPOSLights@@@ATL@@WOI@EAAJAEBU_GUID@@PEAPEAX@Z 0000000180001cf0 f i Lights.obj
 0001:00000cfc       ?AddRef@?$CComObject@VCOPOSLights@@@ATL@@WOI@EAAKXZ 0000000180001cfc f i Lights.obj
 0001:00000d08       ?Release@?$CComObject@VCOPOSLights@@@ATL@@WOI@EAAKXZ 0000000180001d08 f i Lights.obj
 0001:00000d14       ?QueryInterface@?$CComObject@VCOPOSLights@@@ATL@@WPA@EAAJAEBU_GUID@@PEAPEAX@Z 0000000180001d14 f i Lights.obj
 0001:00000d20       ?AddRef@?$CComObject@VCOPOSLights@@@ATL@@WPA@EAAKXZ 0000000180001d20 f i Lights.obj
 0001:00000d2c       ?Release@?$CComObject@VCOPOSLights@@@ATL@@WPA@EAAKXZ 0000000180001d2c f i Lights.obj
 0001:00000d38       ?QueryInterface@?$CComObject@VCOPOSLights@@@ATL@@WPI@EAAJAEBU_GUID@@PEAPEAX@Z 0000000180001d38 f i Lights.obj
 0001:00000d44       ?AddRef@?$CComObject@VCOPOSLights@@@ATL@@WPI@EAAKXZ 0000000180001d44 f i Lights.obj
 0001:00000d50       ?Release@?$CComObject@VCOPOSLights@@@ATL@@WPI@EAAKXZ 0000000180001d50 f i Lights.obj
 0001:00000d5c       ?QueryInterface@?$CComObject@VCOPOSLights@@@ATL@@WBAA@EAAJAEBU_GUID@@PEAPEAX@Z 0000000180001d5c f i Lights.obj
 0001:00000d68       ?AddRef@?$CComObject@VCOPOSLights@@@ATL@@WBAA@EAAKXZ 0000000180001d68 f i Lights.obj
 0001:00000d74       ?Release@?$CComObject@VCOPOSLights@@@ATL@@WBAA@EAAKXZ 0000000180001d74 f i Lights.obj
 0001:00000d80       ?QueryInterface@?$CComObject@VCOPOSLights@@@ATL@@WBAI@EAAJAEBU_GUID@@PEAPEAX@Z 0000000180001d80 f i Lights.obj
 0001:00000d8c       ?AddRef@?$CComObject@VCOPOSLights@@@ATL@@WBAI@EAAKXZ 0000000180001d8c f i Lights.obj
 0001:00000d98       ?Release@?$CComObject@VCOPOSLights@@@ATL@@WBAI@EAAKXZ 0000000180001d98 f i Lights.obj
 0001:00000da4       ?QueryInterface@?$CComObject@VCOPOSLights@@@ATL@@WBBA@EAAJAEBU_GUID@@PEAPEAX@Z 0000000180001da4 f i Lights.obj
 0001:00000db0       ?AddRef@?$CComObject@VCOPOSLights@@@ATL@@WBBA@EAAKXZ 0000000180001db0 f i Lights.obj
 0001:00000dbc       ?Release@?$CComObject@VCOPOSLights@@@ATL@@WBBA@EAAKXZ 0000000180001dbc f i Lights.obj
 0001:00000dc8       ?QueryInterface@?$CComObject@VCOPOSLights@@@ATL@@WBBI@EAAJAEBU_GUID@@PEAPEAX@Z 0000000180001dc8 f i Lights.obj
 0001:00000dd4       ?AddRef@?$CComObject@VCOPOSLights@@@ATL@@WBBI@EAAKXZ 0000000180001dd4 f i Lights.obj
 0001:00000de0       ?Release@?$CComObject@VCOPOSLights@@@ATL@@WBBI@EAAKXZ 0000000180001de0 f i Lights.obj
 0001:00000dec       ?AddRef@?$CComObject@VCOPOSLights@@@ATL@@WBCI@EAAKXZ 0000000180001dec f i Lights.obj
 0001:00000df8       ?Release@?$CComObject@VCOPOSLights@@@ATL@@WBCI@EAAKXZ 0000000180001df8 f i Lights.obj
 0001:00000e04       ?AddRef@?$CComObject@VCOPOSLights@@@ATL@@WBEA@EAAKXZ 0000000180001e04 f i Lights.obj
 0001:00000e10       ?Release@?$CComObject@VCOPOSLights@@@ATL@@WBEA@EAAKXZ 0000000180001e10 f i Lights.obj
 0001:00000e1c       ??_E?$CComContainedObject@VCOPOSLights@@@ATL@@W7EAAPEAXI@Z 0000000180001e1c f i Lights.obj
 0001:00000e28       ??_E?$CComContainedObject@VCOPOSLights@@@ATL@@WHA@EAAPEAXI@Z 0000000180001e28 f i Lights.obj
 0001:00000e34       ?QueryInterface@?$CComContainedObject@VCOPOSLights@@@ATL@@WLI@EAAJAEBU_GUID@@PEAPEAX@Z 0000000180001e34 f i Lights.obj
 0001:00000e40       ?AddRef@?$CComContainedObject@VCOPOSLights@@@ATL@@WLI@EAAKXZ 0000000180001e40 f i Lights.obj
 0001:00000e4c       ?Release@?$CComContainedObject@VCOPOSLights@@@ATL@@WLI@EAAKXZ 0000000180001e4c f i Lights.obj
 0001:00000e58       ?QueryInterface@?$CComContainedObject@VCOPOSLights@@@ATL@@WMA@EAAJAEBU_GUID@@PEAPEAX@Z 0000000180001e58 f i Lights.obj
 0001:00000e64       ?AddRef@?$CComContainedObject@VCOPOSLights@@@ATL@@WMA@EAAKXZ 0000000180001e64 f i Lights.obj
 0001:00000e70       ?Release@?$CComContainedObject@VCOPOSLights@@@ATL@@WMA@EAAKXZ 0000000180001e70 f i Lights.obj
 0001:00000e7c       ?QueryInterface@?$CComContainedObject@VCOPOSLights@@@ATL@@WMI@EAAJAEBU_GUID@@PEAPEAX@Z 0000000180001e7c f i Lights.obj
 0001:00000e88       ?AddRef@?$CComContainedObject@VCOPOSLights@@@ATL@@WMI@EAAKXZ 0000000180001e88 f i Lights.obj
 0001:00000e94       ?Release@?$CComContainedObject@VCOPOSLights@@@ATL@@WMI@EAAKXZ 0000000180001e94 f i Lights.obj
 0001:00000ea0       ?QueryInterface@?$CComContainedObject@VCOPOSLights@@@ATL@@WNA@EAAJAEBU_GUID@@PEAPEAX@Z 0000000180001ea0 f i Lights.obj
 0001:00000eac       ?AddRef@?$CComContainedObject@VCOPOSLights@@@ATL@@WNA@EAAKXZ 0000000180001eac f i Lights.obj
 0001:00000eb8       ?Release@?$CComContainedObject@VCOPOSLights@@@ATL@@WNA@EAAKXZ 0000000180001eb8 f i Lights.obj
 0001:00000ec4       ?QueryInterface@?$CComContainedObject@VCOPOSLights@@@ATL@@WNI@EAAJAEBU_GUID@@PEAPEAX@Z 0000000180001ec4 f i Lights.obj
 0001:00000ed0       ?AddRef@?$CComContainedObject@VCOPOSLights@@@ATL@@WNI@EAAKXZ 0000000180001ed0 f i Lights.obj
 0001:00000edc       ?Release@?$CComContainedObject@VCOPOSLights@@@ATL@@WNI@EAAKXZ 0000000180001edc f i Lights.obj
 0001:00000ee8       ?QueryInterface@?$CComContainedObject@VCOPOSLights@@@ATL@@WOA@EAAJAEBU_GUID@@PEAPEAX@Z 0000000180001ee8 f i Lights.obj
 0001:00000ef4       ?AddRef@?$CComContainedObject@VCOPOSLights@@@ATL@@WOA@EAAKXZ 0000000180001ef4 f i Lights.obj
 0001:00000f00       ?Release@?$CComContainedObject@VCOPOSLights@@@ATL@@WOA@EAAKXZ 0000000180001f00 f i Lights.obj
 0001:00000f0c       ?QueryInterface@?$CComContainedObject@VCOPOSLights@@@ATL@@WOI@EAAJAEBU_GUID@@PEAPEAX@Z 0000000180001f0c f i Lights.obj
 0001:00000f18       ?AddRef@?$CComContainedObject@VCOPOSLights@@@ATL@@WOI@EAAKXZ 0000000180001f18 f i Lights.obj
 0001:00000f24       ?Release@?$CComContainedObject@VCOPOSLights@@@ATL@@WOI@EAAKXZ 0000000180001f24 f i Lights.obj
 0001:00000f30       ?QueryInterface@?$CComContainedObject@VCOPOSLights@@@ATL@@WPA@EAAJAEBU_GUID@@PEAPEAX@Z 0000000180001f30 f i Lights.obj
 0001:00000f3c       ?AddRef@?$CComContainedObject@VCOPOSLights@@@ATL@@WPA@EAAKXZ 0000000180001f3c f i Lights.obj
 0001:00000f48       ?Release@?$CComContainedObject@VCOPOSLights@@@ATL@@WPA@EAAKXZ 0000000180001f48 f i Lights.obj
 0001:00000f54       ?QueryInterface@?$CComContainedObject@VCOPOSLights@@@ATL@@WPI@EAAJAEBU_GUID@@PEAPEAX@Z 0000000180001f54 f i Lights.obj
 0001:00000f60       ?AddRef@?$CComContainedObject@VCOPOSLights@@@ATL@@WPI@EAAKXZ 0000000180001f60 f i Lights.obj
 0001:00000f6c       ?Release@?$CComContainedObject@VCOPOSLights@@@ATL@@WPI@EAAKXZ 0000000180001f6c f i Lights.obj
 0001:00000f78       ?QueryInterface@?$CComContainedObject@VCOPOSLights@@@ATL@@WBAA@EAAJAEBU_GUID@@PEAPEAX@Z 0000000180001f78 f i Lights.obj
 0001:00000f84       ?AddRef@?$CComContainedObject@VCOPOSLights@@@ATL@@WBAA@EAAKXZ 0000000180001f84 f i Lights.obj
 0001:00000f90       ?Release@?$CComContainedObject@VCOPOSLights@@@ATL@@WBAA@EAAKXZ 0000000180001f90 f i Lights.obj
 0001:00000f9c       ?QueryInterface@?$CComContainedObject@VCOPOSLights@@@ATL@@WBAI@EAAJAEBU_GUID@@PEAPEAX@Z 0000000180001f9c f i Lights.obj
 0001:00000fa8       ?AddRef@?$CComContainedObject@VCOPOSLights@@@ATL@@WBAI@EAAKXZ 0000000180001fa8 f i Lights.obj
 0001:00000fb4       ?Release@?$CComContainedObject@VCOPOSLights@@@ATL@@WBAI@EAAKXZ 0000000180001fb4 f i Lights.obj
 0001:00000fc0       ?QueryInterface@?$CComContainedObject@VCOPOSLights@@@ATL@@WBBA@EAAJAEBU_GUID@@PEAPEAX@Z 0000000180001fc0 f i Lights.obj
 0001:00000fcc       ?AddRef@?$CComContainedObject@VCOPOSLights@@@ATL@@WBBA@EAAKXZ 0000000180001fcc f i Lights.obj
 0001:00000fd8       ?Release@?$CComContainedObject@VCOPOSLights@@@ATL@@WBBA@EAAKXZ 0000000180001fd8 f i Lights.obj
 0001:00000fe4       ?QueryInterface@?$CComContainedObject@VCOPOSLights@@@ATL@@WBBI@EAAJAEBU_GUID@@PEAPEAX@Z 0000000180001fe4 f i Lights.obj
 0001:00000ff0       ?AddRef@?$CComContainedObject@VCOPOSLights@@@ATL@@WBBI@EAAKXZ 0000000180001ff0 f i Lights.obj
 0001:00000ffc       ?Release@?$CComContainedObject@VCOPOSLights@@@ATL@@WBBI@EAAKXZ 0000000180001ffc f i Lights.obj
 0001:00001008       ?AddRef@?$CComContainedObject@VCOPOSLights@@@ATL@@WBCI@EAAKXZ 0000000180002008 f i Lights.obj
 0001:00001014       ?Release@?$CComContainedObject@VCOPOSLights@@@ATL@@WBCI@EAAKXZ 0000000180002014 f i Lights.obj
 0001:00001020       ?AddRef@?$CComContainedObject@VCOPOSLights@@@ATL@@WBEA@EAAKXZ 0000000180002020 f i Lights.obj
 0001:0000102c       ?Release@?$CComContainedObject@VCOPOSLights@@@ATL@@WBEA@EAAKXZ 000000018000202c f i Lights.obj
 0001:00001038       ?CreateInstance@CComClassFactory@ATL@@UEAAJPEAUIUnknown@@AEBU_GUID@@PEAPEAX@Z 0000000180002038 f i Lights.obj
 0001:00001098       ?LockServer@CComClassFactory@ATL@@UEAAJH@Z 0000000180002098 f i Lights.obj
 0001:000010bc       ??_GCComClassFactory@ATL@@UEAAPEAXI@Z 00000001800020bc f i Lights.obj
 0001:000010bc       ??_ECComClassFactory@ATL@@UEAAPEAXI@Z 00000001800020bc f i Lights.obj
 0001:0000110c       ?GetWindowProc@?$CWindowImplBaseT@VCWindow@ATL@@V?$CWinTraits@$0FGAAAAAA@$0A@@2@@ATL@@UEAAP6A_JPEAUHWND__@@I_K_J@ZXZ 000000018000210c f i Lights.obj
 0001:00001114       ?StartWindowProc@?$CWindowImplBaseT@VCWindow@ATL@@V?$CWinTraits@$0FGAAAAAA@$0A@@2@@ATL@@SA_JPEAUHWND__@@I_K_J@Z 0000000180002114 f i Lights.obj
 0001:000011c8       ?GetTypeInfoCount@?$IDispatchImpl@UIOPOSLights@@$1?IID_IOPOSLights@@3U_GUID@@B$1?LIBID_OposLights_CCO@@3U3@B$00$0A@VCComTypeInfoHolder@ATL@@@ATL@@UEAAJPEAI@Z 00000001800021c8 f i Lights.obj
 0001:000011dc       ?GetTypeInfo@?$IDispatchImpl@UIOPOSLights@@$1?IID_IOPOSLights@@3U_GUID@@B$1?LIBID_OposLights_CCO@@3U3@B$00$0A@VCComTypeInfoHolder@ATL@@@ATL@@UEAAJIKPEAPEAUITypeInfo@@@Z 00000001800021dc f i Lights.obj
 0001:00001240       ?GetIDsOfNames@?$IDispatchImpl@UIOPOSLights@@$1?IID_IOPOSLights@@3U_GUID@@B$1?LIBID_OposLights_CCO@@3U3@B$00$0A@VCComTypeInfoHolder@ATL@@@ATL@@UEAAJAEBU_GUID@@PEAPEA_WIKPEAJ@Z 0000000180002240 f i Lights.obj
 0001:0000124c       ?Invoke@?$IDispatchImpl@UIOPOSLights@@$1?IID_IOPOSLights@@3U_GUID@@B$1?LIBID_OposLights_CCO@@3U3@B$00$0A@VCComTypeInfoHolder@ATL@@@ATL@@UEAAJJAEBU_GUID@@KGPEAUtagDISPPARAMS@@PEAUtagVARIANT@@PEAUtagEXCEPINFO@@PEAI@Z 000000018000224c f i Lights.obj
 0001:000012dc       ?CreateControlWindow@?$CComControl@VCOPOSLights@@V?$CWindowImpl@VCOPOSLights@@VCWindow@ATL@@V?$CWinTraits@$0FGAAAAAA@$0A@@3@@ATL@@@ATL@@UEAAPEAUHWND__@@PEAU3@AEAUtagRECT@@@Z 00000001800022dc f i Lights.obj
 0001:00001314       ?ControlQueryInterface@?$CComControl@VCOPOSLights@@V?$CWindowImpl@VCOPOSLights@@VCWindow@ATL@@V?$CWinTraits@$0FGAAAAAA@$0A@@3@@ATL@@@ATL@@UEAAJAEBU_GUID@@PEAPEAX@Z 0000000180002314 f i Lights.obj
 0001:00001328       ?GetClassID@?$IPersistStreamInitImpl@VCOPOSLights@@@ATL@@UEAAJPEAU_GUID@@@Z 0000000180002328 f i Lights.obj
 0001:00001328       ?GetUserClassID@?$IOleObjectImpl@VCOPOSLights@@@ATL@@UEAAJPEAU_GUID@@@Z 0000000180002328 f i Lights.obj
 0001:00001328       ?GetClassID@?$IPersistStorageImpl@VCOPOSLights@@@ATL@@UEAAJPEAU_GUID@@@Z 0000000180002328 f i Lights.obj
 0001:00001344       ?IsDirty@?$IPersistStreamInitImpl@VCOPOSLights@@@ATL@@UEAAJXZ 0000000180002344 f i Lights.obj
 0001:00001360       ?Load@?$IPersistStreamInitImpl@VCOPOSLights@@@ATL@@UEAAJPEAUIStream@@@Z 0000000180002360 f i Lights.obj
 0001:00001378       ?Save@?$IPersistStreamInitImpl@VCOPOSLights@@@ATL@@UEAAJPEAUIStream@@H@Z 0000000180002378 f i Lights.obj
 0001:00001390       ?GetSizeMax@?$IPersistStreamInitImpl@VCOPOSLights@@@ATL@@UEAAJPEAT_ULARGE_INTEGER@@@Z 0000000180002390 f i Lights.obj
 0001:000015b4       ?InitNew@?$IPersistStreamInitImpl@VCOPOSLights@@@ATL@@UEAAJXZ 00000001800025b4 f i Lights.obj
 0001:000015cc       ?GetDropTarget@?$IOleInPlaceObjectWindowlessImpl@VCOPOSLights@@@ATL@@UEAAJPEAPEAUIDropTarget@@@Z 00000001800025cc f i Lights.obj
 0001:000015cc       ?GetControlInfo@?$IOleControlImpl@VCOPOSLights@@@ATL@@UEAAJPEAUtagCONTROLINFO@@@Z 00000001800025cc f i Lights.obj
 0001:000015cc       ?GetColorSet@?$IViewObjectExImpl@VCOPOSLights@@@ATL@@UEAAJKJPEAXPEAUtagDVTARGETDEVICE@@PEAUHDC__@@PEAPEAUtagLOGPALETTE@@@Z 00000001800025cc f i Lights.obj
 0001:000015cc       ?GetClipboardData@?$IOleObjectImpl@VCOPOSLights@@@ATL@@UEAAJKPEAPEAUIDataObject@@@Z 00000001800025cc f i Lights.obj
 0001:000015cc       ?SetColorScheme@?$IOleObjectImpl@VCOPOSLights@@@ATL@@UEAAJPEAUtagLOGPALETTE@@@Z 00000001800025cc f i Lights.obj
 0001:000015cc       ?SOErrorDummy@COPOSLights@@MEAAJJJJPEAJ@Z 00000001800025cc f i Lights.obj
 0001:000015cc       ?EnumFormatEtc@?$IDataObjectImpl@VCOPOSLights@@@ATL@@UEAAJKPEAPEAUIEnumFORMATETC@@@Z 00000001800025cc f i Lights.obj
 0001:000015cc       ?SOOutputCompleteDummy@COPOSLights@@MEAAJJ@Z 00000001800025cc f i Lights.obj
 0001:000015cc       ?ContextSensitiveHelp@?$IOleInPlaceObjectWindowlessImpl@VCOPOSLights@@@ATL@@UEAAJH@Z 00000001800025cc f i Lights.obj
 0001:000015cc       ?Unfreeze@?$IViewObjectExImpl@VCOPOSLights@@@ATL@@UEAAJK@Z 00000001800025cc f i Lights.obj
 0001:000015cc       ?QueryInterface@CRegObject@ATL@@UEAAJAEBU_GUID@@PEAPEAX@Z 00000001800025cc f i Lights.obj
 0001:000015cc       ?SODataDummy@COPOSLights@@MEAAJJ@Z 00000001800025cc f i Lights.obj
 0001:000015cc       ?GetCanonicalFormatEtc@?$IDataObjectImpl@VCOPOSLights@@@ATL@@UEAAJPEAUtagFORMATETC@@0@Z 00000001800025cc f i Lights.obj
 0001:000015cc       ?SetMoniker@?$IOleObjectImpl@VCOPOSLights@@@ATL@@UEAAJKPEAUIMoniker@@@Z 00000001800025cc f i Lights.obj
 0001:000015cc       ?InitFromData@?$IOleObjectImpl@VCOPOSLights@@@ATL@@UEAAJPEAUIDataObject@@HK@Z 00000001800025cc f i Lights.obj
 0001:000015cc       ?OnMnemonic@?$IOleControlImpl@VCOPOSLights@@@ATL@@UEAAJPEAUtagMSG@@@Z 00000001800025cc f i Lights.obj
 0001:000015cc       ?GetRect@?$IViewObjectExImpl@VCOPOSLights@@@ATL@@UEAAJKPEAU_RECTL@@@Z 00000001800025cc f i Lights.obj
 0001:000015cc       ?SetData@?$IDataObjectImpl@VCOPOSLights@@@ATL@@UEAAJPEAUtagFORMATETC@@PEAUtagSTGMEDIUM@@H@Z 00000001800025cc f i Lights.obj
 0001:000015cc       ?ContextSensitiveHelp@?$IOleInPlaceActiveObjectImpl@VCOPOSLights@@@ATL@@UEAAJH@Z 00000001800025cc f i Lights.obj
 0001:000015cc       ?GetDataHere@?$IDataObjectImpl@VCOPOSLights@@@ATL@@UEAAJPEAUtagFORMATETC@@PEAUtagSTGMEDIUM@@@Z 00000001800025cc f i Lights.obj
 0001:000015cc       ?Freeze@?$IViewObjectExImpl@VCOPOSLights@@@ATL@@UEAAJKJPEAXPEAK@Z 00000001800025cc f i Lights.obj
 0001:000015cc       ?QueryGetData@?$IDataObjectImpl@VCOPOSLights@@@ATL@@UEAAJPEAUtagFORMATETC@@@Z 00000001800025cc f i Lights.obj
 0001:000015cc       ?GetMoniker@?$IOleObjectImpl@VCOPOSLights@@@ATL@@UEAAJKKPEAPEAUIMoniker@@@Z 00000001800025cc f i Lights.obj
 0001:000015cc       ?ReactivateAndUndo@?$IOleInPlaceObjectWindowlessImpl@VCOPOSLights@@@ATL@@UEAAJXZ 00000001800025cc f i Lights.obj
 0001:000015d4       ?SetClientSite@?$IOleObjectImpl@VCOPOSLights@@@ATL@@UEAAJPEAUIOleClientSite@@@Z 00000001800025d4 f i Lights.obj
 0001:000015f0       ?GetClientSite@?$IOleObjectImpl@VCOPOSLights@@@ATL@@UEAAJPEAPEAUIOleClientSite@@@Z 00000001800025f0 f i Lights.obj
 0001:00001638       ?Close@?$IOleObjectImpl@VCOPOSLights@@@ATL@@UEAAJK@Z 0000000180002638 f i Lights.obj
 0001:00001654       ?DoVerb@?$IOleObjectImpl@VCOPOSLights@@@ATL@@UEAAJJPEAUtagMSG@@PEAUIOleClientSite@@JPEAUHWND__@@PEBUtagRECT@@@Z 0000000180002654 f i Lights.obj
 0001:000017f8       ?EnumVerbs@?$IOleObjectImpl@VCOPOSLights@@@ATL@@UEAAJPEAPEAUIEnumOLEVERB@@@Z 00000001800027f8 f i Lights.obj
 0001:00001814       ?GetUserType@?$IOleObjectImpl@VCOPOSLights@@@ATL@@UEAAJKPEAPEA_W@Z 0000000180002814 f i Lights.obj
 0001:00001824       ?SetExtent@?$IOleObjectImpl@VCOPOSLights@@@ATL@@UEAAJKPEAUtagSIZE@@@Z 0000000180002824 f i Lights.obj
 0001:00001840       ?GetExtent@?$IOleObjectImpl@VCOPOSLights@@@ATL@@UEAAJKPEAUtagSIZE@@@Z 0000000180002840 f i Lights.obj
 0001:00001870       ?Advise@?$IOleObjectImpl@VCOPOSLights@@@ATL@@UEAAJPEAUIAdviseSink@@PEAK@Z 0000000180002870 f i Lights.obj
 0001:000018cc       ?Unadvise@?$IOleObjectImpl@VCOPOSLights@@@ATL@@UEAAJK@Z 00000001800028cc f i Lights.obj
 0001:00001904       ?EnumAdvise@?$IOleObjectImpl@VCOPOSLights@@@ATL@@UEAAJPEAPEAUIEnumSTATDATA@@@Z 0000000180002904 f i Lights.obj
 0001:0000194c       ?GetMiscStatus@?$IOleObjectImpl@VCOPOSLights@@@ATL@@UEAAJKPEAK@Z 000000018000294c f i Lights.obj
 0001:0000195c       ?GetWindow@?$IOleInPlaceActiveObjectImpl@VCOPOSLights@@@ATL@@UEAAJPEAPEAUHWND__@@@Z 000000018000295c f i Lights.obj
 0001:000019b0       ?TranslateAcceleratorW@?$IOleInPlaceActiveObjectImpl@VCOPOSLights@@@ATL@@UEAAJPEAUtagMSG@@@Z 00000001800029b0 f i Lights.obj
 0001:00001aa4       ?OnDocWindowActivate@?$IOleInPlaceActiveObjectImpl@VCOPOSLights@@@ATL@@UEAAJH@Z 0000000180002aa4 f i Lights.obj
 0001:00001ad0       ?Draw@?$IViewObjectExImpl@VCOPOSLights@@@ATL@@UEAAJKJPEAXPEAUtagDVTARGETDEVICE@@PEAUHDC__@@2PEBU_RECTL@@3P6AH_K@Z4@Z 0000000180002ad0 f i Lights.obj
 0001:00001b34       ?SetAdvise@?$IViewObjectExImpl@VCOPOSLights@@@ATL@@UEAAJKKPEAUIAdviseSink@@@Z 0000000180002b34 f i Lights.obj
 0001:00001b88       ?GetAdvise@?$IViewObjectExImpl@VCOPOSLights@@@ATL@@UEAAJPEAK0PEAPEAUIAdviseSink@@@Z 0000000180002b88 f i Lights.obj
 0001:00001bc4       ?GetExtent@?$IViewObjectExImpl@VCOPOSLights@@@ATL@@UEAAJKJPEAUtagDVTARGETDEVICE@@PEAUtagSIZE@@@Z 0000000180002bc4 f i Lights.obj
 0001:00001bf4       ?GetViewStatus@?$IViewObjectExImpl@VCOPOSLights@@@ATL@@UEAAJPEAK@Z 0000000180002bf4 f i Lights.obj
 0001:00001c08       ?QueryHitPoint@?$IViewObjectExImpl@VCOPOSLights@@@ATL@@UEAAJKPEBUtagRECT@@UtagPOINT@@JPEAK@Z 0000000180002c08 f i Lights.obj
 0001:00001c4c       ?QueryHitRect@?$IViewObjectExImpl@VCOPOSLights@@@ATL@@UEAAJKPEBUtagRECT@@0JPEAK@Z 0000000180002c4c f i Lights.obj
 0001:00001cb4       ?GetNaturalExtent@?$IViewObjectExImpl@VCOPOSLights@@@ATL@@UEAAJKJPEAUtagDVTARGETDEVICE@@PEAUHDC__@@PEAUtagExtentInfo@@PEAUtagSIZE@@@Z 0000000180002cb4 f i Lights.obj
 0001:00001cfc       ?GetWindow@?$IOleInPlaceObjectWindowlessImpl@VCOPOSLights@@@ATL@@UEAAJPEAPEAUHWND__@@@Z 0000000180002cfc f i Lights.obj
 0001:00001d50       ?InPlaceDeactivate@?$IOleInPlaceObjectWindowlessImpl@VCOPOSLights@@@ATL@@UEAAJXZ 0000000180002d50 f i Lights.obj
 0001:00001d6c       ?UIDeactivate@?$IOleInPlaceObjectWindowlessImpl@VCOPOSLights@@@ATL@@UEAAJXZ 0000000180002d6c f i Lights.obj
 0001:00001d88       ?SetObjectRects@?$IOleInPlaceObjectWindowlessImpl@VCOPOSLights@@@ATL@@UEAAJPEBUtagRECT@@0@Z 0000000180002d88 f i Lights.obj
 0001:00001da4       ?OnWindowMessage@?$IOleInPlaceObjectWindowlessImpl@VCOPOSLights@@@ATL@@UEAAJI_K_JPEA_J@Z 0000000180002da4 f i Lights.obj
 0001:00001e6c       ?EnumConnectionPoints@?$IConnectionPointContainerImpl@VCOPOSLights@@@ATL@@UEAAJPEAPEAUIEnumConnectionPoints@@@Z 0000000180002e6c f i Lights.obj
 0001:000020b4       ?FindConnectionPoint@?$IConnectionPointContainerImpl@VCOPOSLights@@@ATL@@UEAAJAEBU_GUID@@PEAPEAUIConnectionPoint@@@Z 00000001800030b4 f i Lights.obj
 0001:00002184       ?IsDirty@?$IPersistStorageImpl@VCOPOSLights@@@ATL@@UEAAJXZ 0000000180003184 f i Lights.obj
 0001:000021c4       ?InitNew@?$IPersistStorageImpl@VCOPOSLights@@@ATL@@UEAAJPEAUIStorage@@@Z 00000001800031c4 f i Lights.obj
 0001:00002204       ?Load@?$IPersistStorageImpl@VCOPOSLights@@@ATL@@UEAAJPEAUIStorage@@@Z 0000000180003204 f i Lights.obj
 0001:000022a4       ?Save@?$IPersistStorageImpl@VCOPOSLights@@@ATL@@UEAAJPEAUIStorage@@H@Z 00000001800032a4 f i Lights.obj
 0001:00002354       ?GetPages@?$ISpecifyPropertyPagesImpl@VCOPOSLights@@@ATL@@UEAAJPEAUtagCAUUID@@@Z 0000000180003354 f i Lights.obj
 0001:00002360       ?QuickActivate@?$IQuickActivateImpl@VCOPOSLights@@@ATL@@UEAAJPEAUtagQACONTAINER@@PEAUtagQACONTROL@@@Z 0000000180003360 f i Lights.obj
 0001:0000237c       ?SetContentExtent@?$IQuickActivateImpl@VCOPOSLights@@@ATL@@UEAAJPEAUtagSIZE@@@Z 000000018000337c f i Lights.obj
 0001:000023b0       ?GetContentExtent@?$IQuickActivateImpl@VCOPOSLights@@@ATL@@UEAAJPEAUtagSIZE@@@Z 00000001800033b0 f i Lights.obj
 0001:000023e8       ?GetData@?$IDataObjectImpl@VCOPOSLights@@@ATL@@UEAAJPEAUtagFORMATETC@@PEAUtagSTGMEDIUM@@@Z 00000001800033e8 f i Lights.obj
 0001:00002404       ?DAdvise@?$IDataObjectImpl@VCOPOSLights@@@ATL@@UEAAJPEAUtagFORMATETC@@KPEAUIAdviseSink@@PEAK@Z 0000000180003404 f i Lights.obj
 0001:0000248c       ?DUnadvise@?$IDataObjectImpl@VCOPOSLights@@@ATL@@UEAAJK@Z 000000018000348c f i Lights.obj
 0001:000024b8       ?EnumDAdvise@?$IDataObjectImpl@VCOPOSLights@@@ATL@@UEAAJPEAPEAUIEnumSTATDATA@@@Z 00000001800034b8 f i Lights.obj
 0001:000024f4       ?GetClassInfoW@?$IProvideClassInfo2Impl@$1?CLSID_OPOSLights@@3U_GUID@@B$1?DIID__IOPOSLightsEvents@@3U2@B$1?LIBID_OposLights_CCO@@3U2@B$00$0A@VCComTypeInfoHolder@ATL@@@ATL@@UEAAJPEAPEAUITypeInfo@@@Z 00000001800034f4 f i Lights.obj
 0001:0000254c       ?GetGUID@?$IProvideClassInfo2Impl@$1?CLSID_OPOSLights@@3U_GUID@@B$1?DIID__IOPOSLightsEvents@@3U2@B$1?LIBID_OposLights_CCO@@3U2@B$00$0A@VCComTypeInfoHolder@ATL@@@ATL@@UEAAJKPEAU_GUID@@@Z 000000018000354c f i Lights.obj
 0001:00002580       ?FAccessAllowed@?$IObjectSafetyImpl@VCOPOSLights@@$02@ATL@@MEAAHXZ 0000000180003580 f i Lights.obj
 0001:00002580       ?AddRef@CRegObject@ATL@@UEAAKXZ 0000000180003580 f i Lights.obj
 0001:00002580       _get_startup_argv_mode     0000000180003580 f i LIBCMT:argv_mode.obj
 0001:00002588       ?GetInterfaceSafetyOptions@?$IObjectSafetyImpl@VCOPOSLights@@$02@ATL@@UEAAJAEBU_GUID@@PEAK1@Z 0000000180003588 f i Lights.obj
 0001:0000261c       ?SetInterfaceSafetyOptions@?$IObjectSafetyImpl@VCOPOSLights@@$02@ATL@@UEAAJAEBU_GUID@@KK@Z 000000018000361c f i Lights.obj
 0001:000026c0       ?_LocCPQueryInterface@?$IConnectionPointImpl@VCOPOSLights@@$1?IID_IPropertyNotifySink@@3U_GUID@@BVCComDynamicUnkArray@ATL@@@ATL@@UEAAJAEBU_GUID@@PEAPEAX@Z 00000001800036c0 f i Lights.obj
 0001:000026c0       ?_LocCPQueryInterface@?$IConnectionPointImpl@VCOPOSLights@@$1?DIID__IOPOSLightsEvents@@3U_GUID@@BVCComDynamicUnkArray@ATL@@@ATL@@UEAAJAEBU_GUID@@PEAPEAX@Z 00000001800036c0 f i Lights.obj
 0001:00002734       ?GetConnectionInterface@?$IConnectionPointImpl@VCOPOSLights@@$1?IID_IPropertyNotifySink@@3U_GUID@@BVCComDynamicUnkArray@ATL@@@ATL@@UEAAJPEAU_GUID@@@Z 0000000180003734 f i Lights.obj
 0001:00002750       ?GetConnectionPointContainer@?$IConnectionPointImpl@VCOPOSLights@@$1?IID_IPropertyNotifySink@@3U_GUID@@BVCComDynamicUnkArray@ATL@@@ATL@@UEAAJPEAPEAUIConnectionPointContainer@@@Z 0000000180003750 f i Lights.obj
 0001:00002770       ?Advise@?$IConnectionPointImpl@VCOPOSLights@@$1?DIID__IOPOSLightsEvents@@3U_GUID@@BVCComDynamicUnkArray@ATL@@@ATL@@UEAAJPEAUIUnknown@@PEAK@Z 0000000180003770 f i Lights.obj
 0001:00002770       ?Advise@?$IConnectionPointImpl@VCOPOSLights@@$1?IID_IPropertyNotifySink@@3U_GUID@@BVCComDynamicUnkArray@ATL@@@ATL@@UEAAJPEAUIUnknown@@PEAK@Z 0000000180003770 f i Lights.obj
 0001:0000282c       ?Unadvise@?$IConnectionPointImpl@VCOPOSLights@@$1?IID_IPropertyNotifySink@@3U_GUID@@BVCComDynamicUnkArray@ATL@@@ATL@@UEAAJK@Z 000000018000382c f i Lights.obj
 0001:0000282c       ?Unadvise@?$IConnectionPointImpl@VCOPOSLights@@$1?DIID__IOPOSLightsEvents@@3U_GUID@@BVCComDynamicUnkArray@ATL@@@ATL@@UEAAJK@Z 000000018000382c f i Lights.obj
 0001:00002894       ?EnumConnections@?$IConnectionPointImpl@VCOPOSLights@@$1?IID_IPropertyNotifySink@@3U_GUID@@BVCComDynamicUnkArray@ATL@@@ATL@@UEAAJPEAPEAUIEnumConnections@@@Z 0000000180003894 f i Lights.obj
 0001:00002894       ?EnumConnections@?$IConnectionPointImpl@VCOPOSLights@@$1?DIID__IOPOSLightsEvents@@3U_GUID@@BVCComDynamicUnkArray@ATL@@@ATL@@UEAAJPEAPEAUIEnumConnections@@@Z 0000000180003894 f i Lights.obj
 0001:00002a28       ?GetConnectionInterface@?$IConnectionPointImpl@VCOPOSLights@@$1?DIID__IOPOSLightsEvents@@3U_GUID@@BVCComDynamicUnkArray@ATL@@@ATL@@UEAAJPEAU_GUID@@@Z 0000000180003a28 f i Lights.obj
 0001:00002a44       ?GetConnectionPointContainer@?$IConnectionPointImpl@VCOPOSLights@@$1?DIID__IOPOSLightsEvents@@3U_GUID@@BVCComDynamicUnkArray@ATL@@@ATL@@UEAAJPEAPEAUIConnectionPointContainer@@@Z 0000000180003a44 f i Lights.obj
 0001:00002a64       ?UpdateRegistry@COPOSLights@@SAJH@Z 0000000180003a64 f i Lights.obj
 0001:00002a7c       ?Lock@CAtlModule@ATL@@UEAAJXZ 0000000180003a7c f i Lights.obj
 0001:00002a8c       ?Unlock@CAtlModule@ATL@@UEAAJXZ 0000000180003a8c f i Lights.obj
 0001:00002a98       ?GetLockCount@CAtlModule@ATL@@UEAAJXZ 0000000180003a98 f i Lights.obj
 0001:00002a9c       ?GetGITPtr@CAtlModule@ATL@@UEAAJPEAPEAUIGlobalInterfaceTable@@@Z 0000000180003a9c f i Lights.obj
 0001:00002b0c       ?ProcessWindowMessage@COPOSLights@@UEAAHPEAUHWND__@@I_K_JAEA_JK@Z 0000000180003b0c f i Lights.obj
 0001:00002b9c       ?SODirectIO@COPOSLights@@MEAAJJPEAJPEAPEA_W@Z 0000000180003b9c f i Lights.obj
 0001:00002c14       ?SOStatusUpdate@COPOSLights@@MEAAJJ@Z 0000000180003c14 f i Lights.obj
 0001:00002c64       ?AddCommonRGSReplacements@?$CAtlModuleT@VCComModule@ATL@@@ATL@@UEAAJPEAUIRegistrarBase@@@Z 0000000180003c64 f i Lights.obj
 0001:00002c7c       ?UpdateRegistryFromResourceD@CComModule@ATL@@UEAAJPEB_WHPEAU_ATL_REGMAP_ENTRY@2@@Z 0000000180003c7c f i Lights.obj
 0001:00002c7c       ?UpdateRegistryFromResourceD@CComModule@ATL@@UEAAJIHPEAU_ATL_REGMAP_ENTRY@2@@Z 0000000180003c7c f i Lights.obj
 0001:00002c84       ?UpdateRegistryFromResource@CComModule@ATL@@UEAAJPEB_WHPEAU_ATL_REGMAP_ENTRY@2@@Z 0000000180003c84 f i Lights.obj
 0001:00002c8c       ?UpdateRegistryFromResource@CComModule@ATL@@UEAAJIHPEAU_ATL_REGMAP_ENTRY@2@@Z 0000000180003c8c f i Lights.obj
 0001:00002c94       ??_GCComModule@ATL@@UEAAPEAXI@Z 0000000180003c94 f i Lights.obj
 0001:00002c94       ??_ECComModule@ATL@@UEAAPEAXI@Z 0000000180003c94 f i Lights.obj
 0001:00002cd4       ?CreateInstance@?$CComCreator@V?$CComObjectCached@VCComClassFactory@ATL@@@ATL@@@ATL@@SAJPEAXAEBU_GUID@@PEAPEAX@Z 0000000180003cd4 f i Lights.obj
 0001:00002df8       ?CreateInstance@?$CComCreator2@V?$CComCreator@V?$CComObject@VCOPOSLights@@@ATL@@@ATL@@V?$CComCreator@V?$CComAggObject@VCOPOSLights@@@ATL@@@2@@ATL@@SAJPEAXAEBU_GUID@@PEAPEAX@Z 0000000180003df8 f i Lights.obj
 0001:00002e08       ?AddRef@?$CComObjectCached@VCComClassFactory@ATL@@@ATL@@UEAAKXZ 0000000180003e08 f i Lights.obj
 0001:00002e34       ?Release@?$CComObjectCached@VCComClassFactory@ATL@@@ATL@@UEAAKXZ 0000000180003e34 f i Lights.obj
 0001:00002e74       ?QueryInterface@?$CComObjectCached@VCComClassFactory@ATL@@@ATL@@UEAAJAEBU_GUID@@PEAPEAX@Z 0000000180003e74 f i Lights.obj
 0001:00002e88       ??_G?$CComObjectCached@VCComClassFactory@ATL@@@ATL@@UEAAPEAXI@Z 0000000180003e88 f i Lights.obj
 0001:00002e88       ??_E?$CComObjectCached@VCComClassFactory@ATL@@@ATL@@UEAAPEAXI@Z 0000000180003e88 f i Lights.obj
 0001:00002ee0       ?Next@?$CComEnumImpl@UIEnumConnectionPoints@@$1?_GUID_b196b285_bab4_101a_b69c_00aa00341d07@@3U__s_GUID@@BPEAUIConnectionPoint@@V?$_CopyInterface@UIConnectionPoint@@@ATL@@@ATL@@UEAAJKPEAPEAUIConnectionPoint@@PEAK@Z 0000000180003ee0 f i Lights.obj
 0001:00002fa4       ?Skip@?$CComEnumImpl@UIEnumConnectionPoints@@$1?_GUID_b196b285_bab4_101a_b69c_00aa00341d07@@3U__s_GUID@@BPEAUIConnectionPoint@@V?$_CopyInterface@UIConnectionPoint@@@ATL@@@ATL@@UEAAJK@Z 0000000180003fa4 f i Lights.obj
 0001:00002fd0       ?Clone@?$CComEnumImpl@UIEnumConnectionPoints@@$1?_GUID_b196b285_bab4_101a_b69c_00aa00341d07@@3U__s_GUID@@BPEAUIConnectionPoint@@V?$_CopyInterface@UIConnectionPoint@@@ATL@@@ATL@@UEAAJPEAPEAUIEnumConnectionPoints@@@Z 0000000180003fd0 f i Lights.obj
 0001:000030fc       ?QueryInterface@?$CComObject@V?$CComEnum@UIEnumConnectionPoints@@$1?_GUID_b196b285_bab4_101a_b69c_00aa00341d07@@3U__s_GUID@@BPEAUIConnectionPoint@@V?$_CopyInterface@UIConnectionPoint@@@ATL@@VCComSingleThreadModel@6@@ATL@@@ATL@@UEAAJAEBU_GUID@@PEAPEAX@Z 00000001800040fc f i Lights.obj
 0001:00003110       ??_G?$CComObject@V?$CComEnum@UIEnumConnectionPoints@@$1?_GUID_b196b285_bab4_101a_b69c_00aa00341d07@@3U__s_GUID@@BPEAUIConnectionPoint@@V?$_CopyInterface@UIConnectionPoint@@@ATL@@VCComSingleThreadModel@6@@ATL@@@ATL@@UEAAPEAXI@Z 0000000180004110 f i Lights.obj
 0001:00003110       ??_E?$CComObject@V?$CComEnum@UIEnumConnectionPoints@@$1?_GUID_b196b285_bab4_101a_b69c_00aa00341d07@@3U__s_GUID@@BPEAUIConnectionPoint@@V?$_CopyInterface@UIConnectionPoint@@@ATL@@VCComSingleThreadModel@6@@ATL@@@ATL@@UEAAPEAXI@Z 0000000180004110 f i Lights.obj
 0001:00003168       ?AddReplacement@CRegObject@ATL@@UEAAJPEB_W0@Z 0000000180004168 f i Lights.obj
 0001:00003198       ?ClearReplacements@CRegObject@ATL@@UEAAJXZ 0000000180004198 f i Lights.obj
 0001:000031a4       ??_ECRegObject@ATL@@UEAAPEAXI@Z 00000001800041a4 f i Lights.obj
 0001:000031a4       ??_GCRegObject@ATL@@UEAAPEAXI@Z 00000001800041a4 f i Lights.obj
 0001:00003224       ?AddRef@?$CComAggObject@VCOPOSLights@@@ATL@@UEAAKXZ 0000000180004224 f i Lights.obj
 0001:00003230       ?Release@?$CComAggObject@VCOPOSLights@@@ATL@@UEAAKXZ 0000000180004230 f i Lights.obj
 0001:00003284       ?QueryInterface@?$CComAggObject@VCOPOSLights@@@ATL@@UEAAJAEBU_GUID@@PEAPEAX@Z 0000000180004284 f i Lights.obj
 0001:000032e4       ?AddRef@?$CComContainedObject@VCOPOSLights@@@ATL@@UEAAKXZ 00000001800042e4 f i Lights.obj
 0001:000032f4       ?Release@?$CComContainedObject@VCOPOSLights@@@ATL@@UEAAKXZ 00000001800042f4 f i Lights.obj
 0001:00003304       ?QueryInterface@?$CComContainedObject@VCOPOSLights@@@ATL@@UEAAJAEBU_GUID@@PEAPEAX@Z 0000000180004304 f i Lights.obj
 0001:00003314       ??_E?$CComAggObject@VCOPOSLights@@@ATL@@UEAAPEAXI@Z 0000000180004314 f i Lights.obj
 0001:00003314       ??_G?$CComAggObject@VCOPOSLights@@@ATL@@UEAAPEAXI@Z 0000000180004314 f i Lights.obj
 0001:0000336c       ?AddRef@?$CComObject@VCOPOSLights@@@ATL@@UEAAKXZ 000000018000436c f i Lights.obj
 0001:0000337c       ?Release@?$CComObject@VCOPOSLights@@@ATL@@UEAAKXZ 000000018000437c f i Lights.obj
 0001:000033d4       ?QueryInterface@?$CComObject@VCOPOSLights@@@ATL@@UEAAJAEBU_GUID@@PEAPEAX@Z 00000001800043d4 f i Lights.obj
 0001:000033e8       ?OnDrawAdvanced@CComControlBase@ATL@@UEAAJAEAUATL_DRAWINFO@@@Z 00000001800043e8 f i Lights.obj
 0001:00003574       ??$AtlModuleRegisterWndClassInfoT@VAtlModuleRegisterWndClassInfoParamW@ATL@@@ATL@@YAGPEAU_ATL_BASE_MODULE70@0@PEAU_ATL_WIN_MODULE70@0@PEAU_ATL_WNDCLASSINFOW@0@PEAP6A_JPEAUHWND__@@I_K_J@ZVAtlModuleRegisterWndClassInfoParamW@0@@Z 0000000180004574 f i Lights.obj
 0001:00003774       ??0?$CComContainedObject@VCOPOSLights@@@ATL@@QEAA@PEAX@Z 0000000180004774 f i Lights.obj
 0001:00003890       ??0?$CComObject@VCOPOSLights@@@ATL@@QEAA@PEAX@Z 0000000180004890 f i Lights.obj
 0001:000039a8       ??0CAtlModule@ATL@@QEAA@XZ 00000001800049a8 f i Lights.obj
 0001:00003a1c       ??1?$CComEnumImpl@UIEnumConnectionPoints@@$1?_GUID_b196b285_bab4_101a_b69c_00aa00341d07@@3U__s_GUID@@BPEAUIConnectionPoint@@V?$_CopyInterface@UIConnectionPoint@@@ATL@@@ATL@@UEAA@XZ 0000000180004a1c f i Lights.obj
 0001:00003a74       ??1?$CComEnumImpl@UIEnumConnections@@$1?_GUID_b196b287_bab4_101a_b69c_00aa00341d07@@3U__s_GUID@@BUtagCONNECTDATA@@V?$_Copy@UtagCONNECTDATA@@@ATL@@@ATL@@UEAA@XZ 0000000180004a74 f i Lights.obj
 0001:00003acc       ??1?$CComObject@VCOPOSLights@@@ATL@@UEAA@XZ 0000000180004acc f i Lights.obj
 0001:00003bec       ??_E?$CComContainedObject@VCOPOSLights@@@ATL@@UEAAPEAXI@Z 0000000180004bec f i Lights.obj
 0001:00003bec       ??_G?$CComContainedObject@VCOPOSLights@@@ATL@@UEAAPEAXI@Z 0000000180004bec f i Lights.obj
 0001:00003c20       ??_E?$CComObject@VCOPOSLights@@@ATL@@UEAAPEAXI@Z 0000000180004c20 f i Lights.obj
 0001:00003c20       ??_G?$CComObject@VCOPOSLights@@@ATL@@UEAAPEAXI@Z 0000000180004c20 f i Lights.obj
 0001:00003c54       ?Add@?$CSimpleArray@GV?$CSimpleArrayEqualHelper@G@ATL@@@ATL@@QEAAHAEBG@Z 0000000180004c54 f i Lights.obj
 0001:00003cf4       ?Add@?$CSimpleMap@PEA_WPEA_WVCExpansionVectorEqualHelper@ATL@@@ATL@@QEAAHAEBQEA_W0@Z 0000000180004cf4 f i Lights.obj
 0001:00003d90       ?Add@CComDynamicUnkArray@ATL@@QEAAKPEAUIUnknown@@@Z 0000000180004d90 f i Lights.obj
 0001:00003e74       ?Add@CExpansionVector@ATL@@QEAAHPEB_W0@Z 0000000180004e74 f i Lights.obj
 0001:00003fa8       ?AddTermFunc@CAtlModule@ATL@@QEAAJP6AX_K@Z0@Z 0000000180004fa8 f i Lights.obj
 0001:00004044       ?AddValue@CRegParser@ATL@@IEAAJAEAVCRegKey@2@PEB_WPEA_W@Z 0000000180005044 f i Lights.obj
 0001:00004454       ?AllocateHeap@?$CTempBuffer@E$0BAA@VCCRTAllocator@ATL@@@ATL@@AEAAX_K@Z 0000000180005454 f i Lights.obj
 0001:00004454       ?AllocateHeap@?$CTempBuffer@_W$0BAA@VCCRTAllocator@ATL@@@ATL@@AEAAX_K@Z 0000000180005454 f i Lights.obj
 0001:00004454       ?AllocateHeap@?$CTempBuffer@_W$0EAA@VCCRTAllocator@ATL@@@ATL@@AEAAX_K@Z 0000000180005454 f i Lights.obj
 0001:00004480       ?Append@CParseBuffer@CRegParser@ATL@@QEAAHPEB_WH@Z 0000000180005480 f i Lights.obj
 0001:000045b4       ?AtlComModuleGetClassObject@ATL@@YAJPEAU_ATL_COM_MODULE70@1@AEBU_GUID@@1PEAPEAX@Z 00000001800055b4 f i Lights.obj
 0001:000046f0       ?AtlComModuleRegisterServer@ATL@@YAJPEAU_ATL_COM_MODULE70@1@HPEBU_GUID@@@Z 00000001800056f0 f i Lights.obj
 0001:000047b0       ?AtlComModuleUnregisterServer@ATL@@YAJPEAU_ATL_COM_MODULE70@1@HPEBU_GUID@@@Z 00000001800057b0 f i Lights.obj
 0001:0000486c       ?AtlHiMetricToPixel@ATL@@YAXPEBUtagSIZE@@PEAU2@@Z 000000018000586c f i Lights.obj
 0001:0000491c       ?AtlHresultFromLastError@ATL@@YAJXZ 000000018000591c f i Lights.obj
 0001:0000493c       ?AtlHresultFromWin32@ATL@@YAJK@Z 000000018000593c f i Lights.obj
 0001:0000494c       ?AtlInternalOleLoadFromStream@ATL@@YAJPEAUIStream@@AEBU_GUID@@PEAPEAXTClassesAllowedInStream@1@K@Z 000000018000594c f i Lights.obj
 0001:00004a9c       ?AtlInternalQueryInterface@ATL@@YAJPEAXPEBU_ATL_INTMAP_ENTRY@1@AEBU_GUID@@PEAPEAX@Z 0000000180005a9c f i Lights.obj
 0001:00004ba4       ?AtlLoadTypeLib@ATL@@YAJPEAUHINSTANCE__@@PEB_WPEAPEA_WPEAPEAUITypeLib@@@Z 0000000180005ba4 f i Lights.obj
 0001:00004e00       ?AtlRegisterClassCategoriesHelper@ATL@@YAJAEBU_GUID@@PEBU_ATL_CATMAP_ENTRY@1@H@Z 0000000180005e00 f i Lights.obj
 0001:00005284       ?AtlRegisterTypeLib@ATL@@YAJPEAUHINSTANCE__@@PEB_W@Z 0000000180006284 f i Lights.obj
 0001:00005480       ?AtlThrowImpl@ATL@@YAXJ@Z  0000000180006480 f i Lights.obj
 0001:000054a4       ?AtlUnRegisterTypeLib@ATL@@YAJPEAUHINSTANCE__@@PEB_W@Z 00000001800064a4 f i Lights.obj
 0001:0000556c       ?AtlWinModuleExtractCreateWndData@ATL@@YAPEAXPEAU_ATL_WIN_MODULE70@1@@Z 000000018000656c f i Lights.obj
 0001:000055f8       ?ChToByte@CRegParser@ATL@@KAE_W@Z 00000001800065f8 f i Lights.obj
 0001:00005684       ?Cleanup@CComTypeInfoHolder@ATL@@SAX_K@Z 0000000180006684 f i Lights.obj
 0001:000056c4       ?ClearReplacements@CExpansionVector@ATL@@QEAAJXZ 00000001800066c4 f i Lights.obj
 0001:00005760       ?CreateInstance@?$CComCreator@V?$CComAggObject@VCOPOSLights@@@ATL@@@ATL@@SAJPEAXAEBU_GUID@@PEAPEAX@Z 0000000180006760 f i Lights.obj
 0001:00005844       ?CreateInstance@?$CComCreator@V?$CComObject@VCOPOSLights@@@ATL@@@ATL@@SAJPEAXAEBU_GUID@@PEAPEAX@Z 0000000180006844 f i Lights.obj
 0001:00005904       ?CreateInstance@?$CComObject@V?$CComEnum@UIEnumConnectionPoints@@$1?_GUID_b196b285_bab4_101a_b69c_00aa00341d07@@3U__s_GUID@@BPEAUIConnectionPoint@@V?$_CopyInterface@UIConnectionPoint@@@ATL@@VCComSingleThreadModel@6@@ATL@@@ATL@@SAJPEAPEAV12@@Z 0000000180006904 f i Lights.obj
 0001:00005994       ?CreateInstance@?$CComObject@V?$CComEnum@UIEnumConnections@@$1?_GUID_b196b287_bab4_101a_b69c_00aa00341d07@@3U__s_GUID@@BUtagCONNECTDATA@@V?$_Copy@UtagCONNECTDATA@@@ATL@@VCComSingleThreadModel@6@@ATL@@@ATL@@SAJPEAPEAV12@@Z 0000000180006994 f i Lights.obj
 0001:00005a24       ?DefaultReflectionHandler@?$CWindowImplRoot@VCWindow@ATL@@@ATL@@SAHPEAUHWND__@@I_K_JAEA_J@Z 0000000180006a24 f i Lights.obj
 0001:00005ab8       ?DeleteSubKey@CRegKey@ATL@@QEAAJPEB_W@Z 0000000180006ab8 f i Lights.obj
 0001:00005b50       ?DoEvent@COPOSLights@@IEAAXI_K_J@Z 0000000180006b50 f i Lights.obj
 0001:00005c04       ?DoVerbPrimary@?$IOleObjectImpl@VCOPOSLights@@@ATL@@QEAAJPEBUtagRECT@@PEAUHWND__@@@Z 0000000180006c04 f i Lights.obj
 0001:00005d30       ?DoVerbProperties@CComControlBase@ATL@@QEAAJPEBUtagRECT@@PEAUHWND__@@@Z 0000000180006d30 f i Lights.obj
 0001:00005f58       ?FireTheEvent@?$CProxy_IOPOSEvents@VCOPOSLights@@@@IEAAXPEAVOposVariant@@IAEAJPEB_WJ@Z 0000000180006f58 f i Lights.obj
 0001:00006044       ?FireViewChange@CComControlBase@ATL@@QEAAJXZ 0000000180007044 f i Lights.obj
 0001:000060a8       ?Fire_DirectIOEvent@?$CProxy_IOPOSEvents@VCOPOSLights@@@@QEAAXJPEAJPEAPEA_W@Z 00000001800070a8 f i Lights.obj
 0001:00006208       ?Fire_StatusUpdateEvent@?$CProxy_IOPOSEvents@VCOPOSLights@@@@QEAAXJ@Z 0000000180007208 f i Lights.obj
 0001:000062f4       ?FreeHeap@?$CTempBuffer@_W$0BAA@VCCRTAllocator@ATL@@@ATL@@AEAAXXZ 00000001800072f4 f i Lights.obj
 0001:000062f4       ?FreeHeap@?$CTempBuffer@_W$0EAA@VCCRTAllocator@ATL@@@ATL@@AEAAXXZ 00000001800072f4 f i Lights.obj
 0001:000062f4       ?FreeHeap@?$CTempBuffer@E$0BAA@VCCRTAllocator@ATL@@@ATL@@AEAAXXZ 00000001800072f4 f i Lights.obj
 0001:000062fc       ?GetAmbientLocaleID@CComControlBase@ATL@@QEAAJAEAK@Z 00000001800072fc f i Lights.obj
 0001:000063bc       ?GetAmbientUserMode@CComControlBase@ATL@@QEAAJAEAH@Z 00000001800073bc f i Lights.obj
 0001:0000648c       ?GetClassObject@CComModule@ATL@@QEAAJAEBU_GUID@@0PEAPEAX@Z 000000018000748c f i Lights.obj
 0001:00006580       ?GetConnMap@COPOSLights@@SAPEBU_ATL_CONNMAP_ENTRY@ATL@@PEAH@Z 0000000180007580 f i Lights.obj
 0001:00006608       ?GetIDsOfNames@CComTypeInfoHolder@ATL@@QEAAJAEBU_GUID@@PEAPEA_WIKPEAJ@Z 0000000180007608 f i Lights.obj
 0001:00006778       ?GetPagesHelper@?$ISpecifyPropertyPagesImpl@VCOPOSLights@@@ATL@@IEAAJPEAUtagCAUUID@@PEBUATL_PROPMAP_ENTRY@2@@Z 0000000180007778 f i Lights.obj
 0001:00006918       ?GetSizeMax@CComVariant@ATL@@QEBAJPEAT_ULARGE_INTEGER@@@Z 0000000180007918 f i Lights.obj
 0001:00006b48       ?GetTI@CComTypeInfoHolder@ATL@@QEAAJK@Z 0000000180007b48 f i Lights.obj
 0001:00006e2c       ?GetZoomInfo@CComControlBase@ATL@@QEAAXAEAUATL_DRAWINFO@@@Z 0000000180007e2c f i Lights.obj
 0001:00006ed0       ?HKeyFromString@CRegParser@ATL@@KAPEAUHKEY__@@PEA_W@Z 0000000180007ed0 f i Lights.obj
 0001:00006f34       ?IDataObject_GetData@CComControlBase@ATL@@QEAAJPEAUtagFORMATETC@@PEAUtagSTGMEDIUM@@@Z 0000000180007f34 f i Lights.obj
 0001:00007128       ?IOleInPlaceObject_InPlaceDeactivate@CComControlBase@ATL@@QEAAJXZ 0000000180008128 f i Lights.obj
 0001:000071c8       ?IOleInPlaceObject_SetObjectRects@CComControlBase@ATL@@QEAAJPEBUtagRECT@@0@Z 00000001800081c8 f i Lights.obj
 0001:000072b8       ?IOleInPlaceObject_UIDeactivate@CComControlBase@ATL@@QEAAJXZ 00000001800082b8 f i Lights.obj
 0001:000073c4       ?IOleObject_Close@CComControlBase@ATL@@QEAAJK@Z 00000001800083c4 f i Lights.obj
 0001:000074dc       ?IOleObject_SetClientSite@CComControlBase@ATL@@QEAAJPEAUIOleClientSite@@@Z 00000001800084dc f i Lights.obj
 0001:00007550       ?IOleObject_SetExtent@CComControlBase@ATL@@QEAAJKPEAUtagSIZE@@@Z 0000000180008550 f i Lights.obj
 0001:000075e8       ?IPSI_GetIPersistStreamInit@?$IPersistStorageImpl@VCOPOSLights@@@ATL@@AEAAPEAUIPersistStreamInit@@XZ 00000001800085e8 f i Lights.obj
 0001:000076d0       ?IPersistStreamInit_Load@?$IPersistStreamInitImpl@VCOPOSLights@@@ATL@@QEAAJPEAUIStream@@PEBUATL_PROPMAP_ENTRY@2@@Z 00000001800086d0 f i Lights.obj
 0001:000079f8       ?IPersistStreamInit_Save@?$IPersistStreamInitImpl@VCOPOSLights@@@ATL@@QEAAJPEAUIStream@@HPEBUATL_PROPMAP_ENTRY@2@@Z 00000001800089f8 f i Lights.obj
 0001:00007c94       ?IQuickActivate_QuickActivate@CComControlBase@ATL@@QEAAJPEAUtagQACONTAINER@@PEAUtagQACONTROL@@@Z 0000000180008c94 f i Lights.obj
 0001:00007f58       ?IViewObject_Draw@CComControlBase@ATL@@QEAAJKJPEAXPEAUtagDVTARGETDEVICE@@PEAUHDC__@@2PEBU_RECTL@@3@Z 0000000180008f58 f i Lights.obj
 0001:0000806c       ?InPlaceActivate@CComControlBase@ATL@@QEAAJJPEBUtagRECT@@@Z 000000018000906c f i Lights.obj
 0001:0000839c       ?Init@?$CComEnumImpl@UIEnumConnectionPoints@@$1?_GUID_b196b285_bab4_101a_b69c_00aa00341d07@@3U__s_GUID@@BPEAUIConnectionPoint@@V?$_CopyInterface@UIConnectionPoint@@@ATL@@@ATL@@QEAAJPEAPEAUIConnectionPoint@@0PEAUIUnknown@@W4CComEnumFlags@2@@Z 000000018000939c f i Lights.obj
 0001:000084b8       ?Init@?$CComEnumImpl@UIEnumConnections@@$1?_GUID_b196b287_bab4_101a_b69c_00aa00341d07@@3U__s_GUID@@BUtagCONNECTDATA@@V?$_Copy@UtagCONNECTDATA@@@ATL@@@ATL@@QEAAJPEAUtagCONNECTDATA@@0PEAUIUnknown@@W4CComEnumFlags@2@@Z 00000001800094b8 f i Lights.obj
 0001:000085d8       ?IsEqualObject@?$CComPtrBase@UIOleClientSite@@@ATL@@QEAA_NPEAUIUnknown@@@Z 00000001800095d8 f i Lights.obj
 0001:00008664       ?LoadNameCache@CComTypeInfoHolder@ATL@@QEAAJPEAUITypeInfo@@@Z 0000000180009664 f i Lights.obj
 0001:000087f4       ?Lookup@?$CSimpleMap@PEA_WPEA_WVCExpansionVectorEqualHelper@ATL@@@ATL@@QEBAPEA_WAEBQEA_W@Z 00000001800097f4 f i Lights.obj
 0001:0000887c       ?NextToken@CRegParser@ATL@@IEAAJPEA_W@Z 000000018000987c f i Lights.obj
 0001:00008a18       ?OnKillFocus@CComControlBase@ATL@@QEAA_JI_K_JAEAH@Z 0000000180009a18 f i Lights.obj
 0001:00008ab4       ?OnMouseActivate@CComControlBase@ATL@@QEAA_JI_K_JAEAH@Z 0000000180009ab4 f i Lights.obj
 0001:00008b54       ?OnPaint@CComControlBase@ATL@@QEAA_JI_K_JAEAH@Z 0000000180009b54 f i Lights.obj
 0001:00008c40       ?OnSetFocus@CComControlBase@ATL@@QEAA_JI_K_JAEAH@Z 0000000180009c40 f i Lights.obj
 0001:00008d48       ?PreProcessBuffer@CRegParser@ATL@@QEAAJPEA_WPEAPEA_W@Z 0000000180009d48 f i Lights.obj
 0001:000090d0       ?ProcessWindowMessage@?$CComControl@VCOPOSLights@@V?$CWindowImpl@VCOPOSLights@@VCWindow@ATL@@V?$CWinTraits@$0FGAAAAAA@$0A@@3@@ATL@@@ATL@@UEAAHPEAUHWND__@@I_K_JAEA_JK@Z 000000018000a0d0 f i Lights.obj
 0001:000091bc       ?ReadFromStream@CComBSTR@ATL@@QEAAJPEAUIStream@@@Z 000000018000a1bc f i Lights.obj
 0001:0000930c       ?ReadFromStream@CComVariant@ATL@@QEAAJPEAUIStream@@GTClassesAllowedInStream@2@K@Z 000000018000a30c f i Lights.obj
 0001:00009550       ?RecurseDeleteKey@CRegKey@ATL@@QEAAJPEB_W@Z 000000018000a550 f i Lights.obj
 0001:000096a8       ?RegCreateKeyExW@CAtlTransactionManager@ATL@@QEAAJPEAUHKEY__@@PEB_WKPEA_WKKQEAU_SECURITY_ATTRIBUTES@@PEAPEAU3@PEAK@Z 000000018000a6a8 f i Lights.obj
 0001:000097dc       ?RegDeleteKeyW@CAtlTransactionManager@ATL@@QEAAJPEAUHKEY__@@PEB_W@Z 000000018000a7dc f i Lights.obj
 0001:00009868       ?RegOpenKeyExW@CAtlTransactionManager@ATL@@QEAAJPEAUHKEY__@@PEB_WKKPEAPEAU3@@Z 000000018000a868 f i Lights.obj
 0001:00009920       ?RegisterBuffer@CRegParser@ATL@@QEAAJPEA_WH@Z 000000018000a920 f i Lights.obj
 0001:00009a8c       ?RegisterFromResource@CRegObject@ATL@@IEAAJPEB_W00H@Z 000000018000aa8c f i Lights.obj
 0001:00009c48       ?RegisterServer@CComModule@ATL@@QEAAJHPEBU_GUID@@@Z 000000018000ac48 f i Lights.obj
 0001:00009d04       ?RegisterSubkeys@CRegParser@ATL@@IEAAJPEA_WPEAUHKEY__@@HH@Z 000000018000ad04 f i Lights.obj
 0001:0000a584       ?SendOnDataChange@CComControlBase@ATL@@QEAAJK@Z 000000018000b584 f i Lights.obj
 0001:0000a5f4       ?SetControlFocus@CComControlBase@ATL@@QEAAHH@Z 000000018000b5f4 f i Lights.obj
 0001:0000a6c4       ?SkipAssignment@CRegParser@ATL@@IEAAJPEA_W@Z 000000018000b6c4 f i Lights.obj
 0001:0000a77c       ?Term@CAtlModule@ATL@@QEAAXXZ 000000018000b77c f i Lights.obj
 0001:0000a834       ?Term@CComModule@ATL@@QEAAXXZ 000000018000b834 f i Lights.obj
 0001:0000a8b0       ?UnregisterServer@CComModule@ATL@@QEAAJHPEBU_GUID@@@Z 000000018000b8b0 f i Lights.obj
 0001:0000a960       ?UpdateRegistryFromResource@CAtlModule@ATL@@QEAAJIHPEAU_ATL_REGMAP_ENTRY@2@@Z 000000018000b960 f i Lights.obj
 0001:0000ac6c       ?UpdateRegistryFromResource@CAtlModule@ATL@@QEAAJPEB_WHPEAU_ATL_REGMAP_ENTRY@2@@Z 000000018000bc6c f i Lights.obj
 0001:0000af90       ?VTFromRegType@CRegParser@ATL@@KAHPEB_WAEAG@Z 000000018000bf90 f i Lights.obj
 0001:0000b02c       ?WindowProc@?$CWindowImplBaseT@VCWindow@ATL@@V?$CWinTraits@$0FGAAAAAA@$0A@@2@@ATL@@SA_JPEAUHWND__@@I_K_J@Z 000000018000c02c f i Lights.obj
 0001:0000b198       ?WriteToStream@CComVariant@ATL@@QEAAJPEAUIStream@@@Z 000000018000c198 f i Lights.obj
 0001:0000b404       ?WriteToStream@CComVariant@ATL@@QEAAJPEAUIStream@@G@Z 000000018000c404 f i Lights.obj
 0001:0000b49c       ?_AtlVerifyStackAvailable@_ATL_SAFE_ALLOCA_IMPL@ATL@@YA_N_K@Z 000000018000c49c f i Lights.obj
 0001:0000b520       ?atlCreate@?$CWindowImpl@VCOPOSLights@@VCWindow@ATL@@V?$CWinTraits@$0FGAAAAAA@$0A@@3@@ATL@@QEAAPEAUHWND__@@PEAU3@V_U_RECT@2@PEB_WKKV_U_MENUorID@2@PEAX@Z 000000018000c520 f i Lights.obj
 0001:0000b5dc       ?atlCreate@?$CWindowImplBaseT@VCWindow@ATL@@V?$CWinTraits@$0FGAAAAAA@$0A@@2@@ATL@@QEAAPEAUHWND__@@PEAU3@V_U_RECT@2@PEB_WKKV_U_MENUorID@2@GPEAX@Z 000000018000c5dc f i Lights.obj
 0001:0000b74c       ?ocscpy_s@@YA_NPEA_W_KPEB_W@Z 000000018000c74c f i Lights.obj
 0001:0000b7fc       DllCanUnloadNow            000000018000c7fc f   Lights.obj
 0001:0000b808       DllGetClassObject          000000018000c808 f   Lights.obj
 0001:0000b820       DllMain                    000000018000c820 f   Lights.obj
 0001:0000b8c8       DllRegisterServer          000000018000c8c8 f   Lights.obj
 0001:0000b8dc       DllUnregisterServer        000000018000c8dc f   Lights.obj
 0001:0000b8f0       __local_stdio_printf_options 000000018000c8f0 f i Lights.obj
 0001:0000b8f8       swprintf_s                 000000018000c8f8 f i Lights.obj
 0001:0000b94c       ??0COPOSLights@@QEAA@XZ    000000018000c94c f   LightsImpl.obj
 0001:0000ba08       ??1?$IConnectionPointImpl@VCOPOSLights@@$1?IID_IPropertyNotifySink@@3U_GUID@@BVCComDynamicUnkArray@ATL@@@ATL@@QEAA@XZ 000000018000ca08 f i LightsImpl.obj
 0001:0000ba08       ??1?$IConnectionPointImpl@VCOPOSLights@@$1?DIID__IOPOSLightsEvents@@3U_GUID@@BVCComDynamicUnkArray@ATL@@@ATL@@QEAA@XZ 000000018000ca08 f i LightsImpl.obj
 0001:0000ba64       ??1CComControlBase@ATL@@UEAA@XZ 000000018000ca64 f i LightsImpl.obj
 0001:0000bae0       ??1COPOSLights@@UEAA@XZ    000000018000cae0 f   LightsImpl.obj
 0001:0000bb44       ?CheckHealth@COPOSLights@@UEAAJJPEAJ@Z 000000018000cb44 f   LightsImpl.obj
 0001:0000bbc0       ?ClaimDevice@COPOSLights@@UEAAJJPEAJ@Z 000000018000cbc0 f   LightsImpl.obj
 0001:0000bc60       ?Close@COPOSLights@@UEAAJPEAJ@Z 000000018000cc60 f   LightsImpl.obj
 0001:0000bd18       ?CompareFirmwareVersion@COPOSLights@@UEAAJPEA_WPEAJ1@Z 000000018000cd18 f   LightsImpl.obj
 0001:0000bdf4       ?DirectIO@COPOSLights@@UEAAJJPEAJPEAPEA_W0@Z 000000018000cdf4 f   LightsImpl.obj
 0001:0000bef0       ?DoInvoke@COPOSLights@@IEAAJJPEAVOposVariant@@IHPEAJ_N@Z 000000018000cef0 f   LightsImpl.obj
 0001:0000c024       ?EventInit@COPOSLights@@IEAAJXZ 000000018000d024 f i LightsImpl.obj
 0001:0000c174       ?EventUninit@COPOSLights@@IEAAXXZ 000000018000d174 f i LightsImpl.obj
 0001:0000c1d8       ?EventWindowProc@COPOSLights@@IEAA_JI_K_J@Z 000000018000d1d8 f i LightsImpl.obj
 0001:0000c29c       ?FinalConstruct@COPOSLights@@QEAAJXZ 000000018000d29c f   LightsImpl.obj
 0001:0000c2d8       ?FreezeEvents@COPOSLights@@MEAAJH@Z 000000018000d2d8 f   LightsImpl.obj
 0001:0000c344       ?GetOposProp@COPOSLights@@IEAAJJPEAJJ@Z 000000018000d344 f   LightsImpl.obj
 0001:0000c460       ?GetOposProp@COPOSLights@@IEAAJJPEAPEA_WJ@Z 000000018000d460 f   LightsImpl.obj
 0001:0000c58c       ?OnDraw@COPOSLights@@MEAAJAEAUATL_DRAWINFO@@@Z 000000018000d58c f   LightsImpl.obj
 0001:0000c678       ?Open@COPOSLights@@UEAAJPEA_WPEAJ@Z 000000018000d678 f   LightsImpl.obj
 0001:0000cee8       ?ReleaseDevice@COPOSLights@@UEAAJPEAJ@Z 000000018000dee8 f   LightsImpl.obj
 0001:0000cf54       ?ResetStatistics@COPOSLights@@UEAAJPEA_WPEAJ@Z 000000018000df54 f   LightsImpl.obj
 0001:0000cfdc       ?RetrieveStatistics@COPOSLights@@UEAAJPEAPEA_WPEAJ@Z 000000018000dfdc f   LightsImpl.obj
 0001:0000d064       ?SOProcessID@COPOSLights@@UEAAJPEAJ@Z 000000018000e064 f   LightsImpl.obj
 0001:0000d080       ?SetCOFreezeEvents@COPOSLights@@IEAAXF@Z 000000018000e080 f   LightsImpl.obj
 0001:0000d164       ?SetOposProp@COPOSLights@@IEAAJJJJ@Z 000000018000e164 f   LightsImpl.obj
 0001:0000d2c4       ?SwitchOff@COPOSLights@@UEAAJJPEAJ@Z 000000018000e2c4 f   LightsImpl.obj
 0001:0000d340       ?SwitchOn@COPOSLights@@UEAAJJJJJJPEAJ@Z 000000018000e340 f   LightsImpl.obj
 0001:0000d450       ?UpdateFirmware@COPOSLights@@UEAAJPEA_WPEAJ@Z 000000018000e450 f   LightsImpl.obj
 0001:0000d4d8       ?UpdateStatistics@COPOSLights@@UEAAJPEA_WPEAJ@Z 000000018000e4d8 f   LightsImpl.obj
 0001:0000d560       ?get_BinaryConversion@COPOSLights@@UEAAJPEAJ@Z 000000018000e560 f   LightsImpl.obj
 0001:0000d574       ?get_CapAlarm@COPOSLights@@UEAAJPEAJ@Z 000000018000e574 f   LightsImpl.obj
 0001:0000d588       ?get_CapBlink@COPOSLights@@UEAAJPEAF@Z 000000018000e588 f   LightsImpl.obj
 0001:0000d5bc       ?get_CapColor@COPOSLights@@UEAAJPEAJ@Z 000000018000e5bc f   LightsImpl.obj
 0001:0000d5d0       ?get_CapCompareFirmwareVersion@COPOSLights@@UEAAJPEAF@Z 000000018000e5d0 f   LightsImpl.obj
 0001:0000d604       ?get_CapPowerReporting@COPOSLights@@UEAAJPEAJ@Z 000000018000e604 f   LightsImpl.obj
 0001:0000d618       ?get_CapStatisticsReporting@COPOSLights@@UEAAJPEAF@Z 000000018000e618 f   LightsImpl.obj
 0001:0000d64c       ?get_CapUpdateFirmware@COPOSLights@@UEAAJPEAF@Z 000000018000e64c f   LightsImpl.obj
 0001:0000d680       ?get_CapUpdateStatistics@COPOSLights@@UEAAJPEAF@Z 000000018000e680 f   LightsImpl.obj
 0001:0000d6b4       ?get_CheckHealthText@COPOSLights@@UEAAJPEAPEA_W@Z 000000018000e6b4 f   LightsImpl.obj
 0001:0000d6c8       ?get_Claimed@COPOSLights@@UEAAJPEAF@Z 000000018000e6c8 f   LightsImpl.obj
 0001:0000d6fc       ?get_ControlObjectDescription@COPOSLights@@UEAAJPEAPEA_W@Z 000000018000e6fc f   LightsImpl.obj
 0001:0000d760       ?get_ControlObjectVersion@COPOSLights@@UEAAJPEAJ@Z 000000018000e760 f   LightsImpl.obj
 0001:0000d76c       ?get_DeviceDescription@COPOSLights@@UEAAJPEAPEA_W@Z 000000018000e76c f   LightsImpl.obj
 0001:0000d780       ?get_DeviceEnabled@COPOSLights@@UEAAJPEAF@Z 000000018000e780 f   LightsImpl.obj
 0001:0000d7b4       ?get_DeviceName@COPOSLights@@UEAAJPEAPEA_W@Z 000000018000e7b4 f   LightsImpl.obj
 0001:0000d7c8       ?get_FreezeEvents@COPOSLights@@UEAAJPEAF@Z 000000018000e7c8 f   LightsImpl.obj
 0001:0000d7f8       ?get_MaxLights@COPOSLights@@UEAAJPEAJ@Z 000000018000e7f8 f   LightsImpl.obj
 0001:0000d80c       ?get_OpenResult@COPOSLights@@UEAAJPEAJ@Z 000000018000e80c f   LightsImpl.obj
 0001:0000d818       ?get_PowerNotify@COPOSLights@@UEAAJPEAJ@Z 000000018000e818 f   LightsImpl.obj
 0001:0000d82c       ?get_PowerState@COPOSLights@@UEAAJPEAJ@Z 000000018000e82c f   LightsImpl.obj
 0001:0000d840       ?get_ResultCode@COPOSLights@@UEAAJPEAJ@Z 000000018000e840 f   LightsImpl.obj
 0001:0000d87c       ?get_ResultCodeExtended@COPOSLights@@UEAAJPEAJ@Z 000000018000e87c f   LightsImpl.obj
 0001:0000d890       ?get_ServiceObjectDescription@COPOSLights@@UEAAJPEAPEA_W@Z 000000018000e890 f   LightsImpl.obj
 0001:0000d8a4       ?get_ServiceObjectVersion@COPOSLights@@UEAAJPEAJ@Z 000000018000e8a4 f   LightsImpl.obj
 0001:0000d8b8       ?get_State@COPOSLights@@UEAAJPEAJ@Z 000000018000e8b8 f   LightsImpl.obj
 0001:0000d8e4       ?put_BinaryConversion@COPOSLights@@UEAAJJ@Z 000000018000e8e4 f   LightsImpl.obj
 0001:0000d8f8       ?put_DeviceEnabled@COPOSLights@@UEAAJF@Z 000000018000e8f8 f   LightsImpl.obj
 0001:0000d910       ?put_FreezeEvents@COPOSLights@@UEAAJF@Z 000000018000e910 f   LightsImpl.obj
 0001:0000d960       ?put_PowerNotify@COPOSLights@@UEAAJJ@Z 000000018000e960 f   LightsImpl.obj
 0001:0000d974       ?s_EventWindowProc@COPOSLights@@KA_JPEAUHWND__@@I_K_J@Z 000000018000e974 f i LightsImpl.obj
 0001:0000d9f0       ??_U@YAPEAX_K@Z            000000018000e9f0 f   LIBCMT:new_array.obj
 0001:0000d9f8       ??3@YAXPEAX_K@Z            000000018000e9f8 f   LIBCMT:delete_scalar_size.obj
 0001:0000d9f8       ??_V@YAXPEAX@Z             000000018000e9f8 f   LIBCMT:delete_array.obj
 0001:0000da00       ??_V@YAXPEAX_K@Z           000000018000ea00 f   LIBCMT:delete_array_size.obj
 0001:0000da08       __scrt_acquire_startup_lock 000000018000ea08 f   LIBCMT:utility.obj
 0001:0000da44       __scrt_dllmain_after_initialize_c 000000018000ea44 f   LIBCMT:utility.obj
 0001:0000da78       __scrt_dllmain_before_initialize_c 000000018000ea78 f   LIBCMT:utility.obj
 0001:0000da90       __scrt_dllmain_crt_thread_attach 000000018000ea90 f   LIBCMT:utility.obj
 0001:0000dab8       __scrt_dllmain_crt_thread_detach 000000018000eab8 f   LIBCMT:utility.obj
 0001:0000dad0       __scrt_dllmain_exception_filter 000000018000ead0 f   LIBCMT:utility.obj
 0001:0000db30       __scrt_dllmain_uninitialize_c 000000018000eb30 f   LIBCMT:utility.obj
 0001:0000db60       __scrt_dllmain_uninitialize_critical 000000018000eb60 f   LIBCMT:utility.obj
 0001:0000db74       __scrt_initialize_crt      000000018000eb74 f   LIBCMT:utility.obj
 0001:0000dbc0       __scrt_initialize_onexit_tables 000000018000ebc0 f   LIBCMT:utility.obj
 0001:0000dc4c       __scrt_is_nonwritable_in_current_image 000000018000ec4c f   LIBCMT:utility.obj
 0001:0000dce4       __scrt_release_startup_lock 000000018000ece4 f   LIBCMT:utility.obj
 0001:0000dd08       __scrt_uninitialize_crt    000000018000ed08 f   LIBCMT:utility.obj
 0001:0000dd34       _onexit                    000000018000ed34 f   LIBCMT:utility.obj
 0001:0000dd70       atexit                     000000018000ed70 f   LIBCMT:utility.obj
 0001:0000dd88       ??3@YAXPEAX@Z              000000018000ed88 f   LIBCMT:delete_scalar.obj
 0001:0000de88       _Init_thread_footer        000000018000ee88 f   LIBCMT:thread_safe_statics.obj
 0001:0000dee8       _Init_thread_header        000000018000eee8 f   LIBCMT:thread_safe_statics.obj
 0001:0000df50       _Init_thread_notify        000000018000ef50 f   LIBCMT:thread_safe_statics.obj
 0001:0000df94       _Init_thread_wait          000000018000ef94 f   LIBCMT:thread_safe_statics.obj
 0001:0000dff8       __raise_securityfailure    000000018000eff8 f   LIBCMT:gs_report.obj
 0001:0000e02c       __report_gsfailure         000000018000f02c f   LIBCMT:gs_report.obj
 0001:0000e100       __report_rangecheckfailure 000000018000f100 f   LIBCMT:gs_report.obj
 0001:0000e114       __report_securityfailure   000000018000f114 f   LIBCMT:gs_report.obj
 0001:0000e294       ??2@YAPEAX_KAEBUnothrow_t@std@@@Z 000000018000f294 f   LIBCMT:new_scalar_nothrow.obj
 0001:0000e2a8       ??_U@YAPEAX_KAEBUnothrow_t@std@@@Z 000000018000f2a8 f   LIBCMT:new_array_nothrow.obj
 0001:0000e2b0       __GSHandlerCheck           000000018000f2b0 f   LIBCMT:gshandler.obj
 0001:0000e2d0       __GSHandlerCheckCommon     000000018000f2d0 f   LIBCMT:gshandler.obj
 0001:0000e32c       __GSHandlerCheck_SEH       000000018000f32c f   LIBCMT:gshandlerseh.obj
 0001:0000e3d0       _alloca_probe              000000018000f3d0 f   LIBCMT:chkstk.obj
 0001:0000e3d0       __chkstk                   000000018000f3d0 f   LIBCMT:chkstk.obj
 0001:0000e430       __security_check_cookie    000000018000f430 f   LIBCMT:amdsecgs.obj
 0001:0000e770       _DllMainCRTStartup         000000018000f770 f   LIBCMT:dll_dllmain.obj
 0001:0000e7b0       ??2@YAPEAX_K@Z             000000018000f7b0 f   LIBCMT:new_scalar.obj
 0001:0000e7ec       __isa_available_init       000000018000f7ec f   LIBCMT:cpu_disp.obj
 0001:0000e990       __scrt_is_ucrt_dll_in_use  000000018000f990 f   LIBCMT:ucrt_detection.obj
 0001:0000e99c       __crt_debugger_hook        000000018000f99c f   LIBCMT:utility_desktop.obj
 0001:0000e9a4       __scrt_fastfail            000000018000f9a4 f   LIBCMT:utility_desktop.obj
 0001:0000eaf0       __security_init_cookie     000000018000faf0 f   LIBCMT:gs_support.obj
 0001:0000eb9c       ?__scrt_initialize_type_info@@YAXXZ 000000018000fb9c f   LIBCMT:tncleanup.obj
 0001:0000ebac       ?__scrt_uninitialize_type_info@@YAXXZ 000000018000fbac f   LIBCMT:tncleanup.obj
 0001:0000ebb8       __local_stdio_scanf_options 000000018000fbb8 f i LIBCMT:default_local_stdio_options.obj
 0001:0000ebc0       __scrt_initialize_default_local_stdio_options 000000018000fbc0 f   LIBCMT:default_local_stdio_options.obj
 0001:0000ebdc       __scrt_get_dyn_tls_init_callback 000000018000fbdc f   LIBCMT:dyn_tls_init.obj
 0001:0000ebe4       _RTC_Initialize            000000018000fbe4 f   LIBCMT:initsect.obj
 0001:0000ec20       _RTC_Terminate             000000018000fc20 f   LIBCMT:initsect.obj
 0001:0000ec5c       ??0bad_alloc@std@@QEAA@AEBV01@@Z 000000018000fc5c f i LIBCMT:throw_bad_alloc.obj
 0001:0000ec98       ??0bad_alloc@std@@QEAA@XZ  000000018000fc98 f i LIBCMT:throw_bad_alloc.obj
 0001:0000ecb8       ??0bad_array_new_length@std@@QEAA@AEBV01@@Z 000000018000fcb8 f i LIBCMT:throw_bad_alloc.obj
 0001:0000ecf4       ??0bad_array_new_length@std@@QEAA@XZ 000000018000fcf4 f i LIBCMT:throw_bad_alloc.obj
 0001:0000ed14       ??0exception@std@@QEAA@AEBV01@@Z 000000018000fd14 f i LIBCMT:throw_bad_alloc.obj
 0001:0000ed48       ??1bad_array_new_length@std@@UEAA@XZ 000000018000fd48 f i LIBCMT:throw_bad_alloc.obj
 0001:0000ed48       ??1bad_exception@std@@UEAA@XZ 000000018000fd48 f i libvcruntime:frame.obj
 0001:0000ed48       ??1bad_alloc@std@@UEAA@XZ  000000018000fd48 f i LIBCMT:throw_bad_alloc.obj
 0001:0000ed5c       ??_Gexception@std@@UEAAPEAXI@Z 000000018000fd5c f i LIBCMT:throw_bad_alloc.obj
 0001:0000ed5c       ??_Ebad_exception@std@@UEAAPEAXI@Z 000000018000fd5c f i libvcruntime:frame.obj
 0001:0000ed5c       ??_Ebad_alloc@std@@UEAAPEAXI@Z 000000018000fd5c f i LIBCMT:throw_bad_alloc.obj
 0001:0000ed5c       ??_Ebad_array_new_length@std@@UEAAPEAXI@Z 000000018000fd5c f i LIBCMT:throw_bad_alloc.obj
 0001:0000ed5c       ??_Gbad_exception@std@@UEAAPEAXI@Z 000000018000fd5c f i libvcruntime:frame.obj
 0001:0000ed5c       ??_Eexception@std@@UEAAPEAXI@Z 000000018000fd5c f i LIBCMT:throw_bad_alloc.obj
 0001:0000ed5c       ??_Gbad_alloc@std@@UEAAPEAXI@Z 000000018000fd5c f i LIBCMT:throw_bad_alloc.obj
 0001:0000ed5c       ??_Gbad_array_new_length@std@@UEAAPEAXI@Z 000000018000fd5c f i LIBCMT:throw_bad_alloc.obj
 0001:0000eda0       ?__scrt_throw_std_bad_alloc@@YAXXZ 000000018000fda0 f   LIBCMT:throw_bad_alloc.obj
 0001:0000edc0       ?__scrt_throw_std_bad_array_new_length@@YAXXZ 000000018000fdc0 f   LIBCMT:throw_bad_alloc.obj
 0001:0000ede0       ?what@exception@std@@UEBAPEBDXZ 000000018000fde0 f i LIBCMT:throw_bad_alloc.obj
 0001:0000ee00       ??_Gtype_info@@UEAAPEAXI@Z 000000018000fe00 f i LIBCMT:std_type_info_static.obj
 0001:0000ee00       ??_Etype_info@@UEAAPEAXI@Z 000000018000fe00 f i LIBCMT:std_type_info_static.obj
 0001:0000ee2c       ??0CAtlBaseModule@ATL@@QEAA@XZ 000000018000fe2c f   atls:atlbase.obj
 0001:0000eed4       ??1CAtlBaseModule@ATL@@QEAA@XZ 000000018000fed4 f   atls:atlbase.obj
 0001:0000f008       ?__AllocStdCallThunk_cmn@@YAPEAXXZ 0000000180010008 f   atls:atlthunk.obj
 0001:0000f160       AtlThunk_AllocateData      0000000180010160 f   atls:atlthunk.obj
 0001:0000f1dc       AtlThunk_DataToCode        00000001800101dc f   atls:atlthunk.obj
 0001:0000f230       AtlThunk_FreeData          0000000180010230 f   atls:atlthunk.obj
 0001:0000f290       AtlThunk_InitData          0000000180010290 f   atls:atlthunk.obj
 0001:0000f338       _get_purecall_handler      0000000180010338 f   libvcruntime:purevirt.obj
 0001:0000f344       _purecall                  0000000180010344 f   libvcruntime:purevirt.obj
 0001:0000f360       wcsstr                     0000000180010360 f   libvcruntime:wcsstr.obj
 0001:0000f590       memcmp                     0000000180010590 f   libvcruntime:memcmp.obj
 0001:0000f670       memcpy_repmovs             0000000180010670 f   libvcruntime:memcpy.obj
 0001:0000f690       memcpy                     0000000180010690 f   libvcruntime:memcpy.obj
 0001:0000f690       memmove                    0000000180010690 f   libvcruntime:memcpy.obj
 0001:0000fd20       memset_repmovs             0000000180010d20 f   libvcruntime:memset.obj
 0001:0000fd40       memset                     0000000180010d40 f   libvcruntime:memset.obj
 0001:0000fed0       __vcrt_initialize          0000000180010ed0 f   libvcruntime:initialization.obj
 0001:0000fef8       __vcrt_thread_attach       0000000180010ef8 f   libvcruntime:initialization.obj
 0001:0000ff0c       __vcrt_thread_detach       0000000180010f0c f   libvcruntime:initialization.obj
 0001:0000ff20       __vcrt_uninitialize        0000000180010f20 f   libvcruntime:initialization.obj
 0001:0000ff3c       __vcrt_uninitialize_critical 0000000180010f3c f   libvcruntime:initialization.obj
 0001:0000ff4c       __C_specific_handler       0000000180010f4c f   libvcruntime:riscchandler.obj
 0001:00010144       ??$_CallSETranslator@V__FrameHandler3@@@@YAHPEAUEHExceptionRecord@@PEA_KPEAU_CONTEXT@@PEAU_xDISPATCHER_CONTEXT@@PEBU_s_FuncInfo@@K1H@Z 0000000180011144 f i libvcruntime:risctrnsctrl.obj
 0001:00010198       ??$_CallSETranslator@V__FrameHandler4@@@@YAHPEAUEHExceptionRecord@@PEA_KPEAU_CONTEXT@@PEAU_xDISPATCHER_CONTEXT@@PEAUFuncInfo4@FH4@@K1H@Z 0000000180011198 f i libvcruntime:risctrnsctrl.obj
 0001:000101ec       ?CatchTryBlock@__FrameHandler3@@SAPEBU_s_TryBlockMapEntry@@PEBU_s_FuncInfo@@H@Z 00000001800111ec f   libvcruntime:risctrnsctrl.obj
 0001:00010250       ?DecompFuncInfo@FH4@@YA_JPEAEAEAUFuncInfo4@1@_KH_N@Z 0000000180011250 f i libvcruntime:risctrnsctrl.obj
 0001:00010374       ?ExecutionInCatch@__FrameHandler3@@SA_NPEAU_xDISPATCHER_CONTEXT@@PEBU_s_FuncInfo@@@Z 0000000180011374 f   libvcruntime:risctrnsctrl.obj
 0001:000103a0       ?ExecutionInCatch@__FrameHandler4@@SA_NPEAU_xDISPATCHER_CONTEXT@@PEAUFuncInfo4@FH4@@@Z 00000001800113a0 f   libvcruntime:risctrnsctrl.obj
 0001:000103a8       ?FrameUnwindToEmptyState@__FrameHandler3@@SAXPEA_KPEAU_xDISPATCHER_CONTEXT@@PEBU_s_FuncInfo@@@Z 00000001800113a8 f   libvcruntime:risctrnsctrl.obj
 0001:0001040c       ?FrameUnwindToEmptyState@__FrameHandler4@@SAXPEA_KPEAU_xDISPATCHER_CONTEXT@@PEAUFuncInfo4@FH4@@@Z 000000018001140c f   libvcruntime:risctrnsctrl.obj
 0001:00010440       ?GetEstablisherFrame@__FrameHandler3@@SAPEA_KPEA_KPEAU_xDISPATCHER_CONTEXT@@PEBU_s_FuncInfo@@0@Z 0000000180011440 f   libvcruntime:risctrnsctrl.obj
 0001:0001050c       ?GetEstablisherFrame@__FrameHandler4@@SAPEA_KPEA_KPEAU_xDISPATCHER_CONTEXT@@PEAUFuncInfo4@FH4@@0@Z 000000018001150c f   libvcruntime:risctrnsctrl.obj
 0001:00010530       ?GetRangeOfTrysToCheck@__FrameHandler3@@SA?AU?$pair@Viterator@TryBlockMap@__FrameHandler3@@V123@@std@@AEAVTryBlockMap@1@HPEAU_xDISPATCHER_CONTEXT@@PEBU_s_FuncInfo@@H@Z 0000000180011530 f   libvcruntime:risctrnsctrl.obj
 0001:00010670       ?GetRangeOfTrysToCheck@__FrameHandler4@@SA?AU?$pair@Viterator@TryBlockMap4@FH4@@V123@@std@@AEAVTryBlockMap4@FH4@@HPEAU_xDISPATCHER_CONTEXT@@PEAUFuncInfo4@5@H@Z 0000000180011670 f   libvcruntime:risctrnsctrl.obj
 0001:000107dc       ?UnwindNestedFrames@__FrameHandler3@@SAXPEA_KPEAUEHExceptionRecord@@PEAU_CONTEXT@@0PEAXPEBU_s_FuncInfo@@HHPEBU_s_HandlerType@@PEAU_xDISPATCHER_CONTEXT@@E@Z 00000001800117dc f   libvcruntime:risctrnsctrl.obj
 0001:000108e0       ?UnwindNestedFrames@__FrameHandler4@@SAXPEA_KPEAUEHExceptionRecord@@PEAU_CONTEXT@@0PEAXPEAUFuncInfo4@FH4@@HHPEAUHandlerType4@5@PEAU_xDISPATCHER_CONTEXT@@E@Z 00000001800118e0 f   libvcruntime:risctrnsctrl.obj
 0001:00010a00       ?setBuffer@TryBlockMap4@FH4@@QEAAXViterator@12@@Z 0000000180011a00 f i libvcruntime:risctrnsctrl.obj
 0001:00010bc4       _CreateFrameInfo           0000000180011bc4 f   libvcruntime:risctrnsctrl.obj
 0001:00010c00       _FindAndUnlinkFrame        0000000180011c00 f   libvcruntime:risctrnsctrl.obj
 0001:00010c54       _GetImageBase              0000000180011c54 f   libvcruntime:risctrnsctrl.obj
 0001:00010c68       _GetThrowImageBase         0000000180011c68 f   libvcruntime:risctrnsctrl.obj
 0001:00010c7c       _SetImageBase              0000000180011c7c f   libvcruntime:risctrnsctrl.obj
 0001:00010c94       _SetThrowImageBase         0000000180011c94 f   libvcruntime:risctrnsctrl.obj
 0001:00010cac       __CxxFrameHandler3         0000000180011cac f   libvcruntime:risctrnsctrl.obj
 0001:00010d34       __CxxFrameHandler4         0000000180011d34 f   libvcruntime:risctrnsctrl.obj
 0001:00010df4       __DestructExceptionObject  0000000180011df4 f   libvcruntime:ehhelpers.obj
 0001:00010e64       ?_CallMemberFunction0@@YAXQEAX0@Z 0000000180011e64 f i libvcruntime:ehhelpers.obj
 0001:00010e68       _IsExceptionObjectToBeDestroyed 0000000180011e68 f   libvcruntime:ehhelpers.obj
 0001:00010e98       __AdjustPointer            0000000180011e98 f   libvcruntime:ehhelpers.obj
 0001:00010ebc       __FrameUnwindFilter        0000000180011ebc f   libvcruntime:ehhelpers.obj
 0001:00010f24       __std_terminate            0000000180011f24 f   libvcruntime:ehhelpers.obj
 0001:00010f30       __std_type_info_compare    0000000180011f30 f   libvcruntime:std_type_info.obj
 0001:00010f58       __std_type_info_destroy_list 0000000180011f58 f   libvcruntime:std_type_info.obj
 0001:00010f84       __std_exception_copy       0000000180011f84 f   libvcruntime:std_exception.obj
 0001:00011014       __std_exception_destroy    0000000180012014 f   libvcruntime:std_exception.obj
 0001:0001103c       _CxxThrowException         000000018001203c f   libvcruntime:throw.obj
 0001:000110dc       __vcrt_freefls             00000001800120dc f   libvcruntime:per_thread_data.obj
 0001:000110fc       __vcrt_freeptd             00000001800120fc f   libvcruntime:per_thread_data.obj
 0001:0001114c       __vcrt_getptd              000000018001214c f   libvcruntime:per_thread_data.obj
 0001:00011168       __vcrt_getptd_noexit       0000000180012168 f   libvcruntime:per_thread_data.obj
 0001:00011228       __vcrt_initialize_ptd      0000000180012228 f   libvcruntime:per_thread_data.obj
 0001:00011270       __vcrt_uninitialize_ptd    0000000180012270 f   libvcruntime:per_thread_data.obj
 0001:00011294       __vcrt_initialize_locks    0000000180012294 f   libvcruntime:locks.obj
 0001:000112dc       __vcrt_uninitialize_locks  00000001800122dc f   libvcruntime:locks.obj
 0001:00011330       _NLG_Notify                0000000180012330 f   libvcruntime:notify.obj
 0001:00011350       __NLG_Dispatch2            0000000180012350 f   libvcruntime:notify.obj
 0001:00011360       __NLG_Return2              0000000180012360 f   libvcruntime:notify.obj
 0001:00011364       __except_validate_context_record 0000000180012364 f   libvcruntime:jbcxrval.obj
 0001:0001139c       ?GetCurrentState@__FrameHandler3@@SAHPEA_KPEAU_xDISPATCHER_CONTEXT@@PEBU_s_FuncInfo@@@Z 000000018001239c f   libvcruntime:ehstate.obj
 0001:000113c4       ?GetUnwindTryBlock@__FrameHandler3@@SAHPEA_KPEAU_xDISPATCHER_CONTEXT@@PEBU_s_FuncInfo@@@Z 00000001800123c4 f   libvcruntime:ehstate.obj
 0001:000113f0       ?SetState@__FrameHandler3@@SAXPEA_KPEBU_s_FuncInfo@@H@Z 00000001800123f0 f   libvcruntime:ehstate.obj
 0001:000113fc       ?SetUnwindTryBlock@__FrameHandler3@@SAXPEA_KPEAU_xDISPATCHER_CONTEXT@@PEBU_s_FuncInfo@@H@Z 00000001800123fc f   libvcruntime:ehstate.obj
 0001:00011438       ?StateFromControlPc@__FrameHandler3@@SAHPEBU_s_FuncInfo@@PEAU_xDISPATCHER_CONTEXT@@@Z 0000000180012438 f   libvcruntime:ehstate.obj
 0001:00011440       ?StateFromControlPc@__FrameHandler4@@SAHPEAUFuncInfo4@FH4@@PEAU_xDISPATCHER_CONTEXT@@@Z 0000000180012440 f   libvcruntime:ehstate.obj
 0001:00011448       ?StateFromIp@__FrameHandler3@@SAHPEBU_s_FuncInfo@@PEAU_xDISPATCHER_CONTEXT@@_K@Z 0000000180012448 f   libvcruntime:ehstate.obj
 0001:000114b0       ?StateFromIp@__FrameHandler4@@SAHPEAUFuncInfo4@FH4@@PEAU_xDISPATCHER_CONTEXT@@_K@Z 00000001800124b0 f   libvcruntime:ehstate.obj
 0001:00012bb0       ??$TypeMatchHelper@V__FrameHandler3@@@@YAHPEBU_s_HandlerType@@PEBU_s_CatchableType@@PEBU_s_ThrowInfo@@@Z 0000000180013bb0 f i libvcruntime:frame.obj
 0001:00012cf0       ??$TypeMatchHelper@V__FrameHandler4@@@@YAHPEAUHandlerType4@FH4@@PEBU_s_CatchableType@@PEBU_s_ThrowInfo@@@Z 0000000180013cf0 f i libvcruntime:frame.obj
 0001:00012e34       ??$__InternalCxxFrameHandler@V__FrameHandler3@@@@YA?AW4_EXCEPTION_DISPOSITION@@PEAUEHExceptionRecord@@PEA_KPEAU_CONTEXT@@PEAU_xDISPATCHER_CONTEXT@@PEBU_s_FuncInfo@@H1E@Z 0000000180013e34 f i libvcruntime:frame.obj
 0001:0001306c       ??$__InternalCxxFrameHandler@V__FrameHandler4@@@@YA?AW4_EXCEPTION_DISPOSITION@@PEAUEHExceptionRecord@@PEA_KPEAU_CONTEXT@@PEAU_xDISPATCHER_CONTEXT@@PEAUFuncInfo4@FH4@@H1E@Z 000000018001406c f i libvcruntime:frame.obj
 0001:00013300       ??0HandlerMap4@FH4@@QEAA@PEBUTryBlockMapEntry4@1@_KH@Z 0000000180014300 f i libvcruntime:frame.obj
 0001:0001337c       ??0TryBlockMap4@FH4@@QEAA@PEBUFuncInfo4@1@_K@Z 000000018001437c f i libvcruntime:frame.obj
 0001:00013454       ??0bad_exception@std@@QEAA@AEBV01@@Z 0000000180014454 f i libvcruntime:frame.obj
 0001:00013490       ??0bad_exception@std@@QEAA@XZ 0000000180014490 f i libvcruntime:frame.obj
 0001:000134b0       ?CxxCallCatchBlock@__FrameHandler3@@SAPEAXPEAU_EXCEPTION_RECORD@@@Z 00000001800144b0 f   libvcruntime:frame.obj
 0001:0001369c       ?CxxCallCatchBlock@__FrameHandler4@@SAPEAXPEAU_EXCEPTION_RECORD@@@Z 000000018001469c f   libvcruntime:frame.obj
 0001:000138ec       ?DecompHandler@HandlerMap4@FH4@@AEAAXXZ 00000001800148ec f i libvcruntime:frame.obj
 0001:00013b38       ?FrameUnwindToState@__FrameHandler3@@SAXPEA_KPEAU_xDISPATCHER_CONTEXT@@PEBU_s_FuncInfo@@H@Z 0000000180014b38 f   libvcruntime:frame.obj
 0001:00013cc4       ?FrameUnwindToState@__FrameHandler4@@SAXPEA_KPEAU_xDISPATCHER_CONTEXT@@PEAUFuncInfo4@FH4@@H@Z 0000000180014cc4 f   libvcruntime:frame.obj
 0001:00013fc0       ?GetHandlerSearchState@__FrameHandler3@@SAHPEA_KPEAU_xDISPATCHER_CONTEXT@@PEBU_s_FuncInfo@@@Z 0000000180014fc0 f i libvcruntime:frame.obj
 0001:000141d0       ?ReadEntry@UWMap4@FH4@@AEAAXPEAPEAE@Z 00000001800151d0 f i libvcruntime:frame.obj
 0001:0001426c       ?_CallMemberFunction1@@YAXQEAX00@Z 000000018001526c f i libvcruntime:frame.obj
 0001:00014278       ?_CallMemberFunction2@@YAXQEAX00H@Z 0000000180015278 f i libvcruntime:frame.obj
 0001:00014288       ?getStartStop@UWMap4@FH4@@QEAAXHHAEAViterator@12@0@Z 0000000180015288 f i libvcruntime:frame.obj
 0001:00014358       ?getStateFromIterators@UWMap4@FH4@@SAHAEBViterator@12@H0H0@Z 0000000180015358 f i libvcruntime:frame.obj
 0001:00014574       __vcrt_FlsAlloc            0000000180015574 f   libvcruntime:winapi_downlevel.obj
 0001:000145bc       __vcrt_FlsFree             00000001800155bc f   libvcruntime:winapi_downlevel.obj
 0001:00014604       __vcrt_FlsGetValue         0000000180015604 f   libvcruntime:winapi_downlevel.obj
 0001:0001464c       __vcrt_FlsSetValue         000000018001564c f   libvcruntime:winapi_downlevel.obj
 0001:000146a0       __vcrt_InitializeCriticalSectionEx 00000001800156a0 f   libvcruntime:winapi_downlevel.obj
 0001:00014720       _CallSettingFrame          0000000180015720 f   libvcruntime:handlers.obj
 0001:00014770       _CallSettingFrame_LookupContinuationIndex 0000000180015770 f   libvcruntime:handlers.obj
 0001:000147a0       _CallSettingFrame_NotifyContinuationAddr 00000001800157a0 f   libvcruntime:handlers.obj
 0001:000147d0       _CallSettingFrameEncoded   00000001800157d0 f   libvcruntime:handlers.obj
 0001:00014818       free                       0000000180015818 f   libucrt:free.obj
 0001:0001482c       ?get_raw_ptd@__crt_cached_ptd_host@@QEAAPEAU__acrt_ptd@@XZ 000000018001582c f i libucrt:invalid_parameter.obj
 0001:00014894       ?get_raw_ptd_noexit@__crt_cached_ptd_host@@QEAAPEAU__acrt_ptd@@XZ 0000000180015894 f i libucrt:invalid_parameter.obj
 0001:00014900       ?value@?$dual_state_global@P6AXPEB_W00I_K@Z@__crt_state_management@@QEAAAEAP6AXPEB_W00I_K@ZAEAV__crt_cached_ptd_host@@@Z 0000000180015900 f i libucrt:invalid_parameter.obj
 0001:0001494c       __acrt_call_reportfault    000000018001594c f   libucrt:invalid_parameter.obj
 0001:00014aa8       __acrt_initialize_invalid_parameter_handler 0000000180015aa8 f   libucrt:invalid_parameter.obj
 0001:00014ab0       _invalid_parameter         0000000180015ab0 f   libucrt:invalid_parameter.obj
 0001:00014b4c       _invalid_parameter_internal 0000000180015b4c f   libucrt:invalid_parameter.obj
 0001:00014c1c       _invalid_parameter_noinfo  0000000180015c1c f   libucrt:invalid_parameter.obj
 0001:00014c3c       _invoke_watson             0000000180015c3c f   libucrt:invalid_parameter.obj
 0001:00014c84       __acrt_errno_from_os_error 0000000180015c84 f   libucrt:errno.obj
 0001:00014ccc       __acrt_errno_map_os_error  0000000180015ccc f   libucrt:errno.obj
 0001:00014d14       __acrt_errno_map_os_error_ptd 0000000180015d14 f   libucrt:errno.obj
 0001:00014d38       __doserrno                 0000000180015d38 f   libucrt:errno.obj
 0001:00014d58       _errno                     0000000180015d58 f   libucrt:errno.obj
 0001:00014d78       calloc                     0000000180015d78 f   libucrt:calloc.obj
 0001:00014d80       malloc                     0000000180015d80 f   libucrt:malloc.obj
 0001:00014d88       _recalloc                  0000000180015d88 f   libucrt:recalloc.obj
 0001:00014d90       _recalloc_base             0000000180015d90 f   libucrt:recalloc.obj
 0001:00014e28       _resetstkoflw              0000000180015e28 f   libucrt:resetstk.obj
 0001:00014f54       wcscat_s                   0000000180015f54 f   libucrt:wcscat_s.obj
 0001:00014fd8       wcscpy_s                   0000000180015fd8 f   libucrt:wcscpy_s.obj
 0001:00015040       wcsncpy_s                  0000000180016040 f   libucrt:wcsncpy_s.obj
 0001:000152f4       ??$ensure_buffer_is_big_enough@D@formatting_buffer@__crt_stdio_output@@QEAA_N_KAEAV__crt_cached_ptd_host@@@Z 00000001800162f4 f i libucrt:output.obj
 0001:0001539c       ??$ensure_buffer_is_big_enough@_W@formatting_buffer@__crt_stdio_output@@QEAA_N_KAEAV__crt_cached_ptd_host@@@Z 000000018001639c f i libucrt:output.obj
 0001:00015448       ??$is_wide_character_specifier@_W@__crt_stdio_output@@YA_N_K_WW4length_modifier@0@@Z 0000000180016448 f i libucrt:output.obj
 0001:00015488       ??$parse_integer@KV?$c_string_character_source@_W@__crt_strtox@@$0A@@__crt_strtox@@YAKAEAV__crt_cached_ptd_host@@V?$c_string_character_source@_W@0@H_N@Z 0000000180016488 f i libucrt:output.obj
 0001:00015be0       ??$type_case_integer@$07@?$output_processor@_WV?$string_output_adapter@_W@__crt_stdio_output@@V?$format_validation_base@_WV?$string_output_adapter@_W@__crt_stdio_output@@@2@@__crt_stdio_output@@AEAA_N_N@Z 0000000180016be0 f i libucrt:output.obj
 0001:00015dcc       ??$type_case_integer@$09@?$output_processor@_WV?$string_output_adapter@_W@__crt_stdio_output@@V?$format_validation_base@_WV?$string_output_adapter@_W@__crt_stdio_output@@@2@@__crt_stdio_output@@AEAA_N_N@Z 0000000180016dcc f i libucrt:output.obj
 0001:00015fb8       ??$type_case_integer@$0BA@@?$output_processor@_WV?$string_output_adapter@_W@__crt_stdio_output@@V?$format_validation_base@_WV?$string_output_adapter@_W@__crt_stdio_output@@@2@@__crt_stdio_output@@AEAA_N_N@Z 0000000180016fb8 f i libucrt:output.obj
 0001:000161a4       ??$type_case_integer_parse_into_buffer@I$07@?$output_processor@_WV?$string_output_adapter@_W@__crt_stdio_output@@V?$format_validation_base@_WV?$string_output_adapter@_W@__crt_stdio_output@@@2@@__crt_stdio_output@@AEAAXI_N@Z 00000001800171a4 f i libucrt:output.obj
 0001:0001622c       ??$type_case_integer_parse_into_buffer@I$09@?$output_processor@_WV?$string_output_adapter@_W@__crt_stdio_output@@V?$format_validation_base@_WV?$string_output_adapter@_W@__crt_stdio_output@@@2@@__crt_stdio_output@@AEAAXI_N@Z 000000018001722c f i libucrt:output.obj
 0001:000162e4       ??$type_case_integer_parse_into_buffer@I$0BA@@?$output_processor@_WV?$string_output_adapter@_W@__crt_stdio_output@@V?$format_validation_base@_WV?$string_output_adapter@_W@__crt_stdio_output@@@2@@__crt_stdio_output@@AEAAXI_N@Z 00000001800172e4 f i libucrt:output.obj
 0001:00016388       ??$type_case_integer_parse_into_buffer@_K$07@?$output_processor@_WV?$string_output_adapter@_W@__crt_stdio_output@@V?$format_validation_base@_WV?$string_output_adapter@_W@__crt_stdio_output@@@2@@__crt_stdio_output@@AEAAX_K_N@Z 0000000180017388 f i libucrt:output.obj
 0001:00016410       ??$type_case_integer_parse_into_buffer@_K$09@?$output_processor@_WV?$string_output_adapter@_W@__crt_stdio_output@@V?$format_validation_base@_WV?$string_output_adapter@_W@__crt_stdio_output@@@2@@__crt_stdio_output@@AEAAX_K_N@Z 0000000180017410 f i libucrt:output.obj
 0001:000164d0       ??$type_case_integer_parse_into_buffer@_K$0BA@@?$output_processor@_WV?$string_output_adapter@_W@__crt_stdio_output@@V?$format_validation_base@_WV?$string_output_adapter@_W@__crt_stdio_output@@@2@@__crt_stdio_output@@AEAAX_K_N@Z 00000001800174d0 f i libucrt:output.obj
 0001:00016574       ?crop_zeroes@__crt_stdio_output@@YAXPEADQEAU__crt_locale_pointers@@@Z 0000000180017574 f i libucrt:output.obj
 0001:000165e0       ?parse_int_from_format_string@?$output_processor@_WV?$string_output_adapter@_W@__crt_stdio_output@@V?$format_validation_base@_WV?$string_output_adapter@_W@__crt_stdio_output@@@2@@__crt_stdio_output@@AEAA_NQEAH@Z 00000001800175e0 f i libucrt:output.obj
 0001:00016670       ?process@?$output_processor@_WV?$string_output_adapter@_W@__crt_stdio_output@@V?$format_validation_base@_WV?$string_output_adapter@_W@__crt_stdio_output@@@2@@__crt_stdio_output@@QEAAHXZ 0000000180017670 f i libucrt:output.obj
 0001:0001694c       ?state_case_size@?$output_processor@_WV?$string_output_adapter@_W@__crt_stdio_output@@V?$format_validation_base@_WV?$string_output_adapter@_W@__crt_stdio_output@@@2@@__crt_stdio_output@@AEAA_NXZ 000000018001794c f i libucrt:output.obj
 0001:00016af8       ?state_case_type@?$output_processor@_WV?$string_output_adapter@_W@__crt_stdio_output@@V?$format_validation_base@_WV?$string_output_adapter@_W@__crt_stdio_output@@@2@@__crt_stdio_output@@AEAA_NXZ 0000000180017af8 f i libucrt:output.obj
 0001:00016f54       ?type_case_Z@?$output_processor@_WV?$string_output_adapter@_W@__crt_stdio_output@@V?$format_validation_base@_WV?$string_output_adapter@_W@__crt_stdio_output@@@2@@__crt_stdio_output@@AEAA_NXZ 0000000180017f54 f i libucrt:output.obj
 0001:00016fd0       ?type_case_a@?$output_processor@_WV?$string_output_adapter@_W@__crt_stdio_output@@V?$format_validation_base@_WV?$string_output_adapter@_W@__crt_stdio_output@@@2@@__crt_stdio_output@@AEAA_NXZ 0000000180017fd0 f i libucrt:output.obj
 0001:00017230       ?type_case_c_tchar@?$output_processor@_WV?$string_output_adapter@_W@__crt_stdio_output@@V?$format_validation_base@_WV?$string_output_adapter@_W@__crt_stdio_output@@@2@@__crt_stdio_output@@AEAA_N_W@Z 0000000180018230 f i libucrt:output.obj
 0001:000172f4       ?type_case_n@?$output_processor@_WV?$string_output_adapter@_W@__crt_stdio_output@@V?$format_validation_base@_WV?$string_output_adapter@_W@__crt_stdio_output@@@2@@__crt_stdio_output@@AEAA_NXZ 00000001800182f4 f i libucrt:output.obj
 0001:000173a8       ?type_case_s@?$output_processor@_WV?$string_output_adapter@_W@__crt_stdio_output@@V?$format_validation_base@_WV?$string_output_adapter@_W@__crt_stdio_output@@@2@@__crt_stdio_output@@AEAA_NXZ 00000001800183a8 f i libucrt:output.obj
 0001:00017440       ?type_case_s_compute_narrow_string_length@?$output_processor@_WV?$string_output_adapter@_W@__crt_stdio_output@@V?$format_validation_base@_WV?$string_output_adapter@_W@__crt_stdio_output@@@2@@__crt_stdio_output@@AEAAHH_W@Z 0000000180018440 f i libucrt:output.obj
 0001:000174c0       ?update_locale_slow@__crt_cached_ptd_host@@AEAAXXZ 00000001800184c0 f i libucrt:output.obj
 0001:00017538       ?write_string@?$string_output_adapter@_W@__crt_stdio_output@@QEBAXQEB_WHQEAHAEAV__crt_cached_ptd_host@@@Z 0000000180018538 f i libucrt:output.obj
 0001:000175e0       __stdio_common_vswprintf_s 00000001800185e0 f   libucrt:output.obj
 0001:000176f4       _seh_filter_dll            00000001800186f4 f   libucrt:exception_filter.obj
 0001:00017708       _seh_filter_exe            0000000180018708 f   libucrt:exception_filter.obj
 0001:00017b2c       __acrt_initialize_thread_local_exit_callback 0000000180018b2c f   libucrt:exit.obj
 0001:00017b34       _cexit                     0000000180018b34 f   libucrt:exit.obj
 0001:00017b44       _exit                      0000000180018b44 f   libucrt:exit.obj
 0001:00017b50       _is_c_termination_complete 0000000180018b50 f   libucrt:exit.obj
 0001:00017d18       __acrt_allocate_buffer_for_argv 0000000180018d18 f   libucrt:argv_parsing.obj
 0001:00017d78       _configure_narrow_argv     0000000180018d78 f   libucrt:argv_parsing.obj
 0001:00018100       __dcrt_uninitialize_environments_nolock 0000000180019100 f   libucrt:environment_initialization.obj
 0001:00018144       _initialize_narrow_environment 0000000180019144 f   libucrt:environment_initialization.obj
 0001:00018494       _crt_atexit                0000000180019494 f   libucrt:onexit.obj
 0001:000184a4       _execute_onexit_table      00000001800194a4 f   libucrt:onexit.obj
 0001:000184e8       _initialize_onexit_table   00000001800194e8 f   libucrt:onexit.obj
 0001:00018510       _register_onexit_function  0000000180019510 f   libucrt:onexit.obj
 0001:00018590       __acrt_uninitialize_command_line 0000000180019590 f   libucrt:argv_data.obj
 0001:00018688       __acrt_initialize          0000000180019688 f   libucrt:initialization.obj
 0001:0001869c       __acrt_thread_attach       000000018001969c f   libucrt:initialization.obj
 0001:000186b0       __acrt_thread_detach       00000001800196b0 f   libucrt:initialization.obj
 0001:000186c0       __acrt_uninitialize        00000001800196c0 f   libucrt:initialization.obj
 0001:000186f8       __acrt_uninitialize_critical 00000001800196f8 f   libucrt:initialization.obj
 0001:00018708       _initterm                  0000000180019708 f   libucrt:initterm.obj
 0001:0001874c       _initterm_e                000000018001974c f   libucrt:initterm.obj
 0001:00018794       __acrt_initialize_new_handler 0000000180019794 f   libucrt:new_handler.obj
 0001:0001879c       _callnewh                  000000018001979c f   libucrt:new_handler.obj
 0001:000187d8       _query_new_handler         00000001800197d8 f   libucrt:new_handler.obj
 0001:0001880c       terminate                  000000018001980c f   libucrt:terminate.obj
 0001:00018838       abort                      0000000180019838 f   libucrt:abort.obj
 0001:00018890       strcpy_s                   0000000180019890 f   libucrt:strcpy_s.obj
 0001:00018900       strncmp                    0000000180019900 f   libucrt:strncmp.obj
 0001:00018980       wcsncmp                    0000000180019980 f   libucrt:wcsncmp.obj
 0001:000189ac       _free_base                 00000001800199ac f   libucrt:free_base.obj
 0001:00018d60       __acrt_freeptd             0000000180019d60 f   libucrt:per_thread_data.obj
 0001:00018da4       __acrt_getptd              0000000180019da4 f   libucrt:per_thread_data.obj
 0001:00018e78       __acrt_getptd_head         0000000180019e78 f   libucrt:per_thread_data.obj
 0001:00018f1c       __acrt_getptd_noexit       0000000180019f1c f   libucrt:per_thread_data.obj
 0001:00018fe4       __acrt_getptd_noexit_explicit 0000000180019fe4 f   libucrt:per_thread_data.obj
 0001:000190a4       __acrt_initialize_ptd      000000018001a0a4 f   libucrt:per_thread_data.obj
 0001:000190e0       __acrt_uninitialize_ptd    000000018001a0e0 f   libucrt:per_thread_data.obj
 0001:00019174       __acrt_set_locale_changed  000000018001a174 f   libucrt:wsetlocale.obj
 0001:00019180       __acrt_uninitialize_locale 000000018001a180 f   libucrt:wsetlocale.obj
 0001:000191b0       _calloc_base               000000018001a1b0 f   libucrt:calloc_base.obj
 0001:00019228       _malloc_base               000000018001a228 f   libucrt:malloc_base.obj
 0001:00019288       _msize_base                000000018001a288 f   libucrt:msize.obj
 0001:000192c4       _realloc_base              000000018001a2c4 f   libucrt:realloc_base.obj
 0001:00019500       __acrt_AppPolicyGetProcessTerminationMethodInternal 000000018001a500 f   libucrt:winapi_thunks.obj
 0001:00019558       __acrt_AreFileApisANSI     000000018001a558 f   libucrt:winapi_thunks.obj
 0001:0001959c       __acrt_FlsAlloc            000000018001a59c f   libucrt:winapi_thunks.obj
 0001:000195a4       __acrt_FlsFree             000000018001a5a4 f   libucrt:winapi_thunks.obj
 0001:000195ac       __acrt_FlsGetValue         000000018001a5ac f   libucrt:winapi_thunks.obj
 0001:000195b4       __acrt_FlsSetValue         000000018001a5b4 f   libucrt:winapi_thunks.obj
 0001:000195bc       __acrt_InitializeCriticalSectionEx 000000018001a5bc f   libucrt:winapi_thunks.obj
 0001:0001962c       __acrt_LCMapStringEx       000000018001a62c f   libucrt:winapi_thunks.obj
 0001:00019718       __acrt_LocaleNameToLCID    000000018001a718 f   libucrt:winapi_thunks.obj
 0001:00019778       __acrt_SetThreadStackGuarantee 000000018001a778 f   libucrt:winapi_thunks.obj
 0001:000197c4       __acrt_initialize_winapi_thunks 000000018001a7c4 f   libucrt:winapi_thunks.obj
 0001:000197e8       __acrt_uninitialize_winapi_thunks 000000018001a7e8 f   libucrt:winapi_thunks.obj
 0001:0001982c       wcsnlen                    000000018001a82c f   libucrt:strnlen.obj
 0001:00019a04       __acrt_update_locale_info  000000018001aa04 f   libucrt:locale_update.obj
 0001:00019a38       __acrt_update_locale_info_explicit 000000018001aa38 f   libucrt:locale_update.obj
 0001:00019a70       __acrt_update_multibyte_info 000000018001aa70 f   libucrt:locale_update.obj
 0001:00019aa4       __acrt_update_multibyte_info_explicit 000000018001aaa4 f   libucrt:locale_update.obj
 0001:0001a60c       __acrt_fp_format           000000018001b60c f   libucrt:cvt.obj
 0001:0001a8f4       _mbtowc_internal           000000018001b8f4 f   libucrt:mbtowc.obj
 0001:0001aa6c       _fileno                    000000018001ba6c f   libucrt:fileno.obj
 0001:0001aa94       __acrt_initialize_stdio    000000018001ba94 f   libucrt:_file.obj
 0001:0001abb4       __acrt_uninitialize_stdio  000000018001bbb4 f   libucrt:_file.obj
 0001:0001ac10       _lock_file                 000000018001bc10 f   libucrt:_file.obj
 0001:0001ac1c       _unlock_file               000000018001bc1c f   libucrt:_file.obj
 0001:0001ac28       _get_printf_count_output   000000018001bc28 f   libucrt:printf_count_output.obj
 0001:0001ae38       __acrt_initialize_lowio    000000018001be38 f   libucrt:ioinit.obj
 0001:0001ae74       __acrt_uninitialize_lowio  000000018001be74 f   libucrt:ioinit.obj
 0001:0001aeb4       __acrt_initialize_locks    000000018001beb4 f   libucrt:locks.obj
 0001:0001aefc       __acrt_lock                000000018001befc f   libucrt:locks.obj
 0001:0001af18       __acrt_uninitialize_locks  000000018001bf18 f   libucrt:locks.obj
 0001:0001af50       __acrt_unlock              000000018001bf50 f   libucrt:locks.obj
 0001:0001af6c       __acrt_get_process_end_policy 000000018001bf6c f   libucrt:win_policies.obj
 0001:0001afbc       ??$__acrt_convert_wcs_mbs_cp@D_WV<lambda_7c9dea7b4ca7285d2cdb541a38da6275>@@U__crt_win32_buffer_internal_dynamic_resizing@@@@YAHQEBDAEAV?$__crt_win32_buffer@_WU__crt_win32_buffer_internal_dynamic_resizing@@@@AEBV<lambda_7c9dea7b4ca7285d2cdb541a38da6275>@@I@Z 000000018001bfbc f i libucrt:argv_wildcards.obj
 0001:0001b138       ??$__acrt_convert_wcs_mbs_cp@_WDV<lambda_d8593a27d1aa8c02be35c86a17d324c4>@@U__crt_win32_buffer_internal_dynamic_resizing@@@@YAHQEB_WAEAV?$__crt_win32_buffer@DU__crt_win32_buffer_internal_dynamic_resizing@@@@AEBV<lambda_d8593a27d1aa8c02be35c86a17d324c4>@@I@Z 000000018001c138 f i libucrt:argv_wildcards.obj
 0001:0001b9e0       ??0_LocaleUpdate@@QEAA@QEAU__crt_locale_pointers@@@Z 000000018001c9e0 f i libucrt:argv_wildcards.obj
 0001:0001ba7c       __acrt_expand_narrow_argv_wildcards 000000018001ca7c f   libucrt:argv_wildcards.obj
 0001:0001ba84       ??$__acrt_convert_wcs_mbs_cp@_WDV<lambda_f788ae46380686e8b737efdd8c720d07>@@U__crt_win32_buffer_no_resizing@@@@YAHQEB_WAEAV?$__crt_win32_buffer@DU__crt_win32_buffer_no_resizing@@@@AEBV<lambda_f788ae46380686e8b737efdd8c720d07>@@I@Z 000000018001ca84 f i libucrt:getmodulefilenamea.obj
 0001:0001bba0       __acrt_GetModuleFileNameA  000000018001cba0 f   libucrt:getmodulefilenamea.obj
 0001:0001c4bc       __acrt_initialize_multibyte 000000018001d4bc f   libucrt:mbctype.obj
 0001:0001c51c       __acrt_update_thread_multibyte_data 000000018001d51c f   libucrt:mbctype.obj
 0001:0001c538       _setmbcp_nolock            000000018001d538 f   libucrt:mbctype.obj
 0001:0001c86c       _ismbblead                 000000018001d86c f   libucrt:ismbbyte.obj
 0001:0001c880       __acrt_initialize_command_line 000000018001d880 f   libucrt:argv_data.obj
 0001:0001c8a8       __acrt_MultiByteToWideChar 000000018001d8a8 f   libucrt:multibytetowidechar.obj
 0001:0001c904       __acrt_WideCharToMultiByte 000000018001d904 f   libucrt:widechartomultibyte.obj
 0001:0001c9b4       __dcrt_get_narrow_environment_from_os 000000018001d9b4 f   libucrt:get_environment_from_os.obj
 0001:0001cac4       __acrt_initialize_heap     000000018001dac4 f   libucrt:heap_handle.obj
 0001:0001cae0       __acrt_uninitialize_heap   000000018001dae0 f   libucrt:heap_handle.obj
 0001:0001caec       __acrt_execute_initializers 000000018001daec f   libucrt:shared_initialization.obj
 0001:0001cb80       __acrt_execute_uninitializers 000000018001db80 f   libucrt:shared_initialization.obj
 0001:0001cc10       __acrt_get_sigabrt_handler 000000018001dc10 f   libucrt:signal.obj
 0001:0001cc40       __acrt_initialize_signal_handlers 000000018001dc40 f   libucrt:signal.obj
 0001:0001cc60       raise                      000000018001dc60 f   libucrt:signal.obj
 0001:0001cee0       __acrt_has_user_matherr    000000018001dee0 f   libucrt:matherr.obj
 0001:0001cf00       __acrt_initialize_user_matherr 000000018001df00 f   libucrt:matherr.obj
 0001:0001cf08       __acrt_invoke_user_matherr 000000018001df08 f   libucrt:matherr.obj
 0001:0001d11c       __acrt_stdio_flush_nolock  000000018001e11c f   libucrt:fflush.obj
 0001:0001d1a8       _fflush_nolock             000000018001e1a8 f   libucrt:fflush.obj
 0001:0001d27c       _flushall                  000000018001e27c f   libucrt:fflush.obj
 0001:0001d284       __acrt_add_locale_ref      000000018001e284 f   libucrt:locale_refcounting.obj
 0001:0001d310       __acrt_free_locale         000000018001e310 f   libucrt:locale_refcounting.obj
 0001:0001d488       __acrt_locale_add_lc_time_reference 000000018001e488 f   libucrt:locale_refcounting.obj
 0001:0001d4b0       __acrt_locale_free_lc_time_if_unreferenced 000000018001e4b0 f   libucrt:locale_refcounting.obj
 0001:0001d4e8       __acrt_locale_release_lc_time_reference 000000018001e4e8 f   libucrt:locale_refcounting.obj
 0001:0001d510       __acrt_release_locale_ref  000000018001e510 f   libucrt:locale_refcounting.obj
 0001:0001d5b8       __acrt_update_thread_locale_data 000000018001e5b8 f   libucrt:locale_refcounting.obj
 0001:0001d628       _updatetlocinfoEx_nolock   000000018001e628 f   libucrt:locale_refcounting.obj
 0001:0001d690       __acrt_locale_free_monetary 000000018001e690 f   libucrt:initmon.obj
 0001:0001d79c       __acrt_locale_free_numeric 000000018001e79c f   libucrt:initnum.obj
 0001:0001d83c       __acrt_locale_free_time    000000018001e83c f   libucrt:inittime.obj
 0001:0001d944       __acrt_GetStringTypeA      000000018001e944 f   libucrt:getstringtypea.obj
 0001:0001dae0       _query_new_mode            000000018001eae0 f   libucrt:new_mode.obj
 0001:0001dae8       __acrt_DownlevelLocaleNameToLCID 000000018001eae8 f   libucrt:lcidtoname_downlevel.obj
 0001:0001db90       __acrt_fp_strflt_to_string 000000018001eb90 f   libucrt:_fptostr.obj
 0001:0001dd20       ?divide@__crt_strtox@@YA_KAEAUbig_integer@1@AEBU21@@Z 000000018001ed20 f i libucrt:cfout.obj
 0001:0001e1ac       __acrt_fltout              000000018001f1ac f   libucrt:cfout.obj
 0001:0001f474       fegetround                 0000000180020474 f   libucrt:fegetround.obj
 0001:0001f488       ?__mbrtowc_utf8@__crt_mbstring@@YA_KPEA_WPEBD_KPEAU_Mbstatet@@AEAV__crt_cached_ptd_host@@@Z 0000000180020488 f   libucrt:mbrtowc.obj
 0001:0001f4cc       ?__mbsrtowcs_utf8@__crt_mbstring@@YA_KPEA_WPEAPEBD_KPEAU_Mbstatet@@AEAV__crt_cached_ptd_host@@@Z 00000001800204cc f   libucrt:mbrtowc.obj
 0001:0001f670       _fcloseall                 0000000180020670 f   libucrt:closeall.obj
 0001:0001f724       __acrt_stdio_free_buffer_nolock 0000000180020724 f   libucrt:_freebuf.obj
 0001:0001f764       _isatty                    0000000180020764 f   libucrt:isatty.obj
 0001:0001f7c4       __acrt_lowio_create_handle_array 00000001800207c4 f   libucrt:osfinfo.obj
 0001:0001f86c       __acrt_lowio_destroy_handle_array 000000018002086c f   libucrt:osfinfo.obj
 0001:0001f8bc       __acrt_lowio_ensure_fh_exists 00000001800208bc f   libucrt:osfinfo.obj
 0001:0001f964       __acrt_lowio_lock_fh       0000000180020964 f   libucrt:osfinfo.obj
 0001:0001f98c       __acrt_lowio_unlock_fh     000000018002098c f   libucrt:osfinfo.obj
 0001:0001f9b4       _free_osfhnd               00000001800209b4 f   libucrt:osfinfo.obj
 0001:0001fa70       _get_osfhandle             0000000180020a70 f   libucrt:osfinfo.obj
 0001:0001faf0       qsort                      0000000180020af0 f   libucrt:qsort.obj
 0001:0001ff00       strncpy_s                  0000000180020f00 f   libucrt:strncpy_s.obj
 0001:00020090       strpbrk                    0000000180021090 f   libucrt:strpbrk.obj
 0001:00020458       _mbsdec                    0000000180021458 f   libucrt:mbsdec.obj
 0001:00020460       _mbsdec_l                  0000000180021460 f   libucrt:mbsdec.obj
 0001:00020814       __acrt_LCMapStringA        0000000180021814 f   libucrt:lcmapstringa.obj
 0001:00020950       _commit                    0000000180021950 f   libucrt:commit.obj
 0001:00021200       _write_internal            0000000180022200 f   libucrt:write.obj
 0001:00021328       _write_nolock              0000000180022328 f   libucrt:write.obj
 0001:00021638       __ascii_wcsnicmp           0000000180022638 f   libucrt:wcsnicmp.obj
 0001:00021684       _controlfp_s               0000000180022684 f   libucrt:contrlfp.obj
 0001:000216e8       fegetenv                   00000001800226e8 f   libucrt:fegetenv.obj
 0001:00021708       fesetenv                   0000000180022708 f   libucrt:fesetenv.obj
 0001:00021754       feholdexcept               0000000180022754 f   libucrt:feholdexcept.obj
 0001:000217a4       ceil                       00000001800227a4 f   libucrt:ceil.obj
 0001:00021870       log10                      0000000180022870 f   libucrt:log10.obj
 0001:00021e1c       __acrt_fenv_get_common_round_control 0000000180022e1c f   libucrt:_fenvutils.obj
 0001:00021e28       __acrt_fenv_get_control    0000000180022e28 f   libucrt:_fenvutils.obj
 0001:00021f0c       __acrt_fenv_get_status     0000000180022f0c f   libucrt:_fenvutils.obj
 0001:00021f64       __acrt_fenv_set_control    0000000180022f64 f   libucrt:_fenvutils.obj
 0001:000220a0       __acrt_fenv_set_status     00000001800230a0 f   libucrt:_fenvutils.obj
 0001:00022114       ?reset_and_return@__crt_mbstring@@YA_K_KPEAU_Mbstatet@@@Z 0000000180023114 f   libucrt:common_utf8.obj
 0001:0002211c       ?return_illegal_sequence@__crt_mbstring@@YA_KPEAU_Mbstatet@@AEAV__crt_cached_ptd_host@@@Z 000000018002311c f   libucrt:common_utf8.obj
 0001:00022130       ?__mbrtoc32_utf8@__crt_mbstring@@YA_KPEA_UPEBD_KPEAU_Mbstatet@@AEAV__crt_cached_ptd_host@@@Z 0000000180023130 f   libucrt:mbrtoc32.obj
 0001:0002242c       fclose                     000000018002342c f   libucrt:fclose.obj
 0001:00022570       _lseeki64_nolock_internal  0000000180023570 f   libucrt:lseek.obj
 0001:00022578       _query_app_type            0000000180023578 f   libucrt:report_runtime_error.obj
 0001:00022580       __strncnt                  0000000180023580 f   libucrt:strncnt.obj
 0001:00022598       _putwch_nolock             0000000180023598 f   libucrt:putwch.obj
 0001:000225d4       _clearfp                   00000001800235d4 f   libucrt:ieee.obj
 0001:00022644       _control87                 0000000180023644 f   libucrt:ieee.obj
 0001:00022a30       _handle_error              0000000180023a30 f   libucrt:libm_error.obj
 0001:00022b58       _handle_nan                0000000180023b58 f   libucrt:libm_error.obj
 0001:00022b80       __acrt_initialize_fma3     0000000180023b80 f   libucrt:fma3_available.obj
 0001:00022bf0       _log10_special             0000000180023bf0 f   libucrt:log_special.obj
 0001:00022d20       _close_internal            0000000180023d20 f   libucrt:close.obj
 0001:00022de4       _close_nolock_internal     0000000180023de4 f   libucrt:close.obj
 0001:00022eb4       ?__acrt_stdio_free_stream@@YAXV__crt_stdio_stream@@@Z 0000000180023eb4 f   libucrt:stream.obj
 0001:00022ed0       __dcrt_lowio_ensure_console_output_initialized 0000000180023ed0 f   libucrt:initcon.obj
 0001:00022f24       __dcrt_terminate_console_output 0000000180023f24 f   libucrt:initcon.obj
 0001:00022f40       __dcrt_write_console       0000000180023f40 f   libucrt:initcon.obj
 0001:00023010       _get_fpsr                  0000000180024010 f   libucrt:fpsr.obj
 0001:00023020       _set_fpsr                  0000000180024020 f   libucrt:fpsr.obj
 0001:0002302a       _fclrf                     000000018002402a f   libucrt:fpsr.obj
 0001:0002303e       _frnd                      000000018002403e f   libucrt:fpsr.obj
 0001:00023060       _raise_exc                 0000000180024060 f   libucrt:fpexcept.obj
 0001:00023088       _raise_exc_ex              0000000180024088 f   libucrt:fpexcept.obj
 0001:00023398       _set_errno_from_matherr    0000000180024398 f   libucrt:fpexcept.obj
 0001:000233c8       _clrfp                     00000001800243c8 f   libucrt:fpctrl.obj
 0001:000233e8       _ctrlfp                    00000001800243e8 f   libucrt:fpctrl.obj
 0001:00023464       _set_statfp                0000000180024464 f   libucrt:fpctrl.obj
 0001:00023484       _statfp                    0000000180024484 f   libucrt:fpctrl.obj
 0001:000234a0       _FindPESection             00000001800244a0 f   LIBCMT:pesect.obj
 0001:000234f0       _IsNonwritableInCurrentImage 00000001800244f0 f   LIBCMT:pesect.obj
 0001:00023540       _ValidateImageBase         0000000180024540 f   LIBCMT:pesect.obj
 0001:0002356c       __GSHandlerCheck_EH        000000018002456c f   LIBCMT:gshandlereh.obj
 0001:000235ec       __C_specific_handler_noexcept 00000001800245ec f   libvcruntime:chandler_noexcept.obj
 0001:00023638       strrchr                    0000000180024638 f   libvcruntime:strrchr.obj
 0001:00023790       _guard_dispatch_icall_nop  0000000180024790 f   LIBCMT:guard_dispatch.obj
 0001:000237b0       _guard_xfg_dispatch_icall_nop 00000001800247b0 f   LIBCMT:guard_xfg_dispatch.obj
 0002:00000000       __imp_RegQueryValueExW     0000000180025000     advapi32:ADVAPI32.dll
 0002:00000008       __imp_RegSetValueExW       0000000180025008     advapi32:ADVAPI32.dll
 0002:00000010       __imp_RegQueryInfoKeyW     0000000180025010     advapi32:ADVAPI32.dll
 0002:00000018       __imp_RegOpenKeyExW        0000000180025018     advapi32:ADVAPI32.dll
 0002:00000020       __imp_RegEnumKeyExW        0000000180025020     advapi32:ADVAPI32.dll
 0002:00000028       __imp_RegDeleteValueW      0000000180025028     advapi32:ADVAPI32.dll
 0002:00000030       __imp_RegDeleteKeyW        0000000180025030     advapi32:ADVAPI32.dll
 0002:00000038       __imp_RegCreateKeyExW      0000000180025038     advapi32:ADVAPI32.dll
 0002:00000040       __imp_RegCloseKey          0000000180025040     advapi32:ADVAPI32.dll
 0002:00000048       \177ADVAPI32_NULL_THUNK_DATA 0000000180025048     advapi32:ADVAPI32.dll
 0002:00000050       __imp_GetObjectW           0000000180025050     gdi32:GDI32.dll
 0002:00000058       __imp_SelectObject         0000000180025058     gdi32:GDI32.dll
 0002:00000060       __imp_DeleteObject         0000000180025060     gdi32:GDI32.dll
 0002:00000068       __imp_CreateCompatibleDC   0000000180025068     gdi32:GDI32.dll
 0002:00000070       __imp_BitBlt               0000000180025070     gdi32:GDI32.dll
 0002:00000078       __imp_SetWindowOrgEx       0000000180025078     gdi32:GDI32.dll
 0002:00000080       __imp_SetWindowExtEx       0000000180025080     gdi32:GDI32.dll
 0002:00000088       __imp_SetViewportOrgEx     0000000180025088     gdi32:GDI32.dll
 0002:00000090       __imp_LPtoDP               0000000180025090     gdi32:GDI32.dll
 0002:00000098       __imp_SetMapMode           0000000180025098     gdi32:GDI32.dll
 0002:000000a0       __imp_SaveDC               00000001800250a0     gdi32:GDI32.dll
 0002:000000a8       __imp_RestoreDC            00000001800250a8     gdi32:GDI32.dll
 0002:000000b0       __imp_GetDeviceCaps        00000001800250b0     gdi32:GDI32.dll
 0002:000000b8       __imp_DeleteMetaFile       00000001800250b8     gdi32:GDI32.dll
 0002:000000c0       __imp_DeleteDC             00000001800250c0     gdi32:GDI32.dll
 0002:000000c8       __imp_CreateRectRgnIndirect 00000001800250c8     gdi32:GDI32.dll
 0002:000000d0       __imp_CreateMetaFileW      00000001800250d0     gdi32:GDI32.dll
 0002:000000d8       __imp_CreateDCW            00000001800250d8     gdi32:GDI32.dll
 0002:000000e0       __imp_CloseMetaFile        00000001800250e0     gdi32:GDI32.dll
 0002:000000e8       \177GDI32_NULL_THUNK_DATA  00000001800250e8     gdi32:GDI32.dll
 0002:000000f0       __imp_CloseHandle          00000001800250f0     kernel32:KERNEL32.dll
 0002:000000f8       __imp_SetEvent             00000001800250f8     kernel32:KERNEL32.dll
 0002:00000100       __imp_CreateMutexW         0000000180025100     kernel32:KERNEL32.dll
 0002:00000108       __imp_CreateEventW         0000000180025108     kernel32:KERNEL32.dll
 0002:00000110       __imp_GetCurrentProcessId  0000000180025110     kernel32:KERNEL32.dll
 0002:00000118       __imp_WriteConsoleW        0000000180025118     kernel32:KERNEL32.dll
 0002:00000120       __imp_CreateFileW          0000000180025120     kernel32:KERNEL32.dll
 0002:00000128       __imp_GetConsoleMode       0000000180025128     kernel32:KERNEL32.dll
 0002:00000130       __imp_GetConsoleOutputCP   0000000180025130     kernel32:KERNEL32.dll
 0002:00000138       __imp_WriteFile            0000000180025138     kernel32:KERNEL32.dll
 0002:00000140       __imp_FlushFileBuffers     0000000180025140     kernel32:KERNEL32.dll
 0002:00000148       __imp_SetStdHandle         0000000180025148     kernel32:KERNEL32.dll
 0002:00000150       __imp_SetFilePointerEx     0000000180025150     kernel32:KERNEL32.dll
 0002:00000158       __imp_GetStringTypeW       0000000180025158     kernel32:KERNEL32.dll
 0002:00000160       __imp_FreeEnvironmentStringsW 0000000180025160     kernel32:KERNEL32.dll
 0002:00000168       __imp_lstrcmpiW            0000000180025168     kernel32:KERNEL32.dll
 0002:00000170       __imp_GetCommandLineW      0000000180025170     kernel32:KERNEL32.dll
 0002:00000178       __imp_GetCommandLineA      0000000180025178     kernel32:KERNEL32.dll
 0002:00000180       __imp_GetCPInfo            0000000180025180     kernel32:KERNEL32.dll
 0002:00000188       __imp_GetOEMCP             0000000180025188     kernel32:KERNEL32.dll
 0002:00000190       __imp_GetACP               0000000180025190     kernel32:KERNEL32.dll
 0002:00000198       __imp_IsValidCodePage      0000000180025198     kernel32:KERNEL32.dll
 0002:000001a0       __imp_FindNextFileW        00000001800251a0     kernel32:KERNEL32.dll
 0002:000001a8       __imp_FindFirstFileExW     00000001800251a8     kernel32:KERNEL32.dll
 0002:000001b0       __imp_FindClose            00000001800251b0     kernel32:KERNEL32.dll
 0002:000001b8       __imp_GetFileType          00000001800251b8     kernel32:KERNEL32.dll
 0002:000001c0       __imp_GetStdHandle         00000001800251c0     kernel32:KERNEL32.dll
 0002:000001c8       __imp_LCMapStringW         00000001800251c8     kernel32:KERNEL32.dll
 0002:000001d0       __imp_FlsFree              00000001800251d0     kernel32:KERNEL32.dll
 0002:000001d8       __imp_FlsSetValue          00000001800251d8     kernel32:KERNEL32.dll
 0002:000001e0       __imp_MulDiv               00000001800251e0     kernel32:KERNEL32.dll
 0002:000001e8       __imp_GlobalLock           00000001800251e8     kernel32:KERNEL32.dll
 0002:000001f0       __imp_GlobalUnlock         00000001800251f0     kernel32:KERNEL32.dll
 0002:000001f8       __imp_GlobalAlloc          00000001800251f8     kernel32:KERNEL32.dll
 0002:00000200       __imp_FindResourceW        0000000180025200     kernel32:KERNEL32.dll
 0002:00000208       __imp_SizeofResource       0000000180025208     kernel32:KERNEL32.dll
 0002:00000210       __imp_LoadResource         0000000180025210     kernel32:KERNEL32.dll
 0002:00000218       __imp_LoadLibraryExW       0000000180025218     kernel32:KERNEL32.dll
 0002:00000220       __imp_GetProcAddress       0000000180025220     kernel32:KERNEL32.dll
 0002:00000228       __imp_GetModuleHandleW     0000000180025228     kernel32:KERNEL32.dll
 0002:00000230       __imp_GetModuleFileNameW   0000000180025230     kernel32:KERNEL32.dll
 0002:00000238       __imp_FreeLibrary          0000000180025238     kernel32:KERNEL32.dll
 0002:00000240       __imp_DisableThreadLibraryCalls 0000000180025240     kernel32:KERNEL32.dll
 0002:00000248       __imp_GetCurrentThreadId   0000000180025248     kernel32:KERNEL32.dll
 0002:00000250       __imp_Sleep                0000000180025250     kernel32:KERNEL32.dll
 0002:00000258       __imp_WaitForSingleObject  0000000180025258     kernel32:KERNEL32.dll
 0002:00000260       __imp_ReleaseMutex         0000000180025260     kernel32:KERNEL32.dll
 0002:00000268       __imp_ResetEvent           0000000180025268     kernel32:KERNEL32.dll
 0002:00000270       __imp_EnterCriticalSection 0000000180025270     kernel32:KERNEL32.dll
 0002:00000278       __imp_LeaveCriticalSection 0000000180025278     kernel32:KERNEL32.dll
 0002:00000280       __imp_SetLastError         0000000180025280     kernel32:KERNEL32.dll
 0002:00000288       __imp_EncodePointer        0000000180025288     kernel32:KERNEL32.dll
 0002:00000290       __imp_DeleteCriticalSection 0000000180025290     kernel32:KERNEL32.dll
 0002:00000298       __imp_InitializeCriticalSectionEx 0000000180025298     kernel32:KERNEL32.dll
 0002:000002a0       __imp_GetLastError         00000001800252a0     kernel32:KERNEL32.dll
 0002:000002a8       __imp_RaiseException       00000001800252a8     kernel32:KERNEL32.dll
 0002:000002b0       __imp_DecodePointer        00000001800252b0     kernel32:KERNEL32.dll
 0002:000002b8       __imp_WideCharToMultiByte  00000001800252b8     kernel32:KERNEL32.dll
 0002:000002c0       __imp_GetEnvironmentStringsW 00000001800252c0     kernel32:KERNEL32.dll
 0002:000002c8       __imp_MultiByteToWideChar  00000001800252c8     kernel32:KERNEL32.dll
 0002:000002d0       __imp_FlsGetValue          00000001800252d0     kernel32:KERNEL32.dll
 0002:000002d8       __imp_FlsAlloc             00000001800252d8     kernel32:KERNEL32.dll
 0002:000002e0       __imp_HeapReAlloc          00000001800252e0     kernel32:KERNEL32.dll
 0002:000002e8       __imp_HeapSize             00000001800252e8     kernel32:KERNEL32.dll
 0002:000002f0       __imp_GetModuleHandleExW   00000001800252f0     kernel32:KERNEL32.dll
 0002:000002f8       __imp_ExitProcess          00000001800252f8     kernel32:KERNEL32.dll
 0002:00000300       __imp_VirtualQuery         0000000180025300     kernel32:KERNEL32.dll
 0002:00000308       __imp_VirtualProtect       0000000180025308     kernel32:KERNEL32.dll
 0002:00000310       __imp_GetSystemInfo        0000000180025310     kernel32:KERNEL32.dll
 0002:00000318       __imp_TlsFree              0000000180025318     kernel32:KERNEL32.dll
 0002:00000320       __imp_TlsSetValue          0000000180025320     kernel32:KERNEL32.dll
 0002:00000328       __imp_TlsGetValue          0000000180025328     kernel32:KERNEL32.dll
 0002:00000330       __imp_TlsAlloc             0000000180025330     kernel32:KERNEL32.dll
 0002:00000338       __imp_RtlPcToFileHeader    0000000180025338     kernel32:KERNEL32.dll
 0002:00000340       __imp_InterlockedFlushSList 0000000180025340     kernel32:KERNEL32.dll
 0002:00000348       __imp_RtlUnwindEx          0000000180025348     kernel32:KERNEL32.dll
 0002:00000350       __imp_LoadLibraryExA       0000000180025350     kernel32:KERNEL32.dll
 0002:00000358       __imp_VirtualFree          0000000180025358     kernel32:KERNEL32.dll
 0002:00000360       __imp_VirtualAlloc         0000000180025360     kernel32:KERNEL32.dll
 0002:00000368       __imp_FlushInstructionCache 0000000180025368     kernel32:KERNEL32.dll
 0002:00000370       __imp_InterlockedPushEntrySList 0000000180025370     kernel32:KERNEL32.dll
 0002:00000378       __imp_InterlockedPopEntrySList 0000000180025378     kernel32:KERNEL32.dll
 0002:00000380       __imp_GetProcessHeap       0000000180025380     kernel32:KERNEL32.dll
 0002:00000388       __imp_HeapFree             0000000180025388     kernel32:KERNEL32.dll
 0002:00000390       __imp_HeapAlloc            0000000180025390     kernel32:KERNEL32.dll
 0002:00000398       __imp_OutputDebugStringW   0000000180025398     kernel32:KERNEL32.dll
 0002:000003a0       __imp_InitializeSListHead  00000001800253a0     kernel32:KERNEL32.dll
 0002:000003a8       __imp_GetSystemTimeAsFileTime 00000001800253a8     kernel32:KERNEL32.dll
 0002:000003b0       __imp_QueryPerformanceCounter 00000001800253b0     kernel32:KERNEL32.dll
 0002:000003b8       __imp_GetStartupInfoW      00000001800253b8     kernel32:KERNEL32.dll
 0002:000003c0       __imp_InitializeCriticalSectionAndSpinCount 00000001800253c0     kernel32:KERNEL32.dll
 0002:000003c8       __imp_WaitForSingleObjectEx 00000001800253c8     kernel32:KERNEL32.dll
 0002:000003d0       __imp_RtlCaptureContext    00000001800253d0     kernel32:KERNEL32.dll
 0002:000003d8       __imp_RtlLookupFunctionEntry 00000001800253d8     kernel32:KERNEL32.dll
 0002:000003e0       __imp_RtlVirtualUnwind     00000001800253e0     kernel32:KERNEL32.dll
 0002:000003e8       __imp_UnhandledExceptionFilter 00000001800253e8     kernel32:KERNEL32.dll
 0002:000003f0       __imp_SetUnhandledExceptionFilter 00000001800253f0     kernel32:KERNEL32.dll
 0002:000003f8       __imp_GetCurrentProcess    00000001800253f8     kernel32:KERNEL32.dll
 0002:00000400       __imp_TerminateProcess     0000000180025400     kernel32:KERNEL32.dll
 0002:00000408       __imp_IsProcessorFeaturePresent 0000000180025408     kernel32:KERNEL32.dll
 0002:00000410       __imp_IsDebuggerPresent    0000000180025410     kernel32:KERNEL32.dll
 0002:00000418       \177KERNEL32_NULL_THUNK_DATA 0000000180025418     kernel32:KERNEL32.dll
 0002:00000420       __imp_OleCreatePropertyFrame 0000000180025420     oleaut32:OLEAUT32.dll
 0002:00000428       __imp_UnRegisterTypeLib    0000000180025428     oleaut32:OLEAUT32.dll
 0002:00000430       __imp_RegisterTypeLib      0000000180025430     oleaut32:OLEAUT32.dll
 0002:00000438       __imp_LoadRegTypeLib       0000000180025438     oleaut32:OLEAUT32.dll
 0002:00000440       __imp_LoadTypeLib          0000000180025440     oleaut32:OLEAUT32.dll
 0002:00000448       __imp_VarUI4FromStr        0000000180025448     oleaut32:OLEAUT32.dll
 0002:00000450       __imp_VariantInit          0000000180025450     oleaut32:OLEAUT32.dll
 0002:00000458       __imp_SysAllocStringByteLen 0000000180025458     oleaut32:OLEAUT32.dll
 0002:00000460       __imp_SysStringByteLen     0000000180025460     oleaut32:OLEAUT32.dll
 0002:00000468       __imp_VariantChangeType    0000000180025468     oleaut32:OLEAUT32.dll
 0002:00000470       __imp_VariantClear         0000000180025470     oleaut32:OLEAUT32.dll
 0002:00000478       __imp_SysStringLen         0000000180025478     oleaut32:OLEAUT32.dll
 0002:00000480       __imp_SysFreeString        0000000180025480     oleaut32:OLEAUT32.dll
 0002:00000488       __imp_SysAllocStringLen    0000000180025488     oleaut32:OLEAUT32.dll
 0002:00000490       __imp_SysAllocString       0000000180025490     oleaut32:OLEAUT32.dll
 0002:00000498       \177OLEAUT32_NULL_THUNK_DATA 0000000180025498     oleaut32:OLEAUT32.dll
 0002:000004a0       __imp_UnregisterClassW     00000001800254a0     user32:USER32.dll
 0002:000004a8       __imp_PostMessageW         00000001800254a8     user32:USER32.dll
 0002:000004b0       __imp_DefWindowProcW       00000001800254b0     user32:USER32.dll
 0002:000004b8       __imp_CallWindowProcW      00000001800254b8     user32:USER32.dll
 0002:000004c0       __imp_RegisterClassExW     00000001800254c0     user32:USER32.dll
 0002:000004c8       __imp_GetClassInfoExW      00000001800254c8     user32:USER32.dll
 0002:000004d0       __imp_CreateWindowExW      00000001800254d0     user32:USER32.dll
 0002:000004d8       __imp_IsWindow             00000001800254d8     user32:USER32.dll
 0002:000004e0       __imp_IsChild              00000001800254e0     user32:USER32.dll
 0002:000004e8       __imp_DestroyWindow        00000001800254e8     user32:USER32.dll
 0002:000004f0       __imp_ShowWindow           00000001800254f0     user32:USER32.dll
 0002:000004f8       __imp_SetWindowPos         00000001800254f8     user32:USER32.dll
 0002:00000500       __imp_CharNextW            0000000180025500     user32:USER32.dll
 0002:00000508       __imp_SetFocus             0000000180025508     user32:USER32.dll
 0002:00000510       __imp_LoadBitmapW          0000000180025510     user32:USER32.dll
 0002:00000518       __imp_RegisterClassW       0000000180025518     user32:USER32.dll
 0002:00000520       __imp_PeekMessageW         0000000180025520     user32:USER32.dll
 0002:00000528       __imp_LoadCursorW          0000000180025528     user32:USER32.dll
 0002:00000530       __imp_GetParent            0000000180025530     user32:USER32.dll
 0002:00000538       __imp_SetWindowLongPtrW    0000000180025538     user32:USER32.dll
 0002:00000540       __imp_GetWindowLongPtrW    0000000180025540     user32:USER32.dll
 0002:00000548       __imp_PtInRect             0000000180025548     user32:USER32.dll
 0002:00000550       __imp_EqualRect            0000000180025550     user32:USER32.dll
 0002:00000558       __imp_OffsetRect           0000000180025558     user32:USER32.dll
 0002:00000560       __imp_UnionRect            0000000180025560     user32:USER32.dll
 0002:00000568       __imp_IntersectRect        0000000180025568     user32:USER32.dll
 0002:00000570       __imp_GetClientRect        0000000180025570     user32:USER32.dll
 0002:00000578       __imp_InvalidateRect       0000000180025578     user32:USER32.dll
 0002:00000580       __imp_SetWindowRgn         0000000180025580     user32:USER32.dll
 0002:00000588       __imp_EndPaint             0000000180025588     user32:USER32.dll
 0002:00000590       __imp_BeginPaint           0000000180025590     user32:USER32.dll
 0002:00000598       __imp_ReleaseDC            0000000180025598     user32:USER32.dll
 0002:000005a0       __imp_GetDC                00000001800255a0     user32:USER32.dll
 0002:000005a8       __imp_GetKeyState          00000001800255a8     user32:USER32.dll
 0002:000005b0       __imp_GetFocus             00000001800255b0     user32:USER32.dll
 0002:000005b8       \177USER32_NULL_THUNK_DATA 00000001800255b8     user32:USER32.dll
 0002:000005c0       __imp_CoCreateInstance     00000001800255c0     ole32:ole32.dll
 0002:000005c8       __imp_StringFromGUID2      00000001800255c8     ole32:ole32.dll
 0002:000005d0       __imp_CoTaskMemAlloc       00000001800255d0     ole32:ole32.dll
 0002:000005d8       __imp_CoTaskMemRealloc     00000001800255d8     ole32:ole32.dll
 0002:000005e0       __imp_CoTaskMemFree        00000001800255e0     ole32:ole32.dll
 0002:000005e8       __imp_WriteClassStm        00000001800255e8     ole32:ole32.dll
 0002:000005f0       __imp_CreateDataAdviseHolder 00000001800255f0     ole32:ole32.dll
 0002:000005f8       __imp_OleSaveToStream      00000001800255f8     ole32:ole32.dll
 0002:00000600       __imp_CreateOleAdviseHolder 0000000180025600     ole32:ole32.dll
 0002:00000608       __imp_OleRegGetUserType    0000000180025608     ole32:ole32.dll
 0002:00000610       __imp_OleRegGetMiscStatus  0000000180025610     ole32:ole32.dll
 0002:00000618       __imp_OleRegEnumVerbs      0000000180025618     ole32:ole32.dll
 0002:00000620       __imp_CLSIDFromProgID      0000000180025620     ole32:ole32.dll
 0002:00000628       __imp_ReadClassStm         0000000180025628     ole32:ole32.dll
 0002:00000630       \177ole32_NULL_THUNK_DATA  0000000180025630     ole32:ole32.dll
 0002:00000638       __guard_check_icall_fptr   0000000180025638     LIBCMT:guard_support.obj
 0002:00000640       __guard_xfg_check_icall_fptr 0000000180025640     LIBCMT:guard_support.obj
 0002:00000648       __guard_dispatch_icall_fptr 0000000180025648     LIBCMT:guard_support.obj
 0002:00000650       __guard_xfg_dispatch_icall_fptr 0000000180025650     LIBCMT:guard_support.obj
 0002:00000658       __guard_xfg_table_dispatch_icall_fptr 0000000180025658     LIBCMT:guard_support.obj
 0002:00000660       __castguard_check_failure_os_handled_fptr 0000000180025660     LIBCMT:guard_support.obj
 0002:00000668       __xc_a                     0000000180025668     LIBCMT:initializers.obj
 0002:00000698       __xc_z                     0000000180025698     LIBCMT:initializers.obj
 0002:000006a0       __xi_a                     00000001800256a0     LIBCMT:initializers.obj
 0002:000006b0       __acrt_stdio_initializer   00000001800256b0     libucrt:stdio_initializer.obj
 0002:000006b8       __acrt_multibyte_initializer 00000001800256b8     libucrt:multibyte_initializer.obj
 0002:000006c0       __acrt_tran_fma3_initializer 00000001800256c0     libucrt:fma3_initializer.obj
 0002:000006c8       __xi_z                     00000001800256c8     LIBCMT:initializers.obj
 0002:000006d0       __xl_a                     00000001800256d0     LIBCMT:tlssup.obj
 0002:000006d8       __xl_z                     00000001800256d8     LIBCMT:tlssup.obj
 0002:000006e0       __xp_a                     00000001800256e0     LIBCMT:initializers.obj
 0002:000006e8       __acrt_locale_terminator   00000001800256e8     libucrt:locale_initializer.obj
 0002:000006f0       __dcrt_console_output_terminator 00000001800256f0     libucrt:console_output_initializer.obj
 0002:000006f8       __acrt_stdio_terminator    00000001800256f8     libucrt:stdio_initializer.obj
 0002:00000700       __xp_z                     0000000180025700     LIBCMT:initializers.obj
 0002:00000708       __xt_a                     0000000180025708     LIBCMT:initializers.obj
 0002:00000710       __xt_z                     0000000180025710     LIBCMT:initializers.obj
 0002:00000720       ??_C@_13HADIAKP@?$AAS@     0000000180025720     OposVariant.obj
 0002:00000724       ??_C@_13LHMFKAAD@?$AAM@    0000000180025724     OposVariant.obj
 0002:00000728       ??_C@_13MKMNOPIJ@?$AAD@    0000000180025728     OposVariant.obj
 0002:0000072c       ??_C@_13OPKGLAFF@?$AAB@    000000018002572c     OposVariant.obj
 0002:00000730       ??_C@_17LLMMEOJD@?$AAV?$AAa?$AAl@ 0000000180025730     OposVariant.obj
 0002:00000738       ??_C@_1BI@JFAIJMHL@?$AAF?$AAo?$AAr?$AAc?$AAe?$AAR?$AAe?$AAm?$AAo?$AAv?$AAe@ 0000000180025738     OposVariant.obj
 0002:00000750       ??_C@_1BC@GCKHIPE@?$AAN?$AAo?$AAR?$AAe?$AAm?$AAo?$AAv?$AAe@ 0000000180025750     OposVariant.obj
 0002:00000768       ??_C@_1O@JDLOHAN@?$AAD?$AAe?$AAl?$AAe?$AAt?$AAe@ 0000000180025768     OposVariant.obj
 0002:00000778       ??_C@_11LOCGONAA@@         0000000180025778     OposVariant.obj
 0002:00000780       ??_7?$CComObject@V?$CComEnum@UIEnumConnections@@$1?_GUID_b196b287_bab4_101a_b69c_00aa00341d07@@3U__s_GUID@@BUtagCONNECTDATA@@V?$_Copy@UtagCONNECTDATA@@@ATL@@VCComSingleThreadModel@6@@ATL@@@ATL@@6B@ 0000000180025780     Lights.obj
 0002:000007c0       _GUID_55980ba0_35aa_11cf_b671_00aa004cd6d8 00000001800257c0     Lights.obj
 0002:000007d0       _GUID_b196b28b_bab4_101a_b69c_00aa00341d07 00000001800257d0     Lights.obj
 0002:000007e0       ?_entries@?1??_GetEntries@?$CComEnum@UIEnumConnections@@$1?_GUID_b196b287_bab4_101a_b69c_00aa00341d07@@3U__s_GUID@@BUtagCONNECTDATA@@V?$_Copy@UtagCONNECTDATA@@@ATL@@VCComSingleThreadModel@6@@ATL@@SAPEBU_ATL_INTMAP_ENTRY@3@XZ@4QBU43@B 00000001800257e0     Lights.obj
 0002:00000810       ??_7CComClassFactory@ATL@@6B@ 0000000180025810     Lights.obj
 0002:00000840       ?_entries@?1??_GetEntries@CComClassFactory@ATL@@SAPEBU_ATL_INTMAP_ENTRY@3@XZ@4QBU43@B 0000000180025840     Lights.obj
 0002:00000870       _GUID_00000001_0000_0000_c000_000000000046 0000000180025870     Lights.obj
 0002:00000880       IID_IOPOSLights_1_12       0000000180025880     Lights.obj
 0002:00000890       IID_IOPOSLights            0000000180025890     Lights.obj
 0002:000008a0       LIBID_OposLights_CCO       00000001800258a0     Lights.obj
 0002:000008b0       DIID__IOPOSLightsEvents    00000001800258b0     Lights.obj
 0002:000008c0       CLSID_OPOSLights           00000001800258c0     Lights.obj
 0002:000008d0       ??_C@_1BK@BIGILECK@?$AAA?$AAd?$AAv?$AAa?$AAp?$AAi?$AA3?$AA2?$AA?4?$AAd?$AAl?$AAl@ 00000001800258d0     Lights.obj
 0002:000008f0       ??_C@_0BI@MNCFCPFK@RegCreateKeyTransactedW@ 00000001800258f0     Lights.obj
 0002:00000908       _GUID_00000114_0000_0000_c000_000000000046 0000000180025908     Lights.obj
 0002:00000918       _GUID_b196b287_bab4_101a_b69c_00aa00341d07 0000000180025918     Lights.obj
 0002:00000928       _GUID_b196b285_bab4_101a_b69c_00aa00341d07 0000000180025928     Lights.obj
 0002:00000938       _GUID_a6bc3ac0_dbaa_11ce_9de3_00aa004bb851 0000000180025938     Lights.obj
 0002:00000948       _GUID_0000010c_0000_0000_c000_000000000046 0000000180025948     Lights.obj
 0002:00000958       _GUID_00000146_0000_0000_c000_000000000046 0000000180025958     Lights.obj
 0002:00000970       ?_entries@?1??_GetEntries@COPOSLights@@SAPEBU_ATL_INTMAP_ENTRY@ATL@@XZ@4QBU34@B 0000000180025970     Lights.obj
 0002:00000bb0       _GUID_cf51ed10_62fe_11cf_bf86_00a0c9034836 0000000180025bb0     Lights.obj
 0002:00000bc0       _GUID_0000010a_0000_0000_c000_000000000046 0000000180025bc0     Lights.obj
 0002:00000bd0       _GUID_b196b283_bab4_101a_b69c_00aa00341d07 0000000180025bd0     Lights.obj
 0002:00000be0       _GUID_cb5bdc81_93c1_11cf_8f20_00805f2cd064 0000000180025be0     Lights.obj
 0002:00000bf0       ?pPropMap@?1??GetPropertyMap@COPOSLights@@SAPEBUATL_PROPMAP_ENTRY@ATL@@XZ@4QBU34@B 0000000180025bf0     Lights.obj
 0002:00000c98       ??_C@_17DGDADEHL@?$AA_?$AAc?$AAx@ 0000000180025c98     Lights.obj
 0002:00000ca0       ??_C@_17IOIMFDBO@?$AA_?$AAc?$AAy@ 0000000180025ca0     Lights.obj
 0002:00000ca8       ??_7CComModule@ATL@@6B@    0000000180025ca8     Lights.obj
 0002:00000cf8       _GUID_00000000_0000_0000_c000_000000000046 0000000180025cf8     Lights.obj
 0002:00000d08       _GUID_00020400_0000_0000_c000_000000000046 0000000180025d08     Lights.obj
 0002:00000d18       ??_7?$CComObjectCached@VCComClassFactory@ATL@@@ATL@@6B@ 0000000180025d18     Lights.obj
 0002:00000d48       ??_C@_1CE@PGFMOFKI@?$AAS?$AAt?$AAa?$AAt?$AAu?$AAs?$AAU?$AAp?$AAd?$AAa?$AAt?$AAe?$AAE?$AAv?$AAe@ 0000000180025d48     Lights.obj
 0002:00000d70       _GUID_922eada0_3424_11cf_b670_00aa004cd6d8 0000000180025d70     Lights.obj
 0002:00000d80       _GUID_9c2cad80_3424_11cf_b670_00aa004cd6d8 0000000180025d80     Lights.obj
 0002:00000d90       _GUID_00000119_0000_0000_c000_000000000046 0000000180025d90     Lights.obj
 0002:00000da0       ??_C@_1BM@CBGEBBBJ@?$AAD?$AAi?$AAr?$AAe?$AAc?$AAt?$AAI?$AAO?$AAE?$AAv?$AAe?$AAn?$AAt@ 0000000180025da0     Lights.obj
 0002:00000dc0       _GUID_b196b289_bab4_101a_b69c_00aa00341d07 0000000180025dc0     Lights.obj
 0002:00000dd0       _GUID_b196b286_bab4_101a_b69c_00aa00341d07 0000000180025dd0     Lights.obj
 0002:00000de0       ??_C@_1BC@ENICKDH@?$AAC?$AAo?$AAn?$AAt?$AAe?$AAn?$AAt?$AAs@ 0000000180025de0     Lights.obj
 0002:00000df8       _GUID_00000117_0000_0000_c000_000000000046 0000000180025df8     Lights.obj
 0002:00000e08       ??_7?$CComObject@V?$CComEnum@UIEnumConnectionPoints@@$1?_GUID_b196b285_bab4_101a_b69c_00aa00341d07@@3U__s_GUID@@BPEAUIConnectionPoint@@V?$_CopyInterface@UIConnectionPoint@@@ATL@@VCComSingleThreadModel@6@@ATL@@@ATL@@6B@ 0000000180025e08     Lights.obj
 0002:00000e48       ??_C@_1M@KANJNLFF@?$AAC?$AAL?$AAS?$AAI?$AAD@ 0000000180025e48     Lights.obj
 0002:00000e58       ??_C@_1M@EJNEECMJ@?$AAA?$AAp?$AAp?$AAI?$AAD@ 0000000180025e58     Lights.obj
 0002:00000e68       _GUID_0000010e_0000_0000_c000_000000000046 0000000180025e68     Lights.obj
 0002:00000e80       ?rgszNeverDelete@CRegParser@ATL@@1QBQEB_WB 0000000180025e80     Lights.obj
 0002:00000ee0       _GUID_b196b288_bab4_101a_b69c_00aa00341d07 0000000180025ee0     Lights.obj
 0002:00000ef0       ??_7CRegObject@ATL@@6B@    0000000180025ef0     Lights.obj
 0002:00000f20       _GUID_00000113_0000_0000_c000_000000000046 0000000180025f20     Lights.obj
 0002:00000f30       ??_C@_1CK@OEKPKBNA@?$AAC?$AAo?$AAm?$AAp?$AAo?$AAn?$AAe?$AAn?$AAt?$AA?5?$AAC?$AAa?$AAt?$AAe?$AAg@ 0000000180025f30     Lights.obj
 0002:00000f60       ??_C@_1BC@NKMMNMGL@?$AAF?$AAi?$AAl?$AAe?$AAT?$AAy?$AAp?$AAe@ 0000000180025f60     Lights.obj
 0002:00000f78       ??_C@_1BE@EKPAFMCP@?$AAI?$AAn?$AAt?$AAe?$AAr?$AAf?$AAa?$AAc?$AAe@ 0000000180025f78     Lights.obj
 0002:00000f90       ??_C@_1BC@MAICEHGI@?$AAH?$AAa?$AAr?$AAd?$AAw?$AAa?$AAr?$AAe@ 0000000180025f90     Lights.obj
 0002:00000fa8       ??_C@_19HLLLM@?$AAM?$AAi?$AAm?$AAe@ 0000000180025fa8     Lights.obj
 0002:00000fb8       ??_C@_17OMAOINJK@?$AAS?$AAA?$AAM@ 0000000180025fb8     Lights.obj
 0002:00000fc0       ??_C@_1BC@IBECJAAI@?$AAS?$AAE?$AAC?$AAU?$AAR?$AAI?$AAT?$AAY@ 0000000180025fc0     Lights.obj
 0002:00000fd8       ??_C@_1O@GBFINDKL@?$AAS?$AAY?$AAS?$AAT?$AAE?$AAM@ 0000000180025fd8     Lights.obj
 0002:00000fe8       ??_C@_1BC@EAHCMADO@?$AAS?$AAo?$AAf?$AAt?$AAw?$AAa?$AAr?$AAe@ 0000000180025fe8     Lights.obj
 0002:00001000       ??_C@_1BA@JIHHIEDE@?$AAT?$AAy?$AAp?$AAe?$AAL?$AAi?$AAb@ 0000000180026000     Lights.obj
 0002:00001010       _GUID_1c2056cc_5ef4_101b_8bc8_00aa003e3b29 0000000180026010     Lights.obj
 0002:00001020       ?map@?1??HKeyFromString@CRegParser@ATL@@KAPEAUHKEY__@@PEA_W@Z@4QBUkeymap@?1??123@KAPEAU4@0@Z@B 0000000180026020     Lights.obj
 0002:00001100       ??_C@_19NCHLBIN@?$AAH?$AAK?$AAC?$AAR@ 0000000180026100     Lights.obj
 0002:00001110       ??_C@_19JAPAIJDE@?$AAH?$AAK?$AAC?$AAU@ 0000000180026110     Lights.obj
 0002:00001120       ??_C@_19PEALEEJB@?$AAH?$AAK?$AAL?$AAM@ 0000000180026120     Lights.obj
 0002:00001130       ??_C@_17PJOJPMPB@?$AAH?$AAK?$AAU@ 0000000180026130     Lights.obj
 0002:00001138       ??_C@_19PNBHMJPL@?$AAH?$AAK?$AAP?$AAD@ 0000000180026138     Lights.obj
 0002:00001148       ??_C@_19GFFAIJHG@?$AAH?$AAK?$AAD?$AAD@ 0000000180026148     Lights.obj
 0002:00001158       ??_C@_19OFICIBHH@?$AAH?$AAK?$AAC?$AAC@ 0000000180026158     Lights.obj
 0002:00001168       ??_C@_1CE@PACHPJFI@?$AAH?$AAK?$AAE?$AAY?$AA_?$AAC?$AAL?$AAA?$AAS?$AAS?$AAE?$AAS?$AA_?$AAR?$AAO@ 0000000180026168     Lights.obj
 0002:00001190       ??_C@_1CE@HLHNCBPM@?$AAH?$AAK?$AAE?$AAY?$AA_?$AAC?$AAU?$AAR?$AAR?$AAE?$AAN?$AAT?$AA_?$AAU?$AAS@ 0000000180026190     Lights.obj
 0002:000011b8       ??_C@_1CG@GFBEANJL@?$AAH?$AAK?$AAE?$AAY?$AA_?$AAL?$AAO?$AAC?$AAA?$AAL?$AA_?$AAM?$AAA?$AAC?$AAH@ 00000001800261b8     Lights.obj
 0002:000011e0       ??_C@_1BG@BGODANIO@?$AAH?$AAK?$AAE?$AAY?$AA_?$AAU?$AAS?$AAE?$AAR?$AAS@ 00000001800261e0     Lights.obj
 0002:000011f8       ??_C@_1CM@KHNNAOIC@?$AAH?$AAK?$AAE?$AAY?$AA_?$AAP?$AAE?$AAR?$AAF?$AAO?$AAR?$AAM?$AAA?$AAN?$AAC@ 00000001800261f8     Lights.obj
 0002:00001228       ??_C@_1BM@HAGMMHIA@?$AAH?$AAK?$AAE?$AAY?$AA_?$AAD?$AAY?$AAN?$AA_?$AAD?$AAA?$AAT?$AAA@ 0000000180026228     Lights.obj
 0002:00001248       ??_C@_1CI@BBJOACGG@?$AAH?$AAK?$AAE?$AAY?$AA_?$AAC?$AAU?$AAR?$AAR?$AAE?$AAN?$AAT?$AA_?$AAC?$AAO@ 0000000180026248     Lights.obj
 0002:00001270       _GUID_00000109_0000_0000_c000_000000000046 0000000180026270     Lights.obj
 0002:00001280       _GUID_7fd52380_4e07_101b_ae2d_08002b2ec713 0000000180026280     Lights.obj
 0002:00001290       _GUID_00000112_0000_0000_c000_000000000046 0000000180026290     Lights.obj
 0002:000012a0       ??_C@_1EA@NHKLICFA@?$AAH?$AAK?$AAC?$AAU?$AA?$AN?$AA?6?$AA?$HL?$AA?7?$AAS?$AAo?$AAf?$AAt?$AAw?$AAa?$AAr@ 00000001800262a0     Lights.obj
 0002:000012e0       ??_C@_1BE@LJOLIMEM@?$AA?$AN?$AA?6?$AA?7?$AA?$HN?$AA?$AN?$AA?6?$AA?$HN?$AA?$AN?$AA?6@ 00000001800262e0     Lights.obj
 0002:000012f8       _GUID_3af24292_0c96_11ce_a0cf_00aa00600ab8 00000001800262f8     Lights.obj
 0002:00001308       _GUID_00000127_0000_0000_c000_000000000046 0000000180026308     Lights.obj
 0002:00001318       _GUID_0000010d_0000_0000_c000_000000000046 0000000180026318     Lights.obj
 0002:00001328       ??_C@_1M@PPPPCDEP@?$AAA?$AAP?$AAP?$AAI?$AAD@ 0000000180026328     Lights.obj
 0002:00001338       ??_C@_1O@MNLDABAF@?$AAM?$AAo?$AAd?$AAu?$AAl?$AAe@ 0000000180026338     Lights.obj
 0002:00001348       ??_C@_1BG@JBACFMF@?$AAM?$AAo?$AAd?$AAu?$AAl?$AAe?$AA_?$AAR?$AAa?$AAw@ 0000000180026348     Lights.obj
 0002:00001360       ??_C@_1BC@KAILKFFG@?$AAR?$AAE?$AAG?$AAI?$AAS?$AAT?$AAR?$AAY@ 0000000180026360     Lights.obj
 0002:00001378       ??_7?$CComContainedObject@VCOPOSLights@@@ATL@@6B?$IDispatchImpl@UIOPOSLights@@$1?IID_IOPOSLights@@3U_GUID@@B$1?LIBID_OposLights_CCO@@3U3@B$00$0A@VCComTypeInfoHolder@ATL@@@1@@ 0000000180026378     Lights.obj
 0002:00001538       ??_7?$CComContainedObject@VCOPOSLights@@@ATL@@6BCComControlBase@1@@ 0000000180026538     Lights.obj
 0002:00001560       ??_7?$CComContainedObject@VCOPOSLights@@@ATL@@6B?$CWindowImpl@VCOPOSLights@@VCWindow@ATL@@V?$CWinTraits@$0FGAAAAAA@$0A@@3@@1@@ 0000000180026560     Lights.obj
 0002:00001580       ??_7?$CComContainedObject@VCOPOSLights@@@ATL@@6B?$IPersistStreamInitImpl@VCOPOSLights@@@1@@ 0000000180026580     Lights.obj
 0002:000015c8       ??_7?$CComContainedObject@VCOPOSLights@@@ATL@@6B?$IOleControlImpl@VCOPOSLights@@@1@@ 00000001800265c8     Lights.obj
 0002:00001600       ??_7?$CComContainedObject@VCOPOSLights@@@ATL@@6B?$IOleObjectImpl@VCOPOSLights@@@1@@ 0000000180026600     Lights.obj
 0002:000016c0       ??_7?$CComContainedObject@VCOPOSLights@@@ATL@@6B?$IOleInPlaceActiveObjectImpl@VCOPOSLights@@@1@@ 00000001800266c0     Lights.obj
 0002:00001710       ??_7?$CComContainedObject@VCOPOSLights@@@ATL@@6B?$IViewObjectExImpl@VCOPOSLights@@@1@@ 0000000180026710     Lights.obj
 0002:00001788       ??_7?$CComContainedObject@VCOPOSLights@@@ATL@@6B?$IOleInPlaceObjectWindowlessImpl@VCOPOSLights@@@1@@ 0000000180026788     Lights.obj
 0002:000017e0       ??_7?$CComContainedObject@VCOPOSLights@@@ATL@@6B?$IConnectionPointContainerImpl@VCOPOSLights@@@1@@ 00000001800267e0     Lights.obj
 0002:00001808       ??_7?$CComContainedObject@VCOPOSLights@@@ATL@@6B?$IPersistStorageImpl@VCOPOSLights@@@1@@ 0000000180026808     Lights.obj
 0002:00001858       ??_7?$CComContainedObject@VCOPOSLights@@@ATL@@6B?$ISpecifyPropertyPagesImpl@VCOPOSLights@@@1@@ 0000000180026858     Lights.obj
 0002:00001878       ??_7?$CComContainedObject@VCOPOSLights@@@ATL@@6B?$IQuickActivateImpl@VCOPOSLights@@@1@@ 0000000180026878     Lights.obj
 0002:000018a8       ??_7?$CComContainedObject@VCOPOSLights@@@ATL@@6B?$IDataObjectImpl@VCOPOSLights@@@1@@ 00000001800268a8     Lights.obj
 0002:00001908       ??_7?$CComContainedObject@VCOPOSLights@@@ATL@@6B?$IProvideClassInfo2Impl@$1?CLSID_OPOSLights@@3U_GUID@@B$1?DIID__IOPOSLightsEvents@@3U2@B$1?LIBID_OposLights_CCO@@3U2@B$00$0A@VCComTypeInfoHolder@ATL@@@1@@ 0000000180026908     Lights.obj
 0002:00001930       ??_7?$CComContainedObject@VCOPOSLights@@@ATL@@6B?$IObjectSafetyImpl@VCOPOSLights@@$02@1@@ 0000000180026930     Lights.obj
 0002:00001960       ??_7?$CComContainedObject@VCOPOSLights@@@ATL@@6B?$IPropertyNotifySinkCP@VCOPOSLights@@VCComDynamicUnkArray@ATL@@@1@@ 0000000180026960     Lights.obj
 0002:000019a0       ??_7?$CComContainedObject@VCOPOSLights@@@ATL@@6B?$CProxy_IOPOSEvents@VCOPOSLights@@@@@ 00000001800269a0     Lights.obj
 0002:000019e0       ??_7?$CComAggObject@VCOPOSLights@@@ATL@@6B@ 00000001800269e0     Lights.obj
 0002:00001a00       ??_7?$CComObject@VCOPOSLights@@@ATL@@6B?$IDispatchImpl@UIOPOSLights@@$1?IID_IOPOSLights@@3U_GUID@@B$1?LIBID_OposLights_CCO@@3U3@B$00$0A@VCComTypeInfoHolder@ATL@@@1@@ 0000000180026a00     Lights.obj
 0002:00001bc0       ??_7?$CComObject@VCOPOSLights@@@ATL@@6BCComControlBase@1@@ 0000000180026bc0     Lights.obj
 0002:00001be8       ??_7?$CComObject@VCOPOSLights@@@ATL@@6B?$CWindowImpl@VCOPOSLights@@VCWindow@ATL@@V?$CWinTraits@$0FGAAAAAA@$0A@@3@@1@@ 0000000180026be8     Lights.obj
 0002:00001c08       ??_7?$CComObject@VCOPOSLights@@@ATL@@6B?$IPersistStreamInitImpl@VCOPOSLights@@@1@@ 0000000180026c08     Lights.obj
 0002:00001c50       ??_7?$CComObject@VCOPOSLights@@@ATL@@6B?$IOleControlImpl@VCOPOSLights@@@1@@ 0000000180026c50     Lights.obj
 0002:00001c88       ??_7?$CComObject@VCOPOSLights@@@ATL@@6B?$IOleObjectImpl@VCOPOSLights@@@1@@ 0000000180026c88     Lights.obj
 0002:00001d48       ??_7?$CComObject@VCOPOSLights@@@ATL@@6B?$IOleInPlaceActiveObjectImpl@VCOPOSLights@@@1@@ 0000000180026d48     Lights.obj
 0002:00001d98       ??_7?$CComObject@VCOPOSLights@@@ATL@@6B?$IViewObjectExImpl@VCOPOSLights@@@1@@ 0000000180026d98     Lights.obj
 0002:00001e10       ??_7?$CComObject@VCOPOSLights@@@ATL@@6B?$IOleInPlaceObjectWindowlessImpl@VCOPOSLights@@@1@@ 0000000180026e10     Lights.obj
 0002:00001e68       ??_7?$CComObject@VCOPOSLights@@@ATL@@6B?$IConnectionPointContainerImpl@VCOPOSLights@@@1@@ 0000000180026e68     Lights.obj
 0002:00001e90       ??_7?$CComObject@VCOPOSLights@@@ATL@@6B?$IPersistStorageImpl@VCOPOSLights@@@1@@ 0000000180026e90     Lights.obj
 0002:00001ee0       ??_7?$CComObject@VCOPOSLights@@@ATL@@6B?$ISpecifyPropertyPagesImpl@VCOPOSLights@@@1@@ 0000000180026ee0     Lights.obj
 0002:00001f00       ??_7?$CComObject@VCOPOSLights@@@ATL@@6B?$IQuickActivateImpl@VCOPOSLights@@@1@@ 0000000180026f00     Lights.obj
 0002:00001f30       ??_7?$CComObject@VCOPOSLights@@@ATL@@6B?$IDataObjectImpl@VCOPOSLights@@@1@@ 0000000180026f30     Lights.obj
 0002:00001f90       ??_7?$CComObject@VCOPOSLights@@@ATL@@6B?$IProvideClassInfo2Impl@$1?CLSID_OPOSLights@@3U_GUID@@B$1?DIID__IOPOSLightsEvents@@3U2@B$1?LIBID_OposLights_CCO@@3U2@B$00$0A@VCComTypeInfoHolder@ATL@@@1@@ 0000000180026f90     Lights.obj
 0002:00001fb8       ??_7?$CComObject@VCOPOSLights@@@ATL@@6B?$IObjectSafetyImpl@VCOPOSLights@@$02@1@@ 0000000180026fb8     Lights.obj
 0002:00001fe8       ??_7?$CComObject@VCOPOSLights@@@ATL@@6B?$IPropertyNotifySinkCP@VCOPOSLights@@VCComDynamicUnkArray@ATL@@@1@@ 0000000180026fe8     Lights.obj
 0002:00002028       ??_7?$CComObject@VCOPOSLights@@@ATL@@6B?$CProxy_IOPOSEvents@VCOPOSLights@@@@@ 0000000180027028     Lights.obj
 0002:00002068       ??_C@_1O@GBFKGNEO@?$AAA?$AAT?$AAL?$AA?3?$AA?$CF?$AAp@ 0000000180027068     Lights.obj
 0002:00002078       ??_C@_1BA@PICGEGJB@?$AAD?$AAI?$AAS?$AAP?$AAL?$AAA?$AAY@ 0000000180027078     Lights.obj
 0002:00002088       _GUID_b196b284_bab4_101a_b69c_00aa00341d07 0000000180027088     Lights.obj
 0002:00002098       _GUID_9bfbbc02_eff1_101a_84ed_00aa00341d07 0000000180027098     Lights.obj
 0002:000020a8       ?_entries@?1??_GetEntries@?$CComEnum@UIEnumConnectionPoints@@$1?_GUID_b196b285_bab4_101a_b69c_00aa00341d07@@3U__s_GUID@@BPEAUIConnectionPoint@@V?$_CopyInterface@UIConnectionPoint@@@ATL@@VCComSingleThreadModel@6@@ATL@@SAPEBU_ATL_INTMAP_ENTRY@3@XZ@4QBU43@B 00000001800270a8     Lights.obj
 0002:000020d8       _GUID_00020412_0000_0000_c000_000000000046 00000001800270d8     Lights.obj
 0002:000020e8       _GUID_00020401_0000_0000_c000_000000000046 00000001800270e8     Lights.obj
 0002:000020f8       ??_C@_0BG@EKFFMJIO@RegOpenKeyTransactedW@ 00000001800270f8     Lights.obj
 0002:00002110       ??_C@_0BI@HAKLOOGP@RegDeleteKeyTransactedW@ 0000000180027110     Lights.obj
 0002:00002128       ??_C@_0BA@LILAPHGE@RegDeleteKeyExW@ 0000000180027128     Lights.obj
 0002:00002138       ??_C@_19ILOCMLCJ@?$AA?4?$AAt?$AAl?$AAb@ 0000000180027138     Lights.obj
 0002:00002148       _GUID_0002e012_0000_0000_c000_000000000046 0000000180027148     Lights.obj
 0002:00002158       ??_C@_1O@FHBGLCIO@?$AAC?$AAL?$AAS?$AAI?$AAD?$AA?2@ 0000000180027158     Lights.obj
 0002:00002168       ??_C@_1CK@IFBKBFAA@?$AA?2?$AAR?$AAe?$AAq?$AAu?$AAi?$AAr?$AAe?$AAd?$AA?5?$AAC?$AAa?$AAt?$AAe?$AAg@ 0000000180027168     Lights.obj
 0002:00002198       ??_C@_1DA@BIHALFED@?$AA?2?$AAI?$AAm?$AAp?$AAl?$AAe?$AAm?$AAe?$AAn?$AAt?$AAe?$AAd?$AA?5?$AAC?$AAa@ 0000000180027198     Lights.obj
 0002:000021c8       ??_C@_1BK@EDKOLFBJ@?$AAO?$AAL?$AAE?$AAA?$AAU?$AAT?$AA3?$AA2?$AA?4?$AAD?$AAL?$AAL@ 00000001800271c8     Lights.obj
 0002:000021e8       ??_C@_0BJ@CNLFOMHB@UnRegisterTypeLibForUser@ 00000001800271e8     Lights.obj
 0002:00002208       ??_C@_0BH@LBOMMKPJ@RegisterTypeLibForUser@ 0000000180027208     Lights.obj
 0002:00002220       ??_C@_0P@MMNMMLGK@COFreezeEvents@ 0000000180027220     LightsImpl.obj
 0002:00002230       ??_C@_0BC@OGCGGIMP@GetPropertyNumber@ 0000000180027230     LightsImpl.obj
 0002:00002248       ??_C@_0BC@MDCNODNB@SetPropertyNumber@ 0000000180027248     LightsImpl.obj
 0002:00002260       ??_C@_0BC@CFCCMIMD@GetPropertyString@ 0000000180027260     LightsImpl.obj
 0002:00002278       ??_C@_0BC@CJEDNN@SetPropertyString@ 0000000180027278     LightsImpl.obj
 0002:00002290       ??_C@_0M@LNPKKKDA@OpenService@ 0000000180027290     LightsImpl.obj
 0002:000022a0       ??_C@_0M@PCMCHHMH@CheckHealth@ 00000001800272a0     LightsImpl.obj
 0002:000022b0       ??_C@_0M@JGMIDNEK@ClaimDevice@ 00000001800272b0     LightsImpl.obj
 0002:000022c0       ??_C@_0N@DDFIIBMP@CloseService@ 00000001800272c0     LightsImpl.obj
 0002:000022d0       ??_C@_08EEIHICPC@DirectIO@ 00000001800272d0     LightsImpl.obj
 0002:000022e0       ??_C@_0O@BCPMENMJ@ReleaseDevice@ 00000001800272e0     LightsImpl.obj
 0002:000022f0       ??_C@_0BA@GFABKEEE@ResetStatistics@ 00000001800272f0     LightsImpl.obj
 0002:00002300       ??_C@_0BD@DPALHJGC@RetrieveStatistics@ 0000000180027300     LightsImpl.obj
 0002:00002318       ??_C@_0BB@KOHIKNFC@UpdateStatistics@ 0000000180027318     LightsImpl.obj
 0002:00002330       ??_C@_0BH@PBKBNMGB@CompareFirmwareVersion@ 0000000180027330     LightsImpl.obj
 0002:00002348       ??_C@_0P@FBPDPIPA@UpdateFirmware@ 0000000180027348     LightsImpl.obj
 0002:00002358       ??_C@_09JGLPDJNG@SwitchOff@ 0000000180027358     LightsImpl.obj
 0002:00002368       ??_C@_08NKJJBGCP@SwitchOn@ 0000000180027368     LightsImpl.obj
 0002:00002378       ??_7?$CProxy_IOPOSEvents@VCOPOSLights@@@@6B@ 0000000180027378     LightsImpl.obj
 0002:000023b8       ??_C@_1BA@IFHENID@?$AA?$FL?$AAE?$AAr?$AAr?$AAo?$AAr?$AA?$FN@ 00000001800273b8     LightsImpl.obj
 0002:000023c8       ??_C@_0CJ@OKHPIBPI@SOFTWARE?2OLEforRetail?2ServiceOP@ 00000001800273c8     LightsImpl.obj
 0002:000023f8       ??_C@_1M@IAIJHCCH@?$AAC?$AAl?$AAo?$AAs?$AAe@ 00000001800273f8     LightsImpl.obj
 0002:00002408       ??_C@_1M@PCPKGJAH@?$AAC?$AAl?$AAa?$AAi?$AAm@ 0000000180027408     LightsImpl.obj
 0002:00002418       ??_C@_1BA@NDFKIOCP@?$AAR?$AAe?$AAl?$AAe?$AAa?$AAs?$AAe@ 0000000180027418     LightsImpl.obj
 0002:00002428       ??_C@_06EMKJPPBG@Lights@   0000000180027428     LightsImpl.obj
 0002:00002430       ??_C@_1BM@IJMNMBPK@?$AAG?$AAe?$AAt?$AAO?$AAp?$AAe?$AAn?$AAR?$AAe?$AAs?$AAu?$AAl?$AAt@ 0000000180027430     LightsImpl.obj
 0002:00002450       IID_IDispatch              0000000180027450     uuid:oaidl_i.obj
 0002:00002460       IID_IPropertyNotifySink    0000000180027460     uuid:ocidl_i.obj
 0002:00002470       GUID_NULL                  0000000180027470     uuid:cguid_i.obj
 0002:00002480       CLSID_StdGlobalInterfaceTable 0000000180027480     uuid:cguid_i.obj
 0002:00002490       CLSID_StdComponentCategoriesMgr 0000000180027490     uuid:ieguids.obj
 0002:000024a0       IID_IUnknown               00000001800274a0     uuid:unknwn_i.obj
 0002:000024b0       __xmm@ffffffffffffffffffffffffffffffff 00000001800274b0     LIBCMT:utility.obj
 0002:000024c0       ??_C@_1EC@JIJBPKFM@?$AAa?$AAp?$AAi?$AA?9?$AAm?$AAs?$AA?9?$AAw?$AAi?$AAn?$AA?9?$AAc?$AAo?$AAr?$AAe@ 00000001800274c0     LIBCMT:thread_safe_statics.obj
 0002:00002508       ??_C@_1BK@MGMFAEKH@?$AAk?$AAe?$AAr?$AAn?$AAe?$AAl?$AA3?$AA2?$AA?4?$AAd?$AAl?$AAl@ 0000000180027508     LIBCMT:thread_safe_statics.obj
 0002:00002528       ??_C@_0BJ@JEBJOJFJ@SleepConditionVariableCS@ 0000000180027528     LIBCMT:thread_safe_statics.obj
 0002:00002548       ??_C@_0BJ@PGPPEPCC@WakeAllConditionVariable@ 0000000180027548     LIBCMT:thread_safe_statics.obj
 0002:00002561       ?nothrow@std@@3Unothrow_t@1@B 0000000180027561     LIBCMT:std_nothrow.obj
 0002:00002578       _pRawDllMain               0000000180027578     LIBCMT:dll_dllmain.obj
 0002:00002578       _pDefaultRawDllMain        0000000180027578     LIBCMT:dll_dllmain.obj
 0002:00002588       ??_7exception@std@@6B@     0000000180027588     LIBCMT:throw_bad_alloc.obj
 0002:00002598       ??_C@_0BC@EOODALEL@Unknown?5exception@ 0000000180027598     LIBCMT:throw_bad_alloc.obj
 0002:000025b8       ??_7bad_alloc@std@@6B@     00000001800275b8     LIBCMT:throw_bad_alloc.obj
 0002:000025c8       ??_C@_0P@GHFPNOJB@bad?5allocation@ 00000001800275c8     LIBCMT:throw_bad_alloc.obj
 0002:000025e0       ??_7bad_array_new_length@std@@6B@ 00000001800275e0     LIBCMT:throw_bad_alloc.obj
 0002:000025f0       ??_C@_0BF@KINCDENJ@bad?5array?5new?5length@ 00000001800275f0     LIBCMT:throw_bad_alloc.obj
 0002:00002610       ??_7type_info@@6B@         0000000180027610     LIBCMT:std_type_info_static.obj
 0002:00002618       GUID_ATLVer110             0000000180027618     atls:atlbase.obj
 0002:00002630       ??_C@_1IC@ONKHOIDK@?$AAE?$AAR?$AAR?$AAO?$AAR?$AA?5?$AA?3?$AA?5?$AAU?$AAn?$AAa?$AAb?$AAl?$AAe?$AA?5@ 0000000180027630     atls:atlbase.obj
 0002:000026b8       ??_C@_0N@FJEPLCIH@atlthunk?4dll@ 00000001800276b8     atls:atlthunk.obj
 0002:000026c8       ??_C@_0BG@GAKFHCBM@AtlThunk_AllocateData@ 00000001800276c8     atls:atlthunk.obj
 0002:000026e0       ??_C@_0BC@JKONFIAH@AtlThunk_InitData@ 00000001800276e0     atls:atlthunk.obj
 0002:000026f8       ??_C@_0BE@IAOEELAK@AtlThunk_DataToCode@ 00000001800276f8     atls:atlthunk.obj
 0002:00002710       ??_C@_0BC@GBGKAIPI@AtlThunk_FreeData@ 0000000180027710     atls:atlthunk.obj
 0002:00002728       ?s_negLengthTab@FH4@@3QBCB 0000000180027728     libvcruntime:risctrnsctrl.obj
 0002:00002738       ?s_shiftTab@FH4@@3QBEB     0000000180027738     libvcruntime:risctrnsctrl.obj
 0002:00002888       _pDestructExceptionObject  0000000180027888     libvcruntime:ehhelpers.obj
 0002:00002898       ??_7bad_exception@std@@6B@ 0000000180027898     libvcruntime:frame.obj
 0002:000028a8       ??_C@_0O@DPKOEFFH@bad?5exception@ 00000001800278a8     libvcruntime:frame.obj
 0002:00002fd0       ??_C@_08EHJDFFNH@__based?$CI@ 0000000180027fd0     libvcruntime:undname.obj
 0002:00002fe0       ??_C@_07KOLFKCDI@__cdecl@  0000000180027fe0     libvcruntime:undname.obj
 0002:00002fe8       ??_C@_08GHMPAG@__pascal@   0000000180027fe8     libvcruntime:undname.obj
 0002:00002ff8       ??_C@_09IFJBGAPI@__stdcall@ 0000000180027ff8     libvcruntime:undname.obj
 0002:00003008       ??_C@_0L@NPHFGOKO@__thiscall@ 0000000180028008     libvcruntime:undname.obj
 0002:00003018       ??_C@_0L@JMKHOMEK@__fastcall@ 0000000180028018     libvcruntime:undname.obj
 0002:00003028       ??_C@_0N@BCKKPABJ@__vectorcall@ 0000000180028028     libvcruntime:undname.obj
 0002:00003038       ??_C@_09HIJEGCPM@__clrcall@ 0000000180028038     libvcruntime:undname.obj
 0002:00003044       ??_C@_06GHPCKEAG@__eabi@   0000000180028044     libvcruntime:undname.obj
 0002:00003050       ??_C@_09IOPIDJLG@__swift_1@ 0000000180028050     libvcruntime:undname.obj
 0002:00003060       ??_C@_09KFNFGKHF@__swift_2@ 0000000180028060     libvcruntime:undname.obj
 0002:00003070       ??_C@_09LMMOFLDE@__swift_3@ 0000000180028070     libvcruntime:undname.obj
 0002:00003080       ??_C@_07JOMMBBKO@__ptr64@  0000000180028080     libvcruntime:undname.obj
 0002:00003088       ??_C@_0L@PILCLIHE@__restrict@ 0000000180028088     libvcruntime:undname.obj
 0002:00003098       ??_C@_0M@GFIIJFMG@__unaligned@ 0000000180028098     libvcruntime:undname.obj
 0002:000030a8       ??_C@_09DHDLOLLB@restrict?$CI@ 00000001800280a8     libvcruntime:undname.obj
 0002:000030b2       ??_C@_00CNPNBAHC@@         00000001800280b2     libvcruntime:undname.obj
 0002:000030b4       ??_C@_04NIHEBCM@?5new@     00000001800280b4     libvcruntime:undname.obj
 0002:000030c0       ??_C@_07FPCDHGMM@?5delete@ 00000001800280c0     libvcruntime:undname.obj
 0002:000030c8       ??_C@_01NEMOKFLO@?$DN@     00000001800280c8     libvcruntime:undname.obj
 0002:000030cc       ??_C@_02GPIOPFAK@?$DO?$DO@ 00000001800280cc     libvcruntime:undname.obj
 0002:000030d0       ??_C@_02FODMEDOG@?$DM?$DM@ 00000001800280d0     libvcruntime:undname.obj
 0002:000030d4       ??_C@_01DCLJPIOD@?$CB@     00000001800280d4     libvcruntime:undname.obj
 0002:000030d8       ??_C@_02EGOFBIJA@?$DN?$DN@ 00000001800280d8     libvcruntime:undname.obj
 0002:000030dc       ??_C@_02FDNJECIE@?$CB?$DN@ 00000001800280dc     libvcruntime:undname.obj
 0002:000030e0       ??_C@_02GPECMEKF@?$FL?$FN@ 00000001800280e0     libvcruntime:undname.obj
 0002:000030e8       ??_C@_08LHJFAFGD@operator@ 00000001800280e8     libvcruntime:undname.obj
 0002:000030f4       ??_C@_02HBOOOICD@?9?$DO@   00000001800280f4     libvcruntime:undname.obj
 0002:000030f8       ??_C@_01NBENCBCI@?$CK@     00000001800280f8     libvcruntime:undname.obj
 0002:000030fc       ??_C@_02ECNGHCIF@?$CL?$CL@ 00000001800280fc     libvcruntime:undname.obj
 0002:00003100       ??_C@_02BAABKJLB@?9?9@     0000000180028100     libvcruntime:undname.obj
 0002:00003104       ??_C@_01JOAMLHOP@?9@       0000000180028104     libvcruntime:undname.obj
 0002:00003108       ??_C@_01MIFGBAGJ@?$CL@     0000000180028108     libvcruntime:undname.obj
 0002:0000310c       ??_C@_01HNPIGOCE@?$CG@     000000018002810c     libvcruntime:undname.obj
 0002:00003110       ??_C@_03MNHNFDLC@?9?$DO?$CK@ 0000000180028110     libvcruntime:undname.obj
 0002:00003114       ??_C@_01KMDKNFGN@?1@       0000000180028114     libvcruntime:undname.obj
 0002:00003118       ??_C@_01FGNFDNOH@?$CF@     0000000180028118     libvcruntime:undname.obj
 0002:0000311c       ??_C@_01MNNFJEPP@?$DM@     000000018002811c     libvcruntime:undname.obj
 0002:00003120       ??_C@_02EHCHHCKH@?$DM?$DN@ 0000000180028120     libvcruntime:undname.obj
 0002:00003124       ??_C@_01PPODPGHN@?$DO@     0000000180028124     libvcruntime:undname.obj
 0002:00003128       ??_C@_02EEKDKGMJ@?$DO?$DN@ 0000000180028128     libvcruntime:undname.obj
 0002:0000312c       ??_C@_01IHBHIGKO@?0@       000000018002812c     libvcruntime:undname.obj
 0002:00003130       ??_C@_02HCKGKOFO@?$CI?$CJ@ 0000000180028130     libvcruntime:undname.obj
 0002:00003134       ??_C@_01PJKLJHI@?$HO@      0000000180028134     libvcruntime:undname.obj
 0002:00003138       ??_C@_01JKBOJNNK@?$FO@     0000000180028138     libvcruntime:undname.obj
 0002:0000313c       ??_C@_01DNKMNLPK@?$HM@     000000018002813c     libvcruntime:undname.obj
 0002:00003140       ??_C@_02PPKAJPJL@?$CG?$CG@ 0000000180028140     libvcruntime:undname.obj
 0002:00003144       ??_C@_02NONPIBCD@?$HM?$HM@ 0000000180028144     libvcruntime:undname.obj
 0002:00003148       ??_C@_02FPIMKNGF@?$CK?$DN@ 0000000180028148     libvcruntime:undname.obj
 0002:0000314c       ??_C@_02FOEOMHFC@?$CL?$DN@ 000000018002814c     libvcruntime:undname.obj
 0002:00003150       ??_C@_02FKMDLLOA@?9?$DN@   0000000180028150     libvcruntime:undname.obj
 0002:00003154       ??_C@_02FJEHGPIO@?1?$DN@   0000000180028154     libvcruntime:undname.obj
 0002:00003158       ??_C@_02FENAOKFI@?$CF?$DN@ 0000000180028158     libvcruntime:undname.obj
 0002:0000315c       ??_C@_03IKFCCPFF@?$DO?$DO?$DN@ 000000018002815c     libvcruntime:undname.obj
 0002:00003160       ??_C@_03CDNPDDLA@?$DM?$DM?$DN@ 0000000180028160     libvcruntime:undname.obj
 0002:00003164       ??_C@_02FGJGFEAB@?$CG?$DN@ 0000000180028164     libvcruntime:undname.obj
 0002:00003168       ??_C@_02DHLNPPGH@?$HM?$DN@ 0000000180028168     libvcruntime:undname.obj
 0002:0000316c       ??_C@_02MHEGNOJ@?$FO?$DN@  000000018002816c     libvcruntime:undname.obj
 0002:00003170       ??_C@_09IFPLHPGF@?$GAvftable?8@ 0000000180028170     libvcruntime:undname.obj
 0002:00003180       ??_C@_09BLBHBJP@?$GAvbtable?8@ 0000000180028180     libvcruntime:undname.obj
 0002:00003190       ??_C@_07FEEIOKP@?$GAvcall?8@ 0000000180028190     libvcruntime:undname.obj
 0002:00003198       ??_C@_08LLFFHHDJ@?$GAtypeof?8@ 0000000180028198     libvcruntime:undname.obj
 0002:000031a8       ??_C@_0BF@KDPPACIK@?$GAlocal?5static?5guard?8@ 00000001800281a8     libvcruntime:undname.obj
 0002:000031c0       ??_C@_08OBABFOLI@?$GAstring?8@ 00000001800281c0     libvcruntime:undname.obj
 0002:000031d0       ??_C@_0BD@JDLKDPAB@?$GAvbase?5destructor?8@ 00000001800281d0     libvcruntime:undname.obj
 0002:000031e8       ??_C@_0BN@DEGPLNFK@?$GAvector?5deleting?5destructor?8@ 00000001800281e8     libvcruntime:undname.obj
 0002:00003208       ??_C@_0BO@OBMKPJIG@?$GAdefault?5constructor?5closure?8@ 0000000180028208     libvcruntime:undname.obj
 0002:00003228       ??_C@_0BN@IMDCHIKM@?$GAscalar?5deleting?5destructor?8@ 0000000180028228     libvcruntime:undname.obj
 0002:00003248       ??_C@_0BO@PFGOCPJJ@?$GAvector?5constructor?5iterator?8@ 0000000180028248     libvcruntime:undname.obj
 0002:00003268       ??_C@_0BN@LFPFMEDL@?$GAvector?5destructor?5iterator?8@ 0000000180028268     libvcruntime:undname.obj
 0002:00003288       ??_C@_0CE@IKBNEHA@?$GAvector?5vbase?5constructor?5itera@ 0000000180028288     libvcruntime:undname.obj
 0002:000032b0       ??_C@_0BL@NILFHHPC@?$GAvirtual?5displacement?5map?8@ 00000001800282b0     libvcruntime:undname.obj
 0002:000032d0       ??_C@_0CB@JONCMFFK@?$GAeh?5vector?5constructor?5iterator@ 00000001800282d0     libvcruntime:undname.obj
 0002:000032f8       ??_C@_0CA@GCEOPDGL@?$GAeh?5vector?5destructor?5iterator?8@ 00000001800282f8     libvcruntime:undname.obj
 0002:00003318       ??_C@_0CH@OOJPLCPH@?$GAeh?5vector?5vbase?5constructor?5it@ 0000000180028318     libvcruntime:undname.obj
 0002:00003340       ??_C@_0BL@LLKPOHJI@?$GAcopy?5constructor?5closure?8@ 0000000180028340     libvcruntime:undname.obj
 0002:00003360       ??_C@_0BA@KBCDOMBN@?$GAudt?5returning?8@ 0000000180028360     libvcruntime:undname.obj
 0002:00003370       ??_C@_03KLGMFNMG@?$GAEH@   0000000180028370     libvcruntime:undname.obj
 0002:00003374       ??_C@_05KHLCHHI@?$GARTTI@  0000000180028374     libvcruntime:undname.obj
 0002:00003380       ??_C@_0BA@KKLDJDLB@?$GAlocal?5vftable?8@ 0000000180028380     libvcruntime:undname.obj
 0002:00003390       ??_C@_0CE@IIHCMGGL@?$GAlocal?5vftable?5constructor?5clos@ 0000000180028390     libvcruntime:undname.obj
 0002:000033b4       ??_C@_06FHBGPFGH@?5new?$FL?$FN@ 00000001800283b4     libvcruntime:undname.obj
 0002:000033c0       ??_C@_09LBNFPBCA@?5delete?$FL?$FN@ 00000001800283c0     libvcruntime:undname.obj
 0002:000033d0       ??_C@_0P@HJKNJFNN@?$GAomni?5callsig?8@ 00000001800283d0     libvcruntime:undname.obj
 0002:000033e0       ??_C@_0BL@CNOONJFP@?$GAplacement?5delete?5closure?8@ 00000001800283e0     libvcruntime:undname.obj
 0002:00003400       ??_C@_0BN@CKNJLHMB@?$GAplacement?5delete?$FL?$FN?5closure?8@ 0000000180028400     libvcruntime:undname.obj
 0002:00003420       ??_C@_0CG@CFDHKGGD@?$GAmanaged?5vector?5constructor?5ite@ 0000000180028420     libvcruntime:undname.obj
 0002:00003448       ??_C@_0CF@IMGKMJNO@?$GAmanaged?5vector?5destructor?5iter@ 0000000180028448     libvcruntime:undname.obj
 0002:00003470       ??_C@_0CG@HLDDJMAG@?$GAeh?5vector?5copy?5constructor?5ite@ 0000000180028470     libvcruntime:undname.obj
 0002:00003498       ??_C@_0CM@FCBBDIGB@?$GAeh?5vector?5vbase?5copy?5construct@ 0000000180028498     libvcruntime:undname.obj
 0002:000034c8       ??_C@_0BL@CLIPGLGB@?$GAdynamic?5initializer?5for?5?8@ 00000001800284c8     libvcruntime:undname.obj
 0002:000034e8       ??_C@_0CB@PDBIFEP@?$GAdynamic?5atexit?5destructor?5for?5@ 00000001800284e8     libvcruntime:undname.obj
 0002:00003510       ??_C@_0CD@CGAJBKEJ@?$GAvector?5copy?5constructor?5iterat@ 0000000180028510     libvcruntime:undname.obj
 0002:00003538       ??_C@_0CJ@GJELGAMM@?$GAvector?5vbase?5copy?5constructor?5@ 0000000180028538     libvcruntime:undname.obj
 0002:00003568       ??_C@_0CL@FGIJHLCE@?$GAmanaged?5vector?5copy?5constructo@ 0000000180028568     libvcruntime:undname.obj
 0002:00003598       ??_C@_0BM@PMGGMLDN@?$GAlocal?5static?5thread?5guard?8@ 0000000180028598     libvcruntime:undname.obj
 0002:000035b8       ??_C@_0N@BDNMDMOL@operator?5?$CC?$CC?5@ 00000001800285b8     libvcruntime:undname.obj
 0002:000035c8       ??_C@_0BC@GGEBGALA@operator?5co_await@ 00000001800285c8     libvcruntime:undname.obj
 0002:000035e0       ??_C@_0M@GAAIMMOH@operator?$DM?$DN?$DO@ 00000001800285e0     libvcruntime:undname.obj
 0002:000035f0       ??_C@_0BC@DAFEJGAK@?5Type?5Descriptor?8@ 00000001800285f0     libvcruntime:undname.obj
 0002:00003608       ??_C@_0BM@LDKODKLH@?5Base?5Class?5Descriptor?5at?5?$CI@ 0000000180028608     libvcruntime:undname.obj
 0002:00003628       ??_C@_0BD@LGICGFMM@?5Base?5Class?5Array?8@ 0000000180028628     libvcruntime:undname.obj
 0002:00003640       ??_C@_0BN@MECKDCOJ@?5Class?5Hierarchy?5Descriptor?8@ 0000000180028640     libvcruntime:undname.obj
 0002:00003660       ??_C@_0BK@CFCOFLF@?5Complete?5Object?5Locator?8@ 0000000180028660     libvcruntime:undname.obj
 0002:00003680       ??_C@_0BG@JNJLAMPM@?$GAanonymous?5namespace?8@ 0000000180028680     libvcruntime:undname.obj
 0002:000036b0       ??_C@_1DM@KHCHBNEB@?$AAa?$AAp?$AAi?$AA?9?$AAm?$AAs?$AA?9?$AAw?$AAi?$AAn?$AA?9?$AAc?$AAo?$AAr?$AAe@ 00000001800286b0     libvcruntime:winapi_downlevel.obj
 0002:000036f0       ??_C@_1DK@LPPGFMPP@?$AAa?$AAp?$AAi?$AA?9?$AAm?$AAs?$AA?9?$AAw?$AAi?$AAn?$AA?9?$AAc?$AAo?$AAr?$AAe@ 00000001800286f0     libvcruntime:winapi_downlevel.obj
 0002:00003730       ??_C@_1BC@GDMECMAK@?$AAk?$AAe?$AAr?$AAn?$AAe?$AAl?$AA3?$AA2@ 0000000180028730     libvcruntime:winapi_downlevel.obj
 0002:00003748       ??_C@_1BA@PFFKHIOG@?$AAa?$AAp?$AAi?$AA?9?$AAm?$AAs?$AA?9@ 0000000180028748     libvcruntime:winapi_downlevel.obj
 0002:00003760       ??_C@_08KNHFBNJ@FlsAlloc@  0000000180028760     libvcruntime:winapi_downlevel.obj
 0002:00003778       ??_C@_07PEJMOBNF@FlsFree@  0000000180028778     libvcruntime:winapi_downlevel.obj
 0002:00003788       ??_C@_0M@GDNOONDI@FlsGetValue@ 0000000180028788     libvcruntime:winapi_downlevel.obj
 0002:000037a0       ??_C@_0M@JCPCPOEF@FlsSetValue@ 00000001800287a0     libvcruntime:winapi_downlevel.obj
 0002:000037b8       ??_C@_0BM@HCFOFFN@InitializeCriticalSectionEx@ 00000001800287b8     libvcruntime:winapi_downlevel.obj
 0002:00003950       ?format_validation_lookup_table_spectre@__crt_stdio_output@@3V?$spectre_mitigated_lookup_table@Ustate_transition_pair@__crt_stdio_output@@$0IA@@1@B 0000000180028950     libucrt:output.obj
 0002:00003a50       ??_C@_1O@CEDCILHN@?$AA?$CI?$AAn?$AAu?$AAl?$AAl?$AA?$CJ@ 0000000180028a50     libucrt:output.obj
 0002:00003a60       ??_C@_06OJHGLDPL@?$CInull?$CJ@ 0000000180028a60     libucrt:output.obj
 0002:00003a70       __acrt_exception_action_table 0000000180028a70     libucrt:exception_filter.obj
 0002:00003b30       __acrt_signal_action_table_count 0000000180028b30     libucrt:exception_filter.obj
 0002:00003b38       __acrt_signal_action_first_fpe_index 0000000180028b38     libucrt:exception_filter.obj
 0002:00003b40       __acrt_signal_action_fpe_count 0000000180028b40     libucrt:exception_filter.obj
 0002:00003b98       ??_C@_1BI@BGOHAHKC@?$AAm?$AAs?$AAc?$AAo?$AAr?$AAe?$AAe?$AA?4?$AAd?$AAl?$AAl@ 0000000180028b98     libucrt:exit.obj
 0002:00003bb0       ??_C@_0P@MIGLKIOC@CorExitProcess@ 0000000180028bb0     libucrt:exit.obj
 0002:00003d10       __lc_time_c                0000000180028d10     libucrt:nlsdata.obj
 0002:00003fd0       ??_C@_03KOEHGMDN@Sun@      0000000180028fd0     libucrt:nlsdata.obj
 0002:00003fd4       ??_C@_03PDAGKDH@Mon@       0000000180028fd4     libucrt:nlsdata.obj
 0002:00003fd8       ??_C@_03NAGEINEP@Tue@      0000000180028fd8     libucrt:nlsdata.obj
 0002:00003fdc       ??_C@_03MHOMLAJA@Wed@      0000000180028fdc     libucrt:nlsdata.obj
 0002:00003fe0       ??_C@_03IOFIKPDN@Thu@      0000000180028fe0     libucrt:nlsdata.obj
 0002:00003fe4       ??_C@_03IDIOELNC@Fri@      0000000180028fe4     libucrt:nlsdata.obj
 0002:00003fe8       ??_C@_03FEFJNEK@Sat@       0000000180028fe8     libucrt:nlsdata.obj
 0002:00003fec       ??_C@_06OOPIFAJ@Sunday@    0000000180028fec     libucrt:nlsdata.obj
 0002:00003ff4       ??_C@_06JLEDEDGH@Monday@   0000000180028ff4     libucrt:nlsdata.obj
 0002:00004000       ??_C@_07BAAGCFCM@Tuesday@  0000000180029000     libucrt:nlsdata.obj
 0002:00004008       ??_C@_09DLIGFAKA@Wednesday@ 0000000180029008     libucrt:nlsdata.obj
 0002:00004018       ??_C@_08HACCIKIA@Thursday@ 0000000180029018     libucrt:nlsdata.obj
 0002:00004024       ??_C@_06JECMNKMI@Friday@   0000000180029024     libucrt:nlsdata.obj
 0002:00004030       ??_C@_08INBOOONO@Saturday@ 0000000180029030     libucrt:nlsdata.obj
 0002:0000403c       ??_C@_03JIHJHPIE@Jan@      000000018002903c     libucrt:nlsdata.obj
 0002:00004040       ??_C@_03HJBDCHOM@Feb@      0000000180029040     libucrt:nlsdata.obj
 0002:00004044       ??_C@_03ODNJBKGA@Mar@      0000000180029044     libucrt:nlsdata.obj
 0002:00004048       ??_C@_03LEOLGMJP@Apr@      0000000180029048     libucrt:nlsdata.obj
 0002:0000404c       ??_C@_03CNMDKL@May@        000000018002904c     libucrt:nlsdata.obj
 0002:00004050       ??_C@_03IDFGHECI@Jun@      0000000180029050     libucrt:nlsdata.obj
 0002:00004054       ??_C@_03LBGABGKK@Jul@      0000000180029054     libucrt:nlsdata.obj
 0002:00004058       ??_C@_03IFJFEIGA@Aug@      0000000180029058     libucrt:nlsdata.obj
 0002:0000405c       ??_C@_03GGCAPAJC@Sep@      000000018002905c     libucrt:nlsdata.obj
 0002:00004060       ??_C@_03BMAOKBAD@Oct@      0000000180029060     libucrt:nlsdata.obj
 0002:00004064       ??_C@_03JPJOFNIA@Nov@      0000000180029064     libucrt:nlsdata.obj
 0002:00004068       ??_C@_03MKABNOCG@Dec@      0000000180029068     libucrt:nlsdata.obj
 0002:00004070       ??_C@_07CGJPFGJA@January@  0000000180029070     libucrt:nlsdata.obj
 0002:00004078       ??_C@_08GNJGEPFN@February@ 0000000180029078     libucrt:nlsdata.obj
 0002:00004084       ??_C@_05HPCKOFNC@March@    0000000180029084     libucrt:nlsdata.obj
 0002:0000408c       ??_C@_05DMJDNLEJ@April@    000000018002908c     libucrt:nlsdata.obj
 0002:00004094       ??_C@_04CNLMGBGM@June@     0000000180029094     libucrt:nlsdata.obj
 0002:0000409c       ??_C@_04MIEPOIFP@July@     000000018002909c     libucrt:nlsdata.obj
 0002:000040a4       ??_C@_06LBBHFDDG@August@   00000001800290a4     libucrt:nlsdata.obj
 0002:000040b0       ??_C@_09BHHEALKD@September@ 00000001800290b0     libucrt:nlsdata.obj
 0002:000040c0       ??_C@_07JJNFCEND@October@  00000001800290c0     libucrt:nlsdata.obj
 0002:000040c8       ??_C@_08HCHEGEOA@November@ 00000001800290c8     libucrt:nlsdata.obj
 0002:000040d8       ??_C@_08EDHMEBNP@December@ 00000001800290d8     libucrt:nlsdata.obj
 0002:000040e4       ??_C@_02DEDBPAFC@AM@       00000001800290e4     libucrt:nlsdata.obj
 0002:000040e8       ??_C@_02CJNFDJBF@PM@       00000001800290e8     libucrt:nlsdata.obj
 0002:000040f0       ??_C@_08BPBNCDIB@MM?1dd?1yy@ 00000001800290f0     libucrt:nlsdata.obj
 0002:00004100       ??_C@_0BE@CKGJFCPC@dddd?0?5MMMM?5dd?0?5yyyy@ 0000000180029100     libucrt:nlsdata.obj
 0002:00004118       ??_C@_08JCCMCCIL@HH?3mm?3ss@ 0000000180029118     libucrt:nlsdata.obj
 0002:00004128       ??_C@_17MBGCMIPB@?$AAS?$AAu?$AAn@ 0000000180029128     libucrt:nlsdata.obj
 0002:00004130       ??_C@_17KBOMKBF@?$AAM?$AAo?$AAn@ 0000000180029130     libucrt:nlsdata.obj
 0002:00004138       ??_C@_17BMKGEGOJ@?$AAT?$AAu?$AAe@ 0000000180029138     libucrt:nlsdata.obj
 0002:00004140       ??_C@_17CJEDCEPE@?$AAW?$AAe?$AAd@ 0000000180029140     libucrt:nlsdata.obj
 0002:00004148       ??_C@_17PDPHAADD@?$AAT?$AAh?$AAu@ 0000000180029148     libucrt:nlsdata.obj
 0002:00004150       ??_C@_17HFOLPPLP@?$AAF?$AAr?$AAi@ 0000000180029150     libucrt:nlsdata.obj
 0002:00004158       ??_C@_17GGIBDPIH@?$AAS?$AAa?$AAt@ 0000000180029158     libucrt:nlsdata.obj
 0002:00004160       ??_C@_1O@IHNHDHPB@?$AAS?$AAu?$AAn?$AAd?$AAa?$AAy@ 0000000180029160     libucrt:nlsdata.obj
 0002:00004170       ??_C@_1O@MMNBFLIA@?$AAM?$AAo?$AAn?$AAd?$AAa?$AAy@ 0000000180029170     libucrt:nlsdata.obj
 0002:00004180       ??_C@_1BA@ENFBFFEK@?$AAT?$AAu?$AAe?$AAs?$AAd?$AAa?$AAy@ 0000000180029180     libucrt:nlsdata.obj
 0002:00004190       ??_C@_1BE@EBOGMDOH@?$AAW?$AAe?$AAd?$AAn?$AAe?$AAs?$AAd?$AAa?$AAy@ 0000000180029190     libucrt:nlsdata.obj
 0002:000041a8       ??_C@_1BC@HHMNLIHE@?$AAT?$AAh?$AAu?$AAr?$AAs?$AAd?$AAa?$AAy@ 00000001800291a8     libucrt:nlsdata.obj
 0002:000041c0       ??_C@_1O@PDICJHAG@?$AAF?$AAr?$AAi?$AAd?$AAa?$AAy@ 00000001800291c0     libucrt:nlsdata.obj
 0002:000041d0       ??_C@_1BC@ENMNNPAJ@?$AAS?$AAa?$AAt?$AAu?$AAr?$AAd?$AAa?$AAy@ 00000001800291d0     libucrt:nlsdata.obj
 0002:000041e8       ??_C@_17DKNBKCHM@?$AAJ?$AAa?$AAn@ 00000001800291e8     libucrt:nlsdata.obj
 0002:000041f0       ??_C@_17LMDJEKJN@?$AAF?$AAe?$AAb@ 00000001800291f0     libucrt:nlsdata.obj
 0002:000041f8       ??_C@_17CKNLEDEC@?$AAM?$AAa?$AAr@ 00000001800291f8     libucrt:nlsdata.obj
 0002:00004200       ??_C@_17LFPOIHDD@?$AAA?$AAp?$AAr@ 0000000180029200     libucrt:nlsdata.obj
 0002:00004208       ??_C@_17PNNKMEED@?$AAM?$AAa?$AAy@ 0000000180029208     libucrt:nlsdata.obj
 0002:00004210       ??_C@_17KCJGOCPB@?$AAJ?$AAu?$AAn@ 0000000180029210     libucrt:nlsdata.obj
 0002:00004218       ??_C@_17IJPCKHK@?$AAJ?$AAu?$AAl@ 0000000180029218     libucrt:nlsdata.obj
 0002:00004220       ??_C@_17ICPELBCN@?$AAA?$AAu?$AAg@ 0000000180029220     libucrt:nlsdata.obj
 0002:00004228       ??_C@_17HCHCOKMG@?$AAS?$AAe?$AAp@ 0000000180029228     libucrt:nlsdata.obj
 0002:00004230       ??_C@_17FNLKOI@?$AAO?$AAc?$AAt@ 0000000180029230     libucrt:nlsdata.obj
 0002:00004238       ??_C@_17BBDMLCIG@?$AAN?$AAo?$AAv@ 0000000180029238     libucrt:nlsdata.obj
 0002:00004240       ??_C@_17EGKACKIF@?$AAD?$AAe?$AAc@ 0000000180029240     libucrt:nlsdata.obj
 0002:00004248       ??_C@_1BA@EFMEIEBA@?$AAJ?$AAa?$AAn?$AAu?$AAa?$AAr?$AAy@ 0000000180029248     libucrt:nlsdata.obj
 0002:00004258       ??_C@_1BC@JGDDFFAM@?$AAF?$AAe?$AAb?$AAr?$AAu?$AAa?$AAr?$AAy@ 0000000180029258     libucrt:nlsdata.obj
 0002:00004270       ??_C@_1M@IKEENEDF@?$AAM?$AAa?$AAr?$AAc?$AAh@ 0000000180029270     libucrt:nlsdata.obj
 0002:00004280       ??_C@_1M@GJNLMHFD@?$AAA?$AAp?$AAr?$AAi?$AAl@ 0000000180029280     libucrt:nlsdata.obj
 0002:00004290       ??_C@_19EPFLPGAP@?$AAJ?$AAu?$AAn?$AAe@ 0000000180029290     libucrt:nlsdata.obj
 0002:000042a0       ??_C@_19BIFMLPCD@?$AAJ?$AAu?$AAl?$AAy@ 00000001800292a0     libucrt:nlsdata.obj
 0002:000042b0       ??_C@_1O@PAHLKOAC@?$AAA?$AAu?$AAg?$AAu?$AAs?$AAt@ 00000001800292b0     libucrt:nlsdata.obj
 0002:000042c0       ??_C@_1BE@DKAAMBJL@?$AAS?$AAe?$AAp?$AAt?$AAe?$AAm?$AAb?$AAe?$AAr@ 00000001800292c0     libucrt:nlsdata.obj
 0002:000042d8       ??_C@_1BA@EPANDLNG@?$AAO?$AAc?$AAt?$AAo?$AAb?$AAe?$AAr@ 00000001800292d8     libucrt:nlsdata.obj
 0002:000042e8       ??_C@_1BC@BGLIFPF@?$AAN?$AAo?$AAv?$AAe?$AAm?$AAb?$AAe?$AAr@ 00000001800292e8     libucrt:nlsdata.obj
 0002:00004300       ??_C@_1BC@FEMKIFH@?$AAD?$AAe?$AAc?$AAe?$AAm?$AAb?$AAe?$AAr@ 0000000180029300     libucrt:nlsdata.obj
 0002:00004314       ??_C@_15ODEHAHHF@?$AAA?$AAM@ 0000000180029314     libucrt:nlsdata.obj
 0002:0000431c       ??_C@_15CLMNNGEL@?$AAP?$AAM@ 000000018002931c     libucrt:nlsdata.obj
 0002:00004328       ??_C@_1BC@IEBCMHCM@?$AAM?$AAM?$AA?1?$AAd?$AAd?$AA?1?$AAy?$AAy@ 0000000180029328     libucrt:nlsdata.obj
 0002:00004340       ??_C@_1CI@KNAKOEBC@?$AAd?$AAd?$AAd?$AAd?$AA?0?$AA?5?$AAM?$AAM?$AAM?$AAM?$AA?5?$AAd?$AAd?$AA?0?$AA?5@ 0000000180029340     libucrt:nlsdata.obj
 0002:00004368       ??_C@_1BC@GDGBMEMK@?$AAH?$AAH?$AA?3?$AAm?$AAm?$AA?3?$AAs?$AAs@ 0000000180029368     libucrt:nlsdata.obj
 0002:00004380       ??_C@_1M@BMHNFIME@?$AAe?$AAn?$AA?9?$AAU?$AAS@ 0000000180029380     libucrt:nlsdata.obj
 0002:00004430       ??_C@_1EA@JGEFHKEI@?$AAa?$AAp?$AAi?$AA?9?$AAm?$AAs?$AA?9?$AAw?$AAi?$AAn?$AA?9?$AAc?$AAo?$AAr?$AAe@ 0000000180029430     libucrt:winapi_thunks.obj
 0002:00004470       ??_C@_1DI@IJCEHOCB@?$AAa?$AAp?$AAi?$AA?9?$AAm?$AAs?$AA?9?$AAw?$AAi?$AAn?$AA?9?$AAc?$AAo?$AAr?$AAe@ 0000000180029470     libucrt:winapi_thunks.obj
 0002:000044b0       ??_C@_1EI@MPIAOHOC@?$AAa?$AAp?$AAi?$AA?9?$AAm?$AAs?$AA?9?$AAw?$AAi?$AAn?$AA?9?$AAc?$AAo?$AAr?$AAe@ 00000001800294b0     libucrt:winapi_thunks.obj
 0002:00004500       ??_C@_1FK@FPHCKFIE@?$AAa?$AAp?$AAi?$AA?9?$AAm?$AAs?$AA?9?$AAw?$AAi?$AAn?$AA?9?$AAc?$AAo?$AAr?$AAe@ 0000000180029500     libucrt:winapi_thunks.obj
 0002:00004560       ??_C@_1EM@DILCGIIO@?$AAa?$AAp?$AAi?$AA?9?$AAm?$AAs?$AA?9?$AAw?$AAi?$AAn?$AA?9?$AAc?$AAo?$AAr?$AAe@ 0000000180029560     libucrt:winapi_thunks.obj
 0002:000045b0       ??_C@_1DM@LNCGDDPN@?$AAa?$AAp?$AAi?$AA?9?$AAm?$AAs?$AA?9?$AAw?$AAi?$AAn?$AA?9?$AAc?$AAo?$AAr?$AAe@ 00000001800295b0     libucrt:winapi_thunks.obj
 0002:000045f0       ??_C@_1DO@FPAPJEMD@?$AAa?$AAp?$AAi?$AA?9?$AAm?$AAs?$AA?9?$AAw?$AAi?$AAn?$AA?9?$AAc?$AAo?$AAr?$AAe@ 00000001800295f0     libucrt:winapi_thunks.obj
 0002:00004630       ??_C@_1DK@NDHNAHIO@?$AAa?$AAp?$AAi?$AA?9?$AAm?$AAs?$AA?9?$AAw?$AAi?$AAn?$AA?9?$AAc?$AAo?$AAr?$AAe@ 0000000180029630     libucrt:winapi_thunks.obj
 0002:00004670       ??_C@_1DM@KGHDGBCM@?$AAa?$AAp?$AAi?$AA?9?$AAm?$AAs?$AA?9?$AAw?$AAi?$AAn?$AA?9?$AAc?$AAo?$AAr?$AAe@ 0000000180029670     libucrt:winapi_thunks.obj
 0002:000046b0       ??_C@_1EO@IJIOEFOH@?$AAa?$AAp?$AAi?$AA?9?$AAm?$AAs?$AA?9?$AAw?$AAi?$AAn?$AA?9?$AAr?$AAt?$AAc?$AAo@ 00000001800296b0     libucrt:winapi_thunks.obj
 0002:00004700       ??_C@_1FG@HHGEKANL@?$AAa?$AAp?$AAi?$AA?9?$AAm?$AAs?$AA?9?$AAw?$AAi?$AAn?$AA?9?$AAs?$AAe?$AAc?$AAu@ 0000000180029700     libucrt:winapi_thunks.obj
 0002:00004760       ??_C@_1EG@DBIOJECG@?$AAe?$AAx?$AAt?$AA?9?$AAm?$AAs?$AA?9?$AAw?$AAi?$AAn?$AA?9?$AAn?$AAt?$AAu?$AAs@ 0000000180029760     libucrt:winapi_thunks.obj
 0002:000047b0       ??_C@_1EO@FIHMJCLF@?$AAe?$AAx?$AAt?$AA?9?$AAm?$AAs?$AA?9?$AAw?$AAi?$AAn?$AA?9?$AAn?$AAt?$AAu?$AAs@ 00000001800297b0     libucrt:winapi_thunks.obj
 0002:00004800       ??_C@_1BC@DNHGCMLG@?$AAa?$AAd?$AAv?$AAa?$AAp?$AAi?$AA3?$AA2@ 0000000180029800     libucrt:winapi_thunks.obj
 0002:00004818       ??_C@_1M@OAIMIKLP@?$AAn?$AAt?$AAd?$AAl?$AAl@ 0000000180029818     libucrt:winapi_thunks.obj
 0002:00004830       ??_C@_1EG@DPGNFKGC@?$AAa?$AAp?$AAi?$AA?9?$AAm?$AAs?$AA?9?$AAw?$AAi?$AAn?$AA?9?$AAa?$AAp?$AAp?$AAm@ 0000000180029830     libucrt:winapi_thunks.obj
 0002:00004878       ??_C@_1O@BCCLBEOE@?$AAu?$AAs?$AAe?$AAr?$AA3?$AA2@ 0000000180029878     libucrt:winapi_thunks.obj
 0002:00004888       ??_C@_1BA@IAIFMGEF@?$AAe?$AAx?$AAt?$AA?9?$AAm?$AAs?$AA?9@ 0000000180029888     libucrt:winapi_thunks.obj
 0002:000048a0       ??_C@_0BA@FHFNEAED@AreFileApisANSI@ 00000001800298a0     libucrt:winapi_thunks.obj
 0002:000048c0       ??_C@_0O@KKBNKAPF@LCMapStringEx@ 00000001800298c0     libucrt:winapi_thunks.obj
 0002:000048d8       ??_C@_0BB@HBDEELFH@LocaleNameToLCID@ 00000001800298d8     libucrt:winapi_thunks.obj
 0002:000048f0       ??_C@_0CF@OJOFEIGO@AppPolicyGetProcessTerminationM@ 00000001800298f0     libucrt:winapi_thunks.obj
 0002:00004920       ??_C@_0BI@BKLFFAPO@SetThreadStackGuarantee@ 0000000180029920     libucrt:winapi_thunks.obj
 0002:000049c0       ??_C@_03OEIAHPBN@INF@      00000001800299c0     libucrt:cvt.obj
 0002:000049c4       ??_C@_03OJHLLCGB@inf@      00000001800299c4     libucrt:cvt.obj
 0002:000049c8       ??_C@_03LKNCIKJB@NAN@      00000001800299c8     libucrt:cvt.obj
 0002:000049cc       ??_C@_03LHCJEHON@nan@      00000001800299cc     libucrt:cvt.obj
 0002:000049d0       ??_C@_09OFJJIMPC@NAN?$CISNAN?$CJ@ 00000001800299d0     libucrt:cvt.obj
 0002:000049e0       ??_C@_09IPFBKMDL@nan?$CIsnan?$CJ@ 00000001800299e0     libucrt:cvt.obj
 0002:000049f0       ??_C@_08IKHNHAJ@NAN?$CIIND?$CJ@ 00000001800299f0     libucrt:cvt.obj
 0002:00004a00       ??_C@_08OFCDMILK@nan?$CIind?$CJ@ 0000000180029a00     libucrt:cvt.obj
 0002:00004a0c       ??_C@_05KLBDPFGC@e?$CL000@ 0000000180029a0c     libucrt:cvt.obj
 0002:00004a38       ??_C@_1M@HPNHIDJI@?$AAj?$AAa?$AA?9?$AAJ?$AAP@ 0000000180029a38     libucrt:mbctype.obj
 0002:00004a48       ??_C@_1M@BIBDDEMK@?$AAz?$AAh?$AA?9?$AAC?$AAN@ 0000000180029a48     libucrt:mbctype.obj
 0002:00004a58       ??_C@_1M@JLOOOEGK@?$AAk?$AAo?$AA?9?$AAK?$AAR@ 0000000180029a58     libucrt:mbctype.obj
 0002:00004a68       ??_C@_1M@CLNBBOPM@?$AAz?$AAh?$AA?9?$AAT?$AAW@ 0000000180029a68     libucrt:mbctype.obj
 0002:00004a80       __newctype                 0000000180029a80     libucrt:ctype.obj
 0002:00004d80       __newclmap                 0000000180029d80     libucrt:ctype.obj
 0002:00004f00       __newcumap                 0000000180029f00     libucrt:ctype.obj
 0002:00005080       ??_C@_15PJPFLCCM@?$AAu?$AAk@ 000000018002a080     libucrt:get_qualified_locale.obj
 0002:00005ed0       ??_C@_15EMKDOKLE@?$AAa?$AAr@ 000000018002aed0     libucrt:lcidtoname_downlevel.obj
 0002:00005ed8       ??_C@_15KNPADPLH@?$AAb?$AAg@ 000000018002aed8     libucrt:lcidtoname_downlevel.obj
 0002:00005ee0       ??_C@_15EDMHLDMO@?$AAc?$AAa@ 000000018002aee0     libucrt:lcidtoname_downlevel.obj
 0002:00005ee8       ??_C@_1O@BPEAJADD@?$AAz?$AAh?$AA?9?$AAC?$AAH?$AAS@ 000000018002aee8     libucrt:lcidtoname_downlevel.obj
 0002:00005ef8       ??_C@_15LJNHCMNK@?$AAc?$AAs@ 000000018002aef8     libucrt:lcidtoname_downlevel.obj
 0002:00005f00       ??_C@_15FOMCIDHG@?$AAd?$AAa@ 000000018002af00     libucrt:lcidtoname_downlevel.obj
 0002:00005f08       ??_C@_15NBKABECB@?$AAd?$AAe@ 000000018002af08     libucrt:lcidtoname_downlevel.obj
 0002:00005f10       ??_C@_15GHPEIIAO@?$AAe?$AAl@ 000000018002af10     libucrt:lcidtoname_downlevel.obj
 0002:00005f18       ??_C@_15MNPNEAIF@?$AAe?$AAn@ 000000018002af18     libucrt:lcidtoname_downlevel.obj
 0002:00005f20       ??_C@_15GPIOMPMH@?$AAe?$AAs@ 000000018002af20     libucrt:lcidtoname_downlevel.obj
 0002:00005f28       ??_C@_15NGLOAKJC@?$AAf?$AAi@ 000000018002af28     libucrt:lcidtoname_downlevel.obj
 0002:00005f30       ??_C@_15FBKGNKAM@?$AAf?$AAr@ 000000018002af30     libucrt:lcidtoname_downlevel.obj
 0002:00005f38       ??_C@_15KGGCNEFK@?$AAh?$AAe@ 000000018002af38     libucrt:lcidtoname_downlevel.obj
 0002:00005f40       ??_C@_15PGHLIDMF@?$AAh?$AAu@ 000000018002af40     libucrt:lcidtoname_downlevel.obj
 0002:00005f48       ??_C@_15BIEMAPLM@?$AAi?$AAs@ 000000018002af48     libucrt:lcidtoname_downlevel.obj
 0002:00005f50       ??_C@_15IFJLDHAF@?$AAi?$AAt@ 000000018002af50     libucrt:lcidtoname_downlevel.obj
 0002:00005f58       ??_C@_15GEMIOCAG@?$AAj?$AAa@ 000000018002af58     libucrt:lcidtoname_downlevel.obj
 0002:00005f60       ??_C@_15EPELEGJA@?$AAk?$AAo@ 000000018002af60     libucrt:lcidtoname_downlevel.obj
 0002:00005f68       ??_C@_15NDDHIMN@?$AAn?$AAl@ 000000018002af68     libucrt:lcidtoname_downlevel.obj
 0002:00005f70       ??_C@_15BPIGNHCD@?$AAn?$AAo@ 000000018002af70     libucrt:lcidtoname_downlevel.obj
 0002:00005f78       ??_C@_15DEOPBLCG@?$AAp?$AAl@ 000000018002af78     libucrt:lcidtoname_downlevel.obj
 0002:00005f80       ??_C@_15KBECGEFG@?$AAp?$AAt@ 000000018002af80     libucrt:lcidtoname_downlevel.obj
 0002:00005f88       ??_C@_15GLJCBFMD@?$AAr?$AAo@ 000000018002af88     libucrt:lcidtoname_downlevel.obj
 0002:00005f90       ??_C@_15FEDGKCDI@?$AAr?$AAu@ 000000018002af90     libucrt:lcidtoname_downlevel.obj
 0002:00005f98       ??_C@_15GLKMLLHM@?$AAh?$AAr@ 000000018002af98     libucrt:lcidtoname_downlevel.obj
 0002:00005fa0       ??_C@_15CPKMFBDB@?$AAs?$AAk@ 000000018002afa0     libucrt:lcidtoname_downlevel.obj
 0002:00005fa8       ??_C@_15BAAIOGMK@?$AAs?$AAq@ 000000018002afa8     libucrt:lcidtoname_downlevel.obj
 0002:00005fb0       ??_C@_15INNPNOHD@?$AAs?$AAv@ 000000018002afb0     libucrt:lcidtoname_downlevel.obj
 0002:00005fb8       ??_C@_15CABMMOGH@?$AAt?$AAh@ 000000018002afb8     libucrt:lcidtoname_downlevel.obj
 0002:00005fc0       ??_C@_15BPLIHJJM@?$AAt?$AAr@ 000000018002afc0     libucrt:lcidtoname_downlevel.obj
 0002:00005fc8       ??_C@_15NEOEKKDJ@?$AAu?$AAr@ 000000018002afc8     libucrt:lcidtoname_downlevel.obj
 0002:00005fd0       ??_C@_15NFICGAJK@?$AAi?$AAd@ 000000018002afd0     libucrt:lcidtoname_downlevel.obj
 0002:00005fd8       ??_C@_15HPJPHDM@?$AAb?$AAe@ 000000018002afd8     libucrt:lcidtoname_downlevel.obj
 0002:00005fe0       ??_C@_15LCHLGJII@?$AAs?$AAl@ 000000018002afe0     libucrt:lcidtoname_downlevel.obj
 0002:00005fe8       ??_C@_15PCFJPHHO@?$AAe?$AAt@ 000000018002afe8     libucrt:lcidtoname_downlevel.obj
 0002:00005ff0       ??_C@_15HPFPGODN@?$AAl?$AAv@ 000000018002aff0     libucrt:lcidtoname_downlevel.obj
 0002:00005ff8       ??_C@_15NFFGKGLG@?$AAl?$AAt@ 000000018002aff8     libucrt:lcidtoname_downlevel.obj
 0002:00006000       ??_C@_15BDAKCCHN@?$AAf?$AAa@ 000000018002b000     libucrt:lcidtoname_downlevel.obj
 0002:00006008       ??_C@_15NFGIAIAJ@?$AAv?$AAi@ 000000018002b008     libucrt:lcidtoname_downlevel.obj
 0002:00006010       ??_C@_15LMKNDMHN@?$AAh?$AAy@ 000000018002b010     libucrt:lcidtoname_downlevel.obj
 0002:00006018       ??_C@_15IJBHMCFL@?$AAa?$AAz@ 000000018002b018     libucrt:lcidtoname_downlevel.obj
 0002:00006020       ??_C@_15EKOFJABL@?$AAe?$AAu@ 000000018002b020     libucrt:lcidtoname_downlevel.obj
 0002:00006028       ??_C@_15BGHADCNK@?$AAm?$AAk@ 000000018002b028     libucrt:lcidtoname_downlevel.obj
 0002:00006030       ??_C@_15JDNICKHM@?$AAa?$AAf@ 000000018002b030     libucrt:lcidtoname_downlevel.obj
 0002:00006038       ??_C@_15KPJEDBKD@?$AAk?$AAa@ 000000018002b038     libucrt:lcidtoname_downlevel.obj
 0002:00006040       ??_C@_15PDNFFFEO@?$AAf?$AAo@ 000000018002b040     libucrt:lcidtoname_downlevel.obj
 0002:00006048       ??_C@_15OMLEGLOC@?$AAh?$AAi@ 000000018002b048     libucrt:lcidtoname_downlevel.obj
 0002:00006050       ??_C@_15IDNNENKK@?$AAm?$AAs@ 000000018002b050     libucrt:lcidtoname_downlevel.obj
 0002:00006058       ??_C@_15MACJNBMH@?$AAk?$AAk@ 000000018002b058     libucrt:lcidtoname_downlevel.obj
 0002:00006060       ??_C@_15DKDJEOND@?$AAk?$AAy@ 000000018002b060     libucrt:lcidtoname_downlevel.obj
 0002:00006068       ??_C@_15DFGDLJBG@?$AAs?$AAw@ 000000018002b068     libucrt:lcidtoname_downlevel.obj
 0002:00006070       ??_C@_15BBFAICNG@?$AAu?$AAz@ 000000018002b070     libucrt:lcidtoname_downlevel.obj
 0002:00006078       ??_C@_15DKNDCGEA@?$AAt?$AAt@ 000000018002b078     libucrt:lcidtoname_downlevel.obj
 0002:00006080       ??_C@_15MGIFMDPL@?$AAp?$AAa@ 000000018002b080     libucrt:lcidtoname_downlevel.obj
 0002:00006088       ??_C@_15HCNDBBA@?$AAg?$AAu@ 000000018002b088     libucrt:lcidtoname_downlevel.obj
 0002:00006090       ??_C@_15FNBEIBON@?$AAt?$AAa@ 000000018002b090     libucrt:lcidtoname_downlevel.obj
 0002:00006098       ??_C@_15NCHGBGLK@?$AAt?$AAe@ 000000018002b098     libucrt:lcidtoname_downlevel.obj
 0002:000060a0       ??_C@_15PHPHCBPF@?$AAk?$AAn@ 000000018002b0a0     libucrt:lcidtoname_downlevel.obj
 0002:000060a8       ??_C@_15DLGBCKMP@?$AAm?$AAr@ 000000018002b0a8     libucrt:lcidtoname_downlevel.obj
 0002:000060b0       ??_C@_15EABBLBFF@?$AAs?$AAa@ 000000018002b0b0     libucrt:lcidtoname_downlevel.obj
 0002:000060b8       ??_C@_15CBKOMCOI@?$AAm?$AAn@ 000000018002b0b8     libucrt:lcidtoname_downlevel.obj
 0002:000060c0       ??_C@_15CKDMCJAF@?$AAg?$AAl@ 000000018002b0c0     libucrt:lcidtoname_downlevel.obj
 0002:000060c8       ??_C@_17CNJFBPG@?$AAk?$AAo?$AAk@ 000000018002b0c8     libucrt:lcidtoname_downlevel.obj
 0002:000060d0       ??_C@_17FFBJICPL@?$AAs?$AAy?$AAr@ 000000018002b0d0     libucrt:lcidtoname_downlevel.obj
 0002:000060d8       ??_C@_17KPNDCPAF@?$AAd?$AAi?$AAv@ 000000018002b0d8     libucrt:lcidtoname_downlevel.obj
 0002:000060e0       ??_C@_1M@OKAHONE@?$AAa?$AAr?$AA?9?$AAS?$AAA@ 000000018002b0e0     libucrt:lcidtoname_downlevel.obj
 0002:000060f0       ??_C@_1M@FFFIGIGK@?$AAb?$AAg?$AA?9?$AAB?$AAG@ 000000018002b0f0     libucrt:lcidtoname_downlevel.obj
 0002:00006100       ??_C@_1M@BJNKEDC@?$AAc?$AAa?$AA?9?$AAE?$AAS@ 000000018002b100     libucrt:lcidtoname_downlevel.obj
 0002:00006110       ??_C@_1M@IJJHFJHA@?$AAc?$AAs?$AA?9?$AAC?$AAZ@ 000000018002b110     libucrt:lcidtoname_downlevel.obj
 0002:00006120       ??_C@_1M@CLPEOBGI@?$AAd?$AAa?$AA?9?$AAD?$AAK@ 000000018002b120     libucrt:lcidtoname_downlevel.obj
 0002:00006130       ??_C@_1M@MCMADGCB@?$AAd?$AAe?$AA?9?$AAD?$AAE@ 000000018002b130     libucrt:lcidtoname_downlevel.obj
 0002:00006140       ??_C@_1M@OOCKEMAM@?$AAe?$AAl?$AA?9?$AAG?$AAR@ 000000018002b140     libucrt:lcidtoname_downlevel.obj
 0002:00006150       ??_C@_1M@DDNJFGID@?$AAf?$AAi?$AA?9?$AAF?$AAI@ 000000018002b150     libucrt:lcidtoname_downlevel.obj
 0002:00006160       ??_C@_1M@GLIPPMAC@?$AAf?$AAr?$AA?9?$AAF?$AAR@ 000000018002b160     libucrt:lcidtoname_downlevel.obj
 0002:00006170       ??_C@_1M@GFMCHPE@?$AAh?$AAe?$AA?9?$AAI?$AAL@ 000000018002b170     libucrt:lcidtoname_downlevel.obj
 0002:00006180       ??_C@_1M@MHLPGNKM@?$AAh?$AAu?$AA?9?$AAH?$AAU@ 000000018002b180     libucrt:lcidtoname_downlevel.obj
 0002:00006190       ??_C@_1M@LPDDNNPN@?$AAi?$AAs?$AA?9?$AAI?$AAS@ 000000018002b190     libucrt:lcidtoname_downlevel.obj
 0002:000061a0       ??_C@_1M@MADIPODN@?$AAi?$AAt?$AA?9?$AAI?$AAT@ 000000018002b1a0     libucrt:lcidtoname_downlevel.obj
 0002:000061b0       ??_C@_1M@IHBJJGG@?$AAn?$AAl?$AA?9?$AAN?$AAL@ 000000018002b1b0     libucrt:lcidtoname_downlevel.obj
 0002:000061c0       ??_C@_1M@EANAGDL@?$AAn?$AAb?$AA?9?$AAN?$AAO@ 000000018002b1c0     libucrt:lcidtoname_downlevel.obj
 0002:000061d0       ??_C@_1M@NEIEMEGP@?$AAp?$AAl?$AA?9?$AAP?$AAL@ 000000018002b1d0     libucrt:lcidtoname_downlevel.obj
 0002:000061e0       ??_C@_1M@BOCFIGEP@?$AAp?$AAt?$AA?9?$AAB?$AAR@ 000000018002b1e0     libucrt:lcidtoname_downlevel.obj
 0002:000061f0       ??_C@_1M@IMPFOPBG@?$AAr?$AAo?$AA?9?$AAR?$AAO@ 000000018002b1f0     libucrt:lcidtoname_downlevel.obj
 0002:00006200       ??_C@_1M@IDNNEJMM@?$AAr?$AAu?$AA?9?$AAR?$AAU@ 000000018002b200     libucrt:lcidtoname_downlevel.obj
 0002:00006210       ??_C@_1M@LILEEOGM@?$AAh?$AAr?$AA?9?$AAH?$AAR@ 000000018002b210     libucrt:lcidtoname_downlevel.obj
 0002:00006220       ??_C@_1M@FKIFEHPB@?$AAs?$AAk?$AA?9?$AAS?$AAK@ 000000018002b220     libucrt:lcidtoname_downlevel.obj
 0002:00006230       ??_C@_1M@LJMAMNPJ@?$AAs?$AAq?$AA?9?$AAA?$AAL@ 000000018002b230     libucrt:lcidtoname_downlevel.obj
 0002:00006240       ??_C@_1M@GIAKDKJK@?$AAs?$AAv?$AA?9?$AAS?$AAE@ 000000018002b240     libucrt:lcidtoname_downlevel.obj
 0002:00006250       ??_C@_1M@MKJKIKCL@?$AAt?$AAh?$AA?9?$AAT?$AAH@ 000000018002b250     libucrt:lcidtoname_downlevel.obj
 0002:00006260       ??_C@_1M@MFLCCMPB@?$AAt?$AAr?$AA?9?$AAT?$AAR@ 000000018002b260     libucrt:lcidtoname_downlevel.obj
 0002:00006270       ??_C@_1M@OIJHDKJN@?$AAu?$AAr?$AA?9?$AAP?$AAK@ 000000018002b270     libucrt:lcidtoname_downlevel.obj
 0002:00006280       ??_C@_1M@LHIPCIEK@?$AAi?$AAd?$AA?9?$AAI?$AAD@ 000000018002b280     libucrt:lcidtoname_downlevel.obj
 0002:00006290       ??_C@_1M@MFMOBGI@?$AAu?$AAk?$AA?9?$AAU?$AAA@ 000000018002b290     libucrt:lcidtoname_downlevel.obj
 0002:000062a0       ??_C@_1M@OBGLJIPL@?$AAb?$AAe?$AA?9?$AAB?$AAY@ 000000018002b2a0     libucrt:lcidtoname_downlevel.obj
 0002:000062b0       ??_C@_1M@BCFAJEAD@?$AAs?$AAl?$AA?9?$AAS?$AAI@ 000000018002b2b0     libucrt:lcidtoname_downlevel.obj
 0002:000062c0       ??_C@_1M@FKFFEDDN@?$AAe?$AAt?$AA?9?$AAE?$AAE@ 000000018002b2c0     libucrt:lcidtoname_downlevel.obj
 0002:000062d0       ??_C@_1M@KGKKAACI@?$AAl?$AAv?$AA?9?$AAL?$AAV@ 000000018002b2d0     libucrt:lcidtoname_downlevel.obj
 0002:000062e0       ??_C@_1M@IFGBIJO@?$AAl?$AAt?$AA?9?$AAL?$AAT@ 000000018002b2e0     libucrt:lcidtoname_downlevel.obj
 0002:000062f0       ??_C@_1M@FGEAHEDM@?$AAf?$AAa?$AA?9?$AAI?$AAR@ 000000018002b2f0     libucrt:lcidtoname_downlevel.obj
 0002:00006300       ??_C@_1M@KBMAIBFN@?$AAv?$AAi?$AA?9?$AAV?$AAN@ 000000018002b300     libucrt:lcidtoname_downlevel.obj
 0002:00006310       ??_C@_1M@GPCBKDJK@?$AAh?$AAy?$AA?9?$AAA?$AAM@ 000000018002b310     libucrt:lcidtoname_downlevel.obj
 0002:00006320       ??_C@_1BG@BECMDDJB@?$AAa?$AAz?$AA?9?$AAA?$AAZ?$AA?9?$AAL?$AAa?$AAt?$AAn@ 000000018002b320     libucrt:lcidtoname_downlevel.obj
 0002:00006338       ??_C@_1M@MAOFCAEA@?$AAe?$AAu?$AA?9?$AAE?$AAS@ 000000018002b338     libucrt:lcidtoname_downlevel.obj
 0002:00006348       ??_C@_1M@IGHABKPI@?$AAm?$AAk?$AA?9?$AAM?$AAK@ 000000018002b348     libucrt:lcidtoname_downlevel.obj
 0002:00006358       ??_C@_1M@IAIGNEJG@?$AAt?$AAn?$AA?9?$AAZ?$AAA@ 000000018002b358     libucrt:lcidtoname_downlevel.obj
 0002:00006368       ??_C@_1M@IIJCOJFA@?$AAx?$AAh?$AA?9?$AAZ?$AAA@ 000000018002b368     libucrt:lcidtoname_downlevel.obj
 0002:00006378       ??_C@_1M@LGPJHNJH@?$AAz?$AAu?$AA?9?$AAZ?$AAA@ 000000018002b378     libucrt:lcidtoname_downlevel.obj
 0002:00006388       ??_C@_1M@HOKAOIO@?$AAa?$AAf?$AA?9?$AAZ?$AAA@ 000000018002b388     libucrt:lcidtoname_downlevel.obj
 0002:00006398       ??_C@_1M@DPCLHLIE@?$AAk?$AAa?$AA?9?$AAG?$AAE@ 000000018002b398     libucrt:lcidtoname_downlevel.obj
 0002:000063a8       ??_C@_1M@BLKMHJBI@?$AAf?$AAo?$AA?9?$AAF?$AAO@ 000000018002b3a8     libucrt:lcidtoname_downlevel.obj
 0002:000063b8       ??_C@_1M@LGGJAPPB@?$AAh?$AAi?$AA?9?$AAI?$AAN@ 000000018002b3b8     libucrt:lcidtoname_downlevel.obj
 0002:000063c8       ??_C@_1M@FIKPIHFE@?$AAm?$AAt?$AA?9?$AAM?$AAT@ 000000018002b3c8     libucrt:lcidtoname_downlevel.obj
 0002:000063d8       ??_C@_1M@HEGGPBFA@?$AAs?$AAe?$AA?9?$AAN?$AAO@ 000000018002b3d8     libucrt:lcidtoname_downlevel.obj
 0002:000063e8       ??_C@_1M@EIBJEEPA@?$AAm?$AAs?$AA?9?$AAM?$AAY@ 000000018002b3e8     libucrt:lcidtoname_downlevel.obj
 0002:000063f8       ??_C@_1M@FHLBGMPP@?$AAk?$AAk?$AA?9?$AAK?$AAZ@ 000000018002b3f8     libucrt:lcidtoname_downlevel.obj
 0002:00006408       ??_C@_1M@NGJJLCGI@?$AAk?$AAy?$AA?9?$AAK?$AAG@ 000000018002b408     libucrt:lcidtoname_downlevel.obj
 0002:00006418       ??_C@_1M@GIENNBFC@?$AAs?$AAw?$AA?9?$AAK?$AAE@ 000000018002b418     libucrt:lcidtoname_downlevel.obj
 0002:00006428       ??_C@_1BG@NDGMJIMJ@?$AAu?$AAz?$AA?9?$AAU?$AAZ?$AA?9?$AAL?$AAa?$AAt?$AAn@ 000000018002b428     libucrt:lcidtoname_downlevel.obj
 0002:00006440       ??_C@_1M@IDCCIHBC@?$AAt?$AAt?$AA?9?$AAR?$AAU@ 000000018002b440     libucrt:lcidtoname_downlevel.obj
 0002:00006450       ??_C@_1M@LOICPMOJ@?$AAb?$AAn?$AA?9?$AAI?$AAN@ 000000018002b450     libucrt:lcidtoname_downlevel.obj
 0002:00006460       ??_C@_1M@KPKKNEAH@?$AAp?$AAa?$AA?9?$AAI?$AAN@ 000000018002b460     libucrt:lcidtoname_downlevel.obj
 0002:00006470       ??_C@_1M@PJGPPBOG@?$AAg?$AAu?$AA?9?$AAI?$AAN@ 000000018002b470     libucrt:lcidtoname_downlevel.obj
 0002:00006480       ??_C@_1M@KMKMOPHI@?$AAt?$AAa?$AA?9?$AAI?$AAN@ 000000018002b480     libucrt:lcidtoname_downlevel.obj
 0002:00006490       ??_C@_1M@KFEHEPAC@?$AAt?$AAe?$AA?9?$AAI?$AAN@ 000000018002b490     libucrt:lcidtoname_downlevel.obj
 0002:000064a0       ??_C@_1M@CDCLMGHI@?$AAk?$AAn?$AA?9?$AAI?$AAN@ 000000018002b4a0     libucrt:lcidtoname_downlevel.obj
 0002:000064b0       ??_C@_1M@MIODLDKF@?$AAm?$AAl?$AA?9?$AAI?$AAN@ 000000018002b4b0     libucrt:lcidtoname_downlevel.obj
 0002:000064c0       ??_C@_1M@PBIEACPO@?$AAm?$AAr?$AA?9?$AAI?$AAN@ 000000018002b4c0     libucrt:lcidtoname_downlevel.obj
 0002:000064d0       ??_C@_1M@NIDEAGPH@?$AAs?$AAa?$AA?9?$AAI?$AAN@ 000000018002b4d0     libucrt:lcidtoname_downlevel.obj
 0002:000064e0       ??_C@_1M@FHIHCBIO@?$AAm?$AAn?$AA?9?$AAM?$AAN@ 000000018002b4e0     libucrt:lcidtoname_downlevel.obj
 0002:000064f0       ??_C@_1M@JAIJPENP@?$AAc?$AAy?$AA?9?$AAG?$AAB@ 000000018002b4f0     libucrt:lcidtoname_downlevel.obj
 0002:00006500       ??_C@_1M@PHGFBEPN@?$AAg?$AAl?$AA?9?$AAE?$AAS@ 000000018002b500     libucrt:lcidtoname_downlevel.obj
 0002:00006510       ??_C@_1O@KPIPDNCP@?$AAk?$AAo?$AAk?$AA?9?$AAI?$AAN@ 000000018002b510     libucrt:lcidtoname_downlevel.obj
 0002:00006520       ??_C@_1O@KNHJLDJA@?$AAs?$AAy?$AAr?$AA?9?$AAS?$AAY@ 000000018002b520     libucrt:lcidtoname_downlevel.obj
 0002:00006530       ??_C@_1O@MKEKBLAH@?$AAd?$AAi?$AAv?$AA?9?$AAM?$AAV@ 000000018002b530     libucrt:lcidtoname_downlevel.obj
 0002:00006540       ??_C@_1O@OHDCKDDF@?$AAq?$AAu?$AAz?$AA?9?$AAB?$AAO@ 000000018002b540     libucrt:lcidtoname_downlevel.obj
 0002:00006550       ??_C@_1M@LEPJNLFD@?$AAn?$AAs?$AA?9?$AAZ?$AAA@ 000000018002b550     libucrt:lcidtoname_downlevel.obj
 0002:00006560       ??_C@_1M@OMLEIIJB@?$AAm?$AAi?$AA?9?$AAN?$AAZ@ 000000018002b560     libucrt:lcidtoname_downlevel.obj
 0002:00006570       ??_C@_1M@PMPEAILG@?$AAa?$AAr?$AA?9?$AAI?$AAQ@ 000000018002b570     libucrt:lcidtoname_downlevel.obj
 0002:00006580       ??_C@_1M@CNKPNOEE@?$AAd?$AAe?$AA?9?$AAC?$AAH@ 000000018002b580     libucrt:lcidtoname_downlevel.obj
 0002:00006590       ??_C@_1M@LKMGMLKO@?$AAe?$AAn?$AA?9?$AAG?$AAB@ 000000018002b590     libucrt:lcidtoname_downlevel.obj
 0002:000065a0       ??_C@_1M@PGKJFFGL@?$AAe?$AAs?$AA?9?$AAM?$AAX@ 000000018002b5a0     libucrt:lcidtoname_downlevel.obj
 0002:000065b0       ??_C@_1M@DNNANBDC@?$AAf?$AAr?$AA?9?$AAB?$AAE@ 000000018002b5b0     libucrt:lcidtoname_downlevel.obj
 0002:000065c0       ??_C@_1M@HLGMDFHM@?$AAi?$AAt?$AA?9?$AAC?$AAH@ 000000018002b5c0     libucrt:lcidtoname_downlevel.obj
 0002:000065d0       ??_C@_1M@CLLBGJH@?$AAn?$AAl?$AA?9?$AAB?$AAE@ 000000018002b5d0     libucrt:lcidtoname_downlevel.obj
 0002:000065e0       ??_C@_1M@BODBOGLF@?$AAn?$AAn?$AA?9?$AAN?$AAO@ 000000018002b5e0     libucrt:lcidtoname_downlevel.obj
 0002:000065f0       ??_C@_1M@HFFAHKAD@?$AAp?$AAt?$AA?9?$AAP?$AAT@ 000000018002b5f0     libucrt:lcidtoname_downlevel.obj
 0002:00006600       ??_C@_1BG@LNOAKHIE@?$AAs?$AAr?$AA?9?$AAS?$AAP?$AA?9?$AAL?$AAa?$AAt?$AAn@ 000000018002b600     libucrt:lcidtoname_downlevel.obj
 0002:00006618       ??_C@_1M@HBMHBGAK@?$AAs?$AAv?$AA?9?$AAF?$AAI@ 000000018002b618     libucrt:lcidtoname_downlevel.obj
 0002:00006628       ??_C@_1BG@DGCJGJBE@?$AAa?$AAz?$AA?9?$AAA?$AAZ?$AA?9?$AAC?$AAy?$AAr?$AAl@ 000000018002b628     libucrt:lcidtoname_downlevel.obj
 0002:00006640       ??_C@_1M@KEJDAAHB@?$AAs?$AAe?$AA?9?$AAS?$AAE@ 000000018002b640     libucrt:lcidtoname_downlevel.obj
 0002:00006650       ??_C@_1M@HEIBJJAD@?$AAm?$AAs?$AA?9?$AAB?$AAN@ 000000018002b650     libucrt:lcidtoname_downlevel.obj
 0002:00006660       ??_C@_1BG@PBGJMCEM@?$AAu?$AAz?$AA?9?$AAU?$AAZ?$AA?9?$AAC?$AAy?$AAr?$AAl@ 000000018002b660     libucrt:lcidtoname_downlevel.obj
 0002:00006678       ??_C@_1O@LAOBCMDF@?$AAq?$AAu?$AAz?$AA?9?$AAE?$AAC@ 000000018002b678     libucrt:lcidtoname_downlevel.obj
 0002:00006688       ??_C@_1M@POEEMAIO@?$AAa?$AAr?$AA?9?$AAE?$AAG@ 000000018002b688     libucrt:lcidtoname_downlevel.obj
 0002:00006698       ??_C@_1M@EFAKDEDL@?$AAz?$AAh?$AA?9?$AAH?$AAK@ 000000018002b698     libucrt:lcidtoname_downlevel.obj
 0002:000066a8       ??_C@_1M@HKKIJHGI@?$AAd?$AAe?$AA?9?$AAA?$AAT@ 000000018002b6a8     libucrt:lcidtoname_downlevel.obj
 0002:000066b8       ??_C@_1M@KBFBEHJF@?$AAe?$AAn?$AA?9?$AAA?$AAU@ 000000018002b6b8     libucrt:lcidtoname_downlevel.obj
 0002:000066c8       ??_C@_1M@MNPLFAAH@?$AAe?$AAs?$AA?9?$AAE?$AAS@ 000000018002b6c8     libucrt:lcidtoname_downlevel.obj
 0002:000066d8       ??_C@_1M@HJOOJFMA@?$AAf?$AAr?$AA?9?$AAC?$AAA@ 000000018002b6d8     libucrt:lcidtoname_downlevel.obj
 0002:000066e8       ??_C@_1BG@JPOFPNAB@?$AAs?$AAr?$AA?9?$AAS?$AAP?$AA?9?$AAC?$AAy?$AAr?$AAl@ 000000018002b6e8     libucrt:lcidtoname_downlevel.obj
 0002:00006700       ??_C@_1M@LNFOCMOB@?$AAs?$AAe?$AA?9?$AAF?$AAI@ 000000018002b700     libucrt:lcidtoname_downlevel.obj
 0002:00006710       ??_C@_1O@MGJBOAMB@?$AAq?$AAu?$AAz?$AA?9?$AAP?$AAE@ 000000018002b710     libucrt:lcidtoname_downlevel.obj
 0002:00006720       ??_C@_1M@GJINLBOK@?$AAa?$AAr?$AA?9?$AAL?$AAY@ 000000018002b720     libucrt:lcidtoname_downlevel.obj
 0002:00006730       ??_C@_1M@GGMNHJNL@?$AAz?$AAh?$AA?9?$AAS?$AAG@ 000000018002b730     libucrt:lcidtoname_downlevel.obj
 0002:00006740       ??_C@_1M@HOIKODND@?$AAd?$AAe?$AA?9?$AAL?$AAU@ 000000018002b740     libucrt:lcidtoname_downlevel.obj
 0002:00006750       ??_C@_1M@DDOCCGFG@?$AAe?$AAn?$AA?9?$AAC?$AAA@ 000000018002b750     libucrt:lcidtoname_downlevel.obj
 0002:00006760       ??_C@_1M@BNOEMJLF@?$AAe?$AAs?$AA?9?$AAG?$AAT@ 000000018002b760     libucrt:lcidtoname_downlevel.obj
 0002:00006770       ??_C@_1M@EOGNKEK@?$AAf?$AAr?$AA?9?$AAC?$AAH@ 000000018002b770     libucrt:lcidtoname_downlevel.obj
 0002:00006780       ??_C@_1M@FLIDJFHL@?$AAh?$AAr?$AA?9?$AAB?$AAA@ 000000018002b780     libucrt:lcidtoname_downlevel.obj
 0002:00006790       ??_C@_1O@FMCELNAJ@?$AAs?$AAm?$AAj?$AA?9?$AAN?$AAO@ 000000018002b790     libucrt:lcidtoname_downlevel.obj
 0002:000067a0       ??_C@_1M@JHGLJMGJ@?$AAa?$AAr?$AA?9?$AAD?$AAZ@ 000000018002b7a0     libucrt:lcidtoname_downlevel.obj
 0002:000067b0       ??_C@_1M@JKKFDCNP@?$AAz?$AAh?$AA?9?$AAM?$AAO@ 000000018002b7b0     libucrt:lcidtoname_downlevel.obj
 0002:000067c0       ??_C@_1M@GEEFALPE@?$AAd?$AAe?$AA?9?$AAL?$AAI@ 000000018002b7c0     libucrt:lcidtoname_downlevel.obj
 0002:000067d0       ??_C@_1M@IGEOFBG@?$AAe?$AAn?$AA?9?$AAN?$AAZ@ 000000018002b7d0     libucrt:lcidtoname_downlevel.obj
 0002:000067e0       ??_C@_1M@KDBONEHP@?$AAe?$AAs?$AA?9?$AAC?$AAR@ 000000018002b7e0     libucrt:lcidtoname_downlevel.obj
 0002:000067f0       ??_C@_1M@FHMDOHNN@?$AAf?$AAr?$AA?9?$AAL?$AAU@ 000000018002b7f0     libucrt:lcidtoname_downlevel.obj
 0002:00006800       ??_C@_1BG@NFKKMAFG@?$AAb?$AAs?$AA?9?$AAB?$AAA?$AA?9?$AAL?$AAa?$AAt?$AAn@ 000000018002b800     libucrt:lcidtoname_downlevel.obj
 0002:00006818       ??_C@_1O@IMNBEMCI@?$AAs?$AAm?$AAj?$AA?9?$AAS?$AAE@ 000000018002b818     libucrt:lcidtoname_downlevel.obj
 0002:00006828       ??_C@_1M@DHHMBNDP@?$AAa?$AAr?$AA?9?$AAM?$AAA@ 000000018002b828     libucrt:lcidtoname_downlevel.obj
 0002:00006838       ??_C@_1M@BNBLJCGH@?$AAe?$AAn?$AA?9?$AAI?$AAE@ 000000018002b838     libucrt:lcidtoname_downlevel.obj
 0002:00006848       ??_C@_1M@GEPAFMDL@?$AAe?$AAs?$AA?9?$AAP?$AAA@ 000000018002b848     libucrt:lcidtoname_downlevel.obj
 0002:00006858       ??_C@_1M@OJONDMDL@?$AAf?$AAr?$AA?9?$AAM?$AAC@ 000000018002b858     libucrt:lcidtoname_downlevel.obj
 0002:00006868       ??_C@_1BG@OBCNFJB@?$AAs?$AAr?$AA?9?$AAB?$AAA?$AA?9?$AAL?$AAa?$AAt?$AAn@ 000000018002b868     libucrt:lcidtoname_downlevel.obj
 0002:00006880       ??_C@_1O@KEMEEGPO@?$AAs?$AAm?$AAa?$AA?9?$AAN?$AAO@ 000000018002b880     libucrt:lcidtoname_downlevel.obj
 0002:00006890       ??_C@_1M@ELMGFODK@?$AAa?$AAr?$AA?9?$AAT?$AAN@ 000000018002b890     libucrt:lcidtoname_downlevel.obj
 0002:000068a0       ??_C@_1M@BHDLHFAF@?$AAe?$AAn?$AA?9?$AAZ?$AAA@ 000000018002b8a0     libucrt:lcidtoname_downlevel.obj
 0002:000068b0       ??_C@_1M@BMGIGLIF@?$AAe?$AAs?$AA?9?$AAD?$AAO@ 000000018002b8b0     libucrt:lcidtoname_downlevel.obj
 0002:000068c0       ??_C@_1BG@CMBHIPBE@?$AAs?$AAr?$AA?9?$AAB?$AAA?$AA?9?$AAC?$AAy?$AAr?$AAl@ 000000018002b8c0     libucrt:lcidtoname_downlevel.obj
 0002:000068d8       ??_C@_1O@HEDBLHNP@?$AAs?$AAm?$AAa?$AA?9?$AAS?$AAE@ 000000018002b8d8     libucrt:lcidtoname_downlevel.obj
 0002:000068e8       ??_C@_1M@DAGCADIM@?$AAa?$AAr?$AA?9?$AAO?$AAM@ 000000018002b8e8     libucrt:lcidtoname_downlevel.obj
 0002:000068f8       ??_C@_1M@FODLMICG@?$AAe?$AAn?$AA?9?$AAJ?$AAM@ 000000018002b8f8     libucrt:lcidtoname_downlevel.obj
 0002:00006908       ??_C@_1M@DNMLCIHB@?$AAe?$AAs?$AA?9?$AAV?$AAE@ 000000018002b908     libucrt:lcidtoname_downlevel.obj
 0002:00006918       ??_C@_1O@EOKHMKJK@?$AAs?$AAm?$AAs?$AA?9?$AAF?$AAI@ 000000018002b918     libucrt:lcidtoname_downlevel.obj
 0002:00006928       ??_C@_1M@CAFJMKOF@?$AAa?$AAr?$AA?9?$AAY?$AAE@ 000000018002b928     libucrt:lcidtoname_downlevel.obj
 0002:00006938       ??_C@_1M@CBFHIJLI@?$AAe?$AAn?$AA?9?$AAC?$AAB@ 000000018002b938     libucrt:lcidtoname_downlevel.obj
 0002:00006948       ??_C@_1M@BGNFLDN@?$AAe?$AAs?$AA?9?$AAC?$AAO@ 000000018002b948     libucrt:lcidtoname_downlevel.obj
 0002:00006958       ??_C@_1O@JMPHMAMC@?$AAs?$AAm?$AAn?$AA?9?$AAF?$AAI@ 000000018002b958     libucrt:lcidtoname_downlevel.obj
 0002:00006968       ??_C@_1M@JLANABKE@?$AAa?$AAr?$AA?9?$AAS?$AAY@ 000000018002b968     libucrt:lcidtoname_downlevel.obj
 0002:00006978       ??_C@_1M@HPKGCFGN@?$AAe?$AAn?$AA?9?$AAB?$AAZ@ 000000018002b978     libucrt:lcidtoname_downlevel.obj
 0002:00006988       ??_C@_1M@OLJCMLGM@?$AAe?$AAs?$AA?9?$AAP?$AAE@ 000000018002b988     libucrt:lcidtoname_downlevel.obj
 0002:00006998       ??_C@_1M@MKKGFKLE@?$AAa?$AAr?$AA?9?$AAJ?$AAO@ 000000018002b998     libucrt:lcidtoname_downlevel.obj
 0002:000069a8       ??_C@_1M@EKPGLDNI@?$AAe?$AAn?$AA?9?$AAT?$AAT@ 000000018002b9a8     libucrt:lcidtoname_downlevel.obj
 0002:000069b8       ??_C@_1M@OONGHFHE@?$AAe?$AAs?$AA?9?$AAA?$AAR@ 000000018002b9b8     libucrt:lcidtoname_downlevel.obj
 0002:000069c8       ??_C@_1M@OOJFGBHE@?$AAa?$AAr?$AA?9?$AAL?$AAB@ 000000018002b9c8     libucrt:lcidtoname_downlevel.obj
 0002:000069d8       ??_C@_1M@GCEJHNEG@?$AAe?$AAn?$AA?9?$AAZ?$AAW@ 000000018002b9d8     libucrt:lcidtoname_downlevel.obj
 0002:000069e8       ??_C@_1M@JNOCAHJI@?$AAe?$AAs?$AA?9?$AAE?$AAC@ 000000018002b9e8     libucrt:lcidtoname_downlevel.obj
 0002:000069f8       ??_C@_1M@JEFHPGGB@?$AAa?$AAr?$AA?9?$AAK?$AAW@ 000000018002b9f8     libucrt:lcidtoname_downlevel.obj
 0002:00006a08       ??_C@_1M@MLKIBJOJ@?$AAe?$AAn?$AA?9?$AAP?$AAH@ 000000018002ba08     libucrt:lcidtoname_downlevel.obj
 0002:00006a18       ??_C@_1M@BDNIPEND@?$AAe?$AAs?$AA?9?$AAC?$AAL@ 000000018002ba18     libucrt:lcidtoname_downlevel.obj
 0002:00006a28       ??_C@_1M@MPNMEKBD@?$AAa?$AAr?$AA?9?$AAA?$AAE@ 000000018002ba28     libucrt:lcidtoname_downlevel.obj
 0002:00006a38       ??_C@_1M@KBJALCPI@?$AAe?$AAs?$AA?9?$AAU?$AAY@ 000000018002ba38     libucrt:lcidtoname_downlevel.obj
 0002:00006a48       ??_C@_1M@LLCCOAGA@?$AAa?$AAr?$AA?9?$AAB?$AAH@ 000000018002ba48     libucrt:lcidtoname_downlevel.obj
 0002:00006a58       ??_C@_1M@PBFNCDEL@?$AAe?$AAs?$AA?9?$AAP?$AAY@ 000000018002ba58     libucrt:lcidtoname_downlevel.obj
 0002:00006a68       ??_C@_1M@EDGINPNP@?$AAa?$AAr?$AA?9?$AAQ?$AAA@ 000000018002ba68     libucrt:lcidtoname_downlevel.obj
 0002:00006a78       ??_C@_1M@MKDBIIJI@?$AAe?$AAs?$AA?9?$AAB?$AAO@ 000000018002ba78     libucrt:lcidtoname_downlevel.obj
 0002:00006a88       ??_C@_1M@CPKKEBLD@?$AAe?$AAs?$AA?9?$AAS?$AAV@ 000000018002ba88     libucrt:lcidtoname_downlevel.obj
 0002:00006a98       ??_C@_1M@NDBGMMJL@?$AAe?$AAs?$AA?9?$AAH?$AAN@ 000000018002ba98     libucrt:lcidtoname_downlevel.obj
 0002:00006aa8       ??_C@_1M@JIJIBHDP@?$AAe?$AAs?$AA?9?$AAN?$AAI@ 000000018002baa8     libucrt:lcidtoname_downlevel.obj
 0002:00006ab8       ??_C@_1M@CGFMKEEK@?$AAe?$AAs?$AA?9?$AAP?$AAR@ 000000018002bab8     libucrt:lcidtoname_downlevel.obj
 0002:00006ac8       ??_C@_1O@ICJHKIIK@?$AAz?$AAh?$AA?9?$AAC?$AAH?$AAT@ 000000018002bac8     libucrt:lcidtoname_downlevel.obj
 0002:00006ad8       ??_C@_15CLNEJCE@?$AAs?$AAr@ 000000018002bad8     libucrt:lcidtoname_downlevel.obj
 0002:00007920       ??_C@_1M@KAHEKEIG@?$AAa?$AAf?$AA?9?$AAz?$AAa@ 000000018002c920     libucrt:lcidtoname_downlevel.obj
 0002:00007930       ??_C@_1M@GIECOABL@?$AAa?$AAr?$AA?9?$AAa?$AAe@ 000000018002c930     libucrt:lcidtoname_downlevel.obj
 0002:00007940       ??_C@_1M@BMLMEKGI@?$AAa?$AAr?$AA?9?$AAb?$AAh@ 000000018002c940     libucrt:lcidtoname_downlevel.obj
 0002:00007950       ??_C@_1M@DAPFDGGB@?$AAa?$AAr?$AA?9?$AAd?$AAz@ 000000018002c950     libucrt:lcidtoname_downlevel.obj
 0002:00007960       ??_C@_1M@FJNKGKIG@?$AAa?$AAr?$AA?9?$AAe?$AAg@ 000000018002c960     libucrt:lcidtoname_downlevel.obj
 0002:00007970       ??_C@_1M@FLGKKCLO@?$AAa?$AAr?$AA?9?$AAi?$AAq@ 000000018002c970     libucrt:lcidtoname_downlevel.obj
 0002:00007980       ??_C@_1M@GNDIPALM@?$AAa?$AAr?$AA?9?$AAj?$AAo@ 000000018002c980     libucrt:lcidtoname_downlevel.obj
 0002:00007990       ??_C@_1M@DDMJFMGJ@?$AAa?$AAr?$AA?9?$AAk?$AAw@ 000000018002c990     libucrt:lcidtoname_downlevel.obj
 0002:000079a0       ??_C@_1M@EJALMLHM@?$AAa?$AAr?$AA?9?$AAl?$AAb@ 000000018002c9a0     libucrt:lcidtoname_downlevel.obj
 0002:000079b0       ??_C@_1M@MOBDBLOC@?$AAa?$AAr?$AA?9?$AAl?$AAy@ 000000018002c9b0     libucrt:lcidtoname_downlevel.obj
 0002:000079c0       ??_C@_1M@JAOCLHDH@?$AAa?$AAr?$AA?9?$AAm?$AAa@ 000000018002c9c0     libucrt:lcidtoname_downlevel.obj
 0002:000079d0       ??_C@_1M@JHPMKJIE@?$AAa?$AAr?$AA?9?$AAo?$AAm@ 000000018002c9d0     libucrt:lcidtoname_downlevel.obj
 0002:000079e0       ??_C@_1M@OEPGHFNH@?$AAa?$AAr?$AA?9?$AAq?$AAa@ 000000018002c9e0     libucrt:lcidtoname_downlevel.obj
 0002:000079f0       ??_C@_1M@KJDONENM@?$AAa?$AAr?$AA?9?$AAs?$AAa@ 000000018002c9f0     libucrt:lcidtoname_downlevel.obj
 0002:00007a00       ??_C@_1M@DMJDKLKM@?$AAa?$AAr?$AA?9?$AAs?$AAy@ 000000018002ca00     libucrt:lcidtoname_downlevel.obj
 0002:00007a10       ??_C@_1M@OMFIPEDC@?$AAa?$AAr?$AA?9?$AAt?$AAn@ 000000018002ca10     libucrt:lcidtoname_downlevel.obj
 0002:00007a20       ??_C@_1M@IHMHGAON@?$AAa?$AAr?$AA?9?$AAy?$AAe@ 000000018002ca20     libucrt:lcidtoname_downlevel.obj
 0002:00007a30       ??_C@_1BG@KDCPGJGB@?$AAa?$AAz?$AA?9?$AAa?$AAz?$AA?9?$AAc?$AAy?$AAr?$AAl@ 000000018002ca30     libucrt:lcidtoname_downlevel.obj
 0002:00007a48       ??_C@_1BG@IBCKDDOE@?$AAa?$AAz?$AA?9?$AAa?$AAz?$AA?9?$AAl?$AAa?$AAt?$AAn@ 000000018002ca48     libucrt:lcidtoname_downlevel.obj
 0002:00007a60       ??_C@_1M@EGPFDCPD@?$AAb?$AAe?$AA?9?$AAb?$AAy@ 000000018002ca60     libucrt:lcidtoname_downlevel.obj
 0002:00007a70       ??_C@_1M@PCMGMCGC@?$AAb?$AAg?$AA?9?$AAb?$AAg@ 000000018002ca70     libucrt:lcidtoname_downlevel.obj
 0002:00007a80       ??_C@_1M@BJBMFGOB@?$AAb?$AAn?$AA?9?$AAi?$AAn@ 000000018002ca80     libucrt:lcidtoname_downlevel.obj
 0002:00007a90       ??_C@_1BG@EAKMMACD@?$AAb?$AAs?$AA?9?$AAb?$AAa?$AA?9?$AAl?$AAa?$AAt?$AAn@ 000000018002ca90     libucrt:lcidtoname_downlevel.obj
 0002:00007aa8       ??_C@_1M@KGADAODK@?$AAc?$AAa?$AA?9?$AAe?$AAs@ 000000018002caa8     libucrt:lcidtoname_downlevel.obj
 0002:00007ab8       ??_C@_1M@COAJPDHI@?$AAc?$AAs?$AA?9?$AAc?$AAz@ 000000018002cab8     libucrt:lcidtoname_downlevel.obj
 0002:00007ac8       ??_C@_1M@DHBHFONH@?$AAc?$AAy?$AA?9?$AAg?$AAb@ 000000018002cac8     libucrt:lcidtoname_downlevel.obj
 0002:00007ad8       ??_C@_1M@IMGKELGA@?$AAd?$AAa?$AA?9?$AAd?$AAk@ 000000018002cad8     libucrt:lcidtoname_downlevel.obj
 0002:00007ae8       ??_C@_1M@NNDGDNGA@?$AAd?$AAe?$AA?9?$AAa?$AAt@ 000000018002cae8     libucrt:lcidtoname_downlevel.obj
 0002:00007af8       ??_C@_1M@IKDBHEEM@?$AAd?$AAe?$AA?9?$AAc?$AAh@ 000000018002caf8     libucrt:lcidtoname_downlevel.obj
 0002:00007b08       ??_C@_1M@GFFOJMCJ@?$AAd?$AAe?$AA?9?$AAd?$AAe@ 000000018002cb08     libucrt:lcidtoname_downlevel.obj
 0002:00007b18       ??_C@_1M@MDNLKBPM@?$AAd?$AAe?$AA?9?$AAl?$AAi@ 000000018002cb18     libucrt:lcidtoname_downlevel.obj
 0002:00007b28       ??_C@_1M@NJBEEJNL@?$AAd?$AAe?$AA?9?$AAl?$AAu@ 000000018002cb28     libucrt:lcidtoname_downlevel.obj
 0002:00007b38       ??_C@_1O@GNNELBAP@?$AAd?$AAi?$AAv?$AA?9?$AAm?$AAv@ 000000018002cb38     libucrt:lcidtoname_downlevel.obj
 0002:00007b48       ??_C@_1M@EJLEOGAE@?$AAe?$AAl?$AA?9?$AAg?$AAr@ 000000018002cb48     libucrt:lcidtoname_downlevel.obj
 0002:00007b58       ??_C@_1M@GMPONJN@?$AAe?$AAn?$AA?9?$AAa?$AAu@ 000000018002cb58     libucrt:lcidtoname_downlevel.obj
 0002:00007b68       ??_C@_1M@NIDIIPGF@?$AAe?$AAn?$AA?9?$AAb?$AAz@ 000000018002cb68     libucrt:lcidtoname_downlevel.obj
 0002:00007b78       ??_C@_1M@JEHMIMFO@?$AAe?$AAn?$AA?9?$AAc?$AAa@ 000000018002cb78     libucrt:lcidtoname_downlevel.obj
 0002:00007b88       ??_C@_1M@IGMJCDLA@?$AAe?$AAn?$AA?9?$AAc?$AAb@ 000000018002cb88     libucrt:lcidtoname_downlevel.obj
 0002:00007b98       ??_C@_1M@BNFIGBKG@?$AAe?$AAn?$AA?9?$AAg?$AAb@ 000000018002cb98     libucrt:lcidtoname_downlevel.obj
 0002:00007ba8       ??_C@_1M@LKIFDIGP@?$AAe?$AAn?$AA?9?$AAi?$AAe@ 000000018002cba8     libucrt:lcidtoname_downlevel.obj
 0002:00007bb8       ??_C@_1M@PJKFGCCO@?$AAe?$AAn?$AA?9?$AAj?$AAm@ 000000018002cbb8     libucrt:lcidtoname_downlevel.obj
 0002:00007bc8       ??_C@_1M@KPPKEPBO@?$AAe?$AAn?$AA?9?$AAn?$AAz@ 000000018002cbc8     libucrt:lcidtoname_downlevel.obj
 0002:00007bd8       ??_C@_1M@GMDGLDOB@?$AAe?$AAn?$AA?9?$AAp?$AAh@ 000000018002cbd8     libucrt:lcidtoname_downlevel.obj
 0002:00007be8       ??_C@_1M@ONGIBJNA@?$AAe?$AAn?$AA?9?$AAt?$AAt@ 000000018002cbe8     libucrt:lcidtoname_downlevel.obj
 0002:00007bf8       ??_C@_1M@LLODPCMM@?$AAe?$AAn?$AA?9?$AAu?$AAs@ 000000018002cbf8     libucrt:lcidtoname_downlevel.obj
 0002:00007c08       ??_C@_1M@LAKFNPAN@?$AAe?$AAn?$AA?9?$AAz?$AAa@ 000000018002cc08     libucrt:lcidtoname_downlevel.obj
 0002:00007c18       ??_C@_1M@MFNHNHEO@?$AAe?$AAn?$AA?9?$AAz?$AAw@ 000000018002cc18     libucrt:lcidtoname_downlevel.obj
 0002:00007c28       ??_C@_1M@EJEINPHM@?$AAe?$AAs?$AA?9?$AAa?$AAr@ 000000018002cc28     libucrt:lcidtoname_downlevel.obj
 0002:00007c38       ??_C@_1M@GNKPCCJA@?$AAe?$AAs?$AA?9?$AAb?$AAo@ 000000018002cc38     libucrt:lcidtoname_downlevel.obj
 0002:00007c48       ??_C@_1M@LEEGFONL@?$AAe?$AAs?$AA?9?$AAc?$AAl@ 000000018002cc48     libucrt:lcidtoname_downlevel.obj
 0002:00007c58       ??_C@_1M@KGPDPBDF@?$AAe?$AAs?$AA?9?$AAc?$AAo@ 000000018002cc58     libucrt:lcidtoname_downlevel.obj
 0002:00007c68       ??_C@_1M@EIAHOHH@?$AAe?$AAs?$AA?9?$AAc?$AAr@ 000000018002cc68     libucrt:lcidtoname_downlevel.obj
 0002:00007c78       ??_C@_1M@LLPGMBIN@?$AAe?$AAs?$AA?9?$AAd?$AAo@ 000000018002cc78     libucrt:lcidtoname_downlevel.obj
 0002:00007c88       ??_C@_1M@DKHMKNJA@?$AAe?$AAs?$AA?9?$AAe?$AAc@ 000000018002cc88     libucrt:lcidtoname_downlevel.obj
 0002:00007c98       ??_C@_1M@GKGFPKAP@?$AAe?$AAs?$AA?9?$AAe?$AAs@ 000000018002cc98     libucrt:lcidtoname_downlevel.obj
 0002:00007ca8       ??_C@_1M@LKHKGDLN@?$AAe?$AAs?$AA?9?$AAg?$AAt@ 000000018002cca8     libucrt:lcidtoname_downlevel.obj
 0002:00007cb8       ??_C@_1M@HEIIGGJD@?$AAe?$AAs?$AA?9?$AAh?$AAn@ 000000018002ccb8     libucrt:lcidtoname_downlevel.obj
 0002:00007cc8       ??_C@_1M@FBDHPPGD@?$AAe?$AAs?$AA?9?$AAm?$AAx@ 000000018002ccc8     libucrt:lcidtoname_downlevel.obj
 0002:00007cd8       ??_C@_1M@DPAGLNDH@?$AAe?$AAs?$AA?9?$AAn?$AAi@ 000000018002ccd8     libucrt:lcidtoname_downlevel.obj
 0002:00007ce8       ??_C@_1M@MDGOPGDD@?$AAe?$AAs?$AA?9?$AAp?$AAa@ 000000018002cce8     libucrt:lcidtoname_downlevel.obj
 0002:00007cf8       ??_C@_1M@EMAMGBGE@?$AAe?$AAs?$AA?9?$AAp?$AAe@ 000000018002ccf8     libucrt:lcidtoname_downlevel.obj
 0002:00007d08       ??_C@_1M@IBMCAOEC@?$AAe?$AAs?$AA?9?$AAp?$AAr@ 000000018002cd08     libucrt:lcidtoname_downlevel.obj
 0002:00007d18       ??_C@_1M@FGMDIJED@?$AAe?$AAs?$AA?9?$AAp?$AAy@ 000000018002cd18     libucrt:lcidtoname_downlevel.obj
 0002:00007d28       ??_C@_1M@IIDEOLLL@?$AAe?$AAs?$AA?9?$AAs?$AAv@ 000000018002cd28     libucrt:lcidtoname_downlevel.obj
 0002:00007d38       ??_C@_1M@GAOBIPA@?$AAe?$AAs?$AA?9?$AAu?$AAy@ 000000018002cd38     libucrt:lcidtoname_downlevel.obj
 0002:00007d48       ??_C@_1M@JKFFICHJ@?$AAe?$AAs?$AA?9?$AAv?$AAe@ 000000018002cd48     libucrt:lcidtoname_downlevel.obj
 0002:00007d58       ??_C@_1M@PNMLOJDF@?$AAe?$AAt?$AA?9?$AAe?$AAe@ 000000018002cd58     libucrt:lcidtoname_downlevel.obj
 0002:00007d68       ??_C@_1M@GHHLIKEI@?$AAe?$AAu?$AA?9?$AAe?$AAs@ 000000018002cd68     libucrt:lcidtoname_downlevel.obj
 0002:00007d78       ??_C@_1M@PBNONODE@?$AAf?$AAa?$AA?9?$AAi?$AAr@ 000000018002cd78     libucrt:lcidtoname_downlevel.obj
 0002:00007d88       ??_C@_1M@JEEHPMIL@?$AAf?$AAi?$AA?9?$AAf?$AAi@ 000000018002cd88     libucrt:lcidtoname_downlevel.obj
 0002:00007d98       ??_C@_1M@LMDCNDBA@?$AAf?$AAo?$AA?9?$AAf?$AAo@ 000000018002cd98     libucrt:lcidtoname_downlevel.obj
 0002:00007da8       ??_C@_1M@JKEOHLDK@?$AAf?$AAr?$AA?9?$AAb?$AAe@ 000000018002cda8     libucrt:lcidtoname_downlevel.obj
 0002:00007db8       ??_C@_1M@NOHADPMI@?$AAf?$AAr?$AA?9?$AAc?$AAa@ 000000018002cdb8     libucrt:lcidtoname_downlevel.obj
 0002:00007dc8       ??_C@_1M@KDHIHAEC@?$AAf?$AAr?$AA?9?$AAc?$AAh@ 000000018002cdc8     libucrt:lcidtoname_downlevel.obj
 0002:00007dd8       ??_C@_1M@MMBBFGAK@?$AAf?$AAr?$AA?9?$AAf?$AAr@ 000000018002cdd8     libucrt:lcidtoname_downlevel.obj
 0002:00007de8       ??_C@_1M@PAFNENNF@?$AAf?$AAr?$AA?9?$AAl?$AAu@ 000000018002cde8     libucrt:lcidtoname_downlevel.obj
 0002:00007df8       ??_C@_1M@EOHDJGDD@?$AAf?$AAr?$AA?9?$AAm?$AAc@ 000000018002cdf8     libucrt:lcidtoname_downlevel.obj
 0002:00007e08       ??_C@_1M@FAPLLOPF@?$AAg?$AAl?$AA?9?$AAe?$AAs@ 000000018002ce08     libucrt:lcidtoname_downlevel.obj
 0002:00007e18       ??_C@_1M@FOPBFLOO@?$AAg?$AAu?$AA?9?$AAi?$AAn@ 000000018002ce18     libucrt:lcidtoname_downlevel.obj
 0002:00007e28       ??_C@_1M@KBMCINPM@?$AAh?$AAe?$AA?9?$AAi?$AAl@ 000000018002ce28     libucrt:lcidtoname_downlevel.obj
 0002:00007e38       ??_C@_1M@BBPHKFPJ@?$AAh?$AAi?$AA?9?$AAi?$AAn@ 000000018002ce38     libucrt:lcidtoname_downlevel.obj
 0002:00007e48       ??_C@_1M@PMBNDPHD@?$AAh?$AAr?$AA?9?$AAb?$AAa@ 000000018002ce48     libucrt:lcidtoname_downlevel.obj
 0002:00007e58       ??_C@_1M@BPCKOEGE@?$AAh?$AAr?$AA?9?$AAh?$AAr@ 000000018002ce58     libucrt:lcidtoname_downlevel.obj
 0002:00007e68       ??_C@_1M@GACBMHKE@?$AAh?$AAu?$AA?9?$AAh?$AAu@ 000000018002ce68     libucrt:lcidtoname_downlevel.obj
 0002:00007e78       ??_C@_1M@MILPAJJC@?$AAh?$AAy?$AA?9?$AAa?$AAm@ 000000018002ce78     libucrt:lcidtoname_downlevel.obj
 0002:00007e88       ??_C@_1M@BABBICEC@?$AAi?$AAd?$AA?9?$AAi?$AAd@ 000000018002ce88     libucrt:lcidtoname_downlevel.obj
 0002:00007e98       ??_C@_1M@BIKNHHPF@?$AAi?$AAs?$AA?9?$AAi?$AAs@ 000000018002ce98     libucrt:lcidtoname_downlevel.obj
 0002:00007ea8       ??_C@_1M@NMPCJPHE@?$AAi?$AAt?$AA?9?$AAc?$AAh@ 000000018002cea8     libucrt:lcidtoname_downlevel.obj
 0002:00007eb8       ??_C@_1M@GHKGFEDF@?$AAi?$AAt?$AA?9?$AAi?$AAt@ 000000018002ceb8     libucrt:lcidtoname_downlevel.obj
 0002:00007ec8       ??_C@_1M@NIEJCJJA@?$AAj?$AAa?$AA?9?$AAj?$AAp@ 000000018002cec8     libucrt:lcidtoname_downlevel.obj
 0002:00007ed8       ??_C@_1M@JILFNBIM@?$AAk?$AAa?$AA?9?$AAg?$AAe@ 000000018002ced8     libucrt:lcidtoname_downlevel.obj
 0002:00007ee8       ??_C@_1M@PACPMGPH@?$AAk?$AAk?$AA?9?$AAk?$AAz@ 000000018002cee8     libucrt:lcidtoname_downlevel.obj
 0002:00007ef8       ??_C@_1M@IELFGMHA@?$AAk?$AAn?$AA?9?$AAi?$AAn@ 000000018002cef8     libucrt:lcidtoname_downlevel.obj
 0002:00007f08       ??_C@_1O@IBBJHCH@?$AAk?$AAo?$AAk?$AA?9?$AAi?$AAn@ 000000018002cf08     libucrt:lcidtoname_downlevel.obj
 0002:00007f18       ??_C@_1M@DMHAEOGC@?$AAk?$AAo?$AA?9?$AAk?$AAr@ 000000018002cf18     libucrt:lcidtoname_downlevel.obj
 0002:00007f28       ??_C@_1M@HBAHBIGA@?$AAk?$AAy?$AA?9?$AAk?$AAg@ 000000018002cf28     libucrt:lcidtoname_downlevel.obj
 0002:00007f38       ??_C@_1M@KPMILCJG@?$AAl?$AAt?$AA?9?$AAl?$AAt@ 000000018002cf38     libucrt:lcidtoname_downlevel.obj
 0002:00007f48       ??_C@_1M@BDEKKCA@?$AAl?$AAv?$AA?9?$AAl?$AAv@ 000000018002cf48     libucrt:lcidtoname_downlevel.obj
 0002:00007f58       ??_C@_1M@ELCKCCJJ@?$AAm?$AAi?$AA?9?$AAn?$AAz@ 000000018002cf58     libucrt:lcidtoname_downlevel.obj
 0002:00007f68       ??_C@_1M@CBOOLAPA@?$AAm?$AAk?$AA?9?$AAm?$AAk@ 000000018002cf68     libucrt:lcidtoname_downlevel.obj
 0002:00007f78       ??_C@_1M@GPHNBJKN@?$AAm?$AAl?$AA?9?$AAi?$AAn@ 000000018002cf78     libucrt:lcidtoname_downlevel.obj
 0002:00007f88       ??_C@_1M@PABJILIG@?$AAm?$AAn?$AA?9?$AAm?$AAn@ 000000018002cf88     libucrt:lcidtoname_downlevel.obj
 0002:00007f98       ??_C@_1M@FGBKKIPG@?$AAm?$AAr?$AA?9?$AAi?$AAn@ 000000018002cf98     libucrt:lcidtoname_downlevel.obj
 0002:00007fa8       ??_C@_1M@NDBPDDAL@?$AAm?$AAs?$AA?9?$AAb?$AAn@ 000000018002cfa8     libucrt:lcidtoname_downlevel.obj
 0002:00007fb8       ??_C@_1M@OPIHOOPI@?$AAm?$AAs?$AA?9?$AAm?$AAy@ 000000018002cfb8     libucrt:lcidtoname_downlevel.obj
 0002:00007fc8       ??_C@_1M@PPDBCNFM@?$AAm?$AAt?$AA?9?$AAm?$AAt@ 000000018002cfc8     libucrt:lcidtoname_downlevel.obj
 0002:00007fd8       ??_C@_1M@KDJDKMDD@?$AAn?$AAb?$AA?9?$AAn?$AAo@ 000000018002cfd8     libucrt:lcidtoname_downlevel.obj
 0002:00007fe8       ??_C@_1M@KFCFLMJP@?$AAn?$AAl?$AA?9?$AAb?$AAe@ 000000018002cfe8     libucrt:lcidtoname_downlevel.obj
 0002:00007ff8       ??_C@_1M@KPOPDDGO@?$AAn?$AAl?$AA?9?$AAn?$AAl@ 000000018002cff8     libucrt:lcidtoname_downlevel.obj
 0002:00008008       ??_C@_1M@LJKPEMLN@?$AAn?$AAn?$AA?9?$AAn?$AAo@ 000000018002d008     libucrt:lcidtoname_downlevel.obj
 0002:00008018       ??_C@_1M@BDGHHBFL@?$AAn?$AAs?$AA?9?$AAz?$AAa@ 000000018002d018     libucrt:lcidtoname_downlevel.obj
 0002:00008028       ??_C@_1M@IDEHOAP@?$AAp?$AAa?$AA?9?$AAi?$AAn@ 000000018002d028     libucrt:lcidtoname_downlevel.obj
 0002:00008038       ??_C@_1M@HDBKGOGH@?$AAp?$AAl?$AA?9?$AAp?$AAl@ 000000018002d038     libucrt:lcidtoname_downlevel.obj
 0002:00008048       ??_C@_1M@LJLLCMEH@?$AAp?$AAt?$AA?9?$AAb?$AAr@ 000000018002d048     libucrt:lcidtoname_downlevel.obj
 0002:00008058       ??_C@_1M@NCMONAAL@?$AAp?$AAt?$AA?9?$AAp?$AAt@ 000000018002d058     libucrt:lcidtoname_downlevel.obj
 0002:00008068       ??_C@_1O@EAKMAJDN@?$AAq?$AAu?$AAz?$AA?9?$AAb?$AAo@ 000000018002d068     libucrt:lcidtoname_downlevel.obj
 0002:00008078       ??_C@_1O@BHHPIGDN@?$AAq?$AAu?$AAz?$AA?9?$AAe?$AAc@ 000000018002d078     libucrt:lcidtoname_downlevel.obj
 0002:00008088       ??_C@_1O@GBAPEKMJ@?$AAq?$AAu?$AAz?$AA?9?$AAp?$AAe@ 000000018002d088     libucrt:lcidtoname_downlevel.obj
 0002:00008098       ??_C@_1M@CLGLEFBO@?$AAr?$AAo?$AA?9?$AAr?$AAo@ 000000018002d098     libucrt:lcidtoname_downlevel.obj
 0002:000080a8       ??_C@_1M@CEEDODME@?$AAr?$AAu?$AA?9?$AAr?$AAu@ 000000018002d0a8     libucrt:lcidtoname_downlevel.obj
 0002:000080b8       ??_C@_1M@HPKKKMPP@?$AAs?$AAa?$AA?9?$AAi?$AAn@ 000000018002d0b8     libucrt:lcidtoname_downlevel.obj
 0002:000080c8       ??_C@_1M@BKMAIGOJ@?$AAs?$AAe?$AA?9?$AAf?$AAi@ 000000018002d0c8     libucrt:lcidtoname_downlevel.obj
 0002:000080d8       ??_C@_1M@NDPIFLFI@?$AAs?$AAe?$AA?9?$AAn?$AAo@ 000000018002d0d8     libucrt:lcidtoname_downlevel.obj
 0002:000080e8       ??_C@_1M@DANKKHJ@?$AAs?$AAe?$AA?9?$AAs?$AAe@ 000000018002d0e8     libucrt:lcidtoname_downlevel.obj
 0002:000080f8       ??_C@_1M@PNBLONPJ@?$AAs?$AAk?$AA?9?$AAs?$AAk@ 000000018002d0f8     libucrt:lcidtoname_downlevel.obj
 0002:00008108       ??_C@_1M@LFMODOAL@?$AAs?$AAl?$AA?9?$AAs?$AAi@ 000000018002d108     libucrt:lcidtoname_downlevel.obj
 0002:00008118       ??_C@_1O@DFKOMPG@?$AAs?$AAm?$AAa?$AA?9?$AAn?$AAo@ 000000018002d118     libucrt:lcidtoname_downlevel.obj
 0002:00008128       ??_C@_1O@NDKPBNNH@?$AAs?$AAm?$AAa?$AA?9?$AAs?$AAe@ 000000018002d128     libucrt:lcidtoname_downlevel.obj
 0002:00008138       ??_C@_1O@PLLKBHAB@?$AAs?$AAm?$AAj?$AA?9?$AAn?$AAo@ 000000018002d138     libucrt:lcidtoname_downlevel.obj
 0002:00008148       ??_C@_1O@CLEPOGCA@?$AAs?$AAm?$AAj?$AA?9?$AAs?$AAe@ 000000018002d148     libucrt:lcidtoname_downlevel.obj
 0002:00008158       ??_C@_1O@DLGJGKMK@?$AAs?$AAm?$AAn?$AA?9?$AAf?$AAi@ 000000018002d158     libucrt:lcidtoname_downlevel.obj
 0002:00008168       ??_C@_1O@OJDJGAJC@?$AAs?$AAm?$AAs?$AA?9?$AAf?$AAi@ 000000018002d168     libucrt:lcidtoname_downlevel.obj
 0002:00008178       ??_C@_1M@BOFOGHPB@?$AAs?$AAq?$AA?9?$AAa?$AAl@ 000000018002d178     libucrt:lcidtoname_downlevel.obj
 0002:00008188       ??_C@_1BG@LJBBIPGB@?$AAs?$AAr?$AA?9?$AAb?$AAa?$AA?9?$AAc?$AAy?$AAr?$AAl@ 000000018002d188     libucrt:lcidtoname_downlevel.obj
 0002:000081a0       ??_C@_1BG@JLBENFOE@?$AAs?$AAr?$AA?9?$AAb?$AAa?$AA?9?$AAl?$AAa?$AAt?$AAn@ 000000018002d1a0     libucrt:lcidtoname_downlevel.obj
 0002:000081b8       ??_C@_1BG@KODPNHE@?$AAs?$AAr?$AA?9?$AAs?$AAp?$AA?9?$AAc?$AAy?$AAr?$AAl@ 000000018002d1b8     libucrt:lcidtoname_downlevel.obj
 0002:000081d0       ??_C@_1BG@CIOGKHPB@?$AAs?$AAr?$AA?9?$AAs?$AAp?$AA?9?$AAl?$AAa?$AAt?$AAn@ 000000018002d1d0     libucrt:lcidtoname_downlevel.obj
 0002:000081e8       ??_C@_1M@NGFJLMAC@?$AAs?$AAv?$AA?9?$AAf?$AAi@ 000000018002d1e8     libucrt:lcidtoname_downlevel.obj
 0002:000081f8       ??_C@_1M@MPJEJAJC@?$AAs?$AAv?$AA?9?$AAs?$AAe@ 000000018002d1f8     libucrt:lcidtoname_downlevel.obj
 0002:00008208       ??_C@_1M@MPNDHLFK@?$AAs?$AAw?$AA?9?$AAk?$AAe@ 000000018002d208     libucrt:lcidtoname_downlevel.obj
 0002:00008218       ??_C@_1O@KOHBJJI@?$AAs?$AAy?$AAr?$AA?9?$AAs?$AAy@ 000000018002d218     libucrt:lcidtoname_downlevel.obj
 0002:00008228       ??_C@_1M@LDCEFHA@?$AAt?$AAa?$AA?9?$AAi?$AAn@ 000000018002d228     libucrt:lcidtoname_downlevel.obj
 0002:00008238       ??_C@_1M@CNJOFAK@?$AAt?$AAe?$AA?9?$AAi?$AAn@ 000000018002d238     libucrt:lcidtoname_downlevel.obj
 0002:00008248       ??_C@_1M@GNAECACD@?$AAt?$AAh?$AA?9?$AAt?$AAh@ 000000018002d248     libucrt:lcidtoname_downlevel.obj
 0002:00008258       ??_C@_1M@CHBIHOJO@?$AAt?$AAn?$AA?9?$AAz?$AAa@ 000000018002d258     libucrt:lcidtoname_downlevel.obj
 0002:00008268       ??_C@_1M@GCCMIGPJ@?$AAt?$AAr?$AA?9?$AAt?$AAr@ 000000018002d268     libucrt:lcidtoname_downlevel.obj
 0002:00008278       ??_C@_1M@CELMCNBK@?$AAt?$AAt?$AA?9?$AAr?$AAu@ 000000018002d278     libucrt:lcidtoname_downlevel.obj
 0002:00008288       ??_C@_1M@KLMCELGA@?$AAu?$AAk?$AA?9?$AAu?$AAa@ 000000018002d288     libucrt:lcidtoname_downlevel.obj
 0002:00008298       ??_C@_1M@EPAJJAJF@?$AAu?$AAr?$AA?9?$AAp?$AAk@ 000000018002d298     libucrt:lcidtoname_downlevel.obj
 0002:000082a8       ??_C@_1BG@GEGPMCDJ@?$AAu?$AAz?$AA?9?$AAu?$AAz?$AA?9?$AAc?$AAy?$AAr?$AAl@ 000000018002d2a8     libucrt:lcidtoname_downlevel.obj
 0002:000082c0       ??_C@_1BG@EGGKJILM@?$AAu?$AAz?$AA?9?$AAu?$AAz?$AA?9?$AAl?$AAa?$AAt?$AAn@ 000000018002d2c0     libucrt:lcidtoname_downlevel.obj
 0002:000082d8       ??_C@_1M@GFOCLFF@?$AAv?$AAi?$AA?9?$AAv?$AAn@ 000000018002d2d8     libucrt:lcidtoname_downlevel.obj
 0002:000082e8       ??_C@_1M@CPAMEDFI@?$AAx?$AAh?$AA?9?$AAz?$AAa@ 000000018002d2e8     libucrt:lcidtoname_downlevel.obj
 0002:000082f8       ??_C@_1O@EBKIFIGN@?$AAz?$AAh?$AA?9?$AAc?$AAh?$AAs@ 000000018002d2f8     libucrt:lcidtoname_downlevel.obj
 0002:00008308       ??_C@_1O@NMHPGANE@?$AAz?$AAh?$AA?9?$AAc?$AAh?$AAt@ 000000018002d308     libucrt:lcidtoname_downlevel.obj
 0002:00008318       ??_C@_1M@LPINJOMC@?$AAz?$AAh?$AA?9?$AAc?$AAn@ 000000018002d318     libucrt:lcidtoname_downlevel.obj
 0002:00008328       ??_C@_1M@OCJEJODD@?$AAz?$AAh?$AA?9?$AAh?$AAk@ 000000018002d328     libucrt:lcidtoname_downlevel.obj
 0002:00008338       ??_C@_1M@DNDLJINH@?$AAz?$AAh?$AA?9?$AAm?$AAo@ 000000018002d338     libucrt:lcidtoname_downlevel.obj
 0002:00008348       ??_C@_1M@MBFDNDND@?$AAz?$AAh?$AA?9?$AAs?$AAg@ 000000018002d348     libucrt:lcidtoname_downlevel.obj
 0002:00008358       ??_C@_1M@IMEPLEPE@?$AAz?$AAh?$AA?9?$AAt?$AAw@ 000000018002d358     libucrt:lcidtoname_downlevel.obj
 0002:00008368       ??_C@_1M@BBGHNHJP@?$AAz?$AAu?$AA?9?$AAz?$AAa@ 000000018002d368     libucrt:lcidtoname_downlevel.obj
 0002:00008380       ?large_power_data@?1??multiply_by_power_of_ten@__crt_strtox@@YA_NAEAUbig_integer@2@I@Z@4QBIB 000000018002d380     libucrt:cfout.obj
 0002:00008c90       ?large_power_indices@?1??multiply_by_power_of_ten@__crt_strtox@@YA_NAEAUbig_integer@2@I@Z@4QBUunpack_index@?1??12@YA_N0I@Z@B 000000018002dc90     libucrt:cfout.obj
 0002:00008d28       ?small_powers_of_ten@?1??multiply_by_power_of_ten@__crt_strtox@@YA_NAEAUbig_integer@2@I@Z@4QBIB 000000018002dd28     libucrt:cfout.obj
 0002:00008d4c       ??_C@_01GBGANLPD@0@        000000018002dd4c     libucrt:cfout.obj
 0002:00008d50       ??_C@_05DNEBIAHO@1?$CDINF@ 000000018002dd50     libucrt:cfout.obj
 0002:00008d58       ??_C@_06IMKFLFPG@1?$CDQNAN@ 000000018002dd58     libucrt:cfout.obj
 0002:00008d60       ??_C@_06PGGFOGJG@1?$CDSNAN@ 000000018002dd60     libucrt:cfout.obj
 0002:00008d68       ??_C@_05PHHOCPM@1?$CDIND@  000000018002dd68     libucrt:cfout.obj
 0002:00008d98       __real@3ff0000000000000    000000018002dd98     libucrt:ceil.obj
 0002:00008ff0       __log10_256_lead           000000018002dff0     libucrt:log10_256_lead_tail_table.obj
 0002:00009800       __log10_256_tail           000000018002e800     libucrt:log10_256_lead_tail_table.obj
 0002:0000a010       __log_F_inv_qword          000000018002f010     libucrt:log_f_inv_qword_table.obj
 0002:0000a820       ??_C@_05HGHHAHAP@log10@    000000018002f820     libucrt:log_special.obj
 0002:0000a828       ??_C@_1BA@BALFACEM@?$AAC?$AAO?$AAN?$AAO?$AAU?$AAT?$AA$@ 000000018002f828     libucrt:initcon.obj
 0002:0000a8b0       _load_config_used          000000018002f8b0     LIBCMT:loadcfg.obj
 0002:0000aa00       _tls_used                  000000018002fa00     LIBCMT:tlssup.obj
 0002:0000aa28       ??_R4exception@std@@6B@    000000018002fa28     LIBCMT:throw_bad_alloc.obj
 0002:0000aa50       ??_R3exception@std@@8      000000018002fa50     LIBCMT:throw_bad_alloc.obj
 0002:0000aa68       ??_R2exception@std@@8      000000018002fa68     LIBCMT:throw_bad_alloc.obj
 0002:0000aa78       ??_R1A@?0A@EA@exception@std@@8 000000018002fa78     LIBCMT:throw_bad_alloc.obj
 0002:0000aaa0       ??_R4bad_alloc@std@@6B@    000000018002faa0     LIBCMT:throw_bad_alloc.obj
 0002:0000aac8       ??_R3bad_alloc@std@@8      000000018002fac8     LIBCMT:throw_bad_alloc.obj
 0002:0000aae0       ??_R2bad_alloc@std@@8      000000018002fae0     LIBCMT:throw_bad_alloc.obj
 0002:0000aaf8       ??_R1A@?0A@EA@bad_alloc@std@@8 000000018002faf8     LIBCMT:throw_bad_alloc.obj
 0002:0000ab20       ??_R4bad_array_new_length@std@@6B@ 000000018002fb20     LIBCMT:throw_bad_alloc.obj
 0002:0000ab48       ??_R3bad_array_new_length@std@@8 000000018002fb48     LIBCMT:throw_bad_alloc.obj
 0002:0000ab60       ??_R2bad_array_new_length@std@@8 000000018002fb60     LIBCMT:throw_bad_alloc.obj
 0002:0000ab80       ??_R1A@?0A@EA@bad_array_new_length@std@@8 000000018002fb80     LIBCMT:throw_bad_alloc.obj
 0002:0000aba8       ??_R4type_info@@6B@        000000018002fba8     LIBCMT:std_type_info_static.obj
 0002:0000abd0       ??_R3type_info@@8          000000018002fbd0     LIBCMT:std_type_info_static.obj
 0002:0000abe8       ??_R2type_info@@8          000000018002fbe8     LIBCMT:std_type_info_static.obj
 0002:0000abf8       ??_R1A@?0A@EA@type_info@@8 000000018002fbf8     LIBCMT:std_type_info_static.obj
 0002:0000ac20       ??_R4bad_exception@std@@6B@ 000000018002fc20     libvcruntime:frame.obj
 0002:0000ac48       ??_R3bad_exception@std@@8  000000018002fc48     libvcruntime:frame.obj
 0002:0000ac60       ??_R2bad_exception@std@@8  000000018002fc60     libvcruntime:frame.obj
 0002:0000ac78       ??_R1A@?0A@EA@bad_exception@std@@8 000000018002fc78     libvcruntime:frame.obj
 0002:0000ac9c       __volatile_metadata        000000018002fc9c     <linker-defined>
 0002:0000b118       __rtc_iaa                  0000000180030118     LIBCMT:initsect.obj
 0002:0000b120       __rtc_izz                  0000000180030120     LIBCMT:initsect.obj
 0002:0000b128       __rtc_taa                  0000000180030128     LIBCMT:initsect.obj
 0002:0000b130       __rtc_tzz                  0000000180030130     LIBCMT:initsect.obj
 0002:0000b138       _tls_start                 0000000180030138     LIBCMT:tlssup.obj
 0002:0000b13c       _Init_thread_epoch         000000018003013c     LIBCMT:thread_safe_statics.obj
 0002:0000b140       _tls_end                   0000000180030140     LIBCMT:tlssup.obj
 0002:0000ca60       _TI2?AVbad_alloc@std@@     0000000180031a60     LIBCMT:throw_bad_alloc.obj
 0002:0000ca80       _CTA2?AVbad_alloc@std@@    0000000180031a80     LIBCMT:throw_bad_alloc.obj
 0002:0000ca98       _CT??_R0?AVbad_alloc@std@@@8??0bad_alloc@std@@QEAA@AEBV01@@Z24 0000000180031a98     LIBCMT:throw_bad_alloc.obj
 0002:0000cac0       _CT??_R0?AVexception@std@@@8??0exception@std@@QEAA@AEBV01@@Z24 0000000180031ac0     LIBCMT:throw_bad_alloc.obj
 0002:0000cae8       _TI3?AVbad_array_new_length@std@@ 0000000180031ae8     LIBCMT:throw_bad_alloc.obj
 0002:0000cb08       _CTA3?AVbad_array_new_length@std@@ 0000000180031b08     LIBCMT:throw_bad_alloc.obj
 0002:0000cb28       _CT??_R0?AVbad_array_new_length@std@@@8??0bad_array_new_length@std@@QEAA@AEBV01@@Z24 0000000180031b28     LIBCMT:throw_bad_alloc.obj
 0002:0000cb50       _TI2?AVbad_exception@std@@ 0000000180031b50     libvcruntime:frame.obj
 0002:0000cb70       _CTA2?AVbad_exception@std@@ 0000000180031b70     libvcruntime:frame.obj
 0002:0000cb88       _CT??_R0?AVbad_exception@std@@@8??0bad_exception@std@@QEAA@AEBV01@@Z24 0000000180031b88     libvcruntime:frame.obj
 0002:0000cbb0       __pobjMapEntryFirst        0000000180031bb0     OposVariant.obj
 0002:0000cbb8       __pobjMapEntryLast         0000000180031bb8     OposVariant.obj
 0002:0000cc68       __IMPORT_DESCRIPTOR_KERNEL32 0000000180031c68     kernel32:KERNEL32.dll
 0002:0000cc7c       __IMPORT_DESCRIPTOR_USER32 0000000180031c7c     user32:USER32.dll
 0002:0000cc90       __IMPORT_DESCRIPTOR_GDI32  0000000180031c90     gdi32:GDI32.dll
 0002:0000cca4       __IMPORT_DESCRIPTOR_ADVAPI32 0000000180031ca4     advapi32:ADVAPI32.dll
 0002:0000ccb8       __IMPORT_DESCRIPTOR_ole32  0000000180031cb8     ole32:ole32.dll
 0002:0000cccc       __IMPORT_DESCRIPTOR_OLEAUT32 0000000180031ccc     oleaut32:OLEAUT32.dll
 0002:0000cce0       __NULL_IMPORT_DESCRIPTOR   0000000180031ce0     kernel32:KERNEL32.dll
 0003:00000000       ?rcDefault@CWindow@ATL@@2UtagRECT@@A 0000000180033000     Lights.obj
 0003:00000010       ?s_Claim@?7??GetIDsOfNames@CComTypeInfoHolder@ATL@@QEAAJAEBU_GUID@@PEAPEA_WIKPEAJ@Z@4PA_WA 0000000180033010     Lights.obj
 0003:00000028       ?s_Release@?7??GetIDsOfNames@CComTypeInfoHolder@ATL@@QEAAJAEBU_GUID@@PEAPEA_WIKPEAJ@Z@4PA_WA 0000000180033028     Lights.obj
 0003:00000048       ?_tih@?$IDispatchImpl@UIOPOSLights@@$1?IID_IOPOSLights@@3U_GUID@@B$1?LIBID_OposLights_CCO@@3U3@B$00$0A@VCComTypeInfoHolder@ATL@@@ATL@@1VCComTypeInfoHolder@2@A 0000000180033048     Lights.obj
 0003:00000080       ?_tih@?$IProvideClassInfo2Impl@$1?CLSID_OPOSLights@@3U_GUID@@B$1?DIID__IOPOSLightsEvents@@3U2@B$1?LIBID_OposLights_CCO@@3U2@B$00$0A@VCComTypeInfoHolder@ATL@@@ATL@@1VCComTypeInfoHolder@2@A 0000000180033080     Lights.obj
 0003:000000b8       ?vszContents@?6??Save@?$IPersistStorageImpl@VCOPOSLights@@@ATL@@UEAAJPEAUIStorage@@H@Z@4PEB_WEB 00000001800330b8     Lights.obj
 0003:000000c0       ?wc@?1??GetWndClassInfo@?$CWindowImpl@VCOPOSLights@@VCWindow@ATL@@V?$CWinTraits@$0FGAAAAAA@$0A@@3@@ATL@@SAAEAU_ATL_WNDCLASSINFOW@3@XZ@4U43@A 00000001800330c0     Lights.obj
 0003:00000250       ?g_WindowName@@3PA_WA      0000000180033250     LightsImpl.obj
 0003:0000026c       ?g_ControlVersion@@3JA     000000018003326c     LightsImpl.obj
 0003:00000270       ?g_ControlDescription@@3PADA 0000000180033270     LightsImpl.obj
 0003:0000035c       __scrt_native_dllmain_reason 000000018003335c     LIBCMT:utility.obj
 0003:00000360       _Init_global_epoch         0000000180033360     LIBCMT:thread_safe_statics.obj
 0003:00000370       __security_cookie          0000000180033370     LIBCMT:gs_cookie.obj
 0003:00000378       __security_cookie_complement 0000000180033378     LIBCMT:gs_cookie.obj
 0003:00000380       __isa_available            0000000180033380     LIBCMT:cpu_disp.obj
 0003:00000384       __isa_enabled              0000000180033384     LIBCMT:cpu_disp.obj
 0003:00000388       __memcpy_nt_iters          0000000180033388     LIBCMT:cpu_disp.obj
 0003:00000390       __memset_nt_iters          0000000180033390     LIBCMT:cpu_disp.obj
 0003:000003b8       __abort_behavior           00000001800333b8     libucrt:abort.obj
 0003:000003d0       __acrt_initial_locale_data 00000001800333d0     libucrt:nlsdata.obj
 0003:00000528       __acrt_initial_locale_pointers 0000000180033528     libucrt:nlsdata.obj
 0003:00000538       __acrt_wide_c_locale_string 0000000180033538     libucrt:nlsdata.obj
 0003:00000540       _iob                       0000000180033540     libucrt:_file.obj
 0003:00000650       __acrt_initial_multibyte_data 0000000180033650     libucrt:mbctype.obj
 0003:00000b90       __acrt_lconv_c             0000000180033b90     libucrt:localeconv.obj
 0003:00000c28       __acrt_lconv_static_decimal 0000000180033c28     libucrt:localeconv.obj
 0003:00000c2c       __acrt_lconv_static_W_decimal 0000000180033c2c     libucrt:localeconv.obj
 0003:00000c30       __globallocalestatus       0000000180033c30     libucrt:glstatus.obj
 0003:00000c40       _lookuptrailbytes          0000000180033c40     libucrt:read.obj
 0003:00000d64       _fltused                   0000000180033d64     LIBCMT:fltused.obj
 0003:00000d68       ??_R0?AVbad_alloc@std@@@8  0000000180033d68     LIBCMT:throw_bad_alloc.obj
 0003:00000d90       ??_R0?AVexception@std@@@8  0000000180033d90     LIBCMT:throw_bad_alloc.obj
 0003:00000db8       ??_R0?AVbad_array_new_length@std@@@8 0000000180033db8     LIBCMT:throw_bad_alloc.obj
 0003:00000de8       ??_R0?AVbad_exception@std@@@8 0000000180033de8     libvcruntime:frame.obj
 0003:00000e10       ??_R0?AVtype_info@@@8      0000000180033e10     LIBCMT:std_type_info_static.obj
 0003:00000e30       ?m_bInitFailed@CAtlBaseModule@ATL@@2_NA 0000000180033e30     OposVariant.obj
 0003:00000e38       ?_pPerfRegFunc@ATL@@3P6AJPEAUHINSTANCE__@@@ZEA 0000000180033e38     OposVariant.obj
 0003:00000e40       ?_pPerfUnRegFunc@ATL@@3P6AJXZEA 0000000180033e40     OposVariant.obj
 0003:00000e48       ?_AtlRegisterPerUser@ATL@@3_NA 0000000180033e48     OposVariant.obj
 0003:00000e50       ?_pAtlModule@ATL@@3PEAVCAtlModule@1@EA 0000000180033e50     OposVariant.obj
 0003:00000e58       ?_pModule@ATL@@3PEAVCComModule@1@EA 0000000180033e58     OposVariant.obj
 0003:00000e60       ?_AtlComModule@ATL@@3VCAtlComModule@1@A 0000000180033e60     OposVariant.obj
 0003:00000eb0       ?_AtlWinModule@ATL@@3VCAtlWinModule@1@A 0000000180033eb0     OposVariant.obj
 0003:00000ef8       ?m_libid@CAtlModule@ATL@@2U_GUID@@A 0000000180033ef8     Lights.obj
 0003:00000f08       ?_entries@?1??GetConnMap@COPOSLights@@SAPEBU_ATL_CONNMAP_ENTRY@ATL@@PEAH@Z@4QBU34@B 0000000180033f08     Lights.obj
 0003:00000f20       ?$TSS0@?1??GetConnMap@COPOSLights@@SAPEBU_ATL_CONNMAP_ENTRY@ATL@@PEAH@Z@4HA 0000000180033f20     Lights.obj
 0003:00000f28       ?_OptionsStorage@?1??__local_stdio_printf_options@@9@4_KA 0000000180033f28     Lights.obj
 0003:00000f30       ?pfnRegDeleteKeyEx@?1??DeleteSubKey@CRegKey@ATL@@QEAAJPEB_W@Z@4P6AJPEAUHKEY__@@0KK@ZEA 0000000180033f30     Lights.obj
 0003:00000f38       ?bInitialized@?1??DeleteSubKey@CRegKey@ATL@@QEAAJPEB_W@Z@4_NA 0000000180033f38     Lights.obj
 0003:00000f40       ?_Module@@3VCComModule@ATL@@A 0000000180033f40     Lights.obj
 0003:00000f90       ?pConnMap@?$IConnectionPointContainerImpl@VCOPOSLights@@@ATL@@0PEBU_ATL_CONNMAP_ENTRY@2@EB 0000000180033f90     Lights.obj
 0003:00000f98       ?s_nInstances@COPOSLights@@1HA 0000000180033f98     LightsImpl.obj
 0003:00000fa0       __scrt_current_native_startup_state 0000000180033fa0     LIBCMT:utility.obj
 0003:00000fa8       __scrt_native_startup_lock 0000000180033fa8     LIBCMT:utility.obj
 0003:000015a0       _tls_index                 00000001800345a0     LIBCMT:tlssup.obj
 0003:000015a8       __favor                    00000001800345a8     LIBCMT:cpu_disp.obj
 0003:000015ac       __scrt_debugger_hook_flag  00000001800345ac     LIBCMT:utility_desktop.obj
 0003:000015b0       ?__type_info_root_node@@3U__type_info_node@@A 00000001800345b0     LIBCMT:tncleanup.obj
 0003:000015c0       ?_OptionsStorage@?1??__local_stdio_scanf_options@@9@4_KA 00000001800345c0     LIBCMT:default_local_stdio_options.obj
 0003:000015d0       ?_AtlBaseModule@ATL@@3VCAtlBaseModule@1@A 00000001800345d0     atls:atlbase.obj
 0003:00001630       ?__AtlThunkPool@@3PEAT_SLIST_HEADER@@EA 0000000180034630     atls:atlthunk.obj
 0003:0000165c       __@@_PchSym_@00@UzABUPdlipUCAUhUrmgvinvwrzgvUexgllohUzgohOmzgrevkilqPBACIAJCBDBUlyqiUznwGEUhgwzucOlyq@4B2008FD98C1DD4 000000018003465c     atls:stdafx.obj
 0003:00001660       ?__WinRTOutOfMemoryExceptionCallback@@3P6APEAXXZEA 0000000180034660     libvcruntime:ehhelpers.obj
 0003:00001668       __pPurecall                0000000180034668     libvcruntime:purevirt_data.obj
 0003:00001720       ?pArgList@UnDecorator@@0PEAVReplicator@@EA 0000000180034720     libvcruntime:undname.obj
 0003:00001728       ?pZNameList@UnDecorator@@0PEAVReplicator@@EA 0000000180034728     libvcruntime:undname.obj
 0003:00001730       ?pTemplateArgList@UnDecorator@@0PEAVReplicator@@EA 0000000180034730     libvcruntime:undname.obj
 0003:00001738       ?gName@UnDecorator@@0PEBDEB 0000000180034738     libvcruntime:undname.obj
 0003:00001740       ?name@UnDecorator@@0PEBDEB 0000000180034740     libvcruntime:undname.obj
 0003:00001748       ?disableFlags@UnDecorator@@0KA 0000000180034748     libvcruntime:undname.obj
 0003:0000174c       ?fExplicitTemplateParams@UnDecorator@@0_NA 000000018003474c     libvcruntime:undname.obj
 0003:0000174d       ?fGetTemplateArgumentList@UnDecorator@@0_NA 000000018003474d     libvcruntime:undname.obj
 0003:00001750       ?m_pGetParameter@UnDecorator@@0P6APEADJ@ZEA 0000000180034750     libvcruntime:undname.obj
 0003:00001758       ?m_CHPENameOffset@UnDecorator@@0KA 0000000180034758     libvcruntime:undname.obj
 0003:0000175c       ?m_recursionLevel@UnDecorator@@0KA 000000018003475c     libvcruntime:undname.obj
 0003:000017e0       ?c_exit_complete@?1???R<lambda_6e4b09c48022b2350581041d5f6b0c4c>@@QEBA@XZ@4_NA 00000001800347e0     libucrt:exit.obj
 0003:000018f8       _environ_table             00000001800348f8     libucrt:environment_initialization.obj
 0003:00001900       _wenviron_table            0000000180034900     libucrt:environment_initialization.obj
 0003:00001908       __dcrt_initial_wide_environment 0000000180034908     libucrt:environment_initialization.obj
 0003:00001910       __dcrt_initial_narrow_environment 0000000180034910     libucrt:environment_initialization.obj
 0003:00001918       __acrt_atexit_table        0000000180034918     libucrt:onexit.obj
 0003:00001930       __acrt_at_quick_exit_table 0000000180034930     libucrt:onexit.obj
 0003:00001950       __acrt_locale_changed_data 0000000180034950     libucrt:wsetlocale.obj
 0003:00001958       __acrt_current_locale_data 0000000180034958     libucrt:nlsdata.obj
 0003:00001af8       _nstream                   0000000180034af8     libucrt:_file.obj
 0003:00001b00       __piob                     0000000180034b00     libucrt:_file.obj
 0003:00001b10       __acrt_stdout_buffer       0000000180034b10     libucrt:_sftbuf.obj
 0003:00001b18       __acrt_stderr_buffer       0000000180034b18     libucrt:_sftbuf.obj
 0003:00001b20       __pioinfo                  0000000180034b20     libucrt:ioinit.obj
 0003:00001f20       _nhandle                   0000000180034f20     libucrt:ioinit.obj
 0003:00002168       _mbctype                   0000000180035168     libucrt:mbctype.obj
 0003:00002170       _mbcasemap                 0000000180035170     libucrt:mbctype.obj
 0003:00002178       __acrt_current_multibyte_data 0000000180035178     libucrt:mbctype.obj
 0003:00002188       _pgmptr                    0000000180035188     libucrt:argv_data.obj
 0003:00002190       __argc                     0000000180035190     libucrt:argv_data.obj
 0003:00002198       __argv                     0000000180035198     libucrt:argv_data.obj
 0003:000021a0       __wargv                    00000001800351a0     libucrt:argv_data.obj
 0003:000021a8       _acmdln                    00000001800351a8     libucrt:argv_data.obj
 0003:000021b0       _wcmdln                    00000001800351b0     libucrt:argv_data.obj
 0003:000021b8       __acrt_heap                00000001800351b8     libucrt:heap_handle.obj
 0003:000021e8       __acrt_lconv_static_null   00000001800351e8     libucrt:localeconv.obj
 0003:000021ec       __acrt_lconv_static_W_null 00000001800351ec     libucrt:localeconv.obj
 0003:00002204       __fma3_is_available        0000000180035204     libucrt:fma3_available.obj
 0003:00002208       __use_fma3_lib             0000000180035208     libucrt:fma3_available.obj
 0003:00002210       __dyn_tls_init_callback    0000000180035210     <common>
 0003:00002218       __scrt_ucrt_dll_is_in_use  0000000180035218     <common>

 entry point at        0001:0000e770

 Static symbols

 0000:fffc2000       .debug$S                   0000000180000000     OPOSLights.exp
 0000:fffc2000       .debug$S                   0000000180000000     advapi32:ADVAPI32.dll
 0000:fffc2000       .debug$S                   0000000180000000     advapi32:ADVAPI32.dll
 0000:fffc2000       .debug$S                   0000000180000000     advapi32:ADVAPI32.dll
 0000:fffc2000       .debug$S                   0000000180000000     advapi32:ADVAPI32.dll
 0000:fffc2000       .debug$S                   0000000180000000     advapi32:ADVAPI32.dll
 0000:fffc2000       .debug$S                   0000000180000000     advapi32:ADVAPI32.dll
 0000:fffc2000       .debug$S                   0000000180000000     advapi32:ADVAPI32.dll
 0000:fffc2000       .debug$S                   0000000180000000     advapi32:ADVAPI32.dll
 0000:fffc2000       .debug$S                   0000000180000000     advapi32:ADVAPI32.dll
 0000:fffc2000       .debug$S                   0000000180000000     gdi32:GDI32.dll
 0000:fffc2000       .debug$S                   0000000180000000     gdi32:GDI32.dll
 0000:fffc2000       .debug$S                   0000000180000000     gdi32:GDI32.dll
 0000:fffc2000       .debug$S                   0000000180000000     gdi32:GDI32.dll
 0000:fffc2000       .debug$S                   0000000180000000     gdi32:GDI32.dll
 0000:fffc2000       .debug$S                   0000000180000000     gdi32:GDI32.dll
 0000:fffc2000       .debug$S                   0000000180000000     gdi32:GDI32.dll
 0000:fffc2000       .debug$S                   0000000180000000     gdi32:GDI32.dll
 0000:fffc2000       .debug$S                   0000000180000000     gdi32:GDI32.dll
 0000:fffc2000       .debug$S                   0000000180000000     gdi32:GDI32.dll
 0000:fffc2000       .debug$S                   0000000180000000     gdi32:GDI32.dll
 0000:fffc2000       .debug$S                   0000000180000000     gdi32:GDI32.dll
 0000:fffc2000       .debug$S                   0000000180000000     gdi32:GDI32.dll
 0000:fffc2000       .debug$S                   0000000180000000     gdi32:GDI32.dll
 0000:fffc2000       .debug$S                   0000000180000000     gdi32:GDI32.dll
 0000:fffc2000       .debug$S                   0000000180000000     gdi32:GDI32.dll
 0000:fffc2000       .debug$S                   0000000180000000     gdi32:GDI32.dll
 0000:fffc2000       .debug$S                   0000000180000000     gdi32:GDI32.dll
 0000:fffc2000       .debug$S                   0000000180000000     gdi32:GDI32.dll
 0000:fffc2000       .debug$S                   0000000180000000     kernel32:KERNEL32.dll
 0000:fffc2000       .debug$S                   0000000180000000     kernel32:KERNEL32.dll
 0000:fffc2000       .debug$S                   0000000180000000     kernel32:KERNEL32.dll
 0000:fffc2000       .debug$S                   0000000180000000     kernel32:KERNEL32.dll
 0000:fffc2000       .debug$S                   0000000180000000     kernel32:KERNEL32.dll
 0000:fffc2000       .debug$S                   0000000180000000     kernel32:KERNEL32.dll
 0000:fffc2000       .debug$S                   0000000180000000     kernel32:KERNEL32.dll
 0000:fffc2000       .debug$S                   0000000180000000     kernel32:KERNEL32.dll
 0000:fffc2000       .debug$S                   0000000180000000     kernel32:KERNEL32.dll
 0000:fffc2000       .debug$S                   0000000180000000     kernel32:KERNEL32.dll
 0000:fffc2000       .debug$S                   0000000180000000     kernel32:KERNEL32.dll
 0000:fffc2000       .debug$S                   0000000180000000     kernel32:KERNEL32.dll
 0000:fffc2000       .debug$S                   0000000180000000     kernel32:KERNEL32.dll
 0000:fffc2000       .debug$S                   0000000180000000     kernel32:KERNEL32.dll
 0000:fffc2000       .debug$S                   0000000180000000     kernel32:KERNEL32.dll
 0000:fffc2000       .debug$S                   0000000180000000     kernel32:KERNEL32.dll
 0000:fffc2000       .debug$S                   0000000180000000     kernel32:KERNEL32.dll
 0000:fffc2000       .debug$S                   0000000180000000     kernel32:KERNEL32.dll
 0000:fffc2000       .debug$S                   0000000180000000     kernel32:KERNEL32.dll
 0000:fffc2000       .debug$S                   0000000180000000     kernel32:KERNEL32.dll
 0000:fffc2000       .debug$S                   0000000180000000     kernel32:KERNEL32.dll
 0000:fffc2000       .debug$S                   0000000180000000     kernel32:KERNEL32.dll
 0000:fffc2000       .debug$S                   0000000180000000     kernel32:KERNEL32.dll
 0000:fffc2000       .debug$S                   0000000180000000     kernel32:KERNEL32.dll
 0000:fffc2000       .debug$S                   0000000180000000     kernel32:KERNEL32.dll
 0000:fffc2000       .debug$S                   0000000180000000     kernel32:KERNEL32.dll
 0000:fffc2000       .debug$S                   0000000180000000     kernel32:KERNEL32.dll
 0000:fffc2000       .debug$S                   0000000180000000     kernel32:KERNEL32.dll
 0000:fffc2000       .debug$S                   0000000180000000     kernel32:KERNEL32.dll
 0000:fffc2000       .debug$S                   0000000180000000     kernel32:KERNEL32.dll
 0000:fffc2000       .debug$S                   0000000180000000     kernel32:KERNEL32.dll
 0000:fffc2000       .debug$S                   0000000180000000     kernel32:KERNEL32.dll
 0000:fffc2000       .debug$S                   0000000180000000     kernel32:KERNEL32.dll
 0000:fffc2000       .debug$S                   0000000180000000     kernel32:KERNEL32.dll
 0000:fffc2000       .debug$S                   0000000180000000     kernel32:KERNEL32.dll
 0000:fffc2000       .debug$S                   0000000180000000     kernel32:KERNEL32.dll
 0000:fffc2000       .debug$S                   0000000180000000     kernel32:KERNEL32.dll
 0000:fffc2000       .debug$S                   0000000180000000     kernel32:KERNEL32.dll
 0000:fffc2000       .debug$S                   0000000180000000     kernel32:KERNEL32.dll
 0000:fffc2000       .debug$S                   0000000180000000     kernel32:KERNEL32.dll
 0000:fffc2000       .debug$S                   0000000180000000     kernel32:KERNEL32.dll
 0000:fffc2000       .debug$S                   0000000180000000     kernel32:KERNEL32.dll
 0000:fffc2000       .debug$S                   0000000180000000     kernel32:KERNEL32.dll
 0000:fffc2000       .debug$S                   0000000180000000     kernel32:KERNEL32.dll
 0000:fffc2000       .debug$S                   0000000180000000     kernel32:KERNEL32.dll
 0000:fffc2000       .debug$S                   0000000180000000     kernel32:KERNEL32.dll
 0000:fffc2000       .debug$S                   0000000180000000     kernel32:KERNEL32.dll
 0000:fffc2000       .debug$S                   0000000180000000     kernel32:KERNEL32.dll
 0000:fffc2000       .debug$S                   0000000180000000     kernel32:KERNEL32.dll
 0000:fffc2000       .debug$S                   0000000180000000     kernel32:KERNEL32.dll
 0000:fffc2000       .debug$S                   0000000180000000     kernel32:KERNEL32.dll
 0000:fffc2000       .debug$S                   0000000180000000     kernel32:KERNEL32.dll
 0000:fffc2000       .debug$S                   0000000180000000     kernel32:KERNEL32.dll
 0000:fffc2000       .debug$S                   0000000180000000     kernel32:KERNEL32.dll
 0000:fffc2000       .debug$S                   0000000180000000     kernel32:KERNEL32.dll
 0000:fffc2000       .debug$S                   0000000180000000     kernel32:KERNEL32.dll
 0000:fffc2000       .debug$S                   0000000180000000     kernel32:KERNEL32.dll
 0000:fffc2000       .debug$S                   0000000180000000     kernel32:KERNEL32.dll
 0000:fffc2000       .debug$S                   0000000180000000     kernel32:KERNEL32.dll
 0000:fffc2000       .debug$S                   0000000180000000     kernel32:KERNEL32.dll
 0000:fffc2000       .debug$S                   0000000180000000     kernel32:KERNEL32.dll
 0000:fffc2000       .debug$S                   0000000180000000     kernel32:KERNEL32.dll
 0000:fffc2000       .debug$S                   0000000180000000     kernel32:KERNEL32.dll
 0000:fffc2000       .debug$S                   0000000180000000     kernel32:KERNEL32.dll
 0000:fffc2000       .debug$S                   0000000180000000     kernel32:KERNEL32.dll
 0000:fffc2000       .debug$S                   0000000180000000     kernel32:KERNEL32.dll
 0000:fffc2000       .debug$S                   0000000180000000     kernel32:KERNEL32.dll
 0000:fffc2000       .debug$S                   0000000180000000     kernel32:KERNEL32.dll
 0000:fffc2000       .debug$S                   0000000180000000     kernel32:KERNEL32.dll
 0000:fffc2000       .debug$S                   0000000180000000     kernel32:KERNEL32.dll
 0000:fffc2000       .debug$S                   0000000180000000     kernel32:KERNEL32.dll
 0000:fffc2000       .debug$S                   0000000180000000     kernel32:KERNEL32.dll
 0000:fffc2000       .debug$S                   0000000180000000     kernel32:KERNEL32.dll
 0000:fffc2000       .debug$S                   0000000180000000     kernel32:KERNEL32.dll
 0000:fffc2000       .debug$S                   0000000180000000     kernel32:KERNEL32.dll
 0000:fffc2000       .debug$S                   0000000180000000     kernel32:KERNEL32.dll
 0000:fffc2000       .debug$S                   0000000180000000     kernel32:KERNEL32.dll
 0000:fffc2000       .debug$S                   0000000180000000     kernel32:KERNEL32.dll
 0000:fffc2000       .debug$S                   0000000180000000     kernel32:KERNEL32.dll
 0000:fffc2000       .debug$S                   0000000180000000     kernel32:KERNEL32.dll
 0000:fffc2000       .debug$S                   0000000180000000     kernel32:KERNEL32.dll
 0000:fffc2000       .debug$S                   0000000180000000     kernel32:KERNEL32.dll
 0000:fffc2000       .debug$S                   0000000180000000     kernel32:KERNEL32.dll
 0000:fffc2000       .debug$S                   0000000180000000     kernel32:KERNEL32.dll
 0000:fffc2000       .debug$S                   0000000180000000     kernel32:KERNEL32.dll
 0000:fffc2000       .debug$S                   0000000180000000     kernel32:KERNEL32.dll
 0000:fffc2000       .debug$S                   0000000180000000     kernel32:KERNEL32.dll
 0000:fffc2000       .debug$S                   0000000180000000     kernel32:KERNEL32.dll
 0000:fffc2000       .debug$S                   0000000180000000     kernel32:KERNEL32.dll
 0000:fffc2000       .debug$S                   0000000180000000     kernel32:KERNEL32.dll
 0000:fffc2000       .debug$S                   0000000180000000     kernel32:KERNEL32.dll
 0000:fffc2000       .debug$S                   0000000180000000     kernel32:KERNEL32.dll
 0000:fffc2000       .debug$S                   0000000180000000     kernel32:KERNEL32.dll
 0000:fffc2000       .debug$S                   0000000180000000     kernel32:KERNEL32.dll
 0000:fffc2000       .debug$S                   0000000180000000     kernel32:KERNEL32.dll
 0000:fffc2000       .debug$S                   0000000180000000     kernel32:KERNEL32.dll
 0000:fffc2000       .debug$S                   0000000180000000     kernel32:KERNEL32.dll
 0000:fffc2000       .debug$S                   0000000180000000     kernel32:KERNEL32.dll
 0000:fffc2000       .debug$S                   0000000180000000     kernel32:KERNEL32.dll
 0000:fffc2000       .debug$S                   0000000180000000     kernel32:KERNEL32.dll
 0000:fffc2000       .debug$S                   0000000180000000     kernel32:KERNEL32.dll
 0000:fffc2000       .debug$S                   0000000180000000     kernel32:KERNEL32.dll
 0000:fffc2000       .debug$S                   0000000180000000     kernel32:KERNEL32.dll
 0000:fffc2000       .debug$S                   0000000180000000     kernel32:KERNEL32.dll
 0000:fffc2000       .debug$S                   0000000180000000     kernel32:KERNEL32.dll
 0000:fffc2000       .debug$S                   0000000180000000     kernel32:KERNEL32.dll
 0000:fffc2000       .debug$S                   0000000180000000     kernel32:KERNEL32.dll
 0000:fffc2000       .debug$S                   0000000180000000     kernel32:KERNEL32.dll
 0000:fffc2000       .debug$S                   0000000180000000     kernel32:KERNEL32.dll
 0000:fffc2000       .debug$S                   0000000180000000     kernel32:KERNEL32.dll
 0000:fffc2000       .debug$S                   0000000180000000     kernel32:KERNEL32.dll
 0000:fffc2000       .debug$S                   0000000180000000     kernel32:KERNEL32.dll
 0000:fffc2000       .debug$S                   0000000180000000     kernel32:KERNEL32.dll
 0000:fffc2000       .debug$S                   0000000180000000     kernel32:KERNEL32.dll
 0000:fffc2000       .debug$S                   0000000180000000     kernel32:KERNEL32.dll
 0000:fffc2000       .debug$S                   0000000180000000     ole32:ole32.dll
 0000:fffc2000       .debug$S                   0000000180000000     ole32:ole32.dll
 0000:fffc2000       .debug$S                   0000000180000000     ole32:ole32.dll
 0000:fffc2000       .debug$S                   0000000180000000     ole32:ole32.dll
 0000:fffc2000       .debug$S                   0000000180000000     ole32:ole32.dll
 0000:fffc2000       .debug$S                   0000000180000000     ole32:ole32.dll
 0000:fffc2000       .debug$S                   0000000180000000     ole32:ole32.dll
 0000:fffc2000       .debug$S                   0000000180000000     ole32:ole32.dll
 0000:fffc2000       .debug$S                   0000000180000000     ole32:ole32.dll
 0000:fffc2000       .debug$S                   0000000180000000     ole32:ole32.dll
 0000:fffc2000       .debug$S                   0000000180000000     ole32:ole32.dll
 0000:fffc2000       .debug$S                   0000000180000000     ole32:ole32.dll
 0000:fffc2000       .debug$S                   0000000180000000     ole32:ole32.dll
 0000:fffc2000       .debug$S                   0000000180000000     ole32:ole32.dll
 0000:fffc2000       .debug$S                   0000000180000000     oleaut32:OLEAUT32.dll
 0000:fffc2000       .debug$S                   0000000180000000     oleaut32:OLEAUT32.dll
 0000:fffc2000       .debug$S                   0000000180000000     oleaut32:OLEAUT32.dll
 0000:fffc2000       .debug$S                   0000000180000000     oleaut32:OLEAUT32.dll
 0000:fffc2000       .debug$S                   0000000180000000     oleaut32:OLEAUT32.dll
 0000:fffc2000       .debug$S                   0000000180000000     oleaut32:OLEAUT32.dll
 0000:fffc2000       .debug$S                   0000000180000000     oleaut32:OLEAUT32.dll
 0000:fffc2000       .debug$S                   0000000180000000     oleaut32:OLEAUT32.dll
 0000:fffc2000       .debug$S                   0000000180000000     oleaut32:OLEAUT32.dll
 0000:fffc2000       .debug$S                   0000000180000000     oleaut32:OLEAUT32.dll
 0000:fffc2000       .debug$S                   0000000180000000     oleaut32:OLEAUT32.dll
 0000:fffc2000       .debug$S                   0000000180000000     oleaut32:OLEAUT32.dll
 0000:fffc2000       .debug$S                   0000000180000000     oleaut32:OLEAUT32.dll
 0000:fffc2000       .debug$S                   0000000180000000     oleaut32:OLEAUT32.dll
 0000:fffc2000       .debug$S                   0000000180000000     oleaut32:OLEAUT32.dll
 0000:fffc2000       .debug$S                   0000000180000000     oleaut32:OLEAUT32.dll
 0000:fffc2000       .debug$S                   0000000180000000     user32:USER32.dll
 0000:fffc2000       .debug$S                   0000000180000000     user32:USER32.dll
 0000:fffc2000       .debug$S                   0000000180000000     user32:USER32.dll
 0000:fffc2000       .debug$S                   0000000180000000     user32:USER32.dll
 0000:fffc2000       .debug$S                   0000000180000000     user32:USER32.dll
 0000:fffc2000       .debug$S                   0000000180000000     user32:USER32.dll
 0000:fffc2000       .debug$S                   0000000180000000     user32:USER32.dll
 0000:fffc2000       .debug$S                   0000000180000000     user32:USER32.dll
 0000:fffc2000       .debug$S                   0000000180000000     user32:USER32.dll
 0000:fffc2000       .debug$S                   0000000180000000     user32:USER32.dll
 0000:fffc2000       .debug$S                   0000000180000000     user32:USER32.dll
 0000:fffc2000       .debug$S                   0000000180000000     user32:USER32.dll
 0000:fffc2000       .debug$S                   0000000180000000     user32:USER32.dll
 0000:fffc2000       .debug$S                   0000000180000000     user32:USER32.dll
 0000:fffc2000       .debug$S                   0000000180000000     user32:USER32.dll
 0000:fffc2000       .debug$S                   0000000180000000     user32:USER32.dll
 0000:fffc2000       .debug$S                   0000000180000000     user32:USER32.dll
 0000:fffc2000       .debug$S                   0000000180000000     user32:USER32.dll
 0000:fffc2000       .debug$S                   0000000180000000     user32:USER32.dll
 0000:fffc2000       .debug$S                   0000000180000000     user32:USER32.dll
 0000:fffc2000       .debug$S                   0000000180000000     user32:USER32.dll
 0000:fffc2000       .debug$S                   0000000180000000     user32:USER32.dll
 0000:fffc2000       .debug$S                   0000000180000000     user32:USER32.dll
 0000:fffc2000       .debug$S                   0000000180000000     user32:USER32.dll
 0000:fffc2000       .debug$S                   0000000180000000     user32:USER32.dll
 0000:fffc2000       .debug$S                   0000000180000000     user32:USER32.dll
 0000:fffc2000       .debug$S                   0000000180000000     user32:USER32.dll
 0000:fffc2000       .debug$S                   0000000180000000     user32:USER32.dll
 0000:fffc2000       .debug$S                   0000000180000000     user32:USER32.dll
 0000:fffc2000       .debug$S                   0000000180000000     user32:USER32.dll
 0000:fffc2000       .debug$S                   0000000180000000     user32:USER32.dll
 0000:fffc2000       .debug$S                   0000000180000000     user32:USER32.dll
 0000:fffc2000       .debug$S                   0000000180000000     user32:USER32.dll
 0000:fffc2000       .debug$S                   0000000180000000     user32:USER32.dll
 0000:fffc2000       .debug$S                   0000000180000000     user32:USER32.dll
 0001:00000000       ??__E_AtlComModule@ATL@@YAXXZ 0000000180001000 f   OposVariant.obj
 0001:00000020       ??__E_AtlWinModule@ATL@@YAXXZ 0000000180001020 f   OposVariant.obj
 0001:00000040       ??__E?pConnMap@?$IConnectionPointContainerImpl@VCOPOSLights@@@ATL@@0PEBU_ATL_CONNMAP_ENTRY@2@EB@@YAXXZ 0000000180001040 f   Lights.obj
 0001:00000058       ??__E_Module@@YAXXZ        0000000180001058 f   Lights.obj
 0001:00000094       ??__E_AtlBaseModule@ATL@@YAXXZ 0000000180001094 f   atls:atlbase.obj
 0001:0000dd90       ?__scrt_initialize_thread_safe_statics@@YAHXZ 000000018000ed90 f   LIBCMT:thread_safe_statics.obj
 0001:0000de60       ?__scrt_uninitialize_thread_safe_statics@@YAXXZ 000000018000ee60 f   LIBCMT:thread_safe_statics.obj
 0001:0000e1b0       capture_current_context    000000018000f1b0 f   LIBCMT:gs_report.obj
 0001:0000e220       capture_previous_context   000000018000f220 f   LIBCMT:gs_report.obj
 0001:0000e3c0       $$000000                   000000018000f3c0     LIBCMT:chkstk.obj
 0001:0000e420       $$000000                   000000018000f420     LIBCMT:amdsecgs.obj
 0001:0000e450       ?dllmain_crt_dispatch@@YAHQEAUHINSTANCE__@@KQEAX@Z 000000018000f450 f   LIBCMT:dll_dllmain.obj
 0001:0000e4a0       ?dllmain_crt_process_attach@@YAHQEAUHINSTANCE__@@QEAX@Z 000000018000f4a0 f   LIBCMT:dll_dllmain.obj
 0001:0000e5b8       ?dllmain_crt_process_detach@@YAH_N@Z 000000018000f5b8 f   LIBCMT:dll_dllmain.obj
 0001:0000e63c       ?dllmain_dispatch@@YAHQEAUHINSTANCE__@@KQEAX@Z 000000018000f63c f   LIBCMT:dll_dllmain.obj
 0001:0000ef08       ??$GetProcAddressAll@P6AP6A_JPEAUHWND__@@I_K_J@ZPEAUAtlThunkData_t@@@Z@@YAP6AP6A_JPEAUHWND__@@I_K_J@ZPEAUAtlThunkData_t@@@ZPEAP6AP6A_J0I12@Z3@Z@Z 000000018000ff08 f   atls:atlthunk.obj
 0001:0000ef08       ??$GetProcAddressAll@P6APEAUAtlThunkData_t@@XZ@@YAP6APEAUAtlThunkData_t@@XZPEAP6APEAU0@XZ@Z 000000018000ff08 f   atls:atlthunk.obj
 0001:0000ef08       ??$GetProcAddressAll@P6AXPEAUAtlThunkData_t@@@Z@@YAP6AXPEAUAtlThunkData_t@@@ZPEAP6AX0@Z@Z 000000018000ff08 f   atls:atlthunk.obj
 0001:0000ef08       ??$GetProcAddressAll@P6AXPEAUAtlThunkData_t@@PEAX_K@Z@@YAP6AXPEAUAtlThunkData_t@@PEAX_K@ZPEAP6AX012@Z@Z 000000018000ff08 f   atls:atlthunk.obj
 0001:0000f0e0       ?__InitializeThunkPool@@YAHXZ 00000001800100e0 f   atls:atlthunk.obj
 0001:0000f580       $$000000                   0000000180010580     libvcruntime:memcmp.obj
 0001:0000f660       $$000000                   0000000180010660     libvcruntime:memcpy.obj
 0001:0000fd10       $$000000                   0000000180010d10     libvcruntime:memset.obj
 0001:00011320       $$000000                   0000000180012320     libvcruntime:notify.obj
 0001:000115a0       ??$BuildCatchObjectHelperInternal@V__FrameHandler3@@@@YAHPEAUEHExceptionRecord@@PEAXPEBU_s_HandlerType@@PEBU_s_CatchableType@@@Z 00000001800125a0 f   libvcruntime:frame.obj
 0001:000117a0       ??$BuildCatchObjectHelperInternal@V__FrameHandler4@@@@YAHPEAUEHExceptionRecord@@PEAXPEAUHandlerType4@FH4@@PEBU_s_CatchableType@@@Z 00000001800127a0 f   libvcruntime:frame.obj
 0001:000119a4       ??$BuildCatchObjectInternal@V__FrameHandler3@@@@YAXPEAUEHExceptionRecord@@PEAXPEBU_s_HandlerType@@PEBU_s_CatchableType@@@Z 00000001800129a4 f   libvcruntime:frame.obj
 0001:00011a64       ??$BuildCatchObjectInternal@V__FrameHandler4@@@@YAXPEAUEHExceptionRecord@@PEAXPEAUHandlerType4@FH4@@PEBU_s_CatchableType@@@Z 0000000180012a64 f   libvcruntime:frame.obj
 0001:00011b28       ??$CatchIt@V__FrameHandler3@@@@YAXPEAUEHExceptionRecord@@PEA_KPEAU_CONTEXT@@PEAU_xDISPATCHER_CONTEXT@@PEBU_s_FuncInfo@@PEBU_s_HandlerType@@PEBU_s_CatchableType@@PEBU_s_TryBlockMapEntry@@H1EE@Z 0000000180012b28 f   libvcruntime:frame.obj
 0001:00011bfc       ??$CatchIt@V__FrameHandler4@@@@YAXPEAUEHExceptionRecord@@PEA_KPEAU_CONTEXT@@PEAU_xDISPATCHER_CONTEXT@@PEAUFuncInfo4@FH4@@PEAUHandlerType4@4@PEBU_s_CatchableType@@PEAUTryBlockMapEntry4@4@H1EE@Z 0000000180012bfc f   libvcruntime:frame.obj
 0001:00011cd0       ??$FindHandler@V__FrameHandler3@@@@YAXPEAUEHExceptionRecord@@PEA_KPEAU_CONTEXT@@PEAU_xDISPATCHER_CONTEXT@@PEBU_s_FuncInfo@@EH1@Z 0000000180012cd0 f   libvcruntime:frame.obj
 0001:000121a8       ??$FindHandler@V__FrameHandler4@@@@YAXPEAUEHExceptionRecord@@PEA_KPEAU_CONTEXT@@PEAU_xDISPATCHER_CONTEXT@@PEAUFuncInfo4@FH4@@EH1@Z 00000001800131a8 f   libvcruntime:frame.obj
 0001:000126a4       ??$FindHandlerForForeignException@V__FrameHandler3@@@@YAXPEAUEHExceptionRecord@@PEA_KPEAU_CONTEXT@@PEAU_xDISPATCHER_CONTEXT@@PEBU_s_FuncInfo@@HH1@Z 00000001800136a4 f   libvcruntime:frame.obj
 0001:000128c0       ??$FindHandlerForForeignException@V__FrameHandler4@@@@YAXPEAUEHExceptionRecord@@PEA_KPEAU_CONTEXT@@PEAU_xDISPATCHER_CONTEXT@@PEAUFuncInfo4@FH4@@HH1@Z 00000001800138c0 f   libvcruntime:frame.obj
 0001:00013a80       ?ExFilterRethrow@@YAHPEAU_EXCEPTION_POINTERS@@PEAUEHExceptionRecord@@PEAH@Z 0000000180014a80 f   libvcruntime:frame.obj
 0001:00013b08       ?ExFilterRethrowFH4@@YAHPEAU_EXCEPTION_POINTERS@@PEAUEHExceptionRecord@@HPEAH@Z 0000000180014b08 f   libvcruntime:frame.obj
 0001:00014058       ?IsInExceptionSpec@@YAEPEAUEHExceptionRecord@@PEBU_s_ESTypeList@@@Z 0000000180015058 f   libvcruntime:frame.obj
 0001:00014148       ?Is_bad_exception_allowed@@YAEPEBU_s_ESTypeList@@@Z 0000000180015148 f   libvcruntime:frame.obj
 0001:00014424       ?try_get_function@@YAPEAXW4function_id@?A0xbc0cc709@@QEBDQEBW4module_id@2@2@Z 0000000180015424 f   libvcruntime:winapi_downlevel.obj
 0001:00014710       $$000000                   0000000180015710     libvcruntime:handlers.obj
 0001:0001513c       ??$common_vsprintf@Vformat_validation_base@__crt_stdio_output@@_W@@YAH_KQEA_W0QEB_WAEAV__crt_cached_ptd_host@@QEAD@Z 000000018001613c f   libucrt:output.obj
 0001:0001788c       ??$?RV<lambda_d80eeec6fff315bfe5c115232f3240e3>@@AEAV<lambda_6e4b09c48022b2350581041d5f6b0c4c>@@V<lambda_2358e3775559c9db80273638284d5e45>@@@?$__crt_seh_guarded_call@X@@QEAAX$$QEAV<lambda_d80eeec6fff315bfe5c115232f3240e3>@@AEAV<lambda_6e4b09c48022b2350581041d5f6b0c4c>@@$$QEAV<lambda_2358e3775559c9db80273638284d5e45>@@@Z 000000018001888c f   libucrt:exit.obj
 0001:000178c4       ??R<lambda_6e4b09c48022b2350581041d5f6b0c4c>@@QEBA@XZ 00000001800188c4 f   libucrt:exit.obj
 0001:00017990       ?common_exit@@YAXHW4_crt_exit_cleanup_mode@@W4_crt_exit_return_mode@@@Z 0000000180018990 f   libucrt:exit.obj
 0001:00017a58       ?exit_or_terminate_process@@YAXI@Z 0000000180018a58 f   libucrt:exit.obj
 0001:00017a8c       ?should_call_terminate_process@@YA_NXZ 0000000180018a8c f   libucrt:exit.obj
 0001:00017abc       ?try_cor_exit_process@@YAXI@Z 0000000180018abc f   libucrt:exit.obj
 0001:00017b58       ??$parse_command_line@D@@YAXPEADPEAPEAD0PEA_K2@Z 0000000180018b58 f   libucrt:argv_parsing.obj
 0001:00017f00       ??$common_initialize_environment_nolock@D@@YAHXZ 0000000180018f00 f   libucrt:environment_initialization.obj
 0001:00017f74       ??$create_environment@D@@YAQEAPEADQEAD@Z 0000000180018f74 f   libucrt:environment_initialization.obj
 0001:00018084       ??$free_environment@D@@YAXQEAPEAD@Z 0000000180019084 f   libucrt:environment_initialization.obj
 0001:00018084       ??$free_environment@_W@@YAXQEAPEA_W@Z 0000000180019084 f   libucrt:environment_initialization.obj
 0001:000180c8       ??$uninitialize_environment_internal@D@@YAXAEAPEAPEAD@Z 00000001800190c8 f   libucrt:environment_initialization.obj
 0001:000180e4       ??$uninitialize_environment_internal@_W@@YAXAEAPEAPEA_W@Z 00000001800190e4 f   libucrt:environment_initialization.obj
 0001:0001814c       ??$?RV<lambda_638799b9deba96c50f710eeac98168cd>@@AEAV<lambda_22ebabd17bc4fa466a2aca6d8deb888d>@@V<lambda_a6f7d7db0129f75315ebf26d50c089f1>@@@?$__crt_seh_guarded_call@H@@QEAAH$$QEAV<lambda_638799b9deba96c50f710eeac98168cd>@@AEAV<lambda_22ebabd17bc4fa466a2aca6d8deb888d>@@$$QEAV<lambda_a6f7d7db0129f75315ebf26d50c089f1>@@@Z 000000018001914c f   libucrt:onexit.obj
 0001:00018188       ??$?RV<lambda_7777bce6b2f8c936911f934f8298dc43>@@AEAV<lambda_f03950bc5685219e0bcd2087efbe011e>@@V<lambda_3883c3dff614d5e0c5f61bb1ac94921c>@@@?$__crt_seh_guarded_call@H@@QEAAH$$QEAV<lambda_7777bce6b2f8c936911f934f8298dc43>@@AEAV<lambda_f03950bc5685219e0bcd2087efbe011e>@@$$QEAV<lambda_3883c3dff614d5e0c5f61bb1ac94921c>@@@Z 0000000180019188 f   libucrt:onexit.obj
 0001:000181c4       ??R<lambda_22ebabd17bc4fa466a2aca6d8deb888d>@@QEBAHXZ 00000001800191c4 f   libucrt:onexit.obj
 0001:00018374       ??R<lambda_f03950bc5685219e0bcd2087efbe011e>@@QEBAHXZ 0000000180019374 f   libucrt:onexit.obj
 0001:00018558       initialize_global_variables 0000000180019558 f   libucrt:initialization.obj
 0001:0001856c       initialize_c               000000018001956c f   libucrt:initialization.obj
 0001:00018590       initialize_environment     0000000180019590 f   libucrt:initialization.obj
 0001:00018590       initialize_global_state_isolation 0000000180019590 f   libucrt:initialization.obj
 0001:00018590       report_memory_leaks        0000000180019590 f   libucrt:initialization.obj
 0001:00018590       uninitialize_c             0000000180019590 f   libucrt:initialization.obj
 0001:00018590       uninitialize_global_state_isolation 0000000180019590 f   libucrt:initialization.obj
 0001:00018594       uninitialize_environment   0000000180019594 f   libucrt:initialization.obj
 0001:000185a4       initialize_pointers        00000001800195a4 f   libucrt:initialization.obj
 0001:000185e4       uninitialize_vcruntime     00000001800195e4 f   libucrt:initialization.obj
 0001:000185ec       uninitialize_allocated_memory 00000001800195ec f   libucrt:initialization.obj
 0001:0001862c       uninitialize_allocated_io_buffers 000000018001962c f   libucrt:initialization.obj
 0001:000188f0       $$000000                   00000001800198f0     libucrt:strncmp.obj
 0001:000189e8       ??$?RV<lambda_0ae27a3a962d80f24befdcbee591983d>@@AEAV<lambda_8d0ee55de4b1038c4002e0adecdf1839>@@V<lambda_dc504788e8f1664fe9b84e20bfb512f2>@@@?$__crt_seh_guarded_call@X@@QEAAX$$QEAV<lambda_0ae27a3a962d80f24befdcbee591983d>@@AEAV<lambda_8d0ee55de4b1038c4002e0adecdf1839>@@$$QEAV<lambda_dc504788e8f1664fe9b84e20bfb512f2>@@@Z 00000001800199e8 f   libucrt:per_thread_data.obj
 0001:00018a28       ??$?RV<lambda_2d41944a1d46af3157314b8a01080d33>@@AEAV<lambda_8f455de75cd7d7f24b4096f044d8b9e6>@@V<lambda_aa500f224e6afead328df44964fe2772>@@@?$__crt_seh_guarded_call@X@@QEAAX$$QEAV<lambda_2d41944a1d46af3157314b8a01080d33>@@AEAV<lambda_8f455de75cd7d7f24b4096f044d8b9e6>@@$$QEAV<lambda_aa500f224e6afead328df44964fe2772>@@@Z 0000000180019a28 f   libucrt:per_thread_data.obj
 0001:00018a68       ??$?RV<lambda_aa87e3671a710a21b5dc78c0bdf72e11>@@AEAV<lambda_92619d2358a28f41a33ba319515a20b9>@@V<lambda_6992ecaafeb10aed2b74cb1fae11a551>@@@?$__crt_seh_guarded_call@X@@QEAAX$$QEAV<lambda_aa87e3671a710a21b5dc78c0bdf72e11>@@AEAV<lambda_92619d2358a28f41a33ba319515a20b9>@@$$QEAV<lambda_6992ecaafeb10aed2b74cb1fae11a551>@@@Z 0000000180019a68 f   libucrt:per_thread_data.obj
 0001:00018ab0       ??$?RV<lambda_f2e299630e499de9f9a165e60fcd3db5>@@AEAV<lambda_2ae9d31cdba2644fcbeaf08da7c24588>@@V<lambda_40d01ff24d0e7b3814fdbdcee8eab3c7>@@@?$__crt_seh_guarded_call@X@@QEAAX$$QEAV<lambda_f2e299630e499de9f9a165e60fcd3db5>@@AEAV<lambda_2ae9d31cdba2644fcbeaf08da7c24588>@@$$QEAV<lambda_40d01ff24d0e7b3814fdbdcee8eab3c7>@@@Z 0000000180019ab0 f   libucrt:per_thread_data.obj
 0001:00018b10       ?construct_ptd_array@@YAXQEAU__acrt_ptd@@@Z 0000000180019b10 f   libucrt:per_thread_data.obj
 0001:00018be0       ?destroy_fls@@YAXPEAX@Z    0000000180019be0 f   libucrt:per_thread_data.obj
 0001:00018c00       ?destroy_ptd_array@@YAXQEAU__acrt_ptd@@@Z 0000000180019c00 f   libucrt:per_thread_data.obj
 0001:00018cf8       ?replace_current_thread_locale_nolock@@YAXQEAU__acrt_ptd@@QEAU__crt_locale_data@@@Z 0000000180019cf8 f   libucrt:per_thread_data.obj
 0001:00019104       ??$?RV<lambda_410d79af7f07d98d83a3f525b3859a53>@@AEAV<lambda_3e16ef9562a7dcce91392c22ab16ea36>@@V<lambda_38119f0e861e05405d8a144b9b982f0a>@@@?$__crt_seh_guarded_call@X@@QEAAX$$QEAV<lambda_410d79af7f07d98d83a3f525b3859a53>@@AEAV<lambda_3e16ef9562a7dcce91392c22ab16ea36>@@$$QEAV<lambda_38119f0e861e05405d8a144b9b982f0a>@@@Z 000000018001a104 f   libucrt:wsetlocale.obj
 0001:00019340       ?try_get_function@@YAPEAXW4function_id@?A0x391cf84c@@QEBDQEBW4module_id@2@2@Z 000000018001a340 f   libucrt:winapi_thunks.obj
 0001:00019adc       ?fp_format_a@@YAHQEBNPEAD_KQEAD2H_NIW4__acrt_rounding_mode@@AEAV__crt_cached_ptd_host@@@Z 000000018001aadc f   libucrt:cvt.obj
 0001:00019e90       ?fp_format_e@@YAHQEBNQEAD_K12H_NIW4__acrt_rounding_mode@@AEAV__crt_cached_ptd_host@@@Z 000000018001ae90 f   libucrt:cvt.obj
 0001:00019f8c       ?fp_format_e_internal@@YAHQEAD_KH_NIQEAU_strflt@@2AEAV__crt_cached_ptd_host@@@Z 000000018001af8c f   libucrt:cvt.obj
 0001:0001a170       ?fp_format_f@@YAHQEBNQEAD_K12HW4__acrt_rounding_mode@@AEAV__crt_cached_ptd_host@@@Z 000000018001b170 f   libucrt:cvt.obj
 0001:0001a248       ?fp_format_f_internal@@YAHQEAD_KHQEAU_strflt@@_NAEAV__crt_cached_ptd_host@@@Z 000000018001b248 f   libucrt:cvt.obj
 0001:0001a3a0       ?fp_format_g@@YAHQEBNQEAD_K12H_NIW4__acrt_rounding_mode@@AEAV__crt_cached_ptd_host@@@Z 000000018001b3a0 f   libucrt:cvt.obj
 0001:0001a4f4       ?should_round_up@@YA_NQEBN_KFW4__acrt_rounding_mode@@@Z 000000018001b4f4 f   libucrt:cvt.obj
 0001:0001ac40       ?initialize_inherited_file_handles_nolock@@YAXXZ 000000018001bc40 f   libucrt:ioinit.obj
 0001:0001ad30       ?initialize_stdio_handles_nolock@@YAXXZ 000000018001bd30 f   libucrt:ioinit.obj
 0001:0001afa8       ?<lambda_invoker_cdecl>@<lambda_a1ce4c8ae42411fd470c77163914f50e>@@CAHPEBX0@Z 000000018001bfa8 f   libucrt:argv_wildcards.obj
 0001:0001b2c4       ??$common_expand_argv_wildcards@D@@YAHQEAPEADQEAPEAPEAD@Z 000000018001c2c4 f   libucrt:argv_wildcards.obj
 0001:0001b508       ??$copy_and_add_argument_to_buffer@D@@YAHQEBD0_KAEAV?$argument_list@D@?A0x5f5c8891@@@Z 000000018001c508 f   libucrt:argv_wildcards.obj
 0001:0001b690       ??$expand_argument_wildcards@D@@YAHQEAD0AEAV?$argument_list@D@?A0x5f5c8891@@@Z 000000018001c690 f   libucrt:argv_wildcards.obj
 0001:0001bcc4       ??$?RV<lambda_efdfa57d1f175319df784efa44bb7b81>@@AEAV<lambda_5f0a4c1567f8adc6734073e5d1e1b35c>@@V<lambda_2e8a7d3640ea6ccb4c2413664c2db6fd>@@@?$__crt_seh_guarded_call@X@@QEAAX$$QEAV<lambda_efdfa57d1f175319df784efa44bb7b81>@@AEAV<lambda_5f0a4c1567f8adc6734073e5d1e1b35c>@@$$QEAV<lambda_2e8a7d3640ea6ccb4c2413664c2db6fd>@@@Z 000000018001ccc4 f   libucrt:mbctype.obj
 0001:0001be94       ?getSystemCP@@YAHH@Z       000000018001ce94 f   libucrt:mbctype.obj
 0001:0001bf14       ?setSBCS@@YAXPEAU__crt_multibyte_data@@@Z 000000018001cf14 f   libucrt:mbctype.obj
 0001:0001bfac       ?setSBUpLow@@YAXPEAU__crt_multibyte_data@@@Z 000000018001cfac f   libucrt:mbctype.obj
 0001:0001c194       ?setmbcp_internal@@YAHH_NQEAU__acrt_ptd@@QEAPEAU__crt_multibyte_data@@@Z 000000018001d194 f   libucrt:mbctype.obj
 0001:0001c404       ?update_thread_multibyte_data_internal@@YAPEAU__crt_multibyte_data@@QEAU__acrt_ptd@@QEAPEAU1@@Z 000000018001d404 f   libucrt:mbctype.obj
 0001:0001c7f8       ?x_ismbbtype_l@@YAHPEAU__crt_locale_pointers@@IHH@Z 000000018001d7f8 f   libucrt:ismbbyte.obj
 0001:0001cbc8       ??$?RV<lambda_450d765d439847d4c735a33c368b5fc0>@@AEAV<lambda_44731a7d0e6d81c3e6aa82d741081786>@@V<lambda_601a2a7da3b7a96e9554ac7215c4b07c>@@@?$__crt_seh_guarded_call@P6AXH@Z@@QEAAP6AXH@Z$$QEAV<lambda_450d765d439847d4c735a33c368b5fc0>@@AEAV<lambda_44731a7d0e6d81c3e6aa82d741081786>@@$$QEAV<lambda_601a2a7da3b7a96e9554ac7215c4b07c>@@@Z 000000018001dbc8 f   libucrt:signal.obj
 0001:0001cf40       ??$?RV<lambda_842d9ff0dc9ef11c61343bbaebe7f885>@@AEAV<lambda_c5860995281e5c4ce005b3de8f5874ee>@@V<lambda_d90129c13df834fdcbf8d2b88dafcf2d>@@@?$__crt_seh_guarded_call@X@@QEAAX$$QEAV<lambda_842d9ff0dc9ef11c61343bbaebe7f885>@@AEAV<lambda_c5860995281e5c4ce005b3de8f5874ee>@@$$QEAV<lambda_d90129c13df834fdcbf8d2b88dafcf2d>@@@Z 000000018001df40 f   libucrt:fflush.obj
 0001:0001cfdc       ??$?RV<lambda_886d6c58226a84441f68b9f2b8217b83>@@AEAV<lambda_ab61a845afdef5b7c387490eaf3616ee>@@V<lambda_f7f22ab5edc0698d5f6905b0d3f44752>@@@?$__crt_seh_guarded_call@X@@QEAAX$$QEAV<lambda_886d6c58226a84441f68b9f2b8217b83>@@AEAV<lambda_ab61a845afdef5b7c387490eaf3616ee>@@$$QEAV<lambda_f7f22ab5edc0698d5f6905b0d3f44752>@@@Z 000000018001dfdc f   libucrt:fflush.obj
 0001:0001d0bc       ?common_flush_all@@YAH_N@Z 000000018001e0bc f   libucrt:fflush.obj
 0001:0001d808       ?free_crt_array_internal@@YAXQEAPEBX_K@Z 000000018001e808 f   libucrt:inittime.obj
 0001:0001f3ec       memcpy_s                   00000001800203ec f   libucrt:cfout.obj
 0001:0001fff0       fallbackMethod             0000000180020ff0 f   libucrt:strpbrk.obj
 0001:0002039c       $LN78                      000000018002139c     libucrt:strpbrk.obj
 0001:000203d8       $LN77                      00000001800213d8     libucrt:strpbrk.obj
 0001:00020418       $LN76                      0000000180021418     libucrt:strpbrk.obj
 0001:000204f4       ?__acrt_LCMapStringA_stat@@YAHPEAU__crt_locale_pointers@@PEB_WKPEBDHPEADHHH@Z 00000001800214f4 f   libucrt:lcmapstringa.obj
 0001:000208ac       ?initialize_multibyte@@YAHXZ 00000001800218ac f   libucrt:multibyte_initializer.obj
 0001:000208c4       ??$?RV<lambda_a37b2b86f63e897a80ea819b0eb08c01>@@AEAV<lambda_38ce7e780aa69e748d6df282ebc68efe>@@V<lambda_99fb1378e971ab6e7edea83e3a7a83a2>@@@?$__crt_seh_guarded_call@H@@QEAAH$$QEAV<lambda_a37b2b86f63e897a80ea819b0eb08c01>@@AEAV<lambda_38ce7e780aa69e748d6df282ebc68efe>@@$$QEAV<lambda_99fb1378e971ab6e7edea83e3a7a83a2>@@@Z 00000001800218c4 f   libucrt:commit.obj
 0001:000209e4       ?write_double_translated_ansi_nolock@@YA?AUwrite_result@?A0x17268360@@HQEBDIAEAV__crt_cached_ptd_host@@@Z 00000001800219e4 f   libucrt:write.obj
 0001:00020e70       ?write_text_ansi_nolock@@YA?AUwrite_result@?A0x17268360@@HQEBDI@Z 0000000180021e70 f   libucrt:write.obj
 0001:00020f74       ?write_text_utf16le_nolock@@YA?AUwrite_result@?A0x17268360@@HQEBDI@Z 0000000180021f74 f   libucrt:write.obj
 0001:00021090       ?write_text_utf8_nolock@@YA?AUwrite_result@?A0x17268360@@HQEBDI@Z 0000000180022090 f   libucrt:write.obj
 0001:00021870       $$000000                   0000000180022870     libucrt:log10.obj
 0001:0002230c       ?_fclose_internal@@YAHQEAU_iobuf@@AEAV__crt_cached_ptd_host@@@Z 000000018002330c f   libucrt:fclose.obj
 0001:00022388       ?_fclose_nolock_internal@@YAHQEAU_iobuf@@AEAV__crt_cached_ptd_host@@@Z 0000000180023388 f   libucrt:fclose.obj
 0001:000224c4       ??$common_lseek_nolock@_J@@YA_JH_JHAEAV__crt_cached_ptd_host@@@Z 00000001800234c4 f   libucrt:lseek.obj
 0001:0002264c       common_control87           000000018002364c f   libucrt:ieee.obj
 0001:0002290c       _call_matherr              000000018002390c f   libucrt:libm_error.obj
 0001:00022974       _exception_enabled         0000000180023974 f   libucrt:libm_error.obj
 0001:00022c10       _log_special_common        0000000180023c10 f   libucrt:log_special.obj
 0001:00022ca8       ??$?RV<lambda_ad8af0d99a0adf03d037d7dffe354bb5>@@AEAV<lambda_c9ba49e555ba839a7b07aa3fbecb7617>@@V<lambda_2f1ebd5d68526518146ae959c9e734c8>@@@?$__crt_seh_guarded_call@H@@QEAAH$$QEAV<lambda_ad8af0d99a0adf03d037d7dffe354bb5>@@AEAV<lambda_c9ba49e555ba839a7b07aa3fbecb7617>@@$$QEAV<lambda_2f1ebd5d68526518146ae959c9e734c8>@@@Z 0000000180023ca8 f   libucrt:close.obj
 0001:00023000       $$000000                   0000000180024000     libucrt:fpsr.obj
 0001:00023780       $$000000                   0000000180024780     LIBCMT:guard_dispatch.obj
 0001:000237a0       $$000000                   00000001800247a0     LIBCMT:guard_xfg_dispatch.obj
 0001:000237c0       ?filt$0@?0??_AtlVerifyStackAvailable@_ATL_SAFE_ALLOCA_IMPL@ATL@@YA_N_K@Z@4HA 00000001800247c0 f   Lights.obj
 0001:000237e1       __scrt_is_nonwritable_in_current_image$filt$0 00000001800247e1 f   LIBCMT:utility.obj
 0001:000237f9       ?catch$0@?0???2@YAPEAX_KAEBUnothrow_t@std@@@Z@4HA 00000001800247f9 f   LIBCMT:new_scalar_nothrow.obj
 0001:00023806       __catch$??2@YAPEAX_KAEBUnothrow_t@std@@@Z$0 0000000180024806 f   LIBCMT:new_scalar_nothrow.obj
 0001:00023817       ?fin$0@?0??dllmain_crt_process_attach@@YAHQEAUHINSTANCE__@@QEAX@Z@4HA 0000000180024817 f   LIBCMT:dll_dllmain.obj
 0001:0002382e       ?fin$0@?0??dllmain_crt_process_detach@@YAH_N@Z@4HA 000000018002482e f   LIBCMT:dll_dllmain.obj
 0001:00023847       ?fin$1@?0??dllmain_crt_process_detach@@YAH_N@Z@4HA 0000000180024847 f   LIBCMT:dll_dllmain.obj
 0001:0002385b       ?filt$0@?0??dllmain_dispatch@@YAHQEAUHINSTANCE__@@KQEAX@Z@4HA 000000018002485b f   LIBCMT:dll_dllmain.obj
 0001:00023891       ?filt$0@?0???$_CallSETranslator@V__FrameHandler3@@@@YAHPEAUEHExceptionRecord@@PEA_KPEAU_CONTEXT@@PEAU_xDISPATCHER_CONTEXT@@PEBU_s_FuncInfo@@K1H@Z@4HA 0000000180024891 f   libvcruntime:risctrnsctrl.obj
 0001:00023922       ?filt$0@?0???$_CallSETranslator@V__FrameHandler4@@@@YAHPEAUEHExceptionRecord@@PEA_KPEAU_CONTEXT@@PEAU_xDISPATCHER_CONTEXT@@PEAUFuncInfo4@FH4@@K1H@Z@4HA 0000000180024922 f   libvcruntime:risctrnsctrl.obj
 0001:000239c1       __DestructExceptionObject$filt$0 00000001800249c1 f   libvcruntime:ehhelpers.obj
 0001:00023a57       ?filt$0@?0??CxxCallCatchBlock@__FrameHandler3@@SAPEAXPEAU_EXCEPTION_RECORD@@@Z@4HA 0000000180024a57 f   libvcruntime:frame.obj
 0001:00023a7c       ?fin$1@?0??CxxCallCatchBlock@__FrameHandler3@@SAPEAXPEAU_EXCEPTION_RECORD@@@Z@4HA 0000000180024a7c f   libvcruntime:frame.obj
 0001:00023b02       ?filt$0@?0??CxxCallCatchBlock@__FrameHandler4@@SAPEAXPEAU_EXCEPTION_RECORD@@@Z@4HA 0000000180024b02 f   libvcruntime:frame.obj
 0001:00023b31       ?fin$1@?0??CxxCallCatchBlock@__FrameHandler4@@SAPEAXPEAU_EXCEPTION_RECORD@@@Z@4HA 0000000180024b31 f   libvcruntime:frame.obj
 0001:00023bc2       ?filt$0@?0??FrameUnwindToState@__FrameHandler3@@SAXPEA_KPEAU_xDISPATCHER_CONTEXT@@PEBU_s_FuncInfo@@H@Z@4HA 0000000180024bc2 f   libvcruntime:frame.obj
 0001:00023bd8       ?fin$1@?0??FrameUnwindToState@__FrameHandler3@@SAXPEA_KPEAU_xDISPATCHER_CONTEXT@@PEBU_s_FuncInfo@@H@Z@4HA 0000000180024bd8 f   libvcruntime:frame.obj
 0001:00023bfb       ?filt$0@?0??FrameUnwindToState@__FrameHandler4@@SAXPEA_KPEAU_xDISPATCHER_CONTEXT@@PEAUFuncInfo4@FH4@@H@Z@4HA 0000000180024bfb f   libvcruntime:frame.obj
 0001:00023c11       ?fin$1@?0??FrameUnwindToState@__FrameHandler4@@SAXPEA_KPEAU_xDISPATCHER_CONTEXT@@PEAUFuncInfo4@FH4@@H@Z@4HA 0000000180024c11 f   libvcruntime:frame.obj
 0001:00023c34       ?fin$0@?0???$?RV<lambda_0ae27a3a962d80f24befdcbee591983d>@@AEAV<lambda_8d0ee55de4b1038c4002e0adecdf1839>@@V<lambda_dc504788e8f1664fe9b84e20bfb512f2>@@@?$__crt_seh_guarded_call@X@@QEAAX$$QEAV<lambda_0ae27a3a962d80f24befdcbee591983d>@@AEAV<lambda_8d0ee55de4b1038c4002e0adecdf1839>@@$$QEAV<lambda_dc504788e8f1664fe9b84e20bfb512f2>@@@Z@4HA 0000000180024c34 f   libucrt:per_thread_data.obj
 0001:00023c34       ?fin$0@?0???$?RV<lambda_2d41944a1d46af3157314b8a01080d33>@@AEAV<lambda_8f455de75cd7d7f24b4096f044d8b9e6>@@V<lambda_aa500f224e6afead328df44964fe2772>@@@?$__crt_seh_guarded_call@X@@QEAAX$$QEAV<lambda_2d41944a1d46af3157314b8a01080d33>@@AEAV<lambda_8f455de75cd7d7f24b4096f044d8b9e6>@@$$QEAV<lambda_aa500f224e6afead328df44964fe2772>@@@Z@4HA 0000000180024c34 f   libucrt:per_thread_data.obj
 0001:00023c34       ?fin$0@?0???$?RV<lambda_aa87e3671a710a21b5dc78c0bdf72e11>@@AEAV<lambda_92619d2358a28f41a33ba319515a20b9>@@V<lambda_6992ecaafeb10aed2b74cb1fae11a551>@@@?$__crt_seh_guarded_call@X@@QEAAX$$QEAV<lambda_aa87e3671a710a21b5dc78c0bdf72e11>@@AEAV<lambda_92619d2358a28f41a33ba319515a20b9>@@$$QEAV<lambda_6992ecaafeb10aed2b74cb1fae11a551>@@@Z@4HA 0000000180024c34 f   libucrt:per_thread_data.obj
 0001:00023c34       ?fin$0@?0???$?RV<lambda_f2e299630e499de9f9a165e60fcd3db5>@@AEAV<lambda_2ae9d31cdba2644fcbeaf08da7c24588>@@V<lambda_40d01ff24d0e7b3814fdbdcee8eab3c7>@@@?$__crt_seh_guarded_call@X@@QEAAX$$QEAV<lambda_f2e299630e499de9f9a165e60fcd3db5>@@AEAV<lambda_2ae9d31cdba2644fcbeaf08da7c24588>@@$$QEAV<lambda_40d01ff24d0e7b3814fdbdcee8eab3c7>@@@Z@4HA 0000000180024c34 f   libucrt:per_thread_data.obj
 0001:00023c34       ?fin$0@?0???$?RV<lambda_450d765d439847d4c735a33c368b5fc0>@@AEAV<lambda_44731a7d0e6d81c3e6aa82d741081786>@@V<lambda_601a2a7da3b7a96e9554ac7215c4b07c>@@@?$__crt_seh_guarded_call@P6AXH@Z@@QEAAP6AXH@Z$$QEAV<lambda_450d765d439847d4c735a33c368b5fc0>@@AEAV<lambda_44731a7d0e6d81c3e6aa82d741081786>@@$$QEAV<lambda_601a2a7da3b7a96e9554ac7215c4b07c>@@@Z@4HA 0000000180024c34 f   libucrt:signal.obj
 0001:00023c34       ?fin$0@?0???$?RV<lambda_d80eeec6fff315bfe5c115232f3240e3>@@AEAV<lambda_6e4b09c48022b2350581041d5f6b0c4c>@@V<lambda_2358e3775559c9db80273638284d5e45>@@@?$__crt_seh_guarded_call@X@@QEAAX$$QEAV<lambda_d80eeec6fff315bfe5c115232f3240e3>@@AEAV<lambda_6e4b09c48022b2350581041d5f6b0c4c>@@$$QEAV<lambda_2358e3775559c9db80273638284d5e45>@@@Z@4HA 0000000180024c34 f   libucrt:exit.obj
 0001:00023c34       ?fin$0@?0???$?RV<lambda_638799b9deba96c50f710eeac98168cd>@@AEAV<lambda_22ebabd17bc4fa466a2aca6d8deb888d>@@V<lambda_a6f7d7db0129f75315ebf26d50c089f1>@@@?$__crt_seh_guarded_call@H@@QEAAH$$QEAV<lambda_638799b9deba96c50f710eeac98168cd>@@AEAV<lambda_22ebabd17bc4fa466a2aca6d8deb888d>@@$$QEAV<lambda_a6f7d7db0129f75315ebf26d50c089f1>@@@Z@4HA 0000000180024c34 f   libucrt:onexit.obj
 0001:00023c34       ?fin$0@?0???$?RV<lambda_7777bce6b2f8c936911f934f8298dc43>@@AEAV<lambda_f03950bc5685219e0bcd2087efbe011e>@@V<lambda_3883c3dff614d5e0c5f61bb1ac94921c>@@@?$__crt_seh_guarded_call@H@@QEAAH$$QEAV<lambda_7777bce6b2f8c936911f934f8298dc43>@@AEAV<lambda_f03950bc5685219e0bcd2087efbe011e>@@$$QEAV<lambda_3883c3dff614d5e0c5f61bb1ac94921c>@@@Z@4HA 0000000180024c34 f   libucrt:onexit.obj
 0001:00023c4e       ?filt$0@?0???R<lambda_6e4b09c48022b2350581041d5f6b0c4c>@@QEBA@XZ@4HA 0000000180024c4e f   libucrt:exit.obj
 0001:00023c7b       _query_new_handler$fin$0   0000000180024c7b f   libucrt:new_handler.obj
 0001:00023c91       ?fin$0@?0???$?RV<lambda_410d79af7f07d98d83a3f525b3859a53>@@AEAV<lambda_3e16ef9562a7dcce91392c22ab16ea36>@@V<lambda_38119f0e861e05405d8a144b9b982f0a>@@@?$__crt_seh_guarded_call@X@@QEAAX$$QEAV<lambda_410d79af7f07d98d83a3f525b3859a53>@@AEAV<lambda_3e16ef9562a7dcce91392c22ab16ea36>@@$$QEAV<lambda_38119f0e861e05405d8a144b9b982f0a>@@@Z@4HA 0000000180024c91 f   libucrt:wsetlocale.obj
 0001:00023cab       __acrt_initialize_lowio$fin$0 0000000180024cab f   libucrt:ioinit.obj
 0001:00023cab       __acrt_lowio_ensure_fh_exists$fin$0 0000000180024cab f   libucrt:osfinfo.obj
 0001:00023cc4       ?fin$0@?0???$?RV<lambda_efdfa57d1f175319df784efa44bb7b81>@@AEAV<lambda_5f0a4c1567f8adc6734073e5d1e1b35c>@@V<lambda_2e8a7d3640ea6ccb4c2413664c2db6fd>@@@?$__crt_seh_guarded_call@X@@QEAAX$$QEAV<lambda_efdfa57d1f175319df784efa44bb7b81>@@AEAV<lambda_5f0a4c1567f8adc6734073e5d1e1b35c>@@$$QEAV<lambda_2e8a7d3640ea6ccb4c2413664c2db6fd>@@@Z@4HA 0000000180024cc4 f   libucrt:mbctype.obj
 0001:00023cde       ?fin$0@?0??update_thread_multibyte_data_internal@@YAPEAU__crt_multibyte_data@@QEAU__acrt_ptd@@QEAPEAU1@@Z@4HA 0000000180024cde f   libucrt:mbctype.obj
 0001:00023cf7       raise$fin$0                0000000180024cf7 f   libucrt:signal.obj
 0001:00023d18       ?fin$0@?0???$?RV<lambda_842d9ff0dc9ef11c61343bbaebe7f885>@@AEAV<lambda_c5860995281e5c4ce005b3de8f5874ee>@@V<lambda_d90129c13df834fdcbf8d2b88dafcf2d>@@@?$__crt_seh_guarded_call@X@@QEAAX$$QEAV<lambda_842d9ff0dc9ef11c61343bbaebe7f885>@@AEAV<lambda_c5860995281e5c4ce005b3de8f5874ee>@@$$QEAV<lambda_d90129c13df834fdcbf8d2b88dafcf2d>@@@Z@4HA 0000000180024d18 f   libucrt:fflush.obj
 0001:00023d33       ?fin$0@?0???$?RV<lambda_886d6c58226a84441f68b9f2b8217b83>@@AEAV<lambda_ab61a845afdef5b7c387490eaf3616ee>@@V<lambda_f7f22ab5edc0698d5f6905b0d3f44752>@@@?$__crt_seh_guarded_call@X@@QEAAX$$QEAV<lambda_886d6c58226a84441f68b9f2b8217b83>@@AEAV<lambda_ab61a845afdef5b7c387490eaf3616ee>@@$$QEAV<lambda_f7f22ab5edc0698d5f6905b0d3f44752>@@@Z@4HA 0000000180024d33 f   libucrt:fflush.obj
 0001:00023d50       __acrt_update_thread_locale_data$fin$0 0000000180024d50 f   libucrt:locale_refcounting.obj
 0001:00023d69       _fcloseall$fin$0           0000000180024d69 f   libucrt:closeall.obj
 0001:00023d82       ?fin$0@?0???$?RV<lambda_ad8af0d99a0adf03d037d7dffe354bb5>@@AEAV<lambda_c9ba49e555ba839a7b07aa3fbecb7617>@@V<lambda_2f1ebd5d68526518146ae959c9e734c8>@@@?$__crt_seh_guarded_call@H@@QEAAH$$QEAV<lambda_ad8af0d99a0adf03d037d7dffe354bb5>@@AEAV<lambda_c9ba49e555ba839a7b07aa3fbecb7617>@@$$QEAV<lambda_2f1ebd5d68526518146ae959c9e734c8>@@@Z@4HA 0000000180024d82 f   libucrt:close.obj
 0001:00023d82       ?fin$0@?0???$?RV<lambda_a37b2b86f63e897a80ea819b0eb08c01>@@AEAV<lambda_38ce7e780aa69e748d6df282ebc68efe>@@V<lambda_99fb1378e971ab6e7edea83e3a7a83a2>@@@?$__crt_seh_guarded_call@H@@QEAAH$$QEAV<lambda_a37b2b86f63e897a80ea819b0eb08c01>@@AEAV<lambda_38ce7e780aa69e748d6df282ebc68efe>@@$$QEAV<lambda_99fb1378e971ab6e7edea83e3a7a83a2>@@@Z@4HA 0000000180024d82 f   libucrt:commit.obj
 0001:00023d9c       _write_internal$fin$0      0000000180024d9c f   libucrt:write.obj
 0001:00023db3       ?fin$0@?0??_fclose_internal@@YAHQEAU_iobuf@@AEAV__crt_cached_ptd_host@@@Z@4HA 0000000180024db3 f   libucrt:fclose.obj
 0001:00023dcb       _ctrlfp$filt$0             0000000180024dcb f   libucrt:fpctrl.obj
 0001:00023dcb       common_control87$filt$0    0000000180024dcb f   libucrt:ieee.obj
 0001:00023e00       _IsNonwritableInCurrentImage$filt$0 0000000180024e00 f   LIBCMT:pesect.obj
 0001:00023e20       ??__F_AtlComModule@ATL@@YAXXZ 0000000180024e20 f   OposVariant.obj
 0001:00023e2c       ??__F_AtlWinModule@ATL@@YAXXZ 0000000180024e2c f   OposVariant.obj
 0001:00023e70       ??__F_Module@@YAXXZ        0000000180024e70 f   Lights.obj
 0001:00023e8c       ??__F_AtlBaseModule@ATL@@YAXXZ 0000000180024e8c f   atls:atlbase.obj
 0002:00000670       ?_AtlBaseModule$initializer$@ATL@@3P6AXXZEA 0000000180025670     atls:atlbase.obj
 0002:00000678       ?_AtlComModule$initializer$@ATL@@3P6AXXZEA 0000000180025678     OposVariant.obj
 0002:00000680       ?_AtlWinModule$initializer$@ATL@@3P6AXXZEA 0000000180025680     OposVariant.obj
 0002:00000688       ?_Module$initializer$@@3P6AXXZEA 0000000180025688     Lights.obj
 0002:00000690       ??pConnMap$initializer$@?$IConnectionPointContainerImpl@VCOPOSLights@@@ATL@@0P6AXXZEA@@3P6AXXZEA 0000000180025690     Lights.obj
 0002:000006a8       ?__scrt_initialize_tss_var@@3P6AHXZEA 00000001800256a8     LIBCMT:thread_safe_statics.obj
 0002:00002568       GS_ExceptionPointers       0000000180027568     LIBCMT:gs_report.obj
 0002:00002750       ?ExceptionTemplate@?1??UnwindNestedFrames@__FrameHandler4@@SAXPEA_KPEAUEHExceptionRecord@@PEAU_CONTEXT@@0PEAXPEAUFuncInfo4@FH4@@HHPEAUHandlerType4@6@PEAU_xDISPATCHER_CONTEXT@@E@Z@4U_EXCEPTION_RECORD@@B 0000000180027750     libvcruntime:risctrnsctrl.obj
 0002:000027f0       ?ExceptionTemplate@?1??UnwindNestedFrames@__FrameHandler3@@SAXPEA_KPEAUEHExceptionRecord@@PEAU_CONTEXT@@0PEAXPEBU_s_FuncInfo@@HHPEBU_s_HandlerType@@PEAU_xDISPATCHER_CONTEXT@@E@Z@4U_EXCEPTION_RECORD@@B 00000001800277f0     libvcruntime:risctrnsctrl.obj
 0002:000028c0       ?tokenTable@@3QBUStringLiteral@@B 00000001800278c0     libvcruntime:undname.obj
 0002:000029d0       ?nameTable@@3QBUStringLiteral@@B 00000001800279d0     libvcruntime:undname.obj
 0002:00002f00       ?rttiTable@@3QBUStringLiteral@@B 0000000180027f00     libvcruntime:undname.obj
 0002:00002f50       ?IndirectionName@@3QBUStringLiteral@@B 0000000180027f50     libvcruntime:undname.obj
 0002:00002fb0       ?PrefixName@@3QBUStringLiteral@@B 0000000180027fb0     libvcruntime:undname.obj
 0002:00003698       ?module_names@?A0xbc0cc709@@3QBQEB_WB 0000000180028698     libvcruntime:winapi_downlevel.obj
 0002:00003758       ?candidate_modules@?1??try_get_FlsAlloc@@YAP6AKP6AXPEAX@Z@ZXZ@4QBW4module_id@?A0xbc0cc709@@B 0000000180028758     libvcruntime:winapi_downlevel.obj
 0002:00003770       ?candidate_modules@?1??try_get_FlsFree@@YAP6AHK@ZXZ@4QBW4module_id@?A0xbc0cc709@@B 0000000180028770     libvcruntime:winapi_downlevel.obj
 0002:00003780       ?candidate_modules@?1??try_get_FlsGetValue@@YAP6APEAXK@ZXZ@4QBW4module_id@?A0xbc0cc709@@B 0000000180028780     libvcruntime:winapi_downlevel.obj
 0002:00003798       ?candidate_modules@?1??try_get_FlsSetValue@@YAP6AHKPEAX@ZXZ@4QBW4module_id@?A0xbc0cc709@@B 0000000180028798     libvcruntime:winapi_downlevel.obj
 0002:000037b0       ?candidate_modules@?1??try_get_InitializeCriticalSectionEx@@YAP6AHPEAU_RTL_CRITICAL_SECTION@@KK@ZXZ@4QBW4module_id@?A0xbc0cc709@@B 00000001800287b0     libvcruntime:winapi_downlevel.obj
 0002:000037e0       ?errtable@@3QBUerrentry@?A0x31fdb9ec@@B 00000001800287e0     libucrt:errno.obj
 0002:00003b48       $cppxdata$?try_cor_exit_process@@YAXI@Z 0000000180028b48     libucrt:exit.obj
 0002:00003b70       $cppxdata$?common_exit@@YAXHW4_crt_exit_cleanup_mode@@W4_crt_exit_return_mode@@@Z 0000000180028b70     libucrt:exit.obj
 0002:00003bc0       $cppxdata$__dcrt_uninitialize_environments_nolock 0000000180028bc0     libucrt:environment_initialization.obj
 0002:00003be8       $cppxdata$_execute_onexit_table 0000000180028be8     libucrt:onexit.obj
 0002:00003c10       __acrt_initializers        0000000180028c10     libucrt:initialization.obj
 0002:00004390       ?module_names@?A0x391cf84c@@3QBQEB_WB 0000000180029390     libucrt:winapi_thunks.obj
 0002:00004898       ?candidate_modules@?1??try_get_AreFileApisANSI@@YAP6AHXZXZ@4QBW4module_id@?A0x391cf84c@@B 0000000180029898     libucrt:winapi_thunks.obj
 0002:000048b0       ?candidate_modules@?1??try_get_InitializeCriticalSectionEx@@YAP6AHPEAU_RTL_CRITICAL_SECTION@@KK@ZXZ@4QBW4module_id@?A0x391cf84c@@B 00000001800298b0     libucrt:winapi_thunks.obj
 0002:000048b8       ?candidate_modules@?1??try_get_LCMapStringEx@@YAP6AHPEB_WK0HPEA_WHPEAU_nlsversioninfo@@PEAX_J@ZXZ@4QBW4module_id@?A0x391cf84c@@B 00000001800298b8     libucrt:winapi_thunks.obj
 0002:000048d0       ?candidate_modules@?1??try_get_LocaleNameToLCID@@YAP6AKPEB_WK@ZXZ@4QBW4module_id@?A0x391cf84c@@B 00000001800298d0     libucrt:winapi_thunks.obj
 0002:000048ec       ?candidate_modules@?1??try_get_AppPolicyGetProcessTerminationMethod@@YAP6AJPEAXPEAW4AppPolicyProcessTerminationMethod@@@ZXZ@4QBW4module_id@?A0x391cf84c@@B 00000001800298ec     libucrt:winapi_thunks.obj
 0002:00004918       ?candidate_modules@?1??try_get_SetThreadStackGuarantee@@YAP6AHPEAK@ZXZ@4QBW4module_id@?A0x391cf84c@@B 0000000180029918     libucrt:winapi_thunks.obj
 0002:00004940       ?strings@?1??fp_format_nan_or_infinity@@YAHW4__acrt_fp_class@@_NPEAD_K1@Z@4QAY03QEBDA 0000000180029940     libucrt:cvt.obj
 0002:00004a18       ?_mb_locale_names@@3QBQEB_WB 0000000180029a18     libucrt:mbctype.obj
 0002:00005090       ?LcidToLocaleNameTable@?A0x881e4c05@@3QBULcidToLocaleName@1@B 000000018002a090     libucrt:lcidtoname_downlevel.obj
 0002:00006ae0       ?LocaleNameToIndexTable@?A0x881e4c05@@3QBULocaleNameIndex@1@B 000000018002bae0     libucrt:lcidtoname_downlevel.obj
 0002:00008d70       $cppxdata$?write_double_translated_ansi_nolock@@YA?AUwrite_result@?A0x17268360@@HQEBDIAEAV__crt_cached_ptd_host@@@Z 000000018002dd70     libucrt:write.obj
 0002:00008da0       __real_ninf                000000018002dda0     libucrt:log10.obj
 0002:00008db0       __real_inf                 000000018002ddb0     libucrt:log10.obj
 0002:00008dc0       __real_neg_qnan            000000018002ddc0     libucrt:log10.obj
 0002:00008dd0       __real_qnanbit             000000018002ddd0     libucrt:log10.obj
 0002:00008de0       __int_1023                 000000018002dde0     libucrt:log10.obj
 0002:00008df0       __mask_001                 000000018002ddf0     libucrt:log10.obj
 0002:00008e00       __mask_mant                000000018002de00     libucrt:log10.obj
 0002:00008e10       __mask_mant_top8           000000018002de10     libucrt:log10.obj
 0002:00008e20       __mask_mant9               000000018002de20     libucrt:log10.obj
 0002:00008e30       __real_log10_e             000000018002de30     libucrt:log10.obj
 0002:00008e40       __real_log10_e_lead        000000018002de40     libucrt:log10.obj
 0002:00008e50       __real_log10_e_tail        000000018002de50     libucrt:log10.obj
 0002:00008e60       __real_log10_2_lead        000000018002de60     libucrt:log10.obj
 0002:00008e70       __real_log10_2_tail        000000018002de70     libucrt:log10.obj
 0002:00008e80       __real_two                 000000018002de80     libucrt:log10.obj
 0002:00008e90       __real_one                 000000018002de90     libucrt:log10.obj
 0002:00008ea0       __real_half                000000018002dea0     libucrt:log10.obj
 0002:00008eb0       __mask_100                 000000018002deb0     libucrt:log10.obj
 0002:00008ec0       __real_1_over_512          000000018002dec0     libucrt:log10.obj
 0002:00008ed0       __real_1_over_2            000000018002ded0     libucrt:log10.obj
 0002:00008ee0       __real_1_over_3            000000018002dee0     libucrt:log10.obj
 0002:00008ef0       __real_1_over_4            000000018002def0     libucrt:log10.obj
 0002:00008f00       __real_1_over_5            000000018002df00     libucrt:log10.obj
 0002:00008f10       __real_1_over_6            000000018002df10     libucrt:log10.obj
 0002:00008f20       __real_neg_1023            000000018002df20     libucrt:log10.obj
 0002:00008f30       __mask_2045                000000018002df30     libucrt:log10.obj
 0002:00008f40       __real_threshold           000000018002df40     libucrt:log10.obj
 0002:00008f50       __real_near_one_lt         000000018002df50     libucrt:log10.obj
 0002:00008f60       __real_near_one_gt         000000018002df60     libucrt:log10.obj
 0002:00008f70       __real_min_norm            000000018002df70     libucrt:log10.obj
 0002:00008f80       __real_notsign             000000018002df80     libucrt:log10.obj
 0002:00008f90       __real_ca1                 000000018002df90     libucrt:log10.obj
 0002:00008fa0       __real_ca2                 000000018002dfa0     libucrt:log10.obj
 0002:00008fb0       __real_ca3                 000000018002dfb0     libucrt:log10.obj
 0002:00008fc0       __real_ca4                 000000018002dfc0     libucrt:log10.obj
 0002:00008fd0       __mask_lower               000000018002dfd0     libucrt:log10.obj
 0002:00008fe0       __flag_x_zero              000000018002dfe0     libucrt:log10.obj
 0002:00008fe4       __flag_x_neg               000000018002dfe4     libucrt:log10.obj
 0002:00008fe8       __flag_x_nan               000000018002dfe8     libucrt:log10.obj
 0002:0000a840       __real@433fffffffffffff    000000018002f840     libucrt:fpsr.obj
 0002:0000a848       __real@c33fffffffffffff    000000018002f848     libucrt:fpsr.obj
 0002:0000b148       $unwind$?cw_memcpy@@YAHPEA_WPEBDH@Z 0000000180030148     CWString.obj
 0002:0000b148       $unwind$_invalid_parameter_noinfo 0000000180030148     libucrt:invalid_parameter.obj
 0002:0000b148       $unwind$?state_case_size@?$output_processor@_WV?$string_output_adapter@_W@__crt_stdio_output@@V?$format_validation_base@_WV?$string_output_adapter@_W@__crt_stdio_output@@@2@@__crt_stdio_output@@AEAA_NXZ 0000000180030148     libucrt:output.obj
 0002:0000b148       $unwind$_log10_special     0000000180030148     libucrt:log_special.obj
 0002:0000b150       $unwind$?cw_strcpy@@YAHPEA_WPEBD@Z 0000000180030150     CWString.obj
 0002:0000b150       $unwind$??__E?pConnMap@?$IConnectionPointContainerImpl@VCOPOSLights@@@ATL@@0PEBU_ATL_CONNMAP_ENTRY@2@EB@@YAXXZ 0000000180030150     Lights.obj
 0002:0000b150       $unwind$?AddReplacement@CRegObject@ATL@@UEAAJPEB_W0@Z 0000000180030150     Lights.obj
 0002:0000b150       $unwind$?AtlHresultFromLastError@ATL@@YAJXZ 0000000180030150     Lights.obj
 0002:0000b150       $unwind$?AtlThrowImpl@ATL@@YAXJ@Z 0000000180030150     Lights.obj
 0002:0000b150       $unwind$?CreateInstance@CComClassFactory@ATL@@UEAAJPEAUIUnknown@@AEBU_GUID@@PEAPEAX@Z 0000000180030150     Lights.obj
 0002:0000b150       $unwind$?DefaultReflectionHandler@?$CWindowImplRoot@VCWindow@ATL@@@ATL@@SAHPEAUHWND__@@I_K_JAEA_J@Z 0000000180030150     Lights.obj
 0002:0000b150       $unwind$?EnumAdvise@?$IOleObjectImpl@VCOPOSLights@@@ATL@@UEAAJPEAPEAUIEnumSTATDATA@@@Z 0000000180030150     Lights.obj
 0002:0000b150       $unwind$?FireViewChange@CComControlBase@ATL@@QEAAJXZ 0000000180030150     Lights.obj
 0002:0000b150       $unwind$?GetAdvise@?$IViewObjectExImpl@VCOPOSLights@@@ATL@@UEAAJPEAK0PEAPEAUIAdviseSink@@@Z 0000000180030150     Lights.obj
 0002:0000b150       $unwind$?LockServer@CComClassFactory@ATL@@UEAAJH@Z 0000000180030150     Lights.obj
 0002:0000b150       $unwind$?OnDocWindowActivate@?$IOleInPlaceActiveObjectImpl@VCOPOSLights@@@ATL@@UEAAJH@Z 0000000180030150     Lights.obj
 0002:0000b150       $unwind$?Unadvise@?$IOleObjectImpl@VCOPOSLights@@@ATL@@UEAAJK@Z 0000000180030150     Lights.obj
 0002:0000b150       $unwind$?_LocCPQueryInterface@?$IConnectionPointImpl@VCOPOSLights@@$1?DIID__IOPOSLightsEvents@@3U_GUID@@BVCComDynamicUnkArray@ATL@@@ATL@@UEAAJAEBU_GUID@@PEAPEAX@Z 0000000180030150     Lights.obj
 0002:0000b150       $unwind$?_LocCPQueryInterface@?$IConnectionPointImpl@VCOPOSLights@@$1?IID_IPropertyNotifySink@@3U_GUID@@BVCComDynamicUnkArray@ATL@@@ATL@@UEAAJAEBU_GUID@@PEAPEAX@Z 0000000180030150     Lights.obj
 0002:0000b150       $unwind$?FinalConstruct@COPOSLights@@QEAAJXZ 0000000180030150     LightsImpl.obj
 0002:0000b150       $unwind$?get_ResultCode@COPOSLights@@UEAAJPEAJ@Z 0000000180030150     LightsImpl.obj
 0002:0000b150       $unwind$?get_State@COPOSLights@@UEAAJPEAJ@Z 0000000180030150     LightsImpl.obj
 0002:0000b150       $unwind$??1OposDispParms@@QEAA@XZ 0000000180030150     OposVariant.obj
 0002:0000b150       $unwind$??__E_AtlComModule@ATL@@YAXXZ 0000000180030150     OposVariant.obj
 0002:0000b150       $unwind$??__E_AtlWinModule@ATL@@YAXXZ 0000000180030150     OposVariant.obj
 0002:0000b150       $unwind$??__F_AtlWinModule@ATL@@YAXXZ 0000000180030150     OposVariant.obj
 0002:0000b150       $unwind$?GetLONG@OposVariant@@QEAAJXZ 0000000180030150     OposVariant.obj
 0002:0000b150       $unwind$__dcrt_terminate_console_output 0000000180030150     libucrt:initcon.obj
 0002:0000b150       $unwind$??$uninitialize_environment_internal@D@@YAXAEAPEAPEAD@Z 0000000180030150     libucrt:environment_initialization.obj
 0002:0000b150       $unwind$??$uninitialize_environment_internal@_W@@YAXAEAPEAPEA_W@Z 0000000180030150     libucrt:environment_initialization.obj
 0002:0000b150       $unwind$__acrt_initialize_heap 0000000180030150     libucrt:heap_handle.obj
 0002:0000b150       $unwind$_msize_base        0000000180030150     libucrt:msize.obj
 0002:0000b150       $unwind$?initialize_multibyte@@YAHXZ 0000000180030150     libucrt:multibyte_initializer.obj
 0002:0000b150       $unwind$__acrt_thread_attach 0000000180030150     libucrt:initialization.obj
 0002:0000b150       $unwind$__acrt_thread_detach 0000000180030150     libucrt:initialization.obj
 0002:0000b150       $unwind$__acrt_uninitialize 0000000180030150     libucrt:initialization.obj
 0002:0000b150       $unwind$__acrt_uninitialize_critical 0000000180030150     libucrt:initialization.obj
 0002:0000b150       $unwind$initialize_c       0000000180030150     libucrt:initialization.obj
 0002:0000b150       $unwind$uninitialize_allocated_io_buffers 0000000180030150     libucrt:initialization.obj
 0002:0000b150       $unwind$uninitialize_environment 0000000180030150     libucrt:initialization.obj
 0002:0000b150       $unwind$__acrt_initialize_ptd 0000000180030150     libucrt:per_thread_data.obj
 0002:0000b150       $unwind$__acrt_uninitialize_ptd 0000000180030150     libucrt:per_thread_data.obj
 0002:0000b150       $unwind$__acrt_AreFileApisANSI 0000000180030150     libucrt:winapi_thunks.obj
 0002:0000b150       $unwind$__acrt_release_locale_ref 0000000180030150     libucrt:locale_refcounting.obj
 0002:0000b150       $unwind$_isatty            0000000180030150     libucrt:isatty.obj
 0002:0000b150       $unwind$_get_osfhandle     0000000180030150     libucrt:osfinfo.obj
 0002:0000b150       $unwind$__acrt_initialize_multibyte 0000000180030150     libucrt:mbctype.obj
 0002:0000b150       $unwind$__acrt_update_thread_multibyte_data 0000000180030150     libucrt:mbctype.obj
 0002:0000b150       $unwind$__doserrno         0000000180030150     libucrt:errno.obj
 0002:0000b150       $unwind$_errno             0000000180030150     libucrt:errno.obj
 0002:0000b150       $unwind$_invoke_watson     0000000180030150     libucrt:invalid_parameter.obj
 0002:0000b150       $unwind$abort              0000000180030150     libucrt:abort.obj
 0002:0000b150       $unwind$__acrt_initialize_command_line 0000000180030150     libucrt:argv_data.obj
 0002:0000b150       $unwind$?should_call_terminate_process@@YA_NXZ 0000000180030150     libucrt:exit.obj
 0002:0000b150       $unwind$_fileno            0000000180030150     libucrt:fileno.obj
 0002:0000b150       $unwind$_statfp            0000000180030150     libucrt:fpctrl.obj
 0002:0000b150       $unwind$fegetround         0000000180030150     libucrt:fegetround.obj
 0002:0000b150       $unwind$_set_errno_from_matherr 0000000180030150     libucrt:fpexcept.obj
 0002:0000b150       $unwind$??__E_AtlBaseModule@ATL@@YAXXZ 0000000180030150     atls:atlbase.obj
 0002:0000b150       $unwind$__scrt_initialize_default_local_stdio_options 0000000180030150     LIBCMT:default_local_stdio_options.obj
 0002:0000b150       $unwind$?dllmain_crt_dispatch@@YAHQEAUHINSTANCE__@@KQEAX@Z 0000000180030150     LIBCMT:dll_dllmain.obj
 0002:0000b150       $unwind$__report_rangecheckfailure 0000000180030150     LIBCMT:gs_report.obj
 0002:0000b150       $unwind$__GSHandlerCheck   0000000180030150     LIBCMT:gshandler.obj
 0002:0000b150       $unwind$?__scrt_uninitialize_thread_safe_statics@@YAXXZ 0000000180030150     LIBCMT:thread_safe_statics.obj
 0002:0000b150       $unwind$_Init_thread_notify 0000000180030150     LIBCMT:thread_safe_statics.obj
 0002:0000b150       $unwind$__scrt_acquire_startup_lock 0000000180030150     LIBCMT:utility.obj
 0002:0000b150       $unwind$__scrt_dllmain_after_initialize_c 0000000180030150     LIBCMT:utility.obj
 0002:0000b150       $unwind$__scrt_dllmain_before_initialize_c 0000000180030150     LIBCMT:utility.obj
 0002:0000b150       $unwind$__scrt_dllmain_crt_thread_attach 0000000180030150     LIBCMT:utility.obj
 0002:0000b150       $unwind$__scrt_dllmain_crt_thread_detach 0000000180030150     LIBCMT:utility.obj
 0002:0000b150       $unwind$__scrt_dllmain_uninitialize_c 0000000180030150     LIBCMT:utility.obj
 0002:0000b150       $unwind$__scrt_dllmain_uninitialize_critical 0000000180030150     LIBCMT:utility.obj
 0002:0000b150       $unwind$atexit             0000000180030150     LIBCMT:utility.obj
 0002:0000b150       $unwind$__std_terminate    0000000180030150     libvcruntime:ehhelpers.obj
 0002:0000b150       $unwind$?GetCurrentState@__FrameHandler3@@SAHPEA_KPEAU_xDISPATCHER_CONTEXT@@PEBU_s_FuncInfo@@@Z 0000000180030150     libvcruntime:ehstate.obj
 0002:0000b150       $unwind$__vcrt_initialize  0000000180030150     libvcruntime:initialization.obj
 0002:0000b150       $unwind$__vcrt_thread_attach 0000000180030150     libvcruntime:initialization.obj
 0002:0000b150       $unwind$__vcrt_thread_detach 0000000180030150     libvcruntime:initialization.obj
 0002:0000b150       $unwind$__vcrt_uninitialize 0000000180030150     libvcruntime:initialization.obj
 0002:0000b150       $unwind$__vcrt_uninitialize_critical 0000000180030150     libvcruntime:initialization.obj
 0002:0000b150       $unwind$__vcrt_freefls     0000000180030150     libvcruntime:per_thread_data.obj
 0002:0000b150       $unwind$__vcrt_getptd      0000000180030150     libvcruntime:per_thread_data.obj
 0002:0000b150       $unwind$__vcrt_initialize_ptd 0000000180030150     libvcruntime:per_thread_data.obj
 0002:0000b150       $unwind$__vcrt_uninitialize_ptd 0000000180030150     libvcruntime:per_thread_data.obj
 0002:0000b150       $unwind$_purecall          0000000180030150     libvcruntime:purevirt.obj
 0002:0000b150       $unwind$?FrameUnwindToEmptyState@__FrameHandler4@@SAXPEA_KPEAU_xDISPATCHER_CONTEXT@@PEAUFuncInfo4@FH4@@@Z 0000000180030150     libvcruntime:risctrnsctrl.obj
 0002:0000b150       $unwind$_GetImageBase      0000000180030150     libvcruntime:risctrnsctrl.obj
 0002:0000b150       $unwind$_GetThrowImageBase 0000000180030150     libvcruntime:risctrnsctrl.obj
 0002:0000b158       $unwind$?cw_dup@@YAXPEBDAEAHAEAPEA_W1@Z 0000000180030158     CWString.obj
 0002:0000b158       $unwind$?DAdvise@?$IDataObjectImpl@VCOPOSLights@@@ATL@@UEAAJPEAUtagFORMATETC@@KPEAUIAdviseSink@@PEAK@Z 0000000180030158     Lights.obj
 0002:0000b158       $unwind$??$create_environment@D@@YAQEAPEADQEAD@Z 0000000180030158     libucrt:environment_initialization.obj
 0002:0000b158       $unwind$_mbtowc_internal   0000000180030158     libucrt:mbtowc.obj
 0002:0000b158       $unwind$??$__acrt_convert_wcs_mbs_cp@D_WV<lambda_7c9dea7b4ca7285d2cdb541a38da6275>@@U__crt_win32_buffer_internal_dynamic_resizing@@@@YAHQEBDAEAV?$__crt_win32_buffer@_WU__crt_win32_buffer_internal_dynamic_resizing@@@@AEBV<lambda_7c9dea7b4ca7285d2cdb541a38da6275>@@I@Z 0000000180030158     libucrt:argv_wildcards.obj
 0002:0000b158       $unwind$?process@?$output_processor@_WV?$string_output_adapter@_W@__crt_stdio_output@@V?$format_validation_base@_WV?$string_output_adapter@_W@__crt_stdio_output@@@2@@__crt_stdio_output@@QEAAHXZ 0000000180030158     libucrt:output.obj
 0002:0000b170       $unwind$?DupWide@_CW@@AEAAXXZ 0000000180030170     CWString.obj
 0002:0000b170       $unwind$??0?$CComObject@VCOPOSLights@@@ATL@@QEAA@PEAX@Z 0000000180030170     Lights.obj
 0002:0000b170       $unwind$??0CAtlModule@ATL@@QEAA@XZ 0000000180030170     Lights.obj
 0002:0000b170       $unwind$??1?$CComObject@VCOPOSLights@@@ATL@@UEAA@XZ 0000000180030170     Lights.obj
 0002:0000b170       $unwind$??__E_Module@@YAXXZ 0000000180030170     Lights.obj
 0002:0000b170       $unwind$?AddRef@?$CComObjectCached@VCComClassFactory@ATL@@@ATL@@UEAAKXZ 0000000180030170     Lights.obj
 0002:0000b170       $unwind$?AllocateHeap@?$CTempBuffer@E$0BAA@VCCRTAllocator@ATL@@@ATL@@AEAAX_K@Z 0000000180030170     Lights.obj
 0002:0000b170       $unwind$?AllocateHeap@?$CTempBuffer@_W$0BAA@VCCRTAllocator@ATL@@@ATL@@AEAAX_K@Z 0000000180030170     Lights.obj
 0002:0000b170       $unwind$?AllocateHeap@?$CTempBuffer@_W$0EAA@VCCRTAllocator@ATL@@@ATL@@AEAAX_K@Z 0000000180030170     Lights.obj
 0002:0000b170       $unwind$?GetClassInfoW@?$IProvideClassInfo2Impl@$1?CLSID_OPOSLights@@3U_GUID@@B$1?DIID__IOPOSLightsEvents@@3U2@B$1?LIBID_OposLights_CCO@@3U2@B$00$0A@VCComTypeInfoHolder@ATL@@@ATL@@UEAAJPEAPEAUITypeInfo@@@Z 0000000180030170     Lights.obj
 0002:0000b170       $unwind$?GetClientSite@?$IOleObjectImpl@VCOPOSLights@@@ATL@@UEAAJPEAPEAUIOleClientSite@@@Z 0000000180030170     Lights.obj
 0002:0000b170       $unwind$?GetConnMap@COPOSLights@@SAPEBU_ATL_CONNMAP_ENTRY@ATL@@PEAH@Z 0000000180030170     Lights.obj
 0002:0000b170       $unwind$?GetTypeInfo@?$IDispatchImpl@UIOPOSLights@@$1?IID_IOPOSLights@@3U_GUID@@B$1?LIBID_OposLights_CCO@@3U3@B$00$0A@VCComTypeInfoHolder@ATL@@@ATL@@UEAAJIKPEAPEAUITypeInfo@@@Z 0000000180030170     Lights.obj
 0002:0000b170       $unwind$?IOleInPlaceObject_InPlaceDeactivate@CComControlBase@ATL@@QEAAJXZ 0000000180030170     Lights.obj
 0002:0000b170       $unwind$?IOleObject_SetExtent@CComControlBase@ATL@@QEAAJKPEAUtagSIZE@@@Z 0000000180030170     Lights.obj
 0002:0000b170       $unwind$?IsEqualObject@?$CComPtrBase@UIOleClientSite@@@ATL@@QEAA_NPEAUIUnknown@@@Z 0000000180030170     Lights.obj
 0002:0000b170       $unwind$?QueryHitPoint@?$IViewObjectExImpl@VCOPOSLights@@@ATL@@UEAAJKPEBUtagRECT@@UtagPOINT@@JPEAK@Z 0000000180030170     Lights.obj
 0002:0000b170       $unwind$?QueryInterface@?$CComAggObject@VCOPOSLights@@@ATL@@UEAAJAEBU_GUID@@PEAPEAX@Z 0000000180030170     Lights.obj
 0002:0000b170       $unwind$?Release@?$CComObjectCached@VCComClassFactory@ATL@@@ATL@@UEAAKXZ 0000000180030170     Lights.obj
 0002:0000b170       $unwind$?Unadvise@?$IConnectionPointImpl@VCOPOSLights@@$1?DIID__IOPOSLightsEvents@@3U_GUID@@BVCComDynamicUnkArray@ATL@@@ATL@@UEAAJK@Z 0000000180030170     Lights.obj
 0002:0000b170       $unwind$?Unadvise@?$IConnectionPointImpl@VCOPOSLights@@$1?IID_IPropertyNotifySink@@3U_GUID@@BVCComDynamicUnkArray@ATL@@@ATL@@UEAAJK@Z 0000000180030170     Lights.obj
 0002:0000b170       $unwind$??1CComControlBase@ATL@@UEAA@XZ 0000000180030170     LightsImpl.obj
 0002:0000b170       $unwind$??1COPOSLights@@UEAA@XZ 0000000180030170     LightsImpl.obj
 0002:0000b170       $unwind$?EventUninit@COPOSLights@@IEAAXXZ 0000000180030170     LightsImpl.obj
 0002:0000b170       $unwind$?FreezeEvents@COPOSLights@@MEAAJH@Z 0000000180030170     LightsImpl.obj
 0002:0000b170       $unwind$?SOProcessID@COPOSLights@@UEAAJPEAJ@Z 0000000180030170     LightsImpl.obj
 0002:0000b170       $unwind$?get_CapBlink@COPOSLights@@UEAAJPEAF@Z 0000000180030170     LightsImpl.obj
 0002:0000b170       $unwind$?get_CapCompareFirmwareVersion@COPOSLights@@UEAAJPEAF@Z 0000000180030170     LightsImpl.obj
 0002:0000b170       $unwind$?get_CapStatisticsReporting@COPOSLights@@UEAAJPEAF@Z 0000000180030170     LightsImpl.obj
 0002:0000b170       $unwind$?get_CapUpdateFirmware@COPOSLights@@UEAAJPEAF@Z 0000000180030170     LightsImpl.obj
 0002:0000b170       $unwind$?get_CapUpdateStatistics@COPOSLights@@UEAAJPEAF@Z 0000000180030170     LightsImpl.obj
 0002:0000b170       $unwind$?get_Claimed@COPOSLights@@UEAAJPEAF@Z 0000000180030170     LightsImpl.obj
 0002:0000b170       $unwind$?get_DeviceEnabled@COPOSLights@@UEAAJPEAF@Z 0000000180030170     LightsImpl.obj
 0002:0000b170       $unwind$?get_FreezeEvents@COPOSLights@@UEAAJPEAF@Z 0000000180030170     LightsImpl.obj
 0002:0000b170       $unwind$?put_FreezeEvents@COPOSLights@@UEAAJF@Z 0000000180030170     LightsImpl.obj
 0002:0000b170       $unwind$??0CAtlComModule@ATL@@QEAA@XZ 0000000180030170     OposVariant.obj
 0002:0000b170       $unwind$??0CAtlWinModule@ATL@@QEAA@XZ 0000000180030170     OposVariant.obj
 0002:0000b170       $unwind$_calloc_base       0000000180030170     libucrt:calloc_base.obj
 0002:0000b170       $unwind$_malloc_base       0000000180030170     libucrt:malloc_base.obj
 0002:0000b170       $unwind$_callnewh          0000000180030170     libucrt:new_handler.obj
 0002:0000b170       $unwind$initialize_pointers 0000000180030170     libucrt:initialization.obj
 0002:0000b170       $unwind$uninitialize_allocated_memory 0000000180030170     libucrt:initialization.obj
 0002:0000b170       $unwind$__acrt_initialize_locks 0000000180030170     libucrt:locks.obj
 0002:0000b170       $unwind$__acrt_uninitialize_locks 0000000180030170     libucrt:locks.obj
 0002:0000b170       $unwind$__acrt_freeptd     0000000180030170     libucrt:per_thread_data.obj
 0002:0000b170       $unwind$__acrt_getptd_head 0000000180030170     libucrt:per_thread_data.obj
 0002:0000b170       $unwind$__acrt_get_process_end_policy 0000000180030170     libucrt:win_policies.obj
 0002:0000b170       $unwind$__acrt_AppPolicyGetProcessTerminationMethodInternal 0000000180030170     libucrt:winapi_thunks.obj
 0002:0000b170       $unwind$__acrt_SetThreadStackGuarantee 0000000180030170     libucrt:winapi_thunks.obj
 0002:0000b170       $unwind$__acrt_uninitialize_winapi_thunks 0000000180030170     libucrt:winapi_thunks.obj
 0002:0000b170       $unwind$__acrt_update_locale_info 0000000180030170     libucrt:locale_update.obj
 0002:0000b170       $unwind$__acrt_update_locale_info_explicit 0000000180030170     libucrt:locale_update.obj
 0002:0000b170       $unwind$__acrt_update_multibyte_info 0000000180030170     libucrt:locale_update.obj
 0002:0000b170       $unwind$__acrt_update_multibyte_info_explicit 0000000180030170     libucrt:locale_update.obj
 0002:0000b170       $unwind$__acrt_errno_map_os_error 0000000180030170     libucrt:errno.obj
 0002:0000b170       $unwind$__acrt_errno_map_os_error_ptd 0000000180030170     libucrt:errno.obj
 0002:0000b170       $unwind$__acrt_allocate_buffer_for_argv 0000000180030170     libucrt:argv_parsing.obj
 0002:0000b170       $unwind$?exit_or_terminate_process@@YAXI@Z 0000000180030170     libucrt:exit.obj
 0002:0000b170       $unwind$__acrt_uninitialize_stdio 0000000180030170     libucrt:_file.obj
 0002:0000b170       $unwind$__acrt_stdio_free_buffer_nolock 0000000180030170     libucrt:_freebuf.obj
 0002:0000b170       $unwind$strcpy_s           0000000180030170     libucrt:strcpy_s.obj
 0002:0000b170       $unwind$wcscat_s           0000000180030170     libucrt:wcscat_s.obj
 0002:0000b170       $unwind$wcscpy_s           0000000180030170     libucrt:wcscpy_s.obj
 0002:0000b170       $unwind$_clrfp             0000000180030170     libucrt:fpctrl.obj
 0002:0000b170       $unwind$_set_statfp        0000000180030170     libucrt:fpctrl.obj
 0002:0000b170       $unwind$_clearfp           0000000180030170     libucrt:ieee.obj
 0002:0000b170       $unwind$_controlfp_s       0000000180030170     libucrt:contrlfp.obj
 0002:0000b170       $unwind$fegetenv           0000000180030170     libucrt:fegetenv.obj
 0002:0000b170       $unwind$feholdexcept       0000000180030170     libucrt:feholdexcept.obj
 0002:0000b170       $unwind$fesetenv           0000000180030170     libucrt:fesetenv.obj
 0002:0000b170       $unwind$??1CAtlBaseModule@ATL@@QEAA@XZ 0000000180030170     atls:atlbase.obj
 0002:0000b170       $unwind$AtlThunk_AllocateData 0000000180030170     atls:atlthunk.obj
 0002:0000b170       $unwind$__raise_securityfailure 0000000180030170     LIBCMT:gs_report.obj
 0002:0000b170       $unwind$??2@YAPEAX_K@Z     0000000180030170     LIBCMT:new_scalar.obj
 0002:0000b170       $unwind$??_Gtype_info@@UEAAPEAXI@Z 0000000180030170     LIBCMT:std_type_info_static.obj
 0002:0000b170       $unwind$_Init_thread_footer 0000000180030170     LIBCMT:thread_safe_statics.obj
 0002:0000b170       $unwind$_Init_thread_header 0000000180030170     LIBCMT:thread_safe_statics.obj
 0002:0000b170       $unwind$_Init_thread_wait  0000000180030170     LIBCMT:thread_safe_statics.obj
 0002:0000b170       $unwind$??0bad_alloc@std@@QEAA@AEBV01@@Z 0000000180030170     LIBCMT:throw_bad_alloc.obj
 0002:0000b170       $unwind$??0bad_array_new_length@std@@QEAA@AEBV01@@Z 0000000180030170     LIBCMT:throw_bad_alloc.obj
 0002:0000b170       $unwind$??0exception@std@@QEAA@AEBV01@@Z 0000000180030170     LIBCMT:throw_bad_alloc.obj
 0002:0000b170       $unwind$__scrt_initialize_crt 0000000180030170     LIBCMT:utility.obj
 0002:0000b170       $unwind$__scrt_initialize_onexit_tables 0000000180030170     LIBCMT:utility.obj
 0002:0000b170       $unwind$__scrt_release_startup_lock 0000000180030170     LIBCMT:utility.obj
 0002:0000b170       $unwind$__scrt_uninitialize_crt 0000000180030170     LIBCMT:utility.obj
 0002:0000b170       $unwind$_onexit            0000000180030170     LIBCMT:utility.obj
 0002:0000b170       $unwind$_IsExceptionObjectToBeDestroyed 0000000180030170     libvcruntime:ehhelpers.obj
 0002:0000b170       $unwind$?GetUnwindTryBlock@__FrameHandler3@@SAHPEA_KPEAU_xDISPATCHER_CONTEXT@@PEBU_s_FuncInfo@@@Z 0000000180030170     libvcruntime:ehstate.obj
 0002:0000b170       $unwind$?StateFromIp@__FrameHandler3@@SAHPEBU_s_FuncInfo@@PEAU_xDISPATCHER_CONTEXT@@_K@Z 0000000180030170     libvcruntime:ehstate.obj
 0002:0000b170       $unwind$??0HandlerMap4@FH4@@QEAA@PEBUTryBlockMapEntry4@1@_KH@Z 0000000180030170     libvcruntime:frame.obj
 0002:0000b170       $unwind$??0bad_exception@std@@QEAA@AEBV01@@Z 0000000180030170     libvcruntime:frame.obj
 0002:0000b170       $unwind$__vcrt_initialize_locks 0000000180030170     libvcruntime:locks.obj
 0002:0000b170       $unwind$__vcrt_uninitialize_locks 0000000180030170     libvcruntime:locks.obj
 0002:0000b170       $unwind$__vcrt_freeptd     0000000180030170     libvcruntime:per_thread_data.obj
 0002:0000b170       $unwind$?ExecutionInCatch@__FrameHandler3@@SA_NPEAU_xDISPATCHER_CONTEXT@@PEBU_s_FuncInfo@@@Z 0000000180030170     libvcruntime:risctrnsctrl.obj
 0002:0000b170       $unwind$_CreateFrameInfo   0000000180030170     libvcruntime:risctrnsctrl.obj
 0002:0000b170       $unwind$_SetImageBase      0000000180030170     libvcruntime:risctrnsctrl.obj
 0002:0000b170       $unwind$_SetThrowImageBase 0000000180030170     libvcruntime:risctrnsctrl.obj
 0002:0000b170       $unwind$__std_exception_destroy 0000000180030170     libvcruntime:std_exception.obj
 0002:0000b170       $unwind$__std_type_info_destroy_list 0000000180030170     libvcruntime:std_type_info.obj
 0002:0000b170       $unwind$__vcrt_FlsAlloc    0000000180030170     libvcruntime:winapi_downlevel.obj
 0002:0000b170       $unwind$__vcrt_FlsFree     0000000180030170     libvcruntime:winapi_downlevel.obj
 0002:0000b170       $unwind$__vcrt_FlsGetValue 0000000180030170     libvcruntime:winapi_downlevel.obj
 0002:0000b178       $unwind$?AtlWinModuleExtractCreateWndData@ATL@@YAPEAXPEAU_ATL_WIN_MODULE70@1@@Z 0000000180030178     Lights.obj
 0002:0000b178       $unwind$?CreateInstance@?$CComCreator@V?$CComObject@VCOPOSLights@@@ATL@@@ATL@@SAJPEAXAEBU_GUID@@PEAPEAX@Z 0000000180030178     Lights.obj
 0002:0000b178       $unwind$?DoEvent@COPOSLights@@IEAAXI_K_J@Z 0000000180030178     Lights.obj
 0002:0000b178       $unwind$?DoVerb@?$IOleObjectImpl@VCOPOSLights@@@ATL@@UEAAJJPEAUtagMSG@@PEAUIOleClientSite@@JPEAUHWND__@@PEBUtagRECT@@@Z 0000000180030178     Lights.obj
 0002:0000b178       $unwind$?HKeyFromString@CRegParser@ATL@@KAPEAUHKEY__@@PEA_W@Z 0000000180030178     Lights.obj
 0002:0000b178       $unwind$?Next@?$CComEnumImpl@UIEnumConnectionPoints@@$1?_GUID_b196b285_bab4_101a_b69c_00aa00341d07@@3U__s_GUID@@BPEAUIConnectionPoint@@V?$_CopyInterface@UIConnectionPoint@@@ATL@@@ATL@@UEAAJKPEAPEAUIConnectionPoint@@PEAK@Z 0000000180030178     Lights.obj
 0002:0000b178       $unwind$?Next@?$CComEnumImpl@UIEnumConnections@@$1?_GUID_b196b287_bab4_101a_b69c_00aa00341d07@@3U__s_GUID@@BUtagCONNECTDATA@@V?$_Copy@UtagCONNECTDATA@@@ATL@@@ATL@@UEAAJKPEAUtagCONNECTDATA@@PEAK@Z 0000000180030178     Lights.obj
 0002:0000b178       $unwind$?SODirectIO@COPOSLights@@MEAAJJPEAJPEAPEA_W@Z 0000000180030178     Lights.obj
 0002:0000b178       $unwind$?SetControlFocus@CComControlBase@ATL@@QEAAHH@Z 0000000180030178     Lights.obj
 0002:0000b178       $unwind$?ocscpy_s@@YA_NPEA_W_KPEB_W@Z 0000000180030178     Lights.obj
 0002:0000b178       $unwind$?s_EventWindowProc@COPOSLights@@KA_JPEAUHWND__@@I_K_J@Z 0000000180030178     LightsImpl.obj
 0002:0000b178       $unwind$?AtlWinModuleTerm@ATL@@YAJPEAU_ATL_WIN_MODULE70@1@PEAUHINSTANCE__@@@Z 0000000180030178     OposVariant.obj
 0002:0000b178       $unwind$_recalloc_base     0000000180030178     libucrt:recalloc.obj
 0002:0000b178       $unwind$__acrt_free_locale 0000000180030178     libucrt:locale_refcounting.obj
 0002:0000b178       $unwind$__acrt_lowio_create_handle_array 0000000180030178     libucrt:osfinfo.obj
 0002:0000b178       $unwind$_seh_filter_exe    0000000180030178     libucrt:exception_filter.obj
 0002:0000b178       $unwind$__acrt_stdio_flush_nolock 0000000180030178     libucrt:fflush.obj
 0002:0000b178       $unwind$??$ensure_buffer_is_big_enough@D@formatting_buffer@__crt_stdio_output@@QEAA_N_KAEAV__crt_cached_ptd_host@@@Z 0000000180030178     libucrt:output.obj
 0002:0000b178       $unwind$??$ensure_buffer_is_big_enough@_W@formatting_buffer@__crt_stdio_output@@QEAA_N_KAEAV__crt_cached_ptd_host@@@Z 0000000180030178     libucrt:output.obj
 0002:0000b178       $unwind$__scrt_dllmain_exception_filter 0000000180030178     LIBCMT:utility.obj
 0002:0000b178       $unwind$?GetHandlerSearchState@__FrameHandler3@@SAHPEA_KPEAU_xDISPATCHER_CONTEXT@@PEBU_s_FuncInfo@@@Z 0000000180030178     libvcruntime:frame.obj
 0002:0000b178       $unwind$?Is_bad_exception_allowed@@YAEPEBU_s_ESTypeList@@@Z 0000000180030178     libvcruntime:frame.obj
 0002:0000b178       $unwind$?CatchTryBlock@__FrameHandler3@@SAPEBU_s_TryBlockMapEntry@@PEBU_s_FuncInfo@@H@Z 0000000180030178     libvcruntime:risctrnsctrl.obj
 0002:0000b18c       $unwind$??_GCRegObject@ATL@@UEAAPEAXI@Z 000000018003018c     Lights.obj
 0002:0000b18c       $unwind$?Add@?$CSimpleArray@GV?$CSimpleArrayEqualHelper@G@ATL@@@ATL@@QEAAHAEBG@Z 000000018003018c     Lights.obj
 0002:0000b18c       $unwind$?Add@?$CSimpleMap@PEA_WPEA_WVCExpansionVectorEqualHelper@ATL@@@ATL@@QEAAHAEBQEA_W0@Z 000000018003018c     Lights.obj
 0002:0000b18c       $unwind$?Add@CComDynamicUnkArray@ATL@@QEAAKPEAUIUnknown@@@Z 000000018003018c     Lights.obj
 0002:0000b18c       $unwind$?Advise@?$IOleObjectImpl@VCOPOSLights@@@ATL@@UEAAJPEAUIAdviseSink@@PEAK@Z 000000018003018c     Lights.obj
 0002:0000b18c       $unwind$?ClearReplacements@CExpansionVector@ATL@@QEAAJXZ 000000018003018c     Lights.obj
 0002:0000b18c       $unwind$?CreateInstance@?$CComObject@V?$CComEnum@UIEnumConnectionPoints@@$1?_GUID_b196b285_bab4_101a_b69c_00aa00341d07@@3U__s_GUID@@BPEAUIConnectionPoint@@V?$_CopyInterface@UIConnectionPoint@@@ATL@@VCComSingleThreadModel@6@@ATL@@@ATL@@SAJPEAPEAV12@@Z 000000018003018c     Lights.obj
 0002:0000b18c       $unwind$?CreateInstance@?$CComObject@V?$CComEnum@UIEnumConnections@@$1?_GUID_b196b287_bab4_101a_b69c_00aa00341d07@@3U__s_GUID@@BUtagCONNECTDATA@@V?$_Copy@UtagCONNECTDATA@@@ATL@@VCComSingleThreadModel@6@@ATL@@@ATL@@SAJPEAPEAV12@@Z 000000018003018c     Lights.obj
 0002:0000b18c       $unwind$?RegisterServer@CComModule@ATL@@QEAAJHPEBU_GUID@@@Z 000000018003018c     Lights.obj
 0002:0000b18c       $unwind$?UnregisterServer@CComModule@ATL@@QEAAJHPEBU_GUID@@@Z 000000018003018c     Lights.obj
 0002:0000b18c       $unwind$?VTFromRegType@CRegParser@ATL@@KAHPEB_WAEAG@Z 000000018003018c     Lights.obj
 0002:0000b18c       $unwind$??0OposDispParms@@QEAA@PEAVOposVariant@@H@Z 000000018003018c     OposVariant.obj
 0002:0000b18c       $unwind$?SetBSTR_Copy@OposVariant@@QEAAXPEA_WAEAJ@Z 000000018003018c     OposVariant.obj
 0002:0000b18c       $unwind$?SetBSTR_InOutPtr@OposVariant@@QEAA_NPEAPEA_WAEAJ@Z 000000018003018c     OposVariant.obj
 0002:0000b18c       $unwind$?SetDispatch_Ptr@OposVariant@@QEAAXPEAUIDispatch@@AEAJ@Z 000000018003018c     OposVariant.obj
 0002:0000b18c       $unwind$?SetLONG_Ptr@OposVariant@@QEAAXPEAJAEAJ@Z 000000018003018c     OposVariant.obj
 0002:0000b18c       $unwind$?SetString@OposVariant@@QEAAXPEB_WAEAJ@Z 000000018003018c     OposVariant.obj
 0002:0000b18c       $unwind$?Term@CAtlComModule@ATL@@QEAAXXZ 000000018003018c     OposVariant.obj
 0002:0000b18c       $unwind$memcpy_s           000000018003018c     libucrt:cfout.obj
 0002:0000b18c       $unwind$__acrt_getptd      000000018003018c     libucrt:per_thread_data.obj
 0002:0000b18c       $unwind$__acrt_getptd_noexit 000000018003018c     libucrt:per_thread_data.obj
 0002:0000b18c       $unwind$__acrt_getptd_noexit_explicit 000000018003018c     libucrt:per_thread_data.obj
 0002:0000b18c       $unwind$__acrt_execute_initializers 000000018003018c     libucrt:shared_initialization.obj
 0002:0000b18c       $unwind$__acrt_InitializeCriticalSectionEx 000000018003018c     libucrt:winapi_thunks.obj
 0002:0000b18c       $unwind$_close_nolock_internal 000000018003018c     libucrt:close.obj
 0002:0000b18c       $unwind$?value@?$dual_state_global@P6AXPEB_W00I_K@Z@__crt_state_management@@QEAAAEAP6AXPEB_W00I_K@ZAEAV__crt_cached_ptd_host@@@Z 000000018003018c     libucrt:invalid_parameter.obj
 0002:0000b18c       $unwind$??0_LocaleUpdate@@QEAA@QEAU__crt_locale_pointers@@@Z 000000018003018c     libucrt:argv_wildcards.obj
 0002:0000b18c       $unwind$?type_case_Z@?$output_processor@_WV?$string_output_adapter@_W@__crt_stdio_output@@V?$format_validation_base@_WV?$string_output_adapter@_W@__crt_stdio_output@@@2@@__crt_stdio_output@@AEAA_NXZ 000000018003018c     libucrt:output.obj
 0002:0000b18c       $unwind$?type_case_s@?$output_processor@_WV?$string_output_adapter@_W@__crt_stdio_output@@V?$format_validation_base@_WV?$string_output_adapter@_W@__crt_stdio_output@@@2@@__crt_stdio_output@@AEAA_NXZ 000000018003018c     libucrt:output.obj
 0002:0000b18c       $unwind$?type_case_s_compute_narrow_string_length@?$output_processor@_WV?$string_output_adapter@_W@__crt_stdio_output@@V?$format_validation_base@_WV?$string_output_adapter@_W@__crt_stdio_output@@@2@@__crt_stdio_output@@AEAAHH_W@Z 000000018003018c     libucrt:output.obj
 0002:0000b18c       $unwind$?update_locale_slow@__crt_cached_ptd_host@@AEAAXXZ 000000018003018c     libucrt:output.obj
 0002:0000b18c       $unwind$strncpy_s          000000018003018c     libucrt:strncpy_s.obj
 0002:0000b18c       $unwind$wcsncpy_s          000000018003018c     libucrt:wcsncpy_s.obj
 0002:0000b18c       $unwind$_exception_enabled 000000018003018c     libucrt:libm_error.obj
 0002:0000b18c       $unwind$_DllMainCRTStartup 000000018003018c     LIBCMT:dll_dllmain.obj
 0002:0000b18c       $unwind$__vcrt_getptd_noexit 000000018003018c     libvcruntime:per_thread_data.obj
 0002:0000b18c       $unwind$?FrameUnwindToEmptyState@__FrameHandler3@@SAXPEA_KPEAU_xDISPATCHER_CONTEXT@@PEBU_s_FuncInfo@@@Z 000000018003018c     libvcruntime:risctrnsctrl.obj
 0002:0000b18c       $unwind$__vcrt_InitializeCriticalSectionEx 000000018003018c     libvcruntime:winapi_downlevel.obj
 0002:0000b19c       $unwind$?AddTermFunc@CAtlModule@ATL@@QEAAJP6AX_K@Z0@Z 000000018003019c     Lights.obj
 0002:0000b19c       $unwind$?AtlComModuleRegisterServer@ATL@@YAJPEAU_ATL_COM_MODULE70@1@HPEBU_GUID@@@Z 000000018003019c     Lights.obj
 0002:0000b19c       $unwind$?AtlComModuleUnregisterServer@ATL@@YAJPEAU_ATL_COM_MODULE70@1@HPEBU_GUID@@@Z 000000018003019c     Lights.obj
 0002:0000b19c       $unwind$?CreateInstance@?$CComCreator@V?$CComAggObject@VCOPOSLights@@@ATL@@@ATL@@SAJPEAXAEBU_GUID@@PEAPEAX@Z 000000018003019c     Lights.obj
 0002:0000b19c       $unwind$?CreateInstance@?$CComCreator@V?$CComObjectCached@VCComClassFactory@ATL@@@ATL@@@ATL@@SAJPEAXAEBU_GUID@@PEAPEAX@Z 000000018003019c     Lights.obj
 0002:0000b19c       $unwind$?GetPagesHelper@?$ISpecifyPropertyPagesImpl@VCOPOSLights@@@ATL@@IEAAJPEAUtagCAUUID@@PEBUATL_PROPMAP_ENTRY@2@@Z 000000018003019c     Lights.obj
 0002:0000b19c       $unwind$?Term@CAtlModule@ATL@@QEAAXXZ 000000018003019c     Lights.obj
 0002:0000b19c       $unwind$??_Estringdispid@CComTypeInfoHolder@ATL@@QEAAPEAXI@Z 000000018003019c     OposVariant.obj
 0002:0000b19c       $unwind$?initialize_stdio_handles_nolock@@YAXXZ 000000018003019c     libucrt:ioinit.obj
 0002:0000b19c       $unwind$__acrt_initialize_stdio 000000018003019c     libucrt:_file.obj
 0002:0000b19c       $unwind$__GSHandlerCheck_EH 000000018003019c     LIBCMT:gshandlereh.obj
 0002:0000b19c       $unwind$__GSHandlerCheck_SEH 000000018003019c     LIBCMT:gshandlerseh.obj
 0002:0000b19c       $unwind$??$TypeMatchHelper@V__FrameHandler3@@@@YAHPEBU_s_HandlerType@@PEBU_s_CatchableType@@PEBU_s_ThrowInfo@@@Z 000000018003019c     libvcruntime:frame.obj
 0002:0000b19c       $unwind$??$TypeMatchHelper@V__FrameHandler4@@@@YAHPEAUHandlerType4@FH4@@PEBU_s_CatchableType@@PEBU_s_ThrowInfo@@@Z 000000018003019c     libvcruntime:frame.obj
 0002:0000b1b4       $unwind$??0?$CComContainedObject@VCOPOSLights@@@ATL@@QEAA@PEAX@Z 00000001800301b4     Lights.obj
 0002:0000b1b4       $unwind$??1?$CComEnumImpl@UIEnumConnectionPoints@@$1?_GUID_b196b285_bab4_101a_b69c_00aa00341d07@@3U__s_GUID@@BPEAUIConnectionPoint@@V?$_CopyInterface@UIConnectionPoint@@@ATL@@@ATL@@UEAA@XZ 00000001800301b4     Lights.obj
 0002:0000b1b4       $unwind$??1?$CComEnumImpl@UIEnumConnections@@$1?_GUID_b196b287_bab4_101a_b69c_00aa00341d07@@3U__s_GUID@@BUtagCONNECTDATA@@V?$_Copy@UtagCONNECTDATA@@@ATL@@@ATL@@UEAA@XZ 00000001800301b4     Lights.obj
 0002:0000b1b4       $unwind$??_G?$CComAggObject@VCOPOSLights@@@ATL@@UEAAPEAXI@Z 00000001800301b4     Lights.obj
 0002:0000b1b4       $unwind$??_G?$CComContainedObject@VCOPOSLights@@@ATL@@UEAAPEAXI@Z 00000001800301b4     Lights.obj
 0002:0000b1b4       $unwind$??_G?$CComObject@V?$CComEnum@UIEnumConnectionPoints@@$1?_GUID_b196b285_bab4_101a_b69c_00aa00341d07@@3U__s_GUID@@BPEAUIConnectionPoint@@V?$_CopyInterface@UIConnectionPoint@@@ATL@@VCComSingleThreadModel@6@@ATL@@@ATL@@UEAAPEAXI@Z 00000001800301b4     Lights.obj
 0002:0000b1b4       $unwind$??_G?$CComObject@V?$CComEnum@UIEnumConnections@@$1?_GUID_b196b287_bab4_101a_b69c_00aa00341d07@@3U__s_GUID@@BUtagCONNECTDATA@@V?$_Copy@UtagCONNECTDATA@@@ATL@@VCComSingleThreadModel@6@@ATL@@@ATL@@UEAAPEAXI@Z 00000001800301b4     Lights.obj
 0002:0000b1b4       $unwind$??_G?$CComObject@VCOPOSLights@@@ATL@@UEAAPEAXI@Z 00000001800301b4     Lights.obj
 0002:0000b1b4       $unwind$??_G?$CComObjectCached@VCComClassFactory@ATL@@@ATL@@UEAAPEAXI@Z 00000001800301b4     Lights.obj
 0002:0000b1b4       $unwind$??_GCComClassFactory@ATL@@UEAAPEAXI@Z 00000001800301b4     Lights.obj
 0002:0000b1b4       $unwind$??_GCComModule@ATL@@UEAAPEAXI@Z 00000001800301b4     Lights.obj
 0002:0000b1b4       $unwind$?DeleteSubKey@CRegKey@ATL@@QEAAJPEB_W@Z 00000001800301b4     Lights.obj
 0002:0000b1b4       $unwind$?IOleObject_SetClientSite@CComControlBase@ATL@@QEAAJPEAUIOleClientSite@@@Z 00000001800301b4     Lights.obj
 0002:0000b1b4       $unwind$?InitNew@?$IPersistStorageImpl@VCOPOSLights@@@ATL@@UEAAJPEAUIStorage@@@Z 00000001800301b4     Lights.obj
 0002:0000b1b4       $unwind$?IsDirty@?$IPersistStorageImpl@VCOPOSLights@@@ATL@@UEAAJXZ 00000001800301b4     Lights.obj
 0002:0000b1b4       $unwind$?Release@?$CComAggObject@VCOPOSLights@@@ATL@@UEAAKXZ 00000001800301b4     Lights.obj
 0002:0000b1b4       $unwind$?Release@?$CComObject@V?$CComEnum@UIEnumConnectionPoints@@$1?_GUID_b196b285_bab4_101a_b69c_00aa00341d07@@3U__s_GUID@@BPEAUIConnectionPoint@@V?$_CopyInterface@UIConnectionPoint@@@ATL@@VCComSingleThreadModel@6@@ATL@@@ATL@@UEAAKXZ 00000001800301b4     Lights.obj
 0002:0000b1b4       $unwind$?Release@?$CComObject@V?$CComEnum@UIEnumConnections@@$1?_GUID_b196b287_bab4_101a_b69c_00aa00341d07@@3U__s_GUID@@BUtagCONNECTDATA@@V?$_Copy@UtagCONNECTDATA@@@ATL@@VCComSingleThreadModel@6@@ATL@@@ATL@@UEAAKXZ 00000001800301b4     Lights.obj
 0002:0000b1b4       $unwind$?Release@?$CComObject@VCOPOSLights@@@ATL@@UEAAKXZ 00000001800301b4     Lights.obj
 0002:0000b1b4       $unwind$?SOStatusUpdate@COPOSLights@@MEAAJJ@Z 00000001800301b4     Lights.obj
 0002:0000b1b4       $unwind$?SetAdvise@?$IViewObjectExImpl@VCOPOSLights@@@ATL@@UEAAJKKPEAUIAdviseSink@@@Z 00000001800301b4     Lights.obj
 0002:0000b1b4       $unwind$?Term@CComModule@ATL@@QEAAXXZ 00000001800301b4     Lights.obj
 0002:0000b1b4       $unwind$DllMain            00000001800301b4     Lights.obj
 0002:0000b1b4       $unwind$??1?$IConnectionPointImpl@VCOPOSLights@@$1?DIID__IOPOSLightsEvents@@3U_GUID@@BVCComDynamicUnkArray@ATL@@@ATL@@QEAA@XZ 00000001800301b4     LightsImpl.obj
 0002:0000b1b4       $unwind$??1?$IConnectionPointImpl@VCOPOSLights@@$1?IID_IPropertyNotifySink@@3U_GUID@@BVCComDynamicUnkArray@ATL@@@ATL@@QEAA@XZ 00000001800301b4     LightsImpl.obj
 0002:0000b1b4       $unwind$?EventWindowProc@COPOSLights@@IEAA_JI_K_J@Z 00000001800301b4     LightsImpl.obj
 0002:0000b1b4       $unwind$?SetBSTR@OposVariant@@QEAAXPEA_WAEAJ@Z 00000001800301b4     OposVariant.obj
 0002:0000b1b4       $unwind$?SetLONG@OposVariant@@QEAAXJ@Z 00000001800301b4     OposVariant.obj
 0002:0000b1b4       $unwind$?SetVARIANT_BOOL@OposVariant@@QEAAXF@Z 00000001800301b4     OposVariant.obj
 0002:0000b1b4       $unwind$??$common_initialize_environment_nolock@D@@YAHXZ 00000001800301b4     libucrt:environment_initialization.obj
 0002:0000b1b4       $unwind$_realloc_base      00000001800301b4     libucrt:realloc_base.obj
 0002:0000b1b4       $unwind$?replace_current_thread_locale_nolock@@YAXQEAU__acrt_ptd@@QEAU__crt_locale_data@@@Z 00000001800301b4     libucrt:per_thread_data.obj
 0002:0000b1b4       $unwind$__acrt_execute_uninitializers 00000001800301b4     libucrt:shared_initialization.obj
 0002:0000b1b4       $unwind$__acrt_LocaleNameToLCID 00000001800301b4     libucrt:winapi_thunks.obj
 0002:0000b1b4       $unwind$?free_crt_array_internal@@YAXQEAPEBX_K@Z 00000001800301b4     libucrt:inittime.obj
 0002:0000b1b4       $unwind$_updatetlocinfoEx_nolock 00000001800301b4     libucrt:locale_refcounting.obj
 0002:0000b1b4       $unwind$__acrt_uninitialize_lowio 00000001800301b4     libucrt:ioinit.obj
 0002:0000b1b4       $unwind$?setSBCS@@YAXPEAU__crt_multibyte_data@@@Z 00000001800301b4     libucrt:mbctype.obj
 0002:0000b1b4       $unwind$_initterm_e        00000001800301b4     libucrt:initterm.obj
 0002:0000b1b4       $unwind$??0CAtlBaseModule@ATL@@QEAA@XZ 00000001800301b4     atls:atlbase.obj
 0002:0000b1b4       $unwind$??$GetProcAddressAll@P6AP6A_JPEAUHWND__@@I_K_J@ZPEAUAtlThunkData_t@@@Z@@YAP6AP6A_JPEAUHWND__@@I_K_J@ZPEAUAtlThunkData_t@@@ZPEAP6AP6A_J0I12@Z3@Z@Z 00000001800301b4     atls:atlthunk.obj
 0002:0000b1b4       $unwind$??$GetProcAddressAll@P6APEAUAtlThunkData_t@@XZ@@YAP6APEAUAtlThunkData_t@@XZPEAP6APEAU0@XZ@Z 00000001800301b4     atls:atlthunk.obj
 0002:0000b1b4       $unwind$??$GetProcAddressAll@P6AXPEAUAtlThunkData_t@@@Z@@YAP6AXPEAUAtlThunkData_t@@@ZPEAP6AX0@Z@Z 00000001800301b4     atls:atlthunk.obj
 0002:0000b1b4       $unwind$??$GetProcAddressAll@P6AXPEAUAtlThunkData_t@@PEAX_K@Z@@YAP6AXPEAUAtlThunkData_t@@PEAX_K@ZPEAP6AX012@Z@Z 00000001800301b4     atls:atlthunk.obj
 0002:0000b1b4       $unwind$?__AllocStdCallThunk_cmn@@YAPEAXXZ 00000001800301b4     atls:atlthunk.obj
 0002:0000b1b4       $unwind$?__InitializeThunkPool@@YAHXZ 00000001800301b4     atls:atlthunk.obj
 0002:0000b1b4       $unwind$AtlThunk_DataToCode 00000001800301b4     atls:atlthunk.obj
 0002:0000b1b4       $unwind$_RTC_Initialize    00000001800301b4     LIBCMT:initsect.obj
 0002:0000b1b4       $unwind$_RTC_Terminate     00000001800301b4     LIBCMT:initsect.obj
 0002:0000b1b4       $unwind$?__scrt_initialize_thread_safe_statics@@YAHXZ 00000001800301b4     LIBCMT:thread_safe_statics.obj
 0002:0000b1b4       $unwind$??_Gbad_alloc@std@@UEAAPEAXI@Z 00000001800301b4     LIBCMT:throw_bad_alloc.obj
 0002:0000b1b4       $unwind$??_Gbad_array_new_length@std@@UEAAPEAXI@Z 00000001800301b4     LIBCMT:throw_bad_alloc.obj
 0002:0000b1b4       $unwind$??_Gexception@std@@UEAAPEAXI@Z 00000001800301b4     LIBCMT:throw_bad_alloc.obj
 0002:0000b1b4       $unwind$__C_specific_handler_noexcept 00000001800301b4     libvcruntime:chandler_noexcept.obj
 0002:0000b1b4       $unwind$__FrameUnwindFilter 00000001800301b4     libvcruntime:ehhelpers.obj
 0002:0000b1b4       $unwind$?SetUnwindTryBlock@__FrameHandler3@@SAXPEA_KPEAU_xDISPATCHER_CONTEXT@@PEBU_s_FuncInfo@@H@Z 00000001800301b4     libvcruntime:ehstate.obj
 0002:0000b1b4       $unwind$??_Gbad_exception@std@@UEAAPEAXI@Z 00000001800301b4     libvcruntime:frame.obj
 0002:0000b1b4       $unwind$?ExFilterRethrow@@YAHPEAU_EXCEPTION_POINTERS@@PEAUEHExceptionRecord@@PEAH@Z 00000001800301b4     libvcruntime:frame.obj
 0002:0000b1b4       $unwind$?ExFilterRethrowFH4@@YAHPEAU_EXCEPTION_POINTERS@@PEAUEHExceptionRecord@@HPEAH@Z 00000001800301b4     libvcruntime:frame.obj
 0002:0000b1b4       $unwind$_FindAndUnlinkFrame 00000001800301b4     libvcruntime:risctrnsctrl.obj
 0002:0000b1b4       $unwind$__vcrt_FlsSetValue 00000001800301b4     libvcruntime:winapi_downlevel.obj
 0002:0000b1c0       $unwind$?ChangeBSTR@OposVariant@@QEAAXPEAPEA_WAEAJ@Z 00000001800301c0     OposVariant.obj
 0002:0000b1c0       $unwind$?ChangeLONG@OposVariant@@QEAAXPEAJAEAJ@Z 00000001800301c0     OposVariant.obj
 0002:0000b1c0       $unwind$?x_ismbbtype_l@@YAHPEAU__crt_locale_pointers@@IHH@Z 00000001800301c0     libucrt:ismbbyte.obj
 0002:0000b1d0       $unwind$swprintf_s         00000001800301d0     Lights.obj
 0002:0000b1e0       $unwind$?_AtlVerifyStackAvailable@_ATL_SAFE_ALLOCA_IMPL@ATL@@YA_N_K@Z 00000001800301e0     Lights.obj
 0002:0000b20c       $unwind$?filt$0@?0??_AtlVerifyStackAvailable@_ATL_SAFE_ALLOCA_IMPL@ATL@@YA_N_K@Z@4HA 000000018003020c     Lights.obj
 0002:0000b20c       $unwind$_query_new_handler$fin$0 000000018003020c     libucrt:new_handler.obj
 0002:0000b20c       $unwind$?fin$0@?0???$?RV<lambda_0ae27a3a962d80f24befdcbee591983d>@@AEAV<lambda_8d0ee55de4b1038c4002e0adecdf1839>@@V<lambda_dc504788e8f1664fe9b84e20bfb512f2>@@@?$__crt_seh_guarded_call@X@@QEAAX$$QEAV<lambda_0ae27a3a962d80f24befdcbee591983d>@@AEAV<lambda_8d0ee55de4b1038c4002e0adecdf1839>@@$$QEAV<lambda_dc504788e8f1664fe9b84e20bfb512f2>@@@Z@4HA 000000018003020c     libucrt:per_thread_data.obj
 0002:0000b20c       $unwind$?fin$0@?0???$?RV<lambda_2d41944a1d46af3157314b8a01080d33>@@AEAV<lambda_8f455de75cd7d7f24b4096f044d8b9e6>@@V<lambda_aa500f224e6afead328df44964fe2772>@@@?$__crt_seh_guarded_call@X@@QEAAX$$QEAV<lambda_2d41944a1d46af3157314b8a01080d33>@@AEAV<lambda_8f455de75cd7d7f24b4096f044d8b9e6>@@$$QEAV<lambda_aa500f224e6afead328df44964fe2772>@@@Z@4HA 000000018003020c     libucrt:per_thread_data.obj
 0002:0000b20c       $unwind$?fin$0@?0???$?RV<lambda_aa87e3671a710a21b5dc78c0bdf72e11>@@AEAV<lambda_92619d2358a28f41a33ba319515a20b9>@@V<lambda_6992ecaafeb10aed2b74cb1fae11a551>@@@?$__crt_seh_guarded_call@X@@QEAAX$$QEAV<lambda_aa87e3671a710a21b5dc78c0bdf72e11>@@AEAV<lambda_92619d2358a28f41a33ba319515a20b9>@@$$QEAV<lambda_6992ecaafeb10aed2b74cb1fae11a551>@@@Z@4HA 000000018003020c     libucrt:per_thread_data.obj
 0002:0000b20c       $unwind$?fin$0@?0???$?RV<lambda_f2e299630e499de9f9a165e60fcd3db5>@@AEAV<lambda_2ae9d31cdba2644fcbeaf08da7c24588>@@V<lambda_40d01ff24d0e7b3814fdbdcee8eab3c7>@@@?$__crt_seh_guarded_call@X@@QEAAX$$QEAV<lambda_f2e299630e499de9f9a165e60fcd3db5>@@AEAV<lambda_2ae9d31cdba2644fcbeaf08da7c24588>@@$$QEAV<lambda_40d01ff24d0e7b3814fdbdcee8eab3c7>@@@Z@4HA 000000018003020c     libucrt:per_thread_data.obj
 0002:0000b20c       $unwind$__acrt_update_thread_locale_data$fin$0 000000018003020c     libucrt:locale_refcounting.obj
 0002:0000b20c       $unwind$?fin$0@?0???$?RV<lambda_410d79af7f07d98d83a3f525b3859a53>@@AEAV<lambda_3e16ef9562a7dcce91392c22ab16ea36>@@V<lambda_38119f0e861e05405d8a144b9b982f0a>@@@?$__crt_seh_guarded_call@X@@QEAAX$$QEAV<lambda_410d79af7f07d98d83a3f525b3859a53>@@AEAV<lambda_3e16ef9562a7dcce91392c22ab16ea36>@@$$QEAV<lambda_38119f0e861e05405d8a144b9b982f0a>@@@Z@4HA 000000018003020c     libucrt:wsetlocale.obj
 0002:0000b20c       $unwind$?fin$0@?0???$?RV<lambda_ad8af0d99a0adf03d037d7dffe354bb5>@@AEAV<lambda_c9ba49e555ba839a7b07aa3fbecb7617>@@V<lambda_2f1ebd5d68526518146ae959c9e734c8>@@@?$__crt_seh_guarded_call@H@@QEAAH$$QEAV<lambda_ad8af0d99a0adf03d037d7dffe354bb5>@@AEAV<lambda_c9ba49e555ba839a7b07aa3fbecb7617>@@$$QEAV<lambda_2f1ebd5d68526518146ae959c9e734c8>@@@Z@4HA 000000018003020c     libucrt:close.obj
 0002:0000b20c       $unwind$?fin$0@?0???$?RV<lambda_a37b2b86f63e897a80ea819b0eb08c01>@@AEAV<lambda_38ce7e780aa69e748d6df282ebc68efe>@@V<lambda_99fb1378e971ab6e7edea83e3a7a83a2>@@@?$__crt_seh_guarded_call@H@@QEAAH$$QEAV<lambda_a37b2b86f63e897a80ea819b0eb08c01>@@AEAV<lambda_38ce7e780aa69e748d6df282ebc68efe>@@$$QEAV<lambda_99fb1378e971ab6e7edea83e3a7a83a2>@@@Z@4HA 000000018003020c     libucrt:commit.obj
 0002:0000b20c       $unwind$__acrt_initialize_lowio$fin$0 000000018003020c     libucrt:ioinit.obj
 0002:0000b20c       $unwind$__acrt_lowio_ensure_fh_exists$fin$0 000000018003020c     libucrt:osfinfo.obj
 0002:0000b20c       $unwind$?fin$0@?0???$?RV<lambda_efdfa57d1f175319df784efa44bb7b81>@@AEAV<lambda_5f0a4c1567f8adc6734073e5d1e1b35c>@@V<lambda_2e8a7d3640ea6ccb4c2413664c2db6fd>@@@?$__crt_seh_guarded_call@X@@QEAAX$$QEAV<lambda_efdfa57d1f175319df784efa44bb7b81>@@AEAV<lambda_5f0a4c1567f8adc6734073e5d1e1b35c>@@$$QEAV<lambda_2e8a7d3640ea6ccb4c2413664c2db6fd>@@@Z@4HA 000000018003020c     libucrt:mbctype.obj
 0002:0000b20c       $unwind$?fin$0@?0??update_thread_multibyte_data_internal@@YAPEAU__crt_multibyte_data@@QEAU__acrt_ptd@@QEAPEAU1@@Z@4HA 000000018003020c     libucrt:mbctype.obj
 0002:0000b20c       $unwind$?fin$0@?0???$?RV<lambda_450d765d439847d4c735a33c368b5fc0>@@AEAV<lambda_44731a7d0e6d81c3e6aa82d741081786>@@V<lambda_601a2a7da3b7a96e9554ac7215c4b07c>@@@?$__crt_seh_guarded_call@P6AXH@Z@@QEAAP6AXH@Z$$QEAV<lambda_450d765d439847d4c735a33c368b5fc0>@@AEAV<lambda_44731a7d0e6d81c3e6aa82d741081786>@@$$QEAV<lambda_601a2a7da3b7a96e9554ac7215c4b07c>@@@Z@4HA 000000018003020c     libucrt:signal.obj
 0002:0000b20c       $unwind$raise$fin$0        000000018003020c     libucrt:signal.obj
 0002:0000b20c       $unwind$?filt$0@?0???R<lambda_6e4b09c48022b2350581041d5f6b0c4c>@@QEBA@XZ@4HA 000000018003020c     libucrt:exit.obj
 0002:0000b20c       $unwind$?fin$0@?0???$?RV<lambda_d80eeec6fff315bfe5c115232f3240e3>@@AEAV<lambda_6e4b09c48022b2350581041d5f6b0c4c>@@V<lambda_2358e3775559c9db80273638284d5e45>@@@?$__crt_seh_guarded_call@X@@QEAAX$$QEAV<lambda_d80eeec6fff315bfe5c115232f3240e3>@@AEAV<lambda_6e4b09c48022b2350581041d5f6b0c4c>@@$$QEAV<lambda_2358e3775559c9db80273638284d5e45>@@@Z@4HA 000000018003020c     libucrt:exit.obj
 0002:0000b20c       $unwind$?fin$0@?0???$?RV<lambda_638799b9deba96c50f710eeac98168cd>@@AEAV<lambda_22ebabd17bc4fa466a2aca6d8deb888d>@@V<lambda_a6f7d7db0129f75315ebf26d50c089f1>@@@?$__crt_seh_guarded_call@H@@QEAAH$$QEAV<lambda_638799b9deba96c50f710eeac98168cd>@@AEAV<lambda_22ebabd17bc4fa466a2aca6d8deb888d>@@$$QEAV<lambda_a6f7d7db0129f75315ebf26d50c089f1>@@@Z@4HA 000000018003020c     libucrt:onexit.obj
 0002:0000b20c       $unwind$?fin$0@?0???$?RV<lambda_7777bce6b2f8c936911f934f8298dc43>@@AEAV<lambda_f03950bc5685219e0bcd2087efbe011e>@@V<lambda_3883c3dff614d5e0c5f61bb1ac94921c>@@@?$__crt_seh_guarded_call@H@@QEAAH$$QEAV<lambda_7777bce6b2f8c936911f934f8298dc43>@@AEAV<lambda_f03950bc5685219e0bcd2087efbe011e>@@$$QEAV<lambda_3883c3dff614d5e0c5f61bb1ac94921c>@@@Z@4HA 000000018003020c     libucrt:onexit.obj
 0002:0000b20c       $unwind$_fcloseall$fin$0   000000018003020c     libucrt:closeall.obj
 0002:0000b20c       $unwind$?fin$0@?0???$?RV<lambda_842d9ff0dc9ef11c61343bbaebe7f885>@@AEAV<lambda_c5860995281e5c4ce005b3de8f5874ee>@@V<lambda_d90129c13df834fdcbf8d2b88dafcf2d>@@@?$__crt_seh_guarded_call@X@@QEAAX$$QEAV<lambda_842d9ff0dc9ef11c61343bbaebe7f885>@@AEAV<lambda_c5860995281e5c4ce005b3de8f5874ee>@@$$QEAV<lambda_d90129c13df834fdcbf8d2b88dafcf2d>@@@Z@4HA 000000018003020c     libucrt:fflush.obj
 0002:0000b20c       $unwind$?fin$0@?0???$?RV<lambda_886d6c58226a84441f68b9f2b8217b83>@@AEAV<lambda_ab61a845afdef5b7c387490eaf3616ee>@@V<lambda_f7f22ab5edc0698d5f6905b0d3f44752>@@@?$__crt_seh_guarded_call@X@@QEAAX$$QEAV<lambda_886d6c58226a84441f68b9f2b8217b83>@@AEAV<lambda_ab61a845afdef5b7c387490eaf3616ee>@@$$QEAV<lambda_f7f22ab5edc0698d5f6905b0d3f44752>@@@Z@4HA 000000018003020c     libucrt:fflush.obj
 0002:0000b20c       $unwind$_ctrlfp$filt$0     000000018003020c     libucrt:fpctrl.obj
 0002:0000b20c       $unwind$common_control87$filt$0 000000018003020c     libucrt:ieee.obj
 0002:0000b20c       $unwind$?fin$0@?0??dllmain_crt_process_attach@@YAHQEAUHINSTANCE__@@QEAX@Z@4HA 000000018003020c     LIBCMT:dll_dllmain.obj
 0002:0000b20c       $unwind$?fin$0@?0??dllmain_crt_process_detach@@YAH_N@Z@4HA 000000018003020c     LIBCMT:dll_dllmain.obj
 0002:0000b20c       $unwind$?fin$1@?0??dllmain_crt_process_detach@@YAH_N@Z@4HA 000000018003020c     LIBCMT:dll_dllmain.obj
 0002:0000b20c       $unwind$_IsNonwritableInCurrentImage$filt$0 000000018003020c     LIBCMT:pesect.obj
 0002:0000b20c       $unwind$?filt$0@?0??CxxCallCatchBlock@__FrameHandler3@@SAPEAXPEAU_EXCEPTION_RECORD@@@Z@4HA 000000018003020c     libvcruntime:frame.obj
 0002:0000b20c       $unwind$?filt$0@?0??CxxCallCatchBlock@__FrameHandler4@@SAPEAXPEAU_EXCEPTION_RECORD@@@Z@4HA 000000018003020c     libvcruntime:frame.obj
 0002:0000b20c       $unwind$?filt$0@?0??FrameUnwindToState@__FrameHandler3@@SAXPEA_KPEAU_xDISPATCHER_CONTEXT@@PEBU_s_FuncInfo@@H@Z@4HA 000000018003020c     libvcruntime:frame.obj
 0002:0000b20c       $unwind$?fin$1@?0??FrameUnwindToState@__FrameHandler3@@SAXPEA_KPEAU_xDISPATCHER_CONTEXT@@PEBU_s_FuncInfo@@H@Z@4HA 000000018003020c     libvcruntime:frame.obj
 0002:0000b214       $unwind$?AtlInternalOleLoadFromStream@ATL@@YAJPEAUIStream@@AEBU_GUID@@PEAPEAXTClassesAllowedInStream@1@K@Z 0000000180030214     Lights.obj
 0002:0000b230       $unwind$?ReadFromStream@CComBSTR@ATL@@QEAAJPEAUIStream@@@Z 0000000180030230     Lights.obj
 0002:0000b230       $unwind$_configure_narrow_argv 0000000180030230     libucrt:argv_parsing.obj
 0002:0000b244       $unwind$?WriteToStream@CComVariant@ATL@@QEAAJPEAUIStream@@@Z 0000000180030244     Lights.obj
 0002:0000b258       $unwind$?RegOpenKeyExW@CAtlTransactionManager@ATL@@QEAAJPEAUHKEY__@@PEB_WKKPEAPEAU3@@Z 0000000180030258     Lights.obj
 0002:0000b258       $unwind$?WriteToStream@CComVariant@ATL@@QEAAJPEAUIStream@@G@Z 0000000180030258     Lights.obj
 0002:0000b258       $unwind$__dcrt_write_console 0000000180030258     libucrt:initcon.obj
 0002:0000b258       $unwind$??$__acrt_convert_wcs_mbs_cp@_WDV<lambda_f788ae46380686e8b737efdd8c720d07>@@U__crt_win32_buffer_no_resizing@@@@YAHQEB_WAEAV?$__crt_win32_buffer@DU__crt_win32_buffer_no_resizing@@@@AEBV<lambda_f788ae46380686e8b737efdd8c720d07>@@I@Z 0000000180030258     libucrt:getmodulefilenamea.obj
 0002:0000b26c       $unwind$?ReadFromStream@CComVariant@ATL@@QEAAJPEAUIStream@@GTClassesAllowedInStream@2@K@Z 000000018003026c     Lights.obj
 0002:0000b284       $unwind$?GetSizeMax@CComVariant@ATL@@QEBAJPEAT_ULARGE_INTEGER@@@Z 0000000180030284     Lights.obj
 0002:0000b298       $unwind$?RegCreateKeyExW@CAtlTransactionManager@ATL@@QEAAJPEAUHKEY__@@PEB_WKPEA_WKKQEAU_SECURITY_ATTRIBUTES@@PEAPEAU3@PEAK@Z 0000000180030298     Lights.obj
 0002:0000b2ac       $unwind$?GetGITPtr@CAtlModule@ATL@@UEAAJPEAPEAUIGlobalInterfaceTable@@@Z 00000001800302ac     Lights.obj
 0002:0000b2ac       $unwind$?RegDeleteKeyW@CAtlTransactionManager@ATL@@QEAAJPEAUHKEY__@@PEB_W@Z 00000001800302ac     Lights.obj
 0002:0000b2ac       $unwind$?getStateFromIterators@UWMap4@FH4@@SAHAEBViterator@12@H0H0@Z 00000001800302ac     libvcruntime:frame.obj
 0002:0000b2bc       $unwind$?AtlHiMetricToPixel@ATL@@YAXPEBUtagSIZE@@PEAU2@@Z 00000001800302bc     Lights.obj
 0002:0000b2bc       $unwind$?AtlInternalQueryInterface@ATL@@YAJPEAXPEBU_ATL_INTMAP_ENTRY@1@AEBU_GUID@@PEAPEAX@Z 00000001800302bc     Lights.obj
 0002:0000b2d4       $unwind$?Append@CParseBuffer@CRegParser@ATL@@QEAAHPEB_WH@Z 00000001800302d4     Lights.obj
 0002:0000b2d4       $unwind$?AtlComModuleGetClassObject@ATL@@YAJPEAU_ATL_COM_MODULE70@1@AEBU_GUID@@1PEAPEAX@Z 00000001800302d4     Lights.obj
 0002:0000b2d4       $unwind$?GetClassObject@CComModule@ATL@@QEAAJAEBU_GUID@@0PEAPEAX@Z 00000001800302d4     Lights.obj
 0002:0000b2d4       $unwind$?NextToken@CRegParser@ATL@@IEAAJPEA_W@Z 00000001800302d4     Lights.obj
 0002:0000b2d4       $unwind$?StartWindowProc@?$CWindowImplBaseT@VCWindow@ATL@@V?$CWinTraits@$0FGAAAAAA@$0A@@2@@ATL@@SA_JPEAUHWND__@@I_K_J@Z 00000001800302d4     Lights.obj
 0002:0000b2d4       $unwind$?fp_format_f_internal@@YAHQEAD_KHQEAU_strflt@@_NAEAV__crt_cached_ptd_host@@@Z 00000001800302d4     libucrt:cvt.obj
 0002:0000b2d4       $unwind$__acrt_DownlevelLocaleNameToLCID 00000001800302d4     libucrt:lcidtoname_downlevel.obj
 0002:0000b2d4       $unwind$??R<lambda_f03950bc5685219e0bcd2087efbe011e>@@QEBAHXZ 00000001800302d4     libucrt:onexit.obj
 0002:0000b2ec       $unwind$?AtlRegisterClassCategoriesHelper@ATL@@YAJAEBU_GUID@@PEBU_ATL_CATMAP_ENTRY@1@H@Z 00000001800302ec     Lights.obj
 0002:0000b310       $unwind$?AtlLoadTypeLib@ATL@@YAJPEAUHINSTANCE__@@PEB_WPEAPEA_WPEAPEAUITypeLib@@@Z 0000000180030310     Lights.obj
 0002:0000b330       $unwind$?AtlRegisterTypeLib@ATL@@YAJPEAUHINSTANCE__@@PEB_W@Z 0000000180030330     Lights.obj
 0002:0000b34c       $unwind$?AtlUnRegisterTypeLib@ATL@@YAJPEAUHINSTANCE__@@PEB_W@Z 000000018003034c     Lights.obj
 0002:0000b354       $unwind$?GetTI@CComTypeInfoHolder@ATL@@QEAAJK@Z 0000000180030354     Lights.obj
 0002:0000b354       $unwind$?RecurseDeleteKey@CRegKey@ATL@@QEAAJPEB_W@Z 0000000180030354     Lights.obj
 0002:0000b374       $unwind$?UpdateRegistryFromResource@CAtlModule@ATL@@QEAAJIHPEAU_ATL_REGMAP_ENTRY@2@@Z 0000000180030374     Lights.obj
 0002:0000b374       $unwind$?UpdateRegistryFromResource@CAtlModule@ATL@@QEAAJPEB_WHPEAU_ATL_REGMAP_ENTRY@2@@Z 0000000180030374     Lights.obj
 0002:0000b394       $unwind$?Lookup@?$CSimpleMap@PEA_WPEA_WVCExpansionVectorEqualHelper@ATL@@@ATL@@QEBAPEA_WAEBQEA_W@Z 0000000180030394     Lights.obj
 0002:0000b394       $unwind$_free_osfhnd       0000000180030394     libucrt:osfinfo.obj
 0002:0000b394       $unwind$__std_exception_copy 0000000180030394     libvcruntime:std_exception.obj
 0002:0000b3a8       $unwind$?Add@CExpansionVector@ATL@@QEAAHPEB_W0@Z 00000001800303a8     Lights.obj
 0002:0000b3c0       $unwind$?PreProcessBuffer@CRegParser@ATL@@QEAAJPEA_WPEAPEA_W@Z 00000001800303c0     Lights.obj
 0002:0000b3e4       $unwind$?RegisterBuffer@CRegParser@ATL@@QEAAJPEA_WH@Z 00000001800303e4     Lights.obj
 0002:0000b404       $unwind$?AddValue@CRegParser@ATL@@IEAAJAEAVCRegKey@2@PEB_WPEA_W@Z 0000000180030404     Lights.obj
 0002:0000b424       $unwind$?RegisterSubkeys@CRegParser@ATL@@IEAAJPEA_WPEAUHKEY__@@HH@Z 0000000180030424     Lights.obj
 0002:0000b444       $unwind$?SkipAssignment@CRegParser@ATL@@IEAAJPEA_W@Z 0000000180030444     Lights.obj
 0002:0000b460       $unwind$?RegisterFromResource@CRegObject@ATL@@IEAAJPEB_W00H@Z 0000000180030460     Lights.obj
 0002:0000b480       $unwind$?Cleanup@CComTypeInfoHolder@ATL@@SAX_K@Z 0000000180030480     Lights.obj
 0002:0000b480       $unwind$_free_base         0000000180030480     libucrt:free_base.obj
 0002:0000b480       $unwind$?destroy_fls@@YAXPEAX@Z 0000000180030480     libucrt:per_thread_data.obj
 0002:0000b480       $unwind$__acrt_locale_free_numeric 0000000180030480     libucrt:initnum.obj
 0002:0000b480       $unwind$__acrt_locale_free_lc_time_if_unreferenced 0000000180030480     libucrt:locale_refcounting.obj
 0002:0000b480       $unwind$AtlThunk_FreeData  0000000180030480     atls:atlthunk.obj
 0002:0000b488       $unwind$?GetIDsOfNames@CComTypeInfoHolder@ATL@@QEAAJAEBU_GUID@@PEAPEA_WIKPEAJ@Z 0000000180030488     Lights.obj
 0002:0000b4a4       $unwind$?LoadNameCache@CComTypeInfoHolder@ATL@@QEAAJPEAUITypeInfo@@@Z 00000001800304a4     Lights.obj
 0002:0000b4bc       $unwind$?WindowProc@?$CWindowImplBaseT@VCWindow@ATL@@V?$CWinTraits@$0FGAAAAAA@$0A@@2@@ATL@@SA_JPEAUHWND__@@I_K_J@Z 00000001800304bc     Lights.obj
 0002:0000b4d4       $unwind$?atlCreate@?$CWindowImplBaseT@VCWindow@ATL@@V?$CWinTraits@$0FGAAAAAA@$0A@@2@@ATL@@QEAAPEAUHWND__@@PEAU3@V_U_RECT@2@PEB_WKKV_U_MENUorID@2@GPEAX@Z 00000001800304d4     Lights.obj
 0002:0000b4ec       $unwind$??$AtlModuleRegisterWndClassInfoT@VAtlModuleRegisterWndClassInfoParamW@ATL@@@ATL@@YAGPEAU_ATL_BASE_MODULE70@0@PEAU_ATL_WIN_MODULE70@0@PEAU_ATL_WNDCLASSINFOW@0@PEAP6A_JPEAUHWND__@@I_K_J@ZVAtlModuleRegisterWndClassInfoParamW@0@@Z 00000001800304ec     Lights.obj
 0002:0000b50c       $unwind$?GetZoomInfo@CComControlBase@ATL@@QEAAXAEAUATL_DRAWINFO@@@Z 000000018003050c     Lights.obj
 0002:0000b50c       $unwind$?OnKillFocus@CComControlBase@ATL@@QEAA_JI_K_JAEAH@Z 000000018003050c     Lights.obj
 0002:0000b50c       $unwind$?get_raw_ptd@__crt_cached_ptd_host@@QEAAPEAU__acrt_ptd@@XZ 000000018003050c     libucrt:invalid_parameter.obj
 0002:0000b518       $unwind$?SendOnDataChange@CComControlBase@ATL@@QEAAJK@Z 0000000180030518     Lights.obj
 0002:0000b528       $unwind$?OnSetFocus@CComControlBase@ATL@@QEAA_JI_K_JAEAH@Z 0000000180030528     Lights.obj
 0002:0000b53c       $unwind$?OnMouseActivate@CComControlBase@ATL@@QEAA_JI_K_JAEAH@Z 000000018003053c     Lights.obj
 0002:0000b544       $unwind$?GetAmbientLocaleID@CComControlBase@ATL@@QEAAJAEAK@Z 0000000180030544     Lights.obj
 0002:0000b544       $unwind$?GetAmbientUserMode@CComControlBase@ATL@@QEAAJAEAH@Z 0000000180030544     Lights.obj
 0002:0000b554       $unwind$?IQuickActivate_QuickActivate@CComControlBase@ATL@@QEAAJPEAUtagQACONTAINER@@PEAUtagQACONTROL@@@Z 0000000180030554     Lights.obj
 0002:0000b56c       $unwind$?DoVerbProperties@CComControlBase@ATL@@QEAAJPEBUtagRECT@@PEAUHWND__@@@Z 000000018003056c     Lights.obj
 0002:0000b584       $unwind$?InPlaceActivate@CComControlBase@ATL@@QEAAJJPEBUtagRECT@@@Z 0000000180030584     Lights.obj
 0002:0000b5a4       $unwind$?IOleObject_Close@CComControlBase@ATL@@QEAAJK@Z 00000001800305a4     Lights.obj
 0002:0000b5a4       $unwind$?get_raw_ptd_noexit@__crt_cached_ptd_host@@QEAAPEAU__acrt_ptd@@XZ 00000001800305a4     libucrt:invalid_parameter.obj
 0002:0000b5a4       $unwind$?type_case_c_tchar@?$output_processor@_WV?$string_output_adapter@_W@__crt_stdio_output@@V?$format_validation_base@_WV?$string_output_adapter@_W@__crt_stdio_output@@@2@@__crt_stdio_output@@AEAA_N_W@Z 00000001800305a4     libucrt:output.obj
 0002:0000b5b4       $unwind$?IOleInPlaceObject_UIDeactivate@CComControlBase@ATL@@QEAAJXZ 00000001800305b4     Lights.obj
 0002:0000b5cc       $unwind$?IOleInPlaceObject_SetObjectRects@CComControlBase@ATL@@QEAAJPEBUtagRECT@@0@Z 00000001800305cc     Lights.obj
 0002:0000b5e0       $unwind$?IViewObject_Draw@CComControlBase@ATL@@QEAAJKJPEAXPEAUtagDVTARGETDEVICE@@PEAUHDC__@@2PEBU_RECTL@@3@Z 00000001800305e0     Lights.obj
 0002:0000b5fc       $unwind$?IDataObject_GetData@CComControlBase@ATL@@QEAAJPEAUtagFORMATETC@@PEAUtagSTGMEDIUM@@@Z 00000001800305fc     Lights.obj
 0002:0000b61c       $unwind$?OnPaint@CComControlBase@ATL@@QEAA_JI_K_JAEAH@Z 000000018003061c     Lights.obj
 0002:0000b638       $unwind$?OnDrawAdvanced@CComControlBase@ATL@@UEAAJAEAUATL_DRAWINFO@@@Z 0000000180030638     Lights.obj
 0002:0000b654       $unwind$?Invoke@?$IDispatchImpl@UIOPOSLights@@$1?IID_IOPOSLights@@3U_GUID@@B$1?LIBID_OposLights_CCO@@3U3@B$00$0A@VCComTypeInfoHolder@ATL@@@ATL@@UEAAJJAEBU_GUID@@KGPEAUtagDISPPARAMS@@PEAUtagVARIANT@@PEAUtagEXCEPINFO@@PEAI@Z 0000000180030654     Lights.obj
 0002:0000b654       $unwind$?ReleaseDevice@COPOSLights@@UEAAJPEAJ@Z 0000000180030654     LightsImpl.obj
 0002:0000b654       $unwind$_mbsdec_l          0000000180030654     libucrt:mbsdec.obj
 0002:0000b660       $unwind$?atlCreate@?$CWindowImpl@VCOPOSLights@@VCWindow@ATL@@V?$CWinTraits@$0FGAAAAAA@$0A@@3@@ATL@@QEAAPEAUHWND__@@PEAU3@V_U_RECT@2@PEB_WKKV_U_MENUorID@2@PEAX@Z 0000000180030660     Lights.obj
 0002:0000b660       $unwind$?fp_format_f@@YAHQEBNQEAD_K12HW4__acrt_rounding_mode@@AEAV__crt_cached_ptd_host@@@Z 0000000180030660     libucrt:cvt.obj
 0002:0000b660       $unwind$__acrt_LCMapStringEx 0000000180030660     libucrt:winapi_thunks.obj
 0002:0000b674       $unwind$?CreateControlWindow@?$CComControl@VCOPOSLights@@V?$CWindowImpl@VCOPOSLights@@VCWindow@ATL@@V?$CWinTraits@$0FGAAAAAA@$0A@@3@@ATL@@@ATL@@UEAAPEAUHWND__@@PEAU3@AEAUtagRECT@@@Z 0000000180030674     Lights.obj
 0002:0000b674       $unwind$_raise_exc         0000000180030674     libucrt:fpexcept.obj
 0002:0000b674       $unwind$?__scrt_throw_std_bad_alloc@@YAXXZ 0000000180030674     LIBCMT:throw_bad_alloc.obj
 0002:0000b674       $unwind$?__scrt_throw_std_bad_array_new_length@@YAXXZ 0000000180030674     LIBCMT:throw_bad_alloc.obj
 0002:0000b67c       $unwind$?ProcessWindowMessage@?$CComControl@VCOPOSLights@@V?$CWindowImpl@VCOPOSLights@@VCWindow@ATL@@V?$CWinTraits@$0FGAAAAAA@$0A@@3@@ATL@@@ATL@@UEAAHPEAUHWND__@@I_K_JAEA_JK@Z 000000018003067c     Lights.obj
 0002:0000b684       $unwind$?GetSizeMax@?$IPersistStreamInitImpl@VCOPOSLights@@@ATL@@UEAAJPEAT_ULARGE_INTEGER@@@Z 0000000180030684     Lights.obj
 0002:0000b69c       $unwind$?IPersistStreamInit_Load@?$IPersistStreamInitImpl@VCOPOSLights@@@ATL@@QEAAJPEAUIStream@@PEBUATL_PROPMAP_ENTRY@2@@Z 000000018003069c     Lights.obj
 0002:0000b6b8       $unwind$?IPersistStreamInit_Save@?$IPersistStreamInitImpl@VCOPOSLights@@@ATL@@QEAAJPEAUIStream@@HPEBUATL_PROPMAP_ENTRY@2@@Z 00000001800306b8     Lights.obj
 0002:0000b6d4       $unwind$?DoVerbPrimary@?$IOleObjectImpl@VCOPOSLights@@@ATL@@QEAAJPEBUtagRECT@@PEAUHWND__@@@Z 00000001800306d4     Lights.obj
 0002:0000b6ec       $unwind$?TranslateAcceleratorW@?$IOleInPlaceActiveObjectImpl@VCOPOSLights@@@ATL@@UEAAJPEAUtagMSG@@@Z 00000001800306ec     Lights.obj
 0002:0000b6f8       $unwind$?Draw@?$IViewObjectExImpl@VCOPOSLights@@@ATL@@UEAAJKJPEAXPEAUtagDVTARGETDEVICE@@PEAUHDC__@@2PEBU_RECTL@@3P6AH_K@Z4@Z 00000001800306f8     Lights.obj
 0002:0000b700       $unwind$?QueryHitRect@?$IViewObjectExImpl@VCOPOSLights@@@ATL@@UEAAJKPEBUtagRECT@@0JPEAK@Z 0000000180030700     Lights.obj
 0002:0000b710       $unwind$?OnWindowMessage@?$IOleInPlaceObjectWindowlessImpl@VCOPOSLights@@@ATL@@UEAAJI_K_JPEA_J@Z 0000000180030710     Lights.obj
 0002:0000b724       $unwind$?EnumConnectionPoints@?$IConnectionPointContainerImpl@VCOPOSLights@@@ATL@@UEAAJPEAPEAUIEnumConnectionPoints@@@Z 0000000180030724     Lights.obj
 0002:0000b74c       $unwind$?FindConnectionPoint@?$IConnectionPointContainerImpl@VCOPOSLights@@@ATL@@UEAAJAEBU_GUID@@PEAPEAUIConnectionPoint@@@Z 000000018003074c     Lights.obj
 0002:0000b768       $unwind$?Load@?$IPersistStorageImpl@VCOPOSLights@@@ATL@@UEAAJPEAUIStorage@@@Z 0000000180030768     Lights.obj
 0002:0000b778       $unwind$?Save@?$IPersistStorageImpl@VCOPOSLights@@@ATL@@UEAAJPEAUIStorage@@H@Z 0000000180030778     Lights.obj
 0002:0000b78c       $unwind$?IPSI_GetIPersistStreamInit@?$IPersistStorageImpl@VCOPOSLights@@@ATL@@AEAAPEAUIPersistStreamInit@@XZ 000000018003078c     Lights.obj
 0002:0000b7a0       $unwind$?GetInterfaceSafetyOptions@?$IObjectSafetyImpl@VCOPOSLights@@$02@ATL@@UEAAJAEBU_GUID@@PEAK1@Z 00000001800307a0     Lights.obj
 0002:0000b7b4       $unwind$?SetInterfaceSafetyOptions@?$IObjectSafetyImpl@VCOPOSLights@@$02@ATL@@UEAAJAEBU_GUID@@KK@Z 00000001800307b4     Lights.obj
 0002:0000b7c8       $unwind$?Advise@?$IConnectionPointImpl@VCOPOSLights@@$1?DIID__IOPOSLightsEvents@@3U_GUID@@BVCComDynamicUnkArray@ATL@@@ATL@@UEAAJPEAUIUnknown@@PEAK@Z 00000001800307c8     Lights.obj
 0002:0000b7c8       $unwind$?Advise@?$IConnectionPointImpl@VCOPOSLights@@$1?IID_IPropertyNotifySink@@3U_GUID@@BVCComDynamicUnkArray@ATL@@@ATL@@UEAAJPEAUIUnknown@@PEAK@Z 00000001800307c8     Lights.obj
 0002:0000b7dc       $unwind$?EnumConnections@?$IConnectionPointImpl@VCOPOSLights@@$1?DIID__IOPOSLightsEvents@@3U_GUID@@BVCComDynamicUnkArray@ATL@@@ATL@@UEAAJPEAPEAUIEnumConnections@@@Z 00000001800307dc     Lights.obj
 0002:0000b7dc       $unwind$?EnumConnections@?$IConnectionPointImpl@VCOPOSLights@@$1?IID_IPropertyNotifySink@@3U_GUID@@BVCComDynamicUnkArray@ATL@@@ATL@@UEAAJPEAPEAUIEnumConnections@@@Z 00000001800307dc     Lights.obj
 0002:0000b7f4       $unwind$?Fire_DirectIOEvent@?$CProxy_IOPOSEvents@VCOPOSLights@@@@QEAAXJPEAJPEAPEA_W@Z 00000001800307f4     Lights.obj
 0002:0000b814       $unwind$?Fire_StatusUpdateEvent@?$CProxy_IOPOSEvents@VCOPOSLights@@@@QEAAXJ@Z 0000000180030814     Lights.obj
 0002:0000b814       $unwind$?fp_format_e@@YAHQEBNQEAD_K12H_NIW4__acrt_rounding_mode@@AEAV__crt_cached_ptd_host@@@Z 0000000180030814     libucrt:cvt.obj
 0002:0000b814       $unwind$??$__InternalCxxFrameHandler@V__FrameHandler3@@@@YA?AW4_EXCEPTION_DISPOSITION@@PEAUEHExceptionRecord@@PEA_KPEAU_CONTEXT@@PEAU_xDISPATCHER_CONTEXT@@PEBU_s_FuncInfo@@H1E@Z 0000000180030814     libvcruntime:frame.obj
 0002:0000b82c       $unwind$?FireTheEvent@?$CProxy_IOPOSEvents@VCOPOSLights@@@@IEAAXPEAVOposVariant@@IAEAJPEB_WJ@Z 000000018003082c     Lights.obj
 0002:0000b83c       $unwind$?ProcessWindowMessage@COPOSLights@@UEAAHPEAUHWND__@@I_K_JAEA_JK@Z 000000018003083c     Lights.obj
 0002:0000b854       $unwind$?Clone@?$CComEnumImpl@UIEnumConnectionPoints@@$1?_GUID_b196b285_bab4_101a_b69c_00aa00341d07@@3U__s_GUID@@BPEAUIConnectionPoint@@V?$_CopyInterface@UIConnectionPoint@@@ATL@@@ATL@@UEAAJPEAPEAUIEnumConnectionPoints@@@Z 0000000180030854     Lights.obj
 0002:0000b854       $unwind$?Clone@?$CComEnumImpl@UIEnumConnections@@$1?_GUID_b196b287_bab4_101a_b69c_00aa00341d07@@3U__s_GUID@@BUtagCONNECTDATA@@V?$_Copy@UtagCONNECTDATA@@@ATL@@@ATL@@UEAAJPEAPEAUIEnumConnections@@@Z 0000000180030854     Lights.obj
 0002:0000b86c       $unwind$?Init@?$CComEnumImpl@UIEnumConnectionPoints@@$1?_GUID_b196b285_bab4_101a_b69c_00aa00341d07@@3U__s_GUID@@BPEAUIConnectionPoint@@V?$_CopyInterface@UIConnectionPoint@@@ATL@@@ATL@@QEAAJPEAPEAUIConnectionPoint@@0PEAUIUnknown@@W4CComEnumFlags@2@@Z 000000018003086c     Lights.obj
 0002:0000b86c       $unwind$?Init@?$CComEnumImpl@UIEnumConnections@@$1?_GUID_b196b287_bab4_101a_b69c_00aa00341d07@@3U__s_GUID@@BUtagCONNECTDATA@@V?$_Copy@UtagCONNECTDATA@@@ATL@@@ATL@@QEAAJPEAUtagCONNECTDATA@@0PEAUIUnknown@@W4CComEnumFlags@2@@Z 000000018003086c     Lights.obj
 0002:0000b86c       $unwind$?should_round_up@@YA_NQEBN_KFW4__acrt_rounding_mode@@@Z 000000018003086c     libucrt:cvt.obj
 0002:0000b86c       $unwind$??$parse_command_line@D@@YAXPEADPEAPEAD0PEA_K2@Z 000000018003086c     libucrt:argv_parsing.obj
 0002:0000b888       $unwind$?GetOposProp@COPOSLights@@IEAAJJPEAJJ@Z 0000000180030888     LightsImpl.obj
 0002:0000b888       $unwind$?GetOposProp@COPOSLights@@IEAAJJPEAPEA_WJ@Z 0000000180030888     LightsImpl.obj
 0002:0000b8a0       $unwind$?SetOposProp@COPOSLights@@IEAAJJJJ@Z 00000001800308a0     LightsImpl.obj
 0002:0000b8c0       $unwind$?DoInvoke@COPOSLights@@IEAAJJPEAVOposVariant@@IHPEAJ_N@Z 00000001800308c0     LightsImpl.obj
 0002:0000b8d8       $unwind$?SetCOFreezeEvents@COPOSLights@@IEAAXF@Z 00000001800308d8     LightsImpl.obj
 0002:0000b8ec       $unwind$?OnDraw@COPOSLights@@MEAAJAEAUATL_DRAWINFO@@@Z 00000001800308ec     LightsImpl.obj
 0002:0000b904       $unwind$?EventInit@COPOSLights@@IEAAJXZ 0000000180030904     LightsImpl.obj
 0002:0000b918       $unwind$?get_ControlObjectDescription@COPOSLights@@UEAAJPEAPEA_W@Z 0000000180030918     LightsImpl.obj
 0002:0000b918       $unwind$__dcrt_lowio_ensure_console_output_initialized 0000000180030918     libucrt:initcon.obj
 0002:0000b918       $unwind$?__mbrtowc_utf8@__crt_mbstring@@YA_KPEA_WPEBD_KPEAU_Mbstatet@@AEAV__crt_cached_ptd_host@@@Z 0000000180030918     libucrt:mbrtowc.obj
 0002:0000b918       $unwind$?getSystemCP@@YAHH@Z 0000000180030918     libucrt:mbctype.obj
 0002:0000b920       $unwind$?CheckHealth@COPOSLights@@UEAAJJPEAJ@Z 0000000180030920     LightsImpl.obj
 0002:0000b920       $unwind$?ResetStatistics@COPOSLights@@UEAAJPEA_WPEAJ@Z 0000000180030920     LightsImpl.obj
 0002:0000b920       $unwind$?RetrieveStatistics@COPOSLights@@UEAAJPEAPEA_WPEAJ@Z 0000000180030920     LightsImpl.obj
 0002:0000b920       $unwind$?SwitchOff@COPOSLights@@UEAAJJPEAJ@Z 0000000180030920     LightsImpl.obj
 0002:0000b920       $unwind$?UpdateFirmware@COPOSLights@@UEAAJPEA_WPEAJ@Z 0000000180030920     LightsImpl.obj
 0002:0000b920       $unwind$?UpdateStatistics@COPOSLights@@UEAAJPEA_WPEAJ@Z 0000000180030920     LightsImpl.obj
 0002:0000b930       $unwind$?ClaimDevice@COPOSLights@@UEAAJJPEAJ@Z 0000000180030930     LightsImpl.obj
 0002:0000b940       $unwind$?Close@COPOSLights@@UEAAJPEAJ@Z 0000000180030940     LightsImpl.obj
 0002:0000b94c       $unwind$?DirectIO@COPOSLights@@UEAAJJPEAJPEAPEA_W0@Z 000000018003094c     LightsImpl.obj
 0002:0000b968       $unwind$?Open@COPOSLights@@UEAAJPEA_WPEAJ@Z 0000000180030968     LightsImpl.obj
 0002:0000b98c       $unwind$?CompareFirmwareVersion@COPOSLights@@UEAAJPEA_WPEAJ1@Z 000000018003098c     LightsImpl.obj
 0002:0000b98c       $unwind$?initialize_inherited_file_handles_nolock@@YAXXZ 000000018003098c     libucrt:ioinit.obj
 0002:0000b9a8       $unwind$?SwitchOn@COPOSLights@@UEAAJJJJJJPEAJ@Z 00000001800309a8     LightsImpl.obj
 0002:0000b9c4       $unwind$__scrt_is_nonwritable_in_current_image 00000001800309c4     LIBCMT:utility.obj
 0002:0000b9e4       $unwind$__scrt_is_nonwritable_in_current_image$filt$0 00000001800309e4     LIBCMT:utility.obj
 0002:0000b9ec       $unwind$__report_securityfailure 00000001800309ec     LIBCMT:gs_report.obj
 0002:0000b9f4       $unwind$__report_gsfailure 00000001800309f4     LIBCMT:gs_report.obj
 0002:0000b9fc       $unwind$capture_current_context 00000001800309fc     LIBCMT:gs_report.obj
 0002:0000ba08       $unwind$capture_previous_context 0000000180030a08     LIBCMT:gs_report.obj
 0002:0000ba14       $unwind$??2@YAPEAX_KAEBUnothrow_t@std@@@Z 0000000180030a14     LIBCMT:new_scalar_nothrow.obj
 0002:0000ba24       $cppxdata$??2@YAPEAX_KAEBUnothrow_t@std@@@Z 0000000180030a24     LIBCMT:new_scalar_nothrow.obj
 0002:0000ba31       $stateUnwindMap$??2@YAPEAX_KAEBUnothrow_t@std@@@Z 0000000180030a31     LIBCMT:new_scalar_nothrow.obj
 0002:0000ba34       $tryMap$??2@YAPEAX_KAEBUnothrow_t@std@@@Z 0000000180030a34     LIBCMT:new_scalar_nothrow.obj
 0002:0000ba3c       $handlerMap$??2@YAPEAX_KAEBUnothrow_t@std@@@Z 0000000180030a3c     LIBCMT:new_scalar_nothrow.obj
 0002:0000ba44       $ip2state$??2@YAPEAX_KAEBUnothrow_t@std@@@Z 0000000180030a44     LIBCMT:new_scalar_nothrow.obj
 0002:0000ba48       $unwind$?catch$0@?0???2@YAPEAX_KAEBUnothrow_t@std@@@Z@4HA 0000000180030a48     LIBCMT:new_scalar_nothrow.obj
 0002:0000ba58       $cppxdata$?catch$0@?0???2@YAPEAX_KAEBUnothrow_t@std@@@Z@4HA 0000000180030a58     LIBCMT:new_scalar_nothrow.obj
 0002:0000ba62       $stateUnwindMap$?catch$0@?0???2@YAPEAX_KAEBUnothrow_t@std@@@Z@4HA 0000000180030a62     LIBCMT:new_scalar_nothrow.obj
 0002:0000ba64       $ip2state$?catch$0@?0???2@YAPEAX_KAEBUnothrow_t@std@@@Z@4HA 0000000180030a64     LIBCMT:new_scalar_nothrow.obj
 0002:0000ba68       $unwind$__GSHandlerCheckCommon 0000000180030a68     LIBCMT:gshandler.obj
 0002:0000ba70       $xdatasym                  0000000180030a70     LIBCMT:chkstk.obj
 0002:0000ba78       $xdatasym                  0000000180030a78     LIBCMT:amdsecgs.obj
 0002:0000ba7c       $unwind$?dllmain_crt_process_attach@@YAHQEAUHINSTANCE__@@QEAX@Z 0000000180030a7c     LIBCMT:dll_dllmain.obj
 0002:0000bab8       $unwind$?dllmain_crt_process_detach@@YAH_N@Z 0000000180030ab8     LIBCMT:dll_dllmain.obj
 0002:0000bb0c       $unwind$?dllmain_dispatch@@YAHQEAUHINSTANCE__@@KQEAX@Z 0000000180030b0c     LIBCMT:dll_dllmain.obj
 0002:0000bb34       $unwind$_write_internal$fin$0 0000000180030b34     libucrt:write.obj
 0002:0000bb34       $unwind$?fin$0@?0??_fclose_internal@@YAHQEAU_iobuf@@AEAV__crt_cached_ptd_host@@@Z@4HA 0000000180030b34     libucrt:fclose.obj
 0002:0000bb34       $unwind$?filt$0@?0??dllmain_dispatch@@YAHQEAUHINSTANCE__@@KQEAX@Z@4HA 0000000180030b34     LIBCMT:dll_dllmain.obj
 0002:0000bb34       $unwind$?filt$0@?0??FrameUnwindToState@__FrameHandler4@@SAXPEA_KPEAU_xDISPATCHER_CONTEXT@@PEAUFuncInfo4@FH4@@H@Z@4HA 0000000180030b34     libvcruntime:frame.obj
 0002:0000bb34       $unwind$?fin$1@?0??FrameUnwindToState@__FrameHandler4@@SAXPEA_KPEAU_xDISPATCHER_CONTEXT@@PEAUFuncInfo4@FH4@@H@Z@4HA 0000000180030b34     libvcruntime:frame.obj
 0002:0000bb3c       $unwind$__isa_available_init 0000000180030b3c     LIBCMT:cpu_disp.obj
 0002:0000bb4c       $unwind$__scrt_fastfail    0000000180030b4c     LIBCMT:utility_desktop.obj
 0002:0000bb5c       $unwind$__security_init_cookie 0000000180030b5c     LIBCMT:gs_support.obj
 0002:0000bb68       $xdatasym                  0000000180030b68     LIBCMT:guard_dispatch.obj
 0002:0000bb70       $xdatasym                  0000000180030b70     LIBCMT:guard_xfg_dispatch.obj
 0002:0000bb74       $unwind$AtlThunk_InitData  0000000180030b74     atls:atlthunk.obj
 0002:0000bb88       $unwind$wcsstr             0000000180030b88     libvcruntime:wcsstr.obj
 0002:0000bba0       $xdatasym                  0000000180030ba0     libvcruntime:memcmp.obj
 0002:0000bba8       $xdatasym                  0000000180030ba8     libvcruntime:memcpy.obj
 0002:0000bbb8       $xdatasym                  0000000180030bb8     libvcruntime:memset.obj
 0002:0000bbc8       $unwind$__C_specific_handler 0000000180030bc8     libvcruntime:riscchandler.obj
 0002:0000bbc8       $unwind$?GetRangeOfTrysToCheck@__FrameHandler3@@SA?AU?$pair@Viterator@TryBlockMap@__FrameHandler3@@V123@@std@@AEAVTryBlockMap@1@HPEAU_xDISPATCHER_CONTEXT@@PEBU_s_FuncInfo@@H@Z 0000000180030bc8     libvcruntime:risctrnsctrl.obj
 0002:0000bbe4       $unwind$?StateFromIp@__FrameHandler4@@SAHPEAUFuncInfo4@FH4@@PEAU_xDISPATCHER_CONTEXT@@_K@Z 0000000180030be4     libvcruntime:ehstate.obj
 0002:0000bbe4       $unwind$?DecompFuncInfo@FH4@@YA_JPEAEAEAUFuncInfo4@1@_KH_N@Z 0000000180030be4     libvcruntime:risctrnsctrl.obj
 0002:0000bbfc       $unwind$?GetEstablisherFrame@__FrameHandler3@@SAPEA_KPEA_KPEAU_xDISPATCHER_CONTEXT@@PEBU_s_FuncInfo@@0@Z 0000000180030bfc     libvcruntime:risctrnsctrl.obj
 0002:0000bc14       $unwind$?UnwindNestedFrames@__FrameHandler3@@SAXPEA_KPEAUEHExceptionRecord@@PEAU_CONTEXT@@0PEAXPEBU_s_FuncInfo@@HHPEBU_s_HandlerType@@PEAU_xDISPATCHER_CONTEXT@@E@Z 0000000180030c14     libvcruntime:risctrnsctrl.obj
 0002:0000bc14       $unwind$?UnwindNestedFrames@__FrameHandler4@@SAXPEA_KPEAUEHExceptionRecord@@PEAU_CONTEXT@@0PEAXPEAUFuncInfo4@FH4@@HHPEAUHandlerType4@5@PEAU_xDISPATCHER_CONTEXT@@E@Z 0000000180030c14     libvcruntime:risctrnsctrl.obj
 0002:0000bc28       $unwind$?GetRangeOfTrysToCheck@__FrameHandler4@@SA?AU?$pair@Viterator@TryBlockMap4@FH4@@V123@@std@@AEAVTryBlockMap4@FH4@@HPEAU_xDISPATCHER_CONTEXT@@PEAUFuncInfo4@5@H@Z 0000000180030c28     libvcruntime:risctrnsctrl.obj
 0002:0000bc44       $unwind$__CxxFrameHandler3 0000000180030c44     libvcruntime:risctrnsctrl.obj
 0002:0000bc58       $unwind$__CxxFrameHandler4 0000000180030c58     libvcruntime:risctrnsctrl.obj
 0002:0000bc6c       $unwind$??$_CallSETranslator@V__FrameHandler4@@@@YAHPEAUEHExceptionRecord@@PEA_KPEAU_CONTEXT@@PEAU_xDISPATCHER_CONTEXT@@PEAUFuncInfo4@FH4@@K1H@Z 0000000180030c6c     libvcruntime:risctrnsctrl.obj
 0002:0000bc8c       $unwind$?filt$0@?0???$_CallSETranslator@V__FrameHandler3@@@@YAHPEAUEHExceptionRecord@@PEA_KPEAU_CONTEXT@@PEAU_xDISPATCHER_CONTEXT@@PEBU_s_FuncInfo@@K1H@Z@4HA 0000000180030c8c     libvcruntime:risctrnsctrl.obj
 0002:0000bc8c       $unwind$?filt$0@?0???$_CallSETranslator@V__FrameHandler4@@@@YAHPEAUEHExceptionRecord@@PEA_KPEAU_CONTEXT@@PEAU_xDISPATCHER_CONTEXT@@PEAUFuncInfo4@FH4@@K1H@Z@4HA 0000000180030c8c     libvcruntime:risctrnsctrl.obj
 0002:0000bc98       $unwind$??$_CallSETranslator@V__FrameHandler3@@@@YAHPEAUEHExceptionRecord@@PEA_KPEAU_CONTEXT@@PEAU_xDISPATCHER_CONTEXT@@PEBU_s_FuncInfo@@K1H@Z 0000000180030c98     libvcruntime:risctrnsctrl.obj
 0002:0000bcb8       $unwind$__DestructExceptionObject 0000000180030cb8     libvcruntime:ehhelpers.obj
 0002:0000bcd8       $unwind$__DestructExceptionObject$filt$0 0000000180030cd8     libvcruntime:ehhelpers.obj
 0002:0000bcd8       $unwind$?fin$1@?0??CxxCallCatchBlock@__FrameHandler3@@SAPEAXPEAU_EXCEPTION_RECORD@@@Z@4HA 0000000180030cd8     libvcruntime:frame.obj
 0002:0000bcd8       $unwind$?fin$1@?0??CxxCallCatchBlock@__FrameHandler4@@SAPEAXPEAU_EXCEPTION_RECORD@@@Z@4HA 0000000180030cd8     libvcruntime:frame.obj
 0002:0000bce4       $unwind$_CxxThrowException 0000000180030ce4     libvcruntime:throw.obj
 0002:0000bcf8       $xdatasym                  0000000180030cf8     libvcruntime:notify.obj
 0002:0000bd04       $unwind$?getStartStop@UWMap4@FH4@@QEAAXHHAEAViterator@12@0@Z 0000000180030d04     libvcruntime:frame.obj
 0002:0000bd1c       $unwind$?FrameUnwindToState@__FrameHandler3@@SAXPEA_KPEAU_xDISPATCHER_CONTEXT@@PEBU_s_FuncInfo@@H@Z 0000000180030d1c     libvcruntime:frame.obj
 0002:0000bd68       $unwind$?CxxCallCatchBlock@__FrameHandler3@@SAPEAXPEAU_EXCEPTION_RECORD@@@Z 0000000180030d68     libvcruntime:frame.obj
 0002:0000bda4       $unwind$?FrameUnwindToState@__FrameHandler4@@SAXPEA_KPEAU_xDISPATCHER_CONTEXT@@PEAUFuncInfo4@FH4@@H@Z 0000000180030da4     libvcruntime:frame.obj
 0002:0000bdec       $unwind$?CxxCallCatchBlock@__FrameHandler4@@SAPEAXPEAU_EXCEPTION_RECORD@@@Z 0000000180030dec     libvcruntime:frame.obj
 0002:0000be48       $unwind$?IsInExceptionSpec@@YAEPEAUEHExceptionRecord@@PEBU_s_ESTypeList@@@Z 0000000180030e48     libvcruntime:frame.obj
 0002:0000be64       $unwind$??$__InternalCxxFrameHandler@V__FrameHandler4@@@@YA?AW4_EXCEPTION_DISPOSITION@@PEAUEHExceptionRecord@@PEA_KPEAU_CONTEXT@@PEAU_xDISPATCHER_CONTEXT@@PEAUFuncInfo4@FH4@@H1E@Z 0000000180030e64     libvcruntime:frame.obj
 0002:0000be7c       $unwind$??$BuildCatchObjectHelperInternal@V__FrameHandler3@@@@YAHPEAUEHExceptionRecord@@PEAXPEBU_s_HandlerType@@PEBU_s_CatchableType@@@Z 0000000180030e7c     libvcruntime:frame.obj
 0002:0000bebc       $unwind$??$BuildCatchObjectHelperInternal@V__FrameHandler4@@@@YAHPEAUEHExceptionRecord@@PEAXPEAUHandlerType4@FH4@@PEBU_s_CatchableType@@@Z 0000000180030ebc     libvcruntime:frame.obj
 0002:0000befc       $unwind$??$BuildCatchObjectInternal@V__FrameHandler3@@@@YAXPEAUEHExceptionRecord@@PEAXPEBU_s_HandlerType@@PEBU_s_CatchableType@@@Z 0000000180030efc     libvcruntime:frame.obj
 0002:0000bf28       $unwind$??$BuildCatchObjectInternal@V__FrameHandler4@@@@YAXPEAUEHExceptionRecord@@PEAXPEAUHandlerType4@FH4@@PEBU_s_CatchableType@@@Z 0000000180030f28     libvcruntime:frame.obj
 0002:0000bf54       $unwind$??$FindHandler@V__FrameHandler3@@@@YAXPEAUEHExceptionRecord@@PEA_KPEAU_CONTEXT@@PEAU_xDISPATCHER_CONTEXT@@PEBU_s_FuncInfo@@EH1@Z 0000000180030f54     libvcruntime:frame.obj
 0002:0000bf74       $unwind$??$FindHandler@V__FrameHandler4@@@@YAXPEAUEHExceptionRecord@@PEA_KPEAU_CONTEXT@@PEAU_xDISPATCHER_CONTEXT@@PEAUFuncInfo4@FH4@@EH1@Z 0000000180030f74     libvcruntime:frame.obj
 0002:0000bf94       $unwind$??$CatchIt@V__FrameHandler3@@@@YAXPEAUEHExceptionRecord@@PEA_KPEAU_CONTEXT@@PEAU_xDISPATCHER_CONTEXT@@PEBU_s_FuncInfo@@PEBU_s_HandlerType@@PEBU_s_CatchableType@@PEBU_s_TryBlockMapEntry@@H1EE@Z 0000000180030f94     libvcruntime:frame.obj
 0002:0000bf94       $unwind$??$CatchIt@V__FrameHandler4@@@@YAXPEAUEHExceptionRecord@@PEA_KPEAU_CONTEXT@@PEAU_xDISPATCHER_CONTEXT@@PEAUFuncInfo4@FH4@@PEAUHandlerType4@4@PEBU_s_CatchableType@@PEAUTryBlockMapEntry4@4@H1EE@Z 0000000180030f94     libvcruntime:frame.obj
 0002:0000bfac       $unwind$??$FindHandlerForForeignException@V__FrameHandler3@@@@YAXPEAUEHExceptionRecord@@PEA_KPEAU_CONTEXT@@PEAU_xDISPATCHER_CONTEXT@@PEBU_s_FuncInfo@@HH1@Z 0000000180030fac     libvcruntime:frame.obj
 0002:0000bfc8       $unwind$??$FindHandlerForForeignException@V__FrameHandler4@@@@YAXPEAUEHExceptionRecord@@PEA_KPEAU_CONTEXT@@PEAU_xDISPATCHER_CONTEXT@@PEAUFuncInfo4@FH4@@HH1@Z 0000000180030fc8     libvcruntime:frame.obj
 0002:0000bfe8       $unwind$?try_get_function@@YAPEAXW4function_id@?A0x391cf84c@@QEBDQEBW4module_id@2@2@Z 0000000180030fe8     libucrt:winapi_thunks.obj
 0002:0000bfe8       $unwind$?try_get_function@@YAPEAXW4function_id@?A0xbc0cc709@@QEBDQEBW4module_id@2@2@Z 0000000180030fe8     libvcruntime:winapi_downlevel.obj
 0002:0000c008       $xdatasym                  0000000180031008     libvcruntime:handlers.obj
 0002:0000c028       $unwind$__acrt_call_reportfault 0000000180031028     libucrt:invalid_parameter.obj
 0002:0000c048       $unwind$??$common_lseek_nolock@_J@@YA_JH_JHAEAV__crt_cached_ptd_host@@@Z 0000000180031048     libucrt:lseek.obj
 0002:0000c048       $unwind$_invalid_parameter_internal 0000000180031048     libucrt:invalid_parameter.obj
 0002:0000c048       $unwind$??$type_case_integer@$07@?$output_processor@_WV?$string_output_adapter@_W@__crt_stdio_output@@V?$format_validation_base@_WV?$string_output_adapter@_W@__crt_stdio_output@@@2@@__crt_stdio_output@@AEAA_N_N@Z 0000000180031048     libucrt:output.obj
 0002:0000c048       $unwind$??$type_case_integer@$09@?$output_processor@_WV?$string_output_adapter@_W@__crt_stdio_output@@V?$format_validation_base@_WV?$string_output_adapter@_W@__crt_stdio_output@@@2@@__crt_stdio_output@@AEAA_N_N@Z 0000000180031048     libucrt:output.obj
 0002:0000c048       $unwind$??$type_case_integer@$0BA@@?$output_processor@_WV?$string_output_adapter@_W@__crt_stdio_output@@V?$format_validation_base@_WV?$string_output_adapter@_W@__crt_stdio_output@@@2@@__crt_stdio_output@@AEAA_N_N@Z 0000000180031048     libucrt:output.obj
 0002:0000c05c       $unwind$_invalid_parameter 000000018003105c     libucrt:invalid_parameter.obj
 0002:0000c068       $unwind$_resetstkoflw      0000000180031068     libucrt:resetstk.obj
 0002:0000c08c       $unwind$__stdio_common_vswprintf_s 000000018003108c     libucrt:output.obj
 0002:0000c0a0       $unwind$?write_string@?$string_output_adapter@_W@__crt_stdio_output@@QEBAXQEB_WHQEAHAEAV__crt_cached_ptd_host@@@Z 00000001800310a0     libucrt:output.obj
 0002:0000c0b8       $unwind$??$common_vsprintf@Vformat_validation_base@__crt_stdio_output@@_W@@YAH_KQEA_W0QEB_WAEAV__crt_cached_ptd_host@@QEAD@Z 00000001800310b8     libucrt:output.obj
 0002:0000c0d8       $unwind$?parse_int_from_format_string@?$output_processor@_WV?$string_output_adapter@_W@__crt_stdio_output@@V?$format_validation_base@_WV?$string_output_adapter@_W@__crt_stdio_output@@@2@@__crt_stdio_output@@AEAA_NQEAH@Z 00000001800310d8     libucrt:output.obj
 0002:0000c0ec       $unwind$?state_case_type@?$output_processor@_WV?$string_output_adapter@_W@__crt_stdio_output@@V?$format_validation_base@_WV?$string_output_adapter@_W@__crt_stdio_output@@@2@@__crt_stdio_output@@AEAA_NXZ 00000001800310ec     libucrt:output.obj
 0002:0000c110       $unwind$?type_case_a@?$output_processor@_WV?$string_output_adapter@_W@__crt_stdio_output@@V?$format_validation_base@_WV?$string_output_adapter@_W@__crt_stdio_output@@@2@@__crt_stdio_output@@AEAA_NXZ 0000000180031110     libucrt:output.obj
 0002:0000c124       $unwind$?type_case_n@?$output_processor@_WV?$string_output_adapter@_W@__crt_stdio_output@@V?$format_validation_base@_WV?$string_output_adapter@_W@__crt_stdio_output@@@2@@__crt_stdio_output@@AEAA_NXZ 0000000180031124     libucrt:output.obj
 0002:0000c130       $unwind$??$parse_integer@KV?$c_string_character_source@_W@__crt_strtox@@$0A@@__crt_strtox@@YAKAEAV__crt_cached_ptd_host@@V?$c_string_character_source@_W@0@H_N@Z 0000000180031130     libucrt:output.obj
 0002:0000c14c       $unwind$?try_cor_exit_process@@YAXI@Z 000000018003114c     libucrt:exit.obj
 0002:0000c160       $ip2state$?try_cor_exit_process@@YAXI@Z 0000000180031160     libucrt:exit.obj
 0002:0000c168       $unwind$?common_exit@@YAXHW4_crt_exit_cleanup_mode@@W4_crt_exit_return_mode@@@Z 0000000180031168     libucrt:exit.obj
 0002:0000c17c       $stateUnwindMap$__dcrt_uninitialize_environments_nolock 000000018003117c     libucrt:environment_initialization.obj
 0002:0000c17c       $stateUnwindMap$?common_exit@@YAXHW4_crt_exit_cleanup_mode@@W4_crt_exit_return_mode@@@Z 000000018003117c     libucrt:exit.obj
 0002:0000c17c       $stateUnwindMap$_execute_onexit_table 000000018003117c     libucrt:onexit.obj
 0002:0000c188       $ip2state$?common_exit@@YAXHW4_crt_exit_cleanup_mode@@W4_crt_exit_return_mode@@@Z 0000000180031188     libucrt:exit.obj
 0002:0000c190       $unwind$??R<lambda_6e4b09c48022b2350581041d5f6b0c4c>@@QEBA@XZ 0000000180031190     libucrt:exit.obj
 0002:0000c1b0       $unwind$??$?RV<lambda_d80eeec6fff315bfe5c115232f3240e3>@@AEAV<lambda_6e4b09c48022b2350581041d5f6b0c4c>@@V<lambda_2358e3775559c9db80273638284d5e45>@@@?$__crt_seh_guarded_call@X@@QEAAX$$QEAV<lambda_d80eeec6fff315bfe5c115232f3240e3>@@AEAV<lambda_6e4b09c48022b2350581041d5f6b0c4c>@@$$QEAV<lambda_2358e3775559c9db80273638284d5e45>@@@Z 00000001800311b0     libucrt:exit.obj
 0002:0000c1d4       $unwind$__dcrt_uninitialize_environments_nolock 00000001800311d4     libucrt:environment_initialization.obj
 0002:0000c1e4       $unwind$??$free_environment@D@@YAXQEAPEAD@Z 00000001800311e4     libucrt:environment_initialization.obj
 0002:0000c1e4       $unwind$??$free_environment@_W@@YAXQEAPEA_W@Z 00000001800311e4     libucrt:environment_initialization.obj
 0002:0000c1e4       $unwind$_initterm          00000001800311e4     libucrt:initterm.obj
 0002:0000c1f0       $unwind$_register_onexit_function 00000001800311f0     libucrt:onexit.obj
 0002:0000c1f8       $unwind$_execute_onexit_table 00000001800311f8     libucrt:onexit.obj
 0002:0000c208       $ip2state$_execute_onexit_table 0000000180031208     libucrt:onexit.obj
 0002:0000c210       $unwind$??R<lambda_22ebabd17bc4fa466a2aca6d8deb888d>@@QEBAHXZ 0000000180031210     libucrt:onexit.obj
 0002:0000c228       $unwind$??$?RV<lambda_638799b9deba96c50f710eeac98168cd>@@AEAV<lambda_22ebabd17bc4fa466a2aca6d8deb888d>@@V<lambda_a6f7d7db0129f75315ebf26d50c089f1>@@@?$__crt_seh_guarded_call@H@@QEAAH$$QEAV<lambda_638799b9deba96c50f710eeac98168cd>@@AEAV<lambda_22ebabd17bc4fa466a2aca6d8deb888d>@@$$QEAV<lambda_a6f7d7db0129f75315ebf26d50c089f1>@@@Z 0000000180031228     libucrt:onexit.obj
 0002:0000c24c       $unwind$??$?RV<lambda_7777bce6b2f8c936911f934f8298dc43>@@AEAV<lambda_f03950bc5685219e0bcd2087efbe011e>@@V<lambda_3883c3dff614d5e0c5f61bb1ac94921c>@@@?$__crt_seh_guarded_call@H@@QEAAH$$QEAV<lambda_7777bce6b2f8c936911f934f8298dc43>@@AEAV<lambda_f03950bc5685219e0bcd2087efbe011e>@@$$QEAV<lambda_3883c3dff614d5e0c5f61bb1ac94921c>@@@Z 000000018003124c     libucrt:onexit.obj
 0002:0000c270       $unwind$_query_new_handler 0000000180031270     libucrt:new_handler.obj
 0002:0000c290       $unwind$terminate          0000000180031290     libucrt:terminate.obj
 0002:0000c2b0       $xdatasym                  00000001800312b0     libucrt:strncmp.obj
 0002:0000c2b4       $unwind$?construct_ptd_array@@YAXQEAU__acrt_ptd@@@Z 00000001800312b4     libucrt:per_thread_data.obj
 0002:0000c2bc       $unwind$?destroy_ptd_array@@YAXQEAU__acrt_ptd@@@Z 00000001800312bc     libucrt:per_thread_data.obj
 0002:0000c2c4       $unwind$??$?RV<lambda_0ae27a3a962d80f24befdcbee591983d>@@AEAV<lambda_8d0ee55de4b1038c4002e0adecdf1839>@@V<lambda_dc504788e8f1664fe9b84e20bfb512f2>@@@?$__crt_seh_guarded_call@X@@QEAAX$$QEAV<lambda_0ae27a3a962d80f24befdcbee591983d>@@AEAV<lambda_8d0ee55de4b1038c4002e0adecdf1839>@@$$QEAV<lambda_dc504788e8f1664fe9b84e20bfb512f2>@@@Z 00000001800312c4     libucrt:per_thread_data.obj
 0002:0000c2e8       $unwind$??$?RV<lambda_aa87e3671a710a21b5dc78c0bdf72e11>@@AEAV<lambda_92619d2358a28f41a33ba319515a20b9>@@V<lambda_6992ecaafeb10aed2b74cb1fae11a551>@@@?$__crt_seh_guarded_call@X@@QEAAX$$QEAV<lambda_aa87e3671a710a21b5dc78c0bdf72e11>@@AEAV<lambda_92619d2358a28f41a33ba319515a20b9>@@$$QEAV<lambda_6992ecaafeb10aed2b74cb1fae11a551>@@@Z 00000001800312e8     libucrt:per_thread_data.obj
 0002:0000c30c       $unwind$??$?RV<lambda_f2e299630e499de9f9a165e60fcd3db5>@@AEAV<lambda_2ae9d31cdba2644fcbeaf08da7c24588>@@V<lambda_40d01ff24d0e7b3814fdbdcee8eab3c7>@@@?$__crt_seh_guarded_call@X@@QEAAX$$QEAV<lambda_f2e299630e499de9f9a165e60fcd3db5>@@AEAV<lambda_2ae9d31cdba2644fcbeaf08da7c24588>@@$$QEAV<lambda_40d01ff24d0e7b3814fdbdcee8eab3c7>@@@Z 000000018003130c     libucrt:per_thread_data.obj
 0002:0000c330       $unwind$??$?RV<lambda_2d41944a1d46af3157314b8a01080d33>@@AEAV<lambda_8f455de75cd7d7f24b4096f044d8b9e6>@@V<lambda_aa500f224e6afead328df44964fe2772>@@@?$__crt_seh_guarded_call@X@@QEAAX$$QEAV<lambda_2d41944a1d46af3157314b8a01080d33>@@AEAV<lambda_8f455de75cd7d7f24b4096f044d8b9e6>@@$$QEAV<lambda_aa500f224e6afead328df44964fe2772>@@@Z 0000000180031330     libucrt:per_thread_data.obj
 0002:0000c354       $unwind$__acrt_uninitialize_locale 0000000180031354     libucrt:wsetlocale.obj
 0002:0000c354       $unwind$__acrt_get_sigabrt_handler 0000000180031354     libucrt:signal.obj
 0002:0000c35c       $unwind$??$?RV<lambda_410d79af7f07d98d83a3f525b3859a53>@@AEAV<lambda_3e16ef9562a7dcce91392c22ab16ea36>@@V<lambda_38119f0e861e05405d8a144b9b982f0a>@@@?$__crt_seh_guarded_call@X@@QEAAX$$QEAV<lambda_410d79af7f07d98d83a3f525b3859a53>@@AEAV<lambda_3e16ef9562a7dcce91392c22ab16ea36>@@$$QEAV<lambda_38119f0e861e05405d8a144b9b982f0a>@@@Z 000000018003135c     libucrt:wsetlocale.obj
 0002:0000c384       $unwind$__acrt_initialize_winapi_thunks 0000000180031384     libucrt:winapi_thunks.obj
 0002:0000c384       $unwind$__acrt_fenv_get_control 0000000180031384     libucrt:_fenvutils.obj
 0002:0000c38c       $unwind$__acrt_fp_format   000000018003138c     libucrt:cvt.obj
 0002:0000c39c       $unwind$?fp_format_e_internal@@YAHQEAD_KH_NIQEAU_strflt@@2AEAV__crt_cached_ptd_host@@@Z 000000018003139c     libucrt:cvt.obj
 0002:0000c3b8       $unwind$?fp_format_a@@YAHQEBNPEAD_KQEAD2H_NIW4__acrt_rounding_mode@@AEAV__crt_cached_ptd_host@@@Z 00000001800313b8     libucrt:cvt.obj
 0002:0000c3d4       $unwind$?fp_format_g@@YAHQEBNQEAD_K12H_NIW4__acrt_rounding_mode@@AEAV__crt_cached_ptd_host@@@Z 00000001800313d4     libucrt:cvt.obj
 0002:0000c3ec       $unwind$__acrt_initialize_lowio 00000001800313ec     libucrt:ioinit.obj
 0002:0000c40c       $unwind$??$common_expand_argv_wildcards@D@@YAHQEAPEADQEAPEAPEAD@Z 000000018003140c     libucrt:argv_wildcards.obj
 0002:0000c424       $unwind$__dcrt_get_narrow_environment_from_os 0000000180031424     libucrt:get_environment_from_os.obj
 0002:0000c424       $unwind$??$__acrt_convert_wcs_mbs_cp@_WDV<lambda_d8593a27d1aa8c02be35c86a17d324c4>@@U__crt_win32_buffer_internal_dynamic_resizing@@@@YAHQEB_WAEAV?$__crt_win32_buffer@DU__crt_win32_buffer_internal_dynamic_resizing@@@@AEBV<lambda_d8593a27d1aa8c02be35c86a17d324c4>@@I@Z 0000000180031424     libucrt:argv_wildcards.obj
 0002:0000c43c       $unwind$??$copy_and_add_argument_to_buffer@D@@YAHQEBD0_KAEAV?$argument_list@D@?A0x5f5c8891@@@Z 000000018003143c     libucrt:argv_wildcards.obj
 0002:0000c458       $unwind$??$expand_argument_wildcards@D@@YAHQEAD0AEAV?$argument_list@D@?A0x5f5c8891@@@Z 0000000180031458     libucrt:argv_wildcards.obj
 0002:0000c478       $unwind$__acrt_GetModuleFileNameA 0000000180031478     libucrt:getmodulefilenamea.obj
 0002:0000c494       $unwind$_setmbcp_nolock    0000000180031494     libucrt:mbctype.obj
 0002:0000c4b4       $unwind$?update_thread_multibyte_data_internal@@YAPEAU__crt_multibyte_data@@QEAU__acrt_ptd@@QEAPEAU1@@Z 00000001800314b4     libucrt:mbctype.obj
 0002:0000c4dc       $unwind$?setmbcp_internal@@YAHH_NQEAU__acrt_ptd@@QEAPEAU__crt_multibyte_data@@@Z 00000001800314dc     libucrt:mbctype.obj
 0002:0000c4f4       $unwind$?setSBUpLow@@YAXPEAU__crt_multibyte_data@@@Z 00000001800314f4     libucrt:mbctype.obj
 0002:0000c510       $unwind$??$?RV<lambda_efdfa57d1f175319df784efa44bb7b81>@@AEAV<lambda_5f0a4c1567f8adc6734073e5d1e1b35c>@@V<lambda_2e8a7d3640ea6ccb4c2413664c2db6fd>@@@?$__crt_seh_guarded_call@X@@QEAAX$$QEAV<lambda_efdfa57d1f175319df784efa44bb7b81>@@AEAV<lambda_5f0a4c1567f8adc6734073e5d1e1b35c>@@$$QEAV<lambda_2e8a7d3640ea6ccb4c2413664c2db6fd>@@@Z 0000000180031510     libucrt:mbctype.obj
 0002:0000c534       $unwind$__acrt_WideCharToMultiByte 0000000180031534     libucrt:widechartomultibyte.obj
 0002:0000c540       $unwind$raise              0000000180031540     libucrt:signal.obj
 0002:0000c57c       $unwind$??$?RV<lambda_450d765d439847d4c735a33c368b5fc0>@@AEAV<lambda_44731a7d0e6d81c3e6aa82d741081786>@@V<lambda_601a2a7da3b7a96e9554ac7215c4b07c>@@@?$__crt_seh_guarded_call@P6AXH@Z@@QEAAP6AXH@Z$$QEAV<lambda_450d765d439847d4c735a33c368b5fc0>@@AEAV<lambda_44731a7d0e6d81c3e6aa82d741081786>@@$$QEAV<lambda_601a2a7da3b7a96e9554ac7215c4b07c>@@@Z 000000018003157c     libucrt:signal.obj
 0002:0000c5a0       $unwind$fclose             00000001800315a0     libucrt:fclose.obj
 0002:0000c5a0       $unwind$_fflush_nolock     00000001800315a0     libucrt:fflush.obj
 0002:0000c5b0       $unwind$?common_flush_all@@YAH_N@Z 00000001800315b0     libucrt:fflush.obj
 0002:0000c5b8       $unwind$??$?RV<lambda_842d9ff0dc9ef11c61343bbaebe7f885>@@AEAV<lambda_c5860995281e5c4ce005b3de8f5874ee>@@V<lambda_d90129c13df834fdcbf8d2b88dafcf2d>@@@?$__crt_seh_guarded_call@X@@QEAAX$$QEAV<lambda_842d9ff0dc9ef11c61343bbaebe7f885>@@AEAV<lambda_c5860995281e5c4ce005b3de8f5874ee>@@$$QEAV<lambda_d90129c13df834fdcbf8d2b88dafcf2d>@@@Z 00000001800315b8     libucrt:fflush.obj
 0002:0000c5dc       $unwind$??$?RV<lambda_886d6c58226a84441f68b9f2b8217b83>@@AEAV<lambda_ab61a845afdef5b7c387490eaf3616ee>@@V<lambda_f7f22ab5edc0698d5f6905b0d3f44752>@@@?$__crt_seh_guarded_call@X@@QEAAX$$QEAV<lambda_886d6c58226a84441f68b9f2b8217b83>@@AEAV<lambda_ab61a845afdef5b7c387490eaf3616ee>@@$$QEAV<lambda_f7f22ab5edc0698d5f6905b0d3f44752>@@@Z 00000001800315dc     libucrt:fflush.obj
 0002:0000c604       $unwind$__acrt_update_thread_locale_data 0000000180031604     libucrt:locale_refcounting.obj
 0002:0000c628       $unwind$__acrt_locale_free_monetary 0000000180031628     libucrt:initmon.obj
 0002:0000c630       $unwind$__acrt_locale_free_time 0000000180031630     libucrt:inittime.obj
 0002:0000c640       $unwind$__acrt_GetStringTypeA 0000000180031640     libucrt:getstringtypea.obj
 0002:0000c668       $unwind$__acrt_fp_strflt_to_string 0000000180031668     libucrt:_fptostr.obj
 0002:0000c684       $unwind$__acrt_fltout      0000000180031684     libucrt:cfout.obj
 0002:0000c6a4       $unwind$?divide@__crt_strtox@@YA_KAEAUbig_integer@1@AEBU21@@Z 00000001800316a4     libucrt:cfout.obj
 0002:0000c6bc       $chain$0$?divide@__crt_strtox@@YA_KAEAUbig_integer@1@AEBU21@@Z 00000001800316bc     libucrt:cfout.obj
 0002:0000c6d0       $chain$1$?divide@__crt_strtox@@YA_KAEAUbig_integer@1@AEBU21@@Z 00000001800316d0     libucrt:cfout.obj
 0002:0000c6e0       $unwind$?__mbsrtowcs_utf8@__crt_mbstring@@YA_KPEA_WPEAPEBD_KPEAU_Mbstatet@@AEAV__crt_cached_ptd_host@@@Z 00000001800316e0     libucrt:mbrtowc.obj
 0002:0000c6f8       $unwind$_fcloseall         00000001800316f8     libucrt:closeall.obj
 0002:0000c71c       $unwind$__acrt_lowio_destroy_handle_array 000000018003171c     libucrt:osfinfo.obj
 0002:0000c72c       $unwind$__acrt_lowio_ensure_fh_exists 000000018003172c     libucrt:osfinfo.obj
 0002:0000c758       $unwind$qsort              0000000180031758     libucrt:qsort.obj
 0002:0000c770       $chain$4$qsort             0000000180031770     libucrt:qsort.obj
 0002:0000c794       $chain$5$qsort             0000000180031794     libucrt:qsort.obj
 0002:0000c7a4       $unwind$strpbrk            00000001800317a4     libucrt:strpbrk.obj
 0002:0000c7b4       $unwind$fallbackMethod     00000001800317b4     libucrt:strpbrk.obj
 0002:0000c7c4       $unwind$__acrt_LCMapStringA 00000001800317c4     libucrt:lcmapstringa.obj
 0002:0000c7d4       $unwind$?__acrt_LCMapStringA_stat@@YAHPEAU__crt_locale_pointers@@PEB_WKPEBDHPEADHHH@Z 00000001800317d4     libucrt:lcmapstringa.obj
 0002:0000c7fc       $unwind$_commit            00000001800317fc     libucrt:commit.obj
 0002:0000c804       $unwind$??$?RV<lambda_a37b2b86f63e897a80ea819b0eb08c01>@@AEAV<lambda_38ce7e780aa69e748d6df282ebc68efe>@@V<lambda_99fb1378e971ab6e7edea83e3a7a83a2>@@@?$__crt_seh_guarded_call@H@@QEAAH$$QEAV<lambda_a37b2b86f63e897a80ea819b0eb08c01>@@AEAV<lambda_38ce7e780aa69e748d6df282ebc68efe>@@$$QEAV<lambda_99fb1378e971ab6e7edea83e3a7a83a2>@@@Z 0000000180031804     libucrt:commit.obj
 0002:0000c828       $unwind$_write_nolock      0000000180031828     libucrt:write.obj
 0002:0000c840       $unwind$_write_internal    0000000180031840     libucrt:write.obj
 0002:0000c870       $unwind$?write_double_translated_ansi_nolock@@YA?AUwrite_result@?A0x17268360@@HQEBDIAEAV__crt_cached_ptd_host@@@Z 0000000180031870     libucrt:write.obj
 0002:0000c898       $ip2state$?write_double_translated_ansi_nolock@@YA?AUwrite_result@?A0x17268360@@HQEBDIAEAV__crt_cached_ptd_host@@@Z 0000000180031898     libucrt:write.obj
 0002:0000c8a0       $unwind$?write_text_ansi_nolock@@YA?AUwrite_result@?A0x17268360@@HQEBDI@Z 00000001800318a0     libucrt:write.obj
 0002:0000c8a0       $unwind$?write_text_utf16le_nolock@@YA?AUwrite_result@?A0x17268360@@HQEBDI@Z 00000001800318a0     libucrt:write.obj
 0002:0000c8c0       $unwind$?write_text_utf8_nolock@@YA?AUwrite_result@?A0x17268360@@HQEBDI@Z 00000001800318c0     libucrt:write.obj
 0002:0000c8e8       $xdatasym                  00000001800318e8     libucrt:log10.obj
 0002:0000c8f4       $unwind$__acrt_fenv_set_control 00000001800318f4     libucrt:_fenvutils.obj
 0002:0000c904       $unwind$?__mbrtoc32_utf8@__crt_mbstring@@YA_KPEA_UPEBD_KPEAU_Mbstatet@@AEAV__crt_cached_ptd_host@@@Z 0000000180031904     libucrt:mbrtoc32.obj
 0002:0000c920       $unwind$?_fclose_nolock_internal@@YAHQEAU_iobuf@@AEAV__crt_cached_ptd_host@@@Z 0000000180031920     libucrt:fclose.obj
 0002:0000c930       $unwind$?_fclose_internal@@YAHQEAU_iobuf@@AEAV__crt_cached_ptd_host@@@Z 0000000180031930     libucrt:fclose.obj
 0002:0000c954       $unwind$_putwch_nolock     0000000180031954     libucrt:putwch.obj
 0002:0000c95c       $unwind$common_control87   000000018003195c     libucrt:ieee.obj
 0002:0000c988       $unwind$_call_matherr      0000000180031988     libucrt:libm_error.obj
 0002:0000c990       $unwind$_handle_error      0000000180031990     libucrt:libm_error.obj
 0002:0000c9b0       $unwind$__acrt_initialize_fma3 00000001800319b0     libucrt:fma3_available.obj
 0002:0000c9b8       $unwind$_log_special_common 00000001800319b8     libucrt:log_special.obj
 0002:0000c9c4       $unwind$_close_internal    00000001800319c4     libucrt:close.obj
 0002:0000c9cc       $unwind$??$?RV<lambda_ad8af0d99a0adf03d037d7dffe354bb5>@@AEAV<lambda_c9ba49e555ba839a7b07aa3fbecb7617>@@V<lambda_2f1ebd5d68526518146ae959c9e734c8>@@@?$__crt_seh_guarded_call@H@@QEAAH$$QEAV<lambda_ad8af0d99a0adf03d037d7dffe354bb5>@@AEAV<lambda_c9ba49e555ba839a7b07aa3fbecb7617>@@$$QEAV<lambda_2f1ebd5d68526518146ae959c9e734c8>@@@Z 00000001800319cc     libucrt:close.obj
 0002:0000c9f0       $xdatasym                  00000001800319f0     libucrt:fpsr.obj
 0002:0000c9f8       $unwind$_raise_exc_ex      00000001800319f8     libucrt:fpexcept.obj
 0002:0000ca0c       $unwind$_ctrlfp            0000000180031a0c     libucrt:fpctrl.obj
 0002:0000ca34       $unwind$_IsNonwritableInCurrentImage 0000000180031a34     LIBCMT:pesect.obj
 0002:0000ca58       $unwind$strrchr            0000000180031a58     libvcruntime:strrchr.obj
 0002:0000cbc0       .edata                     0000000180031bc0     OPOSLights.exp
 0002:0000cbe8       rgpv                       0000000180031be8     OPOSLights.exp
 0002:0000cbf8       rgszName                   0000000180031bf8     OPOSLights.exp
 0002:0000cc08       rgwOrd                     0000000180031c08     OPOSLights.exp
 0002:0000cc10       szName                     0000000180031c10     OPOSLights.exp
 0002:0000cc1f       $N00001                    0000000180031c1f     OPOSLights.exp
 0002:0000cc2f       $N00002                    0000000180031c2f     OPOSLights.exp
 0002:0000cc41       $N00003                    0000000180031c41     OPOSLights.exp
 0002:0000cc53       $N00004                    0000000180031c53     OPOSLights.exp
 0002:0000d5a2       .idata$6                   00000001800325a2     kernel32:KERNEL32.dll
 0002:0000d7ba       .idata$6                   00000001800327ba     user32:USER32.dll
 0002:0000d8ee       .idata$6                   00000001800328ee     gdi32:GDI32.dll
 0002:0000d994       .idata$6                   0000000180032994     advapi32:ADVAPI32.dll
 0002:0000dab0       .idata$6                   0000000180032ab0     ole32:ole32.dll
 0002:0000daba       .idata$6                   0000000180032aba     oleaut32:OLEAUT32.dll
 0003:000001c0       ?ObjectMap@@3PAU_ATL_OBJMAP_ENTRY30@ATL@@A 00000001800331c0     Lights.obj
 0003:000002c0       ?s_SOMethodNames@@3PAPEADA 00000001800332c0     LightsImpl.obj
 0003:00000358       ?s_RequiredMethodsPerRelease@@3PAHA 0000000180033358     LightsImpl.obj
 0003:000003a0       ?__vcrt_flsindex@@3KA      00000001800333a0     libvcruntime:per_thread_data.obj
 0003:000003b0       ?errno_no_memory@@3HA      00000001800333b0     libucrt:errno.obj
 0003:000003b4       ?doserrno_no_memory@@3KA   00000001800333b4     libucrt:errno.obj
 0003:000003c0       ?__acrt_flsindex@@3KA      00000001800333c0     libucrt:per_thread_data.obj
 0003:00000880       _mbctypes                  0000000180033880     libucrt:mbctype.obj
 0003:00000990       _mbcasemaps                0000000180033990     libucrt:mbctype.obj
 0003:00000a90       ?__rgctypeflag@@3PADA      0000000180033a90     libucrt:mbctype.obj
 0003:00000aa0       ?__rgcode_page_info@@3PAUcode_page_info@@A 0000000180033aa0     libucrt:mbctype.obj
 0003:00000d40       ?dazSupported@?1??common_control87@@9@9 0000000180033d40     libucrt:ieee.obj
 0003:00000d50       ?__dcrt_lowio_console_output_handle@@3PEAXEA 0000000180033d50     libucrt:initcon.obj
 0003:00000d60       ?dazSupported@?1??_ctrlfp@@9@9 0000000180033d60     libucrt:fpctrl.obj
 0003:00000fb0       ?is_initialized_as_dll@@3_NA 0000000180033fb0     LIBCMT:utility.obj
 0003:00000fb1       ?module_local_atexit_table_initialized@@3_NA 0000000180033fb1     LIBCMT:utility.obj
 0003:00000fb8       ?module_local_atexit_table@@3U_onexit_table_t@@A 0000000180033fb8     LIBCMT:utility.obj
 0003:00000fd0       ?module_local_at_quick_exit_table@@3U_onexit_table_t@@A 0000000180033fd0     LIBCMT:utility.obj
 0003:00000fe8       ?g_tss_cv@@3U_RTL_CONDITION_VARIABLE@@A 0000000180033fe8     LIBCMT:thread_safe_statics.obj
 0003:00000ff0       ?g_tss_event@@3PEAXEA      0000000180033ff0     LIBCMT:thread_safe_statics.obj
 0003:00000ff8       ?g_tss_mutex@@3U_RTL_CRITICAL_SECTION@@A 0000000180033ff8     LIBCMT:thread_safe_statics.obj
 0003:00001020       ?g_sleep_condition_variable_cs@@3P6AHPEAU_RTL_CONDITION_VARIABLE@@PEAU_RTL_CRITICAL_SECTION@@K@ZEA 0000000180034020     LIBCMT:thread_safe_statics.obj
 0003:00001028       ?g_wake_all_condition_variable@@3P6AXPEAU_RTL_CONDITION_VARIABLE@@@ZEA 0000000180034028     LIBCMT:thread_safe_statics.obj
 0003:00001030       GS_ExceptionRecord         0000000180034030     LIBCMT:gs_report.obj
 0003:000010d0       GS_ContextRecord           00000001800340d0     LIBCMT:gs_report.obj
 0003:000015a4       ?__proc_attached@@3HA      00000001800345a4     LIBCMT:dll_dllmain.obj
 0003:00001638       ?AllocateData@@3P6APEAUAtlThunkData_t@@XZEA 0000000180034638     atls:atlthunk.obj
 0003:00001640       ?InitData@@3P6AXPEAUAtlThunkData_t@@PEAX_K@ZEA 0000000180034640     atls:atlthunk.obj
 0003:00001648       ?DataToCode@@3P6AP6A_JPEAUHWND__@@I_K_J@ZPEAUAtlThunkData_t@@@ZEA 0000000180034648     atls:atlthunk.obj
 0003:00001650       ?FreeData@@3P6AXPEAUAtlThunkData_t@@@ZEA 0000000180034650     atls:atlthunk.obj
 0003:00001658       ?Initialized@@3_NA         0000000180034658     atls:atlthunk.obj
 0003:00001670       ?__vcrt_startup_thread_ptd@@3U__vcrt_ptd@@A 0000000180034670     libvcruntime:per_thread_data.obj
 0003:000016f0       __vcrt_lock_table          00000001800346f0     libvcruntime:locks.obj
 0003:00001718       __vcrt_locks_initialized   0000000180034718     libvcruntime:locks.obj
 0003:00001760       ?heap@@3V_HeapManager@@A   0000000180034760     libvcruntime:undname.obj
 0003:00001788       ?module_handles@@3PAPEAUHINSTANCE__@@A 0000000180034788     libvcruntime:winapi_downlevel.obj
 0003:000017a0       ?function_pointers@@3PAPEAXA 00000001800347a0     libvcruntime:winapi_downlevel.obj
 0003:000017c8       ?__acrt_invalid_parameter_handler@@3V?$dual_state_global@P6AXPEB_W00I_K@Z@__crt_state_management@@A 00000001800347c8     libucrt:invalid_parameter.obj
 0003:000017d0       ?c_termination_complete@@3JA 00000001800347d0     libucrt:exit.obj
 0003:000017d8       ?thread_local_exit_callback_func@@3P6AXPEAXK0@ZEA 00000001800347d8     libucrt:exit.obj
 0003:000017f0       ?program_name@?1???$common_configure_argv@D@@YAHW4_crt_argv_mode@@@Z@4PADA 00000001800347f0     libucrt:argv_parsing.obj
 0003:00001948       ?__acrt_new_handler@@3V?$dual_state_global@P6AH_K@Z@__crt_state_management@@A 0000000180034948     libucrt:new_handler.obj
 0003:00001960       ?module_handles@@3PAPEAUHINSTANCE__@@A 0000000180034960     libucrt:winapi_thunks.obj
 0003:00001a00       ?encoded_function_pointers@@3PAPEAXA 0000000180034a00     libucrt:winapi_thunks.obj
 0003:00001af0       ?internal_state@?1??_mbtowc_internal@@9@4U_Mbstatet@@A 0000000180034af0     libucrt:mbtowc.obj
 0003:00001b08       ?enable_percent_n@@3_KA    0000000180034b08     libucrt:printf_count_output.obj
 0003:00001f30       ?__acrt_lock_table@@3PAU_RTL_CRITICAL_SECTION@@A 0000000180034f30     libucrt:locks.obj
 0003:00002160       ?__acrt_locks_initialized@@3IA 0000000180035160     libucrt:locks.obj
 0003:00002180       ?fSystemSet@@3HA           0000000180035180     libucrt:mbctype.obj
 0003:00002184       ?initialized@?1??__acrt_initialize_multibyte@@9@4_NA 0000000180035184     libucrt:mbctype.obj
 0003:000021c0       ?ctrlc_action@@3V?$dual_state_global@P6AXH@Z@__crt_state_management@@A 00000001800351c0     libucrt:signal.obj
 0003:000021c8       ?ctrlbreak_action@@3V?$dual_state_global@P6AXH@Z@__crt_state_management@@A 00000001800351c8     libucrt:signal.obj
 0003:000021d0       ?abort_action@@3V?$dual_state_global@P6AXH@Z@__crt_state_management@@A 00000001800351d0     libucrt:signal.obj
 0003:000021d8       ?term_action@@3V?$dual_state_global@P6AXH@Z@__crt_state_management@@A 00000001800351d8     libucrt:signal.obj
 0003:000021e0       ?user_matherr@@3V?$dual_state_global@P6AHPEAU_exception@@@Z@__crt_state_management@@A 00000001800351e0     libucrt:matherr.obj
 0003:000021f0       ?__acrt_global_new_mode@@3V?$dual_state_global@J@__crt_state_management@@A 00000001800351f0     libucrt:new_mode.obj
 0003:000021f8       ?internal_pst@?1??__mbrtoc32_utf8@__crt_mbstring@@YA_KPEA_UPEBD_KPEAU_Mbstatet@@AEAV__crt_cached_ptd_host@@@Z@4U3@A 00000001800351f8     libucrt:mbrtoc32.obj
 0003:00002200       ?__acrt_app_type@@3W4_crt_app_type@@A 0000000180035200     libucrt:report_runtime_error.obj
 0005:00000000       MoveSmall                  0000000180038000     libvcruntime:memcpy.obj
 0005:00000040       MoveSmallYmm               0000000180038040     libvcruntime:memcpy.obj
 0005:00000064       MoveSmallYmmNT             0000000180038064     libvcruntime:memcpy.obj
 0005:00000088       MoveSmallXmm               0000000180038088     libvcruntime:memcpy.obj
 0005:000000b0       MsetTab                    00000001800380b0     libvcruntime:memset.obj
 0006:00000220       $R000000                   0000000180039220     Lights.res
 0006:00000ba0       $R000980                   0000000180039ba0     Lights.res
 0006:00000c88       $R000A68                   0000000180039c88     Lights.res
 0006:00000ef0       $R000CD0                   0000000180039ef0     Lights.res
 0006:000013d8       $R0011B8                   000000018003a3d8     Lights.res
 0006:00003718       $R0034F8                   000000018003c718     Lights.res
 0006:00003748       $R003528                   000000018003c748     Lights.res
