 OPOSCheckScanner

 Timestamp is 5ed4578d (Mon Jun  1 10:19:09 2020)

 Preferred load address is 0000000180000000

 Start         Length     Name                   Class
 0001:00000000 000000c0H .text$di                CODE
 0001:000000c0 00021980H .text$mn                CODE
 0001:00021a40 00000040H .text$mn$00             CODE
 0001:00021a80 000004b0H .text$x                 CODE
 0001:00021f30 00000078H .text$yd                CODE
 0002:00000000 00000618H .idata$5                DATA
 0002:00000618 00000028H .00cfg                  DATA
 0002:00000640 00000008H .CRT$XCA                DATA
 0002:00000648 00000008H .CRT$XCL                DATA
 0002:00000650 00000020H .CRT$XCU                DATA
 0002:00000670 00000008H .CRT$XCZ                DATA
 0002:00000678 00000008H .CRT$XIA                DATA
 0002:00000680 00000020H .CRT$XIC                DATA
 0002:000006a0 00000008H .CRT$XIZ                DATA
 0002:000006a8 00000008H .CRT$XLA                DATA
 0002:000006b0 00000008H .CRT$XLZ                DATA
 0002:000006b8 00000008H .CRT$XPA                DATA
 0002:000006c0 00000010H .CRT$XPX                DATA
 0002:000006d0 00000008H .CRT$XPXA               DATA
 0002:000006d8 00000008H .CRT$XPZ                DATA
 0002:000006e0 00000008H .CRT$XTA                DATA
 0002:000006e8 00000008H .CRT$XTZ                DATA
 0002:000006f0 00000000H .gfids$y                DATA
 0002:000006f0 0000aaf0H .rdata                  DATA
 0002:0000b1e0 00000028H .rdata$T                DATA
 0002:0000b208 00000274H .rdata$r                DATA
 0002:0000b47c 0000040cH .rdata$zzzdbg           DATA
 0002:0000b888 00000008H .rtc$IAA                DATA
 0002:0000b890 00000008H .rtc$IZZ                DATA
 0002:0000b898 00000008H .rtc$TAA                DATA
 0002:0000b8a0 00000008H .rtc$TZZ                DATA
 0002:0000b8a8 00000004H .tls                    DATA
 0002:0000b8ac 00000004H .tls$                   DATA
 0002:0000b8b0 00000008H .tls$ZZZ                DATA
 0002:0000b8b8 000016e8H .xdata                  DATA
 0002:0000cfa0 00000150H .xdata$x                DATA
 0002:0000d0f0 00000008H ATL$__a                 DATA
 0002:0000d0f8 00000008H ATL$__z                 DATA
 0002:0000d100 000000b0H .edata                  DATA
 0002:0000d1b0 00000078H .idata$2                DATA
 0002:0000d228 00000018H .idata$3                DATA
 0002:0000d240 00000618H .idata$4                DATA
 0002:0000d858 00000c2aH .idata$6                DATA
 0003:00000000 00000dc8H .data                   DATA
 0003:00000dc8 000000c8H .data$r                 DATA
 0003:00000e90 0000140cH .bss                    DATA
 0004:00000000 00001f38H .pdata                  DATA
 0005:00000000 00000094H _RDATA                  DATA
 0006:00000000 00000220H .rsrc$01                DATA
 0006:00000220 00005110H .rsrc$02                DATA

  Address         Publics by Value              Rva+Base               Lib:Object

 0000:00000000       __guard_fids_count         0000000000000000     <absolute>
 0000:00000000       __x64_code_ranges_to_entry_points 0000000000000000     <absolute>
 0000:00000000       __guard_longjmp_count      0000000000000000     <absolute>
 0000:00000000       __guard_longjmp_table      0000000000000000     <absolute>
 0000:00000000       __hybrid_code_map          0000000000000000     <absolute>
 0000:00000000       __arm64x_redirection_metadata 0000000000000000     <absolute>
 0000:00000000       __guard_iat_count          0000000000000000     <absolute>
 0000:00000000       __guard_eh_cont_count      0000000000000000     <absolute>
 0000:00000000       __guard_iat_table          0000000000000000     <absolute>
 0000:00000000       __arm64x_native_entrypoint 0000000000000000     <absolute>
 0000:00000000       __volatile_metadata        0000000000000000     <absolute>
 0000:00000000       __hybrid_code_map_count    0000000000000000     <absolute>
 0000:00000000       __guard_eh_cont_table      0000000000000000     <absolute>
 0000:00000000       __enclave_config           0000000000000000     <absolute>
 0000:00000000       ___safe_se_handler_count   0000000000000000     <absolute>
 0000:00000000       __AbsoluteZero             0000000000000000     <absolute>
 0000:00000000       ___safe_se_handler_table   0000000000000000     <absolute>
 0000:00000000       __dynamic_value_reloc_table 0000000000000000     <absolute>
 0000:00000000       __guard_fids_table         0000000000000000     <absolute>
 0000:00000000       __hybrid_auxiliary_iat     0000000000000000     <absolute>
 0000:00000100       __guard_flags              0000000000000100     <absolute>
 0000:00000000       __ImageBase                0000000180000000     <linker-defined>
 0001:000000c0       ?DupWide@_CW@@AEAAXXZ      00000001800010c0 f   CWString.obj
 0001:000000e8       ?cw_dup@@YAXPEBDAEAHAEAPEA_W1@Z 00000001800010e8 f   CWString.obj
 0001:000001c8       ?cw_memcpy@@YAHPEA_WPEBDH@Z 00000001800011c8 f   CWString.obj
 0001:00000214       ?cw_strcpy@@YAHPEA_WPEBD@Z 0000000180001214 f   CWString.obj
 0001:00000228       ??0CAtlComModule@ATL@@QEAA@XZ 0000000180001228 f i OposVariant.obj
 0001:000002a8       ??0CAtlWinModule@ATL@@QEAA@XZ 00000001800012a8 f i OposVariant.obj
 0001:00000314       ??0OposDispParms@@QEAA@PEAVOposVariant@@H@Z 0000000180001314 f   OposVariant.obj
 0001:000003bc       ??1OposDispParms@@QEAA@XZ  00000001800013bc f   OposVariant.obj
 0001:000003d4       ??_Estringdispid@CComTypeInfoHolder@ATL@@QEAAPEAXI@Z 00000001800013d4 f i OposVariant.obj
 0001:00000478       ?AtlWinModuleTerm@ATL@@YAJPEAU_ATL_WIN_MODULE70@1@PEAUHINSTANCE__@@@Z 0000000180001478 f i OposVariant.obj
 0001:00000528       ?ChangeBSTR@OposVariant@@QEAAXPEAPEA_WAEAJ@Z 0000000180001528 f   OposVariant.obj
 0001:00000588       ?ChangeLONG@OposVariant@@QEAAXPEAJAEAJ@Z 0000000180001588 f   OposVariant.obj
 0001:000005e4       ?GetLONG@OposVariant@@QEAAJXZ 00000001800015e4 f   OposVariant.obj
 0001:00000608       ?SetBSTR@OposVariant@@QEAAXPEA_WAEAJ@Z 0000000180001608 f   OposVariant.obj
 0001:00000648       ?SetBSTR_Copy@OposVariant@@QEAAXPEA_WAEAJ@Z 0000000180001648 f   OposVariant.obj
 0001:000006b8       ?SetBSTR_InOutPtr@OposVariant@@QEAA_NPEAPEA_WAEAJ@Z 00000001800016b8 f   OposVariant.obj
 0001:00000708       ?SetDispatch_Ptr@OposVariant@@QEAAXPEAUIDispatch@@AEAJ@Z 0000000180001708 f   OposVariant.obj
 0001:00000760       ?SetLONG@OposVariant@@QEAAXJ@Z 0000000180001760 f   OposVariant.obj
 0001:00000790       ?SetLONG_Ptr@OposVariant@@QEAAXPEAJAEAJ@Z 0000000180001790 f   OposVariant.obj
 0001:000007dc       ?SetString@OposVariant@@QEAAXPEB_WAEAJ@Z 00000001800017dc f   OposVariant.obj
 0001:00000840       ?SetVARIANT_BOOL@OposVariant@@QEAAXF@Z 0000000180001840 f   OposVariant.obj
 0001:00000878       ?Term@CAtlComModule@ATL@@QEAAXXZ 0000000180001878 f i OposVariant.obj
 0001:000008e8       ?_AtlInitializeCriticalSectionEx@ATL@@YAHPEAU_RTL_CRITICAL_SECTION@@KK@Z 00000001800018e8 f i OposVariant.obj
 0001:000008f0       ?_AtlRaiseException@ATL@@YAXKK@Z 00000001800018f0 f i OposVariant.obj
 0001:00000900       ?GetWindowProc@?$CWindowImplBaseT@VCWindow@ATL@@V?$CWinTraits@$0FGAAAAAA@$0A@@2@@ATL@@UEAAP6A_JPEAUHWND__@@I_K_J@ZXZ 0000000180001900 f i CheckScanner.obj
 0001:00000908       ?StartWindowProc@?$CWindowImplBaseT@VCWindow@ATL@@V?$CWinTraits@$0FGAAAAAA@$0A@@2@@ATL@@SA_JPEAUHWND__@@I_K_J@Z 0000000180001908 f i CheckScanner.obj
 0001:000009cc       ?OnFinalMessage@?$CWindowImplBaseT@VCWindow@ATL@@V?$CWinTraits@$0FGAAAAAA@$0A@@2@@ATL@@UEAAXPEAUHWND__@@@Z 00000001800019cc f i CheckScanner.obj
 0001:000009cc       ?ObjectMain@CComObjectRootBase@ATL@@SAX_N@Z 00000001800019cc f i CheckScanner.obj
 0001:000009cc       _guard_check_icall_nop     00000001800019cc f i LIBCMT:guard_support.obj
 0001:000009d0       ?GetTypeInfoCount@?$IDispatchImpl@UIOPOSCheckScanner@@$1?IID_IOPOSCheckScanner@@3U_GUID@@B$1?LIBID_OposCheckScanner_CCO@@3U3@B$00$0A@VCComTypeInfoHolder@ATL@@@ATL@@UEAAJPEAI@Z 00000001800019d0 f i CheckScanner.obj
 0001:000009e4       ?GetTypeInfo@?$IDispatchImpl@UIOPOSCheckScanner@@$1?IID_IOPOSCheckScanner@@3U_GUID@@B$1?LIBID_OposCheckScanner_CCO@@3U3@B$00$0A@VCComTypeInfoHolder@ATL@@@ATL@@UEAAJIKPEAPEAUITypeInfo@@@Z 00000001800019e4 f i CheckScanner.obj
 0001:00000a48       ?GetIDsOfNames@?$IDispatchImpl@UIOPOSCheckScanner@@$1?IID_IOPOSCheckScanner@@3U_GUID@@B$1?LIBID_OposCheckScanner_CCO@@3U3@B$00$0A@VCComTypeInfoHolder@ATL@@@ATL@@UEAAJAEBU_GUID@@PEAPEA_WIKPEAJ@Z 0000000180001a48 f i CheckScanner.obj
 0001:00000a54       ?Invoke@?$IDispatchImpl@UIOPOSCheckScanner@@$1?IID_IOPOSCheckScanner@@3U_GUID@@B$1?LIBID_OposCheckScanner_CCO@@3U3@B$00$0A@VCComTypeInfoHolder@ATL@@@ATL@@UEAAJJAEBU_GUID@@KGPEAUtagDISPPARAMS@@PEAUtagVARIANT@@PEAUtagEXCEPINFO@@PEAI@Z 0000000180001a54 f i CheckScanner.obj
 0001:00000ae4       ?CreateControlWindow@?$CComControl@VCOPOSCheckScanner@@V?$CWindowImpl@VCOPOSCheckScanner@@VCWindow@ATL@@V?$CWinTraits@$0FGAAAAAA@$0A@@3@@ATL@@@ATL@@UEAAPEAUHWND__@@PEAU3@AEAUtagRECT@@@Z 0000000180001ae4 f i CheckScanner.obj
 0001:00000b1c       ?ControlQueryInterface@?$CComControl@VCOPOSCheckScanner@@V?$CWindowImpl@VCOPOSCheckScanner@@VCWindow@ATL@@V?$CWinTraits@$0FGAAAAAA@$0A@@3@@ATL@@@ATL@@UEAAJAEBU_GUID@@PEAPEAX@Z 0000000180001b1c f i CheckScanner.obj
 0001:00000b30       ?GetUserClassID@?$IOleObjectImpl@VCOPOSCheckScanner@@@ATL@@UEAAJPEAU_GUID@@@Z 0000000180001b30 f i CheckScanner.obj
 0001:00000b30       ?GetClassID@?$IPersistStorageImpl@VCOPOSCheckScanner@@@ATL@@UEAAJPEAU_GUID@@@Z 0000000180001b30 f i CheckScanner.obj
 0001:00000b30       ?GetClassID@?$IPersistStreamInitImpl@VCOPOSCheckScanner@@@ATL@@UEAAJPEAU_GUID@@@Z 0000000180001b30 f i CheckScanner.obj
 0001:00000b4c       ?IsDirty@?$IPersistStreamInitImpl@VCOPOSCheckScanner@@@ATL@@UEAAJXZ 0000000180001b4c f i CheckScanner.obj
 0001:00000b68       ?Load@?$IPersistStreamInitImpl@VCOPOSCheckScanner@@@ATL@@UEAAJPEAUIStream@@@Z 0000000180001b68 f i CheckScanner.obj
 0001:00000b80       ?Save@?$IPersistStreamInitImpl@VCOPOSCheckScanner@@@ATL@@UEAAJPEAUIStream@@H@Z 0000000180001b80 f i CheckScanner.obj
 0001:00000b98       ?GetSizeMax@?$IPersistStreamInitImpl@VCOPOSCheckScanner@@@ATL@@UEAAJPEAT_ULARGE_INTEGER@@@Z 0000000180001b98 f i CheckScanner.obj
 0001:00000dc4       ?InitNew@?$IPersistStreamInitImpl@VCOPOSCheckScanner@@@ATL@@UEAAJXZ 0000000180001dc4 f i CheckScanner.obj
 0001:00000ddc       ?SOOutputCompleteDummy@COPOSCheckScanner@@MEAAJJ@Z 0000000180001ddc f i CheckScanner.obj
 0001:00000ddc       ?ReactivateAndUndo@?$IOleInPlaceObjectWindowlessImpl@VCOPOSCheckScanner@@@ATL@@UEAAJXZ 0000000180001ddc f i CheckScanner.obj
 0001:00000ddc       ?GetMoniker@?$IOleObjectImpl@VCOPOSCheckScanner@@@ATL@@UEAAJKKPEAPEAUIMoniker@@@Z 0000000180001ddc f i CheckScanner.obj
 0001:00000ddc       ?GetDataHere@?$IDataObjectImpl@VCOPOSCheckScanner@@@ATL@@UEAAJPEAUtagFORMATETC@@PEAUtagSTGMEDIUM@@@Z 0000000180001ddc f i CheckScanner.obj
 0001:00000ddc       ?SetData@?$IDataObjectImpl@VCOPOSCheckScanner@@@ATL@@UEAAJPEAUtagFORMATETC@@PEAUtagSTGMEDIUM@@H@Z 0000000180001ddc f i CheckScanner.obj
 0001:00000ddc       ?GetClipboardData@?$IOleObjectImpl@VCOPOSCheckScanner@@@ATL@@UEAAJKPEAPEAUIDataObject@@@Z 0000000180001ddc f i CheckScanner.obj
 0001:00000ddc       ?OnMnemonic@?$IOleControlImpl@VCOPOSCheckScanner@@@ATL@@UEAAJPEAUtagMSG@@@Z 0000000180001ddc f i CheckScanner.obj
 0001:00000ddc       ?InitFromData@?$IOleObjectImpl@VCOPOSCheckScanner@@@ATL@@UEAAJPEAUIDataObject@@HK@Z 0000000180001ddc f i CheckScanner.obj
 0001:00000ddc       ?ContextSensitiveHelp@?$IOleInPlaceActiveObjectImpl@VCOPOSCheckScanner@@@ATL@@UEAAJH@Z 0000000180001ddc f i CheckScanner.obj
 0001:00000ddc       ?QueryGetData@?$IDataObjectImpl@VCOPOSCheckScanner@@@ATL@@UEAAJPEAUtagFORMATETC@@@Z 0000000180001ddc f i CheckScanner.obj
 0001:00000ddc       ?GetColorSet@?$IViewObjectExImpl@VCOPOSCheckScanner@@@ATL@@UEAAJKJPEAXPEAUtagDVTARGETDEVICE@@PEAUHDC__@@PEAPEAUtagLOGPALETTE@@@Z 0000000180001ddc f i CheckScanner.obj
 0001:00000ddc       ?QueryInterface@CRegObject@ATL@@UEAAJAEBU_GUID@@PEAPEAX@Z 0000000180001ddc f i CheckScanner.obj
 0001:00000ddc       ?ContextSensitiveHelp@?$IOleInPlaceObjectWindowlessImpl@VCOPOSCheckScanner@@@ATL@@UEAAJH@Z 0000000180001ddc f i CheckScanner.obj
 0001:00000ddc       ?EnumFormatEtc@?$IDataObjectImpl@VCOPOSCheckScanner@@@ATL@@UEAAJKPEAPEAUIEnumFORMATETC@@@Z 0000000180001ddc f i CheckScanner.obj
 0001:00000ddc       ?SetMoniker@?$IOleObjectImpl@VCOPOSCheckScanner@@@ATL@@UEAAJKPEAUIMoniker@@@Z 0000000180001ddc f i CheckScanner.obj
 0001:00000ddc       ?GetControlInfo@?$IOleControlImpl@VCOPOSCheckScanner@@@ATL@@UEAAJPEAUtagCONTROLINFO@@@Z 0000000180001ddc f i CheckScanner.obj
 0001:00000ddc       ?SetColorScheme@?$IOleObjectImpl@VCOPOSCheckScanner@@@ATL@@UEAAJPEAUtagLOGPALETTE@@@Z 0000000180001ddc f i CheckScanner.obj
 0001:00000ddc       ?GetRect@?$IViewObjectExImpl@VCOPOSCheckScanner@@@ATL@@UEAAJKPEAU_RECTL@@@Z 0000000180001ddc f i CheckScanner.obj
 0001:00000ddc       ?Freeze@?$IViewObjectExImpl@VCOPOSCheckScanner@@@ATL@@UEAAJKJPEAXPEAK@Z 0000000180001ddc f i CheckScanner.obj
 0001:00000ddc       ?GetDropTarget@?$IOleInPlaceObjectWindowlessImpl@VCOPOSCheckScanner@@@ATL@@UEAAJPEAPEAUIDropTarget@@@Z 0000000180001ddc f i CheckScanner.obj
 0001:00000ddc       ?GetCanonicalFormatEtc@?$IDataObjectImpl@VCOPOSCheckScanner@@@ATL@@UEAAJPEAUtagFORMATETC@@0@Z 0000000180001ddc f i CheckScanner.obj
 0001:00000ddc       ?Unfreeze@?$IViewObjectExImpl@VCOPOSCheckScanner@@@ATL@@UEAAJK@Z 0000000180001ddc f i CheckScanner.obj
 0001:00000de4       ?OnFrameWindowActivate@?$IOleInPlaceActiveObjectImpl@VCOPOSCheckScanner@@@ATL@@UEAAJH@Z 0000000180001de4 f i CheckScanner.obj
 0001:00000de4       ?SaveCompleted@?$IPersistStorageImpl@VCOPOSCheckScanner@@@ATL@@UEAAJPEAUIStorage@@@Z 0000000180001de4 f i CheckScanner.obj
 0001:00000de4       ?IsUpToDate@?$IOleObjectImpl@VCOPOSCheckScanner@@@ATL@@UEAAJXZ 0000000180001de4 f i CheckScanner.obj
 0001:00000de4       ?Release@CRegObject@ATL@@UEAAKXZ 0000000180001de4 f i CheckScanner.obj
 0001:00000de4       ?GetObjectDescription@?$CComCoClass@VCOPOSCheckScanner@@$1?CLSID_OPOSCheckScanner@@3U_GUID@@B@ATL@@SAPEB_WXZ 0000000180001de4 f i CheckScanner.obj
 0001:00000de4       ?EnableModeless@?$IOleInPlaceActiveObjectImpl@VCOPOSCheckScanner@@@ATL@@UEAAJH@Z 0000000180001de4 f i CheckScanner.obj
 0001:00000de4       ?HandsOffStorage@?$IPersistStorageImpl@VCOPOSCheckScanner@@@ATL@@UEAAJXZ 0000000180001de4 f i CheckScanner.obj
 0001:00000de4       ?ResizeBorder@?$IOleInPlaceActiveObjectImpl@VCOPOSCheckScanner@@@ATL@@UEAAJPEBUtagRECT@@PEAUIOleInPlaceUIWindow@@H@Z 0000000180001de4 f i CheckScanner.obj
 0001:00000de4       ?GetCategoryMap@CComObjectRootBase@ATL@@SAPEBU_ATL_CATMAP_ENTRY@2@XZ 0000000180001de4 f i CheckScanner.obj
 0001:00000de4       ?SetHostNames@?$IOleObjectImpl@VCOPOSCheckScanner@@@ATL@@UEAAJPEB_W0@Z 0000000180001de4 f i CheckScanner.obj
 0001:00000de4       ?OnAmbientPropertyChange@?$IOleControlImpl@VCOPOSCheckScanner@@@ATL@@UEAAJJ@Z 0000000180001de4 f i CheckScanner.obj
 0001:00000de4       ?Update@?$IOleObjectImpl@VCOPOSCheckScanner@@@ATL@@UEAAJXZ 0000000180001de4 f i CheckScanner.obj
 0001:00000de8       ?SetClientSite@?$IOleObjectImpl@VCOPOSCheckScanner@@@ATL@@UEAAJPEAUIOleClientSite@@@Z 0000000180001de8 f i CheckScanner.obj
 0001:00000e04       ?GetClientSite@?$IOleObjectImpl@VCOPOSCheckScanner@@@ATL@@UEAAJPEAPEAUIOleClientSite@@@Z 0000000180001e04 f i CheckScanner.obj
 0001:00000e4c       ?Close@?$IOleObjectImpl@VCOPOSCheckScanner@@@ATL@@UEAAJK@Z 0000000180001e4c f i CheckScanner.obj
 0001:00000e68       ?DoVerb@?$IOleObjectImpl@VCOPOSCheckScanner@@@ATL@@UEAAJJPEAUtagMSG@@PEAUIOleClientSite@@JPEAUHWND__@@PEBUtagRECT@@@Z 0000000180001e68 f i CheckScanner.obj
 0001:0000100c       ?EnumVerbs@?$IOleObjectImpl@VCOPOSCheckScanner@@@ATL@@UEAAJPEAPEAUIEnumOLEVERB@@@Z 000000018000200c f i CheckScanner.obj
 0001:00001028       ?GetUserType@?$IOleObjectImpl@VCOPOSCheckScanner@@@ATL@@UEAAJKPEAPEA_W@Z 0000000180002028 f i CheckScanner.obj
 0001:00001038       ?SetExtent@?$IOleObjectImpl@VCOPOSCheckScanner@@@ATL@@UEAAJKPEAUtagSIZE@@@Z 0000000180002038 f i CheckScanner.obj
 0001:00001054       ?GetExtent@?$IOleObjectImpl@VCOPOSCheckScanner@@@ATL@@UEAAJKPEAUtagSIZE@@@Z 0000000180002054 f i CheckScanner.obj
 0001:00001084       ?Advise@?$IOleObjectImpl@VCOPOSCheckScanner@@@ATL@@UEAAJPEAUIAdviseSink@@PEAK@Z 0000000180002084 f i CheckScanner.obj
 0001:000010e0       ?Unadvise@?$IOleObjectImpl@VCOPOSCheckScanner@@@ATL@@UEAAJK@Z 00000001800020e0 f i CheckScanner.obj
 0001:00001118       ?EnumAdvise@?$IOleObjectImpl@VCOPOSCheckScanner@@@ATL@@UEAAJPEAPEAUIEnumSTATDATA@@@Z 0000000180002118 f i CheckScanner.obj
 0001:00001160       ?GetMiscStatus@?$IOleObjectImpl@VCOPOSCheckScanner@@@ATL@@UEAAJKPEAK@Z 0000000180002160 f i CheckScanner.obj
 0001:00001170       ?GetWindow@?$IOleInPlaceActiveObjectImpl@VCOPOSCheckScanner@@@ATL@@UEAAJPEAPEAUHWND__@@@Z 0000000180002170 f i CheckScanner.obj
 0001:000011c4       ?TranslateAcceleratorW@?$IOleInPlaceActiveObjectImpl@VCOPOSCheckScanner@@@ATL@@UEAAJPEAUtagMSG@@@Z 00000001800021c4 f i CheckScanner.obj
 0001:000012b8       ?OnDocWindowActivate@?$IOleInPlaceActiveObjectImpl@VCOPOSCheckScanner@@@ATL@@UEAAJH@Z 00000001800022b8 f i CheckScanner.obj
 0001:000012e4       ?Draw@?$IViewObjectExImpl@VCOPOSCheckScanner@@@ATL@@UEAAJKJPEAXPEAUtagDVTARGETDEVICE@@PEAUHDC__@@2PEBU_RECTL@@3P6AH_K@Z4@Z 00000001800022e4 f i CheckScanner.obj
 0001:00001348       ?SetAdvise@?$IViewObjectExImpl@VCOPOSCheckScanner@@@ATL@@UEAAJKKPEAUIAdviseSink@@@Z 0000000180002348 f i CheckScanner.obj
 0001:0000139c       ?GetAdvise@?$IViewObjectExImpl@VCOPOSCheckScanner@@@ATL@@UEAAJPEAK0PEAPEAUIAdviseSink@@@Z 000000018000239c f i CheckScanner.obj
 0001:000013d8       ?GetExtent@?$IViewObjectExImpl@VCOPOSCheckScanner@@@ATL@@UEAAJKJPEAUtagDVTARGETDEVICE@@PEAUtagSIZE@@@Z 00000001800023d8 f i CheckScanner.obj
 0001:00001408       ?GetViewStatus@?$IViewObjectExImpl@VCOPOSCheckScanner@@@ATL@@UEAAJPEAK@Z 0000000180002408 f i CheckScanner.obj
 0001:0000141c       ?QueryHitPoint@?$IViewObjectExImpl@VCOPOSCheckScanner@@@ATL@@UEAAJKPEBUtagRECT@@UtagPOINT@@JPEAK@Z 000000018000241c f i CheckScanner.obj
 0001:00001460       ?QueryHitRect@?$IViewObjectExImpl@VCOPOSCheckScanner@@@ATL@@UEAAJKPEBUtagRECT@@0JPEAK@Z 0000000180002460 f i CheckScanner.obj
 0001:000014c8       ?GetNaturalExtent@?$IViewObjectExImpl@VCOPOSCheckScanner@@@ATL@@UEAAJKJPEAUtagDVTARGETDEVICE@@PEAUHDC__@@PEAUtagExtentInfo@@PEAUtagSIZE@@@Z 00000001800024c8 f i CheckScanner.obj
 0001:00001510       ?GetWindow@?$IOleInPlaceObjectWindowlessImpl@VCOPOSCheckScanner@@@ATL@@UEAAJPEAPEAUHWND__@@@Z 0000000180002510 f i CheckScanner.obj
 0001:00001564       ?InPlaceDeactivate@?$IOleInPlaceObjectWindowlessImpl@VCOPOSCheckScanner@@@ATL@@UEAAJXZ 0000000180002564 f i CheckScanner.obj
 0001:00001580       ?UIDeactivate@?$IOleInPlaceObjectWindowlessImpl@VCOPOSCheckScanner@@@ATL@@UEAAJXZ 0000000180002580 f i CheckScanner.obj
 0001:0000159c       ?SetObjectRects@?$IOleInPlaceObjectWindowlessImpl@VCOPOSCheckScanner@@@ATL@@UEAAJPEBUtagRECT@@0@Z 000000018000259c f i CheckScanner.obj
 0001:000015b8       ?OnWindowMessage@?$IOleInPlaceObjectWindowlessImpl@VCOPOSCheckScanner@@@ATL@@UEAAJI_K_JPEA_J@Z 00000001800025b8 f i CheckScanner.obj
 0001:00001680       ?EnumConnectionPoints@?$IConnectionPointContainerImpl@VCOPOSCheckScanner@@@ATL@@UEAAJPEAPEAUIEnumConnectionPoints@@@Z 0000000180002680 f i CheckScanner.obj
 0001:000018cc       ?FindConnectionPoint@?$IConnectionPointContainerImpl@VCOPOSCheckScanner@@@ATL@@UEAAJAEBU_GUID@@PEAPEAUIConnectionPoint@@@Z 00000001800028cc f i CheckScanner.obj
 0001:0000199c       ?IsDirty@?$IPersistStorageImpl@VCOPOSCheckScanner@@@ATL@@UEAAJXZ 000000018000299c f i CheckScanner.obj
 0001:000019dc       ?InitNew@?$IPersistStorageImpl@VCOPOSCheckScanner@@@ATL@@UEAAJPEAUIStorage@@@Z 00000001800029dc f i CheckScanner.obj
 0001:00001a1c       ?Load@?$IPersistStorageImpl@VCOPOSCheckScanner@@@ATL@@UEAAJPEAUIStorage@@@Z 0000000180002a1c f i CheckScanner.obj
 0001:00001abc       ?Save@?$IPersistStorageImpl@VCOPOSCheckScanner@@@ATL@@UEAAJPEAUIStorage@@H@Z 0000000180002abc f i CheckScanner.obj
 0001:00001b6c       ?GetPages@?$ISpecifyPropertyPagesImpl@VCOPOSCheckScanner@@@ATL@@UEAAJPEAUtagCAUUID@@@Z 0000000180002b6c f i CheckScanner.obj
 0001:00001b78       ?QuickActivate@?$IQuickActivateImpl@VCOPOSCheckScanner@@@ATL@@UEAAJPEAUtagQACONTAINER@@PEAUtagQACONTROL@@@Z 0000000180002b78 f i CheckScanner.obj
 0001:00001b94       ?SetContentExtent@?$IQuickActivateImpl@VCOPOSCheckScanner@@@ATL@@UEAAJPEAUtagSIZE@@@Z 0000000180002b94 f i CheckScanner.obj
 0001:00001bc8       ?GetContentExtent@?$IQuickActivateImpl@VCOPOSCheckScanner@@@ATL@@UEAAJPEAUtagSIZE@@@Z 0000000180002bc8 f i CheckScanner.obj
 0001:00001c00       ?GetData@?$IDataObjectImpl@VCOPOSCheckScanner@@@ATL@@UEAAJPEAUtagFORMATETC@@PEAUtagSTGMEDIUM@@@Z 0000000180002c00 f i CheckScanner.obj
 0001:00001c1c       ?DAdvise@?$IDataObjectImpl@VCOPOSCheckScanner@@@ATL@@UEAAJPEAUtagFORMATETC@@KPEAUIAdviseSink@@PEAK@Z 0000000180002c1c f i CheckScanner.obj
 0001:00001ca4       ?DUnadvise@?$IDataObjectImpl@VCOPOSCheckScanner@@@ATL@@UEAAJK@Z 0000000180002ca4 f i CheckScanner.obj
 0001:00001cd0       ?EnumDAdvise@?$IDataObjectImpl@VCOPOSCheckScanner@@@ATL@@UEAAJPEAPEAUIEnumSTATDATA@@@Z 0000000180002cd0 f i CheckScanner.obj
 0001:00001d0c       ?GetClassInfoW@?$IProvideClassInfo2Impl@$1?CLSID_OPOSCheckScanner@@3U_GUID@@B$1?DIID__IOPOSCheckScannerEvents@@3U2@B$1?LIBID_OposCheckScanner_CCO@@3U2@B$00$0A@VCComTypeInfoHolder@ATL@@@ATL@@UEAAJPEAPEAUITypeInfo@@@Z 0000000180002d0c f i CheckScanner.obj
 0001:00001d64       ?GetGUID@?$IProvideClassInfo2Impl@$1?CLSID_OPOSCheckScanner@@3U_GUID@@B$1?DIID__IOPOSCheckScannerEvents@@3U2@B$1?LIBID_OposCheckScanner_CCO@@3U2@B$00$0A@VCComTypeInfoHolder@ATL@@@ATL@@UEAAJKPEAU_GUID@@@Z 0000000180002d64 f i CheckScanner.obj
 0001:00001d98       _get_startup_argv_mode     0000000180002d98 f i LIBCMT:argv_mode.obj
 0001:00001d98       ?FAccessAllowed@?$IObjectSafetyImpl@VCOPOSCheckScanner@@$02@ATL@@MEAAHXZ 0000000180002d98 f i CheckScanner.obj
 0001:00001d98       ?AddRef@CRegObject@ATL@@UEAAKXZ 0000000180002d98 f i CheckScanner.obj
 0001:00001da0       ?GetInterfaceSafetyOptions@?$IObjectSafetyImpl@VCOPOSCheckScanner@@$02@ATL@@UEAAJAEBU_GUID@@PEAK1@Z 0000000180002da0 f i CheckScanner.obj
 0001:00001e34       ?SetInterfaceSafetyOptions@?$IObjectSafetyImpl@VCOPOSCheckScanner@@$02@ATL@@UEAAJAEBU_GUID@@KK@Z 0000000180002e34 f i CheckScanner.obj
 0001:00001ed8       ?_LocCPQueryInterface@?$IConnectionPointImpl@VCOPOSCheckScanner@@$1?IID_IPropertyNotifySink@@3U_GUID@@BVCComDynamicUnkArray@ATL@@@ATL@@UEAAJAEBU_GUID@@PEAPEAX@Z 0000000180002ed8 f i CheckScanner.obj
 0001:00001ed8       ?_LocCPQueryInterface@?$IConnectionPointImpl@VCOPOSCheckScanner@@$1?DIID__IOPOSCheckScannerEvents@@3U_GUID@@BVCComDynamicUnkArray@ATL@@@ATL@@UEAAJAEBU_GUID@@PEAPEAX@Z 0000000180002ed8 f i CheckScanner.obj
 0001:00001f48       ?GetConnectionInterface@?$IConnectionPointImpl@VCOPOSCheckScanner@@$1?IID_IPropertyNotifySink@@3U_GUID@@BVCComDynamicUnkArray@ATL@@@ATL@@UEAAJPEAU_GUID@@@Z 0000000180002f48 f i CheckScanner.obj
 0001:00001f64       ?GetConnectionPointContainer@?$IConnectionPointImpl@VCOPOSCheckScanner@@$1?IID_IPropertyNotifySink@@3U_GUID@@BVCComDynamicUnkArray@ATL@@@ATL@@UEAAJPEAPEAUIConnectionPointContainer@@@Z 0000000180002f64 f i CheckScanner.obj
 0001:00001f84       ?Advise@?$IConnectionPointImpl@VCOPOSCheckScanner@@$1?IID_IPropertyNotifySink@@3U_GUID@@BVCComDynamicUnkArray@ATL@@@ATL@@UEAAJPEAUIUnknown@@PEAK@Z 0000000180002f84 f i CheckScanner.obj
 0001:00001f84       ?Advise@?$IConnectionPointImpl@VCOPOSCheckScanner@@$1?DIID__IOPOSCheckScannerEvents@@3U_GUID@@BVCComDynamicUnkArray@ATL@@@ATL@@UEAAJPEAUIUnknown@@PEAK@Z 0000000180002f84 f i CheckScanner.obj
 0001:00002040       ?Unadvise@?$IConnectionPointImpl@VCOPOSCheckScanner@@$1?IID_IPropertyNotifySink@@3U_GUID@@BVCComDynamicUnkArray@ATL@@@ATL@@UEAAJK@Z 0000000180003040 f i CheckScanner.obj
 0001:00002040       ?Unadvise@?$IConnectionPointImpl@VCOPOSCheckScanner@@$1?DIID__IOPOSCheckScannerEvents@@3U_GUID@@BVCComDynamicUnkArray@ATL@@@ATL@@UEAAJK@Z 0000000180003040 f i CheckScanner.obj
 0001:000020a8       ?EnumConnections@?$IConnectionPointImpl@VCOPOSCheckScanner@@$1?DIID__IOPOSCheckScannerEvents@@3U_GUID@@BVCComDynamicUnkArray@ATL@@@ATL@@UEAAJPEAPEAUIEnumConnections@@@Z 00000001800030a8 f i CheckScanner.obj
 0001:000020a8       ?EnumConnections@?$IConnectionPointImpl@VCOPOSCheckScanner@@$1?IID_IPropertyNotifySink@@3U_GUID@@BVCComDynamicUnkArray@ATL@@@ATL@@UEAAJPEAPEAUIEnumConnections@@@Z 00000001800030a8 f i CheckScanner.obj
 0001:00002254       ?GetConnectionInterface@?$IConnectionPointImpl@VCOPOSCheckScanner@@$1?DIID__IOPOSCheckScannerEvents@@3U_GUID@@BVCComDynamicUnkArray@ATL@@@ATL@@UEAAJPEAU_GUID@@@Z 0000000180003254 f i CheckScanner.obj
 0001:00002270       ?GetConnectionPointContainer@?$IConnectionPointImpl@VCOPOSCheckScanner@@$1?DIID__IOPOSCheckScannerEvents@@3U_GUID@@BVCComDynamicUnkArray@ATL@@@ATL@@UEAAJPEAPEAUIConnectionPointContainer@@@Z 0000000180003270 f i CheckScanner.obj
 0001:00002290       ?UpdateRegistry@COPOSCheckScanner@@SAJH@Z 0000000180003290 f i CheckScanner.obj
 0001:000022a8       ?ProcessWindowMessage@COPOSCheckScanner@@UEAAHPEAUHWND__@@I_K_JAEA_JK@Z 00000001800032a8 f i CheckScanner.obj
 0001:00002330       ?SOData@COPOSCheckScanner@@MEAAJJ@Z 0000000180003330 f i CheckScanner.obj
 0001:00002380       ?SODirectIO@COPOSCheckScanner@@MEAAJJPEAJPEAPEA_W@Z 0000000180003380 f i CheckScanner.obj
 0001:000023f8       ?SOError@COPOSCheckScanner@@MEAAJJJJPEAJ@Z 00000001800033f8 f i CheckScanner.obj
 0001:00002480       ?SOStatusUpdate@COPOSCheckScanner@@MEAAJJ@Z 0000000180003480 f i CheckScanner.obj
 0001:000024d0       ?Lock@CAtlModule@ATL@@UEAAJXZ 00000001800034d0 f i CheckScanner.obj
 0001:000024e0       ?Unlock@CAtlModule@ATL@@UEAAJXZ 00000001800034e0 f i CheckScanner.obj
 0001:000024ec       ?GetLockCount@CAtlModule@ATL@@UEAAJXZ 00000001800034ec f i CheckScanner.obj
 0001:000024f0       ?GetGITPtr@CAtlModule@ATL@@UEAAJPEAPEAUIGlobalInterfaceTable@@@Z 00000001800034f0 f i CheckScanner.obj
 0001:00002560       ?AddCommonRGSReplacements@?$CAtlModuleT@VCComModule@ATL@@@ATL@@UEAAJPEAUIRegistrarBase@@@Z 0000000180003560 f i CheckScanner.obj
 0001:00002578       ?CreateInstance@?$CComCreator@V?$CComObjectCached@VCComClassFactory@ATL@@@ATL@@@ATL@@SAJPEAXAEBU_GUID@@PEAPEAX@Z 0000000180003578 f i CheckScanner.obj
 0001:0000269c       ?UpdateRegistryFromResourceD@CComModule@ATL@@UEAAJIHPEAU_ATL_REGMAP_ENTRY@2@@Z 000000018000369c f i CheckScanner.obj
 0001:0000269c       ?UpdateRegistryFromResourceD@CComModule@ATL@@UEAAJPEB_WHPEAU_ATL_REGMAP_ENTRY@2@@Z 000000018000369c f i CheckScanner.obj
 0001:000026a4       ?CreateInstance@?$CComCreator2@V?$CComCreator@V?$CComObject@VCOPOSCheckScanner@@@ATL@@@ATL@@V?$CComCreator@V?$CComAggObject@VCOPOSCheckScanner@@@ATL@@@2@@ATL@@SAJPEAXAEBU_GUID@@PEAPEAX@Z 00000001800036a4 f i CheckScanner.obj
 0001:000026b4       ?UpdateRegistryFromResource@CComModule@ATL@@UEAAJPEB_WHPEAU_ATL_REGMAP_ENTRY@2@@Z 00000001800036b4 f i CheckScanner.obj
 0001:000026bc       ?UpdateRegistryFromResource@CComModule@ATL@@UEAAJIHPEAU_ATL_REGMAP_ENTRY@2@@Z 00000001800036bc f i CheckScanner.obj
 0001:000026c4       ?AddRef@?$CComObjectCached@VCComClassFactory@ATL@@@ATL@@UEAAKXZ 00000001800036c4 f i CheckScanner.obj
 0001:000026f0       ?Release@?$CComObjectCached@VCComClassFactory@ATL@@@ATL@@UEAAKXZ 00000001800036f0 f i CheckScanner.obj
 0001:00002730       ?QueryInterface@?$CComObjectCached@VCComClassFactory@ATL@@@ATL@@UEAAJAEBU_GUID@@PEAPEAX@Z 0000000180003730 f i CheckScanner.obj
 0001:00002744       ??_GCComModule@ATL@@UEAAPEAXI@Z 0000000180003744 f i CheckScanner.obj
 0001:00002744       ??_ECComModule@ATL@@UEAAPEAXI@Z 0000000180003744 f i CheckScanner.obj
 0001:00002784       ??_G?$CComObjectCached@VCComClassFactory@ATL@@@ATL@@UEAAPEAXI@Z 0000000180003784 f i CheckScanner.obj
 0001:00002784       ??_E?$CComObjectCached@VCComClassFactory@ATL@@@ATL@@UEAAPEAXI@Z 0000000180003784 f i CheckScanner.obj
 0001:000027dc       ?Next@?$CComEnumImpl@UIEnumConnectionPoints@@$1?_GUID_b196b285_bab4_101a_b69c_00aa00341d07@@3U__s_GUID@@BPEAUIConnectionPoint@@V?$_CopyInterface@UIConnectionPoint@@@ATL@@@ATL@@UEAAJKPEAPEAUIConnectionPoint@@PEAK@Z 00000001800037dc f i CheckScanner.obj
 0001:000028a8       ?Skip@?$CComEnumImpl@UIEnumConnectionPoints@@$1?_GUID_b196b285_bab4_101a_b69c_00aa00341d07@@3U__s_GUID@@BPEAUIConnectionPoint@@V?$_CopyInterface@UIConnectionPoint@@@ATL@@@ATL@@UEAAJK@Z 00000001800038a8 f i CheckScanner.obj
 0001:000028d4       ?Reset@?$CComEnumImpl@UIEnumConnections@@$1?_GUID_b196b287_bab4_101a_b69c_00aa00341d07@@3U__s_GUID@@BUtagCONNECTDATA@@V?$_Copy@UtagCONNECTDATA@@@ATL@@@ATL@@UEAAJXZ 00000001800038d4 f i CheckScanner.obj
 0001:000028d4       ?Reset@?$CComEnumImpl@UIEnumConnectionPoints@@$1?_GUID_b196b285_bab4_101a_b69c_00aa00341d07@@3U__s_GUID@@BPEAUIConnectionPoint@@V?$_CopyInterface@UIConnectionPoint@@@ATL@@@ATL@@UEAAJXZ 00000001800038d4 f i CheckScanner.obj
 0001:000028e0       ?Clone@?$CComEnumImpl@UIEnumConnectionPoints@@$1?_GUID_b196b285_bab4_101a_b69c_00aa00341d07@@3U__s_GUID@@BPEAUIConnectionPoint@@V?$_CopyInterface@UIConnectionPoint@@@ATL@@@ATL@@UEAAJPEAPEAUIEnumConnectionPoints@@@Z 00000001800038e0 f i CheckScanner.obj
 0001:00002a0c       ?AddRef@?$CComObject@V?$CComEnum@UIEnumConnections@@$1?_GUID_b196b287_bab4_101a_b69c_00aa00341d07@@3U__s_GUID@@BUtagCONNECTDATA@@V?$_Copy@UtagCONNECTDATA@@@ATL@@VCComSingleThreadModel@6@@ATL@@@ATL@@UEAAKXZ 0000000180003a0c f i CheckScanner.obj
 0001:00002a0c       ?AddRef@?$CComObject@V?$CComEnum@UIEnumConnectionPoints@@$1?_GUID_b196b285_bab4_101a_b69c_00aa00341d07@@3U__s_GUID@@BPEAUIConnectionPoint@@V?$_CopyInterface@UIConnectionPoint@@@ATL@@VCComSingleThreadModel@6@@ATL@@@ATL@@UEAAKXZ 0000000180003a0c f i CheckScanner.obj
 0001:00002a18       ?Release@?$CComObject@V?$CComEnum@UIEnumConnectionPoints@@$1?_GUID_b196b285_bab4_101a_b69c_00aa00341d07@@3U__s_GUID@@BPEAUIConnectionPoint@@V?$_CopyInterface@UIConnectionPoint@@@ATL@@VCComSingleThreadModel@6@@ATL@@@ATL@@UEAAKXZ 0000000180003a18 f i CheckScanner.obj
 0001:00002a18       ?Release@?$CComObject@V?$CComEnum@UIEnumConnections@@$1?_GUID_b196b287_bab4_101a_b69c_00aa00341d07@@3U__s_GUID@@BUtagCONNECTDATA@@V?$_Copy@UtagCONNECTDATA@@@ATL@@VCComSingleThreadModel@6@@ATL@@@ATL@@UEAAKXZ 0000000180003a18 f i CheckScanner.obj
 0001:00002a6c       ?QueryInterface@?$CComObject@V?$CComEnum@UIEnumConnectionPoints@@$1?_GUID_b196b285_bab4_101a_b69c_00aa00341d07@@3U__s_GUID@@BPEAUIConnectionPoint@@V?$_CopyInterface@UIConnectionPoint@@@ATL@@VCComSingleThreadModel@6@@ATL@@@ATL@@UEAAJAEBU_GUID@@PEAPEAX@Z 0000000180003a6c f i CheckScanner.obj
 0001:00002a80       ??_G?$CComObject@V?$CComEnum@UIEnumConnectionPoints@@$1?_GUID_b196b285_bab4_101a_b69c_00aa00341d07@@3U__s_GUID@@BPEAUIConnectionPoint@@V?$_CopyInterface@UIConnectionPoint@@@ATL@@VCComSingleThreadModel@6@@ATL@@@ATL@@UEAAPEAXI@Z 0000000180003a80 f i CheckScanner.obj
 0001:00002a80       ??_E?$CComObject@V?$CComEnum@UIEnumConnectionPoints@@$1?_GUID_b196b285_bab4_101a_b69c_00aa00341d07@@3U__s_GUID@@BPEAUIConnectionPoint@@V?$_CopyInterface@UIConnectionPoint@@@ATL@@VCComSingleThreadModel@6@@ATL@@@ATL@@UEAAPEAXI@Z 0000000180003a80 f i CheckScanner.obj
 0001:00002ad8       ?AddReplacement@CRegObject@ATL@@UEAAJPEB_W0@Z 0000000180003ad8 f i CheckScanner.obj
 0001:00002b08       ?ClearReplacements@CRegObject@ATL@@UEAAJXZ 0000000180003b08 f i CheckScanner.obj
 0001:00002b14       ??_ECRegObject@ATL@@UEAAPEAXI@Z 0000000180003b14 f i CheckScanner.obj
 0001:00002b14       ??_GCRegObject@ATL@@UEAAPEAXI@Z 0000000180003b14 f i CheckScanner.obj
 0001:00002b94       ?AddRef@?$CComAggObject@VCOPOSCheckScanner@@@ATL@@UEAAKXZ 0000000180003b94 f i CheckScanner.obj
 0001:00002ba0       ?Release@?$CComAggObject@VCOPOSCheckScanner@@@ATL@@UEAAKXZ 0000000180003ba0 f i CheckScanner.obj
 0001:00002bf4       ?QueryInterface@?$CComAggObject@VCOPOSCheckScanner@@@ATL@@UEAAJAEBU_GUID@@PEAPEAX@Z 0000000180003bf4 f i CheckScanner.obj
 0001:00002c54       ?AddRef@?$CComContainedObject@VCOPOSCheckScanner@@@ATL@@UEAAKXZ 0000000180003c54 f i CheckScanner.obj
 0001:00002c64       ?Release@?$CComContainedObject@VCOPOSCheckScanner@@@ATL@@UEAAKXZ 0000000180003c64 f i CheckScanner.obj
 0001:00002c74       ?QueryInterface@?$CComContainedObject@VCOPOSCheckScanner@@@ATL@@UEAAJAEBU_GUID@@PEAPEAX@Z 0000000180003c74 f i CheckScanner.obj
 0001:00002c84       ??_G?$CComAggObject@VCOPOSCheckScanner@@@ATL@@UEAAPEAXI@Z 0000000180003c84 f i CheckScanner.obj
 0001:00002c84       ??_E?$CComAggObject@VCOPOSCheckScanner@@@ATL@@UEAAPEAXI@Z 0000000180003c84 f i CheckScanner.obj
 0001:00002cdc       ?AddRef@?$CComObject@VCOPOSCheckScanner@@@ATL@@UEAAKXZ 0000000180003cdc f i CheckScanner.obj
 0001:00002cec       ?Release@?$CComObject@VCOPOSCheckScanner@@@ATL@@UEAAKXZ 0000000180003cec f i CheckScanner.obj
 0001:00002d44       ?QueryInterface@?$CComObject@VCOPOSCheckScanner@@@ATL@@UEAAJAEBU_GUID@@PEAPEAX@Z 0000000180003d44 f i CheckScanner.obj
 0001:00002d58       ?OnDrawAdvanced@CComControlBase@ATL@@UEAAJAEAUATL_DRAWINFO@@@Z 0000000180003d58 f i CheckScanner.obj
 0001:00002ee4       ?Next@?$CComEnumImpl@UIEnumConnections@@$1?_GUID_b196b287_bab4_101a_b69c_00aa00341d07@@3U__s_GUID@@BUtagCONNECTDATA@@V?$_Copy@UtagCONNECTDATA@@@ATL@@@ATL@@UEAAJKPEAUtagCONNECTDATA@@PEAK@Z 0000000180003ee4 f i CheckScanner.obj
 0001:00002fb8       ?Skip@?$CComEnumImpl@UIEnumConnections@@$1?_GUID_b196b287_bab4_101a_b69c_00aa00341d07@@3U__s_GUID@@BUtagCONNECTDATA@@V?$_Copy@UtagCONNECTDATA@@@ATL@@@ATL@@UEAAJK@Z 0000000180003fb8 f i CheckScanner.obj
 0001:00002fe4       ?Clone@?$CComEnumImpl@UIEnumConnections@@$1?_GUID_b196b287_bab4_101a_b69c_00aa00341d07@@3U__s_GUID@@BUtagCONNECTDATA@@V?$_Copy@UtagCONNECTDATA@@@ATL@@@ATL@@UEAAJPEAPEAUIEnumConnections@@@Z 0000000180003fe4 f i CheckScanner.obj
 0001:00003110       ?QueryInterface@?$CComObject@V?$CComEnum@UIEnumConnections@@$1?_GUID_b196b287_bab4_101a_b69c_00aa00341d07@@3U__s_GUID@@BUtagCONNECTDATA@@V?$_Copy@UtagCONNECTDATA@@@ATL@@VCComSingleThreadModel@6@@ATL@@@ATL@@UEAAJAEBU_GUID@@PEAPEAX@Z 0000000180004110 f i CheckScanner.obj
 0001:00003124       ??_G?$CComObject@V?$CComEnum@UIEnumConnections@@$1?_GUID_b196b287_bab4_101a_b69c_00aa00341d07@@3U__s_GUID@@BUtagCONNECTDATA@@V?$_Copy@UtagCONNECTDATA@@@ATL@@VCComSingleThreadModel@6@@ATL@@@ATL@@UEAAPEAXI@Z 0000000180004124 f i CheckScanner.obj
 0001:00003124       ??_E?$CComObject@V?$CComEnum@UIEnumConnections@@$1?_GUID_b196b287_bab4_101a_b69c_00aa00341d07@@3U__s_GUID@@BUtagCONNECTDATA@@V?$_Copy@UtagCONNECTDATA@@@ATL@@VCComSingleThreadModel@6@@ATL@@@ATL@@UEAAPEAXI@Z 0000000180004124 f i CheckScanner.obj
 0001:0000317c       ??_E?$CComObject@VCOPOSCheckScanner@@@ATL@@W7EAAPEAXI@Z 000000018000417c f i CheckScanner.obj
 0001:00003188       ??_E?$CComObject@VCOPOSCheckScanner@@@ATL@@WHA@EAAPEAXI@Z 0000000180004188 f i CheckScanner.obj
 0001:00003194       ?QueryInterface@?$CComObject@VCOPOSCheckScanner@@@ATL@@WLI@EAAJAEBU_GUID@@PEAPEAX@Z 0000000180004194 f i CheckScanner.obj
 0001:000031a0       ?AddRef@?$CComObject@VCOPOSCheckScanner@@@ATL@@WLI@EAAKXZ 00000001800041a0 f i CheckScanner.obj
 0001:000031ac       ?Release@?$CComObject@VCOPOSCheckScanner@@@ATL@@WLI@EAAKXZ 00000001800041ac f i CheckScanner.obj
 0001:000031b8       ?QueryInterface@?$CComObject@VCOPOSCheckScanner@@@ATL@@WMA@EAAJAEBU_GUID@@PEAPEAX@Z 00000001800041b8 f i CheckScanner.obj
 0001:000031c4       ?AddRef@?$CComObject@VCOPOSCheckScanner@@@ATL@@WMA@EAAKXZ 00000001800041c4 f i CheckScanner.obj
 0001:000031d0       ?Release@?$CComObject@VCOPOSCheckScanner@@@ATL@@WMA@EAAKXZ 00000001800041d0 f i CheckScanner.obj
 0001:000031dc       ?QueryInterface@?$CComObject@VCOPOSCheckScanner@@@ATL@@WMI@EAAJAEBU_GUID@@PEAPEAX@Z 00000001800041dc f i CheckScanner.obj
 0001:000031e8       ?AddRef@?$CComObject@VCOPOSCheckScanner@@@ATL@@WMI@EAAKXZ 00000001800041e8 f i CheckScanner.obj
 0001:000031f4       ?Release@?$CComObject@VCOPOSCheckScanner@@@ATL@@WMI@EAAKXZ 00000001800041f4 f i CheckScanner.obj
 0001:00003200       ?QueryInterface@?$CComObject@VCOPOSCheckScanner@@@ATL@@WNA@EAAJAEBU_GUID@@PEAPEAX@Z 0000000180004200 f i CheckScanner.obj
 0001:0000320c       ?AddRef@?$CComObject@VCOPOSCheckScanner@@@ATL@@WNA@EAAKXZ 000000018000420c f i CheckScanner.obj
 0001:00003218       ?Release@?$CComObject@VCOPOSCheckScanner@@@ATL@@WNA@EAAKXZ 0000000180004218 f i CheckScanner.obj
 0001:00003224       ?QueryInterface@?$CComObject@VCOPOSCheckScanner@@@ATL@@WNI@EAAJAEBU_GUID@@PEAPEAX@Z 0000000180004224 f i CheckScanner.obj
 0001:00003230       ?AddRef@?$CComObject@VCOPOSCheckScanner@@@ATL@@WNI@EAAKXZ 0000000180004230 f i CheckScanner.obj
 0001:0000323c       ?Release@?$CComObject@VCOPOSCheckScanner@@@ATL@@WNI@EAAKXZ 000000018000423c f i CheckScanner.obj
 0001:00003248       ?QueryInterface@?$CComObject@VCOPOSCheckScanner@@@ATL@@WOA@EAAJAEBU_GUID@@PEAPEAX@Z 0000000180004248 f i CheckScanner.obj
 0001:00003254       ?AddRef@?$CComObject@VCOPOSCheckScanner@@@ATL@@WOA@EAAKXZ 0000000180004254 f i CheckScanner.obj
 0001:00003260       ?Release@?$CComObject@VCOPOSCheckScanner@@@ATL@@WOA@EAAKXZ 0000000180004260 f i CheckScanner.obj
 0001:0000326c       ?QueryInterface@?$CComObject@VCOPOSCheckScanner@@@ATL@@WOI@EAAJAEBU_GUID@@PEAPEAX@Z 000000018000426c f i CheckScanner.obj
 0001:00003278       ?AddRef@?$CComObject@VCOPOSCheckScanner@@@ATL@@WOI@EAAKXZ 0000000180004278 f i CheckScanner.obj
 0001:00003284       ?Release@?$CComObject@VCOPOSCheckScanner@@@ATL@@WOI@EAAKXZ 0000000180004284 f i CheckScanner.obj
 0001:00003290       ?QueryInterface@?$CComObject@VCOPOSCheckScanner@@@ATL@@WPA@EAAJAEBU_GUID@@PEAPEAX@Z 0000000180004290 f i CheckScanner.obj
 0001:0000329c       ?AddRef@?$CComObject@VCOPOSCheckScanner@@@ATL@@WPA@EAAKXZ 000000018000429c f i CheckScanner.obj
 0001:000032a8       ?Release@?$CComObject@VCOPOSCheckScanner@@@ATL@@WPA@EAAKXZ 00000001800042a8 f i CheckScanner.obj
 0001:000032b4       ?QueryInterface@?$CComObject@VCOPOSCheckScanner@@@ATL@@WPI@EAAJAEBU_GUID@@PEAPEAX@Z 00000001800042b4 f i CheckScanner.obj
 0001:000032c0       ?AddRef@?$CComObject@VCOPOSCheckScanner@@@ATL@@WPI@EAAKXZ 00000001800042c0 f i CheckScanner.obj
 0001:000032cc       ?Release@?$CComObject@VCOPOSCheckScanner@@@ATL@@WPI@EAAKXZ 00000001800042cc f i CheckScanner.obj
 0001:000032d8       ?QueryInterface@?$CComObject@VCOPOSCheckScanner@@@ATL@@WBAA@EAAJAEBU_GUID@@PEAPEAX@Z 00000001800042d8 f i CheckScanner.obj
 0001:000032e4       ?AddRef@?$CComObject@VCOPOSCheckScanner@@@ATL@@WBAA@EAAKXZ 00000001800042e4 f i CheckScanner.obj
 0001:000032f0       ?Release@?$CComObject@VCOPOSCheckScanner@@@ATL@@WBAA@EAAKXZ 00000001800042f0 f i CheckScanner.obj
 0001:000032fc       ?QueryInterface@?$CComObject@VCOPOSCheckScanner@@@ATL@@WBAI@EAAJAEBU_GUID@@PEAPEAX@Z 00000001800042fc f i CheckScanner.obj
 0001:00003308       ?AddRef@?$CComObject@VCOPOSCheckScanner@@@ATL@@WBAI@EAAKXZ 0000000180004308 f i CheckScanner.obj
 0001:00003314       ?Release@?$CComObject@VCOPOSCheckScanner@@@ATL@@WBAI@EAAKXZ 0000000180004314 f i CheckScanner.obj
 0001:00003320       ?QueryInterface@?$CComObject@VCOPOSCheckScanner@@@ATL@@WBBA@EAAJAEBU_GUID@@PEAPEAX@Z 0000000180004320 f i CheckScanner.obj
 0001:0000332c       ?AddRef@?$CComObject@VCOPOSCheckScanner@@@ATL@@WBBA@EAAKXZ 000000018000432c f i CheckScanner.obj
 0001:00003338       ?Release@?$CComObject@VCOPOSCheckScanner@@@ATL@@WBBA@EAAKXZ 0000000180004338 f i CheckScanner.obj
 0001:00003344       ?QueryInterface@?$CComObject@VCOPOSCheckScanner@@@ATL@@WBBI@EAAJAEBU_GUID@@PEAPEAX@Z 0000000180004344 f i CheckScanner.obj
 0001:00003350       ?AddRef@?$CComObject@VCOPOSCheckScanner@@@ATL@@WBBI@EAAKXZ 0000000180004350 f i CheckScanner.obj
 0001:0000335c       ?Release@?$CComObject@VCOPOSCheckScanner@@@ATL@@WBBI@EAAKXZ 000000018000435c f i CheckScanner.obj
 0001:00003368       ?AddRef@?$CComObject@VCOPOSCheckScanner@@@ATL@@WBCI@EAAKXZ 0000000180004368 f i CheckScanner.obj
 0001:00003374       ?Release@?$CComObject@VCOPOSCheckScanner@@@ATL@@WBCI@EAAKXZ 0000000180004374 f i CheckScanner.obj
 0001:00003380       ?AddRef@?$CComObject@VCOPOSCheckScanner@@@ATL@@WBEA@EAAKXZ 0000000180004380 f i CheckScanner.obj
 0001:0000338c       ?Release@?$CComObject@VCOPOSCheckScanner@@@ATL@@WBEA@EAAKXZ 000000018000438c f i CheckScanner.obj
 0001:00003398       ??_E?$CComContainedObject@VCOPOSCheckScanner@@@ATL@@W7EAAPEAXI@Z 0000000180004398 f i CheckScanner.obj
 0001:000033a4       ??_E?$CComContainedObject@VCOPOSCheckScanner@@@ATL@@WHA@EAAPEAXI@Z 00000001800043a4 f i CheckScanner.obj
 0001:000033b0       ?QueryInterface@?$CComContainedObject@VCOPOSCheckScanner@@@ATL@@WLI@EAAJAEBU_GUID@@PEAPEAX@Z 00000001800043b0 f i CheckScanner.obj
 0001:000033bc       ?AddRef@?$CComContainedObject@VCOPOSCheckScanner@@@ATL@@WLI@EAAKXZ 00000001800043bc f i CheckScanner.obj
 0001:000033c8       ?Release@?$CComContainedObject@VCOPOSCheckScanner@@@ATL@@WLI@EAAKXZ 00000001800043c8 f i CheckScanner.obj
 0001:000033d4       ?QueryInterface@?$CComContainedObject@VCOPOSCheckScanner@@@ATL@@WMA@EAAJAEBU_GUID@@PEAPEAX@Z 00000001800043d4 f i CheckScanner.obj
 0001:000033e0       ?AddRef@?$CComContainedObject@VCOPOSCheckScanner@@@ATL@@WMA@EAAKXZ 00000001800043e0 f i CheckScanner.obj
 0001:000033ec       ?Release@?$CComContainedObject@VCOPOSCheckScanner@@@ATL@@WMA@EAAKXZ 00000001800043ec f i CheckScanner.obj
 0001:000033f8       ?QueryInterface@?$CComContainedObject@VCOPOSCheckScanner@@@ATL@@WMI@EAAJAEBU_GUID@@PEAPEAX@Z 00000001800043f8 f i CheckScanner.obj
 0001:00003404       ?AddRef@?$CComContainedObject@VCOPOSCheckScanner@@@ATL@@WMI@EAAKXZ 0000000180004404 f i CheckScanner.obj
 0001:00003410       ?Release@?$CComContainedObject@VCOPOSCheckScanner@@@ATL@@WMI@EAAKXZ 0000000180004410 f i CheckScanner.obj
 0001:0000341c       ?QueryInterface@?$CComContainedObject@VCOPOSCheckScanner@@@ATL@@WNA@EAAJAEBU_GUID@@PEAPEAX@Z 000000018000441c f i CheckScanner.obj
 0001:00003428       ?AddRef@?$CComContainedObject@VCOPOSCheckScanner@@@ATL@@WNA@EAAKXZ 0000000180004428 f i CheckScanner.obj
 0001:00003434       ?Release@?$CComContainedObject@VCOPOSCheckScanner@@@ATL@@WNA@EAAKXZ 0000000180004434 f i CheckScanner.obj
 0001:00003440       ?QueryInterface@?$CComContainedObject@VCOPOSCheckScanner@@@ATL@@WNI@EAAJAEBU_GUID@@PEAPEAX@Z 0000000180004440 f i CheckScanner.obj
 0001:0000344c       ?AddRef@?$CComContainedObject@VCOPOSCheckScanner@@@ATL@@WNI@EAAKXZ 000000018000444c f i CheckScanner.obj
 0001:00003458       ?Release@?$CComContainedObject@VCOPOSCheckScanner@@@ATL@@WNI@EAAKXZ 0000000180004458 f i CheckScanner.obj
 0001:00003464       ?QueryInterface@?$CComContainedObject@VCOPOSCheckScanner@@@ATL@@WOA@EAAJAEBU_GUID@@PEAPEAX@Z 0000000180004464 f i CheckScanner.obj
 0001:00003470       ?AddRef@?$CComContainedObject@VCOPOSCheckScanner@@@ATL@@WOA@EAAKXZ 0000000180004470 f i CheckScanner.obj
 0001:0000347c       ?Release@?$CComContainedObject@VCOPOSCheckScanner@@@ATL@@WOA@EAAKXZ 000000018000447c f i CheckScanner.obj
 0001:00003488       ?QueryInterface@?$CComContainedObject@VCOPOSCheckScanner@@@ATL@@WOI@EAAJAEBU_GUID@@PEAPEAX@Z 0000000180004488 f i CheckScanner.obj
 0001:00003494       ?AddRef@?$CComContainedObject@VCOPOSCheckScanner@@@ATL@@WOI@EAAKXZ 0000000180004494 f i CheckScanner.obj
 0001:000034a0       ?Release@?$CComContainedObject@VCOPOSCheckScanner@@@ATL@@WOI@EAAKXZ 00000001800044a0 f i CheckScanner.obj
 0001:000034ac       ?QueryInterface@?$CComContainedObject@VCOPOSCheckScanner@@@ATL@@WPA@EAAJAEBU_GUID@@PEAPEAX@Z 00000001800044ac f i CheckScanner.obj
 0001:000034b8       ?AddRef@?$CComContainedObject@VCOPOSCheckScanner@@@ATL@@WPA@EAAKXZ 00000001800044b8 f i CheckScanner.obj
 0001:000034c4       ?Release@?$CComContainedObject@VCOPOSCheckScanner@@@ATL@@WPA@EAAKXZ 00000001800044c4 f i CheckScanner.obj
 0001:000034d0       ?QueryInterface@?$CComContainedObject@VCOPOSCheckScanner@@@ATL@@WPI@EAAJAEBU_GUID@@PEAPEAX@Z 00000001800044d0 f i CheckScanner.obj
 0001:000034dc       ?AddRef@?$CComContainedObject@VCOPOSCheckScanner@@@ATL@@WPI@EAAKXZ 00000001800044dc f i CheckScanner.obj
 0001:000034e8       ?Release@?$CComContainedObject@VCOPOSCheckScanner@@@ATL@@WPI@EAAKXZ 00000001800044e8 f i CheckScanner.obj
 0001:000034f4       ?QueryInterface@?$CComContainedObject@VCOPOSCheckScanner@@@ATL@@WBAA@EAAJAEBU_GUID@@PEAPEAX@Z 00000001800044f4 f i CheckScanner.obj
 0001:00003500       ?AddRef@?$CComContainedObject@VCOPOSCheckScanner@@@ATL@@WBAA@EAAKXZ 0000000180004500 f i CheckScanner.obj
 0001:0000350c       ?Release@?$CComContainedObject@VCOPOSCheckScanner@@@ATL@@WBAA@EAAKXZ 000000018000450c f i CheckScanner.obj
 0001:00003518       ?QueryInterface@?$CComContainedObject@VCOPOSCheckScanner@@@ATL@@WBAI@EAAJAEBU_GUID@@PEAPEAX@Z 0000000180004518 f i CheckScanner.obj
 0001:00003524       ?AddRef@?$CComContainedObject@VCOPOSCheckScanner@@@ATL@@WBAI@EAAKXZ 0000000180004524 f i CheckScanner.obj
 0001:00003530       ?Release@?$CComContainedObject@VCOPOSCheckScanner@@@ATL@@WBAI@EAAKXZ 0000000180004530 f i CheckScanner.obj
 0001:0000353c       ?QueryInterface@?$CComContainedObject@VCOPOSCheckScanner@@@ATL@@WBBA@EAAJAEBU_GUID@@PEAPEAX@Z 000000018000453c f i CheckScanner.obj
 0001:00003548       ?AddRef@?$CComContainedObject@VCOPOSCheckScanner@@@ATL@@WBBA@EAAKXZ 0000000180004548 f i CheckScanner.obj
 0001:00003554       ?Release@?$CComContainedObject@VCOPOSCheckScanner@@@ATL@@WBBA@EAAKXZ 0000000180004554 f i CheckScanner.obj
 0001:00003560       ?QueryInterface@?$CComContainedObject@VCOPOSCheckScanner@@@ATL@@WBBI@EAAJAEBU_GUID@@PEAPEAX@Z 0000000180004560 f i CheckScanner.obj
 0001:0000356c       ?AddRef@?$CComContainedObject@VCOPOSCheckScanner@@@ATL@@WBBI@EAAKXZ 000000018000456c f i CheckScanner.obj
 0001:00003578       ?Release@?$CComContainedObject@VCOPOSCheckScanner@@@ATL@@WBBI@EAAKXZ 0000000180004578 f i CheckScanner.obj
 0001:00003584       ?AddRef@?$CComContainedObject@VCOPOSCheckScanner@@@ATL@@WBCI@EAAKXZ 0000000180004584 f i CheckScanner.obj
 0001:00003590       ?Release@?$CComContainedObject@VCOPOSCheckScanner@@@ATL@@WBCI@EAAKXZ 0000000180004590 f i CheckScanner.obj
 0001:0000359c       ?AddRef@?$CComContainedObject@VCOPOSCheckScanner@@@ATL@@WBEA@EAAKXZ 000000018000459c f i CheckScanner.obj
 0001:000035a8       ?Release@?$CComContainedObject@VCOPOSCheckScanner@@@ATL@@WBEA@EAAKXZ 00000001800045a8 f i CheckScanner.obj
 0001:000035b4       ?CreateInstance@CComClassFactory@ATL@@UEAAJPEAUIUnknown@@AEBU_GUID@@PEAPEAX@Z 00000001800045b4 f i CheckScanner.obj
 0001:00003614       ?LockServer@CComClassFactory@ATL@@UEAAJH@Z 0000000180004614 f i CheckScanner.obj
 0001:00003638       ??_GCComClassFactory@ATL@@UEAAPEAXI@Z 0000000180004638 f i CheckScanner.obj
 0001:00003638       ??_ECComClassFactory@ATL@@UEAAPEAXI@Z 0000000180004638 f i CheckScanner.obj
 0001:00003688       ??$AtlModuleRegisterWndClassInfoT@VAtlModuleRegisterWndClassInfoParamW@ATL@@@ATL@@YAGPEAU_ATL_BASE_MODULE70@0@PEAU_ATL_WIN_MODULE70@0@PEAU_ATL_WNDCLASSINFOW@0@PEAP6A_JPEAUHWND__@@I_K_J@ZVAtlModuleRegisterWndClassInfoParamW@0@@Z 0000000180004688 f i CheckScanner.obj
 0001:00003888       ??0?$CComContainedObject@VCOPOSCheckScanner@@@ATL@@QEAA@PEAX@Z 0000000180004888 f i CheckScanner.obj
 0001:000039a4       ??0?$CComObject@VCOPOSCheckScanner@@@ATL@@QEAA@PEAX@Z 00000001800049a4 f i CheckScanner.obj
 0001:00003abc       ??0CAtlModule@ATL@@QEAA@XZ 0000000180004abc f i CheckScanner.obj
 0001:00003b30       ??1?$CComEnumImpl@UIEnumConnectionPoints@@$1?_GUID_b196b285_bab4_101a_b69c_00aa00341d07@@3U__s_GUID@@BPEAUIConnectionPoint@@V?$_CopyInterface@UIConnectionPoint@@@ATL@@@ATL@@UEAA@XZ 0000000180004b30 f i CheckScanner.obj
 0001:00003b8c       ??1?$CComEnumImpl@UIEnumConnections@@$1?_GUID_b196b287_bab4_101a_b69c_00aa00341d07@@3U__s_GUID@@BUtagCONNECTDATA@@V?$_Copy@UtagCONNECTDATA@@@ATL@@@ATL@@UEAA@XZ 0000000180004b8c f i CheckScanner.obj
 0001:00003be8       ??1?$CComObject@VCOPOSCheckScanner@@@ATL@@UEAA@XZ 0000000180004be8 f i CheckScanner.obj
 0001:00003d08       ??_E?$CComContainedObject@VCOPOSCheckScanner@@@ATL@@UEAAPEAXI@Z 0000000180004d08 f i CheckScanner.obj
 0001:00003d08       ??_G?$CComContainedObject@VCOPOSCheckScanner@@@ATL@@UEAAPEAXI@Z 0000000180004d08 f i CheckScanner.obj
 0001:00003d3c       ??_G?$CComObject@VCOPOSCheckScanner@@@ATL@@UEAAPEAXI@Z 0000000180004d3c f i CheckScanner.obj
 0001:00003d3c       ??_E?$CComObject@VCOPOSCheckScanner@@@ATL@@UEAAPEAXI@Z 0000000180004d3c f i CheckScanner.obj
 0001:00003d70       ?Add@?$CSimpleArray@GV?$CSimpleArrayEqualHelper@G@ATL@@@ATL@@QEAAHAEBG@Z 0000000180004d70 f i CheckScanner.obj
 0001:00003e24       ?Add@?$CSimpleMap@PEA_WPEA_WVCExpansionVectorEqualHelper@ATL@@@ATL@@QEAAHAEBQEA_W0@Z 0000000180004e24 f i CheckScanner.obj
 0001:00003ec4       ?Add@CComDynamicUnkArray@ATL@@QEAAKPEAUIUnknown@@@Z 0000000180004ec4 f i CheckScanner.obj
 0001:00003fb0       ?Add@CExpansionVector@ATL@@QEAAHPEB_W0@Z 0000000180004fb0 f i CheckScanner.obj
 0001:000040e4       ?AddTermFunc@CAtlModule@ATL@@QEAAJP6AX_K@Z0@Z 00000001800050e4 f i CheckScanner.obj
 0001:00004180       ?AddValue@CRegParser@ATL@@IEAAJAEAVCRegKey@2@PEB_WPEA_W@Z 0000000180005180 f i CheckScanner.obj
 0001:000045c8       ?AllocateHeap@?$CTempBuffer@_W$0EAA@VCCRTAllocator@ATL@@@ATL@@AEAAX_K@Z 00000001800055c8 f i CheckScanner.obj
 0001:000045c8       ?AllocateHeap@?$CTempBuffer@_W$0BAA@VCCRTAllocator@ATL@@@ATL@@AEAAX_K@Z 00000001800055c8 f i CheckScanner.obj
 0001:000045c8       ?AllocateHeap@?$CTempBuffer@E$0BAA@VCCRTAllocator@ATL@@@ATL@@AEAAX_K@Z 00000001800055c8 f i CheckScanner.obj
 0001:000045f4       ?Append@CParseBuffer@CRegParser@ATL@@QEAAHPEB_WH@Z 00000001800055f4 f i CheckScanner.obj
 0001:0000473c       ?AtlComModuleGetClassObject@ATL@@YAJPEAU_ATL_COM_MODULE70@1@AEBU_GUID@@1PEAPEAX@Z 000000018000573c f i CheckScanner.obj
 0001:0000487c       ?AtlComModuleRegisterServer@ATL@@YAJPEAU_ATL_COM_MODULE70@1@HPEBU_GUID@@@Z 000000018000587c f i CheckScanner.obj
 0001:0000493c       ?AtlComModuleUnregisterServer@ATL@@YAJPEAU_ATL_COM_MODULE70@1@HPEBU_GUID@@@Z 000000018000593c f i CheckScanner.obj
 0001:000049f8       ?AtlHiMetricToPixel@ATL@@YAXPEBUtagSIZE@@PEAU2@@Z 00000001800059f8 f i CheckScanner.obj
 0001:00004aa8       ?AtlHresultFromLastError@ATL@@YAJXZ 0000000180005aa8 f i CheckScanner.obj
 0001:00004ac8       ?AtlHresultFromWin32@ATL@@YAJK@Z 0000000180005ac8 f i CheckScanner.obj
 0001:00004ad8       ?AtlInternalOleLoadFromStream@ATL@@YAJPEAUIStream@@AEBU_GUID@@PEAPEAXTClassesAllowedInStream@1@K@Z 0000000180005ad8 f i CheckScanner.obj
 0001:00004c1c       ?AtlInternalQueryInterface@ATL@@YAJPEAXPEBU_ATL_INTMAP_ENTRY@1@AEBU_GUID@@PEAPEAX@Z 0000000180005c1c f i CheckScanner.obj
 0001:00004d24       ?AtlLoadTypeLib@ATL@@YAJPEAUHINSTANCE__@@PEB_WPEAPEA_WPEAPEAUITypeLib@@@Z 0000000180005d24 f i CheckScanner.obj
 0001:00004f80       ?AtlRegisterClassCategoriesHelper@ATL@@YAJAEBU_GUID@@PEBU_ATL_CATMAP_ENTRY@1@H@Z 0000000180005f80 f i CheckScanner.obj
 0001:00005404       ?AtlRegisterTypeLib@ATL@@YAJPEAUHINSTANCE__@@PEB_W@Z 0000000180006404 f i CheckScanner.obj
 0001:00005600       ?AtlThrowImpl@ATL@@YAXJ@Z  0000000180006600 f i CheckScanner.obj
 0001:00005624       ?AtlUnRegisterTypeLib@ATL@@YAJPEAUHINSTANCE__@@PEB_W@Z 0000000180006624 f i CheckScanner.obj
 0001:000056ec       ?AtlWinModuleExtractCreateWndData@ATL@@YAPEAXPEAU_ATL_WIN_MODULE70@1@@Z 00000001800066ec f i CheckScanner.obj
 0001:00005778       ?Cleanup@CComTypeInfoHolder@ATL@@SAX_K@Z 0000000180006778 f i CheckScanner.obj
 0001:000057b8       ?ClearReplacements@CExpansionVector@ATL@@QEAAJXZ 00000001800067b8 f i CheckScanner.obj
 0001:00005854       ?CreateInstance@?$CComCreator@V?$CComAggObject@VCOPOSCheckScanner@@@ATL@@@ATL@@SAJPEAXAEBU_GUID@@PEAPEAX@Z 0000000180006854 f i CheckScanner.obj
 0001:00005938       ?CreateInstance@?$CComCreator@V?$CComObject@VCOPOSCheckScanner@@@ATL@@@ATL@@SAJPEAXAEBU_GUID@@PEAPEAX@Z 0000000180006938 f i CheckScanner.obj
 0001:000059ec       ?CreateInstance@?$CComObject@V?$CComEnum@UIEnumConnectionPoints@@$1?_GUID_b196b285_bab4_101a_b69c_00aa00341d07@@3U__s_GUID@@BPEAUIConnectionPoint@@V?$_CopyInterface@UIConnectionPoint@@@ATL@@VCComSingleThreadModel@6@@ATL@@@ATL@@SAJPEAPEAV12@@Z 00000001800069ec f i CheckScanner.obj
 0001:00005a7c       ?CreateInstance@?$CComObject@V?$CComEnum@UIEnumConnections@@$1?_GUID_b196b287_bab4_101a_b69c_00aa00341d07@@3U__s_GUID@@BUtagCONNECTDATA@@V?$_Copy@UtagCONNECTDATA@@@ATL@@VCComSingleThreadModel@6@@ATL@@@ATL@@SAJPEAPEAV12@@Z 0000000180006a7c f i CheckScanner.obj
 0001:00005b0c       ?DefaultReflectionHandler@?$CWindowImplRoot@VCWindow@ATL@@@ATL@@SAHPEAUHWND__@@I_K_JAEA_J@Z 0000000180006b0c f i CheckScanner.obj
 0001:00005b70       ?DeleteSubKey@CRegKey@ATL@@QEAAJPEB_W@Z 0000000180006b70 f i CheckScanner.obj
 0001:00005c08       ?DoEvent@COPOSCheckScanner@@IEAAXI_K_J@Z 0000000180006c08 f i CheckScanner.obj
 0001:00005cbc       ?DoVerbPrimary@?$IOleObjectImpl@VCOPOSCheckScanner@@@ATL@@QEAAJPEBUtagRECT@@PEAUHWND__@@@Z 0000000180006cbc f i CheckScanner.obj
 0001:00005de8       ?DoVerbProperties@CComControlBase@ATL@@QEAAJPEBUtagRECT@@PEAUHWND__@@@Z 0000000180006de8 f i CheckScanner.obj
 0001:00006010       ?FireTheEvent@?$CProxy_IOPOSEvents@VCOPOSCheckScanner@@@@IEAAXPEAVOposVariant@@IAEAJPEB_WJ@Z 0000000180007010 f i CheckScanner.obj
 0001:000060fc       ?FireViewChange@CComControlBase@ATL@@QEAAJXZ 00000001800070fc f i CheckScanner.obj
 0001:00006160       ?Fire_DataEvent@?$CProxy_IOPOSEvents@VCOPOSCheckScanner@@@@QEAAXJ@Z 0000000180007160 f i CheckScanner.obj
 0001:0000624c       ?Fire_DirectIOEvent@?$CProxy_IOPOSEvents@VCOPOSCheckScanner@@@@QEAAXJPEAJPEAPEA_W@Z 000000018000724c f i CheckScanner.obj
 0001:000063ac       ?Fire_ErrorEvent@?$CProxy_IOPOSEvents@VCOPOSCheckScanner@@@@QEAAXJJJPEAJ@Z 00000001800073ac f i CheckScanner.obj
 0001:00006520       ?Fire_StatusUpdateEvent@?$CProxy_IOPOSEvents@VCOPOSCheckScanner@@@@QEAAXJ@Z 0000000180007520 f i CheckScanner.obj
 0001:0000660c       ?FreeHeap@?$CTempBuffer@E$0BAA@VCCRTAllocator@ATL@@@ATL@@AEAAXXZ 000000018000760c f i CheckScanner.obj
 0001:0000660c       ?FreeHeap@?$CTempBuffer@_W$0BAA@VCCRTAllocator@ATL@@@ATL@@AEAAXXZ 000000018000760c f i CheckScanner.obj
 0001:0000660c       ?FreeHeap@?$CTempBuffer@_W$0EAA@VCCRTAllocator@ATL@@@ATL@@AEAAXXZ 000000018000760c f i CheckScanner.obj
 0001:00006614       ?GetAmbientLocaleID@CComControlBase@ATL@@QEAAJAEAK@Z 0000000180007614 f i CheckScanner.obj
 0001:000066d4       ?GetAmbientUserMode@CComControlBase@ATL@@QEAAJAEAH@Z 00000001800076d4 f i CheckScanner.obj
 0001:000067a4       ?GetClassObject@CComModule@ATL@@QEAAJAEBU_GUID@@0PEAPEAX@Z 00000001800077a4 f i CheckScanner.obj
 0001:00006898       ?GetConnMap@COPOSCheckScanner@@SAPEBU_ATL_CONNMAP_ENTRY@ATL@@PEAH@Z 0000000180007898 f i CheckScanner.obj
 0001:00006920       ?GetIDsOfNames@CComTypeInfoHolder@ATL@@QEAAJAEBU_GUID@@PEAPEA_WIKPEAJ@Z 0000000180007920 f i CheckScanner.obj
 0001:00006a98       ?GetPagesHelper@?$ISpecifyPropertyPagesImpl@VCOPOSCheckScanner@@@ATL@@IEAAJPEAUtagCAUUID@@PEBUATL_PROPMAP_ENTRY@2@@Z 0000000180007a98 f i CheckScanner.obj
 0001:00006c38       ?GetSizeMax@CComVariant@ATL@@QEBAJPEAT_ULARGE_INTEGER@@@Z 0000000180007c38 f i CheckScanner.obj
 0001:00006e68       ?GetTI@CComTypeInfoHolder@ATL@@QEAAJK@Z 0000000180007e68 f i CheckScanner.obj
 0001:00007150       ?GetZoomInfo@CComControlBase@ATL@@QEAAXAEAUATL_DRAWINFO@@@Z 0000000180008150 f i CheckScanner.obj
 0001:000071f4       ?HKeyFromString@CRegParser@ATL@@KAPEAUHKEY__@@PEA_W@Z 00000001800081f4 f i CheckScanner.obj
 0001:00007258       ?IDataObject_GetData@CComControlBase@ATL@@QEAAJPEAUtagFORMATETC@@PEAUtagSTGMEDIUM@@@Z 0000000180008258 f i CheckScanner.obj
 0001:0000744c       ?IOleInPlaceObject_InPlaceDeactivate@CComControlBase@ATL@@QEAAJXZ 000000018000844c f i CheckScanner.obj
 0001:000074ec       ?IOleInPlaceObject_SetObjectRects@CComControlBase@ATL@@QEAAJPEBUtagRECT@@0@Z 00000001800084ec f i CheckScanner.obj
 0001:000075dc       ?IOleInPlaceObject_UIDeactivate@CComControlBase@ATL@@QEAAJXZ 00000001800085dc f i CheckScanner.obj
 0001:000076e8       ?IOleObject_Close@CComControlBase@ATL@@QEAAJK@Z 00000001800086e8 f i CheckScanner.obj
 0001:00007800       ?IOleObject_SetClientSite@CComControlBase@ATL@@QEAAJPEAUIOleClientSite@@@Z 0000000180008800 f i CheckScanner.obj
 0001:00007878       ?IOleObject_SetExtent@CComControlBase@ATL@@QEAAJKPEAUtagSIZE@@@Z 0000000180008878 f i CheckScanner.obj
 0001:00007910       ?IPSI_GetIPersistStreamInit@?$IPersistStorageImpl@VCOPOSCheckScanner@@@ATL@@AEAAPEAUIPersistStreamInit@@XZ 0000000180008910 f i CheckScanner.obj
 0001:000079f8       ?IPersistStreamInit_Load@?$IPersistStreamInitImpl@VCOPOSCheckScanner@@@ATL@@QEAAJPEAUIStream@@PEBUATL_PROPMAP_ENTRY@2@@Z 00000001800089f8 f i CheckScanner.obj
 0001:00007d24       ?IPersistStreamInit_Save@?$IPersistStreamInitImpl@VCOPOSCheckScanner@@@ATL@@QEAAJPEAUIStream@@HPEBUATL_PROPMAP_ENTRY@2@@Z 0000000180008d24 f i CheckScanner.obj
 0001:00007fc4       ?IQuickActivate_QuickActivate@CComControlBase@ATL@@QEAAJPEAUtagQACONTAINER@@PEAUtagQACONTROL@@@Z 0000000180008fc4 f i CheckScanner.obj
 0001:00008288       ?IViewObject_Draw@CComControlBase@ATL@@QEAAJKJPEAXPEAUtagDVTARGETDEVICE@@PEAUHDC__@@2PEBU_RECTL@@3@Z 0000000180009288 f i CheckScanner.obj
 0001:0000839c       ?InPlaceActivate@CComControlBase@ATL@@QEAAJJPEBUtagRECT@@@Z 000000018000939c f i CheckScanner.obj
 0001:000086d0       ?Init@?$CComEnumImpl@UIEnumConnectionPoints@@$1?_GUID_b196b285_bab4_101a_b69c_00aa00341d07@@3U__s_GUID@@BPEAUIConnectionPoint@@V?$_CopyInterface@UIConnectionPoint@@@ATL@@@ATL@@QEAAJPEAPEAUIConnectionPoint@@0PEAUIUnknown@@W4CComEnumFlags@2@@Z 00000001800096d0 f i CheckScanner.obj
 0001:000087f0       ?Init@?$CComEnumImpl@UIEnumConnections@@$1?_GUID_b196b287_bab4_101a_b69c_00aa00341d07@@3U__s_GUID@@BUtagCONNECTDATA@@V?$_Copy@UtagCONNECTDATA@@@ATL@@@ATL@@QEAAJPEAUtagCONNECTDATA@@0PEAUIUnknown@@W4CComEnumFlags@2@@Z 00000001800097f0 f i CheckScanner.obj
 0001:00008914       ?IsEqualObject@?$CComPtrBase@UIOleClientSite@@@ATL@@QEAA_NPEAUIUnknown@@@Z 0000000180009914 f i CheckScanner.obj
 0001:000089a0       ?LoadNameCache@CComTypeInfoHolder@ATL@@QEAAJPEAUITypeInfo@@@Z 00000001800099a0 f i CheckScanner.obj
 0001:00008b20       ?Lookup@?$CSimpleMap@PEA_WPEA_WVCExpansionVectorEqualHelper@ATL@@@ATL@@QEBAPEA_WAEBQEA_W@Z 0000000180009b20 f i CheckScanner.obj
 0001:00008ba8       ?NextToken@CRegParser@ATL@@IEAAJPEA_W@Z 0000000180009ba8 f i CheckScanner.obj
 0001:00008d60       ?OnKillFocus@CComControlBase@ATL@@QEAA_JI_K_JAEAH@Z 0000000180009d60 f i CheckScanner.obj
 0001:00008dfc       ?OnMouseActivate@CComControlBase@ATL@@QEAA_JI_K_JAEAH@Z 0000000180009dfc f i CheckScanner.obj
 0001:00008e9c       ?OnPaint@CComControlBase@ATL@@QEAA_JI_K_JAEAH@Z 0000000180009e9c f i CheckScanner.obj
 0001:00008f88       ?OnSetFocus@CComControlBase@ATL@@QEAA_JI_K_JAEAH@Z 0000000180009f88 f i CheckScanner.obj
 0001:00009084       ?PreProcessBuffer@CRegParser@ATL@@QEAAJPEA_WPEAPEA_W@Z 000000018000a084 f i CheckScanner.obj
 0001:00009410       ?ProcessWindowMessage@?$CComControl@VCOPOSCheckScanner@@V?$CWindowImpl@VCOPOSCheckScanner@@VCWindow@ATL@@V?$CWinTraits@$0FGAAAAAA@$0A@@3@@ATL@@@ATL@@UEAAHPEAUHWND__@@I_K_JAEA_JK@Z 000000018000a410 f i CheckScanner.obj
 0001:000094f4       ?ReadFromStream@CComBSTR@ATL@@QEAAJPEAUIStream@@@Z 000000018000a4f4 f i CheckScanner.obj
 0001:00009644       ?ReadFromStream@CComVariant@ATL@@QEAAJPEAUIStream@@GTClassesAllowedInStream@2@K@Z 000000018000a644 f i CheckScanner.obj
 0001:00009868       ?RecurseDeleteKey@CRegKey@ATL@@QEAAJPEB_W@Z 000000018000a868 f i CheckScanner.obj
 0001:000099c0       ?RegCreateKeyExW@CAtlTransactionManager@ATL@@QEAAJPEAUHKEY__@@PEB_WKPEA_WKKQEAU_SECURITY_ATTRIBUTES@@PEAPEAU3@PEAK@Z 000000018000a9c0 f i CheckScanner.obj
 0001:00009af4       ?RegDeleteKeyW@CAtlTransactionManager@ATL@@QEAAJPEAUHKEY__@@PEB_W@Z 000000018000aaf4 f i CheckScanner.obj
 0001:00009b80       ?RegOpenKeyExW@CAtlTransactionManager@ATL@@QEAAJPEAUHKEY__@@PEB_WKKPEAPEAU3@@Z 000000018000ab80 f i CheckScanner.obj
 0001:00009c38       ?RegisterBuffer@CRegParser@ATL@@QEAAJPEA_WH@Z 000000018000ac38 f i CheckScanner.obj
 0001:00009da0       ?RegisterFromResource@CRegObject@ATL@@IEAAJPEB_W00H@Z 000000018000ada0 f i CheckScanner.obj
 0001:00009f5c       ?RegisterServer@CComModule@ATL@@QEAAJHPEBU_GUID@@@Z 000000018000af5c f i CheckScanner.obj
 0001:0000a01c       ?RegisterSubkeys@CRegParser@ATL@@IEAAJPEA_WPEAUHKEY__@@HH@Z 000000018000b01c f i CheckScanner.obj
 0001:0000a888       ?SendOnDataChange@CComControlBase@ATL@@QEAAJK@Z 000000018000b888 f i CheckScanner.obj
 0001:0000a8f8       ?SetControlFocus@CComControlBase@ATL@@QEAAHH@Z 000000018000b8f8 f i CheckScanner.obj
 0001:0000a9d4       ?SkipAssignment@CRegParser@ATL@@IEAAJPEA_W@Z 000000018000b9d4 f i CheckScanner.obj
 0001:0000aa78       ?Term@CAtlModule@ATL@@QEAAXXZ 000000018000ba78 f i CheckScanner.obj
 0001:0000aaf8       ?Term@CComModule@ATL@@QEAAXXZ 000000018000baf8 f i CheckScanner.obj
 0001:0000ab74       ?UnregisterServer@CComModule@ATL@@QEAAJHPEBU_GUID@@@Z 000000018000bb74 f i CheckScanner.obj
 0001:0000ac24       ?UpdateRegistryFromResource@CAtlModule@ATL@@QEAAJIHPEAU_ATL_REGMAP_ENTRY@2@@Z 000000018000bc24 f i CheckScanner.obj
 0001:0000af30       ?UpdateRegistryFromResource@CAtlModule@ATL@@QEAAJPEB_WHPEAU_ATL_REGMAP_ENTRY@2@@Z 000000018000bf30 f i CheckScanner.obj
 0001:0000b254       ?VTFromRegType@CRegParser@ATL@@KAHPEB_WAEAG@Z 000000018000c254 f i CheckScanner.obj
 0001:0000b2f0       ?WindowProc@?$CWindowImplBaseT@VCWindow@ATL@@V?$CWinTraits@$0FGAAAAAA@$0A@@2@@ATL@@SA_JPEAUHWND__@@I_K_J@Z 000000018000c2f0 f i CheckScanner.obj
 0001:0000b45c       ?WriteToStream@CComVariant@ATL@@QEAAJPEAUIStream@@@Z 000000018000c45c f i CheckScanner.obj
 0001:0000b6d8       ?WriteToStream@CComVariant@ATL@@QEAAJPEAUIStream@@G@Z 000000018000c6d8 f i CheckScanner.obj
 0001:0000b770       ?_AtlVerifyStackAvailable@_ATL_SAFE_ALLOCA_IMPL@ATL@@YA_N_K@Z 000000018000c770 f i CheckScanner.obj
 0001:0000b7f4       ?atlCreate@?$CWindowImpl@VCOPOSCheckScanner@@VCWindow@ATL@@V?$CWinTraits@$0FGAAAAAA@$0A@@3@@ATL@@QEAAPEAUHWND__@@PEAU3@V_U_RECT@2@PEB_WKKV_U_MENUorID@2@PEAX@Z 000000018000c7f4 f i CheckScanner.obj
 0001:0000b8a4       ?atlCreate@?$CWindowImplBaseT@VCWindow@ATL@@V?$CWinTraits@$0FGAAAAAA@$0A@@2@@ATL@@QEAAPEAUHWND__@@PEAU3@V_U_RECT@2@PEB_WKKV_U_MENUorID@2@GPEAX@Z 000000018000c8a4 f i CheckScanner.obj
 0001:0000ba14       ?ocscpy_s@@YA_NPEA_W_KPEB_W@Z 000000018000ca14 f i CheckScanner.obj
 0001:0000bac4       DllCanUnloadNow            000000018000cac4 f   CheckScanner.obj
 0001:0000bad0       DllGetClassObject          000000018000cad0 f   CheckScanner.obj
 0001:0000bae8       DllMain                    000000018000cae8 f   CheckScanner.obj
 0001:0000bb90       DllRegisterServer          000000018000cb90 f   CheckScanner.obj
 0001:0000bba4       DllUnregisterServer        000000018000cba4 f   CheckScanner.obj
 0001:0000bbb8       __local_stdio_printf_options 000000018000cbb8 f i CheckScanner.obj
 0001:0000bbc0       swprintf_s                 000000018000cbc0 f i CheckScanner.obj
 0001:0000bc14       ??0COPOSCheckScanner@@QEAA@XZ 000000018000cc14 f   CheckScannerImpl.obj
 0001:0000bcdc       ??1?$IConnectionPointImpl@VCOPOSCheckScanner@@$1?DIID__IOPOSCheckScannerEvents@@3U_GUID@@BVCComDynamicUnkArray@ATL@@@ATL@@QEAA@XZ 000000018000ccdc f i CheckScannerImpl.obj
 0001:0000bcdc       ??1?$IConnectionPointImpl@VCOPOSCheckScanner@@$1?IID_IPropertyNotifySink@@3U_GUID@@BVCComDynamicUnkArray@ATL@@@ATL@@QEAA@XZ 000000018000ccdc f i CheckScannerImpl.obj
 0001:0000bd38       ??1CComControlBase@ATL@@UEAA@XZ 000000018000cd38 f i CheckScannerImpl.obj
 0001:0000bdb4       ??1COPOSCheckScanner@@UEAA@XZ 000000018000cdb4 f   CheckScannerImpl.obj
 0001:0000be18       ?BeginInsertion@COPOSCheckScanner@@UEAAJJPEAJ@Z 000000018000ce18 f   CheckScannerImpl.obj
 0001:0000be94       ?BeginRemoval@COPOSCheckScanner@@UEAAJJPEAJ@Z 000000018000ce94 f   CheckScannerImpl.obj
 0001:0000bf10       ?CheckHealth@COPOSCheckScanner@@UEAAJJPEAJ@Z 000000018000cf10 f   CheckScannerImpl.obj
 0001:0000bf8c       ?ClaimDevice@COPOSCheckScanner@@UEAAJJPEAJ@Z 000000018000cf8c f   CheckScannerImpl.obj
 0001:0000c02c       ?ClearImage@COPOSCheckScanner@@UEAAJJPEAJ@Z 000000018000d02c f   CheckScannerImpl.obj
 0001:0000c0a8       ?ClearInput@COPOSCheckScanner@@UEAAJPEAJ@Z 000000018000d0a8 f   CheckScannerImpl.obj
 0001:0000c0d0       ?ClearInputProperties@COPOSCheckScanner@@UEAAJPEAJ@Z 000000018000d0d0 f   CheckScannerImpl.obj
 0001:0000c0f8       ?Close@COPOSCheckScanner@@UEAAJPEAJ@Z 000000018000d0f8 f   CheckScannerImpl.obj
 0001:0000c1b0       ?CompareFirmwareVersion@COPOSCheckScanner@@UEAAJPEA_WPEAJ1@Z 000000018000d1b0 f   CheckScannerImpl.obj
 0001:0000c28c       ?DefineCropArea@COPOSCheckScanner@@UEAAJJJJJJPEAJ@Z 000000018000d28c f   CheckScannerImpl.obj
 0001:0000c39c       ?DirectIO@COPOSCheckScanner@@UEAAJJPEAJPEAPEA_W0@Z 000000018000d39c f   CheckScannerImpl.obj
 0001:0000c498       ?DoInvoke@COPOSCheckScanner@@IEAAJJPEAVOposVariant@@IHPEAJ_N@Z 000000018000d498 f   CheckScannerImpl.obj
 0001:0000c5cc       ?EndInsertion@COPOSCheckScanner@@UEAAJPEAJ@Z 000000018000d5cc f   CheckScannerImpl.obj
 0001:0000c5f4       ?EndRemoval@COPOSCheckScanner@@UEAAJPEAJ@Z 000000018000d5f4 f   CheckScannerImpl.obj
 0001:0000c61c       ?EventInit@COPOSCheckScanner@@IEAAJXZ 000000018000d61c f i CheckScannerImpl.obj
 0001:0000c764       ?EventUninit@COPOSCheckScanner@@IEAAXXZ 000000018000d764 f i CheckScannerImpl.obj
 0001:0000c7c8       ?EventWindowProc@COPOSCheckScanner@@IEAA_JI_K_J@Z 000000018000d7c8 f i CheckScannerImpl.obj
 0001:0000c940       ?FinalConstruct@COPOSCheckScanner@@QEAAJXZ 000000018000d940 f   CheckScannerImpl.obj
 0001:0000c97c       ?FreezeEvents@COPOSCheckScanner@@MEAAJH@Z 000000018000d97c f   CheckScannerImpl.obj
 0001:0000c9f0       ?GetOposProp@COPOSCheckScanner@@IEAAJJPEAJJ@Z 000000018000d9f0 f   CheckScannerImpl.obj
 0001:0000cb0c       ?GetOposProp@COPOSCheckScanner@@IEAAJJPEAPEA_WJ@Z 000000018000db0c f   CheckScannerImpl.obj
 0001:0000cc38       ?OnDraw@COPOSCheckScanner@@MEAAJAEAUATL_DRAWINFO@@@Z 000000018000dc38 f   CheckScannerImpl.obj
 0001:0000cd24       ?Open@COPOSCheckScanner@@UEAAJPEA_WPEAJ@Z 000000018000dd24 f   CheckScannerImpl.obj
 0001:0000d5b0       ?ReleaseDevice@COPOSCheckScanner@@UEAAJPEAJ@Z 000000018000e5b0 f   CheckScannerImpl.obj
 0001:0000d61c       ?ResetStatistics@COPOSCheckScanner@@UEAAJPEA_WPEAJ@Z 000000018000e61c f   CheckScannerImpl.obj
 0001:0000d6a4       ?RetrieveImage@COPOSCheckScanner@@UEAAJJPEAJ@Z 000000018000e6a4 f   CheckScannerImpl.obj
 0001:0000d720       ?RetrieveMemory@COPOSCheckScanner@@UEAAJJPEAJ@Z 000000018000e720 f   CheckScannerImpl.obj
 0001:0000d79c       ?RetrieveStatistics@COPOSCheckScanner@@UEAAJPEAPEA_WPEAJ@Z 000000018000e79c f   CheckScannerImpl.obj
 0001:0000d824       ?SOProcessID@COPOSCheckScanner@@UEAAJPEAJ@Z 000000018000e824 f   CheckScannerImpl.obj
 0001:0000d840       ?SetCOFreezeEvents@COPOSCheckScanner@@IEAAXF@Z 000000018000e840 f   CheckScannerImpl.obj
 0001:0000d924       ?SetOposProp@COPOSCheckScanner@@IEAAJJJJ@Z 000000018000e924 f   CheckScannerImpl.obj
 0001:0000da84       ?SetOposProp@COPOSCheckScanner@@IEAAJJPEA_WJ@Z 000000018000ea84 f   CheckScannerImpl.obj
 0001:0000dbdc       ?StoreImage@COPOSCheckScanner@@UEAAJJPEAJ@Z 000000018000ebdc f   CheckScannerImpl.obj
 0001:0000dc58       ?UpdateFirmware@COPOSCheckScanner@@UEAAJPEA_WPEAJ@Z 000000018000ec58 f   CheckScannerImpl.obj
 0001:0000dce0       ?UpdateStatistics@COPOSCheckScanner@@UEAAJPEA_WPEAJ@Z 000000018000ece0 f   CheckScannerImpl.obj
 0001:0000dd68       ?get_AutoDisable@COPOSCheckScanner@@UEAAJPEAF@Z 000000018000ed68 f   CheckScannerImpl.obj
 0001:0000dd9c       ?get_BinaryConversion@COPOSCheckScanner@@UEAAJPEAJ@Z 000000018000ed9c f   CheckScannerImpl.obj
 0001:0000ddb0       ?get_CapAutoContrast@COPOSCheckScanner@@UEAAJPEAF@Z 000000018000edb0 f   CheckScannerImpl.obj
 0001:0000dde4       ?get_CapAutoGenerateFileID@COPOSCheckScanner@@UEAAJPEAF@Z 000000018000ede4 f   CheckScannerImpl.obj
 0001:0000de18       ?get_CapAutoGenerateImageTagData@COPOSCheckScanner@@UEAAJPEAF@Z 000000018000ee18 f   CheckScannerImpl.obj
 0001:0000de4c       ?get_CapAutoSize@COPOSCheckScanner@@UEAAJPEAF@Z 000000018000ee4c f   CheckScannerImpl.obj
 0001:0000de80       ?get_CapColor@COPOSCheckScanner@@UEAAJPEAJ@Z 000000018000ee80 f   CheckScannerImpl.obj
 0001:0000de94       ?get_CapCompareFirmwareVersion@COPOSCheckScanner@@UEAAJPEAF@Z 000000018000ee94 f   CheckScannerImpl.obj
 0001:0000dec8       ?get_CapConcurrentMICR@COPOSCheckScanner@@UEAAJPEAF@Z 000000018000eec8 f   CheckScannerImpl.obj
 0001:0000defc       ?get_CapContrast@COPOSCheckScanner@@UEAAJPEAF@Z 000000018000eefc f   CheckScannerImpl.obj
 0001:0000df30       ?get_CapDefineCropArea@COPOSCheckScanner@@UEAAJPEAF@Z 000000018000ef30 f   CheckScannerImpl.obj
 0001:0000df64       ?get_CapImageFormat@COPOSCheckScanner@@UEAAJPEAJ@Z 000000018000ef64 f   CheckScannerImpl.obj
 0001:0000df78       ?get_CapImageTagData@COPOSCheckScanner@@UEAAJPEAF@Z 000000018000ef78 f   CheckScannerImpl.obj
 0001:0000dfac       ?get_CapMICRDevice@COPOSCheckScanner@@UEAAJPEAF@Z 000000018000efac f   CheckScannerImpl.obj
 0001:0000dfe0       ?get_CapPowerReporting@COPOSCheckScanner@@UEAAJPEAJ@Z 000000018000efe0 f   CheckScannerImpl.obj
 0001:0000dff4       ?get_CapStatisticsReporting@COPOSCheckScanner@@UEAAJPEAF@Z 000000018000eff4 f   CheckScannerImpl.obj
 0001:0000e028       ?get_CapStoreImageFiles@COPOSCheckScanner@@UEAAJPEAF@Z 000000018000f028 f   CheckScannerImpl.obj
 0001:0000e05c       ?get_CapUpdateFirmware@COPOSCheckScanner@@UEAAJPEAF@Z 000000018000f05c f   CheckScannerImpl.obj
 0001:0000e090       ?get_CapUpdateStatistics@COPOSCheckScanner@@UEAAJPEAF@Z 000000018000f090 f   CheckScannerImpl.obj
 0001:0000e0c4       ?get_CapValidationDevice@COPOSCheckScanner@@UEAAJPEAF@Z 000000018000f0c4 f   CheckScannerImpl.obj
 0001:0000e0f8       ?get_CheckHealthText@COPOSCheckScanner@@UEAAJPEAPEA_W@Z 000000018000f0f8 f   CheckScannerImpl.obj
 0001:0000e10c       ?get_Claimed@COPOSCheckScanner@@UEAAJPEAF@Z 000000018000f10c f   CheckScannerImpl.obj
 0001:0000e140       ?get_Color@COPOSCheckScanner@@UEAAJPEAJ@Z 000000018000f140 f   CheckScannerImpl.obj
 0001:0000e154       ?get_ConcurrentMICR@COPOSCheckScanner@@UEAAJPEAF@Z 000000018000f154 f   CheckScannerImpl.obj
 0001:0000e188       ?get_Contrast@COPOSCheckScanner@@UEAAJPEAJ@Z 000000018000f188 f   CheckScannerImpl.obj
 0001:0000e19c       ?get_ControlObjectDescription@COPOSCheckScanner@@UEAAJPEAPEA_W@Z 000000018000f19c f   CheckScannerImpl.obj
 0001:0000e200       ?get_ControlObjectVersion@COPOSCheckScanner@@UEAAJPEAJ@Z 000000018000f200 f   CheckScannerImpl.obj
 0001:0000e20c       ?get_CropAreaCount@COPOSCheckScanner@@UEAAJPEAJ@Z 000000018000f20c f   CheckScannerImpl.obj
 0001:0000e220       ?get_DataCount@COPOSCheckScanner@@UEAAJPEAJ@Z 000000018000f220 f   CheckScannerImpl.obj
 0001:0000e234       ?get_DataEventEnabled@COPOSCheckScanner@@UEAAJPEAF@Z 000000018000f234 f   CheckScannerImpl.obj
 0001:0000e268       ?get_DeviceDescription@COPOSCheckScanner@@UEAAJPEAPEA_W@Z 000000018000f268 f   CheckScannerImpl.obj
 0001:0000e27c       ?get_DeviceEnabled@COPOSCheckScanner@@UEAAJPEAF@Z 000000018000f27c f   CheckScannerImpl.obj
 0001:0000e2b0       ?get_DeviceName@COPOSCheckScanner@@UEAAJPEAPEA_W@Z 000000018000f2b0 f   CheckScannerImpl.obj
 0001:0000e2c4       ?get_DocumentHeight@COPOSCheckScanner@@UEAAJPEAJ@Z 000000018000f2c4 f   CheckScannerImpl.obj
 0001:0000e2d8       ?get_DocumentWidth@COPOSCheckScanner@@UEAAJPEAJ@Z 000000018000f2d8 f   CheckScannerImpl.obj
 0001:0000e2ec       ?get_FileID@COPOSCheckScanner@@UEAAJPEAPEA_W@Z 000000018000f2ec f   CheckScannerImpl.obj
 0001:0000e300       ?get_FileIndex@COPOSCheckScanner@@UEAAJPEAJ@Z 000000018000f300 f   CheckScannerImpl.obj
 0001:0000e314       ?get_FreezeEvents@COPOSCheckScanner@@UEAAJPEAF@Z 000000018000f314 f   CheckScannerImpl.obj
 0001:0000e344       ?get_ImageData@COPOSCheckScanner@@UEAAJPEAPEA_W@Z 000000018000f344 f   CheckScannerImpl.obj
 0001:0000e358       ?get_ImageFormat@COPOSCheckScanner@@UEAAJPEAJ@Z 000000018000f358 f   CheckScannerImpl.obj
 0001:0000e36c       ?get_ImageMemoryStatus@COPOSCheckScanner@@UEAAJPEAJ@Z 000000018000f36c f   CheckScannerImpl.obj
 0001:0000e380       ?get_ImageTagData@COPOSCheckScanner@@UEAAJPEAPEA_W@Z 000000018000f380 f   CheckScannerImpl.obj
 0001:0000e394       ?get_MapMode@COPOSCheckScanner@@UEAAJPEAJ@Z 000000018000f394 f   CheckScannerImpl.obj
 0001:0000e3a8       ?get_MaxCropAreas@COPOSCheckScanner@@UEAAJPEAJ@Z 000000018000f3a8 f   CheckScannerImpl.obj
 0001:0000e3bc       ?get_OpenResult@COPOSCheckScanner@@UEAAJPEAJ@Z 000000018000f3bc f   CheckScannerImpl.obj
 0001:0000e3c8       ?get_PowerNotify@COPOSCheckScanner@@UEAAJPEAJ@Z 000000018000f3c8 f   CheckScannerImpl.obj
 0001:0000e3dc       ?get_PowerState@COPOSCheckScanner@@UEAAJPEAJ@Z 000000018000f3dc f   CheckScannerImpl.obj
 0001:0000e3f0       ?get_Quality@COPOSCheckScanner@@UEAAJPEAJ@Z 000000018000f3f0 f   CheckScannerImpl.obj
 0001:0000e404       ?get_QualityList@COPOSCheckScanner@@UEAAJPEAPEA_W@Z 000000018000f404 f   CheckScannerImpl.obj
 0001:0000e418       ?get_RemainingImagesEstimate@COPOSCheckScanner@@UEAAJPEAJ@Z 000000018000f418 f   CheckScannerImpl.obj
 0001:0000e42c       ?get_ResultCode@COPOSCheckScanner@@UEAAJPEAJ@Z 000000018000f42c f   CheckScannerImpl.obj
 0001:0000e468       ?get_ResultCodeExtended@COPOSCheckScanner@@UEAAJPEAJ@Z 000000018000f468 f   CheckScannerImpl.obj
 0001:0000e47c       ?get_ServiceObjectDescription@COPOSCheckScanner@@UEAAJPEAPEA_W@Z 000000018000f47c f   CheckScannerImpl.obj
 0001:0000e490       ?get_ServiceObjectVersion@COPOSCheckScanner@@UEAAJPEAJ@Z 000000018000f490 f   CheckScannerImpl.obj
 0001:0000e4a4       ?get_State@COPOSCheckScanner@@UEAAJPEAJ@Z 000000018000f4a4 f   CheckScannerImpl.obj
 0001:0000e4d0       ?put_AutoDisable@COPOSCheckScanner@@UEAAJF@Z 000000018000f4d0 f   CheckScannerImpl.obj
 0001:0000e4e8       ?put_BinaryConversion@COPOSCheckScanner@@UEAAJJ@Z 000000018000f4e8 f   CheckScannerImpl.obj
 0001:0000e4fc       ?put_Color@COPOSCheckScanner@@UEAAJJ@Z 000000018000f4fc f   CheckScannerImpl.obj
 0001:0000e510       ?put_ConcurrentMICR@COPOSCheckScanner@@UEAAJF@Z 000000018000f510 f   CheckScannerImpl.obj
 0001:0000e52c       ?put_Contrast@COPOSCheckScanner@@UEAAJJ@Z 000000018000f52c f   CheckScannerImpl.obj
 0001:0000e540       ?put_DataEventEnabled@COPOSCheckScanner@@UEAAJF@Z 000000018000f540 f   CheckScannerImpl.obj
 0001:0000e558       ?put_DeviceEnabled@COPOSCheckScanner@@UEAAJF@Z 000000018000f558 f   CheckScannerImpl.obj
 0001:0000e570       ?put_DocumentHeight@COPOSCheckScanner@@UEAAJJ@Z 000000018000f570 f   CheckScannerImpl.obj
 0001:0000e584       ?put_DocumentWidth@COPOSCheckScanner@@UEAAJJ@Z 000000018000f584 f   CheckScannerImpl.obj
 0001:0000e598       ?put_FileID@COPOSCheckScanner@@UEAAJPEA_W@Z 000000018000f598 f   CheckScannerImpl.obj
 0001:0000e5ac       ?put_FileIndex@COPOSCheckScanner@@UEAAJJ@Z 000000018000f5ac f   CheckScannerImpl.obj
 0001:0000e5c0       ?put_FreezeEvents@COPOSCheckScanner@@UEAAJF@Z 000000018000f5c0 f   CheckScannerImpl.obj
 0001:0000e610       ?put_ImageFormat@COPOSCheckScanner@@UEAAJJ@Z 000000018000f610 f   CheckScannerImpl.obj
 0001:0000e624       ?put_ImageTagData@COPOSCheckScanner@@UEAAJPEA_W@Z 000000018000f624 f   CheckScannerImpl.obj
 0001:0000e638       ?put_MapMode@COPOSCheckScanner@@UEAAJJ@Z 000000018000f638 f   CheckScannerImpl.obj
 0001:0000e64c       ?put_PowerNotify@COPOSCheckScanner@@UEAAJJ@Z 000000018000f64c f   CheckScannerImpl.obj
 0001:0000e660       ?put_Quality@COPOSCheckScanner@@UEAAJJ@Z 000000018000f660 f   CheckScannerImpl.obj
 0001:0000e674       ?s_EventWindowProc@COPOSCheckScanner@@KA_JPEAUHWND__@@I_K_J@Z 000000018000f674 f i CheckScannerImpl.obj
 0001:0000e6f0       ??_U@YAPEAX_K@Z            000000018000f6f0 f   LIBCMT:new_array.obj
 0001:0000e6f8       ??_V@YAXPEAX@Z             000000018000f6f8 f   LIBCMT:delete_array.obj
 0001:0000e6f8       ??3@YAXPEAX_K@Z            000000018000f6f8 f   LIBCMT:delete_scalar_size.obj
 0001:0000e700       ??_V@YAXPEAX_K@Z           000000018000f700 f   LIBCMT:delete_array_size.obj
 0001:0000e708       __scrt_acquire_startup_lock 000000018000f708 f   LIBCMT:utility.obj
 0001:0000e744       __scrt_dllmain_after_initialize_c 000000018000f744 f   LIBCMT:utility.obj
 0001:0000e778       __scrt_dllmain_before_initialize_c 000000018000f778 f   LIBCMT:utility.obj
 0001:0000e790       __scrt_dllmain_crt_thread_attach 000000018000f790 f   LIBCMT:utility.obj
 0001:0000e7b8       __scrt_dllmain_crt_thread_detach 000000018000f7b8 f   LIBCMT:utility.obj
 0001:0000e7d0       __scrt_dllmain_exception_filter 000000018000f7d0 f   LIBCMT:utility.obj
 0001:0000e830       __scrt_dllmain_uninitialize_c 000000018000f830 f   LIBCMT:utility.obj
 0001:0000e860       __scrt_dllmain_uninitialize_critical 000000018000f860 f   LIBCMT:utility.obj
 0001:0000e874       __scrt_initialize_crt      000000018000f874 f   LIBCMT:utility.obj
 0001:0000e8c0       __scrt_initialize_onexit_tables 000000018000f8c0 f   LIBCMT:utility.obj
 0001:0000e94c       __scrt_is_nonwritable_in_current_image 000000018000f94c f   LIBCMT:utility.obj
 0001:0000e9e4       __scrt_release_startup_lock 000000018000f9e4 f   LIBCMT:utility.obj
 0001:0000ea08       __scrt_uninitialize_crt    000000018000fa08 f   LIBCMT:utility.obj
 0001:0000ea34       _onexit                    000000018000fa34 f   LIBCMT:utility.obj
 0001:0000ea70       atexit                     000000018000fa70 f   LIBCMT:utility.obj
 0001:0000ea88       ??3@YAXPEAX@Z              000000018000fa88 f   LIBCMT:delete_scalar.obj
 0001:0000eb88       _Init_thread_footer        000000018000fb88 f   LIBCMT:thread_safe_statics.obj
 0001:0000ebe8       _Init_thread_header        000000018000fbe8 f   LIBCMT:thread_safe_statics.obj
 0001:0000ec50       _Init_thread_notify        000000018000fc50 f   LIBCMT:thread_safe_statics.obj
 0001:0000ec94       _Init_thread_wait          000000018000fc94 f   LIBCMT:thread_safe_statics.obj
 0001:0000ecf8       __raise_securityfailure    000000018000fcf8 f   LIBCMT:gs_report.obj
 0001:0000ed2c       __report_gsfailure         000000018000fd2c f   LIBCMT:gs_report.obj
 0001:0000ee00       __report_rangecheckfailure 000000018000fe00 f   LIBCMT:gs_report.obj
 0001:0000ee14       __report_securityfailure   000000018000fe14 f   LIBCMT:gs_report.obj
 0001:0000ef94       ??2@YAPEAX_KAEBUnothrow_t@std@@@Z 000000018000ff94 f   LIBCMT:new_scalar_nothrow.obj
 0001:0000efa8       ??_U@YAPEAX_KAEBUnothrow_t@std@@@Z 000000018000ffa8 f   LIBCMT:new_array_nothrow.obj
 0001:0000efb0       __GSHandlerCheck           000000018000ffb0 f   LIBCMT:gshandler.obj
 0001:0000efd0       __GSHandlerCheckCommon     000000018000ffd0 f   LIBCMT:gshandler.obj
 0001:0000f02c       __GSHandlerCheck_SEH       000000018001002c f   LIBCMT:gshandlerseh.obj
 0001:0000f0d0       __chkstk                   00000001800100d0 f   LIBCMT:chkstk.obj
 0001:0000f0d0       _alloca_probe              00000001800100d0 f   LIBCMT:chkstk.obj
 0001:0000f140       __security_check_cookie    0000000180010140 f   LIBCMT:amdsecgs.obj
 0001:0000f484       _DllMainCRTStartup         0000000180010484 f   LIBCMT:dll_dllmain.obj
 0001:0000f4c4       ??2@YAPEAX_K@Z             00000001800104c4 f   LIBCMT:new_scalar.obj
 0001:0000f500       __isa_available_init       0000000180010500 f   LIBCMT:cpu_disp.obj
 0001:0000f6a4       __scrt_is_ucrt_dll_in_use  00000001800106a4 f   LIBCMT:ucrt_detection.obj
 0001:0000f6b0       __crt_debugger_hook        00000001800106b0 f   LIBCMT:utility_desktop.obj
 0001:0000f6b8       __scrt_fastfail            00000001800106b8 f   LIBCMT:utility_desktop.obj
 0001:0000f804       __security_init_cookie     0000000180010804 f   LIBCMT:gs_support.obj
 0001:0000f8b0       ?__scrt_initialize_type_info@@YAXXZ 00000001800108b0 f   LIBCMT:tncleanup.obj
 0001:0000f8c0       ?__scrt_uninitialize_type_info@@YAXXZ 00000001800108c0 f   LIBCMT:tncleanup.obj
 0001:0000f8cc       __local_stdio_scanf_options 00000001800108cc f i LIBCMT:default_local_stdio_options.obj
 0001:0000f8d4       __scrt_initialize_default_local_stdio_options 00000001800108d4 f   LIBCMT:default_local_stdio_options.obj
 0001:0000f8f0       __scrt_get_dyn_tls_init_callback 00000001800108f0 f   LIBCMT:dyn_tls_init.obj
 0001:0000f8f8       _RTC_Initialize            00000001800108f8 f   LIBCMT:initsect.obj
 0001:0000f934       _RTC_Terminate             0000000180010934 f   LIBCMT:initsect.obj
 0001:0000f970       ??0bad_alloc@std@@QEAA@AEBV01@@Z 0000000180010970 f i LIBCMT:throw_bad_alloc.obj
 0001:0000f9ac       ??0bad_alloc@std@@QEAA@XZ  00000001800109ac f i LIBCMT:throw_bad_alloc.obj
 0001:0000f9cc       ??0bad_array_new_length@std@@QEAA@AEBV01@@Z 00000001800109cc f i LIBCMT:throw_bad_alloc.obj
 0001:0000fa08       ??0bad_array_new_length@std@@QEAA@XZ 0000000180010a08 f i LIBCMT:throw_bad_alloc.obj
 0001:0000fa28       ??0exception@std@@QEAA@AEBV01@@Z 0000000180010a28 f i LIBCMT:throw_bad_alloc.obj
 0001:0000fa5c       ??1bad_exception@std@@UEAA@XZ 0000000180010a5c f i libvcruntime:frame.obj
 0001:0000fa5c       ??1bad_array_new_length@std@@UEAA@XZ 0000000180010a5c f i LIBCMT:throw_bad_alloc.obj
 0001:0000fa5c       ??1bad_alloc@std@@UEAA@XZ  0000000180010a5c f i LIBCMT:throw_bad_alloc.obj
 0001:0000fa70       ??_Eexception@std@@UEAAPEAXI@Z 0000000180010a70 f i LIBCMT:throw_bad_alloc.obj
 0001:0000fa70       ??_Gexception@std@@UEAAPEAXI@Z 0000000180010a70 f i LIBCMT:throw_bad_alloc.obj
 0001:0000fa70       ??_Gbad_array_new_length@std@@UEAAPEAXI@Z 0000000180010a70 f i LIBCMT:throw_bad_alloc.obj
 0001:0000fa70       ??_Ebad_exception@std@@UEAAPEAXI@Z 0000000180010a70 f i libvcruntime:frame.obj
 0001:0000fa70       ??_Gbad_alloc@std@@UEAAPEAXI@Z 0000000180010a70 f i LIBCMT:throw_bad_alloc.obj
 0001:0000fa70       ??_Ebad_alloc@std@@UEAAPEAXI@Z 0000000180010a70 f i LIBCMT:throw_bad_alloc.obj
 0001:0000fa70       ??_Gbad_exception@std@@UEAAPEAXI@Z 0000000180010a70 f i libvcruntime:frame.obj
 0001:0000fa70       ??_Ebad_array_new_length@std@@UEAAPEAXI@Z 0000000180010a70 f i LIBCMT:throw_bad_alloc.obj
 0001:0000fab4       ?__scrt_throw_std_bad_alloc@@YAXXZ 0000000180010ab4 f   LIBCMT:throw_bad_alloc.obj
 0001:0000fad4       ?__scrt_throw_std_bad_array_new_length@@YAXXZ 0000000180010ad4 f   LIBCMT:throw_bad_alloc.obj
 0001:0000faf4       ?what@exception@std@@UEBAPEBDXZ 0000000180010af4 f i LIBCMT:throw_bad_alloc.obj
 0001:0000fb10       ??_Gtype_info@@UEAAPEAXI@Z 0000000180010b10 f i LIBCMT:std_type_info_static.obj
 0001:0000fb10       ??_Etype_info@@UEAAPEAXI@Z 0000000180010b10 f i LIBCMT:std_type_info_static.obj
 0001:0000fb3c       ??0CAtlBaseModule@ATL@@QEAA@XZ 0000000180010b3c f   atls:atlbase.obj
 0001:0000fbe4       ??1CAtlBaseModule@ATL@@QEAA@XZ 0000000180010be4 f   atls:atlbase.obj
 0001:0000fd18       ?__AllocStdCallThunk_cmn@@YAPEAXXZ 0000000180010d18 f   atls:atlthunk.obj
 0001:0000fe70       AtlThunk_AllocateData      0000000180010e70 f   atls:atlthunk.obj
 0001:0000feec       AtlThunk_DataToCode        0000000180010eec f   atls:atlthunk.obj
 0001:0000ff40       AtlThunk_FreeData          0000000180010f40 f   atls:atlthunk.obj
 0001:0000ffa0       AtlThunk_InitData          0000000180010fa0 f   atls:atlthunk.obj
 0001:00010048       _get_purecall_handler      0000000180011048 f   libvcruntime:purevirt.obj
 0001:00010050       _purecall                  0000000180011050 f   libvcruntime:purevirt.obj
 0001:0001006c       wcsstr                     000000018001106c f   libvcruntime:wcsstr.obj
 0001:000102a0       memcmp                     00000001800112a0 f   libvcruntime:memcmp.obj
 0001:00010380       memcpy_repmovs             0000000180011380 f   libvcruntime:memcpy.obj
 0001:000103a0       memcpy                     00000001800113a0 f   libvcruntime:memcpy.obj
 0001:000103a0       memmove                    00000001800113a0 f   libvcruntime:memcpy.obj
 0001:00010790       memset_repmovs             0000000180011790 f   libvcruntime:memset.obj
 0001:000107b0       memset                     00000001800117b0 f   libvcruntime:memset.obj
 0001:00010940       __vcrt_initialize          0000000180011940 f   libvcruntime:initialization.obj
 0001:00010968       __vcrt_thread_attach       0000000180011968 f   libvcruntime:initialization.obj
 0001:0001097c       __vcrt_thread_detach       000000018001197c f   libvcruntime:initialization.obj
 0001:00010990       __vcrt_uninitialize        0000000180011990 f   libvcruntime:initialization.obj
 0001:000109ac       __vcrt_uninitialize_critical 00000001800119ac f   libvcruntime:initialization.obj
 0001:000109bc       __C_specific_handler       00000001800119bc f   libvcruntime:riscchandler.obj
 0001:00010bc8       ??$_CallSETranslator@V__FrameHandler4@@@@YAHPEAUEHExceptionRecord@@PEA_KPEAU_CONTEXT@@PEAU_xDISPATCHER_CONTEXT@@PEAUFuncInfo4@FH4@@K1H@Z 0000000180011bc8 f i libvcruntime:risctrnsctrl.obj
 0001:00010c1c       ?DecompFuncInfo@FH4@@YA_JPEAEAEAUFuncInfo4@1@_KH_N@Z 0000000180011c1c f i libvcruntime:risctrnsctrl.obj
 0001:00010d40       ?ExecutionInCatch@__FrameHandler4@@SA_NPEAU_xDISPATCHER_CONTEXT@@PEAUFuncInfo4@FH4@@@Z 0000000180011d40 f   libvcruntime:risctrnsctrl.obj
 0001:00010d48       ?FrameUnwindToEmptyState@__FrameHandler4@@SAXPEA_KPEAU_xDISPATCHER_CONTEXT@@PEAUFuncInfo4@FH4@@@Z 0000000180011d48 f   libvcruntime:risctrnsctrl.obj
 0001:00010d7c       ?GetEstablisherFrame@__FrameHandler4@@SAPEA_KPEA_KPEAU_xDISPATCHER_CONTEXT@@PEAUFuncInfo4@FH4@@0@Z 0000000180011d7c f   libvcruntime:risctrnsctrl.obj
 0001:00010da0       ?GetRangeOfTrysToCheck@__FrameHandler4@@SA?AU?$pair@Viterator@TryBlockMap4@FH4@@V123@@std@@AEAVTryBlockMap4@FH4@@HPEAU_xDISPATCHER_CONTEXT@@PEAUFuncInfo4@5@H@Z 0000000180011da0 f   libvcruntime:risctrnsctrl.obj
 0001:00010efc       ?UnwindNestedFrames@__FrameHandler4@@SAXPEA_KPEAUEHExceptionRecord@@PEAU_CONTEXT@@0PEAXPEAUFuncInfo4@FH4@@HHPEAUHandlerType4@5@PEAU_xDISPATCHER_CONTEXT@@E@Z 0000000180011efc f   libvcruntime:risctrnsctrl.obj
 0001:0001101c       ?setBuffer@TryBlockMap4@FH4@@QEAAXViterator@12@@Z 000000018001201c f i libvcruntime:risctrnsctrl.obj
 0001:000111e0       _CreateFrameInfo           00000001800121e0 f   libvcruntime:risctrnsctrl.obj
 0001:0001121c       _FindAndUnlinkFrame        000000018001221c f   libvcruntime:risctrnsctrl.obj
 0001:00011270       _GetImageBase              0000000180012270 f   libvcruntime:risctrnsctrl.obj
 0001:00011284       _GetThrowImageBase         0000000180012284 f   libvcruntime:risctrnsctrl.obj
 0001:00011298       _SetImageBase              0000000180012298 f   libvcruntime:risctrnsctrl.obj
 0001:000112b0       _SetThrowImageBase         00000001800122b0 f   libvcruntime:risctrnsctrl.obj
 0001:000112c8       __CxxFrameHandler4         00000001800122c8 f   libvcruntime:risctrnsctrl.obj
 0001:00011388       __DestructExceptionObject  0000000180012388 f   libvcruntime:ehhelpers.obj
 0001:000113f8       ?_CallMemberFunction0@@YAXQEAX0@Z 00000001800123f8 f i libvcruntime:ehhelpers.obj
 0001:000113fc       _IsExceptionObjectToBeDestroyed 00000001800123fc f   libvcruntime:ehhelpers.obj
 0001:0001142c       __AdjustPointer            000000018001242c f   libvcruntime:ehhelpers.obj
 0001:00011450       __FrameUnwindFilter        0000000180012450 f   libvcruntime:ehhelpers.obj
 0001:000114b8       __std_type_info_compare    00000001800124b8 f   libvcruntime:std_type_info.obj
 0001:000114e0       __std_type_info_destroy_list 00000001800124e0 f   libvcruntime:std_type_info.obj
 0001:0001150c       __std_exception_copy       000000018001250c f   libvcruntime:std_exception.obj
 0001:0001159c       __std_exception_destroy    000000018001259c f   libvcruntime:std_exception.obj
 0001:000115c4       _CxxThrowException         00000001800125c4 f   libvcruntime:throw.obj
 0001:00011664       __vcrt_freefls             0000000180012664 f   libvcruntime:per_thread_data.obj
 0001:00011684       __vcrt_freeptd             0000000180012684 f   libvcruntime:per_thread_data.obj
 0001:000116d4       __vcrt_getptd              00000001800126d4 f   libvcruntime:per_thread_data.obj
 0001:000116f0       __vcrt_getptd_noexit       00000001800126f0 f   libvcruntime:per_thread_data.obj
 0001:000117b0       __vcrt_initialize_ptd      00000001800127b0 f   libvcruntime:per_thread_data.obj
 0001:000117f8       __vcrt_uninitialize_ptd    00000001800127f8 f   libvcruntime:per_thread_data.obj
 0001:0001181c       __vcrt_initialize_locks    000000018001281c f   libvcruntime:locks.obj
 0001:00011850       __vcrt_uninitialize_locks  0000000180012850 f   libvcruntime:locks.obj
 0001:000118a0       _NLG_Notify                00000001800128a0 f   libvcruntime:notify.obj
 0001:000118c0       __NLG_Dispatch2            00000001800128c0 f   libvcruntime:notify.obj
 0001:000118d0       __NLG_Return2              00000001800128d0 f   libvcruntime:notify.obj
 0001:000118d4       __except_validate_context_record 00000001800128d4 f   libvcruntime:jbcxrval.obj
 0001:0001190c       ?StateFromControlPc@__FrameHandler4@@SAHPEAUFuncInfo4@FH4@@PEAU_xDISPATCHER_CONTEXT@@@Z 000000018001290c f   libvcruntime:ehstate.obj
 0001:00011914       ?StateFromIp@__FrameHandler4@@SAHPEAUFuncInfo4@FH4@@PEAU_xDISPATCHER_CONTEXT@@_K@Z 0000000180012914 f   libvcruntime:ehstate.obj
 0001:00012598       ??$TypeMatchHelper@V__FrameHandler3@@@@YAHPEBU_s_HandlerType@@PEBU_s_CatchableType@@PEBU_s_ThrowInfo@@@Z 0000000180013598 f i libvcruntime:frame.obj
 0001:000126d8       ??$TypeMatchHelper@V__FrameHandler4@@@@YAHPEAUHandlerType4@FH4@@PEBU_s_CatchableType@@PEBU_s_ThrowInfo@@@Z 00000001800136d8 f i libvcruntime:frame.obj
 0001:0001281c       ??$__InternalCxxFrameHandler@V__FrameHandler4@@@@YA?AW4_EXCEPTION_DISPOSITION@@PEAUEHExceptionRecord@@PEA_KPEAU_CONTEXT@@PEAU_xDISPATCHER_CONTEXT@@PEAUFuncInfo4@FH4@@H1E@Z 000000018001381c f i libvcruntime:frame.obj
 0001:00012ab0       ??0HandlerMap4@FH4@@QEAA@PEBUTryBlockMapEntry4@1@_KH@Z 0000000180013ab0 f i libvcruntime:frame.obj
 0001:00012b2c       ??0TryBlockMap4@FH4@@QEAA@PEBUFuncInfo4@1@_K@Z 0000000180013b2c f i libvcruntime:frame.obj
 0001:00012c04       ??0bad_exception@std@@QEAA@AEBV01@@Z 0000000180013c04 f i libvcruntime:frame.obj
 0001:00012c40       ??0bad_exception@std@@QEAA@XZ 0000000180013c40 f i libvcruntime:frame.obj
 0001:00012c60       ?CxxCallCatchBlock@__FrameHandler4@@SAPEAXPEAU_EXCEPTION_RECORD@@@Z 0000000180013c60 f   libvcruntime:frame.obj
 0001:00012eb0       ?DecompHandler@HandlerMap4@FH4@@AEAAXXZ 0000000180013eb0 f i libvcruntime:frame.obj
 0001:000130f0       ?FrameUnwindToState@__FrameHandler4@@SAXPEA_KPEAU_xDISPATCHER_CONTEXT@@PEAUFuncInfo4@FH4@@H@Z 00000001800140f0 f   libvcruntime:frame.obj
 0001:0001354c       ?ReadEntry@UWMap4@FH4@@AEAAXPEAPEAE@Z 000000018001454c f i libvcruntime:frame.obj
 0001:000135ec       ?_CallMemberFunction1@@YAXQEAX00@Z 00000001800145ec f i libvcruntime:frame.obj
 0001:000135f8       ?_CallMemberFunction2@@YAXQEAX00H@Z 00000001800145f8 f i libvcruntime:frame.obj
 0001:00013608       ?getStartStop@UWMap4@FH4@@QEAAXHHAEAViterator@12@0@Z 0000000180014608 f i libvcruntime:frame.obj
 0001:000136d8       ?getStateFromIterators@UWMap4@FH4@@SAHAEBViterator@12@H0H0@Z 00000001800146d8 f i libvcruntime:frame.obj
 0001:000138ec       __vcrt_FlsAlloc            00000001800148ec f   libvcruntime:winapi_downlevel.obj
 0001:00013934       __vcrt_FlsFree             0000000180014934 f   libvcruntime:winapi_downlevel.obj
 0001:0001397c       __vcrt_FlsGetValue         000000018001497c f   libvcruntime:winapi_downlevel.obj
 0001:000139c4       __vcrt_FlsSetValue         00000001800149c4 f   libvcruntime:winapi_downlevel.obj
 0001:00013a18       __vcrt_InitializeCriticalSectionEx 0000000180014a18 f   libvcruntime:winapi_downlevel.obj
 0001:00013a90       _CallSettingFrame          0000000180014a90 f   libvcruntime:handlers.obj
 0001:00013ae0       _CallSettingFrame_LookupContinuationIndex 0000000180014ae0 f   libvcruntime:handlers.obj
 0001:00013b10       _CallSettingFrame_NotifyContinuationAddr 0000000180014b10 f   libvcruntime:handlers.obj
 0001:00013b40       _CallSettingFrameEncoded   0000000180014b40 f   libvcruntime:handlers.obj
 0001:00013b88       free                       0000000180014b88 f   libucrt:free.obj
 0001:00013b9c       __acrt_call_reportfault    0000000180014b9c f   libucrt:invalid_parameter.obj
 0001:00013cf8       __acrt_initialize_invalid_parameter_handler 0000000180014cf8 f   libucrt:invalid_parameter.obj
 0001:00013d00       _invalid_parameter         0000000180014d00 f   libucrt:invalid_parameter.obj
 0001:00013db0       _invalid_parameter_noinfo  0000000180014db0 f   libucrt:invalid_parameter.obj
 0001:00013dd0       _invoke_watson             0000000180014dd0 f   libucrt:invalid_parameter.obj
 0001:00013e18       __acrt_errno_from_os_error 0000000180014e18 f   libucrt:errno.obj
 0001:00013e60       __acrt_errno_map_os_error  0000000180014e60 f   libucrt:errno.obj
 0001:00013eb0       __doserrno                 0000000180014eb0 f   libucrt:errno.obj
 0001:00013ed0       _errno                     0000000180014ed0 f   libucrt:errno.obj
 0001:00013ef0       calloc                     0000000180014ef0 f   libucrt:calloc.obj
 0001:00013ef8       malloc                     0000000180014ef8 f   libucrt:malloc.obj
 0001:00013f00       _recalloc                  0000000180014f00 f   libucrt:recalloc.obj
 0001:00013f08       _recalloc_base             0000000180014f08 f   libucrt:recalloc.obj
 0001:00013fa0       _resetstkoflw              0000000180014fa0 f   libucrt:resetstk.obj
 0001:000140cc       wcscat_s                   00000001800150cc f   libucrt:wcscat_s.obj
 0001:0001414c       wcscpy_s                   000000018001514c f   libucrt:wcscpy_s.obj
 0001:000141b4       wcsncpy_s                  00000001800151b4 f   libucrt:wcsncpy_s.obj
 0001:0001446c       ??$ensure_buffer_is_big_enough@D@formatting_buffer@__crt_stdio_output@@QEAA_N_K@Z 000000018001546c f i libucrt:output.obj
 0001:00014514       ??$ensure_buffer_is_big_enough@_W@formatting_buffer@__crt_stdio_output@@QEAA_N_K@Z 0000000180015514 f i libucrt:output.obj
 0001:000145c0       ??$is_wide_character_specifier@_W@__crt_stdio_output@@YA_N_K_WW4length_modifier@0@@Z 00000001800155c0 f i libucrt:output.obj
 0001:00014600       ??$type_case_integer_parse_into_buffer@I@?$output_processor@_WV?$string_output_adapter@_W@__crt_stdio_output@@V?$format_validation_base@_WV?$string_output_adapter@_W@__crt_stdio_output@@@2@@__crt_stdio_output@@AEAAXII_N@Z 0000000180015600 f i libucrt:output.obj
 0001:000146a4       ??$type_case_integer_parse_into_buffer@_K@?$output_processor@_WV?$string_output_adapter@_W@__crt_stdio_output@@V?$format_validation_base@_WV?$string_output_adapter@_W@__crt_stdio_output@@@2@@__crt_stdio_output@@AEAAX_KI_N@Z 00000001800156a4 f i libucrt:output.obj
 0001:00014748       ??$write_multiple_characters@V?$string_output_adapter@_W@__crt_stdio_output@@D@__crt_stdio_output@@YAXAEBV?$string_output_adapter@_W@0@DHQEAH@Z 0000000180015748 f i libucrt:output.obj
 0001:000147c0       ??0_LocaleUpdate@@QEAA@QEAU__crt_locale_pointers@@@Z 00000001800157c0 f i libucrt:output.obj
 0001:00014860       ?crop_zeroes@__crt_stdio_output@@YAXPEADQEAU__crt_locale_pointers@@@Z 0000000180015860 f i libucrt:output.obj
 0001:00014900       ?force_decimal_point@__crt_stdio_output@@YAXPEADQEAU__crt_locale_pointers@@@Z 0000000180015900 f i libucrt:output.obj
 0001:00014978       ?parse_int_from_format_string@?$output_processor@_WV?$string_output_adapter@_W@__crt_stdio_output@@V?$format_validation_base@_WV?$string_output_adapter@_W@__crt_stdio_output@@@2@@__crt_stdio_output@@AEAA_NQEAH@Z 0000000180015978 f i libucrt:output.obj
 0001:00014a1c       ?process@?$output_processor@_WV?$string_output_adapter@_W@__crt_stdio_output@@V?$format_validation_base@_WV?$string_output_adapter@_W@__crt_stdio_output@@@2@@__crt_stdio_output@@QEAAHXZ 0000000180015a1c f i libucrt:output.obj
 0001:00014c94       ?state_case_size@?$output_processor@_WV?$string_output_adapter@_W@__crt_stdio_output@@V?$format_validation_base@_WV?$string_output_adapter@_W@__crt_stdio_output@@@2@@__crt_stdio_output@@AEAA_NXZ 0000000180015c94 f i libucrt:output.obj
 0001:00014e28       ?state_case_type@?$output_processor@_WV?$string_output_adapter@_W@__crt_stdio_output@@V?$format_validation_base@_WV?$string_output_adapter@_W@__crt_stdio_output@@@2@@__crt_stdio_output@@AEAA_NXZ 0000000180015e28 f i libucrt:output.obj
 0001:00015100       ?to_integer_size@__crt_stdio_output@@YA_KW4length_modifier@1@@Z 0000000180016100 f i libucrt:output.obj
 0001:00015168       ?type_case_Z@?$output_processor@_WV?$string_output_adapter@_W@__crt_stdio_output@@V?$format_validation_base@_WV?$string_output_adapter@_W@__crt_stdio_output@@@2@@__crt_stdio_output@@AEAA_NXZ 0000000180016168 f i libucrt:output.obj
 0001:000151e4       ?type_case_a@?$output_processor@_WV?$string_output_adapter@_W@__crt_stdio_output@@V?$format_validation_base@_WV?$string_output_adapter@_W@__crt_stdio_output@@@2@@__crt_stdio_output@@AEAA_NXZ 00000001800161e4 f i libucrt:output.obj
 0001:000153c4       ?type_case_c_tchar@?$output_processor@_WV?$string_output_adapter@_W@__crt_stdio_output@@V?$format_validation_base@_WV?$string_output_adapter@_W@__crt_stdio_output@@@2@@__crt_stdio_output@@AEAA_N_W@Z 00000001800163c4 f i libucrt:output.obj
 0001:0001546c       ?type_case_integer@?$output_processor@_WV?$string_output_adapter@_W@__crt_stdio_output@@V?$format_validation_base@_WV?$string_output_adapter@_W@__crt_stdio_output@@@2@@__crt_stdio_output@@AEAA_NI_N@Z 000000018001646c f i libucrt:output.obj
 0001:000155f4       ?type_case_n@?$output_processor@_WV?$string_output_adapter@_W@__crt_stdio_output@@V?$format_validation_base@_WV?$string_output_adapter@_W@__crt_stdio_output@@@2@@__crt_stdio_output@@AEAA_NXZ 00000001800165f4 f i libucrt:output.obj
 0001:0001567c       ?type_case_s@?$output_processor@_WV?$string_output_adapter@_W@__crt_stdio_output@@V?$format_validation_base@_WV?$string_output_adapter@_W@__crt_stdio_output@@@2@@__crt_stdio_output@@AEAA_NXZ 000000018001667c f i libucrt:output.obj
 0001:00015744       ?write_stored_string_tchar@?$output_processor@_WV?$string_output_adapter@_W@__crt_stdio_output@@V?$format_validation_base@_WV?$string_output_adapter@_W@__crt_stdio_output@@@2@@__crt_stdio_output@@AEAA_N_W@Z 0000000180016744 f i libucrt:output.obj
 0001:0001582c       ?write_string@?$string_output_adapter@_W@__crt_stdio_output@@QEBAXQEB_WHQEAHAEAV__crt_deferred_errno_cache@@@Z 000000018001682c f i libucrt:output.obj
 0001:000158d4       __stdio_common_vswprintf_s 00000001800168d4 f   libucrt:output.obj
 0001:00015944       _seh_filter_dll            0000000180016944 f   libucrt:exception_filter.obj
 0001:00015958       _seh_filter_exe            0000000180016958 f   libucrt:exception_filter.obj
 0001:00015d48       __acrt_initialize_thread_local_exit_callback 0000000180016d48 f   libucrt:exit.obj
 0001:00015d50       _cexit                     0000000180016d50 f   libucrt:exit.obj
 0001:00015d60       _exit                      0000000180016d60 f   libucrt:exit.obj
 0001:00015d6c       _is_c_termination_complete 0000000180016d6c f   libucrt:exit.obj
 0001:00015f34       __acrt_allocate_buffer_for_argv 0000000180016f34 f   libucrt:argv_parsing.obj
 0001:00015f94       _configure_narrow_argv     0000000180016f94 f   libucrt:argv_parsing.obj
 0001:0001630c       __dcrt_uninitialize_environments_nolock 000000018001730c f   libucrt:environment_initialization.obj
 0001:00016344       _initialize_narrow_environment 0000000180017344 f   libucrt:environment_initialization.obj
 0001:0001668c       _crt_atexit                000000018001768c f   libucrt:onexit.obj
 0001:0001669c       _execute_onexit_table      000000018001769c f   libucrt:onexit.obj
 0001:000166d8       _initialize_onexit_table   00000001800176d8 f   libucrt:onexit.obj
 0001:00016700       _register_onexit_function  0000000180017700 f   libucrt:onexit.obj
 0001:00016780       __acrt_uninitialize_command_line 0000000180017780 f   libucrt:argv_data.obj
 0001:00016878       __acrt_initialize          0000000180017878 f   libucrt:initialization.obj
 0001:0001688c       __acrt_thread_attach       000000018001788c f   libucrt:initialization.obj
 0001:000168a0       __acrt_thread_detach       00000001800178a0 f   libucrt:initialization.obj
 0001:000168b0       __acrt_uninitialize        00000001800178b0 f   libucrt:initialization.obj
 0001:000168e8       __acrt_uninitialize_critical 00000001800178e8 f   libucrt:initialization.obj
 0001:000168f8       _initterm                  00000001800178f8 f   libucrt:initterm.obj
 0001:0001695c       _initterm_e                000000018001795c f   libucrt:initterm.obj
 0001:0001699c       __acrt_initialize_new_handler 000000018001799c f   libucrt:new_handler.obj
 0001:000169a4       _callnewh                  00000001800179a4 f   libucrt:new_handler.obj
 0001:000169d4       _query_new_handler         00000001800179d4 f   libucrt:new_handler.obj
 0001:00016a08       terminate                  0000000180017a08 f   libucrt:terminate.obj
 0001:00016a28       abort                      0000000180017a28 f   libucrt:abort.obj
 0001:00016a80       strcpy_s                   0000000180017a80 f   libucrt:strcpy_s.obj
 0001:00016ae0       ??$parse_integer@KV?$c_string_character_source@_W@__crt_strtox@@@__crt_strtox@@YAKQEAU__crt_locale_pointers@@V?$c_string_character_source@_W@0@H_N@Z 0000000180017ae0 f i libucrt:atox.obj
 0001:000171a0       strncmp                    00000001800181a0 f   libucrt:strncmp.obj
 0001:00017220       wcsncmp                    0000000180018220 f   libucrt:wcsncmp.obj
 0001:0001724c       _free_base                 000000018001824c f   libucrt:free_base.obj
 0001:00017604       __acrt_freeptd             0000000180018604 f   libucrt:per_thread_data.obj
 0001:00017648       __acrt_getptd              0000000180018648 f   libucrt:per_thread_data.obj
 0001:0001771c       __acrt_getptd_head         000000018001871c f   libucrt:per_thread_data.obj
 0001:000177c4       __acrt_getptd_noexit       00000001800187c4 f   libucrt:per_thread_data.obj
 0001:00017890       __acrt_initialize_ptd      0000000180018890 f   libucrt:per_thread_data.obj
 0001:000178cc       __acrt_uninitialize_ptd    00000001800188cc f   libucrt:per_thread_data.obj
 0001:000178f0       _calloc_base               00000001800188f0 f   libucrt:calloc_base.obj
 0001:00017968       _malloc_base               0000000180018968 f   libucrt:malloc_base.obj
 0001:000179c8       _msize_base                00000001800189c8 f   libucrt:msize.obj
 0001:00017a04       _realloc_base              0000000180018a04 f   libucrt:realloc_base.obj
 0001:00017c58       __acrt_AppPolicyGetProcessTerminationMethodInternal 0000000180018c58 f   libucrt:winapi_thunks.obj
 0001:00017ca8       __acrt_AreFileApisANSI     0000000180018ca8 f   libucrt:winapi_thunks.obj
 0001:00017ce4       __acrt_FlsAlloc            0000000180018ce4 f   libucrt:winapi_thunks.obj
 0001:00017d2c       __acrt_FlsFree             0000000180018d2c f   libucrt:winapi_thunks.obj
 0001:00017d74       __acrt_FlsGetValue         0000000180018d74 f   libucrt:winapi_thunks.obj
 0001:00017dbc       __acrt_FlsSetValue         0000000180018dbc f   libucrt:winapi_thunks.obj
 0001:00017e10       __acrt_InitializeCriticalSectionEx 0000000180018e10 f   libucrt:winapi_thunks.obj
 0001:00017e74       __acrt_LCMapStringEx       0000000180018e74 f   libucrt:winapi_thunks.obj
 0001:00017f50       __acrt_LocaleNameToLCID    0000000180018f50 f   libucrt:winapi_thunks.obj
 0001:00017fa0       __acrt_SetThreadStackGuarantee 0000000180018fa0 f   libucrt:winapi_thunks.obj
 0001:00017fe4       __acrt_initialize_winapi_thunks 0000000180018fe4 f   libucrt:winapi_thunks.obj
 0001:00018018       __acrt_uninitialize_winapi_thunks 0000000180019018 f   libucrt:winapi_thunks.obj
 0001:0001805c       wcstol                     000000018001905c f   libucrt:strtox.obj
 0001:00018088       _mbtowc_l                  0000000180019088 f   libucrt:mbtowc.obj
 0001:00018208       mbtowc                     0000000180019208 f   libucrt:mbtowc.obj
 0001:00018210       wcsnlen                    0000000180019210 f   libucrt:strnlen.obj
 0001:000183e8       __acrt_update_locale_info  00000001800193e8 f   libucrt:locale_update.obj
 0001:0001841c       __acrt_update_multibyte_info 000000018001941c f   libucrt:locale_update.obj
 0001:00018e54       __acrt_fp_format           0000000180019e54 f   libucrt:cvt.obj
 0001:0001918c       _fileno                    000000018001a18c f   libucrt:fileno.obj
 0001:000191b4       __acrt_initialize_stdio    000000018001a1b4 f   libucrt:_file.obj
 0001:000192d4       __acrt_uninitialize_stdio  000000018001a2d4 f   libucrt:_file.obj
 0001:00019330       _lock_file                 000000018001a330 f   libucrt:_file.obj
 0001:0001933c       _unlock_file               000000018001a33c f   libucrt:_file.obj
 0001:00019348       _get_printf_count_output   000000018001a348 f   libucrt:printf_count_output.obj
 0001:000193d0       __acrt_set_locale_changed  000000018001a3d0 f   libucrt:wsetlocale.obj
 0001:000193dc       __acrt_uninitialize_locale 000000018001a3dc f   libucrt:wsetlocale.obj
 0001:00019608       __acrt_initialize_lowio    000000018001a608 f   libucrt:ioinit.obj
 0001:00019644       __acrt_uninitialize_lowio  000000018001a644 f   libucrt:ioinit.obj
 0001:00019684       __acrt_initialize_locks    000000018001a684 f   libucrt:locks.obj
 0001:000196cc       __acrt_lock                000000018001a6cc f   libucrt:locks.obj
 0001:000196e8       __acrt_uninitialize_locks  000000018001a6e8 f   libucrt:locks.obj
 0001:00019720       __acrt_unlock              000000018001a720 f   libucrt:locks.obj
 0001:0001973c       __acrt_get_process_end_policy 000000018001a73c f   libucrt:win_policies.obj
 0001:0001978c       ??$__acrt_mbs_to_wcs_cp@U__crt_win32_buffer_internal_dynamic_resizing@@@@YAHQEBDAEAV?$__crt_win32_buffer@_WU__crt_win32_buffer_internal_dynamic_resizing@@@@I@Z 000000018001a78c f i libucrt:argv_wildcards.obj
 0001:00019904       ??$__acrt_wcs_to_mbs_cp@U__crt_win32_buffer_internal_dynamic_resizing@@@@YAHQEB_WAEAV?$__crt_win32_buffer@DU__crt_win32_buffer_internal_dynamic_resizing@@@@I@Z 000000018001a904 f i libucrt:argv_wildcards.obj
 0001:0001a134       __acrt_expand_narrow_argv_wildcards 000000018001b134 f   libucrt:argv_wildcards.obj
 0001:0001a13c       ??$__acrt_wcs_to_mbs_cp@U__crt_win32_buffer_no_resizing@@@@YAHQEB_WAEAV?$__crt_win32_buffer@DU__crt_win32_buffer_no_resizing@@@@I@Z 000000018001b13c f i libucrt:getmodulefilenamea.obj
 0001:0001a250       __acrt_GetModuleFileNameA  000000018001b250 f   libucrt:getmodulefilenamea.obj
 0001:0001aa98       __acrt_initialize_multibyte 000000018001ba98 f   libucrt:mbctype.obj
 0001:0001aaf8       __acrt_update_thread_multibyte_data 000000018001baf8 f   libucrt:mbctype.obj
 0001:0001ab14       _setmbcp_nolock            000000018001bb14 f   libucrt:mbctype.obj
 0001:0001ae48       _ismbblead                 000000018001be48 f   libucrt:ismbbyte.obj
 0001:0001ae5c       __acrt_initialize_command_line 000000018001be5c f   libucrt:argv_data.obj
 0001:0001ae84       __acrt_MultiByteToWideChar 000000018001be84 f   libucrt:multibytetowidechar.obj
 0001:0001aee0       __acrt_WideCharToMultiByte 000000018001bee0 f   libucrt:widechartomultibyte.obj
 0001:0001af90       __dcrt_get_narrow_environment_from_os 000000018001bf90 f   libucrt:get_environment_from_os.obj
 0001:0001b094       __acrt_initialize_heap     000000018001c094 f   libucrt:heap_handle.obj
 0001:0001b0b0       __acrt_uninitialize_heap   000000018001c0b0 f   libucrt:heap_handle.obj
 0001:0001b0bc       __acrt_execute_initializers 000000018001c0bc f   libucrt:shared_initialization.obj
 0001:0001b13c       __acrt_execute_uninitializers 000000018001c13c f   libucrt:shared_initialization.obj
 0001:0001b1c0       __acrt_get_sigabrt_handler 000000018001c1c0 f   libucrt:signal.obj
 0001:0001b1f0       __acrt_initialize_signal_handlers 000000018001c1f0 f   libucrt:signal.obj
 0001:0001b210       raise                      000000018001c210 f   libucrt:signal.obj
 0001:0001b47c       __acrt_has_user_matherr    000000018001c47c f   libucrt:matherr.obj
 0001:0001b49c       __acrt_initialize_user_matherr 000000018001c49c f   libucrt:matherr.obj
 0001:0001b4a4       __acrt_invoke_user_matherr 000000018001c4a4 f   libucrt:matherr.obj
 0001:0001b6b0       __acrt_stdio_flush_nolock  000000018001c6b0 f   libucrt:fflush.obj
 0001:0001b72c       _fflush_nolock             000000018001c72c f   libucrt:fflush.obj
 0001:0001b778       _flushall                  000000018001c778 f   libucrt:fflush.obj
 0001:0001b780       __pctype_func              000000018001c780 f   libucrt:ctype.obj
 0001:0001b7b0       iswctype                   000000018001c7b0 f   libucrt:iswctype.obj
 0001:0001b81c       __acrt_add_locale_ref      000000018001c81c f   libucrt:locale_refcounting.obj
 0001:0001b8a8       __acrt_free_locale         000000018001c8a8 f   libucrt:locale_refcounting.obj
 0001:0001ba20       __acrt_locale_add_lc_time_reference 000000018001ca20 f   libucrt:locale_refcounting.obj
 0001:0001ba48       __acrt_locale_free_lc_time_if_unreferenced 000000018001ca48 f   libucrt:locale_refcounting.obj
 0001:0001ba80       __acrt_locale_release_lc_time_reference 000000018001ca80 f   libucrt:locale_refcounting.obj
 0001:0001baa8       __acrt_release_locale_ref  000000018001caa8 f   libucrt:locale_refcounting.obj
 0001:0001bb50       __acrt_update_thread_locale_data 000000018001cb50 f   libucrt:locale_refcounting.obj
 0001:0001bbc0       _updatetlocinfoEx_nolock   000000018001cbc0 f   libucrt:locale_refcounting.obj
 0001:0001bc28       _query_new_mode            000000018001cc28 f   libucrt:new_mode.obj
 0001:0001bc30       __acrt_DownlevelLocaleNameToLCID 000000018001cc30 f   libucrt:lcidtoname_downlevel.obj
 0001:0001bce0       _isleadbyte_l              000000018001cce0 f i libucrt:_wctype.obj
 0001:0001bd2c       ?__mbrtowc_utf8@__crt_mbstring@@YA_KPEA_WPEBD_KPEAU_Mbstatet@@@Z 000000018001cd2c f   libucrt:mbrtowc.obj
 0001:0001bd68       ?__mbsrtowcs_utf8@__crt_mbstring@@YA_KPEA_WPEAPEBD_KPEAU_Mbstatet@@@Z 000000018001cd68 f   libucrt:mbrtowc.obj
 0001:0001bee0       __acrt_fp_strflt_to_string 000000018001cee0 f   libucrt:_fptostr.obj
 0001:0001c030       ?divide@__crt_strtox@@YA_KAEAUbig_integer@1@AEBU21@@Z 000000018001d030 f i libucrt:cfout.obj
 0001:0001c45c       __acrt_fltout              000000018001d45c f   libucrt:cfout.obj
 0001:0001d728       fegetround                 000000018001e728 f   libucrt:fegetround.obj
 0001:0001d73c       _fcloseall                 000000018001e73c f   libucrt:closeall.obj
 0001:0001d7f0       __acrt_stdio_free_buffer_nolock 000000018001e7f0 f   libucrt:_freebuf.obj
 0001:0001d830       _isatty                    000000018001e830 f   libucrt:isatty.obj
 0001:0001d890       __acrt_locale_free_monetary 000000018001e890 f   libucrt:initmon.obj
 0001:0001d99c       __acrt_locale_free_numeric 000000018001e99c f   libucrt:initnum.obj
 0001:0001da60       __acrt_locale_free_time    000000018001ea60 f   libucrt:inittime.obj
 0001:0001db68       __acrt_GetStringTypeA      000000018001eb68 f   libucrt:getstringtypea.obj
 0001:0001dcf8       __acrt_lowio_create_handle_array 000000018001ecf8 f   libucrt:osfinfo.obj
 0001:0001dda0       __acrt_lowio_destroy_handle_array 000000018001eda0 f   libucrt:osfinfo.obj
 0001:0001ddf0       __acrt_lowio_ensure_fh_exists 000000018001edf0 f   libucrt:osfinfo.obj
 0001:0001de98       __acrt_lowio_lock_fh       000000018001ee98 f   libucrt:osfinfo.obj
 0001:0001dec0       __acrt_lowio_unlock_fh     000000018001eec0 f   libucrt:osfinfo.obj
 0001:0001dee8       _free_osfhnd               000000018001eee8 f   libucrt:osfinfo.obj
 0001:0001dfa4       _get_osfhandle             000000018001efa4 f   libucrt:osfinfo.obj
 0001:0001e020       qsort                      000000018001f020 f   libucrt:qsort.obj
 0001:0001e3c0       strncpy_s                  000000018001f3c0 f   libucrt:strncpy_s.obj
 0001:0001e540       strpbrk                    000000018001f540 f   libucrt:strpbrk.obj
 0001:0001e908       _mbsdec                    000000018001f908 f   libucrt:mbsdec.obj
 0001:0001e910       _mbsdec_l                  000000018001f910 f   libucrt:mbsdec.obj
 0001:0001ecbc       __acrt_LCMapStringA        000000018001fcbc f   libucrt:lcmapstringa.obj
 0001:0001edf8       _commit                    000000018001fdf8 f   libucrt:commit.obj
 0001:0001f708       _write                     0000000180020708 f   libucrt:write.obj
 0001:0001f7f4       _write_nolock              00000001800207f4 f   libucrt:write.obj
 0001:0001fad8       __acrt_GetStringTypeW      0000000180020ad8 f   libucrt:getstringtypew.obj
 0001:0001fae0       __ascii_wcsnicmp           0000000180020ae0 f   libucrt:wcsnicmp.obj
 0001:0001fb2c       ?__mbrtoc32_utf8@__crt_mbstring@@YA_KPEA_UPEBD_KPEAU_Mbstatet@@@Z 0000000180020b2c f   libucrt:mbrtoc32.obj
 0001:0001fd04       _controlfp_s               0000000180020d04 f   libucrt:contrlfp.obj
 0001:0001fd68       fegetenv                   0000000180020d68 f   libucrt:fegetenv.obj
 0001:0001fd88       fesetenv                   0000000180020d88 f   libucrt:fesetenv.obj
 0001:0001fdd4       feholdexcept               0000000180020dd4 f   libucrt:feholdexcept.obj
 0001:0001fe24       ceil                       0000000180020e24 f   libucrt:ceil.obj
 0001:0001fef0       log10                      0000000180020ef0 f   libucrt:log10.obj
 0001:0002049c       __acrt_fenv_get_common_round_control 000000018002149c f   libucrt:_fenvutils.obj
 0001:000204a8       __acrt_fenv_get_control    00000001800214a8 f   libucrt:_fenvutils.obj
 0001:0002059c       __acrt_fenv_get_status     000000018002159c f   libucrt:_fenvutils.obj
 0001:000205f0       __acrt_fenv_set_control    00000001800215f0 f   libucrt:_fenvutils.obj
 0001:00020738       __acrt_fenv_set_status     0000000180021738 f   libucrt:_fenvutils.obj
 0001:00020858       _lseeki64_nolock           0000000180021858 f   libucrt:lseek.obj
 0001:00020860       _fclose_nolock             0000000180021860 f   libucrt:fclose.obj
 0001:000208e4       fclose                     00000001800218e4 f   libucrt:fclose.obj
 0001:00020948       _query_app_type            0000000180021948 f   libucrt:report_runtime_error.obj
 0001:00020950       __strncnt                  0000000180021950 f   libucrt:strncnt.obj
 0001:00020968       _putwch_nolock             0000000180021968 f   libucrt:putwch.obj
 0001:000209a4       _clearfp                   00000001800219a4 f   libucrt:ieee.obj
 0001:00020a14       _control87                 0000000180021a14 f   libucrt:ieee.obj
 0001:00020e00       _handle_error              0000000180021e00 f   libucrt:libm_error.obj
 0001:00020f28       _handle_nan                0000000180021f28 f   libucrt:libm_error.obj
 0001:00020f50       __acrt_initialize_fma3     0000000180021f50 f   libucrt:fma3_available.obj
 0001:00020fc0       _log10_special             0000000180021fc0 f   libucrt:log_special.obj
 0001:000210ec       _close                     00000001800220ec f   libucrt:close.obj
 0001:00021190       _close_nolock              0000000180022190 f   libucrt:close.obj
 0001:00021250       ?__acrt_stdio_free_stream@@YAXV__crt_stdio_stream@@@Z 0000000180022250 f   libucrt:stream.obj
 0001:0002126c       __dcrt_lowio_ensure_console_output_initialized 000000018002226c f   libucrt:initcon.obj
 0001:000212c0       __dcrt_terminate_console_output 00000001800222c0 f   libucrt:initcon.obj
 0001:000212dc       __dcrt_write_console       00000001800222dc f   libucrt:initcon.obj
 0001:000213b0       _get_fpsr                  00000001800223b0 f   libucrt:fpsr.obj
 0001:000213c0       _set_fpsr                  00000001800223c0 f   libucrt:fpsr.obj
 0001:000213ca       _fclrf                     00000001800223ca f   libucrt:fpsr.obj
 0001:000213de       _frnd                      00000001800223de f   libucrt:fpsr.obj
 0001:00021400       _raise_exc                 0000000180022400 f   libucrt:fpexcept.obj
 0001:00021428       _raise_exc_ex              0000000180022428 f   libucrt:fpexcept.obj
 0001:00021738       _set_errno_from_matherr    0000000180022738 f   libucrt:fpexcept.obj
 0001:00021768       _clrfp                     0000000180022768 f   libucrt:fpctrl.obj
 0001:00021788       _ctrlfp                    0000000180022788 f   libucrt:fpctrl.obj
 0001:00021804       _set_statfp                0000000180022804 f   libucrt:fpctrl.obj
 0001:00021824       _statfp                    0000000180022824 f   libucrt:fpctrl.obj
 0001:00021835       IsProcessorFeaturePresent  0000000180022835 f   kernel32:KERNEL32.dll
 0001:00021840       _FindPESection             0000000180022840 f   LIBCMT:pesect.obj
 0001:00021890       _IsNonwritableInCurrentImage 0000000180022890 f   LIBCMT:pesect.obj
 0001:000218e0       _ValidateImageBase         00000001800228e0 f   LIBCMT:pesect.obj
 0001:00021910       strrchr                    0000000180022910 f   libvcruntime:strrchr.obj
 0001:00021a50       _guard_dispatch_icall_nop  0000000180022a50 f   LIBCMT:guard_dispatch.obj
 0001:00021a70       _guard_xfg_dispatch_icall_nop 0000000180022a70 f   LIBCMT:guard_xfg_dispatch.obj
 0002:00000000       __imp_RegQueryValueExW     0000000180023000     advapi32:ADVAPI32.dll
 0002:00000008       __imp_RegSetValueExW       0000000180023008     advapi32:ADVAPI32.dll
 0002:00000010       __imp_RegQueryInfoKeyW     0000000180023010     advapi32:ADVAPI32.dll
 0002:00000018       __imp_RegOpenKeyExW        0000000180023018     advapi32:ADVAPI32.dll
 0002:00000020       __imp_RegEnumKeyExW        0000000180023020     advapi32:ADVAPI32.dll
 0002:00000028       __imp_RegDeleteValueW      0000000180023028     advapi32:ADVAPI32.dll
 0002:00000030       __imp_RegDeleteKeyW        0000000180023030     advapi32:ADVAPI32.dll
 0002:00000038       __imp_RegCreateKeyExW      0000000180023038     advapi32:ADVAPI32.dll
 0002:00000040       __imp_RegCloseKey          0000000180023040     advapi32:ADVAPI32.dll
 0002:00000048       \177ADVAPI32_NULL_THUNK_DATA 0000000180023048     advapi32:ADVAPI32.dll
 0002:00000050       __imp_GetObjectW           0000000180023050     gdi32:GDI32.dll
 0002:00000058       __imp_SelectObject         0000000180023058     gdi32:GDI32.dll
 0002:00000060       __imp_DeleteObject         0000000180023060     gdi32:GDI32.dll
 0002:00000068       __imp_CreateCompatibleDC   0000000180023068     gdi32:GDI32.dll
 0002:00000070       __imp_BitBlt               0000000180023070     gdi32:GDI32.dll
 0002:00000078       __imp_SetWindowOrgEx       0000000180023078     gdi32:GDI32.dll
 0002:00000080       __imp_SetWindowExtEx       0000000180023080     gdi32:GDI32.dll
 0002:00000088       __imp_SetViewportOrgEx     0000000180023088     gdi32:GDI32.dll
 0002:00000090       __imp_LPtoDP               0000000180023090     gdi32:GDI32.dll
 0002:00000098       __imp_SetMapMode           0000000180023098     gdi32:GDI32.dll
 0002:000000a0       __imp_SaveDC               00000001800230a0     gdi32:GDI32.dll
 0002:000000a8       __imp_RestoreDC            00000001800230a8     gdi32:GDI32.dll
 0002:000000b0       __imp_GetDeviceCaps        00000001800230b0     gdi32:GDI32.dll
 0002:000000b8       __imp_DeleteMetaFile       00000001800230b8     gdi32:GDI32.dll
 0002:000000c0       __imp_DeleteDC             00000001800230c0     gdi32:GDI32.dll
 0002:000000c8       __imp_CreateRectRgnIndirect 00000001800230c8     gdi32:GDI32.dll
 0002:000000d0       __imp_CreateMetaFileW      00000001800230d0     gdi32:GDI32.dll
 0002:000000d8       __imp_CreateDCW            00000001800230d8     gdi32:GDI32.dll
 0002:000000e0       __imp_CloseMetaFile        00000001800230e0     gdi32:GDI32.dll
 0002:000000e8       \177GDI32_NULL_THUNK_DATA  00000001800230e8     gdi32:GDI32.dll
 0002:000000f0       __imp_CloseHandle          00000001800230f0     kernel32:KERNEL32.dll
 0002:000000f8       __imp_SetEvent             00000001800230f8     kernel32:KERNEL32.dll
 0002:00000100       __imp_CreateMutexW         0000000180023100     kernel32:KERNEL32.dll
 0002:00000108       __imp_CreateEventW         0000000180023108     kernel32:KERNEL32.dll
 0002:00000110       __imp_GetCurrentProcessId  0000000180023110     kernel32:KERNEL32.dll
 0002:00000118       __imp_WriteConsoleW        0000000180023118     kernel32:KERNEL32.dll
 0002:00000120       __imp_CreateFileW          0000000180023120     kernel32:KERNEL32.dll
 0002:00000128       __imp_GetConsoleMode       0000000180023128     kernel32:KERNEL32.dll
 0002:00000130       __imp_GetConsoleOutputCP   0000000180023130     kernel32:KERNEL32.dll
 0002:00000138       __imp_WriteFile            0000000180023138     kernel32:KERNEL32.dll
 0002:00000140       __imp_FlushFileBuffers     0000000180023140     kernel32:KERNEL32.dll
 0002:00000148       __imp_SetStdHandle         0000000180023148     kernel32:KERNEL32.dll
 0002:00000150       __imp_GetStringTypeW       0000000180023150     kernel32:KERNEL32.dll
 0002:00000158       __imp_SetFilePointerEx     0000000180023158     kernel32:KERNEL32.dll
 0002:00000160       __imp_FreeEnvironmentStringsW 0000000180023160     kernel32:KERNEL32.dll
 0002:00000168       __imp_lstrcmpiW            0000000180023168     kernel32:KERNEL32.dll
 0002:00000170       __imp_GetCommandLineW      0000000180023170     kernel32:KERNEL32.dll
 0002:00000178       __imp_GetCommandLineA      0000000180023178     kernel32:KERNEL32.dll
 0002:00000180       __imp_GetCPInfo            0000000180023180     kernel32:KERNEL32.dll
 0002:00000188       __imp_GetOEMCP             0000000180023188     kernel32:KERNEL32.dll
 0002:00000190       __imp_GetACP               0000000180023190     kernel32:KERNEL32.dll
 0002:00000198       __imp_IsValidCodePage      0000000180023198     kernel32:KERNEL32.dll
 0002:000001a0       __imp_FindNextFileW        00000001800231a0     kernel32:KERNEL32.dll
 0002:000001a8       __imp_FindFirstFileExW     00000001800231a8     kernel32:KERNEL32.dll
 0002:000001b0       __imp_FindClose            00000001800231b0     kernel32:KERNEL32.dll
 0002:000001b8       __imp_GetFileType          00000001800231b8     kernel32:KERNEL32.dll
 0002:000001c0       __imp_GetStdHandle         00000001800231c0     kernel32:KERNEL32.dll
 0002:000001c8       __imp_LCMapStringW         00000001800231c8     kernel32:KERNEL32.dll
 0002:000001d0       __imp_HeapReAlloc          00000001800231d0     kernel32:KERNEL32.dll
 0002:000001d8       __imp_HeapSize             00000001800231d8     kernel32:KERNEL32.dll
 0002:000001e0       __imp_MulDiv               00000001800231e0     kernel32:KERNEL32.dll
 0002:000001e8       __imp_GlobalLock           00000001800231e8     kernel32:KERNEL32.dll
 0002:000001f0       __imp_GlobalUnlock         00000001800231f0     kernel32:KERNEL32.dll
 0002:000001f8       __imp_GlobalAlloc          00000001800231f8     kernel32:KERNEL32.dll
 0002:00000200       __imp_FindResourceW        0000000180023200     kernel32:KERNEL32.dll
 0002:00000208       __imp_SizeofResource       0000000180023208     kernel32:KERNEL32.dll
 0002:00000210       __imp_LoadResource         0000000180023210     kernel32:KERNEL32.dll
 0002:00000218       __imp_LoadLibraryExW       0000000180023218     kernel32:KERNEL32.dll
 0002:00000220       __imp_GetProcAddress       0000000180023220     kernel32:KERNEL32.dll
 0002:00000228       __imp_GetModuleHandleW     0000000180023228     kernel32:KERNEL32.dll
 0002:00000230       __imp_GetModuleFileNameW   0000000180023230     kernel32:KERNEL32.dll
 0002:00000238       __imp_FreeLibrary          0000000180023238     kernel32:KERNEL32.dll
 0002:00000240       __imp_DisableThreadLibraryCalls 0000000180023240     kernel32:KERNEL32.dll
 0002:00000248       __imp_GetCurrentThreadId   0000000180023248     kernel32:KERNEL32.dll
 0002:00000250       __imp_Sleep                0000000180023250     kernel32:KERNEL32.dll
 0002:00000258       __imp_WaitForSingleObject  0000000180023258     kernel32:KERNEL32.dll
 0002:00000260       __imp_ReleaseMutex         0000000180023260     kernel32:KERNEL32.dll
 0002:00000268       __imp_ResetEvent           0000000180023268     kernel32:KERNEL32.dll
 0002:00000270       __imp_EnterCriticalSection 0000000180023270     kernel32:KERNEL32.dll
 0002:00000278       __imp_LeaveCriticalSection 0000000180023278     kernel32:KERNEL32.dll
 0002:00000280       __imp_SetLastError         0000000180023280     kernel32:KERNEL32.dll
 0002:00000288       __imp_EncodePointer        0000000180023288     kernel32:KERNEL32.dll
 0002:00000290       __imp_DeleteCriticalSection 0000000180023290     kernel32:KERNEL32.dll
 0002:00000298       __imp_InitializeCriticalSectionEx 0000000180023298     kernel32:KERNEL32.dll
 0002:000002a0       __imp_GetLastError         00000001800232a0     kernel32:KERNEL32.dll
 0002:000002a8       __imp_RaiseException       00000001800232a8     kernel32:KERNEL32.dll
 0002:000002b0       __imp_DecodePointer        00000001800232b0     kernel32:KERNEL32.dll
 0002:000002b8       __imp_WideCharToMultiByte  00000001800232b8     kernel32:KERNEL32.dll
 0002:000002c0       __imp_GetEnvironmentStringsW 00000001800232c0     kernel32:KERNEL32.dll
 0002:000002c8       __imp_MultiByteToWideChar  00000001800232c8     kernel32:KERNEL32.dll
 0002:000002d0       __imp_GetModuleHandleExW   00000001800232d0     kernel32:KERNEL32.dll
 0002:000002d8       __imp_ExitProcess          00000001800232d8     kernel32:KERNEL32.dll
 0002:000002e0       __imp_VirtualQuery         00000001800232e0     kernel32:KERNEL32.dll
 0002:000002e8       __imp_VirtualProtect       00000001800232e8     kernel32:KERNEL32.dll
 0002:000002f0       __imp_GetSystemInfo        00000001800232f0     kernel32:KERNEL32.dll
 0002:000002f8       __imp_TlsFree              00000001800232f8     kernel32:KERNEL32.dll
 0002:00000300       __imp_TlsSetValue          0000000180023300     kernel32:KERNEL32.dll
 0002:00000308       __imp_TlsGetValue          0000000180023308     kernel32:KERNEL32.dll
 0002:00000310       __imp_TlsAlloc             0000000180023310     kernel32:KERNEL32.dll
 0002:00000318       __imp_RtlPcToFileHeader    0000000180023318     kernel32:KERNEL32.dll
 0002:00000320       __imp_InterlockedFlushSList 0000000180023320     kernel32:KERNEL32.dll
 0002:00000328       __imp_RtlUnwindEx          0000000180023328     kernel32:KERNEL32.dll
 0002:00000330       __imp_LoadLibraryExA       0000000180023330     kernel32:KERNEL32.dll
 0002:00000338       __imp_VirtualFree          0000000180023338     kernel32:KERNEL32.dll
 0002:00000340       __imp_VirtualAlloc         0000000180023340     kernel32:KERNEL32.dll
 0002:00000348       __imp_FlushInstructionCache 0000000180023348     kernel32:KERNEL32.dll
 0002:00000350       __imp_InterlockedPushEntrySList 0000000180023350     kernel32:KERNEL32.dll
 0002:00000358       __imp_InterlockedPopEntrySList 0000000180023358     kernel32:KERNEL32.dll
 0002:00000360       __imp_GetProcessHeap       0000000180023360     kernel32:KERNEL32.dll
 0002:00000368       __imp_HeapFree             0000000180023368     kernel32:KERNEL32.dll
 0002:00000370       __imp_HeapAlloc            0000000180023370     kernel32:KERNEL32.dll
 0002:00000378       __imp_OutputDebugStringW   0000000180023378     kernel32:KERNEL32.dll
 0002:00000380       __imp_InitializeSListHead  0000000180023380     kernel32:KERNEL32.dll
 0002:00000388       __imp_GetSystemTimeAsFileTime 0000000180023388     kernel32:KERNEL32.dll
 0002:00000390       __imp_QueryPerformanceCounter 0000000180023390     kernel32:KERNEL32.dll
 0002:00000398       __imp_GetStartupInfoW      0000000180023398     kernel32:KERNEL32.dll
 0002:000003a0       __imp_IsDebuggerPresent    00000001800233a0     kernel32:KERNEL32.dll
 0002:000003a8       __imp_IsProcessorFeaturePresent 00000001800233a8     kernel32:KERNEL32.dll
 0002:000003b0       __imp_TerminateProcess     00000001800233b0     kernel32:KERNEL32.dll
 0002:000003b8       __imp_GetCurrentProcess    00000001800233b8     kernel32:KERNEL32.dll
 0002:000003c0       __imp_InitializeCriticalSectionAndSpinCount 00000001800233c0     kernel32:KERNEL32.dll
 0002:000003c8       __imp_WaitForSingleObjectEx 00000001800233c8     kernel32:KERNEL32.dll
 0002:000003d0       __imp_RtlCaptureContext    00000001800233d0     kernel32:KERNEL32.dll
 0002:000003d8       __imp_RtlLookupFunctionEntry 00000001800233d8     kernel32:KERNEL32.dll
 0002:000003e0       __imp_RtlVirtualUnwind     00000001800233e0     kernel32:KERNEL32.dll
 0002:000003e8       __imp_UnhandledExceptionFilter 00000001800233e8     kernel32:KERNEL32.dll
 0002:000003f0       __imp_SetUnhandledExceptionFilter 00000001800233f0     kernel32:KERNEL32.dll
 0002:000003f8       \177KERNEL32_NULL_THUNK_DATA 00000001800233f8     kernel32:KERNEL32.dll
 0002:00000400       __imp_OleCreatePropertyFrame 0000000180023400     oleaut32:OLEAUT32.dll
 0002:00000408       __imp_UnRegisterTypeLib    0000000180023408     oleaut32:OLEAUT32.dll
 0002:00000410       __imp_RegisterTypeLib      0000000180023410     oleaut32:OLEAUT32.dll
 0002:00000418       __imp_LoadRegTypeLib       0000000180023418     oleaut32:OLEAUT32.dll
 0002:00000420       __imp_LoadTypeLib          0000000180023420     oleaut32:OLEAUT32.dll
 0002:00000428       __imp_VarUI4FromStr        0000000180023428     oleaut32:OLEAUT32.dll
 0002:00000430       __imp_VariantInit          0000000180023430     oleaut32:OLEAUT32.dll
 0002:00000438       __imp_SysAllocStringByteLen 0000000180023438     oleaut32:OLEAUT32.dll
 0002:00000440       __imp_SysStringByteLen     0000000180023440     oleaut32:OLEAUT32.dll
 0002:00000448       __imp_VariantChangeType    0000000180023448     oleaut32:OLEAUT32.dll
 0002:00000450       __imp_VariantClear         0000000180023450     oleaut32:OLEAUT32.dll
 0002:00000458       __imp_SysStringLen         0000000180023458     oleaut32:OLEAUT32.dll
 0002:00000460       __imp_SysFreeString        0000000180023460     oleaut32:OLEAUT32.dll
 0002:00000468       __imp_SysAllocStringLen    0000000180023468     oleaut32:OLEAUT32.dll
 0002:00000470       __imp_SysAllocString       0000000180023470     oleaut32:OLEAUT32.dll
 0002:00000478       \177OLEAUT32_NULL_THUNK_DATA 0000000180023478     oleaut32:OLEAUT32.dll
 0002:00000480       __imp_UnregisterClassW     0000000180023480     user32:USER32.dll
 0002:00000488       __imp_PostMessageW         0000000180023488     user32:USER32.dll
 0002:00000490       __imp_DefWindowProcW       0000000180023490     user32:USER32.dll
 0002:00000498       __imp_CallWindowProcW      0000000180023498     user32:USER32.dll
 0002:000004a0       __imp_RegisterClassExW     00000001800234a0     user32:USER32.dll
 0002:000004a8       __imp_GetClassInfoExW      00000001800234a8     user32:USER32.dll
 0002:000004b0       __imp_CreateWindowExW      00000001800234b0     user32:USER32.dll
 0002:000004b8       __imp_IsWindow             00000001800234b8     user32:USER32.dll
 0002:000004c0       __imp_IsChild              00000001800234c0     user32:USER32.dll
 0002:000004c8       __imp_DestroyWindow        00000001800234c8     user32:USER32.dll
 0002:000004d0       __imp_ShowWindow           00000001800234d0     user32:USER32.dll
 0002:000004d8       __imp_SetWindowPos         00000001800234d8     user32:USER32.dll
 0002:000004e0       __imp_CharNextW            00000001800234e0     user32:USER32.dll
 0002:000004e8       __imp_SetFocus             00000001800234e8     user32:USER32.dll
 0002:000004f0       __imp_LoadBitmapW          00000001800234f0     user32:USER32.dll
 0002:000004f8       __imp_RegisterClassW       00000001800234f8     user32:USER32.dll
 0002:00000500       __imp_PeekMessageW         0000000180023500     user32:USER32.dll
 0002:00000508       __imp_LoadCursorW          0000000180023508     user32:USER32.dll
 0002:00000510       __imp_GetParent            0000000180023510     user32:USER32.dll
 0002:00000518       __imp_SetWindowLongPtrW    0000000180023518     user32:USER32.dll
 0002:00000520       __imp_GetWindowLongPtrW    0000000180023520     user32:USER32.dll
 0002:00000528       __imp_PtInRect             0000000180023528     user32:USER32.dll
 0002:00000530       __imp_EqualRect            0000000180023530     user32:USER32.dll
 0002:00000538       __imp_OffsetRect           0000000180023538     user32:USER32.dll
 0002:00000540       __imp_UnionRect            0000000180023540     user32:USER32.dll
 0002:00000548       __imp_IntersectRect        0000000180023548     user32:USER32.dll
 0002:00000550       __imp_GetClientRect        0000000180023550     user32:USER32.dll
 0002:00000558       __imp_InvalidateRect       0000000180023558     user32:USER32.dll
 0002:00000560       __imp_SetWindowRgn         0000000180023560     user32:USER32.dll
 0002:00000568       __imp_EndPaint             0000000180023568     user32:USER32.dll
 0002:00000570       __imp_BeginPaint           0000000180023570     user32:USER32.dll
 0002:00000578       __imp_ReleaseDC            0000000180023578     user32:USER32.dll
 0002:00000580       __imp_GetDC                0000000180023580     user32:USER32.dll
 0002:00000588       __imp_GetKeyState          0000000180023588     user32:USER32.dll
 0002:00000590       __imp_GetFocus             0000000180023590     user32:USER32.dll
 0002:00000598       \177USER32_NULL_THUNK_DATA 0000000180023598     user32:USER32.dll
 0002:000005a0       __imp_CoCreateInstance     00000001800235a0     ole32:ole32.dll
 0002:000005a8       __imp_StringFromGUID2      00000001800235a8     ole32:ole32.dll
 0002:000005b0       __imp_CoTaskMemAlloc       00000001800235b0     ole32:ole32.dll
 0002:000005b8       __imp_CoTaskMemFree        00000001800235b8     ole32:ole32.dll
 0002:000005c0       __imp_ReadClassStm         00000001800235c0     ole32:ole32.dll
 0002:000005c8       __imp_WriteClassStm        00000001800235c8     ole32:ole32.dll
 0002:000005d0       __imp_CreateDataAdviseHolder 00000001800235d0     ole32:ole32.dll
 0002:000005d8       __imp_OleSaveToStream      00000001800235d8     ole32:ole32.dll
 0002:000005e0       __imp_CreateOleAdviseHolder 00000001800235e0     ole32:ole32.dll
 0002:000005e8       __imp_OleRegGetUserType    00000001800235e8     ole32:ole32.dll
 0002:000005f0       __imp_OleRegGetMiscStatus  00000001800235f0     ole32:ole32.dll
 0002:000005f8       __imp_OleRegEnumVerbs      00000001800235f8     ole32:ole32.dll
 0002:00000600       __imp_CLSIDFromProgID      0000000180023600     ole32:ole32.dll
 0002:00000608       __imp_CoTaskMemRealloc     0000000180023608     ole32:ole32.dll
 0002:00000610       \177ole32_NULL_THUNK_DATA  0000000180023610     ole32:ole32.dll
 0002:00000618       __guard_check_icall_fptr   0000000180023618     LIBCMT:guard_support.obj
 0002:00000620       __guard_xfg_check_icall_fptr 0000000180023620     LIBCMT:guard_support.obj
 0002:00000628       __guard_dispatch_icall_fptr 0000000180023628     LIBCMT:guard_support.obj
 0002:00000630       __guard_xfg_dispatch_icall_fptr 0000000180023630     LIBCMT:guard_support.obj
 0002:00000638       __guard_xfg_table_dispatch_icall_fptr 0000000180023638     LIBCMT:guard_support.obj
 0002:00000640       __xc_a                     0000000180023640     LIBCMT:initializers.obj
 0002:00000670       __xc_z                     0000000180023670     LIBCMT:initializers.obj
 0002:00000678       __xi_a                     0000000180023678     LIBCMT:initializers.obj
 0002:00000688       __acrt_stdio_initializer   0000000180023688     libucrt:stdio_initializer.obj
 0002:00000690       __acrt_multibyte_initializer 0000000180023690     libucrt:multibyte_initializer.obj
 0002:00000698       __acrt_tran_fma3_initializer 0000000180023698     libucrt:fma3_initializer.obj
 0002:000006a0       __xi_z                     00000001800236a0     LIBCMT:initializers.obj
 0002:000006a8       __xl_a                     00000001800236a8     LIBCMT:tlssup.obj
 0002:000006b0       __xl_z                     00000001800236b0     LIBCMT:tlssup.obj
 0002:000006b8       __xp_a                     00000001800236b8     LIBCMT:initializers.obj
 0002:000006c0       __acrt_locale_terminator   00000001800236c0     libucrt:locale_initializer.obj
 0002:000006c8       __dcrt_console_output_terminator 00000001800236c8     libucrt:console_output_initializer.obj
 0002:000006d0       __acrt_stdio_terminator    00000001800236d0     libucrt:stdio_initializer.obj
 0002:000006d8       __xp_z                     00000001800236d8     LIBCMT:initializers.obj
 0002:000006e0       __xt_a                     00000001800236e0     LIBCMT:initializers.obj
 0002:000006e8       __xt_z                     00000001800236e8     LIBCMT:initializers.obj
 0002:000006f0       ??_C@_13HADIAKP@?$AAS@     00000001800236f0     OposVariant.obj
 0002:000006f4       ??_C@_13LHMFKAAD@?$AAM@    00000001800236f4     OposVariant.obj
 0002:000006f8       ??_C@_13MKMNOPIJ@?$AAD@    00000001800236f8     OposVariant.obj
 0002:000006fc       ??_C@_13OPKGLAFF@?$AAB@    00000001800236fc     OposVariant.obj
 0002:00000700       ??_C@_17LLMMEOJD@?$AAV?$AAa?$AAl@ 0000000180023700     OposVariant.obj
 0002:00000708       ??_C@_1BI@JFAIJMHL@?$AAF?$AAo?$AAr?$AAc?$AAe?$AAR?$AAe?$AAm?$AAo?$AAv?$AAe@ 0000000180023708     OposVariant.obj
 0002:00000720       ??_C@_1BC@GCKHIPE@?$AAN?$AAo?$AAR?$AAe?$AAm?$AAo?$AAv?$AAe@ 0000000180023720     OposVariant.obj
 0002:00000738       ??_C@_1O@JDLOHAN@?$AAD?$AAe?$AAl?$AAe?$AAt?$AAe@ 0000000180023738     OposVariant.obj
 0002:00000748       ??_C@_11LOCGONAA@@         0000000180023748     OposVariant.obj
 0002:00000750       IID_IOPOSCheckScanner_1_7  0000000180023750     CheckScanner.obj
 0002:00000760       IID_IOPOSCheckScanner_1_8  0000000180023760     CheckScanner.obj
 0002:00000770       IID_IOPOSCheckScanner_1_9  0000000180023770     CheckScanner.obj
 0002:00000780       IID_IOPOSCheckScanner_1_10 0000000180023780     CheckScanner.obj
 0002:00000790       IID_IOPOSCheckScanner      0000000180023790     CheckScanner.obj
 0002:000007a0       LIBID_OposCheckScanner_CCO 00000001800237a0     CheckScanner.obj
 0002:000007b0       DIID__IOPOSCheckScannerEvents 00000001800237b0     CheckScanner.obj
 0002:000007c0       CLSID_OPOSCheckScanner     00000001800237c0     CheckScanner.obj
 0002:000007d0       _GUID_00000114_0000_0000_c000_000000000046 00000001800237d0     CheckScanner.obj
 0002:000007e0       ??_C@_1BK@BIGILECK@?$AAA?$AAd?$AAv?$AAa?$AAp?$AAi?$AA3?$AA2?$AA?4?$AAd?$AAl?$AAl@ 00000001800237e0     CheckScanner.obj
 0002:00000800       ??_C@_0BI@MNCFCPFK@RegCreateKeyTransactedW@ 0000000180023800     CheckScanner.obj
 0002:00000818       _GUID_b196b287_bab4_101a_b69c_00aa00341d07 0000000180023818     CheckScanner.obj
 0002:00000828       _GUID_b196b285_bab4_101a_b69c_00aa00341d07 0000000180023828     CheckScanner.obj
 0002:00000838       _GUID_a6bc3ac0_dbaa_11ce_9de3_00aa004bb851 0000000180023838     CheckScanner.obj
 0002:00000848       _GUID_0000010c_0000_0000_c000_000000000046 0000000180023848     CheckScanner.obj
 0002:00000860       ?_entries@?1??_GetEntries@COPOSCheckScanner@@SAPEBU_ATL_INTMAP_ENTRY@ATL@@XZ@4QBU34@B 0000000180023860     CheckScanner.obj
 0002:00000ae8       _GUID_00000146_0000_0000_c000_000000000046 0000000180023ae8     CheckScanner.obj
 0002:00000af8       _GUID_cf51ed10_62fe_11cf_bf86_00a0c9034836 0000000180023af8     CheckScanner.obj
 0002:00000b08       _GUID_0000010a_0000_0000_c000_000000000046 0000000180023b08     CheckScanner.obj
 0002:00000b18       _GUID_b196b283_bab4_101a_b69c_00aa00341d07 0000000180023b18     CheckScanner.obj
 0002:00000b28       _GUID_cb5bdc81_93c1_11cf_8f20_00805f2cd064 0000000180023b28     CheckScanner.obj
 0002:00000b40       ?pPropMap@?1??GetPropertyMap@COPOSCheckScanner@@SAPEBUATL_PROPMAP_ENTRY@ATL@@XZ@4QBU34@B 0000000180023b40     CheckScanner.obj
 0002:00000be8       ??_C@_17DGDADEHL@?$AA_?$AAc?$AAx@ 0000000180023be8     CheckScanner.obj
 0002:00000bf0       ??_C@_17IOIMFDBO@?$AA_?$AAc?$AAy@ 0000000180023bf0     CheckScanner.obj
 0002:00000bf8       _GUID_922eada0_3424_11cf_b670_00aa004cd6d8 0000000180023bf8     CheckScanner.obj
 0002:00000c08       _GUID_9c2cad80_3424_11cf_b670_00aa004cd6d8 0000000180023c08     CheckScanner.obj
 0002:00000c18       _GUID_00000119_0000_0000_c000_000000000046 0000000180023c18     CheckScanner.obj
 0002:00000c28       _GUID_b196b289_bab4_101a_b69c_00aa00341d07 0000000180023c28     CheckScanner.obj
 0002:00000c38       _GUID_00000117_0000_0000_c000_000000000046 0000000180023c38     CheckScanner.obj
 0002:00000c48       ??_7CComModule@ATL@@6B@    0000000180023c48     CheckScanner.obj
 0002:00000c98       ??_7?$CComObjectCached@VCComClassFactory@ATL@@@ATL@@6B@ 0000000180023c98     CheckScanner.obj
 0002:00000cc8       ??_C@_1CE@PGFMOFKI@?$AAS?$AAt?$AAa?$AAt?$AAu?$AAs?$AAU?$AAp?$AAd?$AAa?$AAt?$AAe?$AAE?$AAv?$AAe@ 0000000180023cc8     CheckScanner.obj
 0002:00000cf0       ??_C@_1BG@LODEBHDD@?$AAE?$AAr?$AAr?$AAo?$AAr?$AAE?$AAv?$AAe?$AAn?$AAt@ 0000000180023cf0     CheckScanner.obj
 0002:00000d08       ??_C@_1BM@CBGEBBBJ@?$AAD?$AAi?$AAr?$AAe?$AAc?$AAt?$AAI?$AAO?$AAE?$AAv?$AAe?$AAn?$AAt@ 0000000180023d08     CheckScanner.obj
 0002:00000d28       ??_C@_1BE@IEBMACEM@?$AAD?$AAa?$AAt?$AAa?$AAE?$AAv?$AAe?$AAn?$AAt@ 0000000180023d28     CheckScanner.obj
 0002:00000d40       _GUID_b196b286_bab4_101a_b69c_00aa00341d07 0000000180023d40     CheckScanner.obj
 0002:00000d50       _GUID_00000000_0000_0000_c000_000000000046 0000000180023d50     CheckScanner.obj
 0002:00000d60       _GUID_00020400_0000_0000_c000_000000000046 0000000180023d60     CheckScanner.obj
 0002:00000d70       ??_C@_1BC@ENICKDH@?$AAC?$AAo?$AAn?$AAt?$AAe?$AAn?$AAt?$AAs@ 0000000180023d70     CheckScanner.obj
 0002:00000d88       ??_7?$CComObject@V?$CComEnum@UIEnumConnectionPoints@@$1?_GUID_b196b285_bab4_101a_b69c_00aa00341d07@@3U__s_GUID@@BPEAUIConnectionPoint@@V?$_CopyInterface@UIConnectionPoint@@@ATL@@VCComSingleThreadModel@6@@ATL@@@ATL@@6B@ 0000000180023d88     CheckScanner.obj
 0002:00000dc8       _GUID_0000010e_0000_0000_c000_000000000046 0000000180023dc8     CheckScanner.obj
 0002:00000dd8       _GUID_b196b288_bab4_101a_b69c_00aa00341d07 0000000180023dd8     CheckScanner.obj
 0002:00000de8       ??_C@_1M@KANJNLFF@?$AAC?$AAL?$AAS?$AAI?$AAD@ 0000000180023de8     CheckScanner.obj
 0002:00000df8       ??_C@_1M@EJNEECMJ@?$AAA?$AAp?$AAp?$AAI?$AAD@ 0000000180023df8     CheckScanner.obj
 0002:00000e08       _GUID_00000113_0000_0000_c000_000000000046 0000000180023e08     CheckScanner.obj
 0002:00000e20       ?rgszNeverDelete@CRegParser@ATL@@1QBQEB_WB 0000000180023e20     CheckScanner.obj
 0002:00000e80       _GUID_1c2056cc_5ef4_101b_8bc8_00aa003e3b29 0000000180023e80     CheckScanner.obj
 0002:00000e90       ??_7CRegObject@ATL@@6B@    0000000180023e90     CheckScanner.obj
 0002:00000ec0       _GUID_00000112_0000_0000_c000_000000000046 0000000180023ec0     CheckScanner.obj
 0002:00000ed0       _GUID_3af24292_0c96_11ce_a0cf_00aa00600ab8 0000000180023ed0     CheckScanner.obj
 0002:00000ee0       _GUID_00000127_0000_0000_c000_000000000046 0000000180023ee0     CheckScanner.obj
 0002:00000ef0       _GUID_0000010d_0000_0000_c000_000000000046 0000000180023ef0     CheckScanner.obj
 0002:00000f00       ??_C@_1CK@OEKPKBNA@?$AAC?$AAo?$AAm?$AAp?$AAo?$AAn?$AAe?$AAn?$AAt?$AA?5?$AAC?$AAa?$AAt?$AAe?$AAg@ 0000000180023f00     CheckScanner.obj
 0002:00000f30       ??_C@_1BC@NKMMNMGL@?$AAF?$AAi?$AAl?$AAe?$AAT?$AAy?$AAp?$AAe@ 0000000180023f30     CheckScanner.obj
 0002:00000f48       ??_C@_1BE@EKPAFMCP@?$AAI?$AAn?$AAt?$AAe?$AAr?$AAf?$AAa?$AAc?$AAe@ 0000000180023f48     CheckScanner.obj
 0002:00000f60       ??_C@_1BC@MAICEHGI@?$AAH?$AAa?$AAr?$AAd?$AAw?$AAa?$AAr?$AAe@ 0000000180023f60     CheckScanner.obj
 0002:00000f78       ??_C@_19HLLLM@?$AAM?$AAi?$AAm?$AAe@ 0000000180023f78     CheckScanner.obj
 0002:00000f88       ??_C@_17OMAOINJK@?$AAS?$AAA?$AAM@ 0000000180023f88     CheckScanner.obj
 0002:00000f90       ??_C@_1BC@IBECJAAI@?$AAS?$AAE?$AAC?$AAU?$AAR?$AAI?$AAT?$AAY@ 0000000180023f90     CheckScanner.obj
 0002:00000fa8       ??_C@_1O@GBFINDKL@?$AAS?$AAY?$AAS?$AAT?$AAE?$AAM@ 0000000180023fa8     CheckScanner.obj
 0002:00000fb8       ??_C@_1BC@EAHCMADO@?$AAS?$AAo?$AAf?$AAt?$AAw?$AAa?$AAr?$AAe@ 0000000180023fb8     CheckScanner.obj
 0002:00000fd0       ??_C@_1BA@JIHHIEDE@?$AAT?$AAy?$AAp?$AAe?$AAL?$AAi?$AAb@ 0000000180023fd0     CheckScanner.obj
 0002:00000fe0       ?map@?1??HKeyFromString@CRegParser@ATL@@KAPEAUHKEY__@@PEA_W@Z@4QBUkeymap@?1??123@KAPEAU4@0@Z@B 0000000180023fe0     CheckScanner.obj
 0002:000010c0       ??_C@_19NCHLBIN@?$AAH?$AAK?$AAC?$AAR@ 00000001800240c0     CheckScanner.obj
 0002:000010d0       ??_C@_19JAPAIJDE@?$AAH?$AAK?$AAC?$AAU@ 00000001800240d0     CheckScanner.obj
 0002:000010e0       ??_C@_19PEALEEJB@?$AAH?$AAK?$AAL?$AAM@ 00000001800240e0     CheckScanner.obj
 0002:000010f0       ??_C@_17PJOJPMPB@?$AAH?$AAK?$AAU@ 00000001800240f0     CheckScanner.obj
 0002:000010f8       ??_C@_19PNBHMJPL@?$AAH?$AAK?$AAP?$AAD@ 00000001800240f8     CheckScanner.obj
 0002:00001108       ??_C@_19GFFAIJHG@?$AAH?$AAK?$AAD?$AAD@ 0000000180024108     CheckScanner.obj
 0002:00001118       ??_C@_19OFICIBHH@?$AAH?$AAK?$AAC?$AAC@ 0000000180024118     CheckScanner.obj
 0002:00001128       ??_C@_1CE@PACHPJFI@?$AAH?$AAK?$AAE?$AAY?$AA_?$AAC?$AAL?$AAA?$AAS?$AAS?$AAE?$AAS?$AA_?$AAR?$AAO@ 0000000180024128     CheckScanner.obj
 0002:00001150       ??_C@_1CE@HLHNCBPM@?$AAH?$AAK?$AAE?$AAY?$AA_?$AAC?$AAU?$AAR?$AAR?$AAE?$AAN?$AAT?$AA_?$AAU?$AAS@ 0000000180024150     CheckScanner.obj
 0002:00001178       ??_C@_1CG@GFBEANJL@?$AAH?$AAK?$AAE?$AAY?$AA_?$AAL?$AAO?$AAC?$AAA?$AAL?$AA_?$AAM?$AAA?$AAC?$AAH@ 0000000180024178     CheckScanner.obj
 0002:000011a0       ??_C@_1BG@BGODANIO@?$AAH?$AAK?$AAE?$AAY?$AA_?$AAU?$AAS?$AAE?$AAR?$AAS@ 00000001800241a0     CheckScanner.obj
 0002:000011b8       ??_C@_1CM@KHNNAOIC@?$AAH?$AAK?$AAE?$AAY?$AA_?$AAP?$AAE?$AAR?$AAF?$AAO?$AAR?$AAM?$AAA?$AAN?$AAC@ 00000001800241b8     CheckScanner.obj
 0002:000011e8       ??_C@_1BM@HAGMMHIA@?$AAH?$AAK?$AAE?$AAY?$AA_?$AAD?$AAY?$AAN?$AA_?$AAD?$AAA?$AAT?$AAA@ 00000001800241e8     CheckScanner.obj
 0002:00001208       ??_C@_1CI@BBJOACGG@?$AAH?$AAK?$AAE?$AAY?$AA_?$AAC?$AAU?$AAR?$AAR?$AAE?$AAN?$AAT?$AA_?$AAC?$AAO@ 0000000180024208     CheckScanner.obj
 0002:00001230       _GUID_00000109_0000_0000_c000_000000000046 0000000180024230     CheckScanner.obj
 0002:00001240       _GUID_7fd52380_4e07_101b_ae2d_08002b2ec713 0000000180024240     CheckScanner.obj
 0002:00001250       ??_C@_1M@PPPPCDEP@?$AAA?$AAP?$AAP?$AAI?$AAD@ 0000000180024250     CheckScanner.obj
 0002:00001260       ??_C@_1EA@NHKLICFA@?$AAH?$AAK?$AAC?$AAU?$AA?$AN?$AA?6?$AA?$HL?$AA?7?$AAS?$AAo?$AAf?$AAt?$AAw?$AAa?$AAr@ 0000000180024260     CheckScanner.obj
 0002:000012a0       ??_C@_1BE@LJOLIMEM@?$AA?$AN?$AA?6?$AA?7?$AA?$HN?$AA?$AN?$AA?6?$AA?$HN?$AA?$AN?$AA?6@ 00000001800242a0     CheckScanner.obj
 0002:000012b8       ??_C@_1O@MNLDABAF@?$AAM?$AAo?$AAd?$AAu?$AAl?$AAe@ 00000001800242b8     CheckScanner.obj
 0002:000012c8       ??_C@_1BG@JBACFMF@?$AAM?$AAo?$AAd?$AAu?$AAl?$AAe?$AA_?$AAR?$AAa?$AAw@ 00000001800242c8     CheckScanner.obj
 0002:000012e0       ??_C@_1BC@KAILKFFG@?$AAR?$AAE?$AAG?$AAI?$AAS?$AAT?$AAR?$AAY@ 00000001800242e0     CheckScanner.obj
 0002:000012f8       ??_7?$CComContainedObject@VCOPOSCheckScanner@@@ATL@@6B?$IDispatchImpl@UIOPOSCheckScanner@@$1?IID_IOPOSCheckScanner@@3U_GUID@@B$1?LIBID_OposCheckScanner_CCO@@3U3@B$00$0A@VCComTypeInfoHolder@ATL@@@1@@ 00000001800242f8     CheckScanner.obj
 0002:00001650       ??_7?$CComContainedObject@VCOPOSCheckScanner@@@ATL@@6BCComControlBase@1@@ 0000000180024650     CheckScanner.obj
 0002:00001678       ??_7?$CComContainedObject@VCOPOSCheckScanner@@@ATL@@6B?$CWindowImpl@VCOPOSCheckScanner@@VCWindow@ATL@@V?$CWinTraits@$0FGAAAAAA@$0A@@3@@1@@ 0000000180024678     CheckScanner.obj
 0002:00001698       ??_7?$CComContainedObject@VCOPOSCheckScanner@@@ATL@@6B?$IPersistStreamInitImpl@VCOPOSCheckScanner@@@1@@ 0000000180024698     CheckScanner.obj
 0002:000016e0       ??_7?$CComContainedObject@VCOPOSCheckScanner@@@ATL@@6B?$IOleControlImpl@VCOPOSCheckScanner@@@1@@ 00000001800246e0     CheckScanner.obj
 0002:00001718       ??_7?$CComContainedObject@VCOPOSCheckScanner@@@ATL@@6B?$IOleObjectImpl@VCOPOSCheckScanner@@@1@@ 0000000180024718     CheckScanner.obj
 0002:000017d8       ??_7?$CComContainedObject@VCOPOSCheckScanner@@@ATL@@6B?$IOleInPlaceActiveObjectImpl@VCOPOSCheckScanner@@@1@@ 00000001800247d8     CheckScanner.obj
 0002:00001828       ??_7?$CComContainedObject@VCOPOSCheckScanner@@@ATL@@6B?$IViewObjectExImpl@VCOPOSCheckScanner@@@1@@ 0000000180024828     CheckScanner.obj
 0002:000018a0       ??_7?$CComContainedObject@VCOPOSCheckScanner@@@ATL@@6B?$IOleInPlaceObjectWindowlessImpl@VCOPOSCheckScanner@@@1@@ 00000001800248a0     CheckScanner.obj
 0002:000018f8       ??_7?$CComContainedObject@VCOPOSCheckScanner@@@ATL@@6B?$IConnectionPointContainerImpl@VCOPOSCheckScanner@@@1@@ 00000001800248f8     CheckScanner.obj
 0002:00001920       ??_7?$CComContainedObject@VCOPOSCheckScanner@@@ATL@@6B?$IPersistStorageImpl@VCOPOSCheckScanner@@@1@@ 0000000180024920     CheckScanner.obj
 0002:00001970       ??_7?$CComContainedObject@VCOPOSCheckScanner@@@ATL@@6B?$ISpecifyPropertyPagesImpl@VCOPOSCheckScanner@@@1@@ 0000000180024970     CheckScanner.obj
 0002:00001990       ??_7?$CComContainedObject@VCOPOSCheckScanner@@@ATL@@6B?$IQuickActivateImpl@VCOPOSCheckScanner@@@1@@ 0000000180024990     CheckScanner.obj
 0002:000019c0       ??_7?$CComContainedObject@VCOPOSCheckScanner@@@ATL@@6B?$IDataObjectImpl@VCOPOSCheckScanner@@@1@@ 00000001800249c0     CheckScanner.obj
 0002:00001a20       ??_7?$CComContainedObject@VCOPOSCheckScanner@@@ATL@@6B?$IProvideClassInfo2Impl@$1?CLSID_OPOSCheckScanner@@3U_GUID@@B$1?DIID__IOPOSCheckScannerEvents@@3U2@B$1?LIBID_OposCheckScanner_CCO@@3U2@B$00$0A@VCComTypeInfoHolder@ATL@@@1@@ 0000000180024a20     CheckScanner.obj
 0002:00001a48       ??_7?$CComContainedObject@VCOPOSCheckScanner@@@ATL@@6B?$IObjectSafetyImpl@VCOPOSCheckScanner@@$02@1@@ 0000000180024a48     CheckScanner.obj
 0002:00001a78       ??_7?$CComContainedObject@VCOPOSCheckScanner@@@ATL@@6B?$IPropertyNotifySinkCP@VCOPOSCheckScanner@@VCComDynamicUnkArray@ATL@@@1@@ 0000000180024a78     CheckScanner.obj
 0002:00001ab8       ??_7?$CComContainedObject@VCOPOSCheckScanner@@@ATL@@6B?$CProxy_IOPOSEvents@VCOPOSCheckScanner@@@@@ 0000000180024ab8     CheckScanner.obj
 0002:00001af8       ??_7?$CComAggObject@VCOPOSCheckScanner@@@ATL@@6B@ 0000000180024af8     CheckScanner.obj
 0002:00001b18       ??_7?$CComObject@VCOPOSCheckScanner@@@ATL@@6B?$IDispatchImpl@UIOPOSCheckScanner@@$1?IID_IOPOSCheckScanner@@3U_GUID@@B$1?LIBID_OposCheckScanner_CCO@@3U3@B$00$0A@VCComTypeInfoHolder@ATL@@@1@@ 0000000180024b18     CheckScanner.obj
 0002:00001e70       ??_7?$CComObject@VCOPOSCheckScanner@@@ATL@@6BCComControlBase@1@@ 0000000180024e70     CheckScanner.obj
 0002:00001e98       ??_7?$CComObject@VCOPOSCheckScanner@@@ATL@@6B?$CWindowImpl@VCOPOSCheckScanner@@VCWindow@ATL@@V?$CWinTraits@$0FGAAAAAA@$0A@@3@@1@@ 0000000180024e98     CheckScanner.obj
 0002:00001eb8       ??_7?$CComObject@VCOPOSCheckScanner@@@ATL@@6B?$IPersistStreamInitImpl@VCOPOSCheckScanner@@@1@@ 0000000180024eb8     CheckScanner.obj
 0002:00001f00       ??_7?$CComObject@VCOPOSCheckScanner@@@ATL@@6B?$IOleControlImpl@VCOPOSCheckScanner@@@1@@ 0000000180024f00     CheckScanner.obj
 0002:00001f38       ??_7?$CComObject@VCOPOSCheckScanner@@@ATL@@6B?$IOleObjectImpl@VCOPOSCheckScanner@@@1@@ 0000000180024f38     CheckScanner.obj
 0002:00001ff8       ??_7?$CComObject@VCOPOSCheckScanner@@@ATL@@6B?$IOleInPlaceActiveObjectImpl@VCOPOSCheckScanner@@@1@@ 0000000180024ff8     CheckScanner.obj
 0002:00002048       ??_7?$CComObject@VCOPOSCheckScanner@@@ATL@@6B?$IViewObjectExImpl@VCOPOSCheckScanner@@@1@@ 0000000180025048     CheckScanner.obj
 0002:000020c0       ??_7?$CComObject@VCOPOSCheckScanner@@@ATL@@6B?$IOleInPlaceObjectWindowlessImpl@VCOPOSCheckScanner@@@1@@ 00000001800250c0     CheckScanner.obj
 0002:00002118       ??_7?$CComObject@VCOPOSCheckScanner@@@ATL@@6B?$IConnectionPointContainerImpl@VCOPOSCheckScanner@@@1@@ 0000000180025118     CheckScanner.obj
 0002:00002140       ??_7?$CComObject@VCOPOSCheckScanner@@@ATL@@6B?$IPersistStorageImpl@VCOPOSCheckScanner@@@1@@ 0000000180025140     CheckScanner.obj
 0002:00002190       ??_7?$CComObject@VCOPOSCheckScanner@@@ATL@@6B?$ISpecifyPropertyPagesImpl@VCOPOSCheckScanner@@@1@@ 0000000180025190     CheckScanner.obj
 0002:000021b0       ??_7?$CComObject@VCOPOSCheckScanner@@@ATL@@6B?$IQuickActivateImpl@VCOPOSCheckScanner@@@1@@ 00000001800251b0     CheckScanner.obj
 0002:000021e0       ??_7?$CComObject@VCOPOSCheckScanner@@@ATL@@6B?$IDataObjectImpl@VCOPOSCheckScanner@@@1@@ 00000001800251e0     CheckScanner.obj
 0002:00002240       ??_7?$CComObject@VCOPOSCheckScanner@@@ATL@@6B?$IProvideClassInfo2Impl@$1?CLSID_OPOSCheckScanner@@3U_GUID@@B$1?DIID__IOPOSCheckScannerEvents@@3U2@B$1?LIBID_OposCheckScanner_CCO@@3U2@B$00$0A@VCComTypeInfoHolder@ATL@@@1@@ 0000000180025240     CheckScanner.obj
 0002:00002268       ??_7?$CComObject@VCOPOSCheckScanner@@@ATL@@6B?$IObjectSafetyImpl@VCOPOSCheckScanner@@$02@1@@ 0000000180025268     CheckScanner.obj
 0002:00002298       ??_7?$CComObject@VCOPOSCheckScanner@@@ATL@@6B?$IPropertyNotifySinkCP@VCOPOSCheckScanner@@VCComDynamicUnkArray@ATL@@@1@@ 0000000180025298     CheckScanner.obj
 0002:000022d8       ??_7?$CComObject@VCOPOSCheckScanner@@@ATL@@6B?$CProxy_IOPOSEvents@VCOPOSCheckScanner@@@@@ 00000001800252d8     CheckScanner.obj
 0002:00002318       ??_C@_1O@GBFKGNEO@?$AAA?$AAT?$AAL?$AA?3?$AA?$CF?$AAp@ 0000000180025318     CheckScanner.obj
 0002:00002328       ??_C@_1BA@PICGEGJB@?$AAD?$AAI?$AAS?$AAP?$AAL?$AAA?$AAY@ 0000000180025328     CheckScanner.obj
 0002:00002338       _GUID_9bfbbc02_eff1_101a_84ed_00aa00341d07 0000000180025338     CheckScanner.obj
 0002:00002348       ?_entries@?1??_GetEntries@?$CComEnum@UIEnumConnectionPoints@@$1?_GUID_b196b285_bab4_101a_b69c_00aa00341d07@@3U__s_GUID@@BPEAUIConnectionPoint@@V?$_CopyInterface@UIConnectionPoint@@@ATL@@VCComSingleThreadModel@6@@ATL@@SAPEBU_ATL_INTMAP_ENTRY@3@XZ@4QBU43@B 0000000180025348     CheckScanner.obj
 0002:00002378       _GUID_b196b284_bab4_101a_b69c_00aa00341d07 0000000180025378     CheckScanner.obj
 0002:00002388       _GUID_00020412_0000_0000_c000_000000000046 0000000180025388     CheckScanner.obj
 0002:00002398       _GUID_00020401_0000_0000_c000_000000000046 0000000180025398     CheckScanner.obj
 0002:000023a8       _GUID_55980ba0_35aa_11cf_b671_00aa004cd6d8 00000001800253a8     CheckScanner.obj
 0002:000023b8       _GUID_b196b28b_bab4_101a_b69c_00aa00341d07 00000001800253b8     CheckScanner.obj
 0002:000023c8       ??_7?$CComObject@V?$CComEnum@UIEnumConnections@@$1?_GUID_b196b287_bab4_101a_b69c_00aa00341d07@@3U__s_GUID@@BUtagCONNECTDATA@@V?$_Copy@UtagCONNECTDATA@@@ATL@@VCComSingleThreadModel@6@@ATL@@@ATL@@6B@ 00000001800253c8     CheckScanner.obj
 0002:00002408       ?_entries@?1??_GetEntries@?$CComEnum@UIEnumConnections@@$1?_GUID_b196b287_bab4_101a_b69c_00aa00341d07@@3U__s_GUID@@BUtagCONNECTDATA@@V?$_Copy@UtagCONNECTDATA@@@ATL@@VCComSingleThreadModel@6@@ATL@@SAPEBU_ATL_INTMAP_ENTRY@3@XZ@4QBU43@B 0000000180025408     CheckScanner.obj
 0002:00002438       ??_7CComClassFactory@ATL@@6B@ 0000000180025438     CheckScanner.obj
 0002:00002468       ?_entries@?1??_GetEntries@CComClassFactory@ATL@@SAPEBU_ATL_INTMAP_ENTRY@3@XZ@4QBU43@B 0000000180025468     CheckScanner.obj
 0002:00002498       _GUID_00000001_0000_0000_c000_000000000046 0000000180025498     CheckScanner.obj
 0002:000024a8       ??_C@_0BG@EKFFMJIO@RegOpenKeyTransactedW@ 00000001800254a8     CheckScanner.obj
 0002:000024c0       ??_C@_0BI@HAKLOOGP@RegDeleteKeyTransactedW@ 00000001800254c0     CheckScanner.obj
 0002:000024d8       ??_C@_0BA@LILAPHGE@RegDeleteKeyExW@ 00000001800254d8     CheckScanner.obj
 0002:000024e8       ??_C@_19ILOCMLCJ@?$AA?4?$AAt?$AAl?$AAb@ 00000001800254e8     CheckScanner.obj
 0002:000024f8       _GUID_0002e012_0000_0000_c000_000000000046 00000001800254f8     CheckScanner.obj
 0002:00002508       ??_C@_1O@FHBGLCIO@?$AAC?$AAL?$AAS?$AAI?$AAD?$AA?2@ 0000000180025508     CheckScanner.obj
 0002:00002518       ??_C@_1CK@IFBKBFAA@?$AA?2?$AAR?$AAe?$AAq?$AAu?$AAi?$AAr?$AAe?$AAd?$AA?5?$AAC?$AAa?$AAt?$AAe?$AAg@ 0000000180025518     CheckScanner.obj
 0002:00002548       ??_C@_1DA@BIHALFED@?$AA?2?$AAI?$AAm?$AAp?$AAl?$AAe?$AAm?$AAe?$AAn?$AAt?$AAe?$AAd?$AA?5?$AAC?$AAa@ 0000000180025548     CheckScanner.obj
 0002:00002578       ??_C@_1BK@EDKOLFBJ@?$AAO?$AAL?$AAE?$AAA?$AAU?$AAT?$AA3?$AA2?$AA?4?$AAD?$AAL?$AAL@ 0000000180025578     CheckScanner.obj
 0002:00002598       ??_C@_0BJ@CNLFOMHB@UnRegisterTypeLibForUser@ 0000000180025598     CheckScanner.obj
 0002:000025b8       ??_C@_0BH@LBOMMKPJ@RegisterTypeLibForUser@ 00000001800255b8     CheckScanner.obj
 0002:000025d0       ??_C@_0P@MMNMMLGK@COFreezeEvents@ 00000001800255d0     CheckScannerImpl.obj
 0002:000025e0       ??_C@_0BC@OGCGGIMP@GetPropertyNumber@ 00000001800255e0     CheckScannerImpl.obj
 0002:000025f8       ??_C@_0BC@MDCNODNB@SetPropertyNumber@ 00000001800255f8     CheckScannerImpl.obj
 0002:00002610       ??_C@_0BC@CFCCMIMD@GetPropertyString@ 0000000180025610     CheckScannerImpl.obj
 0002:00002628       ??_C@_0BC@CJEDNN@SetPropertyString@ 0000000180025628     CheckScannerImpl.obj
 0002:00002640       ??_C@_0M@LNPKKKDA@OpenService@ 0000000180025640     CheckScannerImpl.obj
 0002:00002650       ??_C@_0M@PCMCHHMH@CheckHealth@ 0000000180025650     CheckScannerImpl.obj
 0002:00002660       ??_C@_0M@JGMIDNEK@ClaimDevice@ 0000000180025660     CheckScannerImpl.obj
 0002:00002670       ??_C@_0L@BNEIFEJC@ClearInput@ 0000000180025670     CheckScannerImpl.obj
 0002:00002680       ??_C@_0N@DDFIIBMP@CloseService@ 0000000180025680     CheckScannerImpl.obj
 0002:00002690       ??_C@_08EEIHICPC@DirectIO@ 0000000180025690     CheckScannerImpl.obj
 0002:000026a0       ??_C@_0O@BCPMENMJ@ReleaseDevice@ 00000001800256a0     CheckScannerImpl.obj
 0002:000026b0       ??_C@_0P@DPMKPLAE@BeginInsertion@ 00000001800256b0     CheckScannerImpl.obj
 0002:000026c0       ??_C@_0N@PCJLGBKP@BeginRemoval@ 00000001800256c0     CheckScannerImpl.obj
 0002:000026d0       ??_C@_0L@PODGEKLG@ClearImage@ 00000001800256d0     CheckScannerImpl.obj
 0002:000026e0       ??_C@_0P@KHLNPAHD@DefineCropArea@ 00000001800256e0     CheckScannerImpl.obj
 0002:000026f0       ??_C@_0N@MIHLNKHM@EndInsertion@ 00000001800256f0     CheckScannerImpl.obj
 0002:00002700       ??_C@_0L@FCEKAOMI@EndRemoval@ 0000000180025700     CheckScannerImpl.obj
 0002:00002710       ??_C@_0O@GNDFJLIB@RetrieveImage@ 0000000180025710     CheckScannerImpl.obj
 0002:00002720       ??_C@_0P@GFBOJCPH@RetrieveMemory@ 0000000180025720     CheckScannerImpl.obj
 0002:00002730       ??_C@_0L@KBNKFBHH@StoreImage@ 0000000180025730     CheckScannerImpl.obj
 0002:00002740       ??_C@_0BA@GFABKEEE@ResetStatistics@ 0000000180025740     CheckScannerImpl.obj
 0002:00002750       ??_C@_0BD@DPALHJGC@RetrieveStatistics@ 0000000180025750     CheckScannerImpl.obj
 0002:00002768       ??_C@_0BB@KOHIKNFC@UpdateStatistics@ 0000000180025768     CheckScannerImpl.obj
 0002:00002780       ??_C@_0BH@PBKBNMGB@CompareFirmwareVersion@ 0000000180025780     CheckScannerImpl.obj
 0002:00002798       ??_C@_0P@FBPDPIPA@UpdateFirmware@ 0000000180025798     CheckScannerImpl.obj
 0002:000027a8       ??_C@_0BF@CMAPCJGM@ClearInputProperties@ 00000001800257a8     CheckScannerImpl.obj
 0002:000027c0       ??_7?$CProxy_IOPOSEvents@VCOPOSCheckScanner@@@@6B@ 00000001800257c0     CheckScannerImpl.obj
 0002:00002800       ??_C@_1BA@IFHENID@?$AA?$FL?$AAE?$AAr?$AAr?$AAo?$AAr?$AA?$FN@ 0000000180025800     CheckScannerImpl.obj
 0002:00002810       ??_C@_0CP@KDCAACFE@SOFTWARE?2OLEforRetail?2ServiceOP@ 0000000180025810     CheckScannerImpl.obj
 0002:00002840       ??_C@_1M@IAIJHCCH@?$AAC?$AAl?$AAo?$AAs?$AAe@ 0000000180025840     CheckScannerImpl.obj
 0002:00002850       ??_C@_1M@PCPKGJAH@?$AAC?$AAl?$AAa?$AAi?$AAm@ 0000000180025850     CheckScannerImpl.obj
 0002:00002860       ??_C@_1BA@NDFKIOCP@?$AAR?$AAe?$AAl?$AAe?$AAa?$AAs?$AAe@ 0000000180025860     CheckScannerImpl.obj
 0002:00002870       ??_C@_0N@BHEGOBJP@CheckScanner@ 0000000180025870     CheckScannerImpl.obj
 0002:00002880       ??_C@_1BM@IJMNMBPK@?$AAG?$AAe?$AAt?$AAO?$AAp?$AAe?$AAn?$AAR?$AAe?$AAs?$AAu?$AAl?$AAt@ 0000000180025880     CheckScannerImpl.obj
 0002:000028a0       IID_IDispatch              00000001800258a0     uuid:oaidl_i.obj
 0002:000028b0       IID_IPropertyNotifySink    00000001800258b0     uuid:ocidl_i.obj
 0002:000028c0       GUID_NULL                  00000001800258c0     uuid:cguid_i.obj
 0002:000028d0       CLSID_StdGlobalInterfaceTable 00000001800258d0     uuid:cguid_i.obj
 0002:000028e0       CLSID_StdComponentCategoriesMgr 00000001800258e0     uuid:ieguids.obj
 0002:000028f0       IID_IUnknown               00000001800258f0     uuid:unknwn_i.obj
 0002:00002900       __xmm@ffffffffffffffffffffffffffffffff 0000000180025900     LIBCMT:utility.obj
 0002:00002910       ??_C@_1EC@JIJBPKFM@?$AAa?$AAp?$AAi?$AA?9?$AAm?$AAs?$AA?9?$AAw?$AAi?$AAn?$AA?9?$AAc?$AAo?$AAr?$AAe@ 0000000180025910     LIBCMT:thread_safe_statics.obj
 0002:00002958       ??_C@_1BK@MGMFAEKH@?$AAk?$AAe?$AAr?$AAn?$AAe?$AAl?$AA3?$AA2?$AA?4?$AAd?$AAl?$AAl@ 0000000180025958     LIBCMT:thread_safe_statics.obj
 0002:00002978       ??_C@_0BJ@JEBJOJFJ@SleepConditionVariableCS@ 0000000180025978     LIBCMT:thread_safe_statics.obj
 0002:00002998       ??_C@_0BJ@PGPPEPCC@WakeAllConditionVariable@ 0000000180025998     LIBCMT:thread_safe_statics.obj
 0002:000029b1       ?nothrow@std@@3Unothrow_t@1@B 00000001800259b1     LIBCMT:std_nothrow.obj
 0002:000029c8       _pRawDllMain               00000001800259c8     LIBCMT:dll_dllmain.obj
 0002:000029c8       _pDefaultRawDllMain        00000001800259c8     LIBCMT:dll_dllmain.obj
 0002:000029d8       ??_7exception@std@@6B@     00000001800259d8     LIBCMT:throw_bad_alloc.obj
 0002:000029e8       ??_C@_0BC@EOODALEL@Unknown?5exception@ 00000001800259e8     LIBCMT:throw_bad_alloc.obj
 0002:00002a08       ??_7bad_alloc@std@@6B@     0000000180025a08     LIBCMT:throw_bad_alloc.obj
 0002:00002a18       ??_C@_0P@GHFPNOJB@bad?5allocation@ 0000000180025a18     LIBCMT:throw_bad_alloc.obj
 0002:00002a30       ??_7bad_array_new_length@std@@6B@ 0000000180025a30     LIBCMT:throw_bad_alloc.obj
 0002:00002a40       ??_C@_0BF@KINCDENJ@bad?5array?5new?5length@ 0000000180025a40     LIBCMT:throw_bad_alloc.obj
 0002:00002a60       ??_7type_info@@6B@         0000000180025a60     LIBCMT:std_type_info_static.obj
 0002:00002a68       GUID_ATLVer110             0000000180025a68     atls:atlbase.obj
 0002:00002a80       ??_C@_1IC@ONKHOIDK@?$AAE?$AAR?$AAR?$AAO?$AAR?$AA?5?$AA?3?$AA?5?$AAU?$AAn?$AAa?$AAb?$AAl?$AAe?$AA?5@ 0000000180025a80     atls:atlbase.obj
 0002:00002b08       ??_C@_0N@FJEPLCIH@atlthunk?4dll@ 0000000180025b08     atls:atlthunk.obj
 0002:00002b18       ??_C@_0BG@GAKFHCBM@AtlThunk_AllocateData@ 0000000180025b18     atls:atlthunk.obj
 0002:00002b30       ??_C@_0BC@JKONFIAH@AtlThunk_InitData@ 0000000180025b30     atls:atlthunk.obj
 0002:00002b48       ??_C@_0BE@IAOEELAK@AtlThunk_DataToCode@ 0000000180025b48     atls:atlthunk.obj
 0002:00002b60       ??_C@_0BC@GBGKAIPI@AtlThunk_FreeData@ 0000000180025b60     atls:atlthunk.obj
 0002:00002b78       ?s_negLengthTab@FH4@@3QBCB 0000000180025b78     libvcruntime:risctrnsctrl.obj
 0002:00002b88       ?s_shiftTab@FH4@@3QBEB     0000000180025b88     libvcruntime:risctrnsctrl.obj
 0002:00002c38       _pDestructExceptionObject  0000000180025c38     libvcruntime:ehhelpers.obj
 0002:00002c48       ??_7bad_exception@std@@6B@ 0000000180025c48     libvcruntime:frame.obj
 0002:00002c58       ??_C@_0O@DPKOEFFH@bad?5exception@ 0000000180025c58     libvcruntime:frame.obj
 0002:00003370       ??_C@_08EHJDFFNH@__based?$CI@ 0000000180026370     libvcruntime:undname.obj
 0002:00003380       ??_C@_07KOLFKCDI@__cdecl@  0000000180026380     libvcruntime:undname.obj
 0002:00003388       ??_C@_08GHMPAG@__pascal@   0000000180026388     libvcruntime:undname.obj
 0002:00003398       ??_C@_09IFJBGAPI@__stdcall@ 0000000180026398     libvcruntime:undname.obj
 0002:000033a8       ??_C@_0L@NPHFGOKO@__thiscall@ 00000001800263a8     libvcruntime:undname.obj
 0002:000033b8       ??_C@_0L@JMKHOMEK@__fastcall@ 00000001800263b8     libvcruntime:undname.obj
 0002:000033c8       ??_C@_0N@BCKKPABJ@__vectorcall@ 00000001800263c8     libvcruntime:undname.obj
 0002:000033d8       ??_C@_09HIJEGCPM@__clrcall@ 00000001800263d8     libvcruntime:undname.obj
 0002:000033e4       ??_C@_06GHPCKEAG@__eabi@   00000001800263e4     libvcruntime:undname.obj
 0002:000033f0       ??_C@_09IOPIDJLG@__swift_1@ 00000001800263f0     libvcruntime:undname.obj
 0002:00003400       ??_C@_09KFNFGKHF@__swift_2@ 0000000180026400     libvcruntime:undname.obj
 0002:00003410       ??_C@_07JOMMBBKO@__ptr64@  0000000180026410     libvcruntime:undname.obj
 0002:00003418       ??_C@_0L@PILCLIHE@__restrict@ 0000000180026418     libvcruntime:undname.obj
 0002:00003428       ??_C@_0M@GFIIJFMG@__unaligned@ 0000000180026428     libvcruntime:undname.obj
 0002:00003438       ??_C@_09DHDLOLLB@restrict?$CI@ 0000000180026438     libvcruntime:undname.obj
 0002:00003442       ??_C@_00CNPNBAHC@@         0000000180026442     libvcruntime:undname.obj
 0002:00003444       ??_C@_04NIHEBCM@?5new@     0000000180026444     libvcruntime:undname.obj
 0002:00003450       ??_C@_07FPCDHGMM@?5delete@ 0000000180026450     libvcruntime:undname.obj
 0002:00003458       ??_C@_01NEMOKFLO@?$DN@     0000000180026458     libvcruntime:undname.obj
 0002:0000345c       ??_C@_02GPIOPFAK@?$DO?$DO@ 000000018002645c     libvcruntime:undname.obj
 0002:00003460       ??_C@_02FODMEDOG@?$DM?$DM@ 0000000180026460     libvcruntime:undname.obj
 0002:00003464       ??_C@_01DCLJPIOD@?$CB@     0000000180026464     libvcruntime:undname.obj
 0002:00003468       ??_C@_02EGOFBIJA@?$DN?$DN@ 0000000180026468     libvcruntime:undname.obj
 0002:0000346c       ??_C@_02FDNJECIE@?$CB?$DN@ 000000018002646c     libvcruntime:undname.obj
 0002:00003470       ??_C@_02GPECMEKF@?$FL?$FN@ 0000000180026470     libvcruntime:undname.obj
 0002:00003478       ??_C@_08LHJFAFGD@operator@ 0000000180026478     libvcruntime:undname.obj
 0002:00003484       ??_C@_02HBOOOICD@?9?$DO@   0000000180026484     libvcruntime:undname.obj
 0002:00003488       ??_C@_01NBENCBCI@?$CK@     0000000180026488     libvcruntime:undname.obj
 0002:0000348c       ??_C@_02ECNGHCIF@?$CL?$CL@ 000000018002648c     libvcruntime:undname.obj
 0002:00003490       ??_C@_02BAABKJLB@?9?9@     0000000180026490     libvcruntime:undname.obj
 0002:00003494       ??_C@_01JOAMLHOP@?9@       0000000180026494     libvcruntime:undname.obj
 0002:00003498       ??_C@_01MIFGBAGJ@?$CL@     0000000180026498     libvcruntime:undname.obj
 0002:0000349c       ??_C@_01HNPIGOCE@?$CG@     000000018002649c     libvcruntime:undname.obj
 0002:000034a0       ??_C@_03MNHNFDLC@?9?$DO?$CK@ 00000001800264a0     libvcruntime:undname.obj
 0002:000034a4       ??_C@_01KMDKNFGN@?1@       00000001800264a4     libvcruntime:undname.obj
 0002:000034a8       ??_C@_01FGNFDNOH@?$CF@     00000001800264a8     libvcruntime:undname.obj
 0002:000034ac       ??_C@_01MNNFJEPP@?$DM@     00000001800264ac     libvcruntime:undname.obj
 0002:000034b0       ??_C@_02EHCHHCKH@?$DM?$DN@ 00000001800264b0     libvcruntime:undname.obj
 0002:000034b4       ??_C@_01PPODPGHN@?$DO@     00000001800264b4     libvcruntime:undname.obj
 0002:000034b8       ??_C@_02EEKDKGMJ@?$DO?$DN@ 00000001800264b8     libvcruntime:undname.obj
 0002:000034bc       ??_C@_01IHBHIGKO@?0@       00000001800264bc     libvcruntime:undname.obj
 0002:000034c0       ??_C@_02HCKGKOFO@?$CI?$CJ@ 00000001800264c0     libvcruntime:undname.obj
 0002:000034c4       ??_C@_01PJKLJHI@?$HO@      00000001800264c4     libvcruntime:undname.obj
 0002:000034c8       ??_C@_01JKBOJNNK@?$FO@     00000001800264c8     libvcruntime:undname.obj
 0002:000034cc       ??_C@_01DNKMNLPK@?$HM@     00000001800264cc     libvcruntime:undname.obj
 0002:000034d0       ??_C@_02PPKAJPJL@?$CG?$CG@ 00000001800264d0     libvcruntime:undname.obj
 0002:000034d4       ??_C@_02NONPIBCD@?$HM?$HM@ 00000001800264d4     libvcruntime:undname.obj
 0002:000034d8       ??_C@_02FPIMKNGF@?$CK?$DN@ 00000001800264d8     libvcruntime:undname.obj
 0002:000034dc       ??_C@_02FOEOMHFC@?$CL?$DN@ 00000001800264dc     libvcruntime:undname.obj
 0002:000034e0       ??_C@_02FKMDLLOA@?9?$DN@   00000001800264e0     libvcruntime:undname.obj
 0002:000034e4       ??_C@_02FJEHGPIO@?1?$DN@   00000001800264e4     libvcruntime:undname.obj
 0002:000034e8       ??_C@_02FENAOKFI@?$CF?$DN@ 00000001800264e8     libvcruntime:undname.obj
 0002:000034ec       ??_C@_03IKFCCPFF@?$DO?$DO?$DN@ 00000001800264ec     libvcruntime:undname.obj
 0002:000034f0       ??_C@_03CDNPDDLA@?$DM?$DM?$DN@ 00000001800264f0     libvcruntime:undname.obj
 0002:000034f4       ??_C@_02FGJGFEAB@?$CG?$DN@ 00000001800264f4     libvcruntime:undname.obj
 0002:000034f8       ??_C@_02DHLNPPGH@?$HM?$DN@ 00000001800264f8     libvcruntime:undname.obj
 0002:000034fc       ??_C@_02MHEGNOJ@?$FO?$DN@  00000001800264fc     libvcruntime:undname.obj
 0002:00003500       ??_C@_09IFPLHPGF@?$GAvftable?8@ 0000000180026500     libvcruntime:undname.obj
 0002:00003510       ??_C@_09BLBHBJP@?$GAvbtable?8@ 0000000180026510     libvcruntime:undname.obj
 0002:00003520       ??_C@_07FEEIOKP@?$GAvcall?8@ 0000000180026520     libvcruntime:undname.obj
 0002:00003528       ??_C@_08LLFFHHDJ@?$GAtypeof?8@ 0000000180026528     libvcruntime:undname.obj
 0002:00003538       ??_C@_0BF@KDPPACIK@?$GAlocal?5static?5guard?8@ 0000000180026538     libvcruntime:undname.obj
 0002:00003550       ??_C@_08OBABFOLI@?$GAstring?8@ 0000000180026550     libvcruntime:undname.obj
 0002:00003560       ??_C@_0BD@JDLKDPAB@?$GAvbase?5destructor?8@ 0000000180026560     libvcruntime:undname.obj
 0002:00003578       ??_C@_0BN@DEGPLNFK@?$GAvector?5deleting?5destructor?8@ 0000000180026578     libvcruntime:undname.obj
 0002:00003598       ??_C@_0BO@OBMKPJIG@?$GAdefault?5constructor?5closure?8@ 0000000180026598     libvcruntime:undname.obj
 0002:000035b8       ??_C@_0BN@IMDCHIKM@?$GAscalar?5deleting?5destructor?8@ 00000001800265b8     libvcruntime:undname.obj
 0002:000035d8       ??_C@_0BO@PFGOCPJJ@?$GAvector?5constructor?5iterator?8@ 00000001800265d8     libvcruntime:undname.obj
 0002:000035f8       ??_C@_0BN@LFPFMEDL@?$GAvector?5destructor?5iterator?8@ 00000001800265f8     libvcruntime:undname.obj
 0002:00003618       ??_C@_0CE@IKBNEHA@?$GAvector?5vbase?5constructor?5itera@ 0000000180026618     libvcruntime:undname.obj
 0002:00003640       ??_C@_0BL@NILFHHPC@?$GAvirtual?5displacement?5map?8@ 0000000180026640     libvcruntime:undname.obj
 0002:00003660       ??_C@_0CB@JONCMFFK@?$GAeh?5vector?5constructor?5iterator@ 0000000180026660     libvcruntime:undname.obj
 0002:00003688       ??_C@_0CA@GCEOPDGL@?$GAeh?5vector?5destructor?5iterator?8@ 0000000180026688     libvcruntime:undname.obj
 0002:000036a8       ??_C@_0CH@OOJPLCPH@?$GAeh?5vector?5vbase?5constructor?5it@ 00000001800266a8     libvcruntime:undname.obj
 0002:000036d0       ??_C@_0BL@LLKPOHJI@?$GAcopy?5constructor?5closure?8@ 00000001800266d0     libvcruntime:undname.obj
 0002:000036f0       ??_C@_0BA@KBCDOMBN@?$GAudt?5returning?8@ 00000001800266f0     libvcruntime:undname.obj
 0002:00003700       ??_C@_03KLGMFNMG@?$GAEH@   0000000180026700     libvcruntime:undname.obj
 0002:00003704       ??_C@_05KHLCHHI@?$GARTTI@  0000000180026704     libvcruntime:undname.obj
 0002:00003710       ??_C@_0BA@KKLDJDLB@?$GAlocal?5vftable?8@ 0000000180026710     libvcruntime:undname.obj
 0002:00003720       ??_C@_0CE@IIHCMGGL@?$GAlocal?5vftable?5constructor?5clos@ 0000000180026720     libvcruntime:undname.obj
 0002:00003744       ??_C@_06FHBGPFGH@?5new?$FL?$FN@ 0000000180026744     libvcruntime:undname.obj
 0002:00003750       ??_C@_09LBNFPBCA@?5delete?$FL?$FN@ 0000000180026750     libvcruntime:undname.obj
 0002:00003760       ??_C@_0P@HJKNJFNN@?$GAomni?5callsig?8@ 0000000180026760     libvcruntime:undname.obj
 0002:00003770       ??_C@_0BL@CNOONJFP@?$GAplacement?5delete?5closure?8@ 0000000180026770     libvcruntime:undname.obj
 0002:00003790       ??_C@_0BN@CKNJLHMB@?$GAplacement?5delete?$FL?$FN?5closure?8@ 0000000180026790     libvcruntime:undname.obj
 0002:000037b0       ??_C@_0CG@CFDHKGGD@?$GAmanaged?5vector?5constructor?5ite@ 00000001800267b0     libvcruntime:undname.obj
 0002:000037d8       ??_C@_0CF@IMGKMJNO@?$GAmanaged?5vector?5destructor?5iter@ 00000001800267d8     libvcruntime:undname.obj
 0002:00003800       ??_C@_0CG@HLDDJMAG@?$GAeh?5vector?5copy?5constructor?5ite@ 0000000180026800     libvcruntime:undname.obj
 0002:00003828       ??_C@_0CM@FCBBDIGB@?$GAeh?5vector?5vbase?5copy?5construct@ 0000000180026828     libvcruntime:undname.obj
 0002:00003858       ??_C@_0BL@CLIPGLGB@?$GAdynamic?5initializer?5for?5?8@ 0000000180026858     libvcruntime:undname.obj
 0002:00003878       ??_C@_0CB@PDBIFEP@?$GAdynamic?5atexit?5destructor?5for?5@ 0000000180026878     libvcruntime:undname.obj
 0002:000038a0       ??_C@_0CD@CGAJBKEJ@?$GAvector?5copy?5constructor?5iterat@ 00000001800268a0     libvcruntime:undname.obj
 0002:000038c8       ??_C@_0CJ@GJELGAMM@?$GAvector?5vbase?5copy?5constructor?5@ 00000001800268c8     libvcruntime:undname.obj
 0002:000038f8       ??_C@_0CL@FGIJHLCE@?$GAmanaged?5vector?5copy?5constructo@ 00000001800268f8     libvcruntime:undname.obj
 0002:00003928       ??_C@_0BM@PMGGMLDN@?$GAlocal?5static?5thread?5guard?8@ 0000000180026928     libvcruntime:undname.obj
 0002:00003948       ??_C@_0N@BDNMDMOL@operator?5?$CC?$CC?5@ 0000000180026948     libvcruntime:undname.obj
 0002:00003958       ??_C@_0BC@GGEBGALA@operator?5co_await@ 0000000180026958     libvcruntime:undname.obj
 0002:00003970       ??_C@_0M@GAAIMMOH@operator?$DM?$DN?$DO@ 0000000180026970     libvcruntime:undname.obj
 0002:00003980       ??_C@_0BC@DAFEJGAK@?5Type?5Descriptor?8@ 0000000180026980     libvcruntime:undname.obj
 0002:00003998       ??_C@_0BM@LDKODKLH@?5Base?5Class?5Descriptor?5at?5?$CI@ 0000000180026998     libvcruntime:undname.obj
 0002:000039b8       ??_C@_0BD@LGICGFMM@?5Base?5Class?5Array?8@ 00000001800269b8     libvcruntime:undname.obj
 0002:000039d0       ??_C@_0BN@MECKDCOJ@?5Class?5Hierarchy?5Descriptor?8@ 00000001800269d0     libvcruntime:undname.obj
 0002:000039f0       ??_C@_0BK@CFCOFLF@?5Complete?5Object?5Locator?8@ 00000001800269f0     libvcruntime:undname.obj
 0002:00003a10       ??_C@_0BG@JNJLAMPM@?$GAanonymous?5namespace?8@ 0000000180026a10     libvcruntime:undname.obj
 0002:00003a40       ??_C@_1DM@KHCHBNEB@?$AAa?$AAp?$AAi?$AA?9?$AAm?$AAs?$AA?9?$AAw?$AAi?$AAn?$AA?9?$AAc?$AAo?$AAr?$AAe@ 0000000180026a40     libvcruntime:winapi_downlevel.obj
 0002:00003a80       ??_C@_1DK@LPPGFMPP@?$AAa?$AAp?$AAi?$AA?9?$AAm?$AAs?$AA?9?$AAw?$AAi?$AAn?$AA?9?$AAc?$AAo?$AAr?$AAe@ 0000000180026a80     libvcruntime:winapi_downlevel.obj
 0002:00003ac0       ??_C@_1BC@GDMECMAK@?$AAk?$AAe?$AAr?$AAn?$AAe?$AAl?$AA3?$AA2@ 0000000180026ac0     libvcruntime:winapi_downlevel.obj
 0002:00003ad8       ??_C@_1BA@PFFKHIOG@?$AAa?$AAp?$AAi?$AA?9?$AAm?$AAs?$AA?9@ 0000000180026ad8     libvcruntime:winapi_downlevel.obj
 0002:00003af0       ??_C@_08KNHFBNJ@FlsAlloc@  0000000180026af0     libvcruntime:winapi_downlevel.obj
 0002:00003b08       ??_C@_07PEJMOBNF@FlsFree@  0000000180026b08     libvcruntime:winapi_downlevel.obj
 0002:00003b18       ??_C@_0M@GDNOONDI@FlsGetValue@ 0000000180026b18     libvcruntime:winapi_downlevel.obj
 0002:00003b30       ??_C@_0M@JCPCPOEF@FlsSetValue@ 0000000180026b30     libvcruntime:winapi_downlevel.obj
 0002:00003b48       ??_C@_0BM@HCFOFFN@InitializeCriticalSectionEx@ 0000000180026b48     libvcruntime:winapi_downlevel.obj
 0002:00003ce0       ?format_validation_lookup_table_spectre@__crt_stdio_output@@3V?$spectre_mitigated_lookup_table@Ustate_transition_pair@__crt_stdio_output@@$0IA@@1@B 0000000180026ce0     libucrt:output.obj
 0002:000040e0       ??_C@_1O@CEDCILHN@?$AA?$CI?$AAn?$AAu?$AAl?$AAl?$AA?$CJ@ 00000001800270e0     libucrt:output.obj
 0002:000040f0       ??_C@_06OJHGLDPL@?$CInull?$CJ@ 00000001800270f0     libucrt:output.obj
 0002:00004100       __acrt_exception_action_table 0000000180027100     libucrt:exception_filter.obj
 0002:000041c0       __acrt_signal_action_table_count 00000001800271c0     libucrt:exception_filter.obj
 0002:000041c8       __acrt_signal_action_first_fpe_index 00000001800271c8     libucrt:exception_filter.obj
 0002:000041d0       __acrt_signal_action_fpe_count 00000001800271d0     libucrt:exception_filter.obj
 0002:000041d8       ??_C@_1BI@BGOHAHKC@?$AAm?$AAs?$AAc?$AAo?$AAr?$AAe?$AAe?$AA?4?$AAd?$AAl?$AAl@ 00000001800271d8     libucrt:exit.obj
 0002:000041f0       ??_C@_0P@MIGLKIOC@CorExitProcess@ 00000001800271f0     libucrt:exit.obj
 0002:000043a0       ??_C@_1EA@JGEFHKEI@?$AAa?$AAp?$AAi?$AA?9?$AAm?$AAs?$AA?9?$AAw?$AAi?$AAn?$AA?9?$AAc?$AAo?$AAr?$AAe@ 00000001800273a0     libucrt:winapi_thunks.obj
 0002:000043e0       ??_C@_1DI@IJCEHOCB@?$AAa?$AAp?$AAi?$AA?9?$AAm?$AAs?$AA?9?$AAw?$AAi?$AAn?$AA?9?$AAc?$AAo?$AAr?$AAe@ 00000001800273e0     libucrt:winapi_thunks.obj
 0002:00004420       ??_C@_1EI@MPIAOHOC@?$AAa?$AAp?$AAi?$AA?9?$AAm?$AAs?$AA?9?$AAw?$AAi?$AAn?$AA?9?$AAc?$AAo?$AAr?$AAe@ 0000000180027420     libucrt:winapi_thunks.obj
 0002:00004470       ??_C@_1FK@FPHCKFIE@?$AAa?$AAp?$AAi?$AA?9?$AAm?$AAs?$AA?9?$AAw?$AAi?$AAn?$AA?9?$AAc?$AAo?$AAr?$AAe@ 0000000180027470     libucrt:winapi_thunks.obj
 0002:000044d0       ??_C@_1EM@DILCGIIO@?$AAa?$AAp?$AAi?$AA?9?$AAm?$AAs?$AA?9?$AAw?$AAi?$AAn?$AA?9?$AAc?$AAo?$AAr?$AAe@ 00000001800274d0     libucrt:winapi_thunks.obj
 0002:00004520       ??_C@_1DM@LNCGDDPN@?$AAa?$AAp?$AAi?$AA?9?$AAm?$AAs?$AA?9?$AAw?$AAi?$AAn?$AA?9?$AAc?$AAo?$AAr?$AAe@ 0000000180027520     libucrt:winapi_thunks.obj
 0002:00004560       ??_C@_1DO@FPAPJEMD@?$AAa?$AAp?$AAi?$AA?9?$AAm?$AAs?$AA?9?$AAw?$AAi?$AAn?$AA?9?$AAc?$AAo?$AAr?$AAe@ 0000000180027560     libucrt:winapi_thunks.obj
 0002:000045a0       ??_C@_1DK@NDHNAHIO@?$AAa?$AAp?$AAi?$AA?9?$AAm?$AAs?$AA?9?$AAw?$AAi?$AAn?$AA?9?$AAc?$AAo?$AAr?$AAe@ 00000001800275a0     libucrt:winapi_thunks.obj
 0002:000045e0       ??_C@_1DM@KGHDGBCM@?$AAa?$AAp?$AAi?$AA?9?$AAm?$AAs?$AA?9?$AAw?$AAi?$AAn?$AA?9?$AAc?$AAo?$AAr?$AAe@ 00000001800275e0     libucrt:winapi_thunks.obj
 0002:00004620       ??_C@_1EO@IJIOEFOH@?$AAa?$AAp?$AAi?$AA?9?$AAm?$AAs?$AA?9?$AAw?$AAi?$AAn?$AA?9?$AAr?$AAt?$AAc?$AAo@ 0000000180027620     libucrt:winapi_thunks.obj
 0002:00004670       ??_C@_1FG@HHGEKANL@?$AAa?$AAp?$AAi?$AA?9?$AAm?$AAs?$AA?9?$AAw?$AAi?$AAn?$AA?9?$AAs?$AAe?$AAc?$AAu@ 0000000180027670     libucrt:winapi_thunks.obj
 0002:000046d0       ??_C@_1EG@DBIOJECG@?$AAe?$AAx?$AAt?$AA?9?$AAm?$AAs?$AA?9?$AAw?$AAi?$AAn?$AA?9?$AAn?$AAt?$AAu?$AAs@ 00000001800276d0     libucrt:winapi_thunks.obj
 0002:00004720       ??_C@_1EO@FIHMJCLF@?$AAe?$AAx?$AAt?$AA?9?$AAm?$AAs?$AA?9?$AAw?$AAi?$AAn?$AA?9?$AAn?$AAt?$AAu?$AAs@ 0000000180027720     libucrt:winapi_thunks.obj
 0002:00004770       ??_C@_1BC@DNHGCMLG@?$AAa?$AAd?$AAv?$AAa?$AAp?$AAi?$AA3?$AA2@ 0000000180027770     libucrt:winapi_thunks.obj
 0002:00004788       ??_C@_1M@OAIMIKLP@?$AAn?$AAt?$AAd?$AAl?$AAl@ 0000000180027788     libucrt:winapi_thunks.obj
 0002:000047a0       ??_C@_1EG@DPGNFKGC@?$AAa?$AAp?$AAi?$AA?9?$AAm?$AAs?$AA?9?$AAw?$AAi?$AAn?$AA?9?$AAa?$AAp?$AAp?$AAm@ 00000001800277a0     libucrt:winapi_thunks.obj
 0002:000047e8       ??_C@_1O@BCCLBEOE@?$AAu?$AAs?$AAe?$AAr?$AA3?$AA2@ 00000001800277e8     libucrt:winapi_thunks.obj
 0002:000047f8       ??_C@_1BA@IAIFMGEF@?$AAe?$AAx?$AAt?$AA?9?$AAm?$AAs?$AA?9@ 00000001800277f8     libucrt:winapi_thunks.obj
 0002:00004810       ??_C@_0BA@FHFNEAED@AreFileApisANSI@ 0000000180027810     libucrt:winapi_thunks.obj
 0002:00004850       ??_C@_0O@KKBNKAPF@LCMapStringEx@ 0000000180027850     libucrt:winapi_thunks.obj
 0002:00004868       ??_C@_0BB@HBDEELFH@LocaleNameToLCID@ 0000000180027868     libucrt:winapi_thunks.obj
 0002:00004880       ??_C@_0CF@OJOFEIGO@AppPolicyGetProcessTerminationM@ 0000000180027880     libucrt:winapi_thunks.obj
 0002:000048b0       ??_C@_0BI@BKLFFAPO@SetThreadStackGuarantee@ 00000001800278b0     libucrt:winapi_thunks.obj
 0002:00004950       ??_C@_03OEIAHPBN@INF@      0000000180027950     libucrt:cvt.obj
 0002:00004954       ??_C@_03OJHLLCGB@inf@      0000000180027954     libucrt:cvt.obj
 0002:00004958       ??_C@_03LKNCIKJB@NAN@      0000000180027958     libucrt:cvt.obj
 0002:0000495c       ??_C@_03LHCJEHON@nan@      000000018002795c     libucrt:cvt.obj
 0002:00004960       ??_C@_09OFJJIMPC@NAN?$CISNAN?$CJ@ 0000000180027960     libucrt:cvt.obj
 0002:00004970       ??_C@_09IPFBKMDL@nan?$CIsnan?$CJ@ 0000000180027970     libucrt:cvt.obj
 0002:00004980       ??_C@_08IKHNHAJ@NAN?$CIIND?$CJ@ 0000000180027980     libucrt:cvt.obj
 0002:00004990       ??_C@_08OFCDMILK@nan?$CIind?$CJ@ 0000000180027990     libucrt:cvt.obj
 0002:0000499c       ??_C@_05KLBDPFGC@e?$CL000@ 000000018002799c     libucrt:cvt.obj
 0002:000049b0       __lc_time_c                00000001800279b0     libucrt:nlsdata.obj
 0002:00004c70       ??_C@_03KOEHGMDN@Sun@      0000000180027c70     libucrt:nlsdata.obj
 0002:00004c74       ??_C@_03PDAGKDH@Mon@       0000000180027c74     libucrt:nlsdata.obj
 0002:00004c78       ??_C@_03NAGEINEP@Tue@      0000000180027c78     libucrt:nlsdata.obj
 0002:00004c7c       ??_C@_03MHOMLAJA@Wed@      0000000180027c7c     libucrt:nlsdata.obj
 0002:00004c80       ??_C@_03IOFIKPDN@Thu@      0000000180027c80     libucrt:nlsdata.obj
 0002:00004c84       ??_C@_03IDIOELNC@Fri@      0000000180027c84     libucrt:nlsdata.obj
 0002:00004c88       ??_C@_03FEFJNEK@Sat@       0000000180027c88     libucrt:nlsdata.obj
 0002:00004c8c       ??_C@_06OOPIFAJ@Sunday@    0000000180027c8c     libucrt:nlsdata.obj
 0002:00004c94       ??_C@_06JLEDEDGH@Monday@   0000000180027c94     libucrt:nlsdata.obj
 0002:00004ca0       ??_C@_07BAAGCFCM@Tuesday@  0000000180027ca0     libucrt:nlsdata.obj
 0002:00004ca8       ??_C@_09DLIGFAKA@Wednesday@ 0000000180027ca8     libucrt:nlsdata.obj
 0002:00004cb8       ??_C@_08HACCIKIA@Thursday@ 0000000180027cb8     libucrt:nlsdata.obj
 0002:00004cc4       ??_C@_06JECMNKMI@Friday@   0000000180027cc4     libucrt:nlsdata.obj
 0002:00004cd0       ??_C@_08INBOOONO@Saturday@ 0000000180027cd0     libucrt:nlsdata.obj
 0002:00004cdc       ??_C@_03JIHJHPIE@Jan@      0000000180027cdc     libucrt:nlsdata.obj
 0002:00004ce0       ??_C@_03HJBDCHOM@Feb@      0000000180027ce0     libucrt:nlsdata.obj
 0002:00004ce4       ??_C@_03ODNJBKGA@Mar@      0000000180027ce4     libucrt:nlsdata.obj
 0002:00004ce8       ??_C@_03LEOLGMJP@Apr@      0000000180027ce8     libucrt:nlsdata.obj
 0002:00004cec       ??_C@_03CNMDKL@May@        0000000180027cec     libucrt:nlsdata.obj
 0002:00004cf0       ??_C@_03IDFGHECI@Jun@      0000000180027cf0     libucrt:nlsdata.obj
 0002:00004cf4       ??_C@_03LBGABGKK@Jul@      0000000180027cf4     libucrt:nlsdata.obj
 0002:00004cf8       ??_C@_03IFJFEIGA@Aug@      0000000180027cf8     libucrt:nlsdata.obj
 0002:00004cfc       ??_C@_03GGCAPAJC@Sep@      0000000180027cfc     libucrt:nlsdata.obj
 0002:00004d00       ??_C@_03BMAOKBAD@Oct@      0000000180027d00     libucrt:nlsdata.obj
 0002:00004d04       ??_C@_03JPJOFNIA@Nov@      0000000180027d04     libucrt:nlsdata.obj
 0002:00004d08       ??_C@_03MKABNOCG@Dec@      0000000180027d08     libucrt:nlsdata.obj
 0002:00004d10       ??_C@_07CGJPFGJA@January@  0000000180027d10     libucrt:nlsdata.obj
 0002:00004d18       ??_C@_08GNJGEPFN@February@ 0000000180027d18     libucrt:nlsdata.obj
 0002:00004d24       ??_C@_05HPCKOFNC@March@    0000000180027d24     libucrt:nlsdata.obj
 0002:00004d2c       ??_C@_05DMJDNLEJ@April@    0000000180027d2c     libucrt:nlsdata.obj
 0002:00004d34       ??_C@_04CNLMGBGM@June@     0000000180027d34     libucrt:nlsdata.obj
 0002:00004d3c       ??_C@_04MIEPOIFP@July@     0000000180027d3c     libucrt:nlsdata.obj
 0002:00004d44       ??_C@_06LBBHFDDG@August@   0000000180027d44     libucrt:nlsdata.obj
 0002:00004d50       ??_C@_09BHHEALKD@September@ 0000000180027d50     libucrt:nlsdata.obj
 0002:00004d60       ??_C@_07JJNFCEND@October@  0000000180027d60     libucrt:nlsdata.obj
 0002:00004d68       ??_C@_08HCHEGEOA@November@ 0000000180027d68     libucrt:nlsdata.obj
 0002:00004d78       ??_C@_08EDHMEBNP@December@ 0000000180027d78     libucrt:nlsdata.obj
 0002:00004d84       ??_C@_02DEDBPAFC@AM@       0000000180027d84     libucrt:nlsdata.obj
 0002:00004d88       ??_C@_02CJNFDJBF@PM@       0000000180027d88     libucrt:nlsdata.obj
 0002:00004d90       ??_C@_08BPBNCDIB@MM?1dd?1yy@ 0000000180027d90     libucrt:nlsdata.obj
 0002:00004da0       ??_C@_0BE@CKGJFCPC@dddd?0?5MMMM?5dd?0?5yyyy@ 0000000180027da0     libucrt:nlsdata.obj
 0002:00004db8       ??_C@_08JCCMCCIL@HH?3mm?3ss@ 0000000180027db8     libucrt:nlsdata.obj
 0002:00004dc8       ??_C@_17MBGCMIPB@?$AAS?$AAu?$AAn@ 0000000180027dc8     libucrt:nlsdata.obj
 0002:00004dd0       ??_C@_17KBOMKBF@?$AAM?$AAo?$AAn@ 0000000180027dd0     libucrt:nlsdata.obj
 0002:00004dd8       ??_C@_17BMKGEGOJ@?$AAT?$AAu?$AAe@ 0000000180027dd8     libucrt:nlsdata.obj
 0002:00004de0       ??_C@_17CJEDCEPE@?$AAW?$AAe?$AAd@ 0000000180027de0     libucrt:nlsdata.obj
 0002:00004de8       ??_C@_17PDPHAADD@?$AAT?$AAh?$AAu@ 0000000180027de8     libucrt:nlsdata.obj
 0002:00004df0       ??_C@_17HFOLPPLP@?$AAF?$AAr?$AAi@ 0000000180027df0     libucrt:nlsdata.obj
 0002:00004df8       ??_C@_17GGIBDPIH@?$AAS?$AAa?$AAt@ 0000000180027df8     libucrt:nlsdata.obj
 0002:00004e00       ??_C@_1O@IHNHDHPB@?$AAS?$AAu?$AAn?$AAd?$AAa?$AAy@ 0000000180027e00     libucrt:nlsdata.obj
 0002:00004e10       ??_C@_1O@MMNBFLIA@?$AAM?$AAo?$AAn?$AAd?$AAa?$AAy@ 0000000180027e10     libucrt:nlsdata.obj
 0002:00004e20       ??_C@_1BA@ENFBFFEK@?$AAT?$AAu?$AAe?$AAs?$AAd?$AAa?$AAy@ 0000000180027e20     libucrt:nlsdata.obj
 0002:00004e30       ??_C@_1BE@EBOGMDOH@?$AAW?$AAe?$AAd?$AAn?$AAe?$AAs?$AAd?$AAa?$AAy@ 0000000180027e30     libucrt:nlsdata.obj
 0002:00004e48       ??_C@_1BC@HHMNLIHE@?$AAT?$AAh?$AAu?$AAr?$AAs?$AAd?$AAa?$AAy@ 0000000180027e48     libucrt:nlsdata.obj
 0002:00004e60       ??_C@_1O@PDICJHAG@?$AAF?$AAr?$AAi?$AAd?$AAa?$AAy@ 0000000180027e60     libucrt:nlsdata.obj
 0002:00004e70       ??_C@_1BC@ENMNNPAJ@?$AAS?$AAa?$AAt?$AAu?$AAr?$AAd?$AAa?$AAy@ 0000000180027e70     libucrt:nlsdata.obj
 0002:00004e88       ??_C@_17DKNBKCHM@?$AAJ?$AAa?$AAn@ 0000000180027e88     libucrt:nlsdata.obj
 0002:00004e90       ??_C@_17LMDJEKJN@?$AAF?$AAe?$AAb@ 0000000180027e90     libucrt:nlsdata.obj
 0002:00004e98       ??_C@_17CKNLEDEC@?$AAM?$AAa?$AAr@ 0000000180027e98     libucrt:nlsdata.obj
 0002:00004ea0       ??_C@_17LFPOIHDD@?$AAA?$AAp?$AAr@ 0000000180027ea0     libucrt:nlsdata.obj
 0002:00004ea8       ??_C@_17PNNKMEED@?$AAM?$AAa?$AAy@ 0000000180027ea8     libucrt:nlsdata.obj
 0002:00004eb0       ??_C@_17KCJGOCPB@?$AAJ?$AAu?$AAn@ 0000000180027eb0     libucrt:nlsdata.obj
 0002:00004eb8       ??_C@_17IJPCKHK@?$AAJ?$AAu?$AAl@ 0000000180027eb8     libucrt:nlsdata.obj
 0002:00004ec0       ??_C@_17ICPELBCN@?$AAA?$AAu?$AAg@ 0000000180027ec0     libucrt:nlsdata.obj
 0002:00004ec8       ??_C@_17HCHCOKMG@?$AAS?$AAe?$AAp@ 0000000180027ec8     libucrt:nlsdata.obj
 0002:00004ed0       ??_C@_17FNLKOI@?$AAO?$AAc?$AAt@ 0000000180027ed0     libucrt:nlsdata.obj
 0002:00004ed8       ??_C@_17BBDMLCIG@?$AAN?$AAo?$AAv@ 0000000180027ed8     libucrt:nlsdata.obj
 0002:00004ee0       ??_C@_17EGKACKIF@?$AAD?$AAe?$AAc@ 0000000180027ee0     libucrt:nlsdata.obj
 0002:00004ee8       ??_C@_1BA@EFMEIEBA@?$AAJ?$AAa?$AAn?$AAu?$AAa?$AAr?$AAy@ 0000000180027ee8     libucrt:nlsdata.obj
 0002:00004ef8       ??_C@_1BC@JGDDFFAM@?$AAF?$AAe?$AAb?$AAr?$AAu?$AAa?$AAr?$AAy@ 0000000180027ef8     libucrt:nlsdata.obj
 0002:00004f10       ??_C@_1M@IKEENEDF@?$AAM?$AAa?$AAr?$AAc?$AAh@ 0000000180027f10     libucrt:nlsdata.obj
 0002:00004f20       ??_C@_1M@GJNLMHFD@?$AAA?$AAp?$AAr?$AAi?$AAl@ 0000000180027f20     libucrt:nlsdata.obj
 0002:00004f30       ??_C@_19EPFLPGAP@?$AAJ?$AAu?$AAn?$AAe@ 0000000180027f30     libucrt:nlsdata.obj
 0002:00004f40       ??_C@_19BIFMLPCD@?$AAJ?$AAu?$AAl?$AAy@ 0000000180027f40     libucrt:nlsdata.obj
 0002:00004f50       ??_C@_1O@PAHLKOAC@?$AAA?$AAu?$AAg?$AAu?$AAs?$AAt@ 0000000180027f50     libucrt:nlsdata.obj
 0002:00004f60       ??_C@_1BE@DKAAMBJL@?$AAS?$AAe?$AAp?$AAt?$AAe?$AAm?$AAb?$AAe?$AAr@ 0000000180027f60     libucrt:nlsdata.obj
 0002:00004f78       ??_C@_1BA@EPANDLNG@?$AAO?$AAc?$AAt?$AAo?$AAb?$AAe?$AAr@ 0000000180027f78     libucrt:nlsdata.obj
 0002:00004f88       ??_C@_1BC@BGLIFPF@?$AAN?$AAo?$AAv?$AAe?$AAm?$AAb?$AAe?$AAr@ 0000000180027f88     libucrt:nlsdata.obj
 0002:00004fa0       ??_C@_1BC@FEMKIFH@?$AAD?$AAe?$AAc?$AAe?$AAm?$AAb?$AAe?$AAr@ 0000000180027fa0     libucrt:nlsdata.obj
 0002:00004fb4       ??_C@_15ODEHAHHF@?$AAA?$AAM@ 0000000180027fb4     libucrt:nlsdata.obj
 0002:00004fbc       ??_C@_15CLMNNGEL@?$AAP?$AAM@ 0000000180027fbc     libucrt:nlsdata.obj
 0002:00004fc8       ??_C@_1BC@IEBCMHCM@?$AAM?$AAM?$AA?1?$AAd?$AAd?$AA?1?$AAy?$AAy@ 0000000180027fc8     libucrt:nlsdata.obj
 0002:00004fe0       ??_C@_1CI@KNAKOEBC@?$AAd?$AAd?$AAd?$AAd?$AA?0?$AA?5?$AAM?$AAM?$AAM?$AAM?$AA?5?$AAd?$AAd?$AA?0?$AA?5@ 0000000180027fe0     libucrt:nlsdata.obj
 0002:00005008       ??_C@_1BC@GDGBMEMK@?$AAH?$AAH?$AA?3?$AAm?$AAm?$AA?3?$AAs?$AAs@ 0000000180028008     libucrt:nlsdata.obj
 0002:00005020       ??_C@_1M@BMHNFIME@?$AAe?$AAn?$AA?9?$AAU?$AAS@ 0000000180028020     libucrt:nlsdata.obj
 0002:00005050       ??_C@_1M@HPNHIDJI@?$AAj?$AAa?$AA?9?$AAJ?$AAP@ 0000000180028050     libucrt:mbctype.obj
 0002:00005060       ??_C@_1M@BIBDDEMK@?$AAz?$AAh?$AA?9?$AAC?$AAN@ 0000000180028060     libucrt:mbctype.obj
 0002:00005070       ??_C@_1M@JLOOOEGK@?$AAk?$AAo?$AA?9?$AAK?$AAR@ 0000000180028070     libucrt:mbctype.obj
 0002:00005080       ??_C@_1M@CLNBBOPM@?$AAz?$AAh?$AA?9?$AAT?$AAW@ 0000000180028080     libucrt:mbctype.obj
 0002:00005090       __newctype                 0000000180028090     libucrt:ctype.obj
 0002:00005390       __newclmap                 0000000180028390     libucrt:ctype.obj
 0002:00005510       __newcumap                 0000000180028510     libucrt:ctype.obj
 0002:00005690       _wctype                    0000000180028690     libucrt:ctype.obj
 0002:000066e0       ??_C@_15EMKDOKLE@?$AAa?$AAr@ 00000001800296e0     libucrt:lcidtoname_downlevel.obj
 0002:000066e8       ??_C@_15KNPADPLH@?$AAb?$AAg@ 00000001800296e8     libucrt:lcidtoname_downlevel.obj
 0002:000066f0       ??_C@_15EDMHLDMO@?$AAc?$AAa@ 00000001800296f0     libucrt:lcidtoname_downlevel.obj
 0002:000066f8       ??_C@_1O@BPEAJADD@?$AAz?$AAh?$AA?9?$AAC?$AAH?$AAS@ 00000001800296f8     libucrt:lcidtoname_downlevel.obj
 0002:00006708       ??_C@_15LJNHCMNK@?$AAc?$AAs@ 0000000180029708     libucrt:lcidtoname_downlevel.obj
 0002:00006710       ??_C@_15FOMCIDHG@?$AAd?$AAa@ 0000000180029710     libucrt:lcidtoname_downlevel.obj
 0002:00006718       ??_C@_15NBKABECB@?$AAd?$AAe@ 0000000180029718     libucrt:lcidtoname_downlevel.obj
 0002:00006720       ??_C@_15GHPEIIAO@?$AAe?$AAl@ 0000000180029720     libucrt:lcidtoname_downlevel.obj
 0002:00006728       ??_C@_15MNPNEAIF@?$AAe?$AAn@ 0000000180029728     libucrt:lcidtoname_downlevel.obj
 0002:00006730       ??_C@_15GPIOMPMH@?$AAe?$AAs@ 0000000180029730     libucrt:lcidtoname_downlevel.obj
 0002:00006738       ??_C@_15NGLOAKJC@?$AAf?$AAi@ 0000000180029738     libucrt:lcidtoname_downlevel.obj
 0002:00006740       ??_C@_15FBKGNKAM@?$AAf?$AAr@ 0000000180029740     libucrt:lcidtoname_downlevel.obj
 0002:00006748       ??_C@_15KGGCNEFK@?$AAh?$AAe@ 0000000180029748     libucrt:lcidtoname_downlevel.obj
 0002:00006750       ??_C@_15PGHLIDMF@?$AAh?$AAu@ 0000000180029750     libucrt:lcidtoname_downlevel.obj
 0002:00006758       ??_C@_15BIEMAPLM@?$AAi?$AAs@ 0000000180029758     libucrt:lcidtoname_downlevel.obj
 0002:00006760       ??_C@_15IFJLDHAF@?$AAi?$AAt@ 0000000180029760     libucrt:lcidtoname_downlevel.obj
 0002:00006768       ??_C@_15GEMIOCAG@?$AAj?$AAa@ 0000000180029768     libucrt:lcidtoname_downlevel.obj
 0002:00006770       ??_C@_15EPELEGJA@?$AAk?$AAo@ 0000000180029770     libucrt:lcidtoname_downlevel.obj
 0002:00006778       ??_C@_15NDDHIMN@?$AAn?$AAl@ 0000000180029778     libucrt:lcidtoname_downlevel.obj
 0002:00006780       ??_C@_15BPIGNHCD@?$AAn?$AAo@ 0000000180029780     libucrt:lcidtoname_downlevel.obj
 0002:00006788       ??_C@_15DEOPBLCG@?$AAp?$AAl@ 0000000180029788     libucrt:lcidtoname_downlevel.obj
 0002:00006790       ??_C@_15KBECGEFG@?$AAp?$AAt@ 0000000180029790     libucrt:lcidtoname_downlevel.obj
 0002:00006798       ??_C@_15GLJCBFMD@?$AAr?$AAo@ 0000000180029798     libucrt:lcidtoname_downlevel.obj
 0002:000067a0       ??_C@_15FEDGKCDI@?$AAr?$AAu@ 00000001800297a0     libucrt:lcidtoname_downlevel.obj
 0002:000067a8       ??_C@_15GLKMLLHM@?$AAh?$AAr@ 00000001800297a8     libucrt:lcidtoname_downlevel.obj
 0002:000067b0       ??_C@_15CPKMFBDB@?$AAs?$AAk@ 00000001800297b0     libucrt:lcidtoname_downlevel.obj
 0002:000067b8       ??_C@_15BAAIOGMK@?$AAs?$AAq@ 00000001800297b8     libucrt:lcidtoname_downlevel.obj
 0002:000067c0       ??_C@_15INNPNOHD@?$AAs?$AAv@ 00000001800297c0     libucrt:lcidtoname_downlevel.obj
 0002:000067c8       ??_C@_15CABMMOGH@?$AAt?$AAh@ 00000001800297c8     libucrt:lcidtoname_downlevel.obj
 0002:000067d0       ??_C@_15BPLIHJJM@?$AAt?$AAr@ 00000001800297d0     libucrt:lcidtoname_downlevel.obj
 0002:000067d8       ??_C@_15NEOEKKDJ@?$AAu?$AAr@ 00000001800297d8     libucrt:lcidtoname_downlevel.obj
 0002:000067e0       ??_C@_15NFICGAJK@?$AAi?$AAd@ 00000001800297e0     libucrt:lcidtoname_downlevel.obj
 0002:000067e8       ??_C@_15PJPFLCCM@?$AAu?$AAk@ 00000001800297e8     libucrt:lcidtoname_downlevel.obj
 0002:000067f0       ??_C@_15HPJPHDM@?$AAb?$AAe@ 00000001800297f0     libucrt:lcidtoname_downlevel.obj
 0002:000067f8       ??_C@_15LCHLGJII@?$AAs?$AAl@ 00000001800297f8     libucrt:lcidtoname_downlevel.obj
 0002:00006800       ??_C@_15PCFJPHHO@?$AAe?$AAt@ 0000000180029800     libucrt:lcidtoname_downlevel.obj
 0002:00006808       ??_C@_15HPFPGODN@?$AAl?$AAv@ 0000000180029808     libucrt:lcidtoname_downlevel.obj
 0002:00006810       ??_C@_15NFFGKGLG@?$AAl?$AAt@ 0000000180029810     libucrt:lcidtoname_downlevel.obj
 0002:00006818       ??_C@_15BDAKCCHN@?$AAf?$AAa@ 0000000180029818     libucrt:lcidtoname_downlevel.obj
 0002:00006820       ??_C@_15NFGIAIAJ@?$AAv?$AAi@ 0000000180029820     libucrt:lcidtoname_downlevel.obj
 0002:00006828       ??_C@_15LMKNDMHN@?$AAh?$AAy@ 0000000180029828     libucrt:lcidtoname_downlevel.obj
 0002:00006830       ??_C@_15IJBHMCFL@?$AAa?$AAz@ 0000000180029830     libucrt:lcidtoname_downlevel.obj
 0002:00006838       ??_C@_15EKOFJABL@?$AAe?$AAu@ 0000000180029838     libucrt:lcidtoname_downlevel.obj
 0002:00006840       ??_C@_15BGHADCNK@?$AAm?$AAk@ 0000000180029840     libucrt:lcidtoname_downlevel.obj
 0002:00006848       ??_C@_15JDNICKHM@?$AAa?$AAf@ 0000000180029848     libucrt:lcidtoname_downlevel.obj
 0002:00006850       ??_C@_15KPJEDBKD@?$AAk?$AAa@ 0000000180029850     libucrt:lcidtoname_downlevel.obj
 0002:00006858       ??_C@_15PDNFFFEO@?$AAf?$AAo@ 0000000180029858     libucrt:lcidtoname_downlevel.obj
 0002:00006860       ??_C@_15OMLEGLOC@?$AAh?$AAi@ 0000000180029860     libucrt:lcidtoname_downlevel.obj
 0002:00006868       ??_C@_15IDNNENKK@?$AAm?$AAs@ 0000000180029868     libucrt:lcidtoname_downlevel.obj
 0002:00006870       ??_C@_15MACJNBMH@?$AAk?$AAk@ 0000000180029870     libucrt:lcidtoname_downlevel.obj
 0002:00006878       ??_C@_15DKDJEOND@?$AAk?$AAy@ 0000000180029878     libucrt:lcidtoname_downlevel.obj
 0002:00006880       ??_C@_15DFGDLJBG@?$AAs?$AAw@ 0000000180029880     libucrt:lcidtoname_downlevel.obj
 0002:00006888       ??_C@_15BBFAICNG@?$AAu?$AAz@ 0000000180029888     libucrt:lcidtoname_downlevel.obj
 0002:00006890       ??_C@_15DKNDCGEA@?$AAt?$AAt@ 0000000180029890     libucrt:lcidtoname_downlevel.obj
 0002:00006898       ??_C@_15MGIFMDPL@?$AAp?$AAa@ 0000000180029898     libucrt:lcidtoname_downlevel.obj
 0002:000068a0       ??_C@_15HCNDBBA@?$AAg?$AAu@ 00000001800298a0     libucrt:lcidtoname_downlevel.obj
 0002:000068a8       ??_C@_15FNBEIBON@?$AAt?$AAa@ 00000001800298a8     libucrt:lcidtoname_downlevel.obj
 0002:000068b0       ??_C@_15NCHGBGLK@?$AAt?$AAe@ 00000001800298b0     libucrt:lcidtoname_downlevel.obj
 0002:000068b8       ??_C@_15PHPHCBPF@?$AAk?$AAn@ 00000001800298b8     libucrt:lcidtoname_downlevel.obj
 0002:000068c0       ??_C@_15DLGBCKMP@?$AAm?$AAr@ 00000001800298c0     libucrt:lcidtoname_downlevel.obj
 0002:000068c8       ??_C@_15EABBLBFF@?$AAs?$AAa@ 00000001800298c8     libucrt:lcidtoname_downlevel.obj
 0002:000068d0       ??_C@_15CBKOMCOI@?$AAm?$AAn@ 00000001800298d0     libucrt:lcidtoname_downlevel.obj
 0002:000068d8       ??_C@_15CKDMCJAF@?$AAg?$AAl@ 00000001800298d8     libucrt:lcidtoname_downlevel.obj
 0002:000068e0       ??_C@_17CNJFBPG@?$AAk?$AAo?$AAk@ 00000001800298e0     libucrt:lcidtoname_downlevel.obj
 0002:000068e8       ??_C@_17FFBJICPL@?$AAs?$AAy?$AAr@ 00000001800298e8     libucrt:lcidtoname_downlevel.obj
 0002:000068f0       ??_C@_17KPNDCPAF@?$AAd?$AAi?$AAv@ 00000001800298f0     libucrt:lcidtoname_downlevel.obj
 0002:000068f8       ??_C@_1M@OKAHONE@?$AAa?$AAr?$AA?9?$AAS?$AAA@ 00000001800298f8     libucrt:lcidtoname_downlevel.obj
 0002:00006908       ??_C@_1M@FFFIGIGK@?$AAb?$AAg?$AA?9?$AAB?$AAG@ 0000000180029908     libucrt:lcidtoname_downlevel.obj
 0002:00006918       ??_C@_1M@BJNKEDC@?$AAc?$AAa?$AA?9?$AAE?$AAS@ 0000000180029918     libucrt:lcidtoname_downlevel.obj
 0002:00006928       ??_C@_1M@IJJHFJHA@?$AAc?$AAs?$AA?9?$AAC?$AAZ@ 0000000180029928     libucrt:lcidtoname_downlevel.obj
 0002:00006938       ??_C@_1M@CLPEOBGI@?$AAd?$AAa?$AA?9?$AAD?$AAK@ 0000000180029938     libucrt:lcidtoname_downlevel.obj
 0002:00006948       ??_C@_1M@MCMADGCB@?$AAd?$AAe?$AA?9?$AAD?$AAE@ 0000000180029948     libucrt:lcidtoname_downlevel.obj
 0002:00006958       ??_C@_1M@OOCKEMAM@?$AAe?$AAl?$AA?9?$AAG?$AAR@ 0000000180029958     libucrt:lcidtoname_downlevel.obj
 0002:00006968       ??_C@_1M@DDNJFGID@?$AAf?$AAi?$AA?9?$AAF?$AAI@ 0000000180029968     libucrt:lcidtoname_downlevel.obj
 0002:00006978       ??_C@_1M@GLIPPMAC@?$AAf?$AAr?$AA?9?$AAF?$AAR@ 0000000180029978     libucrt:lcidtoname_downlevel.obj
 0002:00006988       ??_C@_1M@GFMCHPE@?$AAh?$AAe?$AA?9?$AAI?$AAL@ 0000000180029988     libucrt:lcidtoname_downlevel.obj
 0002:00006998       ??_C@_1M@MHLPGNKM@?$AAh?$AAu?$AA?9?$AAH?$AAU@ 0000000180029998     libucrt:lcidtoname_downlevel.obj
 0002:000069a8       ??_C@_1M@LPDDNNPN@?$AAi?$AAs?$AA?9?$AAI?$AAS@ 00000001800299a8     libucrt:lcidtoname_downlevel.obj
 0002:000069b8       ??_C@_1M@MADIPODN@?$AAi?$AAt?$AA?9?$AAI?$AAT@ 00000001800299b8     libucrt:lcidtoname_downlevel.obj
 0002:000069c8       ??_C@_1M@IHBJJGG@?$AAn?$AAl?$AA?9?$AAN?$AAL@ 00000001800299c8     libucrt:lcidtoname_downlevel.obj
 0002:000069d8       ??_C@_1M@EANAGDL@?$AAn?$AAb?$AA?9?$AAN?$AAO@ 00000001800299d8     libucrt:lcidtoname_downlevel.obj
 0002:000069e8       ??_C@_1M@NEIEMEGP@?$AAp?$AAl?$AA?9?$AAP?$AAL@ 00000001800299e8     libucrt:lcidtoname_downlevel.obj
 0002:000069f8       ??_C@_1M@BOCFIGEP@?$AAp?$AAt?$AA?9?$AAB?$AAR@ 00000001800299f8     libucrt:lcidtoname_downlevel.obj
 0002:00006a08       ??_C@_1M@IMPFOPBG@?$AAr?$AAo?$AA?9?$AAR?$AAO@ 0000000180029a08     libucrt:lcidtoname_downlevel.obj
 0002:00006a18       ??_C@_1M@IDNNEJMM@?$AAr?$AAu?$AA?9?$AAR?$AAU@ 0000000180029a18     libucrt:lcidtoname_downlevel.obj
 0002:00006a28       ??_C@_1M@LILEEOGM@?$AAh?$AAr?$AA?9?$AAH?$AAR@ 0000000180029a28     libucrt:lcidtoname_downlevel.obj
 0002:00006a38       ??_C@_1M@FKIFEHPB@?$AAs?$AAk?$AA?9?$AAS?$AAK@ 0000000180029a38     libucrt:lcidtoname_downlevel.obj
 0002:00006a48       ??_C@_1M@LJMAMNPJ@?$AAs?$AAq?$AA?9?$AAA?$AAL@ 0000000180029a48     libucrt:lcidtoname_downlevel.obj
 0002:00006a58       ??_C@_1M@GIAKDKJK@?$AAs?$AAv?$AA?9?$AAS?$AAE@ 0000000180029a58     libucrt:lcidtoname_downlevel.obj
 0002:00006a68       ??_C@_1M@MKJKIKCL@?$AAt?$AAh?$AA?9?$AAT?$AAH@ 0000000180029a68     libucrt:lcidtoname_downlevel.obj
 0002:00006a78       ??_C@_1M@MFLCCMPB@?$AAt?$AAr?$AA?9?$AAT?$AAR@ 0000000180029a78     libucrt:lcidtoname_downlevel.obj
 0002:00006a88       ??_C@_1M@OIJHDKJN@?$AAu?$AAr?$AA?9?$AAP?$AAK@ 0000000180029a88     libucrt:lcidtoname_downlevel.obj
 0002:00006a98       ??_C@_1M@LHIPCIEK@?$AAi?$AAd?$AA?9?$AAI?$AAD@ 0000000180029a98     libucrt:lcidtoname_downlevel.obj
 0002:00006aa8       ??_C@_1M@MFMOBGI@?$AAu?$AAk?$AA?9?$AAU?$AAA@ 0000000180029aa8     libucrt:lcidtoname_downlevel.obj
 0002:00006ab8       ??_C@_1M@OBGLJIPL@?$AAb?$AAe?$AA?9?$AAB?$AAY@ 0000000180029ab8     libucrt:lcidtoname_downlevel.obj
 0002:00006ac8       ??_C@_1M@BCFAJEAD@?$AAs?$AAl?$AA?9?$AAS?$AAI@ 0000000180029ac8     libucrt:lcidtoname_downlevel.obj
 0002:00006ad8       ??_C@_1M@FKFFEDDN@?$AAe?$AAt?$AA?9?$AAE?$AAE@ 0000000180029ad8     libucrt:lcidtoname_downlevel.obj
 0002:00006ae8       ??_C@_1M@KGKKAACI@?$AAl?$AAv?$AA?9?$AAL?$AAV@ 0000000180029ae8     libucrt:lcidtoname_downlevel.obj
 0002:00006af8       ??_C@_1M@IFGBIJO@?$AAl?$AAt?$AA?9?$AAL?$AAT@ 0000000180029af8     libucrt:lcidtoname_downlevel.obj
 0002:00006b08       ??_C@_1M@FGEAHEDM@?$AAf?$AAa?$AA?9?$AAI?$AAR@ 0000000180029b08     libucrt:lcidtoname_downlevel.obj
 0002:00006b18       ??_C@_1M@KBMAIBFN@?$AAv?$AAi?$AA?9?$AAV?$AAN@ 0000000180029b18     libucrt:lcidtoname_downlevel.obj
 0002:00006b28       ??_C@_1M@GPCBKDJK@?$AAh?$AAy?$AA?9?$AAA?$AAM@ 0000000180029b28     libucrt:lcidtoname_downlevel.obj
 0002:00006b38       ??_C@_1BG@BECMDDJB@?$AAa?$AAz?$AA?9?$AAA?$AAZ?$AA?9?$AAL?$AAa?$AAt?$AAn@ 0000000180029b38     libucrt:lcidtoname_downlevel.obj
 0002:00006b50       ??_C@_1M@MAOFCAEA@?$AAe?$AAu?$AA?9?$AAE?$AAS@ 0000000180029b50     libucrt:lcidtoname_downlevel.obj
 0002:00006b60       ??_C@_1M@IGHABKPI@?$AAm?$AAk?$AA?9?$AAM?$AAK@ 0000000180029b60     libucrt:lcidtoname_downlevel.obj
 0002:00006b70       ??_C@_1M@IAIGNEJG@?$AAt?$AAn?$AA?9?$AAZ?$AAA@ 0000000180029b70     libucrt:lcidtoname_downlevel.obj
 0002:00006b80       ??_C@_1M@IIJCOJFA@?$AAx?$AAh?$AA?9?$AAZ?$AAA@ 0000000180029b80     libucrt:lcidtoname_downlevel.obj
 0002:00006b90       ??_C@_1M@LGPJHNJH@?$AAz?$AAu?$AA?9?$AAZ?$AAA@ 0000000180029b90     libucrt:lcidtoname_downlevel.obj
 0002:00006ba0       ??_C@_1M@HOKAOIO@?$AAa?$AAf?$AA?9?$AAZ?$AAA@ 0000000180029ba0     libucrt:lcidtoname_downlevel.obj
 0002:00006bb0       ??_C@_1M@DPCLHLIE@?$AAk?$AAa?$AA?9?$AAG?$AAE@ 0000000180029bb0     libucrt:lcidtoname_downlevel.obj
 0002:00006bc0       ??_C@_1M@BLKMHJBI@?$AAf?$AAo?$AA?9?$AAF?$AAO@ 0000000180029bc0     libucrt:lcidtoname_downlevel.obj
 0002:00006bd0       ??_C@_1M@LGGJAPPB@?$AAh?$AAi?$AA?9?$AAI?$AAN@ 0000000180029bd0     libucrt:lcidtoname_downlevel.obj
 0002:00006be0       ??_C@_1M@FIKPIHFE@?$AAm?$AAt?$AA?9?$AAM?$AAT@ 0000000180029be0     libucrt:lcidtoname_downlevel.obj
 0002:00006bf0       ??_C@_1M@HEGGPBFA@?$AAs?$AAe?$AA?9?$AAN?$AAO@ 0000000180029bf0     libucrt:lcidtoname_downlevel.obj
 0002:00006c00       ??_C@_1M@EIBJEEPA@?$AAm?$AAs?$AA?9?$AAM?$AAY@ 0000000180029c00     libucrt:lcidtoname_downlevel.obj
 0002:00006c10       ??_C@_1M@FHLBGMPP@?$AAk?$AAk?$AA?9?$AAK?$AAZ@ 0000000180029c10     libucrt:lcidtoname_downlevel.obj
 0002:00006c20       ??_C@_1M@NGJJLCGI@?$AAk?$AAy?$AA?9?$AAK?$AAG@ 0000000180029c20     libucrt:lcidtoname_downlevel.obj
 0002:00006c30       ??_C@_1M@GIENNBFC@?$AAs?$AAw?$AA?9?$AAK?$AAE@ 0000000180029c30     libucrt:lcidtoname_downlevel.obj
 0002:00006c40       ??_C@_1BG@NDGMJIMJ@?$AAu?$AAz?$AA?9?$AAU?$AAZ?$AA?9?$AAL?$AAa?$AAt?$AAn@ 0000000180029c40     libucrt:lcidtoname_downlevel.obj
 0002:00006c58       ??_C@_1M@IDCCIHBC@?$AAt?$AAt?$AA?9?$AAR?$AAU@ 0000000180029c58     libucrt:lcidtoname_downlevel.obj
 0002:00006c68       ??_C@_1M@LOICPMOJ@?$AAb?$AAn?$AA?9?$AAI?$AAN@ 0000000180029c68     libucrt:lcidtoname_downlevel.obj
 0002:00006c78       ??_C@_1M@KPKKNEAH@?$AAp?$AAa?$AA?9?$AAI?$AAN@ 0000000180029c78     libucrt:lcidtoname_downlevel.obj
 0002:00006c88       ??_C@_1M@PJGPPBOG@?$AAg?$AAu?$AA?9?$AAI?$AAN@ 0000000180029c88     libucrt:lcidtoname_downlevel.obj
 0002:00006c98       ??_C@_1M@KMKMOPHI@?$AAt?$AAa?$AA?9?$AAI?$AAN@ 0000000180029c98     libucrt:lcidtoname_downlevel.obj
 0002:00006ca8       ??_C@_1M@KFEHEPAC@?$AAt?$AAe?$AA?9?$AAI?$AAN@ 0000000180029ca8     libucrt:lcidtoname_downlevel.obj
 0002:00006cb8       ??_C@_1M@CDCLMGHI@?$AAk?$AAn?$AA?9?$AAI?$AAN@ 0000000180029cb8     libucrt:lcidtoname_downlevel.obj
 0002:00006cc8       ??_C@_1M@MIODLDKF@?$AAm?$AAl?$AA?9?$AAI?$AAN@ 0000000180029cc8     libucrt:lcidtoname_downlevel.obj
 0002:00006cd8       ??_C@_1M@PBIEACPO@?$AAm?$AAr?$AA?9?$AAI?$AAN@ 0000000180029cd8     libucrt:lcidtoname_downlevel.obj
 0002:00006ce8       ??_C@_1M@NIDEAGPH@?$AAs?$AAa?$AA?9?$AAI?$AAN@ 0000000180029ce8     libucrt:lcidtoname_downlevel.obj
 0002:00006cf8       ??_C@_1M@FHIHCBIO@?$AAm?$AAn?$AA?9?$AAM?$AAN@ 0000000180029cf8     libucrt:lcidtoname_downlevel.obj
 0002:00006d08       ??_C@_1M@JAIJPENP@?$AAc?$AAy?$AA?9?$AAG?$AAB@ 0000000180029d08     libucrt:lcidtoname_downlevel.obj
 0002:00006d18       ??_C@_1M@PHGFBEPN@?$AAg?$AAl?$AA?9?$AAE?$AAS@ 0000000180029d18     libucrt:lcidtoname_downlevel.obj
 0002:00006d28       ??_C@_1O@KPIPDNCP@?$AAk?$AAo?$AAk?$AA?9?$AAI?$AAN@ 0000000180029d28     libucrt:lcidtoname_downlevel.obj
 0002:00006d38       ??_C@_1O@KNHJLDJA@?$AAs?$AAy?$AAr?$AA?9?$AAS?$AAY@ 0000000180029d38     libucrt:lcidtoname_downlevel.obj
 0002:00006d48       ??_C@_1O@MKEKBLAH@?$AAd?$AAi?$AAv?$AA?9?$AAM?$AAV@ 0000000180029d48     libucrt:lcidtoname_downlevel.obj
 0002:00006d58       ??_C@_1O@OHDCKDDF@?$AAq?$AAu?$AAz?$AA?9?$AAB?$AAO@ 0000000180029d58     libucrt:lcidtoname_downlevel.obj
 0002:00006d68       ??_C@_1M@LEPJNLFD@?$AAn?$AAs?$AA?9?$AAZ?$AAA@ 0000000180029d68     libucrt:lcidtoname_downlevel.obj
 0002:00006d78       ??_C@_1M@OMLEIIJB@?$AAm?$AAi?$AA?9?$AAN?$AAZ@ 0000000180029d78     libucrt:lcidtoname_downlevel.obj
 0002:00006d88       ??_C@_1M@PMPEAILG@?$AAa?$AAr?$AA?9?$AAI?$AAQ@ 0000000180029d88     libucrt:lcidtoname_downlevel.obj
 0002:00006d98       ??_C@_1M@CNKPNOEE@?$AAd?$AAe?$AA?9?$AAC?$AAH@ 0000000180029d98     libucrt:lcidtoname_downlevel.obj
 0002:00006da8       ??_C@_1M@LKMGMLKO@?$AAe?$AAn?$AA?9?$AAG?$AAB@ 0000000180029da8     libucrt:lcidtoname_downlevel.obj
 0002:00006db8       ??_C@_1M@PGKJFFGL@?$AAe?$AAs?$AA?9?$AAM?$AAX@ 0000000180029db8     libucrt:lcidtoname_downlevel.obj
 0002:00006dc8       ??_C@_1M@DNNANBDC@?$AAf?$AAr?$AA?9?$AAB?$AAE@ 0000000180029dc8     libucrt:lcidtoname_downlevel.obj
 0002:00006dd8       ??_C@_1M@HLGMDFHM@?$AAi?$AAt?$AA?9?$AAC?$AAH@ 0000000180029dd8     libucrt:lcidtoname_downlevel.obj
 0002:00006de8       ??_C@_1M@CLLBGJH@?$AAn?$AAl?$AA?9?$AAB?$AAE@ 0000000180029de8     libucrt:lcidtoname_downlevel.obj
 0002:00006df8       ??_C@_1M@BODBOGLF@?$AAn?$AAn?$AA?9?$AAN?$AAO@ 0000000180029df8     libucrt:lcidtoname_downlevel.obj
 0002:00006e08       ??_C@_1M@HFFAHKAD@?$AAp?$AAt?$AA?9?$AAP?$AAT@ 0000000180029e08     libucrt:lcidtoname_downlevel.obj
 0002:00006e18       ??_C@_1BG@LNOAKHIE@?$AAs?$AAr?$AA?9?$AAS?$AAP?$AA?9?$AAL?$AAa?$AAt?$AAn@ 0000000180029e18     libucrt:lcidtoname_downlevel.obj
 0002:00006e30       ??_C@_1M@HBMHBGAK@?$AAs?$AAv?$AA?9?$AAF?$AAI@ 0000000180029e30     libucrt:lcidtoname_downlevel.obj
 0002:00006e40       ??_C@_1BG@DGCJGJBE@?$AAa?$AAz?$AA?9?$AAA?$AAZ?$AA?9?$AAC?$AAy?$AAr?$AAl@ 0000000180029e40     libucrt:lcidtoname_downlevel.obj
 0002:00006e58       ??_C@_1M@KEJDAAHB@?$AAs?$AAe?$AA?9?$AAS?$AAE@ 0000000180029e58     libucrt:lcidtoname_downlevel.obj
 0002:00006e68       ??_C@_1M@HEIBJJAD@?$AAm?$AAs?$AA?9?$AAB?$AAN@ 0000000180029e68     libucrt:lcidtoname_downlevel.obj
 0002:00006e78       ??_C@_1BG@PBGJMCEM@?$AAu?$AAz?$AA?9?$AAU?$AAZ?$AA?9?$AAC?$AAy?$AAr?$AAl@ 0000000180029e78     libucrt:lcidtoname_downlevel.obj
 0002:00006e90       ??_C@_1O@LAOBCMDF@?$AAq?$AAu?$AAz?$AA?9?$AAE?$AAC@ 0000000180029e90     libucrt:lcidtoname_downlevel.obj
 0002:00006ea0       ??_C@_1M@POEEMAIO@?$AAa?$AAr?$AA?9?$AAE?$AAG@ 0000000180029ea0     libucrt:lcidtoname_downlevel.obj
 0002:00006eb0       ??_C@_1M@EFAKDEDL@?$AAz?$AAh?$AA?9?$AAH?$AAK@ 0000000180029eb0     libucrt:lcidtoname_downlevel.obj
 0002:00006ec0       ??_C@_1M@HKKIJHGI@?$AAd?$AAe?$AA?9?$AAA?$AAT@ 0000000180029ec0     libucrt:lcidtoname_downlevel.obj
 0002:00006ed0       ??_C@_1M@KBFBEHJF@?$AAe?$AAn?$AA?9?$AAA?$AAU@ 0000000180029ed0     libucrt:lcidtoname_downlevel.obj
 0002:00006ee0       ??_C@_1M@MNPLFAAH@?$AAe?$AAs?$AA?9?$AAE?$AAS@ 0000000180029ee0     libucrt:lcidtoname_downlevel.obj
 0002:00006ef0       ??_C@_1M@HJOOJFMA@?$AAf?$AAr?$AA?9?$AAC?$AAA@ 0000000180029ef0     libucrt:lcidtoname_downlevel.obj
 0002:00006f00       ??_C@_1BG@JPOFPNAB@?$AAs?$AAr?$AA?9?$AAS?$AAP?$AA?9?$AAC?$AAy?$AAr?$AAl@ 0000000180029f00     libucrt:lcidtoname_downlevel.obj
 0002:00006f18       ??_C@_1M@LNFOCMOB@?$AAs?$AAe?$AA?9?$AAF?$AAI@ 0000000180029f18     libucrt:lcidtoname_downlevel.obj
 0002:00006f28       ??_C@_1O@MGJBOAMB@?$AAq?$AAu?$AAz?$AA?9?$AAP?$AAE@ 0000000180029f28     libucrt:lcidtoname_downlevel.obj
 0002:00006f38       ??_C@_1M@GJINLBOK@?$AAa?$AAr?$AA?9?$AAL?$AAY@ 0000000180029f38     libucrt:lcidtoname_downlevel.obj
 0002:00006f48       ??_C@_1M@GGMNHJNL@?$AAz?$AAh?$AA?9?$AAS?$AAG@ 0000000180029f48     libucrt:lcidtoname_downlevel.obj
 0002:00006f58       ??_C@_1M@HOIKODND@?$AAd?$AAe?$AA?9?$AAL?$AAU@ 0000000180029f58     libucrt:lcidtoname_downlevel.obj
 0002:00006f68       ??_C@_1M@DDOCCGFG@?$AAe?$AAn?$AA?9?$AAC?$AAA@ 0000000180029f68     libucrt:lcidtoname_downlevel.obj
 0002:00006f78       ??_C@_1M@BNOEMJLF@?$AAe?$AAs?$AA?9?$AAG?$AAT@ 0000000180029f78     libucrt:lcidtoname_downlevel.obj
 0002:00006f88       ??_C@_1M@EOGNKEK@?$AAf?$AAr?$AA?9?$AAC?$AAH@ 0000000180029f88     libucrt:lcidtoname_downlevel.obj
 0002:00006f98       ??_C@_1M@FLIDJFHL@?$AAh?$AAr?$AA?9?$AAB?$AAA@ 0000000180029f98     libucrt:lcidtoname_downlevel.obj
 0002:00006fa8       ??_C@_1O@FMCELNAJ@?$AAs?$AAm?$AAj?$AA?9?$AAN?$AAO@ 0000000180029fa8     libucrt:lcidtoname_downlevel.obj
 0002:00006fb8       ??_C@_1M@JHGLJMGJ@?$AAa?$AAr?$AA?9?$AAD?$AAZ@ 0000000180029fb8     libucrt:lcidtoname_downlevel.obj
 0002:00006fc8       ??_C@_1M@JKKFDCNP@?$AAz?$AAh?$AA?9?$AAM?$AAO@ 0000000180029fc8     libucrt:lcidtoname_downlevel.obj
 0002:00006fd8       ??_C@_1M@GEEFALPE@?$AAd?$AAe?$AA?9?$AAL?$AAI@ 0000000180029fd8     libucrt:lcidtoname_downlevel.obj
 0002:00006fe8       ??_C@_1M@IGEOFBG@?$AAe?$AAn?$AA?9?$AAN?$AAZ@ 0000000180029fe8     libucrt:lcidtoname_downlevel.obj
 0002:00006ff8       ??_C@_1M@KDBONEHP@?$AAe?$AAs?$AA?9?$AAC?$AAR@ 0000000180029ff8     libucrt:lcidtoname_downlevel.obj
 0002:00007008       ??_C@_1M@FHMDOHNN@?$AAf?$AAr?$AA?9?$AAL?$AAU@ 000000018002a008     libucrt:lcidtoname_downlevel.obj
 0002:00007018       ??_C@_1BG@NFKKMAFG@?$AAb?$AAs?$AA?9?$AAB?$AAA?$AA?9?$AAL?$AAa?$AAt?$AAn@ 000000018002a018     libucrt:lcidtoname_downlevel.obj
 0002:00007030       ??_C@_1O@IMNBEMCI@?$AAs?$AAm?$AAj?$AA?9?$AAS?$AAE@ 000000018002a030     libucrt:lcidtoname_downlevel.obj
 0002:00007040       ??_C@_1M@DHHMBNDP@?$AAa?$AAr?$AA?9?$AAM?$AAA@ 000000018002a040     libucrt:lcidtoname_downlevel.obj
 0002:00007050       ??_C@_1M@BNBLJCGH@?$AAe?$AAn?$AA?9?$AAI?$AAE@ 000000018002a050     libucrt:lcidtoname_downlevel.obj
 0002:00007060       ??_C@_1M@GEPAFMDL@?$AAe?$AAs?$AA?9?$AAP?$AAA@ 000000018002a060     libucrt:lcidtoname_downlevel.obj
 0002:00007070       ??_C@_1M@OJONDMDL@?$AAf?$AAr?$AA?9?$AAM?$AAC@ 000000018002a070     libucrt:lcidtoname_downlevel.obj
 0002:00007080       ??_C@_1BG@OBCNFJB@?$AAs?$AAr?$AA?9?$AAB?$AAA?$AA?9?$AAL?$AAa?$AAt?$AAn@ 000000018002a080     libucrt:lcidtoname_downlevel.obj
 0002:00007098       ??_C@_1O@KEMEEGPO@?$AAs?$AAm?$AAa?$AA?9?$AAN?$AAO@ 000000018002a098     libucrt:lcidtoname_downlevel.obj
 0002:000070a8       ??_C@_1M@ELMGFODK@?$AAa?$AAr?$AA?9?$AAT?$AAN@ 000000018002a0a8     libucrt:lcidtoname_downlevel.obj
 0002:000070b8       ??_C@_1M@BHDLHFAF@?$AAe?$AAn?$AA?9?$AAZ?$AAA@ 000000018002a0b8     libucrt:lcidtoname_downlevel.obj
 0002:000070c8       ??_C@_1M@BMGIGLIF@?$AAe?$AAs?$AA?9?$AAD?$AAO@ 000000018002a0c8     libucrt:lcidtoname_downlevel.obj
 0002:000070d8       ??_C@_1BG@CMBHIPBE@?$AAs?$AAr?$AA?9?$AAB?$AAA?$AA?9?$AAC?$AAy?$AAr?$AAl@ 000000018002a0d8     libucrt:lcidtoname_downlevel.obj
 0002:000070f0       ??_C@_1O@HEDBLHNP@?$AAs?$AAm?$AAa?$AA?9?$AAS?$AAE@ 000000018002a0f0     libucrt:lcidtoname_downlevel.obj
 0002:00007100       ??_C@_1M@DAGCADIM@?$AAa?$AAr?$AA?9?$AAO?$AAM@ 000000018002a100     libucrt:lcidtoname_downlevel.obj
 0002:00007110       ??_C@_1M@FODLMICG@?$AAe?$AAn?$AA?9?$AAJ?$AAM@ 000000018002a110     libucrt:lcidtoname_downlevel.obj
 0002:00007120       ??_C@_1M@DNMLCIHB@?$AAe?$AAs?$AA?9?$AAV?$AAE@ 000000018002a120     libucrt:lcidtoname_downlevel.obj
 0002:00007130       ??_C@_1O@EOKHMKJK@?$AAs?$AAm?$AAs?$AA?9?$AAF?$AAI@ 000000018002a130     libucrt:lcidtoname_downlevel.obj
 0002:00007140       ??_C@_1M@CAFJMKOF@?$AAa?$AAr?$AA?9?$AAY?$AAE@ 000000018002a140     libucrt:lcidtoname_downlevel.obj
 0002:00007150       ??_C@_1M@CBFHIJLI@?$AAe?$AAn?$AA?9?$AAC?$AAB@ 000000018002a150     libucrt:lcidtoname_downlevel.obj
 0002:00007160       ??_C@_1M@BGNFLDN@?$AAe?$AAs?$AA?9?$AAC?$AAO@ 000000018002a160     libucrt:lcidtoname_downlevel.obj
 0002:00007170       ??_C@_1O@JMPHMAMC@?$AAs?$AAm?$AAn?$AA?9?$AAF?$AAI@ 000000018002a170     libucrt:lcidtoname_downlevel.obj
 0002:00007180       ??_C@_1M@JLANABKE@?$AAa?$AAr?$AA?9?$AAS?$AAY@ 000000018002a180     libucrt:lcidtoname_downlevel.obj
 0002:00007190       ??_C@_1M@HPKGCFGN@?$AAe?$AAn?$AA?9?$AAB?$AAZ@ 000000018002a190     libucrt:lcidtoname_downlevel.obj
 0002:000071a0       ??_C@_1M@OLJCMLGM@?$AAe?$AAs?$AA?9?$AAP?$AAE@ 000000018002a1a0     libucrt:lcidtoname_downlevel.obj
 0002:000071b0       ??_C@_1M@MKKGFKLE@?$AAa?$AAr?$AA?9?$AAJ?$AAO@ 000000018002a1b0     libucrt:lcidtoname_downlevel.obj
 0002:000071c0       ??_C@_1M@EKPGLDNI@?$AAe?$AAn?$AA?9?$AAT?$AAT@ 000000018002a1c0     libucrt:lcidtoname_downlevel.obj
 0002:000071d0       ??_C@_1M@OONGHFHE@?$AAe?$AAs?$AA?9?$AAA?$AAR@ 000000018002a1d0     libucrt:lcidtoname_downlevel.obj
 0002:000071e0       ??_C@_1M@OOJFGBHE@?$AAa?$AAr?$AA?9?$AAL?$AAB@ 000000018002a1e0     libucrt:lcidtoname_downlevel.obj
 0002:000071f0       ??_C@_1M@GCEJHNEG@?$AAe?$AAn?$AA?9?$AAZ?$AAW@ 000000018002a1f0     libucrt:lcidtoname_downlevel.obj
 0002:00007200       ??_C@_1M@JNOCAHJI@?$AAe?$AAs?$AA?9?$AAE?$AAC@ 000000018002a200     libucrt:lcidtoname_downlevel.obj
 0002:00007210       ??_C@_1M@JEFHPGGB@?$AAa?$AAr?$AA?9?$AAK?$AAW@ 000000018002a210     libucrt:lcidtoname_downlevel.obj
 0002:00007220       ??_C@_1M@MLKIBJOJ@?$AAe?$AAn?$AA?9?$AAP?$AAH@ 000000018002a220     libucrt:lcidtoname_downlevel.obj
 0002:00007230       ??_C@_1M@BDNIPEND@?$AAe?$AAs?$AA?9?$AAC?$AAL@ 000000018002a230     libucrt:lcidtoname_downlevel.obj
 0002:00007240       ??_C@_1M@MPNMEKBD@?$AAa?$AAr?$AA?9?$AAA?$AAE@ 000000018002a240     libucrt:lcidtoname_downlevel.obj
 0002:00007250       ??_C@_1M@KBJALCPI@?$AAe?$AAs?$AA?9?$AAU?$AAY@ 000000018002a250     libucrt:lcidtoname_downlevel.obj
 0002:00007260       ??_C@_1M@LLCCOAGA@?$AAa?$AAr?$AA?9?$AAB?$AAH@ 000000018002a260     libucrt:lcidtoname_downlevel.obj
 0002:00007270       ??_C@_1M@PBFNCDEL@?$AAe?$AAs?$AA?9?$AAP?$AAY@ 000000018002a270     libucrt:lcidtoname_downlevel.obj
 0002:00007280       ??_C@_1M@EDGINPNP@?$AAa?$AAr?$AA?9?$AAQ?$AAA@ 000000018002a280     libucrt:lcidtoname_downlevel.obj
 0002:00007290       ??_C@_1M@MKDBIIJI@?$AAe?$AAs?$AA?9?$AAB?$AAO@ 000000018002a290     libucrt:lcidtoname_downlevel.obj
 0002:000072a0       ??_C@_1M@CPKKEBLD@?$AAe?$AAs?$AA?9?$AAS?$AAV@ 000000018002a2a0     libucrt:lcidtoname_downlevel.obj
 0002:000072b0       ??_C@_1M@NDBGMMJL@?$AAe?$AAs?$AA?9?$AAH?$AAN@ 000000018002a2b0     libucrt:lcidtoname_downlevel.obj
 0002:000072c0       ??_C@_1M@JIJIBHDP@?$AAe?$AAs?$AA?9?$AAN?$AAI@ 000000018002a2c0     libucrt:lcidtoname_downlevel.obj
 0002:000072d0       ??_C@_1M@CGFMKEEK@?$AAe?$AAs?$AA?9?$AAP?$AAR@ 000000018002a2d0     libucrt:lcidtoname_downlevel.obj
 0002:000072e0       ??_C@_1O@ICJHKIIK@?$AAz?$AAh?$AA?9?$AAC?$AAH?$AAT@ 000000018002a2e0     libucrt:lcidtoname_downlevel.obj
 0002:000072f0       ??_C@_15CLNEJCE@?$AAs?$AAr@ 000000018002a2f0     libucrt:lcidtoname_downlevel.obj
 0002:00008140       ??_C@_1M@KAHEKEIG@?$AAa?$AAf?$AA?9?$AAz?$AAa@ 000000018002b140     libucrt:lcidtoname_downlevel.obj
 0002:00008150       ??_C@_1M@GIECOABL@?$AAa?$AAr?$AA?9?$AAa?$AAe@ 000000018002b150     libucrt:lcidtoname_downlevel.obj
 0002:00008160       ??_C@_1M@BMLMEKGI@?$AAa?$AAr?$AA?9?$AAb?$AAh@ 000000018002b160     libucrt:lcidtoname_downlevel.obj
 0002:00008170       ??_C@_1M@DAPFDGGB@?$AAa?$AAr?$AA?9?$AAd?$AAz@ 000000018002b170     libucrt:lcidtoname_downlevel.obj
 0002:00008180       ??_C@_1M@FJNKGKIG@?$AAa?$AAr?$AA?9?$AAe?$AAg@ 000000018002b180     libucrt:lcidtoname_downlevel.obj
 0002:00008190       ??_C@_1M@FLGKKCLO@?$AAa?$AAr?$AA?9?$AAi?$AAq@ 000000018002b190     libucrt:lcidtoname_downlevel.obj
 0002:000081a0       ??_C@_1M@GNDIPALM@?$AAa?$AAr?$AA?9?$AAj?$AAo@ 000000018002b1a0     libucrt:lcidtoname_downlevel.obj
 0002:000081b0       ??_C@_1M@DDMJFMGJ@?$AAa?$AAr?$AA?9?$AAk?$AAw@ 000000018002b1b0     libucrt:lcidtoname_downlevel.obj
 0002:000081c0       ??_C@_1M@EJALMLHM@?$AAa?$AAr?$AA?9?$AAl?$AAb@ 000000018002b1c0     libucrt:lcidtoname_downlevel.obj
 0002:000081d0       ??_C@_1M@MOBDBLOC@?$AAa?$AAr?$AA?9?$AAl?$AAy@ 000000018002b1d0     libucrt:lcidtoname_downlevel.obj
 0002:000081e0       ??_C@_1M@JAOCLHDH@?$AAa?$AAr?$AA?9?$AAm?$AAa@ 000000018002b1e0     libucrt:lcidtoname_downlevel.obj
 0002:000081f0       ??_C@_1M@JHPMKJIE@?$AAa?$AAr?$AA?9?$AAo?$AAm@ 000000018002b1f0     libucrt:lcidtoname_downlevel.obj
 0002:00008200       ??_C@_1M@OEPGHFNH@?$AAa?$AAr?$AA?9?$AAq?$AAa@ 000000018002b200     libucrt:lcidtoname_downlevel.obj
 0002:00008210       ??_C@_1M@KJDONENM@?$AAa?$AAr?$AA?9?$AAs?$AAa@ 000000018002b210     libucrt:lcidtoname_downlevel.obj
 0002:00008220       ??_C@_1M@DMJDKLKM@?$AAa?$AAr?$AA?9?$AAs?$AAy@ 000000018002b220     libucrt:lcidtoname_downlevel.obj
 0002:00008230       ??_C@_1M@OMFIPEDC@?$AAa?$AAr?$AA?9?$AAt?$AAn@ 000000018002b230     libucrt:lcidtoname_downlevel.obj
 0002:00008240       ??_C@_1M@IHMHGAON@?$AAa?$AAr?$AA?9?$AAy?$AAe@ 000000018002b240     libucrt:lcidtoname_downlevel.obj
 0002:00008250       ??_C@_1BG@KDCPGJGB@?$AAa?$AAz?$AA?9?$AAa?$AAz?$AA?9?$AAc?$AAy?$AAr?$AAl@ 000000018002b250     libucrt:lcidtoname_downlevel.obj
 0002:00008268       ??_C@_1BG@IBCKDDOE@?$AAa?$AAz?$AA?9?$AAa?$AAz?$AA?9?$AAl?$AAa?$AAt?$AAn@ 000000018002b268     libucrt:lcidtoname_downlevel.obj
 0002:00008280       ??_C@_1M@EGPFDCPD@?$AAb?$AAe?$AA?9?$AAb?$AAy@ 000000018002b280     libucrt:lcidtoname_downlevel.obj
 0002:00008290       ??_C@_1M@PCMGMCGC@?$AAb?$AAg?$AA?9?$AAb?$AAg@ 000000018002b290     libucrt:lcidtoname_downlevel.obj
 0002:000082a0       ??_C@_1M@BJBMFGOB@?$AAb?$AAn?$AA?9?$AAi?$AAn@ 000000018002b2a0     libucrt:lcidtoname_downlevel.obj
 0002:000082b0       ??_C@_1BG@EAKMMACD@?$AAb?$AAs?$AA?9?$AAb?$AAa?$AA?9?$AAl?$AAa?$AAt?$AAn@ 000000018002b2b0     libucrt:lcidtoname_downlevel.obj
 0002:000082c8       ??_C@_1M@KGADAODK@?$AAc?$AAa?$AA?9?$AAe?$AAs@ 000000018002b2c8     libucrt:lcidtoname_downlevel.obj
 0002:000082d8       ??_C@_1M@COAJPDHI@?$AAc?$AAs?$AA?9?$AAc?$AAz@ 000000018002b2d8     libucrt:lcidtoname_downlevel.obj
 0002:000082e8       ??_C@_1M@DHBHFONH@?$AAc?$AAy?$AA?9?$AAg?$AAb@ 000000018002b2e8     libucrt:lcidtoname_downlevel.obj
 0002:000082f8       ??_C@_1M@IMGKELGA@?$AAd?$AAa?$AA?9?$AAd?$AAk@ 000000018002b2f8     libucrt:lcidtoname_downlevel.obj
 0002:00008308       ??_C@_1M@NNDGDNGA@?$AAd?$AAe?$AA?9?$AAa?$AAt@ 000000018002b308     libucrt:lcidtoname_downlevel.obj
 0002:00008318       ??_C@_1M@IKDBHEEM@?$AAd?$AAe?$AA?9?$AAc?$AAh@ 000000018002b318     libucrt:lcidtoname_downlevel.obj
 0002:00008328       ??_C@_1M@GFFOJMCJ@?$AAd?$AAe?$AA?9?$AAd?$AAe@ 000000018002b328     libucrt:lcidtoname_downlevel.obj
 0002:00008338       ??_C@_1M@MDNLKBPM@?$AAd?$AAe?$AA?9?$AAl?$AAi@ 000000018002b338     libucrt:lcidtoname_downlevel.obj
 0002:00008348       ??_C@_1M@NJBEEJNL@?$AAd?$AAe?$AA?9?$AAl?$AAu@ 000000018002b348     libucrt:lcidtoname_downlevel.obj
 0002:00008358       ??_C@_1O@GNNELBAP@?$AAd?$AAi?$AAv?$AA?9?$AAm?$AAv@ 000000018002b358     libucrt:lcidtoname_downlevel.obj
 0002:00008368       ??_C@_1M@EJLEOGAE@?$AAe?$AAl?$AA?9?$AAg?$AAr@ 000000018002b368     libucrt:lcidtoname_downlevel.obj
 0002:00008378       ??_C@_1M@GMPONJN@?$AAe?$AAn?$AA?9?$AAa?$AAu@ 000000018002b378     libucrt:lcidtoname_downlevel.obj
 0002:00008388       ??_C@_1M@NIDIIPGF@?$AAe?$AAn?$AA?9?$AAb?$AAz@ 000000018002b388     libucrt:lcidtoname_downlevel.obj
 0002:00008398       ??_C@_1M@JEHMIMFO@?$AAe?$AAn?$AA?9?$AAc?$AAa@ 000000018002b398     libucrt:lcidtoname_downlevel.obj
 0002:000083a8       ??_C@_1M@IGMJCDLA@?$AAe?$AAn?$AA?9?$AAc?$AAb@ 000000018002b3a8     libucrt:lcidtoname_downlevel.obj
 0002:000083b8       ??_C@_1M@BNFIGBKG@?$AAe?$AAn?$AA?9?$AAg?$AAb@ 000000018002b3b8     libucrt:lcidtoname_downlevel.obj
 0002:000083c8       ??_C@_1M@LKIFDIGP@?$AAe?$AAn?$AA?9?$AAi?$AAe@ 000000018002b3c8     libucrt:lcidtoname_downlevel.obj
 0002:000083d8       ??_C@_1M@PJKFGCCO@?$AAe?$AAn?$AA?9?$AAj?$AAm@ 000000018002b3d8     libucrt:lcidtoname_downlevel.obj
 0002:000083e8       ??_C@_1M@KPPKEPBO@?$AAe?$AAn?$AA?9?$AAn?$AAz@ 000000018002b3e8     libucrt:lcidtoname_downlevel.obj
 0002:000083f8       ??_C@_1M@GMDGLDOB@?$AAe?$AAn?$AA?9?$AAp?$AAh@ 000000018002b3f8     libucrt:lcidtoname_downlevel.obj
 0002:00008408       ??_C@_1M@ONGIBJNA@?$AAe?$AAn?$AA?9?$AAt?$AAt@ 000000018002b408     libucrt:lcidtoname_downlevel.obj
 0002:00008418       ??_C@_1M@LLODPCMM@?$AAe?$AAn?$AA?9?$AAu?$AAs@ 000000018002b418     libucrt:lcidtoname_downlevel.obj
 0002:00008428       ??_C@_1M@LAKFNPAN@?$AAe?$AAn?$AA?9?$AAz?$AAa@ 000000018002b428     libucrt:lcidtoname_downlevel.obj
 0002:00008438       ??_C@_1M@MFNHNHEO@?$AAe?$AAn?$AA?9?$AAz?$AAw@ 000000018002b438     libucrt:lcidtoname_downlevel.obj
 0002:00008448       ??_C@_1M@EJEINPHM@?$AAe?$AAs?$AA?9?$AAa?$AAr@ 000000018002b448     libucrt:lcidtoname_downlevel.obj
 0002:00008458       ??_C@_1M@GNKPCCJA@?$AAe?$AAs?$AA?9?$AAb?$AAo@ 000000018002b458     libucrt:lcidtoname_downlevel.obj
 0002:00008468       ??_C@_1M@LEEGFONL@?$AAe?$AAs?$AA?9?$AAc?$AAl@ 000000018002b468     libucrt:lcidtoname_downlevel.obj
 0002:00008478       ??_C@_1M@KGPDPBDF@?$AAe?$AAs?$AA?9?$AAc?$AAo@ 000000018002b478     libucrt:lcidtoname_downlevel.obj
 0002:00008488       ??_C@_1M@EIAHOHH@?$AAe?$AAs?$AA?9?$AAc?$AAr@ 000000018002b488     libucrt:lcidtoname_downlevel.obj
 0002:00008498       ??_C@_1M@LLPGMBIN@?$AAe?$AAs?$AA?9?$AAd?$AAo@ 000000018002b498     libucrt:lcidtoname_downlevel.obj
 0002:000084a8       ??_C@_1M@DKHMKNJA@?$AAe?$AAs?$AA?9?$AAe?$AAc@ 000000018002b4a8     libucrt:lcidtoname_downlevel.obj
 0002:000084b8       ??_C@_1M@GKGFPKAP@?$AAe?$AAs?$AA?9?$AAe?$AAs@ 000000018002b4b8     libucrt:lcidtoname_downlevel.obj
 0002:000084c8       ??_C@_1M@LKHKGDLN@?$AAe?$AAs?$AA?9?$AAg?$AAt@ 000000018002b4c8     libucrt:lcidtoname_downlevel.obj
 0002:000084d8       ??_C@_1M@HEIIGGJD@?$AAe?$AAs?$AA?9?$AAh?$AAn@ 000000018002b4d8     libucrt:lcidtoname_downlevel.obj
 0002:000084e8       ??_C@_1M@FBDHPPGD@?$AAe?$AAs?$AA?9?$AAm?$AAx@ 000000018002b4e8     libucrt:lcidtoname_downlevel.obj
 0002:000084f8       ??_C@_1M@DPAGLNDH@?$AAe?$AAs?$AA?9?$AAn?$AAi@ 000000018002b4f8     libucrt:lcidtoname_downlevel.obj
 0002:00008508       ??_C@_1M@MDGOPGDD@?$AAe?$AAs?$AA?9?$AAp?$AAa@ 000000018002b508     libucrt:lcidtoname_downlevel.obj
 0002:00008518       ??_C@_1M@EMAMGBGE@?$AAe?$AAs?$AA?9?$AAp?$AAe@ 000000018002b518     libucrt:lcidtoname_downlevel.obj
 0002:00008528       ??_C@_1M@IBMCAOEC@?$AAe?$AAs?$AA?9?$AAp?$AAr@ 000000018002b528     libucrt:lcidtoname_downlevel.obj
 0002:00008538       ??_C@_1M@FGMDIJED@?$AAe?$AAs?$AA?9?$AAp?$AAy@ 000000018002b538     libucrt:lcidtoname_downlevel.obj
 0002:00008548       ??_C@_1M@IIDEOLLL@?$AAe?$AAs?$AA?9?$AAs?$AAv@ 000000018002b548     libucrt:lcidtoname_downlevel.obj
 0002:00008558       ??_C@_1M@GAOBIPA@?$AAe?$AAs?$AA?9?$AAu?$AAy@ 000000018002b558     libucrt:lcidtoname_downlevel.obj
 0002:00008568       ??_C@_1M@JKFFICHJ@?$AAe?$AAs?$AA?9?$AAv?$AAe@ 000000018002b568     libucrt:lcidtoname_downlevel.obj
 0002:00008578       ??_C@_1M@PNMLOJDF@?$AAe?$AAt?$AA?9?$AAe?$AAe@ 000000018002b578     libucrt:lcidtoname_downlevel.obj
 0002:00008588       ??_C@_1M@GHHLIKEI@?$AAe?$AAu?$AA?9?$AAe?$AAs@ 000000018002b588     libucrt:lcidtoname_downlevel.obj
 0002:00008598       ??_C@_1M@PBNONODE@?$AAf?$AAa?$AA?9?$AAi?$AAr@ 000000018002b598     libucrt:lcidtoname_downlevel.obj
 0002:000085a8       ??_C@_1M@JEEHPMIL@?$AAf?$AAi?$AA?9?$AAf?$AAi@ 000000018002b5a8     libucrt:lcidtoname_downlevel.obj
 0002:000085b8       ??_C@_1M@LMDCNDBA@?$AAf?$AAo?$AA?9?$AAf?$AAo@ 000000018002b5b8     libucrt:lcidtoname_downlevel.obj
 0002:000085c8       ??_C@_1M@JKEOHLDK@?$AAf?$AAr?$AA?9?$AAb?$AAe@ 000000018002b5c8     libucrt:lcidtoname_downlevel.obj
 0002:000085d8       ??_C@_1M@NOHADPMI@?$AAf?$AAr?$AA?9?$AAc?$AAa@ 000000018002b5d8     libucrt:lcidtoname_downlevel.obj
 0002:000085e8       ??_C@_1M@KDHIHAEC@?$AAf?$AAr?$AA?9?$AAc?$AAh@ 000000018002b5e8     libucrt:lcidtoname_downlevel.obj
 0002:000085f8       ??_C@_1M@MMBBFGAK@?$AAf?$AAr?$AA?9?$AAf?$AAr@ 000000018002b5f8     libucrt:lcidtoname_downlevel.obj
 0002:00008608       ??_C@_1M@PAFNENNF@?$AAf?$AAr?$AA?9?$AAl?$AAu@ 000000018002b608     libucrt:lcidtoname_downlevel.obj
 0002:00008618       ??_C@_1M@EOHDJGDD@?$AAf?$AAr?$AA?9?$AAm?$AAc@ 000000018002b618     libucrt:lcidtoname_downlevel.obj
 0002:00008628       ??_C@_1M@FAPLLOPF@?$AAg?$AAl?$AA?9?$AAe?$AAs@ 000000018002b628     libucrt:lcidtoname_downlevel.obj
 0002:00008638       ??_C@_1M@FOPBFLOO@?$AAg?$AAu?$AA?9?$AAi?$AAn@ 000000018002b638     libucrt:lcidtoname_downlevel.obj
 0002:00008648       ??_C@_1M@KBMCINPM@?$AAh?$AAe?$AA?9?$AAi?$AAl@ 000000018002b648     libucrt:lcidtoname_downlevel.obj
 0002:00008658       ??_C@_1M@BBPHKFPJ@?$AAh?$AAi?$AA?9?$AAi?$AAn@ 000000018002b658     libucrt:lcidtoname_downlevel.obj
 0002:00008668       ??_C@_1M@PMBNDPHD@?$AAh?$AAr?$AA?9?$AAb?$AAa@ 000000018002b668     libucrt:lcidtoname_downlevel.obj
 0002:00008678       ??_C@_1M@BPCKOEGE@?$AAh?$AAr?$AA?9?$AAh?$AAr@ 000000018002b678     libucrt:lcidtoname_downlevel.obj
 0002:00008688       ??_C@_1M@GACBMHKE@?$AAh?$AAu?$AA?9?$AAh?$AAu@ 000000018002b688     libucrt:lcidtoname_downlevel.obj
 0002:00008698       ??_C@_1M@MILPAJJC@?$AAh?$AAy?$AA?9?$AAa?$AAm@ 000000018002b698     libucrt:lcidtoname_downlevel.obj
 0002:000086a8       ??_C@_1M@BABBICEC@?$AAi?$AAd?$AA?9?$AAi?$AAd@ 000000018002b6a8     libucrt:lcidtoname_downlevel.obj
 0002:000086b8       ??_C@_1M@BIKNHHPF@?$AAi?$AAs?$AA?9?$AAi?$AAs@ 000000018002b6b8     libucrt:lcidtoname_downlevel.obj
 0002:000086c8       ??_C@_1M@NMPCJPHE@?$AAi?$AAt?$AA?9?$AAc?$AAh@ 000000018002b6c8     libucrt:lcidtoname_downlevel.obj
 0002:000086d8       ??_C@_1M@GHKGFEDF@?$AAi?$AAt?$AA?9?$AAi?$AAt@ 000000018002b6d8     libucrt:lcidtoname_downlevel.obj
 0002:000086e8       ??_C@_1M@NIEJCJJA@?$AAj?$AAa?$AA?9?$AAj?$AAp@ 000000018002b6e8     libucrt:lcidtoname_downlevel.obj
 0002:000086f8       ??_C@_1M@JILFNBIM@?$AAk?$AAa?$AA?9?$AAg?$AAe@ 000000018002b6f8     libucrt:lcidtoname_downlevel.obj
 0002:00008708       ??_C@_1M@PACPMGPH@?$AAk?$AAk?$AA?9?$AAk?$AAz@ 000000018002b708     libucrt:lcidtoname_downlevel.obj
 0002:00008718       ??_C@_1M@IELFGMHA@?$AAk?$AAn?$AA?9?$AAi?$AAn@ 000000018002b718     libucrt:lcidtoname_downlevel.obj
 0002:00008728       ??_C@_1O@IBBJHCH@?$AAk?$AAo?$AAk?$AA?9?$AAi?$AAn@ 000000018002b728     libucrt:lcidtoname_downlevel.obj
 0002:00008738       ??_C@_1M@DMHAEOGC@?$AAk?$AAo?$AA?9?$AAk?$AAr@ 000000018002b738     libucrt:lcidtoname_downlevel.obj
 0002:00008748       ??_C@_1M@HBAHBIGA@?$AAk?$AAy?$AA?9?$AAk?$AAg@ 000000018002b748     libucrt:lcidtoname_downlevel.obj
 0002:00008758       ??_C@_1M@KPMILCJG@?$AAl?$AAt?$AA?9?$AAl?$AAt@ 000000018002b758     libucrt:lcidtoname_downlevel.obj
 0002:00008768       ??_C@_1M@BDEKKCA@?$AAl?$AAv?$AA?9?$AAl?$AAv@ 000000018002b768     libucrt:lcidtoname_downlevel.obj
 0002:00008778       ??_C@_1M@ELCKCCJJ@?$AAm?$AAi?$AA?9?$AAn?$AAz@ 000000018002b778     libucrt:lcidtoname_downlevel.obj
 0002:00008788       ??_C@_1M@CBOOLAPA@?$AAm?$AAk?$AA?9?$AAm?$AAk@ 000000018002b788     libucrt:lcidtoname_downlevel.obj
 0002:00008798       ??_C@_1M@GPHNBJKN@?$AAm?$AAl?$AA?9?$AAi?$AAn@ 000000018002b798     libucrt:lcidtoname_downlevel.obj
 0002:000087a8       ??_C@_1M@PABJILIG@?$AAm?$AAn?$AA?9?$AAm?$AAn@ 000000018002b7a8     libucrt:lcidtoname_downlevel.obj
 0002:000087b8       ??_C@_1M@FGBKKIPG@?$AAm?$AAr?$AA?9?$AAi?$AAn@ 000000018002b7b8     libucrt:lcidtoname_downlevel.obj
 0002:000087c8       ??_C@_1M@NDBPDDAL@?$AAm?$AAs?$AA?9?$AAb?$AAn@ 000000018002b7c8     libucrt:lcidtoname_downlevel.obj
 0002:000087d8       ??_C@_1M@OPIHOOPI@?$AAm?$AAs?$AA?9?$AAm?$AAy@ 000000018002b7d8     libucrt:lcidtoname_downlevel.obj
 0002:000087e8       ??_C@_1M@PPDBCNFM@?$AAm?$AAt?$AA?9?$AAm?$AAt@ 000000018002b7e8     libucrt:lcidtoname_downlevel.obj
 0002:000087f8       ??_C@_1M@KDJDKMDD@?$AAn?$AAb?$AA?9?$AAn?$AAo@ 000000018002b7f8     libucrt:lcidtoname_downlevel.obj
 0002:00008808       ??_C@_1M@KFCFLMJP@?$AAn?$AAl?$AA?9?$AAb?$AAe@ 000000018002b808     libucrt:lcidtoname_downlevel.obj
 0002:00008818       ??_C@_1M@KPOPDDGO@?$AAn?$AAl?$AA?9?$AAn?$AAl@ 000000018002b818     libucrt:lcidtoname_downlevel.obj
 0002:00008828       ??_C@_1M@LJKPEMLN@?$AAn?$AAn?$AA?9?$AAn?$AAo@ 000000018002b828     libucrt:lcidtoname_downlevel.obj
 0002:00008838       ??_C@_1M@BDGHHBFL@?$AAn?$AAs?$AA?9?$AAz?$AAa@ 000000018002b838     libucrt:lcidtoname_downlevel.obj
 0002:00008848       ??_C@_1M@IDEHOAP@?$AAp?$AAa?$AA?9?$AAi?$AAn@ 000000018002b848     libucrt:lcidtoname_downlevel.obj
 0002:00008858       ??_C@_1M@HDBKGOGH@?$AAp?$AAl?$AA?9?$AAp?$AAl@ 000000018002b858     libucrt:lcidtoname_downlevel.obj
 0002:00008868       ??_C@_1M@LJLLCMEH@?$AAp?$AAt?$AA?9?$AAb?$AAr@ 000000018002b868     libucrt:lcidtoname_downlevel.obj
 0002:00008878       ??_C@_1M@NCMONAAL@?$AAp?$AAt?$AA?9?$AAp?$AAt@ 000000018002b878     libucrt:lcidtoname_downlevel.obj
 0002:00008888       ??_C@_1O@EAKMAJDN@?$AAq?$AAu?$AAz?$AA?9?$AAb?$AAo@ 000000018002b888     libucrt:lcidtoname_downlevel.obj
 0002:00008898       ??_C@_1O@BHHPIGDN@?$AAq?$AAu?$AAz?$AA?9?$AAe?$AAc@ 000000018002b898     libucrt:lcidtoname_downlevel.obj
 0002:000088a8       ??_C@_1O@GBAPEKMJ@?$AAq?$AAu?$AAz?$AA?9?$AAp?$AAe@ 000000018002b8a8     libucrt:lcidtoname_downlevel.obj
 0002:000088b8       ??_C@_1M@CLGLEFBO@?$AAr?$AAo?$AA?9?$AAr?$AAo@ 000000018002b8b8     libucrt:lcidtoname_downlevel.obj
 0002:000088c8       ??_C@_1M@CEEDODME@?$AAr?$AAu?$AA?9?$AAr?$AAu@ 000000018002b8c8     libucrt:lcidtoname_downlevel.obj
 0002:000088d8       ??_C@_1M@HPKKKMPP@?$AAs?$AAa?$AA?9?$AAi?$AAn@ 000000018002b8d8     libucrt:lcidtoname_downlevel.obj
 0002:000088e8       ??_C@_1M@BKMAIGOJ@?$AAs?$AAe?$AA?9?$AAf?$AAi@ 000000018002b8e8     libucrt:lcidtoname_downlevel.obj
 0002:000088f8       ??_C@_1M@NDPIFLFI@?$AAs?$AAe?$AA?9?$AAn?$AAo@ 000000018002b8f8     libucrt:lcidtoname_downlevel.obj
 0002:00008908       ??_C@_1M@DANKKHJ@?$AAs?$AAe?$AA?9?$AAs?$AAe@ 000000018002b908     libucrt:lcidtoname_downlevel.obj
 0002:00008918       ??_C@_1M@PNBLONPJ@?$AAs?$AAk?$AA?9?$AAs?$AAk@ 000000018002b918     libucrt:lcidtoname_downlevel.obj
 0002:00008928       ??_C@_1M@LFMODOAL@?$AAs?$AAl?$AA?9?$AAs?$AAi@ 000000018002b928     libucrt:lcidtoname_downlevel.obj
 0002:00008938       ??_C@_1O@DFKOMPG@?$AAs?$AAm?$AAa?$AA?9?$AAn?$AAo@ 000000018002b938     libucrt:lcidtoname_downlevel.obj
 0002:00008948       ??_C@_1O@NDKPBNNH@?$AAs?$AAm?$AAa?$AA?9?$AAs?$AAe@ 000000018002b948     libucrt:lcidtoname_downlevel.obj
 0002:00008958       ??_C@_1O@PLLKBHAB@?$AAs?$AAm?$AAj?$AA?9?$AAn?$AAo@ 000000018002b958     libucrt:lcidtoname_downlevel.obj
 0002:00008968       ??_C@_1O@CLEPOGCA@?$AAs?$AAm?$AAj?$AA?9?$AAs?$AAe@ 000000018002b968     libucrt:lcidtoname_downlevel.obj
 0002:00008978       ??_C@_1O@DLGJGKMK@?$AAs?$AAm?$AAn?$AA?9?$AAf?$AAi@ 000000018002b978     libucrt:lcidtoname_downlevel.obj
 0002:00008988       ??_C@_1O@OJDJGAJC@?$AAs?$AAm?$AAs?$AA?9?$AAf?$AAi@ 000000018002b988     libucrt:lcidtoname_downlevel.obj
 0002:00008998       ??_C@_1M@BOFOGHPB@?$AAs?$AAq?$AA?9?$AAa?$AAl@ 000000018002b998     libucrt:lcidtoname_downlevel.obj
 0002:000089a8       ??_C@_1BG@LJBBIPGB@?$AAs?$AAr?$AA?9?$AAb?$AAa?$AA?9?$AAc?$AAy?$AAr?$AAl@ 000000018002b9a8     libucrt:lcidtoname_downlevel.obj
 0002:000089c0       ??_C@_1BG@JLBENFOE@?$AAs?$AAr?$AA?9?$AAb?$AAa?$AA?9?$AAl?$AAa?$AAt?$AAn@ 000000018002b9c0     libucrt:lcidtoname_downlevel.obj
 0002:000089d8       ??_C@_1BG@KODPNHE@?$AAs?$AAr?$AA?9?$AAs?$AAp?$AA?9?$AAc?$AAy?$AAr?$AAl@ 000000018002b9d8     libucrt:lcidtoname_downlevel.obj
 0002:000089f0       ??_C@_1BG@CIOGKHPB@?$AAs?$AAr?$AA?9?$AAs?$AAp?$AA?9?$AAl?$AAa?$AAt?$AAn@ 000000018002b9f0     libucrt:lcidtoname_downlevel.obj
 0002:00008a08       ??_C@_1M@NGFJLMAC@?$AAs?$AAv?$AA?9?$AAf?$AAi@ 000000018002ba08     libucrt:lcidtoname_downlevel.obj
 0002:00008a18       ??_C@_1M@MPJEJAJC@?$AAs?$AAv?$AA?9?$AAs?$AAe@ 000000018002ba18     libucrt:lcidtoname_downlevel.obj
 0002:00008a28       ??_C@_1M@MPNDHLFK@?$AAs?$AAw?$AA?9?$AAk?$AAe@ 000000018002ba28     libucrt:lcidtoname_downlevel.obj
 0002:00008a38       ??_C@_1O@KOHBJJI@?$AAs?$AAy?$AAr?$AA?9?$AAs?$AAy@ 000000018002ba38     libucrt:lcidtoname_downlevel.obj
 0002:00008a48       ??_C@_1M@LDCEFHA@?$AAt?$AAa?$AA?9?$AAi?$AAn@ 000000018002ba48     libucrt:lcidtoname_downlevel.obj
 0002:00008a58       ??_C@_1M@CNJOFAK@?$AAt?$AAe?$AA?9?$AAi?$AAn@ 000000018002ba58     libucrt:lcidtoname_downlevel.obj
 0002:00008a68       ??_C@_1M@GNAECACD@?$AAt?$AAh?$AA?9?$AAt?$AAh@ 000000018002ba68     libucrt:lcidtoname_downlevel.obj
 0002:00008a78       ??_C@_1M@CHBIHOJO@?$AAt?$AAn?$AA?9?$AAz?$AAa@ 000000018002ba78     libucrt:lcidtoname_downlevel.obj
 0002:00008a88       ??_C@_1M@GCCMIGPJ@?$AAt?$AAr?$AA?9?$AAt?$AAr@ 000000018002ba88     libucrt:lcidtoname_downlevel.obj
 0002:00008a98       ??_C@_1M@CELMCNBK@?$AAt?$AAt?$AA?9?$AAr?$AAu@ 000000018002ba98     libucrt:lcidtoname_downlevel.obj
 0002:00008aa8       ??_C@_1M@KLMCELGA@?$AAu?$AAk?$AA?9?$AAu?$AAa@ 000000018002baa8     libucrt:lcidtoname_downlevel.obj
 0002:00008ab8       ??_C@_1M@EPAJJAJF@?$AAu?$AAr?$AA?9?$AAp?$AAk@ 000000018002bab8     libucrt:lcidtoname_downlevel.obj
 0002:00008ac8       ??_C@_1BG@GEGPMCDJ@?$AAu?$AAz?$AA?9?$AAu?$AAz?$AA?9?$AAc?$AAy?$AAr?$AAl@ 000000018002bac8     libucrt:lcidtoname_downlevel.obj
 0002:00008ae0       ??_C@_1BG@EGGKJILM@?$AAu?$AAz?$AA?9?$AAu?$AAz?$AA?9?$AAl?$AAa?$AAt?$AAn@ 000000018002bae0     libucrt:lcidtoname_downlevel.obj
 0002:00008af8       ??_C@_1M@GFOCLFF@?$AAv?$AAi?$AA?9?$AAv?$AAn@ 000000018002baf8     libucrt:lcidtoname_downlevel.obj
 0002:00008b08       ??_C@_1M@CPAMEDFI@?$AAx?$AAh?$AA?9?$AAz?$AAa@ 000000018002bb08     libucrt:lcidtoname_downlevel.obj
 0002:00008b18       ??_C@_1O@EBKIFIGN@?$AAz?$AAh?$AA?9?$AAc?$AAh?$AAs@ 000000018002bb18     libucrt:lcidtoname_downlevel.obj
 0002:00008b28       ??_C@_1O@NMHPGANE@?$AAz?$AAh?$AA?9?$AAc?$AAh?$AAt@ 000000018002bb28     libucrt:lcidtoname_downlevel.obj
 0002:00008b38       ??_C@_1M@LPINJOMC@?$AAz?$AAh?$AA?9?$AAc?$AAn@ 000000018002bb38     libucrt:lcidtoname_downlevel.obj
 0002:00008b48       ??_C@_1M@OCJEJODD@?$AAz?$AAh?$AA?9?$AAh?$AAk@ 000000018002bb48     libucrt:lcidtoname_downlevel.obj
 0002:00008b58       ??_C@_1M@DNDLJINH@?$AAz?$AAh?$AA?9?$AAm?$AAo@ 000000018002bb58     libucrt:lcidtoname_downlevel.obj
 0002:00008b68       ??_C@_1M@MBFDNDND@?$AAz?$AAh?$AA?9?$AAs?$AAg@ 000000018002bb68     libucrt:lcidtoname_downlevel.obj
 0002:00008b78       ??_C@_1M@IMEPLEPE@?$AAz?$AAh?$AA?9?$AAt?$AAw@ 000000018002bb78     libucrt:lcidtoname_downlevel.obj
 0002:00008b88       ??_C@_1M@BBGHNHJP@?$AAz?$AAu?$AA?9?$AAz?$AAa@ 000000018002bb88     libucrt:lcidtoname_downlevel.obj
 0002:00008ba0       ?large_power_data@?1??multiply_by_power_of_ten@__crt_strtox@@YA_NAEAUbig_integer@2@I@Z@4QBIB 000000018002bba0     libucrt:cfout.obj
 0002:000094b0       ?large_power_indices@?1??multiply_by_power_of_ten@__crt_strtox@@YA_NAEAUbig_integer@2@I@Z@4QBUunpack_index@?1??12@YA_N0I@Z@B 000000018002c4b0     libucrt:cfout.obj
 0002:00009548       ?small_powers_of_ten@?1??multiply_by_power_of_ten@__crt_strtox@@YA_NAEAUbig_integer@2@I@Z@4QBIB 000000018002c548     libucrt:cfout.obj
 0002:0000956c       ??_C@_01GBGANLPD@0@        000000018002c56c     libucrt:cfout.obj
 0002:00009570       ??_C@_05DNEBIAHO@1?$CDINF@ 000000018002c570     libucrt:cfout.obj
 0002:00009578       ??_C@_06IMKFLFPG@1?$CDQNAN@ 000000018002c578     libucrt:cfout.obj
 0002:00009580       ??_C@_06PGGFOGJG@1?$CDSNAN@ 000000018002c580     libucrt:cfout.obj
 0002:00009588       ??_C@_05PHHOCPM@1?$CDIND@  000000018002c588     libucrt:cfout.obj
 0002:00009590       __real@3ff0000000000000    000000018002c590     libucrt:ceil.obj
 0002:000097f0       __log10_256_lead           000000018002c7f0     libucrt:log10_256_lead_tail_table.obj
 0002:0000a000       __log10_256_tail           000000018002d000     libucrt:log10_256_lead_tail_table.obj
 0002:0000a810       __log_F_inv_qword          000000018002d810     libucrt:log_f_inv_qword_table.obj
 0002:0000b020       ??_C@_05HGHHAHAP@log10@    000000018002e020     libucrt:log_special.obj
 0002:0000b028       ??_C@_1BA@BALFACEM@?$AAC?$AAO?$AAN?$AAO?$AAU?$AAT?$AA$@ 000000018002e028     libucrt:initcon.obj
 0002:0000b0b0       _load_config_used          000000018002e0b0     LIBCMT:loadcfg.obj
 0002:0000b1e0       _tls_used                  000000018002e1e0     LIBCMT:tlssup.obj
 0002:0000b208       ??_R4exception@std@@6B@    000000018002e208     LIBCMT:throw_bad_alloc.obj
 0002:0000b230       ??_R3exception@std@@8      000000018002e230     LIBCMT:throw_bad_alloc.obj
 0002:0000b248       ??_R2exception@std@@8      000000018002e248     LIBCMT:throw_bad_alloc.obj
 0002:0000b258       ??_R1A@?0A@EA@exception@std@@8 000000018002e258     LIBCMT:throw_bad_alloc.obj
 0002:0000b280       ??_R4bad_alloc@std@@6B@    000000018002e280     LIBCMT:throw_bad_alloc.obj
 0002:0000b2a8       ??_R3bad_alloc@std@@8      000000018002e2a8     LIBCMT:throw_bad_alloc.obj
 0002:0000b2c0       ??_R2bad_alloc@std@@8      000000018002e2c0     LIBCMT:throw_bad_alloc.obj
 0002:0000b2d8       ??_R1A@?0A@EA@bad_alloc@std@@8 000000018002e2d8     LIBCMT:throw_bad_alloc.obj
 0002:0000b300       ??_R4bad_array_new_length@std@@6B@ 000000018002e300     LIBCMT:throw_bad_alloc.obj
 0002:0000b328       ??_R3bad_array_new_length@std@@8 000000018002e328     LIBCMT:throw_bad_alloc.obj
 0002:0000b340       ??_R2bad_array_new_length@std@@8 000000018002e340     LIBCMT:throw_bad_alloc.obj
 0002:0000b360       ??_R1A@?0A@EA@bad_array_new_length@std@@8 000000018002e360     LIBCMT:throw_bad_alloc.obj
 0002:0000b388       ??_R4type_info@@6B@        000000018002e388     LIBCMT:std_type_info_static.obj
 0002:0000b3b0       ??_R3type_info@@8          000000018002e3b0     LIBCMT:std_type_info_static.obj
 0002:0000b3c8       ??_R2type_info@@8          000000018002e3c8     LIBCMT:std_type_info_static.obj
 0002:0000b3d8       ??_R1A@?0A@EA@type_info@@8 000000018002e3d8     LIBCMT:std_type_info_static.obj
 0002:0000b400       ??_R4bad_exception@std@@6B@ 000000018002e400     libvcruntime:frame.obj
 0002:0000b428       ??_R3bad_exception@std@@8  000000018002e428     libvcruntime:frame.obj
 0002:0000b440       ??_R2bad_exception@std@@8  000000018002e440     libvcruntime:frame.obj
 0002:0000b458       ??_R1A@?0A@EA@bad_exception@std@@8 000000018002e458     libvcruntime:frame.obj
 0002:0000b888       __rtc_iaa                  000000018002e888     LIBCMT:initsect.obj
 0002:0000b890       __rtc_izz                  000000018002e890     LIBCMT:initsect.obj
 0002:0000b898       __rtc_taa                  000000018002e898     LIBCMT:initsect.obj
 0002:0000b8a0       __rtc_tzz                  000000018002e8a0     LIBCMT:initsect.obj
 0002:0000b8a8       _tls_start                 000000018002e8a8     LIBCMT:tlssup.obj
 0002:0000b8ac       _Init_thread_epoch         000000018002e8ac     LIBCMT:thread_safe_statics.obj
 0002:0000b8b0       _tls_end                   000000018002e8b0     LIBCMT:tlssup.obj
 0002:0000cfa0       _TI2?AVbad_alloc@std@@     000000018002ffa0     LIBCMT:throw_bad_alloc.obj
 0002:0000cfc0       _CTA2?AVbad_alloc@std@@    000000018002ffc0     LIBCMT:throw_bad_alloc.obj
 0002:0000cfd8       _CT??_R0?AVbad_alloc@std@@@8??0bad_alloc@std@@QEAA@AEBV01@@Z24 000000018002ffd8     LIBCMT:throw_bad_alloc.obj
 0002:0000d000       _CT??_R0?AVexception@std@@@8??0exception@std@@QEAA@AEBV01@@Z24 0000000180030000     LIBCMT:throw_bad_alloc.obj
 0002:0000d028       _TI3?AVbad_array_new_length@std@@ 0000000180030028     LIBCMT:throw_bad_alloc.obj
 0002:0000d048       _CTA3?AVbad_array_new_length@std@@ 0000000180030048     LIBCMT:throw_bad_alloc.obj
 0002:0000d068       _CT??_R0?AVbad_array_new_length@std@@@8??0bad_array_new_length@std@@QEAA@AEBV01@@Z24 0000000180030068     LIBCMT:throw_bad_alloc.obj
 0002:0000d090       _TI2?AVbad_exception@std@@ 0000000180030090     libvcruntime:frame.obj
 0002:0000d0b0       _CTA2?AVbad_exception@std@@ 00000001800300b0     libvcruntime:frame.obj
 0002:0000d0c8       _CT??_R0?AVbad_exception@std@@@8??0bad_exception@std@@QEAA@AEBV01@@Z24 00000001800300c8     libvcruntime:frame.obj
 0002:0000d0f0       __pobjMapEntryFirst        00000001800300f0     OposVariant.obj
 0002:0000d0f8       __pobjMapEntryLast         00000001800300f8     OposVariant.obj
 0002:0000d1b0       __IMPORT_DESCRIPTOR_KERNEL32 00000001800301b0     kernel32:KERNEL32.dll
 0002:0000d1c4       __IMPORT_DESCRIPTOR_USER32 00000001800301c4     user32:USER32.dll
 0002:0000d1d8       __IMPORT_DESCRIPTOR_GDI32  00000001800301d8     gdi32:GDI32.dll
 0002:0000d1ec       __IMPORT_DESCRIPTOR_ADVAPI32 00000001800301ec     advapi32:ADVAPI32.dll
 0002:0000d200       __IMPORT_DESCRIPTOR_ole32  0000000180030200     ole32:ole32.dll
 0002:0000d214       __IMPORT_DESCRIPTOR_OLEAUT32 0000000180030214     oleaut32:OLEAUT32.dll
 0002:0000d228       __NULL_IMPORT_DESCRIPTOR   0000000180030228     kernel32:KERNEL32.dll
 0003:00000000       ?s_Claim@?7??GetIDsOfNames@CComTypeInfoHolder@ATL@@QEAAJAEBU_GUID@@PEAPEA_WIKPEAJ@Z@4PA_WA 0000000180032000     CheckScanner.obj
 0003:00000018       ?s_Release@?7??GetIDsOfNames@CComTypeInfoHolder@ATL@@QEAAJAEBU_GUID@@PEAPEA_WIKPEAJ@Z@4PA_WA 0000000180032018     CheckScanner.obj
 0003:00000038       ?_tih@?$IDispatchImpl@UIOPOSCheckScanner@@$1?IID_IOPOSCheckScanner@@3U_GUID@@B$1?LIBID_OposCheckScanner_CCO@@3U3@B$00$0A@VCComTypeInfoHolder@ATL@@@ATL@@1VCComTypeInfoHolder@2@A 0000000180032038     CheckScanner.obj
 0003:00000070       ?_tih@?$IProvideClassInfo2Impl@$1?CLSID_OPOSCheckScanner@@3U_GUID@@B$1?DIID__IOPOSCheckScannerEvents@@3U2@B$1?LIBID_OposCheckScanner_CCO@@3U2@B$00$0A@VCComTypeInfoHolder@ATL@@@ATL@@1VCComTypeInfoHolder@2@A 0000000180032070     CheckScanner.obj
 0003:000000a8       ?vszContents@?6??Save@?$IPersistStorageImpl@VCOPOSCheckScanner@@@ATL@@UEAAJPEAUIStorage@@H@Z@4PEB_WEB 00000001800320a8     CheckScanner.obj
 0003:000000b0       ?wc@?1??GetWndClassInfo@?$CWindowImpl@VCOPOSCheckScanner@@VCWindow@ATL@@V?$CWinTraits@$0FGAAAAAA@$0A@@3@@ATL@@SAAEAU_ATL_WNDCLASSINFOW@3@XZ@4U43@A 00000001800320b0     CheckScanner.obj
 0003:000001a8       ?rcDefault@CWindow@ATL@@2UtagRECT@@A 00000001800321a8     CheckScanner.obj
 0003:00000250       ?g_WindowName@@3PA_WA      0000000180032250     CheckScannerImpl.obj
 0003:00000278       ?g_ControlVersion@@3JA     0000000180032278     CheckScannerImpl.obj
 0003:00000280       ?g_ControlDescription@@3PADA 0000000180032280     CheckScannerImpl.obj
 0003:000003c0       __scrt_native_dllmain_reason 00000001800323c0     LIBCMT:utility.obj
 0003:000003c4       _Init_global_epoch         00000001800323c4     LIBCMT:thread_safe_statics.obj
 0003:000003d0       __security_cookie_complement 00000001800323d0     LIBCMT:gs_cookie.obj
 0003:000003d8       __security_cookie          00000001800323d8     LIBCMT:gs_cookie.obj
 0003:000003e0       __isa_available            00000001800323e0     LIBCMT:cpu_disp.obj
 0003:000003e4       __isa_enabled              00000001800323e4     LIBCMT:cpu_disp.obj
 0003:000003e8       __memcpy_nt_iters          00000001800323e8     LIBCMT:cpu_disp.obj
 0003:000003f0       __memset_nt_iters          00000001800323f0     LIBCMT:cpu_disp.obj
 0003:00000418       __abort_behavior           0000000180032418     libucrt:abort.obj
 0003:00000430       _iob                       0000000180032430     libucrt:_file.obj
 0003:00000540       __acrt_initial_locale_data 0000000180032540     libucrt:nlsdata.obj
 0003:00000698       __acrt_initial_locale_pointers 0000000180032698     libucrt:nlsdata.obj
 0003:000006a8       __acrt_wide_c_locale_string 00000001800326a8     libucrt:nlsdata.obj
 0003:000006b0       __acrt_initial_multibyte_data 00000001800326b0     libucrt:mbctype.obj
 0003:00000bf0       _pwctype                   0000000180032bf0     libucrt:ctype.obj
 0003:00000bf8       __globallocalestatus       0000000180032bf8     libucrt:glstatus.obj
 0003:00000c00       __acrt_lconv_c             0000000180032c00     libucrt:localeconv.obj
 0003:00000c98       __acrt_lconv_static_decimal 0000000180032c98     libucrt:localeconv.obj
 0003:00000c9c       __acrt_lconv_static_W_decimal 0000000180032c9c     libucrt:localeconv.obj
 0003:00000ca0       _lookuptrailbytes          0000000180032ca0     libucrt:read.obj
 0003:00000dc4       _fltused                   0000000180032dc4     LIBCMT:fltused.obj
 0003:00000dc8       ??_R0?AVbad_alloc@std@@@8  0000000180032dc8     LIBCMT:throw_bad_alloc.obj
 0003:00000df0       ??_R0?AVexception@std@@@8  0000000180032df0     LIBCMT:throw_bad_alloc.obj
 0003:00000e18       ??_R0?AVbad_array_new_length@std@@@8 0000000180032e18     LIBCMT:throw_bad_alloc.obj
 0003:00000e48       ??_R0?AVtype_info@@@8      0000000180032e48     LIBCMT:std_type_info_static.obj
 0003:00000e68       ??_R0?AVbad_exception@std@@@8 0000000180032e68     libvcruntime:frame.obj
 0003:00000e90       ?_pPerfRegFunc@ATL@@3P6AJPEAUHINSTANCE__@@@ZEA 0000000180032e90     OposVariant.obj
 0003:00000e98       ?_pPerfUnRegFunc@ATL@@3P6AJXZEA 0000000180032e98     OposVariant.obj
 0003:00000ea0       ?_AtlRegisterPerUser@ATL@@3_NA 0000000180032ea0     OposVariant.obj
 0003:00000ea8       ?_pAtlModule@ATL@@3PEAVCAtlModule@1@EA 0000000180032ea8     OposVariant.obj
 0003:00000eb0       ?_pModule@ATL@@3PEAVCComModule@1@EA 0000000180032eb0     OposVariant.obj
 0003:00000eb8       ?m_bInitFailed@CAtlBaseModule@ATL@@2_NA 0000000180032eb8     OposVariant.obj
 0003:00000ec0       ?_AtlComModule@ATL@@3VCAtlComModule@1@A 0000000180032ec0     OposVariant.obj
 0003:00000f10       ?_AtlWinModule@ATL@@3VCAtlWinModule@1@A 0000000180032f10     OposVariant.obj
 0003:00000f58       ?m_libid@CAtlModule@ATL@@2U_GUID@@A 0000000180032f58     CheckScanner.obj
 0003:00000f68       ?_entries@?1??GetConnMap@COPOSCheckScanner@@SAPEBU_ATL_CONNMAP_ENTRY@ATL@@PEAH@Z@4QBU34@B 0000000180032f68     CheckScanner.obj
 0003:00000f80       ?$TSS0@?1??GetConnMap@COPOSCheckScanner@@SAPEBU_ATL_CONNMAP_ENTRY@ATL@@PEAH@Z@4HA 0000000180032f80     CheckScanner.obj
 0003:00000f88       ?_OptionsStorage@?1??__local_stdio_printf_options@@9@4_KA 0000000180032f88     CheckScanner.obj
 0003:00000f90       ?pfnRegDeleteKeyEx@?1??DeleteSubKey@CRegKey@ATL@@QEAAJPEB_W@Z@4P6AJPEAUHKEY__@@0KK@ZEA 0000000180032f90     CheckScanner.obj
 0003:00000f98       ?bInitialized@?1??DeleteSubKey@CRegKey@ATL@@QEAAJPEB_W@Z@4_NA 0000000180032f98     CheckScanner.obj
 0003:00000fa0       ?_Module@@3VCComModule@ATL@@A 0000000180032fa0     CheckScanner.obj
 0003:00000ff0       ?pConnMap@?$IConnectionPointContainerImpl@VCOPOSCheckScanner@@@ATL@@0PEBU_ATL_CONNMAP_ENTRY@2@EB 0000000180032ff0     CheckScanner.obj
 0003:00000ff8       ?s_nInstances@COPOSCheckScanner@@1HA 0000000180032ff8     CheckScannerImpl.obj
 0003:00001000       __scrt_current_native_startup_state 0000000180033000     LIBCMT:utility.obj
 0003:00001008       __scrt_native_startup_lock 0000000180033008     LIBCMT:utility.obj
 0003:00001600       _tls_index                 0000000180033600     LIBCMT:tlssup.obj
 0003:00001608       __favor                    0000000180033608     LIBCMT:cpu_disp.obj
 0003:0000160c       __scrt_debugger_hook_flag  000000018003360c     LIBCMT:utility_desktop.obj
 0003:00001610       ?__type_info_root_node@@3U__type_info_node@@A 0000000180033610     LIBCMT:tncleanup.obj
 0003:00001620       ?_OptionsStorage@?1??__local_stdio_scanf_options@@9@4_KA 0000000180033620     LIBCMT:default_local_stdio_options.obj
 0003:00001630       ?_AtlBaseModule@ATL@@3VCAtlBaseModule@1@A 0000000180033630     atls:atlbase.obj
 0003:00001690       ?__AtlThunkPool@@3PEAT_SLIST_HEADER@@EA 0000000180033690     atls:atlthunk.obj
 0003:000016bc       __@@_PchSym_@00@UzABUPdlipUGUhUrmgvinvwrzgvUexgllohUzgohOmzgrevkilqPBACIAJCBDBUlyqiUznwGEUhgwzucOlyq@4B2008FD98C1DD4 00000001800336bc     atls:stdafx.obj
 0003:000016c0       ?__WinRTOutOfMemoryExceptionCallback@@3P6APEAXXZEA 00000001800336c0     libvcruntime:ehhelpers.obj
 0003:000016c8       __pPurecall                00000001800336c8     libvcruntime:purevirt_data.obj
 0003:00001780       ?pArgList@UnDecorator@@0PEAVReplicator@@EA 0000000180033780     libvcruntime:undname.obj
 0003:00001788       ?pZNameList@UnDecorator@@0PEAVReplicator@@EA 0000000180033788     libvcruntime:undname.obj
 0003:00001790       ?pTemplateArgList@UnDecorator@@0PEAVReplicator@@EA 0000000180033790     libvcruntime:undname.obj
 0003:00001798       ?gName@UnDecorator@@0PEBDEB 0000000180033798     libvcruntime:undname.obj
 0003:000017a0       ?name@UnDecorator@@0PEBDEB 00000001800337a0     libvcruntime:undname.obj
 0003:000017a8       ?disableFlags@UnDecorator@@0KA 00000001800337a8     libvcruntime:undname.obj
 0003:000017ac       ?fExplicitTemplateParams@UnDecorator@@0_NA 00000001800337ac     libvcruntime:undname.obj
 0003:000017ad       ?fGetTemplateArgumentList@UnDecorator@@0_NA 00000001800337ad     libvcruntime:undname.obj
 0003:000017b0       ?m_pGetParameter@UnDecorator@@0P6APEADJ@ZEA 00000001800337b0     libvcruntime:undname.obj
 0003:000017b8       ?m_CHPENameOffset@UnDecorator@@0KA 00000001800337b8     libvcruntime:undname.obj
 0003:000017bc       ?m_recursionLevel@UnDecorator@@0KA 00000001800337bc     libvcruntime:undname.obj
 0003:00001840       ?c_exit_complete@?1???R<lambda_6e4b09c48022b2350581041d5f6b0c4c>@@QEBA@XZ@4_NA 0000000180033840     libucrt:exit.obj
 0003:00001958       _environ_table             0000000180033958     libucrt:environment_initialization.obj
 0003:00001960       _wenviron_table            0000000180033960     libucrt:environment_initialization.obj
 0003:00001968       __dcrt_initial_wide_environment 0000000180033968     libucrt:environment_initialization.obj
 0003:00001970       __dcrt_initial_narrow_environment 0000000180033970     libucrt:environment_initialization.obj
 0003:00001978       __acrt_atexit_table        0000000180033978     libucrt:onexit.obj
 0003:00001990       __acrt_at_quick_exit_table 0000000180033990     libucrt:onexit.obj
 0003:00001b68       _nstream                   0000000180033b68     libucrt:_file.obj
 0003:00001b70       __piob                     0000000180033b70     libucrt:_file.obj
 0003:00001b80       __acrt_stdout_buffer       0000000180033b80     libucrt:_sftbuf.obj
 0003:00001b88       __acrt_stderr_buffer       0000000180033b88     libucrt:_sftbuf.obj
 0003:00001b90       __acrt_locale_changed_data 0000000180033b90     libucrt:wsetlocale.obj
 0003:00001b98       __acrt_current_locale_data 0000000180033b98     libucrt:nlsdata.obj
 0003:00001ba0       __pioinfo                  0000000180033ba0     libucrt:ioinit.obj
 0003:00001fa0       _nhandle                   0000000180033fa0     libucrt:ioinit.obj
 0003:000021e8       _mbctype                   00000001800341e8     libucrt:mbctype.obj
 0003:000021f0       _mbcasemap                 00000001800341f0     libucrt:mbctype.obj
 0003:000021f8       __acrt_current_multibyte_data 00000001800341f8     libucrt:mbctype.obj
 0003:00002208       _pgmptr                    0000000180034208     libucrt:argv_data.obj
 0003:00002210       __argc                     0000000180034210     libucrt:argv_data.obj
 0003:00002218       __argv                     0000000180034218     libucrt:argv_data.obj
 0003:00002220       __wargv                    0000000180034220     libucrt:argv_data.obj
 0003:00002228       _acmdln                    0000000180034228     libucrt:argv_data.obj
 0003:00002230       _wcmdln                    0000000180034230     libucrt:argv_data.obj
 0003:00002238       __acrt_heap                0000000180034238     libucrt:heap_handle.obj
 0003:0000226c       __acrt_lconv_static_null   000000018003426c     libucrt:localeconv.obj
 0003:00002270       __acrt_lconv_static_W_null 0000000180034270     libucrt:localeconv.obj
 0003:00002284       __fma3_is_available        0000000180034284     libucrt:fma3_available.obj
 0003:00002288       __use_fma3_lib             0000000180034288     libucrt:fma3_available.obj
 0003:00002290       __dyn_tls_init_callback    0000000180034290     <common>
 0003:00002298       __scrt_ucrt_dll_is_in_use  0000000180034298     <common>

 entry point at        0001:0000f484

 Static symbols

 0000:fffc1000       .debug$S                   0000000180000000     OPOSCheckScanner.exp
 0000:fffc1000       .debug$S                   0000000180000000     advapi32:ADVAPI32.dll
 0000:fffc1000       .debug$S                   0000000180000000     advapi32:ADVAPI32.dll
 0000:fffc1000       .debug$S                   0000000180000000     advapi32:ADVAPI32.dll
 0000:fffc1000       .debug$S                   0000000180000000     advapi32:ADVAPI32.dll
 0000:fffc1000       .debug$S                   0000000180000000     advapi32:ADVAPI32.dll
 0000:fffc1000       .debug$S                   0000000180000000     advapi32:ADVAPI32.dll
 0000:fffc1000       .debug$S                   0000000180000000     advapi32:ADVAPI32.dll
 0000:fffc1000       .debug$S                   0000000180000000     advapi32:ADVAPI32.dll
 0000:fffc1000       .debug$S                   0000000180000000     advapi32:ADVAPI32.dll
 0000:fffc1000       .debug$S                   0000000180000000     gdi32:GDI32.dll
 0000:fffc1000       .debug$S                   0000000180000000     gdi32:GDI32.dll
 0000:fffc1000       .debug$S                   0000000180000000     gdi32:GDI32.dll
 0000:fffc1000       .debug$S                   0000000180000000     gdi32:GDI32.dll
 0000:fffc1000       .debug$S                   0000000180000000     gdi32:GDI32.dll
 0000:fffc1000       .debug$S                   0000000180000000     gdi32:GDI32.dll
 0000:fffc1000       .debug$S                   0000000180000000     gdi32:GDI32.dll
 0000:fffc1000       .debug$S                   0000000180000000     gdi32:GDI32.dll
 0000:fffc1000       .debug$S                   0000000180000000     gdi32:GDI32.dll
 0000:fffc1000       .debug$S                   0000000180000000     gdi32:GDI32.dll
 0000:fffc1000       .debug$S                   0000000180000000     gdi32:GDI32.dll
 0000:fffc1000       .debug$S                   0000000180000000     gdi32:GDI32.dll
 0000:fffc1000       .debug$S                   0000000180000000     gdi32:GDI32.dll
 0000:fffc1000       .debug$S                   0000000180000000     gdi32:GDI32.dll
 0000:fffc1000       .debug$S                   0000000180000000     gdi32:GDI32.dll
 0000:fffc1000       .debug$S                   0000000180000000     gdi32:GDI32.dll
 0000:fffc1000       .debug$S                   0000000180000000     gdi32:GDI32.dll
 0000:fffc1000       .debug$S                   0000000180000000     gdi32:GDI32.dll
 0000:fffc1000       .debug$S                   0000000180000000     gdi32:GDI32.dll
 0000:fffc1000       .debug$S                   0000000180000000     kernel32:KERNEL32.dll
 0000:fffc1000       .debug$S                   0000000180000000     kernel32:KERNEL32.dll
 0000:fffc1000       .debug$S                   0000000180000000     kernel32:KERNEL32.dll
 0000:fffc1000       .debug$S                   0000000180000000     kernel32:KERNEL32.dll
 0000:fffc1000       .debug$S                   0000000180000000     kernel32:KERNEL32.dll
 0000:fffc1000       .debug$S                   0000000180000000     kernel32:KERNEL32.dll
 0000:fffc1000       .debug$S                   0000000180000000     kernel32:KERNEL32.dll
 0000:fffc1000       .debug$S                   0000000180000000     kernel32:KERNEL32.dll
 0000:fffc1000       .debug$S                   0000000180000000     kernel32:KERNEL32.dll
 0000:fffc1000       .debug$S                   0000000180000000     kernel32:KERNEL32.dll
 0000:fffc1000       .debug$S                   0000000180000000     kernel32:KERNEL32.dll
 0000:fffc1000       .debug$S                   0000000180000000     kernel32:KERNEL32.dll
 0000:fffc1000       .debug$S                   0000000180000000     kernel32:KERNEL32.dll
 0000:fffc1000       .debug$S                   0000000180000000     kernel32:KERNEL32.dll
 0000:fffc1000       .debug$S                   0000000180000000     kernel32:KERNEL32.dll
 0000:fffc1000       .debug$S                   0000000180000000     kernel32:KERNEL32.dll
 0000:fffc1000       .debug$S                   0000000180000000     kernel32:KERNEL32.dll
 0000:fffc1000       .debug$S                   0000000180000000     kernel32:KERNEL32.dll
 0000:fffc1000       .debug$S                   0000000180000000     kernel32:KERNEL32.dll
 0000:fffc1000       .debug$S                   0000000180000000     kernel32:KERNEL32.dll
 0000:fffc1000       .debug$S                   0000000180000000     kernel32:KERNEL32.dll
 0000:fffc1000       .debug$S                   0000000180000000     kernel32:KERNEL32.dll
 0000:fffc1000       .debug$S                   0000000180000000     kernel32:KERNEL32.dll
 0000:fffc1000       .debug$S                   0000000180000000     kernel32:KERNEL32.dll
 0000:fffc1000       .debug$S                   0000000180000000     kernel32:KERNEL32.dll
 0000:fffc1000       .debug$S                   0000000180000000     kernel32:KERNEL32.dll
 0000:fffc1000       .debug$S                   0000000180000000     kernel32:KERNEL32.dll
 0000:fffc1000       .debug$S                   0000000180000000     kernel32:KERNEL32.dll
 0000:fffc1000       .debug$S                   0000000180000000     kernel32:KERNEL32.dll
 0000:fffc1000       .debug$S                   0000000180000000     kernel32:KERNEL32.dll
 0000:fffc1000       .debug$S                   0000000180000000     kernel32:KERNEL32.dll
 0000:fffc1000       .debug$S                   0000000180000000     kernel32:KERNEL32.dll
 0000:fffc1000       .debug$S                   0000000180000000     kernel32:KERNEL32.dll
 0000:fffc1000       .debug$S                   0000000180000000     kernel32:KERNEL32.dll
 0000:fffc1000       .debug$S                   0000000180000000     kernel32:KERNEL32.dll
 0000:fffc1000       .debug$S                   0000000180000000     kernel32:KERNEL32.dll
 0000:fffc1000       .debug$S                   0000000180000000     kernel32:KERNEL32.dll
 0000:fffc1000       .debug$S                   0000000180000000     kernel32:KERNEL32.dll
 0000:fffc1000       .debug$S                   0000000180000000     kernel32:KERNEL32.dll
 0000:fffc1000       .debug$S                   0000000180000000     kernel32:KERNEL32.dll
 0000:fffc1000       .debug$S                   0000000180000000     kernel32:KERNEL32.dll
 0000:fffc1000       .debug$S                   0000000180000000     kernel32:KERNEL32.dll
 0000:fffc1000       .debug$S                   0000000180000000     kernel32:KERNEL32.dll
 0000:fffc1000       .debug$S                   0000000180000000     kernel32:KERNEL32.dll
 0000:fffc1000       .debug$S                   0000000180000000     kernel32:KERNEL32.dll
 0000:fffc1000       .debug$S                   0000000180000000     kernel32:KERNEL32.dll
 0000:fffc1000       .debug$S                   0000000180000000     kernel32:KERNEL32.dll
 0000:fffc1000       .debug$S                   0000000180000000     kernel32:KERNEL32.dll
 0000:fffc1000       .debug$S                   0000000180000000     kernel32:KERNEL32.dll
 0000:fffc1000       .debug$S                   0000000180000000     kernel32:KERNEL32.dll
 0000:fffc1000       .debug$S                   0000000180000000     kernel32:KERNEL32.dll
 0000:fffc1000       .debug$S                   0000000180000000     kernel32:KERNEL32.dll
 0000:fffc1000       .debug$S                   0000000180000000     kernel32:KERNEL32.dll
 0000:fffc1000       .debug$S                   0000000180000000     kernel32:KERNEL32.dll
 0000:fffc1000       .debug$S                   0000000180000000     kernel32:KERNEL32.dll
 0000:fffc1000       .debug$S                   0000000180000000     kernel32:KERNEL32.dll
 0000:fffc1000       .debug$S                   0000000180000000     kernel32:KERNEL32.dll
 0000:fffc1000       .debug$S                   0000000180000000     kernel32:KERNEL32.dll
 0000:fffc1000       .debug$S                   0000000180000000     kernel32:KERNEL32.dll
 0000:fffc1000       .debug$S                   0000000180000000     kernel32:KERNEL32.dll
 0000:fffc1000       .debug$S                   0000000180000000     kernel32:KERNEL32.dll
 0000:fffc1000       .debug$S                   0000000180000000     kernel32:KERNEL32.dll
 0000:fffc1000       .debug$S                   0000000180000000     kernel32:KERNEL32.dll
 0000:fffc1000       .debug$S                   0000000180000000     kernel32:KERNEL32.dll
 0000:fffc1000       .debug$S                   0000000180000000     kernel32:KERNEL32.dll
 0000:fffc1000       .debug$S                   0000000180000000     kernel32:KERNEL32.dll
 0000:fffc1000       .debug$S                   0000000180000000     kernel32:KERNEL32.dll
 0000:fffc1000       .debug$S                   0000000180000000     kernel32:KERNEL32.dll
 0000:fffc1000       .debug$S                   0000000180000000     kernel32:KERNEL32.dll
 0000:fffc1000       .debug$S                   0000000180000000     kernel32:KERNEL32.dll
 0000:fffc1000       .debug$S                   0000000180000000     kernel32:KERNEL32.dll
 0000:fffc1000       .debug$S                   0000000180000000     kernel32:KERNEL32.dll
 0000:fffc1000       .debug$S                   0000000180000000     kernel32:KERNEL32.dll
 0000:fffc1000       .debug$S                   0000000180000000     kernel32:KERNEL32.dll
 0000:fffc1000       .debug$S                   0000000180000000     kernel32:KERNEL32.dll
 0000:fffc1000       .debug$S                   0000000180000000     kernel32:KERNEL32.dll
 0000:fffc1000       .debug$S                   0000000180000000     kernel32:KERNEL32.dll
 0000:fffc1000       .debug$S                   0000000180000000     kernel32:KERNEL32.dll
 0000:fffc1000       .debug$S                   0000000180000000     kernel32:KERNEL32.dll
 0000:fffc1000       .debug$S                   0000000180000000     kernel32:KERNEL32.dll
 0000:fffc1000       .debug$S                   0000000180000000     kernel32:KERNEL32.dll
 0000:fffc1000       .debug$S                   0000000180000000     kernel32:KERNEL32.dll
 0000:fffc1000       .debug$S                   0000000180000000     kernel32:KERNEL32.dll
 0000:fffc1000       .debug$S                   0000000180000000     kernel32:KERNEL32.dll
 0000:fffc1000       .debug$S                   0000000180000000     kernel32:KERNEL32.dll
 0000:fffc1000       .debug$S                   0000000180000000     kernel32:KERNEL32.dll
 0000:fffc1000       .debug$S                   0000000180000000     kernel32:KERNEL32.dll
 0000:fffc1000       .debug$S                   0000000180000000     kernel32:KERNEL32.dll
 0000:fffc1000       .debug$S                   0000000180000000     kernel32:KERNEL32.dll
 0000:fffc1000       .debug$S                   0000000180000000     kernel32:KERNEL32.dll
 0000:fffc1000       .debug$S                   0000000180000000     kernel32:KERNEL32.dll
 0000:fffc1000       .debug$S                   0000000180000000     kernel32:KERNEL32.dll
 0000:fffc1000       .debug$S                   0000000180000000     kernel32:KERNEL32.dll
 0000:fffc1000       .debug$S                   0000000180000000     kernel32:KERNEL32.dll
 0000:fffc1000       .debug$S                   0000000180000000     kernel32:KERNEL32.dll
 0000:fffc1000       .debug$S                   0000000180000000     kernel32:KERNEL32.dll
 0000:fffc1000       .debug$S                   0000000180000000     kernel32:KERNEL32.dll
 0000:fffc1000       .debug$S                   0000000180000000     kernel32:KERNEL32.dll
 0000:fffc1000       .debug$S                   0000000180000000     kernel32:KERNEL32.dll
 0000:fffc1000       .debug$S                   0000000180000000     kernel32:KERNEL32.dll
 0000:fffc1000       .debug$S                   0000000180000000     kernel32:KERNEL32.dll
 0000:fffc1000       .debug$S                   0000000180000000     kernel32:KERNEL32.dll
 0000:fffc1000       .debug$S                   0000000180000000     kernel32:KERNEL32.dll
 0000:fffc1000       .debug$S                   0000000180000000     kernel32:KERNEL32.dll
 0000:fffc1000       .debug$S                   0000000180000000     kernel32:KERNEL32.dll
 0000:fffc1000       .debug$S                   0000000180000000     kernel32:KERNEL32.dll
 0000:fffc1000       .debug$S                   0000000180000000     kernel32:KERNEL32.dll
 0000:fffc1000       .debug$S                   0000000180000000     kernel32:KERNEL32.dll
 0000:fffc1000       .debug$S                   0000000180000000     kernel32:KERNEL32.dll
 0000:fffc1000       .debug$S                   0000000180000000     kernel32:KERNEL32.dll
 0000:fffc1000       .debug$S                   0000000180000000     kernel32:KERNEL32.dll
 0000:fffc1000       .debug$S                   0000000180000000     ole32:ole32.dll
 0000:fffc1000       .debug$S                   0000000180000000     ole32:ole32.dll
 0000:fffc1000       .debug$S                   0000000180000000     ole32:ole32.dll
 0000:fffc1000       .debug$S                   0000000180000000     ole32:ole32.dll
 0000:fffc1000       .debug$S                   0000000180000000     ole32:ole32.dll
 0000:fffc1000       .debug$S                   0000000180000000     ole32:ole32.dll
 0000:fffc1000       .debug$S                   0000000180000000     ole32:ole32.dll
 0000:fffc1000       .debug$S                   0000000180000000     ole32:ole32.dll
 0000:fffc1000       .debug$S                   0000000180000000     ole32:ole32.dll
 0000:fffc1000       .debug$S                   0000000180000000     ole32:ole32.dll
 0000:fffc1000       .debug$S                   0000000180000000     ole32:ole32.dll
 0000:fffc1000       .debug$S                   0000000180000000     ole32:ole32.dll
 0000:fffc1000       .debug$S                   0000000180000000     ole32:ole32.dll
 0000:fffc1000       .debug$S                   0000000180000000     ole32:ole32.dll
 0000:fffc1000       .debug$S                   0000000180000000     oleaut32:OLEAUT32.dll
 0000:fffc1000       .debug$S                   0000000180000000     oleaut32:OLEAUT32.dll
 0000:fffc1000       .debug$S                   0000000180000000     oleaut32:OLEAUT32.dll
 0000:fffc1000       .debug$S                   0000000180000000     oleaut32:OLEAUT32.dll
 0000:fffc1000       .debug$S                   0000000180000000     oleaut32:OLEAUT32.dll
 0000:fffc1000       .debug$S                   0000000180000000     oleaut32:OLEAUT32.dll
 0000:fffc1000       .debug$S                   0000000180000000     oleaut32:OLEAUT32.dll
 0000:fffc1000       .debug$S                   0000000180000000     oleaut32:OLEAUT32.dll
 0000:fffc1000       .debug$S                   0000000180000000     oleaut32:OLEAUT32.dll
 0000:fffc1000       .debug$S                   0000000180000000     oleaut32:OLEAUT32.dll
 0000:fffc1000       .debug$S                   0000000180000000     oleaut32:OLEAUT32.dll
 0000:fffc1000       .debug$S                   0000000180000000     oleaut32:OLEAUT32.dll
 0000:fffc1000       .debug$S                   0000000180000000     oleaut32:OLEAUT32.dll
 0000:fffc1000       .debug$S                   0000000180000000     oleaut32:OLEAUT32.dll
 0000:fffc1000       .debug$S                   0000000180000000     oleaut32:OLEAUT32.dll
 0000:fffc1000       .debug$S                   0000000180000000     oleaut32:OLEAUT32.dll
 0000:fffc1000       .debug$S                   0000000180000000     user32:USER32.dll
 0000:fffc1000       .debug$S                   0000000180000000     user32:USER32.dll
 0000:fffc1000       .debug$S                   0000000180000000     user32:USER32.dll
 0000:fffc1000       .debug$S                   0000000180000000     user32:USER32.dll
 0000:fffc1000       .debug$S                   0000000180000000     user32:USER32.dll
 0000:fffc1000       .debug$S                   0000000180000000     user32:USER32.dll
 0000:fffc1000       .debug$S                   0000000180000000     user32:USER32.dll
 0000:fffc1000       .debug$S                   0000000180000000     user32:USER32.dll
 0000:fffc1000       .debug$S                   0000000180000000     user32:USER32.dll
 0000:fffc1000       .debug$S                   0000000180000000     user32:USER32.dll
 0000:fffc1000       .debug$S                   0000000180000000     user32:USER32.dll
 0000:fffc1000       .debug$S                   0000000180000000     user32:USER32.dll
 0000:fffc1000       .debug$S                   0000000180000000     user32:USER32.dll
 0000:fffc1000       .debug$S                   0000000180000000     user32:USER32.dll
 0000:fffc1000       .debug$S                   0000000180000000     user32:USER32.dll
 0000:fffc1000       .debug$S                   0000000180000000     user32:USER32.dll
 0000:fffc1000       .debug$S                   0000000180000000     user32:USER32.dll
 0000:fffc1000       .debug$S                   0000000180000000     user32:USER32.dll
 0000:fffc1000       .debug$S                   0000000180000000     user32:USER32.dll
 0000:fffc1000       .debug$S                   0000000180000000     user32:USER32.dll
 0000:fffc1000       .debug$S                   0000000180000000     user32:USER32.dll
 0000:fffc1000       .debug$S                   0000000180000000     user32:USER32.dll
 0000:fffc1000       .debug$S                   0000000180000000     user32:USER32.dll
 0000:fffc1000       .debug$S                   0000000180000000     user32:USER32.dll
 0000:fffc1000       .debug$S                   0000000180000000     user32:USER32.dll
 0000:fffc1000       .debug$S                   0000000180000000     user32:USER32.dll
 0000:fffc1000       .debug$S                   0000000180000000     user32:USER32.dll
 0000:fffc1000       .debug$S                   0000000180000000     user32:USER32.dll
 0000:fffc1000       .debug$S                   0000000180000000     user32:USER32.dll
 0000:fffc1000       .debug$S                   0000000180000000     user32:USER32.dll
 0000:fffc1000       .debug$S                   0000000180000000     user32:USER32.dll
 0000:fffc1000       .debug$S                   0000000180000000     user32:USER32.dll
 0000:fffc1000       .debug$S                   0000000180000000     user32:USER32.dll
 0000:fffc1000       .debug$S                   0000000180000000     user32:USER32.dll
 0000:fffc1000       .debug$S                   0000000180000000     user32:USER32.dll
 0001:00000000       ??__E_AtlComModule@ATL@@YAXXZ 0000000180001000 f   OposVariant.obj
 0001:00000020       ??__E_AtlWinModule@ATL@@YAXXZ 0000000180001020 f   OposVariant.obj
 0001:00000040       ??__E?pConnMap@?$IConnectionPointContainerImpl@VCOPOSCheckScanner@@@ATL@@0PEBU_ATL_CONNMAP_ENTRY@2@EB@@YAXXZ 0000000180001040 f   CheckScanner.obj
 0001:00000058       ??__E_Module@@YAXXZ        0000000180001058 f   CheckScanner.obj
 0001:00000094       ??__E_AtlBaseModule@ATL@@YAXXZ 0000000180001094 f   atls:atlbase.obj
 0001:0000ea90       ?__scrt_initialize_thread_safe_statics@@YAHXZ 000000018000fa90 f   LIBCMT:thread_safe_statics.obj
 0001:0000eb60       ?__scrt_uninitialize_thread_safe_statics@@YAXXZ 000000018000fb60 f   LIBCMT:thread_safe_statics.obj
 0001:0000eeb0       capture_current_context    000000018000feb0 f   LIBCMT:gs_report.obj
 0001:0000ef20       capture_previous_context   000000018000ff20 f   LIBCMT:gs_report.obj
 0001:0000f0c0       $$000000                   00000001800100c0     LIBCMT:chkstk.obj
 0001:0000f130       $$000000                   0000000180010130     LIBCMT:amdsecgs.obj
 0001:0000f164       ?dllmain_crt_dispatch@@YAHQEAUHINSTANCE__@@KQEAX@Z 0000000180010164 f   LIBCMT:dll_dllmain.obj
 0001:0000f1b4       ?dllmain_crt_process_attach@@YAHQEAUHINSTANCE__@@QEAX@Z 00000001800101b4 f   LIBCMT:dll_dllmain.obj
 0001:0000f2cc       ?dllmain_crt_process_detach@@YAH_N@Z 00000001800102cc f   LIBCMT:dll_dllmain.obj
 0001:0000f350       ?dllmain_dispatch@@YAHQEAUHINSTANCE__@@KQEAX@Z 0000000180010350 f   LIBCMT:dll_dllmain.obj
 0001:0000fc18       ??$GetProcAddressAll@P6AP6A_JPEAUHWND__@@I_K_J@ZPEAUAtlThunkData_t@@@Z@@YAP6AP6A_JPEAUHWND__@@I_K_J@ZPEAUAtlThunkData_t@@@ZPEAP6AP6A_J0I12@Z3@Z@Z 0000000180010c18 f   atls:atlthunk.obj
 0001:0000fc18       ??$GetProcAddressAll@P6APEAUAtlThunkData_t@@XZ@@YAP6APEAUAtlThunkData_t@@XZPEAP6APEAU0@XZ@Z 0000000180010c18 f   atls:atlthunk.obj
 0001:0000fc18       ??$GetProcAddressAll@P6AXPEAUAtlThunkData_t@@@Z@@YAP6AXPEAUAtlThunkData_t@@@ZPEAP6AX0@Z@Z 0000000180010c18 f   atls:atlthunk.obj
 0001:0000fc18       ??$GetProcAddressAll@P6AXPEAUAtlThunkData_t@@PEAX_K@Z@@YAP6AXPEAUAtlThunkData_t@@PEAX_K@ZPEAP6AX012@Z@Z 0000000180010c18 f   atls:atlthunk.obj
 0001:0000fdf0       ?__InitializeThunkPool@@YAHXZ 0000000180010df0 f   atls:atlthunk.obj
 0001:00010290       $$000000                   0000000180011290     libvcruntime:memcmp.obj
 0001:00010370       $$000000                   0000000180011370     libvcruntime:memcpy.obj
 0001:00010780       $$000000                   0000000180011780     libvcruntime:memset.obj
 0001:00011890       $$000000                   0000000180012890     libvcruntime:notify.obj
 0001:000119fc       ??$BuildCatchObjectHelperInternal@V__FrameHandler4@@@@YAHPEAUEHExceptionRecord@@PEAXPEAUHandlerType4@FH4@@PEBU_s_CatchableType@@@Z 00000001800129fc f   libvcruntime:frame.obj
 0001:00011c00       ??$BuildCatchObjectInternal@V__FrameHandler4@@@@YAXPEAUEHExceptionRecord@@PEAXPEAUHandlerType4@FH4@@PEBU_s_CatchableType@@@Z 0000000180012c00 f   libvcruntime:frame.obj
 0001:00011cc4       ??$CatchIt@V__FrameHandler4@@@@YAXPEAUEHExceptionRecord@@PEA_KPEAU_CONTEXT@@PEAU_xDISPATCHER_CONTEXT@@PEAUFuncInfo4@FH4@@PEAUHandlerType4@4@PEBU_s_CatchableType@@PEAUTryBlockMapEntry4@4@H1EE@Z 0000000180012cc4 f   libvcruntime:frame.obj
 0001:00011d98       ??$FindHandler@V__FrameHandler4@@@@YAXPEAUEHExceptionRecord@@PEA_KPEAU_CONTEXT@@PEAU_xDISPATCHER_CONTEXT@@PEAUFuncInfo4@FH4@@EH1@Z 0000000180012d98 f   libvcruntime:frame.obj
 0001:000122a8       ??$FindHandlerForForeignException@V__FrameHandler4@@@@YAXPEAUEHExceptionRecord@@PEA_KPEAU_CONTEXT@@PEAU_xDISPATCHER_CONTEXT@@PEAUFuncInfo4@FH4@@HH1@Z 00000001800132a8 f   libvcruntime:frame.obj
 0001:00013038       ?ExFilterRethrow@@YAHPEAU_EXCEPTION_POINTERS@@PEAUEHExceptionRecord@@PEAH@Z 0000000180014038 f   libvcruntime:frame.obj
 0001:000130c0       ?ExFilterRethrowFH4@@YAHPEAU_EXCEPTION_POINTERS@@PEAUEHExceptionRecord@@HPEAH@Z 00000001800140c0 f   libvcruntime:frame.obj
 0001:000133d8       ?IsInExceptionSpec@@YAEPEAUEHExceptionRecord@@PEBU_s_ESTypeList@@@Z 00000001800143d8 f   libvcruntime:frame.obj
 0001:000134c4       ?Is_bad_exception_allowed@@YAEPEBU_s_ESTypeList@@@Z 00000001800144c4 f   libvcruntime:frame.obj
 0001:000137a0       ?try_get_function@@YAPEAXW4function_id@?A0x5302d918@@QEBDQEBW4module_id@2@2@Z 00000001800147a0 f   libvcruntime:winapi_downlevel.obj
 0001:00013a80       $$000000                   0000000180014a80     libvcruntime:handlers.obj
 0001:00014298       ??$common_vsprintf@Vformat_validation_base@__crt_stdio_output@@_W@@YAH_KQEA_W0QEB_WQEAU__crt_locale_pointers@@QEAD@Z 0000000180015298 f   libucrt:output.obj
 0001:00015138       $LN17                      0000000180016138     libucrt:output.obj
 0001:00015adc       ??$?RV<lambda_d80eeec6fff315bfe5c115232f3240e3>@@AEAV<lambda_6e4b09c48022b2350581041d5f6b0c4c>@@V<lambda_2358e3775559c9db80273638284d5e45>@@@?$__crt_seh_guarded_call@X@@QEAAX$$QEAV<lambda_d80eeec6fff315bfe5c115232f3240e3>@@AEAV<lambda_6e4b09c48022b2350581041d5f6b0c4c>@@$$QEAV<lambda_2358e3775559c9db80273638284d5e45>@@@Z 0000000180016adc f   libucrt:exit.obj
 0001:00015b14       ??R<lambda_6e4b09c48022b2350581041d5f6b0c4c>@@QEBA@XZ 0000000180016b14 f   libucrt:exit.obj
 0001:00015bd8       ?atexit_exception_filter@@YAHK@Z 0000000180016bd8 f   libucrt:exit.obj
 0001:00015be4       ?common_exit@@YAXHW4_crt_exit_cleanup_mode@@W4_crt_exit_return_mode@@@Z 0000000180016be4 f   libucrt:exit.obj
 0001:00015ca0       ?exit_or_terminate_process@@YAXI@Z 0000000180016ca0 f   libucrt:exit.obj
 0001:00015cec       ?try_cor_exit_process@@YAXI@Z 0000000180016cec f   libucrt:exit.obj
 0001:00015d74       ??$parse_command_line@D@@YAXPEADPEAPEAD0PEA_K2@Z 0000000180016d74 f   libucrt:argv_parsing.obj
 0001:0001611c       ??$common_initialize_environment_nolock@D@@YAHXZ 000000018001711c f   libucrt:environment_initialization.obj
 0001:00016188       ??$create_environment@D@@YAQEAPEADQEAD@Z 0000000180017188 f   libucrt:environment_initialization.obj
 0001:00016290       ??$free_environment@D@@YAXQEAPEAD@Z 0000000180017290 f   libucrt:environment_initialization.obj
 0001:00016290       ??$free_environment@_W@@YAXQEAPEA_W@Z 0000000180017290 f   libucrt:environment_initialization.obj
 0001:000162d4       ??$uninitialize_environment_internal@D@@YAXAEAPEAPEAD@Z 00000001800172d4 f   libucrt:environment_initialization.obj
 0001:000162f0       ??$uninitialize_environment_internal@_W@@YAXAEAPEAPEA_W@Z 00000001800172f0 f   libucrt:environment_initialization.obj
 0001:0001634c       ??$?RV<lambda_638799b9deba96c50f710eeac98168cd>@@AEAV<lambda_22ebabd17bc4fa466a2aca6d8deb888d>@@V<lambda_a6f7d7db0129f75315ebf26d50c089f1>@@@?$__crt_seh_guarded_call@H@@QEAAH$$QEAV<lambda_638799b9deba96c50f710eeac98168cd>@@AEAV<lambda_22ebabd17bc4fa466a2aca6d8deb888d>@@$$QEAV<lambda_a6f7d7db0129f75315ebf26d50c089f1>@@@Z 000000018001734c f   libucrt:onexit.obj
 0001:00016388       ??$?RV<lambda_7777bce6b2f8c936911f934f8298dc43>@@AEAV<lambda_f03950bc5685219e0bcd2087efbe011e>@@V<lambda_3883c3dff614d5e0c5f61bb1ac94921c>@@@?$__crt_seh_guarded_call@H@@QEAAH$$QEAV<lambda_7777bce6b2f8c936911f934f8298dc43>@@AEAV<lambda_f03950bc5685219e0bcd2087efbe011e>@@$$QEAV<lambda_3883c3dff614d5e0c5f61bb1ac94921c>@@@Z 0000000180017388 f   libucrt:onexit.obj
 0001:000163c4       ??R<lambda_22ebabd17bc4fa466a2aca6d8deb888d>@@QEBAHXZ 00000001800173c4 f   libucrt:onexit.obj
 0001:00016574       ??R<lambda_f03950bc5685219e0bcd2087efbe011e>@@QEBAHXZ 0000000180017574 f   libucrt:onexit.obj
 0001:00016748       initialize_global_variables 0000000180017748 f   libucrt:initialization.obj
 0001:0001675c       initialize_c               000000018001775c f   libucrt:initialization.obj
 0001:00016780       initialize_environment     0000000180017780 f   libucrt:initialization.obj
 0001:00016780       initialize_global_state_isolation 0000000180017780 f   libucrt:initialization.obj
 0001:00016780       report_memory_leaks        0000000180017780 f   libucrt:initialization.obj
 0001:00016780       uninitialize_c             0000000180017780 f   libucrt:initialization.obj
 0001:00016780       uninitialize_global_state_isolation 0000000180017780 f   libucrt:initialization.obj
 0001:00016784       uninitialize_environment   0000000180017784 f   libucrt:initialization.obj
 0001:00016794       initialize_pointers        0000000180017794 f   libucrt:initialization.obj
 0001:000167d4       uninitialize_vcruntime     00000001800177d4 f   libucrt:initialization.obj
 0001:000167dc       uninitialize_allocated_memory 00000001800177dc f   libucrt:initialization.obj
 0001:0001681c       uninitialize_allocated_io_buffers 000000018001781c f   libucrt:initialization.obj
 0001:00017190       $$000000                   0000000180018190     libucrt:strncmp.obj
 0001:0001728c       ??$?RV<lambda_0ae27a3a962d80f24befdcbee591983d>@@AEAV<lambda_8d0ee55de4b1038c4002e0adecdf1839>@@V<lambda_dc504788e8f1664fe9b84e20bfb512f2>@@@?$__crt_seh_guarded_call@X@@QEAAX$$QEAV<lambda_0ae27a3a962d80f24befdcbee591983d>@@AEAV<lambda_8d0ee55de4b1038c4002e0adecdf1839>@@$$QEAV<lambda_dc504788e8f1664fe9b84e20bfb512f2>@@@Z 000000018001828c f   libucrt:per_thread_data.obj
 0001:000172cc       ??$?RV<lambda_2d41944a1d46af3157314b8a01080d33>@@AEAV<lambda_8f455de75cd7d7f24b4096f044d8b9e6>@@V<lambda_aa500f224e6afead328df44964fe2772>@@@?$__crt_seh_guarded_call@X@@QEAAX$$QEAV<lambda_2d41944a1d46af3157314b8a01080d33>@@AEAV<lambda_8f455de75cd7d7f24b4096f044d8b9e6>@@$$QEAV<lambda_aa500f224e6afead328df44964fe2772>@@@Z 00000001800182cc f   libucrt:per_thread_data.obj
 0001:0001730c       ??$?RV<lambda_aa87e3671a710a21b5dc78c0bdf72e11>@@AEAV<lambda_92619d2358a28f41a33ba319515a20b9>@@V<lambda_6992ecaafeb10aed2b74cb1fae11a551>@@@?$__crt_seh_guarded_call@X@@QEAAX$$QEAV<lambda_aa87e3671a710a21b5dc78c0bdf72e11>@@AEAV<lambda_92619d2358a28f41a33ba319515a20b9>@@$$QEAV<lambda_6992ecaafeb10aed2b74cb1fae11a551>@@@Z 000000018001830c f   libucrt:per_thread_data.obj
 0001:00017354       ??$?RV<lambda_f2e299630e499de9f9a165e60fcd3db5>@@AEAV<lambda_2ae9d31cdba2644fcbeaf08da7c24588>@@V<lambda_40d01ff24d0e7b3814fdbdcee8eab3c7>@@@?$__crt_seh_guarded_call@X@@QEAAX$$QEAV<lambda_f2e299630e499de9f9a165e60fcd3db5>@@AEAV<lambda_2ae9d31cdba2644fcbeaf08da7c24588>@@$$QEAV<lambda_40d01ff24d0e7b3814fdbdcee8eab3c7>@@@Z 0000000180018354 f   libucrt:per_thread_data.obj
 0001:000173b4       ?construct_ptd_array@@YAXQEAU__acrt_ptd@@@Z 00000001800183b4 f   libucrt:per_thread_data.obj
 0001:00017484       ?destroy_fls@@YAXPEAX@Z    0000000180018484 f   libucrt:per_thread_data.obj
 0001:000174a4       ?destroy_ptd_array@@YAXQEAU__acrt_ptd@@@Z 00000001800184a4 f   libucrt:per_thread_data.obj
 0001:0001759c       ?replace_current_thread_locale_nolock@@YAXQEAU__acrt_ptd@@QEAU__crt_locale_data@@@Z 000000018001859c f   libucrt:per_thread_data.obj
 0001:00017a80       ?try_get_function@@YAPEAXW4function_id@?A0x391cf84c@@QEBDQEBW4module_id@2@2@Z 0000000180018a80 f   libucrt:winapi_thunks.obj
 0001:00018450       ?fp_format_a@@YAHQEBNPEAD_KQEAD2H_NIQEAU__crt_locale_pointers@@W4__acrt_rounding_mode@@@Z 0000000180019450 f   libucrt:cvt.obj
 0001:000187d0       ?fp_format_e@@YAHQEBNQEAD_K12H_NIQEAU__crt_locale_pointers@@W4__acrt_rounding_mode@@@Z 00000001800197d0 f   libucrt:cvt.obj
 0001:000188c0       ?fp_format_e_internal@@YAHQEAD_KH_NIQEAU_strflt@@2QEAU__crt_locale_pointers@@@Z 00000001800198c0 f   libucrt:cvt.obj
 0001:00018a94       ?fp_format_f_internal@@YAHQEAD_KHQEAU_strflt@@_NQEAU__crt_locale_pointers@@@Z 0000000180019a94 f   libucrt:cvt.obj
 0001:00018bfc       ?fp_format_g@@YAHQEBNQEAD_K12H_NIQEAU__crt_locale_pointers@@@Z 0000000180019bfc f   libucrt:cvt.obj
 0001:00018d3c       ?should_round_up@@YA_NQEBN_KFW4__acrt_rounding_mode@@@Z 0000000180019d3c f   libucrt:cvt.obj
 0001:00019360       ??$?RV<lambda_410d79af7f07d98d83a3f525b3859a53>@@AEAV<lambda_3e16ef9562a7dcce91392c22ab16ea36>@@V<lambda_38119f0e861e05405d8a144b9b982f0a>@@@?$__crt_seh_guarded_call@X@@QEAAX$$QEAV<lambda_410d79af7f07d98d83a3f525b3859a53>@@AEAV<lambda_3e16ef9562a7dcce91392c22ab16ea36>@@$$QEAV<lambda_38119f0e861e05405d8a144b9b982f0a>@@@Z 000000018001a360 f   libucrt:wsetlocale.obj
 0001:0001940c       ?initialize_inherited_file_handles_nolock@@YAXXZ 000000018001a40c f   libucrt:ioinit.obj
 0001:000194fc       ?initialize_stdio_handles_nolock@@YAXXZ 000000018001a4fc f   libucrt:ioinit.obj
 0001:00019778       ?<lambda_invoker_cdecl>@<lambda_a1ce4c8ae42411fd470c77163914f50e>@@CAHPEBX0@Z 000000018001a778 f   libucrt:argv_wildcards.obj
 0001:00019a90       ??$common_expand_argv_wildcards@D@@YAHQEAPEADQEAPEAPEAD@Z 000000018001aa90 f   libucrt:argv_wildcards.obj
 0001:00019c9c       ??$copy_and_add_argument_to_buffer@D@@YAHQEBD0_KAEAV?$argument_list@D@?A0x5f5c8891@@@Z 000000018001ac9c f   libucrt:argv_wildcards.obj
 0001:00019e24       ??$expand_argument_wildcards@D@@YAHQEAD0AEAV?$argument_list@D@?A0x5f5c8891@@@Z 000000018001ae24 f   libucrt:argv_wildcards.obj
 0001:0001a370       ??$?RV<lambda_efdfa57d1f175319df784efa44bb7b81>@@AEAV<lambda_5f0a4c1567f8adc6734073e5d1e1b35c>@@V<lambda_2e8a7d3640ea6ccb4c2413664c2db6fd>@@@?$__crt_seh_guarded_call@X@@QEAAX$$QEAV<lambda_efdfa57d1f175319df784efa44bb7b81>@@AEAV<lambda_5f0a4c1567f8adc6734073e5d1e1b35c>@@$$QEAV<lambda_2e8a7d3640ea6ccb4c2413664c2db6fd>@@@Z 000000018001b370 f   libucrt:mbctype.obj
 0001:0001a52c       ?getSystemCP@@YAHH@Z       000000018001b52c f   libucrt:mbctype.obj
 0001:0001a5ac       ?setSBCS@@YAXPEAU__crt_multibyte_data@@@Z 000000018001b5ac f   libucrt:mbctype.obj
 0001:0001a63c       ?setSBUpLow@@YAXPEAU__crt_multibyte_data@@@Z 000000018001b63c f   libucrt:mbctype.obj
 0001:0001a820       ?setmbcp_internal@@YAHH_NQEAU__acrt_ptd@@QEAPEAU__crt_multibyte_data@@@Z 000000018001b820 f   libucrt:mbctype.obj
 0001:0001a9e0       ?update_thread_multibyte_data_internal@@YAPEAU__crt_multibyte_data@@QEAU__acrt_ptd@@QEAPEAU1@@Z 000000018001b9e0 f   libucrt:mbctype.obj
 0001:0001add0       ?x_ismbbtype_l@@YAHPEAU__crt_locale_pointers@@IHH@Z 000000018001bdd0 f   libucrt:ismbbyte.obj
 0001:0001b178       ??$?RV<lambda_450d765d439847d4c735a33c368b5fc0>@@AEAV<lambda_44731a7d0e6d81c3e6aa82d741081786>@@V<lambda_601a2a7da3b7a96e9554ac7215c4b07c>@@@?$__crt_seh_guarded_call@P6AXH@Z@@QEAAP6AXH@Z$$QEAV<lambda_450d765d439847d4c735a33c368b5fc0>@@AEAV<lambda_44731a7d0e6d81c3e6aa82d741081786>@@$$QEAV<lambda_601a2a7da3b7a96e9554ac7215c4b07c>@@@Z 000000018001c178 f   libucrt:signal.obj
 0001:0001b4d4       ??$?RV<lambda_842d9ff0dc9ef11c61343bbaebe7f885>@@AEAV<lambda_c5860995281e5c4ce005b3de8f5874ee>@@V<lambda_d90129c13df834fdcbf8d2b88dafcf2d>@@@?$__crt_seh_guarded_call@X@@QEAAX$$QEAV<lambda_842d9ff0dc9ef11c61343bbaebe7f885>@@AEAV<lambda_c5860995281e5c4ce005b3de8f5874ee>@@$$QEAV<lambda_d90129c13df834fdcbf8d2b88dafcf2d>@@@Z 000000018001c4d4 f   libucrt:fflush.obj
 0001:0001b570       ??$?RV<lambda_886d6c58226a84441f68b9f2b8217b83>@@AEAV<lambda_ab61a845afdef5b7c387490eaf3616ee>@@V<lambda_f7f22ab5edc0698d5f6905b0d3f44752>@@@?$__crt_seh_guarded_call@X@@QEAAX$$QEAV<lambda_886d6c58226a84441f68b9f2b8217b83>@@AEAV<lambda_ab61a845afdef5b7c387490eaf3616ee>@@$$QEAV<lambda_f7f22ab5edc0698d5f6905b0d3f44752>@@@Z 000000018001c570 f   libucrt:fflush.obj
 0001:0001b650       ?common_flush_all@@YAH_N@Z 000000018001c650 f   libucrt:fflush.obj
 0001:0001d6a0       memcpy_s                   000000018001e6a0 f   libucrt:cfout.obj
 0001:0001da08       ?free_crt_array_internal@@YAXQEAPEBX_K@Z 000000018001ea08 f   libucrt:inittime.obj
 0001:0001e494       fallbackMethod             000000018001f494 f   libucrt:strpbrk.obj
 0001:0001e84c       $LN78                      000000018001f84c     libucrt:strpbrk.obj
 0001:0001e888       $LN77                      000000018001f888     libucrt:strpbrk.obj
 0001:0001e8c8       $LN76                      000000018001f8c8     libucrt:strpbrk.obj
 0001:0001e9a4       ?__acrt_LCMapStringA_stat@@YAHPEAU__crt_locale_pointers@@PEB_WKPEBDHPEADHHH@Z 000000018001f9a4 f   libucrt:lcmapstringa.obj
 0001:0001ed54       ?initialize_multibyte@@YAHXZ 000000018001fd54 f   libucrt:multibyte_initializer.obj
 0001:0001ed6c       ??$?RV<lambda_a37b2b86f63e897a80ea819b0eb08c01>@@AEAV<lambda_38ce7e780aa69e748d6df282ebc68efe>@@V<lambda_99fb1378e971ab6e7edea83e3a7a83a2>@@@?$__crt_seh_guarded_call@H@@QEAAH$$QEAV<lambda_a37b2b86f63e897a80ea819b0eb08c01>@@AEAV<lambda_38ce7e780aa69e748d6df282ebc68efe>@@$$QEAV<lambda_99fb1378e971ab6e7edea83e3a7a83a2>@@@Z 000000018001fd6c f   libucrt:commit.obj
 0001:0001ee8c       ?write_double_translated_ansi_nolock@@YA?AUwrite_result@?A0x17268360@@HQEBDI@Z 000000018001fe8c f   libucrt:write.obj
 0001:0001f378       ?write_text_ansi_nolock@@YA?AUwrite_result@?A0x17268360@@HQEBDI@Z 0000000180020378 f   libucrt:write.obj
 0001:0001f47c       ?write_text_utf16le_nolock@@YA?AUwrite_result@?A0x17268360@@HQEBDI@Z 000000018002047c f   libucrt:write.obj
 0001:0001f598       ?write_text_utf8_nolock@@YA?AUwrite_result@?A0x17268360@@HQEBDI@Z 0000000180020598 f   libucrt:write.obj
 0001:0001fef0       $$000000                   0000000180020ef0     libucrt:log10.obj
 0001:000207bc       ??$common_lseek_nolock@_J@@YA_JH_JH@Z 00000001800217bc f   libucrt:lseek.obj
 0001:00020a1c       common_control87           0000000180021a1c f   libucrt:ieee.obj
 0001:00020cdc       _call_matherr              0000000180021cdc f   libucrt:libm_error.obj
 0001:00020d44       _exception_enabled         0000000180021d44 f   libucrt:libm_error.obj
 0001:00020fe0       _log_special_common        0000000180021fe0 f   libucrt:log_special.obj
 0001:00021078       ??$?RV<lambda_751a882b2c74d4b022dec766aa51a29a>@@AEAV<lambda_628dfdc04ba53c8bfc02c9951375f3f5>@@V<lambda_f6c7be5f7998530c34de24c7437d6b54>@@@?$__crt_seh_guarded_call@H@@QEAAH$$QEAV<lambda_751a882b2c74d4b022dec766aa51a29a>@@AEAV<lambda_628dfdc04ba53c8bfc02c9951375f3f5>@@$$QEAV<lambda_f6c7be5f7998530c34de24c7437d6b54>@@@Z 0000000180022078 f   libucrt:close.obj
 0001:000213a0       $$000000                   00000001800223a0     libucrt:fpsr.obj
 0001:00021a40       $$000000                   0000000180022a40     LIBCMT:guard_dispatch.obj
 0001:00021a60       $$000000                   0000000180022a60     LIBCMT:guard_xfg_dispatch.obj
 0001:00021a80       ?filt$0@?0??_AtlVerifyStackAvailable@_ATL_SAFE_ALLOCA_IMPL@ATL@@YA_N_K@Z@4HA 0000000180022a80 f   CheckScanner.obj
 0001:00021aa1       __scrt_is_nonwritable_in_current_image$filt$0 0000000180022aa1 f   LIBCMT:utility.obj
 0001:00021ab9       ?catch$0@?0???2@YAPEAX_KAEBUnothrow_t@std@@@Z@4HA 0000000180022ab9 f   LIBCMT:new_scalar_nothrow.obj
 0001:00021ac6       __catch$??2@YAPEAX_KAEBUnothrow_t@std@@@Z$0 0000000180022ac6 f   LIBCMT:new_scalar_nothrow.obj
 0001:00021ad7       ?fin$0@?0??dllmain_crt_process_attach@@YAHQEAUHINSTANCE__@@QEAX@Z@4HA 0000000180022ad7 f   LIBCMT:dll_dllmain.obj
 0001:00021aee       ?fin$0@?0??dllmain_crt_process_detach@@YAH_N@Z@4HA 0000000180022aee f   LIBCMT:dll_dllmain.obj
 0001:00021b07       ?fin$1@?0??dllmain_crt_process_detach@@YAH_N@Z@4HA 0000000180022b07 f   LIBCMT:dll_dllmain.obj
 0001:00021b1b       ?filt$0@?0??dllmain_dispatch@@YAHQEAUHINSTANCE__@@KQEAX@Z@4HA 0000000180022b1b f   LIBCMT:dll_dllmain.obj
 0001:00021b51       ?filt$0@?0???$_CallSETranslator@V__FrameHandler4@@@@YAHPEAUEHExceptionRecord@@PEA_KPEAU_CONTEXT@@PEAU_xDISPATCHER_CONTEXT@@PEAUFuncInfo4@FH4@@K1H@Z@4HA 0000000180022b51 f   libvcruntime:risctrnsctrl.obj
 0001:00021bf0       __DestructExceptionObject$filt$0 0000000180022bf0 f   libvcruntime:ehhelpers.obj
 0001:00021c86       ?filt$0@?0??CxxCallCatchBlock@__FrameHandler4@@SAPEAXPEAU_EXCEPTION_RECORD@@@Z@4HA 0000000180022c86 f   libvcruntime:frame.obj
 0001:00021cb5       ?fin$1@?0??CxxCallCatchBlock@__FrameHandler4@@SAPEAXPEAU_EXCEPTION_RECORD@@@Z@4HA 0000000180022cb5 f   libvcruntime:frame.obj
 0001:00021d38       ?filt$0@?0??FrameUnwindToState@__FrameHandler4@@SAXPEA_KPEAU_xDISPATCHER_CONTEXT@@PEAUFuncInfo4@FH4@@H@Z@4HA 0000000180022d38 f   libvcruntime:frame.obj
 0001:00021d4e       ?fin$1@?0??FrameUnwindToState@__FrameHandler4@@SAXPEA_KPEAU_xDISPATCHER_CONTEXT@@PEAUFuncInfo4@FH4@@H@Z@4HA 0000000180022d4e f   libvcruntime:frame.obj
 0001:00021d71       ?fin$0@?0???$?RV<lambda_0ae27a3a962d80f24befdcbee591983d>@@AEAV<lambda_8d0ee55de4b1038c4002e0adecdf1839>@@V<lambda_dc504788e8f1664fe9b84e20bfb512f2>@@@?$__crt_seh_guarded_call@X@@QEAAX$$QEAV<lambda_0ae27a3a962d80f24befdcbee591983d>@@AEAV<lambda_8d0ee55de4b1038c4002e0adecdf1839>@@$$QEAV<lambda_dc504788e8f1664fe9b84e20bfb512f2>@@@Z@4HA 0000000180022d71 f   libucrt:per_thread_data.obj
 0001:00021d71       ?fin$0@?0???$?RV<lambda_2d41944a1d46af3157314b8a01080d33>@@AEAV<lambda_8f455de75cd7d7f24b4096f044d8b9e6>@@V<lambda_aa500f224e6afead328df44964fe2772>@@@?$__crt_seh_guarded_call@X@@QEAAX$$QEAV<lambda_2d41944a1d46af3157314b8a01080d33>@@AEAV<lambda_8f455de75cd7d7f24b4096f044d8b9e6>@@$$QEAV<lambda_aa500f224e6afead328df44964fe2772>@@@Z@4HA 0000000180022d71 f   libucrt:per_thread_data.obj
 0001:00021d71       ?fin$0@?0???$?RV<lambda_aa87e3671a710a21b5dc78c0bdf72e11>@@AEAV<lambda_92619d2358a28f41a33ba319515a20b9>@@V<lambda_6992ecaafeb10aed2b74cb1fae11a551>@@@?$__crt_seh_guarded_call@X@@QEAAX$$QEAV<lambda_aa87e3671a710a21b5dc78c0bdf72e11>@@AEAV<lambda_92619d2358a28f41a33ba319515a20b9>@@$$QEAV<lambda_6992ecaafeb10aed2b74cb1fae11a551>@@@Z@4HA 0000000180022d71 f   libucrt:per_thread_data.obj
 0001:00021d71       ?fin$0@?0???$?RV<lambda_f2e299630e499de9f9a165e60fcd3db5>@@AEAV<lambda_2ae9d31cdba2644fcbeaf08da7c24588>@@V<lambda_40d01ff24d0e7b3814fdbdcee8eab3c7>@@@?$__crt_seh_guarded_call@X@@QEAAX$$QEAV<lambda_f2e299630e499de9f9a165e60fcd3db5>@@AEAV<lambda_2ae9d31cdba2644fcbeaf08da7c24588>@@$$QEAV<lambda_40d01ff24d0e7b3814fdbdcee8eab3c7>@@@Z@4HA 0000000180022d71 f   libucrt:per_thread_data.obj
 0001:00021d71       ?fin$0@?0???$?RV<lambda_efdfa57d1f175319df784efa44bb7b81>@@AEAV<lambda_5f0a4c1567f8adc6734073e5d1e1b35c>@@V<lambda_2e8a7d3640ea6ccb4c2413664c2db6fd>@@@?$__crt_seh_guarded_call@X@@QEAAX$$QEAV<lambda_efdfa57d1f175319df784efa44bb7b81>@@AEAV<lambda_5f0a4c1567f8adc6734073e5d1e1b35c>@@$$QEAV<lambda_2e8a7d3640ea6ccb4c2413664c2db6fd>@@@Z@4HA 0000000180022d71 f   libucrt:mbctype.obj
 0001:00021d71       ?fin$0@?0???$?RV<lambda_450d765d439847d4c735a33c368b5fc0>@@AEAV<lambda_44731a7d0e6d81c3e6aa82d741081786>@@V<lambda_601a2a7da3b7a96e9554ac7215c4b07c>@@@?$__crt_seh_guarded_call@P6AXH@Z@@QEAAP6AXH@Z$$QEAV<lambda_450d765d439847d4c735a33c368b5fc0>@@AEAV<lambda_44731a7d0e6d81c3e6aa82d741081786>@@$$QEAV<lambda_601a2a7da3b7a96e9554ac7215c4b07c>@@@Z@4HA 0000000180022d71 f   libucrt:signal.obj
 0001:00021d71       ?fin$0@?0???$?RV<lambda_d80eeec6fff315bfe5c115232f3240e3>@@AEAV<lambda_6e4b09c48022b2350581041d5f6b0c4c>@@V<lambda_2358e3775559c9db80273638284d5e45>@@@?$__crt_seh_guarded_call@X@@QEAAX$$QEAV<lambda_d80eeec6fff315bfe5c115232f3240e3>@@AEAV<lambda_6e4b09c48022b2350581041d5f6b0c4c>@@$$QEAV<lambda_2358e3775559c9db80273638284d5e45>@@@Z@4HA 0000000180022d71 f   libucrt:exit.obj
 0001:00021d71       ?fin$0@?0???$?RV<lambda_638799b9deba96c50f710eeac98168cd>@@AEAV<lambda_22ebabd17bc4fa466a2aca6d8deb888d>@@V<lambda_a6f7d7db0129f75315ebf26d50c089f1>@@@?$__crt_seh_guarded_call@H@@QEAAH$$QEAV<lambda_638799b9deba96c50f710eeac98168cd>@@AEAV<lambda_22ebabd17bc4fa466a2aca6d8deb888d>@@$$QEAV<lambda_a6f7d7db0129f75315ebf26d50c089f1>@@@Z@4HA 0000000180022d71 f   libucrt:onexit.obj
 0001:00021d71       ?fin$0@?0???$?RV<lambda_7777bce6b2f8c936911f934f8298dc43>@@AEAV<lambda_f03950bc5685219e0bcd2087efbe011e>@@V<lambda_3883c3dff614d5e0c5f61bb1ac94921c>@@@?$__crt_seh_guarded_call@H@@QEAAH$$QEAV<lambda_7777bce6b2f8c936911f934f8298dc43>@@AEAV<lambda_f03950bc5685219e0bcd2087efbe011e>@@$$QEAV<lambda_3883c3dff614d5e0c5f61bb1ac94921c>@@@Z@4HA 0000000180022d71 f   libucrt:onexit.obj
 0001:00021d8b       ?filt$0@?0???R<lambda_6e4b09c48022b2350581041d5f6b0c4c>@@QEBA@XZ@4HA 0000000180022d8b f   libucrt:exit.obj
 0001:00021da6       _query_new_handler$fin$0   0000000180022da6 f   libucrt:new_handler.obj
 0001:00021dbc       ?fin$0@?0???$?RV<lambda_410d79af7f07d98d83a3f525b3859a53>@@AEAV<lambda_3e16ef9562a7dcce91392c22ab16ea36>@@V<lambda_38119f0e861e05405d8a144b9b982f0a>@@@?$__crt_seh_guarded_call@X@@QEAAX$$QEAV<lambda_410d79af7f07d98d83a3f525b3859a53>@@AEAV<lambda_3e16ef9562a7dcce91392c22ab16ea36>@@$$QEAV<lambda_38119f0e861e05405d8a144b9b982f0a>@@@Z@4HA 0000000180022dbc f   libucrt:wsetlocale.obj
 0001:00021dd6       __acrt_initialize_lowio$fin$0 0000000180022dd6 f   libucrt:ioinit.obj
 0001:00021dd6       __acrt_lowio_ensure_fh_exists$fin$0 0000000180022dd6 f   libucrt:osfinfo.obj
 0001:00021def       ?fin$0@?0??update_thread_multibyte_data_internal@@YAPEAU__crt_multibyte_data@@QEAU__acrt_ptd@@QEAPEAU1@@Z@4HA 0000000180022def f   libucrt:mbctype.obj
 0001:00021e08       raise$fin$0                0000000180022e08 f   libucrt:signal.obj
 0001:00021e29       ?fin$0@?0???$?RV<lambda_842d9ff0dc9ef11c61343bbaebe7f885>@@AEAV<lambda_c5860995281e5c4ce005b3de8f5874ee>@@V<lambda_d90129c13df834fdcbf8d2b88dafcf2d>@@@?$__crt_seh_guarded_call@X@@QEAAX$$QEAV<lambda_842d9ff0dc9ef11c61343bbaebe7f885>@@AEAV<lambda_c5860995281e5c4ce005b3de8f5874ee>@@$$QEAV<lambda_d90129c13df834fdcbf8d2b88dafcf2d>@@@Z@4HA 0000000180022e29 f   libucrt:fflush.obj
 0001:00021e44       ?fin$0@?0???$?RV<lambda_886d6c58226a84441f68b9f2b8217b83>@@AEAV<lambda_ab61a845afdef5b7c387490eaf3616ee>@@V<lambda_f7f22ab5edc0698d5f6905b0d3f44752>@@@?$__crt_seh_guarded_call@X@@QEAAX$$QEAV<lambda_886d6c58226a84441f68b9f2b8217b83>@@AEAV<lambda_ab61a845afdef5b7c387490eaf3616ee>@@$$QEAV<lambda_f7f22ab5edc0698d5f6905b0d3f44752>@@@Z@4HA 0000000180022e44 f   libucrt:fflush.obj
 0001:00021e61       __acrt_update_thread_locale_data$fin$0 0000000180022e61 f   libucrt:locale_refcounting.obj
 0001:00021e7a       _fcloseall$fin$0           0000000180022e7a f   libucrt:closeall.obj
 0001:00021e93       ?fin$0@?0???$?RV<lambda_751a882b2c74d4b022dec766aa51a29a>@@AEAV<lambda_628dfdc04ba53c8bfc02c9951375f3f5>@@V<lambda_f6c7be5f7998530c34de24c7437d6b54>@@@?$__crt_seh_guarded_call@H@@QEAAH$$QEAV<lambda_751a882b2c74d4b022dec766aa51a29a>@@AEAV<lambda_628dfdc04ba53c8bfc02c9951375f3f5>@@$$QEAV<lambda_f6c7be5f7998530c34de24c7437d6b54>@@@Z@4HA 0000000180022e93 f   libucrt:close.obj
 0001:00021e93       ?fin$0@?0???$?RV<lambda_a37b2b86f63e897a80ea819b0eb08c01>@@AEAV<lambda_38ce7e780aa69e748d6df282ebc68efe>@@V<lambda_99fb1378e971ab6e7edea83e3a7a83a2>@@@?$__crt_seh_guarded_call@H@@QEAAH$$QEAV<lambda_a37b2b86f63e897a80ea819b0eb08c01>@@AEAV<lambda_38ce7e780aa69e748d6df282ebc68efe>@@$$QEAV<lambda_99fb1378e971ab6e7edea83e3a7a83a2>@@@Z@4HA 0000000180022e93 f   libucrt:commit.obj
 0001:00021ead       _write$fin$0               0000000180022ead f   libucrt:write.obj
 0001:00021ec4       fclose$fin$0               0000000180022ec4 f   libucrt:fclose.obj
 0001:00021edc       _ctrlfp$filt$0             0000000180022edc f   libucrt:fpctrl.obj
 0001:00021edc       common_control87$filt$0    0000000180022edc f   libucrt:ieee.obj
 0001:00021f10       _IsNonwritableInCurrentImage$filt$0 0000000180022f10 f   LIBCMT:pesect.obj
 0001:00021f30       ??__F_AtlComModule@ATL@@YAXXZ 0000000180022f30 f   OposVariant.obj
 0001:00021f3c       ??__F_AtlWinModule@ATL@@YAXXZ 0000000180022f3c f   OposVariant.obj
 0001:00021f80       ??__F_Module@@YAXXZ        0000000180022f80 f   CheckScanner.obj
 0001:00021f9c       ??__F_AtlBaseModule@ATL@@YAXXZ 0000000180022f9c f   atls:atlbase.obj
 0002:00000648       ?_AtlBaseModule$initializer$@ATL@@3P6AXXZEA 0000000180023648     atls:atlbase.obj
 0002:00000650       ?_AtlComModule$initializer$@ATL@@3P6AXXZEA 0000000180023650     OposVariant.obj
 0002:00000658       ?_AtlWinModule$initializer$@ATL@@3P6AXXZEA 0000000180023658     OposVariant.obj
 0002:00000660       ?_Module$initializer$@@3P6AXXZEA 0000000180023660     CheckScanner.obj
 0002:00000668       ??pConnMap$initializer$@?$IConnectionPointContainerImpl@VCOPOSCheckScanner@@@ATL@@0P6AXXZEA@@3P6AXXZEA 0000000180023668     CheckScanner.obj
 0002:00000680       ?__scrt_initialize_tss_var@@3P6AHXZEA 0000000180023680     LIBCMT:thread_safe_statics.obj
 0002:000029b8       GS_ExceptionPointers       00000001800259b8     LIBCMT:gs_report.obj
 0002:00002ba0       ?ExceptionTemplate@?1??UnwindNestedFrames@__FrameHandler4@@SAXPEA_KPEAUEHExceptionRecord@@PEAU_CONTEXT@@0PEAXPEAUFuncInfo4@FH4@@HHPEAUHandlerType4@6@PEAU_xDISPATCHER_CONTEXT@@E@Z@4U_EXCEPTION_RECORD@@B 0000000180025ba0     libvcruntime:risctrnsctrl.obj
 0002:00002c70       ?tokenTable@@3QBUStringLiteral@@B 0000000180025c70     libvcruntime:undname.obj
 0002:00002d70       ?nameTable@@3QBUStringLiteral@@B 0000000180025d70     libvcruntime:undname.obj
 0002:000032a0       ?rttiTable@@3QBUStringLiteral@@B 00000001800262a0     libvcruntime:undname.obj
 0002:000032f0       ?IndirectionName@@3QBUStringLiteral@@B 00000001800262f0     libvcruntime:undname.obj
 0002:00003350       ?PrefixName@@3QBUStringLiteral@@B 0000000180026350     libvcruntime:undname.obj
 0002:00003a28       ?module_names@?A0x5302d918@@3QBQEB_WB 0000000180026a28     libvcruntime:winapi_downlevel.obj
 0002:00003ae8       ?candidate_modules@?1??try_get_FlsAlloc@@YAP6AKP6AXPEAX@Z@ZXZ@4QBW4module_id@?A0x5302d918@@B 0000000180026ae8     libvcruntime:winapi_downlevel.obj
 0002:00003b00       ?candidate_modules@?1??try_get_FlsFree@@YAP6AHK@ZXZ@4QBW4module_id@?A0x5302d918@@B 0000000180026b00     libvcruntime:winapi_downlevel.obj
 0002:00003b10       ?candidate_modules@?1??try_get_FlsGetValue@@YAP6APEAXK@ZXZ@4QBW4module_id@?A0x5302d918@@B 0000000180026b10     libvcruntime:winapi_downlevel.obj
 0002:00003b28       ?candidate_modules@?1??try_get_FlsSetValue@@YAP6AHKPEAX@ZXZ@4QBW4module_id@?A0x5302d918@@B 0000000180026b28     libvcruntime:winapi_downlevel.obj
 0002:00003b40       ?candidate_modules@?1??try_get_InitializeCriticalSectionEx@@YAP6AHPEAU_RTL_CRITICAL_SECTION@@KK@ZXZ@4QBW4module_id@?A0x5302d918@@B 0000000180026b40     libvcruntime:winapi_downlevel.obj
 0002:00003b70       ?errtable@@3QBUerrentry@?A0x31fdb9ec@@B 0000000180026b70     libucrt:errno.obj
 0002:00004200       __acrt_initializers        0000000180027200     libucrt:initialization.obj
 0002:00004300       ?module_names@?A0x391cf84c@@3QBQEB_WB 0000000180027300     libucrt:winapi_thunks.obj
 0002:00004808       ?candidate_modules@?1??try_get_AreFileApisANSI@@YAP6AHXZXZ@4QBW4module_id@?A0x391cf84c@@B 0000000180027808     libucrt:winapi_thunks.obj
 0002:00004820       ?candidate_modules@?1??try_get_FlsAlloc@@YAP6AKP6AXPEAX@Z@ZXZ@4QBW4module_id@?A0x391cf84c@@B 0000000180027820     libucrt:winapi_thunks.obj
 0002:00004828       ?candidate_modules@?1??try_get_FlsFree@@YAP6AHK@ZXZ@4QBW4module_id@?A0x391cf84c@@B 0000000180027828     libucrt:winapi_thunks.obj
 0002:00004830       ?candidate_modules@?1??try_get_FlsGetValue@@YAP6APEAXK@ZXZ@4QBW4module_id@?A0x391cf84c@@B 0000000180027830     libucrt:winapi_thunks.obj
 0002:00004838       ?candidate_modules@?1??try_get_FlsSetValue@@YAP6AHKPEAX@ZXZ@4QBW4module_id@?A0x391cf84c@@B 0000000180027838     libucrt:winapi_thunks.obj
 0002:00004840       ?candidate_modules@?1??try_get_InitializeCriticalSectionEx@@YAP6AHPEAU_RTL_CRITICAL_SECTION@@KK@ZXZ@4QBW4module_id@?A0x391cf84c@@B 0000000180027840     libucrt:winapi_thunks.obj
 0002:00004848       ?candidate_modules@?1??try_get_LCMapStringEx@@YAP6AHPEB_WK0HPEA_WHPEAU_nlsversioninfo@@PEAX_J@ZXZ@4QBW4module_id@?A0x391cf84c@@B 0000000180027848     libucrt:winapi_thunks.obj
 0002:00004860       ?candidate_modules@?1??try_get_LocaleNameToLCID@@YAP6AKPEB_WK@ZXZ@4QBW4module_id@?A0x391cf84c@@B 0000000180027860     libucrt:winapi_thunks.obj
 0002:0000487c       ?candidate_modules@?1??try_get_AppPolicyGetProcessTerminationMethod@@YAP6AJPEAXPEAW4AppPolicyProcessTerminationMethod@@@ZXZ@4QBW4module_id@?A0x391cf84c@@B 000000018002787c     libucrt:winapi_thunks.obj
 0002:000048a8       ?candidate_modules@?1??try_get_SetThreadStackGuarantee@@YAP6AHPEAK@ZXZ@4QBW4module_id@?A0x391cf84c@@B 00000001800278a8     libucrt:winapi_thunks.obj
 0002:000048d0       ?strings@?1??fp_format_nan_or_infinity@@YAHW4__acrt_fp_class@@_NPEAD_K1@Z@4QAY03QEBDA 00000001800278d0     libucrt:cvt.obj
 0002:00005030       ?_mb_locale_names@@3QBQEB_WB 0000000180028030     libucrt:mbctype.obj
 0002:000058a0       ?LcidToLocaleNameTable@?A0x881e4c05@@3QBULcidToLocaleName@1@B 00000001800288a0     libucrt:lcidtoname_downlevel.obj
 0002:00007300       ?LocaleNameToIndexTable@?A0x881e4c05@@3QBULocaleNameIndex@1@B 000000018002a300     libucrt:lcidtoname_downlevel.obj
 0002:000095a0       __real_ninf                000000018002c5a0     libucrt:log10.obj
 0002:000095b0       __real_inf                 000000018002c5b0     libucrt:log10.obj
 0002:000095c0       __real_neg_qnan            000000018002c5c0     libucrt:log10.obj
 0002:000095d0       __real_qnanbit             000000018002c5d0     libucrt:log10.obj
 0002:000095e0       __int_1023                 000000018002c5e0     libucrt:log10.obj
 0002:000095f0       __mask_001                 000000018002c5f0     libucrt:log10.obj
 0002:00009600       __mask_mant                000000018002c600     libucrt:log10.obj
 0002:00009610       __mask_mant_top8           000000018002c610     libucrt:log10.obj
 0002:00009620       __mask_mant9               000000018002c620     libucrt:log10.obj
 0002:00009630       __real_log10_e             000000018002c630     libucrt:log10.obj
 0002:00009640       __real_log10_e_lead        000000018002c640     libucrt:log10.obj
 0002:00009650       __real_log10_e_tail        000000018002c650     libucrt:log10.obj
 0002:00009660       __real_log10_2_lead        000000018002c660     libucrt:log10.obj
 0002:00009670       __real_log10_2_tail        000000018002c670     libucrt:log10.obj
 0002:00009680       __real_two                 000000018002c680     libucrt:log10.obj
 0002:00009690       __real_one                 000000018002c690     libucrt:log10.obj
 0002:000096a0       __real_half                000000018002c6a0     libucrt:log10.obj
 0002:000096b0       __mask_100                 000000018002c6b0     libucrt:log10.obj
 0002:000096c0       __real_1_over_512          000000018002c6c0     libucrt:log10.obj
 0002:000096d0       __real_1_over_2            000000018002c6d0     libucrt:log10.obj
 0002:000096e0       __real_1_over_3            000000018002c6e0     libucrt:log10.obj
 0002:000096f0       __real_1_over_4            000000018002c6f0     libucrt:log10.obj
 0002:00009700       __real_1_over_5            000000018002c700     libucrt:log10.obj
 0002:00009710       __real_1_over_6            000000018002c710     libucrt:log10.obj
 0002:00009720       __real_neg_1023            000000018002c720     libucrt:log10.obj
 0002:00009730       __mask_2045                000000018002c730     libucrt:log10.obj
 0002:00009740       __real_threshold           000000018002c740     libucrt:log10.obj
 0002:00009750       __real_near_one_lt         000000018002c750     libucrt:log10.obj
 0002:00009760       __real_near_one_gt         000000018002c760     libucrt:log10.obj
 0002:00009770       __real_min_norm            000000018002c770     libucrt:log10.obj
 0002:00009780       __real_notsign             000000018002c780     libucrt:log10.obj
 0002:00009790       __real_ca1                 000000018002c790     libucrt:log10.obj
 0002:000097a0       __real_ca2                 000000018002c7a0     libucrt:log10.obj
 0002:000097b0       __real_ca3                 000000018002c7b0     libucrt:log10.obj
 0002:000097c0       __real_ca4                 000000018002c7c0     libucrt:log10.obj
 0002:000097d0       __mask_lower               000000018002c7d0     libucrt:log10.obj
 0002:000097e0       __flag_x_zero              000000018002c7e0     libucrt:log10.obj
 0002:000097e4       __flag_x_neg               000000018002c7e4     libucrt:log10.obj
 0002:000097e8       __flag_x_nan               000000018002c7e8     libucrt:log10.obj
 0002:0000b040       __real@433fffffffffffff    000000018002e040     libucrt:fpsr.obj
 0002:0000b048       __real@c33fffffffffffff    000000018002e048     libucrt:fpsr.obj
 0002:0000b8b8       $unwind$?cw_memcpy@@YAHPEA_WPEBDH@Z 000000018002e8b8     CWString.obj
 0002:0000b8b8       $unwind$?ProcessWindowMessage@?$CComControl@VCOPOSCheckScanner@@V?$CWindowImpl@VCOPOSCheckScanner@@VCWindow@ATL@@V?$CWinTraits@$0FGAAAAAA@$0A@@3@@ATL@@@ATL@@UEAAHPEAUHWND__@@I_K_JAEA_JK@Z 000000018002e8b8     CheckScanner.obj
 0002:0000b8b8       $unwind$wcstol             000000018002e8b8     libucrt:strtox.obj
 0002:0000b8b8       $unwind$_invalid_parameter_noinfo 000000018002e8b8     libucrt:invalid_parameter.obj
 0002:0000b8b8       $unwind$_log10_special     000000018002e8b8     libucrt:log_special.obj
 0002:0000b8c0       $unwind$?cw_strcpy@@YAHPEA_WPEBD@Z 000000018002e8c0     CWString.obj
 0002:0000b8c0       $unwind$??__E?pConnMap@?$IConnectionPointContainerImpl@VCOPOSCheckScanner@@@ATL@@0PEBU_ATL_CONNMAP_ENTRY@2@EB@@YAXXZ 000000018002e8c0     CheckScanner.obj
 0002:0000b8c0       $unwind$?AddReplacement@CRegObject@ATL@@UEAAJPEB_W0@Z 000000018002e8c0     CheckScanner.obj
 0002:0000b8c0       $unwind$?AtlHresultFromLastError@ATL@@YAJXZ 000000018002e8c0     CheckScanner.obj
 0002:0000b8c0       $unwind$?AtlThrowImpl@ATL@@YAXJ@Z 000000018002e8c0     CheckScanner.obj
 0002:0000b8c0       $unwind$?CreateInstance@CComClassFactory@ATL@@UEAAJPEAUIUnknown@@AEBU_GUID@@PEAPEAX@Z 000000018002e8c0     CheckScanner.obj
 0002:0000b8c0       $unwind$?DefaultReflectionHandler@?$CWindowImplRoot@VCWindow@ATL@@@ATL@@SAHPEAUHWND__@@I_K_JAEA_J@Z 000000018002e8c0     CheckScanner.obj
 0002:0000b8c0       $unwind$?EnumAdvise@?$IOleObjectImpl@VCOPOSCheckScanner@@@ATL@@UEAAJPEAPEAUIEnumSTATDATA@@@Z 000000018002e8c0     CheckScanner.obj
 0002:0000b8c0       $unwind$?FireViewChange@CComControlBase@ATL@@QEAAJXZ 000000018002e8c0     CheckScanner.obj
 0002:0000b8c0       $unwind$?GetAdvise@?$IViewObjectExImpl@VCOPOSCheckScanner@@@ATL@@UEAAJPEAK0PEAPEAUIAdviseSink@@@Z 000000018002e8c0     CheckScanner.obj
 0002:0000b8c0       $unwind$?LockServer@CComClassFactory@ATL@@UEAAJH@Z 000000018002e8c0     CheckScanner.obj
 0002:0000b8c0       $unwind$?OnDocWindowActivate@?$IOleInPlaceActiveObjectImpl@VCOPOSCheckScanner@@@ATL@@UEAAJH@Z 000000018002e8c0     CheckScanner.obj
 0002:0000b8c0       $unwind$?Unadvise@?$IOleObjectImpl@VCOPOSCheckScanner@@@ATL@@UEAAJK@Z 000000018002e8c0     CheckScanner.obj
 0002:0000b8c0       $unwind$?_LocCPQueryInterface@?$IConnectionPointImpl@VCOPOSCheckScanner@@$1?DIID__IOPOSCheckScannerEvents@@3U_GUID@@BVCComDynamicUnkArray@ATL@@@ATL@@UEAAJAEBU_GUID@@PEAPEAX@Z 000000018002e8c0     CheckScanner.obj
 0002:0000b8c0       $unwind$?_LocCPQueryInterface@?$IConnectionPointImpl@VCOPOSCheckScanner@@$1?IID_IPropertyNotifySink@@3U_GUID@@BVCComDynamicUnkArray@ATL@@@ATL@@UEAAJAEBU_GUID@@PEAPEAX@Z 000000018002e8c0     CheckScanner.obj
 0002:0000b8c0       $unwind$?FinalConstruct@COPOSCheckScanner@@QEAAJXZ 000000018002e8c0     CheckScannerImpl.obj
 0002:0000b8c0       $unwind$?get_ResultCode@COPOSCheckScanner@@UEAAJPEAJ@Z 000000018002e8c0     CheckScannerImpl.obj
 0002:0000b8c0       $unwind$?get_State@COPOSCheckScanner@@UEAAJPEAJ@Z 000000018002e8c0     CheckScannerImpl.obj
 0002:0000b8c0       $unwind$??1OposDispParms@@QEAA@XZ 000000018002e8c0     OposVariant.obj
 0002:0000b8c0       $unwind$??__E_AtlComModule@ATL@@YAXXZ 000000018002e8c0     OposVariant.obj
 0002:0000b8c0       $unwind$??__E_AtlWinModule@ATL@@YAXXZ 000000018002e8c0     OposVariant.obj
 0002:0000b8c0       $unwind$??__F_AtlWinModule@ATL@@YAXXZ 000000018002e8c0     OposVariant.obj
 0002:0000b8c0       $unwind$?GetLONG@OposVariant@@QEAAJXZ 000000018002e8c0     OposVariant.obj
 0002:0000b8c0       $unwind$??__E_AtlBaseModule@ATL@@YAXXZ 000000018002e8c0     atls:atlbase.obj
 0002:0000b8c0       $unwind$__scrt_initialize_default_local_stdio_options 000000018002e8c0     LIBCMT:default_local_stdio_options.obj
 0002:0000b8c0       $unwind$?dllmain_crt_dispatch@@YAHQEAUHINSTANCE__@@KQEAX@Z 000000018002e8c0     LIBCMT:dll_dllmain.obj
 0002:0000b8c0       $unwind$__report_rangecheckfailure 000000018002e8c0     LIBCMT:gs_report.obj
 0002:0000b8c0       $unwind$__GSHandlerCheck   000000018002e8c0     LIBCMT:gshandler.obj
 0002:0000b8c0       $unwind$?__scrt_uninitialize_thread_safe_statics@@YAXXZ 000000018002e8c0     LIBCMT:thread_safe_statics.obj
 0002:0000b8c0       $unwind$_Init_thread_notify 000000018002e8c0     LIBCMT:thread_safe_statics.obj
 0002:0000b8c0       $unwind$__scrt_acquire_startup_lock 000000018002e8c0     LIBCMT:utility.obj
 0002:0000b8c0       $unwind$__scrt_dllmain_after_initialize_c 000000018002e8c0     LIBCMT:utility.obj
 0002:0000b8c0       $unwind$__scrt_dllmain_before_initialize_c 000000018002e8c0     LIBCMT:utility.obj
 0002:0000b8c0       $unwind$__scrt_dllmain_crt_thread_attach 000000018002e8c0     LIBCMT:utility.obj
 0002:0000b8c0       $unwind$__scrt_dllmain_crt_thread_detach 000000018002e8c0     LIBCMT:utility.obj
 0002:0000b8c0       $unwind$__scrt_dllmain_uninitialize_c 000000018002e8c0     LIBCMT:utility.obj
 0002:0000b8c0       $unwind$__scrt_dllmain_uninitialize_critical 000000018002e8c0     LIBCMT:utility.obj
 0002:0000b8c0       $unwind$atexit             000000018002e8c0     LIBCMT:utility.obj
 0002:0000b8c0       $unwind$__vcrt_initialize  000000018002e8c0     libvcruntime:initialization.obj
 0002:0000b8c0       $unwind$__vcrt_thread_attach 000000018002e8c0     libvcruntime:initialization.obj
 0002:0000b8c0       $unwind$__vcrt_thread_detach 000000018002e8c0     libvcruntime:initialization.obj
 0002:0000b8c0       $unwind$__vcrt_uninitialize 000000018002e8c0     libvcruntime:initialization.obj
 0002:0000b8c0       $unwind$__vcrt_uninitialize_critical 000000018002e8c0     libvcruntime:initialization.obj
 0002:0000b8c0       $unwind$__vcrt_initialize_locks 000000018002e8c0     libvcruntime:locks.obj
 0002:0000b8c0       $unwind$__vcrt_freefls     000000018002e8c0     libvcruntime:per_thread_data.obj
 0002:0000b8c0       $unwind$__vcrt_getptd      000000018002e8c0     libvcruntime:per_thread_data.obj
 0002:0000b8c0       $unwind$__vcrt_initialize_ptd 000000018002e8c0     libvcruntime:per_thread_data.obj
 0002:0000b8c0       $unwind$__vcrt_uninitialize_ptd 000000018002e8c0     libvcruntime:per_thread_data.obj
 0002:0000b8c0       $unwind$_purecall          000000018002e8c0     libvcruntime:purevirt.obj
 0002:0000b8c0       $unwind$?FrameUnwindToEmptyState@__FrameHandler4@@SAXPEA_KPEAU_xDISPATCHER_CONTEXT@@PEAUFuncInfo4@FH4@@@Z 000000018002e8c0     libvcruntime:risctrnsctrl.obj
 0002:0000b8c0       $unwind$_GetImageBase      000000018002e8c0     libvcruntime:risctrnsctrl.obj
 0002:0000b8c0       $unwind$_GetThrowImageBase 000000018002e8c0     libvcruntime:risctrnsctrl.obj
 0002:0000b8c0       $unwind$__dcrt_terminate_console_output 000000018002e8c0     libucrt:initcon.obj
 0002:0000b8c0       $unwind$??$uninitialize_environment_internal@D@@YAXAEAPEAPEAD@Z 000000018002e8c0     libucrt:environment_initialization.obj
 0002:0000b8c0       $unwind$??$uninitialize_environment_internal@_W@@YAXAEAPEAPEA_W@Z 000000018002e8c0     libucrt:environment_initialization.obj
 0002:0000b8c0       $unwind$__dcrt_uninitialize_environments_nolock 000000018002e8c0     libucrt:environment_initialization.obj
 0002:0000b8c0       $unwind$__acrt_initialize_heap 000000018002e8c0     libucrt:heap_handle.obj
 0002:0000b8c0       $unwind$_msize_base        000000018002e8c0     libucrt:msize.obj
 0002:0000b8c0       $unwind$?initialize_multibyte@@YAHXZ 000000018002e8c0     libucrt:multibyte_initializer.obj
 0002:0000b8c0       $unwind$__acrt_thread_attach 000000018002e8c0     libucrt:initialization.obj
 0002:0000b8c0       $unwind$__acrt_thread_detach 000000018002e8c0     libucrt:initialization.obj
 0002:0000b8c0       $unwind$__acrt_uninitialize 000000018002e8c0     libucrt:initialization.obj
 0002:0000b8c0       $unwind$__acrt_uninitialize_critical 000000018002e8c0     libucrt:initialization.obj
 0002:0000b8c0       $unwind$initialize_c       000000018002e8c0     libucrt:initialization.obj
 0002:0000b8c0       $unwind$uninitialize_allocated_io_buffers 000000018002e8c0     libucrt:initialization.obj
 0002:0000b8c0       $unwind$uninitialize_environment 000000018002e8c0     libucrt:initialization.obj
 0002:0000b8c0       $unwind$__acrt_initialize_ptd 000000018002e8c0     libucrt:per_thread_data.obj
 0002:0000b8c0       $unwind$__acrt_uninitialize_ptd 000000018002e8c0     libucrt:per_thread_data.obj
 0002:0000b8c0       $unwind$__acrt_AreFileApisANSI 000000018002e8c0     libucrt:winapi_thunks.obj
 0002:0000b8c0       $unwind$__pctype_func      000000018002e8c0     libucrt:ctype.obj
 0002:0000b8c0       $unwind$__acrt_release_locale_ref 000000018002e8c0     libucrt:locale_refcounting.obj
 0002:0000b8c0       $unwind$_isatty            000000018002e8c0     libucrt:isatty.obj
 0002:0000b8c0       $unwind$_get_osfhandle     000000018002e8c0     libucrt:osfinfo.obj
 0002:0000b8c0       $unwind$__acrt_initialize_multibyte 000000018002e8c0     libucrt:mbctype.obj
 0002:0000b8c0       $unwind$__acrt_update_thread_multibyte_data 000000018002e8c0     libucrt:mbctype.obj
 0002:0000b8c0       $unwind$__doserrno         000000018002e8c0     libucrt:errno.obj
 0002:0000b8c0       $unwind$_errno             000000018002e8c0     libucrt:errno.obj
 0002:0000b8c0       $unwind$_invoke_watson     000000018002e8c0     libucrt:invalid_parameter.obj
 0002:0000b8c0       $unwind$abort              000000018002e8c0     libucrt:abort.obj
 0002:0000b8c0       $unwind$__acrt_initialize_command_line 000000018002e8c0     libucrt:argv_data.obj
 0002:0000b8c0       $unwind$_fileno            000000018002e8c0     libucrt:fileno.obj
 0002:0000b8c0       $unwind$?state_case_size@?$output_processor@_WV?$string_output_adapter@_W@__crt_stdio_output@@V?$format_validation_base@_WV?$string_output_adapter@_W@__crt_stdio_output@@@2@@__crt_stdio_output@@AEAA_NXZ 000000018002e8c0     libucrt:output.obj
 0002:0000b8c0       $unwind$_statfp            000000018002e8c0     libucrt:fpctrl.obj
 0002:0000b8c0       $unwind$fegetround         000000018002e8c0     libucrt:fegetround.obj
 0002:0000b8c0       $unwind$_set_errno_from_matherr 000000018002e8c0     libucrt:fpexcept.obj
 0002:0000b8c8       $unwind$?cw_dup@@YAXPEBDAEAHAEAPEA_W1@Z 000000018002e8c8     CWString.obj
 0002:0000b8c8       $unwind$?DAdvise@?$IDataObjectImpl@VCOPOSCheckScanner@@@ATL@@UEAAJPEAUtagFORMATETC@@KPEAUIAdviseSink@@PEAK@Z 000000018002e8c8     CheckScanner.obj
 0002:0000b8c8       $unwind$??$__acrt_mbs_to_wcs_cp@U__crt_win32_buffer_internal_dynamic_resizing@@@@YAHQEBDAEAV?$__crt_win32_buffer@_WU__crt_win32_buffer_internal_dynamic_resizing@@@@I@Z 000000018002e8c8     libucrt:argv_wildcards.obj
 0002:0000b8e0       $unwind$?DupWide@_CW@@AEAAXXZ 000000018002e8e0     CWString.obj
 0002:0000b8e0       $unwind$??0?$CComObject@VCOPOSCheckScanner@@@ATL@@QEAA@PEAX@Z 000000018002e8e0     CheckScanner.obj
 0002:0000b8e0       $unwind$??0CAtlModule@ATL@@QEAA@XZ 000000018002e8e0     CheckScanner.obj
 0002:0000b8e0       $unwind$??1?$CComObject@VCOPOSCheckScanner@@@ATL@@UEAA@XZ 000000018002e8e0     CheckScanner.obj
 0002:0000b8e0       $unwind$??__E_Module@@YAXXZ 000000018002e8e0     CheckScanner.obj
 0002:0000b8e0       $unwind$?AddRef@?$CComObjectCached@VCComClassFactory@ATL@@@ATL@@UEAAKXZ 000000018002e8e0     CheckScanner.obj
 0002:0000b8e0       $unwind$?AllocateHeap@?$CTempBuffer@E$0BAA@VCCRTAllocator@ATL@@@ATL@@AEAAX_K@Z 000000018002e8e0     CheckScanner.obj
 0002:0000b8e0       $unwind$?AllocateHeap@?$CTempBuffer@_W$0BAA@VCCRTAllocator@ATL@@@ATL@@AEAAX_K@Z 000000018002e8e0     CheckScanner.obj
 0002:0000b8e0       $unwind$?AllocateHeap@?$CTempBuffer@_W$0EAA@VCCRTAllocator@ATL@@@ATL@@AEAAX_K@Z 000000018002e8e0     CheckScanner.obj
 0002:0000b8e0       $unwind$?GetClassInfoW@?$IProvideClassInfo2Impl@$1?CLSID_OPOSCheckScanner@@3U_GUID@@B$1?DIID__IOPOSCheckScannerEvents@@3U2@B$1?LIBID_OposCheckScanner_CCO@@3U2@B$00$0A@VCComTypeInfoHolder@ATL@@@ATL@@UEAAJPEAPEAUITypeInfo@@@Z 000000018002e8e0     CheckScanner.obj
 0002:0000b8e0       $unwind$?GetClientSite@?$IOleObjectImpl@VCOPOSCheckScanner@@@ATL@@UEAAJPEAPEAUIOleClientSite@@@Z 000000018002e8e0     CheckScanner.obj
 0002:0000b8e0       $unwind$?GetConnMap@COPOSCheckScanner@@SAPEBU_ATL_CONNMAP_ENTRY@ATL@@PEAH@Z 000000018002e8e0     CheckScanner.obj
 0002:0000b8e0       $unwind$?GetTypeInfo@?$IDispatchImpl@UIOPOSCheckScanner@@$1?IID_IOPOSCheckScanner@@3U_GUID@@B$1?LIBID_OposCheckScanner_CCO@@3U3@B$00$0A@VCComTypeInfoHolder@ATL@@@ATL@@UEAAJIKPEAPEAUITypeInfo@@@Z 000000018002e8e0     CheckScanner.obj
 0002:0000b8e0       $unwind$?IOleInPlaceObject_InPlaceDeactivate@CComControlBase@ATL@@QEAAJXZ 000000018002e8e0     CheckScanner.obj
 0002:0000b8e0       $unwind$?IOleObject_SetExtent@CComControlBase@ATL@@QEAAJKPEAUtagSIZE@@@Z 000000018002e8e0     CheckScanner.obj
 0002:0000b8e0       $unwind$?IsEqualObject@?$CComPtrBase@UIOleClientSite@@@ATL@@QEAA_NPEAUIUnknown@@@Z 000000018002e8e0     CheckScanner.obj
 0002:0000b8e0       $unwind$?QueryHitPoint@?$IViewObjectExImpl@VCOPOSCheckScanner@@@ATL@@UEAAJKPEBUtagRECT@@UtagPOINT@@JPEAK@Z 000000018002e8e0     CheckScanner.obj
 0002:0000b8e0       $unwind$?QueryInterface@?$CComAggObject@VCOPOSCheckScanner@@@ATL@@UEAAJAEBU_GUID@@PEAPEAX@Z 000000018002e8e0     CheckScanner.obj
 0002:0000b8e0       $unwind$?Release@?$CComObjectCached@VCComClassFactory@ATL@@@ATL@@UEAAKXZ 000000018002e8e0     CheckScanner.obj
 0002:0000b8e0       $unwind$?Unadvise@?$IConnectionPointImpl@VCOPOSCheckScanner@@$1?DIID__IOPOSCheckScannerEvents@@3U_GUID@@BVCComDynamicUnkArray@ATL@@@ATL@@UEAAJK@Z 000000018002e8e0     CheckScanner.obj
 0002:0000b8e0       $unwind$?Unadvise@?$IConnectionPointImpl@VCOPOSCheckScanner@@$1?IID_IPropertyNotifySink@@3U_GUID@@BVCComDynamicUnkArray@ATL@@@ATL@@UEAAJK@Z 000000018002e8e0     CheckScanner.obj
 0002:0000b8e0       $unwind$??1CComControlBase@ATL@@UEAA@XZ 000000018002e8e0     CheckScannerImpl.obj
 0002:0000b8e0       $unwind$??1COPOSCheckScanner@@UEAA@XZ 000000018002e8e0     CheckScannerImpl.obj
 0002:0000b8e0       $unwind$?EventUninit@COPOSCheckScanner@@IEAAXXZ 000000018002e8e0     CheckScannerImpl.obj
 0002:0000b8e0       $unwind$?FreezeEvents@COPOSCheckScanner@@MEAAJH@Z 000000018002e8e0     CheckScannerImpl.obj
 0002:0000b8e0       $unwind$?SOProcessID@COPOSCheckScanner@@UEAAJPEAJ@Z 000000018002e8e0     CheckScannerImpl.obj
 0002:0000b8e0       $unwind$?get_AutoDisable@COPOSCheckScanner@@UEAAJPEAF@Z 000000018002e8e0     CheckScannerImpl.obj
 0002:0000b8e0       $unwind$?get_CapAutoContrast@COPOSCheckScanner@@UEAAJPEAF@Z 000000018002e8e0     CheckScannerImpl.obj
 0002:0000b8e0       $unwind$?get_CapAutoGenerateFileID@COPOSCheckScanner@@UEAAJPEAF@Z 000000018002e8e0     CheckScannerImpl.obj
 0002:0000b8e0       $unwind$?get_CapAutoGenerateImageTagData@COPOSCheckScanner@@UEAAJPEAF@Z 000000018002e8e0     CheckScannerImpl.obj
 0002:0000b8e0       $unwind$?get_CapAutoSize@COPOSCheckScanner@@UEAAJPEAF@Z 000000018002e8e0     CheckScannerImpl.obj
 0002:0000b8e0       $unwind$?get_CapCompareFirmwareVersion@COPOSCheckScanner@@UEAAJPEAF@Z 000000018002e8e0     CheckScannerImpl.obj
 0002:0000b8e0       $unwind$?get_CapConcurrentMICR@COPOSCheckScanner@@UEAAJPEAF@Z 000000018002e8e0     CheckScannerImpl.obj
 0002:0000b8e0       $unwind$?get_CapContrast@COPOSCheckScanner@@UEAAJPEAF@Z 000000018002e8e0     CheckScannerImpl.obj
 0002:0000b8e0       $unwind$?get_CapDefineCropArea@COPOSCheckScanner@@UEAAJPEAF@Z 000000018002e8e0     CheckScannerImpl.obj
 0002:0000b8e0       $unwind$?get_CapImageTagData@COPOSCheckScanner@@UEAAJPEAF@Z 000000018002e8e0     CheckScannerImpl.obj
 0002:0000b8e0       $unwind$?get_CapMICRDevice@COPOSCheckScanner@@UEAAJPEAF@Z 000000018002e8e0     CheckScannerImpl.obj
 0002:0000b8e0       $unwind$?get_CapStatisticsReporting@COPOSCheckScanner@@UEAAJPEAF@Z 000000018002e8e0     CheckScannerImpl.obj
 0002:0000b8e0       $unwind$?get_CapStoreImageFiles@COPOSCheckScanner@@UEAAJPEAF@Z 000000018002e8e0     CheckScannerImpl.obj
 0002:0000b8e0       $unwind$?get_CapUpdateFirmware@COPOSCheckScanner@@UEAAJPEAF@Z 000000018002e8e0     CheckScannerImpl.obj
 0002:0000b8e0       $unwind$?get_CapUpdateStatistics@COPOSCheckScanner@@UEAAJPEAF@Z 000000018002e8e0     CheckScannerImpl.obj
 0002:0000b8e0       $unwind$?get_CapValidationDevice@COPOSCheckScanner@@UEAAJPEAF@Z 000000018002e8e0     CheckScannerImpl.obj
 0002:0000b8e0       $unwind$?get_Claimed@COPOSCheckScanner@@UEAAJPEAF@Z 000000018002e8e0     CheckScannerImpl.obj
 0002:0000b8e0       $unwind$?get_ConcurrentMICR@COPOSCheckScanner@@UEAAJPEAF@Z 000000018002e8e0     CheckScannerImpl.obj
 0002:0000b8e0       $unwind$?get_DataEventEnabled@COPOSCheckScanner@@UEAAJPEAF@Z 000000018002e8e0     CheckScannerImpl.obj
 0002:0000b8e0       $unwind$?get_DeviceEnabled@COPOSCheckScanner@@UEAAJPEAF@Z 000000018002e8e0     CheckScannerImpl.obj
 0002:0000b8e0       $unwind$?get_FreezeEvents@COPOSCheckScanner@@UEAAJPEAF@Z 000000018002e8e0     CheckScannerImpl.obj
 0002:0000b8e0       $unwind$?put_FreezeEvents@COPOSCheckScanner@@UEAAJF@Z 000000018002e8e0     CheckScannerImpl.obj
 0002:0000b8e0       $unwind$??0CAtlComModule@ATL@@QEAA@XZ 000000018002e8e0     OposVariant.obj
 0002:0000b8e0       $unwind$??0CAtlWinModule@ATL@@QEAA@XZ 000000018002e8e0     OposVariant.obj
 0002:0000b8e0       $unwind$??1CAtlBaseModule@ATL@@QEAA@XZ 000000018002e8e0     atls:atlbase.obj
 0002:0000b8e0       $unwind$AtlThunk_AllocateData 000000018002e8e0     atls:atlthunk.obj
 0002:0000b8e0       $unwind$__raise_securityfailure 000000018002e8e0     LIBCMT:gs_report.obj
 0002:0000b8e0       $unwind$??2@YAPEAX_K@Z     000000018002e8e0     LIBCMT:new_scalar.obj
 0002:0000b8e0       $unwind$??_Gtype_info@@UEAAPEAXI@Z 000000018002e8e0     LIBCMT:std_type_info_static.obj
 0002:0000b8e0       $unwind$_Init_thread_footer 000000018002e8e0     LIBCMT:thread_safe_statics.obj
 0002:0000b8e0       $unwind$_Init_thread_header 000000018002e8e0     LIBCMT:thread_safe_statics.obj
 0002:0000b8e0       $unwind$_Init_thread_wait  000000018002e8e0     LIBCMT:thread_safe_statics.obj
 0002:0000b8e0       $unwind$??0bad_alloc@std@@QEAA@AEBV01@@Z 000000018002e8e0     LIBCMT:throw_bad_alloc.obj
 0002:0000b8e0       $unwind$??0bad_array_new_length@std@@QEAA@AEBV01@@Z 000000018002e8e0     LIBCMT:throw_bad_alloc.obj
 0002:0000b8e0       $unwind$??0exception@std@@QEAA@AEBV01@@Z 000000018002e8e0     LIBCMT:throw_bad_alloc.obj
 0002:0000b8e0       $unwind$__scrt_initialize_crt 000000018002e8e0     LIBCMT:utility.obj
 0002:0000b8e0       $unwind$__scrt_initialize_onexit_tables 000000018002e8e0     LIBCMT:utility.obj
 0002:0000b8e0       $unwind$__scrt_release_startup_lock 000000018002e8e0     LIBCMT:utility.obj
 0002:0000b8e0       $unwind$__scrt_uninitialize_crt 000000018002e8e0     LIBCMT:utility.obj
 0002:0000b8e0       $unwind$_onexit            000000018002e8e0     LIBCMT:utility.obj
 0002:0000b8e0       $unwind$_IsExceptionObjectToBeDestroyed 000000018002e8e0     libvcruntime:ehhelpers.obj
 0002:0000b8e0       $unwind$??0HandlerMap4@FH4@@QEAA@PEBUTryBlockMapEntry4@1@_KH@Z 000000018002e8e0     libvcruntime:frame.obj
 0002:0000b8e0       $unwind$??0bad_exception@std@@QEAA@AEBV01@@Z 000000018002e8e0     libvcruntime:frame.obj
 0002:0000b8e0       $unwind$?ExFilterRethrow@@YAHPEAU_EXCEPTION_POINTERS@@PEAUEHExceptionRecord@@PEAH@Z 000000018002e8e0     libvcruntime:frame.obj
 0002:0000b8e0       $unwind$__vcrt_uninitialize_locks 000000018002e8e0     libvcruntime:locks.obj
 0002:0000b8e0       $unwind$__vcrt_freeptd     000000018002e8e0     libvcruntime:per_thread_data.obj
 0002:0000b8e0       $unwind$_CreateFrameInfo   000000018002e8e0     libvcruntime:risctrnsctrl.obj
 0002:0000b8e0       $unwind$_SetImageBase      000000018002e8e0     libvcruntime:risctrnsctrl.obj
 0002:0000b8e0       $unwind$_SetThrowImageBase 000000018002e8e0     libvcruntime:risctrnsctrl.obj
 0002:0000b8e0       $unwind$__std_exception_destroy 000000018002e8e0     libvcruntime:std_exception.obj
 0002:0000b8e0       $unwind$__std_type_info_destroy_list 000000018002e8e0     libvcruntime:std_type_info.obj
 0002:0000b8e0       $unwind$__vcrt_FlsAlloc    000000018002e8e0     libvcruntime:winapi_downlevel.obj
 0002:0000b8e0       $unwind$__vcrt_FlsFree     000000018002e8e0     libvcruntime:winapi_downlevel.obj
 0002:0000b8e0       $unwind$__vcrt_FlsGetValue 000000018002e8e0     libvcruntime:winapi_downlevel.obj
 0002:0000b8e0       $unwind$_calloc_base       000000018002e8e0     libucrt:calloc_base.obj
 0002:0000b8e0       $unwind$_malloc_base       000000018002e8e0     libucrt:malloc_base.obj
 0002:0000b8e0       $unwind$_callnewh          000000018002e8e0     libucrt:new_handler.obj
 0002:0000b8e0       $unwind$initialize_pointers 000000018002e8e0     libucrt:initialization.obj
 0002:0000b8e0       $unwind$uninitialize_allocated_memory 000000018002e8e0     libucrt:initialization.obj
 0002:0000b8e0       $unwind$__acrt_initialize_locks 000000018002e8e0     libucrt:locks.obj
 0002:0000b8e0       $unwind$__acrt_uninitialize_locks 000000018002e8e0     libucrt:locks.obj
 0002:0000b8e0       $unwind$__acrt_freeptd     000000018002e8e0     libucrt:per_thread_data.obj
 0002:0000b8e0       $unwind$__acrt_getptd_head 000000018002e8e0     libucrt:per_thread_data.obj
 0002:0000b8e0       $unwind$__acrt_get_process_end_policy 000000018002e8e0     libucrt:win_policies.obj
 0002:0000b8e0       $unwind$__acrt_AppPolicyGetProcessTerminationMethodInternal 000000018002e8e0     libucrt:winapi_thunks.obj
 0002:0000b8e0       $unwind$__acrt_FlsAlloc    000000018002e8e0     libucrt:winapi_thunks.obj
 0002:0000b8e0       $unwind$__acrt_FlsFree     000000018002e8e0     libucrt:winapi_thunks.obj
 0002:0000b8e0       $unwind$__acrt_FlsGetValue 000000018002e8e0     libucrt:winapi_thunks.obj
 0002:0000b8e0       $unwind$__acrt_SetThreadStackGuarantee 000000018002e8e0     libucrt:winapi_thunks.obj
 0002:0000b8e0       $unwind$__acrt_uninitialize_winapi_thunks 000000018002e8e0     libucrt:winapi_thunks.obj
 0002:0000b8e0       $unwind$__acrt_update_locale_info 000000018002e8e0     libucrt:locale_update.obj
 0002:0000b8e0       $unwind$__acrt_update_multibyte_info 000000018002e8e0     libucrt:locale_update.obj
 0002:0000b8e0       $unwind$__acrt_allocate_buffer_for_argv 000000018002e8e0     libucrt:argv_parsing.obj
 0002:0000b8e0       $unwind$?exit_or_terminate_process@@YAXI@Z 000000018002e8e0     libucrt:exit.obj
 0002:0000b8e0       $unwind$?try_cor_exit_process@@YAXI@Z 000000018002e8e0     libucrt:exit.obj
 0002:0000b8e0       $unwind$__acrt_uninitialize_stdio 000000018002e8e0     libucrt:_file.obj
 0002:0000b8e0       $unwind$__acrt_stdio_free_buffer_nolock 000000018002e8e0     libucrt:_freebuf.obj
 0002:0000b8e0       $unwind$_fflush_nolock     000000018002e8e0     libucrt:fflush.obj
 0002:0000b8e0       $unwind$strcpy_s           000000018002e8e0     libucrt:strcpy_s.obj
 0002:0000b8e0       $unwind$wcscat_s           000000018002e8e0     libucrt:wcscat_s.obj
 0002:0000b8e0       $unwind$wcscpy_s           000000018002e8e0     libucrt:wcscpy_s.obj
 0002:0000b8e0       $unwind$_clrfp             000000018002e8e0     libucrt:fpctrl.obj
 0002:0000b8e0       $unwind$_set_statfp        000000018002e8e0     libucrt:fpctrl.obj
 0002:0000b8e0       $unwind$_clearfp           000000018002e8e0     libucrt:ieee.obj
 0002:0000b8e0       $unwind$_controlfp_s       000000018002e8e0     libucrt:contrlfp.obj
 0002:0000b8e0       $unwind$fegetenv           000000018002e8e0     libucrt:fegetenv.obj
 0002:0000b8e0       $unwind$feholdexcept       000000018002e8e0     libucrt:feholdexcept.obj
 0002:0000b8e0       $unwind$fesetenv           000000018002e8e0     libucrt:fesetenv.obj
 0002:0000b8e8       $unwind$?AtlWinModuleExtractCreateWndData@ATL@@YAPEAXPEAU_ATL_WIN_MODULE70@1@@Z 000000018002e8e8     CheckScanner.obj
 0002:0000b8e8       $unwind$?CreateInstance@?$CComCreator@V?$CComObject@VCOPOSCheckScanner@@@ATL@@@ATL@@SAJPEAXAEBU_GUID@@PEAPEAX@Z 000000018002e8e8     CheckScanner.obj
 0002:0000b8e8       $unwind$?DoEvent@COPOSCheckScanner@@IEAAXI_K_J@Z 000000018002e8e8     CheckScanner.obj
 0002:0000b8e8       $unwind$?DoVerb@?$IOleObjectImpl@VCOPOSCheckScanner@@@ATL@@UEAAJJPEAUtagMSG@@PEAUIOleClientSite@@JPEAUHWND__@@PEBUtagRECT@@@Z 000000018002e8e8     CheckScanner.obj
 0002:0000b8e8       $unwind$?HKeyFromString@CRegParser@ATL@@KAPEAUHKEY__@@PEA_W@Z 000000018002e8e8     CheckScanner.obj
 0002:0000b8e8       $unwind$?Next@?$CComEnumImpl@UIEnumConnectionPoints@@$1?_GUID_b196b285_bab4_101a_b69c_00aa00341d07@@3U__s_GUID@@BPEAUIConnectionPoint@@V?$_CopyInterface@UIConnectionPoint@@@ATL@@@ATL@@UEAAJKPEAPEAUIConnectionPoint@@PEAK@Z 000000018002e8e8     CheckScanner.obj
 0002:0000b8e8       $unwind$?Next@?$CComEnumImpl@UIEnumConnections@@$1?_GUID_b196b287_bab4_101a_b69c_00aa00341d07@@3U__s_GUID@@BUtagCONNECTDATA@@V?$_Copy@UtagCONNECTDATA@@@ATL@@@ATL@@UEAAJKPEAUtagCONNECTDATA@@PEAK@Z 000000018002e8e8     CheckScanner.obj
 0002:0000b8e8       $unwind$?SODirectIO@COPOSCheckScanner@@MEAAJJPEAJPEAPEA_W@Z 000000018002e8e8     CheckScanner.obj
 0002:0000b8e8       $unwind$?SetControlFocus@CComControlBase@ATL@@QEAAHH@Z 000000018002e8e8     CheckScanner.obj
 0002:0000b8e8       $unwind$?ocscpy_s@@YA_NPEA_W_KPEB_W@Z 000000018002e8e8     CheckScanner.obj
 0002:0000b8e8       $unwind$?s_EventWindowProc@COPOSCheckScanner@@KA_JPEAUHWND__@@I_K_J@Z 000000018002e8e8     CheckScannerImpl.obj
 0002:0000b8e8       $unwind$?AtlWinModuleTerm@ATL@@YAJPEAU_ATL_WIN_MODULE70@1@PEAUHINSTANCE__@@@Z 000000018002e8e8     OposVariant.obj
 0002:0000b8e8       $unwind$__scrt_dllmain_exception_filter 000000018002e8e8     LIBCMT:utility.obj
 0002:0000b8e8       $unwind$?Is_bad_exception_allowed@@YAEPEBU_s_ESTypeList@@@Z 000000018002e8e8     libvcruntime:frame.obj
 0002:0000b8e8       $unwind$_recalloc_base     000000018002e8e8     libucrt:recalloc.obj
 0002:0000b8e8       $unwind$__acrt_free_locale 000000018002e8e8     libucrt:locale_refcounting.obj
 0002:0000b8e8       $unwind$__acrt_lowio_create_handle_array 000000018002e8e8     libucrt:osfinfo.obj
 0002:0000b8e8       $unwind$?setSBCS@@YAXPEAU__crt_multibyte_data@@@Z 000000018002e8e8     libucrt:mbctype.obj
 0002:0000b8e8       $unwind$_seh_filter_exe    000000018002e8e8     libucrt:exception_filter.obj
 0002:0000b8e8       $unwind$_initterm          000000018002e8e8     libucrt:initterm.obj
 0002:0000b8e8       $unwind$??$ensure_buffer_is_big_enough@D@formatting_buffer@__crt_stdio_output@@QEAA_N_K@Z 000000018002e8e8     libucrt:output.obj
 0002:0000b8e8       $unwind$??$ensure_buffer_is_big_enough@_W@formatting_buffer@__crt_stdio_output@@QEAA_N_K@Z 000000018002e8e8     libucrt:output.obj
 0002:0000b8fc       $unwind$??_GCRegObject@ATL@@UEAAPEAXI@Z 000000018002e8fc     CheckScanner.obj
 0002:0000b8fc       $unwind$?Add@?$CSimpleArray@GV?$CSimpleArrayEqualHelper@G@ATL@@@ATL@@QEAAHAEBG@Z 000000018002e8fc     CheckScanner.obj
 0002:0000b8fc       $unwind$?Add@?$CSimpleMap@PEA_WPEA_WVCExpansionVectorEqualHelper@ATL@@@ATL@@QEAAHAEBQEA_W0@Z 000000018002e8fc     CheckScanner.obj
 0002:0000b8fc       $unwind$?Add@CComDynamicUnkArray@ATL@@QEAAKPEAUIUnknown@@@Z 000000018002e8fc     CheckScanner.obj
 0002:0000b8fc       $unwind$?Advise@?$IOleObjectImpl@VCOPOSCheckScanner@@@ATL@@UEAAJPEAUIAdviseSink@@PEAK@Z 000000018002e8fc     CheckScanner.obj
 0002:0000b8fc       $unwind$?ClearReplacements@CExpansionVector@ATL@@QEAAJXZ 000000018002e8fc     CheckScanner.obj
 0002:0000b8fc       $unwind$?CreateInstance@?$CComObject@V?$CComEnum@UIEnumConnectionPoints@@$1?_GUID_b196b285_bab4_101a_b69c_00aa00341d07@@3U__s_GUID@@BPEAUIConnectionPoint@@V?$_CopyInterface@UIConnectionPoint@@@ATL@@VCComSingleThreadModel@6@@ATL@@@ATL@@SAJPEAPEAV12@@Z 000000018002e8fc     CheckScanner.obj
 0002:0000b8fc       $unwind$?CreateInstance@?$CComObject@V?$CComEnum@UIEnumConnections@@$1?_GUID_b196b287_bab4_101a_b69c_00aa00341d07@@3U__s_GUID@@BUtagCONNECTDATA@@V?$_Copy@UtagCONNECTDATA@@@ATL@@VCComSingleThreadModel@6@@ATL@@@ATL@@SAJPEAPEAV12@@Z 000000018002e8fc     CheckScanner.obj
 0002:0000b8fc       $unwind$?RegisterServer@CComModule@ATL@@QEAAJHPEBU_GUID@@@Z 000000018002e8fc     CheckScanner.obj
 0002:0000b8fc       $unwind$?Term@CAtlModule@ATL@@QEAAXXZ 000000018002e8fc     CheckScanner.obj
 0002:0000b8fc       $unwind$?UnregisterServer@CComModule@ATL@@QEAAJHPEBU_GUID@@@Z 000000018002e8fc     CheckScanner.obj
 0002:0000b8fc       $unwind$?VTFromRegType@CRegParser@ATL@@KAHPEB_WAEAG@Z 000000018002e8fc     CheckScanner.obj
 0002:0000b8fc       $unwind$??0OposDispParms@@QEAA@PEAVOposVariant@@H@Z 000000018002e8fc     OposVariant.obj
 0002:0000b8fc       $unwind$?SetBSTR_Copy@OposVariant@@QEAAXPEA_WAEAJ@Z 000000018002e8fc     OposVariant.obj
 0002:0000b8fc       $unwind$?SetBSTR_InOutPtr@OposVariant@@QEAA_NPEAPEA_WAEAJ@Z 000000018002e8fc     OposVariant.obj
 0002:0000b8fc       $unwind$?SetDispatch_Ptr@OposVariant@@QEAAXPEAUIDispatch@@AEAJ@Z 000000018002e8fc     OposVariant.obj
 0002:0000b8fc       $unwind$?SetLONG_Ptr@OposVariant@@QEAAXPEAJAEAJ@Z 000000018002e8fc     OposVariant.obj
 0002:0000b8fc       $unwind$?SetString@OposVariant@@QEAAXPEB_WAEAJ@Z 000000018002e8fc     OposVariant.obj
 0002:0000b8fc       $unwind$?Term@CAtlComModule@ATL@@QEAAXXZ 000000018002e8fc     OposVariant.obj
 0002:0000b8fc       $unwind$_DllMainCRTStartup 000000018002e8fc     LIBCMT:dll_dllmain.obj
 0002:0000b8fc       $unwind$__vcrt_getptd_noexit 000000018002e8fc     libvcruntime:per_thread_data.obj
 0002:0000b8fc       $unwind$__vcrt_InitializeCriticalSectionEx 000000018002e8fc     libvcruntime:winapi_downlevel.obj
 0002:0000b8fc       $unwind$memcpy_s           000000018002e8fc     libucrt:cfout.obj
 0002:0000b8fc       $unwind$__acrt_getptd      000000018002e8fc     libucrt:per_thread_data.obj
 0002:0000b8fc       $unwind$__acrt_getptd_noexit 000000018002e8fc     libucrt:per_thread_data.obj
 0002:0000b8fc       $unwind$__acrt_execute_initializers 000000018002e8fc     libucrt:shared_initialization.obj
 0002:0000b8fc       $unwind$__acrt_InitializeCriticalSectionEx 000000018002e8fc     libucrt:winapi_thunks.obj
 0002:0000b8fc       $unwind$?free_crt_array_internal@@YAXQEAPEBX_K@Z 000000018002e8fc     libucrt:inittime.obj
 0002:0000b8fc       $unwind$??$common_lseek_nolock@_J@@YA_JH_JH@Z 000000018002e8fc     libucrt:lseek.obj
 0002:0000b8fc       $unwind$__acrt_stdio_flush_nolock 000000018002e8fc     libucrt:fflush.obj
 0002:0000b8fc       $unwind$??0_LocaleUpdate@@QEAA@QEAU__crt_locale_pointers@@@Z 000000018002e8fc     libucrt:output.obj
 0002:0000b8fc       $unwind$?type_case_Z@?$output_processor@_WV?$string_output_adapter@_W@__crt_stdio_output@@V?$format_validation_base@_WV?$string_output_adapter@_W@__crt_stdio_output@@@2@@__crt_stdio_output@@AEAA_NXZ 000000018002e8fc     libucrt:output.obj
 0002:0000b8fc       $unwind$?type_case_s@?$output_processor@_WV?$string_output_adapter@_W@__crt_stdio_output@@V?$format_validation_base@_WV?$string_output_adapter@_W@__crt_stdio_output@@@2@@__crt_stdio_output@@AEAA_NXZ 000000018002e8fc     libucrt:output.obj
 0002:0000b8fc       $unwind$_exception_enabled 000000018002e8fc     libucrt:libm_error.obj
 0002:0000b90c       $unwind$?AddTermFunc@CAtlModule@ATL@@QEAAJP6AX_K@Z0@Z 000000018002e90c     CheckScanner.obj
 0002:0000b90c       $unwind$?AtlComModuleRegisterServer@ATL@@YAJPEAU_ATL_COM_MODULE70@1@HPEBU_GUID@@@Z 000000018002e90c     CheckScanner.obj
 0002:0000b90c       $unwind$?AtlComModuleUnregisterServer@ATL@@YAJPEAU_ATL_COM_MODULE70@1@HPEBU_GUID@@@Z 000000018002e90c     CheckScanner.obj
 0002:0000b90c       $unwind$?CreateInstance@?$CComCreator@V?$CComAggObject@VCOPOSCheckScanner@@@ATL@@@ATL@@SAJPEAXAEBU_GUID@@PEAPEAX@Z 000000018002e90c     CheckScanner.obj
 0002:0000b90c       $unwind$?CreateInstance@?$CComCreator@V?$CComObjectCached@VCComClassFactory@ATL@@@ATL@@@ATL@@SAJPEAXAEBU_GUID@@PEAPEAX@Z 000000018002e90c     CheckScanner.obj
 0002:0000b90c       $unwind$?GetPagesHelper@?$ISpecifyPropertyPagesImpl@VCOPOSCheckScanner@@@ATL@@IEAAJPEAUtagCAUUID@@PEBUATL_PROPMAP_ENTRY@2@@Z 000000018002e90c     CheckScanner.obj
 0002:0000b90c       $unwind$??_Estringdispid@CComTypeInfoHolder@ATL@@QEAAPEAXI@Z 000000018002e90c     OposVariant.obj
 0002:0000b90c       $unwind$__GSHandlerCheck_SEH 000000018002e90c     LIBCMT:gshandlerseh.obj
 0002:0000b90c       $unwind$??$TypeMatchHelper@V__FrameHandler3@@@@YAHPEBU_s_HandlerType@@PEBU_s_CatchableType@@PEBU_s_ThrowInfo@@@Z 000000018002e90c     libvcruntime:frame.obj
 0002:0000b90c       $unwind$??$TypeMatchHelper@V__FrameHandler4@@@@YAHPEAUHandlerType4@FH4@@PEBU_s_CatchableType@@PEBU_s_ThrowInfo@@@Z 000000018002e90c     libvcruntime:frame.obj
 0002:0000b90c       $unwind$?initialize_stdio_handles_nolock@@YAXXZ 000000018002e90c     libucrt:ioinit.obj
 0002:0000b90c       $unwind$__acrt_initialize_stdio 000000018002e90c     libucrt:_file.obj
 0002:0000b90c       $unwind$?process@?$output_processor@_WV?$string_output_adapter@_W@__crt_stdio_output@@V?$format_validation_base@_WV?$string_output_adapter@_W@__crt_stdio_output@@@2@@__crt_stdio_output@@QEAAHXZ 000000018002e90c     libucrt:output.obj
 0002:0000b90c       $unwind$?type_case_integer@?$output_processor@_WV?$string_output_adapter@_W@__crt_stdio_output@@V?$format_validation_base@_WV?$string_output_adapter@_W@__crt_stdio_output@@@2@@__crt_stdio_output@@AEAA_NI_N@Z 000000018002e90c     libucrt:output.obj
 0002:0000b924       $unwind$??0?$CComContainedObject@VCOPOSCheckScanner@@@ATL@@QEAA@PEAX@Z 000000018002e924     CheckScanner.obj
 0002:0000b924       $unwind$??1?$CComEnumImpl@UIEnumConnectionPoints@@$1?_GUID_b196b285_bab4_101a_b69c_00aa00341d07@@3U__s_GUID@@BPEAUIConnectionPoint@@V?$_CopyInterface@UIConnectionPoint@@@ATL@@@ATL@@UEAA@XZ 000000018002e924     CheckScanner.obj
 0002:0000b924       $unwind$??1?$CComEnumImpl@UIEnumConnections@@$1?_GUID_b196b287_bab4_101a_b69c_00aa00341d07@@3U__s_GUID@@BUtagCONNECTDATA@@V?$_Copy@UtagCONNECTDATA@@@ATL@@@ATL@@UEAA@XZ 000000018002e924     CheckScanner.obj
 0002:0000b924       $unwind$??_G?$CComAggObject@VCOPOSCheckScanner@@@ATL@@UEAAPEAXI@Z 000000018002e924     CheckScanner.obj
 0002:0000b924       $unwind$??_G?$CComContainedObject@VCOPOSCheckScanner@@@ATL@@UEAAPEAXI@Z 000000018002e924     CheckScanner.obj
 0002:0000b924       $unwind$??_G?$CComObject@V?$CComEnum@UIEnumConnectionPoints@@$1?_GUID_b196b285_bab4_101a_b69c_00aa00341d07@@3U__s_GUID@@BPEAUIConnectionPoint@@V?$_CopyInterface@UIConnectionPoint@@@ATL@@VCComSingleThreadModel@6@@ATL@@@ATL@@UEAAPEAXI@Z 000000018002e924     CheckScanner.obj
 0002:0000b924       $unwind$??_G?$CComObject@V?$CComEnum@UIEnumConnections@@$1?_GUID_b196b287_bab4_101a_b69c_00aa00341d07@@3U__s_GUID@@BUtagCONNECTDATA@@V?$_Copy@UtagCONNECTDATA@@@ATL@@VCComSingleThreadModel@6@@ATL@@@ATL@@UEAAPEAXI@Z 000000018002e924     CheckScanner.obj
 0002:0000b924       $unwind$??_G?$CComObject@VCOPOSCheckScanner@@@ATL@@UEAAPEAXI@Z 000000018002e924     CheckScanner.obj
 0002:0000b924       $unwind$??_G?$CComObjectCached@VCComClassFactory@ATL@@@ATL@@UEAAPEAXI@Z 000000018002e924     CheckScanner.obj
 0002:0000b924       $unwind$??_GCComClassFactory@ATL@@UEAAPEAXI@Z 000000018002e924     CheckScanner.obj
 0002:0000b924       $unwind$??_GCComModule@ATL@@UEAAPEAXI@Z 000000018002e924     CheckScanner.obj
 0002:0000b924       $unwind$?DeleteSubKey@CRegKey@ATL@@QEAAJPEB_W@Z 000000018002e924     CheckScanner.obj
 0002:0000b924       $unwind$?IOleObject_SetClientSite@CComControlBase@ATL@@QEAAJPEAUIOleClientSite@@@Z 000000018002e924     CheckScanner.obj
 0002:0000b924       $unwind$?InitNew@?$IPersistStorageImpl@VCOPOSCheckScanner@@@ATL@@UEAAJPEAUIStorage@@@Z 000000018002e924     CheckScanner.obj
 0002:0000b924       $unwind$?IsDirty@?$IPersistStorageImpl@VCOPOSCheckScanner@@@ATL@@UEAAJXZ 000000018002e924     CheckScanner.obj
 0002:0000b924       $unwind$?Release@?$CComAggObject@VCOPOSCheckScanner@@@ATL@@UEAAKXZ 000000018002e924     CheckScanner.obj
 0002:0000b924       $unwind$?Release@?$CComObject@V?$CComEnum@UIEnumConnectionPoints@@$1?_GUID_b196b285_bab4_101a_b69c_00aa00341d07@@3U__s_GUID@@BPEAUIConnectionPoint@@V?$_CopyInterface@UIConnectionPoint@@@ATL@@VCComSingleThreadModel@6@@ATL@@@ATL@@UEAAKXZ 000000018002e924     CheckScanner.obj
 0002:0000b924       $unwind$?Release@?$CComObject@V?$CComEnum@UIEnumConnections@@$1?_GUID_b196b287_bab4_101a_b69c_00aa00341d07@@3U__s_GUID@@BUtagCONNECTDATA@@V?$_Copy@UtagCONNECTDATA@@@ATL@@VCComSingleThreadModel@6@@ATL@@@ATL@@UEAAKXZ 000000018002e924     CheckScanner.obj
 0002:0000b924       $unwind$?Release@?$CComObject@VCOPOSCheckScanner@@@ATL@@UEAAKXZ 000000018002e924     CheckScanner.obj
 0002:0000b924       $unwind$?SOData@COPOSCheckScanner@@MEAAJJ@Z 000000018002e924     CheckScanner.obj
 0002:0000b924       $unwind$?SOStatusUpdate@COPOSCheckScanner@@MEAAJJ@Z 000000018002e924     CheckScanner.obj
 0002:0000b924       $unwind$?SetAdvise@?$IViewObjectExImpl@VCOPOSCheckScanner@@@ATL@@UEAAJKKPEAUIAdviseSink@@@Z 000000018002e924     CheckScanner.obj
 0002:0000b924       $unwind$?Term@CComModule@ATL@@QEAAXXZ 000000018002e924     CheckScanner.obj
 0002:0000b924       $unwind$DllMain            000000018002e924     CheckScanner.obj
 0002:0000b924       $unwind$??1?$IConnectionPointImpl@VCOPOSCheckScanner@@$1?DIID__IOPOSCheckScannerEvents@@3U_GUID@@BVCComDynamicUnkArray@ATL@@@ATL@@QEAA@XZ 000000018002e924     CheckScannerImpl.obj
 0002:0000b924       $unwind$??1?$IConnectionPointImpl@VCOPOSCheckScanner@@$1?IID_IPropertyNotifySink@@3U_GUID@@BVCComDynamicUnkArray@ATL@@@ATL@@QEAA@XZ 000000018002e924     CheckScannerImpl.obj
 0002:0000b924       $unwind$?SetBSTR@OposVariant@@QEAAXPEA_WAEAJ@Z 000000018002e924     OposVariant.obj
 0002:0000b924       $unwind$?SetLONG@OposVariant@@QEAAXJ@Z 000000018002e924     OposVariant.obj
 0002:0000b924       $unwind$?SetVARIANT_BOOL@OposVariant@@QEAAXF@Z 000000018002e924     OposVariant.obj
 0002:0000b924       $unwind$??0CAtlBaseModule@ATL@@QEAA@XZ 000000018002e924     atls:atlbase.obj
 0002:0000b924       $unwind$??$GetProcAddressAll@P6AP6A_JPEAUHWND__@@I_K_J@ZPEAUAtlThunkData_t@@@Z@@YAP6AP6A_JPEAUHWND__@@I_K_J@ZPEAUAtlThunkData_t@@@ZPEAP6AP6A_J0I12@Z3@Z@Z 000000018002e924     atls:atlthunk.obj
 0002:0000b924       $unwind$??$GetProcAddressAll@P6APEAUAtlThunkData_t@@XZ@@YAP6APEAUAtlThunkData_t@@XZPEAP6APEAU0@XZ@Z 000000018002e924     atls:atlthunk.obj
 0002:0000b924       $unwind$??$GetProcAddressAll@P6AXPEAUAtlThunkData_t@@@Z@@YAP6AXPEAUAtlThunkData_t@@@ZPEAP6AX0@Z@Z 000000018002e924     atls:atlthunk.obj
 0002:0000b924       $unwind$??$GetProcAddressAll@P6AXPEAUAtlThunkData_t@@PEAX_K@Z@@YAP6AXPEAUAtlThunkData_t@@PEAX_K@ZPEAP6AX012@Z@Z 000000018002e924     atls:atlthunk.obj
 0002:0000b924       $unwind$?__AllocStdCallThunk_cmn@@YAPEAXXZ 000000018002e924     atls:atlthunk.obj
 0002:0000b924       $unwind$?__InitializeThunkPool@@YAHXZ 000000018002e924     atls:atlthunk.obj
 0002:0000b924       $unwind$AtlThunk_DataToCode 000000018002e924     atls:atlthunk.obj
 0002:0000b924       $unwind$_RTC_Initialize    000000018002e924     LIBCMT:initsect.obj
 0002:0000b924       $unwind$_RTC_Terminate     000000018002e924     LIBCMT:initsect.obj
 0002:0000b924       $unwind$?__scrt_initialize_thread_safe_statics@@YAHXZ 000000018002e924     LIBCMT:thread_safe_statics.obj
 0002:0000b924       $unwind$??_Gbad_alloc@std@@UEAAPEAXI@Z 000000018002e924     LIBCMT:throw_bad_alloc.obj
 0002:0000b924       $unwind$??_Gbad_array_new_length@std@@UEAAPEAXI@Z 000000018002e924     LIBCMT:throw_bad_alloc.obj
 0002:0000b924       $unwind$??_Gexception@std@@UEAAPEAXI@Z 000000018002e924     LIBCMT:throw_bad_alloc.obj
 0002:0000b924       $unwind$__FrameUnwindFilter 000000018002e924     libvcruntime:ehhelpers.obj
 0002:0000b924       $unwind$??_Gbad_exception@std@@UEAAPEAXI@Z 000000018002e924     libvcruntime:frame.obj
 0002:0000b924       $unwind$?ExFilterRethrowFH4@@YAHPEAU_EXCEPTION_POINTERS@@PEAUEHExceptionRecord@@HPEAH@Z 000000018002e924     libvcruntime:frame.obj
 0002:0000b924       $unwind$_FindAndUnlinkFrame 000000018002e924     libvcruntime:risctrnsctrl.obj
 0002:0000b924       $unwind$__vcrt_FlsSetValue 000000018002e924     libvcruntime:winapi_downlevel.obj
 0002:0000b924       $unwind$??$common_initialize_environment_nolock@D@@YAHXZ 000000018002e924     libucrt:environment_initialization.obj
 0002:0000b924       $unwind$_realloc_base      000000018002e924     libucrt:realloc_base.obj
 0002:0000b924       $unwind$?replace_current_thread_locale_nolock@@YAXQEAU__acrt_ptd@@QEAU__crt_locale_data@@@Z 000000018002e924     libucrt:per_thread_data.obj
 0002:0000b924       $unwind$__acrt_execute_uninitializers 000000018002e924     libucrt:shared_initialization.obj
 0002:0000b924       $unwind$__acrt_FlsSetValue 000000018002e924     libucrt:winapi_thunks.obj
 0002:0000b924       $unwind$__acrt_LocaleNameToLCID 000000018002e924     libucrt:winapi_thunks.obj
 0002:0000b924       $unwind$_updatetlocinfoEx_nolock 000000018002e924     libucrt:locale_refcounting.obj
 0002:0000b924       $unwind$_close_nolock      000000018002e924     libucrt:close.obj
 0002:0000b924       $unwind$__acrt_uninitialize_lowio 000000018002e924     libucrt:ioinit.obj
 0002:0000b924       $unwind$__acrt_errno_map_os_error 000000018002e924     libucrt:errno.obj
 0002:0000b924       $unwind$_initterm_e        000000018002e924     libucrt:initterm.obj
 0002:0000b924       $unwind$_fclose_nolock     000000018002e924     libucrt:fclose.obj
 0002:0000b924       $unwind$?type_case_n@?$output_processor@_WV?$string_output_adapter@_W@__crt_stdio_output@@V?$format_validation_base@_WV?$string_output_adapter@_W@__crt_stdio_output@@@2@@__crt_stdio_output@@AEAA_NXZ 000000018002e924     libucrt:output.obj
 0002:0000b924       $unwind$strncpy_s          000000018002e924     libucrt:strncpy_s.obj
 0002:0000b924       $unwind$wcsncpy_s          000000018002e924     libucrt:wcsncpy_s.obj
 0002:0000b930       $unwind$?ChangeBSTR@OposVariant@@QEAAXPEAPEA_WAEAJ@Z 000000018002e930     OposVariant.obj
 0002:0000b930       $unwind$?ChangeLONG@OposVariant@@QEAAXPEAJAEAJ@Z 000000018002e930     OposVariant.obj
 0002:0000b930       $unwind$?x_ismbbtype_l@@YAHPEAU__crt_locale_pointers@@IHH@Z 000000018002e930     libucrt:ismbbyte.obj
 0002:0000b940       $unwind$swprintf_s         000000018002e940     CheckScanner.obj
 0002:0000b950       $unwind$?_AtlVerifyStackAvailable@_ATL_SAFE_ALLOCA_IMPL@ATL@@YA_N_K@Z 000000018002e950     CheckScanner.obj
 0002:0000b97c       $unwind$?filt$0@?0??_AtlVerifyStackAvailable@_ATL_SAFE_ALLOCA_IMPL@ATL@@YA_N_K@Z@4HA 000000018002e97c     CheckScanner.obj
 0002:0000b97c       $unwind$?fin$0@?0??dllmain_crt_process_attach@@YAHQEAUHINSTANCE__@@QEAX@Z@4HA 000000018002e97c     LIBCMT:dll_dllmain.obj
 0002:0000b97c       $unwind$?fin$0@?0??dllmain_crt_process_detach@@YAH_N@Z@4HA 000000018002e97c     LIBCMT:dll_dllmain.obj
 0002:0000b97c       $unwind$?fin$1@?0??dllmain_crt_process_detach@@YAH_N@Z@4HA 000000018002e97c     LIBCMT:dll_dllmain.obj
 0002:0000b97c       $unwind$_IsNonwritableInCurrentImage$filt$0 000000018002e97c     LIBCMT:pesect.obj
 0002:0000b97c       $unwind$?filt$0@?0??CxxCallCatchBlock@__FrameHandler4@@SAPEAXPEAU_EXCEPTION_RECORD@@@Z@4HA 000000018002e97c     libvcruntime:frame.obj
 0002:0000b97c       $unwind$_query_new_handler$fin$0 000000018002e97c     libucrt:new_handler.obj
 0002:0000b97c       $unwind$?fin$0@?0???$?RV<lambda_0ae27a3a962d80f24befdcbee591983d>@@AEAV<lambda_8d0ee55de4b1038c4002e0adecdf1839>@@V<lambda_dc504788e8f1664fe9b84e20bfb512f2>@@@?$__crt_seh_guarded_call@X@@QEAAX$$QEAV<lambda_0ae27a3a962d80f24befdcbee591983d>@@AEAV<lambda_8d0ee55de4b1038c4002e0adecdf1839>@@$$QEAV<lambda_dc504788e8f1664fe9b84e20bfb512f2>@@@Z@4HA 000000018002e97c     libucrt:per_thread_data.obj
 0002:0000b97c       $unwind$?fin$0@?0???$?RV<lambda_2d41944a1d46af3157314b8a01080d33>@@AEAV<lambda_8f455de75cd7d7f24b4096f044d8b9e6>@@V<lambda_aa500f224e6afead328df44964fe2772>@@@?$__crt_seh_guarded_call@X@@QEAAX$$QEAV<lambda_2d41944a1d46af3157314b8a01080d33>@@AEAV<lambda_8f455de75cd7d7f24b4096f044d8b9e6>@@$$QEAV<lambda_aa500f224e6afead328df44964fe2772>@@@Z@4HA 000000018002e97c     libucrt:per_thread_data.obj
 0002:0000b97c       $unwind$?fin$0@?0???$?RV<lambda_aa87e3671a710a21b5dc78c0bdf72e11>@@AEAV<lambda_92619d2358a28f41a33ba319515a20b9>@@V<lambda_6992ecaafeb10aed2b74cb1fae11a551>@@@?$__crt_seh_guarded_call@X@@QEAAX$$QEAV<lambda_aa87e3671a710a21b5dc78c0bdf72e11>@@AEAV<lambda_92619d2358a28f41a33ba319515a20b9>@@$$QEAV<lambda_6992ecaafeb10aed2b74cb1fae11a551>@@@Z@4HA 000000018002e97c     libucrt:per_thread_data.obj
 0002:0000b97c       $unwind$?fin$0@?0???$?RV<lambda_f2e299630e499de9f9a165e60fcd3db5>@@AEAV<lambda_2ae9d31cdba2644fcbeaf08da7c24588>@@V<lambda_40d01ff24d0e7b3814fdbdcee8eab3c7>@@@?$__crt_seh_guarded_call@X@@QEAAX$$QEAV<lambda_f2e299630e499de9f9a165e60fcd3db5>@@AEAV<lambda_2ae9d31cdba2644fcbeaf08da7c24588>@@$$QEAV<lambda_40d01ff24d0e7b3814fdbdcee8eab3c7>@@@Z@4HA 000000018002e97c     libucrt:per_thread_data.obj
 0002:0000b97c       $unwind$__acrt_update_thread_locale_data$fin$0 000000018002e97c     libucrt:locale_refcounting.obj
 0002:0000b97c       $unwind$?fin$0@?0???$?RV<lambda_410d79af7f07d98d83a3f525b3859a53>@@AEAV<lambda_3e16ef9562a7dcce91392c22ab16ea36>@@V<lambda_38119f0e861e05405d8a144b9b982f0a>@@@?$__crt_seh_guarded_call@X@@QEAAX$$QEAV<lambda_410d79af7f07d98d83a3f525b3859a53>@@AEAV<lambda_3e16ef9562a7dcce91392c22ab16ea36>@@$$QEAV<lambda_38119f0e861e05405d8a144b9b982f0a>@@@Z@4HA 000000018002e97c     libucrt:wsetlocale.obj
 0002:0000b97c       $unwind$?fin$0@?0???$?RV<lambda_751a882b2c74d4b022dec766aa51a29a>@@AEAV<lambda_628dfdc04ba53c8bfc02c9951375f3f5>@@V<lambda_f6c7be5f7998530c34de24c7437d6b54>@@@?$__crt_seh_guarded_call@H@@QEAAH$$QEAV<lambda_751a882b2c74d4b022dec766aa51a29a>@@AEAV<lambda_628dfdc04ba53c8bfc02c9951375f3f5>@@$$QEAV<lambda_f6c7be5f7998530c34de24c7437d6b54>@@@Z@4HA 000000018002e97c     libucrt:close.obj
 0002:0000b97c       $unwind$?fin$0@?0???$?RV<lambda_a37b2b86f63e897a80ea819b0eb08c01>@@AEAV<lambda_38ce7e780aa69e748d6df282ebc68efe>@@V<lambda_99fb1378e971ab6e7edea83e3a7a83a2>@@@?$__crt_seh_guarded_call@H@@QEAAH$$QEAV<lambda_a37b2b86f63e897a80ea819b0eb08c01>@@AEAV<lambda_38ce7e780aa69e748d6df282ebc68efe>@@$$QEAV<lambda_99fb1378e971ab6e7edea83e3a7a83a2>@@@Z@4HA 000000018002e97c     libucrt:commit.obj
 0002:0000b97c       $unwind$__acrt_initialize_lowio$fin$0 000000018002e97c     libucrt:ioinit.obj
 0002:0000b97c       $unwind$__acrt_lowio_ensure_fh_exists$fin$0 000000018002e97c     libucrt:osfinfo.obj
 0002:0000b97c       $unwind$_write$fin$0       000000018002e97c     libucrt:write.obj
 0002:0000b97c       $unwind$?fin$0@?0???$?RV<lambda_efdfa57d1f175319df784efa44bb7b81>@@AEAV<lambda_5f0a4c1567f8adc6734073e5d1e1b35c>@@V<lambda_2e8a7d3640ea6ccb4c2413664c2db6fd>@@@?$__crt_seh_guarded_call@X@@QEAAX$$QEAV<lambda_efdfa57d1f175319df784efa44bb7b81>@@AEAV<lambda_5f0a4c1567f8adc6734073e5d1e1b35c>@@$$QEAV<lambda_2e8a7d3640ea6ccb4c2413664c2db6fd>@@@Z@4HA 000000018002e97c     libucrt:mbctype.obj
 0002:0000b97c       $unwind$?fin$0@?0??update_thread_multibyte_data_internal@@YAPEAU__crt_multibyte_data@@QEAU__acrt_ptd@@QEAPEAU1@@Z@4HA 000000018002e97c     libucrt:mbctype.obj
 0002:0000b97c       $unwind$?fin$0@?0???$?RV<lambda_450d765d439847d4c735a33c368b5fc0>@@AEAV<lambda_44731a7d0e6d81c3e6aa82d741081786>@@V<lambda_601a2a7da3b7a96e9554ac7215c4b07c>@@@?$__crt_seh_guarded_call@P6AXH@Z@@QEAAP6AXH@Z$$QEAV<lambda_450d765d439847d4c735a33c368b5fc0>@@AEAV<lambda_44731a7d0e6d81c3e6aa82d741081786>@@$$QEAV<lambda_601a2a7da3b7a96e9554ac7215c4b07c>@@@Z@4HA 000000018002e97c     libucrt:signal.obj
 0002:0000b97c       $unwind$raise$fin$0        000000018002e97c     libucrt:signal.obj
 0002:0000b97c       $unwind$?filt$0@?0???R<lambda_6e4b09c48022b2350581041d5f6b0c4c>@@QEBA@XZ@4HA 000000018002e97c     libucrt:exit.obj
 0002:0000b97c       $unwind$?fin$0@?0???$?RV<lambda_d80eeec6fff315bfe5c115232f3240e3>@@AEAV<lambda_6e4b09c48022b2350581041d5f6b0c4c>@@V<lambda_2358e3775559c9db80273638284d5e45>@@@?$__crt_seh_guarded_call@X@@QEAAX$$QEAV<lambda_d80eeec6fff315bfe5c115232f3240e3>@@AEAV<lambda_6e4b09c48022b2350581041d5f6b0c4c>@@$$QEAV<lambda_2358e3775559c9db80273638284d5e45>@@@Z@4HA 000000018002e97c     libucrt:exit.obj
 0002:0000b97c       $unwind$?fin$0@?0???$?RV<lambda_638799b9deba96c50f710eeac98168cd>@@AEAV<lambda_22ebabd17bc4fa466a2aca6d8deb888d>@@V<lambda_a6f7d7db0129f75315ebf26d50c089f1>@@@?$__crt_seh_guarded_call@H@@QEAAH$$QEAV<lambda_638799b9deba96c50f710eeac98168cd>@@AEAV<lambda_22ebabd17bc4fa466a2aca6d8deb888d>@@$$QEAV<lambda_a6f7d7db0129f75315ebf26d50c089f1>@@@Z@4HA 000000018002e97c     libucrt:onexit.obj
 0002:0000b97c       $unwind$?fin$0@?0???$?RV<lambda_7777bce6b2f8c936911f934f8298dc43>@@AEAV<lambda_f03950bc5685219e0bcd2087efbe011e>@@V<lambda_3883c3dff614d5e0c5f61bb1ac94921c>@@@?$__crt_seh_guarded_call@H@@QEAAH$$QEAV<lambda_7777bce6b2f8c936911f934f8298dc43>@@AEAV<lambda_f03950bc5685219e0bcd2087efbe011e>@@$$QEAV<lambda_3883c3dff614d5e0c5f61bb1ac94921c>@@@Z@4HA 000000018002e97c     libucrt:onexit.obj
 0002:0000b97c       $unwind$_fcloseall$fin$0   000000018002e97c     libucrt:closeall.obj
 0002:0000b97c       $unwind$fclose$fin$0       000000018002e97c     libucrt:fclose.obj
 0002:0000b97c       $unwind$?fin$0@?0???$?RV<lambda_842d9ff0dc9ef11c61343bbaebe7f885>@@AEAV<lambda_c5860995281e5c4ce005b3de8f5874ee>@@V<lambda_d90129c13df834fdcbf8d2b88dafcf2d>@@@?$__crt_seh_guarded_call@X@@QEAAX$$QEAV<lambda_842d9ff0dc9ef11c61343bbaebe7f885>@@AEAV<lambda_c5860995281e5c4ce005b3de8f5874ee>@@$$QEAV<lambda_d90129c13df834fdcbf8d2b88dafcf2d>@@@Z@4HA 000000018002e97c     libucrt:fflush.obj
 0002:0000b97c       $unwind$?fin$0@?0???$?RV<lambda_886d6c58226a84441f68b9f2b8217b83>@@AEAV<lambda_ab61a845afdef5b7c387490eaf3616ee>@@V<lambda_f7f22ab5edc0698d5f6905b0d3f44752>@@@?$__crt_seh_guarded_call@X@@QEAAX$$QEAV<lambda_886d6c58226a84441f68b9f2b8217b83>@@AEAV<lambda_ab61a845afdef5b7c387490eaf3616ee>@@$$QEAV<lambda_f7f22ab5edc0698d5f6905b0d3f44752>@@@Z@4HA 000000018002e97c     libucrt:fflush.obj
 0002:0000b97c       $unwind$_ctrlfp$filt$0     000000018002e97c     libucrt:fpctrl.obj
 0002:0000b97c       $unwind$common_control87$filt$0 000000018002e97c     libucrt:ieee.obj
 0002:0000b984       $unwind$?AtlInternalOleLoadFromStream@ATL@@YAJPEAUIStream@@AEBU_GUID@@PEAPEAXTClassesAllowedInStream@1@K@Z 000000018002e984     CheckScanner.obj
 0002:0000b9a0       $unwind$?ReadFromStream@CComBSTR@ATL@@QEAAJPEAUIStream@@@Z 000000018002e9a0     CheckScanner.obj
 0002:0000b9a0       $unwind$_configure_narrow_argv 000000018002e9a0     libucrt:argv_parsing.obj
 0002:0000b9b4       $unwind$?WriteToStream@CComVariant@ATL@@QEAAJPEAUIStream@@@Z 000000018002e9b4     CheckScanner.obj
 0002:0000b9c8       $unwind$?RegOpenKeyExW@CAtlTransactionManager@ATL@@QEAAJPEAUHKEY__@@PEB_WKKPEAPEAU3@@Z 000000018002e9c8     CheckScanner.obj
 0002:0000b9c8       $unwind$?WriteToStream@CComVariant@ATL@@QEAAJPEAUIStream@@G@Z 000000018002e9c8     CheckScanner.obj
 0002:0000b9c8       $unwind$__dcrt_write_console 000000018002e9c8     libucrt:initcon.obj
 0002:0000b9c8       $unwind$??$__acrt_wcs_to_mbs_cp@U__crt_win32_buffer_no_resizing@@@@YAHQEB_WAEAV?$__crt_win32_buffer@DU__crt_win32_buffer_no_resizing@@@@I@Z 000000018002e9c8     libucrt:getmodulefilenamea.obj
 0002:0000b9dc       $unwind$?ReadFromStream@CComVariant@ATL@@QEAAJPEAUIStream@@GTClassesAllowedInStream@2@K@Z 000000018002e9dc     CheckScanner.obj
 0002:0000b9f4       $unwind$?GetSizeMax@CComVariant@ATL@@QEBAJPEAT_ULARGE_INTEGER@@@Z 000000018002e9f4     CheckScanner.obj
 0002:0000ba0c       $unwind$?RegCreateKeyExW@CAtlTransactionManager@ATL@@QEAAJPEAUHKEY__@@PEB_WKPEA_WKKQEAU_SECURITY_ATTRIBUTES@@PEAPEAU3@PEAK@Z 000000018002ea0c     CheckScanner.obj
 0002:0000ba20       $unwind$?GetGITPtr@CAtlModule@ATL@@UEAAJPEAPEAUIGlobalInterfaceTable@@@Z 000000018002ea20     CheckScanner.obj
 0002:0000ba20       $unwind$?RegDeleteKeyW@CAtlTransactionManager@ATL@@QEAAJPEAUHKEY__@@PEB_W@Z 000000018002ea20     CheckScanner.obj
 0002:0000ba20       $unwind$?getStateFromIterators@UWMap4@FH4@@SAHAEBViterator@12@H0H0@Z 000000018002ea20     libvcruntime:frame.obj
 0002:0000ba30       $unwind$?AtlHiMetricToPixel@ATL@@YAXPEBUtagSIZE@@PEAU2@@Z 000000018002ea30     CheckScanner.obj
 0002:0000ba30       $unwind$?AtlInternalQueryInterface@ATL@@YAJPEAXPEBU_ATL_INTMAP_ENTRY@1@AEBU_GUID@@PEAPEAX@Z 000000018002ea30     CheckScanner.obj
 0002:0000ba48       $unwind$?Append@CParseBuffer@CRegParser@ATL@@QEAAHPEB_WH@Z 000000018002ea48     CheckScanner.obj
 0002:0000ba48       $unwind$?AtlComModuleGetClassObject@ATL@@YAJPEAU_ATL_COM_MODULE70@1@AEBU_GUID@@1PEAPEAX@Z 000000018002ea48     CheckScanner.obj
 0002:0000ba48       $unwind$?EnumConnections@?$IConnectionPointImpl@VCOPOSCheckScanner@@$1?DIID__IOPOSCheckScannerEvents@@3U_GUID@@BVCComDynamicUnkArray@ATL@@@ATL@@UEAAJPEAPEAUIEnumConnections@@@Z 000000018002ea48     CheckScanner.obj
 0002:0000ba48       $unwind$?EnumConnections@?$IConnectionPointImpl@VCOPOSCheckScanner@@$1?IID_IPropertyNotifySink@@3U_GUID@@BVCComDynamicUnkArray@ATL@@@ATL@@UEAAJPEAPEAUIEnumConnections@@@Z 000000018002ea48     CheckScanner.obj
 0002:0000ba48       $unwind$?GetClassObject@CComModule@ATL@@QEAAJAEBU_GUID@@0PEAPEAX@Z 000000018002ea48     CheckScanner.obj
 0002:0000ba48       $unwind$?Init@?$CComEnumImpl@UIEnumConnectionPoints@@$1?_GUID_b196b285_bab4_101a_b69c_00aa00341d07@@3U__s_GUID@@BPEAUIConnectionPoint@@V?$_CopyInterface@UIConnectionPoint@@@ATL@@@ATL@@QEAAJPEAPEAUIConnectionPoint@@0PEAUIUnknown@@W4CComEnumFlags@2@@Z 000000018002ea48     CheckScanner.obj
 0002:0000ba48       $unwind$?Init@?$CComEnumImpl@UIEnumConnections@@$1?_GUID_b196b287_bab4_101a_b69c_00aa00341d07@@3U__s_GUID@@BUtagCONNECTDATA@@V?$_Copy@UtagCONNECTDATA@@@ATL@@@ATL@@QEAAJPEAUtagCONNECTDATA@@0PEAUIUnknown@@W4CComEnumFlags@2@@Z 000000018002ea48     CheckScanner.obj
 0002:0000ba48       $unwind$?NextToken@CRegParser@ATL@@IEAAJPEA_W@Z 000000018002ea48     CheckScanner.obj
 0002:0000ba48       $unwind$__acrt_fp_strflt_to_string 000000018002ea48     libucrt:_fptostr.obj
 0002:0000ba48       $unwind$__acrt_DownlevelLocaleNameToLCID 000000018002ea48     libucrt:lcidtoname_downlevel.obj
 0002:0000ba48       $unwind$??R<lambda_f03950bc5685219e0bcd2087efbe011e>@@QEBAHXZ 000000018002ea48     libucrt:onexit.obj
 0002:0000ba60       $unwind$?AtlRegisterClassCategoriesHelper@ATL@@YAJAEBU_GUID@@PEBU_ATL_CATMAP_ENTRY@1@H@Z 000000018002ea60     CheckScanner.obj
 0002:0000ba84       $unwind$?AtlLoadTypeLib@ATL@@YAJPEAUHINSTANCE__@@PEB_WPEAPEA_WPEAPEAUITypeLib@@@Z 000000018002ea84     CheckScanner.obj
 0002:0000baa4       $unwind$?AtlRegisterTypeLib@ATL@@YAJPEAUHINSTANCE__@@PEB_W@Z 000000018002eaa4     CheckScanner.obj
 0002:0000bac0       $unwind$?AtlUnRegisterTypeLib@ATL@@YAJPEAUHINSTANCE__@@PEB_W@Z 000000018002eac0     CheckScanner.obj
 0002:0000bac8       $unwind$?GetTI@CComTypeInfoHolder@ATL@@QEAAJK@Z 000000018002eac8     CheckScanner.obj
 0002:0000bac8       $unwind$?RecurseDeleteKey@CRegKey@ATL@@QEAAJPEB_W@Z 000000018002eac8     CheckScanner.obj
 0002:0000bae8       $unwind$?UpdateRegistryFromResource@CAtlModule@ATL@@QEAAJIHPEAU_ATL_REGMAP_ENTRY@2@@Z 000000018002eae8     CheckScanner.obj
 0002:0000bae8       $unwind$?UpdateRegistryFromResource@CAtlModule@ATL@@QEAAJPEB_WHPEAU_ATL_REGMAP_ENTRY@2@@Z 000000018002eae8     CheckScanner.obj
 0002:0000bb08       $unwind$?Lookup@?$CSimpleMap@PEA_WPEA_WVCExpansionVectorEqualHelper@ATL@@@ATL@@QEBAPEA_WAEBQEA_W@Z 000000018002eb08     CheckScanner.obj
 0002:0000bb08       $unwind$__std_exception_copy 000000018002eb08     libvcruntime:std_exception.obj
 0002:0000bb08       $unwind$_free_osfhnd       000000018002eb08     libucrt:osfinfo.obj
 0002:0000bb1c       $unwind$?Add@CExpansionVector@ATL@@QEAAHPEB_W0@Z 000000018002eb1c     CheckScanner.obj
 0002:0000bb34       $unwind$?PreProcessBuffer@CRegParser@ATL@@QEAAJPEA_WPEAPEA_W@Z 000000018002eb34     CheckScanner.obj
 0002:0000bb58       $unwind$?RegisterBuffer@CRegParser@ATL@@QEAAJPEA_WH@Z 000000018002eb58     CheckScanner.obj
 0002:0000bb78       $unwind$?AddValue@CRegParser@ATL@@IEAAJAEAVCRegKey@2@PEB_WPEA_W@Z 000000018002eb78     CheckScanner.obj
 0002:0000bb98       $unwind$?RegisterSubkeys@CRegParser@ATL@@IEAAJPEA_WPEAUHKEY__@@HH@Z 000000018002eb98     CheckScanner.obj
 0002:0000bbb8       $unwind$?SkipAssignment@CRegParser@ATL@@IEAAJPEA_W@Z 000000018002ebb8     CheckScanner.obj
 0002:0000bbd0       $unwind$?RegisterFromResource@CRegObject@ATL@@IEAAJPEB_W00H@Z 000000018002ebd0     CheckScanner.obj
 0002:0000bbf0       $unwind$?Cleanup@CComTypeInfoHolder@ATL@@SAX_K@Z 000000018002ebf0     CheckScanner.obj
 0002:0000bbf0       $unwind$AtlThunk_FreeData  000000018002ebf0     atls:atlthunk.obj
 0002:0000bbf0       $unwind$_free_base         000000018002ebf0     libucrt:free_base.obj
 0002:0000bbf0       $unwind$?destroy_fls@@YAXPEAX@Z 000000018002ebf0     libucrt:per_thread_data.obj
 0002:0000bbf0       $unwind$__acrt_locale_free_numeric 000000018002ebf0     libucrt:initnum.obj
 0002:0000bbf0       $unwind$__acrt_locale_free_lc_time_if_unreferenced 000000018002ebf0     libucrt:locale_refcounting.obj
 0002:0000bbf8       $unwind$?GetIDsOfNames@CComTypeInfoHolder@ATL@@QEAAJAEBU_GUID@@PEAPEA_WIKPEAJ@Z 000000018002ebf8     CheckScanner.obj
 0002:0000bc14       $unwind$?LoadNameCache@CComTypeInfoHolder@ATL@@QEAAJPEAUITypeInfo@@@Z 000000018002ec14     CheckScanner.obj
 0002:0000bc28       $unwind$?StartWindowProc@?$CWindowImplBaseT@VCWindow@ATL@@V?$CWinTraits@$0FGAAAAAA@$0A@@2@@ATL@@SA_JPEAUHWND__@@I_K_J@Z 000000018002ec28     CheckScanner.obj
 0002:0000bc28       $unwind$?should_round_up@@YA_NQEBN_KFW4__acrt_rounding_mode@@@Z 000000018002ec28     libucrt:cvt.obj
 0002:0000bc28       $unwind$??$parse_command_line@D@@YAXPEADPEAPEAD0PEA_K2@Z 000000018002ec28     libucrt:argv_parsing.obj
 0002:0000bc44       $unwind$?WindowProc@?$CWindowImplBaseT@VCWindow@ATL@@V?$CWinTraits@$0FGAAAAAA@$0A@@2@@ATL@@SA_JPEAUHWND__@@I_K_J@Z 000000018002ec44     CheckScanner.obj
 0002:0000bc5c       $unwind$?atlCreate@?$CWindowImplBaseT@VCWindow@ATL@@V?$CWinTraits@$0FGAAAAAA@$0A@@2@@ATL@@QEAAPEAUHWND__@@PEAU3@V_U_RECT@2@PEB_WKKV_U_MENUorID@2@GPEAX@Z 000000018002ec5c     CheckScanner.obj
 0002:0000bc74       $unwind$??$AtlModuleRegisterWndClassInfoT@VAtlModuleRegisterWndClassInfoParamW@ATL@@@ATL@@YAGPEAU_ATL_BASE_MODULE70@0@PEAU_ATL_WIN_MODULE70@0@PEAU_ATL_WNDCLASSINFOW@0@PEAP6A_JPEAUHWND__@@I_K_J@ZVAtlModuleRegisterWndClassInfoParamW@0@@Z 000000018002ec74     CheckScanner.obj
 0002:0000bc94       $unwind$?GetZoomInfo@CComControlBase@ATL@@QEAAXAEAUATL_DRAWINFO@@@Z 000000018002ec94     CheckScanner.obj
 0002:0000bc94       $unwind$?OnKillFocus@CComControlBase@ATL@@QEAA_JI_K_JAEAH@Z 000000018002ec94     CheckScanner.obj
 0002:0000bc94       $unwind$iswctype           000000018002ec94     libucrt:iswctype.obj
 0002:0000bca0       $unwind$?SendOnDataChange@CComControlBase@ATL@@QEAAJK@Z 000000018002eca0     CheckScanner.obj
 0002:0000bcb0       $unwind$?OnSetFocus@CComControlBase@ATL@@QEAA_JI_K_JAEAH@Z 000000018002ecb0     CheckScanner.obj
 0002:0000bcc0       $unwind$?OnMouseActivate@CComControlBase@ATL@@QEAA_JI_K_JAEAH@Z 000000018002ecc0     CheckScanner.obj
 0002:0000bcc8       $unwind$?GetAmbientLocaleID@CComControlBase@ATL@@QEAAJAEAK@Z 000000018002ecc8     CheckScanner.obj
 0002:0000bcc8       $unwind$?GetAmbientUserMode@CComControlBase@ATL@@QEAAJAEAH@Z 000000018002ecc8     CheckScanner.obj
 0002:0000bcd8       $unwind$?IQuickActivate_QuickActivate@CComControlBase@ATL@@QEAAJPEAUtagQACONTAINER@@PEAUtagQACONTROL@@@Z 000000018002ecd8     CheckScanner.obj
 0002:0000bcf0       $unwind$?DoVerbProperties@CComControlBase@ATL@@QEAAJPEBUtagRECT@@PEAUHWND__@@@Z 000000018002ecf0     CheckScanner.obj
 0002:0000bd08       $unwind$?InPlaceActivate@CComControlBase@ATL@@QEAAJJPEBUtagRECT@@@Z 000000018002ed08     CheckScanner.obj
 0002:0000bd28       $unwind$?IOleObject_Close@CComControlBase@ATL@@QEAAJK@Z 000000018002ed28     CheckScanner.obj
 0002:0000bd28       $unwind$?type_case_c_tchar@?$output_processor@_WV?$string_output_adapter@_W@__crt_stdio_output@@V?$format_validation_base@_WV?$string_output_adapter@_W@__crt_stdio_output@@@2@@__crt_stdio_output@@AEAA_N_W@Z 000000018002ed28     libucrt:output.obj
 0002:0000bd38       $unwind$?IOleInPlaceObject_UIDeactivate@CComControlBase@ATL@@QEAAJXZ 000000018002ed38     CheckScanner.obj
 0002:0000bd50       $unwind$?IOleInPlaceObject_SetObjectRects@CComControlBase@ATL@@QEAAJPEBUtagRECT@@0@Z 000000018002ed50     CheckScanner.obj
 0002:0000bd64       $unwind$?IViewObject_Draw@CComControlBase@ATL@@QEAAJKJPEAXPEAUtagDVTARGETDEVICE@@PEAUHDC__@@2PEBU_RECTL@@3@Z 000000018002ed64     CheckScanner.obj
 0002:0000bd80       $unwind$?IDataObject_GetData@CComControlBase@ATL@@QEAAJPEAUtagFORMATETC@@PEAUtagSTGMEDIUM@@@Z 000000018002ed80     CheckScanner.obj
 0002:0000bda0       $unwind$?OnPaint@CComControlBase@ATL@@QEAA_JI_K_JAEAH@Z 000000018002eda0     CheckScanner.obj
 0002:0000bdbc       $unwind$?OnDrawAdvanced@CComControlBase@ATL@@UEAAJAEAUATL_DRAWINFO@@@Z 000000018002edbc     CheckScanner.obj
 0002:0000bdd8       $unwind$?Invoke@?$IDispatchImpl@UIOPOSCheckScanner@@$1?IID_IOPOSCheckScanner@@3U_GUID@@B$1?LIBID_OposCheckScanner_CCO@@3U3@B$00$0A@VCComTypeInfoHolder@ATL@@@ATL@@UEAAJJAEBU_GUID@@KGPEAUtagDISPPARAMS@@PEAUtagVARIANT@@PEAUtagEXCEPINFO@@PEAI@Z 000000018002edd8     CheckScanner.obj
 0002:0000bdd8       $unwind$?ReleaseDevice@COPOSCheckScanner@@UEAAJPEAJ@Z 000000018002edd8     CheckScannerImpl.obj
 0002:0000bdd8       $unwind$_mbsdec_l          000000018002edd8     libucrt:mbsdec.obj
 0002:0000bde4       $unwind$?atlCreate@?$CWindowImpl@VCOPOSCheckScanner@@VCWindow@ATL@@V?$CWinTraits@$0FGAAAAAA@$0A@@3@@ATL@@QEAAPEAUHWND__@@PEAU3@V_U_RECT@2@PEB_WKKV_U_MENUorID@2@PEAX@Z 000000018002ede4     CheckScanner.obj
 0002:0000bde4       $unwind$?fp_format_e@@YAHQEBNQEAD_K12H_NIQEAU__crt_locale_pointers@@W4__acrt_rounding_mode@@@Z 000000018002ede4     libucrt:cvt.obj
 0002:0000bde4       $unwind$_mbtowc_l          000000018002ede4     libucrt:mbtowc.obj
 0002:0000bde4       $unwind$__acrt_LCMapStringEx 000000018002ede4     libucrt:winapi_thunks.obj
 0002:0000bdf8       $unwind$?CreateControlWindow@?$CComControl@VCOPOSCheckScanner@@V?$CWindowImpl@VCOPOSCheckScanner@@VCWindow@ATL@@V?$CWinTraits@$0FGAAAAAA@$0A@@3@@ATL@@@ATL@@UEAAPEAUHWND__@@PEAU3@AEAUtagRECT@@@Z 000000018002edf8     CheckScanner.obj
 0002:0000bdf8       $unwind$?ClearInput@COPOSCheckScanner@@UEAAJPEAJ@Z 000000018002edf8     CheckScannerImpl.obj
 0002:0000bdf8       $unwind$?ClearInputProperties@COPOSCheckScanner@@UEAAJPEAJ@Z 000000018002edf8     CheckScannerImpl.obj
 0002:0000bdf8       $unwind$?EndInsertion@COPOSCheckScanner@@UEAAJPEAJ@Z 000000018002edf8     CheckScannerImpl.obj
 0002:0000bdf8       $unwind$?EndRemoval@COPOSCheckScanner@@UEAAJPEAJ@Z 000000018002edf8     CheckScannerImpl.obj
 0002:0000bdf8       $unwind$?__scrt_throw_std_bad_alloc@@YAXXZ 000000018002edf8     LIBCMT:throw_bad_alloc.obj
 0002:0000bdf8       $unwind$?__scrt_throw_std_bad_array_new_length@@YAXXZ 000000018002edf8     LIBCMT:throw_bad_alloc.obj
 0002:0000bdf8       $unwind$_raise_exc         000000018002edf8     libucrt:fpexcept.obj
 0002:0000be00       $unwind$?GetSizeMax@?$IPersistStreamInitImpl@VCOPOSCheckScanner@@@ATL@@UEAAJPEAT_ULARGE_INTEGER@@@Z 000000018002ee00     CheckScanner.obj
 0002:0000be18       $unwind$?IPersistStreamInit_Load@?$IPersistStreamInitImpl@VCOPOSCheckScanner@@@ATL@@QEAAJPEAUIStream@@PEBUATL_PROPMAP_ENTRY@2@@Z 000000018002ee18     CheckScanner.obj
 0002:0000be34       $unwind$?IPersistStreamInit_Save@?$IPersistStreamInitImpl@VCOPOSCheckScanner@@@ATL@@QEAAJPEAUIStream@@HPEBUATL_PROPMAP_ENTRY@2@@Z 000000018002ee34     CheckScanner.obj
 0002:0000be50       $unwind$?DoVerbPrimary@?$IOleObjectImpl@VCOPOSCheckScanner@@@ATL@@QEAAJPEBUtagRECT@@PEAUHWND__@@@Z 000000018002ee50     CheckScanner.obj
 0002:0000be68       $unwind$?TranslateAcceleratorW@?$IOleInPlaceActiveObjectImpl@VCOPOSCheckScanner@@@ATL@@UEAAJPEAUtagMSG@@@Z 000000018002ee68     CheckScanner.obj
 0002:0000be74       $unwind$?Draw@?$IViewObjectExImpl@VCOPOSCheckScanner@@@ATL@@UEAAJKJPEAXPEAUtagDVTARGETDEVICE@@PEAUHDC__@@2PEBU_RECTL@@3P6AH_K@Z4@Z 000000018002ee74     CheckScanner.obj
 0002:0000be7c       $unwind$?QueryHitRect@?$IViewObjectExImpl@VCOPOSCheckScanner@@@ATL@@UEAAJKPEBUtagRECT@@0JPEAK@Z 000000018002ee7c     CheckScanner.obj
 0002:0000be8c       $unwind$?OnWindowMessage@?$IOleInPlaceObjectWindowlessImpl@VCOPOSCheckScanner@@@ATL@@UEAAJI_K_JPEA_J@Z 000000018002ee8c     CheckScanner.obj
 0002:0000bea0       $unwind$?EnumConnectionPoints@?$IConnectionPointContainerImpl@VCOPOSCheckScanner@@@ATL@@UEAAJPEAPEAUIEnumConnectionPoints@@@Z 000000018002eea0     CheckScanner.obj
 0002:0000bec8       $unwind$?FindConnectionPoint@?$IConnectionPointContainerImpl@VCOPOSCheckScanner@@@ATL@@UEAAJAEBU_GUID@@PEAPEAUIConnectionPoint@@@Z 000000018002eec8     CheckScanner.obj
 0002:0000bec8       $unwind$?__mbrtoc32_utf8@__crt_mbstring@@YA_KPEA_UPEBD_KPEAU_Mbstatet@@@Z 000000018002eec8     libucrt:mbrtoc32.obj
 0002:0000bee4       $unwind$?Load@?$IPersistStorageImpl@VCOPOSCheckScanner@@@ATL@@UEAAJPEAUIStorage@@@Z 000000018002eee4     CheckScanner.obj
 0002:0000bef4       $unwind$?Save@?$IPersistStorageImpl@VCOPOSCheckScanner@@@ATL@@UEAAJPEAUIStorage@@H@Z 000000018002eef4     CheckScanner.obj
 0002:0000bf08       $unwind$?IPSI_GetIPersistStreamInit@?$IPersistStorageImpl@VCOPOSCheckScanner@@@ATL@@AEAAPEAUIPersistStreamInit@@XZ 000000018002ef08     CheckScanner.obj
 0002:0000bf08       $unwind$?parse_int_from_format_string@?$output_processor@_WV?$string_output_adapter@_W@__crt_stdio_output@@V?$format_validation_base@_WV?$string_output_adapter@_W@__crt_stdio_output@@@2@@__crt_stdio_output@@AEAA_NQEAH@Z 000000018002ef08     libucrt:output.obj
 0002:0000bf1c       $unwind$?GetInterfaceSafetyOptions@?$IObjectSafetyImpl@VCOPOSCheckScanner@@$02@ATL@@UEAAJAEBU_GUID@@PEAK1@Z 000000018002ef1c     CheckScanner.obj
 0002:0000bf30       $unwind$?SetInterfaceSafetyOptions@?$IObjectSafetyImpl@VCOPOSCheckScanner@@$02@ATL@@UEAAJAEBU_GUID@@KK@Z 000000018002ef30     CheckScanner.obj
 0002:0000bf44       $unwind$?Advise@?$IConnectionPointImpl@VCOPOSCheckScanner@@$1?DIID__IOPOSCheckScannerEvents@@3U_GUID@@BVCComDynamicUnkArray@ATL@@@ATL@@UEAAJPEAUIUnknown@@PEAK@Z 000000018002ef44     CheckScanner.obj
 0002:0000bf44       $unwind$?Advise@?$IConnectionPointImpl@VCOPOSCheckScanner@@$1?IID_IPropertyNotifySink@@3U_GUID@@BVCComDynamicUnkArray@ATL@@@ATL@@UEAAJPEAUIUnknown@@PEAK@Z 000000018002ef44     CheckScanner.obj
 0002:0000bf58       $unwind$?Fire_DataEvent@?$CProxy_IOPOSEvents@VCOPOSCheckScanner@@@@QEAAXJ@Z 000000018002ef58     CheckScanner.obj
 0002:0000bf58       $unwind$?Fire_StatusUpdateEvent@?$CProxy_IOPOSEvents@VCOPOSCheckScanner@@@@QEAAXJ@Z 000000018002ef58     CheckScanner.obj
 0002:0000bf70       $unwind$?Fire_DirectIOEvent@?$CProxy_IOPOSEvents@VCOPOSCheckScanner@@@@QEAAXJPEAJPEAPEA_W@Z 000000018002ef70     CheckScanner.obj
 0002:0000bf90       $unwind$?Fire_ErrorEvent@?$CProxy_IOPOSEvents@VCOPOSCheckScanner@@@@QEAAXJJJPEAJ@Z 000000018002ef90     CheckScanner.obj
 0002:0000bfb0       $unwind$?FireTheEvent@?$CProxy_IOPOSEvents@VCOPOSCheckScanner@@@@IEAAXPEAVOposVariant@@IAEAJPEB_WJ@Z 000000018002efb0     CheckScanner.obj
 0002:0000bfc0       $unwind$?ProcessWindowMessage@COPOSCheckScanner@@UEAAHPEAUHWND__@@I_K_JAEA_JK@Z 000000018002efc0     CheckScanner.obj
 0002:0000bfc0       $unwind$__dcrt_get_narrow_environment_from_os 000000018002efc0     libucrt:get_environment_from_os.obj
 0002:0000bfc0       $unwind$?fp_format_f_internal@@YAHQEAD_KHQEAU_strflt@@_NQEAU__crt_locale_pointers@@@Z 000000018002efc0     libucrt:cvt.obj
 0002:0000bfc0       $unwind$??$__acrt_wcs_to_mbs_cp@U__crt_win32_buffer_internal_dynamic_resizing@@@@YAHQEB_WAEAV?$__crt_win32_buffer@DU__crt_win32_buffer_internal_dynamic_resizing@@@@I@Z 000000018002efc0     libucrt:argv_wildcards.obj
 0002:0000bfd8       $unwind$?SOError@COPOSCheckScanner@@MEAAJJJJPEAJ@Z 000000018002efd8     CheckScanner.obj
 0002:0000bfd8       $unwind$_invalid_parameter 000000018002efd8     libucrt:invalid_parameter.obj
 0002:0000bfec       $unwind$?Clone@?$CComEnumImpl@UIEnumConnectionPoints@@$1?_GUID_b196b285_bab4_101a_b69c_00aa00341d07@@3U__s_GUID@@BPEAUIConnectionPoint@@V?$_CopyInterface@UIConnectionPoint@@@ATL@@@ATL@@UEAAJPEAPEAUIEnumConnectionPoints@@@Z 000000018002efec     CheckScanner.obj
 0002:0000bfec       $unwind$?Clone@?$CComEnumImpl@UIEnumConnections@@$1?_GUID_b196b287_bab4_101a_b69c_00aa00341d07@@3U__s_GUID@@BUtagCONNECTDATA@@V?$_Copy@UtagCONNECTDATA@@@ATL@@@ATL@@UEAAJPEAPEAUIEnumConnections@@@Z 000000018002efec     CheckScanner.obj
 0002:0000c004       $unwind$?GetOposProp@COPOSCheckScanner@@IEAAJJPEAJJ@Z 000000018002f004     CheckScannerImpl.obj
 0002:0000c004       $unwind$?GetOposProp@COPOSCheckScanner@@IEAAJJPEAPEA_WJ@Z 000000018002f004     CheckScannerImpl.obj
 0002:0000c01c       $unwind$?SetOposProp@COPOSCheckScanner@@IEAAJJJJ@Z 000000018002f01c     CheckScannerImpl.obj
 0002:0000c03c       $unwind$?SetOposProp@COPOSCheckScanner@@IEAAJJPEA_WJ@Z 000000018002f03c     CheckScannerImpl.obj
 0002:0000c058       $unwind$?DoInvoke@COPOSCheckScanner@@IEAAJJPEAVOposVariant@@IHPEAJ_N@Z 000000018002f058     CheckScannerImpl.obj
 0002:0000c070       $unwind$?SetCOFreezeEvents@COPOSCheckScanner@@IEAAXF@Z 000000018002f070     CheckScannerImpl.obj
 0002:0000c084       $unwind$?OnDraw@COPOSCheckScanner@@MEAAJAEAUATL_DRAWINFO@@@Z 000000018002f084     CheckScannerImpl.obj
 0002:0000c09c       $unwind$?EventInit@COPOSCheckScanner@@IEAAJXZ 000000018002f09c     CheckScannerImpl.obj
 0002:0000c0b0       $unwind$?EventWindowProc@COPOSCheckScanner@@IEAA_JI_K_J@Z 000000018002f0b0     CheckScannerImpl.obj
 0002:0000c0b0       $unwind$__stdio_common_vswprintf_s 000000018002f0b0     libucrt:output.obj
 0002:0000c0bc       $unwind$?get_ControlObjectDescription@COPOSCheckScanner@@UEAAJPEAPEA_W@Z 000000018002f0bc     CheckScannerImpl.obj
 0002:0000c0bc       $unwind$__dcrt_lowio_ensure_console_output_initialized 000000018002f0bc     libucrt:initcon.obj
 0002:0000c0bc       $unwind$_isleadbyte_l      000000018002f0bc     libucrt:_wctype.obj
 0002:0000c0bc       $unwind$?getSystemCP@@YAHH@Z 000000018002f0bc     libucrt:mbctype.obj
 0002:0000c0c4       $unwind$?BeginInsertion@COPOSCheckScanner@@UEAAJJPEAJ@Z 000000018002f0c4     CheckScannerImpl.obj
 0002:0000c0c4       $unwind$?BeginRemoval@COPOSCheckScanner@@UEAAJJPEAJ@Z 000000018002f0c4     CheckScannerImpl.obj
 0002:0000c0c4       $unwind$?CheckHealth@COPOSCheckScanner@@UEAAJJPEAJ@Z 000000018002f0c4     CheckScannerImpl.obj
 0002:0000c0c4       $unwind$?ClearImage@COPOSCheckScanner@@UEAAJJPEAJ@Z 000000018002f0c4     CheckScannerImpl.obj
 0002:0000c0c4       $unwind$?ResetStatistics@COPOSCheckScanner@@UEAAJPEA_WPEAJ@Z 000000018002f0c4     CheckScannerImpl.obj
 0002:0000c0c4       $unwind$?RetrieveImage@COPOSCheckScanner@@UEAAJJPEAJ@Z 000000018002f0c4     CheckScannerImpl.obj
 0002:0000c0c4       $unwind$?RetrieveMemory@COPOSCheckScanner@@UEAAJJPEAJ@Z 000000018002f0c4     CheckScannerImpl.obj
 0002:0000c0c4       $unwind$?RetrieveStatistics@COPOSCheckScanner@@UEAAJPEAPEA_WPEAJ@Z 000000018002f0c4     CheckScannerImpl.obj
 0002:0000c0c4       $unwind$?StoreImage@COPOSCheckScanner@@UEAAJJPEAJ@Z 000000018002f0c4     CheckScannerImpl.obj
 0002:0000c0c4       $unwind$?UpdateFirmware@COPOSCheckScanner@@UEAAJPEA_WPEAJ@Z 000000018002f0c4     CheckScannerImpl.obj
 0002:0000c0c4       $unwind$?UpdateStatistics@COPOSCheckScanner@@UEAAJPEA_WPEAJ@Z 000000018002f0c4     CheckScannerImpl.obj
 0002:0000c0d4       $unwind$?ClaimDevice@COPOSCheckScanner@@UEAAJJPEAJ@Z 000000018002f0d4     CheckScannerImpl.obj
 0002:0000c0e4       $unwind$?Close@COPOSCheckScanner@@UEAAJPEAJ@Z 000000018002f0e4     CheckScannerImpl.obj
 0002:0000c0f0       $unwind$?DirectIO@COPOSCheckScanner@@UEAAJJPEAJPEAPEA_W0@Z 000000018002f0f0     CheckScannerImpl.obj
 0002:0000c10c       $unwind$?Open@COPOSCheckScanner@@UEAAJPEA_WPEAJ@Z 000000018002f10c     CheckScannerImpl.obj
 0002:0000c130       $unwind$?DefineCropArea@COPOSCheckScanner@@UEAAJJJJJJPEAJ@Z 000000018002f130     CheckScannerImpl.obj
 0002:0000c14c       $unwind$?CompareFirmwareVersion@COPOSCheckScanner@@UEAAJPEA_WPEAJ1@Z 000000018002f14c     CheckScannerImpl.obj
 0002:0000c14c       $unwind$?initialize_inherited_file_handles_nolock@@YAXXZ 000000018002f14c     libucrt:ioinit.obj
 0002:0000c168       $unwind$__scrt_is_nonwritable_in_current_image 000000018002f168     LIBCMT:utility.obj
 0002:0000c188       $unwind$__scrt_is_nonwritable_in_current_image$filt$0 000000018002f188     LIBCMT:utility.obj
 0002:0000c190       $unwind$__report_securityfailure 000000018002f190     LIBCMT:gs_report.obj
 0002:0000c198       $unwind$__report_gsfailure 000000018002f198     LIBCMT:gs_report.obj
 0002:0000c1a0       $unwind$capture_current_context 000000018002f1a0     LIBCMT:gs_report.obj
 0002:0000c1ac       $unwind$capture_previous_context 000000018002f1ac     LIBCMT:gs_report.obj
 0002:0000c1b8       $unwind$??2@YAPEAX_KAEBUnothrow_t@std@@@Z 000000018002f1b8     LIBCMT:new_scalar_nothrow.obj
 0002:0000c1c8       $cppxdata$??2@YAPEAX_KAEBUnothrow_t@std@@@Z 000000018002f1c8     LIBCMT:new_scalar_nothrow.obj
 0002:0000c1d5       $stateUnwindMap$??2@YAPEAX_KAEBUnothrow_t@std@@@Z 000000018002f1d5     LIBCMT:new_scalar_nothrow.obj
 0002:0000c1d8       $tryMap$??2@YAPEAX_KAEBUnothrow_t@std@@@Z 000000018002f1d8     LIBCMT:new_scalar_nothrow.obj
 0002:0000c1e0       $handlerMap$??2@YAPEAX_KAEBUnothrow_t@std@@@Z 000000018002f1e0     LIBCMT:new_scalar_nothrow.obj
 0002:0000c1e8       $ip2state$??2@YAPEAX_KAEBUnothrow_t@std@@@Z 000000018002f1e8     LIBCMT:new_scalar_nothrow.obj
 0002:0000c1ec       $unwind$?catch$0@?0???2@YAPEAX_KAEBUnothrow_t@std@@@Z@4HA 000000018002f1ec     LIBCMT:new_scalar_nothrow.obj
 0002:0000c1fc       $cppxdata$?catch$0@?0???2@YAPEAX_KAEBUnothrow_t@std@@@Z@4HA 000000018002f1fc     LIBCMT:new_scalar_nothrow.obj
 0002:0000c206       $stateUnwindMap$?catch$0@?0???2@YAPEAX_KAEBUnothrow_t@std@@@Z@4HA 000000018002f206     LIBCMT:new_scalar_nothrow.obj
 0002:0000c208       $ip2state$?catch$0@?0???2@YAPEAX_KAEBUnothrow_t@std@@@Z@4HA 000000018002f208     LIBCMT:new_scalar_nothrow.obj
 0002:0000c20c       $unwind$__GSHandlerCheckCommon 000000018002f20c     LIBCMT:gshandler.obj
 0002:0000c218       $xdatasym                  000000018002f218     LIBCMT:chkstk.obj
 0002:0000c220       $xdatasym                  000000018002f220     LIBCMT:amdsecgs.obj
 0002:0000c224       $unwind$?dllmain_crt_process_attach@@YAHQEAUHINSTANCE__@@QEAX@Z 000000018002f224     LIBCMT:dll_dllmain.obj
 0002:0000c260       $unwind$?dllmain_crt_process_detach@@YAH_N@Z 000000018002f260     LIBCMT:dll_dllmain.obj
 0002:0000c2b4       $unwind$?dllmain_dispatch@@YAHQEAUHINSTANCE__@@KQEAX@Z 000000018002f2b4     LIBCMT:dll_dllmain.obj
 0002:0000c2dc       $unwind$?filt$0@?0??dllmain_dispatch@@YAHQEAUHINSTANCE__@@KQEAX@Z@4HA 000000018002f2dc     LIBCMT:dll_dllmain.obj
 0002:0000c2dc       $unwind$?filt$0@?0??FrameUnwindToState@__FrameHandler4@@SAXPEA_KPEAU_xDISPATCHER_CONTEXT@@PEAUFuncInfo4@FH4@@H@Z@4HA 000000018002f2dc     libvcruntime:frame.obj
 0002:0000c2dc       $unwind$?fin$1@?0??FrameUnwindToState@__FrameHandler4@@SAXPEA_KPEAU_xDISPATCHER_CONTEXT@@PEAUFuncInfo4@FH4@@H@Z@4HA 000000018002f2dc     libvcruntime:frame.obj
 0002:0000c2e4       $unwind$__isa_available_init 000000018002f2e4     LIBCMT:cpu_disp.obj
 0002:0000c2f4       $unwind$__scrt_fastfail    000000018002f2f4     LIBCMT:utility_desktop.obj
 0002:0000c304       $unwind$__security_init_cookie 000000018002f304     LIBCMT:gs_support.obj
 0002:0000c310       $xdatasym                  000000018002f310     LIBCMT:guard_dispatch.obj
 0002:0000c318       $xdatasym                  000000018002f318     LIBCMT:guard_xfg_dispatch.obj
 0002:0000c31c       $unwind$AtlThunk_InitData  000000018002f31c     atls:atlthunk.obj
 0002:0000c330       $unwind$wcsstr             000000018002f330     libvcruntime:wcsstr.obj
 0002:0000c348       $xdatasym                  000000018002f348     libvcruntime:memcmp.obj
 0002:0000c350       $xdatasym                  000000018002f350     libvcruntime:memcpy.obj
 0002:0000c360       $xdatasym                  000000018002f360     libvcruntime:memset.obj
 0002:0000c370       $unwind$__C_specific_handler 000000018002f370     libvcruntime:riscchandler.obj
 0002:0000c38c       $unwind$?DecompFuncInfo@FH4@@YA_JPEAEAEAUFuncInfo4@1@_KH_N@Z 000000018002f38c     libvcruntime:risctrnsctrl.obj
 0002:0000c3a4       $unwind$?UnwindNestedFrames@__FrameHandler4@@SAXPEA_KPEAUEHExceptionRecord@@PEAU_CONTEXT@@0PEAXPEAUFuncInfo4@FH4@@HHPEAUHandlerType4@5@PEAU_xDISPATCHER_CONTEXT@@E@Z 000000018002f3a4     libvcruntime:risctrnsctrl.obj
 0002:0000c3b8       $unwind$?GetRangeOfTrysToCheck@__FrameHandler4@@SA?AU?$pair@Viterator@TryBlockMap4@FH4@@V123@@std@@AEAVTryBlockMap4@FH4@@HPEAU_xDISPATCHER_CONTEXT@@PEAUFuncInfo4@5@H@Z 000000018002f3b8     libvcruntime:risctrnsctrl.obj
 0002:0000c3d4       $unwind$__CxxFrameHandler4 000000018002f3d4     libvcruntime:risctrnsctrl.obj
 0002:0000c3e8       $unwind$??$_CallSETranslator@V__FrameHandler4@@@@YAHPEAUEHExceptionRecord@@PEA_KPEAU_CONTEXT@@PEAU_xDISPATCHER_CONTEXT@@PEAUFuncInfo4@FH4@@K1H@Z 000000018002f3e8     libvcruntime:risctrnsctrl.obj
 0002:0000c408       $unwind$?filt$0@?0???$_CallSETranslator@V__FrameHandler4@@@@YAHPEAUEHExceptionRecord@@PEA_KPEAU_CONTEXT@@PEAU_xDISPATCHER_CONTEXT@@PEAUFuncInfo4@FH4@@K1H@Z@4HA 000000018002f408     libvcruntime:risctrnsctrl.obj
 0002:0000c414       $unwind$__DestructExceptionObject 000000018002f414     libvcruntime:ehhelpers.obj
 0002:0000c434       $unwind$__DestructExceptionObject$filt$0 000000018002f434     libvcruntime:ehhelpers.obj
 0002:0000c434       $unwind$?fin$1@?0??CxxCallCatchBlock@__FrameHandler4@@SAPEAXPEAU_EXCEPTION_RECORD@@@Z@4HA 000000018002f434     libvcruntime:frame.obj
 0002:0000c440       $unwind$_CxxThrowException 000000018002f440     libvcruntime:throw.obj
 0002:0000c450       $xdatasym                  000000018002f450     libvcruntime:notify.obj
 0002:0000c45c       $unwind$?StateFromIp@__FrameHandler4@@SAHPEAUFuncInfo4@FH4@@PEAU_xDISPATCHER_CONTEXT@@_K@Z 000000018002f45c     libvcruntime:ehstate.obj
 0002:0000c470       $unwind$?getStartStop@UWMap4@FH4@@QEAAXHHAEAViterator@12@0@Z 000000018002f470     libvcruntime:frame.obj
 0002:0000c488       $unwind$?FrameUnwindToState@__FrameHandler4@@SAXPEA_KPEAU_xDISPATCHER_CONTEXT@@PEAUFuncInfo4@FH4@@H@Z 000000018002f488     libvcruntime:frame.obj
 0002:0000c4d0       $unwind$?CxxCallCatchBlock@__FrameHandler4@@SAPEAXPEAU_EXCEPTION_RECORD@@@Z 000000018002f4d0     libvcruntime:frame.obj
 0002:0000c52c       $unwind$?IsInExceptionSpec@@YAEPEAUEHExceptionRecord@@PEBU_s_ESTypeList@@@Z 000000018002f52c     libvcruntime:frame.obj
 0002:0000c548       $unwind$??$__InternalCxxFrameHandler@V__FrameHandler4@@@@YA?AW4_EXCEPTION_DISPOSITION@@PEAUEHExceptionRecord@@PEA_KPEAU_CONTEXT@@PEAU_xDISPATCHER_CONTEXT@@PEAUFuncInfo4@FH4@@H1E@Z 000000018002f548     libvcruntime:frame.obj
 0002:0000c560       $unwind$??$BuildCatchObjectHelperInternal@V__FrameHandler4@@@@YAHPEAUEHExceptionRecord@@PEAXPEAUHandlerType4@FH4@@PEBU_s_CatchableType@@@Z 000000018002f560     libvcruntime:frame.obj
 0002:0000c5a0       $unwind$??$BuildCatchObjectInternal@V__FrameHandler4@@@@YAXPEAUEHExceptionRecord@@PEAXPEAUHandlerType4@FH4@@PEBU_s_CatchableType@@@Z 000000018002f5a0     libvcruntime:frame.obj
 0002:0000c5cc       $unwind$??$FindHandler@V__FrameHandler4@@@@YAXPEAUEHExceptionRecord@@PEA_KPEAU_CONTEXT@@PEAU_xDISPATCHER_CONTEXT@@PEAUFuncInfo4@FH4@@EH1@Z 000000018002f5cc     libvcruntime:frame.obj
 0002:0000c5ec       $unwind$??$CatchIt@V__FrameHandler4@@@@YAXPEAUEHExceptionRecord@@PEA_KPEAU_CONTEXT@@PEAU_xDISPATCHER_CONTEXT@@PEAUFuncInfo4@FH4@@PEAUHandlerType4@4@PEBU_s_CatchableType@@PEAUTryBlockMapEntry4@4@H1EE@Z 000000018002f5ec     libvcruntime:frame.obj
 0002:0000c604       $unwind$??$FindHandlerForForeignException@V__FrameHandler4@@@@YAXPEAUEHExceptionRecord@@PEA_KPEAU_CONTEXT@@PEAU_xDISPATCHER_CONTEXT@@PEAUFuncInfo4@FH4@@HH1@Z 000000018002f604     libvcruntime:frame.obj
 0002:0000c624       $unwind$?try_get_function@@YAPEAXW4function_id@?A0x5302d918@@QEBDQEBW4module_id@2@2@Z 000000018002f624     libvcruntime:winapi_downlevel.obj
 0002:0000c624       $unwind$?try_get_function@@YAPEAXW4function_id@?A0x391cf84c@@QEBDQEBW4module_id@2@2@Z 000000018002f624     libucrt:winapi_thunks.obj
 0002:0000c640       $xdatasym                  000000018002f640     libvcruntime:handlers.obj
 0002:0000c660       $unwind$__acrt_call_reportfault 000000018002f660     libucrt:invalid_parameter.obj
 0002:0000c680       $unwind$_resetstkoflw      000000018002f680     libucrt:resetstk.obj
 0002:0000c6a4       $unwind$?write_string@?$string_output_adapter@_W@__crt_stdio_output@@QEBAXQEB_WHQEAHAEAV__crt_deferred_errno_cache@@@Z 000000018002f6a4     libucrt:output.obj
 0002:0000c6bc       $unwind$??$common_vsprintf@Vformat_validation_base@__crt_stdio_output@@_W@@YAH_KQEA_W0QEB_WQEAU__crt_locale_pointers@@QEAD@Z 000000018002f6bc     libucrt:output.obj
 0002:0000c6dc       $unwind$??$write_multiple_characters@V?$string_output_adapter@_W@__crt_stdio_output@@D@__crt_stdio_output@@YAXAEBV?$string_output_adapter@_W@0@DHQEAH@Z 000000018002f6dc     libucrt:output.obj
 0002:0000c6e8       $unwind$?state_case_type@?$output_processor@_WV?$string_output_adapter@_W@__crt_stdio_output@@V?$format_validation_base@_WV?$string_output_adapter@_W@__crt_stdio_output@@@2@@__crt_stdio_output@@AEAA_NXZ 000000018002f6e8     libucrt:output.obj
 0002:0000c70c       $unwind$?type_case_a@?$output_processor@_WV?$string_output_adapter@_W@__crt_stdio_output@@V?$format_validation_base@_WV?$string_output_adapter@_W@__crt_stdio_output@@@2@@__crt_stdio_output@@AEAA_NXZ 000000018002f70c     libucrt:output.obj
 0002:0000c71c       $unwind$?write_stored_string_tchar@?$output_processor@_WV?$string_output_adapter@_W@__crt_stdio_output@@V?$format_validation_base@_WV?$string_output_adapter@_W@__crt_stdio_output@@@2@@__crt_stdio_output@@AEAA_N_W@Z 000000018002f71c     libucrt:output.obj
 0002:0000c730       $unwind$??$type_case_integer_parse_into_buffer@I@?$output_processor@_WV?$string_output_adapter@_W@__crt_stdio_output@@V?$format_validation_base@_WV?$string_output_adapter@_W@__crt_stdio_output@@@2@@__crt_stdio_output@@AEAAXII_N@Z 000000018002f730     libucrt:output.obj
 0002:0000c730       $unwind$??$type_case_integer_parse_into_buffer@_K@?$output_processor@_WV?$string_output_adapter@_W@__crt_stdio_output@@V?$format_validation_base@_WV?$string_output_adapter@_W@__crt_stdio_output@@@2@@__crt_stdio_output@@AEAAX_KI_N@Z 000000018002f730     libucrt:output.obj
 0002:0000c738       $unwind$?common_exit@@YAXHW4_crt_exit_cleanup_mode@@W4_crt_exit_return_mode@@@Z 000000018002f738     libucrt:exit.obj
 0002:0000c744       $unwind$??R<lambda_6e4b09c48022b2350581041d5f6b0c4c>@@QEBA@XZ 000000018002f744     libucrt:exit.obj
 0002:0000c764       $unwind$??$?RV<lambda_d80eeec6fff315bfe5c115232f3240e3>@@AEAV<lambda_6e4b09c48022b2350581041d5f6b0c4c>@@V<lambda_2358e3775559c9db80273638284d5e45>@@@?$__crt_seh_guarded_call@X@@QEAAX$$QEAV<lambda_d80eeec6fff315bfe5c115232f3240e3>@@AEAV<lambda_6e4b09c48022b2350581041d5f6b0c4c>@@$$QEAV<lambda_2358e3775559c9db80273638284d5e45>@@@Z 000000018002f764     libucrt:exit.obj
 0002:0000c788       $unwind$??$free_environment@D@@YAXQEAPEAD@Z 000000018002f788     libucrt:environment_initialization.obj
 0002:0000c788       $unwind$??$free_environment@_W@@YAXQEAPEA_W@Z 000000018002f788     libucrt:environment_initialization.obj
 0002:0000c794       $unwind$??$create_environment@D@@YAQEAPEADQEAD@Z 000000018002f794     libucrt:environment_initialization.obj
 0002:0000c7ac       $unwind$_register_onexit_function 000000018002f7ac     libucrt:onexit.obj
 0002:0000c7b4       $unwind$_execute_onexit_table 000000018002f7b4     libucrt:onexit.obj
 0002:0000c7bc       $unwind$??R<lambda_22ebabd17bc4fa466a2aca6d8deb888d>@@QEBAHXZ 000000018002f7bc     libucrt:onexit.obj
 0002:0000c7d4       $unwind$??$?RV<lambda_638799b9deba96c50f710eeac98168cd>@@AEAV<lambda_22ebabd17bc4fa466a2aca6d8deb888d>@@V<lambda_a6f7d7db0129f75315ebf26d50c089f1>@@@?$__crt_seh_guarded_call@H@@QEAAH$$QEAV<lambda_638799b9deba96c50f710eeac98168cd>@@AEAV<lambda_22ebabd17bc4fa466a2aca6d8deb888d>@@$$QEAV<lambda_a6f7d7db0129f75315ebf26d50c089f1>@@@Z 000000018002f7d4     libucrt:onexit.obj
 0002:0000c7f8       $unwind$??$?RV<lambda_7777bce6b2f8c936911f934f8298dc43>@@AEAV<lambda_f03950bc5685219e0bcd2087efbe011e>@@V<lambda_3883c3dff614d5e0c5f61bb1ac94921c>@@@?$__crt_seh_guarded_call@H@@QEAAH$$QEAV<lambda_7777bce6b2f8c936911f934f8298dc43>@@AEAV<lambda_f03950bc5685219e0bcd2087efbe011e>@@$$QEAV<lambda_3883c3dff614d5e0c5f61bb1ac94921c>@@@Z 000000018002f7f8     libucrt:onexit.obj
 0002:0000c81c       $unwind$_query_new_handler 000000018002f81c     libucrt:new_handler.obj
 0002:0000c83c       $unwind$terminate          000000018002f83c     libucrt:terminate.obj
 0002:0000c85c       $unwind$??$parse_integer@KV?$c_string_character_source@_W@__crt_strtox@@@__crt_strtox@@YAKQEAU__crt_locale_pointers@@V?$c_string_character_source@_W@0@H_N@Z 000000018002f85c     libucrt:atox.obj
 0002:0000c878       $xdatasym                  000000018002f878     libucrt:strncmp.obj
 0002:0000c87c       $unwind$?construct_ptd_array@@YAXQEAU__acrt_ptd@@@Z 000000018002f87c     libucrt:per_thread_data.obj
 0002:0000c884       $unwind$?destroy_ptd_array@@YAXQEAU__acrt_ptd@@@Z 000000018002f884     libucrt:per_thread_data.obj
 0002:0000c88c       $unwind$??$?RV<lambda_0ae27a3a962d80f24befdcbee591983d>@@AEAV<lambda_8d0ee55de4b1038c4002e0adecdf1839>@@V<lambda_dc504788e8f1664fe9b84e20bfb512f2>@@@?$__crt_seh_guarded_call@X@@QEAAX$$QEAV<lambda_0ae27a3a962d80f24befdcbee591983d>@@AEAV<lambda_8d0ee55de4b1038c4002e0adecdf1839>@@$$QEAV<lambda_dc504788e8f1664fe9b84e20bfb512f2>@@@Z 000000018002f88c     libucrt:per_thread_data.obj
 0002:0000c8b0       $unwind$??$?RV<lambda_aa87e3671a710a21b5dc78c0bdf72e11>@@AEAV<lambda_92619d2358a28f41a33ba319515a20b9>@@V<lambda_6992ecaafeb10aed2b74cb1fae11a551>@@@?$__crt_seh_guarded_call@X@@QEAAX$$QEAV<lambda_aa87e3671a710a21b5dc78c0bdf72e11>@@AEAV<lambda_92619d2358a28f41a33ba319515a20b9>@@$$QEAV<lambda_6992ecaafeb10aed2b74cb1fae11a551>@@@Z 000000018002f8b0     libucrt:per_thread_data.obj
 0002:0000c8d4       $unwind$??$?RV<lambda_f2e299630e499de9f9a165e60fcd3db5>@@AEAV<lambda_2ae9d31cdba2644fcbeaf08da7c24588>@@V<lambda_40d01ff24d0e7b3814fdbdcee8eab3c7>@@@?$__crt_seh_guarded_call@X@@QEAAX$$QEAV<lambda_f2e299630e499de9f9a165e60fcd3db5>@@AEAV<lambda_2ae9d31cdba2644fcbeaf08da7c24588>@@$$QEAV<lambda_40d01ff24d0e7b3814fdbdcee8eab3c7>@@@Z 000000018002f8d4     libucrt:per_thread_data.obj
 0002:0000c8f8       $unwind$??$?RV<lambda_2d41944a1d46af3157314b8a01080d33>@@AEAV<lambda_8f455de75cd7d7f24b4096f044d8b9e6>@@V<lambda_aa500f224e6afead328df44964fe2772>@@@?$__crt_seh_guarded_call@X@@QEAAX$$QEAV<lambda_2d41944a1d46af3157314b8a01080d33>@@AEAV<lambda_8f455de75cd7d7f24b4096f044d8b9e6>@@$$QEAV<lambda_aa500f224e6afead328df44964fe2772>@@@Z 000000018002f8f8     libucrt:per_thread_data.obj
 0002:0000c91c       $unwind$__acrt_initialize_winapi_thunks 000000018002f91c     libucrt:winapi_thunks.obj
 0002:0000c924       $unwind$__acrt_fp_format   000000018002f924     libucrt:cvt.obj
 0002:0000c93c       $unwind$?fp_format_e_internal@@YAHQEAD_KH_NIQEAU_strflt@@2QEAU__crt_locale_pointers@@@Z 000000018002f93c     libucrt:cvt.obj
 0002:0000c954       $unwind$?fp_format_a@@YAHQEBNPEAD_KQEAD2H_NIQEAU__crt_locale_pointers@@W4__acrt_rounding_mode@@@Z 000000018002f954     libucrt:cvt.obj
 0002:0000c970       $unwind$?fp_format_g@@YAHQEBNQEAD_K12H_NIQEAU__crt_locale_pointers@@@Z 000000018002f970     libucrt:cvt.obj
 0002:0000c984       $unwind$__acrt_uninitialize_locale 000000018002f984     libucrt:wsetlocale.obj
 0002:0000c984       $unwind$__acrt_get_sigabrt_handler 000000018002f984     libucrt:signal.obj
 0002:0000c98c       $unwind$??$?RV<lambda_410d79af7f07d98d83a3f525b3859a53>@@AEAV<lambda_3e16ef9562a7dcce91392c22ab16ea36>@@V<lambda_38119f0e861e05405d8a144b9b982f0a>@@@?$__crt_seh_guarded_call@X@@QEAAX$$QEAV<lambda_410d79af7f07d98d83a3f525b3859a53>@@AEAV<lambda_3e16ef9562a7dcce91392c22ab16ea36>@@$$QEAV<lambda_38119f0e861e05405d8a144b9b982f0a>@@@Z 000000018002f98c     libucrt:wsetlocale.obj
 0002:0000c9b4       $unwind$__acrt_initialize_lowio 000000018002f9b4     libucrt:ioinit.obj
 0002:0000c9d4       $unwind$??$common_expand_argv_wildcards@D@@YAHQEAPEADQEAPEAPEAD@Z 000000018002f9d4     libucrt:argv_wildcards.obj
 0002:0000c9ec       $unwind$??$copy_and_add_argument_to_buffer@D@@YAHQEBD0_KAEAV?$argument_list@D@?A0x5f5c8891@@@Z 000000018002f9ec     libucrt:argv_wildcards.obj
 0002:0000ca08       $unwind$??$expand_argument_wildcards@D@@YAHQEAD0AEAV?$argument_list@D@?A0x5f5c8891@@@Z 000000018002fa08     libucrt:argv_wildcards.obj
 0002:0000ca2c       $unwind$__acrt_GetModuleFileNameA 000000018002fa2c     libucrt:getmodulefilenamea.obj
 0002:0000ca48       $unwind$_setmbcp_nolock    000000018002fa48     libucrt:mbctype.obj
 0002:0000ca68       $unwind$?update_thread_multibyte_data_internal@@YAPEAU__crt_multibyte_data@@QEAU__acrt_ptd@@QEAPEAU1@@Z 000000018002fa68     libucrt:mbctype.obj
 0002:0000ca90       $unwind$?setmbcp_internal@@YAHH_NQEAU__acrt_ptd@@QEAPEAU__crt_multibyte_data@@@Z 000000018002fa90     libucrt:mbctype.obj
 0002:0000caa0       $unwind$?setSBUpLow@@YAXPEAU__crt_multibyte_data@@@Z 000000018002faa0     libucrt:mbctype.obj
 0002:0000cabc       $unwind$??$?RV<lambda_efdfa57d1f175319df784efa44bb7b81>@@AEAV<lambda_5f0a4c1567f8adc6734073e5d1e1b35c>@@V<lambda_2e8a7d3640ea6ccb4c2413664c2db6fd>@@@?$__crt_seh_guarded_call@X@@QEAAX$$QEAV<lambda_efdfa57d1f175319df784efa44bb7b81>@@AEAV<lambda_5f0a4c1567f8adc6734073e5d1e1b35c>@@$$QEAV<lambda_2e8a7d3640ea6ccb4c2413664c2db6fd>@@@Z 000000018002fabc     libucrt:mbctype.obj
 0002:0000cae0       $unwind$__acrt_WideCharToMultiByte 000000018002fae0     libucrt:widechartomultibyte.obj
 0002:0000caec       $unwind$raise              000000018002faec     libucrt:signal.obj
 0002:0000cb28       $unwind$??$?RV<lambda_450d765d439847d4c735a33c368b5fc0>@@AEAV<lambda_44731a7d0e6d81c3e6aa82d741081786>@@V<lambda_601a2a7da3b7a96e9554ac7215c4b07c>@@@?$__crt_seh_guarded_call@P6AXH@Z@@QEAAP6AXH@Z$$QEAV<lambda_450d765d439847d4c735a33c368b5fc0>@@AEAV<lambda_44731a7d0e6d81c3e6aa82d741081786>@@$$QEAV<lambda_601a2a7da3b7a96e9554ac7215c4b07c>@@@Z 000000018002fb28     libucrt:signal.obj
 0002:0000cb4c       $unwind$?common_flush_all@@YAH_N@Z 000000018002fb4c     libucrt:fflush.obj
 0002:0000cb54       $unwind$??$?RV<lambda_842d9ff0dc9ef11c61343bbaebe7f885>@@AEAV<lambda_c5860995281e5c4ce005b3de8f5874ee>@@V<lambda_d90129c13df834fdcbf8d2b88dafcf2d>@@@?$__crt_seh_guarded_call@X@@QEAAX$$QEAV<lambda_842d9ff0dc9ef11c61343bbaebe7f885>@@AEAV<lambda_c5860995281e5c4ce005b3de8f5874ee>@@$$QEAV<lambda_d90129c13df834fdcbf8d2b88dafcf2d>@@@Z 000000018002fb54     libucrt:fflush.obj
 0002:0000cb78       $unwind$??$?RV<lambda_886d6c58226a84441f68b9f2b8217b83>@@AEAV<lambda_ab61a845afdef5b7c387490eaf3616ee>@@V<lambda_f7f22ab5edc0698d5f6905b0d3f44752>@@@?$__crt_seh_guarded_call@X@@QEAAX$$QEAV<lambda_886d6c58226a84441f68b9f2b8217b83>@@AEAV<lambda_ab61a845afdef5b7c387490eaf3616ee>@@$$QEAV<lambda_f7f22ab5edc0698d5f6905b0d3f44752>@@@Z 000000018002fb78     libucrt:fflush.obj
 0002:0000cba0       $unwind$__acrt_update_thread_locale_data 000000018002fba0     libucrt:locale_refcounting.obj
 0002:0000cbc4       $unwind$?__mbrtowc_utf8@__crt_mbstring@@YA_KPEA_WPEBD_KPEAU_Mbstatet@@@Z 000000018002fbc4     libucrt:mbrtowc.obj
 0002:0000cbcc       $unwind$?__mbsrtowcs_utf8@__crt_mbstring@@YA_KPEA_WPEAPEBD_KPEAU_Mbstatet@@@Z 000000018002fbcc     libucrt:mbrtowc.obj
 0002:0000cbe4       $unwind$__acrt_fltout      000000018002fbe4     libucrt:cfout.obj
 0002:0000cc04       $unwind$?divide@__crt_strtox@@YA_KAEAUbig_integer@1@AEBU21@@Z 000000018002fc04     libucrt:cfout.obj
 0002:0000cc1c       $chain$0$?divide@__crt_strtox@@YA_KAEAUbig_integer@1@AEBU21@@Z 000000018002fc1c     libucrt:cfout.obj
 0002:0000cc30       $chain$1$?divide@__crt_strtox@@YA_KAEAUbig_integer@1@AEBU21@@Z 000000018002fc30     libucrt:cfout.obj
 0002:0000cc40       $unwind$_fcloseall         000000018002fc40     libucrt:closeall.obj
 0002:0000cc64       $unwind$__acrt_locale_free_monetary 000000018002fc64     libucrt:initmon.obj
 0002:0000cc6c       $unwind$__acrt_locale_free_time 000000018002fc6c     libucrt:inittime.obj
 0002:0000cc7c       $unwind$__acrt_GetStringTypeA 000000018002fc7c     libucrt:getstringtypea.obj
 0002:0000cca4       $unwind$__acrt_lowio_destroy_handle_array 000000018002fca4     libucrt:osfinfo.obj
 0002:0000ccb4       $unwind$__acrt_lowio_ensure_fh_exists 000000018002fcb4     libucrt:osfinfo.obj
 0002:0000cce0       $unwind$qsort              000000018002fce0     libucrt:qsort.obj
 0002:0000ccf8       $chain$4$qsort             000000018002fcf8     libucrt:qsort.obj
 0002:0000cd1c       $chain$5$qsort             000000018002fd1c     libucrt:qsort.obj
 0002:0000cd2c       $unwind$strpbrk            000000018002fd2c     libucrt:strpbrk.obj
 0002:0000cd3c       $unwind$fallbackMethod     000000018002fd3c     libucrt:strpbrk.obj
 0002:0000cd4c       $unwind$__acrt_LCMapStringA 000000018002fd4c     libucrt:lcmapstringa.obj
 0002:0000cd5c       $unwind$?__acrt_LCMapStringA_stat@@YAHPEAU__crt_locale_pointers@@PEB_WKPEBDHPEADHHH@Z 000000018002fd5c     libucrt:lcmapstringa.obj
 0002:0000cd84       $unwind$_close             000000018002fd84     libucrt:close.obj
 0002:0000cd84       $unwind$_commit            000000018002fd84     libucrt:commit.obj
 0002:0000cd8c       $unwind$??$?RV<lambda_a37b2b86f63e897a80ea819b0eb08c01>@@AEAV<lambda_38ce7e780aa69e748d6df282ebc68efe>@@V<lambda_99fb1378e971ab6e7edea83e3a7a83a2>@@@?$__crt_seh_guarded_call@H@@QEAAH$$QEAV<lambda_a37b2b86f63e897a80ea819b0eb08c01>@@AEAV<lambda_38ce7e780aa69e748d6df282ebc68efe>@@$$QEAV<lambda_99fb1378e971ab6e7edea83e3a7a83a2>@@@Z 000000018002fd8c     libucrt:commit.obj
 0002:0000cdb0       $unwind$_write             000000018002fdb0     libucrt:write.obj
 0002:0000cde0       $unwind$_write_nolock      000000018002fde0     libucrt:write.obj
 0002:0000cdf8       $unwind$?write_double_translated_ansi_nolock@@YA?AUwrite_result@?A0x17268360@@HQEBDI@Z 000000018002fdf8     libucrt:write.obj
 0002:0000ce1c       $unwind$?write_text_ansi_nolock@@YA?AUwrite_result@?A0x17268360@@HQEBDI@Z 000000018002fe1c     libucrt:write.obj
 0002:0000ce1c       $unwind$?write_text_utf16le_nolock@@YA?AUwrite_result@?A0x17268360@@HQEBDI@Z 000000018002fe1c     libucrt:write.obj
 0002:0000ce3c       $unwind$?write_text_utf8_nolock@@YA?AUwrite_result@?A0x17268360@@HQEBDI@Z 000000018002fe3c     libucrt:write.obj
 0002:0000ce60       $xdatasym                  000000018002fe60     libucrt:log10.obj
 0002:0000ce6c       $unwind$__acrt_fenv_set_control 000000018002fe6c     libucrt:_fenvutils.obj
 0002:0000ce7c       $unwind$fclose             000000018002fe7c     libucrt:fclose.obj
 0002:0000cea0       $unwind$_putwch_nolock     000000018002fea0     libucrt:putwch.obj
 0002:0000cea8       $unwind$common_control87   000000018002fea8     libucrt:ieee.obj
 0002:0000ced4       $unwind$_call_matherr      000000018002fed4     libucrt:libm_error.obj
 0002:0000cedc       $unwind$_handle_error      000000018002fedc     libucrt:libm_error.obj
 0002:0000cefc       $unwind$__acrt_initialize_fma3 000000018002fefc     libucrt:fma3_available.obj
 0002:0000cf04       $unwind$_log_special_common 000000018002ff04     libucrt:log_special.obj
 0002:0000cf10       $unwind$??$?RV<lambda_751a882b2c74d4b022dec766aa51a29a>@@AEAV<lambda_628dfdc04ba53c8bfc02c9951375f3f5>@@V<lambda_f6c7be5f7998530c34de24c7437d6b54>@@@?$__crt_seh_guarded_call@H@@QEAAH$$QEAV<lambda_751a882b2c74d4b022dec766aa51a29a>@@AEAV<lambda_628dfdc04ba53c8bfc02c9951375f3f5>@@$$QEAV<lambda_f6c7be5f7998530c34de24c7437d6b54>@@@Z 000000018002ff10     libucrt:close.obj
 0002:0000cf38       $xdatasym                  000000018002ff38     libucrt:fpsr.obj
 0002:0000cf40       $unwind$_raise_exc_ex      000000018002ff40     libucrt:fpexcept.obj
 0002:0000cf54       $unwind$_ctrlfp            000000018002ff54     libucrt:fpctrl.obj
 0002:0000cf7c       $unwind$_IsNonwritableInCurrentImage 000000018002ff7c     LIBCMT:pesect.obj
 0002:0000d100       .edata                     0000000180030100     OPOSCheckScanner.exp
 0002:0000d128       rgpv                       0000000180030128     OPOSCheckScanner.exp
 0002:0000d138       rgszName                   0000000180030138     OPOSCheckScanner.exp
 0002:0000d148       rgwOrd                     0000000180030148     OPOSCheckScanner.exp
 0002:0000d150       szName                     0000000180030150     OPOSCheckScanner.exp
 0002:0000d165       $N00001                    0000000180030165     OPOSCheckScanner.exp
 0002:0000d175       $N00002                    0000000180030175     OPOSCheckScanner.exp
 0002:0000d187       $N00003                    0000000180030187     OPOSCheckScanner.exp
 0002:0000d199       $N00004                    0000000180030199     OPOSCheckScanner.exp
 0002:0000daca       .idata$6                   0000000180030aca     kernel32:KERNEL32.dll
 0002:0000dce2       .idata$6                   0000000180030ce2     user32:USER32.dll
 0002:0000de16       .idata$6                   0000000180030e16     gdi32:GDI32.dll
 0002:0000debc       .idata$6                   0000000180030ebc     advapi32:ADVAPI32.dll
 0002:0000dfd8       .idata$6                   0000000180030fd8     ole32:ole32.dll
 0002:0000dfe2       .idata$6                   0000000180030fe2     oleaut32:OLEAUT32.dll
 0003:000001c0       ?ObjectMap@@3PAU_ATL_OBJMAP_ENTRY30@ATL@@A 00000001800321c0     CheckScanner.obj
 0003:000002d0       ?s_SOMethodNames@@3PAPEADA 00000001800322d0     CheckScannerImpl.obj
 0003:000003b0       ?s_RequiredMethodsPerRelease@@3PAHA 00000001800323b0     CheckScannerImpl.obj
 0003:00000400       ?__vcrt_flsindex@@3KA      0000000180032400     libvcruntime:per_thread_data.obj
 0003:00000410       ?errno_no_memory@@3HA      0000000180032410     libucrt:errno.obj
 0003:00000414       ?doserrno_no_memory@@3KA   0000000180032414     libucrt:errno.obj
 0003:00000420       ?__acrt_flsindex@@3KA      0000000180032420     libucrt:per_thread_data.obj
 0003:000008e0       _mbctypes                  00000001800328e0     libucrt:mbctype.obj
 0003:000009f0       _mbcasemaps                00000001800329f0     libucrt:mbctype.obj
 0003:00000af0       ?__rgctypeflag@@3PADA      0000000180032af0     libucrt:mbctype.obj
 0003:00000b00       ?__rgcode_page_info@@3PAUcode_page_info@@A 0000000180032b00     libucrt:mbctype.obj
 0003:00000da0       ?dazSupported@?1??common_control87@@9@9 0000000180032da0     libucrt:ieee.obj
 0003:00000db0       ?__dcrt_lowio_console_output_handle@@3PEAXEA 0000000180032db0     libucrt:initcon.obj
 0003:00000dc0       ?dazSupported@?1??_ctrlfp@@9@9 0000000180032dc0     libucrt:fpctrl.obj
 0003:00001010       ?is_initialized_as_dll@@3_NA 0000000180033010     LIBCMT:utility.obj
 0003:00001011       ?module_local_atexit_table_initialized@@3_NA 0000000180033011     LIBCMT:utility.obj
 0003:00001018       ?module_local_atexit_table@@3U_onexit_table_t@@A 0000000180033018     LIBCMT:utility.obj
 0003:00001030       ?module_local_at_quick_exit_table@@3U_onexit_table_t@@A 0000000180033030     LIBCMT:utility.obj
 0003:00001048       ?g_tss_cv@@3U_RTL_CONDITION_VARIABLE@@A 0000000180033048     LIBCMT:thread_safe_statics.obj
 0003:00001050       ?g_tss_event@@3PEAXEA      0000000180033050     LIBCMT:thread_safe_statics.obj
 0003:00001058       ?g_tss_mutex@@3U_RTL_CRITICAL_SECTION@@A 0000000180033058     LIBCMT:thread_safe_statics.obj
 0003:00001080       ?g_sleep_condition_variable_cs@@3P6AHPEAU_RTL_CONDITION_VARIABLE@@PEAU_RTL_CRITICAL_SECTION@@K@ZEA 0000000180033080     LIBCMT:thread_safe_statics.obj
 0003:00001088       ?g_wake_all_condition_variable@@3P6AXPEAU_RTL_CONDITION_VARIABLE@@@ZEA 0000000180033088     LIBCMT:thread_safe_statics.obj
 0003:00001090       GS_ExceptionRecord         0000000180033090     LIBCMT:gs_report.obj
 0003:00001130       GS_ContextRecord           0000000180033130     LIBCMT:gs_report.obj
 0003:00001604       ?__proc_attached@@3HA      0000000180033604     LIBCMT:dll_dllmain.obj
 0003:00001698       ?AllocateData@@3P6APEAUAtlThunkData_t@@XZEA 0000000180033698     atls:atlthunk.obj
 0003:000016a0       ?InitData@@3P6AXPEAUAtlThunkData_t@@PEAX_K@ZEA 00000001800336a0     atls:atlthunk.obj
 0003:000016a8       ?DataToCode@@3P6AP6A_JPEAUHWND__@@I_K_J@ZPEAUAtlThunkData_t@@@ZEA 00000001800336a8     atls:atlthunk.obj
 0003:000016b0       ?FreeData@@3P6AXPEAUAtlThunkData_t@@@ZEA 00000001800336b0     atls:atlthunk.obj
 0003:000016b8       ?Initialized@@3_NA         00000001800336b8     atls:atlthunk.obj
 0003:000016d0       ?__vcrt_startup_thread_ptd@@3U__vcrt_ptd@@A 00000001800336d0     libvcruntime:per_thread_data.obj
 0003:00001750       __vcrt_lock_table          0000000180033750     libvcruntime:locks.obj
 0003:00001778       __vcrt_locks_initialized   0000000180033778     libvcruntime:locks.obj
 0003:000017c0       ?heap@@3V_HeapManager@@A   00000001800337c0     libvcruntime:undname.obj
 0003:000017e8       ?module_handles@@3PAPEAUHINSTANCE__@@A 00000001800337e8     libvcruntime:winapi_downlevel.obj
 0003:00001800       ?function_pointers@@3PAPEAXA 0000000180033800     libvcruntime:winapi_downlevel.obj
 0003:00001828       ?__acrt_invalid_parameter_handler@@3V?$dual_state_global@P6AXPEB_W00I_K@Z@__crt_state_management@@A 0000000180033828     libucrt:invalid_parameter.obj
 0003:00001830       ?c_termination_complete@@3JA 0000000180033830     libucrt:exit.obj
 0003:00001838       ?thread_local_exit_callback_func@@3P6AXPEAXK0@ZEA 0000000180033838     libucrt:exit.obj
 0003:00001850       ?program_name@?1???$common_configure_argv@D@@YAHW4_crt_argv_mode@@@Z@4PADA 0000000180033850     libucrt:argv_parsing.obj
 0003:000019a8       ?__acrt_new_handler@@3V?$dual_state_global@P6AH_K@Z@__crt_state_management@@A 00000001800339a8     libucrt:new_handler.obj
 0003:000019b0       ?module_handles@@3PAPEAUHINSTANCE__@@A 00000001800339b0     libucrt:winapi_thunks.obj
 0003:00001a50       ?encoded_function_pointers@@3PAPEAXA 0000000180033a50     libucrt:winapi_thunks.obj
 0003:00001b60       ?internal_state@?1??_mbtowc_l@@9@4U_Mbstatet@@A 0000000180033b60     libucrt:mbtowc.obj
 0003:00001b78       ?enable_percent_n@@3_KA    0000000180033b78     libucrt:printf_count_output.obj
 0003:00001fb0       ?__acrt_lock_table@@3PAU_RTL_CRITICAL_SECTION@@A 0000000180033fb0     libucrt:locks.obj
 0003:000021e0       ?__acrt_locks_initialized@@3IA 00000001800341e0     libucrt:locks.obj
 0003:00002200       ?fSystemSet@@3HA           0000000180034200     libucrt:mbctype.obj
 0003:00002204       ?initialized@?1??__acrt_initialize_multibyte@@9@4_NA 0000000180034204     libucrt:mbctype.obj
 0003:00002240       ?ctrlc_action@@3V?$dual_state_global@P6AXH@Z@__crt_state_management@@A 0000000180034240     libucrt:signal.obj
 0003:00002248       ?ctrlbreak_action@@3V?$dual_state_global@P6AXH@Z@__crt_state_management@@A 0000000180034248     libucrt:signal.obj
 0003:00002250       ?abort_action@@3V?$dual_state_global@P6AXH@Z@__crt_state_management@@A 0000000180034250     libucrt:signal.obj
 0003:00002258       ?term_action@@3V?$dual_state_global@P6AXH@Z@__crt_state_management@@A 0000000180034258     libucrt:signal.obj
 0003:00002260       ?user_matherr@@3V?$dual_state_global@P6AHPEAU_exception@@@Z@__crt_state_management@@A 0000000180034260     libucrt:matherr.obj
 0003:00002268       ?__acrt_global_new_mode@@3V?$dual_state_global@J@__crt_state_management@@A 0000000180034268     libucrt:new_mode.obj
 0003:00002278       ?internal_pst@?1??__mbrtoc32_utf8@__crt_mbstring@@YA_KPEA_UPEBD_KPEAU_Mbstatet@@@Z@4U3@A 0000000180034278     libucrt:mbrtoc32.obj
 0003:00002280       ?__acrt_app_type@@3W4_crt_app_type@@A 0000000180034280     libucrt:report_runtime_error.obj
 0004:00000000       $pdata$?cw_memcpy@@YAHPEA_WPEBDH@Z 0000000180035000     CWString.obj
 0004:0000000c       $pdata$?cw_strcpy@@YAHPEA_WPEBD@Z 000000018003500c     CWString.obj
 0004:00000018       $pdata$?cw_dup@@YAXPEBDAEAHAEAPEA_W1@Z 0000000180035018     CWString.obj
 0004:00000024       $pdata$?DupWide@_CW@@AEAAXXZ 0000000180035024     CWString.obj
 0004:00000030       $pdata$?AtlWinModuleTerm@ATL@@YAJPEAU_ATL_WIN_MODULE70@1@PEAUHINSTANCE__@@@Z 0000000180035030     OposVariant.obj
 0004:0000003c       $pdata$??0CAtlComModule@ATL@@QEAA@XZ 000000018003503c     OposVariant.obj
 0004:00000048       $pdata$?Term@CAtlComModule@ATL@@QEAAXXZ 0000000180035048     OposVariant.obj
 0004:00000054       $pdata$??__E_AtlComModule@ATL@@YAXXZ 0000000180035054     OposVariant.obj
 0004:00000060       $pdata$??0CAtlWinModule@ATL@@QEAA@XZ 0000000180035060     OposVariant.obj
 0004:0000006c       $pdata$??__E_AtlWinModule@ATL@@YAXXZ 000000018003506c     OposVariant.obj
 0004:00000078       $pdata$??__F_AtlWinModule@ATL@@YAXXZ 0000000180035078     OposVariant.obj
 0004:00000084       $pdata$??_Estringdispid@CComTypeInfoHolder@ATL@@QEAAPEAXI@Z 0000000180035084     OposVariant.obj
 0004:00000090       $pdata$?SetVARIANT_BOOL@OposVariant@@QEAAXF@Z 0000000180035090     OposVariant.obj
 0004:0000009c       $pdata$?GetLONG@OposVariant@@QEAAJXZ 000000018003509c     OposVariant.obj
 0004:000000a8       $pdata$?ChangeLONG@OposVariant@@QEAAXPEAJAEAJ@Z 00000001800350a8     OposVariant.obj
 0004:000000b4       $pdata$?SetLONG@OposVariant@@QEAAXJ@Z 00000001800350b4     OposVariant.obj
 0004:000000c0       $pdata$?SetLONG_Ptr@OposVariant@@QEAAXPEAJAEAJ@Z 00000001800350c0     OposVariant.obj
 0004:000000cc       $pdata$?ChangeBSTR@OposVariant@@QEAAXPEAPEA_WAEAJ@Z 00000001800350cc     OposVariant.obj
 0004:000000d8       $pdata$?SetBSTR@OposVariant@@QEAAXPEA_WAEAJ@Z 00000001800350d8     OposVariant.obj
 0004:000000e4       $pdata$?SetBSTR_Copy@OposVariant@@QEAAXPEA_WAEAJ@Z 00000001800350e4     OposVariant.obj
 0004:000000f0       $pdata$?SetBSTR_InOutPtr@OposVariant@@QEAA_NPEAPEA_WAEAJ@Z 00000001800350f0     OposVariant.obj
 0004:000000fc       $pdata$?SetString@OposVariant@@QEAAXPEB_WAEAJ@Z 00000001800350fc     OposVariant.obj
 0004:00000108       $pdata$?SetDispatch_Ptr@OposVariant@@QEAAXPEAUIDispatch@@AEAJ@Z 0000000180035108     OposVariant.obj
 0004:00000114       $pdata$??0OposDispParms@@QEAA@PEAVOposVariant@@H@Z 0000000180035114     OposVariant.obj
 0004:00000120       $pdata$??1OposDispParms@@QEAA@XZ 0000000180035120     OposVariant.obj
 0004:0000012c       $pdata$?AtlThrowImpl@ATL@@YAXJ@Z 000000018003512c     CheckScanner.obj
 0004:00000138       $pdata$swprintf_s          0000000180035138     CheckScanner.obj
 0004:00000144       $pdata$?_AtlVerifyStackAvailable@_ATL_SAFE_ALLOCA_IMPL@ATL@@YA_N_K@Z 0000000180035144     CheckScanner.obj
 0004:00000150       $pdata$?filt$0@?0??_AtlVerifyStackAvailable@_ATL_SAFE_ALLOCA_IMPL@ATL@@YA_N_K@Z@4HA 0000000180035150     CheckScanner.obj
 0004:0000015c       $pdata$?ocscpy_s@@YA_NPEA_W_KPEB_W@Z 000000018003515c     CheckScanner.obj
 0004:00000168       $pdata$?AtlHresultFromLastError@ATL@@YAJXZ 0000000180035168     CheckScanner.obj
 0004:00000174       $pdata$?AtlInternalOleLoadFromStream@ATL@@YAJPEAUIStream@@AEBU_GUID@@PEAPEAXTClassesAllowedInStream@1@K@Z 0000000180035174     CheckScanner.obj
 0004:00000180       $pdata$?ReadFromStream@CComBSTR@ATL@@QEAAJPEAUIStream@@@Z 0000000180035180     CheckScanner.obj
 0004:0000018c       $pdata$?WriteToStream@CComVariant@ATL@@QEAAJPEAUIStream@@@Z 000000018003518c     CheckScanner.obj
 0004:00000198       $pdata$?WriteToStream@CComVariant@ATL@@QEAAJPEAUIStream@@G@Z 0000000180035198     CheckScanner.obj
 0004:000001a4       $pdata$?ReadFromStream@CComVariant@ATL@@QEAAJPEAUIStream@@GTClassesAllowedInStream@2@K@Z 00000001800351a4     CheckScanner.obj
 0004:000001b0       $pdata$?GetSizeMax@CComVariant@ATL@@QEBAJPEAT_ULARGE_INTEGER@@@Z 00000001800351b0     CheckScanner.obj
 0004:000001bc       $pdata$?RegCreateKeyExW@CAtlTransactionManager@ATL@@QEAAJPEAUHKEY__@@PEB_WKPEA_WKKQEAU_SECURITY_ATTRIBUTES@@PEAPEAU3@PEAK@Z 00000001800351bc     CheckScanner.obj
 0004:000001c8       $pdata$?RegOpenKeyExW@CAtlTransactionManager@ATL@@QEAAJPEAUHKEY__@@PEB_WKKPEAPEAU3@@Z 00000001800351c8     CheckScanner.obj
 0004:000001d4       $pdata$?RegDeleteKeyW@CAtlTransactionManager@ATL@@QEAAJPEAUHKEY__@@PEB_W@Z 00000001800351d4     CheckScanner.obj
 0004:000001e0       $pdata$?Add@?$CSimpleArray@GV?$CSimpleArrayEqualHelper@G@ATL@@@ATL@@QEAAHAEBG@Z 00000001800351e0     CheckScanner.obj
 0004:000001ec       $pdata$?AtlInternalQueryInterface@ATL@@YAJPEAXPEBU_ATL_INTMAP_ENTRY@1@AEBU_GUID@@PEAPEAX@Z 00000001800351ec     CheckScanner.obj
 0004:000001f8       $pdata$?AtlComModuleGetClassObject@ATL@@YAJPEAU_ATL_COM_MODULE70@1@AEBU_GUID@@1PEAPEAX@Z 00000001800351f8     CheckScanner.obj
 0004:00000204       $pdata$?AtlRegisterClassCategoriesHelper@ATL@@YAJAEBU_GUID@@PEBU_ATL_CATMAP_ENTRY@1@H@Z 0000000180035204     CheckScanner.obj
 0004:00000210       $pdata$?AtlLoadTypeLib@ATL@@YAJPEAUHINSTANCE__@@PEB_WPEAPEA_WPEAPEAUITypeLib@@@Z 0000000180035210     CheckScanner.obj
 0004:0000021c       $pdata$?AtlRegisterTypeLib@ATL@@YAJPEAUHINSTANCE__@@PEB_W@Z 000000018003521c     CheckScanner.obj
 0004:00000228       $pdata$?AtlUnRegisterTypeLib@ATL@@YAJPEAUHINSTANCE__@@PEB_W@Z 0000000180035228     CheckScanner.obj
 0004:00000234       $pdata$?AtlComModuleRegisterServer@ATL@@YAJPEAU_ATL_COM_MODULE70@1@HPEBU_GUID@@@Z 0000000180035234     CheckScanner.obj
 0004:00000240       $pdata$?AtlComModuleUnregisterServer@ATL@@YAJPEAU_ATL_COM_MODULE70@1@HPEBU_GUID@@@Z 0000000180035240     CheckScanner.obj
 0004:0000024c       $pdata$?AtlWinModuleExtractCreateWndData@ATL@@YAPEAXPEAU_ATL_WIN_MODULE70@1@@Z 000000018003524c     CheckScanner.obj
 0004:00000258       $pdata$?DeleteSubKey@CRegKey@ATL@@QEAAJPEB_W@Z 0000000180035258     CheckScanner.obj
 0004:00000264       $pdata$?RecurseDeleteKey@CRegKey@ATL@@QEAAJPEB_W@Z 0000000180035264     CheckScanner.obj
 0004:00000270       $pdata$??0CAtlModule@ATL@@QEAA@XZ 0000000180035270     CheckScanner.obj
 0004:0000027c       $pdata$?Term@CAtlModule@ATL@@QEAAXXZ 000000018003527c     CheckScanner.obj
 0004:00000288       $pdata$?AddTermFunc@CAtlModule@ATL@@QEAAJP6AX_K@Z0@Z 0000000180035288     CheckScanner.obj
 0004:00000294       $pdata$?GetGITPtr@CAtlModule@ATL@@UEAAJPEAPEAUIGlobalInterfaceTable@@@Z 0000000180035294     CheckScanner.obj
 0004:000002a0       $pdata$?UpdateRegistryFromResource@CAtlModule@ATL@@QEAAJPEB_WHPEAU_ATL_REGMAP_ENTRY@2@@Z 00000001800352a0     CheckScanner.obj
 0004:000002ac       $pdata$?UpdateRegistryFromResource@CAtlModule@ATL@@QEAAJIHPEAU_ATL_REGMAP_ENTRY@2@@Z 00000001800352ac     CheckScanner.obj
 0004:000002b8       $pdata$?Term@CComModule@ATL@@QEAAXXZ 00000001800352b8     CheckScanner.obj
 0004:000002c4       $pdata$?GetClassObject@CComModule@ATL@@QEAAJAEBU_GUID@@0PEAPEAX@Z 00000001800352c4     CheckScanner.obj
 0004:000002d0       $pdata$?RegisterServer@CComModule@ATL@@QEAAJHPEBU_GUID@@@Z 00000001800352d0     CheckScanner.obj
 0004:000002dc       $pdata$?UnregisterServer@CComModule@ATL@@QEAAJHPEBU_GUID@@@Z 00000001800352dc     CheckScanner.obj
 0004:000002e8       $pdata$??_GCComModule@ATL@@UEAAPEAXI@Z 00000001800352e8     CheckScanner.obj
 0004:000002f4       $pdata$?Add@?$CSimpleMap@PEA_WPEA_WVCExpansionVectorEqualHelper@ATL@@@ATL@@QEAAHAEBQEA_W0@Z 00000001800352f4     CheckScanner.obj
 0004:00000300       $pdata$?Lookup@?$CSimpleMap@PEA_WPEA_WVCExpansionVectorEqualHelper@ATL@@@ATL@@QEBAPEA_WAEBQEA_W@Z 0000000180035300     CheckScanner.obj
 0004:0000030c       $pdata$?Add@CExpansionVector@ATL@@QEAAHPEB_W0@Z 000000018003530c     CheckScanner.obj
 0004:00000318       $pdata$?ClearReplacements@CExpansionVector@ATL@@QEAAJXZ 0000000180035318     CheckScanner.obj
 0004:00000324       $pdata$?PreProcessBuffer@CRegParser@ATL@@QEAAJPEA_WPEAPEA_W@Z 0000000180035324     CheckScanner.obj
 0004:00000330       $pdata$?RegisterBuffer@CRegParser@ATL@@QEAAJPEA_WH@Z 0000000180035330     CheckScanner.obj
 0004:0000033c       $pdata$?NextToken@CRegParser@ATL@@IEAAJPEA_W@Z 000000018003533c     CheckScanner.obj
 0004:00000348       $pdata$?AddValue@CRegParser@ATL@@IEAAJAEAVCRegKey@2@PEB_WPEA_W@Z 0000000180035348     CheckScanner.obj
 0004:00000354       $pdata$?RegisterSubkeys@CRegParser@ATL@@IEAAJPEA_WPEAUHKEY__@@HH@Z 0000000180035354     CheckScanner.obj
 0004:00000360       $pdata$?SkipAssignment@CRegParser@ATL@@IEAAJPEA_W@Z 0000000180035360     CheckScanner.obj
 0004:0000036c       $pdata$?HKeyFromString@CRegParser@ATL@@KAPEAUHKEY__@@PEA_W@Z 000000018003536c     CheckScanner.obj
 0004:00000378       $pdata$?VTFromRegType@CRegParser@ATL@@KAHPEB_WAEAG@Z 0000000180035378     CheckScanner.obj
 0004:00000384       $pdata$?Append@CParseBuffer@CRegParser@ATL@@QEAAHPEB_WH@Z 0000000180035384     CheckScanner.obj
 0004:00000390       $pdata$?AddReplacement@CRegObject@ATL@@UEAAJPEB_W0@Z 0000000180035390     CheckScanner.obj
 0004:0000039c       $pdata$?RegisterFromResource@CRegObject@ATL@@IEAAJPEB_W00H@Z 000000018003539c     CheckScanner.obj
 0004:000003a8       $pdata$??_GCRegObject@ATL@@UEAAPEAXI@Z 00000001800353a8     CheckScanner.obj
 0004:000003b4       $pdata$?AllocateHeap@?$CTempBuffer@E$0BAA@VCCRTAllocator@ATL@@@ATL@@AEAAX_K@Z 00000001800353b4     CheckScanner.obj
 0004:000003b4       $pdata$?AllocateHeap@?$CTempBuffer@_W$0BAA@VCCRTAllocator@ATL@@@ATL@@AEAAX_K@Z 00000001800353b4     CheckScanner.obj
 0004:000003b4       $pdata$?AllocateHeap@?$CTempBuffer@_W$0EAA@VCCRTAllocator@ATL@@@ATL@@AEAAX_K@Z 00000001800353b4     CheckScanner.obj
 0004:000003c0       $pdata$?CreateInstance@CComClassFactory@ATL@@UEAAJPEAUIUnknown@@AEBU_GUID@@PEAPEAX@Z 00000001800353c0     CheckScanner.obj
 0004:000003cc       $pdata$?LockServer@CComClassFactory@ATL@@UEAAJH@Z 00000001800353cc     CheckScanner.obj
 0004:000003d8       $pdata$??_GCComClassFactory@ATL@@UEAAPEAXI@Z 00000001800353d8     CheckScanner.obj
 0004:000003e4       $pdata$?GetTI@CComTypeInfoHolder@ATL@@QEAAJK@Z 00000001800353e4     CheckScanner.obj
 0004:000003f0       $pdata$?Cleanup@CComTypeInfoHolder@ATL@@SAX_K@Z 00000001800353f0     CheckScanner.obj
 0004:000003fc       $pdata$?GetIDsOfNames@CComTypeInfoHolder@ATL@@QEAAJAEBU_GUID@@PEAPEA_WIKPEAJ@Z 00000001800353fc     CheckScanner.obj
 0004:00000408       $pdata$?LoadNameCache@CComTypeInfoHolder@ATL@@QEAAJPEAUITypeInfo@@@Z 0000000180035408     CheckScanner.obj
 0004:00000414       $pdata$?Add@CComDynamicUnkArray@ATL@@QEAAKPEAUIUnknown@@@Z 0000000180035414     CheckScanner.obj
 0004:00000420       $pdata$?AtlHiMetricToPixel@ATL@@YAXPEBUtagSIZE@@PEAU2@@Z 0000000180035420     CheckScanner.obj
 0004:0000042c       $pdata$?DefaultReflectionHandler@?$CWindowImplRoot@VCWindow@ATL@@@ATL@@SAHPEAUHWND__@@I_K_JAEA_J@Z 000000018003542c     CheckScanner.obj
 0004:00000438       $pdata$?StartWindowProc@?$CWindowImplBaseT@VCWindow@ATL@@V?$CWinTraits@$0FGAAAAAA@$0A@@2@@ATL@@SA_JPEAUHWND__@@I_K_J@Z 0000000180035438     CheckScanner.obj
 0004:00000444       $pdata$?WindowProc@?$CWindowImplBaseT@VCWindow@ATL@@V?$CWinTraits@$0FGAAAAAA@$0A@@2@@ATL@@SA_JPEAUHWND__@@I_K_J@Z 0000000180035444     CheckScanner.obj
 0004:00000450       $pdata$?atlCreate@?$CWindowImplBaseT@VCWindow@ATL@@V?$CWinTraits@$0FGAAAAAA@$0A@@2@@ATL@@QEAAPEAUHWND__@@PEAU3@V_U_RECT@2@PEB_WKKV_U_MENUorID@2@GPEAX@Z 0000000180035450     CheckScanner.obj
 0004:0000045c       $pdata$?IsEqualObject@?$CComPtrBase@UIOleClientSite@@@ATL@@QEAA_NPEAUIUnknown@@@Z 000000018003545c     CheckScanner.obj
 0004:00000468       $pdata$??$AtlModuleRegisterWndClassInfoT@VAtlModuleRegisterWndClassInfoParamW@ATL@@@ATL@@YAGPEAU_ATL_BASE_MODULE70@0@PEAU_ATL_WIN_MODULE70@0@PEAU_ATL_WNDCLASSINFOW@0@PEAP6A_JPEAUHWND__@@I_K_J@ZVAtlModuleRegisterWndClassInfoParamW@0@@Z 0000000180035468     CheckScanner.obj
 0004:00000474       $pdata$?GetZoomInfo@CComControlBase@ATL@@QEAAXAEAUATL_DRAWINFO@@@Z 0000000180035474     CheckScanner.obj
 0004:00000480       $pdata$?SendOnDataChange@CComControlBase@ATL@@QEAAJK@Z 0000000180035480     CheckScanner.obj
 0004:0000048c       $pdata$?OnSetFocus@CComControlBase@ATL@@QEAA_JI_K_JAEAH@Z 000000018003548c     CheckScanner.obj
 0004:00000498       $pdata$?OnKillFocus@CComControlBase@ATL@@QEAA_JI_K_JAEAH@Z 0000000180035498     CheckScanner.obj
 0004:000004a4       $pdata$?OnMouseActivate@CComControlBase@ATL@@QEAA_JI_K_JAEAH@Z 00000001800354a4     CheckScanner.obj
 0004:000004b0       $pdata$?GetAmbientLocaleID@CComControlBase@ATL@@QEAAJAEAK@Z 00000001800354b0     CheckScanner.obj
 0004:000004bc       $pdata$?GetAmbientUserMode@CComControlBase@ATL@@QEAAJAEAH@Z 00000001800354bc     CheckScanner.obj
 0004:000004c8       $pdata$?SetControlFocus@CComControlBase@ATL@@QEAAHH@Z 00000001800354c8     CheckScanner.obj
 0004:000004d4       $pdata$?IQuickActivate_QuickActivate@CComControlBase@ATL@@QEAAJPEAUtagQACONTAINER@@PEAUtagQACONTROL@@@Z 00000001800354d4     CheckScanner.obj
 0004:000004e0       $pdata$?DoVerbProperties@CComControlBase@ATL@@QEAAJPEBUtagRECT@@PEAUHWND__@@@Z 00000001800354e0     CheckScanner.obj
 0004:000004ec       $pdata$?InPlaceActivate@CComControlBase@ATL@@QEAAJJPEBUtagRECT@@@Z 00000001800354ec     CheckScanner.obj
 0004:000004f8       $pdata$?IOleObject_SetClientSite@CComControlBase@ATL@@QEAAJPEAUIOleClientSite@@@Z 00000001800354f8     CheckScanner.obj
 0004:00000504       $pdata$?IOleObject_Close@CComControlBase@ATL@@QEAAJK@Z 0000000180035504     CheckScanner.obj
 0004:00000510       $pdata$?IOleObject_SetExtent@CComControlBase@ATL@@QEAAJKPEAUtagSIZE@@@Z 0000000180035510     CheckScanner.obj
 0004:0000051c       $pdata$?IOleInPlaceObject_InPlaceDeactivate@CComControlBase@ATL@@QEAAJXZ 000000018003551c     CheckScanner.obj
 0004:00000528       $pdata$?IOleInPlaceObject_UIDeactivate@CComControlBase@ATL@@QEAAJXZ 0000000180035528     CheckScanner.obj
 0004:00000534       $pdata$?IOleInPlaceObject_SetObjectRects@CComControlBase@ATL@@QEAAJPEBUtagRECT@@0@Z 0000000180035534     CheckScanner.obj
 0004:00000540       $pdata$?IViewObject_Draw@CComControlBase@ATL@@QEAAJKJPEAXPEAUtagDVTARGETDEVICE@@PEAUHDC__@@2PEBU_RECTL@@3@Z 0000000180035540     CheckScanner.obj
 0004:0000054c       $pdata$?IDataObject_GetData@CComControlBase@ATL@@QEAAJPEAUtagFORMATETC@@PEAUtagSTGMEDIUM@@@Z 000000018003554c     CheckScanner.obj
 0004:00000558       $pdata$?FireViewChange@CComControlBase@ATL@@QEAAJXZ 0000000180035558     CheckScanner.obj
 0004:00000564       $pdata$?OnPaint@CComControlBase@ATL@@QEAA_JI_K_JAEAH@Z 0000000180035564     CheckScanner.obj
 0004:00000570       $pdata$?OnDrawAdvanced@CComControlBase@ATL@@UEAAJAEAUATL_DRAWINFO@@@Z 0000000180035570     CheckScanner.obj
 0004:0000057c       $pdata$?GetTypeInfo@?$IDispatchImpl@UIOPOSCheckScanner@@$1?IID_IOPOSCheckScanner@@3U_GUID@@B$1?LIBID_OposCheckScanner_CCO@@3U3@B$00$0A@VCComTypeInfoHolder@ATL@@@ATL@@UEAAJIKPEAPEAUITypeInfo@@@Z 000000018003557c     CheckScanner.obj
 0004:00000588       $pdata$?Invoke@?$IDispatchImpl@UIOPOSCheckScanner@@$1?IID_IOPOSCheckScanner@@3U_GUID@@B$1?LIBID_OposCheckScanner_CCO@@3U3@B$00$0A@VCComTypeInfoHolder@ATL@@@ATL@@UEAAJJAEBU_GUID@@KGPEAUtagDISPPARAMS@@PEAUtagVARIANT@@PEAUtagEXCEPINFO@@PEAI@Z 0000000180035588     CheckScanner.obj
 0004:00000594       $pdata$?atlCreate@?$CWindowImpl@VCOPOSCheckScanner@@VCWindow@ATL@@V?$CWinTraits@$0FGAAAAAA@$0A@@3@@ATL@@QEAAPEAUHWND__@@PEAU3@V_U_RECT@2@PEB_WKKV_U_MENUorID@2@PEAX@Z 0000000180035594     CheckScanner.obj
 0004:000005a0       $pdata$?CreateControlWindow@?$CComControl@VCOPOSCheckScanner@@V?$CWindowImpl@VCOPOSCheckScanner@@VCWindow@ATL@@V?$CWinTraits@$0FGAAAAAA@$0A@@3@@ATL@@@ATL@@UEAAPEAUHWND__@@PEAU3@AEAUtagRECT@@@Z 00000001800355a0     CheckScanner.obj
 0004:000005ac       $pdata$?ProcessWindowMessage@?$CComControl@VCOPOSCheckScanner@@V?$CWindowImpl@VCOPOSCheckScanner@@VCWindow@ATL@@V?$CWinTraits@$0FGAAAAAA@$0A@@3@@ATL@@@ATL@@UEAAHPEAUHWND__@@I_K_JAEA_JK@Z 00000001800355ac     CheckScanner.obj
 0004:000005b8       $pdata$?GetSizeMax@?$IPersistStreamInitImpl@VCOPOSCheckScanner@@@ATL@@UEAAJPEAT_ULARGE_INTEGER@@@Z 00000001800355b8     CheckScanner.obj
 0004:000005c4       $pdata$?IPersistStreamInit_Load@?$IPersistStreamInitImpl@VCOPOSCheckScanner@@@ATL@@QEAAJPEAUIStream@@PEBUATL_PROPMAP_ENTRY@2@@Z 00000001800355c4     CheckScanner.obj
 0004:000005d0       $pdata$?IPersistStreamInit_Save@?$IPersistStreamInitImpl@VCOPOSCheckScanner@@@ATL@@QEAAJPEAUIStream@@HPEBUATL_PROPMAP_ENTRY@2@@Z 00000001800355d0     CheckScanner.obj
 0004:000005dc       $pdata$?GetClientSite@?$IOleObjectImpl@VCOPOSCheckScanner@@@ATL@@UEAAJPEAPEAUIOleClientSite@@@Z 00000001800355dc     CheckScanner.obj
 0004:000005e8       $pdata$?DoVerbPrimary@?$IOleObjectImpl@VCOPOSCheckScanner@@@ATL@@QEAAJPEBUtagRECT@@PEAUHWND__@@@Z 00000001800355e8     CheckScanner.obj
 0004:000005f4       $pdata$?DoVerb@?$IOleObjectImpl@VCOPOSCheckScanner@@@ATL@@UEAAJJPEAUtagMSG@@PEAUIOleClientSite@@JPEAUHWND__@@PEBUtagRECT@@@Z 00000001800355f4     CheckScanner.obj
 0004:00000600       $pdata$?Advise@?$IOleObjectImpl@VCOPOSCheckScanner@@@ATL@@UEAAJPEAUIAdviseSink@@PEAK@Z 0000000180035600     CheckScanner.obj
 0004:0000060c       $pdata$?Unadvise@?$IOleObjectImpl@VCOPOSCheckScanner@@@ATL@@UEAAJK@Z 000000018003560c     CheckScanner.obj
 0004:00000618       $pdata$?EnumAdvise@?$IOleObjectImpl@VCOPOSCheckScanner@@@ATL@@UEAAJPEAPEAUIEnumSTATDATA@@@Z 0000000180035618     CheckScanner.obj
 0004:00000624       $pdata$?TranslateAcceleratorW@?$IOleInPlaceActiveObjectImpl@VCOPOSCheckScanner@@@ATL@@UEAAJPEAUtagMSG@@@Z 0000000180035624     CheckScanner.obj
 0004:00000630       $pdata$?OnDocWindowActivate@?$IOleInPlaceActiveObjectImpl@VCOPOSCheckScanner@@@ATL@@UEAAJH@Z 0000000180035630     CheckScanner.obj
 0004:0000063c       $pdata$?Draw@?$IViewObjectExImpl@VCOPOSCheckScanner@@@ATL@@UEAAJKJPEAXPEAUtagDVTARGETDEVICE@@PEAUHDC__@@2PEBU_RECTL@@3P6AH_K@Z4@Z 000000018003563c     CheckScanner.obj
 0004:00000648       $pdata$?SetAdvise@?$IViewObjectExImpl@VCOPOSCheckScanner@@@ATL@@UEAAJKKPEAUIAdviseSink@@@Z 0000000180035648     CheckScanner.obj
 0004:00000654       $pdata$?GetAdvise@?$IViewObjectExImpl@VCOPOSCheckScanner@@@ATL@@UEAAJPEAK0PEAPEAUIAdviseSink@@@Z 0000000180035654     CheckScanner.obj
 0004:00000660       $pdata$?QueryHitPoint@?$IViewObjectExImpl@VCOPOSCheckScanner@@@ATL@@UEAAJKPEBUtagRECT@@UtagPOINT@@JPEAK@Z 0000000180035660     CheckScanner.obj
 0004:0000066c       $pdata$?QueryHitRect@?$IViewObjectExImpl@VCOPOSCheckScanner@@@ATL@@UEAAJKPEBUtagRECT@@0JPEAK@Z 000000018003566c     CheckScanner.obj
 0004:00000678       $pdata$?OnWindowMessage@?$IOleInPlaceObjectWindowlessImpl@VCOPOSCheckScanner@@@ATL@@UEAAJI_K_JPEA_J@Z 0000000180035678     CheckScanner.obj
 0004:00000684       $pdata$?EnumConnectionPoints@?$IConnectionPointContainerImpl@VCOPOSCheckScanner@@@ATL@@UEAAJPEAPEAUIEnumConnectionPoints@@@Z 0000000180035684     CheckScanner.obj
 0004:00000690       $pdata$?FindConnectionPoint@?$IConnectionPointContainerImpl@VCOPOSCheckScanner@@@ATL@@UEAAJAEBU_GUID@@PEAPEAUIConnectionPoint@@@Z 0000000180035690     CheckScanner.obj
 0004:0000069c       $pdata$?IsDirty@?$IPersistStorageImpl@VCOPOSCheckScanner@@@ATL@@UEAAJXZ 000000018003569c     CheckScanner.obj
 0004:000006a8       $pdata$?InitNew@?$IPersistStorageImpl@VCOPOSCheckScanner@@@ATL@@UEAAJPEAUIStorage@@@Z 00000001800356a8     CheckScanner.obj
 0004:000006b4       $pdata$?Load@?$IPersistStorageImpl@VCOPOSCheckScanner@@@ATL@@UEAAJPEAUIStorage@@@Z 00000001800356b4     CheckScanner.obj
 0004:000006c0       $pdata$?Save@?$IPersistStorageImpl@VCOPOSCheckScanner@@@ATL@@UEAAJPEAUIStorage@@H@Z 00000001800356c0     CheckScanner.obj
 0004:000006cc       $pdata$?IPSI_GetIPersistStreamInit@?$IPersistStorageImpl@VCOPOSCheckScanner@@@ATL@@AEAAPEAUIPersistStreamInit@@XZ 00000001800356cc     CheckScanner.obj
 0004:000006d8       $pdata$?GetPagesHelper@?$ISpecifyPropertyPagesImpl@VCOPOSCheckScanner@@@ATL@@IEAAJPEAUtagCAUUID@@PEBUATL_PROPMAP_ENTRY@2@@Z 00000001800356d8     CheckScanner.obj
 0004:000006e4       $pdata$?DAdvise@?$IDataObjectImpl@VCOPOSCheckScanner@@@ATL@@UEAAJPEAUtagFORMATETC@@KPEAUIAdviseSink@@PEAK@Z 00000001800356e4     CheckScanner.obj
 0004:000006f0       $pdata$?GetClassInfoW@?$IProvideClassInfo2Impl@$1?CLSID_OPOSCheckScanner@@3U_GUID@@B$1?DIID__IOPOSCheckScannerEvents@@3U2@B$1?LIBID_OposCheckScanner_CCO@@3U2@B$00$0A@VCComTypeInfoHolder@ATL@@@ATL@@UEAAJPEAPEAUITypeInfo@@@Z 00000001800356f0     CheckScanner.obj
 0004:000006fc       $pdata$?GetInterfaceSafetyOptions@?$IObjectSafetyImpl@VCOPOSCheckScanner@@$02@ATL@@UEAAJAEBU_GUID@@PEAK1@Z 00000001800356fc     CheckScanner.obj
 0004:00000708       $pdata$?SetInterfaceSafetyOptions@?$IObjectSafetyImpl@VCOPOSCheckScanner@@$02@ATL@@UEAAJAEBU_GUID@@KK@Z 0000000180035708     CheckScanner.obj
 0004:00000714       $pdata$?_LocCPQueryInterface@?$IConnectionPointImpl@VCOPOSCheckScanner@@$1?DIID__IOPOSCheckScannerEvents@@3U_GUID@@BVCComDynamicUnkArray@ATL@@@ATL@@UEAAJAEBU_GUID@@PEAPEAX@Z 0000000180035714     CheckScanner.obj
 0004:00000714       $pdata$?_LocCPQueryInterface@?$IConnectionPointImpl@VCOPOSCheckScanner@@$1?IID_IPropertyNotifySink@@3U_GUID@@BVCComDynamicUnkArray@ATL@@@ATL@@UEAAJAEBU_GUID@@PEAPEAX@Z 0000000180035714     CheckScanner.obj
 0004:00000720       $pdata$?Advise@?$IConnectionPointImpl@VCOPOSCheckScanner@@$1?DIID__IOPOSCheckScannerEvents@@3U_GUID@@BVCComDynamicUnkArray@ATL@@@ATL@@UEAAJPEAUIUnknown@@PEAK@Z 0000000180035720     CheckScanner.obj
 0004:00000720       $pdata$?Advise@?$IConnectionPointImpl@VCOPOSCheckScanner@@$1?IID_IPropertyNotifySink@@3U_GUID@@BVCComDynamicUnkArray@ATL@@@ATL@@UEAAJPEAUIUnknown@@PEAK@Z 0000000180035720     CheckScanner.obj
 0004:0000072c       $pdata$?Unadvise@?$IConnectionPointImpl@VCOPOSCheckScanner@@$1?DIID__IOPOSCheckScannerEvents@@3U_GUID@@BVCComDynamicUnkArray@ATL@@@ATL@@UEAAJK@Z 000000018003572c     CheckScanner.obj
 0004:0000072c       $pdata$?Unadvise@?$IConnectionPointImpl@VCOPOSCheckScanner@@$1?IID_IPropertyNotifySink@@3U_GUID@@BVCComDynamicUnkArray@ATL@@@ATL@@UEAAJK@Z 000000018003572c     CheckScanner.obj
 0004:00000738       $pdata$?EnumConnections@?$IConnectionPointImpl@VCOPOSCheckScanner@@$1?DIID__IOPOSCheckScannerEvents@@3U_GUID@@BVCComDynamicUnkArray@ATL@@@ATL@@UEAAJPEAPEAUIEnumConnections@@@Z 0000000180035738     CheckScanner.obj
 0004:00000738       $pdata$?EnumConnections@?$IConnectionPointImpl@VCOPOSCheckScanner@@$1?IID_IPropertyNotifySink@@3U_GUID@@BVCComDynamicUnkArray@ATL@@@ATL@@UEAAJPEAPEAUIEnumConnections@@@Z 0000000180035738     CheckScanner.obj
 0004:00000744       $pdata$?Fire_DataEvent@?$CProxy_IOPOSEvents@VCOPOSCheckScanner@@@@QEAAXJ@Z 0000000180035744     CheckScanner.obj
 0004:00000750       $pdata$?Fire_DirectIOEvent@?$CProxy_IOPOSEvents@VCOPOSCheckScanner@@@@QEAAXJPEAJPEAPEA_W@Z 0000000180035750     CheckScanner.obj
 0004:0000075c       $pdata$?Fire_ErrorEvent@?$CProxy_IOPOSEvents@VCOPOSCheckScanner@@@@QEAAXJJJPEAJ@Z 000000018003575c     CheckScanner.obj
 0004:00000768       $pdata$?Fire_StatusUpdateEvent@?$CProxy_IOPOSEvents@VCOPOSCheckScanner@@@@QEAAXJ@Z 0000000180035768     CheckScanner.obj
 0004:00000774       $pdata$?FireTheEvent@?$CProxy_IOPOSEvents@VCOPOSCheckScanner@@@@IEAAXPEAVOposVariant@@IAEAJPEB_WJ@Z 0000000180035774     CheckScanner.obj
 0004:00000780       $pdata$?GetConnMap@COPOSCheckScanner@@SAPEBU_ATL_CONNMAP_ENTRY@ATL@@PEAH@Z 0000000180035780     CheckScanner.obj
 0004:0000078c       $pdata$?ProcessWindowMessage@COPOSCheckScanner@@UEAAHPEAUHWND__@@I_K_JAEA_JK@Z 000000018003578c     CheckScanner.obj
 0004:00000798       $pdata$?SOData@COPOSCheckScanner@@MEAAJJ@Z 0000000180035798     CheckScanner.obj
 0004:000007a4       $pdata$?SODirectIO@COPOSCheckScanner@@MEAAJJPEAJPEAPEA_W@Z 00000001800357a4     CheckScanner.obj
 0004:000007b0       $pdata$?SOError@COPOSCheckScanner@@MEAAJJJJPEAJ@Z 00000001800357b0     CheckScanner.obj
 0004:000007bc       $pdata$?SOStatusUpdate@COPOSCheckScanner@@MEAAJJ@Z 00000001800357bc     CheckScanner.obj
 0004:000007c8       $pdata$?DoEvent@COPOSCheckScanner@@IEAAXI_K_J@Z 00000001800357c8     CheckScanner.obj
 0004:000007d4       $pdata$??__E_Module@@YAXXZ 00000001800357d4     CheckScanner.obj
 0004:000007e0       $pdata$?CreateInstance@?$CComCreator@V?$CComObjectCached@VCComClassFactory@ATL@@@ATL@@@ATL@@SAJPEAXAEBU_GUID@@PEAPEAX@Z 00000001800357e0     CheckScanner.obj
 0004:000007ec       $pdata$DllMain             00000001800357ec     CheckScanner.obj
 0004:000007f8       $pdata$?CreateInstance@?$CComCreator@V?$CComObject@VCOPOSCheckScanner@@@ATL@@@ATL@@SAJPEAXAEBU_GUID@@PEAPEAX@Z 00000001800357f8     CheckScanner.obj
 0004:00000804       $pdata$?CreateInstance@?$CComCreator@V?$CComAggObject@VCOPOSCheckScanner@@@ATL@@@ATL@@SAJPEAXAEBU_GUID@@PEAPEAX@Z 0000000180035804     CheckScanner.obj
 0004:00000810       $pdata$?AddRef@?$CComObjectCached@VCComClassFactory@ATL@@@ATL@@UEAAKXZ 0000000180035810     CheckScanner.obj
 0004:0000081c       $pdata$?Release@?$CComObjectCached@VCComClassFactory@ATL@@@ATL@@UEAAKXZ 000000018003581c     CheckScanner.obj
 0004:00000828       $pdata$??_G?$CComObjectCached@VCComClassFactory@ATL@@@ATL@@UEAAPEAXI@Z 0000000180035828     CheckScanner.obj
 0004:00000834       $pdata$??1?$CComEnumImpl@UIEnumConnectionPoints@@$1?_GUID_b196b285_bab4_101a_b69c_00aa00341d07@@3U__s_GUID@@BPEAUIConnectionPoint@@V?$_CopyInterface@UIConnectionPoint@@@ATL@@@ATL@@UEAA@XZ 0000000180035834     CheckScanner.obj
 0004:00000840       $pdata$?Next@?$CComEnumImpl@UIEnumConnectionPoints@@$1?_GUID_b196b285_bab4_101a_b69c_00aa00341d07@@3U__s_GUID@@BPEAUIConnectionPoint@@V?$_CopyInterface@UIConnectionPoint@@@ATL@@@ATL@@UEAAJKPEAPEAUIConnectionPoint@@PEAK@Z 0000000180035840     CheckScanner.obj
 0004:0000084c       $pdata$?Clone@?$CComEnumImpl@UIEnumConnectionPoints@@$1?_GUID_b196b285_bab4_101a_b69c_00aa00341d07@@3U__s_GUID@@BPEAUIConnectionPoint@@V?$_CopyInterface@UIConnectionPoint@@@ATL@@@ATL@@UEAAJPEAPEAUIEnumConnectionPoints@@@Z 000000018003584c     CheckScanner.obj
 0004:00000858       $pdata$?Init@?$CComEnumImpl@UIEnumConnectionPoints@@$1?_GUID_b196b285_bab4_101a_b69c_00aa00341d07@@3U__s_GUID@@BPEAUIConnectionPoint@@V?$_CopyInterface@UIConnectionPoint@@@ATL@@@ATL@@QEAAJPEAPEAUIConnectionPoint@@0PEAUIUnknown@@W4CComEnumFlags@2@@Z 0000000180035858     CheckScanner.obj
 0004:00000864       $pdata$?Release@?$CComObject@V?$CComEnum@UIEnumConnectionPoints@@$1?_GUID_b196b285_bab4_101a_b69c_00aa00341d07@@3U__s_GUID@@BPEAUIConnectionPoint@@V?$_CopyInterface@UIConnectionPoint@@@ATL@@VCComSingleThreadModel@6@@ATL@@@ATL@@UEAAKXZ 0000000180035864     CheckScanner.obj
 0004:00000864       $pdata$?Release@?$CComObject@V?$CComEnum@UIEnumConnections@@$1?_GUID_b196b287_bab4_101a_b69c_00aa00341d07@@3U__s_GUID@@BUtagCONNECTDATA@@V?$_Copy@UtagCONNECTDATA@@@ATL@@VCComSingleThreadModel@6@@ATL@@@ATL@@UEAAKXZ 0000000180035864     CheckScanner.obj
 0004:00000870       $pdata$?CreateInstance@?$CComObject@V?$CComEnum@UIEnumConnectionPoints@@$1?_GUID_b196b285_bab4_101a_b69c_00aa00341d07@@3U__s_GUID@@BPEAUIConnectionPoint@@V?$_CopyInterface@UIConnectionPoint@@@ATL@@VCComSingleThreadModel@6@@ATL@@@ATL@@SAJPEAPEAV12@@Z 0000000180035870     CheckScanner.obj
 0004:0000087c       $pdata$??_G?$CComObject@V?$CComEnum@UIEnumConnectionPoints@@$1?_GUID_b196b285_bab4_101a_b69c_00aa00341d07@@3U__s_GUID@@BPEAUIConnectionPoint@@V?$_CopyInterface@UIConnectionPoint@@@ATL@@VCComSingleThreadModel@6@@ATL@@@ATL@@UEAAPEAXI@Z 000000018003587c     CheckScanner.obj
 0004:00000888       $pdata$?Release@?$CComAggObject@VCOPOSCheckScanner@@@ATL@@UEAAKXZ 0000000180035888     CheckScanner.obj
 0004:00000894       $pdata$?QueryInterface@?$CComAggObject@VCOPOSCheckScanner@@@ATL@@UEAAJAEBU_GUID@@PEAPEAX@Z 0000000180035894     CheckScanner.obj
 0004:000008a0       $pdata$??0?$CComContainedObject@VCOPOSCheckScanner@@@ATL@@QEAA@PEAX@Z 00000001800358a0     CheckScanner.obj
 0004:000008ac       $pdata$??_G?$CComContainedObject@VCOPOSCheckScanner@@@ATL@@UEAAPEAXI@Z 00000001800358ac     CheckScanner.obj
 0004:000008b8       $pdata$??_G?$CComAggObject@VCOPOSCheckScanner@@@ATL@@UEAAPEAXI@Z 00000001800358b8     CheckScanner.obj
 0004:000008c4       $pdata$??0?$CComObject@VCOPOSCheckScanner@@@ATL@@QEAA@PEAX@Z 00000001800358c4     CheckScanner.obj
 0004:000008d0       $pdata$??1?$CComObject@VCOPOSCheckScanner@@@ATL@@UEAA@XZ 00000001800358d0     CheckScanner.obj
 0004:000008dc       $pdata$?Release@?$CComObject@VCOPOSCheckScanner@@@ATL@@UEAAKXZ 00000001800358dc     CheckScanner.obj
 0004:000008e8       $pdata$??_G?$CComObject@VCOPOSCheckScanner@@@ATL@@UEAAPEAXI@Z 00000001800358e8     CheckScanner.obj
 0004:000008f4       $pdata$??__E?pConnMap@?$IConnectionPointContainerImpl@VCOPOSCheckScanner@@@ATL@@0PEBU_ATL_CONNMAP_ENTRY@2@EB@@YAXXZ 00000001800358f4     CheckScanner.obj
 0004:00000900       $pdata$??1?$CComEnumImpl@UIEnumConnections@@$1?_GUID_b196b287_bab4_101a_b69c_00aa00341d07@@3U__s_GUID@@BUtagCONNECTDATA@@V?$_Copy@UtagCONNECTDATA@@@ATL@@@ATL@@UEAA@XZ 0000000180035900     CheckScanner.obj
 0004:0000090c       $pdata$?Next@?$CComEnumImpl@UIEnumConnections@@$1?_GUID_b196b287_bab4_101a_b69c_00aa00341d07@@3U__s_GUID@@BUtagCONNECTDATA@@V?$_Copy@UtagCONNECTDATA@@@ATL@@@ATL@@UEAAJKPEAUtagCONNECTDATA@@PEAK@Z 000000018003590c     CheckScanner.obj
 0004:00000918       $pdata$?Clone@?$CComEnumImpl@UIEnumConnections@@$1?_GUID_b196b287_bab4_101a_b69c_00aa00341d07@@3U__s_GUID@@BUtagCONNECTDATA@@V?$_Copy@UtagCONNECTDATA@@@ATL@@@ATL@@UEAAJPEAPEAUIEnumConnections@@@Z 0000000180035918     CheckScanner.obj
 0004:00000924       $pdata$?Init@?$CComEnumImpl@UIEnumConnections@@$1?_GUID_b196b287_bab4_101a_b69c_00aa00341d07@@3U__s_GUID@@BUtagCONNECTDATA@@V?$_Copy@UtagCONNECTDATA@@@ATL@@@ATL@@QEAAJPEAUtagCONNECTDATA@@0PEAUIUnknown@@W4CComEnumFlags@2@@Z 0000000180035924     CheckScanner.obj
 0004:00000930       $pdata$?CreateInstance@?$CComObject@V?$CComEnum@UIEnumConnections@@$1?_GUID_b196b287_bab4_101a_b69c_00aa00341d07@@3U__s_GUID@@BUtagCONNECTDATA@@V?$_Copy@UtagCONNECTDATA@@@ATL@@VCComSingleThreadModel@6@@ATL@@@ATL@@SAJPEAPEAV12@@Z 0000000180035930     CheckScanner.obj
 0004:0000093c       $pdata$??_G?$CComObject@V?$CComEnum@UIEnumConnections@@$1?_GUID_b196b287_bab4_101a_b69c_00aa00341d07@@3U__s_GUID@@BUtagCONNECTDATA@@V?$_Copy@UtagCONNECTDATA@@@ATL@@VCComSingleThreadModel@6@@ATL@@@ATL@@UEAAPEAXI@Z 000000018003593c     CheckScanner.obj
 0004:00000948       $pdata$??1CComControlBase@ATL@@UEAA@XZ 0000000180035948     CheckScannerImpl.obj
 0004:00000954       $pdata$??1?$IConnectionPointImpl@VCOPOSCheckScanner@@$1?DIID__IOPOSCheckScannerEvents@@3U_GUID@@BVCComDynamicUnkArray@ATL@@@ATL@@QEAA@XZ 0000000180035954     CheckScannerImpl.obj
 0004:00000954       $pdata$??1?$IConnectionPointImpl@VCOPOSCheckScanner@@$1?IID_IPropertyNotifySink@@3U_GUID@@BVCComDynamicUnkArray@ATL@@@ATL@@QEAA@XZ 0000000180035954     CheckScannerImpl.obj
 0004:00000960       $pdata$?FinalConstruct@COPOSCheckScanner@@QEAAJXZ 0000000180035960     CheckScannerImpl.obj
 0004:0000096c       $pdata$??1COPOSCheckScanner@@UEAA@XZ 000000018003596c     CheckScannerImpl.obj
 0004:00000978       $pdata$?GetOposProp@COPOSCheckScanner@@IEAAJJPEAJJ@Z 0000000180035978     CheckScannerImpl.obj
 0004:00000984       $pdata$?SetOposProp@COPOSCheckScanner@@IEAAJJJJ@Z 0000000180035984     CheckScannerImpl.obj
 0004:00000990       $pdata$?GetOposProp@COPOSCheckScanner@@IEAAJJPEAPEA_WJ@Z 0000000180035990     CheckScannerImpl.obj
 0004:0000099c       $pdata$?SetOposProp@COPOSCheckScanner@@IEAAJJPEA_WJ@Z 000000018003599c     CheckScannerImpl.obj
 0004:000009a8       $pdata$?DoInvoke@COPOSCheckScanner@@IEAAJJPEAVOposVariant@@IHPEAJ_N@Z 00000001800359a8     CheckScannerImpl.obj
 0004:000009b4       $pdata$?SetCOFreezeEvents@COPOSCheckScanner@@IEAAXF@Z 00000001800359b4     CheckScannerImpl.obj
 0004:000009c0       $pdata$?FreezeEvents@COPOSCheckScanner@@MEAAJH@Z 00000001800359c0     CheckScannerImpl.obj
 0004:000009cc       $pdata$?OnDraw@COPOSCheckScanner@@MEAAJAEAUATL_DRAWINFO@@@Z 00000001800359cc     CheckScannerImpl.obj
 0004:000009d8       $pdata$?EventInit@COPOSCheckScanner@@IEAAJXZ 00000001800359d8     CheckScannerImpl.obj
 0004:000009e4       $pdata$?EventUninit@COPOSCheckScanner@@IEAAXXZ 00000001800359e4     CheckScannerImpl.obj
 0004:000009f0       $pdata$?s_EventWindowProc@COPOSCheckScanner@@KA_JPEAUHWND__@@I_K_J@Z 00000001800359f0     CheckScannerImpl.obj
 0004:000009fc       $pdata$?EventWindowProc@COPOSCheckScanner@@IEAA_JI_K_J@Z 00000001800359fc     CheckScannerImpl.obj
 0004:00000a08       $pdata$?SOProcessID@COPOSCheckScanner@@UEAAJPEAJ@Z 0000000180035a08     CheckScannerImpl.obj
 0004:00000a14       $pdata$?get_AutoDisable@COPOSCheckScanner@@UEAAJPEAF@Z 0000000180035a14     CheckScannerImpl.obj
 0004:00000a20       $pdata$?get_Claimed@COPOSCheckScanner@@UEAAJPEAF@Z 0000000180035a20     CheckScannerImpl.obj
 0004:00000a2c       $pdata$?get_DataEventEnabled@COPOSCheckScanner@@UEAAJPEAF@Z 0000000180035a2c     CheckScannerImpl.obj
 0004:00000a38       $pdata$?get_DeviceEnabled@COPOSCheckScanner@@UEAAJPEAF@Z 0000000180035a38     CheckScannerImpl.obj
 0004:00000a44       $pdata$?get_FreezeEvents@COPOSCheckScanner@@UEAAJPEAF@Z 0000000180035a44     CheckScannerImpl.obj
 0004:00000a50       $pdata$?put_FreezeEvents@COPOSCheckScanner@@UEAAJF@Z 0000000180035a50     CheckScannerImpl.obj
 0004:00000a5c       $pdata$?get_ResultCode@COPOSCheckScanner@@UEAAJPEAJ@Z 0000000180035a5c     CheckScannerImpl.obj
 0004:00000a68       $pdata$?get_State@COPOSCheckScanner@@UEAAJPEAJ@Z 0000000180035a68     CheckScannerImpl.obj
 0004:00000a74       $pdata$?get_ControlObjectDescription@COPOSCheckScanner@@UEAAJPEAPEA_W@Z 0000000180035a74     CheckScannerImpl.obj
 0004:00000a80       $pdata$?CheckHealth@COPOSCheckScanner@@UEAAJJPEAJ@Z 0000000180035a80     CheckScannerImpl.obj
 0004:00000a8c       $pdata$?ClaimDevice@COPOSCheckScanner@@UEAAJJPEAJ@Z 0000000180035a8c     CheckScannerImpl.obj
 0004:00000a98       $pdata$?ClearInput@COPOSCheckScanner@@UEAAJPEAJ@Z 0000000180035a98     CheckScannerImpl.obj
 0004:00000aa4       $pdata$?Close@COPOSCheckScanner@@UEAAJPEAJ@Z 0000000180035aa4     CheckScannerImpl.obj
 0004:00000ab0       $pdata$?DirectIO@COPOSCheckScanner@@UEAAJJPEAJPEAPEA_W0@Z 0000000180035ab0     CheckScannerImpl.obj
 0004:00000abc       $pdata$?Open@COPOSCheckScanner@@UEAAJPEA_WPEAJ@Z 0000000180035abc     CheckScannerImpl.obj
 0004:00000ac8       $pdata$?ReleaseDevice@COPOSCheckScanner@@UEAAJPEAJ@Z 0000000180035ac8     CheckScannerImpl.obj
 0004:00000ad4       $pdata$?get_CapAutoGenerateFileID@COPOSCheckScanner@@UEAAJPEAF@Z 0000000180035ad4     CheckScannerImpl.obj
 0004:00000ae0       $pdata$?get_CapAutoGenerateImageTagData@COPOSCheckScanner@@UEAAJPEAF@Z 0000000180035ae0     CheckScannerImpl.obj
 0004:00000aec       $pdata$?get_CapAutoSize@COPOSCheckScanner@@UEAAJPEAF@Z 0000000180035aec     CheckScannerImpl.obj
 0004:00000af8       $pdata$?get_CapConcurrentMICR@COPOSCheckScanner@@UEAAJPEAF@Z 0000000180035af8     CheckScannerImpl.obj
 0004:00000b04       $pdata$?get_CapDefineCropArea@COPOSCheckScanner@@UEAAJPEAF@Z 0000000180035b04     CheckScannerImpl.obj
 0004:00000b10       $pdata$?get_CapImageTagData@COPOSCheckScanner@@UEAAJPEAF@Z 0000000180035b10     CheckScannerImpl.obj
 0004:00000b1c       $pdata$?get_CapMICRDevice@COPOSCheckScanner@@UEAAJPEAF@Z 0000000180035b1c     CheckScannerImpl.obj
 0004:00000b28       $pdata$?get_CapStoreImageFiles@COPOSCheckScanner@@UEAAJPEAF@Z 0000000180035b28     CheckScannerImpl.obj
 0004:00000b34       $pdata$?get_CapValidationDevice@COPOSCheckScanner@@UEAAJPEAF@Z 0000000180035b34     CheckScannerImpl.obj
 0004:00000b40       $pdata$?get_ConcurrentMICR@COPOSCheckScanner@@UEAAJPEAF@Z 0000000180035b40     CheckScannerImpl.obj
 0004:00000b4c       $pdata$?BeginInsertion@COPOSCheckScanner@@UEAAJJPEAJ@Z 0000000180035b4c     CheckScannerImpl.obj
 0004:00000b58       $pdata$?BeginRemoval@COPOSCheckScanner@@UEAAJJPEAJ@Z 0000000180035b58     CheckScannerImpl.obj
 0004:00000b64       $pdata$?ClearImage@COPOSCheckScanner@@UEAAJJPEAJ@Z 0000000180035b64     CheckScannerImpl.obj
 0004:00000b70       $pdata$?DefineCropArea@COPOSCheckScanner@@UEAAJJJJJJPEAJ@Z 0000000180035b70     CheckScannerImpl.obj
 0004:00000b7c       $pdata$?EndInsertion@COPOSCheckScanner@@UEAAJPEAJ@Z 0000000180035b7c     CheckScannerImpl.obj
 0004:00000b88       $pdata$?EndRemoval@COPOSCheckScanner@@UEAAJPEAJ@Z 0000000180035b88     CheckScannerImpl.obj
 0004:00000b94       $pdata$?RetrieveImage@COPOSCheckScanner@@UEAAJJPEAJ@Z 0000000180035b94     CheckScannerImpl.obj
 0004:00000ba0       $pdata$?RetrieveMemory@COPOSCheckScanner@@UEAAJJPEAJ@Z 0000000180035ba0     CheckScannerImpl.obj
 0004:00000bac       $pdata$?StoreImage@COPOSCheckScanner@@UEAAJJPEAJ@Z 0000000180035bac     CheckScannerImpl.obj
 0004:00000bb8       $pdata$?get_CapStatisticsReporting@COPOSCheckScanner@@UEAAJPEAF@Z 0000000180035bb8     CheckScannerImpl.obj
 0004:00000bc4       $pdata$?get_CapUpdateStatistics@COPOSCheckScanner@@UEAAJPEAF@Z 0000000180035bc4     CheckScannerImpl.obj
 0004:00000bd0       $pdata$?ResetStatistics@COPOSCheckScanner@@UEAAJPEA_WPEAJ@Z 0000000180035bd0     CheckScannerImpl.obj
 0004:00000bdc       $pdata$?RetrieveStatistics@COPOSCheckScanner@@UEAAJPEAPEA_WPEAJ@Z 0000000180035bdc     CheckScannerImpl.obj
 0004:00000be8       $pdata$?UpdateStatistics@COPOSCheckScanner@@UEAAJPEA_WPEAJ@Z 0000000180035be8     CheckScannerImpl.obj
 0004:00000bf4       $pdata$?get_CapCompareFirmwareVersion@COPOSCheckScanner@@UEAAJPEAF@Z 0000000180035bf4     CheckScannerImpl.obj
 0004:00000c00       $pdata$?get_CapUpdateFirmware@COPOSCheckScanner@@UEAAJPEAF@Z 0000000180035c00     CheckScannerImpl.obj
 0004:00000c0c       $pdata$?CompareFirmwareVersion@COPOSCheckScanner@@UEAAJPEA_WPEAJ1@Z 0000000180035c0c     CheckScannerImpl.obj
 0004:00000c18       $pdata$?UpdateFirmware@COPOSCheckScanner@@UEAAJPEA_WPEAJ@Z 0000000180035c18     CheckScannerImpl.obj
 0004:00000c24       $pdata$?get_CapAutoContrast@COPOSCheckScanner@@UEAAJPEAF@Z 0000000180035c24     CheckScannerImpl.obj
 0004:00000c30       $pdata$?get_CapContrast@COPOSCheckScanner@@UEAAJPEAF@Z 0000000180035c30     CheckScannerImpl.obj
 0004:00000c3c       $pdata$?ClearInputProperties@COPOSCheckScanner@@UEAAJPEAJ@Z 0000000180035c3c     CheckScannerImpl.obj
 0004:00000c48       $pdata$atexit              0000000180035c48     LIBCMT:utility.obj
 0004:00000c54       $pdata$_onexit             0000000180035c54     LIBCMT:utility.obj
 0004:00000c60       $pdata$__scrt_is_nonwritable_in_current_image 0000000180035c60     LIBCMT:utility.obj
 0004:00000c6c       $pdata$__scrt_is_nonwritable_in_current_image$filt$0 0000000180035c6c     LIBCMT:utility.obj
 0004:00000c78       $pdata$__scrt_acquire_startup_lock 0000000180035c78     LIBCMT:utility.obj
 0004:00000c84       $pdata$__scrt_release_startup_lock 0000000180035c84     LIBCMT:utility.obj
 0004:00000c90       $pdata$__scrt_initialize_crt 0000000180035c90     LIBCMT:utility.obj
 0004:00000c9c       $pdata$__scrt_uninitialize_crt 0000000180035c9c     LIBCMT:utility.obj
 0004:00000ca8       $pdata$__scrt_initialize_onexit_tables 0000000180035ca8     LIBCMT:utility.obj
 0004:00000cb4       $pdata$__scrt_dllmain_exception_filter 0000000180035cb4     LIBCMT:utility.obj
 0004:00000cc0       $pdata$__scrt_dllmain_before_initialize_c 0000000180035cc0     LIBCMT:utility.obj
 0004:00000ccc       $pdata$__scrt_dllmain_after_initialize_c 0000000180035ccc     LIBCMT:utility.obj
 0004:00000cd8       $pdata$__scrt_dllmain_uninitialize_c 0000000180035cd8     LIBCMT:utility.obj
 0004:00000ce4       $pdata$__scrt_dllmain_uninitialize_critical 0000000180035ce4     LIBCMT:utility.obj
 0004:00000cf0       $pdata$__scrt_dllmain_crt_thread_attach 0000000180035cf0     LIBCMT:utility.obj
 0004:00000cfc       $pdata$__scrt_dllmain_crt_thread_detach 0000000180035cfc     LIBCMT:utility.obj
 0004:00000d08       $pdata$_Init_thread_header 0000000180035d08     LIBCMT:thread_safe_statics.obj
 0004:00000d14       $pdata$_Init_thread_footer 0000000180035d14     LIBCMT:thread_safe_statics.obj
 0004:00000d20       $pdata$_Init_thread_wait   0000000180035d20     LIBCMT:thread_safe_statics.obj
 0004:00000d2c       $pdata$_Init_thread_notify 0000000180035d2c     LIBCMT:thread_safe_statics.obj
 0004:00000d38       $pdata$?__scrt_uninitialize_thread_safe_statics@@YAXXZ 0000000180035d38     LIBCMT:thread_safe_statics.obj
 0004:00000d44       $pdata$?__scrt_initialize_thread_safe_statics@@YAHXZ 0000000180035d44     LIBCMT:thread_safe_statics.obj
 0004:00000d50       $pdata$__report_securityfailure 0000000180035d50     LIBCMT:gs_report.obj
 0004:00000d5c       $pdata$__report_rangecheckfailure 0000000180035d5c     LIBCMT:gs_report.obj
 0004:00000d68       $pdata$__report_gsfailure  0000000180035d68     LIBCMT:gs_report.obj
 0004:00000d74       $pdata$capture_current_context 0000000180035d74     LIBCMT:gs_report.obj
 0004:00000d80       $pdata$capture_previous_context 0000000180035d80     LIBCMT:gs_report.obj
 0004:00000d8c       $pdata$__raise_securityfailure 0000000180035d8c     LIBCMT:gs_report.obj
 0004:00000d98       $pdata$??2@YAPEAX_KAEBUnothrow_t@std@@@Z 0000000180035d98     LIBCMT:new_scalar_nothrow.obj
 0004:00000da4       $pdata$?catch$0@?0???2@YAPEAX_KAEBUnothrow_t@std@@@Z@4HA 0000000180035da4     LIBCMT:new_scalar_nothrow.obj
 0004:00000db0       $pdata$__GSHandlerCheckCommon 0000000180035db0     LIBCMT:gshandler.obj
 0004:00000dbc       $pdata$__GSHandlerCheck    0000000180035dbc     LIBCMT:gshandler.obj
 0004:00000dc8       $pdata$__GSHandlerCheck_SEH 0000000180035dc8     LIBCMT:gshandlerseh.obj
 0004:00000dec       $pdata$?dllmain_crt_process_attach@@YAHQEAUHINSTANCE__@@QEAX@Z 0000000180035dec     LIBCMT:dll_dllmain.obj
 0004:00000df8       $pdata$?fin$0@?0??dllmain_crt_process_attach@@YAHQEAUHINSTANCE__@@QEAX@Z@4HA 0000000180035df8     LIBCMT:dll_dllmain.obj
 0004:00000e04       $pdata$?dllmain_crt_process_detach@@YAH_N@Z 0000000180035e04     LIBCMT:dll_dllmain.obj
 0004:00000e10       $pdata$?fin$0@?0??dllmain_crt_process_detach@@YAH_N@Z@4HA 0000000180035e10     LIBCMT:dll_dllmain.obj
 0004:00000e1c       $pdata$?fin$1@?0??dllmain_crt_process_detach@@YAH_N@Z@4HA 0000000180035e1c     LIBCMT:dll_dllmain.obj
 0004:00000e28       $pdata$?dllmain_crt_dispatch@@YAHQEAUHINSTANCE__@@KQEAX@Z 0000000180035e28     LIBCMT:dll_dllmain.obj
 0004:00000e34       $pdata$?dllmain_dispatch@@YAHQEAUHINSTANCE__@@KQEAX@Z 0000000180035e34     LIBCMT:dll_dllmain.obj
 0004:00000e40       $pdata$?filt$0@?0??dllmain_dispatch@@YAHQEAUHINSTANCE__@@KQEAX@Z@4HA 0000000180035e40     LIBCMT:dll_dllmain.obj
 0004:00000e4c       $pdata$_DllMainCRTStartup  0000000180035e4c     LIBCMT:dll_dllmain.obj
 0004:00000e58       $pdata$??2@YAPEAX_K@Z      0000000180035e58     LIBCMT:new_scalar.obj
 0004:00000e64       $pdata$__isa_available_init 0000000180035e64     LIBCMT:cpu_disp.obj
 0004:00000e70       $pdata$__scrt_fastfail     0000000180035e70     LIBCMT:utility_desktop.obj
 0004:00000e7c       $pdata$__security_init_cookie 0000000180035e7c     LIBCMT:gs_support.obj
 0004:00000e88       $pdata$__scrt_initialize_default_local_stdio_options 0000000180035e88     LIBCMT:default_local_stdio_options.obj
 0004:00000e94       $pdata$_RTC_Initialize     0000000180035e94     LIBCMT:initsect.obj
 0004:00000ea0       $pdata$_RTC_Terminate      0000000180035ea0     LIBCMT:initsect.obj
 0004:00000eac       $pdata$??0exception@std@@QEAA@AEBV01@@Z 0000000180035eac     LIBCMT:throw_bad_alloc.obj
 0004:00000eb8       $pdata$??_Gbad_alloc@std@@UEAAPEAXI@Z 0000000180035eb8     LIBCMT:throw_bad_alloc.obj
 0004:00000eb8       $pdata$??_Gbad_array_new_length@std@@UEAAPEAXI@Z 0000000180035eb8     LIBCMT:throw_bad_alloc.obj
 0004:00000eb8       $pdata$??_Gexception@std@@UEAAPEAXI@Z 0000000180035eb8     LIBCMT:throw_bad_alloc.obj
 0004:00000eb8       $pdata$??_Gbad_exception@std@@UEAAPEAXI@Z 0000000180035eb8     libvcruntime:frame.obj
 0004:00000ec4       $pdata$??0bad_alloc@std@@QEAA@AEBV01@@Z 0000000180035ec4     LIBCMT:throw_bad_alloc.obj
 0004:00000ed0       $pdata$??0bad_array_new_length@std@@QEAA@AEBV01@@Z 0000000180035ed0     LIBCMT:throw_bad_alloc.obj
 0004:00000edc       $pdata$?__scrt_throw_std_bad_alloc@@YAXXZ 0000000180035edc     LIBCMT:throw_bad_alloc.obj
 0004:00000ee8       $pdata$?__scrt_throw_std_bad_array_new_length@@YAXXZ 0000000180035ee8     LIBCMT:throw_bad_alloc.obj
 0004:00000f0c       $pdata$??_Gtype_info@@UEAAPEAXI@Z 0000000180035f0c     LIBCMT:std_type_info_static.obj
 0004:00000f18       $pdata$??0CAtlBaseModule@ATL@@QEAA@XZ 0000000180035f18     atls:atlbase.obj
 0004:00000f24       $pdata$??1CAtlBaseModule@ATL@@QEAA@XZ 0000000180035f24     atls:atlbase.obj
 0004:00000f30       $pdata$??__E_AtlBaseModule@ATL@@YAXXZ 0000000180035f30     atls:atlbase.obj
 0004:00000f3c       $pdata$AtlThunk_AllocateData 0000000180035f3c     atls:atlthunk.obj
 0004:00000f48       $pdata$AtlThunk_InitData   0000000180035f48     atls:atlthunk.obj
 0004:00000f54       $pdata$AtlThunk_DataToCode 0000000180035f54     atls:atlthunk.obj
 0004:00000f60       $pdata$AtlThunk_FreeData   0000000180035f60     atls:atlthunk.obj
 0004:00000f6c       $pdata$?__InitializeThunkPool@@YAHXZ 0000000180035f6c     atls:atlthunk.obj
 0004:00000f78       $pdata$?__AllocStdCallThunk_cmn@@YAPEAXXZ 0000000180035f78     atls:atlthunk.obj
 0004:00000f84       $pdata$??$GetProcAddressAll@P6AP6A_JPEAUHWND__@@I_K_J@ZPEAUAtlThunkData_t@@@Z@@YAP6AP6A_JPEAUHWND__@@I_K_J@ZPEAUAtlThunkData_t@@@ZPEAP6AP6A_J0I12@Z3@Z@Z 0000000180035f84     atls:atlthunk.obj
 0004:00000f84       $pdata$??$GetProcAddressAll@P6APEAUAtlThunkData_t@@XZ@@YAP6APEAUAtlThunkData_t@@XZPEAP6APEAU0@XZ@Z 0000000180035f84     atls:atlthunk.obj
 0004:00000f84       $pdata$??$GetProcAddressAll@P6AXPEAUAtlThunkData_t@@@Z@@YAP6AXPEAUAtlThunkData_t@@@ZPEAP6AX0@Z@Z 0000000180035f84     atls:atlthunk.obj
 0004:00000f84       $pdata$??$GetProcAddressAll@P6AXPEAUAtlThunkData_t@@PEAX_K@Z@@YAP6AXPEAUAtlThunkData_t@@PEAX_K@ZPEAP6AX012@Z@Z 0000000180035f84     atls:atlthunk.obj
 0004:00000f90       $pdata$_purecall           0000000180035f90     libvcruntime:purevirt.obj
 0004:00000f9c       $pdata$wcsstr              0000000180035f9c     libvcruntime:wcsstr.obj
 0004:00000fe4       $pdata$__vcrt_initialize   0000000180035fe4     libvcruntime:initialization.obj
 0004:00000ff0       $pdata$__vcrt_uninitialize 0000000180035ff0     libvcruntime:initialization.obj
 0004:00000ffc       $pdata$__vcrt_uninitialize_critical 0000000180035ffc     libvcruntime:initialization.obj
 0004:00001008       $pdata$__vcrt_thread_attach 0000000180036008     libvcruntime:initialization.obj
 0004:00001014       $pdata$__vcrt_thread_detach 0000000180036014     libvcruntime:initialization.obj
 0004:00001020       $pdata$__C_specific_handler 0000000180036020     libvcruntime:riscchandler.obj
 0004:0000102c       $pdata$?DecompFuncInfo@FH4@@YA_JPEAEAEAUFuncInfo4@1@_KH_N@Z 000000018003602c     libvcruntime:risctrnsctrl.obj
 0004:00001038       $pdata$?FrameUnwindToEmptyState@__FrameHandler4@@SAXPEA_KPEAU_xDISPATCHER_CONTEXT@@PEAUFuncInfo4@FH4@@@Z 0000000180036038     libvcruntime:risctrnsctrl.obj
 0004:00001044       $pdata$?UnwindNestedFrames@__FrameHandler4@@SAXPEA_KPEAUEHExceptionRecord@@PEAU_CONTEXT@@0PEAXPEAUFuncInfo4@FH4@@HHPEAUHandlerType4@5@PEAU_xDISPATCHER_CONTEXT@@E@Z 0000000180036044     libvcruntime:risctrnsctrl.obj
 0004:00001050       $pdata$?GetRangeOfTrysToCheck@__FrameHandler4@@SA?AU?$pair@Viterator@TryBlockMap4@FH4@@V123@@std@@AEAVTryBlockMap4@FH4@@HPEAU_xDISPATCHER_CONTEXT@@PEAUFuncInfo4@5@H@Z 0000000180036050     libvcruntime:risctrnsctrl.obj
 0004:0000105c       $pdata$_GetImageBase       000000018003605c     libvcruntime:risctrnsctrl.obj
 0004:00001068       $pdata$_SetImageBase       0000000180036068     libvcruntime:risctrnsctrl.obj
 0004:00001074       $pdata$_GetThrowImageBase  0000000180036074     libvcruntime:risctrnsctrl.obj
 0004:00001080       $pdata$_SetThrowImageBase  0000000180036080     libvcruntime:risctrnsctrl.obj
 0004:0000108c       $pdata$_CreateFrameInfo    000000018003608c     libvcruntime:risctrnsctrl.obj
 0004:00001098       $pdata$_FindAndUnlinkFrame 0000000180036098     libvcruntime:risctrnsctrl.obj
 0004:000010a4       $pdata$__CxxFrameHandler4  00000001800360a4     libvcruntime:risctrnsctrl.obj
 0004:000010b0       $pdata$??$_CallSETranslator@V__FrameHandler4@@@@YAHPEAUEHExceptionRecord@@PEA_KPEAU_CONTEXT@@PEAU_xDISPATCHER_CONTEXT@@PEAUFuncInfo4@FH4@@K1H@Z 00000001800360b0     libvcruntime:risctrnsctrl.obj
 0004:000010bc       $pdata$?filt$0@?0???$_CallSETranslator@V__FrameHandler4@@@@YAHPEAUEHExceptionRecord@@PEA_KPEAU_CONTEXT@@PEAU_xDISPATCHER_CONTEXT@@PEAUFuncInfo4@FH4@@K1H@Z@4HA 00000001800360bc     libvcruntime:risctrnsctrl.obj
 0004:000010c8       $pdata$_IsExceptionObjectToBeDestroyed 00000001800360c8     libvcruntime:ehhelpers.obj
 0004:000010d4       $pdata$__FrameUnwindFilter 00000001800360d4     libvcruntime:ehhelpers.obj
 0004:000010e0       $pdata$__DestructExceptionObject 00000001800360e0     libvcruntime:ehhelpers.obj
 0004:000010ec       $pdata$__DestructExceptionObject$filt$0 00000001800360ec     libvcruntime:ehhelpers.obj
 0004:000010f8       $pdata$__std_type_info_destroy_list 00000001800360f8     libvcruntime:std_type_info.obj
 0004:00001104       $pdata$__std_exception_copy 0000000180036104     libvcruntime:std_exception.obj
 0004:00001110       $pdata$__std_exception_destroy 0000000180036110     libvcruntime:std_exception.obj
 0004:0000111c       $pdata$_CxxThrowException  000000018003611c     libvcruntime:throw.obj
 0004:00001128       $pdata$__vcrt_initialize_ptd 0000000180036128     libvcruntime:per_thread_data.obj
 0004:00001134       $pdata$__vcrt_uninitialize_ptd 0000000180036134     libvcruntime:per_thread_data.obj
 0004:00001140       $pdata$__vcrt_getptd       0000000180036140     libvcruntime:per_thread_data.obj
 0004:0000114c       $pdata$__vcrt_getptd_noexit 000000018003614c     libvcruntime:per_thread_data.obj
 0004:00001158       $pdata$__vcrt_freeptd      0000000180036158     libvcruntime:per_thread_data.obj
 0004:00001164       $pdata$__vcrt_freefls      0000000180036164     libvcruntime:per_thread_data.obj
 0004:00001170       $pdata$__vcrt_initialize_locks 0000000180036170     libvcruntime:locks.obj
 0004:0000117c       $pdata$__vcrt_uninitialize_locks 000000018003617c     libvcruntime:locks.obj
 0004:000011ac       $pdata$?StateFromIp@__FrameHandler4@@SAHPEAUFuncInfo4@FH4@@PEAU_xDISPATCHER_CONTEXT@@_K@Z 00000001800361ac     libvcruntime:ehstate.obj
 0004:000011b8       $pdata$?getStartStop@UWMap4@FH4@@QEAAXHHAEAViterator@12@0@Z 00000001800361b8     libvcruntime:frame.obj
 0004:000011c4       $pdata$?getStateFromIterators@UWMap4@FH4@@SAHAEBViterator@12@H0H0@Z 00000001800361c4     libvcruntime:frame.obj
 0004:000011d0       $pdata$??0HandlerMap4@FH4@@QEAA@PEBUTryBlockMapEntry4@1@_KH@Z 00000001800361d0     libvcruntime:frame.obj
 0004:000011dc       $pdata$?FrameUnwindToState@__FrameHandler4@@SAXPEA_KPEAU_xDISPATCHER_CONTEXT@@PEAUFuncInfo4@FH4@@H@Z 00000001800361dc     libvcruntime:frame.obj
 0004:000011e8       $pdata$?filt$0@?0??FrameUnwindToState@__FrameHandler4@@SAXPEA_KPEAU_xDISPATCHER_CONTEXT@@PEAUFuncInfo4@FH4@@H@Z@4HA 00000001800361e8     libvcruntime:frame.obj
 0004:000011f4       $pdata$?fin$1@?0??FrameUnwindToState@__FrameHandler4@@SAXPEA_KPEAU_xDISPATCHER_CONTEXT@@PEAUFuncInfo4@FH4@@H@Z@4HA 00000001800361f4     libvcruntime:frame.obj
 0004:00001200       $pdata$?CxxCallCatchBlock@__FrameHandler4@@SAPEAXPEAU_EXCEPTION_RECORD@@@Z 0000000180036200     libvcruntime:frame.obj
 0004:0000120c       $pdata$?filt$0@?0??CxxCallCatchBlock@__FrameHandler4@@SAPEAXPEAU_EXCEPTION_RECORD@@@Z@4HA 000000018003620c     libvcruntime:frame.obj
 0004:00001218       $pdata$?fin$1@?0??CxxCallCatchBlock@__FrameHandler4@@SAPEAXPEAU_EXCEPTION_RECORD@@@Z@4HA 0000000180036218     libvcruntime:frame.obj
 0004:00001224       $pdata$??0bad_exception@std@@QEAA@AEBV01@@Z 0000000180036224     libvcruntime:frame.obj
 0004:00001230       $pdata$?ExFilterRethrow@@YAHPEAU_EXCEPTION_POINTERS@@PEAUEHExceptionRecord@@PEAH@Z 0000000180036230     libvcruntime:frame.obj
 0004:0000123c       $pdata$?ExFilterRethrowFH4@@YAHPEAU_EXCEPTION_POINTERS@@PEAUEHExceptionRecord@@HPEAH@Z 000000018003623c     libvcruntime:frame.obj
 0004:00001248       $pdata$?IsInExceptionSpec@@YAEPEAUEHExceptionRecord@@PEBU_s_ESTypeList@@@Z 0000000180036248     libvcruntime:frame.obj
 0004:00001254       $pdata$?Is_bad_exception_allowed@@YAEPEBU_s_ESTypeList@@@Z 0000000180036254     libvcruntime:frame.obj
 0004:00001260       $pdata$??$__InternalCxxFrameHandler@V__FrameHandler4@@@@YA?AW4_EXCEPTION_DISPOSITION@@PEAUEHExceptionRecord@@PEA_KPEAU_CONTEXT@@PEAU_xDISPATCHER_CONTEXT@@PEAUFuncInfo4@FH4@@H1E@Z 0000000180036260     libvcruntime:frame.obj
 0004:0000126c       $pdata$??$TypeMatchHelper@V__FrameHandler3@@@@YAHPEBU_s_HandlerType@@PEBU_s_CatchableType@@PEBU_s_ThrowInfo@@@Z 000000018003626c     libvcruntime:frame.obj
 0004:00001278       $pdata$??$TypeMatchHelper@V__FrameHandler4@@@@YAHPEAUHandlerType4@FH4@@PEBU_s_CatchableType@@PEBU_s_ThrowInfo@@@Z 0000000180036278     libvcruntime:frame.obj
 0004:00001284       $pdata$??$BuildCatchObjectHelperInternal@V__FrameHandler4@@@@YAHPEAUEHExceptionRecord@@PEAXPEAUHandlerType4@FH4@@PEBU_s_CatchableType@@@Z 0000000180036284     libvcruntime:frame.obj
 0004:00001290       $pdata$??$BuildCatchObjectInternal@V__FrameHandler4@@@@YAXPEAUEHExceptionRecord@@PEAXPEAUHandlerType4@FH4@@PEBU_s_CatchableType@@@Z 0000000180036290     libvcruntime:frame.obj
 0004:0000129c       $pdata$??$FindHandler@V__FrameHandler4@@@@YAXPEAUEHExceptionRecord@@PEA_KPEAU_CONTEXT@@PEAU_xDISPATCHER_CONTEXT@@PEAUFuncInfo4@FH4@@EH1@Z 000000018003629c     libvcruntime:frame.obj
 0004:000012a8       $pdata$??$CatchIt@V__FrameHandler4@@@@YAXPEAUEHExceptionRecord@@PEA_KPEAU_CONTEXT@@PEAU_xDISPATCHER_CONTEXT@@PEAUFuncInfo4@FH4@@PEAUHandlerType4@4@PEBU_s_CatchableType@@PEAUTryBlockMapEntry4@4@H1EE@Z 00000001800362a8     libvcruntime:frame.obj
 0004:000012b4       $pdata$??$FindHandlerForForeignException@V__FrameHandler4@@@@YAXPEAUEHExceptionRecord@@PEA_KPEAU_CONTEXT@@PEAU_xDISPATCHER_CONTEXT@@PEAUFuncInfo4@FH4@@HH1@Z 00000001800362b4     libvcruntime:frame.obj
 0004:000012c0       $pdata$__vcrt_FlsAlloc     00000001800362c0     libvcruntime:winapi_downlevel.obj
 0004:000012cc       $pdata$__vcrt_FlsFree      00000001800362cc     libvcruntime:winapi_downlevel.obj
 0004:000012d8       $pdata$__vcrt_FlsGetValue  00000001800362d8     libvcruntime:winapi_downlevel.obj
 0004:000012e4       $pdata$__vcrt_FlsSetValue  00000001800362e4     libvcruntime:winapi_downlevel.obj
 0004:000012f0       $pdata$__vcrt_InitializeCriticalSectionEx 00000001800362f0     libvcruntime:winapi_downlevel.obj
 0004:000012fc       $pdata$?try_get_function@@YAPEAXW4function_id@?A0x5302d918@@QEBDQEBW4module_id@2@2@Z 00000001800362fc     libvcruntime:winapi_downlevel.obj
 0004:00001338       $pdata$_invalid_parameter_noinfo 0000000180036338     libucrt:invalid_parameter.obj
 0004:00001344       $pdata$_invoke_watson      0000000180036344     libucrt:invalid_parameter.obj
 0004:00001350       $pdata$__acrt_call_reportfault 0000000180036350     libucrt:invalid_parameter.obj
 0004:0000135c       $pdata$_invalid_parameter  000000018003635c     libucrt:invalid_parameter.obj
 0004:00001368       $pdata$_errno              0000000180036368     libucrt:errno.obj
 0004:00001374       $pdata$__doserrno          0000000180036374     libucrt:errno.obj
 0004:00001380       $pdata$__acrt_errno_map_os_error 0000000180036380     libucrt:errno.obj
 0004:0000138c       $pdata$_recalloc_base      000000018003638c     libucrt:recalloc.obj
 0004:00001398       $pdata$_resetstkoflw       0000000180036398     libucrt:resetstk.obj
 0004:000013a4       $pdata$wcscat_s            00000001800363a4     libucrt:wcscat_s.obj
 0004:000013b0       $pdata$wcscpy_s            00000001800363b0     libucrt:wcscpy_s.obj
 0004:000013bc       $pdata$wcsncpy_s           00000001800363bc     libucrt:wcsncpy_s.obj
 0004:000013c8       $pdata$??0_LocaleUpdate@@QEAA@QEAU__crt_locale_pointers@@@Z 00000001800363c8     libucrt:output.obj
 0004:000013d4       $pdata$__stdio_common_vswprintf_s 00000001800363d4     libucrt:output.obj
 0004:000013e0       $pdata$?write_string@?$string_output_adapter@_W@__crt_stdio_output@@QEBAXQEB_WHQEAHAEAV__crt_deferred_errno_cache@@@Z 00000001800363e0     libucrt:output.obj
 0004:000013ec       $pdata$??$common_vsprintf@Vformat_validation_base@__crt_stdio_output@@_W@@YAH_KQEA_W0QEB_WQEAU__crt_locale_pointers@@QEAD@Z 00000001800363ec     libucrt:output.obj
 0004:000013f8       $pdata$??$write_multiple_characters@V?$string_output_adapter@_W@__crt_stdio_output@@D@__crt_stdio_output@@YAXAEBV?$string_output_adapter@_W@0@DHQEAH@Z 00000001800363f8     libucrt:output.obj
 0004:00001404       $pdata$??$ensure_buffer_is_big_enough@D@formatting_buffer@__crt_stdio_output@@QEAA_N_K@Z 0000000180036404     libucrt:output.obj
 0004:00001410       $pdata$??$ensure_buffer_is_big_enough@_W@formatting_buffer@__crt_stdio_output@@QEAA_N_K@Z 0000000180036410     libucrt:output.obj
 0004:0000141c       $pdata$?process@?$output_processor@_WV?$string_output_adapter@_W@__crt_stdio_output@@V?$format_validation_base@_WV?$string_output_adapter@_W@__crt_stdio_output@@@2@@__crt_stdio_output@@QEAAHXZ 000000018003641c     libucrt:output.obj
 0004:00001428       $pdata$?parse_int_from_format_string@?$output_processor@_WV?$string_output_adapter@_W@__crt_stdio_output@@V?$format_validation_base@_WV?$string_output_adapter@_W@__crt_stdio_output@@@2@@__crt_stdio_output@@AEAA_NQEAH@Z 0000000180036428     libucrt:output.obj
 0004:00001434       $pdata$?state_case_size@?$output_processor@_WV?$string_output_adapter@_W@__crt_stdio_output@@V?$format_validation_base@_WV?$string_output_adapter@_W@__crt_stdio_output@@@2@@__crt_stdio_output@@AEAA_NXZ 0000000180036434     libucrt:output.obj
 0004:00001440       $pdata$?state_case_type@?$output_processor@_WV?$string_output_adapter@_W@__crt_stdio_output@@V?$format_validation_base@_WV?$string_output_adapter@_W@__crt_stdio_output@@@2@@__crt_stdio_output@@AEAA_NXZ 0000000180036440     libucrt:output.obj
 0004:0000144c       $pdata$?type_case_c_tchar@?$output_processor@_WV?$string_output_adapter@_W@__crt_stdio_output@@V?$format_validation_base@_WV?$string_output_adapter@_W@__crt_stdio_output@@@2@@__crt_stdio_output@@AEAA_N_W@Z 000000018003644c     libucrt:output.obj
 0004:00001458       $pdata$?type_case_Z@?$output_processor@_WV?$string_output_adapter@_W@__crt_stdio_output@@V?$format_validation_base@_WV?$string_output_adapter@_W@__crt_stdio_output@@@2@@__crt_stdio_output@@AEAA_NXZ 0000000180036458     libucrt:output.obj
 0004:00001464       $pdata$?type_case_s@?$output_processor@_WV?$string_output_adapter@_W@__crt_stdio_output@@V?$format_validation_base@_WV?$string_output_adapter@_W@__crt_stdio_output@@@2@@__crt_stdio_output@@AEAA_NXZ 0000000180036464     libucrt:output.obj
 0004:00001470       $pdata$?type_case_a@?$output_processor@_WV?$string_output_adapter@_W@__crt_stdio_output@@V?$format_validation_base@_WV?$string_output_adapter@_W@__crt_stdio_output@@@2@@__crt_stdio_output@@AEAA_NXZ 0000000180036470     libucrt:output.obj
 0004:0000147c       $pdata$?type_case_integer@?$output_processor@_WV?$string_output_adapter@_W@__crt_stdio_output@@V?$format_validation_base@_WV?$string_output_adapter@_W@__crt_stdio_output@@@2@@__crt_stdio_output@@AEAA_NI_N@Z 000000018003647c     libucrt:output.obj
 0004:00001488       $pdata$?type_case_n@?$output_processor@_WV?$string_output_adapter@_W@__crt_stdio_output@@V?$format_validation_base@_WV?$string_output_adapter@_W@__crt_stdio_output@@@2@@__crt_stdio_output@@AEAA_NXZ 0000000180036488     libucrt:output.obj
 0004:00001494       $pdata$?write_stored_string_tchar@?$output_processor@_WV?$string_output_adapter@_W@__crt_stdio_output@@V?$format_validation_base@_WV?$string_output_adapter@_W@__crt_stdio_output@@@2@@__crt_stdio_output@@AEAA_N_W@Z 0000000180036494     libucrt:output.obj
 0004:000014a0       $pdata$??$type_case_integer_parse_into_buffer@_K@?$output_processor@_WV?$string_output_adapter@_W@__crt_stdio_output@@V?$format_validation_base@_WV?$string_output_adapter@_W@__crt_stdio_output@@@2@@__crt_stdio_output@@AEAAX_KI_N@Z 00000001800364a0     libucrt:output.obj
 0004:000014ac       $pdata$??$type_case_integer_parse_into_buffer@I@?$output_processor@_WV?$string_output_adapter@_W@__crt_stdio_output@@V?$format_validation_base@_WV?$string_output_adapter@_W@__crt_stdio_output@@@2@@__crt_stdio_output@@AEAAXII_N@Z 00000001800364ac     libucrt:output.obj
 0004:000014b8       $pdata$_seh_filter_exe     00000001800364b8     libucrt:exception_filter.obj
 0004:000014c4       $pdata$?try_cor_exit_process@@YAXI@Z 00000001800364c4     libucrt:exit.obj
 0004:000014d0       $pdata$?exit_or_terminate_process@@YAXI@Z 00000001800364d0     libucrt:exit.obj
 0004:000014dc       $pdata$?common_exit@@YAXHW4_crt_exit_cleanup_mode@@W4_crt_exit_return_mode@@@Z 00000001800364dc     libucrt:exit.obj
 0004:000014e8       $pdata$??R<lambda_6e4b09c48022b2350581041d5f6b0c4c>@@QEBA@XZ 00000001800364e8     libucrt:exit.obj
 0004:000014f4       $pdata$?filt$0@?0???R<lambda_6e4b09c48022b2350581041d5f6b0c4c>@@QEBA@XZ@4HA 00000001800364f4     libucrt:exit.obj
 0004:00001500       $pdata$??$?RV<lambda_d80eeec6fff315bfe5c115232f3240e3>@@AEAV<lambda_6e4b09c48022b2350581041d5f6b0c4c>@@V<lambda_2358e3775559c9db80273638284d5e45>@@@?$__crt_seh_guarded_call@X@@QEAAX$$QEAV<lambda_d80eeec6fff315bfe5c115232f3240e3>@@AEAV<lambda_6e4b09c48022b2350581041d5f6b0c4c>@@$$QEAV<lambda_2358e3775559c9db80273638284d5e45>@@@Z 0000000180036500     libucrt:exit.obj
 0004:0000150c       $pdata$?fin$0@?0???$?RV<lambda_0ae27a3a962d80f24befdcbee591983d>@@AEAV<lambda_8d0ee55de4b1038c4002e0adecdf1839>@@V<lambda_dc504788e8f1664fe9b84e20bfb512f2>@@@?$__crt_seh_guarded_call@X@@QEAAX$$QEAV<lambda_0ae27a3a962d80f24befdcbee591983d>@@AEAV<lambda_8d0ee55de4b1038c4002e0adecdf1839>@@$$QEAV<lambda_dc504788e8f1664fe9b84e20bfb512f2>@@@Z@4HA 000000018003650c     libucrt:per_thread_data.obj
 0004:0000150c       $pdata$?fin$0@?0???$?RV<lambda_2d41944a1d46af3157314b8a01080d33>@@AEAV<lambda_8f455de75cd7d7f24b4096f044d8b9e6>@@V<lambda_aa500f224e6afead328df44964fe2772>@@@?$__crt_seh_guarded_call@X@@QEAAX$$QEAV<lambda_2d41944a1d46af3157314b8a01080d33>@@AEAV<lambda_8f455de75cd7d7f24b4096f044d8b9e6>@@$$QEAV<lambda_aa500f224e6afead328df44964fe2772>@@@Z@4HA 000000018003650c     libucrt:per_thread_data.obj
 0004:0000150c       $pdata$?fin$0@?0???$?RV<lambda_aa87e3671a710a21b5dc78c0bdf72e11>@@AEAV<lambda_92619d2358a28f41a33ba319515a20b9>@@V<lambda_6992ecaafeb10aed2b74cb1fae11a551>@@@?$__crt_seh_guarded_call@X@@QEAAX$$QEAV<lambda_aa87e3671a710a21b5dc78c0bdf72e11>@@AEAV<lambda_92619d2358a28f41a33ba319515a20b9>@@$$QEAV<lambda_6992ecaafeb10aed2b74cb1fae11a551>@@@Z@4HA 000000018003650c     libucrt:per_thread_data.obj
 0004:0000150c       $pdata$?fin$0@?0???$?RV<lambda_f2e299630e499de9f9a165e60fcd3db5>@@AEAV<lambda_2ae9d31cdba2644fcbeaf08da7c24588>@@V<lambda_40d01ff24d0e7b3814fdbdcee8eab3c7>@@@?$__crt_seh_guarded_call@X@@QEAAX$$QEAV<lambda_f2e299630e499de9f9a165e60fcd3db5>@@AEAV<lambda_2ae9d31cdba2644fcbeaf08da7c24588>@@$$QEAV<lambda_40d01ff24d0e7b3814fdbdcee8eab3c7>@@@Z@4HA 000000018003650c     libucrt:per_thread_data.obj
 0004:0000150c       $pdata$?fin$0@?0???$?RV<lambda_efdfa57d1f175319df784efa44bb7b81>@@AEAV<lambda_5f0a4c1567f8adc6734073e5d1e1b35c>@@V<lambda_2e8a7d3640ea6ccb4c2413664c2db6fd>@@@?$__crt_seh_guarded_call@X@@QEAAX$$QEAV<lambda_efdfa57d1f175319df784efa44bb7b81>@@AEAV<lambda_5f0a4c1567f8adc6734073e5d1e1b35c>@@$$QEAV<lambda_2e8a7d3640ea6ccb4c2413664c2db6fd>@@@Z@4HA 000000018003650c     libucrt:mbctype.obj
 0004:0000150c       $pdata$?fin$0@?0???$?RV<lambda_450d765d439847d4c735a33c368b5fc0>@@AEAV<lambda_44731a7d0e6d81c3e6aa82d741081786>@@V<lambda_601a2a7da3b7a96e9554ac7215c4b07c>@@@?$__crt_seh_guarded_call@P6AXH@Z@@QEAAP6AXH@Z$$QEAV<lambda_450d765d439847d4c735a33c368b5fc0>@@AEAV<lambda_44731a7d0e6d81c3e6aa82d741081786>@@$$QEAV<lambda_601a2a7da3b7a96e9554ac7215c4b07c>@@@Z@4HA 000000018003650c     libucrt:signal.obj
 0004:0000150c       $pdata$?fin$0@?0???$?RV<lambda_d80eeec6fff315bfe5c115232f3240e3>@@AEAV<lambda_6e4b09c48022b2350581041d5f6b0c4c>@@V<lambda_2358e3775559c9db80273638284d5e45>@@@?$__crt_seh_guarded_call@X@@QEAAX$$QEAV<lambda_d80eeec6fff315bfe5c115232f3240e3>@@AEAV<lambda_6e4b09c48022b2350581041d5f6b0c4c>@@$$QEAV<lambda_2358e3775559c9db80273638284d5e45>@@@Z@4HA 000000018003650c     libucrt:exit.obj
 0004:0000150c       $pdata$?fin$0@?0???$?RV<lambda_638799b9deba96c50f710eeac98168cd>@@AEAV<lambda_22ebabd17bc4fa466a2aca6d8deb888d>@@V<lambda_a6f7d7db0129f75315ebf26d50c089f1>@@@?$__crt_seh_guarded_call@H@@QEAAH$$QEAV<lambda_638799b9deba96c50f710eeac98168cd>@@AEAV<lambda_22ebabd17bc4fa466a2aca6d8deb888d>@@$$QEAV<lambda_a6f7d7db0129f75315ebf26d50c089f1>@@@Z@4HA 000000018003650c     libucrt:onexit.obj
 0004:0000150c       $pdata$?fin$0@?0???$?RV<lambda_7777bce6b2f8c936911f934f8298dc43>@@AEAV<lambda_f03950bc5685219e0bcd2087efbe011e>@@V<lambda_3883c3dff614d5e0c5f61bb1ac94921c>@@@?$__crt_seh_guarded_call@H@@QEAAH$$QEAV<lambda_7777bce6b2f8c936911f934f8298dc43>@@AEAV<lambda_f03950bc5685219e0bcd2087efbe011e>@@$$QEAV<lambda_3883c3dff614d5e0c5f61bb1ac94921c>@@@Z@4HA 000000018003650c     libucrt:onexit.obj
 0004:00001518       $pdata$_configure_narrow_argv 0000000180036518     libucrt:argv_parsing.obj
 0004:00001524       $pdata$__acrt_allocate_buffer_for_argv 0000000180036524     libucrt:argv_parsing.obj
 0004:00001530       $pdata$??$parse_command_line@D@@YAXPEADPEAPEAD0PEA_K2@Z 0000000180036530     libucrt:argv_parsing.obj
 0004:0000153c       $pdata$__dcrt_uninitialize_environments_nolock 000000018003653c     libucrt:environment_initialization.obj
 0004:00001548       $pdata$??$common_initialize_environment_nolock@D@@YAHXZ 0000000180036548     libucrt:environment_initialization.obj
 0004:00001554       $pdata$??$uninitialize_environment_internal@D@@YAXAEAPEAPEAD@Z 0000000180036554     libucrt:environment_initialization.obj
 0004:00001560       $pdata$??$uninitialize_environment_internal@_W@@YAXAEAPEAPEA_W@Z 0000000180036560     libucrt:environment_initialization.obj
 0004:0000156c       $pdata$??$free_environment@D@@YAXQEAPEAD@Z 000000018003656c     libucrt:environment_initialization.obj
 0004:0000156c       $pdata$??$free_environment@_W@@YAXQEAPEA_W@Z 000000018003656c     libucrt:environment_initialization.obj
 0004:00001578       $pdata$??$create_environment@D@@YAQEAPEADQEAD@Z 0000000180036578     libucrt:environment_initialization.obj
 0004:00001584       $pdata$_register_onexit_function 0000000180036584     libucrt:onexit.obj
 0004:00001590       $pdata$_execute_onexit_table 0000000180036590     libucrt:onexit.obj
 0004:0000159c       $pdata$??R<lambda_22ebabd17bc4fa466a2aca6d8deb888d>@@QEBAHXZ 000000018003659c     libucrt:onexit.obj
 0004:000015a8       $pdata$??R<lambda_f03950bc5685219e0bcd2087efbe011e>@@QEBAHXZ 00000001800365a8     libucrt:onexit.obj
 0004:000015b4       $pdata$??$?RV<lambda_638799b9deba96c50f710eeac98168cd>@@AEAV<lambda_22ebabd17bc4fa466a2aca6d8deb888d>@@V<lambda_a6f7d7db0129f75315ebf26d50c089f1>@@@?$__crt_seh_guarded_call@H@@QEAAH$$QEAV<lambda_638799b9deba96c50f710eeac98168cd>@@AEAV<lambda_22ebabd17bc4fa466a2aca6d8deb888d>@@$$QEAV<lambda_a6f7d7db0129f75315ebf26d50c089f1>@@@Z 00000001800365b4     libucrt:onexit.obj
 0004:000015c0       $pdata$??$?RV<lambda_7777bce6b2f8c936911f934f8298dc43>@@AEAV<lambda_f03950bc5685219e0bcd2087efbe011e>@@V<lambda_3883c3dff614d5e0c5f61bb1ac94921c>@@@?$__crt_seh_guarded_call@H@@QEAAH$$QEAV<lambda_7777bce6b2f8c936911f934f8298dc43>@@AEAV<lambda_f03950bc5685219e0bcd2087efbe011e>@@$$QEAV<lambda_3883c3dff614d5e0c5f61bb1ac94921c>@@@Z 00000001800365c0     libucrt:onexit.obj
 0004:000015cc       $pdata$__acrt_uninitialize 00000001800365cc     libucrt:initialization.obj
 0004:000015d8       $pdata$__acrt_uninitialize_critical 00000001800365d8     libucrt:initialization.obj
 0004:000015e4       $pdata$__acrt_thread_attach 00000001800365e4     libucrt:initialization.obj
 0004:000015f0       $pdata$__acrt_thread_detach 00000001800365f0     libucrt:initialization.obj
 0004:000015fc       $pdata$initialize_c        00000001800365fc     libucrt:initialization.obj
 0004:00001608       $pdata$uninitialize_environment 0000000180036608     libucrt:initialization.obj
 0004:00001614       $pdata$initialize_pointers 0000000180036614     libucrt:initialization.obj
 0004:00001620       $pdata$uninitialize_allocated_memory 0000000180036620     libucrt:initialization.obj
 0004:0000162c       $pdata$uninitialize_allocated_io_buffers 000000018003662c     libucrt:initialization.obj
 0004:00001638       $pdata$_initterm           0000000180036638     libucrt:initterm.obj
 0004:00001644       $pdata$_initterm_e         0000000180036644     libucrt:initterm.obj
 0004:00001650       $pdata$_callnewh           0000000180036650     libucrt:new_handler.obj
 0004:0000165c       $pdata$_query_new_handler  000000018003665c     libucrt:new_handler.obj
 0004:00001668       $pdata$_query_new_handler$fin$0 0000000180036668     libucrt:new_handler.obj
 0004:00001674       $pdata$terminate           0000000180036674     libucrt:terminate.obj
 0004:00001680       $pdata$abort               0000000180036680     libucrt:abort.obj
 0004:0000168c       $pdata$strcpy_s            000000018003668c     libucrt:strcpy_s.obj
 0004:00001698       $pdata$??$parse_integer@KV?$c_string_character_source@_W@__crt_strtox@@@__crt_strtox@@YAKQEAU__crt_locale_pointers@@V?$c_string_character_source@_W@0@H_N@Z 0000000180036698     libucrt:atox.obj
 0004:000016b0       $pdata$_free_base          00000001800366b0     libucrt:free_base.obj
 0004:000016bc       $pdata$__acrt_initialize_ptd 00000001800366bc     libucrt:per_thread_data.obj
 0004:000016c8       $pdata$__acrt_uninitialize_ptd 00000001800366c8     libucrt:per_thread_data.obj
 0004:000016d4       $pdata$__acrt_getptd       00000001800366d4     libucrt:per_thread_data.obj
 0004:000016e0       $pdata$__acrt_getptd_head  00000001800366e0     libucrt:per_thread_data.obj
 0004:000016ec       $pdata$__acrt_getptd_noexit 00000001800366ec     libucrt:per_thread_data.obj
 0004:000016f8       $pdata$__acrt_freeptd      00000001800366f8     libucrt:per_thread_data.obj
 0004:00001704       $pdata$?destroy_fls@@YAXPEAX@Z 0000000180036704     libucrt:per_thread_data.obj
 0004:00001710       $pdata$?replace_current_thread_locale_nolock@@YAXQEAU__acrt_ptd@@QEAU__crt_locale_data@@@Z 0000000180036710     libucrt:per_thread_data.obj
 0004:0000171c       $pdata$?construct_ptd_array@@YAXQEAU__acrt_ptd@@@Z 000000018003671c     libucrt:per_thread_data.obj
 0004:00001728       $pdata$?destroy_ptd_array@@YAXQEAU__acrt_ptd@@@Z 0000000180036728     libucrt:per_thread_data.obj
 0004:00001734       $pdata$??$?RV<lambda_0ae27a3a962d80f24befdcbee591983d>@@AEAV<lambda_8d0ee55de4b1038c4002e0adecdf1839>@@V<lambda_dc504788e8f1664fe9b84e20bfb512f2>@@@?$__crt_seh_guarded_call@X@@QEAAX$$QEAV<lambda_0ae27a3a962d80f24befdcbee591983d>@@AEAV<lambda_8d0ee55de4b1038c4002e0adecdf1839>@@$$QEAV<lambda_dc504788e8f1664fe9b84e20bfb512f2>@@@Z 0000000180036734     libucrt:per_thread_data.obj
 0004:00001740       $pdata$??$?RV<lambda_aa87e3671a710a21b5dc78c0bdf72e11>@@AEAV<lambda_92619d2358a28f41a33ba319515a20b9>@@V<lambda_6992ecaafeb10aed2b74cb1fae11a551>@@@?$__crt_seh_guarded_call@X@@QEAAX$$QEAV<lambda_aa87e3671a710a21b5dc78c0bdf72e11>@@AEAV<lambda_92619d2358a28f41a33ba319515a20b9>@@$$QEAV<lambda_6992ecaafeb10aed2b74cb1fae11a551>@@@Z 0000000180036740     libucrt:per_thread_data.obj
 0004:0000174c       $pdata$??$?RV<lambda_f2e299630e499de9f9a165e60fcd3db5>@@AEAV<lambda_2ae9d31cdba2644fcbeaf08da7c24588>@@V<lambda_40d01ff24d0e7b3814fdbdcee8eab3c7>@@@?$__crt_seh_guarded_call@X@@QEAAX$$QEAV<lambda_f2e299630e499de9f9a165e60fcd3db5>@@AEAV<lambda_2ae9d31cdba2644fcbeaf08da7c24588>@@$$QEAV<lambda_40d01ff24d0e7b3814fdbdcee8eab3c7>@@@Z 000000018003674c     libucrt:per_thread_data.obj
 0004:00001758       $pdata$??$?RV<lambda_2d41944a1d46af3157314b8a01080d33>@@AEAV<lambda_8f455de75cd7d7f24b4096f044d8b9e6>@@V<lambda_aa500f224e6afead328df44964fe2772>@@@?$__crt_seh_guarded_call@X@@QEAAX$$QEAV<lambda_2d41944a1d46af3157314b8a01080d33>@@AEAV<lambda_8f455de75cd7d7f24b4096f044d8b9e6>@@$$QEAV<lambda_aa500f224e6afead328df44964fe2772>@@@Z 0000000180036758     libucrt:per_thread_data.obj
 0004:00001764       $pdata$_calloc_base        0000000180036764     libucrt:calloc_base.obj
 0004:00001770       $pdata$_malloc_base        0000000180036770     libucrt:malloc_base.obj
 0004:0000177c       $pdata$_msize_base         000000018003677c     libucrt:msize.obj
 0004:00001788       $pdata$_realloc_base       0000000180036788     libucrt:realloc_base.obj
 0004:00001794       $pdata$__acrt_initialize_winapi_thunks 0000000180036794     libucrt:winapi_thunks.obj
 0004:000017a0       $pdata$__acrt_uninitialize_winapi_thunks 00000001800367a0     libucrt:winapi_thunks.obj
 0004:000017ac       $pdata$__acrt_AreFileApisANSI 00000001800367ac     libucrt:winapi_thunks.obj
 0004:000017b8       $pdata$__acrt_FlsAlloc     00000001800367b8     libucrt:winapi_thunks.obj
 0004:000017c4       $pdata$__acrt_FlsFree      00000001800367c4     libucrt:winapi_thunks.obj
 0004:000017d0       $pdata$__acrt_FlsGetValue  00000001800367d0     libucrt:winapi_thunks.obj
 0004:000017dc       $pdata$__acrt_FlsSetValue  00000001800367dc     libucrt:winapi_thunks.obj
 0004:000017e8       $pdata$__acrt_InitializeCriticalSectionEx 00000001800367e8     libucrt:winapi_thunks.obj
 0004:000017f4       $pdata$__acrt_LCMapStringEx 00000001800367f4     libucrt:winapi_thunks.obj
 0004:00001800       $pdata$__acrt_LocaleNameToLCID 0000000180036800     libucrt:winapi_thunks.obj
 0004:0000180c       $pdata$__acrt_AppPolicyGetProcessTerminationMethodInternal 000000018003680c     libucrt:winapi_thunks.obj
 0004:00001818       $pdata$__acrt_SetThreadStackGuarantee 0000000180036818     libucrt:winapi_thunks.obj
 0004:00001824       $pdata$?try_get_function@@YAPEAXW4function_id@?A0x391cf84c@@QEBDQEBW4module_id@2@2@Z 0000000180036824     libucrt:winapi_thunks.obj
 0004:00001830       $pdata$wcstol              0000000180036830     libucrt:strtox.obj
 0004:0000183c       $pdata$_mbtowc_l           000000018003683c     libucrt:mbtowc.obj
 0004:00001848       $pdata$__acrt_update_locale_info 0000000180036848     libucrt:locale_update.obj
 0004:00001854       $pdata$__acrt_update_multibyte_info 0000000180036854     libucrt:locale_update.obj
 0004:00001860       $pdata$__acrt_fp_format    0000000180036860     libucrt:cvt.obj
 0004:0000186c       $pdata$?fp_format_e_internal@@YAHQEAD_KH_NIQEAU_strflt@@2QEAU__crt_locale_pointers@@@Z 000000018003686c     libucrt:cvt.obj
 0004:00001878       $pdata$?fp_format_e@@YAHQEBNQEAD_K12H_NIQEAU__crt_locale_pointers@@W4__acrt_rounding_mode@@@Z 0000000180036878     libucrt:cvt.obj
 0004:00001884       $pdata$?should_round_up@@YA_NQEBN_KFW4__acrt_rounding_mode@@@Z 0000000180036884     libucrt:cvt.obj
 0004:00001890       $pdata$?fp_format_a@@YAHQEBNPEAD_KQEAD2H_NIQEAU__crt_locale_pointers@@W4__acrt_rounding_mode@@@Z 0000000180036890     libucrt:cvt.obj
 0004:0000189c       $pdata$?fp_format_f_internal@@YAHQEAD_KHQEAU_strflt@@_NQEAU__crt_locale_pointers@@@Z 000000018003689c     libucrt:cvt.obj
 0004:000018a8       $pdata$?fp_format_g@@YAHQEBNQEAD_K12H_NIQEAU__crt_locale_pointers@@@Z 00000001800368a8     libucrt:cvt.obj
 0004:000018b4       $pdata$_fileno             00000001800368b4     libucrt:fileno.obj
 0004:000018c0       $pdata$__acrt_initialize_stdio 00000001800368c0     libucrt:_file.obj
 0004:000018cc       $pdata$__acrt_uninitialize_stdio 00000001800368cc     libucrt:_file.obj
 0004:000018d8       $pdata$__acrt_uninitialize_locale 00000001800368d8     libucrt:wsetlocale.obj
 0004:000018e4       $pdata$??$?RV<lambda_410d79af7f07d98d83a3f525b3859a53>@@AEAV<lambda_3e16ef9562a7dcce91392c22ab16ea36>@@V<lambda_38119f0e861e05405d8a144b9b982f0a>@@@?$__crt_seh_guarded_call@X@@QEAAX$$QEAV<lambda_410d79af7f07d98d83a3f525b3859a53>@@AEAV<lambda_3e16ef9562a7dcce91392c22ab16ea36>@@$$QEAV<lambda_38119f0e861e05405d8a144b9b982f0a>@@@Z 00000001800368e4     libucrt:wsetlocale.obj
 0004:000018f0       $pdata$?fin$0@?0???$?RV<lambda_410d79af7f07d98d83a3f525b3859a53>@@AEAV<lambda_3e16ef9562a7dcce91392c22ab16ea36>@@V<lambda_38119f0e861e05405d8a144b9b982f0a>@@@?$__crt_seh_guarded_call@X@@QEAAX$$QEAV<lambda_410d79af7f07d98d83a3f525b3859a53>@@AEAV<lambda_3e16ef9562a7dcce91392c22ab16ea36>@@$$QEAV<lambda_38119f0e861e05405d8a144b9b982f0a>@@@Z@4HA 00000001800368f0     libucrt:wsetlocale.obj
 0004:000018fc       $pdata$__acrt_initialize_lowio 00000001800368fc     libucrt:ioinit.obj
 0004:00001908       $pdata$__acrt_initialize_lowio$fin$0 0000000180036908     libucrt:ioinit.obj
 0004:00001908       $pdata$__acrt_lowio_ensure_fh_exists$fin$0 0000000180036908     libucrt:osfinfo.obj
 0004:00001914       $pdata$__acrt_uninitialize_lowio 0000000180036914     libucrt:ioinit.obj
 0004:00001920       $pdata$?initialize_inherited_file_handles_nolock@@YAXXZ 0000000180036920     libucrt:ioinit.obj
 0004:0000192c       $pdata$?initialize_stdio_handles_nolock@@YAXXZ 000000018003692c     libucrt:ioinit.obj
 0004:00001938       $pdata$__acrt_initialize_locks 0000000180036938     libucrt:locks.obj
 0004:00001944       $pdata$__acrt_uninitialize_locks 0000000180036944     libucrt:locks.obj
 0004:00001950       $pdata$__acrt_get_process_end_policy 0000000180036950     libucrt:win_policies.obj
 0004:0000195c       $pdata$??$__acrt_mbs_to_wcs_cp@U__crt_win32_buffer_internal_dynamic_resizing@@@@YAHQEBDAEAV?$__crt_win32_buffer@_WU__crt_win32_buffer_internal_dynamic_resizing@@@@I@Z 000000018003695c     libucrt:argv_wildcards.obj
 0004:00001968       $pdata$??$__acrt_wcs_to_mbs_cp@U__crt_win32_buffer_internal_dynamic_resizing@@@@YAHQEB_WAEAV?$__crt_win32_buffer@DU__crt_win32_buffer_internal_dynamic_resizing@@@@I@Z 0000000180036968     libucrt:argv_wildcards.obj
 0004:00001974       $pdata$??$common_expand_argv_wildcards@D@@YAHQEAPEADQEAPEAPEAD@Z 0000000180036974     libucrt:argv_wildcards.obj
 0004:00001980       $pdata$??$copy_and_add_argument_to_buffer@D@@YAHQEBD0_KAEAV?$argument_list@D@?A0x5f5c8891@@@Z 0000000180036980     libucrt:argv_wildcards.obj
 0004:0000198c       $pdata$??$expand_argument_wildcards@D@@YAHQEAD0AEAV?$argument_list@D@?A0x5f5c8891@@@Z 000000018003698c     libucrt:argv_wildcards.obj
 0004:00001998       $pdata$__acrt_GetModuleFileNameA 0000000180036998     libucrt:getmodulefilenamea.obj
 0004:000019a4       $pdata$??$__acrt_wcs_to_mbs_cp@U__crt_win32_buffer_no_resizing@@@@YAHQEB_WAEAV?$__crt_win32_buffer@DU__crt_win32_buffer_no_resizing@@@@I@Z 00000001800369a4     libucrt:getmodulefilenamea.obj
 0004:000019b0       $pdata$__acrt_update_thread_multibyte_data 00000001800369b0     libucrt:mbctype.obj
 0004:000019bc       $pdata$__acrt_initialize_multibyte 00000001800369bc     libucrt:mbctype.obj
 0004:000019c8       $pdata$_setmbcp_nolock     00000001800369c8     libucrt:mbctype.obj
 0004:000019d4       $pdata$?getSystemCP@@YAHH@Z 00000001800369d4     libucrt:mbctype.obj
 0004:000019e0       $pdata$?setSBCS@@YAXPEAU__crt_multibyte_data@@@Z 00000001800369e0     libucrt:mbctype.obj
 0004:000019ec       $pdata$?update_thread_multibyte_data_internal@@YAPEAU__crt_multibyte_data@@QEAU__acrt_ptd@@QEAPEAU1@@Z 00000001800369ec     libucrt:mbctype.obj
 0004:000019f8       $pdata$?fin$0@?0??update_thread_multibyte_data_internal@@YAPEAU__crt_multibyte_data@@QEAU__acrt_ptd@@QEAPEAU1@@Z@4HA 00000001800369f8     libucrt:mbctype.obj
 0004:00001a04       $pdata$?setmbcp_internal@@YAHH_NQEAU__acrt_ptd@@QEAPEAU__crt_multibyte_data@@@Z 0000000180036a04     libucrt:mbctype.obj
 0004:00001a10       $pdata$?setSBUpLow@@YAXPEAU__crt_multibyte_data@@@Z 0000000180036a10     libucrt:mbctype.obj
 0004:00001a1c       $pdata$??$?RV<lambda_efdfa57d1f175319df784efa44bb7b81>@@AEAV<lambda_5f0a4c1567f8adc6734073e5d1e1b35c>@@V<lambda_2e8a7d3640ea6ccb4c2413664c2db6fd>@@@?$__crt_seh_guarded_call@X@@QEAAX$$QEAV<lambda_efdfa57d1f175319df784efa44bb7b81>@@AEAV<lambda_5f0a4c1567f8adc6734073e5d1e1b35c>@@$$QEAV<lambda_2e8a7d3640ea6ccb4c2413664c2db6fd>@@@Z 0000000180036a1c     libucrt:mbctype.obj
 0004:00001a28       $pdata$?x_ismbbtype_l@@YAHPEAU__crt_locale_pointers@@IHH@Z 0000000180036a28     libucrt:ismbbyte.obj
 0004:00001a34       $pdata$__acrt_initialize_command_line 0000000180036a34     libucrt:argv_data.obj
 0004:00001a40       $pdata$__acrt_WideCharToMultiByte 0000000180036a40     libucrt:widechartomultibyte.obj
 0004:00001a4c       $pdata$__dcrt_get_narrow_environment_from_os 0000000180036a4c     libucrt:get_environment_from_os.obj
 0004:00001a58       $pdata$__acrt_initialize_heap 0000000180036a58     libucrt:heap_handle.obj
 0004:00001a64       $pdata$__acrt_execute_initializers 0000000180036a64     libucrt:shared_initialization.obj
 0004:00001a70       $pdata$__acrt_execute_uninitializers 0000000180036a70     libucrt:shared_initialization.obj
 0004:00001a7c       $pdata$__acrt_get_sigabrt_handler 0000000180036a7c     libucrt:signal.obj
 0004:00001a88       $pdata$raise               0000000180036a88     libucrt:signal.obj
 0004:00001a94       $pdata$raise$fin$0         0000000180036a94     libucrt:signal.obj
 0004:00001aa0       $pdata$??$?RV<lambda_450d765d439847d4c735a33c368b5fc0>@@AEAV<lambda_44731a7d0e6d81c3e6aa82d741081786>@@V<lambda_601a2a7da3b7a96e9554ac7215c4b07c>@@@?$__crt_seh_guarded_call@P6AXH@Z@@QEAAP6AXH@Z$$QEAV<lambda_450d765d439847d4c735a33c368b5fc0>@@AEAV<lambda_44731a7d0e6d81c3e6aa82d741081786>@@$$QEAV<lambda_601a2a7da3b7a96e9554ac7215c4b07c>@@@Z 0000000180036aa0     libucrt:signal.obj
 0004:00001aac       $pdata$_fflush_nolock      0000000180036aac     libucrt:fflush.obj
 0004:00001ab8       $pdata$__acrt_stdio_flush_nolock 0000000180036ab8     libucrt:fflush.obj
 0004:00001ac4       $pdata$?common_flush_all@@YAH_N@Z 0000000180036ac4     libucrt:fflush.obj
 0004:00001ad0       $pdata$??$?RV<lambda_842d9ff0dc9ef11c61343bbaebe7f885>@@AEAV<lambda_c5860995281e5c4ce005b3de8f5874ee>@@V<lambda_d90129c13df834fdcbf8d2b88dafcf2d>@@@?$__crt_seh_guarded_call@X@@QEAAX$$QEAV<lambda_842d9ff0dc9ef11c61343bbaebe7f885>@@AEAV<lambda_c5860995281e5c4ce005b3de8f5874ee>@@$$QEAV<lambda_d90129c13df834fdcbf8d2b88dafcf2d>@@@Z 0000000180036ad0     libucrt:fflush.obj
 0004:00001adc       $pdata$?fin$0@?0???$?RV<lambda_842d9ff0dc9ef11c61343bbaebe7f885>@@AEAV<lambda_c5860995281e5c4ce005b3de8f5874ee>@@V<lambda_d90129c13df834fdcbf8d2b88dafcf2d>@@@?$__crt_seh_guarded_call@X@@QEAAX$$QEAV<lambda_842d9ff0dc9ef11c61343bbaebe7f885>@@AEAV<lambda_c5860995281e5c4ce005b3de8f5874ee>@@$$QEAV<lambda_d90129c13df834fdcbf8d2b88dafcf2d>@@@Z@4HA 0000000180036adc     libucrt:fflush.obj
 0004:00001ae8       $pdata$??$?RV<lambda_886d6c58226a84441f68b9f2b8217b83>@@AEAV<lambda_ab61a845afdef5b7c387490eaf3616ee>@@V<lambda_f7f22ab5edc0698d5f6905b0d3f44752>@@@?$__crt_seh_guarded_call@X@@QEAAX$$QEAV<lambda_886d6c58226a84441f68b9f2b8217b83>@@AEAV<lambda_ab61a845afdef5b7c387490eaf3616ee>@@$$QEAV<lambda_f7f22ab5edc0698d5f6905b0d3f44752>@@@Z 0000000180036ae8     libucrt:fflush.obj
 0004:00001af4       $pdata$?fin$0@?0???$?RV<lambda_886d6c58226a84441f68b9f2b8217b83>@@AEAV<lambda_ab61a845afdef5b7c387490eaf3616ee>@@V<lambda_f7f22ab5edc0698d5f6905b0d3f44752>@@@?$__crt_seh_guarded_call@X@@QEAAX$$QEAV<lambda_886d6c58226a84441f68b9f2b8217b83>@@AEAV<lambda_ab61a845afdef5b7c387490eaf3616ee>@@$$QEAV<lambda_f7f22ab5edc0698d5f6905b0d3f44752>@@@Z@4HA 0000000180036af4     libucrt:fflush.obj
 0004:00001b00       $pdata$__pctype_func       0000000180036b00     libucrt:ctype.obj
 0004:00001b0c       $pdata$iswctype            0000000180036b0c     libucrt:iswctype.obj
 0004:00001b18       $pdata$__acrt_release_locale_ref 0000000180036b18     libucrt:locale_refcounting.obj
 0004:00001b24       $pdata$__acrt_free_locale  0000000180036b24     libucrt:locale_refcounting.obj
 0004:00001b30       $pdata$__acrt_locale_free_lc_time_if_unreferenced 0000000180036b30     libucrt:locale_refcounting.obj
 0004:00001b3c       $pdata$__acrt_update_thread_locale_data 0000000180036b3c     libucrt:locale_refcounting.obj
 0004:00001b48       $pdata$__acrt_update_thread_locale_data$fin$0 0000000180036b48     libucrt:locale_refcounting.obj
 0004:00001b54       $pdata$_updatetlocinfoEx_nolock 0000000180036b54     libucrt:locale_refcounting.obj
 0004:00001b60       $pdata$__acrt_DownlevelLocaleNameToLCID 0000000180036b60     libucrt:lcidtoname_downlevel.obj
 0004:00001b6c       $pdata$_isleadbyte_l       0000000180036b6c     libucrt:_wctype.obj
 0004:00001b78       $pdata$?__mbrtowc_utf8@__crt_mbstring@@YA_KPEA_WPEBD_KPEAU_Mbstatet@@@Z 0000000180036b78     libucrt:mbrtowc.obj
 0004:00001b84       $pdata$?__mbsrtowcs_utf8@__crt_mbstring@@YA_KPEA_WPEAPEBD_KPEAU_Mbstatet@@@Z 0000000180036b84     libucrt:mbrtowc.obj
 0004:00001b90       $pdata$__acrt_fp_strflt_to_string 0000000180036b90     libucrt:_fptostr.obj
 0004:00001b9c       $pdata$memcpy_s            0000000180036b9c     libucrt:cfout.obj
 0004:00001ba8       $pdata$__acrt_fltout       0000000180036ba8     libucrt:cfout.obj
 0004:00001bb4       $pdata$?divide@__crt_strtox@@YA_KAEAUbig_integer@1@AEBU21@@Z 0000000180036bb4     libucrt:cfout.obj
 0004:00001bc0       $pdata$0$?divide@__crt_strtox@@YA_KAEAUbig_integer@1@AEBU21@@Z 0000000180036bc0     libucrt:cfout.obj
 0004:00001bcc       $pdata$1$?divide@__crt_strtox@@YA_KAEAUbig_integer@1@AEBU21@@Z 0000000180036bcc     libucrt:cfout.obj
 0004:00001bd8       $pdata$fegetround          0000000180036bd8     libucrt:fegetround.obj
 0004:00001be4       $pdata$_fcloseall          0000000180036be4     libucrt:closeall.obj
 0004:00001bf0       $pdata$_fcloseall$fin$0    0000000180036bf0     libucrt:closeall.obj
 0004:00001bfc       $pdata$__acrt_stdio_free_buffer_nolock 0000000180036bfc     libucrt:_freebuf.obj
 0004:00001c08       $pdata$_isatty             0000000180036c08     libucrt:isatty.obj
 0004:00001c14       $pdata$__acrt_locale_free_monetary 0000000180036c14     libucrt:initmon.obj
 0004:00001c20       $pdata$__acrt_locale_free_numeric 0000000180036c20     libucrt:initnum.obj
 0004:00001c2c       $pdata$__acrt_locale_free_time 0000000180036c2c     libucrt:inittime.obj
 0004:00001c38       $pdata$?free_crt_array_internal@@YAXQEAPEBX_K@Z 0000000180036c38     libucrt:inittime.obj
 0004:00001c44       $pdata$__acrt_GetStringTypeA 0000000180036c44     libucrt:getstringtypea.obj
 0004:00001c50       $pdata$_get_osfhandle      0000000180036c50     libucrt:osfinfo.obj
 0004:00001c5c       $pdata$_free_osfhnd        0000000180036c5c     libucrt:osfinfo.obj
 0004:00001c68       $pdata$__acrt_lowio_create_handle_array 0000000180036c68     libucrt:osfinfo.obj
 0004:00001c74       $pdata$__acrt_lowio_destroy_handle_array 0000000180036c74     libucrt:osfinfo.obj
 0004:00001c80       $pdata$__acrt_lowio_ensure_fh_exists 0000000180036c80     libucrt:osfinfo.obj
 0004:00001c8c       $pdata$qsort               0000000180036c8c     libucrt:qsort.obj
 0004:00001c98       $pdata$4$qsort             0000000180036c98     libucrt:qsort.obj
