 OPOSCoinAcceptor

 Timestamp is 5d429d90 (Thu Aug  1 17:06:40 2019)

 Preferred load address is 0000000180000000

 Start         Length     Name                   Class
 0001:00000000 000000c0H .text$di                CODE
 0001:000000c0 000200e0H .text$mn                CODE
 0001:000201a0 00000020H .text$mn$00             CODE
 0001:000201c0 00000400H .text$x                 CODE
 0001:000205c0 000000c0H .text$yd                CODE
 0002:00000000 00000618H .idata$5                DATA
 0002:00000618 00000010H .00cfg                  DATA
 0002:00000628 00000008H .CRT$XCA                DATA
 0002:00000630 00000008H .CRT$XCL                DATA
 0002:00000638 00000020H .CRT$XCU                DATA
 0002:00000658 00000008H .CRT$XCZ                DATA
 0002:00000660 00000008H .CRT$XIA                DATA
 0002:00000668 00000020H .CRT$XIC                DATA
 0002:00000688 00000008H .CRT$XIZ                DATA
 0002:00000690 00000008H .CRT$XLA                DATA
 0002:00000698 00000008H .CRT$XLZ                DATA
 0002:000006a0 00000008H .CRT$XPA                DATA
 0002:000006a8 00000010H .CRT$XPX                DATA
 0002:000006b8 00000008H .CRT$XPXA               DATA
 0002:000006c0 00000008H .CRT$XPZ                DATA
 0002:000006c8 00000008H .CRT$XTA                DATA
 0002:000006d0 00000010H .CRT$XTZ                DATA
 0002:000006d8 00000000H .gfids$y                DATA
 0002:000006e0 0000a0b8H .rdata                  DATA
 0002:0000a798 00000028H .rdata$T                DATA
 0002:0000a7c0 00000274H .rdata$r                DATA
 0002:0000aa34 0000040cH .rdata$zzzdbg           DATA
 0002:0000ae40 00000008H .rtc$IAA                DATA
 0002:0000ae48 00000008H .rtc$IZZ                DATA
 0002:0000ae50 00000008H .rtc$TAA                DATA
 0002:0000ae58 00000008H .rtc$TZZ                DATA
 0002:0000ae60 00000004H .tls                    DATA
 0002:0000ae64 00000004H .tls$                   DATA
 0002:0000ae68 00000008H .tls$ZZZ                DATA
 0002:0000ae70 00001610H .xdata                  DATA
 0002:0000c480 00000150H .xdata$x                DATA
 0002:0000c5d0 00000008H ATL$__a                 DATA
 0002:0000c5d8 00000008H ATL$__z                 DATA
 0002:0000c5e0 000000b0H .edata                  DATA
 0002:0000c690 00000078H .idata$2                DATA
 0002:0000c708 00000018H .idata$3                DATA
 0002:0000c720 00000618H .idata$4                DATA
 0002:0000cd38 00000c24H .idata$6                DATA
 0003:00000000 00000d78H .data                   DATA
 0003:00000d78 000000c8H .data$r                 DATA
 0003:00000e40 0000140cH .bss                    DATA
 0004:00000000 00001ed8H .pdata                  DATA
 0005:00000000 00000094H _RDATA                  DATA
 0006:00000000 00000220H .rsrc$01                DATA
 0006:00000220 00004058H .rsrc$02                DATA

  Address         Publics by Value              Rva+Base               Lib:Object

 0000:00000000       __guard_fids_count         0000000000000000     <absolute>
 0000:00000000       __guard_longjmp_count      0000000000000000     <absolute>
 0000:00000000       __guard_longjmp_table      0000000000000000     <absolute>
 0000:00000000       __hybrid_code_map          0000000000000000     <absolute>
 0000:00000000       __guard_iat_count          0000000000000000     <absolute>
 0000:00000000       __guard_iat_table          0000000000000000     <absolute>
 0000:00000000       __volatile_metadata        0000000000000000     <absolute>
 0000:00000000       __hybrid_code_map_count    0000000000000000     <absolute>
 0000:00000000       __enclave_config           0000000000000000     <absolute>
 0000:00000000       ___safe_se_handler_count   0000000000000000     <absolute>
 0000:00000000       __AbsoluteZero             0000000000000000     <absolute>
 0000:00000000       ___safe_se_handler_table   0000000000000000     <absolute>
 0000:00000000       __guard_fids_table         0000000000000000     <absolute>
 0000:00000000       __hybrid_auxiliary_iat     0000000000000000     <absolute>
 0000:00000000       __dynamic_value_reloc_table 0000000000000000     <absolute>
 0000:00000100       __guard_flags              0000000000000100     <absolute>
 0000:00000000       __ImageBase                0000000180000000     <linker-defined>
 0001:000000c0       ?DupWide@_CW@@AEAAXXZ      00000001800010c0 f   CWString.obj
 0001:000000e8       ?cw_dup@@YAXPEBDAEAHAEAPEA_W1@Z 00000001800010e8 f   CWString.obj
 0001:00000194       ?cw_memcpy@@YAHPEA_WPEBDH@Z 0000000180001194 f   CWString.obj
 0001:000001e0       ?cw_strcpy@@YAHPEA_WPEBD@Z 00000001800011e0 f   CWString.obj
 0001:000001f4       ??0CAtlComModule@ATL@@QEAA@XZ 00000001800011f4 f i OposVariant.obj
 0001:00000274       ??0CAtlWinModule@ATL@@QEAA@XZ 0000000180001274 f i OposVariant.obj
 0001:000002e0       ??0OposDispParms@@QEAA@PEAVOposVariant@@H@Z 00000001800012e0 f   OposVariant.obj
 0001:00000388       ??1OposDispParms@@QEAA@XZ  0000000180001388 f   OposVariant.obj
 0001:000003a0       ??_Estringdispid@CComTypeInfoHolder@ATL@@QEAAPEAXI@Z 00000001800013a0 f i OposVariant.obj
 0001:00000444       ?AtlWinModuleTerm@ATL@@YAJPEAU_ATL_WIN_MODULE70@1@PEAUHINSTANCE__@@@Z 0000000180001444 f i OposVariant.obj
 0001:000004f4       ?ChangeBSTR@OposVariant@@QEAAXPEAPEA_WAEAJ@Z 00000001800014f4 f   OposVariant.obj
 0001:00000554       ?ChangeLONG@OposVariant@@QEAAXPEAJAEAJ@Z 0000000180001554 f   OposVariant.obj
 0001:000005b0       ?GetLONG@OposVariant@@QEAAJXZ 00000001800015b0 f   OposVariant.obj
 0001:000005d4       ?SetBSTR@OposVariant@@QEAAXPEA_WAEAJ@Z 00000001800015d4 f   OposVariant.obj
 0001:00000614       ?SetBSTR_Copy@OposVariant@@QEAAXPEA_WAEAJ@Z 0000000180001614 f   OposVariant.obj
 0001:00000684       ?SetBSTR_InOutPtr@OposVariant@@QEAA_NPEAPEA_WAEAJ@Z 0000000180001684 f   OposVariant.obj
 0001:000006d4       ?SetBSTR_OutPtr@OposVariant@@QEAA_NPEAPEA_WAEAJ@Z 00000001800016d4 f   OposVariant.obj
 0001:000006f0       ?SetDispatch_Ptr@OposVariant@@QEAAXPEAUIDispatch@@AEAJ@Z 00000001800016f0 f   OposVariant.obj
 0001:00000748       ?SetLONG@OposVariant@@QEAAXJ@Z 0000000180001748 f   OposVariant.obj
 0001:00000778       ?SetLONG_Ptr@OposVariant@@QEAAXPEAJAEAJ@Z 0000000180001778 f   OposVariant.obj
 0001:000007c4       ?SetString@OposVariant@@QEAAXPEB_WAEAJ@Z 00000001800017c4 f   OposVariant.obj
 0001:00000828       ?SetVARIANT_BOOL@OposVariant@@QEAAXF@Z 0000000180001828 f   OposVariant.obj
 0001:00000860       ?SetVARIANT_BOOL_Ptr@OposVariant@@QEAAXPEAFAEAJ@Z 0000000180001860 f   OposVariant.obj
 0001:000008ac       ?Term@CAtlComModule@ATL@@QEAAXXZ 00000001800018ac f i OposVariant.obj
 0001:0000091c       ?_AtlInitializeCriticalSectionEx@ATL@@YAHPEAU_RTL_CRITICAL_SECTION@@KK@Z 000000018000191c f i OposVariant.obj
 0001:00000924       ?_AtlRaiseException@ATL@@YAXKK@Z 0000000180001924 f i OposVariant.obj
 0001:00000934       ?AddRef@?$CComObjectCached@VCComClassFactory@ATL@@@ATL@@UEAAKXZ 0000000180001934 f i CoinAcceptor.obj
 0001:00000960       ?Release@?$CComObjectCached@VCComClassFactory@ATL@@@ATL@@UEAAKXZ 0000000180001960 f i CoinAcceptor.obj
 0001:000009a0       ?QueryInterface@?$CComObjectCached@VCComClassFactory@ATL@@@ATL@@UEAAJAEBU_GUID@@PEAPEAX@Z 00000001800019a0 f i CoinAcceptor.obj
 0001:000009b4       ??_E?$CComObjectCached@VCComClassFactory@ATL@@@ATL@@UEAAPEAXI@Z 00000001800019b4 f i CoinAcceptor.obj
 0001:000009b4       ??_G?$CComObjectCached@VCComClassFactory@ATL@@@ATL@@UEAAPEAXI@Z 00000001800019b4 f i CoinAcceptor.obj
 0001:00000a0c       ?AddRef@?$CComAggObject@VCOPOSCoinAcceptor@@@ATL@@UEAAKXZ 0000000180001a0c f i CoinAcceptor.obj
 0001:00000a18       ?Release@?$CComAggObject@VCOPOSCoinAcceptor@@@ATL@@UEAAKXZ 0000000180001a18 f i CoinAcceptor.obj
 0001:00000a6c       ?QueryInterface@?$CComAggObject@VCOPOSCoinAcceptor@@@ATL@@UEAAJAEBU_GUID@@PEAPEAX@Z 0000000180001a6c f i CoinAcceptor.obj
 0001:00000acc       ?AddRef@?$CComContainedObject@VCOPOSCoinAcceptor@@@ATL@@UEAAKXZ 0000000180001acc f i CoinAcceptor.obj
 0001:00000adc       ?Release@?$CComContainedObject@VCOPOSCoinAcceptor@@@ATL@@UEAAKXZ 0000000180001adc f i CoinAcceptor.obj
 0001:00000aec       ?QueryInterface@?$CComContainedObject@VCOPOSCoinAcceptor@@@ATL@@UEAAJAEBU_GUID@@PEAPEAX@Z 0000000180001aec f i CoinAcceptor.obj
 0001:00000afc       ??_E?$CComAggObject@VCOPOSCoinAcceptor@@@ATL@@UEAAPEAXI@Z 0000000180001afc f i CoinAcceptor.obj
 0001:00000afc       ??_G?$CComAggObject@VCOPOSCoinAcceptor@@@ATL@@UEAAPEAXI@Z 0000000180001afc f i CoinAcceptor.obj
 0001:00000b54       ?AddRef@?$CComObject@VCOPOSCoinAcceptor@@@ATL@@UEAAKXZ 0000000180001b54 f i CoinAcceptor.obj
 0001:00000b64       ?Release@?$CComObject@VCOPOSCoinAcceptor@@@ATL@@UEAAKXZ 0000000180001b64 f i CoinAcceptor.obj
 0001:00000bbc       ?QueryInterface@?$CComObject@VCOPOSCoinAcceptor@@@ATL@@UEAAJAEBU_GUID@@PEAPEAX@Z 0000000180001bbc f i CoinAcceptor.obj
 0001:00000bd0       ?Lock@CAtlModule@ATL@@UEAAJXZ 0000000180001bd0 f i CoinAcceptor.obj
 0001:00000be0       ?Unlock@CAtlModule@ATL@@UEAAJXZ 0000000180001be0 f i CoinAcceptor.obj
 0001:00000bec       ?GetLockCount@CAtlModule@ATL@@UEAAJXZ 0000000180001bec f i CoinAcceptor.obj
 0001:00000bf0       ?GetGITPtr@CAtlModule@ATL@@UEAAJPEAPEAUIGlobalInterfaceTable@@@Z 0000000180001bf0 f i CoinAcceptor.obj
 0001:00000c60       ?AddCommonRGSReplacements@?$CAtlModuleT@VCComModule@ATL@@@ATL@@UEAAJPEAUIRegistrarBase@@@Z 0000000180001c60 f i CoinAcceptor.obj
 0001:00000c78       ?UpdateRegistryFromResourceD@CComModule@ATL@@UEAAJIHPEAU_ATL_REGMAP_ENTRY@2@@Z 0000000180001c78 f i CoinAcceptor.obj
 0001:00000c78       ?UpdateRegistryFromResourceD@CComModule@ATL@@UEAAJPEB_WHPEAU_ATL_REGMAP_ENTRY@2@@Z 0000000180001c78 f i CoinAcceptor.obj
 0001:00000c80       ?UpdateRegistryFromResource@CComModule@ATL@@UEAAJPEB_WHPEAU_ATL_REGMAP_ENTRY@2@@Z 0000000180001c80 f i CoinAcceptor.obj
 0001:00000c88       ?OnDrawAdvanced@CComControlBase@ATL@@UEAAJAEAUATL_DRAWINFO@@@Z 0000000180001c88 f i CoinAcceptor.obj
 0001:00000da8       ?UpdateRegistryFromResource@CComModule@ATL@@UEAAJIHPEAU_ATL_REGMAP_ENTRY@2@@Z 0000000180001da8 f i CoinAcceptor.obj
 0001:00000db0       ??_GCComModule@ATL@@UEAAPEAXI@Z 0000000180001db0 f i CoinAcceptor.obj
 0001:00000db0       ??_ECComModule@ATL@@UEAAPEAXI@Z 0000000180001db0 f i CoinAcceptor.obj
 0001:00000e30       ?Next@?$CComEnumImpl@UIEnumConnections@@$1?_GUID_b196b287_bab4_101a_b69c_00aa00341d07@@3U__s_GUID@@BUtagCONNECTDATA@@V?$_Copy@UtagCONNECTDATA@@@ATL@@@ATL@@UEAAJKPEAUtagCONNECTDATA@@PEAK@Z 0000000180001e30 f i CoinAcceptor.obj
 0001:00000f04       ?Skip@?$CComEnumImpl@UIEnumConnections@@$1?_GUID_b196b287_bab4_101a_b69c_00aa00341d07@@3U__s_GUID@@BUtagCONNECTDATA@@V?$_Copy@UtagCONNECTDATA@@@ATL@@@ATL@@UEAAJK@Z 0000000180001f04 f i CoinAcceptor.obj
 0001:00000f30       ?Reset@?$CComEnumImpl@UIEnumConnections@@$1?_GUID_b196b287_bab4_101a_b69c_00aa00341d07@@3U__s_GUID@@BUtagCONNECTDATA@@V?$_Copy@UtagCONNECTDATA@@@ATL@@@ATL@@UEAAJXZ 0000000180001f30 f i CoinAcceptor.obj
 0001:00000f30       ?Reset@?$CComEnumImpl@UIEnumConnectionPoints@@$1?_GUID_b196b285_bab4_101a_b69c_00aa00341d07@@3U__s_GUID@@BPEAUIConnectionPoint@@V?$_CopyInterface@UIConnectionPoint@@@ATL@@@ATL@@UEAAJXZ 0000000180001f30 f i CoinAcceptor.obj
 0001:00000f3c       ?Clone@?$CComEnumImpl@UIEnumConnections@@$1?_GUID_b196b287_bab4_101a_b69c_00aa00341d07@@3U__s_GUID@@BUtagCONNECTDATA@@V?$_Copy@UtagCONNECTDATA@@@ATL@@@ATL@@UEAAJPEAPEAUIEnumConnections@@@Z 0000000180001f3c f i CoinAcceptor.obj
 0001:00001068       ?AddRef@?$CComObject@V?$CComEnum@UIEnumConnections@@$1?_GUID_b196b287_bab4_101a_b69c_00aa00341d07@@3U__s_GUID@@BUtagCONNECTDATA@@V?$_Copy@UtagCONNECTDATA@@@ATL@@VCComSingleThreadModel@6@@ATL@@@ATL@@UEAAKXZ 0000000180002068 f i CoinAcceptor.obj
 0001:00001068       ?AddRef@?$CComObject@V?$CComEnum@UIEnumConnectionPoints@@$1?_GUID_b196b285_bab4_101a_b69c_00aa00341d07@@3U__s_GUID@@BPEAUIConnectionPoint@@V?$_CopyInterface@UIConnectionPoint@@@ATL@@VCComSingleThreadModel@6@@ATL@@@ATL@@UEAAKXZ 0000000180002068 f i CoinAcceptor.obj
 0001:00001074       ?Release@?$CComObject@V?$CComEnum@UIEnumConnectionPoints@@$1?_GUID_b196b285_bab4_101a_b69c_00aa00341d07@@3U__s_GUID@@BPEAUIConnectionPoint@@V?$_CopyInterface@UIConnectionPoint@@@ATL@@VCComSingleThreadModel@6@@ATL@@@ATL@@UEAAKXZ 0000000180002074 f i CoinAcceptor.obj
 0001:00001074       ?Release@?$CComObject@V?$CComEnum@UIEnumConnections@@$1?_GUID_b196b287_bab4_101a_b69c_00aa00341d07@@3U__s_GUID@@BUtagCONNECTDATA@@V?$_Copy@UtagCONNECTDATA@@@ATL@@VCComSingleThreadModel@6@@ATL@@@ATL@@UEAAKXZ 0000000180002074 f i CoinAcceptor.obj
 0001:000010c8       ?QueryInterface@?$CComObject@V?$CComEnum@UIEnumConnections@@$1?_GUID_b196b287_bab4_101a_b69c_00aa00341d07@@3U__s_GUID@@BUtagCONNECTDATA@@V?$_Copy@UtagCONNECTDATA@@@ATL@@VCComSingleThreadModel@6@@ATL@@@ATL@@UEAAJAEBU_GUID@@PEAPEAX@Z 00000001800020c8 f i CoinAcceptor.obj
 0001:000010dc       ??_G?$CComObject@V?$CComEnum@UIEnumConnections@@$1?_GUID_b196b287_bab4_101a_b69c_00aa00341d07@@3U__s_GUID@@BUtagCONNECTDATA@@V?$_Copy@UtagCONNECTDATA@@@ATL@@VCComSingleThreadModel@6@@ATL@@@ATL@@UEAAPEAXI@Z 00000001800020dc f i CoinAcceptor.obj
 0001:000010dc       ??_E?$CComObject@V?$CComEnum@UIEnumConnections@@$1?_GUID_b196b287_bab4_101a_b69c_00aa00341d07@@3U__s_GUID@@BUtagCONNECTDATA@@V?$_Copy@UtagCONNECTDATA@@@ATL@@VCComSingleThreadModel@6@@ATL@@@ATL@@UEAAPEAXI@Z 00000001800020dc f i CoinAcceptor.obj
 0001:00001134       ?ContextSensitiveHelp@?$IOleInPlaceActiveObjectImpl@VCOPOSCoinAcceptor@@@ATL@@UEAAJH@Z 0000000180002134 f i CoinAcceptor.obj
 0001:00001134       ?SetMoniker@?$IOleObjectImpl@VCOPOSCoinAcceptor@@@ATL@@UEAAJKPEAUIMoniker@@@Z 0000000180002134 f i CoinAcceptor.obj
 0001:00001134       ?QueryGetData@?$IDataObjectImpl@VCOPOSCoinAcceptor@@@ATL@@UEAAJPEAUtagFORMATETC@@@Z 0000000180002134 f i CoinAcceptor.obj
 0001:00001134       ?SOOutputCompleteDummy@COPOSCoinAcceptor@@MEAAJJ@Z 0000000180002134 f i CoinAcceptor.obj
 0001:00001134       ?GetCanonicalFormatEtc@?$IDataObjectImpl@VCOPOSCoinAcceptor@@@ATL@@UEAAJPEAUtagFORMATETC@@0@Z 0000000180002134 f i CoinAcceptor.obj
 0001:00001134       ?Unfreeze@?$IViewObjectExImpl@VCOPOSCoinAcceptor@@@ATL@@UEAAJK@Z 0000000180002134 f i CoinAcceptor.obj
 0001:00001134       ?QueryInterface@CRegObject@ATL@@UEAAJAEBU_GUID@@PEAPEAX@Z 0000000180002134 f i CoinAcceptor.obj
 0001:00001134       ?GetClipboardData@?$IOleObjectImpl@VCOPOSCoinAcceptor@@@ATL@@UEAAJKPEAPEAUIDataObject@@@Z 0000000180002134 f i CoinAcceptor.obj
 0001:00001134       ?GetColorSet@?$IViewObjectExImpl@VCOPOSCoinAcceptor@@@ATL@@UEAAJKJPEAXPEAUtagDVTARGETDEVICE@@PEAUHDC__@@PEAPEAUtagLOGPALETTE@@@Z 0000000180002134 f i CoinAcceptor.obj
 0001:00001134       ?OnMnemonic@?$IOleControlImpl@VCOPOSCoinAcceptor@@@ATL@@UEAAJPEAUtagMSG@@@Z 0000000180002134 f i CoinAcceptor.obj
 0001:00001134       ?SetData@?$IDataObjectImpl@VCOPOSCoinAcceptor@@@ATL@@UEAAJPEAUtagFORMATETC@@PEAUtagSTGMEDIUM@@H@Z 0000000180002134 f i CoinAcceptor.obj
 0001:00001134       ?ContextSensitiveHelp@?$IOleInPlaceObjectWindowlessImpl@VCOPOSCoinAcceptor@@@ATL@@UEAAJH@Z 0000000180002134 f i CoinAcceptor.obj
 0001:00001134       ?ReactivateAndUndo@?$IOleInPlaceObjectWindowlessImpl@VCOPOSCoinAcceptor@@@ATL@@UEAAJXZ 0000000180002134 f i CoinAcceptor.obj
 0001:00001134       ?Freeze@?$IViewObjectExImpl@VCOPOSCoinAcceptor@@@ATL@@UEAAJKJPEAXPEAK@Z 0000000180002134 f i CoinAcceptor.obj
 0001:00001134       ?GetDropTarget@?$IOleInPlaceObjectWindowlessImpl@VCOPOSCoinAcceptor@@@ATL@@UEAAJPEAPEAUIDropTarget@@@Z 0000000180002134 f i CoinAcceptor.obj
 0001:00001134       ?EnumFormatEtc@?$IDataObjectImpl@VCOPOSCoinAcceptor@@@ATL@@UEAAJKPEAPEAUIEnumFORMATETC@@@Z 0000000180002134 f i CoinAcceptor.obj
 0001:00001134       ?GetMoniker@?$IOleObjectImpl@VCOPOSCoinAcceptor@@@ATL@@UEAAJKKPEAPEAUIMoniker@@@Z 0000000180002134 f i CoinAcceptor.obj
 0001:00001134       ?GetRect@?$IViewObjectExImpl@VCOPOSCoinAcceptor@@@ATL@@UEAAJKPEAU_RECTL@@@Z 0000000180002134 f i CoinAcceptor.obj
 0001:00001134       ?SetColorScheme@?$IOleObjectImpl@VCOPOSCoinAcceptor@@@ATL@@UEAAJPEAUtagLOGPALETTE@@@Z 0000000180002134 f i CoinAcceptor.obj
 0001:00001134       ?InitFromData@?$IOleObjectImpl@VCOPOSCoinAcceptor@@@ATL@@UEAAJPEAUIDataObject@@HK@Z 0000000180002134 f i CoinAcceptor.obj
 0001:00001134       ?SOErrorDummy@COPOSCoinAcceptor@@MEAAJJJJPEAJ@Z 0000000180002134 f i CoinAcceptor.obj
 0001:00001134       ?GetControlInfo@?$IOleControlImpl@VCOPOSCoinAcceptor@@@ATL@@UEAAJPEAUtagCONTROLINFO@@@Z 0000000180002134 f i CoinAcceptor.obj
 0001:00001134       ?GetDataHere@?$IDataObjectImpl@VCOPOSCoinAcceptor@@@ATL@@UEAAJPEAUtagFORMATETC@@PEAUtagSTGMEDIUM@@@Z 0000000180002134 f i CoinAcceptor.obj
 0001:0000113c       ?FAccessAllowed@?$IObjectSafetyImpl@VCOPOSCoinAcceptor@@$02@ATL@@MEAAHXZ 000000018000213c f i CoinAcceptor.obj
 0001:0000113c       _get_startup_argv_mode     000000018000213c f i LIBCMT:argv_mode.obj
 0001:0000113c       ?AddRef@CRegObject@ATL@@UEAAKXZ 000000018000213c f i CoinAcceptor.obj
 0001:00001144       ?Release@CRegObject@ATL@@UEAAKXZ 0000000180002144 f i CoinAcceptor.obj
 0001:00001144       ?EnableModeless@?$IOleInPlaceActiveObjectImpl@VCOPOSCoinAcceptor@@@ATL@@UEAAJH@Z 0000000180002144 f i CoinAcceptor.obj
 0001:00001144       ?ResizeBorder@?$IOleInPlaceActiveObjectImpl@VCOPOSCoinAcceptor@@@ATL@@UEAAJPEBUtagRECT@@PEAUIOleInPlaceUIWindow@@H@Z 0000000180002144 f i CoinAcceptor.obj
 0001:00001144       ?Update@?$IOleObjectImpl@VCOPOSCoinAcceptor@@@ATL@@UEAAJXZ 0000000180002144 f i CoinAcceptor.obj
 0001:00001144       ?OnAmbientPropertyChange@?$IOleControlImpl@VCOPOSCoinAcceptor@@@ATL@@UEAAJJ@Z 0000000180002144 f i CoinAcceptor.obj
 0001:00001144       ?OnFrameWindowActivate@?$IOleInPlaceActiveObjectImpl@VCOPOSCoinAcceptor@@@ATL@@UEAAJH@Z 0000000180002144 f i CoinAcceptor.obj
 0001:00001144       ?SaveCompleted@?$IPersistStorageImpl@VCOPOSCoinAcceptor@@@ATL@@UEAAJPEAUIStorage@@@Z 0000000180002144 f i CoinAcceptor.obj
 0001:00001144       ?GetObjectDescription@?$CComCoClass@VCOPOSCoinAcceptor@@$1?CLSID_OPOSCoinAcceptor@@3U_GUID@@B@ATL@@SAPEB_WXZ 0000000180002144 f i CoinAcceptor.obj
 0001:00001144       ?GetCategoryMap@CComObjectRootBase@ATL@@SAPEBU_ATL_CATMAP_ENTRY@2@XZ 0000000180002144 f i CoinAcceptor.obj
 0001:00001144       ?IsUpToDate@?$IOleObjectImpl@VCOPOSCoinAcceptor@@@ATL@@UEAAJXZ 0000000180002144 f i CoinAcceptor.obj
 0001:00001144       ?SetHostNames@?$IOleObjectImpl@VCOPOSCoinAcceptor@@@ATL@@UEAAJPEB_W0@Z 0000000180002144 f i CoinAcceptor.obj
 0001:00001144       ?HandsOffStorage@?$IPersistStorageImpl@VCOPOSCoinAcceptor@@@ATL@@UEAAJXZ 0000000180002144 f i CoinAcceptor.obj
 0001:00001148       ?AddReplacement@CRegObject@ATL@@UEAAJPEB_W0@Z 0000000180002148 f i CoinAcceptor.obj
 0001:00001178       ?ClearReplacements@CRegObject@ATL@@UEAAJXZ 0000000180002178 f i CoinAcceptor.obj
 0001:00001184       ??_E?$CComObject@VCOPOSCoinAcceptor@@@ATL@@W7EAAPEAXI@Z 0000000180002184 f i CoinAcceptor.obj
 0001:00001190       ??_E?$CComObject@VCOPOSCoinAcceptor@@@ATL@@WHA@EAAPEAXI@Z 0000000180002190 f i CoinAcceptor.obj
 0001:0000119c       ?QueryInterface@?$CComObject@VCOPOSCoinAcceptor@@@ATL@@WLI@EAAJAEBU_GUID@@PEAPEAX@Z 000000018000219c f i CoinAcceptor.obj
 0001:000011a8       ?AddRef@?$CComObject@VCOPOSCoinAcceptor@@@ATL@@WLI@EAAKXZ 00000001800021a8 f i CoinAcceptor.obj
 0001:000011b4       ?Release@?$CComObject@VCOPOSCoinAcceptor@@@ATL@@WLI@EAAKXZ 00000001800021b4 f i CoinAcceptor.obj
 0001:000011c0       ?QueryInterface@?$CComObject@VCOPOSCoinAcceptor@@@ATL@@WMA@EAAJAEBU_GUID@@PEAPEAX@Z 00000001800021c0 f i CoinAcceptor.obj
 0001:000011cc       ?AddRef@?$CComObject@VCOPOSCoinAcceptor@@@ATL@@WMA@EAAKXZ 00000001800021cc f i CoinAcceptor.obj
 0001:000011d8       ?Release@?$CComObject@VCOPOSCoinAcceptor@@@ATL@@WMA@EAAKXZ 00000001800021d8 f i CoinAcceptor.obj
 0001:000011e4       ?QueryInterface@?$CComObject@VCOPOSCoinAcceptor@@@ATL@@WMI@EAAJAEBU_GUID@@PEAPEAX@Z 00000001800021e4 f i CoinAcceptor.obj
 0001:000011f0       ?AddRef@?$CComObject@VCOPOSCoinAcceptor@@@ATL@@WMI@EAAKXZ 00000001800021f0 f i CoinAcceptor.obj
 0001:000011fc       ?Release@?$CComObject@VCOPOSCoinAcceptor@@@ATL@@WMI@EAAKXZ 00000001800021fc f i CoinAcceptor.obj
 0001:00001208       ?QueryInterface@?$CComObject@VCOPOSCoinAcceptor@@@ATL@@WNA@EAAJAEBU_GUID@@PEAPEAX@Z 0000000180002208 f i CoinAcceptor.obj
 0001:00001214       ?AddRef@?$CComObject@VCOPOSCoinAcceptor@@@ATL@@WNA@EAAKXZ 0000000180002214 f i CoinAcceptor.obj
 0001:00001220       ?Release@?$CComObject@VCOPOSCoinAcceptor@@@ATL@@WNA@EAAKXZ 0000000180002220 f i CoinAcceptor.obj
 0001:0000122c       ?QueryInterface@?$CComObject@VCOPOSCoinAcceptor@@@ATL@@WNI@EAAJAEBU_GUID@@PEAPEAX@Z 000000018000222c f i CoinAcceptor.obj
 0001:00001238       ?AddRef@?$CComObject@VCOPOSCoinAcceptor@@@ATL@@WNI@EAAKXZ 0000000180002238 f i CoinAcceptor.obj
 0001:00001244       ?Release@?$CComObject@VCOPOSCoinAcceptor@@@ATL@@WNI@EAAKXZ 0000000180002244 f i CoinAcceptor.obj
 0001:00001250       ?QueryInterface@?$CComObject@VCOPOSCoinAcceptor@@@ATL@@WOA@EAAJAEBU_GUID@@PEAPEAX@Z 0000000180002250 f i CoinAcceptor.obj
 0001:0000125c       ?AddRef@?$CComObject@VCOPOSCoinAcceptor@@@ATL@@WOA@EAAKXZ 000000018000225c f i CoinAcceptor.obj
 0001:00001268       ??_ECRegObject@ATL@@UEAAPEAXI@Z 0000000180002268 f i CoinAcceptor.obj
 0001:00001268       ??_GCRegObject@ATL@@UEAAPEAXI@Z 0000000180002268 f i CoinAcceptor.obj
 0001:000012e8       ?Release@?$CComObject@VCOPOSCoinAcceptor@@@ATL@@WOA@EAAKXZ 00000001800022e8 f i CoinAcceptor.obj
 0001:000012f4       ?QueryInterface@?$CComObject@VCOPOSCoinAcceptor@@@ATL@@WOI@EAAJAEBU_GUID@@PEAPEAX@Z 00000001800022f4 f i CoinAcceptor.obj
 0001:00001300       ?AddRef@?$CComObject@VCOPOSCoinAcceptor@@@ATL@@WOI@EAAKXZ 0000000180002300 f i CoinAcceptor.obj
 0001:0000130c       ?Release@?$CComObject@VCOPOSCoinAcceptor@@@ATL@@WOI@EAAKXZ 000000018000230c f i CoinAcceptor.obj
 0001:00001318       ?QueryInterface@?$CComObject@VCOPOSCoinAcceptor@@@ATL@@WPA@EAAJAEBU_GUID@@PEAPEAX@Z 0000000180002318 f i CoinAcceptor.obj
 0001:00001324       ?AddRef@?$CComObject@VCOPOSCoinAcceptor@@@ATL@@WPA@EAAKXZ 0000000180002324 f i CoinAcceptor.obj
 0001:00001330       ?Release@?$CComObject@VCOPOSCoinAcceptor@@@ATL@@WPA@EAAKXZ 0000000180002330 f i CoinAcceptor.obj
 0001:0000133c       ?QueryInterface@?$CComObject@VCOPOSCoinAcceptor@@@ATL@@WPI@EAAJAEBU_GUID@@PEAPEAX@Z 000000018000233c f i CoinAcceptor.obj
 0001:00001348       ?AddRef@?$CComObject@VCOPOSCoinAcceptor@@@ATL@@WPI@EAAKXZ 0000000180002348 f i CoinAcceptor.obj
 0001:00001354       ?Release@?$CComObject@VCOPOSCoinAcceptor@@@ATL@@WPI@EAAKXZ 0000000180002354 f i CoinAcceptor.obj
 0001:00001360       ?QueryInterface@?$CComObject@VCOPOSCoinAcceptor@@@ATL@@WBAA@EAAJAEBU_GUID@@PEAPEAX@Z 0000000180002360 f i CoinAcceptor.obj
 0001:0000136c       ?AddRef@?$CComObject@VCOPOSCoinAcceptor@@@ATL@@WBAA@EAAKXZ 000000018000236c f i CoinAcceptor.obj
 0001:00001378       ?Release@?$CComObject@VCOPOSCoinAcceptor@@@ATL@@WBAA@EAAKXZ 0000000180002378 f i CoinAcceptor.obj
 0001:00001384       ?QueryInterface@?$CComObject@VCOPOSCoinAcceptor@@@ATL@@WBAI@EAAJAEBU_GUID@@PEAPEAX@Z 0000000180002384 f i CoinAcceptor.obj
 0001:00001390       ?AddRef@?$CComObject@VCOPOSCoinAcceptor@@@ATL@@WBAI@EAAKXZ 0000000180002390 f i CoinAcceptor.obj
 0001:0000139c       ?Release@?$CComObject@VCOPOSCoinAcceptor@@@ATL@@WBAI@EAAKXZ 000000018000239c f i CoinAcceptor.obj
 0001:000013a8       ?QueryInterface@?$CComObject@VCOPOSCoinAcceptor@@@ATL@@WBBA@EAAJAEBU_GUID@@PEAPEAX@Z 00000001800023a8 f i CoinAcceptor.obj
 0001:000013b4       ?AddRef@?$CComObject@VCOPOSCoinAcceptor@@@ATL@@WBBA@EAAKXZ 00000001800023b4 f i CoinAcceptor.obj
 0001:000013c0       ?Release@?$CComObject@VCOPOSCoinAcceptor@@@ATL@@WBBA@EAAKXZ 00000001800023c0 f i CoinAcceptor.obj
 0001:000013cc       ?QueryInterface@?$CComObject@VCOPOSCoinAcceptor@@@ATL@@WBBI@EAAJAEBU_GUID@@PEAPEAX@Z 00000001800023cc f i CoinAcceptor.obj
 0001:000013d8       ?AddRef@?$CComObject@VCOPOSCoinAcceptor@@@ATL@@WBBI@EAAKXZ 00000001800023d8 f i CoinAcceptor.obj
 0001:000013e4       ?Release@?$CComObject@VCOPOSCoinAcceptor@@@ATL@@WBBI@EAAKXZ 00000001800023e4 f i CoinAcceptor.obj
 0001:000013f0       ?AddRef@?$CComObject@VCOPOSCoinAcceptor@@@ATL@@WBCI@EAAKXZ 00000001800023f0 f i CoinAcceptor.obj
 0001:000013fc       ?Release@?$CComObject@VCOPOSCoinAcceptor@@@ATL@@WBCI@EAAKXZ 00000001800023fc f i CoinAcceptor.obj
 0001:00001408       ?AddRef@?$CComObject@VCOPOSCoinAcceptor@@@ATL@@WBEA@EAAKXZ 0000000180002408 f i CoinAcceptor.obj
 0001:00001414       ?Release@?$CComObject@VCOPOSCoinAcceptor@@@ATL@@WBEA@EAAKXZ 0000000180002414 f i CoinAcceptor.obj
 0001:00001420       ??_E?$CComContainedObject@VCOPOSCoinAcceptor@@@ATL@@W7EAAPEAXI@Z 0000000180002420 f i CoinAcceptor.obj
 0001:0000142c       ??_E?$CComContainedObject@VCOPOSCoinAcceptor@@@ATL@@WHA@EAAPEAXI@Z 000000018000242c f i CoinAcceptor.obj
 0001:00001438       ?QueryInterface@?$CComContainedObject@VCOPOSCoinAcceptor@@@ATL@@WLI@EAAJAEBU_GUID@@PEAPEAX@Z 0000000180002438 f i CoinAcceptor.obj
 0001:00001444       ?AddRef@?$CComContainedObject@VCOPOSCoinAcceptor@@@ATL@@WLI@EAAKXZ 0000000180002444 f i CoinAcceptor.obj
 0001:00001450       ?Release@?$CComContainedObject@VCOPOSCoinAcceptor@@@ATL@@WLI@EAAKXZ 0000000180002450 f i CoinAcceptor.obj
 0001:0000145c       ?QueryInterface@?$CComContainedObject@VCOPOSCoinAcceptor@@@ATL@@WMA@EAAJAEBU_GUID@@PEAPEAX@Z 000000018000245c f i CoinAcceptor.obj
 0001:00001468       ?AddRef@?$CComContainedObject@VCOPOSCoinAcceptor@@@ATL@@WMA@EAAKXZ 0000000180002468 f i CoinAcceptor.obj
 0001:00001474       ?Release@?$CComContainedObject@VCOPOSCoinAcceptor@@@ATL@@WMA@EAAKXZ 0000000180002474 f i CoinAcceptor.obj
 0001:00001480       ?QueryInterface@?$CComContainedObject@VCOPOSCoinAcceptor@@@ATL@@WMI@EAAJAEBU_GUID@@PEAPEAX@Z 0000000180002480 f i CoinAcceptor.obj
 0001:0000148c       ?AddRef@?$CComContainedObject@VCOPOSCoinAcceptor@@@ATL@@WMI@EAAKXZ 000000018000248c f i CoinAcceptor.obj
 0001:00001498       ?Release@?$CComContainedObject@VCOPOSCoinAcceptor@@@ATL@@WMI@EAAKXZ 0000000180002498 f i CoinAcceptor.obj
 0001:000014a4       ?QueryInterface@?$CComContainedObject@VCOPOSCoinAcceptor@@@ATL@@WNA@EAAJAEBU_GUID@@PEAPEAX@Z 00000001800024a4 f i CoinAcceptor.obj
 0001:000014b0       ?AddRef@?$CComContainedObject@VCOPOSCoinAcceptor@@@ATL@@WNA@EAAKXZ 00000001800024b0 f i CoinAcceptor.obj
 0001:000014bc       ?Release@?$CComContainedObject@VCOPOSCoinAcceptor@@@ATL@@WNA@EAAKXZ 00000001800024bc f i CoinAcceptor.obj
 0001:000014c8       ?QueryInterface@?$CComContainedObject@VCOPOSCoinAcceptor@@@ATL@@WNI@EAAJAEBU_GUID@@PEAPEAX@Z 00000001800024c8 f i CoinAcceptor.obj
 0001:000014d4       ?AddRef@?$CComContainedObject@VCOPOSCoinAcceptor@@@ATL@@WNI@EAAKXZ 00000001800024d4 f i CoinAcceptor.obj
 0001:000014e0       ?Release@?$CComContainedObject@VCOPOSCoinAcceptor@@@ATL@@WNI@EAAKXZ 00000001800024e0 f i CoinAcceptor.obj
 0001:000014ec       ?QueryInterface@?$CComContainedObject@VCOPOSCoinAcceptor@@@ATL@@WOA@EAAJAEBU_GUID@@PEAPEAX@Z 00000001800024ec f i CoinAcceptor.obj
 0001:000014f8       ?AddRef@?$CComContainedObject@VCOPOSCoinAcceptor@@@ATL@@WOA@EAAKXZ 00000001800024f8 f i CoinAcceptor.obj
 0001:00001504       ?Release@?$CComContainedObject@VCOPOSCoinAcceptor@@@ATL@@WOA@EAAKXZ 0000000180002504 f i CoinAcceptor.obj
 0001:00001510       ?QueryInterface@?$CComContainedObject@VCOPOSCoinAcceptor@@@ATL@@WOI@EAAJAEBU_GUID@@PEAPEAX@Z 0000000180002510 f i CoinAcceptor.obj
 0001:0000151c       ?AddRef@?$CComContainedObject@VCOPOSCoinAcceptor@@@ATL@@WOI@EAAKXZ 000000018000251c f i CoinAcceptor.obj
 0001:00001528       ?Release@?$CComContainedObject@VCOPOSCoinAcceptor@@@ATL@@WOI@EAAKXZ 0000000180002528 f i CoinAcceptor.obj
 0001:00001534       ?QueryInterface@?$CComContainedObject@VCOPOSCoinAcceptor@@@ATL@@WPA@EAAJAEBU_GUID@@PEAPEAX@Z 0000000180002534 f i CoinAcceptor.obj
 0001:00001540       ?AddRef@?$CComContainedObject@VCOPOSCoinAcceptor@@@ATL@@WPA@EAAKXZ 0000000180002540 f i CoinAcceptor.obj
 0001:0000154c       ?Release@?$CComContainedObject@VCOPOSCoinAcceptor@@@ATL@@WPA@EAAKXZ 000000018000254c f i CoinAcceptor.obj
 0001:00001558       ?QueryInterface@?$CComContainedObject@VCOPOSCoinAcceptor@@@ATL@@WPI@EAAJAEBU_GUID@@PEAPEAX@Z 0000000180002558 f i CoinAcceptor.obj
 0001:00001564       ?AddRef@?$CComContainedObject@VCOPOSCoinAcceptor@@@ATL@@WPI@EAAKXZ 0000000180002564 f i CoinAcceptor.obj
 0001:00001570       ?Release@?$CComContainedObject@VCOPOSCoinAcceptor@@@ATL@@WPI@EAAKXZ 0000000180002570 f i CoinAcceptor.obj
 0001:0000157c       ?QueryInterface@?$CComContainedObject@VCOPOSCoinAcceptor@@@ATL@@WBAA@EAAJAEBU_GUID@@PEAPEAX@Z 000000018000257c f i CoinAcceptor.obj
 0001:00001588       ?AddRef@?$CComContainedObject@VCOPOSCoinAcceptor@@@ATL@@WBAA@EAAKXZ 0000000180002588 f i CoinAcceptor.obj
 0001:00001594       ?Release@?$CComContainedObject@VCOPOSCoinAcceptor@@@ATL@@WBAA@EAAKXZ 0000000180002594 f i CoinAcceptor.obj
 0001:000015a0       ?QueryInterface@?$CComContainedObject@VCOPOSCoinAcceptor@@@ATL@@WBAI@EAAJAEBU_GUID@@PEAPEAX@Z 00000001800025a0 f i CoinAcceptor.obj
 0001:000015ac       ?AddRef@?$CComContainedObject@VCOPOSCoinAcceptor@@@ATL@@WBAI@EAAKXZ 00000001800025ac f i CoinAcceptor.obj
 0001:000015b8       ?Release@?$CComContainedObject@VCOPOSCoinAcceptor@@@ATL@@WBAI@EAAKXZ 00000001800025b8 f i CoinAcceptor.obj
 0001:000015c4       ?QueryInterface@?$CComContainedObject@VCOPOSCoinAcceptor@@@ATL@@WBBA@EAAJAEBU_GUID@@PEAPEAX@Z 00000001800025c4 f i CoinAcceptor.obj
 0001:000015d0       ?AddRef@?$CComContainedObject@VCOPOSCoinAcceptor@@@ATL@@WBBA@EAAKXZ 00000001800025d0 f i CoinAcceptor.obj
 0001:000015dc       ?Release@?$CComContainedObject@VCOPOSCoinAcceptor@@@ATL@@WBBA@EAAKXZ 00000001800025dc f i CoinAcceptor.obj
 0001:000015e8       ?QueryInterface@?$CComContainedObject@VCOPOSCoinAcceptor@@@ATL@@WBBI@EAAJAEBU_GUID@@PEAPEAX@Z 00000001800025e8 f i CoinAcceptor.obj
 0001:000015f4       ?AddRef@?$CComContainedObject@VCOPOSCoinAcceptor@@@ATL@@WBBI@EAAKXZ 00000001800025f4 f i CoinAcceptor.obj
 0001:00001600       ?Release@?$CComContainedObject@VCOPOSCoinAcceptor@@@ATL@@WBBI@EAAKXZ 0000000180002600 f i CoinAcceptor.obj
 0001:0000160c       ?AddRef@?$CComContainedObject@VCOPOSCoinAcceptor@@@ATL@@WBCI@EAAKXZ 000000018000260c f i CoinAcceptor.obj
 0001:00001618       ?Release@?$CComContainedObject@VCOPOSCoinAcceptor@@@ATL@@WBCI@EAAKXZ 0000000180002618 f i CoinAcceptor.obj
 0001:00001624       ?AddRef@?$CComContainedObject@VCOPOSCoinAcceptor@@@ATL@@WBEA@EAAKXZ 0000000180002624 f i CoinAcceptor.obj
 0001:00001630       ?Release@?$CComContainedObject@VCOPOSCoinAcceptor@@@ATL@@WBEA@EAAKXZ 0000000180002630 f i CoinAcceptor.obj
 0001:0000163c       ?GetWindowProc@?$CWindowImplBaseT@VCWindow@ATL@@V?$CWinTraits@$0FGAAAAAA@$0A@@2@@ATL@@UEAAP6A_JPEAUHWND__@@I_K_J@ZXZ 000000018000263c f i CoinAcceptor.obj
 0001:00001644       ?StartWindowProc@?$CWindowImplBaseT@VCWindow@ATL@@V?$CWinTraits@$0FGAAAAAA@$0A@@2@@ATL@@SA_JPEAUHWND__@@I_K_J@Z 0000000180002644 f i CoinAcceptor.obj
 0001:00001708       ?ObjectMain@CComObjectRootBase@ATL@@SAX_N@Z 0000000180002708 f i CoinAcceptor.obj
 0001:00001708       _guard_check_icall_nop     0000000180002708 f i LIBCMT:guard_support.obj
 0001:00001708       ?OnFinalMessage@?$CWindowImplBaseT@VCWindow@ATL@@V?$CWinTraits@$0FGAAAAAA@$0A@@2@@ATL@@UEAAXPEAUHWND__@@@Z 0000000180002708 f i CoinAcceptor.obj
 0001:0000170c       ?GetTypeInfoCount@?$IDispatchImpl@UIOPOSCoinAcceptor@@$1?IID_IOPOSCoinAcceptor@@3U_GUID@@B$1?LIBID_OposCoinAcceptor_CCO@@3U3@B$00$0A@VCComTypeInfoHolder@ATL@@@ATL@@UEAAJPEAI@Z 000000018000270c f i CoinAcceptor.obj
 0001:00001720       ?GetTypeInfo@?$IDispatchImpl@UIOPOSCoinAcceptor@@$1?IID_IOPOSCoinAcceptor@@3U_GUID@@B$1?LIBID_OposCoinAcceptor_CCO@@3U3@B$00$0A@VCComTypeInfoHolder@ATL@@@ATL@@UEAAJIKPEAPEAUITypeInfo@@@Z 0000000180002720 f i CoinAcceptor.obj
 0001:00001784       ?GetIDsOfNames@?$IDispatchImpl@UIOPOSCoinAcceptor@@$1?IID_IOPOSCoinAcceptor@@3U_GUID@@B$1?LIBID_OposCoinAcceptor_CCO@@3U3@B$00$0A@VCComTypeInfoHolder@ATL@@@ATL@@UEAAJAEBU_GUID@@PEAPEA_WIKPEAJ@Z 0000000180002784 f i CoinAcceptor.obj
 0001:00001790       ?Invoke@?$IDispatchImpl@UIOPOSCoinAcceptor@@$1?IID_IOPOSCoinAcceptor@@3U_GUID@@B$1?LIBID_OposCoinAcceptor_CCO@@3U3@B$00$0A@VCComTypeInfoHolder@ATL@@@ATL@@UEAAJJAEBU_GUID@@KGPEAUtagDISPPARAMS@@PEAUtagVARIANT@@PEAUtagEXCEPINFO@@PEAI@Z 0000000180002790 f i CoinAcceptor.obj
 0001:00001820       ?CreateControlWindow@?$CComControl@VCOPOSCoinAcceptor@@V?$CWindowImpl@VCOPOSCoinAcceptor@@VCWindow@ATL@@V?$CWinTraits@$0FGAAAAAA@$0A@@3@@ATL@@@ATL@@UEAAPEAUHWND__@@PEAU3@AEAUtagRECT@@@Z 0000000180002820 f i CoinAcceptor.obj
 0001:00001858       ?ControlQueryInterface@?$CComControl@VCOPOSCoinAcceptor@@V?$CWindowImpl@VCOPOSCoinAcceptor@@VCWindow@ATL@@V?$CWinTraits@$0FGAAAAAA@$0A@@3@@ATL@@@ATL@@UEAAJAEBU_GUID@@PEAPEAX@Z 0000000180002858 f i CoinAcceptor.obj
 0001:0000186c       ?GetUserClassID@?$IOleObjectImpl@VCOPOSCoinAcceptor@@@ATL@@UEAAJPEAU_GUID@@@Z 000000018000286c f i CoinAcceptor.obj
 0001:0000186c       ?GetClassID@?$IPersistStorageImpl@VCOPOSCoinAcceptor@@@ATL@@UEAAJPEAU_GUID@@@Z 000000018000286c f i CoinAcceptor.obj
 0001:0000186c       ?GetClassID@?$IPersistStreamInitImpl@VCOPOSCoinAcceptor@@@ATL@@UEAAJPEAU_GUID@@@Z 000000018000286c f i CoinAcceptor.obj
 0001:00001888       ?IsDirty@?$IPersistStreamInitImpl@VCOPOSCoinAcceptor@@@ATL@@UEAAJXZ 0000000180002888 f i CoinAcceptor.obj
 0001:000018a4       ?Load@?$IPersistStreamInitImpl@VCOPOSCoinAcceptor@@@ATL@@UEAAJPEAUIStream@@@Z 00000001800028a4 f i CoinAcceptor.obj
 0001:000018f4       ?Save@?$IPersistStreamInitImpl@VCOPOSCoinAcceptor@@@ATL@@UEAAJPEAUIStream@@H@Z 00000001800028f4 f i CoinAcceptor.obj
 0001:00001958       ?GetSizeMax@?$IPersistStreamInitImpl@VCOPOSCoinAcceptor@@@ATL@@UEAAJPEAT_ULARGE_INTEGER@@@Z 0000000180002958 f i CoinAcceptor.obj
 0001:00001b84       ?InitNew@?$IPersistStreamInitImpl@VCOPOSCoinAcceptor@@@ATL@@UEAAJXZ 0000000180002b84 f i CoinAcceptor.obj
 0001:00001b9c       ?SetClientSite@?$IOleObjectImpl@VCOPOSCoinAcceptor@@@ATL@@UEAAJPEAUIOleClientSite@@@Z 0000000180002b9c f i CoinAcceptor.obj
 0001:00001bb8       ?GetClientSite@?$IOleObjectImpl@VCOPOSCoinAcceptor@@@ATL@@UEAAJPEAPEAUIOleClientSite@@@Z 0000000180002bb8 f i CoinAcceptor.obj
 0001:00001c00       ?Close@?$IOleObjectImpl@VCOPOSCoinAcceptor@@@ATL@@UEAAJK@Z 0000000180002c00 f i CoinAcceptor.obj
 0001:00001c1c       ?DoVerb@?$IOleObjectImpl@VCOPOSCoinAcceptor@@@ATL@@UEAAJJPEAUtagMSG@@PEAUIOleClientSite@@JPEAUHWND__@@PEBUtagRECT@@@Z 0000000180002c1c f i CoinAcceptor.obj
 0001:00001dc0       ?EnumVerbs@?$IOleObjectImpl@VCOPOSCoinAcceptor@@@ATL@@UEAAJPEAPEAUIEnumOLEVERB@@@Z 0000000180002dc0 f i CoinAcceptor.obj
 0001:00001ddc       ?GetUserType@?$IOleObjectImpl@VCOPOSCoinAcceptor@@@ATL@@UEAAJKPEAPEA_W@Z 0000000180002ddc f i CoinAcceptor.obj
 0001:00001dec       ?SetExtent@?$IOleObjectImpl@VCOPOSCoinAcceptor@@@ATL@@UEAAJKPEAUtagSIZE@@@Z 0000000180002dec f i CoinAcceptor.obj
 0001:00001e08       ?GetExtent@?$IOleObjectImpl@VCOPOSCoinAcceptor@@@ATL@@UEAAJKPEAUtagSIZE@@@Z 0000000180002e08 f i CoinAcceptor.obj
 0001:00001e38       ?Advise@?$IOleObjectImpl@VCOPOSCoinAcceptor@@@ATL@@UEAAJPEAUIAdviseSink@@PEAK@Z 0000000180002e38 f i CoinAcceptor.obj
 0001:00001e94       ?Unadvise@?$IOleObjectImpl@VCOPOSCoinAcceptor@@@ATL@@UEAAJK@Z 0000000180002e94 f i CoinAcceptor.obj
 0001:00001ecc       ?EnumAdvise@?$IOleObjectImpl@VCOPOSCoinAcceptor@@@ATL@@UEAAJPEAPEAUIEnumSTATDATA@@@Z 0000000180002ecc f i CoinAcceptor.obj
 0001:00001f14       ?GetMiscStatus@?$IOleObjectImpl@VCOPOSCoinAcceptor@@@ATL@@UEAAJKPEAK@Z 0000000180002f14 f i CoinAcceptor.obj
 0001:00001f24       ?GetWindow@?$IOleInPlaceActiveObjectImpl@VCOPOSCoinAcceptor@@@ATL@@UEAAJPEAPEAUHWND__@@@Z 0000000180002f24 f i CoinAcceptor.obj
 0001:00001f78       ?TranslateAcceleratorW@?$IOleInPlaceActiveObjectImpl@VCOPOSCoinAcceptor@@@ATL@@UEAAJPEAUtagMSG@@@Z 0000000180002f78 f i CoinAcceptor.obj
 0001:0000206c       ?OnDocWindowActivate@?$IOleInPlaceActiveObjectImpl@VCOPOSCoinAcceptor@@@ATL@@UEAAJH@Z 000000018000306c f i CoinAcceptor.obj
 0001:00002098       ?Draw@?$IViewObjectExImpl@VCOPOSCoinAcceptor@@@ATL@@UEAAJKJPEAXPEAUtagDVTARGETDEVICE@@PEAUHDC__@@2PEBU_RECTL@@3P6AH_K@Z4@Z 0000000180003098 f i CoinAcceptor.obj
 0001:000020fc       ?SetAdvise@?$IViewObjectExImpl@VCOPOSCoinAcceptor@@@ATL@@UEAAJKKPEAUIAdviseSink@@@Z 00000001800030fc f i CoinAcceptor.obj
 0001:00002150       ?GetAdvise@?$IViewObjectExImpl@VCOPOSCoinAcceptor@@@ATL@@UEAAJPEAK0PEAPEAUIAdviseSink@@@Z 0000000180003150 f i CoinAcceptor.obj
 0001:0000218c       ?GetExtent@?$IViewObjectExImpl@VCOPOSCoinAcceptor@@@ATL@@UEAAJKJPEAUtagDVTARGETDEVICE@@PEAUtagSIZE@@@Z 000000018000318c f i CoinAcceptor.obj
 0001:000021bc       ?GetViewStatus@?$IViewObjectExImpl@VCOPOSCoinAcceptor@@@ATL@@UEAAJPEAK@Z 00000001800031bc f i CoinAcceptor.obj
 0001:000021d0       ?QueryHitPoint@?$IViewObjectExImpl@VCOPOSCoinAcceptor@@@ATL@@UEAAJKPEBUtagRECT@@UtagPOINT@@JPEAK@Z 00000001800031d0 f i CoinAcceptor.obj
 0001:00002214       ?QueryHitRect@?$IViewObjectExImpl@VCOPOSCoinAcceptor@@@ATL@@UEAAJKPEBUtagRECT@@0JPEAK@Z 0000000180003214 f i CoinAcceptor.obj
 0001:0000227c       ?GetNaturalExtent@?$IViewObjectExImpl@VCOPOSCoinAcceptor@@@ATL@@UEAAJKJPEAUtagDVTARGETDEVICE@@PEAUHDC__@@PEAUtagExtentInfo@@PEAUtagSIZE@@@Z 000000018000327c f i CoinAcceptor.obj
 0001:000022c4       ?GetWindow@?$IOleInPlaceObjectWindowlessImpl@VCOPOSCoinAcceptor@@@ATL@@UEAAJPEAPEAUHWND__@@@Z 00000001800032c4 f i CoinAcceptor.obj
 0001:00002318       ?InPlaceDeactivate@?$IOleInPlaceObjectWindowlessImpl@VCOPOSCoinAcceptor@@@ATL@@UEAAJXZ 0000000180003318 f i CoinAcceptor.obj
 0001:00002334       ?UIDeactivate@?$IOleInPlaceObjectWindowlessImpl@VCOPOSCoinAcceptor@@@ATL@@UEAAJXZ 0000000180003334 f i CoinAcceptor.obj
 0001:00002350       ?SetObjectRects@?$IOleInPlaceObjectWindowlessImpl@VCOPOSCoinAcceptor@@@ATL@@UEAAJPEBUtagRECT@@0@Z 0000000180003350 f i CoinAcceptor.obj
 0001:0000236c       ?OnWindowMessage@?$IOleInPlaceObjectWindowlessImpl@VCOPOSCoinAcceptor@@@ATL@@UEAAJI_K_JPEA_J@Z 000000018000336c f i CoinAcceptor.obj
 0001:00002434       ?EnumConnectionPoints@?$IConnectionPointContainerImpl@VCOPOSCoinAcceptor@@@ATL@@UEAAJPEAPEAUIEnumConnectionPoints@@@Z 0000000180003434 f i CoinAcceptor.obj
 0001:00002654       ?FindConnectionPoint@?$IConnectionPointContainerImpl@VCOPOSCoinAcceptor@@@ATL@@UEAAJAEBU_GUID@@PEAPEAUIConnectionPoint@@@Z 0000000180003654 f i CoinAcceptor.obj
 0001:00002724       ?IsDirty@?$IPersistStorageImpl@VCOPOSCoinAcceptor@@@ATL@@UEAAJXZ 0000000180003724 f i CoinAcceptor.obj
 0001:00002768       ?InitNew@?$IPersistStorageImpl@VCOPOSCoinAcceptor@@@ATL@@UEAAJPEAUIStorage@@@Z 0000000180003768 f i CoinAcceptor.obj
 0001:000027ac       ?Load@?$IPersistStorageImpl@VCOPOSCoinAcceptor@@@ATL@@UEAAJPEAUIStorage@@@Z 00000001800037ac f i CoinAcceptor.obj
 0001:0000284c       ?Save@?$IPersistStorageImpl@VCOPOSCoinAcceptor@@@ATL@@UEAAJPEAUIStorage@@H@Z 000000018000384c f i CoinAcceptor.obj
 0001:000028fc       ?GetPages@?$ISpecifyPropertyPagesImpl@VCOPOSCoinAcceptor@@@ATL@@UEAAJPEAUtagCAUUID@@@Z 00000001800038fc f i CoinAcceptor.obj
 0001:00002908       ?QuickActivate@?$IQuickActivateImpl@VCOPOSCoinAcceptor@@@ATL@@UEAAJPEAUtagQACONTAINER@@PEAUtagQACONTROL@@@Z 0000000180003908 f i CoinAcceptor.obj
 0001:00002924       ?SetContentExtent@?$IQuickActivateImpl@VCOPOSCoinAcceptor@@@ATL@@UEAAJPEAUtagSIZE@@@Z 0000000180003924 f i CoinAcceptor.obj
 0001:00002958       ?GetContentExtent@?$IQuickActivateImpl@VCOPOSCoinAcceptor@@@ATL@@UEAAJPEAUtagSIZE@@@Z 0000000180003958 f i CoinAcceptor.obj
 0001:00002990       ?GetData@?$IDataObjectImpl@VCOPOSCoinAcceptor@@@ATL@@UEAAJPEAUtagFORMATETC@@PEAUtagSTGMEDIUM@@@Z 0000000180003990 f i CoinAcceptor.obj
 0001:000029ac       ?DAdvise@?$IDataObjectImpl@VCOPOSCoinAcceptor@@@ATL@@UEAAJPEAUtagFORMATETC@@KPEAUIAdviseSink@@PEAK@Z 00000001800039ac f i CoinAcceptor.obj
 0001:00002a34       ?DUnadvise@?$IDataObjectImpl@VCOPOSCoinAcceptor@@@ATL@@UEAAJK@Z 0000000180003a34 f i CoinAcceptor.obj
 0001:00002a60       ?EnumDAdvise@?$IDataObjectImpl@VCOPOSCoinAcceptor@@@ATL@@UEAAJPEAPEAUIEnumSTATDATA@@@Z 0000000180003a60 f i CoinAcceptor.obj
 0001:00002a9c       ?GetClassInfoW@?$IProvideClassInfo2Impl@$1?CLSID_OPOSCoinAcceptor@@3U_GUID@@B$1?DIID__IOPOSCoinAcceptorEvents@@3U2@B$1?LIBID_OposCoinAcceptor_CCO@@3U2@B$00$0A@VCComTypeInfoHolder@ATL@@@ATL@@UEAAJPEAPEAUITypeInfo@@@Z 0000000180003a9c f i CoinAcceptor.obj
 0001:00002af4       ?GetGUID@?$IProvideClassInfo2Impl@$1?CLSID_OPOSCoinAcceptor@@3U_GUID@@B$1?DIID__IOPOSCoinAcceptorEvents@@3U2@B$1?LIBID_OposCoinAcceptor_CCO@@3U2@B$00$0A@VCComTypeInfoHolder@ATL@@@ATL@@UEAAJKPEAU_GUID@@@Z 0000000180003af4 f i CoinAcceptor.obj
 0001:00002b28       ?GetInterfaceSafetyOptions@?$IObjectSafetyImpl@VCOPOSCoinAcceptor@@$02@ATL@@UEAAJAEBU_GUID@@PEAK1@Z 0000000180003b28 f i CoinAcceptor.obj
 0001:00002bbc       ?SetInterfaceSafetyOptions@?$IObjectSafetyImpl@VCOPOSCoinAcceptor@@$02@ATL@@UEAAJAEBU_GUID@@KK@Z 0000000180003bbc f i CoinAcceptor.obj
 0001:00002c60       ?_LocCPQueryInterface@?$IConnectionPointImpl@VCOPOSCoinAcceptor@@$1?IID_IPropertyNotifySink@@3U_GUID@@BVCComDynamicUnkArray@ATL@@@ATL@@UEAAJAEBU_GUID@@PEAPEAX@Z 0000000180003c60 f i CoinAcceptor.obj
 0001:00002c60       ?_LocCPQueryInterface@?$IConnectionPointImpl@VCOPOSCoinAcceptor@@$1?DIID__IOPOSCoinAcceptorEvents@@3U_GUID@@BVCComDynamicUnkArray@ATL@@@ATL@@UEAAJAEBU_GUID@@PEAPEAX@Z 0000000180003c60 f i CoinAcceptor.obj
 0001:00002cd4       ?GetConnectionInterface@?$IConnectionPointImpl@VCOPOSCoinAcceptor@@$1?IID_IPropertyNotifySink@@3U_GUID@@BVCComDynamicUnkArray@ATL@@@ATL@@UEAAJPEAU_GUID@@@Z 0000000180003cd4 f i CoinAcceptor.obj
 0001:00002cf0       ?GetConnectionPointContainer@?$IConnectionPointImpl@VCOPOSCoinAcceptor@@$1?IID_IPropertyNotifySink@@3U_GUID@@BVCComDynamicUnkArray@ATL@@@ATL@@UEAAJPEAPEAUIConnectionPointContainer@@@Z 0000000180003cf0 f i CoinAcceptor.obj
 0001:00002d10       ?Advise@?$IConnectionPointImpl@VCOPOSCoinAcceptor@@$1?DIID__IOPOSCoinAcceptorEvents@@3U_GUID@@BVCComDynamicUnkArray@ATL@@@ATL@@UEAAJPEAUIUnknown@@PEAK@Z 0000000180003d10 f i CoinAcceptor.obj
 0001:00002d10       ?Advise@?$IConnectionPointImpl@VCOPOSCoinAcceptor@@$1?IID_IPropertyNotifySink@@3U_GUID@@BVCComDynamicUnkArray@ATL@@@ATL@@UEAAJPEAUIUnknown@@PEAK@Z 0000000180003d10 f i CoinAcceptor.obj
 0001:00002dd0       ?Unadvise@?$IConnectionPointImpl@VCOPOSCoinAcceptor@@$1?DIID__IOPOSCoinAcceptorEvents@@3U_GUID@@BVCComDynamicUnkArray@ATL@@@ATL@@UEAAJK@Z 0000000180003dd0 f i CoinAcceptor.obj
 0001:00002dd0       ?Unadvise@?$IConnectionPointImpl@VCOPOSCoinAcceptor@@$1?IID_IPropertyNotifySink@@3U_GUID@@BVCComDynamicUnkArray@ATL@@@ATL@@UEAAJK@Z 0000000180003dd0 f i CoinAcceptor.obj
 0001:00002e4c       ?EnumConnections@?$IConnectionPointImpl@VCOPOSCoinAcceptor@@$1?IID_IPropertyNotifySink@@3U_GUID@@BVCComDynamicUnkArray@ATL@@@ATL@@UEAAJPEAPEAUIEnumConnections@@@Z 0000000180003e4c f i CoinAcceptor.obj
 0001:00002e4c       ?EnumConnections@?$IConnectionPointImpl@VCOPOSCoinAcceptor@@$1?DIID__IOPOSCoinAcceptorEvents@@3U_GUID@@BVCComDynamicUnkArray@ATL@@@ATL@@UEAAJPEAPEAUIEnumConnections@@@Z 0000000180003e4c f i CoinAcceptor.obj
 0001:00002ff4       ?GetConnectionInterface@?$IConnectionPointImpl@VCOPOSCoinAcceptor@@$1?DIID__IOPOSCoinAcceptorEvents@@3U_GUID@@BVCComDynamicUnkArray@ATL@@@ATL@@UEAAJPEAU_GUID@@@Z 0000000180003ff4 f i CoinAcceptor.obj
 0001:00003010       ?GetConnectionPointContainer@?$IConnectionPointImpl@VCOPOSCoinAcceptor@@$1?DIID__IOPOSCoinAcceptorEvents@@3U_GUID@@BVCComDynamicUnkArray@ATL@@@ATL@@UEAAJPEAPEAUIConnectionPointContainer@@@Z 0000000180004010 f i CoinAcceptor.obj
 0001:00003030       ?UpdateRegistry@COPOSCoinAcceptor@@SAJH@Z 0000000180004030 f i CoinAcceptor.obj
 0001:00003048       ?ProcessWindowMessage@COPOSCoinAcceptor@@UEAAHPEAUHWND__@@I_K_JAEA_JK@Z 0000000180004048 f i CoinAcceptor.obj
 0001:000030d0       ?SOData@COPOSCoinAcceptor@@MEAAJJ@Z 00000001800040d0 f i CoinAcceptor.obj
 0001:00003120       ?SODirectIO@COPOSCoinAcceptor@@MEAAJJPEAJPEAPEA_W@Z 0000000180004120 f i CoinAcceptor.obj
 0001:00003198       ?SOStatusUpdate@COPOSCoinAcceptor@@MEAAJJ@Z 0000000180004198 f i CoinAcceptor.obj
 0001:000031e8       ?CreateInstance@?$CComCreator@V?$CComObjectCached@VCComClassFactory@ATL@@@ATL@@@ATL@@SAJPEAXAEBU_GUID@@PEAPEAX@Z 00000001800041e8 f i CoinAcceptor.obj
 0001:000032f0       ?CreateInstance@?$CComCreator2@V?$CComCreator@V?$CComObject@VCOPOSCoinAcceptor@@@ATL@@@ATL@@V?$CComCreator@V?$CComAggObject@VCOPOSCoinAcceptor@@@ATL@@@2@@ATL@@SAJPEAXAEBU_GUID@@PEAPEAX@Z 00000001800042f0 f i CoinAcceptor.obj
 0001:00003300       ?Next@?$CComEnumImpl@UIEnumConnectionPoints@@$1?_GUID_b196b285_bab4_101a_b69c_00aa00341d07@@3U__s_GUID@@BPEAUIConnectionPoint@@V?$_CopyInterface@UIConnectionPoint@@@ATL@@@ATL@@UEAAJKPEAPEAUIConnectionPoint@@PEAK@Z 0000000180004300 f i CoinAcceptor.obj
 0001:000033cc       ?Skip@?$CComEnumImpl@UIEnumConnectionPoints@@$1?_GUID_b196b285_bab4_101a_b69c_00aa00341d07@@3U__s_GUID@@BPEAUIConnectionPoint@@V?$_CopyInterface@UIConnectionPoint@@@ATL@@@ATL@@UEAAJK@Z 00000001800043cc f i CoinAcceptor.obj
 0001:000033f8       ?Clone@?$CComEnumImpl@UIEnumConnectionPoints@@$1?_GUID_b196b285_bab4_101a_b69c_00aa00341d07@@3U__s_GUID@@BPEAUIConnectionPoint@@V?$_CopyInterface@UIConnectionPoint@@@ATL@@@ATL@@UEAAJPEAPEAUIEnumConnectionPoints@@@Z 00000001800043f8 f i CoinAcceptor.obj
 0001:00003524       ?QueryInterface@?$CComObject@V?$CComEnum@UIEnumConnectionPoints@@$1?_GUID_b196b285_bab4_101a_b69c_00aa00341d07@@3U__s_GUID@@BPEAUIConnectionPoint@@V?$_CopyInterface@UIConnectionPoint@@@ATL@@VCComSingleThreadModel@6@@ATL@@@ATL@@UEAAJAEBU_GUID@@PEAPEAX@Z 0000000180004524 f i CoinAcceptor.obj
 0001:00003538       ??_E?$CComObject@V?$CComEnum@UIEnumConnectionPoints@@$1?_GUID_b196b285_bab4_101a_b69c_00aa00341d07@@3U__s_GUID@@BPEAUIConnectionPoint@@V?$_CopyInterface@UIConnectionPoint@@@ATL@@VCComSingleThreadModel@6@@ATL@@@ATL@@UEAAPEAXI@Z 0000000180004538 f i CoinAcceptor.obj
 0001:00003538       ??_G?$CComObject@V?$CComEnum@UIEnumConnectionPoints@@$1?_GUID_b196b285_bab4_101a_b69c_00aa00341d07@@3U__s_GUID@@BPEAUIConnectionPoint@@V?$_CopyInterface@UIConnectionPoint@@@ATL@@VCComSingleThreadModel@6@@ATL@@@ATL@@UEAAPEAXI@Z 0000000180004538 f i CoinAcceptor.obj
 0001:00003590       ?CreateInstance@CComClassFactory@ATL@@UEAAJPEAUIUnknown@@AEBU_GUID@@PEAPEAX@Z 0000000180004590 f i CoinAcceptor.obj
 0001:000035f0       ?LockServer@CComClassFactory@ATL@@UEAAJH@Z 00000001800045f0 f i CoinAcceptor.obj
 0001:00003614       ??_ECComClassFactory@ATL@@UEAAPEAXI@Z 0000000180004614 f i CoinAcceptor.obj
 0001:00003614       ??_GCComClassFactory@ATL@@UEAAPEAXI@Z 0000000180004614 f i CoinAcceptor.obj
 0001:00003664       ??$AtlModuleRegisterWndClassInfoT@VAtlModuleRegisterWndClassInfoParamW@ATL@@@ATL@@YAGPEAU_ATL_BASE_MODULE70@0@PEAU_ATL_WIN_MODULE70@0@PEAU_ATL_WNDCLASSINFOW@0@PEAP6A_JPEAUHWND__@@I_K_J@ZVAtlModuleRegisterWndClassInfoParamW@0@@Z 0000000180004664 f i CoinAcceptor.obj
 0001:00003864       ??0?$CComContainedObject@VCOPOSCoinAcceptor@@@ATL@@QEAA@PEAX@Z 0000000180004864 f i CoinAcceptor.obj
 0001:00003980       ??0?$CComObject@VCOPOSCoinAcceptor@@@ATL@@QEAA@PEAX@Z 0000000180004980 f i CoinAcceptor.obj
 0001:00003a98       ??0CAtlModule@ATL@@QEAA@XZ 0000000180004a98 f i CoinAcceptor.obj
 0001:00003b0c       ??1?$CComEnumImpl@UIEnumConnectionPoints@@$1?_GUID_b196b285_bab4_101a_b69c_00aa00341d07@@3U__s_GUID@@BPEAUIConnectionPoint@@V?$_CopyInterface@UIConnectionPoint@@@ATL@@@ATL@@UEAA@XZ 0000000180004b0c f i CoinAcceptor.obj
 0001:00003b68       ??1?$CComEnumImpl@UIEnumConnections@@$1?_GUID_b196b287_bab4_101a_b69c_00aa00341d07@@3U__s_GUID@@BUtagCONNECTDATA@@V?$_Copy@UtagCONNECTDATA@@@ATL@@@ATL@@UEAA@XZ 0000000180004b68 f i CoinAcceptor.obj
 0001:00003bc4       ??1?$CComObject@VCOPOSCoinAcceptor@@@ATL@@UEAA@XZ 0000000180004bc4 f i CoinAcceptor.obj
 0001:00003ce4       ??_E?$CComContainedObject@VCOPOSCoinAcceptor@@@ATL@@UEAAPEAXI@Z 0000000180004ce4 f i CoinAcceptor.obj
 0001:00003ce4       ??_G?$CComContainedObject@VCOPOSCoinAcceptor@@@ATL@@UEAAPEAXI@Z 0000000180004ce4 f i CoinAcceptor.obj
 0001:00003d18       ??_G?$CComObject@VCOPOSCoinAcceptor@@@ATL@@UEAAPEAXI@Z 0000000180004d18 f i CoinAcceptor.obj
 0001:00003d18       ??_E?$CComObject@VCOPOSCoinAcceptor@@@ATL@@UEAAPEAXI@Z 0000000180004d18 f i CoinAcceptor.obj
 0001:00003d4c       ?Add@?$CSimpleArray@GV?$CSimpleArrayEqualHelper@G@ATL@@@ATL@@QEAAHAEBG@Z 0000000180004d4c f i CoinAcceptor.obj
 0001:00003e00       ?Add@?$CSimpleMap@PEA_WPEA_WVCExpansionVectorEqualHelper@ATL@@@ATL@@QEAAHAEBQEA_W0@Z 0000000180004e00 f i CoinAcceptor.obj
 0001:00003ea0       ?Add@CComDynamicUnkArray@ATL@@QEAAKPEAUIUnknown@@@Z 0000000180004ea0 f i CoinAcceptor.obj
 0001:00003f88       ?Add@CExpansionVector@ATL@@QEAAHPEB_W0@Z 0000000180004f88 f i CoinAcceptor.obj
 0001:00004118       ?AddValue@CRegParser@ATL@@IEAAJAEAVCRegKey@2@PEB_WPEA_W@Z 0000000180005118 f i CoinAcceptor.obj
 0001:00004560       ?AllocateHeap@?$CTempBuffer@E$0BAA@VCCRTAllocator@ATL@@@ATL@@AEAAX_K@Z 0000000180005560 f i CoinAcceptor.obj
 0001:00004560       ?AllocateHeap@?$CTempBuffer@_W$0BAA@VCCRTAllocator@ATL@@@ATL@@AEAAX_K@Z 0000000180005560 f i CoinAcceptor.obj
 0001:00004560       ?AllocateHeap@?$CTempBuffer@_W$0EAA@VCCRTAllocator@ATL@@@ATL@@AEAAX_K@Z 0000000180005560 f i CoinAcceptor.obj
 0001:0000458c       ?Append@CParseBuffer@CRegParser@ATL@@QEAAHPEB_WH@Z 000000018000558c f i CoinAcceptor.obj
 0001:000046a4       ?AtlCallTermFunc@ATL@@YAXPEAU_ATL_MODULE70@1@@Z 00000001800056a4 f i CoinAcceptor.obj
 0001:00004708       ?AtlComModuleGetClassObject@ATL@@YAJPEAU_ATL_COM_MODULE70@1@AEBU_GUID@@1PEAPEAX@Z 0000000180005708 f i CoinAcceptor.obj
 0001:00004848       ?AtlComModuleRegisterServer@ATL@@YAJPEAU_ATL_COM_MODULE70@1@HPEBU_GUID@@@Z 0000000180005848 f i CoinAcceptor.obj
 0001:00004908       ?AtlComModuleUnregisterServer@ATL@@YAJPEAU_ATL_COM_MODULE70@1@HPEBU_GUID@@@Z 0000000180005908 f i CoinAcceptor.obj
 0001:000049c4       ?AtlCreateTargetDC@ATL@@YAPEAUHDC__@@PEAU2@PEAUtagDVTARGETDEVICE@@@Z 00000001800059c4 f i CoinAcceptor.obj
 0001:00004a38       ?AtlHiMetricToPixel@ATL@@YAXPEBUtagSIZE@@PEAU2@@Z 0000000180005a38 f i CoinAcceptor.obj
 0001:00004ae8       ?AtlHresultFromLastError@ATL@@YAJXZ 0000000180005ae8 f i CoinAcceptor.obj
 0001:00004b08       ?AtlHresultFromWin32@ATL@@YAJK@Z 0000000180005b08 f i CoinAcceptor.obj
 0001:00004b18       ?AtlIPersistStreamInit_Load@ATL@@YAJPEAUIStream@@PEBUATL_PROPMAP_ENTRY@1@PEAXPEAUIUnknown@@@Z 0000000180005b18 f i CoinAcceptor.obj
 0001:00004d50       ?AtlIPersistStreamInit_Save@ATL@@YAJPEAUIStream@@HPEBUATL_PROPMAP_ENTRY@1@PEAXPEAUIUnknown@@@Z 0000000180005d50 f i CoinAcceptor.obj
 0001:00004f88       ?AtlInternalOleLoadFromStream@ATL@@YAJPEAUIStream@@AEBU_GUID@@PEAPEAXTClassesAllowedInStream@1@K@Z 0000000180005f88 f i CoinAcceptor.obj
 0001:000050cc       ?AtlInternalQueryInterface@ATL@@YAJPEAXPEBU_ATL_INTMAP_ENTRY@1@AEBU_GUID@@PEAPEAX@Z 00000001800060cc f i CoinAcceptor.obj
 0001:000051d4       ?AtlLoadTypeLib@ATL@@YAJPEAUHINSTANCE__@@PEB_WPEAPEA_WPEAPEAUITypeLib@@@Z 00000001800061d4 f i CoinAcceptor.obj
 0001:00005430       ?AtlModuleAddTermFunc@ATL@@YAJPEAU_ATL_MODULE70@1@P6AX_K@Z1@Z 0000000180006430 f i CoinAcceptor.obj
 0001:000054c4       ?AtlRegisterClassCategoriesHelper@ATL@@YAJAEBU_GUID@@PEBU_ATL_CATMAP_ENTRY@1@H@Z 00000001800064c4 f i CoinAcceptor.obj
 0001:0000592c       ?AtlRegisterTypeLib@ATL@@YAJPEAUHINSTANCE__@@PEB_W@Z 000000018000692c f i CoinAcceptor.obj
 0001:00005b28       ?AtlThrowImpl@ATL@@YAXJ@Z  0000000180006b28 f i CoinAcceptor.obj
 0001:00005b4c       ?AtlUnRegisterTypeLib@ATL@@YAJPEAUHINSTANCE__@@PEB_W@Z 0000000180006b4c f i CoinAcceptor.obj
 0001:00005c14       ?AtlWinModuleExtractCreateWndData@ATL@@YAPEAXPEAU_ATL_WIN_MODULE70@1@@Z 0000000180006c14 f i CoinAcceptor.obj
 0001:00005ca0       ?Cleanup@CComTypeInfoHolder@ATL@@SAX_K@Z 0000000180006ca0 f i CoinAcceptor.obj
 0001:00005ce0       ?ClearReplacements@CExpansionVector@ATL@@QEAAJXZ 0000000180006ce0 f i CoinAcceptor.obj
 0001:00005d7c       ?CreateInstance@?$CComCreator@V?$CComAggObject@VCOPOSCoinAcceptor@@@ATL@@@ATL@@SAJPEAXAEBU_GUID@@PEAPEAX@Z 0000000180006d7c f i CoinAcceptor.obj
 0001:00005e54       ?CreateInstance@?$CComCreator@V?$CComObject@VCOPOSCoinAcceptor@@@ATL@@@ATL@@SAJPEAXAEBU_GUID@@PEAPEAX@Z 0000000180006e54 f i CoinAcceptor.obj
 0001:00005f0c       ?CreateInstance@?$CComObject@V?$CComEnum@UIEnumConnectionPoints@@$1?_GUID_b196b285_bab4_101a_b69c_00aa00341d07@@3U__s_GUID@@BPEAUIConnectionPoint@@V?$_CopyInterface@UIConnectionPoint@@@ATL@@VCComSingleThreadModel@6@@ATL@@@ATL@@SAJPEAPEAV12@@Z 0000000180006f0c f i CoinAcceptor.obj
 0001:00005f98       ?CreateInstance@?$CComObject@V?$CComEnum@UIEnumConnections@@$1?_GUID_b196b287_bab4_101a_b69c_00aa00341d07@@3U__s_GUID@@BUtagCONNECTDATA@@V?$_Copy@UtagCONNECTDATA@@@ATL@@VCComSingleThreadModel@6@@ATL@@@ATL@@SAJPEAPEAV12@@Z 0000000180006f98 f i CoinAcceptor.obj
 0001:00006024       ?DefaultReflectionHandler@?$CWindowImplRoot@VCWindow@ATL@@@ATL@@SAHPEAUHWND__@@I_K_JAEA_J@Z 0000000180007024 f i CoinAcceptor.obj
 0001:00006088       ?DeleteSubKey@CRegKey@ATL@@QEAAJPEB_W@Z 0000000180007088 f i CoinAcceptor.obj
 0001:00006120       ?DoEvent@COPOSCoinAcceptor@@IEAAXI_K_J@Z 0000000180007120 f i CoinAcceptor.obj
 0001:000061d4       ?DoVerbPrimary@?$IOleObjectImpl@VCOPOSCoinAcceptor@@@ATL@@QEAAJPEBUtagRECT@@PEAUHWND__@@@Z 00000001800071d4 f i CoinAcceptor.obj
 0001:00006300       ?DoVerbProperties@CComControlBase@ATL@@QEAAJPEBUtagRECT@@PEAUHWND__@@@Z 0000000180007300 f i CoinAcceptor.obj
 0001:00006528       ?FireTheEvent@?$CProxy_IOPOSEvents@VCOPOSCoinAcceptor@@@@IEAAXPEAVOposVariant@@IAEAJPEB_WJ@Z 0000000180007528 f i CoinAcceptor.obj
 0001:00006614       ?FireViewChange@CComControlBase@ATL@@QEAAJXZ 0000000180007614 f i CoinAcceptor.obj
 0001:00006678       ?Fire_DataEvent@?$CProxy_IOPOSEvents@VCOPOSCoinAcceptor@@@@QEAAXJ@Z 0000000180007678 f i CoinAcceptor.obj
 0001:00006764       ?Fire_DirectIOEvent@?$CProxy_IOPOSEvents@VCOPOSCoinAcceptor@@@@QEAAXJPEAJPEAPEA_W@Z 0000000180007764 f i CoinAcceptor.obj
 0001:000068bc       ?Fire_StatusUpdateEvent@?$CProxy_IOPOSEvents@VCOPOSCoinAcceptor@@@@QEAAXJ@Z 00000001800078bc f i CoinAcceptor.obj
 0001:000069a8       ?FreeHeap@?$CTempBuffer@_W$0BAA@VCCRTAllocator@ATL@@@ATL@@AEAAXXZ 00000001800079a8 f i CoinAcceptor.obj
 0001:000069a8       ?FreeHeap@?$CTempBuffer@E$0BAA@VCCRTAllocator@ATL@@@ATL@@AEAAXXZ 00000001800079a8 f i CoinAcceptor.obj
 0001:000069a8       ?FreeHeap@?$CTempBuffer@_W$0EAA@VCCRTAllocator@ATL@@@ATL@@AEAAXXZ 00000001800079a8 f i CoinAcceptor.obj
 0001:000069b0       ?GetAmbientLocaleID@CComControlBase@ATL@@QEAAJAEAK@Z 00000001800079b0 f i CoinAcceptor.obj
 0001:00006a70       ?GetAmbientUserMode@CComControlBase@ATL@@QEAAJAEAH@Z 0000000180007a70 f i CoinAcceptor.obj
 0001:00006b40       ?GetClassObject@CComModule@ATL@@QEAAJAEBU_GUID@@0PEAPEAX@Z 0000000180007b40 f i CoinAcceptor.obj
 0001:00006c34       ?GetConnMap@COPOSCoinAcceptor@@SAPEBU_ATL_CONNMAP_ENTRY@ATL@@PEAH@Z 0000000180007c34 f i CoinAcceptor.obj
 0001:00006cbc       ?GetIDsOfNames@CComTypeInfoHolder@ATL@@QEAAJAEBU_GUID@@PEAPEA_WIKPEAJ@Z 0000000180007cbc f i CoinAcceptor.obj
 0001:00006e34       ?GetPagesHelper@?$ISpecifyPropertyPagesImpl@VCOPOSCoinAcceptor@@@ATL@@IEAAJPEAUtagCAUUID@@PEBUATL_PROPMAP_ENTRY@2@@Z 0000000180007e34 f i CoinAcceptor.obj
 0001:00006fd4       ?GetSizeMax@CComVariant@ATL@@QEBAJPEAT_ULARGE_INTEGER@@@Z 0000000180007fd4 f i CoinAcceptor.obj
 0001:00007208       ?GetTI@CComTypeInfoHolder@ATL@@QEAAJK@Z 0000000180008208 f i CoinAcceptor.obj
 0001:00007480       ?GetZoomInfo@CComControlBase@ATL@@QEAAXAEAUATL_DRAWINFO@@@Z 0000000180008480 f i CoinAcceptor.obj
 0001:00007524       ?HKeyFromString@CRegParser@ATL@@KAPEAUHKEY__@@PEA_W@Z 0000000180008524 f i CoinAcceptor.obj
 0001:00007588       ?IDataObject_GetData@CComControlBase@ATL@@QEAAJPEAUtagFORMATETC@@PEAUtagSTGMEDIUM@@@Z 0000000180008588 f i CoinAcceptor.obj
 0001:0000777c       ?IOleInPlaceObject_InPlaceDeactivate@CComControlBase@ATL@@QEAAJXZ 000000018000877c f i CoinAcceptor.obj
 0001:0000781c       ?IOleInPlaceObject_SetObjectRects@CComControlBase@ATL@@QEAAJPEBUtagRECT@@0@Z 000000018000881c f i CoinAcceptor.obj
 0001:0000790c       ?IOleInPlaceObject_UIDeactivate@CComControlBase@ATL@@QEAAJXZ 000000018000890c f i CoinAcceptor.obj
 0001:00007a18       ?IOleObject_Close@CComControlBase@ATL@@QEAAJK@Z 0000000180008a18 f i CoinAcceptor.obj
 0001:00007b30       ?IOleObject_SetClientSite@CComControlBase@ATL@@QEAAJPEAUIOleClientSite@@@Z 0000000180008b30 f i CoinAcceptor.obj
 0001:00007ba8       ?IOleObject_SetExtent@CComControlBase@ATL@@QEAAJKPEAUtagSIZE@@@Z 0000000180008ba8 f i CoinAcceptor.obj
 0001:00007c40       ?IPSI_GetIPersistStreamInit@?$IPersistStorageImpl@VCOPOSCoinAcceptor@@@ATL@@AEAAPEAUIPersistStreamInit@@XZ 0000000180008c40 f i CoinAcceptor.obj
 0001:00007c9c       ?IQuickActivate_QuickActivate@CComControlBase@ATL@@QEAAJPEAUtagQACONTAINER@@PEAUtagQACONTROL@@@Z 0000000180008c9c f i CoinAcceptor.obj
 0001:00007f60       ?IViewObject_Draw@CComControlBase@ATL@@QEAAJKJPEAXPEAUtagDVTARGETDEVICE@@PEAUHDC__@@2PEBU_RECTL@@3@Z 0000000180008f60 f i CoinAcceptor.obj
 0001:00008074       ?InPlaceActivate@CComControlBase@ATL@@QEAAJJPEBUtagRECT@@@Z 0000000180009074 f i CoinAcceptor.obj
 0001:000083ac       ?Init@?$CComEnumImpl@UIEnumConnectionPoints@@$1?_GUID_b196b285_bab4_101a_b69c_00aa00341d07@@3U__s_GUID@@BPEAUIConnectionPoint@@V?$_CopyInterface@UIConnectionPoint@@@ATL@@@ATL@@QEAAJPEAPEAUIConnectionPoint@@0PEAUIUnknown@@W4CComEnumFlags@2@@Z 00000001800093ac f i CoinAcceptor.obj
 0001:000084cc       ?Init@?$CComEnumImpl@UIEnumConnections@@$1?_GUID_b196b287_bab4_101a_b69c_00aa00341d07@@3U__s_GUID@@BUtagCONNECTDATA@@V?$_Copy@UtagCONNECTDATA@@@ATL@@@ATL@@QEAAJPEAUtagCONNECTDATA@@0PEAUIUnknown@@W4CComEnumFlags@2@@Z 00000001800094cc f i CoinAcceptor.obj
 0001:000085f0       ?IsEqualObject@?$CComPtrBase@UITypeInfo@@@ATL@@QEAA_NPEAUIUnknown@@@Z 00000001800095f0 f i CoinAcceptor.obj
 0001:000085f0       ?IsEqualObject@?$CComPtrBase@UIOleClientSite@@@ATL@@QEAA_NPEAUIUnknown@@@Z 00000001800095f0 f i CoinAcceptor.obj
 0001:0000867c       ?LoadNameCache@CComTypeInfoHolder@ATL@@QEAAJPEAUITypeInfo@@@Z 000000018000967c f i CoinAcceptor.obj
 0001:00008800       ?Lookup@?$CSimpleMap@PEA_WPEA_WVCExpansionVectorEqualHelper@ATL@@@ATL@@QEBAPEA_WAEBQEA_W@Z 0000000180009800 f i CoinAcceptor.obj
 0001:0000888c       ?NextToken@CRegParser@ATL@@IEAAJPEA_W@Z 000000018000988c f i CoinAcceptor.obj
 0001:00008a44       ?OnKillFocus@CComControlBase@ATL@@QEAA_JI_K_JAEAH@Z 0000000180009a44 f i CoinAcceptor.obj
 0001:00008ae0       ?OnMouseActivate@CComControlBase@ATL@@QEAA_JI_K_JAEAH@Z 0000000180009ae0 f i CoinAcceptor.obj
 0001:00008b80       ?OnPaint@CComControlBase@ATL@@QEAA_JI_K_JAEAH@Z 0000000180009b80 f i CoinAcceptor.obj
 0001:00008c6c       ?OnSetFocus@CComControlBase@ATL@@QEAA_JI_K_JAEAH@Z 0000000180009c6c f i CoinAcceptor.obj
 0001:00008d68       ?Open@CRegKey@ATL@@QEAAJPEAUHKEY__@@PEB_WK@Z 0000000180009d68 f i CoinAcceptor.obj
 0001:00008df4       ?PreProcessBuffer@CRegParser@ATL@@QEAAJPEA_WPEAPEA_W@Z 0000000180009df4 f i CoinAcceptor.obj
 0001:00009178       ?ProcessWindowMessage@?$CComControl@VCOPOSCoinAcceptor@@V?$CWindowImpl@VCOPOSCoinAcceptor@@VCWindow@ATL@@V?$CWinTraits@$0FGAAAAAA@$0A@@3@@ATL@@@ATL@@UEAAHPEAUHWND__@@I_K_JAEA_JK@Z 000000018000a178 f i CoinAcceptor.obj
 0001:0000925c       ?PutProperty@?$CComPtr@UIDispatch@@@ATL@@SAJPEAUIDispatch@@JPEAUtagVARIANT@@@Z 000000018000a25c f i CoinAcceptor.obj
 0001:00009360       ?ReadFromStream@CComBSTR@ATL@@QEAAJPEAUIStream@@@Z 000000018000a360 f i CoinAcceptor.obj
 0001:000094bc       ?ReadFromStream@CComVariant@ATL@@QEAAJPEAUIStream@@GTClassesAllowedInStream@2@K@Z 000000018000a4bc f i CoinAcceptor.obj
 0001:000096cc       ?RecurseDeleteKey@CRegKey@ATL@@QEAAJPEB_W@Z 000000018000a6cc f i CoinAcceptor.obj
 0001:000097d8       ?RegCreateKeyExW@CAtlTransactionManager@ATL@@QEAAJPEAUHKEY__@@PEB_WKPEA_WKKQEAU_SECURITY_ATTRIBUTES@@PEAPEAU3@PEAK@Z 000000018000a7d8 f i CoinAcceptor.obj
 0001:0000990c       ?RegDeleteKeyW@CAtlTransactionManager@ATL@@QEAAJPEAUHKEY__@@PEB_W@Z 000000018000a90c f i CoinAcceptor.obj
 0001:00009998       ?RegOpenKeyExW@CAtlTransactionManager@ATL@@QEAAJPEAUHKEY__@@PEB_WKKPEAPEAU3@@Z 000000018000a998 f i CoinAcceptor.obj
 0001:00009a50       ?RegisterBuffer@CRegParser@ATL@@QEAAJPEA_WH@Z 000000018000aa50 f i CoinAcceptor.obj
 0001:00009bb8       ?RegisterFromResource@CRegObject@ATL@@IEAAJPEB_W00H@Z 000000018000abb8 f i CoinAcceptor.obj
 0001:00009d74       ?RegisterServer@CComModule@ATL@@QEAAJHPEBU_GUID@@@Z 000000018000ad74 f i CoinAcceptor.obj
 0001:00009e34       ?RegisterSubkeys@CRegParser@ATL@@IEAAJPEA_WPEAUHKEY__@@HH@Z 000000018000ae34 f i CoinAcceptor.obj
 0001:0000a528       ?SendOnDataChange@CComControlBase@ATL@@QEAAJK@Z 000000018000b528 f i CoinAcceptor.obj
 0001:0000a598       ?SetControlFocus@CComControlBase@ATL@@QEAAHH@Z 000000018000b598 f i CoinAcceptor.obj
 0001:0000a674       ?SkipAssignment@CRegParser@ATL@@IEAAJPEA_W@Z 000000018000b674 f i CoinAcceptor.obj
 0001:0000a718       ?Term@CComModule@ATL@@QEAAXXZ 000000018000b718 f i CoinAcceptor.obj
 0001:0000a7c4       ?UnregisterServer@CComModule@ATL@@QEAAJHPEBU_GUID@@@Z 000000018000b7c4 f i CoinAcceptor.obj
 0001:0000a874       ?UpdateRegistryFromResource@CAtlModule@ATL@@QEAAJIHPEAU_ATL_REGMAP_ENTRY@2@@Z 000000018000b874 f i CoinAcceptor.obj
 0001:0000abac       ?UpdateRegistryFromResource@CAtlModule@ATL@@QEAAJPEB_WHPEAU_ATL_REGMAP_ENTRY@2@@Z 000000018000bbac f i CoinAcceptor.obj
 0001:0000af04       ?VTFromRegType@CRegParser@ATL@@KAHPEB_WAEAG@Z 000000018000bf04 f i CoinAcceptor.obj
 0001:0000afa0       ?WindowProc@?$CWindowImplBaseT@VCWindow@ATL@@V?$CWinTraits@$0FGAAAAAA@$0A@@2@@ATL@@SA_JPEAUHWND__@@I_K_J@Z 000000018000bfa0 f i CoinAcceptor.obj
 0001:0000b10c       ?WriteToStream@CComBSTR@ATL@@QEAAJPEAUIStream@@@Z 000000018000c10c f i CoinAcceptor.obj
 0001:0000b18c       ?WriteToStream@CComVariant@ATL@@QEAAJPEAUIStream@@@Z 000000018000c18c f i CoinAcceptor.obj
 0001:0000b3a0       ?WriteToStream@CComVariant@ATL@@QEAAJPEAUIStream@@G@Z 000000018000c3a0 f i CoinAcceptor.obj
 0001:0000b438       ?_AtlVerifyStackAvailable@_ATL_SAFE_ALLOCA_IMPL@ATL@@YA_N_K@Z 000000018000c438 f i CoinAcceptor.obj
 0001:0000b4bc       ?atlCreate@?$CWindowImpl@VCOPOSCoinAcceptor@@VCWindow@ATL@@V?$CWinTraits@$0FGAAAAAA@$0A@@3@@ATL@@QEAAPEAUHWND__@@PEAU3@V_U_RECT@2@PEB_WKKV_U_MENUorID@2@PEAX@Z 000000018000c4bc f i CoinAcceptor.obj
 0001:0000b56c       ?atlCreate@?$CWindowImplBaseT@VCWindow@ATL@@V?$CWinTraits@$0FGAAAAAA@$0A@@2@@ATL@@QEAAPEAUHWND__@@PEAU3@V_U_RECT@2@PEB_WKKV_U_MENUorID@2@GPEAX@Z 000000018000c56c f i CoinAcceptor.obj
 0001:0000b6dc       ?atlCreate@CRegKey@ATL@@QEAAJPEAUHKEY__@@PEB_WPEA_WKKPEAU_SECURITY_ATTRIBUTES@@PEAK@Z 000000018000c6dc f i CoinAcceptor.obj
 0001:0000b7c8       DllCanUnloadNow            000000018000c7c8 f   CoinAcceptor.obj
 0001:0000b7d4       DllGetClassObject          000000018000c7d4 f   CoinAcceptor.obj
 0001:0000b7ec       DllMain                    000000018000c7ec f   CoinAcceptor.obj
 0001:0000b894       DllRegisterServer          000000018000c894 f   CoinAcceptor.obj
 0001:0000b8a8       DllUnregisterServer        000000018000c8a8 f   CoinAcceptor.obj
 0001:0000b8bc       __local_stdio_printf_options 000000018000c8bc f i CoinAcceptor.obj
 0001:0000b94c       swprintf_s                 000000018000c94c f i CoinAcceptor.obj
 0001:0000b9a0       ??0COPOSCoinAcceptor@@QEAA@XZ 000000018000c9a0 f   CoinAcceptorImpl.obj
 0001:0000ba64       ??1?$IConnectionPointImpl@VCOPOSCoinAcceptor@@$1?IID_IPropertyNotifySink@@3U_GUID@@BVCComDynamicUnkArray@ATL@@@ATL@@QEAA@XZ 000000018000ca64 f i CoinAcceptorImpl.obj
 0001:0000ba64       ??1?$IConnectionPointImpl@VCOPOSCoinAcceptor@@$1?DIID__IOPOSCoinAcceptorEvents@@3U_GUID@@BVCComDynamicUnkArray@ATL@@@ATL@@QEAA@XZ 000000018000ca64 f i CoinAcceptorImpl.obj
 0001:0000bac0       ??1CComControlBase@ATL@@UEAA@XZ 000000018000cac0 f i CoinAcceptorImpl.obj
 0001:0000bb3c       ??1COPOSCoinAcceptor@@UEAA@XZ 000000018000cb3c f   CoinAcceptorImpl.obj
 0001:0000bba0       ?AdjustCashCounts@COPOSCoinAcceptor@@UEAAJPEA_WPEAJ@Z 000000018000cba0 f   CoinAcceptorImpl.obj
 0001:0000bc28       ?BeginDeposit@COPOSCoinAcceptor@@UEAAJPEAJ@Z 000000018000cc28 f   CoinAcceptorImpl.obj
 0001:0000bc50       ?CheckHealth@COPOSCoinAcceptor@@UEAAJJPEAJ@Z 000000018000cc50 f   CoinAcceptorImpl.obj
 0001:0000bccc       ?ClaimDevice@COPOSCoinAcceptor@@UEAAJJPEAJ@Z 000000018000cccc f   CoinAcceptorImpl.obj
 0001:0000bd6c       ?ClearInput@COPOSCoinAcceptor@@UEAAJPEAJ@Z 000000018000cd6c f   CoinAcceptorImpl.obj
 0001:0000bd94       ?Close@COPOSCoinAcceptor@@UEAAJPEAJ@Z 000000018000cd94 f   CoinAcceptorImpl.obj
 0001:0000be4c       ?CompareFirmwareVersion@COPOSCoinAcceptor@@UEAAJPEA_WPEAJ1@Z 000000018000ce4c f   CoinAcceptorImpl.obj
 0001:0000bf28       ?DirectIO@COPOSCoinAcceptor@@UEAAJJPEAJPEAPEA_W0@Z 000000018000cf28 f   CoinAcceptorImpl.obj
 0001:0000c024       ?DoInvoke@COPOSCoinAcceptor@@IEAAJJPEAVOposVariant@@IHPEAJ_N@Z 000000018000d024 f   CoinAcceptorImpl.obj
 0001:0000c158       ?EndDeposit@COPOSCoinAcceptor@@UEAAJJPEAJ@Z 000000018000d158 f   CoinAcceptorImpl.obj
 0001:0000c1d4       ?EventInit@COPOSCoinAcceptor@@IEAAJXZ 000000018000d1d4 f i CoinAcceptorImpl.obj
 0001:0000c31c       ?EventUninit@COPOSCoinAcceptor@@IEAAXXZ 000000018000d31c f i CoinAcceptorImpl.obj
 0001:0000c380       ?EventWindowProc@COPOSCoinAcceptor@@IEAA_JI_K_J@Z 000000018000d380 f i CoinAcceptorImpl.obj
 0001:0000c4b4       ?FinalConstruct@COPOSCoinAcceptor@@QEAAJXZ 000000018000d4b4 f   CoinAcceptorImpl.obj
 0001:0000c4f0       ?FixDeposit@COPOSCoinAcceptor@@UEAAJPEAJ@Z 000000018000d4f0 f   CoinAcceptorImpl.obj
 0001:0000c518       ?FreezeEvents@COPOSCoinAcceptor@@MEAAJH@Z 000000018000d518 f   CoinAcceptorImpl.obj
 0001:0000c58c       ?GetOposProp@COPOSCoinAcceptor@@IEAAJJPEAJJ@Z 000000018000d58c f   CoinAcceptorImpl.obj
 0001:0000c6a8       ?GetOposProp@COPOSCoinAcceptor@@IEAAJJPEAPEA_WJ@Z 000000018000d6a8 f   CoinAcceptorImpl.obj
 0001:0000c7d4       ?OnDraw@COPOSCoinAcceptor@@MEAAJAEAUATL_DRAWINFO@@@Z 000000018000d7d4 f   CoinAcceptorImpl.obj
 0001:0000c8c0       ?Open@COPOSCoinAcceptor@@UEAAJPEA_WPEAJ@Z 000000018000d8c0 f   CoinAcceptorImpl.obj
 0001:0000d148       ?PauseDeposit@COPOSCoinAcceptor@@UEAAJJPEAJ@Z 000000018000e148 f   CoinAcceptorImpl.obj
 0001:0000d1c4       ?ReadCashCounts@COPOSCoinAcceptor@@UEAAJPEAPEA_WPEAFPEAJ@Z 000000018000e1c4 f   CoinAcceptorImpl.obj
 0001:0000d2a0       ?ReleaseDevice@COPOSCoinAcceptor@@UEAAJPEAJ@Z 000000018000e2a0 f   CoinAcceptorImpl.obj
 0001:0000d30c       ?ResetStatistics@COPOSCoinAcceptor@@UEAAJPEA_WPEAJ@Z 000000018000e30c f   CoinAcceptorImpl.obj
 0001:0000d394       ?RetrieveStatistics@COPOSCoinAcceptor@@UEAAJPEAPEA_WPEAJ@Z 000000018000e394 f   CoinAcceptorImpl.obj
 0001:0000d41c       ?SOProcessID@COPOSCoinAcceptor@@UEAAJPEAJ@Z 000000018000e41c f   CoinAcceptorImpl.obj
 0001:0000d438       ?SetCOFreezeEvents@COPOSCoinAcceptor@@IEAAXF@Z 000000018000e438 f   CoinAcceptorImpl.obj
 0001:0000d51c       ?SetOposProp@COPOSCoinAcceptor@@IEAAJJJJ@Z 000000018000e51c f   CoinAcceptorImpl.obj
 0001:0000d67c       ?SetOposProp@COPOSCoinAcceptor@@IEAAJJPEA_WJ@Z 000000018000e67c f   CoinAcceptorImpl.obj
 0001:0000d7d4       ?UpdateFirmware@COPOSCoinAcceptor@@UEAAJPEA_WPEAJ@Z 000000018000e7d4 f   CoinAcceptorImpl.obj
 0001:0000d85c       ?UpdateStatistics@COPOSCoinAcceptor@@UEAAJPEA_WPEAJ@Z 000000018000e85c f   CoinAcceptorImpl.obj
 0001:0000d8e4       ?get_BinaryConversion@COPOSCoinAcceptor@@UEAAJPEAJ@Z 000000018000e8e4 f   CoinAcceptorImpl.obj
 0001:0000d8f8       ?get_CapCompareFirmwareVersion@COPOSCoinAcceptor@@UEAAJPEAF@Z 000000018000e8f8 f   CoinAcceptorImpl.obj
 0001:0000d92c       ?get_CapDiscrepancy@COPOSCoinAcceptor@@UEAAJPEAF@Z 000000018000e92c f   CoinAcceptorImpl.obj
 0001:0000d960       ?get_CapFullSensor@COPOSCoinAcceptor@@UEAAJPEAF@Z 000000018000e960 f   CoinAcceptorImpl.obj
 0001:0000d994       ?get_CapJamSensor@COPOSCoinAcceptor@@UEAAJPEAF@Z 000000018000e994 f   CoinAcceptorImpl.obj
 0001:0000d9c8       ?get_CapNearFullSensor@COPOSCoinAcceptor@@UEAAJPEAF@Z 000000018000e9c8 f   CoinAcceptorImpl.obj
 0001:0000d9fc       ?get_CapPauseDeposit@COPOSCoinAcceptor@@UEAAJPEAF@Z 000000018000e9fc f   CoinAcceptorImpl.obj
 0001:0000da30       ?get_CapPowerReporting@COPOSCoinAcceptor@@UEAAJPEAJ@Z 000000018000ea30 f   CoinAcceptorImpl.obj
 0001:0000da44       ?get_CapRealTimeData@COPOSCoinAcceptor@@UEAAJPEAF@Z 000000018000ea44 f   CoinAcceptorImpl.obj
 0001:0000da78       ?get_CapStatisticsReporting@COPOSCoinAcceptor@@UEAAJPEAF@Z 000000018000ea78 f   CoinAcceptorImpl.obj
 0001:0000daac       ?get_CapUpdateFirmware@COPOSCoinAcceptor@@UEAAJPEAF@Z 000000018000eaac f   CoinAcceptorImpl.obj
 0001:0000dae0       ?get_CapUpdateStatistics@COPOSCoinAcceptor@@UEAAJPEAF@Z 000000018000eae0 f   CoinAcceptorImpl.obj
 0001:0000db14       ?get_CheckHealthText@COPOSCoinAcceptor@@UEAAJPEAPEA_W@Z 000000018000eb14 f   CoinAcceptorImpl.obj
 0001:0000db28       ?get_Claimed@COPOSCoinAcceptor@@UEAAJPEAF@Z 000000018000eb28 f   CoinAcceptorImpl.obj
 0001:0000db5c       ?get_ControlObjectDescription@COPOSCoinAcceptor@@UEAAJPEAPEA_W@Z 000000018000eb5c f   CoinAcceptorImpl.obj
 0001:0000dbc0       ?get_ControlObjectVersion@COPOSCoinAcceptor@@UEAAJPEAJ@Z 000000018000ebc0 f   CoinAcceptorImpl.obj
 0001:0000dbcc       ?get_CurrencyCode@COPOSCoinAcceptor@@UEAAJPEAPEA_W@Z 000000018000ebcc f   CoinAcceptorImpl.obj
 0001:0000dbe0       ?get_DataCount@COPOSCoinAcceptor@@UEAAJPEAJ@Z 000000018000ebe0 f   CoinAcceptorImpl.obj
 0001:0000dbf4       ?get_DataEventEnabled@COPOSCoinAcceptor@@UEAAJPEAF@Z 000000018000ebf4 f   CoinAcceptorImpl.obj
 0001:0000dc28       ?get_DepositAmount@COPOSCoinAcceptor@@UEAAJPEAJ@Z 000000018000ec28 f   CoinAcceptorImpl.obj
 0001:0000dc3c       ?get_DepositCashList@COPOSCoinAcceptor@@UEAAJPEAPEA_W@Z 000000018000ec3c f   CoinAcceptorImpl.obj
 0001:0000dc50       ?get_DepositCodeList@COPOSCoinAcceptor@@UEAAJPEAPEA_W@Z 000000018000ec50 f   CoinAcceptorImpl.obj
 0001:0000dc64       ?get_DepositCounts@COPOSCoinAcceptor@@UEAAJPEAPEA_W@Z 000000018000ec64 f   CoinAcceptorImpl.obj
 0001:0000dc78       ?get_DepositStatus@COPOSCoinAcceptor@@UEAAJPEAJ@Z 000000018000ec78 f   CoinAcceptorImpl.obj
 0001:0000dc8c       ?get_DeviceDescription@COPOSCoinAcceptor@@UEAAJPEAPEA_W@Z 000000018000ec8c f   CoinAcceptorImpl.obj
 0001:0000dca0       ?get_DeviceEnabled@COPOSCoinAcceptor@@UEAAJPEAF@Z 000000018000eca0 f   CoinAcceptorImpl.obj
 0001:0000dcd4       ?get_DeviceName@COPOSCoinAcceptor@@UEAAJPEAPEA_W@Z 000000018000ecd4 f   CoinAcceptorImpl.obj
 0001:0000dce8       ?get_FreezeEvents@COPOSCoinAcceptor@@UEAAJPEAF@Z 000000018000ece8 f   CoinAcceptorImpl.obj
 0001:0000dd18       ?get_FullStatus@COPOSCoinAcceptor@@UEAAJPEAJ@Z 000000018000ed18 f   CoinAcceptorImpl.obj
 0001:0000dd2c       ?get_OpenResult@COPOSCoinAcceptor@@UEAAJPEAJ@Z 000000018000ed2c f   CoinAcceptorImpl.obj
 0001:0000dd38       ?get_PowerNotify@COPOSCoinAcceptor@@UEAAJPEAJ@Z 000000018000ed38 f   CoinAcceptorImpl.obj
 0001:0000dd4c       ?get_PowerState@COPOSCoinAcceptor@@UEAAJPEAJ@Z 000000018000ed4c f   CoinAcceptorImpl.obj
 0001:0000dd60       ?get_RealTimeDataEnabled@COPOSCoinAcceptor@@UEAAJPEAF@Z 000000018000ed60 f   CoinAcceptorImpl.obj
 0001:0000dd94       ?get_ResultCode@COPOSCoinAcceptor@@UEAAJPEAJ@Z 000000018000ed94 f   CoinAcceptorImpl.obj
 0001:0000ddd0       ?get_ResultCodeExtended@COPOSCoinAcceptor@@UEAAJPEAJ@Z 000000018000edd0 f   CoinAcceptorImpl.obj
 0001:0000dde4       ?get_ServiceObjectDescription@COPOSCoinAcceptor@@UEAAJPEAPEA_W@Z 000000018000ede4 f   CoinAcceptorImpl.obj
 0001:0000ddf8       ?get_ServiceObjectVersion@COPOSCoinAcceptor@@UEAAJPEAJ@Z 000000018000edf8 f   CoinAcceptorImpl.obj
 0001:0000de0c       ?get_State@COPOSCoinAcceptor@@UEAAJPEAJ@Z 000000018000ee0c f   CoinAcceptorImpl.obj
 0001:0000de38       ?put_BinaryConversion@COPOSCoinAcceptor@@UEAAJJ@Z 000000018000ee38 f   CoinAcceptorImpl.obj
 0001:0000de4c       ?put_CurrencyCode@COPOSCoinAcceptor@@UEAAJPEA_W@Z 000000018000ee4c f   CoinAcceptorImpl.obj
 0001:0000de60       ?put_DataEventEnabled@COPOSCoinAcceptor@@UEAAJF@Z 000000018000ee60 f   CoinAcceptorImpl.obj
 0001:0000de78       ?put_DeviceEnabled@COPOSCoinAcceptor@@UEAAJF@Z 000000018000ee78 f   CoinAcceptorImpl.obj
 0001:0000de90       ?put_FreezeEvents@COPOSCoinAcceptor@@UEAAJF@Z 000000018000ee90 f   CoinAcceptorImpl.obj
 0001:0000dee0       ?put_PowerNotify@COPOSCoinAcceptor@@UEAAJJ@Z 000000018000eee0 f   CoinAcceptorImpl.obj
 0001:0000def4       ?s_EventWindowProc@COPOSCoinAcceptor@@KA_JPEAUHWND__@@I_K_J@Z 000000018000eef4 f i CoinAcceptorImpl.obj
 0001:0000df70       ??_U@YAPEAX_K@Z            000000018000ef70 f   LIBCMT:new_array.obj
 0001:0000df78       ??_V@YAXPEAX@Z             000000018000ef78 f   LIBCMT:delete_array.obj
 0001:0000df78       ??3@YAXPEAX_K@Z            000000018000ef78 f   LIBCMT:delete_scalar_size.obj
 0001:0000df80       ??_V@YAXPEAX_K@Z           000000018000ef80 f   LIBCMT:delete_array_size.obj
 0001:0000df88       __scrt_acquire_startup_lock 000000018000ef88 f   LIBCMT:utility.obj
 0001:0000dfc4       __scrt_dllmain_after_initialize_c 000000018000efc4 f   LIBCMT:utility.obj
 0001:0000dff8       __scrt_dllmain_before_initialize_c 000000018000eff8 f   LIBCMT:utility.obj
 0001:0000e010       __scrt_dllmain_crt_thread_attach 000000018000f010 f   LIBCMT:utility.obj
 0001:0000e038       __scrt_dllmain_crt_thread_detach 000000018000f038 f   LIBCMT:utility.obj
 0001:0000e050       __scrt_dllmain_exception_filter 000000018000f050 f   LIBCMT:utility.obj
 0001:0000e0b0       __scrt_dllmain_uninitialize_c 000000018000f0b0 f   LIBCMT:utility.obj
 0001:0000e0e0       __scrt_dllmain_uninitialize_critical 000000018000f0e0 f   LIBCMT:utility.obj
 0001:0000e0f4       __scrt_initialize_crt      000000018000f0f4 f   LIBCMT:utility.obj
 0001:0000e140       __scrt_initialize_onexit_tables 000000018000f140 f   LIBCMT:utility.obj
 0001:0000e1cc       __scrt_is_nonwritable_in_current_image 000000018000f1cc f   LIBCMT:utility.obj
 0001:0000e264       __scrt_release_startup_lock 000000018000f264 f   LIBCMT:utility.obj
 0001:0000e288       __scrt_uninitialize_crt    000000018000f288 f   LIBCMT:utility.obj
 0001:0000e2b4       _onexit                    000000018000f2b4 f   LIBCMT:utility.obj
 0001:0000e2f0       atexit                     000000018000f2f0 f   LIBCMT:utility.obj
 0001:0000e308       ??3@YAXPEAX@Z              000000018000f308 f   LIBCMT:delete_scalar.obj
 0001:0000e408       _Init_thread_footer        000000018000f408 f   LIBCMT:thread_safe_statics.obj
 0001:0000e468       _Init_thread_header        000000018000f468 f   LIBCMT:thread_safe_statics.obj
 0001:0000e4d0       _Init_thread_notify        000000018000f4d0 f   LIBCMT:thread_safe_statics.obj
 0001:0000e514       _Init_thread_wait          000000018000f514 f   LIBCMT:thread_safe_statics.obj
 0001:0000e578       __raise_securityfailure    000000018000f578 f   LIBCMT:gs_report.obj
 0001:0000e5ac       __report_gsfailure         000000018000f5ac f   LIBCMT:gs_report.obj
 0001:0000e680       __report_rangecheckfailure 000000018000f680 f   LIBCMT:gs_report.obj
 0001:0000e694       __report_securityfailure   000000018000f694 f   LIBCMT:gs_report.obj
 0001:0000e814       ??2@YAPEAX_KAEBUnothrow_t@std@@@Z 000000018000f814 f   LIBCMT:new_scalar_nothrow.obj
 0001:0000e834       ??_U@YAPEAX_KAEBUnothrow_t@std@@@Z 000000018000f834 f   LIBCMT:new_array_nothrow.obj
 0001:0000e83c       __GSHandlerCheck           000000018000f83c f   LIBCMT:gshandler.obj
 0001:0000e85c       __GSHandlerCheckCommon     000000018000f85c f   LIBCMT:gshandler.obj
 0001:0000e8b8       __GSHandlerCheck_SEH       000000018000f8b8 f   LIBCMT:gshandlerseh.obj
 0001:0000e950       _alloca_probe              000000018000f950 f   LIBCMT:chkstk.obj
 0001:0000e950       __chkstk                   000000018000f950 f   LIBCMT:chkstk.obj
 0001:0000e9c0       __security_check_cookie    000000018000f9c0 f   LIBCMT:amdsecgs.obj
 0001:0000ed04       _DllMainCRTStartup         000000018000fd04 f   LIBCMT:dll_dllmain.obj
 0001:0000ed44       ??2@YAPEAX_K@Z             000000018000fd44 f   LIBCMT:new_scalar.obj
 0001:0000ed80       __isa_available_init       000000018000fd80 f   LIBCMT:cpu_disp.obj
 0001:0000eefc       __scrt_is_ucrt_dll_in_use  000000018000fefc f   LIBCMT:ucrt_detection.obj
 0001:0000ef08       __crt_debugger_hook        000000018000ff08 f   LIBCMT:utility_desktop.obj
 0001:0000ef10       __scrt_fastfail            000000018000ff10 f   LIBCMT:utility_desktop.obj
 0001:0000f05c       __security_init_cookie     000000018001005c f   LIBCMT:gs_support.obj
 0001:0000f108       ?__scrt_initialize_type_info@@YAXXZ 0000000180010108 f   LIBCMT:tncleanup.obj
 0001:0000f118       ?__scrt_uninitialize_type_info@@YAXXZ 0000000180010118 f   LIBCMT:tncleanup.obj
 0001:0000f124       __local_stdio_scanf_options 0000000180010124 f i LIBCMT:default_local_stdio_options.obj
 0001:0000f12c       __scrt_initialize_default_local_stdio_options 000000018001012c f   LIBCMT:default_local_stdio_options.obj
 0001:0000f148       __scrt_get_dyn_tls_init_callback 0000000180010148 f   LIBCMT:dyn_tls_init.obj
 0001:0000f150       _RTC_Initialize            0000000180010150 f   LIBCMT:initsect.obj
 0001:0000f18c       _RTC_Terminate             000000018001018c f   LIBCMT:initsect.obj
 0001:0000f1c8       ??0bad_alloc@std@@QEAA@AEBV01@@Z 00000001800101c8 f i LIBCMT:throw_bad_alloc.obj
 0001:0000f204       ??0bad_alloc@std@@QEAA@XZ  0000000180010204 f i LIBCMT:throw_bad_alloc.obj
 0001:0000f224       ??0bad_array_new_length@std@@QEAA@AEBV01@@Z 0000000180010224 f i LIBCMT:throw_bad_alloc.obj
 0001:0000f260       ??0bad_array_new_length@std@@QEAA@XZ 0000000180010260 f i LIBCMT:throw_bad_alloc.obj
 0001:0000f280       ??0exception@std@@QEAA@AEBV01@@Z 0000000180010280 f i LIBCMT:throw_bad_alloc.obj
 0001:0000f2b4       ??1bad_alloc@std@@UEAA@XZ  00000001800102b4 f i LIBCMT:throw_bad_alloc.obj
 0001:0000f2b4       ??1bad_array_new_length@std@@UEAA@XZ 00000001800102b4 f i LIBCMT:throw_bad_alloc.obj
 0001:0000f2b4       ??1bad_exception@std@@UEAA@XZ 00000001800102b4 f i libvcruntime:frame.obj
 0001:0000f2c8       ??_Gbad_alloc@std@@UEAAPEAXI@Z 00000001800102c8 f i LIBCMT:throw_bad_alloc.obj
 0001:0000f2c8       ??_Gbad_array_new_length@std@@UEAAPEAXI@Z 00000001800102c8 f i LIBCMT:throw_bad_alloc.obj
 0001:0000f2c8       ??_Ebad_exception@std@@UEAAPEAXI@Z 00000001800102c8 f i libvcruntime:frame.obj
 0001:0000f2c8       ??_Ebad_array_new_length@std@@UEAAPEAXI@Z 00000001800102c8 f i LIBCMT:throw_bad_alloc.obj
 0001:0000f2c8       ??_Gexception@std@@UEAAPEAXI@Z 00000001800102c8 f i LIBCMT:throw_bad_alloc.obj
 0001:0000f2c8       ??_Gbad_exception@std@@UEAAPEAXI@Z 00000001800102c8 f i libvcruntime:frame.obj
 0001:0000f2c8       ??_Eexception@std@@UEAAPEAXI@Z 00000001800102c8 f i LIBCMT:throw_bad_alloc.obj
 0001:0000f2c8       ??_Ebad_alloc@std@@UEAAPEAXI@Z 00000001800102c8 f i LIBCMT:throw_bad_alloc.obj
 0001:0000f30c       ?__scrt_throw_std_bad_alloc@@YAXXZ 000000018001030c f   LIBCMT:throw_bad_alloc.obj
 0001:0000f32c       ?__scrt_throw_std_bad_array_new_length@@YAXXZ 000000018001032c f   LIBCMT:throw_bad_alloc.obj
 0001:0000f34c       ?what@exception@std@@UEBAPEBDXZ 000000018001034c f i LIBCMT:throw_bad_alloc.obj
 0001:0000f360       ??_Etype_info@@UEAAPEAXI@Z 0000000180010360 f i LIBCMT:std_type_info_static.obj
 0001:0000f360       ??_Gtype_info@@UEAAPEAXI@Z 0000000180010360 f i LIBCMT:std_type_info_static.obj
 0001:0000f38c       ??0CAtlBaseModule@ATL@@QEAA@XZ 000000018001038c f   atls:atlbase.obj
 0001:0000f434       ??1CAtlBaseModule@ATL@@QEAA@XZ 0000000180010434 f   atls:atlbase.obj
 0001:0000f568       ?__AllocStdCallThunk_cmn@@YAPEAXXZ 0000000180010568 f   atls:atlthunk.obj
 0001:0000f6c0       AtlThunk_AllocateData      00000001800106c0 f   atls:atlthunk.obj
 0001:0000f73c       AtlThunk_DataToCode        000000018001073c f   atls:atlthunk.obj
 0001:0000f790       AtlThunk_FreeData          0000000180010790 f   atls:atlthunk.obj
 0001:0000f7f0       AtlThunk_InitData          00000001800107f0 f   atls:atlthunk.obj
 0001:0000f898       _purecall                  0000000180010898 f   libvcruntime:purevirt.obj
 0001:0000f8b4       wcsstr                     00000001800108b4 f   libvcruntime:wcsstr.obj
 0001:0000fae0       memcmp                     0000000180010ae0 f   libvcruntime:memcmp.obj
 0001:0000fbc0       memcpy_repmovs             0000000180010bc0 f   libvcruntime:memcpy.obj
 0001:0000fbe0       memcpy                     0000000180010be0 f   libvcruntime:memcpy.obj
 0001:0000fbe0       memmove                    0000000180010be0 f   libvcruntime:memcpy.obj
 0001:0000ffd0       memset_repmovs             0000000180010fd0 f   libvcruntime:memset.obj
 0001:0000fff0       memset                     0000000180010ff0 f   libvcruntime:memset.obj
 0001:00010180       __vcrt_initialize          0000000180011180 f   libvcruntime:initialization.obj
 0001:000101a8       __vcrt_thread_attach       00000001800111a8 f   libvcruntime:initialization.obj
 0001:000101bc       __vcrt_thread_detach       00000001800111bc f   libvcruntime:initialization.obj
 0001:000101d0       __vcrt_uninitialize        00000001800111d0 f   libvcruntime:initialization.obj
 0001:000101ec       __vcrt_uninitialize_critical 00000001800111ec f   libvcruntime:initialization.obj
 0001:000101fc       __C_specific_handler       00000001800111fc f   libvcruntime:riscchandler.obj
 0001:00010408       ??$_CallSETranslator@V__FrameHandler3@@@@YAHPEAUEHExceptionRecord@@PEA_KPEAU_CONTEXT@@PEAU_xDISPATCHER_CONTEXT@@PEBU_s_FuncInfo@@K1@Z 0000000180011408 f i libvcruntime:risctrnsctrl.obj
 0001:0001045c       ?CatchTryBlock@__FrameHandler3@@SAPEBU_s_TryBlockMapEntry@@PEBU_s_FuncInfo@@H@Z 000000018001145c f   libvcruntime:risctrnsctrl.obj
 0001:000104b0       ?ExecutionInCatch@__FrameHandler3@@SA_NPEAU_xDISPATCHER_CONTEXT@@PEBU_s_FuncInfo@@@Z 00000001800114b0 f   libvcruntime:risctrnsctrl.obj
 0001:000104dc       ?FrameUnwindToEmptyState@__FrameHandler3@@SAXPEA_KPEAU_xDISPATCHER_CONTEXT@@PEBU_s_FuncInfo@@@Z 00000001800114dc f   libvcruntime:risctrnsctrl.obj
 0001:00010540       ?GetEstablisherFrame@__FrameHandler3@@SAPEA_KPEA_KPEAU_xDISPATCHER_CONTEXT@@PEBU_s_FuncInfo@@0@Z 0000000180011540 f   libvcruntime:risctrnsctrl.obj
 0001:0001060c       ?GetRangeOfTrysToCheck@__FrameHandler3@@SA?AU?$pair@Viterator@TryBlockMap@__FrameHandler3@@V123@@std@@AEAVTryBlockMap@1@HPEAU_xDISPATCHER_CONTEXT@@PEBU_s_FuncInfo@@H@Z 000000018001160c f   libvcruntime:risctrnsctrl.obj
 0001:0001074c       ?UnwindNestedFrames@__FrameHandler3@@SAXPEA_KPEAUEHExceptionRecord@@PEAU_CONTEXT@@0PEAXPEBU_s_FuncInfo@@HHPEBU_s_HandlerType@@PEAU_xDISPATCHER_CONTEXT@@E@Z 000000018001174c f   libvcruntime:risctrnsctrl.obj
 0001:00010870       _CreateFrameInfo           0000000180011870 f   libvcruntime:risctrnsctrl.obj
 0001:000108ac       _FindAndUnlinkFrame        00000001800118ac f   libvcruntime:risctrnsctrl.obj
 0001:00010900       _GetImageBase              0000000180011900 f   libvcruntime:risctrnsctrl.obj
 0001:00010914       _GetThrowImageBase         0000000180011914 f   libvcruntime:risctrnsctrl.obj
 0001:00010928       _SetImageBase              0000000180011928 f   libvcruntime:risctrnsctrl.obj
 0001:00010940       _SetThrowImageBase         0000000180011940 f   libvcruntime:risctrnsctrl.obj
 0001:00010958       __CxxFrameHandler3         0000000180011958 f   libvcruntime:risctrnsctrl.obj
 0001:000109e0       __std_type_info_compare    00000001800119e0 f   libvcruntime:std_type_info.obj
 0001:00010a08       __std_type_info_destroy_list 0000000180011a08 f   libvcruntime:std_type_info.obj
 0001:00010a34       __std_exception_copy       0000000180011a34 f   libvcruntime:std_exception.obj
 0001:00010ac4       __std_exception_destroy    0000000180011ac4 f   libvcruntime:std_exception.obj
 0001:00010aec       _CxxThrowException         0000000180011aec f   libvcruntime:throw.obj
 0001:00010bac       __vcrt_freefls             0000000180011bac f   libvcruntime:per_thread_data.obj
 0001:00010bcc       __vcrt_freeptd             0000000180011bcc f   libvcruntime:per_thread_data.obj
 0001:00010c1c       __vcrt_getptd              0000000180011c1c f   libvcruntime:per_thread_data.obj
 0001:00010c38       __vcrt_getptd_noexit       0000000180011c38 f   libvcruntime:per_thread_data.obj
 0001:00010cf8       __vcrt_initialize_ptd      0000000180011cf8 f   libvcruntime:per_thread_data.obj
 0001:00010d40       __vcrt_uninitialize_ptd    0000000180011d40 f   libvcruntime:per_thread_data.obj
 0001:00010d64       __vcrt_initialize_locks    0000000180011d64 f   libvcruntime:locks.obj
 0001:00010d98       __vcrt_uninitialize_locks  0000000180011d98 f   libvcruntime:locks.obj
 0001:00010de0       _NLG_Notify                0000000180011de0 f   libvcruntime:notify.obj
 0001:00010e00       __NLG_Dispatch2            0000000180011e00 f   libvcruntime:notify.obj
 0001:00010e10       __NLG_Return2              0000000180011e10 f   libvcruntime:notify.obj
 0001:00010e14       __except_validate_context_record 0000000180011e14 f   libvcruntime:jbcxrval.obj
 0001:00010e4c       __DestructExceptionObject  0000000180011e4c f   libvcruntime:ehhelpers.obj
 0001:00010ec0       ?_CallMemberFunction0@@YAXQEAX0@Z 0000000180011ec0 f i libvcruntime:ehhelpers.obj
 0001:00010ec4       _IsExceptionObjectToBeDestroyed 0000000180011ec4 f   libvcruntime:ehhelpers.obj
 0001:00010ef4       __AdjustPointer            0000000180011ef4 f   libvcruntime:ehhelpers.obj
 0001:00010f18       __FrameUnwindFilter        0000000180011f18 f   libvcruntime:ehhelpers.obj
 0001:00010f64       ?GetCurrentState@__FrameHandler3@@SAHPEA_KPEAU_xDISPATCHER_CONTEXT@@PEBU_s_FuncInfo@@@Z 0000000180011f64 f   libvcruntime:ehstate.obj
 0001:00010f8c       ?GetUnwindTryBlock@__FrameHandler3@@SAHPEA_KPEAU_xDISPATCHER_CONTEXT@@PEBU_s_FuncInfo@@@Z 0000000180011f8c f   libvcruntime:ehstate.obj
 0001:00010fb8       ?SetState@__FrameHandler3@@SAXPEA_KPEBU_s_FuncInfo@@H@Z 0000000180011fb8 f   libvcruntime:ehstate.obj
 0001:00010fc4       ?SetUnwindTryBlock@__FrameHandler3@@SAXPEA_KPEAU_xDISPATCHER_CONTEXT@@PEBU_s_FuncInfo@@H@Z 0000000180011fc4 f   libvcruntime:ehstate.obj
 0001:00011000       ?StateFromControlPc@__FrameHandler3@@SAHPEBU_s_FuncInfo@@PEAU_xDISPATCHER_CONTEXT@@@Z 0000000180012000 f   libvcruntime:ehstate.obj
 0001:00011008       ?StateFromIp@__FrameHandler3@@SAHPEBU_s_FuncInfo@@PEAU_xDISPATCHER_CONTEXT@@_K@Z 0000000180012008 f   libvcruntime:ehstate.obj
 0001:00011af4       ??$TypeMatchHelper@V__FrameHandler3@@@@YAHPEBU_s_HandlerType@@PEBU_s_CatchableType@@PEBU_s_ThrowInfo@@@Z 0000000180012af4 f i libvcruntime:frame.obj
 0001:00011c38       ??$__InternalCxxFrameHandler@V__FrameHandler3@@@@YA?AW4_EXCEPTION_DISPOSITION@@PEAUEHExceptionRecord@@PEA_KPEAU_CONTEXT@@PEAU_xDISPATCHER_CONTEXT@@PEBU_s_FuncInfo@@H1E@Z 0000000180012c38 f i libvcruntime:frame.obj
 0001:00011e80       ??0bad_exception@std@@QEAA@AEBV01@@Z 0000000180012e80 f i libvcruntime:frame.obj
 0001:00011ebc       ??0bad_exception@std@@QEAA@XZ 0000000180012ebc f i libvcruntime:frame.obj
 0001:00011edc       ?CxxCallCatchBlock@__FrameHandler3@@SAPEAXPEAU_EXCEPTION_RECORD@@@Z 0000000180012edc f   libvcruntime:frame.obj
 0001:00012150       ?FrameUnwindToState@__FrameHandler3@@SAXPEA_KPEAU_xDISPATCHER_CONTEXT@@PEBU_s_FuncInfo@@H@Z 0000000180013150 f   libvcruntime:frame.obj
 0001:000122dc       ?GetHandlerSearchState@__FrameHandler3@@SAHPEA_KPEAU_xDISPATCHER_CONTEXT@@PEBU_s_FuncInfo@@@Z 00000001800132dc f i libvcruntime:frame.obj
 0001:000124ec       ?_CallMemberFunction1@@YAXQEAX00@Z 00000001800134ec f i libvcruntime:frame.obj
 0001:000124f8       ?_CallMemberFunction2@@YAXQEAX00H@Z 00000001800134f8 f i libvcruntime:frame.obj
 0001:00012664       __vcrt_FlsAlloc            0000000180013664 f   libvcruntime:winapi_downlevel.obj
 0001:000126ac       __vcrt_FlsFree             00000001800136ac f   libvcruntime:winapi_downlevel.obj
 0001:000126f4       __vcrt_FlsGetValue         00000001800136f4 f   libvcruntime:winapi_downlevel.obj
 0001:0001273c       __vcrt_FlsSetValue         000000018001373c f   libvcruntime:winapi_downlevel.obj
 0001:00012790       __vcrt_InitializeCriticalSectionEx 0000000180013790 f   libvcruntime:winapi_downlevel.obj
 0001:00012810       _CallSettingFrame          0000000180013810 f   libvcruntime:handlers.obj
 0001:00012860       _CallSettingFrame_LookupContinuationIndex 0000000180013860 f   libvcruntime:handlers.obj
 0001:00012890       _CallSettingFrame_NotifyContinuationAddr 0000000180013890 f   libvcruntime:handlers.obj
 0001:000128c0       _CallSettingFrameEncoded   00000001800138c0 f   libvcruntime:handlers.obj
 0001:00012908       free                       0000000180013908 f   libucrt:free.obj
 0001:0001291c       __acrt_call_reportfault    000000018001391c f   libucrt:invalid_parameter.obj
 0001:00012a78       __acrt_initialize_invalid_parameter_handler 0000000180013a78 f   libucrt:invalid_parameter.obj
 0001:00012a80       _invalid_parameter         0000000180013a80 f   libucrt:invalid_parameter.obj
 0001:00012b30       _invalid_parameter_noinfo  0000000180013b30 f   libucrt:invalid_parameter.obj
 0001:00012b50       _invoke_watson             0000000180013b50 f   libucrt:invalid_parameter.obj
 0001:00012b98       __acrt_errno_from_os_error 0000000180013b98 f   libucrt:errno.obj
 0001:00012be0       __acrt_errno_map_os_error  0000000180013be0 f   libucrt:errno.obj
 0001:00012c30       __doserrno                 0000000180013c30 f   libucrt:errno.obj
 0001:00012c50       _errno                     0000000180013c50 f   libucrt:errno.obj
 0001:00012c70       calloc                     0000000180013c70 f   libucrt:calloc.obj
 0001:00012c78       malloc                     0000000180013c78 f   libucrt:malloc.obj
 0001:00012c80       _recalloc                  0000000180013c80 f   libucrt:recalloc.obj
 0001:00012c88       _recalloc_base             0000000180013c88 f   libucrt:recalloc.obj
 0001:00012d20       _resetstkoflw              0000000180013d20 f   libucrt:resetstk.obj
 0001:00012e4c       wcscat_s                   0000000180013e4c f   libucrt:wcscat_s.obj
 0001:00012ecc       wcscpy_s                   0000000180013ecc f   libucrt:wcscpy_s.obj
 0001:00012f34       wcsncpy_s                  0000000180013f34 f   libucrt:wcsncpy_s.obj
 0001:000131ec       ??$ensure_buffer_is_big_enough@D@formatting_buffer@__crt_stdio_output@@QEAA_N_K@Z 00000001800141ec f i libucrt:output.obj
 0001:00013294       ??$ensure_buffer_is_big_enough@_W@formatting_buffer@__crt_stdio_output@@QEAA_N_K@Z 0000000180014294 f i libucrt:output.obj
 0001:00013340       ??$is_wide_character_specifier@_W@__crt_stdio_output@@YA_N_K_WW4length_modifier@0@@Z 0000000180014340 f i libucrt:output.obj
 0001:00013380       ??$type_case_integer_parse_into_buffer@I@?$output_processor@_WV?$string_output_adapter@_W@__crt_stdio_output@@V?$format_validation_base@_WV?$string_output_adapter@_W@__crt_stdio_output@@@2@@__crt_stdio_output@@AEAAXII_N@Z 0000000180014380 f i libucrt:output.obj
 0001:00013424       ??$type_case_integer_parse_into_buffer@_K@?$output_processor@_WV?$string_output_adapter@_W@__crt_stdio_output@@V?$format_validation_base@_WV?$string_output_adapter@_W@__crt_stdio_output@@@2@@__crt_stdio_output@@AEAAX_KI_N@Z 0000000180014424 f i libucrt:output.obj
 0001:000134c8       ??$write_multiple_characters@V?$string_output_adapter@_W@__crt_stdio_output@@D@__crt_stdio_output@@YAXAEBV?$string_output_adapter@_W@0@DHQEAH@Z 00000001800144c8 f i libucrt:output.obj
 0001:00013544       ??0_LocaleUpdate@@QEAA@QEAU__crt_locale_pointers@@@Z 0000000180014544 f i libucrt:output.obj
 0001:000135e0       ?crop_zeroes@__crt_stdio_output@@YAXPEADQEAU__crt_locale_pointers@@@Z 00000001800145e0 f i libucrt:output.obj
 0001:0001364c       ?parse_int_from_format_string@?$output_processor@_WV?$string_output_adapter@_W@__crt_stdio_output@@V?$format_validation_base@_WV?$string_output_adapter@_W@__crt_stdio_output@@@2@@__crt_stdio_output@@AEAA_NQEAH@Z 000000018001464c f i libucrt:output.obj
 0001:000136f0       ?process@?$output_processor@_WV?$string_output_adapter@_W@__crt_stdio_output@@V?$format_validation_base@_WV?$string_output_adapter@_W@__crt_stdio_output@@@2@@__crt_stdio_output@@QEAAHXZ 00000001800146f0 f i libucrt:output.obj
 0001:00013978       ?state_case_size@?$output_processor@_WV?$string_output_adapter@_W@__crt_stdio_output@@V?$format_validation_base@_WV?$string_output_adapter@_W@__crt_stdio_output@@@2@@__crt_stdio_output@@AEAA_NXZ 0000000180014978 f i libucrt:output.obj
 0001:00013b10       ?state_case_type@?$output_processor@_WV?$string_output_adapter@_W@__crt_stdio_output@@V?$format_validation_base@_WV?$string_output_adapter@_W@__crt_stdio_output@@@2@@__crt_stdio_output@@AEAA_NXZ 0000000180014b10 f i libucrt:output.obj
 0001:00013ddc       ?type_case_Z@?$output_processor@_WV?$string_output_adapter@_W@__crt_stdio_output@@V?$format_validation_base@_WV?$string_output_adapter@_W@__crt_stdio_output@@@2@@__crt_stdio_output@@AEAA_NXZ 0000000180014ddc f i libucrt:output.obj
 0001:00013e58       ?type_case_a@?$output_processor@_WV?$string_output_adapter@_W@__crt_stdio_output@@V?$format_validation_base@_WV?$string_output_adapter@_W@__crt_stdio_output@@@2@@__crt_stdio_output@@AEAA_NXZ 0000000180014e58 f i libucrt:output.obj
 0001:00014094       ?type_case_c_tchar@?$output_processor@_WV?$string_output_adapter@_W@__crt_stdio_output@@V?$format_validation_base@_WV?$string_output_adapter@_W@__crt_stdio_output@@@2@@__crt_stdio_output@@AEAA_N_W@Z 0000000180015094 f i libucrt:output.obj
 0001:0001413c       ?type_case_integer@?$output_processor@_WV?$string_output_adapter@_W@__crt_stdio_output@@V?$format_validation_base@_WV?$string_output_adapter@_W@__crt_stdio_output@@@2@@__crt_stdio_output@@AEAA_NI_N@Z 000000018001513c f i libucrt:output.obj
 0001:00014308       ?type_case_n@?$output_processor@_WV?$string_output_adapter@_W@__crt_stdio_output@@V?$format_validation_base@_WV?$string_output_adapter@_W@__crt_stdio_output@@@2@@__crt_stdio_output@@AEAA_NXZ 0000000180015308 f i libucrt:output.obj
 0001:000143e4       ?type_case_s@?$output_processor@_WV?$string_output_adapter@_W@__crt_stdio_output@@V?$format_validation_base@_WV?$string_output_adapter@_W@__crt_stdio_output@@@2@@__crt_stdio_output@@AEAA_NXZ 00000001800153e4 f i libucrt:output.obj
 0001:000144ac       ?write_stored_string_tchar@?$output_processor@_WV?$string_output_adapter@_W@__crt_stdio_output@@V?$format_validation_base@_WV?$string_output_adapter@_W@__crt_stdio_output@@@2@@__crt_stdio_output@@AEAA_N_W@Z 00000001800154ac f i libucrt:output.obj
 0001:00014598       ?write_string@?$string_output_adapter@_W@__crt_stdio_output@@QEBAXQEB_WHQEAHAEAV__crt_deferred_errno_cache@@@Z 0000000180015598 f i libucrt:output.obj
 0001:00014640       __stdio_common_vswprintf_s 0000000180015640 f   libucrt:output.obj
 0001:000146b0       _seh_filter_dll            00000001800156b0 f   libucrt:exception_filter.obj
 0001:000146c4       _seh_filter_exe            00000001800156c4 f   libucrt:exception_filter.obj
 0001:00014ab4       __acrt_initialize_thread_local_exit_callback 0000000180015ab4 f   libucrt:exit.obj
 0001:00014abc       _cexit                     0000000180015abc f   libucrt:exit.obj
 0001:00014acc       _exit                      0000000180015acc f   libucrt:exit.obj
 0001:00014ad8       _is_c_termination_complete 0000000180015ad8 f   libucrt:exit.obj
 0001:00014ca4       __acrt_allocate_buffer_for_argv 0000000180015ca4 f   libucrt:argv_parsing.obj
 0001:00014d04       _configure_narrow_argv     0000000180015d04 f   libucrt:argv_parsing.obj
 0001:0001507c       __dcrt_uninitialize_environments_nolock 000000018001607c f   libucrt:environment_initialization.obj
 0001:000150b4       _initialize_narrow_environment 00000001800160b4 f   libucrt:environment_initialization.obj
 0001:000153fc       _crt_atexit                00000001800163fc f   libucrt:onexit.obj
 0001:0001540c       _execute_onexit_table      000000018001640c f   libucrt:onexit.obj
 0001:00015448       _initialize_onexit_table   0000000180016448 f   libucrt:onexit.obj
 0001:00015470       _register_onexit_function  0000000180016470 f   libucrt:onexit.obj
 0001:000154f0       __acrt_uninitialize_command_line 00000001800164f0 f   libucrt:argv_data.obj
 0001:000155e8       __acrt_initialize          00000001800165e8 f   libucrt:initialization.obj
 0001:000155fc       __acrt_thread_attach       00000001800165fc f   libucrt:initialization.obj
 0001:00015610       __acrt_thread_detach       0000000180016610 f   libucrt:initialization.obj
 0001:00015620       __acrt_uninitialize        0000000180016620 f   libucrt:initialization.obj
 0001:00015658       __acrt_uninitialize_critical 0000000180016658 f   libucrt:initialization.obj
 0001:00015668       _initterm                  0000000180016668 f   libucrt:initterm.obj
 0001:000156cc       _initterm_e                00000001800166cc f   libucrt:initterm.obj
 0001:0001570c       __acrt_initialize_new_handler 000000018001670c f   libucrt:new_handler.obj
 0001:00015714       _callnewh                  0000000180016714 f   libucrt:new_handler.obj
 0001:00015744       _query_new_handler         0000000180016744 f   libucrt:new_handler.obj
 0001:00015778       terminate                  0000000180016778 f   libucrt:terminate.obj
 0001:00015798       abort                      0000000180016798 f   libucrt:abort.obj
 0001:000157f0       strcpy_s                   00000001800167f0 f   libucrt:strcpy_s.obj
 0001:00015850       ??$parse_integer@KV?$c_string_character_source@_W@__crt_strtox@@@__crt_strtox@@YAKQEAU__crt_locale_pointers@@V?$c_string_character_source@_W@0@H_N@Z 0000000180016850 f i libucrt:atox.obj
 0001:00015f10       strncmp                    0000000180016f10 f   libucrt:strncmp.obj
 0001:00015f90       wcsncmp                    0000000180016f90 f   libucrt:wcsncmp.obj
 0001:00015fbc       _free_base                 0000000180016fbc f   libucrt:free_base.obj
 0001:00016374       __acrt_freeptd             0000000180017374 f   libucrt:per_thread_data.obj
 0001:000163b8       __acrt_getptd              00000001800173b8 f   libucrt:per_thread_data.obj
 0001:0001648c       __acrt_getptd_head         000000018001748c f   libucrt:per_thread_data.obj
 0001:00016534       __acrt_getptd_noexit       0000000180017534 f   libucrt:per_thread_data.obj
 0001:00016600       __acrt_initialize_ptd      0000000180017600 f   libucrt:per_thread_data.obj
 0001:0001663c       __acrt_uninitialize_ptd    000000018001763c f   libucrt:per_thread_data.obj
 0001:00016660       _calloc_base               0000000180017660 f   libucrt:calloc_base.obj
 0001:000166d8       _malloc_base               00000001800176d8 f   libucrt:malloc_base.obj
 0001:00016738       _msize_base                0000000180017738 f   libucrt:msize.obj
 0001:00016774       _realloc_base              0000000180017774 f   libucrt:realloc_base.obj
 0001:000169c8       __acrt_AppPolicyGetProcessTerminationMethodInternal 00000001800179c8 f   libucrt:winapi_thunks.obj
 0001:00016a18       __acrt_AreFileApisANSI     0000000180017a18 f   libucrt:winapi_thunks.obj
 0001:00016a54       __acrt_FlsAlloc            0000000180017a54 f   libucrt:winapi_thunks.obj
 0001:00016a9c       __acrt_FlsFree             0000000180017a9c f   libucrt:winapi_thunks.obj
 0001:00016ae4       __acrt_FlsGetValue         0000000180017ae4 f   libucrt:winapi_thunks.obj
 0001:00016b2c       __acrt_FlsSetValue         0000000180017b2c f   libucrt:winapi_thunks.obj
 0001:00016b80       __acrt_InitializeCriticalSectionEx 0000000180017b80 f   libucrt:winapi_thunks.obj
 0001:00016be4       __acrt_LCMapStringEx       0000000180017be4 f   libucrt:winapi_thunks.obj
 0001:00016cc0       __acrt_LocaleNameToLCID    0000000180017cc0 f   libucrt:winapi_thunks.obj
 0001:00016d10       __acrt_SetThreadStackGuarantee 0000000180017d10 f   libucrt:winapi_thunks.obj
 0001:00016d54       __acrt_initialize_winapi_thunks 0000000180017d54 f   libucrt:winapi_thunks.obj
 0001:00016d88       __acrt_uninitialize_winapi_thunks 0000000180017d88 f   libucrt:winapi_thunks.obj
 0001:00016dcc       wcstol                     0000000180017dcc f   libucrt:strtox.obj
 0001:00016df8       _mbtowc_l                  0000000180017df8 f   libucrt:mbtowc.obj
 0001:00016f78       mbtowc                     0000000180017f78 f   libucrt:mbtowc.obj
 0001:00016f80       wcsnlen                    0000000180017f80 f   libucrt:strnlen.obj
 0001:00017158       __acrt_update_locale_info  0000000180018158 f   libucrt:locale_update.obj
 0001:0001718c       __acrt_update_multibyte_info 000000018001818c f   libucrt:locale_update.obj
 0001:00017a58       __acrt_fp_format           0000000180018a58 f   libucrt:cvt.obj
 0001:00017d5c       _fileno                    0000000180018d5c f   libucrt:fileno.obj
 0001:00017d84       __acrt_initialize_stdio    0000000180018d84 f   libucrt:_file.obj
 0001:00017ea4       __acrt_uninitialize_stdio  0000000180018ea4 f   libucrt:_file.obj
 0001:00017f00       _lock_file                 0000000180018f00 f   libucrt:_file.obj
 0001:00017f0c       _unlock_file               0000000180018f0c f   libucrt:_file.obj
 0001:00017f18       _get_printf_count_output   0000000180018f18 f   libucrt:printf_count_output.obj
 0001:00017fa0       __acrt_set_locale_changed  0000000180018fa0 f   libucrt:wsetlocale.obj
 0001:00017fac       __acrt_uninitialize_locale 0000000180018fac f   libucrt:wsetlocale.obj
 0001:000181d8       __acrt_initialize_lowio    00000001800191d8 f   libucrt:ioinit.obj
 0001:00018214       __acrt_uninitialize_lowio  0000000180019214 f   libucrt:ioinit.obj
 0001:00018254       __acrt_initialize_locks    0000000180019254 f   libucrt:locks.obj
 0001:0001829c       __acrt_lock                000000018001929c f   libucrt:locks.obj
 0001:000182b8       __acrt_uninitialize_locks  00000001800192b8 f   libucrt:locks.obj
 0001:000182f0       __acrt_unlock              00000001800192f0 f   libucrt:locks.obj
 0001:0001830c       __acrt_get_process_end_policy 000000018001930c f   libucrt:win_policies.obj
 0001:0001835c       ??$__acrt_mbs_to_wcs_cp@U__crt_win32_buffer_internal_dynamic_resizing@@@@YAHQEBDAEAV?$__crt_win32_buffer@_WU__crt_win32_buffer_internal_dynamic_resizing@@@@I@Z 000000018001935c f i libucrt:argv_wildcards.obj
 0001:000184d4       ??$__acrt_wcs_to_mbs_cp@U__crt_win32_buffer_internal_dynamic_resizing@@@@YAHQEB_WAEAV?$__crt_win32_buffer@DU__crt_win32_buffer_internal_dynamic_resizing@@@@I@Z 00000001800194d4 f i libucrt:argv_wildcards.obj
 0001:00018d04       __acrt_expand_narrow_argv_wildcards 0000000180019d04 f   libucrt:argv_wildcards.obj
 0001:00018d0c       ??$__acrt_wcs_to_mbs_cp@U__crt_win32_buffer_no_resizing@@@@YAHQEB_WAEAV?$__crt_win32_buffer@DU__crt_win32_buffer_no_resizing@@@@I@Z 0000000180019d0c f i libucrt:getmodulefilenamea.obj
 0001:00018e20       __acrt_GetModuleFileNameA  0000000180019e20 f   libucrt:getmodulefilenamea.obj
 0001:0001966c       __acrt_initialize_multibyte 000000018001a66c f   libucrt:mbctype.obj
 0001:000196cc       __acrt_update_thread_multibyte_data 000000018001a6cc f   libucrt:mbctype.obj
 0001:000196e8       _setmbcp_nolock            000000018001a6e8 f   libucrt:mbctype.obj
 0001:00019a1c       _ismbblead                 000000018001aa1c f   libucrt:ismbbyte.obj
 0001:00019a30       __acrt_initialize_command_line 000000018001aa30 f   libucrt:argv_data.obj
 0001:00019a58       __acrt_MultiByteToWideChar 000000018001aa58 f   libucrt:multibytetowidechar.obj
 0001:00019ab4       __acrt_WideCharToMultiByte 000000018001aab4 f   libucrt:widechartomultibyte.obj
 0001:00019b4c       __dcrt_get_narrow_environment_from_os 000000018001ab4c f   libucrt:get_environment_from_os.obj
 0001:00019c50       __acrt_initialize_heap     000000018001ac50 f   libucrt:heap_handle.obj
 0001:00019c6c       __acrt_uninitialize_heap   000000018001ac6c f   libucrt:heap_handle.obj
 0001:00019c78       __acrt_execute_initializers 000000018001ac78 f   libucrt:shared_initialization.obj
 0001:00019cf8       __acrt_execute_uninitializers 000000018001acf8 f   libucrt:shared_initialization.obj
 0001:00019d7c       __acrt_get_sigabrt_handler 000000018001ad7c f   libucrt:signal.obj
 0001:00019dac       __acrt_initialize_signal_handlers 000000018001adac f   libucrt:signal.obj
 0001:00019dcc       raise                      000000018001adcc f   libucrt:signal.obj
 0001:0001a038       __acrt_has_user_matherr    000000018001b038 f   libucrt:matherr.obj
 0001:0001a058       __acrt_initialize_user_matherr 000000018001b058 f   libucrt:matherr.obj
 0001:0001a060       __acrt_invoke_user_matherr 000000018001b060 f   libucrt:matherr.obj
 0001:0001a26c       __acrt_stdio_flush_nolock  000000018001b26c f   libucrt:fflush.obj
 0001:0001a2e8       _fflush_nolock             000000018001b2e8 f   libucrt:fflush.obj
 0001:0001a334       _flushall                  000000018001b334 f   libucrt:fflush.obj
 0001:0001a33c       __pctype_func              000000018001b33c f   libucrt:ctype.obj
 0001:0001a36c       iswctype                   000000018001b36c f   libucrt:iswctype.obj
 0001:0001a3dc       __acrt_add_locale_ref      000000018001b3dc f   libucrt:locale_refcounting.obj
 0001:0001a468       __acrt_free_locale         000000018001b468 f   libucrt:locale_refcounting.obj
 0001:0001a5e0       __acrt_locale_add_lc_time_reference 000000018001b5e0 f   libucrt:locale_refcounting.obj
 0001:0001a608       __acrt_locale_free_lc_time_if_unreferenced 000000018001b608 f   libucrt:locale_refcounting.obj
 0001:0001a640       __acrt_locale_release_lc_time_reference 000000018001b640 f   libucrt:locale_refcounting.obj
 0001:0001a668       __acrt_release_locale_ref  000000018001b668 f   libucrt:locale_refcounting.obj
 0001:0001a710       __acrt_update_thread_locale_data 000000018001b710 f   libucrt:locale_refcounting.obj
 0001:0001a77c       _updatetlocinfoEx_nolock   000000018001b77c f   libucrt:locale_refcounting.obj
 0001:0001a7e4       _query_new_mode            000000018001b7e4 f   libucrt:new_mode.obj
 0001:0001a7ec       __acrt_DownlevelLocaleNameToLCID 000000018001b7ec f   libucrt:lcidtoname_downlevel.obj
 0001:0001a89c       _isleadbyte_l              000000018001b89c f i libucrt:_wctype.obj
 0001:0001a8e8       ?__mbrtowc_utf8@__crt_mbstring@@YA_KPEA_WPEBD_KPEAU_Mbstatet@@@Z 000000018001b8e8 f   libucrt:mbrtowc.obj
 0001:0001a924       ?__mbsrtowcs_utf8@__crt_mbstring@@YA_KPEA_WPEAPEBD_KPEAU_Mbstatet@@@Z 000000018001b924 f   libucrt:mbrtowc.obj
 0001:0001aa9c       __acrt_fp_strflt_to_string 000000018001ba9c f   libucrt:_fptostr.obj
 0001:0001ab80       ?divide@__crt_strtox@@YA_KAEAUbig_integer@1@AEBU21@@Z 000000018001bb80 f i libucrt:cfout.obj
 0001:0001afac       __acrt_fltout              000000018001bfac f   libucrt:cfout.obj
 0001:0001c1e0       _fcloseall                 000000018001d1e0 f   libucrt:closeall.obj
 0001:0001c294       __acrt_stdio_free_buffer_nolock 000000018001d294 f   libucrt:_freebuf.obj
 0001:0001c2d4       _isatty                    000000018001d2d4 f   libucrt:isatty.obj
 0001:0001c334       __acrt_locale_free_monetary 000000018001d334 f   libucrt:initmon.obj
 0001:0001c440       __acrt_locale_free_numeric 000000018001d440 f   libucrt:initnum.obj
 0001:0001c504       __acrt_locale_free_time    000000018001d504 f   libucrt:inittime.obj
 0001:0001c60c       __acrt_GetStringTypeA      000000018001d60c f   libucrt:getstringtypea.obj
 0001:0001c79c       __acrt_lowio_create_handle_array 000000018001d79c f   libucrt:osfinfo.obj
 0001:0001c844       __acrt_lowio_destroy_handle_array 000000018001d844 f   libucrt:osfinfo.obj
 0001:0001c894       __acrt_lowio_ensure_fh_exists 000000018001d894 f   libucrt:osfinfo.obj
 0001:0001c93c       __acrt_lowio_lock_fh       000000018001d93c f   libucrt:osfinfo.obj
 0001:0001c964       __acrt_lowio_unlock_fh     000000018001d964 f   libucrt:osfinfo.obj
 0001:0001c98c       _free_osfhnd               000000018001d98c f   libucrt:osfinfo.obj
 0001:0001ca48       _get_osfhandle             000000018001da48 f   libucrt:osfinfo.obj
 0001:0001cac0       qsort                      000000018001dac0 f   libucrt:qsort.obj
 0001:0001ce70       strncpy_s                  000000018001de70 f   libucrt:strncpy_s.obj
 0001:0001cff0       strpbrk                    000000018001dff0 f   libucrt:strpbrk.obj
 0001:0001d3d0       _mbsdec                    000000018001e3d0 f   libucrt:mbsdec.obj
 0001:0001d3d8       _mbsdec_l                  000000018001e3d8 f   libucrt:mbsdec.obj
 0001:0001d784       __acrt_LCMapStringA        000000018001e784 f   libucrt:lcmapstringa.obj
 0001:0001d8c0       _commit                    000000018001e8c0 f   libucrt:commit.obj
 0001:0001e1b4       _write                     000000018001f1b4 f   libucrt:write.obj
 0001:0001e2a0       _write_nolock              000000018001f2a0 f   libucrt:write.obj
 0001:0001e57c       __acrt_GetStringTypeW      000000018001f57c f   libucrt:getstringtypew.obj
 0001:0001e584       __ascii_wcsnicmp           000000018001f584 f   libucrt:wcsnicmp.obj
 0001:0001e5d0       ?__mbrtoc32_utf8@__crt_mbstring@@YA_KPEA_UPEBD_KPEAU_Mbstatet@@@Z 000000018001f5d0 f   libucrt:mbrtoc32.obj
 0001:0001e7ac       fegetenv                   000000018001f7ac f   libucrt:fegetenv.obj
 0001:0001e7cc       fesetenv                   000000018001f7cc f   libucrt:fesetenv.obj
 0001:0001e818       feholdexcept               000000018001f818 f   libucrt:feholdexcept.obj
 0001:0001e868       ceil                       000000018001f868 f   libucrt:ceil.obj
 0001:0001e930       log10                      000000018001f930 f   libucrt:log10.obj
 0001:0001ef78       _lseeki64_nolock           000000018001ff78 f   libucrt:lseek.obj
 0001:0001ef80       _fclose_nolock             000000018001ff80 f   libucrt:fclose.obj
 0001:0001f004       fclose                     0000000180020004 f   libucrt:fclose.obj
 0001:0001f068       _query_app_type            0000000180020068 f   libucrt:report_runtime_error.obj
 0001:0001f070       __strncnt                  0000000180020070 f   libucrt:strncnt.obj
 0001:0001f088       _putwch_nolock             0000000180020088 f   libucrt:putwch.obj
 0001:0001f0c4       __acrt_fenv_get_control    00000001800200c4 f   libucrt:_fenvutils.obj
 0001:0001f1b8       __acrt_fenv_get_status     00000001800201b8 f   libucrt:_fenvutils.obj
 0001:0001f20c       __acrt_fenv_set_control    000000018002020c f   libucrt:_fenvutils.obj
 0001:0001f354       __acrt_fenv_set_status     0000000180020354 f   libucrt:_fenvutils.obj
 0001:0001f3d8       _clearfp                   00000001800203d8 f   libucrt:ieee.obj
 0001:0001f56c       _handle_error              000000018002056c f   libucrt:libm_error.obj
 0001:0001f694       _handle_nan                0000000180020694 f   libucrt:libm_error.obj
 0001:0001f6b0       __acrt_initialize_fma3     00000001800206b0 f   libucrt:fma3_available.obj
 0001:0001f720       _log10_special             0000000180020720 f   libucrt:log_special.obj
 0001:0001f84c       _close                     000000018002084c f   libucrt:close.obj
 0001:0001f8f0       _close_nolock              00000001800208f0 f   libucrt:close.obj
 0001:0001f9b0       ?__acrt_stdio_free_stream@@YAXV__crt_stdio_stream@@@Z 00000001800209b0 f   libucrt:stream.obj
 0001:0001f9cc       __dcrt_lowio_ensure_console_output_initialized 00000001800209cc f   libucrt:initcon.obj
 0001:0001fa20       __dcrt_terminate_console_output 0000000180020a20 f   libucrt:initcon.obj
 0001:0001fa3c       __dcrt_write_console       0000000180020a3c f   libucrt:initcon.obj
 0001:0001fb10       _get_fpsr                  0000000180020b10 f   libucrt:fpsr.obj
 0001:0001fb20       _set_fpsr                  0000000180020b20 f   libucrt:fpsr.obj
 0001:0001fb2a       _fclrf                     0000000180020b2a f   libucrt:fpsr.obj
 0001:0001fb3e       _frnd                      0000000180020b3e f   libucrt:fpsr.obj
 0001:0001fb60       _raise_exc                 0000000180020b60 f   libucrt:fpexcept.obj
 0001:0001fb88       _raise_exc_ex              0000000180020b88 f   libucrt:fpexcept.obj
 0001:0001fe98       _set_errno_from_matherr    0000000180020e98 f   libucrt:fpexcept.obj
 0001:0001fec8       _clrfp                     0000000180020ec8 f   libucrt:fpctrl.obj
 0001:0001fee8       _ctrlfp                    0000000180020ee8 f   libucrt:fpctrl.obj
 0001:0001ff64       _set_statfp                0000000180020f64 f   libucrt:fpctrl.obj
 0001:0001ff84       _statfp                    0000000180020f84 f   libucrt:fpctrl.obj
 0001:0001ff95       IsProcessorFeaturePresent  0000000180020f95 f   kernel32:KERNEL32.dll
 0001:0001ffa0       _FindPESection             0000000180020fa0 f   LIBCMT:pesect.obj
 0001:0001fff0       _IsNonwritableInCurrentImage 0000000180020ff0 f   LIBCMT:pesect.obj
 0001:00020040       _ValidateImageBase         0000000180021040 f   LIBCMT:pesect.obj
 0001:00020070       strrchr                    0000000180021070 f   libvcruntime:strrchr.obj
 0001:000201b0       _guard_dispatch_icall_nop  00000001800211b0 f   LIBCMT:guard_dispatch.obj
 0002:00000000       __imp_RegQueryValueExW     0000000180022000     advapi32:ADVAPI32.dll
 0002:00000008       __imp_RegSetValueExW       0000000180022008     advapi32:ADVAPI32.dll
 0002:00000010       __imp_RegQueryInfoKeyW     0000000180022010     advapi32:ADVAPI32.dll
 0002:00000018       __imp_RegOpenKeyExW        0000000180022018     advapi32:ADVAPI32.dll
 0002:00000020       __imp_RegEnumKeyExW        0000000180022020     advapi32:ADVAPI32.dll
 0002:00000028       __imp_RegDeleteValueW      0000000180022028     advapi32:ADVAPI32.dll
 0002:00000030       __imp_RegDeleteKeyW        0000000180022030     advapi32:ADVAPI32.dll
 0002:00000038       __imp_RegCreateKeyExW      0000000180022038     advapi32:ADVAPI32.dll
 0002:00000040       __imp_RegCloseKey          0000000180022040     advapi32:ADVAPI32.dll
 0002:00000048       \177ADVAPI32_NULL_THUNK_DATA 0000000180022048     advapi32:ADVAPI32.dll
 0002:00000050       __imp_GetObjectW           0000000180022050     gdi32:GDI32.dll
 0002:00000058       __imp_SelectObject         0000000180022058     gdi32:GDI32.dll
 0002:00000060       __imp_DeleteObject         0000000180022060     gdi32:GDI32.dll
 0002:00000068       __imp_CreateCompatibleDC   0000000180022068     gdi32:GDI32.dll
 0002:00000070       __imp_BitBlt               0000000180022070     gdi32:GDI32.dll
 0002:00000078       __imp_SetWindowOrgEx       0000000180022078     gdi32:GDI32.dll
 0002:00000080       __imp_SetWindowExtEx       0000000180022080     gdi32:GDI32.dll
 0002:00000088       __imp_SetViewportOrgEx     0000000180022088     gdi32:GDI32.dll
 0002:00000090       __imp_LPtoDP               0000000180022090     gdi32:GDI32.dll
 0002:00000098       __imp_SetMapMode           0000000180022098     gdi32:GDI32.dll
 0002:000000a0       __imp_SaveDC               00000001800220a0     gdi32:GDI32.dll
 0002:000000a8       __imp_RestoreDC            00000001800220a8     gdi32:GDI32.dll
 0002:000000b0       __imp_GetDeviceCaps        00000001800220b0     gdi32:GDI32.dll
 0002:000000b8       __imp_DeleteMetaFile       00000001800220b8     gdi32:GDI32.dll
 0002:000000c0       __imp_DeleteDC             00000001800220c0     gdi32:GDI32.dll
 0002:000000c8       __imp_CreateRectRgnIndirect 00000001800220c8     gdi32:GDI32.dll
 0002:000000d0       __imp_CreateMetaFileW      00000001800220d0     gdi32:GDI32.dll
 0002:000000d8       __imp_CreateDCW            00000001800220d8     gdi32:GDI32.dll
 0002:000000e0       __imp_CloseMetaFile        00000001800220e0     gdi32:GDI32.dll
 0002:000000e8       \177GDI32_NULL_THUNK_DATA  00000001800220e8     gdi32:GDI32.dll
 0002:000000f0       __imp_CloseHandle          00000001800220f0     kernel32:KERNEL32.dll
 0002:000000f8       __imp_SetEvent             00000001800220f8     kernel32:KERNEL32.dll
 0002:00000100       __imp_CreateMutexW         0000000180022100     kernel32:KERNEL32.dll
 0002:00000108       __imp_CreateEventW         0000000180022108     kernel32:KERNEL32.dll
 0002:00000110       __imp_GetCurrentProcessId  0000000180022110     kernel32:KERNEL32.dll
 0002:00000118       __imp_WriteConsoleW        0000000180022118     kernel32:KERNEL32.dll
 0002:00000120       __imp_CreateFileW          0000000180022120     kernel32:KERNEL32.dll
 0002:00000128       __imp_GetConsoleMode       0000000180022128     kernel32:KERNEL32.dll
 0002:00000130       __imp_GetConsoleCP         0000000180022130     kernel32:KERNEL32.dll
 0002:00000138       __imp_WriteFile            0000000180022138     kernel32:KERNEL32.dll
 0002:00000140       __imp_FlushFileBuffers     0000000180022140     kernel32:KERNEL32.dll
 0002:00000148       __imp_SetStdHandle         0000000180022148     kernel32:KERNEL32.dll
 0002:00000150       __imp_GetStringTypeW       0000000180022150     kernel32:KERNEL32.dll
 0002:00000158       __imp_SetFilePointerEx     0000000180022158     kernel32:KERNEL32.dll
 0002:00000160       __imp_FreeEnvironmentStringsW 0000000180022160     kernel32:KERNEL32.dll
 0002:00000168       __imp_lstrcmpiW            0000000180022168     kernel32:KERNEL32.dll
 0002:00000170       __imp_GetCommandLineW      0000000180022170     kernel32:KERNEL32.dll
 0002:00000178       __imp_GetCommandLineA      0000000180022178     kernel32:KERNEL32.dll
 0002:00000180       __imp_GetCPInfo            0000000180022180     kernel32:KERNEL32.dll
 0002:00000188       __imp_GetOEMCP             0000000180022188     kernel32:KERNEL32.dll
 0002:00000190       __imp_GetACP               0000000180022190     kernel32:KERNEL32.dll
 0002:00000198       __imp_IsValidCodePage      0000000180022198     kernel32:KERNEL32.dll
 0002:000001a0       __imp_FindNextFileW        00000001800221a0     kernel32:KERNEL32.dll
 0002:000001a8       __imp_FindFirstFileExW     00000001800221a8     kernel32:KERNEL32.dll
 0002:000001b0       __imp_FindClose            00000001800221b0     kernel32:KERNEL32.dll
 0002:000001b8       __imp_GetFileType          00000001800221b8     kernel32:KERNEL32.dll
 0002:000001c0       __imp_GetStdHandle         00000001800221c0     kernel32:KERNEL32.dll
 0002:000001c8       __imp_LCMapStringW         00000001800221c8     kernel32:KERNEL32.dll
 0002:000001d0       __imp_HeapReAlloc          00000001800221d0     kernel32:KERNEL32.dll
 0002:000001d8       __imp_HeapSize             00000001800221d8     kernel32:KERNEL32.dll
 0002:000001e0       __imp_MulDiv               00000001800221e0     kernel32:KERNEL32.dll
 0002:000001e8       __imp_GlobalLock           00000001800221e8     kernel32:KERNEL32.dll
 0002:000001f0       __imp_GlobalUnlock         00000001800221f0     kernel32:KERNEL32.dll
 0002:000001f8       __imp_GlobalAlloc          00000001800221f8     kernel32:KERNEL32.dll
 0002:00000200       __imp_FindResourceW        0000000180022200     kernel32:KERNEL32.dll
 0002:00000208       __imp_SizeofResource       0000000180022208     kernel32:KERNEL32.dll
 0002:00000210       __imp_LoadResource         0000000180022210     kernel32:KERNEL32.dll
 0002:00000218       __imp_LoadLibraryExW       0000000180022218     kernel32:KERNEL32.dll
 0002:00000220       __imp_GetProcAddress       0000000180022220     kernel32:KERNEL32.dll
 0002:00000228       __imp_GetModuleHandleW     0000000180022228     kernel32:KERNEL32.dll
 0002:00000230       __imp_GetModuleFileNameW   0000000180022230     kernel32:KERNEL32.dll
 0002:00000238       __imp_FreeLibrary          0000000180022238     kernel32:KERNEL32.dll
 0002:00000240       __imp_DisableThreadLibraryCalls 0000000180022240     kernel32:KERNEL32.dll
 0002:00000248       __imp_GetCurrentThreadId   0000000180022248     kernel32:KERNEL32.dll
 0002:00000250       __imp_Sleep                0000000180022250     kernel32:KERNEL32.dll
 0002:00000258       __imp_WaitForSingleObject  0000000180022258     kernel32:KERNEL32.dll
 0002:00000260       __imp_ReleaseMutex         0000000180022260     kernel32:KERNEL32.dll
 0002:00000268       __imp_ResetEvent           0000000180022268     kernel32:KERNEL32.dll
 0002:00000270       __imp_EnterCriticalSection 0000000180022270     kernel32:KERNEL32.dll
 0002:00000278       __imp_LeaveCriticalSection 0000000180022278     kernel32:KERNEL32.dll
 0002:00000280       __imp_SetLastError         0000000180022280     kernel32:KERNEL32.dll
 0002:00000288       __imp_EncodePointer        0000000180022288     kernel32:KERNEL32.dll
 0002:00000290       __imp_DeleteCriticalSection 0000000180022290     kernel32:KERNEL32.dll
 0002:00000298       __imp_InitializeCriticalSectionEx 0000000180022298     kernel32:KERNEL32.dll
 0002:000002a0       __imp_GetLastError         00000001800222a0     kernel32:KERNEL32.dll
 0002:000002a8       __imp_RaiseException       00000001800222a8     kernel32:KERNEL32.dll
 0002:000002b0       __imp_DecodePointer        00000001800222b0     kernel32:KERNEL32.dll
 0002:000002b8       __imp_WideCharToMultiByte  00000001800222b8     kernel32:KERNEL32.dll
 0002:000002c0       __imp_GetEnvironmentStringsW 00000001800222c0     kernel32:KERNEL32.dll
 0002:000002c8       __imp_MultiByteToWideChar  00000001800222c8     kernel32:KERNEL32.dll
 0002:000002d0       __imp_GetModuleHandleExW   00000001800222d0     kernel32:KERNEL32.dll
 0002:000002d8       __imp_ExitProcess          00000001800222d8     kernel32:KERNEL32.dll
 0002:000002e0       __imp_VirtualQuery         00000001800222e0     kernel32:KERNEL32.dll
 0002:000002e8       __imp_VirtualProtect       00000001800222e8     kernel32:KERNEL32.dll
 0002:000002f0       __imp_GetSystemInfo        00000001800222f0     kernel32:KERNEL32.dll
 0002:000002f8       __imp_TlsFree              00000001800222f8     kernel32:KERNEL32.dll
 0002:00000300       __imp_TlsSetValue          0000000180022300     kernel32:KERNEL32.dll
 0002:00000308       __imp_TlsGetValue          0000000180022308     kernel32:KERNEL32.dll
 0002:00000310       __imp_TlsAlloc             0000000180022310     kernel32:KERNEL32.dll
 0002:00000318       __imp_RtlPcToFileHeader    0000000180022318     kernel32:KERNEL32.dll
 0002:00000320       __imp_InterlockedFlushSList 0000000180022320     kernel32:KERNEL32.dll
 0002:00000328       __imp_RtlUnwindEx          0000000180022328     kernel32:KERNEL32.dll
 0002:00000330       __imp_LoadLibraryExA       0000000180022330     kernel32:KERNEL32.dll
 0002:00000338       __imp_VirtualFree          0000000180022338     kernel32:KERNEL32.dll
 0002:00000340       __imp_VirtualAlloc         0000000180022340     kernel32:KERNEL32.dll
 0002:00000348       __imp_FlushInstructionCache 0000000180022348     kernel32:KERNEL32.dll
 0002:00000350       __imp_InterlockedPushEntrySList 0000000180022350     kernel32:KERNEL32.dll
 0002:00000358       __imp_InterlockedPopEntrySList 0000000180022358     kernel32:KERNEL32.dll
 0002:00000360       __imp_GetProcessHeap       0000000180022360     kernel32:KERNEL32.dll
 0002:00000368       __imp_HeapFree             0000000180022368     kernel32:KERNEL32.dll
 0002:00000370       __imp_HeapAlloc            0000000180022370     kernel32:KERNEL32.dll
 0002:00000378       __imp_OutputDebugStringW   0000000180022378     kernel32:KERNEL32.dll
 0002:00000380       __imp_InitializeSListHead  0000000180022380     kernel32:KERNEL32.dll
 0002:00000388       __imp_GetSystemTimeAsFileTime 0000000180022388     kernel32:KERNEL32.dll
 0002:00000390       __imp_QueryPerformanceCounter 0000000180022390     kernel32:KERNEL32.dll
 0002:00000398       __imp_GetStartupInfoW      0000000180022398     kernel32:KERNEL32.dll
 0002:000003a0       __imp_IsDebuggerPresent    00000001800223a0     kernel32:KERNEL32.dll
 0002:000003a8       __imp_IsProcessorFeaturePresent 00000001800223a8     kernel32:KERNEL32.dll
 0002:000003b0       __imp_TerminateProcess     00000001800223b0     kernel32:KERNEL32.dll
 0002:000003b8       __imp_GetCurrentProcess    00000001800223b8     kernel32:KERNEL32.dll
 0002:000003c0       __imp_InitializeCriticalSectionAndSpinCount 00000001800223c0     kernel32:KERNEL32.dll
 0002:000003c8       __imp_WaitForSingleObjectEx 00000001800223c8     kernel32:KERNEL32.dll
 0002:000003d0       __imp_RtlCaptureContext    00000001800223d0     kernel32:KERNEL32.dll
 0002:000003d8       __imp_RtlLookupFunctionEntry 00000001800223d8     kernel32:KERNEL32.dll
 0002:000003e0       __imp_RtlVirtualUnwind     00000001800223e0     kernel32:KERNEL32.dll
 0002:000003e8       __imp_UnhandledExceptionFilter 00000001800223e8     kernel32:KERNEL32.dll
 0002:000003f0       __imp_SetUnhandledExceptionFilter 00000001800223f0     kernel32:KERNEL32.dll
 0002:000003f8       \177KERNEL32_NULL_THUNK_DATA 00000001800223f8     kernel32:KERNEL32.dll
 0002:00000400       __imp_OleCreatePropertyFrame 0000000180022400     oleaut32:OLEAUT32.dll
 0002:00000408       __imp_UnRegisterTypeLib    0000000180022408     oleaut32:OLEAUT32.dll
 0002:00000410       __imp_RegisterTypeLib      0000000180022410     oleaut32:OLEAUT32.dll
 0002:00000418       __imp_LoadRegTypeLib       0000000180022418     oleaut32:OLEAUT32.dll
 0002:00000420       __imp_LoadTypeLib          0000000180022420     oleaut32:OLEAUT32.dll
 0002:00000428       __imp_VarUI4FromStr        0000000180022428     oleaut32:OLEAUT32.dll
 0002:00000430       __imp_VariantInit          0000000180022430     oleaut32:OLEAUT32.dll
 0002:00000438       __imp_SysAllocStringByteLen 0000000180022438     oleaut32:OLEAUT32.dll
 0002:00000440       __imp_SysStringByteLen     0000000180022440     oleaut32:OLEAUT32.dll
 0002:00000448       __imp_VariantChangeType    0000000180022448     oleaut32:OLEAUT32.dll
 0002:00000450       __imp_VariantClear         0000000180022450     oleaut32:OLEAUT32.dll
 0002:00000458       __imp_SysStringLen         0000000180022458     oleaut32:OLEAUT32.dll
 0002:00000460       __imp_SysFreeString        0000000180022460     oleaut32:OLEAUT32.dll
 0002:00000468       __imp_SysAllocStringLen    0000000180022468     oleaut32:OLEAUT32.dll
 0002:00000470       __imp_SysAllocString       0000000180022470     oleaut32:OLEAUT32.dll
 0002:00000478       \177OLEAUT32_NULL_THUNK_DATA 0000000180022478     oleaut32:OLEAUT32.dll
 0002:00000480       __imp_UnregisterClassW     0000000180022480     user32:USER32.dll
 0002:00000488       __imp_PostMessageW         0000000180022488     user32:USER32.dll
 0002:00000490       __imp_DefWindowProcW       0000000180022490     user32:USER32.dll
 0002:00000498       __imp_CallWindowProcW      0000000180022498     user32:USER32.dll
 0002:000004a0       __imp_RegisterClassExW     00000001800224a0     user32:USER32.dll
 0002:000004a8       __imp_GetClassInfoExW      00000001800224a8     user32:USER32.dll
 0002:000004b0       __imp_CreateWindowExW      00000001800224b0     user32:USER32.dll
 0002:000004b8       __imp_IsWindow             00000001800224b8     user32:USER32.dll
 0002:000004c0       __imp_IsChild              00000001800224c0     user32:USER32.dll
 0002:000004c8       __imp_DestroyWindow        00000001800224c8     user32:USER32.dll
 0002:000004d0       __imp_ShowWindow           00000001800224d0     user32:USER32.dll
 0002:000004d8       __imp_SetWindowPos         00000001800224d8     user32:USER32.dll
 0002:000004e0       __imp_CharNextW            00000001800224e0     user32:USER32.dll
 0002:000004e8       __imp_SetFocus             00000001800224e8     user32:USER32.dll
 0002:000004f0       __imp_LoadBitmapW          00000001800224f0     user32:USER32.dll
 0002:000004f8       __imp_RegisterClassW       00000001800224f8     user32:USER32.dll
 0002:00000500       __imp_PeekMessageW         0000000180022500     user32:USER32.dll
 0002:00000508       __imp_LoadCursorW          0000000180022508     user32:USER32.dll
 0002:00000510       __imp_GetParent            0000000180022510     user32:USER32.dll
 0002:00000518       __imp_SetWindowLongPtrW    0000000180022518     user32:USER32.dll
 0002:00000520       __imp_GetWindowLongPtrW    0000000180022520     user32:USER32.dll
 0002:00000528       __imp_PtInRect             0000000180022528     user32:USER32.dll
 0002:00000530       __imp_EqualRect            0000000180022530     user32:USER32.dll
 0002:00000538       __imp_OffsetRect           0000000180022538     user32:USER32.dll
 0002:00000540       __imp_UnionRect            0000000180022540     user32:USER32.dll
 0002:00000548       __imp_IntersectRect        0000000180022548     user32:USER32.dll
 0002:00000550       __imp_GetClientRect        0000000180022550     user32:USER32.dll
 0002:00000558       __imp_InvalidateRect       0000000180022558     user32:USER32.dll
 0002:00000560       __imp_SetWindowRgn         0000000180022560     user32:USER32.dll
 0002:00000568       __imp_EndPaint             0000000180022568     user32:USER32.dll
 0002:00000570       __imp_BeginPaint           0000000180022570     user32:USER32.dll
 0002:00000578       __imp_ReleaseDC            0000000180022578     user32:USER32.dll
 0002:00000580       __imp_GetDC                0000000180022580     user32:USER32.dll
 0002:00000588       __imp_GetKeyState          0000000180022588     user32:USER32.dll
 0002:00000590       __imp_GetFocus             0000000180022590     user32:USER32.dll
 0002:00000598       \177USER32_NULL_THUNK_DATA 0000000180022598     user32:USER32.dll
 0002:000005a0       __imp_CoCreateInstance     00000001800225a0     ole32:ole32.dll
 0002:000005a8       __imp_StringFromGUID2      00000001800225a8     ole32:ole32.dll
 0002:000005b0       __imp_CoTaskMemAlloc       00000001800225b0     ole32:ole32.dll
 0002:000005b8       __imp_CoTaskMemFree        00000001800225b8     ole32:ole32.dll
 0002:000005c0       __imp_ReadClassStm         00000001800225c0     ole32:ole32.dll
 0002:000005c8       __imp_WriteClassStm        00000001800225c8     ole32:ole32.dll
 0002:000005d0       __imp_CreateDataAdviseHolder 00000001800225d0     ole32:ole32.dll
 0002:000005d8       __imp_OleSaveToStream      00000001800225d8     ole32:ole32.dll
 0002:000005e0       __imp_CreateOleAdviseHolder 00000001800225e0     ole32:ole32.dll
 0002:000005e8       __imp_OleRegGetUserType    00000001800225e8     ole32:ole32.dll
 0002:000005f0       __imp_OleRegGetMiscStatus  00000001800225f0     ole32:ole32.dll
 0002:000005f8       __imp_OleRegEnumVerbs      00000001800225f8     ole32:ole32.dll
 0002:00000600       __imp_CLSIDFromProgID      0000000180022600     ole32:ole32.dll
 0002:00000608       __imp_CoTaskMemRealloc     0000000180022608     ole32:ole32.dll
 0002:00000610       \177ole32_NULL_THUNK_DATA  0000000180022610     ole32:ole32.dll
 0002:00000618       __guard_check_icall_fptr   0000000180022618     LIBCMT:guard_support.obj
 0002:00000620       __guard_dispatch_icall_fptr 0000000180022620     LIBCMT:guard_support.obj
 0002:00000628       __xc_a                     0000000180022628     LIBCMT:initializers.obj
 0002:00000658       __xc_z                     0000000180022658     LIBCMT:initializers.obj
 0002:00000660       __xi_a                     0000000180022660     LIBCMT:initializers.obj
 0002:00000670       __acrt_stdio_initializer   0000000180022670     libucrt:stdio_initializer.obj
 0002:00000678       __acrt_multibyte_initializer 0000000180022678     libucrt:multibyte_initializer.obj
 0002:00000680       __acrt_tran_fma3_initializer 0000000180022680     libucrt:fma3_initializer.obj
 0002:00000688       __xi_z                     0000000180022688     LIBCMT:initializers.obj
 0002:00000690       __xl_a                     0000000180022690     LIBCMT:tlssup.obj
 0002:00000698       __xl_z                     0000000180022698     LIBCMT:tlssup.obj
 0002:000006a0       __xp_a                     00000001800226a0     LIBCMT:initializers.obj
 0002:000006a8       __acrt_locale_terminator   00000001800226a8     libucrt:locale_initializer.obj
 0002:000006b0       __dcrt_console_output_terminator 00000001800226b0     libucrt:console_output_initializer.obj
 0002:000006b8       __acrt_stdio_terminator    00000001800226b8     libucrt:stdio_initializer.obj
 0002:000006c0       __xp_z                     00000001800226c0     LIBCMT:initializers.obj
 0002:000006c8       __xt_a                     00000001800226c8     LIBCMT:initializers.obj
 0002:000006d0       __xt_z                     00000001800226d0     LIBCMT:initializers.obj
 0002:000006e0       ??_C@_13HADIAKP@?$AAS@     00000001800226e0     OposVariant.obj
 0002:000006e4       ??_C@_13LHMFKAAD@?$AAM@    00000001800226e4     OposVariant.obj
 0002:000006e8       ??_C@_13MKMNOPIJ@?$AAD@    00000001800226e8     OposVariant.obj
 0002:000006ec       ??_C@_13OPKGLAFF@?$AAB@    00000001800226ec     OposVariant.obj
 0002:000006f0       ??_C@_17LLMMEOJD@?$AAV?$AAa?$AAl@ 00000001800226f0     OposVariant.obj
 0002:000006f8       ??_C@_1BI@JFAIJMHL@?$AAF?$AAo?$AAr?$AAc?$AAe?$AAR?$AAe?$AAm?$AAo?$AAv?$AAe@ 00000001800226f8     OposVariant.obj
 0002:00000710       ??_C@_1BC@GCKHIPE@?$AAN?$AAo?$AAR?$AAe?$AAm?$AAo?$AAv?$AAe@ 0000000180022710     OposVariant.obj
 0002:00000728       ??_C@_1O@JDLOHAN@?$AAD?$AAe?$AAl?$AAe?$AAt?$AAe@ 0000000180022728     OposVariant.obj
 0002:00000738       ??_C@_11LOCGONAA@@         0000000180022738     OposVariant.obj
 0002:00000740       ??_7?$CComObjectCached@VCComClassFactory@ATL@@@ATL@@6B@ 0000000180022740     CoinAcceptor.obj
 0002:00000770       _GUID_00000112_0000_0000_c000_000000000046 0000000180022770     CoinAcceptor.obj
 0002:00000780       _GUID_3af24292_0c96_11ce_a0cf_00aa00600ab8 0000000180022780     CoinAcceptor.obj
 0002:00000790       _GUID_00000127_0000_0000_c000_000000000046 0000000180022790     CoinAcceptor.obj
 0002:000007a0       _GUID_0000010d_0000_0000_c000_000000000046 00000001800227a0     CoinAcceptor.obj
 0002:000007b0       ??_C@_1M@PPPPCDEP@?$AAA?$AAP?$AAP?$AAI?$AAD@ 00000001800227b0     CoinAcceptor.obj
 0002:000007c0       ??_C@_1BK@BIGILECK@?$AAA?$AAd?$AAv?$AAa?$AAp?$AAi?$AA3?$AA2?$AA?4?$AAd?$AAl?$AAl@ 00000001800227c0     CoinAcceptor.obj
 0002:000007e0       ??_C@_0BI@MNCFCPFK@RegCreateKeyTransactedW@ 00000001800227e0     CoinAcceptor.obj
 0002:000007f8       ??_7?$CComContainedObject@VCOPOSCoinAcceptor@@@ATL@@6B?$IDispatchImpl@UIOPOSCoinAcceptor@@$1?IID_IOPOSCoinAcceptor@@3U_GUID@@B$1?LIBID_OposCoinAcceptor_CCO@@3U3@B$00$0A@VCComTypeInfoHolder@ATL@@@1@@ 00000001800227f8     CoinAcceptor.obj
 0002:00000a50       ??_7?$CComContainedObject@VCOPOSCoinAcceptor@@@ATL@@6BCComControlBase@1@@ 0000000180022a50     CoinAcceptor.obj
 0002:00000a78       ??_7?$CComContainedObject@VCOPOSCoinAcceptor@@@ATL@@6B?$CWindowImpl@VCOPOSCoinAcceptor@@VCWindow@ATL@@V?$CWinTraits@$0FGAAAAAA@$0A@@3@@1@@ 0000000180022a78     CoinAcceptor.obj
 0002:00000a98       ??_7?$CComContainedObject@VCOPOSCoinAcceptor@@@ATL@@6B?$IPersistStreamInitImpl@VCOPOSCoinAcceptor@@@1@@ 0000000180022a98     CoinAcceptor.obj
 0002:00000ae0       ??_7?$CComContainedObject@VCOPOSCoinAcceptor@@@ATL@@6B?$IOleControlImpl@VCOPOSCoinAcceptor@@@1@@ 0000000180022ae0     CoinAcceptor.obj
 0002:00000b18       ??_7?$CComContainedObject@VCOPOSCoinAcceptor@@@ATL@@6B?$IOleObjectImpl@VCOPOSCoinAcceptor@@@1@@ 0000000180022b18     CoinAcceptor.obj
 0002:00000bd8       ??_7?$CComContainedObject@VCOPOSCoinAcceptor@@@ATL@@6B?$IOleInPlaceActiveObjectImpl@VCOPOSCoinAcceptor@@@1@@ 0000000180022bd8     CoinAcceptor.obj
 0002:00000c28       ??_7?$CComContainedObject@VCOPOSCoinAcceptor@@@ATL@@6B?$IViewObjectExImpl@VCOPOSCoinAcceptor@@@1@@ 0000000180022c28     CoinAcceptor.obj
 0002:00000ca0       ??_7?$CComContainedObject@VCOPOSCoinAcceptor@@@ATL@@6B?$IOleInPlaceObjectWindowlessImpl@VCOPOSCoinAcceptor@@@1@@ 0000000180022ca0     CoinAcceptor.obj
 0002:00000cf8       ??_7?$CComContainedObject@VCOPOSCoinAcceptor@@@ATL@@6B?$IConnectionPointContainerImpl@VCOPOSCoinAcceptor@@@1@@ 0000000180022cf8     CoinAcceptor.obj
 0002:00000d20       ??_7?$CComContainedObject@VCOPOSCoinAcceptor@@@ATL@@6B?$IPersistStorageImpl@VCOPOSCoinAcceptor@@@1@@ 0000000180022d20     CoinAcceptor.obj
 0002:00000d70       ??_7?$CComContainedObject@VCOPOSCoinAcceptor@@@ATL@@6B?$ISpecifyPropertyPagesImpl@VCOPOSCoinAcceptor@@@1@@ 0000000180022d70     CoinAcceptor.obj
 0002:00000d90       ??_7?$CComContainedObject@VCOPOSCoinAcceptor@@@ATL@@6B?$IQuickActivateImpl@VCOPOSCoinAcceptor@@@1@@ 0000000180022d90     CoinAcceptor.obj
 0002:00000dc0       ??_7?$CComContainedObject@VCOPOSCoinAcceptor@@@ATL@@6B?$IDataObjectImpl@VCOPOSCoinAcceptor@@@1@@ 0000000180022dc0     CoinAcceptor.obj
 0002:00000e20       ??_7?$CComContainedObject@VCOPOSCoinAcceptor@@@ATL@@6B?$IProvideClassInfo2Impl@$1?CLSID_OPOSCoinAcceptor@@3U_GUID@@B$1?DIID__IOPOSCoinAcceptorEvents@@3U2@B$1?LIBID_OposCoinAcceptor_CCO@@3U2@B$00$0A@VCComTypeInfoHolder@ATL@@@1@@ 0000000180022e20     CoinAcceptor.obj
 0002:00000e48       ??_7?$CComContainedObject@VCOPOSCoinAcceptor@@@ATL@@6B?$IObjectSafetyImpl@VCOPOSCoinAcceptor@@$02@1@@ 0000000180022e48     CoinAcceptor.obj
 0002:00000e78       ??_7?$CComContainedObject@VCOPOSCoinAcceptor@@@ATL@@6B?$IPropertyNotifySinkCP@VCOPOSCoinAcceptor@@VCComDynamicUnkArray@ATL@@@1@@ 0000000180022e78     CoinAcceptor.obj
 0002:00000eb8       ??_7?$CComContainedObject@VCOPOSCoinAcceptor@@@ATL@@6B?$CProxy_IOPOSEvents@VCOPOSCoinAcceptor@@@@@ 0000000180022eb8     CoinAcceptor.obj
 0002:00000ef8       ??_7?$CComAggObject@VCOPOSCoinAcceptor@@@ATL@@6B@ 0000000180022ef8     CoinAcceptor.obj
 0002:00000f18       _GUID_b196b287_bab4_101a_b69c_00aa00341d07 0000000180022f18     CoinAcceptor.obj
 0002:00000f28       ??_7?$CComObject@VCOPOSCoinAcceptor@@@ATL@@6B?$IDispatchImpl@UIOPOSCoinAcceptor@@$1?IID_IOPOSCoinAcceptor@@3U_GUID@@B$1?LIBID_OposCoinAcceptor_CCO@@3U3@B$00$0A@VCComTypeInfoHolder@ATL@@@1@@ 0000000180022f28     CoinAcceptor.obj
 0002:00001180       ??_7?$CComObject@VCOPOSCoinAcceptor@@@ATL@@6BCComControlBase@1@@ 0000000180023180     CoinAcceptor.obj
 0002:000011a8       ??_7?$CComObject@VCOPOSCoinAcceptor@@@ATL@@6B?$CWindowImpl@VCOPOSCoinAcceptor@@VCWindow@ATL@@V?$CWinTraits@$0FGAAAAAA@$0A@@3@@1@@ 00000001800231a8     CoinAcceptor.obj
 0002:000011c8       ??_7?$CComObject@VCOPOSCoinAcceptor@@@ATL@@6B?$IPersistStreamInitImpl@VCOPOSCoinAcceptor@@@1@@ 00000001800231c8     CoinAcceptor.obj
 0002:00001210       ??_7?$CComObject@VCOPOSCoinAcceptor@@@ATL@@6B?$IOleControlImpl@VCOPOSCoinAcceptor@@@1@@ 0000000180023210     CoinAcceptor.obj
 0002:00001248       ??_7?$CComObject@VCOPOSCoinAcceptor@@@ATL@@6B?$IOleObjectImpl@VCOPOSCoinAcceptor@@@1@@ 0000000180023248     CoinAcceptor.obj
 0002:00001308       ??_7?$CComObject@VCOPOSCoinAcceptor@@@ATL@@6B?$IOleInPlaceActiveObjectImpl@VCOPOSCoinAcceptor@@@1@@ 0000000180023308     CoinAcceptor.obj
 0002:00001358       _GUID_b196b285_bab4_101a_b69c_00aa00341d07 0000000180023358     CoinAcceptor.obj
 0002:00001368       ??_7?$CComObject@VCOPOSCoinAcceptor@@@ATL@@6B?$IViewObjectExImpl@VCOPOSCoinAcceptor@@@1@@ 0000000180023368     CoinAcceptor.obj
 0002:000013e0       ??_7?$CComObject@VCOPOSCoinAcceptor@@@ATL@@6B?$IOleInPlaceObjectWindowlessImpl@VCOPOSCoinAcceptor@@@1@@ 00000001800233e0     CoinAcceptor.obj
 0002:00001438       ??_7?$CComObject@VCOPOSCoinAcceptor@@@ATL@@6B?$IConnectionPointContainerImpl@VCOPOSCoinAcceptor@@@1@@ 0000000180023438     CoinAcceptor.obj
 0002:00001460       ??_7?$CComObject@VCOPOSCoinAcceptor@@@ATL@@6B?$IPersistStorageImpl@VCOPOSCoinAcceptor@@@1@@ 0000000180023460     CoinAcceptor.obj
 0002:000014b0       ??_7?$CComObject@VCOPOSCoinAcceptor@@@ATL@@6B?$ISpecifyPropertyPagesImpl@VCOPOSCoinAcceptor@@@1@@ 00000001800234b0     CoinAcceptor.obj
 0002:000014d0       ??_7?$CComObject@VCOPOSCoinAcceptor@@@ATL@@6B?$IQuickActivateImpl@VCOPOSCoinAcceptor@@@1@@ 00000001800234d0     CoinAcceptor.obj
 0002:00001500       ??_7?$CComObject@VCOPOSCoinAcceptor@@@ATL@@6B?$IDataObjectImpl@VCOPOSCoinAcceptor@@@1@@ 0000000180023500     CoinAcceptor.obj
 0002:00001560       ??_7?$CComObject@VCOPOSCoinAcceptor@@@ATL@@6B?$IProvideClassInfo2Impl@$1?CLSID_OPOSCoinAcceptor@@3U_GUID@@B$1?DIID__IOPOSCoinAcceptorEvents@@3U2@B$1?LIBID_OposCoinAcceptor_CCO@@3U2@B$00$0A@VCComTypeInfoHolder@ATL@@@1@@ 0000000180023560     CoinAcceptor.obj
 0002:00001588       ??_7?$CComObject@VCOPOSCoinAcceptor@@@ATL@@6B?$IObjectSafetyImpl@VCOPOSCoinAcceptor@@$02@1@@ 0000000180023588     CoinAcceptor.obj
 0002:000015b8       ??_7?$CComObject@VCOPOSCoinAcceptor@@@ATL@@6B?$IPropertyNotifySinkCP@VCOPOSCoinAcceptor@@VCComDynamicUnkArray@ATL@@@1@@ 00000001800235b8     CoinAcceptor.obj
 0002:000015f8       ??_7?$CComObject@VCOPOSCoinAcceptor@@@ATL@@6B?$CProxy_IOPOSEvents@VCOPOSCoinAcceptor@@@@@ 00000001800235f8     CoinAcceptor.obj
 0002:00001638       ??_C@_1O@GBFKGNEO@?$AAA?$AAT?$AAL?$AA?3?$AA?$CF?$AAp@ 0000000180023638     CoinAcceptor.obj
 0002:00001648       ??_C@_1BA@PICGEGJB@?$AAD?$AAI?$AAS?$AAP?$AAL?$AAA?$AAY@ 0000000180023648     CoinAcceptor.obj
 0002:00001658       _GUID_a6bc3ac0_dbaa_11ce_9de3_00aa004bb851 0000000180023658     CoinAcceptor.obj
 0002:00001668       _GUID_0000010c_0000_0000_c000_000000000046 0000000180023668     CoinAcceptor.obj
 0002:00001678       _GUID_9bfbbc02_eff1_101a_84ed_00aa00341d07 0000000180023678     CoinAcceptor.obj
 0002:00001688       _GUID_00000146_0000_0000_c000_000000000046 0000000180023688     CoinAcceptor.obj
 0002:00001698       ?_entries@?1??_GetEntries@?$CComEnum@UIEnumConnectionPoints@@$1?_GUID_b196b285_bab4_101a_b69c_00aa00341d07@@3U__s_GUID@@BPEAUIConnectionPoint@@V?$_CopyInterface@UIConnectionPoint@@@ATL@@VCComSingleThreadModel@6@@ATL@@SAPEBU_ATL_INTMAP_ENTRY@3@XZ@4QBU43@B 0000000180023698     CoinAcceptor.obj
 0002:000016c8       _GUID_00020412_0000_0000_c000_000000000046 00000001800236c8     CoinAcceptor.obj
 0002:000016d8       _GUID_00020401_0000_0000_c000_000000000046 00000001800236d8     CoinAcceptor.obj
 0002:000016e8       ??_7CComModule@ATL@@6B@    00000001800236e8     CoinAcceptor.obj
 0002:00001738       _GUID_00000000_0000_0000_c000_000000000046 0000000180023738     CoinAcceptor.obj
 0002:00001748       _GUID_00020400_0000_0000_c000_000000000046 0000000180023748     CoinAcceptor.obj
 0002:00001758       ??_7?$CComObject@V?$CComEnum@UIEnumConnections@@$1?_GUID_b196b287_bab4_101a_b69c_00aa00341d07@@3U__s_GUID@@BUtagCONNECTDATA@@V?$_Copy@UtagCONNECTDATA@@@ATL@@VCComSingleThreadModel@6@@ATL@@@ATL@@6B@ 0000000180023758     CoinAcceptor.obj
 0002:00001798       _GUID_55980ba0_35aa_11cf_b671_00aa004cd6d8 0000000180023798     CoinAcceptor.obj
 0002:000017a8       _GUID_b196b28b_bab4_101a_b69c_00aa00341d07 00000001800237a8     CoinAcceptor.obj
 0002:000017b8       ??_C@_1M@KANJNLFF@?$AAC?$AAL?$AAS?$AAI?$AAD@ 00000001800237b8     CoinAcceptor.obj
 0002:000017c8       ??_C@_1M@EJNEECMJ@?$AAA?$AAp?$AAp?$AAI?$AAD@ 00000001800237c8     CoinAcceptor.obj
 0002:000017d8       ?_entries@?1??_GetEntries@?$CComEnum@UIEnumConnections@@$1?_GUID_b196b287_bab4_101a_b69c_00aa00341d07@@3U__s_GUID@@BUtagCONNECTDATA@@V?$_Copy@UtagCONNECTDATA@@@ATL@@VCComSingleThreadModel@6@@ATL@@SAPEBU_ATL_INTMAP_ENTRY@3@XZ@4QBU43@B 00000001800237d8     CoinAcceptor.obj
 0002:00001810       ?rgszNeverDelete@CRegParser@ATL@@1QBQEB_WB 0000000180023810     CoinAcceptor.obj
 0002:00001870       ??_7CRegObject@ATL@@6B@    0000000180023870     CoinAcceptor.obj
 0002:000018a0       ??_C@_1CK@OEKPKBNA@?$AAC?$AAo?$AAm?$AAp?$AAo?$AAn?$AAe?$AAn?$AAt?$AA?5?$AAC?$AAa?$AAt?$AAe?$AAg@ 00000001800238a0     CoinAcceptor.obj
 0002:000018d0       ??_C@_1BC@NKMMNMGL@?$AAF?$AAi?$AAl?$AAe?$AAT?$AAy?$AAp?$AAe@ 00000001800238d0     CoinAcceptor.obj
 0002:000018e8       ??_C@_1BE@EKPAFMCP@?$AAI?$AAn?$AAt?$AAe?$AAr?$AAf?$AAa?$AAc?$AAe@ 00000001800238e8     CoinAcceptor.obj
 0002:00001900       ??_C@_1BC@MAICEHGI@?$AAH?$AAa?$AAr?$AAd?$AAw?$AAa?$AAr?$AAe@ 0000000180023900     CoinAcceptor.obj
 0002:00001918       ??_C@_19HLLLM@?$AAM?$AAi?$AAm?$AAe@ 0000000180023918     CoinAcceptor.obj
 0002:00001928       ??_C@_17OMAOINJK@?$AAS?$AAA?$AAM@ 0000000180023928     CoinAcceptor.obj
 0002:00001930       ??_C@_1BC@IBECJAAI@?$AAS?$AAE?$AAC?$AAU?$AAR?$AAI?$AAT?$AAY@ 0000000180023930     CoinAcceptor.obj
 0002:00001948       ??_C@_1O@GBFINDKL@?$AAS?$AAY?$AAS?$AAT?$AAE?$AAM@ 0000000180023948     CoinAcceptor.obj
 0002:00001958       ??_C@_1BC@EAHCMADO@?$AAS?$AAo?$AAf?$AAt?$AAw?$AAa?$AAr?$AAe@ 0000000180023958     CoinAcceptor.obj
 0002:00001970       ??_C@_1BA@JIHHIEDE@?$AAT?$AAy?$AAp?$AAe?$AAL?$AAi?$AAb@ 0000000180023970     CoinAcceptor.obj
 0002:00001980       ?map@?1??HKeyFromString@CRegParser@ATL@@KAPEAUHKEY__@@PEA_W@Z@4QBUkeymap@?1??123@KAPEAU4@0@Z@B 0000000180023980     CoinAcceptor.obj
 0002:00001a60       ??_C@_19NCHLBIN@?$AAH?$AAK?$AAC?$AAR@ 0000000180023a60     CoinAcceptor.obj
 0002:00001a70       ??_C@_19JAPAIJDE@?$AAH?$AAK?$AAC?$AAU@ 0000000180023a70     CoinAcceptor.obj
 0002:00001a80       ??_C@_19PEALEEJB@?$AAH?$AAK?$AAL?$AAM@ 0000000180023a80     CoinAcceptor.obj
 0002:00001a90       ??_C@_17PJOJPMPB@?$AAH?$AAK?$AAU@ 0000000180023a90     CoinAcceptor.obj
 0002:00001a98       ??_C@_19PNBHMJPL@?$AAH?$AAK?$AAP?$AAD@ 0000000180023a98     CoinAcceptor.obj
 0002:00001aa8       ??_C@_19GFFAIJHG@?$AAH?$AAK?$AAD?$AAD@ 0000000180023aa8     CoinAcceptor.obj
 0002:00001ab8       ??_C@_19OFICIBHH@?$AAH?$AAK?$AAC?$AAC@ 0000000180023ab8     CoinAcceptor.obj
 0002:00001ac8       ??_C@_1CE@PACHPJFI@?$AAH?$AAK?$AAE?$AAY?$AA_?$AAC?$AAL?$AAA?$AAS?$AAS?$AAE?$AAS?$AA_?$AAR?$AAO@ 0000000180023ac8     CoinAcceptor.obj
 0002:00001af0       ??_C@_1CE@HLHNCBPM@?$AAH?$AAK?$AAE?$AAY?$AA_?$AAC?$AAU?$AAR?$AAR?$AAE?$AAN?$AAT?$AA_?$AAU?$AAS@ 0000000180023af0     CoinAcceptor.obj
 0002:00001b18       ??_C@_1CG@GFBEANJL@?$AAH?$AAK?$AAE?$AAY?$AA_?$AAL?$AAO?$AAC?$AAA?$AAL?$AA_?$AAM?$AAA?$AAC?$AAH@ 0000000180023b18     CoinAcceptor.obj
 0002:00001b40       ??_C@_1BG@BGODANIO@?$AAH?$AAK?$AAE?$AAY?$AA_?$AAU?$AAS?$AAE?$AAR?$AAS@ 0000000180023b40     CoinAcceptor.obj
 0002:00001b58       ??_C@_1CM@KHNNAOIC@?$AAH?$AAK?$AAE?$AAY?$AA_?$AAP?$AAE?$AAR?$AAF?$AAO?$AAR?$AAM?$AAA?$AAN?$AAC@ 0000000180023b58     CoinAcceptor.obj
 0002:00001b88       ??_C@_1BM@HAGMMHIA@?$AAH?$AAK?$AAE?$AAY?$AA_?$AAD?$AAY?$AAN?$AA_?$AAD?$AAA?$AAT?$AAA@ 0000000180023b88     CoinAcceptor.obj
 0002:00001ba8       ??_C@_1CI@BBJOACGG@?$AAH?$AAK?$AAE?$AAY?$AA_?$AAC?$AAU?$AAR?$AAR?$AAE?$AAN?$AAT?$AA_?$AAC?$AAO@ 0000000180023ba8     CoinAcceptor.obj
 0002:00001bd0       _GUID_00000109_0000_0000_c000_000000000046 0000000180023bd0     CoinAcceptor.obj
 0002:00001be0       _GUID_7fd52380_4e07_101b_ae2d_08002b2ec713 0000000180023be0     CoinAcceptor.obj
 0002:00001bf0       ??_C@_1EA@NHKLICFA@?$AAH?$AAK?$AAC?$AAU?$AA?$AN?$AA?6?$AA?$HL?$AA?7?$AAS?$AAo?$AAf?$AAt?$AAw?$AAa?$AAr@ 0000000180023bf0     CoinAcceptor.obj
 0002:00001c30       ??_C@_1BE@LJOLIMEM@?$AA?$AN?$AA?6?$AA?7?$AA?$HN?$AA?$AN?$AA?6?$AA?$HN?$AA?$AN?$AA?6@ 0000000180023c30     CoinAcceptor.obj
 0002:00001c48       ??_C@_1O@MNLDABAF@?$AAM?$AAo?$AAd?$AAu?$AAl?$AAe@ 0000000180023c48     CoinAcceptor.obj
 0002:00001c58       ??_C@_1BG@JBACFMF@?$AAM?$AAo?$AAd?$AAu?$AAl?$AAe?$AA_?$AAR?$AAa?$AAw@ 0000000180023c58     CoinAcceptor.obj
 0002:00001c70       ??_C@_1BC@KAILKFFG@?$AAR?$AAE?$AAG?$AAI?$AAS?$AAT?$AAR?$AAY@ 0000000180023c70     CoinAcceptor.obj
 0002:00001c88       IID_IOPOSCoinAcceptor_1_11 0000000180023c88     CoinAcceptor.obj
 0002:00001c98       IID_IOPOSCoinAcceptor      0000000180023c98     CoinAcceptor.obj
 0002:00001ca8       LIBID_OposCoinAcceptor_CCO 0000000180023ca8     CoinAcceptor.obj
 0002:00001cb8       DIID__IOPOSCoinAcceptorEvents 0000000180023cb8     CoinAcceptor.obj
 0002:00001cc8       CLSID_OPOSCoinAcceptor     0000000180023cc8     CoinAcceptor.obj
 0002:00001cd8       _GUID_00000114_0000_0000_c000_000000000046 0000000180023cd8     CoinAcceptor.obj
 0002:00001ce8       _GUID_b196b284_bab4_101a_b69c_00aa00341d07 0000000180023ce8     CoinAcceptor.obj
 0002:00001d00       ?_entries@?1??_GetEntries@COPOSCoinAcceptor@@SAPEBU_ATL_INTMAP_ENTRY@ATL@@XZ@4QBU34@B 0000000180023d00     CoinAcceptor.obj
 0002:00001f40       _GUID_cf51ed10_62fe_11cf_bf86_00a0c9034836 0000000180023f40     CoinAcceptor.obj
 0002:00001f50       _GUID_0000010a_0000_0000_c000_000000000046 0000000180023f50     CoinAcceptor.obj
 0002:00001f60       _GUID_b196b283_bab4_101a_b69c_00aa00341d07 0000000180023f60     CoinAcceptor.obj
 0002:00001f70       _GUID_cb5bdc81_93c1_11cf_8f20_00805f2cd064 0000000180023f70     CoinAcceptor.obj
 0002:00001f80       ?pPropMap@?1??GetPropertyMap@COPOSCoinAcceptor@@SAPEBUATL_PROPMAP_ENTRY@ATL@@XZ@4QBU34@B 0000000180023f80     CoinAcceptor.obj
 0002:00002028       ??_C@_17DGDADEHL@?$AA_?$AAc?$AAx@ 0000000180024028     CoinAcceptor.obj
 0002:00002030       ??_C@_17IOIMFDBO@?$AA_?$AAc?$AAy@ 0000000180024030     CoinAcceptor.obj
 0002:00002038       _GUID_b196b286_bab4_101a_b69c_00aa00341d07 0000000180024038     CoinAcceptor.obj
 0002:00002048       _GUID_922eada0_3424_11cf_b670_00aa004cd6d8 0000000180024048     CoinAcceptor.obj
 0002:00002058       _GUID_9c2cad80_3424_11cf_b670_00aa004cd6d8 0000000180024058     CoinAcceptor.obj
 0002:00002068       ??_C@_1CE@PGFMOFKI@?$AAS?$AAt?$AAa?$AAt?$AAu?$AAs?$AAU?$AAp?$AAd?$AAa?$AAt?$AAe?$AAE?$AAv?$AAe@ 0000000180024068     CoinAcceptor.obj
 0002:00002090       _GUID_00000119_0000_0000_c000_000000000046 0000000180024090     CoinAcceptor.obj
 0002:000020a0       _GUID_b196b289_bab4_101a_b69c_00aa00341d07 00000001800240a0     CoinAcceptor.obj
 0002:000020b0       ??_C@_1BM@CBGEBBBJ@?$AAD?$AAi?$AAr?$AAe?$AAc?$AAt?$AAI?$AAO?$AAE?$AAv?$AAe?$AAn?$AAt@ 00000001800240b0     CoinAcceptor.obj
 0002:000020d0       ??_C@_1BE@IEBMACEM@?$AAD?$AAa?$AAt?$AAa?$AAE?$AAv?$AAe?$AAn?$AAt@ 00000001800240d0     CoinAcceptor.obj
 0002:000020e8       _GUID_00000117_0000_0000_c000_000000000046 00000001800240e8     CoinAcceptor.obj
 0002:000020f8       ??_C@_1BC@ENICKDH@?$AAC?$AAo?$AAn?$AAt?$AAe?$AAn?$AAt?$AAs@ 00000001800240f8     CoinAcceptor.obj
 0002:00002110       ??_7?$CComObject@V?$CComEnum@UIEnumConnectionPoints@@$1?_GUID_b196b285_bab4_101a_b69c_00aa00341d07@@3U__s_GUID@@BPEAUIConnectionPoint@@V?$_CopyInterface@UIConnectionPoint@@@ATL@@VCComSingleThreadModel@6@@ATL@@@ATL@@6B@ 0000000180024110     CoinAcceptor.obj
 0002:00002150       ??_7CComClassFactory@ATL@@6B@ 0000000180024150     CoinAcceptor.obj
 0002:00002180       ?_entries@?1??_GetEntries@CComClassFactory@ATL@@SAPEBU_ATL_INTMAP_ENTRY@3@XZ@4QBU43@B 0000000180024180     CoinAcceptor.obj
 0002:000021b0       _GUID_00000001_0000_0000_c000_000000000046 00000001800241b0     CoinAcceptor.obj
 0002:000021c0       _GUID_0000010e_0000_0000_c000_000000000046 00000001800241c0     CoinAcceptor.obj
 0002:000021d0       _GUID_b196b288_bab4_101a_b69c_00aa00341d07 00000001800241d0     CoinAcceptor.obj
 0002:000021e0       _GUID_00000113_0000_0000_c000_000000000046 00000001800241e0     CoinAcceptor.obj
 0002:000021f0       _GUID_1c2056cc_5ef4_101b_8bc8_00aa003e3b29 00000001800241f0     CoinAcceptor.obj
 0002:00002200       ??_C@_0BG@EKFFMJIO@RegOpenKeyTransactedW@ 0000000180024200     CoinAcceptor.obj
 0002:00002218       ??_C@_0BI@HAKLOOGP@RegDeleteKeyTransactedW@ 0000000180024218     CoinAcceptor.obj
 0002:00002230       ??_C@_0BA@LILAPHGE@RegDeleteKeyExW@ 0000000180024230     CoinAcceptor.obj
 0002:00002240       ??_C@_19ILOCMLCJ@?$AA?4?$AAt?$AAl?$AAb@ 0000000180024240     CoinAcceptor.obj
 0002:00002250       _GUID_0002e012_0000_0000_c000_000000000046 0000000180024250     CoinAcceptor.obj
 0002:00002260       ??_C@_1O@FHBGLCIO@?$AAC?$AAL?$AAS?$AAI?$AAD?$AA?2@ 0000000180024260     CoinAcceptor.obj
 0002:00002270       ??_C@_1CK@IFBKBFAA@?$AA?2?$AAR?$AAe?$AAq?$AAu?$AAi?$AAr?$AAe?$AAd?$AA?5?$AAC?$AAa?$AAt?$AAe?$AAg@ 0000000180024270     CoinAcceptor.obj
 0002:000022a0       ??_C@_1DA@BIHALFED@?$AA?2?$AAI?$AAm?$AAp?$AAl?$AAe?$AAm?$AAe?$AAn?$AAt?$AAe?$AAd?$AA?5?$AAC?$AAa@ 00000001800242a0     CoinAcceptor.obj
 0002:000022d0       ??_C@_1BK@EDKOLFBJ@?$AAO?$AAL?$AAE?$AAA?$AAU?$AAT?$AA3?$AA2?$AA?4?$AAD?$AAL?$AAL@ 00000001800242d0     CoinAcceptor.obj
 0002:000022f0       ??_C@_0BJ@CNLFOMHB@UnRegisterTypeLibForUser@ 00000001800242f0     CoinAcceptor.obj
 0002:00002310       ??_C@_0BH@LBOMMKPJ@RegisterTypeLibForUser@ 0000000180024310     CoinAcceptor.obj
 0002:00002328       ??_C@_0P@MMNMMLGK@COFreezeEvents@ 0000000180024328     CoinAcceptorImpl.obj
 0002:00002338       ??_C@_0BC@OGCGGIMP@GetPropertyNumber@ 0000000180024338     CoinAcceptorImpl.obj
 0002:00002350       ??_C@_0BC@MDCNODNB@SetPropertyNumber@ 0000000180024350     CoinAcceptorImpl.obj
 0002:00002368       ??_C@_0BC@CFCCMIMD@GetPropertyString@ 0000000180024368     CoinAcceptorImpl.obj
 0002:00002380       ??_C@_0BC@CJEDNN@SetPropertyString@ 0000000180024380     CoinAcceptorImpl.obj
 0002:00002398       ??_C@_0M@LNPKKKDA@OpenService@ 0000000180024398     CoinAcceptorImpl.obj
 0002:000023a8       ??_C@_0M@PCMCHHMH@CheckHealth@ 00000001800243a8     CoinAcceptorImpl.obj
 0002:000023b8       ??_C@_0M@JGMIDNEK@ClaimDevice@ 00000001800243b8     CoinAcceptorImpl.obj
 0002:000023c8       ??_C@_0L@BNEIFEJC@ClearInput@ 00000001800243c8     CoinAcceptorImpl.obj
 0002:000023d8       ??_C@_0N@DDFIIBMP@CloseService@ 00000001800243d8     CoinAcceptorImpl.obj
 0002:000023e8       ??_C@_08EEIHICPC@DirectIO@ 00000001800243e8     CoinAcceptorImpl.obj
 0002:000023f8       ??_C@_0O@BCPMENMJ@ReleaseDevice@ 00000001800243f8     CoinAcceptorImpl.obj
 0002:00002408       ??_C@_0BA@GFABKEEE@ResetStatistics@ 0000000180024408     CoinAcceptorImpl.obj
 0002:00002418       ??_C@_0BD@DPALHJGC@RetrieveStatistics@ 0000000180024418     CoinAcceptorImpl.obj
 0002:00002430       ??_C@_0BB@KOHIKNFC@UpdateStatistics@ 0000000180024430     CoinAcceptorImpl.obj
 0002:00002448       ??_C@_0BH@PBKBNMGB@CompareFirmwareVersion@ 0000000180024448     CoinAcceptorImpl.obj
 0002:00002460       ??_C@_0P@FBPDPIPA@UpdateFirmware@ 0000000180024460     CoinAcceptorImpl.obj
 0002:00002470       ??_C@_0BB@OAMAKNAK@AdjustCashCounts@ 0000000180024470     CoinAcceptorImpl.obj
 0002:00002488       ??_C@_0N@EMNBHBJF@BeginDeposit@ 0000000180024488     CoinAcceptorImpl.obj
 0002:00002498       ??_C@_0L@OMAABOPC@EndDeposit@ 0000000180024498     CoinAcceptorImpl.obj
 0002:000024a8       ??_C@_0L@NNMKNCOP@FixDeposit@ 00000001800244a8     CoinAcceptorImpl.obj
 0002:000024b8       ??_C@_0N@NPMPKLIN@PauseDeposit@ 00000001800244b8     CoinAcceptorImpl.obj
 0002:000024c8       ??_C@_0P@HELDJPLA@ReadCashCounts@ 00000001800244c8     CoinAcceptorImpl.obj
 0002:000024d8       ??_7?$CProxy_IOPOSEvents@VCOPOSCoinAcceptor@@@@6B@ 00000001800244d8     CoinAcceptorImpl.obj
 0002:00002518       ??_C@_1BA@IFHENID@?$AA?$FL?$AAE?$AAr?$AAr?$AAo?$AAr?$AA?$FN@ 0000000180024518     CoinAcceptorImpl.obj
 0002:00002528       ??_C@_0CP@MMDMPADE@SOFTWARE?2OLEforRetail?2ServiceOP@ 0000000180024528     CoinAcceptorImpl.obj
 0002:00002558       ??_C@_1M@IAIJHCCH@?$AAC?$AAl?$AAo?$AAs?$AAe@ 0000000180024558     CoinAcceptorImpl.obj
 0002:00002568       ??_C@_1M@PCPKGJAH@?$AAC?$AAl?$AAa?$AAi?$AAm@ 0000000180024568     CoinAcceptorImpl.obj
 0002:00002578       ??_C@_1BA@NDFKIOCP@?$AAR?$AAe?$AAl?$AAe?$AAa?$AAs?$AAe@ 0000000180024578     CoinAcceptorImpl.obj
 0002:00002588       ??_C@_0N@HIFKBDPP@CoinAcceptor@ 0000000180024588     CoinAcceptorImpl.obj
 0002:00002598       ??_C@_1BM@IJMNMBPK@?$AAG?$AAe?$AAt?$AAO?$AAp?$AAe?$AAn?$AAR?$AAe?$AAs?$AAu?$AAl?$AAt@ 0000000180024598     CoinAcceptorImpl.obj
 0002:000025b8       IID_IPropertyNotifySink    00000001800245b8     uuid:ocidl_i.obj
 0002:000025c8       IID_IDispatch              00000001800245c8     uuid:oaidl_i.obj
 0002:000025d8       GUID_NULL                  00000001800245d8     uuid:cguid_i.obj
 0002:000025e8       CLSID_StdGlobalInterfaceTable 00000001800245e8     uuid:cguid_i.obj
 0002:000025f8       CLSID_StdComponentCategoriesMgr 00000001800245f8     uuid:ieguids.obj
 0002:00002608       IID_IUnknown               0000000180024608     uuid:unknwn_i.obj
 0002:00002620       __xmm@ffffffffffffffffffffffffffffffff 0000000180024620     LIBCMT:utility.obj
 0002:00002630       ??_C@_1EC@JIJBPKFM@?$AAa?$AAp?$AAi?$AA?9?$AAm?$AAs?$AA?9?$AAw?$AAi?$AAn?$AA?9?$AAc?$AAo?$AAr?$AAe@ 0000000180024630     LIBCMT:thread_safe_statics.obj
 0002:00002678       ??_C@_1BK@MGMFAEKH@?$AAk?$AAe?$AAr?$AAn?$AAe?$AAl?$AA3?$AA2?$AA?4?$AAd?$AAl?$AAl@ 0000000180024678     LIBCMT:thread_safe_statics.obj
 0002:00002698       ??_C@_0BJ@JEBJOJFJ@SleepConditionVariableCS@ 0000000180024698     LIBCMT:thread_safe_statics.obj
 0002:000026b8       ??_C@_0BJ@PGPPEPCC@WakeAllConditionVariable@ 00000001800246b8     LIBCMT:thread_safe_statics.obj
 0002:000026d1       ?nothrow@std@@3Unothrow_t@1@B 00000001800246d1     LIBCMT:std_nothrow.obj
 0002:00002710       _pDefaultRawDllMain        0000000180024710     LIBCMT:dll_dllmain.obj
 0002:00002710       _pRawDllMain               0000000180024710     LIBCMT:dll_dllmain.obj
 0002:00002720       ??_7exception@std@@6B@     0000000180024720     LIBCMT:throw_bad_alloc.obj
 0002:00002730       ??_C@_0BC@EOODALEL@Unknown?5exception@ 0000000180024730     LIBCMT:throw_bad_alloc.obj
 0002:00002750       ??_7bad_alloc@std@@6B@     0000000180024750     LIBCMT:throw_bad_alloc.obj
 0002:00002760       ??_C@_0P@GHFPNOJB@bad?5allocation@ 0000000180024760     LIBCMT:throw_bad_alloc.obj
 0002:00002778       ??_7bad_array_new_length@std@@6B@ 0000000180024778     LIBCMT:throw_bad_alloc.obj
 0002:00002788       ??_C@_0BF@KINCDENJ@bad?5array?5new?5length@ 0000000180024788     LIBCMT:throw_bad_alloc.obj
 0002:000027a8       ??_7type_info@@6B@         00000001800247a8     LIBCMT:std_type_info_static.obj
 0002:000027b0       GUID_ATLVer110             00000001800247b0     atls:atlbase.obj
 0002:000027c0       ??_C@_1IC@ONKHOIDK@?$AAE?$AAR?$AAR?$AAO?$AAR?$AA?5?$AA?3?$AA?5?$AAU?$AAn?$AAa?$AAb?$AAl?$AAe?$AA?5@ 00000001800247c0     atls:atlbase.obj
 0002:00002848       ??_C@_0N@FJEPLCIH@atlthunk?4dll@ 0000000180024848     atls:atlthunk.obj
 0002:00002858       ??_C@_0BG@GAKFHCBM@AtlThunk_AllocateData@ 0000000180024858     atls:atlthunk.obj
 0002:00002870       ??_C@_0BC@JKONFIAH@AtlThunk_InitData@ 0000000180024870     atls:atlthunk.obj
 0002:00002888       ??_C@_0BE@IAOEELAK@AtlThunk_DataToCode@ 0000000180024888     atls:atlthunk.obj
 0002:000028a0       ??_C@_0BC@GBGKAIPI@AtlThunk_FreeData@ 00000001800248a0     atls:atlthunk.obj
 0002:000029a0       _pDestructExceptionObject  00000001800249a0     libvcruntime:ehhelpers.obj
 0002:000029b0       ??_7bad_exception@std@@6B@ 00000001800249b0     libvcruntime:frame.obj
 0002:000029c0       ??_C@_0O@DPKOEFFH@bad?5exception@ 00000001800249c0     libvcruntime:frame.obj
 0002:00002d10       ??_C@_08EHJDFFNH@__based?$CI@ 0000000180024d10     libvcruntime:undname.obj
 0002:00002d20       ??_C@_07KOLFKCDI@__cdecl@  0000000180024d20     libvcruntime:undname.obj
 0002:00002d28       ??_C@_08GHMPAG@__pascal@   0000000180024d28     libvcruntime:undname.obj
 0002:00002d38       ??_C@_09IFJBGAPI@__stdcall@ 0000000180024d38     libvcruntime:undname.obj
 0002:00002d48       ??_C@_0L@NPHFGOKO@__thiscall@ 0000000180024d48     libvcruntime:undname.obj
 0002:00002d58       ??_C@_0L@JMKHOMEK@__fastcall@ 0000000180024d58     libvcruntime:undname.obj
 0002:00002d68       ??_C@_0N@BCKKPABJ@__vectorcall@ 0000000180024d68     libvcruntime:undname.obj
 0002:00002d78       ??_C@_09HIJEGCPM@__clrcall@ 0000000180024d78     libvcruntime:undname.obj
 0002:00002d84       ??_C@_06GHPCKEAG@__eabi@   0000000180024d84     libvcruntime:undname.obj
 0002:00002d90       ??_C@_09IOPIDJLG@__swift_1@ 0000000180024d90     libvcruntime:undname.obj
 0002:00002da0       ??_C@_09KFNFGKHF@__swift_2@ 0000000180024da0     libvcruntime:undname.obj
 0002:00002db0       ??_C@_07JOMMBBKO@__ptr64@  0000000180024db0     libvcruntime:undname.obj
 0002:00002db8       ??_C@_0L@PILCLIHE@__restrict@ 0000000180024db8     libvcruntime:undname.obj
 0002:00002dc8       ??_C@_0M@GFIIJFMG@__unaligned@ 0000000180024dc8     libvcruntime:undname.obj
 0002:00002dd8       ??_C@_09DHDLOLLB@restrict?$CI@ 0000000180024dd8     libvcruntime:undname.obj
 0002:00002de2       ??_C@_00CNPNBAHC@@         0000000180024de2     libvcruntime:undname.obj
 0002:00002de4       ??_C@_04NIHEBCM@?5new@     0000000180024de4     libvcruntime:undname.obj
 0002:00002df0       ??_C@_07FPCDHGMM@?5delete@ 0000000180024df0     libvcruntime:undname.obj
 0002:00002df8       ??_C@_01NEMOKFLO@?$DN@     0000000180024df8     libvcruntime:undname.obj
 0002:00002dfc       ??_C@_02GPIOPFAK@?$DO?$DO@ 0000000180024dfc     libvcruntime:undname.obj
 0002:00002e00       ??_C@_02FODMEDOG@?$DM?$DM@ 0000000180024e00     libvcruntime:undname.obj
 0002:00002e04       ??_C@_01DCLJPIOD@?$CB@     0000000180024e04     libvcruntime:undname.obj
 0002:00002e08       ??_C@_02EGOFBIJA@?$DN?$DN@ 0000000180024e08     libvcruntime:undname.obj
 0002:00002e0c       ??_C@_02FDNJECIE@?$CB?$DN@ 0000000180024e0c     libvcruntime:undname.obj
 0002:00002e10       ??_C@_02GPECMEKF@?$FL?$FN@ 0000000180024e10     libvcruntime:undname.obj
 0002:00002e18       ??_C@_08LHJFAFGD@operator@ 0000000180024e18     libvcruntime:undname.obj
 0002:00002e24       ??_C@_02HBOOOICD@?9?$DO@   0000000180024e24     libvcruntime:undname.obj
 0002:00002e28       ??_C@_01NBENCBCI@?$CK@     0000000180024e28     libvcruntime:undname.obj
 0002:00002e2c       ??_C@_02ECNGHCIF@?$CL?$CL@ 0000000180024e2c     libvcruntime:undname.obj
 0002:00002e30       ??_C@_02BAABKJLB@?9?9@     0000000180024e30     libvcruntime:undname.obj
 0002:00002e34       ??_C@_01JOAMLHOP@?9@       0000000180024e34     libvcruntime:undname.obj
 0002:00002e38       ??_C@_01MIFGBAGJ@?$CL@     0000000180024e38     libvcruntime:undname.obj
 0002:00002e3c       ??_C@_01HNPIGOCE@?$CG@     0000000180024e3c     libvcruntime:undname.obj
 0002:00002e40       ??_C@_03MNHNFDLC@?9?$DO?$CK@ 0000000180024e40     libvcruntime:undname.obj
 0002:00002e44       ??_C@_01KMDKNFGN@?1@       0000000180024e44     libvcruntime:undname.obj
 0002:00002e48       ??_C@_01FGNFDNOH@?$CF@     0000000180024e48     libvcruntime:undname.obj
 0002:00002e4c       ??_C@_01MNNFJEPP@?$DM@     0000000180024e4c     libvcruntime:undname.obj
 0002:00002e50       ??_C@_02EHCHHCKH@?$DM?$DN@ 0000000180024e50     libvcruntime:undname.obj
 0002:00002e54       ??_C@_01PPODPGHN@?$DO@     0000000180024e54     libvcruntime:undname.obj
 0002:00002e58       ??_C@_02EEKDKGMJ@?$DO?$DN@ 0000000180024e58     libvcruntime:undname.obj
 0002:00002e5c       ??_C@_01IHBHIGKO@?0@       0000000180024e5c     libvcruntime:undname.obj
 0002:00002e60       ??_C@_02HCKGKOFO@?$CI?$CJ@ 0000000180024e60     libvcruntime:undname.obj
 0002:00002e64       ??_C@_01PJKLJHI@?$HO@      0000000180024e64     libvcruntime:undname.obj
 0002:00002e68       ??_C@_01JKBOJNNK@?$FO@     0000000180024e68     libvcruntime:undname.obj
 0002:00002e6c       ??_C@_01DNKMNLPK@?$HM@     0000000180024e6c     libvcruntime:undname.obj
 0002:00002e70       ??_C@_02PPKAJPJL@?$CG?$CG@ 0000000180024e70     libvcruntime:undname.obj
 0002:00002e74       ??_C@_02NONPIBCD@?$HM?$HM@ 0000000180024e74     libvcruntime:undname.obj
 0002:00002e78       ??_C@_02FPIMKNGF@?$CK?$DN@ 0000000180024e78     libvcruntime:undname.obj
 0002:00002e7c       ??_C@_02FOEOMHFC@?$CL?$DN@ 0000000180024e7c     libvcruntime:undname.obj
 0002:00002e80       ??_C@_02FKMDLLOA@?9?$DN@   0000000180024e80     libvcruntime:undname.obj
 0002:00002e84       ??_C@_02FJEHGPIO@?1?$DN@   0000000180024e84     libvcruntime:undname.obj
 0002:00002e88       ??_C@_02FENAOKFI@?$CF?$DN@ 0000000180024e88     libvcruntime:undname.obj
 0002:00002e8c       ??_C@_03IKFCCPFF@?$DO?$DO?$DN@ 0000000180024e8c     libvcruntime:undname.obj
 0002:00002e90       ??_C@_03CDNPDDLA@?$DM?$DM?$DN@ 0000000180024e90     libvcruntime:undname.obj
 0002:00002e94       ??_C@_02FGJGFEAB@?$CG?$DN@ 0000000180024e94     libvcruntime:undname.obj
 0002:00002e98       ??_C@_02DHLNPPGH@?$HM?$DN@ 0000000180024e98     libvcruntime:undname.obj
 0002:00002e9c       ??_C@_02MHEGNOJ@?$FO?$DN@  0000000180024e9c     libvcruntime:undname.obj
 0002:00002ea0       ??_C@_09IFPLHPGF@?$GAvftable?8@ 0000000180024ea0     libvcruntime:undname.obj
 0002:00002eb0       ??_C@_09BLBHBJP@?$GAvbtable?8@ 0000000180024eb0     libvcruntime:undname.obj
 0002:00002ec0       ??_C@_07FEEIOKP@?$GAvcall?8@ 0000000180024ec0     libvcruntime:undname.obj
 0002:00002ec8       ??_C@_08LLFFHHDJ@?$GAtypeof?8@ 0000000180024ec8     libvcruntime:undname.obj
 0002:00002ed8       ??_C@_0BF@KDPPACIK@?$GAlocal?5static?5guard?8@ 0000000180024ed8     libvcruntime:undname.obj
 0002:00002ef0       ??_C@_08OBABFOLI@?$GAstring?8@ 0000000180024ef0     libvcruntime:undname.obj
 0002:00002f00       ??_C@_0BD@JDLKDPAB@?$GAvbase?5destructor?8@ 0000000180024f00     libvcruntime:undname.obj
 0002:00002f18       ??_C@_0BN@DEGPLNFK@?$GAvector?5deleting?5destructor?8@ 0000000180024f18     libvcruntime:undname.obj
 0002:00002f38       ??_C@_0BO@OBMKPJIG@?$GAdefault?5constructor?5closure?8@ 0000000180024f38     libvcruntime:undname.obj
 0002:00002f58       ??_C@_0BN@IMDCHIKM@?$GAscalar?5deleting?5destructor?8@ 0000000180024f58     libvcruntime:undname.obj
 0002:00002f78       ??_C@_0BO@PFGOCPJJ@?$GAvector?5constructor?5iterator?8@ 0000000180024f78     libvcruntime:undname.obj
 0002:00002f98       ??_C@_0BN@LFPFMEDL@?$GAvector?5destructor?5iterator?8@ 0000000180024f98     libvcruntime:undname.obj
 0002:00002fb8       ??_C@_0CE@IKBNEHA@?$GAvector?5vbase?5constructor?5itera@ 0000000180024fb8     libvcruntime:undname.obj
 0002:00002fe0       ??_C@_0BL@NILFHHPC@?$GAvirtual?5displacement?5map?8@ 0000000180024fe0     libvcruntime:undname.obj
 0002:00003000       ??_C@_0CB@JONCMFFK@?$GAeh?5vector?5constructor?5iterator@ 0000000180025000     libvcruntime:undname.obj
 0002:00003028       ??_C@_0CA@GCEOPDGL@?$GAeh?5vector?5destructor?5iterator?8@ 0000000180025028     libvcruntime:undname.obj
 0002:00003048       ??_C@_0CH@OOJPLCPH@?$GAeh?5vector?5vbase?5constructor?5it@ 0000000180025048     libvcruntime:undname.obj
 0002:00003070       ??_C@_0BL@LLKPOHJI@?$GAcopy?5constructor?5closure?8@ 0000000180025070     libvcruntime:undname.obj
 0002:00003090       ??_C@_0BA@KBCDOMBN@?$GAudt?5returning?8@ 0000000180025090     libvcruntime:undname.obj
 0002:000030a0       ??_C@_03KLGMFNMG@?$GAEH@   00000001800250a0     libvcruntime:undname.obj
 0002:000030a4       ??_C@_05KHLCHHI@?$GARTTI@  00000001800250a4     libvcruntime:undname.obj
 0002:000030b0       ??_C@_0BA@KKLDJDLB@?$GAlocal?5vftable?8@ 00000001800250b0     libvcruntime:undname.obj
 0002:000030c0       ??_C@_0CE@IIHCMGGL@?$GAlocal?5vftable?5constructor?5clos@ 00000001800250c0     libvcruntime:undname.obj
 0002:000030e4       ??_C@_06FHBGPFGH@?5new?$FL?$FN@ 00000001800250e4     libvcruntime:undname.obj
 0002:000030f0       ??_C@_09LBNFPBCA@?5delete?$FL?$FN@ 00000001800250f0     libvcruntime:undname.obj
 0002:00003100       ??_C@_0P@HJKNJFNN@?$GAomni?5callsig?8@ 0000000180025100     libvcruntime:undname.obj
 0002:00003110       ??_C@_0BL@CNOONJFP@?$GAplacement?5delete?5closure?8@ 0000000180025110     libvcruntime:undname.obj
 0002:00003130       ??_C@_0BN@CKNJLHMB@?$GAplacement?5delete?$FL?$FN?5closure?8@ 0000000180025130     libvcruntime:undname.obj
 0002:00003150       ??_C@_0CG@CFDHKGGD@?$GAmanaged?5vector?5constructor?5ite@ 0000000180025150     libvcruntime:undname.obj
 0002:00003178       ??_C@_0CF@IMGKMJNO@?$GAmanaged?5vector?5destructor?5iter@ 0000000180025178     libvcruntime:undname.obj
 0002:000031a0       ??_C@_0CG@HLDDJMAG@?$GAeh?5vector?5copy?5constructor?5ite@ 00000001800251a0     libvcruntime:undname.obj
 0002:000031c8       ??_C@_0CM@FCBBDIGB@?$GAeh?5vector?5vbase?5copy?5construct@ 00000001800251c8     libvcruntime:undname.obj
 0002:000031f8       ??_C@_0BL@CLIPGLGB@?$GAdynamic?5initializer?5for?5?8@ 00000001800251f8     libvcruntime:undname.obj
 0002:00003218       ??_C@_0CB@PDBIFEP@?$GAdynamic?5atexit?5destructor?5for?5@ 0000000180025218     libvcruntime:undname.obj
 0002:00003240       ??_C@_0CD@CGAJBKEJ@?$GAvector?5copy?5constructor?5iterat@ 0000000180025240     libvcruntime:undname.obj
 0002:00003268       ??_C@_0CJ@GJELGAMM@?$GAvector?5vbase?5copy?5constructor?5@ 0000000180025268     libvcruntime:undname.obj
 0002:00003298       ??_C@_0CL@FGIJHLCE@?$GAmanaged?5vector?5copy?5constructo@ 0000000180025298     libvcruntime:undname.obj
 0002:000032c8       ??_C@_0BM@PMGGMLDN@?$GAlocal?5static?5thread?5guard?8@ 00000001800252c8     libvcruntime:undname.obj
 0002:000032e8       ??_C@_0N@BDNMDMOL@operator?5?$CC?$CC?5@ 00000001800252e8     libvcruntime:undname.obj
 0002:000032f8       ??_C@_0BC@GGEBGALA@operator?5co_await@ 00000001800252f8     libvcruntime:undname.obj
 0002:00003310       ??_C@_0M@GAAIMMOH@operator?$DM?$DN?$DO@ 0000000180025310     libvcruntime:undname.obj
 0002:00003320       ??_C@_0BC@DAFEJGAK@?5Type?5Descriptor?8@ 0000000180025320     libvcruntime:undname.obj
 0002:00003338       ??_C@_0BM@LDKODKLH@?5Base?5Class?5Descriptor?5at?5?$CI@ 0000000180025338     libvcruntime:undname.obj
 0002:00003358       ??_C@_0BD@LGICGFMM@?5Base?5Class?5Array?8@ 0000000180025358     libvcruntime:undname.obj
 0002:00003370       ??_C@_0BN@MECKDCOJ@?5Class?5Hierarchy?5Descriptor?8@ 0000000180025370     libvcruntime:undname.obj
 0002:00003390       ??_C@_0BK@CFCOFLF@?5Complete?5Object?5Locator?8@ 0000000180025390     libvcruntime:undname.obj
 0002:000033c8       ??_C@_1DM@KHCHBNEB@?$AAa?$AAp?$AAi?$AA?9?$AAm?$AAs?$AA?9?$AAw?$AAi?$AAn?$AA?9?$AAc?$AAo?$AAr?$AAe@ 00000001800253c8     libvcruntime:winapi_downlevel.obj
 0002:00003408       ??_C@_1DK@LPPGFMPP@?$AAa?$AAp?$AAi?$AA?9?$AAm?$AAs?$AA?9?$AAw?$AAi?$AAn?$AA?9?$AAc?$AAo?$AAr?$AAe@ 0000000180025408     libvcruntime:winapi_downlevel.obj
 0002:00003448       ??_C@_1BC@GDMECMAK@?$AAk?$AAe?$AAr?$AAn?$AAe?$AAl?$AA3?$AA2@ 0000000180025448     libvcruntime:winapi_downlevel.obj
 0002:00003460       ??_C@_1BA@PFFKHIOG@?$AAa?$AAp?$AAi?$AA?9?$AAm?$AAs?$AA?9@ 0000000180025460     libvcruntime:winapi_downlevel.obj
 0002:00003478       ??_C@_08KNHFBNJ@FlsAlloc@  0000000180025478     libvcruntime:winapi_downlevel.obj
 0002:00003490       ??_C@_07PEJMOBNF@FlsFree@  0000000180025490     libvcruntime:winapi_downlevel.obj
 0002:000034a0       ??_C@_0M@GDNOONDI@FlsGetValue@ 00000001800254a0     libvcruntime:winapi_downlevel.obj
 0002:000034b8       ??_C@_0M@JCPCPOEF@FlsSetValue@ 00000001800254b8     libvcruntime:winapi_downlevel.obj
 0002:000034d0       ??_C@_0BM@HCFOFFN@InitializeCriticalSectionEx@ 00000001800254d0     libvcruntime:winapi_downlevel.obj
 0002:00003660       format_validation_lookup_table 0000000180025660     libucrt:output.obj
 0002:000036c0       ??_C@_1O@CEDCILHN@?$AA?$CI?$AAn?$AAu?$AAl?$AAl?$AA?$CJ@ 00000001800256c0     libucrt:output.obj
 0002:000036d0       ??_C@_06OJHGLDPL@?$CInull?$CJ@ 00000001800256d0     libucrt:output.obj
 0002:000036e0       __acrt_exception_action_table 00000001800256e0     libucrt:exception_filter.obj
 0002:000037a0       __acrt_signal_action_table_count 00000001800257a0     libucrt:exception_filter.obj
 0002:000037a8       __acrt_signal_action_first_fpe_index 00000001800257a8     libucrt:exception_filter.obj
 0002:000037b0       __acrt_signal_action_fpe_count 00000001800257b0     libucrt:exception_filter.obj
 0002:000037b8       ??_C@_1BI@BGOHAHKC@?$AAm?$AAs?$AAc?$AAo?$AAr?$AAe?$AAe?$AA?4?$AAd?$AAl?$AAl@ 00000001800257b8     libucrt:exit.obj
 0002:000037d0       ??_C@_0P@MIGLKIOC@CorExitProcess@ 00000001800257d0     libucrt:exit.obj
 0002:00003980       ??_C@_1EA@JGEFHKEI@?$AAa?$AAp?$AAi?$AA?9?$AAm?$AAs?$AA?9?$AAw?$AAi?$AAn?$AA?9?$AAc?$AAo?$AAr?$AAe@ 0000000180025980     libucrt:winapi_thunks.obj
 0002:000039c0       ??_C@_1DI@IJCEHOCB@?$AAa?$AAp?$AAi?$AA?9?$AAm?$AAs?$AA?9?$AAw?$AAi?$AAn?$AA?9?$AAc?$AAo?$AAr?$AAe@ 00000001800259c0     libucrt:winapi_thunks.obj
 0002:00003a00       ??_C@_1EI@MPIAOHOC@?$AAa?$AAp?$AAi?$AA?9?$AAm?$AAs?$AA?9?$AAw?$AAi?$AAn?$AA?9?$AAc?$AAo?$AAr?$AAe@ 0000000180025a00     libucrt:winapi_thunks.obj
 0002:00003a50       ??_C@_1FK@FPHCKFIE@?$AAa?$AAp?$AAi?$AA?9?$AAm?$AAs?$AA?9?$AAw?$AAi?$AAn?$AA?9?$AAc?$AAo?$AAr?$AAe@ 0000000180025a50     libucrt:winapi_thunks.obj
 0002:00003ab0       ??_C@_1EM@DILCGIIO@?$AAa?$AAp?$AAi?$AA?9?$AAm?$AAs?$AA?9?$AAw?$AAi?$AAn?$AA?9?$AAc?$AAo?$AAr?$AAe@ 0000000180025ab0     libucrt:winapi_thunks.obj
 0002:00003b00       ??_C@_1DM@LNCGDDPN@?$AAa?$AAp?$AAi?$AA?9?$AAm?$AAs?$AA?9?$AAw?$AAi?$AAn?$AA?9?$AAc?$AAo?$AAr?$AAe@ 0000000180025b00     libucrt:winapi_thunks.obj
 0002:00003b40       ??_C@_1DO@FPAPJEMD@?$AAa?$AAp?$AAi?$AA?9?$AAm?$AAs?$AA?9?$AAw?$AAi?$AAn?$AA?9?$AAc?$AAo?$AAr?$AAe@ 0000000180025b40     libucrt:winapi_thunks.obj
 0002:00003b80       ??_C@_1DK@NDHNAHIO@?$AAa?$AAp?$AAi?$AA?9?$AAm?$AAs?$AA?9?$AAw?$AAi?$AAn?$AA?9?$AAc?$AAo?$AAr?$AAe@ 0000000180025b80     libucrt:winapi_thunks.obj
 0002:00003bc0       ??_C@_1DM@KGHDGBCM@?$AAa?$AAp?$AAi?$AA?9?$AAm?$AAs?$AA?9?$AAw?$AAi?$AAn?$AA?9?$AAc?$AAo?$AAr?$AAe@ 0000000180025bc0     libucrt:winapi_thunks.obj
 0002:00003c00       ??_C@_1EO@IJIOEFOH@?$AAa?$AAp?$AAi?$AA?9?$AAm?$AAs?$AA?9?$AAw?$AAi?$AAn?$AA?9?$AAr?$AAt?$AAc?$AAo@ 0000000180025c00     libucrt:winapi_thunks.obj
 0002:00003c50       ??_C@_1FG@HHGEKANL@?$AAa?$AAp?$AAi?$AA?9?$AAm?$AAs?$AA?9?$AAw?$AAi?$AAn?$AA?9?$AAs?$AAe?$AAc?$AAu@ 0000000180025c50     libucrt:winapi_thunks.obj
 0002:00003cb0       ??_C@_1EG@DBIOJECG@?$AAe?$AAx?$AAt?$AA?9?$AAm?$AAs?$AA?9?$AAw?$AAi?$AAn?$AA?9?$AAn?$AAt?$AAu?$AAs@ 0000000180025cb0     libucrt:winapi_thunks.obj
 0002:00003d00       ??_C@_1EO@FIHMJCLF@?$AAe?$AAx?$AAt?$AA?9?$AAm?$AAs?$AA?9?$AAw?$AAi?$AAn?$AA?9?$AAn?$AAt?$AAu?$AAs@ 0000000180025d00     libucrt:winapi_thunks.obj
 0002:00003d50       ??_C@_1BC@DNHGCMLG@?$AAa?$AAd?$AAv?$AAa?$AAp?$AAi?$AA3?$AA2@ 0000000180025d50     libucrt:winapi_thunks.obj
 0002:00003d68       ??_C@_1M@OAIMIKLP@?$AAn?$AAt?$AAd?$AAl?$AAl@ 0000000180025d68     libucrt:winapi_thunks.obj
 0002:00003d80       ??_C@_1EG@DPGNFKGC@?$AAa?$AAp?$AAi?$AA?9?$AAm?$AAs?$AA?9?$AAw?$AAi?$AAn?$AA?9?$AAa?$AAp?$AAp?$AAm@ 0000000180025d80     libucrt:winapi_thunks.obj
 0002:00003dc8       ??_C@_1O@BCCLBEOE@?$AAu?$AAs?$AAe?$AAr?$AA3?$AA2@ 0000000180025dc8     libucrt:winapi_thunks.obj
 0002:00003dd8       ??_C@_1BA@IAIFMGEF@?$AAe?$AAx?$AAt?$AA?9?$AAm?$AAs?$AA?9@ 0000000180025dd8     libucrt:winapi_thunks.obj
 0002:00003df0       ??_C@_0BA@FHFNEAED@AreFileApisANSI@ 0000000180025df0     libucrt:winapi_thunks.obj
 0002:00003e30       ??_C@_0O@KKBNKAPF@LCMapStringEx@ 0000000180025e30     libucrt:winapi_thunks.obj
 0002:00003e48       ??_C@_0BB@HBDEELFH@LocaleNameToLCID@ 0000000180025e48     libucrt:winapi_thunks.obj
 0002:00003e60       ??_C@_0CF@OJOFEIGO@AppPolicyGetProcessTerminationM@ 0000000180025e60     libucrt:winapi_thunks.obj
 0002:00003e90       ??_C@_0BI@BKLFFAPO@SetThreadStackGuarantee@ 0000000180025e90     libucrt:winapi_thunks.obj
 0002:00003f30       ??_C@_03OEIAHPBN@INF@      0000000180025f30     libucrt:cvt.obj
 0002:00003f34       ??_C@_03OJHLLCGB@inf@      0000000180025f34     libucrt:cvt.obj
 0002:00003f38       ??_C@_03LKNCIKJB@NAN@      0000000180025f38     libucrt:cvt.obj
 0002:00003f3c       ??_C@_03LHCJEHON@nan@      0000000180025f3c     libucrt:cvt.obj
 0002:00003f40       ??_C@_09OFJJIMPC@NAN?$CISNAN?$CJ@ 0000000180025f40     libucrt:cvt.obj
 0002:00003f50       ??_C@_09IPFBKMDL@nan?$CIsnan?$CJ@ 0000000180025f50     libucrt:cvt.obj
 0002:00003f60       ??_C@_08IKHNHAJ@NAN?$CIIND?$CJ@ 0000000180025f60     libucrt:cvt.obj
 0002:00003f70       ??_C@_08OFCDMILK@nan?$CIind?$CJ@ 0000000180025f70     libucrt:cvt.obj
 0002:00003f7c       ??_C@_05KLBDPFGC@e?$CL000@ 0000000180025f7c     libucrt:cvt.obj
 0002:00003f90       __lc_time_c                0000000180025f90     libucrt:nlsdata.obj
 0002:00004250       ??_C@_03KOEHGMDN@Sun@      0000000180026250     libucrt:nlsdata.obj
 0002:00004254       ??_C@_03PDAGKDH@Mon@       0000000180026254     libucrt:nlsdata.obj
 0002:00004258       ??_C@_03NAGEINEP@Tue@      0000000180026258     libucrt:nlsdata.obj
 0002:0000425c       ??_C@_03MHOMLAJA@Wed@      000000018002625c     libucrt:nlsdata.obj
 0002:00004260       ??_C@_03IOFIKPDN@Thu@      0000000180026260     libucrt:nlsdata.obj
 0002:00004264       ??_C@_03IDIOELNC@Fri@      0000000180026264     libucrt:nlsdata.obj
 0002:00004268       ??_C@_03FEFJNEK@Sat@       0000000180026268     libucrt:nlsdata.obj
 0002:0000426c       ??_C@_06OOPIFAJ@Sunday@    000000018002626c     libucrt:nlsdata.obj
 0002:00004274       ??_C@_06JLEDEDGH@Monday@   0000000180026274     libucrt:nlsdata.obj
 0002:00004280       ??_C@_07BAAGCFCM@Tuesday@  0000000180026280     libucrt:nlsdata.obj
 0002:00004288       ??_C@_09DLIGFAKA@Wednesday@ 0000000180026288     libucrt:nlsdata.obj
 0002:00004298       ??_C@_08HACCIKIA@Thursday@ 0000000180026298     libucrt:nlsdata.obj
 0002:000042a4       ??_C@_06JECMNKMI@Friday@   00000001800262a4     libucrt:nlsdata.obj
 0002:000042b0       ??_C@_08INBOOONO@Saturday@ 00000001800262b0     libucrt:nlsdata.obj
 0002:000042bc       ??_C@_03JIHJHPIE@Jan@      00000001800262bc     libucrt:nlsdata.obj
 0002:000042c0       ??_C@_03HJBDCHOM@Feb@      00000001800262c0     libucrt:nlsdata.obj
 0002:000042c4       ??_C@_03ODNJBKGA@Mar@      00000001800262c4     libucrt:nlsdata.obj
 0002:000042c8       ??_C@_03LEOLGMJP@Apr@      00000001800262c8     libucrt:nlsdata.obj
 0002:000042cc       ??_C@_03CNMDKL@May@        00000001800262cc     libucrt:nlsdata.obj
 0002:000042d0       ??_C@_03IDFGHECI@Jun@      00000001800262d0     libucrt:nlsdata.obj
 0002:000042d4       ??_C@_03LBGABGKK@Jul@      00000001800262d4     libucrt:nlsdata.obj
 0002:000042d8       ??_C@_03IFJFEIGA@Aug@      00000001800262d8     libucrt:nlsdata.obj
 0002:000042dc       ??_C@_03GGCAPAJC@Sep@      00000001800262dc     libucrt:nlsdata.obj
 0002:000042e0       ??_C@_03BMAOKBAD@Oct@      00000001800262e0     libucrt:nlsdata.obj
 0002:000042e4       ??_C@_03JPJOFNIA@Nov@      00000001800262e4     libucrt:nlsdata.obj
 0002:000042e8       ??_C@_03MKABNOCG@Dec@      00000001800262e8     libucrt:nlsdata.obj
 0002:000042f0       ??_C@_07CGJPFGJA@January@  00000001800262f0     libucrt:nlsdata.obj
 0002:000042f8       ??_C@_08GNJGEPFN@February@ 00000001800262f8     libucrt:nlsdata.obj
 0002:00004304       ??_C@_05HPCKOFNC@March@    0000000180026304     libucrt:nlsdata.obj
 0002:0000430c       ??_C@_05DMJDNLEJ@April@    000000018002630c     libucrt:nlsdata.obj
 0002:00004314       ??_C@_04CNLMGBGM@June@     0000000180026314     libucrt:nlsdata.obj
 0002:0000431c       ??_C@_04MIEPOIFP@July@     000000018002631c     libucrt:nlsdata.obj
 0002:00004324       ??_C@_06LBBHFDDG@August@   0000000180026324     libucrt:nlsdata.obj
 0002:00004330       ??_C@_09BHHEALKD@September@ 0000000180026330     libucrt:nlsdata.obj
 0002:00004340       ??_C@_07JJNFCEND@October@  0000000180026340     libucrt:nlsdata.obj
 0002:00004348       ??_C@_08HCHEGEOA@November@ 0000000180026348     libucrt:nlsdata.obj
 0002:00004358       ??_C@_08EDHMEBNP@December@ 0000000180026358     libucrt:nlsdata.obj
 0002:00004364       ??_C@_02DEDBPAFC@AM@       0000000180026364     libucrt:nlsdata.obj
 0002:00004368       ??_C@_02CJNFDJBF@PM@       0000000180026368     libucrt:nlsdata.obj
 0002:00004370       ??_C@_08BPBNCDIB@MM?1dd?1yy@ 0000000180026370     libucrt:nlsdata.obj
 0002:00004380       ??_C@_0BE@CKGJFCPC@dddd?0?5MMMM?5dd?0?5yyyy@ 0000000180026380     libucrt:nlsdata.obj
 0002:00004398       ??_C@_08JCCMCCIL@HH?3mm?3ss@ 0000000180026398     libucrt:nlsdata.obj
 0002:000043a8       ??_C@_17MBGCMIPB@?$AAS?$AAu?$AAn@ 00000001800263a8     libucrt:nlsdata.obj
 0002:000043b0       ??_C@_17KBOMKBF@?$AAM?$AAo?$AAn@ 00000001800263b0     libucrt:nlsdata.obj
 0002:000043b8       ??_C@_17BMKGEGOJ@?$AAT?$AAu?$AAe@ 00000001800263b8     libucrt:nlsdata.obj
 0002:000043c0       ??_C@_17CJEDCEPE@?$AAW?$AAe?$AAd@ 00000001800263c0     libucrt:nlsdata.obj
 0002:000043c8       ??_C@_17PDPHAADD@?$AAT?$AAh?$AAu@ 00000001800263c8     libucrt:nlsdata.obj
 0002:000043d0       ??_C@_17HFOLPPLP@?$AAF?$AAr?$AAi@ 00000001800263d0     libucrt:nlsdata.obj
 0002:000043d8       ??_C@_17GGIBDPIH@?$AAS?$AAa?$AAt@ 00000001800263d8     libucrt:nlsdata.obj
 0002:000043e0       ??_C@_1O@IHNHDHPB@?$AAS?$AAu?$AAn?$AAd?$AAa?$AAy@ 00000001800263e0     libucrt:nlsdata.obj
 0002:000043f0       ??_C@_1O@MMNBFLIA@?$AAM?$AAo?$AAn?$AAd?$AAa?$AAy@ 00000001800263f0     libucrt:nlsdata.obj
 0002:00004400       ??_C@_1BA@ENFBFFEK@?$AAT?$AAu?$AAe?$AAs?$AAd?$AAa?$AAy@ 0000000180026400     libucrt:nlsdata.obj
 0002:00004410       ??_C@_1BE@EBOGMDOH@?$AAW?$AAe?$AAd?$AAn?$AAe?$AAs?$AAd?$AAa?$AAy@ 0000000180026410     libucrt:nlsdata.obj
 0002:00004428       ??_C@_1BC@HHMNLIHE@?$AAT?$AAh?$AAu?$AAr?$AAs?$AAd?$AAa?$AAy@ 0000000180026428     libucrt:nlsdata.obj
 0002:00004440       ??_C@_1O@PDICJHAG@?$AAF?$AAr?$AAi?$AAd?$AAa?$AAy@ 0000000180026440     libucrt:nlsdata.obj
 0002:00004450       ??_C@_1BC@ENMNNPAJ@?$AAS?$AAa?$AAt?$AAu?$AAr?$AAd?$AAa?$AAy@ 0000000180026450     libucrt:nlsdata.obj
 0002:00004468       ??_C@_17DKNBKCHM@?$AAJ?$AAa?$AAn@ 0000000180026468     libucrt:nlsdata.obj
 0002:00004470       ??_C@_17LMDJEKJN@?$AAF?$AAe?$AAb@ 0000000180026470     libucrt:nlsdata.obj
 0002:00004478       ??_C@_17CKNLEDEC@?$AAM?$AAa?$AAr@ 0000000180026478     libucrt:nlsdata.obj
 0002:00004480       ??_C@_17LFPOIHDD@?$AAA?$AAp?$AAr@ 0000000180026480     libucrt:nlsdata.obj
 0002:00004488       ??_C@_17PNNKMEED@?$AAM?$AAa?$AAy@ 0000000180026488     libucrt:nlsdata.obj
 0002:00004490       ??_C@_17KCJGOCPB@?$AAJ?$AAu?$AAn@ 0000000180026490     libucrt:nlsdata.obj
 0002:00004498       ??_C@_17IJPCKHK@?$AAJ?$AAu?$AAl@ 0000000180026498     libucrt:nlsdata.obj
 0002:000044a0       ??_C@_17ICPELBCN@?$AAA?$AAu?$AAg@ 00000001800264a0     libucrt:nlsdata.obj
 0002:000044a8       ??_C@_17HCHCOKMG@?$AAS?$AAe?$AAp@ 00000001800264a8     libucrt:nlsdata.obj
 0002:000044b0       ??_C@_17FNLKOI@?$AAO?$AAc?$AAt@ 00000001800264b0     libucrt:nlsdata.obj
 0002:000044b8       ??_C@_17BBDMLCIG@?$AAN?$AAo?$AAv@ 00000001800264b8     libucrt:nlsdata.obj
 0002:000044c0       ??_C@_17EGKACKIF@?$AAD?$AAe?$AAc@ 00000001800264c0     libucrt:nlsdata.obj
 0002:000044c8       ??_C@_1BA@EFMEIEBA@?$AAJ?$AAa?$AAn?$AAu?$AAa?$AAr?$AAy@ 00000001800264c8     libucrt:nlsdata.obj
 0002:000044d8       ??_C@_1BC@JGDDFFAM@?$AAF?$AAe?$AAb?$AAr?$AAu?$AAa?$AAr?$AAy@ 00000001800264d8     libucrt:nlsdata.obj
 0002:000044f0       ??_C@_1M@IKEENEDF@?$AAM?$AAa?$AAr?$AAc?$AAh@ 00000001800264f0     libucrt:nlsdata.obj
 0002:00004500       ??_C@_1M@GJNLMHFD@?$AAA?$AAp?$AAr?$AAi?$AAl@ 0000000180026500     libucrt:nlsdata.obj
 0002:00004510       ??_C@_19EPFLPGAP@?$AAJ?$AAu?$AAn?$AAe@ 0000000180026510     libucrt:nlsdata.obj
 0002:00004520       ??_C@_19BIFMLPCD@?$AAJ?$AAu?$AAl?$AAy@ 0000000180026520     libucrt:nlsdata.obj
 0002:00004530       ??_C@_1O@PAHLKOAC@?$AAA?$AAu?$AAg?$AAu?$AAs?$AAt@ 0000000180026530     libucrt:nlsdata.obj
 0002:00004540       ??_C@_1BE@DKAAMBJL@?$AAS?$AAe?$AAp?$AAt?$AAe?$AAm?$AAb?$AAe?$AAr@ 0000000180026540     libucrt:nlsdata.obj
 0002:00004558       ??_C@_1BA@EPANDLNG@?$AAO?$AAc?$AAt?$AAo?$AAb?$AAe?$AAr@ 0000000180026558     libucrt:nlsdata.obj
 0002:00004568       ??_C@_1BC@BGLIFPF@?$AAN?$AAo?$AAv?$AAe?$AAm?$AAb?$AAe?$AAr@ 0000000180026568     libucrt:nlsdata.obj
 0002:00004580       ??_C@_1BC@FEMKIFH@?$AAD?$AAe?$AAc?$AAe?$AAm?$AAb?$AAe?$AAr@ 0000000180026580     libucrt:nlsdata.obj
 0002:00004594       ??_C@_15ODEHAHHF@?$AAA?$AAM@ 0000000180026594     libucrt:nlsdata.obj
 0002:0000459c       ??_C@_15CLMNNGEL@?$AAP?$AAM@ 000000018002659c     libucrt:nlsdata.obj
 0002:000045a8       ??_C@_1BC@IEBCMHCM@?$AAM?$AAM?$AA?1?$AAd?$AAd?$AA?1?$AAy?$AAy@ 00000001800265a8     libucrt:nlsdata.obj
 0002:000045c0       ??_C@_1CI@KNAKOEBC@?$AAd?$AAd?$AAd?$AAd?$AA?0?$AA?5?$AAM?$AAM?$AAM?$AAM?$AA?5?$AAd?$AAd?$AA?0?$AA?5@ 00000001800265c0     libucrt:nlsdata.obj
 0002:000045e8       ??_C@_1BC@GDGBMEMK@?$AAH?$AAH?$AA?3?$AAm?$AAm?$AA?3?$AAs?$AAs@ 00000001800265e8     libucrt:nlsdata.obj
 0002:00004600       ??_C@_1M@BMHNFIME@?$AAe?$AAn?$AA?9?$AAU?$AAS@ 0000000180026600     libucrt:nlsdata.obj
 0002:00004630       ??_C@_1M@HPNHIDJI@?$AAj?$AAa?$AA?9?$AAJ?$AAP@ 0000000180026630     libucrt:mbctype.obj
 0002:00004640       ??_C@_1M@BIBDDEMK@?$AAz?$AAh?$AA?9?$AAC?$AAN@ 0000000180026640     libucrt:mbctype.obj
 0002:00004650       ??_C@_1M@JLOOOEGK@?$AAk?$AAo?$AA?9?$AAK?$AAR@ 0000000180026650     libucrt:mbctype.obj
 0002:00004660       ??_C@_1M@CLNBBOPM@?$AAz?$AAh?$AA?9?$AAT?$AAW@ 0000000180026660     libucrt:mbctype.obj
 0002:00004670       __newctype                 0000000180026670     libucrt:ctype.obj
 0002:00004970       __newclmap                 0000000180026970     libucrt:ctype.obj
 0002:00004af0       __newcumap                 0000000180026af0     libucrt:ctype.obj
 0002:00004c70       _wctype                    0000000180026c70     libucrt:ctype.obj
 0002:00005cc0       ??_C@_15EMKDOKLE@?$AAa?$AAr@ 0000000180027cc0     libucrt:lcidtoname_downlevel.obj
 0002:00005cc8       ??_C@_15KNPADPLH@?$AAb?$AAg@ 0000000180027cc8     libucrt:lcidtoname_downlevel.obj
 0002:00005cd0       ??_C@_15EDMHLDMO@?$AAc?$AAa@ 0000000180027cd0     libucrt:lcidtoname_downlevel.obj
 0002:00005cd8       ??_C@_1O@BPEAJADD@?$AAz?$AAh?$AA?9?$AAC?$AAH?$AAS@ 0000000180027cd8     libucrt:lcidtoname_downlevel.obj
 0002:00005ce8       ??_C@_15LJNHCMNK@?$AAc?$AAs@ 0000000180027ce8     libucrt:lcidtoname_downlevel.obj
 0002:00005cf0       ??_C@_15FOMCIDHG@?$AAd?$AAa@ 0000000180027cf0     libucrt:lcidtoname_downlevel.obj
 0002:00005cf8       ??_C@_15NBKABECB@?$AAd?$AAe@ 0000000180027cf8     libucrt:lcidtoname_downlevel.obj
 0002:00005d00       ??_C@_15GHPEIIAO@?$AAe?$AAl@ 0000000180027d00     libucrt:lcidtoname_downlevel.obj
 0002:00005d08       ??_C@_15MNPNEAIF@?$AAe?$AAn@ 0000000180027d08     libucrt:lcidtoname_downlevel.obj
 0002:00005d10       ??_C@_15GPIOMPMH@?$AAe?$AAs@ 0000000180027d10     libucrt:lcidtoname_downlevel.obj
 0002:00005d18       ??_C@_15NGLOAKJC@?$AAf?$AAi@ 0000000180027d18     libucrt:lcidtoname_downlevel.obj
 0002:00005d20       ??_C@_15FBKGNKAM@?$AAf?$AAr@ 0000000180027d20     libucrt:lcidtoname_downlevel.obj
 0002:00005d28       ??_C@_15KGGCNEFK@?$AAh?$AAe@ 0000000180027d28     libucrt:lcidtoname_downlevel.obj
 0002:00005d30       ??_C@_15PGHLIDMF@?$AAh?$AAu@ 0000000180027d30     libucrt:lcidtoname_downlevel.obj
 0002:00005d38       ??_C@_15BIEMAPLM@?$AAi?$AAs@ 0000000180027d38     libucrt:lcidtoname_downlevel.obj
 0002:00005d40       ??_C@_15IFJLDHAF@?$AAi?$AAt@ 0000000180027d40     libucrt:lcidtoname_downlevel.obj
 0002:00005d48       ??_C@_15GEMIOCAG@?$AAj?$AAa@ 0000000180027d48     libucrt:lcidtoname_downlevel.obj
 0002:00005d50       ??_C@_15EPELEGJA@?$AAk?$AAo@ 0000000180027d50     libucrt:lcidtoname_downlevel.obj
 0002:00005d58       ??_C@_15NDDHIMN@?$AAn?$AAl@ 0000000180027d58     libucrt:lcidtoname_downlevel.obj
 0002:00005d60       ??_C@_15BPIGNHCD@?$AAn?$AAo@ 0000000180027d60     libucrt:lcidtoname_downlevel.obj
 0002:00005d68       ??_C@_15DEOPBLCG@?$AAp?$AAl@ 0000000180027d68     libucrt:lcidtoname_downlevel.obj
 0002:00005d70       ??_C@_15KBECGEFG@?$AAp?$AAt@ 0000000180027d70     libucrt:lcidtoname_downlevel.obj
 0002:00005d78       ??_C@_15GLJCBFMD@?$AAr?$AAo@ 0000000180027d78     libucrt:lcidtoname_downlevel.obj
 0002:00005d80       ??_C@_15FEDGKCDI@?$AAr?$AAu@ 0000000180027d80     libucrt:lcidtoname_downlevel.obj
 0002:00005d88       ??_C@_15GLKMLLHM@?$AAh?$AAr@ 0000000180027d88     libucrt:lcidtoname_downlevel.obj
 0002:00005d90       ??_C@_15CPKMFBDB@?$AAs?$AAk@ 0000000180027d90     libucrt:lcidtoname_downlevel.obj
 0002:00005d98       ??_C@_15BAAIOGMK@?$AAs?$AAq@ 0000000180027d98     libucrt:lcidtoname_downlevel.obj
 0002:00005da0       ??_C@_15INNPNOHD@?$AAs?$AAv@ 0000000180027da0     libucrt:lcidtoname_downlevel.obj
 0002:00005da8       ??_C@_15CABMMOGH@?$AAt?$AAh@ 0000000180027da8     libucrt:lcidtoname_downlevel.obj
 0002:00005db0       ??_C@_15BPLIHJJM@?$AAt?$AAr@ 0000000180027db0     libucrt:lcidtoname_downlevel.obj
 0002:00005db8       ??_C@_15NEOEKKDJ@?$AAu?$AAr@ 0000000180027db8     libucrt:lcidtoname_downlevel.obj
 0002:00005dc0       ??_C@_15NFICGAJK@?$AAi?$AAd@ 0000000180027dc0     libucrt:lcidtoname_downlevel.obj
 0002:00005dc8       ??_C@_15PJPFLCCM@?$AAu?$AAk@ 0000000180027dc8     libucrt:lcidtoname_downlevel.obj
 0002:00005dd0       ??_C@_15HPJPHDM@?$AAb?$AAe@ 0000000180027dd0     libucrt:lcidtoname_downlevel.obj
 0002:00005dd8       ??_C@_15LCHLGJII@?$AAs?$AAl@ 0000000180027dd8     libucrt:lcidtoname_downlevel.obj
 0002:00005de0       ??_C@_15PCFJPHHO@?$AAe?$AAt@ 0000000180027de0     libucrt:lcidtoname_downlevel.obj
 0002:00005de8       ??_C@_15HPFPGODN@?$AAl?$AAv@ 0000000180027de8     libucrt:lcidtoname_downlevel.obj
 0002:00005df0       ??_C@_15NFFGKGLG@?$AAl?$AAt@ 0000000180027df0     libucrt:lcidtoname_downlevel.obj
 0002:00005df8       ??_C@_15BDAKCCHN@?$AAf?$AAa@ 0000000180027df8     libucrt:lcidtoname_downlevel.obj
 0002:00005e00       ??_C@_15NFGIAIAJ@?$AAv?$AAi@ 0000000180027e00     libucrt:lcidtoname_downlevel.obj
 0002:00005e08       ??_C@_15LMKNDMHN@?$AAh?$AAy@ 0000000180027e08     libucrt:lcidtoname_downlevel.obj
 0002:00005e10       ??_C@_15IJBHMCFL@?$AAa?$AAz@ 0000000180027e10     libucrt:lcidtoname_downlevel.obj
 0002:00005e18       ??_C@_15EKOFJABL@?$AAe?$AAu@ 0000000180027e18     libucrt:lcidtoname_downlevel.obj
 0002:00005e20       ??_C@_15BGHADCNK@?$AAm?$AAk@ 0000000180027e20     libucrt:lcidtoname_downlevel.obj
 0002:00005e28       ??_C@_15JDNICKHM@?$AAa?$AAf@ 0000000180027e28     libucrt:lcidtoname_downlevel.obj
 0002:00005e30       ??_C@_15KPJEDBKD@?$AAk?$AAa@ 0000000180027e30     libucrt:lcidtoname_downlevel.obj
 0002:00005e38       ??_C@_15PDNFFFEO@?$AAf?$AAo@ 0000000180027e38     libucrt:lcidtoname_downlevel.obj
 0002:00005e40       ??_C@_15OMLEGLOC@?$AAh?$AAi@ 0000000180027e40     libucrt:lcidtoname_downlevel.obj
 0002:00005e48       ??_C@_15IDNNENKK@?$AAm?$AAs@ 0000000180027e48     libucrt:lcidtoname_downlevel.obj
 0002:00005e50       ??_C@_15MACJNBMH@?$AAk?$AAk@ 0000000180027e50     libucrt:lcidtoname_downlevel.obj
 0002:00005e58       ??_C@_15DKDJEOND@?$AAk?$AAy@ 0000000180027e58     libucrt:lcidtoname_downlevel.obj
 0002:00005e60       ??_C@_15DFGDLJBG@?$AAs?$AAw@ 0000000180027e60     libucrt:lcidtoname_downlevel.obj
 0002:00005e68       ??_C@_15BBFAICNG@?$AAu?$AAz@ 0000000180027e68     libucrt:lcidtoname_downlevel.obj
 0002:00005e70       ??_C@_15DKNDCGEA@?$AAt?$AAt@ 0000000180027e70     libucrt:lcidtoname_downlevel.obj
 0002:00005e78       ??_C@_15MGIFMDPL@?$AAp?$AAa@ 0000000180027e78     libucrt:lcidtoname_downlevel.obj
 0002:00005e80       ??_C@_15HCNDBBA@?$AAg?$AAu@ 0000000180027e80     libucrt:lcidtoname_downlevel.obj
 0002:00005e88       ??_C@_15FNBEIBON@?$AAt?$AAa@ 0000000180027e88     libucrt:lcidtoname_downlevel.obj
 0002:00005e90       ??_C@_15NCHGBGLK@?$AAt?$AAe@ 0000000180027e90     libucrt:lcidtoname_downlevel.obj
 0002:00005e98       ??_C@_15PHPHCBPF@?$AAk?$AAn@ 0000000180027e98     libucrt:lcidtoname_downlevel.obj
 0002:00005ea0       ??_C@_15DLGBCKMP@?$AAm?$AAr@ 0000000180027ea0     libucrt:lcidtoname_downlevel.obj
 0002:00005ea8       ??_C@_15EABBLBFF@?$AAs?$AAa@ 0000000180027ea8     libucrt:lcidtoname_downlevel.obj
 0002:00005eb0       ??_C@_15CBKOMCOI@?$AAm?$AAn@ 0000000180027eb0     libucrt:lcidtoname_downlevel.obj
 0002:00005eb8       ??_C@_15CKDMCJAF@?$AAg?$AAl@ 0000000180027eb8     libucrt:lcidtoname_downlevel.obj
 0002:00005ec0       ??_C@_17CNJFBPG@?$AAk?$AAo?$AAk@ 0000000180027ec0     libucrt:lcidtoname_downlevel.obj
 0002:00005ec8       ??_C@_17FFBJICPL@?$AAs?$AAy?$AAr@ 0000000180027ec8     libucrt:lcidtoname_downlevel.obj
 0002:00005ed0       ??_C@_17KPNDCPAF@?$AAd?$AAi?$AAv@ 0000000180027ed0     libucrt:lcidtoname_downlevel.obj
 0002:00005ed8       ??_C@_1M@OKAHONE@?$AAa?$AAr?$AA?9?$AAS?$AAA@ 0000000180027ed8     libucrt:lcidtoname_downlevel.obj
 0002:00005ee8       ??_C@_1M@FFFIGIGK@?$AAb?$AAg?$AA?9?$AAB?$AAG@ 0000000180027ee8     libucrt:lcidtoname_downlevel.obj
 0002:00005ef8       ??_C@_1M@BJNKEDC@?$AAc?$AAa?$AA?9?$AAE?$AAS@ 0000000180027ef8     libucrt:lcidtoname_downlevel.obj
 0002:00005f08       ??_C@_1M@IJJHFJHA@?$AAc?$AAs?$AA?9?$AAC?$AAZ@ 0000000180027f08     libucrt:lcidtoname_downlevel.obj
 0002:00005f18       ??_C@_1M@CLPEOBGI@?$AAd?$AAa?$AA?9?$AAD?$AAK@ 0000000180027f18     libucrt:lcidtoname_downlevel.obj
 0002:00005f28       ??_C@_1M@MCMADGCB@?$AAd?$AAe?$AA?9?$AAD?$AAE@ 0000000180027f28     libucrt:lcidtoname_downlevel.obj
 0002:00005f38       ??_C@_1M@OOCKEMAM@?$AAe?$AAl?$AA?9?$AAG?$AAR@ 0000000180027f38     libucrt:lcidtoname_downlevel.obj
 0002:00005f48       ??_C@_1M@DDNJFGID@?$AAf?$AAi?$AA?9?$AAF?$AAI@ 0000000180027f48     libucrt:lcidtoname_downlevel.obj
 0002:00005f58       ??_C@_1M@GLIPPMAC@?$AAf?$AAr?$AA?9?$AAF?$AAR@ 0000000180027f58     libucrt:lcidtoname_downlevel.obj
 0002:00005f68       ??_C@_1M@GFMCHPE@?$AAh?$AAe?$AA?9?$AAI?$AAL@ 0000000180027f68     libucrt:lcidtoname_downlevel.obj
 0002:00005f78       ??_C@_1M@MHLPGNKM@?$AAh?$AAu?$AA?9?$AAH?$AAU@ 0000000180027f78     libucrt:lcidtoname_downlevel.obj
 0002:00005f88       ??_C@_1M@LPDDNNPN@?$AAi?$AAs?$AA?9?$AAI?$AAS@ 0000000180027f88     libucrt:lcidtoname_downlevel.obj
 0002:00005f98       ??_C@_1M@MADIPODN@?$AAi?$AAt?$AA?9?$AAI?$AAT@ 0000000180027f98     libucrt:lcidtoname_downlevel.obj
 0002:00005fa8       ??_C@_1M@IHBJJGG@?$AAn?$AAl?$AA?9?$AAN?$AAL@ 0000000180027fa8     libucrt:lcidtoname_downlevel.obj
 0002:00005fb8       ??_C@_1M@EANAGDL@?$AAn?$AAb?$AA?9?$AAN?$AAO@ 0000000180027fb8     libucrt:lcidtoname_downlevel.obj
 0002:00005fc8       ??_C@_1M@NEIEMEGP@?$AAp?$AAl?$AA?9?$AAP?$AAL@ 0000000180027fc8     libucrt:lcidtoname_downlevel.obj
 0002:00005fd8       ??_C@_1M@BOCFIGEP@?$AAp?$AAt?$AA?9?$AAB?$AAR@ 0000000180027fd8     libucrt:lcidtoname_downlevel.obj
 0002:00005fe8       ??_C@_1M@IMPFOPBG@?$AAr?$AAo?$AA?9?$AAR?$AAO@ 0000000180027fe8     libucrt:lcidtoname_downlevel.obj
 0002:00005ff8       ??_C@_1M@IDNNEJMM@?$AAr?$AAu?$AA?9?$AAR?$AAU@ 0000000180027ff8     libucrt:lcidtoname_downlevel.obj
 0002:00006008       ??_C@_1M@LILEEOGM@?$AAh?$AAr?$AA?9?$AAH?$AAR@ 0000000180028008     libucrt:lcidtoname_downlevel.obj
 0002:00006018       ??_C@_1M@FKIFEHPB@?$AAs?$AAk?$AA?9?$AAS?$AAK@ 0000000180028018     libucrt:lcidtoname_downlevel.obj
 0002:00006028       ??_C@_1M@LJMAMNPJ@?$AAs?$AAq?$AA?9?$AAA?$AAL@ 0000000180028028     libucrt:lcidtoname_downlevel.obj
 0002:00006038       ??_C@_1M@GIAKDKJK@?$AAs?$AAv?$AA?9?$AAS?$AAE@ 0000000180028038     libucrt:lcidtoname_downlevel.obj
 0002:00006048       ??_C@_1M@MKJKIKCL@?$AAt?$AAh?$AA?9?$AAT?$AAH@ 0000000180028048     libucrt:lcidtoname_downlevel.obj
 0002:00006058       ??_C@_1M@MFLCCMPB@?$AAt?$AAr?$AA?9?$AAT?$AAR@ 0000000180028058     libucrt:lcidtoname_downlevel.obj
 0002:00006068       ??_C@_1M@OIJHDKJN@?$AAu?$AAr?$AA?9?$AAP?$AAK@ 0000000180028068     libucrt:lcidtoname_downlevel.obj
 0002:00006078       ??_C@_1M@LHIPCIEK@?$AAi?$AAd?$AA?9?$AAI?$AAD@ 0000000180028078     libucrt:lcidtoname_downlevel.obj
 0002:00006088       ??_C@_1M@MFMOBGI@?$AAu?$AAk?$AA?9?$AAU?$AAA@ 0000000180028088     libucrt:lcidtoname_downlevel.obj
 0002:00006098       ??_C@_1M@OBGLJIPL@?$AAb?$AAe?$AA?9?$AAB?$AAY@ 0000000180028098     libucrt:lcidtoname_downlevel.obj
 0002:000060a8       ??_C@_1M@BCFAJEAD@?$AAs?$AAl?$AA?9?$AAS?$AAI@ 00000001800280a8     libucrt:lcidtoname_downlevel.obj
 0002:000060b8       ??_C@_1M@FKFFEDDN@?$AAe?$AAt?$AA?9?$AAE?$AAE@ 00000001800280b8     libucrt:lcidtoname_downlevel.obj
 0002:000060c8       ??_C@_1M@KGKKAACI@?$AAl?$AAv?$AA?9?$AAL?$AAV@ 00000001800280c8     libucrt:lcidtoname_downlevel.obj
 0002:000060d8       ??_C@_1M@IFGBIJO@?$AAl?$AAt?$AA?9?$AAL?$AAT@ 00000001800280d8     libucrt:lcidtoname_downlevel.obj
 0002:000060e8       ??_C@_1M@FGEAHEDM@?$AAf?$AAa?$AA?9?$AAI?$AAR@ 00000001800280e8     libucrt:lcidtoname_downlevel.obj
 0002:000060f8       ??_C@_1M@KBMAIBFN@?$AAv?$AAi?$AA?9?$AAV?$AAN@ 00000001800280f8     libucrt:lcidtoname_downlevel.obj
 0002:00006108       ??_C@_1M@GPCBKDJK@?$AAh?$AAy?$AA?9?$AAA?$AAM@ 0000000180028108     libucrt:lcidtoname_downlevel.obj
 0002:00006118       ??_C@_1BG@BECMDDJB@?$AAa?$AAz?$AA?9?$AAA?$AAZ?$AA?9?$AAL?$AAa?$AAt?$AAn@ 0000000180028118     libucrt:lcidtoname_downlevel.obj
 0002:00006130       ??_C@_1M@MAOFCAEA@?$AAe?$AAu?$AA?9?$AAE?$AAS@ 0000000180028130     libucrt:lcidtoname_downlevel.obj
 0002:00006140       ??_C@_1M@IGHABKPI@?$AAm?$AAk?$AA?9?$AAM?$AAK@ 0000000180028140     libucrt:lcidtoname_downlevel.obj
 0002:00006150       ??_C@_1M@IAIGNEJG@?$AAt?$AAn?$AA?9?$AAZ?$AAA@ 0000000180028150     libucrt:lcidtoname_downlevel.obj
 0002:00006160       ??_C@_1M@IIJCOJFA@?$AAx?$AAh?$AA?9?$AAZ?$AAA@ 0000000180028160     libucrt:lcidtoname_downlevel.obj
 0002:00006170       ??_C@_1M@LGPJHNJH@?$AAz?$AAu?$AA?9?$AAZ?$AAA@ 0000000180028170     libucrt:lcidtoname_downlevel.obj
 0002:00006180       ??_C@_1M@HOKAOIO@?$AAa?$AAf?$AA?9?$AAZ?$AAA@ 0000000180028180     libucrt:lcidtoname_downlevel.obj
 0002:00006190       ??_C@_1M@DPCLHLIE@?$AAk?$AAa?$AA?9?$AAG?$AAE@ 0000000180028190     libucrt:lcidtoname_downlevel.obj
 0002:000061a0       ??_C@_1M@BLKMHJBI@?$AAf?$AAo?$AA?9?$AAF?$AAO@ 00000001800281a0     libucrt:lcidtoname_downlevel.obj
 0002:000061b0       ??_C@_1M@LGGJAPPB@?$AAh?$AAi?$AA?9?$AAI?$AAN@ 00000001800281b0     libucrt:lcidtoname_downlevel.obj
 0002:000061c0       ??_C@_1M@FIKPIHFE@?$AAm?$AAt?$AA?9?$AAM?$AAT@ 00000001800281c0     libucrt:lcidtoname_downlevel.obj
 0002:000061d0       ??_C@_1M@HEGGPBFA@?$AAs?$AAe?$AA?9?$AAN?$AAO@ 00000001800281d0     libucrt:lcidtoname_downlevel.obj
 0002:000061e0       ??_C@_1M@EIBJEEPA@?$AAm?$AAs?$AA?9?$AAM?$AAY@ 00000001800281e0     libucrt:lcidtoname_downlevel.obj
 0002:000061f0       ??_C@_1M@FHLBGMPP@?$AAk?$AAk?$AA?9?$AAK?$AAZ@ 00000001800281f0     libucrt:lcidtoname_downlevel.obj
 0002:00006200       ??_C@_1M@NGJJLCGI@?$AAk?$AAy?$AA?9?$AAK?$AAG@ 0000000180028200     libucrt:lcidtoname_downlevel.obj
 0002:00006210       ??_C@_1M@GIENNBFC@?$AAs?$AAw?$AA?9?$AAK?$AAE@ 0000000180028210     libucrt:lcidtoname_downlevel.obj
 0002:00006220       ??_C@_1BG@NDGMJIMJ@?$AAu?$AAz?$AA?9?$AAU?$AAZ?$AA?9?$AAL?$AAa?$AAt?$AAn@ 0000000180028220     libucrt:lcidtoname_downlevel.obj
 0002:00006238       ??_C@_1M@IDCCIHBC@?$AAt?$AAt?$AA?9?$AAR?$AAU@ 0000000180028238     libucrt:lcidtoname_downlevel.obj
 0002:00006248       ??_C@_1M@LOICPMOJ@?$AAb?$AAn?$AA?9?$AAI?$AAN@ 0000000180028248     libucrt:lcidtoname_downlevel.obj
 0002:00006258       ??_C@_1M@KPKKNEAH@?$AAp?$AAa?$AA?9?$AAI?$AAN@ 0000000180028258     libucrt:lcidtoname_downlevel.obj
 0002:00006268       ??_C@_1M@PJGPPBOG@?$AAg?$AAu?$AA?9?$AAI?$AAN@ 0000000180028268     libucrt:lcidtoname_downlevel.obj
 0002:00006278       ??_C@_1M@KMKMOPHI@?$AAt?$AAa?$AA?9?$AAI?$AAN@ 0000000180028278     libucrt:lcidtoname_downlevel.obj
 0002:00006288       ??_C@_1M@KFEHEPAC@?$AAt?$AAe?$AA?9?$AAI?$AAN@ 0000000180028288     libucrt:lcidtoname_downlevel.obj
 0002:00006298       ??_C@_1M@CDCLMGHI@?$AAk?$AAn?$AA?9?$AAI?$AAN@ 0000000180028298     libucrt:lcidtoname_downlevel.obj
 0002:000062a8       ??_C@_1M@MIODLDKF@?$AAm?$AAl?$AA?9?$AAI?$AAN@ 00000001800282a8     libucrt:lcidtoname_downlevel.obj
 0002:000062b8       ??_C@_1M@PBIEACPO@?$AAm?$AAr?$AA?9?$AAI?$AAN@ 00000001800282b8     libucrt:lcidtoname_downlevel.obj
 0002:000062c8       ??_C@_1M@NIDEAGPH@?$AAs?$AAa?$AA?9?$AAI?$AAN@ 00000001800282c8     libucrt:lcidtoname_downlevel.obj
 0002:000062d8       ??_C@_1M@FHIHCBIO@?$AAm?$AAn?$AA?9?$AAM?$AAN@ 00000001800282d8     libucrt:lcidtoname_downlevel.obj
 0002:000062e8       ??_C@_1M@JAIJPENP@?$AAc?$AAy?$AA?9?$AAG?$AAB@ 00000001800282e8     libucrt:lcidtoname_downlevel.obj
 0002:000062f8       ??_C@_1M@PHGFBEPN@?$AAg?$AAl?$AA?9?$AAE?$AAS@ 00000001800282f8     libucrt:lcidtoname_downlevel.obj
 0002:00006308       ??_C@_1O@KPIPDNCP@?$AAk?$AAo?$AAk?$AA?9?$AAI?$AAN@ 0000000180028308     libucrt:lcidtoname_downlevel.obj
 0002:00006318       ??_C@_1O@KNHJLDJA@?$AAs?$AAy?$AAr?$AA?9?$AAS?$AAY@ 0000000180028318     libucrt:lcidtoname_downlevel.obj
 0002:00006328       ??_C@_1O@MKEKBLAH@?$AAd?$AAi?$AAv?$AA?9?$AAM?$AAV@ 0000000180028328     libucrt:lcidtoname_downlevel.obj
 0002:00006338       ??_C@_1O@OHDCKDDF@?$AAq?$AAu?$AAz?$AA?9?$AAB?$AAO@ 0000000180028338     libucrt:lcidtoname_downlevel.obj
 0002:00006348       ??_C@_1M@LEPJNLFD@?$AAn?$AAs?$AA?9?$AAZ?$AAA@ 0000000180028348     libucrt:lcidtoname_downlevel.obj
 0002:00006358       ??_C@_1M@OMLEIIJB@?$AAm?$AAi?$AA?9?$AAN?$AAZ@ 0000000180028358     libucrt:lcidtoname_downlevel.obj
 0002:00006368       ??_C@_1M@PMPEAILG@?$AAa?$AAr?$AA?9?$AAI?$AAQ@ 0000000180028368     libucrt:lcidtoname_downlevel.obj
 0002:00006378       ??_C@_1M@CNKPNOEE@?$AAd?$AAe?$AA?9?$AAC?$AAH@ 0000000180028378     libucrt:lcidtoname_downlevel.obj
 0002:00006388       ??_C@_1M@LKMGMLKO@?$AAe?$AAn?$AA?9?$AAG?$AAB@ 0000000180028388     libucrt:lcidtoname_downlevel.obj
 0002:00006398       ??_C@_1M@PGKJFFGL@?$AAe?$AAs?$AA?9?$AAM?$AAX@ 0000000180028398     libucrt:lcidtoname_downlevel.obj
 0002:000063a8       ??_C@_1M@DNNANBDC@?$AAf?$AAr?$AA?9?$AAB?$AAE@ 00000001800283a8     libucrt:lcidtoname_downlevel.obj
 0002:000063b8       ??_C@_1M@HLGMDFHM@?$AAi?$AAt?$AA?9?$AAC?$AAH@ 00000001800283b8     libucrt:lcidtoname_downlevel.obj
 0002:000063c8       ??_C@_1M@CLLBGJH@?$AAn?$AAl?$AA?9?$AAB?$AAE@ 00000001800283c8     libucrt:lcidtoname_downlevel.obj
 0002:000063d8       ??_C@_1M@BODBOGLF@?$AAn?$AAn?$AA?9?$AAN?$AAO@ 00000001800283d8     libucrt:lcidtoname_downlevel.obj
 0002:000063e8       ??_C@_1M@HFFAHKAD@?$AAp?$AAt?$AA?9?$AAP?$AAT@ 00000001800283e8     libucrt:lcidtoname_downlevel.obj
 0002:000063f8       ??_C@_1BG@LNOAKHIE@?$AAs?$AAr?$AA?9?$AAS?$AAP?$AA?9?$AAL?$AAa?$AAt?$AAn@ 00000001800283f8     libucrt:lcidtoname_downlevel.obj
 0002:00006410       ??_C@_1M@HBMHBGAK@?$AAs?$AAv?$AA?9?$AAF?$AAI@ 0000000180028410     libucrt:lcidtoname_downlevel.obj
 0002:00006420       ??_C@_1BG@DGCJGJBE@?$AAa?$AAz?$AA?9?$AAA?$AAZ?$AA?9?$AAC?$AAy?$AAr?$AAl@ 0000000180028420     libucrt:lcidtoname_downlevel.obj
 0002:00006438       ??_C@_1M@KEJDAAHB@?$AAs?$AAe?$AA?9?$AAS?$AAE@ 0000000180028438     libucrt:lcidtoname_downlevel.obj
 0002:00006448       ??_C@_1M@HEIBJJAD@?$AAm?$AAs?$AA?9?$AAB?$AAN@ 0000000180028448     libucrt:lcidtoname_downlevel.obj
 0002:00006458       ??_C@_1BG@PBGJMCEM@?$AAu?$AAz?$AA?9?$AAU?$AAZ?$AA?9?$AAC?$AAy?$AAr?$AAl@ 0000000180028458     libucrt:lcidtoname_downlevel.obj
 0002:00006470       ??_C@_1O@LAOBCMDF@?$AAq?$AAu?$AAz?$AA?9?$AAE?$AAC@ 0000000180028470     libucrt:lcidtoname_downlevel.obj
 0002:00006480       ??_C@_1M@POEEMAIO@?$AAa?$AAr?$AA?9?$AAE?$AAG@ 0000000180028480     libucrt:lcidtoname_downlevel.obj
 0002:00006490       ??_C@_1M@EFAKDEDL@?$AAz?$AAh?$AA?9?$AAH?$AAK@ 0000000180028490     libucrt:lcidtoname_downlevel.obj
 0002:000064a0       ??_C@_1M@HKKIJHGI@?$AAd?$AAe?$AA?9?$AAA?$AAT@ 00000001800284a0     libucrt:lcidtoname_downlevel.obj
 0002:000064b0       ??_C@_1M@KBFBEHJF@?$AAe?$AAn?$AA?9?$AAA?$AAU@ 00000001800284b0     libucrt:lcidtoname_downlevel.obj
 0002:000064c0       ??_C@_1M@MNPLFAAH@?$AAe?$AAs?$AA?9?$AAE?$AAS@ 00000001800284c0     libucrt:lcidtoname_downlevel.obj
 0002:000064d0       ??_C@_1M@HJOOJFMA@?$AAf?$AAr?$AA?9?$AAC?$AAA@ 00000001800284d0     libucrt:lcidtoname_downlevel.obj
 0002:000064e0       ??_C@_1BG@JPOFPNAB@?$AAs?$AAr?$AA?9?$AAS?$AAP?$AA?9?$AAC?$AAy?$AAr?$AAl@ 00000001800284e0     libucrt:lcidtoname_downlevel.obj
 0002:000064f8       ??_C@_1M@LNFOCMOB@?$AAs?$AAe?$AA?9?$AAF?$AAI@ 00000001800284f8     libucrt:lcidtoname_downlevel.obj
 0002:00006508       ??_C@_1O@MGJBOAMB@?$AAq?$AAu?$AAz?$AA?9?$AAP?$AAE@ 0000000180028508     libucrt:lcidtoname_downlevel.obj
 0002:00006518       ??_C@_1M@GJINLBOK@?$AAa?$AAr?$AA?9?$AAL?$AAY@ 0000000180028518     libucrt:lcidtoname_downlevel.obj
 0002:00006528       ??_C@_1M@GGMNHJNL@?$AAz?$AAh?$AA?9?$AAS?$AAG@ 0000000180028528     libucrt:lcidtoname_downlevel.obj
 0002:00006538       ??_C@_1M@HOIKODND@?$AAd?$AAe?$AA?9?$AAL?$AAU@ 0000000180028538     libucrt:lcidtoname_downlevel.obj
 0002:00006548       ??_C@_1M@DDOCCGFG@?$AAe?$AAn?$AA?9?$AAC?$AAA@ 0000000180028548     libucrt:lcidtoname_downlevel.obj
 0002:00006558       ??_C@_1M@BNOEMJLF@?$AAe?$AAs?$AA?9?$AAG?$AAT@ 0000000180028558     libucrt:lcidtoname_downlevel.obj
 0002:00006568       ??_C@_1M@EOGNKEK@?$AAf?$AAr?$AA?9?$AAC?$AAH@ 0000000180028568     libucrt:lcidtoname_downlevel.obj
 0002:00006578       ??_C@_1M@FLIDJFHL@?$AAh?$AAr?$AA?9?$AAB?$AAA@ 0000000180028578     libucrt:lcidtoname_downlevel.obj
 0002:00006588       ??_C@_1O@FMCELNAJ@?$AAs?$AAm?$AAj?$AA?9?$AAN?$AAO@ 0000000180028588     libucrt:lcidtoname_downlevel.obj
 0002:00006598       ??_C@_1M@JHGLJMGJ@?$AAa?$AAr?$AA?9?$AAD?$AAZ@ 0000000180028598     libucrt:lcidtoname_downlevel.obj
 0002:000065a8       ??_C@_1M@JKKFDCNP@?$AAz?$AAh?$AA?9?$AAM?$AAO@ 00000001800285a8     libucrt:lcidtoname_downlevel.obj
 0002:000065b8       ??_C@_1M@GEEFALPE@?$AAd?$AAe?$AA?9?$AAL?$AAI@ 00000001800285b8     libucrt:lcidtoname_downlevel.obj
 0002:000065c8       ??_C@_1M@IGEOFBG@?$AAe?$AAn?$AA?9?$AAN?$AAZ@ 00000001800285c8     libucrt:lcidtoname_downlevel.obj
 0002:000065d8       ??_C@_1M@KDBONEHP@?$AAe?$AAs?$AA?9?$AAC?$AAR@ 00000001800285d8     libucrt:lcidtoname_downlevel.obj
 0002:000065e8       ??_C@_1M@FHMDOHNN@?$AAf?$AAr?$AA?9?$AAL?$AAU@ 00000001800285e8     libucrt:lcidtoname_downlevel.obj
 0002:000065f8       ??_C@_1BG@NFKKMAFG@?$AAb?$AAs?$AA?9?$AAB?$AAA?$AA?9?$AAL?$AAa?$AAt?$AAn@ 00000001800285f8     libucrt:lcidtoname_downlevel.obj
 0002:00006610       ??_C@_1O@IMNBEMCI@?$AAs?$AAm?$AAj?$AA?9?$AAS?$AAE@ 0000000180028610     libucrt:lcidtoname_downlevel.obj
 0002:00006620       ??_C@_1M@DHHMBNDP@?$AAa?$AAr?$AA?9?$AAM?$AAA@ 0000000180028620     libucrt:lcidtoname_downlevel.obj
 0002:00006630       ??_C@_1M@BNBLJCGH@?$AAe?$AAn?$AA?9?$AAI?$AAE@ 0000000180028630     libucrt:lcidtoname_downlevel.obj
 0002:00006640       ??_C@_1M@GEPAFMDL@?$AAe?$AAs?$AA?9?$AAP?$AAA@ 0000000180028640     libucrt:lcidtoname_downlevel.obj
 0002:00006650       ??_C@_1M@OJONDMDL@?$AAf?$AAr?$AA?9?$AAM?$AAC@ 0000000180028650     libucrt:lcidtoname_downlevel.obj
 0002:00006660       ??_C@_1BG@OBCNFJB@?$AAs?$AAr?$AA?9?$AAB?$AAA?$AA?9?$AAL?$AAa?$AAt?$AAn@ 0000000180028660     libucrt:lcidtoname_downlevel.obj
 0002:00006678       ??_C@_1O@KEMEEGPO@?$AAs?$AAm?$AAa?$AA?9?$AAN?$AAO@ 0000000180028678     libucrt:lcidtoname_downlevel.obj
 0002:00006688       ??_C@_1M@ELMGFODK@?$AAa?$AAr?$AA?9?$AAT?$AAN@ 0000000180028688     libucrt:lcidtoname_downlevel.obj
 0002:00006698       ??_C@_1M@BHDLHFAF@?$AAe?$AAn?$AA?9?$AAZ?$AAA@ 0000000180028698     libucrt:lcidtoname_downlevel.obj
 0002:000066a8       ??_C@_1M@BMGIGLIF@?$AAe?$AAs?$AA?9?$AAD?$AAO@ 00000001800286a8     libucrt:lcidtoname_downlevel.obj
 0002:000066b8       ??_C@_1BG@CMBHIPBE@?$AAs?$AAr?$AA?9?$AAB?$AAA?$AA?9?$AAC?$AAy?$AAr?$AAl@ 00000001800286b8     libucrt:lcidtoname_downlevel.obj
 0002:000066d0       ??_C@_1O@HEDBLHNP@?$AAs?$AAm?$AAa?$AA?9?$AAS?$AAE@ 00000001800286d0     libucrt:lcidtoname_downlevel.obj
 0002:000066e0       ??_C@_1M@DAGCADIM@?$AAa?$AAr?$AA?9?$AAO?$AAM@ 00000001800286e0     libucrt:lcidtoname_downlevel.obj
 0002:000066f0       ??_C@_1M@FODLMICG@?$AAe?$AAn?$AA?9?$AAJ?$AAM@ 00000001800286f0     libucrt:lcidtoname_downlevel.obj
 0002:00006700       ??_C@_1M@DNMLCIHB@?$AAe?$AAs?$AA?9?$AAV?$AAE@ 0000000180028700     libucrt:lcidtoname_downlevel.obj
 0002:00006710       ??_C@_1O@EOKHMKJK@?$AAs?$AAm?$AAs?$AA?9?$AAF?$AAI@ 0000000180028710     libucrt:lcidtoname_downlevel.obj
 0002:00006720       ??_C@_1M@CAFJMKOF@?$AAa?$AAr?$AA?9?$AAY?$AAE@ 0000000180028720     libucrt:lcidtoname_downlevel.obj
 0002:00006730       ??_C@_1M@CBFHIJLI@?$AAe?$AAn?$AA?9?$AAC?$AAB@ 0000000180028730     libucrt:lcidtoname_downlevel.obj
 0002:00006740       ??_C@_1M@BGNFLDN@?$AAe?$AAs?$AA?9?$AAC?$AAO@ 0000000180028740     libucrt:lcidtoname_downlevel.obj
 0002:00006750       ??_C@_1O@JMPHMAMC@?$AAs?$AAm?$AAn?$AA?9?$AAF?$AAI@ 0000000180028750     libucrt:lcidtoname_downlevel.obj
 0002:00006760       ??_C@_1M@JLANABKE@?$AAa?$AAr?$AA?9?$AAS?$AAY@ 0000000180028760     libucrt:lcidtoname_downlevel.obj
 0002:00006770       ??_C@_1M@HPKGCFGN@?$AAe?$AAn?$AA?9?$AAB?$AAZ@ 0000000180028770     libucrt:lcidtoname_downlevel.obj
 0002:00006780       ??_C@_1M@OLJCMLGM@?$AAe?$AAs?$AA?9?$AAP?$AAE@ 0000000180028780     libucrt:lcidtoname_downlevel.obj
 0002:00006790       ??_C@_1M@MKKGFKLE@?$AAa?$AAr?$AA?9?$AAJ?$AAO@ 0000000180028790     libucrt:lcidtoname_downlevel.obj
 0002:000067a0       ??_C@_1M@EKPGLDNI@?$AAe?$AAn?$AA?9?$AAT?$AAT@ 00000001800287a0     libucrt:lcidtoname_downlevel.obj
 0002:000067b0       ??_C@_1M@OONGHFHE@?$AAe?$AAs?$AA?9?$AAA?$AAR@ 00000001800287b0     libucrt:lcidtoname_downlevel.obj
 0002:000067c0       ??_C@_1M@OOJFGBHE@?$AAa?$AAr?$AA?9?$AAL?$AAB@ 00000001800287c0     libucrt:lcidtoname_downlevel.obj
 0002:000067d0       ??_C@_1M@GCEJHNEG@?$AAe?$AAn?$AA?9?$AAZ?$AAW@ 00000001800287d0     libucrt:lcidtoname_downlevel.obj
 0002:000067e0       ??_C@_1M@JNOCAHJI@?$AAe?$AAs?$AA?9?$AAE?$AAC@ 00000001800287e0     libucrt:lcidtoname_downlevel.obj
 0002:000067f0       ??_C@_1M@JEFHPGGB@?$AAa?$AAr?$AA?9?$AAK?$AAW@ 00000001800287f0     libucrt:lcidtoname_downlevel.obj
 0002:00006800       ??_C@_1M@MLKIBJOJ@?$AAe?$AAn?$AA?9?$AAP?$AAH@ 0000000180028800     libucrt:lcidtoname_downlevel.obj
 0002:00006810       ??_C@_1M@BDNIPEND@?$AAe?$AAs?$AA?9?$AAC?$AAL@ 0000000180028810     libucrt:lcidtoname_downlevel.obj
 0002:00006820       ??_C@_1M@MPNMEKBD@?$AAa?$AAr?$AA?9?$AAA?$AAE@ 0000000180028820     libucrt:lcidtoname_downlevel.obj
 0002:00006830       ??_C@_1M@KBJALCPI@?$AAe?$AAs?$AA?9?$AAU?$AAY@ 0000000180028830     libucrt:lcidtoname_downlevel.obj
 0002:00006840       ??_C@_1M@LLCCOAGA@?$AAa?$AAr?$AA?9?$AAB?$AAH@ 0000000180028840     libucrt:lcidtoname_downlevel.obj
 0002:00006850       ??_C@_1M@PBFNCDEL@?$AAe?$AAs?$AA?9?$AAP?$AAY@ 0000000180028850     libucrt:lcidtoname_downlevel.obj
 0002:00006860       ??_C@_1M@EDGINPNP@?$AAa?$AAr?$AA?9?$AAQ?$AAA@ 0000000180028860     libucrt:lcidtoname_downlevel.obj
 0002:00006870       ??_C@_1M@MKDBIIJI@?$AAe?$AAs?$AA?9?$AAB?$AAO@ 0000000180028870     libucrt:lcidtoname_downlevel.obj
 0002:00006880       ??_C@_1M@CPKKEBLD@?$AAe?$AAs?$AA?9?$AAS?$AAV@ 0000000180028880     libucrt:lcidtoname_downlevel.obj
 0002:00006890       ??_C@_1M@NDBGMMJL@?$AAe?$AAs?$AA?9?$AAH?$AAN@ 0000000180028890     libucrt:lcidtoname_downlevel.obj
 0002:000068a0       ??_C@_1M@JIJIBHDP@?$AAe?$AAs?$AA?9?$AAN?$AAI@ 00000001800288a0     libucrt:lcidtoname_downlevel.obj
 0002:000068b0       ??_C@_1M@CGFMKEEK@?$AAe?$AAs?$AA?9?$AAP?$AAR@ 00000001800288b0     libucrt:lcidtoname_downlevel.obj
 0002:000068c0       ??_C@_1O@ICJHKIIK@?$AAz?$AAh?$AA?9?$AAC?$AAH?$AAT@ 00000001800288c0     libucrt:lcidtoname_downlevel.obj
 0002:000068d0       ??_C@_15CLNEJCE@?$AAs?$AAr@ 00000001800288d0     libucrt:lcidtoname_downlevel.obj
 0002:00007720       ??_C@_1M@KAHEKEIG@?$AAa?$AAf?$AA?9?$AAz?$AAa@ 0000000180029720     libucrt:lcidtoname_downlevel.obj
 0002:00007730       ??_C@_1M@GIECOABL@?$AAa?$AAr?$AA?9?$AAa?$AAe@ 0000000180029730     libucrt:lcidtoname_downlevel.obj
 0002:00007740       ??_C@_1M@BMLMEKGI@?$AAa?$AAr?$AA?9?$AAb?$AAh@ 0000000180029740     libucrt:lcidtoname_downlevel.obj
 0002:00007750       ??_C@_1M@DAPFDGGB@?$AAa?$AAr?$AA?9?$AAd?$AAz@ 0000000180029750     libucrt:lcidtoname_downlevel.obj
 0002:00007760       ??_C@_1M@FJNKGKIG@?$AAa?$AAr?$AA?9?$AAe?$AAg@ 0000000180029760     libucrt:lcidtoname_downlevel.obj
 0002:00007770       ??_C@_1M@FLGKKCLO@?$AAa?$AAr?$AA?9?$AAi?$AAq@ 0000000180029770     libucrt:lcidtoname_downlevel.obj
 0002:00007780       ??_C@_1M@GNDIPALM@?$AAa?$AAr?$AA?9?$AAj?$AAo@ 0000000180029780     libucrt:lcidtoname_downlevel.obj
 0002:00007790       ??_C@_1M@DDMJFMGJ@?$AAa?$AAr?$AA?9?$AAk?$AAw@ 0000000180029790     libucrt:lcidtoname_downlevel.obj
 0002:000077a0       ??_C@_1M@EJALMLHM@?$AAa?$AAr?$AA?9?$AAl?$AAb@ 00000001800297a0     libucrt:lcidtoname_downlevel.obj
 0002:000077b0       ??_C@_1M@MOBDBLOC@?$AAa?$AAr?$AA?9?$AAl?$AAy@ 00000001800297b0     libucrt:lcidtoname_downlevel.obj
 0002:000077c0       ??_C@_1M@JAOCLHDH@?$AAa?$AAr?$AA?9?$AAm?$AAa@ 00000001800297c0     libucrt:lcidtoname_downlevel.obj
 0002:000077d0       ??_C@_1M@JHPMKJIE@?$AAa?$AAr?$AA?9?$AAo?$AAm@ 00000001800297d0     libucrt:lcidtoname_downlevel.obj
 0002:000077e0       ??_C@_1M@OEPGHFNH@?$AAa?$AAr?$AA?9?$AAq?$AAa@ 00000001800297e0     libucrt:lcidtoname_downlevel.obj
 0002:000077f0       ??_C@_1M@KJDONENM@?$AAa?$AAr?$AA?9?$AAs?$AAa@ 00000001800297f0     libucrt:lcidtoname_downlevel.obj
 0002:00007800       ??_C@_1M@DMJDKLKM@?$AAa?$AAr?$AA?9?$AAs?$AAy@ 0000000180029800     libucrt:lcidtoname_downlevel.obj
 0002:00007810       ??_C@_1M@OMFIPEDC@?$AAa?$AAr?$AA?9?$AAt?$AAn@ 0000000180029810     libucrt:lcidtoname_downlevel.obj
 0002:00007820       ??_C@_1M@IHMHGAON@?$AAa?$AAr?$AA?9?$AAy?$AAe@ 0000000180029820     libucrt:lcidtoname_downlevel.obj
 0002:00007830       ??_C@_1BG@KDCPGJGB@?$AAa?$AAz?$AA?9?$AAa?$AAz?$AA?9?$AAc?$AAy?$AAr?$AAl@ 0000000180029830     libucrt:lcidtoname_downlevel.obj
 0002:00007848       ??_C@_1BG@IBCKDDOE@?$AAa?$AAz?$AA?9?$AAa?$AAz?$AA?9?$AAl?$AAa?$AAt?$AAn@ 0000000180029848     libucrt:lcidtoname_downlevel.obj
 0002:00007860       ??_C@_1M@EGPFDCPD@?$AAb?$AAe?$AA?9?$AAb?$AAy@ 0000000180029860     libucrt:lcidtoname_downlevel.obj
 0002:00007870       ??_C@_1M@PCMGMCGC@?$AAb?$AAg?$AA?9?$AAb?$AAg@ 0000000180029870     libucrt:lcidtoname_downlevel.obj
 0002:00007880       ??_C@_1M@BJBMFGOB@?$AAb?$AAn?$AA?9?$AAi?$AAn@ 0000000180029880     libucrt:lcidtoname_downlevel.obj
 0002:00007890       ??_C@_1BG@EAKMMACD@?$AAb?$AAs?$AA?9?$AAb?$AAa?$AA?9?$AAl?$AAa?$AAt?$AAn@ 0000000180029890     libucrt:lcidtoname_downlevel.obj
 0002:000078a8       ??_C@_1M@KGADAODK@?$AAc?$AAa?$AA?9?$AAe?$AAs@ 00000001800298a8     libucrt:lcidtoname_downlevel.obj
 0002:000078b8       ??_C@_1M@COAJPDHI@?$AAc?$AAs?$AA?9?$AAc?$AAz@ 00000001800298b8     libucrt:lcidtoname_downlevel.obj
 0002:000078c8       ??_C@_1M@DHBHFONH@?$AAc?$AAy?$AA?9?$AAg?$AAb@ 00000001800298c8     libucrt:lcidtoname_downlevel.obj
 0002:000078d8       ??_C@_1M@IMGKELGA@?$AAd?$AAa?$AA?9?$AAd?$AAk@ 00000001800298d8     libucrt:lcidtoname_downlevel.obj
 0002:000078e8       ??_C@_1M@NNDGDNGA@?$AAd?$AAe?$AA?9?$AAa?$AAt@ 00000001800298e8     libucrt:lcidtoname_downlevel.obj
 0002:000078f8       ??_C@_1M@IKDBHEEM@?$AAd?$AAe?$AA?9?$AAc?$AAh@ 00000001800298f8     libucrt:lcidtoname_downlevel.obj
 0002:00007908       ??_C@_1M@GFFOJMCJ@?$AAd?$AAe?$AA?9?$AAd?$AAe@ 0000000180029908     libucrt:lcidtoname_downlevel.obj
 0002:00007918       ??_C@_1M@MDNLKBPM@?$AAd?$AAe?$AA?9?$AAl?$AAi@ 0000000180029918     libucrt:lcidtoname_downlevel.obj
 0002:00007928       ??_C@_1M@NJBEEJNL@?$AAd?$AAe?$AA?9?$AAl?$AAu@ 0000000180029928     libucrt:lcidtoname_downlevel.obj
 0002:00007938       ??_C@_1O@GNNELBAP@?$AAd?$AAi?$AAv?$AA?9?$AAm?$AAv@ 0000000180029938     libucrt:lcidtoname_downlevel.obj
 0002:00007948       ??_C@_1M@EJLEOGAE@?$AAe?$AAl?$AA?9?$AAg?$AAr@ 0000000180029948     libucrt:lcidtoname_downlevel.obj
 0002:00007958       ??_C@_1M@GMPONJN@?$AAe?$AAn?$AA?9?$AAa?$AAu@ 0000000180029958     libucrt:lcidtoname_downlevel.obj
 0002:00007968       ??_C@_1M@NIDIIPGF@?$AAe?$AAn?$AA?9?$AAb?$AAz@ 0000000180029968     libucrt:lcidtoname_downlevel.obj
 0002:00007978       ??_C@_1M@JEHMIMFO@?$AAe?$AAn?$AA?9?$AAc?$AAa@ 0000000180029978     libucrt:lcidtoname_downlevel.obj
 0002:00007988       ??_C@_1M@IGMJCDLA@?$AAe?$AAn?$AA?9?$AAc?$AAb@ 0000000180029988     libucrt:lcidtoname_downlevel.obj
 0002:00007998       ??_C@_1M@BNFIGBKG@?$AAe?$AAn?$AA?9?$AAg?$AAb@ 0000000180029998     libucrt:lcidtoname_downlevel.obj
 0002:000079a8       ??_C@_1M@LKIFDIGP@?$AAe?$AAn?$AA?9?$AAi?$AAe@ 00000001800299a8     libucrt:lcidtoname_downlevel.obj
 0002:000079b8       ??_C@_1M@PJKFGCCO@?$AAe?$AAn?$AA?9?$AAj?$AAm@ 00000001800299b8     libucrt:lcidtoname_downlevel.obj
 0002:000079c8       ??_C@_1M@KPPKEPBO@?$AAe?$AAn?$AA?9?$AAn?$AAz@ 00000001800299c8     libucrt:lcidtoname_downlevel.obj
 0002:000079d8       ??_C@_1M@GMDGLDOB@?$AAe?$AAn?$AA?9?$AAp?$AAh@ 00000001800299d8     libucrt:lcidtoname_downlevel.obj
 0002:000079e8       ??_C@_1M@ONGIBJNA@?$AAe?$AAn?$AA?9?$AAt?$AAt@ 00000001800299e8     libucrt:lcidtoname_downlevel.obj
 0002:000079f8       ??_C@_1M@LLODPCMM@?$AAe?$AAn?$AA?9?$AAu?$AAs@ 00000001800299f8     libucrt:lcidtoname_downlevel.obj
 0002:00007a08       ??_C@_1M@LAKFNPAN@?$AAe?$AAn?$AA?9?$AAz?$AAa@ 0000000180029a08     libucrt:lcidtoname_downlevel.obj
 0002:00007a18       ??_C@_1M@MFNHNHEO@?$AAe?$AAn?$AA?9?$AAz?$AAw@ 0000000180029a18     libucrt:lcidtoname_downlevel.obj
 0002:00007a28       ??_C@_1M@EJEINPHM@?$AAe?$AAs?$AA?9?$AAa?$AAr@ 0000000180029a28     libucrt:lcidtoname_downlevel.obj
 0002:00007a38       ??_C@_1M@GNKPCCJA@?$AAe?$AAs?$AA?9?$AAb?$AAo@ 0000000180029a38     libucrt:lcidtoname_downlevel.obj
 0002:00007a48       ??_C@_1M@LEEGFONL@?$AAe?$AAs?$AA?9?$AAc?$AAl@ 0000000180029a48     libucrt:lcidtoname_downlevel.obj
 0002:00007a58       ??_C@_1M@KGPDPBDF@?$AAe?$AAs?$AA?9?$AAc?$AAo@ 0000000180029a58     libucrt:lcidtoname_downlevel.obj
 0002:00007a68       ??_C@_1M@EIAHOHH@?$AAe?$AAs?$AA?9?$AAc?$AAr@ 0000000180029a68     libucrt:lcidtoname_downlevel.obj
 0002:00007a78       ??_C@_1M@LLPGMBIN@?$AAe?$AAs?$AA?9?$AAd?$AAo@ 0000000180029a78     libucrt:lcidtoname_downlevel.obj
 0002:00007a88       ??_C@_1M@DKHMKNJA@?$AAe?$AAs?$AA?9?$AAe?$AAc@ 0000000180029a88     libucrt:lcidtoname_downlevel.obj
 0002:00007a98       ??_C@_1M@GKGFPKAP@?$AAe?$AAs?$AA?9?$AAe?$AAs@ 0000000180029a98     libucrt:lcidtoname_downlevel.obj
 0002:00007aa8       ??_C@_1M@LKHKGDLN@?$AAe?$AAs?$AA?9?$AAg?$AAt@ 0000000180029aa8     libucrt:lcidtoname_downlevel.obj
 0002:00007ab8       ??_C@_1M@HEIIGGJD@?$AAe?$AAs?$AA?9?$AAh?$AAn@ 0000000180029ab8     libucrt:lcidtoname_downlevel.obj
 0002:00007ac8       ??_C@_1M@FBDHPPGD@?$AAe?$AAs?$AA?9?$AAm?$AAx@ 0000000180029ac8     libucrt:lcidtoname_downlevel.obj
 0002:00007ad8       ??_C@_1M@DPAGLNDH@?$AAe?$AAs?$AA?9?$AAn?$AAi@ 0000000180029ad8     libucrt:lcidtoname_downlevel.obj
 0002:00007ae8       ??_C@_1M@MDGOPGDD@?$AAe?$AAs?$AA?9?$AAp?$AAa@ 0000000180029ae8     libucrt:lcidtoname_downlevel.obj
 0002:00007af8       ??_C@_1M@EMAMGBGE@?$AAe?$AAs?$AA?9?$AAp?$AAe@ 0000000180029af8     libucrt:lcidtoname_downlevel.obj
 0002:00007b08       ??_C@_1M@IBMCAOEC@?$AAe?$AAs?$AA?9?$AAp?$AAr@ 0000000180029b08     libucrt:lcidtoname_downlevel.obj
 0002:00007b18       ??_C@_1M@FGMDIJED@?$AAe?$AAs?$AA?9?$AAp?$AAy@ 0000000180029b18     libucrt:lcidtoname_downlevel.obj
 0002:00007b28       ??_C@_1M@IIDEOLLL@?$AAe?$AAs?$AA?9?$AAs?$AAv@ 0000000180029b28     libucrt:lcidtoname_downlevel.obj
 0002:00007b38       ??_C@_1M@GAOBIPA@?$AAe?$AAs?$AA?9?$AAu?$AAy@ 0000000180029b38     libucrt:lcidtoname_downlevel.obj
 0002:00007b48       ??_C@_1M@JKFFICHJ@?$AAe?$AAs?$AA?9?$AAv?$AAe@ 0000000180029b48     libucrt:lcidtoname_downlevel.obj
 0002:00007b58       ??_C@_1M@PNMLOJDF@?$AAe?$AAt?$AA?9?$AAe?$AAe@ 0000000180029b58     libucrt:lcidtoname_downlevel.obj
 0002:00007b68       ??_C@_1M@GHHLIKEI@?$AAe?$AAu?$AA?9?$AAe?$AAs@ 0000000180029b68     libucrt:lcidtoname_downlevel.obj
 0002:00007b78       ??_C@_1M@PBNONODE@?$AAf?$AAa?$AA?9?$AAi?$AAr@ 0000000180029b78     libucrt:lcidtoname_downlevel.obj
 0002:00007b88       ??_C@_1M@JEEHPMIL@?$AAf?$AAi?$AA?9?$AAf?$AAi@ 0000000180029b88     libucrt:lcidtoname_downlevel.obj
 0002:00007b98       ??_C@_1M@LMDCNDBA@?$AAf?$AAo?$AA?9?$AAf?$AAo@ 0000000180029b98     libucrt:lcidtoname_downlevel.obj
 0002:00007ba8       ??_C@_1M@JKEOHLDK@?$AAf?$AAr?$AA?9?$AAb?$AAe@ 0000000180029ba8     libucrt:lcidtoname_downlevel.obj
 0002:00007bb8       ??_C@_1M@NOHADPMI@?$AAf?$AAr?$AA?9?$AAc?$AAa@ 0000000180029bb8     libucrt:lcidtoname_downlevel.obj
 0002:00007bc8       ??_C@_1M@KDHIHAEC@?$AAf?$AAr?$AA?9?$AAc?$AAh@ 0000000180029bc8     libucrt:lcidtoname_downlevel.obj
 0002:00007bd8       ??_C@_1M@MMBBFGAK@?$AAf?$AAr?$AA?9?$AAf?$AAr@ 0000000180029bd8     libucrt:lcidtoname_downlevel.obj
 0002:00007be8       ??_C@_1M@PAFNENNF@?$AAf?$AAr?$AA?9?$AAl?$AAu@ 0000000180029be8     libucrt:lcidtoname_downlevel.obj
 0002:00007bf8       ??_C@_1M@EOHDJGDD@?$AAf?$AAr?$AA?9?$AAm?$AAc@ 0000000180029bf8     libucrt:lcidtoname_downlevel.obj
 0002:00007c08       ??_C@_1M@FAPLLOPF@?$AAg?$AAl?$AA?9?$AAe?$AAs@ 0000000180029c08     libucrt:lcidtoname_downlevel.obj
 0002:00007c18       ??_C@_1M@FOPBFLOO@?$AAg?$AAu?$AA?9?$AAi?$AAn@ 0000000180029c18     libucrt:lcidtoname_downlevel.obj
 0002:00007c28       ??_C@_1M@KBMCINPM@?$AAh?$AAe?$AA?9?$AAi?$AAl@ 0000000180029c28     libucrt:lcidtoname_downlevel.obj
 0002:00007c38       ??_C@_1M@BBPHKFPJ@?$AAh?$AAi?$AA?9?$AAi?$AAn@ 0000000180029c38     libucrt:lcidtoname_downlevel.obj
 0002:00007c48       ??_C@_1M@PMBNDPHD@?$AAh?$AAr?$AA?9?$AAb?$AAa@ 0000000180029c48     libucrt:lcidtoname_downlevel.obj
 0002:00007c58       ??_C@_1M@BPCKOEGE@?$AAh?$AAr?$AA?9?$AAh?$AAr@ 0000000180029c58     libucrt:lcidtoname_downlevel.obj
 0002:00007c68       ??_C@_1M@GACBMHKE@?$AAh?$AAu?$AA?9?$AAh?$AAu@ 0000000180029c68     libucrt:lcidtoname_downlevel.obj
 0002:00007c78       ??_C@_1M@MILPAJJC@?$AAh?$AAy?$AA?9?$AAa?$AAm@ 0000000180029c78     libucrt:lcidtoname_downlevel.obj
 0002:00007c88       ??_C@_1M@BABBICEC@?$AAi?$AAd?$AA?9?$AAi?$AAd@ 0000000180029c88     libucrt:lcidtoname_downlevel.obj
 0002:00007c98       ??_C@_1M@BIKNHHPF@?$AAi?$AAs?$AA?9?$AAi?$AAs@ 0000000180029c98     libucrt:lcidtoname_downlevel.obj
 0002:00007ca8       ??_C@_1M@NMPCJPHE@?$AAi?$AAt?$AA?9?$AAc?$AAh@ 0000000180029ca8     libucrt:lcidtoname_downlevel.obj
 0002:00007cb8       ??_C@_1M@GHKGFEDF@?$AAi?$AAt?$AA?9?$AAi?$AAt@ 0000000180029cb8     libucrt:lcidtoname_downlevel.obj
 0002:00007cc8       ??_C@_1M@NIEJCJJA@?$AAj?$AAa?$AA?9?$AAj?$AAp@ 0000000180029cc8     libucrt:lcidtoname_downlevel.obj
 0002:00007cd8       ??_C@_1M@JILFNBIM@?$AAk?$AAa?$AA?9?$AAg?$AAe@ 0000000180029cd8     libucrt:lcidtoname_downlevel.obj
 0002:00007ce8       ??_C@_1M@PACPMGPH@?$AAk?$AAk?$AA?9?$AAk?$AAz@ 0000000180029ce8     libucrt:lcidtoname_downlevel.obj
 0002:00007cf8       ??_C@_1M@IELFGMHA@?$AAk?$AAn?$AA?9?$AAi?$AAn@ 0000000180029cf8     libucrt:lcidtoname_downlevel.obj
 0002:00007d08       ??_C@_1O@IBBJHCH@?$AAk?$AAo?$AAk?$AA?9?$AAi?$AAn@ 0000000180029d08     libucrt:lcidtoname_downlevel.obj
 0002:00007d18       ??_C@_1M@DMHAEOGC@?$AAk?$AAo?$AA?9?$AAk?$AAr@ 0000000180029d18     libucrt:lcidtoname_downlevel.obj
 0002:00007d28       ??_C@_1M@HBAHBIGA@?$AAk?$AAy?$AA?9?$AAk?$AAg@ 0000000180029d28     libucrt:lcidtoname_downlevel.obj
 0002:00007d38       ??_C@_1M@KPMILCJG@?$AAl?$AAt?$AA?9?$AAl?$AAt@ 0000000180029d38     libucrt:lcidtoname_downlevel.obj
 0002:00007d48       ??_C@_1M@BDEKKCA@?$AAl?$AAv?$AA?9?$AAl?$AAv@ 0000000180029d48     libucrt:lcidtoname_downlevel.obj
 0002:00007d58       ??_C@_1M@ELCKCCJJ@?$AAm?$AAi?$AA?9?$AAn?$AAz@ 0000000180029d58     libucrt:lcidtoname_downlevel.obj
 0002:00007d68       ??_C@_1M@CBOOLAPA@?$AAm?$AAk?$AA?9?$AAm?$AAk@ 0000000180029d68     libucrt:lcidtoname_downlevel.obj
 0002:00007d78       ??_C@_1M@GPHNBJKN@?$AAm?$AAl?$AA?9?$AAi?$AAn@ 0000000180029d78     libucrt:lcidtoname_downlevel.obj
 0002:00007d88       ??_C@_1M@PABJILIG@?$AAm?$AAn?$AA?9?$AAm?$AAn@ 0000000180029d88     libucrt:lcidtoname_downlevel.obj
 0002:00007d98       ??_C@_1M@FGBKKIPG@?$AAm?$AAr?$AA?9?$AAi?$AAn@ 0000000180029d98     libucrt:lcidtoname_downlevel.obj
 0002:00007da8       ??_C@_1M@NDBPDDAL@?$AAm?$AAs?$AA?9?$AAb?$AAn@ 0000000180029da8     libucrt:lcidtoname_downlevel.obj
 0002:00007db8       ??_C@_1M@OPIHOOPI@?$AAm?$AAs?$AA?9?$AAm?$AAy@ 0000000180029db8     libucrt:lcidtoname_downlevel.obj
 0002:00007dc8       ??_C@_1M@PPDBCNFM@?$AAm?$AAt?$AA?9?$AAm?$AAt@ 0000000180029dc8     libucrt:lcidtoname_downlevel.obj
 0002:00007dd8       ??_C@_1M@KDJDKMDD@?$AAn?$AAb?$AA?9?$AAn?$AAo@ 0000000180029dd8     libucrt:lcidtoname_downlevel.obj
 0002:00007de8       ??_C@_1M@KFCFLMJP@?$AAn?$AAl?$AA?9?$AAb?$AAe@ 0000000180029de8     libucrt:lcidtoname_downlevel.obj
 0002:00007df8       ??_C@_1M@KPOPDDGO@?$AAn?$AAl?$AA?9?$AAn?$AAl@ 0000000180029df8     libucrt:lcidtoname_downlevel.obj
 0002:00007e08       ??_C@_1M@LJKPEMLN@?$AAn?$AAn?$AA?9?$AAn?$AAo@ 0000000180029e08     libucrt:lcidtoname_downlevel.obj
 0002:00007e18       ??_C@_1M@BDGHHBFL@?$AAn?$AAs?$AA?9?$AAz?$AAa@ 0000000180029e18     libucrt:lcidtoname_downlevel.obj
 0002:00007e28       ??_C@_1M@IDEHOAP@?$AAp?$AAa?$AA?9?$AAi?$AAn@ 0000000180029e28     libucrt:lcidtoname_downlevel.obj
 0002:00007e38       ??_C@_1M@HDBKGOGH@?$AAp?$AAl?$AA?9?$AAp?$AAl@ 0000000180029e38     libucrt:lcidtoname_downlevel.obj
 0002:00007e48       ??_C@_1M@LJLLCMEH@?$AAp?$AAt?$AA?9?$AAb?$AAr@ 0000000180029e48     libucrt:lcidtoname_downlevel.obj
 0002:00007e58       ??_C@_1M@NCMONAAL@?$AAp?$AAt?$AA?9?$AAp?$AAt@ 0000000180029e58     libucrt:lcidtoname_downlevel.obj
 0002:00007e68       ??_C@_1O@EAKMAJDN@?$AAq?$AAu?$AAz?$AA?9?$AAb?$AAo@ 0000000180029e68     libucrt:lcidtoname_downlevel.obj
 0002:00007e78       ??_C@_1O@BHHPIGDN@?$AAq?$AAu?$AAz?$AA?9?$AAe?$AAc@ 0000000180029e78     libucrt:lcidtoname_downlevel.obj
 0002:00007e88       ??_C@_1O@GBAPEKMJ@?$AAq?$AAu?$AAz?$AA?9?$AAp?$AAe@ 0000000180029e88     libucrt:lcidtoname_downlevel.obj
 0002:00007e98       ??_C@_1M@CLGLEFBO@?$AAr?$AAo?$AA?9?$AAr?$AAo@ 0000000180029e98     libucrt:lcidtoname_downlevel.obj
 0002:00007ea8       ??_C@_1M@CEEDODME@?$AAr?$AAu?$AA?9?$AAr?$AAu@ 0000000180029ea8     libucrt:lcidtoname_downlevel.obj
 0002:00007eb8       ??_C@_1M@HPKKKMPP@?$AAs?$AAa?$AA?9?$AAi?$AAn@ 0000000180029eb8     libucrt:lcidtoname_downlevel.obj
 0002:00007ec8       ??_C@_1M@BKMAIGOJ@?$AAs?$AAe?$AA?9?$AAf?$AAi@ 0000000180029ec8     libucrt:lcidtoname_downlevel.obj
 0002:00007ed8       ??_C@_1M@NDPIFLFI@?$AAs?$AAe?$AA?9?$AAn?$AAo@ 0000000180029ed8     libucrt:lcidtoname_downlevel.obj
 0002:00007ee8       ??_C@_1M@DANKKHJ@?$AAs?$AAe?$AA?9?$AAs?$AAe@ 0000000180029ee8     libucrt:lcidtoname_downlevel.obj
 0002:00007ef8       ??_C@_1M@PNBLONPJ@?$AAs?$AAk?$AA?9?$AAs?$AAk@ 0000000180029ef8     libucrt:lcidtoname_downlevel.obj
 0002:00007f08       ??_C@_1M@LFMODOAL@?$AAs?$AAl?$AA?9?$AAs?$AAi@ 0000000180029f08     libucrt:lcidtoname_downlevel.obj
 0002:00007f18       ??_C@_1O@DFKOMPG@?$AAs?$AAm?$AAa?$AA?9?$AAn?$AAo@ 0000000180029f18     libucrt:lcidtoname_downlevel.obj
 0002:00007f28       ??_C@_1O@NDKPBNNH@?$AAs?$AAm?$AAa?$AA?9?$AAs?$AAe@ 0000000180029f28     libucrt:lcidtoname_downlevel.obj
 0002:00007f38       ??_C@_1O@PLLKBHAB@?$AAs?$AAm?$AAj?$AA?9?$AAn?$AAo@ 0000000180029f38     libucrt:lcidtoname_downlevel.obj
 0002:00007f48       ??_C@_1O@CLEPOGCA@?$AAs?$AAm?$AAj?$AA?9?$AAs?$AAe@ 0000000180029f48     libucrt:lcidtoname_downlevel.obj
 0002:00007f58       ??_C@_1O@DLGJGKMK@?$AAs?$AAm?$AAn?$AA?9?$AAf?$AAi@ 0000000180029f58     libucrt:lcidtoname_downlevel.obj
 0002:00007f68       ??_C@_1O@OJDJGAJC@?$AAs?$AAm?$AAs?$AA?9?$AAf?$AAi@ 0000000180029f68     libucrt:lcidtoname_downlevel.obj
 0002:00007f78       ??_C@_1M@BOFOGHPB@?$AAs?$AAq?$AA?9?$AAa?$AAl@ 0000000180029f78     libucrt:lcidtoname_downlevel.obj
 0002:00007f88       ??_C@_1BG@LJBBIPGB@?$AAs?$AAr?$AA?9?$AAb?$AAa?$AA?9?$AAc?$AAy?$AAr?$AAl@ 0000000180029f88     libucrt:lcidtoname_downlevel.obj
 0002:00007fa0       ??_C@_1BG@JLBENFOE@?$AAs?$AAr?$AA?9?$AAb?$AAa?$AA?9?$AAl?$AAa?$AAt?$AAn@ 0000000180029fa0     libucrt:lcidtoname_downlevel.obj
 0002:00007fb8       ??_C@_1BG@KODPNHE@?$AAs?$AAr?$AA?9?$AAs?$AAp?$AA?9?$AAc?$AAy?$AAr?$AAl@ 0000000180029fb8     libucrt:lcidtoname_downlevel.obj
 0002:00007fd0       ??_C@_1BG@CIOGKHPB@?$AAs?$AAr?$AA?9?$AAs?$AAp?$AA?9?$AAl?$AAa?$AAt?$AAn@ 0000000180029fd0     libucrt:lcidtoname_downlevel.obj
 0002:00007fe8       ??_C@_1M@NGFJLMAC@?$AAs?$AAv?$AA?9?$AAf?$AAi@ 0000000180029fe8     libucrt:lcidtoname_downlevel.obj
 0002:00007ff8       ??_C@_1M@MPJEJAJC@?$AAs?$AAv?$AA?9?$AAs?$AAe@ 0000000180029ff8     libucrt:lcidtoname_downlevel.obj
 0002:00008008       ??_C@_1M@MPNDHLFK@?$AAs?$AAw?$AA?9?$AAk?$AAe@ 000000018002a008     libucrt:lcidtoname_downlevel.obj
 0002:00008018       ??_C@_1O@KOHBJJI@?$AAs?$AAy?$AAr?$AA?9?$AAs?$AAy@ 000000018002a018     libucrt:lcidtoname_downlevel.obj
 0002:00008028       ??_C@_1M@LDCEFHA@?$AAt?$AAa?$AA?9?$AAi?$AAn@ 000000018002a028     libucrt:lcidtoname_downlevel.obj
 0002:00008038       ??_C@_1M@CNJOFAK@?$AAt?$AAe?$AA?9?$AAi?$AAn@ 000000018002a038     libucrt:lcidtoname_downlevel.obj
 0002:00008048       ??_C@_1M@GNAECACD@?$AAt?$AAh?$AA?9?$AAt?$AAh@ 000000018002a048     libucrt:lcidtoname_downlevel.obj
 0002:00008058       ??_C@_1M@CHBIHOJO@?$AAt?$AAn?$AA?9?$AAz?$AAa@ 000000018002a058     libucrt:lcidtoname_downlevel.obj
 0002:00008068       ??_C@_1M@GCCMIGPJ@?$AAt?$AAr?$AA?9?$AAt?$AAr@ 000000018002a068     libucrt:lcidtoname_downlevel.obj
 0002:00008078       ??_C@_1M@CELMCNBK@?$AAt?$AAt?$AA?9?$AAr?$AAu@ 000000018002a078     libucrt:lcidtoname_downlevel.obj
 0002:00008088       ??_C@_1M@KLMCELGA@?$AAu?$AAk?$AA?9?$AAu?$AAa@ 000000018002a088     libucrt:lcidtoname_downlevel.obj
 0002:00008098       ??_C@_1M@EPAJJAJF@?$AAu?$AAr?$AA?9?$AAp?$AAk@ 000000018002a098     libucrt:lcidtoname_downlevel.obj
 0002:000080a8       ??_C@_1BG@GEGPMCDJ@?$AAu?$AAz?$AA?9?$AAu?$AAz?$AA?9?$AAc?$AAy?$AAr?$AAl@ 000000018002a0a8     libucrt:lcidtoname_downlevel.obj
 0002:000080c0       ??_C@_1BG@EGGKJILM@?$AAu?$AAz?$AA?9?$AAu?$AAz?$AA?9?$AAl?$AAa?$AAt?$AAn@ 000000018002a0c0     libucrt:lcidtoname_downlevel.obj
 0002:000080d8       ??_C@_1M@GFOCLFF@?$AAv?$AAi?$AA?9?$AAv?$AAn@ 000000018002a0d8     libucrt:lcidtoname_downlevel.obj
 0002:000080e8       ??_C@_1M@CPAMEDFI@?$AAx?$AAh?$AA?9?$AAz?$AAa@ 000000018002a0e8     libucrt:lcidtoname_downlevel.obj
 0002:000080f8       ??_C@_1O@EBKIFIGN@?$AAz?$AAh?$AA?9?$AAc?$AAh?$AAs@ 000000018002a0f8     libucrt:lcidtoname_downlevel.obj
 0002:00008108       ??_C@_1O@NMHPGANE@?$AAz?$AAh?$AA?9?$AAc?$AAh?$AAt@ 000000018002a108     libucrt:lcidtoname_downlevel.obj
 0002:00008118       ??_C@_1M@LPINJOMC@?$AAz?$AAh?$AA?9?$AAc?$AAn@ 000000018002a118     libucrt:lcidtoname_downlevel.obj
 0002:00008128       ??_C@_1M@OCJEJODD@?$AAz?$AAh?$AA?9?$AAh?$AAk@ 000000018002a128     libucrt:lcidtoname_downlevel.obj
 0002:00008138       ??_C@_1M@DNDLJINH@?$AAz?$AAh?$AA?9?$AAm?$AAo@ 000000018002a138     libucrt:lcidtoname_downlevel.obj
 0002:00008148       ??_C@_1M@MBFDNDND@?$AAz?$AAh?$AA?9?$AAs?$AAg@ 000000018002a148     libucrt:lcidtoname_downlevel.obj
 0002:00008158       ??_C@_1M@IMEPLEPE@?$AAz?$AAh?$AA?9?$AAt?$AAw@ 000000018002a158     libucrt:lcidtoname_downlevel.obj
 0002:00008168       ??_C@_1M@BBGHNHJP@?$AAz?$AAu?$AA?9?$AAz?$AAa@ 000000018002a168     libucrt:lcidtoname_downlevel.obj
 0002:00008180       ?large_power_data@?1??multiply_by_power_of_ten@__crt_strtox@@YA_NAEAUbig_integer@2@I@Z@4QBIB 000000018002a180     libucrt:cfout.obj
 0002:00008b28       ?small_powers_of_ten@?1??multiply_by_power_of_ten@__crt_strtox@@YA_NAEAUbig_integer@2@I@Z@4QBIB 000000018002ab28     libucrt:cfout.obj
 0002:00008b4c       ??_C@_01GBGANLPD@0@        000000018002ab4c     libucrt:cfout.obj
 0002:00008b50       ??_C@_05DNEBIAHO@1?$CDINF@ 000000018002ab50     libucrt:cfout.obj
 0002:00008b58       ??_C@_06IMKFLFPG@1?$CDQNAN@ 000000018002ab58     libucrt:cfout.obj
 0002:00008b60       ??_C@_06PGGFOGJG@1?$CDSNAN@ 000000018002ab60     libucrt:cfout.obj
 0002:00008b68       ??_C@_05PHHOCPM@1?$CDIND@  000000018002ab68     libucrt:cfout.obj
 0002:00008b70       __real@3ff0000000000000    000000018002ab70     libucrt:ceil.obj
 0002:00008dd0       __log10_256_lead           000000018002add0     libucrt:log10_256_lead_tail_table.obj
 0002:000095e0       __log10_256_tail           000000018002b5e0     libucrt:log10_256_lead_tail_table.obj
 0002:00009df0       __log_F_inv_qword          000000018002bdf0     libucrt:log_f_inv_qword_table.obj
 0002:0000a600       ??_C@_05HGHHAHAP@log10@    000000018002c600     libucrt:log_special.obj
 0002:0000a608       ??_C@_1BA@BALFACEM@?$AAC?$AAO?$AAN?$AAO?$AAU?$AAT?$AA$@ 000000018002c608     libucrt:initcon.obj
 0002:0000a690       _load_config_used          000000018002c690     LIBCMT:loadcfg.obj
 0002:0000a798       _tls_used                  000000018002c798     LIBCMT:tlssup.obj
 0002:0000a7c0       ??_R4exception@std@@6B@    000000018002c7c0     LIBCMT:throw_bad_alloc.obj
 0002:0000a7e8       ??_R3exception@std@@8      000000018002c7e8     LIBCMT:throw_bad_alloc.obj
 0002:0000a800       ??_R2exception@std@@8      000000018002c800     LIBCMT:throw_bad_alloc.obj
 0002:0000a810       ??_R1A@?0A@EA@exception@std@@8 000000018002c810     LIBCMT:throw_bad_alloc.obj
 0002:0000a838       ??_R4bad_alloc@std@@6B@    000000018002c838     LIBCMT:throw_bad_alloc.obj
 0002:0000a860       ??_R3bad_alloc@std@@8      000000018002c860     LIBCMT:throw_bad_alloc.obj
 0002:0000a878       ??_R2bad_alloc@std@@8      000000018002c878     LIBCMT:throw_bad_alloc.obj
 0002:0000a890       ??_R1A@?0A@EA@bad_alloc@std@@8 000000018002c890     LIBCMT:throw_bad_alloc.obj
 0002:0000a8b8       ??_R4bad_array_new_length@std@@6B@ 000000018002c8b8     LIBCMT:throw_bad_alloc.obj
 0002:0000a8e0       ??_R3bad_array_new_length@std@@8 000000018002c8e0     LIBCMT:throw_bad_alloc.obj
 0002:0000a8f8       ??_R2bad_array_new_length@std@@8 000000018002c8f8     LIBCMT:throw_bad_alloc.obj
 0002:0000a918       ??_R1A@?0A@EA@bad_array_new_length@std@@8 000000018002c918     LIBCMT:throw_bad_alloc.obj
 0002:0000a940       ??_R4type_info@@6B@        000000018002c940     LIBCMT:std_type_info_static.obj
 0002:0000a968       ??_R3type_info@@8          000000018002c968     LIBCMT:std_type_info_static.obj
 0002:0000a980       ??_R2type_info@@8          000000018002c980     LIBCMT:std_type_info_static.obj
 0002:0000a990       ??_R1A@?0A@EA@type_info@@8 000000018002c990     LIBCMT:std_type_info_static.obj
 0002:0000a9b8       ??_R4bad_exception@std@@6B@ 000000018002c9b8     libvcruntime:frame.obj
 0002:0000a9e0       ??_R3bad_exception@std@@8  000000018002c9e0     libvcruntime:frame.obj
 0002:0000a9f8       ??_R2bad_exception@std@@8  000000018002c9f8     libvcruntime:frame.obj
 0002:0000aa10       ??_R1A@?0A@EA@bad_exception@std@@8 000000018002ca10     libvcruntime:frame.obj
 0002:0000ae40       __rtc_iaa                  000000018002ce40     LIBCMT:initsect.obj
 0002:0000ae48       __rtc_izz                  000000018002ce48     LIBCMT:initsect.obj
 0002:0000ae50       __rtc_taa                  000000018002ce50     LIBCMT:initsect.obj
 0002:0000ae58       __rtc_tzz                  000000018002ce58     LIBCMT:initsect.obj
 0002:0000ae60       _tls_start                 000000018002ce60     LIBCMT:tlssup.obj
 0002:0000ae64       _Init_thread_epoch         000000018002ce64     LIBCMT:thread_safe_statics.obj
 0002:0000ae68       _tls_end                   000000018002ce68     LIBCMT:tlssup.obj
 0002:0000c480       _TI2?AVbad_alloc@std@@     000000018002e480     LIBCMT:throw_bad_alloc.obj
 0002:0000c4a0       _CTA2?AVbad_alloc@std@@    000000018002e4a0     LIBCMT:throw_bad_alloc.obj
 0002:0000c4b8       _CT??_R0?AVbad_alloc@std@@@8??0bad_alloc@std@@QEAA@AEBV01@@Z24 000000018002e4b8     LIBCMT:throw_bad_alloc.obj
 0002:0000c4e0       _CT??_R0?AVexception@std@@@8??0exception@std@@QEAA@AEBV01@@Z24 000000018002e4e0     LIBCMT:throw_bad_alloc.obj
 0002:0000c508       _TI3?AVbad_array_new_length@std@@ 000000018002e508     LIBCMT:throw_bad_alloc.obj
 0002:0000c528       _CTA3?AVbad_array_new_length@std@@ 000000018002e528     LIBCMT:throw_bad_alloc.obj
 0002:0000c548       _CT??_R0?AVbad_array_new_length@std@@@8??0bad_array_new_length@std@@QEAA@AEBV01@@Z24 000000018002e548     LIBCMT:throw_bad_alloc.obj
 0002:0000c570       _TI2?AVbad_exception@std@@ 000000018002e570     libvcruntime:frame.obj
 0002:0000c590       _CTA2?AVbad_exception@std@@ 000000018002e590     libvcruntime:frame.obj
 0002:0000c5a8       _CT??_R0?AVbad_exception@std@@@8??0bad_exception@std@@QEAA@AEBV01@@Z24 000000018002e5a8     libvcruntime:frame.obj
 0002:0000c5d0       __pobjMapEntryFirst        000000018002e5d0     OposVariant.obj
 0002:0000c5d8       __pobjMapEntryLast         000000018002e5d8     OposVariant.obj
 0002:0000c690       __IMPORT_DESCRIPTOR_KERNEL32 000000018002e690     kernel32:KERNEL32.dll
 0002:0000c6a4       __IMPORT_DESCRIPTOR_USER32 000000018002e6a4     user32:USER32.dll
 0002:0000c6b8       __IMPORT_DESCRIPTOR_GDI32  000000018002e6b8     gdi32:GDI32.dll
 0002:0000c6cc       __IMPORT_DESCRIPTOR_ADVAPI32 000000018002e6cc     advapi32:ADVAPI32.dll
 0002:0000c6e0       __IMPORT_DESCRIPTOR_ole32  000000018002e6e0     ole32:ole32.dll
 0002:0000c6f4       __IMPORT_DESCRIPTOR_OLEAUT32 000000018002e6f4     oleaut32:OLEAUT32.dll
 0002:0000c708       __NULL_IMPORT_DESCRIPTOR   000000018002e708     kernel32:KERNEL32.dll
 0003:00000000       ?wc@?1??GetWndClassInfo@?$CWindowImpl@VCOPOSCoinAcceptor@@VCWindow@ATL@@V?$CWinTraits@$0FGAAAAAA@$0A@@3@@ATL@@SAAEAU_ATL_WNDCLASSINFOW@3@XZ@4U43@A 0000000180030000     CoinAcceptor.obj
 0003:000000f8       ?rcDefault@CWindow@ATL@@2UtagRECT@@A 00000001800300f8     CoinAcceptor.obj
 0003:00000108       ?_tih@?$IDispatchImpl@UIOPOSCoinAcceptor@@$1?IID_IOPOSCoinAcceptor@@3U_GUID@@B$1?LIBID_OposCoinAcceptor_CCO@@3U3@B$00$0A@VCComTypeInfoHolder@ATL@@@ATL@@1VCComTypeInfoHolder@2@A 0000000180030108     CoinAcceptor.obj
 0003:00000140       ?_tih@?$IProvideClassInfo2Impl@$1?CLSID_OPOSCoinAcceptor@@3U_GUID@@B$1?DIID__IOPOSCoinAcceptorEvents@@3U2@B$1?LIBID_OposCoinAcceptor_CCO@@3U2@B$00$0A@VCComTypeInfoHolder@ATL@@@ATL@@1VCComTypeInfoHolder@2@A 0000000180030140     CoinAcceptor.obj
 0003:00000178       ?vszContents@?6??Save@?$IPersistStorageImpl@VCOPOSCoinAcceptor@@@ATL@@UEAAJPEAUIStorage@@H@Z@4PEB_WEB 0000000180030178     CoinAcceptor.obj
 0003:00000180       ?s_Claim@?7??GetIDsOfNames@CComTypeInfoHolder@ATL@@QEAAJAEBU_GUID@@PEAPEA_WIKPEAJ@Z@4PA_WA 0000000180030180     CoinAcceptor.obj
 0003:00000198       ?s_Release@?7??GetIDsOfNames@CComTypeInfoHolder@ATL@@QEAAJAEBU_GUID@@PEAPEA_WIKPEAJ@Z@4PA_WA 0000000180030198     CoinAcceptor.obj
 0003:00000250       ?g_WindowName@@3PA_WA      0000000180030250     CoinAcceptorImpl.obj
 0003:00000278       ?g_ControlDescription@@3PADA 0000000180030278     CoinAcceptorImpl.obj
 0003:000002b0       ?g_ControlVersion@@3JA     00000001800302b0     CoinAcceptorImpl.obj
 0003:00000380       __scrt_native_dllmain_reason 0000000180030380     LIBCMT:utility.obj
 0003:00000384       _Init_global_epoch         0000000180030384     LIBCMT:thread_safe_statics.obj
 0003:00000390       __security_cookie_complement 0000000180030390     LIBCMT:gs_cookie.obj
 0003:00000398       __security_cookie          0000000180030398     LIBCMT:gs_cookie.obj
 0003:000003a0       __isa_available            00000001800303a0     LIBCMT:cpu_disp.obj
 0003:000003a4       __isa_enabled              00000001800303a4     LIBCMT:cpu_disp.obj
 0003:000003a8       __memcpy_nt_iters          00000001800303a8     LIBCMT:cpu_disp.obj
 0003:000003b0       __memset_nt_iters          00000001800303b0     LIBCMT:cpu_disp.obj
 0003:000003d8       __abort_behavior           00000001800303d8     libucrt:abort.obj
 0003:000003f0       _iob                       00000001800303f0     libucrt:_file.obj
 0003:00000500       __acrt_initial_locale_data 0000000180030500     libucrt:nlsdata.obj
 0003:00000658       __acrt_initial_locale_pointers 0000000180030658     libucrt:nlsdata.obj
 0003:00000668       __acrt_wide_c_locale_string 0000000180030668     libucrt:nlsdata.obj
 0003:00000670       __acrt_initial_multibyte_data 0000000180030670     libucrt:mbctype.obj
 0003:00000bb0       _pwctype                   0000000180030bb0     libucrt:ctype.obj
 0003:00000bb8       __globallocalestatus       0000000180030bb8     libucrt:glstatus.obj
 0003:00000bc0       __acrt_lconv_c             0000000180030bc0     libucrt:localeconv.obj
 0003:00000c58       __acrt_lconv_static_decimal 0000000180030c58     libucrt:localeconv.obj
 0003:00000c5c       __acrt_lconv_static_W_decimal 0000000180030c5c     libucrt:localeconv.obj
 0003:00000c60       _lookuptrailbytes          0000000180030c60     libucrt:read.obj
 0003:00000d74       _fltused                   0000000180030d74     LIBCMT:fltused.obj
 0003:00000d78       ??_R0?AVbad_alloc@std@@@8  0000000180030d78     LIBCMT:throw_bad_alloc.obj
 0003:00000da0       ??_R0?AVexception@std@@@8  0000000180030da0     LIBCMT:throw_bad_alloc.obj
 0003:00000dc8       ??_R0?AVbad_array_new_length@std@@@8 0000000180030dc8     LIBCMT:throw_bad_alloc.obj
 0003:00000df8       ??_R0?AVtype_info@@@8      0000000180030df8     LIBCMT:std_type_info_static.obj
 0003:00000e18       ??_R0?AVbad_exception@std@@@8 0000000180030e18     libvcruntime:frame.obj
 0003:00000e40       ?_pPerfRegFunc@ATL@@3P6AJPEAUHINSTANCE__@@@ZEA 0000000180030e40     OposVariant.obj
 0003:00000e48       ?_pPerfUnRegFunc@ATL@@3P6AJXZEA 0000000180030e48     OposVariant.obj
 0003:00000e50       ?_AtlRegisterPerUser@ATL@@3_NA 0000000180030e50     OposVariant.obj
 0003:00000e58       ?_pAtlModule@ATL@@3PEAVCAtlModule@1@EA 0000000180030e58     OposVariant.obj
 0003:00000e60       ?_pModule@ATL@@3PEAVCComModule@1@EA 0000000180030e60     OposVariant.obj
 0003:00000e68       ?m_bInitFailed@CAtlBaseModule@ATL@@2_NA 0000000180030e68     OposVariant.obj
 0003:00000e70       ?_AtlComModule@ATL@@3VCAtlComModule@1@A 0000000180030e70     OposVariant.obj
 0003:00000ec0       ?_AtlWinModule@ATL@@3VCAtlWinModule@1@A 0000000180030ec0     OposVariant.obj
 0003:00000f08       ?m_libid@CAtlModule@ATL@@2U_GUID@@A 0000000180030f08     CoinAcceptor.obj
 0003:00000f18       ?_OptionsStorage@?1??__local_stdio_printf_options@@9@4_KA 0000000180030f18     CoinAcceptor.obj
 0003:00000f20       ?_entries@?1??GetConnMap@COPOSCoinAcceptor@@SAPEBU_ATL_CONNMAP_ENTRY@ATL@@PEAH@Z@4QBU34@B 0000000180030f20     CoinAcceptor.obj
 0003:00000f38       ?$TSS0@?1??GetConnMap@COPOSCoinAcceptor@@SAPEBU_ATL_CONNMAP_ENTRY@ATL@@PEAH@Z@4HA 0000000180030f38     CoinAcceptor.obj
 0003:00000f40       ?pfnRegDeleteKeyEx@?1??DeleteSubKey@CRegKey@ATL@@QEAAJPEB_W@Z@4P6AJPEAUHKEY__@@0KK@ZEA 0000000180030f40     CoinAcceptor.obj
 0003:00000f48       ?bInitialized@?1??DeleteSubKey@CRegKey@ATL@@QEAAJPEB_W@Z@4_NA 0000000180030f48     CoinAcceptor.obj
 0003:00000f50       ?_Module@@3VCComModule@ATL@@A 0000000180030f50     CoinAcceptor.obj
 0003:00000fa0       ?pConnMap@?$IConnectionPointContainerImpl@VCOPOSCoinAcceptor@@@ATL@@0PEBU_ATL_CONNMAP_ENTRY@2@EB 0000000180030fa0     CoinAcceptor.obj
 0003:00000fa8       ?s_nInstances@COPOSCoinAcceptor@@1HA 0000000180030fa8     CoinAcceptorImpl.obj
 0003:00000fb0       __scrt_current_native_startup_state 0000000180030fb0     LIBCMT:utility.obj
 0003:00000fb8       __scrt_native_startup_lock 0000000180030fb8     LIBCMT:utility.obj
 0003:000015b0       _tls_index                 00000001800315b0     LIBCMT:tlssup.obj
 0003:000015b8       __favor                    00000001800315b8     LIBCMT:cpu_disp.obj
 0003:000015bc       __scrt_debugger_hook_flag  00000001800315bc     LIBCMT:utility_desktop.obj
 0003:000015c0       ?__type_info_root_node@@3U__type_info_node@@A 00000001800315c0     LIBCMT:tncleanup.obj
 0003:000015d0       ?_OptionsStorage@?1??__local_stdio_scanf_options@@9@4_KA 00000001800315d0     LIBCMT:default_local_stdio_options.obj
 0003:000015e0       ?_AtlBaseModule@ATL@@3VCAtlBaseModule@1@A 00000001800315e0     atls:atlbase.obj
 0003:00001640       ?__AtlThunkPool@@3PEAT_SLIST_HEADER@@EA 0000000180031640     atls:atlthunk.obj
 0003:0000166c       __@@_PchSym_@00@UztvmgUPdlipUDUhUrmgvinvwrzgvUexgllohUzgohOmzgrevkilqPBACIAJCBDBUlyqiUznwGEUhgwzucOlyq@4B2008FD98C1DD4 000000018003166c     atls:stdafx.obj
 0003:00001670       __pPurecall                0000000180031670     libvcruntime:purevirt_data.obj
 0003:00001730       ?__WinRTOutOfMemoryExceptionCallback@@3P6APEAXXZEA 0000000180031730     libvcruntime:ehhelpers.obj
 0003:00001738       ?pArgList@UnDecorator@@0PEAVReplicator@@EA 0000000180031738     libvcruntime:undname.obj
 0003:00001740       ?pZNameList@UnDecorator@@0PEAVReplicator@@EA 0000000180031740     libvcruntime:undname.obj
 0003:00001748       ?pTemplateArgList@UnDecorator@@0PEAVReplicator@@EA 0000000180031748     libvcruntime:undname.obj
 0003:00001750       ?gName@UnDecorator@@0PEBDEB 0000000180031750     libvcruntime:undname.obj
 0003:00001758       ?name@UnDecorator@@0PEBDEB 0000000180031758     libvcruntime:undname.obj
 0003:00001760       ?disableFlags@UnDecorator@@0KA 0000000180031760     libvcruntime:undname.obj
 0003:00001764       ?fExplicitTemplateParams@UnDecorator@@0_NA 0000000180031764     libvcruntime:undname.obj
 0003:00001765       ?fGetTemplateArgumentList@UnDecorator@@0_NA 0000000180031765     libvcruntime:undname.obj
 0003:00001768       ?m_pGetParameter@UnDecorator@@0P6APEADJ@ZEA 0000000180031768     libvcruntime:undname.obj
 0003:00001770       ?m_CHPENameOffset@UnDecorator@@0KA 0000000180031770     libvcruntime:undname.obj
 0003:00001774       ?m_recursionLevel@UnDecorator@@0KA 0000000180031774     libvcruntime:undname.obj
 0003:000017f8       ?c_exit_complete@?1???R<lambda_6e4b09c48022b2350581041d5f6b0c4c>@@QEBA@XZ@4_NA 00000001800317f8     libucrt:exit.obj
 0003:00001908       _environ_table             0000000180031908     libucrt:environment_initialization.obj
 0003:00001910       _wenviron_table            0000000180031910     libucrt:environment_initialization.obj
 0003:00001918       __dcrt_initial_wide_environment 0000000180031918     libucrt:environment_initialization.obj
 0003:00001920       __dcrt_initial_narrow_environment 0000000180031920     libucrt:environment_initialization.obj
 0003:00001928       __acrt_atexit_table        0000000180031928     libucrt:onexit.obj
 0003:00001940       __acrt_at_quick_exit_table 0000000180031940     libucrt:onexit.obj
 0003:00001b18       _nstream                   0000000180031b18     libucrt:_file.obj
 0003:00001b20       __piob                     0000000180031b20     libucrt:_file.obj
 0003:00001b30       __acrt_stdout_buffer       0000000180031b30     libucrt:_sftbuf.obj
 0003:00001b38       __acrt_stderr_buffer       0000000180031b38     libucrt:_sftbuf.obj
 0003:00001b40       __acrt_locale_changed_data 0000000180031b40     libucrt:wsetlocale.obj
 0003:00001b48       __acrt_current_locale_data 0000000180031b48     libucrt:nlsdata.obj
 0003:00001b50       __pioinfo                  0000000180031b50     libucrt:ioinit.obj
 0003:00001f50       _nhandle                   0000000180031f50     libucrt:ioinit.obj
 0003:00002198       _mbctype                   0000000180032198     libucrt:mbctype.obj
 0003:000021a0       _mbcasemap                 00000001800321a0     libucrt:mbctype.obj
 0003:000021a8       __acrt_current_multibyte_data 00000001800321a8     libucrt:mbctype.obj
 0003:000021b8       _pgmptr                    00000001800321b8     libucrt:argv_data.obj
 0003:000021c0       __argc                     00000001800321c0     libucrt:argv_data.obj
 0003:000021c8       __argv                     00000001800321c8     libucrt:argv_data.obj
 0003:000021d0       __wargv                    00000001800321d0     libucrt:argv_data.obj
 0003:000021d8       _acmdln                    00000001800321d8     libucrt:argv_data.obj
 0003:000021e0       _wcmdln                    00000001800321e0     libucrt:argv_data.obj
 0003:000021e8       __acrt_heap                00000001800321e8     libucrt:heap_handle.obj
 0003:0000221c       __acrt_lconv_static_null   000000018003221c     libucrt:localeconv.obj
 0003:00002220       __acrt_lconv_static_W_null 0000000180032220     libucrt:localeconv.obj
 0003:00002234       __fma3_is_available        0000000180032234     libucrt:fma3_available.obj
 0003:00002238       __use_fma3_lib             0000000180032238     libucrt:fma3_available.obj
 0003:00002240       __dyn_tls_init_callback    0000000180032240     <common>
 0003:00002248       __scrt_ucrt_dll_is_in_use  0000000180032248     <common>

 entry point at        0001:0000ed04

 Static symbols

 0000:fffc4000       .debug$S                   0000000180000000     kernel32:KERNEL32.dll
 0000:fffc4000       .debug$S                   0000000180000000     gdi32:GDI32.dll
 0000:fffc4000       .debug$S                   0000000180000000     gdi32:GDI32.dll
 0000:fffc4000       .debug$S                   0000000180000000     gdi32:GDI32.dll
 0000:fffc4000       .debug$S                   0000000180000000     gdi32:GDI32.dll
 0000:fffc4000       .debug$S                   0000000180000000     gdi32:GDI32.dll
 0000:fffc4000       .debug$S                   0000000180000000     gdi32:GDI32.dll
 0000:fffc4000       .debug$S                   0000000180000000     kernel32:KERNEL32.dll
 0000:fffc4000       .debug$S                   0000000180000000     user32:USER32.dll
 0000:fffc4000       .debug$S                   0000000180000000     ole32:ole32.dll
 0000:fffc4000       .debug$S                   0000000180000000     kernel32:KERNEL32.dll
 0000:fffc4000       .debug$S                   0000000180000000     kernel32:KERNEL32.dll
 0000:fffc4000       .debug$S                   0000000180000000     user32:USER32.dll
 0000:fffc4000       .debug$S                   0000000180000000     kernel32:KERNEL32.dll
 0000:fffc4000       .debug$S                   0000000180000000     kernel32:KERNEL32.dll
 0000:fffc4000       .debug$S                   0000000180000000     OPOSCoinAcceptor.exp
 0000:fffc4000       .debug$S                   0000000180000000     kernel32:KERNEL32.dll
 0000:fffc4000       .debug$S                   0000000180000000     kernel32:KERNEL32.dll
 0000:fffc4000       .debug$S                   0000000180000000     gdi32:GDI32.dll
 0000:fffc4000       .debug$S                   0000000180000000     kernel32:KERNEL32.dll
 0000:fffc4000       .debug$S                   0000000180000000     gdi32:GDI32.dll
 0000:fffc4000       .debug$S                   0000000180000000     user32:USER32.dll
 0000:fffc4000       .debug$S                   0000000180000000     kernel32:KERNEL32.dll
 0000:fffc4000       .debug$S                   0000000180000000     kernel32:KERNEL32.dll
 0000:fffc4000       .debug$S                   0000000180000000     kernel32:KERNEL32.dll
 0000:fffc4000       .debug$S                   0000000180000000     kernel32:KERNEL32.dll
 0000:fffc4000       .debug$S                   0000000180000000     kernel32:KERNEL32.dll
 0000:fffc4000       .debug$S                   0000000180000000     kernel32:KERNEL32.dll
 0000:fffc4000       .debug$S                   0000000180000000     kernel32:KERNEL32.dll
 0000:fffc4000       .debug$S                   0000000180000000     kernel32:KERNEL32.dll
 0000:fffc4000       .debug$S                   0000000180000000     kernel32:KERNEL32.dll
 0000:fffc4000       .debug$S                   0000000180000000     kernel32:KERNEL32.dll
 0000:fffc4000       .debug$S                   0000000180000000     kernel32:KERNEL32.dll
 0000:fffc4000       .debug$S                   0000000180000000     kernel32:KERNEL32.dll
 0000:fffc4000       .debug$S                   0000000180000000     kernel32:KERNEL32.dll
 0000:fffc4000       .debug$S                   0000000180000000     kernel32:KERNEL32.dll
 0000:fffc4000       .debug$S                   0000000180000000     kernel32:KERNEL32.dll
 0000:fffc4000       .debug$S                   0000000180000000     kernel32:KERNEL32.dll
 0000:fffc4000       .debug$S                   0000000180000000     kernel32:KERNEL32.dll
 0000:fffc4000       .debug$S                   0000000180000000     kernel32:KERNEL32.dll
 0000:fffc4000       .debug$S                   0000000180000000     kernel32:KERNEL32.dll
 0000:fffc4000       .debug$S                   0000000180000000     kernel32:KERNEL32.dll
 0000:fffc4000       .debug$S                   0000000180000000     kernel32:KERNEL32.dll
 0000:fffc4000       .debug$S                   0000000180000000     kernel32:KERNEL32.dll
 0000:fffc4000       .debug$S                   0000000180000000     kernel32:KERNEL32.dll
 0000:fffc4000       .debug$S                   0000000180000000     kernel32:KERNEL32.dll
 0000:fffc4000       .debug$S                   0000000180000000     kernel32:KERNEL32.dll
 0000:fffc4000       .debug$S                   0000000180000000     kernel32:KERNEL32.dll
 0000:fffc4000       .debug$S                   0000000180000000     kernel32:KERNEL32.dll
 0000:fffc4000       .debug$S                   0000000180000000     kernel32:KERNEL32.dll
 0000:fffc4000       .debug$S                   0000000180000000     kernel32:KERNEL32.dll
 0000:fffc4000       .debug$S                   0000000180000000     kernel32:KERNEL32.dll
 0000:fffc4000       .debug$S                   0000000180000000     kernel32:KERNEL32.dll
 0000:fffc4000       .debug$S                   0000000180000000     kernel32:KERNEL32.dll
 0000:fffc4000       .debug$S                   0000000180000000     kernel32:KERNEL32.dll
 0000:fffc4000       .debug$S                   0000000180000000     kernel32:KERNEL32.dll
 0000:fffc4000       .debug$S                   0000000180000000     kernel32:KERNEL32.dll
 0000:fffc4000       .debug$S                   0000000180000000     kernel32:KERNEL32.dll
 0000:fffc4000       .debug$S                   0000000180000000     kernel32:KERNEL32.dll
 0000:fffc4000       .debug$S                   0000000180000000     kernel32:KERNEL32.dll
 0000:fffc4000       .debug$S                   0000000180000000     kernel32:KERNEL32.dll
 0000:fffc4000       .debug$S                   0000000180000000     kernel32:KERNEL32.dll
 0000:fffc4000       .debug$S                   0000000180000000     kernel32:KERNEL32.dll
 0000:fffc4000       .debug$S                   0000000180000000     kernel32:KERNEL32.dll
 0000:fffc4000       .debug$S                   0000000180000000     kernel32:KERNEL32.dll
 0000:fffc4000       .debug$S                   0000000180000000     kernel32:KERNEL32.dll
 0000:fffc4000       .debug$S                   0000000180000000     kernel32:KERNEL32.dll
 0000:fffc4000       .debug$S                   0000000180000000     kernel32:KERNEL32.dll
 0000:fffc4000       .debug$S                   0000000180000000     kernel32:KERNEL32.dll
 0000:fffc4000       .debug$S                   0000000180000000     kernel32:KERNEL32.dll
 0000:fffc4000       .debug$S                   0000000180000000     kernel32:KERNEL32.dll
 0000:fffc4000       .debug$S                   0000000180000000     kernel32:KERNEL32.dll
 0000:fffc4000       .debug$S                   0000000180000000     kernel32:KERNEL32.dll
 0000:fffc4000       .debug$S                   0000000180000000     kernel32:KERNEL32.dll
 0000:fffc4000       .debug$S                   0000000180000000     kernel32:KERNEL32.dll
 0000:fffc4000       .debug$S                   0000000180000000     kernel32:KERNEL32.dll
 0000:fffc4000       .debug$S                   0000000180000000     kernel32:KERNEL32.dll
 0000:fffc4000       .debug$S                   0000000180000000     kernel32:KERNEL32.dll
 0000:fffc4000       .debug$S                   0000000180000000     kernel32:KERNEL32.dll
 0000:fffc4000       .debug$S                   0000000180000000     kernel32:KERNEL32.dll
 0000:fffc4000       .debug$S                   0000000180000000     kernel32:KERNEL32.dll
 0000:fffc4000       .debug$S                   0000000180000000     kernel32:KERNEL32.dll
 0000:fffc4000       .debug$S                   0000000180000000     kernel32:KERNEL32.dll
 0000:fffc4000       .debug$S                   0000000180000000     kernel32:KERNEL32.dll
 0000:fffc4000       .debug$S                   0000000180000000     kernel32:KERNEL32.dll
 0000:fffc4000       .debug$S                   0000000180000000     kernel32:KERNEL32.dll
 0000:fffc4000       .debug$S                   0000000180000000     kernel32:KERNEL32.dll
 0000:fffc4000       .debug$S                   0000000180000000     kernel32:KERNEL32.dll
 0000:fffc4000       .debug$S                   0000000180000000     kernel32:KERNEL32.dll
 0000:fffc4000       .debug$S                   0000000180000000     kernel32:KERNEL32.dll
 0000:fffc4000       .debug$S                   0000000180000000     oleaut32:OLEAUT32.dll
 0000:fffc4000       .debug$S                   0000000180000000     kernel32:KERNEL32.dll
 0000:fffc4000       .debug$S                   0000000180000000     kernel32:KERNEL32.dll
 0000:fffc4000       .debug$S                   0000000180000000     kernel32:KERNEL32.dll
 0000:fffc4000       .debug$S                   0000000180000000     kernel32:KERNEL32.dll
 0000:fffc4000       .debug$S                   0000000180000000     kernel32:KERNEL32.dll
 0000:fffc4000       .debug$S                   0000000180000000     kernel32:KERNEL32.dll
 0000:fffc4000       .debug$S                   0000000180000000     kernel32:KERNEL32.dll
 0000:fffc4000       .debug$S                   0000000180000000     gdi32:GDI32.dll
 0000:fffc4000       .debug$S                   0000000180000000     kernel32:KERNEL32.dll
 0000:fffc4000       .debug$S                   0000000180000000     gdi32:GDI32.dll
 0000:fffc4000       .debug$S                   0000000180000000     kernel32:KERNEL32.dll
 0000:fffc4000       .debug$S                   0000000180000000     gdi32:GDI32.dll
 0000:fffc4000       .debug$S                   0000000180000000     kernel32:KERNEL32.dll
 0000:fffc4000       .debug$S                   0000000180000000     gdi32:GDI32.dll
 0000:fffc4000       .debug$S                   0000000180000000     kernel32:KERNEL32.dll
 0000:fffc4000       .debug$S                   0000000180000000     gdi32:GDI32.dll
 0000:fffc4000       .debug$S                   0000000180000000     user32:USER32.dll
 0000:fffc4000       .debug$S                   0000000180000000     oleaut32:OLEAUT32.dll
 0000:fffc4000       .debug$S                   0000000180000000     user32:USER32.dll
 0000:fffc4000       .debug$S                   0000000180000000     gdi32:GDI32.dll
 0000:fffc4000       .debug$S                   0000000180000000     oleaut32:OLEAUT32.dll
 0000:fffc4000       .debug$S                   0000000180000000     gdi32:GDI32.dll
 0000:fffc4000       .debug$S                   0000000180000000     kernel32:KERNEL32.dll
 0000:fffc4000       .debug$S                   0000000180000000     gdi32:GDI32.dll
 0000:fffc4000       .debug$S                   0000000180000000     kernel32:KERNEL32.dll
 0000:fffc4000       .debug$S                   0000000180000000     kernel32:KERNEL32.dll
 0000:fffc4000       .debug$S                   0000000180000000     user32:USER32.dll
 0000:fffc4000       .debug$S                   0000000180000000     kernel32:KERNEL32.dll
 0000:fffc4000       .debug$S                   0000000180000000     kernel32:KERNEL32.dll
 0000:fffc4000       .debug$S                   0000000180000000     gdi32:GDI32.dll
 0000:fffc4000       .debug$S                   0000000180000000     kernel32:KERNEL32.dll
 0000:fffc4000       .debug$S                   0000000180000000     gdi32:GDI32.dll
 0000:fffc4000       .debug$S                   0000000180000000     gdi32:GDI32.dll
 0000:fffc4000       .debug$S                   0000000180000000     ole32:ole32.dll
 0000:fffc4000       .debug$S                   0000000180000000     kernel32:KERNEL32.dll
 0000:fffc4000       .debug$S                   0000000180000000     kernel32:KERNEL32.dll
 0000:fffc4000       .debug$S                   0000000180000000     advapi32:ADVAPI32.dll
 0000:fffc4000       .debug$S                   0000000180000000     kernel32:KERNEL32.dll
 0000:fffc4000       .debug$S                   0000000180000000     advapi32:ADVAPI32.dll
 0000:fffc4000       .debug$S                   0000000180000000     kernel32:KERNEL32.dll
 0000:fffc4000       .debug$S                   0000000180000000     advapi32:ADVAPI32.dll
 0000:fffc4000       .debug$S                   0000000180000000     kernel32:KERNEL32.dll
 0000:fffc4000       .debug$S                   0000000180000000     advapi32:ADVAPI32.dll
 0000:fffc4000       .debug$S                   0000000180000000     ole32:ole32.dll
 0000:fffc4000       .debug$S                   0000000180000000     ole32:ole32.dll
 0000:fffc4000       .debug$S                   0000000180000000     advapi32:ADVAPI32.dll
 0000:fffc4000       .debug$S                   0000000180000000     kernel32:KERNEL32.dll
 0000:fffc4000       .debug$S                   0000000180000000     advapi32:ADVAPI32.dll
 0000:fffc4000       .debug$S                   0000000180000000     kernel32:KERNEL32.dll
 0000:fffc4000       .debug$S                   0000000180000000     ole32:ole32.dll
 0000:fffc4000       .debug$S                   0000000180000000     advapi32:ADVAPI32.dll
 0000:fffc4000       .debug$S                   0000000180000000     advapi32:ADVAPI32.dll
 0000:fffc4000       .debug$S                   0000000180000000     ole32:ole32.dll
 0000:fffc4000       .debug$S                   0000000180000000     advapi32:ADVAPI32.dll
 0000:fffc4000       .debug$S                   0000000180000000     ole32:ole32.dll
 0000:fffc4000       .debug$S                   0000000180000000     ole32:ole32.dll
 0000:fffc4000       .debug$S                   0000000180000000     ole32:ole32.dll
 0000:fffc4000       .debug$S                   0000000180000000     ole32:ole32.dll
 0000:fffc4000       .debug$S                   0000000180000000     ole32:ole32.dll
 0000:fffc4000       .debug$S                   0000000180000000     ole32:ole32.dll
 0000:fffc4000       .debug$S                   0000000180000000     ole32:ole32.dll
 0000:fffc4000       .debug$S                   0000000180000000     ole32:ole32.dll
 0000:fffc4000       .debug$S                   0000000180000000     kernel32:KERNEL32.dll
 0000:fffc4000       .debug$S                   0000000180000000     oleaut32:OLEAUT32.dll
 0000:fffc4000       .debug$S                   0000000180000000     user32:USER32.dll
 0000:fffc4000       .debug$S                   0000000180000000     oleaut32:OLEAUT32.dll
 0000:fffc4000       .debug$S                   0000000180000000     user32:USER32.dll
 0000:fffc4000       .debug$S                   0000000180000000     oleaut32:OLEAUT32.dll
 0000:fffc4000       .debug$S                   0000000180000000     user32:USER32.dll
 0000:fffc4000       .debug$S                   0000000180000000     user32:USER32.dll
 0000:fffc4000       .debug$S                   0000000180000000     oleaut32:OLEAUT32.dll
 0000:fffc4000       .debug$S                   0000000180000000     user32:USER32.dll
 0000:fffc4000       .debug$S                   0000000180000000     oleaut32:OLEAUT32.dll
 0000:fffc4000       .debug$S                   0000000180000000     user32:USER32.dll
 0000:fffc4000       .debug$S                   0000000180000000     oleaut32:OLEAUT32.dll
 0000:fffc4000       .debug$S                   0000000180000000     user32:USER32.dll
 0000:fffc4000       .debug$S                   0000000180000000     oleaut32:OLEAUT32.dll
 0000:fffc4000       .debug$S                   0000000180000000     user32:USER32.dll
 0000:fffc4000       .debug$S                   0000000180000000     oleaut32:OLEAUT32.dll
 0000:fffc4000       .debug$S                   0000000180000000     user32:USER32.dll
 0000:fffc4000       .debug$S                   0000000180000000     oleaut32:OLEAUT32.dll
 0000:fffc4000       .debug$S                   0000000180000000     user32:USER32.dll
 0000:fffc4000       .debug$S                   0000000180000000     oleaut32:OLEAUT32.dll
 0000:fffc4000       .debug$S                   0000000180000000     user32:USER32.dll
 0000:fffc4000       .debug$S                   0000000180000000     oleaut32:OLEAUT32.dll
 0000:fffc4000       .debug$S                   0000000180000000     user32:USER32.dll
 0000:fffc4000       .debug$S                   0000000180000000     oleaut32:OLEAUT32.dll
 0000:fffc4000       .debug$S                   0000000180000000     user32:USER32.dll
 0000:fffc4000       .debug$S                   0000000180000000     oleaut32:OLEAUT32.dll
 0000:fffc4000       .debug$S                   0000000180000000     user32:USER32.dll
 0000:fffc4000       .debug$S                   0000000180000000     user32:USER32.dll
 0000:fffc4000       .debug$S                   0000000180000000     user32:USER32.dll
 0000:fffc4000       .debug$S                   0000000180000000     user32:USER32.dll
 0000:fffc4000       .debug$S                   0000000180000000     user32:USER32.dll
 0000:fffc4000       .debug$S                   0000000180000000     user32:USER32.dll
 0000:fffc4000       .debug$S                   0000000180000000     user32:USER32.dll
 0000:fffc4000       .debug$S                   0000000180000000     user32:USER32.dll
 0000:fffc4000       .debug$S                   0000000180000000     user32:USER32.dll
 0000:fffc4000       .debug$S                   0000000180000000     user32:USER32.dll
 0000:fffc4000       .debug$S                   0000000180000000     user32:USER32.dll
 0000:fffc4000       .debug$S                   0000000180000000     user32:USER32.dll
 0000:fffc4000       .debug$S                   0000000180000000     user32:USER32.dll
 0000:fffc4000       .debug$S                   0000000180000000     user32:USER32.dll
 0000:fffc4000       .debug$S                   0000000180000000     user32:USER32.dll
 0000:fffc4000       .debug$S                   0000000180000000     user32:USER32.dll
 0000:fffc4000       .debug$S                   0000000180000000     kernel32:KERNEL32.dll
 0000:fffc4000       .debug$S                   0000000180000000     kernel32:KERNEL32.dll
 0000:fffc4000       .debug$S                   0000000180000000     kernel32:KERNEL32.dll
 0000:fffc4000       .debug$S                   0000000180000000     kernel32:KERNEL32.dll
 0000:fffc4000       .debug$S                   0000000180000000     kernel32:KERNEL32.dll
 0000:fffc4000       .debug$S                   0000000180000000     kernel32:KERNEL32.dll
 0000:fffc4000       .debug$S                   0000000180000000     kernel32:KERNEL32.dll
 0000:fffc4000       .debug$S                   0000000180000000     kernel32:KERNEL32.dll
 0000:fffc4000       .debug$S                   0000000180000000     kernel32:KERNEL32.dll
 0001:00000000       ??__E_AtlComModule@ATL@@YAXXZ 0000000180001000 f   OposVariant.obj
 0001:00000020       ??__E_AtlWinModule@ATL@@YAXXZ 0000000180001020 f   OposVariant.obj
 0001:00000040       ??__E?pConnMap@?$IConnectionPointContainerImpl@VCOPOSCoinAcceptor@@@ATL@@0PEBU_ATL_CONNMAP_ENTRY@2@EB@@YAXXZ 0000000180001040 f   CoinAcceptor.obj
 0001:00000058       ??__E_Module@@YAXXZ        0000000180001058 f   CoinAcceptor.obj
 0001:00000094       ??__E_AtlBaseModule@ATL@@YAXXZ 0000000180001094 f   atls:atlbase.obj
 0001:0000b8c4       memcpy_s                   000000018000c8c4 f   libucrt:cfout.obj
 0001:0000b8c4       memcpy_s                   000000018000c8c4 f   CoinAcceptor.obj
 0001:0000e310       ?__scrt_initialize_thread_safe_statics@@YAHXZ 000000018000f310 f   LIBCMT:thread_safe_statics.obj
 0001:0000e3e0       ?__scrt_uninitialize_thread_safe_statics@@YAXXZ 000000018000f3e0 f   LIBCMT:thread_safe_statics.obj
 0001:0000e730       capture_current_context    000000018000f730 f   LIBCMT:gs_report.obj
 0001:0000e7a0       capture_previous_context   000000018000f7a0 f   LIBCMT:gs_report.obj
 0001:0000e940       $$000000                   000000018000f940     LIBCMT:chkstk.obj
 0001:0000e9b0       $$000000                   000000018000f9b0     LIBCMT:amdsecgs.obj
 0001:0000e9e4       ?dllmain_crt_dispatch@@YAHQEAUHINSTANCE__@@KQEAX@Z 000000018000f9e4 f   LIBCMT:dll_dllmain.obj
 0001:0000ea34       ?dllmain_crt_process_attach@@YAHQEAUHINSTANCE__@@QEAX@Z 000000018000fa34 f   LIBCMT:dll_dllmain.obj
 0001:0000eb4c       ?dllmain_crt_process_detach@@YAH_N@Z 000000018000fb4c f   LIBCMT:dll_dllmain.obj
 0001:0000ebd0       ?dllmain_dispatch@@YAHQEAUHINSTANCE__@@KQEAX@Z 000000018000fbd0 f   LIBCMT:dll_dllmain.obj
 0001:0000f468       ??$GetProcAddressAll@P6APEAUAtlThunkData_t@@XZ@@YAP6APEAUAtlThunkData_t@@XZPEAP6APEAU0@XZ@Z 0000000180010468 f   atls:atlthunk.obj
 0001:0000f468       ??$GetProcAddressAll@P6AP6A_JPEAUHWND__@@I_K_J@ZPEAUAtlThunkData_t@@@Z@@YAP6AP6A_JPEAUHWND__@@I_K_J@ZPEAUAtlThunkData_t@@@ZPEAP6AP6A_J0I12@Z3@Z@Z 0000000180010468 f   atls:atlthunk.obj
 0001:0000f468       ??$GetProcAddressAll@P6AXPEAUAtlThunkData_t@@PEAX_K@Z@@YAP6AXPEAUAtlThunkData_t@@PEAX_K@ZPEAP6AX012@Z@Z 0000000180010468 f   atls:atlthunk.obj
 0001:0000f468       ??$GetProcAddressAll@P6AXPEAUAtlThunkData_t@@@Z@@YAP6AXPEAUAtlThunkData_t@@@ZPEAP6AX0@Z@Z 0000000180010468 f   atls:atlthunk.obj
 0001:0000f640       ?__InitializeThunkPool@@YAHXZ 0000000180010640 f   atls:atlthunk.obj
 0001:0000fad0       $$000000                   0000000180010ad0     libvcruntime:memcmp.obj
 0001:0000fbb0       $$000000                   0000000180010bb0     libvcruntime:memcpy.obj
 0001:0000ffc0       $$000000                   0000000180010fc0     libvcruntime:memset.obj
 0001:00010dd0       $$000000                   0000000180011dd0     libvcruntime:notify.obj
 0001:00011070       ??$BuildCatchObjectHelperInternal@V__FrameHandler3@@@@YAHPEAUEHExceptionRecord@@PEAXPEBU_s_HandlerType@@PEBU_s_CatchableType@@@Z 0000000180012070 f   libvcruntime:frame.obj
 0001:00011270       ??$BuildCatchObjectInternal@V__FrameHandler3@@@@YAXPEAUEHExceptionRecord@@PEAXPEBU_s_HandlerType@@PEBU_s_CatchableType@@@Z 0000000180012270 f   libvcruntime:frame.obj
 0001:00011330       ??$CatchIt@V__FrameHandler3@@@@YAXPEAUEHExceptionRecord@@PEA_KPEAU_CONTEXT@@PEAU_xDISPATCHER_CONTEXT@@PEBU_s_FuncInfo@@PEBU_s_HandlerType@@PEBU_s_CatchableType@@PEBU_s_TryBlockMapEntry@@H1EE@Z 0000000180012330 f   libvcruntime:frame.obj
 0001:00011404       ??$FindHandler@V__FrameHandler3@@@@YAXPEAUEHExceptionRecord@@PEA_KPEAU_CONTEXT@@PEAU_xDISPATCHER_CONTEXT@@PEBU_s_FuncInfo@@EH1@Z 0000000180012404 f   libvcruntime:frame.obj
 0001:000118e0       ??$FindHandlerForForeignException@V__FrameHandler3@@@@YAXPEAUEHExceptionRecord@@PEA_KPEAU_CONTEXT@@PEAU_xDISPATCHER_CONTEXT@@PEBU_s_FuncInfo@@HH1@Z 00000001800128e0 f   libvcruntime:frame.obj
 0001:000120c8       ?ExFilterRethrow@@YAHPEAU_EXCEPTION_POINTERS@@PEAUEHExceptionRecord@@PEAH@Z 00000001800130c8 f   libvcruntime:frame.obj
 0001:00012374       ?IsInExceptionSpec@@YAEPEAUEHExceptionRecord@@PEBU_s_ESTypeList@@@Z 0000000180013374 f   libvcruntime:frame.obj
 0001:00012464       ?Is_bad_exception_allowed@@YAEPEBU_s_ESTypeList@@@Z 0000000180013464 f   libvcruntime:frame.obj
 0001:00012508       ?try_get_function@@YAPEAXW4function_id@?A0x656504f9@@QEBDQEBW4module_id@2@2@Z 0000000180013508 f   libvcruntime:winapi_downlevel.obj
 0001:00012800       $$000000                   0000000180013800     libvcruntime:handlers.obj
 0001:00013018       ??$common_vsprintf@Vformat_validation_base@__crt_stdio_output@@_W@@YAH_KQEA_W0QEB_WQEAU__crt_locale_pointers@@QEAD@Z 0000000180014018 f   libucrt:output.obj
 0001:00014848       ??$?RV<lambda_d80eeec6fff315bfe5c115232f3240e3>@@AEAV<lambda_6e4b09c48022b2350581041d5f6b0c4c>@@V<lambda_2358e3775559c9db80273638284d5e45>@@@?$__crt_seh_guarded_call@X@@QEAAX$$QEAV<lambda_d80eeec6fff315bfe5c115232f3240e3>@@AEAV<lambda_6e4b09c48022b2350581041d5f6b0c4c>@@$$QEAV<lambda_2358e3775559c9db80273638284d5e45>@@@Z 0000000180015848 f   libucrt:exit.obj
 0001:00014880       ??R<lambda_6e4b09c48022b2350581041d5f6b0c4c>@@QEBA@XZ 0000000180015880 f   libucrt:exit.obj
 0001:00014944       ?atexit_exception_filter@@YAHK@Z 0000000180015944 f   libucrt:exit.obj
 0001:00014950       ?common_exit@@YAXHW4_crt_exit_cleanup_mode@@W4_crt_exit_return_mode@@@Z 0000000180015950 f   libucrt:exit.obj
 0001:00014a0c       ?exit_or_terminate_process@@YAXI@Z 0000000180015a0c f   libucrt:exit.obj
 0001:00014a58       ?try_cor_exit_process@@YAXI@Z 0000000180015a58 f   libucrt:exit.obj
 0001:00014ae0       ??$parse_command_line@D@@YAXPEADPEAPEAD0PEA_K2@Z 0000000180015ae0 f   libucrt:argv_parsing.obj
 0001:00014e8c       ??$common_initialize_environment_nolock@D@@YAHXZ 0000000180015e8c f   libucrt:environment_initialization.obj
 0001:00014ef8       ??$create_environment@D@@YAQEAPEADQEAD@Z 0000000180015ef8 f   libucrt:environment_initialization.obj
 0001:00015000       ??$free_environment@_W@@YAXQEAPEA_W@Z 0000000180016000 f   libucrt:environment_initialization.obj
 0001:00015000       ??$free_environment@D@@YAXQEAPEAD@Z 0000000180016000 f   libucrt:environment_initialization.obj
 0001:00015044       ??$uninitialize_environment_internal@D@@YAXAEAPEAPEAD@Z 0000000180016044 f   libucrt:environment_initialization.obj
 0001:00015060       ??$uninitialize_environment_internal@_W@@YAXAEAPEAPEA_W@Z 0000000180016060 f   libucrt:environment_initialization.obj
 0001:000150bc       ??$?RV<lambda_638799b9deba96c50f710eeac98168cd>@@AEAV<lambda_22ebabd17bc4fa466a2aca6d8deb888d>@@V<lambda_a6f7d7db0129f75315ebf26d50c089f1>@@@?$__crt_seh_guarded_call@H@@QEAAH$$QEAV<lambda_638799b9deba96c50f710eeac98168cd>@@AEAV<lambda_22ebabd17bc4fa466a2aca6d8deb888d>@@$$QEAV<lambda_a6f7d7db0129f75315ebf26d50c089f1>@@@Z 00000001800160bc f   libucrt:onexit.obj
 0001:000150f8       ??$?RV<lambda_7777bce6b2f8c936911f934f8298dc43>@@AEAV<lambda_f03950bc5685219e0bcd2087efbe011e>@@V<lambda_3883c3dff614d5e0c5f61bb1ac94921c>@@@?$__crt_seh_guarded_call@H@@QEAAH$$QEAV<lambda_7777bce6b2f8c936911f934f8298dc43>@@AEAV<lambda_f03950bc5685219e0bcd2087efbe011e>@@$$QEAV<lambda_3883c3dff614d5e0c5f61bb1ac94921c>@@@Z 00000001800160f8 f   libucrt:onexit.obj
 0001:00015134       ??R<lambda_22ebabd17bc4fa466a2aca6d8deb888d>@@QEBAHXZ 0000000180016134 f   libucrt:onexit.obj
 0001:000152e4       ??R<lambda_f03950bc5685219e0bcd2087efbe011e>@@QEBAHXZ 00000001800162e4 f   libucrt:onexit.obj
 0001:000154b8       initialize_global_variables 00000001800164b8 f   libucrt:initialization.obj
 0001:000154cc       initialize_c               00000001800164cc f   libucrt:initialization.obj
 0001:000154f0       initialize_global_state_isolation 00000001800164f0 f   libucrt:initialization.obj
 0001:000154f0       uninitialize_global_state_isolation 00000001800164f0 f   libucrt:initialization.obj
 0001:000154f0       report_memory_leaks        00000001800164f0 f   libucrt:initialization.obj
 0001:000154f0       uninitialize_c             00000001800164f0 f   libucrt:initialization.obj
 0001:000154f0       initialize_environment     00000001800164f0 f   libucrt:initialization.obj
 0001:000154f4       uninitialize_environment   00000001800164f4 f   libucrt:initialization.obj
 0001:00015504       initialize_pointers        0000000180016504 f   libucrt:initialization.obj
 0001:00015544       uninitialize_vcruntime     0000000180016544 f   libucrt:initialization.obj
 0001:0001554c       uninitialize_allocated_memory 000000018001654c f   libucrt:initialization.obj
 0001:0001558c       uninitialize_allocated_io_buffers 000000018001658c f   libucrt:initialization.obj
 0001:00015f00       $$000000                   0000000180016f00     libucrt:strncmp.obj
 0001:00015ffc       ??$?RV<lambda_0ae27a3a962d80f24befdcbee591983d>@@AEAV<lambda_8d0ee55de4b1038c4002e0adecdf1839>@@V<lambda_dc504788e8f1664fe9b84e20bfb512f2>@@@?$__crt_seh_guarded_call@X@@QEAAX$$QEAV<lambda_0ae27a3a962d80f24befdcbee591983d>@@AEAV<lambda_8d0ee55de4b1038c4002e0adecdf1839>@@$$QEAV<lambda_dc504788e8f1664fe9b84e20bfb512f2>@@@Z 0000000180016ffc f   libucrt:per_thread_data.obj
 0001:0001603c       ??$?RV<lambda_2d41944a1d46af3157314b8a01080d33>@@AEAV<lambda_8f455de75cd7d7f24b4096f044d8b9e6>@@V<lambda_aa500f224e6afead328df44964fe2772>@@@?$__crt_seh_guarded_call@X@@QEAAX$$QEAV<lambda_2d41944a1d46af3157314b8a01080d33>@@AEAV<lambda_8f455de75cd7d7f24b4096f044d8b9e6>@@$$QEAV<lambda_aa500f224e6afead328df44964fe2772>@@@Z 000000018001703c f   libucrt:per_thread_data.obj
 0001:0001607c       ??$?RV<lambda_aa87e3671a710a21b5dc78c0bdf72e11>@@AEAV<lambda_92619d2358a28f41a33ba319515a20b9>@@V<lambda_6992ecaafeb10aed2b74cb1fae11a551>@@@?$__crt_seh_guarded_call@X@@QEAAX$$QEAV<lambda_aa87e3671a710a21b5dc78c0bdf72e11>@@AEAV<lambda_92619d2358a28f41a33ba319515a20b9>@@$$QEAV<lambda_6992ecaafeb10aed2b74cb1fae11a551>@@@Z 000000018001707c f   libucrt:per_thread_data.obj
 0001:000160c4       ??$?RV<lambda_f2e299630e499de9f9a165e60fcd3db5>@@AEAV<lambda_2ae9d31cdba2644fcbeaf08da7c24588>@@V<lambda_40d01ff24d0e7b3814fdbdcee8eab3c7>@@@?$__crt_seh_guarded_call@X@@QEAAX$$QEAV<lambda_f2e299630e499de9f9a165e60fcd3db5>@@AEAV<lambda_2ae9d31cdba2644fcbeaf08da7c24588>@@$$QEAV<lambda_40d01ff24d0e7b3814fdbdcee8eab3c7>@@@Z 00000001800170c4 f   libucrt:per_thread_data.obj
 0001:00016124       ?construct_ptd_array@@YAXQEAU__acrt_ptd@@@Z 0000000180017124 f   libucrt:per_thread_data.obj
 0001:000161f4       ?destroy_fls@@YAXPEAX@Z    00000001800171f4 f   libucrt:per_thread_data.obj
 0001:00016214       ?destroy_ptd_array@@YAXQEAU__acrt_ptd@@@Z 0000000180017214 f   libucrt:per_thread_data.obj
 0001:0001630c       ?replace_current_thread_locale_nolock@@YAXQEAU__acrt_ptd@@QEAU__crt_locale_data@@@Z 000000018001730c f   libucrt:per_thread_data.obj
 0001:000167f0       ?try_get_function@@YAPEAXW4function_id@?A0x391cf84c@@QEBDQEBW4module_id@2@2@Z 00000001800177f0 f   libucrt:winapi_thunks.obj
 0001:000171c0       ?fp_format_a@@YAHQEBNPEAD_KQEAD2H_NIQEAU__crt_locale_pointers@@@Z 00000001800181c0 f   libucrt:cvt.obj
 0001:00017530       ?fp_format_e@@YAHQEBNQEAD_K12H_NIQEAU__crt_locale_pointers@@@Z 0000000180018530 f   libucrt:cvt.obj
 0001:0001760c       ?fp_format_e_internal@@YAHQEAD_KH_NIQEAU_strflt@@2QEAU__crt_locale_pointers@@@Z 000000018001860c f   libucrt:cvt.obj
 0001:000177e0       ?fp_format_f_internal@@YAHQEAD_KHQEAU_strflt@@_NQEAU__crt_locale_pointers@@@Z 00000001800187e0 f   libucrt:cvt.obj
 0001:00017924       ?fp_format_g@@YAHQEBNQEAD_K12H_NIQEAU__crt_locale_pointers@@@Z 0000000180018924 f   libucrt:cvt.obj
 0001:00017f30       ??$?RV<lambda_410d79af7f07d98d83a3f525b3859a53>@@AEAV<lambda_3e16ef9562a7dcce91392c22ab16ea36>@@V<lambda_38119f0e861e05405d8a144b9b982f0a>@@@?$__crt_seh_guarded_call@X@@QEAAX$$QEAV<lambda_410d79af7f07d98d83a3f525b3859a53>@@AEAV<lambda_3e16ef9562a7dcce91392c22ab16ea36>@@$$QEAV<lambda_38119f0e861e05405d8a144b9b982f0a>@@@Z 0000000180018f30 f   libucrt:wsetlocale.obj
 0001:00017fdc       ?initialize_inherited_file_handles_nolock@@YAXXZ 0000000180018fdc f   libucrt:ioinit.obj
 0001:000180cc       ?initialize_stdio_handles_nolock@@YAXXZ 00000001800190cc f   libucrt:ioinit.obj
 0001:00018348       ?<lambda_invoker_cdecl>@<lambda_a1ce4c8ae42411fd470c77163914f50e>@@CAHPEBX0@Z 0000000180019348 f   libucrt:argv_wildcards.obj
 0001:00018660       ??$common_expand_argv_wildcards@D@@YAHQEAPEADQEAPEAPEAD@Z 0000000180019660 f   libucrt:argv_wildcards.obj
 0001:0001886c       ??$copy_and_add_argument_to_buffer@D@@YAHQEBD0_KAEAV?$argument_list@D@?A0x5f5c8891@@@Z 000000018001986c f   libucrt:argv_wildcards.obj
 0001:000189f4       ??$expand_argument_wildcards@D@@YAHQEAD0AEAV?$argument_list@D@?A0x5f5c8891@@@Z 00000001800199f4 f   libucrt:argv_wildcards.obj
 0001:00018f40       ??$?RV<lambda_efdfa57d1f175319df784efa44bb7b81>@@AEAV<lambda_5f0a4c1567f8adc6734073e5d1e1b35c>@@V<lambda_2e8a7d3640ea6ccb4c2413664c2db6fd>@@@?$__crt_seh_guarded_call@X@@QEAAX$$QEAV<lambda_efdfa57d1f175319df784efa44bb7b81>@@AEAV<lambda_5f0a4c1567f8adc6734073e5d1e1b35c>@@$$QEAV<lambda_2e8a7d3640ea6ccb4c2413664c2db6fd>@@@Z 0000000180019f40 f   libucrt:mbctype.obj
 0001:000190fc       ?getSystemCP@@YAHH@Z       000000018001a0fc f   libucrt:mbctype.obj
 0001:0001917c       ?setSBCS@@YAXPEAU__crt_multibyte_data@@@Z 000000018001a17c f   libucrt:mbctype.obj
 0001:0001920c       ?setSBUpLow@@YAXPEAU__crt_multibyte_data@@@Z 000000018001a20c f   libucrt:mbctype.obj
 0001:000193f0       ?setmbcp_internal@@YAHH_NQEAU__acrt_ptd@@QEAPEAU__crt_multibyte_data@@@Z 000000018001a3f0 f   libucrt:mbctype.obj
 0001:000195b4       ?update_thread_multibyte_data_internal@@YAPEAU__crt_multibyte_data@@QEAU__acrt_ptd@@QEAPEAU1@@Z 000000018001a5b4 f   libucrt:mbctype.obj
 0001:000199a4       ?x_ismbbtype_l@@YAHPEAU__crt_locale_pointers@@IHH@Z 000000018001a9a4 f   libucrt:ismbbyte.obj
 0001:00019d34       ??$?RV<lambda_450d765d439847d4c735a33c368b5fc0>@@AEAV<lambda_44731a7d0e6d81c3e6aa82d741081786>@@V<lambda_601a2a7da3b7a96e9554ac7215c4b07c>@@@?$__crt_seh_guarded_call@P6AXH@Z@@QEAAP6AXH@Z$$QEAV<lambda_450d765d439847d4c735a33c368b5fc0>@@AEAV<lambda_44731a7d0e6d81c3e6aa82d741081786>@@$$QEAV<lambda_601a2a7da3b7a96e9554ac7215c4b07c>@@@Z 000000018001ad34 f   libucrt:signal.obj
 0001:0001a090       ??$?RV<lambda_842d9ff0dc9ef11c61343bbaebe7f885>@@AEAV<lambda_c5860995281e5c4ce005b3de8f5874ee>@@V<lambda_d90129c13df834fdcbf8d2b88dafcf2d>@@@?$__crt_seh_guarded_call@X@@QEAAX$$QEAV<lambda_842d9ff0dc9ef11c61343bbaebe7f885>@@AEAV<lambda_c5860995281e5c4ce005b3de8f5874ee>@@$$QEAV<lambda_d90129c13df834fdcbf8d2b88dafcf2d>@@@Z 000000018001b090 f   libucrt:fflush.obj
 0001:0001a12c       ??$?RV<lambda_886d6c58226a84441f68b9f2b8217b83>@@AEAV<lambda_ab61a845afdef5b7c387490eaf3616ee>@@V<lambda_f7f22ab5edc0698d5f6905b0d3f44752>@@@?$__crt_seh_guarded_call@X@@QEAAX$$QEAV<lambda_886d6c58226a84441f68b9f2b8217b83>@@AEAV<lambda_ab61a845afdef5b7c387490eaf3616ee>@@$$QEAV<lambda_f7f22ab5edc0698d5f6905b0d3f44752>@@@Z 000000018001b12c f   libucrt:fflush.obj
 0001:0001a20c       ?common_flush_all@@YAH_N@Z 000000018001b20c f   libucrt:fflush.obj
 0001:0001c4ac       ?free_crt_array_internal@@YAXQEAPEBX_K@Z 000000018001d4ac f   libucrt:inittime.obj
 0001:0001cf44       fallbackMethod             000000018001df44 f   libucrt:strpbrk.obj
 0001:0001d314       $LN78                      000000018001e314     libucrt:strpbrk.obj
 0001:0001d350       $LN77                      000000018001e350     libucrt:strpbrk.obj
 0001:0001d390       $LN76                      000000018001e390     libucrt:strpbrk.obj
 0001:0001d46c       ?__acrt_LCMapStringA_stat@@YAHPEAU__crt_locale_pointers@@PEB_WKPEBDHPEADHHH@Z 000000018001e46c f   libucrt:lcmapstringa.obj
 0001:0001d81c       ?initialize_multibyte@@YAHXZ 000000018001e81c f   libucrt:multibyte_initializer.obj
 0001:0001d834       ??$?RV<lambda_a37b2b86f63e897a80ea819b0eb08c01>@@AEAV<lambda_38ce7e780aa69e748d6df282ebc68efe>@@V<lambda_99fb1378e971ab6e7edea83e3a7a83a2>@@@?$__crt_seh_guarded_call@H@@QEAAH$$QEAV<lambda_a37b2b86f63e897a80ea819b0eb08c01>@@AEAV<lambda_38ce7e780aa69e748d6df282ebc68efe>@@$$QEAV<lambda_99fb1378e971ab6e7edea83e3a7a83a2>@@@Z 000000018001e834 f   libucrt:commit.obj
 0001:0001d954       ?write_double_translated_ansi_nolock@@YA?AUwrite_result@?A0x17268360@@HQEBDI@Z 000000018001e954 f   libucrt:write.obj
 0001:0001de24       ?write_text_ansi_nolock@@YA?AUwrite_result@?A0x17268360@@HQEBDI@Z 000000018001ee24 f   libucrt:write.obj
 0001:0001df28       ?write_text_utf16le_nolock@@YA?AUwrite_result@?A0x17268360@@HQEBDI@Z 000000018001ef28 f   libucrt:write.obj
 0001:0001e044       ?write_text_utf8_nolock@@YA?AUwrite_result@?A0x17268360@@HQEBDI@Z 000000018001f044 f   libucrt:write.obj
 0001:0001e930       $$000000                   000000018001f930     libucrt:log10.obj
 0001:0001eedc       ??$common_lseek_nolock@_J@@YA_JH_JH@Z 000000018001fedc f   libucrt:lseek.obj
 0001:0001f448       _call_matherr              0000000180020448 f   libucrt:libm_error.obj
 0001:0001f4b0       _exception_enabled         00000001800204b0 f   libucrt:libm_error.obj
 0001:0001f740       _log_special_common        0000000180020740 f   libucrt:log_special.obj
 0001:0001f7d8       ??$?RV<lambda_751a882b2c74d4b022dec766aa51a29a>@@AEAV<lambda_628dfdc04ba53c8bfc02c9951375f3f5>@@V<lambda_f6c7be5f7998530c34de24c7437d6b54>@@@?$__crt_seh_guarded_call@H@@QEAAH$$QEAV<lambda_751a882b2c74d4b022dec766aa51a29a>@@AEAV<lambda_628dfdc04ba53c8bfc02c9951375f3f5>@@$$QEAV<lambda_f6c7be5f7998530c34de24c7437d6b54>@@@Z 00000001800207d8 f   libucrt:close.obj
 0001:0001fb00       $$000000                   0000000180020b00     libucrt:fpsr.obj
 0001:000201a0       $$000000                   00000001800211a0     LIBCMT:guard_dispatch.obj
 0001:000201c0       ?filt$0@?0??_AtlVerifyStackAvailable@_ATL_SAFE_ALLOCA_IMPL@ATL@@YA_N_K@Z@4HA 00000001800211c0 f   CoinAcceptor.obj
 0001:000201e1       __scrt_is_nonwritable_in_current_image$filt$0 00000001800211e1 f   LIBCMT:utility.obj
 0001:000201f9       ?catch$0@?0???2@YAPEAX_KAEBUnothrow_t@std@@@Z@4HA 00000001800211f9 f   LIBCMT:new_scalar_nothrow.obj
 0001:00020206       __catch$??2@YAPEAX_KAEBUnothrow_t@std@@@Z$0 0000000180021206 f   LIBCMT:new_scalar_nothrow.obj
 0001:00020214       ?fin$0@?0??dllmain_crt_process_attach@@YAHQEAUHINSTANCE__@@QEAX@Z@4HA 0000000180021214 f   LIBCMT:dll_dllmain.obj
 0001:0002022b       ?fin$0@?0??dllmain_crt_process_detach@@YAH_N@Z@4HA 000000018002122b f   LIBCMT:dll_dllmain.obj
 0001:00020247       ?filt$0@?0??dllmain_dispatch@@YAHQEAUHINSTANCE__@@KQEAX@Z@4HA 0000000180021247 f   LIBCMT:dll_dllmain.obj
 0001:0002027d       ?filt$0@?0???$_CallSETranslator@V__FrameHandler3@@@@YAHPEAUEHExceptionRecord@@PEA_KPEAU_CONTEXT@@PEAU_xDISPATCHER_CONTEXT@@PEBU_s_FuncInfo@@K1@Z@4HA 000000018002127d f   libvcruntime:risctrnsctrl.obj
 0001:0002030e       __DestructExceptionObject$filt$0 000000018002130e f   libvcruntime:ehhelpers.obj
 0001:00020326       ?filt$0@?0??CxxCallCatchBlock@__FrameHandler3@@SAPEAXPEAU_EXCEPTION_RECORD@@@Z@4HA 0000000180021326 f   libvcruntime:frame.obj
 0001:0002034b       ?fin$1@?0??CxxCallCatchBlock@__FrameHandler3@@SAPEAXPEAU_EXCEPTION_RECORD@@@Z@4HA 000000018002134b f   libvcruntime:frame.obj
 0001:000203c3       ?filt$0@?0??FrameUnwindToState@__FrameHandler3@@SAXPEA_KPEAU_xDISPATCHER_CONTEXT@@PEBU_s_FuncInfo@@H@Z@4HA 00000001800213c3 f   libvcruntime:frame.obj
 0001:000203d9       ?fin$1@?0??FrameUnwindToState@__FrameHandler3@@SAXPEA_KPEAU_xDISPATCHER_CONTEXT@@PEBU_s_FuncInfo@@H@Z@4HA 00000001800213d9 f   libvcruntime:frame.obj
 0001:000203fc       ?fin$0@?0???$?RV<lambda_2d41944a1d46af3157314b8a01080d33>@@AEAV<lambda_8f455de75cd7d7f24b4096f044d8b9e6>@@V<lambda_aa500f224e6afead328df44964fe2772>@@@?$__crt_seh_guarded_call@X@@QEAAX$$QEAV<lambda_2d41944a1d46af3157314b8a01080d33>@@AEAV<lambda_8f455de75cd7d7f24b4096f044d8b9e6>@@$$QEAV<lambda_aa500f224e6afead328df44964fe2772>@@@Z@4HA 00000001800213fc f   libucrt:per_thread_data.obj
 0001:000203fc       ?fin$0@?0???$?RV<lambda_0ae27a3a962d80f24befdcbee591983d>@@AEAV<lambda_8d0ee55de4b1038c4002e0adecdf1839>@@V<lambda_dc504788e8f1664fe9b84e20bfb512f2>@@@?$__crt_seh_guarded_call@X@@QEAAX$$QEAV<lambda_0ae27a3a962d80f24befdcbee591983d>@@AEAV<lambda_8d0ee55de4b1038c4002e0adecdf1839>@@$$QEAV<lambda_dc504788e8f1664fe9b84e20bfb512f2>@@@Z@4HA 00000001800213fc f   libucrt:per_thread_data.obj
 0001:000203fc       ?fin$0@?0???$?RV<lambda_7777bce6b2f8c936911f934f8298dc43>@@AEAV<lambda_f03950bc5685219e0bcd2087efbe011e>@@V<lambda_3883c3dff614d5e0c5f61bb1ac94921c>@@@?$__crt_seh_guarded_call@H@@QEAAH$$QEAV<lambda_7777bce6b2f8c936911f934f8298dc43>@@AEAV<lambda_f03950bc5685219e0bcd2087efbe011e>@@$$QEAV<lambda_3883c3dff614d5e0c5f61bb1ac94921c>@@@Z@4HA 00000001800213fc f   libucrt:onexit.obj
 0001:000203fc       ?fin$0@?0???$?RV<lambda_450d765d439847d4c735a33c368b5fc0>@@AEAV<lambda_44731a7d0e6d81c3e6aa82d741081786>@@V<lambda_601a2a7da3b7a96e9554ac7215c4b07c>@@@?$__crt_seh_guarded_call@P6AXH@Z@@QEAAP6AXH@Z$$QEAV<lambda_450d765d439847d4c735a33c368b5fc0>@@AEAV<lambda_44731a7d0e6d81c3e6aa82d741081786>@@$$QEAV<lambda_601a2a7da3b7a96e9554ac7215c4b07c>@@@Z@4HA 00000001800213fc f   libucrt:signal.obj
 0001:000203fc       ?fin$0@?0???$?RV<lambda_638799b9deba96c50f710eeac98168cd>@@AEAV<lambda_22ebabd17bc4fa466a2aca6d8deb888d>@@V<lambda_a6f7d7db0129f75315ebf26d50c089f1>@@@?$__crt_seh_guarded_call@H@@QEAAH$$QEAV<lambda_638799b9deba96c50f710eeac98168cd>@@AEAV<lambda_22ebabd17bc4fa466a2aca6d8deb888d>@@$$QEAV<lambda_a6f7d7db0129f75315ebf26d50c089f1>@@@Z@4HA 00000001800213fc f   libucrt:onexit.obj
 0001:000203fc       ?fin$0@?0???$?RV<lambda_aa87e3671a710a21b5dc78c0bdf72e11>@@AEAV<lambda_92619d2358a28f41a33ba319515a20b9>@@V<lambda_6992ecaafeb10aed2b74cb1fae11a551>@@@?$__crt_seh_guarded_call@X@@QEAAX$$QEAV<lambda_aa87e3671a710a21b5dc78c0bdf72e11>@@AEAV<lambda_92619d2358a28f41a33ba319515a20b9>@@$$QEAV<lambda_6992ecaafeb10aed2b74cb1fae11a551>@@@Z@4HA 00000001800213fc f   libucrt:per_thread_data.obj
 0001:000203fc       ?fin$0@?0???$?RV<lambda_f2e299630e499de9f9a165e60fcd3db5>@@AEAV<lambda_2ae9d31cdba2644fcbeaf08da7c24588>@@V<lambda_40d01ff24d0e7b3814fdbdcee8eab3c7>@@@?$__crt_seh_guarded_call@X@@QEAAX$$QEAV<lambda_f2e299630e499de9f9a165e60fcd3db5>@@AEAV<lambda_2ae9d31cdba2644fcbeaf08da7c24588>@@$$QEAV<lambda_40d01ff24d0e7b3814fdbdcee8eab3c7>@@@Z@4HA 00000001800213fc f   libucrt:per_thread_data.obj
 0001:000203fc       ?fin$0@?0???$?RV<lambda_d80eeec6fff315bfe5c115232f3240e3>@@AEAV<lambda_6e4b09c48022b2350581041d5f6b0c4c>@@V<lambda_2358e3775559c9db80273638284d5e45>@@@?$__crt_seh_guarded_call@X@@QEAAX$$QEAV<lambda_d80eeec6fff315bfe5c115232f3240e3>@@AEAV<lambda_6e4b09c48022b2350581041d5f6b0c4c>@@$$QEAV<lambda_2358e3775559c9db80273638284d5e45>@@@Z@4HA 00000001800213fc f   libucrt:exit.obj
 0001:000203fc       ?fin$0@?0???$?RV<lambda_efdfa57d1f175319df784efa44bb7b81>@@AEAV<lambda_5f0a4c1567f8adc6734073e5d1e1b35c>@@V<lambda_2e8a7d3640ea6ccb4c2413664c2db6fd>@@@?$__crt_seh_guarded_call@X@@QEAAX$$QEAV<lambda_efdfa57d1f175319df784efa44bb7b81>@@AEAV<lambda_5f0a4c1567f8adc6734073e5d1e1b35c>@@$$QEAV<lambda_2e8a7d3640ea6ccb4c2413664c2db6fd>@@@Z@4HA 00000001800213fc f   libucrt:mbctype.obj
 0001:00020416       ?filt$0@?0???R<lambda_6e4b09c48022b2350581041d5f6b0c4c>@@QEBA@XZ@4HA 0000000180021416 f   libucrt:exit.obj
 0001:00020431       _query_new_handler$fin$0   0000000180021431 f   libucrt:new_handler.obj
 0001:00020447       ?fin$0@?0???$?RV<lambda_410d79af7f07d98d83a3f525b3859a53>@@AEAV<lambda_3e16ef9562a7dcce91392c22ab16ea36>@@V<lambda_38119f0e861e05405d8a144b9b982f0a>@@@?$__crt_seh_guarded_call@X@@QEAAX$$QEAV<lambda_410d79af7f07d98d83a3f525b3859a53>@@AEAV<lambda_3e16ef9562a7dcce91392c22ab16ea36>@@$$QEAV<lambda_38119f0e861e05405d8a144b9b982f0a>@@@Z@4HA 0000000180021447 f   libucrt:wsetlocale.obj
 0001:00020461       __acrt_lowio_ensure_fh_exists$fin$0 0000000180021461 f   libucrt:osfinfo.obj
 0001:00020461       __acrt_initialize_lowio$fin$0 0000000180021461 f   libucrt:ioinit.obj
 0001:0002047a       ?fin$0@?0??update_thread_multibyte_data_internal@@YAPEAU__crt_multibyte_data@@QEAU__acrt_ptd@@QEAPEAU1@@Z@4HA 000000018002147a f   libucrt:mbctype.obj
 0001:00020493       raise$fin$0                0000000180021493 f   libucrt:signal.obj
 0001:000204b4       ?fin$0@?0???$?RV<lambda_842d9ff0dc9ef11c61343bbaebe7f885>@@AEAV<lambda_c5860995281e5c4ce005b3de8f5874ee>@@V<lambda_d90129c13df834fdcbf8d2b88dafcf2d>@@@?$__crt_seh_guarded_call@X@@QEAAX$$QEAV<lambda_842d9ff0dc9ef11c61343bbaebe7f885>@@AEAV<lambda_c5860995281e5c4ce005b3de8f5874ee>@@$$QEAV<lambda_d90129c13df834fdcbf8d2b88dafcf2d>@@@Z@4HA 00000001800214b4 f   libucrt:fflush.obj
 0001:000204cf       ?fin$0@?0???$?RV<lambda_886d6c58226a84441f68b9f2b8217b83>@@AEAV<lambda_ab61a845afdef5b7c387490eaf3616ee>@@V<lambda_f7f22ab5edc0698d5f6905b0d3f44752>@@@?$__crt_seh_guarded_call@X@@QEAAX$$QEAV<lambda_886d6c58226a84441f68b9f2b8217b83>@@AEAV<lambda_ab61a845afdef5b7c387490eaf3616ee>@@$$QEAV<lambda_f7f22ab5edc0698d5f6905b0d3f44752>@@@Z@4HA 00000001800214cf f   libucrt:fflush.obj
 0001:000204ec       __acrt_update_thread_locale_data$fin$0 00000001800214ec f   libucrt:locale_refcounting.obj
 0001:00020505       _fcloseall$fin$0           0000000180021505 f   libucrt:closeall.obj
 0001:0002051e       ?fin$0@?0???$?RV<lambda_751a882b2c74d4b022dec766aa51a29a>@@AEAV<lambda_628dfdc04ba53c8bfc02c9951375f3f5>@@V<lambda_f6c7be5f7998530c34de24c7437d6b54>@@@?$__crt_seh_guarded_call@H@@QEAAH$$QEAV<lambda_751a882b2c74d4b022dec766aa51a29a>@@AEAV<lambda_628dfdc04ba53c8bfc02c9951375f3f5>@@$$QEAV<lambda_f6c7be5f7998530c34de24c7437d6b54>@@@Z@4HA 000000018002151e f   libucrt:close.obj
 0001:0002051e       ?fin$0@?0???$?RV<lambda_a37b2b86f63e897a80ea819b0eb08c01>@@AEAV<lambda_38ce7e780aa69e748d6df282ebc68efe>@@V<lambda_99fb1378e971ab6e7edea83e3a7a83a2>@@@?$__crt_seh_guarded_call@H@@QEAAH$$QEAV<lambda_a37b2b86f63e897a80ea819b0eb08c01>@@AEAV<lambda_38ce7e780aa69e748d6df282ebc68efe>@@$$QEAV<lambda_99fb1378e971ab6e7edea83e3a7a83a2>@@@Z@4HA 000000018002151e f   libucrt:commit.obj
 0001:00020538       _write$fin$0               0000000180021538 f   libucrt:write.obj
 0001:0002054f       fclose$fin$0               000000018002154f f   libucrt:fclose.obj
 0001:00020567       _ctrlfp$filt$0             0000000180021567 f   libucrt:fpctrl.obj
 0001:000205a0       _IsNonwritableInCurrentImage$filt$0 00000001800215a0 f   LIBCMT:pesect.obj
 0001:000205c0       ??__F_AtlComModule@ATL@@YAXXZ 00000001800215c0 f   OposVariant.obj
 0001:000205cc       ??__F_AtlWinModule@ATL@@YAXXZ 00000001800215cc f   OposVariant.obj
 0001:00020610       ??__F_Module@@YAXXZ        0000000180021610 f   CoinAcceptor.obj
 0001:00020674       ??__F_AtlBaseModule@ATL@@YAXXZ 0000000180021674 f   atls:atlbase.obj
 0002:00000630       ?_AtlBaseModule$initializer$@ATL@@3P6AXXZEA 0000000180022630     atls:atlbase.obj
 0002:00000638       ?_AtlComModule$initializer$@ATL@@3P6AXXZEA 0000000180022638     OposVariant.obj
 0002:00000640       ?_AtlWinModule$initializer$@ATL@@3P6AXXZEA 0000000180022640     OposVariant.obj
 0002:00000648       ?_Module$initializer$@@3P6AXXZEA 0000000180022648     CoinAcceptor.obj
 0002:00000650       ??pConnMap$initializer$@?$IConnectionPointContainerImpl@VCOPOSCoinAcceptor@@@ATL@@0P6AXXZEA@@3P6AXXZEA 0000000180022650     CoinAcceptor.obj
 0002:00000668       ?__scrt_initialize_tss_var@@3P6AHXZEA 0000000180022668     LIBCMT:thread_safe_statics.obj
 0002:000026d8       GS_ExceptionPointers       00000001800246d8     LIBCMT:gs_report.obj
 0002:000026e8       $cppxdata$??2@YAPEAX_KAEBUnothrow_t@std@@@Z 00000001800246e8     LIBCMT:new_scalar_nothrow.obj
 0002:000028c0       ?ExceptionTemplate@?1??UnwindNestedFrames@__FrameHandler3@@SAXPEA_KPEAUEHExceptionRecord@@PEAU_CONTEXT@@0PEAXPEBU_s_FuncInfo@@HHPEBU_s_HandlerType@@PEAU_xDISPATCHER_CONTEXT@@E@Z@4U_EXCEPTION_RECORD@@B 00000001800248c0     libvcruntime:risctrnsctrl.obj
 0002:00002960       ?ExceptionTemplate@?1??_CxxThrowException@@9@4UEHExceptionRecord@@B 0000000180024960     libvcruntime:throw.obj
 0002:000029d0       ?tokenTable@@3QBQEBDB      00000001800249d0     libvcruntime:undname.obj
 0002:00002a50       ?nameTable@@3QBQEBDB       0000000180024a50     libvcruntime:undname.obj
 0002:00002ce8       ?rttiTable@@3QBQEBDB       0000000180024ce8     libvcruntime:undname.obj
 0002:000033b0       ?module_names@?A0x656504f9@@3QBQEB_WB 00000001800253b0     libvcruntime:winapi_downlevel.obj
 0002:00003470       ?candidate_modules@?1??try_get_FlsAlloc@@YAP6AKP6AXPEAX@Z@ZXZ@4QBW4module_id@?A0x656504f9@@B 0000000180025470     libvcruntime:winapi_downlevel.obj
 0002:00003488       ?candidate_modules@?1??try_get_FlsFree@@YAP6AHK@ZXZ@4QBW4module_id@?A0x656504f9@@B 0000000180025488     libvcruntime:winapi_downlevel.obj
 0002:00003498       ?candidate_modules@?1??try_get_FlsGetValue@@YAP6APEAXK@ZXZ@4QBW4module_id@?A0x656504f9@@B 0000000180025498     libvcruntime:winapi_downlevel.obj
 0002:000034b0       ?candidate_modules@?1??try_get_FlsSetValue@@YAP6AHKPEAX@ZXZ@4QBW4module_id@?A0x656504f9@@B 00000001800254b0     libvcruntime:winapi_downlevel.obj
 0002:000034c8       ?candidate_modules@?1??try_get_InitializeCriticalSectionEx@@YAP6AHPEAU_RTL_CRITICAL_SECTION@@KK@ZXZ@4QBW4module_id@?A0x656504f9@@B 00000001800254c8     libvcruntime:winapi_downlevel.obj
 0002:000034f0       ?errtable@@3QBUerrentry@?A0x31fdb9ec@@B 00000001800254f0     libucrt:errno.obj
 0002:000037e0       __acrt_initializers        00000001800257e0     libucrt:initialization.obj
 0002:000038e0       ?module_names@?A0x391cf84c@@3QBQEB_WB 00000001800258e0     libucrt:winapi_thunks.obj
 0002:00003de8       ?candidate_modules@?1??try_get_AreFileApisANSI@@YAP6AHXZXZ@4QBW4module_id@?A0x391cf84c@@B 0000000180025de8     libucrt:winapi_thunks.obj
 0002:00003e00       ?candidate_modules@?1??try_get_FlsAlloc@@YAP6AKP6AXPEAX@Z@ZXZ@4QBW4module_id@?A0x391cf84c@@B 0000000180025e00     libucrt:winapi_thunks.obj
 0002:00003e08       ?candidate_modules@?1??try_get_FlsFree@@YAP6AHK@ZXZ@4QBW4module_id@?A0x391cf84c@@B 0000000180025e08     libucrt:winapi_thunks.obj
 0002:00003e10       ?candidate_modules@?1??try_get_FlsGetValue@@YAP6APEAXK@ZXZ@4QBW4module_id@?A0x391cf84c@@B 0000000180025e10     libucrt:winapi_thunks.obj
 0002:00003e18       ?candidate_modules@?1??try_get_FlsSetValue@@YAP6AHKPEAX@ZXZ@4QBW4module_id@?A0x391cf84c@@B 0000000180025e18     libucrt:winapi_thunks.obj
 0002:00003e20       ?candidate_modules@?1??try_get_InitializeCriticalSectionEx@@YAP6AHPEAU_RTL_CRITICAL_SECTION@@KK@ZXZ@4QBW4module_id@?A0x391cf84c@@B 0000000180025e20     libucrt:winapi_thunks.obj
 0002:00003e28       ?candidate_modules@?1??try_get_LCMapStringEx@@YAP6AHPEB_WK0HPEA_WHPEAU_nlsversioninfo@@PEAX_J@ZXZ@4QBW4module_id@?A0x391cf84c@@B 0000000180025e28     libucrt:winapi_thunks.obj
 0002:00003e40       ?candidate_modules@?1??try_get_LocaleNameToLCID@@YAP6AKPEB_WK@ZXZ@4QBW4module_id@?A0x391cf84c@@B 0000000180025e40     libucrt:winapi_thunks.obj
 0002:00003e5c       ?candidate_modules@?1??try_get_AppPolicyGetProcessTerminationMethod@@YAP6AJPEAXPEAW4AppPolicyProcessTerminationMethod@@@ZXZ@4QBW4module_id@?A0x391cf84c@@B 0000000180025e5c     libucrt:winapi_thunks.obj
 0002:00003e88       ?candidate_modules@?1??try_get_SetThreadStackGuarantee@@YAP6AHPEAK@ZXZ@4QBW4module_id@?A0x391cf84c@@B 0000000180025e88     libucrt:winapi_thunks.obj
 0002:00003eb0       ?strings@?1??fp_format_nan_or_infinity@@YAHW4__acrt_fp_class@@_NPEAD_K1@Z@4QAY03QEBDA 0000000180025eb0     libucrt:cvt.obj
 0002:00004610       ?_mb_locale_names@@3QBQEB_WB 0000000180026610     libucrt:mbctype.obj
 0002:00004e80       ?LcidToLocaleNameTable@?A0x881e4c05@@3QBULcidToLocaleName@1@B 0000000180026e80     libucrt:lcidtoname_downlevel.obj
 0002:000068e0       ?LocaleNameToIndexTable@?A0x881e4c05@@3QBULocaleNameIndex@1@B 00000001800288e0     libucrt:lcidtoname_downlevel.obj
 0002:00008a90       ?large_power_indices@?1??multiply_by_power_of_ten@__crt_strtox@@YA_NAEAUbig_integer@2@I@Z@4QBUunpack_index@?1??12@YA_N0I@Z@B 000000018002aa90     libucrt:cfout.obj
 0002:00008b80       __real_ninf                000000018002ab80     libucrt:log10.obj
 0002:00008b90       __real_inf                 000000018002ab90     libucrt:log10.obj
 0002:00008ba0       __real_neg_qnan            000000018002aba0     libucrt:log10.obj
 0002:00008bb0       __real_qnanbit             000000018002abb0     libucrt:log10.obj
 0002:00008bc0       __int_1023                 000000018002abc0     libucrt:log10.obj
 0002:00008bd0       __mask_001                 000000018002abd0     libucrt:log10.obj
 0002:00008be0       __mask_mant                000000018002abe0     libucrt:log10.obj
 0002:00008bf0       __mask_mant_top8           000000018002abf0     libucrt:log10.obj
 0002:00008c00       __mask_mant9               000000018002ac00     libucrt:log10.obj
 0002:00008c10       __real_log10_e             000000018002ac10     libucrt:log10.obj
 0002:00008c20       __real_log10_e_lead        000000018002ac20     libucrt:log10.obj
 0002:00008c30       __real_log10_e_tail        000000018002ac30     libucrt:log10.obj
 0002:00008c40       __real_log10_2_lead        000000018002ac40     libucrt:log10.obj
 0002:00008c50       __real_log10_2_tail        000000018002ac50     libucrt:log10.obj
 0002:00008c60       __real_two                 000000018002ac60     libucrt:log10.obj
 0002:00008c70       __real_one                 000000018002ac70     libucrt:log10.obj
 0002:00008c80       __real_half                000000018002ac80     libucrt:log10.obj
 0002:00008c90       __mask_100                 000000018002ac90     libucrt:log10.obj
 0002:00008ca0       __real_1_over_512          000000018002aca0     libucrt:log10.obj
 0002:00008cb0       __real_1_over_2            000000018002acb0     libucrt:log10.obj
 0002:00008cc0       __real_1_over_3            000000018002acc0     libucrt:log10.obj
 0002:00008cd0       __real_1_over_4            000000018002acd0     libucrt:log10.obj
 0002:00008ce0       __real_1_over_5            000000018002ace0     libucrt:log10.obj
 0002:00008cf0       __real_1_over_6            000000018002acf0     libucrt:log10.obj
 0002:00008d00       __real_neg_1023            000000018002ad00     libucrt:log10.obj
 0002:00008d10       __mask_2045                000000018002ad10     libucrt:log10.obj
 0002:00008d20       __real_threshold           000000018002ad20     libucrt:log10.obj
 0002:00008d30       __real_near_one_lt         000000018002ad30     libucrt:log10.obj
 0002:00008d40       __real_near_one_gt         000000018002ad40     libucrt:log10.obj
 0002:00008d50       __real_min_norm            000000018002ad50     libucrt:log10.obj
 0002:00008d60       __real_notsign             000000018002ad60     libucrt:log10.obj
 0002:00008d70       __real_ca1                 000000018002ad70     libucrt:log10.obj
 0002:00008d80       __real_ca2                 000000018002ad80     libucrt:log10.obj
 0002:00008d90       __real_ca3                 000000018002ad90     libucrt:log10.obj
 0002:00008da0       __real_ca4                 000000018002ada0     libucrt:log10.obj
 0002:00008db0       __mask_lower               000000018002adb0     libucrt:log10.obj
 0002:00008dc0       __flag_x_zero              000000018002adc0     libucrt:log10.obj
 0002:00008dc4       __flag_x_neg               000000018002adc4     libucrt:log10.obj
 0002:00008dc8       __flag_x_nan               000000018002adc8     libucrt:log10.obj
 0002:0000a620       __real@433fffffffffffff    000000018002c620     libucrt:fpsr.obj
 0002:0000a628       __real@c33fffffffffffff    000000018002c628     libucrt:fpsr.obj
 0002:0000ae70       $unwind$_invalid_parameter_noinfo 000000018002ce70     libucrt:invalid_parameter.obj
 0002:0000ae70       $unwind$?cw_memcpy@@YAHPEA_WPEBDH@Z 000000018002ce70     CWString.obj
 0002:0000ae70       $unwind$_log10_special     000000018002ce70     libucrt:log_special.obj
 0002:0000ae70       $unwind$wcstol             000000018002ce70     libucrt:strtox.obj
 0002:0000ae70       $unwind$?ProcessWindowMessage@?$CComControl@VCOPOSCoinAcceptor@@V?$CWindowImpl@VCOPOSCoinAcceptor@@VCWindow@ATL@@V?$CWinTraits@$0FGAAAAAA@$0A@@3@@ATL@@@ATL@@UEAAHPEAUHWND__@@I_K_JAEA_JK@Z 000000018002ce70     CoinAcceptor.obj
 0002:0000ae78       $unwind$__dcrt_terminate_console_output 000000018002ce78     libucrt:initcon.obj
 0002:0000ae78       $unwind$__vcrt_uninitialize_critical 000000018002ce78     libvcruntime:initialization.obj
 0002:0000ae78       $unwind$__vcrt_uninitialize 000000018002ce78     libvcruntime:initialization.obj
 0002:0000ae78       $unwind$?cw_strcpy@@YAHPEA_WPEBD@Z 000000018002ce78     CWString.obj
 0002:0000ae78       $unwind$_GetImageBase      000000018002ce78     libvcruntime:risctrnsctrl.obj
 0002:0000ae78       $unwind$?_LocCPQueryInterface@?$IConnectionPointImpl@VCOPOSCoinAcceptor@@$1?IID_IPropertyNotifySink@@3U_GUID@@BVCComDynamicUnkArray@ATL@@@ATL@@UEAAJAEBU_GUID@@PEAPEAX@Z 000000018002ce78     CoinAcceptor.obj
 0002:0000ae78       $unwind$?_LocCPQueryInterface@?$IConnectionPointImpl@VCOPOSCoinAcceptor@@$1?DIID__IOPOSCoinAcceptorEvents@@3U_GUID@@BVCComDynamicUnkArray@ATL@@@ATL@@UEAAJAEBU_GUID@@PEAPEAX@Z 000000018002ce78     CoinAcceptor.obj
 0002:0000ae78       $unwind$__acrt_uninitialize 000000018002ce78     libucrt:initialization.obj
 0002:0000ae78       $unwind$??__F_Module@@YAXXZ 000000018002ce78     CoinAcceptor.obj
 0002:0000ae78       $unwind$__acrt_uninitialize_critical 000000018002ce78     libucrt:initialization.obj
 0002:0000ae78       $unwind$__acrt_thread_attach 000000018002ce78     libucrt:initialization.obj
 0002:0000ae78       $unwind$__vcrt_getptd      000000018002ce78     libvcruntime:per_thread_data.obj
 0002:0000ae78       $unwind$__vcrt_uninitialize_ptd 000000018002ce78     libvcruntime:per_thread_data.obj
 0002:0000ae78       $unwind$abort              000000018002ce78     libucrt:abort.obj
 0002:0000ae78       $unwind$??__F_AtlWinModule@ATL@@YAXXZ 000000018002ce78     OposVariant.obj
 0002:0000ae78       $unwind$__scrt_dllmain_uninitialize_critical 000000018002ce78     LIBCMT:utility.obj
 0002:0000ae78       $unwind$?GetLONG@OposVariant@@QEAAJXZ 000000018002ce78     OposVariant.obj
 0002:0000ae78       $unwind$?initialize_multibyte@@YAHXZ 000000018002ce78     libucrt:multibyte_initializer.obj
 0002:0000ae78       $unwind$__vcrt_initialize  000000018002ce78     libvcruntime:initialization.obj
 0002:0000ae78       $unwind$__FrameUnwindFilter 000000018002ce78     libvcruntime:ehhelpers.obj
 0002:0000ae78       $unwind$??__E_AtlWinModule@ATL@@YAXXZ 000000018002ce78     OposVariant.obj
 0002:0000ae78       $unwind$__scrt_dllmain_uninitialize_c 000000018002ce78     LIBCMT:utility.obj
 0002:0000ae78       $unwind$?dllmain_crt_dispatch@@YAHQEAUHINSTANCE__@@KQEAX@Z 000000018002ce78     LIBCMT:dll_dllmain.obj
 0002:0000ae78       $unwind$_errno             000000018002ce78     libucrt:errno.obj
 0002:0000ae78       $unwind$?DefaultReflectionHandler@?$CWindowImplRoot@VCWindow@ATL@@@ATL@@SAHPEAUHWND__@@I_K_JAEA_J@Z 000000018002ce78     CoinAcceptor.obj
 0002:0000ae78       $unwind$?FinalConstruct@COPOSCoinAcceptor@@QEAAJXZ 000000018002ce78     CoinAcceptorImpl.obj
 0002:0000ae78       $unwind$??__E_AtlComModule@ATL@@YAXXZ 000000018002ce78     OposVariant.obj
 0002:0000ae78       $unwind$?FireViewChange@CComControlBase@ATL@@QEAAJXZ 000000018002ce78     CoinAcceptor.obj
 0002:0000ae78       $unwind$??__E?pConnMap@?$IConnectionPointContainerImpl@VCOPOSCoinAcceptor@@@ATL@@0PEBU_ATL_CONNMAP_ENTRY@2@EB@@YAXXZ 000000018002ce78     CoinAcceptor.obj
 0002:0000ae78       $unwind$__scrt_dllmain_after_initialize_c 000000018002ce78     LIBCMT:utility.obj
 0002:0000ae78       $unwind$?CreateInstance@CComClassFactory@ATL@@UEAAJPEAUIUnknown@@AEBU_GUID@@PEAPEAX@Z 000000018002ce78     CoinAcceptor.obj
 0002:0000ae78       $unwind$uninitialize_allocated_io_buffers 000000018002ce78     libucrt:initialization.obj
 0002:0000ae78       $unwind$_msize_base        000000018002ce78     libucrt:msize.obj
 0002:0000ae78       $unwind$__scrt_dllmain_crt_thread_attach 000000018002ce78     LIBCMT:utility.obj
 0002:0000ae78       $unwind$__scrt_dllmain_before_initialize_c 000000018002ce78     LIBCMT:utility.obj
 0002:0000ae78       $unwind$__acrt_release_locale_ref 000000018002ce78     libucrt:locale_refcounting.obj
 0002:0000ae78       $unwind$atexit             000000018002ce78     LIBCMT:utility.obj
 0002:0000ae78       $unwind$??1OposDispParms@@QEAA@XZ 000000018002ce78     OposVariant.obj
 0002:0000ae78       $unwind$__vcrt_initialize_locks 000000018002ce78     libvcruntime:locks.obj
 0002:0000ae78       $unwind$_fileno            000000018002ce78     libucrt:fileno.obj
 0002:0000ae78       $unwind$__vcrt_thread_attach 000000018002ce78     libvcruntime:initialization.obj
 0002:0000ae78       $unwind$?GetAdvise@?$IViewObjectExImpl@VCOPOSCoinAcceptor@@@ATL@@UEAAJPEAK0PEAPEAUIAdviseSink@@@Z 000000018002ce78     CoinAcceptor.obj
 0002:0000ae78       $unwind$_GetThrowImageBase 000000018002ce78     libvcruntime:risctrnsctrl.obj
 0002:0000ae78       $unwind$__acrt_AreFileApisANSI 000000018002ce78     libucrt:winapi_thunks.obj
 0002:0000ae78       $unwind$_get_osfhandle     000000018002ce78     libucrt:osfinfo.obj
 0002:0000ae78       $unwind$?AddReplacement@CRegObject@ATL@@UEAAJPEB_W0@Z 000000018002ce78     CoinAcceptor.obj
 0002:0000ae78       $unwind$_invoke_watson     000000018002ce78     libucrt:invalid_parameter.obj
 0002:0000ae78       $unwind$__scrt_dllmain_crt_thread_detach 000000018002ce78     LIBCMT:utility.obj
 0002:0000ae78       $unwind$uninitialize_environment 000000018002ce78     libucrt:initialization.obj
 0002:0000ae78       $unwind$__GSHandlerCheck   000000018002ce78     LIBCMT:gshandler.obj
 0002:0000ae78       $unwind$?LockServer@CComClassFactory@ATL@@UEAAJH@Z 000000018002ce78     CoinAcceptor.obj
 0002:0000ae78       $unwind$?AtlThrowImpl@ATL@@YAXJ@Z 000000018002ce78     CoinAcceptor.obj
 0002:0000ae78       $unwind$?AtlHresultFromLastError@ATL@@YAJXZ 000000018002ce78     CoinAcceptor.obj
 0002:0000ae78       $unwind$_purecall          000000018002ce78     libvcruntime:purevirt.obj
 0002:0000ae78       $unwind$__vcrt_freefls     000000018002ce78     libvcruntime:per_thread_data.obj
 0002:0000ae78       $unwind$?__scrt_uninitialize_thread_safe_statics@@YAXXZ 000000018002ce78     LIBCMT:thread_safe_statics.obj
 0002:0000ae78       $unwind$__scrt_acquire_startup_lock 000000018002ce78     LIBCMT:utility.obj
 0002:0000ae78       $unwind$__vcrt_initialize_ptd 000000018002ce78     libvcruntime:per_thread_data.obj
 0002:0000ae78       $unwind$__doserrno         000000018002ce78     libucrt:errno.obj
 0002:0000ae78       $unwind$__acrt_uninitialize_ptd 000000018002ce78     libucrt:per_thread_data.obj
 0002:0000ae78       $unwind$__scrt_initialize_default_local_stdio_options 000000018002ce78     LIBCMT:default_local_stdio_options.obj
 0002:0000ae78       $unwind$__acrt_initialize_ptd 000000018002ce78     libucrt:per_thread_data.obj
 0002:0000ae78       $unwind$?state_case_size@?$output_processor@_WV?$string_output_adapter@_W@__crt_stdio_output@@V?$format_validation_base@_WV?$string_output_adapter@_W@__crt_stdio_output@@@2@@__crt_stdio_output@@AEAA_NXZ 000000018002ce78     libucrt:output.obj
 0002:0000ae78       $unwind$?GetCurrentState@__FrameHandler3@@SAHPEA_KPEAU_xDISPATCHER_CONTEXT@@PEBU_s_FuncInfo@@@Z 000000018002ce78     libvcruntime:ehstate.obj
 0002:0000ae78       $unwind$_isatty            000000018002ce78     libucrt:isatty.obj
 0002:0000ae78       $unwind$?OnDocWindowActivate@?$IOleInPlaceActiveObjectImpl@VCOPOSCoinAcceptor@@@ATL@@UEAAJH@Z 000000018002ce78     CoinAcceptor.obj
 0002:0000ae78       $unwind$?EnumAdvise@?$IOleObjectImpl@VCOPOSCoinAcceptor@@@ATL@@UEAAJPEAPEAUIEnumSTATDATA@@@Z 000000018002ce78     CoinAcceptor.obj
 0002:0000ae78       $unwind$__report_rangecheckfailure 000000018002ce78     LIBCMT:gs_report.obj
 0002:0000ae78       $unwind$__acrt_initialize_multibyte 000000018002ce78     libucrt:mbctype.obj
 0002:0000ae78       $unwind$??$uninitialize_environment_internal@_W@@YAXAEAPEAPEA_W@Z 000000018002ce78     libucrt:environment_initialization.obj
 0002:0000ae78       $unwind$??__E_AtlBaseModule@ATL@@YAXXZ 000000018002ce78     atls:atlbase.obj
 0002:0000ae78       $unwind$??$uninitialize_environment_internal@D@@YAXAEAPEAPEAD@Z 000000018002ce78     libucrt:environment_initialization.obj
 0002:0000ae78       $unwind$_statfp            000000018002ce78     libucrt:fpctrl.obj
 0002:0000ae78       $unwind$__dcrt_uninitialize_environments_nolock 000000018002ce78     libucrt:environment_initialization.obj
 0002:0000ae78       $unwind$__acrt_initialize_heap 000000018002ce78     libucrt:heap_handle.obj
 0002:0000ae78       $unwind$__acrt_update_thread_multibyte_data 000000018002ce78     libucrt:mbctype.obj
 0002:0000ae78       $unwind$?Unadvise@?$IOleObjectImpl@VCOPOSCoinAcceptor@@@ATL@@UEAAJK@Z 000000018002ce78     CoinAcceptor.obj
 0002:0000ae78       $unwind$?get_State@COPOSCoinAcceptor@@UEAAJPEAJ@Z 000000018002ce78     CoinAcceptorImpl.obj
 0002:0000ae78       $unwind$?get_ResultCode@COPOSCoinAcceptor@@UEAAJPEAJ@Z 000000018002ce78     CoinAcceptorImpl.obj
 0002:0000ae78       $unwind$_Init_thread_notify 000000018002ce78     LIBCMT:thread_safe_statics.obj
 0002:0000ae78       $unwind$_set_errno_from_matherr 000000018002ce78     libucrt:fpexcept.obj
 0002:0000ae78       $unwind$__pctype_func      000000018002ce78     libucrt:ctype.obj
 0002:0000ae78       $unwind$initialize_c       000000018002ce78     libucrt:initialization.obj
 0002:0000ae78       $unwind$__acrt_thread_detach 000000018002ce78     libucrt:initialization.obj
 0002:0000ae78       $unwind$__vcrt_thread_detach 000000018002ce78     libvcruntime:initialization.obj
 0002:0000ae78       $unwind$__acrt_initialize_command_line 000000018002ce78     libucrt:argv_data.obj
 0002:0000ae80       $unwind$?CreateInstance@?$CComCreator@V?$CComObjectCached@VCComClassFactory@ATL@@@ATL@@@ATL@@SAJPEAXAEBU_GUID@@PEAPEAX@Z 000000018002ce80     CoinAcceptor.obj
 0002:0000ae80       $unwind$?CreateInstance@?$CComCreator@V?$CComAggObject@VCOPOSCoinAcceptor@@@ATL@@@ATL@@SAJPEAXAEBU_GUID@@PEAPEAX@Z 000000018002ce80     CoinAcceptor.obj
 0002:0000ae80       $unwind$?initialize_stdio_handles_nolock@@YAXXZ 000000018002ce80     libucrt:ioinit.obj
 0002:0000ae80       $unwind$__acrt_initialize_stdio 000000018002ce80     libucrt:_file.obj
 0002:0000ae80       $unwind$??$TypeMatchHelper@V__FrameHandler3@@@@YAHPEBU_s_HandlerType@@PEBU_s_CatchableType@@PEBU_s_ThrowInfo@@@Z 000000018002ce80     libvcruntime:frame.obj
 0002:0000ae80       $unwind$__GSHandlerCheck_SEH 000000018002ce80     LIBCMT:gshandlerseh.obj
 0002:0000ae80       $unwind$?GetPagesHelper@?$ISpecifyPropertyPagesImpl@VCOPOSCoinAcceptor@@@ATL@@IEAAJPEAUtagCAUUID@@PEBUATL_PROPMAP_ENTRY@2@@Z 000000018002ce80     CoinAcceptor.obj
 0002:0000ae80       $unwind$?AtlModuleAddTermFunc@ATL@@YAJPEAU_ATL_MODULE70@1@P6AX_K@Z1@Z 000000018002ce80     CoinAcceptor.obj
 0002:0000ae80       $unwind$?AtlComModuleUnregisterServer@ATL@@YAJPEAU_ATL_COM_MODULE70@1@HPEBU_GUID@@@Z 000000018002ce80     CoinAcceptor.obj
 0002:0000ae80       $unwind$?AtlComModuleRegisterServer@ATL@@YAJPEAU_ATL_COM_MODULE70@1@HPEBU_GUID@@@Z 000000018002ce80     CoinAcceptor.obj
 0002:0000ae80       $unwind$??_Estringdispid@CComTypeInfoHolder@ATL@@QEAAPEAXI@Z 000000018002ce80     OposVariant.obj
 0002:0000ae80       $unwind$?cw_dup@@YAXPEBDAEAHAEAPEA_W1@Z 000000018002ce80     CWString.obj
 0002:0000ae98       $unwind$__acrt_FlsAlloc    000000018002ce98     libucrt:winapi_thunks.obj
 0002:0000ae98       $unwind$_clrfp             000000018002ce98     libucrt:fpctrl.obj
 0002:0000ae98       $unwind$_set_statfp        000000018002ce98     libucrt:fpctrl.obj
 0002:0000ae98       $unwind$?try_cor_exit_process@@YAXI@Z 000000018002ce98     libucrt:exit.obj
 0002:0000ae98       $unwind$__acrt_uninitialize_winapi_thunks 000000018002ce98     libucrt:winapi_thunks.obj
 0002:0000ae98       $unwind$_onexit            000000018002ce98     LIBCMT:utility.obj
 0002:0000ae98       $unwind$?exit_or_terminate_process@@YAXI@Z 000000018002ce98     libucrt:exit.obj
 0002:0000ae98       $unwind$__vcrt_FlsFree     000000018002ce98     libvcruntime:winapi_downlevel.obj
 0002:0000ae98       $unwind$?AllocateHeap@?$CTempBuffer@_W$0EAA@VCCRTAllocator@ATL@@@ATL@@AEAAX_K@Z 000000018002ce98     CoinAcceptor.obj
 0002:0000ae98       $unwind$?AllocateHeap@?$CTempBuffer@_W$0BAA@VCCRTAllocator@ATL@@@ATL@@AEAAX_K@Z 000000018002ce98     CoinAcceptor.obj
 0002:0000ae98       $unwind$__acrt_uninitialize_stdio 000000018002ce98     libucrt:_file.obj
 0002:0000ae98       $unwind$?AllocateHeap@?$CTempBuffer@E$0BAA@VCCRTAllocator@ATL@@@ATL@@AEAAX_K@Z 000000018002ce98     CoinAcceptor.obj
 0002:0000ae98       $unwind$?IsEqualObject@?$CComPtrBase@UITypeInfo@@@ATL@@QEAA_NPEAUIUnknown@@@Z 000000018002ce98     CoinAcceptor.obj
 0002:0000ae98       $unwind$__vcrt_FlsAlloc    000000018002ce98     libvcruntime:winapi_downlevel.obj
 0002:0000ae98       $unwind$_malloc_base       000000018002ce98     libucrt:malloc_base.obj
 0002:0000ae98       $unwind$?AtlCreateTargetDC@ATL@@YAPEAUHDC__@@PEAU2@PEAUtagDVTARGETDEVICE@@@Z 000000018002ce98     CoinAcceptor.obj
 0002:0000ae98       $unwind$_calloc_base       000000018002ce98     libucrt:calloc_base.obj
 0002:0000ae98       $unwind$wcscpy_s           000000018002ce98     libucrt:wcscpy_s.obj
 0002:0000ae98       $unwind$AtlThunk_AllocateData 000000018002ce98     atls:atlthunk.obj
 0002:0000ae98       $unwind$__acrt_update_multibyte_info 000000018002ce98     libucrt:locale_update.obj
 0002:0000ae98       $unwind$__scrt_initialize_crt 000000018002ce98     LIBCMT:utility.obj
 0002:0000ae98       $unwind$__acrt_freeptd     000000018002ce98     libucrt:per_thread_data.obj
 0002:0000ae98       $unwind$??0bad_exception@std@@QEAA@AEBV01@@Z 000000018002ce98     libvcruntime:frame.obj
 0002:0000ae98       $unwind$?SetBSTR_OutPtr@OposVariant@@QEAA_NPEAPEA_WAEAJ@Z 000000018002ce98     OposVariant.obj
 0002:0000ae98       $unwind$?ExFilterRethrow@@YAHPEAU_EXCEPTION_POINTERS@@PEAUEHExceptionRecord@@PEAH@Z 000000018002ce98     libvcruntime:frame.obj
 0002:0000ae98       $unwind$??1CAtlBaseModule@ATL@@QEAA@XZ 000000018002ce98     atls:atlbase.obj
 0002:0000ae98       $unwind$?IOleObject_SetExtent@CComControlBase@ATL@@QEAAJKPEAUtagSIZE@@@Z 000000018002ce98     CoinAcceptor.obj
 0002:0000ae98       $unwind$__raise_securityfailure 000000018002ce98     LIBCMT:gs_report.obj
 0002:0000ae98       $unwind$__acrt_initialize_locks 000000018002ce98     libucrt:locks.obj
 0002:0000ae98       $unwind$__scrt_release_startup_lock 000000018002ce98     LIBCMT:utility.obj
 0002:0000ae98       $unwind$__acrt_stdio_free_buffer_nolock 000000018002ce98     libucrt:_freebuf.obj
 0002:0000ae98       $unwind$__acrt_update_locale_info 000000018002ce98     libucrt:locale_update.obj
 0002:0000ae98       $unwind$__acrt_uninitialize_locks 000000018002ce98     libucrt:locks.obj
 0002:0000ae98       $unwind$?IOleInPlaceObject_InPlaceDeactivate@CComControlBase@ATL@@QEAAJXZ 000000018002ce98     CoinAcceptor.obj
 0002:0000ae98       $unwind$__acrt_SetThreadStackGuarantee 000000018002ce98     libucrt:winapi_thunks.obj
 0002:0000ae98       $unwind$??2@YAPEAX_K@Z     000000018002ce98     LIBCMT:new_scalar.obj
 0002:0000ae98       $unwind$??0CAtlWinModule@ATL@@QEAA@XZ 000000018002ce98     OposVariant.obj
 0002:0000ae98       $unwind$__acrt_get_process_end_policy 000000018002ce98     libucrt:win_policies.obj
 0002:0000ae98       $unwind$?ExecutionInCatch@__FrameHandler3@@SA_NPEAU_xDISPATCHER_CONTEXT@@PEBU_s_FuncInfo@@@Z 000000018002ce98     libvcruntime:risctrnsctrl.obj
 0002:0000ae98       $unwind$??0CAtlComModule@ATL@@QEAA@XZ 000000018002ce98     OposVariant.obj
 0002:0000ae98       $unwind$??0CAtlModule@ATL@@QEAA@XZ 000000018002ce98     CoinAcceptor.obj
 0002:0000ae98       $unwind$__std_type_info_destroy_list 000000018002ce98     libvcruntime:std_type_info.obj
 0002:0000ae98       $unwind$__scrt_uninitialize_crt 000000018002ce98     LIBCMT:utility.obj
 0002:0000ae98       $unwind$__std_exception_destroy 000000018002ce98     libvcruntime:std_exception.obj
 0002:0000ae98       $unwind$__acrt_AppPolicyGetProcessTerminationMethodInternal 000000018002ce98     libucrt:winapi_thunks.obj
 0002:0000ae98       $unwind$?GetTypeInfo@?$IDispatchImpl@UIOPOSCoinAcceptor@@$1?IID_IOPOSCoinAcceptor@@3U_GUID@@B$1?LIBID_OposCoinAcceptor_CCO@@3U3@B$00$0A@VCComTypeInfoHolder@ATL@@@ATL@@UEAAJIKPEAPEAUITypeInfo@@@Z 000000018002ce98     CoinAcceptor.obj
 0002:0000ae98       $unwind$__acrt_getptd_head 000000018002ce98     libucrt:per_thread_data.obj
 0002:0000ae98       $unwind$?get_RealTimeDataEnabled@COPOSCoinAcceptor@@UEAAJPEAF@Z 000000018002ce98     CoinAcceptorImpl.obj
 0002:0000ae98       $unwind$?DupWide@_CW@@AEAAXXZ 000000018002ce98     CWString.obj
 0002:0000ae98       $unwind$?get_CapRealTimeData@COPOSCoinAcceptor@@UEAAJPEAF@Z 000000018002ce98     CoinAcceptorImpl.obj
 0002:0000ae98       $unwind$?get_CapPauseDeposit@COPOSCoinAcceptor@@UEAAJPEAF@Z 000000018002ce98     CoinAcceptorImpl.obj
 0002:0000ae98       $unwind$?get_CapNearFullSensor@COPOSCoinAcceptor@@UEAAJPEAF@Z 000000018002ce98     CoinAcceptorImpl.obj
 0002:0000ae98       $unwind$?get_CapJamSensor@COPOSCoinAcceptor@@UEAAJPEAF@Z 000000018002ce98     CoinAcceptorImpl.obj
 0002:0000ae98       $unwind$?get_CapFullSensor@COPOSCoinAcceptor@@UEAAJPEAF@Z 000000018002ce98     CoinAcceptorImpl.obj
 0002:0000ae98       $unwind$?get_CapDiscrepancy@COPOSCoinAcceptor@@UEAAJPEAF@Z 000000018002ce98     CoinAcceptorImpl.obj
 0002:0000ae98       $unwind$?get_CapUpdateFirmware@COPOSCoinAcceptor@@UEAAJPEAF@Z 000000018002ce98     CoinAcceptorImpl.obj
 0002:0000ae98       $unwind$?get_CapCompareFirmwareVersion@COPOSCoinAcceptor@@UEAAJPEAF@Z 000000018002ce98     CoinAcceptorImpl.obj
 0002:0000ae98       $unwind$?get_CapUpdateStatistics@COPOSCoinAcceptor@@UEAAJPEAF@Z 000000018002ce98     CoinAcceptorImpl.obj
 0002:0000ae98       $unwind$?get_CapStatisticsReporting@COPOSCoinAcceptor@@UEAAJPEAF@Z 000000018002ce98     CoinAcceptorImpl.obj
 0002:0000ae98       $unwind$fegetenv           000000018002ce98     libucrt:fegetenv.obj
 0002:0000ae98       $unwind$fesetenv           000000018002ce98     libucrt:fesetenv.obj
 0002:0000ae98       $unwind$feholdexcept       000000018002ce98     libucrt:feholdexcept.obj
 0002:0000ae98       $unwind$?put_FreezeEvents@COPOSCoinAcceptor@@UEAAJF@Z 000000018002ce98     CoinAcceptorImpl.obj
 0002:0000ae98       $unwind$?get_FreezeEvents@COPOSCoinAcceptor@@UEAAJPEAF@Z 000000018002ce98     CoinAcceptorImpl.obj
 0002:0000ae98       $unwind$?Load@?$IPersistStreamInitImpl@VCOPOSCoinAcceptor@@@ATL@@UEAAJPEAUIStream@@@Z 000000018002ce98     CoinAcceptor.obj
 0002:0000ae98       $unwind$?GetClientSite@?$IOleObjectImpl@VCOPOSCoinAcceptor@@@ATL@@UEAAJPEAPEAUIOleClientSite@@@Z 000000018002ce98     CoinAcceptor.obj
 0002:0000ae98       $unwind$??1?$CComObject@VCOPOSCoinAcceptor@@@ATL@@UEAA@XZ 000000018002ce98     CoinAcceptor.obj
 0002:0000ae98       $unwind$__acrt_allocate_buffer_for_argv 000000018002ce98     libucrt:argv_parsing.obj
 0002:0000ae98       $unwind$__scrt_initialize_onexit_tables 000000018002ce98     LIBCMT:utility.obj
 0002:0000ae98       $unwind$__vcrt_freeptd     000000018002ce98     libvcruntime:per_thread_data.obj
 0002:0000ae98       $unwind$?get_DeviceEnabled@COPOSCoinAcceptor@@UEAAJPEAF@Z 000000018002ce98     CoinAcceptorImpl.obj
 0002:0000ae98       $unwind$?get_DataEventEnabled@COPOSCoinAcceptor@@UEAAJPEAF@Z 000000018002ce98     CoinAcceptorImpl.obj
 0002:0000ae98       $unwind$?get_Claimed@COPOSCoinAcceptor@@UEAAJPEAF@Z 000000018002ce98     CoinAcceptorImpl.obj
 0002:0000ae98       $unwind$strcpy_s           000000018002ce98     libucrt:strcpy_s.obj
 0002:0000ae98       $unwind$__acrt_FlsGetValue 000000018002ce98     libucrt:winapi_thunks.obj
 0002:0000ae98       $unwind$?SOProcessID@COPOSCoinAcceptor@@UEAAJPEAJ@Z 000000018002ce98     CoinAcceptorImpl.obj
 0002:0000ae98       $unwind$__vcrt_uninitialize_locks 000000018002ce98     libvcruntime:locks.obj
 0002:0000ae98       $unwind$__acrt_FlsFree     000000018002ce98     libucrt:winapi_thunks.obj
 0002:0000ae98       $unwind$?EventUninit@COPOSCoinAcceptor@@IEAAXXZ 000000018002ce98     CoinAcceptorImpl.obj
 0002:0000ae98       $unwind$??0exception@std@@QEAA@AEBV01@@Z 000000018002ce98     LIBCMT:throw_bad_alloc.obj
 0002:0000ae98       $unwind$_IsExceptionObjectToBeDestroyed 000000018002ce98     libvcruntime:ehhelpers.obj
 0002:0000ae98       $unwind$_CreateFrameInfo   000000018002ce98     libvcruntime:risctrnsctrl.obj
 0002:0000ae98       $unwind$?FreezeEvents@COPOSCoinAcceptor@@MEAAJH@Z 000000018002ce98     CoinAcceptorImpl.obj
 0002:0000ae98       $unwind$??1COPOSCoinAcceptor@@UEAA@XZ 000000018002ce98     CoinAcceptorImpl.obj
 0002:0000ae98       $unwind$??1CComControlBase@ATL@@UEAA@XZ 000000018002ce98     CoinAcceptorImpl.obj
 0002:0000ae98       $unwind$_callnewh          000000018002ce98     libucrt:new_handler.obj
 0002:0000ae98       $unwind$_SetThrowImageBase 000000018002ce98     libvcruntime:risctrnsctrl.obj
 0002:0000ae98       $unwind$_Init_thread_footer 000000018002ce98     LIBCMT:thread_safe_statics.obj
 0002:0000ae98       $unwind$??0bad_alloc@std@@QEAA@AEBV01@@Z 000000018002ce98     LIBCMT:throw_bad_alloc.obj
 0002:0000ae98       $unwind$?StateFromIp@__FrameHandler3@@SAHPEBU_s_FuncInfo@@PEAU_xDISPATCHER_CONTEXT@@_K@Z 000000018002ce98     libvcruntime:ehstate.obj
 0002:0000ae98       $unwind$??0?$CComObject@VCOPOSCoinAcceptor@@@ATL@@QEAA@PEAX@Z 000000018002ce98     CoinAcceptor.obj
 0002:0000ae98       $unwind$?QueryInterface@?$CComAggObject@VCOPOSCoinAcceptor@@@ATL@@UEAAJAEBU_GUID@@PEAPEAX@Z 000000018002ce98     CoinAcceptor.obj
 0002:0000ae98       $unwind$uninitialize_allocated_memory 000000018002ce98     libucrt:initialization.obj
 0002:0000ae98       $unwind$?Release@?$CComObjectCached@VCComClassFactory@ATL@@@ATL@@UEAAKXZ 000000018002ce98     CoinAcceptor.obj
 0002:0000ae98       $unwind$initialize_pointers 000000018002ce98     libucrt:initialization.obj
 0002:0000ae98       $unwind$??0bad_array_new_length@std@@QEAA@AEBV01@@Z 000000018002ce98     LIBCMT:throw_bad_alloc.obj
 0002:0000ae98       $unwind$?AddRef@?$CComObjectCached@VCComClassFactory@ATL@@@ATL@@UEAAKXZ 000000018002ce98     CoinAcceptor.obj
 0002:0000ae98       $unwind$_SetImageBase      000000018002ce98     libvcruntime:risctrnsctrl.obj
 0002:0000ae98       $unwind$?GetUnwindTryBlock@__FrameHandler3@@SAHPEA_KPEAU_xDISPATCHER_CONTEXT@@PEBU_s_FuncInfo@@@Z 000000018002ce98     libvcruntime:ehstate.obj
 0002:0000ae98       $unwind$_Init_thread_wait  000000018002ce98     LIBCMT:thread_safe_statics.obj
 0002:0000ae98       $unwind$?QueryHitPoint@?$IViewObjectExImpl@VCOPOSCoinAcceptor@@@ATL@@UEAAJKPEBUtagRECT@@UtagPOINT@@JPEAK@Z 000000018002ce98     CoinAcceptor.obj
 0002:0000ae98       $unwind$??__E_Module@@YAXXZ 000000018002ce98     CoinAcceptor.obj
 0002:0000ae98       $unwind$?GetConnMap@COPOSCoinAcceptor@@SAPEBU_ATL_CONNMAP_ENTRY@ATL@@PEAH@Z 000000018002ce98     CoinAcceptor.obj
 0002:0000ae98       $unwind$_Init_thread_header 000000018002ce98     LIBCMT:thread_safe_statics.obj
 0002:0000ae98       $unwind$?Unadvise@?$IConnectionPointImpl@VCOPOSCoinAcceptor@@$1?DIID__IOPOSCoinAcceptorEvents@@3U_GUID@@BVCComDynamicUnkArray@ATL@@@ATL@@UEAAJK@Z 000000018002ce98     CoinAcceptor.obj
 0002:0000ae98       $unwind$?IPSI_GetIPersistStreamInit@?$IPersistStorageImpl@VCOPOSCoinAcceptor@@@ATL@@AEAAPEAUIPersistStreamInit@@XZ 000000018002ce98     CoinAcceptor.obj
 0002:0000ae98       $unwind$?Unadvise@?$IConnectionPointImpl@VCOPOSCoinAcceptor@@$1?IID_IPropertyNotifySink@@3U_GUID@@BVCComDynamicUnkArray@ATL@@@ATL@@UEAAJK@Z 000000018002ce98     CoinAcceptor.obj
 0002:0000ae98       $unwind$?GetClassInfoW@?$IProvideClassInfo2Impl@$1?CLSID_OPOSCoinAcceptor@@3U_GUID@@B$1?DIID__IOPOSCoinAcceptorEvents@@3U2@B$1?LIBID_OposCoinAcceptor_CCO@@3U2@B$00$0A@VCComTypeInfoHolder@ATL@@@ATL@@UEAAJPEAPEAUITypeInfo@@@Z 000000018002ce98     CoinAcceptor.obj
 0002:0000ae98       $unwind$_fflush_nolock     000000018002ce98     libucrt:fflush.obj
 0002:0000ae98       $unwind$wcscat_s           000000018002ce98     libucrt:wcscat_s.obj
 0002:0000ae98       $unwind$_clearfp           000000018002ce98     libucrt:ieee.obj
 0002:0000ae98       $unwind$?IsEqualObject@?$CComPtrBase@UIOleClientSite@@@ATL@@QEAA_NPEAUIUnknown@@@Z 000000018002ce98     CoinAcceptor.obj
 0002:0000ae98       $unwind$__vcrt_FlsGetValue 000000018002ce98     libvcruntime:winapi_downlevel.obj
 0002:0000ae98       $unwind$??_Gtype_info@@UEAAPEAXI@Z 000000018002ce98     LIBCMT:std_type_info_static.obj
 0002:0000aea0       $unwind$__acrt_free_locale 000000018002cea0     libucrt:locale_refcounting.obj
 0002:0000aea0       $unwind$_recalloc_base     000000018002cea0     libucrt:recalloc.obj
 0002:0000aea0       $unwind$__scrt_dllmain_exception_filter 000000018002cea0     LIBCMT:utility.obj
 0002:0000aea0       $unwind$__acrt_lowio_create_handle_array 000000018002cea0     libucrt:osfinfo.obj
 0002:0000aea0       $unwind$?AtlWinModuleExtractCreateWndData@ATL@@YAPEAXPEAU_ATL_WIN_MODULE70@1@@Z 000000018002cea0     CoinAcceptor.obj
 0002:0000aea0       $unwind$??$ensure_buffer_is_big_enough@_W@formatting_buffer@__crt_stdio_output@@QEAA_N_K@Z 000000018002cea0     libucrt:output.obj
 0002:0000aea0       $unwind$?setSBCS@@YAXPEAU__crt_multibyte_data@@@Z 000000018002cea0     libucrt:mbctype.obj
 0002:0000aea0       $unwind$?GetHandlerSearchState@__FrameHandler3@@SAHPEA_KPEAU_xDISPATCHER_CONTEXT@@PEBU_s_FuncInfo@@@Z 000000018002cea0     libvcruntime:frame.obj
 0002:0000aea0       $unwind$?SetControlFocus@CComControlBase@ATL@@QEAAHH@Z 000000018002cea0     CoinAcceptor.obj
 0002:0000aea0       $unwind$?AtlWinModuleTerm@ATL@@YAJPEAU_ATL_WIN_MODULE70@1@PEAUHINSTANCE__@@@Z 000000018002cea0     OposVariant.obj
 0002:0000aea0       $unwind$?s_EventWindowProc@COPOSCoinAcceptor@@KA_JPEAUHWND__@@I_K_J@Z 000000018002cea0     CoinAcceptorImpl.obj
 0002:0000aea0       $unwind$?Next@?$CComEnumImpl@UIEnumConnections@@$1?_GUID_b196b287_bab4_101a_b69c_00aa00341d07@@3U__s_GUID@@BUtagCONNECTDATA@@V?$_Copy@UtagCONNECTDATA@@@ATL@@@ATL@@UEAAJKPEAUtagCONNECTDATA@@PEAK@Z 000000018002cea0     CoinAcceptor.obj
 0002:0000aea0       $unwind$_initterm          000000018002cea0     libucrt:initterm.obj
 0002:0000aea0       $unwind$?Is_bad_exception_allowed@@YAEPEBU_s_ESTypeList@@@Z 000000018002cea0     libvcruntime:frame.obj
 0002:0000aea0       $unwind$_seh_filter_exe    000000018002cea0     libucrt:exception_filter.obj
 0002:0000aea0       $unwind$??$ensure_buffer_is_big_enough@D@formatting_buffer@__crt_stdio_output@@QEAA_N_K@Z 000000018002cea0     libucrt:output.obj
 0002:0000aea0       $unwind$?Next@?$CComEnumImpl@UIEnumConnectionPoints@@$1?_GUID_b196b285_bab4_101a_b69c_00aa00341d07@@3U__s_GUID@@BPEAUIConnectionPoint@@V?$_CopyInterface@UIConnectionPoint@@@ATL@@@ATL@@UEAAJKPEAPEAUIConnectionPoint@@PEAK@Z 000000018002cea0     CoinAcceptor.obj
 0002:0000aea0       $unwind$?CreateInstance@?$CComCreator@V?$CComObject@VCOPOSCoinAcceptor@@@ATL@@@ATL@@SAJPEAXAEBU_GUID@@PEAPEAX@Z 000000018002cea0     CoinAcceptor.obj
 0002:0000aea0       $unwind$?DoVerb@?$IOleObjectImpl@VCOPOSCoinAcceptor@@@ATL@@UEAAJJPEAUtagMSG@@PEAUIOleClientSite@@JPEAUHWND__@@PEBUtagRECT@@@Z 000000018002cea0     CoinAcceptor.obj
 0002:0000aea0       $unwind$?HKeyFromString@CRegParser@ATL@@KAPEAUHKEY__@@PEA_W@Z 000000018002cea0     CoinAcceptor.obj
 0002:0000aea0       $unwind$?DoEvent@COPOSCoinAcceptor@@IEAAXI_K_J@Z 000000018002cea0     CoinAcceptor.obj
 0002:0000aea0       $unwind$?SODirectIO@COPOSCoinAcceptor@@MEAAJJPEAJPEAPEA_W@Z 000000018002cea0     CoinAcceptor.obj
 0002:0000aea0       $unwind$?Append@CParseBuffer@CRegParser@ATL@@QEAAHPEB_WH@Z 000000018002cea0     CoinAcceptor.obj
 0002:0000aeb4       $unwind$?SetString@OposVariant@@QEAAXPEB_WAEAJ@Z 000000018002ceb4     OposVariant.obj
 0002:0000aeb4       $unwind$__acrt_getptd_noexit 000000018002ceb4     libucrt:per_thread_data.obj
 0002:0000aeb4       $unwind$__acrt_getptd      000000018002ceb4     libucrt:per_thread_data.obj
 0002:0000aeb4       $unwind$__vcrt_getptd_noexit 000000018002ceb4     libvcruntime:per_thread_data.obj
 0002:0000aeb4       $unwind$?Advise@?$IOleObjectImpl@VCOPOSCoinAcceptor@@@ATL@@UEAAJPEAUIAdviseSink@@PEAK@Z 000000018002ceb4     CoinAcceptor.obj
 0002:0000aeb4       $unwind$?AtlCallTermFunc@ATL@@YAXPEAU_ATL_MODULE70@1@@Z 000000018002ceb4     CoinAcceptor.obj
 0002:0000aeb4       $unwind$?UnregisterServer@CComModule@ATL@@QEAAJHPEBU_GUID@@@Z 000000018002ceb4     CoinAcceptor.obj
 0002:0000aeb4       $unwind$??_GCRegObject@ATL@@UEAAPEAXI@Z 000000018002ceb4     CoinAcceptor.obj
 0002:0000aeb4       $unwind$_exception_enabled 000000018002ceb4     libucrt:libm_error.obj
 0002:0000aeb4       $unwind$memcpy_s           000000018002ceb4     libucrt:cfout.obj
 0002:0000aeb4       $unwind$__vcrt_InitializeCriticalSectionEx 000000018002ceb4     libvcruntime:winapi_downlevel.obj
 0002:0000aeb4       $unwind$?FrameUnwindToEmptyState@__FrameHandler3@@SAXPEA_KPEAU_xDISPATCHER_CONTEXT@@PEBU_s_FuncInfo@@@Z 000000018002ceb4     libvcruntime:risctrnsctrl.obj
 0002:0000aeb4       $unwind$?type_case_s@?$output_processor@_WV?$string_output_adapter@_W@__crt_stdio_output@@V?$format_validation_base@_WV?$string_output_adapter@_W@__crt_stdio_output@@@2@@__crt_stdio_output@@AEAA_NXZ 000000018002ceb4     libucrt:output.obj
 0002:0000aeb4       $unwind$?Add@CComDynamicUnkArray@ATL@@QEAAKPEAUIUnknown@@@Z 000000018002ceb4     CoinAcceptor.obj
 0002:0000aeb4       $unwind$??0OposDispParms@@QEAA@PEAVOposVariant@@H@Z 000000018002ceb4     OposVariant.obj
 0002:0000aeb4       $unwind$?type_case_Z@?$output_processor@_WV?$string_output_adapter@_W@__crt_stdio_output@@V?$format_validation_base@_WV?$string_output_adapter@_W@__crt_stdio_output@@@2@@__crt_stdio_output@@AEAA_NXZ 000000018002ceb4     libucrt:output.obj
 0002:0000aeb4       $unwind$?SetBSTR_InOutPtr@OposVariant@@QEAA_NPEAPEA_WAEAJ@Z 000000018002ceb4     OposVariant.obj
 0002:0000aeb4       $unwind$__acrt_execute_initializers 000000018002ceb4     libucrt:shared_initialization.obj
 0002:0000aeb4       $unwind$??0_LocaleUpdate@@QEAA@QEAU__crt_locale_pointers@@@Z 000000018002ceb4     libucrt:output.obj
 0002:0000aeb4       $unwind$?SetBSTR_Copy@OposVariant@@QEAAXPEA_WAEAJ@Z 000000018002ceb4     OposVariant.obj
 0002:0000aeb4       $unwind$__acrt_stdio_flush_nolock 000000018002ceb4     libucrt:fflush.obj
 0002:0000aeb4       $unwind$?Add@?$CSimpleArray@GV?$CSimpleArrayEqualHelper@G@ATL@@@ATL@@QEAAHAEBG@Z 000000018002ceb4     CoinAcceptor.obj
 0002:0000aeb4       $unwind$??_GCComModule@ATL@@UEAAPEAXI@Z 000000018002ceb4     CoinAcceptor.obj
 0002:0000aeb4       $unwind$?SetLONG_Ptr@OposVariant@@QEAAXPEAJAEAJ@Z 000000018002ceb4     OposVariant.obj
 0002:0000aeb4       $unwind$?Add@?$CSimpleMap@PEA_WPEA_WVCExpansionVectorEqualHelper@ATL@@@ATL@@QEAAHAEBQEA_W0@Z 000000018002ceb4     CoinAcceptor.obj
 0002:0000aeb4       $unwind$?ClearReplacements@CExpansionVector@ATL@@QEAAJXZ 000000018002ceb4     CoinAcceptor.obj
 0002:0000aeb4       $unwind$__acrt_InitializeCriticalSectionEx 000000018002ceb4     libucrt:winapi_thunks.obj
 0002:0000aeb4       $unwind$_DllMainCRTStartup 000000018002ceb4     LIBCMT:dll_dllmain.obj
 0002:0000aeb4       $unwind$?CatchTryBlock@__FrameHandler3@@SAPEBU_s_TryBlockMapEntry@@PEBU_s_FuncInfo@@H@Z 000000018002ceb4     libvcruntime:risctrnsctrl.obj
 0002:0000aeb4       $unwind$memcpy_s           000000018002ceb4     CoinAcceptor.obj
 0002:0000aeb4       $unwind$?free_crt_array_internal@@YAXQEAPEBX_K@Z 000000018002ceb4     libucrt:inittime.obj
 0002:0000aeb4       $unwind$?SetVARIANT_BOOL_Ptr@OposVariant@@QEAAXPEAFAEAJ@Z 000000018002ceb4     OposVariant.obj
 0002:0000aeb4       $unwind$?SetDispatch_Ptr@OposVariant@@QEAAXPEAUIDispatch@@AEAJ@Z 000000018002ceb4     OposVariant.obj
 0002:0000aeb4       $unwind$?VTFromRegType@CRegParser@ATL@@KAHPEB_WAEAG@Z 000000018002ceb4     CoinAcceptor.obj
 0002:0000aeb4       $unwind$?RegisterServer@CComModule@ATL@@QEAAJHPEBU_GUID@@@Z 000000018002ceb4     CoinAcceptor.obj
 0002:0000aeb4       $unwind$??$common_lseek_nolock@_J@@YA_JH_JH@Z 000000018002ceb4     libucrt:lseek.obj
 0002:0000aeb4       $unwind$?Term@CAtlComModule@ATL@@QEAAXXZ 000000018002ceb4     OposVariant.obj
 0002:0000aeb4       $unwind$?type_case_n@?$output_processor@_WV?$string_output_adapter@_W@__crt_stdio_output@@V?$format_validation_base@_WV?$string_output_adapter@_W@__crt_stdio_output@@@2@@__crt_stdio_output@@AEAA_NXZ 000000018002ceb4     libucrt:output.obj
 0002:0000aec4       $unwind$_FindAndUnlinkFrame 000000018002cec4     libvcruntime:risctrnsctrl.obj
 0002:0000aec4       $unwind$??1?$IConnectionPointImpl@VCOPOSCoinAcceptor@@$1?DIID__IOPOSCoinAcceptorEvents@@3U_GUID@@BVCComDynamicUnkArray@ATL@@@ATL@@QEAA@XZ 000000018002cec4     CoinAcceptorImpl.obj
 0002:0000aec4       $unwind$??1?$IConnectionPointImpl@VCOPOSCoinAcceptor@@$1?IID_IPropertyNotifySink@@3U_GUID@@BVCComDynamicUnkArray@ATL@@@ATL@@QEAA@XZ 000000018002cec4     CoinAcceptorImpl.obj
 0002:0000aec4       $unwind$??_G?$CComObject@V?$CComEnum@UIEnumConnections@@$1?_GUID_b196b287_bab4_101a_b69c_00aa00341d07@@3U__s_GUID@@BUtagCONNECTDATA@@V?$_Copy@UtagCONNECTDATA@@@ATL@@VCComSingleThreadModel@6@@ATL@@@ATL@@UEAAPEAXI@Z 000000018002cec4     CoinAcceptor.obj
 0002:0000aec4       $unwind$?CreateInstance@?$CComObject@V?$CComEnum@UIEnumConnections@@$1?_GUID_b196b287_bab4_101a_b69c_00aa00341d07@@3U__s_GUID@@BUtagCONNECTDATA@@V?$_Copy@UtagCONNECTDATA@@@ATL@@VCComSingleThreadModel@6@@ATL@@@ATL@@SAJPEAPEAV12@@Z 000000018002cec4     CoinAcceptor.obj
 0002:0000aec4       $unwind$?Release@?$CComObject@V?$CComEnum@UIEnumConnections@@$1?_GUID_b196b287_bab4_101a_b69c_00aa00341d07@@3U__s_GUID@@BUtagCONNECTDATA@@V?$_Copy@UtagCONNECTDATA@@@ATL@@VCComSingleThreadModel@6@@ATL@@@ATL@@UEAAKXZ 000000018002cec4     CoinAcceptor.obj
 0002:0000aec4       $unwind$??1?$CComEnumImpl@UIEnumConnections@@$1?_GUID_b196b287_bab4_101a_b69c_00aa00341d07@@3U__s_GUID@@BUtagCONNECTDATA@@V?$_Copy@UtagCONNECTDATA@@@ATL@@@ATL@@UEAA@XZ 000000018002cec4     CoinAcceptor.obj
 0002:0000aec4       $unwind$??_G?$CComObject@VCOPOSCoinAcceptor@@@ATL@@UEAAPEAXI@Z 000000018002cec4     CoinAcceptor.obj
 0002:0000aec4       $unwind$?Release@?$CComObject@VCOPOSCoinAcceptor@@@ATL@@UEAAKXZ 000000018002cec4     CoinAcceptor.obj
 0002:0000aec4       $unwind$??_G?$CComAggObject@VCOPOSCoinAcceptor@@@ATL@@UEAAPEAXI@Z 000000018002cec4     CoinAcceptor.obj
 0002:0000aec4       $unwind$??_G?$CComContainedObject@VCOPOSCoinAcceptor@@@ATL@@UEAAPEAXI@Z 000000018002cec4     CoinAcceptor.obj
 0002:0000aec4       $unwind$??0?$CComContainedObject@VCOPOSCoinAcceptor@@@ATL@@QEAA@PEAX@Z 000000018002cec4     CoinAcceptor.obj
 0002:0000aec4       $unwind$?Release@?$CComAggObject@VCOPOSCoinAcceptor@@@ATL@@UEAAKXZ 000000018002cec4     CoinAcceptor.obj
 0002:0000aec4       $unwind$??_G?$CComObjectCached@VCComClassFactory@ATL@@@ATL@@UEAAPEAXI@Z 000000018002cec4     CoinAcceptor.obj
 0002:0000aec4       $unwind$??_G?$CComObject@V?$CComEnum@UIEnumConnectionPoints@@$1?_GUID_b196b285_bab4_101a_b69c_00aa00341d07@@3U__s_GUID@@BPEAUIConnectionPoint@@V?$_CopyInterface@UIConnectionPoint@@@ATL@@VCComSingleThreadModel@6@@ATL@@@ATL@@UEAAPEAXI@Z 000000018002cec4     CoinAcceptor.obj
 0002:0000aec4       $unwind$?CreateInstance@?$CComObject@V?$CComEnum@UIEnumConnectionPoints@@$1?_GUID_b196b285_bab4_101a_b69c_00aa00341d07@@3U__s_GUID@@BPEAUIConnectionPoint@@V?$_CopyInterface@UIConnectionPoint@@@ATL@@VCComSingleThreadModel@6@@ATL@@@ATL@@SAJPEAPEAV12@@Z 000000018002cec4     CoinAcceptor.obj
 0002:0000aec4       $unwind$?Release@?$CComObject@V?$CComEnum@UIEnumConnectionPoints@@$1?_GUID_b196b285_bab4_101a_b69c_00aa00341d07@@3U__s_GUID@@BPEAUIConnectionPoint@@V?$_CopyInterface@UIConnectionPoint@@@ATL@@VCComSingleThreadModel@6@@ATL@@@ATL@@UEAAKXZ 000000018002cec4     CoinAcceptor.obj
 0002:0000aec4       $unwind$??1?$CComEnumImpl@UIEnumConnectionPoints@@$1?_GUID_b196b285_bab4_101a_b69c_00aa00341d07@@3U__s_GUID@@BPEAUIConnectionPoint@@V?$_CopyInterface@UIConnectionPoint@@@ATL@@@ATL@@UEAA@XZ 000000018002cec4     CoinAcceptor.obj
 0002:0000aec4       $unwind$DllMain            000000018002cec4     CoinAcceptor.obj
 0002:0000aec4       $unwind$?SOStatusUpdate@COPOSCoinAcceptor@@MEAAJJ@Z 000000018002cec4     CoinAcceptor.obj
 0002:0000aec4       $unwind$?SOData@COPOSCoinAcceptor@@MEAAJJ@Z 000000018002cec4     CoinAcceptor.obj
 0002:0000aec4       $unwind$?InitNew@?$IPersistStorageImpl@VCOPOSCoinAcceptor@@@ATL@@UEAAJPEAUIStorage@@@Z 000000018002cec4     CoinAcceptor.obj
 0002:0000aec4       $unwind$?IsDirty@?$IPersistStorageImpl@VCOPOSCoinAcceptor@@@ATL@@UEAAJXZ 000000018002cec4     CoinAcceptor.obj
 0002:0000aec4       $unwind$_close_nolock      000000018002cec4     libucrt:close.obj
 0002:0000aec4       $unwind$?SetAdvise@?$IViewObjectExImpl@VCOPOSCoinAcceptor@@@ATL@@UEAAJKKPEAUIAdviseSink@@@Z 000000018002cec4     CoinAcceptor.obj
 0002:0000aec4       $unwind$?IOleObject_SetClientSite@CComControlBase@ATL@@QEAAJPEAUIOleClientSite@@@Z 000000018002cec4     CoinAcceptor.obj
 0002:0000aec4       $unwind$??_GCComClassFactory@ATL@@UEAAPEAXI@Z 000000018002cec4     CoinAcceptor.obj
 0002:0000aec4       $unwind$?Term@CComModule@ATL@@QEAAXXZ 000000018002cec4     CoinAcceptor.obj
 0002:0000aec4       $unwind$?DeleteSubKey@CRegKey@ATL@@QEAAJPEB_W@Z 000000018002cec4     CoinAcceptor.obj
 0002:0000aec4       $unwind$?WriteToStream@CComBSTR@ATL@@QEAAJPEAUIStream@@@Z 000000018002cec4     CoinAcceptor.obj
 0002:0000aec4       $unwind$?SetBSTR@OposVariant@@QEAAXPEA_WAEAJ@Z 000000018002cec4     OposVariant.obj
 0002:0000aec4       $unwind$?SetLONG@OposVariant@@QEAAXJ@Z 000000018002cec4     OposVariant.obj
 0002:0000aec4       $unwind$?SetVARIANT_BOOL@OposVariant@@QEAAXF@Z 000000018002cec4     OposVariant.obj
 0002:0000aec4       $unwind$_fclose_nolock     000000018002cec4     libucrt:fclose.obj
 0002:0000aec4       $unwind$strncpy_s          000000018002cec4     libucrt:strncpy_s.obj
 0002:0000aec4       $unwind$__acrt_fp_strflt_to_string 000000018002cec4     libucrt:_fptostr.obj
 0002:0000aec4       $unwind$_updatetlocinfoEx_nolock 000000018002cec4     libucrt:locale_refcounting.obj
 0002:0000aec4       $unwind$__acrt_execute_uninitializers 000000018002cec4     libucrt:shared_initialization.obj
 0002:0000aec4       $unwind$?__scrt_initialize_thread_safe_statics@@YAHXZ 000000018002cec4     LIBCMT:thread_safe_statics.obj
 0002:0000aec4       $unwind$__acrt_uninitialize_lowio 000000018002cec4     libucrt:ioinit.obj
 0002:0000aec4       $unwind$__acrt_LocaleNameToLCID 000000018002cec4     libucrt:winapi_thunks.obj
 0002:0000aec4       $unwind$__acrt_FlsSetValue 000000018002cec4     libucrt:winapi_thunks.obj
 0002:0000aec4       $unwind$_realloc_base      000000018002cec4     libucrt:realloc_base.obj
 0002:0000aec4       $unwind$_RTC_Initialize    000000018002cec4     LIBCMT:initsect.obj
 0002:0000aec4       $unwind$_RTC_Terminate     000000018002cec4     LIBCMT:initsect.obj
 0002:0000aec4       $unwind$??_Gexception@std@@UEAAPEAXI@Z 000000018002cec4     LIBCMT:throw_bad_alloc.obj
 0002:0000aec4       $unwind$_initterm_e        000000018002cec4     libucrt:initterm.obj
 0002:0000aec4       $unwind$??_Gbad_alloc@std@@UEAAPEAXI@Z 000000018002cec4     LIBCMT:throw_bad_alloc.obj
 0002:0000aec4       $unwind$??_Gbad_array_new_length@std@@UEAAPEAXI@Z 000000018002cec4     LIBCMT:throw_bad_alloc.obj
 0002:0000aec4       $unwind$??0CAtlBaseModule@ATL@@QEAA@XZ 000000018002cec4     atls:atlbase.obj
 0002:0000aec4       $unwind$??$common_initialize_environment_nolock@D@@YAHXZ 000000018002cec4     libucrt:environment_initialization.obj
 0002:0000aec4       $unwind$AtlThunk_DataToCode 000000018002cec4     atls:atlthunk.obj
 0002:0000aec4       $unwind$?__InitializeThunkPool@@YAHXZ 000000018002cec4     atls:atlthunk.obj
 0002:0000aec4       $unwind$?__AllocStdCallThunk_cmn@@YAPEAXXZ 000000018002cec4     atls:atlthunk.obj
 0002:0000aec4       $unwind$??$GetProcAddressAll@P6AP6A_JPEAUHWND__@@I_K_J@ZPEAUAtlThunkData_t@@@Z@@YAP6AP6A_JPEAUHWND__@@I_K_J@ZPEAUAtlThunkData_t@@@ZPEAP6AP6A_J0I12@Z3@Z@Z 000000018002cec4     atls:atlthunk.obj
 0002:0000aec4       $unwind$??$GetProcAddressAll@P6APEAUAtlThunkData_t@@XZ@@YAP6APEAUAtlThunkData_t@@XZPEAP6APEAU0@XZ@Z 000000018002cec4     atls:atlthunk.obj
 0002:0000aec4       $unwind$??$GetProcAddressAll@P6AXPEAUAtlThunkData_t@@PEAX_K@Z@@YAP6AXPEAUAtlThunkData_t@@PEAX_K@ZPEAP6AX012@Z@Z 000000018002cec4     atls:atlthunk.obj
 0002:0000aec4       $unwind$??$GetProcAddressAll@P6AXPEAUAtlThunkData_t@@@Z@@YAP6AXPEAUAtlThunkData_t@@@ZPEAP6AX0@Z@Z 000000018002cec4     atls:atlthunk.obj
 0002:0000aec4       $unwind$?replace_current_thread_locale_nolock@@YAXQEAU__acrt_ptd@@QEAU__crt_locale_data@@@Z 000000018002cec4     libucrt:per_thread_data.obj
 0002:0000aec4       $unwind$wcsncpy_s          000000018002cec4     libucrt:wcsncpy_s.obj
 0002:0000aec4       $unwind$__acrt_errno_map_os_error 000000018002cec4     libucrt:errno.obj
 0002:0000aec4       $unwind$__vcrt_FlsSetValue 000000018002cec4     libvcruntime:winapi_downlevel.obj
 0002:0000aec4       $unwind$??_Gbad_exception@std@@UEAAPEAXI@Z 000000018002cec4     libvcruntime:frame.obj
 0002:0000aec4       $unwind$?SetUnwindTryBlock@__FrameHandler3@@SAXPEA_KPEAU_xDISPATCHER_CONTEXT@@PEBU_s_FuncInfo@@H@Z 000000018002cec4     libvcruntime:ehstate.obj
 0002:0000aed0       $unwind$?ChangeBSTR@OposVariant@@QEAAXPEAPEA_WAEAJ@Z 000000018002ced0     OposVariant.obj
 0002:0000aed0       $unwind$?ChangeLONG@OposVariant@@QEAAXPEAJAEAJ@Z 000000018002ced0     OposVariant.obj
 0002:0000aed0       $unwind$?x_ismbbtype_l@@YAHPEAU__crt_locale_pointers@@IHH@Z 000000018002ced0     libucrt:ismbbyte.obj
 0002:0000aee0       $unwind$swprintf_s         000000018002cee0     CoinAcceptor.obj
 0002:0000aef0       $unwind$?_AtlVerifyStackAvailable@_ATL_SAFE_ALLOCA_IMPL@ATL@@YA_N_K@Z 000000018002cef0     CoinAcceptor.obj
 0002:0000af1c       $unwind$?fin$1@?0??FrameUnwindToState@__FrameHandler3@@SAXPEA_KPEAU_xDISPATCHER_CONTEXT@@PEBU_s_FuncInfo@@H@Z@4HA 000000018002cf1c     libvcruntime:frame.obj
 0002:0000af1c       $unwind$?filt$0@?0??FrameUnwindToState@__FrameHandler3@@SAXPEA_KPEAU_xDISPATCHER_CONTEXT@@PEBU_s_FuncInfo@@H@Z@4HA 000000018002cf1c     libvcruntime:frame.obj
 0002:0000af1c       $unwind$__acrt_initialize_lowio$fin$0 000000018002cf1c     libucrt:ioinit.obj
 0002:0000af1c       $unwind$?fin$0@?0??dllmain_crt_process_attach@@YAHQEAUHINSTANCE__@@QEAX@Z@4HA 000000018002cf1c     LIBCMT:dll_dllmain.obj
 0002:0000af1c       $unwind$_IsNonwritableInCurrentImage$filt$0 000000018002cf1c     LIBCMT:pesect.obj
 0002:0000af1c       $unwind$?fin$0@?0??dllmain_crt_process_detach@@YAH_N@Z@4HA 000000018002cf1c     LIBCMT:dll_dllmain.obj
 0002:0000af1c       $unwind$_ctrlfp$filt$0     000000018002cf1c     libucrt:fpctrl.obj
 0002:0000af1c       $unwind$?fin$0@?0???$?RV<lambda_2d41944a1d46af3157314b8a01080d33>@@AEAV<lambda_8f455de75cd7d7f24b4096f044d8b9e6>@@V<lambda_aa500f224e6afead328df44964fe2772>@@@?$__crt_seh_guarded_call@X@@QEAAX$$QEAV<lambda_2d41944a1d46af3157314b8a01080d33>@@AEAV<lambda_8f455de75cd7d7f24b4096f044d8b9e6>@@$$QEAV<lambda_aa500f224e6afead328df44964fe2772>@@@Z@4HA 000000018002cf1c     libucrt:per_thread_data.obj
 0002:0000af1c       $unwind$?filt$0@?0??CxxCallCatchBlock@__FrameHandler3@@SAPEAXPEAU_EXCEPTION_RECORD@@@Z@4HA 000000018002cf1c     libvcruntime:frame.obj
 0002:0000af1c       $unwind$_fcloseall$fin$0   000000018002cf1c     libucrt:closeall.obj
 0002:0000af1c       $unwind$?fin$0@?0???$?RV<lambda_f2e299630e499de9f9a165e60fcd3db5>@@AEAV<lambda_2ae9d31cdba2644fcbeaf08da7c24588>@@V<lambda_40d01ff24d0e7b3814fdbdcee8eab3c7>@@@?$__crt_seh_guarded_call@X@@QEAAX$$QEAV<lambda_f2e299630e499de9f9a165e60fcd3db5>@@AEAV<lambda_2ae9d31cdba2644fcbeaf08da7c24588>@@$$QEAV<lambda_40d01ff24d0e7b3814fdbdcee8eab3c7>@@@Z@4HA 000000018002cf1c     libucrt:per_thread_data.obj
 0002:0000af1c       $unwind$?fin$0@?0???$?RV<lambda_aa87e3671a710a21b5dc78c0bdf72e11>@@AEAV<lambda_92619d2358a28f41a33ba319515a20b9>@@V<lambda_6992ecaafeb10aed2b74cb1fae11a551>@@@?$__crt_seh_guarded_call@X@@QEAAX$$QEAV<lambda_aa87e3671a710a21b5dc78c0bdf72e11>@@AEAV<lambda_92619d2358a28f41a33ba319515a20b9>@@$$QEAV<lambda_6992ecaafeb10aed2b74cb1fae11a551>@@@Z@4HA 000000018002cf1c     libucrt:per_thread_data.obj
 0002:0000af1c       $unwind$raise$fin$0        000000018002cf1c     libucrt:signal.obj
 0002:0000af1c       $unwind$__acrt_update_thread_locale_data$fin$0 000000018002cf1c     libucrt:locale_refcounting.obj
 0002:0000af1c       $unwind$?fin$0@?0???$?RV<lambda_0ae27a3a962d80f24befdcbee591983d>@@AEAV<lambda_8d0ee55de4b1038c4002e0adecdf1839>@@V<lambda_dc504788e8f1664fe9b84e20bfb512f2>@@@?$__crt_seh_guarded_call@X@@QEAAX$$QEAV<lambda_0ae27a3a962d80f24befdcbee591983d>@@AEAV<lambda_8d0ee55de4b1038c4002e0adecdf1839>@@$$QEAV<lambda_dc504788e8f1664fe9b84e20bfb512f2>@@@Z@4HA 000000018002cf1c     libucrt:per_thread_data.obj
 0002:0000af1c       $unwind$?fin$0@?0???$?RV<lambda_450d765d439847d4c735a33c368b5fc0>@@AEAV<lambda_44731a7d0e6d81c3e6aa82d741081786>@@V<lambda_601a2a7da3b7a96e9554ac7215c4b07c>@@@?$__crt_seh_guarded_call@P6AXH@Z@@QEAAP6AXH@Z$$QEAV<lambda_450d765d439847d4c735a33c368b5fc0>@@AEAV<lambda_44731a7d0e6d81c3e6aa82d741081786>@@$$QEAV<lambda_601a2a7da3b7a96e9554ac7215c4b07c>@@@Z@4HA 000000018002cf1c     libucrt:signal.obj
 0002:0000af1c       $unwind$?fin$0@?0???$?RV<lambda_751a882b2c74d4b022dec766aa51a29a>@@AEAV<lambda_628dfdc04ba53c8bfc02c9951375f3f5>@@V<lambda_f6c7be5f7998530c34de24c7437d6b54>@@@?$__crt_seh_guarded_call@H@@QEAAH$$QEAV<lambda_751a882b2c74d4b022dec766aa51a29a>@@AEAV<lambda_628dfdc04ba53c8bfc02c9951375f3f5>@@$$QEAV<lambda_f6c7be5f7998530c34de24c7437d6b54>@@@Z@4HA 000000018002cf1c     libucrt:close.obj
 0002:0000af1c       $unwind$?fin$0@?0???$?RV<lambda_7777bce6b2f8c936911f934f8298dc43>@@AEAV<lambda_f03950bc5685219e0bcd2087efbe011e>@@V<lambda_3883c3dff614d5e0c5f61bb1ac94921c>@@@?$__crt_seh_guarded_call@H@@QEAAH$$QEAV<lambda_7777bce6b2f8c936911f934f8298dc43>@@AEAV<lambda_f03950bc5685219e0bcd2087efbe011e>@@$$QEAV<lambda_3883c3dff614d5e0c5f61bb1ac94921c>@@@Z@4HA 000000018002cf1c     libucrt:onexit.obj
 0002:0000af1c       $unwind$fclose$fin$0       000000018002cf1c     libucrt:fclose.obj
 0002:0000af1c       $unwind$?fin$0@?0???$?RV<lambda_886d6c58226a84441f68b9f2b8217b83>@@AEAV<lambda_ab61a845afdef5b7c387490eaf3616ee>@@V<lambda_f7f22ab5edc0698d5f6905b0d3f44752>@@@?$__crt_seh_guarded_call@X@@QEAAX$$QEAV<lambda_886d6c58226a84441f68b9f2b8217b83>@@AEAV<lambda_ab61a845afdef5b7c387490eaf3616ee>@@$$QEAV<lambda_f7f22ab5edc0698d5f6905b0d3f44752>@@@Z@4HA 000000018002cf1c     libucrt:fflush.obj
 0002:0000af1c       $unwind$_write$fin$0       000000018002cf1c     libucrt:write.obj
 0002:0000af1c       $unwind$?fin$0@?0??update_thread_multibyte_data_internal@@YAPEAU__crt_multibyte_data@@QEAU__acrt_ptd@@QEAPEAU1@@Z@4HA 000000018002cf1c     libucrt:mbctype.obj
 0002:0000af1c       $unwind$?fin$0@?0???$?RV<lambda_a37b2b86f63e897a80ea819b0eb08c01>@@AEAV<lambda_38ce7e780aa69e748d6df282ebc68efe>@@V<lambda_99fb1378e971ab6e7edea83e3a7a83a2>@@@?$__crt_seh_guarded_call@H@@QEAAH$$QEAV<lambda_a37b2b86f63e897a80ea819b0eb08c01>@@AEAV<lambda_38ce7e780aa69e748d6df282ebc68efe>@@$$QEAV<lambda_99fb1378e971ab6e7edea83e3a7a83a2>@@@Z@4HA 000000018002cf1c     libucrt:commit.obj
 0002:0000af1c       $unwind$?fin$0@?0???$?RV<lambda_638799b9deba96c50f710eeac98168cd>@@AEAV<lambda_22ebabd17bc4fa466a2aca6d8deb888d>@@V<lambda_a6f7d7db0129f75315ebf26d50c089f1>@@@?$__crt_seh_guarded_call@H@@QEAAH$$QEAV<lambda_638799b9deba96c50f710eeac98168cd>@@AEAV<lambda_22ebabd17bc4fa466a2aca6d8deb888d>@@$$QEAV<lambda_a6f7d7db0129f75315ebf26d50c089f1>@@@Z@4HA 000000018002cf1c     libucrt:onexit.obj
 0002:0000af1c       $unwind$_query_new_handler$fin$0 000000018002cf1c     libucrt:new_handler.obj
 0002:0000af1c       $unwind$?fin$0@?0???$?RV<lambda_842d9ff0dc9ef11c61343bbaebe7f885>@@AEAV<lambda_c5860995281e5c4ce005b3de8f5874ee>@@V<lambda_d90129c13df834fdcbf8d2b88dafcf2d>@@@?$__crt_seh_guarded_call@X@@QEAAX$$QEAV<lambda_842d9ff0dc9ef11c61343bbaebe7f885>@@AEAV<lambda_c5860995281e5c4ce005b3de8f5874ee>@@$$QEAV<lambda_d90129c13df834fdcbf8d2b88dafcf2d>@@@Z@4HA 000000018002cf1c     libucrt:fflush.obj
 0002:0000af1c       $unwind$__DestructExceptionObject$filt$0 000000018002cf1c     libvcruntime:ehhelpers.obj
 0002:0000af1c       $unwind$?fin$0@?0???$?RV<lambda_d80eeec6fff315bfe5c115232f3240e3>@@AEAV<lambda_6e4b09c48022b2350581041d5f6b0c4c>@@V<lambda_2358e3775559c9db80273638284d5e45>@@@?$__crt_seh_guarded_call@X@@QEAAX$$QEAV<lambda_d80eeec6fff315bfe5c115232f3240e3>@@AEAV<lambda_6e4b09c48022b2350581041d5f6b0c4c>@@$$QEAV<lambda_2358e3775559c9db80273638284d5e45>@@@Z@4HA 000000018002cf1c     libucrt:exit.obj
 0002:0000af1c       $unwind$__acrt_lowio_ensure_fh_exists$fin$0 000000018002cf1c     libucrt:osfinfo.obj
 0002:0000af1c       $unwind$?fin$0@?0???$?RV<lambda_410d79af7f07d98d83a3f525b3859a53>@@AEAV<lambda_3e16ef9562a7dcce91392c22ab16ea36>@@V<lambda_38119f0e861e05405d8a144b9b982f0a>@@@?$__crt_seh_guarded_call@X@@QEAAX$$QEAV<lambda_410d79af7f07d98d83a3f525b3859a53>@@AEAV<lambda_3e16ef9562a7dcce91392c22ab16ea36>@@$$QEAV<lambda_38119f0e861e05405d8a144b9b982f0a>@@@Z@4HA 000000018002cf1c     libucrt:wsetlocale.obj
 0002:0000af1c       $unwind$?fin$0@?0???$?RV<lambda_efdfa57d1f175319df784efa44bb7b81>@@AEAV<lambda_5f0a4c1567f8adc6734073e5d1e1b35c>@@V<lambda_2e8a7d3640ea6ccb4c2413664c2db6fd>@@@?$__crt_seh_guarded_call@X@@QEAAX$$QEAV<lambda_efdfa57d1f175319df784efa44bb7b81>@@AEAV<lambda_5f0a4c1567f8adc6734073e5d1e1b35c>@@$$QEAV<lambda_2e8a7d3640ea6ccb4c2413664c2db6fd>@@@Z@4HA 000000018002cf1c     libucrt:mbctype.obj
 0002:0000af1c       $unwind$?filt$0@?0???R<lambda_6e4b09c48022b2350581041d5f6b0c4c>@@QEBA@XZ@4HA 000000018002cf1c     libucrt:exit.obj
 0002:0000af1c       $unwind$?filt$0@?0??_AtlVerifyStackAvailable@_ATL_SAFE_ALLOCA_IMPL@ATL@@YA_N_K@Z@4HA 000000018002cf1c     CoinAcceptor.obj
 0002:0000af24       $unwind$?AtlInternalOleLoadFromStream@ATL@@YAJPEAUIStream@@AEBU_GUID@@PEAPEAXTClassesAllowedInStream@1@K@Z 000000018002cf24     CoinAcceptor.obj
 0002:0000af40       $unwind$?Close@COPOSCoinAcceptor@@UEAAJPEAJ@Z 000000018002cf40     CoinAcceptorImpl.obj
 0002:0000af40       $unwind$?PutProperty@?$CComPtr@UIDispatch@@@ATL@@SAJPEAUIDispatch@@JPEAUtagVARIANT@@@Z 000000018002cf40     CoinAcceptor.obj
 0002:0000af4c       $unwind$?ReadFromStream@CComBSTR@ATL@@QEAAJPEAUIStream@@@Z 000000018002cf4c     CoinAcceptor.obj
 0002:0000af4c       $unwind$_configure_narrow_argv 000000018002cf4c     libucrt:argv_parsing.obj
 0002:0000af60       $unwind$?WriteToStream@CComVariant@ATL@@QEAAJPEAUIStream@@@Z 000000018002cf60     CoinAcceptor.obj
 0002:0000af74       $unwind$??$__acrt_wcs_to_mbs_cp@U__crt_win32_buffer_no_resizing@@@@YAHQEB_WAEAV?$__crt_win32_buffer@DU__crt_win32_buffer_no_resizing@@@@I@Z 000000018002cf74     libucrt:getmodulefilenamea.obj
 0002:0000af74       $unwind$?WriteToStream@CComVariant@ATL@@QEAAJPEAUIStream@@G@Z 000000018002cf74     CoinAcceptor.obj
 0002:0000af74       $unwind$?RegOpenKeyExW@CAtlTransactionManager@ATL@@QEAAJPEAUHKEY__@@PEB_WKKPEAPEAU3@@Z 000000018002cf74     CoinAcceptor.obj
 0002:0000af74       $unwind$__dcrt_write_console 000000018002cf74     libucrt:initcon.obj
 0002:0000af88       $unwind$?ReadFromStream@CComVariant@ATL@@QEAAJPEAUIStream@@GTClassesAllowedInStream@2@K@Z 000000018002cf88     CoinAcceptor.obj
 0002:0000afa0       $unwind$?GetSizeMax@CComVariant@ATL@@QEBAJPEAT_ULARGE_INTEGER@@@Z 000000018002cfa0     CoinAcceptor.obj
 0002:0000afb8       $unwind$__acrt_fp_format   000000018002cfb8     libucrt:cvt.obj
 0002:0000afb8       $unwind$?RegCreateKeyExW@CAtlTransactionManager@ATL@@QEAAJPEAUHKEY__@@PEB_WKPEA_WKKQEAU_SECURITY_ATTRIBUTES@@PEAPEAU3@PEAK@Z 000000018002cfb8     CoinAcceptor.obj
 0002:0000afcc       $unwind$?RegDeleteKeyW@CAtlTransactionManager@ATL@@QEAAJPEAUHKEY__@@PEB_W@Z 000000018002cfcc     CoinAcceptor.obj
 0002:0000afcc       $unwind$strpbrk            000000018002cfcc     libucrt:strpbrk.obj
 0002:0000afcc       $unwind$?GetGITPtr@CAtlModule@ATL@@UEAAJPEAPEAUIGlobalInterfaceTable@@@Z 000000018002cfcc     CoinAcceptor.obj
 0002:0000afdc       $unwind$?AtlHiMetricToPixel@ATL@@YAXPEBUtagSIZE@@PEAU2@@Z 000000018002cfdc     CoinAcceptor.obj
 0002:0000afdc       $unwind$?AtlInternalQueryInterface@ATL@@YAJPEAXPEBU_ATL_INTMAP_ENTRY@1@AEBU_GUID@@PEAPEAX@Z 000000018002cfdc     CoinAcceptor.obj
 0002:0000aff4       $unwind$__acrt_DownlevelLocaleNameToLCID 000000018002cff4     libucrt:lcidtoname_downlevel.obj
 0002:0000aff4       $unwind$??R<lambda_f03950bc5685219e0bcd2087efbe011e>@@QEBAHXZ 000000018002cff4     libucrt:onexit.obj
 0002:0000aff4       $unwind$?NextToken@CRegParser@ATL@@IEAAJPEA_W@Z 000000018002cff4     CoinAcceptor.obj
 0002:0000aff4       $unwind$?Init@?$CComEnumImpl@UIEnumConnections@@$1?_GUID_b196b287_bab4_101a_b69c_00aa00341d07@@3U__s_GUID@@BUtagCONNECTDATA@@V?$_Copy@UtagCONNECTDATA@@@ATL@@@ATL@@QEAAJPEAUtagCONNECTDATA@@0PEAUIUnknown@@W4CComEnumFlags@2@@Z 000000018002cff4     CoinAcceptor.obj
 0002:0000aff4       $unwind$?AtlComModuleGetClassObject@ATL@@YAJPEAU_ATL_COM_MODULE70@1@AEBU_GUID@@1PEAPEAX@Z 000000018002cff4     CoinAcceptor.obj
 0002:0000aff4       $unwind$?type_case_integer@?$output_processor@_WV?$string_output_adapter@_W@__crt_stdio_output@@V?$format_validation_base@_WV?$string_output_adapter@_W@__crt_stdio_output@@@2@@__crt_stdio_output@@AEAA_NI_N@Z 000000018002cff4     libucrt:output.obj
 0002:0000aff4       $unwind$?GetClassObject@CComModule@ATL@@QEAAJAEBU_GUID@@0PEAPEAX@Z 000000018002cff4     CoinAcceptor.obj
 0002:0000aff4       $unwind$?Init@?$CComEnumImpl@UIEnumConnectionPoints@@$1?_GUID_b196b285_bab4_101a_b69c_00aa00341d07@@3U__s_GUID@@BPEAUIConnectionPoint@@V?$_CopyInterface@UIConnectionPoint@@@ATL@@@ATL@@QEAAJPEAPEAUIConnectionPoint@@0PEAUIUnknown@@W4CComEnumFlags@2@@Z 000000018002cff4     CoinAcceptor.obj
 0002:0000b00c       $unwind$?AtlRegisterClassCategoriesHelper@ATL@@YAJAEBU_GUID@@PEBU_ATL_CATMAP_ENTRY@1@H@Z 000000018002d00c     CoinAcceptor.obj
 0002:0000b030       $unwind$?AtlLoadTypeLib@ATL@@YAJPEAUHINSTANCE__@@PEB_WPEAPEA_WPEAPEAUITypeLib@@@Z 000000018002d030     CoinAcceptor.obj
 0002:0000b050       $unwind$?AtlRegisterTypeLib@ATL@@YAJPEAUHINSTANCE__@@PEB_W@Z 000000018002d050     CoinAcceptor.obj
 0002:0000b06c       $unwind$?AtlUnRegisterTypeLib@ATL@@YAJPEAUHINSTANCE__@@PEB_W@Z 000000018002d06c     CoinAcceptor.obj
 0002:0000b074       $unwind$?atlCreate@CRegKey@ATL@@QEAAJPEAUHKEY__@@PEB_WPEA_WKKPEAU_SECURITY_ATTRIBUTES@@PEAK@Z 000000018002d074     CoinAcceptor.obj
 0002:0000b080       $unwind$?Open@CRegKey@ATL@@QEAAJPEAUHKEY__@@PEB_WK@Z 000000018002d080     CoinAcceptor.obj
 0002:0000b08c       $unwind$?RecurseDeleteKey@CRegKey@ATL@@QEAAJPEB_W@Z 000000018002d08c     CoinAcceptor.obj
 0002:0000b0a8       $unwind$?UpdateRegistryFromResource@CAtlModule@ATL@@QEAAJIHPEAU_ATL_REGMAP_ENTRY@2@@Z 000000018002d0a8     CoinAcceptor.obj
 0002:0000b0a8       $unwind$?UpdateRegistryFromResource@CAtlModule@ATL@@QEAAJPEB_WHPEAU_ATL_REGMAP_ENTRY@2@@Z 000000018002d0a8     CoinAcceptor.obj
 0002:0000b0c8       $unwind$?Lookup@?$CSimpleMap@PEA_WPEA_WVCExpansionVectorEqualHelper@ATL@@@ATL@@QEBAPEA_WAEBQEA_W@Z 000000018002d0c8     CoinAcceptor.obj
 0002:0000b0c8       $unwind$_free_osfhnd       000000018002d0c8     libucrt:osfinfo.obj
 0002:0000b0c8       $unwind$__std_exception_copy 000000018002d0c8     libvcruntime:std_exception.obj
 0002:0000b0dc       $unwind$?Add@CExpansionVector@ATL@@QEAAHPEB_W0@Z 000000018002d0dc     CoinAcceptor.obj
 0002:0000b0f4       $unwind$?PreProcessBuffer@CRegParser@ATL@@QEAAJPEA_WPEAPEA_W@Z 000000018002d0f4     CoinAcceptor.obj
 0002:0000b118       $unwind$?RegisterBuffer@CRegParser@ATL@@QEAAJPEA_WH@Z 000000018002d118     CoinAcceptor.obj
 0002:0000b138       $unwind$?AddValue@CRegParser@ATL@@IEAAJAEAVCRegKey@2@PEB_WPEA_W@Z 000000018002d138     CoinAcceptor.obj
 0002:0000b158       $unwind$?RegisterSubkeys@CRegParser@ATL@@IEAAJPEA_WPEAUHKEY__@@HH@Z 000000018002d158     CoinAcceptor.obj
 0002:0000b178       $unwind$?SkipAssignment@CRegParser@ATL@@IEAAJPEA_W@Z 000000018002d178     CoinAcceptor.obj
 0002:0000b190       $unwind$?RegisterFromResource@CRegObject@ATL@@IEAAJPEB_W00H@Z 000000018002d190     CoinAcceptor.obj
 0002:0000b1b0       $unwind$?AtlIPersistStreamInit_Load@ATL@@YAJPEAUIStream@@PEBUATL_PROPMAP_ENTRY@1@PEAXPEAUIUnknown@@@Z 000000018002d1b0     CoinAcceptor.obj
 0002:0000b1c8       $unwind$?AtlIPersistStreamInit_Save@ATL@@YAJPEAUIStream@@HPEBUATL_PROPMAP_ENTRY@1@PEAXPEAUIUnknown@@@Z 000000018002d1c8     CoinAcceptor.obj
 0002:0000b1e4       $unwind$?GetTI@CComTypeInfoHolder@ATL@@QEAAJK@Z 000000018002d1e4     CoinAcceptor.obj
 0002:0000b204       $unwind$AtlThunk_FreeData  000000018002d204     atls:atlthunk.obj
 0002:0000b204       $unwind$?destroy_fls@@YAXPEAX@Z 000000018002d204     libucrt:per_thread_data.obj
 0002:0000b204       $unwind$__acrt_locale_free_lc_time_if_unreferenced 000000018002d204     libucrt:locale_refcounting.obj
 0002:0000b204       $unwind$__acrt_locale_free_numeric 000000018002d204     libucrt:initnum.obj
 0002:0000b204       $unwind$?Cleanup@CComTypeInfoHolder@ATL@@SAX_K@Z 000000018002d204     CoinAcceptor.obj
 0002:0000b204       $unwind$_free_base         000000018002d204     libucrt:free_base.obj
 0002:0000b20c       $unwind$?GetIDsOfNames@CComTypeInfoHolder@ATL@@QEAAJAEBU_GUID@@PEAPEA_WIKPEAJ@Z 000000018002d20c     CoinAcceptor.obj
 0002:0000b228       $unwind$?LoadNameCache@CComTypeInfoHolder@ATL@@QEAAJPEAUITypeInfo@@@Z 000000018002d228     CoinAcceptor.obj
 0002:0000b23c       $unwind$?StartWindowProc@?$CWindowImplBaseT@VCWindow@ATL@@V?$CWinTraits@$0FGAAAAAA@$0A@@2@@ATL@@SA_JPEAUHWND__@@I_K_J@Z 000000018002d23c     CoinAcceptor.obj
 0002:0000b23c       $unwind$??$parse_command_line@D@@YAXPEADPEAPEAD0PEA_K2@Z 000000018002d23c     libucrt:argv_parsing.obj
 0002:0000b258       $unwind$?WindowProc@?$CWindowImplBaseT@VCWindow@ATL@@V?$CWinTraits@$0FGAAAAAA@$0A@@2@@ATL@@SA_JPEAUHWND__@@I_K_J@Z 000000018002d258     CoinAcceptor.obj
 0002:0000b270       $unwind$?atlCreate@?$CWindowImplBaseT@VCWindow@ATL@@V?$CWinTraits@$0FGAAAAAA@$0A@@2@@ATL@@QEAAPEAUHWND__@@PEAU3@V_U_RECT@2@PEB_WKKV_U_MENUorID@2@GPEAX@Z 000000018002d270     CoinAcceptor.obj
 0002:0000b288       $unwind$??$AtlModuleRegisterWndClassInfoT@VAtlModuleRegisterWndClassInfoParamW@ATL@@@ATL@@YAGPEAU_ATL_BASE_MODULE70@0@PEAU_ATL_WIN_MODULE70@0@PEAU_ATL_WNDCLASSINFOW@0@PEAP6A_JPEAUHWND__@@I_K_J@ZVAtlModuleRegisterWndClassInfoParamW@0@@Z 000000018002d288     CoinAcceptor.obj
 0002:0000b2a8       $unwind$?GetZoomInfo@CComControlBase@ATL@@QEAAXAEAUATL_DRAWINFO@@@Z 000000018002d2a8     CoinAcceptor.obj
 0002:0000b2a8       $unwind$iswctype           000000018002d2a8     libucrt:iswctype.obj
 0002:0000b2a8       $unwind$?OnKillFocus@CComControlBase@ATL@@QEAA_JI_K_JAEAH@Z 000000018002d2a8     CoinAcceptor.obj
 0002:0000b2b4       $unwind$?SendOnDataChange@CComControlBase@ATL@@QEAAJK@Z 000000018002d2b4     CoinAcceptor.obj
 0002:0000b2c4       $unwind$?OnSetFocus@CComControlBase@ATL@@QEAA_JI_K_JAEAH@Z 000000018002d2c4     CoinAcceptor.obj
 0002:0000b2d4       $unwind$?OnMouseActivate@CComControlBase@ATL@@QEAA_JI_K_JAEAH@Z 000000018002d2d4     CoinAcceptor.obj
 0002:0000b2dc       $unwind$?GetAmbientLocaleID@CComControlBase@ATL@@QEAAJAEAK@Z 000000018002d2dc     CoinAcceptor.obj
 0002:0000b2dc       $unwind$?GetAmbientUserMode@CComControlBase@ATL@@QEAAJAEAH@Z 000000018002d2dc     CoinAcceptor.obj
 0002:0000b2ec       $unwind$?IQuickActivate_QuickActivate@CComControlBase@ATL@@QEAAJPEAUtagQACONTAINER@@PEAUtagQACONTROL@@@Z 000000018002d2ec     CoinAcceptor.obj
 0002:0000b304       $unwind$?DoVerbProperties@CComControlBase@ATL@@QEAAJPEBUtagRECT@@PEAUHWND__@@@Z 000000018002d304     CoinAcceptor.obj
 0002:0000b31c       $unwind$?InPlaceActivate@CComControlBase@ATL@@QEAAJJPEBUtagRECT@@@Z 000000018002d31c     CoinAcceptor.obj
 0002:0000b33c       $unwind$?IOleObject_Close@CComControlBase@ATL@@QEAAJK@Z 000000018002d33c     CoinAcceptor.obj
 0002:0000b33c       $unwind$?type_case_c_tchar@?$output_processor@_WV?$string_output_adapter@_W@__crt_stdio_output@@V?$format_validation_base@_WV?$string_output_adapter@_W@__crt_stdio_output@@@2@@__crt_stdio_output@@AEAA_N_W@Z 000000018002d33c     libucrt:output.obj
 0002:0000b34c       $unwind$?IOleInPlaceObject_UIDeactivate@CComControlBase@ATL@@QEAAJXZ 000000018002d34c     CoinAcceptor.obj
 0002:0000b364       $unwind$?IOleInPlaceObject_SetObjectRects@CComControlBase@ATL@@QEAAJPEBUtagRECT@@0@Z 000000018002d364     CoinAcceptor.obj
 0002:0000b378       $unwind$?IViewObject_Draw@CComControlBase@ATL@@QEAAJKJPEAXPEAUtagDVTARGETDEVICE@@PEAUHDC__@@2PEBU_RECTL@@3@Z 000000018002d378     CoinAcceptor.obj
 0002:0000b394       $unwind$?IDataObject_GetData@CComControlBase@ATL@@QEAAJPEAUtagFORMATETC@@PEAUtagSTGMEDIUM@@@Z 000000018002d394     CoinAcceptor.obj
 0002:0000b3b4       $unwind$?OnPaint@CComControlBase@ATL@@QEAA_JI_K_JAEAH@Z 000000018002d3b4     CoinAcceptor.obj
 0002:0000b3d0       $unwind$?OnDrawAdvanced@CComControlBase@ATL@@UEAAJAEAUATL_DRAWINFO@@@Z 000000018002d3d0     CoinAcceptor.obj
 0002:0000b3e8       $unwind$_mbsdec_l          000000018002d3e8     libucrt:mbsdec.obj
 0002:0000b3e8       $unwind$?Invoke@?$IDispatchImpl@UIOPOSCoinAcceptor@@$1?IID_IOPOSCoinAcceptor@@3U_GUID@@B$1?LIBID_OposCoinAcceptor_CCO@@3U3@B$00$0A@VCComTypeInfoHolder@ATL@@@ATL@@UEAAJJAEBU_GUID@@KGPEAUtagDISPPARAMS@@PEAUtagVARIANT@@PEAUtagEXCEPINFO@@PEAI@Z 000000018002d3e8     CoinAcceptor.obj
 0002:0000b3e8       $unwind$?ReleaseDevice@COPOSCoinAcceptor@@UEAAJPEAJ@Z 000000018002d3e8     CoinAcceptorImpl.obj
 0002:0000b3f4       $unwind$?atlCreate@?$CWindowImpl@VCOPOSCoinAcceptor@@VCWindow@ATL@@V?$CWinTraits@$0FGAAAAAA@$0A@@3@@ATL@@QEAAPEAUHWND__@@PEAU3@V_U_RECT@2@PEB_WKKV_U_MENUorID@2@PEAX@Z 000000018002d3f4     CoinAcceptor.obj
 0002:0000b3f4       $unwind$?fp_format_e@@YAHQEBNQEAD_K12H_NIQEAU__crt_locale_pointers@@@Z 000000018002d3f4     libucrt:cvt.obj
 0002:0000b3f4       $unwind$_mbtowc_l          000000018002d3f4     libucrt:mbtowc.obj
 0002:0000b3f4       $unwind$__acrt_LCMapStringEx 000000018002d3f4     libucrt:winapi_thunks.obj
 0002:0000b408       $unwind$?__scrt_throw_std_bad_array_new_length@@YAXXZ 000000018002d408     LIBCMT:throw_bad_alloc.obj
 0002:0000b408       $unwind$?CreateControlWindow@?$CComControl@VCOPOSCoinAcceptor@@V?$CWindowImpl@VCOPOSCoinAcceptor@@VCWindow@ATL@@V?$CWinTraits@$0FGAAAAAA@$0A@@3@@ATL@@@ATL@@UEAAPEAUHWND__@@PEAU3@AEAUtagRECT@@@Z 000000018002d408     CoinAcceptor.obj
 0002:0000b408       $unwind$?ClearInput@COPOSCoinAcceptor@@UEAAJPEAJ@Z 000000018002d408     CoinAcceptorImpl.obj
 0002:0000b408       $unwind$_raise_exc         000000018002d408     libucrt:fpexcept.obj
 0002:0000b408       $unwind$?FixDeposit@COPOSCoinAcceptor@@UEAAJPEAJ@Z 000000018002d408     CoinAcceptorImpl.obj
 0002:0000b408       $unwind$?BeginDeposit@COPOSCoinAcceptor@@UEAAJPEAJ@Z 000000018002d408     CoinAcceptorImpl.obj
 0002:0000b408       $unwind$?__scrt_throw_std_bad_alloc@@YAXXZ 000000018002d408     LIBCMT:throw_bad_alloc.obj
 0002:0000b410       $unwind$?Save@?$IPersistStreamInitImpl@VCOPOSCoinAcceptor@@@ATL@@UEAAJPEAUIStream@@H@Z 000000018002d410     CoinAcceptor.obj
 0002:0000b410       $unwind$__stdio_common_vswprintf_s 000000018002d410     libucrt:output.obj
 0002:0000b41c       $unwind$?GetSizeMax@?$IPersistStreamInitImpl@VCOPOSCoinAcceptor@@@ATL@@UEAAJPEAT_ULARGE_INTEGER@@@Z 000000018002d41c     CoinAcceptor.obj
 0002:0000b434       $unwind$?DoVerbPrimary@?$IOleObjectImpl@VCOPOSCoinAcceptor@@@ATL@@QEAAJPEBUtagRECT@@PEAUHWND__@@@Z 000000018002d434     CoinAcceptor.obj
 0002:0000b44c       $unwind$?TranslateAcceleratorW@?$IOleInPlaceActiveObjectImpl@VCOPOSCoinAcceptor@@@ATL@@UEAAJPEAUtagMSG@@@Z 000000018002d44c     CoinAcceptor.obj
 0002:0000b458       $unwind$?Draw@?$IViewObjectExImpl@VCOPOSCoinAcceptor@@@ATL@@UEAAJKJPEAXPEAUtagDVTARGETDEVICE@@PEAUHDC__@@2PEBU_RECTL@@3P6AH_K@Z4@Z 000000018002d458     CoinAcceptor.obj
 0002:0000b460       $unwind$?QueryHitRect@?$IViewObjectExImpl@VCOPOSCoinAcceptor@@@ATL@@UEAAJKPEBUtagRECT@@0JPEAK@Z 000000018002d460     CoinAcceptor.obj
 0002:0000b470       $unwind$?OnWindowMessage@?$IOleInPlaceObjectWindowlessImpl@VCOPOSCoinAcceptor@@@ATL@@UEAAJI_K_JPEA_J@Z 000000018002d470     CoinAcceptor.obj
 0002:0000b484       $unwind$?EnumConnectionPoints@?$IConnectionPointContainerImpl@VCOPOSCoinAcceptor@@@ATL@@UEAAJPEAPEAUIEnumConnectionPoints@@@Z 000000018002d484     CoinAcceptor.obj
 0002:0000b4ac       $unwind$?__mbrtoc32_utf8@__crt_mbstring@@YA_KPEA_UPEBD_KPEAU_Mbstatet@@@Z 000000018002d4ac     libucrt:mbrtoc32.obj
 0002:0000b4ac       $unwind$?FindConnectionPoint@?$IConnectionPointContainerImpl@VCOPOSCoinAcceptor@@@ATL@@UEAAJAEBU_GUID@@PEAPEAUIConnectionPoint@@@Z 000000018002d4ac     CoinAcceptor.obj
 0002:0000b4c8       $unwind$?Load@?$IPersistStorageImpl@VCOPOSCoinAcceptor@@@ATL@@UEAAJPEAUIStorage@@@Z 000000018002d4c8     CoinAcceptor.obj
 0002:0000b4d8       $unwind$?Save@?$IPersistStorageImpl@VCOPOSCoinAcceptor@@@ATL@@UEAAJPEAUIStorage@@H@Z 000000018002d4d8     CoinAcceptor.obj
 0002:0000b4ec       $unwind$?DAdvise@?$IDataObjectImpl@VCOPOSCoinAcceptor@@@ATL@@UEAAJPEAUtagFORMATETC@@KPEAUIAdviseSink@@PEAK@Z 000000018002d4ec     CoinAcceptor.obj
 0002:0000b4ec       $unwind$??$__acrt_mbs_to_wcs_cp@U__crt_win32_buffer_internal_dynamic_resizing@@@@YAHQEBDAEAV?$__crt_win32_buffer@_WU__crt_win32_buffer_internal_dynamic_resizing@@@@I@Z 000000018002d4ec     libucrt:argv_wildcards.obj
 0002:0000b504       $unwind$?GetInterfaceSafetyOptions@?$IObjectSafetyImpl@VCOPOSCoinAcceptor@@$02@ATL@@UEAAJAEBU_GUID@@PEAK1@Z 000000018002d504     CoinAcceptor.obj
 0002:0000b518       $unwind$?SetInterfaceSafetyOptions@?$IObjectSafetyImpl@VCOPOSCoinAcceptor@@$02@ATL@@UEAAJAEBU_GUID@@KK@Z 000000018002d518     CoinAcceptor.obj
 0002:0000b52c       $unwind$?Advise@?$IConnectionPointImpl@VCOPOSCoinAcceptor@@$1?IID_IPropertyNotifySink@@3U_GUID@@BVCComDynamicUnkArray@ATL@@@ATL@@UEAAJPEAUIUnknown@@PEAK@Z 000000018002d52c     CoinAcceptor.obj
 0002:0000b52c       $unwind$?Advise@?$IConnectionPointImpl@VCOPOSCoinAcceptor@@$1?DIID__IOPOSCoinAcceptorEvents@@3U_GUID@@BVCComDynamicUnkArray@ATL@@@ATL@@UEAAJPEAUIUnknown@@PEAK@Z 000000018002d52c     CoinAcceptor.obj
 0002:0000b540       $unwind$??$create_environment@D@@YAQEAPEADQEAD@Z 000000018002d540     libucrt:environment_initialization.obj
 0002:0000b540       $unwind$?EnumConnections@?$IConnectionPointImpl@VCOPOSCoinAcceptor@@$1?IID_IPropertyNotifySink@@3U_GUID@@BVCComDynamicUnkArray@ATL@@@ATL@@UEAAJPEAPEAUIEnumConnections@@@Z 000000018002d540     CoinAcceptor.obj
 0002:0000b540       $unwind$?EnumConnections@?$IConnectionPointImpl@VCOPOSCoinAcceptor@@$1?DIID__IOPOSCoinAcceptorEvents@@3U_GUID@@BVCComDynamicUnkArray@ATL@@@ATL@@UEAAJPEAPEAUIEnumConnections@@@Z 000000018002d540     CoinAcceptor.obj
 0002:0000b558       $unwind$?Fire_StatusUpdateEvent@?$CProxy_IOPOSEvents@VCOPOSCoinAcceptor@@@@QEAAXJ@Z 000000018002d558     CoinAcceptor.obj
 0002:0000b558       $unwind$??$__InternalCxxFrameHandler@V__FrameHandler3@@@@YA?AW4_EXCEPTION_DISPOSITION@@PEAUEHExceptionRecord@@PEA_KPEAU_CONTEXT@@PEAU_xDISPATCHER_CONTEXT@@PEBU_s_FuncInfo@@H1E@Z 000000018002d558     libvcruntime:frame.obj
 0002:0000b558       $unwind$?Fire_DataEvent@?$CProxy_IOPOSEvents@VCOPOSCoinAcceptor@@@@QEAAXJ@Z 000000018002d558     CoinAcceptor.obj
 0002:0000b570       $unwind$?Fire_DirectIOEvent@?$CProxy_IOPOSEvents@VCOPOSCoinAcceptor@@@@QEAAXJPEAJPEAPEA_W@Z 000000018002d570     CoinAcceptor.obj
 0002:0000b590       $unwind$?FireTheEvent@?$CProxy_IOPOSEvents@VCOPOSCoinAcceptor@@@@IEAAXPEAVOposVariant@@IAEAJPEB_WJ@Z 000000018002d590     CoinAcceptor.obj
 0002:0000b5a0       $unwind$??$__acrt_wcs_to_mbs_cp@U__crt_win32_buffer_internal_dynamic_resizing@@@@YAHQEB_WAEAV?$__crt_win32_buffer@DU__crt_win32_buffer_internal_dynamic_resizing@@@@I@Z 000000018002d5a0     libucrt:argv_wildcards.obj
 0002:0000b5a0       $unwind$__dcrt_get_narrow_environment_from_os 000000018002d5a0     libucrt:get_environment_from_os.obj
 0002:0000b5a0       $unwind$?ProcessWindowMessage@COPOSCoinAcceptor@@UEAAHPEAUHWND__@@I_K_JAEA_JK@Z 000000018002d5a0     CoinAcceptor.obj
 0002:0000b5a0       $unwind$?fp_format_f_internal@@YAHQEAD_KHQEAU_strflt@@_NQEAU__crt_locale_pointers@@@Z 000000018002d5a0     libucrt:cvt.obj
 0002:0000b5b8       $unwind$?Clone@?$CComEnumImpl@UIEnumConnectionPoints@@$1?_GUID_b196b285_bab4_101a_b69c_00aa00341d07@@3U__s_GUID@@BPEAUIConnectionPoint@@V?$_CopyInterface@UIConnectionPoint@@@ATL@@@ATL@@UEAAJPEAPEAUIEnumConnectionPoints@@@Z 000000018002d5b8     CoinAcceptor.obj
 0002:0000b5b8       $unwind$?Clone@?$CComEnumImpl@UIEnumConnections@@$1?_GUID_b196b287_bab4_101a_b69c_00aa00341d07@@3U__s_GUID@@BUtagCONNECTDATA@@V?$_Copy@UtagCONNECTDATA@@@ATL@@@ATL@@UEAAJPEAPEAUIEnumConnections@@@Z 000000018002d5b8     CoinAcceptor.obj
 0002:0000b5d0       $unwind$?GetOposProp@COPOSCoinAcceptor@@IEAAJJPEAJJ@Z 000000018002d5d0     CoinAcceptorImpl.obj
 0002:0000b5d0       $unwind$?GetOposProp@COPOSCoinAcceptor@@IEAAJJPEAPEA_WJ@Z 000000018002d5d0     CoinAcceptorImpl.obj
 0002:0000b5e8       $unwind$?SetOposProp@COPOSCoinAcceptor@@IEAAJJJJ@Z 000000018002d5e8     CoinAcceptorImpl.obj
 0002:0000b608       $unwind$?SetOposProp@COPOSCoinAcceptor@@IEAAJJPEA_WJ@Z 000000018002d608     CoinAcceptorImpl.obj
 0002:0000b624       $unwind$?DoInvoke@COPOSCoinAcceptor@@IEAAJJPEAVOposVariant@@IHPEAJ_N@Z 000000018002d624     CoinAcceptorImpl.obj
 0002:0000b63c       $unwind$?SetCOFreezeEvents@COPOSCoinAcceptor@@IEAAXF@Z 000000018002d63c     CoinAcceptorImpl.obj
 0002:0000b650       $unwind$?OnDraw@COPOSCoinAcceptor@@MEAAJAEAUATL_DRAWINFO@@@Z 000000018002d650     CoinAcceptorImpl.obj
 0002:0000b668       $unwind$?EventInit@COPOSCoinAcceptor@@IEAAJXZ 000000018002d668     CoinAcceptorImpl.obj
 0002:0000b67c       $unwind$?EventWindowProc@COPOSCoinAcceptor@@IEAA_JI_K_J@Z 000000018002d67c     CoinAcceptorImpl.obj
 0002:0000b68c       $unwind$__dcrt_lowio_ensure_console_output_initialized 000000018002d68c     libucrt:initcon.obj
 0002:0000b68c       $unwind$?get_ControlObjectDescription@COPOSCoinAcceptor@@UEAAJPEAPEA_W@Z 000000018002d68c     CoinAcceptorImpl.obj
 0002:0000b68c       $unwind$_isleadbyte_l      000000018002d68c     libucrt:_wctype.obj
 0002:0000b68c       $unwind$?getSystemCP@@YAHH@Z 000000018002d68c     libucrt:mbctype.obj
 0002:0000b694       $unwind$?ResetStatistics@COPOSCoinAcceptor@@UEAAJPEA_WPEAJ@Z 000000018002d694     CoinAcceptorImpl.obj
 0002:0000b694       $unwind$?PauseDeposit@COPOSCoinAcceptor@@UEAAJJPEAJ@Z 000000018002d694     CoinAcceptorImpl.obj
 0002:0000b694       $unwind$?UpdateStatistics@COPOSCoinAcceptor@@UEAAJPEA_WPEAJ@Z 000000018002d694     CoinAcceptorImpl.obj
 0002:0000b694       $unwind$?RetrieveStatistics@COPOSCoinAcceptor@@UEAAJPEAPEA_WPEAJ@Z 000000018002d694     CoinAcceptorImpl.obj
 0002:0000b694       $unwind$?AdjustCashCounts@COPOSCoinAcceptor@@UEAAJPEA_WPEAJ@Z 000000018002d694     CoinAcceptorImpl.obj
 0002:0000b694       $unwind$?CheckHealth@COPOSCoinAcceptor@@UEAAJJPEAJ@Z 000000018002d694     CoinAcceptorImpl.obj
 0002:0000b694       $unwind$?UpdateFirmware@COPOSCoinAcceptor@@UEAAJPEA_WPEAJ@Z 000000018002d694     CoinAcceptorImpl.obj
 0002:0000b694       $unwind$?EndDeposit@COPOSCoinAcceptor@@UEAAJJPEAJ@Z 000000018002d694     CoinAcceptorImpl.obj
 0002:0000b6a4       $unwind$?ClaimDevice@COPOSCoinAcceptor@@UEAAJJPEAJ@Z 000000018002d6a4     CoinAcceptorImpl.obj
 0002:0000b6b4       $unwind$?DirectIO@COPOSCoinAcceptor@@UEAAJJPEAJPEAPEA_W0@Z 000000018002d6b4     CoinAcceptorImpl.obj
 0002:0000b6d0       $unwind$?Open@COPOSCoinAcceptor@@UEAAJPEA_WPEAJ@Z 000000018002d6d0     CoinAcceptorImpl.obj
 0002:0000b6f4       $unwind$?initialize_inherited_file_handles_nolock@@YAXXZ 000000018002d6f4     libucrt:ioinit.obj
 0002:0000b6f4       $unwind$?CompareFirmwareVersion@COPOSCoinAcceptor@@UEAAJPEA_WPEAJ1@Z 000000018002d6f4     CoinAcceptorImpl.obj
 0002:0000b6f4       $unwind$?ReadCashCounts@COPOSCoinAcceptor@@UEAAJPEAPEA_WPEAFPEAJ@Z 000000018002d6f4     CoinAcceptorImpl.obj
 0002:0000b710       $unwind$__scrt_is_nonwritable_in_current_image 000000018002d710     LIBCMT:utility.obj
 0002:0000b730       $unwind$__scrt_is_nonwritable_in_current_image$filt$0 000000018002d730     LIBCMT:utility.obj
 0002:0000b738       $unwind$__report_securityfailure 000000018002d738     LIBCMT:gs_report.obj
 0002:0000b740       $unwind$__report_gsfailure 000000018002d740     LIBCMT:gs_report.obj
 0002:0000b748       $unwind$capture_current_context 000000018002d748     LIBCMT:gs_report.obj
 0002:0000b754       $unwind$capture_previous_context 000000018002d754     LIBCMT:gs_report.obj
 0002:0000b760       $unwind$??2@YAPEAX_KAEBUnothrow_t@std@@@Z 000000018002d760     LIBCMT:new_scalar_nothrow.obj
 0002:0000b770       $stateUnwindMap$??2@YAPEAX_KAEBUnothrow_t@std@@@Z 000000018002d770     LIBCMT:new_scalar_nothrow.obj
 0002:0000b780       $tryMap$??2@YAPEAX_KAEBUnothrow_t@std@@@Z 000000018002d780     LIBCMT:new_scalar_nothrow.obj
 0002:0000b794       $handlerMap$0$??2@YAPEAX_KAEBUnothrow_t@std@@@Z 000000018002d794     LIBCMT:new_scalar_nothrow.obj
 0002:0000b7a8       $ip2state$??2@YAPEAX_KAEBUnothrow_t@std@@@Z 000000018002d7a8     LIBCMT:new_scalar_nothrow.obj
 0002:0000b7b0       $unwind$?catch$0@?0???2@YAPEAX_KAEBUnothrow_t@std@@@Z@4HA 000000018002d7b0     LIBCMT:new_scalar_nothrow.obj
 0002:0000b7c0       $unwind$__GSHandlerCheckCommon 000000018002d7c0     LIBCMT:gshandler.obj
 0002:0000b7c0       $unwind$__acrt_WideCharToMultiByte 000000018002d7c0     libucrt:widechartomultibyte.obj
 0002:0000b7c8       $xdatasym                  000000018002d7c8     LIBCMT:chkstk.obj
 0002:0000b7d0       $xdatasym                  000000018002d7d0     LIBCMT:amdsecgs.obj
 0002:0000b7d4       $unwind$?dllmain_crt_process_attach@@YAHQEAUHINSTANCE__@@QEAX@Z 000000018002d7d4     LIBCMT:dll_dllmain.obj
 0002:0000b810       $unwind$?dllmain_crt_process_detach@@YAH_N@Z 000000018002d810     LIBCMT:dll_dllmain.obj
 0002:0000b844       $unwind$?dllmain_dispatch@@YAHQEAUHINSTANCE__@@KQEAX@Z 000000018002d844     LIBCMT:dll_dllmain.obj
 0002:0000b86c       $unwind$?filt$0@?0??dllmain_dispatch@@YAHQEAUHINSTANCE__@@KQEAX@Z@4HA 000000018002d86c     LIBCMT:dll_dllmain.obj
 0002:0000b874       $unwind$__isa_available_init 000000018002d874     LIBCMT:cpu_disp.obj
 0002:0000b884       $unwind$__scrt_fastfail    000000018002d884     LIBCMT:utility_desktop.obj
 0002:0000b894       $unwind$__security_init_cookie 000000018002d894     LIBCMT:gs_support.obj
 0002:0000b8a0       $xdatasym                  000000018002d8a0     LIBCMT:guard_dispatch.obj
 0002:0000b8a4       $unwind$AtlThunk_InitData  000000018002d8a4     atls:atlthunk.obj
 0002:0000b8b8       $unwind$wcsstr             000000018002d8b8     libvcruntime:wcsstr.obj
 0002:0000b8d0       $xdatasym                  000000018002d8d0     libvcruntime:memcmp.obj
 0002:0000b8d8       $xdatasym                  000000018002d8d8     libvcruntime:memcpy.obj
 0002:0000b8e8       $xdatasym                  000000018002d8e8     libvcruntime:memset.obj
 0002:0000b8f8       $unwind$__C_specific_handler 000000018002d8f8     libvcruntime:riscchandler.obj
 0002:0000b914       $unwind$?GetEstablisherFrame@__FrameHandler3@@SAPEA_KPEA_KPEAU_xDISPATCHER_CONTEXT@@PEBU_s_FuncInfo@@0@Z 000000018002d914     libvcruntime:risctrnsctrl.obj
 0002:0000b92c       $unwind$?UnwindNestedFrames@__FrameHandler3@@SAXPEA_KPEAUEHExceptionRecord@@PEAU_CONTEXT@@0PEAXPEBU_s_FuncInfo@@HHPEBU_s_HandlerType@@PEAU_xDISPATCHER_CONTEXT@@E@Z 000000018002d92c     libvcruntime:risctrnsctrl.obj
 0002:0000b940       $unwind$?GetRangeOfTrysToCheck@__FrameHandler3@@SA?AU?$pair@Viterator@TryBlockMap@__FrameHandler3@@V123@@std@@AEAVTryBlockMap@1@HPEAU_xDISPATCHER_CONTEXT@@PEBU_s_FuncInfo@@H@Z 000000018002d940     libvcruntime:risctrnsctrl.obj
 0002:0000b958       $unwind$__CxxFrameHandler3 000000018002d958     libvcruntime:risctrnsctrl.obj
 0002:0000b96c       $unwind$??$_CallSETranslator@V__FrameHandler3@@@@YAHPEAUEHExceptionRecord@@PEA_KPEAU_CONTEXT@@PEAU_xDISPATCHER_CONTEXT@@PEBU_s_FuncInfo@@K1@Z 000000018002d96c     libvcruntime:risctrnsctrl.obj
 0002:0000b98c       $unwind$?filt$0@?0???$_CallSETranslator@V__FrameHandler3@@@@YAHPEAUEHExceptionRecord@@PEA_KPEAU_CONTEXT@@PEAU_xDISPATCHER_CONTEXT@@PEBU_s_FuncInfo@@K1@Z@4HA 000000018002d98c     libvcruntime:risctrnsctrl.obj
 0002:0000b998       $unwind$_CxxThrowException 000000018002d998     libvcruntime:throw.obj
 0002:0000b9a8       $xdatasym                  000000018002d9a8     libvcruntime:notify.obj
 0002:0000b9b4       $unwind$__DestructExceptionObject 000000018002d9b4     libvcruntime:ehhelpers.obj
 0002:0000b9d4       $unwind$?FrameUnwindToState@__FrameHandler3@@SAXPEA_KPEAU_xDISPATCHER_CONTEXT@@PEBU_s_FuncInfo@@H@Z 000000018002d9d4     libvcruntime:frame.obj
 0002:0000ba20       $unwind$?CxxCallCatchBlock@__FrameHandler3@@SAPEAXPEAU_EXCEPTION_RECORD@@@Z 000000018002da20     libvcruntime:frame.obj
 0002:0000ba5c       $unwind$?fin$1@?0??CxxCallCatchBlock@__FrameHandler3@@SAPEAXPEAU_EXCEPTION_RECORD@@@Z@4HA 000000018002da5c     libvcruntime:frame.obj
 0002:0000ba68       $unwind$?IsInExceptionSpec@@YAEPEAUEHExceptionRecord@@PEBU_s_ESTypeList@@@Z 000000018002da68     libvcruntime:frame.obj
 0002:0000ba84       $unwind$??$BuildCatchObjectHelperInternal@V__FrameHandler3@@@@YAHPEAUEHExceptionRecord@@PEAXPEBU_s_HandlerType@@PEBU_s_CatchableType@@@Z 000000018002da84     libvcruntime:frame.obj
 0002:0000bac4       $unwind$??$BuildCatchObjectInternal@V__FrameHandler3@@@@YAXPEAUEHExceptionRecord@@PEAXPEBU_s_HandlerType@@PEBU_s_CatchableType@@@Z 000000018002dac4     libvcruntime:frame.obj
 0002:0000baf0       $unwind$??$FindHandler@V__FrameHandler3@@@@YAXPEAUEHExceptionRecord@@PEA_KPEAU_CONTEXT@@PEAU_xDISPATCHER_CONTEXT@@PEBU_s_FuncInfo@@EH1@Z 000000018002daf0     libvcruntime:frame.obj
 0002:0000bb10       $unwind$??$CatchIt@V__FrameHandler3@@@@YAXPEAUEHExceptionRecord@@PEA_KPEAU_CONTEXT@@PEAU_xDISPATCHER_CONTEXT@@PEBU_s_FuncInfo@@PEBU_s_HandlerType@@PEBU_s_CatchableType@@PEBU_s_TryBlockMapEntry@@H1EE@Z 000000018002db10     libvcruntime:frame.obj
 0002:0000bb28       $unwind$??$FindHandlerForForeignException@V__FrameHandler3@@@@YAXPEAUEHExceptionRecord@@PEA_KPEAU_CONTEXT@@PEAU_xDISPATCHER_CONTEXT@@PEBU_s_FuncInfo@@HH1@Z 000000018002db28     libvcruntime:frame.obj
 0002:0000bb44       $unwind$?try_get_function@@YAPEAXW4function_id@?A0x391cf84c@@QEBDQEBW4module_id@2@2@Z 000000018002db44     libucrt:winapi_thunks.obj
 0002:0000bb44       $unwind$?try_get_function@@YAPEAXW4function_id@?A0x656504f9@@QEBDQEBW4module_id@2@2@Z 000000018002db44     libvcruntime:winapi_downlevel.obj
 0002:0000bb60       $xdatasym                  000000018002db60     libvcruntime:handlers.obj
 0002:0000bb80       $unwind$__acrt_call_reportfault 000000018002db80     libucrt:invalid_parameter.obj
 0002:0000bba0       $unwind$_invalid_parameter 000000018002dba0     libucrt:invalid_parameter.obj
 0002:0000bbb4       $unwind$_resetstkoflw      000000018002dbb4     libucrt:resetstk.obj
 0002:0000bbd8       $unwind$?write_string@?$string_output_adapter@_W@__crt_stdio_output@@QEBAXQEB_WHQEAHAEAV__crt_deferred_errno_cache@@@Z 000000018002dbd8     libucrt:output.obj
 0002:0000bbf0       $unwind$??$common_vsprintf@Vformat_validation_base@__crt_stdio_output@@_W@@YAH_KQEA_W0QEB_WQEAU__crt_locale_pointers@@QEAD@Z 000000018002dbf0     libucrt:output.obj
 0002:0000bc10       $unwind$??$write_multiple_characters@V?$string_output_adapter@_W@__crt_stdio_output@@D@__crt_stdio_output@@YAXAEBV?$string_output_adapter@_W@0@DHQEAH@Z 000000018002dc10     libucrt:output.obj
 0002:0000bc1c       $unwind$?process@?$output_processor@_WV?$string_output_adapter@_W@__crt_stdio_output@@V?$format_validation_base@_WV?$string_output_adapter@_W@__crt_stdio_output@@@2@@__crt_stdio_output@@QEAAHXZ 000000018002dc1c     libucrt:output.obj
 0002:0000bc30       $unwind$?parse_int_from_format_string@?$output_processor@_WV?$string_output_adapter@_W@__crt_stdio_output@@V?$format_validation_base@_WV?$string_output_adapter@_W@__crt_stdio_output@@@2@@__crt_stdio_output@@AEAA_NQEAH@Z 000000018002dc30     libucrt:output.obj
 0002:0000bc44       $unwind$?state_case_type@?$output_processor@_WV?$string_output_adapter@_W@__crt_stdio_output@@V?$format_validation_base@_WV?$string_output_adapter@_W@__crt_stdio_output@@@2@@__crt_stdio_output@@AEAA_NXZ 000000018002dc44     libucrt:output.obj
 0002:0000bc68       $unwind$?type_case_a@?$output_processor@_WV?$string_output_adapter@_W@__crt_stdio_output@@V?$format_validation_base@_WV?$string_output_adapter@_W@__crt_stdio_output@@@2@@__crt_stdio_output@@AEAA_NXZ 000000018002dc68     libucrt:output.obj
 0002:0000bc78       $unwind$?write_stored_string_tchar@?$output_processor@_WV?$string_output_adapter@_W@__crt_stdio_output@@V?$format_validation_base@_WV?$string_output_adapter@_W@__crt_stdio_output@@@2@@__crt_stdio_output@@AEAA_N_W@Z 000000018002dc78     libucrt:output.obj
 0002:0000bc8c       $unwind$??$type_case_integer_parse_into_buffer@_K@?$output_processor@_WV?$string_output_adapter@_W@__crt_stdio_output@@V?$format_validation_base@_WV?$string_output_adapter@_W@__crt_stdio_output@@@2@@__crt_stdio_output@@AEAAX_KI_N@Z 000000018002dc8c     libucrt:output.obj
 0002:0000bc8c       $unwind$??$type_case_integer_parse_into_buffer@I@?$output_processor@_WV?$string_output_adapter@_W@__crt_stdio_output@@V?$format_validation_base@_WV?$string_output_adapter@_W@__crt_stdio_output@@@2@@__crt_stdio_output@@AEAAXII_N@Z 000000018002dc8c     libucrt:output.obj
 0002:0000bc94       $unwind$?common_exit@@YAXHW4_crt_exit_cleanup_mode@@W4_crt_exit_return_mode@@@Z 000000018002dc94     libucrt:exit.obj
 0002:0000bca0       $unwind$??R<lambda_6e4b09c48022b2350581041d5f6b0c4c>@@QEBA@XZ 000000018002dca0     libucrt:exit.obj
 0002:0000bcc0       $unwind$??$?RV<lambda_d80eeec6fff315bfe5c115232f3240e3>@@AEAV<lambda_6e4b09c48022b2350581041d5f6b0c4c>@@V<lambda_2358e3775559c9db80273638284d5e45>@@@?$__crt_seh_guarded_call@X@@QEAAX$$QEAV<lambda_d80eeec6fff315bfe5c115232f3240e3>@@AEAV<lambda_6e4b09c48022b2350581041d5f6b0c4c>@@$$QEAV<lambda_2358e3775559c9db80273638284d5e45>@@@Z 000000018002dcc0     libucrt:exit.obj
 0002:0000bce4       $unwind$??$free_environment@_W@@YAXQEAPEA_W@Z 000000018002dce4     libucrt:environment_initialization.obj
 0002:0000bce4       $unwind$??$free_environment@D@@YAXQEAPEAD@Z 000000018002dce4     libucrt:environment_initialization.obj
 0002:0000bcf0       $unwind$_register_onexit_function 000000018002dcf0     libucrt:onexit.obj
 0002:0000bcf8       $unwind$_execute_onexit_table 000000018002dcf8     libucrt:onexit.obj
 0002:0000bd00       $unwind$??R<lambda_22ebabd17bc4fa466a2aca6d8deb888d>@@QEBAHXZ 000000018002dd00     libucrt:onexit.obj
 0002:0000bd18       $unwind$??$?RV<lambda_638799b9deba96c50f710eeac98168cd>@@AEAV<lambda_22ebabd17bc4fa466a2aca6d8deb888d>@@V<lambda_a6f7d7db0129f75315ebf26d50c089f1>@@@?$__crt_seh_guarded_call@H@@QEAAH$$QEAV<lambda_638799b9deba96c50f710eeac98168cd>@@AEAV<lambda_22ebabd17bc4fa466a2aca6d8deb888d>@@$$QEAV<lambda_a6f7d7db0129f75315ebf26d50c089f1>@@@Z 000000018002dd18     libucrt:onexit.obj
 0002:0000bd3c       $unwind$??$?RV<lambda_7777bce6b2f8c936911f934f8298dc43>@@AEAV<lambda_f03950bc5685219e0bcd2087efbe011e>@@V<lambda_3883c3dff614d5e0c5f61bb1ac94921c>@@@?$__crt_seh_guarded_call@H@@QEAAH$$QEAV<lambda_7777bce6b2f8c936911f934f8298dc43>@@AEAV<lambda_f03950bc5685219e0bcd2087efbe011e>@@$$QEAV<lambda_3883c3dff614d5e0c5f61bb1ac94921c>@@@Z 000000018002dd3c     libucrt:onexit.obj
 0002:0000bd60       $unwind$_query_new_handler 000000018002dd60     libucrt:new_handler.obj
 0002:0000bd80       $unwind$terminate          000000018002dd80     libucrt:terminate.obj
 0002:0000bda0       $unwind$??$parse_integer@KV?$c_string_character_source@_W@__crt_strtox@@@__crt_strtox@@YAKQEAU__crt_locale_pointers@@V?$c_string_character_source@_W@0@H_N@Z 000000018002dda0     libucrt:atox.obj
 0002:0000bdb8       $xdatasym                  000000018002ddb8     libucrt:strncmp.obj
 0002:0000bdbc       $unwind$?construct_ptd_array@@YAXQEAU__acrt_ptd@@@Z 000000018002ddbc     libucrt:per_thread_data.obj
 0002:0000bdc4       $unwind$?destroy_ptd_array@@YAXQEAU__acrt_ptd@@@Z 000000018002ddc4     libucrt:per_thread_data.obj
 0002:0000bdcc       $unwind$??$?RV<lambda_0ae27a3a962d80f24befdcbee591983d>@@AEAV<lambda_8d0ee55de4b1038c4002e0adecdf1839>@@V<lambda_dc504788e8f1664fe9b84e20bfb512f2>@@@?$__crt_seh_guarded_call@X@@QEAAX$$QEAV<lambda_0ae27a3a962d80f24befdcbee591983d>@@AEAV<lambda_8d0ee55de4b1038c4002e0adecdf1839>@@$$QEAV<lambda_dc504788e8f1664fe9b84e20bfb512f2>@@@Z 000000018002ddcc     libucrt:per_thread_data.obj
 0002:0000bdf0       $unwind$??$?RV<lambda_aa87e3671a710a21b5dc78c0bdf72e11>@@AEAV<lambda_92619d2358a28f41a33ba319515a20b9>@@V<lambda_6992ecaafeb10aed2b74cb1fae11a551>@@@?$__crt_seh_guarded_call@X@@QEAAX$$QEAV<lambda_aa87e3671a710a21b5dc78c0bdf72e11>@@AEAV<lambda_92619d2358a28f41a33ba319515a20b9>@@$$QEAV<lambda_6992ecaafeb10aed2b74cb1fae11a551>@@@Z 000000018002ddf0     libucrt:per_thread_data.obj
 0002:0000be14       $unwind$??$?RV<lambda_f2e299630e499de9f9a165e60fcd3db5>@@AEAV<lambda_2ae9d31cdba2644fcbeaf08da7c24588>@@V<lambda_40d01ff24d0e7b3814fdbdcee8eab3c7>@@@?$__crt_seh_guarded_call@X@@QEAAX$$QEAV<lambda_f2e299630e499de9f9a165e60fcd3db5>@@AEAV<lambda_2ae9d31cdba2644fcbeaf08da7c24588>@@$$QEAV<lambda_40d01ff24d0e7b3814fdbdcee8eab3c7>@@@Z 000000018002de14     libucrt:per_thread_data.obj
 0002:0000be38       $unwind$??$?RV<lambda_2d41944a1d46af3157314b8a01080d33>@@AEAV<lambda_8f455de75cd7d7f24b4096f044d8b9e6>@@V<lambda_aa500f224e6afead328df44964fe2772>@@@?$__crt_seh_guarded_call@X@@QEAAX$$QEAV<lambda_2d41944a1d46af3157314b8a01080d33>@@AEAV<lambda_8f455de75cd7d7f24b4096f044d8b9e6>@@$$QEAV<lambda_aa500f224e6afead328df44964fe2772>@@@Z 000000018002de38     libucrt:per_thread_data.obj
 0002:0000be5c       $unwind$__acrt_initialize_winapi_thunks 000000018002de5c     libucrt:winapi_thunks.obj
 0002:0000be64       $unwind$?fp_format_e_internal@@YAHQEAD_KH_NIQEAU_strflt@@2QEAU__crt_locale_pointers@@@Z 000000018002de64     libucrt:cvt.obj
 0002:0000be7c       $unwind$?fp_format_a@@YAHQEBNPEAD_KQEAD2H_NIQEAU__crt_locale_pointers@@@Z 000000018002de7c     libucrt:cvt.obj
 0002:0000be98       $unwind$?fp_format_g@@YAHQEBNQEAD_K12H_NIQEAU__crt_locale_pointers@@@Z 000000018002de98     libucrt:cvt.obj
 0002:0000beac       $unwind$__acrt_uninitialize_locale 000000018002deac     libucrt:wsetlocale.obj
 0002:0000beac       $unwind$__acrt_get_sigabrt_handler 000000018002deac     libucrt:signal.obj
 0002:0000beb4       $unwind$??$?RV<lambda_410d79af7f07d98d83a3f525b3859a53>@@AEAV<lambda_3e16ef9562a7dcce91392c22ab16ea36>@@V<lambda_38119f0e861e05405d8a144b9b982f0a>@@@?$__crt_seh_guarded_call@X@@QEAAX$$QEAV<lambda_410d79af7f07d98d83a3f525b3859a53>@@AEAV<lambda_3e16ef9562a7dcce91392c22ab16ea36>@@$$QEAV<lambda_38119f0e861e05405d8a144b9b982f0a>@@@Z 000000018002deb4     libucrt:wsetlocale.obj
 0002:0000bedc       $unwind$__acrt_initialize_lowio 000000018002dedc     libucrt:ioinit.obj
 0002:0000befc       $unwind$??$common_expand_argv_wildcards@D@@YAHQEAPEADQEAPEAPEAD@Z 000000018002defc     libucrt:argv_wildcards.obj
 0002:0000bf14       $unwind$??$copy_and_add_argument_to_buffer@D@@YAHQEBD0_KAEAV?$argument_list@D@?A0x5f5c8891@@@Z 000000018002df14     libucrt:argv_wildcards.obj
 0002:0000bf30       $unwind$??$expand_argument_wildcards@D@@YAHQEAD0AEAV?$argument_list@D@?A0x5f5c8891@@@Z 000000018002df30     libucrt:argv_wildcards.obj
 0002:0000bf54       $unwind$__acrt_GetModuleFileNameA 000000018002df54     libucrt:getmodulefilenamea.obj
 0002:0000bf70       $unwind$_setmbcp_nolock    000000018002df70     libucrt:mbctype.obj
 0002:0000bf90       $unwind$?update_thread_multibyte_data_internal@@YAPEAU__crt_multibyte_data@@QEAU__acrt_ptd@@QEAPEAU1@@Z 000000018002df90     libucrt:mbctype.obj
 0002:0000bfb8       $unwind$?setmbcp_internal@@YAHH_NQEAU__acrt_ptd@@QEAPEAU__crt_multibyte_data@@@Z 000000018002dfb8     libucrt:mbctype.obj
 0002:0000bfc8       $unwind$?setSBUpLow@@YAXPEAU__crt_multibyte_data@@@Z 000000018002dfc8     libucrt:mbctype.obj
 0002:0000bfe4       $unwind$??$?RV<lambda_efdfa57d1f175319df784efa44bb7b81>@@AEAV<lambda_5f0a4c1567f8adc6734073e5d1e1b35c>@@V<lambda_2e8a7d3640ea6ccb4c2413664c2db6fd>@@@?$__crt_seh_guarded_call@X@@QEAAX$$QEAV<lambda_efdfa57d1f175319df784efa44bb7b81>@@AEAV<lambda_5f0a4c1567f8adc6734073e5d1e1b35c>@@$$QEAV<lambda_2e8a7d3640ea6ccb4c2413664c2db6fd>@@@Z 000000018002dfe4     libucrt:mbctype.obj
 0002:0000c008       $unwind$raise              000000018002e008     libucrt:signal.obj
 0002:0000c044       $unwind$??$?RV<lambda_450d765d439847d4c735a33c368b5fc0>@@AEAV<lambda_44731a7d0e6d81c3e6aa82d741081786>@@V<lambda_601a2a7da3b7a96e9554ac7215c4b07c>@@@?$__crt_seh_guarded_call@P6AXH@Z@@QEAAP6AXH@Z$$QEAV<lambda_450d765d439847d4c735a33c368b5fc0>@@AEAV<lambda_44731a7d0e6d81c3e6aa82d741081786>@@$$QEAV<lambda_601a2a7da3b7a96e9554ac7215c4b07c>@@@Z 000000018002e044     libucrt:signal.obj
 0002:0000c068       $unwind$?common_flush_all@@YAH_N@Z 000000018002e068     libucrt:fflush.obj
 0002:0000c070       $unwind$??$?RV<lambda_842d9ff0dc9ef11c61343bbaebe7f885>@@AEAV<lambda_c5860995281e5c4ce005b3de8f5874ee>@@V<lambda_d90129c13df834fdcbf8d2b88dafcf2d>@@@?$__crt_seh_guarded_call@X@@QEAAX$$QEAV<lambda_842d9ff0dc9ef11c61343bbaebe7f885>@@AEAV<lambda_c5860995281e5c4ce005b3de8f5874ee>@@$$QEAV<lambda_d90129c13df834fdcbf8d2b88dafcf2d>@@@Z 000000018002e070     libucrt:fflush.obj
 0002:0000c094       $unwind$??$?RV<lambda_886d6c58226a84441f68b9f2b8217b83>@@AEAV<lambda_ab61a845afdef5b7c387490eaf3616ee>@@V<lambda_f7f22ab5edc0698d5f6905b0d3f44752>@@@?$__crt_seh_guarded_call@X@@QEAAX$$QEAV<lambda_886d6c58226a84441f68b9f2b8217b83>@@AEAV<lambda_ab61a845afdef5b7c387490eaf3616ee>@@$$QEAV<lambda_f7f22ab5edc0698d5f6905b0d3f44752>@@@Z 000000018002e094     libucrt:fflush.obj
 0002:0000c0bc       $unwind$__acrt_update_thread_locale_data 000000018002e0bc     libucrt:locale_refcounting.obj
 0002:0000c0e0       $unwind$?__mbrtowc_utf8@__crt_mbstring@@YA_KPEA_WPEBD_KPEAU_Mbstatet@@@Z 000000018002e0e0     libucrt:mbrtowc.obj
 0002:0000c0e8       $unwind$?__mbsrtowcs_utf8@__crt_mbstring@@YA_KPEA_WPEAPEBD_KPEAU_Mbstatet@@@Z 000000018002e0e8     libucrt:mbrtowc.obj
 0002:0000c100       $unwind$__acrt_fltout      000000018002e100     libucrt:cfout.obj
 0002:0000c120       $unwind$?divide@__crt_strtox@@YA_KAEAUbig_integer@1@AEBU21@@Z 000000018002e120     libucrt:cfout.obj
 0002:0000c138       $chain$0$?divide@__crt_strtox@@YA_KAEAUbig_integer@1@AEBU21@@Z 000000018002e138     libucrt:cfout.obj
 0002:0000c14c       $chain$1$?divide@__crt_strtox@@YA_KAEAUbig_integer@1@AEBU21@@Z 000000018002e14c     libucrt:cfout.obj
 0002:0000c15c       $unwind$_fcloseall         000000018002e15c     libucrt:closeall.obj
 0002:0000c180       $unwind$__acrt_locale_free_monetary 000000018002e180     libucrt:initmon.obj
 0002:0000c188       $unwind$__acrt_locale_free_time 000000018002e188     libucrt:inittime.obj
 0002:0000c198       $unwind$__acrt_GetStringTypeA 000000018002e198     libucrt:getstringtypea.obj
 0002:0000c1c0       $unwind$__acrt_lowio_destroy_handle_array 000000018002e1c0     libucrt:osfinfo.obj
 0002:0000c1d0       $unwind$__acrt_lowio_ensure_fh_exists 000000018002e1d0     libucrt:osfinfo.obj
 0002:0000c1fc       $unwind$qsort              000000018002e1fc     libucrt:qsort.obj
 0002:0000c214       $chain$4$qsort             000000018002e214     libucrt:qsort.obj
 0002:0000c238       $chain$5$qsort             000000018002e238     libucrt:qsort.obj
 0002:0000c248       $unwind$fallbackMethod     000000018002e248     libucrt:strpbrk.obj
 0002:0000c258       $unwind$__acrt_LCMapStringA 000000018002e258     libucrt:lcmapstringa.obj
 0002:0000c268       $unwind$?__acrt_LCMapStringA_stat@@YAHPEAU__crt_locale_pointers@@PEB_WKPEBDHPEADHHH@Z 000000018002e268     libucrt:lcmapstringa.obj
 0002:0000c290       $unwind$_close             000000018002e290     libucrt:close.obj
 0002:0000c290       $unwind$_commit            000000018002e290     libucrt:commit.obj
 0002:0000c298       $unwind$??$?RV<lambda_a37b2b86f63e897a80ea819b0eb08c01>@@AEAV<lambda_38ce7e780aa69e748d6df282ebc68efe>@@V<lambda_99fb1378e971ab6e7edea83e3a7a83a2>@@@?$__crt_seh_guarded_call@H@@QEAAH$$QEAV<lambda_a37b2b86f63e897a80ea819b0eb08c01>@@AEAV<lambda_38ce7e780aa69e748d6df282ebc68efe>@@$$QEAV<lambda_99fb1378e971ab6e7edea83e3a7a83a2>@@@Z 000000018002e298     libucrt:commit.obj
 0002:0000c2bc       $unwind$_write             000000018002e2bc     libucrt:write.obj
 0002:0000c2ec       $unwind$_write_nolock      000000018002e2ec     libucrt:write.obj
 0002:0000c304       $unwind$?write_double_translated_ansi_nolock@@YA?AUwrite_result@?A0x17268360@@HQEBDI@Z 000000018002e304     libucrt:write.obj
 0002:0000c328       $unwind$?write_text_utf16le_nolock@@YA?AUwrite_result@?A0x17268360@@HQEBDI@Z 000000018002e328     libucrt:write.obj
 0002:0000c328       $unwind$?write_text_ansi_nolock@@YA?AUwrite_result@?A0x17268360@@HQEBDI@Z 000000018002e328     libucrt:write.obj
 0002:0000c348       $unwind$?write_text_utf8_nolock@@YA?AUwrite_result@?A0x17268360@@HQEBDI@Z 000000018002e348     libucrt:write.obj
 0002:0000c370       $xdatasym                  000000018002e370     libucrt:log10.obj
 0002:0000c37c       $unwind$fclose             000000018002e37c     libucrt:fclose.obj
 0002:0000c3a0       $unwind$_putwch_nolock     000000018002e3a0     libucrt:putwch.obj
 0002:0000c3a8       $unwind$__acrt_fenv_set_control 000000018002e3a8     libucrt:_fenvutils.obj
 0002:0000c3b8       $unwind$_call_matherr      000000018002e3b8     libucrt:libm_error.obj
 0002:0000c3c0       $unwind$_handle_error      000000018002e3c0     libucrt:libm_error.obj
 0002:0000c3e0       $unwind$__acrt_initialize_fma3 000000018002e3e0     libucrt:fma3_available.obj
 0002:0000c3e8       $unwind$_log_special_common 000000018002e3e8     libucrt:log_special.obj
 0002:0000c3f4       $unwind$??$?RV<lambda_751a882b2c74d4b022dec766aa51a29a>@@AEAV<lambda_628dfdc04ba53c8bfc02c9951375f3f5>@@V<lambda_f6c7be5f7998530c34de24c7437d6b54>@@@?$__crt_seh_guarded_call@H@@QEAAH$$QEAV<lambda_751a882b2c74d4b022dec766aa51a29a>@@AEAV<lambda_628dfdc04ba53c8bfc02c9951375f3f5>@@$$QEAV<lambda_f6c7be5f7998530c34de24c7437d6b54>@@@Z 000000018002e3f4     libucrt:close.obj
 0002:0000c418       $xdatasym                  000000018002e418     libucrt:fpsr.obj
 0002:0000c420       $unwind$_raise_exc_ex      000000018002e420     libucrt:fpexcept.obj
 0002:0000c434       $unwind$_ctrlfp            000000018002e434     libucrt:fpctrl.obj
 0002:0000c45c       $unwind$_IsNonwritableInCurrentImage 000000018002e45c     LIBCMT:pesect.obj
 0002:0000c5e0       .edata                     000000018002e5e0     OPOSCoinAcceptor.exp
 0002:0000c608       rgpv                       000000018002e608     OPOSCoinAcceptor.exp
 0002:0000c618       rgszName                   000000018002e618     OPOSCoinAcceptor.exp
 0002:0000c628       rgwOrd                     000000018002e628     OPOSCoinAcceptor.exp
 0002:0000c630       szName                     000000018002e630     OPOSCoinAcceptor.exp
 0002:0000c645       $N00001                    000000018002e645     OPOSCoinAcceptor.exp
 0002:0000c655       $N00002                    000000018002e655     OPOSCoinAcceptor.exp
 0002:0000c667       $N00003                    000000018002e667     OPOSCoinAcceptor.exp
 0002:0000c679       $N00004                    000000018002e679     OPOSCoinAcceptor.exp
 0002:0000cfaa       .idata$6                   000000018002efaa     kernel32:KERNEL32.dll
 0002:0000d1c2       .idata$6                   000000018002f1c2     user32:USER32.dll
 0002:0000d2f6       .idata$6                   000000018002f2f6     gdi32:GDI32.dll
 0002:0000d39c       .idata$6                   000000018002f39c     advapi32:ADVAPI32.dll
 0002:0000d4b8       .idata$6                   000000018002f4b8     ole32:ole32.dll
 0002:0000d4c2       .idata$6                   000000018002f4c2     oleaut32:OLEAUT32.dll
 0003:000001c0       ?ObjectMap@@3PAU_ATL_OBJMAP_ENTRY30@ATL@@A 00000001800301c0     CoinAcceptor.obj
 0003:000002b4       ?s_RequiredMethodsPerRelease@@3PAHA 00000001800302b4     CoinAcceptorImpl.obj
 0003:000002c0       ?s_SOMethodNames@@3PAPEADA 00000001800302c0     CoinAcceptorImpl.obj
 0003:000003c0       ?__vcrt_flsindex@@3KA      00000001800303c0     libvcruntime:per_thread_data.obj
 0003:000003d0       ?errno_no_memory@@3HA      00000001800303d0     libucrt:errno.obj
 0003:000003d4       ?doserrno_no_memory@@3KA   00000001800303d4     libucrt:errno.obj
 0003:000003e0       ?__acrt_flsindex@@3KA      00000001800303e0     libucrt:per_thread_data.obj
 0003:000008a0       _mbctypes                  00000001800308a0     libucrt:mbctype.obj
 0003:000009b0       _mbcasemaps                00000001800309b0     libucrt:mbctype.obj
 0003:00000ab0       ?__rgctypeflag@@3PADA      0000000180030ab0     libucrt:mbctype.obj
 0003:00000ac0       ?__rgcode_page_info@@3PAUcode_page_info@@A 0000000180030ac0     libucrt:mbctype.obj
 0003:00000d60       ?__dcrt_lowio_console_output_handle@@3PEAXEA 0000000180030d60     libucrt:initcon.obj
 0003:00000d70       ?dazSupported@?1??_ctrlfp@@9@9 0000000180030d70     libucrt:fpctrl.obj
 0003:00000fc0       ?is_initialized_as_dll@@3_NA 0000000180030fc0     LIBCMT:utility.obj
 0003:00000fc1       ?module_local_atexit_table_initialized@@3_NA 0000000180030fc1     LIBCMT:utility.obj
 0003:00000fc8       ?module_local_atexit_table@@3U_onexit_table_t@@A 0000000180030fc8     LIBCMT:utility.obj
 0003:00000fe0       ?module_local_at_quick_exit_table@@3U_onexit_table_t@@A 0000000180030fe0     LIBCMT:utility.obj
 0003:00000ff8       ?g_tss_cv@@3U_RTL_CONDITION_VARIABLE@@A 0000000180030ff8     LIBCMT:thread_safe_statics.obj
 0003:00001000       ?g_tss_event@@3PEAXEA      0000000180031000     LIBCMT:thread_safe_statics.obj
 0003:00001008       ?g_tss_mutex@@3U_RTL_CRITICAL_SECTION@@A 0000000180031008     LIBCMT:thread_safe_statics.obj
 0003:00001030       ?g_sleep_condition_variable_cs@@3P6AHPEAU_RTL_CONDITION_VARIABLE@@PEAU_RTL_CRITICAL_SECTION@@K@ZEA 0000000180031030     LIBCMT:thread_safe_statics.obj
 0003:00001038       ?g_wake_all_condition_variable@@3P6AXPEAU_RTL_CONDITION_VARIABLE@@@ZEA 0000000180031038     LIBCMT:thread_safe_statics.obj
 0003:00001040       GS_ExceptionRecord         0000000180031040     LIBCMT:gs_report.obj
 0003:000010e0       GS_ContextRecord           00000001800310e0     LIBCMT:gs_report.obj
 0003:000015b4       ?__proc_attached@@3HA      00000001800315b4     LIBCMT:dll_dllmain.obj
 0003:00001648       ?AllocateData@@3P6APEAUAtlThunkData_t@@XZEA 0000000180031648     atls:atlthunk.obj
 0003:00001650       ?InitData@@3P6AXPEAUAtlThunkData_t@@PEAX_K@ZEA 0000000180031650     atls:atlthunk.obj
 0003:00001658       ?DataToCode@@3P6AP6A_JPEAUHWND__@@I_K_J@ZPEAUAtlThunkData_t@@@ZEA 0000000180031658     atls:atlthunk.obj
 0003:00001660       ?FreeData@@3P6AXPEAUAtlThunkData_t@@@ZEA 0000000180031660     atls:atlthunk.obj
 0003:00001668       ?Initialized@@3_NA         0000000180031668     atls:atlthunk.obj
 0003:00001680       ?__vcrt_startup_thread_ptd@@3U__vcrt_ptd@@A 0000000180031680     libvcruntime:per_thread_data.obj
 0003:00001700       __vcrt_lock_table          0000000180031700     libvcruntime:locks.obj
 0003:00001728       __vcrt_locks_initialized   0000000180031728     libvcruntime:locks.obj
 0003:00001778       ?heap@@3V_HeapManager@@A   0000000180031778     libvcruntime:undname.obj
 0003:000017a0       ?module_handles@@3PAPEAUHINSTANCE__@@A 00000001800317a0     libvcruntime:winapi_downlevel.obj
 0003:000017b8       ?function_pointers@@3PAPEAXA 00000001800317b8     libvcruntime:winapi_downlevel.obj
 0003:000017e0       ?__acrt_invalid_parameter_handler@@3V?$dual_state_global@P6AXPEB_W00I_K@Z@__crt_state_management@@A 00000001800317e0     libucrt:invalid_parameter.obj
 0003:000017e8       ?c_termination_complete@@3JA 00000001800317e8     libucrt:exit.obj
 0003:000017f0       ?thread_local_exit_callback_func@@3P6AXPEAXK0@ZEA 00000001800317f0     libucrt:exit.obj
 0003:00001800       ?program_name@?1???$common_configure_argv@D@@YAHW4_crt_argv_mode@@@Z@4PADA 0000000180031800     libucrt:argv_parsing.obj
 0003:00001958       ?__acrt_new_handler@@3V?$dual_state_global@P6AH_K@Z@__crt_state_management@@A 0000000180031958     libucrt:new_handler.obj
 0003:00001960       ?module_handles@@3PAPEAUHINSTANCE__@@A 0000000180031960     libucrt:winapi_thunks.obj
 0003:00001a00       ?encoded_function_pointers@@3PAPEAXA 0000000180031a00     libucrt:winapi_thunks.obj
 0003:00001b10       ?internal_state@?1??_mbtowc_l@@9@4U_Mbstatet@@A 0000000180031b10     libucrt:mbtowc.obj
 0003:00001b28       ?enable_percent_n@@3_KA    0000000180031b28     libucrt:printf_count_output.obj
 0003:00001f60       ?__acrt_lock_table@@3PAU_RTL_CRITICAL_SECTION@@A 0000000180031f60     libucrt:locks.obj
 0003:00002190       ?__acrt_locks_initialized@@3IA 0000000180032190     libucrt:locks.obj
 0003:000021b0       ?fSystemSet@@3HA           00000001800321b0     libucrt:mbctype.obj
 0003:000021b4       ?initialized@?1??__acrt_initialize_multibyte@@9@4_NA 00000001800321b4     libucrt:mbctype.obj
 0003:000021f0       ?ctrlc_action@@3V?$dual_state_global@P6AXH@Z@__crt_state_management@@A 00000001800321f0     libucrt:signal.obj
 0003:000021f8       ?ctrlbreak_action@@3V?$dual_state_global@P6AXH@Z@__crt_state_management@@A 00000001800321f8     libucrt:signal.obj
 0003:00002200       ?abort_action@@3V?$dual_state_global@P6AXH@Z@__crt_state_management@@A 0000000180032200     libucrt:signal.obj
 0003:00002208       ?term_action@@3V?$dual_state_global@P6AXH@Z@__crt_state_management@@A 0000000180032208     libucrt:signal.obj
 0003:00002210       ?user_matherr@@3V?$dual_state_global@P6AHPEAU_exception@@@Z@__crt_state_management@@A 0000000180032210     libucrt:matherr.obj
 0003:00002218       ?__acrt_global_new_mode@@3V?$dual_state_global@J@__crt_state_management@@A 0000000180032218     libucrt:new_mode.obj
 0003:00002228       ?internal_pst@?1??__mbrtoc32_utf8@__crt_mbstring@@YA_KPEA_UPEBD_KPEAU_Mbstatet@@@Z@4U3@A 0000000180032228     libucrt:mbrtoc32.obj
 0003:00002230       ?__acrt_app_type@@3W4_crt_app_type@@A 0000000180032230     libucrt:report_runtime_error.obj
 0004:00000000       $pdata$?cw_memcpy@@YAHPEA_WPEBDH@Z 0000000180033000     CWString.obj
 0004:0000000c       $pdata$?cw_strcpy@@YAHPEA_WPEBD@Z 000000018003300c     CWString.obj
 0004:00000018       $pdata$?cw_dup@@YAXPEBDAEAHAEAPEA_W1@Z 0000000180033018     CWString.obj
 0004:00000024       $pdata$?DupWide@_CW@@AEAAXXZ 0000000180033024     CWString.obj
 0004:00000030       $pdata$?AtlWinModuleTerm@ATL@@YAJPEAU_ATL_WIN_MODULE70@1@PEAUHINSTANCE__@@@Z 0000000180033030     OposVariant.obj
 0004:0000003c       $pdata$??0CAtlComModule@ATL@@QEAA@XZ 000000018003303c     OposVariant.obj
 0004:00000048       $pdata$?Term@CAtlComModule@ATL@@QEAAXXZ 0000000180033048     OposVariant.obj
 0004:00000054       $pdata$??__E_AtlComModule@ATL@@YAXXZ 0000000180033054     OposVariant.obj
 0004:00000060       $pdata$??0CAtlWinModule@ATL@@QEAA@XZ 0000000180033060     OposVariant.obj
 0004:0000006c       $pdata$??__E_AtlWinModule@ATL@@YAXXZ 000000018003306c     OposVariant.obj
 0004:00000078       $pdata$??__F_AtlWinModule@ATL@@YAXXZ 0000000180033078     OposVariant.obj
 0004:00000084       $pdata$??_Estringdispid@CComTypeInfoHolder@ATL@@QEAAPEAXI@Z 0000000180033084     OposVariant.obj
 0004:00000090       $pdata$?SetVARIANT_BOOL@OposVariant@@QEAAXF@Z 0000000180033090     OposVariant.obj
 0004:0000009c       $pdata$?SetVARIANT_BOOL_Ptr@OposVariant@@QEAAXPEAFAEAJ@Z 000000018003309c     OposVariant.obj
 0004:000000a8       $pdata$?GetLONG@OposVariant@@QEAAJXZ 00000001800330a8     OposVariant.obj
 0004:000000b4       $pdata$?ChangeLONG@OposVariant@@QEAAXPEAJAEAJ@Z 00000001800330b4     OposVariant.obj
 0004:000000c0       $pdata$?SetLONG@OposVariant@@QEAAXJ@Z 00000001800330c0     OposVariant.obj
 0004:000000cc       $pdata$?SetLONG_Ptr@OposVariant@@QEAAXPEAJAEAJ@Z 00000001800330cc     OposVariant.obj
 0004:000000d8       $pdata$?ChangeBSTR@OposVariant@@QEAAXPEAPEA_WAEAJ@Z 00000001800330d8     OposVariant.obj
 0004:000000e4       $pdata$?SetBSTR@OposVariant@@QEAAXPEA_WAEAJ@Z 00000001800330e4     OposVariant.obj
 0004:000000f0       $pdata$?SetBSTR_Copy@OposVariant@@QEAAXPEA_WAEAJ@Z 00000001800330f0     OposVariant.obj
 0004:000000fc       $pdata$?SetBSTR_OutPtr@OposVariant@@QEAA_NPEAPEA_WAEAJ@Z 00000001800330fc     OposVariant.obj
 0004:00000108       $pdata$?SetBSTR_InOutPtr@OposVariant@@QEAA_NPEAPEA_WAEAJ@Z 0000000180033108     OposVariant.obj
 0004:00000114       $pdata$?SetString@OposVariant@@QEAAXPEB_WAEAJ@Z 0000000180033114     OposVariant.obj
 0004:00000120       $pdata$?SetDispatch_Ptr@OposVariant@@QEAAXPEAUIDispatch@@AEAJ@Z 0000000180033120     OposVariant.obj
 0004:0000012c       $pdata$??0OposDispParms@@QEAA@PEAVOposVariant@@H@Z 000000018003312c     OposVariant.obj
 0004:00000138       $pdata$??1OposDispParms@@QEAA@XZ 0000000180033138     OposVariant.obj
 0004:00000144       $pdata$memcpy_s            0000000180033144     libucrt:cfout.obj
 0004:00000144       $pdata$memcpy_s            0000000180033144     CoinAcceptor.obj
 0004:00000150       $pdata$?AtlThrowImpl@ATL@@YAXJ@Z 0000000180033150     CoinAcceptor.obj
 0004:0000015c       $pdata$swprintf_s          000000018003315c     CoinAcceptor.obj
 0004:00000168       $pdata$?_AtlVerifyStackAvailable@_ATL_SAFE_ALLOCA_IMPL@ATL@@YA_N_K@Z 0000000180033168     CoinAcceptor.obj
 0004:00000174       $pdata$?filt$0@?0??_AtlVerifyStackAvailable@_ATL_SAFE_ALLOCA_IMPL@ATL@@YA_N_K@Z@4HA 0000000180033174     CoinAcceptor.obj
 0004:00000180       $pdata$?AtlHresultFromLastError@ATL@@YAJXZ 0000000180033180     CoinAcceptor.obj
 0004:0000018c       $pdata$?AtlInternalOleLoadFromStream@ATL@@YAJPEAUIStream@@AEBU_GUID@@PEAPEAXTClassesAllowedInStream@1@K@Z 000000018003318c     CoinAcceptor.obj
 0004:00000198       $pdata$?PutProperty@?$CComPtr@UIDispatch@@@ATL@@SAJPEAUIDispatch@@JPEAUtagVARIANT@@@Z 0000000180033198     CoinAcceptor.obj
 0004:000001a4       $pdata$?WriteToStream@CComBSTR@ATL@@QEAAJPEAUIStream@@@Z 00000001800331a4     CoinAcceptor.obj
 0004:000001b0       $pdata$?ReadFromStream@CComBSTR@ATL@@QEAAJPEAUIStream@@@Z 00000001800331b0     CoinAcceptor.obj
 0004:000001bc       $pdata$?WriteToStream@CComVariant@ATL@@QEAAJPEAUIStream@@@Z 00000001800331bc     CoinAcceptor.obj
 0004:000001c8       $pdata$?WriteToStream@CComVariant@ATL@@QEAAJPEAUIStream@@G@Z 00000001800331c8     CoinAcceptor.obj
 0004:000001d4       $pdata$?ReadFromStream@CComVariant@ATL@@QEAAJPEAUIStream@@GTClassesAllowedInStream@2@K@Z 00000001800331d4     CoinAcceptor.obj
 0004:000001e0       $pdata$?GetSizeMax@CComVariant@ATL@@QEBAJPEAT_ULARGE_INTEGER@@@Z 00000001800331e0     CoinAcceptor.obj
 0004:000001ec       $pdata$?RegCreateKeyExW@CAtlTransactionManager@ATL@@QEAAJPEAUHKEY__@@PEB_WKPEA_WKKQEAU_SECURITY_ATTRIBUTES@@PEAPEAU3@PEAK@Z 00000001800331ec     CoinAcceptor.obj
 0004:000001f8       $pdata$?RegOpenKeyExW@CAtlTransactionManager@ATL@@QEAAJPEAUHKEY__@@PEB_WKKPEAPEAU3@@Z 00000001800331f8     CoinAcceptor.obj
 0004:00000204       $pdata$?RegDeleteKeyW@CAtlTransactionManager@ATL@@QEAAJPEAUHKEY__@@PEB_W@Z 0000000180033204     CoinAcceptor.obj
 0004:00000210       $pdata$?Add@?$CSimpleArray@GV?$CSimpleArrayEqualHelper@G@ATL@@@ATL@@QEAAHAEBG@Z 0000000180033210     CoinAcceptor.obj
 0004:0000021c       $pdata$?AtlInternalQueryInterface@ATL@@YAJPEAXPEBU_ATL_INTMAP_ENTRY@1@AEBU_GUID@@PEAPEAX@Z 000000018003321c     CoinAcceptor.obj
 0004:00000228       $pdata$?AtlComModuleGetClassObject@ATL@@YAJPEAU_ATL_COM_MODULE70@1@AEBU_GUID@@1PEAPEAX@Z 0000000180033228     CoinAcceptor.obj
 0004:00000234       $pdata$?AtlRegisterClassCategoriesHelper@ATL@@YAJAEBU_GUID@@PEBU_ATL_CATMAP_ENTRY@1@H@Z 0000000180033234     CoinAcceptor.obj
 0004:00000240       $pdata$?AtlLoadTypeLib@ATL@@YAJPEAUHINSTANCE__@@PEB_WPEAPEA_WPEAPEAUITypeLib@@@Z 0000000180033240     CoinAcceptor.obj
 0004:0000024c       $pdata$?AtlRegisterTypeLib@ATL@@YAJPEAUHINSTANCE__@@PEB_W@Z 000000018003324c     CoinAcceptor.obj
 0004:00000258       $pdata$?AtlUnRegisterTypeLib@ATL@@YAJPEAUHINSTANCE__@@PEB_W@Z 0000000180033258     CoinAcceptor.obj
 0004:00000264       $pdata$?AtlComModuleRegisterServer@ATL@@YAJPEAU_ATL_COM_MODULE70@1@HPEBU_GUID@@@Z 0000000180033264     CoinAcceptor.obj
 0004:00000270       $pdata$?AtlComModuleUnregisterServer@ATL@@YAJPEAU_ATL_COM_MODULE70@1@HPEBU_GUID@@@Z 0000000180033270     CoinAcceptor.obj
 0004:0000027c       $pdata$?AtlModuleAddTermFunc@ATL@@YAJPEAU_ATL_MODULE70@1@P6AX_K@Z1@Z 000000018003327c     CoinAcceptor.obj
 0004:00000288       $pdata$?AtlCallTermFunc@ATL@@YAXPEAU_ATL_MODULE70@1@@Z 0000000180033288     CoinAcceptor.obj
 0004:00000294       $pdata$?AtlWinModuleExtractCreateWndData@ATL@@YAPEAXPEAU_ATL_WIN_MODULE70@1@@Z 0000000180033294     CoinAcceptor.obj
 0004:000002a0       $pdata$?atlCreate@CRegKey@ATL@@QEAAJPEAUHKEY__@@PEB_WPEA_WKKPEAU_SECURITY_ATTRIBUTES@@PEAK@Z 00000001800332a0     CoinAcceptor.obj
 0004:000002ac       $pdata$?Open@CRegKey@ATL@@QEAAJPEAUHKEY__@@PEB_WK@Z 00000001800332ac     CoinAcceptor.obj
 0004:000002b8       $pdata$?DeleteSubKey@CRegKey@ATL@@QEAAJPEB_W@Z 00000001800332b8     CoinAcceptor.obj
 0004:000002c4       $pdata$?RecurseDeleteKey@CRegKey@ATL@@QEAAJPEB_W@Z 00000001800332c4     CoinAcceptor.obj
 0004:000002d0       $pdata$??0CAtlModule@ATL@@QEAA@XZ 00000001800332d0     CoinAcceptor.obj
 0004:000002dc       $pdata$?GetGITPtr@CAtlModule@ATL@@UEAAJPEAPEAUIGlobalInterfaceTable@@@Z 00000001800332dc     CoinAcceptor.obj
 0004:000002e8       $pdata$?UpdateRegistryFromResource@CAtlModule@ATL@@QEAAJPEB_WHPEAU_ATL_REGMAP_ENTRY@2@@Z 00000001800332e8     CoinAcceptor.obj
 0004:000002f4       $pdata$?UpdateRegistryFromResource@CAtlModule@ATL@@QEAAJIHPEAU_ATL_REGMAP_ENTRY@2@@Z 00000001800332f4     CoinAcceptor.obj
 0004:00000300       $pdata$?Term@CComModule@ATL@@QEAAXXZ 0000000180033300     CoinAcceptor.obj
 0004:0000030c       $pdata$?GetClassObject@CComModule@ATL@@QEAAJAEBU_GUID@@0PEAPEAX@Z 000000018003330c     CoinAcceptor.obj
 0004:00000318       $pdata$?RegisterServer@CComModule@ATL@@QEAAJHPEBU_GUID@@@Z 0000000180033318     CoinAcceptor.obj
 0004:00000324       $pdata$?UnregisterServer@CComModule@ATL@@QEAAJHPEBU_GUID@@@Z 0000000180033324     CoinAcceptor.obj
 0004:00000330       $pdata$??_GCComModule@ATL@@UEAAPEAXI@Z 0000000180033330     CoinAcceptor.obj
 0004:0000033c       $pdata$?Add@?$CSimpleMap@PEA_WPEA_WVCExpansionVectorEqualHelper@ATL@@@ATL@@QEAAHAEBQEA_W0@Z 000000018003333c     CoinAcceptor.obj
 0004:00000348       $pdata$?Lookup@?$CSimpleMap@PEA_WPEA_WVCExpansionVectorEqualHelper@ATL@@@ATL@@QEBAPEA_WAEBQEA_W@Z 0000000180033348     CoinAcceptor.obj
 0004:00000354       $pdata$?Add@CExpansionVector@ATL@@QEAAHPEB_W0@Z 0000000180033354     CoinAcceptor.obj
 0004:00000360       $pdata$?ClearReplacements@CExpansionVector@ATL@@QEAAJXZ 0000000180033360     CoinAcceptor.obj
 0004:0000036c       $pdata$?PreProcessBuffer@CRegParser@ATL@@QEAAJPEA_WPEAPEA_W@Z 000000018003336c     CoinAcceptor.obj
 0004:00000378       $pdata$?RegisterBuffer@CRegParser@ATL@@QEAAJPEA_WH@Z 0000000180033378     CoinAcceptor.obj
 0004:00000384       $pdata$?NextToken@CRegParser@ATL@@IEAAJPEA_W@Z 0000000180033384     CoinAcceptor.obj
 0004:00000390       $pdata$?AddValue@CRegParser@ATL@@IEAAJAEAVCRegKey@2@PEB_WPEA_W@Z 0000000180033390     CoinAcceptor.obj
 0004:0000039c       $pdata$?RegisterSubkeys@CRegParser@ATL@@IEAAJPEA_WPEAUHKEY__@@HH@Z 000000018003339c     CoinAcceptor.obj
 0004:000003a8       $pdata$?SkipAssignment@CRegParser@ATL@@IEAAJPEA_W@Z 00000001800333a8     CoinAcceptor.obj
 0004:000003b4       $pdata$?HKeyFromString@CRegParser@ATL@@KAPEAUHKEY__@@PEA_W@Z 00000001800333b4     CoinAcceptor.obj
 0004:000003c0       $pdata$?VTFromRegType@CRegParser@ATL@@KAHPEB_WAEAG@Z 00000001800333c0     CoinAcceptor.obj
 0004:000003cc       $pdata$?Append@CParseBuffer@CRegParser@ATL@@QEAAHPEB_WH@Z 00000001800333cc     CoinAcceptor.obj
 0004:000003d8       $pdata$?AddReplacement@CRegObject@ATL@@UEAAJPEB_W0@Z 00000001800333d8     CoinAcceptor.obj
 0004:000003e4       $pdata$?RegisterFromResource@CRegObject@ATL@@IEAAJPEB_W00H@Z 00000001800333e4     CoinAcceptor.obj
 0004:000003f0       $pdata$??_GCRegObject@ATL@@UEAAPEAXI@Z 00000001800333f0     CoinAcceptor.obj
 0004:000003fc       $pdata$?AllocateHeap@?$CTempBuffer@E$0BAA@VCCRTAllocator@ATL@@@ATL@@AEAAX_K@Z 00000001800333fc     CoinAcceptor.obj
 0004:000003fc       $pdata$?AllocateHeap@?$CTempBuffer@_W$0EAA@VCCRTAllocator@ATL@@@ATL@@AEAAX_K@Z 00000001800333fc     CoinAcceptor.obj
 0004:000003fc       $pdata$?AllocateHeap@?$CTempBuffer@_W$0BAA@VCCRTAllocator@ATL@@@ATL@@AEAAX_K@Z 00000001800333fc     CoinAcceptor.obj
 0004:00000408       $pdata$?IsEqualObject@?$CComPtrBase@UITypeInfo@@@ATL@@QEAA_NPEAUIUnknown@@@Z 0000000180033408     CoinAcceptor.obj
 0004:00000408       $pdata$?IsEqualObject@?$CComPtrBase@UIOleClientSite@@@ATL@@QEAA_NPEAUIUnknown@@@Z 0000000180033408     CoinAcceptor.obj
 0004:00000414       $pdata$?AtlIPersistStreamInit_Load@ATL@@YAJPEAUIStream@@PEBUATL_PROPMAP_ENTRY@1@PEAXPEAUIUnknown@@@Z 0000000180033414     CoinAcceptor.obj
 0004:00000420       $pdata$?AtlIPersistStreamInit_Save@ATL@@YAJPEAUIStream@@HPEBUATL_PROPMAP_ENTRY@1@PEAXPEAUIUnknown@@@Z 0000000180033420     CoinAcceptor.obj
 0004:0000042c       $pdata$?CreateInstance@CComClassFactory@ATL@@UEAAJPEAUIUnknown@@AEBU_GUID@@PEAPEAX@Z 000000018003342c     CoinAcceptor.obj
 0004:00000438       $pdata$?LockServer@CComClassFactory@ATL@@UEAAJH@Z 0000000180033438     CoinAcceptor.obj
 0004:00000444       $pdata$??_GCComClassFactory@ATL@@UEAAPEAXI@Z 0000000180033444     CoinAcceptor.obj
 0004:00000450       $pdata$?GetTI@CComTypeInfoHolder@ATL@@QEAAJK@Z 0000000180033450     CoinAcceptor.obj
 0004:0000045c       $pdata$?Cleanup@CComTypeInfoHolder@ATL@@SAX_K@Z 000000018003345c     CoinAcceptor.obj
 0004:00000468       $pdata$?GetIDsOfNames@CComTypeInfoHolder@ATL@@QEAAJAEBU_GUID@@PEAPEA_WIKPEAJ@Z 0000000180033468     CoinAcceptor.obj
 0004:00000474       $pdata$?LoadNameCache@CComTypeInfoHolder@ATL@@QEAAJPEAUITypeInfo@@@Z 0000000180033474     CoinAcceptor.obj
 0004:00000480       $pdata$?Add@CComDynamicUnkArray@ATL@@QEAAKPEAUIUnknown@@@Z 0000000180033480     CoinAcceptor.obj
 0004:0000048c       $pdata$?AtlCreateTargetDC@ATL@@YAPEAUHDC__@@PEAU2@PEAUtagDVTARGETDEVICE@@@Z 000000018003348c     CoinAcceptor.obj
 0004:00000498       $pdata$?AtlHiMetricToPixel@ATL@@YAXPEBUtagSIZE@@PEAU2@@Z 0000000180033498     CoinAcceptor.obj
 0004:000004a4       $pdata$?DefaultReflectionHandler@?$CWindowImplRoot@VCWindow@ATL@@@ATL@@SAHPEAUHWND__@@I_K_JAEA_J@Z 00000001800334a4     CoinAcceptor.obj
 0004:000004b0       $pdata$?StartWindowProc@?$CWindowImplBaseT@VCWindow@ATL@@V?$CWinTraits@$0FGAAAAAA@$0A@@2@@ATL@@SA_JPEAUHWND__@@I_K_J@Z 00000001800334b0     CoinAcceptor.obj
 0004:000004bc       $pdata$?WindowProc@?$CWindowImplBaseT@VCWindow@ATL@@V?$CWinTraits@$0FGAAAAAA@$0A@@2@@ATL@@SA_JPEAUHWND__@@I_K_J@Z 00000001800334bc     CoinAcceptor.obj
 0004:000004c8       $pdata$?atlCreate@?$CWindowImplBaseT@VCWindow@ATL@@V?$CWinTraits@$0FGAAAAAA@$0A@@2@@ATL@@QEAAPEAUHWND__@@PEAU3@V_U_RECT@2@PEB_WKKV_U_MENUorID@2@GPEAX@Z 00000001800334c8     CoinAcceptor.obj
 0004:000004d4       $pdata$??$AtlModuleRegisterWndClassInfoT@VAtlModuleRegisterWndClassInfoParamW@ATL@@@ATL@@YAGPEAU_ATL_BASE_MODULE70@0@PEAU_ATL_WIN_MODULE70@0@PEAU_ATL_WNDCLASSINFOW@0@PEAP6A_JPEAUHWND__@@I_K_J@ZVAtlModuleRegisterWndClassInfoParamW@0@@Z 00000001800334d4     CoinAcceptor.obj
 0004:000004e0       $pdata$?GetZoomInfo@CComControlBase@ATL@@QEAAXAEAUATL_DRAWINFO@@@Z 00000001800334e0     CoinAcceptor.obj
 0004:000004ec       $pdata$?SendOnDataChange@CComControlBase@ATL@@QEAAJK@Z 00000001800334ec     CoinAcceptor.obj
 0004:000004f8       $pdata$?OnSetFocus@CComControlBase@ATL@@QEAA_JI_K_JAEAH@Z 00000001800334f8     CoinAcceptor.obj
 0004:00000504       $pdata$?OnKillFocus@CComControlBase@ATL@@QEAA_JI_K_JAEAH@Z 0000000180033504     CoinAcceptor.obj
 0004:00000510       $pdata$?OnMouseActivate@CComControlBase@ATL@@QEAA_JI_K_JAEAH@Z 0000000180033510     CoinAcceptor.obj
 0004:0000051c       $pdata$?GetAmbientLocaleID@CComControlBase@ATL@@QEAAJAEAK@Z 000000018003351c     CoinAcceptor.obj
 0004:00000528       $pdata$?GetAmbientUserMode@CComControlBase@ATL@@QEAAJAEAH@Z 0000000180033528     CoinAcceptor.obj
 0004:00000534       $pdata$?SetControlFocus@CComControlBase@ATL@@QEAAHH@Z 0000000180033534     CoinAcceptor.obj
 0004:00000540       $pdata$?IQuickActivate_QuickActivate@CComControlBase@ATL@@QEAAJPEAUtagQACONTAINER@@PEAUtagQACONTROL@@@Z 0000000180033540     CoinAcceptor.obj
 0004:0000054c       $pdata$?DoVerbProperties@CComControlBase@ATL@@QEAAJPEBUtagRECT@@PEAUHWND__@@@Z 000000018003354c     CoinAcceptor.obj
 0004:00000558       $pdata$?InPlaceActivate@CComControlBase@ATL@@QEAAJJPEBUtagRECT@@@Z 0000000180033558     CoinAcceptor.obj
 0004:00000564       $pdata$?IOleObject_SetClientSite@CComControlBase@ATL@@QEAAJPEAUIOleClientSite@@@Z 0000000180033564     CoinAcceptor.obj
 0004:00000570       $pdata$?IOleObject_Close@CComControlBase@ATL@@QEAAJK@Z 0000000180033570     CoinAcceptor.obj
 0004:0000057c       $pdata$?IOleObject_SetExtent@CComControlBase@ATL@@QEAAJKPEAUtagSIZE@@@Z 000000018003357c     CoinAcceptor.obj
 0004:00000588       $pdata$?IOleInPlaceObject_InPlaceDeactivate@CComControlBase@ATL@@QEAAJXZ 0000000180033588     CoinAcceptor.obj
 0004:00000594       $pdata$?IOleInPlaceObject_UIDeactivate@CComControlBase@ATL@@QEAAJXZ 0000000180033594     CoinAcceptor.obj
 0004:000005a0       $pdata$?IOleInPlaceObject_SetObjectRects@CComControlBase@ATL@@QEAAJPEBUtagRECT@@0@Z 00000001800335a0     CoinAcceptor.obj
 0004:000005ac       $pdata$?IViewObject_Draw@CComControlBase@ATL@@QEAAJKJPEAXPEAUtagDVTARGETDEVICE@@PEAUHDC__@@2PEBU_RECTL@@3@Z 00000001800335ac     CoinAcceptor.obj
 0004:000005b8       $pdata$?IDataObject_GetData@CComControlBase@ATL@@QEAAJPEAUtagFORMATETC@@PEAUtagSTGMEDIUM@@@Z 00000001800335b8     CoinAcceptor.obj
 0004:000005c4       $pdata$?FireViewChange@CComControlBase@ATL@@QEAAJXZ 00000001800335c4     CoinAcceptor.obj
 0004:000005d0       $pdata$?OnPaint@CComControlBase@ATL@@QEAA_JI_K_JAEAH@Z 00000001800335d0     CoinAcceptor.obj
 0004:000005dc       $pdata$?OnDrawAdvanced@CComControlBase@ATL@@UEAAJAEAUATL_DRAWINFO@@@Z 00000001800335dc     CoinAcceptor.obj
 0004:000005e8       $pdata$?GetTypeInfo@?$IDispatchImpl@UIOPOSCoinAcceptor@@$1?IID_IOPOSCoinAcceptor@@3U_GUID@@B$1?LIBID_OposCoinAcceptor_CCO@@3U3@B$00$0A@VCComTypeInfoHolder@ATL@@@ATL@@UEAAJIKPEAPEAUITypeInfo@@@Z 00000001800335e8     CoinAcceptor.obj
 0004:000005f4       $pdata$?Invoke@?$IDispatchImpl@UIOPOSCoinAcceptor@@$1?IID_IOPOSCoinAcceptor@@3U_GUID@@B$1?LIBID_OposCoinAcceptor_CCO@@3U3@B$00$0A@VCComTypeInfoHolder@ATL@@@ATL@@UEAAJJAEBU_GUID@@KGPEAUtagDISPPARAMS@@PEAUtagVARIANT@@PEAUtagEXCEPINFO@@PEAI@Z 00000001800335f4     CoinAcceptor.obj
 0004:00000600       $pdata$?atlCreate@?$CWindowImpl@VCOPOSCoinAcceptor@@VCWindow@ATL@@V?$CWinTraits@$0FGAAAAAA@$0A@@3@@ATL@@QEAAPEAUHWND__@@PEAU3@V_U_RECT@2@PEB_WKKV_U_MENUorID@2@PEAX@Z 0000000180033600     CoinAcceptor.obj
 0004:0000060c       $pdata$?CreateControlWindow@?$CComControl@VCOPOSCoinAcceptor@@V?$CWindowImpl@VCOPOSCoinAcceptor@@VCWindow@ATL@@V?$CWinTraits@$0FGAAAAAA@$0A@@3@@ATL@@@ATL@@UEAAPEAUHWND__@@PEAU3@AEAUtagRECT@@@Z 000000018003360c     CoinAcceptor.obj
 0004:00000618       $pdata$?ProcessWindowMessage@?$CComControl@VCOPOSCoinAcceptor@@V?$CWindowImpl@VCOPOSCoinAcceptor@@VCWindow@ATL@@V?$CWinTraits@$0FGAAAAAA@$0A@@3@@ATL@@@ATL@@UEAAHPEAUHWND__@@I_K_JAEA_JK@Z 0000000180033618     CoinAcceptor.obj
 0004:00000624       $pdata$?Load@?$IPersistStreamInitImpl@VCOPOSCoinAcceptor@@@ATL@@UEAAJPEAUIStream@@@Z 0000000180033624     CoinAcceptor.obj
 0004:00000630       $pdata$?Save@?$IPersistStreamInitImpl@VCOPOSCoinAcceptor@@@ATL@@UEAAJPEAUIStream@@H@Z 0000000180033630     CoinAcceptor.obj
 0004:0000063c       $pdata$?GetSizeMax@?$IPersistStreamInitImpl@VCOPOSCoinAcceptor@@@ATL@@UEAAJPEAT_ULARGE_INTEGER@@@Z 000000018003363c     CoinAcceptor.obj
 0004:00000648       $pdata$?GetClientSite@?$IOleObjectImpl@VCOPOSCoinAcceptor@@@ATL@@UEAAJPEAPEAUIOleClientSite@@@Z 0000000180033648     CoinAcceptor.obj
 0004:00000654       $pdata$?DoVerbPrimary@?$IOleObjectImpl@VCOPOSCoinAcceptor@@@ATL@@QEAAJPEBUtagRECT@@PEAUHWND__@@@Z 0000000180033654     CoinAcceptor.obj
 0004:00000660       $pdata$?DoVerb@?$IOleObjectImpl@VCOPOSCoinAcceptor@@@ATL@@UEAAJJPEAUtagMSG@@PEAUIOleClientSite@@JPEAUHWND__@@PEBUtagRECT@@@Z 0000000180033660     CoinAcceptor.obj
 0004:0000066c       $pdata$?Advise@?$IOleObjectImpl@VCOPOSCoinAcceptor@@@ATL@@UEAAJPEAUIAdviseSink@@PEAK@Z 000000018003366c     CoinAcceptor.obj
 0004:00000678       $pdata$?Unadvise@?$IOleObjectImpl@VCOPOSCoinAcceptor@@@ATL@@UEAAJK@Z 0000000180033678     CoinAcceptor.obj
 0004:00000684       $pdata$?EnumAdvise@?$IOleObjectImpl@VCOPOSCoinAcceptor@@@ATL@@UEAAJPEAPEAUIEnumSTATDATA@@@Z 0000000180033684     CoinAcceptor.obj
 0004:00000690       $pdata$?TranslateAcceleratorW@?$IOleInPlaceActiveObjectImpl@VCOPOSCoinAcceptor@@@ATL@@UEAAJPEAUtagMSG@@@Z 0000000180033690     CoinAcceptor.obj
 0004:0000069c       $pdata$?OnDocWindowActivate@?$IOleInPlaceActiveObjectImpl@VCOPOSCoinAcceptor@@@ATL@@UEAAJH@Z 000000018003369c     CoinAcceptor.obj
 0004:000006a8       $pdata$?Draw@?$IViewObjectExImpl@VCOPOSCoinAcceptor@@@ATL@@UEAAJKJPEAXPEAUtagDVTARGETDEVICE@@PEAUHDC__@@2PEBU_RECTL@@3P6AH_K@Z4@Z 00000001800336a8     CoinAcceptor.obj
 0004:000006b4       $pdata$?SetAdvise@?$IViewObjectExImpl@VCOPOSCoinAcceptor@@@ATL@@UEAAJKKPEAUIAdviseSink@@@Z 00000001800336b4     CoinAcceptor.obj
 0004:000006c0       $pdata$?GetAdvise@?$IViewObjectExImpl@VCOPOSCoinAcceptor@@@ATL@@UEAAJPEAK0PEAPEAUIAdviseSink@@@Z 00000001800336c0     CoinAcceptor.obj
 0004:000006cc       $pdata$?QueryHitPoint@?$IViewObjectExImpl@VCOPOSCoinAcceptor@@@ATL@@UEAAJKPEBUtagRECT@@UtagPOINT@@JPEAK@Z 00000001800336cc     CoinAcceptor.obj
 0004:000006d8       $pdata$?QueryHitRect@?$IViewObjectExImpl@VCOPOSCoinAcceptor@@@ATL@@UEAAJKPEBUtagRECT@@0JPEAK@Z 00000001800336d8     CoinAcceptor.obj
 0004:000006e4       $pdata$?OnWindowMessage@?$IOleInPlaceObjectWindowlessImpl@VCOPOSCoinAcceptor@@@ATL@@UEAAJI_K_JPEA_J@Z 00000001800336e4     CoinAcceptor.obj
 0004:000006f0       $pdata$?EnumConnectionPoints@?$IConnectionPointContainerImpl@VCOPOSCoinAcceptor@@@ATL@@UEAAJPEAPEAUIEnumConnectionPoints@@@Z 00000001800336f0     CoinAcceptor.obj
 0004:000006fc       $pdata$?FindConnectionPoint@?$IConnectionPointContainerImpl@VCOPOSCoinAcceptor@@@ATL@@UEAAJAEBU_GUID@@PEAPEAUIConnectionPoint@@@Z 00000001800336fc     CoinAcceptor.obj
 0004:00000708       $pdata$?IsDirty@?$IPersistStorageImpl@VCOPOSCoinAcceptor@@@ATL@@UEAAJXZ 0000000180033708     CoinAcceptor.obj
 0004:00000714       $pdata$?InitNew@?$IPersistStorageImpl@VCOPOSCoinAcceptor@@@ATL@@UEAAJPEAUIStorage@@@Z 0000000180033714     CoinAcceptor.obj
 0004:00000720       $pdata$?Load@?$IPersistStorageImpl@VCOPOSCoinAcceptor@@@ATL@@UEAAJPEAUIStorage@@@Z 0000000180033720     CoinAcceptor.obj
 0004:0000072c       $pdata$?Save@?$IPersistStorageImpl@VCOPOSCoinAcceptor@@@ATL@@UEAAJPEAUIStorage@@H@Z 000000018003372c     CoinAcceptor.obj
 0004:00000738       $pdata$?IPSI_GetIPersistStreamInit@?$IPersistStorageImpl@VCOPOSCoinAcceptor@@@ATL@@AEAAPEAUIPersistStreamInit@@XZ 0000000180033738     CoinAcceptor.obj
 0004:00000744       $pdata$?GetPagesHelper@?$ISpecifyPropertyPagesImpl@VCOPOSCoinAcceptor@@@ATL@@IEAAJPEAUtagCAUUID@@PEBUATL_PROPMAP_ENTRY@2@@Z 0000000180033744     CoinAcceptor.obj
 0004:00000750       $pdata$?DAdvise@?$IDataObjectImpl@VCOPOSCoinAcceptor@@@ATL@@UEAAJPEAUtagFORMATETC@@KPEAUIAdviseSink@@PEAK@Z 0000000180033750     CoinAcceptor.obj
 0004:0000075c       $pdata$?GetClassInfoW@?$IProvideClassInfo2Impl@$1?CLSID_OPOSCoinAcceptor@@3U_GUID@@B$1?DIID__IOPOSCoinAcceptorEvents@@3U2@B$1?LIBID_OposCoinAcceptor_CCO@@3U2@B$00$0A@VCComTypeInfoHolder@ATL@@@ATL@@UEAAJPEAPEAUITypeInfo@@@Z 000000018003375c     CoinAcceptor.obj
 0004:00000768       $pdata$?GetInterfaceSafetyOptions@?$IObjectSafetyImpl@VCOPOSCoinAcceptor@@$02@ATL@@UEAAJAEBU_GUID@@PEAK1@Z 0000000180033768     CoinAcceptor.obj
 0004:00000774       $pdata$?SetInterfaceSafetyOptions@?$IObjectSafetyImpl@VCOPOSCoinAcceptor@@$02@ATL@@UEAAJAEBU_GUID@@KK@Z 0000000180033774     CoinAcceptor.obj
 0004:00000780       $pdata$?_LocCPQueryInterface@?$IConnectionPointImpl@VCOPOSCoinAcceptor@@$1?IID_IPropertyNotifySink@@3U_GUID@@BVCComDynamicUnkArray@ATL@@@ATL@@UEAAJAEBU_GUID@@PEAPEAX@Z 0000000180033780     CoinAcceptor.obj
 0004:00000780       $pdata$?_LocCPQueryInterface@?$IConnectionPointImpl@VCOPOSCoinAcceptor@@$1?DIID__IOPOSCoinAcceptorEvents@@3U_GUID@@BVCComDynamicUnkArray@ATL@@@ATL@@UEAAJAEBU_GUID@@PEAPEAX@Z 0000000180033780     CoinAcceptor.obj
 0004:0000078c       $pdata$?Advise@?$IConnectionPointImpl@VCOPOSCoinAcceptor@@$1?IID_IPropertyNotifySink@@3U_GUID@@BVCComDynamicUnkArray@ATL@@@ATL@@UEAAJPEAUIUnknown@@PEAK@Z 000000018003378c     CoinAcceptor.obj
 0004:0000078c       $pdata$?Advise@?$IConnectionPointImpl@VCOPOSCoinAcceptor@@$1?DIID__IOPOSCoinAcceptorEvents@@3U_GUID@@BVCComDynamicUnkArray@ATL@@@ATL@@UEAAJPEAUIUnknown@@PEAK@Z 000000018003378c     CoinAcceptor.obj
 0004:00000798       $pdata$?Unadvise@?$IConnectionPointImpl@VCOPOSCoinAcceptor@@$1?IID_IPropertyNotifySink@@3U_GUID@@BVCComDynamicUnkArray@ATL@@@ATL@@UEAAJK@Z 0000000180033798     CoinAcceptor.obj
 0004:00000798       $pdata$?Unadvise@?$IConnectionPointImpl@VCOPOSCoinAcceptor@@$1?DIID__IOPOSCoinAcceptorEvents@@3U_GUID@@BVCComDynamicUnkArray@ATL@@@ATL@@UEAAJK@Z 0000000180033798     CoinAcceptor.obj
 0004:000007a4       $pdata$?EnumConnections@?$IConnectionPointImpl@VCOPOSCoinAcceptor@@$1?IID_IPropertyNotifySink@@3U_GUID@@BVCComDynamicUnkArray@ATL@@@ATL@@UEAAJPEAPEAUIEnumConnections@@@Z 00000001800337a4     CoinAcceptor.obj
 0004:000007a4       $pdata$?EnumConnections@?$IConnectionPointImpl@VCOPOSCoinAcceptor@@$1?DIID__IOPOSCoinAcceptorEvents@@3U_GUID@@BVCComDynamicUnkArray@ATL@@@ATL@@UEAAJPEAPEAUIEnumConnections@@@Z 00000001800337a4     CoinAcceptor.obj
 0004:000007b0       $pdata$?Fire_DataEvent@?$CProxy_IOPOSEvents@VCOPOSCoinAcceptor@@@@QEAAXJ@Z 00000001800337b0     CoinAcceptor.obj
 0004:000007bc       $pdata$?Fire_DirectIOEvent@?$CProxy_IOPOSEvents@VCOPOSCoinAcceptor@@@@QEAAXJPEAJPEAPEA_W@Z 00000001800337bc     CoinAcceptor.obj
 0004:000007c8       $pdata$?Fire_StatusUpdateEvent@?$CProxy_IOPOSEvents@VCOPOSCoinAcceptor@@@@QEAAXJ@Z 00000001800337c8     CoinAcceptor.obj
 0004:000007d4       $pdata$?FireTheEvent@?$CProxy_IOPOSEvents@VCOPOSCoinAcceptor@@@@IEAAXPEAVOposVariant@@IAEAJPEB_WJ@Z 00000001800337d4     CoinAcceptor.obj
 0004:000007e0       $pdata$?GetConnMap@COPOSCoinAcceptor@@SAPEBU_ATL_CONNMAP_ENTRY@ATL@@PEAH@Z 00000001800337e0     CoinAcceptor.obj
 0004:000007ec       $pdata$?ProcessWindowMessage@COPOSCoinAcceptor@@UEAAHPEAUHWND__@@I_K_JAEA_JK@Z 00000001800337ec     CoinAcceptor.obj
 0004:000007f8       $pdata$?SOData@COPOSCoinAcceptor@@MEAAJJ@Z 00000001800337f8     CoinAcceptor.obj
 0004:00000804       $pdata$?SODirectIO@COPOSCoinAcceptor@@MEAAJJPEAJPEAPEA_W@Z 0000000180033804     CoinAcceptor.obj
 0004:00000810       $pdata$?SOStatusUpdate@COPOSCoinAcceptor@@MEAAJJ@Z 0000000180033810     CoinAcceptor.obj
 0004:0000081c       $pdata$?DoEvent@COPOSCoinAcceptor@@IEAAXI_K_J@Z 000000018003381c     CoinAcceptor.obj
 0004:00000828       $pdata$??__E_Module@@YAXXZ 0000000180033828     CoinAcceptor.obj
 0004:00000834       $pdata$??__F_Module@@YAXXZ 0000000180033834     CoinAcceptor.obj
 0004:00000840       $pdata$?CreateInstance@?$CComCreator@V?$CComObjectCached@VCComClassFactory@ATL@@@ATL@@@ATL@@SAJPEAXAEBU_GUID@@PEAPEAX@Z 0000000180033840     CoinAcceptor.obj
 0004:0000084c       $pdata$DllMain             000000018003384c     CoinAcceptor.obj
 0004:00000858       $pdata$?CreateInstance@?$CComCreator@V?$CComObject@VCOPOSCoinAcceptor@@@ATL@@@ATL@@SAJPEAXAEBU_GUID@@PEAPEAX@Z 0000000180033858     CoinAcceptor.obj
 0004:00000864       $pdata$?CreateInstance@?$CComCreator@V?$CComAggObject@VCOPOSCoinAcceptor@@@ATL@@@ATL@@SAJPEAXAEBU_GUID@@PEAPEAX@Z 0000000180033864     CoinAcceptor.obj
 0004:00000870       $pdata$??1?$CComEnumImpl@UIEnumConnectionPoints@@$1?_GUID_b196b285_bab4_101a_b69c_00aa00341d07@@3U__s_GUID@@BPEAUIConnectionPoint@@V?$_CopyInterface@UIConnectionPoint@@@ATL@@@ATL@@UEAA@XZ 0000000180033870     CoinAcceptor.obj
 0004:0000087c       $pdata$?Next@?$CComEnumImpl@UIEnumConnectionPoints@@$1?_GUID_b196b285_bab4_101a_b69c_00aa00341d07@@3U__s_GUID@@BPEAUIConnectionPoint@@V?$_CopyInterface@UIConnectionPoint@@@ATL@@@ATL@@UEAAJKPEAPEAUIConnectionPoint@@PEAK@Z 000000018003387c     CoinAcceptor.obj
 0004:00000888       $pdata$?Clone@?$CComEnumImpl@UIEnumConnectionPoints@@$1?_GUID_b196b285_bab4_101a_b69c_00aa00341d07@@3U__s_GUID@@BPEAUIConnectionPoint@@V?$_CopyInterface@UIConnectionPoint@@@ATL@@@ATL@@UEAAJPEAPEAUIEnumConnectionPoints@@@Z 0000000180033888     CoinAcceptor.obj
 0004:00000894       $pdata$?Init@?$CComEnumImpl@UIEnumConnectionPoints@@$1?_GUID_b196b285_bab4_101a_b69c_00aa00341d07@@3U__s_GUID@@BPEAUIConnectionPoint@@V?$_CopyInterface@UIConnectionPoint@@@ATL@@@ATL@@QEAAJPEAPEAUIConnectionPoint@@0PEAUIUnknown@@W4CComEnumFlags@2@@Z 0000000180033894     CoinAcceptor.obj
 0004:000008a0       $pdata$?Release@?$CComObject@V?$CComEnum@UIEnumConnections@@$1?_GUID_b196b287_bab4_101a_b69c_00aa00341d07@@3U__s_GUID@@BUtagCONNECTDATA@@V?$_Copy@UtagCONNECTDATA@@@ATL@@VCComSingleThreadModel@6@@ATL@@@ATL@@UEAAKXZ 00000001800338a0     CoinAcceptor.obj
 0004:000008a0       $pdata$?Release@?$CComObject@V?$CComEnum@UIEnumConnectionPoints@@$1?_GUID_b196b285_bab4_101a_b69c_00aa00341d07@@3U__s_GUID@@BPEAUIConnectionPoint@@V?$_CopyInterface@UIConnectionPoint@@@ATL@@VCComSingleThreadModel@6@@ATL@@@ATL@@UEAAKXZ 00000001800338a0     CoinAcceptor.obj
 0004:000008ac       $pdata$?CreateInstance@?$CComObject@V?$CComEnum@UIEnumConnectionPoints@@$1?_GUID_b196b285_bab4_101a_b69c_00aa00341d07@@3U__s_GUID@@BPEAUIConnectionPoint@@V?$_CopyInterface@UIConnectionPoint@@@ATL@@VCComSingleThreadModel@6@@ATL@@@ATL@@SAJPEAPEAV12@@Z 00000001800338ac     CoinAcceptor.obj
 0004:000008b8       $pdata$??_G?$CComObject@V?$CComEnum@UIEnumConnectionPoints@@$1?_GUID_b196b285_bab4_101a_b69c_00aa00341d07@@3U__s_GUID@@BPEAUIConnectionPoint@@V?$_CopyInterface@UIConnectionPoint@@@ATL@@VCComSingleThreadModel@6@@ATL@@@ATL@@UEAAPEAXI@Z 00000001800338b8     CoinAcceptor.obj
 0004:000008c4       $pdata$?AddRef@?$CComObjectCached@VCComClassFactory@ATL@@@ATL@@UEAAKXZ 00000001800338c4     CoinAcceptor.obj
 0004:000008d0       $pdata$?Release@?$CComObjectCached@VCComClassFactory@ATL@@@ATL@@UEAAKXZ 00000001800338d0     CoinAcceptor.obj
 0004:000008dc       $pdata$??_G?$CComObjectCached@VCComClassFactory@ATL@@@ATL@@UEAAPEAXI@Z 00000001800338dc     CoinAcceptor.obj
 0004:000008e8       $pdata$?Release@?$CComAggObject@VCOPOSCoinAcceptor@@@ATL@@UEAAKXZ 00000001800338e8     CoinAcceptor.obj
 0004:000008f4       $pdata$?QueryInterface@?$CComAggObject@VCOPOSCoinAcceptor@@@ATL@@UEAAJAEBU_GUID@@PEAPEAX@Z 00000001800338f4     CoinAcceptor.obj
 0004:00000900       $pdata$??0?$CComContainedObject@VCOPOSCoinAcceptor@@@ATL@@QEAA@PEAX@Z 0000000180033900     CoinAcceptor.obj
 0004:0000090c       $pdata$??_G?$CComContainedObject@VCOPOSCoinAcceptor@@@ATL@@UEAAPEAXI@Z 000000018003390c     CoinAcceptor.obj
 0004:00000918       $pdata$??_G?$CComAggObject@VCOPOSCoinAcceptor@@@ATL@@UEAAPEAXI@Z 0000000180033918     CoinAcceptor.obj
 0004:00000924       $pdata$??0?$CComObject@VCOPOSCoinAcceptor@@@ATL@@QEAA@PEAX@Z 0000000180033924     CoinAcceptor.obj
 0004:00000930       $pdata$??1?$CComObject@VCOPOSCoinAcceptor@@@ATL@@UEAA@XZ 0000000180033930     CoinAcceptor.obj
 0004:0000093c       $pdata$?Release@?$CComObject@VCOPOSCoinAcceptor@@@ATL@@UEAAKXZ 000000018003393c     CoinAcceptor.obj
 0004:00000948       $pdata$??_G?$CComObject@VCOPOSCoinAcceptor@@@ATL@@UEAAPEAXI@Z 0000000180033948     CoinAcceptor.obj
 0004:00000954       $pdata$??__E?pConnMap@?$IConnectionPointContainerImpl@VCOPOSCoinAcceptor@@@ATL@@0PEBU_ATL_CONNMAP_ENTRY@2@EB@@YAXXZ 0000000180033954     CoinAcceptor.obj
 0004:00000960       $pdata$??1?$CComEnumImpl@UIEnumConnections@@$1?_GUID_b196b287_bab4_101a_b69c_00aa00341d07@@3U__s_GUID@@BUtagCONNECTDATA@@V?$_Copy@UtagCONNECTDATA@@@ATL@@@ATL@@UEAA@XZ 0000000180033960     CoinAcceptor.obj
 0004:0000096c       $pdata$?Next@?$CComEnumImpl@UIEnumConnections@@$1?_GUID_b196b287_bab4_101a_b69c_00aa00341d07@@3U__s_GUID@@BUtagCONNECTDATA@@V?$_Copy@UtagCONNECTDATA@@@ATL@@@ATL@@UEAAJKPEAUtagCONNECTDATA@@PEAK@Z 000000018003396c     CoinAcceptor.obj
 0004:00000978       $pdata$?Clone@?$CComEnumImpl@UIEnumConnections@@$1?_GUID_b196b287_bab4_101a_b69c_00aa00341d07@@3U__s_GUID@@BUtagCONNECTDATA@@V?$_Copy@UtagCONNECTDATA@@@ATL@@@ATL@@UEAAJPEAPEAUIEnumConnections@@@Z 0000000180033978     CoinAcceptor.obj
 0004:00000984       $pdata$?Init@?$CComEnumImpl@UIEnumConnections@@$1?_GUID_b196b287_bab4_101a_b69c_00aa00341d07@@3U__s_GUID@@BUtagCONNECTDATA@@V?$_Copy@UtagCONNECTDATA@@@ATL@@@ATL@@QEAAJPEAUtagCONNECTDATA@@0PEAUIUnknown@@W4CComEnumFlags@2@@Z 0000000180033984     CoinAcceptor.obj
 0004:00000990       $pdata$?CreateInstance@?$CComObject@V?$CComEnum@UIEnumConnections@@$1?_GUID_b196b287_bab4_101a_b69c_00aa00341d07@@3U__s_GUID@@BUtagCONNECTDATA@@V?$_Copy@UtagCONNECTDATA@@@ATL@@VCComSingleThreadModel@6@@ATL@@@ATL@@SAJPEAPEAV12@@Z 0000000180033990     CoinAcceptor.obj
 0004:0000099c       $pdata$??_G?$CComObject@V?$CComEnum@UIEnumConnections@@$1?_GUID_b196b287_bab4_101a_b69c_00aa00341d07@@3U__s_GUID@@BUtagCONNECTDATA@@V?$_Copy@UtagCONNECTDATA@@@ATL@@VCComSingleThreadModel@6@@ATL@@@ATL@@UEAAPEAXI@Z 000000018003399c     CoinAcceptor.obj
 0004:000009a8       $pdata$??1CComControlBase@ATL@@UEAA@XZ 00000001800339a8     CoinAcceptorImpl.obj
 0004:000009b4       $pdata$??1?$IConnectionPointImpl@VCOPOSCoinAcceptor@@$1?IID_IPropertyNotifySink@@3U_GUID@@BVCComDynamicUnkArray@ATL@@@ATL@@QEAA@XZ 00000001800339b4     CoinAcceptorImpl.obj
 0004:000009b4       $pdata$??1?$IConnectionPointImpl@VCOPOSCoinAcceptor@@$1?DIID__IOPOSCoinAcceptorEvents@@3U_GUID@@BVCComDynamicUnkArray@ATL@@@ATL@@QEAA@XZ 00000001800339b4     CoinAcceptorImpl.obj
 0004:000009c0       $pdata$?FinalConstruct@COPOSCoinAcceptor@@QEAAJXZ 00000001800339c0     CoinAcceptorImpl.obj
 0004:000009cc       $pdata$??1COPOSCoinAcceptor@@UEAA@XZ 00000001800339cc     CoinAcceptorImpl.obj
 0004:000009d8       $pdata$?GetOposProp@COPOSCoinAcceptor@@IEAAJJPEAJJ@Z 00000001800339d8     CoinAcceptorImpl.obj
 0004:000009e4       $pdata$?SetOposProp@COPOSCoinAcceptor@@IEAAJJJJ@Z 00000001800339e4     CoinAcceptorImpl.obj
 0004:000009f0       $pdata$?GetOposProp@COPOSCoinAcceptor@@IEAAJJPEAPEA_WJ@Z 00000001800339f0     CoinAcceptorImpl.obj
 0004:000009fc       $pdata$?SetOposProp@COPOSCoinAcceptor@@IEAAJJPEA_WJ@Z 00000001800339fc     CoinAcceptorImpl.obj
 0004:00000a08       $pdata$?DoInvoke@COPOSCoinAcceptor@@IEAAJJPEAVOposVariant@@IHPEAJ_N@Z 0000000180033a08     CoinAcceptorImpl.obj
 0004:00000a14       $pdata$?SetCOFreezeEvents@COPOSCoinAcceptor@@IEAAXF@Z 0000000180033a14     CoinAcceptorImpl.obj
 0004:00000a20       $pdata$?FreezeEvents@COPOSCoinAcceptor@@MEAAJH@Z 0000000180033a20     CoinAcceptorImpl.obj
 0004:00000a2c       $pdata$?OnDraw@COPOSCoinAcceptor@@MEAAJAEAUATL_DRAWINFO@@@Z 0000000180033a2c     CoinAcceptorImpl.obj
 0004:00000a38       $pdata$?EventInit@COPOSCoinAcceptor@@IEAAJXZ 0000000180033a38     CoinAcceptorImpl.obj
 0004:00000a44       $pdata$?EventUninit@COPOSCoinAcceptor@@IEAAXXZ 0000000180033a44     CoinAcceptorImpl.obj
 0004:00000a50       $pdata$?s_EventWindowProc@COPOSCoinAcceptor@@KA_JPEAUHWND__@@I_K_J@Z 0000000180033a50     CoinAcceptorImpl.obj
 0004:00000a5c       $pdata$?EventWindowProc@COPOSCoinAcceptor@@IEAA_JI_K_J@Z 0000000180033a5c     CoinAcceptorImpl.obj
 0004:00000a68       $pdata$?SOProcessID@COPOSCoinAcceptor@@UEAAJPEAJ@Z 0000000180033a68     CoinAcceptorImpl.obj
 0004:00000a74       $pdata$?get_Claimed@COPOSCoinAcceptor@@UEAAJPEAF@Z 0000000180033a74     CoinAcceptorImpl.obj
 0004:00000a80       $pdata$?get_DataEventEnabled@COPOSCoinAcceptor@@UEAAJPEAF@Z 0000000180033a80     CoinAcceptorImpl.obj
 0004:00000a8c       $pdata$?get_DeviceEnabled@COPOSCoinAcceptor@@UEAAJPEAF@Z 0000000180033a8c     CoinAcceptorImpl.obj
 0004:00000a98       $pdata$?get_FreezeEvents@COPOSCoinAcceptor@@UEAAJPEAF@Z 0000000180033a98     CoinAcceptorImpl.obj
 0004:00000aa4       $pdata$?put_FreezeEvents@COPOSCoinAcceptor@@UEAAJF@Z 0000000180033aa4     CoinAcceptorImpl.obj
 0004:00000ab0       $pdata$?get_ResultCode@COPOSCoinAcceptor@@UEAAJPEAJ@Z 0000000180033ab0     CoinAcceptorImpl.obj
 0004:00000abc       $pdata$?get_State@COPOSCoinAcceptor@@UEAAJPEAJ@Z 0000000180033abc     CoinAcceptorImpl.obj
 0004:00000ac8       $pdata$?get_ControlObjectDescription@COPOSCoinAcceptor@@UEAAJPEAPEA_W@Z 0000000180033ac8     CoinAcceptorImpl.obj
 0004:00000ad4       $pdata$?get_CapStatisticsReporting@COPOSCoinAcceptor@@UEAAJPEAF@Z 0000000180033ad4     CoinAcceptorImpl.obj
 0004:00000ae0       $pdata$?get_CapUpdateStatistics@COPOSCoinAcceptor@@UEAAJPEAF@Z 0000000180033ae0     CoinAcceptorImpl.obj
 0004:00000aec       $pdata$?get_CapCompareFirmwareVersion@COPOSCoinAcceptor@@UEAAJPEAF@Z 0000000180033aec     CoinAcceptorImpl.obj
 0004:00000af8       $pdata$?get_CapUpdateFirmware@COPOSCoinAcceptor@@UEAAJPEAF@Z 0000000180033af8     CoinAcceptorImpl.obj
 0004:00000b04       $pdata$?CheckHealth@COPOSCoinAcceptor@@UEAAJJPEAJ@Z 0000000180033b04     CoinAcceptorImpl.obj
 0004:00000b10       $pdata$?ClaimDevice@COPOSCoinAcceptor@@UEAAJJPEAJ@Z 0000000180033b10     CoinAcceptorImpl.obj
 0004:00000b1c       $pdata$?ClearInput@COPOSCoinAcceptor@@UEAAJPEAJ@Z 0000000180033b1c     CoinAcceptorImpl.obj
 0004:00000b28       $pdata$?Close@COPOSCoinAcceptor@@UEAAJPEAJ@Z 0000000180033b28     CoinAcceptorImpl.obj
 0004:00000b34       $pdata$?DirectIO@COPOSCoinAcceptor@@UEAAJJPEAJPEAPEA_W0@Z 0000000180033b34     CoinAcceptorImpl.obj
 0004:00000b40       $pdata$?Open@COPOSCoinAcceptor@@UEAAJPEA_WPEAJ@Z 0000000180033b40     CoinAcceptorImpl.obj
 0004:00000b4c       $pdata$?ReleaseDevice@COPOSCoinAcceptor@@UEAAJPEAJ@Z 0000000180033b4c     CoinAcceptorImpl.obj
 0004:00000b58       $pdata$?ResetStatistics@COPOSCoinAcceptor@@UEAAJPEA_WPEAJ@Z 0000000180033b58     CoinAcceptorImpl.obj
 0004:00000b64       $pdata$?RetrieveStatistics@COPOSCoinAcceptor@@UEAAJPEAPEA_WPEAJ@Z 0000000180033b64     CoinAcceptorImpl.obj
 0004:00000b70       $pdata$?UpdateStatistics@COPOSCoinAcceptor@@UEAAJPEA_WPEAJ@Z 0000000180033b70     CoinAcceptorImpl.obj
 0004:00000b7c       $pdata$?CompareFirmwareVersion@COPOSCoinAcceptor@@UEAAJPEA_WPEAJ1@Z 0000000180033b7c     CoinAcceptorImpl.obj
 0004:00000b88       $pdata$?UpdateFirmware@COPOSCoinAcceptor@@UEAAJPEA_WPEAJ@Z 0000000180033b88     CoinAcceptorImpl.obj
 0004:00000b94       $pdata$?get_CapDiscrepancy@COPOSCoinAcceptor@@UEAAJPEAF@Z 0000000180033b94     CoinAcceptorImpl.obj
 0004:00000ba0       $pdata$?get_CapFullSensor@COPOSCoinAcceptor@@UEAAJPEAF@Z 0000000180033ba0     CoinAcceptorImpl.obj
 0004:00000bac       $pdata$?get_CapJamSensor@COPOSCoinAcceptor@@UEAAJPEAF@Z 0000000180033bac     CoinAcceptorImpl.obj
 0004:00000bb8       $pdata$?get_CapNearFullSensor@COPOSCoinAcceptor@@UEAAJPEAF@Z 0000000180033bb8     CoinAcceptorImpl.obj
 0004:00000bc4       $pdata$?get_CapPauseDeposit@COPOSCoinAcceptor@@UEAAJPEAF@Z 0000000180033bc4     CoinAcceptorImpl.obj
 0004:00000bd0       $pdata$?get_CapRealTimeData@COPOSCoinAcceptor@@UEAAJPEAF@Z 0000000180033bd0     CoinAcceptorImpl.obj
 0004:00000bdc       $pdata$?get_RealTimeDataEnabled@COPOSCoinAcceptor@@UEAAJPEAF@Z 0000000180033bdc     CoinAcceptorImpl.obj
 0004:00000be8       $pdata$?AdjustCashCounts@COPOSCoinAcceptor@@UEAAJPEA_WPEAJ@Z 0000000180033be8     CoinAcceptorImpl.obj
 0004:00000bf4       $pdata$?BeginDeposit@COPOSCoinAcceptor@@UEAAJPEAJ@Z 0000000180033bf4     CoinAcceptorImpl.obj
 0004:00000c00       $pdata$?EndDeposit@COPOSCoinAcceptor@@UEAAJJPEAJ@Z 0000000180033c00     CoinAcceptorImpl.obj
 0004:00000c0c       $pdata$?FixDeposit@COPOSCoinAcceptor@@UEAAJPEAJ@Z 0000000180033c0c     CoinAcceptorImpl.obj
 0004:00000c18       $pdata$?PauseDeposit@COPOSCoinAcceptor@@UEAAJJPEAJ@Z 0000000180033c18     CoinAcceptorImpl.obj
 0004:00000c24       $pdata$?ReadCashCounts@COPOSCoinAcceptor@@UEAAJPEAPEA_WPEAFPEAJ@Z 0000000180033c24     CoinAcceptorImpl.obj
 0004:00000c30       $pdata$atexit              0000000180033c30     LIBCMT:utility.obj
 0004:00000c3c       $pdata$_onexit             0000000180033c3c     LIBCMT:utility.obj
 0004:00000c48       $pdata$__scrt_is_nonwritable_in_current_image 0000000180033c48     LIBCMT:utility.obj
 0004:00000c54       $pdata$__scrt_is_nonwritable_in_current_image$filt$0 0000000180033c54     LIBCMT:utility.obj
 0004:00000c60       $pdata$__scrt_acquire_startup_lock 0000000180033c60     LIBCMT:utility.obj
 0004:00000c6c       $pdata$__scrt_release_startup_lock 0000000180033c6c     LIBCMT:utility.obj
 0004:00000c78       $pdata$__scrt_initialize_crt 0000000180033c78     LIBCMT:utility.obj
 0004:00000c84       $pdata$__scrt_uninitialize_crt 0000000180033c84     LIBCMT:utility.obj
 0004:00000c90       $pdata$__scrt_initialize_onexit_tables 0000000180033c90     LIBCMT:utility.obj
 0004:00000c9c       $pdata$__scrt_dllmain_exception_filter 0000000180033c9c     LIBCMT:utility.obj
 0004:00000ca8       $pdata$__scrt_dllmain_before_initialize_c 0000000180033ca8     LIBCMT:utility.obj
 0004:00000cb4       $pdata$__scrt_dllmain_after_initialize_c 0000000180033cb4     LIBCMT:utility.obj
 0004:00000cc0       $pdata$__scrt_dllmain_uninitialize_c 0000000180033cc0     LIBCMT:utility.obj
 0004:00000ccc       $pdata$__scrt_dllmain_uninitialize_critical 0000000180033ccc     LIBCMT:utility.obj
 0004:00000cd8       $pdata$__scrt_dllmain_crt_thread_attach 0000000180033cd8     LIBCMT:utility.obj
 0004:00000ce4       $pdata$__scrt_dllmain_crt_thread_detach 0000000180033ce4     LIBCMT:utility.obj
 0004:00000cf0       $pdata$_Init_thread_header 0000000180033cf0     LIBCMT:thread_safe_statics.obj
 0004:00000cfc       $pdata$_Init_thread_footer 0000000180033cfc     LIBCMT:thread_safe_statics.obj
 0004:00000d08       $pdata$_Init_thread_wait   0000000180033d08     LIBCMT:thread_safe_statics.obj
 0004:00000d14       $pdata$_Init_thread_notify 0000000180033d14     LIBCMT:thread_safe_statics.obj
 0004:00000d20       $pdata$?__scrt_uninitialize_thread_safe_statics@@YAXXZ 0000000180033d20     LIBCMT:thread_safe_statics.obj
 0004:00000d2c       $pdata$?__scrt_initialize_thread_safe_statics@@YAHXZ 0000000180033d2c     LIBCMT:thread_safe_statics.obj
 0004:00000d38       $pdata$__report_securityfailure 0000000180033d38     LIBCMT:gs_report.obj
 0004:00000d44       $pdata$__report_rangecheckfailure 0000000180033d44     LIBCMT:gs_report.obj
 0004:00000d50       $pdata$__report_gsfailure  0000000180033d50     LIBCMT:gs_report.obj
 0004:00000d5c       $pdata$capture_current_context 0000000180033d5c     LIBCMT:gs_report.obj
 0004:00000d68       $pdata$capture_previous_context 0000000180033d68     LIBCMT:gs_report.obj
 0004:00000d74       $pdata$__raise_securityfailure 0000000180033d74     LIBCMT:gs_report.obj
 0004:00000d80       $pdata$??2@YAPEAX_KAEBUnothrow_t@std@@@Z 0000000180033d80     LIBCMT:new_scalar_nothrow.obj
 0004:00000d8c       $pdata$?catch$0@?0???2@YAPEAX_KAEBUnothrow_t@std@@@Z@4HA 0000000180033d8c     LIBCMT:new_scalar_nothrow.obj
 0004:00000d98       $pdata$__GSHandlerCheckCommon 0000000180033d98     LIBCMT:gshandler.obj
 0004:00000da4       $pdata$__GSHandlerCheck    0000000180033da4     LIBCMT:gshandler.obj
 0004:00000db0       $pdata$__GSHandlerCheck_SEH 0000000180033db0     LIBCMT:gshandlerseh.obj
 0004:00000dd4       $pdata$?dllmain_crt_process_attach@@YAHQEAUHINSTANCE__@@QEAX@Z 0000000180033dd4     LIBCMT:dll_dllmain.obj
 0004:00000de0       $pdata$?fin$0@?0??dllmain_crt_process_attach@@YAHQEAUHINSTANCE__@@QEAX@Z@4HA 0000000180033de0     LIBCMT:dll_dllmain.obj
 0004:00000dec       $pdata$?dllmain_crt_process_detach@@YAH_N@Z 0000000180033dec     LIBCMT:dll_dllmain.obj
 0004:00000df8       $pdata$?fin$0@?0??dllmain_crt_process_detach@@YAH_N@Z@4HA 0000000180033df8     LIBCMT:dll_dllmain.obj
 0004:00000e04       $pdata$?dllmain_crt_dispatch@@YAHQEAUHINSTANCE__@@KQEAX@Z 0000000180033e04     LIBCMT:dll_dllmain.obj
 0004:00000e10       $pdata$?dllmain_dispatch@@YAHQEAUHINSTANCE__@@KQEAX@Z 0000000180033e10     LIBCMT:dll_dllmain.obj
 0004:00000e1c       $pdata$?filt$0@?0??dllmain_dispatch@@YAHQEAUHINSTANCE__@@KQEAX@Z@4HA 0000000180033e1c     LIBCMT:dll_dllmain.obj
 0004:00000e28       $pdata$_DllMainCRTStartup  0000000180033e28     LIBCMT:dll_dllmain.obj
 0004:00000e34       $pdata$??2@YAPEAX_K@Z      0000000180033e34     LIBCMT:new_scalar.obj
 0004:00000e40       $pdata$__isa_available_init 0000000180033e40     LIBCMT:cpu_disp.obj
 0004:00000e4c       $pdata$__scrt_fastfail     0000000180033e4c     LIBCMT:utility_desktop.obj
 0004:00000e58       $pdata$__security_init_cookie 0000000180033e58     LIBCMT:gs_support.obj
 0004:00000e64       $pdata$__scrt_initialize_default_local_stdio_options 0000000180033e64     LIBCMT:default_local_stdio_options.obj
 0004:00000e70       $pdata$_RTC_Initialize     0000000180033e70     LIBCMT:initsect.obj
 0004:00000e7c       $pdata$_RTC_Terminate      0000000180033e7c     LIBCMT:initsect.obj
 0004:00000e88       $pdata$??0exception@std@@QEAA@AEBV01@@Z 0000000180033e88     LIBCMT:throw_bad_alloc.obj
 0004:00000e94       $pdata$??_Gexception@std@@UEAAPEAXI@Z 0000000180033e94     LIBCMT:throw_bad_alloc.obj
 0004:00000e94       $pdata$??_Gbad_alloc@std@@UEAAPEAXI@Z 0000000180033e94     LIBCMT:throw_bad_alloc.obj
 0004:00000e94       $pdata$??_Gbad_exception@std@@UEAAPEAXI@Z 0000000180033e94     libvcruntime:frame.obj
 0004:00000e94       $pdata$??_Gbad_array_new_length@std@@UEAAPEAXI@Z 0000000180033e94     LIBCMT:throw_bad_alloc.obj
 0004:00000ea0       $pdata$??0bad_alloc@std@@QEAA@AEBV01@@Z 0000000180033ea0     LIBCMT:throw_bad_alloc.obj
 0004:00000eac       $pdata$??0bad_array_new_length@std@@QEAA@AEBV01@@Z 0000000180033eac     LIBCMT:throw_bad_alloc.obj
 0004:00000eb8       $pdata$?__scrt_throw_std_bad_alloc@@YAXXZ 0000000180033eb8     LIBCMT:throw_bad_alloc.obj
 0004:00000ec4       $pdata$?__scrt_throw_std_bad_array_new_length@@YAXXZ 0000000180033ec4     LIBCMT:throw_bad_alloc.obj
 0004:00000edc       $pdata$??_Gtype_info@@UEAAPEAXI@Z 0000000180033edc     LIBCMT:std_type_info_static.obj
 0004:00000ee8       $pdata$??0CAtlBaseModule@ATL@@QEAA@XZ 0000000180033ee8     atls:atlbase.obj
 0004:00000ef4       $pdata$??1CAtlBaseModule@ATL@@QEAA@XZ 0000000180033ef4     atls:atlbase.obj
 0004:00000f00       $pdata$??__E_AtlBaseModule@ATL@@YAXXZ 0000000180033f00     atls:atlbase.obj
 0004:00000f0c       $pdata$AtlThunk_AllocateData 0000000180033f0c     atls:atlthunk.obj
 0004:00000f18       $pdata$AtlThunk_InitData   0000000180033f18     atls:atlthunk.obj
 0004:00000f24       $pdata$AtlThunk_DataToCode 0000000180033f24     atls:atlthunk.obj
 0004:00000f30       $pdata$AtlThunk_FreeData   0000000180033f30     atls:atlthunk.obj
 0004:00000f3c       $pdata$?__InitializeThunkPool@@YAHXZ 0000000180033f3c     atls:atlthunk.obj
 0004:00000f48       $pdata$?__AllocStdCallThunk_cmn@@YAPEAXXZ 0000000180033f48     atls:atlthunk.obj
 0004:00000f54       $pdata$??$GetProcAddressAll@P6AXPEAUAtlThunkData_t@@PEAX_K@Z@@YAP6AXPEAUAtlThunkData_t@@PEAX_K@ZPEAP6AX012@Z@Z 0000000180033f54     atls:atlthunk.obj
 0004:00000f54       $pdata$??$GetProcAddressAll@P6AP6A_JPEAUHWND__@@I_K_J@ZPEAUAtlThunkData_t@@@Z@@YAP6AP6A_JPEAUHWND__@@I_K_J@ZPEAUAtlThunkData_t@@@ZPEAP6AP6A_J0I12@Z3@Z@Z 0000000180033f54     atls:atlthunk.obj
 0004:00000f54       $pdata$??$GetProcAddressAll@P6AXPEAUAtlThunkData_t@@@Z@@YAP6AXPEAUAtlThunkData_t@@@ZPEAP6AX0@Z@Z 0000000180033f54     atls:atlthunk.obj
 0004:00000f54       $pdata$??$GetProcAddressAll@P6APEAUAtlThunkData_t@@XZ@@YAP6APEAUAtlThunkData_t@@XZPEAP6APEAU0@XZ@Z 0000000180033f54     atls:atlthunk.obj
 0004:00000f60       $pdata$_purecall           0000000180033f60     libvcruntime:purevirt.obj
 0004:00000f6c       $pdata$wcsstr              0000000180033f6c     libvcruntime:wcsstr.obj
 0004:00000fb4       $pdata$__vcrt_initialize   0000000180033fb4     libvcruntime:initialization.obj
 0004:00000fc0       $pdata$__vcrt_uninitialize 0000000180033fc0     libvcruntime:initialization.obj
 0004:00000fcc       $pdata$__vcrt_uninitialize_critical 0000000180033fcc     libvcruntime:initialization.obj
 0004:00000fd8       $pdata$__vcrt_thread_attach 0000000180033fd8     libvcruntime:initialization.obj
 0004:00000fe4       $pdata$__vcrt_thread_detach 0000000180033fe4     libvcruntime:initialization.obj
 0004:00000ff0       $pdata$__C_specific_handler 0000000180033ff0     libvcruntime:riscchandler.obj
 0004:00000ffc       $pdata$?CatchTryBlock@__FrameHandler3@@SAPEBU_s_TryBlockMapEntry@@PEBU_s_FuncInfo@@H@Z 0000000180033ffc     libvcruntime:risctrnsctrl.obj
 0004:00001008       $pdata$?ExecutionInCatch@__FrameHandler3@@SA_NPEAU_xDISPATCHER_CONTEXT@@PEBU_s_FuncInfo@@@Z 0000000180034008     libvcruntime:risctrnsctrl.obj
 0004:00001014       $pdata$?FrameUnwindToEmptyState@__FrameHandler3@@SAXPEA_KPEAU_xDISPATCHER_CONTEXT@@PEBU_s_FuncInfo@@@Z 0000000180034014     libvcruntime:risctrnsctrl.obj
 0004:00001020       $pdata$?GetEstablisherFrame@__FrameHandler3@@SAPEA_KPEA_KPEAU_xDISPATCHER_CONTEXT@@PEBU_s_FuncInfo@@0@Z 0000000180034020     libvcruntime:risctrnsctrl.obj
 0004:0000102c       $pdata$?UnwindNestedFrames@__FrameHandler3@@SAXPEA_KPEAUEHExceptionRecord@@PEAU_CONTEXT@@0PEAXPEBU_s_FuncInfo@@HHPEBU_s_HandlerType@@PEAU_xDISPATCHER_CONTEXT@@E@Z 000000018003402c     libvcruntime:risctrnsctrl.obj
 0004:00001038       $pdata$?GetRangeOfTrysToCheck@__FrameHandler3@@SA?AU?$pair@Viterator@TryBlockMap@__FrameHandler3@@V123@@std@@AEAVTryBlockMap@1@HPEAU_xDISPATCHER_CONTEXT@@PEBU_s_FuncInfo@@H@Z 0000000180034038     libvcruntime:risctrnsctrl.obj
 0004:00001044       $pdata$_GetImageBase       0000000180034044     libvcruntime:risctrnsctrl.obj
 0004:00001050       $pdata$_SetImageBase       0000000180034050     libvcruntime:risctrnsctrl.obj
 0004:0000105c       $pdata$_GetThrowImageBase  000000018003405c     libvcruntime:risctrnsctrl.obj
 0004:00001068       $pdata$_SetThrowImageBase  0000000180034068     libvcruntime:risctrnsctrl.obj
 0004:00001074       $pdata$_CreateFrameInfo    0000000180034074     libvcruntime:risctrnsctrl.obj
 0004:00001080       $pdata$_FindAndUnlinkFrame 0000000180034080     libvcruntime:risctrnsctrl.obj
 0004:0000108c       $pdata$__CxxFrameHandler3  000000018003408c     libvcruntime:risctrnsctrl.obj
 0004:00001098       $pdata$??$_CallSETranslator@V__FrameHandler3@@@@YAHPEAUEHExceptionRecord@@PEA_KPEAU_CONTEXT@@PEAU_xDISPATCHER_CONTEXT@@PEBU_s_FuncInfo@@K1@Z 0000000180034098     libvcruntime:risctrnsctrl.obj
 0004:000010a4       $pdata$?filt$0@?0???$_CallSETranslator@V__FrameHandler3@@@@YAHPEAUEHExceptionRecord@@PEA_KPEAU_CONTEXT@@PEAU_xDISPATCHER_CONTEXT@@PEBU_s_FuncInfo@@K1@Z@4HA 00000001800340a4     libvcruntime:risctrnsctrl.obj
 0004:000010b0       $pdata$__std_type_info_destroy_list 00000001800340b0     libvcruntime:std_type_info.obj
 0004:000010bc       $pdata$__std_exception_copy 00000001800340bc     libvcruntime:std_exception.obj
 0004:000010c8       $pdata$__std_exception_destroy 00000001800340c8     libvcruntime:std_exception.obj
 0004:000010d4       $pdata$_CxxThrowException  00000001800340d4     libvcruntime:throw.obj
 0004:000010e0       $pdata$__vcrt_initialize_ptd 00000001800340e0     libvcruntime:per_thread_data.obj
 0004:000010ec       $pdata$__vcrt_uninitialize_ptd 00000001800340ec     libvcruntime:per_thread_data.obj
 0004:000010f8       $pdata$__vcrt_getptd       00000001800340f8     libvcruntime:per_thread_data.obj
 0004:00001104       $pdata$__vcrt_getptd_noexit 0000000180034104     libvcruntime:per_thread_data.obj
 0004:00001110       $pdata$__vcrt_freeptd      0000000180034110     libvcruntime:per_thread_data.obj
 0004:0000111c       $pdata$__vcrt_freefls      000000018003411c     libvcruntime:per_thread_data.obj
 0004:00001128       $pdata$__vcrt_initialize_locks 0000000180034128     libvcruntime:locks.obj
 0004:00001134       $pdata$__vcrt_uninitialize_locks 0000000180034134     libvcruntime:locks.obj
 0004:00001164       $pdata$_IsExceptionObjectToBeDestroyed 0000000180034164     libvcruntime:ehhelpers.obj
 0004:00001170       $pdata$__FrameUnwindFilter 0000000180034170     libvcruntime:ehhelpers.obj
 0004:0000117c       $pdata$__DestructExceptionObject 000000018003417c     libvcruntime:ehhelpers.obj
 0004:00001188       $pdata$__DestructExceptionObject$filt$0 0000000180034188     libvcruntime:ehhelpers.obj
 0004:00001194       $pdata$?StateFromIp@__FrameHandler3@@SAHPEBU_s_FuncInfo@@PEAU_xDISPATCHER_CONTEXT@@_K@Z 0000000180034194     libvcruntime:ehstate.obj
 0004:000011a0       $pdata$?GetCurrentState@__FrameHandler3@@SAHPEA_KPEAU_xDISPATCHER_CONTEXT@@PEBU_s_FuncInfo@@@Z 00000001800341a0     libvcruntime:ehstate.obj
 0004:000011ac       $pdata$?SetUnwindTryBlock@__FrameHandler3@@SAXPEA_KPEAU_xDISPATCHER_CONTEXT@@PEBU_s_FuncInfo@@H@Z 00000001800341ac     libvcruntime:ehstate.obj
 0004:000011b8       $pdata$?GetUnwindTryBlock@__FrameHandler3@@SAHPEA_KPEAU_xDISPATCHER_CONTEXT@@PEBU_s_FuncInfo@@@Z 00000001800341b8     libvcruntime:ehstate.obj
 0004:000011c4       $pdata$?FrameUnwindToState@__FrameHandler3@@SAXPEA_KPEAU_xDISPATCHER_CONTEXT@@PEBU_s_FuncInfo@@H@Z 00000001800341c4     libvcruntime:frame.obj
 0004:000011d0       $pdata$?filt$0@?0??FrameUnwindToState@__FrameHandler3@@SAXPEA_KPEAU_xDISPATCHER_CONTEXT@@PEBU_s_FuncInfo@@H@Z@4HA 00000001800341d0     libvcruntime:frame.obj
 0004:000011dc       $pdata$?fin$1@?0??FrameUnwindToState@__FrameHandler3@@SAXPEA_KPEAU_xDISPATCHER_CONTEXT@@PEBU_s_FuncInfo@@H@Z@4HA 00000001800341dc     libvcruntime:frame.obj
 0004:000011e8       $pdata$?GetHandlerSearchState@__FrameHandler3@@SAHPEA_KPEAU_xDISPATCHER_CONTEXT@@PEBU_s_FuncInfo@@@Z 00000001800341e8     libvcruntime:frame.obj
 0004:000011f4       $pdata$?CxxCallCatchBlock@__FrameHandler3@@SAPEAXPEAU_EXCEPTION_RECORD@@@Z 00000001800341f4     libvcruntime:frame.obj
 0004:00001200       $pdata$?filt$0@?0??CxxCallCatchBlock@__FrameHandler3@@SAPEAXPEAU_EXCEPTION_RECORD@@@Z@4HA 0000000180034200     libvcruntime:frame.obj
 0004:0000120c       $pdata$?fin$1@?0??CxxCallCatchBlock@__FrameHandler3@@SAPEAXPEAU_EXCEPTION_RECORD@@@Z@4HA 000000018003420c     libvcruntime:frame.obj
 0004:00001218       $pdata$??0bad_exception@std@@QEAA@AEBV01@@Z 0000000180034218     libvcruntime:frame.obj
 0004:00001224       $pdata$?ExFilterRethrow@@YAHPEAU_EXCEPTION_POINTERS@@PEAUEHExceptionRecord@@PEAH@Z 0000000180034224     libvcruntime:frame.obj
 0004:00001230       $pdata$?IsInExceptionSpec@@YAEPEAUEHExceptionRecord@@PEBU_s_ESTypeList@@@Z 0000000180034230     libvcruntime:frame.obj
 0004:0000123c       $pdata$?Is_bad_exception_allowed@@YAEPEBU_s_ESTypeList@@@Z 000000018003423c     libvcruntime:frame.obj
 0004:00001248       $pdata$??$__InternalCxxFrameHandler@V__FrameHandler3@@@@YA?AW4_EXCEPTION_DISPOSITION@@PEAUEHExceptionRecord@@PEA_KPEAU_CONTEXT@@PEAU_xDISPATCHER_CONTEXT@@PEBU_s_FuncInfo@@H1E@Z 0000000180034248     libvcruntime:frame.obj
 0004:00001254       $pdata$??$TypeMatchHelper@V__FrameHandler3@@@@YAHPEBU_s_HandlerType@@PEBU_s_CatchableType@@PEBU_s_ThrowInfo@@@Z 0000000180034254     libvcruntime:frame.obj
 0004:00001260       $pdata$??$BuildCatchObjectHelperInternal@V__FrameHandler3@@@@YAHPEAUEHExceptionRecord@@PEAXPEBU_s_HandlerType@@PEBU_s_CatchableType@@@Z 0000000180034260     libvcruntime:frame.obj
 0004:0000126c       $pdata$??$BuildCatchObjectInternal@V__FrameHandler3@@@@YAXPEAUEHExceptionRecord@@PEAXPEBU_s_HandlerType@@PEBU_s_CatchableType@@@Z 000000018003426c     libvcruntime:frame.obj
 0004:00001278       $pdata$??$FindHandler@V__FrameHandler3@@@@YAXPEAUEHExceptionRecord@@PEA_KPEAU_CONTEXT@@PEAU_xDISPATCHER_CONTEXT@@PEBU_s_FuncInfo@@EH1@Z 0000000180034278     libvcruntime:frame.obj
 0004:00001284       $pdata$??$CatchIt@V__FrameHandler3@@@@YAXPEAUEHExceptionRecord@@PEA_KPEAU_CONTEXT@@PEAU_xDISPATCHER_CONTEXT@@PEBU_s_FuncInfo@@PEBU_s_HandlerType@@PEBU_s_CatchableType@@PEBU_s_TryBlockMapEntry@@H1EE@Z 0000000180034284     libvcruntime:frame.obj
 0004:00001290       $pdata$??$FindHandlerForForeignException@V__FrameHandler3@@@@YAXPEAUEHExceptionRecord@@PEA_KPEAU_CONTEXT@@PEAU_xDISPATCHER_CONTEXT@@PEBU_s_FuncInfo@@HH1@Z 0000000180034290     libvcruntime:frame.obj
 0004:0000129c       $pdata$__vcrt_FlsAlloc     000000018003429c     libvcruntime:winapi_downlevel.obj
 0004:000012a8       $pdata$__vcrt_FlsFree      00000001800342a8     libvcruntime:winapi_downlevel.obj
 0004:000012b4       $pdata$__vcrt_FlsGetValue  00000001800342b4     libvcruntime:winapi_downlevel.obj
 0004:000012c0       $pdata$__vcrt_FlsSetValue  00000001800342c0     libvcruntime:winapi_downlevel.obj
 0004:000012cc       $pdata$__vcrt_InitializeCriticalSectionEx 00000001800342cc     libvcruntime:winapi_downlevel.obj
 0004:000012d8       $pdata$?try_get_function@@YAPEAXW4function_id@?A0x656504f9@@QEBDQEBW4module_id@2@2@Z 00000001800342d8     libvcruntime:winapi_downlevel.obj
 0004:00001314       $pdata$_invalid_parameter_noinfo 0000000180034314     libucrt:invalid_parameter.obj
 0004:00001320       $pdata$_invoke_watson      0000000180034320     libucrt:invalid_parameter.obj
 0004:0000132c       $pdata$__acrt_call_reportfault 000000018003432c     libucrt:invalid_parameter.obj
 0004:00001338       $pdata$_invalid_parameter  0000000180034338     libucrt:invalid_parameter.obj
 0004:00001344       $pdata$_errno              0000000180034344     libucrt:errno.obj
 0004:00001350       $pdata$__doserrno          0000000180034350     libucrt:errno.obj
 0004:0000135c       $pdata$__acrt_errno_map_os_error 000000018003435c     libucrt:errno.obj
 0004:00001368       $pdata$_recalloc_base      0000000180034368     libucrt:recalloc.obj
 0004:00001374       $pdata$_resetstkoflw       0000000180034374     libucrt:resetstk.obj
 0004:00001380       $pdata$wcscat_s            0000000180034380     libucrt:wcscat_s.obj
 0004:0000138c       $pdata$wcscpy_s            000000018003438c     libucrt:wcscpy_s.obj
 0004:00001398       $pdata$wcsncpy_s           0000000180034398     libucrt:wcsncpy_s.obj
 0004:000013a4       $pdata$??0_LocaleUpdate@@QEAA@QEAU__crt_locale_pointers@@@Z 00000001800343a4     libucrt:output.obj
 0004:000013b0       $pdata$__stdio_common_vswprintf_s 00000001800343b0     libucrt:output.obj
 0004:000013bc       $pdata$?write_string@?$string_output_adapter@_W@__crt_stdio_output@@QEBAXQEB_WHQEAHAEAV__crt_deferred_errno_cache@@@Z 00000001800343bc     libucrt:output.obj
 0004:000013c8       $pdata$??$common_vsprintf@Vformat_validation_base@__crt_stdio_output@@_W@@YAH_KQEA_W0QEB_WQEAU__crt_locale_pointers@@QEAD@Z 00000001800343c8     libucrt:output.obj
 0004:000013d4       $pdata$??$write_multiple_characters@V?$string_output_adapter@_W@__crt_stdio_output@@D@__crt_stdio_output@@YAXAEBV?$string_output_adapter@_W@0@DHQEAH@Z 00000001800343d4     libucrt:output.obj
 0004:000013e0       $pdata$??$ensure_buffer_is_big_enough@D@formatting_buffer@__crt_stdio_output@@QEAA_N_K@Z 00000001800343e0     libucrt:output.obj
 0004:000013ec       $pdata$??$ensure_buffer_is_big_enough@_W@formatting_buffer@__crt_stdio_output@@QEAA_N_K@Z 00000001800343ec     libucrt:output.obj
 0004:000013f8       $pdata$?process@?$output_processor@_WV?$string_output_adapter@_W@__crt_stdio_output@@V?$format_validation_base@_WV?$string_output_adapter@_W@__crt_stdio_output@@@2@@__crt_stdio_output@@QEAAHXZ 00000001800343f8     libucrt:output.obj
 0004:00001404       $pdata$?parse_int_from_format_string@?$output_processor@_WV?$string_output_adapter@_W@__crt_stdio_output@@V?$format_validation_base@_WV?$string_output_adapter@_W@__crt_stdio_output@@@2@@__crt_stdio_output@@AEAA_NQEAH@Z 0000000180034404     libucrt:output.obj
 0004:00001410       $pdata$?state_case_size@?$output_processor@_WV?$string_output_adapter@_W@__crt_stdio_output@@V?$format_validation_base@_WV?$string_output_adapter@_W@__crt_stdio_output@@@2@@__crt_stdio_output@@AEAA_NXZ 0000000180034410     libucrt:output.obj
 0004:0000141c       $pdata$?state_case_type@?$output_processor@_WV?$string_output_adapter@_W@__crt_stdio_output@@V?$format_validation_base@_WV?$string_output_adapter@_W@__crt_stdio_output@@@2@@__crt_stdio_output@@AEAA_NXZ 000000018003441c     libucrt:output.obj
 0004:00001428       $pdata$?type_case_c_tchar@?$output_processor@_WV?$string_output_adapter@_W@__crt_stdio_output@@V?$format_validation_base@_WV?$string_output_adapter@_W@__crt_stdio_output@@@2@@__crt_stdio_output@@AEAA_N_W@Z 0000000180034428     libucrt:output.obj
 0004:00001434       $pdata$?type_case_Z@?$output_processor@_WV?$string_output_adapter@_W@__crt_stdio_output@@V?$format_validation_base@_WV?$string_output_adapter@_W@__crt_stdio_output@@@2@@__crt_stdio_output@@AEAA_NXZ 0000000180034434     libucrt:output.obj
 0004:00001440       $pdata$?type_case_s@?$output_processor@_WV?$string_output_adapter@_W@__crt_stdio_output@@V?$format_validation_base@_WV?$string_output_adapter@_W@__crt_stdio_output@@@2@@__crt_stdio_output@@AEAA_NXZ 0000000180034440     libucrt:output.obj
 0004:0000144c       $pdata$?type_case_a@?$output_processor@_WV?$string_output_adapter@_W@__crt_stdio_output@@V?$format_validation_base@_WV?$string_output_adapter@_W@__crt_stdio_output@@@2@@__crt_stdio_output@@AEAA_NXZ 000000018003444c     libucrt:output.obj
 0004:00001458       $pdata$?type_case_integer@?$output_processor@_WV?$string_output_adapter@_W@__crt_stdio_output@@V?$format_validation_base@_WV?$string_output_adapter@_W@__crt_stdio_output@@@2@@__crt_stdio_output@@AEAA_NI_N@Z 0000000180034458     libucrt:output.obj
 0004:00001464       $pdata$?type_case_n@?$output_processor@_WV?$string_output_adapter@_W@__crt_stdio_output@@V?$format_validation_base@_WV?$string_output_adapter@_W@__crt_stdio_output@@@2@@__crt_stdio_output@@AEAA_NXZ 0000000180034464     libucrt:output.obj
 0004:00001470       $pdata$?write_stored_string_tchar@?$output_processor@_WV?$string_output_adapter@_W@__crt_stdio_output@@V?$format_validation_base@_WV?$string_output_adapter@_W@__crt_stdio_output@@@2@@__crt_stdio_output@@AEAA_N_W@Z 0000000180034470     libucrt:output.obj
 0004:0000147c       $pdata$??$type_case_integer_parse_into_buffer@_K@?$output_processor@_WV?$string_output_adapter@_W@__crt_stdio_output@@V?$format_validation_base@_WV?$string_output_adapter@_W@__crt_stdio_output@@@2@@__crt_stdio_output@@AEAAX_KI_N@Z 000000018003447c     libucrt:output.obj
 0004:00001488       $pdata$??$type_case_integer_parse_into_buffer@I@?$output_processor@_WV?$string_output_adapter@_W@__crt_stdio_output@@V?$format_validation_base@_WV?$string_output_adapter@_W@__crt_stdio_output@@@2@@__crt_stdio_output@@AEAAXII_N@Z 0000000180034488     libucrt:output.obj
 0004:00001494       $pdata$_seh_filter_exe     0000000180034494     libucrt:exception_filter.obj
 0004:000014a0       $pdata$?try_cor_exit_process@@YAXI@Z 00000001800344a0     libucrt:exit.obj
 0004:000014ac       $pdata$?exit_or_terminate_process@@YAXI@Z 00000001800344ac     libucrt:exit.obj
 0004:000014b8       $pdata$?common_exit@@YAXHW4_crt_exit_cleanup_mode@@W4_crt_exit_return_mode@@@Z 00000001800344b8     libucrt:exit.obj
 0004:000014c4       $pdata$??R<lambda_6e4b09c48022b2350581041d5f6b0c4c>@@QEBA@XZ 00000001800344c4     libucrt:exit.obj
 0004:000014d0       $pdata$?filt$0@?0???R<lambda_6e4b09c48022b2350581041d5f6b0c4c>@@QEBA@XZ@4HA 00000001800344d0     libucrt:exit.obj
 0004:000014dc       $pdata$??$?RV<lambda_d80eeec6fff315bfe5c115232f3240e3>@@AEAV<lambda_6e4b09c48022b2350581041d5f6b0c4c>@@V<lambda_2358e3775559c9db80273638284d5e45>@@@?$__crt_seh_guarded_call@X@@QEAAX$$QEAV<lambda_d80eeec6fff315bfe5c115232f3240e3>@@AEAV<lambda_6e4b09c48022b2350581041d5f6b0c4c>@@$$QEAV<lambda_2358e3775559c9db80273638284d5e45>@@@Z 00000001800344dc     libucrt:exit.obj
 0004:000014e8       $pdata$?fin$0@?0???$?RV<lambda_efdfa57d1f175319df784efa44bb7b81>@@AEAV<lambda_5f0a4c1567f8adc6734073e5d1e1b35c>@@V<lambda_2e8a7d3640ea6ccb4c2413664c2db6fd>@@@?$__crt_seh_guarded_call@X@@QEAAX$$QEAV<lambda_efdfa57d1f175319df784efa44bb7b81>@@AEAV<lambda_5f0a4c1567f8adc6734073e5d1e1b35c>@@$$QEAV<lambda_2e8a7d3640ea6ccb4c2413664c2db6fd>@@@Z@4HA 00000001800344e8     libucrt:mbctype.obj
 0004:000014e8       $pdata$?fin$0@?0???$?RV<lambda_450d765d439847d4c735a33c368b5fc0>@@AEAV<lambda_44731a7d0e6d81c3e6aa82d741081786>@@V<lambda_601a2a7da3b7a96e9554ac7215c4b07c>@@@?$__crt_seh_guarded_call@P6AXH@Z@@QEAAP6AXH@Z$$QEAV<lambda_450d765d439847d4c735a33c368b5fc0>@@AEAV<lambda_44731a7d0e6d81c3e6aa82d741081786>@@$$QEAV<lambda_601a2a7da3b7a96e9554ac7215c4b07c>@@@Z@4HA 00000001800344e8     libucrt:signal.obj
 0004:000014e8       $pdata$?fin$0@?0???$?RV<lambda_7777bce6b2f8c936911f934f8298dc43>@@AEAV<lambda_f03950bc5685219e0bcd2087efbe011e>@@V<lambda_3883c3dff614d5e0c5f61bb1ac94921c>@@@?$__crt_seh_guarded_call@H@@QEAAH$$QEAV<lambda_7777bce6b2f8c936911f934f8298dc43>@@AEAV<lambda_f03950bc5685219e0bcd2087efbe011e>@@$$QEAV<lambda_3883c3dff614d5e0c5f61bb1ac94921c>@@@Z@4HA 00000001800344e8     libucrt:onexit.obj
 0004:000014e8       $pdata$?fin$0@?0???$?RV<lambda_638799b9deba96c50f710eeac98168cd>@@AEAV<lambda_22ebabd17bc4fa466a2aca6d8deb888d>@@V<lambda_a6f7d7db0129f75315ebf26d50c089f1>@@@?$__crt_seh_guarded_call@H@@QEAAH$$QEAV<lambda_638799b9deba96c50f710eeac98168cd>@@AEAV<lambda_22ebabd17bc4fa466a2aca6d8deb888d>@@$$QEAV<lambda_a6f7d7db0129f75315ebf26d50c089f1>@@@Z@4HA 00000001800344e8     libucrt:onexit.obj
 0004:000014e8       $pdata$?fin$0@?0???$?RV<lambda_0ae27a3a962d80f24befdcbee591983d>@@AEAV<lambda_8d0ee55de4b1038c4002e0adecdf1839>@@V<lambda_dc504788e8f1664fe9b84e20bfb512f2>@@@?$__crt_seh_guarded_call@X@@QEAAX$$QEAV<lambda_0ae27a3a962d80f24befdcbee591983d>@@AEAV<lambda_8d0ee55de4b1038c4002e0adecdf1839>@@$$QEAV<lambda_dc504788e8f1664fe9b84e20bfb512f2>@@@Z@4HA 00000001800344e8     libucrt:per_thread_data.obj
 0004:000014e8       $pdata$?fin$0@?0???$?RV<lambda_aa87e3671a710a21b5dc78c0bdf72e11>@@AEAV<lambda_92619d2358a28f41a33ba319515a20b9>@@V<lambda_6992ecaafeb10aed2b74cb1fae11a551>@@@?$__crt_seh_guarded_call@X@@QEAAX$$QEAV<lambda_aa87e3671a710a21b5dc78c0bdf72e11>@@AEAV<lambda_92619d2358a28f41a33ba319515a20b9>@@$$QEAV<lambda_6992ecaafeb10aed2b74cb1fae11a551>@@@Z@4HA 00000001800344e8     libucrt:per_thread_data.obj
 0004:000014e8       $pdata$?fin$0@?0???$?RV<lambda_f2e299630e499de9f9a165e60fcd3db5>@@AEAV<lambda_2ae9d31cdba2644fcbeaf08da7c24588>@@V<lambda_40d01ff24d0e7b3814fdbdcee8eab3c7>@@@?$__crt_seh_guarded_call@X@@QEAAX$$QEAV<lambda_f2e299630e499de9f9a165e60fcd3db5>@@AEAV<lambda_2ae9d31cdba2644fcbeaf08da7c24588>@@$$QEAV<lambda_40d01ff24d0e7b3814fdbdcee8eab3c7>@@@Z@4HA 00000001800344e8     libucrt:per_thread_data.obj
 0004:000014e8       $pdata$?fin$0@?0???$?RV<lambda_2d41944a1d46af3157314b8a01080d33>@@AEAV<lambda_8f455de75cd7d7f24b4096f044d8b9e6>@@V<lambda_aa500f224e6afead328df44964fe2772>@@@?$__crt_seh_guarded_call@X@@QEAAX$$QEAV<lambda_2d41944a1d46af3157314b8a01080d33>@@AEAV<lambda_8f455de75cd7d7f24b4096f044d8b9e6>@@$$QEAV<lambda_aa500f224e6afead328df44964fe2772>@@@Z@4HA 00000001800344e8     libucrt:per_thread_data.obj
 0004:000014e8       $pdata$?fin$0@?0???$?RV<lambda_d80eeec6fff315bfe5c115232f3240e3>@@AEAV<lambda_6e4b09c48022b2350581041d5f6b0c4c>@@V<lambda_2358e3775559c9db80273638284d5e45>@@@?$__crt_seh_guarded_call@X@@QEAAX$$QEAV<lambda_d80eeec6fff315bfe5c115232f3240e3>@@AEAV<lambda_6e4b09c48022b2350581041d5f6b0c4c>@@$$QEAV<lambda_2358e3775559c9db80273638284d5e45>@@@Z@4HA 00000001800344e8     libucrt:exit.obj
 0004:000014f4       $pdata$_configure_narrow_argv 00000001800344f4     libucrt:argv_parsing.obj
 0004:00001500       $pdata$__acrt_allocate_buffer_for_argv 0000000180034500     libucrt:argv_parsing.obj
 0004:0000150c       $pdata$??$parse_command_line@D@@YAXPEADPEAPEAD0PEA_K2@Z 000000018003450c     libucrt:argv_parsing.obj
 0004:00001518       $pdata$__dcrt_uninitialize_environments_nolock 0000000180034518     libucrt:environment_initialization.obj
 0004:00001524       $pdata$??$common_initialize_environment_nolock@D@@YAHXZ 0000000180034524     libucrt:environment_initialization.obj
 0004:00001530       $pdata$??$uninitialize_environment_internal@D@@YAXAEAPEAPEAD@Z 0000000180034530     libucrt:environment_initialization.obj
 0004:0000153c       $pdata$??$uninitialize_environment_internal@_W@@YAXAEAPEAPEA_W@Z 000000018003453c     libucrt:environment_initialization.obj
 0004:00001548       $pdata$??$free_environment@D@@YAXQEAPEAD@Z 0000000180034548     libucrt:environment_initialization.obj
 0004:00001548       $pdata$??$free_environment@_W@@YAXQEAPEA_W@Z 0000000180034548     libucrt:environment_initialization.obj
 0004:00001554       $pdata$??$create_environment@D@@YAQEAPEADQEAD@Z 0000000180034554     libucrt:environment_initialization.obj
 0004:00001560       $pdata$_register_onexit_function 0000000180034560     libucrt:onexit.obj
 0004:0000156c       $pdata$_execute_onexit_table 000000018003456c     libucrt:onexit.obj
 0004:00001578       $pdata$??R<lambda_22ebabd17bc4fa466a2aca6d8deb888d>@@QEBAHXZ 0000000180034578     libucrt:onexit.obj
 0004:00001584       $pdata$??R<lambda_f03950bc5685219e0bcd2087efbe011e>@@QEBAHXZ 0000000180034584     libucrt:onexit.obj
 0004:00001590       $pdata$??$?RV<lambda_638799b9deba96c50f710eeac98168cd>@@AEAV<lambda_22ebabd17bc4fa466a2aca6d8deb888d>@@V<lambda_a6f7d7db0129f75315ebf26d50c089f1>@@@?$__crt_seh_guarded_call@H@@QEAAH$$QEAV<lambda_638799b9deba96c50f710eeac98168cd>@@AEAV<lambda_22ebabd17bc4fa466a2aca6d8deb888d>@@$$QEAV<lambda_a6f7d7db0129f75315ebf26d50c089f1>@@@Z 0000000180034590     libucrt:onexit.obj
 0004:0000159c       $pdata$??$?RV<lambda_7777bce6b2f8c936911f934f8298dc43>@@AEAV<lambda_f03950bc5685219e0bcd2087efbe011e>@@V<lambda_3883c3dff614d5e0c5f61bb1ac94921c>@@@?$__crt_seh_guarded_call@H@@QEAAH$$QEAV<lambda_7777bce6b2f8c936911f934f8298dc43>@@AEAV<lambda_f03950bc5685219e0bcd2087efbe011e>@@$$QEAV<lambda_3883c3dff614d5e0c5f61bb1ac94921c>@@@Z 000000018003459c     libucrt:onexit.obj
 0004:000015a8       $pdata$__acrt_uninitialize 00000001800345a8     libucrt:initialization.obj
 0004:000015b4       $pdata$__acrt_uninitialize_critical 00000001800345b4     libucrt:initialization.obj
 0004:000015c0       $pdata$__acrt_thread_attach 00000001800345c0     libucrt:initialization.obj
 0004:000015cc       $pdata$__acrt_thread_detach 00000001800345cc     libucrt:initialization.obj
 0004:000015d8       $pdata$initialize_c        00000001800345d8     libucrt:initialization.obj
 0004:000015e4       $pdata$uninitialize_environment 00000001800345e4     libucrt:initialization.obj
 0004:000015f0       $pdata$initialize_pointers 00000001800345f0     libucrt:initialization.obj
 0004:000015fc       $pdata$uninitialize_allocated_memory 00000001800345fc     libucrt:initialization.obj
 0004:00001608       $pdata$uninitialize_allocated_io_buffers 0000000180034608     libucrt:initialization.obj
 0004:00001614       $pdata$_initterm           0000000180034614     libucrt:initterm.obj
 0004:00001620       $pdata$_initterm_e         0000000180034620     libucrt:initterm.obj
 0004:0000162c       $pdata$_callnewh           000000018003462c     libucrt:new_handler.obj
 0004:00001638       $pdata$_query_new_handler  0000000180034638     libucrt:new_handler.obj
 0004:00001644       $pdata$_query_new_handler$fin$0 0000000180034644     libucrt:new_handler.obj
 0004:00001650       $pdata$terminate           0000000180034650     libucrt:terminate.obj
 0004:0000165c       $pdata$abort               000000018003465c     libucrt:abort.obj
 0004:00001668       $pdata$strcpy_s            0000000180034668     libucrt:strcpy_s.obj
 0004:00001674       $pdata$??$parse_integer@KV?$c_string_character_source@_W@__crt_strtox@@@__crt_strtox@@YAKQEAU__crt_locale_pointers@@V?$c_string_character_source@_W@0@H_N@Z 0000000180034674     libucrt:atox.obj
 0004:0000168c       $pdata$_free_base          000000018003468c     libucrt:free_base.obj
 0004:00001698       $pdata$__acrt_initialize_ptd 0000000180034698     libucrt:per_thread_data.obj
 0004:000016a4       $pdata$__acrt_uninitialize_ptd 00000001800346a4     libucrt:per_thread_data.obj
 0004:000016b0       $pdata$__acrt_getptd       00000001800346b0     libucrt:per_thread_data.obj
 0004:000016bc       $pdata$__acrt_getptd_head  00000001800346bc     libucrt:per_thread_data.obj
 0004:000016c8       $pdata$__acrt_getptd_noexit 00000001800346c8     libucrt:per_thread_data.obj
 0004:000016d4       $pdata$__acrt_freeptd      00000001800346d4     libucrt:per_thread_data.obj
 0004:000016e0       $pdata$?destroy_fls@@YAXPEAX@Z 00000001800346e0     libucrt:per_thread_data.obj
 0004:000016ec       $pdata$?replace_current_thread_locale_nolock@@YAXQEAU__acrt_ptd@@QEAU__crt_locale_data@@@Z 00000001800346ec     libucrt:per_thread_data.obj
 0004:000016f8       $pdata$?construct_ptd_array@@YAXQEAU__acrt_ptd@@@Z 00000001800346f8     libucrt:per_thread_data.obj
 0004:00001704       $pdata$?destroy_ptd_array@@YAXQEAU__acrt_ptd@@@Z 0000000180034704     libucrt:per_thread_data.obj
 0004:00001710       $pdata$??$?RV<lambda_0ae27a3a962d80f24befdcbee591983d>@@AEAV<lambda_8d0ee55de4b1038c4002e0adecdf1839>@@V<lambda_dc504788e8f1664fe9b84e20bfb512f2>@@@?$__crt_seh_guarded_call@X@@QEAAX$$QEAV<lambda_0ae27a3a962d80f24befdcbee591983d>@@AEAV<lambda_8d0ee55de4b1038c4002e0adecdf1839>@@$$QEAV<lambda_dc504788e8f1664fe9b84e20bfb512f2>@@@Z 0000000180034710     libucrt:per_thread_data.obj
 0004:0000171c       $pdata$??$?RV<lambda_aa87e3671a710a21b5dc78c0bdf72e11>@@AEAV<lambda_92619d2358a28f41a33ba319515a20b9>@@V<lambda_6992ecaafeb10aed2b74cb1fae11a551>@@@?$__crt_seh_guarded_call@X@@QEAAX$$QEAV<lambda_aa87e3671a710a21b5dc78c0bdf72e11>@@AEAV<lambda_92619d2358a28f41a33ba319515a20b9>@@$$QEAV<lambda_6992ecaafeb10aed2b74cb1fae11a551>@@@Z 000000018003471c     libucrt:per_thread_data.obj
 0004:00001728       $pdata$??$?RV<lambda_f2e299630e499de9f9a165e60fcd3db5>@@AEAV<lambda_2ae9d31cdba2644fcbeaf08da7c24588>@@V<lambda_40d01ff24d0e7b3814fdbdcee8eab3c7>@@@?$__crt_seh_guarded_call@X@@QEAAX$$QEAV<lambda_f2e299630e499de9f9a165e60fcd3db5>@@AEAV<lambda_2ae9d31cdba2644fcbeaf08da7c24588>@@$$QEAV<lambda_40d01ff24d0e7b3814fdbdcee8eab3c7>@@@Z 0000000180034728     libucrt:per_thread_data.obj
 0004:00001734       $pdata$??$?RV<lambda_2d41944a1d46af3157314b8a01080d33>@@AEAV<lambda_8f455de75cd7d7f24b4096f044d8b9e6>@@V<lambda_aa500f224e6afead328df44964fe2772>@@@?$__crt_seh_guarded_call@X@@QEAAX$$QEAV<lambda_2d41944a1d46af3157314b8a01080d33>@@AEAV<lambda_8f455de75cd7d7f24b4096f044d8b9e6>@@$$QEAV<lambda_aa500f224e6afead328df44964fe2772>@@@Z 0000000180034734     libucrt:per_thread_data.obj
 0004:00001740       $pdata$_calloc_base        0000000180034740     libucrt:calloc_base.obj
 0004:0000174c       $pdata$_malloc_base        000000018003474c     libucrt:malloc_base.obj
 0004:00001758       $pdata$_msize_base         0000000180034758     libucrt:msize.obj
 0004:00001764       $pdata$_realloc_base       0000000180034764     libucrt:realloc_base.obj
 0004:00001770       $pdata$__acrt_initialize_winapi_thunks 0000000180034770     libucrt:winapi_thunks.obj
 0004:0000177c       $pdata$__acrt_uninitialize_winapi_thunks 000000018003477c     libucrt:winapi_thunks.obj
 0004:00001788       $pdata$__acrt_AreFileApisANSI 0000000180034788     libucrt:winapi_thunks.obj
 0004:00001794       $pdata$__acrt_FlsAlloc     0000000180034794     libucrt:winapi_thunks.obj
 0004:000017a0       $pdata$__acrt_FlsFree      00000001800347a0     libucrt:winapi_thunks.obj
 0004:000017ac       $pdata$__acrt_FlsGetValue  00000001800347ac     libucrt:winapi_thunks.obj
 0004:000017b8       $pdata$__acrt_FlsSetValue  00000001800347b8     libucrt:winapi_thunks.obj
 0004:000017c4       $pdata$__acrt_InitializeCriticalSectionEx 00000001800347c4     libucrt:winapi_thunks.obj
 0004:000017d0       $pdata$__acrt_LCMapStringEx 00000001800347d0     libucrt:winapi_thunks.obj
 0004:000017dc       $pdata$__acrt_LocaleNameToLCID 00000001800347dc     libucrt:winapi_thunks.obj
 0004:000017e8       $pdata$__acrt_AppPolicyGetProcessTerminationMethodInternal 00000001800347e8     libucrt:winapi_thunks.obj
 0004:000017f4       $pdata$__acrt_SetThreadStackGuarantee 00000001800347f4     libucrt:winapi_thunks.obj
 0004:00001800       $pdata$?try_get_function@@YAPEAXW4function_id@?A0x391cf84c@@QEBDQEBW4module_id@2@2@Z 0000000180034800     libucrt:winapi_thunks.obj
 0004:0000180c       $pdata$wcstol              000000018003480c     libucrt:strtox.obj
 0004:00001818       $pdata$_mbtowc_l           0000000180034818     libucrt:mbtowc.obj
 0004:00001824       $pdata$__acrt_update_locale_info 0000000180034824     libucrt:locale_update.obj
 0004:00001830       $pdata$__acrt_update_multibyte_info 0000000180034830     libucrt:locale_update.obj
 0004:0000183c       $pdata$__acrt_fp_format    000000018003483c     libucrt:cvt.obj
 0004:00001848       $pdata$?fp_format_e_internal@@YAHQEAD_KH_NIQEAU_strflt@@2QEAU__crt_locale_pointers@@@Z 0000000180034848     libucrt:cvt.obj
 0004:00001854       $pdata$?fp_format_e@@YAHQEBNQEAD_K12H_NIQEAU__crt_locale_pointers@@@Z 0000000180034854     libucrt:cvt.obj
 0004:00001860       $pdata$?fp_format_a@@YAHQEBNPEAD_KQEAD2H_NIQEAU__crt_locale_pointers@@@Z 0000000180034860     libucrt:cvt.obj
 0004:0000186c       $pdata$?fp_format_f_internal@@YAHQEAD_KHQEAU_strflt@@_NQEAU__crt_locale_pointers@@@Z 000000018003486c     libucrt:cvt.obj
 0004:00001878       $pdata$?fp_format_g@@YAHQEBNQEAD_K12H_NIQEAU__crt_locale_pointers@@@Z 0000000180034878     libucrt:cvt.obj
 0004:00001884       $pdata$_fileno             0000000180034884     libucrt:fileno.obj
 0004:00001890       $pdata$__acrt_initialize_stdio 0000000180034890     libucrt:_file.obj
 0004:0000189c       $pdata$__acrt_uninitialize_stdio 000000018003489c     libucrt:_file.obj
 0004:000018a8       $pdata$__acrt_uninitialize_locale 00000001800348a8     libucrt:wsetlocale.obj
 0004:000018b4       $pdata$??$?RV<lambda_410d79af7f07d98d83a3f525b3859a53>@@AEAV<lambda_3e16ef9562a7dcce91392c22ab16ea36>@@V<lambda_38119f0e861e05405d8a144b9b982f0a>@@@?$__crt_seh_guarded_call@X@@QEAAX$$QEAV<lambda_410d79af7f07d98d83a3f525b3859a53>@@AEAV<lambda_3e16ef9562a7dcce91392c22ab16ea36>@@$$QEAV<lambda_38119f0e861e05405d8a144b9b982f0a>@@@Z 00000001800348b4     libucrt:wsetlocale.obj
 0004:000018c0       $pdata$?fin$0@?0???$?RV<lambda_410d79af7f07d98d83a3f525b3859a53>@@AEAV<lambda_3e16ef9562a7dcce91392c22ab16ea36>@@V<lambda_38119f0e861e05405d8a144b9b982f0a>@@@?$__crt_seh_guarded_call@X@@QEAAX$$QEAV<lambda_410d79af7f07d98d83a3f525b3859a53>@@AEAV<lambda_3e16ef9562a7dcce91392c22ab16ea36>@@$$QEAV<lambda_38119f0e861e05405d8a144b9b982f0a>@@@Z@4HA 00000001800348c0     libucrt:wsetlocale.obj
 0004:000018cc       $pdata$__acrt_initialize_lowio 00000001800348cc     libucrt:ioinit.obj
 0004:000018d8       $pdata$__acrt_initialize_lowio$fin$0 00000001800348d8     libucrt:ioinit.obj
 0004:000018d8       $pdata$__acrt_lowio_ensure_fh_exists$fin$0 00000001800348d8     libucrt:osfinfo.obj
 0004:000018e4       $pdata$__acrt_uninitialize_lowio 00000001800348e4     libucrt:ioinit.obj
 0004:000018f0       $pdata$?initialize_inherited_file_handles_nolock@@YAXXZ 00000001800348f0     libucrt:ioinit.obj
 0004:000018fc       $pdata$?initialize_stdio_handles_nolock@@YAXXZ 00000001800348fc     libucrt:ioinit.obj
 0004:00001908       $pdata$__acrt_initialize_locks 0000000180034908     libucrt:locks.obj
 0004:00001914       $pdata$__acrt_uninitialize_locks 0000000180034914     libucrt:locks.obj
 0004:00001920       $pdata$__acrt_get_process_end_policy 0000000180034920     libucrt:win_policies.obj
 0004:0000192c       $pdata$??$__acrt_mbs_to_wcs_cp@U__crt_win32_buffer_internal_dynamic_resizing@@@@YAHQEBDAEAV?$__crt_win32_buffer@_WU__crt_win32_buffer_internal_dynamic_resizing@@@@I@Z 000000018003492c     libucrt:argv_wildcards.obj
 0004:00001938       $pdata$??$__acrt_wcs_to_mbs_cp@U__crt_win32_buffer_internal_dynamic_resizing@@@@YAHQEB_WAEAV?$__crt_win32_buffer@DU__crt_win32_buffer_internal_dynamic_resizing@@@@I@Z 0000000180034938     libucrt:argv_wildcards.obj
 0004:00001944       $pdata$??$common_expand_argv_wildcards@D@@YAHQEAPEADQEAPEAPEAD@Z 0000000180034944     libucrt:argv_wildcards.obj
 0004:00001950       $pdata$??$copy_and_add_argument_to_buffer@D@@YAHQEBD0_KAEAV?$argument_list@D@?A0x5f5c8891@@@Z 0000000180034950     libucrt:argv_wildcards.obj
 0004:0000195c       $pdata$??$expand_argument_wildcards@D@@YAHQEAD0AEAV?$argument_list@D@?A0x5f5c8891@@@Z 000000018003495c     libucrt:argv_wildcards.obj
 0004:00001968       $pdata$__acrt_GetModuleFileNameA 0000000180034968     libucrt:getmodulefilenamea.obj
 0004:00001974       $pdata$??$__acrt_wcs_to_mbs_cp@U__crt_win32_buffer_no_resizing@@@@YAHQEB_WAEAV?$__crt_win32_buffer@DU__crt_win32_buffer_no_resizing@@@@I@Z 0000000180034974     libucrt:getmodulefilenamea.obj
 0004:00001980       $pdata$__acrt_update_thread_multibyte_data 0000000180034980     libucrt:mbctype.obj
 0004:0000198c       $pdata$__acrt_initialize_multibyte 000000018003498c     libucrt:mbctype.obj
 0004:00001998       $pdata$_setmbcp_nolock     0000000180034998     libucrt:mbctype.obj
 0004:000019a4       $pdata$?getSystemCP@@YAHH@Z 00000001800349a4     libucrt:mbctype.obj
 0004:000019b0       $pdata$?setSBCS@@YAXPEAU__crt_multibyte_data@@@Z 00000001800349b0     libucrt:mbctype.obj
 0004:000019bc       $pdata$?update_thread_multibyte_data_internal@@YAPEAU__crt_multibyte_data@@QEAU__acrt_ptd@@QEAPEAU1@@Z 00000001800349bc     libucrt:mbctype.obj
 0004:000019c8       $pdata$?fin$0@?0??update_thread_multibyte_data_internal@@YAPEAU__crt_multibyte_data@@QEAU__acrt_ptd@@QEAPEAU1@@Z@4HA 00000001800349c8     libucrt:mbctype.obj
 0004:000019d4       $pdata$?setmbcp_internal@@YAHH_NQEAU__acrt_ptd@@QEAPEAU__crt_multibyte_data@@@Z 00000001800349d4     libucrt:mbctype.obj
 0004:000019e0       $pdata$?setSBUpLow@@YAXPEAU__crt_multibyte_data@@@Z 00000001800349e0     libucrt:mbctype.obj
 0004:000019ec       $pdata$??$?RV<lambda_efdfa57d1f175319df784efa44bb7b81>@@AEAV<lambda_5f0a4c1567f8adc6734073e5d1e1b35c>@@V<lambda_2e8a7d3640ea6ccb4c2413664c2db6fd>@@@?$__crt_seh_guarded_call@X@@QEAAX$$QEAV<lambda_efdfa57d1f175319df784efa44bb7b81>@@AEAV<lambda_5f0a4c1567f8adc6734073e5d1e1b35c>@@$$QEAV<lambda_2e8a7d3640ea6ccb4c2413664c2db6fd>@@@Z 00000001800349ec     libucrt:mbctype.obj
 0004:000019f8       $pdata$?x_ismbbtype_l@@YAHPEAU__crt_locale_pointers@@IHH@Z 00000001800349f8     libucrt:ismbbyte.obj
 0004:00001a04       $pdata$__acrt_initialize_command_line 0000000180034a04     libucrt:argv_data.obj
 0004:00001a10       $pdata$__acrt_WideCharToMultiByte 0000000180034a10     libucrt:widechartomultibyte.obj
 0004:00001a1c       $pdata$__dcrt_get_narrow_environment_from_os 0000000180034a1c     libucrt:get_environment_from_os.obj
 0004:00001a28       $pdata$__acrt_initialize_heap 0000000180034a28     libucrt:heap_handle.obj
 0004:00001a34       $pdata$__acrt_execute_initializers 0000000180034a34     libucrt:shared_initialization.obj
 0004:00001a40       $pdata$__acrt_execute_uninitializers 0000000180034a40     libucrt:shared_initialization.obj
 0004:00001a4c       $pdata$__acrt_get_sigabrt_handler 0000000180034a4c     libucrt:signal.obj
 0004:00001a58       $pdata$raise               0000000180034a58     libucrt:signal.obj
 0004:00001a64       $pdata$raise$fin$0         0000000180034a64     libucrt:signal.obj
 0004:00001a70       $pdata$??$?RV<lambda_450d765d439847d4c735a33c368b5fc0>@@AEAV<lambda_44731a7d0e6d81c3e6aa82d741081786>@@V<lambda_601a2a7da3b7a96e9554ac7215c4b07c>@@@?$__crt_seh_guarded_call@P6AXH@Z@@QEAAP6AXH@Z$$QEAV<lambda_450d765d439847d4c735a33c368b5fc0>@@AEAV<lambda_44731a7d0e6d81c3e6aa82d741081786>@@$$QEAV<lambda_601a2a7da3b7a96e9554ac7215c4b07c>@@@Z 0000000180034a70     libucrt:signal.obj
 0004:00001a7c       $pdata$_fflush_nolock      0000000180034a7c     libucrt:fflush.obj
 0004:00001a88       $pdata$__acrt_stdio_flush_nolock 0000000180034a88     libucrt:fflush.obj
 0004:00001a94       $pdata$?common_flush_all@@YAH_N@Z 0000000180034a94     libucrt:fflush.obj
 0004:00001aa0       $pdata$??$?RV<lambda_842d9ff0dc9ef11c61343bbaebe7f885>@@AEAV<lambda_c5860995281e5c4ce005b3de8f5874ee>@@V<lambda_d90129c13df834fdcbf8d2b88dafcf2d>@@@?$__crt_seh_guarded_call@X@@QEAAX$$QEAV<lambda_842d9ff0dc9ef11c61343bbaebe7f885>@@AEAV<lambda_c5860995281e5c4ce005b3de8f5874ee>@@$$QEAV<lambda_d90129c13df834fdcbf8d2b88dafcf2d>@@@Z 0000000180034aa0     libucrt:fflush.obj
 0004:00001aac       $pdata$?fin$0@?0???$?RV<lambda_842d9ff0dc9ef11c61343bbaebe7f885>@@AEAV<lambda_c5860995281e5c4ce005b3de8f5874ee>@@V<lambda_d90129c13df834fdcbf8d2b88dafcf2d>@@@?$__crt_seh_guarded_call@X@@QEAAX$$QEAV<lambda_842d9ff0dc9ef11c61343bbaebe7f885>@@AEAV<lambda_c5860995281e5c4ce005b3de8f5874ee>@@$$QEAV<lambda_d90129c13df834fdcbf8d2b88dafcf2d>@@@Z@4HA 0000000180034aac     libucrt:fflush.obj
 0004:00001ab8       $pdata$??$?RV<lambda_886d6c58226a84441f68b9f2b8217b83>@@AEAV<lambda_ab61a845afdef5b7c387490eaf3616ee>@@V<lambda_f7f22ab5edc0698d5f6905b0d3f44752>@@@?$__crt_seh_guarded_call@X@@QEAAX$$QEAV<lambda_886d6c58226a84441f68b9f2b8217b83>@@AEAV<lambda_ab61a845afdef5b7c387490eaf3616ee>@@$$QEAV<lambda_f7f22ab5edc0698d5f6905b0d3f44752>@@@Z 0000000180034ab8     libucrt:fflush.obj
 0004:00001ac4       $pdata$?fin$0@?0???$?RV<lambda_886d6c58226a84441f68b9f2b8217b83>@@AEAV<lambda_ab61a845afdef5b7c387490eaf3616ee>@@V<lambda_f7f22ab5edc0698d5f6905b0d3f44752>@@@?$__crt_seh_guarded_call@X@@QEAAX$$QEAV<lambda_886d6c58226a84441f68b9f2b8217b83>@@AEAV<lambda_ab61a845afdef5b7c387490eaf3616ee>@@$$QEAV<lambda_f7f22ab5edc0698d5f6905b0d3f44752>@@@Z@4HA 0000000180034ac4     libucrt:fflush.obj
 0004:00001ad0       $pdata$__pctype_func       0000000180034ad0     libucrt:ctype.obj
 0004:00001adc       $pdata$iswctype            0000000180034adc     libucrt:iswctype.obj
 0004:00001ae8       $pdata$__acrt_release_locale_ref 0000000180034ae8     libucrt:locale_refcounting.obj
 0004:00001af4       $pdata$__acrt_free_locale  0000000180034af4     libucrt:locale_refcounting.obj
 0004:00001b00       $pdata$__acrt_locale_free_lc_time_if_unreferenced 0000000180034b00     libucrt:locale_refcounting.obj
 0004:00001b0c       $pdata$__acrt_update_thread_locale_data 0000000180034b0c     libucrt:locale_refcounting.obj
 0004:00001b18       $pdata$__acrt_update_thread_locale_data$fin$0 0000000180034b18     libucrt:locale_refcounting.obj
 0004:00001b24       $pdata$_updatetlocinfoEx_nolock 0000000180034b24     libucrt:locale_refcounting.obj
 0004:00001b30       $pdata$__acrt_DownlevelLocaleNameToLCID 0000000180034b30     libucrt:lcidtoname_downlevel.obj
 0004:00001b3c       $pdata$_isleadbyte_l       0000000180034b3c     libucrt:_wctype.obj
 0004:00001b48       $pdata$?__mbrtowc_utf8@__crt_mbstring@@YA_KPEA_WPEBD_KPEAU_Mbstatet@@@Z 0000000180034b48     libucrt:mbrtowc.obj
 0004:00001b54       $pdata$?__mbsrtowcs_utf8@__crt_mbstring@@YA_KPEA_WPEAPEBD_KPEAU_Mbstatet@@@Z 0000000180034b54     libucrt:mbrtowc.obj
 0004:00001b60       $pdata$__acrt_fp_strflt_to_string 0000000180034b60     libucrt:_fptostr.obj
 0004:00001b6c       $pdata$__acrt_fltout       0000000180034b6c     libucrt:cfout.obj
 0004:00001b78       $pdata$?divide@__crt_strtox@@YA_KAEAUbig_integer@1@AEBU21@@Z 0000000180034b78     libucrt:cfout.obj
 0004:00001b84       $pdata$0$?divide@__crt_strtox@@YA_KAEAUbig_integer@1@AEBU21@@Z 0000000180034b84     libucrt:cfout.obj
 0004:00001b90       $pdata$1$?divide@__crt_strtox@@YA_KAEAUbig_integer@1@AEBU21@@Z 0000000180034b90     libucrt:cfout.obj
 0004:00001b9c       $pdata$_fcloseall          0000000180034b9c     libucrt:closeall.obj
 0004:00001ba8       $pdata$_fcloseall$fin$0    0000000180034ba8     libucrt:closeall.obj
 0004:00001bb4       $pdata$__acrt_stdio_free_buffer_nolock 0000000180034bb4     libucrt:_freebuf.obj
 0004:00001bc0       $pdata$_isatty             0000000180034bc0     libucrt:isatty.obj
 0004:00001bcc       $pdata$__acrt_locale_free_monetary 0000000180034bcc     libucrt:initmon.obj
 0004:00001bd8       $pdata$__acrt_locale_free_numeric 0000000180034bd8     libucrt:initnum.obj
 0004:00001be4       $pdata$__acrt_locale_free_time 0000000180034be4     libucrt:inittime.obj
 0004:00001bf0       $pdata$?free_crt_array_internal@@YAXQEAPEBX_K@Z 0000000180034bf0     libucrt:inittime.obj
 0004:00001bfc       $pdata$__acrt_GetStringTypeA 0000000180034bfc     libucrt:getstringtypea.obj
 0004:00001c08       $pdata$_get_osfhandle      0000000180034c08     libucrt:osfinfo.obj
 0004:00001c14       $pdata$_free_osfhnd        0000000180034c14     libucrt:osfinfo.obj
 0004:00001c20       $pdata$__acrt_lowio_create_handle_array 0000000180034c20     libucrt:osfinfo.obj
 0004:00001c2c       $pdata$__acrt_lowio_destroy_handle_array 0000000180034c2c     libucrt:osfinfo.obj
 0004:00001c38       $pdata$__acrt_lowio_ensure_fh_exists 0000000180034c38     libucrt:osfinfo.obj
 0004:00001c44       $pdata$qsort               0000000180034c44     libucrt:qsort.obj
 0004:00001c50       $pdata$4$qsort             0000000180034c50     libucrt:qsort.obj
 0004:00001c5c       $pdata$5$qsort             0000000180034c5c     libucrt:qsort.obj
 0004:00001c68       $pdata$strncpy_s           0000000180034c68     libucrt:strncpy_s.obj
 0004:00001c74       $pdata$strpbrk             0000000180034c74     libucrt:strpbrk.obj
 0004:00001c80       $pdata$fallbackMethod      0000000180034c80     libucrt:strpbrk.obj
 0004:00001c8c       $pdata$_mbsdec_l           0000000180034c8c     libucrt:mbsdec.obj
 0004:00001c98       $pdata$__acrt_LCMapStringA 0000000180034c98     libucrt:lcmapstringa.obj
 0004:00001ca4       $pdata$?__acrt_LCMapStringA_stat@@YAHPEAU__crt_locale_pointers@@PEB_WKPEBDHPEADHHH@Z 0000000180034ca4     libucrt:lcmapstringa.obj
 0004:00001cb0       $pdata$?initialize_multibyte@@YAHXZ 0000000180034cb0     libucrt:multibyte_initializer.obj
 0004:00001cbc       $pdata$_commit             0000000180034cbc     libucrt:commit.obj
 0004:00001cc8       $pdata$??$?RV<lambda_a37b2b86f63e897a80ea819b0eb08c01>@@AEAV<lambda_38ce7e780aa69e748d6df282ebc68efe>@@V<lambda_99fb1378e971ab6e7edea83e3a7a83a2>@@@?$__crt_seh_guarded_call@H@@QEAAH$$QEAV<lambda_a37b2b86f63e897a80ea819b0eb08c01>@@AEAV<lambda_38ce7e780aa69e748d6df282ebc68efe>@@$$QEAV<lambda_99fb1378e971ab6e7edea83e3a7a83a2>@@@Z 0000000180034cc8     libucrt:commit.obj
 0004:00001cd4       $pdata$?fin$0@?0???$?RV<lambda_751a882b2c74d4b022dec766aa51a29a>@@AEAV<lambda_628dfdc04ba53c8bfc02c9951375f3f5>@@V<lambda_f6c7be5f7998530c34de24c7437d6b54>@@@?$__crt_seh_guarded_call@H@@QEAAH$$QEAV<lambda_751a882b2c74d4b022dec766aa51a29a>@@AEAV<lambda_628dfdc04ba53c8bfc02c9951375f3f5>@@$$QEAV<lambda_f6c7be5f7998530c34de24c7437d6b54>@@@Z@4HA 0000000180034cd4     libucrt:close.obj
 0004:00001cd4       $pdata$?fin$0@?0???$?RV<lambda_a37b2b86f63e897a80ea819b0eb08c01>@@AEAV<lambda_38ce7e780aa69e748d6df282ebc68efe>@@V<lambda_99fb1378e971ab6e7edea83e3a7a83a2>@@@?$__crt_seh_guarded_call@H@@QEAAH$$QEAV<lambda_a37b2b86f63e897a80ea819b0eb08c01>@@AEAV<lambda_38ce7e780aa69e748d6df282ebc68efe>@@$$QEAV<lambda_99fb1378e971ab6e7edea83e3a7a83a2>@@@Z@4HA 0000000180034cd4     libucrt:commit.obj
 0004:00001ce0       $pdata$_write              0000000180034ce0     libucrt:write.obj
 0004:00001cec       $pdata$_write$fin$0        0000000180034cec     libucrt:write.obj
 0004:00001cf8       $pdata$_write_nolock       0000000180034cf8     libucrt:write.obj
 0004:00001d04       $pdata$?write_double_translated_ansi_nolock@@YA?AUwrite_result@?A0x17268360@@HQEBDI@Z 0000000180034d04     libucrt:write.obj
 0004:00001d10       $pdata$?write_text_ansi_nolock@@YA?AUwrite_result@?A0x17268360@@HQEBDI@Z 0000000180034d10     libucrt:write.obj
 0004:00001d1c       $pdata$?write_text_utf16le_nolock@@YA?AUwrite_result@?A0x17268360@@HQEBDI@Z 0000000180034d1c     libucrt:write.obj
 0004:00001d28       $pdata$?write_text_utf8_nolock@@YA?AUwrite_result@?A0x17268360@@HQEBDI@Z 0000000180034d28     libucrt:write.obj
 0004:00001d34       $pdata$?__mbrtoc32_utf8@__crt_mbstring@@YA_KPEA_UPEBD_KPEAU_Mbstatet@@@Z 0000000180034d34     libucrt:mbrtoc32.obj
 0004:00001d40       $pdata$fegetenv            0000000180034d40     libucrt:fegetenv.obj
 0004:00001d4c       $pdata$fesetenv            0000000180034d4c     libucrt:fesetenv.obj
 0004:00001d58       $pdata$feholdexcept        0000000180034d58     libucrt:feholdexcept.obj
 0004:00001d70       $pdata$??$common_lseek_nolock@_J@@YA_JH_JH@Z 0000000180034d70     libucrt:lseek.obj
 0004:00001d7c       $pdata$fclose              0000000180034d7c     libucrt:fclose.obj
 0004:00001d88       $pdata$fclose$fin$0        0000000180034d88     libucrt:fclose.obj
 0004:00001d94       $pdata$_fclose_nolock      0000000180034d94     libucrt:fclose.obj
 0004:00001da0       $pdata$_putwch_nolock      0000000180034da0     libucrt:putwch.obj
 0004:00001dac       $pdata$__acrt_fenv_set_control 0000000180034dac     libucrt:_fenvutils.obj
 0004:00001db8       $pdata$_clearfp            0000000180034db8     libucrt:ieee.obj
 0004:00001dc4       $pdata$_call_matherr       0000000180034dc4     libucrt:libm_error.obj
 0004:00001dd0       $pdata$_exception_enabled  0000000180034dd0     libucrt:libm_error.obj
 0004:00001ddc       $pdata$_handle_error       0000000180034ddc     libucrt:libm_error.obj
 0004:00001de8       $pdata$__acrt_initialize_fma3 0000000180034de8     libucrt:fma3_available.obj
 0004:00001df4       $pdata$_log_special_common 0000000180034df4     libucrt:log_special.obj
 0004:00001e00       $pdata$_log10_special      0000000180034e00     libucrt:log_special.obj
 0004:00001e0c       $pdata$_close              0000000180034e0c     libucrt:close.obj
 0004:00001e18       $pdata$_close_nolock       0000000180034e18     libucrt:close.obj
 0004:00001e24       $pdata$??$?RV<lambda_751a882b2c74d4b022dec766aa51a29a>@@AEAV<lambda_628dfdc04ba53c8bfc02c9951375f3f5>@@V<lambda_f6c7be5f7998530c34de24c7437d6b54>@@@?$__crt_seh_guarded_call@H@@QEAAH$$QEAV<lambda_751a882b2c74d4b022dec766aa51a29a>@@AEAV<lambda_628dfdc04ba53c8bfc02c9951375f3f5>@@$$QEAV<lambda_f6c7be5f7998530c34de24c7437d6b54>@@@Z 0000000180034e24     libucrt:close.obj
 0004:00001e30       $pdata$__dcrt_lowio_ensure_console_output_initialized 0000000180034e30     libucrt:initcon.obj
 0004:00001e3c       $pdata$__dcrt_write_console 0000000180034e3c     libucrt:initcon.obj
 0004:00001e48       $pdata$__dcrt_terminate_console_output 0000000180034e48     libucrt:initcon.obj
 0004:00001e60       $pdata$_set_errno_from_matherr 0000000180034e60     libucrt:fpexcept.obj
 0004:00001e6c       $pdata$_raise_exc          0000000180034e6c     libucrt:fpexcept.obj
 0004:00001e78       $pdata$_raise_exc_ex       0000000180034e78     libucrt:fpexcept.obj
 0004:00001e84       $pdata$_clrfp              0000000180034e84     libucrt:fpctrl.obj
 0004:00001e90       $pdata$_ctrlfp             0000000180034e90     libucrt:fpctrl.obj
 0004:00001e9c       $pdata$_ctrlfp$filt$0      0000000180034e9c     libucrt:fpctrl.obj
 0004:00001ea8       $pdata$_statfp             0000000180034ea8     libucrt:fpctrl.obj
 0004:00001eb4       $pdata$_set_statfp         0000000180034eb4     libucrt:fpctrl.obj
 0004:00001ec0       $pdata$_IsNonwritableInCurrentImage 0000000180034ec0     LIBCMT:pesect.obj
 0004:00001ecc       $pdata$_IsNonwritableInCurrentImage$filt$0 0000000180034ecc     LIBCMT:pesect.obj
 0005:00000000       MoveSmall                  0000000180035000     libvcruntime:memcpy.obj
 0005:00000050       MsetTab                    0000000180035050     libvcruntime:memset.obj
 0006:00000220       $R000000                   0000000180036220     CoinAcceptor.res
 0006:00000ba0       $R000980                   0000000180036ba0     CoinAcceptor.res
 0006:00000c88       $R000A68                   0000000180036c88     CoinAcceptor.res
 0006:00000ef0       $R000CD0                   0000000180036ef0     CoinAcceptor.res
 0006:000013d0       $R0011B0                   00000001800373d0     CoinAcceptor.res
 0006:000040c0       $R003EA0                   000000018003a0c0     CoinAcceptor.res
 0006:000040f8       $R003ED8                   000000018003a0f8     CoinAcceptor.res
