 OPOSCoinDispenser

 Timestamp is 61a758a6 (Wed Dec  1 20:12:38 2021)

 Preferred load address is 0000000180000000

 Start         Length     Name                   Class
 0001:00000000 000000c0H .text$di                CODE
 0001:000000c0 00023790H .text$mn                CODE
 0001:00023850 00000040H .text$mn$00             CODE
 0001:00023890 00000660H .text$x                 CODE
 0001:00023ef0 00000078H .text$yd                CODE
 0002:00000000 00000638H .idata$5                DATA
 0002:00000638 00000030H .00cfg                  DATA
 0002:00000668 00000008H .CRT$XCA                DATA
 0002:00000670 00000008H .CRT$XCL                DATA
 0002:00000678 00000020H .CRT$XCU                DATA
 0002:00000698 00000008H .CRT$XCZ                DATA
 0002:000006a0 00000008H .CRT$XIA                DATA
 0002:000006a8 00000020H .CRT$XIC                DATA
 0002:000006c8 00000008H .CRT$XIZ                DATA
 0002:000006d0 00000008H .CRT$XLA                DATA
 0002:000006d8 00000008H .CRT$XLZ                DATA
 0002:000006e0 00000008H .CRT$XPA                DATA
 0002:000006e8 00000010H .CRT$XPX                DATA
 0002:000006f8 00000008H .CRT$XPXA               DATA
 0002:00000700 00000008H .CRT$XPZ                DATA
 0002:00000708 00000008H .CRT$XTA                DATA
 0002:00000710 00000010H .CRT$XTZ                DATA
 0002:00000718 00000000H .gehcont$y              DATA
 0002:00000718 00000000H .gfids$y                DATA
 0002:00000720 0000a3e0H .rdata                  DATA
 0002:0000ab00 00000000H .rdata$CastGuardVftablesA DATA
 0002:0000ab00 00000000H .rdata$CastGuardVftablesC DATA
 0002:0000ab00 00000028H .rdata$T                DATA
 0002:0000ab28 00000274H .rdata$r                DATA
 0002:0000ad9c 00000048H .rdata$voltmd           DATA
 0002:0000ade4 0000043cH .rdata$zzzdbg           DATA
 0002:0000b220 00000008H .rtc$IAA                DATA
 0002:0000b228 00000008H .rtc$IZZ                DATA
 0002:0000b230 00000008H .rtc$TAA                DATA
 0002:0000b238 00000008H .rtc$TZZ                DATA
 0002:0000b240 00000004H .tls                    DATA
 0002:0000b244 00000004H .tls$                   DATA
 0002:0000b248 00000008H .tls$ZZZ                DATA
 0002:0000b250 00001900H .xdata                  DATA
 0002:0000cb50 00000150H .xdata$x                DATA
 0002:0000cca0 00000008H ATL$__a                 DATA
 0002:0000cca8 00000008H ATL$__z                 DATA
 0002:0000ccb0 000000b0H .edata                  DATA
 0002:0000cd60 00000078H .idata$2                DATA
 0002:0000cdd8 00000018H .idata$3                DATA
 0002:0000cdf0 00000638H .idata$4                DATA
 0002:0000d428 00000c5cH .idata$6                DATA
 0003:00000000 00000db8H .data                   DATA
 0003:00000db8 000000a8H .data$r                 DATA
 0003:00000e60 00000020H .data$rs                DATA
 0003:00000e80 000013ecH .bss                    DATA
 0004:00000000 00001fd4H .pdata                  DATA
 0005:00000000 000000f4H _RDATA                  DATA
 0006:00000000 00000220H .rsrc$01                DATA
 0006:00000220 00003af8H .rsrc$02                DATA

  Address         Publics by Value              Rva+Base               Lib:Object

 0000:00000000       ___safe_se_handler_table   0000000000000000     <absolute>
 0000:00000000       __guard_longjmp_table      0000000000000000     <absolute>
 0000:00000000       __x64_code_ranges_to_entry_points 0000000000000000     <absolute>
 0000:00000000       __arm64x_redirection_metadata 0000000000000000     <absolute>
 0000:00000000       __guard_iat_table          0000000000000000     <absolute>
 0000:00000000       __guard_fids_count         0000000000000000     <absolute>
 0000:00000000       __arm64x_extra_rfe_table   0000000000000000     <absolute>
 0000:00000000       __guard_iat_count          0000000000000000     <absolute>
 0000:00000000       __guard_longjmp_count      0000000000000000     <absolute>
 0000:00000000       __dynamic_value_reloc_table 0000000000000000     <absolute>
 0000:00000000       __x64_code_ranges_to_entry_points_count 0000000000000000     <absolute>
 0000:00000000       __hybrid_code_map          0000000000000000     <absolute>
 0000:00000000       __hybrid_auxiliary_iat     0000000000000000     <absolute>
 0000:00000000       __hybrid_auxiliary_iat_copy 0000000000000000     <absolute>
 0000:00000000       __arm64x_extra_rfe_table_size 0000000000000000     <absolute>
 0000:00000000       ___safe_se_handler_count   0000000000000000     <absolute>
 0000:00000000       __AbsoluteZero             0000000000000000     <absolute>
 0000:00000000       __guard_check_icall_a64n_fptr 0000000000000000     <absolute>
 0000:00000000       __guard_eh_cont_count      0000000000000000     <absolute>
 0000:00000000       __guard_fids_table         0000000000000000     <absolute>
 0000:00000000       __arm64x_redirection_metadata_count 0000000000000000     <absolute>
 0000:00000000       __enclave_config           0000000000000000     <absolute>
 0000:00000000       __guard_eh_cont_table      0000000000000000     <absolute>
 0000:00000000       __arm64x_native_entrypoint 0000000000000000     <absolute>
 0000:00000000       __hybrid_code_map_count    0000000000000000     <absolute>
 0000:00000100       __guard_flags              0000000000000100     <absolute>
 0000:00000000       __ImageBase                0000000180000000     <linker-defined>
 0001:000000c0       ?DupWide@_CW@@AEAAXXZ      00000001800010c0 f   CWString.obj
 0001:000000e8       ?cw_dup@@YAXPEBDAEAHAEAPEA_W1@Z 00000001800010e8 f   CWString.obj
 0001:000001c8       ?cw_memcpy@@YAHPEA_WPEBDH@Z 00000001800011c8 f   CWString.obj
 0001:00000214       ?cw_strcpy@@YAHPEA_WPEBD@Z 0000000180001214 f   CWString.obj
 0001:00000228       ??0CAtlComModule@ATL@@QEAA@XZ 0000000180001228 f i OposVariant.obj
 0001:000002a8       ??0CAtlWinModule@ATL@@QEAA@XZ 00000001800012a8 f i OposVariant.obj
 0001:00000314       ??0OposDispParms@@QEAA@PEAVOposVariant@@H@Z 0000000180001314 f   OposVariant.obj
 0001:000003bc       ??1OposDispParms@@QEAA@XZ  00000001800013bc f   OposVariant.obj
 0001:000003d4       ??_Estringdispid@CComTypeInfoHolder@ATL@@QEAAPEAXI@Z 00000001800013d4 f i OposVariant.obj
 0001:00000478       ?AtlWinModuleTerm@ATL@@YAJPEAU_ATL_WIN_MODULE70@1@PEAUHINSTANCE__@@@Z 0000000180001478 f i OposVariant.obj
 0001:00000528       ?ChangeBSTR@OposVariant@@QEAAXPEAPEA_WAEAJ@Z 0000000180001528 f   OposVariant.obj
 0001:00000588       ?ChangeLONG@OposVariant@@QEAAXPEAJAEAJ@Z 0000000180001588 f   OposVariant.obj
 0001:000005e4       ?GetLONG@OposVariant@@QEAAJXZ 00000001800015e4 f   OposVariant.obj
 0001:00000608       ?SetBSTR@OposVariant@@QEAAXPEA_WAEAJ@Z 0000000180001608 f   OposVariant.obj
 0001:00000648       ?SetBSTR_Copy@OposVariant@@QEAAXPEA_WAEAJ@Z 0000000180001648 f   OposVariant.obj
 0001:000006b8       ?SetBSTR_InOutPtr@OposVariant@@QEAA_NPEAPEA_WAEAJ@Z 00000001800016b8 f   OposVariant.obj
 0001:00000708       ?SetBSTR_OutPtr@OposVariant@@QEAA_NPEAPEA_WAEAJ@Z 0000000180001708 f   OposVariant.obj
 0001:00000724       ?SetDispatch_Ptr@OposVariant@@QEAAXPEAUIDispatch@@AEAJ@Z 0000000180001724 f   OposVariant.obj
 0001:0000077c       ?SetLONG@OposVariant@@QEAAXJ@Z 000000018000177c f   OposVariant.obj
 0001:000007ac       ?SetLONG_Ptr@OposVariant@@QEAAXPEAJAEAJ@Z 00000001800017ac f   OposVariant.obj
 0001:000007f8       ?SetString@OposVariant@@QEAAXPEB_WAEAJ@Z 00000001800017f8 f   OposVariant.obj
 0001:0000085c       ?SetVARIANT_BOOL@OposVariant@@QEAAXF@Z 000000018000185c f   OposVariant.obj
 0001:00000894       ?SetVARIANT_BOOL_Ptr@OposVariant@@QEAAXPEAFAEAJ@Z 0000000180001894 f   OposVariant.obj
 0001:000008e0       ?Term@CAtlComModule@ATL@@QEAAXXZ 00000001800018e0 f i OposVariant.obj
 0001:00000950       ?_AtlInitializeCriticalSectionEx@ATL@@YAHPEAU_RTL_CRITICAL_SECTION@@KK@Z 0000000180001950 f i OposVariant.obj
 0001:00000958       ?_AtlRaiseException@ATL@@YAXKK@Z 0000000180001958 f i OposVariant.obj
 0001:00000968       ?Next@?$CComEnumImpl@UIEnumConnections@@$1?_GUID_b196b287_bab4_101a_b69c_00aa00341d07@@3U__s_GUID@@BUtagCONNECTDATA@@V?$_Copy@UtagCONNECTDATA@@@ATL@@@ATL@@UEAAJKPEAUtagCONNECTDATA@@PEAK@Z 0000000180001968 f i CoinDispenser.obj
 0001:00000a30       ?Skip@?$CComEnumImpl@UIEnumConnections@@$1?_GUID_b196b287_bab4_101a_b69c_00aa00341d07@@3U__s_GUID@@BUtagCONNECTDATA@@V?$_Copy@UtagCONNECTDATA@@@ATL@@@ATL@@UEAAJK@Z 0000000180001a30 f i CoinDispenser.obj
 0001:00000a5c       ?Reset@?$CComEnumImpl@UIEnumConnections@@$1?_GUID_b196b287_bab4_101a_b69c_00aa00341d07@@3U__s_GUID@@BUtagCONNECTDATA@@V?$_Copy@UtagCONNECTDATA@@@ATL@@@ATL@@UEAAJXZ 0000000180001a5c f i CoinDispenser.obj
 0001:00000a5c       ?Reset@?$CComEnumImpl@UIEnumConnectionPoints@@$1?_GUID_b196b285_bab4_101a_b69c_00aa00341d07@@3U__s_GUID@@BPEAUIConnectionPoint@@V?$_CopyInterface@UIConnectionPoint@@@ATL@@@ATL@@UEAAJXZ 0000000180001a5c f i CoinDispenser.obj
 0001:00000a68       ?Clone@?$CComEnumImpl@UIEnumConnections@@$1?_GUID_b196b287_bab4_101a_b69c_00aa00341d07@@3U__s_GUID@@BUtagCONNECTDATA@@V?$_Copy@UtagCONNECTDATA@@@ATL@@@ATL@@UEAAJPEAPEAUIEnumConnections@@@Z 0000000180001a68 f i CoinDispenser.obj
 0001:00000b94       ?AddRef@?$CComObject@V?$CComEnum@UIEnumConnections@@$1?_GUID_b196b287_bab4_101a_b69c_00aa00341d07@@3U__s_GUID@@BUtagCONNECTDATA@@V?$_Copy@UtagCONNECTDATA@@@ATL@@VCComSingleThreadModel@6@@ATL@@@ATL@@UEAAKXZ 0000000180001b94 f i CoinDispenser.obj
 0001:00000b94       ?AddRef@?$CComObject@V?$CComEnum@UIEnumConnectionPoints@@$1?_GUID_b196b285_bab4_101a_b69c_00aa00341d07@@3U__s_GUID@@BPEAUIConnectionPoint@@V?$_CopyInterface@UIConnectionPoint@@@ATL@@VCComSingleThreadModel@6@@ATL@@@ATL@@UEAAKXZ 0000000180001b94 f i CoinDispenser.obj
 0001:00000ba0       ?Release@?$CComObject@V?$CComEnum@UIEnumConnections@@$1?_GUID_b196b287_bab4_101a_b69c_00aa00341d07@@3U__s_GUID@@BUtagCONNECTDATA@@V?$_Copy@UtagCONNECTDATA@@@ATL@@VCComSingleThreadModel@6@@ATL@@@ATL@@UEAAKXZ 0000000180001ba0 f i CoinDispenser.obj
 0001:00000ba0       ?Release@?$CComObject@V?$CComEnum@UIEnumConnectionPoints@@$1?_GUID_b196b285_bab4_101a_b69c_00aa00341d07@@3U__s_GUID@@BPEAUIConnectionPoint@@V?$_CopyInterface@UIConnectionPoint@@@ATL@@VCComSingleThreadModel@6@@ATL@@@ATL@@UEAAKXZ 0000000180001ba0 f i CoinDispenser.obj
 0001:00000bf4       ?QueryInterface@?$CComObject@V?$CComEnum@UIEnumConnections@@$1?_GUID_b196b287_bab4_101a_b69c_00aa00341d07@@3U__s_GUID@@BUtagCONNECTDATA@@V?$_Copy@UtagCONNECTDATA@@@ATL@@VCComSingleThreadModel@6@@ATL@@@ATL@@UEAAJAEBU_GUID@@PEAPEAX@Z 0000000180001bf4 f i CoinDispenser.obj
 0001:00000c08       ??_G?$CComObject@V?$CComEnum@UIEnumConnections@@$1?_GUID_b196b287_bab4_101a_b69c_00aa00341d07@@3U__s_GUID@@BUtagCONNECTDATA@@V?$_Copy@UtagCONNECTDATA@@@ATL@@VCComSingleThreadModel@6@@ATL@@@ATL@@UEAAPEAXI@Z 0000000180001c08 f i CoinDispenser.obj
 0001:00000c08       ??_E?$CComObject@V?$CComEnum@UIEnumConnections@@$1?_GUID_b196b287_bab4_101a_b69c_00aa00341d07@@3U__s_GUID@@BUtagCONNECTDATA@@V?$_Copy@UtagCONNECTDATA@@@ATL@@VCComSingleThreadModel@6@@ATL@@@ATL@@UEAAPEAXI@Z 0000000180001c08 f i CoinDispenser.obj
 0001:00000c60       ?ObjectMain@CComObjectRootBase@ATL@@SAX_N@Z 0000000180001c60 f i CoinDispenser.obj
 0001:00000c60       _guard_check_icall_nop     0000000180001c60 f i LIBCMT:guard_support.obj
 0001:00000c60       ?OnFinalMessage@?$CWindowImplBaseT@VCWindow@ATL@@V?$CWinTraits@$0FGAAAAAA@$0A@@2@@ATL@@UEAAXPEAUHWND__@@@Z 0000000180001c60 f i CoinDispenser.obj
 0001:00000c64       ?SaveCompleted@?$IPersistStorageImpl@VCOPOSCoinDispenser@@@ATL@@UEAAJPEAUIStorage@@@Z 0000000180001c64 f i CoinDispenser.obj
 0001:00000c64       ?Release@CRegObject@ATL@@UEAAKXZ 0000000180001c64 f i CoinDispenser.obj
 0001:00000c64       ?Update@?$IOleObjectImpl@VCOPOSCoinDispenser@@@ATL@@UEAAJXZ 0000000180001c64 f i CoinDispenser.obj
 0001:00000c64       ?HandsOffStorage@?$IPersistStorageImpl@VCOPOSCoinDispenser@@@ATL@@UEAAJXZ 0000000180001c64 f i CoinDispenser.obj
 0001:00000c64       ?OnAmbientPropertyChange@?$IOleControlImpl@VCOPOSCoinDispenser@@@ATL@@UEAAJJ@Z 0000000180001c64 f i CoinDispenser.obj
 0001:00000c64       ?IsUpToDate@?$IOleObjectImpl@VCOPOSCoinDispenser@@@ATL@@UEAAJXZ 0000000180001c64 f i CoinDispenser.obj
 0001:00000c64       ?GetObjectDescription@?$CComCoClass@VCOPOSCoinDispenser@@$1?CLSID_OPOSCoinDispenser@@3U_GUID@@B@ATL@@SAPEB_WXZ 0000000180001c64 f i CoinDispenser.obj
 0001:00000c64       ?GetCategoryMap@CComObjectRootBase@ATL@@SAPEBU_ATL_CATMAP_ENTRY@2@XZ 0000000180001c64 f i CoinDispenser.obj
 0001:00000c64       ?OnFrameWindowActivate@?$IOleInPlaceActiveObjectImpl@VCOPOSCoinDispenser@@@ATL@@UEAAJH@Z 0000000180001c64 f i CoinDispenser.obj
 0001:00000c64       ?SetHostNames@?$IOleObjectImpl@VCOPOSCoinDispenser@@@ATL@@UEAAJPEB_W0@Z 0000000180001c64 f i CoinDispenser.obj
 0001:00000c64       ?ResizeBorder@?$IOleInPlaceActiveObjectImpl@VCOPOSCoinDispenser@@@ATL@@UEAAJPEBUtagRECT@@PEAUIOleInPlaceUIWindow@@H@Z 0000000180001c64 f i CoinDispenser.obj
 0001:00000c64       ?EnableModeless@?$IOleInPlaceActiveObjectImpl@VCOPOSCoinDispenser@@@ATL@@UEAAJH@Z 0000000180001c64 f i CoinDispenser.obj
 0001:00000c68       ??_E?$CComObject@VCOPOSCoinDispenser@@@ATL@@W7EAAPEAXI@Z 0000000180001c68 f i CoinDispenser.obj
 0001:00000c74       ??_E?$CComObject@VCOPOSCoinDispenser@@@ATL@@WHA@EAAPEAXI@Z 0000000180001c74 f i CoinDispenser.obj
 0001:00000c80       ?QueryInterface@?$CComObject@VCOPOSCoinDispenser@@@ATL@@WLI@EAAJAEBU_GUID@@PEAPEAX@Z 0000000180001c80 f i CoinDispenser.obj
 0001:00000c8c       ?AddRef@?$CComObject@VCOPOSCoinDispenser@@@ATL@@WLI@EAAKXZ 0000000180001c8c f i CoinDispenser.obj
 0001:00000c98       ?Release@?$CComObject@VCOPOSCoinDispenser@@@ATL@@WLI@EAAKXZ 0000000180001c98 f i CoinDispenser.obj
 0001:00000ca4       ?QueryInterface@?$CComObject@VCOPOSCoinDispenser@@@ATL@@WMA@EAAJAEBU_GUID@@PEAPEAX@Z 0000000180001ca4 f i CoinDispenser.obj
 0001:00000cb0       ?AddRef@?$CComObject@VCOPOSCoinDispenser@@@ATL@@WMA@EAAKXZ 0000000180001cb0 f i CoinDispenser.obj
 0001:00000cbc       ?Release@?$CComObject@VCOPOSCoinDispenser@@@ATL@@WMA@EAAKXZ 0000000180001cbc f i CoinDispenser.obj
 0001:00000cc8       ?QueryInterface@?$CComObject@VCOPOSCoinDispenser@@@ATL@@WMI@EAAJAEBU_GUID@@PEAPEAX@Z 0000000180001cc8 f i CoinDispenser.obj
 0001:00000cd4       ?AddRef@?$CComObject@VCOPOSCoinDispenser@@@ATL@@WMI@EAAKXZ 0000000180001cd4 f i CoinDispenser.obj
 0001:00000ce0       ?Release@?$CComObject@VCOPOSCoinDispenser@@@ATL@@WMI@EAAKXZ 0000000180001ce0 f i CoinDispenser.obj
 0001:00000cec       ?QueryInterface@?$CComObject@VCOPOSCoinDispenser@@@ATL@@WNA@EAAJAEBU_GUID@@PEAPEAX@Z 0000000180001cec f i CoinDispenser.obj
 0001:00000cf8       ?AddRef@?$CComObject@VCOPOSCoinDispenser@@@ATL@@WNA@EAAKXZ 0000000180001cf8 f i CoinDispenser.obj
 0001:00000d04       ?Release@?$CComObject@VCOPOSCoinDispenser@@@ATL@@WNA@EAAKXZ 0000000180001d04 f i CoinDispenser.obj
 0001:00000d10       ?QueryInterface@?$CComObject@VCOPOSCoinDispenser@@@ATL@@WNI@EAAJAEBU_GUID@@PEAPEAX@Z 0000000180001d10 f i CoinDispenser.obj
 0001:00000d1c       ?AddRef@?$CComObject@VCOPOSCoinDispenser@@@ATL@@WNI@EAAKXZ 0000000180001d1c f i CoinDispenser.obj
 0001:00000d28       ?Release@?$CComObject@VCOPOSCoinDispenser@@@ATL@@WNI@EAAKXZ 0000000180001d28 f i CoinDispenser.obj
 0001:00000d34       ?QueryInterface@?$CComObject@VCOPOSCoinDispenser@@@ATL@@WOA@EAAJAEBU_GUID@@PEAPEAX@Z 0000000180001d34 f i CoinDispenser.obj
 0001:00000d40       ?AddRef@?$CComObject@VCOPOSCoinDispenser@@@ATL@@WOA@EAAKXZ 0000000180001d40 f i CoinDispenser.obj
 0001:00000d4c       ?Release@?$CComObject@VCOPOSCoinDispenser@@@ATL@@WOA@EAAKXZ 0000000180001d4c f i CoinDispenser.obj
 0001:00000d58       ?QueryInterface@?$CComObject@VCOPOSCoinDispenser@@@ATL@@WOI@EAAJAEBU_GUID@@PEAPEAX@Z 0000000180001d58 f i CoinDispenser.obj
 0001:00000d64       ?AddRef@?$CComObject@VCOPOSCoinDispenser@@@ATL@@WOI@EAAKXZ 0000000180001d64 f i CoinDispenser.obj
 0001:00000d70       ?Release@?$CComObject@VCOPOSCoinDispenser@@@ATL@@WOI@EAAKXZ 0000000180001d70 f i CoinDispenser.obj
 0001:00000d7c       ?QueryInterface@?$CComObject@VCOPOSCoinDispenser@@@ATL@@WPA@EAAJAEBU_GUID@@PEAPEAX@Z 0000000180001d7c f i CoinDispenser.obj
 0001:00000d88       ?AddRef@?$CComObject@VCOPOSCoinDispenser@@@ATL@@WPA@EAAKXZ 0000000180001d88 f i CoinDispenser.obj
 0001:00000d94       ?Release@?$CComObject@VCOPOSCoinDispenser@@@ATL@@WPA@EAAKXZ 0000000180001d94 f i CoinDispenser.obj
 0001:00000da0       ?QueryInterface@?$CComObject@VCOPOSCoinDispenser@@@ATL@@WPI@EAAJAEBU_GUID@@PEAPEAX@Z 0000000180001da0 f i CoinDispenser.obj
 0001:00000dac       ?AddRef@?$CComObject@VCOPOSCoinDispenser@@@ATL@@WPI@EAAKXZ 0000000180001dac f i CoinDispenser.obj
 0001:00000db8       ?Release@?$CComObject@VCOPOSCoinDispenser@@@ATL@@WPI@EAAKXZ 0000000180001db8 f i CoinDispenser.obj
 0001:00000dc4       ?QueryInterface@?$CComObject@VCOPOSCoinDispenser@@@ATL@@WBAA@EAAJAEBU_GUID@@PEAPEAX@Z 0000000180001dc4 f i CoinDispenser.obj
 0001:00000dd0       ?AddRef@?$CComObject@VCOPOSCoinDispenser@@@ATL@@WBAA@EAAKXZ 0000000180001dd0 f i CoinDispenser.obj
 0001:00000ddc       ?Release@?$CComObject@VCOPOSCoinDispenser@@@ATL@@WBAA@EAAKXZ 0000000180001ddc f i CoinDispenser.obj
 0001:00000de8       ?QueryInterface@?$CComObject@VCOPOSCoinDispenser@@@ATL@@WBAI@EAAJAEBU_GUID@@PEAPEAX@Z 0000000180001de8 f i CoinDispenser.obj
 0001:00000df4       ?AddRef@?$CComObject@VCOPOSCoinDispenser@@@ATL@@WBAI@EAAKXZ 0000000180001df4 f i CoinDispenser.obj
 0001:00000e00       ?Release@?$CComObject@VCOPOSCoinDispenser@@@ATL@@WBAI@EAAKXZ 0000000180001e00 f i CoinDispenser.obj
 0001:00000e0c       ?QueryInterface@?$CComObject@VCOPOSCoinDispenser@@@ATL@@WBBA@EAAJAEBU_GUID@@PEAPEAX@Z 0000000180001e0c f i CoinDispenser.obj
 0001:00000e18       ?AddRef@?$CComObject@VCOPOSCoinDispenser@@@ATL@@WBBA@EAAKXZ 0000000180001e18 f i CoinDispenser.obj
 0001:00000e24       ?Release@?$CComObject@VCOPOSCoinDispenser@@@ATL@@WBBA@EAAKXZ 0000000180001e24 f i CoinDispenser.obj
 0001:00000e30       ?QueryInterface@?$CComObject@VCOPOSCoinDispenser@@@ATL@@WBBI@EAAJAEBU_GUID@@PEAPEAX@Z 0000000180001e30 f i CoinDispenser.obj
 0001:00000e3c       ?AddRef@?$CComObject@VCOPOSCoinDispenser@@@ATL@@WBBI@EAAKXZ 0000000180001e3c f i CoinDispenser.obj
 0001:00000e48       ?Release@?$CComObject@VCOPOSCoinDispenser@@@ATL@@WBBI@EAAKXZ 0000000180001e48 f i CoinDispenser.obj
 0001:00000e54       ?AddRef@?$CComObject@VCOPOSCoinDispenser@@@ATL@@WBCI@EAAKXZ 0000000180001e54 f i CoinDispenser.obj
 0001:00000e60       ?Release@?$CComObject@VCOPOSCoinDispenser@@@ATL@@WBCI@EAAKXZ 0000000180001e60 f i CoinDispenser.obj
 0001:00000e6c       ?AddRef@?$CComObject@VCOPOSCoinDispenser@@@ATL@@WBEA@EAAKXZ 0000000180001e6c f i CoinDispenser.obj
 0001:00000e78       ?Release@?$CComObject@VCOPOSCoinDispenser@@@ATL@@WBEA@EAAKXZ 0000000180001e78 f i CoinDispenser.obj
 0001:00000e84       ??_E?$CComContainedObject@VCOPOSCoinDispenser@@@ATL@@W7EAAPEAXI@Z 0000000180001e84 f i CoinDispenser.obj
 0001:00000e90       ??_E?$CComContainedObject@VCOPOSCoinDispenser@@@ATL@@WHA@EAAPEAXI@Z 0000000180001e90 f i CoinDispenser.obj
 0001:00000e9c       ?QueryInterface@?$CComContainedObject@VCOPOSCoinDispenser@@@ATL@@WLI@EAAJAEBU_GUID@@PEAPEAX@Z 0000000180001e9c f i CoinDispenser.obj
 0001:00000ea8       ?AddRef@?$CComContainedObject@VCOPOSCoinDispenser@@@ATL@@WLI@EAAKXZ 0000000180001ea8 f i CoinDispenser.obj
 0001:00000eb4       ?Release@?$CComContainedObject@VCOPOSCoinDispenser@@@ATL@@WLI@EAAKXZ 0000000180001eb4 f i CoinDispenser.obj
 0001:00000ec0       ?QueryInterface@?$CComContainedObject@VCOPOSCoinDispenser@@@ATL@@WMA@EAAJAEBU_GUID@@PEAPEAX@Z 0000000180001ec0 f i CoinDispenser.obj
 0001:00000ecc       ?AddRef@?$CComContainedObject@VCOPOSCoinDispenser@@@ATL@@WMA@EAAKXZ 0000000180001ecc f i CoinDispenser.obj
 0001:00000ed8       ?Release@?$CComContainedObject@VCOPOSCoinDispenser@@@ATL@@WMA@EAAKXZ 0000000180001ed8 f i CoinDispenser.obj
 0001:00000ee4       ?QueryInterface@?$CComContainedObject@VCOPOSCoinDispenser@@@ATL@@WMI@EAAJAEBU_GUID@@PEAPEAX@Z 0000000180001ee4 f i CoinDispenser.obj
 0001:00000ef0       ?AddRef@?$CComContainedObject@VCOPOSCoinDispenser@@@ATL@@WMI@EAAKXZ 0000000180001ef0 f i CoinDispenser.obj
 0001:00000efc       ?Release@?$CComContainedObject@VCOPOSCoinDispenser@@@ATL@@WMI@EAAKXZ 0000000180001efc f i CoinDispenser.obj
 0001:00000f08       ?QueryInterface@?$CComContainedObject@VCOPOSCoinDispenser@@@ATL@@WNA@EAAJAEBU_GUID@@PEAPEAX@Z 0000000180001f08 f i CoinDispenser.obj
 0001:00000f14       ?AddRef@?$CComContainedObject@VCOPOSCoinDispenser@@@ATL@@WNA@EAAKXZ 0000000180001f14 f i CoinDispenser.obj
 0001:00000f20       ?Release@?$CComContainedObject@VCOPOSCoinDispenser@@@ATL@@WNA@EAAKXZ 0000000180001f20 f i CoinDispenser.obj
 0001:00000f2c       ?QueryInterface@?$CComContainedObject@VCOPOSCoinDispenser@@@ATL@@WNI@EAAJAEBU_GUID@@PEAPEAX@Z 0000000180001f2c f i CoinDispenser.obj
 0001:00000f38       ?AddRef@?$CComContainedObject@VCOPOSCoinDispenser@@@ATL@@WNI@EAAKXZ 0000000180001f38 f i CoinDispenser.obj
 0001:00000f44       ?Release@?$CComContainedObject@VCOPOSCoinDispenser@@@ATL@@WNI@EAAKXZ 0000000180001f44 f i CoinDispenser.obj
 0001:00000f50       ?QueryInterface@?$CComContainedObject@VCOPOSCoinDispenser@@@ATL@@WOA@EAAJAEBU_GUID@@PEAPEAX@Z 0000000180001f50 f i CoinDispenser.obj
 0001:00000f5c       ?AddRef@?$CComContainedObject@VCOPOSCoinDispenser@@@ATL@@WOA@EAAKXZ 0000000180001f5c f i CoinDispenser.obj
 0001:00000f68       ?Release@?$CComContainedObject@VCOPOSCoinDispenser@@@ATL@@WOA@EAAKXZ 0000000180001f68 f i CoinDispenser.obj
 0001:00000f74       ?QueryInterface@?$CComContainedObject@VCOPOSCoinDispenser@@@ATL@@WOI@EAAJAEBU_GUID@@PEAPEAX@Z 0000000180001f74 f i CoinDispenser.obj
 0001:00000f80       ?AddRef@?$CComContainedObject@VCOPOSCoinDispenser@@@ATL@@WOI@EAAKXZ 0000000180001f80 f i CoinDispenser.obj
 0001:00000f8c       ?Release@?$CComContainedObject@VCOPOSCoinDispenser@@@ATL@@WOI@EAAKXZ 0000000180001f8c f i CoinDispenser.obj
 0001:00000f98       ?QueryInterface@?$CComContainedObject@VCOPOSCoinDispenser@@@ATL@@WPA@EAAJAEBU_GUID@@PEAPEAX@Z 0000000180001f98 f i CoinDispenser.obj
 0001:00000fa4       ?AddRef@?$CComContainedObject@VCOPOSCoinDispenser@@@ATL@@WPA@EAAKXZ 0000000180001fa4 f i CoinDispenser.obj
 0001:00000fb0       ?Release@?$CComContainedObject@VCOPOSCoinDispenser@@@ATL@@WPA@EAAKXZ 0000000180001fb0 f i CoinDispenser.obj
 0001:00000fbc       ?QueryInterface@?$CComContainedObject@VCOPOSCoinDispenser@@@ATL@@WPI@EAAJAEBU_GUID@@PEAPEAX@Z 0000000180001fbc f i CoinDispenser.obj
 0001:00000fc8       ?AddRef@?$CComContainedObject@VCOPOSCoinDispenser@@@ATL@@WPI@EAAKXZ 0000000180001fc8 f i CoinDispenser.obj
 0001:00000fd4       ?Release@?$CComContainedObject@VCOPOSCoinDispenser@@@ATL@@WPI@EAAKXZ 0000000180001fd4 f i CoinDispenser.obj
 0001:00000fe0       ?QueryInterface@?$CComContainedObject@VCOPOSCoinDispenser@@@ATL@@WBAA@EAAJAEBU_GUID@@PEAPEAX@Z 0000000180001fe0 f i CoinDispenser.obj
 0001:00000fec       ?AddRef@?$CComContainedObject@VCOPOSCoinDispenser@@@ATL@@WBAA@EAAKXZ 0000000180001fec f i CoinDispenser.obj
 0001:00000ff8       ?Release@?$CComContainedObject@VCOPOSCoinDispenser@@@ATL@@WBAA@EAAKXZ 0000000180001ff8 f i CoinDispenser.obj
 0001:00001004       ?QueryInterface@?$CComContainedObject@VCOPOSCoinDispenser@@@ATL@@WBAI@EAAJAEBU_GUID@@PEAPEAX@Z 0000000180002004 f i CoinDispenser.obj
 0001:00001010       ?AddRef@?$CComContainedObject@VCOPOSCoinDispenser@@@ATL@@WBAI@EAAKXZ 0000000180002010 f i CoinDispenser.obj
 0001:0000101c       ?Release@?$CComContainedObject@VCOPOSCoinDispenser@@@ATL@@WBAI@EAAKXZ 000000018000201c f i CoinDispenser.obj
 0001:00001028       ?QueryInterface@?$CComContainedObject@VCOPOSCoinDispenser@@@ATL@@WBBA@EAAJAEBU_GUID@@PEAPEAX@Z 0000000180002028 f i CoinDispenser.obj
 0001:00001034       ?AddRef@?$CComContainedObject@VCOPOSCoinDispenser@@@ATL@@WBBA@EAAKXZ 0000000180002034 f i CoinDispenser.obj
 0001:00001040       ?Release@?$CComContainedObject@VCOPOSCoinDispenser@@@ATL@@WBBA@EAAKXZ 0000000180002040 f i CoinDispenser.obj
 0001:0000104c       ?QueryInterface@?$CComContainedObject@VCOPOSCoinDispenser@@@ATL@@WBBI@EAAJAEBU_GUID@@PEAPEAX@Z 000000018000204c f i CoinDispenser.obj
 0001:00001058       ?AddRef@?$CComContainedObject@VCOPOSCoinDispenser@@@ATL@@WBBI@EAAKXZ 0000000180002058 f i CoinDispenser.obj
 0001:00001064       ?Release@?$CComContainedObject@VCOPOSCoinDispenser@@@ATL@@WBBI@EAAKXZ 0000000180002064 f i CoinDispenser.obj
 0001:00001070       ?AddRef@?$CComContainedObject@VCOPOSCoinDispenser@@@ATL@@WBCI@EAAKXZ 0000000180002070 f i CoinDispenser.obj
 0001:0000107c       ?Release@?$CComContainedObject@VCOPOSCoinDispenser@@@ATL@@WBCI@EAAKXZ 000000018000207c f i CoinDispenser.obj
 0001:00001088       ?AddRef@?$CComContainedObject@VCOPOSCoinDispenser@@@ATL@@WBEA@EAAKXZ 0000000180002088 f i CoinDispenser.obj
 0001:00001094       ?Release@?$CComContainedObject@VCOPOSCoinDispenser@@@ATL@@WBEA@EAAKXZ 0000000180002094 f i CoinDispenser.obj
 0001:000010a0       ?CreateInstance@CComClassFactory@ATL@@UEAAJPEAUIUnknown@@AEBU_GUID@@PEAPEAX@Z 00000001800020a0 f i CoinDispenser.obj
 0001:00001100       ?LockServer@CComClassFactory@ATL@@UEAAJH@Z 0000000180002100 f i CoinDispenser.obj
 0001:00001124       ??_ECComClassFactory@ATL@@UEAAPEAXI@Z 0000000180002124 f i CoinDispenser.obj
 0001:00001124       ??_GCComClassFactory@ATL@@UEAAPEAXI@Z 0000000180002124 f i CoinDispenser.obj
 0001:00001174       ?GetWindowProc@?$CWindowImplBaseT@VCWindow@ATL@@V?$CWinTraits@$0FGAAAAAA@$0A@@2@@ATL@@UEAAP6A_JPEAUHWND__@@I_K_J@ZXZ 0000000180002174 f i CoinDispenser.obj
 0001:0000117c       ?StartWindowProc@?$CWindowImplBaseT@VCWindow@ATL@@V?$CWinTraits@$0FGAAAAAA@$0A@@2@@ATL@@SA_JPEAUHWND__@@I_K_J@Z 000000018000217c f i CoinDispenser.obj
 0001:00001230       ?GetTypeInfoCount@?$IDispatchImpl@UIOPOSCoinDispenser@@$1?IID_IOPOSCoinDispenser@@3U_GUID@@B$1?LIBID_OposCoinDispenser_CCO@@3U3@B$00$0A@VCComTypeInfoHolder@ATL@@@ATL@@UEAAJPEAI@Z 0000000180002230 f i CoinDispenser.obj
 0001:00001244       ?GetTypeInfo@?$IDispatchImpl@UIOPOSCoinDispenser@@$1?IID_IOPOSCoinDispenser@@3U_GUID@@B$1?LIBID_OposCoinDispenser_CCO@@3U3@B$00$0A@VCComTypeInfoHolder@ATL@@@ATL@@UEAAJIKPEAPEAUITypeInfo@@@Z 0000000180002244 f i CoinDispenser.obj
 0001:000012a8       ?GetIDsOfNames@?$IDispatchImpl@UIOPOSCoinDispenser@@$1?IID_IOPOSCoinDispenser@@3U_GUID@@B$1?LIBID_OposCoinDispenser_CCO@@3U3@B$00$0A@VCComTypeInfoHolder@ATL@@@ATL@@UEAAJAEBU_GUID@@PEAPEA_WIKPEAJ@Z 00000001800022a8 f i CoinDispenser.obj
 0001:000012b4       ?Invoke@?$IDispatchImpl@UIOPOSCoinDispenser@@$1?IID_IOPOSCoinDispenser@@3U_GUID@@B$1?LIBID_OposCoinDispenser_CCO@@3U3@B$00$0A@VCComTypeInfoHolder@ATL@@@ATL@@UEAAJJAEBU_GUID@@KGPEAUtagDISPPARAMS@@PEAUtagVARIANT@@PEAUtagEXCEPINFO@@PEAI@Z 00000001800022b4 f i CoinDispenser.obj
 0001:00001344       ?CreateControlWindow@?$CComControl@VCOPOSCoinDispenser@@V?$CWindowImpl@VCOPOSCoinDispenser@@VCWindow@ATL@@V?$CWinTraits@$0FGAAAAAA@$0A@@3@@ATL@@@ATL@@UEAAPEAUHWND__@@PEAU3@AEAUtagRECT@@@Z 0000000180002344 f i CoinDispenser.obj
 0001:0000137c       ?ControlQueryInterface@?$CComControl@VCOPOSCoinDispenser@@V?$CWindowImpl@VCOPOSCoinDispenser@@VCWindow@ATL@@V?$CWinTraits@$0FGAAAAAA@$0A@@3@@ATL@@@ATL@@UEAAJAEBU_GUID@@PEAPEAX@Z 000000018000237c f i CoinDispenser.obj
 0001:00001390       ?GetUserClassID@?$IOleObjectImpl@VCOPOSCoinDispenser@@@ATL@@UEAAJPEAU_GUID@@@Z 0000000180002390 f i CoinDispenser.obj
 0001:00001390       ?GetClassID@?$IPersistStorageImpl@VCOPOSCoinDispenser@@@ATL@@UEAAJPEAU_GUID@@@Z 0000000180002390 f i CoinDispenser.obj
 0001:00001390       ?GetClassID@?$IPersistStreamInitImpl@VCOPOSCoinDispenser@@@ATL@@UEAAJPEAU_GUID@@@Z 0000000180002390 f i CoinDispenser.obj
 0001:000013ac       ?IsDirty@?$IPersistStreamInitImpl@VCOPOSCoinDispenser@@@ATL@@UEAAJXZ 00000001800023ac f i CoinDispenser.obj
 0001:000013c8       ?Load@?$IPersistStreamInitImpl@VCOPOSCoinDispenser@@@ATL@@UEAAJPEAUIStream@@@Z 00000001800023c8 f i CoinDispenser.obj
 0001:000013e0       ?Save@?$IPersistStreamInitImpl@VCOPOSCoinDispenser@@@ATL@@UEAAJPEAUIStream@@H@Z 00000001800023e0 f i CoinDispenser.obj
 0001:000013f8       ?GetSizeMax@?$IPersistStreamInitImpl@VCOPOSCoinDispenser@@@ATL@@UEAAJPEAT_ULARGE_INTEGER@@@Z 00000001800023f8 f i CoinDispenser.obj
 0001:0000161c       ?InitNew@?$IPersistStreamInitImpl@VCOPOSCoinDispenser@@@ATL@@UEAAJXZ 000000018000261c f i CoinDispenser.obj
 0001:00001634       ?InitFromData@?$IOleObjectImpl@VCOPOSCoinDispenser@@@ATL@@UEAAJPEAUIDataObject@@HK@Z 0000000180002634 f i CoinDispenser.obj
 0001:00001634       ?SetMoniker@?$IOleObjectImpl@VCOPOSCoinDispenser@@@ATL@@UEAAJKPEAUIMoniker@@@Z 0000000180002634 f i CoinDispenser.obj
 0001:00001634       ?GetDropTarget@?$IOleInPlaceObjectWindowlessImpl@VCOPOSCoinDispenser@@@ATL@@UEAAJPEAPEAUIDropTarget@@@Z 0000000180002634 f i CoinDispenser.obj
 0001:00001634       ?GetRect@?$IViewObjectExImpl@VCOPOSCoinDispenser@@@ATL@@UEAAJKPEAU_RECTL@@@Z 0000000180002634 f i CoinDispenser.obj
 0001:00001634       ?QueryGetData@?$IDataObjectImpl@VCOPOSCoinDispenser@@@ATL@@UEAAJPEAUtagFORMATETC@@@Z 0000000180002634 f i CoinDispenser.obj
 0001:00001634       ?SetColorScheme@?$IOleObjectImpl@VCOPOSCoinDispenser@@@ATL@@UEAAJPEAUtagLOGPALETTE@@@Z 0000000180002634 f i CoinDispenser.obj
 0001:00001634       ?ReactivateAndUndo@?$IOleInPlaceObjectWindowlessImpl@VCOPOSCoinDispenser@@@ATL@@UEAAJXZ 0000000180002634 f i CoinDispenser.obj
 0001:00001634       ?SOErrorDummy@COPOSCoinDispenser@@MEAAJJJJPEAJ@Z 0000000180002634 f i CoinDispenser.obj
 0001:00001634       ?GetControlInfo@?$IOleControlImpl@VCOPOSCoinDispenser@@@ATL@@UEAAJPEAUtagCONTROLINFO@@@Z 0000000180002634 f i CoinDispenser.obj
 0001:00001634       ?GetMoniker@?$IOleObjectImpl@VCOPOSCoinDispenser@@@ATL@@UEAAJKKPEAPEAUIMoniker@@@Z 0000000180002634 f i CoinDispenser.obj
 0001:00001634       ?ContextSensitiveHelp@?$IOleInPlaceActiveObjectImpl@VCOPOSCoinDispenser@@@ATL@@UEAAJH@Z 0000000180002634 f i CoinDispenser.obj
 0001:00001634       ?QueryInterface@CRegObject@ATL@@UEAAJAEBU_GUID@@PEAPEAX@Z 0000000180002634 f i CoinDispenser.obj
 0001:00001634       ?GetClipboardData@?$IOleObjectImpl@VCOPOSCoinDispenser@@@ATL@@UEAAJKPEAPEAUIDataObject@@@Z 0000000180002634 f i CoinDispenser.obj
 0001:00001634       ?GetDataHere@?$IDataObjectImpl@VCOPOSCoinDispenser@@@ATL@@UEAAJPEAUtagFORMATETC@@PEAUtagSTGMEDIUM@@@Z 0000000180002634 f i CoinDispenser.obj
 0001:00001634       ?SOOutputCompleteDummy@COPOSCoinDispenser@@MEAAJJ@Z 0000000180002634 f i CoinDispenser.obj
 0001:00001634       ?ContextSensitiveHelp@?$IOleInPlaceObjectWindowlessImpl@VCOPOSCoinDispenser@@@ATL@@UEAAJH@Z 0000000180002634 f i CoinDispenser.obj
 0001:00001634       ?SODataDummy@COPOSCoinDispenser@@MEAAJJ@Z 0000000180002634 f i CoinDispenser.obj
 0001:00001634       ?GetColorSet@?$IViewObjectExImpl@VCOPOSCoinDispenser@@@ATL@@UEAAJKJPEAXPEAUtagDVTARGETDEVICE@@PEAUHDC__@@PEAPEAUtagLOGPALETTE@@@Z 0000000180002634 f i CoinDispenser.obj
 0001:00001634       ?GetCanonicalFormatEtc@?$IDataObjectImpl@VCOPOSCoinDispenser@@@ATL@@UEAAJPEAUtagFORMATETC@@0@Z 0000000180002634 f i CoinDispenser.obj
 0001:00001634       ?Unfreeze@?$IViewObjectExImpl@VCOPOSCoinDispenser@@@ATL@@UEAAJK@Z 0000000180002634 f i CoinDispenser.obj
 0001:00001634       ?Freeze@?$IViewObjectExImpl@VCOPOSCoinDispenser@@@ATL@@UEAAJKJPEAXPEAK@Z 0000000180002634 f i CoinDispenser.obj
 0001:00001634       ?SetData@?$IDataObjectImpl@VCOPOSCoinDispenser@@@ATL@@UEAAJPEAUtagFORMATETC@@PEAUtagSTGMEDIUM@@H@Z 0000000180002634 f i CoinDispenser.obj
 0001:00001634       ?EnumFormatEtc@?$IDataObjectImpl@VCOPOSCoinDispenser@@@ATL@@UEAAJKPEAPEAUIEnumFORMATETC@@@Z 0000000180002634 f i CoinDispenser.obj
 0001:00001634       ?OnMnemonic@?$IOleControlImpl@VCOPOSCoinDispenser@@@ATL@@UEAAJPEAUtagMSG@@@Z 0000000180002634 f i CoinDispenser.obj
 0001:0000163c       ?SetClientSite@?$IOleObjectImpl@VCOPOSCoinDispenser@@@ATL@@UEAAJPEAUIOleClientSite@@@Z 000000018000263c f i CoinDispenser.obj
 0001:00001658       ?GetClientSite@?$IOleObjectImpl@VCOPOSCoinDispenser@@@ATL@@UEAAJPEAPEAUIOleClientSite@@@Z 0000000180002658 f i CoinDispenser.obj
 0001:000016a0       ?Close@?$IOleObjectImpl@VCOPOSCoinDispenser@@@ATL@@UEAAJK@Z 00000001800026a0 f i CoinDispenser.obj
 0001:000016bc       ?DoVerb@?$IOleObjectImpl@VCOPOSCoinDispenser@@@ATL@@UEAAJJPEAUtagMSG@@PEAUIOleClientSite@@JPEAUHWND__@@PEBUtagRECT@@@Z 00000001800026bc f i CoinDispenser.obj
 0001:00001860       ?EnumVerbs@?$IOleObjectImpl@VCOPOSCoinDispenser@@@ATL@@UEAAJPEAPEAUIEnumOLEVERB@@@Z 0000000180002860 f i CoinDispenser.obj
 0001:0000187c       ?GetUserType@?$IOleObjectImpl@VCOPOSCoinDispenser@@@ATL@@UEAAJKPEAPEA_W@Z 000000018000287c f i CoinDispenser.obj
 0001:0000188c       ?SetExtent@?$IOleObjectImpl@VCOPOSCoinDispenser@@@ATL@@UEAAJKPEAUtagSIZE@@@Z 000000018000288c f i CoinDispenser.obj
 0001:000018a8       ?GetExtent@?$IOleObjectImpl@VCOPOSCoinDispenser@@@ATL@@UEAAJKPEAUtagSIZE@@@Z 00000001800028a8 f i CoinDispenser.obj
 0001:000018d8       ?Advise@?$IOleObjectImpl@VCOPOSCoinDispenser@@@ATL@@UEAAJPEAUIAdviseSink@@PEAK@Z 00000001800028d8 f i CoinDispenser.obj
 0001:00001934       ?Unadvise@?$IOleObjectImpl@VCOPOSCoinDispenser@@@ATL@@UEAAJK@Z 0000000180002934 f i CoinDispenser.obj
 0001:0000196c       ?EnumAdvise@?$IOleObjectImpl@VCOPOSCoinDispenser@@@ATL@@UEAAJPEAPEAUIEnumSTATDATA@@@Z 000000018000296c f i CoinDispenser.obj
 0001:000019b4       ?GetMiscStatus@?$IOleObjectImpl@VCOPOSCoinDispenser@@@ATL@@UEAAJKPEAK@Z 00000001800029b4 f i CoinDispenser.obj
 0001:000019c4       ?GetWindow@?$IOleInPlaceActiveObjectImpl@VCOPOSCoinDispenser@@@ATL@@UEAAJPEAPEAUHWND__@@@Z 00000001800029c4 f i CoinDispenser.obj
 0001:00001a18       ?TranslateAcceleratorW@?$IOleInPlaceActiveObjectImpl@VCOPOSCoinDispenser@@@ATL@@UEAAJPEAUtagMSG@@@Z 0000000180002a18 f i CoinDispenser.obj
 0001:00001b0c       ?OnDocWindowActivate@?$IOleInPlaceActiveObjectImpl@VCOPOSCoinDispenser@@@ATL@@UEAAJH@Z 0000000180002b0c f i CoinDispenser.obj
 0001:00001b38       ?Draw@?$IViewObjectExImpl@VCOPOSCoinDispenser@@@ATL@@UEAAJKJPEAXPEAUtagDVTARGETDEVICE@@PEAUHDC__@@2PEBU_RECTL@@3P6AH_K@Z4@Z 0000000180002b38 f i CoinDispenser.obj
 0001:00001b9c       ?SetAdvise@?$IViewObjectExImpl@VCOPOSCoinDispenser@@@ATL@@UEAAJKKPEAUIAdviseSink@@@Z 0000000180002b9c f i CoinDispenser.obj
 0001:00001bf0       ?GetAdvise@?$IViewObjectExImpl@VCOPOSCoinDispenser@@@ATL@@UEAAJPEAK0PEAPEAUIAdviseSink@@@Z 0000000180002bf0 f i CoinDispenser.obj
 0001:00001c2c       ?GetExtent@?$IViewObjectExImpl@VCOPOSCoinDispenser@@@ATL@@UEAAJKJPEAUtagDVTARGETDEVICE@@PEAUtagSIZE@@@Z 0000000180002c2c f i CoinDispenser.obj
 0001:00001c5c       ?GetViewStatus@?$IViewObjectExImpl@VCOPOSCoinDispenser@@@ATL@@UEAAJPEAK@Z 0000000180002c5c f i CoinDispenser.obj
 0001:00001c70       ?QueryHitPoint@?$IViewObjectExImpl@VCOPOSCoinDispenser@@@ATL@@UEAAJKPEBUtagRECT@@UtagPOINT@@JPEAK@Z 0000000180002c70 f i CoinDispenser.obj
 0001:00001cb4       ?QueryHitRect@?$IViewObjectExImpl@VCOPOSCoinDispenser@@@ATL@@UEAAJKPEBUtagRECT@@0JPEAK@Z 0000000180002cb4 f i CoinDispenser.obj
 0001:00001d1c       ?GetNaturalExtent@?$IViewObjectExImpl@VCOPOSCoinDispenser@@@ATL@@UEAAJKJPEAUtagDVTARGETDEVICE@@PEAUHDC__@@PEAUtagExtentInfo@@PEAUtagSIZE@@@Z 0000000180002d1c f i CoinDispenser.obj
 0001:00001d64       ?GetWindow@?$IOleInPlaceObjectWindowlessImpl@VCOPOSCoinDispenser@@@ATL@@UEAAJPEAPEAUHWND__@@@Z 0000000180002d64 f i CoinDispenser.obj
 0001:00001db8       ?InPlaceDeactivate@?$IOleInPlaceObjectWindowlessImpl@VCOPOSCoinDispenser@@@ATL@@UEAAJXZ 0000000180002db8 f i CoinDispenser.obj
 0001:00001dd4       ?UIDeactivate@?$IOleInPlaceObjectWindowlessImpl@VCOPOSCoinDispenser@@@ATL@@UEAAJXZ 0000000180002dd4 f i CoinDispenser.obj
 0001:00001df0       ?SetObjectRects@?$IOleInPlaceObjectWindowlessImpl@VCOPOSCoinDispenser@@@ATL@@UEAAJPEBUtagRECT@@0@Z 0000000180002df0 f i CoinDispenser.obj
 0001:00001e0c       ?OnWindowMessage@?$IOleInPlaceObjectWindowlessImpl@VCOPOSCoinDispenser@@@ATL@@UEAAJI_K_JPEA_J@Z 0000000180002e0c f i CoinDispenser.obj
 0001:00001ed4       ?EnumConnectionPoints@?$IConnectionPointContainerImpl@VCOPOSCoinDispenser@@@ATL@@UEAAJPEAPEAUIEnumConnectionPoints@@@Z 0000000180002ed4 f i CoinDispenser.obj
 0001:0000211c       ?FindConnectionPoint@?$IConnectionPointContainerImpl@VCOPOSCoinDispenser@@@ATL@@UEAAJAEBU_GUID@@PEAPEAUIConnectionPoint@@@Z 000000018000311c f i CoinDispenser.obj
 0001:000021ec       ?IsDirty@?$IPersistStorageImpl@VCOPOSCoinDispenser@@@ATL@@UEAAJXZ 00000001800031ec f i CoinDispenser.obj
 0001:0000222c       ?InitNew@?$IPersistStorageImpl@VCOPOSCoinDispenser@@@ATL@@UEAAJPEAUIStorage@@@Z 000000018000322c f i CoinDispenser.obj
 0001:0000226c       ?Load@?$IPersistStorageImpl@VCOPOSCoinDispenser@@@ATL@@UEAAJPEAUIStorage@@@Z 000000018000326c f i CoinDispenser.obj
 0001:0000230c       ?Save@?$IPersistStorageImpl@VCOPOSCoinDispenser@@@ATL@@UEAAJPEAUIStorage@@H@Z 000000018000330c f i CoinDispenser.obj
 0001:000023bc       ?GetPages@?$ISpecifyPropertyPagesImpl@VCOPOSCoinDispenser@@@ATL@@UEAAJPEAUtagCAUUID@@@Z 00000001800033bc f i CoinDispenser.obj
 0001:000023c8       ?QuickActivate@?$IQuickActivateImpl@VCOPOSCoinDispenser@@@ATL@@UEAAJPEAUtagQACONTAINER@@PEAUtagQACONTROL@@@Z 00000001800033c8 f i CoinDispenser.obj
 0001:000023e4       ?SetContentExtent@?$IQuickActivateImpl@VCOPOSCoinDispenser@@@ATL@@UEAAJPEAUtagSIZE@@@Z 00000001800033e4 f i CoinDispenser.obj
 0001:00002418       ?GetContentExtent@?$IQuickActivateImpl@VCOPOSCoinDispenser@@@ATL@@UEAAJPEAUtagSIZE@@@Z 0000000180003418 f i CoinDispenser.obj
 0001:00002450       ?GetData@?$IDataObjectImpl@VCOPOSCoinDispenser@@@ATL@@UEAAJPEAUtagFORMATETC@@PEAUtagSTGMEDIUM@@@Z 0000000180003450 f i CoinDispenser.obj
 0001:0000246c       ?DAdvise@?$IDataObjectImpl@VCOPOSCoinDispenser@@@ATL@@UEAAJPEAUtagFORMATETC@@KPEAUIAdviseSink@@PEAK@Z 000000018000346c f i CoinDispenser.obj
 0001:000024f4       ?DUnadvise@?$IDataObjectImpl@VCOPOSCoinDispenser@@@ATL@@UEAAJK@Z 00000001800034f4 f i CoinDispenser.obj
 0001:00002520       ?EnumDAdvise@?$IDataObjectImpl@VCOPOSCoinDispenser@@@ATL@@UEAAJPEAPEAUIEnumSTATDATA@@@Z 0000000180003520 f i CoinDispenser.obj
 0001:0000255c       ?GetClassInfoW@?$IProvideClassInfo2Impl@$1?CLSID_OPOSCoinDispenser@@3U_GUID@@B$1?DIID__IOPOSCoinDispenserEvents@@3U2@B$1?LIBID_OposCoinDispenser_CCO@@3U2@B$00$0A@VCComTypeInfoHolder@ATL@@@ATL@@UEAAJPEAPEAUITypeInfo@@@Z 000000018000355c f i CoinDispenser.obj
 0001:000025b4       ?GetGUID@?$IProvideClassInfo2Impl@$1?CLSID_OPOSCoinDispenser@@3U_GUID@@B$1?DIID__IOPOSCoinDispenserEvents@@3U2@B$1?LIBID_OposCoinDispenser_CCO@@3U2@B$00$0A@VCComTypeInfoHolder@ATL@@@ATL@@UEAAJKPEAU_GUID@@@Z 00000001800035b4 f i CoinDispenser.obj
 0001:000025e8       ?AddRef@CRegObject@ATL@@UEAAKXZ 00000001800035e8 f i CoinDispenser.obj
 0001:000025e8       ?FAccessAllowed@?$IObjectSafetyImpl@VCOPOSCoinDispenser@@$02@ATL@@MEAAHXZ 00000001800035e8 f i CoinDispenser.obj
 0001:000025e8       _get_startup_argv_mode     00000001800035e8 f i LIBCMT:argv_mode.obj
 0001:000025f0       ?GetInterfaceSafetyOptions@?$IObjectSafetyImpl@VCOPOSCoinDispenser@@$02@ATL@@UEAAJAEBU_GUID@@PEAK1@Z 00000001800035f0 f i CoinDispenser.obj
 0001:00002684       ?SetInterfaceSafetyOptions@?$IObjectSafetyImpl@VCOPOSCoinDispenser@@$02@ATL@@UEAAJAEBU_GUID@@KK@Z 0000000180003684 f i CoinDispenser.obj
 0001:00002728       ?_LocCPQueryInterface@?$IConnectionPointImpl@VCOPOSCoinDispenser@@$1?DIID__IOPOSCoinDispenserEvents@@3U_GUID@@BVCComDynamicUnkArray@ATL@@@ATL@@UEAAJAEBU_GUID@@PEAPEAX@Z 0000000180003728 f i CoinDispenser.obj
 0001:00002728       ?_LocCPQueryInterface@?$IConnectionPointImpl@VCOPOSCoinDispenser@@$1?IID_IPropertyNotifySink@@3U_GUID@@BVCComDynamicUnkArray@ATL@@@ATL@@UEAAJAEBU_GUID@@PEAPEAX@Z 0000000180003728 f i CoinDispenser.obj
 0001:0000279c       ?GetConnectionInterface@?$IConnectionPointImpl@VCOPOSCoinDispenser@@$1?IID_IPropertyNotifySink@@3U_GUID@@BVCComDynamicUnkArray@ATL@@@ATL@@UEAAJPEAU_GUID@@@Z 000000018000379c f i CoinDispenser.obj
 0001:000027b8       ?GetConnectionPointContainer@?$IConnectionPointImpl@VCOPOSCoinDispenser@@$1?IID_IPropertyNotifySink@@3U_GUID@@BVCComDynamicUnkArray@ATL@@@ATL@@UEAAJPEAPEAUIConnectionPointContainer@@@Z 00000001800037b8 f i CoinDispenser.obj
 0001:000027d8       ?Advise@?$IConnectionPointImpl@VCOPOSCoinDispenser@@$1?DIID__IOPOSCoinDispenserEvents@@3U_GUID@@BVCComDynamicUnkArray@ATL@@@ATL@@UEAAJPEAUIUnknown@@PEAK@Z 00000001800037d8 f i CoinDispenser.obj
 0001:000027d8       ?Advise@?$IConnectionPointImpl@VCOPOSCoinDispenser@@$1?IID_IPropertyNotifySink@@3U_GUID@@BVCComDynamicUnkArray@ATL@@@ATL@@UEAAJPEAUIUnknown@@PEAK@Z 00000001800037d8 f i CoinDispenser.obj
 0001:00002894       ?Unadvise@?$IConnectionPointImpl@VCOPOSCoinDispenser@@$1?DIID__IOPOSCoinDispenserEvents@@3U_GUID@@BVCComDynamicUnkArray@ATL@@@ATL@@UEAAJK@Z 0000000180003894 f i CoinDispenser.obj
 0001:00002894       ?Unadvise@?$IConnectionPointImpl@VCOPOSCoinDispenser@@$1?IID_IPropertyNotifySink@@3U_GUID@@BVCComDynamicUnkArray@ATL@@@ATL@@UEAAJK@Z 0000000180003894 f i CoinDispenser.obj
 0001:000028fc       ?EnumConnections@?$IConnectionPointImpl@VCOPOSCoinDispenser@@$1?DIID__IOPOSCoinDispenserEvents@@3U_GUID@@BVCComDynamicUnkArray@ATL@@@ATL@@UEAAJPEAPEAUIEnumConnections@@@Z 00000001800038fc f i CoinDispenser.obj
 0001:000028fc       ?EnumConnections@?$IConnectionPointImpl@VCOPOSCoinDispenser@@$1?IID_IPropertyNotifySink@@3U_GUID@@BVCComDynamicUnkArray@ATL@@@ATL@@UEAAJPEAPEAUIEnumConnections@@@Z 00000001800038fc f i CoinDispenser.obj
 0001:00002a90       ?GetConnectionInterface@?$IConnectionPointImpl@VCOPOSCoinDispenser@@$1?DIID__IOPOSCoinDispenserEvents@@3U_GUID@@BVCComDynamicUnkArray@ATL@@@ATL@@UEAAJPEAU_GUID@@@Z 0000000180003a90 f i CoinDispenser.obj
 0001:00002aac       ?GetConnectionPointContainer@?$IConnectionPointImpl@VCOPOSCoinDispenser@@$1?DIID__IOPOSCoinDispenserEvents@@3U_GUID@@BVCComDynamicUnkArray@ATL@@@ATL@@UEAAJPEAPEAUIConnectionPointContainer@@@Z 0000000180003aac f i CoinDispenser.obj
 0001:00002acc       ?Lock@CAtlModule@ATL@@UEAAJXZ 0000000180003acc f i CoinDispenser.obj
 0001:00002adc       ?Unlock@CAtlModule@ATL@@UEAAJXZ 0000000180003adc f i CoinDispenser.obj
 0001:00002ae8       ?GetLockCount@CAtlModule@ATL@@UEAAJXZ 0000000180003ae8 f i CoinDispenser.obj
 0001:00002aec       ?GetGITPtr@CAtlModule@ATL@@UEAAJPEAPEAUIGlobalInterfaceTable@@@Z 0000000180003aec f i CoinDispenser.obj
 0001:00002b5c       ?UpdateRegistry@COPOSCoinDispenser@@SAJH@Z 0000000180003b5c f i CoinDispenser.obj
 0001:00002b74       ?ProcessWindowMessage@COPOSCoinDispenser@@UEAAHPEAUHWND__@@I_K_JAEA_JK@Z 0000000180003b74 f i CoinDispenser.obj
 0001:00002c04       ?SODirectIO@COPOSCoinDispenser@@MEAAJJPEAJPEAPEA_W@Z 0000000180003c04 f i CoinDispenser.obj
 0001:00002c7c       ?SOStatusUpdate@COPOSCoinDispenser@@MEAAJJ@Z 0000000180003c7c f i CoinDispenser.obj
 0001:00002ccc       ?AddCommonRGSReplacements@?$CAtlModuleT@VCComModule@ATL@@@ATL@@UEAAJPEAUIRegistrarBase@@@Z 0000000180003ccc f i CoinDispenser.obj
 0001:00002ce4       ?UpdateRegistryFromResourceD@CComModule@ATL@@UEAAJIHPEAU_ATL_REGMAP_ENTRY@2@@Z 0000000180003ce4 f i CoinDispenser.obj
 0001:00002ce4       ?UpdateRegistryFromResourceD@CComModule@ATL@@UEAAJPEB_WHPEAU_ATL_REGMAP_ENTRY@2@@Z 0000000180003ce4 f i CoinDispenser.obj
 0001:00002cec       ?UpdateRegistryFromResource@CComModule@ATL@@UEAAJPEB_WHPEAU_ATL_REGMAP_ENTRY@2@@Z 0000000180003cec f i CoinDispenser.obj
 0001:00002cf4       ?UpdateRegistryFromResource@CComModule@ATL@@UEAAJIHPEAU_ATL_REGMAP_ENTRY@2@@Z 0000000180003cf4 f i CoinDispenser.obj
 0001:00002cfc       ??_ECComModule@ATL@@UEAAPEAXI@Z 0000000180003cfc f i CoinDispenser.obj
 0001:00002cfc       ??_GCComModule@ATL@@UEAAPEAXI@Z 0000000180003cfc f i CoinDispenser.obj
 0001:00002d3c       ?CreateInstance@?$CComCreator@V?$CComObjectCached@VCComClassFactory@ATL@@@ATL@@@ATL@@SAJPEAXAEBU_GUID@@PEAPEAX@Z 0000000180003d3c f i CoinDispenser.obj
 0001:00002e60       ?CreateInstance@?$CComCreator2@V?$CComCreator@V?$CComObject@VCOPOSCoinDispenser@@@ATL@@@ATL@@V?$CComCreator@V?$CComAggObject@VCOPOSCoinDispenser@@@ATL@@@2@@ATL@@SAJPEAXAEBU_GUID@@PEAPEAX@Z 0000000180003e60 f i CoinDispenser.obj
 0001:00002e70       ?AddRef@?$CComObjectCached@VCComClassFactory@ATL@@@ATL@@UEAAKXZ 0000000180003e70 f i CoinDispenser.obj
 0001:00002e9c       ?Release@?$CComObjectCached@VCComClassFactory@ATL@@@ATL@@UEAAKXZ 0000000180003e9c f i CoinDispenser.obj
 0001:00002edc       ?QueryInterface@?$CComObjectCached@VCComClassFactory@ATL@@@ATL@@UEAAJAEBU_GUID@@PEAPEAX@Z 0000000180003edc f i CoinDispenser.obj
 0001:00002ef0       ??_E?$CComObjectCached@VCComClassFactory@ATL@@@ATL@@UEAAPEAXI@Z 0000000180003ef0 f i CoinDispenser.obj
 0001:00002ef0       ??_G?$CComObjectCached@VCComClassFactory@ATL@@@ATL@@UEAAPEAXI@Z 0000000180003ef0 f i CoinDispenser.obj
 0001:00002f48       ?Next@?$CComEnumImpl@UIEnumConnectionPoints@@$1?_GUID_b196b285_bab4_101a_b69c_00aa00341d07@@3U__s_GUID@@BPEAUIConnectionPoint@@V?$_CopyInterface@UIConnectionPoint@@@ATL@@@ATL@@UEAAJKPEAPEAUIConnectionPoint@@PEAK@Z 0000000180003f48 f i CoinDispenser.obj
 0001:0000300c       ?Skip@?$CComEnumImpl@UIEnumConnectionPoints@@$1?_GUID_b196b285_bab4_101a_b69c_00aa00341d07@@3U__s_GUID@@BPEAUIConnectionPoint@@V?$_CopyInterface@UIConnectionPoint@@@ATL@@@ATL@@UEAAJK@Z 000000018000400c f i CoinDispenser.obj
 0001:00003038       ?Clone@?$CComEnumImpl@UIEnumConnectionPoints@@$1?_GUID_b196b285_bab4_101a_b69c_00aa00341d07@@3U__s_GUID@@BPEAUIConnectionPoint@@V?$_CopyInterface@UIConnectionPoint@@@ATL@@@ATL@@UEAAJPEAPEAUIEnumConnectionPoints@@@Z 0000000180004038 f i CoinDispenser.obj
 0001:00003164       ?QueryInterface@?$CComObject@V?$CComEnum@UIEnumConnectionPoints@@$1?_GUID_b196b285_bab4_101a_b69c_00aa00341d07@@3U__s_GUID@@BPEAUIConnectionPoint@@V?$_CopyInterface@UIConnectionPoint@@@ATL@@VCComSingleThreadModel@6@@ATL@@@ATL@@UEAAJAEBU_GUID@@PEAPEAX@Z 0000000180004164 f i CoinDispenser.obj
 0001:00003178       ??_G?$CComObject@V?$CComEnum@UIEnumConnectionPoints@@$1?_GUID_b196b285_bab4_101a_b69c_00aa00341d07@@3U__s_GUID@@BPEAUIConnectionPoint@@V?$_CopyInterface@UIConnectionPoint@@@ATL@@VCComSingleThreadModel@6@@ATL@@@ATL@@UEAAPEAXI@Z 0000000180004178 f i CoinDispenser.obj
 0001:00003178       ??_E?$CComObject@V?$CComEnum@UIEnumConnectionPoints@@$1?_GUID_b196b285_bab4_101a_b69c_00aa00341d07@@3U__s_GUID@@BPEAUIConnectionPoint@@V?$_CopyInterface@UIConnectionPoint@@@ATL@@VCComSingleThreadModel@6@@ATL@@@ATL@@UEAAPEAXI@Z 0000000180004178 f i CoinDispenser.obj
 0001:000031d0       ?AddReplacement@CRegObject@ATL@@UEAAJPEB_W0@Z 00000001800041d0 f i CoinDispenser.obj
 0001:00003200       ?ClearReplacements@CRegObject@ATL@@UEAAJXZ 0000000180004200 f i CoinDispenser.obj
 0001:0000320c       ??_GCRegObject@ATL@@UEAAPEAXI@Z 000000018000420c f i CoinDispenser.obj
 0001:0000320c       ??_ECRegObject@ATL@@UEAAPEAXI@Z 000000018000420c f i CoinDispenser.obj
 0001:0000328c       ?AddRef@?$CComAggObject@VCOPOSCoinDispenser@@@ATL@@UEAAKXZ 000000018000428c f i CoinDispenser.obj
 0001:00003298       ?Release@?$CComAggObject@VCOPOSCoinDispenser@@@ATL@@UEAAKXZ 0000000180004298 f i CoinDispenser.obj
 0001:000032ec       ?QueryInterface@?$CComAggObject@VCOPOSCoinDispenser@@@ATL@@UEAAJAEBU_GUID@@PEAPEAX@Z 00000001800042ec f i CoinDispenser.obj
 0001:0000334c       ?AddRef@?$CComContainedObject@VCOPOSCoinDispenser@@@ATL@@UEAAKXZ 000000018000434c f i CoinDispenser.obj
 0001:0000335c       ?Release@?$CComContainedObject@VCOPOSCoinDispenser@@@ATL@@UEAAKXZ 000000018000435c f i CoinDispenser.obj
 0001:0000336c       ?QueryInterface@?$CComContainedObject@VCOPOSCoinDispenser@@@ATL@@UEAAJAEBU_GUID@@PEAPEAX@Z 000000018000436c f i CoinDispenser.obj
 0001:0000337c       ??_G?$CComAggObject@VCOPOSCoinDispenser@@@ATL@@UEAAPEAXI@Z 000000018000437c f i CoinDispenser.obj
 0001:0000337c       ??_E?$CComAggObject@VCOPOSCoinDispenser@@@ATL@@UEAAPEAXI@Z 000000018000437c f i CoinDispenser.obj
 0001:000033d4       ?AddRef@?$CComObject@VCOPOSCoinDispenser@@@ATL@@UEAAKXZ 00000001800043d4 f i CoinDispenser.obj
 0001:000033e4       ?Release@?$CComObject@VCOPOSCoinDispenser@@@ATL@@UEAAKXZ 00000001800043e4 f i CoinDispenser.obj
 0001:0000343c       ?QueryInterface@?$CComObject@VCOPOSCoinDispenser@@@ATL@@UEAAJAEBU_GUID@@PEAPEAX@Z 000000018000443c f i CoinDispenser.obj
 0001:00003450       ?OnDrawAdvanced@CComControlBase@ATL@@UEAAJAEAUATL_DRAWINFO@@@Z 0000000180004450 f i CoinDispenser.obj
 0001:000035dc       ??$AtlModuleRegisterWndClassInfoT@VAtlModuleRegisterWndClassInfoParamW@ATL@@@ATL@@YAGPEAU_ATL_BASE_MODULE70@0@PEAU_ATL_WIN_MODULE70@0@PEAU_ATL_WNDCLASSINFOW@0@PEAP6A_JPEAUHWND__@@I_K_J@ZVAtlModuleRegisterWndClassInfoParamW@0@@Z 00000001800045dc f i CoinDispenser.obj
 0001:000037dc       ??0?$CComContainedObject@VCOPOSCoinDispenser@@@ATL@@QEAA@PEAX@Z 00000001800047dc f i CoinDispenser.obj
 0001:000038f8       ??0?$CComObject@VCOPOSCoinDispenser@@@ATL@@QEAA@PEAX@Z 00000001800048f8 f i CoinDispenser.obj
 0001:00003a10       ??0CAtlModule@ATL@@QEAA@XZ 0000000180004a10 f i CoinDispenser.obj
 0001:00003a84       ??1?$CComEnumImpl@UIEnumConnectionPoints@@$1?_GUID_b196b285_bab4_101a_b69c_00aa00341d07@@3U__s_GUID@@BPEAUIConnectionPoint@@V?$_CopyInterface@UIConnectionPoint@@@ATL@@@ATL@@UEAA@XZ 0000000180004a84 f i CoinDispenser.obj
 0001:00003adc       ??1?$CComEnumImpl@UIEnumConnections@@$1?_GUID_b196b287_bab4_101a_b69c_00aa00341d07@@3U__s_GUID@@BUtagCONNECTDATA@@V?$_Copy@UtagCONNECTDATA@@@ATL@@@ATL@@UEAA@XZ 0000000180004adc f i CoinDispenser.obj
 0001:00003b34       ??1?$CComObject@VCOPOSCoinDispenser@@@ATL@@UEAA@XZ 0000000180004b34 f i CoinDispenser.obj
 0001:00003c54       ??_E?$CComContainedObject@VCOPOSCoinDispenser@@@ATL@@UEAAPEAXI@Z 0000000180004c54 f i CoinDispenser.obj
 0001:00003c54       ??_G?$CComContainedObject@VCOPOSCoinDispenser@@@ATL@@UEAAPEAXI@Z 0000000180004c54 f i CoinDispenser.obj
 0001:00003c88       ??_E?$CComObject@VCOPOSCoinDispenser@@@ATL@@UEAAPEAXI@Z 0000000180004c88 f i CoinDispenser.obj
 0001:00003c88       ??_G?$CComObject@VCOPOSCoinDispenser@@@ATL@@UEAAPEAXI@Z 0000000180004c88 f i CoinDispenser.obj
 0001:00003cbc       ?Add@?$CSimpleArray@GV?$CSimpleArrayEqualHelper@G@ATL@@@ATL@@QEAAHAEBG@Z 0000000180004cbc f i CoinDispenser.obj
 0001:00003d5c       ?Add@?$CSimpleMap@PEA_WPEA_WVCExpansionVectorEqualHelper@ATL@@@ATL@@QEAAHAEBQEA_W0@Z 0000000180004d5c f i CoinDispenser.obj
 0001:00003df8       ?Add@CComDynamicUnkArray@ATL@@QEAAKPEAUIUnknown@@@Z 0000000180004df8 f i CoinDispenser.obj
 0001:00003edc       ?Add@CExpansionVector@ATL@@QEAAHPEB_W0@Z 0000000180004edc f i CoinDispenser.obj
 0001:00004010       ?AddTermFunc@CAtlModule@ATL@@QEAAJP6AX_K@Z0@Z 0000000180005010 f i CoinDispenser.obj
 0001:000040ac       ?AddValue@CRegParser@ATL@@IEAAJAEAVCRegKey@2@PEB_WPEA_W@Z 00000001800050ac f i CoinDispenser.obj
 0001:000044bc       ?AllocateHeap@?$CTempBuffer@_W$0EAA@VCCRTAllocator@ATL@@@ATL@@AEAAX_K@Z 00000001800054bc f i CoinDispenser.obj
 0001:000044bc       ?AllocateHeap@?$CTempBuffer@_W$0BAA@VCCRTAllocator@ATL@@@ATL@@AEAAX_K@Z 00000001800054bc f i CoinDispenser.obj
 0001:000044bc       ?AllocateHeap@?$CTempBuffer@E$0BAA@VCCRTAllocator@ATL@@@ATL@@AEAAX_K@Z 00000001800054bc f i CoinDispenser.obj
 0001:000044e8       ?Append@CParseBuffer@CRegParser@ATL@@QEAAHPEB_WH@Z 00000001800054e8 f i CoinDispenser.obj
 0001:0000461c       ?AtlComModuleGetClassObject@ATL@@YAJPEAU_ATL_COM_MODULE70@1@AEBU_GUID@@1PEAPEAX@Z 000000018000561c f i CoinDispenser.obj
 0001:00004758       ?AtlComModuleRegisterServer@ATL@@YAJPEAU_ATL_COM_MODULE70@1@HPEBU_GUID@@@Z 0000000180005758 f i CoinDispenser.obj
 0001:00004818       ?AtlComModuleUnregisterServer@ATL@@YAJPEAU_ATL_COM_MODULE70@1@HPEBU_GUID@@@Z 0000000180005818 f i CoinDispenser.obj
 0001:000048d4       ?AtlHiMetricToPixel@ATL@@YAXPEBUtagSIZE@@PEAU2@@Z 00000001800058d4 f i CoinDispenser.obj
 0001:00004984       ?AtlHresultFromLastError@ATL@@YAJXZ 0000000180005984 f i CoinDispenser.obj
 0001:000049a4       ?AtlHresultFromWin32@ATL@@YAJK@Z 00000001800059a4 f i CoinDispenser.obj
 0001:000049b4       ?AtlInternalOleLoadFromStream@ATL@@YAJPEAUIStream@@AEBU_GUID@@PEAPEAXTClassesAllowedInStream@1@K@Z 00000001800059b4 f i CoinDispenser.obj
 0001:00004b04       ?AtlInternalQueryInterface@ATL@@YAJPEAXPEBU_ATL_INTMAP_ENTRY@1@AEBU_GUID@@PEAPEAX@Z 0000000180005b04 f i CoinDispenser.obj
 0001:00004c0c       ?AtlLoadTypeLib@ATL@@YAJPEAUHINSTANCE__@@PEB_WPEAPEA_WPEAPEAUITypeLib@@@Z 0000000180005c0c f i CoinDispenser.obj
 0001:00004e68       ?AtlRegisterClassCategoriesHelper@ATL@@YAJAEBU_GUID@@PEBU_ATL_CATMAP_ENTRY@1@H@Z 0000000180005e68 f i CoinDispenser.obj
 0001:000052ec       ?AtlRegisterTypeLib@ATL@@YAJPEAUHINSTANCE__@@PEB_W@Z 00000001800062ec f i CoinDispenser.obj
 0001:000054e8       ?AtlThrowImpl@ATL@@YAXJ@Z  00000001800064e8 f i CoinDispenser.obj
 0001:0000550c       ?AtlUnRegisterTypeLib@ATL@@YAJPEAUHINSTANCE__@@PEB_W@Z 000000018000650c f i CoinDispenser.obj
 0001:000055d4       ?AtlWinModuleExtractCreateWndData@ATL@@YAPEAXPEAU_ATL_WIN_MODULE70@1@@Z 00000001800065d4 f i CoinDispenser.obj
 0001:00005660       ?ChToByte@CRegParser@ATL@@KAE_W@Z 0000000180006660 f i CoinDispenser.obj
 0001:000056ec       ?Cleanup@CComTypeInfoHolder@ATL@@SAX_K@Z 00000001800066ec f i CoinDispenser.obj
 0001:0000572c       ?ClearReplacements@CExpansionVector@ATL@@QEAAJXZ 000000018000672c f i CoinDispenser.obj
 0001:000057c8       ?CreateInstance@?$CComCreator@V?$CComAggObject@VCOPOSCoinDispenser@@@ATL@@@ATL@@SAJPEAXAEBU_GUID@@PEAPEAX@Z 00000001800067c8 f i CoinDispenser.obj
 0001:000058ac       ?CreateInstance@?$CComCreator@V?$CComObject@VCOPOSCoinDispenser@@@ATL@@@ATL@@SAJPEAXAEBU_GUID@@PEAPEAX@Z 00000001800068ac f i CoinDispenser.obj
 0001:0000596c       ?CreateInstance@?$CComObject@V?$CComEnum@UIEnumConnectionPoints@@$1?_GUID_b196b285_bab4_101a_b69c_00aa00341d07@@3U__s_GUID@@BPEAUIConnectionPoint@@V?$_CopyInterface@UIConnectionPoint@@@ATL@@VCComSingleThreadModel@6@@ATL@@@ATL@@SAJPEAPEAV12@@Z 000000018000696c f i CoinDispenser.obj
 0001:000059fc       ?CreateInstance@?$CComObject@V?$CComEnum@UIEnumConnections@@$1?_GUID_b196b287_bab4_101a_b69c_00aa00341d07@@3U__s_GUID@@BUtagCONNECTDATA@@V?$_Copy@UtagCONNECTDATA@@@ATL@@VCComSingleThreadModel@6@@ATL@@@ATL@@SAJPEAPEAV12@@Z 00000001800069fc f i CoinDispenser.obj
 0001:00005a8c       ?DefaultReflectionHandler@?$CWindowImplRoot@VCWindow@ATL@@@ATL@@SAHPEAUHWND__@@I_K_JAEA_J@Z 0000000180006a8c f i CoinDispenser.obj
 0001:00005b20       ?DeleteSubKey@CRegKey@ATL@@QEAAJPEB_W@Z 0000000180006b20 f i CoinDispenser.obj
 0001:00005bb8       ?DoEvent@COPOSCoinDispenser@@IEAAXI_K_J@Z 0000000180006bb8 f i CoinDispenser.obj
 0001:00005c6c       ?DoVerbPrimary@?$IOleObjectImpl@VCOPOSCoinDispenser@@@ATL@@QEAAJPEBUtagRECT@@PEAUHWND__@@@Z 0000000180006c6c f i CoinDispenser.obj
 0001:00005d98       ?DoVerbProperties@CComControlBase@ATL@@QEAAJPEBUtagRECT@@PEAUHWND__@@@Z 0000000180006d98 f i CoinDispenser.obj
 0001:00005fc0       ?FireTheEvent@?$CProxy_IOPOSEvents@VCOPOSCoinDispenser@@@@IEAAXPEAVOposVariant@@IAEAJPEB_WJ@Z 0000000180006fc0 f i CoinDispenser.obj
 0001:000060ac       ?FireViewChange@CComControlBase@ATL@@QEAAJXZ 00000001800070ac f i CoinDispenser.obj
 0001:00006110       ?Fire_DirectIOEvent@?$CProxy_IOPOSEvents@VCOPOSCoinDispenser@@@@QEAAXJPEAJPEAPEA_W@Z 0000000180007110 f i CoinDispenser.obj
 0001:00006270       ?Fire_StatusUpdateEvent@?$CProxy_IOPOSEvents@VCOPOSCoinDispenser@@@@QEAAXJ@Z 0000000180007270 f i CoinDispenser.obj
 0001:0000635c       ?FreeHeap@?$CTempBuffer@_W$0BAA@VCCRTAllocator@ATL@@@ATL@@AEAAXXZ 000000018000735c f i CoinDispenser.obj
 0001:0000635c       ?FreeHeap@?$CTempBuffer@E$0BAA@VCCRTAllocator@ATL@@@ATL@@AEAAXXZ 000000018000735c f i CoinDispenser.obj
 0001:0000635c       ?FreeHeap@?$CTempBuffer@_W$0EAA@VCCRTAllocator@ATL@@@ATL@@AEAAXXZ 000000018000735c f i CoinDispenser.obj
 0001:00006364       ?GetAmbientLocaleID@CComControlBase@ATL@@QEAAJAEAK@Z 0000000180007364 f i CoinDispenser.obj
 0001:00006424       ?GetAmbientUserMode@CComControlBase@ATL@@QEAAJAEAH@Z 0000000180007424 f i CoinDispenser.obj
 0001:000064f4       ?GetClassObject@CComModule@ATL@@QEAAJAEBU_GUID@@0PEAPEAX@Z 00000001800074f4 f i CoinDispenser.obj
 0001:000065e8       ?GetConnMap@COPOSCoinDispenser@@SAPEBU_ATL_CONNMAP_ENTRY@ATL@@PEAH@Z 00000001800075e8 f i CoinDispenser.obj
 0001:00006670       ?GetIDsOfNames@CComTypeInfoHolder@ATL@@QEAAJAEBU_GUID@@PEAPEA_WIKPEAJ@Z 0000000180007670 f i CoinDispenser.obj
 0001:000067e0       ?GetPagesHelper@?$ISpecifyPropertyPagesImpl@VCOPOSCoinDispenser@@@ATL@@IEAAJPEAUtagCAUUID@@PEBUATL_PROPMAP_ENTRY@2@@Z 00000001800077e0 f i CoinDispenser.obj
 0001:00006980       ?GetSizeMax@CComVariant@ATL@@QEBAJPEAT_ULARGE_INTEGER@@@Z 0000000180007980 f i CoinDispenser.obj
 0001:00006bb0       ?GetTI@CComTypeInfoHolder@ATL@@QEAAJK@Z 0000000180007bb0 f i CoinDispenser.obj
 0001:00006e94       ?GetZoomInfo@CComControlBase@ATL@@QEAAXAEAUATL_DRAWINFO@@@Z 0000000180007e94 f i CoinDispenser.obj
 0001:00006f38       ?HKeyFromString@CRegParser@ATL@@KAPEAUHKEY__@@PEA_W@Z 0000000180007f38 f i CoinDispenser.obj
 0001:00006f9c       ?IDataObject_GetData@CComControlBase@ATL@@QEAAJPEAUtagFORMATETC@@PEAUtagSTGMEDIUM@@@Z 0000000180007f9c f i CoinDispenser.obj
 0001:00007190       ?IOleInPlaceObject_InPlaceDeactivate@CComControlBase@ATL@@QEAAJXZ 0000000180008190 f i CoinDispenser.obj
 0001:00007230       ?IOleInPlaceObject_SetObjectRects@CComControlBase@ATL@@QEAAJPEBUtagRECT@@0@Z 0000000180008230 f i CoinDispenser.obj
 0001:00007320       ?IOleInPlaceObject_UIDeactivate@CComControlBase@ATL@@QEAAJXZ 0000000180008320 f i CoinDispenser.obj
 0001:0000742c       ?IOleObject_Close@CComControlBase@ATL@@QEAAJK@Z 000000018000842c f i CoinDispenser.obj
 0001:00007544       ?IOleObject_SetClientSite@CComControlBase@ATL@@QEAAJPEAUIOleClientSite@@@Z 0000000180008544 f i CoinDispenser.obj
 0001:000075b8       ?IOleObject_SetExtent@CComControlBase@ATL@@QEAAJKPEAUtagSIZE@@@Z 00000001800085b8 f i CoinDispenser.obj
 0001:00007650       ?IPSI_GetIPersistStreamInit@?$IPersistStorageImpl@VCOPOSCoinDispenser@@@ATL@@AEAAPEAUIPersistStreamInit@@XZ 0000000180008650 f i CoinDispenser.obj
 0001:00007738       ?IPersistStreamInit_Load@?$IPersistStreamInitImpl@VCOPOSCoinDispenser@@@ATL@@QEAAJPEAUIStream@@PEBUATL_PROPMAP_ENTRY@2@@Z 0000000180008738 f i CoinDispenser.obj
 0001:00007a60       ?IPersistStreamInit_Save@?$IPersistStreamInitImpl@VCOPOSCoinDispenser@@@ATL@@QEAAJPEAUIStream@@HPEBUATL_PROPMAP_ENTRY@2@@Z 0000000180008a60 f i CoinDispenser.obj
 0001:00007cfc       ?IQuickActivate_QuickActivate@CComControlBase@ATL@@QEAAJPEAUtagQACONTAINER@@PEAUtagQACONTROL@@@Z 0000000180008cfc f i CoinDispenser.obj
 0001:00007fc0       ?IViewObject_Draw@CComControlBase@ATL@@QEAAJKJPEAXPEAUtagDVTARGETDEVICE@@PEAUHDC__@@2PEBU_RECTL@@3@Z 0000000180008fc0 f i CoinDispenser.obj
 0001:000080d4       ?InPlaceActivate@CComControlBase@ATL@@QEAAJJPEBUtagRECT@@@Z 00000001800090d4 f i CoinDispenser.obj
 0001:00008404       ?Init@?$CComEnumImpl@UIEnumConnectionPoints@@$1?_GUID_b196b285_bab4_101a_b69c_00aa00341d07@@3U__s_GUID@@BPEAUIConnectionPoint@@V?$_CopyInterface@UIConnectionPoint@@@ATL@@@ATL@@QEAAJPEAPEAUIConnectionPoint@@0PEAUIUnknown@@W4CComEnumFlags@2@@Z 0000000180009404 f i CoinDispenser.obj
 0001:00008520       ?Init@?$CComEnumImpl@UIEnumConnections@@$1?_GUID_b196b287_bab4_101a_b69c_00aa00341d07@@3U__s_GUID@@BUtagCONNECTDATA@@V?$_Copy@UtagCONNECTDATA@@@ATL@@@ATL@@QEAAJPEAUtagCONNECTDATA@@0PEAUIUnknown@@W4CComEnumFlags@2@@Z 0000000180009520 f i CoinDispenser.obj
 0001:00008640       ?IsEqualObject@?$CComPtrBase@UIOleClientSite@@@ATL@@QEAA_NPEAUIUnknown@@@Z 0000000180009640 f i CoinDispenser.obj
 0001:000086cc       ?LoadNameCache@CComTypeInfoHolder@ATL@@QEAAJPEAUITypeInfo@@@Z 00000001800096cc f i CoinDispenser.obj
 0001:0000885c       ?Lookup@?$CSimpleMap@PEA_WPEA_WVCExpansionVectorEqualHelper@ATL@@@ATL@@QEBAPEA_WAEBQEA_W@Z 000000018000985c f i CoinDispenser.obj
 0001:000088e4       ?NextToken@CRegParser@ATL@@IEAAJPEA_W@Z 00000001800098e4 f i CoinDispenser.obj
 0001:00008a80       ?OnKillFocus@CComControlBase@ATL@@QEAA_JI_K_JAEAH@Z 0000000180009a80 f i CoinDispenser.obj
 0001:00008b1c       ?OnMouseActivate@CComControlBase@ATL@@QEAA_JI_K_JAEAH@Z 0000000180009b1c f i CoinDispenser.obj
 0001:00008bbc       ?OnPaint@CComControlBase@ATL@@QEAA_JI_K_JAEAH@Z 0000000180009bbc f i CoinDispenser.obj
 0001:00008ca8       ?OnSetFocus@CComControlBase@ATL@@QEAA_JI_K_JAEAH@Z 0000000180009ca8 f i CoinDispenser.obj
 0001:00008db0       ?PreProcessBuffer@CRegParser@ATL@@QEAAJPEA_WPEAPEA_W@Z 0000000180009db0 f i CoinDispenser.obj
 0001:00009138       ?ProcessWindowMessage@?$CComControl@VCOPOSCoinDispenser@@V?$CWindowImpl@VCOPOSCoinDispenser@@VCWindow@ATL@@V?$CWinTraits@$0FGAAAAAA@$0A@@3@@ATL@@@ATL@@UEAAHPEAUHWND__@@I_K_JAEA_JK@Z 000000018000a138 f i CoinDispenser.obj
 0001:00009224       ?ReadFromStream@CComBSTR@ATL@@QEAAJPEAUIStream@@@Z 000000018000a224 f i CoinDispenser.obj
 0001:00009374       ?ReadFromStream@CComVariant@ATL@@QEAAJPEAUIStream@@GTClassesAllowedInStream@2@K@Z 000000018000a374 f i CoinDispenser.obj
 0001:000095b8       ?RecurseDeleteKey@CRegKey@ATL@@QEAAJPEB_W@Z 000000018000a5b8 f i CoinDispenser.obj
 0001:00009710       ?RegCreateKeyExW@CAtlTransactionManager@ATL@@QEAAJPEAUHKEY__@@PEB_WKPEA_WKKQEAU_SECURITY_ATTRIBUTES@@PEAPEAU3@PEAK@Z 000000018000a710 f i CoinDispenser.obj
 0001:00009844       ?RegDeleteKeyW@CAtlTransactionManager@ATL@@QEAAJPEAUHKEY__@@PEB_W@Z 000000018000a844 f i CoinDispenser.obj
 0001:000098d0       ?RegOpenKeyExW@CAtlTransactionManager@ATL@@QEAAJPEAUHKEY__@@PEB_WKKPEAPEAU3@@Z 000000018000a8d0 f i CoinDispenser.obj
 0001:00009988       ?RegisterBuffer@CRegParser@ATL@@QEAAJPEA_WH@Z 000000018000a988 f i CoinDispenser.obj
 0001:00009af4       ?RegisterFromResource@CRegObject@ATL@@IEAAJPEB_W00H@Z 000000018000aaf4 f i CoinDispenser.obj
 0001:00009cb0       ?RegisterServer@CComModule@ATL@@QEAAJHPEBU_GUID@@@Z 000000018000acb0 f i CoinDispenser.obj
 0001:00009d6c       ?RegisterSubkeys@CRegParser@ATL@@IEAAJPEA_WPEAUHKEY__@@HH@Z 000000018000ad6c f i CoinDispenser.obj
 0001:0000a5ec       ?SendOnDataChange@CComControlBase@ATL@@QEAAJK@Z 000000018000b5ec f i CoinDispenser.obj
 0001:0000a65c       ?SetControlFocus@CComControlBase@ATL@@QEAAHH@Z 000000018000b65c f i CoinDispenser.obj
 0001:0000a72c       ?SkipAssignment@CRegParser@ATL@@IEAAJPEA_W@Z 000000018000b72c f i CoinDispenser.obj
 0001:0000a7e4       ?Term@CAtlModule@ATL@@QEAAXXZ 000000018000b7e4 f i CoinDispenser.obj
 0001:0000a89c       ?Term@CComModule@ATL@@QEAAXXZ 000000018000b89c f i CoinDispenser.obj
 0001:0000a918       ?UnregisterServer@CComModule@ATL@@QEAAJHPEBU_GUID@@@Z 000000018000b918 f i CoinDispenser.obj
 0001:0000a9c8       ?UpdateRegistryFromResource@CAtlModule@ATL@@QEAAJIHPEAU_ATL_REGMAP_ENTRY@2@@Z 000000018000b9c8 f i CoinDispenser.obj
 0001:0000acd4       ?UpdateRegistryFromResource@CAtlModule@ATL@@QEAAJPEB_WHPEAU_ATL_REGMAP_ENTRY@2@@Z 000000018000bcd4 f i CoinDispenser.obj
 0001:0000aff8       ?VTFromRegType@CRegParser@ATL@@KAHPEB_WAEAG@Z 000000018000bff8 f i CoinDispenser.obj
 0001:0000b094       ?WindowProc@?$CWindowImplBaseT@VCWindow@ATL@@V?$CWinTraits@$0FGAAAAAA@$0A@@2@@ATL@@SA_JPEAUHWND__@@I_K_J@Z 000000018000c094 f i CoinDispenser.obj
 0001:0000b200       ?WriteToStream@CComVariant@ATL@@QEAAJPEAUIStream@@@Z 000000018000c200 f i CoinDispenser.obj
 0001:0000b46c       ?WriteToStream@CComVariant@ATL@@QEAAJPEAUIStream@@G@Z 000000018000c46c f i CoinDispenser.obj
 0001:0000b504       ?_AtlVerifyStackAvailable@_ATL_SAFE_ALLOCA_IMPL@ATL@@YA_N_K@Z 000000018000c504 f i CoinDispenser.obj
 0001:0000b588       ?atlCreate@?$CWindowImpl@VCOPOSCoinDispenser@@VCWindow@ATL@@V?$CWinTraits@$0FGAAAAAA@$0A@@3@@ATL@@QEAAPEAUHWND__@@PEAU3@V_U_RECT@2@PEB_WKKV_U_MENUorID@2@PEAX@Z 000000018000c588 f i CoinDispenser.obj
 0001:0000b644       ?atlCreate@?$CWindowImplBaseT@VCWindow@ATL@@V?$CWinTraits@$0FGAAAAAA@$0A@@2@@ATL@@QEAAPEAUHWND__@@PEAU3@V_U_RECT@2@PEB_WKKV_U_MENUorID@2@GPEAX@Z 000000018000c644 f i CoinDispenser.obj
 0001:0000b7b4       ?ocscpy_s@@YA_NPEA_W_KPEB_W@Z 000000018000c7b4 f i CoinDispenser.obj
 0001:0000b864       DllCanUnloadNow            000000018000c864 f   CoinDispenser.obj
 0001:0000b870       DllGetClassObject          000000018000c870 f   CoinDispenser.obj
 0001:0000b888       DllMain                    000000018000c888 f   CoinDispenser.obj
 0001:0000b930       DllRegisterServer          000000018000c930 f   CoinDispenser.obj
 0001:0000b944       DllUnregisterServer        000000018000c944 f   CoinDispenser.obj
 0001:0000b958       __local_stdio_printf_options 000000018000c958 f i CoinDispenser.obj
 0001:0000b960       swprintf_s                 000000018000c960 f i CoinDispenser.obj
 0001:0000b9b4       ??0COPOSCoinDispenser@@QEAA@XZ 000000018000c9b4 f   CoinDispenserImpl.obj
 0001:0000ba70       ??1?$IConnectionPointImpl@VCOPOSCoinDispenser@@$1?IID_IPropertyNotifySink@@3U_GUID@@BVCComDynamicUnkArray@ATL@@@ATL@@QEAA@XZ 000000018000ca70 f i CoinDispenserImpl.obj
 0001:0000ba70       ??1?$IConnectionPointImpl@VCOPOSCoinDispenser@@$1?DIID__IOPOSCoinDispenserEvents@@3U_GUID@@BVCComDynamicUnkArray@ATL@@@ATL@@QEAA@XZ 000000018000ca70 f i CoinDispenserImpl.obj
 0001:0000bacc       ??1CComControlBase@ATL@@UEAA@XZ 000000018000cacc f i CoinDispenserImpl.obj
 0001:0000bb48       ??1COPOSCoinDispenser@@UEAA@XZ 000000018000cb48 f   CoinDispenserImpl.obj
 0001:0000bbac       ?AdjustCashCounts@COPOSCoinDispenser@@UEAAJPEA_WPEAJ@Z 000000018000cbac f   CoinDispenserImpl.obj
 0001:0000bc34       ?CheckHealth@COPOSCoinDispenser@@UEAAJJPEAJ@Z 000000018000cc34 f   CoinDispenserImpl.obj
 0001:0000bcb0       ?ClaimDevice@COPOSCoinDispenser@@UEAAJJPEAJ@Z 000000018000ccb0 f   CoinDispenserImpl.obj
 0001:0000bd50       ?Close@COPOSCoinDispenser@@UEAAJPEAJ@Z 000000018000cd50 f   CoinDispenserImpl.obj
 0001:0000be08       ?CompareFirmwareVersion@COPOSCoinDispenser@@UEAAJPEA_WPEAJ1@Z 000000018000ce08 f   CoinDispenserImpl.obj
 0001:0000bee4       ?DirectIO@COPOSCoinDispenser@@UEAAJJPEAJPEAPEA_W0@Z 000000018000cee4 f   CoinDispenserImpl.obj
 0001:0000bfe0       ?DispenseChange@COPOSCoinDispenser@@UEAAJJPEAJ@Z 000000018000cfe0 f   CoinDispenserImpl.obj
 0001:0000c05c       ?DoInvoke@COPOSCoinDispenser@@IEAAJJPEAVOposVariant@@IHPEAJ_N@Z 000000018000d05c f   CoinDispenserImpl.obj
 0001:0000c190       ?EventInit@COPOSCoinDispenser@@IEAAJXZ 000000018000d190 f i CoinDispenserImpl.obj
 0001:0000c2e0       ?EventUninit@COPOSCoinDispenser@@IEAAXXZ 000000018000d2e0 f i CoinDispenserImpl.obj
 0001:0000c344       ?EventWindowProc@COPOSCoinDispenser@@IEAA_JI_K_J@Z 000000018000d344 f i CoinDispenserImpl.obj
 0001:0000c408       ?FinalConstruct@COPOSCoinDispenser@@QEAAJXZ 000000018000d408 f   CoinDispenserImpl.obj
 0001:0000c444       ?FreezeEvents@COPOSCoinDispenser@@MEAAJH@Z 000000018000d444 f   CoinDispenserImpl.obj
 0001:0000c4b0       ?GetOposProp@COPOSCoinDispenser@@IEAAJJPEAJJ@Z 000000018000d4b0 f   CoinDispenserImpl.obj
 0001:0000c5cc       ?GetOposProp@COPOSCoinDispenser@@IEAAJJPEAPEA_WJ@Z 000000018000d5cc f   CoinDispenserImpl.obj
 0001:0000c6f8       ?OnDraw@COPOSCoinDispenser@@MEAAJAEAUATL_DRAWINFO@@@Z 000000018000d6f8 f   CoinDispenserImpl.obj
 0001:0000c7e4       ?Open@COPOSCoinDispenser@@UEAAJPEA_WPEAJ@Z 000000018000d7e4 f   CoinDispenserImpl.obj
 0001:0000d058       ?ReadCashCounts@COPOSCoinDispenser@@UEAAJPEAPEA_WPEAFPEAJ@Z 000000018000e058 f   CoinDispenserImpl.obj
 0001:0000d134       ?ReleaseDevice@COPOSCoinDispenser@@UEAAJPEAJ@Z 000000018000e134 f   CoinDispenserImpl.obj
 0001:0000d1a0       ?ResetStatistics@COPOSCoinDispenser@@UEAAJPEA_WPEAJ@Z 000000018000e1a0 f   CoinDispenserImpl.obj
 0001:0000d228       ?RetrieveStatistics@COPOSCoinDispenser@@UEAAJPEAPEA_WPEAJ@Z 000000018000e228 f   CoinDispenserImpl.obj
 0001:0000d2b0       ?SOProcessID@COPOSCoinDispenser@@UEAAJPEAJ@Z 000000018000e2b0 f   CoinDispenserImpl.obj
 0001:0000d2cc       ?SetCOFreezeEvents@COPOSCoinDispenser@@IEAAXF@Z 000000018000e2cc f   CoinDispenserImpl.obj
 0001:0000d3b0       ?SetOposProp@COPOSCoinDispenser@@IEAAJJJJ@Z 000000018000e3b0 f   CoinDispenserImpl.obj
 0001:0000d510       ?UpdateFirmware@COPOSCoinDispenser@@UEAAJPEA_WPEAJ@Z 000000018000e510 f   CoinDispenserImpl.obj
 0001:0000d598       ?UpdateStatistics@COPOSCoinDispenser@@UEAAJPEA_WPEAJ@Z 000000018000e598 f   CoinDispenserImpl.obj
 0001:0000d620       ?get_BinaryConversion@COPOSCoinDispenser@@UEAAJPEAJ@Z 000000018000e620 f   CoinDispenserImpl.obj
 0001:0000d634       ?get_CapCompareFirmwareVersion@COPOSCoinDispenser@@UEAAJPEAF@Z 000000018000e634 f   CoinDispenserImpl.obj
 0001:0000d668       ?get_CapEmptySensor@COPOSCoinDispenser@@UEAAJPEAF@Z 000000018000e668 f   CoinDispenserImpl.obj
 0001:0000d698       ?get_CapJamSensor@COPOSCoinDispenser@@UEAAJPEAF@Z 000000018000e698 f   CoinDispenserImpl.obj
 0001:0000d6c8       ?get_CapNearEmptySensor@COPOSCoinDispenser@@UEAAJPEAF@Z 000000018000e6c8 f   CoinDispenserImpl.obj
 0001:0000d6f8       ?get_CapPowerReporting@COPOSCoinDispenser@@UEAAJPEAJ@Z 000000018000e6f8 f   CoinDispenserImpl.obj
 0001:0000d70c       ?get_CapStatisticsReporting@COPOSCoinDispenser@@UEAAJPEAF@Z 000000018000e70c f   CoinDispenserImpl.obj
 0001:0000d740       ?get_CapUpdateFirmware@COPOSCoinDispenser@@UEAAJPEAF@Z 000000018000e740 f   CoinDispenserImpl.obj
 0001:0000d774       ?get_CapUpdateStatistics@COPOSCoinDispenser@@UEAAJPEAF@Z 000000018000e774 f   CoinDispenserImpl.obj
 0001:0000d7a8       ?get_CheckHealthText@COPOSCoinDispenser@@UEAAJPEAPEA_W@Z 000000018000e7a8 f   CoinDispenserImpl.obj
 0001:0000d7b8       ?get_Claimed@COPOSCoinDispenser@@UEAAJPEAF@Z 000000018000e7b8 f   CoinDispenserImpl.obj
 0001:0000d7e8       ?get_ControlObjectDescription@COPOSCoinDispenser@@UEAAJPEAPEA_W@Z 000000018000e7e8 f   CoinDispenserImpl.obj
 0001:0000d84c       ?get_ControlObjectVersion@COPOSCoinDispenser@@UEAAJPEAJ@Z 000000018000e84c f   CoinDispenserImpl.obj
 0001:0000d858       ?get_DeviceDescription@COPOSCoinDispenser@@UEAAJPEAPEA_W@Z 000000018000e858 f   CoinDispenserImpl.obj
 0001:0000d868       ?get_DeviceEnabled@COPOSCoinDispenser@@UEAAJPEAF@Z 000000018000e868 f   CoinDispenserImpl.obj
 0001:0000d898       ?get_DeviceName@COPOSCoinDispenser@@UEAAJPEAPEA_W@Z 000000018000e898 f   CoinDispenserImpl.obj
 0001:0000d8a8       ?get_DispenserStatus@COPOSCoinDispenser@@UEAAJPEAJ@Z 000000018000e8a8 f   CoinDispenserImpl.obj
 0001:0000d8b8       ?get_FreezeEvents@COPOSCoinDispenser@@UEAAJPEAF@Z 000000018000e8b8 f   CoinDispenserImpl.obj
 0001:0000d8e8       ?get_OpenResult@COPOSCoinDispenser@@UEAAJPEAJ@Z 000000018000e8e8 f   CoinDispenserImpl.obj
 0001:0000d8f4       ?get_PowerNotify@COPOSCoinDispenser@@UEAAJPEAJ@Z 000000018000e8f4 f   CoinDispenserImpl.obj
 0001:0000d908       ?get_PowerState@COPOSCoinDispenser@@UEAAJPEAJ@Z 000000018000e908 f   CoinDispenserImpl.obj
 0001:0000d91c       ?get_ResultCode@COPOSCoinDispenser@@UEAAJPEAJ@Z 000000018000e91c f   CoinDispenserImpl.obj
 0001:0000d958       ?get_ResultCodeExtended@COPOSCoinDispenser@@UEAAJPEAJ@Z 000000018000e958 f   CoinDispenserImpl.obj
 0001:0000d968       ?get_ServiceObjectDescription@COPOSCoinDispenser@@UEAAJPEAPEA_W@Z 000000018000e968 f   CoinDispenserImpl.obj
 0001:0000d978       ?get_ServiceObjectVersion@COPOSCoinDispenser@@UEAAJPEAJ@Z 000000018000e978 f   CoinDispenserImpl.obj
 0001:0000d988       ?get_State@COPOSCoinDispenser@@UEAAJPEAJ@Z 000000018000e988 f   CoinDispenserImpl.obj
 0001:0000d9b4       ?put_BinaryConversion@COPOSCoinDispenser@@UEAAJJ@Z 000000018000e9b4 f   CoinDispenserImpl.obj
 0001:0000d9c8       ?put_DeviceEnabled@COPOSCoinDispenser@@UEAAJF@Z 000000018000e9c8 f   CoinDispenserImpl.obj
 0001:0000d9e0       ?put_FreezeEvents@COPOSCoinDispenser@@UEAAJF@Z 000000018000e9e0 f   CoinDispenserImpl.obj
 0001:0000da30       ?put_PowerNotify@COPOSCoinDispenser@@UEAAJJ@Z 000000018000ea30 f   CoinDispenserImpl.obj
 0001:0000da44       ?s_EventWindowProc@COPOSCoinDispenser@@KA_JPEAUHWND__@@I_K_J@Z 000000018000ea44 f i CoinDispenserImpl.obj
 0001:0000dac0       ??_U@YAPEAX_K@Z            000000018000eac0 f   LIBCMT:new_array.obj
 0001:0000dac8       ??_V@YAXPEAX@Z             000000018000eac8 f   LIBCMT:delete_array.obj
 0001:0000dac8       ??3@YAXPEAX_K@Z            000000018000eac8 f   LIBCMT:delete_scalar_size.obj
 0001:0000dad0       ??_V@YAXPEAX_K@Z           000000018000ead0 f   LIBCMT:delete_array_size.obj
 0001:0000dad8       __scrt_acquire_startup_lock 000000018000ead8 f   LIBCMT:utility.obj
 0001:0000db14       __scrt_dllmain_after_initialize_c 000000018000eb14 f   LIBCMT:utility.obj
 0001:0000db48       __scrt_dllmain_before_initialize_c 000000018000eb48 f   LIBCMT:utility.obj
 0001:0000db60       __scrt_dllmain_crt_thread_attach 000000018000eb60 f   LIBCMT:utility.obj
 0001:0000db88       __scrt_dllmain_crt_thread_detach 000000018000eb88 f   LIBCMT:utility.obj
 0001:0000dba0       __scrt_dllmain_exception_filter 000000018000eba0 f   LIBCMT:utility.obj
 0001:0000dc00       __scrt_dllmain_uninitialize_c 000000018000ec00 f   LIBCMT:utility.obj
 0001:0000dc30       __scrt_dllmain_uninitialize_critical 000000018000ec30 f   LIBCMT:utility.obj
 0001:0000dc44       __scrt_initialize_crt      000000018000ec44 f   LIBCMT:utility.obj
 0001:0000dc90       __scrt_initialize_onexit_tables 000000018000ec90 f   LIBCMT:utility.obj
 0001:0000dd1c       __scrt_is_nonwritable_in_current_image 000000018000ed1c f   LIBCMT:utility.obj
 0001:0000ddb4       __scrt_release_startup_lock 000000018000edb4 f   LIBCMT:utility.obj
 0001:0000ddd8       __scrt_uninitialize_crt    000000018000edd8 f   LIBCMT:utility.obj
 0001:0000de04       _onexit                    000000018000ee04 f   LIBCMT:utility.obj
 0001:0000de40       atexit                     000000018000ee40 f   LIBCMT:utility.obj
 0001:0000de58       ??3@YAXPEAX@Z              000000018000ee58 f   LIBCMT:delete_scalar.obj
 0001:0000df58       _Init_thread_footer        000000018000ef58 f   LIBCMT:thread_safe_statics.obj
 0001:0000dfb8       _Init_thread_header        000000018000efb8 f   LIBCMT:thread_safe_statics.obj
 0001:0000e020       _Init_thread_notify        000000018000f020 f   LIBCMT:thread_safe_statics.obj
 0001:0000e064       _Init_thread_wait          000000018000f064 f   LIBCMT:thread_safe_statics.obj
 0001:0000e0c8       __raise_securityfailure    000000018000f0c8 f   LIBCMT:gs_report.obj
 0001:0000e0fc       __report_gsfailure         000000018000f0fc f   LIBCMT:gs_report.obj
 0001:0000e1d0       __report_rangecheckfailure 000000018000f1d0 f   LIBCMT:gs_report.obj
 0001:0000e1e4       __report_securityfailure   000000018000f1e4 f   LIBCMT:gs_report.obj
 0001:0000e364       ??2@YAPEAX_KAEBUnothrow_t@std@@@Z 000000018000f364 f   LIBCMT:new_scalar_nothrow.obj
 0001:0000e378       ??_U@YAPEAX_KAEBUnothrow_t@std@@@Z 000000018000f378 f   LIBCMT:new_array_nothrow.obj
 0001:0000e380       __GSHandlerCheck           000000018000f380 f   LIBCMT:gshandler.obj
 0001:0000e3a0       __GSHandlerCheckCommon     000000018000f3a0 f   LIBCMT:gshandler.obj
 0001:0000e3fc       __GSHandlerCheck_SEH       000000018000f3fc f   LIBCMT:gshandlerseh.obj
 0001:0000e4a0       __chkstk                   000000018000f4a0 f   LIBCMT:chkstk.obj
 0001:0000e4a0       _alloca_probe              000000018000f4a0 f   LIBCMT:chkstk.obj
 0001:0000e500       __security_check_cookie    000000018000f500 f   LIBCMT:amdsecgs.obj
 0001:0000e840       _DllMainCRTStartup         000000018000f840 f   LIBCMT:dll_dllmain.obj
 0001:0000e880       ??2@YAPEAX_K@Z             000000018000f880 f   LIBCMT:new_scalar.obj
 0001:0000e8bc       __isa_available_init       000000018000f8bc f   LIBCMT:cpu_disp.obj
 0001:0000ea60       __scrt_is_ucrt_dll_in_use  000000018000fa60 f   LIBCMT:ucrt_detection.obj
 0001:0000ea6c       __crt_debugger_hook        000000018000fa6c f   LIBCMT:utility_desktop.obj
 0001:0000ea74       __scrt_fastfail            000000018000fa74 f   LIBCMT:utility_desktop.obj
 0001:0000ebc0       __security_init_cookie     000000018000fbc0 f   LIBCMT:gs_support.obj
 0001:0000ec6c       ?__scrt_initialize_type_info@@YAXXZ 000000018000fc6c f   LIBCMT:tncleanup.obj
 0001:0000ec7c       ?__scrt_uninitialize_type_info@@YAXXZ 000000018000fc7c f   LIBCMT:tncleanup.obj
 0001:0000ec88       __local_stdio_scanf_options 000000018000fc88 f i LIBCMT:default_local_stdio_options.obj
 0001:0000ec90       __scrt_initialize_default_local_stdio_options 000000018000fc90 f   LIBCMT:default_local_stdio_options.obj
 0001:0000ecac       __scrt_get_dyn_tls_init_callback 000000018000fcac f   LIBCMT:dyn_tls_init.obj
 0001:0000ecb4       _RTC_Initialize            000000018000fcb4 f   LIBCMT:initsect.obj
 0001:0000ecf0       _RTC_Terminate             000000018000fcf0 f   LIBCMT:initsect.obj
 0001:0000ed2c       ??0bad_alloc@std@@QEAA@AEBV01@@Z 000000018000fd2c f i LIBCMT:throw_bad_alloc.obj
 0001:0000ed68       ??0bad_alloc@std@@QEAA@XZ  000000018000fd68 f i LIBCMT:throw_bad_alloc.obj
 0001:0000ed88       ??0bad_array_new_length@std@@QEAA@AEBV01@@Z 000000018000fd88 f i LIBCMT:throw_bad_alloc.obj
 0001:0000edc4       ??0bad_array_new_length@std@@QEAA@XZ 000000018000fdc4 f i LIBCMT:throw_bad_alloc.obj
 0001:0000ede4       ??0exception@std@@QEAA@AEBV01@@Z 000000018000fde4 f i LIBCMT:throw_bad_alloc.obj
 0001:0000ee18       ??1bad_exception@std@@UEAA@XZ 000000018000fe18 f i libvcruntime:frame.obj
 0001:0000ee18       ??1bad_alloc@std@@UEAA@XZ  000000018000fe18 f i LIBCMT:throw_bad_alloc.obj
 0001:0000ee18       ??1bad_array_new_length@std@@UEAA@XZ 000000018000fe18 f i LIBCMT:throw_bad_alloc.obj
 0001:0000ee2c       ??_Ebad_array_new_length@std@@UEAAPEAXI@Z 000000018000fe2c f i LIBCMT:throw_bad_alloc.obj
 0001:0000ee2c       ??_Gbad_alloc@std@@UEAAPEAXI@Z 000000018000fe2c f i LIBCMT:throw_bad_alloc.obj
 0001:0000ee2c       ??_Gbad_exception@std@@UEAAPEAXI@Z 000000018000fe2c f i libvcruntime:frame.obj
 0001:0000ee2c       ??_Eexception@std@@UEAAPEAXI@Z 000000018000fe2c f i LIBCMT:throw_bad_alloc.obj
 0001:0000ee2c       ??_Gbad_array_new_length@std@@UEAAPEAXI@Z 000000018000fe2c f i LIBCMT:throw_bad_alloc.obj
 0001:0000ee2c       ??_Ebad_exception@std@@UEAAPEAXI@Z 000000018000fe2c f i libvcruntime:frame.obj
 0001:0000ee2c       ??_Ebad_alloc@std@@UEAAPEAXI@Z 000000018000fe2c f i LIBCMT:throw_bad_alloc.obj
 0001:0000ee2c       ??_Gexception@std@@UEAAPEAXI@Z 000000018000fe2c f i LIBCMT:throw_bad_alloc.obj
 0001:0000ee70       ?__scrt_throw_std_bad_alloc@@YAXXZ 000000018000fe70 f   LIBCMT:throw_bad_alloc.obj
 0001:0000ee90       ?__scrt_throw_std_bad_array_new_length@@YAXXZ 000000018000fe90 f   LIBCMT:throw_bad_alloc.obj
 0001:0000eeb0       ?what@exception@std@@UEBAPEBDXZ 000000018000feb0 f i LIBCMT:throw_bad_alloc.obj
 0001:0000eed0       ??_Gtype_info@@UEAAPEAXI@Z 000000018000fed0 f i LIBCMT:std_type_info_static.obj
 0001:0000eed0       ??_Etype_info@@UEAAPEAXI@Z 000000018000fed0 f i LIBCMT:std_type_info_static.obj
 0001:0000eefc       ??0CAtlBaseModule@ATL@@QEAA@XZ 000000018000fefc f   atls:atlbase.obj
 0001:0000efa4       ??1CAtlBaseModule@ATL@@QEAA@XZ 000000018000ffa4 f   atls:atlbase.obj
 0001:0000f0d8       ?__AllocStdCallThunk_cmn@@YAPEAXXZ 00000001800100d8 f   atls:atlthunk.obj
 0001:0000f230       AtlThunk_AllocateData      0000000180010230 f   atls:atlthunk.obj
 0001:0000f2ac       AtlThunk_DataToCode        00000001800102ac f   atls:atlthunk.obj
 0001:0000f300       AtlThunk_FreeData          0000000180010300 f   atls:atlthunk.obj
 0001:0000f360       AtlThunk_InitData          0000000180010360 f   atls:atlthunk.obj
 0001:0000f408       _get_purecall_handler      0000000180010408 f   libvcruntime:purevirt.obj
 0001:0000f414       _purecall                  0000000180010414 f   libvcruntime:purevirt.obj
 0001:0000f430       wcsstr                     0000000180010430 f   libvcruntime:wcsstr.obj
 0001:0000f660       memcmp                     0000000180010660 f   libvcruntime:memcmp.obj
 0001:0000f740       memcpy_repmovs             0000000180010740 f   libvcruntime:memcpy.obj
 0001:0000f760       memcpy                     0000000180010760 f   libvcruntime:memcpy.obj
 0001:0000f760       memmove                    0000000180010760 f   libvcruntime:memcpy.obj
 0001:0000fdf0       memset_repmovs             0000000180010df0 f   libvcruntime:memset.obj
 0001:0000fe10       memset                     0000000180010e10 f   libvcruntime:memset.obj
 0001:0000ffa0       __vcrt_initialize          0000000180010fa0 f   libvcruntime:initialization.obj
 0001:0000ffc8       __vcrt_thread_attach       0000000180010fc8 f   libvcruntime:initialization.obj
 0001:0000ffdc       __vcrt_thread_detach       0000000180010fdc f   libvcruntime:initialization.obj
 0001:0000fff0       __vcrt_uninitialize        0000000180010ff0 f   libvcruntime:initialization.obj
 0001:0001000c       __vcrt_uninitialize_critical 000000018001100c f   libvcruntime:initialization.obj
 0001:0001001c       __C_specific_handler       000000018001101c f   libvcruntime:riscchandler.obj
 0001:00010214       ??$_CallSETranslator@V__FrameHandler3@@@@YAHPEAUEHExceptionRecord@@PEA_KPEAU_CONTEXT@@PEAU_xDISPATCHER_CONTEXT@@PEBU_s_FuncInfo@@K1H@Z 0000000180011214 f i libvcruntime:risctrnsctrl.obj
 0001:00010268       ??$_CallSETranslator@V__FrameHandler4@@@@YAHPEAUEHExceptionRecord@@PEA_KPEAU_CONTEXT@@PEAU_xDISPATCHER_CONTEXT@@PEAUFuncInfo4@FH4@@K1H@Z 0000000180011268 f i libvcruntime:risctrnsctrl.obj
 0001:000102bc       ?CatchTryBlock@__FrameHandler3@@SAPEBU_s_TryBlockMapEntry@@PEBU_s_FuncInfo@@H@Z 00000001800112bc f   libvcruntime:risctrnsctrl.obj
 0001:00010320       ?DecompFuncInfo@FH4@@YA_JPEAEAEAUFuncInfo4@1@_KH_N@Z 0000000180011320 f i libvcruntime:risctrnsctrl.obj
 0001:00010444       ?ExecutionInCatch@__FrameHandler3@@SA_NPEAU_xDISPATCHER_CONTEXT@@PEBU_s_FuncInfo@@@Z 0000000180011444 f   libvcruntime:risctrnsctrl.obj
 0001:00010470       ?ExecutionInCatch@__FrameHandler4@@SA_NPEAU_xDISPATCHER_CONTEXT@@PEAUFuncInfo4@FH4@@@Z 0000000180011470 f   libvcruntime:risctrnsctrl.obj
 0001:00010478       ?FrameUnwindToEmptyState@__FrameHandler3@@SAXPEA_KPEAU_xDISPATCHER_CONTEXT@@PEBU_s_FuncInfo@@@Z 0000000180011478 f   libvcruntime:risctrnsctrl.obj
 0001:000104dc       ?FrameUnwindToEmptyState@__FrameHandler4@@SAXPEA_KPEAU_xDISPATCHER_CONTEXT@@PEAUFuncInfo4@FH4@@@Z 00000001800114dc f   libvcruntime:risctrnsctrl.obj
 0001:00010510       ?GetEstablisherFrame@__FrameHandler3@@SAPEA_KPEA_KPEAU_xDISPATCHER_CONTEXT@@PEBU_s_FuncInfo@@0@Z 0000000180011510 f   libvcruntime:risctrnsctrl.obj
 0001:000105dc       ?GetEstablisherFrame@__FrameHandler4@@SAPEA_KPEA_KPEAU_xDISPATCHER_CONTEXT@@PEAUFuncInfo4@FH4@@0@Z 00000001800115dc f   libvcruntime:risctrnsctrl.obj
 0001:00010600       ?GetRangeOfTrysToCheck@__FrameHandler3@@SA?AU?$pair@Viterator@TryBlockMap@__FrameHandler3@@V123@@std@@AEAVTryBlockMap@1@HPEAU_xDISPATCHER_CONTEXT@@PEBU_s_FuncInfo@@H@Z 0000000180011600 f   libvcruntime:risctrnsctrl.obj
 0001:00010740       ?GetRangeOfTrysToCheck@__FrameHandler4@@SA?AU?$pair@Viterator@TryBlockMap4@FH4@@V123@@std@@AEAVTryBlockMap4@FH4@@HPEAU_xDISPATCHER_CONTEXT@@PEAUFuncInfo4@5@H@Z 0000000180011740 f   libvcruntime:risctrnsctrl.obj
 0001:000108ac       ?UnwindNestedFrames@__FrameHandler3@@SAXPEA_KPEAUEHExceptionRecord@@PEAU_CONTEXT@@0PEAXPEBU_s_FuncInfo@@HHPEBU_s_HandlerType@@PEAU_xDISPATCHER_CONTEXT@@E@Z 00000001800118ac f   libvcruntime:risctrnsctrl.obj
 0001:000109b0       ?UnwindNestedFrames@__FrameHandler4@@SAXPEA_KPEAUEHExceptionRecord@@PEAU_CONTEXT@@0PEAXPEAUFuncInfo4@FH4@@HHPEAUHandlerType4@5@PEAU_xDISPATCHER_CONTEXT@@E@Z 00000001800119b0 f   libvcruntime:risctrnsctrl.obj
 0001:00010ad0       ?setBuffer@TryBlockMap4@FH4@@QEAAXViterator@12@@Z 0000000180011ad0 f i libvcruntime:risctrnsctrl.obj
 0001:00010c94       _CreateFrameInfo           0000000180011c94 f   libvcruntime:risctrnsctrl.obj
 0001:00010cd0       _FindAndUnlinkFrame        0000000180011cd0 f   libvcruntime:risctrnsctrl.obj
 0001:00010d24       _GetImageBase              0000000180011d24 f   libvcruntime:risctrnsctrl.obj
 0001:00010d38       _GetThrowImageBase         0000000180011d38 f   libvcruntime:risctrnsctrl.obj
 0001:00010d4c       _SetImageBase              0000000180011d4c f   libvcruntime:risctrnsctrl.obj
 0001:00010d64       _SetThrowImageBase         0000000180011d64 f   libvcruntime:risctrnsctrl.obj
 0001:00010d7c       __CxxFrameHandler3         0000000180011d7c f   libvcruntime:risctrnsctrl.obj
 0001:00010e04       __CxxFrameHandler4         0000000180011e04 f   libvcruntime:risctrnsctrl.obj
 0001:00010ec4       __DestructExceptionObject  0000000180011ec4 f   libvcruntime:ehhelpers.obj
 0001:00010f34       ?_CallMemberFunction0@@YAXQEAX0@Z 0000000180011f34 f i libvcruntime:ehhelpers.obj
 0001:00010f38       _IsExceptionObjectToBeDestroyed 0000000180011f38 f   libvcruntime:ehhelpers.obj
 0001:00010f68       __AdjustPointer            0000000180011f68 f   libvcruntime:ehhelpers.obj
 0001:00010f8c       __FrameUnwindFilter        0000000180011f8c f   libvcruntime:ehhelpers.obj
 0001:00010ff4       __std_terminate            0000000180011ff4 f   libvcruntime:ehhelpers.obj
 0001:00011000       __std_type_info_compare    0000000180012000 f   libvcruntime:std_type_info.obj
 0001:00011028       __std_type_info_destroy_list 0000000180012028 f   libvcruntime:std_type_info.obj
 0001:00011054       __std_exception_copy       0000000180012054 f   libvcruntime:std_exception.obj
 0001:000110e4       __std_exception_destroy    00000001800120e4 f   libvcruntime:std_exception.obj
 0001:0001110c       _CxxThrowException         000000018001210c f   libvcruntime:throw.obj
 0001:000111ac       __vcrt_freefls             00000001800121ac f   libvcruntime:per_thread_data.obj
 0001:000111cc       __vcrt_freeptd             00000001800121cc f   libvcruntime:per_thread_data.obj
 0001:0001121c       __vcrt_getptd              000000018001221c f   libvcruntime:per_thread_data.obj
 0001:00011238       __vcrt_getptd_noexit       0000000180012238 f   libvcruntime:per_thread_data.obj
 0001:000112f8       __vcrt_initialize_ptd      00000001800122f8 f   libvcruntime:per_thread_data.obj
 0001:00011340       __vcrt_uninitialize_ptd    0000000180012340 f   libvcruntime:per_thread_data.obj
 0001:00011364       __vcrt_initialize_locks    0000000180012364 f   libvcruntime:locks.obj
 0001:000113ac       __vcrt_uninitialize_locks  00000001800123ac f   libvcruntime:locks.obj
 0001:00011400       _NLG_Notify                0000000180012400 f   libvcruntime:notify.obj
 0001:00011420       __NLG_Dispatch2            0000000180012420 f   libvcruntime:notify.obj
 0001:00011430       __NLG_Return2              0000000180012430 f   libvcruntime:notify.obj
 0001:00011434       __except_validate_context_record 0000000180012434 f   libvcruntime:jbcxrval.obj
 0001:0001146c       ?GetCurrentState@__FrameHandler3@@SAHPEA_KPEAU_xDISPATCHER_CONTEXT@@PEBU_s_FuncInfo@@@Z 000000018001246c f   libvcruntime:ehstate.obj
 0001:00011494       ?GetUnwindTryBlock@__FrameHandler3@@SAHPEA_KPEAU_xDISPATCHER_CONTEXT@@PEBU_s_FuncInfo@@@Z 0000000180012494 f   libvcruntime:ehstate.obj
 0001:000114c0       ?SetState@__FrameHandler3@@SAXPEA_KPEBU_s_FuncInfo@@H@Z 00000001800124c0 f   libvcruntime:ehstate.obj
 0001:000114cc       ?SetUnwindTryBlock@__FrameHandler3@@SAXPEA_KPEAU_xDISPATCHER_CONTEXT@@PEBU_s_FuncInfo@@H@Z 00000001800124cc f   libvcruntime:ehstate.obj
 0001:00011508       ?StateFromControlPc@__FrameHandler3@@SAHPEBU_s_FuncInfo@@PEAU_xDISPATCHER_CONTEXT@@@Z 0000000180012508 f   libvcruntime:ehstate.obj
 0001:00011510       ?StateFromControlPc@__FrameHandler4@@SAHPEAUFuncInfo4@FH4@@PEAU_xDISPATCHER_CONTEXT@@@Z 0000000180012510 f   libvcruntime:ehstate.obj
 0001:00011518       ?StateFromIp@__FrameHandler3@@SAHPEBU_s_FuncInfo@@PEAU_xDISPATCHER_CONTEXT@@_K@Z 0000000180012518 f   libvcruntime:ehstate.obj
 0001:00011580       ?StateFromIp@__FrameHandler4@@SAHPEAUFuncInfo4@FH4@@PEAU_xDISPATCHER_CONTEXT@@_K@Z 0000000180012580 f   libvcruntime:ehstate.obj
 0001:00012c80       ??$TypeMatchHelper@V__FrameHandler3@@@@YAHPEBU_s_HandlerType@@PEBU_s_CatchableType@@PEBU_s_ThrowInfo@@@Z 0000000180013c80 f i libvcruntime:frame.obj
 0001:00012dc0       ??$TypeMatchHelper@V__FrameHandler4@@@@YAHPEAUHandlerType4@FH4@@PEBU_s_CatchableType@@PEBU_s_ThrowInfo@@@Z 0000000180013dc0 f i libvcruntime:frame.obj
 0001:00012f04       ??$__InternalCxxFrameHandler@V__FrameHandler3@@@@YA?AW4_EXCEPTION_DISPOSITION@@PEAUEHExceptionRecord@@PEA_KPEAU_CONTEXT@@PEAU_xDISPATCHER_CONTEXT@@PEBU_s_FuncInfo@@H1E@Z 0000000180013f04 f i libvcruntime:frame.obj
 0001:0001313c       ??$__InternalCxxFrameHandler@V__FrameHandler4@@@@YA?AW4_EXCEPTION_DISPOSITION@@PEAUEHExceptionRecord@@PEA_KPEAU_CONTEXT@@PEAU_xDISPATCHER_CONTEXT@@PEAUFuncInfo4@FH4@@H1E@Z 000000018001413c f i libvcruntime:frame.obj
 0001:000133d0       ??0HandlerMap4@FH4@@QEAA@PEBUTryBlockMapEntry4@1@_KH@Z 00000001800143d0 f i libvcruntime:frame.obj
 0001:0001344c       ??0TryBlockMap4@FH4@@QEAA@PEBUFuncInfo4@1@_K@Z 000000018001444c f i libvcruntime:frame.obj
 0001:00013524       ??0bad_exception@std@@QEAA@AEBV01@@Z 0000000180014524 f i libvcruntime:frame.obj
 0001:00013560       ??0bad_exception@std@@QEAA@XZ 0000000180014560 f i libvcruntime:frame.obj
 0001:00013580       ?CxxCallCatchBlock@__FrameHandler3@@SAPEAXPEAU_EXCEPTION_RECORD@@@Z 0000000180014580 f   libvcruntime:frame.obj
 0001:0001376c       ?CxxCallCatchBlock@__FrameHandler4@@SAPEAXPEAU_EXCEPTION_RECORD@@@Z 000000018001476c f   libvcruntime:frame.obj
 0001:000139bc       ?DecompHandler@HandlerMap4@FH4@@AEAAXXZ 00000001800149bc f i libvcruntime:frame.obj
 0001:00013c08       ?FrameUnwindToState@__FrameHandler3@@SAXPEA_KPEAU_xDISPATCHER_CONTEXT@@PEBU_s_FuncInfo@@H@Z 0000000180014c08 f   libvcruntime:frame.obj
 0001:00013d94       ?FrameUnwindToState@__FrameHandler4@@SAXPEA_KPEAU_xDISPATCHER_CONTEXT@@PEAUFuncInfo4@FH4@@H@Z 0000000180014d94 f   libvcruntime:frame.obj
 0001:00014090       ?GetHandlerSearchState@__FrameHandler3@@SAHPEA_KPEAU_xDISPATCHER_CONTEXT@@PEBU_s_FuncInfo@@@Z 0000000180015090 f i libvcruntime:frame.obj
 0001:000142a0       ?ReadEntry@UWMap4@FH4@@AEAAXPEAPEAE@Z 00000001800152a0 f i libvcruntime:frame.obj
 0001:0001433c       ?_CallMemberFunction1@@YAXQEAX00@Z 000000018001533c f i libvcruntime:frame.obj
 0001:00014348       ?_CallMemberFunction2@@YAXQEAX00H@Z 0000000180015348 f i libvcruntime:frame.obj
 0001:00014358       ?getStartStop@UWMap4@FH4@@QEAAXHHAEAViterator@12@0@Z 0000000180015358 f i libvcruntime:frame.obj
 0001:00014428       ?getStateFromIterators@UWMap4@FH4@@SAHAEBViterator@12@H0H0@Z 0000000180015428 f i libvcruntime:frame.obj
 0001:00014644       __vcrt_FlsAlloc            0000000180015644 f   libvcruntime:winapi_downlevel.obj
 0001:0001468c       __vcrt_FlsFree             000000018001568c f   libvcruntime:winapi_downlevel.obj
 0001:000146d4       __vcrt_FlsGetValue         00000001800156d4 f   libvcruntime:winapi_downlevel.obj
 0001:0001471c       __vcrt_FlsSetValue         000000018001571c f   libvcruntime:winapi_downlevel.obj
 0001:00014770       __vcrt_InitializeCriticalSectionEx 0000000180015770 f   libvcruntime:winapi_downlevel.obj
 0001:000147f0       _CallSettingFrame          00000001800157f0 f   libvcruntime:handlers.obj
 0001:00014840       _CallSettingFrame_LookupContinuationIndex 0000000180015840 f   libvcruntime:handlers.obj
 0001:00014870       _CallSettingFrame_NotifyContinuationAddr 0000000180015870 f   libvcruntime:handlers.obj
 0001:000148a0       _CallSettingFrameEncoded   00000001800158a0 f   libvcruntime:handlers.obj
 0001:000148e8       free                       00000001800158e8 f   libucrt:free.obj
 0001:000148fc       ?get_raw_ptd@__crt_cached_ptd_host@@QEAAPEAU__acrt_ptd@@XZ 00000001800158fc f i libucrt:invalid_parameter.obj
 0001:00014964       ?get_raw_ptd_noexit@__crt_cached_ptd_host@@QEAAPEAU__acrt_ptd@@XZ 0000000180015964 f i libucrt:invalid_parameter.obj
 0001:000149d0       ?value@?$dual_state_global@P6AXPEB_W00I_K@Z@__crt_state_management@@QEAAAEAP6AXPEB_W00I_K@ZAEAV__crt_cached_ptd_host@@@Z 00000001800159d0 f i libucrt:invalid_parameter.obj
 0001:00014a1c       __acrt_call_reportfault    0000000180015a1c f   libucrt:invalid_parameter.obj
 0001:00014b78       __acrt_initialize_invalid_parameter_handler 0000000180015b78 f   libucrt:invalid_parameter.obj
 0001:00014b80       _invalid_parameter         0000000180015b80 f   libucrt:invalid_parameter.obj
 0001:00014c1c       _invalid_parameter_internal 0000000180015c1c f   libucrt:invalid_parameter.obj
 0001:00014cec       _invalid_parameter_noinfo  0000000180015cec f   libucrt:invalid_parameter.obj
 0001:00014d0c       _invoke_watson             0000000180015d0c f   libucrt:invalid_parameter.obj
 0001:00014d54       __acrt_errno_from_os_error 0000000180015d54 f   libucrt:errno.obj
 0001:00014d9c       __acrt_errno_map_os_error  0000000180015d9c f   libucrt:errno.obj
 0001:00014de4       __acrt_errno_map_os_error_ptd 0000000180015de4 f   libucrt:errno.obj
 0001:00014e08       __doserrno                 0000000180015e08 f   libucrt:errno.obj
 0001:00014e28       _errno                     0000000180015e28 f   libucrt:errno.obj
 0001:00014e48       calloc                     0000000180015e48 f   libucrt:calloc.obj
 0001:00014e50       malloc                     0000000180015e50 f   libucrt:malloc.obj
 0001:00014e58       _recalloc                  0000000180015e58 f   libucrt:recalloc.obj
 0001:00014e60       _recalloc_base             0000000180015e60 f   libucrt:recalloc.obj
 0001:00014ef8       _resetstkoflw              0000000180015ef8 f   libucrt:resetstk.obj
 0001:00015024       wcscat_s                   0000000180016024 f   libucrt:wcscat_s.obj
 0001:000150a8       wcscpy_s                   00000001800160a8 f   libucrt:wcscpy_s.obj
 0001:00015110       wcsncpy_s                  0000000180016110 f   libucrt:wcsncpy_s.obj
 0001:000153c4       ??$ensure_buffer_is_big_enough@D@formatting_buffer@__crt_stdio_output@@QEAA_N_KAEAV__crt_cached_ptd_host@@@Z 00000001800163c4 f i libucrt:output.obj
 0001:0001546c       ??$ensure_buffer_is_big_enough@_W@formatting_buffer@__crt_stdio_output@@QEAA_N_KAEAV__crt_cached_ptd_host@@@Z 000000018001646c f i libucrt:output.obj
 0001:00015518       ??$is_wide_character_specifier@_W@__crt_stdio_output@@YA_N_K_WW4length_modifier@0@@Z 0000000180016518 f i libucrt:output.obj
 0001:00015558       ??$parse_integer@KV?$c_string_character_source@_W@__crt_strtox@@$0A@@__crt_strtox@@YAKAEAV__crt_cached_ptd_host@@V?$c_string_character_source@_W@0@H_N@Z 0000000180016558 f i libucrt:output.obj
 0001:00015cb0       ??$type_case_integer@$07@?$output_processor@_WV?$string_output_adapter@_W@__crt_stdio_output@@V?$format_validation_base@_WV?$string_output_adapter@_W@__crt_stdio_output@@@2@@__crt_stdio_output@@AEAA_N_N@Z 0000000180016cb0 f i libucrt:output.obj
 0001:00015e9c       ??$type_case_integer@$09@?$output_processor@_WV?$string_output_adapter@_W@__crt_stdio_output@@V?$format_validation_base@_WV?$string_output_adapter@_W@__crt_stdio_output@@@2@@__crt_stdio_output@@AEAA_N_N@Z 0000000180016e9c f i libucrt:output.obj
 0001:00016088       ??$type_case_integer@$0BA@@?$output_processor@_WV?$string_output_adapter@_W@__crt_stdio_output@@V?$format_validation_base@_WV?$string_output_adapter@_W@__crt_stdio_output@@@2@@__crt_stdio_output@@AEAA_N_N@Z 0000000180017088 f i libucrt:output.obj
 0001:00016274       ??$type_case_integer_parse_into_buffer@I$07@?$output_processor@_WV?$string_output_adapter@_W@__crt_stdio_output@@V?$format_validation_base@_WV?$string_output_adapter@_W@__crt_stdio_output@@@2@@__crt_stdio_output@@AEAAXI_N@Z 0000000180017274 f i libucrt:output.obj
 0001:000162fc       ??$type_case_integer_parse_into_buffer@I$09@?$output_processor@_WV?$string_output_adapter@_W@__crt_stdio_output@@V?$format_validation_base@_WV?$string_output_adapter@_W@__crt_stdio_output@@@2@@__crt_stdio_output@@AEAAXI_N@Z 00000001800172fc f i libucrt:output.obj
 0001:000163b4       ??$type_case_integer_parse_into_buffer@I$0BA@@?$output_processor@_WV?$string_output_adapter@_W@__crt_stdio_output@@V?$format_validation_base@_WV?$string_output_adapter@_W@__crt_stdio_output@@@2@@__crt_stdio_output@@AEAAXI_N@Z 00000001800173b4 f i libucrt:output.obj
 0001:00016458       ??$type_case_integer_parse_into_buffer@_K$07@?$output_processor@_WV?$string_output_adapter@_W@__crt_stdio_output@@V?$format_validation_base@_WV?$string_output_adapter@_W@__crt_stdio_output@@@2@@__crt_stdio_output@@AEAAX_K_N@Z 0000000180017458 f i libucrt:output.obj
 0001:000164e0       ??$type_case_integer_parse_into_buffer@_K$09@?$output_processor@_WV?$string_output_adapter@_W@__crt_stdio_output@@V?$format_validation_base@_WV?$string_output_adapter@_W@__crt_stdio_output@@@2@@__crt_stdio_output@@AEAAX_K_N@Z 00000001800174e0 f i libucrt:output.obj
 0001:000165a0       ??$type_case_integer_parse_into_buffer@_K$0BA@@?$output_processor@_WV?$string_output_adapter@_W@__crt_stdio_output@@V?$format_validation_base@_WV?$string_output_adapter@_W@__crt_stdio_output@@@2@@__crt_stdio_output@@AEAAX_K_N@Z 00000001800175a0 f i libucrt:output.obj
 0001:00016644       ?crop_zeroes@__crt_stdio_output@@YAXPEADQEAU__crt_locale_pointers@@@Z 0000000180017644 f i libucrt:output.obj
 0001:000166b0       ?parse_int_from_format_string@?$output_processor@_WV?$string_output_adapter@_W@__crt_stdio_output@@V?$format_validation_base@_WV?$string_output_adapter@_W@__crt_stdio_output@@@2@@__crt_stdio_output@@AEAA_NQEAH@Z 00000001800176b0 f i libucrt:output.obj
 0001:00016740       ?process@?$output_processor@_WV?$string_output_adapter@_W@__crt_stdio_output@@V?$format_validation_base@_WV?$string_output_adapter@_W@__crt_stdio_output@@@2@@__crt_stdio_output@@QEAAHXZ 0000000180017740 f i libucrt:output.obj
 0001:00016a1c       ?state_case_size@?$output_processor@_WV?$string_output_adapter@_W@__crt_stdio_output@@V?$format_validation_base@_WV?$string_output_adapter@_W@__crt_stdio_output@@@2@@__crt_stdio_output@@AEAA_NXZ 0000000180017a1c f i libucrt:output.obj
 0001:00016bc8       ?state_case_type@?$output_processor@_WV?$string_output_adapter@_W@__crt_stdio_output@@V?$format_validation_base@_WV?$string_output_adapter@_W@__crt_stdio_output@@@2@@__crt_stdio_output@@AEAA_NXZ 0000000180017bc8 f i libucrt:output.obj
 0001:00017024       ?type_case_Z@?$output_processor@_WV?$string_output_adapter@_W@__crt_stdio_output@@V?$format_validation_base@_WV?$string_output_adapter@_W@__crt_stdio_output@@@2@@__crt_stdio_output@@AEAA_NXZ 0000000180018024 f i libucrt:output.obj
 0001:000170a0       ?type_case_a@?$output_processor@_WV?$string_output_adapter@_W@__crt_stdio_output@@V?$format_validation_base@_WV?$string_output_adapter@_W@__crt_stdio_output@@@2@@__crt_stdio_output@@AEAA_NXZ 00000001800180a0 f i libucrt:output.obj
 0001:00017300       ?type_case_c_tchar@?$output_processor@_WV?$string_output_adapter@_W@__crt_stdio_output@@V?$format_validation_base@_WV?$string_output_adapter@_W@__crt_stdio_output@@@2@@__crt_stdio_output@@AEAA_N_W@Z 0000000180018300 f i libucrt:output.obj
 0001:000173c4       ?type_case_n@?$output_processor@_WV?$string_output_adapter@_W@__crt_stdio_output@@V?$format_validation_base@_WV?$string_output_adapter@_W@__crt_stdio_output@@@2@@__crt_stdio_output@@AEAA_NXZ 00000001800183c4 f i libucrt:output.obj
 0001:00017478       ?type_case_s@?$output_processor@_WV?$string_output_adapter@_W@__crt_stdio_output@@V?$format_validation_base@_WV?$string_output_adapter@_W@__crt_stdio_output@@@2@@__crt_stdio_output@@AEAA_NXZ 0000000180018478 f i libucrt:output.obj
 0001:00017510       ?type_case_s_compute_narrow_string_length@?$output_processor@_WV?$string_output_adapter@_W@__crt_stdio_output@@V?$format_validation_base@_WV?$string_output_adapter@_W@__crt_stdio_output@@@2@@__crt_stdio_output@@AEAAHH_W@Z 0000000180018510 f i libucrt:output.obj
 0001:00017590       ?update_locale_slow@__crt_cached_ptd_host@@AEAAXXZ 0000000180018590 f i libucrt:output.obj
 0001:00017608       ?write_string@?$string_output_adapter@_W@__crt_stdio_output@@QEBAXQEB_WHQEAHAEAV__crt_cached_ptd_host@@@Z 0000000180018608 f i libucrt:output.obj
 0001:000176b0       __stdio_common_vswprintf_s 00000001800186b0 f   libucrt:output.obj
 0001:000177c4       _seh_filter_dll            00000001800187c4 f   libucrt:exception_filter.obj
 0001:000177d8       _seh_filter_exe            00000001800187d8 f   libucrt:exception_filter.obj
 0001:00017bfc       __acrt_initialize_thread_local_exit_callback 0000000180018bfc f   libucrt:exit.obj
 0001:00017c04       _cexit                     0000000180018c04 f   libucrt:exit.obj
 0001:00017c14       _exit                      0000000180018c14 f   libucrt:exit.obj
 0001:00017c20       _is_c_termination_complete 0000000180018c20 f   libucrt:exit.obj
 0001:00017de8       __acrt_allocate_buffer_for_argv 0000000180018de8 f   libucrt:argv_parsing.obj
 0001:00017e48       _configure_narrow_argv     0000000180018e48 f   libucrt:argv_parsing.obj
 0001:000181d0       __dcrt_uninitialize_environments_nolock 00000001800191d0 f   libucrt:environment_initialization.obj
 0001:00018214       _initialize_narrow_environment 0000000180019214 f   libucrt:environment_initialization.obj
 0001:00018564       _crt_atexit                0000000180019564 f   libucrt:onexit.obj
 0001:00018574       _execute_onexit_table      0000000180019574 f   libucrt:onexit.obj
 0001:000185b8       _initialize_onexit_table   00000001800195b8 f   libucrt:onexit.obj
 0001:000185e0       _register_onexit_function  00000001800195e0 f   libucrt:onexit.obj
 0001:00018660       __acrt_uninitialize_command_line 0000000180019660 f   libucrt:argv_data.obj
 0001:00018758       __acrt_initialize          0000000180019758 f   libucrt:initialization.obj
 0001:0001876c       __acrt_thread_attach       000000018001976c f   libucrt:initialization.obj
 0001:00018780       __acrt_thread_detach       0000000180019780 f   libucrt:initialization.obj
 0001:00018790       __acrt_uninitialize        0000000180019790 f   libucrt:initialization.obj
 0001:000187c8       __acrt_uninitialize_critical 00000001800197c8 f   libucrt:initialization.obj
 0001:000187d8       _initterm                  00000001800197d8 f   libucrt:initterm.obj
 0001:0001881c       _initterm_e                000000018001981c f   libucrt:initterm.obj
 0001:00018864       __acrt_initialize_new_handler 0000000180019864 f   libucrt:new_handler.obj
 0001:0001886c       _callnewh                  000000018001986c f   libucrt:new_handler.obj
 0001:000188a8       _query_new_handler         00000001800198a8 f   libucrt:new_handler.obj
 0001:000188dc       terminate                  00000001800198dc f   libucrt:terminate.obj
 0001:00018908       abort                      0000000180019908 f   libucrt:abort.obj
 0001:00018960       strcpy_s                   0000000180019960 f   libucrt:strcpy_s.obj
 0001:000189d0       strncmp                    00000001800199d0 f   libucrt:strncmp.obj
 0001:00018a50       wcsncmp                    0000000180019a50 f   libucrt:wcsncmp.obj
 0001:00018a7c       _free_base                 0000000180019a7c f   libucrt:free_base.obj
 0001:00018e30       __acrt_freeptd             0000000180019e30 f   libucrt:per_thread_data.obj
 0001:00018e74       __acrt_getptd              0000000180019e74 f   libucrt:per_thread_data.obj
 0001:00018f48       __acrt_getptd_head         0000000180019f48 f   libucrt:per_thread_data.obj
 0001:00018fec       __acrt_getptd_noexit       0000000180019fec f   libucrt:per_thread_data.obj
 0001:000190b4       __acrt_getptd_noexit_explicit 000000018001a0b4 f   libucrt:per_thread_data.obj
 0001:00019174       __acrt_initialize_ptd      000000018001a174 f   libucrt:per_thread_data.obj
 0001:000191b0       __acrt_uninitialize_ptd    000000018001a1b0 f   libucrt:per_thread_data.obj
 0001:00019244       __acrt_set_locale_changed  000000018001a244 f   libucrt:wsetlocale.obj
 0001:00019250       __acrt_uninitialize_locale 000000018001a250 f   libucrt:wsetlocale.obj
 0001:00019280       _calloc_base               000000018001a280 f   libucrt:calloc_base.obj
 0001:000192f8       _malloc_base               000000018001a2f8 f   libucrt:malloc_base.obj
 0001:00019358       _msize_base                000000018001a358 f   libucrt:msize.obj
 0001:00019394       _realloc_base              000000018001a394 f   libucrt:realloc_base.obj
 0001:000195d0       __acrt_AppPolicyGetProcessTerminationMethodInternal 000000018001a5d0 f   libucrt:winapi_thunks.obj
 0001:00019628       __acrt_AreFileApisANSI     000000018001a628 f   libucrt:winapi_thunks.obj
 0001:0001966c       __acrt_FlsAlloc            000000018001a66c f   libucrt:winapi_thunks.obj
 0001:00019674       __acrt_FlsFree             000000018001a674 f   libucrt:winapi_thunks.obj
 0001:0001967c       __acrt_FlsGetValue         000000018001a67c f   libucrt:winapi_thunks.obj
 0001:00019684       __acrt_FlsSetValue         000000018001a684 f   libucrt:winapi_thunks.obj
 0001:0001968c       __acrt_InitializeCriticalSectionEx 000000018001a68c f   libucrt:winapi_thunks.obj
 0001:000196fc       __acrt_LCMapStringEx       000000018001a6fc f   libucrt:winapi_thunks.obj
 0001:000197e8       __acrt_LocaleNameToLCID    000000018001a7e8 f   libucrt:winapi_thunks.obj
 0001:00019848       __acrt_SetThreadStackGuarantee 000000018001a848 f   libucrt:winapi_thunks.obj
 0001:00019894       __acrt_initialize_winapi_thunks 000000018001a894 f   libucrt:winapi_thunks.obj
 0001:000198b8       __acrt_uninitialize_winapi_thunks 000000018001a8b8 f   libucrt:winapi_thunks.obj
 0001:000198fc       wcsnlen                    000000018001a8fc f   libucrt:strnlen.obj
 0001:00019ad4       __acrt_update_locale_info  000000018001aad4 f   libucrt:locale_update.obj
 0001:00019b08       __acrt_update_locale_info_explicit 000000018001ab08 f   libucrt:locale_update.obj
 0001:00019b40       __acrt_update_multibyte_info 000000018001ab40 f   libucrt:locale_update.obj
 0001:00019b74       __acrt_update_multibyte_info_explicit 000000018001ab74 f   libucrt:locale_update.obj
 0001:0001a6dc       __acrt_fp_format           000000018001b6dc f   libucrt:cvt.obj
 0001:0001a9c4       _mbtowc_internal           000000018001b9c4 f   libucrt:mbtowc.obj
 0001:0001ab3c       _fileno                    000000018001bb3c f   libucrt:fileno.obj
 0001:0001ab64       __acrt_initialize_stdio    000000018001bb64 f   libucrt:_file.obj
 0001:0001ac84       __acrt_uninitialize_stdio  000000018001bc84 f   libucrt:_file.obj
 0001:0001ace0       _lock_file                 000000018001bce0 f   libucrt:_file.obj
 0001:0001acec       _unlock_file               000000018001bcec f   libucrt:_file.obj
 0001:0001acf8       _get_printf_count_output   000000018001bcf8 f   libucrt:printf_count_output.obj
 0001:0001af08       __acrt_initialize_lowio    000000018001bf08 f   libucrt:ioinit.obj
 0001:0001af44       __acrt_uninitialize_lowio  000000018001bf44 f   libucrt:ioinit.obj
 0001:0001af84       __acrt_initialize_locks    000000018001bf84 f   libucrt:locks.obj
 0001:0001afcc       __acrt_lock                000000018001bfcc f   libucrt:locks.obj
 0001:0001afe8       __acrt_uninitialize_locks  000000018001bfe8 f   libucrt:locks.obj
 0001:0001b020       __acrt_unlock              000000018001c020 f   libucrt:locks.obj
 0001:0001b03c       __acrt_get_process_end_policy 000000018001c03c f   libucrt:win_policies.obj
 0001:0001b08c       ??$__acrt_convert_wcs_mbs_cp@D_WV<lambda_7c9dea7b4ca7285d2cdb541a38da6275>@@U__crt_win32_buffer_internal_dynamic_resizing@@@@YAHQEBDAEAV?$__crt_win32_buffer@_WU__crt_win32_buffer_internal_dynamic_resizing@@@@AEBV<lambda_7c9dea7b4ca7285d2cdb541a38da6275>@@I@Z 000000018001c08c f i libucrt:argv_wildcards.obj
 0001:0001b208       ??$__acrt_convert_wcs_mbs_cp@_WDV<lambda_d8593a27d1aa8c02be35c86a17d324c4>@@U__crt_win32_buffer_internal_dynamic_resizing@@@@YAHQEB_WAEAV?$__crt_win32_buffer@DU__crt_win32_buffer_internal_dynamic_resizing@@@@AEBV<lambda_d8593a27d1aa8c02be35c86a17d324c4>@@I@Z 000000018001c208 f i libucrt:argv_wildcards.obj
 0001:0001bab0       ??0_LocaleUpdate@@QEAA@QEAU__crt_locale_pointers@@@Z 000000018001cab0 f i libucrt:argv_wildcards.obj
 0001:0001bb4c       __acrt_expand_narrow_argv_wildcards 000000018001cb4c f   libucrt:argv_wildcards.obj
 0001:0001bb54       ??$__acrt_convert_wcs_mbs_cp@_WDV<lambda_f788ae46380686e8b737efdd8c720d07>@@U__crt_win32_buffer_no_resizing@@@@YAHQEB_WAEAV?$__crt_win32_buffer@DU__crt_win32_buffer_no_resizing@@@@AEBV<lambda_f788ae46380686e8b737efdd8c720d07>@@I@Z 000000018001cb54 f i libucrt:getmodulefilenamea.obj
 0001:0001bc70       __acrt_GetModuleFileNameA  000000018001cc70 f   libucrt:getmodulefilenamea.obj
 0001:0001c58c       __acrt_initialize_multibyte 000000018001d58c f   libucrt:mbctype.obj
 0001:0001c5ec       __acrt_update_thread_multibyte_data 000000018001d5ec f   libucrt:mbctype.obj
 0001:0001c608       _setmbcp_nolock            000000018001d608 f   libucrt:mbctype.obj
 0001:0001c93c       _ismbblead                 000000018001d93c f   libucrt:ismbbyte.obj
 0001:0001c950       __acrt_initialize_command_line 000000018001d950 f   libucrt:argv_data.obj
 0001:0001c978       __acrt_MultiByteToWideChar 000000018001d978 f   libucrt:multibytetowidechar.obj
 0001:0001c9d4       __acrt_WideCharToMultiByte 000000018001d9d4 f   libucrt:widechartomultibyte.obj
 0001:0001ca84       __dcrt_get_narrow_environment_from_os 000000018001da84 f   libucrt:get_environment_from_os.obj
 0001:0001cb94       __acrt_initialize_heap     000000018001db94 f   libucrt:heap_handle.obj
 0001:0001cbb0       __acrt_uninitialize_heap   000000018001dbb0 f   libucrt:heap_handle.obj
 0001:0001cbbc       __acrt_execute_initializers 000000018001dbbc f   libucrt:shared_initialization.obj
 0001:0001cc50       __acrt_execute_uninitializers 000000018001dc50 f   libucrt:shared_initialization.obj
 0001:0001cce0       __acrt_get_sigabrt_handler 000000018001dce0 f   libucrt:signal.obj
 0001:0001cd10       __acrt_initialize_signal_handlers 000000018001dd10 f   libucrt:signal.obj
 0001:0001cd30       raise                      000000018001dd30 f   libucrt:signal.obj
 0001:0001cfb0       __acrt_has_user_matherr    000000018001dfb0 f   libucrt:matherr.obj
 0001:0001cfd0       __acrt_initialize_user_matherr 000000018001dfd0 f   libucrt:matherr.obj
 0001:0001cfd8       __acrt_invoke_user_matherr 000000018001dfd8 f   libucrt:matherr.obj
 0001:0001d1ec       __acrt_stdio_flush_nolock  000000018001e1ec f   libucrt:fflush.obj
 0001:0001d278       _fflush_nolock             000000018001e278 f   libucrt:fflush.obj
 0001:0001d34c       _flushall                  000000018001e34c f   libucrt:fflush.obj
 0001:0001d354       __acrt_add_locale_ref      000000018001e354 f   libucrt:locale_refcounting.obj
 0001:0001d3e0       __acrt_free_locale         000000018001e3e0 f   libucrt:locale_refcounting.obj
 0001:0001d558       __acrt_locale_add_lc_time_reference 000000018001e558 f   libucrt:locale_refcounting.obj
 0001:0001d580       __acrt_locale_free_lc_time_if_unreferenced 000000018001e580 f   libucrt:locale_refcounting.obj
 0001:0001d5b8       __acrt_locale_release_lc_time_reference 000000018001e5b8 f   libucrt:locale_refcounting.obj
 0001:0001d5e0       __acrt_release_locale_ref  000000018001e5e0 f   libucrt:locale_refcounting.obj
 0001:0001d688       __acrt_update_thread_locale_data 000000018001e688 f   libucrt:locale_refcounting.obj
 0001:0001d6f8       _updatetlocinfoEx_nolock   000000018001e6f8 f   libucrt:locale_refcounting.obj
 0001:0001d760       __acrt_locale_free_monetary 000000018001e760 f   libucrt:initmon.obj
 0001:0001d86c       __acrt_locale_free_numeric 000000018001e86c f   libucrt:initnum.obj
 0001:0001d90c       __acrt_locale_free_time    000000018001e90c f   libucrt:inittime.obj
 0001:0001da14       __acrt_GetStringTypeA      000000018001ea14 f   libucrt:getstringtypea.obj
 0001:0001dbb0       _query_new_mode            000000018001ebb0 f   libucrt:new_mode.obj
 0001:0001dbb8       __acrt_DownlevelLocaleNameToLCID 000000018001ebb8 f   libucrt:lcidtoname_downlevel.obj
 0001:0001dc60       __acrt_fp_strflt_to_string 000000018001ec60 f   libucrt:_fptostr.obj
 0001:0001ddf0       ?divide@__crt_strtox@@YA_KAEAUbig_integer@1@AEBU21@@Z 000000018001edf0 f i libucrt:cfout.obj
 0001:0001e27c       __acrt_fltout              000000018001f27c f   libucrt:cfout.obj
 0001:0001f544       fegetround                 0000000180020544 f   libucrt:fegetround.obj
 0001:0001f558       ?__mbrtowc_utf8@__crt_mbstring@@YA_KPEA_WPEBD_KPEAU_Mbstatet@@AEAV__crt_cached_ptd_host@@@Z 0000000180020558 f   libucrt:mbrtowc.obj
 0001:0001f59c       ?__mbsrtowcs_utf8@__crt_mbstring@@YA_KPEA_WPEAPEBD_KPEAU_Mbstatet@@AEAV__crt_cached_ptd_host@@@Z 000000018002059c f   libucrt:mbrtowc.obj
 0001:0001f740       _fcloseall                 0000000180020740 f   libucrt:closeall.obj
 0001:0001f7f4       __acrt_stdio_free_buffer_nolock 00000001800207f4 f   libucrt:_freebuf.obj
 0001:0001f834       _isatty                    0000000180020834 f   libucrt:isatty.obj
 0001:0001f894       __acrt_lowio_create_handle_array 0000000180020894 f   libucrt:osfinfo.obj
 0001:0001f93c       __acrt_lowio_destroy_handle_array 000000018002093c f   libucrt:osfinfo.obj
 0001:0001f98c       __acrt_lowio_ensure_fh_exists 000000018002098c f   libucrt:osfinfo.obj
 0001:0001fa34       __acrt_lowio_lock_fh       0000000180020a34 f   libucrt:osfinfo.obj
 0001:0001fa5c       __acrt_lowio_unlock_fh     0000000180020a5c f   libucrt:osfinfo.obj
 0001:0001fa84       _free_osfhnd               0000000180020a84 f   libucrt:osfinfo.obj
 0001:0001fb40       _get_osfhandle             0000000180020b40 f   libucrt:osfinfo.obj
 0001:0001fbc0       qsort                      0000000180020bc0 f   libucrt:qsort.obj
 0001:0001ffd0       strncpy_s                  0000000180020fd0 f   libucrt:strncpy_s.obj
 0001:00020160       strpbrk                    0000000180021160 f   libucrt:strpbrk.obj
 0001:00020528       _mbsdec                    0000000180021528 f   libucrt:mbsdec.obj
 0001:00020530       _mbsdec_l                  0000000180021530 f   libucrt:mbsdec.obj
 0001:000208e4       __acrt_LCMapStringA        00000001800218e4 f   libucrt:lcmapstringa.obj
 0001:00020a20       _commit                    0000000180021a20 f   libucrt:commit.obj
 0001:000212d0       _write_internal            00000001800222d0 f   libucrt:write.obj
 0001:000213f8       _write_nolock              00000001800223f8 f   libucrt:write.obj
 0001:00021708       __ascii_wcsnicmp           0000000180022708 f   libucrt:wcsnicmp.obj
 0001:00021754       _controlfp_s               0000000180022754 f   libucrt:contrlfp.obj
 0001:000217b8       fegetenv                   00000001800227b8 f   libucrt:fegetenv.obj
 0001:000217d8       fesetenv                   00000001800227d8 f   libucrt:fesetenv.obj
 0001:00021824       feholdexcept               0000000180022824 f   libucrt:feholdexcept.obj
 0001:00021874       ceil                       0000000180022874 f   libucrt:ceil.obj
 0001:00021940       log10                      0000000180022940 f   libucrt:log10.obj
 0001:00021eec       __acrt_fenv_get_common_round_control 0000000180022eec f   libucrt:_fenvutils.obj
 0001:00021ef8       __acrt_fenv_get_control    0000000180022ef8 f   libucrt:_fenvutils.obj
 0001:00021fdc       __acrt_fenv_get_status     0000000180022fdc f   libucrt:_fenvutils.obj
 0001:00022034       __acrt_fenv_set_control    0000000180023034 f   libucrt:_fenvutils.obj
 0001:00022170       __acrt_fenv_set_status     0000000180023170 f   libucrt:_fenvutils.obj
 0001:000221e4       ?reset_and_return@__crt_mbstring@@YA_K_KPEAU_Mbstatet@@@Z 00000001800231e4 f   libucrt:common_utf8.obj
 0001:000221ec       ?return_illegal_sequence@__crt_mbstring@@YA_KPEAU_Mbstatet@@AEAV__crt_cached_ptd_host@@@Z 00000001800231ec f   libucrt:common_utf8.obj
 0001:00022200       ?__mbrtoc32_utf8@__crt_mbstring@@YA_KPEA_UPEBD_KPEAU_Mbstatet@@AEAV__crt_cached_ptd_host@@@Z 0000000180023200 f   libucrt:mbrtoc32.obj
 0001:000224fc       fclose                     00000001800234fc f   libucrt:fclose.obj
 0001:00022640       _lseeki64_nolock_internal  0000000180023640 f   libucrt:lseek.obj
 0001:00022648       _query_app_type            0000000180023648 f   libucrt:report_runtime_error.obj
 0001:00022650       __strncnt                  0000000180023650 f   libucrt:strncnt.obj
 0001:00022668       _putwch_nolock             0000000180023668 f   libucrt:putwch.obj
 0001:000226a4       _clearfp                   00000001800236a4 f   libucrt:ieee.obj
 0001:00022714       _control87                 0000000180023714 f   libucrt:ieee.obj
 0001:00022b00       _handle_error              0000000180023b00 f   libucrt:libm_error.obj
 0001:00022c28       _handle_nan                0000000180023c28 f   libucrt:libm_error.obj
 0001:00022c50       __acrt_initialize_fma3     0000000180023c50 f   libucrt:fma3_available.obj
 0001:00022cc0       _log10_special             0000000180023cc0 f   libucrt:log_special.obj
 0001:00022df0       _close_internal            0000000180023df0 f   libucrt:close.obj
 0001:00022eb4       _close_nolock_internal     0000000180023eb4 f   libucrt:close.obj
 0001:00022f84       ?__acrt_stdio_free_stream@@YAXV__crt_stdio_stream@@@Z 0000000180023f84 f   libucrt:stream.obj
 0001:00022fa0       __dcrt_lowio_ensure_console_output_initialized 0000000180023fa0 f   libucrt:initcon.obj
 0001:00022ff4       __dcrt_terminate_console_output 0000000180023ff4 f   libucrt:initcon.obj
 0001:00023010       __dcrt_write_console       0000000180024010 f   libucrt:initcon.obj
 0001:000230e0       _get_fpsr                  00000001800240e0 f   libucrt:fpsr.obj
 0001:000230f0       _set_fpsr                  00000001800240f0 f   libucrt:fpsr.obj
 0001:000230fa       _fclrf                     00000001800240fa f   libucrt:fpsr.obj
 0001:0002310e       _frnd                      000000018002410e f   libucrt:fpsr.obj
 0001:00023130       _raise_exc                 0000000180024130 f   libucrt:fpexcept.obj
 0001:00023158       _raise_exc_ex              0000000180024158 f   libucrt:fpexcept.obj
 0001:00023468       _set_errno_from_matherr    0000000180024468 f   libucrt:fpexcept.obj
 0001:00023498       _clrfp                     0000000180024498 f   libucrt:fpctrl.obj
 0001:000234b8       _ctrlfp                    00000001800244b8 f   libucrt:fpctrl.obj
 0001:00023534       _set_statfp                0000000180024534 f   libucrt:fpctrl.obj
 0001:00023554       _statfp                    0000000180024554 f   libucrt:fpctrl.obj
 0001:00023570       _FindPESection             0000000180024570 f   LIBCMT:pesect.obj
 0001:000235c0       _IsNonwritableInCurrentImage 00000001800245c0 f   LIBCMT:pesect.obj
 0001:00023610       _ValidateImageBase         0000000180024610 f   LIBCMT:pesect.obj
 0001:0002363c       __GSHandlerCheck_EH        000000018002463c f   LIBCMT:gshandlereh.obj
 0001:000236bc       __C_specific_handler_noexcept 00000001800246bc f   libvcruntime:chandler_noexcept.obj
 0001:00023708       strrchr                    0000000180024708 f   libvcruntime:strrchr.obj
 0001:00023860       _guard_dispatch_icall_nop  0000000180024860 f   LIBCMT:guard_dispatch.obj
 0001:00023880       _guard_xfg_dispatch_icall_nop 0000000180024880 f   LIBCMT:guard_xfg_dispatch.obj
 0002:00000000       __imp_RegQueryValueExW     0000000180025000     advapi32:ADVAPI32.dll
 0002:00000008       __imp_RegSetValueExW       0000000180025008     advapi32:ADVAPI32.dll
 0002:00000010       __imp_RegQueryInfoKeyW     0000000180025010     advapi32:ADVAPI32.dll
 0002:00000018       __imp_RegOpenKeyExW        0000000180025018     advapi32:ADVAPI32.dll
 0002:00000020       __imp_RegEnumKeyExW        0000000180025020     advapi32:ADVAPI32.dll
 0002:00000028       __imp_RegDeleteValueW      0000000180025028     advapi32:ADVAPI32.dll
 0002:00000030       __imp_RegDeleteKeyW        0000000180025030     advapi32:ADVAPI32.dll
 0002:00000038       __imp_RegCreateKeyExW      0000000180025038     advapi32:ADVAPI32.dll
 0002:00000040       __imp_RegCloseKey          0000000180025040     advapi32:ADVAPI32.dll
 0002:00000048       \177ADVAPI32_NULL_THUNK_DATA 0000000180025048     advapi32:ADVAPI32.dll
 0002:00000050       __imp_GetObjectW           0000000180025050     gdi32:GDI32.dll
 0002:00000058       __imp_SelectObject         0000000180025058     gdi32:GDI32.dll
 0002:00000060       __imp_DeleteObject         0000000180025060     gdi32:GDI32.dll
 0002:00000068       __imp_CreateCompatibleDC   0000000180025068     gdi32:GDI32.dll
 0002:00000070       __imp_BitBlt               0000000180025070     gdi32:GDI32.dll
 0002:00000078       __imp_SetWindowOrgEx       0000000180025078     gdi32:GDI32.dll
 0002:00000080       __imp_SetWindowExtEx       0000000180025080     gdi32:GDI32.dll
 0002:00000088       __imp_SetViewportOrgEx     0000000180025088     gdi32:GDI32.dll
 0002:00000090       __imp_LPtoDP               0000000180025090     gdi32:GDI32.dll
 0002:00000098       __imp_SetMapMode           0000000180025098     gdi32:GDI32.dll
 0002:000000a0       __imp_SaveDC               00000001800250a0     gdi32:GDI32.dll
 0002:000000a8       __imp_RestoreDC            00000001800250a8     gdi32:GDI32.dll
 0002:000000b0       __imp_GetDeviceCaps        00000001800250b0     gdi32:GDI32.dll
 0002:000000b8       __imp_DeleteMetaFile       00000001800250b8     gdi32:GDI32.dll
 0002:000000c0       __imp_DeleteDC             00000001800250c0     gdi32:GDI32.dll
 0002:000000c8       __imp_CreateRectRgnIndirect 00000001800250c8     gdi32:GDI32.dll
 0002:000000d0       __imp_CreateMetaFileW      00000001800250d0     gdi32:GDI32.dll
 0002:000000d8       __imp_CreateDCW            00000001800250d8     gdi32:GDI32.dll
 0002:000000e0       __imp_CloseMetaFile        00000001800250e0     gdi32:GDI32.dll
 0002:000000e8       \177GDI32_NULL_THUNK_DATA  00000001800250e8     gdi32:GDI32.dll
 0002:000000f0       __imp_CloseHandle          00000001800250f0     kernel32:KERNEL32.dll
 0002:000000f8       __imp_SetEvent             00000001800250f8     kernel32:KERNEL32.dll
 0002:00000100       __imp_CreateMutexW         0000000180025100     kernel32:KERNEL32.dll
 0002:00000108       __imp_CreateEventW         0000000180025108     kernel32:KERNEL32.dll
 0002:00000110       __imp_GetCurrentProcessId  0000000180025110     kernel32:KERNEL32.dll
 0002:00000118       __imp_WriteConsoleW        0000000180025118     kernel32:KERNEL32.dll
 0002:00000120       __imp_CreateFileW          0000000180025120     kernel32:KERNEL32.dll
 0002:00000128       __imp_GetConsoleMode       0000000180025128     kernel32:KERNEL32.dll
 0002:00000130       __imp_GetConsoleOutputCP   0000000180025130     kernel32:KERNEL32.dll
 0002:00000138       __imp_WriteFile            0000000180025138     kernel32:KERNEL32.dll
 0002:00000140       __imp_FlushFileBuffers     0000000180025140     kernel32:KERNEL32.dll
 0002:00000148       __imp_SetStdHandle         0000000180025148     kernel32:KERNEL32.dll
 0002:00000150       __imp_SetFilePointerEx     0000000180025150     kernel32:KERNEL32.dll
 0002:00000158       __imp_GetStringTypeW       0000000180025158     kernel32:KERNEL32.dll
 0002:00000160       __imp_FreeEnvironmentStringsW 0000000180025160     kernel32:KERNEL32.dll
 0002:00000168       __imp_lstrcmpiW            0000000180025168     kernel32:KERNEL32.dll
 0002:00000170       __imp_GetCommandLineW      0000000180025170     kernel32:KERNEL32.dll
 0002:00000178       __imp_GetCommandLineA      0000000180025178     kernel32:KERNEL32.dll
 0002:00000180       __imp_GetCPInfo            0000000180025180     kernel32:KERNEL32.dll
 0002:00000188       __imp_GetOEMCP             0000000180025188     kernel32:KERNEL32.dll
 0002:00000190       __imp_GetACP               0000000180025190     kernel32:KERNEL32.dll
 0002:00000198       __imp_IsValidCodePage      0000000180025198     kernel32:KERNEL32.dll
 0002:000001a0       __imp_FindNextFileW        00000001800251a0     kernel32:KERNEL32.dll
 0002:000001a8       __imp_FindFirstFileExW     00000001800251a8     kernel32:KERNEL32.dll
 0002:000001b0       __imp_FindClose            00000001800251b0     kernel32:KERNEL32.dll
 0002:000001b8       __imp_GetFileType          00000001800251b8     kernel32:KERNEL32.dll
 0002:000001c0       __imp_GetStdHandle         00000001800251c0     kernel32:KERNEL32.dll
 0002:000001c8       __imp_LCMapStringW         00000001800251c8     kernel32:KERNEL32.dll
 0002:000001d0       __imp_FlsFree              00000001800251d0     kernel32:KERNEL32.dll
 0002:000001d8       __imp_FlsSetValue          00000001800251d8     kernel32:KERNEL32.dll
 0002:000001e0       __imp_MulDiv               00000001800251e0     kernel32:KERNEL32.dll
 0002:000001e8       __imp_GlobalLock           00000001800251e8     kernel32:KERNEL32.dll
 0002:000001f0       __imp_GlobalUnlock         00000001800251f0     kernel32:KERNEL32.dll
 0002:000001f8       __imp_GlobalAlloc          00000001800251f8     kernel32:KERNEL32.dll
 0002:00000200       __imp_FindResourceW        0000000180025200     kernel32:KERNEL32.dll
 0002:00000208       __imp_SizeofResource       0000000180025208     kernel32:KERNEL32.dll
 0002:00000210       __imp_LoadResource         0000000180025210     kernel32:KERNEL32.dll
 0002:00000218       __imp_LoadLibraryExW       0000000180025218     kernel32:KERNEL32.dll
 0002:00000220       __imp_GetProcAddress       0000000180025220     kernel32:KERNEL32.dll
 0002:00000228       __imp_GetModuleHandleW     0000000180025228     kernel32:KERNEL32.dll
 0002:00000230       __imp_GetModuleFileNameW   0000000180025230     kernel32:KERNEL32.dll
 0002:00000238       __imp_FreeLibrary          0000000180025238     kernel32:KERNEL32.dll
 0002:00000240       __imp_DisableThreadLibraryCalls 0000000180025240     kernel32:KERNEL32.dll
 0002:00000248       __imp_GetCurrentThreadId   0000000180025248     kernel32:KERNEL32.dll
 0002:00000250       __imp_Sleep                0000000180025250     kernel32:KERNEL32.dll
 0002:00000258       __imp_WaitForSingleObject  0000000180025258     kernel32:KERNEL32.dll
 0002:00000260       __imp_ReleaseMutex         0000000180025260     kernel32:KERNEL32.dll
 0002:00000268       __imp_ResetEvent           0000000180025268     kernel32:KERNEL32.dll
 0002:00000270       __imp_EnterCriticalSection 0000000180025270     kernel32:KERNEL32.dll
 0002:00000278       __imp_LeaveCriticalSection 0000000180025278     kernel32:KERNEL32.dll
 0002:00000280       __imp_SetLastError         0000000180025280     kernel32:KERNEL32.dll
 0002:00000288       __imp_EncodePointer        0000000180025288     kernel32:KERNEL32.dll
 0002:00000290       __imp_DeleteCriticalSection 0000000180025290     kernel32:KERNEL32.dll
 0002:00000298       __imp_InitializeCriticalSectionEx 0000000180025298     kernel32:KERNEL32.dll
 0002:000002a0       __imp_GetLastError         00000001800252a0     kernel32:KERNEL32.dll
 0002:000002a8       __imp_RaiseException       00000001800252a8     kernel32:KERNEL32.dll
 0002:000002b0       __imp_DecodePointer        00000001800252b0     kernel32:KERNEL32.dll
 0002:000002b8       __imp_WideCharToMultiByte  00000001800252b8     kernel32:KERNEL32.dll
 0002:000002c0       __imp_GetEnvironmentStringsW 00000001800252c0     kernel32:KERNEL32.dll
 0002:000002c8       __imp_MultiByteToWideChar  00000001800252c8     kernel32:KERNEL32.dll
 0002:000002d0       __imp_FlsGetValue          00000001800252d0     kernel32:KERNEL32.dll
 0002:000002d8       __imp_FlsAlloc             00000001800252d8     kernel32:KERNEL32.dll
 0002:000002e0       __imp_HeapReAlloc          00000001800252e0     kernel32:KERNEL32.dll
 0002:000002e8       __imp_HeapSize             00000001800252e8     kernel32:KERNEL32.dll
 0002:000002f0       __imp_GetModuleHandleExW   00000001800252f0     kernel32:KERNEL32.dll
 0002:000002f8       __imp_ExitProcess          00000001800252f8     kernel32:KERNEL32.dll
 0002:00000300       __imp_VirtualQuery         0000000180025300     kernel32:KERNEL32.dll
 0002:00000308       __imp_VirtualProtect       0000000180025308     kernel32:KERNEL32.dll
 0002:00000310       __imp_GetSystemInfo        0000000180025310     kernel32:KERNEL32.dll
 0002:00000318       __imp_TlsFree              0000000180025318     kernel32:KERNEL32.dll
 0002:00000320       __imp_TlsSetValue          0000000180025320     kernel32:KERNEL32.dll
 0002:00000328       __imp_TlsGetValue          0000000180025328     kernel32:KERNEL32.dll
 0002:00000330       __imp_TlsAlloc             0000000180025330     kernel32:KERNEL32.dll
 0002:00000338       __imp_RtlPcToFileHeader    0000000180025338     kernel32:KERNEL32.dll
 0002:00000340       __imp_InterlockedFlushSList 0000000180025340     kernel32:KERNEL32.dll
 0002:00000348       __imp_RtlUnwindEx          0000000180025348     kernel32:KERNEL32.dll
 0002:00000350       __imp_LoadLibraryExA       0000000180025350     kernel32:KERNEL32.dll
 0002:00000358       __imp_VirtualFree          0000000180025358     kernel32:KERNEL32.dll
 0002:00000360       __imp_VirtualAlloc         0000000180025360     kernel32:KERNEL32.dll
 0002:00000368       __imp_FlushInstructionCache 0000000180025368     kernel32:KERNEL32.dll
 0002:00000370       __imp_InterlockedPushEntrySList 0000000180025370     kernel32:KERNEL32.dll
 0002:00000378       __imp_InterlockedPopEntrySList 0000000180025378     kernel32:KERNEL32.dll
 0002:00000380       __imp_GetProcessHeap       0000000180025380     kernel32:KERNEL32.dll
 0002:00000388       __imp_HeapFree             0000000180025388     kernel32:KERNEL32.dll
 0002:00000390       __imp_HeapAlloc            0000000180025390     kernel32:KERNEL32.dll
 0002:00000398       __imp_OutputDebugStringW   0000000180025398     kernel32:KERNEL32.dll
 0002:000003a0       __imp_InitializeSListHead  00000001800253a0     kernel32:KERNEL32.dll
 0002:000003a8       __imp_GetSystemTimeAsFileTime 00000001800253a8     kernel32:KERNEL32.dll
 0002:000003b0       __imp_QueryPerformanceCounter 00000001800253b0     kernel32:KERNEL32.dll
 0002:000003b8       __imp_GetStartupInfoW      00000001800253b8     kernel32:KERNEL32.dll
 0002:000003c0       __imp_InitializeCriticalSectionAndSpinCount 00000001800253c0     kernel32:KERNEL32.dll
 0002:000003c8       __imp_WaitForSingleObjectEx 00000001800253c8     kernel32:KERNEL32.dll
 0002:000003d0       __imp_RtlCaptureContext    00000001800253d0     kernel32:KERNEL32.dll
 0002:000003d8       __imp_RtlLookupFunctionEntry 00000001800253d8     kernel32:KERNEL32.dll
 0002:000003e0       __imp_RtlVirtualUnwind     00000001800253e0     kernel32:KERNEL32.dll
 0002:000003e8       __imp_UnhandledExceptionFilter 00000001800253e8     kernel32:KERNEL32.dll
 0002:000003f0       __imp_SetUnhandledExceptionFilter 00000001800253f0     kernel32:KERNEL32.dll
 0002:000003f8       __imp_GetCurrentProcess    00000001800253f8     kernel32:KERNEL32.dll
 0002:00000400       __imp_TerminateProcess     0000000180025400     kernel32:KERNEL32.dll
 0002:00000408       __imp_IsProcessorFeaturePresent 0000000180025408     kernel32:KERNEL32.dll
 0002:00000410       __imp_IsDebuggerPresent    0000000180025410     kernel32:KERNEL32.dll
 0002:00000418       \177KERNEL32_NULL_THUNK_DATA 0000000180025418     kernel32:KERNEL32.dll
 0002:00000420       __imp_OleCreatePropertyFrame 0000000180025420     oleaut32:OLEAUT32.dll
 0002:00000428       __imp_UnRegisterTypeLib    0000000180025428     oleaut32:OLEAUT32.dll
 0002:00000430       __imp_RegisterTypeLib      0000000180025430     oleaut32:OLEAUT32.dll
 0002:00000438       __imp_LoadRegTypeLib       0000000180025438     oleaut32:OLEAUT32.dll
 0002:00000440       __imp_LoadTypeLib          0000000180025440     oleaut32:OLEAUT32.dll
 0002:00000448       __imp_VarUI4FromStr        0000000180025448     oleaut32:OLEAUT32.dll
 0002:00000450       __imp_VariantInit          0000000180025450     oleaut32:OLEAUT32.dll
 0002:00000458       __imp_SysAllocStringByteLen 0000000180025458     oleaut32:OLEAUT32.dll
 0002:00000460       __imp_SysStringByteLen     0000000180025460     oleaut32:OLEAUT32.dll
 0002:00000468       __imp_VariantChangeType    0000000180025468     oleaut32:OLEAUT32.dll
 0002:00000470       __imp_VariantClear         0000000180025470     oleaut32:OLEAUT32.dll
 0002:00000478       __imp_SysStringLen         0000000180025478     oleaut32:OLEAUT32.dll
 0002:00000480       __imp_SysFreeString        0000000180025480     oleaut32:OLEAUT32.dll
 0002:00000488       __imp_SysAllocStringLen    0000000180025488     oleaut32:OLEAUT32.dll
 0002:00000490       __imp_SysAllocString       0000000180025490     oleaut32:OLEAUT32.dll
 0002:00000498       \177OLEAUT32_NULL_THUNK_DATA 0000000180025498     oleaut32:OLEAUT32.dll
 0002:000004a0       __imp_UnregisterClassW     00000001800254a0     user32:USER32.dll
 0002:000004a8       __imp_PostMessageW         00000001800254a8     user32:USER32.dll
 0002:000004b0       __imp_DefWindowProcW       00000001800254b0     user32:USER32.dll
 0002:000004b8       __imp_CallWindowProcW      00000001800254b8     user32:USER32.dll
 0002:000004c0       __imp_RegisterClassExW     00000001800254c0     user32:USER32.dll
 0002:000004c8       __imp_GetClassInfoExW      00000001800254c8     user32:USER32.dll
 0002:000004d0       __imp_CreateWindowExW      00000001800254d0     user32:USER32.dll
 0002:000004d8       __imp_IsWindow             00000001800254d8     user32:USER32.dll
 0002:000004e0       __imp_IsChild              00000001800254e0     user32:USER32.dll
 0002:000004e8       __imp_DestroyWindow        00000001800254e8     user32:USER32.dll
 0002:000004f0       __imp_ShowWindow           00000001800254f0     user32:USER32.dll
 0002:000004f8       __imp_SetWindowPos         00000001800254f8     user32:USER32.dll
 0002:00000500       __imp_CharNextW            0000000180025500     user32:USER32.dll
 0002:00000508       __imp_SetFocus             0000000180025508     user32:USER32.dll
 0002:00000510       __imp_LoadBitmapW          0000000180025510     user32:USER32.dll
 0002:00000518       __imp_RegisterClassW       0000000180025518     user32:USER32.dll
 0002:00000520       __imp_PeekMessageW         0000000180025520     user32:USER32.dll
 0002:00000528       __imp_LoadCursorW          0000000180025528     user32:USER32.dll
 0002:00000530       __imp_GetParent            0000000180025530     user32:USER32.dll
 0002:00000538       __imp_SetWindowLongPtrW    0000000180025538     user32:USER32.dll
 0002:00000540       __imp_GetWindowLongPtrW    0000000180025540     user32:USER32.dll
 0002:00000548       __imp_PtInRect             0000000180025548     user32:USER32.dll
 0002:00000550       __imp_EqualRect            0000000180025550     user32:USER32.dll
 0002:00000558       __imp_OffsetRect           0000000180025558     user32:USER32.dll
 0002:00000560       __imp_UnionRect            0000000180025560     user32:USER32.dll
 0002:00000568       __imp_IntersectRect        0000000180025568     user32:USER32.dll
 0002:00000570       __imp_GetClientRect        0000000180025570     user32:USER32.dll
 0002:00000578       __imp_InvalidateRect       0000000180025578     user32:USER32.dll
 0002:00000580       __imp_SetWindowRgn         0000000180025580     user32:USER32.dll
 0002:00000588       __imp_EndPaint             0000000180025588     user32:USER32.dll
 0002:00000590       __imp_BeginPaint           0000000180025590     user32:USER32.dll
 0002:00000598       __imp_ReleaseDC            0000000180025598     user32:USER32.dll
 0002:000005a0       __imp_GetDC                00000001800255a0     user32:USER32.dll
 0002:000005a8       __imp_GetKeyState          00000001800255a8     user32:USER32.dll
 0002:000005b0       __imp_GetFocus             00000001800255b0     user32:USER32.dll
 0002:000005b8       \177USER32_NULL_THUNK_DATA 00000001800255b8     user32:USER32.dll
 0002:000005c0       __imp_CoCreateInstance     00000001800255c0     ole32:ole32.dll
 0002:000005c8       __imp_StringFromGUID2      00000001800255c8     ole32:ole32.dll
 0002:000005d0       __imp_CoTaskMemAlloc       00000001800255d0     ole32:ole32.dll
 0002:000005d8       __imp_CoTaskMemRealloc     00000001800255d8     ole32:ole32.dll
 0002:000005e0       __imp_CoTaskMemFree        00000001800255e0     ole32:ole32.dll
 0002:000005e8       __imp_WriteClassStm        00000001800255e8     ole32:ole32.dll
 0002:000005f0       __imp_CreateDataAdviseHolder 00000001800255f0     ole32:ole32.dll
 0002:000005f8       __imp_OleSaveToStream      00000001800255f8     ole32:ole32.dll
 0002:00000600       __imp_CreateOleAdviseHolder 0000000180025600     ole32:ole32.dll
 0002:00000608       __imp_OleRegGetUserType    0000000180025608     ole32:ole32.dll
 0002:00000610       __imp_OleRegGetMiscStatus  0000000180025610     ole32:ole32.dll
 0002:00000618       __imp_OleRegEnumVerbs      0000000180025618     ole32:ole32.dll
 0002:00000620       __imp_CLSIDFromProgID      0000000180025620     ole32:ole32.dll
 0002:00000628       __imp_ReadClassStm         0000000180025628     ole32:ole32.dll
 0002:00000630       \177ole32_NULL_THUNK_DATA  0000000180025630     ole32:ole32.dll
 0002:00000638       __guard_check_icall_fptr   0000000180025638     LIBCMT:guard_support.obj
 0002:00000640       __guard_xfg_check_icall_fptr 0000000180025640     LIBCMT:guard_support.obj
 0002:00000648       __guard_dispatch_icall_fptr 0000000180025648     LIBCMT:guard_support.obj
 0002:00000650       __guard_xfg_dispatch_icall_fptr 0000000180025650     LIBCMT:guard_support.obj
 0002:00000658       __guard_xfg_table_dispatch_icall_fptr 0000000180025658     LIBCMT:guard_support.obj
 0002:00000660       __castguard_check_failure_os_handled_fptr 0000000180025660     LIBCMT:guard_support.obj
 0002:00000668       __xc_a                     0000000180025668     LIBCMT:initializers.obj
 0002:00000698       __xc_z                     0000000180025698     LIBCMT:initializers.obj
 0002:000006a0       __xi_a                     00000001800256a0     LIBCMT:initializers.obj
 0002:000006b0       __acrt_stdio_initializer   00000001800256b0     libucrt:stdio_initializer.obj
 0002:000006b8       __acrt_multibyte_initializer 00000001800256b8     libucrt:multibyte_initializer.obj
 0002:000006c0       __acrt_tran_fma3_initializer 00000001800256c0     libucrt:fma3_initializer.obj
 0002:000006c8       __xi_z                     00000001800256c8     LIBCMT:initializers.obj
 0002:000006d0       __xl_a                     00000001800256d0     LIBCMT:tlssup.obj
 0002:000006d8       __xl_z                     00000001800256d8     LIBCMT:tlssup.obj
 0002:000006e0       __xp_a                     00000001800256e0     LIBCMT:initializers.obj
 0002:000006e8       __acrt_locale_terminator   00000001800256e8     libucrt:locale_initializer.obj
 0002:000006f0       __dcrt_console_output_terminator 00000001800256f0     libucrt:console_output_initializer.obj
 0002:000006f8       __acrt_stdio_terminator    00000001800256f8     libucrt:stdio_initializer.obj
 0002:00000700       __xp_z                     0000000180025700     LIBCMT:initializers.obj
 0002:00000708       __xt_a                     0000000180025708     LIBCMT:initializers.obj
 0002:00000710       __xt_z                     0000000180025710     LIBCMT:initializers.obj
 0002:00000720       ??_C@_13HADIAKP@?$AAS@     0000000180025720     OposVariant.obj
 0002:00000724       ??_C@_13LHMFKAAD@?$AAM@    0000000180025724     OposVariant.obj
 0002:00000728       ??_C@_13MKMNOPIJ@?$AAD@    0000000180025728     OposVariant.obj
 0002:0000072c       ??_C@_13OPKGLAFF@?$AAB@    000000018002572c     OposVariant.obj
 0002:00000730       ??_C@_17LLMMEOJD@?$AAV?$AAa?$AAl@ 0000000180025730     OposVariant.obj
 0002:00000738       ??_C@_1BI@JFAIJMHL@?$AAF?$AAo?$AAr?$AAc?$AAe?$AAR?$AAe?$AAm?$AAo?$AAv?$AAe@ 0000000180025738     OposVariant.obj
 0002:00000750       ??_C@_1BC@GCKHIPE@?$AAN?$AAo?$AAR?$AAe?$AAm?$AAo?$AAv?$AAe@ 0000000180025750     OposVariant.obj
 0002:00000768       ??_C@_1O@JDLOHAN@?$AAD?$AAe?$AAl?$AAe?$AAt?$AAe@ 0000000180025768     OposVariant.obj
 0002:00000778       ??_C@_11LOCGONAA@@         0000000180025778     OposVariant.obj
 0002:00000780       ??_7?$CComObject@V?$CComEnum@UIEnumConnections@@$1?_GUID_b196b287_bab4_101a_b69c_00aa00341d07@@3U__s_GUID@@BUtagCONNECTDATA@@V?$_Copy@UtagCONNECTDATA@@@ATL@@VCComSingleThreadModel@6@@ATL@@@ATL@@6B@ 0000000180025780     CoinDispenser.obj
 0002:000007c0       _GUID_55980ba0_35aa_11cf_b671_00aa004cd6d8 00000001800257c0     CoinDispenser.obj
 0002:000007d0       _GUID_b196b28b_bab4_101a_b69c_00aa00341d07 00000001800257d0     CoinDispenser.obj
 0002:000007e0       ?_entries@?1??_GetEntries@?$CComEnum@UIEnumConnections@@$1?_GUID_b196b287_bab4_101a_b69c_00aa00341d07@@3U__s_GUID@@BUtagCONNECTDATA@@V?$_Copy@UtagCONNECTDATA@@@ATL@@VCComSingleThreadModel@6@@ATL@@SAPEBU_ATL_INTMAP_ENTRY@3@XZ@4QBU43@B 00000001800257e0     CoinDispenser.obj
 0002:00000810       ??_7CComClassFactory@ATL@@6B@ 0000000180025810     CoinDispenser.obj
 0002:00000840       ?_entries@?1??_GetEntries@CComClassFactory@ATL@@SAPEBU_ATL_INTMAP_ENTRY@3@XZ@4QBU43@B 0000000180025840     CoinDispenser.obj
 0002:00000870       _GUID_00000001_0000_0000_c000_000000000046 0000000180025870     CoinDispenser.obj
 0002:00000880       IID_IOPOSCoinDispenser_1_5 0000000180025880     CoinDispenser.obj
 0002:00000890       IID_IOPOSCoinDispenser_1_8 0000000180025890     CoinDispenser.obj
 0002:000008a0       IID_IOPOSCoinDispenser_1_9 00000001800258a0     CoinDispenser.obj
 0002:000008b0       IID_IOPOSCoinDispenser_1_11 00000001800258b0     CoinDispenser.obj
 0002:000008c0       IID_IOPOSCoinDispenser     00000001800258c0     CoinDispenser.obj
 0002:000008d0       LIBID_OposCoinDispenser_CCO 00000001800258d0     CoinDispenser.obj
 0002:000008e0       DIID__IOPOSCoinDispenserEvents 00000001800258e0     CoinDispenser.obj
 0002:000008f0       CLSID_OPOSCoinDispenser    00000001800258f0     CoinDispenser.obj
 0002:00000900       ??_C@_1BK@BIGILECK@?$AAA?$AAd?$AAv?$AAa?$AAp?$AAi?$AA3?$AA2?$AA?4?$AAd?$AAl?$AAl@ 0000000180025900     CoinDispenser.obj
 0002:00000920       ??_C@_0BI@MNCFCPFK@RegCreateKeyTransactedW@ 0000000180025920     CoinDispenser.obj
 0002:00000938       _GUID_00000114_0000_0000_c000_000000000046 0000000180025938     CoinDispenser.obj
 0002:00000948       _GUID_b196b287_bab4_101a_b69c_00aa00341d07 0000000180025948     CoinDispenser.obj
 0002:00000958       _GUID_b196b285_bab4_101a_b69c_00aa00341d07 0000000180025958     CoinDispenser.obj
 0002:00000968       _GUID_a6bc3ac0_dbaa_11ce_9de3_00aa004bb851 0000000180025968     CoinDispenser.obj
 0002:00000978       _GUID_0000010c_0000_0000_c000_000000000046 0000000180025978     CoinDispenser.obj
 0002:00000988       _GUID_00000146_0000_0000_c000_000000000046 0000000180025988     CoinDispenser.obj
 0002:000009a0       ?_entries@?1??_GetEntries@COPOSCoinDispenser@@SAPEBU_ATL_INTMAP_ENTRY@ATL@@XZ@4QBU34@B 00000001800259a0     CoinDispenser.obj
 0002:00000c28       _GUID_cf51ed10_62fe_11cf_bf86_00a0c9034836 0000000180025c28     CoinDispenser.obj
 0002:00000c38       _GUID_0000010a_0000_0000_c000_000000000046 0000000180025c38     CoinDispenser.obj
 0002:00000c48       _GUID_b196b283_bab4_101a_b69c_00aa00341d07 0000000180025c48     CoinDispenser.obj
 0002:00000c58       _GUID_cb5bdc81_93c1_11cf_8f20_00805f2cd064 0000000180025c58     CoinDispenser.obj
 0002:00000c70       ?pPropMap@?1??GetPropertyMap@COPOSCoinDispenser@@SAPEBUATL_PROPMAP_ENTRY@ATL@@XZ@4QBU34@B 0000000180025c70     CoinDispenser.obj
 0002:00000d18       ??_C@_17DGDADEHL@?$AA_?$AAc?$AAx@ 0000000180025d18     CoinDispenser.obj
 0002:00000d20       ??_C@_17IOIMFDBO@?$AA_?$AAc?$AAy@ 0000000180025d20     CoinDispenser.obj
 0002:00000d28       ??_7CComModule@ATL@@6B@    0000000180025d28     CoinDispenser.obj
 0002:00000d78       _GUID_00000000_0000_0000_c000_000000000046 0000000180025d78     CoinDispenser.obj
 0002:00000d88       _GUID_00020400_0000_0000_c000_000000000046 0000000180025d88     CoinDispenser.obj
 0002:00000d98       _GUID_922eada0_3424_11cf_b670_00aa004cd6d8 0000000180025d98     CoinDispenser.obj
 0002:00000da8       _GUID_9c2cad80_3424_11cf_b670_00aa004cd6d8 0000000180025da8     CoinDispenser.obj
 0002:00000db8       _GUID_00000119_0000_0000_c000_000000000046 0000000180025db8     CoinDispenser.obj
 0002:00000dc8       ??_7?$CComObjectCached@VCComClassFactory@ATL@@@ATL@@6B@ 0000000180025dc8     CoinDispenser.obj
 0002:00000df8       _GUID_b196b289_bab4_101a_b69c_00aa00341d07 0000000180025df8     CoinDispenser.obj
 0002:00000e08       ??_C@_1CE@PGFMOFKI@?$AAS?$AAt?$AAa?$AAt?$AAu?$AAs?$AAU?$AAp?$AAd?$AAa?$AAt?$AAe?$AAE?$AAv?$AAe@ 0000000180025e08     CoinDispenser.obj
 0002:00000e30       ??_C@_1BM@CBGEBBBJ@?$AAD?$AAi?$AAr?$AAe?$AAc?$AAt?$AAI?$AAO?$AAE?$AAv?$AAe?$AAn?$AAt@ 0000000180025e30     CoinDispenser.obj
 0002:00000e50       _GUID_b196b286_bab4_101a_b69c_00aa00341d07 0000000180025e50     CoinDispenser.obj
 0002:00000e60       _GUID_00000117_0000_0000_c000_000000000046 0000000180025e60     CoinDispenser.obj
 0002:00000e70       ??_C@_1BC@ENICKDH@?$AAC?$AAo?$AAn?$AAt?$AAe?$AAn?$AAt?$AAs@ 0000000180025e70     CoinDispenser.obj
 0002:00000e88       ??_7?$CComObject@V?$CComEnum@UIEnumConnectionPoints@@$1?_GUID_b196b285_bab4_101a_b69c_00aa00341d07@@3U__s_GUID@@BPEAUIConnectionPoint@@V?$_CopyInterface@UIConnectionPoint@@@ATL@@VCComSingleThreadModel@6@@ATL@@@ATL@@6B@ 0000000180025e88     CoinDispenser.obj
 0002:00000ec8       ??_C@_1M@KANJNLFF@?$AAC?$AAL?$AAS?$AAI?$AAD@ 0000000180025ec8     CoinDispenser.obj
 0002:00000ed8       ??_C@_1M@EJNEECMJ@?$AAA?$AAp?$AAp?$AAI?$AAD@ 0000000180025ed8     CoinDispenser.obj
 0002:00000ee8       _GUID_0000010e_0000_0000_c000_000000000046 0000000180025ee8     CoinDispenser.obj
 0002:00000f00       ?rgszNeverDelete@CRegParser@ATL@@1QBQEB_WB 0000000180025f00     CoinDispenser.obj
 0002:00000f60       _GUID_b196b288_bab4_101a_b69c_00aa00341d07 0000000180025f60     CoinDispenser.obj
 0002:00000f70       ??_7CRegObject@ATL@@6B@    0000000180025f70     CoinDispenser.obj
 0002:00000fa0       _GUID_00000113_0000_0000_c000_000000000046 0000000180025fa0     CoinDispenser.obj
 0002:00000fb0       ??_C@_1CK@OEKPKBNA@?$AAC?$AAo?$AAm?$AAp?$AAo?$AAn?$AAe?$AAn?$AAt?$AA?5?$AAC?$AAa?$AAt?$AAe?$AAg@ 0000000180025fb0     CoinDispenser.obj
 0002:00000fe0       ??_C@_1BC@NKMMNMGL@?$AAF?$AAi?$AAl?$AAe?$AAT?$AAy?$AAp?$AAe@ 0000000180025fe0     CoinDispenser.obj
 0002:00000ff8       ??_C@_1BE@EKPAFMCP@?$AAI?$AAn?$AAt?$AAe?$AAr?$AAf?$AAa?$AAc?$AAe@ 0000000180025ff8     CoinDispenser.obj
 0002:00001010       ??_C@_1BC@MAICEHGI@?$AAH?$AAa?$AAr?$AAd?$AAw?$AAa?$AAr?$AAe@ 0000000180026010     CoinDispenser.obj
 0002:00001028       ??_C@_19HLLLM@?$AAM?$AAi?$AAm?$AAe@ 0000000180026028     CoinDispenser.obj
 0002:00001038       ??_C@_17OMAOINJK@?$AAS?$AAA?$AAM@ 0000000180026038     CoinDispenser.obj
 0002:00001040       ??_C@_1BC@IBECJAAI@?$AAS?$AAE?$AAC?$AAU?$AAR?$AAI?$AAT?$AAY@ 0000000180026040     CoinDispenser.obj
 0002:00001058       ??_C@_1O@GBFINDKL@?$AAS?$AAY?$AAS?$AAT?$AAE?$AAM@ 0000000180026058     CoinDispenser.obj
 0002:00001068       ??_C@_1BC@EAHCMADO@?$AAS?$AAo?$AAf?$AAt?$AAw?$AAa?$AAr?$AAe@ 0000000180026068     CoinDispenser.obj
 0002:00001080       ??_C@_1BA@JIHHIEDE@?$AAT?$AAy?$AAp?$AAe?$AAL?$AAi?$AAb@ 0000000180026080     CoinDispenser.obj
 0002:00001090       _GUID_1c2056cc_5ef4_101b_8bc8_00aa003e3b29 0000000180026090     CoinDispenser.obj
 0002:000010a0       ?map@?1??HKeyFromString@CRegParser@ATL@@KAPEAUHKEY__@@PEA_W@Z@4QBUkeymap@?1??123@KAPEAU4@0@Z@B 00000001800260a0     CoinDispenser.obj
 0002:00001180       ??_C@_19NCHLBIN@?$AAH?$AAK?$AAC?$AAR@ 0000000180026180     CoinDispenser.obj
 0002:00001190       ??_C@_19JAPAIJDE@?$AAH?$AAK?$AAC?$AAU@ 0000000180026190     CoinDispenser.obj
 0002:000011a0       ??_C@_19PEALEEJB@?$AAH?$AAK?$AAL?$AAM@ 00000001800261a0     CoinDispenser.obj
 0002:000011b0       ??_C@_17PJOJPMPB@?$AAH?$AAK?$AAU@ 00000001800261b0     CoinDispenser.obj
 0002:000011b8       ??_C@_19PNBHMJPL@?$AAH?$AAK?$AAP?$AAD@ 00000001800261b8     CoinDispenser.obj
 0002:000011c8       ??_C@_19GFFAIJHG@?$AAH?$AAK?$AAD?$AAD@ 00000001800261c8     CoinDispenser.obj
 0002:000011d8       ??_C@_19OFICIBHH@?$AAH?$AAK?$AAC?$AAC@ 00000001800261d8     CoinDispenser.obj
 0002:000011e8       ??_C@_1CE@PACHPJFI@?$AAH?$AAK?$AAE?$AAY?$AA_?$AAC?$AAL?$AAA?$AAS?$AAS?$AAE?$AAS?$AA_?$AAR?$AAO@ 00000001800261e8     CoinDispenser.obj
 0002:00001210       ??_C@_1CE@HLHNCBPM@?$AAH?$AAK?$AAE?$AAY?$AA_?$AAC?$AAU?$AAR?$AAR?$AAE?$AAN?$AAT?$AA_?$AAU?$AAS@ 0000000180026210     CoinDispenser.obj
 0002:00001238       ??_C@_1CG@GFBEANJL@?$AAH?$AAK?$AAE?$AAY?$AA_?$AAL?$AAO?$AAC?$AAA?$AAL?$AA_?$AAM?$AAA?$AAC?$AAH@ 0000000180026238     CoinDispenser.obj
 0002:00001260       ??_C@_1BG@BGODANIO@?$AAH?$AAK?$AAE?$AAY?$AA_?$AAU?$AAS?$AAE?$AAR?$AAS@ 0000000180026260     CoinDispenser.obj
 0002:00001278       ??_C@_1CM@KHNNAOIC@?$AAH?$AAK?$AAE?$AAY?$AA_?$AAP?$AAE?$AAR?$AAF?$AAO?$AAR?$AAM?$AAA?$AAN?$AAC@ 0000000180026278     CoinDispenser.obj
 0002:000012a8       ??_C@_1BM@HAGMMHIA@?$AAH?$AAK?$AAE?$AAY?$AA_?$AAD?$AAY?$AAN?$AA_?$AAD?$AAA?$AAT?$AAA@ 00000001800262a8     CoinDispenser.obj
 0002:000012c8       ??_C@_1CI@BBJOACGG@?$AAH?$AAK?$AAE?$AAY?$AA_?$AAC?$AAU?$AAR?$AAR?$AAE?$AAN?$AAT?$AA_?$AAC?$AAO@ 00000001800262c8     CoinDispenser.obj
 0002:000012f0       _GUID_00000109_0000_0000_c000_000000000046 00000001800262f0     CoinDispenser.obj
 0002:00001300       _GUID_7fd52380_4e07_101b_ae2d_08002b2ec713 0000000180026300     CoinDispenser.obj
 0002:00001310       _GUID_00000112_0000_0000_c000_000000000046 0000000180026310     CoinDispenser.obj
 0002:00001320       ??_C@_1EA@NHKLICFA@?$AAH?$AAK?$AAC?$AAU?$AA?$AN?$AA?6?$AA?$HL?$AA?7?$AAS?$AAo?$AAf?$AAt?$AAw?$AAa?$AAr@ 0000000180026320     CoinDispenser.obj
 0002:00001360       ??_C@_1BE@LJOLIMEM@?$AA?$AN?$AA?6?$AA?7?$AA?$HN?$AA?$AN?$AA?6?$AA?$HN?$AA?$AN?$AA?6@ 0000000180026360     CoinDispenser.obj
 0002:00001378       _GUID_3af24292_0c96_11ce_a0cf_00aa00600ab8 0000000180026378     CoinDispenser.obj
 0002:00001388       _GUID_00000127_0000_0000_c000_000000000046 0000000180026388     CoinDispenser.obj
 0002:00001398       _GUID_0000010d_0000_0000_c000_000000000046 0000000180026398     CoinDispenser.obj
 0002:000013a8       ??_C@_1M@PPPPCDEP@?$AAA?$AAP?$AAP?$AAI?$AAD@ 00000001800263a8     CoinDispenser.obj
 0002:000013b8       ??_C@_1O@MNLDABAF@?$AAM?$AAo?$AAd?$AAu?$AAl?$AAe@ 00000001800263b8     CoinDispenser.obj
 0002:000013c8       ??_C@_1BG@JBACFMF@?$AAM?$AAo?$AAd?$AAu?$AAl?$AAe?$AA_?$AAR?$AAa?$AAw@ 00000001800263c8     CoinDispenser.obj
 0002:000013e0       ??_C@_1BC@KAILKFFG@?$AAR?$AAE?$AAG?$AAI?$AAS?$AAT?$AAR?$AAY@ 00000001800263e0     CoinDispenser.obj
 0002:000013f8       ??_7?$CComContainedObject@VCOPOSCoinDispenser@@@ATL@@6B?$IDispatchImpl@UIOPOSCoinDispenser@@$1?IID_IOPOSCoinDispenser@@3U_GUID@@B$1?LIBID_OposCoinDispenser_CCO@@3U3@B$00$0A@VCComTypeInfoHolder@ATL@@@1@@ 00000001800263f8     CoinDispenser.obj
 0002:000015c0       ??_7?$CComContainedObject@VCOPOSCoinDispenser@@@ATL@@6BCComControlBase@1@@ 00000001800265c0     CoinDispenser.obj
 0002:000015e8       ??_7?$CComContainedObject@VCOPOSCoinDispenser@@@ATL@@6B?$CWindowImpl@VCOPOSCoinDispenser@@VCWindow@ATL@@V?$CWinTraits@$0FGAAAAAA@$0A@@3@@1@@ 00000001800265e8     CoinDispenser.obj
 0002:00001608       ??_7?$CComContainedObject@VCOPOSCoinDispenser@@@ATL@@6B?$IPersistStreamInitImpl@VCOPOSCoinDispenser@@@1@@ 0000000180026608     CoinDispenser.obj
 0002:00001650       ??_7?$CComContainedObject@VCOPOSCoinDispenser@@@ATL@@6B?$IOleControlImpl@VCOPOSCoinDispenser@@@1@@ 0000000180026650     CoinDispenser.obj
 0002:00001688       ??_7?$CComContainedObject@VCOPOSCoinDispenser@@@ATL@@6B?$IOleObjectImpl@VCOPOSCoinDispenser@@@1@@ 0000000180026688     CoinDispenser.obj
 0002:00001748       ??_7?$CComContainedObject@VCOPOSCoinDispenser@@@ATL@@6B?$IOleInPlaceActiveObjectImpl@VCOPOSCoinDispenser@@@1@@ 0000000180026748     CoinDispenser.obj
 0002:00001798       ??_7?$CComContainedObject@VCOPOSCoinDispenser@@@ATL@@6B?$IViewObjectExImpl@VCOPOSCoinDispenser@@@1@@ 0000000180026798     CoinDispenser.obj
 0002:00001810       ??_7?$CComContainedObject@VCOPOSCoinDispenser@@@ATL@@6B?$IOleInPlaceObjectWindowlessImpl@VCOPOSCoinDispenser@@@1@@ 0000000180026810     CoinDispenser.obj
 0002:00001868       ??_7?$CComContainedObject@VCOPOSCoinDispenser@@@ATL@@6B?$IConnectionPointContainerImpl@VCOPOSCoinDispenser@@@1@@ 0000000180026868     CoinDispenser.obj
 0002:00001890       ??_7?$CComContainedObject@VCOPOSCoinDispenser@@@ATL@@6B?$IPersistStorageImpl@VCOPOSCoinDispenser@@@1@@ 0000000180026890     CoinDispenser.obj
 0002:000018e0       ??_7?$CComContainedObject@VCOPOSCoinDispenser@@@ATL@@6B?$ISpecifyPropertyPagesImpl@VCOPOSCoinDispenser@@@1@@ 00000001800268e0     CoinDispenser.obj
 0002:00001900       ??_7?$CComContainedObject@VCOPOSCoinDispenser@@@ATL@@6B?$IQuickActivateImpl@VCOPOSCoinDispenser@@@1@@ 0000000180026900     CoinDispenser.obj
 0002:00001930       ??_7?$CComContainedObject@VCOPOSCoinDispenser@@@ATL@@6B?$IDataObjectImpl@VCOPOSCoinDispenser@@@1@@ 0000000180026930     CoinDispenser.obj
 0002:00001990       ??_7?$CComContainedObject@VCOPOSCoinDispenser@@@ATL@@6B?$IProvideClassInfo2Impl@$1?CLSID_OPOSCoinDispenser@@3U_GUID@@B$1?DIID__IOPOSCoinDispenserEvents@@3U2@B$1?LIBID_OposCoinDispenser_CCO@@3U2@B$00$0A@VCComTypeInfoHolder@ATL@@@1@@ 0000000180026990     CoinDispenser.obj
 0002:000019b8       ??_7?$CComContainedObject@VCOPOSCoinDispenser@@@ATL@@6B?$IObjectSafetyImpl@VCOPOSCoinDispenser@@$02@1@@ 00000001800269b8     CoinDispenser.obj
 0002:000019e8       ??_7?$CComContainedObject@VCOPOSCoinDispenser@@@ATL@@6B?$IPropertyNotifySinkCP@VCOPOSCoinDispenser@@VCComDynamicUnkArray@ATL@@@1@@ 00000001800269e8     CoinDispenser.obj
 0002:00001a28       ??_7?$CComContainedObject@VCOPOSCoinDispenser@@@ATL@@6B?$CProxy_IOPOSEvents@VCOPOSCoinDispenser@@@@@ 0000000180026a28     CoinDispenser.obj
 0002:00001a68       ??_7?$CComAggObject@VCOPOSCoinDispenser@@@ATL@@6B@ 0000000180026a68     CoinDispenser.obj
 0002:00001a88       ??_7?$CComObject@VCOPOSCoinDispenser@@@ATL@@6B?$IDispatchImpl@UIOPOSCoinDispenser@@$1?IID_IOPOSCoinDispenser@@3U_GUID@@B$1?LIBID_OposCoinDispenser_CCO@@3U3@B$00$0A@VCComTypeInfoHolder@ATL@@@1@@ 0000000180026a88     CoinDispenser.obj
 0002:00001c50       ??_7?$CComObject@VCOPOSCoinDispenser@@@ATL@@6BCComControlBase@1@@ 0000000180026c50     CoinDispenser.obj
 0002:00001c78       ??_7?$CComObject@VCOPOSCoinDispenser@@@ATL@@6B?$CWindowImpl@VCOPOSCoinDispenser@@VCWindow@ATL@@V?$CWinTraits@$0FGAAAAAA@$0A@@3@@1@@ 0000000180026c78     CoinDispenser.obj
 0002:00001c98       ??_7?$CComObject@VCOPOSCoinDispenser@@@ATL@@6B?$IPersistStreamInitImpl@VCOPOSCoinDispenser@@@1@@ 0000000180026c98     CoinDispenser.obj
 0002:00001ce0       ??_7?$CComObject@VCOPOSCoinDispenser@@@ATL@@6B?$IOleControlImpl@VCOPOSCoinDispenser@@@1@@ 0000000180026ce0     CoinDispenser.obj
 0002:00001d18       ??_7?$CComObject@VCOPOSCoinDispenser@@@ATL@@6B?$IOleObjectImpl@VCOPOSCoinDispenser@@@1@@ 0000000180026d18     CoinDispenser.obj
 0002:00001dd8       ??_7?$CComObject@VCOPOSCoinDispenser@@@ATL@@6B?$IOleInPlaceActiveObjectImpl@VCOPOSCoinDispenser@@@1@@ 0000000180026dd8     CoinDispenser.obj
 0002:00001e28       ??_7?$CComObject@VCOPOSCoinDispenser@@@ATL@@6B?$IViewObjectExImpl@VCOPOSCoinDispenser@@@1@@ 0000000180026e28     CoinDispenser.obj
 0002:00001ea0       ??_7?$CComObject@VCOPOSCoinDispenser@@@ATL@@6B?$IOleInPlaceObjectWindowlessImpl@VCOPOSCoinDispenser@@@1@@ 0000000180026ea0     CoinDispenser.obj
 0002:00001ef8       ??_7?$CComObject@VCOPOSCoinDispenser@@@ATL@@6B?$IConnectionPointContainerImpl@VCOPOSCoinDispenser@@@1@@ 0000000180026ef8     CoinDispenser.obj
 0002:00001f20       ??_7?$CComObject@VCOPOSCoinDispenser@@@ATL@@6B?$IPersistStorageImpl@VCOPOSCoinDispenser@@@1@@ 0000000180026f20     CoinDispenser.obj
 0002:00001f70       ??_7?$CComObject@VCOPOSCoinDispenser@@@ATL@@6B?$ISpecifyPropertyPagesImpl@VCOPOSCoinDispenser@@@1@@ 0000000180026f70     CoinDispenser.obj
 0002:00001f90       ??_7?$CComObject@VCOPOSCoinDispenser@@@ATL@@6B?$IQuickActivateImpl@VCOPOSCoinDispenser@@@1@@ 0000000180026f90     CoinDispenser.obj
 0002:00001fc0       ??_7?$CComObject@VCOPOSCoinDispenser@@@ATL@@6B?$IDataObjectImpl@VCOPOSCoinDispenser@@@1@@ 0000000180026fc0     CoinDispenser.obj
 0002:00002020       ??_7?$CComObject@VCOPOSCoinDispenser@@@ATL@@6B?$IProvideClassInfo2Impl@$1?CLSID_OPOSCoinDispenser@@3U_GUID@@B$1?DIID__IOPOSCoinDispenserEvents@@3U2@B$1?LIBID_OposCoinDispenser_CCO@@3U2@B$00$0A@VCComTypeInfoHolder@ATL@@@1@@ 0000000180027020     CoinDispenser.obj
 0002:00002048       ??_7?$CComObject@VCOPOSCoinDispenser@@@ATL@@6B?$IObjectSafetyImpl@VCOPOSCoinDispenser@@$02@1@@ 0000000180027048     CoinDispenser.obj
 0002:00002078       ??_7?$CComObject@VCOPOSCoinDispenser@@@ATL@@6B?$IPropertyNotifySinkCP@VCOPOSCoinDispenser@@VCComDynamicUnkArray@ATL@@@1@@ 0000000180027078     CoinDispenser.obj
 0002:000020b8       ??_7?$CComObject@VCOPOSCoinDispenser@@@ATL@@6B?$CProxy_IOPOSEvents@VCOPOSCoinDispenser@@@@@ 00000001800270b8     CoinDispenser.obj
 0002:000020f8       ??_C@_1O@GBFKGNEO@?$AAA?$AAT?$AAL?$AA?3?$AA?$CF?$AAp@ 00000001800270f8     CoinDispenser.obj
 0002:00002108       ??_C@_1BA@PICGEGJB@?$AAD?$AAI?$AAS?$AAP?$AAL?$AAA?$AAY@ 0000000180027108     CoinDispenser.obj
 0002:00002118       _GUID_b196b284_bab4_101a_b69c_00aa00341d07 0000000180027118     CoinDispenser.obj
 0002:00002128       _GUID_9bfbbc02_eff1_101a_84ed_00aa00341d07 0000000180027128     CoinDispenser.obj
 0002:00002138       ?_entries@?1??_GetEntries@?$CComEnum@UIEnumConnectionPoints@@$1?_GUID_b196b285_bab4_101a_b69c_00aa00341d07@@3U__s_GUID@@BPEAUIConnectionPoint@@V?$_CopyInterface@UIConnectionPoint@@@ATL@@VCComSingleThreadModel@6@@ATL@@SAPEBU_ATL_INTMAP_ENTRY@3@XZ@4QBU43@B 0000000180027138     CoinDispenser.obj
 0002:00002168       _GUID_00020412_0000_0000_c000_000000000046 0000000180027168     CoinDispenser.obj
 0002:00002178       _GUID_00020401_0000_0000_c000_000000000046 0000000180027178     CoinDispenser.obj
 0002:00002188       ??_C@_0BG@EKFFMJIO@RegOpenKeyTransactedW@ 0000000180027188     CoinDispenser.obj
 0002:000021a0       ??_C@_0BI@HAKLOOGP@RegDeleteKeyTransactedW@ 00000001800271a0     CoinDispenser.obj
 0002:000021b8       ??_C@_0BA@LILAPHGE@RegDeleteKeyExW@ 00000001800271b8     CoinDispenser.obj
 0002:000021c8       ??_C@_19ILOCMLCJ@?$AA?4?$AAt?$AAl?$AAb@ 00000001800271c8     CoinDispenser.obj
 0002:000021d8       _GUID_0002e012_0000_0000_c000_000000000046 00000001800271d8     CoinDispenser.obj
 0002:000021e8       ??_C@_1O@FHBGLCIO@?$AAC?$AAL?$AAS?$AAI?$AAD?$AA?2@ 00000001800271e8     CoinDispenser.obj
 0002:000021f8       ??_C@_1CK@IFBKBFAA@?$AA?2?$AAR?$AAe?$AAq?$AAu?$AAi?$AAr?$AAe?$AAd?$AA?5?$AAC?$AAa?$AAt?$AAe?$AAg@ 00000001800271f8     CoinDispenser.obj
 0002:00002228       ??_C@_1DA@BIHALFED@?$AA?2?$AAI?$AAm?$AAp?$AAl?$AAe?$AAm?$AAe?$AAn?$AAt?$AAe?$AAd?$AA?5?$AAC?$AAa@ 0000000180027228     CoinDispenser.obj
 0002:00002258       ??_C@_1BK@EDKOLFBJ@?$AAO?$AAL?$AAE?$AAA?$AAU?$AAT?$AA3?$AA2?$AA?4?$AAD?$AAL?$AAL@ 0000000180027258     CoinDispenser.obj
 0002:00002278       ??_C@_0BJ@CNLFOMHB@UnRegisterTypeLibForUser@ 0000000180027278     CoinDispenser.obj
 0002:00002298       ??_C@_0BH@LBOMMKPJ@RegisterTypeLibForUser@ 0000000180027298     CoinDispenser.obj
 0002:000022b0       ??_C@_0P@MMNMMLGK@COFreezeEvents@ 00000001800272b0     CoinDispenserImpl.obj
 0002:000022c0       ??_C@_0BC@OGCGGIMP@GetPropertyNumber@ 00000001800272c0     CoinDispenserImpl.obj
 0002:000022d8       ??_C@_0BC@MDCNODNB@SetPropertyNumber@ 00000001800272d8     CoinDispenserImpl.obj
 0002:000022f0       ??_C@_0BC@CFCCMIMD@GetPropertyString@ 00000001800272f0     CoinDispenserImpl.obj
 0002:00002308       ??_C@_0BC@CJEDNN@SetPropertyString@ 0000000180027308     CoinDispenserImpl.obj
 0002:00002320       ??_C@_0M@LNPKKKDA@OpenService@ 0000000180027320     CoinDispenserImpl.obj
 0002:00002330       ??_C@_0M@PCMCHHMH@CheckHealth@ 0000000180027330     CoinDispenserImpl.obj
 0002:00002340       ??_C@_0M@JGMIDNEK@ClaimDevice@ 0000000180027340     CoinDispenserImpl.obj
 0002:00002350       ??_C@_0N@DDFIIBMP@CloseService@ 0000000180027350     CoinDispenserImpl.obj
 0002:00002360       ??_C@_08EEIHICPC@DirectIO@ 0000000180027360     CoinDispenserImpl.obj
 0002:00002370       ??_C@_0O@BCPMENMJ@ReleaseDevice@ 0000000180027370     CoinDispenserImpl.obj
 0002:00002380       ??_C@_0P@GNCBCCPO@DispenseChange@ 0000000180027380     CoinDispenserImpl.obj
 0002:00002390       ??_C@_0BA@GFABKEEE@ResetStatistics@ 0000000180027390     CoinDispenserImpl.obj
 0002:000023a0       ??_C@_0BD@DPALHJGC@RetrieveStatistics@ 00000001800273a0     CoinDispenserImpl.obj
 0002:000023b8       ??_C@_0BB@KOHIKNFC@UpdateStatistics@ 00000001800273b8     CoinDispenserImpl.obj
 0002:000023d0       ??_C@_0BH@PBKBNMGB@CompareFirmwareVersion@ 00000001800273d0     CoinDispenserImpl.obj
 0002:000023e8       ??_C@_0P@FBPDPIPA@UpdateFirmware@ 00000001800273e8     CoinDispenserImpl.obj
 0002:000023f8       ??_C@_0BB@OAMAKNAK@AdjustCashCounts@ 00000001800273f8     CoinDispenserImpl.obj
 0002:00002410       ??_C@_0P@HELDJPLA@ReadCashCounts@ 0000000180027410     CoinDispenserImpl.obj
 0002:00002420       ??_7?$CProxy_IOPOSEvents@VCOPOSCoinDispenser@@@@6B@ 0000000180027420     CoinDispenserImpl.obj
 0002:00002460       ??_C@_1BA@IFHENID@?$AA?$FL?$AAE?$AAr?$AAr?$AAo?$AAr?$AA?$FN@ 0000000180027460     CoinDispenserImpl.obj
 0002:00002470       ??_C@_0DA@HMMGFBHA@SOFTWARE?2OLEforRetail?2ServiceOP@ 0000000180027470     CoinDispenserImpl.obj
 0002:000024a0       ??_C@_1M@IAIJHCCH@?$AAC?$AAl?$AAo?$AAs?$AAe@ 00000001800274a0     CoinDispenserImpl.obj
 0002:000024b0       ??_C@_1M@PCPKGJAH@?$AAC?$AAl?$AAa?$AAi?$AAm@ 00000001800274b0     CoinDispenserImpl.obj
 0002:000024c0       ??_C@_1BA@NDFKIOCP@?$AAR?$AAe?$AAl?$AAe?$AAa?$AAs?$AAe@ 00000001800274c0     CoinDispenserImpl.obj
 0002:000024d0       ??_C@_0O@HAMECMKL@CoinDispenser@ 00000001800274d0     CoinDispenserImpl.obj
 0002:000024e0       ??_C@_1BM@IJMNMBPK@?$AAG?$AAe?$AAt?$AAO?$AAp?$AAe?$AAn?$AAR?$AAe?$AAs?$AAu?$AAl?$AAt@ 00000001800274e0     CoinDispenserImpl.obj
 0002:00002500       IID_IDispatch              0000000180027500     uuid:oaidl_i.obj
 0002:00002510       IID_IPropertyNotifySink    0000000180027510     uuid:ocidl_i.obj
 0002:00002520       GUID_NULL                  0000000180027520     uuid:cguid_i.obj
 0002:00002530       CLSID_StdGlobalInterfaceTable 0000000180027530     uuid:cguid_i.obj
 0002:00002540       CLSID_StdComponentCategoriesMgr 0000000180027540     uuid:ieguids.obj
 0002:00002550       IID_IUnknown               0000000180027550     uuid:unknwn_i.obj
 0002:00002560       __xmm@ffffffffffffffffffffffffffffffff 0000000180027560     LIBCMT:utility.obj
 0002:00002570       ??_C@_1EC@JIJBPKFM@?$AAa?$AAp?$AAi?$AA?9?$AAm?$AAs?$AA?9?$AAw?$AAi?$AAn?$AA?9?$AAc?$AAo?$AAr?$AAe@ 0000000180027570     LIBCMT:thread_safe_statics.obj
 0002:000025b8       ??_C@_1BK@MGMFAEKH@?$AAk?$AAe?$AAr?$AAn?$AAe?$AAl?$AA3?$AA2?$AA?4?$AAd?$AAl?$AAl@ 00000001800275b8     LIBCMT:thread_safe_statics.obj
 0002:000025d8       ??_C@_0BJ@JEBJOJFJ@SleepConditionVariableCS@ 00000001800275d8     LIBCMT:thread_safe_statics.obj
 0002:000025f8       ??_C@_0BJ@PGPPEPCC@WakeAllConditionVariable@ 00000001800275f8     LIBCMT:thread_safe_statics.obj
 0002:00002611       ?nothrow@std@@3Unothrow_t@1@B 0000000180027611     LIBCMT:std_nothrow.obj
 0002:00002628       _pRawDllMain               0000000180027628     LIBCMT:dll_dllmain.obj
 0002:00002628       _pDefaultRawDllMain        0000000180027628     LIBCMT:dll_dllmain.obj
 0002:00002638       ??_7exception@std@@6B@     0000000180027638     LIBCMT:throw_bad_alloc.obj
 0002:00002648       ??_C@_0BC@EOODALEL@Unknown?5exception@ 0000000180027648     LIBCMT:throw_bad_alloc.obj
 0002:00002668       ??_7bad_alloc@std@@6B@     0000000180027668     LIBCMT:throw_bad_alloc.obj
 0002:00002678       ??_C@_0P@GHFPNOJB@bad?5allocation@ 0000000180027678     LIBCMT:throw_bad_alloc.obj
 0002:00002690       ??_7bad_array_new_length@std@@6B@ 0000000180027690     LIBCMT:throw_bad_alloc.obj
 0002:000026a0       ??_C@_0BF@KINCDENJ@bad?5array?5new?5length@ 00000001800276a0     LIBCMT:throw_bad_alloc.obj
 0002:000026c0       ??_7type_info@@6B@         00000001800276c0     LIBCMT:std_type_info_static.obj
 0002:000026c8       GUID_ATLVer110             00000001800276c8     atls:atlbase.obj
 0002:000026e0       ??_C@_1IC@ONKHOIDK@?$AAE?$AAR?$AAR?$AAO?$AAR?$AA?5?$AA?3?$AA?5?$AAU?$AAn?$AAa?$AAb?$AAl?$AAe?$AA?5@ 00000001800276e0     atls:atlbase.obj
 0002:00002768       ??_C@_0N@FJEPLCIH@atlthunk?4dll@ 0000000180027768     atls:atlthunk.obj
 0002:00002778       ??_C@_0BG@GAKFHCBM@AtlThunk_AllocateData@ 0000000180027778     atls:atlthunk.obj
 0002:00002790       ??_C@_0BC@JKONFIAH@AtlThunk_InitData@ 0000000180027790     atls:atlthunk.obj
 0002:000027a8       ??_C@_0BE@IAOEELAK@AtlThunk_DataToCode@ 00000001800277a8     atls:atlthunk.obj
 0002:000027c0       ??_C@_0BC@GBGKAIPI@AtlThunk_FreeData@ 00000001800277c0     atls:atlthunk.obj
 0002:000027d8       ?s_negLengthTab@FH4@@3QBCB 00000001800277d8     libvcruntime:risctrnsctrl.obj
 0002:000027e8       ?s_shiftTab@FH4@@3QBEB     00000001800277e8     libvcruntime:risctrnsctrl.obj
 0002:00002938       _pDestructExceptionObject  0000000180027938     libvcruntime:ehhelpers.obj
 0002:00002948       ??_7bad_exception@std@@6B@ 0000000180027948     libvcruntime:frame.obj
 0002:00002958       ??_C@_0O@DPKOEFFH@bad?5exception@ 0000000180027958     libvcruntime:frame.obj
 0002:00003080       ??_C@_08EHJDFFNH@__based?$CI@ 0000000180028080     libvcruntime:undname.obj
 0002:00003090       ??_C@_07KOLFKCDI@__cdecl@  0000000180028090     libvcruntime:undname.obj
 0002:00003098       ??_C@_08GHMPAG@__pascal@   0000000180028098     libvcruntime:undname.obj
 0002:000030a8       ??_C@_09IFJBGAPI@__stdcall@ 00000001800280a8     libvcruntime:undname.obj
 0002:000030b8       ??_C@_0L@NPHFGOKO@__thiscall@ 00000001800280b8     libvcruntime:undname.obj
 0002:000030c8       ??_C@_0L@JMKHOMEK@__fastcall@ 00000001800280c8     libvcruntime:undname.obj
 0002:000030d8       ??_C@_0N@BCKKPABJ@__vectorcall@ 00000001800280d8     libvcruntime:undname.obj
 0002:000030e8       ??_C@_09HIJEGCPM@__clrcall@ 00000001800280e8     libvcruntime:undname.obj
 0002:000030f4       ??_C@_06GHPCKEAG@__eabi@   00000001800280f4     libvcruntime:undname.obj
 0002:00003100       ??_C@_09IOPIDJLG@__swift_1@ 0000000180028100     libvcruntime:undname.obj
 0002:00003110       ??_C@_09KFNFGKHF@__swift_2@ 0000000180028110     libvcruntime:undname.obj
 0002:00003120       ??_C@_09LMMOFLDE@__swift_3@ 0000000180028120     libvcruntime:undname.obj
 0002:00003130       ??_C@_07JOMMBBKO@__ptr64@  0000000180028130     libvcruntime:undname.obj
 0002:00003138       ??_C@_0L@PILCLIHE@__restrict@ 0000000180028138     libvcruntime:undname.obj
 0002:00003148       ??_C@_0M@GFIIJFMG@__unaligned@ 0000000180028148     libvcruntime:undname.obj
 0002:00003158       ??_C@_09DHDLOLLB@restrict?$CI@ 0000000180028158     libvcruntime:undname.obj
 0002:00003162       ??_C@_00CNPNBAHC@@         0000000180028162     libvcruntime:undname.obj
 0002:00003164       ??_C@_04NIHEBCM@?5new@     0000000180028164     libvcruntime:undname.obj
 0002:00003170       ??_C@_07FPCDHGMM@?5delete@ 0000000180028170     libvcruntime:undname.obj
 0002:00003178       ??_C@_01NEMOKFLO@?$DN@     0000000180028178     libvcruntime:undname.obj
 0002:0000317c       ??_C@_02GPIOPFAK@?$DO?$DO@ 000000018002817c     libvcruntime:undname.obj
 0002:00003180       ??_C@_02FODMEDOG@?$DM?$DM@ 0000000180028180     libvcruntime:undname.obj
 0002:00003184       ??_C@_01DCLJPIOD@?$CB@     0000000180028184     libvcruntime:undname.obj
 0002:00003188       ??_C@_02EGOFBIJA@?$DN?$DN@ 0000000180028188     libvcruntime:undname.obj
 0002:0000318c       ??_C@_02FDNJECIE@?$CB?$DN@ 000000018002818c     libvcruntime:undname.obj
 0002:00003190       ??_C@_02GPECMEKF@?$FL?$FN@ 0000000180028190     libvcruntime:undname.obj
 0002:00003198       ??_C@_08LHJFAFGD@operator@ 0000000180028198     libvcruntime:undname.obj
 0002:000031a4       ??_C@_02HBOOOICD@?9?$DO@   00000001800281a4     libvcruntime:undname.obj
 0002:000031a8       ??_C@_01NBENCBCI@?$CK@     00000001800281a8     libvcruntime:undname.obj
 0002:000031ac       ??_C@_02ECNGHCIF@?$CL?$CL@ 00000001800281ac     libvcruntime:undname.obj
 0002:000031b0       ??_C@_02BAABKJLB@?9?9@     00000001800281b0     libvcruntime:undname.obj
 0002:000031b4       ??_C@_01JOAMLHOP@?9@       00000001800281b4     libvcruntime:undname.obj
 0002:000031b8       ??_C@_01MIFGBAGJ@?$CL@     00000001800281b8     libvcruntime:undname.obj
 0002:000031bc       ??_C@_01HNPIGOCE@?$CG@     00000001800281bc     libvcruntime:undname.obj
 0002:000031c0       ??_C@_03MNHNFDLC@?9?$DO?$CK@ 00000001800281c0     libvcruntime:undname.obj
 0002:000031c4       ??_C@_01KMDKNFGN@?1@       00000001800281c4     libvcruntime:undname.obj
 0002:000031c8       ??_C@_01FGNFDNOH@?$CF@     00000001800281c8     libvcruntime:undname.obj
 0002:000031cc       ??_C@_01MNNFJEPP@?$DM@     00000001800281cc     libvcruntime:undname.obj
 0002:000031d0       ??_C@_02EHCHHCKH@?$DM?$DN@ 00000001800281d0     libvcruntime:undname.obj
 0002:000031d4       ??_C@_01PPODPGHN@?$DO@     00000001800281d4     libvcruntime:undname.obj
 0002:000031d8       ??_C@_02EEKDKGMJ@?$DO?$DN@ 00000001800281d8     libvcruntime:undname.obj
 0002:000031dc       ??_C@_01IHBHIGKO@?0@       00000001800281dc     libvcruntime:undname.obj
 0002:000031e0       ??_C@_02HCKGKOFO@?$CI?$CJ@ 00000001800281e0     libvcruntime:undname.obj
 0002:000031e4       ??_C@_01PJKLJHI@?$HO@      00000001800281e4     libvcruntime:undname.obj
 0002:000031e8       ??_C@_01JKBOJNNK@?$FO@     00000001800281e8     libvcruntime:undname.obj
 0002:000031ec       ??_C@_01DNKMNLPK@?$HM@     00000001800281ec     libvcruntime:undname.obj
 0002:000031f0       ??_C@_02PPKAJPJL@?$CG?$CG@ 00000001800281f0     libvcruntime:undname.obj
 0002:000031f4       ??_C@_02NONPIBCD@?$HM?$HM@ 00000001800281f4     libvcruntime:undname.obj
 0002:000031f8       ??_C@_02FPIMKNGF@?$CK?$DN@ 00000001800281f8     libvcruntime:undname.obj
 0002:000031fc       ??_C@_02FOEOMHFC@?$CL?$DN@ 00000001800281fc     libvcruntime:undname.obj
 0002:00003200       ??_C@_02FKMDLLOA@?9?$DN@   0000000180028200     libvcruntime:undname.obj
 0002:00003204       ??_C@_02FJEHGPIO@?1?$DN@   0000000180028204     libvcruntime:undname.obj
 0002:00003208       ??_C@_02FENAOKFI@?$CF?$DN@ 0000000180028208     libvcruntime:undname.obj
 0002:0000320c       ??_C@_03IKFCCPFF@?$DO?$DO?$DN@ 000000018002820c     libvcruntime:undname.obj
 0002:00003210       ??_C@_03CDNPDDLA@?$DM?$DM?$DN@ 0000000180028210     libvcruntime:undname.obj
 0002:00003214       ??_C@_02FGJGFEAB@?$CG?$DN@ 0000000180028214     libvcruntime:undname.obj
 0002:00003218       ??_C@_02DHLNPPGH@?$HM?$DN@ 0000000180028218     libvcruntime:undname.obj
 0002:0000321c       ??_C@_02MHEGNOJ@?$FO?$DN@  000000018002821c     libvcruntime:undname.obj
 0002:00003220       ??_C@_09IFPLHPGF@?$GAvftable?8@ 0000000180028220     libvcruntime:undname.obj
 0002:00003230       ??_C@_09BLBHBJP@?$GAvbtable?8@ 0000000180028230     libvcruntime:undname.obj
 0002:00003240       ??_C@_07FEEIOKP@?$GAvcall?8@ 0000000180028240     libvcruntime:undname.obj
 0002:00003248       ??_C@_08LLFFHHDJ@?$GAtypeof?8@ 0000000180028248     libvcruntime:undname.obj
 0002:00003258       ??_C@_0BF@KDPPACIK@?$GAlocal?5static?5guard?8@ 0000000180028258     libvcruntime:undname.obj
 0002:00003270       ??_C@_08OBABFOLI@?$GAstring?8@ 0000000180028270     libvcruntime:undname.obj
 0002:00003280       ??_C@_0BD@JDLKDPAB@?$GAvbase?5destructor?8@ 0000000180028280     libvcruntime:undname.obj
 0002:00003298       ??_C@_0BN@DEGPLNFK@?$GAvector?5deleting?5destructor?8@ 0000000180028298     libvcruntime:undname.obj
 0002:000032b8       ??_C@_0BO@OBMKPJIG@?$GAdefault?5constructor?5closure?8@ 00000001800282b8     libvcruntime:undname.obj
 0002:000032d8       ??_C@_0BN@IMDCHIKM@?$GAscalar?5deleting?5destructor?8@ 00000001800282d8     libvcruntime:undname.obj
 0002:000032f8       ??_C@_0BO@PFGOCPJJ@?$GAvector?5constructor?5iterator?8@ 00000001800282f8     libvcruntime:undname.obj
 0002:00003318       ??_C@_0BN@LFPFMEDL@?$GAvector?5destructor?5iterator?8@ 0000000180028318     libvcruntime:undname.obj
 0002:00003338       ??_C@_0CE@IKBNEHA@?$GAvector?5vbase?5constructor?5itera@ 0000000180028338     libvcruntime:undname.obj
 0002:00003360       ??_C@_0BL@NILFHHPC@?$GAvirtual?5displacement?5map?8@ 0000000180028360     libvcruntime:undname.obj
 0002:00003380       ??_C@_0CB@JONCMFFK@?$GAeh?5vector?5constructor?5iterator@ 0000000180028380     libvcruntime:undname.obj
 0002:000033a8       ??_C@_0CA@GCEOPDGL@?$GAeh?5vector?5destructor?5iterator?8@ 00000001800283a8     libvcruntime:undname.obj
 0002:000033c8       ??_C@_0CH@OOJPLCPH@?$GAeh?5vector?5vbase?5constructor?5it@ 00000001800283c8     libvcruntime:undname.obj
 0002:000033f0       ??_C@_0BL@LLKPOHJI@?$GAcopy?5constructor?5closure?8@ 00000001800283f0     libvcruntime:undname.obj
 0002:00003410       ??_C@_0BA@KBCDOMBN@?$GAudt?5returning?8@ 0000000180028410     libvcruntime:undname.obj
 0002:00003420       ??_C@_03KLGMFNMG@?$GAEH@   0000000180028420     libvcruntime:undname.obj
 0002:00003424       ??_C@_05KHLCHHI@?$GARTTI@  0000000180028424     libvcruntime:undname.obj
 0002:00003430       ??_C@_0BA@KKLDJDLB@?$GAlocal?5vftable?8@ 0000000180028430     libvcruntime:undname.obj
 0002:00003440       ??_C@_0CE@IIHCMGGL@?$GAlocal?5vftable?5constructor?5clos@ 0000000180028440     libvcruntime:undname.obj
 0002:00003464       ??_C@_06FHBGPFGH@?5new?$FL?$FN@ 0000000180028464     libvcruntime:undname.obj
 0002:00003470       ??_C@_09LBNFPBCA@?5delete?$FL?$FN@ 0000000180028470     libvcruntime:undname.obj
 0002:00003480       ??_C@_0P@HJKNJFNN@?$GAomni?5callsig?8@ 0000000180028480     libvcruntime:undname.obj
 0002:00003490       ??_C@_0BL@CNOONJFP@?$GAplacement?5delete?5closure?8@ 0000000180028490     libvcruntime:undname.obj
 0002:000034b0       ??_C@_0BN@CKNJLHMB@?$GAplacement?5delete?$FL?$FN?5closure?8@ 00000001800284b0     libvcruntime:undname.obj
 0002:000034d0       ??_C@_0CG@CFDHKGGD@?$GAmanaged?5vector?5constructor?5ite@ 00000001800284d0     libvcruntime:undname.obj
 0002:000034f8       ??_C@_0CF@IMGKMJNO@?$GAmanaged?5vector?5destructor?5iter@ 00000001800284f8     libvcruntime:undname.obj
 0002:00003520       ??_C@_0CG@HLDDJMAG@?$GAeh?5vector?5copy?5constructor?5ite@ 0000000180028520     libvcruntime:undname.obj
 0002:00003548       ??_C@_0CM@FCBBDIGB@?$GAeh?5vector?5vbase?5copy?5construct@ 0000000180028548     libvcruntime:undname.obj
 0002:00003578       ??_C@_0BL@CLIPGLGB@?$GAdynamic?5initializer?5for?5?8@ 0000000180028578     libvcruntime:undname.obj
 0002:00003598       ??_C@_0CB@PDBIFEP@?$GAdynamic?5atexit?5destructor?5for?5@ 0000000180028598     libvcruntime:undname.obj
 0002:000035c0       ??_C@_0CD@CGAJBKEJ@?$GAvector?5copy?5constructor?5iterat@ 00000001800285c0     libvcruntime:undname.obj
 0002:000035e8       ??_C@_0CJ@GJELGAMM@?$GAvector?5vbase?5copy?5constructor?5@ 00000001800285e8     libvcruntime:undname.obj
 0002:00003618       ??_C@_0CL@FGIJHLCE@?$GAmanaged?5vector?5copy?5constructo@ 0000000180028618     libvcruntime:undname.obj
 0002:00003648       ??_C@_0BM@PMGGMLDN@?$GAlocal?5static?5thread?5guard?8@ 0000000180028648     libvcruntime:undname.obj
 0002:00003668       ??_C@_0N@BDNMDMOL@operator?5?$CC?$CC?5@ 0000000180028668     libvcruntime:undname.obj
 0002:00003678       ??_C@_0BC@GGEBGALA@operator?5co_await@ 0000000180028678     libvcruntime:undname.obj
 0002:00003690       ??_C@_0M@GAAIMMOH@operator?$DM?$DN?$DO@ 0000000180028690     libvcruntime:undname.obj
 0002:000036a0       ??_C@_0BC@DAFEJGAK@?5Type?5Descriptor?8@ 00000001800286a0     libvcruntime:undname.obj
 0002:000036b8       ??_C@_0BM@LDKODKLH@?5Base?5Class?5Descriptor?5at?5?$CI@ 00000001800286b8     libvcruntime:undname.obj
 0002:000036d8       ??_C@_0BD@LGICGFMM@?5Base?5Class?5Array?8@ 00000001800286d8     libvcruntime:undname.obj
 0002:000036f0       ??_C@_0BN@MECKDCOJ@?5Class?5Hierarchy?5Descriptor?8@ 00000001800286f0     libvcruntime:undname.obj
 0002:00003710       ??_C@_0BK@CFCOFLF@?5Complete?5Object?5Locator?8@ 0000000180028710     libvcruntime:undname.obj
 0002:00003730       ??_C@_0BG@JNJLAMPM@?$GAanonymous?5namespace?8@ 0000000180028730     libvcruntime:undname.obj
 0002:00003760       ??_C@_1DM@KHCHBNEB@?$AAa?$AAp?$AAi?$AA?9?$AAm?$AAs?$AA?9?$AAw?$AAi?$AAn?$AA?9?$AAc?$AAo?$AAr?$AAe@ 0000000180028760     libvcruntime:winapi_downlevel.obj
 0002:000037a0       ??_C@_1DK@LPPGFMPP@?$AAa?$AAp?$AAi?$AA?9?$AAm?$AAs?$AA?9?$AAw?$AAi?$AAn?$AA?9?$AAc?$AAo?$AAr?$AAe@ 00000001800287a0     libvcruntime:winapi_downlevel.obj
 0002:000037e0       ??_C@_1BC@GDMECMAK@?$AAk?$AAe?$AAr?$AAn?$AAe?$AAl?$AA3?$AA2@ 00000001800287e0     libvcruntime:winapi_downlevel.obj
 0002:000037f8       ??_C@_1BA@PFFKHIOG@?$AAa?$AAp?$AAi?$AA?9?$AAm?$AAs?$AA?9@ 00000001800287f8     libvcruntime:winapi_downlevel.obj
 0002:00003810       ??_C@_08KNHFBNJ@FlsAlloc@  0000000180028810     libvcruntime:winapi_downlevel.obj
 0002:00003828       ??_C@_07PEJMOBNF@FlsFree@  0000000180028828     libvcruntime:winapi_downlevel.obj
 0002:00003838       ??_C@_0M@GDNOONDI@FlsGetValue@ 0000000180028838     libvcruntime:winapi_downlevel.obj
 0002:00003850       ??_C@_0M@JCPCPOEF@FlsSetValue@ 0000000180028850     libvcruntime:winapi_downlevel.obj
 0002:00003868       ??_C@_0BM@HCFOFFN@InitializeCriticalSectionEx@ 0000000180028868     libvcruntime:winapi_downlevel.obj
 0002:00003a00       ?format_validation_lookup_table_spectre@__crt_stdio_output@@3V?$spectre_mitigated_lookup_table@Ustate_transition_pair@__crt_stdio_output@@$0IA@@1@B 0000000180028a00     libucrt:output.obj
 0002:00003b00       ??_C@_1O@CEDCILHN@?$AA?$CI?$AAn?$AAu?$AAl?$AAl?$AA?$CJ@ 0000000180028b00     libucrt:output.obj
 0002:00003b10       ??_C@_06OJHGLDPL@?$CInull?$CJ@ 0000000180028b10     libucrt:output.obj
 0002:00003b20       __acrt_exception_action_table 0000000180028b20     libucrt:exception_filter.obj
 0002:00003be0       __acrt_signal_action_table_count 0000000180028be0     libucrt:exception_filter.obj
 0002:00003be8       __acrt_signal_action_first_fpe_index 0000000180028be8     libucrt:exception_filter.obj
 0002:00003bf0       __acrt_signal_action_fpe_count 0000000180028bf0     libucrt:exception_filter.obj
 0002:00003c48       ??_C@_1BI@BGOHAHKC@?$AAm?$AAs?$AAc?$AAo?$AAr?$AAe?$AAe?$AA?4?$AAd?$AAl?$AAl@ 0000000180028c48     libucrt:exit.obj
 0002:00003c60       ??_C@_0P@MIGLKIOC@CorExitProcess@ 0000000180028c60     libucrt:exit.obj
 0002:00003dc0       __lc_time_c                0000000180028dc0     libucrt:nlsdata.obj
 0002:00004080       ??_C@_03KOEHGMDN@Sun@      0000000180029080     libucrt:nlsdata.obj
 0002:00004084       ??_C@_03PDAGKDH@Mon@       0000000180029084     libucrt:nlsdata.obj
 0002:00004088       ??_C@_03NAGEINEP@Tue@      0000000180029088     libucrt:nlsdata.obj
 0002:0000408c       ??_C@_03MHOMLAJA@Wed@      000000018002908c     libucrt:nlsdata.obj
 0002:00004090       ??_C@_03IOFIKPDN@Thu@      0000000180029090     libucrt:nlsdata.obj
 0002:00004094       ??_C@_03IDIOELNC@Fri@      0000000180029094     libucrt:nlsdata.obj
 0002:00004098       ??_C@_03FEFJNEK@Sat@       0000000180029098     libucrt:nlsdata.obj
 0002:0000409c       ??_C@_06OOPIFAJ@Sunday@    000000018002909c     libucrt:nlsdata.obj
 0002:000040a4       ??_C@_06JLEDEDGH@Monday@   00000001800290a4     libucrt:nlsdata.obj
 0002:000040b0       ??_C@_07BAAGCFCM@Tuesday@  00000001800290b0     libucrt:nlsdata.obj
 0002:000040b8       ??_C@_09DLIGFAKA@Wednesday@ 00000001800290b8     libucrt:nlsdata.obj
 0002:000040c8       ??_C@_08HACCIKIA@Thursday@ 00000001800290c8     libucrt:nlsdata.obj
 0002:000040d4       ??_C@_06JECMNKMI@Friday@   00000001800290d4     libucrt:nlsdata.obj
 0002:000040e0       ??_C@_08INBOOONO@Saturday@ 00000001800290e0     libucrt:nlsdata.obj
 0002:000040ec       ??_C@_03JIHJHPIE@Jan@      00000001800290ec     libucrt:nlsdata.obj
 0002:000040f0       ??_C@_03HJBDCHOM@Feb@      00000001800290f0     libucrt:nlsdata.obj
 0002:000040f4       ??_C@_03ODNJBKGA@Mar@      00000001800290f4     libucrt:nlsdata.obj
 0002:000040f8       ??_C@_03LEOLGMJP@Apr@      00000001800290f8     libucrt:nlsdata.obj
 0002:000040fc       ??_C@_03CNMDKL@May@        00000001800290fc     libucrt:nlsdata.obj
 0002:00004100       ??_C@_03IDFGHECI@Jun@      0000000180029100     libucrt:nlsdata.obj
 0002:00004104       ??_C@_03LBGABGKK@Jul@      0000000180029104     libucrt:nlsdata.obj
 0002:00004108       ??_C@_03IFJFEIGA@Aug@      0000000180029108     libucrt:nlsdata.obj
 0002:0000410c       ??_C@_03GGCAPAJC@Sep@      000000018002910c     libucrt:nlsdata.obj
 0002:00004110       ??_C@_03BMAOKBAD@Oct@      0000000180029110     libucrt:nlsdata.obj
 0002:00004114       ??_C@_03JPJOFNIA@Nov@      0000000180029114     libucrt:nlsdata.obj
 0002:00004118       ??_C@_03MKABNOCG@Dec@      0000000180029118     libucrt:nlsdata.obj
 0002:00004120       ??_C@_07CGJPFGJA@January@  0000000180029120     libucrt:nlsdata.obj
 0002:00004128       ??_C@_08GNJGEPFN@February@ 0000000180029128     libucrt:nlsdata.obj
 0002:00004134       ??_C@_05HPCKOFNC@March@    0000000180029134     libucrt:nlsdata.obj
 0002:0000413c       ??_C@_05DMJDNLEJ@April@    000000018002913c     libucrt:nlsdata.obj
 0002:00004144       ??_C@_04CNLMGBGM@June@     0000000180029144     libucrt:nlsdata.obj
 0002:0000414c       ??_C@_04MIEPOIFP@July@     000000018002914c     libucrt:nlsdata.obj
 0002:00004154       ??_C@_06LBBHFDDG@August@   0000000180029154     libucrt:nlsdata.obj
 0002:00004160       ??_C@_09BHHEALKD@September@ 0000000180029160     libucrt:nlsdata.obj
 0002:00004170       ??_C@_07JJNFCEND@October@  0000000180029170     libucrt:nlsdata.obj
 0002:00004178       ??_C@_08HCHEGEOA@November@ 0000000180029178     libucrt:nlsdata.obj
 0002:00004188       ??_C@_08EDHMEBNP@December@ 0000000180029188     libucrt:nlsdata.obj
 0002:00004194       ??_C@_02DEDBPAFC@AM@       0000000180029194     libucrt:nlsdata.obj
 0002:00004198       ??_C@_02CJNFDJBF@PM@       0000000180029198     libucrt:nlsdata.obj
 0002:000041a0       ??_C@_08BPBNCDIB@MM?1dd?1yy@ 00000001800291a0     libucrt:nlsdata.obj
 0002:000041b0       ??_C@_0BE@CKGJFCPC@dddd?0?5MMMM?5dd?0?5yyyy@ 00000001800291b0     libucrt:nlsdata.obj
 0002:000041c8       ??_C@_08JCCMCCIL@HH?3mm?3ss@ 00000001800291c8     libucrt:nlsdata.obj
 0002:000041d8       ??_C@_17MBGCMIPB@?$AAS?$AAu?$AAn@ 00000001800291d8     libucrt:nlsdata.obj
 0002:000041e0       ??_C@_17KBOMKBF@?$AAM?$AAo?$AAn@ 00000001800291e0     libucrt:nlsdata.obj
 0002:000041e8       ??_C@_17BMKGEGOJ@?$AAT?$AAu?$AAe@ 00000001800291e8     libucrt:nlsdata.obj
 0002:000041f0       ??_C@_17CJEDCEPE@?$AAW?$AAe?$AAd@ 00000001800291f0     libucrt:nlsdata.obj
 0002:000041f8       ??_C@_17PDPHAADD@?$AAT?$AAh?$AAu@ 00000001800291f8     libucrt:nlsdata.obj
 0002:00004200       ??_C@_17HFOLPPLP@?$AAF?$AAr?$AAi@ 0000000180029200     libucrt:nlsdata.obj
 0002:00004208       ??_C@_17GGIBDPIH@?$AAS?$AAa?$AAt@ 0000000180029208     libucrt:nlsdata.obj
 0002:00004210       ??_C@_1O@IHNHDHPB@?$AAS?$AAu?$AAn?$AAd?$AAa?$AAy@ 0000000180029210     libucrt:nlsdata.obj
 0002:00004220       ??_C@_1O@MMNBFLIA@?$AAM?$AAo?$AAn?$AAd?$AAa?$AAy@ 0000000180029220     libucrt:nlsdata.obj
 0002:00004230       ??_C@_1BA@ENFBFFEK@?$AAT?$AAu?$AAe?$AAs?$AAd?$AAa?$AAy@ 0000000180029230     libucrt:nlsdata.obj
 0002:00004240       ??_C@_1BE@EBOGMDOH@?$AAW?$AAe?$AAd?$AAn?$AAe?$AAs?$AAd?$AAa?$AAy@ 0000000180029240     libucrt:nlsdata.obj
 0002:00004258       ??_C@_1BC@HHMNLIHE@?$AAT?$AAh?$AAu?$AAr?$AAs?$AAd?$AAa?$AAy@ 0000000180029258     libucrt:nlsdata.obj
 0002:00004270       ??_C@_1O@PDICJHAG@?$AAF?$AAr?$AAi?$AAd?$AAa?$AAy@ 0000000180029270     libucrt:nlsdata.obj
 0002:00004280       ??_C@_1BC@ENMNNPAJ@?$AAS?$AAa?$AAt?$AAu?$AAr?$AAd?$AAa?$AAy@ 0000000180029280     libucrt:nlsdata.obj
 0002:00004298       ??_C@_17DKNBKCHM@?$AAJ?$AAa?$AAn@ 0000000180029298     libucrt:nlsdata.obj
 0002:000042a0       ??_C@_17LMDJEKJN@?$AAF?$AAe?$AAb@ 00000001800292a0     libucrt:nlsdata.obj
 0002:000042a8       ??_C@_17CKNLEDEC@?$AAM?$AAa?$AAr@ 00000001800292a8     libucrt:nlsdata.obj
 0002:000042b0       ??_C@_17LFPOIHDD@?$AAA?$AAp?$AAr@ 00000001800292b0     libucrt:nlsdata.obj
 0002:000042b8       ??_C@_17PNNKMEED@?$AAM?$AAa?$AAy@ 00000001800292b8     libucrt:nlsdata.obj
 0002:000042c0       ??_C@_17KCJGOCPB@?$AAJ?$AAu?$AAn@ 00000001800292c0     libucrt:nlsdata.obj
 0002:000042c8       ??_C@_17IJPCKHK@?$AAJ?$AAu?$AAl@ 00000001800292c8     libucrt:nlsdata.obj
 0002:000042d0       ??_C@_17ICPELBCN@?$AAA?$AAu?$AAg@ 00000001800292d0     libucrt:nlsdata.obj
 0002:000042d8       ??_C@_17HCHCOKMG@?$AAS?$AAe?$AAp@ 00000001800292d8     libucrt:nlsdata.obj
 0002:000042e0       ??_C@_17FNLKOI@?$AAO?$AAc?$AAt@ 00000001800292e0     libucrt:nlsdata.obj
 0002:000042e8       ??_C@_17BBDMLCIG@?$AAN?$AAo?$AAv@ 00000001800292e8     libucrt:nlsdata.obj
 0002:000042f0       ??_C@_17EGKACKIF@?$AAD?$AAe?$AAc@ 00000001800292f0     libucrt:nlsdata.obj
 0002:000042f8       ??_C@_1BA@EFMEIEBA@?$AAJ?$AAa?$AAn?$AAu?$AAa?$AAr?$AAy@ 00000001800292f8     libucrt:nlsdata.obj
 0002:00004308       ??_C@_1BC@JGDDFFAM@?$AAF?$AAe?$AAb?$AAr?$AAu?$AAa?$AAr?$AAy@ 0000000180029308     libucrt:nlsdata.obj
 0002:00004320       ??_C@_1M@IKEENEDF@?$AAM?$AAa?$AAr?$AAc?$AAh@ 0000000180029320     libucrt:nlsdata.obj
 0002:00004330       ??_C@_1M@GJNLMHFD@?$AAA?$AAp?$AAr?$AAi?$AAl@ 0000000180029330     libucrt:nlsdata.obj
 0002:00004340       ??_C@_19EPFLPGAP@?$AAJ?$AAu?$AAn?$AAe@ 0000000180029340     libucrt:nlsdata.obj
 0002:00004350       ??_C@_19BIFMLPCD@?$AAJ?$AAu?$AAl?$AAy@ 0000000180029350     libucrt:nlsdata.obj
 0002:00004360       ??_C@_1O@PAHLKOAC@?$AAA?$AAu?$AAg?$AAu?$AAs?$AAt@ 0000000180029360     libucrt:nlsdata.obj
 0002:00004370       ??_C@_1BE@DKAAMBJL@?$AAS?$AAe?$AAp?$AAt?$AAe?$AAm?$AAb?$AAe?$AAr@ 0000000180029370     libucrt:nlsdata.obj
 0002:00004388       ??_C@_1BA@EPANDLNG@?$AAO?$AAc?$AAt?$AAo?$AAb?$AAe?$AAr@ 0000000180029388     libucrt:nlsdata.obj
 0002:00004398       ??_C@_1BC@BGLIFPF@?$AAN?$AAo?$AAv?$AAe?$AAm?$AAb?$AAe?$AAr@ 0000000180029398     libucrt:nlsdata.obj
 0002:000043b0       ??_C@_1BC@FEMKIFH@?$AAD?$AAe?$AAc?$AAe?$AAm?$AAb?$AAe?$AAr@ 00000001800293b0     libucrt:nlsdata.obj
 0002:000043c4       ??_C@_15ODEHAHHF@?$AAA?$AAM@ 00000001800293c4     libucrt:nlsdata.obj
 0002:000043cc       ??_C@_15CLMNNGEL@?$AAP?$AAM@ 00000001800293cc     libucrt:nlsdata.obj
 0002:000043d8       ??_C@_1BC@IEBCMHCM@?$AAM?$AAM?$AA?1?$AAd?$AAd?$AA?1?$AAy?$AAy@ 00000001800293d8     libucrt:nlsdata.obj
 0002:000043f0       ??_C@_1CI@KNAKOEBC@?$AAd?$AAd?$AAd?$AAd?$AA?0?$AA?5?$AAM?$AAM?$AAM?$AAM?$AA?5?$AAd?$AAd?$AA?0?$AA?5@ 00000001800293f0     libucrt:nlsdata.obj
 0002:00004418       ??_C@_1BC@GDGBMEMK@?$AAH?$AAH?$AA?3?$AAm?$AAm?$AA?3?$AAs?$AAs@ 0000000180029418     libucrt:nlsdata.obj
 0002:00004430       ??_C@_1M@BMHNFIME@?$AAe?$AAn?$AA?9?$AAU?$AAS@ 0000000180029430     libucrt:nlsdata.obj
 0002:000044e0       ??_C@_1EA@JGEFHKEI@?$AAa?$AAp?$AAi?$AA?9?$AAm?$AAs?$AA?9?$AAw?$AAi?$AAn?$AA?9?$AAc?$AAo?$AAr?$AAe@ 00000001800294e0     libucrt:winapi_thunks.obj
 0002:00004520       ??_C@_1DI@IJCEHOCB@?$AAa?$AAp?$AAi?$AA?9?$AAm?$AAs?$AA?9?$AAw?$AAi?$AAn?$AA?9?$AAc?$AAo?$AAr?$AAe@ 0000000180029520     libucrt:winapi_thunks.obj
 0002:00004560       ??_C@_1EI@MPIAOHOC@?$AAa?$AAp?$AAi?$AA?9?$AAm?$AAs?$AA?9?$AAw?$AAi?$AAn?$AA?9?$AAc?$AAo?$AAr?$AAe@ 0000000180029560     libucrt:winapi_thunks.obj
 0002:000045b0       ??_C@_1FK@FPHCKFIE@?$AAa?$AAp?$AAi?$AA?9?$AAm?$AAs?$AA?9?$AAw?$AAi?$AAn?$AA?9?$AAc?$AAo?$AAr?$AAe@ 00000001800295b0     libucrt:winapi_thunks.obj
 0002:00004610       ??_C@_1EM@DILCGIIO@?$AAa?$AAp?$AAi?$AA?9?$AAm?$AAs?$AA?9?$AAw?$AAi?$AAn?$AA?9?$AAc?$AAo?$AAr?$AAe@ 0000000180029610     libucrt:winapi_thunks.obj
 0002:00004660       ??_C@_1DM@LNCGDDPN@?$AAa?$AAp?$AAi?$AA?9?$AAm?$AAs?$AA?9?$AAw?$AAi?$AAn?$AA?9?$AAc?$AAo?$AAr?$AAe@ 0000000180029660     libucrt:winapi_thunks.obj
 0002:000046a0       ??_C@_1DO@FPAPJEMD@?$AAa?$AAp?$AAi?$AA?9?$AAm?$AAs?$AA?9?$AAw?$AAi?$AAn?$AA?9?$AAc?$AAo?$AAr?$AAe@ 00000001800296a0     libucrt:winapi_thunks.obj
 0002:000046e0       ??_C@_1DK@NDHNAHIO@?$AAa?$AAp?$AAi?$AA?9?$AAm?$AAs?$AA?9?$AAw?$AAi?$AAn?$AA?9?$AAc?$AAo?$AAr?$AAe@ 00000001800296e0     libucrt:winapi_thunks.obj
 0002:00004720       ??_C@_1DM@KGHDGBCM@?$AAa?$AAp?$AAi?$AA?9?$AAm?$AAs?$AA?9?$AAw?$AAi?$AAn?$AA?9?$AAc?$AAo?$AAr?$AAe@ 0000000180029720     libucrt:winapi_thunks.obj
 0002:00004760       ??_C@_1EO@IJIOEFOH@?$AAa?$AAp?$AAi?$AA?9?$AAm?$AAs?$AA?9?$AAw?$AAi?$AAn?$AA?9?$AAr?$AAt?$AAc?$AAo@ 0000000180029760     libucrt:winapi_thunks.obj
 0002:000047b0       ??_C@_1FG@HHGEKANL@?$AAa?$AAp?$AAi?$AA?9?$AAm?$AAs?$AA?9?$AAw?$AAi?$AAn?$AA?9?$AAs?$AAe?$AAc?$AAu@ 00000001800297b0     libucrt:winapi_thunks.obj
 0002:00004810       ??_C@_1EG@DBIOJECG@?$AAe?$AAx?$AAt?$AA?9?$AAm?$AAs?$AA?9?$AAw?$AAi?$AAn?$AA?9?$AAn?$AAt?$AAu?$AAs@ 0000000180029810     libucrt:winapi_thunks.obj
 0002:00004860       ??_C@_1EO@FIHMJCLF@?$AAe?$AAx?$AAt?$AA?9?$AAm?$AAs?$AA?9?$AAw?$AAi?$AAn?$AA?9?$AAn?$AAt?$AAu?$AAs@ 0000000180029860     libucrt:winapi_thunks.obj
 0002:000048b0       ??_C@_1BC@DNHGCMLG@?$AAa?$AAd?$AAv?$AAa?$AAp?$AAi?$AA3?$AA2@ 00000001800298b0     libucrt:winapi_thunks.obj
 0002:000048c8       ??_C@_1M@OAIMIKLP@?$AAn?$AAt?$AAd?$AAl?$AAl@ 00000001800298c8     libucrt:winapi_thunks.obj
 0002:000048e0       ??_C@_1EG@DPGNFKGC@?$AAa?$AAp?$AAi?$AA?9?$AAm?$AAs?$AA?9?$AAw?$AAi?$AAn?$AA?9?$AAa?$AAp?$AAp?$AAm@ 00000001800298e0     libucrt:winapi_thunks.obj
 0002:00004928       ??_C@_1O@BCCLBEOE@?$AAu?$AAs?$AAe?$AAr?$AA3?$AA2@ 0000000180029928     libucrt:winapi_thunks.obj
 0002:00004938       ??_C@_1BA@IAIFMGEF@?$AAe?$AAx?$AAt?$AA?9?$AAm?$AAs?$AA?9@ 0000000180029938     libucrt:winapi_thunks.obj
 0002:00004950       ??_C@_0BA@FHFNEAED@AreFileApisANSI@ 0000000180029950     libucrt:winapi_thunks.obj
 0002:00004970       ??_C@_0O@KKBNKAPF@LCMapStringEx@ 0000000180029970     libucrt:winapi_thunks.obj
 0002:00004988       ??_C@_0BB@HBDEELFH@LocaleNameToLCID@ 0000000180029988     libucrt:winapi_thunks.obj
 0002:000049a0       ??_C@_0CF@OJOFEIGO@AppPolicyGetProcessTerminationM@ 00000001800299a0     libucrt:winapi_thunks.obj
 0002:000049d0       ??_C@_0BI@BKLFFAPO@SetThreadStackGuarantee@ 00000001800299d0     libucrt:winapi_thunks.obj
 0002:00004a70       ??_C@_03OEIAHPBN@INF@      0000000180029a70     libucrt:cvt.obj
 0002:00004a74       ??_C@_03OJHLLCGB@inf@      0000000180029a74     libucrt:cvt.obj
 0002:00004a78       ??_C@_03LKNCIKJB@NAN@      0000000180029a78     libucrt:cvt.obj
 0002:00004a7c       ??_C@_03LHCJEHON@nan@      0000000180029a7c     libucrt:cvt.obj
 0002:00004a80       ??_C@_09OFJJIMPC@NAN?$CISNAN?$CJ@ 0000000180029a80     libucrt:cvt.obj
 0002:00004a90       ??_C@_09IPFBKMDL@nan?$CIsnan?$CJ@ 0000000180029a90     libucrt:cvt.obj
 0002:00004aa0       ??_C@_08IKHNHAJ@NAN?$CIIND?$CJ@ 0000000180029aa0     libucrt:cvt.obj
 0002:00004ab0       ??_C@_08OFCDMILK@nan?$CIind?$CJ@ 0000000180029ab0     libucrt:cvt.obj
 0002:00004abc       ??_C@_05KLBDPFGC@e?$CL000@ 0000000180029abc     libucrt:cvt.obj
 0002:00004ae8       ??_C@_1M@HPNHIDJI@?$AAj?$AAa?$AA?9?$AAJ?$AAP@ 0000000180029ae8     libucrt:mbctype.obj
 0002:00004af8       ??_C@_1M@BIBDDEMK@?$AAz?$AAh?$AA?9?$AAC?$AAN@ 0000000180029af8     libucrt:mbctype.obj
 0002:00004b08       ??_C@_1M@JLOOOEGK@?$AAk?$AAo?$AA?9?$AAK?$AAR@ 0000000180029b08     libucrt:mbctype.obj
 0002:00004b18       ??_C@_1M@CLNBBOPM@?$AAz?$AAh?$AA?9?$AAT?$AAW@ 0000000180029b18     libucrt:mbctype.obj
 0002:00004b30       __newctype                 0000000180029b30     libucrt:ctype.obj
 0002:00004e30       __newclmap                 0000000180029e30     libucrt:ctype.obj
 0002:00004fb0       __newcumap                 0000000180029fb0     libucrt:ctype.obj
 0002:00005130       ??_C@_15PJPFLCCM@?$AAu?$AAk@ 000000018002a130     libucrt:get_qualified_locale.obj
 0002:00005f80       ??_C@_15EMKDOKLE@?$AAa?$AAr@ 000000018002af80     libucrt:lcidtoname_downlevel.obj
 0002:00005f88       ??_C@_15KNPADPLH@?$AAb?$AAg@ 000000018002af88     libucrt:lcidtoname_downlevel.obj
 0002:00005f90       ??_C@_15EDMHLDMO@?$AAc?$AAa@ 000000018002af90     libucrt:lcidtoname_downlevel.obj
 0002:00005f98       ??_C@_1O@BPEAJADD@?$AAz?$AAh?$AA?9?$AAC?$AAH?$AAS@ 000000018002af98     libucrt:lcidtoname_downlevel.obj
 0002:00005fa8       ??_C@_15LJNHCMNK@?$AAc?$AAs@ 000000018002afa8     libucrt:lcidtoname_downlevel.obj
 0002:00005fb0       ??_C@_15FOMCIDHG@?$AAd?$AAa@ 000000018002afb0     libucrt:lcidtoname_downlevel.obj
 0002:00005fb8       ??_C@_15NBKABECB@?$AAd?$AAe@ 000000018002afb8     libucrt:lcidtoname_downlevel.obj
 0002:00005fc0       ??_C@_15GHPEIIAO@?$AAe?$AAl@ 000000018002afc0     libucrt:lcidtoname_downlevel.obj
 0002:00005fc8       ??_C@_15MNPNEAIF@?$AAe?$AAn@ 000000018002afc8     libucrt:lcidtoname_downlevel.obj
 0002:00005fd0       ??_C@_15GPIOMPMH@?$AAe?$AAs@ 000000018002afd0     libucrt:lcidtoname_downlevel.obj
 0002:00005fd8       ??_C@_15NGLOAKJC@?$AAf?$AAi@ 000000018002afd8     libucrt:lcidtoname_downlevel.obj
 0002:00005fe0       ??_C@_15FBKGNKAM@?$AAf?$AAr@ 000000018002afe0     libucrt:lcidtoname_downlevel.obj
 0002:00005fe8       ??_C@_15KGGCNEFK@?$AAh?$AAe@ 000000018002afe8     libucrt:lcidtoname_downlevel.obj
 0002:00005ff0       ??_C@_15PGHLIDMF@?$AAh?$AAu@ 000000018002aff0     libucrt:lcidtoname_downlevel.obj
 0002:00005ff8       ??_C@_15BIEMAPLM@?$AAi?$AAs@ 000000018002aff8     libucrt:lcidtoname_downlevel.obj
 0002:00006000       ??_C@_15IFJLDHAF@?$AAi?$AAt@ 000000018002b000     libucrt:lcidtoname_downlevel.obj
 0002:00006008       ??_C@_15GEMIOCAG@?$AAj?$AAa@ 000000018002b008     libucrt:lcidtoname_downlevel.obj
 0002:00006010       ??_C@_15EPELEGJA@?$AAk?$AAo@ 000000018002b010     libucrt:lcidtoname_downlevel.obj
 0002:00006018       ??_C@_15NDDHIMN@?$AAn?$AAl@ 000000018002b018     libucrt:lcidtoname_downlevel.obj
 0002:00006020       ??_C@_15BPIGNHCD@?$AAn?$AAo@ 000000018002b020     libucrt:lcidtoname_downlevel.obj
 0002:00006028       ??_C@_15DEOPBLCG@?$AAp?$AAl@ 000000018002b028     libucrt:lcidtoname_downlevel.obj
 0002:00006030       ??_C@_15KBECGEFG@?$AAp?$AAt@ 000000018002b030     libucrt:lcidtoname_downlevel.obj
 0002:00006038       ??_C@_15GLJCBFMD@?$AAr?$AAo@ 000000018002b038     libucrt:lcidtoname_downlevel.obj
 0002:00006040       ??_C@_15FEDGKCDI@?$AAr?$AAu@ 000000018002b040     libucrt:lcidtoname_downlevel.obj
 0002:00006048       ??_C@_15GLKMLLHM@?$AAh?$AAr@ 000000018002b048     libucrt:lcidtoname_downlevel.obj
 0002:00006050       ??_C@_15CPKMFBDB@?$AAs?$AAk@ 000000018002b050     libucrt:lcidtoname_downlevel.obj
 0002:00006058       ??_C@_15BAAIOGMK@?$AAs?$AAq@ 000000018002b058     libucrt:lcidtoname_downlevel.obj
 0002:00006060       ??_C@_15INNPNOHD@?$AAs?$AAv@ 000000018002b060     libucrt:lcidtoname_downlevel.obj
 0002:00006068       ??_C@_15CABMMOGH@?$AAt?$AAh@ 000000018002b068     libucrt:lcidtoname_downlevel.obj
 0002:00006070       ??_C@_15BPLIHJJM@?$AAt?$AAr@ 000000018002b070     libucrt:lcidtoname_downlevel.obj
 0002:00006078       ??_C@_15NEOEKKDJ@?$AAu?$AAr@ 000000018002b078     libucrt:lcidtoname_downlevel.obj
 0002:00006080       ??_C@_15NFICGAJK@?$AAi?$AAd@ 000000018002b080     libucrt:lcidtoname_downlevel.obj
 0002:00006088       ??_C@_15HPJPHDM@?$AAb?$AAe@ 000000018002b088     libucrt:lcidtoname_downlevel.obj
 0002:00006090       ??_C@_15LCHLGJII@?$AAs?$AAl@ 000000018002b090     libucrt:lcidtoname_downlevel.obj
 0002:00006098       ??_C@_15PCFJPHHO@?$AAe?$AAt@ 000000018002b098     libucrt:lcidtoname_downlevel.obj
 0002:000060a0       ??_C@_15HPFPGODN@?$AAl?$AAv@ 000000018002b0a0     libucrt:lcidtoname_downlevel.obj
 0002:000060a8       ??_C@_15NFFGKGLG@?$AAl?$AAt@ 000000018002b0a8     libucrt:lcidtoname_downlevel.obj
 0002:000060b0       ??_C@_15BDAKCCHN@?$AAf?$AAa@ 000000018002b0b0     libucrt:lcidtoname_downlevel.obj
 0002:000060b8       ??_C@_15NFGIAIAJ@?$AAv?$AAi@ 000000018002b0b8     libucrt:lcidtoname_downlevel.obj
 0002:000060c0       ??_C@_15LMKNDMHN@?$AAh?$AAy@ 000000018002b0c0     libucrt:lcidtoname_downlevel.obj
 0002:000060c8       ??_C@_15IJBHMCFL@?$AAa?$AAz@ 000000018002b0c8     libucrt:lcidtoname_downlevel.obj
 0002:000060d0       ??_C@_15EKOFJABL@?$AAe?$AAu@ 000000018002b0d0     libucrt:lcidtoname_downlevel.obj
 0002:000060d8       ??_C@_15BGHADCNK@?$AAm?$AAk@ 000000018002b0d8     libucrt:lcidtoname_downlevel.obj
 0002:000060e0       ??_C@_15JDNICKHM@?$AAa?$AAf@ 000000018002b0e0     libucrt:lcidtoname_downlevel.obj
 0002:000060e8       ??_C@_15KPJEDBKD@?$AAk?$AAa@ 000000018002b0e8     libucrt:lcidtoname_downlevel.obj
 0002:000060f0       ??_C@_15PDNFFFEO@?$AAf?$AAo@ 000000018002b0f0     libucrt:lcidtoname_downlevel.obj
 0002:000060f8       ??_C@_15OMLEGLOC@?$AAh?$AAi@ 000000018002b0f8     libucrt:lcidtoname_downlevel.obj
 0002:00006100       ??_C@_15IDNNENKK@?$AAm?$AAs@ 000000018002b100     libucrt:lcidtoname_downlevel.obj
 0002:00006108       ??_C@_15MACJNBMH@?$AAk?$AAk@ 000000018002b108     libucrt:lcidtoname_downlevel.obj
 0002:00006110       ??_C@_15DKDJEOND@?$AAk?$AAy@ 000000018002b110     libucrt:lcidtoname_downlevel.obj
 0002:00006118       ??_C@_15DFGDLJBG@?$AAs?$AAw@ 000000018002b118     libucrt:lcidtoname_downlevel.obj
 0002:00006120       ??_C@_15BBFAICNG@?$AAu?$AAz@ 000000018002b120     libucrt:lcidtoname_downlevel.obj
 0002:00006128       ??_C@_15DKNDCGEA@?$AAt?$AAt@ 000000018002b128     libucrt:lcidtoname_downlevel.obj
 0002:00006130       ??_C@_15MGIFMDPL@?$AAp?$AAa@ 000000018002b130     libucrt:lcidtoname_downlevel.obj
 0002:00006138       ??_C@_15HCNDBBA@?$AAg?$AAu@ 000000018002b138     libucrt:lcidtoname_downlevel.obj
 0002:00006140       ??_C@_15FNBEIBON@?$AAt?$AAa@ 000000018002b140     libucrt:lcidtoname_downlevel.obj
 0002:00006148       ??_C@_15NCHGBGLK@?$AAt?$AAe@ 000000018002b148     libucrt:lcidtoname_downlevel.obj
 0002:00006150       ??_C@_15PHPHCBPF@?$AAk?$AAn@ 000000018002b150     libucrt:lcidtoname_downlevel.obj
 0002:00006158       ??_C@_15DLGBCKMP@?$AAm?$AAr@ 000000018002b158     libucrt:lcidtoname_downlevel.obj
 0002:00006160       ??_C@_15EABBLBFF@?$AAs?$AAa@ 000000018002b160     libucrt:lcidtoname_downlevel.obj
 0002:00006168       ??_C@_15CBKOMCOI@?$AAm?$AAn@ 000000018002b168     libucrt:lcidtoname_downlevel.obj
 0002:00006170       ??_C@_15CKDMCJAF@?$AAg?$AAl@ 000000018002b170     libucrt:lcidtoname_downlevel.obj
 0002:00006178       ??_C@_17CNJFBPG@?$AAk?$AAo?$AAk@ 000000018002b178     libucrt:lcidtoname_downlevel.obj
 0002:00006180       ??_C@_17FFBJICPL@?$AAs?$AAy?$AAr@ 000000018002b180     libucrt:lcidtoname_downlevel.obj
 0002:00006188       ??_C@_17KPNDCPAF@?$AAd?$AAi?$AAv@ 000000018002b188     libucrt:lcidtoname_downlevel.obj
 0002:00006190       ??_C@_1M@OKAHONE@?$AAa?$AAr?$AA?9?$AAS?$AAA@ 000000018002b190     libucrt:lcidtoname_downlevel.obj
 0002:000061a0       ??_C@_1M@FFFIGIGK@?$AAb?$AAg?$AA?9?$AAB?$AAG@ 000000018002b1a0     libucrt:lcidtoname_downlevel.obj
 0002:000061b0       ??_C@_1M@BJNKEDC@?$AAc?$AAa?$AA?9?$AAE?$AAS@ 000000018002b1b0     libucrt:lcidtoname_downlevel.obj
 0002:000061c0       ??_C@_1M@IJJHFJHA@?$AAc?$AAs?$AA?9?$AAC?$AAZ@ 000000018002b1c0     libucrt:lcidtoname_downlevel.obj
 0002:000061d0       ??_C@_1M@CLPEOBGI@?$AAd?$AAa?$AA?9?$AAD?$AAK@ 000000018002b1d0     libucrt:lcidtoname_downlevel.obj
 0002:000061e0       ??_C@_1M@MCMADGCB@?$AAd?$AAe?$AA?9?$AAD?$AAE@ 000000018002b1e0     libucrt:lcidtoname_downlevel.obj
 0002:000061f0       ??_C@_1M@OOCKEMAM@?$AAe?$AAl?$AA?9?$AAG?$AAR@ 000000018002b1f0     libucrt:lcidtoname_downlevel.obj
 0002:00006200       ??_C@_1M@DDNJFGID@?$AAf?$AAi?$AA?9?$AAF?$AAI@ 000000018002b200     libucrt:lcidtoname_downlevel.obj
 0002:00006210       ??_C@_1M@GLIPPMAC@?$AAf?$AAr?$AA?9?$AAF?$AAR@ 000000018002b210     libucrt:lcidtoname_downlevel.obj
 0002:00006220       ??_C@_1M@GFMCHPE@?$AAh?$AAe?$AA?9?$AAI?$AAL@ 000000018002b220     libucrt:lcidtoname_downlevel.obj
 0002:00006230       ??_C@_1M@MHLPGNKM@?$AAh?$AAu?$AA?9?$AAH?$AAU@ 000000018002b230     libucrt:lcidtoname_downlevel.obj
 0002:00006240       ??_C@_1M@LPDDNNPN@?$AAi?$AAs?$AA?9?$AAI?$AAS@ 000000018002b240     libucrt:lcidtoname_downlevel.obj
 0002:00006250       ??_C@_1M@MADIPODN@?$AAi?$AAt?$AA?9?$AAI?$AAT@ 000000018002b250     libucrt:lcidtoname_downlevel.obj
 0002:00006260       ??_C@_1M@IHBJJGG@?$AAn?$AAl?$AA?9?$AAN?$AAL@ 000000018002b260     libucrt:lcidtoname_downlevel.obj
 0002:00006270       ??_C@_1M@EANAGDL@?$AAn?$AAb?$AA?9?$AAN?$AAO@ 000000018002b270     libucrt:lcidtoname_downlevel.obj
 0002:00006280       ??_C@_1M@NEIEMEGP@?$AAp?$AAl?$AA?9?$AAP?$AAL@ 000000018002b280     libucrt:lcidtoname_downlevel.obj
 0002:00006290       ??_C@_1M@BOCFIGEP@?$AAp?$AAt?$AA?9?$AAB?$AAR@ 000000018002b290     libucrt:lcidtoname_downlevel.obj
 0002:000062a0       ??_C@_1M@IMPFOPBG@?$AAr?$AAo?$AA?9?$AAR?$AAO@ 000000018002b2a0     libucrt:lcidtoname_downlevel.obj
 0002:000062b0       ??_C@_1M@IDNNEJMM@?$AAr?$AAu?$AA?9?$AAR?$AAU@ 000000018002b2b0     libucrt:lcidtoname_downlevel.obj
 0002:000062c0       ??_C@_1M@LILEEOGM@?$AAh?$AAr?$AA?9?$AAH?$AAR@ 000000018002b2c0     libucrt:lcidtoname_downlevel.obj
 0002:000062d0       ??_C@_1M@FKIFEHPB@?$AAs?$AAk?$AA?9?$AAS?$AAK@ 000000018002b2d0     libucrt:lcidtoname_downlevel.obj
 0002:000062e0       ??_C@_1M@LJMAMNPJ@?$AAs?$AAq?$AA?9?$AAA?$AAL@ 000000018002b2e0     libucrt:lcidtoname_downlevel.obj
 0002:000062f0       ??_C@_1M@GIAKDKJK@?$AAs?$AAv?$AA?9?$AAS?$AAE@ 000000018002b2f0     libucrt:lcidtoname_downlevel.obj
 0002:00006300       ??_C@_1M@MKJKIKCL@?$AAt?$AAh?$AA?9?$AAT?$AAH@ 000000018002b300     libucrt:lcidtoname_downlevel.obj
 0002:00006310       ??_C@_1M@MFLCCMPB@?$AAt?$AAr?$AA?9?$AAT?$AAR@ 000000018002b310     libucrt:lcidtoname_downlevel.obj
 0002:00006320       ??_C@_1M@OIJHDKJN@?$AAu?$AAr?$AA?9?$AAP?$AAK@ 000000018002b320     libucrt:lcidtoname_downlevel.obj
 0002:00006330       ??_C@_1M@LHIPCIEK@?$AAi?$AAd?$AA?9?$AAI?$AAD@ 000000018002b330     libucrt:lcidtoname_downlevel.obj
 0002:00006340       ??_C@_1M@MFMOBGI@?$AAu?$AAk?$AA?9?$AAU?$AAA@ 000000018002b340     libucrt:lcidtoname_downlevel.obj
 0002:00006350       ??_C@_1M@OBGLJIPL@?$AAb?$AAe?$AA?9?$AAB?$AAY@ 000000018002b350     libucrt:lcidtoname_downlevel.obj
 0002:00006360       ??_C@_1M@BCFAJEAD@?$AAs?$AAl?$AA?9?$AAS?$AAI@ 000000018002b360     libucrt:lcidtoname_downlevel.obj
 0002:00006370       ??_C@_1M@FKFFEDDN@?$AAe?$AAt?$AA?9?$AAE?$AAE@ 000000018002b370     libucrt:lcidtoname_downlevel.obj
 0002:00006380       ??_C@_1M@KGKKAACI@?$AAl?$AAv?$AA?9?$AAL?$AAV@ 000000018002b380     libucrt:lcidtoname_downlevel.obj
 0002:00006390       ??_C@_1M@IFGBIJO@?$AAl?$AAt?$AA?9?$AAL?$AAT@ 000000018002b390     libucrt:lcidtoname_downlevel.obj
 0002:000063a0       ??_C@_1M@FGEAHEDM@?$AAf?$AAa?$AA?9?$AAI?$AAR@ 000000018002b3a0     libucrt:lcidtoname_downlevel.obj
 0002:000063b0       ??_C@_1M@KBMAIBFN@?$AAv?$AAi?$AA?9?$AAV?$AAN@ 000000018002b3b0     libucrt:lcidtoname_downlevel.obj
 0002:000063c0       ??_C@_1M@GPCBKDJK@?$AAh?$AAy?$AA?9?$AAA?$AAM@ 000000018002b3c0     libucrt:lcidtoname_downlevel.obj
 0002:000063d0       ??_C@_1BG@BECMDDJB@?$AAa?$AAz?$AA?9?$AAA?$AAZ?$AA?9?$AAL?$AAa?$AAt?$AAn@ 000000018002b3d0     libucrt:lcidtoname_downlevel.obj
 0002:000063e8       ??_C@_1M@MAOFCAEA@?$AAe?$AAu?$AA?9?$AAE?$AAS@ 000000018002b3e8     libucrt:lcidtoname_downlevel.obj
 0002:000063f8       ??_C@_1M@IGHABKPI@?$AAm?$AAk?$AA?9?$AAM?$AAK@ 000000018002b3f8     libucrt:lcidtoname_downlevel.obj
 0002:00006408       ??_C@_1M@IAIGNEJG@?$AAt?$AAn?$AA?9?$AAZ?$AAA@ 000000018002b408     libucrt:lcidtoname_downlevel.obj
 0002:00006418       ??_C@_1M@IIJCOJFA@?$AAx?$AAh?$AA?9?$AAZ?$AAA@ 000000018002b418     libucrt:lcidtoname_downlevel.obj
 0002:00006428       ??_C@_1M@LGPJHNJH@?$AAz?$AAu?$AA?9?$AAZ?$AAA@ 000000018002b428     libucrt:lcidtoname_downlevel.obj
 0002:00006438       ??_C@_1M@HOKAOIO@?$AAa?$AAf?$AA?9?$AAZ?$AAA@ 000000018002b438     libucrt:lcidtoname_downlevel.obj
 0002:00006448       ??_C@_1M@DPCLHLIE@?$AAk?$AAa?$AA?9?$AAG?$AAE@ 000000018002b448     libucrt:lcidtoname_downlevel.obj
 0002:00006458       ??_C@_1M@BLKMHJBI@?$AAf?$AAo?$AA?9?$AAF?$AAO@ 000000018002b458     libucrt:lcidtoname_downlevel.obj
 0002:00006468       ??_C@_1M@LGGJAPPB@?$AAh?$AAi?$AA?9?$AAI?$AAN@ 000000018002b468     libucrt:lcidtoname_downlevel.obj
 0002:00006478       ??_C@_1M@FIKPIHFE@?$AAm?$AAt?$AA?9?$AAM?$AAT@ 000000018002b478     libucrt:lcidtoname_downlevel.obj
 0002:00006488       ??_C@_1M@HEGGPBFA@?$AAs?$AAe?$AA?9?$AAN?$AAO@ 000000018002b488     libucrt:lcidtoname_downlevel.obj
 0002:00006498       ??_C@_1M@EIBJEEPA@?$AAm?$AAs?$AA?9?$AAM?$AAY@ 000000018002b498     libucrt:lcidtoname_downlevel.obj
 0002:000064a8       ??_C@_1M@FHLBGMPP@?$AAk?$AAk?$AA?9?$AAK?$AAZ@ 000000018002b4a8     libucrt:lcidtoname_downlevel.obj
 0002:000064b8       ??_C@_1M@NGJJLCGI@?$AAk?$AAy?$AA?9?$AAK?$AAG@ 000000018002b4b8     libucrt:lcidtoname_downlevel.obj
 0002:000064c8       ??_C@_1M@GIENNBFC@?$AAs?$AAw?$AA?9?$AAK?$AAE@ 000000018002b4c8     libucrt:lcidtoname_downlevel.obj
 0002:000064d8       ??_C@_1BG@NDGMJIMJ@?$AAu?$AAz?$AA?9?$AAU?$AAZ?$AA?9?$AAL?$AAa?$AAt?$AAn@ 000000018002b4d8     libucrt:lcidtoname_downlevel.obj
 0002:000064f0       ??_C@_1M@IDCCIHBC@?$AAt?$AAt?$AA?9?$AAR?$AAU@ 000000018002b4f0     libucrt:lcidtoname_downlevel.obj
 0002:00006500       ??_C@_1M@LOICPMOJ@?$AAb?$AAn?$AA?9?$AAI?$AAN@ 000000018002b500     libucrt:lcidtoname_downlevel.obj
 0002:00006510       ??_C@_1M@KPKKNEAH@?$AAp?$AAa?$AA?9?$AAI?$AAN@ 000000018002b510     libucrt:lcidtoname_downlevel.obj
 0002:00006520       ??_C@_1M@PJGPPBOG@?$AAg?$AAu?$AA?9?$AAI?$AAN@ 000000018002b520     libucrt:lcidtoname_downlevel.obj
 0002:00006530       ??_C@_1M@KMKMOPHI@?$AAt?$AAa?$AA?9?$AAI?$AAN@ 000000018002b530     libucrt:lcidtoname_downlevel.obj
 0002:00006540       ??_C@_1M@KFEHEPAC@?$AAt?$AAe?$AA?9?$AAI?$AAN@ 000000018002b540     libucrt:lcidtoname_downlevel.obj
 0002:00006550       ??_C@_1M@CDCLMGHI@?$AAk?$AAn?$AA?9?$AAI?$AAN@ 000000018002b550     libucrt:lcidtoname_downlevel.obj
 0002:00006560       ??_C@_1M@MIODLDKF@?$AAm?$AAl?$AA?9?$AAI?$AAN@ 000000018002b560     libucrt:lcidtoname_downlevel.obj
 0002:00006570       ??_C@_1M@PBIEACPO@?$AAm?$AAr?$AA?9?$AAI?$AAN@ 000000018002b570     libucrt:lcidtoname_downlevel.obj
 0002:00006580       ??_C@_1M@NIDEAGPH@?$AAs?$AAa?$AA?9?$AAI?$AAN@ 000000018002b580     libucrt:lcidtoname_downlevel.obj
 0002:00006590       ??_C@_1M@FHIHCBIO@?$AAm?$AAn?$AA?9?$AAM?$AAN@ 000000018002b590     libucrt:lcidtoname_downlevel.obj
 0002:000065a0       ??_C@_1M@JAIJPENP@?$AAc?$AAy?$AA?9?$AAG?$AAB@ 000000018002b5a0     libucrt:lcidtoname_downlevel.obj
 0002:000065b0       ??_C@_1M@PHGFBEPN@?$AAg?$AAl?$AA?9?$AAE?$AAS@ 000000018002b5b0     libucrt:lcidtoname_downlevel.obj
 0002:000065c0       ??_C@_1O@KPIPDNCP@?$AAk?$AAo?$AAk?$AA?9?$AAI?$AAN@ 000000018002b5c0     libucrt:lcidtoname_downlevel.obj
 0002:000065d0       ??_C@_1O@KNHJLDJA@?$AAs?$AAy?$AAr?$AA?9?$AAS?$AAY@ 000000018002b5d0     libucrt:lcidtoname_downlevel.obj
 0002:000065e0       ??_C@_1O@MKEKBLAH@?$AAd?$AAi?$AAv?$AA?9?$AAM?$AAV@ 000000018002b5e0     libucrt:lcidtoname_downlevel.obj
 0002:000065f0       ??_C@_1O@OHDCKDDF@?$AAq?$AAu?$AAz?$AA?9?$AAB?$AAO@ 000000018002b5f0     libucrt:lcidtoname_downlevel.obj
 0002:00006600       ??_C@_1M@LEPJNLFD@?$AAn?$AAs?$AA?9?$AAZ?$AAA@ 000000018002b600     libucrt:lcidtoname_downlevel.obj
 0002:00006610       ??_C@_1M@OMLEIIJB@?$AAm?$AAi?$AA?9?$AAN?$AAZ@ 000000018002b610     libucrt:lcidtoname_downlevel.obj
 0002:00006620       ??_C@_1M@PMPEAILG@?$AAa?$AAr?$AA?9?$AAI?$AAQ@ 000000018002b620     libucrt:lcidtoname_downlevel.obj
 0002:00006630       ??_C@_1M@CNKPNOEE@?$AAd?$AAe?$AA?9?$AAC?$AAH@ 000000018002b630     libucrt:lcidtoname_downlevel.obj
 0002:00006640       ??_C@_1M@LKMGMLKO@?$AAe?$AAn?$AA?9?$AAG?$AAB@ 000000018002b640     libucrt:lcidtoname_downlevel.obj
 0002:00006650       ??_C@_1M@PGKJFFGL@?$AAe?$AAs?$AA?9?$AAM?$AAX@ 000000018002b650     libucrt:lcidtoname_downlevel.obj
 0002:00006660       ??_C@_1M@DNNANBDC@?$AAf?$AAr?$AA?9?$AAB?$AAE@ 000000018002b660     libucrt:lcidtoname_downlevel.obj
 0002:00006670       ??_C@_1M@HLGMDFHM@?$AAi?$AAt?$AA?9?$AAC?$AAH@ 000000018002b670     libucrt:lcidtoname_downlevel.obj
 0002:00006680       ??_C@_1M@CLLBGJH@?$AAn?$AAl?$AA?9?$AAB?$AAE@ 000000018002b680     libucrt:lcidtoname_downlevel.obj
 0002:00006690       ??_C@_1M@BODBOGLF@?$AAn?$AAn?$AA?9?$AAN?$AAO@ 000000018002b690     libucrt:lcidtoname_downlevel.obj
 0002:000066a0       ??_C@_1M@HFFAHKAD@?$AAp?$AAt?$AA?9?$AAP?$AAT@ 000000018002b6a0     libucrt:lcidtoname_downlevel.obj
 0002:000066b0       ??_C@_1BG@LNOAKHIE@?$AAs?$AAr?$AA?9?$AAS?$AAP?$AA?9?$AAL?$AAa?$AAt?$AAn@ 000000018002b6b0     libucrt:lcidtoname_downlevel.obj
 0002:000066c8       ??_C@_1M@HBMHBGAK@?$AAs?$AAv?$AA?9?$AAF?$AAI@ 000000018002b6c8     libucrt:lcidtoname_downlevel.obj
 0002:000066d8       ??_C@_1BG@DGCJGJBE@?$AAa?$AAz?$AA?9?$AAA?$AAZ?$AA?9?$AAC?$AAy?$AAr?$AAl@ 000000018002b6d8     libucrt:lcidtoname_downlevel.obj
 0002:000066f0       ??_C@_1M@KEJDAAHB@?$AAs?$AAe?$AA?9?$AAS?$AAE@ 000000018002b6f0     libucrt:lcidtoname_downlevel.obj
 0002:00006700       ??_C@_1M@HEIBJJAD@?$AAm?$AAs?$AA?9?$AAB?$AAN@ 000000018002b700     libucrt:lcidtoname_downlevel.obj
 0002:00006710       ??_C@_1BG@PBGJMCEM@?$AAu?$AAz?$AA?9?$AAU?$AAZ?$AA?9?$AAC?$AAy?$AAr?$AAl@ 000000018002b710     libucrt:lcidtoname_downlevel.obj
 0002:00006728       ??_C@_1O@LAOBCMDF@?$AAq?$AAu?$AAz?$AA?9?$AAE?$AAC@ 000000018002b728     libucrt:lcidtoname_downlevel.obj
 0002:00006738       ??_C@_1M@POEEMAIO@?$AAa?$AAr?$AA?9?$AAE?$AAG@ 000000018002b738     libucrt:lcidtoname_downlevel.obj
 0002:00006748       ??_C@_1M@EFAKDEDL@?$AAz?$AAh?$AA?9?$AAH?$AAK@ 000000018002b748     libucrt:lcidtoname_downlevel.obj
 0002:00006758       ??_C@_1M@HKKIJHGI@?$AAd?$AAe?$AA?9?$AAA?$AAT@ 000000018002b758     libucrt:lcidtoname_downlevel.obj
 0002:00006768       ??_C@_1M@KBFBEHJF@?$AAe?$AAn?$AA?9?$AAA?$AAU@ 000000018002b768     libucrt:lcidtoname_downlevel.obj
 0002:00006778       ??_C@_1M@MNPLFAAH@?$AAe?$AAs?$AA?9?$AAE?$AAS@ 000000018002b778     libucrt:lcidtoname_downlevel.obj
 0002:00006788       ??_C@_1M@HJOOJFMA@?$AAf?$AAr?$AA?9?$AAC?$AAA@ 000000018002b788     libucrt:lcidtoname_downlevel.obj
 0002:00006798       ??_C@_1BG@JPOFPNAB@?$AAs?$AAr?$AA?9?$AAS?$AAP?$AA?9?$AAC?$AAy?$AAr?$AAl@ 000000018002b798     libucrt:lcidtoname_downlevel.obj
 0002:000067b0       ??_C@_1M@LNFOCMOB@?$AAs?$AAe?$AA?9?$AAF?$AAI@ 000000018002b7b0     libucrt:lcidtoname_downlevel.obj
 0002:000067c0       ??_C@_1O@MGJBOAMB@?$AAq?$AAu?$AAz?$AA?9?$AAP?$AAE@ 000000018002b7c0     libucrt:lcidtoname_downlevel.obj
 0002:000067d0       ??_C@_1M@GJINLBOK@?$AAa?$AAr?$AA?9?$AAL?$AAY@ 000000018002b7d0     libucrt:lcidtoname_downlevel.obj
 0002:000067e0       ??_C@_1M@GGMNHJNL@?$AAz?$AAh?$AA?9?$AAS?$AAG@ 000000018002b7e0     libucrt:lcidtoname_downlevel.obj
 0002:000067f0       ??_C@_1M@HOIKODND@?$AAd?$AAe?$AA?9?$AAL?$AAU@ 000000018002b7f0     libucrt:lcidtoname_downlevel.obj
 0002:00006800       ??_C@_1M@DDOCCGFG@?$AAe?$AAn?$AA?9?$AAC?$AAA@ 000000018002b800     libucrt:lcidtoname_downlevel.obj
 0002:00006810       ??_C@_1M@BNOEMJLF@?$AAe?$AAs?$AA?9?$AAG?$AAT@ 000000018002b810     libucrt:lcidtoname_downlevel.obj
 0002:00006820       ??_C@_1M@EOGNKEK@?$AAf?$AAr?$AA?9?$AAC?$AAH@ 000000018002b820     libucrt:lcidtoname_downlevel.obj
 0002:00006830       ??_C@_1M@FLIDJFHL@?$AAh?$AAr?$AA?9?$AAB?$AAA@ 000000018002b830     libucrt:lcidtoname_downlevel.obj
 0002:00006840       ??_C@_1O@FMCELNAJ@?$AAs?$AAm?$AAj?$AA?9?$AAN?$AAO@ 000000018002b840     libucrt:lcidtoname_downlevel.obj
 0002:00006850       ??_C@_1M@JHGLJMGJ@?$AAa?$AAr?$AA?9?$AAD?$AAZ@ 000000018002b850     libucrt:lcidtoname_downlevel.obj
 0002:00006860       ??_C@_1M@JKKFDCNP@?$AAz?$AAh?$AA?9?$AAM?$AAO@ 000000018002b860     libucrt:lcidtoname_downlevel.obj
 0002:00006870       ??_C@_1M@GEEFALPE@?$AAd?$AAe?$AA?9?$AAL?$AAI@ 000000018002b870     libucrt:lcidtoname_downlevel.obj
 0002:00006880       ??_C@_1M@IGEOFBG@?$AAe?$AAn?$AA?9?$AAN?$AAZ@ 000000018002b880     libucrt:lcidtoname_downlevel.obj
 0002:00006890       ??_C@_1M@KDBONEHP@?$AAe?$AAs?$AA?9?$AAC?$AAR@ 000000018002b890     libucrt:lcidtoname_downlevel.obj
 0002:000068a0       ??_C@_1M@FHMDOHNN@?$AAf?$AAr?$AA?9?$AAL?$AAU@ 000000018002b8a0     libucrt:lcidtoname_downlevel.obj
 0002:000068b0       ??_C@_1BG@NFKKMAFG@?$AAb?$AAs?$AA?9?$AAB?$AAA?$AA?9?$AAL?$AAa?$AAt?$AAn@ 000000018002b8b0     libucrt:lcidtoname_downlevel.obj
 0002:000068c8       ??_C@_1O@IMNBEMCI@?$AAs?$AAm?$AAj?$AA?9?$AAS?$AAE@ 000000018002b8c8     libucrt:lcidtoname_downlevel.obj
 0002:000068d8       ??_C@_1M@DHHMBNDP@?$AAa?$AAr?$AA?9?$AAM?$AAA@ 000000018002b8d8     libucrt:lcidtoname_downlevel.obj
 0002:000068e8       ??_C@_1M@BNBLJCGH@?$AAe?$AAn?$AA?9?$AAI?$AAE@ 000000018002b8e8     libucrt:lcidtoname_downlevel.obj
 0002:000068f8       ??_C@_1M@GEPAFMDL@?$AAe?$AAs?$AA?9?$AAP?$AAA@ 000000018002b8f8     libucrt:lcidtoname_downlevel.obj
 0002:00006908       ??_C@_1M@OJONDMDL@?$AAf?$AAr?$AA?9?$AAM?$AAC@ 000000018002b908     libucrt:lcidtoname_downlevel.obj
 0002:00006918       ??_C@_1BG@OBCNFJB@?$AAs?$AAr?$AA?9?$AAB?$AAA?$AA?9?$AAL?$AAa?$AAt?$AAn@ 000000018002b918     libucrt:lcidtoname_downlevel.obj
 0002:00006930       ??_C@_1O@KEMEEGPO@?$AAs?$AAm?$AAa?$AA?9?$AAN?$AAO@ 000000018002b930     libucrt:lcidtoname_downlevel.obj
 0002:00006940       ??_C@_1M@ELMGFODK@?$AAa?$AAr?$AA?9?$AAT?$AAN@ 000000018002b940     libucrt:lcidtoname_downlevel.obj
 0002:00006950       ??_C@_1M@BHDLHFAF@?$AAe?$AAn?$AA?9?$AAZ?$AAA@ 000000018002b950     libucrt:lcidtoname_downlevel.obj
 0002:00006960       ??_C@_1M@BMGIGLIF@?$AAe?$AAs?$AA?9?$AAD?$AAO@ 000000018002b960     libucrt:lcidtoname_downlevel.obj
 0002:00006970       ??_C@_1BG@CMBHIPBE@?$AAs?$AAr?$AA?9?$AAB?$AAA?$AA?9?$AAC?$AAy?$AAr?$AAl@ 000000018002b970     libucrt:lcidtoname_downlevel.obj
 0002:00006988       ??_C@_1O@HEDBLHNP@?$AAs?$AAm?$AAa?$AA?9?$AAS?$AAE@ 000000018002b988     libucrt:lcidtoname_downlevel.obj
 0002:00006998       ??_C@_1M@DAGCADIM@?$AAa?$AAr?$AA?9?$AAO?$AAM@ 000000018002b998     libucrt:lcidtoname_downlevel.obj
 0002:000069a8       ??_C@_1M@FODLMICG@?$AAe?$AAn?$AA?9?$AAJ?$AAM@ 000000018002b9a8     libucrt:lcidtoname_downlevel.obj
 0002:000069b8       ??_C@_1M@DNMLCIHB@?$AAe?$AAs?$AA?9?$AAV?$AAE@ 000000018002b9b8     libucrt:lcidtoname_downlevel.obj
 0002:000069c8       ??_C@_1O@EOKHMKJK@?$AAs?$AAm?$AAs?$AA?9?$AAF?$AAI@ 000000018002b9c8     libucrt:lcidtoname_downlevel.obj
 0002:000069d8       ??_C@_1M@CAFJMKOF@?$AAa?$AAr?$AA?9?$AAY?$AAE@ 000000018002b9d8     libucrt:lcidtoname_downlevel.obj
 0002:000069e8       ??_C@_1M@CBFHIJLI@?$AAe?$AAn?$AA?9?$AAC?$AAB@ 000000018002b9e8     libucrt:lcidtoname_downlevel.obj
 0002:000069f8       ??_C@_1M@BGNFLDN@?$AAe?$AAs?$AA?9?$AAC?$AAO@ 000000018002b9f8     libucrt:lcidtoname_downlevel.obj
 0002:00006a08       ??_C@_1O@JMPHMAMC@?$AAs?$AAm?$AAn?$AA?9?$AAF?$AAI@ 000000018002ba08     libucrt:lcidtoname_downlevel.obj
 0002:00006a18       ??_C@_1M@JLANABKE@?$AAa?$AAr?$AA?9?$AAS?$AAY@ 000000018002ba18     libucrt:lcidtoname_downlevel.obj
 0002:00006a28       ??_C@_1M@HPKGCFGN@?$AAe?$AAn?$AA?9?$AAB?$AAZ@ 000000018002ba28     libucrt:lcidtoname_downlevel.obj
 0002:00006a38       ??_C@_1M@OLJCMLGM@?$AAe?$AAs?$AA?9?$AAP?$AAE@ 000000018002ba38     libucrt:lcidtoname_downlevel.obj
 0002:00006a48       ??_C@_1M@MKKGFKLE@?$AAa?$AAr?$AA?9?$AAJ?$AAO@ 000000018002ba48     libucrt:lcidtoname_downlevel.obj
 0002:00006a58       ??_C@_1M@EKPGLDNI@?$AAe?$AAn?$AA?9?$AAT?$AAT@ 000000018002ba58     libucrt:lcidtoname_downlevel.obj
 0002:00006a68       ??_C@_1M@OONGHFHE@?$AAe?$AAs?$AA?9?$AAA?$AAR@ 000000018002ba68     libucrt:lcidtoname_downlevel.obj
 0002:00006a78       ??_C@_1M@OOJFGBHE@?$AAa?$AAr?$AA?9?$AAL?$AAB@ 000000018002ba78     libucrt:lcidtoname_downlevel.obj
 0002:00006a88       ??_C@_1M@GCEJHNEG@?$AAe?$AAn?$AA?9?$AAZ?$AAW@ 000000018002ba88     libucrt:lcidtoname_downlevel.obj
 0002:00006a98       ??_C@_1M@JNOCAHJI@?$AAe?$AAs?$AA?9?$AAE?$AAC@ 000000018002ba98     libucrt:lcidtoname_downlevel.obj
 0002:00006aa8       ??_C@_1M@JEFHPGGB@?$AAa?$AAr?$AA?9?$AAK?$AAW@ 000000018002baa8     libucrt:lcidtoname_downlevel.obj
 0002:00006ab8       ??_C@_1M@MLKIBJOJ@?$AAe?$AAn?$AA?9?$AAP?$AAH@ 000000018002bab8     libucrt:lcidtoname_downlevel.obj
 0002:00006ac8       ??_C@_1M@BDNIPEND@?$AAe?$AAs?$AA?9?$AAC?$AAL@ 000000018002bac8     libucrt:lcidtoname_downlevel.obj
 0002:00006ad8       ??_C@_1M@MPNMEKBD@?$AAa?$AAr?$AA?9?$AAA?$AAE@ 000000018002bad8     libucrt:lcidtoname_downlevel.obj
 0002:00006ae8       ??_C@_1M@KBJALCPI@?$AAe?$AAs?$AA?9?$AAU?$AAY@ 000000018002bae8     libucrt:lcidtoname_downlevel.obj
 0002:00006af8       ??_C@_1M@LLCCOAGA@?$AAa?$AAr?$AA?9?$AAB?$AAH@ 000000018002baf8     libucrt:lcidtoname_downlevel.obj
 0002:00006b08       ??_C@_1M@PBFNCDEL@?$AAe?$AAs?$AA?9?$AAP?$AAY@ 000000018002bb08     libucrt:lcidtoname_downlevel.obj
 0002:00006b18       ??_C@_1M@EDGINPNP@?$AAa?$AAr?$AA?9?$AAQ?$AAA@ 000000018002bb18     libucrt:lcidtoname_downlevel.obj
 0002:00006b28       ??_C@_1M@MKDBIIJI@?$AAe?$AAs?$AA?9?$AAB?$AAO@ 000000018002bb28     libucrt:lcidtoname_downlevel.obj
 0002:00006b38       ??_C@_1M@CPKKEBLD@?$AAe?$AAs?$AA?9?$AAS?$AAV@ 000000018002bb38     libucrt:lcidtoname_downlevel.obj
 0002:00006b48       ??_C@_1M@NDBGMMJL@?$AAe?$AAs?$AA?9?$AAH?$AAN@ 000000018002bb48     libucrt:lcidtoname_downlevel.obj
 0002:00006b58       ??_C@_1M@JIJIBHDP@?$AAe?$AAs?$AA?9?$AAN?$AAI@ 000000018002bb58     libucrt:lcidtoname_downlevel.obj
 0002:00006b68       ??_C@_1M@CGFMKEEK@?$AAe?$AAs?$AA?9?$AAP?$AAR@ 000000018002bb68     libucrt:lcidtoname_downlevel.obj
 0002:00006b78       ??_C@_1O@ICJHKIIK@?$AAz?$AAh?$AA?9?$AAC?$AAH?$AAT@ 000000018002bb78     libucrt:lcidtoname_downlevel.obj
 0002:00006b88       ??_C@_15CLNEJCE@?$AAs?$AAr@ 000000018002bb88     libucrt:lcidtoname_downlevel.obj
 0002:000079d0       ??_C@_1M@KAHEKEIG@?$AAa?$AAf?$AA?9?$AAz?$AAa@ 000000018002c9d0     libucrt:lcidtoname_downlevel.obj
 0002:000079e0       ??_C@_1M@GIECOABL@?$AAa?$AAr?$AA?9?$AAa?$AAe@ 000000018002c9e0     libucrt:lcidtoname_downlevel.obj
 0002:000079f0       ??_C@_1M@BMLMEKGI@?$AAa?$AAr?$AA?9?$AAb?$AAh@ 000000018002c9f0     libucrt:lcidtoname_downlevel.obj
 0002:00007a00       ??_C@_1M@DAPFDGGB@?$AAa?$AAr?$AA?9?$AAd?$AAz@ 000000018002ca00     libucrt:lcidtoname_downlevel.obj
 0002:00007a10       ??_C@_1M@FJNKGKIG@?$AAa?$AAr?$AA?9?$AAe?$AAg@ 000000018002ca10     libucrt:lcidtoname_downlevel.obj
 0002:00007a20       ??_C@_1M@FLGKKCLO@?$AAa?$AAr?$AA?9?$AAi?$AAq@ 000000018002ca20     libucrt:lcidtoname_downlevel.obj
 0002:00007a30       ??_C@_1M@GNDIPALM@?$AAa?$AAr?$AA?9?$AAj?$AAo@ 000000018002ca30     libucrt:lcidtoname_downlevel.obj
 0002:00007a40       ??_C@_1M@DDMJFMGJ@?$AAa?$AAr?$AA?9?$AAk?$AAw@ 000000018002ca40     libucrt:lcidtoname_downlevel.obj
 0002:00007a50       ??_C@_1M@EJALMLHM@?$AAa?$AAr?$AA?9?$AAl?$AAb@ 000000018002ca50     libucrt:lcidtoname_downlevel.obj
 0002:00007a60       ??_C@_1M@MOBDBLOC@?$AAa?$AAr?$AA?9?$AAl?$AAy@ 000000018002ca60     libucrt:lcidtoname_downlevel.obj
 0002:00007a70       ??_C@_1M@JAOCLHDH@?$AAa?$AAr?$AA?9?$AAm?$AAa@ 000000018002ca70     libucrt:lcidtoname_downlevel.obj
 0002:00007a80       ??_C@_1M@JHPMKJIE@?$AAa?$AAr?$AA?9?$AAo?$AAm@ 000000018002ca80     libucrt:lcidtoname_downlevel.obj
 0002:00007a90       ??_C@_1M@OEPGHFNH@?$AAa?$AAr?$AA?9?$AAq?$AAa@ 000000018002ca90     libucrt:lcidtoname_downlevel.obj
 0002:00007aa0       ??_C@_1M@KJDONENM@?$AAa?$AAr?$AA?9?$AAs?$AAa@ 000000018002caa0     libucrt:lcidtoname_downlevel.obj
 0002:00007ab0       ??_C@_1M@DMJDKLKM@?$AAa?$AAr?$AA?9?$AAs?$AAy@ 000000018002cab0     libucrt:lcidtoname_downlevel.obj
 0002:00007ac0       ??_C@_1M@OMFIPEDC@?$AAa?$AAr?$AA?9?$AAt?$AAn@ 000000018002cac0     libucrt:lcidtoname_downlevel.obj
 0002:00007ad0       ??_C@_1M@IHMHGAON@?$AAa?$AAr?$AA?9?$AAy?$AAe@ 000000018002cad0     libucrt:lcidtoname_downlevel.obj
 0002:00007ae0       ??_C@_1BG@KDCPGJGB@?$AAa?$AAz?$AA?9?$AAa?$AAz?$AA?9?$AAc?$AAy?$AAr?$AAl@ 000000018002cae0     libucrt:lcidtoname_downlevel.obj
 0002:00007af8       ??_C@_1BG@IBCKDDOE@?$AAa?$AAz?$AA?9?$AAa?$AAz?$AA?9?$AAl?$AAa?$AAt?$AAn@ 000000018002caf8     libucrt:lcidtoname_downlevel.obj
 0002:00007b10       ??_C@_1M@EGPFDCPD@?$AAb?$AAe?$AA?9?$AAb?$AAy@ 000000018002cb10     libucrt:lcidtoname_downlevel.obj
 0002:00007b20       ??_C@_1M@PCMGMCGC@?$AAb?$AAg?$AA?9?$AAb?$AAg@ 000000018002cb20     libucrt:lcidtoname_downlevel.obj
 0002:00007b30       ??_C@_1M@BJBMFGOB@?$AAb?$AAn?$AA?9?$AAi?$AAn@ 000000018002cb30     libucrt:lcidtoname_downlevel.obj
 0002:00007b40       ??_C@_1BG@EAKMMACD@?$AAb?$AAs?$AA?9?$AAb?$AAa?$AA?9?$AAl?$AAa?$AAt?$AAn@ 000000018002cb40     libucrt:lcidtoname_downlevel.obj
 0002:00007b58       ??_C@_1M@KGADAODK@?$AAc?$AAa?$AA?9?$AAe?$AAs@ 000000018002cb58     libucrt:lcidtoname_downlevel.obj
 0002:00007b68       ??_C@_1M@COAJPDHI@?$AAc?$AAs?$AA?9?$AAc?$AAz@ 000000018002cb68     libucrt:lcidtoname_downlevel.obj
 0002:00007b78       ??_C@_1M@DHBHFONH@?$AAc?$AAy?$AA?9?$AAg?$AAb@ 000000018002cb78     libucrt:lcidtoname_downlevel.obj
 0002:00007b88       ??_C@_1M@IMGKELGA@?$AAd?$AAa?$AA?9?$AAd?$AAk@ 000000018002cb88     libucrt:lcidtoname_downlevel.obj
 0002:00007b98       ??_C@_1M@NNDGDNGA@?$AAd?$AAe?$AA?9?$AAa?$AAt@ 000000018002cb98     libucrt:lcidtoname_downlevel.obj
 0002:00007ba8       ??_C@_1M@IKDBHEEM@?$AAd?$AAe?$AA?9?$AAc?$AAh@ 000000018002cba8     libucrt:lcidtoname_downlevel.obj
 0002:00007bb8       ??_C@_1M@GFFOJMCJ@?$AAd?$AAe?$AA?9?$AAd?$AAe@ 000000018002cbb8     libucrt:lcidtoname_downlevel.obj
 0002:00007bc8       ??_C@_1M@MDNLKBPM@?$AAd?$AAe?$AA?9?$AAl?$AAi@ 000000018002cbc8     libucrt:lcidtoname_downlevel.obj
 0002:00007bd8       ??_C@_1M@NJBEEJNL@?$AAd?$AAe?$AA?9?$AAl?$AAu@ 000000018002cbd8     libucrt:lcidtoname_downlevel.obj
 0002:00007be8       ??_C@_1O@GNNELBAP@?$AAd?$AAi?$AAv?$AA?9?$AAm?$AAv@ 000000018002cbe8     libucrt:lcidtoname_downlevel.obj
 0002:00007bf8       ??_C@_1M@EJLEOGAE@?$AAe?$AAl?$AA?9?$AAg?$AAr@ 000000018002cbf8     libucrt:lcidtoname_downlevel.obj
 0002:00007c08       ??_C@_1M@GMPONJN@?$AAe?$AAn?$AA?9?$AAa?$AAu@ 000000018002cc08     libucrt:lcidtoname_downlevel.obj
 0002:00007c18       ??_C@_1M@NIDIIPGF@?$AAe?$AAn?$AA?9?$AAb?$AAz@ 000000018002cc18     libucrt:lcidtoname_downlevel.obj
 0002:00007c28       ??_C@_1M@JEHMIMFO@?$AAe?$AAn?$AA?9?$AAc?$AAa@ 000000018002cc28     libucrt:lcidtoname_downlevel.obj
 0002:00007c38       ??_C@_1M@IGMJCDLA@?$AAe?$AAn?$AA?9?$AAc?$AAb@ 000000018002cc38     libucrt:lcidtoname_downlevel.obj
 0002:00007c48       ??_C@_1M@BNFIGBKG@?$AAe?$AAn?$AA?9?$AAg?$AAb@ 000000018002cc48     libucrt:lcidtoname_downlevel.obj
 0002:00007c58       ??_C@_1M@LKIFDIGP@?$AAe?$AAn?$AA?9?$AAi?$AAe@ 000000018002cc58     libucrt:lcidtoname_downlevel.obj
 0002:00007c68       ??_C@_1M@PJKFGCCO@?$AAe?$AAn?$AA?9?$AAj?$AAm@ 000000018002cc68     libucrt:lcidtoname_downlevel.obj
 0002:00007c78       ??_C@_1M@KPPKEPBO@?$AAe?$AAn?$AA?9?$AAn?$AAz@ 000000018002cc78     libucrt:lcidtoname_downlevel.obj
 0002:00007c88       ??_C@_1M@GMDGLDOB@?$AAe?$AAn?$AA?9?$AAp?$AAh@ 000000018002cc88     libucrt:lcidtoname_downlevel.obj
 0002:00007c98       ??_C@_1M@ONGIBJNA@?$AAe?$AAn?$AA?9?$AAt?$AAt@ 000000018002cc98     libucrt:lcidtoname_downlevel.obj
 0002:00007ca8       ??_C@_1M@LLODPCMM@?$AAe?$AAn?$AA?9?$AAu?$AAs@ 000000018002cca8     libucrt:lcidtoname_downlevel.obj
 0002:00007cb8       ??_C@_1M@LAKFNPAN@?$AAe?$AAn?$AA?9?$AAz?$AAa@ 000000018002ccb8     libucrt:lcidtoname_downlevel.obj
 0002:00007cc8       ??_C@_1M@MFNHNHEO@?$AAe?$AAn?$AA?9?$AAz?$AAw@ 000000018002ccc8     libucrt:lcidtoname_downlevel.obj
 0002:00007cd8       ??_C@_1M@EJEINPHM@?$AAe?$AAs?$AA?9?$AAa?$AAr@ 000000018002ccd8     libucrt:lcidtoname_downlevel.obj
 0002:00007ce8       ??_C@_1M@GNKPCCJA@?$AAe?$AAs?$AA?9?$AAb?$AAo@ 000000018002cce8     libucrt:lcidtoname_downlevel.obj
 0002:00007cf8       ??_C@_1M@LEEGFONL@?$AAe?$AAs?$AA?9?$AAc?$AAl@ 000000018002ccf8     libucrt:lcidtoname_downlevel.obj
 0002:00007d08       ??_C@_1M@KGPDPBDF@?$AAe?$AAs?$AA?9?$AAc?$AAo@ 000000018002cd08     libucrt:lcidtoname_downlevel.obj
 0002:00007d18       ??_C@_1M@EIAHOHH@?$AAe?$AAs?$AA?9?$AAc?$AAr@ 000000018002cd18     libucrt:lcidtoname_downlevel.obj
 0002:00007d28       ??_C@_1M@LLPGMBIN@?$AAe?$AAs?$AA?9?$AAd?$AAo@ 000000018002cd28     libucrt:lcidtoname_downlevel.obj
 0002:00007d38       ??_C@_1M@DKHMKNJA@?$AAe?$AAs?$AA?9?$AAe?$AAc@ 000000018002cd38     libucrt:lcidtoname_downlevel.obj
 0002:00007d48       ??_C@_1M@GKGFPKAP@?$AAe?$AAs?$AA?9?$AAe?$AAs@ 000000018002cd48     libucrt:lcidtoname_downlevel.obj
 0002:00007d58       ??_C@_1M@LKHKGDLN@?$AAe?$AAs?$AA?9?$AAg?$AAt@ 000000018002cd58     libucrt:lcidtoname_downlevel.obj
 0002:00007d68       ??_C@_1M@HEIIGGJD@?$AAe?$AAs?$AA?9?$AAh?$AAn@ 000000018002cd68     libucrt:lcidtoname_downlevel.obj
 0002:00007d78       ??_C@_1M@FBDHPPGD@?$AAe?$AAs?$AA?9?$AAm?$AAx@ 000000018002cd78     libucrt:lcidtoname_downlevel.obj
 0002:00007d88       ??_C@_1M@DPAGLNDH@?$AAe?$AAs?$AA?9?$AAn?$AAi@ 000000018002cd88     libucrt:lcidtoname_downlevel.obj
 0002:00007d98       ??_C@_1M@MDGOPGDD@?$AAe?$AAs?$AA?9?$AAp?$AAa@ 000000018002cd98     libucrt:lcidtoname_downlevel.obj
 0002:00007da8       ??_C@_1M@EMAMGBGE@?$AAe?$AAs?$AA?9?$AAp?$AAe@ 000000018002cda8     libucrt:lcidtoname_downlevel.obj
 0002:00007db8       ??_C@_1M@IBMCAOEC@?$AAe?$AAs?$AA?9?$AAp?$AAr@ 000000018002cdb8     libucrt:lcidtoname_downlevel.obj
 0002:00007dc8       ??_C@_1M@FGMDIJED@?$AAe?$AAs?$AA?9?$AAp?$AAy@ 000000018002cdc8     libucrt:lcidtoname_downlevel.obj
 0002:00007dd8       ??_C@_1M@IIDEOLLL@?$AAe?$AAs?$AA?9?$AAs?$AAv@ 000000018002cdd8     libucrt:lcidtoname_downlevel.obj
 0002:00007de8       ??_C@_1M@GAOBIPA@?$AAe?$AAs?$AA?9?$AAu?$AAy@ 000000018002cde8     libucrt:lcidtoname_downlevel.obj
 0002:00007df8       ??_C@_1M@JKFFICHJ@?$AAe?$AAs?$AA?9?$AAv?$AAe@ 000000018002cdf8     libucrt:lcidtoname_downlevel.obj
 0002:00007e08       ??_C@_1M@PNMLOJDF@?$AAe?$AAt?$AA?9?$AAe?$AAe@ 000000018002ce08     libucrt:lcidtoname_downlevel.obj
 0002:00007e18       ??_C@_1M@GHHLIKEI@?$AAe?$AAu?$AA?9?$AAe?$AAs@ 000000018002ce18     libucrt:lcidtoname_downlevel.obj
 0002:00007e28       ??_C@_1M@PBNONODE@?$AAf?$AAa?$AA?9?$AAi?$AAr@ 000000018002ce28     libucrt:lcidtoname_downlevel.obj
 0002:00007e38       ??_C@_1M@JEEHPMIL@?$AAf?$AAi?$AA?9?$AAf?$AAi@ 000000018002ce38     libucrt:lcidtoname_downlevel.obj
 0002:00007e48       ??_C@_1M@LMDCNDBA@?$AAf?$AAo?$AA?9?$AAf?$AAo@ 000000018002ce48     libucrt:lcidtoname_downlevel.obj
 0002:00007e58       ??_C@_1M@JKEOHLDK@?$AAf?$AAr?$AA?9?$AAb?$AAe@ 000000018002ce58     libucrt:lcidtoname_downlevel.obj
 0002:00007e68       ??_C@_1M@NOHADPMI@?$AAf?$AAr?$AA?9?$AAc?$AAa@ 000000018002ce68     libucrt:lcidtoname_downlevel.obj
 0002:00007e78       ??_C@_1M@KDHIHAEC@?$AAf?$AAr?$AA?9?$AAc?$AAh@ 000000018002ce78     libucrt:lcidtoname_downlevel.obj
 0002:00007e88       ??_C@_1M@MMBBFGAK@?$AAf?$AAr?$AA?9?$AAf?$AAr@ 000000018002ce88     libucrt:lcidtoname_downlevel.obj
 0002:00007e98       ??_C@_1M@PAFNENNF@?$AAf?$AAr?$AA?9?$AAl?$AAu@ 000000018002ce98     libucrt:lcidtoname_downlevel.obj
 0002:00007ea8       ??_C@_1M@EOHDJGDD@?$AAf?$AAr?$AA?9?$AAm?$AAc@ 000000018002cea8     libucrt:lcidtoname_downlevel.obj
 0002:00007eb8       ??_C@_1M@FAPLLOPF@?$AAg?$AAl?$AA?9?$AAe?$AAs@ 000000018002ceb8     libucrt:lcidtoname_downlevel.obj
 0002:00007ec8       ??_C@_1M@FOPBFLOO@?$AAg?$AAu?$AA?9?$AAi?$AAn@ 000000018002cec8     libucrt:lcidtoname_downlevel.obj
 0002:00007ed8       ??_C@_1M@KBMCINPM@?$AAh?$AAe?$AA?9?$AAi?$AAl@ 000000018002ced8     libucrt:lcidtoname_downlevel.obj
 0002:00007ee8       ??_C@_1M@BBPHKFPJ@?$AAh?$AAi?$AA?9?$AAi?$AAn@ 000000018002cee8     libucrt:lcidtoname_downlevel.obj
 0002:00007ef8       ??_C@_1M@PMBNDPHD@?$AAh?$AAr?$AA?9?$AAb?$AAa@ 000000018002cef8     libucrt:lcidtoname_downlevel.obj
 0002:00007f08       ??_C@_1M@BPCKOEGE@?$AAh?$AAr?$AA?9?$AAh?$AAr@ 000000018002cf08     libucrt:lcidtoname_downlevel.obj
 0002:00007f18       ??_C@_1M@GACBMHKE@?$AAh?$AAu?$AA?9?$AAh?$AAu@ 000000018002cf18     libucrt:lcidtoname_downlevel.obj
 0002:00007f28       ??_C@_1M@MILPAJJC@?$AAh?$AAy?$AA?9?$AAa?$AAm@ 000000018002cf28     libucrt:lcidtoname_downlevel.obj
 0002:00007f38       ??_C@_1M@BABBICEC@?$AAi?$AAd?$AA?9?$AAi?$AAd@ 000000018002cf38     libucrt:lcidtoname_downlevel.obj
 0002:00007f48       ??_C@_1M@BIKNHHPF@?$AAi?$AAs?$AA?9?$AAi?$AAs@ 000000018002cf48     libucrt:lcidtoname_downlevel.obj
 0002:00007f58       ??_C@_1M@NMPCJPHE@?$AAi?$AAt?$AA?9?$AAc?$AAh@ 000000018002cf58     libucrt:lcidtoname_downlevel.obj
 0002:00007f68       ??_C@_1M@GHKGFEDF@?$AAi?$AAt?$AA?9?$AAi?$AAt@ 000000018002cf68     libucrt:lcidtoname_downlevel.obj
 0002:00007f78       ??_C@_1M@NIEJCJJA@?$AAj?$AAa?$AA?9?$AAj?$AAp@ 000000018002cf78     libucrt:lcidtoname_downlevel.obj
 0002:00007f88       ??_C@_1M@JILFNBIM@?$AAk?$AAa?$AA?9?$AAg?$AAe@ 000000018002cf88     libucrt:lcidtoname_downlevel.obj
 0002:00007f98       ??_C@_1M@PACPMGPH@?$AAk?$AAk?$AA?9?$AAk?$AAz@ 000000018002cf98     libucrt:lcidtoname_downlevel.obj
 0002:00007fa8       ??_C@_1M@IELFGMHA@?$AAk?$AAn?$AA?9?$AAi?$AAn@ 000000018002cfa8     libucrt:lcidtoname_downlevel.obj
 0002:00007fb8       ??_C@_1O@IBBJHCH@?$AAk?$AAo?$AAk?$AA?9?$AAi?$AAn@ 000000018002cfb8     libucrt:lcidtoname_downlevel.obj
 0002:00007fc8       ??_C@_1M@DMHAEOGC@?$AAk?$AAo?$AA?9?$AAk?$AAr@ 000000018002cfc8     libucrt:lcidtoname_downlevel.obj
 0002:00007fd8       ??_C@_1M@HBAHBIGA@?$AAk?$AAy?$AA?9?$AAk?$AAg@ 000000018002cfd8     libucrt:lcidtoname_downlevel.obj
 0002:00007fe8       ??_C@_1M@KPMILCJG@?$AAl?$AAt?$AA?9?$AAl?$AAt@ 000000018002cfe8     libucrt:lcidtoname_downlevel.obj
 0002:00007ff8       ??_C@_1M@BDEKKCA@?$AAl?$AAv?$AA?9?$AAl?$AAv@ 000000018002cff8     libucrt:lcidtoname_downlevel.obj
 0002:00008008       ??_C@_1M@ELCKCCJJ@?$AAm?$AAi?$AA?9?$AAn?$AAz@ 000000018002d008     libucrt:lcidtoname_downlevel.obj
 0002:00008018       ??_C@_1M@CBOOLAPA@?$AAm?$AAk?$AA?9?$AAm?$AAk@ 000000018002d018     libucrt:lcidtoname_downlevel.obj
 0002:00008028       ??_C@_1M@GPHNBJKN@?$AAm?$AAl?$AA?9?$AAi?$AAn@ 000000018002d028     libucrt:lcidtoname_downlevel.obj
 0002:00008038       ??_C@_1M@PABJILIG@?$AAm?$AAn?$AA?9?$AAm?$AAn@ 000000018002d038     libucrt:lcidtoname_downlevel.obj
 0002:00008048       ??_C@_1M@FGBKKIPG@?$AAm?$AAr?$AA?9?$AAi?$AAn@ 000000018002d048     libucrt:lcidtoname_downlevel.obj
 0002:00008058       ??_C@_1M@NDBPDDAL@?$AAm?$AAs?$AA?9?$AAb?$AAn@ 000000018002d058     libucrt:lcidtoname_downlevel.obj
 0002:00008068       ??_C@_1M@OPIHOOPI@?$AAm?$AAs?$AA?9?$AAm?$AAy@ 000000018002d068     libucrt:lcidtoname_downlevel.obj
 0002:00008078       ??_C@_1M@PPDBCNFM@?$AAm?$AAt?$AA?9?$AAm?$AAt@ 000000018002d078     libucrt:lcidtoname_downlevel.obj
 0002:00008088       ??_C@_1M@KDJDKMDD@?$AAn?$AAb?$AA?9?$AAn?$AAo@ 000000018002d088     libucrt:lcidtoname_downlevel.obj
 0002:00008098       ??_C@_1M@KFCFLMJP@?$AAn?$AAl?$AA?9?$AAb?$AAe@ 000000018002d098     libucrt:lcidtoname_downlevel.obj
 0002:000080a8       ??_C@_1M@KPOPDDGO@?$AAn?$AAl?$AA?9?$AAn?$AAl@ 000000018002d0a8     libucrt:lcidtoname_downlevel.obj
 0002:000080b8       ??_C@_1M@LJKPEMLN@?$AAn?$AAn?$AA?9?$AAn?$AAo@ 000000018002d0b8     libucrt:lcidtoname_downlevel.obj
 0002:000080c8       ??_C@_1M@BDGHHBFL@?$AAn?$AAs?$AA?9?$AAz?$AAa@ 000000018002d0c8     libucrt:lcidtoname_downlevel.obj
 0002:000080d8       ??_C@_1M@IDEHOAP@?$AAp?$AAa?$AA?9?$AAi?$AAn@ 000000018002d0d8     libucrt:lcidtoname_downlevel.obj
 0002:000080e8       ??_C@_1M@HDBKGOGH@?$AAp?$AAl?$AA?9?$AAp?$AAl@ 000000018002d0e8     libucrt:lcidtoname_downlevel.obj
 0002:000080f8       ??_C@_1M@LJLLCMEH@?$AAp?$AAt?$AA?9?$AAb?$AAr@ 000000018002d0f8     libucrt:lcidtoname_downlevel.obj
 0002:00008108       ??_C@_1M@NCMONAAL@?$AAp?$AAt?$AA?9?$AAp?$AAt@ 000000018002d108     libucrt:lcidtoname_downlevel.obj
 0002:00008118       ??_C@_1O@EAKMAJDN@?$AAq?$AAu?$AAz?$AA?9?$AAb?$AAo@ 000000018002d118     libucrt:lcidtoname_downlevel.obj
 0002:00008128       ??_C@_1O@BHHPIGDN@?$AAq?$AAu?$AAz?$AA?9?$AAe?$AAc@ 000000018002d128     libucrt:lcidtoname_downlevel.obj
 0002:00008138       ??_C@_1O@GBAPEKMJ@?$AAq?$AAu?$AAz?$AA?9?$AAp?$AAe@ 000000018002d138     libucrt:lcidtoname_downlevel.obj
 0002:00008148       ??_C@_1M@CLGLEFBO@?$AAr?$AAo?$AA?9?$AAr?$AAo@ 000000018002d148     libucrt:lcidtoname_downlevel.obj
 0002:00008158       ??_C@_1M@CEEDODME@?$AAr?$AAu?$AA?9?$AAr?$AAu@ 000000018002d158     libucrt:lcidtoname_downlevel.obj
 0002:00008168       ??_C@_1M@HPKKKMPP@?$AAs?$AAa?$AA?9?$AAi?$AAn@ 000000018002d168     libucrt:lcidtoname_downlevel.obj
 0002:00008178       ??_C@_1M@BKMAIGOJ@?$AAs?$AAe?$AA?9?$AAf?$AAi@ 000000018002d178     libucrt:lcidtoname_downlevel.obj
 0002:00008188       ??_C@_1M@NDPIFLFI@?$AAs?$AAe?$AA?9?$AAn?$AAo@ 000000018002d188     libucrt:lcidtoname_downlevel.obj
 0002:00008198       ??_C@_1M@DANKKHJ@?$AAs?$AAe?$AA?9?$AAs?$AAe@ 000000018002d198     libucrt:lcidtoname_downlevel.obj
 0002:000081a8       ??_C@_1M@PNBLONPJ@?$AAs?$AAk?$AA?9?$AAs?$AAk@ 000000018002d1a8     libucrt:lcidtoname_downlevel.obj
 0002:000081b8       ??_C@_1M@LFMODOAL@?$AAs?$AAl?$AA?9?$AAs?$AAi@ 000000018002d1b8     libucrt:lcidtoname_downlevel.obj
 0002:000081c8       ??_C@_1O@DFKOMPG@?$AAs?$AAm?$AAa?$AA?9?$AAn?$AAo@ 000000018002d1c8     libucrt:lcidtoname_downlevel.obj
 0002:000081d8       ??_C@_1O@NDKPBNNH@?$AAs?$AAm?$AAa?$AA?9?$AAs?$AAe@ 000000018002d1d8     libucrt:lcidtoname_downlevel.obj
 0002:000081e8       ??_C@_1O@PLLKBHAB@?$AAs?$AAm?$AAj?$AA?9?$AAn?$AAo@ 000000018002d1e8     libucrt:lcidtoname_downlevel.obj
 0002:000081f8       ??_C@_1O@CLEPOGCA@?$AAs?$AAm?$AAj?$AA?9?$AAs?$AAe@ 000000018002d1f8     libucrt:lcidtoname_downlevel.obj
 0002:00008208       ??_C@_1O@DLGJGKMK@?$AAs?$AAm?$AAn?$AA?9?$AAf?$AAi@ 000000018002d208     libucrt:lcidtoname_downlevel.obj
 0002:00008218       ??_C@_1O@OJDJGAJC@?$AAs?$AAm?$AAs?$AA?9?$AAf?$AAi@ 000000018002d218     libucrt:lcidtoname_downlevel.obj
 0002:00008228       ??_C@_1M@BOFOGHPB@?$AAs?$AAq?$AA?9?$AAa?$AAl@ 000000018002d228     libucrt:lcidtoname_downlevel.obj
 0002:00008238       ??_C@_1BG@LJBBIPGB@?$AAs?$AAr?$AA?9?$AAb?$AAa?$AA?9?$AAc?$AAy?$AAr?$AAl@ 000000018002d238     libucrt:lcidtoname_downlevel.obj
 0002:00008250       ??_C@_1BG@JLBENFOE@?$AAs?$AAr?$AA?9?$AAb?$AAa?$AA?9?$AAl?$AAa?$AAt?$AAn@ 000000018002d250     libucrt:lcidtoname_downlevel.obj
 0002:00008268       ??_C@_1BG@KODPNHE@?$AAs?$AAr?$AA?9?$AAs?$AAp?$AA?9?$AAc?$AAy?$AAr?$AAl@ 000000018002d268     libucrt:lcidtoname_downlevel.obj
 0002:00008280       ??_C@_1BG@CIOGKHPB@?$AAs?$AAr?$AA?9?$AAs?$AAp?$AA?9?$AAl?$AAa?$AAt?$AAn@ 000000018002d280     libucrt:lcidtoname_downlevel.obj
 0002:00008298       ??_C@_1M@NGFJLMAC@?$AAs?$AAv?$AA?9?$AAf?$AAi@ 000000018002d298     libucrt:lcidtoname_downlevel.obj
 0002:000082a8       ??_C@_1M@MPJEJAJC@?$AAs?$AAv?$AA?9?$AAs?$AAe@ 000000018002d2a8     libucrt:lcidtoname_downlevel.obj
 0002:000082b8       ??_C@_1M@MPNDHLFK@?$AAs?$AAw?$AA?9?$AAk?$AAe@ 000000018002d2b8     libucrt:lcidtoname_downlevel.obj
 0002:000082c8       ??_C@_1O@KOHBJJI@?$AAs?$AAy?$AAr?$AA?9?$AAs?$AAy@ 000000018002d2c8     libucrt:lcidtoname_downlevel.obj
 0002:000082d8       ??_C@_1M@LDCEFHA@?$AAt?$AAa?$AA?9?$AAi?$AAn@ 000000018002d2d8     libucrt:lcidtoname_downlevel.obj
 0002:000082e8       ??_C@_1M@CNJOFAK@?$AAt?$AAe?$AA?9?$AAi?$AAn@ 000000018002d2e8     libucrt:lcidtoname_downlevel.obj
 0002:000082f8       ??_C@_1M@GNAECACD@?$AAt?$AAh?$AA?9?$AAt?$AAh@ 000000018002d2f8     libucrt:lcidtoname_downlevel.obj
 0002:00008308       ??_C@_1M@CHBIHOJO@?$AAt?$AAn?$AA?9?$AAz?$AAa@ 000000018002d308     libucrt:lcidtoname_downlevel.obj
 0002:00008318       ??_C@_1M@GCCMIGPJ@?$AAt?$AAr?$AA?9?$AAt?$AAr@ 000000018002d318     libucrt:lcidtoname_downlevel.obj
 0002:00008328       ??_C@_1M@CELMCNBK@?$AAt?$AAt?$AA?9?$AAr?$AAu@ 000000018002d328     libucrt:lcidtoname_downlevel.obj
 0002:00008338       ??_C@_1M@KLMCELGA@?$AAu?$AAk?$AA?9?$AAu?$AAa@ 000000018002d338     libucrt:lcidtoname_downlevel.obj
 0002:00008348       ??_C@_1M@EPAJJAJF@?$AAu?$AAr?$AA?9?$AAp?$AAk@ 000000018002d348     libucrt:lcidtoname_downlevel.obj
 0002:00008358       ??_C@_1BG@GEGPMCDJ@?$AAu?$AAz?$AA?9?$AAu?$AAz?$AA?9?$AAc?$AAy?$AAr?$AAl@ 000000018002d358     libucrt:lcidtoname_downlevel.obj
 0002:00008370       ??_C@_1BG@EGGKJILM@?$AAu?$AAz?$AA?9?$AAu?$AAz?$AA?9?$AAl?$AAa?$AAt?$AAn@ 000000018002d370     libucrt:lcidtoname_downlevel.obj
 0002:00008388       ??_C@_1M@GFOCLFF@?$AAv?$AAi?$AA?9?$AAv?$AAn@ 000000018002d388     libucrt:lcidtoname_downlevel.obj
 0002:00008398       ??_C@_1M@CPAMEDFI@?$AAx?$AAh?$AA?9?$AAz?$AAa@ 000000018002d398     libucrt:lcidtoname_downlevel.obj
 0002:000083a8       ??_C@_1O@EBKIFIGN@?$AAz?$AAh?$AA?9?$AAc?$AAh?$AAs@ 000000018002d3a8     libucrt:lcidtoname_downlevel.obj
 0002:000083b8       ??_C@_1O@NMHPGANE@?$AAz?$AAh?$AA?9?$AAc?$AAh?$AAt@ 000000018002d3b8     libucrt:lcidtoname_downlevel.obj
 0002:000083c8       ??_C@_1M@LPINJOMC@?$AAz?$AAh?$AA?9?$AAc?$AAn@ 000000018002d3c8     libucrt:lcidtoname_downlevel.obj
 0002:000083d8       ??_C@_1M@OCJEJODD@?$AAz?$AAh?$AA?9?$AAh?$AAk@ 000000018002d3d8     libucrt:lcidtoname_downlevel.obj
 0002:000083e8       ??_C@_1M@DNDLJINH@?$AAz?$AAh?$AA?9?$AAm?$AAo@ 000000018002d3e8     libucrt:lcidtoname_downlevel.obj
 0002:000083f8       ??_C@_1M@MBFDNDND@?$AAz?$AAh?$AA?9?$AAs?$AAg@ 000000018002d3f8     libucrt:lcidtoname_downlevel.obj
 0002:00008408       ??_C@_1M@IMEPLEPE@?$AAz?$AAh?$AA?9?$AAt?$AAw@ 000000018002d408     libucrt:lcidtoname_downlevel.obj
 0002:00008418       ??_C@_1M@BBGHNHJP@?$AAz?$AAu?$AA?9?$AAz?$AAa@ 000000018002d418     libucrt:lcidtoname_downlevel.obj
 0002:00008430       ?large_power_data@?1??multiply_by_power_of_ten@__crt_strtox@@YA_NAEAUbig_integer@2@I@Z@4QBIB 000000018002d430     libucrt:cfout.obj
 0002:00008d40       ?large_power_indices@?1??multiply_by_power_of_ten@__crt_strtox@@YA_NAEAUbig_integer@2@I@Z@4QBUunpack_index@?1??12@YA_N0I@Z@B 000000018002dd40     libucrt:cfout.obj
 0002:00008dd8       ?small_powers_of_ten@?1??multiply_by_power_of_ten@__crt_strtox@@YA_NAEAUbig_integer@2@I@Z@4QBIB 000000018002ddd8     libucrt:cfout.obj
 0002:00008dfc       ??_C@_01GBGANLPD@0@        000000018002ddfc     libucrt:cfout.obj
 0002:00008e00       ??_C@_05DNEBIAHO@1?$CDINF@ 000000018002de00     libucrt:cfout.obj
 0002:00008e08       ??_C@_06IMKFLFPG@1?$CDQNAN@ 000000018002de08     libucrt:cfout.obj
 0002:00008e10       ??_C@_06PGGFOGJG@1?$CDSNAN@ 000000018002de10     libucrt:cfout.obj
 0002:00008e18       ??_C@_05PHHOCPM@1?$CDIND@  000000018002de18     libucrt:cfout.obj
 0002:00008e48       __real@3ff0000000000000    000000018002de48     libucrt:ceil.obj
 0002:000090a0       __log10_256_lead           000000018002e0a0     libucrt:log10_256_lead_tail_table.obj
 0002:000098b0       __log10_256_tail           000000018002e8b0     libucrt:log10_256_lead_tail_table.obj
 0002:0000a0c0       __log_F_inv_qword          000000018002f0c0     libucrt:log_f_inv_qword_table.obj
 0002:0000a8d0       ??_C@_05HGHHAHAP@log10@    000000018002f8d0     libucrt:log_special.obj
 0002:0000a8d8       ??_C@_1BA@BALFACEM@?$AAC?$AAO?$AAN?$AAO?$AAU?$AAT?$AA$@ 000000018002f8d8     libucrt:initcon.obj
 0002:0000a960       _load_config_used          000000018002f960     LIBCMT:loadcfg.obj
 0002:0000ab00       _tls_used                  000000018002fb00     LIBCMT:tlssup.obj
 0002:0000ab28       ??_R4exception@std@@6B@    000000018002fb28     LIBCMT:throw_bad_alloc.obj
 0002:0000ab50       ??_R3exception@std@@8      000000018002fb50     LIBCMT:throw_bad_alloc.obj
 0002:0000ab68       ??_R2exception@std@@8      000000018002fb68     LIBCMT:throw_bad_alloc.obj
 0002:0000ab78       ??_R1A@?0A@EA@exception@std@@8 000000018002fb78     LIBCMT:throw_bad_alloc.obj
 0002:0000aba0       ??_R4bad_alloc@std@@6B@    000000018002fba0     LIBCMT:throw_bad_alloc.obj
 0002:0000abc8       ??_R3bad_alloc@std@@8      000000018002fbc8     LIBCMT:throw_bad_alloc.obj
 0002:0000abe0       ??_R2bad_alloc@std@@8      000000018002fbe0     LIBCMT:throw_bad_alloc.obj
 0002:0000abf8       ??_R1A@?0A@EA@bad_alloc@std@@8 000000018002fbf8     LIBCMT:throw_bad_alloc.obj
 0002:0000ac20       ??_R4bad_array_new_length@std@@6B@ 000000018002fc20     LIBCMT:throw_bad_alloc.obj
 0002:0000ac48       ??_R3bad_array_new_length@std@@8 000000018002fc48     LIBCMT:throw_bad_alloc.obj
 0002:0000ac60       ??_R2bad_array_new_length@std@@8 000000018002fc60     LIBCMT:throw_bad_alloc.obj
 0002:0000ac80       ??_R1A@?0A@EA@bad_array_new_length@std@@8 000000018002fc80     LIBCMT:throw_bad_alloc.obj
 0002:0000aca8       ??_R4type_info@@6B@        000000018002fca8     LIBCMT:std_type_info_static.obj
 0002:0000acd0       ??_R3type_info@@8          000000018002fcd0     LIBCMT:std_type_info_static.obj
 0002:0000ace8       ??_R2type_info@@8          000000018002fce8     LIBCMT:std_type_info_static.obj
 0002:0000acf8       ??_R1A@?0A@EA@type_info@@8 000000018002fcf8     LIBCMT:std_type_info_static.obj
 0002:0000ad20       ??_R4bad_exception@std@@6B@ 000000018002fd20     libvcruntime:frame.obj
 0002:0000ad48       ??_R3bad_exception@std@@8  000000018002fd48     libvcruntime:frame.obj
 0002:0000ad60       ??_R2bad_exception@std@@8  000000018002fd60     libvcruntime:frame.obj
 0002:0000ad78       ??_R1A@?0A@EA@bad_exception@std@@8 000000018002fd78     libvcruntime:frame.obj
 0002:0000ad9c       __volatile_metadata        000000018002fd9c     <linker-defined>
 0002:0000b220       __rtc_iaa                  0000000180030220     LIBCMT:initsect.obj
 0002:0000b228       __rtc_izz                  0000000180030228     LIBCMT:initsect.obj
 0002:0000b230       __rtc_taa                  0000000180030230     LIBCMT:initsect.obj
 0002:0000b238       __rtc_tzz                  0000000180030238     LIBCMT:initsect.obj
 0002:0000b240       _tls_start                 0000000180030240     LIBCMT:tlssup.obj
 0002:0000b244       _Init_thread_epoch         0000000180030244     LIBCMT:thread_safe_statics.obj
 0002:0000b248       _tls_end                   0000000180030248     LIBCMT:tlssup.obj
 0002:0000cb50       _TI2?AVbad_alloc@std@@     0000000180031b50     LIBCMT:throw_bad_alloc.obj
 0002:0000cb70       _CTA2?AVbad_alloc@std@@    0000000180031b70     LIBCMT:throw_bad_alloc.obj
 0002:0000cb88       _CT??_R0?AVbad_alloc@std@@@8??0bad_alloc@std@@QEAA@AEBV01@@Z24 0000000180031b88     LIBCMT:throw_bad_alloc.obj
 0002:0000cbb0       _CT??_R0?AVexception@std@@@8??0exception@std@@QEAA@AEBV01@@Z24 0000000180031bb0     LIBCMT:throw_bad_alloc.obj
 0002:0000cbd8       _TI3?AVbad_array_new_length@std@@ 0000000180031bd8     LIBCMT:throw_bad_alloc.obj
 0002:0000cbf8       _CTA3?AVbad_array_new_length@std@@ 0000000180031bf8     LIBCMT:throw_bad_alloc.obj
 0002:0000cc18       _CT??_R0?AVbad_array_new_length@std@@@8??0bad_array_new_length@std@@QEAA@AEBV01@@Z24 0000000180031c18     LIBCMT:throw_bad_alloc.obj
 0002:0000cc40       _TI2?AVbad_exception@std@@ 0000000180031c40     libvcruntime:frame.obj
 0002:0000cc60       _CTA2?AVbad_exception@std@@ 0000000180031c60     libvcruntime:frame.obj
 0002:0000cc78       _CT??_R0?AVbad_exception@std@@@8??0bad_exception@std@@QEAA@AEBV01@@Z24 0000000180031c78     libvcruntime:frame.obj
 0002:0000cca0       __pobjMapEntryFirst        0000000180031ca0     OposVariant.obj
 0002:0000cca8       __pobjMapEntryLast         0000000180031ca8     OposVariant.obj
 0002:0000cd60       __IMPORT_DESCRIPTOR_KERNEL32 0000000180031d60     kernel32:KERNEL32.dll
 0002:0000cd74       __IMPORT_DESCRIPTOR_USER32 0000000180031d74     user32:USER32.dll
 0002:0000cd88       __IMPORT_DESCRIPTOR_GDI32  0000000180031d88     gdi32:GDI32.dll
 0002:0000cd9c       __IMPORT_DESCRIPTOR_ADVAPI32 0000000180031d9c     advapi32:ADVAPI32.dll
 0002:0000cdb0       __IMPORT_DESCRIPTOR_ole32  0000000180031db0     ole32:ole32.dll
 0002:0000cdc4       __IMPORT_DESCRIPTOR_OLEAUT32 0000000180031dc4     oleaut32:OLEAUT32.dll
 0002:0000cdd8       __NULL_IMPORT_DESCRIPTOR   0000000180031dd8     kernel32:KERNEL32.dll
 0003:00000000       ?rcDefault@CWindow@ATL@@2UtagRECT@@A 0000000180034000     CoinDispenser.obj
 0003:00000010       ?s_Claim@?7??GetIDsOfNames@CComTypeInfoHolder@ATL@@QEAAJAEBU_GUID@@PEAPEA_WIKPEAJ@Z@4PA_WA 0000000180034010     CoinDispenser.obj
 0003:00000028       ?s_Release@?7??GetIDsOfNames@CComTypeInfoHolder@ATL@@QEAAJAEBU_GUID@@PEAPEA_WIKPEAJ@Z@4PA_WA 0000000180034028     CoinDispenser.obj
 0003:00000048       ?_tih@?$IDispatchImpl@UIOPOSCoinDispenser@@$1?IID_IOPOSCoinDispenser@@3U_GUID@@B$1?LIBID_OposCoinDispenser_CCO@@3U3@B$00$0A@VCComTypeInfoHolder@ATL@@@ATL@@1VCComTypeInfoHolder@2@A 0000000180034048     CoinDispenser.obj
 0003:00000080       ?_tih@?$IProvideClassInfo2Impl@$1?CLSID_OPOSCoinDispenser@@3U_GUID@@B$1?DIID__IOPOSCoinDispenserEvents@@3U2@B$1?LIBID_OposCoinDispenser_CCO@@3U2@B$00$0A@VCComTypeInfoHolder@ATL@@@ATL@@1VCComTypeInfoHolder@2@A 0000000180034080     CoinDispenser.obj
 0003:000000b8       ?vszContents@?6??Save@?$IPersistStorageImpl@VCOPOSCoinDispenser@@@ATL@@UEAAJPEAUIStorage@@H@Z@4PEB_WEB 00000001800340b8     CoinDispenser.obj
 0003:000000c0       ?wc@?1??GetWndClassInfo@?$CWindowImpl@VCOPOSCoinDispenser@@VCWindow@ATL@@V?$CWinTraits@$0FGAAAAAA@$0A@@3@@ATL@@SAAEAU_ATL_WNDCLASSINFOW@3@XZ@4U43@A 00000001800340c0     CoinDispenser.obj
 0003:00000250       ?g_WindowName@@3PA_WA      0000000180034250     CoinDispenserImpl.obj
 0003:00000280       ?g_ControlDescription@@3PADA 0000000180034280     CoinDispenserImpl.obj
 0003:000002d0       ?g_ControlVersion@@3JA     00000001800342d0     CoinDispenserImpl.obj
 0003:000003b0       __scrt_native_dllmain_reason 00000001800343b0     LIBCMT:utility.obj
 0003:000003b4       _Init_global_epoch         00000001800343b4     LIBCMT:thread_safe_statics.obj
 0003:000003c0       __security_cookie          00000001800343c0     LIBCMT:gs_cookie.obj
 0003:000003c8       __security_cookie_complement 00000001800343c8     LIBCMT:gs_cookie.obj
 0003:000003d0       __isa_available            00000001800343d0     LIBCMT:cpu_disp.obj
 0003:000003d4       __isa_enabled              00000001800343d4     LIBCMT:cpu_disp.obj
 0003:000003d8       __memcpy_nt_iters          00000001800343d8     LIBCMT:cpu_disp.obj
 0003:000003e0       __memset_nt_iters          00000001800343e0     LIBCMT:cpu_disp.obj
 0003:00000408       __abort_behavior           0000000180034408     libucrt:abort.obj
 0003:00000420       __acrt_initial_locale_data 0000000180034420     libucrt:nlsdata.obj
 0003:00000578       __acrt_initial_locale_pointers 0000000180034578     libucrt:nlsdata.obj
 0003:00000588       __acrt_wide_c_locale_string 0000000180034588     libucrt:nlsdata.obj
 0003:00000590       _iob                       0000000180034590     libucrt:_file.obj
 0003:000006a0       __acrt_initial_multibyte_data 00000001800346a0     libucrt:mbctype.obj
 0003:00000be0       __acrt_lconv_c             0000000180034be0     libucrt:localeconv.obj
 0003:00000c78       __acrt_lconv_static_decimal 0000000180034c78     libucrt:localeconv.obj
 0003:00000c7c       __acrt_lconv_static_W_decimal 0000000180034c7c     libucrt:localeconv.obj
 0003:00000c80       __globallocalestatus       0000000180034c80     libucrt:glstatus.obj
 0003:00000c90       _lookuptrailbytes          0000000180034c90     libucrt:read.obj
 0003:00000db4       _fltused                   0000000180034db4     LIBCMT:fltused.obj
 0003:00000db8       ??_R0?AVbad_alloc@std@@@8  0000000180034db8     LIBCMT:throw_bad_alloc.obj
 0003:00000de0       ??_R0?AVexception@std@@@8  0000000180034de0     LIBCMT:throw_bad_alloc.obj
 0003:00000e08       ??_R0?AVbad_array_new_length@std@@@8 0000000180034e08     LIBCMT:throw_bad_alloc.obj
 0003:00000e38       ??_R0?AVbad_exception@std@@@8 0000000180034e38     libvcruntime:frame.obj
 0003:00000e60       ??_R0?AVtype_info@@@8      0000000180034e60     LIBCMT:std_type_info_static.obj
 0003:00000e80       ?m_bInitFailed@CAtlBaseModule@ATL@@2_NA 0000000180034e80     OposVariant.obj
 0003:00000e88       ?_pPerfRegFunc@ATL@@3P6AJPEAUHINSTANCE__@@@ZEA 0000000180034e88     OposVariant.obj
 0003:00000e90       ?_pPerfUnRegFunc@ATL@@3P6AJXZEA 0000000180034e90     OposVariant.obj
 0003:00000e98       ?_AtlRegisterPerUser@ATL@@3_NA 0000000180034e98     OposVariant.obj
 0003:00000ea0       ?_pAtlModule@ATL@@3PEAVCAtlModule@1@EA 0000000180034ea0     OposVariant.obj
 0003:00000ea8       ?_pModule@ATL@@3PEAVCComModule@1@EA 0000000180034ea8     OposVariant.obj
 0003:00000eb0       ?_AtlComModule@ATL@@3VCAtlComModule@1@A 0000000180034eb0     OposVariant.obj
 0003:00000f00       ?_AtlWinModule@ATL@@3VCAtlWinModule@1@A 0000000180034f00     OposVariant.obj
 0003:00000f48       ?m_libid@CAtlModule@ATL@@2U_GUID@@A 0000000180034f48     CoinDispenser.obj
 0003:00000f58       ?_entries@?1??GetConnMap@COPOSCoinDispenser@@SAPEBU_ATL_CONNMAP_ENTRY@ATL@@PEAH@Z@4QBU34@B 0000000180034f58     CoinDispenser.obj
 0003:00000f70       ?$TSS0@?1??GetConnMap@COPOSCoinDispenser@@SAPEBU_ATL_CONNMAP_ENTRY@ATL@@PEAH@Z@4HA 0000000180034f70     CoinDispenser.obj
 0003:00000f78       ?_OptionsStorage@?1??__local_stdio_printf_options@@9@4_KA 0000000180034f78     CoinDispenser.obj
 0003:00000f80       ?pfnRegDeleteKeyEx@?1??DeleteSubKey@CRegKey@ATL@@QEAAJPEB_W@Z@4P6AJPEAUHKEY__@@0KK@ZEA 0000000180034f80     CoinDispenser.obj
 0003:00000f88       ?bInitialized@?1??DeleteSubKey@CRegKey@ATL@@QEAAJPEB_W@Z@4_NA 0000000180034f88     CoinDispenser.obj
 0003:00000f90       ?_Module@@3VCComModule@ATL@@A 0000000180034f90     CoinDispenser.obj
 0003:00000fe0       ?pConnMap@?$IConnectionPointContainerImpl@VCOPOSCoinDispenser@@@ATL@@0PEBU_ATL_CONNMAP_ENTRY@2@EB 0000000180034fe0     CoinDispenser.obj
 0003:00000fe8       ?s_nInstances@COPOSCoinDispenser@@1HA 0000000180034fe8     CoinDispenserImpl.obj
 0003:00000ff0       __scrt_current_native_startup_state 0000000180034ff0     LIBCMT:utility.obj
 0003:00000ff8       __scrt_native_startup_lock 0000000180034ff8     LIBCMT:utility.obj
 0003:000015f0       _tls_index                 00000001800355f0     LIBCMT:tlssup.obj
 0003:000015f8       __favor                    00000001800355f8     LIBCMT:cpu_disp.obj
 0003:000015fc       __scrt_debugger_hook_flag  00000001800355fc     LIBCMT:utility_desktop.obj
 0003:00001600       ?__type_info_root_node@@3U__type_info_node@@A 0000000180035600     LIBCMT:tncleanup.obj
 0003:00001610       ?_OptionsStorage@?1??__local_stdio_scanf_options@@9@4_KA 0000000180035610     LIBCMT:default_local_stdio_options.obj
 0003:00001620       ?_AtlBaseModule@ATL@@3VCAtlBaseModule@1@A 0000000180035620     atls:atlbase.obj
 0003:00001680       ?__AtlThunkPool@@3PEAT_SLIST_HEADER@@EA 0000000180035680     atls:atlthunk.obj
 0003:000016ac       __@@_PchSym_@00@UzABUPdlipUCAUhUrmgvinvwrzgvUexgllohUzgohOmzgrevkilqPBACIAJCBDBUlyqiUznwGEUhgwzucOlyq@4B2008FD98C1DD4 00000001800356ac     atls:stdafx.obj
 0003:000016b0       ?__WinRTOutOfMemoryExceptionCallback@@3P6APEAXXZEA 00000001800356b0     libvcruntime:ehhelpers.obj
 0003:000016b8       __pPurecall                00000001800356b8     libvcruntime:purevirt_data.obj
 0003:00001770       ?pArgList@UnDecorator@@0PEAVReplicator@@EA 0000000180035770     libvcruntime:undname.obj
 0003:00001778       ?pZNameList@UnDecorator@@0PEAVReplicator@@EA 0000000180035778     libvcruntime:undname.obj
 0003:00001780       ?pTemplateArgList@UnDecorator@@0PEAVReplicator@@EA 0000000180035780     libvcruntime:undname.obj
 0003:00001788       ?gName@UnDecorator@@0PEBDEB 0000000180035788     libvcruntime:undname.obj
 0003:00001790       ?name@UnDecorator@@0PEBDEB 0000000180035790     libvcruntime:undname.obj
 0003:00001798       ?disableFlags@UnDecorator@@0KA 0000000180035798     libvcruntime:undname.obj
 0003:0000179c       ?fExplicitTemplateParams@UnDecorator@@0_NA 000000018003579c     libvcruntime:undname.obj
 0003:0000179d       ?fGetTemplateArgumentList@UnDecorator@@0_NA 000000018003579d     libvcruntime:undname.obj
 0003:000017a0       ?m_pGetParameter@UnDecorator@@0P6APEADJ@ZEA 00000001800357a0     libvcruntime:undname.obj
 0003:000017a8       ?m_CHPENameOffset@UnDecorator@@0KA 00000001800357a8     libvcruntime:undname.obj
 0003:000017ac       ?m_recursionLevel@UnDecorator@@0KA 00000001800357ac     libvcruntime:undname.obj
 0003:00001830       ?c_exit_complete@?1???R<lambda_6e4b09c48022b2350581041d5f6b0c4c>@@QEBA@XZ@4_NA 0000000180035830     libucrt:exit.obj
 0003:00001948       _environ_table             0000000180035948     libucrt:environment_initialization.obj
 0003:00001950       _wenviron_table            0000000180035950     libucrt:environment_initialization.obj
 0003:00001958       __dcrt_initial_wide_environment 0000000180035958     libucrt:environment_initialization.obj
 0003:00001960       __dcrt_initial_narrow_environment 0000000180035960     libucrt:environment_initialization.obj
 0003:00001968       __acrt_atexit_table        0000000180035968     libucrt:onexit.obj
 0003:00001980       __acrt_at_quick_exit_table 0000000180035980     libucrt:onexit.obj
 0003:000019a0       __acrt_locale_changed_data 00000001800359a0     libucrt:wsetlocale.obj
 0003:000019a8       __acrt_current_locale_data 00000001800359a8     libucrt:nlsdata.obj
 0003:00001b48       _nstream                   0000000180035b48     libucrt:_file.obj
 0003:00001b50       __piob                     0000000180035b50     libucrt:_file.obj
 0003:00001b60       __acrt_stdout_buffer       0000000180035b60     libucrt:_sftbuf.obj
 0003:00001b68       __acrt_stderr_buffer       0000000180035b68     libucrt:_sftbuf.obj
 0003:00001b70       __pioinfo                  0000000180035b70     libucrt:ioinit.obj
 0003:00001f70       _nhandle                   0000000180035f70     libucrt:ioinit.obj
 0003:000021b8       _mbctype                   00000001800361b8     libucrt:mbctype.obj
 0003:000021c0       _mbcasemap                 00000001800361c0     libucrt:mbctype.obj
 0003:000021c8       __acrt_current_multibyte_data 00000001800361c8     libucrt:mbctype.obj
 0003:000021d8       _pgmptr                    00000001800361d8     libucrt:argv_data.obj
 0003:000021e0       __argc                     00000001800361e0     libucrt:argv_data.obj
 0003:000021e8       __argv                     00000001800361e8     libucrt:argv_data.obj
 0003:000021f0       __wargv                    00000001800361f0     libucrt:argv_data.obj
 0003:000021f8       _acmdln                    00000001800361f8     libucrt:argv_data.obj
 0003:00002200       _wcmdln                    0000000180036200     libucrt:argv_data.obj
 0003:00002208       __acrt_heap                0000000180036208     libucrt:heap_handle.obj
 0003:00002238       __acrt_lconv_static_null   0000000180036238     libucrt:localeconv.obj
 0003:0000223c       __acrt_lconv_static_W_null 000000018003623c     libucrt:localeconv.obj
 0003:00002254       __fma3_is_available        0000000180036254     libucrt:fma3_available.obj
 0003:00002258       __use_fma3_lib             0000000180036258     libucrt:fma3_available.obj
 0003:00002260       __dyn_tls_init_callback    0000000180036260     <common>
 0003:00002268       __scrt_ucrt_dll_is_in_use  0000000180036268     <common>

 entry point at        0001:0000e840

 Static symbols

 0000:fffc1000       .debug$S                   0000000180000000     OPOSCoinDispenser.exp
 0000:fffc1000       .debug$S                   0000000180000000     advapi32:ADVAPI32.dll
 0000:fffc1000       .debug$S                   0000000180000000     advapi32:ADVAPI32.dll
 0000:fffc1000       .debug$S                   0000000180000000     advapi32:ADVAPI32.dll
 0000:fffc1000       .debug$S                   0000000180000000     advapi32:ADVAPI32.dll
 0000:fffc1000       .debug$S                   0000000180000000     advapi32:ADVAPI32.dll
 0000:fffc1000       .debug$S                   0000000180000000     advapi32:ADVAPI32.dll
 0000:fffc1000       .debug$S                   0000000180000000     advapi32:ADVAPI32.dll
 0000:fffc1000       .debug$S                   0000000180000000     advapi32:ADVAPI32.dll
 0000:fffc1000       .debug$S                   0000000180000000     advapi32:ADVAPI32.dll
 0000:fffc1000       .debug$S                   0000000180000000     gdi32:GDI32.dll
 0000:fffc1000       .debug$S                   0000000180000000     gdi32:GDI32.dll
 0000:fffc1000       .debug$S                   0000000180000000     gdi32:GDI32.dll
 0000:fffc1000       .debug$S                   0000000180000000     gdi32:GDI32.dll
 0000:fffc1000       .debug$S                   0000000180000000     gdi32:GDI32.dll
 0000:fffc1000       .debug$S                   0000000180000000     gdi32:GDI32.dll
 0000:fffc1000       .debug$S                   0000000180000000     gdi32:GDI32.dll
 0000:fffc1000       .debug$S                   0000000180000000     gdi32:GDI32.dll
 0000:fffc1000       .debug$S                   0000000180000000     gdi32:GDI32.dll
 0000:fffc1000       .debug$S                   0000000180000000     gdi32:GDI32.dll
 0000:fffc1000       .debug$S                   0000000180000000     gdi32:GDI32.dll
 0000:fffc1000       .debug$S                   0000000180000000     gdi32:GDI32.dll
 0000:fffc1000       .debug$S                   0000000180000000     gdi32:GDI32.dll
 0000:fffc1000       .debug$S                   0000000180000000     gdi32:GDI32.dll
 0000:fffc1000       .debug$S                   0000000180000000     gdi32:GDI32.dll
 0000:fffc1000       .debug$S                   0000000180000000     gdi32:GDI32.dll
 0000:fffc1000       .debug$S                   0000000180000000     gdi32:GDI32.dll
 0000:fffc1000       .debug$S                   0000000180000000     gdi32:GDI32.dll
 0000:fffc1000       .debug$S                   0000000180000000     gdi32:GDI32.dll
 0000:fffc1000       .debug$S                   0000000180000000     kernel32:KERNEL32.dll
 0000:fffc1000       .debug$S                   0000000180000000     kernel32:KERNEL32.dll
 0000:fffc1000       .debug$S                   0000000180000000     kernel32:KERNEL32.dll
 0000:fffc1000       .debug$S                   0000000180000000     kernel32:KERNEL32.dll
 0000:fffc1000       .debug$S                   0000000180000000     kernel32:KERNEL32.dll
 0000:fffc1000       .debug$S                   0000000180000000     kernel32:KERNEL32.dll
 0000:fffc1000       .debug$S                   0000000180000000     kernel32:KERNEL32.dll
 0000:fffc1000       .debug$S                   0000000180000000     kernel32:KERNEL32.dll
 0000:fffc1000       .debug$S                   0000000180000000     kernel32:KERNEL32.dll
 0000:fffc1000       .debug$S                   0000000180000000     kernel32:KERNEL32.dll
 0000:fffc1000       .debug$S                   0000000180000000     kernel32:KERNEL32.dll
 0000:fffc1000       .debug$S                   0000000180000000     kernel32:KERNEL32.dll
 0000:fffc1000       .debug$S                   0000000180000000     kernel32:KERNEL32.dll
 0000:fffc1000       .debug$S                   0000000180000000     kernel32:KERNEL32.dll
 0000:fffc1000       .debug$S                   0000000180000000     kernel32:KERNEL32.dll
 0000:fffc1000       .debug$S                   0000000180000000     kernel32:KERNEL32.dll
 0000:fffc1000       .debug$S                   0000000180000000     kernel32:KERNEL32.dll
 0000:fffc1000       .debug$S                   0000000180000000     kernel32:KERNEL32.dll
 0000:fffc1000       .debug$S                   0000000180000000     kernel32:KERNEL32.dll
 0000:fffc1000       .debug$S                   0000000180000000     kernel32:KERNEL32.dll
 0000:fffc1000       .debug$S                   0000000180000000     kernel32:KERNEL32.dll
 0000:fffc1000       .debug$S                   0000000180000000     kernel32:KERNEL32.dll
 0000:fffc1000       .debug$S                   0000000180000000     kernel32:KERNEL32.dll
 0000:fffc1000       .debug$S                   0000000180000000     kernel32:KERNEL32.dll
 0000:fffc1000       .debug$S                   0000000180000000     kernel32:KERNEL32.dll
 0000:fffc1000       .debug$S                   0000000180000000     kernel32:KERNEL32.dll
 0000:fffc1000       .debug$S                   0000000180000000     kernel32:KERNEL32.dll
 0000:fffc1000       .debug$S                   0000000180000000     kernel32:KERNEL32.dll
 0000:fffc1000       .debug$S                   0000000180000000     kernel32:KERNEL32.dll
 0000:fffc1000       .debug$S                   0000000180000000     kernel32:KERNEL32.dll
 0000:fffc1000       .debug$S                   0000000180000000     kernel32:KERNEL32.dll
 0000:fffc1000       .debug$S                   0000000180000000     kernel32:KERNEL32.dll
 0000:fffc1000       .debug$S                   0000000180000000     kernel32:KERNEL32.dll
 0000:fffc1000       .debug$S                   0000000180000000     kernel32:KERNEL32.dll
 0000:fffc1000       .debug$S                   0000000180000000     kernel32:KERNEL32.dll
 0000:fffc1000       .debug$S                   0000000180000000     kernel32:KERNEL32.dll
 0000:fffc1000       .debug$S                   0000000180000000     kernel32:KERNEL32.dll
 0000:fffc1000       .debug$S                   0000000180000000     kernel32:KERNEL32.dll
 0000:fffc1000       .debug$S                   0000000180000000     kernel32:KERNEL32.dll
 0000:fffc1000       .debug$S                   0000000180000000     kernel32:KERNEL32.dll
 0000:fffc1000       .debug$S                   0000000180000000     kernel32:KERNEL32.dll
 0000:fffc1000       .debug$S                   0000000180000000     kernel32:KERNEL32.dll
 0000:fffc1000       .debug$S                   0000000180000000     kernel32:KERNEL32.dll
 0000:fffc1000       .debug$S                   0000000180000000     kernel32:KERNEL32.dll
 0000:fffc1000       .debug$S                   0000000180000000     kernel32:KERNEL32.dll
 0000:fffc1000       .debug$S                   0000000180000000     kernel32:KERNEL32.dll
 0000:fffc1000       .debug$S                   0000000180000000     kernel32:KERNEL32.dll
 0000:fffc1000       .debug$S                   0000000180000000     kernel32:KERNEL32.dll
 0000:fffc1000       .debug$S                   0000000180000000     kernel32:KERNEL32.dll
 0000:fffc1000       .debug$S                   0000000180000000     kernel32:KERNEL32.dll
 0000:fffc1000       .debug$S                   0000000180000000     kernel32:KERNEL32.dll
 0000:fffc1000       .debug$S                   0000000180000000     kernel32:KERNEL32.dll
 0000:fffc1000       .debug$S                   0000000180000000     kernel32:KERNEL32.dll
 0000:fffc1000       .debug$S                   0000000180000000     kernel32:KERNEL32.dll
 0000:fffc1000       .debug$S                   0000000180000000     kernel32:KERNEL32.dll
 0000:fffc1000       .debug$S                   0000000180000000     kernel32:KERNEL32.dll
 0000:fffc1000       .debug$S                   0000000180000000     kernel32:KERNEL32.dll
 0000:fffc1000       .debug$S                   0000000180000000     kernel32:KERNEL32.dll
 0000:fffc1000       .debug$S                   0000000180000000     kernel32:KERNEL32.dll
 0000:fffc1000       .debug$S                   0000000180000000     kernel32:KERNEL32.dll
 0000:fffc1000       .debug$S                   0000000180000000     kernel32:KERNEL32.dll
 0000:fffc1000       .debug$S                   0000000180000000     kernel32:KERNEL32.dll
 0000:fffc1000       .debug$S                   0000000180000000     kernel32:KERNEL32.dll
 0000:fffc1000       .debug$S                   0000000180000000     kernel32:KERNEL32.dll
 0000:fffc1000       .debug$S                   0000000180000000     kernel32:KERNEL32.dll
 0000:fffc1000       .debug$S                   0000000180000000     kernel32:KERNEL32.dll
 0000:fffc1000       .debug$S                   0000000180000000     kernel32:KERNEL32.dll
 0000:fffc1000       .debug$S                   0000000180000000     kernel32:KERNEL32.dll
 0000:fffc1000       .debug$S                   0000000180000000     kernel32:KERNEL32.dll
 0000:fffc1000       .debug$S                   0000000180000000     kernel32:KERNEL32.dll
 0000:fffc1000       .debug$S                   0000000180000000     kernel32:KERNEL32.dll
 0000:fffc1000       .debug$S                   0000000180000000     kernel32:KERNEL32.dll
 0000:fffc1000       .debug$S                   0000000180000000     kernel32:KERNEL32.dll
 0000:fffc1000       .debug$S                   0000000180000000     kernel32:KERNEL32.dll
 0000:fffc1000       .debug$S                   0000000180000000     kernel32:KERNEL32.dll
 0000:fffc1000       .debug$S                   0000000180000000     kernel32:KERNEL32.dll
 0000:fffc1000       .debug$S                   0000000180000000     kernel32:KERNEL32.dll
 0000:fffc1000       .debug$S                   0000000180000000     kernel32:KERNEL32.dll
 0000:fffc1000       .debug$S                   0000000180000000     kernel32:KERNEL32.dll
 0000:fffc1000       .debug$S                   0000000180000000     kernel32:KERNEL32.dll
 0000:fffc1000       .debug$S                   0000000180000000     kernel32:KERNEL32.dll
 0000:fffc1000       .debug$S                   0000000180000000     kernel32:KERNEL32.dll
 0000:fffc1000       .debug$S                   0000000180000000     kernel32:KERNEL32.dll
 0000:fffc1000       .debug$S                   0000000180000000     kernel32:KERNEL32.dll
 0000:fffc1000       .debug$S                   0000000180000000     kernel32:KERNEL32.dll
 0000:fffc1000       .debug$S                   0000000180000000     kernel32:KERNEL32.dll
 0000:fffc1000       .debug$S                   0000000180000000     kernel32:KERNEL32.dll
 0000:fffc1000       .debug$S                   0000000180000000     kernel32:KERNEL32.dll
 0000:fffc1000       .debug$S                   0000000180000000     kernel32:KERNEL32.dll
 0000:fffc1000       .debug$S                   0000000180000000     kernel32:KERNEL32.dll
 0000:fffc1000       .debug$S                   0000000180000000     kernel32:KERNEL32.dll
 0000:fffc1000       .debug$S                   0000000180000000     kernel32:KERNEL32.dll
 0000:fffc1000       .debug$S                   0000000180000000     kernel32:KERNEL32.dll
 0000:fffc1000       .debug$S                   0000000180000000     kernel32:KERNEL32.dll
 0000:fffc1000       .debug$S                   0000000180000000     kernel32:KERNEL32.dll
 0000:fffc1000       .debug$S                   0000000180000000     kernel32:KERNEL32.dll
 0000:fffc1000       .debug$S                   0000000180000000     kernel32:KERNEL32.dll
 0000:fffc1000       .debug$S                   0000000180000000     kernel32:KERNEL32.dll
 0000:fffc1000       .debug$S                   0000000180000000     kernel32:KERNEL32.dll
 0000:fffc1000       .debug$S                   0000000180000000     kernel32:KERNEL32.dll
 0000:fffc1000       .debug$S                   0000000180000000     kernel32:KERNEL32.dll
 0000:fffc1000       .debug$S                   0000000180000000     kernel32:KERNEL32.dll
 0000:fffc1000       .debug$S                   0000000180000000     kernel32:KERNEL32.dll
 0000:fffc1000       .debug$S                   0000000180000000     kernel32:KERNEL32.dll
 0000:fffc1000       .debug$S                   0000000180000000     kernel32:KERNEL32.dll
 0000:fffc1000       .debug$S                   0000000180000000     kernel32:KERNEL32.dll
 0000:fffc1000       .debug$S                   0000000180000000     kernel32:KERNEL32.dll
 0000:fffc1000       .debug$S                   0000000180000000     kernel32:KERNEL32.dll
 0000:fffc1000       .debug$S                   0000000180000000     kernel32:KERNEL32.dll
 0000:fffc1000       .debug$S                   0000000180000000     kernel32:KERNEL32.dll
 0000:fffc1000       .debug$S                   0000000180000000     kernel32:KERNEL32.dll
 0000:fffc1000       .debug$S                   0000000180000000     kernel32:KERNEL32.dll
 0000:fffc1000       .debug$S                   0000000180000000     kernel32:KERNEL32.dll
 0000:fffc1000       .debug$S                   0000000180000000     kernel32:KERNEL32.dll
 0000:fffc1000       .debug$S                   0000000180000000     kernel32:KERNEL32.dll
 0000:fffc1000       .debug$S                   0000000180000000     ole32:ole32.dll
 0000:fffc1000       .debug$S                   0000000180000000     ole32:ole32.dll
 0000:fffc1000       .debug$S                   0000000180000000     ole32:ole32.dll
 0000:fffc1000       .debug$S                   0000000180000000     ole32:ole32.dll
 0000:fffc1000       .debug$S                   0000000180000000     ole32:ole32.dll
 0000:fffc1000       .debug$S                   0000000180000000     ole32:ole32.dll
 0000:fffc1000       .debug$S                   0000000180000000     ole32:ole32.dll
 0000:fffc1000       .debug$S                   0000000180000000     ole32:ole32.dll
 0000:fffc1000       .debug$S                   0000000180000000     ole32:ole32.dll
 0000:fffc1000       .debug$S                   0000000180000000     ole32:ole32.dll
 0000:fffc1000       .debug$S                   0000000180000000     ole32:ole32.dll
 0000:fffc1000       .debug$S                   0000000180000000     ole32:ole32.dll
 0000:fffc1000       .debug$S                   0000000180000000     ole32:ole32.dll
 0000:fffc1000       .debug$S                   0000000180000000     ole32:ole32.dll
 0000:fffc1000       .debug$S                   0000000180000000     oleaut32:OLEAUT32.dll
 0000:fffc1000       .debug$S                   0000000180000000     oleaut32:OLEAUT32.dll
 0000:fffc1000       .debug$S                   0000000180000000     oleaut32:OLEAUT32.dll
 0000:fffc1000       .debug$S                   0000000180000000     oleaut32:OLEAUT32.dll
 0000:fffc1000       .debug$S                   0000000180000000     oleaut32:OLEAUT32.dll
 0000:fffc1000       .debug$S                   0000000180000000     oleaut32:OLEAUT32.dll
 0000:fffc1000       .debug$S                   0000000180000000     oleaut32:OLEAUT32.dll
 0000:fffc1000       .debug$S                   0000000180000000     oleaut32:OLEAUT32.dll
 0000:fffc1000       .debug$S                   0000000180000000     oleaut32:OLEAUT32.dll
 0000:fffc1000       .debug$S                   0000000180000000     oleaut32:OLEAUT32.dll
 0000:fffc1000       .debug$S                   0000000180000000     oleaut32:OLEAUT32.dll
 0000:fffc1000       .debug$S                   0000000180000000     oleaut32:OLEAUT32.dll
 0000:fffc1000       .debug$S                   0000000180000000     oleaut32:OLEAUT32.dll
 0000:fffc1000       .debug$S                   0000000180000000     oleaut32:OLEAUT32.dll
 0000:fffc1000       .debug$S                   0000000180000000     oleaut32:OLEAUT32.dll
 0000:fffc1000       .debug$S                   0000000180000000     oleaut32:OLEAUT32.dll
 0000:fffc1000       .debug$S                   0000000180000000     user32:USER32.dll
 0000:fffc1000       .debug$S                   0000000180000000     user32:USER32.dll
 0000:fffc1000       .debug$S                   0000000180000000     user32:USER32.dll
 0000:fffc1000       .debug$S                   0000000180000000     user32:USER32.dll
 0000:fffc1000       .debug$S                   0000000180000000     user32:USER32.dll
 0000:fffc1000       .debug$S                   0000000180000000     user32:USER32.dll
 0000:fffc1000       .debug$S                   0000000180000000     user32:USER32.dll
 0000:fffc1000       .debug$S                   0000000180000000     user32:USER32.dll
 0000:fffc1000       .debug$S                   0000000180000000     user32:USER32.dll
 0000:fffc1000       .debug$S                   0000000180000000     user32:USER32.dll
 0000:fffc1000       .debug$S                   0000000180000000     user32:USER32.dll
 0000:fffc1000       .debug$S                   0000000180000000     user32:USER32.dll
 0000:fffc1000       .debug$S                   0000000180000000     user32:USER32.dll
 0000:fffc1000       .debug$S                   0000000180000000     user32:USER32.dll
 0000:fffc1000       .debug$S                   0000000180000000     user32:USER32.dll
 0000:fffc1000       .debug$S                   0000000180000000     user32:USER32.dll
 0000:fffc1000       .debug$S                   0000000180000000     user32:USER32.dll
 0000:fffc1000       .debug$S                   0000000180000000     user32:USER32.dll
 0000:fffc1000       .debug$S                   0000000180000000     user32:USER32.dll
 0000:fffc1000       .debug$S                   0000000180000000     user32:USER32.dll
 0000:fffc1000       .debug$S                   0000000180000000     user32:USER32.dll
 0000:fffc1000       .debug$S                   0000000180000000     user32:USER32.dll
 0000:fffc1000       .debug$S                   0000000180000000     user32:USER32.dll
 0000:fffc1000       .debug$S                   0000000180000000     user32:USER32.dll
 0000:fffc1000       .debug$S                   0000000180000000     user32:USER32.dll
 0000:fffc1000       .debug$S                   0000000180000000     user32:USER32.dll
 0000:fffc1000       .debug$S                   0000000180000000     user32:USER32.dll
 0000:fffc1000       .debug$S                   0000000180000000     user32:USER32.dll
 0000:fffc1000       .debug$S                   0000000180000000     user32:USER32.dll
 0000:fffc1000       .debug$S                   0000000180000000     user32:USER32.dll
 0000:fffc1000       .debug$S                   0000000180000000     user32:USER32.dll
 0000:fffc1000       .debug$S                   0000000180000000     user32:USER32.dll
 0000:fffc1000       .debug$S                   0000000180000000     user32:USER32.dll
 0000:fffc1000       .debug$S                   0000000180000000     user32:USER32.dll
 0000:fffc1000       .debug$S                   0000000180000000     user32:USER32.dll
 0001:00000000       ??__E_AtlComModule@ATL@@YAXXZ 0000000180001000 f   OposVariant.obj
 0001:00000020       ??__E_AtlWinModule@ATL@@YAXXZ 0000000180001020 f   OposVariant.obj
 0001:00000040       ??__E?pConnMap@?$IConnectionPointContainerImpl@VCOPOSCoinDispenser@@@ATL@@0PEBU_ATL_CONNMAP_ENTRY@2@EB@@YAXXZ 0000000180001040 f   CoinDispenser.obj
 0001:00000058       ??__E_Module@@YAXXZ        0000000180001058 f   CoinDispenser.obj
 0001:00000094       ??__E_AtlBaseModule@ATL@@YAXXZ 0000000180001094 f   atls:atlbase.obj
 0001:0000de60       ?__scrt_initialize_thread_safe_statics@@YAHXZ 000000018000ee60 f   LIBCMT:thread_safe_statics.obj
 0001:0000df30       ?__scrt_uninitialize_thread_safe_statics@@YAXXZ 000000018000ef30 f   LIBCMT:thread_safe_statics.obj
 0001:0000e280       capture_current_context    000000018000f280 f   LIBCMT:gs_report.obj
 0001:0000e2f0       capture_previous_context   000000018000f2f0 f   LIBCMT:gs_report.obj
 0001:0000e490       $$000000                   000000018000f490     LIBCMT:chkstk.obj
 0001:0000e4f0       $$000000                   000000018000f4f0     LIBCMT:amdsecgs.obj
 0001:0000e520       ?dllmain_crt_dispatch@@YAHQEAUHINSTANCE__@@KQEAX@Z 000000018000f520 f   LIBCMT:dll_dllmain.obj
 0001:0000e570       ?dllmain_crt_process_attach@@YAHQEAUHINSTANCE__@@QEAX@Z 000000018000f570 f   LIBCMT:dll_dllmain.obj
 0001:0000e688       ?dllmain_crt_process_detach@@YAH_N@Z 000000018000f688 f   LIBCMT:dll_dllmain.obj
 0001:0000e70c       ?dllmain_dispatch@@YAHQEAUHINSTANCE__@@KQEAX@Z 000000018000f70c f   LIBCMT:dll_dllmain.obj
 0001:0000efd8       ??$GetProcAddressAll@P6AP6A_JPEAUHWND__@@I_K_J@ZPEAUAtlThunkData_t@@@Z@@YAP6AP6A_JPEAUHWND__@@I_K_J@ZPEAUAtlThunkData_t@@@ZPEAP6AP6A_J0I12@Z3@Z@Z 000000018000ffd8 f   atls:atlthunk.obj
 0001:0000efd8       ??$GetProcAddressAll@P6APEAUAtlThunkData_t@@XZ@@YAP6APEAUAtlThunkData_t@@XZPEAP6APEAU0@XZ@Z 000000018000ffd8 f   atls:atlthunk.obj
 0001:0000efd8       ??$GetProcAddressAll@P6AXPEAUAtlThunkData_t@@@Z@@YAP6AXPEAUAtlThunkData_t@@@ZPEAP6AX0@Z@Z 000000018000ffd8 f   atls:atlthunk.obj
 0001:0000efd8       ??$GetProcAddressAll@P6AXPEAUAtlThunkData_t@@PEAX_K@Z@@YAP6AXPEAUAtlThunkData_t@@PEAX_K@ZPEAP6AX012@Z@Z 000000018000ffd8 f   atls:atlthunk.obj
 0001:0000f1b0       ?__InitializeThunkPool@@YAHXZ 00000001800101b0 f   atls:atlthunk.obj
 0001:0000f650       $$000000                   0000000180010650     libvcruntime:memcmp.obj
 0001:0000f730       $$000000                   0000000180010730     libvcruntime:memcpy.obj
 0001:0000fde0       $$000000                   0000000180010de0     libvcruntime:memset.obj
 0001:000113f0       $$000000                   00000001800123f0     libvcruntime:notify.obj
 0001:00011670       ??$BuildCatchObjectHelperInternal@V__FrameHandler3@@@@YAHPEAUEHExceptionRecord@@PEAXPEBU_s_HandlerType@@PEBU_s_CatchableType@@@Z 0000000180012670 f   libvcruntime:frame.obj
 0001:00011870       ??$BuildCatchObjectHelperInternal@V__FrameHandler4@@@@YAHPEAUEHExceptionRecord@@PEAXPEAUHandlerType4@FH4@@PEBU_s_CatchableType@@@Z 0000000180012870 f   libvcruntime:frame.obj
 0001:00011a74       ??$BuildCatchObjectInternal@V__FrameHandler3@@@@YAXPEAUEHExceptionRecord@@PEAXPEBU_s_HandlerType@@PEBU_s_CatchableType@@@Z 0000000180012a74 f   libvcruntime:frame.obj
 0001:00011b34       ??$BuildCatchObjectInternal@V__FrameHandler4@@@@YAXPEAUEHExceptionRecord@@PEAXPEAUHandlerType4@FH4@@PEBU_s_CatchableType@@@Z 0000000180012b34 f   libvcruntime:frame.obj
 0001:00011bf8       ??$CatchIt@V__FrameHandler3@@@@YAXPEAUEHExceptionRecord@@PEA_KPEAU_CONTEXT@@PEAU_xDISPATCHER_CONTEXT@@PEBU_s_FuncInfo@@PEBU_s_HandlerType@@PEBU_s_CatchableType@@PEBU_s_TryBlockMapEntry@@H1EE@Z 0000000180012bf8 f   libvcruntime:frame.obj
 0001:00011ccc       ??$CatchIt@V__FrameHandler4@@@@YAXPEAUEHExceptionRecord@@PEA_KPEAU_CONTEXT@@PEAU_xDISPATCHER_CONTEXT@@PEAUFuncInfo4@FH4@@PEAUHandlerType4@4@PEBU_s_CatchableType@@PEAUTryBlockMapEntry4@4@H1EE@Z 0000000180012ccc f   libvcruntime:frame.obj
 0001:00011da0       ??$FindHandler@V__FrameHandler3@@@@YAXPEAUEHExceptionRecord@@PEA_KPEAU_CONTEXT@@PEAU_xDISPATCHER_CONTEXT@@PEBU_s_FuncInfo@@EH1@Z 0000000180012da0 f   libvcruntime:frame.obj
 0001:00012278       ??$FindHandler@V__FrameHandler4@@@@YAXPEAUEHExceptionRecord@@PEA_KPEAU_CONTEXT@@PEAU_xDISPATCHER_CONTEXT@@PEAUFuncInfo4@FH4@@EH1@Z 0000000180013278 f   libvcruntime:frame.obj
 0001:00012774       ??$FindHandlerForForeignException@V__FrameHandler3@@@@YAXPEAUEHExceptionRecord@@PEA_KPEAU_CONTEXT@@PEAU_xDISPATCHER_CONTEXT@@PEBU_s_FuncInfo@@HH1@Z 0000000180013774 f   libvcruntime:frame.obj
 0001:00012990       ??$FindHandlerForForeignException@V__FrameHandler4@@@@YAXPEAUEHExceptionRecord@@PEA_KPEAU_CONTEXT@@PEAU_xDISPATCHER_CONTEXT@@PEAUFuncInfo4@FH4@@HH1@Z 0000000180013990 f   libvcruntime:frame.obj
 0001:00013b50       ?ExFilterRethrow@@YAHPEAU_EXCEPTION_POINTERS@@PEAUEHExceptionRecord@@PEAH@Z 0000000180014b50 f   libvcruntime:frame.obj
 0001:00013bd8       ?ExFilterRethrowFH4@@YAHPEAU_EXCEPTION_POINTERS@@PEAUEHExceptionRecord@@HPEAH@Z 0000000180014bd8 f   libvcruntime:frame.obj
 0001:00014128       ?IsInExceptionSpec@@YAEPEAUEHExceptionRecord@@PEBU_s_ESTypeList@@@Z 0000000180015128 f   libvcruntime:frame.obj
 0001:00014218       ?Is_bad_exception_allowed@@YAEPEBU_s_ESTypeList@@@Z 0000000180015218 f   libvcruntime:frame.obj
 0001:000144f4       ?try_get_function@@YAPEAXW4function_id@?A0xbc0cc709@@QEBDQEBW4module_id@2@2@Z 00000001800154f4 f   libvcruntime:winapi_downlevel.obj
 0001:000147e0       $$000000                   00000001800157e0     libvcruntime:handlers.obj
 0001:0001520c       ??$common_vsprintf@Vformat_validation_base@__crt_stdio_output@@_W@@YAH_KQEA_W0QEB_WAEAV__crt_cached_ptd_host@@QEAD@Z 000000018001620c f   libucrt:output.obj
 0001:0001795c       ??$?RV<lambda_d80eeec6fff315bfe5c115232f3240e3>@@AEAV<lambda_6e4b09c48022b2350581041d5f6b0c4c>@@V<lambda_2358e3775559c9db80273638284d5e45>@@@?$__crt_seh_guarded_call@X@@QEAAX$$QEAV<lambda_d80eeec6fff315bfe5c115232f3240e3>@@AEAV<lambda_6e4b09c48022b2350581041d5f6b0c4c>@@$$QEAV<lambda_2358e3775559c9db80273638284d5e45>@@@Z 000000018001895c f   libucrt:exit.obj
 0001:00017994       ??R<lambda_6e4b09c48022b2350581041d5f6b0c4c>@@QEBA@XZ 0000000180018994 f   libucrt:exit.obj
 0001:00017a60       ?common_exit@@YAXHW4_crt_exit_cleanup_mode@@W4_crt_exit_return_mode@@@Z 0000000180018a60 f   libucrt:exit.obj
 0001:00017b28       ?exit_or_terminate_process@@YAXI@Z 0000000180018b28 f   libucrt:exit.obj
 0001:00017b5c       ?should_call_terminate_process@@YA_NXZ 0000000180018b5c f   libucrt:exit.obj
 0001:00017b8c       ?try_cor_exit_process@@YAXI@Z 0000000180018b8c f   libucrt:exit.obj
 0001:00017c28       ??$parse_command_line@D@@YAXPEADPEAPEAD0PEA_K2@Z 0000000180018c28 f   libucrt:argv_parsing.obj
 0001:00017fd0       ??$common_initialize_environment_nolock@D@@YAHXZ 0000000180018fd0 f   libucrt:environment_initialization.obj
 0001:00018044       ??$create_environment@D@@YAQEAPEADQEAD@Z 0000000180019044 f   libucrt:environment_initialization.obj
 0001:00018154       ??$free_environment@D@@YAXQEAPEAD@Z 0000000180019154 f   libucrt:environment_initialization.obj
 0001:00018154       ??$free_environment@_W@@YAXQEAPEA_W@Z 0000000180019154 f   libucrt:environment_initialization.obj
 0001:00018198       ??$uninitialize_environment_internal@D@@YAXAEAPEAPEAD@Z 0000000180019198 f   libucrt:environment_initialization.obj
 0001:000181b4       ??$uninitialize_environment_internal@_W@@YAXAEAPEAPEA_W@Z 00000001800191b4 f   libucrt:environment_initialization.obj
 0001:0001821c       ??$?RV<lambda_638799b9deba96c50f710eeac98168cd>@@AEAV<lambda_22ebabd17bc4fa466a2aca6d8deb888d>@@V<lambda_a6f7d7db0129f75315ebf26d50c089f1>@@@?$__crt_seh_guarded_call@H@@QEAAH$$QEAV<lambda_638799b9deba96c50f710eeac98168cd>@@AEAV<lambda_22ebabd17bc4fa466a2aca6d8deb888d>@@$$QEAV<lambda_a6f7d7db0129f75315ebf26d50c089f1>@@@Z 000000018001921c f   libucrt:onexit.obj
 0001:00018258       ??$?RV<lambda_7777bce6b2f8c936911f934f8298dc43>@@AEAV<lambda_f03950bc5685219e0bcd2087efbe011e>@@V<lambda_3883c3dff614d5e0c5f61bb1ac94921c>@@@?$__crt_seh_guarded_call@H@@QEAAH$$QEAV<lambda_7777bce6b2f8c936911f934f8298dc43>@@AEAV<lambda_f03950bc5685219e0bcd2087efbe011e>@@$$QEAV<lambda_3883c3dff614d5e0c5f61bb1ac94921c>@@@Z 0000000180019258 f   libucrt:onexit.obj
 0001:00018294       ??R<lambda_22ebabd17bc4fa466a2aca6d8deb888d>@@QEBAHXZ 0000000180019294 f   libucrt:onexit.obj
 0001:00018444       ??R<lambda_f03950bc5685219e0bcd2087efbe011e>@@QEBAHXZ 0000000180019444 f   libucrt:onexit.obj
 0001:00018628       initialize_global_variables 0000000180019628 f   libucrt:initialization.obj
 0001:0001863c       initialize_c               000000018001963c f   libucrt:initialization.obj
 0001:00018660       initialize_environment     0000000180019660 f   libucrt:initialization.obj
 0001:00018660       initialize_global_state_isolation 0000000180019660 f   libucrt:initialization.obj
 0001:00018660       report_memory_leaks        0000000180019660 f   libucrt:initialization.obj
 0001:00018660       uninitialize_c             0000000180019660 f   libucrt:initialization.obj
 0001:00018660       uninitialize_global_state_isolation 0000000180019660 f   libucrt:initialization.obj
 0001:00018664       uninitialize_environment   0000000180019664 f   libucrt:initialization.obj
 0001:00018674       initialize_pointers        0000000180019674 f   libucrt:initialization.obj
 0001:000186b4       uninitialize_vcruntime     00000001800196b4 f   libucrt:initialization.obj
 0001:000186bc       uninitialize_allocated_memory 00000001800196bc f   libucrt:initialization.obj
 0001:000186fc       uninitialize_allocated_io_buffers 00000001800196fc f   libucrt:initialization.obj
 0001:000189c0       $$000000                   00000001800199c0     libucrt:strncmp.obj
 0001:00018ab8       ??$?RV<lambda_0ae27a3a962d80f24befdcbee591983d>@@AEAV<lambda_8d0ee55de4b1038c4002e0adecdf1839>@@V<lambda_dc504788e8f1664fe9b84e20bfb512f2>@@@?$__crt_seh_guarded_call@X@@QEAAX$$QEAV<lambda_0ae27a3a962d80f24befdcbee591983d>@@AEAV<lambda_8d0ee55de4b1038c4002e0adecdf1839>@@$$QEAV<lambda_dc504788e8f1664fe9b84e20bfb512f2>@@@Z 0000000180019ab8 f   libucrt:per_thread_data.obj
 0001:00018af8       ??$?RV<lambda_2d41944a1d46af3157314b8a01080d33>@@AEAV<lambda_8f455de75cd7d7f24b4096f044d8b9e6>@@V<lambda_aa500f224e6afead328df44964fe2772>@@@?$__crt_seh_guarded_call@X@@QEAAX$$QEAV<lambda_2d41944a1d46af3157314b8a01080d33>@@AEAV<lambda_8f455de75cd7d7f24b4096f044d8b9e6>@@$$QEAV<lambda_aa500f224e6afead328df44964fe2772>@@@Z 0000000180019af8 f   libucrt:per_thread_data.obj
 0001:00018b38       ??$?RV<lambda_aa87e3671a710a21b5dc78c0bdf72e11>@@AEAV<lambda_92619d2358a28f41a33ba319515a20b9>@@V<lambda_6992ecaafeb10aed2b74cb1fae11a551>@@@?$__crt_seh_guarded_call@X@@QEAAX$$QEAV<lambda_aa87e3671a710a21b5dc78c0bdf72e11>@@AEAV<lambda_92619d2358a28f41a33ba319515a20b9>@@$$QEAV<lambda_6992ecaafeb10aed2b74cb1fae11a551>@@@Z 0000000180019b38 f   libucrt:per_thread_data.obj
 0001:00018b80       ??$?RV<lambda_f2e299630e499de9f9a165e60fcd3db5>@@AEAV<lambda_2ae9d31cdba2644fcbeaf08da7c24588>@@V<lambda_40d01ff24d0e7b3814fdbdcee8eab3c7>@@@?$__crt_seh_guarded_call@X@@QEAAX$$QEAV<lambda_f2e299630e499de9f9a165e60fcd3db5>@@AEAV<lambda_2ae9d31cdba2644fcbeaf08da7c24588>@@$$QEAV<lambda_40d01ff24d0e7b3814fdbdcee8eab3c7>@@@Z 0000000180019b80 f   libucrt:per_thread_data.obj
 0001:00018be0       ?construct_ptd_array@@YAXQEAU__acrt_ptd@@@Z 0000000180019be0 f   libucrt:per_thread_data.obj
 0001:00018cb0       ?destroy_fls@@YAXPEAX@Z    0000000180019cb0 f   libucrt:per_thread_data.obj
 0001:00018cd0       ?destroy_ptd_array@@YAXQEAU__acrt_ptd@@@Z 0000000180019cd0 f   libucrt:per_thread_data.obj
 0001:00018dc8       ?replace_current_thread_locale_nolock@@YAXQEAU__acrt_ptd@@QEAU__crt_locale_data@@@Z 0000000180019dc8 f   libucrt:per_thread_data.obj
 0001:000191d4       ??$?RV<lambda_410d79af7f07d98d83a3f525b3859a53>@@AEAV<lambda_3e16ef9562a7dcce91392c22ab16ea36>@@V<lambda_38119f0e861e05405d8a144b9b982f0a>@@@?$__crt_seh_guarded_call@X@@QEAAX$$QEAV<lambda_410d79af7f07d98d83a3f525b3859a53>@@AEAV<lambda_3e16ef9562a7dcce91392c22ab16ea36>@@$$QEAV<lambda_38119f0e861e05405d8a144b9b982f0a>@@@Z 000000018001a1d4 f   libucrt:wsetlocale.obj
 0001:00019410       ?try_get_function@@YAPEAXW4function_id@?A0x391cf84c@@QEBDQEBW4module_id@2@2@Z 000000018001a410 f   libucrt:winapi_thunks.obj
 0001:00019bac       ?fp_format_a@@YAHQEBNPEAD_KQEAD2H_NIW4__acrt_rounding_mode@@AEAV__crt_cached_ptd_host@@@Z 000000018001abac f   libucrt:cvt.obj
 0001:00019f60       ?fp_format_e@@YAHQEBNQEAD_K12H_NIW4__acrt_rounding_mode@@AEAV__crt_cached_ptd_host@@@Z 000000018001af60 f   libucrt:cvt.obj
 0001:0001a05c       ?fp_format_e_internal@@YAHQEAD_KH_NIQEAU_strflt@@2AEAV__crt_cached_ptd_host@@@Z 000000018001b05c f   libucrt:cvt.obj
 0001:0001a240       ?fp_format_f@@YAHQEBNQEAD_K12HW4__acrt_rounding_mode@@AEAV__crt_cached_ptd_host@@@Z 000000018001b240 f   libucrt:cvt.obj
 0001:0001a318       ?fp_format_f_internal@@YAHQEAD_KHQEAU_strflt@@_NAEAV__crt_cached_ptd_host@@@Z 000000018001b318 f   libucrt:cvt.obj
 0001:0001a470       ?fp_format_g@@YAHQEBNQEAD_K12H_NIW4__acrt_rounding_mode@@AEAV__crt_cached_ptd_host@@@Z 000000018001b470 f   libucrt:cvt.obj
 0001:0001a5c4       ?should_round_up@@YA_NQEBN_KFW4__acrt_rounding_mode@@@Z 000000018001b5c4 f   libucrt:cvt.obj
 0001:0001ad10       ?initialize_inherited_file_handles_nolock@@YAXXZ 000000018001bd10 f   libucrt:ioinit.obj
 0001:0001ae00       ?initialize_stdio_handles_nolock@@YAXXZ 000000018001be00 f   libucrt:ioinit.obj
 0001:0001b078       ?<lambda_invoker_cdecl>@<lambda_a1ce4c8ae42411fd470c77163914f50e>@@CAHPEBX0@Z 000000018001c078 f   libucrt:argv_wildcards.obj
 0001:0001b394       ??$common_expand_argv_wildcards@D@@YAHQEAPEADQEAPEAPEAD@Z 000000018001c394 f   libucrt:argv_wildcards.obj
 0001:0001b5d8       ??$copy_and_add_argument_to_buffer@D@@YAHQEBD0_KAEAV?$argument_list@D@?A0x5f5c8891@@@Z 000000018001c5d8 f   libucrt:argv_wildcards.obj
 0001:0001b760       ??$expand_argument_wildcards@D@@YAHQEAD0AEAV?$argument_list@D@?A0x5f5c8891@@@Z 000000018001c760 f   libucrt:argv_wildcards.obj
 0001:0001bd94       ??$?RV<lambda_efdfa57d1f175319df784efa44bb7b81>@@AEAV<lambda_5f0a4c1567f8adc6734073e5d1e1b35c>@@V<lambda_2e8a7d3640ea6ccb4c2413664c2db6fd>@@@?$__crt_seh_guarded_call@X@@QEAAX$$QEAV<lambda_efdfa57d1f175319df784efa44bb7b81>@@AEAV<lambda_5f0a4c1567f8adc6734073e5d1e1b35c>@@$$QEAV<lambda_2e8a7d3640ea6ccb4c2413664c2db6fd>@@@Z 000000018001cd94 f   libucrt:mbctype.obj
 0001:0001bf64       ?getSystemCP@@YAHH@Z       000000018001cf64 f   libucrt:mbctype.obj
 0001:0001bfe4       ?setSBCS@@YAXPEAU__crt_multibyte_data@@@Z 000000018001cfe4 f   libucrt:mbctype.obj
 0001:0001c07c       ?setSBUpLow@@YAXPEAU__crt_multibyte_data@@@Z 000000018001d07c f   libucrt:mbctype.obj
 0001:0001c264       ?setmbcp_internal@@YAHH_NQEAU__acrt_ptd@@QEAPEAU__crt_multibyte_data@@@Z 000000018001d264 f   libucrt:mbctype.obj
 0001:0001c4d4       ?update_thread_multibyte_data_internal@@YAPEAU__crt_multibyte_data@@QEAU__acrt_ptd@@QEAPEAU1@@Z 000000018001d4d4 f   libucrt:mbctype.obj
 0001:0001c8c8       ?x_ismbbtype_l@@YAHPEAU__crt_locale_pointers@@IHH@Z 000000018001d8c8 f   libucrt:ismbbyte.obj
 0001:0001cc98       ??$?RV<lambda_450d765d439847d4c735a33c368b5fc0>@@AEAV<lambda_44731a7d0e6d81c3e6aa82d741081786>@@V<lambda_601a2a7da3b7a96e9554ac7215c4b07c>@@@?$__crt_seh_guarded_call@P6AXH@Z@@QEAAP6AXH@Z$$QEAV<lambda_450d765d439847d4c735a33c368b5fc0>@@AEAV<lambda_44731a7d0e6d81c3e6aa82d741081786>@@$$QEAV<lambda_601a2a7da3b7a96e9554ac7215c4b07c>@@@Z 000000018001dc98 f   libucrt:signal.obj
 0001:0001d010       ??$?RV<lambda_842d9ff0dc9ef11c61343bbaebe7f885>@@AEAV<lambda_c5860995281e5c4ce005b3de8f5874ee>@@V<lambda_d90129c13df834fdcbf8d2b88dafcf2d>@@@?$__crt_seh_guarded_call@X@@QEAAX$$QEAV<lambda_842d9ff0dc9ef11c61343bbaebe7f885>@@AEAV<lambda_c5860995281e5c4ce005b3de8f5874ee>@@$$QEAV<lambda_d90129c13df834fdcbf8d2b88dafcf2d>@@@Z 000000018001e010 f   libucrt:fflush.obj
 0001:0001d0ac       ??$?RV<lambda_886d6c58226a84441f68b9f2b8217b83>@@AEAV<lambda_ab61a845afdef5b7c387490eaf3616ee>@@V<lambda_f7f22ab5edc0698d5f6905b0d3f44752>@@@?$__crt_seh_guarded_call@X@@QEAAX$$QEAV<lambda_886d6c58226a84441f68b9f2b8217b83>@@AEAV<lambda_ab61a845afdef5b7c387490eaf3616ee>@@$$QEAV<lambda_f7f22ab5edc0698d5f6905b0d3f44752>@@@Z 000000018001e0ac f   libucrt:fflush.obj
 0001:0001d18c       ?common_flush_all@@YAH_N@Z 000000018001e18c f   libucrt:fflush.obj
 0001:0001d8d8       ?free_crt_array_internal@@YAXQEAPEBX_K@Z 000000018001e8d8 f   libucrt:inittime.obj
 0001:0001f4bc       memcpy_s                   00000001800204bc f   libucrt:cfout.obj
 0001:000200c0       fallbackMethod             00000001800210c0 f   libucrt:strpbrk.obj
 0001:0002046c       $LN78                      000000018002146c     libucrt:strpbrk.obj
 0001:000204a8       $LN77                      00000001800214a8     libucrt:strpbrk.obj
 0001:000204e8       $LN76                      00000001800214e8     libucrt:strpbrk.obj
 0001:000205c4       ?__acrt_LCMapStringA_stat@@YAHPEAU__crt_locale_pointers@@PEB_WKPEBDHPEADHHH@Z 00000001800215c4 f   libucrt:lcmapstringa.obj
 0001:0002097c       ?initialize_multibyte@@YAHXZ 000000018002197c f   libucrt:multibyte_initializer.obj
 0001:00020994       ??$?RV<lambda_a37b2b86f63e897a80ea819b0eb08c01>@@AEAV<lambda_38ce7e780aa69e748d6df282ebc68efe>@@V<lambda_99fb1378e971ab6e7edea83e3a7a83a2>@@@?$__crt_seh_guarded_call@H@@QEAAH$$QEAV<lambda_a37b2b86f63e897a80ea819b0eb08c01>@@AEAV<lambda_38ce7e780aa69e748d6df282ebc68efe>@@$$QEAV<lambda_99fb1378e971ab6e7edea83e3a7a83a2>@@@Z 0000000180021994 f   libucrt:commit.obj
 0001:00020ab4       ?write_double_translated_ansi_nolock@@YA?AUwrite_result@?A0x17268360@@HQEBDIAEAV__crt_cached_ptd_host@@@Z 0000000180021ab4 f   libucrt:write.obj
 0001:00020f40       ?write_text_ansi_nolock@@YA?AUwrite_result@?A0x17268360@@HQEBDI@Z 0000000180021f40 f   libucrt:write.obj
 0001:00021044       ?write_text_utf16le_nolock@@YA?AUwrite_result@?A0x17268360@@HQEBDI@Z 0000000180022044 f   libucrt:write.obj
 0001:00021160       ?write_text_utf8_nolock@@YA?AUwrite_result@?A0x17268360@@HQEBDI@Z 0000000180022160 f   libucrt:write.obj
 0001:00021940       $$000000                   0000000180022940     libucrt:log10.obj
 0001:000223dc       ?_fclose_internal@@YAHQEAU_iobuf@@AEAV__crt_cached_ptd_host@@@Z 00000001800233dc f   libucrt:fclose.obj
 0001:00022458       ?_fclose_nolock_internal@@YAHQEAU_iobuf@@AEAV__crt_cached_ptd_host@@@Z 0000000180023458 f   libucrt:fclose.obj
 0001:00022594       ??$common_lseek_nolock@_J@@YA_JH_JHAEAV__crt_cached_ptd_host@@@Z 0000000180023594 f   libucrt:lseek.obj
 0001:0002271c       common_control87           000000018002371c f   libucrt:ieee.obj
 0001:000229dc       _call_matherr              00000001800239dc f   libucrt:libm_error.obj
 0001:00022a44       _exception_enabled         0000000180023a44 f   libucrt:libm_error.obj
 0001:00022ce0       _log_special_common        0000000180023ce0 f   libucrt:log_special.obj
 0001:00022d78       ??$?RV<lambda_ad8af0d99a0adf03d037d7dffe354bb5>@@AEAV<lambda_c9ba49e555ba839a7b07aa3fbecb7617>@@V<lambda_2f1ebd5d68526518146ae959c9e734c8>@@@?$__crt_seh_guarded_call@H@@QEAAH$$QEAV<lambda_ad8af0d99a0adf03d037d7dffe354bb5>@@AEAV<lambda_c9ba49e555ba839a7b07aa3fbecb7617>@@$$QEAV<lambda_2f1ebd5d68526518146ae959c9e734c8>@@@Z 0000000180023d78 f   libucrt:close.obj
 0001:000230d0       $$000000                   00000001800240d0     libucrt:fpsr.obj
 0001:00023850       $$000000                   0000000180024850     LIBCMT:guard_dispatch.obj
 0001:00023870       $$000000                   0000000180024870     LIBCMT:guard_xfg_dispatch.obj
 0001:00023890       ?filt$0@?0??_AtlVerifyStackAvailable@_ATL_SAFE_ALLOCA_IMPL@ATL@@YA_N_K@Z@4HA 0000000180024890 f   CoinDispenser.obj
 0001:000238b1       __scrt_is_nonwritable_in_current_image$filt$0 00000001800248b1 f   LIBCMT:utility.obj
 0001:000238c9       ?catch$0@?0???2@YAPEAX_KAEBUnothrow_t@std@@@Z@4HA 00000001800248c9 f   LIBCMT:new_scalar_nothrow.obj
 0001:000238d6       __catch$??2@YAPEAX_KAEBUnothrow_t@std@@@Z$0 00000001800248d6 f   LIBCMT:new_scalar_nothrow.obj
 0001:000238e7       ?fin$0@?0??dllmain_crt_process_attach@@YAHQEAUHINSTANCE__@@QEAX@Z@4HA 00000001800248e7 f   LIBCMT:dll_dllmain.obj
 0001:000238fe       ?fin$0@?0??dllmain_crt_process_detach@@YAH_N@Z@4HA 00000001800248fe f   LIBCMT:dll_dllmain.obj
 0001:00023917       ?fin$1@?0??dllmain_crt_process_detach@@YAH_N@Z@4HA 0000000180024917 f   LIBCMT:dll_dllmain.obj
 0001:0002392b       ?filt$0@?0??dllmain_dispatch@@YAHQEAUHINSTANCE__@@KQEAX@Z@4HA 000000018002492b f   LIBCMT:dll_dllmain.obj
 0001:00023961       ?filt$0@?0???$_CallSETranslator@V__FrameHandler3@@@@YAHPEAUEHExceptionRecord@@PEA_KPEAU_CONTEXT@@PEAU_xDISPATCHER_CONTEXT@@PEBU_s_FuncInfo@@K1H@Z@4HA 0000000180024961 f   libvcruntime:risctrnsctrl.obj
 0001:000239f2       ?filt$0@?0???$_CallSETranslator@V__FrameHandler4@@@@YAHPEAUEHExceptionRecord@@PEA_KPEAU_CONTEXT@@PEAU_xDISPATCHER_CONTEXT@@PEAUFuncInfo4@FH4@@K1H@Z@4HA 00000001800249f2 f   libvcruntime:risctrnsctrl.obj
 0001:00023a91       __DestructExceptionObject$filt$0 0000000180024a91 f   libvcruntime:ehhelpers.obj
 0001:00023b27       ?filt$0@?0??CxxCallCatchBlock@__FrameHandler3@@SAPEAXPEAU_EXCEPTION_RECORD@@@Z@4HA 0000000180024b27 f   libvcruntime:frame.obj
 0001:00023b4c       ?fin$1@?0??CxxCallCatchBlock@__FrameHandler3@@SAPEAXPEAU_EXCEPTION_RECORD@@@Z@4HA 0000000180024b4c f   libvcruntime:frame.obj
 0001:00023bd2       ?filt$0@?0??CxxCallCatchBlock@__FrameHandler4@@SAPEAXPEAU_EXCEPTION_RECORD@@@Z@4HA 0000000180024bd2 f   libvcruntime:frame.obj
 0001:00023c01       ?fin$1@?0??CxxCallCatchBlock@__FrameHandler4@@SAPEAXPEAU_EXCEPTION_RECORD@@@Z@4HA 0000000180024c01 f   libvcruntime:frame.obj
 0001:00023c92       ?filt$0@?0??FrameUnwindToState@__FrameHandler3@@SAXPEA_KPEAU_xDISPATCHER_CONTEXT@@PEBU_s_FuncInfo@@H@Z@4HA 0000000180024c92 f   libvcruntime:frame.obj
 0001:00023ca8       ?fin$1@?0??FrameUnwindToState@__FrameHandler3@@SAXPEA_KPEAU_xDISPATCHER_CONTEXT@@PEBU_s_FuncInfo@@H@Z@4HA 0000000180024ca8 f   libvcruntime:frame.obj
 0001:00023ccb       ?filt$0@?0??FrameUnwindToState@__FrameHandler4@@SAXPEA_KPEAU_xDISPATCHER_CONTEXT@@PEAUFuncInfo4@FH4@@H@Z@4HA 0000000180024ccb f   libvcruntime:frame.obj
 0001:00023ce1       ?fin$1@?0??FrameUnwindToState@__FrameHandler4@@SAXPEA_KPEAU_xDISPATCHER_CONTEXT@@PEAUFuncInfo4@FH4@@H@Z@4HA 0000000180024ce1 f   libvcruntime:frame.obj
 0001:00023d04       ?fin$0@?0???$?RV<lambda_0ae27a3a962d80f24befdcbee591983d>@@AEAV<lambda_8d0ee55de4b1038c4002e0adecdf1839>@@V<lambda_dc504788e8f1664fe9b84e20bfb512f2>@@@?$__crt_seh_guarded_call@X@@QEAAX$$QEAV<lambda_0ae27a3a962d80f24befdcbee591983d>@@AEAV<lambda_8d0ee55de4b1038c4002e0adecdf1839>@@$$QEAV<lambda_dc504788e8f1664fe9b84e20bfb512f2>@@@Z@4HA 0000000180024d04 f   libucrt:per_thread_data.obj
 0001:00023d04       ?fin$0@?0???$?RV<lambda_2d41944a1d46af3157314b8a01080d33>@@AEAV<lambda_8f455de75cd7d7f24b4096f044d8b9e6>@@V<lambda_aa500f224e6afead328df44964fe2772>@@@?$__crt_seh_guarded_call@X@@QEAAX$$QEAV<lambda_2d41944a1d46af3157314b8a01080d33>@@AEAV<lambda_8f455de75cd7d7f24b4096f044d8b9e6>@@$$QEAV<lambda_aa500f224e6afead328df44964fe2772>@@@Z@4HA 0000000180024d04 f   libucrt:per_thread_data.obj
 0001:00023d04       ?fin$0@?0???$?RV<lambda_aa87e3671a710a21b5dc78c0bdf72e11>@@AEAV<lambda_92619d2358a28f41a33ba319515a20b9>@@V<lambda_6992ecaafeb10aed2b74cb1fae11a551>@@@?$__crt_seh_guarded_call@X@@QEAAX$$QEAV<lambda_aa87e3671a710a21b5dc78c0bdf72e11>@@AEAV<lambda_92619d2358a28f41a33ba319515a20b9>@@$$QEAV<lambda_6992ecaafeb10aed2b74cb1fae11a551>@@@Z@4HA 0000000180024d04 f   libucrt:per_thread_data.obj
 0001:00023d04       ?fin$0@?0???$?RV<lambda_f2e299630e499de9f9a165e60fcd3db5>@@AEAV<lambda_2ae9d31cdba2644fcbeaf08da7c24588>@@V<lambda_40d01ff24d0e7b3814fdbdcee8eab3c7>@@@?$__crt_seh_guarded_call@X@@QEAAX$$QEAV<lambda_f2e299630e499de9f9a165e60fcd3db5>@@AEAV<lambda_2ae9d31cdba2644fcbeaf08da7c24588>@@$$QEAV<lambda_40d01ff24d0e7b3814fdbdcee8eab3c7>@@@Z@4HA 0000000180024d04 f   libucrt:per_thread_data.obj
 0001:00023d04       ?fin$0@?0???$?RV<lambda_450d765d439847d4c735a33c368b5fc0>@@AEAV<lambda_44731a7d0e6d81c3e6aa82d741081786>@@V<lambda_601a2a7da3b7a96e9554ac7215c4b07c>@@@?$__crt_seh_guarded_call@P6AXH@Z@@QEAAP6AXH@Z$$QEAV<lambda_450d765d439847d4c735a33c368b5fc0>@@AEAV<lambda_44731a7d0e6d81c3e6aa82d741081786>@@$$QEAV<lambda_601a2a7da3b7a96e9554ac7215c4b07c>@@@Z@4HA 0000000180024d04 f   libucrt:signal.obj
 0001:00023d04       ?fin$0@?0???$?RV<lambda_d80eeec6fff315bfe5c115232f3240e3>@@AEAV<lambda_6e4b09c48022b2350581041d5f6b0c4c>@@V<lambda_2358e3775559c9db80273638284d5e45>@@@?$__crt_seh_guarded_call@X@@QEAAX$$QEAV<lambda_d80eeec6fff315bfe5c115232f3240e3>@@AEAV<lambda_6e4b09c48022b2350581041d5f6b0c4c>@@$$QEAV<lambda_2358e3775559c9db80273638284d5e45>@@@Z@4HA 0000000180024d04 f   libucrt:exit.obj
 0001:00023d04       ?fin$0@?0???$?RV<lambda_638799b9deba96c50f710eeac98168cd>@@AEAV<lambda_22ebabd17bc4fa466a2aca6d8deb888d>@@V<lambda_a6f7d7db0129f75315ebf26d50c089f1>@@@?$__crt_seh_guarded_call@H@@QEAAH$$QEAV<lambda_638799b9deba96c50f710eeac98168cd>@@AEAV<lambda_22ebabd17bc4fa466a2aca6d8deb888d>@@$$QEAV<lambda_a6f7d7db0129f75315ebf26d50c089f1>@@@Z@4HA 0000000180024d04 f   libucrt:onexit.obj
 0001:00023d04       ?fin$0@?0???$?RV<lambda_7777bce6b2f8c936911f934f8298dc43>@@AEAV<lambda_f03950bc5685219e0bcd2087efbe011e>@@V<lambda_3883c3dff614d5e0c5f61bb1ac94921c>@@@?$__crt_seh_guarded_call@H@@QEAAH$$QEAV<lambda_7777bce6b2f8c936911f934f8298dc43>@@AEAV<lambda_f03950bc5685219e0bcd2087efbe011e>@@$$QEAV<lambda_3883c3dff614d5e0c5f61bb1ac94921c>@@@Z@4HA 0000000180024d04 f   libucrt:onexit.obj
 0001:00023d1e       ?filt$0@?0???R<lambda_6e4b09c48022b2350581041d5f6b0c4c>@@QEBA@XZ@4HA 0000000180024d1e f   libucrt:exit.obj
 0001:00023d4b       _query_new_handler$fin$0   0000000180024d4b f   libucrt:new_handler.obj
 0001:00023d61       ?fin$0@?0???$?RV<lambda_410d79af7f07d98d83a3f525b3859a53>@@AEAV<lambda_3e16ef9562a7dcce91392c22ab16ea36>@@V<lambda_38119f0e861e05405d8a144b9b982f0a>@@@?$__crt_seh_guarded_call@X@@QEAAX$$QEAV<lambda_410d79af7f07d98d83a3f525b3859a53>@@AEAV<lambda_3e16ef9562a7dcce91392c22ab16ea36>@@$$QEAV<lambda_38119f0e861e05405d8a144b9b982f0a>@@@Z@4HA 0000000180024d61 f   libucrt:wsetlocale.obj
 0001:00023d7b       __acrt_initialize_lowio$fin$0 0000000180024d7b f   libucrt:ioinit.obj
 0001:00023d7b       __acrt_lowio_ensure_fh_exists$fin$0 0000000180024d7b f   libucrt:osfinfo.obj
 0001:00023d94       ?fin$0@?0???$?RV<lambda_efdfa57d1f175319df784efa44bb7b81>@@AEAV<lambda_5f0a4c1567f8adc6734073e5d1e1b35c>@@V<lambda_2e8a7d3640ea6ccb4c2413664c2db6fd>@@@?$__crt_seh_guarded_call@X@@QEAAX$$QEAV<lambda_efdfa57d1f175319df784efa44bb7b81>@@AEAV<lambda_5f0a4c1567f8adc6734073e5d1e1b35c>@@$$QEAV<lambda_2e8a7d3640ea6ccb4c2413664c2db6fd>@@@Z@4HA 0000000180024d94 f   libucrt:mbctype.obj
 0001:00023dae       ?fin$0@?0??update_thread_multibyte_data_internal@@YAPEAU__crt_multibyte_data@@QEAU__acrt_ptd@@QEAPEAU1@@Z@4HA 0000000180024dae f   libucrt:mbctype.obj
 0001:00023dc7       raise$fin$0                0000000180024dc7 f   libucrt:signal.obj
 0001:00023de8       ?fin$0@?0???$?RV<lambda_842d9ff0dc9ef11c61343bbaebe7f885>@@AEAV<lambda_c5860995281e5c4ce005b3de8f5874ee>@@V<lambda_d90129c13df834fdcbf8d2b88dafcf2d>@@@?$__crt_seh_guarded_call@X@@QEAAX$$QEAV<lambda_842d9ff0dc9ef11c61343bbaebe7f885>@@AEAV<lambda_c5860995281e5c4ce005b3de8f5874ee>@@$$QEAV<lambda_d90129c13df834fdcbf8d2b88dafcf2d>@@@Z@4HA 0000000180024de8 f   libucrt:fflush.obj
 0001:00023e03       ?fin$0@?0???$?RV<lambda_886d6c58226a84441f68b9f2b8217b83>@@AEAV<lambda_ab61a845afdef5b7c387490eaf3616ee>@@V<lambda_f7f22ab5edc0698d5f6905b0d3f44752>@@@?$__crt_seh_guarded_call@X@@QEAAX$$QEAV<lambda_886d6c58226a84441f68b9f2b8217b83>@@AEAV<lambda_ab61a845afdef5b7c387490eaf3616ee>@@$$QEAV<lambda_f7f22ab5edc0698d5f6905b0d3f44752>@@@Z@4HA 0000000180024e03 f   libucrt:fflush.obj
 0001:00023e20       __acrt_update_thread_locale_data$fin$0 0000000180024e20 f   libucrt:locale_refcounting.obj
 0001:00023e39       _fcloseall$fin$0           0000000180024e39 f   libucrt:closeall.obj
 0001:00023e52       ?fin$0@?0???$?RV<lambda_ad8af0d99a0adf03d037d7dffe354bb5>@@AEAV<lambda_c9ba49e555ba839a7b07aa3fbecb7617>@@V<lambda_2f1ebd5d68526518146ae959c9e734c8>@@@?$__crt_seh_guarded_call@H@@QEAAH$$QEAV<lambda_ad8af0d99a0adf03d037d7dffe354bb5>@@AEAV<lambda_c9ba49e555ba839a7b07aa3fbecb7617>@@$$QEAV<lambda_2f1ebd5d68526518146ae959c9e734c8>@@@Z@4HA 0000000180024e52 f   libucrt:close.obj
 0001:00023e52       ?fin$0@?0???$?RV<lambda_a37b2b86f63e897a80ea819b0eb08c01>@@AEAV<lambda_38ce7e780aa69e748d6df282ebc68efe>@@V<lambda_99fb1378e971ab6e7edea83e3a7a83a2>@@@?$__crt_seh_guarded_call@H@@QEAAH$$QEAV<lambda_a37b2b86f63e897a80ea819b0eb08c01>@@AEAV<lambda_38ce7e780aa69e748d6df282ebc68efe>@@$$QEAV<lambda_99fb1378e971ab6e7edea83e3a7a83a2>@@@Z@4HA 0000000180024e52 f   libucrt:commit.obj
 0001:00023e6c       _write_internal$fin$0      0000000180024e6c f   libucrt:write.obj
 0001:00023e83       ?fin$0@?0??_fclose_internal@@YAHQEAU_iobuf@@AEAV__crt_cached_ptd_host@@@Z@4HA 0000000180024e83 f   libucrt:fclose.obj
 0001:00023e9b       _ctrlfp$filt$0             0000000180024e9b f   libucrt:fpctrl.obj
 0001:00023e9b       common_control87$filt$0    0000000180024e9b f   libucrt:ieee.obj
 0001:00023ed0       _IsNonwritableInCurrentImage$filt$0 0000000180024ed0 f   LIBCMT:pesect.obj
 0001:00023ef0       ??__F_AtlComModule@ATL@@YAXXZ 0000000180024ef0 f   OposVariant.obj
 0001:00023efc       ??__F_AtlWinModule@ATL@@YAXXZ 0000000180024efc f   OposVariant.obj
 0001:00023f40       ??__F_Module@@YAXXZ        0000000180024f40 f   CoinDispenser.obj
 0001:00023f5c       ??__F_AtlBaseModule@ATL@@YAXXZ 0000000180024f5c f   atls:atlbase.obj
 0002:00000670       ?_AtlBaseModule$initializer$@ATL@@3P6AXXZEA 0000000180025670     atls:atlbase.obj
 0002:00000678       ?_AtlComModule$initializer$@ATL@@3P6AXXZEA 0000000180025678     OposVariant.obj
 0002:00000680       ?_AtlWinModule$initializer$@ATL@@3P6AXXZEA 0000000180025680     OposVariant.obj
 0002:00000688       ?_Module$initializer$@@3P6AXXZEA 0000000180025688     CoinDispenser.obj
 0002:00000690       ??pConnMap$initializer$@?$IConnectionPointContainerImpl@VCOPOSCoinDispenser@@@ATL@@0P6AXXZEA@@3P6AXXZEA 0000000180025690     CoinDispenser.obj
 0002:000006a8       ?__scrt_initialize_tss_var@@3P6AHXZEA 00000001800256a8     LIBCMT:thread_safe_statics.obj
 0002:00002618       GS_ExceptionPointers       0000000180027618     LIBCMT:gs_report.obj
 0002:00002800       ?ExceptionTemplate@?1??UnwindNestedFrames@__FrameHandler4@@SAXPEA_KPEAUEHExceptionRecord@@PEAU_CONTEXT@@0PEAXPEAUFuncInfo4@FH4@@HHPEAUHandlerType4@6@PEAU_xDISPATCHER_CONTEXT@@E@Z@4U_EXCEPTION_RECORD@@B 0000000180027800     libvcruntime:risctrnsctrl.obj
 0002:000028a0       ?ExceptionTemplate@?1??UnwindNestedFrames@__FrameHandler3@@SAXPEA_KPEAUEHExceptionRecord@@PEAU_CONTEXT@@0PEAXPEBU_s_FuncInfo@@HHPEBU_s_HandlerType@@PEAU_xDISPATCHER_CONTEXT@@E@Z@4U_EXCEPTION_RECORD@@B 00000001800278a0     libvcruntime:risctrnsctrl.obj
 0002:00002970       ?tokenTable@@3QBUStringLiteral@@B 0000000180027970     libvcruntime:undname.obj
 0002:00002a80       ?nameTable@@3QBUStringLiteral@@B 0000000180027a80     libvcruntime:undname.obj
 0002:00002fb0       ?rttiTable@@3QBUStringLiteral@@B 0000000180027fb0     libvcruntime:undname.obj
 0002:00003000       ?IndirectionName@@3QBUStringLiteral@@B 0000000180028000     libvcruntime:undname.obj
 0002:00003060       ?PrefixName@@3QBUStringLiteral@@B 0000000180028060     libvcruntime:undname.obj
 0002:00003748       ?module_names@?A0xbc0cc709@@3QBQEB_WB 0000000180028748     libvcruntime:winapi_downlevel.obj
 0002:00003808       ?candidate_modules@?1??try_get_FlsAlloc@@YAP6AKP6AXPEAX@Z@ZXZ@4QBW4module_id@?A0xbc0cc709@@B 0000000180028808     libvcruntime:winapi_downlevel.obj
 0002:00003820       ?candidate_modules@?1??try_get_FlsFree@@YAP6AHK@ZXZ@4QBW4module_id@?A0xbc0cc709@@B 0000000180028820     libvcruntime:winapi_downlevel.obj
 0002:00003830       ?candidate_modules@?1??try_get_FlsGetValue@@YAP6APEAXK@ZXZ@4QBW4module_id@?A0xbc0cc709@@B 0000000180028830     libvcruntime:winapi_downlevel.obj
 0002:00003848       ?candidate_modules@?1??try_get_FlsSetValue@@YAP6AHKPEAX@ZXZ@4QBW4module_id@?A0xbc0cc709@@B 0000000180028848     libvcruntime:winapi_downlevel.obj
 0002:00003860       ?candidate_modules@?1??try_get_InitializeCriticalSectionEx@@YAP6AHPEAU_RTL_CRITICAL_SECTION@@KK@ZXZ@4QBW4module_id@?A0xbc0cc709@@B 0000000180028860     libvcruntime:winapi_downlevel.obj
 0002:00003890       ?errtable@@3QBUerrentry@?A0x31fdb9ec@@B 0000000180028890     libucrt:errno.obj
 0002:00003bf8       $cppxdata$?try_cor_exit_process@@YAXI@Z 0000000180028bf8     libucrt:exit.obj
 0002:00003c20       $cppxdata$?common_exit@@YAXHW4_crt_exit_cleanup_mode@@W4_crt_exit_return_mode@@@Z 0000000180028c20     libucrt:exit.obj
 0002:00003c70       $cppxdata$__dcrt_uninitialize_environments_nolock 0000000180028c70     libucrt:environment_initialization.obj
 0002:00003c98       $cppxdata$_execute_onexit_table 0000000180028c98     libucrt:onexit.obj
 0002:00003cc0       __acrt_initializers        0000000180028cc0     libucrt:initialization.obj
 0002:00004440       ?module_names@?A0x391cf84c@@3QBQEB_WB 0000000180029440     libucrt:winapi_thunks.obj
 0002:00004948       ?candidate_modules@?1??try_get_AreFileApisANSI@@YAP6AHXZXZ@4QBW4module_id@?A0x391cf84c@@B 0000000180029948     libucrt:winapi_thunks.obj
 0002:00004960       ?candidate_modules@?1??try_get_InitializeCriticalSectionEx@@YAP6AHPEAU_RTL_CRITICAL_SECTION@@KK@ZXZ@4QBW4module_id@?A0x391cf84c@@B 0000000180029960     libucrt:winapi_thunks.obj
 0002:00004968       ?candidate_modules@?1??try_get_LCMapStringEx@@YAP6AHPEB_WK0HPEA_WHPEAU_nlsversioninfo@@PEAX_J@ZXZ@4QBW4module_id@?A0x391cf84c@@B 0000000180029968     libucrt:winapi_thunks.obj
 0002:00004980       ?candidate_modules@?1??try_get_LocaleNameToLCID@@YAP6AKPEB_WK@ZXZ@4QBW4module_id@?A0x391cf84c@@B 0000000180029980     libucrt:winapi_thunks.obj
 0002:0000499c       ?candidate_modules@?1??try_get_AppPolicyGetProcessTerminationMethod@@YAP6AJPEAXPEAW4AppPolicyProcessTerminationMethod@@@ZXZ@4QBW4module_id@?A0x391cf84c@@B 000000018002999c     libucrt:winapi_thunks.obj
 0002:000049c8       ?candidate_modules@?1??try_get_SetThreadStackGuarantee@@YAP6AHPEAK@ZXZ@4QBW4module_id@?A0x391cf84c@@B 00000001800299c8     libucrt:winapi_thunks.obj
 0002:000049f0       ?strings@?1??fp_format_nan_or_infinity@@YAHW4__acrt_fp_class@@_NPEAD_K1@Z@4QAY03QEBDA 00000001800299f0     libucrt:cvt.obj
 0002:00004ac8       ?_mb_locale_names@@3QBQEB_WB 0000000180029ac8     libucrt:mbctype.obj
 0002:00005140       ?LcidToLocaleNameTable@?A0x881e4c05@@3QBULcidToLocaleName@1@B 000000018002a140     libucrt:lcidtoname_downlevel.obj
 0002:00006b90       ?LocaleNameToIndexTable@?A0x881e4c05@@3QBULocaleNameIndex@1@B 000000018002bb90     libucrt:lcidtoname_downlevel.obj
 0002:00008e20       $cppxdata$?write_double_translated_ansi_nolock@@YA?AUwrite_result@?A0x17268360@@HQEBDIAEAV__crt_cached_ptd_host@@@Z 000000018002de20     libucrt:write.obj
 0002:00008e50       __real_ninf                000000018002de50     libucrt:log10.obj
 0002:00008e60       __real_inf                 000000018002de60     libucrt:log10.obj
 0002:00008e70       __real_neg_qnan            000000018002de70     libucrt:log10.obj
 0002:00008e80       __real_qnanbit             000000018002de80     libucrt:log10.obj
 0002:00008e90       __int_1023                 000000018002de90     libucrt:log10.obj
 0002:00008ea0       __mask_001                 000000018002dea0     libucrt:log10.obj
 0002:00008eb0       __mask_mant                000000018002deb0     libucrt:log10.obj
 0002:00008ec0       __mask_mant_top8           000000018002dec0     libucrt:log10.obj
 0002:00008ed0       __mask_mant9               000000018002ded0     libucrt:log10.obj
 0002:00008ee0       __real_log10_e             000000018002dee0     libucrt:log10.obj
 0002:00008ef0       __real_log10_e_lead        000000018002def0     libucrt:log10.obj
 0002:00008f00       __real_log10_e_tail        000000018002df00     libucrt:log10.obj
 0002:00008f10       __real_log10_2_lead        000000018002df10     libucrt:log10.obj
 0002:00008f20       __real_log10_2_tail        000000018002df20     libucrt:log10.obj
 0002:00008f30       __real_two                 000000018002df30     libucrt:log10.obj
 0002:00008f40       __real_one                 000000018002df40     libucrt:log10.obj
 0002:00008f50       __real_half                000000018002df50     libucrt:log10.obj
 0002:00008f60       __mask_100                 000000018002df60     libucrt:log10.obj
 0002:00008f70       __real_1_over_512          000000018002df70     libucrt:log10.obj
 0002:00008f80       __real_1_over_2            000000018002df80     libucrt:log10.obj
 0002:00008f90       __real_1_over_3            000000018002df90     libucrt:log10.obj
 0002:00008fa0       __real_1_over_4            000000018002dfa0     libucrt:log10.obj
 0002:00008fb0       __real_1_over_5            000000018002dfb0     libucrt:log10.obj
 0002:00008fc0       __real_1_over_6            000000018002dfc0     libucrt:log10.obj
 0002:00008fd0       __real_neg_1023            000000018002dfd0     libucrt:log10.obj
 0002:00008fe0       __mask_2045                000000018002dfe0     libucrt:log10.obj
 0002:00008ff0       __real_threshold           000000018002dff0     libucrt:log10.obj
 0002:00009000       __real_near_one_lt         000000018002e000     libucrt:log10.obj
 0002:00009010       __real_near_one_gt         000000018002e010     libucrt:log10.obj
 0002:00009020       __real_min_norm            000000018002e020     libucrt:log10.obj
 0002:00009030       __real_notsign             000000018002e030     libucrt:log10.obj
 0002:00009040       __real_ca1                 000000018002e040     libucrt:log10.obj
 0002:00009050       __real_ca2                 000000018002e050     libucrt:log10.obj
 0002:00009060       __real_ca3                 000000018002e060     libucrt:log10.obj
 0002:00009070       __real_ca4                 000000018002e070     libucrt:log10.obj
 0002:00009080       __mask_lower               000000018002e080     libucrt:log10.obj
 0002:00009090       __flag_x_zero              000000018002e090     libucrt:log10.obj
 0002:00009094       __flag_x_neg               000000018002e094     libucrt:log10.obj
 0002:00009098       __flag_x_nan               000000018002e098     libucrt:log10.obj
 0002:0000a8f0       __real@433fffffffffffff    000000018002f8f0     libucrt:fpsr.obj
 0002:0000a8f8       __real@c33fffffffffffff    000000018002f8f8     libucrt:fpsr.obj
 0002:0000b250       $unwind$?cw_memcpy@@YAHPEA_WPEBDH@Z 0000000180030250     CWString.obj
 0002:0000b250       $unwind$_invalid_parameter_noinfo 0000000180030250     libucrt:invalid_parameter.obj
 0002:0000b250       $unwind$?state_case_size@?$output_processor@_WV?$string_output_adapter@_W@__crt_stdio_output@@V?$format_validation_base@_WV?$string_output_adapter@_W@__crt_stdio_output@@@2@@__crt_stdio_output@@AEAA_NXZ 0000000180030250     libucrt:output.obj
 0002:0000b250       $unwind$_log10_special     0000000180030250     libucrt:log_special.obj
 0002:0000b258       $unwind$?cw_strcpy@@YAHPEA_WPEBD@Z 0000000180030258     CWString.obj
 0002:0000b258       $unwind$??__E?pConnMap@?$IConnectionPointContainerImpl@VCOPOSCoinDispenser@@@ATL@@0PEBU_ATL_CONNMAP_ENTRY@2@EB@@YAXXZ 0000000180030258     CoinDispenser.obj
 0002:0000b258       $unwind$?AddReplacement@CRegObject@ATL@@UEAAJPEB_W0@Z 0000000180030258     CoinDispenser.obj
 0002:0000b258       $unwind$?AtlHresultFromLastError@ATL@@YAJXZ 0000000180030258     CoinDispenser.obj
 0002:0000b258       $unwind$?AtlThrowImpl@ATL@@YAXJ@Z 0000000180030258     CoinDispenser.obj
 0002:0000b258       $unwind$?CreateInstance@CComClassFactory@ATL@@UEAAJPEAUIUnknown@@AEBU_GUID@@PEAPEAX@Z 0000000180030258     CoinDispenser.obj
 0002:0000b258       $unwind$?DefaultReflectionHandler@?$CWindowImplRoot@VCWindow@ATL@@@ATL@@SAHPEAUHWND__@@I_K_JAEA_J@Z 0000000180030258     CoinDispenser.obj
 0002:0000b258       $unwind$?EnumAdvise@?$IOleObjectImpl@VCOPOSCoinDispenser@@@ATL@@UEAAJPEAPEAUIEnumSTATDATA@@@Z 0000000180030258     CoinDispenser.obj
 0002:0000b258       $unwind$?FireViewChange@CComControlBase@ATL@@QEAAJXZ 0000000180030258     CoinDispenser.obj
 0002:0000b258       $unwind$?GetAdvise@?$IViewObjectExImpl@VCOPOSCoinDispenser@@@ATL@@UEAAJPEAK0PEAPEAUIAdviseSink@@@Z 0000000180030258     CoinDispenser.obj
 0002:0000b258       $unwind$?LockServer@CComClassFactory@ATL@@UEAAJH@Z 0000000180030258     CoinDispenser.obj
 0002:0000b258       $unwind$?OnDocWindowActivate@?$IOleInPlaceActiveObjectImpl@VCOPOSCoinDispenser@@@ATL@@UEAAJH@Z 0000000180030258     CoinDispenser.obj
 0002:0000b258       $unwind$?Unadvise@?$IOleObjectImpl@VCOPOSCoinDispenser@@@ATL@@UEAAJK@Z 0000000180030258     CoinDispenser.obj
 0002:0000b258       $unwind$?_LocCPQueryInterface@?$IConnectionPointImpl@VCOPOSCoinDispenser@@$1?DIID__IOPOSCoinDispenserEvents@@3U_GUID@@BVCComDynamicUnkArray@ATL@@@ATL@@UEAAJAEBU_GUID@@PEAPEAX@Z 0000000180030258     CoinDispenser.obj
 0002:0000b258       $unwind$?_LocCPQueryInterface@?$IConnectionPointImpl@VCOPOSCoinDispenser@@$1?IID_IPropertyNotifySink@@3U_GUID@@BVCComDynamicUnkArray@ATL@@@ATL@@UEAAJAEBU_GUID@@PEAPEAX@Z 0000000180030258     CoinDispenser.obj
 0002:0000b258       $unwind$?FinalConstruct@COPOSCoinDispenser@@QEAAJXZ 0000000180030258     CoinDispenserImpl.obj
 0002:0000b258       $unwind$?get_ResultCode@COPOSCoinDispenser@@UEAAJPEAJ@Z 0000000180030258     CoinDispenserImpl.obj
 0002:0000b258       $unwind$?get_State@COPOSCoinDispenser@@UEAAJPEAJ@Z 0000000180030258     CoinDispenserImpl.obj
 0002:0000b258       $unwind$??1OposDispParms@@QEAA@XZ 0000000180030258     OposVariant.obj
 0002:0000b258       $unwind$??__E_AtlComModule@ATL@@YAXXZ 0000000180030258     OposVariant.obj
 0002:0000b258       $unwind$??__E_AtlWinModule@ATL@@YAXXZ 0000000180030258     OposVariant.obj
 0002:0000b258       $unwind$??__F_AtlWinModule@ATL@@YAXXZ 0000000180030258     OposVariant.obj
 0002:0000b258       $unwind$?GetLONG@OposVariant@@QEAAJXZ 0000000180030258     OposVariant.obj
 0002:0000b258       $unwind$__dcrt_terminate_console_output 0000000180030258     libucrt:initcon.obj
 0002:0000b258       $unwind$??$uninitialize_environment_internal@D@@YAXAEAPEAPEAD@Z 0000000180030258     libucrt:environment_initialization.obj
 0002:0000b258       $unwind$??$uninitialize_environment_internal@_W@@YAXAEAPEAPEA_W@Z 0000000180030258     libucrt:environment_initialization.obj
 0002:0000b258       $unwind$__acrt_initialize_heap 0000000180030258     libucrt:heap_handle.obj
 0002:0000b258       $unwind$_msize_base        0000000180030258     libucrt:msize.obj
 0002:0000b258       $unwind$?initialize_multibyte@@YAHXZ 0000000180030258     libucrt:multibyte_initializer.obj
 0002:0000b258       $unwind$__acrt_thread_attach 0000000180030258     libucrt:initialization.obj
 0002:0000b258       $unwind$__acrt_thread_detach 0000000180030258     libucrt:initialization.obj
 0002:0000b258       $unwind$__acrt_uninitialize 0000000180030258     libucrt:initialization.obj
 0002:0000b258       $unwind$__acrt_uninitialize_critical 0000000180030258     libucrt:initialization.obj
 0002:0000b258       $unwind$initialize_c       0000000180030258     libucrt:initialization.obj
 0002:0000b258       $unwind$uninitialize_allocated_io_buffers 0000000180030258     libucrt:initialization.obj
 0002:0000b258       $unwind$uninitialize_environment 0000000180030258     libucrt:initialization.obj
 0002:0000b258       $unwind$__acrt_initialize_ptd 0000000180030258     libucrt:per_thread_data.obj
 0002:0000b258       $unwind$__acrt_uninitialize_ptd 0000000180030258     libucrt:per_thread_data.obj
 0002:0000b258       $unwind$__acrt_AreFileApisANSI 0000000180030258     libucrt:winapi_thunks.obj
 0002:0000b258       $unwind$__acrt_release_locale_ref 0000000180030258     libucrt:locale_refcounting.obj
 0002:0000b258       $unwind$_isatty            0000000180030258     libucrt:isatty.obj
 0002:0000b258       $unwind$_get_osfhandle     0000000180030258     libucrt:osfinfo.obj
 0002:0000b258       $unwind$__acrt_initialize_multibyte 0000000180030258     libucrt:mbctype.obj
 0002:0000b258       $unwind$__acrt_update_thread_multibyte_data 0000000180030258     libucrt:mbctype.obj
 0002:0000b258       $unwind$__doserrno         0000000180030258     libucrt:errno.obj
 0002:0000b258       $unwind$_errno             0000000180030258     libucrt:errno.obj
 0002:0000b258       $unwind$_invoke_watson     0000000180030258     libucrt:invalid_parameter.obj
 0002:0000b258       $unwind$abort              0000000180030258     libucrt:abort.obj
 0002:0000b258       $unwind$__acrt_initialize_command_line 0000000180030258     libucrt:argv_data.obj
 0002:0000b258       $unwind$?should_call_terminate_process@@YA_NXZ 0000000180030258     libucrt:exit.obj
 0002:0000b258       $unwind$_fileno            0000000180030258     libucrt:fileno.obj
 0002:0000b258       $unwind$_statfp            0000000180030258     libucrt:fpctrl.obj
 0002:0000b258       $unwind$fegetround         0000000180030258     libucrt:fegetround.obj
 0002:0000b258       $unwind$_set_errno_from_matherr 0000000180030258     libucrt:fpexcept.obj
 0002:0000b258       $unwind$??__E_AtlBaseModule@ATL@@YAXXZ 0000000180030258     atls:atlbase.obj
 0002:0000b258       $unwind$__scrt_initialize_default_local_stdio_options 0000000180030258     LIBCMT:default_local_stdio_options.obj
 0002:0000b258       $unwind$?dllmain_crt_dispatch@@YAHQEAUHINSTANCE__@@KQEAX@Z 0000000180030258     LIBCMT:dll_dllmain.obj
 0002:0000b258       $unwind$__report_rangecheckfailure 0000000180030258     LIBCMT:gs_report.obj
 0002:0000b258       $unwind$__GSHandlerCheck   0000000180030258     LIBCMT:gshandler.obj
 0002:0000b258       $unwind$?__scrt_uninitialize_thread_safe_statics@@YAXXZ 0000000180030258     LIBCMT:thread_safe_statics.obj
 0002:0000b258       $unwind$_Init_thread_notify 0000000180030258     LIBCMT:thread_safe_statics.obj
 0002:0000b258       $unwind$__scrt_acquire_startup_lock 0000000180030258     LIBCMT:utility.obj
 0002:0000b258       $unwind$__scrt_dllmain_after_initialize_c 0000000180030258     LIBCMT:utility.obj
 0002:0000b258       $unwind$__scrt_dllmain_before_initialize_c 0000000180030258     LIBCMT:utility.obj
 0002:0000b258       $unwind$__scrt_dllmain_crt_thread_attach 0000000180030258     LIBCMT:utility.obj
 0002:0000b258       $unwind$__scrt_dllmain_crt_thread_detach 0000000180030258     LIBCMT:utility.obj
 0002:0000b258       $unwind$__scrt_dllmain_uninitialize_c 0000000180030258     LIBCMT:utility.obj
 0002:0000b258       $unwind$__scrt_dllmain_uninitialize_critical 0000000180030258     LIBCMT:utility.obj
 0002:0000b258       $unwind$atexit             0000000180030258     LIBCMT:utility.obj
 0002:0000b258       $unwind$__std_terminate    0000000180030258     libvcruntime:ehhelpers.obj
 0002:0000b258       $unwind$?GetCurrentState@__FrameHandler3@@SAHPEA_KPEAU_xDISPATCHER_CONTEXT@@PEBU_s_FuncInfo@@@Z 0000000180030258     libvcruntime:ehstate.obj
 0002:0000b258       $unwind$__vcrt_initialize  0000000180030258     libvcruntime:initialization.obj
 0002:0000b258       $unwind$__vcrt_thread_attach 0000000180030258     libvcruntime:initialization.obj
 0002:0000b258       $unwind$__vcrt_thread_detach 0000000180030258     libvcruntime:initialization.obj
 0002:0000b258       $unwind$__vcrt_uninitialize 0000000180030258     libvcruntime:initialization.obj
 0002:0000b258       $unwind$__vcrt_uninitialize_critical 0000000180030258     libvcruntime:initialization.obj
 0002:0000b258       $unwind$__vcrt_freefls     0000000180030258     libvcruntime:per_thread_data.obj
 0002:0000b258       $unwind$__vcrt_getptd      0000000180030258     libvcruntime:per_thread_data.obj
 0002:0000b258       $unwind$__vcrt_initialize_ptd 0000000180030258     libvcruntime:per_thread_data.obj
 0002:0000b258       $unwind$__vcrt_uninitialize_ptd 0000000180030258     libvcruntime:per_thread_data.obj
 0002:0000b258       $unwind$_purecall          0000000180030258     libvcruntime:purevirt.obj
 0002:0000b258       $unwind$?FrameUnwindToEmptyState@__FrameHandler4@@SAXPEA_KPEAU_xDISPATCHER_CONTEXT@@PEAUFuncInfo4@FH4@@@Z 0000000180030258     libvcruntime:risctrnsctrl.obj
 0002:0000b258       $unwind$_GetImageBase      0000000180030258     libvcruntime:risctrnsctrl.obj
 0002:0000b258       $unwind$_GetThrowImageBase 0000000180030258     libvcruntime:risctrnsctrl.obj
 0002:0000b260       $unwind$?cw_dup@@YAXPEBDAEAHAEAPEA_W1@Z 0000000180030260     CWString.obj
 0002:0000b260       $unwind$?DAdvise@?$IDataObjectImpl@VCOPOSCoinDispenser@@@ATL@@UEAAJPEAUtagFORMATETC@@KPEAUIAdviseSink@@PEAK@Z 0000000180030260     CoinDispenser.obj
 0002:0000b260       $unwind$??$create_environment@D@@YAQEAPEADQEAD@Z 0000000180030260     libucrt:environment_initialization.obj
 0002:0000b260       $unwind$_mbtowc_internal   0000000180030260     libucrt:mbtowc.obj
 0002:0000b260       $unwind$??$__acrt_convert_wcs_mbs_cp@D_WV<lambda_7c9dea7b4ca7285d2cdb541a38da6275>@@U__crt_win32_buffer_internal_dynamic_resizing@@@@YAHQEBDAEAV?$__crt_win32_buffer@_WU__crt_win32_buffer_internal_dynamic_resizing@@@@AEBV<lambda_7c9dea7b4ca7285d2cdb541a38da6275>@@I@Z 0000000180030260     libucrt:argv_wildcards.obj
 0002:0000b260       $unwind$?process@?$output_processor@_WV?$string_output_adapter@_W@__crt_stdio_output@@V?$format_validation_base@_WV?$string_output_adapter@_W@__crt_stdio_output@@@2@@__crt_stdio_output@@QEAAHXZ 0000000180030260     libucrt:output.obj
 0002:0000b278       $unwind$?DupWide@_CW@@AEAAXXZ 0000000180030278     CWString.obj
 0002:0000b278       $unwind$??0?$CComObject@VCOPOSCoinDispenser@@@ATL@@QEAA@PEAX@Z 0000000180030278     CoinDispenser.obj
 0002:0000b278       $unwind$??0CAtlModule@ATL@@QEAA@XZ 0000000180030278     CoinDispenser.obj
 0002:0000b278       $unwind$??1?$CComObject@VCOPOSCoinDispenser@@@ATL@@UEAA@XZ 0000000180030278     CoinDispenser.obj
 0002:0000b278       $unwind$??__E_Module@@YAXXZ 0000000180030278     CoinDispenser.obj
 0002:0000b278       $unwind$?AddRef@?$CComObjectCached@VCComClassFactory@ATL@@@ATL@@UEAAKXZ 0000000180030278     CoinDispenser.obj
 0002:0000b278       $unwind$?AllocateHeap@?$CTempBuffer@E$0BAA@VCCRTAllocator@ATL@@@ATL@@AEAAX_K@Z 0000000180030278     CoinDispenser.obj
 0002:0000b278       $unwind$?AllocateHeap@?$CTempBuffer@_W$0BAA@VCCRTAllocator@ATL@@@ATL@@AEAAX_K@Z 0000000180030278     CoinDispenser.obj
 0002:0000b278       $unwind$?AllocateHeap@?$CTempBuffer@_W$0EAA@VCCRTAllocator@ATL@@@ATL@@AEAAX_K@Z 0000000180030278     CoinDispenser.obj
 0002:0000b278       $unwind$?GetClassInfoW@?$IProvideClassInfo2Impl@$1?CLSID_OPOSCoinDispenser@@3U_GUID@@B$1?DIID__IOPOSCoinDispenserEvents@@3U2@B$1?LIBID_OposCoinDispenser_CCO@@3U2@B$00$0A@VCComTypeInfoHolder@ATL@@@ATL@@UEAAJPEAPEAUITypeInfo@@@Z 0000000180030278     CoinDispenser.obj
 0002:0000b278       $unwind$?GetClientSite@?$IOleObjectImpl@VCOPOSCoinDispenser@@@ATL@@UEAAJPEAPEAUIOleClientSite@@@Z 0000000180030278     CoinDispenser.obj
 0002:0000b278       $unwind$?GetConnMap@COPOSCoinDispenser@@SAPEBU_ATL_CONNMAP_ENTRY@ATL@@PEAH@Z 0000000180030278     CoinDispenser.obj
 0002:0000b278       $unwind$?GetTypeInfo@?$IDispatchImpl@UIOPOSCoinDispenser@@$1?IID_IOPOSCoinDispenser@@3U_GUID@@B$1?LIBID_OposCoinDispenser_CCO@@3U3@B$00$0A@VCComTypeInfoHolder@ATL@@@ATL@@UEAAJIKPEAPEAUITypeInfo@@@Z 0000000180030278     CoinDispenser.obj
 0002:0000b278       $unwind$?IOleInPlaceObject_InPlaceDeactivate@CComControlBase@ATL@@QEAAJXZ 0000000180030278     CoinDispenser.obj
 0002:0000b278       $unwind$?IOleObject_SetExtent@CComControlBase@ATL@@QEAAJKPEAUtagSIZE@@@Z 0000000180030278     CoinDispenser.obj
 0002:0000b278       $unwind$?IsEqualObject@?$CComPtrBase@UIOleClientSite@@@ATL@@QEAA_NPEAUIUnknown@@@Z 0000000180030278     CoinDispenser.obj
 0002:0000b278       $unwind$?QueryHitPoint@?$IViewObjectExImpl@VCOPOSCoinDispenser@@@ATL@@UEAAJKPEBUtagRECT@@UtagPOINT@@JPEAK@Z 0000000180030278     CoinDispenser.obj
 0002:0000b278       $unwind$?QueryInterface@?$CComAggObject@VCOPOSCoinDispenser@@@ATL@@UEAAJAEBU_GUID@@PEAPEAX@Z 0000000180030278     CoinDispenser.obj
 0002:0000b278       $unwind$?Release@?$CComObjectCached@VCComClassFactory@ATL@@@ATL@@UEAAKXZ 0000000180030278     CoinDispenser.obj
 0002:0000b278       $unwind$?Unadvise@?$IConnectionPointImpl@VCOPOSCoinDispenser@@$1?DIID__IOPOSCoinDispenserEvents@@3U_GUID@@BVCComDynamicUnkArray@ATL@@@ATL@@UEAAJK@Z 0000000180030278     CoinDispenser.obj
 0002:0000b278       $unwind$?Unadvise@?$IConnectionPointImpl@VCOPOSCoinDispenser@@$1?IID_IPropertyNotifySink@@3U_GUID@@BVCComDynamicUnkArray@ATL@@@ATL@@UEAAJK@Z 0000000180030278     CoinDispenser.obj
 0002:0000b278       $unwind$??1CComControlBase@ATL@@UEAA@XZ 0000000180030278     CoinDispenserImpl.obj
 0002:0000b278       $unwind$??1COPOSCoinDispenser@@UEAA@XZ 0000000180030278     CoinDispenserImpl.obj
 0002:0000b278       $unwind$?EventUninit@COPOSCoinDispenser@@IEAAXXZ 0000000180030278     CoinDispenserImpl.obj
 0002:0000b278       $unwind$?FreezeEvents@COPOSCoinDispenser@@MEAAJH@Z 0000000180030278     CoinDispenserImpl.obj
 0002:0000b278       $unwind$?SOProcessID@COPOSCoinDispenser@@UEAAJPEAJ@Z 0000000180030278     CoinDispenserImpl.obj
 0002:0000b278       $unwind$?get_CapCompareFirmwareVersion@COPOSCoinDispenser@@UEAAJPEAF@Z 0000000180030278     CoinDispenserImpl.obj
 0002:0000b278       $unwind$?get_CapEmptySensor@COPOSCoinDispenser@@UEAAJPEAF@Z 0000000180030278     CoinDispenserImpl.obj
 0002:0000b278       $unwind$?get_CapJamSensor@COPOSCoinDispenser@@UEAAJPEAF@Z 0000000180030278     CoinDispenserImpl.obj
 0002:0000b278       $unwind$?get_CapNearEmptySensor@COPOSCoinDispenser@@UEAAJPEAF@Z 0000000180030278     CoinDispenserImpl.obj
 0002:0000b278       $unwind$?get_CapStatisticsReporting@COPOSCoinDispenser@@UEAAJPEAF@Z 0000000180030278     CoinDispenserImpl.obj
 0002:0000b278       $unwind$?get_CapUpdateFirmware@COPOSCoinDispenser@@UEAAJPEAF@Z 0000000180030278     CoinDispenserImpl.obj
 0002:0000b278       $unwind$?get_CapUpdateStatistics@COPOSCoinDispenser@@UEAAJPEAF@Z 0000000180030278     CoinDispenserImpl.obj
 0002:0000b278       $unwind$?get_Claimed@COPOSCoinDispenser@@UEAAJPEAF@Z 0000000180030278     CoinDispenserImpl.obj
 0002:0000b278       $unwind$?get_DeviceEnabled@COPOSCoinDispenser@@UEAAJPEAF@Z 0000000180030278     CoinDispenserImpl.obj
 0002:0000b278       $unwind$?get_FreezeEvents@COPOSCoinDispenser@@UEAAJPEAF@Z 0000000180030278     CoinDispenserImpl.obj
 0002:0000b278       $unwind$?put_FreezeEvents@COPOSCoinDispenser@@UEAAJF@Z 0000000180030278     CoinDispenserImpl.obj
 0002:0000b278       $unwind$??0CAtlComModule@ATL@@QEAA@XZ 0000000180030278     OposVariant.obj
 0002:0000b278       $unwind$??0CAtlWinModule@ATL@@QEAA@XZ 0000000180030278     OposVariant.obj
 0002:0000b278       $unwind$?SetBSTR_OutPtr@OposVariant@@QEAA_NPEAPEA_WAEAJ@Z 0000000180030278     OposVariant.obj
 0002:0000b278       $unwind$_calloc_base       0000000180030278     libucrt:calloc_base.obj
 0002:0000b278       $unwind$_malloc_base       0000000180030278     libucrt:malloc_base.obj
 0002:0000b278       $unwind$_callnewh          0000000180030278     libucrt:new_handler.obj
 0002:0000b278       $unwind$initialize_pointers 0000000180030278     libucrt:initialization.obj
 0002:0000b278       $unwind$uninitialize_allocated_memory 0000000180030278     libucrt:initialization.obj
 0002:0000b278       $unwind$__acrt_initialize_locks 0000000180030278     libucrt:locks.obj
 0002:0000b278       $unwind$__acrt_uninitialize_locks 0000000180030278     libucrt:locks.obj
 0002:0000b278       $unwind$__acrt_freeptd     0000000180030278     libucrt:per_thread_data.obj
 0002:0000b278       $unwind$__acrt_getptd_head 0000000180030278     libucrt:per_thread_data.obj
 0002:0000b278       $unwind$__acrt_get_process_end_policy 0000000180030278     libucrt:win_policies.obj
 0002:0000b278       $unwind$__acrt_AppPolicyGetProcessTerminationMethodInternal 0000000180030278     libucrt:winapi_thunks.obj
 0002:0000b278       $unwind$__acrt_SetThreadStackGuarantee 0000000180030278     libucrt:winapi_thunks.obj
 0002:0000b278       $unwind$__acrt_uninitialize_winapi_thunks 0000000180030278     libucrt:winapi_thunks.obj
 0002:0000b278       $unwind$__acrt_update_locale_info 0000000180030278     libucrt:locale_update.obj
 0002:0000b278       $unwind$__acrt_update_locale_info_explicit 0000000180030278     libucrt:locale_update.obj
 0002:0000b278       $unwind$__acrt_update_multibyte_info 0000000180030278     libucrt:locale_update.obj
 0002:0000b278       $unwind$__acrt_update_multibyte_info_explicit 0000000180030278     libucrt:locale_update.obj
 0002:0000b278       $unwind$__acrt_errno_map_os_error 0000000180030278     libucrt:errno.obj
 0002:0000b278       $unwind$__acrt_errno_map_os_error_ptd 0000000180030278     libucrt:errno.obj
 0002:0000b278       $unwind$__acrt_allocate_buffer_for_argv 0000000180030278     libucrt:argv_parsing.obj
 0002:0000b278       $unwind$?exit_or_terminate_process@@YAXI@Z 0000000180030278     libucrt:exit.obj
 0002:0000b278       $unwind$__acrt_uninitialize_stdio 0000000180030278     libucrt:_file.obj
 0002:0000b278       $unwind$__acrt_stdio_free_buffer_nolock 0000000180030278     libucrt:_freebuf.obj
 0002:0000b278       $unwind$strcpy_s           0000000180030278     libucrt:strcpy_s.obj
 0002:0000b278       $unwind$wcscat_s           0000000180030278     libucrt:wcscat_s.obj
 0002:0000b278       $unwind$wcscpy_s           0000000180030278     libucrt:wcscpy_s.obj
 0002:0000b278       $unwind$_clrfp             0000000180030278     libucrt:fpctrl.obj
 0002:0000b278       $unwind$_set_statfp        0000000180030278     libucrt:fpctrl.obj
 0002:0000b278       $unwind$_clearfp           0000000180030278     libucrt:ieee.obj
 0002:0000b278       $unwind$_controlfp_s       0000000180030278     libucrt:contrlfp.obj
 0002:0000b278       $unwind$fegetenv           0000000180030278     libucrt:fegetenv.obj
 0002:0000b278       $unwind$feholdexcept       0000000180030278     libucrt:feholdexcept.obj
 0002:0000b278       $unwind$fesetenv           0000000180030278     libucrt:fesetenv.obj
 0002:0000b278       $unwind$??1CAtlBaseModule@ATL@@QEAA@XZ 0000000180030278     atls:atlbase.obj
 0002:0000b278       $unwind$AtlThunk_AllocateData 0000000180030278     atls:atlthunk.obj
 0002:0000b278       $unwind$__raise_securityfailure 0000000180030278     LIBCMT:gs_report.obj
 0002:0000b278       $unwind$??2@YAPEAX_K@Z     0000000180030278     LIBCMT:new_scalar.obj
 0002:0000b278       $unwind$??_Gtype_info@@UEAAPEAXI@Z 0000000180030278     LIBCMT:std_type_info_static.obj
 0002:0000b278       $unwind$_Init_thread_footer 0000000180030278     LIBCMT:thread_safe_statics.obj
 0002:0000b278       $unwind$_Init_thread_header 0000000180030278     LIBCMT:thread_safe_statics.obj
 0002:0000b278       $unwind$_Init_thread_wait  0000000180030278     LIBCMT:thread_safe_statics.obj
 0002:0000b278       $unwind$??0bad_alloc@std@@QEAA@AEBV01@@Z 0000000180030278     LIBCMT:throw_bad_alloc.obj
 0002:0000b278       $unwind$??0bad_array_new_length@std@@QEAA@AEBV01@@Z 0000000180030278     LIBCMT:throw_bad_alloc.obj
 0002:0000b278       $unwind$??0exception@std@@QEAA@AEBV01@@Z 0000000180030278     LIBCMT:throw_bad_alloc.obj
 0002:0000b278       $unwind$__scrt_initialize_crt 0000000180030278     LIBCMT:utility.obj
 0002:0000b278       $unwind$__scrt_initialize_onexit_tables 0000000180030278     LIBCMT:utility.obj
 0002:0000b278       $unwind$__scrt_release_startup_lock 0000000180030278     LIBCMT:utility.obj
 0002:0000b278       $unwind$__scrt_uninitialize_crt 0000000180030278     LIBCMT:utility.obj
 0002:0000b278       $unwind$_onexit            0000000180030278     LIBCMT:utility.obj
 0002:0000b278       $unwind$_IsExceptionObjectToBeDestroyed 0000000180030278     libvcruntime:ehhelpers.obj
 0002:0000b278       $unwind$?GetUnwindTryBlock@__FrameHandler3@@SAHPEA_KPEAU_xDISPATCHER_CONTEXT@@PEBU_s_FuncInfo@@@Z 0000000180030278     libvcruntime:ehstate.obj
 0002:0000b278       $unwind$?StateFromIp@__FrameHandler3@@SAHPEBU_s_FuncInfo@@PEAU_xDISPATCHER_CONTEXT@@_K@Z 0000000180030278     libvcruntime:ehstate.obj
 0002:0000b278       $unwind$??0HandlerMap4@FH4@@QEAA@PEBUTryBlockMapEntry4@1@_KH@Z 0000000180030278     libvcruntime:frame.obj
 0002:0000b278       $unwind$??0bad_exception@std@@QEAA@AEBV01@@Z 0000000180030278     libvcruntime:frame.obj
 0002:0000b278       $unwind$__vcrt_initialize_locks 0000000180030278     libvcruntime:locks.obj
 0002:0000b278       $unwind$__vcrt_uninitialize_locks 0000000180030278     libvcruntime:locks.obj
 0002:0000b278       $unwind$__vcrt_freeptd     0000000180030278     libvcruntime:per_thread_data.obj
 0002:0000b278       $unwind$?ExecutionInCatch@__FrameHandler3@@SA_NPEAU_xDISPATCHER_CONTEXT@@PEBU_s_FuncInfo@@@Z 0000000180030278     libvcruntime:risctrnsctrl.obj
 0002:0000b278       $unwind$_CreateFrameInfo   0000000180030278     libvcruntime:risctrnsctrl.obj
 0002:0000b278       $unwind$_SetImageBase      0000000180030278     libvcruntime:risctrnsctrl.obj
 0002:0000b278       $unwind$_SetThrowImageBase 0000000180030278     libvcruntime:risctrnsctrl.obj
 0002:0000b278       $unwind$__std_exception_destroy 0000000180030278     libvcruntime:std_exception.obj
 0002:0000b278       $unwind$__std_type_info_destroy_list 0000000180030278     libvcruntime:std_type_info.obj
 0002:0000b278       $unwind$__vcrt_FlsAlloc    0000000180030278     libvcruntime:winapi_downlevel.obj
 0002:0000b278       $unwind$__vcrt_FlsFree     0000000180030278     libvcruntime:winapi_downlevel.obj
 0002:0000b278       $unwind$__vcrt_FlsGetValue 0000000180030278     libvcruntime:winapi_downlevel.obj
 0002:0000b280       $unwind$?AtlWinModuleExtractCreateWndData@ATL@@YAPEAXPEAU_ATL_WIN_MODULE70@1@@Z 0000000180030280     CoinDispenser.obj
 0002:0000b280       $unwind$?CreateInstance@?$CComCreator@V?$CComObject@VCOPOSCoinDispenser@@@ATL@@@ATL@@SAJPEAXAEBU_GUID@@PEAPEAX@Z 0000000180030280     CoinDispenser.obj
 0002:0000b280       $unwind$?DoEvent@COPOSCoinDispenser@@IEAAXI_K_J@Z 0000000180030280     CoinDispenser.obj
 0002:0000b280       $unwind$?DoVerb@?$IOleObjectImpl@VCOPOSCoinDispenser@@@ATL@@UEAAJJPEAUtagMSG@@PEAUIOleClientSite@@JPEAUHWND__@@PEBUtagRECT@@@Z 0000000180030280     CoinDispenser.obj
 0002:0000b280       $unwind$?HKeyFromString@CRegParser@ATL@@KAPEAUHKEY__@@PEA_W@Z 0000000180030280     CoinDispenser.obj
 0002:0000b280       $unwind$?Next@?$CComEnumImpl@UIEnumConnectionPoints@@$1?_GUID_b196b285_bab4_101a_b69c_00aa00341d07@@3U__s_GUID@@BPEAUIConnectionPoint@@V?$_CopyInterface@UIConnectionPoint@@@ATL@@@ATL@@UEAAJKPEAPEAUIConnectionPoint@@PEAK@Z 0000000180030280     CoinDispenser.obj
 0002:0000b280       $unwind$?Next@?$CComEnumImpl@UIEnumConnections@@$1?_GUID_b196b287_bab4_101a_b69c_00aa00341d07@@3U__s_GUID@@BUtagCONNECTDATA@@V?$_Copy@UtagCONNECTDATA@@@ATL@@@ATL@@UEAAJKPEAUtagCONNECTDATA@@PEAK@Z 0000000180030280     CoinDispenser.obj
 0002:0000b280       $unwind$?SODirectIO@COPOSCoinDispenser@@MEAAJJPEAJPEAPEA_W@Z 0000000180030280     CoinDispenser.obj
 0002:0000b280       $unwind$?SetControlFocus@CComControlBase@ATL@@QEAAHH@Z 0000000180030280     CoinDispenser.obj
 0002:0000b280       $unwind$?ocscpy_s@@YA_NPEA_W_KPEB_W@Z 0000000180030280     CoinDispenser.obj
 0002:0000b280       $unwind$?s_EventWindowProc@COPOSCoinDispenser@@KA_JPEAUHWND__@@I_K_J@Z 0000000180030280     CoinDispenserImpl.obj
 0002:0000b280       $unwind$?AtlWinModuleTerm@ATL@@YAJPEAU_ATL_WIN_MODULE70@1@PEAUHINSTANCE__@@@Z 0000000180030280     OposVariant.obj
 0002:0000b280       $unwind$_recalloc_base     0000000180030280     libucrt:recalloc.obj
 0002:0000b280       $unwind$__acrt_free_locale 0000000180030280     libucrt:locale_refcounting.obj
 0002:0000b280       $unwind$__acrt_lowio_create_handle_array 0000000180030280     libucrt:osfinfo.obj
 0002:0000b280       $unwind$_seh_filter_exe    0000000180030280     libucrt:exception_filter.obj
 0002:0000b280       $unwind$__acrt_stdio_flush_nolock 0000000180030280     libucrt:fflush.obj
 0002:0000b280       $unwind$??$ensure_buffer_is_big_enough@D@formatting_buffer@__crt_stdio_output@@QEAA_N_KAEAV__crt_cached_ptd_host@@@Z 0000000180030280     libucrt:output.obj
 0002:0000b280       $unwind$??$ensure_buffer_is_big_enough@_W@formatting_buffer@__crt_stdio_output@@QEAA_N_KAEAV__crt_cached_ptd_host@@@Z 0000000180030280     libucrt:output.obj
 0002:0000b280       $unwind$__scrt_dllmain_exception_filter 0000000180030280     LIBCMT:utility.obj
 0002:0000b280       $unwind$?GetHandlerSearchState@__FrameHandler3@@SAHPEA_KPEAU_xDISPATCHER_CONTEXT@@PEBU_s_FuncInfo@@@Z 0000000180030280     libvcruntime:frame.obj
 0002:0000b280       $unwind$?Is_bad_exception_allowed@@YAEPEBU_s_ESTypeList@@@Z 0000000180030280     libvcruntime:frame.obj
 0002:0000b280       $unwind$?CatchTryBlock@__FrameHandler3@@SAPEBU_s_TryBlockMapEntry@@PEBU_s_FuncInfo@@H@Z 0000000180030280     libvcruntime:risctrnsctrl.obj
 0002:0000b294       $unwind$??_GCRegObject@ATL@@UEAAPEAXI@Z 0000000180030294     CoinDispenser.obj
 0002:0000b294       $unwind$?Add@?$CSimpleArray@GV?$CSimpleArrayEqualHelper@G@ATL@@@ATL@@QEAAHAEBG@Z 0000000180030294     CoinDispenser.obj
 0002:0000b294       $unwind$?Add@?$CSimpleMap@PEA_WPEA_WVCExpansionVectorEqualHelper@ATL@@@ATL@@QEAAHAEBQEA_W0@Z 0000000180030294     CoinDispenser.obj
 0002:0000b294       $unwind$?Add@CComDynamicUnkArray@ATL@@QEAAKPEAUIUnknown@@@Z 0000000180030294     CoinDispenser.obj
 0002:0000b294       $unwind$?Advise@?$IOleObjectImpl@VCOPOSCoinDispenser@@@ATL@@UEAAJPEAUIAdviseSink@@PEAK@Z 0000000180030294     CoinDispenser.obj
 0002:0000b294       $unwind$?ClearReplacements@CExpansionVector@ATL@@QEAAJXZ 0000000180030294     CoinDispenser.obj
 0002:0000b294       $unwind$?CreateInstance@?$CComObject@V?$CComEnum@UIEnumConnectionPoints@@$1?_GUID_b196b285_bab4_101a_b69c_00aa00341d07@@3U__s_GUID@@BPEAUIConnectionPoint@@V?$_CopyInterface@UIConnectionPoint@@@ATL@@VCComSingleThreadModel@6@@ATL@@@ATL@@SAJPEAPEAV12@@Z 0000000180030294     CoinDispenser.obj
 0002:0000b294       $unwind$?CreateInstance@?$CComObject@V?$CComEnum@UIEnumConnections@@$1?_GUID_b196b287_bab4_101a_b69c_00aa00341d07@@3U__s_GUID@@BUtagCONNECTDATA@@V?$_Copy@UtagCONNECTDATA@@@ATL@@VCComSingleThreadModel@6@@ATL@@@ATL@@SAJPEAPEAV12@@Z 0000000180030294     CoinDispenser.obj
 0002:0000b294       $unwind$?RegisterServer@CComModule@ATL@@QEAAJHPEBU_GUID@@@Z 0000000180030294     CoinDispenser.obj
 0002:0000b294       $unwind$?UnregisterServer@CComModule@ATL@@QEAAJHPEBU_GUID@@@Z 0000000180030294     CoinDispenser.obj
 0002:0000b294       $unwind$?VTFromRegType@CRegParser@ATL@@KAHPEB_WAEAG@Z 0000000180030294     CoinDispenser.obj
 0002:0000b294       $unwind$??0OposDispParms@@QEAA@PEAVOposVariant@@H@Z 0000000180030294     OposVariant.obj
 0002:0000b294       $unwind$?SetBSTR_Copy@OposVariant@@QEAAXPEA_WAEAJ@Z 0000000180030294     OposVariant.obj
 0002:0000b294       $unwind$?SetBSTR_InOutPtr@OposVariant@@QEAA_NPEAPEA_WAEAJ@Z 0000000180030294     OposVariant.obj
 0002:0000b294       $unwind$?SetDispatch_Ptr@OposVariant@@QEAAXPEAUIDispatch@@AEAJ@Z 0000000180030294     OposVariant.obj
 0002:0000b294       $unwind$?SetLONG_Ptr@OposVariant@@QEAAXPEAJAEAJ@Z 0000000180030294     OposVariant.obj
 0002:0000b294       $unwind$?SetString@OposVariant@@QEAAXPEB_WAEAJ@Z 0000000180030294     OposVariant.obj
 0002:0000b294       $unwind$?SetVARIANT_BOOL_Ptr@OposVariant@@QEAAXPEAFAEAJ@Z 0000000180030294     OposVariant.obj
 0002:0000b294       $unwind$?Term@CAtlComModule@ATL@@QEAAXXZ 0000000180030294     OposVariant.obj
 0002:0000b294       $unwind$memcpy_s           0000000180030294     libucrt:cfout.obj
 0002:0000b294       $unwind$__acrt_getptd      0000000180030294     libucrt:per_thread_data.obj
 0002:0000b294       $unwind$__acrt_getptd_noexit 0000000180030294     libucrt:per_thread_data.obj
 0002:0000b294       $unwind$__acrt_getptd_noexit_explicit 0000000180030294     libucrt:per_thread_data.obj
 0002:0000b294       $unwind$__acrt_execute_initializers 0000000180030294     libucrt:shared_initialization.obj
 0002:0000b294       $unwind$__acrt_InitializeCriticalSectionEx 0000000180030294     libucrt:winapi_thunks.obj
 0002:0000b294       $unwind$_close_nolock_internal 0000000180030294     libucrt:close.obj
 0002:0000b294       $unwind$?value@?$dual_state_global@P6AXPEB_W00I_K@Z@__crt_state_management@@QEAAAEAP6AXPEB_W00I_K@ZAEAV__crt_cached_ptd_host@@@Z 0000000180030294     libucrt:invalid_parameter.obj
 0002:0000b294       $unwind$??0_LocaleUpdate@@QEAA@QEAU__crt_locale_pointers@@@Z 0000000180030294     libucrt:argv_wildcards.obj
 0002:0000b294       $unwind$?type_case_Z@?$output_processor@_WV?$string_output_adapter@_W@__crt_stdio_output@@V?$format_validation_base@_WV?$string_output_adapter@_W@__crt_stdio_output@@@2@@__crt_stdio_output@@AEAA_NXZ 0000000180030294     libucrt:output.obj
 0002:0000b294       $unwind$?type_case_s@?$output_processor@_WV?$string_output_adapter@_W@__crt_stdio_output@@V?$format_validation_base@_WV?$string_output_adapter@_W@__crt_stdio_output@@@2@@__crt_stdio_output@@AEAA_NXZ 0000000180030294     libucrt:output.obj
 0002:0000b294       $unwind$?type_case_s_compute_narrow_string_length@?$output_processor@_WV?$string_output_adapter@_W@__crt_stdio_output@@V?$format_validation_base@_WV?$string_output_adapter@_W@__crt_stdio_output@@@2@@__crt_stdio_output@@AEAAHH_W@Z 0000000180030294     libucrt:output.obj
 0002:0000b294       $unwind$?update_locale_slow@__crt_cached_ptd_host@@AEAAXXZ 0000000180030294     libucrt:output.obj
 0002:0000b294       $unwind$strncpy_s          0000000180030294     libucrt:strncpy_s.obj
 0002:0000b294       $unwind$wcsncpy_s          0000000180030294     libucrt:wcsncpy_s.obj
 0002:0000b294       $unwind$_exception_enabled 0000000180030294     libucrt:libm_error.obj
 0002:0000b294       $unwind$_DllMainCRTStartup 0000000180030294     LIBCMT:dll_dllmain.obj
 0002:0000b294       $unwind$__vcrt_getptd_noexit 0000000180030294     libvcruntime:per_thread_data.obj
 0002:0000b294       $unwind$?FrameUnwindToEmptyState@__FrameHandler3@@SAXPEA_KPEAU_xDISPATCHER_CONTEXT@@PEBU_s_FuncInfo@@@Z 0000000180030294     libvcruntime:risctrnsctrl.obj
 0002:0000b294       $unwind$__vcrt_InitializeCriticalSectionEx 0000000180030294     libvcruntime:winapi_downlevel.obj
 0002:0000b2a4       $unwind$?AddTermFunc@CAtlModule@ATL@@QEAAJP6AX_K@Z0@Z 00000001800302a4     CoinDispenser.obj
 0002:0000b2a4       $unwind$?AtlComModuleRegisterServer@ATL@@YAJPEAU_ATL_COM_MODULE70@1@HPEBU_GUID@@@Z 00000001800302a4     CoinDispenser.obj
 0002:0000b2a4       $unwind$?AtlComModuleUnregisterServer@ATL@@YAJPEAU_ATL_COM_MODULE70@1@HPEBU_GUID@@@Z 00000001800302a4     CoinDispenser.obj
 0002:0000b2a4       $unwind$?CreateInstance@?$CComCreator@V?$CComAggObject@VCOPOSCoinDispenser@@@ATL@@@ATL@@SAJPEAXAEBU_GUID@@PEAPEAX@Z 00000001800302a4     CoinDispenser.obj
 0002:0000b2a4       $unwind$?CreateInstance@?$CComCreator@V?$CComObjectCached@VCComClassFactory@ATL@@@ATL@@@ATL@@SAJPEAXAEBU_GUID@@PEAPEAX@Z 00000001800302a4     CoinDispenser.obj
 0002:0000b2a4       $unwind$?GetPagesHelper@?$ISpecifyPropertyPagesImpl@VCOPOSCoinDispenser@@@ATL@@IEAAJPEAUtagCAUUID@@PEBUATL_PROPMAP_ENTRY@2@@Z 00000001800302a4     CoinDispenser.obj
 0002:0000b2a4       $unwind$?Term@CAtlModule@ATL@@QEAAXXZ 00000001800302a4     CoinDispenser.obj
 0002:0000b2a4       $unwind$??_Estringdispid@CComTypeInfoHolder@ATL@@QEAAPEAXI@Z 00000001800302a4     OposVariant.obj
 0002:0000b2a4       $unwind$?initialize_stdio_handles_nolock@@YAXXZ 00000001800302a4     libucrt:ioinit.obj
 0002:0000b2a4       $unwind$__acrt_initialize_stdio 00000001800302a4     libucrt:_file.obj
 0002:0000b2a4       $unwind$__GSHandlerCheck_EH 00000001800302a4     LIBCMT:gshandlereh.obj
 0002:0000b2a4       $unwind$__GSHandlerCheck_SEH 00000001800302a4     LIBCMT:gshandlerseh.obj
 0002:0000b2a4       $unwind$??$TypeMatchHelper@V__FrameHandler3@@@@YAHPEBU_s_HandlerType@@PEBU_s_CatchableType@@PEBU_s_ThrowInfo@@@Z 00000001800302a4     libvcruntime:frame.obj
 0002:0000b2a4       $unwind$??$TypeMatchHelper@V__FrameHandler4@@@@YAHPEAUHandlerType4@FH4@@PEBU_s_CatchableType@@PEBU_s_ThrowInfo@@@Z 00000001800302a4     libvcruntime:frame.obj
 0002:0000b2bc       $unwind$??0?$CComContainedObject@VCOPOSCoinDispenser@@@ATL@@QEAA@PEAX@Z 00000001800302bc     CoinDispenser.obj
 0002:0000b2bc       $unwind$??1?$CComEnumImpl@UIEnumConnectionPoints@@$1?_GUID_b196b285_bab4_101a_b69c_00aa00341d07@@3U__s_GUID@@BPEAUIConnectionPoint@@V?$_CopyInterface@UIConnectionPoint@@@ATL@@@ATL@@UEAA@XZ 00000001800302bc     CoinDispenser.obj
 0002:0000b2bc       $unwind$??1?$CComEnumImpl@UIEnumConnections@@$1?_GUID_b196b287_bab4_101a_b69c_00aa00341d07@@3U__s_GUID@@BUtagCONNECTDATA@@V?$_Copy@UtagCONNECTDATA@@@ATL@@@ATL@@UEAA@XZ 00000001800302bc     CoinDispenser.obj
 0002:0000b2bc       $unwind$??_G?$CComAggObject@VCOPOSCoinDispenser@@@ATL@@UEAAPEAXI@Z 00000001800302bc     CoinDispenser.obj
 0002:0000b2bc       $unwind$??_G?$CComContainedObject@VCOPOSCoinDispenser@@@ATL@@UEAAPEAXI@Z 00000001800302bc     CoinDispenser.obj
 0002:0000b2bc       $unwind$??_G?$CComObject@V?$CComEnum@UIEnumConnectionPoints@@$1?_GUID_b196b285_bab4_101a_b69c_00aa00341d07@@3U__s_GUID@@BPEAUIConnectionPoint@@V?$_CopyInterface@UIConnectionPoint@@@ATL@@VCComSingleThreadModel@6@@ATL@@@ATL@@UEAAPEAXI@Z 00000001800302bc     CoinDispenser.obj
 0002:0000b2bc       $unwind$??_G?$CComObject@V?$CComEnum@UIEnumConnections@@$1?_GUID_b196b287_bab4_101a_b69c_00aa00341d07@@3U__s_GUID@@BUtagCONNECTDATA@@V?$_Copy@UtagCONNECTDATA@@@ATL@@VCComSingleThreadModel@6@@ATL@@@ATL@@UEAAPEAXI@Z 00000001800302bc     CoinDispenser.obj
 0002:0000b2bc       $unwind$??_G?$CComObject@VCOPOSCoinDispenser@@@ATL@@UEAAPEAXI@Z 00000001800302bc     CoinDispenser.obj
 0002:0000b2bc       $unwind$??_G?$CComObjectCached@VCComClassFactory@ATL@@@ATL@@UEAAPEAXI@Z 00000001800302bc     CoinDispenser.obj
 0002:0000b2bc       $unwind$??_GCComClassFactory@ATL@@UEAAPEAXI@Z 00000001800302bc     CoinDispenser.obj
 0002:0000b2bc       $unwind$??_GCComModule@ATL@@UEAAPEAXI@Z 00000001800302bc     CoinDispenser.obj
 0002:0000b2bc       $unwind$?DeleteSubKey@CRegKey@ATL@@QEAAJPEB_W@Z 00000001800302bc     CoinDispenser.obj
 0002:0000b2bc       $unwind$?IOleObject_SetClientSite@CComControlBase@ATL@@QEAAJPEAUIOleClientSite@@@Z 00000001800302bc     CoinDispenser.obj
 0002:0000b2bc       $unwind$?InitNew@?$IPersistStorageImpl@VCOPOSCoinDispenser@@@ATL@@UEAAJPEAUIStorage@@@Z 00000001800302bc     CoinDispenser.obj
 0002:0000b2bc       $unwind$?IsDirty@?$IPersistStorageImpl@VCOPOSCoinDispenser@@@ATL@@UEAAJXZ 00000001800302bc     CoinDispenser.obj
 0002:0000b2bc       $unwind$?Release@?$CComAggObject@VCOPOSCoinDispenser@@@ATL@@UEAAKXZ 00000001800302bc     CoinDispenser.obj
 0002:0000b2bc       $unwind$?Release@?$CComObject@V?$CComEnum@UIEnumConnectionPoints@@$1?_GUID_b196b285_bab4_101a_b69c_00aa00341d07@@3U__s_GUID@@BPEAUIConnectionPoint@@V?$_CopyInterface@UIConnectionPoint@@@ATL@@VCComSingleThreadModel@6@@ATL@@@ATL@@UEAAKXZ 00000001800302bc     CoinDispenser.obj
 0002:0000b2bc       $unwind$?Release@?$CComObject@V?$CComEnum@UIEnumConnections@@$1?_GUID_b196b287_bab4_101a_b69c_00aa00341d07@@3U__s_GUID@@BUtagCONNECTDATA@@V?$_Copy@UtagCONNECTDATA@@@ATL@@VCComSingleThreadModel@6@@ATL@@@ATL@@UEAAKXZ 00000001800302bc     CoinDispenser.obj
 0002:0000b2bc       $unwind$?Release@?$CComObject@VCOPOSCoinDispenser@@@ATL@@UEAAKXZ 00000001800302bc     CoinDispenser.obj
 0002:0000b2bc       $unwind$?SOStatusUpdate@COPOSCoinDispenser@@MEAAJJ@Z 00000001800302bc     CoinDispenser.obj
 0002:0000b2bc       $unwind$?SetAdvise@?$IViewObjectExImpl@VCOPOSCoinDispenser@@@ATL@@UEAAJKKPEAUIAdviseSink@@@Z 00000001800302bc     CoinDispenser.obj
 0002:0000b2bc       $unwind$?Term@CComModule@ATL@@QEAAXXZ 00000001800302bc     CoinDispenser.obj
 0002:0000b2bc       $unwind$DllMain            00000001800302bc     CoinDispenser.obj
 0002:0000b2bc       $unwind$??1?$IConnectionPointImpl@VCOPOSCoinDispenser@@$1?DIID__IOPOSCoinDispenserEvents@@3U_GUID@@BVCComDynamicUnkArray@ATL@@@ATL@@QEAA@XZ 00000001800302bc     CoinDispenserImpl.obj
 0002:0000b2bc       $unwind$??1?$IConnectionPointImpl@VCOPOSCoinDispenser@@$1?IID_IPropertyNotifySink@@3U_GUID@@BVCComDynamicUnkArray@ATL@@@ATL@@QEAA@XZ 00000001800302bc     CoinDispenserImpl.obj
 0002:0000b2bc       $unwind$?EventWindowProc@COPOSCoinDispenser@@IEAA_JI_K_J@Z 00000001800302bc     CoinDispenserImpl.obj
 0002:0000b2bc       $unwind$?SetBSTR@OposVariant@@QEAAXPEA_WAEAJ@Z 00000001800302bc     OposVariant.obj
 0002:0000b2bc       $unwind$?SetLONG@OposVariant@@QEAAXJ@Z 00000001800302bc     OposVariant.obj
 0002:0000b2bc       $unwind$?SetVARIANT_BOOL@OposVariant@@QEAAXF@Z 00000001800302bc     OposVariant.obj
 0002:0000b2bc       $unwind$??$common_initialize_environment_nolock@D@@YAHXZ 00000001800302bc     libucrt:environment_initialization.obj
 0002:0000b2bc       $unwind$_realloc_base      00000001800302bc     libucrt:realloc_base.obj
 0002:0000b2bc       $unwind$?replace_current_thread_locale_nolock@@YAXQEAU__acrt_ptd@@QEAU__crt_locale_data@@@Z 00000001800302bc     libucrt:per_thread_data.obj
 0002:0000b2bc       $unwind$__acrt_execute_uninitializers 00000001800302bc     libucrt:shared_initialization.obj
 0002:0000b2bc       $unwind$__acrt_LocaleNameToLCID 00000001800302bc     libucrt:winapi_thunks.obj
 0002:0000b2bc       $unwind$?free_crt_array_internal@@YAXQEAPEBX_K@Z 00000001800302bc     libucrt:inittime.obj
 0002:0000b2bc       $unwind$_updatetlocinfoEx_nolock 00000001800302bc     libucrt:locale_refcounting.obj
 0002:0000b2bc       $unwind$__acrt_uninitialize_lowio 00000001800302bc     libucrt:ioinit.obj
 0002:0000b2bc       $unwind$?setSBCS@@YAXPEAU__crt_multibyte_data@@@Z 00000001800302bc     libucrt:mbctype.obj
 0002:0000b2bc       $unwind$_initterm_e        00000001800302bc     libucrt:initterm.obj
 0002:0000b2bc       $unwind$??0CAtlBaseModule@ATL@@QEAA@XZ 00000001800302bc     atls:atlbase.obj
 0002:0000b2bc       $unwind$??$GetProcAddressAll@P6AP6A_JPEAUHWND__@@I_K_J@ZPEAUAtlThunkData_t@@@Z@@YAP6AP6A_JPEAUHWND__@@I_K_J@ZPEAUAtlThunkData_t@@@ZPEAP6AP6A_J0I12@Z3@Z@Z 00000001800302bc     atls:atlthunk.obj
 0002:0000b2bc       $unwind$??$GetProcAddressAll@P6APEAUAtlThunkData_t@@XZ@@YAP6APEAUAtlThunkData_t@@XZPEAP6APEAU0@XZ@Z 00000001800302bc     atls:atlthunk.obj
 0002:0000b2bc       $unwind$??$GetProcAddressAll@P6AXPEAUAtlThunkData_t@@@Z@@YAP6AXPEAUAtlThunkData_t@@@ZPEAP6AX0@Z@Z 00000001800302bc     atls:atlthunk.obj
 0002:0000b2bc       $unwind$??$GetProcAddressAll@P6AXPEAUAtlThunkData_t@@PEAX_K@Z@@YAP6AXPEAUAtlThunkData_t@@PEAX_K@ZPEAP6AX012@Z@Z 00000001800302bc     atls:atlthunk.obj
 0002:0000b2bc       $unwind$?__AllocStdCallThunk_cmn@@YAPEAXXZ 00000001800302bc     atls:atlthunk.obj
 0002:0000b2bc       $unwind$?__InitializeThunkPool@@YAHXZ 00000001800302bc     atls:atlthunk.obj
 0002:0000b2bc       $unwind$AtlThunk_DataToCode 00000001800302bc     atls:atlthunk.obj
 0002:0000b2bc       $unwind$_RTC_Initialize    00000001800302bc     LIBCMT:initsect.obj
 0002:0000b2bc       $unwind$_RTC_Terminate     00000001800302bc     LIBCMT:initsect.obj
 0002:0000b2bc       $unwind$?__scrt_initialize_thread_safe_statics@@YAHXZ 00000001800302bc     LIBCMT:thread_safe_statics.obj
 0002:0000b2bc       $unwind$??_Gbad_alloc@std@@UEAAPEAXI@Z 00000001800302bc     LIBCMT:throw_bad_alloc.obj
 0002:0000b2bc       $unwind$??_Gbad_array_new_length@std@@UEAAPEAXI@Z 00000001800302bc     LIBCMT:throw_bad_alloc.obj
 0002:0000b2bc       $unwind$??_Gexception@std@@UEAAPEAXI@Z 00000001800302bc     LIBCMT:throw_bad_alloc.obj
 0002:0000b2bc       $unwind$__C_specific_handler_noexcept 00000001800302bc     libvcruntime:chandler_noexcept.obj
 0002:0000b2bc       $unwind$__FrameUnwindFilter 00000001800302bc     libvcruntime:ehhelpers.obj
 0002:0000b2bc       $unwind$?SetUnwindTryBlock@__FrameHandler3@@SAXPEA_KPEAU_xDISPATCHER_CONTEXT@@PEBU_s_FuncInfo@@H@Z 00000001800302bc     libvcruntime:ehstate.obj
 0002:0000b2bc       $unwind$??_Gbad_exception@std@@UEAAPEAXI@Z 00000001800302bc     libvcruntime:frame.obj
 0002:0000b2bc       $unwind$?ExFilterRethrow@@YAHPEAU_EXCEPTION_POINTERS@@PEAUEHExceptionRecord@@PEAH@Z 00000001800302bc     libvcruntime:frame.obj
 0002:0000b2bc       $unwind$?ExFilterRethrowFH4@@YAHPEAU_EXCEPTION_POINTERS@@PEAUEHExceptionRecord@@HPEAH@Z 00000001800302bc     libvcruntime:frame.obj
 0002:0000b2bc       $unwind$_FindAndUnlinkFrame 00000001800302bc     libvcruntime:risctrnsctrl.obj
 0002:0000b2bc       $unwind$__vcrt_FlsSetValue 00000001800302bc     libvcruntime:winapi_downlevel.obj
 0002:0000b2c8       $unwind$?ChangeBSTR@OposVariant@@QEAAXPEAPEA_WAEAJ@Z 00000001800302c8     OposVariant.obj
 0002:0000b2c8       $unwind$?ChangeLONG@OposVariant@@QEAAXPEAJAEAJ@Z 00000001800302c8     OposVariant.obj
 0002:0000b2c8       $unwind$?x_ismbbtype_l@@YAHPEAU__crt_locale_pointers@@IHH@Z 00000001800302c8     libucrt:ismbbyte.obj
 0002:0000b2d8       $unwind$swprintf_s         00000001800302d8     CoinDispenser.obj
 0002:0000b2e8       $unwind$?_AtlVerifyStackAvailable@_ATL_SAFE_ALLOCA_IMPL@ATL@@YA_N_K@Z 00000001800302e8     CoinDispenser.obj
 0002:0000b314       $unwind$?filt$0@?0??_AtlVerifyStackAvailable@_ATL_SAFE_ALLOCA_IMPL@ATL@@YA_N_K@Z@4HA 0000000180030314     CoinDispenser.obj
 0002:0000b314       $unwind$_query_new_handler$fin$0 0000000180030314     libucrt:new_handler.obj
 0002:0000b314       $unwind$?fin$0@?0???$?RV<lambda_0ae27a3a962d80f24befdcbee591983d>@@AEAV<lambda_8d0ee55de4b1038c4002e0adecdf1839>@@V<lambda_dc504788e8f1664fe9b84e20bfb512f2>@@@?$__crt_seh_guarded_call@X@@QEAAX$$QEAV<lambda_0ae27a3a962d80f24befdcbee591983d>@@AEAV<lambda_8d0ee55de4b1038c4002e0adecdf1839>@@$$QEAV<lambda_dc504788e8f1664fe9b84e20bfb512f2>@@@Z@4HA 0000000180030314     libucrt:per_thread_data.obj
 0002:0000b314       $unwind$?fin$0@?0???$?RV<lambda_2d41944a1d46af3157314b8a01080d33>@@AEAV<lambda_8f455de75cd7d7f24b4096f044d8b9e6>@@V<lambda_aa500f224e6afead328df44964fe2772>@@@?$__crt_seh_guarded_call@X@@QEAAX$$QEAV<lambda_2d41944a1d46af3157314b8a01080d33>@@AEAV<lambda_8f455de75cd7d7f24b4096f044d8b9e6>@@$$QEAV<lambda_aa500f224e6afead328df44964fe2772>@@@Z@4HA 0000000180030314     libucrt:per_thread_data.obj
 0002:0000b314       $unwind$?fin$0@?0???$?RV<lambda_aa87e3671a710a21b5dc78c0bdf72e11>@@AEAV<lambda_92619d2358a28f41a33ba319515a20b9>@@V<lambda_6992ecaafeb10aed2b74cb1fae11a551>@@@?$__crt_seh_guarded_call@X@@QEAAX$$QEAV<lambda_aa87e3671a710a21b5dc78c0bdf72e11>@@AEAV<lambda_92619d2358a28f41a33ba319515a20b9>@@$$QEAV<lambda_6992ecaafeb10aed2b74cb1fae11a551>@@@Z@4HA 0000000180030314     libucrt:per_thread_data.obj
 0002:0000b314       $unwind$?fin$0@?0???$?RV<lambda_f2e299630e499de9f9a165e60fcd3db5>@@AEAV<lambda_2ae9d31cdba2644fcbeaf08da7c24588>@@V<lambda_40d01ff24d0e7b3814fdbdcee8eab3c7>@@@?$__crt_seh_guarded_call@X@@QEAAX$$QEAV<lambda_f2e299630e499de9f9a165e60fcd3db5>@@AEAV<lambda_2ae9d31cdba2644fcbeaf08da7c24588>@@$$QEAV<lambda_40d01ff24d0e7b3814fdbdcee8eab3c7>@@@Z@4HA 0000000180030314     libucrt:per_thread_data.obj
 0002:0000b314       $unwind$__acrt_update_thread_locale_data$fin$0 0000000180030314     libucrt:locale_refcounting.obj
 0002:0000b314       $unwind$?fin$0@?0???$?RV<lambda_410d79af7f07d98d83a3f525b3859a53>@@AEAV<lambda_3e16ef9562a7dcce91392c22ab16ea36>@@V<lambda_38119f0e861e05405d8a144b9b982f0a>@@@?$__crt_seh_guarded_call@X@@QEAAX$$QEAV<lambda_410d79af7f07d98d83a3f525b3859a53>@@AEAV<lambda_3e16ef9562a7dcce91392c22ab16ea36>@@$$QEAV<lambda_38119f0e861e05405d8a144b9b982f0a>@@@Z@4HA 0000000180030314     libucrt:wsetlocale.obj
 0002:0000b314       $unwind$?fin$0@?0???$?RV<lambda_ad8af0d99a0adf03d037d7dffe354bb5>@@AEAV<lambda_c9ba49e555ba839a7b07aa3fbecb7617>@@V<lambda_2f1ebd5d68526518146ae959c9e734c8>@@@?$__crt_seh_guarded_call@H@@QEAAH$$QEAV<lambda_ad8af0d99a0adf03d037d7dffe354bb5>@@AEAV<lambda_c9ba49e555ba839a7b07aa3fbecb7617>@@$$QEAV<lambda_2f1ebd5d68526518146ae959c9e734c8>@@@Z@4HA 0000000180030314     libucrt:close.obj
 0002:0000b314       $unwind$?fin$0@?0???$?RV<lambda_a37b2b86f63e897a80ea819b0eb08c01>@@AEAV<lambda_38ce7e780aa69e748d6df282ebc68efe>@@V<lambda_99fb1378e971ab6e7edea83e3a7a83a2>@@@?$__crt_seh_guarded_call@H@@QEAAH$$QEAV<lambda_a37b2b86f63e897a80ea819b0eb08c01>@@AEAV<lambda_38ce7e780aa69e748d6df282ebc68efe>@@$$QEAV<lambda_99fb1378e971ab6e7edea83e3a7a83a2>@@@Z@4HA 0000000180030314     libucrt:commit.obj
 0002:0000b314       $unwind$__acrt_initialize_lowio$fin$0 0000000180030314     libucrt:ioinit.obj
 0002:0000b314       $unwind$__acrt_lowio_ensure_fh_exists$fin$0 0000000180030314     libucrt:osfinfo.obj
 0002:0000b314       $unwind$?fin$0@?0???$?RV<lambda_efdfa57d1f175319df784efa44bb7b81>@@AEAV<lambda_5f0a4c1567f8adc6734073e5d1e1b35c>@@V<lambda_2e8a7d3640ea6ccb4c2413664c2db6fd>@@@?$__crt_seh_guarded_call@X@@QEAAX$$QEAV<lambda_efdfa57d1f175319df784efa44bb7b81>@@AEAV<lambda_5f0a4c1567f8adc6734073e5d1e1b35c>@@$$QEAV<lambda_2e8a7d3640ea6ccb4c2413664c2db6fd>@@@Z@4HA 0000000180030314     libucrt:mbctype.obj
 0002:0000b314       $unwind$?fin$0@?0??update_thread_multibyte_data_internal@@YAPEAU__crt_multibyte_data@@QEAU__acrt_ptd@@QEAPEAU1@@Z@4HA 0000000180030314     libucrt:mbctype.obj
 0002:0000b314       $unwind$?fin$0@?0???$?RV<lambda_450d765d439847d4c735a33c368b5fc0>@@AEAV<lambda_44731a7d0e6d81c3e6aa82d741081786>@@V<lambda_601a2a7da3b7a96e9554ac7215c4b07c>@@@?$__crt_seh_guarded_call@P6AXH@Z@@QEAAP6AXH@Z$$QEAV<lambda_450d765d439847d4c735a33c368b5fc0>@@AEAV<lambda_44731a7d0e6d81c3e6aa82d741081786>@@$$QEAV<lambda_601a2a7da3b7a96e9554ac7215c4b07c>@@@Z@4HA 0000000180030314     libucrt:signal.obj
 0002:0000b314       $unwind$raise$fin$0        0000000180030314     libucrt:signal.obj
 0002:0000b314       $unwind$?filt$0@?0???R<lambda_6e4b09c48022b2350581041d5f6b0c4c>@@QEBA@XZ@4HA 0000000180030314     libucrt:exit.obj
 0002:0000b314       $unwind$?fin$0@?0???$?RV<lambda_d80eeec6fff315bfe5c115232f3240e3>@@AEAV<lambda_6e4b09c48022b2350581041d5f6b0c4c>@@V<lambda_2358e3775559c9db80273638284d5e45>@@@?$__crt_seh_guarded_call@X@@QEAAX$$QEAV<lambda_d80eeec6fff315bfe5c115232f3240e3>@@AEAV<lambda_6e4b09c48022b2350581041d5f6b0c4c>@@$$QEAV<lambda_2358e3775559c9db80273638284d5e45>@@@Z@4HA 0000000180030314     libucrt:exit.obj
 0002:0000b314       $unwind$?fin$0@?0???$?RV<lambda_638799b9deba96c50f710eeac98168cd>@@AEAV<lambda_22ebabd17bc4fa466a2aca6d8deb888d>@@V<lambda_a6f7d7db0129f75315ebf26d50c089f1>@@@?$__crt_seh_guarded_call@H@@QEAAH$$QEAV<lambda_638799b9deba96c50f710eeac98168cd>@@AEAV<lambda_22ebabd17bc4fa466a2aca6d8deb888d>@@$$QEAV<lambda_a6f7d7db0129f75315ebf26d50c089f1>@@@Z@4HA 0000000180030314     libucrt:onexit.obj
 0002:0000b314       $unwind$?fin$0@?0???$?RV<lambda_7777bce6b2f8c936911f934f8298dc43>@@AEAV<lambda_f03950bc5685219e0bcd2087efbe011e>@@V<lambda_3883c3dff614d5e0c5f61bb1ac94921c>@@@?$__crt_seh_guarded_call@H@@QEAAH$$QEAV<lambda_7777bce6b2f8c936911f934f8298dc43>@@AEAV<lambda_f03950bc5685219e0bcd2087efbe011e>@@$$QEAV<lambda_3883c3dff614d5e0c5f61bb1ac94921c>@@@Z@4HA 0000000180030314     libucrt:onexit.obj
 0002:0000b314       $unwind$_fcloseall$fin$0   0000000180030314     libucrt:closeall.obj
 0002:0000b314       $unwind$?fin$0@?0???$?RV<lambda_842d9ff0dc9ef11c61343bbaebe7f885>@@AEAV<lambda_c5860995281e5c4ce005b3de8f5874ee>@@V<lambda_d90129c13df834fdcbf8d2b88dafcf2d>@@@?$__crt_seh_guarded_call@X@@QEAAX$$QEAV<lambda_842d9ff0dc9ef11c61343bbaebe7f885>@@AEAV<lambda_c5860995281e5c4ce005b3de8f5874ee>@@$$QEAV<lambda_d90129c13df834fdcbf8d2b88dafcf2d>@@@Z@4HA 0000000180030314     libucrt:fflush.obj
 0002:0000b314       $unwind$?fin$0@?0???$?RV<lambda_886d6c58226a84441f68b9f2b8217b83>@@AEAV<lambda_ab61a845afdef5b7c387490eaf3616ee>@@V<lambda_f7f22ab5edc0698d5f6905b0d3f44752>@@@?$__crt_seh_guarded_call@X@@QEAAX$$QEAV<lambda_886d6c58226a84441f68b9f2b8217b83>@@AEAV<lambda_ab61a845afdef5b7c387490eaf3616ee>@@$$QEAV<lambda_f7f22ab5edc0698d5f6905b0d3f44752>@@@Z@4HA 0000000180030314     libucrt:fflush.obj
 0002:0000b314       $unwind$_ctrlfp$filt$0     0000000180030314     libucrt:fpctrl.obj
 0002:0000b314       $unwind$common_control87$filt$0 0000000180030314     libucrt:ieee.obj
 0002:0000b314       $unwind$?fin$0@?0??dllmain_crt_process_attach@@YAHQEAUHINSTANCE__@@QEAX@Z@4HA 0000000180030314     LIBCMT:dll_dllmain.obj
 0002:0000b314       $unwind$?fin$0@?0??dllmain_crt_process_detach@@YAH_N@Z@4HA 0000000180030314     LIBCMT:dll_dllmain.obj
 0002:0000b314       $unwind$?fin$1@?0??dllmain_crt_process_detach@@YAH_N@Z@4HA 0000000180030314     LIBCMT:dll_dllmain.obj
 0002:0000b314       $unwind$_IsNonwritableInCurrentImage$filt$0 0000000180030314     LIBCMT:pesect.obj
 0002:0000b314       $unwind$?filt$0@?0??CxxCallCatchBlock@__FrameHandler3@@SAPEAXPEAU_EXCEPTION_RECORD@@@Z@4HA 0000000180030314     libvcruntime:frame.obj
 0002:0000b314       $unwind$?filt$0@?0??CxxCallCatchBlock@__FrameHandler4@@SAPEAXPEAU_EXCEPTION_RECORD@@@Z@4HA 0000000180030314     libvcruntime:frame.obj
 0002:0000b314       $unwind$?filt$0@?0??FrameUnwindToState@__FrameHandler3@@SAXPEA_KPEAU_xDISPATCHER_CONTEXT@@PEBU_s_FuncInfo@@H@Z@4HA 0000000180030314     libvcruntime:frame.obj
 0002:0000b314       $unwind$?fin$1@?0??FrameUnwindToState@__FrameHandler3@@SAXPEA_KPEAU_xDISPATCHER_CONTEXT@@PEBU_s_FuncInfo@@H@Z@4HA 0000000180030314     libvcruntime:frame.obj
 0002:0000b31c       $unwind$?AtlInternalOleLoadFromStream@ATL@@YAJPEAUIStream@@AEBU_GUID@@PEAPEAXTClassesAllowedInStream@1@K@Z 000000018003031c     CoinDispenser.obj
 0002:0000b338       $unwind$?ReadFromStream@CComBSTR@ATL@@QEAAJPEAUIStream@@@Z 0000000180030338     CoinDispenser.obj
 0002:0000b338       $unwind$_configure_narrow_argv 0000000180030338     libucrt:argv_parsing.obj
 0002:0000b34c       $unwind$?WriteToStream@CComVariant@ATL@@QEAAJPEAUIStream@@@Z 000000018003034c     CoinDispenser.obj
 0002:0000b360       $unwind$?RegOpenKeyExW@CAtlTransactionManager@ATL@@QEAAJPEAUHKEY__@@PEB_WKKPEAPEAU3@@Z 0000000180030360     CoinDispenser.obj
 0002:0000b360       $unwind$?WriteToStream@CComVariant@ATL@@QEAAJPEAUIStream@@G@Z 0000000180030360     CoinDispenser.obj
 0002:0000b360       $unwind$__dcrt_write_console 0000000180030360     libucrt:initcon.obj
 0002:0000b360       $unwind$??$__acrt_convert_wcs_mbs_cp@_WDV<lambda_f788ae46380686e8b737efdd8c720d07>@@U__crt_win32_buffer_no_resizing@@@@YAHQEB_WAEAV?$__crt_win32_buffer@DU__crt_win32_buffer_no_resizing@@@@AEBV<lambda_f788ae46380686e8b737efdd8c720d07>@@I@Z 0000000180030360     libucrt:getmodulefilenamea.obj
 0002:0000b374       $unwind$?ReadFromStream@CComVariant@ATL@@QEAAJPEAUIStream@@GTClassesAllowedInStream@2@K@Z 0000000180030374     CoinDispenser.obj
 0002:0000b38c       $unwind$?GetSizeMax@CComVariant@ATL@@QEBAJPEAT_ULARGE_INTEGER@@@Z 000000018003038c     CoinDispenser.obj
 0002:0000b3a0       $unwind$?RegCreateKeyExW@CAtlTransactionManager@ATL@@QEAAJPEAUHKEY__@@PEB_WKPEA_WKKQEAU_SECURITY_ATTRIBUTES@@PEAPEAU3@PEAK@Z 00000001800303a0     CoinDispenser.obj
 0002:0000b3b4       $unwind$?GetGITPtr@CAtlModule@ATL@@UEAAJPEAPEAUIGlobalInterfaceTable@@@Z 00000001800303b4     CoinDispenser.obj
 0002:0000b3b4       $unwind$?RegDeleteKeyW@CAtlTransactionManager@ATL@@QEAAJPEAUHKEY__@@PEB_W@Z 00000001800303b4     CoinDispenser.obj
 0002:0000b3b4       $unwind$?getStateFromIterators@UWMap4@FH4@@SAHAEBViterator@12@H0H0@Z 00000001800303b4     libvcruntime:frame.obj
 0002:0000b3c4       $unwind$?AtlHiMetricToPixel@ATL@@YAXPEBUtagSIZE@@PEAU2@@Z 00000001800303c4     CoinDispenser.obj
 0002:0000b3c4       $unwind$?AtlInternalQueryInterface@ATL@@YAJPEAXPEBU_ATL_INTMAP_ENTRY@1@AEBU_GUID@@PEAPEAX@Z 00000001800303c4     CoinDispenser.obj
 0002:0000b3dc       $unwind$?Append@CParseBuffer@CRegParser@ATL@@QEAAHPEB_WH@Z 00000001800303dc     CoinDispenser.obj
 0002:0000b3dc       $unwind$?AtlComModuleGetClassObject@ATL@@YAJPEAU_ATL_COM_MODULE70@1@AEBU_GUID@@1PEAPEAX@Z 00000001800303dc     CoinDispenser.obj
 0002:0000b3dc       $unwind$?GetClassObject@CComModule@ATL@@QEAAJAEBU_GUID@@0PEAPEAX@Z 00000001800303dc     CoinDispenser.obj
 0002:0000b3dc       $unwind$?NextToken@CRegParser@ATL@@IEAAJPEA_W@Z 00000001800303dc     CoinDispenser.obj
 0002:0000b3dc       $unwind$?StartWindowProc@?$CWindowImplBaseT@VCWindow@ATL@@V?$CWinTraits@$0FGAAAAAA@$0A@@2@@ATL@@SA_JPEAUHWND__@@I_K_J@Z 00000001800303dc     CoinDispenser.obj
 0002:0000b3dc       $unwind$?fp_format_f_internal@@YAHQEAD_KHQEAU_strflt@@_NAEAV__crt_cached_ptd_host@@@Z 00000001800303dc     libucrt:cvt.obj
 0002:0000b3dc       $unwind$__acrt_DownlevelLocaleNameToLCID 00000001800303dc     libucrt:lcidtoname_downlevel.obj
 0002:0000b3dc       $unwind$??R<lambda_f03950bc5685219e0bcd2087efbe011e>@@QEBAHXZ 00000001800303dc     libucrt:onexit.obj
 0002:0000b3f4       $unwind$?AtlRegisterClassCategoriesHelper@ATL@@YAJAEBU_GUID@@PEBU_ATL_CATMAP_ENTRY@1@H@Z 00000001800303f4     CoinDispenser.obj
 0002:0000b418       $unwind$?AtlLoadTypeLib@ATL@@YAJPEAUHINSTANCE__@@PEB_WPEAPEA_WPEAPEAUITypeLib@@@Z 0000000180030418     CoinDispenser.obj
 0002:0000b438       $unwind$?AtlRegisterTypeLib@ATL@@YAJPEAUHINSTANCE__@@PEB_W@Z 0000000180030438     CoinDispenser.obj
 0002:0000b454       $unwind$?AtlUnRegisterTypeLib@ATL@@YAJPEAUHINSTANCE__@@PEB_W@Z 0000000180030454     CoinDispenser.obj
 0002:0000b45c       $unwind$?GetTI@CComTypeInfoHolder@ATL@@QEAAJK@Z 000000018003045c     CoinDispenser.obj
 0002:0000b45c       $unwind$?RecurseDeleteKey@CRegKey@ATL@@QEAAJPEB_W@Z 000000018003045c     CoinDispenser.obj
 0002:0000b47c       $unwind$?UpdateRegistryFromResource@CAtlModule@ATL@@QEAAJIHPEAU_ATL_REGMAP_ENTRY@2@@Z 000000018003047c     CoinDispenser.obj
 0002:0000b47c       $unwind$?UpdateRegistryFromResource@CAtlModule@ATL@@QEAAJPEB_WHPEAU_ATL_REGMAP_ENTRY@2@@Z 000000018003047c     CoinDispenser.obj
 0002:0000b49c       $unwind$?Lookup@?$CSimpleMap@PEA_WPEA_WVCExpansionVectorEqualHelper@ATL@@@ATL@@QEBAPEA_WAEBQEA_W@Z 000000018003049c     CoinDispenser.obj
 0002:0000b49c       $unwind$_free_osfhnd       000000018003049c     libucrt:osfinfo.obj
 0002:0000b49c       $unwind$__std_exception_copy 000000018003049c     libvcruntime:std_exception.obj
 0002:0000b4b0       $unwind$?Add@CExpansionVector@ATL@@QEAAHPEB_W0@Z 00000001800304b0     CoinDispenser.obj
 0002:0000b4c8       $unwind$?PreProcessBuffer@CRegParser@ATL@@QEAAJPEA_WPEAPEA_W@Z 00000001800304c8     CoinDispenser.obj
 0002:0000b4ec       $unwind$?RegisterBuffer@CRegParser@ATL@@QEAAJPEA_WH@Z 00000001800304ec     CoinDispenser.obj
 0002:0000b50c       $unwind$?AddValue@CRegParser@ATL@@IEAAJAEAVCRegKey@2@PEB_WPEA_W@Z 000000018003050c     CoinDispenser.obj
 0002:0000b52c       $unwind$?RegisterSubkeys@CRegParser@ATL@@IEAAJPEA_WPEAUHKEY__@@HH@Z 000000018003052c     CoinDispenser.obj
 0002:0000b54c       $unwind$?SkipAssignment@CRegParser@ATL@@IEAAJPEA_W@Z 000000018003054c     CoinDispenser.obj
 0002:0000b568       $unwind$?RegisterFromResource@CRegObject@ATL@@IEAAJPEB_W00H@Z 0000000180030568     CoinDispenser.obj
 0002:0000b588       $unwind$?Cleanup@CComTypeInfoHolder@ATL@@SAX_K@Z 0000000180030588     CoinDispenser.obj
 0002:0000b588       $unwind$_free_base         0000000180030588     libucrt:free_base.obj
 0002:0000b588       $unwind$?destroy_fls@@YAXPEAX@Z 0000000180030588     libucrt:per_thread_data.obj
 0002:0000b588       $unwind$__acrt_locale_free_numeric 0000000180030588     libucrt:initnum.obj
 0002:0000b588       $unwind$__acrt_locale_free_lc_time_if_unreferenced 0000000180030588     libucrt:locale_refcounting.obj
 0002:0000b588       $unwind$AtlThunk_FreeData  0000000180030588     atls:atlthunk.obj
 0002:0000b590       $unwind$?GetIDsOfNames@CComTypeInfoHolder@ATL@@QEAAJAEBU_GUID@@PEAPEA_WIKPEAJ@Z 0000000180030590     CoinDispenser.obj
 0002:0000b5ac       $unwind$?LoadNameCache@CComTypeInfoHolder@ATL@@QEAAJPEAUITypeInfo@@@Z 00000001800305ac     CoinDispenser.obj
 0002:0000b5c4       $unwind$?WindowProc@?$CWindowImplBaseT@VCWindow@ATL@@V?$CWinTraits@$0FGAAAAAA@$0A@@2@@ATL@@SA_JPEAUHWND__@@I_K_J@Z 00000001800305c4     CoinDispenser.obj
 0002:0000b5dc       $unwind$?atlCreate@?$CWindowImplBaseT@VCWindow@ATL@@V?$CWinTraits@$0FGAAAAAA@$0A@@2@@ATL@@QEAAPEAUHWND__@@PEAU3@V_U_RECT@2@PEB_WKKV_U_MENUorID@2@GPEAX@Z 00000001800305dc     CoinDispenser.obj
 0002:0000b5f4       $unwind$??$AtlModuleRegisterWndClassInfoT@VAtlModuleRegisterWndClassInfoParamW@ATL@@@ATL@@YAGPEAU_ATL_BASE_MODULE70@0@PEAU_ATL_WIN_MODULE70@0@PEAU_ATL_WNDCLASSINFOW@0@PEAP6A_JPEAUHWND__@@I_K_J@ZVAtlModuleRegisterWndClassInfoParamW@0@@Z 00000001800305f4     CoinDispenser.obj
 0002:0000b614       $unwind$?GetZoomInfo@CComControlBase@ATL@@QEAAXAEAUATL_DRAWINFO@@@Z 0000000180030614     CoinDispenser.obj
 0002:0000b614       $unwind$?OnKillFocus@CComControlBase@ATL@@QEAA_JI_K_JAEAH@Z 0000000180030614     CoinDispenser.obj
 0002:0000b614       $unwind$?get_raw_ptd@__crt_cached_ptd_host@@QEAAPEAU__acrt_ptd@@XZ 0000000180030614     libucrt:invalid_parameter.obj
 0002:0000b620       $unwind$?SendOnDataChange@CComControlBase@ATL@@QEAAJK@Z 0000000180030620     CoinDispenser.obj
 0002:0000b630       $unwind$?OnSetFocus@CComControlBase@ATL@@QEAA_JI_K_JAEAH@Z 0000000180030630     CoinDispenser.obj
 0002:0000b644       $unwind$?OnMouseActivate@CComControlBase@ATL@@QEAA_JI_K_JAEAH@Z 0000000180030644     CoinDispenser.obj
 0002:0000b64c       $unwind$?GetAmbientLocaleID@CComControlBase@ATL@@QEAAJAEAK@Z 000000018003064c     CoinDispenser.obj
 0002:0000b64c       $unwind$?GetAmbientUserMode@CComControlBase@ATL@@QEAAJAEAH@Z 000000018003064c     CoinDispenser.obj
 0002:0000b65c       $unwind$?IQuickActivate_QuickActivate@CComControlBase@ATL@@QEAAJPEAUtagQACONTAINER@@PEAUtagQACONTROL@@@Z 000000018003065c     CoinDispenser.obj
 0002:0000b674       $unwind$?DoVerbProperties@CComControlBase@ATL@@QEAAJPEBUtagRECT@@PEAUHWND__@@@Z 0000000180030674     CoinDispenser.obj
 0002:0000b68c       $unwind$?InPlaceActivate@CComControlBase@ATL@@QEAAJJPEBUtagRECT@@@Z 000000018003068c     CoinDispenser.obj
 0002:0000b6ac       $unwind$?IOleObject_Close@CComControlBase@ATL@@QEAAJK@Z 00000001800306ac     CoinDispenser.obj
 0002:0000b6ac       $unwind$?get_raw_ptd_noexit@__crt_cached_ptd_host@@QEAAPEAU__acrt_ptd@@XZ 00000001800306ac     libucrt:invalid_parameter.obj
 0002:0000b6ac       $unwind$?type_case_c_tchar@?$output_processor@_WV?$string_output_adapter@_W@__crt_stdio_output@@V?$format_validation_base@_WV?$string_output_adapter@_W@__crt_stdio_output@@@2@@__crt_stdio_output@@AEAA_N_W@Z 00000001800306ac     libucrt:output.obj
 0002:0000b6bc       $unwind$?IOleInPlaceObject_UIDeactivate@CComControlBase@ATL@@QEAAJXZ 00000001800306bc     CoinDispenser.obj
 0002:0000b6d4       $unwind$?IOleInPlaceObject_SetObjectRects@CComControlBase@ATL@@QEAAJPEBUtagRECT@@0@Z 00000001800306d4     CoinDispenser.obj
 0002:0000b6e8       $unwind$?IViewObject_Draw@CComControlBase@ATL@@QEAAJKJPEAXPEAUtagDVTARGETDEVICE@@PEAUHDC__@@2PEBU_RECTL@@3@Z 00000001800306e8     CoinDispenser.obj
 0002:0000b704       $unwind$?IDataObject_GetData@CComControlBase@ATL@@QEAAJPEAUtagFORMATETC@@PEAUtagSTGMEDIUM@@@Z 0000000180030704     CoinDispenser.obj
 0002:0000b724       $unwind$?OnPaint@CComControlBase@ATL@@QEAA_JI_K_JAEAH@Z 0000000180030724     CoinDispenser.obj
 0002:0000b740       $unwind$?OnDrawAdvanced@CComControlBase@ATL@@UEAAJAEAUATL_DRAWINFO@@@Z 0000000180030740     CoinDispenser.obj
 0002:0000b75c       $unwind$?Invoke@?$IDispatchImpl@UIOPOSCoinDispenser@@$1?IID_IOPOSCoinDispenser@@3U_GUID@@B$1?LIBID_OposCoinDispenser_CCO@@3U3@B$00$0A@VCComTypeInfoHolder@ATL@@@ATL@@UEAAJJAEBU_GUID@@KGPEAUtagDISPPARAMS@@PEAUtagVARIANT@@PEAUtagEXCEPINFO@@PEAI@Z 000000018003075c     CoinDispenser.obj
 0002:0000b75c       $unwind$?ReleaseDevice@COPOSCoinDispenser@@UEAAJPEAJ@Z 000000018003075c     CoinDispenserImpl.obj
 0002:0000b75c       $unwind$_mbsdec_l          000000018003075c     libucrt:mbsdec.obj
 0002:0000b768       $unwind$?atlCreate@?$CWindowImpl@VCOPOSCoinDispenser@@VCWindow@ATL@@V?$CWinTraits@$0FGAAAAAA@$0A@@3@@ATL@@QEAAPEAUHWND__@@PEAU3@V_U_RECT@2@PEB_WKKV_U_MENUorID@2@PEAX@Z 0000000180030768     CoinDispenser.obj
 0002:0000b768       $unwind$?fp_format_f@@YAHQEBNQEAD_K12HW4__acrt_rounding_mode@@AEAV__crt_cached_ptd_host@@@Z 0000000180030768     libucrt:cvt.obj
 0002:0000b768       $unwind$__acrt_LCMapStringEx 0000000180030768     libucrt:winapi_thunks.obj
 0002:0000b77c       $unwind$?CreateControlWindow@?$CComControl@VCOPOSCoinDispenser@@V?$CWindowImpl@VCOPOSCoinDispenser@@VCWindow@ATL@@V?$CWinTraits@$0FGAAAAAA@$0A@@3@@ATL@@@ATL@@UEAAPEAUHWND__@@PEAU3@AEAUtagRECT@@@Z 000000018003077c     CoinDispenser.obj
 0002:0000b77c       $unwind$_raise_exc         000000018003077c     libucrt:fpexcept.obj
 0002:0000b77c       $unwind$?__scrt_throw_std_bad_alloc@@YAXXZ 000000018003077c     LIBCMT:throw_bad_alloc.obj
 0002:0000b77c       $unwind$?__scrt_throw_std_bad_array_new_length@@YAXXZ 000000018003077c     LIBCMT:throw_bad_alloc.obj
 0002:0000b784       $unwind$?ProcessWindowMessage@?$CComControl@VCOPOSCoinDispenser@@V?$CWindowImpl@VCOPOSCoinDispenser@@VCWindow@ATL@@V?$CWinTraits@$0FGAAAAAA@$0A@@3@@ATL@@@ATL@@UEAAHPEAUHWND__@@I_K_JAEA_JK@Z 0000000180030784     CoinDispenser.obj
 0002:0000b78c       $unwind$?GetSizeMax@?$IPersistStreamInitImpl@VCOPOSCoinDispenser@@@ATL@@UEAAJPEAT_ULARGE_INTEGER@@@Z 000000018003078c     CoinDispenser.obj
 0002:0000b7a4       $unwind$?IPersistStreamInit_Load@?$IPersistStreamInitImpl@VCOPOSCoinDispenser@@@ATL@@QEAAJPEAUIStream@@PEBUATL_PROPMAP_ENTRY@2@@Z 00000001800307a4     CoinDispenser.obj
 0002:0000b7c0       $unwind$?IPersistStreamInit_Save@?$IPersistStreamInitImpl@VCOPOSCoinDispenser@@@ATL@@QEAAJPEAUIStream@@HPEBUATL_PROPMAP_ENTRY@2@@Z 00000001800307c0     CoinDispenser.obj
 0002:0000b7dc       $unwind$?DoVerbPrimary@?$IOleObjectImpl@VCOPOSCoinDispenser@@@ATL@@QEAAJPEBUtagRECT@@PEAUHWND__@@@Z 00000001800307dc     CoinDispenser.obj
 0002:0000b7f4       $unwind$?TranslateAcceleratorW@?$IOleInPlaceActiveObjectImpl@VCOPOSCoinDispenser@@@ATL@@UEAAJPEAUtagMSG@@@Z 00000001800307f4     CoinDispenser.obj
 0002:0000b800       $unwind$?Draw@?$IViewObjectExImpl@VCOPOSCoinDispenser@@@ATL@@UEAAJKJPEAXPEAUtagDVTARGETDEVICE@@PEAUHDC__@@2PEBU_RECTL@@3P6AH_K@Z4@Z 0000000180030800     CoinDispenser.obj
 0002:0000b808       $unwind$?QueryHitRect@?$IViewObjectExImpl@VCOPOSCoinDispenser@@@ATL@@UEAAJKPEBUtagRECT@@0JPEAK@Z 0000000180030808     CoinDispenser.obj
 0002:0000b818       $unwind$?OnWindowMessage@?$IOleInPlaceObjectWindowlessImpl@VCOPOSCoinDispenser@@@ATL@@UEAAJI_K_JPEA_J@Z 0000000180030818     CoinDispenser.obj
 0002:0000b82c       $unwind$?EnumConnectionPoints@?$IConnectionPointContainerImpl@VCOPOSCoinDispenser@@@ATL@@UEAAJPEAPEAUIEnumConnectionPoints@@@Z 000000018003082c     CoinDispenser.obj
 0002:0000b854       $unwind$?FindConnectionPoint@?$IConnectionPointContainerImpl@VCOPOSCoinDispenser@@@ATL@@UEAAJAEBU_GUID@@PEAPEAUIConnectionPoint@@@Z 0000000180030854     CoinDispenser.obj
 0002:0000b870       $unwind$?Load@?$IPersistStorageImpl@VCOPOSCoinDispenser@@@ATL@@UEAAJPEAUIStorage@@@Z 0000000180030870     CoinDispenser.obj
 0002:0000b880       $unwind$?Save@?$IPersistStorageImpl@VCOPOSCoinDispenser@@@ATL@@UEAAJPEAUIStorage@@H@Z 0000000180030880     CoinDispenser.obj
 0002:0000b894       $unwind$?IPSI_GetIPersistStreamInit@?$IPersistStorageImpl@VCOPOSCoinDispenser@@@ATL@@AEAAPEAUIPersistStreamInit@@XZ 0000000180030894     CoinDispenser.obj
 0002:0000b8a8       $unwind$?GetInterfaceSafetyOptions@?$IObjectSafetyImpl@VCOPOSCoinDispenser@@$02@ATL@@UEAAJAEBU_GUID@@PEAK1@Z 00000001800308a8     CoinDispenser.obj
 0002:0000b8bc       $unwind$?SetInterfaceSafetyOptions@?$IObjectSafetyImpl@VCOPOSCoinDispenser@@$02@ATL@@UEAAJAEBU_GUID@@KK@Z 00000001800308bc     CoinDispenser.obj
 0002:0000b8d0       $unwind$?Advise@?$IConnectionPointImpl@VCOPOSCoinDispenser@@$1?DIID__IOPOSCoinDispenserEvents@@3U_GUID@@BVCComDynamicUnkArray@ATL@@@ATL@@UEAAJPEAUIUnknown@@PEAK@Z 00000001800308d0     CoinDispenser.obj
 0002:0000b8d0       $unwind$?Advise@?$IConnectionPointImpl@VCOPOSCoinDispenser@@$1?IID_IPropertyNotifySink@@3U_GUID@@BVCComDynamicUnkArray@ATL@@@ATL@@UEAAJPEAUIUnknown@@PEAK@Z 00000001800308d0     CoinDispenser.obj
 0002:0000b8e4       $unwind$?EnumConnections@?$IConnectionPointImpl@VCOPOSCoinDispenser@@$1?DIID__IOPOSCoinDispenserEvents@@3U_GUID@@BVCComDynamicUnkArray@ATL@@@ATL@@UEAAJPEAPEAUIEnumConnections@@@Z 00000001800308e4     CoinDispenser.obj
 0002:0000b8e4       $unwind$?EnumConnections@?$IConnectionPointImpl@VCOPOSCoinDispenser@@$1?IID_IPropertyNotifySink@@3U_GUID@@BVCComDynamicUnkArray@ATL@@@ATL@@UEAAJPEAPEAUIEnumConnections@@@Z 00000001800308e4     CoinDispenser.obj
 0002:0000b8fc       $unwind$?Fire_DirectIOEvent@?$CProxy_IOPOSEvents@VCOPOSCoinDispenser@@@@QEAAXJPEAJPEAPEA_W@Z 00000001800308fc     CoinDispenser.obj
 0002:0000b91c       $unwind$?Fire_StatusUpdateEvent@?$CProxy_IOPOSEvents@VCOPOSCoinDispenser@@@@QEAAXJ@Z 000000018003091c     CoinDispenser.obj
 0002:0000b91c       $unwind$?fp_format_e@@YAHQEBNQEAD_K12H_NIW4__acrt_rounding_mode@@AEAV__crt_cached_ptd_host@@@Z 000000018003091c     libucrt:cvt.obj
 0002:0000b91c       $unwind$??$__InternalCxxFrameHandler@V__FrameHandler3@@@@YA?AW4_EXCEPTION_DISPOSITION@@PEAUEHExceptionRecord@@PEA_KPEAU_CONTEXT@@PEAU_xDISPATCHER_CONTEXT@@PEBU_s_FuncInfo@@H1E@Z 000000018003091c     libvcruntime:frame.obj
 0002:0000b934       $unwind$?FireTheEvent@?$CProxy_IOPOSEvents@VCOPOSCoinDispenser@@@@IEAAXPEAVOposVariant@@IAEAJPEB_WJ@Z 0000000180030934     CoinDispenser.obj
 0002:0000b944       $unwind$?ProcessWindowMessage@COPOSCoinDispenser@@UEAAHPEAUHWND__@@I_K_JAEA_JK@Z 0000000180030944     CoinDispenser.obj
 0002:0000b95c       $unwind$?Clone@?$CComEnumImpl@UIEnumConnectionPoints@@$1?_GUID_b196b285_bab4_101a_b69c_00aa00341d07@@3U__s_GUID@@BPEAUIConnectionPoint@@V?$_CopyInterface@UIConnectionPoint@@@ATL@@@ATL@@UEAAJPEAPEAUIEnumConnectionPoints@@@Z 000000018003095c     CoinDispenser.obj
 0002:0000b95c       $unwind$?Clone@?$CComEnumImpl@UIEnumConnections@@$1?_GUID_b196b287_bab4_101a_b69c_00aa00341d07@@3U__s_GUID@@BUtagCONNECTDATA@@V?$_Copy@UtagCONNECTDATA@@@ATL@@@ATL@@UEAAJPEAPEAUIEnumConnections@@@Z 000000018003095c     CoinDispenser.obj
 0002:0000b974       $unwind$?Init@?$CComEnumImpl@UIEnumConnectionPoints@@$1?_GUID_b196b285_bab4_101a_b69c_00aa00341d07@@3U__s_GUID@@BPEAUIConnectionPoint@@V?$_CopyInterface@UIConnectionPoint@@@ATL@@@ATL@@QEAAJPEAPEAUIConnectionPoint@@0PEAUIUnknown@@W4CComEnumFlags@2@@Z 0000000180030974     CoinDispenser.obj
 0002:0000b974       $unwind$?Init@?$CComEnumImpl@UIEnumConnections@@$1?_GUID_b196b287_bab4_101a_b69c_00aa00341d07@@3U__s_GUID@@BUtagCONNECTDATA@@V?$_Copy@UtagCONNECTDATA@@@ATL@@@ATL@@QEAAJPEAUtagCONNECTDATA@@0PEAUIUnknown@@W4CComEnumFlags@2@@Z 0000000180030974     CoinDispenser.obj
 0002:0000b974       $unwind$?should_round_up@@YA_NQEBN_KFW4__acrt_rounding_mode@@@Z 0000000180030974     libucrt:cvt.obj
 0002:0000b974       $unwind$??$parse_command_line@D@@YAXPEADPEAPEAD0PEA_K2@Z 0000000180030974     libucrt:argv_parsing.obj
 0002:0000b990       $unwind$?GetOposProp@COPOSCoinDispenser@@IEAAJJPEAJJ@Z 0000000180030990     CoinDispenserImpl.obj
 0002:0000b990       $unwind$?GetOposProp@COPOSCoinDispenser@@IEAAJJPEAPEA_WJ@Z 0000000180030990     CoinDispenserImpl.obj
 0002:0000b9a8       $unwind$?SetOposProp@COPOSCoinDispenser@@IEAAJJJJ@Z 00000001800309a8     CoinDispenserImpl.obj
 0002:0000b9c8       $unwind$?DoInvoke@COPOSCoinDispenser@@IEAAJJPEAVOposVariant@@IHPEAJ_N@Z 00000001800309c8     CoinDispenserImpl.obj
 0002:0000b9e0       $unwind$?SetCOFreezeEvents@COPOSCoinDispenser@@IEAAXF@Z 00000001800309e0     CoinDispenserImpl.obj
 0002:0000b9f4       $unwind$?OnDraw@COPOSCoinDispenser@@MEAAJAEAUATL_DRAWINFO@@@Z 00000001800309f4     CoinDispenserImpl.obj
 0002:0000ba0c       $unwind$?EventInit@COPOSCoinDispenser@@IEAAJXZ 0000000180030a0c     CoinDispenserImpl.obj
 0002:0000ba20       $unwind$?get_ControlObjectDescription@COPOSCoinDispenser@@UEAAJPEAPEA_W@Z 0000000180030a20     CoinDispenserImpl.obj
 0002:0000ba20       $unwind$__dcrt_lowio_ensure_console_output_initialized 0000000180030a20     libucrt:initcon.obj
 0002:0000ba20       $unwind$?__mbrtowc_utf8@__crt_mbstring@@YA_KPEA_WPEBD_KPEAU_Mbstatet@@AEAV__crt_cached_ptd_host@@@Z 0000000180030a20     libucrt:mbrtowc.obj
 0002:0000ba20       $unwind$?getSystemCP@@YAHH@Z 0000000180030a20     libucrt:mbctype.obj
 0002:0000ba28       $unwind$?AdjustCashCounts@COPOSCoinDispenser@@UEAAJPEA_WPEAJ@Z 0000000180030a28     CoinDispenserImpl.obj
 0002:0000ba28       $unwind$?CheckHealth@COPOSCoinDispenser@@UEAAJJPEAJ@Z 0000000180030a28     CoinDispenserImpl.obj
 0002:0000ba28       $unwind$?DispenseChange@COPOSCoinDispenser@@UEAAJJPEAJ@Z 0000000180030a28     CoinDispenserImpl.obj
 0002:0000ba28       $unwind$?ResetStatistics@COPOSCoinDispenser@@UEAAJPEA_WPEAJ@Z 0000000180030a28     CoinDispenserImpl.obj
 0002:0000ba28       $unwind$?RetrieveStatistics@COPOSCoinDispenser@@UEAAJPEAPEA_WPEAJ@Z 0000000180030a28     CoinDispenserImpl.obj
 0002:0000ba28       $unwind$?UpdateFirmware@COPOSCoinDispenser@@UEAAJPEA_WPEAJ@Z 0000000180030a28     CoinDispenserImpl.obj
 0002:0000ba28       $unwind$?UpdateStatistics@COPOSCoinDispenser@@UEAAJPEA_WPEAJ@Z 0000000180030a28     CoinDispenserImpl.obj
 0002:0000ba38       $unwind$?ClaimDevice@COPOSCoinDispenser@@UEAAJJPEAJ@Z 0000000180030a38     CoinDispenserImpl.obj
 0002:0000ba48       $unwind$?Close@COPOSCoinDispenser@@UEAAJPEAJ@Z 0000000180030a48     CoinDispenserImpl.obj
 0002:0000ba54       $unwind$?DirectIO@COPOSCoinDispenser@@UEAAJJPEAJPEAPEA_W0@Z 0000000180030a54     CoinDispenserImpl.obj
 0002:0000ba70       $unwind$?Open@COPOSCoinDispenser@@UEAAJPEA_WPEAJ@Z 0000000180030a70     CoinDispenserImpl.obj
 0002:0000ba94       $unwind$?CompareFirmwareVersion@COPOSCoinDispenser@@UEAAJPEA_WPEAJ1@Z 0000000180030a94     CoinDispenserImpl.obj
 0002:0000ba94       $unwind$?ReadCashCounts@COPOSCoinDispenser@@UEAAJPEAPEA_WPEAFPEAJ@Z 0000000180030a94     CoinDispenserImpl.obj
 0002:0000ba94       $unwind$?initialize_inherited_file_handles_nolock@@YAXXZ 0000000180030a94     libucrt:ioinit.obj
 0002:0000bab0       $unwind$__scrt_is_nonwritable_in_current_image 0000000180030ab0     LIBCMT:utility.obj
 0002:0000bad0       $unwind$__scrt_is_nonwritable_in_current_image$filt$0 0000000180030ad0     LIBCMT:utility.obj
 0002:0000bad8       $unwind$__report_securityfailure 0000000180030ad8     LIBCMT:gs_report.obj
 0002:0000bae0       $unwind$__report_gsfailure 0000000180030ae0     LIBCMT:gs_report.obj
 0002:0000bae8       $unwind$capture_current_context 0000000180030ae8     LIBCMT:gs_report.obj
 0002:0000baf4       $unwind$capture_previous_context 0000000180030af4     LIBCMT:gs_report.obj
 0002:0000bb00       $unwind$??2@YAPEAX_KAEBUnothrow_t@std@@@Z 0000000180030b00     LIBCMT:new_scalar_nothrow.obj
 0002:0000bb10       $cppxdata$??2@YAPEAX_KAEBUnothrow_t@std@@@Z 0000000180030b10     LIBCMT:new_scalar_nothrow.obj
 0002:0000bb1d       $stateUnwindMap$??2@YAPEAX_KAEBUnothrow_t@std@@@Z 0000000180030b1d     LIBCMT:new_scalar_nothrow.obj
 0002:0000bb20       $tryMap$??2@YAPEAX_KAEBUnothrow_t@std@@@Z 0000000180030b20     LIBCMT:new_scalar_nothrow.obj
 0002:0000bb28       $handlerMap$??2@YAPEAX_KAEBUnothrow_t@std@@@Z 0000000180030b28     LIBCMT:new_scalar_nothrow.obj
 0002:0000bb30       $ip2state$??2@YAPEAX_KAEBUnothrow_t@std@@@Z 0000000180030b30     LIBCMT:new_scalar_nothrow.obj
 0002:0000bb34       $unwind$?catch$0@?0???2@YAPEAX_KAEBUnothrow_t@std@@@Z@4HA 0000000180030b34     LIBCMT:new_scalar_nothrow.obj
 0002:0000bb44       $cppxdata$?catch$0@?0???2@YAPEAX_KAEBUnothrow_t@std@@@Z@4HA 0000000180030b44     LIBCMT:new_scalar_nothrow.obj
 0002:0000bb4e       $stateUnwindMap$?catch$0@?0???2@YAPEAX_KAEBUnothrow_t@std@@@Z@4HA 0000000180030b4e     LIBCMT:new_scalar_nothrow.obj
 0002:0000bb50       $ip2state$?catch$0@?0???2@YAPEAX_KAEBUnothrow_t@std@@@Z@4HA 0000000180030b50     LIBCMT:new_scalar_nothrow.obj
 0002:0000bb54       $unwind$__GSHandlerCheckCommon 0000000180030b54     LIBCMT:gshandler.obj
 0002:0000bb60       $xdatasym                  0000000180030b60     LIBCMT:chkstk.obj
 0002:0000bb68       $xdatasym                  0000000180030b68     LIBCMT:amdsecgs.obj
 0002:0000bb6c       $unwind$?dllmain_crt_process_attach@@YAHQEAUHINSTANCE__@@QEAX@Z 0000000180030b6c     LIBCMT:dll_dllmain.obj
 0002:0000bba8       $unwind$?dllmain_crt_process_detach@@YAH_N@Z 0000000180030ba8     LIBCMT:dll_dllmain.obj
 0002:0000bbfc       $unwind$?dllmain_dispatch@@YAHQEAUHINSTANCE__@@KQEAX@Z 0000000180030bfc     LIBCMT:dll_dllmain.obj
 0002:0000bc24       $unwind$_write_internal$fin$0 0000000180030c24     libucrt:write.obj
 0002:0000bc24       $unwind$?fin$0@?0??_fclose_internal@@YAHQEAU_iobuf@@AEAV__crt_cached_ptd_host@@@Z@4HA 0000000180030c24     libucrt:fclose.obj
 0002:0000bc24       $unwind$?filt$0@?0??dllmain_dispatch@@YAHQEAUHINSTANCE__@@KQEAX@Z@4HA 0000000180030c24     LIBCMT:dll_dllmain.obj
 0002:0000bc24       $unwind$?filt$0@?0??FrameUnwindToState@__FrameHandler4@@SAXPEA_KPEAU_xDISPATCHER_CONTEXT@@PEAUFuncInfo4@FH4@@H@Z@4HA 0000000180030c24     libvcruntime:frame.obj
 0002:0000bc24       $unwind$?fin$1@?0??FrameUnwindToState@__FrameHandler4@@SAXPEA_KPEAU_xDISPATCHER_CONTEXT@@PEAUFuncInfo4@FH4@@H@Z@4HA 0000000180030c24     libvcruntime:frame.obj
 0002:0000bc2c       $unwind$__isa_available_init 0000000180030c2c     LIBCMT:cpu_disp.obj
 0002:0000bc3c       $unwind$__scrt_fastfail    0000000180030c3c     LIBCMT:utility_desktop.obj
 0002:0000bc4c       $unwind$__security_init_cookie 0000000180030c4c     LIBCMT:gs_support.obj
 0002:0000bc58       $xdatasym                  0000000180030c58     LIBCMT:guard_dispatch.obj
 0002:0000bc60       $xdatasym                  0000000180030c60     LIBCMT:guard_xfg_dispatch.obj
 0002:0000bc64       $unwind$AtlThunk_InitData  0000000180030c64     atls:atlthunk.obj
 0002:0000bc78       $unwind$wcsstr             0000000180030c78     libvcruntime:wcsstr.obj
 0002:0000bc90       $xdatasym                  0000000180030c90     libvcruntime:memcmp.obj
 0002:0000bc98       $xdatasym                  0000000180030c98     libvcruntime:memcpy.obj
 0002:0000bca8       $xdatasym                  0000000180030ca8     libvcruntime:memset.obj
 0002:0000bcb8       $unwind$__C_specific_handler 0000000180030cb8     libvcruntime:riscchandler.obj
 0002:0000bcb8       $unwind$?GetRangeOfTrysToCheck@__FrameHandler3@@SA?AU?$pair@Viterator@TryBlockMap@__FrameHandler3@@V123@@std@@AEAVTryBlockMap@1@HPEAU_xDISPATCHER_CONTEXT@@PEBU_s_FuncInfo@@H@Z 0000000180030cb8     libvcruntime:risctrnsctrl.obj
 0002:0000bcd4       $unwind$?StateFromIp@__FrameHandler4@@SAHPEAUFuncInfo4@FH4@@PEAU_xDISPATCHER_CONTEXT@@_K@Z 0000000180030cd4     libvcruntime:ehstate.obj
 0002:0000bcd4       $unwind$?DecompFuncInfo@FH4@@YA_JPEAEAEAUFuncInfo4@1@_KH_N@Z 0000000180030cd4     libvcruntime:risctrnsctrl.obj
 0002:0000bcec       $unwind$?GetEstablisherFrame@__FrameHandler3@@SAPEA_KPEA_KPEAU_xDISPATCHER_CONTEXT@@PEBU_s_FuncInfo@@0@Z 0000000180030cec     libvcruntime:risctrnsctrl.obj
 0002:0000bd04       $unwind$?UnwindNestedFrames@__FrameHandler3@@SAXPEA_KPEAUEHExceptionRecord@@PEAU_CONTEXT@@0PEAXPEBU_s_FuncInfo@@HHPEBU_s_HandlerType@@PEAU_xDISPATCHER_CONTEXT@@E@Z 0000000180030d04     libvcruntime:risctrnsctrl.obj
 0002:0000bd04       $unwind$?UnwindNestedFrames@__FrameHandler4@@SAXPEA_KPEAUEHExceptionRecord@@PEAU_CONTEXT@@0PEAXPEAUFuncInfo4@FH4@@HHPEAUHandlerType4@5@PEAU_xDISPATCHER_CONTEXT@@E@Z 0000000180030d04     libvcruntime:risctrnsctrl.obj
 0002:0000bd18       $unwind$?GetRangeOfTrysToCheck@__FrameHandler4@@SA?AU?$pair@Viterator@TryBlockMap4@FH4@@V123@@std@@AEAVTryBlockMap4@FH4@@HPEAU_xDISPATCHER_CONTEXT@@PEAUFuncInfo4@5@H@Z 0000000180030d18     libvcruntime:risctrnsctrl.obj
 0002:0000bd34       $unwind$__CxxFrameHandler3 0000000180030d34     libvcruntime:risctrnsctrl.obj
 0002:0000bd48       $unwind$__CxxFrameHandler4 0000000180030d48     libvcruntime:risctrnsctrl.obj
 0002:0000bd5c       $unwind$??$_CallSETranslator@V__FrameHandler4@@@@YAHPEAUEHExceptionRecord@@PEA_KPEAU_CONTEXT@@PEAU_xDISPATCHER_CONTEXT@@PEAUFuncInfo4@FH4@@K1H@Z 0000000180030d5c     libvcruntime:risctrnsctrl.obj
 0002:0000bd7c       $unwind$?filt$0@?0???$_CallSETranslator@V__FrameHandler3@@@@YAHPEAUEHExceptionRecord@@PEA_KPEAU_CONTEXT@@PEAU_xDISPATCHER_CONTEXT@@PEBU_s_FuncInfo@@K1H@Z@4HA 0000000180030d7c     libvcruntime:risctrnsctrl.obj
 0002:0000bd7c       $unwind$?filt$0@?0???$_CallSETranslator@V__FrameHandler4@@@@YAHPEAUEHExceptionRecord@@PEA_KPEAU_CONTEXT@@PEAU_xDISPATCHER_CONTEXT@@PEAUFuncInfo4@FH4@@K1H@Z@4HA 0000000180030d7c     libvcruntime:risctrnsctrl.obj
 0002:0000bd88       $unwind$??$_CallSETranslator@V__FrameHandler3@@@@YAHPEAUEHExceptionRecord@@PEA_KPEAU_CONTEXT@@PEAU_xDISPATCHER_CONTEXT@@PEBU_s_FuncInfo@@K1H@Z 0000000180030d88     libvcruntime:risctrnsctrl.obj
 0002:0000bda8       $unwind$__DestructExceptionObject 0000000180030da8     libvcruntime:ehhelpers.obj
 0002:0000bdc8       $unwind$__DestructExceptionObject$filt$0 0000000180030dc8     libvcruntime:ehhelpers.obj
 0002:0000bdc8       $unwind$?fin$1@?0??CxxCallCatchBlock@__FrameHandler3@@SAPEAXPEAU_EXCEPTION_RECORD@@@Z@4HA 0000000180030dc8     libvcruntime:frame.obj
 0002:0000bdc8       $unwind$?fin$1@?0??CxxCallCatchBlock@__FrameHandler4@@SAPEAXPEAU_EXCEPTION_RECORD@@@Z@4HA 0000000180030dc8     libvcruntime:frame.obj
 0002:0000bdd4       $unwind$_CxxThrowException 0000000180030dd4     libvcruntime:throw.obj
 0002:0000bde8       $xdatasym                  0000000180030de8     libvcruntime:notify.obj
 0002:0000bdf4       $unwind$?getStartStop@UWMap4@FH4@@QEAAXHHAEAViterator@12@0@Z 0000000180030df4     libvcruntime:frame.obj
 0002:0000be0c       $unwind$?FrameUnwindToState@__FrameHandler3@@SAXPEA_KPEAU_xDISPATCHER_CONTEXT@@PEBU_s_FuncInfo@@H@Z 0000000180030e0c     libvcruntime:frame.obj
 0002:0000be58       $unwind$?CxxCallCatchBlock@__FrameHandler3@@SAPEAXPEAU_EXCEPTION_RECORD@@@Z 0000000180030e58     libvcruntime:frame.obj
 0002:0000be94       $unwind$?FrameUnwindToState@__FrameHandler4@@SAXPEA_KPEAU_xDISPATCHER_CONTEXT@@PEAUFuncInfo4@FH4@@H@Z 0000000180030e94     libvcruntime:frame.obj
 0002:0000bedc       $unwind$?CxxCallCatchBlock@__FrameHandler4@@SAPEAXPEAU_EXCEPTION_RECORD@@@Z 0000000180030edc     libvcruntime:frame.obj
 0002:0000bf38       $unwind$?IsInExceptionSpec@@YAEPEAUEHExceptionRecord@@PEBU_s_ESTypeList@@@Z 0000000180030f38     libvcruntime:frame.obj
 0002:0000bf54       $unwind$??$__InternalCxxFrameHandler@V__FrameHandler4@@@@YA?AW4_EXCEPTION_DISPOSITION@@PEAUEHExceptionRecord@@PEA_KPEAU_CONTEXT@@PEAU_xDISPATCHER_CONTEXT@@PEAUFuncInfo4@FH4@@H1E@Z 0000000180030f54     libvcruntime:frame.obj
 0002:0000bf6c       $unwind$??$BuildCatchObjectHelperInternal@V__FrameHandler3@@@@YAHPEAUEHExceptionRecord@@PEAXPEBU_s_HandlerType@@PEBU_s_CatchableType@@@Z 0000000180030f6c     libvcruntime:frame.obj
 0002:0000bfac       $unwind$??$BuildCatchObjectHelperInternal@V__FrameHandler4@@@@YAHPEAUEHExceptionRecord@@PEAXPEAUHandlerType4@FH4@@PEBU_s_CatchableType@@@Z 0000000180030fac     libvcruntime:frame.obj
 0002:0000bfec       $unwind$??$BuildCatchObjectInternal@V__FrameHandler3@@@@YAXPEAUEHExceptionRecord@@PEAXPEBU_s_HandlerType@@PEBU_s_CatchableType@@@Z 0000000180030fec     libvcruntime:frame.obj
 0002:0000c018       $unwind$??$BuildCatchObjectInternal@V__FrameHandler4@@@@YAXPEAUEHExceptionRecord@@PEAXPEAUHandlerType4@FH4@@PEBU_s_CatchableType@@@Z 0000000180031018     libvcruntime:frame.obj
 0002:0000c044       $unwind$??$FindHandler@V__FrameHandler3@@@@YAXPEAUEHExceptionRecord@@PEA_KPEAU_CONTEXT@@PEAU_xDISPATCHER_CONTEXT@@PEBU_s_FuncInfo@@EH1@Z 0000000180031044     libvcruntime:frame.obj
 0002:0000c064       $unwind$??$FindHandler@V__FrameHandler4@@@@YAXPEAUEHExceptionRecord@@PEA_KPEAU_CONTEXT@@PEAU_xDISPATCHER_CONTEXT@@PEAUFuncInfo4@FH4@@EH1@Z 0000000180031064     libvcruntime:frame.obj
 0002:0000c084       $unwind$??$CatchIt@V__FrameHandler3@@@@YAXPEAUEHExceptionRecord@@PEA_KPEAU_CONTEXT@@PEAU_xDISPATCHER_CONTEXT@@PEBU_s_FuncInfo@@PEBU_s_HandlerType@@PEBU_s_CatchableType@@PEBU_s_TryBlockMapEntry@@H1EE@Z 0000000180031084     libvcruntime:frame.obj
 0002:0000c084       $unwind$??$CatchIt@V__FrameHandler4@@@@YAXPEAUEHExceptionRecord@@PEA_KPEAU_CONTEXT@@PEAU_xDISPATCHER_CONTEXT@@PEAUFuncInfo4@FH4@@PEAUHandlerType4@4@PEBU_s_CatchableType@@PEAUTryBlockMapEntry4@4@H1EE@Z 0000000180031084     libvcruntime:frame.obj
 0002:0000c09c       $unwind$??$FindHandlerForForeignException@V__FrameHandler3@@@@YAXPEAUEHExceptionRecord@@PEA_KPEAU_CONTEXT@@PEAU_xDISPATCHER_CONTEXT@@PEBU_s_FuncInfo@@HH1@Z 000000018003109c     libvcruntime:frame.obj
 0002:0000c0b8       $unwind$??$FindHandlerForForeignException@V__FrameHandler4@@@@YAXPEAUEHExceptionRecord@@PEA_KPEAU_CONTEXT@@PEAU_xDISPATCHER_CONTEXT@@PEAUFuncInfo4@FH4@@HH1@Z 00000001800310b8     libvcruntime:frame.obj
 0002:0000c0d8       $unwind$?try_get_function@@YAPEAXW4function_id@?A0x391cf84c@@QEBDQEBW4module_id@2@2@Z 00000001800310d8     libucrt:winapi_thunks.obj
 0002:0000c0d8       $unwind$?try_get_function@@YAPEAXW4function_id@?A0xbc0cc709@@QEBDQEBW4module_id@2@2@Z 00000001800310d8     libvcruntime:winapi_downlevel.obj
 0002:0000c0f8       $xdatasym                  00000001800310f8     libvcruntime:handlers.obj
 0002:0000c118       $unwind$__acrt_call_reportfault 0000000180031118     libucrt:invalid_parameter.obj
 0002:0000c138       $unwind$??$common_lseek_nolock@_J@@YA_JH_JHAEAV__crt_cached_ptd_host@@@Z 0000000180031138     libucrt:lseek.obj
 0002:0000c138       $unwind$_invalid_parameter_internal 0000000180031138     libucrt:invalid_parameter.obj
 0002:0000c138       $unwind$??$type_case_integer@$07@?$output_processor@_WV?$string_output_adapter@_W@__crt_stdio_output@@V?$format_validation_base@_WV?$string_output_adapter@_W@__crt_stdio_output@@@2@@__crt_stdio_output@@AEAA_N_N@Z 0000000180031138     libucrt:output.obj
 0002:0000c138       $unwind$??$type_case_integer@$09@?$output_processor@_WV?$string_output_adapter@_W@__crt_stdio_output@@V?$format_validation_base@_WV?$string_output_adapter@_W@__crt_stdio_output@@@2@@__crt_stdio_output@@AEAA_N_N@Z 0000000180031138     libucrt:output.obj
 0002:0000c138       $unwind$??$type_case_integer@$0BA@@?$output_processor@_WV?$string_output_adapter@_W@__crt_stdio_output@@V?$format_validation_base@_WV?$string_output_adapter@_W@__crt_stdio_output@@@2@@__crt_stdio_output@@AEAA_N_N@Z 0000000180031138     libucrt:output.obj
 0002:0000c14c       $unwind$_invalid_parameter 000000018003114c     libucrt:invalid_parameter.obj
 0002:0000c158       $unwind$_resetstkoflw      0000000180031158     libucrt:resetstk.obj
 0002:0000c17c       $unwind$__stdio_common_vswprintf_s 000000018003117c     libucrt:output.obj
 0002:0000c190       $unwind$?write_string@?$string_output_adapter@_W@__crt_stdio_output@@QEBAXQEB_WHQEAHAEAV__crt_cached_ptd_host@@@Z 0000000180031190     libucrt:output.obj
 0002:0000c1a8       $unwind$??$common_vsprintf@Vformat_validation_base@__crt_stdio_output@@_W@@YAH_KQEA_W0QEB_WAEAV__crt_cached_ptd_host@@QEAD@Z 00000001800311a8     libucrt:output.obj
 0002:0000c1c8       $unwind$?parse_int_from_format_string@?$output_processor@_WV?$string_output_adapter@_W@__crt_stdio_output@@V?$format_validation_base@_WV?$string_output_adapter@_W@__crt_stdio_output@@@2@@__crt_stdio_output@@AEAA_NQEAH@Z 00000001800311c8     libucrt:output.obj
 0002:0000c1dc       $unwind$?state_case_type@?$output_processor@_WV?$string_output_adapter@_W@__crt_stdio_output@@V?$format_validation_base@_WV?$string_output_adapter@_W@__crt_stdio_output@@@2@@__crt_stdio_output@@AEAA_NXZ 00000001800311dc     libucrt:output.obj
 0002:0000c200       $unwind$?type_case_a@?$output_processor@_WV?$string_output_adapter@_W@__crt_stdio_output@@V?$format_validation_base@_WV?$string_output_adapter@_W@__crt_stdio_output@@@2@@__crt_stdio_output@@AEAA_NXZ 0000000180031200     libucrt:output.obj
 0002:0000c214       $unwind$?type_case_n@?$output_processor@_WV?$string_output_adapter@_W@__crt_stdio_output@@V?$format_validation_base@_WV?$string_output_adapter@_W@__crt_stdio_output@@@2@@__crt_stdio_output@@AEAA_NXZ 0000000180031214     libucrt:output.obj
 0002:0000c220       $unwind$??$parse_integer@KV?$c_string_character_source@_W@__crt_strtox@@$0A@@__crt_strtox@@YAKAEAV__crt_cached_ptd_host@@V?$c_string_character_source@_W@0@H_N@Z 0000000180031220     libucrt:output.obj
 0002:0000c23c       $unwind$?try_cor_exit_process@@YAXI@Z 000000018003123c     libucrt:exit.obj
 0002:0000c250       $ip2state$?try_cor_exit_process@@YAXI@Z 0000000180031250     libucrt:exit.obj
 0002:0000c258       $unwind$?common_exit@@YAXHW4_crt_exit_cleanup_mode@@W4_crt_exit_return_mode@@@Z 0000000180031258     libucrt:exit.obj
 0002:0000c26c       $stateUnwindMap$__dcrt_uninitialize_environments_nolock 000000018003126c     libucrt:environment_initialization.obj
 0002:0000c26c       $stateUnwindMap$?common_exit@@YAXHW4_crt_exit_cleanup_mode@@W4_crt_exit_return_mode@@@Z 000000018003126c     libucrt:exit.obj
 0002:0000c26c       $stateUnwindMap$_execute_onexit_table 000000018003126c     libucrt:onexit.obj
 0002:0000c278       $ip2state$?common_exit@@YAXHW4_crt_exit_cleanup_mode@@W4_crt_exit_return_mode@@@Z 0000000180031278     libucrt:exit.obj
 0002:0000c280       $unwind$??R<lambda_6e4b09c48022b2350581041d5f6b0c4c>@@QEBA@XZ 0000000180031280     libucrt:exit.obj
 0002:0000c2a0       $unwind$??$?RV<lambda_d80eeec6fff315bfe5c115232f3240e3>@@AEAV<lambda_6e4b09c48022b2350581041d5f6b0c4c>@@V<lambda_2358e3775559c9db80273638284d5e45>@@@?$__crt_seh_guarded_call@X@@QEAAX$$QEAV<lambda_d80eeec6fff315bfe5c115232f3240e3>@@AEAV<lambda_6e4b09c48022b2350581041d5f6b0c4c>@@$$QEAV<lambda_2358e3775559c9db80273638284d5e45>@@@Z 00000001800312a0     libucrt:exit.obj
 0002:0000c2c4       $unwind$__dcrt_uninitialize_environments_nolock 00000001800312c4     libucrt:environment_initialization.obj
 0002:0000c2d4       $unwind$??$free_environment@D@@YAXQEAPEAD@Z 00000001800312d4     libucrt:environment_initialization.obj
 0002:0000c2d4       $unwind$??$free_environment@_W@@YAXQEAPEA_W@Z 00000001800312d4     libucrt:environment_initialization.obj
 0002:0000c2d4       $unwind$_initterm          00000001800312d4     libucrt:initterm.obj
 0002:0000c2e0       $unwind$_register_onexit_function 00000001800312e0     libucrt:onexit.obj
 0002:0000c2e8       $unwind$_execute_onexit_table 00000001800312e8     libucrt:onexit.obj
 0002:0000c2f8       $ip2state$_execute_onexit_table 00000001800312f8     libucrt:onexit.obj
 0002:0000c300       $unwind$??R<lambda_22ebabd17bc4fa466a2aca6d8deb888d>@@QEBAHXZ 0000000180031300     libucrt:onexit.obj
 0002:0000c318       $unwind$??$?RV<lambda_638799b9deba96c50f710eeac98168cd>@@AEAV<lambda_22ebabd17bc4fa466a2aca6d8deb888d>@@V<lambda_a6f7d7db0129f75315ebf26d50c089f1>@@@?$__crt_seh_guarded_call@H@@QEAAH$$QEAV<lambda_638799b9deba96c50f710eeac98168cd>@@AEAV<lambda_22ebabd17bc4fa466a2aca6d8deb888d>@@$$QEAV<lambda_a6f7d7db0129f75315ebf26d50c089f1>@@@Z 0000000180031318     libucrt:onexit.obj
 0002:0000c33c       $unwind$??$?RV<lambda_7777bce6b2f8c936911f934f8298dc43>@@AEAV<lambda_f03950bc5685219e0bcd2087efbe011e>@@V<lambda_3883c3dff614d5e0c5f61bb1ac94921c>@@@?$__crt_seh_guarded_call@H@@QEAAH$$QEAV<lambda_7777bce6b2f8c936911f934f8298dc43>@@AEAV<lambda_f03950bc5685219e0bcd2087efbe011e>@@$$QEAV<lambda_3883c3dff614d5e0c5f61bb1ac94921c>@@@Z 000000018003133c     libucrt:onexit.obj
 0002:0000c360       $unwind$_query_new_handler 0000000180031360     libucrt:new_handler.obj
 0002:0000c380       $unwind$terminate          0000000180031380     libucrt:terminate.obj
 0002:0000c3a0       $xdatasym                  00000001800313a0     libucrt:strncmp.obj
 0002:0000c3a4       $unwind$?construct_ptd_array@@YAXQEAU__acrt_ptd@@@Z 00000001800313a4     libucrt:per_thread_data.obj
 0002:0000c3ac       $unwind$?destroy_ptd_array@@YAXQEAU__acrt_ptd@@@Z 00000001800313ac     libucrt:per_thread_data.obj
 0002:0000c3b4       $unwind$??$?RV<lambda_0ae27a3a962d80f24befdcbee591983d>@@AEAV<lambda_8d0ee55de4b1038c4002e0adecdf1839>@@V<lambda_dc504788e8f1664fe9b84e20bfb512f2>@@@?$__crt_seh_guarded_call@X@@QEAAX$$QEAV<lambda_0ae27a3a962d80f24befdcbee591983d>@@AEAV<lambda_8d0ee55de4b1038c4002e0adecdf1839>@@$$QEAV<lambda_dc504788e8f1664fe9b84e20bfb512f2>@@@Z 00000001800313b4     libucrt:per_thread_data.obj
 0002:0000c3d8       $unwind$??$?RV<lambda_aa87e3671a710a21b5dc78c0bdf72e11>@@AEAV<lambda_92619d2358a28f41a33ba319515a20b9>@@V<lambda_6992ecaafeb10aed2b74cb1fae11a551>@@@?$__crt_seh_guarded_call@X@@QEAAX$$QEAV<lambda_aa87e3671a710a21b5dc78c0bdf72e11>@@AEAV<lambda_92619d2358a28f41a33ba319515a20b9>@@$$QEAV<lambda_6992ecaafeb10aed2b74cb1fae11a551>@@@Z 00000001800313d8     libucrt:per_thread_data.obj
 0002:0000c3fc       $unwind$??$?RV<lambda_f2e299630e499de9f9a165e60fcd3db5>@@AEAV<lambda_2ae9d31cdba2644fcbeaf08da7c24588>@@V<lambda_40d01ff24d0e7b3814fdbdcee8eab3c7>@@@?$__crt_seh_guarded_call@X@@QEAAX$$QEAV<lambda_f2e299630e499de9f9a165e60fcd3db5>@@AEAV<lambda_2ae9d31cdba2644fcbeaf08da7c24588>@@$$QEAV<lambda_40d01ff24d0e7b3814fdbdcee8eab3c7>@@@Z 00000001800313fc     libucrt:per_thread_data.obj
 0002:0000c420       $unwind$??$?RV<lambda_2d41944a1d46af3157314b8a01080d33>@@AEAV<lambda_8f455de75cd7d7f24b4096f044d8b9e6>@@V<lambda_aa500f224e6afead328df44964fe2772>@@@?$__crt_seh_guarded_call@X@@QEAAX$$QEAV<lambda_2d41944a1d46af3157314b8a01080d33>@@AEAV<lambda_8f455de75cd7d7f24b4096f044d8b9e6>@@$$QEAV<lambda_aa500f224e6afead328df44964fe2772>@@@Z 0000000180031420     libucrt:per_thread_data.obj
 0002:0000c444       $unwind$__acrt_uninitialize_locale 0000000180031444     libucrt:wsetlocale.obj
 0002:0000c444       $unwind$__acrt_get_sigabrt_handler 0000000180031444     libucrt:signal.obj
 0002:0000c44c       $unwind$??$?RV<lambda_410d79af7f07d98d83a3f525b3859a53>@@AEAV<lambda_3e16ef9562a7dcce91392c22ab16ea36>@@V<lambda_38119f0e861e05405d8a144b9b982f0a>@@@?$__crt_seh_guarded_call@X@@QEAAX$$QEAV<lambda_410d79af7f07d98d83a3f525b3859a53>@@AEAV<lambda_3e16ef9562a7dcce91392c22ab16ea36>@@$$QEAV<lambda_38119f0e861e05405d8a144b9b982f0a>@@@Z 000000018003144c     libucrt:wsetlocale.obj
 0002:0000c474       $unwind$__acrt_initialize_winapi_thunks 0000000180031474     libucrt:winapi_thunks.obj
 0002:0000c474       $unwind$__acrt_fenv_get_control 0000000180031474     libucrt:_fenvutils.obj
 0002:0000c47c       $unwind$__acrt_fp_format   000000018003147c     libucrt:cvt.obj
 0002:0000c48c       $unwind$?fp_format_e_internal@@YAHQEAD_KH_NIQEAU_strflt@@2AEAV__crt_cached_ptd_host@@@Z 000000018003148c     libucrt:cvt.obj
 0002:0000c4a8       $unwind$?fp_format_a@@YAHQEBNPEAD_KQEAD2H_NIW4__acrt_rounding_mode@@AEAV__crt_cached_ptd_host@@@Z 00000001800314a8     libucrt:cvt.obj
 0002:0000c4c4       $unwind$?fp_format_g@@YAHQEBNQEAD_K12H_NIW4__acrt_rounding_mode@@AEAV__crt_cached_ptd_host@@@Z 00000001800314c4     libucrt:cvt.obj
 0002:0000c4dc       $unwind$__acrt_initialize_lowio 00000001800314dc     libucrt:ioinit.obj
 0002:0000c4fc       $unwind$??$common_expand_argv_wildcards@D@@YAHQEAPEADQEAPEAPEAD@Z 00000001800314fc     libucrt:argv_wildcards.obj
 0002:0000c514       $unwind$__dcrt_get_narrow_environment_from_os 0000000180031514     libucrt:get_environment_from_os.obj
 0002:0000c514       $unwind$??$__acrt_convert_wcs_mbs_cp@_WDV<lambda_d8593a27d1aa8c02be35c86a17d324c4>@@U__crt_win32_buffer_internal_dynamic_resizing@@@@YAHQEB_WAEAV?$__crt_win32_buffer@DU__crt_win32_buffer_internal_dynamic_resizing@@@@AEBV<lambda_d8593a27d1aa8c02be35c86a17d324c4>@@I@Z 0000000180031514     libucrt:argv_wildcards.obj
 0002:0000c52c       $unwind$??$copy_and_add_argument_to_buffer@D@@YAHQEBD0_KAEAV?$argument_list@D@?A0x5f5c8891@@@Z 000000018003152c     libucrt:argv_wildcards.obj
 0002:0000c548       $unwind$??$expand_argument_wildcards@D@@YAHQEAD0AEAV?$argument_list@D@?A0x5f5c8891@@@Z 0000000180031548     libucrt:argv_wildcards.obj
 0002:0000c568       $unwind$__acrt_GetModuleFileNameA 0000000180031568     libucrt:getmodulefilenamea.obj
 0002:0000c584       $unwind$_setmbcp_nolock    0000000180031584     libucrt:mbctype.obj
 0002:0000c5a4       $unwind$?update_thread_multibyte_data_internal@@YAPEAU__crt_multibyte_data@@QEAU__acrt_ptd@@QEAPEAU1@@Z 00000001800315a4     libucrt:mbctype.obj
 0002:0000c5cc       $unwind$?setmbcp_internal@@YAHH_NQEAU__acrt_ptd@@QEAPEAU__crt_multibyte_data@@@Z 00000001800315cc     libucrt:mbctype.obj
 0002:0000c5e4       $unwind$?setSBUpLow@@YAXPEAU__crt_multibyte_data@@@Z 00000001800315e4     libucrt:mbctype.obj
 0002:0000c600       $unwind$??$?RV<lambda_efdfa57d1f175319df784efa44bb7b81>@@AEAV<lambda_5f0a4c1567f8adc6734073e5d1e1b35c>@@V<lambda_2e8a7d3640ea6ccb4c2413664c2db6fd>@@@?$__crt_seh_guarded_call@X@@QEAAX$$QEAV<lambda_efdfa57d1f175319df784efa44bb7b81>@@AEAV<lambda_5f0a4c1567f8adc6734073e5d1e1b35c>@@$$QEAV<lambda_2e8a7d3640ea6ccb4c2413664c2db6fd>@@@Z 0000000180031600     libucrt:mbctype.obj
 0002:0000c624       $unwind$__acrt_WideCharToMultiByte 0000000180031624     libucrt:widechartomultibyte.obj
 0002:0000c630       $unwind$raise              0000000180031630     libucrt:signal.obj
 0002:0000c66c       $unwind$??$?RV<lambda_450d765d439847d4c735a33c368b5fc0>@@AEAV<lambda_44731a7d0e6d81c3e6aa82d741081786>@@V<lambda_601a2a7da3b7a96e9554ac7215c4b07c>@@@?$__crt_seh_guarded_call@P6AXH@Z@@QEAAP6AXH@Z$$QEAV<lambda_450d765d439847d4c735a33c368b5fc0>@@AEAV<lambda_44731a7d0e6d81c3e6aa82d741081786>@@$$QEAV<lambda_601a2a7da3b7a96e9554ac7215c4b07c>@@@Z 000000018003166c     libucrt:signal.obj
 0002:0000c690       $unwind$fclose             0000000180031690     libucrt:fclose.obj
 0002:0000c690       $unwind$_fflush_nolock     0000000180031690     libucrt:fflush.obj
 0002:0000c6a0       $unwind$?common_flush_all@@YAH_N@Z 00000001800316a0     libucrt:fflush.obj
 0002:0000c6a8       $unwind$??$?RV<lambda_842d9ff0dc9ef11c61343bbaebe7f885>@@AEAV<lambda_c5860995281e5c4ce005b3de8f5874ee>@@V<lambda_d90129c13df834fdcbf8d2b88dafcf2d>@@@?$__crt_seh_guarded_call@X@@QEAAX$$QEAV<lambda_842d9ff0dc9ef11c61343bbaebe7f885>@@AEAV<lambda_c5860995281e5c4ce005b3de8f5874ee>@@$$QEAV<lambda_d90129c13df834fdcbf8d2b88dafcf2d>@@@Z 00000001800316a8     libucrt:fflush.obj
 0002:0000c6cc       $unwind$??$?RV<lambda_886d6c58226a84441f68b9f2b8217b83>@@AEAV<lambda_ab61a845afdef5b7c387490eaf3616ee>@@V<lambda_f7f22ab5edc0698d5f6905b0d3f44752>@@@?$__crt_seh_guarded_call@X@@QEAAX$$QEAV<lambda_886d6c58226a84441f68b9f2b8217b83>@@AEAV<lambda_ab61a845afdef5b7c387490eaf3616ee>@@$$QEAV<lambda_f7f22ab5edc0698d5f6905b0d3f44752>@@@Z 00000001800316cc     libucrt:fflush.obj
 0002:0000c6f4       $unwind$__acrt_update_thread_locale_data 00000001800316f4     libucrt:locale_refcounting.obj
 0002:0000c718       $unwind$__acrt_locale_free_monetary 0000000180031718     libucrt:initmon.obj
 0002:0000c720       $unwind$__acrt_locale_free_time 0000000180031720     libucrt:inittime.obj
 0002:0000c730       $unwind$__acrt_GetStringTypeA 0000000180031730     libucrt:getstringtypea.obj
 0002:0000c758       $unwind$__acrt_fp_strflt_to_string 0000000180031758     libucrt:_fptostr.obj
 0002:0000c774       $unwind$__acrt_fltout      0000000180031774     libucrt:cfout.obj
 0002:0000c794       $unwind$?divide@__crt_strtox@@YA_KAEAUbig_integer@1@AEBU21@@Z 0000000180031794     libucrt:cfout.obj
 0002:0000c7ac       $chain$0$?divide@__crt_strtox@@YA_KAEAUbig_integer@1@AEBU21@@Z 00000001800317ac     libucrt:cfout.obj
 0002:0000c7c0       $chain$1$?divide@__crt_strtox@@YA_KAEAUbig_integer@1@AEBU21@@Z 00000001800317c0     libucrt:cfout.obj
 0002:0000c7d0       $unwind$?__mbsrtowcs_utf8@__crt_mbstring@@YA_KPEA_WPEAPEBD_KPEAU_Mbstatet@@AEAV__crt_cached_ptd_host@@@Z 00000001800317d0     libucrt:mbrtowc.obj
 0002:0000c7e8       $unwind$_fcloseall         00000001800317e8     libucrt:closeall.obj
 0002:0000c80c       $unwind$__acrt_lowio_destroy_handle_array 000000018003180c     libucrt:osfinfo.obj
 0002:0000c81c       $unwind$__acrt_lowio_ensure_fh_exists 000000018003181c     libucrt:osfinfo.obj
 0002:0000c848       $unwind$qsort              0000000180031848     libucrt:qsort.obj
 0002:0000c860       $chain$4$qsort             0000000180031860     libucrt:qsort.obj
 0002:0000c884       $chain$5$qsort             0000000180031884     libucrt:qsort.obj
 0002:0000c894       $unwind$strpbrk            0000000180031894     libucrt:strpbrk.obj
 0002:0000c8a4       $unwind$fallbackMethod     00000001800318a4     libucrt:strpbrk.obj
 0002:0000c8b4       $unwind$__acrt_LCMapStringA 00000001800318b4     libucrt:lcmapstringa.obj
 0002:0000c8c4       $unwind$?__acrt_LCMapStringA_stat@@YAHPEAU__crt_locale_pointers@@PEB_WKPEBDHPEADHHH@Z 00000001800318c4     libucrt:lcmapstringa.obj
 0002:0000c8ec       $unwind$_commit            00000001800318ec     libucrt:commit.obj
 0002:0000c8f4       $unwind$??$?RV<lambda_a37b2b86f63e897a80ea819b0eb08c01>@@AEAV<lambda_38ce7e780aa69e748d6df282ebc68efe>@@V<lambda_99fb1378e971ab6e7edea83e3a7a83a2>@@@?$__crt_seh_guarded_call@H@@QEAAH$$QEAV<lambda_a37b2b86f63e897a80ea819b0eb08c01>@@AEAV<lambda_38ce7e780aa69e748d6df282ebc68efe>@@$$QEAV<lambda_99fb1378e971ab6e7edea83e3a7a83a2>@@@Z 00000001800318f4     libucrt:commit.obj
 0002:0000c918       $unwind$_write_nolock      0000000180031918     libucrt:write.obj
 0002:0000c930       $unwind$_write_internal    0000000180031930     libucrt:write.obj
 0002:0000c960       $unwind$?write_double_translated_ansi_nolock@@YA?AUwrite_result@?A0x17268360@@HQEBDIAEAV__crt_cached_ptd_host@@@Z 0000000180031960     libucrt:write.obj
 0002:0000c988       $ip2state$?write_double_translated_ansi_nolock@@YA?AUwrite_result@?A0x17268360@@HQEBDIAEAV__crt_cached_ptd_host@@@Z 0000000180031988     libucrt:write.obj
 0002:0000c990       $unwind$?write_text_ansi_nolock@@YA?AUwrite_result@?A0x17268360@@HQEBDI@Z 0000000180031990     libucrt:write.obj
 0002:0000c990       $unwind$?write_text_utf16le_nolock@@YA?AUwrite_result@?A0x17268360@@HQEBDI@Z 0000000180031990     libucrt:write.obj
 0002:0000c9b0       $unwind$?write_text_utf8_nolock@@YA?AUwrite_result@?A0x17268360@@HQEBDI@Z 00000001800319b0     libucrt:write.obj
 0002:0000c9d8       $xdatasym                  00000001800319d8     libucrt:log10.obj
 0002:0000c9e4       $unwind$__acrt_fenv_set_control 00000001800319e4     libucrt:_fenvutils.obj
 0002:0000c9f4       $unwind$?__mbrtoc32_utf8@__crt_mbstring@@YA_KPEA_UPEBD_KPEAU_Mbstatet@@AEAV__crt_cached_ptd_host@@@Z 00000001800319f4     libucrt:mbrtoc32.obj
 0002:0000ca10       $unwind$?_fclose_nolock_internal@@YAHQEAU_iobuf@@AEAV__crt_cached_ptd_host@@@Z 0000000180031a10     libucrt:fclose.obj
 0002:0000ca20       $unwind$?_fclose_internal@@YAHQEAU_iobuf@@AEAV__crt_cached_ptd_host@@@Z 0000000180031a20     libucrt:fclose.obj
 0002:0000ca44       $unwind$_putwch_nolock     0000000180031a44     libucrt:putwch.obj
 0002:0000ca4c       $unwind$common_control87   0000000180031a4c     libucrt:ieee.obj
 0002:0000ca78       $unwind$_call_matherr      0000000180031a78     libucrt:libm_error.obj
 0002:0000ca80       $unwind$_handle_error      0000000180031a80     libucrt:libm_error.obj
 0002:0000caa0       $unwind$__acrt_initialize_fma3 0000000180031aa0     libucrt:fma3_available.obj
 0002:0000caa8       $unwind$_log_special_common 0000000180031aa8     libucrt:log_special.obj
 0002:0000cab4       $unwind$_close_internal    0000000180031ab4     libucrt:close.obj
 0002:0000cabc       $unwind$??$?RV<lambda_ad8af0d99a0adf03d037d7dffe354bb5>@@AEAV<lambda_c9ba49e555ba839a7b07aa3fbecb7617>@@V<lambda_2f1ebd5d68526518146ae959c9e734c8>@@@?$__crt_seh_guarded_call@H@@QEAAH$$QEAV<lambda_ad8af0d99a0adf03d037d7dffe354bb5>@@AEAV<lambda_c9ba49e555ba839a7b07aa3fbecb7617>@@$$QEAV<lambda_2f1ebd5d68526518146ae959c9e734c8>@@@Z 0000000180031abc     libucrt:close.obj
 0002:0000cae0       $xdatasym                  0000000180031ae0     libucrt:fpsr.obj
 0002:0000cae8       $unwind$_raise_exc_ex      0000000180031ae8     libucrt:fpexcept.obj
 0002:0000cafc       $unwind$_ctrlfp            0000000180031afc     libucrt:fpctrl.obj
 0002:0000cb24       $unwind$_IsNonwritableInCurrentImage 0000000180031b24     LIBCMT:pesect.obj
 0002:0000cb48       $unwind$strrchr            0000000180031b48     libvcruntime:strrchr.obj
 0002:0000ccb0       .edata                     0000000180031cb0     OPOSCoinDispenser.exp
 0002:0000ccd8       rgpv                       0000000180031cd8     OPOSCoinDispenser.exp
 0002:0000cce8       rgszName                   0000000180031ce8     OPOSCoinDispenser.exp
 0002:0000ccf8       rgwOrd                     0000000180031cf8     OPOSCoinDispenser.exp
 0002:0000cd00       szName                     0000000180031d00     OPOSCoinDispenser.exp
 0002:0000cd16       $N00001                    0000000180031d16     OPOSCoinDispenser.exp
 0002:0000cd26       $N00002                    0000000180031d26     OPOSCoinDispenser.exp
 0002:0000cd38       $N00003                    0000000180031d38     OPOSCoinDispenser.exp
 0002:0000cd4a       $N00004                    0000000180031d4a     OPOSCoinDispenser.exp
 0002:0000d69a       .idata$6                   000000018003269a     kernel32:KERNEL32.dll
 0002:0000d8b2       .idata$6                   00000001800328b2     user32:USER32.dll
 0002:0000d9e6       .idata$6                   00000001800329e6     gdi32:GDI32.dll
 0002:0000da8c       .idata$6                   0000000180032a8c     advapi32:ADVAPI32.dll
 0002:0000dba8       .idata$6                   0000000180032ba8     ole32:ole32.dll
 0002:0000dbb2       .idata$6                   0000000180032bb2     oleaut32:OLEAUT32.dll
 0003:000001c0       ?ObjectMap@@3PAU_ATL_OBJMAP_ENTRY30@ATL@@A 00000001800341c0     CoinDispenser.obj
 0003:000002e0       ?s_SOMethodNames@@3PAPEADA 00000001800342e0     CoinDispenserImpl.obj
 0003:00000380       ?s_RequiredMethodsPerRelease@@3PAHA 0000000180034380     CoinDispenserImpl.obj
 0003:000003f0       ?__vcrt_flsindex@@3KA      00000001800343f0     libvcruntime:per_thread_data.obj
 0003:00000400       ?errno_no_memory@@3HA      0000000180034400     libucrt:errno.obj
 0003:00000404       ?doserrno_no_memory@@3KA   0000000180034404     libucrt:errno.obj
 0003:00000410       ?__acrt_flsindex@@3KA      0000000180034410     libucrt:per_thread_data.obj
 0003:000008d0       _mbctypes                  00000001800348d0     libucrt:mbctype.obj
 0003:000009e0       _mbcasemaps                00000001800349e0     libucrt:mbctype.obj
 0003:00000ae0       ?__rgctypeflag@@3PADA      0000000180034ae0     libucrt:mbctype.obj
 0003:00000af0       ?__rgcode_page_info@@3PAUcode_page_info@@A 0000000180034af0     libucrt:mbctype.obj
 0003:00000d90       ?dazSupported@?1??common_control87@@9@9 0000000180034d90     libucrt:ieee.obj
 0003:00000da0       ?__dcrt_lowio_console_output_handle@@3PEAXEA 0000000180034da0     libucrt:initcon.obj
 0003:00000db0       ?dazSupported@?1??_ctrlfp@@9@9 0000000180034db0     libucrt:fpctrl.obj
 0003:00001000       ?is_initialized_as_dll@@3_NA 0000000180035000     LIBCMT:utility.obj
 0003:00001001       ?module_local_atexit_table_initialized@@3_NA 0000000180035001     LIBCMT:utility.obj
 0003:00001008       ?module_local_atexit_table@@3U_onexit_table_t@@A 0000000180035008     LIBCMT:utility.obj
 0003:00001020       ?module_local_at_quick_exit_table@@3U_onexit_table_t@@A 0000000180035020     LIBCMT:utility.obj
 0003:00001038       ?g_tss_cv@@3U_RTL_CONDITION_VARIABLE@@A 0000000180035038     LIBCMT:thread_safe_statics.obj
 0003:00001040       ?g_tss_event@@3PEAXEA      0000000180035040     LIBCMT:thread_safe_statics.obj
 0003:00001048       ?g_tss_mutex@@3U_RTL_CRITICAL_SECTION@@A 0000000180035048     LIBCMT:thread_safe_statics.obj
 0003:00001070       ?g_sleep_condition_variable_cs@@3P6AHPEAU_RTL_CONDITION_VARIABLE@@PEAU_RTL_CRITICAL_SECTION@@K@ZEA 0000000180035070     LIBCMT:thread_safe_statics.obj
 0003:00001078       ?g_wake_all_condition_variable@@3P6AXPEAU_RTL_CONDITION_VARIABLE@@@ZEA 0000000180035078     LIBCMT:thread_safe_statics.obj
 0003:00001080       GS_ExceptionRecord         0000000180035080     LIBCMT:gs_report.obj
 0003:00001120       GS_ContextRecord           0000000180035120     LIBCMT:gs_report.obj
 0003:000015f4       ?__proc_attached@@3HA      00000001800355f4     LIBCMT:dll_dllmain.obj
 0003:00001688       ?AllocateData@@3P6APEAUAtlThunkData_t@@XZEA 0000000180035688     atls:atlthunk.obj
 0003:00001690       ?InitData@@3P6AXPEAUAtlThunkData_t@@PEAX_K@ZEA 0000000180035690     atls:atlthunk.obj
 0003:00001698       ?DataToCode@@3P6AP6A_JPEAUHWND__@@I_K_J@ZPEAUAtlThunkData_t@@@ZEA 0000000180035698     atls:atlthunk.obj
 0003:000016a0       ?FreeData@@3P6AXPEAUAtlThunkData_t@@@ZEA 00000001800356a0     atls:atlthunk.obj
 0003:000016a8       ?Initialized@@3_NA         00000001800356a8     atls:atlthunk.obj
 0003:000016c0       ?__vcrt_startup_thread_ptd@@3U__vcrt_ptd@@A 00000001800356c0     libvcruntime:per_thread_data.obj
 0003:00001740       __vcrt_lock_table          0000000180035740     libvcruntime:locks.obj
 0003:00001768       __vcrt_locks_initialized   0000000180035768     libvcruntime:locks.obj
 0003:000017b0       ?heap@@3V_HeapManager@@A   00000001800357b0     libvcruntime:undname.obj
 0003:000017d8       ?module_handles@@3PAPEAUHINSTANCE__@@A 00000001800357d8     libvcruntime:winapi_downlevel.obj
 0003:000017f0       ?function_pointers@@3PAPEAXA 00000001800357f0     libvcruntime:winapi_downlevel.obj
 0003:00001818       ?__acrt_invalid_parameter_handler@@3V?$dual_state_global@P6AXPEB_W00I_K@Z@__crt_state_management@@A 0000000180035818     libucrt:invalid_parameter.obj
 0003:00001820       ?c_termination_complete@@3JA 0000000180035820     libucrt:exit.obj
 0003:00001828       ?thread_local_exit_callback_func@@3P6AXPEAXK0@ZEA 0000000180035828     libucrt:exit.obj
 0003:00001840       ?program_name@?1???$common_configure_argv@D@@YAHW4_crt_argv_mode@@@Z@4PADA 0000000180035840     libucrt:argv_parsing.obj
 0003:00001998       ?__acrt_new_handler@@3V?$dual_state_global@P6AH_K@Z@__crt_state_management@@A 0000000180035998     libucrt:new_handler.obj
 0003:000019b0       ?module_handles@@3PAPEAUHINSTANCE__@@A 00000001800359b0     libucrt:winapi_thunks.obj
 0003:00001a50       ?encoded_function_pointers@@3PAPEAXA 0000000180035a50     libucrt:winapi_thunks.obj
 0003:00001b40       ?internal_state@?1??_mbtowc_internal@@9@4U_Mbstatet@@A 0000000180035b40     libucrt:mbtowc.obj
 0003:00001b58       ?enable_percent_n@@3_KA    0000000180035b58     libucrt:printf_count_output.obj
 0003:00001f80       ?__acrt_lock_table@@3PAU_RTL_CRITICAL_SECTION@@A 0000000180035f80     libucrt:locks.obj
 0003:000021b0       ?__acrt_locks_initialized@@3IA 00000001800361b0     libucrt:locks.obj
 0003:000021d0       ?fSystemSet@@3HA           00000001800361d0     libucrt:mbctype.obj
 0003:000021d4       ?initialized@?1??__acrt_initialize_multibyte@@9@4_NA 00000001800361d4     libucrt:mbctype.obj
 0003:00002210       ?ctrlc_action@@3V?$dual_state_global@P6AXH@Z@__crt_state_management@@A 0000000180036210     libucrt:signal.obj
 0003:00002218       ?ctrlbreak_action@@3V?$dual_state_global@P6AXH@Z@__crt_state_management@@A 0000000180036218     libucrt:signal.obj
 0003:00002220       ?abort_action@@3V?$dual_state_global@P6AXH@Z@__crt_state_management@@A 0000000180036220     libucrt:signal.obj
 0003:00002228       ?term_action@@3V?$dual_state_global@P6AXH@Z@__crt_state_management@@A 0000000180036228     libucrt:signal.obj
 0003:00002230       ?user_matherr@@3V?$dual_state_global@P6AHPEAU_exception@@@Z@__crt_state_management@@A 0000000180036230     libucrt:matherr.obj
 0003:00002240       ?__acrt_global_new_mode@@3V?$dual_state_global@J@__crt_state_management@@A 0000000180036240     libucrt:new_mode.obj
 0003:00002248       ?internal_pst@?1??__mbrtoc32_utf8@__crt_mbstring@@YA_KPEA_UPEBD_KPEAU_Mbstatet@@AEAV__crt_cached_ptd_host@@@Z@4U3@A 0000000180036248     libucrt:mbrtoc32.obj
 0003:00002250       ?__acrt_app_type@@3W4_crt_app_type@@A 0000000180036250     libucrt:report_runtime_error.obj
 0005:00000000       MoveSmall                  0000000180039000     libvcruntime:memcpy.obj
 0005:00000040       MoveSmallYmm               0000000180039040     libvcruntime:memcpy.obj
 0005:00000064       MoveSmallYmmNT             0000000180039064     libvcruntime:memcpy.obj
 0005:00000088       MoveSmallXmm               0000000180039088     libvcruntime:memcpy.obj
 0005:000000b0       MsetTab                    00000001800390b0     libvcruntime:memset.obj
 0006:00000220       $R000000                   000000018003a220     CoinDispenser.res
 0006:00000bc8       $R0009A8                   000000018003abc8     CoinDispenser.res
 0006:00000cb0       $R000A90                   000000018003acb0     CoinDispenser.res
 0006:00000f18       $R000CF8                   000000018003af18     CoinDispenser.res
 0006:00001498       $R001278                   000000018003b498     CoinDispenser.res
 0006:00003b58       $R003938                   000000018003db58     CoinDispenser.res
 0006:00003b98       $R003978                   000000018003db98     CoinDispenser.res
