 OPOSFiscalPrinter

 Timestamp is 61a75891 (Wed Dec  1 20:12:17 2021)

 Preferred load address is 0000000180000000

 Start         Length     Name                   Class
 0001:00000000 000000c0H .text$di                CODE
 0001:000000c0 00027470H .text$mn                CODE
 0001:00027530 00000040H .text$mn$00             CODE
 0001:00027570 00000660H .text$x                 CODE
 0001:00027bd0 00000078H .text$yd                CODE
 0002:00000000 00000638H .idata$5                DATA
 0002:00000638 00000030H .00cfg                  DATA
 0002:00000668 00000008H .CRT$XCA                DATA
 0002:00000670 00000008H .CRT$XCL                DATA
 0002:00000678 00000020H .CRT$XCU                DATA
 0002:00000698 00000008H .CRT$XCZ                DATA
 0002:000006a0 00000008H .CRT$XIA                DATA
 0002:000006a8 00000020H .CRT$XIC                DATA
 0002:000006c8 00000008H .CRT$XIZ                DATA
 0002:000006d0 00000008H .CRT$XLA                DATA
 0002:000006d8 00000008H .CRT$XLZ                DATA
 0002:000006e0 00000008H .CRT$XPA                DATA
 0002:000006e8 00000010H .CRT$XPX                DATA
 0002:000006f8 00000008H .CRT$XPXA               DATA
 0002:00000700 00000008H .CRT$XPZ                DATA
 0002:00000708 00000008H .CRT$XTA                DATA
 0002:00000710 00000010H .CRT$XTZ                DATA
 0002:00000718 00000000H .gehcont$y              DATA
 0002:00000718 00000000H .gfids$y                DATA
 0002:00000720 0000b360H .rdata                  DATA
 0002:0000ba80 00000000H .rdata$CastGuardVftablesA DATA
 0002:0000ba80 00000000H .rdata$CastGuardVftablesC DATA
 0002:0000ba80 00000028H .rdata$T                DATA
 0002:0000baa8 00000274H .rdata$r                DATA
 0002:0000bd1c 00000048H .rdata$voltmd           DATA
 0002:0000bd64 0000043cH .rdata$zzzdbg           DATA
 0002:0000c1a0 00000008H .rtc$IAA                DATA
 0002:0000c1a8 00000008H .rtc$IZZ                DATA
 0002:0000c1b0 00000008H .rtc$TAA                DATA
 0002:0000c1b8 00000008H .rtc$TZZ                DATA
 0002:0000c1c0 00000004H .tls                    DATA
 0002:0000c1c4 00000004H .tls$                   DATA
 0002:0000c1c8 00000008H .tls$ZZZ                DATA
 0002:0000c1d0 00001998H .xdata                  DATA
 0002:0000db68 00000150H .xdata$x                DATA
 0002:0000dcb8 00000008H ATL$__a                 DATA
 0002:0000dcc0 00000010H ATL$__z                 DATA
 0002:0000dcd0 000000b0H .edata                  DATA
 0002:0000dd80 00000078H .idata$2                DATA
 0002:0000ddf8 00000018H .idata$3                DATA
 0002:0000de10 00000638H .idata$4                DATA
 0002:0000e448 00000c5cH .idata$6                DATA
 0003:00000000 00000f88H .data                   DATA
 0003:00000f88 000000a8H .data$r                 DATA
 0003:00001030 00000020H .data$rs                DATA
 0003:00001050 000013ecH .bss                    DATA
 0004:00000000 000025f8H .pdata                  DATA
 0005:00000000 000000f4H _RDATA                  DATA
 0006:00000000 00000220H .rsrc$01                DATA
 0006:00000220 00009878H .rsrc$02                DATA

  Address         Publics by Value              Rva+Base               Lib:Object

 0000:00000000       ___safe_se_handler_table   0000000000000000     <absolute>
 0000:00000000       __arm64x_redirection_metadata 0000000000000000     <absolute>
 0000:00000000       __guard_longjmp_table      0000000000000000     <absolute>
 0000:00000000       __guard_iat_table          0000000000000000     <absolute>
 0000:00000000       __x64_code_ranges_to_entry_points 0000000000000000     <absolute>
 0000:00000000       __guard_fids_count         0000000000000000     <absolute>
 0000:00000000       __guard_iat_count          0000000000000000     <absolute>
 0000:00000000       __guard_longjmp_count      0000000000000000     <absolute>
 0000:00000000       __arm64x_extra_rfe_table   0000000000000000     <absolute>
 0000:00000000       __dynamic_value_reloc_table 0000000000000000     <absolute>
 0000:00000000       __x64_code_ranges_to_entry_points_count 0000000000000000     <absolute>
 0000:00000000       __hybrid_auxiliary_iat     0000000000000000     <absolute>
 0000:00000000       __hybrid_auxiliary_iat_copy 0000000000000000     <absolute>
 0000:00000000       __hybrid_code_map          0000000000000000     <absolute>
 0000:00000000       __arm64x_extra_rfe_table_size 0000000000000000     <absolute>
 0000:00000000       ___safe_se_handler_count   0000000000000000     <absolute>
 0000:00000000       __AbsoluteZero             0000000000000000     <absolute>
 0000:00000000       __guard_check_icall_a64n_fptr 0000000000000000     <absolute>
 0000:00000000       __guard_fids_table         0000000000000000     <absolute>
 0000:00000000       __guard_eh_cont_count      0000000000000000     <absolute>
 0000:00000000       __arm64x_redirection_metadata_count 0000000000000000     <absolute>
 0000:00000000       __enclave_config           0000000000000000     <absolute>
 0000:00000000       __guard_eh_cont_table      0000000000000000     <absolute>
 0000:00000000       __arm64x_native_entrypoint 0000000000000000     <absolute>
 0000:00000000       __hybrid_code_map_count    0000000000000000     <absolute>
 0000:00000100       __guard_flags              0000000000000100     <absolute>
 0000:00000000       __ImageBase                0000000180000000     <linker-defined>
 0001:000000c0       ?DupWide@_CW@@AEAAXXZ      00000001800010c0 f   CWString.obj
 0001:000000e8       ?cw_dup@@YAXPEBDAEAHAEAPEA_W1@Z 00000001800010e8 f   CWString.obj
 0001:000001c8       ?cw_memcpy@@YAHPEA_WPEBDH@Z 00000001800011c8 f   CWString.obj
 0001:00000214       ?cw_strcpy@@YAHPEA_WPEBD@Z 0000000180001214 f   CWString.obj
 0001:00000228       ??0CAtlComModule@ATL@@QEAA@XZ 0000000180001228 f i OposVariant.obj
 0001:000002a8       ??0CAtlWinModule@ATL@@QEAA@XZ 00000001800012a8 f i OposVariant.obj
 0001:00000314       ??0OposDispParms@@QEAA@PEAVOposVariant@@H@Z 0000000180001314 f   OposVariant.obj
 0001:000003bc       ??1OposDispParms@@QEAA@XZ  00000001800013bc f   OposVariant.obj
 0001:000003d4       ??_Estringdispid@CComTypeInfoHolder@ATL@@QEAAPEAXI@Z 00000001800013d4 f i OposVariant.obj
 0001:00000478       ?AtlWinModuleTerm@ATL@@YAJPEAU_ATL_WIN_MODULE70@1@PEAUHINSTANCE__@@@Z 0000000180001478 f i OposVariant.obj
 0001:00000528       ?ChangeBSTR@OposVariant@@QEAAXPEAPEA_WAEAJ@Z 0000000180001528 f   OposVariant.obj
 0001:00000588       ?ChangeLONG@OposVariant@@QEAAXPEAJAEAJ@Z 0000000180001588 f   OposVariant.obj
 0001:000005e4       ?GetLONG@OposVariant@@QEAAJXZ 00000001800015e4 f   OposVariant.obj
 0001:00000608       ?SetBSTR@OposVariant@@QEAAXPEA_WAEAJ@Z 0000000180001608 f   OposVariant.obj
 0001:00000648       ?SetBSTR_Copy@OposVariant@@QEAAXPEA_WAEAJ@Z 0000000180001648 f   OposVariant.obj
 0001:000006b8       ?SetBSTR_InOutPtr@OposVariant@@QEAA_NPEAPEA_WAEAJ@Z 00000001800016b8 f   OposVariant.obj
 0001:00000708       ?SetBSTR_OutPtr@OposVariant@@QEAA_NPEAPEA_WAEAJ@Z 0000000180001708 f   OposVariant.obj
 0001:00000724       ?SetCURRENCY@OposVariant@@QEAAXTtagCY@@@Z 0000000180001724 f   OposVariant.obj
 0001:00000758       ?SetDispatch_Ptr@OposVariant@@QEAAXPEAUIDispatch@@AEAJ@Z 0000000180001758 f   OposVariant.obj
 0001:000007b0       ?SetLONG@OposVariant@@QEAAXJ@Z 00000001800017b0 f   OposVariant.obj
 0001:000007e0       ?SetLONG_Ptr@OposVariant@@QEAAXPEAJAEAJ@Z 00000001800017e0 f   OposVariant.obj
 0001:0000082c       ?SetString@OposVariant@@QEAAXPEB_WAEAJ@Z 000000018000182c f   OposVariant.obj
 0001:00000890       ?SetVARIANT_BOOL@OposVariant@@QEAAXF@Z 0000000180001890 f   OposVariant.obj
 0001:000008c8       ?Term@CAtlComModule@ATL@@QEAAXXZ 00000001800018c8 f i OposVariant.obj
 0001:00000938       ?_AtlInitializeCriticalSectionEx@ATL@@YAHPEAU_RTL_CRITICAL_SECTION@@KK@Z 0000000180001938 f i OposVariant.obj
 0001:00000940       ?_AtlRaiseException@ATL@@YAXKK@Z 0000000180001940 f i OposVariant.obj
 0001:00000950       ?AddRef@?$CComAggObject@VCOPOSFiscalPrinter@@@ATL@@UEAAKXZ 0000000180001950 f i FiscalPrinter.obj
 0001:0000095c       ?Release@?$CComAggObject@VCOPOSFiscalPrinter@@@ATL@@UEAAKXZ 000000018000195c f i FiscalPrinter.obj
 0001:000009b0       ?QueryInterface@?$CComAggObject@VCOPOSFiscalPrinter@@@ATL@@UEAAJAEBU_GUID@@PEAPEAX@Z 00000001800019b0 f i FiscalPrinter.obj
 0001:00000a10       ?AddRef@?$CComContainedObject@VCOPOSFiscalPrinter@@@ATL@@UEAAKXZ 0000000180001a10 f i FiscalPrinter.obj
 0001:00000a20       ?Release@?$CComContainedObject@VCOPOSFiscalPrinter@@@ATL@@UEAAKXZ 0000000180001a20 f i FiscalPrinter.obj
 0001:00000a30       ?QueryInterface@?$CComContainedObject@VCOPOSFiscalPrinter@@@ATL@@UEAAJAEBU_GUID@@PEAPEAX@Z 0000000180001a30 f i FiscalPrinter.obj
 0001:00000a40       ??_E?$CComAggObject@VCOPOSFiscalPrinter@@@ATL@@UEAAPEAXI@Z 0000000180001a40 f i FiscalPrinter.obj
 0001:00000a40       ??_G?$CComAggObject@VCOPOSFiscalPrinter@@@ATL@@UEAAPEAXI@Z 0000000180001a40 f i FiscalPrinter.obj
 0001:00000a98       ?AddRef@?$CComObject@VCOPOSFiscalPrinter@@@ATL@@UEAAKXZ 0000000180001a98 f i FiscalPrinter.obj
 0001:00000aa8       ?Release@?$CComObject@VCOPOSFiscalPrinter@@@ATL@@UEAAKXZ 0000000180001aa8 f i FiscalPrinter.obj
 0001:00000b00       ?QueryInterface@?$CComObject@VCOPOSFiscalPrinter@@@ATL@@UEAAJAEBU_GUID@@PEAPEAX@Z 0000000180001b00 f i FiscalPrinter.obj
 0001:00000b14       _guard_check_icall_nop     0000000180001b14 f i LIBCMT:guard_support.obj
 0001:00000b14       ?ObjectMain@CComObjectRootBase@ATL@@SAX_N@Z 0000000180001b14 f i FiscalPrinter.obj
 0001:00000b14       ?OnFinalMessage@?$CWindowImplBaseT@VCWindow@ATL@@V?$CWinTraits@$0FGAAAAAA@$0A@@2@@ATL@@UEAAXPEAUHWND__@@@Z 0000000180001b14 f i FiscalPrinter.obj
 0001:00000b18       ?EnableModeless@?$IOleInPlaceActiveObjectImpl@VCOPOSFiscalPrinter@@@ATL@@UEAAJH@Z 0000000180001b18 f i FiscalPrinter.obj
 0001:00000b18       ?ResizeBorder@?$IOleInPlaceActiveObjectImpl@VCOPOSFiscalPrinter@@@ATL@@UEAAJPEBUtagRECT@@PEAUIOleInPlaceUIWindow@@H@Z 0000000180001b18 f i FiscalPrinter.obj
 0001:00000b18       ?HandsOffStorage@?$IPersistStorageImpl@VCOPOSFiscalPrinter@@@ATL@@UEAAJXZ 0000000180001b18 f i FiscalPrinter.obj
 0001:00000b18       ?IsUpToDate@?$IOleObjectImpl@VCOPOSFiscalPrinter@@@ATL@@UEAAJXZ 0000000180001b18 f i FiscalPrinter.obj
 0001:00000b18       ?SaveCompleted@?$IPersistStorageImpl@VCOPOSFiscalPrinter@@@ATL@@UEAAJPEAUIStorage@@@Z 0000000180001b18 f i FiscalPrinter.obj
 0001:00000b18       ?OnAmbientPropertyChange@?$IOleControlImpl@VCOPOSFiscalPrinter@@@ATL@@UEAAJJ@Z 0000000180001b18 f i FiscalPrinter.obj
 0001:00000b18       ?Release@CRegObject@ATL@@UEAAKXZ 0000000180001b18 f i FiscalPrinter.obj
 0001:00000b18       ?GetObjectDescription@?$CComCoClass@VCOPOSFiscalPrinter@@$1?CLSID_OPOSFiscalPrinter@@3U_GUID@@B@ATL@@SAPEB_WXZ 0000000180001b18 f i FiscalPrinter.obj
 0001:00000b18       ?GetCategoryMap@CComObjectRootBase@ATL@@SAPEBU_ATL_CATMAP_ENTRY@2@XZ 0000000180001b18 f i FiscalPrinter.obj
 0001:00000b18       ?OnFrameWindowActivate@?$IOleInPlaceActiveObjectImpl@VCOPOSFiscalPrinter@@@ATL@@UEAAJH@Z 0000000180001b18 f i FiscalPrinter.obj
 0001:00000b18       ?SetHostNames@?$IOleObjectImpl@VCOPOSFiscalPrinter@@@ATL@@UEAAJPEB_W0@Z 0000000180001b18 f i FiscalPrinter.obj
 0001:00000b18       ?Update@?$IOleObjectImpl@VCOPOSFiscalPrinter@@@ATL@@UEAAJXZ 0000000180001b18 f i FiscalPrinter.obj
 0001:00000b1c       ?CreateInstance@CComClassFactory@ATL@@UEAAJPEAUIUnknown@@AEBU_GUID@@PEAPEAX@Z 0000000180001b1c f i FiscalPrinter.obj
 0001:00000b7c       ?LockServer@CComClassFactory@ATL@@UEAAJH@Z 0000000180001b7c f i FiscalPrinter.obj
 0001:00000ba0       ??_GCComClassFactory@ATL@@UEAAPEAXI@Z 0000000180001ba0 f i FiscalPrinter.obj
 0001:00000ba0       ??_ECComClassFactory@ATL@@UEAAPEAXI@Z 0000000180001ba0 f i FiscalPrinter.obj
 0001:00000bf0       ?Next@?$CComEnumImpl@UIEnumConnections@@$1?_GUID_b196b287_bab4_101a_b69c_00aa00341d07@@3U__s_GUID@@BUtagCONNECTDATA@@V?$_Copy@UtagCONNECTDATA@@@ATL@@@ATL@@UEAAJKPEAUtagCONNECTDATA@@PEAK@Z 0000000180001bf0 f i FiscalPrinter.obj
 0001:00000cb8       ?Skip@?$CComEnumImpl@UIEnumConnections@@$1?_GUID_b196b287_bab4_101a_b69c_00aa00341d07@@3U__s_GUID@@BUtagCONNECTDATA@@V?$_Copy@UtagCONNECTDATA@@@ATL@@@ATL@@UEAAJK@Z 0000000180001cb8 f i FiscalPrinter.obj
 0001:00000ce4       ?Reset@?$CComEnumImpl@UIEnumConnections@@$1?_GUID_b196b287_bab4_101a_b69c_00aa00341d07@@3U__s_GUID@@BUtagCONNECTDATA@@V?$_Copy@UtagCONNECTDATA@@@ATL@@@ATL@@UEAAJXZ 0000000180001ce4 f i FiscalPrinter.obj
 0001:00000ce4       ?Reset@?$CComEnumImpl@UIEnumConnectionPoints@@$1?_GUID_b196b285_bab4_101a_b69c_00aa00341d07@@3U__s_GUID@@BPEAUIConnectionPoint@@V?$_CopyInterface@UIConnectionPoint@@@ATL@@@ATL@@UEAAJXZ 0000000180001ce4 f i FiscalPrinter.obj
 0001:00000cf0       ?Clone@?$CComEnumImpl@UIEnumConnections@@$1?_GUID_b196b287_bab4_101a_b69c_00aa00341d07@@3U__s_GUID@@BUtagCONNECTDATA@@V?$_Copy@UtagCONNECTDATA@@@ATL@@@ATL@@UEAAJPEAPEAUIEnumConnections@@@Z 0000000180001cf0 f i FiscalPrinter.obj
 0001:00000e1c       ?AddRef@?$CComObject@V?$CComEnum@UIEnumConnections@@$1?_GUID_b196b287_bab4_101a_b69c_00aa00341d07@@3U__s_GUID@@BUtagCONNECTDATA@@V?$_Copy@UtagCONNECTDATA@@@ATL@@VCComSingleThreadModel@6@@ATL@@@ATL@@UEAAKXZ 0000000180001e1c f i FiscalPrinter.obj
 0001:00000e1c       ?AddRef@?$CComObject@V?$CComEnum@UIEnumConnectionPoints@@$1?_GUID_b196b285_bab4_101a_b69c_00aa00341d07@@3U__s_GUID@@BPEAUIConnectionPoint@@V?$_CopyInterface@UIConnectionPoint@@@ATL@@VCComSingleThreadModel@6@@ATL@@@ATL@@UEAAKXZ 0000000180001e1c f i FiscalPrinter.obj
 0001:00000e28       ?Release@?$CComObject@V?$CComEnum@UIEnumConnectionPoints@@$1?_GUID_b196b285_bab4_101a_b69c_00aa00341d07@@3U__s_GUID@@BPEAUIConnectionPoint@@V?$_CopyInterface@UIConnectionPoint@@@ATL@@VCComSingleThreadModel@6@@ATL@@@ATL@@UEAAKXZ 0000000180001e28 f i FiscalPrinter.obj
 0001:00000e28       ?Release@?$CComObject@V?$CComEnum@UIEnumConnections@@$1?_GUID_b196b287_bab4_101a_b69c_00aa00341d07@@3U__s_GUID@@BUtagCONNECTDATA@@V?$_Copy@UtagCONNECTDATA@@@ATL@@VCComSingleThreadModel@6@@ATL@@@ATL@@UEAAKXZ 0000000180001e28 f i FiscalPrinter.obj
 0001:00000e7c       ?QueryInterface@?$CComObject@V?$CComEnum@UIEnumConnections@@$1?_GUID_b196b287_bab4_101a_b69c_00aa00341d07@@3U__s_GUID@@BUtagCONNECTDATA@@V?$_Copy@UtagCONNECTDATA@@@ATL@@VCComSingleThreadModel@6@@ATL@@@ATL@@UEAAJAEBU_GUID@@PEAPEAX@Z 0000000180001e7c f i FiscalPrinter.obj
 0001:00000e90       ??_G?$CComObject@V?$CComEnum@UIEnumConnections@@$1?_GUID_b196b287_bab4_101a_b69c_00aa00341d07@@3U__s_GUID@@BUtagCONNECTDATA@@V?$_Copy@UtagCONNECTDATA@@@ATL@@VCComSingleThreadModel@6@@ATL@@@ATL@@UEAAPEAXI@Z 0000000180001e90 f i FiscalPrinter.obj
 0001:00000e90       ??_E?$CComObject@V?$CComEnum@UIEnumConnections@@$1?_GUID_b196b287_bab4_101a_b69c_00aa00341d07@@3U__s_GUID@@BUtagCONNECTDATA@@V?$_Copy@UtagCONNECTDATA@@@ATL@@VCComSingleThreadModel@6@@ATL@@@ATL@@UEAAPEAXI@Z 0000000180001e90 f i FiscalPrinter.obj
 0001:00000ee8       ?GetWindowProc@?$CWindowImplBaseT@VCWindow@ATL@@V?$CWinTraits@$0FGAAAAAA@$0A@@2@@ATL@@UEAAP6A_JPEAUHWND__@@I_K_J@ZXZ 0000000180001ee8 f i FiscalPrinter.obj
 0001:00000ef0       ?StartWindowProc@?$CWindowImplBaseT@VCWindow@ATL@@V?$CWinTraits@$0FGAAAAAA@$0A@@2@@ATL@@SA_JPEAUHWND__@@I_K_J@Z 0000000180001ef0 f i FiscalPrinter.obj
 0001:00000fa4       ??_E?$CComObject@VCOPOSFiscalPrinter@@@ATL@@W7EAAPEAXI@Z 0000000180001fa4 f i FiscalPrinter.obj
 0001:00000fb0       ??_E?$CComObject@VCOPOSFiscalPrinter@@@ATL@@WHA@EAAPEAXI@Z 0000000180001fb0 f i FiscalPrinter.obj
 0001:00000fbc       ?QueryInterface@?$CComObject@VCOPOSFiscalPrinter@@@ATL@@WLI@EAAJAEBU_GUID@@PEAPEAX@Z 0000000180001fbc f i FiscalPrinter.obj
 0001:00000fc8       ?AddRef@?$CComObject@VCOPOSFiscalPrinter@@@ATL@@WLI@EAAKXZ 0000000180001fc8 f i FiscalPrinter.obj
 0001:00000fd4       ?Release@?$CComObject@VCOPOSFiscalPrinter@@@ATL@@WLI@EAAKXZ 0000000180001fd4 f i FiscalPrinter.obj
 0001:00000fe0       ?QueryInterface@?$CComObject@VCOPOSFiscalPrinter@@@ATL@@WMA@EAAJAEBU_GUID@@PEAPEAX@Z 0000000180001fe0 f i FiscalPrinter.obj
 0001:00000fec       ?AddRef@?$CComObject@VCOPOSFiscalPrinter@@@ATL@@WMA@EAAKXZ 0000000180001fec f i FiscalPrinter.obj
 0001:00000ff8       ?Release@?$CComObject@VCOPOSFiscalPrinter@@@ATL@@WMA@EAAKXZ 0000000180001ff8 f i FiscalPrinter.obj
 0001:00001004       ?QueryInterface@?$CComObject@VCOPOSFiscalPrinter@@@ATL@@WMI@EAAJAEBU_GUID@@PEAPEAX@Z 0000000180002004 f i FiscalPrinter.obj
 0001:00001010       ?AddRef@?$CComObject@VCOPOSFiscalPrinter@@@ATL@@WMI@EAAKXZ 0000000180002010 f i FiscalPrinter.obj
 0001:0000101c       ?Release@?$CComObject@VCOPOSFiscalPrinter@@@ATL@@WMI@EAAKXZ 000000018000201c f i FiscalPrinter.obj
 0001:00001028       ?QueryInterface@?$CComObject@VCOPOSFiscalPrinter@@@ATL@@WNA@EAAJAEBU_GUID@@PEAPEAX@Z 0000000180002028 f i FiscalPrinter.obj
 0001:00001034       ?AddRef@?$CComObject@VCOPOSFiscalPrinter@@@ATL@@WNA@EAAKXZ 0000000180002034 f i FiscalPrinter.obj
 0001:00001040       ?Release@?$CComObject@VCOPOSFiscalPrinter@@@ATL@@WNA@EAAKXZ 0000000180002040 f i FiscalPrinter.obj
 0001:0000104c       ?QueryInterface@?$CComObject@VCOPOSFiscalPrinter@@@ATL@@WNI@EAAJAEBU_GUID@@PEAPEAX@Z 000000018000204c f i FiscalPrinter.obj
 0001:00001058       ?AddRef@?$CComObject@VCOPOSFiscalPrinter@@@ATL@@WNI@EAAKXZ 0000000180002058 f i FiscalPrinter.obj
 0001:00001064       ?Release@?$CComObject@VCOPOSFiscalPrinter@@@ATL@@WNI@EAAKXZ 0000000180002064 f i FiscalPrinter.obj
 0001:00001070       ?QueryInterface@?$CComObject@VCOPOSFiscalPrinter@@@ATL@@WOA@EAAJAEBU_GUID@@PEAPEAX@Z 0000000180002070 f i FiscalPrinter.obj
 0001:0000107c       ?AddRef@?$CComObject@VCOPOSFiscalPrinter@@@ATL@@WOA@EAAKXZ 000000018000207c f i FiscalPrinter.obj
 0001:00001088       ?Release@?$CComObject@VCOPOSFiscalPrinter@@@ATL@@WOA@EAAKXZ 0000000180002088 f i FiscalPrinter.obj
 0001:00001094       ?QueryInterface@?$CComObject@VCOPOSFiscalPrinter@@@ATL@@WOI@EAAJAEBU_GUID@@PEAPEAX@Z 0000000180002094 f i FiscalPrinter.obj
 0001:000010a0       ?AddRef@?$CComObject@VCOPOSFiscalPrinter@@@ATL@@WOI@EAAKXZ 00000001800020a0 f i FiscalPrinter.obj
 0001:000010ac       ?Release@?$CComObject@VCOPOSFiscalPrinter@@@ATL@@WOI@EAAKXZ 00000001800020ac f i FiscalPrinter.obj
 0001:000010b8       ?QueryInterface@?$CComObject@VCOPOSFiscalPrinter@@@ATL@@WPA@EAAJAEBU_GUID@@PEAPEAX@Z 00000001800020b8 f i FiscalPrinter.obj
 0001:000010c4       ?AddRef@?$CComObject@VCOPOSFiscalPrinter@@@ATL@@WPA@EAAKXZ 00000001800020c4 f i FiscalPrinter.obj
 0001:000010d0       ?Release@?$CComObject@VCOPOSFiscalPrinter@@@ATL@@WPA@EAAKXZ 00000001800020d0 f i FiscalPrinter.obj
 0001:000010dc       ?QueryInterface@?$CComObject@VCOPOSFiscalPrinter@@@ATL@@WPI@EAAJAEBU_GUID@@PEAPEAX@Z 00000001800020dc f i FiscalPrinter.obj
 0001:000010e8       ?AddRef@?$CComObject@VCOPOSFiscalPrinter@@@ATL@@WPI@EAAKXZ 00000001800020e8 f i FiscalPrinter.obj
 0001:000010f4       ?Release@?$CComObject@VCOPOSFiscalPrinter@@@ATL@@WPI@EAAKXZ 00000001800020f4 f i FiscalPrinter.obj
 0001:00001100       ?QueryInterface@?$CComObject@VCOPOSFiscalPrinter@@@ATL@@WBAA@EAAJAEBU_GUID@@PEAPEAX@Z 0000000180002100 f i FiscalPrinter.obj
 0001:0000110c       ?AddRef@?$CComObject@VCOPOSFiscalPrinter@@@ATL@@WBAA@EAAKXZ 000000018000210c f i FiscalPrinter.obj
 0001:00001118       ?Release@?$CComObject@VCOPOSFiscalPrinter@@@ATL@@WBAA@EAAKXZ 0000000180002118 f i FiscalPrinter.obj
 0001:00001124       ?QueryInterface@?$CComObject@VCOPOSFiscalPrinter@@@ATL@@WBAI@EAAJAEBU_GUID@@PEAPEAX@Z 0000000180002124 f i FiscalPrinter.obj
 0001:00001130       ?AddRef@?$CComObject@VCOPOSFiscalPrinter@@@ATL@@WBAI@EAAKXZ 0000000180002130 f i FiscalPrinter.obj
 0001:0000113c       ?Release@?$CComObject@VCOPOSFiscalPrinter@@@ATL@@WBAI@EAAKXZ 000000018000213c f i FiscalPrinter.obj
 0001:00001148       ?QueryInterface@?$CComObject@VCOPOSFiscalPrinter@@@ATL@@WBBA@EAAJAEBU_GUID@@PEAPEAX@Z 0000000180002148 f i FiscalPrinter.obj
 0001:00001154       ?AddRef@?$CComObject@VCOPOSFiscalPrinter@@@ATL@@WBBA@EAAKXZ 0000000180002154 f i FiscalPrinter.obj
 0001:00001160       ?Release@?$CComObject@VCOPOSFiscalPrinter@@@ATL@@WBBA@EAAKXZ 0000000180002160 f i FiscalPrinter.obj
 0001:0000116c       ?QueryInterface@?$CComObject@VCOPOSFiscalPrinter@@@ATL@@WBBI@EAAJAEBU_GUID@@PEAPEAX@Z 000000018000216c f i FiscalPrinter.obj
 0001:00001178       ?AddRef@?$CComObject@VCOPOSFiscalPrinter@@@ATL@@WBBI@EAAKXZ 0000000180002178 f i FiscalPrinter.obj
 0001:00001184       ?Release@?$CComObject@VCOPOSFiscalPrinter@@@ATL@@WBBI@EAAKXZ 0000000180002184 f i FiscalPrinter.obj
 0001:00001190       ?AddRef@?$CComObject@VCOPOSFiscalPrinter@@@ATL@@WBCI@EAAKXZ 0000000180002190 f i FiscalPrinter.obj
 0001:0000119c       ?Release@?$CComObject@VCOPOSFiscalPrinter@@@ATL@@WBCI@EAAKXZ 000000018000219c f i FiscalPrinter.obj
 0001:000011a8       ?AddRef@?$CComObject@VCOPOSFiscalPrinter@@@ATL@@WBEA@EAAKXZ 00000001800021a8 f i FiscalPrinter.obj
 0001:000011b4       ?Release@?$CComObject@VCOPOSFiscalPrinter@@@ATL@@WBEA@EAAKXZ 00000001800021b4 f i FiscalPrinter.obj
 0001:000011c0       ??_E?$CComContainedObject@VCOPOSFiscalPrinter@@@ATL@@W7EAAPEAXI@Z 00000001800021c0 f i FiscalPrinter.obj
 0001:000011cc       ??_E?$CComContainedObject@VCOPOSFiscalPrinter@@@ATL@@WHA@EAAPEAXI@Z 00000001800021cc f i FiscalPrinter.obj
 0001:000011d8       ?QueryInterface@?$CComContainedObject@VCOPOSFiscalPrinter@@@ATL@@WLI@EAAJAEBU_GUID@@PEAPEAX@Z 00000001800021d8 f i FiscalPrinter.obj
 0001:000011e4       ?AddRef@?$CComContainedObject@VCOPOSFiscalPrinter@@@ATL@@WLI@EAAKXZ 00000001800021e4 f i FiscalPrinter.obj
 0001:000011f0       ?Release@?$CComContainedObject@VCOPOSFiscalPrinter@@@ATL@@WLI@EAAKXZ 00000001800021f0 f i FiscalPrinter.obj
 0001:000011fc       ?QueryInterface@?$CComContainedObject@VCOPOSFiscalPrinter@@@ATL@@WMA@EAAJAEBU_GUID@@PEAPEAX@Z 00000001800021fc f i FiscalPrinter.obj
 0001:00001208       ?AddRef@?$CComContainedObject@VCOPOSFiscalPrinter@@@ATL@@WMA@EAAKXZ 0000000180002208 f i FiscalPrinter.obj
 0001:00001214       ?Release@?$CComContainedObject@VCOPOSFiscalPrinter@@@ATL@@WMA@EAAKXZ 0000000180002214 f i FiscalPrinter.obj
 0001:00001220       ?QueryInterface@?$CComContainedObject@VCOPOSFiscalPrinter@@@ATL@@WMI@EAAJAEBU_GUID@@PEAPEAX@Z 0000000180002220 f i FiscalPrinter.obj
 0001:0000122c       ?AddRef@?$CComContainedObject@VCOPOSFiscalPrinter@@@ATL@@WMI@EAAKXZ 000000018000222c f i FiscalPrinter.obj
 0001:00001238       ?Release@?$CComContainedObject@VCOPOSFiscalPrinter@@@ATL@@WMI@EAAKXZ 0000000180002238 f i FiscalPrinter.obj
 0001:00001244       ?QueryInterface@?$CComContainedObject@VCOPOSFiscalPrinter@@@ATL@@WNA@EAAJAEBU_GUID@@PEAPEAX@Z 0000000180002244 f i FiscalPrinter.obj
 0001:00001250       ?AddRef@?$CComContainedObject@VCOPOSFiscalPrinter@@@ATL@@WNA@EAAKXZ 0000000180002250 f i FiscalPrinter.obj
 0001:0000125c       ?Release@?$CComContainedObject@VCOPOSFiscalPrinter@@@ATL@@WNA@EAAKXZ 000000018000225c f i FiscalPrinter.obj
 0001:00001268       ?QueryInterface@?$CComContainedObject@VCOPOSFiscalPrinter@@@ATL@@WNI@EAAJAEBU_GUID@@PEAPEAX@Z 0000000180002268 f i FiscalPrinter.obj
 0001:00001274       ?AddRef@?$CComContainedObject@VCOPOSFiscalPrinter@@@ATL@@WNI@EAAKXZ 0000000180002274 f i FiscalPrinter.obj
 0001:00001280       ?Release@?$CComContainedObject@VCOPOSFiscalPrinter@@@ATL@@WNI@EAAKXZ 0000000180002280 f i FiscalPrinter.obj
 0001:0000128c       ?QueryInterface@?$CComContainedObject@VCOPOSFiscalPrinter@@@ATL@@WOA@EAAJAEBU_GUID@@PEAPEAX@Z 000000018000228c f i FiscalPrinter.obj
 0001:00001298       ?AddRef@?$CComContainedObject@VCOPOSFiscalPrinter@@@ATL@@WOA@EAAKXZ 0000000180002298 f i FiscalPrinter.obj
 0001:000012a4       ?Release@?$CComContainedObject@VCOPOSFiscalPrinter@@@ATL@@WOA@EAAKXZ 00000001800022a4 f i FiscalPrinter.obj
 0001:000012b0       ?QueryInterface@?$CComContainedObject@VCOPOSFiscalPrinter@@@ATL@@WOI@EAAJAEBU_GUID@@PEAPEAX@Z 00000001800022b0 f i FiscalPrinter.obj
 0001:000012bc       ?AddRef@?$CComContainedObject@VCOPOSFiscalPrinter@@@ATL@@WOI@EAAKXZ 00000001800022bc f i FiscalPrinter.obj
 0001:000012c8       ?Release@?$CComContainedObject@VCOPOSFiscalPrinter@@@ATL@@WOI@EAAKXZ 00000001800022c8 f i FiscalPrinter.obj
 0001:000012d4       ?QueryInterface@?$CComContainedObject@VCOPOSFiscalPrinter@@@ATL@@WPA@EAAJAEBU_GUID@@PEAPEAX@Z 00000001800022d4 f i FiscalPrinter.obj
 0001:000012e0       ?AddRef@?$CComContainedObject@VCOPOSFiscalPrinter@@@ATL@@WPA@EAAKXZ 00000001800022e0 f i FiscalPrinter.obj
 0001:000012ec       ?Release@?$CComContainedObject@VCOPOSFiscalPrinter@@@ATL@@WPA@EAAKXZ 00000001800022ec f i FiscalPrinter.obj
 0001:000012f8       ?QueryInterface@?$CComContainedObject@VCOPOSFiscalPrinter@@@ATL@@WPI@EAAJAEBU_GUID@@PEAPEAX@Z 00000001800022f8 f i FiscalPrinter.obj
 0001:00001304       ?AddRef@?$CComContainedObject@VCOPOSFiscalPrinter@@@ATL@@WPI@EAAKXZ 0000000180002304 f i FiscalPrinter.obj
 0001:00001310       ?Release@?$CComContainedObject@VCOPOSFiscalPrinter@@@ATL@@WPI@EAAKXZ 0000000180002310 f i FiscalPrinter.obj
 0001:0000131c       ?QueryInterface@?$CComContainedObject@VCOPOSFiscalPrinter@@@ATL@@WBAA@EAAJAEBU_GUID@@PEAPEAX@Z 000000018000231c f i FiscalPrinter.obj
 0001:00001328       ?AddRef@?$CComContainedObject@VCOPOSFiscalPrinter@@@ATL@@WBAA@EAAKXZ 0000000180002328 f i FiscalPrinter.obj
 0001:00001334       ?Release@?$CComContainedObject@VCOPOSFiscalPrinter@@@ATL@@WBAA@EAAKXZ 0000000180002334 f i FiscalPrinter.obj
 0001:00001340       ?QueryInterface@?$CComContainedObject@VCOPOSFiscalPrinter@@@ATL@@WBAI@EAAJAEBU_GUID@@PEAPEAX@Z 0000000180002340 f i FiscalPrinter.obj
 0001:0000134c       ?AddRef@?$CComContainedObject@VCOPOSFiscalPrinter@@@ATL@@WBAI@EAAKXZ 000000018000234c f i FiscalPrinter.obj
 0001:00001358       ?Release@?$CComContainedObject@VCOPOSFiscalPrinter@@@ATL@@WBAI@EAAKXZ 0000000180002358 f i FiscalPrinter.obj
 0001:00001364       ?QueryInterface@?$CComContainedObject@VCOPOSFiscalPrinter@@@ATL@@WBBA@EAAJAEBU_GUID@@PEAPEAX@Z 0000000180002364 f i FiscalPrinter.obj
 0001:00001370       ?AddRef@?$CComContainedObject@VCOPOSFiscalPrinter@@@ATL@@WBBA@EAAKXZ 0000000180002370 f i FiscalPrinter.obj
 0001:0000137c       ?Release@?$CComContainedObject@VCOPOSFiscalPrinter@@@ATL@@WBBA@EAAKXZ 000000018000237c f i FiscalPrinter.obj
 0001:00001388       ?QueryInterface@?$CComContainedObject@VCOPOSFiscalPrinter@@@ATL@@WBBI@EAAJAEBU_GUID@@PEAPEAX@Z 0000000180002388 f i FiscalPrinter.obj
 0001:00001394       ?AddRef@?$CComContainedObject@VCOPOSFiscalPrinter@@@ATL@@WBBI@EAAKXZ 0000000180002394 f i FiscalPrinter.obj
 0001:000013a0       ?Release@?$CComContainedObject@VCOPOSFiscalPrinter@@@ATL@@WBBI@EAAKXZ 00000001800023a0 f i FiscalPrinter.obj
 0001:000013ac       ?AddRef@?$CComContainedObject@VCOPOSFiscalPrinter@@@ATL@@WBCI@EAAKXZ 00000001800023ac f i FiscalPrinter.obj
 0001:000013b8       ?Release@?$CComContainedObject@VCOPOSFiscalPrinter@@@ATL@@WBCI@EAAKXZ 00000001800023b8 f i FiscalPrinter.obj
 0001:000013c4       ?AddRef@?$CComContainedObject@VCOPOSFiscalPrinter@@@ATL@@WBEA@EAAKXZ 00000001800023c4 f i FiscalPrinter.obj
 0001:000013d0       ?Release@?$CComContainedObject@VCOPOSFiscalPrinter@@@ATL@@WBEA@EAAKXZ 00000001800023d0 f i FiscalPrinter.obj
 0001:000013dc       ?Lock@CAtlModule@ATL@@UEAAJXZ 00000001800023dc f i FiscalPrinter.obj
 0001:000013ec       ?Unlock@CAtlModule@ATL@@UEAAJXZ 00000001800023ec f i FiscalPrinter.obj
 0001:000013f8       ?GetLockCount@CAtlModule@ATL@@UEAAJXZ 00000001800023f8 f i FiscalPrinter.obj
 0001:000013fc       ?GetGITPtr@CAtlModule@ATL@@UEAAJPEAPEAUIGlobalInterfaceTable@@@Z 00000001800023fc f i FiscalPrinter.obj
 0001:0000146c       ?AddCommonRGSReplacements@?$CAtlModuleT@VCComModule@ATL@@@ATL@@UEAAJPEAUIRegistrarBase@@@Z 000000018000246c f i FiscalPrinter.obj
 0001:00001484       ?UpdateRegistryFromResourceD@CComModule@ATL@@UEAAJIHPEAU_ATL_REGMAP_ENTRY@2@@Z 0000000180002484 f i FiscalPrinter.obj
 0001:00001484       ?UpdateRegistryFromResourceD@CComModule@ATL@@UEAAJPEB_WHPEAU_ATL_REGMAP_ENTRY@2@@Z 0000000180002484 f i FiscalPrinter.obj
 0001:0000148c       ?UpdateRegistryFromResource@CComModule@ATL@@UEAAJPEB_WHPEAU_ATL_REGMAP_ENTRY@2@@Z 000000018000248c f i FiscalPrinter.obj
 0001:00001494       ?UpdateRegistryFromResource@CComModule@ATL@@UEAAJIHPEAU_ATL_REGMAP_ENTRY@2@@Z 0000000180002494 f i FiscalPrinter.obj
 0001:0000149c       ??_GCComModule@ATL@@UEAAPEAXI@Z 000000018000249c f i FiscalPrinter.obj
 0001:0000149c       ??_ECComModule@ATL@@UEAAPEAXI@Z 000000018000249c f i FiscalPrinter.obj
 0001:000014dc       ?GetTypeInfoCount@?$IDispatchImpl@UIOPOSFiscalPrinter@@$1?IID_IOPOSFiscalPrinter@@3U_GUID@@B$1?LIBID_OposFiscalPrinter_CCO@@3U3@B$00$0A@VCComTypeInfoHolder@ATL@@@ATL@@UEAAJPEAI@Z 00000001800024dc f i FiscalPrinter.obj
 0001:000014f0       ?GetTypeInfo@?$IDispatchImpl@UIOPOSFiscalPrinter@@$1?IID_IOPOSFiscalPrinter@@3U_GUID@@B$1?LIBID_OposFiscalPrinter_CCO@@3U3@B$00$0A@VCComTypeInfoHolder@ATL@@@ATL@@UEAAJIKPEAPEAUITypeInfo@@@Z 00000001800024f0 f i FiscalPrinter.obj
 0001:00001554       ?GetIDsOfNames@?$IDispatchImpl@UIOPOSFiscalPrinter@@$1?IID_IOPOSFiscalPrinter@@3U_GUID@@B$1?LIBID_OposFiscalPrinter_CCO@@3U3@B$00$0A@VCComTypeInfoHolder@ATL@@@ATL@@UEAAJAEBU_GUID@@PEAPEA_WIKPEAJ@Z 0000000180002554 f i FiscalPrinter.obj
 0001:00001560       ?Invoke@?$IDispatchImpl@UIOPOSFiscalPrinter@@$1?IID_IOPOSFiscalPrinter@@3U_GUID@@B$1?LIBID_OposFiscalPrinter_CCO@@3U3@B$00$0A@VCComTypeInfoHolder@ATL@@@ATL@@UEAAJJAEBU_GUID@@KGPEAUtagDISPPARAMS@@PEAUtagVARIANT@@PEAUtagEXCEPINFO@@PEAI@Z 0000000180002560 f i FiscalPrinter.obj
 0001:000015f0       ?CreateControlWindow@?$CComControl@VCOPOSFiscalPrinter@@V?$CWindowImpl@VCOPOSFiscalPrinter@@VCWindow@ATL@@V?$CWinTraits@$0FGAAAAAA@$0A@@3@@ATL@@@ATL@@UEAAPEAUHWND__@@PEAU3@AEAUtagRECT@@@Z 00000001800025f0 f i FiscalPrinter.obj
 0001:00001628       ?ControlQueryInterface@?$CComControl@VCOPOSFiscalPrinter@@V?$CWindowImpl@VCOPOSFiscalPrinter@@VCWindow@ATL@@V?$CWinTraits@$0FGAAAAAA@$0A@@3@@ATL@@@ATL@@UEAAJAEBU_GUID@@PEAPEAX@Z 0000000180002628 f i FiscalPrinter.obj
 0001:0000163c       ?GetClassID@?$IPersistStreamInitImpl@VCOPOSFiscalPrinter@@@ATL@@UEAAJPEAU_GUID@@@Z 000000018000263c f i FiscalPrinter.obj
 0001:0000163c       ?GetUserClassID@?$IOleObjectImpl@VCOPOSFiscalPrinter@@@ATL@@UEAAJPEAU_GUID@@@Z 000000018000263c f i FiscalPrinter.obj
 0001:0000163c       ?GetClassID@?$IPersistStorageImpl@VCOPOSFiscalPrinter@@@ATL@@UEAAJPEAU_GUID@@@Z 000000018000263c f i FiscalPrinter.obj
 0001:00001658       ?IsDirty@?$IPersistStreamInitImpl@VCOPOSFiscalPrinter@@@ATL@@UEAAJXZ 0000000180002658 f i FiscalPrinter.obj
 0001:00001674       ?Load@?$IPersistStreamInitImpl@VCOPOSFiscalPrinter@@@ATL@@UEAAJPEAUIStream@@@Z 0000000180002674 f i FiscalPrinter.obj
 0001:0000168c       ?Save@?$IPersistStreamInitImpl@VCOPOSFiscalPrinter@@@ATL@@UEAAJPEAUIStream@@H@Z 000000018000268c f i FiscalPrinter.obj
 0001:000016a4       ?GetSizeMax@?$IPersistStreamInitImpl@VCOPOSFiscalPrinter@@@ATL@@UEAAJPEAT_ULARGE_INTEGER@@@Z 00000001800026a4 f i FiscalPrinter.obj
 0001:000018c8       ?InitNew@?$IPersistStreamInitImpl@VCOPOSFiscalPrinter@@@ATL@@UEAAJXZ 00000001800028c8 f i FiscalPrinter.obj
 0001:000018e0       ?SetMoniker@?$IOleObjectImpl@VCOPOSFiscalPrinter@@@ATL@@UEAAJKPEAUIMoniker@@@Z 00000001800028e0 f i FiscalPrinter.obj
 0001:000018e0       ?SODataDummy@COPOSFiscalPrinter@@MEAAJJ@Z 00000001800028e0 f i FiscalPrinter.obj
 0001:000018e0       ?ContextSensitiveHelp@?$IOleInPlaceActiveObjectImpl@VCOPOSFiscalPrinter@@@ATL@@UEAAJH@Z 00000001800028e0 f i FiscalPrinter.obj
 0001:000018e0       ?Freeze@?$IViewObjectExImpl@VCOPOSFiscalPrinter@@@ATL@@UEAAJKJPEAXPEAK@Z 00000001800028e0 f i FiscalPrinter.obj
 0001:000018e0       ?GetRect@?$IViewObjectExImpl@VCOPOSFiscalPrinter@@@ATL@@UEAAJKPEAU_RECTL@@@Z 00000001800028e0 f i FiscalPrinter.obj
 0001:000018e0       ?GetClipboardData@?$IOleObjectImpl@VCOPOSFiscalPrinter@@@ATL@@UEAAJKPEAPEAUIDataObject@@@Z 00000001800028e0 f i FiscalPrinter.obj
 0001:000018e0       ?Unfreeze@?$IViewObjectExImpl@VCOPOSFiscalPrinter@@@ATL@@UEAAJK@Z 00000001800028e0 f i FiscalPrinter.obj
 0001:000018e0       ?GetCanonicalFormatEtc@?$IDataObjectImpl@VCOPOSFiscalPrinter@@@ATL@@UEAAJPEAUtagFORMATETC@@0@Z 00000001800028e0 f i FiscalPrinter.obj
 0001:000018e0       ?InitFromData@?$IOleObjectImpl@VCOPOSFiscalPrinter@@@ATL@@UEAAJPEAUIDataObject@@HK@Z 00000001800028e0 f i FiscalPrinter.obj
 0001:000018e0       ?GetDataHere@?$IDataObjectImpl@VCOPOSFiscalPrinter@@@ATL@@UEAAJPEAUtagFORMATETC@@PEAUtagSTGMEDIUM@@@Z 00000001800028e0 f i FiscalPrinter.obj
 0001:000018e0       ?ReactivateAndUndo@?$IOleInPlaceObjectWindowlessImpl@VCOPOSFiscalPrinter@@@ATL@@UEAAJXZ 00000001800028e0 f i FiscalPrinter.obj
 0001:000018e0       ?EnumFormatEtc@?$IDataObjectImpl@VCOPOSFiscalPrinter@@@ATL@@UEAAJKPEAPEAUIEnumFORMATETC@@@Z 00000001800028e0 f i FiscalPrinter.obj
 0001:000018e0       ?GetControlInfo@?$IOleControlImpl@VCOPOSFiscalPrinter@@@ATL@@UEAAJPEAUtagCONTROLINFO@@@Z 00000001800028e0 f i FiscalPrinter.obj
 0001:000018e0       ?QueryInterface@CRegObject@ATL@@UEAAJAEBU_GUID@@PEAPEAX@Z 00000001800028e0 f i FiscalPrinter.obj
 0001:000018e0       ?GetDropTarget@?$IOleInPlaceObjectWindowlessImpl@VCOPOSFiscalPrinter@@@ATL@@UEAAJPEAPEAUIDropTarget@@@Z 00000001800028e0 f i FiscalPrinter.obj
 0001:000018e0       ?OnMnemonic@?$IOleControlImpl@VCOPOSFiscalPrinter@@@ATL@@UEAAJPEAUtagMSG@@@Z 00000001800028e0 f i FiscalPrinter.obj
 0001:000018e0       ?SetColorScheme@?$IOleObjectImpl@VCOPOSFiscalPrinter@@@ATL@@UEAAJPEAUtagLOGPALETTE@@@Z 00000001800028e0 f i FiscalPrinter.obj
 0001:000018e0       ?ContextSensitiveHelp@?$IOleInPlaceObjectWindowlessImpl@VCOPOSFiscalPrinter@@@ATL@@UEAAJH@Z 00000001800028e0 f i FiscalPrinter.obj
 0001:000018e0       ?GetMoniker@?$IOleObjectImpl@VCOPOSFiscalPrinter@@@ATL@@UEAAJKKPEAPEAUIMoniker@@@Z 00000001800028e0 f i FiscalPrinter.obj
 0001:000018e0       ?SetData@?$IDataObjectImpl@VCOPOSFiscalPrinter@@@ATL@@UEAAJPEAUtagFORMATETC@@PEAUtagSTGMEDIUM@@H@Z 00000001800028e0 f i FiscalPrinter.obj
 0001:000018e0       ?GetColorSet@?$IViewObjectExImpl@VCOPOSFiscalPrinter@@@ATL@@UEAAJKJPEAXPEAUtagDVTARGETDEVICE@@PEAUHDC__@@PEAPEAUtagLOGPALETTE@@@Z 00000001800028e0 f i FiscalPrinter.obj
 0001:000018e0       ?QueryGetData@?$IDataObjectImpl@VCOPOSFiscalPrinter@@@ATL@@UEAAJPEAUtagFORMATETC@@@Z 00000001800028e0 f i FiscalPrinter.obj
 0001:000018e8       ?SetClientSite@?$IOleObjectImpl@VCOPOSFiscalPrinter@@@ATL@@UEAAJPEAUIOleClientSite@@@Z 00000001800028e8 f i FiscalPrinter.obj
 0001:00001904       ?GetClientSite@?$IOleObjectImpl@VCOPOSFiscalPrinter@@@ATL@@UEAAJPEAPEAUIOleClientSite@@@Z 0000000180002904 f i FiscalPrinter.obj
 0001:0000194c       ?Close@?$IOleObjectImpl@VCOPOSFiscalPrinter@@@ATL@@UEAAJK@Z 000000018000294c f i FiscalPrinter.obj
 0001:00001968       ?DoVerb@?$IOleObjectImpl@VCOPOSFiscalPrinter@@@ATL@@UEAAJJPEAUtagMSG@@PEAUIOleClientSite@@JPEAUHWND__@@PEBUtagRECT@@@Z 0000000180002968 f i FiscalPrinter.obj
 0001:00001b0c       ?EnumVerbs@?$IOleObjectImpl@VCOPOSFiscalPrinter@@@ATL@@UEAAJPEAPEAUIEnumOLEVERB@@@Z 0000000180002b0c f i FiscalPrinter.obj
 0001:00001b28       ?GetUserType@?$IOleObjectImpl@VCOPOSFiscalPrinter@@@ATL@@UEAAJKPEAPEA_W@Z 0000000180002b28 f i FiscalPrinter.obj
 0001:00001b38       ?SetExtent@?$IOleObjectImpl@VCOPOSFiscalPrinter@@@ATL@@UEAAJKPEAUtagSIZE@@@Z 0000000180002b38 f i FiscalPrinter.obj
 0001:00001b54       ?GetExtent@?$IOleObjectImpl@VCOPOSFiscalPrinter@@@ATL@@UEAAJKPEAUtagSIZE@@@Z 0000000180002b54 f i FiscalPrinter.obj
 0001:00001b84       ?Advise@?$IOleObjectImpl@VCOPOSFiscalPrinter@@@ATL@@UEAAJPEAUIAdviseSink@@PEAK@Z 0000000180002b84 f i FiscalPrinter.obj
 0001:00001be0       ?Unadvise@?$IOleObjectImpl@VCOPOSFiscalPrinter@@@ATL@@UEAAJK@Z 0000000180002be0 f i FiscalPrinter.obj
 0001:00001c18       ?EnumAdvise@?$IOleObjectImpl@VCOPOSFiscalPrinter@@@ATL@@UEAAJPEAPEAUIEnumSTATDATA@@@Z 0000000180002c18 f i FiscalPrinter.obj
 0001:00001c60       ?GetMiscStatus@?$IOleObjectImpl@VCOPOSFiscalPrinter@@@ATL@@UEAAJKPEAK@Z 0000000180002c60 f i FiscalPrinter.obj
 0001:00001c70       ?GetWindow@?$IOleInPlaceActiveObjectImpl@VCOPOSFiscalPrinter@@@ATL@@UEAAJPEAPEAUHWND__@@@Z 0000000180002c70 f i FiscalPrinter.obj
 0001:00001cc4       ?TranslateAcceleratorW@?$IOleInPlaceActiveObjectImpl@VCOPOSFiscalPrinter@@@ATL@@UEAAJPEAUtagMSG@@@Z 0000000180002cc4 f i FiscalPrinter.obj
 0001:00001db8       ?OnDocWindowActivate@?$IOleInPlaceActiveObjectImpl@VCOPOSFiscalPrinter@@@ATL@@UEAAJH@Z 0000000180002db8 f i FiscalPrinter.obj
 0001:00001de4       ?Draw@?$IViewObjectExImpl@VCOPOSFiscalPrinter@@@ATL@@UEAAJKJPEAXPEAUtagDVTARGETDEVICE@@PEAUHDC__@@2PEBU_RECTL@@3P6AH_K@Z4@Z 0000000180002de4 f i FiscalPrinter.obj
 0001:00001e48       ?SetAdvise@?$IViewObjectExImpl@VCOPOSFiscalPrinter@@@ATL@@UEAAJKKPEAUIAdviseSink@@@Z 0000000180002e48 f i FiscalPrinter.obj
 0001:00001e9c       ?GetAdvise@?$IViewObjectExImpl@VCOPOSFiscalPrinter@@@ATL@@UEAAJPEAK0PEAPEAUIAdviseSink@@@Z 0000000180002e9c f i FiscalPrinter.obj
 0001:00001ed8       ?GetExtent@?$IViewObjectExImpl@VCOPOSFiscalPrinter@@@ATL@@UEAAJKJPEAUtagDVTARGETDEVICE@@PEAUtagSIZE@@@Z 0000000180002ed8 f i FiscalPrinter.obj
 0001:00001f08       ?GetViewStatus@?$IViewObjectExImpl@VCOPOSFiscalPrinter@@@ATL@@UEAAJPEAK@Z 0000000180002f08 f i FiscalPrinter.obj
 0001:00001f1c       ?QueryHitPoint@?$IViewObjectExImpl@VCOPOSFiscalPrinter@@@ATL@@UEAAJKPEBUtagRECT@@UtagPOINT@@JPEAK@Z 0000000180002f1c f i FiscalPrinter.obj
 0001:00001f60       ?QueryHitRect@?$IViewObjectExImpl@VCOPOSFiscalPrinter@@@ATL@@UEAAJKPEBUtagRECT@@0JPEAK@Z 0000000180002f60 f i FiscalPrinter.obj
 0001:00001fc8       ?GetNaturalExtent@?$IViewObjectExImpl@VCOPOSFiscalPrinter@@@ATL@@UEAAJKJPEAUtagDVTARGETDEVICE@@PEAUHDC__@@PEAUtagExtentInfo@@PEAUtagSIZE@@@Z 0000000180002fc8 f i FiscalPrinter.obj
 0001:00002010       ?GetWindow@?$IOleInPlaceObjectWindowlessImpl@VCOPOSFiscalPrinter@@@ATL@@UEAAJPEAPEAUHWND__@@@Z 0000000180003010 f i FiscalPrinter.obj
 0001:00002064       ?InPlaceDeactivate@?$IOleInPlaceObjectWindowlessImpl@VCOPOSFiscalPrinter@@@ATL@@UEAAJXZ 0000000180003064 f i FiscalPrinter.obj
 0001:00002080       ?UIDeactivate@?$IOleInPlaceObjectWindowlessImpl@VCOPOSFiscalPrinter@@@ATL@@UEAAJXZ 0000000180003080 f i FiscalPrinter.obj
 0001:0000209c       ?SetObjectRects@?$IOleInPlaceObjectWindowlessImpl@VCOPOSFiscalPrinter@@@ATL@@UEAAJPEBUtagRECT@@0@Z 000000018000309c f i FiscalPrinter.obj
 0001:000020b8       ?OnWindowMessage@?$IOleInPlaceObjectWindowlessImpl@VCOPOSFiscalPrinter@@@ATL@@UEAAJI_K_JPEA_J@Z 00000001800030b8 f i FiscalPrinter.obj
 0001:00002180       ?EnumConnectionPoints@?$IConnectionPointContainerImpl@VCOPOSFiscalPrinter@@@ATL@@UEAAJPEAPEAUIEnumConnectionPoints@@@Z 0000000180003180 f i FiscalPrinter.obj
 0001:000023c8       ?FindConnectionPoint@?$IConnectionPointContainerImpl@VCOPOSFiscalPrinter@@@ATL@@UEAAJAEBU_GUID@@PEAPEAUIConnectionPoint@@@Z 00000001800033c8 f i FiscalPrinter.obj
 0001:00002498       ?IsDirty@?$IPersistStorageImpl@VCOPOSFiscalPrinter@@@ATL@@UEAAJXZ 0000000180003498 f i FiscalPrinter.obj
 0001:000024d8       ?InitNew@?$IPersistStorageImpl@VCOPOSFiscalPrinter@@@ATL@@UEAAJPEAUIStorage@@@Z 00000001800034d8 f i FiscalPrinter.obj
 0001:00002518       ?Load@?$IPersistStorageImpl@VCOPOSFiscalPrinter@@@ATL@@UEAAJPEAUIStorage@@@Z 0000000180003518 f i FiscalPrinter.obj
 0001:000025b8       ?Save@?$IPersistStorageImpl@VCOPOSFiscalPrinter@@@ATL@@UEAAJPEAUIStorage@@H@Z 00000001800035b8 f i FiscalPrinter.obj
 0001:00002668       ?GetPages@?$ISpecifyPropertyPagesImpl@VCOPOSFiscalPrinter@@@ATL@@UEAAJPEAUtagCAUUID@@@Z 0000000180003668 f i FiscalPrinter.obj
 0001:00002674       ?QuickActivate@?$IQuickActivateImpl@VCOPOSFiscalPrinter@@@ATL@@UEAAJPEAUtagQACONTAINER@@PEAUtagQACONTROL@@@Z 0000000180003674 f i FiscalPrinter.obj
 0001:00002690       ?SetContentExtent@?$IQuickActivateImpl@VCOPOSFiscalPrinter@@@ATL@@UEAAJPEAUtagSIZE@@@Z 0000000180003690 f i FiscalPrinter.obj
 0001:000026c4       ?GetContentExtent@?$IQuickActivateImpl@VCOPOSFiscalPrinter@@@ATL@@UEAAJPEAUtagSIZE@@@Z 00000001800036c4 f i FiscalPrinter.obj
 0001:000026fc       ?GetData@?$IDataObjectImpl@VCOPOSFiscalPrinter@@@ATL@@UEAAJPEAUtagFORMATETC@@PEAUtagSTGMEDIUM@@@Z 00000001800036fc f i FiscalPrinter.obj
 0001:00002718       ?DAdvise@?$IDataObjectImpl@VCOPOSFiscalPrinter@@@ATL@@UEAAJPEAUtagFORMATETC@@KPEAUIAdviseSink@@PEAK@Z 0000000180003718 f i FiscalPrinter.obj
 0001:000027a0       ?DUnadvise@?$IDataObjectImpl@VCOPOSFiscalPrinter@@@ATL@@UEAAJK@Z 00000001800037a0 f i FiscalPrinter.obj
 0001:000027cc       ?EnumDAdvise@?$IDataObjectImpl@VCOPOSFiscalPrinter@@@ATL@@UEAAJPEAPEAUIEnumSTATDATA@@@Z 00000001800037cc f i FiscalPrinter.obj
 0001:00002808       ?GetClassInfoW@?$IProvideClassInfo2Impl@$1?CLSID_OPOSFiscalPrinter@@3U_GUID@@B$1?DIID__IOPOSFiscalPrinterEvents@@3U2@B$1?LIBID_OposFiscalPrinter_CCO@@3U2@B$00$0A@VCComTypeInfoHolder@ATL@@@ATL@@UEAAJPEAPEAUITypeInfo@@@Z 0000000180003808 f i FiscalPrinter.obj
 0001:00002860       ?GetGUID@?$IProvideClassInfo2Impl@$1?CLSID_OPOSFiscalPrinter@@3U_GUID@@B$1?DIID__IOPOSFiscalPrinterEvents@@3U2@B$1?LIBID_OposFiscalPrinter_CCO@@3U2@B$00$0A@VCComTypeInfoHolder@ATL@@@ATL@@UEAAJKPEAU_GUID@@@Z 0000000180003860 f i FiscalPrinter.obj
 0001:00002894       _get_startup_argv_mode     0000000180003894 f i LIBCMT:argv_mode.obj
 0001:00002894       ?AddRef@CRegObject@ATL@@UEAAKXZ 0000000180003894 f i FiscalPrinter.obj
 0001:00002894       ?FAccessAllowed@?$IObjectSafetyImpl@VCOPOSFiscalPrinter@@$02@ATL@@MEAAHXZ 0000000180003894 f i FiscalPrinter.obj
 0001:0000289c       ?GetInterfaceSafetyOptions@?$IObjectSafetyImpl@VCOPOSFiscalPrinter@@$02@ATL@@UEAAJAEBU_GUID@@PEAK1@Z 000000018000389c f i FiscalPrinter.obj
 0001:00002930       ?SetInterfaceSafetyOptions@?$IObjectSafetyImpl@VCOPOSFiscalPrinter@@$02@ATL@@UEAAJAEBU_GUID@@KK@Z 0000000180003930 f i FiscalPrinter.obj
 0001:000029d4       ?_LocCPQueryInterface@?$IConnectionPointImpl@VCOPOSFiscalPrinter@@$1?DIID__IOPOSFiscalPrinterEvents@@3U_GUID@@BVCComDynamicUnkArray@ATL@@@ATL@@UEAAJAEBU_GUID@@PEAPEAX@Z 00000001800039d4 f i FiscalPrinter.obj
 0001:000029d4       ?_LocCPQueryInterface@?$IConnectionPointImpl@VCOPOSFiscalPrinter@@$1?IID_IPropertyNotifySink@@3U_GUID@@BVCComDynamicUnkArray@ATL@@@ATL@@UEAAJAEBU_GUID@@PEAPEAX@Z 00000001800039d4 f i FiscalPrinter.obj
 0001:00002a48       ?GetConnectionInterface@?$IConnectionPointImpl@VCOPOSFiscalPrinter@@$1?IID_IPropertyNotifySink@@3U_GUID@@BVCComDynamicUnkArray@ATL@@@ATL@@UEAAJPEAU_GUID@@@Z 0000000180003a48 f i FiscalPrinter.obj
 0001:00002a64       ?GetConnectionPointContainer@?$IConnectionPointImpl@VCOPOSFiscalPrinter@@$1?IID_IPropertyNotifySink@@3U_GUID@@BVCComDynamicUnkArray@ATL@@@ATL@@UEAAJPEAPEAUIConnectionPointContainer@@@Z 0000000180003a64 f i FiscalPrinter.obj
 0001:00002a84       ?Advise@?$IConnectionPointImpl@VCOPOSFiscalPrinter@@$1?DIID__IOPOSFiscalPrinterEvents@@3U_GUID@@BVCComDynamicUnkArray@ATL@@@ATL@@UEAAJPEAUIUnknown@@PEAK@Z 0000000180003a84 f i FiscalPrinter.obj
 0001:00002a84       ?Advise@?$IConnectionPointImpl@VCOPOSFiscalPrinter@@$1?IID_IPropertyNotifySink@@3U_GUID@@BVCComDynamicUnkArray@ATL@@@ATL@@UEAAJPEAUIUnknown@@PEAK@Z 0000000180003a84 f i FiscalPrinter.obj
 0001:00002b40       ?Unadvise@?$IConnectionPointImpl@VCOPOSFiscalPrinter@@$1?DIID__IOPOSFiscalPrinterEvents@@3U_GUID@@BVCComDynamicUnkArray@ATL@@@ATL@@UEAAJK@Z 0000000180003b40 f i FiscalPrinter.obj
 0001:00002b40       ?Unadvise@?$IConnectionPointImpl@VCOPOSFiscalPrinter@@$1?IID_IPropertyNotifySink@@3U_GUID@@BVCComDynamicUnkArray@ATL@@@ATL@@UEAAJK@Z 0000000180003b40 f i FiscalPrinter.obj
 0001:00002ba8       ?EnumConnections@?$IConnectionPointImpl@VCOPOSFiscalPrinter@@$1?DIID__IOPOSFiscalPrinterEvents@@3U_GUID@@BVCComDynamicUnkArray@ATL@@@ATL@@UEAAJPEAPEAUIEnumConnections@@@Z 0000000180003ba8 f i FiscalPrinter.obj
 0001:00002ba8       ?EnumConnections@?$IConnectionPointImpl@VCOPOSFiscalPrinter@@$1?IID_IPropertyNotifySink@@3U_GUID@@BVCComDynamicUnkArray@ATL@@@ATL@@UEAAJPEAPEAUIEnumConnections@@@Z 0000000180003ba8 f i FiscalPrinter.obj
 0001:00002d3c       ?GetConnectionInterface@?$IConnectionPointImpl@VCOPOSFiscalPrinter@@$1?DIID__IOPOSFiscalPrinterEvents@@3U_GUID@@BVCComDynamicUnkArray@ATL@@@ATL@@UEAAJPEAU_GUID@@@Z 0000000180003d3c f i FiscalPrinter.obj
 0001:00002d58       ?GetConnectionPointContainer@?$IConnectionPointImpl@VCOPOSFiscalPrinter@@$1?DIID__IOPOSFiscalPrinterEvents@@3U_GUID@@BVCComDynamicUnkArray@ATL@@@ATL@@UEAAJPEAPEAUIConnectionPointContainer@@@Z 0000000180003d58 f i FiscalPrinter.obj
 0001:00002d78       ?UpdateRegistry@COPOSFiscalPrinter@@SAJH@Z 0000000180003d78 f i FiscalPrinter.obj
 0001:00002d90       ?ProcessWindowMessage@COPOSFiscalPrinter@@UEAAHPEAUHWND__@@I_K_JAEA_JK@Z 0000000180003d90 f i FiscalPrinter.obj
 0001:00002e20       ?SODirectIO@COPOSFiscalPrinter@@MEAAJJPEAJPEAPEA_W@Z 0000000180003e20 f i FiscalPrinter.obj
 0001:00002e98       ?SOError@COPOSFiscalPrinter@@MEAAJJJJPEAJ@Z 0000000180003e98 f i FiscalPrinter.obj
 0001:00002f20       ?SOOutputComplete@COPOSFiscalPrinter@@MEAAJJ@Z 0000000180003f20 f i FiscalPrinter.obj
 0001:00002f70       ?SOStatusUpdate@COPOSFiscalPrinter@@MEAAJJ@Z 0000000180003f70 f i FiscalPrinter.obj
 0001:00002fc0       ?AddReplacement@CRegObject@ATL@@UEAAJPEB_W0@Z 0000000180003fc0 f i FiscalPrinter.obj
 0001:00002ff0       ?ClearReplacements@CRegObject@ATL@@UEAAJXZ 0000000180003ff0 f i FiscalPrinter.obj
 0001:00002ffc       ??_ECRegObject@ATL@@UEAAPEAXI@Z 0000000180003ffc f i FiscalPrinter.obj
 0001:00002ffc       ??_GCRegObject@ATL@@UEAAPEAXI@Z 0000000180003ffc f i FiscalPrinter.obj
 0001:0000307c       ?CreateInstance@?$CComCreator@V?$CComObjectCached@VCComClassFactory@ATL@@@ATL@@@ATL@@SAJPEAXAEBU_GUID@@PEAPEAX@Z 000000018000407c f i FiscalPrinter.obj
 0001:000031a0       ?CreateInstance@?$CComCreator2@V?$CComCreator@V?$CComObject@VCOPOSFiscalPrinter@@@ATL@@@ATL@@V?$CComCreator@V?$CComAggObject@VCOPOSFiscalPrinter@@@ATL@@@2@@ATL@@SAJPEAXAEBU_GUID@@PEAPEAX@Z 00000001800041a0 f i FiscalPrinter.obj
 0001:000031b0       ?AddRef@?$CComObjectCached@VCComClassFactory@ATL@@@ATL@@UEAAKXZ 00000001800041b0 f i FiscalPrinter.obj
 0001:000031dc       ?Release@?$CComObjectCached@VCComClassFactory@ATL@@@ATL@@UEAAKXZ 00000001800041dc f i FiscalPrinter.obj
 0001:0000321c       ?QueryInterface@?$CComObjectCached@VCComClassFactory@ATL@@@ATL@@UEAAJAEBU_GUID@@PEAPEAX@Z 000000018000421c f i FiscalPrinter.obj
 0001:00003230       ??_G?$CComObjectCached@VCComClassFactory@ATL@@@ATL@@UEAAPEAXI@Z 0000000180004230 f i FiscalPrinter.obj
 0001:00003230       ??_E?$CComObjectCached@VCComClassFactory@ATL@@@ATL@@UEAAPEAXI@Z 0000000180004230 f i FiscalPrinter.obj
 0001:00003288       ?Next@?$CComEnumImpl@UIEnumConnectionPoints@@$1?_GUID_b196b285_bab4_101a_b69c_00aa00341d07@@3U__s_GUID@@BPEAUIConnectionPoint@@V?$_CopyInterface@UIConnectionPoint@@@ATL@@@ATL@@UEAAJKPEAPEAUIConnectionPoint@@PEAK@Z 0000000180004288 f i FiscalPrinter.obj
 0001:0000334c       ?Skip@?$CComEnumImpl@UIEnumConnectionPoints@@$1?_GUID_b196b285_bab4_101a_b69c_00aa00341d07@@3U__s_GUID@@BPEAUIConnectionPoint@@V?$_CopyInterface@UIConnectionPoint@@@ATL@@@ATL@@UEAAJK@Z 000000018000434c f i FiscalPrinter.obj
 0001:00003378       ?Clone@?$CComEnumImpl@UIEnumConnectionPoints@@$1?_GUID_b196b285_bab4_101a_b69c_00aa00341d07@@3U__s_GUID@@BPEAUIConnectionPoint@@V?$_CopyInterface@UIConnectionPoint@@@ATL@@@ATL@@UEAAJPEAPEAUIEnumConnectionPoints@@@Z 0000000180004378 f i FiscalPrinter.obj
 0001:000034a4       ?QueryInterface@?$CComObject@V?$CComEnum@UIEnumConnectionPoints@@$1?_GUID_b196b285_bab4_101a_b69c_00aa00341d07@@3U__s_GUID@@BPEAUIConnectionPoint@@V?$_CopyInterface@UIConnectionPoint@@@ATL@@VCComSingleThreadModel@6@@ATL@@@ATL@@UEAAJAEBU_GUID@@PEAPEAX@Z 00000001800044a4 f i FiscalPrinter.obj
 0001:000034b8       ??_E?$CComObject@V?$CComEnum@UIEnumConnectionPoints@@$1?_GUID_b196b285_bab4_101a_b69c_00aa00341d07@@3U__s_GUID@@BPEAUIConnectionPoint@@V?$_CopyInterface@UIConnectionPoint@@@ATL@@VCComSingleThreadModel@6@@ATL@@@ATL@@UEAAPEAXI@Z 00000001800044b8 f i FiscalPrinter.obj
 0001:000034b8       ??_G?$CComObject@V?$CComEnum@UIEnumConnectionPoints@@$1?_GUID_b196b285_bab4_101a_b69c_00aa00341d07@@3U__s_GUID@@BPEAUIConnectionPoint@@V?$_CopyInterface@UIConnectionPoint@@@ATL@@VCComSingleThreadModel@6@@ATL@@@ATL@@UEAAPEAXI@Z 00000001800044b8 f i FiscalPrinter.obj
 0001:00003510       ?OnDrawAdvanced@CComControlBase@ATL@@UEAAJAEAUATL_DRAWINFO@@@Z 0000000180004510 f i FiscalPrinter.obj
 0001:0000369c       ??$AtlModuleRegisterWndClassInfoT@VAtlModuleRegisterWndClassInfoParamW@ATL@@@ATL@@YAGPEAU_ATL_BASE_MODULE70@0@PEAU_ATL_WIN_MODULE70@0@PEAU_ATL_WNDCLASSINFOW@0@PEAP6A_JPEAUHWND__@@I_K_J@ZVAtlModuleRegisterWndClassInfoParamW@0@@Z 000000018000469c f i FiscalPrinter.obj
 0001:0000389c       ??0?$CComContainedObject@VCOPOSFiscalPrinter@@@ATL@@QEAA@PEAX@Z 000000018000489c f i FiscalPrinter.obj
 0001:000039b8       ??0?$CComObject@VCOPOSFiscalPrinter@@@ATL@@QEAA@PEAX@Z 00000001800049b8 f i FiscalPrinter.obj
 0001:00003ad0       ??0CAtlModule@ATL@@QEAA@XZ 0000000180004ad0 f i FiscalPrinter.obj
 0001:00003b44       ??1?$CComEnumImpl@UIEnumConnectionPoints@@$1?_GUID_b196b285_bab4_101a_b69c_00aa00341d07@@3U__s_GUID@@BPEAUIConnectionPoint@@V?$_CopyInterface@UIConnectionPoint@@@ATL@@@ATL@@UEAA@XZ 0000000180004b44 f i FiscalPrinter.obj
 0001:00003b9c       ??1?$CComEnumImpl@UIEnumConnections@@$1?_GUID_b196b287_bab4_101a_b69c_00aa00341d07@@3U__s_GUID@@BUtagCONNECTDATA@@V?$_Copy@UtagCONNECTDATA@@@ATL@@@ATL@@UEAA@XZ 0000000180004b9c f i FiscalPrinter.obj
 0001:00003bf4       ??1?$CComObject@VCOPOSFiscalPrinter@@@ATL@@UEAA@XZ 0000000180004bf4 f i FiscalPrinter.obj
 0001:00003d14       ??_G?$CComContainedObject@VCOPOSFiscalPrinter@@@ATL@@UEAAPEAXI@Z 0000000180004d14 f i FiscalPrinter.obj
 0001:00003d14       ??_E?$CComContainedObject@VCOPOSFiscalPrinter@@@ATL@@UEAAPEAXI@Z 0000000180004d14 f i FiscalPrinter.obj
 0001:00003d48       ??_E?$CComObject@VCOPOSFiscalPrinter@@@ATL@@UEAAPEAXI@Z 0000000180004d48 f i FiscalPrinter.obj
 0001:00003d48       ??_G?$CComObject@VCOPOSFiscalPrinter@@@ATL@@UEAAPEAXI@Z 0000000180004d48 f i FiscalPrinter.obj
 0001:00003d7c       ?Add@?$CSimpleArray@GV?$CSimpleArrayEqualHelper@G@ATL@@@ATL@@QEAAHAEBG@Z 0000000180004d7c f i FiscalPrinter.obj
 0001:00003e1c       ?Add@?$CSimpleMap@PEA_WPEA_WVCExpansionVectorEqualHelper@ATL@@@ATL@@QEAAHAEBQEA_W0@Z 0000000180004e1c f i FiscalPrinter.obj
 0001:00003eb8       ?Add@CComDynamicUnkArray@ATL@@QEAAKPEAUIUnknown@@@Z 0000000180004eb8 f i FiscalPrinter.obj
 0001:00003f9c       ?Add@CExpansionVector@ATL@@QEAAHPEB_W0@Z 0000000180004f9c f i FiscalPrinter.obj
 0001:000040d0       ?AddTermFunc@CAtlModule@ATL@@QEAAJP6AX_K@Z0@Z 00000001800050d0 f i FiscalPrinter.obj
 0001:0000416c       ?AddValue@CRegParser@ATL@@IEAAJAEAVCRegKey@2@PEB_WPEA_W@Z 000000018000516c f i FiscalPrinter.obj
 0001:0000457c       ?AllocateHeap@?$CTempBuffer@E$0BAA@VCCRTAllocator@ATL@@@ATL@@AEAAX_K@Z 000000018000557c f i FiscalPrinter.obj
 0001:0000457c       ?AllocateHeap@?$CTempBuffer@_W$0BAA@VCCRTAllocator@ATL@@@ATL@@AEAAX_K@Z 000000018000557c f i FiscalPrinter.obj
 0001:0000457c       ?AllocateHeap@?$CTempBuffer@_W$0EAA@VCCRTAllocator@ATL@@@ATL@@AEAAX_K@Z 000000018000557c f i FiscalPrinter.obj
 0001:000045a8       ?Append@CParseBuffer@CRegParser@ATL@@QEAAHPEB_WH@Z 00000001800055a8 f i FiscalPrinter.obj
 0001:000046dc       ?AtlComModuleGetClassObject@ATL@@YAJPEAU_ATL_COM_MODULE70@1@AEBU_GUID@@1PEAPEAX@Z 00000001800056dc f i FiscalPrinter.obj
 0001:00004818       ?AtlComModuleRegisterServer@ATL@@YAJPEAU_ATL_COM_MODULE70@1@HPEBU_GUID@@@Z 0000000180005818 f i FiscalPrinter.obj
 0001:000048d8       ?AtlComModuleUnregisterServer@ATL@@YAJPEAU_ATL_COM_MODULE70@1@HPEBU_GUID@@@Z 00000001800058d8 f i FiscalPrinter.obj
 0001:00004994       ?AtlHiMetricToPixel@ATL@@YAXPEBUtagSIZE@@PEAU2@@Z 0000000180005994 f i FiscalPrinter.obj
 0001:00004a44       ?AtlHresultFromLastError@ATL@@YAJXZ 0000000180005a44 f i FiscalPrinter.obj
 0001:00004a64       ?AtlHresultFromWin32@ATL@@YAJK@Z 0000000180005a64 f i FiscalPrinter.obj
 0001:00004a74       ?AtlInternalOleLoadFromStream@ATL@@YAJPEAUIStream@@AEBU_GUID@@PEAPEAXTClassesAllowedInStream@1@K@Z 0000000180005a74 f i FiscalPrinter.obj
 0001:00004bc4       ?AtlInternalQueryInterface@ATL@@YAJPEAXPEBU_ATL_INTMAP_ENTRY@1@AEBU_GUID@@PEAPEAX@Z 0000000180005bc4 f i FiscalPrinter.obj
 0001:00004ccc       ?AtlLoadTypeLib@ATL@@YAJPEAUHINSTANCE__@@PEB_WPEAPEA_WPEAPEAUITypeLib@@@Z 0000000180005ccc f i FiscalPrinter.obj
 0001:00004f28       ?AtlRegisterClassCategoriesHelper@ATL@@YAJAEBU_GUID@@PEBU_ATL_CATMAP_ENTRY@1@H@Z 0000000180005f28 f i FiscalPrinter.obj
 0001:000053ac       ?AtlRegisterTypeLib@ATL@@YAJPEAUHINSTANCE__@@PEB_W@Z 00000001800063ac f i FiscalPrinter.obj
 0001:000055a8       ?AtlThrowImpl@ATL@@YAXJ@Z  00000001800065a8 f i FiscalPrinter.obj
 0001:000055cc       ?AtlUnRegisterTypeLib@ATL@@YAJPEAUHINSTANCE__@@PEB_W@Z 00000001800065cc f i FiscalPrinter.obj
 0001:00005694       ?AtlWinModuleExtractCreateWndData@ATL@@YAPEAXPEAU_ATL_WIN_MODULE70@1@@Z 0000000180006694 f i FiscalPrinter.obj
 0001:00005720       ?ChToByte@CRegParser@ATL@@KAE_W@Z 0000000180006720 f i FiscalPrinter.obj
 0001:000057ac       ?Cleanup@CComTypeInfoHolder@ATL@@SAX_K@Z 00000001800067ac f i FiscalPrinter.obj
 0001:000057ec       ?ClearReplacements@CExpansionVector@ATL@@QEAAJXZ 00000001800067ec f i FiscalPrinter.obj
 0001:00005888       ?CreateInstance@?$CComCreator@V?$CComAggObject@VCOPOSFiscalPrinter@@@ATL@@@ATL@@SAJPEAXAEBU_GUID@@PEAPEAX@Z 0000000180006888 f i FiscalPrinter.obj
 0001:0000596c       ?CreateInstance@?$CComCreator@V?$CComObject@VCOPOSFiscalPrinter@@@ATL@@@ATL@@SAJPEAXAEBU_GUID@@PEAPEAX@Z 000000018000696c f i FiscalPrinter.obj
 0001:00005a2c       ?CreateInstance@?$CComObject@V?$CComEnum@UIEnumConnectionPoints@@$1?_GUID_b196b285_bab4_101a_b69c_00aa00341d07@@3U__s_GUID@@BPEAUIConnectionPoint@@V?$_CopyInterface@UIConnectionPoint@@@ATL@@VCComSingleThreadModel@6@@ATL@@@ATL@@SAJPEAPEAV12@@Z 0000000180006a2c f i FiscalPrinter.obj
 0001:00005abc       ?CreateInstance@?$CComObject@V?$CComEnum@UIEnumConnections@@$1?_GUID_b196b287_bab4_101a_b69c_00aa00341d07@@3U__s_GUID@@BUtagCONNECTDATA@@V?$_Copy@UtagCONNECTDATA@@@ATL@@VCComSingleThreadModel@6@@ATL@@@ATL@@SAJPEAPEAV12@@Z 0000000180006abc f i FiscalPrinter.obj
 0001:00005b4c       ?DefaultReflectionHandler@?$CWindowImplRoot@VCWindow@ATL@@@ATL@@SAHPEAUHWND__@@I_K_JAEA_J@Z 0000000180006b4c f i FiscalPrinter.obj
 0001:00005be0       ?DeleteSubKey@CRegKey@ATL@@QEAAJPEB_W@Z 0000000180006be0 f i FiscalPrinter.obj
 0001:00005c78       ?DoEvent@COPOSFiscalPrinter@@IEAAXI_K_J@Z 0000000180006c78 f i FiscalPrinter.obj
 0001:00005d2c       ?DoVerbPrimary@?$IOleObjectImpl@VCOPOSFiscalPrinter@@@ATL@@QEAAJPEBUtagRECT@@PEAUHWND__@@@Z 0000000180006d2c f i FiscalPrinter.obj
 0001:00005e58       ?DoVerbProperties@CComControlBase@ATL@@QEAAJPEBUtagRECT@@PEAUHWND__@@@Z 0000000180006e58 f i FiscalPrinter.obj
 0001:00006080       ?FireTheEvent@?$CProxy_IOPOSEvents@VCOPOSFiscalPrinter@@@@IEAAXPEAVOposVariant@@IAEAJPEB_WJ@Z 0000000180007080 f i FiscalPrinter.obj
 0001:0000616c       ?FireViewChange@CComControlBase@ATL@@QEAAJXZ 000000018000716c f i FiscalPrinter.obj
 0001:000061d0       ?Fire_DirectIOEvent@?$CProxy_IOPOSEvents@VCOPOSFiscalPrinter@@@@QEAAXJPEAJPEAPEA_W@Z 00000001800071d0 f i FiscalPrinter.obj
 0001:00006330       ?Fire_ErrorEvent@?$CProxy_IOPOSEvents@VCOPOSFiscalPrinter@@@@QEAAXJJJPEAJ@Z 0000000180007330 f i FiscalPrinter.obj
 0001:000064a4       ?Fire_OutputCompleteEvent@?$CProxy_IOPOSEvents@VCOPOSFiscalPrinter@@@@QEAAXJ@Z 00000001800074a4 f i FiscalPrinter.obj
 0001:00006590       ?Fire_StatusUpdateEvent@?$CProxy_IOPOSEvents@VCOPOSFiscalPrinter@@@@QEAAXJ@Z 0000000180007590 f i FiscalPrinter.obj
 0001:0000667c       ?FreeHeap@?$CTempBuffer@_W$0EAA@VCCRTAllocator@ATL@@@ATL@@AEAAXXZ 000000018000767c f i FiscalPrinter.obj
 0001:0000667c       ?FreeHeap@?$CTempBuffer@_W$0BAA@VCCRTAllocator@ATL@@@ATL@@AEAAXXZ 000000018000767c f i FiscalPrinter.obj
 0001:0000667c       ?FreeHeap@?$CTempBuffer@E$0BAA@VCCRTAllocator@ATL@@@ATL@@AEAAXXZ 000000018000767c f i FiscalPrinter.obj
 0001:00006684       ?GetAmbientLocaleID@CComControlBase@ATL@@QEAAJAEAK@Z 0000000180007684 f i FiscalPrinter.obj
 0001:00006744       ?GetAmbientUserMode@CComControlBase@ATL@@QEAAJAEAH@Z 0000000180007744 f i FiscalPrinter.obj
 0001:00006814       ?GetClassObject@CComModule@ATL@@QEAAJAEBU_GUID@@0PEAPEAX@Z 0000000180007814 f i FiscalPrinter.obj
 0001:00006908       ?GetConnMap@COPOSFiscalPrinter@@SAPEBU_ATL_CONNMAP_ENTRY@ATL@@PEAH@Z 0000000180007908 f i FiscalPrinter.obj
 0001:00006990       ?GetIDsOfNames@CComTypeInfoHolder@ATL@@QEAAJAEBU_GUID@@PEAPEA_WIKPEAJ@Z 0000000180007990 f i FiscalPrinter.obj
 0001:00006b00       ?GetPagesHelper@?$ISpecifyPropertyPagesImpl@VCOPOSFiscalPrinter@@@ATL@@IEAAJPEAUtagCAUUID@@PEBUATL_PROPMAP_ENTRY@2@@Z 0000000180007b00 f i FiscalPrinter.obj
 0001:00006ca0       ?GetSizeMax@CComVariant@ATL@@QEBAJPEAT_ULARGE_INTEGER@@@Z 0000000180007ca0 f i FiscalPrinter.obj
 0001:00006ed0       ?GetTI@CComTypeInfoHolder@ATL@@QEAAJK@Z 0000000180007ed0 f i FiscalPrinter.obj
 0001:000071b4       ?GetZoomInfo@CComControlBase@ATL@@QEAAXAEAUATL_DRAWINFO@@@Z 00000001800081b4 f i FiscalPrinter.obj
 0001:00007258       ?HKeyFromString@CRegParser@ATL@@KAPEAUHKEY__@@PEA_W@Z 0000000180008258 f i FiscalPrinter.obj
 0001:000072bc       ?IDataObject_GetData@CComControlBase@ATL@@QEAAJPEAUtagFORMATETC@@PEAUtagSTGMEDIUM@@@Z 00000001800082bc f i FiscalPrinter.obj
 0001:000074b0       ?IOleInPlaceObject_InPlaceDeactivate@CComControlBase@ATL@@QEAAJXZ 00000001800084b0 f i FiscalPrinter.obj
 0001:00007550       ?IOleInPlaceObject_SetObjectRects@CComControlBase@ATL@@QEAAJPEBUtagRECT@@0@Z 0000000180008550 f i FiscalPrinter.obj
 0001:00007640       ?IOleInPlaceObject_UIDeactivate@CComControlBase@ATL@@QEAAJXZ 0000000180008640 f i FiscalPrinter.obj
 0001:0000774c       ?IOleObject_Close@CComControlBase@ATL@@QEAAJK@Z 000000018000874c f i FiscalPrinter.obj
 0001:00007864       ?IOleObject_SetClientSite@CComControlBase@ATL@@QEAAJPEAUIOleClientSite@@@Z 0000000180008864 f i FiscalPrinter.obj
 0001:000078d8       ?IOleObject_SetExtent@CComControlBase@ATL@@QEAAJKPEAUtagSIZE@@@Z 00000001800088d8 f i FiscalPrinter.obj
 0001:00007970       ?IPSI_GetIPersistStreamInit@?$IPersistStorageImpl@VCOPOSFiscalPrinter@@@ATL@@AEAAPEAUIPersistStreamInit@@XZ 0000000180008970 f i FiscalPrinter.obj
 0001:00007a58       ?IPersistStreamInit_Load@?$IPersistStreamInitImpl@VCOPOSFiscalPrinter@@@ATL@@QEAAJPEAUIStream@@PEBUATL_PROPMAP_ENTRY@2@@Z 0000000180008a58 f i FiscalPrinter.obj
 0001:00007d80       ?IPersistStreamInit_Save@?$IPersistStreamInitImpl@VCOPOSFiscalPrinter@@@ATL@@QEAAJPEAUIStream@@HPEBUATL_PROPMAP_ENTRY@2@@Z 0000000180008d80 f i FiscalPrinter.obj
 0001:0000801c       ?IQuickActivate_QuickActivate@CComControlBase@ATL@@QEAAJPEAUtagQACONTAINER@@PEAUtagQACONTROL@@@Z 000000018000901c f i FiscalPrinter.obj
 0001:000082e0       ?IViewObject_Draw@CComControlBase@ATL@@QEAAJKJPEAXPEAUtagDVTARGETDEVICE@@PEAUHDC__@@2PEBU_RECTL@@3@Z 00000001800092e0 f i FiscalPrinter.obj
 0001:000083f4       ?InPlaceActivate@CComControlBase@ATL@@QEAAJJPEBUtagRECT@@@Z 00000001800093f4 f i FiscalPrinter.obj
 0001:00008724       ?Init@?$CComEnumImpl@UIEnumConnectionPoints@@$1?_GUID_b196b285_bab4_101a_b69c_00aa00341d07@@3U__s_GUID@@BPEAUIConnectionPoint@@V?$_CopyInterface@UIConnectionPoint@@@ATL@@@ATL@@QEAAJPEAPEAUIConnectionPoint@@0PEAUIUnknown@@W4CComEnumFlags@2@@Z 0000000180009724 f i FiscalPrinter.obj
 0001:00008840       ?Init@?$CComEnumImpl@UIEnumConnections@@$1?_GUID_b196b287_bab4_101a_b69c_00aa00341d07@@3U__s_GUID@@BUtagCONNECTDATA@@V?$_Copy@UtagCONNECTDATA@@@ATL@@@ATL@@QEAAJPEAUtagCONNECTDATA@@0PEAUIUnknown@@W4CComEnumFlags@2@@Z 0000000180009840 f i FiscalPrinter.obj
 0001:00008960       ?IsEqualObject@?$CComPtrBase@UIOleClientSite@@@ATL@@QEAA_NPEAUIUnknown@@@Z 0000000180009960 f i FiscalPrinter.obj
 0001:000089ec       ?LoadNameCache@CComTypeInfoHolder@ATL@@QEAAJPEAUITypeInfo@@@Z 00000001800099ec f i FiscalPrinter.obj
 0001:00008b7c       ?Lookup@?$CSimpleMap@PEA_WPEA_WVCExpansionVectorEqualHelper@ATL@@@ATL@@QEBAPEA_WAEBQEA_W@Z 0000000180009b7c f i FiscalPrinter.obj
 0001:00008c04       ?NextToken@CRegParser@ATL@@IEAAJPEA_W@Z 0000000180009c04 f i FiscalPrinter.obj
 0001:00008da0       ?OnKillFocus@CComControlBase@ATL@@QEAA_JI_K_JAEAH@Z 0000000180009da0 f i FiscalPrinter.obj
 0001:00008e3c       ?OnMouseActivate@CComControlBase@ATL@@QEAA_JI_K_JAEAH@Z 0000000180009e3c f i FiscalPrinter.obj
 0001:00008edc       ?OnPaint@CComControlBase@ATL@@QEAA_JI_K_JAEAH@Z 0000000180009edc f i FiscalPrinter.obj
 0001:00008fc8       ?OnSetFocus@CComControlBase@ATL@@QEAA_JI_K_JAEAH@Z 0000000180009fc8 f i FiscalPrinter.obj
 0001:000090d0       ?PreProcessBuffer@CRegParser@ATL@@QEAAJPEA_WPEAPEA_W@Z 000000018000a0d0 f i FiscalPrinter.obj
 0001:00009458       ?ProcessWindowMessage@?$CComControl@VCOPOSFiscalPrinter@@V?$CWindowImpl@VCOPOSFiscalPrinter@@VCWindow@ATL@@V?$CWinTraits@$0FGAAAAAA@$0A@@3@@ATL@@@ATL@@UEAAHPEAUHWND__@@I_K_JAEA_JK@Z 000000018000a458 f i FiscalPrinter.obj
 0001:00009544       ?ReadFromStream@CComBSTR@ATL@@QEAAJPEAUIStream@@@Z 000000018000a544 f i FiscalPrinter.obj
 0001:00009694       ?ReadFromStream@CComVariant@ATL@@QEAAJPEAUIStream@@GTClassesAllowedInStream@2@K@Z 000000018000a694 f i FiscalPrinter.obj
 0001:000098d8       ?RecurseDeleteKey@CRegKey@ATL@@QEAAJPEB_W@Z 000000018000a8d8 f i FiscalPrinter.obj
 0001:00009a30       ?RegCreateKeyExW@CAtlTransactionManager@ATL@@QEAAJPEAUHKEY__@@PEB_WKPEA_WKKQEAU_SECURITY_ATTRIBUTES@@PEAPEAU3@PEAK@Z 000000018000aa30 f i FiscalPrinter.obj
 0001:00009b64       ?RegDeleteKeyW@CAtlTransactionManager@ATL@@QEAAJPEAUHKEY__@@PEB_W@Z 000000018000ab64 f i FiscalPrinter.obj
 0001:00009bf0       ?RegOpenKeyExW@CAtlTransactionManager@ATL@@QEAAJPEAUHKEY__@@PEB_WKKPEAPEAU3@@Z 000000018000abf0 f i FiscalPrinter.obj
 0001:00009ca8       ?RegisterBuffer@CRegParser@ATL@@QEAAJPEA_WH@Z 000000018000aca8 f i FiscalPrinter.obj
 0001:00009e14       ?RegisterFromResource@CRegObject@ATL@@IEAAJPEB_W00H@Z 000000018000ae14 f i FiscalPrinter.obj
 0001:00009fd0       ?RegisterServer@CComModule@ATL@@QEAAJHPEBU_GUID@@@Z 000000018000afd0 f i FiscalPrinter.obj
 0001:0000a08c       ?RegisterSubkeys@CRegParser@ATL@@IEAAJPEA_WPEAUHKEY__@@HH@Z 000000018000b08c f i FiscalPrinter.obj
 0001:0000a90c       ?SendOnDataChange@CComControlBase@ATL@@QEAAJK@Z 000000018000b90c f i FiscalPrinter.obj
 0001:0000a97c       ?SetControlFocus@CComControlBase@ATL@@QEAAHH@Z 000000018000b97c f i FiscalPrinter.obj
 0001:0000aa4c       ?SkipAssignment@CRegParser@ATL@@IEAAJPEA_W@Z 000000018000ba4c f i FiscalPrinter.obj
 0001:0000ab04       ?Term@CAtlModule@ATL@@QEAAXXZ 000000018000bb04 f i FiscalPrinter.obj
 0001:0000abbc       ?Term@CComModule@ATL@@QEAAXXZ 000000018000bbbc f i FiscalPrinter.obj
 0001:0000ac38       ?UnregisterServer@CComModule@ATL@@QEAAJHPEBU_GUID@@@Z 000000018000bc38 f i FiscalPrinter.obj
 0001:0000ace8       ?UpdateRegistryFromResource@CAtlModule@ATL@@QEAAJIHPEAU_ATL_REGMAP_ENTRY@2@@Z 000000018000bce8 f i FiscalPrinter.obj
 0001:0000aff4       ?UpdateRegistryFromResource@CAtlModule@ATL@@QEAAJPEB_WHPEAU_ATL_REGMAP_ENTRY@2@@Z 000000018000bff4 f i FiscalPrinter.obj
 0001:0000b318       ?VTFromRegType@CRegParser@ATL@@KAHPEB_WAEAG@Z 000000018000c318 f i FiscalPrinter.obj
 0001:0000b3b4       ?WindowProc@?$CWindowImplBaseT@VCWindow@ATL@@V?$CWinTraits@$0FGAAAAAA@$0A@@2@@ATL@@SA_JPEAUHWND__@@I_K_J@Z 000000018000c3b4 f i FiscalPrinter.obj
 0001:0000b520       ?WriteToStream@CComVariant@ATL@@QEAAJPEAUIStream@@@Z 000000018000c520 f i FiscalPrinter.obj
 0001:0000b78c       ?WriteToStream@CComVariant@ATL@@QEAAJPEAUIStream@@G@Z 000000018000c78c f i FiscalPrinter.obj
 0001:0000b824       ?_AtlVerifyStackAvailable@_ATL_SAFE_ALLOCA_IMPL@ATL@@YA_N_K@Z 000000018000c824 f i FiscalPrinter.obj
 0001:0000b8a8       ?atlCreate@?$CWindowImpl@VCOPOSFiscalPrinter@@VCWindow@ATL@@V?$CWinTraits@$0FGAAAAAA@$0A@@3@@ATL@@QEAAPEAUHWND__@@PEAU3@V_U_RECT@2@PEB_WKKV_U_MENUorID@2@PEAX@Z 000000018000c8a8 f i FiscalPrinter.obj
 0001:0000b964       ?atlCreate@?$CWindowImplBaseT@VCWindow@ATL@@V?$CWinTraits@$0FGAAAAAA@$0A@@2@@ATL@@QEAAPEAUHWND__@@PEAU3@V_U_RECT@2@PEB_WKKV_U_MENUorID@2@GPEAX@Z 000000018000c964 f i FiscalPrinter.obj
 0001:0000bad4       ?ocscpy_s@@YA_NPEA_W_KPEB_W@Z 000000018000cad4 f i FiscalPrinter.obj
 0001:0000bb84       DllCanUnloadNow            000000018000cb84 f   FiscalPrinter.obj
 0001:0000bb90       DllGetClassObject          000000018000cb90 f   FiscalPrinter.obj
 0001:0000bba8       DllMain                    000000018000cba8 f   FiscalPrinter.obj
 0001:0000bc50       DllRegisterServer          000000018000cc50 f   FiscalPrinter.obj
 0001:0000bc64       DllUnregisterServer        000000018000cc64 f   FiscalPrinter.obj
 0001:0000bc78       __local_stdio_printf_options 000000018000cc78 f i FiscalPrinter.obj
 0001:0000bc80       swprintf_s                 000000018000cc80 f i FiscalPrinter.obj
 0001:0000bcd4       ??0COPOSFiscalPrinter@@QEAA@XZ 000000018000ccd4 f   FiscalPrinterImpl.obj
 0001:0000bd9c       ??1?$IConnectionPointImpl@VCOPOSFiscalPrinter@@$1?DIID__IOPOSFiscalPrinterEvents@@3U_GUID@@BVCComDynamicUnkArray@ATL@@@ATL@@QEAA@XZ 000000018000cd9c f i FiscalPrinterImpl.obj
 0001:0000bd9c       ??1?$IConnectionPointImpl@VCOPOSFiscalPrinter@@$1?IID_IPropertyNotifySink@@3U_GUID@@BVCComDynamicUnkArray@ATL@@@ATL@@QEAA@XZ 000000018000cd9c f i FiscalPrinterImpl.obj
 0001:0000bdf8       ??1CComControlBase@ATL@@UEAA@XZ 000000018000cdf8 f i FiscalPrinterImpl.obj
 0001:0000be74       ??1COPOSFiscalPrinter@@UEAA@XZ 000000018000ce74 f   FiscalPrinterImpl.obj
 0001:0000bed8       ?BeginFiscalDocument@COPOSFiscalPrinter@@UEAAJJPEAJ@Z 000000018000ced8 f   FiscalPrinterImpl.obj
 0001:0000bf54       ?BeginFiscalReceipt@COPOSFiscalPrinter@@UEAAJFPEAJ@Z 000000018000cf54 f   FiscalPrinterImpl.obj
 0001:0000bfd0       ?BeginFixedOutput@COPOSFiscalPrinter@@UEAAJJJPEAJ@Z 000000018000cfd0 f   FiscalPrinterImpl.obj
 0001:0000c09c       ?BeginInsertion@COPOSFiscalPrinter@@UEAAJJPEAJ@Z 000000018000d09c f   FiscalPrinterImpl.obj
 0001:0000c118       ?BeginItemList@COPOSFiscalPrinter@@UEAAJJPEAJ@Z 000000018000d118 f   FiscalPrinterImpl.obj
 0001:0000c194       ?BeginNonFiscal@COPOSFiscalPrinter@@UEAAJPEAJ@Z 000000018000d194 f   FiscalPrinterImpl.obj
 0001:0000c1bc       ?BeginRemoval@COPOSFiscalPrinter@@UEAAJJPEAJ@Z 000000018000d1bc f   FiscalPrinterImpl.obj
 0001:0000c238       ?BeginTraining@COPOSFiscalPrinter@@UEAAJPEAJ@Z 000000018000d238 f   FiscalPrinterImpl.obj
 0001:0000c260       ?CheckHealth@COPOSFiscalPrinter@@UEAAJJPEAJ@Z 000000018000d260 f   FiscalPrinterImpl.obj
 0001:0000c2dc       ?ClaimDevice@COPOSFiscalPrinter@@UEAAJJPEAJ@Z 000000018000d2dc f   FiscalPrinterImpl.obj
 0001:0000c37c       ?ClearError@COPOSFiscalPrinter@@UEAAJPEAJ@Z 000000018000d37c f   FiscalPrinterImpl.obj
 0001:0000c3a4       ?ClearOutput@COPOSFiscalPrinter@@UEAAJPEAJ@Z 000000018000d3a4 f   FiscalPrinterImpl.obj
 0001:0000c3cc       ?Close@COPOSFiscalPrinter@@UEAAJPEAJ@Z 000000018000d3cc f   FiscalPrinterImpl.obj
 0001:0000c484       ?CompareFirmwareVersion@COPOSFiscalPrinter@@UEAAJPEA_WPEAJ1@Z 000000018000d484 f   FiscalPrinterImpl.obj
 0001:0000c560       ?DirectIO@COPOSFiscalPrinter@@UEAAJJPEAJPEAPEA_W0@Z 000000018000d560 f   FiscalPrinterImpl.obj
 0001:0000c65c       ?DoInvoke@COPOSFiscalPrinter@@IEAAJJPEAVOposVariant@@IHPEAJ_N@Z 000000018000d65c f   FiscalPrinterImpl.obj
 0001:0000c790       ?EndFiscalDocument@COPOSFiscalPrinter@@UEAAJPEAJ@Z 000000018000d790 f   FiscalPrinterImpl.obj
 0001:0000c7b8       ?EndFiscalReceipt@COPOSFiscalPrinter@@UEAAJFPEAJ@Z 000000018000d7b8 f   FiscalPrinterImpl.obj
 0001:0000c834       ?EndFixedOutput@COPOSFiscalPrinter@@UEAAJPEAJ@Z 000000018000d834 f   FiscalPrinterImpl.obj
 0001:0000c85c       ?EndInsertion@COPOSFiscalPrinter@@UEAAJPEAJ@Z 000000018000d85c f   FiscalPrinterImpl.obj
 0001:0000c884       ?EndItemList@COPOSFiscalPrinter@@UEAAJPEAJ@Z 000000018000d884 f   FiscalPrinterImpl.obj
 0001:0000c8ac       ?EndNonFiscal@COPOSFiscalPrinter@@UEAAJPEAJ@Z 000000018000d8ac f   FiscalPrinterImpl.obj
 0001:0000c8d4       ?EndRemoval@COPOSFiscalPrinter@@UEAAJPEAJ@Z 000000018000d8d4 f   FiscalPrinterImpl.obj
 0001:0000c8fc       ?EndTraining@COPOSFiscalPrinter@@UEAAJPEAJ@Z 000000018000d8fc f   FiscalPrinterImpl.obj
 0001:0000c924       ?EventInit@COPOSFiscalPrinter@@IEAAJXZ 000000018000d924 f i FiscalPrinterImpl.obj
 0001:0000ca74       ?EventUninit@COPOSFiscalPrinter@@IEAAXXZ 000000018000da74 f i FiscalPrinterImpl.obj
 0001:0000cad8       ?EventWindowProc@COPOSFiscalPrinter@@IEAA_JI_K_J@Z 000000018000dad8 f i FiscalPrinterImpl.obj
 0001:0000cc54       ?FinalConstruct@COPOSFiscalPrinter@@QEAAJXZ 000000018000dc54 f   FiscalPrinterImpl.obj
 0001:0000cc90       ?FreezeEvents@COPOSFiscalPrinter@@MEAAJH@Z 000000018000dc90 f   FiscalPrinterImpl.obj
 0001:0000ccfc       ?GetData@COPOSFiscalPrinter@@UEAAJJPEAJPEAPEA_W0@Z 000000018000dcfc f   FiscalPrinterImpl.obj
 0001:0000cdf8       ?GetDate@COPOSFiscalPrinter@@UEAAJPEAPEA_WPEAJ@Z 000000018000ddf8 f   FiscalPrinterImpl.obj
 0001:0000ce80       ?GetOposProp@COPOSFiscalPrinter@@IEAAJJPEAJJ@Z 000000018000de80 f   FiscalPrinterImpl.obj
 0001:0000cf9c       ?GetOposProp@COPOSFiscalPrinter@@IEAAJJPEAPEA_WJ@Z 000000018000df9c f   FiscalPrinterImpl.obj
 0001:0000d0c8       ?GetTotalizer@COPOSFiscalPrinter@@UEAAJJJPEAPEA_WPEAJ@Z 000000018000e0c8 f   FiscalPrinterImpl.obj
 0001:0000d1c0       ?GetVatEntry@COPOSFiscalPrinter@@UEAAJJJPEAJ0@Z 000000018000e1c0 f   FiscalPrinterImpl.obj
 0001:0000d2b8       ?OnDraw@COPOSFiscalPrinter@@MEAAJAEAUATL_DRAWINFO@@@Z 000000018000e2b8 f   FiscalPrinterImpl.obj
 0001:0000d3a4       ?Open@COPOSFiscalPrinter@@UEAAJPEA_WPEAJ@Z 000000018000e3a4 f   FiscalPrinterImpl.obj
 0001:0000dc0c       ?PrintDuplicateReceipt@COPOSFiscalPrinter@@UEAAJPEAJ@Z 000000018000ec0c f   FiscalPrinterImpl.obj
 0001:0000dc34       ?PrintFiscalDocumentLine@COPOSFiscalPrinter@@UEAAJPEA_WPEAJ@Z 000000018000ec34 f   FiscalPrinterImpl.obj
 0001:0000dcbc       ?PrintFixedOutput@COPOSFiscalPrinter@@UEAAJJJPEA_WPEAJ@Z 000000018000ecbc f   FiscalPrinterImpl.obj
 0001:0000ddb4       ?PrintNormal@COPOSFiscalPrinter@@UEAAJJPEA_WPEAJ@Z 000000018000edb4 f   FiscalPrinterImpl.obj
 0001:0000de8c       ?PrintPeriodicTotalsReport@COPOSFiscalPrinter@@UEAAJPEA_W0PEAJ@Z 000000018000ee8c f   FiscalPrinterImpl.obj
 0001:0000df68       ?PrintPowerLossReport@COPOSFiscalPrinter@@UEAAJPEAJ@Z 000000018000ef68 f   FiscalPrinterImpl.obj
 0001:0000df90       ?PrintRecCash@COPOSFiscalPrinter@@UEAAJTtagCY@@PEAJ@Z 000000018000ef90 f   FiscalPrinterImpl.obj
 0001:0000e00c       ?PrintRecItem@COPOSFiscalPrinter@@UEAAJPEA_WTtagCY@@JJ10PEAJ@Z 000000018000f00c f   FiscalPrinterImpl.obj
 0001:0000e138       ?PrintRecItemAdjustment@COPOSFiscalPrinter@@UEAAJJPEA_WTtagCY@@JPEAJ@Z 000000018000f138 f   FiscalPrinterImpl.obj
 0001:0000e244       ?PrintRecItemAdjustmentVoid@COPOSFiscalPrinter@@UEAAJJPEA_WTtagCY@@JPEAJ@Z 000000018000f244 f   FiscalPrinterImpl.obj
 0001:0000e350       ?PrintRecItemFuel@COPOSFiscalPrinter@@UEAAJPEA_WTtagCY@@JJ1010PEAJ@Z 000000018000f350 f   FiscalPrinterImpl.obj
 0001:0000e4a4       ?PrintRecItemFuelVoid@COPOSFiscalPrinter@@UEAAJPEA_WTtagCY@@J1PEAJ@Z 000000018000f4a4 f   FiscalPrinterImpl.obj
 0001:0000e5b0       ?PrintRecItemRefund@COPOSFiscalPrinter@@UEAAJPEA_WTtagCY@@JJ10PEAJ@Z 000000018000f5b0 f   FiscalPrinterImpl.obj
 0001:0000e6dc       ?PrintRecItemRefundVoid@COPOSFiscalPrinter@@UEAAJPEA_WTtagCY@@JJ10PEAJ@Z 000000018000f6dc f   FiscalPrinterImpl.obj
 0001:0000e808       ?PrintRecItemVoid@COPOSFiscalPrinter@@UEAAJPEA_WTtagCY@@JJ10PEAJ@Z 000000018000f808 f   FiscalPrinterImpl.obj
 0001:0000e934       ?PrintRecMessage@COPOSFiscalPrinter@@UEAAJPEA_WPEAJ@Z 000000018000f934 f   FiscalPrinterImpl.obj
 0001:0000e9bc       ?PrintRecNotPaid@COPOSFiscalPrinter@@UEAAJPEA_WTtagCY@@PEAJ@Z 000000018000f9bc f   FiscalPrinterImpl.obj
 0001:0000ea94       ?PrintRecPackageAdjustVoid@COPOSFiscalPrinter@@UEAAJJPEA_WPEAJ@Z 000000018000fa94 f   FiscalPrinterImpl.obj
 0001:0000eb6c       ?PrintRecPackageAdjustment@COPOSFiscalPrinter@@UEAAJJPEA_W0PEAJ@Z 000000018000fb6c f   FiscalPrinterImpl.obj
 0001:0000ec68       ?PrintRecRefund@COPOSFiscalPrinter@@UEAAJPEA_WTtagCY@@JPEAJ@Z 000000018000fc68 f   FiscalPrinterImpl.obj
 0001:0000ed60       ?PrintRecRefundVoid@COPOSFiscalPrinter@@UEAAJPEA_WTtagCY@@JPEAJ@Z 000000018000fd60 f   FiscalPrinterImpl.obj
 0001:0000ee58       ?PrintRecSubtotal@COPOSFiscalPrinter@@UEAAJTtagCY@@PEAJ@Z 000000018000fe58 f   FiscalPrinterImpl.obj
 0001:0000eed4       ?PrintRecSubtotalAdjustVoid@COPOSFiscalPrinter@@UEAAJJTtagCY@@PEAJ@Z 000000018000fed4 f   FiscalPrinterImpl.obj
 0001:0000efa0       ?PrintRecSubtotalAdjustment@COPOSFiscalPrinter@@UEAAJJPEA_WTtagCY@@PEAJ@Z 000000018000ffa0 f   FiscalPrinterImpl.obj
 0001:0000f098       ?PrintRecTaxID@COPOSFiscalPrinter@@UEAAJPEA_WPEAJ@Z 0000000180010098 f   FiscalPrinterImpl.obj
 0001:0000f120       ?PrintRecTotal@COPOSFiscalPrinter@@UEAAJTtagCY@@0PEA_WPEAJ@Z 0000000180010120 f   FiscalPrinterImpl.obj
 0001:0000f218       ?PrintRecVoid@COPOSFiscalPrinter@@UEAAJPEA_WPEAJ@Z 0000000180010218 f   FiscalPrinterImpl.obj
 0001:0000f2a0       ?PrintRecVoidItem@COPOSFiscalPrinter@@UEAAJPEA_WTtagCY@@JJ1JPEAJ@Z 00000001800102a0 f   FiscalPrinterImpl.obj
 0001:0000f3bc       ?PrintReport@COPOSFiscalPrinter@@UEAAJJPEA_W0PEAJ@Z 00000001800103bc f   FiscalPrinterImpl.obj
 0001:0000f4b8       ?PrintXReport@COPOSFiscalPrinter@@UEAAJPEAJ@Z 00000001800104b8 f   FiscalPrinterImpl.obj
 0001:0000f4e0       ?PrintZReport@COPOSFiscalPrinter@@UEAAJPEAJ@Z 00000001800104e0 f   FiscalPrinterImpl.obj
 0001:0000f508       ?ReleaseDevice@COPOSFiscalPrinter@@UEAAJPEAJ@Z 0000000180010508 f   FiscalPrinterImpl.obj
 0001:0000f574       ?ResetPrinterW@COPOSFiscalPrinter@@UEAAJPEAJ@Z 0000000180010574 f   FiscalPrinterImpl.obj
 0001:0000f59c       ?ResetStatistics@COPOSFiscalPrinter@@UEAAJPEA_WPEAJ@Z 000000018001059c f   FiscalPrinterImpl.obj
 0001:0000f624       ?RetrieveStatistics@COPOSFiscalPrinter@@UEAAJPEAPEA_WPEAJ@Z 0000000180010624 f   FiscalPrinterImpl.obj
 0001:0000f6ac       ?SOProcessID@COPOSFiscalPrinter@@UEAAJPEAJ@Z 00000001800106ac f   FiscalPrinterImpl.obj
 0001:0000f6c8       ?SetCOFreezeEvents@COPOSFiscalPrinter@@IEAAXF@Z 00000001800106c8 f   FiscalPrinterImpl.obj
 0001:0000f7ac       ?SetCurrency@COPOSFiscalPrinter@@UEAAJJPEAJ@Z 00000001800107ac f   FiscalPrinterImpl.obj
 0001:0000f828       ?SetDate@COPOSFiscalPrinter@@UEAAJPEA_WPEAJ@Z 0000000180010828 f   FiscalPrinterImpl.obj
 0001:0000f8b0       ?SetHeaderLine@COPOSFiscalPrinter@@UEAAJJPEA_WFPEAJ@Z 00000001800108b0 f   FiscalPrinterImpl.obj
 0001:0000f9a8       ?SetOposProp@COPOSFiscalPrinter@@IEAAJJJJ@Z 00000001800109a8 f   FiscalPrinterImpl.obj
 0001:0000fb08       ?SetOposProp@COPOSFiscalPrinter@@IEAAJJPEA_WJ@Z 0000000180010b08 f   FiscalPrinterImpl.obj
 0001:0000fc60       ?SetPOSID@COPOSFiscalPrinter@@UEAAJPEA_W0PEAJ@Z 0000000180010c60 f   FiscalPrinterImpl.obj
 0001:0000fd3c       ?SetStoreFiscalID@COPOSFiscalPrinter@@UEAAJPEA_WPEAJ@Z 0000000180010d3c f   FiscalPrinterImpl.obj
 0001:0000fdc4       ?SetTrailerLine@COPOSFiscalPrinter@@UEAAJJPEA_WFPEAJ@Z 0000000180010dc4 f   FiscalPrinterImpl.obj
 0001:0000febc       ?SetVatTable@COPOSFiscalPrinter@@UEAAJPEAJ@Z 0000000180010ebc f   FiscalPrinterImpl.obj
 0001:0000fee4       ?SetVatValue@COPOSFiscalPrinter@@UEAAJJPEA_WPEAJ@Z 0000000180010ee4 f   FiscalPrinterImpl.obj
 0001:0000ffbc       ?UpdateFirmware@COPOSFiscalPrinter@@UEAAJPEA_WPEAJ@Z 0000000180010fbc f   FiscalPrinterImpl.obj
 0001:00010044       ?UpdateStatistics@COPOSFiscalPrinter@@UEAAJPEA_WPEAJ@Z 0000000180011044 f   FiscalPrinterImpl.obj
 0001:000100cc       ?VerifyItem@COPOSFiscalPrinter@@UEAAJPEA_WJPEAJ@Z 00000001800110cc f   FiscalPrinterImpl.obj
 0001:000101a4       ?get_ActualCurrency@COPOSFiscalPrinter@@UEAAJPEAJ@Z 00000001800111a4 f   FiscalPrinterImpl.obj
 0001:000101b8       ?get_AdditionalHeader@COPOSFiscalPrinter@@UEAAJPEAPEA_W@Z 00000001800111b8 f   FiscalPrinterImpl.obj
 0001:000101cc       ?get_AdditionalTrailer@COPOSFiscalPrinter@@UEAAJPEAPEA_W@Z 00000001800111cc f   FiscalPrinterImpl.obj
 0001:000101e0       ?get_AmountDecimalPlaces@COPOSFiscalPrinter@@UEAAJPEAJ@Z 00000001800111e0 f   FiscalPrinterImpl.obj
 0001:000101f4       ?get_AsyncMode@COPOSFiscalPrinter@@UEAAJPEAF@Z 00000001800111f4 f   FiscalPrinterImpl.obj
 0001:00010228       ?get_BinaryConversion@COPOSFiscalPrinter@@UEAAJPEAJ@Z 0000000180011228 f   FiscalPrinterImpl.obj
 0001:0001023c       ?get_CapAdditionalHeader@COPOSFiscalPrinter@@UEAAJPEAF@Z 000000018001123c f   FiscalPrinterImpl.obj
 0001:00010270       ?get_CapAdditionalLines@COPOSFiscalPrinter@@UEAAJPEAF@Z 0000000180011270 f   FiscalPrinterImpl.obj
 0001:000102a4       ?get_CapAdditionalTrailer@COPOSFiscalPrinter@@UEAAJPEAF@Z 00000001800112a4 f   FiscalPrinterImpl.obj
 0001:000102d8       ?get_CapAmountAdjustment@COPOSFiscalPrinter@@UEAAJPEAF@Z 00000001800112d8 f   FiscalPrinterImpl.obj
 0001:0001030c       ?get_CapAmountNotPaid@COPOSFiscalPrinter@@UEAAJPEAF@Z 000000018001130c f   FiscalPrinterImpl.obj
 0001:00010340       ?get_CapChangeDue@COPOSFiscalPrinter@@UEAAJPEAF@Z 0000000180011340 f   FiscalPrinterImpl.obj
 0001:00010374       ?get_CapCheckTotal@COPOSFiscalPrinter@@UEAAJPEAF@Z 0000000180011374 f   FiscalPrinterImpl.obj
 0001:000103a8       ?get_CapCompareFirmwareVersion@COPOSFiscalPrinter@@UEAAJPEAF@Z 00000001800113a8 f   FiscalPrinterImpl.obj
 0001:000103dc       ?get_CapCoverSensor@COPOSFiscalPrinter@@UEAAJPEAF@Z 00000001800113dc f   FiscalPrinterImpl.obj
 0001:00010410       ?get_CapDoubleWidth@COPOSFiscalPrinter@@UEAAJPEAF@Z 0000000180011410 f   FiscalPrinterImpl.obj
 0001:00010444       ?get_CapDuplicateReceipt@COPOSFiscalPrinter@@UEAAJPEAF@Z 0000000180011444 f   FiscalPrinterImpl.obj
 0001:00010478       ?get_CapEmptyReceiptIsVoidable@COPOSFiscalPrinter@@UEAAJPEAF@Z 0000000180011478 f   FiscalPrinterImpl.obj
 0001:000104ac       ?get_CapFiscalReceiptStation@COPOSFiscalPrinter@@UEAAJPEAF@Z 00000001800114ac f   FiscalPrinterImpl.obj
 0001:000104e0       ?get_CapFiscalReceiptType@COPOSFiscalPrinter@@UEAAJPEAF@Z 00000001800114e0 f   FiscalPrinterImpl.obj
 0001:00010514       ?get_CapFixedOutput@COPOSFiscalPrinter@@UEAAJPEAF@Z 0000000180011514 f   FiscalPrinterImpl.obj
 0001:00010548       ?get_CapHasVatTable@COPOSFiscalPrinter@@UEAAJPEAF@Z 0000000180011548 f   FiscalPrinterImpl.obj
 0001:0001057c       ?get_CapIndependentHeader@COPOSFiscalPrinter@@UEAAJPEAF@Z 000000018001157c f   FiscalPrinterImpl.obj
 0001:000105b0       ?get_CapItemList@COPOSFiscalPrinter@@UEAAJPEAF@Z 00000001800115b0 f   FiscalPrinterImpl.obj
 0001:000105e4       ?get_CapJrnEmptySensor@COPOSFiscalPrinter@@UEAAJPEAF@Z 00000001800115e4 f   FiscalPrinterImpl.obj
 0001:00010618       ?get_CapJrnNearEndSensor@COPOSFiscalPrinter@@UEAAJPEAF@Z 0000000180011618 f   FiscalPrinterImpl.obj
 0001:0001064c       ?get_CapJrnPresent@COPOSFiscalPrinter@@UEAAJPEAF@Z 000000018001164c f   FiscalPrinterImpl.obj
 0001:00010680       ?get_CapMultiContractor@COPOSFiscalPrinter@@UEAAJPEAF@Z 0000000180011680 f   FiscalPrinterImpl.obj
 0001:000106b4       ?get_CapNonFiscalMode@COPOSFiscalPrinter@@UEAAJPEAF@Z 00000001800116b4 f   FiscalPrinterImpl.obj
 0001:000106e8       ?get_CapOnlyVoidLastItem@COPOSFiscalPrinter@@UEAAJPEAF@Z 00000001800116e8 f   FiscalPrinterImpl.obj
 0001:0001071c       ?get_CapOrderAdjustmentFirst@COPOSFiscalPrinter@@UEAAJPEAF@Z 000000018001171c f   FiscalPrinterImpl.obj
 0001:00010750       ?get_CapPackageAdjustment@COPOSFiscalPrinter@@UEAAJPEAF@Z 0000000180011750 f   FiscalPrinterImpl.obj
 0001:00010784       ?get_CapPercentAdjustment@COPOSFiscalPrinter@@UEAAJPEAF@Z 0000000180011784 f   FiscalPrinterImpl.obj
 0001:000107b8       ?get_CapPositiveAdjustment@COPOSFiscalPrinter@@UEAAJPEAF@Z 00000001800117b8 f   FiscalPrinterImpl.obj
 0001:000107ec       ?get_CapPositiveSubtotalAdjustment@COPOSFiscalPrinter@@UEAAJPEAF@Z 00000001800117ec f   FiscalPrinterImpl.obj
 0001:00010820       ?get_CapPostPreLine@COPOSFiscalPrinter@@UEAAJPEAF@Z 0000000180011820 f   FiscalPrinterImpl.obj
 0001:00010854       ?get_CapPowerLossReport@COPOSFiscalPrinter@@UEAAJPEAF@Z 0000000180011854 f   FiscalPrinterImpl.obj
 0001:00010888       ?get_CapPowerReporting@COPOSFiscalPrinter@@UEAAJPEAJ@Z 0000000180011888 f   FiscalPrinterImpl.obj
 0001:0001089c       ?get_CapPredefinedPaymentLines@COPOSFiscalPrinter@@UEAAJPEAF@Z 000000018001189c f   FiscalPrinterImpl.obj
 0001:000108d0       ?get_CapRecEmptySensor@COPOSFiscalPrinter@@UEAAJPEAF@Z 00000001800118d0 f   FiscalPrinterImpl.obj
 0001:00010904       ?get_CapRecNearEndSensor@COPOSFiscalPrinter@@UEAAJPEAF@Z 0000000180011904 f   FiscalPrinterImpl.obj
 0001:00010938       ?get_CapRecPresent@COPOSFiscalPrinter@@UEAAJPEAF@Z 0000000180011938 f   FiscalPrinterImpl.obj
 0001:0001096c       ?get_CapReceiptNotPaid@COPOSFiscalPrinter@@UEAAJPEAF@Z 000000018001196c f   FiscalPrinterImpl.obj
 0001:000109a0       ?get_CapRemainingFiscalMemory@COPOSFiscalPrinter@@UEAAJPEAF@Z 00000001800119a0 f   FiscalPrinterImpl.obj
 0001:000109d4       ?get_CapReservedWord@COPOSFiscalPrinter@@UEAAJPEAF@Z 00000001800119d4 f   FiscalPrinterImpl.obj
 0001:00010a08       ?get_CapSetCurrency@COPOSFiscalPrinter@@UEAAJPEAF@Z 0000000180011a08 f   FiscalPrinterImpl.obj
 0001:00010a3c       ?get_CapSetHeader@COPOSFiscalPrinter@@UEAAJPEAF@Z 0000000180011a3c f   FiscalPrinterImpl.obj
 0001:00010a70       ?get_CapSetPOSID@COPOSFiscalPrinter@@UEAAJPEAF@Z 0000000180011a70 f   FiscalPrinterImpl.obj
 0001:00010aa4       ?get_CapSetStoreFiscalID@COPOSFiscalPrinter@@UEAAJPEAF@Z 0000000180011aa4 f   FiscalPrinterImpl.obj
 0001:00010ad8       ?get_CapSetTrailer@COPOSFiscalPrinter@@UEAAJPEAF@Z 0000000180011ad8 f   FiscalPrinterImpl.obj
 0001:00010b0c       ?get_CapSetVatTable@COPOSFiscalPrinter@@UEAAJPEAF@Z 0000000180011b0c f   FiscalPrinterImpl.obj
 0001:00010b40       ?get_CapSlpEmptySensor@COPOSFiscalPrinter@@UEAAJPEAF@Z 0000000180011b40 f   FiscalPrinterImpl.obj
 0001:00010b74       ?get_CapSlpFiscalDocument@COPOSFiscalPrinter@@UEAAJPEAF@Z 0000000180011b74 f   FiscalPrinterImpl.obj
 0001:00010ba8       ?get_CapSlpFullSlip@COPOSFiscalPrinter@@UEAAJPEAF@Z 0000000180011ba8 f   FiscalPrinterImpl.obj
 0001:00010bdc       ?get_CapSlpNearEndSensor@COPOSFiscalPrinter@@UEAAJPEAF@Z 0000000180011bdc f   FiscalPrinterImpl.obj
 0001:00010c10       ?get_CapSlpPresent@COPOSFiscalPrinter@@UEAAJPEAF@Z 0000000180011c10 f   FiscalPrinterImpl.obj
 0001:00010c44       ?get_CapSlpValidation@COPOSFiscalPrinter@@UEAAJPEAF@Z 0000000180011c44 f   FiscalPrinterImpl.obj
 0001:00010c78       ?get_CapStatisticsReporting@COPOSFiscalPrinter@@UEAAJPEAF@Z 0000000180011c78 f   FiscalPrinterImpl.obj
 0001:00010cac       ?get_CapSubAmountAdjustment@COPOSFiscalPrinter@@UEAAJPEAF@Z 0000000180011cac f   FiscalPrinterImpl.obj
 0001:00010ce0       ?get_CapSubPercentAdjustment@COPOSFiscalPrinter@@UEAAJPEAF@Z 0000000180011ce0 f   FiscalPrinterImpl.obj
 0001:00010d14       ?get_CapSubtotal@COPOSFiscalPrinter@@UEAAJPEAF@Z 0000000180011d14 f   FiscalPrinterImpl.obj
 0001:00010d48       ?get_CapTotalizerType@COPOSFiscalPrinter@@UEAAJPEAF@Z 0000000180011d48 f   FiscalPrinterImpl.obj
 0001:00010d7c       ?get_CapTrainingMode@COPOSFiscalPrinter@@UEAAJPEAF@Z 0000000180011d7c f   FiscalPrinterImpl.obj
 0001:00010db0       ?get_CapUpdateFirmware@COPOSFiscalPrinter@@UEAAJPEAF@Z 0000000180011db0 f   FiscalPrinterImpl.obj
 0001:00010de4       ?get_CapUpdateStatistics@COPOSFiscalPrinter@@UEAAJPEAF@Z 0000000180011de4 f   FiscalPrinterImpl.obj
 0001:00010e18       ?get_CapValidateJournal@COPOSFiscalPrinter@@UEAAJPEAF@Z 0000000180011e18 f   FiscalPrinterImpl.obj
 0001:00010e4c       ?get_CapXReport@COPOSFiscalPrinter@@UEAAJPEAF@Z 0000000180011e4c f   FiscalPrinterImpl.obj
 0001:00010e80       ?get_ChangeDue@COPOSFiscalPrinter@@UEAAJPEAPEA_W@Z 0000000180011e80 f   FiscalPrinterImpl.obj
 0001:00010e94       ?get_CheckHealthText@COPOSFiscalPrinter@@UEAAJPEAPEA_W@Z 0000000180011e94 f   FiscalPrinterImpl.obj
 0001:00010ea8       ?get_CheckTotal@COPOSFiscalPrinter@@UEAAJPEAF@Z 0000000180011ea8 f   FiscalPrinterImpl.obj
 0001:00010edc       ?get_Claimed@COPOSFiscalPrinter@@UEAAJPEAF@Z 0000000180011edc f   FiscalPrinterImpl.obj
 0001:00010f10       ?get_ContractorId@COPOSFiscalPrinter@@UEAAJPEAJ@Z 0000000180011f10 f   FiscalPrinterImpl.obj
 0001:00010f24       ?get_ControlObjectDescription@COPOSFiscalPrinter@@UEAAJPEAPEA_W@Z 0000000180011f24 f   FiscalPrinterImpl.obj
 0001:00010f88       ?get_ControlObjectVersion@COPOSFiscalPrinter@@UEAAJPEAJ@Z 0000000180011f88 f   FiscalPrinterImpl.obj
 0001:00010f94       ?get_CountryCode@COPOSFiscalPrinter@@UEAAJPEAJ@Z 0000000180011f94 f   FiscalPrinterImpl.obj
 0001:00010fa8       ?get_CoverOpen@COPOSFiscalPrinter@@UEAAJPEAF@Z 0000000180011fa8 f   FiscalPrinterImpl.obj
 0001:00010fdc       ?get_DateType@COPOSFiscalPrinter@@UEAAJPEAJ@Z 0000000180011fdc f   FiscalPrinterImpl.obj
 0001:00010ff0       ?get_DayOpened@COPOSFiscalPrinter@@UEAAJPEAF@Z 0000000180011ff0 f   FiscalPrinterImpl.obj
 0001:00011024       ?get_DescriptionLength@COPOSFiscalPrinter@@UEAAJPEAJ@Z 0000000180012024 f   FiscalPrinterImpl.obj
 0001:00011038       ?get_DeviceDescription@COPOSFiscalPrinter@@UEAAJPEAPEA_W@Z 0000000180012038 f   FiscalPrinterImpl.obj
 0001:0001104c       ?get_DeviceEnabled@COPOSFiscalPrinter@@UEAAJPEAF@Z 000000018001204c f   FiscalPrinterImpl.obj
 0001:0001107c       ?get_DeviceName@COPOSFiscalPrinter@@UEAAJPEAPEA_W@Z 000000018001207c f   FiscalPrinterImpl.obj
 0001:00011090       ?get_DuplicateReceipt@COPOSFiscalPrinter@@UEAAJPEAF@Z 0000000180012090 f   FiscalPrinterImpl.obj
 0001:000110c4       ?get_ErrorLevel@COPOSFiscalPrinter@@UEAAJPEAJ@Z 00000001800120c4 f   FiscalPrinterImpl.obj
 0001:000110d8       ?get_ErrorOutID@COPOSFiscalPrinter@@UEAAJPEAJ@Z 00000001800120d8 f   FiscalPrinterImpl.obj
 0001:000110ec       ?get_ErrorState@COPOSFiscalPrinter@@UEAAJPEAJ@Z 00000001800120ec f   FiscalPrinterImpl.obj
 0001:00011100       ?get_ErrorStation@COPOSFiscalPrinter@@UEAAJPEAJ@Z 0000000180012100 f   FiscalPrinterImpl.obj
 0001:00011114       ?get_ErrorString@COPOSFiscalPrinter@@UEAAJPEAPEA_W@Z 0000000180012114 f   FiscalPrinterImpl.obj
 0001:00011128       ?get_FiscalReceiptStation@COPOSFiscalPrinter@@UEAAJPEAJ@Z 0000000180012128 f   FiscalPrinterImpl.obj
 0001:0001113c       ?get_FiscalReceiptType@COPOSFiscalPrinter@@UEAAJPEAJ@Z 000000018001213c f   FiscalPrinterImpl.obj
 0001:00011150       ?get_FlagWhenIdle@COPOSFiscalPrinter@@UEAAJPEAF@Z 0000000180012150 f   FiscalPrinterImpl.obj
 0001:00011184       ?get_FreezeEvents@COPOSFiscalPrinter@@UEAAJPEAF@Z 0000000180012184 f   FiscalPrinterImpl.obj
 0001:000111b4       ?get_JrnEmpty@COPOSFiscalPrinter@@UEAAJPEAF@Z 00000001800121b4 f   FiscalPrinterImpl.obj
 0001:000111e8       ?get_JrnNearEnd@COPOSFiscalPrinter@@UEAAJPEAF@Z 00000001800121e8 f   FiscalPrinterImpl.obj
 0001:0001121c       ?get_MessageLength@COPOSFiscalPrinter@@UEAAJPEAJ@Z 000000018001221c f   FiscalPrinterImpl.obj
 0001:00011230       ?get_MessageType@COPOSFiscalPrinter@@UEAAJPEAJ@Z 0000000180012230 f   FiscalPrinterImpl.obj
 0001:00011244       ?get_NumHeaderLines@COPOSFiscalPrinter@@UEAAJPEAJ@Z 0000000180012244 f   FiscalPrinterImpl.obj
 0001:00011258       ?get_NumTrailerLines@COPOSFiscalPrinter@@UEAAJPEAJ@Z 0000000180012258 f   FiscalPrinterImpl.obj
 0001:0001126c       ?get_NumVatRates@COPOSFiscalPrinter@@UEAAJPEAJ@Z 000000018001226c f   FiscalPrinterImpl.obj
 0001:00011280       ?get_OpenResult@COPOSFiscalPrinter@@UEAAJPEAJ@Z 0000000180012280 f   FiscalPrinterImpl.obj
 0001:0001128c       ?get_OutputID@COPOSFiscalPrinter@@UEAAJPEAJ@Z 000000018001228c f   FiscalPrinterImpl.obj
 0001:000112a0       ?get_PostLine@COPOSFiscalPrinter@@UEAAJPEAPEA_W@Z 00000001800122a0 f   FiscalPrinterImpl.obj
 0001:000112b4       ?get_PowerNotify@COPOSFiscalPrinter@@UEAAJPEAJ@Z 00000001800122b4 f   FiscalPrinterImpl.obj
 0001:000112c8       ?get_PowerState@COPOSFiscalPrinter@@UEAAJPEAJ@Z 00000001800122c8 f   FiscalPrinterImpl.obj
 0001:000112dc       ?get_PreLine@COPOSFiscalPrinter@@UEAAJPEAPEA_W@Z 00000001800122dc f   FiscalPrinterImpl.obj
 0001:000112f0       ?get_PredefinedPaymentLines@COPOSFiscalPrinter@@UEAAJPEAPEA_W@Z 00000001800122f0 f   FiscalPrinterImpl.obj
 0001:00011304       ?get_PrinterState@COPOSFiscalPrinter@@UEAAJPEAJ@Z 0000000180012304 f   FiscalPrinterImpl.obj
 0001:00011318       ?get_QuantityDecimalPlaces@COPOSFiscalPrinter@@UEAAJPEAJ@Z 0000000180012318 f   FiscalPrinterImpl.obj
 0001:0001132c       ?get_QuantityLength@COPOSFiscalPrinter@@UEAAJPEAJ@Z 000000018001232c f   FiscalPrinterImpl.obj
 0001:00011340       ?get_RecEmpty@COPOSFiscalPrinter@@UEAAJPEAF@Z 0000000180012340 f   FiscalPrinterImpl.obj
 0001:00011374       ?get_RecNearEnd@COPOSFiscalPrinter@@UEAAJPEAF@Z 0000000180012374 f   FiscalPrinterImpl.obj
 0001:000113a8       ?get_RemainingFiscalMemory@COPOSFiscalPrinter@@UEAAJPEAJ@Z 00000001800123a8 f   FiscalPrinterImpl.obj
 0001:000113bc       ?get_ReservedWord@COPOSFiscalPrinter@@UEAAJPEAPEA_W@Z 00000001800123bc f   FiscalPrinterImpl.obj
 0001:000113d0       ?get_ResultCode@COPOSFiscalPrinter@@UEAAJPEAJ@Z 00000001800123d0 f   FiscalPrinterImpl.obj
 0001:0001140c       ?get_ResultCodeExtended@COPOSFiscalPrinter@@UEAAJPEAJ@Z 000000018001240c f   FiscalPrinterImpl.obj
 0001:00011420       ?get_ServiceObjectDescription@COPOSFiscalPrinter@@UEAAJPEAPEA_W@Z 0000000180012420 f   FiscalPrinterImpl.obj
 0001:00011434       ?get_ServiceObjectVersion@COPOSFiscalPrinter@@UEAAJPEAJ@Z 0000000180012434 f   FiscalPrinterImpl.obj
 0001:00011448       ?get_SlipSelection@COPOSFiscalPrinter@@UEAAJPEAJ@Z 0000000180012448 f   FiscalPrinterImpl.obj
 0001:0001145c       ?get_SlpEmpty@COPOSFiscalPrinter@@UEAAJPEAF@Z 000000018001245c f   FiscalPrinterImpl.obj
 0001:00011490       ?get_SlpNearEnd@COPOSFiscalPrinter@@UEAAJPEAF@Z 0000000180012490 f   FiscalPrinterImpl.obj
 0001:000114c4       ?get_State@COPOSFiscalPrinter@@UEAAJPEAJ@Z 00000001800124c4 f   FiscalPrinterImpl.obj
 0001:000114f0       ?get_TotalizerType@COPOSFiscalPrinter@@UEAAJPEAJ@Z 00000001800124f0 f   FiscalPrinterImpl.obj
 0001:00011504       ?get_TrainingModeActive@COPOSFiscalPrinter@@UEAAJPEAF@Z 0000000180012504 f   FiscalPrinterImpl.obj
 0001:00011538       ?put_AdditionalHeader@COPOSFiscalPrinter@@UEAAJPEA_W@Z 0000000180012538 f   FiscalPrinterImpl.obj
 0001:0001154c       ?put_AdditionalTrailer@COPOSFiscalPrinter@@UEAAJPEA_W@Z 000000018001254c f   FiscalPrinterImpl.obj
 0001:00011560       ?put_AsyncMode@COPOSFiscalPrinter@@UEAAJF@Z 0000000180012560 f   FiscalPrinterImpl.obj
 0001:0001157c       ?put_BinaryConversion@COPOSFiscalPrinter@@UEAAJJ@Z 000000018001257c f   FiscalPrinterImpl.obj
 0001:00011590       ?put_ChangeDue@COPOSFiscalPrinter@@UEAAJPEA_W@Z 0000000180012590 f   FiscalPrinterImpl.obj
 0001:000115a4       ?put_CheckTotal@COPOSFiscalPrinter@@UEAAJF@Z 00000001800125a4 f   FiscalPrinterImpl.obj
 0001:000115c0       ?put_ContractorId@COPOSFiscalPrinter@@UEAAJJ@Z 00000001800125c0 f   FiscalPrinterImpl.obj
 0001:000115d4       ?put_DateType@COPOSFiscalPrinter@@UEAAJJ@Z 00000001800125d4 f   FiscalPrinterImpl.obj
 0001:000115e8       ?put_DeviceEnabled@COPOSFiscalPrinter@@UEAAJF@Z 00000001800125e8 f   FiscalPrinterImpl.obj
 0001:00011600       ?put_DuplicateReceipt@COPOSFiscalPrinter@@UEAAJF@Z 0000000180012600 f   FiscalPrinterImpl.obj
 0001:0001161c       ?put_FiscalReceiptStation@COPOSFiscalPrinter@@UEAAJJ@Z 000000018001261c f   FiscalPrinterImpl.obj
 0001:00011630       ?put_FiscalReceiptType@COPOSFiscalPrinter@@UEAAJJ@Z 0000000180012630 f   FiscalPrinterImpl.obj
 0001:00011644       ?put_FlagWhenIdle@COPOSFiscalPrinter@@UEAAJF@Z 0000000180012644 f   FiscalPrinterImpl.obj
 0001:00011660       ?put_FreezeEvents@COPOSFiscalPrinter@@UEAAJF@Z 0000000180012660 f   FiscalPrinterImpl.obj
 0001:000116b0       ?put_MessageType@COPOSFiscalPrinter@@UEAAJJ@Z 00000001800126b0 f   FiscalPrinterImpl.obj
 0001:000116c4       ?put_PostLine@COPOSFiscalPrinter@@UEAAJPEA_W@Z 00000001800126c4 f   FiscalPrinterImpl.obj
 0001:000116d8       ?put_PowerNotify@COPOSFiscalPrinter@@UEAAJJ@Z 00000001800126d8 f   FiscalPrinterImpl.obj
 0001:000116ec       ?put_PreLine@COPOSFiscalPrinter@@UEAAJPEA_W@Z 00000001800126ec f   FiscalPrinterImpl.obj
 0001:00011700       ?put_SlipSelection@COPOSFiscalPrinter@@UEAAJJ@Z 0000000180012700 f   FiscalPrinterImpl.obj
 0001:00011714       ?put_TotalizerType@COPOSFiscalPrinter@@UEAAJJ@Z 0000000180012714 f   FiscalPrinterImpl.obj
 0001:00011728       ?s_EventWindowProc@COPOSFiscalPrinter@@KA_JPEAUHWND__@@I_K_J@Z 0000000180012728 f i FiscalPrinterImpl.obj
 0001:000117a4       ??_U@YAPEAX_K@Z            00000001800127a4 f   LIBCMT:new_array.obj
 0001:000117ac       ??_V@YAXPEAX@Z             00000001800127ac f   LIBCMT:delete_array.obj
 0001:000117ac       ??3@YAXPEAX_K@Z            00000001800127ac f   LIBCMT:delete_scalar_size.obj
 0001:000117b4       ??_V@YAXPEAX_K@Z           00000001800127b4 f   LIBCMT:delete_array_size.obj
 0001:000117bc       __scrt_acquire_startup_lock 00000001800127bc f   LIBCMT:utility.obj
 0001:000117f8       __scrt_dllmain_after_initialize_c 00000001800127f8 f   LIBCMT:utility.obj
 0001:0001182c       __scrt_dllmain_before_initialize_c 000000018001282c f   LIBCMT:utility.obj
 0001:00011844       __scrt_dllmain_crt_thread_attach 0000000180012844 f   LIBCMT:utility.obj
 0001:0001186c       __scrt_dllmain_crt_thread_detach 000000018001286c f   LIBCMT:utility.obj
 0001:00011884       __scrt_dllmain_exception_filter 0000000180012884 f   LIBCMT:utility.obj
 0001:000118e4       __scrt_dllmain_uninitialize_c 00000001800128e4 f   LIBCMT:utility.obj
 0001:00011914       __scrt_dllmain_uninitialize_critical 0000000180012914 f   LIBCMT:utility.obj
 0001:00011928       __scrt_initialize_crt      0000000180012928 f   LIBCMT:utility.obj
 0001:00011974       __scrt_initialize_onexit_tables 0000000180012974 f   LIBCMT:utility.obj
 0001:00011a00       __scrt_is_nonwritable_in_current_image 0000000180012a00 f   LIBCMT:utility.obj
 0001:00011a98       __scrt_release_startup_lock 0000000180012a98 f   LIBCMT:utility.obj
 0001:00011abc       __scrt_uninitialize_crt    0000000180012abc f   LIBCMT:utility.obj
 0001:00011ae8       _onexit                    0000000180012ae8 f   LIBCMT:utility.obj
 0001:00011b24       atexit                     0000000180012b24 f   LIBCMT:utility.obj
 0001:00011b3c       ??3@YAXPEAX@Z              0000000180012b3c f   LIBCMT:delete_scalar.obj
 0001:00011c3c       _Init_thread_footer        0000000180012c3c f   LIBCMT:thread_safe_statics.obj
 0001:00011c9c       _Init_thread_header        0000000180012c9c f   LIBCMT:thread_safe_statics.obj
 0001:00011d04       _Init_thread_notify        0000000180012d04 f   LIBCMT:thread_safe_statics.obj
 0001:00011d48       _Init_thread_wait          0000000180012d48 f   LIBCMT:thread_safe_statics.obj
 0001:00011dac       __raise_securityfailure    0000000180012dac f   LIBCMT:gs_report.obj
 0001:00011de0       __report_gsfailure         0000000180012de0 f   LIBCMT:gs_report.obj
 0001:00011eb4       __report_rangecheckfailure 0000000180012eb4 f   LIBCMT:gs_report.obj
 0001:00011ec8       __report_securityfailure   0000000180012ec8 f   LIBCMT:gs_report.obj
 0001:00012048       ??2@YAPEAX_KAEBUnothrow_t@std@@@Z 0000000180013048 f   LIBCMT:new_scalar_nothrow.obj
 0001:0001205c       ??_U@YAPEAX_KAEBUnothrow_t@std@@@Z 000000018001305c f   LIBCMT:new_array_nothrow.obj
 0001:00012064       __GSHandlerCheck           0000000180013064 f   LIBCMT:gshandler.obj
 0001:00012084       __GSHandlerCheckCommon     0000000180013084 f   LIBCMT:gshandler.obj
 0001:000120e0       __GSHandlerCheck_SEH       00000001800130e0 f   LIBCMT:gshandlerseh.obj
 0001:00012180       _alloca_probe              0000000180013180 f   LIBCMT:chkstk.obj
 0001:00012180       __chkstk                   0000000180013180 f   LIBCMT:chkstk.obj
 0001:000121e0       __security_check_cookie    00000001800131e0 f   LIBCMT:amdsecgs.obj
 0001:00012520       _DllMainCRTStartup         0000000180013520 f   LIBCMT:dll_dllmain.obj
 0001:00012560       ??2@YAPEAX_K@Z             0000000180013560 f   LIBCMT:new_scalar.obj
 0001:0001259c       __isa_available_init       000000018001359c f   LIBCMT:cpu_disp.obj
 0001:00012740       __scrt_is_ucrt_dll_in_use  0000000180013740 f   LIBCMT:ucrt_detection.obj
 0001:0001274c       __crt_debugger_hook        000000018001374c f   LIBCMT:utility_desktop.obj
 0001:00012754       __scrt_fastfail            0000000180013754 f   LIBCMT:utility_desktop.obj
 0001:000128a0       __security_init_cookie     00000001800138a0 f   LIBCMT:gs_support.obj
 0001:0001294c       ?__scrt_initialize_type_info@@YAXXZ 000000018001394c f   LIBCMT:tncleanup.obj
 0001:0001295c       ?__scrt_uninitialize_type_info@@YAXXZ 000000018001395c f   LIBCMT:tncleanup.obj
 0001:00012968       __local_stdio_scanf_options 0000000180013968 f i LIBCMT:default_local_stdio_options.obj
 0001:00012970       __scrt_initialize_default_local_stdio_options 0000000180013970 f   LIBCMT:default_local_stdio_options.obj
 0001:0001298c       __scrt_get_dyn_tls_init_callback 000000018001398c f   LIBCMT:dyn_tls_init.obj
 0001:00012994       _RTC_Initialize            0000000180013994 f   LIBCMT:initsect.obj
 0001:000129d0       _RTC_Terminate             00000001800139d0 f   LIBCMT:initsect.obj
 0001:00012a0c       ??0bad_alloc@std@@QEAA@AEBV01@@Z 0000000180013a0c f i LIBCMT:throw_bad_alloc.obj
 0001:00012a48       ??0bad_alloc@std@@QEAA@XZ  0000000180013a48 f i LIBCMT:throw_bad_alloc.obj
 0001:00012a68       ??0bad_array_new_length@std@@QEAA@AEBV01@@Z 0000000180013a68 f i LIBCMT:throw_bad_alloc.obj
 0001:00012aa4       ??0bad_array_new_length@std@@QEAA@XZ 0000000180013aa4 f i LIBCMT:throw_bad_alloc.obj
 0001:00012ac4       ??0exception@std@@QEAA@AEBV01@@Z 0000000180013ac4 f i LIBCMT:throw_bad_alloc.obj
 0001:00012af8       ??1bad_array_new_length@std@@UEAA@XZ 0000000180013af8 f i LIBCMT:throw_bad_alloc.obj
 0001:00012af8       ??1bad_alloc@std@@UEAA@XZ  0000000180013af8 f i LIBCMT:throw_bad_alloc.obj
 0001:00012af8       ??1bad_exception@std@@UEAA@XZ 0000000180013af8 f i libvcruntime:frame.obj
 0001:00012b0c       ??_Ebad_alloc@std@@UEAAPEAXI@Z 0000000180013b0c f i LIBCMT:throw_bad_alloc.obj
 0001:00012b0c       ??_Gbad_exception@std@@UEAAPEAXI@Z 0000000180013b0c f i libvcruntime:frame.obj
 0001:00012b0c       ??_Ebad_array_new_length@std@@UEAAPEAXI@Z 0000000180013b0c f i LIBCMT:throw_bad_alloc.obj
 0001:00012b0c       ??_Gbad_array_new_length@std@@UEAAPEAXI@Z 0000000180013b0c f i LIBCMT:throw_bad_alloc.obj
 0001:00012b0c       ??_Ebad_exception@std@@UEAAPEAXI@Z 0000000180013b0c f i libvcruntime:frame.obj
 0001:00012b0c       ??_Gexception@std@@UEAAPEAXI@Z 0000000180013b0c f i LIBCMT:throw_bad_alloc.obj
 0001:00012b0c       ??_Gbad_alloc@std@@UEAAPEAXI@Z 0000000180013b0c f i LIBCMT:throw_bad_alloc.obj
 0001:00012b0c       ??_Eexception@std@@UEAAPEAXI@Z 0000000180013b0c f i LIBCMT:throw_bad_alloc.obj
 0001:00012b50       ?__scrt_throw_std_bad_alloc@@YAXXZ 0000000180013b50 f   LIBCMT:throw_bad_alloc.obj
 0001:00012b70       ?__scrt_throw_std_bad_array_new_length@@YAXXZ 0000000180013b70 f   LIBCMT:throw_bad_alloc.obj
 0001:00012b90       ?what@exception@std@@UEBAPEBDXZ 0000000180013b90 f i LIBCMT:throw_bad_alloc.obj
 0001:00012bb0       ??_Gtype_info@@UEAAPEAXI@Z 0000000180013bb0 f i LIBCMT:std_type_info_static.obj
 0001:00012bb0       ??_Etype_info@@UEAAPEAXI@Z 0000000180013bb0 f i LIBCMT:std_type_info_static.obj
 0001:00012bdc       ??0CAtlBaseModule@ATL@@QEAA@XZ 0000000180013bdc f   atls:atlbase.obj
 0001:00012c84       ??1CAtlBaseModule@ATL@@QEAA@XZ 0000000180013c84 f   atls:atlbase.obj
 0001:00012db8       ?__AllocStdCallThunk_cmn@@YAPEAXXZ 0000000180013db8 f   atls:atlthunk.obj
 0001:00012f10       AtlThunk_AllocateData      0000000180013f10 f   atls:atlthunk.obj
 0001:00012f8c       AtlThunk_DataToCode        0000000180013f8c f   atls:atlthunk.obj
 0001:00012fe0       AtlThunk_FreeData          0000000180013fe0 f   atls:atlthunk.obj
 0001:00013040       AtlThunk_InitData          0000000180014040 f   atls:atlthunk.obj
 0001:000130e8       _get_purecall_handler      00000001800140e8 f   libvcruntime:purevirt.obj
 0001:000130f4       _purecall                  00000001800140f4 f   libvcruntime:purevirt.obj
 0001:00013110       wcsstr                     0000000180014110 f   libvcruntime:wcsstr.obj
 0001:00013340       memcmp                     0000000180014340 f   libvcruntime:memcmp.obj
 0001:00013420       memcpy_repmovs             0000000180014420 f   libvcruntime:memcpy.obj
 0001:00013440       memmove                    0000000180014440 f   libvcruntime:memcpy.obj
 0001:00013440       memcpy                     0000000180014440 f   libvcruntime:memcpy.obj
 0001:00013ad0       memset_repmovs             0000000180014ad0 f   libvcruntime:memset.obj
 0001:00013af0       memset                     0000000180014af0 f   libvcruntime:memset.obj
 0001:00013c80       __vcrt_initialize          0000000180014c80 f   libvcruntime:initialization.obj
 0001:00013ca8       __vcrt_thread_attach       0000000180014ca8 f   libvcruntime:initialization.obj
 0001:00013cbc       __vcrt_thread_detach       0000000180014cbc f   libvcruntime:initialization.obj
 0001:00013cd0       __vcrt_uninitialize        0000000180014cd0 f   libvcruntime:initialization.obj
 0001:00013cec       __vcrt_uninitialize_critical 0000000180014cec f   libvcruntime:initialization.obj
 0001:00013cfc       __C_specific_handler       0000000180014cfc f   libvcruntime:riscchandler.obj
 0001:00013ef4       ??$_CallSETranslator@V__FrameHandler3@@@@YAHPEAUEHExceptionRecord@@PEA_KPEAU_CONTEXT@@PEAU_xDISPATCHER_CONTEXT@@PEBU_s_FuncInfo@@K1H@Z 0000000180014ef4 f i libvcruntime:risctrnsctrl.obj
 0001:00013f48       ??$_CallSETranslator@V__FrameHandler4@@@@YAHPEAUEHExceptionRecord@@PEA_KPEAU_CONTEXT@@PEAU_xDISPATCHER_CONTEXT@@PEAUFuncInfo4@FH4@@K1H@Z 0000000180014f48 f i libvcruntime:risctrnsctrl.obj
 0001:00013f9c       ?CatchTryBlock@__FrameHandler3@@SAPEBU_s_TryBlockMapEntry@@PEBU_s_FuncInfo@@H@Z 0000000180014f9c f   libvcruntime:risctrnsctrl.obj
 0001:00014000       ?DecompFuncInfo@FH4@@YA_JPEAEAEAUFuncInfo4@1@_KH_N@Z 0000000180015000 f i libvcruntime:risctrnsctrl.obj
 0001:00014124       ?ExecutionInCatch@__FrameHandler3@@SA_NPEAU_xDISPATCHER_CONTEXT@@PEBU_s_FuncInfo@@@Z 0000000180015124 f   libvcruntime:risctrnsctrl.obj
 0001:00014150       ?ExecutionInCatch@__FrameHandler4@@SA_NPEAU_xDISPATCHER_CONTEXT@@PEAUFuncInfo4@FH4@@@Z 0000000180015150 f   libvcruntime:risctrnsctrl.obj
 0001:00014158       ?FrameUnwindToEmptyState@__FrameHandler3@@SAXPEA_KPEAU_xDISPATCHER_CONTEXT@@PEBU_s_FuncInfo@@@Z 0000000180015158 f   libvcruntime:risctrnsctrl.obj
 0001:000141bc       ?FrameUnwindToEmptyState@__FrameHandler4@@SAXPEA_KPEAU_xDISPATCHER_CONTEXT@@PEAUFuncInfo4@FH4@@@Z 00000001800151bc f   libvcruntime:risctrnsctrl.obj
 0001:000141f0       ?GetEstablisherFrame@__FrameHandler3@@SAPEA_KPEA_KPEAU_xDISPATCHER_CONTEXT@@PEBU_s_FuncInfo@@0@Z 00000001800151f0 f   libvcruntime:risctrnsctrl.obj
 0001:000142bc       ?GetEstablisherFrame@__FrameHandler4@@SAPEA_KPEA_KPEAU_xDISPATCHER_CONTEXT@@PEAUFuncInfo4@FH4@@0@Z 00000001800152bc f   libvcruntime:risctrnsctrl.obj
 0001:000142e0       ?GetRangeOfTrysToCheck@__FrameHandler3@@SA?AU?$pair@Viterator@TryBlockMap@__FrameHandler3@@V123@@std@@AEAVTryBlockMap@1@HPEAU_xDISPATCHER_CONTEXT@@PEBU_s_FuncInfo@@H@Z 00000001800152e0 f   libvcruntime:risctrnsctrl.obj
 0001:00014420       ?GetRangeOfTrysToCheck@__FrameHandler4@@SA?AU?$pair@Viterator@TryBlockMap4@FH4@@V123@@std@@AEAVTryBlockMap4@FH4@@HPEAU_xDISPATCHER_CONTEXT@@PEAUFuncInfo4@5@H@Z 0000000180015420 f   libvcruntime:risctrnsctrl.obj
 0001:0001458c       ?UnwindNestedFrames@__FrameHandler3@@SAXPEA_KPEAUEHExceptionRecord@@PEAU_CONTEXT@@0PEAXPEBU_s_FuncInfo@@HHPEBU_s_HandlerType@@PEAU_xDISPATCHER_CONTEXT@@E@Z 000000018001558c f   libvcruntime:risctrnsctrl.obj
 0001:00014690       ?UnwindNestedFrames@__FrameHandler4@@SAXPEA_KPEAUEHExceptionRecord@@PEAU_CONTEXT@@0PEAXPEAUFuncInfo4@FH4@@HHPEAUHandlerType4@5@PEAU_xDISPATCHER_CONTEXT@@E@Z 0000000180015690 f   libvcruntime:risctrnsctrl.obj
 0001:000147b0       ?setBuffer@TryBlockMap4@FH4@@QEAAXViterator@12@@Z 00000001800157b0 f i libvcruntime:risctrnsctrl.obj
 0001:00014974       _CreateFrameInfo           0000000180015974 f   libvcruntime:risctrnsctrl.obj
 0001:000149b0       _FindAndUnlinkFrame        00000001800159b0 f   libvcruntime:risctrnsctrl.obj
 0001:00014a04       _GetImageBase              0000000180015a04 f   libvcruntime:risctrnsctrl.obj
 0001:00014a18       _GetThrowImageBase         0000000180015a18 f   libvcruntime:risctrnsctrl.obj
 0001:00014a2c       _SetImageBase              0000000180015a2c f   libvcruntime:risctrnsctrl.obj
 0001:00014a44       _SetThrowImageBase         0000000180015a44 f   libvcruntime:risctrnsctrl.obj
 0001:00014a5c       __CxxFrameHandler3         0000000180015a5c f   libvcruntime:risctrnsctrl.obj
 0001:00014ae4       __CxxFrameHandler4         0000000180015ae4 f   libvcruntime:risctrnsctrl.obj
 0001:00014ba4       __DestructExceptionObject  0000000180015ba4 f   libvcruntime:ehhelpers.obj
 0001:00014c14       ?_CallMemberFunction0@@YAXQEAX0@Z 0000000180015c14 f i libvcruntime:ehhelpers.obj
 0001:00014c18       _IsExceptionObjectToBeDestroyed 0000000180015c18 f   libvcruntime:ehhelpers.obj
 0001:00014c48       __AdjustPointer            0000000180015c48 f   libvcruntime:ehhelpers.obj
 0001:00014c6c       __FrameUnwindFilter        0000000180015c6c f   libvcruntime:ehhelpers.obj
 0001:00014cd4       __std_terminate            0000000180015cd4 f   libvcruntime:ehhelpers.obj
 0001:00014ce0       __std_type_info_compare    0000000180015ce0 f   libvcruntime:std_type_info.obj
 0001:00014d08       __std_type_info_destroy_list 0000000180015d08 f   libvcruntime:std_type_info.obj
 0001:00014d34       __std_exception_copy       0000000180015d34 f   libvcruntime:std_exception.obj
 0001:00014dc4       __std_exception_destroy    0000000180015dc4 f   libvcruntime:std_exception.obj
 0001:00014dec       _CxxThrowException         0000000180015dec f   libvcruntime:throw.obj
 0001:00014e8c       __vcrt_freefls             0000000180015e8c f   libvcruntime:per_thread_data.obj
 0001:00014eac       __vcrt_freeptd             0000000180015eac f   libvcruntime:per_thread_data.obj
 0001:00014efc       __vcrt_getptd              0000000180015efc f   libvcruntime:per_thread_data.obj
 0001:00014f18       __vcrt_getptd_noexit       0000000180015f18 f   libvcruntime:per_thread_data.obj
 0001:00014fd8       __vcrt_initialize_ptd      0000000180015fd8 f   libvcruntime:per_thread_data.obj
 0001:00015020       __vcrt_uninitialize_ptd    0000000180016020 f   libvcruntime:per_thread_data.obj
 0001:00015044       __vcrt_initialize_locks    0000000180016044 f   libvcruntime:locks.obj
 0001:0001508c       __vcrt_uninitialize_locks  000000018001608c f   libvcruntime:locks.obj
 0001:000150e0       _NLG_Notify                00000001800160e0 f   libvcruntime:notify.obj
 0001:00015100       __NLG_Dispatch2            0000000180016100 f   libvcruntime:notify.obj
 0001:00015110       __NLG_Return2              0000000180016110 f   libvcruntime:notify.obj
 0001:00015114       __except_validate_context_record 0000000180016114 f   libvcruntime:jbcxrval.obj
 0001:0001514c       ?GetCurrentState@__FrameHandler3@@SAHPEA_KPEAU_xDISPATCHER_CONTEXT@@PEBU_s_FuncInfo@@@Z 000000018001614c f   libvcruntime:ehstate.obj
 0001:00015174       ?GetUnwindTryBlock@__FrameHandler3@@SAHPEA_KPEAU_xDISPATCHER_CONTEXT@@PEBU_s_FuncInfo@@@Z 0000000180016174 f   libvcruntime:ehstate.obj
 0001:000151a0       ?SetState@__FrameHandler3@@SAXPEA_KPEBU_s_FuncInfo@@H@Z 00000001800161a0 f   libvcruntime:ehstate.obj
 0001:000151ac       ?SetUnwindTryBlock@__FrameHandler3@@SAXPEA_KPEAU_xDISPATCHER_CONTEXT@@PEBU_s_FuncInfo@@H@Z 00000001800161ac f   libvcruntime:ehstate.obj
 0001:000151e8       ?StateFromControlPc@__FrameHandler3@@SAHPEBU_s_FuncInfo@@PEAU_xDISPATCHER_CONTEXT@@@Z 00000001800161e8 f   libvcruntime:ehstate.obj
 0001:000151f0       ?StateFromControlPc@__FrameHandler4@@SAHPEAUFuncInfo4@FH4@@PEAU_xDISPATCHER_CONTEXT@@@Z 00000001800161f0 f   libvcruntime:ehstate.obj
 0001:000151f8       ?StateFromIp@__FrameHandler3@@SAHPEBU_s_FuncInfo@@PEAU_xDISPATCHER_CONTEXT@@_K@Z 00000001800161f8 f   libvcruntime:ehstate.obj
 0001:00015260       ?StateFromIp@__FrameHandler4@@SAHPEAUFuncInfo4@FH4@@PEAU_xDISPATCHER_CONTEXT@@_K@Z 0000000180016260 f   libvcruntime:ehstate.obj
 0001:00016960       ??$TypeMatchHelper@V__FrameHandler3@@@@YAHPEBU_s_HandlerType@@PEBU_s_CatchableType@@PEBU_s_ThrowInfo@@@Z 0000000180017960 f i libvcruntime:frame.obj
 0001:00016aa0       ??$TypeMatchHelper@V__FrameHandler4@@@@YAHPEAUHandlerType4@FH4@@PEBU_s_CatchableType@@PEBU_s_ThrowInfo@@@Z 0000000180017aa0 f i libvcruntime:frame.obj
 0001:00016be4       ??$__InternalCxxFrameHandler@V__FrameHandler3@@@@YA?AW4_EXCEPTION_DISPOSITION@@PEAUEHExceptionRecord@@PEA_KPEAU_CONTEXT@@PEAU_xDISPATCHER_CONTEXT@@PEBU_s_FuncInfo@@H1E@Z 0000000180017be4 f i libvcruntime:frame.obj
 0001:00016e1c       ??$__InternalCxxFrameHandler@V__FrameHandler4@@@@YA?AW4_EXCEPTION_DISPOSITION@@PEAUEHExceptionRecord@@PEA_KPEAU_CONTEXT@@PEAU_xDISPATCHER_CONTEXT@@PEAUFuncInfo4@FH4@@H1E@Z 0000000180017e1c f i libvcruntime:frame.obj
 0001:000170b0       ??0HandlerMap4@FH4@@QEAA@PEBUTryBlockMapEntry4@1@_KH@Z 00000001800180b0 f i libvcruntime:frame.obj
 0001:0001712c       ??0TryBlockMap4@FH4@@QEAA@PEBUFuncInfo4@1@_K@Z 000000018001812c f i libvcruntime:frame.obj
 0001:00017204       ??0bad_exception@std@@QEAA@AEBV01@@Z 0000000180018204 f i libvcruntime:frame.obj
 0001:00017240       ??0bad_exception@std@@QEAA@XZ 0000000180018240 f i libvcruntime:frame.obj
 0001:00017260       ?CxxCallCatchBlock@__FrameHandler3@@SAPEAXPEAU_EXCEPTION_RECORD@@@Z 0000000180018260 f   libvcruntime:frame.obj
 0001:0001744c       ?CxxCallCatchBlock@__FrameHandler4@@SAPEAXPEAU_EXCEPTION_RECORD@@@Z 000000018001844c f   libvcruntime:frame.obj
 0001:0001769c       ?DecompHandler@HandlerMap4@FH4@@AEAAXXZ 000000018001869c f i libvcruntime:frame.obj
 0001:000178e8       ?FrameUnwindToState@__FrameHandler3@@SAXPEA_KPEAU_xDISPATCHER_CONTEXT@@PEBU_s_FuncInfo@@H@Z 00000001800188e8 f   libvcruntime:frame.obj
 0001:00017a74       ?FrameUnwindToState@__FrameHandler4@@SAXPEA_KPEAU_xDISPATCHER_CONTEXT@@PEAUFuncInfo4@FH4@@H@Z 0000000180018a74 f   libvcruntime:frame.obj
 0001:00017d70       ?GetHandlerSearchState@__FrameHandler3@@SAHPEA_KPEAU_xDISPATCHER_CONTEXT@@PEBU_s_FuncInfo@@@Z 0000000180018d70 f i libvcruntime:frame.obj
 0001:00017f80       ?ReadEntry@UWMap4@FH4@@AEAAXPEAPEAE@Z 0000000180018f80 f i libvcruntime:frame.obj
 0001:0001801c       ?_CallMemberFunction1@@YAXQEAX00@Z 000000018001901c f i libvcruntime:frame.obj
 0001:00018028       ?_CallMemberFunction2@@YAXQEAX00H@Z 0000000180019028 f i libvcruntime:frame.obj
 0001:00018038       ?getStartStop@UWMap4@FH4@@QEAAXHHAEAViterator@12@0@Z 0000000180019038 f i libvcruntime:frame.obj
 0001:00018108       ?getStateFromIterators@UWMap4@FH4@@SAHAEBViterator@12@H0H0@Z 0000000180019108 f i libvcruntime:frame.obj
 0001:00018324       __vcrt_FlsAlloc            0000000180019324 f   libvcruntime:winapi_downlevel.obj
 0001:0001836c       __vcrt_FlsFree             000000018001936c f   libvcruntime:winapi_downlevel.obj
 0001:000183b4       __vcrt_FlsGetValue         00000001800193b4 f   libvcruntime:winapi_downlevel.obj
 0001:000183fc       __vcrt_FlsSetValue         00000001800193fc f   libvcruntime:winapi_downlevel.obj
 0001:00018450       __vcrt_InitializeCriticalSectionEx 0000000180019450 f   libvcruntime:winapi_downlevel.obj
 0001:000184d0       _CallSettingFrame          00000001800194d0 f   libvcruntime:handlers.obj
 0001:00018520       _CallSettingFrame_LookupContinuationIndex 0000000180019520 f   libvcruntime:handlers.obj
 0001:00018550       _CallSettingFrame_NotifyContinuationAddr 0000000180019550 f   libvcruntime:handlers.obj
 0001:00018580       _CallSettingFrameEncoded   0000000180019580 f   libvcruntime:handlers.obj
 0001:000185c8       free                       00000001800195c8 f   libucrt:free.obj
 0001:000185dc       ?get_raw_ptd@__crt_cached_ptd_host@@QEAAPEAU__acrt_ptd@@XZ 00000001800195dc f i libucrt:invalid_parameter.obj
 0001:00018644       ?get_raw_ptd_noexit@__crt_cached_ptd_host@@QEAAPEAU__acrt_ptd@@XZ 0000000180019644 f i libucrt:invalid_parameter.obj
 0001:000186b0       ?value@?$dual_state_global@P6AXPEB_W00I_K@Z@__crt_state_management@@QEAAAEAP6AXPEB_W00I_K@ZAEAV__crt_cached_ptd_host@@@Z 00000001800196b0 f i libucrt:invalid_parameter.obj
 0001:000186fc       __acrt_call_reportfault    00000001800196fc f   libucrt:invalid_parameter.obj
 0001:00018858       __acrt_initialize_invalid_parameter_handler 0000000180019858 f   libucrt:invalid_parameter.obj
 0001:00018860       _invalid_parameter         0000000180019860 f   libucrt:invalid_parameter.obj
 0001:000188fc       _invalid_parameter_internal 00000001800198fc f   libucrt:invalid_parameter.obj
 0001:000189cc       _invalid_parameter_noinfo  00000001800199cc f   libucrt:invalid_parameter.obj
 0001:000189ec       _invoke_watson             00000001800199ec f   libucrt:invalid_parameter.obj
 0001:00018a34       __acrt_errno_from_os_error 0000000180019a34 f   libucrt:errno.obj
 0001:00018a7c       __acrt_errno_map_os_error  0000000180019a7c f   libucrt:errno.obj
 0001:00018ac4       __acrt_errno_map_os_error_ptd 0000000180019ac4 f   libucrt:errno.obj
 0001:00018ae8       __doserrno                 0000000180019ae8 f   libucrt:errno.obj
 0001:00018b08       _errno                     0000000180019b08 f   libucrt:errno.obj
 0001:00018b28       calloc                     0000000180019b28 f   libucrt:calloc.obj
 0001:00018b30       malloc                     0000000180019b30 f   libucrt:malloc.obj
 0001:00018b38       _recalloc                  0000000180019b38 f   libucrt:recalloc.obj
 0001:00018b40       _recalloc_base             0000000180019b40 f   libucrt:recalloc.obj
 0001:00018bd8       _resetstkoflw              0000000180019bd8 f   libucrt:resetstk.obj
 0001:00018d04       wcscat_s                   0000000180019d04 f   libucrt:wcscat_s.obj
 0001:00018d88       wcscpy_s                   0000000180019d88 f   libucrt:wcscpy_s.obj
 0001:00018df0       wcsncpy_s                  0000000180019df0 f   libucrt:wcsncpy_s.obj
 0001:000190a4       ??$ensure_buffer_is_big_enough@D@formatting_buffer@__crt_stdio_output@@QEAA_N_KAEAV__crt_cached_ptd_host@@@Z 000000018001a0a4 f i libucrt:output.obj
 0001:0001914c       ??$ensure_buffer_is_big_enough@_W@formatting_buffer@__crt_stdio_output@@QEAA_N_KAEAV__crt_cached_ptd_host@@@Z 000000018001a14c f i libucrt:output.obj
 0001:000191f8       ??$is_wide_character_specifier@_W@__crt_stdio_output@@YA_N_K_WW4length_modifier@0@@Z 000000018001a1f8 f i libucrt:output.obj
 0001:00019238       ??$parse_integer@KV?$c_string_character_source@_W@__crt_strtox@@$0A@@__crt_strtox@@YAKAEAV__crt_cached_ptd_host@@V?$c_string_character_source@_W@0@H_N@Z 000000018001a238 f i libucrt:output.obj
 0001:00019990       ??$type_case_integer@$07@?$output_processor@_WV?$string_output_adapter@_W@__crt_stdio_output@@V?$format_validation_base@_WV?$string_output_adapter@_W@__crt_stdio_output@@@2@@__crt_stdio_output@@AEAA_N_N@Z 000000018001a990 f i libucrt:output.obj
 0001:00019b7c       ??$type_case_integer@$09@?$output_processor@_WV?$string_output_adapter@_W@__crt_stdio_output@@V?$format_validation_base@_WV?$string_output_adapter@_W@__crt_stdio_output@@@2@@__crt_stdio_output@@AEAA_N_N@Z 000000018001ab7c f i libucrt:output.obj
 0001:00019d68       ??$type_case_integer@$0BA@@?$output_processor@_WV?$string_output_adapter@_W@__crt_stdio_output@@V?$format_validation_base@_WV?$string_output_adapter@_W@__crt_stdio_output@@@2@@__crt_stdio_output@@AEAA_N_N@Z 000000018001ad68 f i libucrt:output.obj
 0001:00019f54       ??$type_case_integer_parse_into_buffer@I$07@?$output_processor@_WV?$string_output_adapter@_W@__crt_stdio_output@@V?$format_validation_base@_WV?$string_output_adapter@_W@__crt_stdio_output@@@2@@__crt_stdio_output@@AEAAXI_N@Z 000000018001af54 f i libucrt:output.obj
 0001:00019fdc       ??$type_case_integer_parse_into_buffer@I$09@?$output_processor@_WV?$string_output_adapter@_W@__crt_stdio_output@@V?$format_validation_base@_WV?$string_output_adapter@_W@__crt_stdio_output@@@2@@__crt_stdio_output@@AEAAXI_N@Z 000000018001afdc f i libucrt:output.obj
 0001:0001a094       ??$type_case_integer_parse_into_buffer@I$0BA@@?$output_processor@_WV?$string_output_adapter@_W@__crt_stdio_output@@V?$format_validation_base@_WV?$string_output_adapter@_W@__crt_stdio_output@@@2@@__crt_stdio_output@@AEAAXI_N@Z 000000018001b094 f i libucrt:output.obj
 0001:0001a138       ??$type_case_integer_parse_into_buffer@_K$07@?$output_processor@_WV?$string_output_adapter@_W@__crt_stdio_output@@V?$format_validation_base@_WV?$string_output_adapter@_W@__crt_stdio_output@@@2@@__crt_stdio_output@@AEAAX_K_N@Z 000000018001b138 f i libucrt:output.obj
 0001:0001a1c0       ??$type_case_integer_parse_into_buffer@_K$09@?$output_processor@_WV?$string_output_adapter@_W@__crt_stdio_output@@V?$format_validation_base@_WV?$string_output_adapter@_W@__crt_stdio_output@@@2@@__crt_stdio_output@@AEAAX_K_N@Z 000000018001b1c0 f i libucrt:output.obj
 0001:0001a280       ??$type_case_integer_parse_into_buffer@_K$0BA@@?$output_processor@_WV?$string_output_adapter@_W@__crt_stdio_output@@V?$format_validation_base@_WV?$string_output_adapter@_W@__crt_stdio_output@@@2@@__crt_stdio_output@@AEAAX_K_N@Z 000000018001b280 f i libucrt:output.obj
 0001:0001a324       ?crop_zeroes@__crt_stdio_output@@YAXPEADQEAU__crt_locale_pointers@@@Z 000000018001b324 f i libucrt:output.obj
 0001:0001a390       ?parse_int_from_format_string@?$output_processor@_WV?$string_output_adapter@_W@__crt_stdio_output@@V?$format_validation_base@_WV?$string_output_adapter@_W@__crt_stdio_output@@@2@@__crt_stdio_output@@AEAA_NQEAH@Z 000000018001b390 f i libucrt:output.obj
 0001:0001a420       ?process@?$output_processor@_WV?$string_output_adapter@_W@__crt_stdio_output@@V?$format_validation_base@_WV?$string_output_adapter@_W@__crt_stdio_output@@@2@@__crt_stdio_output@@QEAAHXZ 000000018001b420 f i libucrt:output.obj
 0001:0001a6fc       ?state_case_size@?$output_processor@_WV?$string_output_adapter@_W@__crt_stdio_output@@V?$format_validation_base@_WV?$string_output_adapter@_W@__crt_stdio_output@@@2@@__crt_stdio_output@@AEAA_NXZ 000000018001b6fc f i libucrt:output.obj
 0001:0001a8a8       ?state_case_type@?$output_processor@_WV?$string_output_adapter@_W@__crt_stdio_output@@V?$format_validation_base@_WV?$string_output_adapter@_W@__crt_stdio_output@@@2@@__crt_stdio_output@@AEAA_NXZ 000000018001b8a8 f i libucrt:output.obj
 0001:0001ad04       ?type_case_Z@?$output_processor@_WV?$string_output_adapter@_W@__crt_stdio_output@@V?$format_validation_base@_WV?$string_output_adapter@_W@__crt_stdio_output@@@2@@__crt_stdio_output@@AEAA_NXZ 000000018001bd04 f i libucrt:output.obj
 0001:0001ad80       ?type_case_a@?$output_processor@_WV?$string_output_adapter@_W@__crt_stdio_output@@V?$format_validation_base@_WV?$string_output_adapter@_W@__crt_stdio_output@@@2@@__crt_stdio_output@@AEAA_NXZ 000000018001bd80 f i libucrt:output.obj
 0001:0001afe0       ?type_case_c_tchar@?$output_processor@_WV?$string_output_adapter@_W@__crt_stdio_output@@V?$format_validation_base@_WV?$string_output_adapter@_W@__crt_stdio_output@@@2@@__crt_stdio_output@@AEAA_N_W@Z 000000018001bfe0 f i libucrt:output.obj
 0001:0001b0a4       ?type_case_n@?$output_processor@_WV?$string_output_adapter@_W@__crt_stdio_output@@V?$format_validation_base@_WV?$string_output_adapter@_W@__crt_stdio_output@@@2@@__crt_stdio_output@@AEAA_NXZ 000000018001c0a4 f i libucrt:output.obj
 0001:0001b158       ?type_case_s@?$output_processor@_WV?$string_output_adapter@_W@__crt_stdio_output@@V?$format_validation_base@_WV?$string_output_adapter@_W@__crt_stdio_output@@@2@@__crt_stdio_output@@AEAA_NXZ 000000018001c158 f i libucrt:output.obj
 0001:0001b1f0       ?type_case_s_compute_narrow_string_length@?$output_processor@_WV?$string_output_adapter@_W@__crt_stdio_output@@V?$format_validation_base@_WV?$string_output_adapter@_W@__crt_stdio_output@@@2@@__crt_stdio_output@@AEAAHH_W@Z 000000018001c1f0 f i libucrt:output.obj
 0001:0001b270       ?update_locale_slow@__crt_cached_ptd_host@@AEAAXXZ 000000018001c270 f i libucrt:output.obj
 0001:0001b2e8       ?write_string@?$string_output_adapter@_W@__crt_stdio_output@@QEBAXQEB_WHQEAHAEAV__crt_cached_ptd_host@@@Z 000000018001c2e8 f i libucrt:output.obj
 0001:0001b390       __stdio_common_vswprintf_s 000000018001c390 f   libucrt:output.obj
 0001:0001b4a4       _seh_filter_dll            000000018001c4a4 f   libucrt:exception_filter.obj
 0001:0001b4b8       _seh_filter_exe            000000018001c4b8 f   libucrt:exception_filter.obj
 0001:0001b8dc       __acrt_initialize_thread_local_exit_callback 000000018001c8dc f   libucrt:exit.obj
 0001:0001b8e4       _cexit                     000000018001c8e4 f   libucrt:exit.obj
 0001:0001b8f4       _exit                      000000018001c8f4 f   libucrt:exit.obj
 0001:0001b900       _is_c_termination_complete 000000018001c900 f   libucrt:exit.obj
 0001:0001bac8       __acrt_allocate_buffer_for_argv 000000018001cac8 f   libucrt:argv_parsing.obj
 0001:0001bb28       _configure_narrow_argv     000000018001cb28 f   libucrt:argv_parsing.obj
 0001:0001beb0       __dcrt_uninitialize_environments_nolock 000000018001ceb0 f   libucrt:environment_initialization.obj
 0001:0001bef4       _initialize_narrow_environment 000000018001cef4 f   libucrt:environment_initialization.obj
 0001:0001c244       _crt_atexit                000000018001d244 f   libucrt:onexit.obj
 0001:0001c254       _execute_onexit_table      000000018001d254 f   libucrt:onexit.obj
 0001:0001c298       _initialize_onexit_table   000000018001d298 f   libucrt:onexit.obj
 0001:0001c2c0       _register_onexit_function  000000018001d2c0 f   libucrt:onexit.obj
 0001:0001c340       __acrt_uninitialize_command_line 000000018001d340 f   libucrt:argv_data.obj
 0001:0001c438       __acrt_initialize          000000018001d438 f   libucrt:initialization.obj
 0001:0001c44c       __acrt_thread_attach       000000018001d44c f   libucrt:initialization.obj
 0001:0001c460       __acrt_thread_detach       000000018001d460 f   libucrt:initialization.obj
 0001:0001c470       __acrt_uninitialize        000000018001d470 f   libucrt:initialization.obj
 0001:0001c4a8       __acrt_uninitialize_critical 000000018001d4a8 f   libucrt:initialization.obj
 0001:0001c4b8       _initterm                  000000018001d4b8 f   libucrt:initterm.obj
 0001:0001c4fc       _initterm_e                000000018001d4fc f   libucrt:initterm.obj
 0001:0001c544       __acrt_initialize_new_handler 000000018001d544 f   libucrt:new_handler.obj
 0001:0001c54c       _callnewh                  000000018001d54c f   libucrt:new_handler.obj
 0001:0001c588       _query_new_handler         000000018001d588 f   libucrt:new_handler.obj
 0001:0001c5bc       terminate                  000000018001d5bc f   libucrt:terminate.obj
 0001:0001c5e8       abort                      000000018001d5e8 f   libucrt:abort.obj
 0001:0001c640       strcpy_s                   000000018001d640 f   libucrt:strcpy_s.obj
 0001:0001c6b0       strncmp                    000000018001d6b0 f   libucrt:strncmp.obj
 0001:0001c730       wcsncmp                    000000018001d730 f   libucrt:wcsncmp.obj
 0001:0001c75c       _free_base                 000000018001d75c f   libucrt:free_base.obj
 0001:0001cb10       __acrt_freeptd             000000018001db10 f   libucrt:per_thread_data.obj
 0001:0001cb54       __acrt_getptd              000000018001db54 f   libucrt:per_thread_data.obj
 0001:0001cc28       __acrt_getptd_head         000000018001dc28 f   libucrt:per_thread_data.obj
 0001:0001cccc       __acrt_getptd_noexit       000000018001dccc f   libucrt:per_thread_data.obj
 0001:0001cd94       __acrt_getptd_noexit_explicit 000000018001dd94 f   libucrt:per_thread_data.obj
 0001:0001ce54       __acrt_initialize_ptd      000000018001de54 f   libucrt:per_thread_data.obj
 0001:0001ce90       __acrt_uninitialize_ptd    000000018001de90 f   libucrt:per_thread_data.obj
 0001:0001cf24       __acrt_set_locale_changed  000000018001df24 f   libucrt:wsetlocale.obj
 0001:0001cf30       __acrt_uninitialize_locale 000000018001df30 f   libucrt:wsetlocale.obj
 0001:0001cf60       _calloc_base               000000018001df60 f   libucrt:calloc_base.obj
 0001:0001cfd8       _malloc_base               000000018001dfd8 f   libucrt:malloc_base.obj
 0001:0001d038       _msize_base                000000018001e038 f   libucrt:msize.obj
 0001:0001d074       _realloc_base              000000018001e074 f   libucrt:realloc_base.obj
 0001:0001d2b0       __acrt_AppPolicyGetProcessTerminationMethodInternal 000000018001e2b0 f   libucrt:winapi_thunks.obj
 0001:0001d308       __acrt_AreFileApisANSI     000000018001e308 f   libucrt:winapi_thunks.obj
 0001:0001d34c       __acrt_FlsAlloc            000000018001e34c f   libucrt:winapi_thunks.obj
 0001:0001d354       __acrt_FlsFree             000000018001e354 f   libucrt:winapi_thunks.obj
 0001:0001d35c       __acrt_FlsGetValue         000000018001e35c f   libucrt:winapi_thunks.obj
 0001:0001d364       __acrt_FlsSetValue         000000018001e364 f   libucrt:winapi_thunks.obj
 0001:0001d36c       __acrt_InitializeCriticalSectionEx 000000018001e36c f   libucrt:winapi_thunks.obj
 0001:0001d3dc       __acrt_LCMapStringEx       000000018001e3dc f   libucrt:winapi_thunks.obj
 0001:0001d4c8       __acrt_LocaleNameToLCID    000000018001e4c8 f   libucrt:winapi_thunks.obj
 0001:0001d528       __acrt_SetThreadStackGuarantee 000000018001e528 f   libucrt:winapi_thunks.obj
 0001:0001d574       __acrt_initialize_winapi_thunks 000000018001e574 f   libucrt:winapi_thunks.obj
 0001:0001d598       __acrt_uninitialize_winapi_thunks 000000018001e598 f   libucrt:winapi_thunks.obj
 0001:0001d5dc       wcsnlen                    000000018001e5dc f   libucrt:strnlen.obj
 0001:0001d7b4       __acrt_update_locale_info  000000018001e7b4 f   libucrt:locale_update.obj
 0001:0001d7e8       __acrt_update_locale_info_explicit 000000018001e7e8 f   libucrt:locale_update.obj
 0001:0001d820       __acrt_update_multibyte_info 000000018001e820 f   libucrt:locale_update.obj
 0001:0001d854       __acrt_update_multibyte_info_explicit 000000018001e854 f   libucrt:locale_update.obj
 0001:0001e3bc       __acrt_fp_format           000000018001f3bc f   libucrt:cvt.obj
 0001:0001e6a4       _mbtowc_internal           000000018001f6a4 f   libucrt:mbtowc.obj
 0001:0001e81c       _fileno                    000000018001f81c f   libucrt:fileno.obj
 0001:0001e844       __acrt_initialize_stdio    000000018001f844 f   libucrt:_file.obj
 0001:0001e964       __acrt_uninitialize_stdio  000000018001f964 f   libucrt:_file.obj
 0001:0001e9c0       _lock_file                 000000018001f9c0 f   libucrt:_file.obj
 0001:0001e9cc       _unlock_file               000000018001f9cc f   libucrt:_file.obj
 0001:0001e9d8       _get_printf_count_output   000000018001f9d8 f   libucrt:printf_count_output.obj
 0001:0001ebe8       __acrt_initialize_lowio    000000018001fbe8 f   libucrt:ioinit.obj
 0001:0001ec24       __acrt_uninitialize_lowio  000000018001fc24 f   libucrt:ioinit.obj
 0001:0001ec64       __acrt_initialize_locks    000000018001fc64 f   libucrt:locks.obj
 0001:0001ecac       __acrt_lock                000000018001fcac f   libucrt:locks.obj
 0001:0001ecc8       __acrt_uninitialize_locks  000000018001fcc8 f   libucrt:locks.obj
 0001:0001ed00       __acrt_unlock              000000018001fd00 f   libucrt:locks.obj
 0001:0001ed1c       __acrt_get_process_end_policy 000000018001fd1c f   libucrt:win_policies.obj
 0001:0001ed6c       ??$__acrt_convert_wcs_mbs_cp@D_WV<lambda_7c9dea7b4ca7285d2cdb541a38da6275>@@U__crt_win32_buffer_internal_dynamic_resizing@@@@YAHQEBDAEAV?$__crt_win32_buffer@_WU__crt_win32_buffer_internal_dynamic_resizing@@@@AEBV<lambda_7c9dea7b4ca7285d2cdb541a38da6275>@@I@Z 000000018001fd6c f i libucrt:argv_wildcards.obj
 0001:0001eee8       ??$__acrt_convert_wcs_mbs_cp@_WDV<lambda_d8593a27d1aa8c02be35c86a17d324c4>@@U__crt_win32_buffer_internal_dynamic_resizing@@@@YAHQEB_WAEAV?$__crt_win32_buffer@DU__crt_win32_buffer_internal_dynamic_resizing@@@@AEBV<lambda_d8593a27d1aa8c02be35c86a17d324c4>@@I@Z 000000018001fee8 f i libucrt:argv_wildcards.obj
 0001:0001f790       ??0_LocaleUpdate@@QEAA@QEAU__crt_locale_pointers@@@Z 0000000180020790 f i libucrt:argv_wildcards.obj
 0001:0001f82c       __acrt_expand_narrow_argv_wildcards 000000018002082c f   libucrt:argv_wildcards.obj
 0001:0001f834       ??$__acrt_convert_wcs_mbs_cp@_WDV<lambda_f788ae46380686e8b737efdd8c720d07>@@U__crt_win32_buffer_no_resizing@@@@YAHQEB_WAEAV?$__crt_win32_buffer@DU__crt_win32_buffer_no_resizing@@@@AEBV<lambda_f788ae46380686e8b737efdd8c720d07>@@I@Z 0000000180020834 f i libucrt:getmodulefilenamea.obj
 0001:0001f950       __acrt_GetModuleFileNameA  0000000180020950 f   libucrt:getmodulefilenamea.obj
 0001:0002026c       __acrt_initialize_multibyte 000000018002126c f   libucrt:mbctype.obj
 0001:000202cc       __acrt_update_thread_multibyte_data 00000001800212cc f   libucrt:mbctype.obj
 0001:000202e8       _setmbcp_nolock            00000001800212e8 f   libucrt:mbctype.obj
 0001:0002061c       _ismbblead                 000000018002161c f   libucrt:ismbbyte.obj
 0001:00020630       __acrt_initialize_command_line 0000000180021630 f   libucrt:argv_data.obj
 0001:00020658       __acrt_MultiByteToWideChar 0000000180021658 f   libucrt:multibytetowidechar.obj
 0001:000206b4       __acrt_WideCharToMultiByte 00000001800216b4 f   libucrt:widechartomultibyte.obj
 0001:00020764       __dcrt_get_narrow_environment_from_os 0000000180021764 f   libucrt:get_environment_from_os.obj
 0001:00020874       __acrt_initialize_heap     0000000180021874 f   libucrt:heap_handle.obj
 0001:00020890       __acrt_uninitialize_heap   0000000180021890 f   libucrt:heap_handle.obj
 0001:0002089c       __acrt_execute_initializers 000000018002189c f   libucrt:shared_initialization.obj
 0001:00020930       __acrt_execute_uninitializers 0000000180021930 f   libucrt:shared_initialization.obj
 0001:000209c0       __acrt_get_sigabrt_handler 00000001800219c0 f   libucrt:signal.obj
 0001:000209f0       __acrt_initialize_signal_handlers 00000001800219f0 f   libucrt:signal.obj
 0001:00020a10       raise                      0000000180021a10 f   libucrt:signal.obj
 0001:00020c90       __acrt_has_user_matherr    0000000180021c90 f   libucrt:matherr.obj
 0001:00020cb0       __acrt_initialize_user_matherr 0000000180021cb0 f   libucrt:matherr.obj
 0001:00020cb8       __acrt_invoke_user_matherr 0000000180021cb8 f   libucrt:matherr.obj
 0001:00020ecc       __acrt_stdio_flush_nolock  0000000180021ecc f   libucrt:fflush.obj
 0001:00020f58       _fflush_nolock             0000000180021f58 f   libucrt:fflush.obj
 0001:0002102c       _flushall                  000000018002202c f   libucrt:fflush.obj
 0001:00021034       __acrt_add_locale_ref      0000000180022034 f   libucrt:locale_refcounting.obj
 0001:000210c0       __acrt_free_locale         00000001800220c0 f   libucrt:locale_refcounting.obj
 0001:00021238       __acrt_locale_add_lc_time_reference 0000000180022238 f   libucrt:locale_refcounting.obj
 0001:00021260       __acrt_locale_free_lc_time_if_unreferenced 0000000180022260 f   libucrt:locale_refcounting.obj
 0001:00021298       __acrt_locale_release_lc_time_reference 0000000180022298 f   libucrt:locale_refcounting.obj
 0001:000212c0       __acrt_release_locale_ref  00000001800222c0 f   libucrt:locale_refcounting.obj
 0001:00021368       __acrt_update_thread_locale_data 0000000180022368 f   libucrt:locale_refcounting.obj
 0001:000213d8       _updatetlocinfoEx_nolock   00000001800223d8 f   libucrt:locale_refcounting.obj
 0001:00021440       __acrt_locale_free_monetary 0000000180022440 f   libucrt:initmon.obj
 0001:0002154c       __acrt_locale_free_numeric 000000018002254c f   libucrt:initnum.obj
 0001:000215ec       __acrt_locale_free_time    00000001800225ec f   libucrt:inittime.obj
 0001:000216f4       __acrt_GetStringTypeA      00000001800226f4 f   libucrt:getstringtypea.obj
 0001:00021890       _query_new_mode            0000000180022890 f   libucrt:new_mode.obj
 0001:00021898       __acrt_DownlevelLocaleNameToLCID 0000000180022898 f   libucrt:lcidtoname_downlevel.obj
 0001:00021940       __acrt_fp_strflt_to_string 0000000180022940 f   libucrt:_fptostr.obj
 0001:00021ad0       ?divide@__crt_strtox@@YA_KAEAUbig_integer@1@AEBU21@@Z 0000000180022ad0 f i libucrt:cfout.obj
 0001:00021f5c       __acrt_fltout              0000000180022f5c f   libucrt:cfout.obj
 0001:00023224       fegetround                 0000000180024224 f   libucrt:fegetround.obj
 0001:00023238       ?__mbrtowc_utf8@__crt_mbstring@@YA_KPEA_WPEBD_KPEAU_Mbstatet@@AEAV__crt_cached_ptd_host@@@Z 0000000180024238 f   libucrt:mbrtowc.obj
 0001:0002327c       ?__mbsrtowcs_utf8@__crt_mbstring@@YA_KPEA_WPEAPEBD_KPEAU_Mbstatet@@AEAV__crt_cached_ptd_host@@@Z 000000018002427c f   libucrt:mbrtowc.obj
 0001:00023420       _fcloseall                 0000000180024420 f   libucrt:closeall.obj
 0001:000234d4       __acrt_stdio_free_buffer_nolock 00000001800244d4 f   libucrt:_freebuf.obj
 0001:00023514       _isatty                    0000000180024514 f   libucrt:isatty.obj
 0001:00023574       __acrt_lowio_create_handle_array 0000000180024574 f   libucrt:osfinfo.obj
 0001:0002361c       __acrt_lowio_destroy_handle_array 000000018002461c f   libucrt:osfinfo.obj
 0001:0002366c       __acrt_lowio_ensure_fh_exists 000000018002466c f   libucrt:osfinfo.obj
 0001:00023714       __acrt_lowio_lock_fh       0000000180024714 f   libucrt:osfinfo.obj
 0001:0002373c       __acrt_lowio_unlock_fh     000000018002473c f   libucrt:osfinfo.obj
 0001:00023764       _free_osfhnd               0000000180024764 f   libucrt:osfinfo.obj
 0001:00023820       _get_osfhandle             0000000180024820 f   libucrt:osfinfo.obj
 0001:000238a0       qsort                      00000001800248a0 f   libucrt:qsort.obj
 0001:00023cb0       strncpy_s                  0000000180024cb0 f   libucrt:strncpy_s.obj
 0001:00023e40       strpbrk                    0000000180024e40 f   libucrt:strpbrk.obj
 0001:00024208       _mbsdec                    0000000180025208 f   libucrt:mbsdec.obj
 0001:00024210       _mbsdec_l                  0000000180025210 f   libucrt:mbsdec.obj
 0001:000245c4       __acrt_LCMapStringA        00000001800255c4 f   libucrt:lcmapstringa.obj
 0001:00024700       _commit                    0000000180025700 f   libucrt:commit.obj
 0001:00024fb0       _write_internal            0000000180025fb0 f   libucrt:write.obj
 0001:000250d8       _write_nolock              00000001800260d8 f   libucrt:write.obj
 0001:000253e8       __ascii_wcsnicmp           00000001800263e8 f   libucrt:wcsnicmp.obj
 0001:00025434       _controlfp_s               0000000180026434 f   libucrt:contrlfp.obj
 0001:00025498       fegetenv                   0000000180026498 f   libucrt:fegetenv.obj
 0001:000254b8       fesetenv                   00000001800264b8 f   libucrt:fesetenv.obj
 0001:00025504       feholdexcept               0000000180026504 f   libucrt:feholdexcept.obj
 0001:00025554       ceil                       0000000180026554 f   libucrt:ceil.obj
 0001:00025620       log10                      0000000180026620 f   libucrt:log10.obj
 0001:00025bcc       __acrt_fenv_get_common_round_control 0000000180026bcc f   libucrt:_fenvutils.obj
 0001:00025bd8       __acrt_fenv_get_control    0000000180026bd8 f   libucrt:_fenvutils.obj
 0001:00025cbc       __acrt_fenv_get_status     0000000180026cbc f   libucrt:_fenvutils.obj
 0001:00025d14       __acrt_fenv_set_control    0000000180026d14 f   libucrt:_fenvutils.obj
 0001:00025e50       __acrt_fenv_set_status     0000000180026e50 f   libucrt:_fenvutils.obj
 0001:00025ec4       ?reset_and_return@__crt_mbstring@@YA_K_KPEAU_Mbstatet@@@Z 0000000180026ec4 f   libucrt:common_utf8.obj
 0001:00025ecc       ?return_illegal_sequence@__crt_mbstring@@YA_KPEAU_Mbstatet@@AEAV__crt_cached_ptd_host@@@Z 0000000180026ecc f   libucrt:common_utf8.obj
 0001:00025ee0       ?__mbrtoc32_utf8@__crt_mbstring@@YA_KPEA_UPEBD_KPEAU_Mbstatet@@AEAV__crt_cached_ptd_host@@@Z 0000000180026ee0 f   libucrt:mbrtoc32.obj
 0001:000261dc       fclose                     00000001800271dc f   libucrt:fclose.obj
 0001:00026320       _lseeki64_nolock_internal  0000000180027320 f   libucrt:lseek.obj
 0001:00026328       _query_app_type            0000000180027328 f   libucrt:report_runtime_error.obj
 0001:00026330       __strncnt                  0000000180027330 f   libucrt:strncnt.obj
 0001:00026348       _putwch_nolock             0000000180027348 f   libucrt:putwch.obj
 0001:00026384       _clearfp                   0000000180027384 f   libucrt:ieee.obj
 0001:000263f4       _control87                 00000001800273f4 f   libucrt:ieee.obj
 0001:000267e0       _handle_error              00000001800277e0 f   libucrt:libm_error.obj
 0001:00026908       _handle_nan                0000000180027908 f   libucrt:libm_error.obj
 0001:00026930       __acrt_initialize_fma3     0000000180027930 f   libucrt:fma3_available.obj
 0001:000269a0       _log10_special             00000001800279a0 f   libucrt:log_special.obj
 0001:00026ad0       _close_internal            0000000180027ad0 f   libucrt:close.obj
 0001:00026b94       _close_nolock_internal     0000000180027b94 f   libucrt:close.obj
 0001:00026c64       ?__acrt_stdio_free_stream@@YAXV__crt_stdio_stream@@@Z 0000000180027c64 f   libucrt:stream.obj
 0001:00026c80       __dcrt_lowio_ensure_console_output_initialized 0000000180027c80 f   libucrt:initcon.obj
 0001:00026cd4       __dcrt_terminate_console_output 0000000180027cd4 f   libucrt:initcon.obj
 0001:00026cf0       __dcrt_write_console       0000000180027cf0 f   libucrt:initcon.obj
 0001:00026dc0       _get_fpsr                  0000000180027dc0 f   libucrt:fpsr.obj
 0001:00026dd0       _set_fpsr                  0000000180027dd0 f   libucrt:fpsr.obj
 0001:00026dda       _fclrf                     0000000180027dda f   libucrt:fpsr.obj
 0001:00026dee       _frnd                      0000000180027dee f   libucrt:fpsr.obj
 0001:00026e10       _raise_exc                 0000000180027e10 f   libucrt:fpexcept.obj
 0001:00026e38       _raise_exc_ex              0000000180027e38 f   libucrt:fpexcept.obj
 0001:00027148       _set_errno_from_matherr    0000000180028148 f   libucrt:fpexcept.obj
 0001:00027178       _clrfp                     0000000180028178 f   libucrt:fpctrl.obj
 0001:00027198       _ctrlfp                    0000000180028198 f   libucrt:fpctrl.obj
 0001:00027214       _set_statfp                0000000180028214 f   libucrt:fpctrl.obj
 0001:00027234       _statfp                    0000000180028234 f   libucrt:fpctrl.obj
 0001:00027250       _FindPESection             0000000180028250 f   LIBCMT:pesect.obj
 0001:000272a0       _IsNonwritableInCurrentImage 00000001800282a0 f   LIBCMT:pesect.obj
 0001:000272f0       _ValidateImageBase         00000001800282f0 f   LIBCMT:pesect.obj
 0001:0002731c       __GSHandlerCheck_EH        000000018002831c f   LIBCMT:gshandlereh.obj
 0001:0002739c       __C_specific_handler_noexcept 000000018002839c f   libvcruntime:chandler_noexcept.obj
 0001:000273e8       strrchr                    00000001800283e8 f   libvcruntime:strrchr.obj
 0001:00027540       _guard_dispatch_icall_nop  0000000180028540 f   LIBCMT:guard_dispatch.obj
 0001:00027560       _guard_xfg_dispatch_icall_nop 0000000180028560 f   LIBCMT:guard_xfg_dispatch.obj
 0002:00000000       __imp_RegQueryValueExW     0000000180029000     advapi32:ADVAPI32.dll
 0002:00000008       __imp_RegSetValueExW       0000000180029008     advapi32:ADVAPI32.dll
 0002:00000010       __imp_RegQueryInfoKeyW     0000000180029010     advapi32:ADVAPI32.dll
 0002:00000018       __imp_RegOpenKeyExW        0000000180029018     advapi32:ADVAPI32.dll
 0002:00000020       __imp_RegEnumKeyExW        0000000180029020     advapi32:ADVAPI32.dll
 0002:00000028       __imp_RegDeleteValueW      0000000180029028     advapi32:ADVAPI32.dll
 0002:00000030       __imp_RegDeleteKeyW        0000000180029030     advapi32:ADVAPI32.dll
 0002:00000038       __imp_RegCreateKeyExW      0000000180029038     advapi32:ADVAPI32.dll
 0002:00000040       __imp_RegCloseKey          0000000180029040     advapi32:ADVAPI32.dll
 0002:00000048       \177ADVAPI32_NULL_THUNK_DATA 0000000180029048     advapi32:ADVAPI32.dll
 0002:00000050       __imp_GetObjectW           0000000180029050     gdi32:GDI32.dll
 0002:00000058       __imp_SelectObject         0000000180029058     gdi32:GDI32.dll
 0002:00000060       __imp_DeleteObject         0000000180029060     gdi32:GDI32.dll
 0002:00000068       __imp_CreateCompatibleDC   0000000180029068     gdi32:GDI32.dll
 0002:00000070       __imp_BitBlt               0000000180029070     gdi32:GDI32.dll
 0002:00000078       __imp_SetWindowOrgEx       0000000180029078     gdi32:GDI32.dll
 0002:00000080       __imp_SetWindowExtEx       0000000180029080     gdi32:GDI32.dll
 0002:00000088       __imp_SetViewportOrgEx     0000000180029088     gdi32:GDI32.dll
 0002:00000090       __imp_LPtoDP               0000000180029090     gdi32:GDI32.dll
 0002:00000098       __imp_SetMapMode           0000000180029098     gdi32:GDI32.dll
 0002:000000a0       __imp_SaveDC               00000001800290a0     gdi32:GDI32.dll
 0002:000000a8       __imp_RestoreDC            00000001800290a8     gdi32:GDI32.dll
 0002:000000b0       __imp_GetDeviceCaps        00000001800290b0     gdi32:GDI32.dll
 0002:000000b8       __imp_DeleteMetaFile       00000001800290b8     gdi32:GDI32.dll
 0002:000000c0       __imp_DeleteDC             00000001800290c0     gdi32:GDI32.dll
 0002:000000c8       __imp_CreateRectRgnIndirect 00000001800290c8     gdi32:GDI32.dll
 0002:000000d0       __imp_CreateMetaFileW      00000001800290d0     gdi32:GDI32.dll
 0002:000000d8       __imp_CreateDCW            00000001800290d8     gdi32:GDI32.dll
 0002:000000e0       __imp_CloseMetaFile        00000001800290e0     gdi32:GDI32.dll
 0002:000000e8       \177GDI32_NULL_THUNK_DATA  00000001800290e8     gdi32:GDI32.dll
 0002:000000f0       __imp_CloseHandle          00000001800290f0     kernel32:KERNEL32.dll
 0002:000000f8       __imp_SetEvent             00000001800290f8     kernel32:KERNEL32.dll
 0002:00000100       __imp_CreateMutexW         0000000180029100     kernel32:KERNEL32.dll
 0002:00000108       __imp_CreateEventW         0000000180029108     kernel32:KERNEL32.dll
 0002:00000110       __imp_GetCurrentProcessId  0000000180029110     kernel32:KERNEL32.dll
 0002:00000118       __imp_WriteConsoleW        0000000180029118     kernel32:KERNEL32.dll
 0002:00000120       __imp_CreateFileW          0000000180029120     kernel32:KERNEL32.dll
 0002:00000128       __imp_GetConsoleMode       0000000180029128     kernel32:KERNEL32.dll
 0002:00000130       __imp_GetConsoleOutputCP   0000000180029130     kernel32:KERNEL32.dll
 0002:00000138       __imp_WriteFile            0000000180029138     kernel32:KERNEL32.dll
 0002:00000140       __imp_FlushFileBuffers     0000000180029140     kernel32:KERNEL32.dll
 0002:00000148       __imp_SetStdHandle         0000000180029148     kernel32:KERNEL32.dll
 0002:00000150       __imp_SetFilePointerEx     0000000180029150     kernel32:KERNEL32.dll
 0002:00000158       __imp_GetStringTypeW       0000000180029158     kernel32:KERNEL32.dll
 0002:00000160       __imp_FreeEnvironmentStringsW 0000000180029160     kernel32:KERNEL32.dll
 0002:00000168       __imp_lstrcmpiW            0000000180029168     kernel32:KERNEL32.dll
 0002:00000170       __imp_GetCommandLineW      0000000180029170     kernel32:KERNEL32.dll
 0002:00000178       __imp_GetCommandLineA      0000000180029178     kernel32:KERNEL32.dll
 0002:00000180       __imp_GetCPInfo            0000000180029180     kernel32:KERNEL32.dll
 0002:00000188       __imp_GetOEMCP             0000000180029188     kernel32:KERNEL32.dll
 0002:00000190       __imp_GetACP               0000000180029190     kernel32:KERNEL32.dll
 0002:00000198       __imp_IsValidCodePage      0000000180029198     kernel32:KERNEL32.dll
 0002:000001a0       __imp_FindNextFileW        00000001800291a0     kernel32:KERNEL32.dll
 0002:000001a8       __imp_FindFirstFileExW     00000001800291a8     kernel32:KERNEL32.dll
 0002:000001b0       __imp_FindClose            00000001800291b0     kernel32:KERNEL32.dll
 0002:000001b8       __imp_GetFileType          00000001800291b8     kernel32:KERNEL32.dll
 0002:000001c0       __imp_GetStdHandle         00000001800291c0     kernel32:KERNEL32.dll
 0002:000001c8       __imp_LCMapStringW         00000001800291c8     kernel32:KERNEL32.dll
 0002:000001d0       __imp_FlsFree              00000001800291d0     kernel32:KERNEL32.dll
 0002:000001d8       __imp_FlsSetValue          00000001800291d8     kernel32:KERNEL32.dll
 0002:000001e0       __imp_MulDiv               00000001800291e0     kernel32:KERNEL32.dll
 0002:000001e8       __imp_GlobalLock           00000001800291e8     kernel32:KERNEL32.dll
 0002:000001f0       __imp_GlobalUnlock         00000001800291f0     kernel32:KERNEL32.dll
 0002:000001f8       __imp_GlobalAlloc          00000001800291f8     kernel32:KERNEL32.dll
 0002:00000200       __imp_FindResourceW        0000000180029200     kernel32:KERNEL32.dll
 0002:00000208       __imp_SizeofResource       0000000180029208     kernel32:KERNEL32.dll
 0002:00000210       __imp_LoadResource         0000000180029210     kernel32:KERNEL32.dll
 0002:00000218       __imp_LoadLibraryExW       0000000180029218     kernel32:KERNEL32.dll
 0002:00000220       __imp_GetProcAddress       0000000180029220     kernel32:KERNEL32.dll
 0002:00000228       __imp_GetModuleHandleW     0000000180029228     kernel32:KERNEL32.dll
 0002:00000230       __imp_GetModuleFileNameW   0000000180029230     kernel32:KERNEL32.dll
 0002:00000238       __imp_FreeLibrary          0000000180029238     kernel32:KERNEL32.dll
 0002:00000240       __imp_DisableThreadLibraryCalls 0000000180029240     kernel32:KERNEL32.dll
 0002:00000248       __imp_GetCurrentThreadId   0000000180029248     kernel32:KERNEL32.dll
 0002:00000250       __imp_Sleep                0000000180029250     kernel32:KERNEL32.dll
 0002:00000258       __imp_WaitForSingleObject  0000000180029258     kernel32:KERNEL32.dll
 0002:00000260       __imp_ReleaseMutex         0000000180029260     kernel32:KERNEL32.dll
 0002:00000268       __imp_ResetEvent           0000000180029268     kernel32:KERNEL32.dll
 0002:00000270       __imp_EnterCriticalSection 0000000180029270     kernel32:KERNEL32.dll
 0002:00000278       __imp_LeaveCriticalSection 0000000180029278     kernel32:KERNEL32.dll
 0002:00000280       __imp_SetLastError         0000000180029280     kernel32:KERNEL32.dll
 0002:00000288       __imp_EncodePointer        0000000180029288     kernel32:KERNEL32.dll
 0002:00000290       __imp_DeleteCriticalSection 0000000180029290     kernel32:KERNEL32.dll
 0002:00000298       __imp_InitializeCriticalSectionEx 0000000180029298     kernel32:KERNEL32.dll
 0002:000002a0       __imp_GetLastError         00000001800292a0     kernel32:KERNEL32.dll
 0002:000002a8       __imp_RaiseException       00000001800292a8     kernel32:KERNEL32.dll
 0002:000002b0       __imp_DecodePointer        00000001800292b0     kernel32:KERNEL32.dll
 0002:000002b8       __imp_WideCharToMultiByte  00000001800292b8     kernel32:KERNEL32.dll
 0002:000002c0       __imp_GetEnvironmentStringsW 00000001800292c0     kernel32:KERNEL32.dll
 0002:000002c8       __imp_MultiByteToWideChar  00000001800292c8     kernel32:KERNEL32.dll
 0002:000002d0       __imp_FlsGetValue          00000001800292d0     kernel32:KERNEL32.dll
 0002:000002d8       __imp_FlsAlloc             00000001800292d8     kernel32:KERNEL32.dll
 0002:000002e0       __imp_HeapReAlloc          00000001800292e0     kernel32:KERNEL32.dll
 0002:000002e8       __imp_HeapSize             00000001800292e8     kernel32:KERNEL32.dll
 0002:000002f0       __imp_GetModuleHandleExW   00000001800292f0     kernel32:KERNEL32.dll
 0002:000002f8       __imp_ExitProcess          00000001800292f8     kernel32:KERNEL32.dll
 0002:00000300       __imp_VirtualQuery         0000000180029300     kernel32:KERNEL32.dll
 0002:00000308       __imp_VirtualProtect       0000000180029308     kernel32:KERNEL32.dll
 0002:00000310       __imp_GetSystemInfo        0000000180029310     kernel32:KERNEL32.dll
 0002:00000318       __imp_TlsFree              0000000180029318     kernel32:KERNEL32.dll
 0002:00000320       __imp_TlsSetValue          0000000180029320     kernel32:KERNEL32.dll
 0002:00000328       __imp_TlsGetValue          0000000180029328     kernel32:KERNEL32.dll
 0002:00000330       __imp_TlsAlloc             0000000180029330     kernel32:KERNEL32.dll
 0002:00000338       __imp_RtlPcToFileHeader    0000000180029338     kernel32:KERNEL32.dll
 0002:00000340       __imp_InterlockedFlushSList 0000000180029340     kernel32:KERNEL32.dll
 0002:00000348       __imp_RtlUnwindEx          0000000180029348     kernel32:KERNEL32.dll
 0002:00000350       __imp_LoadLibraryExA       0000000180029350     kernel32:KERNEL32.dll
 0002:00000358       __imp_VirtualFree          0000000180029358     kernel32:KERNEL32.dll
 0002:00000360       __imp_VirtualAlloc         0000000180029360     kernel32:KERNEL32.dll
 0002:00000368       __imp_FlushInstructionCache 0000000180029368     kernel32:KERNEL32.dll
 0002:00000370       __imp_InterlockedPushEntrySList 0000000180029370     kernel32:KERNEL32.dll
 0002:00000378       __imp_InterlockedPopEntrySList 0000000180029378     kernel32:KERNEL32.dll
 0002:00000380       __imp_GetProcessHeap       0000000180029380     kernel32:KERNEL32.dll
 0002:00000388       __imp_HeapFree             0000000180029388     kernel32:KERNEL32.dll
 0002:00000390       __imp_HeapAlloc            0000000180029390     kernel32:KERNEL32.dll
 0002:00000398       __imp_OutputDebugStringW   0000000180029398     kernel32:KERNEL32.dll
 0002:000003a0       __imp_InitializeSListHead  00000001800293a0     kernel32:KERNEL32.dll
 0002:000003a8       __imp_GetSystemTimeAsFileTime 00000001800293a8     kernel32:KERNEL32.dll
 0002:000003b0       __imp_QueryPerformanceCounter 00000001800293b0     kernel32:KERNEL32.dll
 0002:000003b8       __imp_GetStartupInfoW      00000001800293b8     kernel32:KERNEL32.dll
 0002:000003c0       __imp_InitializeCriticalSectionAndSpinCount 00000001800293c0     kernel32:KERNEL32.dll
 0002:000003c8       __imp_WaitForSingleObjectEx 00000001800293c8     kernel32:KERNEL32.dll
 0002:000003d0       __imp_RtlCaptureContext    00000001800293d0     kernel32:KERNEL32.dll
 0002:000003d8       __imp_RtlLookupFunctionEntry 00000001800293d8     kernel32:KERNEL32.dll
 0002:000003e0       __imp_RtlVirtualUnwind     00000001800293e0     kernel32:KERNEL32.dll
 0002:000003e8       __imp_UnhandledExceptionFilter 00000001800293e8     kernel32:KERNEL32.dll
 0002:000003f0       __imp_SetUnhandledExceptionFilter 00000001800293f0     kernel32:KERNEL32.dll
 0002:000003f8       __imp_GetCurrentProcess    00000001800293f8     kernel32:KERNEL32.dll
 0002:00000400       __imp_TerminateProcess     0000000180029400     kernel32:KERNEL32.dll
 0002:00000408       __imp_IsProcessorFeaturePresent 0000000180029408     kernel32:KERNEL32.dll
 0002:00000410       __imp_IsDebuggerPresent    0000000180029410     kernel32:KERNEL32.dll
 0002:00000418       \177KERNEL32_NULL_THUNK_DATA 0000000180029418     kernel32:KERNEL32.dll
 0002:00000420       __imp_OleCreatePropertyFrame 0000000180029420     oleaut32:OLEAUT32.dll
 0002:00000428       __imp_UnRegisterTypeLib    0000000180029428     oleaut32:OLEAUT32.dll
 0002:00000430       __imp_RegisterTypeLib      0000000180029430     oleaut32:OLEAUT32.dll
 0002:00000438       __imp_LoadRegTypeLib       0000000180029438     oleaut32:OLEAUT32.dll
 0002:00000440       __imp_LoadTypeLib          0000000180029440     oleaut32:OLEAUT32.dll
 0002:00000448       __imp_VarUI4FromStr        0000000180029448     oleaut32:OLEAUT32.dll
 0002:00000450       __imp_VariantInit          0000000180029450     oleaut32:OLEAUT32.dll
 0002:00000458       __imp_SysAllocStringByteLen 0000000180029458     oleaut32:OLEAUT32.dll
 0002:00000460       __imp_SysStringByteLen     0000000180029460     oleaut32:OLEAUT32.dll
 0002:00000468       __imp_VariantChangeType    0000000180029468     oleaut32:OLEAUT32.dll
 0002:00000470       __imp_VariantClear         0000000180029470     oleaut32:OLEAUT32.dll
 0002:00000478       __imp_SysStringLen         0000000180029478     oleaut32:OLEAUT32.dll
 0002:00000480       __imp_SysFreeString        0000000180029480     oleaut32:OLEAUT32.dll
 0002:00000488       __imp_SysAllocStringLen    0000000180029488     oleaut32:OLEAUT32.dll
 0002:00000490       __imp_SysAllocString       0000000180029490     oleaut32:OLEAUT32.dll
 0002:00000498       \177OLEAUT32_NULL_THUNK_DATA 0000000180029498     oleaut32:OLEAUT32.dll
 0002:000004a0       __imp_UnregisterClassW     00000001800294a0     user32:USER32.dll
 0002:000004a8       __imp_PostMessageW         00000001800294a8     user32:USER32.dll
 0002:000004b0       __imp_DefWindowProcW       00000001800294b0     user32:USER32.dll
 0002:000004b8       __imp_CallWindowProcW      00000001800294b8     user32:USER32.dll
 0002:000004c0       __imp_RegisterClassExW     00000001800294c0     user32:USER32.dll
 0002:000004c8       __imp_GetClassInfoExW      00000001800294c8     user32:USER32.dll
 0002:000004d0       __imp_CreateWindowExW      00000001800294d0     user32:USER32.dll
 0002:000004d8       __imp_IsWindow             00000001800294d8     user32:USER32.dll
 0002:000004e0       __imp_IsChild              00000001800294e0     user32:USER32.dll
 0002:000004e8       __imp_DestroyWindow        00000001800294e8     user32:USER32.dll
 0002:000004f0       __imp_ShowWindow           00000001800294f0     user32:USER32.dll
 0002:000004f8       __imp_SetWindowPos         00000001800294f8     user32:USER32.dll
 0002:00000500       __imp_CharNextW            0000000180029500     user32:USER32.dll
 0002:00000508       __imp_SetFocus             0000000180029508     user32:USER32.dll
 0002:00000510       __imp_LoadBitmapW          0000000180029510     user32:USER32.dll
 0002:00000518       __imp_RegisterClassW       0000000180029518     user32:USER32.dll
 0002:00000520       __imp_PeekMessageW         0000000180029520     user32:USER32.dll
 0002:00000528       __imp_LoadCursorW          0000000180029528     user32:USER32.dll
 0002:00000530       __imp_GetParent            0000000180029530     user32:USER32.dll
 0002:00000538       __imp_SetWindowLongPtrW    0000000180029538     user32:USER32.dll
 0002:00000540       __imp_GetWindowLongPtrW    0000000180029540     user32:USER32.dll
 0002:00000548       __imp_PtInRect             0000000180029548     user32:USER32.dll
 0002:00000550       __imp_EqualRect            0000000180029550     user32:USER32.dll
 0002:00000558       __imp_OffsetRect           0000000180029558     user32:USER32.dll
 0002:00000560       __imp_UnionRect            0000000180029560     user32:USER32.dll
 0002:00000568       __imp_IntersectRect        0000000180029568     user32:USER32.dll
 0002:00000570       __imp_GetClientRect        0000000180029570     user32:USER32.dll
 0002:00000578       __imp_InvalidateRect       0000000180029578     user32:USER32.dll
 0002:00000580       __imp_SetWindowRgn         0000000180029580     user32:USER32.dll
 0002:00000588       __imp_EndPaint             0000000180029588     user32:USER32.dll
 0002:00000590       __imp_BeginPaint           0000000180029590     user32:USER32.dll
 0002:00000598       __imp_ReleaseDC            0000000180029598     user32:USER32.dll
 0002:000005a0       __imp_GetDC                00000001800295a0     user32:USER32.dll
 0002:000005a8       __imp_GetKeyState          00000001800295a8     user32:USER32.dll
 0002:000005b0       __imp_GetFocus             00000001800295b0     user32:USER32.dll
 0002:000005b8       \177USER32_NULL_THUNK_DATA 00000001800295b8     user32:USER32.dll
 0002:000005c0       __imp_CoCreateInstance     00000001800295c0     ole32:ole32.dll
 0002:000005c8       __imp_StringFromGUID2      00000001800295c8     ole32:ole32.dll
 0002:000005d0       __imp_CoTaskMemAlloc       00000001800295d0     ole32:ole32.dll
 0002:000005d8       __imp_CoTaskMemRealloc     00000001800295d8     ole32:ole32.dll
 0002:000005e0       __imp_CoTaskMemFree        00000001800295e0     ole32:ole32.dll
 0002:000005e8       __imp_WriteClassStm        00000001800295e8     ole32:ole32.dll
 0002:000005f0       __imp_CreateDataAdviseHolder 00000001800295f0     ole32:ole32.dll
 0002:000005f8       __imp_OleSaveToStream      00000001800295f8     ole32:ole32.dll
 0002:00000600       __imp_CreateOleAdviseHolder 0000000180029600     ole32:ole32.dll
 0002:00000608       __imp_OleRegGetUserType    0000000180029608     ole32:ole32.dll
 0002:00000610       __imp_OleRegGetMiscStatus  0000000180029610     ole32:ole32.dll
 0002:00000618       __imp_OleRegEnumVerbs      0000000180029618     ole32:ole32.dll
 0002:00000620       __imp_CLSIDFromProgID      0000000180029620     ole32:ole32.dll
 0002:00000628       __imp_ReadClassStm         0000000180029628     ole32:ole32.dll
 0002:00000630       \177ole32_NULL_THUNK_DATA  0000000180029630     ole32:ole32.dll
 0002:00000638       __guard_check_icall_fptr   0000000180029638     LIBCMT:guard_support.obj
 0002:00000640       __guard_xfg_check_icall_fptr 0000000180029640     LIBCMT:guard_support.obj
 0002:00000648       __guard_dispatch_icall_fptr 0000000180029648     LIBCMT:guard_support.obj
 0002:00000650       __guard_xfg_dispatch_icall_fptr 0000000180029650     LIBCMT:guard_support.obj
 0002:00000658       __guard_xfg_table_dispatch_icall_fptr 0000000180029658     LIBCMT:guard_support.obj
 0002:00000660       __castguard_check_failure_os_handled_fptr 0000000180029660     LIBCMT:guard_support.obj
 0002:00000668       __xc_a                     0000000180029668     LIBCMT:initializers.obj
 0002:00000698       __xc_z                     0000000180029698     LIBCMT:initializers.obj
 0002:000006a0       __xi_a                     00000001800296a0     LIBCMT:initializers.obj
 0002:000006b0       __acrt_stdio_initializer   00000001800296b0     libucrt:stdio_initializer.obj
 0002:000006b8       __acrt_multibyte_initializer 00000001800296b8     libucrt:multibyte_initializer.obj
 0002:000006c0       __acrt_tran_fma3_initializer 00000001800296c0     libucrt:fma3_initializer.obj
 0002:000006c8       __xi_z                     00000001800296c8     LIBCMT:initializers.obj
 0002:000006d0       __xl_a                     00000001800296d0     LIBCMT:tlssup.obj
 0002:000006d8       __xl_z                     00000001800296d8     LIBCMT:tlssup.obj
 0002:000006e0       __xp_a                     00000001800296e0     LIBCMT:initializers.obj
 0002:000006e8       __acrt_locale_terminator   00000001800296e8     libucrt:locale_initializer.obj
 0002:000006f0       __dcrt_console_output_terminator 00000001800296f0     libucrt:console_output_initializer.obj
 0002:000006f8       __acrt_stdio_terminator    00000001800296f8     libucrt:stdio_initializer.obj
 0002:00000700       __xp_z                     0000000180029700     LIBCMT:initializers.obj
 0002:00000708       __xt_a                     0000000180029708     LIBCMT:initializers.obj
 0002:00000710       __xt_z                     0000000180029710     LIBCMT:initializers.obj
 0002:00000720       ??_C@_13HADIAKP@?$AAS@     0000000180029720     OposVariant.obj
 0002:00000724       ??_C@_13LHMFKAAD@?$AAM@    0000000180029724     OposVariant.obj
 0002:00000728       ??_C@_13MKMNOPIJ@?$AAD@    0000000180029728     OposVariant.obj
 0002:0000072c       ??_C@_13OPKGLAFF@?$AAB@    000000018002972c     OposVariant.obj
 0002:00000730       ??_C@_17LLMMEOJD@?$AAV?$AAa?$AAl@ 0000000180029730     OposVariant.obj
 0002:00000738       ??_C@_1BI@JFAIJMHL@?$AAF?$AAo?$AAr?$AAc?$AAe?$AAR?$AAe?$AAm?$AAo?$AAv?$AAe@ 0000000180029738     OposVariant.obj
 0002:00000750       ??_C@_1BC@GCKHIPE@?$AAN?$AAo?$AAR?$AAe?$AAm?$AAo?$AAv?$AAe@ 0000000180029750     OposVariant.obj
 0002:00000768       ??_C@_1O@JDLOHAN@?$AAD?$AAe?$AAl?$AAe?$AAt?$AAe@ 0000000180029768     OposVariant.obj
 0002:00000778       ??_C@_11LOCGONAA@@         0000000180029778     OposVariant.obj
 0002:00000780       ??_7?$CComContainedObject@VCOPOSFiscalPrinter@@@ATL@@6B?$IDispatchImpl@UIOPOSFiscalPrinter@@$1?IID_IOPOSFiscalPrinter@@3U_GUID@@B$1?LIBID_OposFiscalPrinter_CCO@@3U3@B$00$0A@VCComTypeInfoHolder@ATL@@@1@@ 0000000180029780     FiscalPrinter.obj
 0002:00000eb0       ??_7?$CComContainedObject@VCOPOSFiscalPrinter@@@ATL@@6BCComControlBase@1@@ 0000000180029eb0     FiscalPrinter.obj
 0002:00000ed8       ??_7?$CComContainedObject@VCOPOSFiscalPrinter@@@ATL@@6B?$CWindowImpl@VCOPOSFiscalPrinter@@VCWindow@ATL@@V?$CWinTraits@$0FGAAAAAA@$0A@@3@@1@@ 0000000180029ed8     FiscalPrinter.obj
 0002:00000ef8       ??_7?$CComContainedObject@VCOPOSFiscalPrinter@@@ATL@@6B?$IPersistStreamInitImpl@VCOPOSFiscalPrinter@@@1@@ 0000000180029ef8     FiscalPrinter.obj
 0002:00000f40       ??_7?$CComContainedObject@VCOPOSFiscalPrinter@@@ATL@@6B?$IOleControlImpl@VCOPOSFiscalPrinter@@@1@@ 0000000180029f40     FiscalPrinter.obj
 0002:00000f78       ??_7?$CComContainedObject@VCOPOSFiscalPrinter@@@ATL@@6B?$IOleObjectImpl@VCOPOSFiscalPrinter@@@1@@ 0000000180029f78     FiscalPrinter.obj
 0002:00001038       ??_7?$CComContainedObject@VCOPOSFiscalPrinter@@@ATL@@6B?$IOleInPlaceActiveObjectImpl@VCOPOSFiscalPrinter@@@1@@ 000000018002a038     FiscalPrinter.obj
 0002:00001088       ??_7?$CComContainedObject@VCOPOSFiscalPrinter@@@ATL@@6B?$IViewObjectExImpl@VCOPOSFiscalPrinter@@@1@@ 000000018002a088     FiscalPrinter.obj
 0002:00001100       ??_7?$CComContainedObject@VCOPOSFiscalPrinter@@@ATL@@6B?$IOleInPlaceObjectWindowlessImpl@VCOPOSFiscalPrinter@@@1@@ 000000018002a100     FiscalPrinter.obj
 0002:00001158       ??_7?$CComContainedObject@VCOPOSFiscalPrinter@@@ATL@@6B?$IConnectionPointContainerImpl@VCOPOSFiscalPrinter@@@1@@ 000000018002a158     FiscalPrinter.obj
 0002:00001180       ??_7?$CComContainedObject@VCOPOSFiscalPrinter@@@ATL@@6B?$IPersistStorageImpl@VCOPOSFiscalPrinter@@@1@@ 000000018002a180     FiscalPrinter.obj
 0002:000011d0       ??_7?$CComContainedObject@VCOPOSFiscalPrinter@@@ATL@@6B?$ISpecifyPropertyPagesImpl@VCOPOSFiscalPrinter@@@1@@ 000000018002a1d0     FiscalPrinter.obj
 0002:000011f0       ??_7?$CComContainedObject@VCOPOSFiscalPrinter@@@ATL@@6B?$IQuickActivateImpl@VCOPOSFiscalPrinter@@@1@@ 000000018002a1f0     FiscalPrinter.obj
 0002:00001220       ??_7?$CComContainedObject@VCOPOSFiscalPrinter@@@ATL@@6B?$IDataObjectImpl@VCOPOSFiscalPrinter@@@1@@ 000000018002a220     FiscalPrinter.obj
 0002:00001280       ??_7?$CComContainedObject@VCOPOSFiscalPrinter@@@ATL@@6B?$IProvideClassInfo2Impl@$1?CLSID_OPOSFiscalPrinter@@3U_GUID@@B$1?DIID__IOPOSFiscalPrinterEvents@@3U2@B$1?LIBID_OposFiscalPrinter_CCO@@3U2@B$00$0A@VCComTypeInfoHolder@ATL@@@1@@ 000000018002a280     FiscalPrinter.obj
 0002:000012a8       ??_7?$CComContainedObject@VCOPOSFiscalPrinter@@@ATL@@6B?$IObjectSafetyImpl@VCOPOSFiscalPrinter@@$02@1@@ 000000018002a2a8     FiscalPrinter.obj
 0002:000012d8       ??_7?$CComContainedObject@VCOPOSFiscalPrinter@@@ATL@@6B?$IPropertyNotifySinkCP@VCOPOSFiscalPrinter@@VCComDynamicUnkArray@ATL@@@1@@ 000000018002a2d8     FiscalPrinter.obj
 0002:00001318       ??_7?$CComContainedObject@VCOPOSFiscalPrinter@@@ATL@@6B?$CProxy_IOPOSEvents@VCOPOSFiscalPrinter@@@@@ 000000018002a318     FiscalPrinter.obj
 0002:00001358       ??_7?$CComAggObject@VCOPOSFiscalPrinter@@@ATL@@6B@ 000000018002a358     FiscalPrinter.obj
 0002:00001378       ??_7?$CComObject@VCOPOSFiscalPrinter@@@ATL@@6B?$IDispatchImpl@UIOPOSFiscalPrinter@@$1?IID_IOPOSFiscalPrinter@@3U_GUID@@B$1?LIBID_OposFiscalPrinter_CCO@@3U3@B$00$0A@VCComTypeInfoHolder@ATL@@@1@@ 000000018002a378     FiscalPrinter.obj
 0002:00001aa8       ??_7?$CComObject@VCOPOSFiscalPrinter@@@ATL@@6BCComControlBase@1@@ 000000018002aaa8     FiscalPrinter.obj
 0002:00001ad0       ??_7?$CComObject@VCOPOSFiscalPrinter@@@ATL@@6B?$CWindowImpl@VCOPOSFiscalPrinter@@VCWindow@ATL@@V?$CWinTraits@$0FGAAAAAA@$0A@@3@@1@@ 000000018002aad0     FiscalPrinter.obj
 0002:00001af0       ??_7?$CComObject@VCOPOSFiscalPrinter@@@ATL@@6B?$IPersistStreamInitImpl@VCOPOSFiscalPrinter@@@1@@ 000000018002aaf0     FiscalPrinter.obj
 0002:00001b38       ??_7?$CComObject@VCOPOSFiscalPrinter@@@ATL@@6B?$IOleControlImpl@VCOPOSFiscalPrinter@@@1@@ 000000018002ab38     FiscalPrinter.obj
 0002:00001b70       ??_7?$CComObject@VCOPOSFiscalPrinter@@@ATL@@6B?$IOleObjectImpl@VCOPOSFiscalPrinter@@@1@@ 000000018002ab70     FiscalPrinter.obj
 0002:00001c30       ??_7?$CComObject@VCOPOSFiscalPrinter@@@ATL@@6B?$IOleInPlaceActiveObjectImpl@VCOPOSFiscalPrinter@@@1@@ 000000018002ac30     FiscalPrinter.obj
 0002:00001c80       ??_7?$CComObject@VCOPOSFiscalPrinter@@@ATL@@6B?$IViewObjectExImpl@VCOPOSFiscalPrinter@@@1@@ 000000018002ac80     FiscalPrinter.obj
 0002:00001cf8       ??_7?$CComObject@VCOPOSFiscalPrinter@@@ATL@@6B?$IOleInPlaceObjectWindowlessImpl@VCOPOSFiscalPrinter@@@1@@ 000000018002acf8     FiscalPrinter.obj
 0002:00001d50       ??_7?$CComObject@VCOPOSFiscalPrinter@@@ATL@@6B?$IConnectionPointContainerImpl@VCOPOSFiscalPrinter@@@1@@ 000000018002ad50     FiscalPrinter.obj
 0002:00001d78       ??_7?$CComObject@VCOPOSFiscalPrinter@@@ATL@@6B?$IPersistStorageImpl@VCOPOSFiscalPrinter@@@1@@ 000000018002ad78     FiscalPrinter.obj
 0002:00001dc8       ??_7?$CComObject@VCOPOSFiscalPrinter@@@ATL@@6B?$ISpecifyPropertyPagesImpl@VCOPOSFiscalPrinter@@@1@@ 000000018002adc8     FiscalPrinter.obj
 0002:00001de8       ??_7?$CComObject@VCOPOSFiscalPrinter@@@ATL@@6B?$IQuickActivateImpl@VCOPOSFiscalPrinter@@@1@@ 000000018002ade8     FiscalPrinter.obj
 0002:00001e18       ??_7?$CComObject@VCOPOSFiscalPrinter@@@ATL@@6B?$IDataObjectImpl@VCOPOSFiscalPrinter@@@1@@ 000000018002ae18     FiscalPrinter.obj
 0002:00001e78       ??_7?$CComObject@VCOPOSFiscalPrinter@@@ATL@@6B?$IProvideClassInfo2Impl@$1?CLSID_OPOSFiscalPrinter@@3U_GUID@@B$1?DIID__IOPOSFiscalPrinterEvents@@3U2@B$1?LIBID_OposFiscalPrinter_CCO@@3U2@B$00$0A@VCComTypeInfoHolder@ATL@@@1@@ 000000018002ae78     FiscalPrinter.obj
 0002:00001ea0       ??_7?$CComObject@VCOPOSFiscalPrinter@@@ATL@@6B?$IObjectSafetyImpl@VCOPOSFiscalPrinter@@$02@1@@ 000000018002aea0     FiscalPrinter.obj
 0002:00001ed0       ??_7?$CComObject@VCOPOSFiscalPrinter@@@ATL@@6B?$IPropertyNotifySinkCP@VCOPOSFiscalPrinter@@VCComDynamicUnkArray@ATL@@@1@@ 000000018002aed0     FiscalPrinter.obj
 0002:00001f10       ??_7?$CComObject@VCOPOSFiscalPrinter@@@ATL@@6B?$CProxy_IOPOSEvents@VCOPOSFiscalPrinter@@@@@ 000000018002af10     FiscalPrinter.obj
 0002:00001f50       _GUID_55980ba0_35aa_11cf_b671_00aa004cd6d8 000000018002af50     FiscalPrinter.obj
 0002:00001f60       _GUID_b196b28b_bab4_101a_b69c_00aa00341d07 000000018002af60     FiscalPrinter.obj
 0002:00001f70       ?_entries@?1??_GetEntries@?$CComEnum@UIEnumConnectionPoints@@$1?_GUID_b196b285_bab4_101a_b69c_00aa00341d07@@3U__s_GUID@@BPEAUIConnectionPoint@@V?$_CopyInterface@UIConnectionPoint@@@ATL@@VCComSingleThreadModel@6@@ATL@@SAPEBU_ATL_INTMAP_ENTRY@3@XZ@4QBU43@B 000000018002af70     FiscalPrinter.obj
 0002:00001fa0       ??_7CComClassFactory@ATL@@6B@ 000000018002afa0     FiscalPrinter.obj
 0002:00001fd0       ?_entries@?1??_GetEntries@CComClassFactory@ATL@@SAPEBU_ATL_INTMAP_ENTRY@3@XZ@4QBU43@B 000000018002afd0     FiscalPrinter.obj
 0002:00002000       _GUID_00000001_0000_0000_c000_000000000046 000000018002b000     FiscalPrinter.obj
 0002:00002010       _GUID_00020412_0000_0000_c000_000000000046 000000018002b010     FiscalPrinter.obj
 0002:00002020       _GUID_00020401_0000_0000_c000_000000000046 000000018002b020     FiscalPrinter.obj
 0002:00002030       IID_IOPOSFiscalPrinter_1_6 000000018002b030     FiscalPrinter.obj
 0002:00002040       ??_7?$CComObject@V?$CComEnum@UIEnumConnections@@$1?_GUID_b196b287_bab4_101a_b69c_00aa00341d07@@3U__s_GUID@@BUtagCONNECTDATA@@V?$_Copy@UtagCONNECTDATA@@@ATL@@VCComSingleThreadModel@6@@ATL@@@ATL@@6B@ 000000018002b040     FiscalPrinter.obj
 0002:00002080       ??_C@_1BK@BIGILECK@?$AAA?$AAd?$AAv?$AAa?$AAp?$AAi?$AA3?$AA2?$AA?4?$AAd?$AAl?$AAl@ 000000018002b080     FiscalPrinter.obj
 0002:000020a0       ??_C@_0BI@MNCFCPFK@RegCreateKeyTransactedW@ 000000018002b0a0     FiscalPrinter.obj
 0002:000020b8       _GUID_00000114_0000_0000_c000_000000000046 000000018002b0b8     FiscalPrinter.obj
 0002:000020c8       _GUID_b196b287_bab4_101a_b69c_00aa00341d07 000000018002b0c8     FiscalPrinter.obj
 0002:000020d8       ?_entries@?1??_GetEntries@?$CComEnum@UIEnumConnections@@$1?_GUID_b196b287_bab4_101a_b69c_00aa00341d07@@3U__s_GUID@@BUtagCONNECTDATA@@V?$_Copy@UtagCONNECTDATA@@@ATL@@VCComSingleThreadModel@6@@ATL@@SAPEBU_ATL_INTMAP_ENTRY@3@XZ@4QBU43@B 000000018002b0d8     FiscalPrinter.obj
 0002:00002108       _GUID_b196b285_bab4_101a_b69c_00aa00341d07 000000018002b108     FiscalPrinter.obj
 0002:00002118       _GUID_a6bc3ac0_dbaa_11ce_9de3_00aa004bb851 000000018002b118     FiscalPrinter.obj
 0002:00002128       _GUID_0000010c_0000_0000_c000_000000000046 000000018002b128     FiscalPrinter.obj
 0002:00002138       _GUID_00000146_0000_0000_c000_000000000046 000000018002b138     FiscalPrinter.obj
 0002:00002148       IID_IOPOSFiscalPrinter_1_8 000000018002b148     FiscalPrinter.obj
 0002:00002158       IID_IOPOSFiscalPrinter_1_9 000000018002b158     FiscalPrinter.obj
 0002:00002168       IID_IOPOSFiscalPrinter_1_11 000000018002b168     FiscalPrinter.obj
 0002:00002178       IID_IOPOSFiscalPrinter_1_12 000000018002b178     FiscalPrinter.obj
 0002:00002188       IID_IOPOSFiscalPrinter     000000018002b188     FiscalPrinter.obj
 0002:00002198       LIBID_OposFiscalPrinter_CCO 000000018002b198     FiscalPrinter.obj
 0002:000021a8       DIID__IOPOSFiscalPrinterEvents 000000018002b1a8     FiscalPrinter.obj
 0002:000021b8       CLSID_OPOSFiscalPrinter    000000018002b1b8     FiscalPrinter.obj
 0002:000021c8       ??_7CComModule@ATL@@6B@    000000018002b1c8     FiscalPrinter.obj
 0002:00002218       _GUID_00000000_0000_0000_c000_000000000046 000000018002b218     FiscalPrinter.obj
 0002:00002228       _GUID_00020400_0000_0000_c000_000000000046 000000018002b228     FiscalPrinter.obj
 0002:00002238       _GUID_922eada0_3424_11cf_b670_00aa004cd6d8 000000018002b238     FiscalPrinter.obj
 0002:00002248       _GUID_9c2cad80_3424_11cf_b670_00aa004cd6d8 000000018002b248     FiscalPrinter.obj
 0002:00002258       _GUID_00000119_0000_0000_c000_000000000046 000000018002b258     FiscalPrinter.obj
 0002:00002268       _GUID_b196b289_bab4_101a_b69c_00aa00341d07 000000018002b268     FiscalPrinter.obj
 0002:00002278       _GUID_00000117_0000_0000_c000_000000000046 000000018002b278     FiscalPrinter.obj
 0002:00002288       ??_C@_1M@KANJNLFF@?$AAC?$AAL?$AAS?$AAI?$AAD@ 000000018002b288     FiscalPrinter.obj
 0002:00002298       ??_C@_1M@EJNEECMJ@?$AAA?$AAp?$AAp?$AAI?$AAD@ 000000018002b298     FiscalPrinter.obj
 0002:000022a8       _GUID_0000010e_0000_0000_c000_000000000046 000000018002b2a8     FiscalPrinter.obj
 0002:000022c0       ?rgszNeverDelete@CRegParser@ATL@@1QBQEB_WB 000000018002b2c0     FiscalPrinter.obj
 0002:00002320       _GUID_b196b288_bab4_101a_b69c_00aa00341d07 000000018002b320     FiscalPrinter.obj
 0002:00002330       ??_7CRegObject@ATL@@6B@    000000018002b330     FiscalPrinter.obj
 0002:00002360       _GUID_00000113_0000_0000_c000_000000000046 000000018002b360     FiscalPrinter.obj
 0002:00002370       ??_C@_1CK@OEKPKBNA@?$AAC?$AAo?$AAm?$AAp?$AAo?$AAn?$AAe?$AAn?$AAt?$AA?5?$AAC?$AAa?$AAt?$AAe?$AAg@ 000000018002b370     FiscalPrinter.obj
 0002:000023a0       ??_C@_1BC@NKMMNMGL@?$AAF?$AAi?$AAl?$AAe?$AAT?$AAy?$AAp?$AAe@ 000000018002b3a0     FiscalPrinter.obj
 0002:000023b8       ??_C@_1BE@EKPAFMCP@?$AAI?$AAn?$AAt?$AAe?$AAr?$AAf?$AAa?$AAc?$AAe@ 000000018002b3b8     FiscalPrinter.obj
 0002:000023d0       ??_C@_1BC@MAICEHGI@?$AAH?$AAa?$AAr?$AAd?$AAw?$AAa?$AAr?$AAe@ 000000018002b3d0     FiscalPrinter.obj
 0002:000023e8       ??_C@_19HLLLM@?$AAM?$AAi?$AAm?$AAe@ 000000018002b3e8     FiscalPrinter.obj
 0002:00002400       ?_entries@?1??_GetEntries@COPOSFiscalPrinter@@SAPEBU_ATL_INTMAP_ENTRY@ATL@@XZ@4QBU34@B 000000018002b400     FiscalPrinter.obj
 0002:000026a0       ??_C@_17OMAOINJK@?$AAS?$AAA?$AAM@ 000000018002b6a0     FiscalPrinter.obj
 0002:000026a8       ??_C@_1BC@IBECJAAI@?$AAS?$AAE?$AAC?$AAU?$AAR?$AAI?$AAT?$AAY@ 000000018002b6a8     FiscalPrinter.obj
 0002:000026c0       ??_C@_1O@GBFINDKL@?$AAS?$AAY?$AAS?$AAT?$AAE?$AAM@ 000000018002b6c0     FiscalPrinter.obj
 0002:000026d0       ??_C@_1BC@EAHCMADO@?$AAS?$AAo?$AAf?$AAt?$AAw?$AAa?$AAr?$AAe@ 000000018002b6d0     FiscalPrinter.obj
 0002:000026e8       ??_C@_1BA@JIHHIEDE@?$AAT?$AAy?$AAp?$AAe?$AAL?$AAi?$AAb@ 000000018002b6e8     FiscalPrinter.obj
 0002:000026f8       _GUID_1c2056cc_5ef4_101b_8bc8_00aa003e3b29 000000018002b6f8     FiscalPrinter.obj
 0002:00002710       ?map@?1??HKeyFromString@CRegParser@ATL@@KAPEAUHKEY__@@PEA_W@Z@4QBUkeymap@?1??123@KAPEAU4@0@Z@B 000000018002b710     FiscalPrinter.obj
 0002:000027f0       ??_C@_19NCHLBIN@?$AAH?$AAK?$AAC?$AAR@ 000000018002b7f0     FiscalPrinter.obj
 0002:00002800       ??_C@_19JAPAIJDE@?$AAH?$AAK?$AAC?$AAU@ 000000018002b800     FiscalPrinter.obj
 0002:00002810       ??_C@_19PEALEEJB@?$AAH?$AAK?$AAL?$AAM@ 000000018002b810     FiscalPrinter.obj
 0002:00002820       ??_C@_17PJOJPMPB@?$AAH?$AAK?$AAU@ 000000018002b820     FiscalPrinter.obj
 0002:00002828       ??_C@_19PNBHMJPL@?$AAH?$AAK?$AAP?$AAD@ 000000018002b828     FiscalPrinter.obj
 0002:00002838       ??_C@_19GFFAIJHG@?$AAH?$AAK?$AAD?$AAD@ 000000018002b838     FiscalPrinter.obj
 0002:00002848       ??_C@_19OFICIBHH@?$AAH?$AAK?$AAC?$AAC@ 000000018002b848     FiscalPrinter.obj
 0002:00002858       ??_C@_1CE@PACHPJFI@?$AAH?$AAK?$AAE?$AAY?$AA_?$AAC?$AAL?$AAA?$AAS?$AAS?$AAE?$AAS?$AA_?$AAR?$AAO@ 000000018002b858     FiscalPrinter.obj
 0002:00002880       ??_C@_1CE@HLHNCBPM@?$AAH?$AAK?$AAE?$AAY?$AA_?$AAC?$AAU?$AAR?$AAR?$AAE?$AAN?$AAT?$AA_?$AAU?$AAS@ 000000018002b880     FiscalPrinter.obj
 0002:000028a8       ??_C@_1CG@GFBEANJL@?$AAH?$AAK?$AAE?$AAY?$AA_?$AAL?$AAO?$AAC?$AAA?$AAL?$AA_?$AAM?$AAA?$AAC?$AAH@ 000000018002b8a8     FiscalPrinter.obj
 0002:000028d0       ??_C@_1BG@BGODANIO@?$AAH?$AAK?$AAE?$AAY?$AA_?$AAU?$AAS?$AAE?$AAR?$AAS@ 000000018002b8d0     FiscalPrinter.obj
 0002:000028e8       ??_C@_1CM@KHNNAOIC@?$AAH?$AAK?$AAE?$AAY?$AA_?$AAP?$AAE?$AAR?$AAF?$AAO?$AAR?$AAM?$AAA?$AAN?$AAC@ 000000018002b8e8     FiscalPrinter.obj
 0002:00002918       ??_C@_1BM@HAGMMHIA@?$AAH?$AAK?$AAE?$AAY?$AA_?$AAD?$AAY?$AAN?$AA_?$AAD?$AAA?$AAT?$AAA@ 000000018002b918     FiscalPrinter.obj
 0002:00002938       _GUID_cf51ed10_62fe_11cf_bf86_00a0c9034836 000000018002b938     FiscalPrinter.obj
 0002:00002948       ??_C@_1CI@BBJOACGG@?$AAH?$AAK?$AAE?$AAY?$AA_?$AAC?$AAU?$AAR?$AAR?$AAE?$AAN?$AAT?$AA_?$AAC?$AAO@ 000000018002b948     FiscalPrinter.obj
 0002:00002970       _GUID_0000010a_0000_0000_c000_000000000046 000000018002b970     FiscalPrinter.obj
 0002:00002980       _GUID_00000109_0000_0000_c000_000000000046 000000018002b980     FiscalPrinter.obj
 0002:00002990       _GUID_b196b283_bab4_101a_b69c_00aa00341d07 000000018002b990     FiscalPrinter.obj
 0002:000029a0       _GUID_7fd52380_4e07_101b_ae2d_08002b2ec713 000000018002b9a0     FiscalPrinter.obj
 0002:000029b0       _GUID_cb5bdc81_93c1_11cf_8f20_00805f2cd064 000000018002b9b0     FiscalPrinter.obj
 0002:000029c0       ?pPropMap@?1??GetPropertyMap@COPOSFiscalPrinter@@SAPEBUATL_PROPMAP_ENTRY@ATL@@XZ@4QBU34@B 000000018002b9c0     FiscalPrinter.obj
 0002:00002a68       ??_C@_17DGDADEHL@?$AA_?$AAc?$AAx@ 000000018002ba68     FiscalPrinter.obj
 0002:00002a70       ??_C@_17IOIMFDBO@?$AA_?$AAc?$AAy@ 000000018002ba70     FiscalPrinter.obj
 0002:00002a78       _GUID_00000112_0000_0000_c000_000000000046 000000018002ba78     FiscalPrinter.obj
 0002:00002a90       ??_C@_1EA@NHKLICFA@?$AAH?$AAK?$AAC?$AAU?$AA?$AN?$AA?6?$AA?$HL?$AA?7?$AAS?$AAo?$AAf?$AAt?$AAw?$AAa?$AAr@ 000000018002ba90     FiscalPrinter.obj
 0002:00002ad0       ??_C@_1BE@LJOLIMEM@?$AA?$AN?$AA?6?$AA?7?$AA?$HN?$AA?$AN?$AA?6?$AA?$HN?$AA?$AN?$AA?6@ 000000018002bad0     FiscalPrinter.obj
 0002:00002ae8       ??_7?$CComObjectCached@VCComClassFactory@ATL@@@ATL@@6B@ 000000018002bae8     FiscalPrinter.obj
 0002:00002b18       _GUID_3af24292_0c96_11ce_a0cf_00aa00600ab8 000000018002bb18     FiscalPrinter.obj
 0002:00002b28       _GUID_00000127_0000_0000_c000_000000000046 000000018002bb28     FiscalPrinter.obj
 0002:00002b38       _GUID_0000010d_0000_0000_c000_000000000046 000000018002bb38     FiscalPrinter.obj
 0002:00002b48       ??_C@_1CE@PGFMOFKI@?$AAS?$AAt?$AAa?$AAt?$AAu?$AAs?$AAU?$AAp?$AAd?$AAa?$AAt?$AAe?$AAE?$AAv?$AAe@ 000000018002bb48     FiscalPrinter.obj
 0002:00002b70       ??_C@_1CI@HLBJDONE@?$AAO?$AAu?$AAt?$AAp?$AAu?$AAt?$AAC?$AAo?$AAm?$AAp?$AAl?$AAe?$AAt?$AAe?$AAE@ 000000018002bb70     FiscalPrinter.obj
 0002:00002b98       ??_C@_1BG@LODEBHDD@?$AAE?$AAr?$AAr?$AAo?$AAr?$AAE?$AAv?$AAe?$AAn?$AAt@ 000000018002bb98     FiscalPrinter.obj
 0002:00002bb0       ??_C@_1BM@CBGEBBBJ@?$AAD?$AAi?$AAr?$AAe?$AAc?$AAt?$AAI?$AAO?$AAE?$AAv?$AAe?$AAn?$AAt@ 000000018002bbb0     FiscalPrinter.obj
 0002:00002bd0       _GUID_b196b286_bab4_101a_b69c_00aa00341d07 000000018002bbd0     FiscalPrinter.obj
 0002:00002be0       ??_C@_1O@MNLDABAF@?$AAM?$AAo?$AAd?$AAu?$AAl?$AAe@ 000000018002bbe0     FiscalPrinter.obj
 0002:00002bf0       ??_C@_1BG@JBACFMF@?$AAM?$AAo?$AAd?$AAu?$AAl?$AAe?$AA_?$AAR?$AAa?$AAw@ 000000018002bbf0     FiscalPrinter.obj
 0002:00002c08       ??_C@_1BC@KAILKFFG@?$AAR?$AAE?$AAG?$AAI?$AAS?$AAT?$AAR?$AAY@ 000000018002bc08     FiscalPrinter.obj
 0002:00002c20       ??_C@_1BC@ENICKDH@?$AAC?$AAo?$AAn?$AAt?$AAe?$AAn?$AAt?$AAs@ 000000018002bc20     FiscalPrinter.obj
 0002:00002c38       ??_7?$CComObject@V?$CComEnum@UIEnumConnectionPoints@@$1?_GUID_b196b285_bab4_101a_b69c_00aa00341d07@@3U__s_GUID@@BPEAUIConnectionPoint@@V?$_CopyInterface@UIConnectionPoint@@@ATL@@VCComSingleThreadModel@6@@ATL@@@ATL@@6B@ 000000018002bc38     FiscalPrinter.obj
 0002:00002c78       ??_C@_1O@GBFKGNEO@?$AAA?$AAT?$AAL?$AA?3?$AA?$CF?$AAp@ 000000018002bc78     FiscalPrinter.obj
 0002:00002c88       ??_C@_1BA@PICGEGJB@?$AAD?$AAI?$AAS?$AAP?$AAL?$AAA?$AAY@ 000000018002bc88     FiscalPrinter.obj
 0002:00002c98       _GUID_b196b284_bab4_101a_b69c_00aa00341d07 000000018002bc98     FiscalPrinter.obj
 0002:00002ca8       _GUID_9bfbbc02_eff1_101a_84ed_00aa00341d07 000000018002bca8     FiscalPrinter.obj
 0002:00002cb8       ??_C@_1M@PPPPCDEP@?$AAA?$AAP?$AAP?$AAI?$AAD@ 000000018002bcb8     FiscalPrinter.obj
 0002:00002cc8       ??_C@_0BG@EKFFMJIO@RegOpenKeyTransactedW@ 000000018002bcc8     FiscalPrinter.obj
 0002:00002ce0       ??_C@_0BI@HAKLOOGP@RegDeleteKeyTransactedW@ 000000018002bce0     FiscalPrinter.obj
 0002:00002cf8       ??_C@_0BA@LILAPHGE@RegDeleteKeyExW@ 000000018002bcf8     FiscalPrinter.obj
 0002:00002d08       ??_C@_19ILOCMLCJ@?$AA?4?$AAt?$AAl?$AAb@ 000000018002bd08     FiscalPrinter.obj
 0002:00002d18       _GUID_0002e012_0000_0000_c000_000000000046 000000018002bd18     FiscalPrinter.obj
 0002:00002d28       ??_C@_1O@FHBGLCIO@?$AAC?$AAL?$AAS?$AAI?$AAD?$AA?2@ 000000018002bd28     FiscalPrinter.obj
 0002:00002d38       ??_C@_1CK@IFBKBFAA@?$AA?2?$AAR?$AAe?$AAq?$AAu?$AAi?$AAr?$AAe?$AAd?$AA?5?$AAC?$AAa?$AAt?$AAe?$AAg@ 000000018002bd38     FiscalPrinter.obj
 0002:00002d68       ??_C@_1DA@BIHALFED@?$AA?2?$AAI?$AAm?$AAp?$AAl?$AAe?$AAm?$AAe?$AAn?$AAt?$AAe?$AAd?$AA?5?$AAC?$AAa@ 000000018002bd68     FiscalPrinter.obj
 0002:00002d98       ??_C@_1BK@EDKOLFBJ@?$AAO?$AAL?$AAE?$AAA?$AAU?$AAT?$AA3?$AA2?$AA?4?$AAD?$AAL?$AAL@ 000000018002bd98     FiscalPrinter.obj
 0002:00002db8       ??_C@_0BJ@CNLFOMHB@UnRegisterTypeLibForUser@ 000000018002bdb8     FiscalPrinter.obj
 0002:00002dd8       ??_C@_0BH@LBOMMKPJ@RegisterTypeLibForUser@ 000000018002bdd8     FiscalPrinter.obj
 0002:00002df0       ??_C@_0P@MMNMMLGK@COFreezeEvents@ 000000018002bdf0     FiscalPrinterImpl.obj
 0002:00002e00       ??_C@_0BC@OGCGGIMP@GetPropertyNumber@ 000000018002be00     FiscalPrinterImpl.obj
 0002:00002e18       ??_C@_0BC@MDCNODNB@SetPropertyNumber@ 000000018002be18     FiscalPrinterImpl.obj
 0002:00002e30       ??_C@_0BC@CFCCMIMD@GetPropertyString@ 000000018002be30     FiscalPrinterImpl.obj
 0002:00002e48       ??_C@_0BC@CJEDNN@SetPropertyString@ 000000018002be48     FiscalPrinterImpl.obj
 0002:00002e60       ??_C@_0M@LNPKKKDA@OpenService@ 000000018002be60     FiscalPrinterImpl.obj
 0002:00002e70       ??_C@_0M@PCMCHHMH@CheckHealth@ 000000018002be70     FiscalPrinterImpl.obj
 0002:00002e80       ??_C@_0M@JGMIDNEK@ClaimDevice@ 000000018002be80     FiscalPrinterImpl.obj
 0002:00002e90       ??_C@_0M@JMBCPNGJ@ClearOutput@ 000000018002be90     FiscalPrinterImpl.obj
 0002:00002ea0       ??_C@_0N@DDFIIBMP@CloseService@ 000000018002bea0     FiscalPrinterImpl.obj
 0002:00002eb0       ??_C@_08EEIHICPC@DirectIO@ 000000018002beb0     FiscalPrinterImpl.obj
 0002:00002ec0       ??_C@_0O@BCPMENMJ@ReleaseDevice@ 000000018002bec0     FiscalPrinterImpl.obj
 0002:00002ed0       ??_C@_0BE@JANCNHPE@BeginFiscalDocument@ 000000018002bed0     FiscalPrinterImpl.obj
 0002:00002ee8       ??_C@_0BD@GBEECMFN@BeginFiscalReceipt@ 000000018002bee8     FiscalPrinterImpl.obj
 0002:00002f00       ??_C@_0BB@DHHHDLMN@BeginFixedOutput@ 000000018002bf00     FiscalPrinterImpl.obj
 0002:00002f18       ??_C@_0P@DPMKPLAE@BeginInsertion@ 000000018002bf18     FiscalPrinterImpl.obj
 0002:00002f28       ??_C@_0O@NEDEPHBK@BeginItemList@ 000000018002bf28     FiscalPrinterImpl.obj
 0002:00002f38       ??_C@_0P@FPKCHCGB@BeginNonFiscal@ 000000018002bf38     FiscalPrinterImpl.obj
 0002:00002f48       ??_C@_0N@PCJLGBKP@BeginRemoval@ 000000018002bf48     FiscalPrinterImpl.obj
 0002:00002f58       ??_C@_0O@OOBKDAGL@BeginTraining@ 000000018002bf58     FiscalPrinterImpl.obj
 0002:00002f68       ??_C@_0L@CCHIKHMB@ClearError@ 000000018002bf68     FiscalPrinterImpl.obj
 0002:00002f78       ??_C@_0BC@NOJPFHPM@EndFiscalDocument@ 000000018002bf78     FiscalPrinterImpl.obj
 0002:00002f90       ??_C@_0BB@CIEHHALP@EndFiscalReceipt@ 000000018002bf90     FiscalPrinterImpl.obj
 0002:00002fa8       ??_C@_0P@JMPICPNM@EndFixedOutput@ 000000018002bfa8     FiscalPrinterImpl.obj
 0002:00002fb8       ??_C@_0N@MIHLNKHM@EndInsertion@ 000000018002bfb8     FiscalPrinterImpl.obj
 0002:00002fc8       ??_C@_0M@HECNCIO@EndItemList@ 000000018002bfc8     FiscalPrinterImpl.obj
 0002:00002fd8       ??_C@_0N@KIBDFDBJ@EndNonFiscal@ 000000018002bfd8     FiscalPrinterImpl.obj
 0002:00002fe8       ??_C@_0L@FCEKAOMI@EndRemoval@ 000000018002bfe8     FiscalPrinterImpl.obj
 0002:00002ff8       ??_C@_0M@DNGMBFPP@EndTraining@ 000000018002bff8     FiscalPrinterImpl.obj
 0002:00003008       ??_C@_07PBEPDDHC@GetData@  000000018002c008     FiscalPrinterImpl.obj
 0002:00003010       ??_C@_07JFCDPGHG@GetDate@  000000018002c010     FiscalPrinterImpl.obj
 0002:00003018       ??_C@_0N@EEACCMMB@GetTotalizer@ 000000018002c018     FiscalPrinterImpl.obj
 0002:00003028       ??_C@_0M@CPJMAPCP@GetVatEntry@ 000000018002c028     FiscalPrinterImpl.obj
 0002:00003038       ??_C@_0BG@NPPPNOBE@PrintDuplicateReceipt@ 000000018002c038     FiscalPrinterImpl.obj
 0002:00003050       ??_C@_0BI@IHDALOIG@PrintFiscalDocumentLine@ 000000018002c050     FiscalPrinterImpl.obj
 0002:00003068       ??_C@_0BB@OJCCIGNF@PrintFixedOutput@ 000000018002c068     FiscalPrinterImpl.obj
 0002:00003080       ??_C@_0M@KIMDMICO@PrintNormal@ 000000018002c080     FiscalPrinterImpl.obj
 0002:00003090       ??_C@_0BK@OKPIIOE@PrintPeriodicTotalsReport@ 000000018002c090     FiscalPrinterImpl.obj
 0002:000030b0       ??_C@_0BF@KPAKIBHH@PrintPowerLossReport@ 000000018002c0b0     FiscalPrinterImpl.obj
 0002:000030c8       ??_C@_0N@BHJEGEBP@PrintRecItem@ 000000018002c0c8     FiscalPrinterImpl.obj
 0002:000030d8       ??_C@_0BH@BFNNIPBJ@PrintRecItemAdjustment@ 000000018002c0d8     FiscalPrinterImpl.obj
 0002:000030f0       ??_C@_0BA@HILNJOGA@PrintRecMessage@ 000000018002c0f0     FiscalPrinterImpl.obj
 0002:00003100       ??_C@_0BA@NKKDLPOK@PrintRecNotPaid@ 000000018002c100     FiscalPrinterImpl.obj
 0002:00003110       ??_C@_0P@LLADOIGI@PrintRecRefund@ 000000018002c110     FiscalPrinterImpl.obj
 0002:00003120       ??_C@_0BB@LKACBJKL@PrintRecSubtotal@ 000000018002c120     FiscalPrinterImpl.obj
 0002:00003138       ??_C@_0BL@FMLPIPAA@PrintRecSubtotalAdjustment@ 000000018002c138     FiscalPrinterImpl.obj
 0002:00003158       ??_C@_0O@NJAMDHC@PrintRecTotal@ 000000018002c158     FiscalPrinterImpl.obj
 0002:00003168       ??_C@_0N@KKOEPGPP@PrintRecVoid@ 000000018002c168     FiscalPrinterImpl.obj
 0002:00003178       ??_C@_0BB@EMKMGEFP@PrintRecVoidItem@ 000000018002c178     FiscalPrinterImpl.obj
 0002:00003190       ??_C@_0M@OFJEADGJ@PrintReport@ 000000018002c190     FiscalPrinterImpl.obj
 0002:000031a0       ??_C@_0N@JEIJBGJC@PrintXReport@ 000000018002c1a0     FiscalPrinterImpl.obj
 0002:000031b0       ??_C@_0N@NGKMBBOP@PrintZReport@ 000000018002c1b0     FiscalPrinterImpl.obj
 0002:000031c0       ??_C@_0N@EEINMJEO@ResetPrinter@ 000000018002c1c0     FiscalPrinterImpl.obj
 0002:000031d0       ??_C@_07GNNCMJKH@SetDate@  000000018002c1d0     FiscalPrinterImpl.obj
 0002:000031d8       ??_C@_0O@BLMIAMAB@SetHeaderLine@ 000000018002c1d8     FiscalPrinterImpl.obj
 0002:000031e8       ??_C@_08DGMOJHGI@SetPOSID@ 000000018002c1e8     FiscalPrinterImpl.obj
 0002:000031f8       ??_C@_0BB@FPEDFGN@SetStoreFiscalID@ 000000018002c1f8     FiscalPrinterImpl.obj
 0002:00003210       ??_C@_0P@LODFJIA@SetTrailerLine@ 000000018002c210     FiscalPrinterImpl.obj
 0002:00003220       ??_C@_0M@OPOFEECH@SetVatTable@ 000000018002c220     FiscalPrinterImpl.obj
 0002:00003230       ??_C@_0M@FBAFAKOA@SetVatValue@ 000000018002c230     FiscalPrinterImpl.obj
 0002:00003240       ??_C@_0L@MJPGPCIH@VerifyItem@ 000000018002c240     FiscalPrinterImpl.obj
 0002:00003250       ??_C@_0N@FPDPPAJE@PrintRecCash@ 000000018002c250     FiscalPrinterImpl.obj
 0002:00003260       ??_C@_0BB@NNFMDOML@PrintRecItemFuel@ 000000018002c260     FiscalPrinterImpl.obj
 0002:00003278       ??_C@_0BF@PDFEJOJO@PrintRecItemFuelVoid@ 000000018002c278     FiscalPrinterImpl.obj
 0002:00003290       ??_C@_0BK@EJEMIEBD@PrintRecPackageAdjustment@ 000000018002c290     FiscalPrinterImpl.obj
 0002:000032b0       ??_C@_0BK@LPINOJDE@PrintRecPackageAdjustVoid@ 000000018002c2b0     FiscalPrinterImpl.obj
 0002:000032d0       ??_C@_0BD@LMHMOEAB@PrintRecRefundVoid@ 000000018002c2d0     FiscalPrinterImpl.obj
 0002:000032e8       ??_C@_0BL@KKHOOCCH@PrintRecSubtotalAdjustVoid@ 000000018002c2e8     FiscalPrinterImpl.obj
 0002:00003308       ??_C@_0O@JDHFHLFJ@PrintRecTaxID@ 000000018002c308     FiscalPrinterImpl.obj
 0002:00003318       ??_C@_0M@BBBLKMMB@SetCurrency@ 000000018002c318     FiscalPrinterImpl.obj
 0002:00003328       ??_C@_0BA@GFABKEEE@ResetStatistics@ 000000018002c328     FiscalPrinterImpl.obj
 0002:00003338       ??_C@_0BD@DPALHJGC@RetrieveStatistics@ 000000018002c338     FiscalPrinterImpl.obj
 0002:00003350       ??_C@_0BB@KOHIKNFC@UpdateStatistics@ 000000018002c350     FiscalPrinterImpl.obj
 0002:00003368       ??_C@_0BH@PBKBNMGB@CompareFirmwareVersion@ 000000018002c368     FiscalPrinterImpl.obj
 0002:00003380       ??_C@_0P@FBPDPIPA@UpdateFirmware@ 000000018002c380     FiscalPrinterImpl.obj
 0002:00003390       ??_C@_0BL@MLCJICD@PrintRecItemAdjustmentVoid@ 000000018002c390     FiscalPrinterImpl.obj
 0002:000033b0       ??_C@_0BB@EDNLGNNO@PrintRecItemVoid@ 000000018002c3b0     FiscalPrinterImpl.obj
 0002:000033c8       ??_C@_0BD@FAEBFOHI@PrintRecItemRefund@ 000000018002c3c8     FiscalPrinterImpl.obj
 0002:000033e0       ??_C@_0BH@NICBCHEL@PrintRecItemRefundVoid@ 000000018002c3e0     FiscalPrinterImpl.obj
 0002:000033f8       ??_7?$CProxy_IOPOSEvents@VCOPOSFiscalPrinter@@@@6B@ 000000018002c3f8     FiscalPrinterImpl.obj
 0002:00003438       ??_C@_1BA@IFHENID@?$AA?$FL?$AAE?$AAr?$AAr?$AAo?$AAr?$AA?$FN@ 000000018002c438     FiscalPrinterImpl.obj
 0002:00003448       ??_C@_0DA@JMKLKJNP@SOFTWARE?2OLEforRetail?2ServiceOP@ 000000018002c448     FiscalPrinterImpl.obj
 0002:00003478       ??_C@_1M@IAIJHCCH@?$AAC?$AAl?$AAo?$AAs?$AAe@ 000000018002c478     FiscalPrinterImpl.obj
 0002:00003488       ??_C@_1M@PCPKGJAH@?$AAC?$AAl?$AAa?$AAi?$AAm@ 000000018002c488     FiscalPrinterImpl.obj
 0002:00003498       ??_C@_1BA@NDFKIOCP@?$AAR?$AAe?$AAl?$AAe?$AAa?$AAs?$AAe@ 000000018002c498     FiscalPrinterImpl.obj
 0002:000034a8       ??_C@_0O@JAKJNEAE@FiscalPrinter@ 000000018002c4a8     FiscalPrinterImpl.obj
 0002:000034b8       ??_C@_1BM@IJMNMBPK@?$AAG?$AAe?$AAt?$AAO?$AAp?$AAe?$AAn?$AAR?$AAe?$AAs?$AAu?$AAl?$AAt@ 000000018002c4b8     FiscalPrinterImpl.obj
 0002:000034d8       IID_IDispatch              000000018002c4d8     uuid:oaidl_i.obj
 0002:000034e8       IID_IPropertyNotifySink    000000018002c4e8     uuid:ocidl_i.obj
 0002:000034f8       GUID_NULL                  000000018002c4f8     uuid:cguid_i.obj
 0002:00003508       CLSID_StdGlobalInterfaceTable 000000018002c508     uuid:cguid_i.obj
 0002:00003518       CLSID_StdComponentCategoriesMgr 000000018002c518     uuid:ieguids.obj
 0002:00003528       IID_IUnknown               000000018002c528     uuid:unknwn_i.obj
 0002:00003540       __xmm@ffffffffffffffffffffffffffffffff 000000018002c540     LIBCMT:utility.obj
 0002:00003550       ??_C@_1EC@JIJBPKFM@?$AAa?$AAp?$AAi?$AA?9?$AAm?$AAs?$AA?9?$AAw?$AAi?$AAn?$AA?9?$AAc?$AAo?$AAr?$AAe@ 000000018002c550     LIBCMT:thread_safe_statics.obj
 0002:00003598       ??_C@_1BK@MGMFAEKH@?$AAk?$AAe?$AAr?$AAn?$AAe?$AAl?$AA3?$AA2?$AA?4?$AAd?$AAl?$AAl@ 000000018002c598     LIBCMT:thread_safe_statics.obj
 0002:000035b8       ??_C@_0BJ@JEBJOJFJ@SleepConditionVariableCS@ 000000018002c5b8     LIBCMT:thread_safe_statics.obj
 0002:000035d8       ??_C@_0BJ@PGPPEPCC@WakeAllConditionVariable@ 000000018002c5d8     LIBCMT:thread_safe_statics.obj
 0002:000035f1       ?nothrow@std@@3Unothrow_t@1@B 000000018002c5f1     LIBCMT:std_nothrow.obj
 0002:00003608       _pDefaultRawDllMain        000000018002c608     LIBCMT:dll_dllmain.obj
 0002:00003608       _pRawDllMain               000000018002c608     LIBCMT:dll_dllmain.obj
 0002:00003618       ??_7exception@std@@6B@     000000018002c618     LIBCMT:throw_bad_alloc.obj
 0002:00003628       ??_C@_0BC@EOODALEL@Unknown?5exception@ 000000018002c628     LIBCMT:throw_bad_alloc.obj
 0002:00003648       ??_7bad_alloc@std@@6B@     000000018002c648     LIBCMT:throw_bad_alloc.obj
 0002:00003658       ??_C@_0P@GHFPNOJB@bad?5allocation@ 000000018002c658     LIBCMT:throw_bad_alloc.obj
 0002:00003670       ??_7bad_array_new_length@std@@6B@ 000000018002c670     LIBCMT:throw_bad_alloc.obj
 0002:00003680       ??_C@_0BF@KINCDENJ@bad?5array?5new?5length@ 000000018002c680     LIBCMT:throw_bad_alloc.obj
 0002:000036a0       ??_7type_info@@6B@         000000018002c6a0     LIBCMT:std_type_info_static.obj
 0002:000036a8       GUID_ATLVer110             000000018002c6a8     atls:atlbase.obj
 0002:000036c0       ??_C@_1IC@ONKHOIDK@?$AAE?$AAR?$AAR?$AAO?$AAR?$AA?5?$AA?3?$AA?5?$AAU?$AAn?$AAa?$AAb?$AAl?$AAe?$AA?5@ 000000018002c6c0     atls:atlbase.obj
 0002:00003748       ??_C@_0N@FJEPLCIH@atlthunk?4dll@ 000000018002c748     atls:atlthunk.obj
 0002:00003758       ??_C@_0BG@GAKFHCBM@AtlThunk_AllocateData@ 000000018002c758     atls:atlthunk.obj
 0002:00003770       ??_C@_0BC@JKONFIAH@AtlThunk_InitData@ 000000018002c770     atls:atlthunk.obj
 0002:00003788       ??_C@_0BE@IAOEELAK@AtlThunk_DataToCode@ 000000018002c788     atls:atlthunk.obj
 0002:000037a0       ??_C@_0BC@GBGKAIPI@AtlThunk_FreeData@ 000000018002c7a0     atls:atlthunk.obj
 0002:000037b8       ?s_negLengthTab@FH4@@3QBCB 000000018002c7b8     libvcruntime:risctrnsctrl.obj
 0002:000037c8       ?s_shiftTab@FH4@@3QBEB     000000018002c7c8     libvcruntime:risctrnsctrl.obj
 0002:00003918       _pDestructExceptionObject  000000018002c918     libvcruntime:ehhelpers.obj
 0002:00003928       ??_7bad_exception@std@@6B@ 000000018002c928     libvcruntime:frame.obj
 0002:00003938       ??_C@_0O@DPKOEFFH@bad?5exception@ 000000018002c938     libvcruntime:frame.obj
 0002:00004060       ??_C@_08EHJDFFNH@__based?$CI@ 000000018002d060     libvcruntime:undname.obj
 0002:00004070       ??_C@_07KOLFKCDI@__cdecl@  000000018002d070     libvcruntime:undname.obj
 0002:00004078       ??_C@_08GHMPAG@__pascal@   000000018002d078     libvcruntime:undname.obj
 0002:00004088       ??_C@_09IFJBGAPI@__stdcall@ 000000018002d088     libvcruntime:undname.obj
 0002:00004098       ??_C@_0L@NPHFGOKO@__thiscall@ 000000018002d098     libvcruntime:undname.obj
 0002:000040a8       ??_C@_0L@JMKHOMEK@__fastcall@ 000000018002d0a8     libvcruntime:undname.obj
 0002:000040b8       ??_C@_0N@BCKKPABJ@__vectorcall@ 000000018002d0b8     libvcruntime:undname.obj
 0002:000040c8       ??_C@_09HIJEGCPM@__clrcall@ 000000018002d0c8     libvcruntime:undname.obj
 0002:000040d4       ??_C@_06GHPCKEAG@__eabi@   000000018002d0d4     libvcruntime:undname.obj
 0002:000040e0       ??_C@_09IOPIDJLG@__swift_1@ 000000018002d0e0     libvcruntime:undname.obj
 0002:000040f0       ??_C@_09KFNFGKHF@__swift_2@ 000000018002d0f0     libvcruntime:undname.obj
 0002:00004100       ??_C@_09LMMOFLDE@__swift_3@ 000000018002d100     libvcruntime:undname.obj
 0002:00004110       ??_C@_07JOMMBBKO@__ptr64@  000000018002d110     libvcruntime:undname.obj
 0002:00004118       ??_C@_0L@PILCLIHE@__restrict@ 000000018002d118     libvcruntime:undname.obj
 0002:00004128       ??_C@_0M@GFIIJFMG@__unaligned@ 000000018002d128     libvcruntime:undname.obj
 0002:00004138       ??_C@_09DHDLOLLB@restrict?$CI@ 000000018002d138     libvcruntime:undname.obj
 0002:00004142       ??_C@_00CNPNBAHC@@         000000018002d142     libvcruntime:undname.obj
 0002:00004144       ??_C@_04NIHEBCM@?5new@     000000018002d144     libvcruntime:undname.obj
 0002:00004150       ??_C@_07FPCDHGMM@?5delete@ 000000018002d150     libvcruntime:undname.obj
 0002:00004158       ??_C@_01NEMOKFLO@?$DN@     000000018002d158     libvcruntime:undname.obj
 0002:0000415c       ??_C@_02GPIOPFAK@?$DO?$DO@ 000000018002d15c     libvcruntime:undname.obj
 0002:00004160       ??_C@_02FODMEDOG@?$DM?$DM@ 000000018002d160     libvcruntime:undname.obj
 0002:00004164       ??_C@_01DCLJPIOD@?$CB@     000000018002d164     libvcruntime:undname.obj
 0002:00004168       ??_C@_02EGOFBIJA@?$DN?$DN@ 000000018002d168     libvcruntime:undname.obj
 0002:0000416c       ??_C@_02FDNJECIE@?$CB?$DN@ 000000018002d16c     libvcruntime:undname.obj
 0002:00004170       ??_C@_02GPECMEKF@?$FL?$FN@ 000000018002d170     libvcruntime:undname.obj
 0002:00004178       ??_C@_08LHJFAFGD@operator@ 000000018002d178     libvcruntime:undname.obj
 0002:00004184       ??_C@_02HBOOOICD@?9?$DO@   000000018002d184     libvcruntime:undname.obj
 0002:00004188       ??_C@_01NBENCBCI@?$CK@     000000018002d188     libvcruntime:undname.obj
 0002:0000418c       ??_C@_02ECNGHCIF@?$CL?$CL@ 000000018002d18c     libvcruntime:undname.obj
 0002:00004190       ??_C@_02BAABKJLB@?9?9@     000000018002d190     libvcruntime:undname.obj
 0002:00004194       ??_C@_01JOAMLHOP@?9@       000000018002d194     libvcruntime:undname.obj
 0002:00004198       ??_C@_01MIFGBAGJ@?$CL@     000000018002d198     libvcruntime:undname.obj
 0002:0000419c       ??_C@_01HNPIGOCE@?$CG@     000000018002d19c     libvcruntime:undname.obj
 0002:000041a0       ??_C@_03MNHNFDLC@?9?$DO?$CK@ 000000018002d1a0     libvcruntime:undname.obj
 0002:000041a4       ??_C@_01KMDKNFGN@?1@       000000018002d1a4     libvcruntime:undname.obj
 0002:000041a8       ??_C@_01FGNFDNOH@?$CF@     000000018002d1a8     libvcruntime:undname.obj
 0002:000041ac       ??_C@_01MNNFJEPP@?$DM@     000000018002d1ac     libvcruntime:undname.obj
 0002:000041b0       ??_C@_02EHCHHCKH@?$DM?$DN@ 000000018002d1b0     libvcruntime:undname.obj
 0002:000041b4       ??_C@_01PPODPGHN@?$DO@     000000018002d1b4     libvcruntime:undname.obj
 0002:000041b8       ??_C@_02EEKDKGMJ@?$DO?$DN@ 000000018002d1b8     libvcruntime:undname.obj
 0002:000041bc       ??_C@_01IHBHIGKO@?0@       000000018002d1bc     libvcruntime:undname.obj
 0002:000041c0       ??_C@_02HCKGKOFO@?$CI?$CJ@ 000000018002d1c0     libvcruntime:undname.obj
 0002:000041c4       ??_C@_01PJKLJHI@?$HO@      000000018002d1c4     libvcruntime:undname.obj
 0002:000041c8       ??_C@_01JKBOJNNK@?$FO@     000000018002d1c8     libvcruntime:undname.obj
 0002:000041cc       ??_C@_01DNKMNLPK@?$HM@     000000018002d1cc     libvcruntime:undname.obj
 0002:000041d0       ??_C@_02PPKAJPJL@?$CG?$CG@ 000000018002d1d0     libvcruntime:undname.obj
 0002:000041d4       ??_C@_02NONPIBCD@?$HM?$HM@ 000000018002d1d4     libvcruntime:undname.obj
 0002:000041d8       ??_C@_02FPIMKNGF@?$CK?$DN@ 000000018002d1d8     libvcruntime:undname.obj
 0002:000041dc       ??_C@_02FOEOMHFC@?$CL?$DN@ 000000018002d1dc     libvcruntime:undname.obj
 0002:000041e0       ??_C@_02FKMDLLOA@?9?$DN@   000000018002d1e0     libvcruntime:undname.obj
 0002:000041e4       ??_C@_02FJEHGPIO@?1?$DN@   000000018002d1e4     libvcruntime:undname.obj
 0002:000041e8       ??_C@_02FENAOKFI@?$CF?$DN@ 000000018002d1e8     libvcruntime:undname.obj
 0002:000041ec       ??_C@_03IKFCCPFF@?$DO?$DO?$DN@ 000000018002d1ec     libvcruntime:undname.obj
 0002:000041f0       ??_C@_03CDNPDDLA@?$DM?$DM?$DN@ 000000018002d1f0     libvcruntime:undname.obj
 0002:000041f4       ??_C@_02FGJGFEAB@?$CG?$DN@ 000000018002d1f4     libvcruntime:undname.obj
 0002:000041f8       ??_C@_02DHLNPPGH@?$HM?$DN@ 000000018002d1f8     libvcruntime:undname.obj
 0002:000041fc       ??_C@_02MHEGNOJ@?$FO?$DN@  000000018002d1fc     libvcruntime:undname.obj
 0002:00004200       ??_C@_09IFPLHPGF@?$GAvftable?8@ 000000018002d200     libvcruntime:undname.obj
 0002:00004210       ??_C@_09BLBHBJP@?$GAvbtable?8@ 000000018002d210     libvcruntime:undname.obj
 0002:00004220       ??_C@_07FEEIOKP@?$GAvcall?8@ 000000018002d220     libvcruntime:undname.obj
 0002:00004228       ??_C@_08LLFFHHDJ@?$GAtypeof?8@ 000000018002d228     libvcruntime:undname.obj
 0002:00004238       ??_C@_0BF@KDPPACIK@?$GAlocal?5static?5guard?8@ 000000018002d238     libvcruntime:undname.obj
 0002:00004250       ??_C@_08OBABFOLI@?$GAstring?8@ 000000018002d250     libvcruntime:undname.obj
 0002:00004260       ??_C@_0BD@JDLKDPAB@?$GAvbase?5destructor?8@ 000000018002d260     libvcruntime:undname.obj
 0002:00004278       ??_C@_0BN@DEGPLNFK@?$GAvector?5deleting?5destructor?8@ 000000018002d278     libvcruntime:undname.obj
 0002:00004298       ??_C@_0BO@OBMKPJIG@?$GAdefault?5constructor?5closure?8@ 000000018002d298     libvcruntime:undname.obj
 0002:000042b8       ??_C@_0BN@IMDCHIKM@?$GAscalar?5deleting?5destructor?8@ 000000018002d2b8     libvcruntime:undname.obj
 0002:000042d8       ??_C@_0BO@PFGOCPJJ@?$GAvector?5constructor?5iterator?8@ 000000018002d2d8     libvcruntime:undname.obj
 0002:000042f8       ??_C@_0BN@LFPFMEDL@?$GAvector?5destructor?5iterator?8@ 000000018002d2f8     libvcruntime:undname.obj
 0002:00004318       ??_C@_0CE@IKBNEHA@?$GAvector?5vbase?5constructor?5itera@ 000000018002d318     libvcruntime:undname.obj
 0002:00004340       ??_C@_0BL@NILFHHPC@?$GAvirtual?5displacement?5map?8@ 000000018002d340     libvcruntime:undname.obj
 0002:00004360       ??_C@_0CB@JONCMFFK@?$GAeh?5vector?5constructor?5iterator@ 000000018002d360     libvcruntime:undname.obj
 0002:00004388       ??_C@_0CA@GCEOPDGL@?$GAeh?5vector?5destructor?5iterator?8@ 000000018002d388     libvcruntime:undname.obj
 0002:000043a8       ??_C@_0CH@OOJPLCPH@?$GAeh?5vector?5vbase?5constructor?5it@ 000000018002d3a8     libvcruntime:undname.obj
 0002:000043d0       ??_C@_0BL@LLKPOHJI@?$GAcopy?5constructor?5closure?8@ 000000018002d3d0     libvcruntime:undname.obj
 0002:000043f0       ??_C@_0BA@KBCDOMBN@?$GAudt?5returning?8@ 000000018002d3f0     libvcruntime:undname.obj
 0002:00004400       ??_C@_03KLGMFNMG@?$GAEH@   000000018002d400     libvcruntime:undname.obj
 0002:00004404       ??_C@_05KHLCHHI@?$GARTTI@  000000018002d404     libvcruntime:undname.obj
 0002:00004410       ??_C@_0BA@KKLDJDLB@?$GAlocal?5vftable?8@ 000000018002d410     libvcruntime:undname.obj
 0002:00004420       ??_C@_0CE@IIHCMGGL@?$GAlocal?5vftable?5constructor?5clos@ 000000018002d420     libvcruntime:undname.obj
 0002:00004444       ??_C@_06FHBGPFGH@?5new?$FL?$FN@ 000000018002d444     libvcruntime:undname.obj
 0002:00004450       ??_C@_09LBNFPBCA@?5delete?$FL?$FN@ 000000018002d450     libvcruntime:undname.obj
 0002:00004460       ??_C@_0P@HJKNJFNN@?$GAomni?5callsig?8@ 000000018002d460     libvcruntime:undname.obj
 0002:00004470       ??_C@_0BL@CNOONJFP@?$GAplacement?5delete?5closure?8@ 000000018002d470     libvcruntime:undname.obj
 0002:00004490       ??_C@_0BN@CKNJLHMB@?$GAplacement?5delete?$FL?$FN?5closure?8@ 000000018002d490     libvcruntime:undname.obj
 0002:000044b0       ??_C@_0CG@CFDHKGGD@?$GAmanaged?5vector?5constructor?5ite@ 000000018002d4b0     libvcruntime:undname.obj
 0002:000044d8       ??_C@_0CF@IMGKMJNO@?$GAmanaged?5vector?5destructor?5iter@ 000000018002d4d8     libvcruntime:undname.obj
 0002:00004500       ??_C@_0CG@HLDDJMAG@?$GAeh?5vector?5copy?5constructor?5ite@ 000000018002d500     libvcruntime:undname.obj
 0002:00004528       ??_C@_0CM@FCBBDIGB@?$GAeh?5vector?5vbase?5copy?5construct@ 000000018002d528     libvcruntime:undname.obj
 0002:00004558       ??_C@_0BL@CLIPGLGB@?$GAdynamic?5initializer?5for?5?8@ 000000018002d558     libvcruntime:undname.obj
 0002:00004578       ??_C@_0CB@PDBIFEP@?$GAdynamic?5atexit?5destructor?5for?5@ 000000018002d578     libvcruntime:undname.obj
 0002:000045a0       ??_C@_0CD@CGAJBKEJ@?$GAvector?5copy?5constructor?5iterat@ 000000018002d5a0     libvcruntime:undname.obj
 0002:000045c8       ??_C@_0CJ@GJELGAMM@?$GAvector?5vbase?5copy?5constructor?5@ 000000018002d5c8     libvcruntime:undname.obj
 0002:000045f8       ??_C@_0CL@FGIJHLCE@?$GAmanaged?5vector?5copy?5constructo@ 000000018002d5f8     libvcruntime:undname.obj
 0002:00004628       ??_C@_0BM@PMGGMLDN@?$GAlocal?5static?5thread?5guard?8@ 000000018002d628     libvcruntime:undname.obj
 0002:00004648       ??_C@_0N@BDNMDMOL@operator?5?$CC?$CC?5@ 000000018002d648     libvcruntime:undname.obj
 0002:00004658       ??_C@_0BC@GGEBGALA@operator?5co_await@ 000000018002d658     libvcruntime:undname.obj
 0002:00004670       ??_C@_0M@GAAIMMOH@operator?$DM?$DN?$DO@ 000000018002d670     libvcruntime:undname.obj
 0002:00004680       ??_C@_0BC@DAFEJGAK@?5Type?5Descriptor?8@ 000000018002d680     libvcruntime:undname.obj
 0002:00004698       ??_C@_0BM@LDKODKLH@?5Base?5Class?5Descriptor?5at?5?$CI@ 000000018002d698     libvcruntime:undname.obj
 0002:000046b8       ??_C@_0BD@LGICGFMM@?5Base?5Class?5Array?8@ 000000018002d6b8     libvcruntime:undname.obj
 0002:000046d0       ??_C@_0BN@MECKDCOJ@?5Class?5Hierarchy?5Descriptor?8@ 000000018002d6d0     libvcruntime:undname.obj
 0002:000046f0       ??_C@_0BK@CFCOFLF@?5Complete?5Object?5Locator?8@ 000000018002d6f0     libvcruntime:undname.obj
 0002:00004710       ??_C@_0BG@JNJLAMPM@?$GAanonymous?5namespace?8@ 000000018002d710     libvcruntime:undname.obj
 0002:00004740       ??_C@_1DM@KHCHBNEB@?$AAa?$AAp?$AAi?$AA?9?$AAm?$AAs?$AA?9?$AAw?$AAi?$AAn?$AA?9?$AAc?$AAo?$AAr?$AAe@ 000000018002d740     libvcruntime:winapi_downlevel.obj
 0002:00004780       ??_C@_1DK@LPPGFMPP@?$AAa?$AAp?$AAi?$AA?9?$AAm?$AAs?$AA?9?$AAw?$AAi?$AAn?$AA?9?$AAc?$AAo?$AAr?$AAe@ 000000018002d780     libvcruntime:winapi_downlevel.obj
 0002:000047c0       ??_C@_1BC@GDMECMAK@?$AAk?$AAe?$AAr?$AAn?$AAe?$AAl?$AA3?$AA2@ 000000018002d7c0     libvcruntime:winapi_downlevel.obj
 0002:000047d8       ??_C@_1BA@PFFKHIOG@?$AAa?$AAp?$AAi?$AA?9?$AAm?$AAs?$AA?9@ 000000018002d7d8     libvcruntime:winapi_downlevel.obj
 0002:000047f0       ??_C@_08KNHFBNJ@FlsAlloc@  000000018002d7f0     libvcruntime:winapi_downlevel.obj
 0002:00004808       ??_C@_07PEJMOBNF@FlsFree@  000000018002d808     libvcruntime:winapi_downlevel.obj
 0002:00004818       ??_C@_0M@GDNOONDI@FlsGetValue@ 000000018002d818     libvcruntime:winapi_downlevel.obj
 0002:00004830       ??_C@_0M@JCPCPOEF@FlsSetValue@ 000000018002d830     libvcruntime:winapi_downlevel.obj
 0002:00004848       ??_C@_0BM@HCFOFFN@InitializeCriticalSectionEx@ 000000018002d848     libvcruntime:winapi_downlevel.obj
 0002:000049e0       ?format_validation_lookup_table_spectre@__crt_stdio_output@@3V?$spectre_mitigated_lookup_table@Ustate_transition_pair@__crt_stdio_output@@$0IA@@1@B 000000018002d9e0     libucrt:output.obj
 0002:00004ae0       ??_C@_1O@CEDCILHN@?$AA?$CI?$AAn?$AAu?$AAl?$AAl?$AA?$CJ@ 000000018002dae0     libucrt:output.obj
 0002:00004af0       ??_C@_06OJHGLDPL@?$CInull?$CJ@ 000000018002daf0     libucrt:output.obj
 0002:00004b00       __acrt_exception_action_table 000000018002db00     libucrt:exception_filter.obj
 0002:00004bc0       __acrt_signal_action_table_count 000000018002dbc0     libucrt:exception_filter.obj
 0002:00004bc8       __acrt_signal_action_first_fpe_index 000000018002dbc8     libucrt:exception_filter.obj
 0002:00004bd0       __acrt_signal_action_fpe_count 000000018002dbd0     libucrt:exception_filter.obj
 0002:00004c28       ??_C@_1BI@BGOHAHKC@?$AAm?$AAs?$AAc?$AAo?$AAr?$AAe?$AAe?$AA?4?$AAd?$AAl?$AAl@ 000000018002dc28     libucrt:exit.obj
 0002:00004c40       ??_C@_0P@MIGLKIOC@CorExitProcess@ 000000018002dc40     libucrt:exit.obj
 0002:00004da0       __lc_time_c                000000018002dda0     libucrt:nlsdata.obj
 0002:00005060       ??_C@_03KOEHGMDN@Sun@      000000018002e060     libucrt:nlsdata.obj
 0002:00005064       ??_C@_03PDAGKDH@Mon@       000000018002e064     libucrt:nlsdata.obj
 0002:00005068       ??_C@_03NAGEINEP@Tue@      000000018002e068     libucrt:nlsdata.obj
 0002:0000506c       ??_C@_03MHOMLAJA@Wed@      000000018002e06c     libucrt:nlsdata.obj
 0002:00005070       ??_C@_03IOFIKPDN@Thu@      000000018002e070     libucrt:nlsdata.obj
 0002:00005074       ??_C@_03IDIOELNC@Fri@      000000018002e074     libucrt:nlsdata.obj
 0002:00005078       ??_C@_03FEFJNEK@Sat@       000000018002e078     libucrt:nlsdata.obj
 0002:0000507c       ??_C@_06OOPIFAJ@Sunday@    000000018002e07c     libucrt:nlsdata.obj
 0002:00005084       ??_C@_06JLEDEDGH@Monday@   000000018002e084     libucrt:nlsdata.obj
 0002:00005090       ??_C@_07BAAGCFCM@Tuesday@  000000018002e090     libucrt:nlsdata.obj
 0002:00005098       ??_C@_09DLIGFAKA@Wednesday@ 000000018002e098     libucrt:nlsdata.obj
 0002:000050a8       ??_C@_08HACCIKIA@Thursday@ 000000018002e0a8     libucrt:nlsdata.obj
 0002:000050b4       ??_C@_06JECMNKMI@Friday@   000000018002e0b4     libucrt:nlsdata.obj
 0002:000050c0       ??_C@_08INBOOONO@Saturday@ 000000018002e0c0     libucrt:nlsdata.obj
 0002:000050cc       ??_C@_03JIHJHPIE@Jan@      000000018002e0cc     libucrt:nlsdata.obj
 0002:000050d0       ??_C@_03HJBDCHOM@Feb@      000000018002e0d0     libucrt:nlsdata.obj
 0002:000050d4       ??_C@_03ODNJBKGA@Mar@      000000018002e0d4     libucrt:nlsdata.obj
 0002:000050d8       ??_C@_03LEOLGMJP@Apr@      000000018002e0d8     libucrt:nlsdata.obj
 0002:000050dc       ??_C@_03CNMDKL@May@        000000018002e0dc     libucrt:nlsdata.obj
 0002:000050e0       ??_C@_03IDFGHECI@Jun@      000000018002e0e0     libucrt:nlsdata.obj
 0002:000050e4       ??_C@_03LBGABGKK@Jul@      000000018002e0e4     libucrt:nlsdata.obj
 0002:000050e8       ??_C@_03IFJFEIGA@Aug@      000000018002e0e8     libucrt:nlsdata.obj
 0002:000050ec       ??_C@_03GGCAPAJC@Sep@      000000018002e0ec     libucrt:nlsdata.obj
 0002:000050f0       ??_C@_03BMAOKBAD@Oct@      000000018002e0f0     libucrt:nlsdata.obj
 0002:000050f4       ??_C@_03JPJOFNIA@Nov@      000000018002e0f4     libucrt:nlsdata.obj
 0002:000050f8       ??_C@_03MKABNOCG@Dec@      000000018002e0f8     libucrt:nlsdata.obj
 0002:00005100       ??_C@_07CGJPFGJA@January@  000000018002e100     libucrt:nlsdata.obj
 0002:00005108       ??_C@_08GNJGEPFN@February@ 000000018002e108     libucrt:nlsdata.obj
 0002:00005114       ??_C@_05HPCKOFNC@March@    000000018002e114     libucrt:nlsdata.obj
 0002:0000511c       ??_C@_05DMJDNLEJ@April@    000000018002e11c     libucrt:nlsdata.obj
 0002:00005124       ??_C@_04CNLMGBGM@June@     000000018002e124     libucrt:nlsdata.obj
 0002:0000512c       ??_C@_04MIEPOIFP@July@     000000018002e12c     libucrt:nlsdata.obj
 0002:00005134       ??_C@_06LBBHFDDG@August@   000000018002e134     libucrt:nlsdata.obj
 0002:00005140       ??_C@_09BHHEALKD@September@ 000000018002e140     libucrt:nlsdata.obj
 0002:00005150       ??_C@_07JJNFCEND@October@  000000018002e150     libucrt:nlsdata.obj
 0002:00005158       ??_C@_08HCHEGEOA@November@ 000000018002e158     libucrt:nlsdata.obj
 0002:00005168       ??_C@_08EDHMEBNP@December@ 000000018002e168     libucrt:nlsdata.obj
 0002:00005174       ??_C@_02DEDBPAFC@AM@       000000018002e174     libucrt:nlsdata.obj
 0002:00005178       ??_C@_02CJNFDJBF@PM@       000000018002e178     libucrt:nlsdata.obj
 0002:00005180       ??_C@_08BPBNCDIB@MM?1dd?1yy@ 000000018002e180     libucrt:nlsdata.obj
 0002:00005190       ??_C@_0BE@CKGJFCPC@dddd?0?5MMMM?5dd?0?5yyyy@ 000000018002e190     libucrt:nlsdata.obj
 0002:000051a8       ??_C@_08JCCMCCIL@HH?3mm?3ss@ 000000018002e1a8     libucrt:nlsdata.obj
 0002:000051b8       ??_C@_17MBGCMIPB@?$AAS?$AAu?$AAn@ 000000018002e1b8     libucrt:nlsdata.obj
 0002:000051c0       ??_C@_17KBOMKBF@?$AAM?$AAo?$AAn@ 000000018002e1c0     libucrt:nlsdata.obj
 0002:000051c8       ??_C@_17BMKGEGOJ@?$AAT?$AAu?$AAe@ 000000018002e1c8     libucrt:nlsdata.obj
 0002:000051d0       ??_C@_17CJEDCEPE@?$AAW?$AAe?$AAd@ 000000018002e1d0     libucrt:nlsdata.obj
 0002:000051d8       ??_C@_17PDPHAADD@?$AAT?$AAh?$AAu@ 000000018002e1d8     libucrt:nlsdata.obj
 0002:000051e0       ??_C@_17HFOLPPLP@?$AAF?$AAr?$AAi@ 000000018002e1e0     libucrt:nlsdata.obj
 0002:000051e8       ??_C@_17GGIBDPIH@?$AAS?$AAa?$AAt@ 000000018002e1e8     libucrt:nlsdata.obj
 0002:000051f0       ??_C@_1O@IHNHDHPB@?$AAS?$AAu?$AAn?$AAd?$AAa?$AAy@ 000000018002e1f0     libucrt:nlsdata.obj
 0002:00005200       ??_C@_1O@MMNBFLIA@?$AAM?$AAo?$AAn?$AAd?$AAa?$AAy@ 000000018002e200     libucrt:nlsdata.obj
 0002:00005210       ??_C@_1BA@ENFBFFEK@?$AAT?$AAu?$AAe?$AAs?$AAd?$AAa?$AAy@ 000000018002e210     libucrt:nlsdata.obj
 0002:00005220       ??_C@_1BE@EBOGMDOH@?$AAW?$AAe?$AAd?$AAn?$AAe?$AAs?$AAd?$AAa?$AAy@ 000000018002e220     libucrt:nlsdata.obj
 0002:00005238       ??_C@_1BC@HHMNLIHE@?$AAT?$AAh?$AAu?$AAr?$AAs?$AAd?$AAa?$AAy@ 000000018002e238     libucrt:nlsdata.obj
 0002:00005250       ??_C@_1O@PDICJHAG@?$AAF?$AAr?$AAi?$AAd?$AAa?$AAy@ 000000018002e250     libucrt:nlsdata.obj
 0002:00005260       ??_C@_1BC@ENMNNPAJ@?$AAS?$AAa?$AAt?$AAu?$AAr?$AAd?$AAa?$AAy@ 000000018002e260     libucrt:nlsdata.obj
 0002:00005278       ??_C@_17DKNBKCHM@?$AAJ?$AAa?$AAn@ 000000018002e278     libucrt:nlsdata.obj
 0002:00005280       ??_C@_17LMDJEKJN@?$AAF?$AAe?$AAb@ 000000018002e280     libucrt:nlsdata.obj
 0002:00005288       ??_C@_17CKNLEDEC@?$AAM?$AAa?$AAr@ 000000018002e288     libucrt:nlsdata.obj
 0002:00005290       ??_C@_17LFPOIHDD@?$AAA?$AAp?$AAr@ 000000018002e290     libucrt:nlsdata.obj
 0002:00005298       ??_C@_17PNNKMEED@?$AAM?$AAa?$AAy@ 000000018002e298     libucrt:nlsdata.obj
 0002:000052a0       ??_C@_17KCJGOCPB@?$AAJ?$AAu?$AAn@ 000000018002e2a0     libucrt:nlsdata.obj
 0002:000052a8       ??_C@_17IJPCKHK@?$AAJ?$AAu?$AAl@ 000000018002e2a8     libucrt:nlsdata.obj
 0002:000052b0       ??_C@_17ICPELBCN@?$AAA?$AAu?$AAg@ 000000018002e2b0     libucrt:nlsdata.obj
 0002:000052b8       ??_C@_17HCHCOKMG@?$AAS?$AAe?$AAp@ 000000018002e2b8     libucrt:nlsdata.obj
 0002:000052c0       ??_C@_17FNLKOI@?$AAO?$AAc?$AAt@ 000000018002e2c0     libucrt:nlsdata.obj
 0002:000052c8       ??_C@_17BBDMLCIG@?$AAN?$AAo?$AAv@ 000000018002e2c8     libucrt:nlsdata.obj
 0002:000052d0       ??_C@_17EGKACKIF@?$AAD?$AAe?$AAc@ 000000018002e2d0     libucrt:nlsdata.obj
 0002:000052d8       ??_C@_1BA@EFMEIEBA@?$AAJ?$AAa?$AAn?$AAu?$AAa?$AAr?$AAy@ 000000018002e2d8     libucrt:nlsdata.obj
 0002:000052e8       ??_C@_1BC@JGDDFFAM@?$AAF?$AAe?$AAb?$AAr?$AAu?$AAa?$AAr?$AAy@ 000000018002e2e8     libucrt:nlsdata.obj
 0002:00005300       ??_C@_1M@IKEENEDF@?$AAM?$AAa?$AAr?$AAc?$AAh@ 000000018002e300     libucrt:nlsdata.obj
 0002:00005310       ??_C@_1M@GJNLMHFD@?$AAA?$AAp?$AAr?$AAi?$AAl@ 000000018002e310     libucrt:nlsdata.obj
 0002:00005320       ??_C@_19EPFLPGAP@?$AAJ?$AAu?$AAn?$AAe@ 000000018002e320     libucrt:nlsdata.obj
 0002:00005330       ??_C@_19BIFMLPCD@?$AAJ?$AAu?$AAl?$AAy@ 000000018002e330     libucrt:nlsdata.obj
 0002:00005340       ??_C@_1O@PAHLKOAC@?$AAA?$AAu?$AAg?$AAu?$AAs?$AAt@ 000000018002e340     libucrt:nlsdata.obj
 0002:00005350       ??_C@_1BE@DKAAMBJL@?$AAS?$AAe?$AAp?$AAt?$AAe?$AAm?$AAb?$AAe?$AAr@ 000000018002e350     libucrt:nlsdata.obj
 0002:00005368       ??_C@_1BA@EPANDLNG@?$AAO?$AAc?$AAt?$AAo?$AAb?$AAe?$AAr@ 000000018002e368     libucrt:nlsdata.obj
 0002:00005378       ??_C@_1BC@BGLIFPF@?$AAN?$AAo?$AAv?$AAe?$AAm?$AAb?$AAe?$AAr@ 000000018002e378     libucrt:nlsdata.obj
 0002:00005390       ??_C@_1BC@FEMKIFH@?$AAD?$AAe?$AAc?$AAe?$AAm?$AAb?$AAe?$AAr@ 000000018002e390     libucrt:nlsdata.obj
 0002:000053a4       ??_C@_15ODEHAHHF@?$AAA?$AAM@ 000000018002e3a4     libucrt:nlsdata.obj
 0002:000053ac       ??_C@_15CLMNNGEL@?$AAP?$AAM@ 000000018002e3ac     libucrt:nlsdata.obj
 0002:000053b8       ??_C@_1BC@IEBCMHCM@?$AAM?$AAM?$AA?1?$AAd?$AAd?$AA?1?$AAy?$AAy@ 000000018002e3b8     libucrt:nlsdata.obj
 0002:000053d0       ??_C@_1CI@KNAKOEBC@?$AAd?$AAd?$AAd?$AAd?$AA?0?$AA?5?$AAM?$AAM?$AAM?$AAM?$AA?5?$AAd?$AAd?$AA?0?$AA?5@ 000000018002e3d0     libucrt:nlsdata.obj
 0002:000053f8       ??_C@_1BC@GDGBMEMK@?$AAH?$AAH?$AA?3?$AAm?$AAm?$AA?3?$AAs?$AAs@ 000000018002e3f8     libucrt:nlsdata.obj
 0002:00005410       ??_C@_1M@BMHNFIME@?$AAe?$AAn?$AA?9?$AAU?$AAS@ 000000018002e410     libucrt:nlsdata.obj
 0002:000054c0       ??_C@_1EA@JGEFHKEI@?$AAa?$AAp?$AAi?$AA?9?$AAm?$AAs?$AA?9?$AAw?$AAi?$AAn?$AA?9?$AAc?$AAo?$AAr?$AAe@ 000000018002e4c0     libucrt:winapi_thunks.obj
 0002:00005500       ??_C@_1DI@IJCEHOCB@?$AAa?$AAp?$AAi?$AA?9?$AAm?$AAs?$AA?9?$AAw?$AAi?$AAn?$AA?9?$AAc?$AAo?$AAr?$AAe@ 000000018002e500     libucrt:winapi_thunks.obj
 0002:00005540       ??_C@_1EI@MPIAOHOC@?$AAa?$AAp?$AAi?$AA?9?$AAm?$AAs?$AA?9?$AAw?$AAi?$AAn?$AA?9?$AAc?$AAo?$AAr?$AAe@ 000000018002e540     libucrt:winapi_thunks.obj
 0002:00005590       ??_C@_1FK@FPHCKFIE@?$AAa?$AAp?$AAi?$AA?9?$AAm?$AAs?$AA?9?$AAw?$AAi?$AAn?$AA?9?$AAc?$AAo?$AAr?$AAe@ 000000018002e590     libucrt:winapi_thunks.obj
 0002:000055f0       ??_C@_1EM@DILCGIIO@?$AAa?$AAp?$AAi?$AA?9?$AAm?$AAs?$AA?9?$AAw?$AAi?$AAn?$AA?9?$AAc?$AAo?$AAr?$AAe@ 000000018002e5f0     libucrt:winapi_thunks.obj
 0002:00005640       ??_C@_1DM@LNCGDDPN@?$AAa?$AAp?$AAi?$AA?9?$AAm?$AAs?$AA?9?$AAw?$AAi?$AAn?$AA?9?$AAc?$AAo?$AAr?$AAe@ 000000018002e640     libucrt:winapi_thunks.obj
 0002:00005680       ??_C@_1DO@FPAPJEMD@?$AAa?$AAp?$AAi?$AA?9?$AAm?$AAs?$AA?9?$AAw?$AAi?$AAn?$AA?9?$AAc?$AAo?$AAr?$AAe@ 000000018002e680     libucrt:winapi_thunks.obj
 0002:000056c0       ??_C@_1DK@NDHNAHIO@?$AAa?$AAp?$AAi?$AA?9?$AAm?$AAs?$AA?9?$AAw?$AAi?$AAn?$AA?9?$AAc?$AAo?$AAr?$AAe@ 000000018002e6c0     libucrt:winapi_thunks.obj
 0002:00005700       ??_C@_1DM@KGHDGBCM@?$AAa?$AAp?$AAi?$AA?9?$AAm?$AAs?$AA?9?$AAw?$AAi?$AAn?$AA?9?$AAc?$AAo?$AAr?$AAe@ 000000018002e700     libucrt:winapi_thunks.obj
 0002:00005740       ??_C@_1EO@IJIOEFOH@?$AAa?$AAp?$AAi?$AA?9?$AAm?$AAs?$AA?9?$AAw?$AAi?$AAn?$AA?9?$AAr?$AAt?$AAc?$AAo@ 000000018002e740     libucrt:winapi_thunks.obj
 0002:00005790       ??_C@_1FG@HHGEKANL@?$AAa?$AAp?$AAi?$AA?9?$AAm?$AAs?$AA?9?$AAw?$AAi?$AAn?$AA?9?$AAs?$AAe?$AAc?$AAu@ 000000018002e790     libucrt:winapi_thunks.obj
 0002:000057f0       ??_C@_1EG@DBIOJECG@?$AAe?$AAx?$AAt?$AA?9?$AAm?$AAs?$AA?9?$AAw?$AAi?$AAn?$AA?9?$AAn?$AAt?$AAu?$AAs@ 000000018002e7f0     libucrt:winapi_thunks.obj
 0002:00005840       ??_C@_1EO@FIHMJCLF@?$AAe?$AAx?$AAt?$AA?9?$AAm?$AAs?$AA?9?$AAw?$AAi?$AAn?$AA?9?$AAn?$AAt?$AAu?$AAs@ 000000018002e840     libucrt:winapi_thunks.obj
 0002:00005890       ??_C@_1BC@DNHGCMLG@?$AAa?$AAd?$AAv?$AAa?$AAp?$AAi?$AA3?$AA2@ 000000018002e890     libucrt:winapi_thunks.obj
 0002:000058a8       ??_C@_1M@OAIMIKLP@?$AAn?$AAt?$AAd?$AAl?$AAl@ 000000018002e8a8     libucrt:winapi_thunks.obj
 0002:000058c0       ??_C@_1EG@DPGNFKGC@?$AAa?$AAp?$AAi?$AA?9?$AAm?$AAs?$AA?9?$AAw?$AAi?$AAn?$AA?9?$AAa?$AAp?$AAp?$AAm@ 000000018002e8c0     libucrt:winapi_thunks.obj
 0002:00005908       ??_C@_1O@BCCLBEOE@?$AAu?$AAs?$AAe?$AAr?$AA3?$AA2@ 000000018002e908     libucrt:winapi_thunks.obj
 0002:00005918       ??_C@_1BA@IAIFMGEF@?$AAe?$AAx?$AAt?$AA?9?$AAm?$AAs?$AA?9@ 000000018002e918     libucrt:winapi_thunks.obj
 0002:00005930       ??_C@_0BA@FHFNEAED@AreFileApisANSI@ 000000018002e930     libucrt:winapi_thunks.obj
 0002:00005950       ??_C@_0O@KKBNKAPF@LCMapStringEx@ 000000018002e950     libucrt:winapi_thunks.obj
 0002:00005968       ??_C@_0BB@HBDEELFH@LocaleNameToLCID@ 000000018002e968     libucrt:winapi_thunks.obj
 0002:00005980       ??_C@_0CF@OJOFEIGO@AppPolicyGetProcessTerminationM@ 000000018002e980     libucrt:winapi_thunks.obj
 0002:000059b0       ??_C@_0BI@BKLFFAPO@SetThreadStackGuarantee@ 000000018002e9b0     libucrt:winapi_thunks.obj
 0002:00005a50       ??_C@_03OEIAHPBN@INF@      000000018002ea50     libucrt:cvt.obj
 0002:00005a54       ??_C@_03OJHLLCGB@inf@      000000018002ea54     libucrt:cvt.obj
 0002:00005a58       ??_C@_03LKNCIKJB@NAN@      000000018002ea58     libucrt:cvt.obj
 0002:00005a5c       ??_C@_03LHCJEHON@nan@      000000018002ea5c     libucrt:cvt.obj
 0002:00005a60       ??_C@_09OFJJIMPC@NAN?$CISNAN?$CJ@ 000000018002ea60     libucrt:cvt.obj
 0002:00005a70       ??_C@_09IPFBKMDL@nan?$CIsnan?$CJ@ 000000018002ea70     libucrt:cvt.obj
 0002:00005a80       ??_C@_08IKHNHAJ@NAN?$CIIND?$CJ@ 000000018002ea80     libucrt:cvt.obj
 0002:00005a90       ??_C@_08OFCDMILK@nan?$CIind?$CJ@ 000000018002ea90     libucrt:cvt.obj
 0002:00005a9c       ??_C@_05KLBDPFGC@e?$CL000@ 000000018002ea9c     libucrt:cvt.obj
 0002:00005ac8       ??_C@_1M@HPNHIDJI@?$AAj?$AAa?$AA?9?$AAJ?$AAP@ 000000018002eac8     libucrt:mbctype.obj
 0002:00005ad8       ??_C@_1M@BIBDDEMK@?$AAz?$AAh?$AA?9?$AAC?$AAN@ 000000018002ead8     libucrt:mbctype.obj
 0002:00005ae8       ??_C@_1M@JLOOOEGK@?$AAk?$AAo?$AA?9?$AAK?$AAR@ 000000018002eae8     libucrt:mbctype.obj
 0002:00005af8       ??_C@_1M@CLNBBOPM@?$AAz?$AAh?$AA?9?$AAT?$AAW@ 000000018002eaf8     libucrt:mbctype.obj
 0002:00005b10       __newctype                 000000018002eb10     libucrt:ctype.obj
 0002:00005e10       __newclmap                 000000018002ee10     libucrt:ctype.obj
 0002:00005f90       __newcumap                 000000018002ef90     libucrt:ctype.obj
 0002:00006110       ??_C@_15PJPFLCCM@?$AAu?$AAk@ 000000018002f110     libucrt:get_qualified_locale.obj
 0002:00006f60       ??_C@_15EMKDOKLE@?$AAa?$AAr@ 000000018002ff60     libucrt:lcidtoname_downlevel.obj
 0002:00006f68       ??_C@_15KNPADPLH@?$AAb?$AAg@ 000000018002ff68     libucrt:lcidtoname_downlevel.obj
 0002:00006f70       ??_C@_15EDMHLDMO@?$AAc?$AAa@ 000000018002ff70     libucrt:lcidtoname_downlevel.obj
 0002:00006f78       ??_C@_1O@BPEAJADD@?$AAz?$AAh?$AA?9?$AAC?$AAH?$AAS@ 000000018002ff78     libucrt:lcidtoname_downlevel.obj
 0002:00006f88       ??_C@_15LJNHCMNK@?$AAc?$AAs@ 000000018002ff88     libucrt:lcidtoname_downlevel.obj
 0002:00006f90       ??_C@_15FOMCIDHG@?$AAd?$AAa@ 000000018002ff90     libucrt:lcidtoname_downlevel.obj
 0002:00006f98       ??_C@_15NBKABECB@?$AAd?$AAe@ 000000018002ff98     libucrt:lcidtoname_downlevel.obj
 0002:00006fa0       ??_C@_15GHPEIIAO@?$AAe?$AAl@ 000000018002ffa0     libucrt:lcidtoname_downlevel.obj
 0002:00006fa8       ??_C@_15MNPNEAIF@?$AAe?$AAn@ 000000018002ffa8     libucrt:lcidtoname_downlevel.obj
 0002:00006fb0       ??_C@_15GPIOMPMH@?$AAe?$AAs@ 000000018002ffb0     libucrt:lcidtoname_downlevel.obj
 0002:00006fb8       ??_C@_15NGLOAKJC@?$AAf?$AAi@ 000000018002ffb8     libucrt:lcidtoname_downlevel.obj
 0002:00006fc0       ??_C@_15FBKGNKAM@?$AAf?$AAr@ 000000018002ffc0     libucrt:lcidtoname_downlevel.obj
 0002:00006fc8       ??_C@_15KGGCNEFK@?$AAh?$AAe@ 000000018002ffc8     libucrt:lcidtoname_downlevel.obj
 0002:00006fd0       ??_C@_15PGHLIDMF@?$AAh?$AAu@ 000000018002ffd0     libucrt:lcidtoname_downlevel.obj
 0002:00006fd8       ??_C@_15BIEMAPLM@?$AAi?$AAs@ 000000018002ffd8     libucrt:lcidtoname_downlevel.obj
 0002:00006fe0       ??_C@_15IFJLDHAF@?$AAi?$AAt@ 000000018002ffe0     libucrt:lcidtoname_downlevel.obj
 0002:00006fe8       ??_C@_15GEMIOCAG@?$AAj?$AAa@ 000000018002ffe8     libucrt:lcidtoname_downlevel.obj
 0002:00006ff0       ??_C@_15EPELEGJA@?$AAk?$AAo@ 000000018002fff0     libucrt:lcidtoname_downlevel.obj
 0002:00006ff8       ??_C@_15NDDHIMN@?$AAn?$AAl@ 000000018002fff8     libucrt:lcidtoname_downlevel.obj
 0002:00007000       ??_C@_15BPIGNHCD@?$AAn?$AAo@ 0000000180030000     libucrt:lcidtoname_downlevel.obj
 0002:00007008       ??_C@_15DEOPBLCG@?$AAp?$AAl@ 0000000180030008     libucrt:lcidtoname_downlevel.obj
 0002:00007010       ??_C@_15KBECGEFG@?$AAp?$AAt@ 0000000180030010     libucrt:lcidtoname_downlevel.obj
 0002:00007018       ??_C@_15GLJCBFMD@?$AAr?$AAo@ 0000000180030018     libucrt:lcidtoname_downlevel.obj
 0002:00007020       ??_C@_15FEDGKCDI@?$AAr?$AAu@ 0000000180030020     libucrt:lcidtoname_downlevel.obj
 0002:00007028       ??_C@_15GLKMLLHM@?$AAh?$AAr@ 0000000180030028     libucrt:lcidtoname_downlevel.obj
 0002:00007030       ??_C@_15CPKMFBDB@?$AAs?$AAk@ 0000000180030030     libucrt:lcidtoname_downlevel.obj
 0002:00007038       ??_C@_15BAAIOGMK@?$AAs?$AAq@ 0000000180030038     libucrt:lcidtoname_downlevel.obj
 0002:00007040       ??_C@_15INNPNOHD@?$AAs?$AAv@ 0000000180030040     libucrt:lcidtoname_downlevel.obj
 0002:00007048       ??_C@_15CABMMOGH@?$AAt?$AAh@ 0000000180030048     libucrt:lcidtoname_downlevel.obj
 0002:00007050       ??_C@_15BPLIHJJM@?$AAt?$AAr@ 0000000180030050     libucrt:lcidtoname_downlevel.obj
 0002:00007058       ??_C@_15NEOEKKDJ@?$AAu?$AAr@ 0000000180030058     libucrt:lcidtoname_downlevel.obj
 0002:00007060       ??_C@_15NFICGAJK@?$AAi?$AAd@ 0000000180030060     libucrt:lcidtoname_downlevel.obj
 0002:00007068       ??_C@_15HPJPHDM@?$AAb?$AAe@ 0000000180030068     libucrt:lcidtoname_downlevel.obj
 0002:00007070       ??_C@_15LCHLGJII@?$AAs?$AAl@ 0000000180030070     libucrt:lcidtoname_downlevel.obj
 0002:00007078       ??_C@_15PCFJPHHO@?$AAe?$AAt@ 0000000180030078     libucrt:lcidtoname_downlevel.obj
 0002:00007080       ??_C@_15HPFPGODN@?$AAl?$AAv@ 0000000180030080     libucrt:lcidtoname_downlevel.obj
 0002:00007088       ??_C@_15NFFGKGLG@?$AAl?$AAt@ 0000000180030088     libucrt:lcidtoname_downlevel.obj
 0002:00007090       ??_C@_15BDAKCCHN@?$AAf?$AAa@ 0000000180030090     libucrt:lcidtoname_downlevel.obj
 0002:00007098       ??_C@_15NFGIAIAJ@?$AAv?$AAi@ 0000000180030098     libucrt:lcidtoname_downlevel.obj
 0002:000070a0       ??_C@_15LMKNDMHN@?$AAh?$AAy@ 00000001800300a0     libucrt:lcidtoname_downlevel.obj
 0002:000070a8       ??_C@_15IJBHMCFL@?$AAa?$AAz@ 00000001800300a8     libucrt:lcidtoname_downlevel.obj
 0002:000070b0       ??_C@_15EKOFJABL@?$AAe?$AAu@ 00000001800300b0     libucrt:lcidtoname_downlevel.obj
 0002:000070b8       ??_C@_15BGHADCNK@?$AAm?$AAk@ 00000001800300b8     libucrt:lcidtoname_downlevel.obj
 0002:000070c0       ??_C@_15JDNICKHM@?$AAa?$AAf@ 00000001800300c0     libucrt:lcidtoname_downlevel.obj
 0002:000070c8       ??_C@_15KPJEDBKD@?$AAk?$AAa@ 00000001800300c8     libucrt:lcidtoname_downlevel.obj
 0002:000070d0       ??_C@_15PDNFFFEO@?$AAf?$AAo@ 00000001800300d0     libucrt:lcidtoname_downlevel.obj
 0002:000070d8       ??_C@_15OMLEGLOC@?$AAh?$AAi@ 00000001800300d8     libucrt:lcidtoname_downlevel.obj
 0002:000070e0       ??_C@_15IDNNENKK@?$AAm?$AAs@ 00000001800300e0     libucrt:lcidtoname_downlevel.obj
 0002:000070e8       ??_C@_15MACJNBMH@?$AAk?$AAk@ 00000001800300e8     libucrt:lcidtoname_downlevel.obj
 0002:000070f0       ??_C@_15DKDJEOND@?$AAk?$AAy@ 00000001800300f0     libucrt:lcidtoname_downlevel.obj
 0002:000070f8       ??_C@_15DFGDLJBG@?$AAs?$AAw@ 00000001800300f8     libucrt:lcidtoname_downlevel.obj
 0002:00007100       ??_C@_15BBFAICNG@?$AAu?$AAz@ 0000000180030100     libucrt:lcidtoname_downlevel.obj
 0002:00007108       ??_C@_15DKNDCGEA@?$AAt?$AAt@ 0000000180030108     libucrt:lcidtoname_downlevel.obj
 0002:00007110       ??_C@_15MGIFMDPL@?$AAp?$AAa@ 0000000180030110     libucrt:lcidtoname_downlevel.obj
 0002:00007118       ??_C@_15HCNDBBA@?$AAg?$AAu@ 0000000180030118     libucrt:lcidtoname_downlevel.obj
 0002:00007120       ??_C@_15FNBEIBON@?$AAt?$AAa@ 0000000180030120     libucrt:lcidtoname_downlevel.obj
 0002:00007128       ??_C@_15NCHGBGLK@?$AAt?$AAe@ 0000000180030128     libucrt:lcidtoname_downlevel.obj
 0002:00007130       ??_C@_15PHPHCBPF@?$AAk?$AAn@ 0000000180030130     libucrt:lcidtoname_downlevel.obj
 0002:00007138       ??_C@_15DLGBCKMP@?$AAm?$AAr@ 0000000180030138     libucrt:lcidtoname_downlevel.obj
 0002:00007140       ??_C@_15EABBLBFF@?$AAs?$AAa@ 0000000180030140     libucrt:lcidtoname_downlevel.obj
 0002:00007148       ??_C@_15CBKOMCOI@?$AAm?$AAn@ 0000000180030148     libucrt:lcidtoname_downlevel.obj
 0002:00007150       ??_C@_15CKDMCJAF@?$AAg?$AAl@ 0000000180030150     libucrt:lcidtoname_downlevel.obj
 0002:00007158       ??_C@_17CNJFBPG@?$AAk?$AAo?$AAk@ 0000000180030158     libucrt:lcidtoname_downlevel.obj
 0002:00007160       ??_C@_17FFBJICPL@?$AAs?$AAy?$AAr@ 0000000180030160     libucrt:lcidtoname_downlevel.obj
 0002:00007168       ??_C@_17KPNDCPAF@?$AAd?$AAi?$AAv@ 0000000180030168     libucrt:lcidtoname_downlevel.obj
 0002:00007170       ??_C@_1M@OKAHONE@?$AAa?$AAr?$AA?9?$AAS?$AAA@ 0000000180030170     libucrt:lcidtoname_downlevel.obj
 0002:00007180       ??_C@_1M@FFFIGIGK@?$AAb?$AAg?$AA?9?$AAB?$AAG@ 0000000180030180     libucrt:lcidtoname_downlevel.obj
 0002:00007190       ??_C@_1M@BJNKEDC@?$AAc?$AAa?$AA?9?$AAE?$AAS@ 0000000180030190     libucrt:lcidtoname_downlevel.obj
 0002:000071a0       ??_C@_1M@IJJHFJHA@?$AAc?$AAs?$AA?9?$AAC?$AAZ@ 00000001800301a0     libucrt:lcidtoname_downlevel.obj
 0002:000071b0       ??_C@_1M@CLPEOBGI@?$AAd?$AAa?$AA?9?$AAD?$AAK@ 00000001800301b0     libucrt:lcidtoname_downlevel.obj
 0002:000071c0       ??_C@_1M@MCMADGCB@?$AAd?$AAe?$AA?9?$AAD?$AAE@ 00000001800301c0     libucrt:lcidtoname_downlevel.obj
 0002:000071d0       ??_C@_1M@OOCKEMAM@?$AAe?$AAl?$AA?9?$AAG?$AAR@ 00000001800301d0     libucrt:lcidtoname_downlevel.obj
 0002:000071e0       ??_C@_1M@DDNJFGID@?$AAf?$AAi?$AA?9?$AAF?$AAI@ 00000001800301e0     libucrt:lcidtoname_downlevel.obj
 0002:000071f0       ??_C@_1M@GLIPPMAC@?$AAf?$AAr?$AA?9?$AAF?$AAR@ 00000001800301f0     libucrt:lcidtoname_downlevel.obj
 0002:00007200       ??_C@_1M@GFMCHPE@?$AAh?$AAe?$AA?9?$AAI?$AAL@ 0000000180030200     libucrt:lcidtoname_downlevel.obj
 0002:00007210       ??_C@_1M@MHLPGNKM@?$AAh?$AAu?$AA?9?$AAH?$AAU@ 0000000180030210     libucrt:lcidtoname_downlevel.obj
 0002:00007220       ??_C@_1M@LPDDNNPN@?$AAi?$AAs?$AA?9?$AAI?$AAS@ 0000000180030220     libucrt:lcidtoname_downlevel.obj
 0002:00007230       ??_C@_1M@MADIPODN@?$AAi?$AAt?$AA?9?$AAI?$AAT@ 0000000180030230     libucrt:lcidtoname_downlevel.obj
 0002:00007240       ??_C@_1M@IHBJJGG@?$AAn?$AAl?$AA?9?$AAN?$AAL@ 0000000180030240     libucrt:lcidtoname_downlevel.obj
 0002:00007250       ??_C@_1M@EANAGDL@?$AAn?$AAb?$AA?9?$AAN?$AAO@ 0000000180030250     libucrt:lcidtoname_downlevel.obj
 0002:00007260       ??_C@_1M@NEIEMEGP@?$AAp?$AAl?$AA?9?$AAP?$AAL@ 0000000180030260     libucrt:lcidtoname_downlevel.obj
 0002:00007270       ??_C@_1M@BOCFIGEP@?$AAp?$AAt?$AA?9?$AAB?$AAR@ 0000000180030270     libucrt:lcidtoname_downlevel.obj
 0002:00007280       ??_C@_1M@IMPFOPBG@?$AAr?$AAo?$AA?9?$AAR?$AAO@ 0000000180030280     libucrt:lcidtoname_downlevel.obj
 0002:00007290       ??_C@_1M@IDNNEJMM@?$AAr?$AAu?$AA?9?$AAR?$AAU@ 0000000180030290     libucrt:lcidtoname_downlevel.obj
 0002:000072a0       ??_C@_1M@LILEEOGM@?$AAh?$AAr?$AA?9?$AAH?$AAR@ 00000001800302a0     libucrt:lcidtoname_downlevel.obj
 0002:000072b0       ??_C@_1M@FKIFEHPB@?$AAs?$AAk?$AA?9?$AAS?$AAK@ 00000001800302b0     libucrt:lcidtoname_downlevel.obj
 0002:000072c0       ??_C@_1M@LJMAMNPJ@?$AAs?$AAq?$AA?9?$AAA?$AAL@ 00000001800302c0     libucrt:lcidtoname_downlevel.obj
 0002:000072d0       ??_C@_1M@GIAKDKJK@?$AAs?$AAv?$AA?9?$AAS?$AAE@ 00000001800302d0     libucrt:lcidtoname_downlevel.obj
 0002:000072e0       ??_C@_1M@MKJKIKCL@?$AAt?$AAh?$AA?9?$AAT?$AAH@ 00000001800302e0     libucrt:lcidtoname_downlevel.obj
 0002:000072f0       ??_C@_1M@MFLCCMPB@?$AAt?$AAr?$AA?9?$AAT?$AAR@ 00000001800302f0     libucrt:lcidtoname_downlevel.obj
 0002:00007300       ??_C@_1M@OIJHDKJN@?$AAu?$AAr?$AA?9?$AAP?$AAK@ 0000000180030300     libucrt:lcidtoname_downlevel.obj
 0002:00007310       ??_C@_1M@LHIPCIEK@?$AAi?$AAd?$AA?9?$AAI?$AAD@ 0000000180030310     libucrt:lcidtoname_downlevel.obj
 0002:00007320       ??_C@_1M@MFMOBGI@?$AAu?$AAk?$AA?9?$AAU?$AAA@ 0000000180030320     libucrt:lcidtoname_downlevel.obj
 0002:00007330       ??_C@_1M@OBGLJIPL@?$AAb?$AAe?$AA?9?$AAB?$AAY@ 0000000180030330     libucrt:lcidtoname_downlevel.obj
 0002:00007340       ??_C@_1M@BCFAJEAD@?$AAs?$AAl?$AA?9?$AAS?$AAI@ 0000000180030340     libucrt:lcidtoname_downlevel.obj
 0002:00007350       ??_C@_1M@FKFFEDDN@?$AAe?$AAt?$AA?9?$AAE?$AAE@ 0000000180030350     libucrt:lcidtoname_downlevel.obj
 0002:00007360       ??_C@_1M@KGKKAACI@?$AAl?$AAv?$AA?9?$AAL?$AAV@ 0000000180030360     libucrt:lcidtoname_downlevel.obj
 0002:00007370       ??_C@_1M@IFGBIJO@?$AAl?$AAt?$AA?9?$AAL?$AAT@ 0000000180030370     libucrt:lcidtoname_downlevel.obj
 0002:00007380       ??_C@_1M@FGEAHEDM@?$AAf?$AAa?$AA?9?$AAI?$AAR@ 0000000180030380     libucrt:lcidtoname_downlevel.obj
 0002:00007390       ??_C@_1M@KBMAIBFN@?$AAv?$AAi?$AA?9?$AAV?$AAN@ 0000000180030390     libucrt:lcidtoname_downlevel.obj
 0002:000073a0       ??_C@_1M@GPCBKDJK@?$AAh?$AAy?$AA?9?$AAA?$AAM@ 00000001800303a0     libucrt:lcidtoname_downlevel.obj
 0002:000073b0       ??_C@_1BG@BECMDDJB@?$AAa?$AAz?$AA?9?$AAA?$AAZ?$AA?9?$AAL?$AAa?$AAt?$AAn@ 00000001800303b0     libucrt:lcidtoname_downlevel.obj
 0002:000073c8       ??_C@_1M@MAOFCAEA@?$AAe?$AAu?$AA?9?$AAE?$AAS@ 00000001800303c8     libucrt:lcidtoname_downlevel.obj
 0002:000073d8       ??_C@_1M@IGHABKPI@?$AAm?$AAk?$AA?9?$AAM?$AAK@ 00000001800303d8     libucrt:lcidtoname_downlevel.obj
 0002:000073e8       ??_C@_1M@IAIGNEJG@?$AAt?$AAn?$AA?9?$AAZ?$AAA@ 00000001800303e8     libucrt:lcidtoname_downlevel.obj
 0002:000073f8       ??_C@_1M@IIJCOJFA@?$AAx?$AAh?$AA?9?$AAZ?$AAA@ 00000001800303f8     libucrt:lcidtoname_downlevel.obj
 0002:00007408       ??_C@_1M@LGPJHNJH@?$AAz?$AAu?$AA?9?$AAZ?$AAA@ 0000000180030408     libucrt:lcidtoname_downlevel.obj
 0002:00007418       ??_C@_1M@HOKAOIO@?$AAa?$AAf?$AA?9?$AAZ?$AAA@ 0000000180030418     libucrt:lcidtoname_downlevel.obj
 0002:00007428       ??_C@_1M@DPCLHLIE@?$AAk?$AAa?$AA?9?$AAG?$AAE@ 0000000180030428     libucrt:lcidtoname_downlevel.obj
 0002:00007438       ??_C@_1M@BLKMHJBI@?$AAf?$AAo?$AA?9?$AAF?$AAO@ 0000000180030438     libucrt:lcidtoname_downlevel.obj
 0002:00007448       ??_C@_1M@LGGJAPPB@?$AAh?$AAi?$AA?9?$AAI?$AAN@ 0000000180030448     libucrt:lcidtoname_downlevel.obj
 0002:00007458       ??_C@_1M@FIKPIHFE@?$AAm?$AAt?$AA?9?$AAM?$AAT@ 0000000180030458     libucrt:lcidtoname_downlevel.obj
 0002:00007468       ??_C@_1M@HEGGPBFA@?$AAs?$AAe?$AA?9?$AAN?$AAO@ 0000000180030468     libucrt:lcidtoname_downlevel.obj
 0002:00007478       ??_C@_1M@EIBJEEPA@?$AAm?$AAs?$AA?9?$AAM?$AAY@ 0000000180030478     libucrt:lcidtoname_downlevel.obj
 0002:00007488       ??_C@_1M@FHLBGMPP@?$AAk?$AAk?$AA?9?$AAK?$AAZ@ 0000000180030488     libucrt:lcidtoname_downlevel.obj
 0002:00007498       ??_C@_1M@NGJJLCGI@?$AAk?$AAy?$AA?9?$AAK?$AAG@ 0000000180030498     libucrt:lcidtoname_downlevel.obj
 0002:000074a8       ??_C@_1M@GIENNBFC@?$AAs?$AAw?$AA?9?$AAK?$AAE@ 00000001800304a8     libucrt:lcidtoname_downlevel.obj
 0002:000074b8       ??_C@_1BG@NDGMJIMJ@?$AAu?$AAz?$AA?9?$AAU?$AAZ?$AA?9?$AAL?$AAa?$AAt?$AAn@ 00000001800304b8     libucrt:lcidtoname_downlevel.obj
 0002:000074d0       ??_C@_1M@IDCCIHBC@?$AAt?$AAt?$AA?9?$AAR?$AAU@ 00000001800304d0     libucrt:lcidtoname_downlevel.obj
 0002:000074e0       ??_C@_1M@LOICPMOJ@?$AAb?$AAn?$AA?9?$AAI?$AAN@ 00000001800304e0     libucrt:lcidtoname_downlevel.obj
 0002:000074f0       ??_C@_1M@KPKKNEAH@?$AAp?$AAa?$AA?9?$AAI?$AAN@ 00000001800304f0     libucrt:lcidtoname_downlevel.obj
 0002:00007500       ??_C@_1M@PJGPPBOG@?$AAg?$AAu?$AA?9?$AAI?$AAN@ 0000000180030500     libucrt:lcidtoname_downlevel.obj
 0002:00007510       ??_C@_1M@KMKMOPHI@?$AAt?$AAa?$AA?9?$AAI?$AAN@ 0000000180030510     libucrt:lcidtoname_downlevel.obj
 0002:00007520       ??_C@_1M@KFEHEPAC@?$AAt?$AAe?$AA?9?$AAI?$AAN@ 0000000180030520     libucrt:lcidtoname_downlevel.obj
 0002:00007530       ??_C@_1M@CDCLMGHI@?$AAk?$AAn?$AA?9?$AAI?$AAN@ 0000000180030530     libucrt:lcidtoname_downlevel.obj
 0002:00007540       ??_C@_1M@MIODLDKF@?$AAm?$AAl?$AA?9?$AAI?$AAN@ 0000000180030540     libucrt:lcidtoname_downlevel.obj
 0002:00007550       ??_C@_1M@PBIEACPO@?$AAm?$AAr?$AA?9?$AAI?$AAN@ 0000000180030550     libucrt:lcidtoname_downlevel.obj
 0002:00007560       ??_C@_1M@NIDEAGPH@?$AAs?$AAa?$AA?9?$AAI?$AAN@ 0000000180030560     libucrt:lcidtoname_downlevel.obj
 0002:00007570       ??_C@_1M@FHIHCBIO@?$AAm?$AAn?$AA?9?$AAM?$AAN@ 0000000180030570     libucrt:lcidtoname_downlevel.obj
 0002:00007580       ??_C@_1M@JAIJPENP@?$AAc?$AAy?$AA?9?$AAG?$AAB@ 0000000180030580     libucrt:lcidtoname_downlevel.obj
 0002:00007590       ??_C@_1M@PHGFBEPN@?$AAg?$AAl?$AA?9?$AAE?$AAS@ 0000000180030590     libucrt:lcidtoname_downlevel.obj
 0002:000075a0       ??_C@_1O@KPIPDNCP@?$AAk?$AAo?$AAk?$AA?9?$AAI?$AAN@ 00000001800305a0     libucrt:lcidtoname_downlevel.obj
 0002:000075b0       ??_C@_1O@KNHJLDJA@?$AAs?$AAy?$AAr?$AA?9?$AAS?$AAY@ 00000001800305b0     libucrt:lcidtoname_downlevel.obj
 0002:000075c0       ??_C@_1O@MKEKBLAH@?$AAd?$AAi?$AAv?$AA?9?$AAM?$AAV@ 00000001800305c0     libucrt:lcidtoname_downlevel.obj
 0002:000075d0       ??_C@_1O@OHDCKDDF@?$AAq?$AAu?$AAz?$AA?9?$AAB?$AAO@ 00000001800305d0     libucrt:lcidtoname_downlevel.obj
 0002:000075e0       ??_C@_1M@LEPJNLFD@?$AAn?$AAs?$AA?9?$AAZ?$AAA@ 00000001800305e0     libucrt:lcidtoname_downlevel.obj
 0002:000075f0       ??_C@_1M@OMLEIIJB@?$AAm?$AAi?$AA?9?$AAN?$AAZ@ 00000001800305f0     libucrt:lcidtoname_downlevel.obj
 0002:00007600       ??_C@_1M@PMPEAILG@?$AAa?$AAr?$AA?9?$AAI?$AAQ@ 0000000180030600     libucrt:lcidtoname_downlevel.obj
 0002:00007610       ??_C@_1M@CNKPNOEE@?$AAd?$AAe?$AA?9?$AAC?$AAH@ 0000000180030610     libucrt:lcidtoname_downlevel.obj
 0002:00007620       ??_C@_1M@LKMGMLKO@?$AAe?$AAn?$AA?9?$AAG?$AAB@ 0000000180030620     libucrt:lcidtoname_downlevel.obj
 0002:00007630       ??_C@_1M@PGKJFFGL@?$AAe?$AAs?$AA?9?$AAM?$AAX@ 0000000180030630     libucrt:lcidtoname_downlevel.obj
 0002:00007640       ??_C@_1M@DNNANBDC@?$AAf?$AAr?$AA?9?$AAB?$AAE@ 0000000180030640     libucrt:lcidtoname_downlevel.obj
 0002:00007650       ??_C@_1M@HLGMDFHM@?$AAi?$AAt?$AA?9?$AAC?$AAH@ 0000000180030650     libucrt:lcidtoname_downlevel.obj
 0002:00007660       ??_C@_1M@CLLBGJH@?$AAn?$AAl?$AA?9?$AAB?$AAE@ 0000000180030660     libucrt:lcidtoname_downlevel.obj
 0002:00007670       ??_C@_1M@BODBOGLF@?$AAn?$AAn?$AA?9?$AAN?$AAO@ 0000000180030670     libucrt:lcidtoname_downlevel.obj
 0002:00007680       ??_C@_1M@HFFAHKAD@?$AAp?$AAt?$AA?9?$AAP?$AAT@ 0000000180030680     libucrt:lcidtoname_downlevel.obj
 0002:00007690       ??_C@_1BG@LNOAKHIE@?$AAs?$AAr?$AA?9?$AAS?$AAP?$AA?9?$AAL?$AAa?$AAt?$AAn@ 0000000180030690     libucrt:lcidtoname_downlevel.obj
 0002:000076a8       ??_C@_1M@HBMHBGAK@?$AAs?$AAv?$AA?9?$AAF?$AAI@ 00000001800306a8     libucrt:lcidtoname_downlevel.obj
 0002:000076b8       ??_C@_1BG@DGCJGJBE@?$AAa?$AAz?$AA?9?$AAA?$AAZ?$AA?9?$AAC?$AAy?$AAr?$AAl@ 00000001800306b8     libucrt:lcidtoname_downlevel.obj
 0002:000076d0       ??_C@_1M@KEJDAAHB@?$AAs?$AAe?$AA?9?$AAS?$AAE@ 00000001800306d0     libucrt:lcidtoname_downlevel.obj
 0002:000076e0       ??_C@_1M@HEIBJJAD@?$AAm?$AAs?$AA?9?$AAB?$AAN@ 00000001800306e0     libucrt:lcidtoname_downlevel.obj
 0002:000076f0       ??_C@_1BG@PBGJMCEM@?$AAu?$AAz?$AA?9?$AAU?$AAZ?$AA?9?$AAC?$AAy?$AAr?$AAl@ 00000001800306f0     libucrt:lcidtoname_downlevel.obj
 0002:00007708       ??_C@_1O@LAOBCMDF@?$AAq?$AAu?$AAz?$AA?9?$AAE?$AAC@ 0000000180030708     libucrt:lcidtoname_downlevel.obj
 0002:00007718       ??_C@_1M@POEEMAIO@?$AAa?$AAr?$AA?9?$AAE?$AAG@ 0000000180030718     libucrt:lcidtoname_downlevel.obj
 0002:00007728       ??_C@_1M@EFAKDEDL@?$AAz?$AAh?$AA?9?$AAH?$AAK@ 0000000180030728     libucrt:lcidtoname_downlevel.obj
 0002:00007738       ??_C@_1M@HKKIJHGI@?$AAd?$AAe?$AA?9?$AAA?$AAT@ 0000000180030738     libucrt:lcidtoname_downlevel.obj
 0002:00007748       ??_C@_1M@KBFBEHJF@?$AAe?$AAn?$AA?9?$AAA?$AAU@ 0000000180030748     libucrt:lcidtoname_downlevel.obj
 0002:00007758       ??_C@_1M@MNPLFAAH@?$AAe?$AAs?$AA?9?$AAE?$AAS@ 0000000180030758     libucrt:lcidtoname_downlevel.obj
 0002:00007768       ??_C@_1M@HJOOJFMA@?$AAf?$AAr?$AA?9?$AAC?$AAA@ 0000000180030768     libucrt:lcidtoname_downlevel.obj
 0002:00007778       ??_C@_1BG@JPOFPNAB@?$AAs?$AAr?$AA?9?$AAS?$AAP?$AA?9?$AAC?$AAy?$AAr?$AAl@ 0000000180030778     libucrt:lcidtoname_downlevel.obj
 0002:00007790       ??_C@_1M@LNFOCMOB@?$AAs?$AAe?$AA?9?$AAF?$AAI@ 0000000180030790     libucrt:lcidtoname_downlevel.obj
 0002:000077a0       ??_C@_1O@MGJBOAMB@?$AAq?$AAu?$AAz?$AA?9?$AAP?$AAE@ 00000001800307a0     libucrt:lcidtoname_downlevel.obj
 0002:000077b0       ??_C@_1M@GJINLBOK@?$AAa?$AAr?$AA?9?$AAL?$AAY@ 00000001800307b0     libucrt:lcidtoname_downlevel.obj
 0002:000077c0       ??_C@_1M@GGMNHJNL@?$AAz?$AAh?$AA?9?$AAS?$AAG@ 00000001800307c0     libucrt:lcidtoname_downlevel.obj
 0002:000077d0       ??_C@_1M@HOIKODND@?$AAd?$AAe?$AA?9?$AAL?$AAU@ 00000001800307d0     libucrt:lcidtoname_downlevel.obj
 0002:000077e0       ??_C@_1M@DDOCCGFG@?$AAe?$AAn?$AA?9?$AAC?$AAA@ 00000001800307e0     libucrt:lcidtoname_downlevel.obj
 0002:000077f0       ??_C@_1M@BNOEMJLF@?$AAe?$AAs?$AA?9?$AAG?$AAT@ 00000001800307f0     libucrt:lcidtoname_downlevel.obj
 0002:00007800       ??_C@_1M@EOGNKEK@?$AAf?$AAr?$AA?9?$AAC?$AAH@ 0000000180030800     libucrt:lcidtoname_downlevel.obj
 0002:00007810       ??_C@_1M@FLIDJFHL@?$AAh?$AAr?$AA?9?$AAB?$AAA@ 0000000180030810     libucrt:lcidtoname_downlevel.obj
 0002:00007820       ??_C@_1O@FMCELNAJ@?$AAs?$AAm?$AAj?$AA?9?$AAN?$AAO@ 0000000180030820     libucrt:lcidtoname_downlevel.obj
 0002:00007830       ??_C@_1M@JHGLJMGJ@?$AAa?$AAr?$AA?9?$AAD?$AAZ@ 0000000180030830     libucrt:lcidtoname_downlevel.obj
 0002:00007840       ??_C@_1M@JKKFDCNP@?$AAz?$AAh?$AA?9?$AAM?$AAO@ 0000000180030840     libucrt:lcidtoname_downlevel.obj
 0002:00007850       ??_C@_1M@GEEFALPE@?$AAd?$AAe?$AA?9?$AAL?$AAI@ 0000000180030850     libucrt:lcidtoname_downlevel.obj
 0002:00007860       ??_C@_1M@IGEOFBG@?$AAe?$AAn?$AA?9?$AAN?$AAZ@ 0000000180030860     libucrt:lcidtoname_downlevel.obj
 0002:00007870       ??_C@_1M@KDBONEHP@?$AAe?$AAs?$AA?9?$AAC?$AAR@ 0000000180030870     libucrt:lcidtoname_downlevel.obj
 0002:00007880       ??_C@_1M@FHMDOHNN@?$AAf?$AAr?$AA?9?$AAL?$AAU@ 0000000180030880     libucrt:lcidtoname_downlevel.obj
 0002:00007890       ??_C@_1BG@NFKKMAFG@?$AAb?$AAs?$AA?9?$AAB?$AAA?$AA?9?$AAL?$AAa?$AAt?$AAn@ 0000000180030890     libucrt:lcidtoname_downlevel.obj
 0002:000078a8       ??_C@_1O@IMNBEMCI@?$AAs?$AAm?$AAj?$AA?9?$AAS?$AAE@ 00000001800308a8     libucrt:lcidtoname_downlevel.obj
 0002:000078b8       ??_C@_1M@DHHMBNDP@?$AAa?$AAr?$AA?9?$AAM?$AAA@ 00000001800308b8     libucrt:lcidtoname_downlevel.obj
 0002:000078c8       ??_C@_1M@BNBLJCGH@?$AAe?$AAn?$AA?9?$AAI?$AAE@ 00000001800308c8     libucrt:lcidtoname_downlevel.obj
 0002:000078d8       ??_C@_1M@GEPAFMDL@?$AAe?$AAs?$AA?9?$AAP?$AAA@ 00000001800308d8     libucrt:lcidtoname_downlevel.obj
 0002:000078e8       ??_C@_1M@OJONDMDL@?$AAf?$AAr?$AA?9?$AAM?$AAC@ 00000001800308e8     libucrt:lcidtoname_downlevel.obj
 0002:000078f8       ??_C@_1BG@OBCNFJB@?$AAs?$AAr?$AA?9?$AAB?$AAA?$AA?9?$AAL?$AAa?$AAt?$AAn@ 00000001800308f8     libucrt:lcidtoname_downlevel.obj
 0002:00007910       ??_C@_1O@KEMEEGPO@?$AAs?$AAm?$AAa?$AA?9?$AAN?$AAO@ 0000000180030910     libucrt:lcidtoname_downlevel.obj
 0002:00007920       ??_C@_1M@ELMGFODK@?$AAa?$AAr?$AA?9?$AAT?$AAN@ 0000000180030920     libucrt:lcidtoname_downlevel.obj
 0002:00007930       ??_C@_1M@BHDLHFAF@?$AAe?$AAn?$AA?9?$AAZ?$AAA@ 0000000180030930     libucrt:lcidtoname_downlevel.obj
 0002:00007940       ??_C@_1M@BMGIGLIF@?$AAe?$AAs?$AA?9?$AAD?$AAO@ 0000000180030940     libucrt:lcidtoname_downlevel.obj
 0002:00007950       ??_C@_1BG@CMBHIPBE@?$AAs?$AAr?$AA?9?$AAB?$AAA?$AA?9?$AAC?$AAy?$AAr?$AAl@ 0000000180030950     libucrt:lcidtoname_downlevel.obj
 0002:00007968       ??_C@_1O@HEDBLHNP@?$AAs?$AAm?$AAa?$AA?9?$AAS?$AAE@ 0000000180030968     libucrt:lcidtoname_downlevel.obj
 0002:00007978       ??_C@_1M@DAGCADIM@?$AAa?$AAr?$AA?9?$AAO?$AAM@ 0000000180030978     libucrt:lcidtoname_downlevel.obj
 0002:00007988       ??_C@_1M@FODLMICG@?$AAe?$AAn?$AA?9?$AAJ?$AAM@ 0000000180030988     libucrt:lcidtoname_downlevel.obj
 0002:00007998       ??_C@_1M@DNMLCIHB@?$AAe?$AAs?$AA?9?$AAV?$AAE@ 0000000180030998     libucrt:lcidtoname_downlevel.obj
 0002:000079a8       ??_C@_1O@EOKHMKJK@?$AAs?$AAm?$AAs?$AA?9?$AAF?$AAI@ 00000001800309a8     libucrt:lcidtoname_downlevel.obj
 0002:000079b8       ??_C@_1M@CAFJMKOF@?$AAa?$AAr?$AA?9?$AAY?$AAE@ 00000001800309b8     libucrt:lcidtoname_downlevel.obj
 0002:000079c8       ??_C@_1M@CBFHIJLI@?$AAe?$AAn?$AA?9?$AAC?$AAB@ 00000001800309c8     libucrt:lcidtoname_downlevel.obj
 0002:000079d8       ??_C@_1M@BGNFLDN@?$AAe?$AAs?$AA?9?$AAC?$AAO@ 00000001800309d8     libucrt:lcidtoname_downlevel.obj
 0002:000079e8       ??_C@_1O@JMPHMAMC@?$AAs?$AAm?$AAn?$AA?9?$AAF?$AAI@ 00000001800309e8     libucrt:lcidtoname_downlevel.obj
 0002:000079f8       ??_C@_1M@JLANABKE@?$AAa?$AAr?$AA?9?$AAS?$AAY@ 00000001800309f8     libucrt:lcidtoname_downlevel.obj
 0002:00007a08       ??_C@_1M@HPKGCFGN@?$AAe?$AAn?$AA?9?$AAB?$AAZ@ 0000000180030a08     libucrt:lcidtoname_downlevel.obj
 0002:00007a18       ??_C@_1M@OLJCMLGM@?$AAe?$AAs?$AA?9?$AAP?$AAE@ 0000000180030a18     libucrt:lcidtoname_downlevel.obj
 0002:00007a28       ??_C@_1M@MKKGFKLE@?$AAa?$AAr?$AA?9?$AAJ?$AAO@ 0000000180030a28     libucrt:lcidtoname_downlevel.obj
 0002:00007a38       ??_C@_1M@EKPGLDNI@?$AAe?$AAn?$AA?9?$AAT?$AAT@ 0000000180030a38     libucrt:lcidtoname_downlevel.obj
 0002:00007a48       ??_C@_1M@OONGHFHE@?$AAe?$AAs?$AA?9?$AAA?$AAR@ 0000000180030a48     libucrt:lcidtoname_downlevel.obj
 0002:00007a58       ??_C@_1M@OOJFGBHE@?$AAa?$AAr?$AA?9?$AAL?$AAB@ 0000000180030a58     libucrt:lcidtoname_downlevel.obj
 0002:00007a68       ??_C@_1M@GCEJHNEG@?$AAe?$AAn?$AA?9?$AAZ?$AAW@ 0000000180030a68     libucrt:lcidtoname_downlevel.obj
 0002:00007a78       ??_C@_1M@JNOCAHJI@?$AAe?$AAs?$AA?9?$AAE?$AAC@ 0000000180030a78     libucrt:lcidtoname_downlevel.obj
 0002:00007a88       ??_C@_1M@JEFHPGGB@?$AAa?$AAr?$AA?9?$AAK?$AAW@ 0000000180030a88     libucrt:lcidtoname_downlevel.obj
 0002:00007a98       ??_C@_1M@MLKIBJOJ@?$AAe?$AAn?$AA?9?$AAP?$AAH@ 0000000180030a98     libucrt:lcidtoname_downlevel.obj
 0002:00007aa8       ??_C@_1M@BDNIPEND@?$AAe?$AAs?$AA?9?$AAC?$AAL@ 0000000180030aa8     libucrt:lcidtoname_downlevel.obj
 0002:00007ab8       ??_C@_1M@MPNMEKBD@?$AAa?$AAr?$AA?9?$AAA?$AAE@ 0000000180030ab8     libucrt:lcidtoname_downlevel.obj
 0002:00007ac8       ??_C@_1M@KBJALCPI@?$AAe?$AAs?$AA?9?$AAU?$AAY@ 0000000180030ac8     libucrt:lcidtoname_downlevel.obj
 0002:00007ad8       ??_C@_1M@LLCCOAGA@?$AAa?$AAr?$AA?9?$AAB?$AAH@ 0000000180030ad8     libucrt:lcidtoname_downlevel.obj
 0002:00007ae8       ??_C@_1M@PBFNCDEL@?$AAe?$AAs?$AA?9?$AAP?$AAY@ 0000000180030ae8     libucrt:lcidtoname_downlevel.obj
 0002:00007af8       ??_C@_1M@EDGINPNP@?$AAa?$AAr?$AA?9?$AAQ?$AAA@ 0000000180030af8     libucrt:lcidtoname_downlevel.obj
 0002:00007b08       ??_C@_1M@MKDBIIJI@?$AAe?$AAs?$AA?9?$AAB?$AAO@ 0000000180030b08     libucrt:lcidtoname_downlevel.obj
 0002:00007b18       ??_C@_1M@CPKKEBLD@?$AAe?$AAs?$AA?9?$AAS?$AAV@ 0000000180030b18     libucrt:lcidtoname_downlevel.obj
 0002:00007b28       ??_C@_1M@NDBGMMJL@?$AAe?$AAs?$AA?9?$AAH?$AAN@ 0000000180030b28     libucrt:lcidtoname_downlevel.obj
 0002:00007b38       ??_C@_1M@JIJIBHDP@?$AAe?$AAs?$AA?9?$AAN?$AAI@ 0000000180030b38     libucrt:lcidtoname_downlevel.obj
 0002:00007b48       ??_C@_1M@CGFMKEEK@?$AAe?$AAs?$AA?9?$AAP?$AAR@ 0000000180030b48     libucrt:lcidtoname_downlevel.obj
 0002:00007b58       ??_C@_1O@ICJHKIIK@?$AAz?$AAh?$AA?9?$AAC?$AAH?$AAT@ 0000000180030b58     libucrt:lcidtoname_downlevel.obj
 0002:00007b68       ??_C@_15CLNEJCE@?$AAs?$AAr@ 0000000180030b68     libucrt:lcidtoname_downlevel.obj
 0002:000089b0       ??_C@_1M@KAHEKEIG@?$AAa?$AAf?$AA?9?$AAz?$AAa@ 00000001800319b0     libucrt:lcidtoname_downlevel.obj
 0002:000089c0       ??_C@_1M@GIECOABL@?$AAa?$AAr?$AA?9?$AAa?$AAe@ 00000001800319c0     libucrt:lcidtoname_downlevel.obj
 0002:000089d0       ??_C@_1M@BMLMEKGI@?$AAa?$AAr?$AA?9?$AAb?$AAh@ 00000001800319d0     libucrt:lcidtoname_downlevel.obj
 0002:000089e0       ??_C@_1M@DAPFDGGB@?$AAa?$AAr?$AA?9?$AAd?$AAz@ 00000001800319e0     libucrt:lcidtoname_downlevel.obj
 0002:000089f0       ??_C@_1M@FJNKGKIG@?$AAa?$AAr?$AA?9?$AAe?$AAg@ 00000001800319f0     libucrt:lcidtoname_downlevel.obj
 0002:00008a00       ??_C@_1M@FLGKKCLO@?$AAa?$AAr?$AA?9?$AAi?$AAq@ 0000000180031a00     libucrt:lcidtoname_downlevel.obj
 0002:00008a10       ??_C@_1M@GNDIPALM@?$AAa?$AAr?$AA?9?$AAj?$AAo@ 0000000180031a10     libucrt:lcidtoname_downlevel.obj
 0002:00008a20       ??_C@_1M@DDMJFMGJ@?$AAa?$AAr?$AA?9?$AAk?$AAw@ 0000000180031a20     libucrt:lcidtoname_downlevel.obj
 0002:00008a30       ??_C@_1M@EJALMLHM@?$AAa?$AAr?$AA?9?$AAl?$AAb@ 0000000180031a30     libucrt:lcidtoname_downlevel.obj
 0002:00008a40       ??_C@_1M@MOBDBLOC@?$AAa?$AAr?$AA?9?$AAl?$AAy@ 0000000180031a40     libucrt:lcidtoname_downlevel.obj
 0002:00008a50       ??_C@_1M@JAOCLHDH@?$AAa?$AAr?$AA?9?$AAm?$AAa@ 0000000180031a50     libucrt:lcidtoname_downlevel.obj
 0002:00008a60       ??_C@_1M@JHPMKJIE@?$AAa?$AAr?$AA?9?$AAo?$AAm@ 0000000180031a60     libucrt:lcidtoname_downlevel.obj
 0002:00008a70       ??_C@_1M@OEPGHFNH@?$AAa?$AAr?$AA?9?$AAq?$AAa@ 0000000180031a70     libucrt:lcidtoname_downlevel.obj
 0002:00008a80       ??_C@_1M@KJDONENM@?$AAa?$AAr?$AA?9?$AAs?$AAa@ 0000000180031a80     libucrt:lcidtoname_downlevel.obj
 0002:00008a90       ??_C@_1M@DMJDKLKM@?$AAa?$AAr?$AA?9?$AAs?$AAy@ 0000000180031a90     libucrt:lcidtoname_downlevel.obj
 0002:00008aa0       ??_C@_1M@OMFIPEDC@?$AAa?$AAr?$AA?9?$AAt?$AAn@ 0000000180031aa0     libucrt:lcidtoname_downlevel.obj
 0002:00008ab0       ??_C@_1M@IHMHGAON@?$AAa?$AAr?$AA?9?$AAy?$AAe@ 0000000180031ab0     libucrt:lcidtoname_downlevel.obj
 0002:00008ac0       ??_C@_1BG@KDCPGJGB@?$AAa?$AAz?$AA?9?$AAa?$AAz?$AA?9?$AAc?$AAy?$AAr?$AAl@ 0000000180031ac0     libucrt:lcidtoname_downlevel.obj
 0002:00008ad8       ??_C@_1BG@IBCKDDOE@?$AAa?$AAz?$AA?9?$AAa?$AAz?$AA?9?$AAl?$AAa?$AAt?$AAn@ 0000000180031ad8     libucrt:lcidtoname_downlevel.obj
 0002:00008af0       ??_C@_1M@EGPFDCPD@?$AAb?$AAe?$AA?9?$AAb?$AAy@ 0000000180031af0     libucrt:lcidtoname_downlevel.obj
 0002:00008b00       ??_C@_1M@PCMGMCGC@?$AAb?$AAg?$AA?9?$AAb?$AAg@ 0000000180031b00     libucrt:lcidtoname_downlevel.obj
 0002:00008b10       ??_C@_1M@BJBMFGOB@?$AAb?$AAn?$AA?9?$AAi?$AAn@ 0000000180031b10     libucrt:lcidtoname_downlevel.obj
 0002:00008b20       ??_C@_1BG@EAKMMACD@?$AAb?$AAs?$AA?9?$AAb?$AAa?$AA?9?$AAl?$AAa?$AAt?$AAn@ 0000000180031b20     libucrt:lcidtoname_downlevel.obj
 0002:00008b38       ??_C@_1M@KGADAODK@?$AAc?$AAa?$AA?9?$AAe?$AAs@ 0000000180031b38     libucrt:lcidtoname_downlevel.obj
 0002:00008b48       ??_C@_1M@COAJPDHI@?$AAc?$AAs?$AA?9?$AAc?$AAz@ 0000000180031b48     libucrt:lcidtoname_downlevel.obj
 0002:00008b58       ??_C@_1M@DHBHFONH@?$AAc?$AAy?$AA?9?$AAg?$AAb@ 0000000180031b58     libucrt:lcidtoname_downlevel.obj
 0002:00008b68       ??_C@_1M@IMGKELGA@?$AAd?$AAa?$AA?9?$AAd?$AAk@ 0000000180031b68     libucrt:lcidtoname_downlevel.obj
 0002:00008b78       ??_C@_1M@NNDGDNGA@?$AAd?$AAe?$AA?9?$AAa?$AAt@ 0000000180031b78     libucrt:lcidtoname_downlevel.obj
 0002:00008b88       ??_C@_1M@IKDBHEEM@?$AAd?$AAe?$AA?9?$AAc?$AAh@ 0000000180031b88     libucrt:lcidtoname_downlevel.obj
 0002:00008b98       ??_C@_1M@GFFOJMCJ@?$AAd?$AAe?$AA?9?$AAd?$AAe@ 0000000180031b98     libucrt:lcidtoname_downlevel.obj
 0002:00008ba8       ??_C@_1M@MDNLKBPM@?$AAd?$AAe?$AA?9?$AAl?$AAi@ 0000000180031ba8     libucrt:lcidtoname_downlevel.obj
 0002:00008bb8       ??_C@_1M@NJBEEJNL@?$AAd?$AAe?$AA?9?$AAl?$AAu@ 0000000180031bb8     libucrt:lcidtoname_downlevel.obj
 0002:00008bc8       ??_C@_1O@GNNELBAP@?$AAd?$AAi?$AAv?$AA?9?$AAm?$AAv@ 0000000180031bc8     libucrt:lcidtoname_downlevel.obj
 0002:00008bd8       ??_C@_1M@EJLEOGAE@?$AAe?$AAl?$AA?9?$AAg?$AAr@ 0000000180031bd8     libucrt:lcidtoname_downlevel.obj
 0002:00008be8       ??_C@_1M@GMPONJN@?$AAe?$AAn?$AA?9?$AAa?$AAu@ 0000000180031be8     libucrt:lcidtoname_downlevel.obj
 0002:00008bf8       ??_C@_1M@NIDIIPGF@?$AAe?$AAn?$AA?9?$AAb?$AAz@ 0000000180031bf8     libucrt:lcidtoname_downlevel.obj
 0002:00008c08       ??_C@_1M@JEHMIMFO@?$AAe?$AAn?$AA?9?$AAc?$AAa@ 0000000180031c08     libucrt:lcidtoname_downlevel.obj
 0002:00008c18       ??_C@_1M@IGMJCDLA@?$AAe?$AAn?$AA?9?$AAc?$AAb@ 0000000180031c18     libucrt:lcidtoname_downlevel.obj
 0002:00008c28       ??_C@_1M@BNFIGBKG@?$AAe?$AAn?$AA?9?$AAg?$AAb@ 0000000180031c28     libucrt:lcidtoname_downlevel.obj
 0002:00008c38       ??_C@_1M@LKIFDIGP@?$AAe?$AAn?$AA?9?$AAi?$AAe@ 0000000180031c38     libucrt:lcidtoname_downlevel.obj
 0002:00008c48       ??_C@_1M@PJKFGCCO@?$AAe?$AAn?$AA?9?$AAj?$AAm@ 0000000180031c48     libucrt:lcidtoname_downlevel.obj
 0002:00008c58       ??_C@_1M@KPPKEPBO@?$AAe?$AAn?$AA?9?$AAn?$AAz@ 0000000180031c58     libucrt:lcidtoname_downlevel.obj
 0002:00008c68       ??_C@_1M@GMDGLDOB@?$AAe?$AAn?$AA?9?$AAp?$AAh@ 0000000180031c68     libucrt:lcidtoname_downlevel.obj
 0002:00008c78       ??_C@_1M@ONGIBJNA@?$AAe?$AAn?$AA?9?$AAt?$AAt@ 0000000180031c78     libucrt:lcidtoname_downlevel.obj
 0002:00008c88       ??_C@_1M@LLODPCMM@?$AAe?$AAn?$AA?9?$AAu?$AAs@ 0000000180031c88     libucrt:lcidtoname_downlevel.obj
 0002:00008c98       ??_C@_1M@LAKFNPAN@?$AAe?$AAn?$AA?9?$AAz?$AAa@ 0000000180031c98     libucrt:lcidtoname_downlevel.obj
 0002:00008ca8       ??_C@_1M@MFNHNHEO@?$AAe?$AAn?$AA?9?$AAz?$AAw@ 0000000180031ca8     libucrt:lcidtoname_downlevel.obj
 0002:00008cb8       ??_C@_1M@EJEINPHM@?$AAe?$AAs?$AA?9?$AAa?$AAr@ 0000000180031cb8     libucrt:lcidtoname_downlevel.obj
 0002:00008cc8       ??_C@_1M@GNKPCCJA@?$AAe?$AAs?$AA?9?$AAb?$AAo@ 0000000180031cc8     libucrt:lcidtoname_downlevel.obj
 0002:00008cd8       ??_C@_1M@LEEGFONL@?$AAe?$AAs?$AA?9?$AAc?$AAl@ 0000000180031cd8     libucrt:lcidtoname_downlevel.obj
 0002:00008ce8       ??_C@_1M@KGPDPBDF@?$AAe?$AAs?$AA?9?$AAc?$AAo@ 0000000180031ce8     libucrt:lcidtoname_downlevel.obj
 0002:00008cf8       ??_C@_1M@EIAHOHH@?$AAe?$AAs?$AA?9?$AAc?$AAr@ 0000000180031cf8     libucrt:lcidtoname_downlevel.obj
 0002:00008d08       ??_C@_1M@LLPGMBIN@?$AAe?$AAs?$AA?9?$AAd?$AAo@ 0000000180031d08     libucrt:lcidtoname_downlevel.obj
 0002:00008d18       ??_C@_1M@DKHMKNJA@?$AAe?$AAs?$AA?9?$AAe?$AAc@ 0000000180031d18     libucrt:lcidtoname_downlevel.obj
 0002:00008d28       ??_C@_1M@GKGFPKAP@?$AAe?$AAs?$AA?9?$AAe?$AAs@ 0000000180031d28     libucrt:lcidtoname_downlevel.obj
 0002:00008d38       ??_C@_1M@LKHKGDLN@?$AAe?$AAs?$AA?9?$AAg?$AAt@ 0000000180031d38     libucrt:lcidtoname_downlevel.obj
 0002:00008d48       ??_C@_1M@HEIIGGJD@?$AAe?$AAs?$AA?9?$AAh?$AAn@ 0000000180031d48     libucrt:lcidtoname_downlevel.obj
 0002:00008d58       ??_C@_1M@FBDHPPGD@?$AAe?$AAs?$AA?9?$AAm?$AAx@ 0000000180031d58     libucrt:lcidtoname_downlevel.obj
 0002:00008d68       ??_C@_1M@DPAGLNDH@?$AAe?$AAs?$AA?9?$AAn?$AAi@ 0000000180031d68     libucrt:lcidtoname_downlevel.obj
 0002:00008d78       ??_C@_1M@MDGOPGDD@?$AAe?$AAs?$AA?9?$AAp?$AAa@ 0000000180031d78     libucrt:lcidtoname_downlevel.obj
 0002:00008d88       ??_C@_1M@EMAMGBGE@?$AAe?$AAs?$AA?9?$AAp?$AAe@ 0000000180031d88     libucrt:lcidtoname_downlevel.obj
 0002:00008d98       ??_C@_1M@IBMCAOEC@?$AAe?$AAs?$AA?9?$AAp?$AAr@ 0000000180031d98     libucrt:lcidtoname_downlevel.obj
 0002:00008da8       ??_C@_1M@FGMDIJED@?$AAe?$AAs?$AA?9?$AAp?$AAy@ 0000000180031da8     libucrt:lcidtoname_downlevel.obj
 0002:00008db8       ??_C@_1M@IIDEOLLL@?$AAe?$AAs?$AA?9?$AAs?$AAv@ 0000000180031db8     libucrt:lcidtoname_downlevel.obj
 0002:00008dc8       ??_C@_1M@GAOBIPA@?$AAe?$AAs?$AA?9?$AAu?$AAy@ 0000000180031dc8     libucrt:lcidtoname_downlevel.obj
 0002:00008dd8       ??_C@_1M@JKFFICHJ@?$AAe?$AAs?$AA?9?$AAv?$AAe@ 0000000180031dd8     libucrt:lcidtoname_downlevel.obj
 0002:00008de8       ??_C@_1M@PNMLOJDF@?$AAe?$AAt?$AA?9?$AAe?$AAe@ 0000000180031de8     libucrt:lcidtoname_downlevel.obj
 0002:00008df8       ??_C@_1M@GHHLIKEI@?$AAe?$AAu?$AA?9?$AAe?$AAs@ 0000000180031df8     libucrt:lcidtoname_downlevel.obj
 0002:00008e08       ??_C@_1M@PBNONODE@?$AAf?$AAa?$AA?9?$AAi?$AAr@ 0000000180031e08     libucrt:lcidtoname_downlevel.obj
 0002:00008e18       ??_C@_1M@JEEHPMIL@?$AAf?$AAi?$AA?9?$AAf?$AAi@ 0000000180031e18     libucrt:lcidtoname_downlevel.obj
 0002:00008e28       ??_C@_1M@LMDCNDBA@?$AAf?$AAo?$AA?9?$AAf?$AAo@ 0000000180031e28     libucrt:lcidtoname_downlevel.obj
 0002:00008e38       ??_C@_1M@JKEOHLDK@?$AAf?$AAr?$AA?9?$AAb?$AAe@ 0000000180031e38     libucrt:lcidtoname_downlevel.obj
 0002:00008e48       ??_C@_1M@NOHADPMI@?$AAf?$AAr?$AA?9?$AAc?$AAa@ 0000000180031e48     libucrt:lcidtoname_downlevel.obj
 0002:00008e58       ??_C@_1M@KDHIHAEC@?$AAf?$AAr?$AA?9?$AAc?$AAh@ 0000000180031e58     libucrt:lcidtoname_downlevel.obj
 0002:00008e68       ??_C@_1M@MMBBFGAK@?$AAf?$AAr?$AA?9?$AAf?$AAr@ 0000000180031e68     libucrt:lcidtoname_downlevel.obj
 0002:00008e78       ??_C@_1M@PAFNENNF@?$AAf?$AAr?$AA?9?$AAl?$AAu@ 0000000180031e78     libucrt:lcidtoname_downlevel.obj
 0002:00008e88       ??_C@_1M@EOHDJGDD@?$AAf?$AAr?$AA?9?$AAm?$AAc@ 0000000180031e88     libucrt:lcidtoname_downlevel.obj
 0002:00008e98       ??_C@_1M@FAPLLOPF@?$AAg?$AAl?$AA?9?$AAe?$AAs@ 0000000180031e98     libucrt:lcidtoname_downlevel.obj
 0002:00008ea8       ??_C@_1M@FOPBFLOO@?$AAg?$AAu?$AA?9?$AAi?$AAn@ 0000000180031ea8     libucrt:lcidtoname_downlevel.obj
 0002:00008eb8       ??_C@_1M@KBMCINPM@?$AAh?$AAe?$AA?9?$AAi?$AAl@ 0000000180031eb8     libucrt:lcidtoname_downlevel.obj
 0002:00008ec8       ??_C@_1M@BBPHKFPJ@?$AAh?$AAi?$AA?9?$AAi?$AAn@ 0000000180031ec8     libucrt:lcidtoname_downlevel.obj
 0002:00008ed8       ??_C@_1M@PMBNDPHD@?$AAh?$AAr?$AA?9?$AAb?$AAa@ 0000000180031ed8     libucrt:lcidtoname_downlevel.obj
 0002:00008ee8       ??_C@_1M@BPCKOEGE@?$AAh?$AAr?$AA?9?$AAh?$AAr@ 0000000180031ee8     libucrt:lcidtoname_downlevel.obj
 0002:00008ef8       ??_C@_1M@GACBMHKE@?$AAh?$AAu?$AA?9?$AAh?$AAu@ 0000000180031ef8     libucrt:lcidtoname_downlevel.obj
 0002:00008f08       ??_C@_1M@MILPAJJC@?$AAh?$AAy?$AA?9?$AAa?$AAm@ 0000000180031f08     libucrt:lcidtoname_downlevel.obj
 0002:00008f18       ??_C@_1M@BABBICEC@?$AAi?$AAd?$AA?9?$AAi?$AAd@ 0000000180031f18     libucrt:lcidtoname_downlevel.obj
 0002:00008f28       ??_C@_1M@BIKNHHPF@?$AAi?$AAs?$AA?9?$AAi?$AAs@ 0000000180031f28     libucrt:lcidtoname_downlevel.obj
 0002:00008f38       ??_C@_1M@NMPCJPHE@?$AAi?$AAt?$AA?9?$AAc?$AAh@ 0000000180031f38     libucrt:lcidtoname_downlevel.obj
 0002:00008f48       ??_C@_1M@GHKGFEDF@?$AAi?$AAt?$AA?9?$AAi?$AAt@ 0000000180031f48     libucrt:lcidtoname_downlevel.obj
 0002:00008f58       ??_C@_1M@NIEJCJJA@?$AAj?$AAa?$AA?9?$AAj?$AAp@ 0000000180031f58     libucrt:lcidtoname_downlevel.obj
 0002:00008f68       ??_C@_1M@JILFNBIM@?$AAk?$AAa?$AA?9?$AAg?$AAe@ 0000000180031f68     libucrt:lcidtoname_downlevel.obj
 0002:00008f78       ??_C@_1M@PACPMGPH@?$AAk?$AAk?$AA?9?$AAk?$AAz@ 0000000180031f78     libucrt:lcidtoname_downlevel.obj
 0002:00008f88       ??_C@_1M@IELFGMHA@?$AAk?$AAn?$AA?9?$AAi?$AAn@ 0000000180031f88     libucrt:lcidtoname_downlevel.obj
 0002:00008f98       ??_C@_1O@IBBJHCH@?$AAk?$AAo?$AAk?$AA?9?$AAi?$AAn@ 0000000180031f98     libucrt:lcidtoname_downlevel.obj
 0002:00008fa8       ??_C@_1M@DMHAEOGC@?$AAk?$AAo?$AA?9?$AAk?$AAr@ 0000000180031fa8     libucrt:lcidtoname_downlevel.obj
 0002:00008fb8       ??_C@_1M@HBAHBIGA@?$AAk?$AAy?$AA?9?$AAk?$AAg@ 0000000180031fb8     libucrt:lcidtoname_downlevel.obj
 0002:00008fc8       ??_C@_1M@KPMILCJG@?$AAl?$AAt?$AA?9?$AAl?$AAt@ 0000000180031fc8     libucrt:lcidtoname_downlevel.obj
 0002:00008fd8       ??_C@_1M@BDEKKCA@?$AAl?$AAv?$AA?9?$AAl?$AAv@ 0000000180031fd8     libucrt:lcidtoname_downlevel.obj
 0002:00008fe8       ??_C@_1M@ELCKCCJJ@?$AAm?$AAi?$AA?9?$AAn?$AAz@ 0000000180031fe8     libucrt:lcidtoname_downlevel.obj
 0002:00008ff8       ??_C@_1M@CBOOLAPA@?$AAm?$AAk?$AA?9?$AAm?$AAk@ 0000000180031ff8     libucrt:lcidtoname_downlevel.obj
 0002:00009008       ??_C@_1M@GPHNBJKN@?$AAm?$AAl?$AA?9?$AAi?$AAn@ 0000000180032008     libucrt:lcidtoname_downlevel.obj
 0002:00009018       ??_C@_1M@PABJILIG@?$AAm?$AAn?$AA?9?$AAm?$AAn@ 0000000180032018     libucrt:lcidtoname_downlevel.obj
 0002:00009028       ??_C@_1M@FGBKKIPG@?$AAm?$AAr?$AA?9?$AAi?$AAn@ 0000000180032028     libucrt:lcidtoname_downlevel.obj
 0002:00009038       ??_C@_1M@NDBPDDAL@?$AAm?$AAs?$AA?9?$AAb?$AAn@ 0000000180032038     libucrt:lcidtoname_downlevel.obj
 0002:00009048       ??_C@_1M@OPIHOOPI@?$AAm?$AAs?$AA?9?$AAm?$AAy@ 0000000180032048     libucrt:lcidtoname_downlevel.obj
 0002:00009058       ??_C@_1M@PPDBCNFM@?$AAm?$AAt?$AA?9?$AAm?$AAt@ 0000000180032058     libucrt:lcidtoname_downlevel.obj
 0002:00009068       ??_C@_1M@KDJDKMDD@?$AAn?$AAb?$AA?9?$AAn?$AAo@ 0000000180032068     libucrt:lcidtoname_downlevel.obj
 0002:00009078       ??_C@_1M@KFCFLMJP@?$AAn?$AAl?$AA?9?$AAb?$AAe@ 0000000180032078     libucrt:lcidtoname_downlevel.obj
 0002:00009088       ??_C@_1M@KPOPDDGO@?$AAn?$AAl?$AA?9?$AAn?$AAl@ 0000000180032088     libucrt:lcidtoname_downlevel.obj
 0002:00009098       ??_C@_1M@LJKPEMLN@?$AAn?$AAn?$AA?9?$AAn?$AAo@ 0000000180032098     libucrt:lcidtoname_downlevel.obj
 0002:000090a8       ??_C@_1M@BDGHHBFL@?$AAn?$AAs?$AA?9?$AAz?$AAa@ 00000001800320a8     libucrt:lcidtoname_downlevel.obj
 0002:000090b8       ??_C@_1M@IDEHOAP@?$AAp?$AAa?$AA?9?$AAi?$AAn@ 00000001800320b8     libucrt:lcidtoname_downlevel.obj
 0002:000090c8       ??_C@_1M@HDBKGOGH@?$AAp?$AAl?$AA?9?$AAp?$AAl@ 00000001800320c8     libucrt:lcidtoname_downlevel.obj
 0002:000090d8       ??_C@_1M@LJLLCMEH@?$AAp?$AAt?$AA?9?$AAb?$AAr@ 00000001800320d8     libucrt:lcidtoname_downlevel.obj
 0002:000090e8       ??_C@_1M@NCMONAAL@?$AAp?$AAt?$AA?9?$AAp?$AAt@ 00000001800320e8     libucrt:lcidtoname_downlevel.obj
 0002:000090f8       ??_C@_1O@EAKMAJDN@?$AAq?$AAu?$AAz?$AA?9?$AAb?$AAo@ 00000001800320f8     libucrt:lcidtoname_downlevel.obj
 0002:00009108       ??_C@_1O@BHHPIGDN@?$AAq?$AAu?$AAz?$AA?9?$AAe?$AAc@ 0000000180032108     libucrt:lcidtoname_downlevel.obj
 0002:00009118       ??_C@_1O@GBAPEKMJ@?$AAq?$AAu?$AAz?$AA?9?$AAp?$AAe@ 0000000180032118     libucrt:lcidtoname_downlevel.obj
 0002:00009128       ??_C@_1M@CLGLEFBO@?$AAr?$AAo?$AA?9?$AAr?$AAo@ 0000000180032128     libucrt:lcidtoname_downlevel.obj
 0002:00009138       ??_C@_1M@CEEDODME@?$AAr?$AAu?$AA?9?$AAr?$AAu@ 0000000180032138     libucrt:lcidtoname_downlevel.obj
 0002:00009148       ??_C@_1M@HPKKKMPP@?$AAs?$AAa?$AA?9?$AAi?$AAn@ 0000000180032148     libucrt:lcidtoname_downlevel.obj
 0002:00009158       ??_C@_1M@BKMAIGOJ@?$AAs?$AAe?$AA?9?$AAf?$AAi@ 0000000180032158     libucrt:lcidtoname_downlevel.obj
 0002:00009168       ??_C@_1M@NDPIFLFI@?$AAs?$AAe?$AA?9?$AAn?$AAo@ 0000000180032168     libucrt:lcidtoname_downlevel.obj
 0002:00009178       ??_C@_1M@DANKKHJ@?$AAs?$AAe?$AA?9?$AAs?$AAe@ 0000000180032178     libucrt:lcidtoname_downlevel.obj
 0002:00009188       ??_C@_1M@PNBLONPJ@?$AAs?$AAk?$AA?9?$AAs?$AAk@ 0000000180032188     libucrt:lcidtoname_downlevel.obj
 0002:00009198       ??_C@_1M@LFMODOAL@?$AAs?$AAl?$AA?9?$AAs?$AAi@ 0000000180032198     libucrt:lcidtoname_downlevel.obj
 0002:000091a8       ??_C@_1O@DFKOMPG@?$AAs?$AAm?$AAa?$AA?9?$AAn?$AAo@ 00000001800321a8     libucrt:lcidtoname_downlevel.obj
 0002:000091b8       ??_C@_1O@NDKPBNNH@?$AAs?$AAm?$AAa?$AA?9?$AAs?$AAe@ 00000001800321b8     libucrt:lcidtoname_downlevel.obj
 0002:000091c8       ??_C@_1O@PLLKBHAB@?$AAs?$AAm?$AAj?$AA?9?$AAn?$AAo@ 00000001800321c8     libucrt:lcidtoname_downlevel.obj
 0002:000091d8       ??_C@_1O@CLEPOGCA@?$AAs?$AAm?$AAj?$AA?9?$AAs?$AAe@ 00000001800321d8     libucrt:lcidtoname_downlevel.obj
 0002:000091e8       ??_C@_1O@DLGJGKMK@?$AAs?$AAm?$AAn?$AA?9?$AAf?$AAi@ 00000001800321e8     libucrt:lcidtoname_downlevel.obj
 0002:000091f8       ??_C@_1O@OJDJGAJC@?$AAs?$AAm?$AAs?$AA?9?$AAf?$AAi@ 00000001800321f8     libucrt:lcidtoname_downlevel.obj
 0002:00009208       ??_C@_1M@BOFOGHPB@?$AAs?$AAq?$AA?9?$AAa?$AAl@ 0000000180032208     libucrt:lcidtoname_downlevel.obj
 0002:00009218       ??_C@_1BG@LJBBIPGB@?$AAs?$AAr?$AA?9?$AAb?$AAa?$AA?9?$AAc?$AAy?$AAr?$AAl@ 0000000180032218     libucrt:lcidtoname_downlevel.obj
 0002:00009230       ??_C@_1BG@JLBENFOE@?$AAs?$AAr?$AA?9?$AAb?$AAa?$AA?9?$AAl?$AAa?$AAt?$AAn@ 0000000180032230     libucrt:lcidtoname_downlevel.obj
 0002:00009248       ??_C@_1BG@KODPNHE@?$AAs?$AAr?$AA?9?$AAs?$AAp?$AA?9?$AAc?$AAy?$AAr?$AAl@ 0000000180032248     libucrt:lcidtoname_downlevel.obj
 0002:00009260       ??_C@_1BG@CIOGKHPB@?$AAs?$AAr?$AA?9?$AAs?$AAp?$AA?9?$AAl?$AAa?$AAt?$AAn@ 0000000180032260     libucrt:lcidtoname_downlevel.obj
 0002:00009278       ??_C@_1M@NGFJLMAC@?$AAs?$AAv?$AA?9?$AAf?$AAi@ 0000000180032278     libucrt:lcidtoname_downlevel.obj
 0002:00009288       ??_C@_1M@MPJEJAJC@?$AAs?$AAv?$AA?9?$AAs?$AAe@ 0000000180032288     libucrt:lcidtoname_downlevel.obj
 0002:00009298       ??_C@_1M@MPNDHLFK@?$AAs?$AAw?$AA?9?$AAk?$AAe@ 0000000180032298     libucrt:lcidtoname_downlevel.obj
 0002:000092a8       ??_C@_1O@KOHBJJI@?$AAs?$AAy?$AAr?$AA?9?$AAs?$AAy@ 00000001800322a8     libucrt:lcidtoname_downlevel.obj
 0002:000092b8       ??_C@_1M@LDCEFHA@?$AAt?$AAa?$AA?9?$AAi?$AAn@ 00000001800322b8     libucrt:lcidtoname_downlevel.obj
 0002:000092c8       ??_C@_1M@CNJOFAK@?$AAt?$AAe?$AA?9?$AAi?$AAn@ 00000001800322c8     libucrt:lcidtoname_downlevel.obj
 0002:000092d8       ??_C@_1M@GNAECACD@?$AAt?$AAh?$AA?9?$AAt?$AAh@ 00000001800322d8     libucrt:lcidtoname_downlevel.obj
 0002:000092e8       ??_C@_1M@CHBIHOJO@?$AAt?$AAn?$AA?9?$AAz?$AAa@ 00000001800322e8     libucrt:lcidtoname_downlevel.obj
 0002:000092f8       ??_C@_1M@GCCMIGPJ@?$AAt?$AAr?$AA?9?$AAt?$AAr@ 00000001800322f8     libucrt:lcidtoname_downlevel.obj
 0002:00009308       ??_C@_1M@CELMCNBK@?$AAt?$AAt?$AA?9?$AAr?$AAu@ 0000000180032308     libucrt:lcidtoname_downlevel.obj
 0002:00009318       ??_C@_1M@KLMCELGA@?$AAu?$AAk?$AA?9?$AAu?$AAa@ 0000000180032318     libucrt:lcidtoname_downlevel.obj
 0002:00009328       ??_C@_1M@EPAJJAJF@?$AAu?$AAr?$AA?9?$AAp?$AAk@ 0000000180032328     libucrt:lcidtoname_downlevel.obj
 0002:00009338       ??_C@_1BG@GEGPMCDJ@?$AAu?$AAz?$AA?9?$AAu?$AAz?$AA?9?$AAc?$AAy?$AAr?$AAl@ 0000000180032338     libucrt:lcidtoname_downlevel.obj
 0002:00009350       ??_C@_1BG@EGGKJILM@?$AAu?$AAz?$AA?9?$AAu?$AAz?$AA?9?$AAl?$AAa?$AAt?$AAn@ 0000000180032350     libucrt:lcidtoname_downlevel.obj
 0002:00009368       ??_C@_1M@GFOCLFF@?$AAv?$AAi?$AA?9?$AAv?$AAn@ 0000000180032368     libucrt:lcidtoname_downlevel.obj
 0002:00009378       ??_C@_1M@CPAMEDFI@?$AAx?$AAh?$AA?9?$AAz?$AAa@ 0000000180032378     libucrt:lcidtoname_downlevel.obj
 0002:00009388       ??_C@_1O@EBKIFIGN@?$AAz?$AAh?$AA?9?$AAc?$AAh?$AAs@ 0000000180032388     libucrt:lcidtoname_downlevel.obj
 0002:00009398       ??_C@_1O@NMHPGANE@?$AAz?$AAh?$AA?9?$AAc?$AAh?$AAt@ 0000000180032398     libucrt:lcidtoname_downlevel.obj
 0002:000093a8       ??_C@_1M@LPINJOMC@?$AAz?$AAh?$AA?9?$AAc?$AAn@ 00000001800323a8     libucrt:lcidtoname_downlevel.obj
 0002:000093b8       ??_C@_1M@OCJEJODD@?$AAz?$AAh?$AA?9?$AAh?$AAk@ 00000001800323b8     libucrt:lcidtoname_downlevel.obj
 0002:000093c8       ??_C@_1M@DNDLJINH@?$AAz?$AAh?$AA?9?$AAm?$AAo@ 00000001800323c8     libucrt:lcidtoname_downlevel.obj
 0002:000093d8       ??_C@_1M@MBFDNDND@?$AAz?$AAh?$AA?9?$AAs?$AAg@ 00000001800323d8     libucrt:lcidtoname_downlevel.obj
 0002:000093e8       ??_C@_1M@IMEPLEPE@?$AAz?$AAh?$AA?9?$AAt?$AAw@ 00000001800323e8     libucrt:lcidtoname_downlevel.obj
 0002:000093f8       ??_C@_1M@BBGHNHJP@?$AAz?$AAu?$AA?9?$AAz?$AAa@ 00000001800323f8     libucrt:lcidtoname_downlevel.obj
 0002:00009410       ?large_power_data@?1??multiply_by_power_of_ten@__crt_strtox@@YA_NAEAUbig_integer@2@I@Z@4QBIB 0000000180032410     libucrt:cfout.obj
 0002:00009d20       ?large_power_indices@?1??multiply_by_power_of_ten@__crt_strtox@@YA_NAEAUbig_integer@2@I@Z@4QBUunpack_index@?1??12@YA_N0I@Z@B 0000000180032d20     libucrt:cfout.obj
 0002:00009db8       ?small_powers_of_ten@?1??multiply_by_power_of_ten@__crt_strtox@@YA_NAEAUbig_integer@2@I@Z@4QBIB 0000000180032db8     libucrt:cfout.obj
 0002:00009ddc       ??_C@_01GBGANLPD@0@        0000000180032ddc     libucrt:cfout.obj
 0002:00009de0       ??_C@_05DNEBIAHO@1?$CDINF@ 0000000180032de0     libucrt:cfout.obj
 0002:00009de8       ??_C@_06IMKFLFPG@1?$CDQNAN@ 0000000180032de8     libucrt:cfout.obj
 0002:00009df0       ??_C@_06PGGFOGJG@1?$CDSNAN@ 0000000180032df0     libucrt:cfout.obj
 0002:00009df8       ??_C@_05PHHOCPM@1?$CDIND@  0000000180032df8     libucrt:cfout.obj
 0002:00009e28       __real@3ff0000000000000    0000000180032e28     libucrt:ceil.obj
 0002:0000a080       __log10_256_lead           0000000180033080     libucrt:log10_256_lead_tail_table.obj
 0002:0000a890       __log10_256_tail           0000000180033890     libucrt:log10_256_lead_tail_table.obj
 0002:0000b0a0       __log_F_inv_qword          00000001800340a0     libucrt:log_f_inv_qword_table.obj
 0002:0000b8b0       ??_C@_05HGHHAHAP@log10@    00000001800348b0     libucrt:log_special.obj
 0002:0000b8b8       ??_C@_1BA@BALFACEM@?$AAC?$AAO?$AAN?$AAO?$AAU?$AAT?$AA$@ 00000001800348b8     libucrt:initcon.obj
 0002:0000b940       _load_config_used          0000000180034940     LIBCMT:loadcfg.obj
 0002:0000ba80       _tls_used                  0000000180034a80     LIBCMT:tlssup.obj
 0002:0000baa8       ??_R4exception@std@@6B@    0000000180034aa8     LIBCMT:throw_bad_alloc.obj
 0002:0000bad0       ??_R3exception@std@@8      0000000180034ad0     LIBCMT:throw_bad_alloc.obj
 0002:0000bae8       ??_R2exception@std@@8      0000000180034ae8     LIBCMT:throw_bad_alloc.obj
 0002:0000baf8       ??_R1A@?0A@EA@exception@std@@8 0000000180034af8     LIBCMT:throw_bad_alloc.obj
 0002:0000bb20       ??_R4bad_alloc@std@@6B@    0000000180034b20     LIBCMT:throw_bad_alloc.obj
 0002:0000bb48       ??_R3bad_alloc@std@@8      0000000180034b48     LIBCMT:throw_bad_alloc.obj
 0002:0000bb60       ??_R2bad_alloc@std@@8      0000000180034b60     LIBCMT:throw_bad_alloc.obj
 0002:0000bb78       ??_R1A@?0A@EA@bad_alloc@std@@8 0000000180034b78     LIBCMT:throw_bad_alloc.obj
 0002:0000bba0       ??_R4bad_array_new_length@std@@6B@ 0000000180034ba0     LIBCMT:throw_bad_alloc.obj
 0002:0000bbc8       ??_R3bad_array_new_length@std@@8 0000000180034bc8     LIBCMT:throw_bad_alloc.obj
 0002:0000bbe0       ??_R2bad_array_new_length@std@@8 0000000180034be0     LIBCMT:throw_bad_alloc.obj
 0002:0000bc00       ??_R1A@?0A@EA@bad_array_new_length@std@@8 0000000180034c00     LIBCMT:throw_bad_alloc.obj
 0002:0000bc28       ??_R4type_info@@6B@        0000000180034c28     LIBCMT:std_type_info_static.obj
 0002:0000bc50       ??_R3type_info@@8          0000000180034c50     LIBCMT:std_type_info_static.obj
 0002:0000bc68       ??_R2type_info@@8          0000000180034c68     LIBCMT:std_type_info_static.obj
 0002:0000bc78       ??_R1A@?0A@EA@type_info@@8 0000000180034c78     LIBCMT:std_type_info_static.obj
 0002:0000bca0       ??_R4bad_exception@std@@6B@ 0000000180034ca0     libvcruntime:frame.obj
 0002:0000bcc8       ??_R3bad_exception@std@@8  0000000180034cc8     libvcruntime:frame.obj
 0002:0000bce0       ??_R2bad_exception@std@@8  0000000180034ce0     libvcruntime:frame.obj
 0002:0000bcf8       ??_R1A@?0A@EA@bad_exception@std@@8 0000000180034cf8     libvcruntime:frame.obj
 0002:0000bd1c       __volatile_metadata        0000000180034d1c     <linker-defined>
 0002:0000c1a0       __rtc_iaa                  00000001800351a0     LIBCMT:initsect.obj
 0002:0000c1a8       __rtc_izz                  00000001800351a8     LIBCMT:initsect.obj
 0002:0000c1b0       __rtc_taa                  00000001800351b0     LIBCMT:initsect.obj
 0002:0000c1b8       __rtc_tzz                  00000001800351b8     LIBCMT:initsect.obj
 0002:0000c1c0       _tls_start                 00000001800351c0     LIBCMT:tlssup.obj
 0002:0000c1c4       _Init_thread_epoch         00000001800351c4     LIBCMT:thread_safe_statics.obj
 0002:0000c1c8       _tls_end                   00000001800351c8     LIBCMT:tlssup.obj
 0002:0000db68       _TI2?AVbad_alloc@std@@     0000000180036b68     LIBCMT:throw_bad_alloc.obj
 0002:0000db88       _CTA2?AVbad_alloc@std@@    0000000180036b88     LIBCMT:throw_bad_alloc.obj
 0002:0000dba0       _CT??_R0?AVbad_alloc@std@@@8??0bad_alloc@std@@QEAA@AEBV01@@Z24 0000000180036ba0     LIBCMT:throw_bad_alloc.obj
 0002:0000dbc8       _CT??_R0?AVexception@std@@@8??0exception@std@@QEAA@AEBV01@@Z24 0000000180036bc8     LIBCMT:throw_bad_alloc.obj
 0002:0000dbf0       _TI3?AVbad_array_new_length@std@@ 0000000180036bf0     LIBCMT:throw_bad_alloc.obj
 0002:0000dc10       _CTA3?AVbad_array_new_length@std@@ 0000000180036c10     LIBCMT:throw_bad_alloc.obj
 0002:0000dc30       _CT??_R0?AVbad_array_new_length@std@@@8??0bad_array_new_length@std@@QEAA@AEBV01@@Z24 0000000180036c30     LIBCMT:throw_bad_alloc.obj
 0002:0000dc58       _TI2?AVbad_exception@std@@ 0000000180036c58     libvcruntime:frame.obj
 0002:0000dc78       _CTA2?AVbad_exception@std@@ 0000000180036c78     libvcruntime:frame.obj
 0002:0000dc90       _CT??_R0?AVbad_exception@std@@@8??0bad_exception@std@@QEAA@AEBV01@@Z24 0000000180036c90     libvcruntime:frame.obj
 0002:0000dcb8       __pobjMapEntryFirst        0000000180036cb8     OposVariant.obj
 0002:0000dcc0       __pobjMapEntryLast         0000000180036cc0     OposVariant.obj
 0002:0000dd80       __IMPORT_DESCRIPTOR_KERNEL32 0000000180036d80     kernel32:KERNEL32.dll
 0002:0000dd94       __IMPORT_DESCRIPTOR_USER32 0000000180036d94     user32:USER32.dll
 0002:0000dda8       __IMPORT_DESCRIPTOR_GDI32  0000000180036da8     gdi32:GDI32.dll
 0002:0000ddbc       __IMPORT_DESCRIPTOR_ADVAPI32 0000000180036dbc     advapi32:ADVAPI32.dll
 0002:0000ddd0       __IMPORT_DESCRIPTOR_ole32  0000000180036dd0     ole32:ole32.dll
 0002:0000dde4       __IMPORT_DESCRIPTOR_OLEAUT32 0000000180036de4     oleaut32:OLEAUT32.dll
 0002:0000ddf8       __NULL_IMPORT_DESCRIPTOR   0000000180036df8     kernel32:KERNEL32.dll
 0003:00000000       ?rcDefault@CWindow@ATL@@2UtagRECT@@A 0000000180039000     FiscalPrinter.obj
 0003:00000010       ?wc@?1??GetWndClassInfo@?$CWindowImpl@VCOPOSFiscalPrinter@@VCWindow@ATL@@V?$CWinTraits@$0FGAAAAAA@$0A@@3@@ATL@@SAAEAU_ATL_WNDCLASSINFOW@3@XZ@4U43@A 0000000180039010     FiscalPrinter.obj
 0003:00000108       ?s_Claim@?7??GetIDsOfNames@CComTypeInfoHolder@ATL@@QEAAJAEBU_GUID@@PEAPEA_WIKPEAJ@Z@4PA_WA 0000000180039108     FiscalPrinter.obj
 0003:00000120       ?s_Release@?7??GetIDsOfNames@CComTypeInfoHolder@ATL@@QEAAJAEBU_GUID@@PEAPEA_WIKPEAJ@Z@4PA_WA 0000000180039120     FiscalPrinter.obj
 0003:00000140       ?_tih@?$IDispatchImpl@UIOPOSFiscalPrinter@@$1?IID_IOPOSFiscalPrinter@@3U_GUID@@B$1?LIBID_OposFiscalPrinter_CCO@@3U3@B$00$0A@VCComTypeInfoHolder@ATL@@@ATL@@1VCComTypeInfoHolder@2@A 0000000180039140     FiscalPrinter.obj
 0003:00000178       ?_tih@?$IProvideClassInfo2Impl@$1?CLSID_OPOSFiscalPrinter@@3U_GUID@@B$1?DIID__IOPOSFiscalPrinterEvents@@3U2@B$1?LIBID_OposFiscalPrinter_CCO@@3U2@B$00$0A@VCComTypeInfoHolder@ATL@@@ATL@@1VCComTypeInfoHolder@2@A 0000000180039178     FiscalPrinter.obj
 0003:000001b0       ?vszContents@?6??Save@?$IPersistStorageImpl@VCOPOSFiscalPrinter@@@ATL@@UEAAJPEAUIStorage@@H@Z@4PEB_WEB 00000001800391b0     FiscalPrinter.obj
 0003:00000250       ?g_WindowName@@3PA_WA      0000000180039250     FiscalPrinterImpl.obj
 0003:00000280       ?g_ControlDescription@@3PADA 0000000180039280     FiscalPrinterImpl.obj
 0003:000002d0       ?g_ControlVersion@@3JA     00000001800392d0     FiscalPrinterImpl.obj
 0003:00000588       __scrt_native_dllmain_reason 0000000180039588     LIBCMT:utility.obj
 0003:0000058c       _Init_global_epoch         000000018003958c     LIBCMT:thread_safe_statics.obj
 0003:00000590       __security_cookie          0000000180039590     LIBCMT:gs_cookie.obj
 0003:00000598       __security_cookie_complement 0000000180039598     LIBCMT:gs_cookie.obj
 0003:000005a0       __isa_available            00000001800395a0     LIBCMT:cpu_disp.obj
 0003:000005a4       __isa_enabled              00000001800395a4     LIBCMT:cpu_disp.obj
 0003:000005a8       __memcpy_nt_iters          00000001800395a8     LIBCMT:cpu_disp.obj
 0003:000005b0       __memset_nt_iters          00000001800395b0     LIBCMT:cpu_disp.obj
 0003:000005d8       __abort_behavior           00000001800395d8     libucrt:abort.obj
 0003:000005f0       __acrt_initial_locale_data 00000001800395f0     libucrt:nlsdata.obj
 0003:00000748       __acrt_initial_locale_pointers 0000000180039748     libucrt:nlsdata.obj
 0003:00000758       __acrt_wide_c_locale_string 0000000180039758     libucrt:nlsdata.obj
 0003:00000760       _iob                       0000000180039760     libucrt:_file.obj
 0003:00000870       __acrt_initial_multibyte_data 0000000180039870     libucrt:mbctype.obj
 0003:00000db0       __acrt_lconv_c             0000000180039db0     libucrt:localeconv.obj
 0003:00000e48       __acrt_lconv_static_decimal 0000000180039e48     libucrt:localeconv.obj
 0003:00000e4c       __acrt_lconv_static_W_decimal 0000000180039e4c     libucrt:localeconv.obj
 0003:00000e50       __globallocalestatus       0000000180039e50     libucrt:glstatus.obj
 0003:00000e60       _lookuptrailbytes          0000000180039e60     libucrt:read.obj
 0003:00000f84       _fltused                   0000000180039f84     LIBCMT:fltused.obj
 0003:00000f88       ??_R0?AVbad_alloc@std@@@8  0000000180039f88     LIBCMT:throw_bad_alloc.obj
 0003:00000fb0       ??_R0?AVexception@std@@@8  0000000180039fb0     LIBCMT:throw_bad_alloc.obj
 0003:00000fd8       ??_R0?AVbad_array_new_length@std@@@8 0000000180039fd8     LIBCMT:throw_bad_alloc.obj
 0003:00001008       ??_R0?AVbad_exception@std@@@8 000000018003a008     libvcruntime:frame.obj
 0003:00001030       ??_R0?AVtype_info@@@8      000000018003a030     LIBCMT:std_type_info_static.obj
 0003:00001050       ?m_bInitFailed@CAtlBaseModule@ATL@@2_NA 000000018003a050     OposVariant.obj
 0003:00001058       ?_pPerfRegFunc@ATL@@3P6AJPEAUHINSTANCE__@@@ZEA 000000018003a058     OposVariant.obj
 0003:00001060       ?_pPerfUnRegFunc@ATL@@3P6AJXZEA 000000018003a060     OposVariant.obj
 0003:00001068       ?_AtlRegisterPerUser@ATL@@3_NA 000000018003a068     OposVariant.obj
 0003:00001070       ?_pAtlModule@ATL@@3PEAVCAtlModule@1@EA 000000018003a070     OposVariant.obj
 0003:00001078       ?_pModule@ATL@@3PEAVCComModule@1@EA 000000018003a078     OposVariant.obj
 0003:00001080       ?_AtlComModule@ATL@@3VCAtlComModule@1@A 000000018003a080     OposVariant.obj
 0003:000010d0       ?_AtlWinModule@ATL@@3VCAtlWinModule@1@A 000000018003a0d0     OposVariant.obj
 0003:00001118       ?m_libid@CAtlModule@ATL@@2U_GUID@@A 000000018003a118     FiscalPrinter.obj
 0003:00001128       ?_entries@?1??GetConnMap@COPOSFiscalPrinter@@SAPEBU_ATL_CONNMAP_ENTRY@ATL@@PEAH@Z@4QBU34@B 000000018003a128     FiscalPrinter.obj
 0003:00001140       ?$TSS0@?1??GetConnMap@COPOSFiscalPrinter@@SAPEBU_ATL_CONNMAP_ENTRY@ATL@@PEAH@Z@4HA 000000018003a140     FiscalPrinter.obj
 0003:00001148       ?_OptionsStorage@?1??__local_stdio_printf_options@@9@4_KA 000000018003a148     FiscalPrinter.obj
 0003:00001150       ?pfnRegDeleteKeyEx@?1??DeleteSubKey@CRegKey@ATL@@QEAAJPEB_W@Z@4P6AJPEAUHKEY__@@0KK@ZEA 000000018003a150     FiscalPrinter.obj
 0003:00001158       ?bInitialized@?1??DeleteSubKey@CRegKey@ATL@@QEAAJPEB_W@Z@4_NA 000000018003a158     FiscalPrinter.obj
 0003:00001160       ?_Module@@3VCComModule@ATL@@A 000000018003a160     FiscalPrinter.obj
 0003:000011b0       ?pConnMap@?$IConnectionPointContainerImpl@VCOPOSFiscalPrinter@@@ATL@@0PEBU_ATL_CONNMAP_ENTRY@2@EB 000000018003a1b0     FiscalPrinter.obj
 0003:000011b8       ?s_nInstances@COPOSFiscalPrinter@@1HA 000000018003a1b8     FiscalPrinterImpl.obj
 0003:000011c0       __scrt_current_native_startup_state 000000018003a1c0     LIBCMT:utility.obj
 0003:000011c8       __scrt_native_startup_lock 000000018003a1c8     LIBCMT:utility.obj
 0003:000017c0       _tls_index                 000000018003a7c0     LIBCMT:tlssup.obj
 0003:000017c8       __favor                    000000018003a7c8     LIBCMT:cpu_disp.obj
 0003:000017cc       __scrt_debugger_hook_flag  000000018003a7cc     LIBCMT:utility_desktop.obj
 0003:000017d0       ?__type_info_root_node@@3U__type_info_node@@A 000000018003a7d0     LIBCMT:tncleanup.obj
 0003:000017e0       ?_OptionsStorage@?1??__local_stdio_scanf_options@@9@4_KA 000000018003a7e0     LIBCMT:default_local_stdio_options.obj
 0003:000017f0       ?_AtlBaseModule@ATL@@3VCAtlBaseModule@1@A 000000018003a7f0     atls:atlbase.obj
 0003:00001850       ?__AtlThunkPool@@3PEAT_SLIST_HEADER@@EA 000000018003a850     atls:atlthunk.obj
 0003:0000187c       __@@_PchSym_@00@UzABUPdlipUCAUhUrmgvinvwrzgvUexgllohUzgohOmzgrevkilqPBACIAJCBDBUlyqiUznwGEUhgwzucOlyq@4B2008FD98C1DD4 000000018003a87c     atls:stdafx.obj
 0003:00001880       ?__WinRTOutOfMemoryExceptionCallback@@3P6APEAXXZEA 000000018003a880     libvcruntime:ehhelpers.obj
 0003:00001888       __pPurecall                000000018003a888     libvcruntime:purevirt_data.obj
 0003:00001940       ?pArgList@UnDecorator@@0PEAVReplicator@@EA 000000018003a940     libvcruntime:undname.obj
 0003:00001948       ?pZNameList@UnDecorator@@0PEAVReplicator@@EA 000000018003a948     libvcruntime:undname.obj
 0003:00001950       ?pTemplateArgList@UnDecorator@@0PEAVReplicator@@EA 000000018003a950     libvcruntime:undname.obj
 0003:00001958       ?gName@UnDecorator@@0PEBDEB 000000018003a958     libvcruntime:undname.obj
 0003:00001960       ?name@UnDecorator@@0PEBDEB 000000018003a960     libvcruntime:undname.obj
 0003:00001968       ?disableFlags@UnDecorator@@0KA 000000018003a968     libvcruntime:undname.obj
 0003:0000196c       ?fExplicitTemplateParams@UnDecorator@@0_NA 000000018003a96c     libvcruntime:undname.obj
 0003:0000196d       ?fGetTemplateArgumentList@UnDecorator@@0_NA 000000018003a96d     libvcruntime:undname.obj
 0003:00001970       ?m_pGetParameter@UnDecorator@@0P6APEADJ@ZEA 000000018003a970     libvcruntime:undname.obj
 0003:00001978       ?m_CHPENameOffset@UnDecorator@@0KA 000000018003a978     libvcruntime:undname.obj
 0003:0000197c       ?m_recursionLevel@UnDecorator@@0KA 000000018003a97c     libvcruntime:undname.obj
 0003:00001a00       ?c_exit_complete@?1???R<lambda_6e4b09c48022b2350581041d5f6b0c4c>@@QEBA@XZ@4_NA 000000018003aa00     libucrt:exit.obj
 0003:00001b18       _environ_table             000000018003ab18     libucrt:environment_initialization.obj
 0003:00001b20       _wenviron_table            000000018003ab20     libucrt:environment_initialization.obj
 0003:00001b28       __dcrt_initial_wide_environment 000000018003ab28     libucrt:environment_initialization.obj
 0003:00001b30       __dcrt_initial_narrow_environment 000000018003ab30     libucrt:environment_initialization.obj
 0003:00001b38       __acrt_atexit_table        000000018003ab38     libucrt:onexit.obj
 0003:00001b50       __acrt_at_quick_exit_table 000000018003ab50     libucrt:onexit.obj
 0003:00001b70       __acrt_locale_changed_data 000000018003ab70     libucrt:wsetlocale.obj
 0003:00001b78       __acrt_current_locale_data 000000018003ab78     libucrt:nlsdata.obj
 0003:00001d18       _nstream                   000000018003ad18     libucrt:_file.obj
 0003:00001d20       __piob                     000000018003ad20     libucrt:_file.obj
 0003:00001d30       __acrt_stdout_buffer       000000018003ad30     libucrt:_sftbuf.obj
 0003:00001d38       __acrt_stderr_buffer       000000018003ad38     libucrt:_sftbuf.obj
 0003:00001d40       __pioinfo                  000000018003ad40     libucrt:ioinit.obj
 0003:00002140       _nhandle                   000000018003b140     libucrt:ioinit.obj
 0003:00002388       _mbctype                   000000018003b388     libucrt:mbctype.obj
 0003:00002390       _mbcasemap                 000000018003b390     libucrt:mbctype.obj
 0003:00002398       __acrt_current_multibyte_data 000000018003b398     libucrt:mbctype.obj
 0003:000023a8       _pgmptr                    000000018003b3a8     libucrt:argv_data.obj
 0003:000023b0       __argc                     000000018003b3b0     libucrt:argv_data.obj
 0003:000023b8       __argv                     000000018003b3b8     libucrt:argv_data.obj
 0003:000023c0       __wargv                    000000018003b3c0     libucrt:argv_data.obj
 0003:000023c8       _acmdln                    000000018003b3c8     libucrt:argv_data.obj
 0003:000023d0       _wcmdln                    000000018003b3d0     libucrt:argv_data.obj
 0003:000023d8       __acrt_heap                000000018003b3d8     libucrt:heap_handle.obj
 0003:00002408       __acrt_lconv_static_null   000000018003b408     libucrt:localeconv.obj
 0003:0000240c       __acrt_lconv_static_W_null 000000018003b40c     libucrt:localeconv.obj
 0003:00002424       __fma3_is_available        000000018003b424     libucrt:fma3_available.obj
 0003:00002428       __use_fma3_lib             000000018003b428     libucrt:fma3_available.obj
 0003:00002430       __dyn_tls_init_callback    000000018003b430     <common>
 0003:00002438       __scrt_ucrt_dll_is_in_use  000000018003b438     <common>

 entry point at        0001:00012520

 Static symbols

 0000:fffb4000       .debug$S                   0000000180000000     OPOSFiscalPrinter.exp
 0000:fffb4000       .debug$S                   0000000180000000     advapi32:ADVAPI32.dll
 0000:fffb4000       .debug$S                   0000000180000000     advapi32:ADVAPI32.dll
 0000:fffb4000       .debug$S                   0000000180000000     advapi32:ADVAPI32.dll
 0000:fffb4000       .debug$S                   0000000180000000     advapi32:ADVAPI32.dll
 0000:fffb4000       .debug$S                   0000000180000000     advapi32:ADVAPI32.dll
 0000:fffb4000       .debug$S                   0000000180000000     advapi32:ADVAPI32.dll
 0000:fffb4000       .debug$S                   0000000180000000     advapi32:ADVAPI32.dll
 0000:fffb4000       .debug$S                   0000000180000000     advapi32:ADVAPI32.dll
 0000:fffb4000       .debug$S                   0000000180000000     advapi32:ADVAPI32.dll
 0000:fffb4000       .debug$S                   0000000180000000     gdi32:GDI32.dll
 0000:fffb4000       .debug$S                   0000000180000000     gdi32:GDI32.dll
 0000:fffb4000       .debug$S                   0000000180000000     gdi32:GDI32.dll
 0000:fffb4000       .debug$S                   0000000180000000     gdi32:GDI32.dll
 0000:fffb4000       .debug$S                   0000000180000000     gdi32:GDI32.dll
 0000:fffb4000       .debug$S                   0000000180000000     gdi32:GDI32.dll
 0000:fffb4000       .debug$S                   0000000180000000     gdi32:GDI32.dll
 0000:fffb4000       .debug$S                   0000000180000000     gdi32:GDI32.dll
 0000:fffb4000       .debug$S                   0000000180000000     gdi32:GDI32.dll
 0000:fffb4000       .debug$S                   0000000180000000     gdi32:GDI32.dll
 0000:fffb4000       .debug$S                   0000000180000000     gdi32:GDI32.dll
 0000:fffb4000       .debug$S                   0000000180000000     gdi32:GDI32.dll
 0000:fffb4000       .debug$S                   0000000180000000     gdi32:GDI32.dll
 0000:fffb4000       .debug$S                   0000000180000000     gdi32:GDI32.dll
 0000:fffb4000       .debug$S                   0000000180000000     gdi32:GDI32.dll
 0000:fffb4000       .debug$S                   0000000180000000     gdi32:GDI32.dll
 0000:fffb4000       .debug$S                   0000000180000000     gdi32:GDI32.dll
 0000:fffb4000       .debug$S                   0000000180000000     gdi32:GDI32.dll
 0000:fffb4000       .debug$S                   0000000180000000     gdi32:GDI32.dll
 0000:fffb4000       .debug$S                   0000000180000000     kernel32:KERNEL32.dll
 0000:fffb4000       .debug$S                   0000000180000000     kernel32:KERNEL32.dll
 0000:fffb4000       .debug$S                   0000000180000000     kernel32:KERNEL32.dll
 0000:fffb4000       .debug$S                   0000000180000000     kernel32:KERNEL32.dll
 0000:fffb4000       .debug$S                   0000000180000000     kernel32:KERNEL32.dll
 0000:fffb4000       .debug$S                   0000000180000000     kernel32:KERNEL32.dll
 0000:fffb4000       .debug$S                   0000000180000000     kernel32:KERNEL32.dll
 0000:fffb4000       .debug$S                   0000000180000000     kernel32:KERNEL32.dll
 0000:fffb4000       .debug$S                   0000000180000000     kernel32:KERNEL32.dll
 0000:fffb4000       .debug$S                   0000000180000000     kernel32:KERNEL32.dll
 0000:fffb4000       .debug$S                   0000000180000000     kernel32:KERNEL32.dll
 0000:fffb4000       .debug$S                   0000000180000000     kernel32:KERNEL32.dll
 0000:fffb4000       .debug$S                   0000000180000000     kernel32:KERNEL32.dll
 0000:fffb4000       .debug$S                   0000000180000000     kernel32:KERNEL32.dll
 0000:fffb4000       .debug$S                   0000000180000000     kernel32:KERNEL32.dll
 0000:fffb4000       .debug$S                   0000000180000000     kernel32:KERNEL32.dll
 0000:fffb4000       .debug$S                   0000000180000000     kernel32:KERNEL32.dll
 0000:fffb4000       .debug$S                   0000000180000000     kernel32:KERNEL32.dll
 0000:fffb4000       .debug$S                   0000000180000000     kernel32:KERNEL32.dll
 0000:fffb4000       .debug$S                   0000000180000000     kernel32:KERNEL32.dll
 0000:fffb4000       .debug$S                   0000000180000000     kernel32:KERNEL32.dll
 0000:fffb4000       .debug$S                   0000000180000000     kernel32:KERNEL32.dll
 0000:fffb4000       .debug$S                   0000000180000000     kernel32:KERNEL32.dll
 0000:fffb4000       .debug$S                   0000000180000000     kernel32:KERNEL32.dll
 0000:fffb4000       .debug$S                   0000000180000000     kernel32:KERNEL32.dll
 0000:fffb4000       .debug$S                   0000000180000000     kernel32:KERNEL32.dll
 0000:fffb4000       .debug$S                   0000000180000000     kernel32:KERNEL32.dll
 0000:fffb4000       .debug$S                   0000000180000000     kernel32:KERNEL32.dll
 0000:fffb4000       .debug$S                   0000000180000000     kernel32:KERNEL32.dll
 0000:fffb4000       .debug$S                   0000000180000000     kernel32:KERNEL32.dll
 0000:fffb4000       .debug$S                   0000000180000000     kernel32:KERNEL32.dll
 0000:fffb4000       .debug$S                   0000000180000000     kernel32:KERNEL32.dll
 0000:fffb4000       .debug$S                   0000000180000000     kernel32:KERNEL32.dll
 0000:fffb4000       .debug$S                   0000000180000000     kernel32:KERNEL32.dll
 0000:fffb4000       .debug$S                   0000000180000000     kernel32:KERNEL32.dll
 0000:fffb4000       .debug$S                   0000000180000000     kernel32:KERNEL32.dll
 0000:fffb4000       .debug$S                   0000000180000000     kernel32:KERNEL32.dll
 0000:fffb4000       .debug$S                   0000000180000000     kernel32:KERNEL32.dll
 0000:fffb4000       .debug$S                   0000000180000000     kernel32:KERNEL32.dll
 0000:fffb4000       .debug$S                   0000000180000000     kernel32:KERNEL32.dll
 0000:fffb4000       .debug$S                   0000000180000000     kernel32:KERNEL32.dll
 0000:fffb4000       .debug$S                   0000000180000000     kernel32:KERNEL32.dll
 0000:fffb4000       .debug$S                   0000000180000000     kernel32:KERNEL32.dll
 0000:fffb4000       .debug$S                   0000000180000000     kernel32:KERNEL32.dll
 0000:fffb4000       .debug$S                   0000000180000000     kernel32:KERNEL32.dll
 0000:fffb4000       .debug$S                   0000000180000000     kernel32:KERNEL32.dll
 0000:fffb4000       .debug$S                   0000000180000000     kernel32:KERNEL32.dll
 0000:fffb4000       .debug$S                   0000000180000000     kernel32:KERNEL32.dll
 0000:fffb4000       .debug$S                   0000000180000000     kernel32:KERNEL32.dll
 0000:fffb4000       .debug$S                   0000000180000000     kernel32:KERNEL32.dll
 0000:fffb4000       .debug$S                   0000000180000000     kernel32:KERNEL32.dll
 0000:fffb4000       .debug$S                   0000000180000000     kernel32:KERNEL32.dll
 0000:fffb4000       .debug$S                   0000000180000000     kernel32:KERNEL32.dll
 0000:fffb4000       .debug$S                   0000000180000000     kernel32:KERNEL32.dll
 0000:fffb4000       .debug$S                   0000000180000000     kernel32:KERNEL32.dll
 0000:fffb4000       .debug$S                   0000000180000000     kernel32:KERNEL32.dll
 0000:fffb4000       .debug$S                   0000000180000000     kernel32:KERNEL32.dll
 0000:fffb4000       .debug$S                   0000000180000000     kernel32:KERNEL32.dll
 0000:fffb4000       .debug$S                   0000000180000000     kernel32:KERNEL32.dll
 0000:fffb4000       .debug$S                   0000000180000000     kernel32:KERNEL32.dll
 0000:fffb4000       .debug$S                   0000000180000000     kernel32:KERNEL32.dll
 0000:fffb4000       .debug$S                   0000000180000000     kernel32:KERNEL32.dll
 0000:fffb4000       .debug$S                   0000000180000000     kernel32:KERNEL32.dll
 0000:fffb4000       .debug$S                   0000000180000000     kernel32:KERNEL32.dll
 0000:fffb4000       .debug$S                   0000000180000000     kernel32:KERNEL32.dll
 0000:fffb4000       .debug$S                   0000000180000000     kernel32:KERNEL32.dll
 0000:fffb4000       .debug$S                   0000000180000000     kernel32:KERNEL32.dll
 0000:fffb4000       .debug$S                   0000000180000000     kernel32:KERNEL32.dll
 0000:fffb4000       .debug$S                   0000000180000000     kernel32:KERNEL32.dll
 0000:fffb4000       .debug$S                   0000000180000000     kernel32:KERNEL32.dll
 0000:fffb4000       .debug$S                   0000000180000000     kernel32:KERNEL32.dll
 0000:fffb4000       .debug$S                   0000000180000000     kernel32:KERNEL32.dll
 0000:fffb4000       .debug$S                   0000000180000000     kernel32:KERNEL32.dll
 0000:fffb4000       .debug$S                   0000000180000000     kernel32:KERNEL32.dll
 0000:fffb4000       .debug$S                   0000000180000000     kernel32:KERNEL32.dll
 0000:fffb4000       .debug$S                   0000000180000000     kernel32:KERNEL32.dll
 0000:fffb4000       .debug$S                   0000000180000000     kernel32:KERNEL32.dll
 0000:fffb4000       .debug$S                   0000000180000000     kernel32:KERNEL32.dll
 0000:fffb4000       .debug$S                   0000000180000000     kernel32:KERNEL32.dll
 0000:fffb4000       .debug$S                   0000000180000000     kernel32:KERNEL32.dll
 0000:fffb4000       .debug$S                   0000000180000000     kernel32:KERNEL32.dll
 0000:fffb4000       .debug$S                   0000000180000000     kernel32:KERNEL32.dll
 0000:fffb4000       .debug$S                   0000000180000000     kernel32:KERNEL32.dll
 0000:fffb4000       .debug$S                   0000000180000000     kernel32:KERNEL32.dll
 0000:fffb4000       .debug$S                   0000000180000000     kernel32:KERNEL32.dll
 0000:fffb4000       .debug$S                   0000000180000000     kernel32:KERNEL32.dll
 0000:fffb4000       .debug$S                   0000000180000000     kernel32:KERNEL32.dll
 0000:fffb4000       .debug$S                   0000000180000000     kernel32:KERNEL32.dll
 0000:fffb4000       .debug$S                   0000000180000000     kernel32:KERNEL32.dll
 0000:fffb4000       .debug$S                   0000000180000000     kernel32:KERNEL32.dll
 0000:fffb4000       .debug$S                   0000000180000000     kernel32:KERNEL32.dll
 0000:fffb4000       .debug$S                   0000000180000000     kernel32:KERNEL32.dll
 0000:fffb4000       .debug$S                   0000000180000000     kernel32:KERNEL32.dll
 0000:fffb4000       .debug$S                   0000000180000000     kernel32:KERNEL32.dll
 0000:fffb4000       .debug$S                   0000000180000000     kernel32:KERNEL32.dll
 0000:fffb4000       .debug$S                   0000000180000000     kernel32:KERNEL32.dll
 0000:fffb4000       .debug$S                   0000000180000000     kernel32:KERNEL32.dll
 0000:fffb4000       .debug$S                   0000000180000000     kernel32:KERNEL32.dll
 0000:fffb4000       .debug$S                   0000000180000000     kernel32:KERNEL32.dll
 0000:fffb4000       .debug$S                   0000000180000000     kernel32:KERNEL32.dll
 0000:fffb4000       .debug$S                   0000000180000000     kernel32:KERNEL32.dll
 0000:fffb4000       .debug$S                   0000000180000000     kernel32:KERNEL32.dll
 0000:fffb4000       .debug$S                   0000000180000000     kernel32:KERNEL32.dll
 0000:fffb4000       .debug$S                   0000000180000000     kernel32:KERNEL32.dll
 0000:fffb4000       .debug$S                   0000000180000000     kernel32:KERNEL32.dll
 0000:fffb4000       .debug$S                   0000000180000000     kernel32:KERNEL32.dll
 0000:fffb4000       .debug$S                   0000000180000000     kernel32:KERNEL32.dll
 0000:fffb4000       .debug$S                   0000000180000000     kernel32:KERNEL32.dll
 0000:fffb4000       .debug$S                   0000000180000000     kernel32:KERNEL32.dll
 0000:fffb4000       .debug$S                   0000000180000000     kernel32:KERNEL32.dll
 0000:fffb4000       .debug$S                   0000000180000000     kernel32:KERNEL32.dll
 0000:fffb4000       .debug$S                   0000000180000000     kernel32:KERNEL32.dll
 0000:fffb4000       .debug$S                   0000000180000000     kernel32:KERNEL32.dll
 0000:fffb4000       .debug$S                   0000000180000000     kernel32:KERNEL32.dll
 0000:fffb4000       .debug$S                   0000000180000000     kernel32:KERNEL32.dll
 0000:fffb4000       .debug$S                   0000000180000000     ole32:ole32.dll
 0000:fffb4000       .debug$S                   0000000180000000     ole32:ole32.dll
 0000:fffb4000       .debug$S                   0000000180000000     ole32:ole32.dll
 0000:fffb4000       .debug$S                   0000000180000000     ole32:ole32.dll
 0000:fffb4000       .debug$S                   0000000180000000     ole32:ole32.dll
 0000:fffb4000       .debug$S                   0000000180000000     ole32:ole32.dll
 0000:fffb4000       .debug$S                   0000000180000000     ole32:ole32.dll
 0000:fffb4000       .debug$S                   0000000180000000     ole32:ole32.dll
 0000:fffb4000       .debug$S                   0000000180000000     ole32:ole32.dll
 0000:fffb4000       .debug$S                   0000000180000000     ole32:ole32.dll
 0000:fffb4000       .debug$S                   0000000180000000     ole32:ole32.dll
 0000:fffb4000       .debug$S                   0000000180000000     ole32:ole32.dll
 0000:fffb4000       .debug$S                   0000000180000000     ole32:ole32.dll
 0000:fffb4000       .debug$S                   0000000180000000     ole32:ole32.dll
 0000:fffb4000       .debug$S                   0000000180000000     oleaut32:OLEAUT32.dll
 0000:fffb4000       .debug$S                   0000000180000000     oleaut32:OLEAUT32.dll
 0000:fffb4000       .debug$S                   0000000180000000     oleaut32:OLEAUT32.dll
 0000:fffb4000       .debug$S                   0000000180000000     oleaut32:OLEAUT32.dll
 0000:fffb4000       .debug$S                   0000000180000000     oleaut32:OLEAUT32.dll
 0000:fffb4000       .debug$S                   0000000180000000     oleaut32:OLEAUT32.dll
 0000:fffb4000       .debug$S                   0000000180000000     oleaut32:OLEAUT32.dll
 0000:fffb4000       .debug$S                   0000000180000000     oleaut32:OLEAUT32.dll
 0000:fffb4000       .debug$S                   0000000180000000     oleaut32:OLEAUT32.dll
 0000:fffb4000       .debug$S                   0000000180000000     oleaut32:OLEAUT32.dll
 0000:fffb4000       .debug$S                   0000000180000000     oleaut32:OLEAUT32.dll
 0000:fffb4000       .debug$S                   0000000180000000     oleaut32:OLEAUT32.dll
 0000:fffb4000       .debug$S                   0000000180000000     oleaut32:OLEAUT32.dll
 0000:fffb4000       .debug$S                   0000000180000000     oleaut32:OLEAUT32.dll
 0000:fffb4000       .debug$S                   0000000180000000     oleaut32:OLEAUT32.dll
 0000:fffb4000       .debug$S                   0000000180000000     oleaut32:OLEAUT32.dll
 0000:fffb4000       .debug$S                   0000000180000000     user32:USER32.dll
 0000:fffb4000       .debug$S                   0000000180000000     user32:USER32.dll
 0000:fffb4000       .debug$S                   0000000180000000     user32:USER32.dll
 0000:fffb4000       .debug$S                   0000000180000000     user32:USER32.dll
 0000:fffb4000       .debug$S                   0000000180000000     user32:USER32.dll
 0000:fffb4000       .debug$S                   0000000180000000     user32:USER32.dll
 0000:fffb4000       .debug$S                   0000000180000000     user32:USER32.dll
 0000:fffb4000       .debug$S                   0000000180000000     user32:USER32.dll
 0000:fffb4000       .debug$S                   0000000180000000     user32:USER32.dll
 0000:fffb4000       .debug$S                   0000000180000000     user32:USER32.dll
 0000:fffb4000       .debug$S                   0000000180000000     user32:USER32.dll
 0000:fffb4000       .debug$S                   0000000180000000     user32:USER32.dll
 0000:fffb4000       .debug$S                   0000000180000000     user32:USER32.dll
 0000:fffb4000       .debug$S                   0000000180000000     user32:USER32.dll
 0000:fffb4000       .debug$S                   0000000180000000     user32:USER32.dll
 0000:fffb4000       .debug$S                   0000000180000000     user32:USER32.dll
 0000:fffb4000       .debug$S                   0000000180000000     user32:USER32.dll
 0000:fffb4000       .debug$S                   0000000180000000     user32:USER32.dll
 0000:fffb4000       .debug$S                   0000000180000000     user32:USER32.dll
 0000:fffb4000       .debug$S                   0000000180000000     user32:USER32.dll
 0000:fffb4000       .debug$S                   0000000180000000     user32:USER32.dll
 0000:fffb4000       .debug$S                   0000000180000000     user32:USER32.dll
 0000:fffb4000       .debug$S                   0000000180000000     user32:USER32.dll
 0000:fffb4000       .debug$S                   0000000180000000     user32:USER32.dll
 0000:fffb4000       .debug$S                   0000000180000000     user32:USER32.dll
 0000:fffb4000       .debug$S                   0000000180000000     user32:USER32.dll
 0000:fffb4000       .debug$S                   0000000180000000     user32:USER32.dll
 0000:fffb4000       .debug$S                   0000000180000000     user32:USER32.dll
 0000:fffb4000       .debug$S                   0000000180000000     user32:USER32.dll
 0000:fffb4000       .debug$S                   0000000180000000     user32:USER32.dll
 0000:fffb4000       .debug$S                   0000000180000000     user32:USER32.dll
 0000:fffb4000       .debug$S                   0000000180000000     user32:USER32.dll
 0000:fffb4000       .debug$S                   0000000180000000     user32:USER32.dll
 0000:fffb4000       .debug$S                   0000000180000000     user32:USER32.dll
 0000:fffb4000       .debug$S                   0000000180000000     user32:USER32.dll
 0001:00000000       ??__E_AtlComModule@ATL@@YAXXZ 0000000180001000 f   OposVariant.obj
 0001:00000020       ??__E_AtlWinModule@ATL@@YAXXZ 0000000180001020 f   OposVariant.obj
 0001:00000040       ??__E?pConnMap@?$IConnectionPointContainerImpl@VCOPOSFiscalPrinter@@@ATL@@0PEBU_ATL_CONNMAP_ENTRY@2@EB@@YAXXZ 0000000180001040 f   FiscalPrinter.obj
 0001:00000058       ??__E_Module@@YAXXZ        0000000180001058 f   FiscalPrinter.obj
 0001:00000094       ??__E_AtlBaseModule@ATL@@YAXXZ 0000000180001094 f   atls:atlbase.obj
 0001:00011b44       ?__scrt_initialize_thread_safe_statics@@YAHXZ 0000000180012b44 f   LIBCMT:thread_safe_statics.obj
 0001:00011c14       ?__scrt_uninitialize_thread_safe_statics@@YAXXZ 0000000180012c14 f   LIBCMT:thread_safe_statics.obj
 0001:00011f64       capture_current_context    0000000180012f64 f   LIBCMT:gs_report.obj
 0001:00011fd4       capture_previous_context   0000000180012fd4 f   LIBCMT:gs_report.obj
 0001:00012170       $$000000                   0000000180013170     LIBCMT:chkstk.obj
 0001:000121d0       $$000000                   00000001800131d0     LIBCMT:amdsecgs.obj
 0001:00012200       ?dllmain_crt_dispatch@@YAHQEAUHINSTANCE__@@KQEAX@Z 0000000180013200 f   LIBCMT:dll_dllmain.obj
 0001:00012250       ?dllmain_crt_process_attach@@YAHQEAUHINSTANCE__@@QEAX@Z 0000000180013250 f   LIBCMT:dll_dllmain.obj
 0001:00012368       ?dllmain_crt_process_detach@@YAH_N@Z 0000000180013368 f   LIBCMT:dll_dllmain.obj
 0001:000123ec       ?dllmain_dispatch@@YAHQEAUHINSTANCE__@@KQEAX@Z 00000001800133ec f   LIBCMT:dll_dllmain.obj
 0001:00012cb8       ??$GetProcAddressAll@P6AP6A_JPEAUHWND__@@I_K_J@ZPEAUAtlThunkData_t@@@Z@@YAP6AP6A_JPEAUHWND__@@I_K_J@ZPEAUAtlThunkData_t@@@ZPEAP6AP6A_J0I12@Z3@Z@Z 0000000180013cb8 f   atls:atlthunk.obj
 0001:00012cb8       ??$GetProcAddressAll@P6APEAUAtlThunkData_t@@XZ@@YAP6APEAUAtlThunkData_t@@XZPEAP6APEAU0@XZ@Z 0000000180013cb8 f   atls:atlthunk.obj
 0001:00012cb8       ??$GetProcAddressAll@P6AXPEAUAtlThunkData_t@@@Z@@YAP6AXPEAUAtlThunkData_t@@@ZPEAP6AX0@Z@Z 0000000180013cb8 f   atls:atlthunk.obj
 0001:00012cb8       ??$GetProcAddressAll@P6AXPEAUAtlThunkData_t@@PEAX_K@Z@@YAP6AXPEAUAtlThunkData_t@@PEAX_K@ZPEAP6AX012@Z@Z 0000000180013cb8 f   atls:atlthunk.obj
 0001:00012e90       ?__InitializeThunkPool@@YAHXZ 0000000180013e90 f   atls:atlthunk.obj
 0001:00013330       $$000000                   0000000180014330     libvcruntime:memcmp.obj
 0001:00013410       $$000000                   0000000180014410     libvcruntime:memcpy.obj
 0001:00013ac0       $$000000                   0000000180014ac0     libvcruntime:memset.obj
 0001:000150d0       $$000000                   00000001800160d0     libvcruntime:notify.obj
 0001:00015350       ??$BuildCatchObjectHelperInternal@V__FrameHandler3@@@@YAHPEAUEHExceptionRecord@@PEAXPEBU_s_HandlerType@@PEBU_s_CatchableType@@@Z 0000000180016350 f   libvcruntime:frame.obj
 0001:00015550       ??$BuildCatchObjectHelperInternal@V__FrameHandler4@@@@YAHPEAUEHExceptionRecord@@PEAXPEAUHandlerType4@FH4@@PEBU_s_CatchableType@@@Z 0000000180016550 f   libvcruntime:frame.obj
 0001:00015754       ??$BuildCatchObjectInternal@V__FrameHandler3@@@@YAXPEAUEHExceptionRecord@@PEAXPEBU_s_HandlerType@@PEBU_s_CatchableType@@@Z 0000000180016754 f   libvcruntime:frame.obj
 0001:00015814       ??$BuildCatchObjectInternal@V__FrameHandler4@@@@YAXPEAUEHExceptionRecord@@PEAXPEAUHandlerType4@FH4@@PEBU_s_CatchableType@@@Z 0000000180016814 f   libvcruntime:frame.obj
 0001:000158d8       ??$CatchIt@V__FrameHandler3@@@@YAXPEAUEHExceptionRecord@@PEA_KPEAU_CONTEXT@@PEAU_xDISPATCHER_CONTEXT@@PEBU_s_FuncInfo@@PEBU_s_HandlerType@@PEBU_s_CatchableType@@PEBU_s_TryBlockMapEntry@@H1EE@Z 00000001800168d8 f   libvcruntime:frame.obj
 0001:000159ac       ??$CatchIt@V__FrameHandler4@@@@YAXPEAUEHExceptionRecord@@PEA_KPEAU_CONTEXT@@PEAU_xDISPATCHER_CONTEXT@@PEAUFuncInfo4@FH4@@PEAUHandlerType4@4@PEBU_s_CatchableType@@PEAUTryBlockMapEntry4@4@H1EE@Z 00000001800169ac f   libvcruntime:frame.obj
 0001:00015a80       ??$FindHandler@V__FrameHandler3@@@@YAXPEAUEHExceptionRecord@@PEA_KPEAU_CONTEXT@@PEAU_xDISPATCHER_CONTEXT@@PEBU_s_FuncInfo@@EH1@Z 0000000180016a80 f   libvcruntime:frame.obj
 0001:00015f58       ??$FindHandler@V__FrameHandler4@@@@YAXPEAUEHExceptionRecord@@PEA_KPEAU_CONTEXT@@PEAU_xDISPATCHER_CONTEXT@@PEAUFuncInfo4@FH4@@EH1@Z 0000000180016f58 f   libvcruntime:frame.obj
 0001:00016454       ??$FindHandlerForForeignException@V__FrameHandler3@@@@YAXPEAUEHExceptionRecord@@PEA_KPEAU_CONTEXT@@PEAU_xDISPATCHER_CONTEXT@@PEBU_s_FuncInfo@@HH1@Z 0000000180017454 f   libvcruntime:frame.obj
 0001:00016670       ??$FindHandlerForForeignException@V__FrameHandler4@@@@YAXPEAUEHExceptionRecord@@PEA_KPEAU_CONTEXT@@PEAU_xDISPATCHER_CONTEXT@@PEAUFuncInfo4@FH4@@HH1@Z 0000000180017670 f   libvcruntime:frame.obj
 0001:00017830       ?ExFilterRethrow@@YAHPEAU_EXCEPTION_POINTERS@@PEAUEHExceptionRecord@@PEAH@Z 0000000180018830 f   libvcruntime:frame.obj
 0001:000178b8       ?ExFilterRethrowFH4@@YAHPEAU_EXCEPTION_POINTERS@@PEAUEHExceptionRecord@@HPEAH@Z 00000001800188b8 f   libvcruntime:frame.obj
 0001:00017e08       ?IsInExceptionSpec@@YAEPEAUEHExceptionRecord@@PEBU_s_ESTypeList@@@Z 0000000180018e08 f   libvcruntime:frame.obj
 0001:00017ef8       ?Is_bad_exception_allowed@@YAEPEBU_s_ESTypeList@@@Z 0000000180018ef8 f   libvcruntime:frame.obj
 0001:000181d4       ?try_get_function@@YAPEAXW4function_id@?A0xbc0cc709@@QEBDQEBW4module_id@2@2@Z 00000001800191d4 f   libvcruntime:winapi_downlevel.obj
 0001:000184c0       $$000000                   00000001800194c0     libvcruntime:handlers.obj
 0001:00018eec       ??$common_vsprintf@Vformat_validation_base@__crt_stdio_output@@_W@@YAH_KQEA_W0QEB_WAEAV__crt_cached_ptd_host@@QEAD@Z 0000000180019eec f   libucrt:output.obj
 0001:0001b63c       ??$?RV<lambda_d80eeec6fff315bfe5c115232f3240e3>@@AEAV<lambda_6e4b09c48022b2350581041d5f6b0c4c>@@V<lambda_2358e3775559c9db80273638284d5e45>@@@?$__crt_seh_guarded_call@X@@QEAAX$$QEAV<lambda_d80eeec6fff315bfe5c115232f3240e3>@@AEAV<lambda_6e4b09c48022b2350581041d5f6b0c4c>@@$$QEAV<lambda_2358e3775559c9db80273638284d5e45>@@@Z 000000018001c63c f   libucrt:exit.obj
 0001:0001b674       ??R<lambda_6e4b09c48022b2350581041d5f6b0c4c>@@QEBA@XZ 000000018001c674 f   libucrt:exit.obj
 0001:0001b740       ?common_exit@@YAXHW4_crt_exit_cleanup_mode@@W4_crt_exit_return_mode@@@Z 000000018001c740 f   libucrt:exit.obj
 0001:0001b808       ?exit_or_terminate_process@@YAXI@Z 000000018001c808 f   libucrt:exit.obj
 0001:0001b83c       ?should_call_terminate_process@@YA_NXZ 000000018001c83c f   libucrt:exit.obj
 0001:0001b86c       ?try_cor_exit_process@@YAXI@Z 000000018001c86c f   libucrt:exit.obj
 0001:0001b908       ??$parse_command_line@D@@YAXPEADPEAPEAD0PEA_K2@Z 000000018001c908 f   libucrt:argv_parsing.obj
 0001:0001bcb0       ??$common_initialize_environment_nolock@D@@YAHXZ 000000018001ccb0 f   libucrt:environment_initialization.obj
 0001:0001bd24       ??$create_environment@D@@YAQEAPEADQEAD@Z 000000018001cd24 f   libucrt:environment_initialization.obj
 0001:0001be34       ??$free_environment@D@@YAXQEAPEAD@Z 000000018001ce34 f   libucrt:environment_initialization.obj
 0001:0001be34       ??$free_environment@_W@@YAXQEAPEA_W@Z 000000018001ce34 f   libucrt:environment_initialization.obj
 0001:0001be78       ??$uninitialize_environment_internal@D@@YAXAEAPEAPEAD@Z 000000018001ce78 f   libucrt:environment_initialization.obj
 0001:0001be94       ??$uninitialize_environment_internal@_W@@YAXAEAPEAPEA_W@Z 000000018001ce94 f   libucrt:environment_initialization.obj
 0001:0001befc       ??$?RV<lambda_638799b9deba96c50f710eeac98168cd>@@AEAV<lambda_22ebabd17bc4fa466a2aca6d8deb888d>@@V<lambda_a6f7d7db0129f75315ebf26d50c089f1>@@@?$__crt_seh_guarded_call@H@@QEAAH$$QEAV<lambda_638799b9deba96c50f710eeac98168cd>@@AEAV<lambda_22ebabd17bc4fa466a2aca6d8deb888d>@@$$QEAV<lambda_a6f7d7db0129f75315ebf26d50c089f1>@@@Z 000000018001cefc f   libucrt:onexit.obj
 0001:0001bf38       ??$?RV<lambda_7777bce6b2f8c936911f934f8298dc43>@@AEAV<lambda_f03950bc5685219e0bcd2087efbe011e>@@V<lambda_3883c3dff614d5e0c5f61bb1ac94921c>@@@?$__crt_seh_guarded_call@H@@QEAAH$$QEAV<lambda_7777bce6b2f8c936911f934f8298dc43>@@AEAV<lambda_f03950bc5685219e0bcd2087efbe011e>@@$$QEAV<lambda_3883c3dff614d5e0c5f61bb1ac94921c>@@@Z 000000018001cf38 f   libucrt:onexit.obj
 0001:0001bf74       ??R<lambda_22ebabd17bc4fa466a2aca6d8deb888d>@@QEBAHXZ 000000018001cf74 f   libucrt:onexit.obj
 0001:0001c124       ??R<lambda_f03950bc5685219e0bcd2087efbe011e>@@QEBAHXZ 000000018001d124 f   libucrt:onexit.obj
 0001:0001c308       initialize_global_variables 000000018001d308 f   libucrt:initialization.obj
 0001:0001c31c       initialize_c               000000018001d31c f   libucrt:initialization.obj
 0001:0001c340       initialize_environment     000000018001d340 f   libucrt:initialization.obj
 0001:0001c340       initialize_global_state_isolation 000000018001d340 f   libucrt:initialization.obj
 0001:0001c340       report_memory_leaks        000000018001d340 f   libucrt:initialization.obj
 0001:0001c340       uninitialize_c             000000018001d340 f   libucrt:initialization.obj
 0001:0001c340       uninitialize_global_state_isolation 000000018001d340 f   libucrt:initialization.obj
 0001:0001c344       uninitialize_environment   000000018001d344 f   libucrt:initialization.obj
 0001:0001c354       initialize_pointers        000000018001d354 f   libucrt:initialization.obj
 0001:0001c394       uninitialize_vcruntime     000000018001d394 f   libucrt:initialization.obj
 0001:0001c39c       uninitialize_allocated_memory 000000018001d39c f   libucrt:initialization.obj
 0001:0001c3dc       uninitialize_allocated_io_buffers 000000018001d3dc f   libucrt:initialization.obj
 0001:0001c6a0       $$000000                   000000018001d6a0     libucrt:strncmp.obj
 0001:0001c798       ??$?RV<lambda_0ae27a3a962d80f24befdcbee591983d>@@AEAV<lambda_8d0ee55de4b1038c4002e0adecdf1839>@@V<lambda_dc504788e8f1664fe9b84e20bfb512f2>@@@?$__crt_seh_guarded_call@X@@QEAAX$$QEAV<lambda_0ae27a3a962d80f24befdcbee591983d>@@AEAV<lambda_8d0ee55de4b1038c4002e0adecdf1839>@@$$QEAV<lambda_dc504788e8f1664fe9b84e20bfb512f2>@@@Z 000000018001d798 f   libucrt:per_thread_data.obj
 0001:0001c7d8       ??$?RV<lambda_2d41944a1d46af3157314b8a01080d33>@@AEAV<lambda_8f455de75cd7d7f24b4096f044d8b9e6>@@V<lambda_aa500f224e6afead328df44964fe2772>@@@?$__crt_seh_guarded_call@X@@QEAAX$$QEAV<lambda_2d41944a1d46af3157314b8a01080d33>@@AEAV<lambda_8f455de75cd7d7f24b4096f044d8b9e6>@@$$QEAV<lambda_aa500f224e6afead328df44964fe2772>@@@Z 000000018001d7d8 f   libucrt:per_thread_data.obj
 0001:0001c818       ??$?RV<lambda_aa87e3671a710a21b5dc78c0bdf72e11>@@AEAV<lambda_92619d2358a28f41a33ba319515a20b9>@@V<lambda_6992ecaafeb10aed2b74cb1fae11a551>@@@?$__crt_seh_guarded_call@X@@QEAAX$$QEAV<lambda_aa87e3671a710a21b5dc78c0bdf72e11>@@AEAV<lambda_92619d2358a28f41a33ba319515a20b9>@@$$QEAV<lambda_6992ecaafeb10aed2b74cb1fae11a551>@@@Z 000000018001d818 f   libucrt:per_thread_data.obj
 0001:0001c860       ??$?RV<lambda_f2e299630e499de9f9a165e60fcd3db5>@@AEAV<lambda_2ae9d31cdba2644fcbeaf08da7c24588>@@V<lambda_40d01ff24d0e7b3814fdbdcee8eab3c7>@@@?$__crt_seh_guarded_call@X@@QEAAX$$QEAV<lambda_f2e299630e499de9f9a165e60fcd3db5>@@AEAV<lambda_2ae9d31cdba2644fcbeaf08da7c24588>@@$$QEAV<lambda_40d01ff24d0e7b3814fdbdcee8eab3c7>@@@Z 000000018001d860 f   libucrt:per_thread_data.obj
 0001:0001c8c0       ?construct_ptd_array@@YAXQEAU__acrt_ptd@@@Z 000000018001d8c0 f   libucrt:per_thread_data.obj
 0001:0001c990       ?destroy_fls@@YAXPEAX@Z    000000018001d990 f   libucrt:per_thread_data.obj
 0001:0001c9b0       ?destroy_ptd_array@@YAXQEAU__acrt_ptd@@@Z 000000018001d9b0 f   libucrt:per_thread_data.obj
 0001:0001caa8       ?replace_current_thread_locale_nolock@@YAXQEAU__acrt_ptd@@QEAU__crt_locale_data@@@Z 000000018001daa8 f   libucrt:per_thread_data.obj
 0001:0001ceb4       ??$?RV<lambda_410d79af7f07d98d83a3f525b3859a53>@@AEAV<lambda_3e16ef9562a7dcce91392c22ab16ea36>@@V<lambda_38119f0e861e05405d8a144b9b982f0a>@@@?$__crt_seh_guarded_call@X@@QEAAX$$QEAV<lambda_410d79af7f07d98d83a3f525b3859a53>@@AEAV<lambda_3e16ef9562a7dcce91392c22ab16ea36>@@$$QEAV<lambda_38119f0e861e05405d8a144b9b982f0a>@@@Z 000000018001deb4 f   libucrt:wsetlocale.obj
 0001:0001d0f0       ?try_get_function@@YAPEAXW4function_id@?A0x391cf84c@@QEBDQEBW4module_id@2@2@Z 000000018001e0f0 f   libucrt:winapi_thunks.obj
 0001:0001d88c       ?fp_format_a@@YAHQEBNPEAD_KQEAD2H_NIW4__acrt_rounding_mode@@AEAV__crt_cached_ptd_host@@@Z 000000018001e88c f   libucrt:cvt.obj
 0001:0001dc40       ?fp_format_e@@YAHQEBNQEAD_K12H_NIW4__acrt_rounding_mode@@AEAV__crt_cached_ptd_host@@@Z 000000018001ec40 f   libucrt:cvt.obj
 0001:0001dd3c       ?fp_format_e_internal@@YAHQEAD_KH_NIQEAU_strflt@@2AEAV__crt_cached_ptd_host@@@Z 000000018001ed3c f   libucrt:cvt.obj
 0001:0001df20       ?fp_format_f@@YAHQEBNQEAD_K12HW4__acrt_rounding_mode@@AEAV__crt_cached_ptd_host@@@Z 000000018001ef20 f   libucrt:cvt.obj
 0001:0001dff8       ?fp_format_f_internal@@YAHQEAD_KHQEAU_strflt@@_NAEAV__crt_cached_ptd_host@@@Z 000000018001eff8 f   libucrt:cvt.obj
 0001:0001e150       ?fp_format_g@@YAHQEBNQEAD_K12H_NIW4__acrt_rounding_mode@@AEAV__crt_cached_ptd_host@@@Z 000000018001f150 f   libucrt:cvt.obj
 0001:0001e2a4       ?should_round_up@@YA_NQEBN_KFW4__acrt_rounding_mode@@@Z 000000018001f2a4 f   libucrt:cvt.obj
 0001:0001e9f0       ?initialize_inherited_file_handles_nolock@@YAXXZ 000000018001f9f0 f   libucrt:ioinit.obj
 0001:0001eae0       ?initialize_stdio_handles_nolock@@YAXXZ 000000018001fae0 f   libucrt:ioinit.obj
 0001:0001ed58       ?<lambda_invoker_cdecl>@<lambda_a1ce4c8ae42411fd470c77163914f50e>@@CAHPEBX0@Z 000000018001fd58 f   libucrt:argv_wildcards.obj
 0001:0001f074       ??$common_expand_argv_wildcards@D@@YAHQEAPEADQEAPEAPEAD@Z 0000000180020074 f   libucrt:argv_wildcards.obj
 0001:0001f2b8       ??$copy_and_add_argument_to_buffer@D@@YAHQEBD0_KAEAV?$argument_list@D@?A0x5f5c8891@@@Z 00000001800202b8 f   libucrt:argv_wildcards.obj
 0001:0001f440       ??$expand_argument_wildcards@D@@YAHQEAD0AEAV?$argument_list@D@?A0x5f5c8891@@@Z 0000000180020440 f   libucrt:argv_wildcards.obj
 0001:0001fa74       ??$?RV<lambda_efdfa57d1f175319df784efa44bb7b81>@@AEAV<lambda_5f0a4c1567f8adc6734073e5d1e1b35c>@@V<lambda_2e8a7d3640ea6ccb4c2413664c2db6fd>@@@?$__crt_seh_guarded_call@X@@QEAAX$$QEAV<lambda_efdfa57d1f175319df784efa44bb7b81>@@AEAV<lambda_5f0a4c1567f8adc6734073e5d1e1b35c>@@$$QEAV<lambda_2e8a7d3640ea6ccb4c2413664c2db6fd>@@@Z 0000000180020a74 f   libucrt:mbctype.obj
 0001:0001fc44       ?getSystemCP@@YAHH@Z       0000000180020c44 f   libucrt:mbctype.obj
 0001:0001fcc4       ?setSBCS@@YAXPEAU__crt_multibyte_data@@@Z 0000000180020cc4 f   libucrt:mbctype.obj
 0001:0001fd5c       ?setSBUpLow@@YAXPEAU__crt_multibyte_data@@@Z 0000000180020d5c f   libucrt:mbctype.obj
 0001:0001ff44       ?setmbcp_internal@@YAHH_NQEAU__acrt_ptd@@QEAPEAU__crt_multibyte_data@@@Z 0000000180020f44 f   libucrt:mbctype.obj
 0001:000201b4       ?update_thread_multibyte_data_internal@@YAPEAU__crt_multibyte_data@@QEAU__acrt_ptd@@QEAPEAU1@@Z 00000001800211b4 f   libucrt:mbctype.obj
 0001:000205a8       ?x_ismbbtype_l@@YAHPEAU__crt_locale_pointers@@IHH@Z 00000001800215a8 f   libucrt:ismbbyte.obj
 0001:00020978       ??$?RV<lambda_450d765d439847d4c735a33c368b5fc0>@@AEAV<lambda_44731a7d0e6d81c3e6aa82d741081786>@@V<lambda_601a2a7da3b7a96e9554ac7215c4b07c>@@@?$__crt_seh_guarded_call@P6AXH@Z@@QEAAP6AXH@Z$$QEAV<lambda_450d765d439847d4c735a33c368b5fc0>@@AEAV<lambda_44731a7d0e6d81c3e6aa82d741081786>@@$$QEAV<lambda_601a2a7da3b7a96e9554ac7215c4b07c>@@@Z 0000000180021978 f   libucrt:signal.obj
 0001:00020cf0       ??$?RV<lambda_842d9ff0dc9ef11c61343bbaebe7f885>@@AEAV<lambda_c5860995281e5c4ce005b3de8f5874ee>@@V<lambda_d90129c13df834fdcbf8d2b88dafcf2d>@@@?$__crt_seh_guarded_call@X@@QEAAX$$QEAV<lambda_842d9ff0dc9ef11c61343bbaebe7f885>@@AEAV<lambda_c5860995281e5c4ce005b3de8f5874ee>@@$$QEAV<lambda_d90129c13df834fdcbf8d2b88dafcf2d>@@@Z 0000000180021cf0 f   libucrt:fflush.obj
 0001:00020d8c       ??$?RV<lambda_886d6c58226a84441f68b9f2b8217b83>@@AEAV<lambda_ab61a845afdef5b7c387490eaf3616ee>@@V<lambda_f7f22ab5edc0698d5f6905b0d3f44752>@@@?$__crt_seh_guarded_call@X@@QEAAX$$QEAV<lambda_886d6c58226a84441f68b9f2b8217b83>@@AEAV<lambda_ab61a845afdef5b7c387490eaf3616ee>@@$$QEAV<lambda_f7f22ab5edc0698d5f6905b0d3f44752>@@@Z 0000000180021d8c f   libucrt:fflush.obj
 0001:00020e6c       ?common_flush_all@@YAH_N@Z 0000000180021e6c f   libucrt:fflush.obj
 0001:000215b8       ?free_crt_array_internal@@YAXQEAPEBX_K@Z 00000001800225b8 f   libucrt:inittime.obj
 0001:0002319c       memcpy_s                   000000018002419c f   libucrt:cfout.obj
 0001:00023da0       fallbackMethod             0000000180024da0 f   libucrt:strpbrk.obj
 0001:0002414c       $LN78                      000000018002514c     libucrt:strpbrk.obj
 0001:00024188       $LN77                      0000000180025188     libucrt:strpbrk.obj
 0001:000241c8       $LN76                      00000001800251c8     libucrt:strpbrk.obj
 0001:000242a4       ?__acrt_LCMapStringA_stat@@YAHPEAU__crt_locale_pointers@@PEB_WKPEBDHPEADHHH@Z 00000001800252a4 f   libucrt:lcmapstringa.obj
 0001:0002465c       ?initialize_multibyte@@YAHXZ 000000018002565c f   libucrt:multibyte_initializer.obj
 0001:00024674       ??$?RV<lambda_a37b2b86f63e897a80ea819b0eb08c01>@@AEAV<lambda_38ce7e780aa69e748d6df282ebc68efe>@@V<lambda_99fb1378e971ab6e7edea83e3a7a83a2>@@@?$__crt_seh_guarded_call@H@@QEAAH$$QEAV<lambda_a37b2b86f63e897a80ea819b0eb08c01>@@AEAV<lambda_38ce7e780aa69e748d6df282ebc68efe>@@$$QEAV<lambda_99fb1378e971ab6e7edea83e3a7a83a2>@@@Z 0000000180025674 f   libucrt:commit.obj
 0001:00024794       ?write_double_translated_ansi_nolock@@YA?AUwrite_result@?A0x17268360@@HQEBDIAEAV__crt_cached_ptd_host@@@Z 0000000180025794 f   libucrt:write.obj
 0001:00024c20       ?write_text_ansi_nolock@@YA?AUwrite_result@?A0x17268360@@HQEBDI@Z 0000000180025c20 f   libucrt:write.obj
 0001:00024d24       ?write_text_utf16le_nolock@@YA?AUwrite_result@?A0x17268360@@HQEBDI@Z 0000000180025d24 f   libucrt:write.obj
 0001:00024e40       ?write_text_utf8_nolock@@YA?AUwrite_result@?A0x17268360@@HQEBDI@Z 0000000180025e40 f   libucrt:write.obj
 0001:00025620       $$000000                   0000000180026620     libucrt:log10.obj
 0001:000260bc       ?_fclose_internal@@YAHQEAU_iobuf@@AEAV__crt_cached_ptd_host@@@Z 00000001800270bc f   libucrt:fclose.obj
 0001:00026138       ?_fclose_nolock_internal@@YAHQEAU_iobuf@@AEAV__crt_cached_ptd_host@@@Z 0000000180027138 f   libucrt:fclose.obj
 0001:00026274       ??$common_lseek_nolock@_J@@YA_JH_JHAEAV__crt_cached_ptd_host@@@Z 0000000180027274 f   libucrt:lseek.obj
 0001:000263fc       common_control87           00000001800273fc f   libucrt:ieee.obj
 0001:000266bc       _call_matherr              00000001800276bc f   libucrt:libm_error.obj
 0001:00026724       _exception_enabled         0000000180027724 f   libucrt:libm_error.obj
 0001:000269c0       _log_special_common        00000001800279c0 f   libucrt:log_special.obj
 0001:00026a58       ??$?RV<lambda_ad8af0d99a0adf03d037d7dffe354bb5>@@AEAV<lambda_c9ba49e555ba839a7b07aa3fbecb7617>@@V<lambda_2f1ebd5d68526518146ae959c9e734c8>@@@?$__crt_seh_guarded_call@H@@QEAAH$$QEAV<lambda_ad8af0d99a0adf03d037d7dffe354bb5>@@AEAV<lambda_c9ba49e555ba839a7b07aa3fbecb7617>@@$$QEAV<lambda_2f1ebd5d68526518146ae959c9e734c8>@@@Z 0000000180027a58 f   libucrt:close.obj
 0001:00026db0       $$000000                   0000000180027db0     libucrt:fpsr.obj
 0001:00027530       $$000000                   0000000180028530     LIBCMT:guard_dispatch.obj
 0001:00027550       $$000000                   0000000180028550     LIBCMT:guard_xfg_dispatch.obj
 0001:00027570       ?filt$0@?0??_AtlVerifyStackAvailable@_ATL_SAFE_ALLOCA_IMPL@ATL@@YA_N_K@Z@4HA 0000000180028570 f   FiscalPrinter.obj
 0001:00027591       __scrt_is_nonwritable_in_current_image$filt$0 0000000180028591 f   LIBCMT:utility.obj
 0001:000275a9       ?catch$0@?0???2@YAPEAX_KAEBUnothrow_t@std@@@Z@4HA 00000001800285a9 f   LIBCMT:new_scalar_nothrow.obj
 0001:000275b6       __catch$??2@YAPEAX_KAEBUnothrow_t@std@@@Z$0 00000001800285b6 f   LIBCMT:new_scalar_nothrow.obj
 0001:000275c7       ?fin$0@?0??dllmain_crt_process_attach@@YAHQEAUHINSTANCE__@@QEAX@Z@4HA 00000001800285c7 f   LIBCMT:dll_dllmain.obj
 0001:000275de       ?fin$0@?0??dllmain_crt_process_detach@@YAH_N@Z@4HA 00000001800285de f   LIBCMT:dll_dllmain.obj
 0001:000275f7       ?fin$1@?0??dllmain_crt_process_detach@@YAH_N@Z@4HA 00000001800285f7 f   LIBCMT:dll_dllmain.obj
 0001:0002760b       ?filt$0@?0??dllmain_dispatch@@YAHQEAUHINSTANCE__@@KQEAX@Z@4HA 000000018002860b f   LIBCMT:dll_dllmain.obj
 0001:00027641       ?filt$0@?0???$_CallSETranslator@V__FrameHandler3@@@@YAHPEAUEHExceptionRecord@@PEA_KPEAU_CONTEXT@@PEAU_xDISPATCHER_CONTEXT@@PEBU_s_FuncInfo@@K1H@Z@4HA 0000000180028641 f   libvcruntime:risctrnsctrl.obj
 0001:000276d2       ?filt$0@?0???$_CallSETranslator@V__FrameHandler4@@@@YAHPEAUEHExceptionRecord@@PEA_KPEAU_CONTEXT@@PEAU_xDISPATCHER_CONTEXT@@PEAUFuncInfo4@FH4@@K1H@Z@4HA 00000001800286d2 f   libvcruntime:risctrnsctrl.obj
 0001:00027771       __DestructExceptionObject$filt$0 0000000180028771 f   libvcruntime:ehhelpers.obj
 0001:00027807       ?filt$0@?0??CxxCallCatchBlock@__FrameHandler3@@SAPEAXPEAU_EXCEPTION_RECORD@@@Z@4HA 0000000180028807 f   libvcruntime:frame.obj
 0001:0002782c       ?fin$1@?0??CxxCallCatchBlock@__FrameHandler3@@SAPEAXPEAU_EXCEPTION_RECORD@@@Z@4HA 000000018002882c f   libvcruntime:frame.obj
 0001:000278b2       ?filt$0@?0??CxxCallCatchBlock@__FrameHandler4@@SAPEAXPEAU_EXCEPTION_RECORD@@@Z@4HA 00000001800288b2 f   libvcruntime:frame.obj
 0001:000278e1       ?fin$1@?0??CxxCallCatchBlock@__FrameHandler4@@SAPEAXPEAU_EXCEPTION_RECORD@@@Z@4HA 00000001800288e1 f   libvcruntime:frame.obj
 0001:00027972       ?filt$0@?0??FrameUnwindToState@__FrameHandler3@@SAXPEA_KPEAU_xDISPATCHER_CONTEXT@@PEBU_s_FuncInfo@@H@Z@4HA 0000000180028972 f   libvcruntime:frame.obj
 0001:00027988       ?fin$1@?0??FrameUnwindToState@__FrameHandler3@@SAXPEA_KPEAU_xDISPATCHER_CONTEXT@@PEBU_s_FuncInfo@@H@Z@4HA 0000000180028988 f   libvcruntime:frame.obj
 0001:000279ab       ?filt$0@?0??FrameUnwindToState@__FrameHandler4@@SAXPEA_KPEAU_xDISPATCHER_CONTEXT@@PEAUFuncInfo4@FH4@@H@Z@4HA 00000001800289ab f   libvcruntime:frame.obj
 0001:000279c1       ?fin$1@?0??FrameUnwindToState@__FrameHandler4@@SAXPEA_KPEAU_xDISPATCHER_CONTEXT@@PEAUFuncInfo4@FH4@@H@Z@4HA 00000001800289c1 f   libvcruntime:frame.obj
 0001:000279e4       ?fin$0@?0???$?RV<lambda_0ae27a3a962d80f24befdcbee591983d>@@AEAV<lambda_8d0ee55de4b1038c4002e0adecdf1839>@@V<lambda_dc504788e8f1664fe9b84e20bfb512f2>@@@?$__crt_seh_guarded_call@X@@QEAAX$$QEAV<lambda_0ae27a3a962d80f24befdcbee591983d>@@AEAV<lambda_8d0ee55de4b1038c4002e0adecdf1839>@@$$QEAV<lambda_dc504788e8f1664fe9b84e20bfb512f2>@@@Z@4HA 00000001800289e4 f   libucrt:per_thread_data.obj
 0001:000279e4       ?fin$0@?0???$?RV<lambda_2d41944a1d46af3157314b8a01080d33>@@AEAV<lambda_8f455de75cd7d7f24b4096f044d8b9e6>@@V<lambda_aa500f224e6afead328df44964fe2772>@@@?$__crt_seh_guarded_call@X@@QEAAX$$QEAV<lambda_2d41944a1d46af3157314b8a01080d33>@@AEAV<lambda_8f455de75cd7d7f24b4096f044d8b9e6>@@$$QEAV<lambda_aa500f224e6afead328df44964fe2772>@@@Z@4HA 00000001800289e4 f   libucrt:per_thread_data.obj
 0001:000279e4       ?fin$0@?0???$?RV<lambda_aa87e3671a710a21b5dc78c0bdf72e11>@@AEAV<lambda_92619d2358a28f41a33ba319515a20b9>@@V<lambda_6992ecaafeb10aed2b74cb1fae11a551>@@@?$__crt_seh_guarded_call@X@@QEAAX$$QEAV<lambda_aa87e3671a710a21b5dc78c0bdf72e11>@@AEAV<lambda_92619d2358a28f41a33ba319515a20b9>@@$$QEAV<lambda_6992ecaafeb10aed2b74cb1fae11a551>@@@Z@4HA 00000001800289e4 f   libucrt:per_thread_data.obj
 0001:000279e4       ?fin$0@?0???$?RV<lambda_f2e299630e499de9f9a165e60fcd3db5>@@AEAV<lambda_2ae9d31cdba2644fcbeaf08da7c24588>@@V<lambda_40d01ff24d0e7b3814fdbdcee8eab3c7>@@@?$__crt_seh_guarded_call@X@@QEAAX$$QEAV<lambda_f2e299630e499de9f9a165e60fcd3db5>@@AEAV<lambda_2ae9d31cdba2644fcbeaf08da7c24588>@@$$QEAV<lambda_40d01ff24d0e7b3814fdbdcee8eab3c7>@@@Z@4HA 00000001800289e4 f   libucrt:per_thread_data.obj
 0001:000279e4       ?fin$0@?0???$?RV<lambda_450d765d439847d4c735a33c368b5fc0>@@AEAV<lambda_44731a7d0e6d81c3e6aa82d741081786>@@V<lambda_601a2a7da3b7a96e9554ac7215c4b07c>@@@?$__crt_seh_guarded_call@P6AXH@Z@@QEAAP6AXH@Z$$QEAV<lambda_450d765d439847d4c735a33c368b5fc0>@@AEAV<lambda_44731a7d0e6d81c3e6aa82d741081786>@@$$QEAV<lambda_601a2a7da3b7a96e9554ac7215c4b07c>@@@Z@4HA 00000001800289e4 f   libucrt:signal.obj
 0001:000279e4       ?fin$0@?0???$?RV<lambda_d80eeec6fff315bfe5c115232f3240e3>@@AEAV<lambda_6e4b09c48022b2350581041d5f6b0c4c>@@V<lambda_2358e3775559c9db80273638284d5e45>@@@?$__crt_seh_guarded_call@X@@QEAAX$$QEAV<lambda_d80eeec6fff315bfe5c115232f3240e3>@@AEAV<lambda_6e4b09c48022b2350581041d5f6b0c4c>@@$$QEAV<lambda_2358e3775559c9db80273638284d5e45>@@@Z@4HA 00000001800289e4 f   libucrt:exit.obj
 0001:000279e4       ?fin$0@?0???$?RV<lambda_638799b9deba96c50f710eeac98168cd>@@AEAV<lambda_22ebabd17bc4fa466a2aca6d8deb888d>@@V<lambda_a6f7d7db0129f75315ebf26d50c089f1>@@@?$__crt_seh_guarded_call@H@@QEAAH$$QEAV<lambda_638799b9deba96c50f710eeac98168cd>@@AEAV<lambda_22ebabd17bc4fa466a2aca6d8deb888d>@@$$QEAV<lambda_a6f7d7db0129f75315ebf26d50c089f1>@@@Z@4HA 00000001800289e4 f   libucrt:onexit.obj
 0001:000279e4       ?fin$0@?0???$?RV<lambda_7777bce6b2f8c936911f934f8298dc43>@@AEAV<lambda_f03950bc5685219e0bcd2087efbe011e>@@V<lambda_3883c3dff614d5e0c5f61bb1ac94921c>@@@?$__crt_seh_guarded_call@H@@QEAAH$$QEAV<lambda_7777bce6b2f8c936911f934f8298dc43>@@AEAV<lambda_f03950bc5685219e0bcd2087efbe011e>@@$$QEAV<lambda_3883c3dff614d5e0c5f61bb1ac94921c>@@@Z@4HA 00000001800289e4 f   libucrt:onexit.obj
 0001:000279fe       ?filt$0@?0???R<lambda_6e4b09c48022b2350581041d5f6b0c4c>@@QEBA@XZ@4HA 00000001800289fe f   libucrt:exit.obj
 0001:00027a2b       _query_new_handler$fin$0   0000000180028a2b f   libucrt:new_handler.obj
 0001:00027a41       ?fin$0@?0???$?RV<lambda_410d79af7f07d98d83a3f525b3859a53>@@AEAV<lambda_3e16ef9562a7dcce91392c22ab16ea36>@@V<lambda_38119f0e861e05405d8a144b9b982f0a>@@@?$__crt_seh_guarded_call@X@@QEAAX$$QEAV<lambda_410d79af7f07d98d83a3f525b3859a53>@@AEAV<lambda_3e16ef9562a7dcce91392c22ab16ea36>@@$$QEAV<lambda_38119f0e861e05405d8a144b9b982f0a>@@@Z@4HA 0000000180028a41 f   libucrt:wsetlocale.obj
 0001:00027a5b       __acrt_initialize_lowio$fin$0 0000000180028a5b f   libucrt:ioinit.obj
 0001:00027a5b       __acrt_lowio_ensure_fh_exists$fin$0 0000000180028a5b f   libucrt:osfinfo.obj
 0001:00027a74       ?fin$0@?0???$?RV<lambda_efdfa57d1f175319df784efa44bb7b81>@@AEAV<lambda_5f0a4c1567f8adc6734073e5d1e1b35c>@@V<lambda_2e8a7d3640ea6ccb4c2413664c2db6fd>@@@?$__crt_seh_guarded_call@X@@QEAAX$$QEAV<lambda_efdfa57d1f175319df784efa44bb7b81>@@AEAV<lambda_5f0a4c1567f8adc6734073e5d1e1b35c>@@$$QEAV<lambda_2e8a7d3640ea6ccb4c2413664c2db6fd>@@@Z@4HA 0000000180028a74 f   libucrt:mbctype.obj
 0001:00027a8e       ?fin$0@?0??update_thread_multibyte_data_internal@@YAPEAU__crt_multibyte_data@@QEAU__acrt_ptd@@QEAPEAU1@@Z@4HA 0000000180028a8e f   libucrt:mbctype.obj
 0001:00027aa7       raise$fin$0                0000000180028aa7 f   libucrt:signal.obj
 0001:00027ac8       ?fin$0@?0???$?RV<lambda_842d9ff0dc9ef11c61343bbaebe7f885>@@AEAV<lambda_c5860995281e5c4ce005b3de8f5874ee>@@V<lambda_d90129c13df834fdcbf8d2b88dafcf2d>@@@?$__crt_seh_guarded_call@X@@QEAAX$$QEAV<lambda_842d9ff0dc9ef11c61343bbaebe7f885>@@AEAV<lambda_c5860995281e5c4ce005b3de8f5874ee>@@$$QEAV<lambda_d90129c13df834fdcbf8d2b88dafcf2d>@@@Z@4HA 0000000180028ac8 f   libucrt:fflush.obj
 0001:00027ae3       ?fin$0@?0???$?RV<lambda_886d6c58226a84441f68b9f2b8217b83>@@AEAV<lambda_ab61a845afdef5b7c387490eaf3616ee>@@V<lambda_f7f22ab5edc0698d5f6905b0d3f44752>@@@?$__crt_seh_guarded_call@X@@QEAAX$$QEAV<lambda_886d6c58226a84441f68b9f2b8217b83>@@AEAV<lambda_ab61a845afdef5b7c387490eaf3616ee>@@$$QEAV<lambda_f7f22ab5edc0698d5f6905b0d3f44752>@@@Z@4HA 0000000180028ae3 f   libucrt:fflush.obj
 0001:00027b00       __acrt_update_thread_locale_data$fin$0 0000000180028b00 f   libucrt:locale_refcounting.obj
 0001:00027b19       _fcloseall$fin$0           0000000180028b19 f   libucrt:closeall.obj
 0001:00027b32       ?fin$0@?0???$?RV<lambda_ad8af0d99a0adf03d037d7dffe354bb5>@@AEAV<lambda_c9ba49e555ba839a7b07aa3fbecb7617>@@V<lambda_2f1ebd5d68526518146ae959c9e734c8>@@@?$__crt_seh_guarded_call@H@@QEAAH$$QEAV<lambda_ad8af0d99a0adf03d037d7dffe354bb5>@@AEAV<lambda_c9ba49e555ba839a7b07aa3fbecb7617>@@$$QEAV<lambda_2f1ebd5d68526518146ae959c9e734c8>@@@Z@4HA 0000000180028b32 f   libucrt:close.obj
 0001:00027b32       ?fin$0@?0???$?RV<lambda_a37b2b86f63e897a80ea819b0eb08c01>@@AEAV<lambda_38ce7e780aa69e748d6df282ebc68efe>@@V<lambda_99fb1378e971ab6e7edea83e3a7a83a2>@@@?$__crt_seh_guarded_call@H@@QEAAH$$QEAV<lambda_a37b2b86f63e897a80ea819b0eb08c01>@@AEAV<lambda_38ce7e780aa69e748d6df282ebc68efe>@@$$QEAV<lambda_99fb1378e971ab6e7edea83e3a7a83a2>@@@Z@4HA 0000000180028b32 f   libucrt:commit.obj
 0001:00027b4c       _write_internal$fin$0      0000000180028b4c f   libucrt:write.obj
 0001:00027b63       ?fin$0@?0??_fclose_internal@@YAHQEAU_iobuf@@AEAV__crt_cached_ptd_host@@@Z@4HA 0000000180028b63 f   libucrt:fclose.obj
 0001:00027b7b       _ctrlfp$filt$0             0000000180028b7b f   libucrt:fpctrl.obj
 0001:00027b7b       common_control87$filt$0    0000000180028b7b f   libucrt:ieee.obj
 0001:00027bb0       _IsNonwritableInCurrentImage$filt$0 0000000180028bb0 f   LIBCMT:pesect.obj
 0001:00027bd0       ??__F_AtlComModule@ATL@@YAXXZ 0000000180028bd0 f   OposVariant.obj
 0001:00027bdc       ??__F_AtlWinModule@ATL@@YAXXZ 0000000180028bdc f   OposVariant.obj
 0001:00027c20       ??__F_Module@@YAXXZ        0000000180028c20 f   FiscalPrinter.obj
 0001:00027c3c       ??__F_AtlBaseModule@ATL@@YAXXZ 0000000180028c3c f   atls:atlbase.obj
 0002:00000670       ?_AtlBaseModule$initializer$@ATL@@3P6AXXZEA 0000000180029670     atls:atlbase.obj
 0002:00000678       ?_AtlComModule$initializer$@ATL@@3P6AXXZEA 0000000180029678     OposVariant.obj
 0002:00000680       ?_AtlWinModule$initializer$@ATL@@3P6AXXZEA 0000000180029680     OposVariant.obj
 0002:00000688       ?_Module$initializer$@@3P6AXXZEA 0000000180029688     FiscalPrinter.obj
 0002:00000690       ??pConnMap$initializer$@?$IConnectionPointContainerImpl@VCOPOSFiscalPrinter@@@ATL@@0P6AXXZEA@@3P6AXXZEA 0000000180029690     FiscalPrinter.obj
 0002:000006a8       ?__scrt_initialize_tss_var@@3P6AHXZEA 00000001800296a8     LIBCMT:thread_safe_statics.obj
 0002:000035f8       GS_ExceptionPointers       000000018002c5f8     LIBCMT:gs_report.obj
 0002:000037e0       ?ExceptionTemplate@?1??UnwindNestedFrames@__FrameHandler4@@SAXPEA_KPEAUEHExceptionRecord@@PEAU_CONTEXT@@0PEAXPEAUFuncInfo4@FH4@@HHPEAUHandlerType4@6@PEAU_xDISPATCHER_CONTEXT@@E@Z@4U_EXCEPTION_RECORD@@B 000000018002c7e0     libvcruntime:risctrnsctrl.obj
 0002:00003880       ?ExceptionTemplate@?1??UnwindNestedFrames@__FrameHandler3@@SAXPEA_KPEAUEHExceptionRecord@@PEAU_CONTEXT@@0PEAXPEBU_s_FuncInfo@@HHPEBU_s_HandlerType@@PEAU_xDISPATCHER_CONTEXT@@E@Z@4U_EXCEPTION_RECORD@@B 000000018002c880     libvcruntime:risctrnsctrl.obj
 0002:00003950       ?tokenTable@@3QBUStringLiteral@@B 000000018002c950     libvcruntime:undname.obj
 0002:00003a60       ?nameTable@@3QBUStringLiteral@@B 000000018002ca60     libvcruntime:undname.obj
 0002:00003f90       ?rttiTable@@3QBUStringLiteral@@B 000000018002cf90     libvcruntime:undname.obj
 0002:00003fe0       ?IndirectionName@@3QBUStringLiteral@@B 000000018002cfe0     libvcruntime:undname.obj
 0002:00004040       ?PrefixName@@3QBUStringLiteral@@B 000000018002d040     libvcruntime:undname.obj
 0002:00004728       ?module_names@?A0xbc0cc709@@3QBQEB_WB 000000018002d728     libvcruntime:winapi_downlevel.obj
 0002:000047e8       ?candidate_modules@?1??try_get_FlsAlloc@@YAP6AKP6AXPEAX@Z@ZXZ@4QBW4module_id@?A0xbc0cc709@@B 000000018002d7e8     libvcruntime:winapi_downlevel.obj
 0002:00004800       ?candidate_modules@?1??try_get_FlsFree@@YAP6AHK@ZXZ@4QBW4module_id@?A0xbc0cc709@@B 000000018002d800     libvcruntime:winapi_downlevel.obj
 0002:00004810       ?candidate_modules@?1??try_get_FlsGetValue@@YAP6APEAXK@ZXZ@4QBW4module_id@?A0xbc0cc709@@B 000000018002d810     libvcruntime:winapi_downlevel.obj
 0002:00004828       ?candidate_modules@?1??try_get_FlsSetValue@@YAP6AHKPEAX@ZXZ@4QBW4module_id@?A0xbc0cc709@@B 000000018002d828     libvcruntime:winapi_downlevel.obj
 0002:00004840       ?candidate_modules@?1??try_get_InitializeCriticalSectionEx@@YAP6AHPEAU_RTL_CRITICAL_SECTION@@KK@ZXZ@4QBW4module_id@?A0xbc0cc709@@B 000000018002d840     libvcruntime:winapi_downlevel.obj
 0002:00004870       ?errtable@@3QBUerrentry@?A0x31fdb9ec@@B 000000018002d870     libucrt:errno.obj
 0002:00004bd8       $cppxdata$?try_cor_exit_process@@YAXI@Z 000000018002dbd8     libucrt:exit.obj
 0002:00004c00       $cppxdata$?common_exit@@YAXHW4_crt_exit_cleanup_mode@@W4_crt_exit_return_mode@@@Z 000000018002dc00     libucrt:exit.obj
 0002:00004c50       $cppxdata$__dcrt_uninitialize_environments_nolock 000000018002dc50     libucrt:environment_initialization.obj
 0002:00004c78       $cppxdata$_execute_onexit_table 000000018002dc78     libucrt:onexit.obj
 0002:00004ca0       __acrt_initializers        000000018002dca0     libucrt:initialization.obj
 0002:00005420       ?module_names@?A0x391cf84c@@3QBQEB_WB 000000018002e420     libucrt:winapi_thunks.obj
 0002:00005928       ?candidate_modules@?1??try_get_AreFileApisANSI@@YAP6AHXZXZ@4QBW4module_id@?A0x391cf84c@@B 000000018002e928     libucrt:winapi_thunks.obj
 0002:00005940       ?candidate_modules@?1??try_get_InitializeCriticalSectionEx@@YAP6AHPEAU_RTL_CRITICAL_SECTION@@KK@ZXZ@4QBW4module_id@?A0x391cf84c@@B 000000018002e940     libucrt:winapi_thunks.obj
 0002:00005948       ?candidate_modules@?1??try_get_LCMapStringEx@@YAP6AHPEB_WK0HPEA_WHPEAU_nlsversioninfo@@PEAX_J@ZXZ@4QBW4module_id@?A0x391cf84c@@B 000000018002e948     libucrt:winapi_thunks.obj
 0002:00005960       ?candidate_modules@?1??try_get_LocaleNameToLCID@@YAP6AKPEB_WK@ZXZ@4QBW4module_id@?A0x391cf84c@@B 000000018002e960     libucrt:winapi_thunks.obj
 0002:0000597c       ?candidate_modules@?1??try_get_AppPolicyGetProcessTerminationMethod@@YAP6AJPEAXPEAW4AppPolicyProcessTerminationMethod@@@ZXZ@4QBW4module_id@?A0x391cf84c@@B 000000018002e97c     libucrt:winapi_thunks.obj
 0002:000059a8       ?candidate_modules@?1??try_get_SetThreadStackGuarantee@@YAP6AHPEAK@ZXZ@4QBW4module_id@?A0x391cf84c@@B 000000018002e9a8     libucrt:winapi_thunks.obj
 0002:000059d0       ?strings@?1??fp_format_nan_or_infinity@@YAHW4__acrt_fp_class@@_NPEAD_K1@Z@4QAY03QEBDA 000000018002e9d0     libucrt:cvt.obj
 0002:00005aa8       ?_mb_locale_names@@3QBQEB_WB 000000018002eaa8     libucrt:mbctype.obj
 0002:00006120       ?LcidToLocaleNameTable@?A0x881e4c05@@3QBULcidToLocaleName@1@B 000000018002f120     libucrt:lcidtoname_downlevel.obj
 0002:00007b70       ?LocaleNameToIndexTable@?A0x881e4c05@@3QBULocaleNameIndex@1@B 0000000180030b70     libucrt:lcidtoname_downlevel.obj
 0002:00009e00       $cppxdata$?write_double_translated_ansi_nolock@@YA?AUwrite_result@?A0x17268360@@HQEBDIAEAV__crt_cached_ptd_host@@@Z 0000000180032e00     libucrt:write.obj
 0002:00009e30       __real_ninf                0000000180032e30     libucrt:log10.obj
 0002:00009e40       __real_inf                 0000000180032e40     libucrt:log10.obj
 0002:00009e50       __real_neg_qnan            0000000180032e50     libucrt:log10.obj
 0002:00009e60       __real_qnanbit             0000000180032e60     libucrt:log10.obj
 0002:00009e70       __int_1023                 0000000180032e70     libucrt:log10.obj
 0002:00009e80       __mask_001                 0000000180032e80     libucrt:log10.obj
 0002:00009e90       __mask_mant                0000000180032e90     libucrt:log10.obj
 0002:00009ea0       __mask_mant_top8           0000000180032ea0     libucrt:log10.obj
 0002:00009eb0       __mask_mant9               0000000180032eb0     libucrt:log10.obj
 0002:00009ec0       __real_log10_e             0000000180032ec0     libucrt:log10.obj
 0002:00009ed0       __real_log10_e_lead        0000000180032ed0     libucrt:log10.obj
 0002:00009ee0       __real_log10_e_tail        0000000180032ee0     libucrt:log10.obj
 0002:00009ef0       __real_log10_2_lead        0000000180032ef0     libucrt:log10.obj
 0002:00009f00       __real_log10_2_tail        0000000180032f00     libucrt:log10.obj
 0002:00009f10       __real_two                 0000000180032f10     libucrt:log10.obj
 0002:00009f20       __real_one                 0000000180032f20     libucrt:log10.obj
 0002:00009f30       __real_half                0000000180032f30     libucrt:log10.obj
 0002:00009f40       __mask_100                 0000000180032f40     libucrt:log10.obj
 0002:00009f50       __real_1_over_512          0000000180032f50     libucrt:log10.obj
 0002:00009f60       __real_1_over_2            0000000180032f60     libucrt:log10.obj
 0002:00009f70       __real_1_over_3            0000000180032f70     libucrt:log10.obj
 0002:00009f80       __real_1_over_4            0000000180032f80     libucrt:log10.obj
 0002:00009f90       __real_1_over_5            0000000180032f90     libucrt:log10.obj
 0002:00009fa0       __real_1_over_6            0000000180032fa0     libucrt:log10.obj
 0002:00009fb0       __real_neg_1023            0000000180032fb0     libucrt:log10.obj
 0002:00009fc0       __mask_2045                0000000180032fc0     libucrt:log10.obj
 0002:00009fd0       __real_threshold           0000000180032fd0     libucrt:log10.obj
 0002:00009fe0       __real_near_one_lt         0000000180032fe0     libucrt:log10.obj
 0002:00009ff0       __real_near_one_gt         0000000180032ff0     libucrt:log10.obj
 0002:0000a000       __real_min_norm            0000000180033000     libucrt:log10.obj
 0002:0000a010       __real_notsign             0000000180033010     libucrt:log10.obj
 0002:0000a020       __real_ca1                 0000000180033020     libucrt:log10.obj
 0002:0000a030       __real_ca2                 0000000180033030     libucrt:log10.obj
 0002:0000a040       __real_ca3                 0000000180033040     libucrt:log10.obj
 0002:0000a050       __real_ca4                 0000000180033050     libucrt:log10.obj
 0002:0000a060       __mask_lower               0000000180033060     libucrt:log10.obj
 0002:0000a070       __flag_x_zero              0000000180033070     libucrt:log10.obj
 0002:0000a074       __flag_x_neg               0000000180033074     libucrt:log10.obj
 0002:0000a078       __flag_x_nan               0000000180033078     libucrt:log10.obj
 0002:0000b8d0       __real@433fffffffffffff    00000001800348d0     libucrt:fpsr.obj
 0002:0000b8d8       __real@c33fffffffffffff    00000001800348d8     libucrt:fpsr.obj
 0002:0000c1d0       $unwind$?cw_memcpy@@YAHPEA_WPEBDH@Z 00000001800351d0     CWString.obj
 0002:0000c1d0       $unwind$_invalid_parameter_noinfo 00000001800351d0     libucrt:invalid_parameter.obj
 0002:0000c1d0       $unwind$?state_case_size@?$output_processor@_WV?$string_output_adapter@_W@__crt_stdio_output@@V?$format_validation_base@_WV?$string_output_adapter@_W@__crt_stdio_output@@@2@@__crt_stdio_output@@AEAA_NXZ 00000001800351d0     libucrt:output.obj
 0002:0000c1d0       $unwind$_log10_special     00000001800351d0     libucrt:log_special.obj
 0002:0000c1d8       $unwind$?cw_strcpy@@YAHPEA_WPEBD@Z 00000001800351d8     CWString.obj
 0002:0000c1d8       $unwind$??__E?pConnMap@?$IConnectionPointContainerImpl@VCOPOSFiscalPrinter@@@ATL@@0PEBU_ATL_CONNMAP_ENTRY@2@EB@@YAXXZ 00000001800351d8     FiscalPrinter.obj
 0002:0000c1d8       $unwind$?AddReplacement@CRegObject@ATL@@UEAAJPEB_W0@Z 00000001800351d8     FiscalPrinter.obj
 0002:0000c1d8       $unwind$?AtlHresultFromLastError@ATL@@YAJXZ 00000001800351d8     FiscalPrinter.obj
 0002:0000c1d8       $unwind$?AtlThrowImpl@ATL@@YAXJ@Z 00000001800351d8     FiscalPrinter.obj
 0002:0000c1d8       $unwind$?CreateInstance@CComClassFactory@ATL@@UEAAJPEAUIUnknown@@AEBU_GUID@@PEAPEAX@Z 00000001800351d8     FiscalPrinter.obj
 0002:0000c1d8       $unwind$?DefaultReflectionHandler@?$CWindowImplRoot@VCWindow@ATL@@@ATL@@SAHPEAUHWND__@@I_K_JAEA_J@Z 00000001800351d8     FiscalPrinter.obj
 0002:0000c1d8       $unwind$?EnumAdvise@?$IOleObjectImpl@VCOPOSFiscalPrinter@@@ATL@@UEAAJPEAPEAUIEnumSTATDATA@@@Z 00000001800351d8     FiscalPrinter.obj
 0002:0000c1d8       $unwind$?FireViewChange@CComControlBase@ATL@@QEAAJXZ 00000001800351d8     FiscalPrinter.obj
 0002:0000c1d8       $unwind$?GetAdvise@?$IViewObjectExImpl@VCOPOSFiscalPrinter@@@ATL@@UEAAJPEAK0PEAPEAUIAdviseSink@@@Z 00000001800351d8     FiscalPrinter.obj
 0002:0000c1d8       $unwind$?LockServer@CComClassFactory@ATL@@UEAAJH@Z 00000001800351d8     FiscalPrinter.obj
 0002:0000c1d8       $unwind$?OnDocWindowActivate@?$IOleInPlaceActiveObjectImpl@VCOPOSFiscalPrinter@@@ATL@@UEAAJH@Z 00000001800351d8     FiscalPrinter.obj
 0002:0000c1d8       $unwind$?Unadvise@?$IOleObjectImpl@VCOPOSFiscalPrinter@@@ATL@@UEAAJK@Z 00000001800351d8     FiscalPrinter.obj
 0002:0000c1d8       $unwind$?_LocCPQueryInterface@?$IConnectionPointImpl@VCOPOSFiscalPrinter@@$1?DIID__IOPOSFiscalPrinterEvents@@3U_GUID@@BVCComDynamicUnkArray@ATL@@@ATL@@UEAAJAEBU_GUID@@PEAPEAX@Z 00000001800351d8     FiscalPrinter.obj
 0002:0000c1d8       $unwind$?_LocCPQueryInterface@?$IConnectionPointImpl@VCOPOSFiscalPrinter@@$1?IID_IPropertyNotifySink@@3U_GUID@@BVCComDynamicUnkArray@ATL@@@ATL@@UEAAJAEBU_GUID@@PEAPEAX@Z 00000001800351d8     FiscalPrinter.obj
 0002:0000c1d8       $unwind$?FinalConstruct@COPOSFiscalPrinter@@QEAAJXZ 00000001800351d8     FiscalPrinterImpl.obj
 0002:0000c1d8       $unwind$?get_ResultCode@COPOSFiscalPrinter@@UEAAJPEAJ@Z 00000001800351d8     FiscalPrinterImpl.obj
 0002:0000c1d8       $unwind$?get_State@COPOSFiscalPrinter@@UEAAJPEAJ@Z 00000001800351d8     FiscalPrinterImpl.obj
 0002:0000c1d8       $unwind$??1OposDispParms@@QEAA@XZ 00000001800351d8     OposVariant.obj
 0002:0000c1d8       $unwind$??__E_AtlComModule@ATL@@YAXXZ 00000001800351d8     OposVariant.obj
 0002:0000c1d8       $unwind$??__E_AtlWinModule@ATL@@YAXXZ 00000001800351d8     OposVariant.obj
 0002:0000c1d8       $unwind$??__F_AtlWinModule@ATL@@YAXXZ 00000001800351d8     OposVariant.obj
 0002:0000c1d8       $unwind$?GetLONG@OposVariant@@QEAAJXZ 00000001800351d8     OposVariant.obj
 0002:0000c1d8       $unwind$__dcrt_terminate_console_output 00000001800351d8     libucrt:initcon.obj
 0002:0000c1d8       $unwind$??$uninitialize_environment_internal@D@@YAXAEAPEAPEAD@Z 00000001800351d8     libucrt:environment_initialization.obj
 0002:0000c1d8       $unwind$??$uninitialize_environment_internal@_W@@YAXAEAPEAPEA_W@Z 00000001800351d8     libucrt:environment_initialization.obj
 0002:0000c1d8       $unwind$__acrt_initialize_heap 00000001800351d8     libucrt:heap_handle.obj
 0002:0000c1d8       $unwind$_msize_base        00000001800351d8     libucrt:msize.obj
 0002:0000c1d8       $unwind$?initialize_multibyte@@YAHXZ 00000001800351d8     libucrt:multibyte_initializer.obj
 0002:0000c1d8       $unwind$__acrt_thread_attach 00000001800351d8     libucrt:initialization.obj
 0002:0000c1d8       $unwind$__acrt_thread_detach 00000001800351d8     libucrt:initialization.obj
 0002:0000c1d8       $unwind$__acrt_uninitialize 00000001800351d8     libucrt:initialization.obj
 0002:0000c1d8       $unwind$__acrt_uninitialize_critical 00000001800351d8     libucrt:initialization.obj
 0002:0000c1d8       $unwind$initialize_c       00000001800351d8     libucrt:initialization.obj
 0002:0000c1d8       $unwind$uninitialize_allocated_io_buffers 00000001800351d8     libucrt:initialization.obj
 0002:0000c1d8       $unwind$uninitialize_environment 00000001800351d8     libucrt:initialization.obj
 0002:0000c1d8       $unwind$__acrt_initialize_ptd 00000001800351d8     libucrt:per_thread_data.obj
 0002:0000c1d8       $unwind$__acrt_uninitialize_ptd 00000001800351d8     libucrt:per_thread_data.obj
 0002:0000c1d8       $unwind$__acrt_AreFileApisANSI 00000001800351d8     libucrt:winapi_thunks.obj
 0002:0000c1d8       $unwind$__acrt_release_locale_ref 00000001800351d8     libucrt:locale_refcounting.obj
 0002:0000c1d8       $unwind$_isatty            00000001800351d8     libucrt:isatty.obj
 0002:0000c1d8       $unwind$_get_osfhandle     00000001800351d8     libucrt:osfinfo.obj
 0002:0000c1d8       $unwind$__acrt_initialize_multibyte 00000001800351d8     libucrt:mbctype.obj
 0002:0000c1d8       $unwind$__acrt_update_thread_multibyte_data 00000001800351d8     libucrt:mbctype.obj
 0002:0000c1d8       $unwind$__doserrno         00000001800351d8     libucrt:errno.obj
 0002:0000c1d8       $unwind$_errno             00000001800351d8     libucrt:errno.obj
 0002:0000c1d8       $unwind$_invoke_watson     00000001800351d8     libucrt:invalid_parameter.obj
 0002:0000c1d8       $unwind$abort              00000001800351d8     libucrt:abort.obj
 0002:0000c1d8       $unwind$__acrt_initialize_command_line 00000001800351d8     libucrt:argv_data.obj
 0002:0000c1d8       $unwind$?should_call_terminate_process@@YA_NXZ 00000001800351d8     libucrt:exit.obj
 0002:0000c1d8       $unwind$_fileno            00000001800351d8     libucrt:fileno.obj
 0002:0000c1d8       $unwind$_statfp            00000001800351d8     libucrt:fpctrl.obj
 0002:0000c1d8       $unwind$fegetround         00000001800351d8     libucrt:fegetround.obj
 0002:0000c1d8       $unwind$_set_errno_from_matherr 00000001800351d8     libucrt:fpexcept.obj
 0002:0000c1d8       $unwind$??__E_AtlBaseModule@ATL@@YAXXZ 00000001800351d8     atls:atlbase.obj
 0002:0000c1d8       $unwind$__scrt_initialize_default_local_stdio_options 00000001800351d8     LIBCMT:default_local_stdio_options.obj
 0002:0000c1d8       $unwind$?dllmain_crt_dispatch@@YAHQEAUHINSTANCE__@@KQEAX@Z 00000001800351d8     LIBCMT:dll_dllmain.obj
 0002:0000c1d8       $unwind$__report_rangecheckfailure 00000001800351d8     LIBCMT:gs_report.obj
 0002:0000c1d8       $unwind$__GSHandlerCheck   00000001800351d8     LIBCMT:gshandler.obj
 0002:0000c1d8       $unwind$?__scrt_uninitialize_thread_safe_statics@@YAXXZ 00000001800351d8     LIBCMT:thread_safe_statics.obj
 0002:0000c1d8       $unwind$_Init_thread_notify 00000001800351d8     LIBCMT:thread_safe_statics.obj
 0002:0000c1d8       $unwind$__scrt_acquire_startup_lock 00000001800351d8     LIBCMT:utility.obj
 0002:0000c1d8       $unwind$__scrt_dllmain_after_initialize_c 00000001800351d8     LIBCMT:utility.obj
 0002:0000c1d8       $unwind$__scrt_dllmain_before_initialize_c 00000001800351d8     LIBCMT:utility.obj
 0002:0000c1d8       $unwind$__scrt_dllmain_crt_thread_attach 00000001800351d8     LIBCMT:utility.obj
 0002:0000c1d8       $unwind$__scrt_dllmain_crt_thread_detach 00000001800351d8     LIBCMT:utility.obj
 0002:0000c1d8       $unwind$__scrt_dllmain_uninitialize_c 00000001800351d8     LIBCMT:utility.obj
 0002:0000c1d8       $unwind$__scrt_dllmain_uninitialize_critical 00000001800351d8     LIBCMT:utility.obj
 0002:0000c1d8       $unwind$atexit             00000001800351d8     LIBCMT:utility.obj
 0002:0000c1d8       $unwind$__std_terminate    00000001800351d8     libvcruntime:ehhelpers.obj
 0002:0000c1d8       $unwind$?GetCurrentState@__FrameHandler3@@SAHPEA_KPEAU_xDISPATCHER_CONTEXT@@PEBU_s_FuncInfo@@@Z 00000001800351d8     libvcruntime:ehstate.obj
 0002:0000c1d8       $unwind$__vcrt_initialize  00000001800351d8     libvcruntime:initialization.obj
 0002:0000c1d8       $unwind$__vcrt_thread_attach 00000001800351d8     libvcruntime:initialization.obj
 0002:0000c1d8       $unwind$__vcrt_thread_detach 00000001800351d8     libvcruntime:initialization.obj
 0002:0000c1d8       $unwind$__vcrt_uninitialize 00000001800351d8     libvcruntime:initialization.obj
 0002:0000c1d8       $unwind$__vcrt_uninitialize_critical 00000001800351d8     libvcruntime:initialization.obj
 0002:0000c1d8       $unwind$__vcrt_freefls     00000001800351d8     libvcruntime:per_thread_data.obj
 0002:0000c1d8       $unwind$__vcrt_getptd      00000001800351d8     libvcruntime:per_thread_data.obj
 0002:0000c1d8       $unwind$__vcrt_initialize_ptd 00000001800351d8     libvcruntime:per_thread_data.obj
 0002:0000c1d8       $unwind$__vcrt_uninitialize_ptd 00000001800351d8     libvcruntime:per_thread_data.obj
 0002:0000c1d8       $unwind$_purecall          00000001800351d8     libvcruntime:purevirt.obj
 0002:0000c1d8       $unwind$?FrameUnwindToEmptyState@__FrameHandler4@@SAXPEA_KPEAU_xDISPATCHER_CONTEXT@@PEAUFuncInfo4@FH4@@@Z 00000001800351d8     libvcruntime:risctrnsctrl.obj
 0002:0000c1d8       $unwind$_GetImageBase      00000001800351d8     libvcruntime:risctrnsctrl.obj
 0002:0000c1d8       $unwind$_GetThrowImageBase 00000001800351d8     libvcruntime:risctrnsctrl.obj
 0002:0000c1e0       $unwind$?cw_dup@@YAXPEBDAEAHAEAPEA_W1@Z 00000001800351e0     CWString.obj
 0002:0000c1e0       $unwind$?DAdvise@?$IDataObjectImpl@VCOPOSFiscalPrinter@@@ATL@@UEAAJPEAUtagFORMATETC@@KPEAUIAdviseSink@@PEAK@Z 00000001800351e0     FiscalPrinter.obj
 0002:0000c1e0       $unwind$??$create_environment@D@@YAQEAPEADQEAD@Z 00000001800351e0     libucrt:environment_initialization.obj
 0002:0000c1e0       $unwind$_mbtowc_internal   00000001800351e0     libucrt:mbtowc.obj
 0002:0000c1e0       $unwind$??$__acrt_convert_wcs_mbs_cp@D_WV<lambda_7c9dea7b4ca7285d2cdb541a38da6275>@@U__crt_win32_buffer_internal_dynamic_resizing@@@@YAHQEBDAEAV?$__crt_win32_buffer@_WU__crt_win32_buffer_internal_dynamic_resizing@@@@AEBV<lambda_7c9dea7b4ca7285d2cdb541a38da6275>@@I@Z 00000001800351e0     libucrt:argv_wildcards.obj
 0002:0000c1e0       $unwind$?process@?$output_processor@_WV?$string_output_adapter@_W@__crt_stdio_output@@V?$format_validation_base@_WV?$string_output_adapter@_W@__crt_stdio_output@@@2@@__crt_stdio_output@@QEAAHXZ 00000001800351e0     libucrt:output.obj
 0002:0000c1f8       $unwind$?DupWide@_CW@@AEAAXXZ 00000001800351f8     CWString.obj
 0002:0000c1f8       $unwind$??0?$CComObject@VCOPOSFiscalPrinter@@@ATL@@QEAA@PEAX@Z 00000001800351f8     FiscalPrinter.obj
 0002:0000c1f8       $unwind$??0CAtlModule@ATL@@QEAA@XZ 00000001800351f8     FiscalPrinter.obj
 0002:0000c1f8       $unwind$??1?$CComObject@VCOPOSFiscalPrinter@@@ATL@@UEAA@XZ 00000001800351f8     FiscalPrinter.obj
 0002:0000c1f8       $unwind$??__E_Module@@YAXXZ 00000001800351f8     FiscalPrinter.obj
 0002:0000c1f8       $unwind$?AddRef@?$CComObjectCached@VCComClassFactory@ATL@@@ATL@@UEAAKXZ 00000001800351f8     FiscalPrinter.obj
 0002:0000c1f8       $unwind$?AllocateHeap@?$CTempBuffer@E$0BAA@VCCRTAllocator@ATL@@@ATL@@AEAAX_K@Z 00000001800351f8     FiscalPrinter.obj
 0002:0000c1f8       $unwind$?AllocateHeap@?$CTempBuffer@_W$0BAA@VCCRTAllocator@ATL@@@ATL@@AEAAX_K@Z 00000001800351f8     FiscalPrinter.obj
 0002:0000c1f8       $unwind$?AllocateHeap@?$CTempBuffer@_W$0EAA@VCCRTAllocator@ATL@@@ATL@@AEAAX_K@Z 00000001800351f8     FiscalPrinter.obj
 0002:0000c1f8       $unwind$?GetClassInfoW@?$IProvideClassInfo2Impl@$1?CLSID_OPOSFiscalPrinter@@3U_GUID@@B$1?DIID__IOPOSFiscalPrinterEvents@@3U2@B$1?LIBID_OposFiscalPrinter_CCO@@3U2@B$00$0A@VCComTypeInfoHolder@ATL@@@ATL@@UEAAJPEAPEAUITypeInfo@@@Z 00000001800351f8     FiscalPrinter.obj
 0002:0000c1f8       $unwind$?GetClientSite@?$IOleObjectImpl@VCOPOSFiscalPrinter@@@ATL@@UEAAJPEAPEAUIOleClientSite@@@Z 00000001800351f8     FiscalPrinter.obj
 0002:0000c1f8       $unwind$?GetConnMap@COPOSFiscalPrinter@@SAPEBU_ATL_CONNMAP_ENTRY@ATL@@PEAH@Z 00000001800351f8     FiscalPrinter.obj
 0002:0000c1f8       $unwind$?GetTypeInfo@?$IDispatchImpl@UIOPOSFiscalPrinter@@$1?IID_IOPOSFiscalPrinter@@3U_GUID@@B$1?LIBID_OposFiscalPrinter_CCO@@3U3@B$00$0A@VCComTypeInfoHolder@ATL@@@ATL@@UEAAJIKPEAPEAUITypeInfo@@@Z 00000001800351f8     FiscalPrinter.obj
 0002:0000c1f8       $unwind$?IOleInPlaceObject_InPlaceDeactivate@CComControlBase@ATL@@QEAAJXZ 00000001800351f8     FiscalPrinter.obj
 0002:0000c1f8       $unwind$?IOleObject_SetExtent@CComControlBase@ATL@@QEAAJKPEAUtagSIZE@@@Z 00000001800351f8     FiscalPrinter.obj
 0002:0000c1f8       $unwind$?IsEqualObject@?$CComPtrBase@UIOleClientSite@@@ATL@@QEAA_NPEAUIUnknown@@@Z 00000001800351f8     FiscalPrinter.obj
 0002:0000c1f8       $unwind$?QueryHitPoint@?$IViewObjectExImpl@VCOPOSFiscalPrinter@@@ATL@@UEAAJKPEBUtagRECT@@UtagPOINT@@JPEAK@Z 00000001800351f8     FiscalPrinter.obj
 0002:0000c1f8       $unwind$?QueryInterface@?$CComAggObject@VCOPOSFiscalPrinter@@@ATL@@UEAAJAEBU_GUID@@PEAPEAX@Z 00000001800351f8     FiscalPrinter.obj
 0002:0000c1f8       $unwind$?Release@?$CComObjectCached@VCComClassFactory@ATL@@@ATL@@UEAAKXZ 00000001800351f8     FiscalPrinter.obj
 0002:0000c1f8       $unwind$?Unadvise@?$IConnectionPointImpl@VCOPOSFiscalPrinter@@$1?DIID__IOPOSFiscalPrinterEvents@@3U_GUID@@BVCComDynamicUnkArray@ATL@@@ATL@@UEAAJK@Z 00000001800351f8     FiscalPrinter.obj
 0002:0000c1f8       $unwind$?Unadvise@?$IConnectionPointImpl@VCOPOSFiscalPrinter@@$1?IID_IPropertyNotifySink@@3U_GUID@@BVCComDynamicUnkArray@ATL@@@ATL@@UEAAJK@Z 00000001800351f8     FiscalPrinter.obj
 0002:0000c1f8       $unwind$??1CComControlBase@ATL@@UEAA@XZ 00000001800351f8     FiscalPrinterImpl.obj
 0002:0000c1f8       $unwind$??1COPOSFiscalPrinter@@UEAA@XZ 00000001800351f8     FiscalPrinterImpl.obj
 0002:0000c1f8       $unwind$?EventUninit@COPOSFiscalPrinter@@IEAAXXZ 00000001800351f8     FiscalPrinterImpl.obj
 0002:0000c1f8       $unwind$?FreezeEvents@COPOSFiscalPrinter@@MEAAJH@Z 00000001800351f8     FiscalPrinterImpl.obj
 0002:0000c1f8       $unwind$?SOProcessID@COPOSFiscalPrinter@@UEAAJPEAJ@Z 00000001800351f8     FiscalPrinterImpl.obj
 0002:0000c1f8       $unwind$?get_AsyncMode@COPOSFiscalPrinter@@UEAAJPEAF@Z 00000001800351f8     FiscalPrinterImpl.obj
 0002:0000c1f8       $unwind$?get_CapAdditionalHeader@COPOSFiscalPrinter@@UEAAJPEAF@Z 00000001800351f8     FiscalPrinterImpl.obj
 0002:0000c1f8       $unwind$?get_CapAdditionalLines@COPOSFiscalPrinter@@UEAAJPEAF@Z 00000001800351f8     FiscalPrinterImpl.obj
 0002:0000c1f8       $unwind$?get_CapAdditionalTrailer@COPOSFiscalPrinter@@UEAAJPEAF@Z 00000001800351f8     FiscalPrinterImpl.obj
 0002:0000c1f8       $unwind$?get_CapAmountAdjustment@COPOSFiscalPrinter@@UEAAJPEAF@Z 00000001800351f8     FiscalPrinterImpl.obj
 0002:0000c1f8       $unwind$?get_CapAmountNotPaid@COPOSFiscalPrinter@@UEAAJPEAF@Z 00000001800351f8     FiscalPrinterImpl.obj
 0002:0000c1f8       $unwind$?get_CapChangeDue@COPOSFiscalPrinter@@UEAAJPEAF@Z 00000001800351f8     FiscalPrinterImpl.obj
 0002:0000c1f8       $unwind$?get_CapCheckTotal@COPOSFiscalPrinter@@UEAAJPEAF@Z 00000001800351f8     FiscalPrinterImpl.obj
 0002:0000c1f8       $unwind$?get_CapCompareFirmwareVersion@COPOSFiscalPrinter@@UEAAJPEAF@Z 00000001800351f8     FiscalPrinterImpl.obj
 0002:0000c1f8       $unwind$?get_CapCoverSensor@COPOSFiscalPrinter@@UEAAJPEAF@Z 00000001800351f8     FiscalPrinterImpl.obj
 0002:0000c1f8       $unwind$?get_CapDoubleWidth@COPOSFiscalPrinter@@UEAAJPEAF@Z 00000001800351f8     FiscalPrinterImpl.obj
 0002:0000c1f8       $unwind$?get_CapDuplicateReceipt@COPOSFiscalPrinter@@UEAAJPEAF@Z 00000001800351f8     FiscalPrinterImpl.obj
 0002:0000c1f8       $unwind$?get_CapEmptyReceiptIsVoidable@COPOSFiscalPrinter@@UEAAJPEAF@Z 00000001800351f8     FiscalPrinterImpl.obj
 0002:0000c1f8       $unwind$?get_CapFiscalReceiptStation@COPOSFiscalPrinter@@UEAAJPEAF@Z 00000001800351f8     FiscalPrinterImpl.obj
 0002:0000c1f8       $unwind$?get_CapFiscalReceiptType@COPOSFiscalPrinter@@UEAAJPEAF@Z 00000001800351f8     FiscalPrinterImpl.obj
 0002:0000c1f8       $unwind$?get_CapFixedOutput@COPOSFiscalPrinter@@UEAAJPEAF@Z 00000001800351f8     FiscalPrinterImpl.obj
 0002:0000c1f8       $unwind$?get_CapHasVatTable@COPOSFiscalPrinter@@UEAAJPEAF@Z 00000001800351f8     FiscalPrinterImpl.obj
 0002:0000c1f8       $unwind$?get_CapIndependentHeader@COPOSFiscalPrinter@@UEAAJPEAF@Z 00000001800351f8     FiscalPrinterImpl.obj
 0002:0000c1f8       $unwind$?get_CapItemList@COPOSFiscalPrinter@@UEAAJPEAF@Z 00000001800351f8     FiscalPrinterImpl.obj
 0002:0000c1f8       $unwind$?get_CapJrnEmptySensor@COPOSFiscalPrinter@@UEAAJPEAF@Z 00000001800351f8     FiscalPrinterImpl.obj
 0002:0000c1f8       $unwind$?get_CapJrnNearEndSensor@COPOSFiscalPrinter@@UEAAJPEAF@Z 00000001800351f8     FiscalPrinterImpl.obj
 0002:0000c1f8       $unwind$?get_CapJrnPresent@COPOSFiscalPrinter@@UEAAJPEAF@Z 00000001800351f8     FiscalPrinterImpl.obj
 0002:0000c1f8       $unwind$?get_CapMultiContractor@COPOSFiscalPrinter@@UEAAJPEAF@Z 00000001800351f8     FiscalPrinterImpl.obj
 0002:0000c1f8       $unwind$?get_CapNonFiscalMode@COPOSFiscalPrinter@@UEAAJPEAF@Z 00000001800351f8     FiscalPrinterImpl.obj
 0002:0000c1f8       $unwind$?get_CapOnlyVoidLastItem@COPOSFiscalPrinter@@UEAAJPEAF@Z 00000001800351f8     FiscalPrinterImpl.obj
 0002:0000c1f8       $unwind$?get_CapOrderAdjustmentFirst@COPOSFiscalPrinter@@UEAAJPEAF@Z 00000001800351f8     FiscalPrinterImpl.obj
 0002:0000c1f8       $unwind$?get_CapPackageAdjustment@COPOSFiscalPrinter@@UEAAJPEAF@Z 00000001800351f8     FiscalPrinterImpl.obj
 0002:0000c1f8       $unwind$?get_CapPercentAdjustment@COPOSFiscalPrinter@@UEAAJPEAF@Z 00000001800351f8     FiscalPrinterImpl.obj
 0002:0000c1f8       $unwind$?get_CapPositiveAdjustment@COPOSFiscalPrinter@@UEAAJPEAF@Z 00000001800351f8     FiscalPrinterImpl.obj
 0002:0000c1f8       $unwind$?get_CapPositiveSubtotalAdjustment@COPOSFiscalPrinter@@UEAAJPEAF@Z 00000001800351f8     FiscalPrinterImpl.obj
 0002:0000c1f8       $unwind$?get_CapPostPreLine@COPOSFiscalPrinter@@UEAAJPEAF@Z 00000001800351f8     FiscalPrinterImpl.obj
 0002:0000c1f8       $unwind$?get_CapPowerLossReport@COPOSFiscalPrinter@@UEAAJPEAF@Z 00000001800351f8     FiscalPrinterImpl.obj
 0002:0000c1f8       $unwind$?get_CapPredefinedPaymentLines@COPOSFiscalPrinter@@UEAAJPEAF@Z 00000001800351f8     FiscalPrinterImpl.obj
 0002:0000c1f8       $unwind$?get_CapRecEmptySensor@COPOSFiscalPrinter@@UEAAJPEAF@Z 00000001800351f8     FiscalPrinterImpl.obj
 0002:0000c1f8       $unwind$?get_CapRecNearEndSensor@COPOSFiscalPrinter@@UEAAJPEAF@Z 00000001800351f8     FiscalPrinterImpl.obj
 0002:0000c1f8       $unwind$?get_CapRecPresent@COPOSFiscalPrinter@@UEAAJPEAF@Z 00000001800351f8     FiscalPrinterImpl.obj
 0002:0000c1f8       $unwind$?get_CapReceiptNotPaid@COPOSFiscalPrinter@@UEAAJPEAF@Z 00000001800351f8     FiscalPrinterImpl.obj
 0002:0000c1f8       $unwind$?get_CapRemainingFiscalMemory@COPOSFiscalPrinter@@UEAAJPEAF@Z 00000001800351f8     FiscalPrinterImpl.obj
 0002:0000c1f8       $unwind$?get_CapReservedWord@COPOSFiscalPrinter@@UEAAJPEAF@Z 00000001800351f8     FiscalPrinterImpl.obj
 0002:0000c1f8       $unwind$?get_CapSetCurrency@COPOSFiscalPrinter@@UEAAJPEAF@Z 00000001800351f8     FiscalPrinterImpl.obj
 0002:0000c1f8       $unwind$?get_CapSetHeader@COPOSFiscalPrinter@@UEAAJPEAF@Z 00000001800351f8     FiscalPrinterImpl.obj
 0002:0000c1f8       $unwind$?get_CapSetPOSID@COPOSFiscalPrinter@@UEAAJPEAF@Z 00000001800351f8     FiscalPrinterImpl.obj
 0002:0000c1f8       $unwind$?get_CapSetStoreFiscalID@COPOSFiscalPrinter@@UEAAJPEAF@Z 00000001800351f8     FiscalPrinterImpl.obj
 0002:0000c1f8       $unwind$?get_CapSetTrailer@COPOSFiscalPrinter@@UEAAJPEAF@Z 00000001800351f8     FiscalPrinterImpl.obj
 0002:0000c1f8       $unwind$?get_CapSetVatTable@COPOSFiscalPrinter@@UEAAJPEAF@Z 00000001800351f8     FiscalPrinterImpl.obj
 0002:0000c1f8       $unwind$?get_CapSlpEmptySensor@COPOSFiscalPrinter@@UEAAJPEAF@Z 00000001800351f8     FiscalPrinterImpl.obj
 0002:0000c1f8       $unwind$?get_CapSlpFiscalDocument@COPOSFiscalPrinter@@UEAAJPEAF@Z 00000001800351f8     FiscalPrinterImpl.obj
 0002:0000c1f8       $unwind$?get_CapSlpFullSlip@COPOSFiscalPrinter@@UEAAJPEAF@Z 00000001800351f8     FiscalPrinterImpl.obj
 0002:0000c1f8       $unwind$?get_CapSlpNearEndSensor@COPOSFiscalPrinter@@UEAAJPEAF@Z 00000001800351f8     FiscalPrinterImpl.obj
 0002:0000c1f8       $unwind$?get_CapSlpPresent@COPOSFiscalPrinter@@UEAAJPEAF@Z 00000001800351f8     FiscalPrinterImpl.obj
 0002:0000c1f8       $unwind$?get_CapSlpValidation@COPOSFiscalPrinter@@UEAAJPEAF@Z 00000001800351f8     FiscalPrinterImpl.obj
 0002:0000c1f8       $unwind$?get_CapStatisticsReporting@COPOSFiscalPrinter@@UEAAJPEAF@Z 00000001800351f8     FiscalPrinterImpl.obj
 0002:0000c1f8       $unwind$?get_CapSubAmountAdjustment@COPOSFiscalPrinter@@UEAAJPEAF@Z 00000001800351f8     FiscalPrinterImpl.obj
 0002:0000c1f8       $unwind$?get_CapSubPercentAdjustment@COPOSFiscalPrinter@@UEAAJPEAF@Z 00000001800351f8     FiscalPrinterImpl.obj
 0002:0000c1f8       $unwind$?get_CapSubtotal@COPOSFiscalPrinter@@UEAAJPEAF@Z 00000001800351f8     FiscalPrinterImpl.obj
 0002:0000c1f8       $unwind$?get_CapTotalizerType@COPOSFiscalPrinter@@UEAAJPEAF@Z 00000001800351f8     FiscalPrinterImpl.obj
 0002:0000c1f8       $unwind$?get_CapTrainingMode@COPOSFiscalPrinter@@UEAAJPEAF@Z 00000001800351f8     FiscalPrinterImpl.obj
 0002:0000c1f8       $unwind$?get_CapUpdateFirmware@COPOSFiscalPrinter@@UEAAJPEAF@Z 00000001800351f8     FiscalPrinterImpl.obj
 0002:0000c1f8       $unwind$?get_CapUpdateStatistics@COPOSFiscalPrinter@@UEAAJPEAF@Z 00000001800351f8     FiscalPrinterImpl.obj
 0002:0000c1f8       $unwind$?get_CapValidateJournal@COPOSFiscalPrinter@@UEAAJPEAF@Z 00000001800351f8     FiscalPrinterImpl.obj
 0002:0000c1f8       $unwind$?get_CapXReport@COPOSFiscalPrinter@@UEAAJPEAF@Z 00000001800351f8     FiscalPrinterImpl.obj
 0002:0000c1f8       $unwind$?get_CheckTotal@COPOSFiscalPrinter@@UEAAJPEAF@Z 00000001800351f8     FiscalPrinterImpl.obj
 0002:0000c1f8       $unwind$?get_Claimed@COPOSFiscalPrinter@@UEAAJPEAF@Z 00000001800351f8     FiscalPrinterImpl.obj
 0002:0000c1f8       $unwind$?get_CoverOpen@COPOSFiscalPrinter@@UEAAJPEAF@Z 00000001800351f8     FiscalPrinterImpl.obj
 0002:0000c1f8       $unwind$?get_DayOpened@COPOSFiscalPrinter@@UEAAJPEAF@Z 00000001800351f8     FiscalPrinterImpl.obj
 0002:0000c1f8       $unwind$?get_DeviceEnabled@COPOSFiscalPrinter@@UEAAJPEAF@Z 00000001800351f8     FiscalPrinterImpl.obj
 0002:0000c1f8       $unwind$?get_DuplicateReceipt@COPOSFiscalPrinter@@UEAAJPEAF@Z 00000001800351f8     FiscalPrinterImpl.obj
 0002:0000c1f8       $unwind$?get_FlagWhenIdle@COPOSFiscalPrinter@@UEAAJPEAF@Z 00000001800351f8     FiscalPrinterImpl.obj
 0002:0000c1f8       $unwind$?get_FreezeEvents@COPOSFiscalPrinter@@UEAAJPEAF@Z 00000001800351f8     FiscalPrinterImpl.obj
 0002:0000c1f8       $unwind$?get_JrnEmpty@COPOSFiscalPrinter@@UEAAJPEAF@Z 00000001800351f8     FiscalPrinterImpl.obj
 0002:0000c1f8       $unwind$?get_JrnNearEnd@COPOSFiscalPrinter@@UEAAJPEAF@Z 00000001800351f8     FiscalPrinterImpl.obj
 0002:0000c1f8       $unwind$?get_RecEmpty@COPOSFiscalPrinter@@UEAAJPEAF@Z 00000001800351f8     FiscalPrinterImpl.obj
 0002:0000c1f8       $unwind$?get_RecNearEnd@COPOSFiscalPrinter@@UEAAJPEAF@Z 00000001800351f8     FiscalPrinterImpl.obj
 0002:0000c1f8       $unwind$?get_SlpEmpty@COPOSFiscalPrinter@@UEAAJPEAF@Z 00000001800351f8     FiscalPrinterImpl.obj
 0002:0000c1f8       $unwind$?get_SlpNearEnd@COPOSFiscalPrinter@@UEAAJPEAF@Z 00000001800351f8     FiscalPrinterImpl.obj
 0002:0000c1f8       $unwind$?get_TrainingModeActive@COPOSFiscalPrinter@@UEAAJPEAF@Z 00000001800351f8     FiscalPrinterImpl.obj
 0002:0000c1f8       $unwind$?put_FreezeEvents@COPOSFiscalPrinter@@UEAAJF@Z 00000001800351f8     FiscalPrinterImpl.obj
 0002:0000c1f8       $unwind$??0CAtlComModule@ATL@@QEAA@XZ 00000001800351f8     OposVariant.obj
 0002:0000c1f8       $unwind$??0CAtlWinModule@ATL@@QEAA@XZ 00000001800351f8     OposVariant.obj
 0002:0000c1f8       $unwind$?SetBSTR_OutPtr@OposVariant@@QEAA_NPEAPEA_WAEAJ@Z 00000001800351f8     OposVariant.obj
 0002:0000c1f8       $unwind$_calloc_base       00000001800351f8     libucrt:calloc_base.obj
 0002:0000c1f8       $unwind$_malloc_base       00000001800351f8     libucrt:malloc_base.obj
 0002:0000c1f8       $unwind$_callnewh          00000001800351f8     libucrt:new_handler.obj
 0002:0000c1f8       $unwind$initialize_pointers 00000001800351f8     libucrt:initialization.obj
 0002:0000c1f8       $unwind$uninitialize_allocated_memory 00000001800351f8     libucrt:initialization.obj
 0002:0000c1f8       $unwind$__acrt_initialize_locks 00000001800351f8     libucrt:locks.obj
 0002:0000c1f8       $unwind$__acrt_uninitialize_locks 00000001800351f8     libucrt:locks.obj
 0002:0000c1f8       $unwind$__acrt_freeptd     00000001800351f8     libucrt:per_thread_data.obj
 0002:0000c1f8       $unwind$__acrt_getptd_head 00000001800351f8     libucrt:per_thread_data.obj
 0002:0000c1f8       $unwind$__acrt_get_process_end_policy 00000001800351f8     libucrt:win_policies.obj
 0002:0000c1f8       $unwind$__acrt_AppPolicyGetProcessTerminationMethodInternal 00000001800351f8     libucrt:winapi_thunks.obj
 0002:0000c1f8       $unwind$__acrt_SetThreadStackGuarantee 00000001800351f8     libucrt:winapi_thunks.obj
 0002:0000c1f8       $unwind$__acrt_uninitialize_winapi_thunks 00000001800351f8     libucrt:winapi_thunks.obj
 0002:0000c1f8       $unwind$__acrt_update_locale_info 00000001800351f8     libucrt:locale_update.obj
 0002:0000c1f8       $unwind$__acrt_update_locale_info_explicit 00000001800351f8     libucrt:locale_update.obj
 0002:0000c1f8       $unwind$__acrt_update_multibyte_info 00000001800351f8     libucrt:locale_update.obj
 0002:0000c1f8       $unwind$__acrt_update_multibyte_info_explicit 00000001800351f8     libucrt:locale_update.obj
 0002:0000c1f8       $unwind$__acrt_errno_map_os_error 00000001800351f8     libucrt:errno.obj
 0002:0000c1f8       $unwind$__acrt_errno_map_os_error_ptd 00000001800351f8     libucrt:errno.obj
 0002:0000c1f8       $unwind$__acrt_allocate_buffer_for_argv 00000001800351f8     libucrt:argv_parsing.obj
 0002:0000c1f8       $unwind$?exit_or_terminate_process@@YAXI@Z 00000001800351f8     libucrt:exit.obj
 0002:0000c1f8       $unwind$__acrt_uninitialize_stdio 00000001800351f8     libucrt:_file.obj
 0002:0000c1f8       $unwind$__acrt_stdio_free_buffer_nolock 00000001800351f8     libucrt:_freebuf.obj
 0002:0000c1f8       $unwind$strcpy_s           00000001800351f8     libucrt:strcpy_s.obj
 0002:0000c1f8       $unwind$wcscat_s           00000001800351f8     libucrt:wcscat_s.obj
 0002:0000c1f8       $unwind$wcscpy_s           00000001800351f8     libucrt:wcscpy_s.obj
 0002:0000c1f8       $unwind$_clrfp             00000001800351f8     libucrt:fpctrl.obj
 0002:0000c1f8       $unwind$_set_statfp        00000001800351f8     libucrt:fpctrl.obj
 0002:0000c1f8       $unwind$_clearfp           00000001800351f8     libucrt:ieee.obj
 0002:0000c1f8       $unwind$_controlfp_s       00000001800351f8     libucrt:contrlfp.obj
 0002:0000c1f8       $unwind$fegetenv           00000001800351f8     libucrt:fegetenv.obj
 0002:0000c1f8       $unwind$feholdexcept       00000001800351f8     libucrt:feholdexcept.obj
 0002:0000c1f8       $unwind$fesetenv           00000001800351f8     libucrt:fesetenv.obj
 0002:0000c1f8       $unwind$??1CAtlBaseModule@ATL@@QEAA@XZ 00000001800351f8     atls:atlbase.obj
 0002:0000c1f8       $unwind$AtlThunk_AllocateData 00000001800351f8     atls:atlthunk.obj
 0002:0000c1f8       $unwind$__raise_securityfailure 00000001800351f8     LIBCMT:gs_report.obj
 0002:0000c1f8       $unwind$??2@YAPEAX_K@Z     00000001800351f8     LIBCMT:new_scalar.obj
 0002:0000c1f8       $unwind$??_Gtype_info@@UEAAPEAXI@Z 00000001800351f8     LIBCMT:std_type_info_static.obj
 0002:0000c1f8       $unwind$_Init_thread_footer 00000001800351f8     LIBCMT:thread_safe_statics.obj
 0002:0000c1f8       $unwind$_Init_thread_header 00000001800351f8     LIBCMT:thread_safe_statics.obj
 0002:0000c1f8       $unwind$_Init_thread_wait  00000001800351f8     LIBCMT:thread_safe_statics.obj
 0002:0000c1f8       $unwind$??0bad_alloc@std@@QEAA@AEBV01@@Z 00000001800351f8     LIBCMT:throw_bad_alloc.obj
 0002:0000c1f8       $unwind$??0bad_array_new_length@std@@QEAA@AEBV01@@Z 00000001800351f8     LIBCMT:throw_bad_alloc.obj
 0002:0000c1f8       $unwind$??0exception@std@@QEAA@AEBV01@@Z 00000001800351f8     LIBCMT:throw_bad_alloc.obj
 0002:0000c1f8       $unwind$__scrt_initialize_crt 00000001800351f8     LIBCMT:utility.obj
 0002:0000c1f8       $unwind$__scrt_initialize_onexit_tables 00000001800351f8     LIBCMT:utility.obj
 0002:0000c1f8       $unwind$__scrt_release_startup_lock 00000001800351f8     LIBCMT:utility.obj
 0002:0000c1f8       $unwind$__scrt_uninitialize_crt 00000001800351f8     LIBCMT:utility.obj
 0002:0000c1f8       $unwind$_onexit            00000001800351f8     LIBCMT:utility.obj
 0002:0000c1f8       $unwind$_IsExceptionObjectToBeDestroyed 00000001800351f8     libvcruntime:ehhelpers.obj
 0002:0000c1f8       $unwind$?GetUnwindTryBlock@__FrameHandler3@@SAHPEA_KPEAU_xDISPATCHER_CONTEXT@@PEBU_s_FuncInfo@@@Z 00000001800351f8     libvcruntime:ehstate.obj
 0002:0000c1f8       $unwind$?StateFromIp@__FrameHandler3@@SAHPEBU_s_FuncInfo@@PEAU_xDISPATCHER_CONTEXT@@_K@Z 00000001800351f8     libvcruntime:ehstate.obj
 0002:0000c1f8       $unwind$??0HandlerMap4@FH4@@QEAA@PEBUTryBlockMapEntry4@1@_KH@Z 00000001800351f8     libvcruntime:frame.obj
 0002:0000c1f8       $unwind$??0bad_exception@std@@QEAA@AEBV01@@Z 00000001800351f8     libvcruntime:frame.obj
 0002:0000c1f8       $unwind$__vcrt_initialize_locks 00000001800351f8     libvcruntime:locks.obj
 0002:0000c1f8       $unwind$__vcrt_uninitialize_locks 00000001800351f8     libvcruntime:locks.obj
 0002:0000c1f8       $unwind$__vcrt_freeptd     00000001800351f8     libvcruntime:per_thread_data.obj
 0002:0000c1f8       $unwind$?ExecutionInCatch@__FrameHandler3@@SA_NPEAU_xDISPATCHER_CONTEXT@@PEBU_s_FuncInfo@@@Z 00000001800351f8     libvcruntime:risctrnsctrl.obj
 0002:0000c1f8       $unwind$_CreateFrameInfo   00000001800351f8     libvcruntime:risctrnsctrl.obj
 0002:0000c1f8       $unwind$_SetImageBase      00000001800351f8     libvcruntime:risctrnsctrl.obj
 0002:0000c1f8       $unwind$_SetThrowImageBase 00000001800351f8     libvcruntime:risctrnsctrl.obj
 0002:0000c1f8       $unwind$__std_exception_destroy 00000001800351f8     libvcruntime:std_exception.obj
 0002:0000c1f8       $unwind$__std_type_info_destroy_list 00000001800351f8     libvcruntime:std_type_info.obj
 0002:0000c1f8       $unwind$__vcrt_FlsAlloc    00000001800351f8     libvcruntime:winapi_downlevel.obj
 0002:0000c1f8       $unwind$__vcrt_FlsFree     00000001800351f8     libvcruntime:winapi_downlevel.obj
 0002:0000c1f8       $unwind$__vcrt_FlsGetValue 00000001800351f8     libvcruntime:winapi_downlevel.obj
 0002:0000c200       $unwind$?AtlWinModuleExtractCreateWndData@ATL@@YAPEAXPEAU_ATL_WIN_MODULE70@1@@Z 0000000180035200     FiscalPrinter.obj
 0002:0000c200       $unwind$?CreateInstance@?$CComCreator@V?$CComObject@VCOPOSFiscalPrinter@@@ATL@@@ATL@@SAJPEAXAEBU_GUID@@PEAPEAX@Z 0000000180035200     FiscalPrinter.obj
 0002:0000c200       $unwind$?DoEvent@COPOSFiscalPrinter@@IEAAXI_K_J@Z 0000000180035200     FiscalPrinter.obj
 0002:0000c200       $unwind$?DoVerb@?$IOleObjectImpl@VCOPOSFiscalPrinter@@@ATL@@UEAAJJPEAUtagMSG@@PEAUIOleClientSite@@JPEAUHWND__@@PEBUtagRECT@@@Z 0000000180035200     FiscalPrinter.obj
 0002:0000c200       $unwind$?HKeyFromString@CRegParser@ATL@@KAPEAUHKEY__@@PEA_W@Z 0000000180035200     FiscalPrinter.obj
 0002:0000c200       $unwind$?Next@?$CComEnumImpl@UIEnumConnectionPoints@@$1?_GUID_b196b285_bab4_101a_b69c_00aa00341d07@@3U__s_GUID@@BPEAUIConnectionPoint@@V?$_CopyInterface@UIConnectionPoint@@@ATL@@@ATL@@UEAAJKPEAPEAUIConnectionPoint@@PEAK@Z 0000000180035200     FiscalPrinter.obj
 0002:0000c200       $unwind$?Next@?$CComEnumImpl@UIEnumConnections@@$1?_GUID_b196b287_bab4_101a_b69c_00aa00341d07@@3U__s_GUID@@BUtagCONNECTDATA@@V?$_Copy@UtagCONNECTDATA@@@ATL@@@ATL@@UEAAJKPEAUtagCONNECTDATA@@PEAK@Z 0000000180035200     FiscalPrinter.obj
 0002:0000c200       $unwind$?SODirectIO@COPOSFiscalPrinter@@MEAAJJPEAJPEAPEA_W@Z 0000000180035200     FiscalPrinter.obj
 0002:0000c200       $unwind$?SetControlFocus@CComControlBase@ATL@@QEAAHH@Z 0000000180035200     FiscalPrinter.obj
 0002:0000c200       $unwind$?ocscpy_s@@YA_NPEA_W_KPEB_W@Z 0000000180035200     FiscalPrinter.obj
 0002:0000c200       $unwind$?s_EventWindowProc@COPOSFiscalPrinter@@KA_JPEAUHWND__@@I_K_J@Z 0000000180035200     FiscalPrinterImpl.obj
 0002:0000c200       $unwind$?AtlWinModuleTerm@ATL@@YAJPEAU_ATL_WIN_MODULE70@1@PEAUHINSTANCE__@@@Z 0000000180035200     OposVariant.obj
 0002:0000c200       $unwind$_recalloc_base     0000000180035200     libucrt:recalloc.obj
 0002:0000c200       $unwind$__acrt_free_locale 0000000180035200     libucrt:locale_refcounting.obj
 0002:0000c200       $unwind$__acrt_lowio_create_handle_array 0000000180035200     libucrt:osfinfo.obj
 0002:0000c200       $unwind$_seh_filter_exe    0000000180035200     libucrt:exception_filter.obj
 0002:0000c200       $unwind$__acrt_stdio_flush_nolock 0000000180035200     libucrt:fflush.obj
 0002:0000c200       $unwind$??$ensure_buffer_is_big_enough@D@formatting_buffer@__crt_stdio_output@@QEAA_N_KAEAV__crt_cached_ptd_host@@@Z 0000000180035200     libucrt:output.obj
 0002:0000c200       $unwind$??$ensure_buffer_is_big_enough@_W@formatting_buffer@__crt_stdio_output@@QEAA_N_KAEAV__crt_cached_ptd_host@@@Z 0000000180035200     libucrt:output.obj
 0002:0000c200       $unwind$__scrt_dllmain_exception_filter 0000000180035200     LIBCMT:utility.obj
 0002:0000c200       $unwind$?GetHandlerSearchState@__FrameHandler3@@SAHPEA_KPEAU_xDISPATCHER_CONTEXT@@PEBU_s_FuncInfo@@@Z 0000000180035200     libvcruntime:frame.obj
 0002:0000c200       $unwind$?Is_bad_exception_allowed@@YAEPEBU_s_ESTypeList@@@Z 0000000180035200     libvcruntime:frame.obj
 0002:0000c200       $unwind$?CatchTryBlock@__FrameHandler3@@SAPEBU_s_TryBlockMapEntry@@PEBU_s_FuncInfo@@H@Z 0000000180035200     libvcruntime:risctrnsctrl.obj
 0002:0000c214       $unwind$??_GCRegObject@ATL@@UEAAPEAXI@Z 0000000180035214     FiscalPrinter.obj
 0002:0000c214       $unwind$?Add@?$CSimpleArray@GV?$CSimpleArrayEqualHelper@G@ATL@@@ATL@@QEAAHAEBG@Z 0000000180035214     FiscalPrinter.obj
 0002:0000c214       $unwind$?Add@?$CSimpleMap@PEA_WPEA_WVCExpansionVectorEqualHelper@ATL@@@ATL@@QEAAHAEBQEA_W0@Z 0000000180035214     FiscalPrinter.obj
 0002:0000c214       $unwind$?Add@CComDynamicUnkArray@ATL@@QEAAKPEAUIUnknown@@@Z 0000000180035214     FiscalPrinter.obj
 0002:0000c214       $unwind$?Advise@?$IOleObjectImpl@VCOPOSFiscalPrinter@@@ATL@@UEAAJPEAUIAdviseSink@@PEAK@Z 0000000180035214     FiscalPrinter.obj
 0002:0000c214       $unwind$?ClearReplacements@CExpansionVector@ATL@@QEAAJXZ 0000000180035214     FiscalPrinter.obj
 0002:0000c214       $unwind$?CreateInstance@?$CComObject@V?$CComEnum@UIEnumConnectionPoints@@$1?_GUID_b196b285_bab4_101a_b69c_00aa00341d07@@3U__s_GUID@@BPEAUIConnectionPoint@@V?$_CopyInterface@UIConnectionPoint@@@ATL@@VCComSingleThreadModel@6@@ATL@@@ATL@@SAJPEAPEAV12@@Z 0000000180035214     FiscalPrinter.obj
 0002:0000c214       $unwind$?CreateInstance@?$CComObject@V?$CComEnum@UIEnumConnections@@$1?_GUID_b196b287_bab4_101a_b69c_00aa00341d07@@3U__s_GUID@@BUtagCONNECTDATA@@V?$_Copy@UtagCONNECTDATA@@@ATL@@VCComSingleThreadModel@6@@ATL@@@ATL@@SAJPEAPEAV12@@Z 0000000180035214     FiscalPrinter.obj
 0002:0000c214       $unwind$?RegisterServer@CComModule@ATL@@QEAAJHPEBU_GUID@@@Z 0000000180035214     FiscalPrinter.obj
 0002:0000c214       $unwind$?UnregisterServer@CComModule@ATL@@QEAAJHPEBU_GUID@@@Z 0000000180035214     FiscalPrinter.obj
 0002:0000c214       $unwind$?VTFromRegType@CRegParser@ATL@@KAHPEB_WAEAG@Z 0000000180035214     FiscalPrinter.obj
 0002:0000c214       $unwind$??0OposDispParms@@QEAA@PEAVOposVariant@@H@Z 0000000180035214     OposVariant.obj
 0002:0000c214       $unwind$?SetBSTR_Copy@OposVariant@@QEAAXPEA_WAEAJ@Z 0000000180035214     OposVariant.obj
 0002:0000c214       $unwind$?SetBSTR_InOutPtr@OposVariant@@QEAA_NPEAPEA_WAEAJ@Z 0000000180035214     OposVariant.obj
 0002:0000c214       $unwind$?SetDispatch_Ptr@OposVariant@@QEAAXPEAUIDispatch@@AEAJ@Z 0000000180035214     OposVariant.obj
 0002:0000c214       $unwind$?SetLONG_Ptr@OposVariant@@QEAAXPEAJAEAJ@Z 0000000180035214     OposVariant.obj
 0002:0000c214       $unwind$?SetString@OposVariant@@QEAAXPEB_WAEAJ@Z 0000000180035214     OposVariant.obj
 0002:0000c214       $unwind$?Term@CAtlComModule@ATL@@QEAAXXZ 0000000180035214     OposVariant.obj
 0002:0000c214       $unwind$memcpy_s           0000000180035214     libucrt:cfout.obj
 0002:0000c214       $unwind$__acrt_getptd      0000000180035214     libucrt:per_thread_data.obj
 0002:0000c214       $unwind$__acrt_getptd_noexit 0000000180035214     libucrt:per_thread_data.obj
 0002:0000c214       $unwind$__acrt_getptd_noexit_explicit 0000000180035214     libucrt:per_thread_data.obj
 0002:0000c214       $unwind$__acrt_execute_initializers 0000000180035214     libucrt:shared_initialization.obj
 0002:0000c214       $unwind$__acrt_InitializeCriticalSectionEx 0000000180035214     libucrt:winapi_thunks.obj
 0002:0000c214       $unwind$_close_nolock_internal 0000000180035214     libucrt:close.obj
 0002:0000c214       $unwind$?value@?$dual_state_global@P6AXPEB_W00I_K@Z@__crt_state_management@@QEAAAEAP6AXPEB_W00I_K@ZAEAV__crt_cached_ptd_host@@@Z 0000000180035214     libucrt:invalid_parameter.obj
 0002:0000c214       $unwind$??0_LocaleUpdate@@QEAA@QEAU__crt_locale_pointers@@@Z 0000000180035214     libucrt:argv_wildcards.obj
 0002:0000c214       $unwind$?type_case_Z@?$output_processor@_WV?$string_output_adapter@_W@__crt_stdio_output@@V?$format_validation_base@_WV?$string_output_adapter@_W@__crt_stdio_output@@@2@@__crt_stdio_output@@AEAA_NXZ 0000000180035214     libucrt:output.obj
 0002:0000c214       $unwind$?type_case_s@?$output_processor@_WV?$string_output_adapter@_W@__crt_stdio_output@@V?$format_validation_base@_WV?$string_output_adapter@_W@__crt_stdio_output@@@2@@__crt_stdio_output@@AEAA_NXZ 0000000180035214     libucrt:output.obj
 0002:0000c214       $unwind$?type_case_s_compute_narrow_string_length@?$output_processor@_WV?$string_output_adapter@_W@__crt_stdio_output@@V?$format_validation_base@_WV?$string_output_adapter@_W@__crt_stdio_output@@@2@@__crt_stdio_output@@AEAAHH_W@Z 0000000180035214     libucrt:output.obj
 0002:0000c214       $unwind$?update_locale_slow@__crt_cached_ptd_host@@AEAAXXZ 0000000180035214     libucrt:output.obj
 0002:0000c214       $unwind$strncpy_s          0000000180035214     libucrt:strncpy_s.obj
 0002:0000c214       $unwind$wcsncpy_s          0000000180035214     libucrt:wcsncpy_s.obj
 0002:0000c214       $unwind$_exception_enabled 0000000180035214     libucrt:libm_error.obj
 0002:0000c214       $unwind$_DllMainCRTStartup 0000000180035214     LIBCMT:dll_dllmain.obj
 0002:0000c214       $unwind$__vcrt_getptd_noexit 0000000180035214     libvcruntime:per_thread_data.obj
 0002:0000c214       $unwind$?FrameUnwindToEmptyState@__FrameHandler3@@SAXPEA_KPEAU_xDISPATCHER_CONTEXT@@PEBU_s_FuncInfo@@@Z 0000000180035214     libvcruntime:risctrnsctrl.obj
 0002:0000c214       $unwind$__vcrt_InitializeCriticalSectionEx 0000000180035214     libvcruntime:winapi_downlevel.obj
 0002:0000c224       $unwind$?AddTermFunc@CAtlModule@ATL@@QEAAJP6AX_K@Z0@Z 0000000180035224     FiscalPrinter.obj
 0002:0000c224       $unwind$?AtlComModuleRegisterServer@ATL@@YAJPEAU_ATL_COM_MODULE70@1@HPEBU_GUID@@@Z 0000000180035224     FiscalPrinter.obj
 0002:0000c224       $unwind$?AtlComModuleUnregisterServer@ATL@@YAJPEAU_ATL_COM_MODULE70@1@HPEBU_GUID@@@Z 0000000180035224     FiscalPrinter.obj
 0002:0000c224       $unwind$?CreateInstance@?$CComCreator@V?$CComAggObject@VCOPOSFiscalPrinter@@@ATL@@@ATL@@SAJPEAXAEBU_GUID@@PEAPEAX@Z 0000000180035224     FiscalPrinter.obj
 0002:0000c224       $unwind$?CreateInstance@?$CComCreator@V?$CComObjectCached@VCComClassFactory@ATL@@@ATL@@@ATL@@SAJPEAXAEBU_GUID@@PEAPEAX@Z 0000000180035224     FiscalPrinter.obj
 0002:0000c224       $unwind$?GetPagesHelper@?$ISpecifyPropertyPagesImpl@VCOPOSFiscalPrinter@@@ATL@@IEAAJPEAUtagCAUUID@@PEBUATL_PROPMAP_ENTRY@2@@Z 0000000180035224     FiscalPrinter.obj
 0002:0000c224       $unwind$?Term@CAtlModule@ATL@@QEAAXXZ 0000000180035224     FiscalPrinter.obj
 0002:0000c224       $unwind$??_Estringdispid@CComTypeInfoHolder@ATL@@QEAAPEAXI@Z 0000000180035224     OposVariant.obj
 0002:0000c224       $unwind$?initialize_stdio_handles_nolock@@YAXXZ 0000000180035224     libucrt:ioinit.obj
 0002:0000c224       $unwind$__acrt_initialize_stdio 0000000180035224     libucrt:_file.obj
 0002:0000c224       $unwind$__GSHandlerCheck_EH 0000000180035224     LIBCMT:gshandlereh.obj
 0002:0000c224       $unwind$__GSHandlerCheck_SEH 0000000180035224     LIBCMT:gshandlerseh.obj
 0002:0000c224       $unwind$??$TypeMatchHelper@V__FrameHandler3@@@@YAHPEBU_s_HandlerType@@PEBU_s_CatchableType@@PEBU_s_ThrowInfo@@@Z 0000000180035224     libvcruntime:frame.obj
 0002:0000c224       $unwind$??$TypeMatchHelper@V__FrameHandler4@@@@YAHPEAUHandlerType4@FH4@@PEBU_s_CatchableType@@PEBU_s_ThrowInfo@@@Z 0000000180035224     libvcruntime:frame.obj
 0002:0000c23c       $unwind$??0?$CComContainedObject@VCOPOSFiscalPrinter@@@ATL@@QEAA@PEAX@Z 000000018003523c     FiscalPrinter.obj
 0002:0000c23c       $unwind$??1?$CComEnumImpl@UIEnumConnectionPoints@@$1?_GUID_b196b285_bab4_101a_b69c_00aa00341d07@@3U__s_GUID@@BPEAUIConnectionPoint@@V?$_CopyInterface@UIConnectionPoint@@@ATL@@@ATL@@UEAA@XZ 000000018003523c     FiscalPrinter.obj
 0002:0000c23c       $unwind$??1?$CComEnumImpl@UIEnumConnections@@$1?_GUID_b196b287_bab4_101a_b69c_00aa00341d07@@3U__s_GUID@@BUtagCONNECTDATA@@V?$_Copy@UtagCONNECTDATA@@@ATL@@@ATL@@UEAA@XZ 000000018003523c     FiscalPrinter.obj
 0002:0000c23c       $unwind$??_G?$CComAggObject@VCOPOSFiscalPrinter@@@ATL@@UEAAPEAXI@Z 000000018003523c     FiscalPrinter.obj
 0002:0000c23c       $unwind$??_G?$CComContainedObject@VCOPOSFiscalPrinter@@@ATL@@UEAAPEAXI@Z 000000018003523c     FiscalPrinter.obj
 0002:0000c23c       $unwind$??_G?$CComObject@V?$CComEnum@UIEnumConnectionPoints@@$1?_GUID_b196b285_bab4_101a_b69c_00aa00341d07@@3U__s_GUID@@BPEAUIConnectionPoint@@V?$_CopyInterface@UIConnectionPoint@@@ATL@@VCComSingleThreadModel@6@@ATL@@@ATL@@UEAAPEAXI@Z 000000018003523c     FiscalPrinter.obj
 0002:0000c23c       $unwind$??_G?$CComObject@V?$CComEnum@UIEnumConnections@@$1?_GUID_b196b287_bab4_101a_b69c_00aa00341d07@@3U__s_GUID@@BUtagCONNECTDATA@@V?$_Copy@UtagCONNECTDATA@@@ATL@@VCComSingleThreadModel@6@@ATL@@@ATL@@UEAAPEAXI@Z 000000018003523c     FiscalPrinter.obj
 0002:0000c23c       $unwind$??_G?$CComObject@VCOPOSFiscalPrinter@@@ATL@@UEAAPEAXI@Z 000000018003523c     FiscalPrinter.obj
 0002:0000c23c       $unwind$??_G?$CComObjectCached@VCComClassFactory@ATL@@@ATL@@UEAAPEAXI@Z 000000018003523c     FiscalPrinter.obj
 0002:0000c23c       $unwind$??_GCComClassFactory@ATL@@UEAAPEAXI@Z 000000018003523c     FiscalPrinter.obj
 0002:0000c23c       $unwind$??_GCComModule@ATL@@UEAAPEAXI@Z 000000018003523c     FiscalPrinter.obj
 0002:0000c23c       $unwind$?DeleteSubKey@CRegKey@ATL@@QEAAJPEB_W@Z 000000018003523c     FiscalPrinter.obj
 0002:0000c23c       $unwind$?IOleObject_SetClientSite@CComControlBase@ATL@@QEAAJPEAUIOleClientSite@@@Z 000000018003523c     FiscalPrinter.obj
 0002:0000c23c       $unwind$?InitNew@?$IPersistStorageImpl@VCOPOSFiscalPrinter@@@ATL@@UEAAJPEAUIStorage@@@Z 000000018003523c     FiscalPrinter.obj
 0002:0000c23c       $unwind$?IsDirty@?$IPersistStorageImpl@VCOPOSFiscalPrinter@@@ATL@@UEAAJXZ 000000018003523c     FiscalPrinter.obj
 0002:0000c23c       $unwind$?Release@?$CComAggObject@VCOPOSFiscalPrinter@@@ATL@@UEAAKXZ 000000018003523c     FiscalPrinter.obj
 0002:0000c23c       $unwind$?Release@?$CComObject@V?$CComEnum@UIEnumConnectionPoints@@$1?_GUID_b196b285_bab4_101a_b69c_00aa00341d07@@3U__s_GUID@@BPEAUIConnectionPoint@@V?$_CopyInterface@UIConnectionPoint@@@ATL@@VCComSingleThreadModel@6@@ATL@@@ATL@@UEAAKXZ 000000018003523c     FiscalPrinter.obj
 0002:0000c23c       $unwind$?Release@?$CComObject@V?$CComEnum@UIEnumConnections@@$1?_GUID_b196b287_bab4_101a_b69c_00aa00341d07@@3U__s_GUID@@BUtagCONNECTDATA@@V?$_Copy@UtagCONNECTDATA@@@ATL@@VCComSingleThreadModel@6@@ATL@@@ATL@@UEAAKXZ 000000018003523c     FiscalPrinter.obj
 0002:0000c23c       $unwind$?Release@?$CComObject@VCOPOSFiscalPrinter@@@ATL@@UEAAKXZ 000000018003523c     FiscalPrinter.obj
 0002:0000c23c       $unwind$?SOOutputComplete@COPOSFiscalPrinter@@MEAAJJ@Z 000000018003523c     FiscalPrinter.obj
 0002:0000c23c       $unwind$?SOStatusUpdate@COPOSFiscalPrinter@@MEAAJJ@Z 000000018003523c     FiscalPrinter.obj
 0002:0000c23c       $unwind$?SetAdvise@?$IViewObjectExImpl@VCOPOSFiscalPrinter@@@ATL@@UEAAJKKPEAUIAdviseSink@@@Z 000000018003523c     FiscalPrinter.obj
 0002:0000c23c       $unwind$?Term@CComModule@ATL@@QEAAXXZ 000000018003523c     FiscalPrinter.obj
 0002:0000c23c       $unwind$DllMain            000000018003523c     FiscalPrinter.obj
 0002:0000c23c       $unwind$??1?$IConnectionPointImpl@VCOPOSFiscalPrinter@@$1?DIID__IOPOSFiscalPrinterEvents@@3U_GUID@@BVCComDynamicUnkArray@ATL@@@ATL@@QEAA@XZ 000000018003523c     FiscalPrinterImpl.obj
 0002:0000c23c       $unwind$??1?$IConnectionPointImpl@VCOPOSFiscalPrinter@@$1?IID_IPropertyNotifySink@@3U_GUID@@BVCComDynamicUnkArray@ATL@@@ATL@@QEAA@XZ 000000018003523c     FiscalPrinterImpl.obj
 0002:0000c23c       $unwind$?SetBSTR@OposVariant@@QEAAXPEA_WAEAJ@Z 000000018003523c     OposVariant.obj
 0002:0000c23c       $unwind$?SetCURRENCY@OposVariant@@QEAAXTtagCY@@@Z 000000018003523c     OposVariant.obj
 0002:0000c23c       $unwind$?SetLONG@OposVariant@@QEAAXJ@Z 000000018003523c     OposVariant.obj
 0002:0000c23c       $unwind$?SetVARIANT_BOOL@OposVariant@@QEAAXF@Z 000000018003523c     OposVariant.obj
 0002:0000c23c       $unwind$??$common_initialize_environment_nolock@D@@YAHXZ 000000018003523c     libucrt:environment_initialization.obj
 0002:0000c23c       $unwind$_realloc_base      000000018003523c     libucrt:realloc_base.obj
 0002:0000c23c       $unwind$?replace_current_thread_locale_nolock@@YAXQEAU__acrt_ptd@@QEAU__crt_locale_data@@@Z 000000018003523c     libucrt:per_thread_data.obj
 0002:0000c23c       $unwind$__acrt_execute_uninitializers 000000018003523c     libucrt:shared_initialization.obj
 0002:0000c23c       $unwind$__acrt_LocaleNameToLCID 000000018003523c     libucrt:winapi_thunks.obj
 0002:0000c23c       $unwind$?free_crt_array_internal@@YAXQEAPEBX_K@Z 000000018003523c     libucrt:inittime.obj
 0002:0000c23c       $unwind$_updatetlocinfoEx_nolock 000000018003523c     libucrt:locale_refcounting.obj
 0002:0000c23c       $unwind$__acrt_uninitialize_lowio 000000018003523c     libucrt:ioinit.obj
 0002:0000c23c       $unwind$?setSBCS@@YAXPEAU__crt_multibyte_data@@@Z 000000018003523c     libucrt:mbctype.obj
 0002:0000c23c       $unwind$_initterm_e        000000018003523c     libucrt:initterm.obj
 0002:0000c23c       $unwind$??0CAtlBaseModule@ATL@@QEAA@XZ 000000018003523c     atls:atlbase.obj
 0002:0000c23c       $unwind$??$GetProcAddressAll@P6AP6A_JPEAUHWND__@@I_K_J@ZPEAUAtlThunkData_t@@@Z@@YAP6AP6A_JPEAUHWND__@@I_K_J@ZPEAUAtlThunkData_t@@@ZPEAP6AP6A_J0I12@Z3@Z@Z 000000018003523c     atls:atlthunk.obj
 0002:0000c23c       $unwind$??$GetProcAddressAll@P6APEAUAtlThunkData_t@@XZ@@YAP6APEAUAtlThunkData_t@@XZPEAP6APEAU0@XZ@Z 000000018003523c     atls:atlthunk.obj
 0002:0000c23c       $unwind$??$GetProcAddressAll@P6AXPEAUAtlThunkData_t@@@Z@@YAP6AXPEAUAtlThunkData_t@@@ZPEAP6AX0@Z@Z 000000018003523c     atls:atlthunk.obj
 0002:0000c23c       $unwind$??$GetProcAddressAll@P6AXPEAUAtlThunkData_t@@PEAX_K@Z@@YAP6AXPEAUAtlThunkData_t@@PEAX_K@ZPEAP6AX012@Z@Z 000000018003523c     atls:atlthunk.obj
 0002:0000c23c       $unwind$?__AllocStdCallThunk_cmn@@YAPEAXXZ 000000018003523c     atls:atlthunk.obj
 0002:0000c23c       $unwind$?__InitializeThunkPool@@YAHXZ 000000018003523c     atls:atlthunk.obj
 0002:0000c23c       $unwind$AtlThunk_DataToCode 000000018003523c     atls:atlthunk.obj
 0002:0000c23c       $unwind$_RTC_Initialize    000000018003523c     LIBCMT:initsect.obj
 0002:0000c23c       $unwind$_RTC_Terminate     000000018003523c     LIBCMT:initsect.obj
 0002:0000c23c       $unwind$?__scrt_initialize_thread_safe_statics@@YAHXZ 000000018003523c     LIBCMT:thread_safe_statics.obj
 0002:0000c23c       $unwind$??_Gbad_alloc@std@@UEAAPEAXI@Z 000000018003523c     LIBCMT:throw_bad_alloc.obj
 0002:0000c23c       $unwind$??_Gbad_array_new_length@std@@UEAAPEAXI@Z 000000018003523c     LIBCMT:throw_bad_alloc.obj
 0002:0000c23c       $unwind$??_Gexception@std@@UEAAPEAXI@Z 000000018003523c     LIBCMT:throw_bad_alloc.obj
 0002:0000c23c       $unwind$__C_specific_handler_noexcept 000000018003523c     libvcruntime:chandler_noexcept.obj
 0002:0000c23c       $unwind$__FrameUnwindFilter 000000018003523c     libvcruntime:ehhelpers.obj
 0002:0000c23c       $unwind$?SetUnwindTryBlock@__FrameHandler3@@SAXPEA_KPEAU_xDISPATCHER_CONTEXT@@PEBU_s_FuncInfo@@H@Z 000000018003523c     libvcruntime:ehstate.obj
 0002:0000c23c       $unwind$??_Gbad_exception@std@@UEAAPEAXI@Z 000000018003523c     libvcruntime:frame.obj
 0002:0000c23c       $unwind$?ExFilterRethrow@@YAHPEAU_EXCEPTION_POINTERS@@PEAUEHExceptionRecord@@PEAH@Z 000000018003523c     libvcruntime:frame.obj
 0002:0000c23c       $unwind$?ExFilterRethrowFH4@@YAHPEAU_EXCEPTION_POINTERS@@PEAUEHExceptionRecord@@HPEAH@Z 000000018003523c     libvcruntime:frame.obj
 0002:0000c23c       $unwind$_FindAndUnlinkFrame 000000018003523c     libvcruntime:risctrnsctrl.obj
 0002:0000c23c       $unwind$__vcrt_FlsSetValue 000000018003523c     libvcruntime:winapi_downlevel.obj
 0002:0000c248       $unwind$?ChangeBSTR@OposVariant@@QEAAXPEAPEA_WAEAJ@Z 0000000180035248     OposVariant.obj
 0002:0000c248       $unwind$?ChangeLONG@OposVariant@@QEAAXPEAJAEAJ@Z 0000000180035248     OposVariant.obj
 0002:0000c248       $unwind$?x_ismbbtype_l@@YAHPEAU__crt_locale_pointers@@IHH@Z 0000000180035248     libucrt:ismbbyte.obj
 0002:0000c258       $unwind$swprintf_s         0000000180035258     FiscalPrinter.obj
 0002:0000c268       $unwind$?_AtlVerifyStackAvailable@_ATL_SAFE_ALLOCA_IMPL@ATL@@YA_N_K@Z 0000000180035268     FiscalPrinter.obj
 0002:0000c294       $unwind$?filt$0@?0??_AtlVerifyStackAvailable@_ATL_SAFE_ALLOCA_IMPL@ATL@@YA_N_K@Z@4HA 0000000180035294     FiscalPrinter.obj
 0002:0000c294       $unwind$_query_new_handler$fin$0 0000000180035294     libucrt:new_handler.obj
 0002:0000c294       $unwind$?fin$0@?0???$?RV<lambda_0ae27a3a962d80f24befdcbee591983d>@@AEAV<lambda_8d0ee55de4b1038c4002e0adecdf1839>@@V<lambda_dc504788e8f1664fe9b84e20bfb512f2>@@@?$__crt_seh_guarded_call@X@@QEAAX$$QEAV<lambda_0ae27a3a962d80f24befdcbee591983d>@@AEAV<lambda_8d0ee55de4b1038c4002e0adecdf1839>@@$$QEAV<lambda_dc504788e8f1664fe9b84e20bfb512f2>@@@Z@4HA 0000000180035294     libucrt:per_thread_data.obj
 0002:0000c294       $unwind$?fin$0@?0???$?RV<lambda_2d41944a1d46af3157314b8a01080d33>@@AEAV<lambda_8f455de75cd7d7f24b4096f044d8b9e6>@@V<lambda_aa500f224e6afead328df44964fe2772>@@@?$__crt_seh_guarded_call@X@@QEAAX$$QEAV<lambda_2d41944a1d46af3157314b8a01080d33>@@AEAV<lambda_8f455de75cd7d7f24b4096f044d8b9e6>@@$$QEAV<lambda_aa500f224e6afead328df44964fe2772>@@@Z@4HA 0000000180035294     libucrt:per_thread_data.obj
 0002:0000c294       $unwind$?fin$0@?0???$?RV<lambda_aa87e3671a710a21b5dc78c0bdf72e11>@@AEAV<lambda_92619d2358a28f41a33ba319515a20b9>@@V<lambda_6992ecaafeb10aed2b74cb1fae11a551>@@@?$__crt_seh_guarded_call@X@@QEAAX$$QEAV<lambda_aa87e3671a710a21b5dc78c0bdf72e11>@@AEAV<lambda_92619d2358a28f41a33ba319515a20b9>@@$$QEAV<lambda_6992ecaafeb10aed2b74cb1fae11a551>@@@Z@4HA 0000000180035294     libucrt:per_thread_data.obj
 0002:0000c294       $unwind$?fin$0@?0???$?RV<lambda_f2e299630e499de9f9a165e60fcd3db5>@@AEAV<lambda_2ae9d31cdba2644fcbeaf08da7c24588>@@V<lambda_40d01ff24d0e7b3814fdbdcee8eab3c7>@@@?$__crt_seh_guarded_call@X@@QEAAX$$QEAV<lambda_f2e299630e499de9f9a165e60fcd3db5>@@AEAV<lambda_2ae9d31cdba2644fcbeaf08da7c24588>@@$$QEAV<lambda_40d01ff24d0e7b3814fdbdcee8eab3c7>@@@Z@4HA 0000000180035294     libucrt:per_thread_data.obj
 0002:0000c294       $unwind$__acrt_update_thread_locale_data$fin$0 0000000180035294     libucrt:locale_refcounting.obj
 0002:0000c294       $unwind$?fin$0@?0???$?RV<lambda_410d79af7f07d98d83a3f525b3859a53>@@AEAV<lambda_3e16ef9562a7dcce91392c22ab16ea36>@@V<lambda_38119f0e861e05405d8a144b9b982f0a>@@@?$__crt_seh_guarded_call@X@@QEAAX$$QEAV<lambda_410d79af7f07d98d83a3f525b3859a53>@@AEAV<lambda_3e16ef9562a7dcce91392c22ab16ea36>@@$$QEAV<lambda_38119f0e861e05405d8a144b9b982f0a>@@@Z@4HA 0000000180035294     libucrt:wsetlocale.obj
 0002:0000c294       $unwind$?fin$0@?0???$?RV<lambda_ad8af0d99a0adf03d037d7dffe354bb5>@@AEAV<lambda_c9ba49e555ba839a7b07aa3fbecb7617>@@V<lambda_2f1ebd5d68526518146ae959c9e734c8>@@@?$__crt_seh_guarded_call@H@@QEAAH$$QEAV<lambda_ad8af0d99a0adf03d037d7dffe354bb5>@@AEAV<lambda_c9ba49e555ba839a7b07aa3fbecb7617>@@$$QEAV<lambda_2f1ebd5d68526518146ae959c9e734c8>@@@Z@4HA 0000000180035294     libucrt:close.obj
 0002:0000c294       $unwind$?fin$0@?0???$?RV<lambda_a37b2b86f63e897a80ea819b0eb08c01>@@AEAV<lambda_38ce7e780aa69e748d6df282ebc68efe>@@V<lambda_99fb1378e971ab6e7edea83e3a7a83a2>@@@?$__crt_seh_guarded_call@H@@QEAAH$$QEAV<lambda_a37b2b86f63e897a80ea819b0eb08c01>@@AEAV<lambda_38ce7e780aa69e748d6df282ebc68efe>@@$$QEAV<lambda_99fb1378e971ab6e7edea83e3a7a83a2>@@@Z@4HA 0000000180035294     libucrt:commit.obj
 0002:0000c294       $unwind$__acrt_initialize_lowio$fin$0 0000000180035294     libucrt:ioinit.obj
 0002:0000c294       $unwind$__acrt_lowio_ensure_fh_exists$fin$0 0000000180035294     libucrt:osfinfo.obj
 0002:0000c294       $unwind$?fin$0@?0???$?RV<lambda_efdfa57d1f175319df784efa44bb7b81>@@AEAV<lambda_5f0a4c1567f8adc6734073e5d1e1b35c>@@V<lambda_2e8a7d3640ea6ccb4c2413664c2db6fd>@@@?$__crt_seh_guarded_call@X@@QEAAX$$QEAV<lambda_efdfa57d1f175319df784efa44bb7b81>@@AEAV<lambda_5f0a4c1567f8adc6734073e5d1e1b35c>@@$$QEAV<lambda_2e8a7d3640ea6ccb4c2413664c2db6fd>@@@Z@4HA 0000000180035294     libucrt:mbctype.obj
 0002:0000c294       $unwind$?fin$0@?0??update_thread_multibyte_data_internal@@YAPEAU__crt_multibyte_data@@QEAU__acrt_ptd@@QEAPEAU1@@Z@4HA 0000000180035294     libucrt:mbctype.obj
 0002:0000c294       $unwind$?fin$0@?0???$?RV<lambda_450d765d439847d4c735a33c368b5fc0>@@AEAV<lambda_44731a7d0e6d81c3e6aa82d741081786>@@V<lambda_601a2a7da3b7a96e9554ac7215c4b07c>@@@?$__crt_seh_guarded_call@P6AXH@Z@@QEAAP6AXH@Z$$QEAV<lambda_450d765d439847d4c735a33c368b5fc0>@@AEAV<lambda_44731a7d0e6d81c3e6aa82d741081786>@@$$QEAV<lambda_601a2a7da3b7a96e9554ac7215c4b07c>@@@Z@4HA 0000000180035294     libucrt:signal.obj
 0002:0000c294       $unwind$raise$fin$0        0000000180035294     libucrt:signal.obj
 0002:0000c294       $unwind$?filt$0@?0???R<lambda_6e4b09c48022b2350581041d5f6b0c4c>@@QEBA@XZ@4HA 0000000180035294     libucrt:exit.obj
 0002:0000c294       $unwind$?fin$0@?0???$?RV<lambda_d80eeec6fff315bfe5c115232f3240e3>@@AEAV<lambda_6e4b09c48022b2350581041d5f6b0c4c>@@V<lambda_2358e3775559c9db80273638284d5e45>@@@?$__crt_seh_guarded_call@X@@QEAAX$$QEAV<lambda_d80eeec6fff315bfe5c115232f3240e3>@@AEAV<lambda_6e4b09c48022b2350581041d5f6b0c4c>@@$$QEAV<lambda_2358e3775559c9db80273638284d5e45>@@@Z@4HA 0000000180035294     libucrt:exit.obj
 0002:0000c294       $unwind$?fin$0@?0???$?RV<lambda_638799b9deba96c50f710eeac98168cd>@@AEAV<lambda_22ebabd17bc4fa466a2aca6d8deb888d>@@V<lambda_a6f7d7db0129f75315ebf26d50c089f1>@@@?$__crt_seh_guarded_call@H@@QEAAH$$QEAV<lambda_638799b9deba96c50f710eeac98168cd>@@AEAV<lambda_22ebabd17bc4fa466a2aca6d8deb888d>@@$$QEAV<lambda_a6f7d7db0129f75315ebf26d50c089f1>@@@Z@4HA 0000000180035294     libucrt:onexit.obj
 0002:0000c294       $unwind$?fin$0@?0???$?RV<lambda_7777bce6b2f8c936911f934f8298dc43>@@AEAV<lambda_f03950bc5685219e0bcd2087efbe011e>@@V<lambda_3883c3dff614d5e0c5f61bb1ac94921c>@@@?$__crt_seh_guarded_call@H@@QEAAH$$QEAV<lambda_7777bce6b2f8c936911f934f8298dc43>@@AEAV<lambda_f03950bc5685219e0bcd2087efbe011e>@@$$QEAV<lambda_3883c3dff614d5e0c5f61bb1ac94921c>@@@Z@4HA 0000000180035294     libucrt:onexit.obj
 0002:0000c294       $unwind$_fcloseall$fin$0   0000000180035294     libucrt:closeall.obj
 0002:0000c294       $unwind$?fin$0@?0???$?RV<lambda_842d9ff0dc9ef11c61343bbaebe7f885>@@AEAV<lambda_c5860995281e5c4ce005b3de8f5874ee>@@V<lambda_d90129c13df834fdcbf8d2b88dafcf2d>@@@?$__crt_seh_guarded_call@X@@QEAAX$$QEAV<lambda_842d9ff0dc9ef11c61343bbaebe7f885>@@AEAV<lambda_c5860995281e5c4ce005b3de8f5874ee>@@$$QEAV<lambda_d90129c13df834fdcbf8d2b88dafcf2d>@@@Z@4HA 0000000180035294     libucrt:fflush.obj
 0002:0000c294       $unwind$?fin$0@?0???$?RV<lambda_886d6c58226a84441f68b9f2b8217b83>@@AEAV<lambda_ab61a845afdef5b7c387490eaf3616ee>@@V<lambda_f7f22ab5edc0698d5f6905b0d3f44752>@@@?$__crt_seh_guarded_call@X@@QEAAX$$QEAV<lambda_886d6c58226a84441f68b9f2b8217b83>@@AEAV<lambda_ab61a845afdef5b7c387490eaf3616ee>@@$$QEAV<lambda_f7f22ab5edc0698d5f6905b0d3f44752>@@@Z@4HA 0000000180035294     libucrt:fflush.obj
 0002:0000c294       $unwind$_ctrlfp$filt$0     0000000180035294     libucrt:fpctrl.obj
 0002:0000c294       $unwind$common_control87$filt$0 0000000180035294     libucrt:ieee.obj
 0002:0000c294       $unwind$?fin$0@?0??dllmain_crt_process_attach@@YAHQEAUHINSTANCE__@@QEAX@Z@4HA 0000000180035294     LIBCMT:dll_dllmain.obj
 0002:0000c294       $unwind$?fin$0@?0??dllmain_crt_process_detach@@YAH_N@Z@4HA 0000000180035294     LIBCMT:dll_dllmain.obj
 0002:0000c294       $unwind$?fin$1@?0??dllmain_crt_process_detach@@YAH_N@Z@4HA 0000000180035294     LIBCMT:dll_dllmain.obj
 0002:0000c294       $unwind$_IsNonwritableInCurrentImage$filt$0 0000000180035294     LIBCMT:pesect.obj
 0002:0000c294       $unwind$?filt$0@?0??CxxCallCatchBlock@__FrameHandler3@@SAPEAXPEAU_EXCEPTION_RECORD@@@Z@4HA 0000000180035294     libvcruntime:frame.obj
 0002:0000c294       $unwind$?filt$0@?0??CxxCallCatchBlock@__FrameHandler4@@SAPEAXPEAU_EXCEPTION_RECORD@@@Z@4HA 0000000180035294     libvcruntime:frame.obj
 0002:0000c294       $unwind$?filt$0@?0??FrameUnwindToState@__FrameHandler3@@SAXPEA_KPEAU_xDISPATCHER_CONTEXT@@PEBU_s_FuncInfo@@H@Z@4HA 0000000180035294     libvcruntime:frame.obj
 0002:0000c294       $unwind$?fin$1@?0??FrameUnwindToState@__FrameHandler3@@SAXPEA_KPEAU_xDISPATCHER_CONTEXT@@PEBU_s_FuncInfo@@H@Z@4HA 0000000180035294     libvcruntime:frame.obj
 0002:0000c29c       $unwind$?AtlInternalOleLoadFromStream@ATL@@YAJPEAUIStream@@AEBU_GUID@@PEAPEAXTClassesAllowedInStream@1@K@Z 000000018003529c     FiscalPrinter.obj
 0002:0000c2b8       $unwind$?ReadFromStream@CComBSTR@ATL@@QEAAJPEAUIStream@@@Z 00000001800352b8     FiscalPrinter.obj
 0002:0000c2b8       $unwind$_configure_narrow_argv 00000001800352b8     libucrt:argv_parsing.obj
 0002:0000c2cc       $unwind$?WriteToStream@CComVariant@ATL@@QEAAJPEAUIStream@@@Z 00000001800352cc     FiscalPrinter.obj
 0002:0000c2e0       $unwind$?RegOpenKeyExW@CAtlTransactionManager@ATL@@QEAAJPEAUHKEY__@@PEB_WKKPEAPEAU3@@Z 00000001800352e0     FiscalPrinter.obj
 0002:0000c2e0       $unwind$?WriteToStream@CComVariant@ATL@@QEAAJPEAUIStream@@G@Z 00000001800352e0     FiscalPrinter.obj
 0002:0000c2e0       $unwind$__dcrt_write_console 00000001800352e0     libucrt:initcon.obj
 0002:0000c2e0       $unwind$??$__acrt_convert_wcs_mbs_cp@_WDV<lambda_f788ae46380686e8b737efdd8c720d07>@@U__crt_win32_buffer_no_resizing@@@@YAHQEB_WAEAV?$__crt_win32_buffer@DU__crt_win32_buffer_no_resizing@@@@AEBV<lambda_f788ae46380686e8b737efdd8c720d07>@@I@Z 00000001800352e0     libucrt:getmodulefilenamea.obj
 0002:0000c2f4       $unwind$?ReadFromStream@CComVariant@ATL@@QEAAJPEAUIStream@@GTClassesAllowedInStream@2@K@Z 00000001800352f4     FiscalPrinter.obj
 0002:0000c30c       $unwind$?GetSizeMax@CComVariant@ATL@@QEBAJPEAT_ULARGE_INTEGER@@@Z 000000018003530c     FiscalPrinter.obj
 0002:0000c320       $unwind$?RegCreateKeyExW@CAtlTransactionManager@ATL@@QEAAJPEAUHKEY__@@PEB_WKPEA_WKKQEAU_SECURITY_ATTRIBUTES@@PEAPEAU3@PEAK@Z 0000000180035320     FiscalPrinter.obj
 0002:0000c334       $unwind$?GetGITPtr@CAtlModule@ATL@@UEAAJPEAPEAUIGlobalInterfaceTable@@@Z 0000000180035334     FiscalPrinter.obj
 0002:0000c334       $unwind$?RegDeleteKeyW@CAtlTransactionManager@ATL@@QEAAJPEAUHKEY__@@PEB_W@Z 0000000180035334     FiscalPrinter.obj
 0002:0000c334       $unwind$?getStateFromIterators@UWMap4@FH4@@SAHAEBViterator@12@H0H0@Z 0000000180035334     libvcruntime:frame.obj
 0002:0000c344       $unwind$?AtlHiMetricToPixel@ATL@@YAXPEBUtagSIZE@@PEAU2@@Z 0000000180035344     FiscalPrinter.obj
 0002:0000c344       $unwind$?AtlInternalQueryInterface@ATL@@YAJPEAXPEBU_ATL_INTMAP_ENTRY@1@AEBU_GUID@@PEAPEAX@Z 0000000180035344     FiscalPrinter.obj
 0002:0000c35c       $unwind$?Append@CParseBuffer@CRegParser@ATL@@QEAAHPEB_WH@Z 000000018003535c     FiscalPrinter.obj
 0002:0000c35c       $unwind$?AtlComModuleGetClassObject@ATL@@YAJPEAU_ATL_COM_MODULE70@1@AEBU_GUID@@1PEAPEAX@Z 000000018003535c     FiscalPrinter.obj
 0002:0000c35c       $unwind$?GetClassObject@CComModule@ATL@@QEAAJAEBU_GUID@@0PEAPEAX@Z 000000018003535c     FiscalPrinter.obj
 0002:0000c35c       $unwind$?NextToken@CRegParser@ATL@@IEAAJPEA_W@Z 000000018003535c     FiscalPrinter.obj
 0002:0000c35c       $unwind$?StartWindowProc@?$CWindowImplBaseT@VCWindow@ATL@@V?$CWinTraits@$0FGAAAAAA@$0A@@2@@ATL@@SA_JPEAUHWND__@@I_K_J@Z 000000018003535c     FiscalPrinter.obj
 0002:0000c35c       $unwind$?fp_format_f_internal@@YAHQEAD_KHQEAU_strflt@@_NAEAV__crt_cached_ptd_host@@@Z 000000018003535c     libucrt:cvt.obj
 0002:0000c35c       $unwind$__acrt_DownlevelLocaleNameToLCID 000000018003535c     libucrt:lcidtoname_downlevel.obj
 0002:0000c35c       $unwind$??R<lambda_f03950bc5685219e0bcd2087efbe011e>@@QEBAHXZ 000000018003535c     libucrt:onexit.obj
 0002:0000c374       $unwind$?AtlRegisterClassCategoriesHelper@ATL@@YAJAEBU_GUID@@PEBU_ATL_CATMAP_ENTRY@1@H@Z 0000000180035374     FiscalPrinter.obj
 0002:0000c398       $unwind$?AtlLoadTypeLib@ATL@@YAJPEAUHINSTANCE__@@PEB_WPEAPEA_WPEAPEAUITypeLib@@@Z 0000000180035398     FiscalPrinter.obj
 0002:0000c3b8       $unwind$?AtlRegisterTypeLib@ATL@@YAJPEAUHINSTANCE__@@PEB_W@Z 00000001800353b8     FiscalPrinter.obj
 0002:0000c3d4       $unwind$?AtlUnRegisterTypeLib@ATL@@YAJPEAUHINSTANCE__@@PEB_W@Z 00000001800353d4     FiscalPrinter.obj
 0002:0000c3dc       $unwind$?GetTI@CComTypeInfoHolder@ATL@@QEAAJK@Z 00000001800353dc     FiscalPrinter.obj
 0002:0000c3dc       $unwind$?RecurseDeleteKey@CRegKey@ATL@@QEAAJPEB_W@Z 00000001800353dc     FiscalPrinter.obj
 0002:0000c3fc       $unwind$?UpdateRegistryFromResource@CAtlModule@ATL@@QEAAJIHPEAU_ATL_REGMAP_ENTRY@2@@Z 00000001800353fc     FiscalPrinter.obj
 0002:0000c3fc       $unwind$?UpdateRegistryFromResource@CAtlModule@ATL@@QEAAJPEB_WHPEAU_ATL_REGMAP_ENTRY@2@@Z 00000001800353fc     FiscalPrinter.obj
 0002:0000c41c       $unwind$?Lookup@?$CSimpleMap@PEA_WPEA_WVCExpansionVectorEqualHelper@ATL@@@ATL@@QEBAPEA_WAEBQEA_W@Z 000000018003541c     FiscalPrinter.obj
 0002:0000c41c       $unwind$_free_osfhnd       000000018003541c     libucrt:osfinfo.obj
 0002:0000c41c       $unwind$__std_exception_copy 000000018003541c     libvcruntime:std_exception.obj
 0002:0000c430       $unwind$?Add@CExpansionVector@ATL@@QEAAHPEB_W0@Z 0000000180035430     FiscalPrinter.obj
 0002:0000c448       $unwind$?PreProcessBuffer@CRegParser@ATL@@QEAAJPEA_WPEAPEA_W@Z 0000000180035448     FiscalPrinter.obj
 0002:0000c46c       $unwind$?RegisterBuffer@CRegParser@ATL@@QEAAJPEA_WH@Z 000000018003546c     FiscalPrinter.obj
 0002:0000c48c       $unwind$?AddValue@CRegParser@ATL@@IEAAJAEAVCRegKey@2@PEB_WPEA_W@Z 000000018003548c     FiscalPrinter.obj
 0002:0000c4ac       $unwind$?RegisterSubkeys@CRegParser@ATL@@IEAAJPEA_WPEAUHKEY__@@HH@Z 00000001800354ac     FiscalPrinter.obj
 0002:0000c4cc       $unwind$?SkipAssignment@CRegParser@ATL@@IEAAJPEA_W@Z 00000001800354cc     FiscalPrinter.obj
 0002:0000c4e8       $unwind$?RegisterFromResource@CRegObject@ATL@@IEAAJPEB_W00H@Z 00000001800354e8     FiscalPrinter.obj
 0002:0000c508       $unwind$?Cleanup@CComTypeInfoHolder@ATL@@SAX_K@Z 0000000180035508     FiscalPrinter.obj
 0002:0000c508       $unwind$_free_base         0000000180035508     libucrt:free_base.obj
 0002:0000c508       $unwind$?destroy_fls@@YAXPEAX@Z 0000000180035508     libucrt:per_thread_data.obj
 0002:0000c508       $unwind$__acrt_locale_free_numeric 0000000180035508     libucrt:initnum.obj
 0002:0000c508       $unwind$__acrt_locale_free_lc_time_if_unreferenced 0000000180035508     libucrt:locale_refcounting.obj
 0002:0000c508       $unwind$AtlThunk_FreeData  0000000180035508     atls:atlthunk.obj
 0002:0000c510       $unwind$?GetIDsOfNames@CComTypeInfoHolder@ATL@@QEAAJAEBU_GUID@@PEAPEA_WIKPEAJ@Z 0000000180035510     FiscalPrinter.obj
 0002:0000c52c       $unwind$?LoadNameCache@CComTypeInfoHolder@ATL@@QEAAJPEAUITypeInfo@@@Z 000000018003552c     FiscalPrinter.obj
 0002:0000c544       $unwind$?WindowProc@?$CWindowImplBaseT@VCWindow@ATL@@V?$CWinTraits@$0FGAAAAAA@$0A@@2@@ATL@@SA_JPEAUHWND__@@I_K_J@Z 0000000180035544     FiscalPrinter.obj
 0002:0000c55c       $unwind$?atlCreate@?$CWindowImplBaseT@VCWindow@ATL@@V?$CWinTraits@$0FGAAAAAA@$0A@@2@@ATL@@QEAAPEAUHWND__@@PEAU3@V_U_RECT@2@PEB_WKKV_U_MENUorID@2@GPEAX@Z 000000018003555c     FiscalPrinter.obj
 0002:0000c574       $unwind$??$AtlModuleRegisterWndClassInfoT@VAtlModuleRegisterWndClassInfoParamW@ATL@@@ATL@@YAGPEAU_ATL_BASE_MODULE70@0@PEAU_ATL_WIN_MODULE70@0@PEAU_ATL_WNDCLASSINFOW@0@PEAP6A_JPEAUHWND__@@I_K_J@ZVAtlModuleRegisterWndClassInfoParamW@0@@Z 0000000180035574     FiscalPrinter.obj
 0002:0000c594       $unwind$?GetZoomInfo@CComControlBase@ATL@@QEAAXAEAUATL_DRAWINFO@@@Z 0000000180035594     FiscalPrinter.obj
 0002:0000c594       $unwind$?OnKillFocus@CComControlBase@ATL@@QEAA_JI_K_JAEAH@Z 0000000180035594     FiscalPrinter.obj
 0002:0000c594       $unwind$?get_raw_ptd@__crt_cached_ptd_host@@QEAAPEAU__acrt_ptd@@XZ 0000000180035594     libucrt:invalid_parameter.obj
 0002:0000c5a0       $unwind$?SendOnDataChange@CComControlBase@ATL@@QEAAJK@Z 00000001800355a0     FiscalPrinter.obj
 0002:0000c5b0       $unwind$?OnSetFocus@CComControlBase@ATL@@QEAA_JI_K_JAEAH@Z 00000001800355b0     FiscalPrinter.obj
 0002:0000c5c4       $unwind$?OnMouseActivate@CComControlBase@ATL@@QEAA_JI_K_JAEAH@Z 00000001800355c4     FiscalPrinter.obj
 0002:0000c5cc       $unwind$?GetAmbientLocaleID@CComControlBase@ATL@@QEAAJAEAK@Z 00000001800355cc     FiscalPrinter.obj
 0002:0000c5cc       $unwind$?GetAmbientUserMode@CComControlBase@ATL@@QEAAJAEAH@Z 00000001800355cc     FiscalPrinter.obj
 0002:0000c5dc       $unwind$?IQuickActivate_QuickActivate@CComControlBase@ATL@@QEAAJPEAUtagQACONTAINER@@PEAUtagQACONTROL@@@Z 00000001800355dc     FiscalPrinter.obj
 0002:0000c5f4       $unwind$?DoVerbProperties@CComControlBase@ATL@@QEAAJPEBUtagRECT@@PEAUHWND__@@@Z 00000001800355f4     FiscalPrinter.obj
 0002:0000c60c       $unwind$?InPlaceActivate@CComControlBase@ATL@@QEAAJJPEBUtagRECT@@@Z 000000018003560c     FiscalPrinter.obj
 0002:0000c62c       $unwind$?IOleObject_Close@CComControlBase@ATL@@QEAAJK@Z 000000018003562c     FiscalPrinter.obj
 0002:0000c62c       $unwind$?get_raw_ptd_noexit@__crt_cached_ptd_host@@QEAAPEAU__acrt_ptd@@XZ 000000018003562c     libucrt:invalid_parameter.obj
 0002:0000c62c       $unwind$?type_case_c_tchar@?$output_processor@_WV?$string_output_adapter@_W@__crt_stdio_output@@V?$format_validation_base@_WV?$string_output_adapter@_W@__crt_stdio_output@@@2@@__crt_stdio_output@@AEAA_N_W@Z 000000018003562c     libucrt:output.obj
 0002:0000c63c       $unwind$?IOleInPlaceObject_UIDeactivate@CComControlBase@ATL@@QEAAJXZ 000000018003563c     FiscalPrinter.obj
 0002:0000c654       $unwind$?IOleInPlaceObject_SetObjectRects@CComControlBase@ATL@@QEAAJPEBUtagRECT@@0@Z 0000000180035654     FiscalPrinter.obj
 0002:0000c668       $unwind$?IViewObject_Draw@CComControlBase@ATL@@QEAAJKJPEAXPEAUtagDVTARGETDEVICE@@PEAUHDC__@@2PEBU_RECTL@@3@Z 0000000180035668     FiscalPrinter.obj
 0002:0000c684       $unwind$?IDataObject_GetData@CComControlBase@ATL@@QEAAJPEAUtagFORMATETC@@PEAUtagSTGMEDIUM@@@Z 0000000180035684     FiscalPrinter.obj
 0002:0000c6a4       $unwind$?OnPaint@CComControlBase@ATL@@QEAA_JI_K_JAEAH@Z 00000001800356a4     FiscalPrinter.obj
 0002:0000c6c0       $unwind$?OnDrawAdvanced@CComControlBase@ATL@@UEAAJAEAUATL_DRAWINFO@@@Z 00000001800356c0     FiscalPrinter.obj
 0002:0000c6dc       $unwind$?Invoke@?$IDispatchImpl@UIOPOSFiscalPrinter@@$1?IID_IOPOSFiscalPrinter@@3U_GUID@@B$1?LIBID_OposFiscalPrinter_CCO@@3U3@B$00$0A@VCComTypeInfoHolder@ATL@@@ATL@@UEAAJJAEBU_GUID@@KGPEAUtagDISPPARAMS@@PEAUtagVARIANT@@PEAUtagEXCEPINFO@@PEAI@Z 00000001800356dc     FiscalPrinter.obj
 0002:0000c6dc       $unwind$?ReleaseDevice@COPOSFiscalPrinter@@UEAAJPEAJ@Z 00000001800356dc     FiscalPrinterImpl.obj
 0002:0000c6dc       $unwind$_mbsdec_l          00000001800356dc     libucrt:mbsdec.obj
 0002:0000c6e8       $unwind$?atlCreate@?$CWindowImpl@VCOPOSFiscalPrinter@@VCWindow@ATL@@V?$CWinTraits@$0FGAAAAAA@$0A@@3@@ATL@@QEAAPEAUHWND__@@PEAU3@V_U_RECT@2@PEB_WKKV_U_MENUorID@2@PEAX@Z 00000001800356e8     FiscalPrinter.obj
 0002:0000c6e8       $unwind$?fp_format_f@@YAHQEBNQEAD_K12HW4__acrt_rounding_mode@@AEAV__crt_cached_ptd_host@@@Z 00000001800356e8     libucrt:cvt.obj
 0002:0000c6e8       $unwind$__acrt_LCMapStringEx 00000001800356e8     libucrt:winapi_thunks.obj
 0002:0000c6fc       $unwind$?CreateControlWindow@?$CComControl@VCOPOSFiscalPrinter@@V?$CWindowImpl@VCOPOSFiscalPrinter@@VCWindow@ATL@@V?$CWinTraits@$0FGAAAAAA@$0A@@3@@ATL@@@ATL@@UEAAPEAUHWND__@@PEAU3@AEAUtagRECT@@@Z 00000001800356fc     FiscalPrinter.obj
 0002:0000c6fc       $unwind$?BeginNonFiscal@COPOSFiscalPrinter@@UEAAJPEAJ@Z 00000001800356fc     FiscalPrinterImpl.obj
 0002:0000c6fc       $unwind$?BeginTraining@COPOSFiscalPrinter@@UEAAJPEAJ@Z 00000001800356fc     FiscalPrinterImpl.obj
 0002:0000c6fc       $unwind$?ClearError@COPOSFiscalPrinter@@UEAAJPEAJ@Z 00000001800356fc     FiscalPrinterImpl.obj
 0002:0000c6fc       $unwind$?ClearOutput@COPOSFiscalPrinter@@UEAAJPEAJ@Z 00000001800356fc     FiscalPrinterImpl.obj
 0002:0000c6fc       $unwind$?EndFiscalDocument@COPOSFiscalPrinter@@UEAAJPEAJ@Z 00000001800356fc     FiscalPrinterImpl.obj
 0002:0000c6fc       $unwind$?EndFixedOutput@COPOSFiscalPrinter@@UEAAJPEAJ@Z 00000001800356fc     FiscalPrinterImpl.obj
 0002:0000c6fc       $unwind$?EndInsertion@COPOSFiscalPrinter@@UEAAJPEAJ@Z 00000001800356fc     FiscalPrinterImpl.obj
 0002:0000c6fc       $unwind$?EndItemList@COPOSFiscalPrinter@@UEAAJPEAJ@Z 00000001800356fc     FiscalPrinterImpl.obj
 0002:0000c6fc       $unwind$?EndNonFiscal@COPOSFiscalPrinter@@UEAAJPEAJ@Z 00000001800356fc     FiscalPrinterImpl.obj
 0002:0000c6fc       $unwind$?EndRemoval@COPOSFiscalPrinter@@UEAAJPEAJ@Z 00000001800356fc     FiscalPrinterImpl.obj
 0002:0000c6fc       $unwind$?EndTraining@COPOSFiscalPrinter@@UEAAJPEAJ@Z 00000001800356fc     FiscalPrinterImpl.obj
 0002:0000c6fc       $unwind$?PrintDuplicateReceipt@COPOSFiscalPrinter@@UEAAJPEAJ@Z 00000001800356fc     FiscalPrinterImpl.obj
 0002:0000c6fc       $unwind$?PrintPowerLossReport@COPOSFiscalPrinter@@UEAAJPEAJ@Z 00000001800356fc     FiscalPrinterImpl.obj
 0002:0000c6fc       $unwind$?PrintXReport@COPOSFiscalPrinter@@UEAAJPEAJ@Z 00000001800356fc     FiscalPrinterImpl.obj
 0002:0000c6fc       $unwind$?PrintZReport@COPOSFiscalPrinter@@UEAAJPEAJ@Z 00000001800356fc     FiscalPrinterImpl.obj
 0002:0000c6fc       $unwind$?ResetPrinterW@COPOSFiscalPrinter@@UEAAJPEAJ@Z 00000001800356fc     FiscalPrinterImpl.obj
 0002:0000c6fc       $unwind$?SetVatTable@COPOSFiscalPrinter@@UEAAJPEAJ@Z 00000001800356fc     FiscalPrinterImpl.obj
 0002:0000c6fc       $unwind$_raise_exc         00000001800356fc     libucrt:fpexcept.obj
 0002:0000c6fc       $unwind$?__scrt_throw_std_bad_alloc@@YAXXZ 00000001800356fc     LIBCMT:throw_bad_alloc.obj
 0002:0000c6fc       $unwind$?__scrt_throw_std_bad_array_new_length@@YAXXZ 00000001800356fc     LIBCMT:throw_bad_alloc.obj
 0002:0000c704       $unwind$?ProcessWindowMessage@?$CComControl@VCOPOSFiscalPrinter@@V?$CWindowImpl@VCOPOSFiscalPrinter@@VCWindow@ATL@@V?$CWinTraits@$0FGAAAAAA@$0A@@3@@ATL@@@ATL@@UEAAHPEAUHWND__@@I_K_JAEA_JK@Z 0000000180035704     FiscalPrinter.obj
 0002:0000c70c       $unwind$?GetSizeMax@?$IPersistStreamInitImpl@VCOPOSFiscalPrinter@@@ATL@@UEAAJPEAT_ULARGE_INTEGER@@@Z 000000018003570c     FiscalPrinter.obj
 0002:0000c724       $unwind$?IPersistStreamInit_Load@?$IPersistStreamInitImpl@VCOPOSFiscalPrinter@@@ATL@@QEAAJPEAUIStream@@PEBUATL_PROPMAP_ENTRY@2@@Z 0000000180035724     FiscalPrinter.obj
 0002:0000c740       $unwind$?IPersistStreamInit_Save@?$IPersistStreamInitImpl@VCOPOSFiscalPrinter@@@ATL@@QEAAJPEAUIStream@@HPEBUATL_PROPMAP_ENTRY@2@@Z 0000000180035740     FiscalPrinter.obj
 0002:0000c75c       $unwind$?DoVerbPrimary@?$IOleObjectImpl@VCOPOSFiscalPrinter@@@ATL@@QEAAJPEBUtagRECT@@PEAUHWND__@@@Z 000000018003575c     FiscalPrinter.obj
 0002:0000c75c       $unwind$?BeginFixedOutput@COPOSFiscalPrinter@@UEAAJJJPEAJ@Z 000000018003575c     FiscalPrinterImpl.obj
 0002:0000c75c       $unwind$?PrintRecSubtotalAdjustVoid@COPOSFiscalPrinter@@UEAAJJTtagCY@@PEAJ@Z 000000018003575c     FiscalPrinterImpl.obj
 0002:0000c774       $unwind$?TranslateAcceleratorW@?$IOleInPlaceActiveObjectImpl@VCOPOSFiscalPrinter@@@ATL@@UEAAJPEAUtagMSG@@@Z 0000000180035774     FiscalPrinter.obj
 0002:0000c780       $unwind$?Draw@?$IViewObjectExImpl@VCOPOSFiscalPrinter@@@ATL@@UEAAJKJPEAXPEAUtagDVTARGETDEVICE@@PEAUHDC__@@2PEBU_RECTL@@3P6AH_K@Z4@Z 0000000180035780     FiscalPrinter.obj
 0002:0000c788       $unwind$?QueryHitRect@?$IViewObjectExImpl@VCOPOSFiscalPrinter@@@ATL@@UEAAJKPEBUtagRECT@@0JPEAK@Z 0000000180035788     FiscalPrinter.obj
 0002:0000c798       $unwind$?OnWindowMessage@?$IOleInPlaceObjectWindowlessImpl@VCOPOSFiscalPrinter@@@ATL@@UEAAJI_K_JPEA_J@Z 0000000180035798     FiscalPrinter.obj
 0002:0000c7ac       $unwind$?EnumConnectionPoints@?$IConnectionPointContainerImpl@VCOPOSFiscalPrinter@@@ATL@@UEAAJPEAPEAUIEnumConnectionPoints@@@Z 00000001800357ac     FiscalPrinter.obj
 0002:0000c7d4       $unwind$?FindConnectionPoint@?$IConnectionPointContainerImpl@VCOPOSFiscalPrinter@@@ATL@@UEAAJAEBU_GUID@@PEAPEAUIConnectionPoint@@@Z 00000001800357d4     FiscalPrinter.obj
 0002:0000c7f0       $unwind$?Load@?$IPersistStorageImpl@VCOPOSFiscalPrinter@@@ATL@@UEAAJPEAUIStorage@@@Z 00000001800357f0     FiscalPrinter.obj
 0002:0000c800       $unwind$?Save@?$IPersistStorageImpl@VCOPOSFiscalPrinter@@@ATL@@UEAAJPEAUIStorage@@H@Z 0000000180035800     FiscalPrinter.obj
 0002:0000c814       $unwind$?IPSI_GetIPersistStreamInit@?$IPersistStorageImpl@VCOPOSFiscalPrinter@@@ATL@@AEAAPEAUIPersistStreamInit@@XZ 0000000180035814     FiscalPrinter.obj
 0002:0000c828       $unwind$?GetInterfaceSafetyOptions@?$IObjectSafetyImpl@VCOPOSFiscalPrinter@@$02@ATL@@UEAAJAEBU_GUID@@PEAK1@Z 0000000180035828     FiscalPrinter.obj
 0002:0000c83c       $unwind$?SetInterfaceSafetyOptions@?$IObjectSafetyImpl@VCOPOSFiscalPrinter@@$02@ATL@@UEAAJAEBU_GUID@@KK@Z 000000018003583c     FiscalPrinter.obj
 0002:0000c850       $unwind$?Advise@?$IConnectionPointImpl@VCOPOSFiscalPrinter@@$1?DIID__IOPOSFiscalPrinterEvents@@3U_GUID@@BVCComDynamicUnkArray@ATL@@@ATL@@UEAAJPEAUIUnknown@@PEAK@Z 0000000180035850     FiscalPrinter.obj
 0002:0000c850       $unwind$?Advise@?$IConnectionPointImpl@VCOPOSFiscalPrinter@@$1?IID_IPropertyNotifySink@@3U_GUID@@BVCComDynamicUnkArray@ATL@@@ATL@@UEAAJPEAUIUnknown@@PEAK@Z 0000000180035850     FiscalPrinter.obj
 0002:0000c864       $unwind$?EnumConnections@?$IConnectionPointImpl@VCOPOSFiscalPrinter@@$1?DIID__IOPOSFiscalPrinterEvents@@3U_GUID@@BVCComDynamicUnkArray@ATL@@@ATL@@UEAAJPEAPEAUIEnumConnections@@@Z 0000000180035864     FiscalPrinter.obj
 0002:0000c864       $unwind$?EnumConnections@?$IConnectionPointImpl@VCOPOSFiscalPrinter@@$1?IID_IPropertyNotifySink@@3U_GUID@@BVCComDynamicUnkArray@ATL@@@ATL@@UEAAJPEAPEAUIEnumConnections@@@Z 0000000180035864     FiscalPrinter.obj
 0002:0000c87c       $unwind$?Fire_DirectIOEvent@?$CProxy_IOPOSEvents@VCOPOSFiscalPrinter@@@@QEAAXJPEAJPEAPEA_W@Z 000000018003587c     FiscalPrinter.obj
 0002:0000c89c       $unwind$?Fire_ErrorEvent@?$CProxy_IOPOSEvents@VCOPOSFiscalPrinter@@@@QEAAXJJJPEAJ@Z 000000018003589c     FiscalPrinter.obj
 0002:0000c8bc       $unwind$?Fire_OutputCompleteEvent@?$CProxy_IOPOSEvents@VCOPOSFiscalPrinter@@@@QEAAXJ@Z 00000001800358bc     FiscalPrinter.obj
 0002:0000c8bc       $unwind$?Fire_StatusUpdateEvent@?$CProxy_IOPOSEvents@VCOPOSFiscalPrinter@@@@QEAAXJ@Z 00000001800358bc     FiscalPrinter.obj
 0002:0000c8bc       $unwind$?fp_format_e@@YAHQEBNQEAD_K12H_NIW4__acrt_rounding_mode@@AEAV__crt_cached_ptd_host@@@Z 00000001800358bc     libucrt:cvt.obj
 0002:0000c8bc       $unwind$??$__InternalCxxFrameHandler@V__FrameHandler3@@@@YA?AW4_EXCEPTION_DISPOSITION@@PEAUEHExceptionRecord@@PEA_KPEAU_CONTEXT@@PEAU_xDISPATCHER_CONTEXT@@PEBU_s_FuncInfo@@H1E@Z 00000001800358bc     libvcruntime:frame.obj
 0002:0000c8d4       $unwind$?FireTheEvent@?$CProxy_IOPOSEvents@VCOPOSFiscalPrinter@@@@IEAAXPEAVOposVariant@@IAEAJPEB_WJ@Z 00000001800358d4     FiscalPrinter.obj
 0002:0000c8e4       $unwind$?ProcessWindowMessage@COPOSFiscalPrinter@@UEAAHPEAUHWND__@@I_K_JAEA_JK@Z 00000001800358e4     FiscalPrinter.obj
 0002:0000c8fc       $unwind$?SOError@COPOSFiscalPrinter@@MEAAJJJJPEAJ@Z 00000001800358fc     FiscalPrinter.obj
 0002:0000c8fc       $unwind$??$common_lseek_nolock@_J@@YA_JH_JHAEAV__crt_cached_ptd_host@@@Z 00000001800358fc     libucrt:lseek.obj
 0002:0000c8fc       $unwind$_invalid_parameter_internal 00000001800358fc     libucrt:invalid_parameter.obj
 0002:0000c8fc       $unwind$??$type_case_integer@$07@?$output_processor@_WV?$string_output_adapter@_W@__crt_stdio_output@@V?$format_validation_base@_WV?$string_output_adapter@_W@__crt_stdio_output@@@2@@__crt_stdio_output@@AEAA_N_N@Z 00000001800358fc     libucrt:output.obj
 0002:0000c8fc       $unwind$??$type_case_integer@$09@?$output_processor@_WV?$string_output_adapter@_W@__crt_stdio_output@@V?$format_validation_base@_WV?$string_output_adapter@_W@__crt_stdio_output@@@2@@__crt_stdio_output@@AEAA_N_N@Z 00000001800358fc     libucrt:output.obj
 0002:0000c8fc       $unwind$??$type_case_integer@$0BA@@?$output_processor@_WV?$string_output_adapter@_W@__crt_stdio_output@@V?$format_validation_base@_WV?$string_output_adapter@_W@__crt_stdio_output@@@2@@__crt_stdio_output@@AEAA_N_N@Z 00000001800358fc     libucrt:output.obj
 0002:0000c910       $unwind$?Clone@?$CComEnumImpl@UIEnumConnectionPoints@@$1?_GUID_b196b285_bab4_101a_b69c_00aa00341d07@@3U__s_GUID@@BPEAUIConnectionPoint@@V?$_CopyInterface@UIConnectionPoint@@@ATL@@@ATL@@UEAAJPEAPEAUIEnumConnectionPoints@@@Z 0000000180035910     FiscalPrinter.obj
 0002:0000c910       $unwind$?Clone@?$CComEnumImpl@UIEnumConnections@@$1?_GUID_b196b287_bab4_101a_b69c_00aa00341d07@@3U__s_GUID@@BUtagCONNECTDATA@@V?$_Copy@UtagCONNECTDATA@@@ATL@@@ATL@@UEAAJPEAPEAUIEnumConnections@@@Z 0000000180035910     FiscalPrinter.obj
 0002:0000c928       $unwind$?Init@?$CComEnumImpl@UIEnumConnectionPoints@@$1?_GUID_b196b285_bab4_101a_b69c_00aa00341d07@@3U__s_GUID@@BPEAUIConnectionPoint@@V?$_CopyInterface@UIConnectionPoint@@@ATL@@@ATL@@QEAAJPEAPEAUIConnectionPoint@@0PEAUIUnknown@@W4CComEnumFlags@2@@Z 0000000180035928     FiscalPrinter.obj
 0002:0000c928       $unwind$?Init@?$CComEnumImpl@UIEnumConnections@@$1?_GUID_b196b287_bab4_101a_b69c_00aa00341d07@@3U__s_GUID@@BUtagCONNECTDATA@@V?$_Copy@UtagCONNECTDATA@@@ATL@@@ATL@@QEAAJPEAUtagCONNECTDATA@@0PEAUIUnknown@@W4CComEnumFlags@2@@Z 0000000180035928     FiscalPrinter.obj
 0002:0000c928       $unwind$?should_round_up@@YA_NQEBN_KFW4__acrt_rounding_mode@@@Z 0000000180035928     libucrt:cvt.obj
 0002:0000c928       $unwind$??$parse_command_line@D@@YAXPEADPEAPEAD0PEA_K2@Z 0000000180035928     libucrt:argv_parsing.obj
 0002:0000c944       $unwind$?GetOposProp@COPOSFiscalPrinter@@IEAAJJPEAJJ@Z 0000000180035944     FiscalPrinterImpl.obj
 0002:0000c944       $unwind$?GetOposProp@COPOSFiscalPrinter@@IEAAJJPEAPEA_WJ@Z 0000000180035944     FiscalPrinterImpl.obj
 0002:0000c95c       $unwind$?SetOposProp@COPOSFiscalPrinter@@IEAAJJJJ@Z 000000018003595c     FiscalPrinterImpl.obj
 0002:0000c97c       $unwind$?SetOposProp@COPOSFiscalPrinter@@IEAAJJPEA_WJ@Z 000000018003597c     FiscalPrinterImpl.obj
 0002:0000c998       $unwind$?DoInvoke@COPOSFiscalPrinter@@IEAAJJPEAVOposVariant@@IHPEAJ_N@Z 0000000180035998     FiscalPrinterImpl.obj
 0002:0000c9b0       $unwind$?SetCOFreezeEvents@COPOSFiscalPrinter@@IEAAXF@Z 00000001800359b0     FiscalPrinterImpl.obj
 0002:0000c9c4       $unwind$?OnDraw@COPOSFiscalPrinter@@MEAAJAEAUATL_DRAWINFO@@@Z 00000001800359c4     FiscalPrinterImpl.obj
 0002:0000c9dc       $unwind$?EventInit@COPOSFiscalPrinter@@IEAAJXZ 00000001800359dc     FiscalPrinterImpl.obj
 0002:0000c9f0       $unwind$?EventWindowProc@COPOSFiscalPrinter@@IEAA_JI_K_J@Z 00000001800359f0     FiscalPrinterImpl.obj
 0002:0000c9f0       $unwind$?type_case_n@?$output_processor@_WV?$string_output_adapter@_W@__crt_stdio_output@@V?$format_validation_base@_WV?$string_output_adapter@_W@__crt_stdio_output@@@2@@__crt_stdio_output@@AEAA_NXZ 00000001800359f0     libucrt:output.obj
 0002:0000c9fc       $unwind$?get_ControlObjectDescription@COPOSFiscalPrinter@@UEAAJPEAPEA_W@Z 00000001800359fc     FiscalPrinterImpl.obj
 0002:0000c9fc       $unwind$__dcrt_lowio_ensure_console_output_initialized 00000001800359fc     libucrt:initcon.obj
 0002:0000c9fc       $unwind$?__mbrtowc_utf8@__crt_mbstring@@YA_KPEA_WPEBD_KPEAU_Mbstatet@@AEAV__crt_cached_ptd_host@@@Z 00000001800359fc     libucrt:mbrtowc.obj
 0002:0000c9fc       $unwind$?getSystemCP@@YAHH@Z 00000001800359fc     libucrt:mbctype.obj
 0002:0000ca04       $unwind$?BeginFiscalDocument@COPOSFiscalPrinter@@UEAAJJPEAJ@Z 0000000180035a04     FiscalPrinterImpl.obj
 0002:0000ca04       $unwind$?BeginFiscalReceipt@COPOSFiscalPrinter@@UEAAJFPEAJ@Z 0000000180035a04     FiscalPrinterImpl.obj
 0002:0000ca04       $unwind$?BeginInsertion@COPOSFiscalPrinter@@UEAAJJPEAJ@Z 0000000180035a04     FiscalPrinterImpl.obj
 0002:0000ca04       $unwind$?BeginItemList@COPOSFiscalPrinter@@UEAAJJPEAJ@Z 0000000180035a04     FiscalPrinterImpl.obj
 0002:0000ca04       $unwind$?BeginRemoval@COPOSFiscalPrinter@@UEAAJJPEAJ@Z 0000000180035a04     FiscalPrinterImpl.obj
 0002:0000ca04       $unwind$?CheckHealth@COPOSFiscalPrinter@@UEAAJJPEAJ@Z 0000000180035a04     FiscalPrinterImpl.obj
 0002:0000ca04       $unwind$?EndFiscalReceipt@COPOSFiscalPrinter@@UEAAJFPEAJ@Z 0000000180035a04     FiscalPrinterImpl.obj
 0002:0000ca04       $unwind$?GetDate@COPOSFiscalPrinter@@UEAAJPEAPEA_WPEAJ@Z 0000000180035a04     FiscalPrinterImpl.obj
 0002:0000ca04       $unwind$?PrintFiscalDocumentLine@COPOSFiscalPrinter@@UEAAJPEA_WPEAJ@Z 0000000180035a04     FiscalPrinterImpl.obj
 0002:0000ca04       $unwind$?PrintRecCash@COPOSFiscalPrinter@@UEAAJTtagCY@@PEAJ@Z 0000000180035a04     FiscalPrinterImpl.obj
 0002:0000ca04       $unwind$?PrintRecMessage@COPOSFiscalPrinter@@UEAAJPEA_WPEAJ@Z 0000000180035a04     FiscalPrinterImpl.obj
 0002:0000ca04       $unwind$?PrintRecSubtotal@COPOSFiscalPrinter@@UEAAJTtagCY@@PEAJ@Z 0000000180035a04     FiscalPrinterImpl.obj
 0002:0000ca04       $unwind$?PrintRecTaxID@COPOSFiscalPrinter@@UEAAJPEA_WPEAJ@Z 0000000180035a04     FiscalPrinterImpl.obj
 0002:0000ca04       $unwind$?PrintRecVoid@COPOSFiscalPrinter@@UEAAJPEA_WPEAJ@Z 0000000180035a04     FiscalPrinterImpl.obj
 0002:0000ca04       $unwind$?ResetStatistics@COPOSFiscalPrinter@@UEAAJPEA_WPEAJ@Z 0000000180035a04     FiscalPrinterImpl.obj
 0002:0000ca04       $unwind$?RetrieveStatistics@COPOSFiscalPrinter@@UEAAJPEAPEA_WPEAJ@Z 0000000180035a04     FiscalPrinterImpl.obj
 0002:0000ca04       $unwind$?SetCurrency@COPOSFiscalPrinter@@UEAAJJPEAJ@Z 0000000180035a04     FiscalPrinterImpl.obj
 0002:0000ca04       $unwind$?SetDate@COPOSFiscalPrinter@@UEAAJPEA_WPEAJ@Z 0000000180035a04     FiscalPrinterImpl.obj
 0002:0000ca04       $unwind$?SetStoreFiscalID@COPOSFiscalPrinter@@UEAAJPEA_WPEAJ@Z 0000000180035a04     FiscalPrinterImpl.obj
 0002:0000ca04       $unwind$?UpdateFirmware@COPOSFiscalPrinter@@UEAAJPEA_WPEAJ@Z 0000000180035a04     FiscalPrinterImpl.obj
 0002:0000ca04       $unwind$?UpdateStatistics@COPOSFiscalPrinter@@UEAAJPEA_WPEAJ@Z 0000000180035a04     FiscalPrinterImpl.obj
 0002:0000ca14       $unwind$?ClaimDevice@COPOSFiscalPrinter@@UEAAJJPEAJ@Z 0000000180035a14     FiscalPrinterImpl.obj
 0002:0000ca24       $unwind$?Close@COPOSFiscalPrinter@@UEAAJPEAJ@Z 0000000180035a24     FiscalPrinterImpl.obj
 0002:0000ca30       $unwind$?DirectIO@COPOSFiscalPrinter@@UEAAJJPEAJPEAPEA_W0@Z 0000000180035a30     FiscalPrinterImpl.obj
 0002:0000ca30       $unwind$?GetData@COPOSFiscalPrinter@@UEAAJJPEAJPEAPEA_W0@Z 0000000180035a30     FiscalPrinterImpl.obj
 0002:0000ca30       $unwind$?GetTotalizer@COPOSFiscalPrinter@@UEAAJJJPEAPEA_WPEAJ@Z 0000000180035a30     FiscalPrinterImpl.obj
 0002:0000ca30       $unwind$?GetVatEntry@COPOSFiscalPrinter@@UEAAJJJPEAJ0@Z 0000000180035a30     FiscalPrinterImpl.obj
 0002:0000ca30       $unwind$?PrintFixedOutput@COPOSFiscalPrinter@@UEAAJJJPEA_WPEAJ@Z 0000000180035a30     FiscalPrinterImpl.obj
 0002:0000ca30       $unwind$?PrintRecPackageAdjustment@COPOSFiscalPrinter@@UEAAJJPEA_W0PEAJ@Z 0000000180035a30     FiscalPrinterImpl.obj
 0002:0000ca30       $unwind$?PrintRecRefund@COPOSFiscalPrinter@@UEAAJPEA_WTtagCY@@JPEAJ@Z 0000000180035a30     FiscalPrinterImpl.obj
 0002:0000ca30       $unwind$?PrintRecRefundVoid@COPOSFiscalPrinter@@UEAAJPEA_WTtagCY@@JPEAJ@Z 0000000180035a30     FiscalPrinterImpl.obj
 0002:0000ca30       $unwind$?PrintRecSubtotalAdjustment@COPOSFiscalPrinter@@UEAAJJPEA_WTtagCY@@PEAJ@Z 0000000180035a30     FiscalPrinterImpl.obj
 0002:0000ca30       $unwind$?PrintRecTotal@COPOSFiscalPrinter@@UEAAJTtagCY@@0PEA_WPEAJ@Z 0000000180035a30     FiscalPrinterImpl.obj
 0002:0000ca30       $unwind$?PrintReport@COPOSFiscalPrinter@@UEAAJJPEA_W0PEAJ@Z 0000000180035a30     FiscalPrinterImpl.obj
 0002:0000ca30       $unwind$?SetHeaderLine@COPOSFiscalPrinter@@UEAAJJPEA_WFPEAJ@Z 0000000180035a30     FiscalPrinterImpl.obj
 0002:0000ca30       $unwind$?SetTrailerLine@COPOSFiscalPrinter@@UEAAJJPEA_WFPEAJ@Z 0000000180035a30     FiscalPrinterImpl.obj
 0002:0000ca4c       $unwind$?Open@COPOSFiscalPrinter@@UEAAJPEA_WPEAJ@Z 0000000180035a4c     FiscalPrinterImpl.obj
 0002:0000ca70       $unwind$?CompareFirmwareVersion@COPOSFiscalPrinter@@UEAAJPEA_WPEAJ1@Z 0000000180035a70     FiscalPrinterImpl.obj
 0002:0000ca70       $unwind$?PrintNormal@COPOSFiscalPrinter@@UEAAJJPEA_WPEAJ@Z 0000000180035a70     FiscalPrinterImpl.obj
 0002:0000ca70       $unwind$?PrintPeriodicTotalsReport@COPOSFiscalPrinter@@UEAAJPEA_W0PEAJ@Z 0000000180035a70     FiscalPrinterImpl.obj
 0002:0000ca70       $unwind$?PrintRecNotPaid@COPOSFiscalPrinter@@UEAAJPEA_WTtagCY@@PEAJ@Z 0000000180035a70     FiscalPrinterImpl.obj
 0002:0000ca70       $unwind$?PrintRecPackageAdjustVoid@COPOSFiscalPrinter@@UEAAJJPEA_WPEAJ@Z 0000000180035a70     FiscalPrinterImpl.obj
 0002:0000ca70       $unwind$?SetPOSID@COPOSFiscalPrinter@@UEAAJPEA_W0PEAJ@Z 0000000180035a70     FiscalPrinterImpl.obj
 0002:0000ca70       $unwind$?SetVatValue@COPOSFiscalPrinter@@UEAAJJPEA_WPEAJ@Z 0000000180035a70     FiscalPrinterImpl.obj
 0002:0000ca70       $unwind$?VerifyItem@COPOSFiscalPrinter@@UEAAJPEA_WJPEAJ@Z 0000000180035a70     FiscalPrinterImpl.obj
 0002:0000ca70       $unwind$?initialize_inherited_file_handles_nolock@@YAXXZ 0000000180035a70     libucrt:ioinit.obj
 0002:0000ca8c       $unwind$?PrintRecItem@COPOSFiscalPrinter@@UEAAJPEA_WTtagCY@@JJ10PEAJ@Z 0000000180035a8c     FiscalPrinterImpl.obj
 0002:0000ca8c       $unwind$?PrintRecItemRefund@COPOSFiscalPrinter@@UEAAJPEA_WTtagCY@@JJ10PEAJ@Z 0000000180035a8c     FiscalPrinterImpl.obj
 0002:0000ca8c       $unwind$?PrintRecItemRefundVoid@COPOSFiscalPrinter@@UEAAJPEA_WTtagCY@@JJ10PEAJ@Z 0000000180035a8c     FiscalPrinterImpl.obj
 0002:0000ca8c       $unwind$?PrintRecItemVoid@COPOSFiscalPrinter@@UEAAJPEA_WTtagCY@@JJ10PEAJ@Z 0000000180035a8c     FiscalPrinterImpl.obj
 0002:0000ca8c       $unwind$??$FindHandler@V__FrameHandler3@@@@YAXPEAUEHExceptionRecord@@PEA_KPEAU_CONTEXT@@PEAU_xDISPATCHER_CONTEXT@@PEBU_s_FuncInfo@@EH1@Z 0000000180035a8c     libvcruntime:frame.obj
 0002:0000caac       $unwind$?PrintRecItemAdjustment@COPOSFiscalPrinter@@UEAAJJPEA_WTtagCY@@JPEAJ@Z 0000000180035aac     FiscalPrinterImpl.obj
 0002:0000caac       $unwind$?PrintRecItemAdjustmentVoid@COPOSFiscalPrinter@@UEAAJJPEA_WTtagCY@@JPEAJ@Z 0000000180035aac     FiscalPrinterImpl.obj
 0002:0000caac       $unwind$?PrintRecItemFuelVoid@COPOSFiscalPrinter@@UEAAJPEA_WTtagCY@@J1PEAJ@Z 0000000180035aac     FiscalPrinterImpl.obj
 0002:0000cac8       $unwind$?PrintRecVoidItem@COPOSFiscalPrinter@@UEAAJPEA_WTtagCY@@JJ1JPEAJ@Z 0000000180035ac8     FiscalPrinterImpl.obj
 0002:0000cae8       $unwind$?PrintRecItemFuel@COPOSFiscalPrinter@@UEAAJPEA_WTtagCY@@JJ1010PEAJ@Z 0000000180035ae8     FiscalPrinterImpl.obj
 0002:0000cb08       $unwind$__scrt_is_nonwritable_in_current_image 0000000180035b08     LIBCMT:utility.obj
 0002:0000cb28       $unwind$__scrt_is_nonwritable_in_current_image$filt$0 0000000180035b28     LIBCMT:utility.obj
 0002:0000cb30       $unwind$__report_securityfailure 0000000180035b30     LIBCMT:gs_report.obj
 0002:0000cb38       $unwind$__report_gsfailure 0000000180035b38     LIBCMT:gs_report.obj
 0002:0000cb40       $unwind$capture_current_context 0000000180035b40     LIBCMT:gs_report.obj
 0002:0000cb4c       $unwind$capture_previous_context 0000000180035b4c     LIBCMT:gs_report.obj
 0002:0000cb58       $unwind$??2@YAPEAX_KAEBUnothrow_t@std@@@Z 0000000180035b58     LIBCMT:new_scalar_nothrow.obj
 0002:0000cb68       $cppxdata$??2@YAPEAX_KAEBUnothrow_t@std@@@Z 0000000180035b68     LIBCMT:new_scalar_nothrow.obj
 0002:0000cb75       $stateUnwindMap$??2@YAPEAX_KAEBUnothrow_t@std@@@Z 0000000180035b75     LIBCMT:new_scalar_nothrow.obj
 0002:0000cb78       $tryMap$??2@YAPEAX_KAEBUnothrow_t@std@@@Z 0000000180035b78     LIBCMT:new_scalar_nothrow.obj
 0002:0000cb80       $handlerMap$??2@YAPEAX_KAEBUnothrow_t@std@@@Z 0000000180035b80     LIBCMT:new_scalar_nothrow.obj
 0002:0000cb88       $ip2state$??2@YAPEAX_KAEBUnothrow_t@std@@@Z 0000000180035b88     LIBCMT:new_scalar_nothrow.obj
 0002:0000cb8c       $unwind$?catch$0@?0???2@YAPEAX_KAEBUnothrow_t@std@@@Z@4HA 0000000180035b8c     LIBCMT:new_scalar_nothrow.obj
 0002:0000cb9c       $cppxdata$?catch$0@?0???2@YAPEAX_KAEBUnothrow_t@std@@@Z@4HA 0000000180035b9c     LIBCMT:new_scalar_nothrow.obj
 0002:0000cba6       $stateUnwindMap$?catch$0@?0???2@YAPEAX_KAEBUnothrow_t@std@@@Z@4HA 0000000180035ba6     LIBCMT:new_scalar_nothrow.obj
 0002:0000cba8       $ip2state$?catch$0@?0???2@YAPEAX_KAEBUnothrow_t@std@@@Z@4HA 0000000180035ba8     LIBCMT:new_scalar_nothrow.obj
 0002:0000cbac       $unwind$__GSHandlerCheckCommon 0000000180035bac     LIBCMT:gshandler.obj
 0002:0000cbb8       $xdatasym                  0000000180035bb8     LIBCMT:chkstk.obj
 0002:0000cbc0       $xdatasym                  0000000180035bc0     LIBCMT:amdsecgs.obj
 0002:0000cbc4       $unwind$?dllmain_crt_process_attach@@YAHQEAUHINSTANCE__@@QEAX@Z 0000000180035bc4     LIBCMT:dll_dllmain.obj
 0002:0000cc00       $unwind$?dllmain_crt_process_detach@@YAH_N@Z 0000000180035c00     LIBCMT:dll_dllmain.obj
 0002:0000cc54       $unwind$?dllmain_dispatch@@YAHQEAUHINSTANCE__@@KQEAX@Z 0000000180035c54     LIBCMT:dll_dllmain.obj
 0002:0000cc7c       $unwind$_write_internal$fin$0 0000000180035c7c     libucrt:write.obj
 0002:0000cc7c       $unwind$?fin$0@?0??_fclose_internal@@YAHQEAU_iobuf@@AEAV__crt_cached_ptd_host@@@Z@4HA 0000000180035c7c     libucrt:fclose.obj
 0002:0000cc7c       $unwind$?filt$0@?0??dllmain_dispatch@@YAHQEAUHINSTANCE__@@KQEAX@Z@4HA 0000000180035c7c     LIBCMT:dll_dllmain.obj
 0002:0000cc7c       $unwind$?filt$0@?0??FrameUnwindToState@__FrameHandler4@@SAXPEA_KPEAU_xDISPATCHER_CONTEXT@@PEAUFuncInfo4@FH4@@H@Z@4HA 0000000180035c7c     libvcruntime:frame.obj
 0002:0000cc7c       $unwind$?fin$1@?0??FrameUnwindToState@__FrameHandler4@@SAXPEA_KPEAU_xDISPATCHER_CONTEXT@@PEAUFuncInfo4@FH4@@H@Z@4HA 0000000180035c7c     libvcruntime:frame.obj
 0002:0000cc84       $unwind$__isa_available_init 0000000180035c84     LIBCMT:cpu_disp.obj
 0002:0000cc94       $unwind$__scrt_fastfail    0000000180035c94     LIBCMT:utility_desktop.obj
 0002:0000cca4       $unwind$__security_init_cookie 0000000180035ca4     LIBCMT:gs_support.obj
 0002:0000ccb0       $xdatasym                  0000000180035cb0     LIBCMT:guard_dispatch.obj
 0002:0000ccb8       $xdatasym                  0000000180035cb8     LIBCMT:guard_xfg_dispatch.obj
 0002:0000ccbc       $unwind$AtlThunk_InitData  0000000180035cbc     atls:atlthunk.obj
 0002:0000ccd0       $unwind$wcsstr             0000000180035cd0     libvcruntime:wcsstr.obj
 0002:0000cce8       $xdatasym                  0000000180035ce8     libvcruntime:memcmp.obj
 0002:0000ccf0       $xdatasym                  0000000180035cf0     libvcruntime:memcpy.obj
 0002:0000cd00       $xdatasym                  0000000180035d00     libvcruntime:memset.obj
 0002:0000cd10       $unwind$__C_specific_handler 0000000180035d10     libvcruntime:riscchandler.obj
 0002:0000cd10       $unwind$?GetRangeOfTrysToCheck@__FrameHandler3@@SA?AU?$pair@Viterator@TryBlockMap@__FrameHandler3@@V123@@std@@AEAVTryBlockMap@1@HPEAU_xDISPATCHER_CONTEXT@@PEBU_s_FuncInfo@@H@Z 0000000180035d10     libvcruntime:risctrnsctrl.obj
 0002:0000cd2c       $unwind$?StateFromIp@__FrameHandler4@@SAHPEAUFuncInfo4@FH4@@PEAU_xDISPATCHER_CONTEXT@@_K@Z 0000000180035d2c     libvcruntime:ehstate.obj
 0002:0000cd2c       $unwind$?DecompFuncInfo@FH4@@YA_JPEAEAEAUFuncInfo4@1@_KH_N@Z 0000000180035d2c     libvcruntime:risctrnsctrl.obj
 0002:0000cd44       $unwind$?GetEstablisherFrame@__FrameHandler3@@SAPEA_KPEA_KPEAU_xDISPATCHER_CONTEXT@@PEBU_s_FuncInfo@@0@Z 0000000180035d44     libvcruntime:risctrnsctrl.obj
 0002:0000cd5c       $unwind$?UnwindNestedFrames@__FrameHandler3@@SAXPEA_KPEAUEHExceptionRecord@@PEAU_CONTEXT@@0PEAXPEBU_s_FuncInfo@@HHPEBU_s_HandlerType@@PEAU_xDISPATCHER_CONTEXT@@E@Z 0000000180035d5c     libvcruntime:risctrnsctrl.obj
 0002:0000cd5c       $unwind$?UnwindNestedFrames@__FrameHandler4@@SAXPEA_KPEAUEHExceptionRecord@@PEAU_CONTEXT@@0PEAXPEAUFuncInfo4@FH4@@HHPEAUHandlerType4@5@PEAU_xDISPATCHER_CONTEXT@@E@Z 0000000180035d5c     libvcruntime:risctrnsctrl.obj
 0002:0000cd70       $unwind$?GetRangeOfTrysToCheck@__FrameHandler4@@SA?AU?$pair@Viterator@TryBlockMap4@FH4@@V123@@std@@AEAVTryBlockMap4@FH4@@HPEAU_xDISPATCHER_CONTEXT@@PEAUFuncInfo4@5@H@Z 0000000180035d70     libvcruntime:risctrnsctrl.obj
 0002:0000cd8c       $unwind$__CxxFrameHandler3 0000000180035d8c     libvcruntime:risctrnsctrl.obj
 0002:0000cda0       $unwind$__CxxFrameHandler4 0000000180035da0     libvcruntime:risctrnsctrl.obj
 0002:0000cdb4       $unwind$??$_CallSETranslator@V__FrameHandler4@@@@YAHPEAUEHExceptionRecord@@PEA_KPEAU_CONTEXT@@PEAU_xDISPATCHER_CONTEXT@@PEAUFuncInfo4@FH4@@K1H@Z 0000000180035db4     libvcruntime:risctrnsctrl.obj
 0002:0000cdd4       $unwind$?filt$0@?0???$_CallSETranslator@V__FrameHandler3@@@@YAHPEAUEHExceptionRecord@@PEA_KPEAU_CONTEXT@@PEAU_xDISPATCHER_CONTEXT@@PEBU_s_FuncInfo@@K1H@Z@4HA 0000000180035dd4     libvcruntime:risctrnsctrl.obj
 0002:0000cdd4       $unwind$?filt$0@?0???$_CallSETranslator@V__FrameHandler4@@@@YAHPEAUEHExceptionRecord@@PEA_KPEAU_CONTEXT@@PEAU_xDISPATCHER_CONTEXT@@PEAUFuncInfo4@FH4@@K1H@Z@4HA 0000000180035dd4     libvcruntime:risctrnsctrl.obj
 0002:0000cde0       $unwind$??$_CallSETranslator@V__FrameHandler3@@@@YAHPEAUEHExceptionRecord@@PEA_KPEAU_CONTEXT@@PEAU_xDISPATCHER_CONTEXT@@PEBU_s_FuncInfo@@K1H@Z 0000000180035de0     libvcruntime:risctrnsctrl.obj
 0002:0000ce00       $unwind$__DestructExceptionObject 0000000180035e00     libvcruntime:ehhelpers.obj
 0002:0000ce20       $unwind$__DestructExceptionObject$filt$0 0000000180035e20     libvcruntime:ehhelpers.obj
 0002:0000ce20       $unwind$?fin$1@?0??CxxCallCatchBlock@__FrameHandler3@@SAPEAXPEAU_EXCEPTION_RECORD@@@Z@4HA 0000000180035e20     libvcruntime:frame.obj
 0002:0000ce20       $unwind$?fin$1@?0??CxxCallCatchBlock@__FrameHandler4@@SAPEAXPEAU_EXCEPTION_RECORD@@@Z@4HA 0000000180035e20     libvcruntime:frame.obj
 0002:0000ce2c       $unwind$_CxxThrowException 0000000180035e2c     libvcruntime:throw.obj
 0002:0000ce40       $xdatasym                  0000000180035e40     libvcruntime:notify.obj
 0002:0000ce4c       $unwind$?getStartStop@UWMap4@FH4@@QEAAXHHAEAViterator@12@0@Z 0000000180035e4c     libvcruntime:frame.obj
 0002:0000ce64       $unwind$?FrameUnwindToState@__FrameHandler3@@SAXPEA_KPEAU_xDISPATCHER_CONTEXT@@PEBU_s_FuncInfo@@H@Z 0000000180035e64     libvcruntime:frame.obj
 0002:0000ceb0       $unwind$?CxxCallCatchBlock@__FrameHandler3@@SAPEAXPEAU_EXCEPTION_RECORD@@@Z 0000000180035eb0     libvcruntime:frame.obj
 0002:0000ceec       $unwind$?FrameUnwindToState@__FrameHandler4@@SAXPEA_KPEAU_xDISPATCHER_CONTEXT@@PEAUFuncInfo4@FH4@@H@Z 0000000180035eec     libvcruntime:frame.obj
 0002:0000cf34       $unwind$?CxxCallCatchBlock@__FrameHandler4@@SAPEAXPEAU_EXCEPTION_RECORD@@@Z 0000000180035f34     libvcruntime:frame.obj
 0002:0000cf90       $unwind$?IsInExceptionSpec@@YAEPEAUEHExceptionRecord@@PEBU_s_ESTypeList@@@Z 0000000180035f90     libvcruntime:frame.obj
 0002:0000cfac       $unwind$??$__InternalCxxFrameHandler@V__FrameHandler4@@@@YA?AW4_EXCEPTION_DISPOSITION@@PEAUEHExceptionRecord@@PEA_KPEAU_CONTEXT@@PEAU_xDISPATCHER_CONTEXT@@PEAUFuncInfo4@FH4@@H1E@Z 0000000180035fac     libvcruntime:frame.obj
 0002:0000cfc4       $unwind$??$BuildCatchObjectHelperInternal@V__FrameHandler3@@@@YAHPEAUEHExceptionRecord@@PEAXPEBU_s_HandlerType@@PEBU_s_CatchableType@@@Z 0000000180035fc4     libvcruntime:frame.obj
 0002:0000d004       $unwind$??$BuildCatchObjectHelperInternal@V__FrameHandler4@@@@YAHPEAUEHExceptionRecord@@PEAXPEAUHandlerType4@FH4@@PEBU_s_CatchableType@@@Z 0000000180036004     libvcruntime:frame.obj
 0002:0000d044       $unwind$??$BuildCatchObjectInternal@V__FrameHandler3@@@@YAXPEAUEHExceptionRecord@@PEAXPEBU_s_HandlerType@@PEBU_s_CatchableType@@@Z 0000000180036044     libvcruntime:frame.obj
 0002:0000d070       $unwind$??$BuildCatchObjectInternal@V__FrameHandler4@@@@YAXPEAUEHExceptionRecord@@PEAXPEAUHandlerType4@FH4@@PEBU_s_CatchableType@@@Z 0000000180036070     libvcruntime:frame.obj
 0002:0000d09c       $unwind$??$FindHandler@V__FrameHandler4@@@@YAXPEAUEHExceptionRecord@@PEA_KPEAU_CONTEXT@@PEAU_xDISPATCHER_CONTEXT@@PEAUFuncInfo4@FH4@@EH1@Z 000000018003609c     libvcruntime:frame.obj
 0002:0000d0bc       $unwind$??$CatchIt@V__FrameHandler3@@@@YAXPEAUEHExceptionRecord@@PEA_KPEAU_CONTEXT@@PEAU_xDISPATCHER_CONTEXT@@PEBU_s_FuncInfo@@PEBU_s_HandlerType@@PEBU_s_CatchableType@@PEBU_s_TryBlockMapEntry@@H1EE@Z 00000001800360bc     libvcruntime:frame.obj
 0002:0000d0bc       $unwind$??$CatchIt@V__FrameHandler4@@@@YAXPEAUEHExceptionRecord@@PEA_KPEAU_CONTEXT@@PEAU_xDISPATCHER_CONTEXT@@PEAUFuncInfo4@FH4@@PEAUHandlerType4@4@PEBU_s_CatchableType@@PEAUTryBlockMapEntry4@4@H1EE@Z 00000001800360bc     libvcruntime:frame.obj
 0002:0000d0d4       $unwind$??$FindHandlerForForeignException@V__FrameHandler3@@@@YAXPEAUEHExceptionRecord@@PEA_KPEAU_CONTEXT@@PEAU_xDISPATCHER_CONTEXT@@PEBU_s_FuncInfo@@HH1@Z 00000001800360d4     libvcruntime:frame.obj
 0002:0000d0f0       $unwind$??$FindHandlerForForeignException@V__FrameHandler4@@@@YAXPEAUEHExceptionRecord@@PEA_KPEAU_CONTEXT@@PEAU_xDISPATCHER_CONTEXT@@PEAUFuncInfo4@FH4@@HH1@Z 00000001800360f0     libvcruntime:frame.obj
 0002:0000d110       $unwind$?try_get_function@@YAPEAXW4function_id@?A0x391cf84c@@QEBDQEBW4module_id@2@2@Z 0000000180036110     libucrt:winapi_thunks.obj
 0002:0000d110       $unwind$?try_get_function@@YAPEAXW4function_id@?A0xbc0cc709@@QEBDQEBW4module_id@2@2@Z 0000000180036110     libvcruntime:winapi_downlevel.obj
 0002:0000d130       $xdatasym                  0000000180036130     libvcruntime:handlers.obj
 0002:0000d150       $unwind$__acrt_call_reportfault 0000000180036150     libucrt:invalid_parameter.obj
 0002:0000d170       $unwind$_invalid_parameter 0000000180036170     libucrt:invalid_parameter.obj
 0002:0000d17c       $unwind$_resetstkoflw      000000018003617c     libucrt:resetstk.obj
 0002:0000d1a0       $unwind$__stdio_common_vswprintf_s 00000001800361a0     libucrt:output.obj
 0002:0000d1b4       $unwind$?write_string@?$string_output_adapter@_W@__crt_stdio_output@@QEBAXQEB_WHQEAHAEAV__crt_cached_ptd_host@@@Z 00000001800361b4     libucrt:output.obj
 0002:0000d1cc       $unwind$??$common_vsprintf@Vformat_validation_base@__crt_stdio_output@@_W@@YAH_KQEA_W0QEB_WAEAV__crt_cached_ptd_host@@QEAD@Z 00000001800361cc     libucrt:output.obj
 0002:0000d1ec       $unwind$?parse_int_from_format_string@?$output_processor@_WV?$string_output_adapter@_W@__crt_stdio_output@@V?$format_validation_base@_WV?$string_output_adapter@_W@__crt_stdio_output@@@2@@__crt_stdio_output@@AEAA_NQEAH@Z 00000001800361ec     libucrt:output.obj
 0002:0000d200       $unwind$?state_case_type@?$output_processor@_WV?$string_output_adapter@_W@__crt_stdio_output@@V?$format_validation_base@_WV?$string_output_adapter@_W@__crt_stdio_output@@@2@@__crt_stdio_output@@AEAA_NXZ 0000000180036200     libucrt:output.obj
 0002:0000d224       $unwind$?type_case_a@?$output_processor@_WV?$string_output_adapter@_W@__crt_stdio_output@@V?$format_validation_base@_WV?$string_output_adapter@_W@__crt_stdio_output@@@2@@__crt_stdio_output@@AEAA_NXZ 0000000180036224     libucrt:output.obj
 0002:0000d238       $unwind$??$parse_integer@KV?$c_string_character_source@_W@__crt_strtox@@$0A@@__crt_strtox@@YAKAEAV__crt_cached_ptd_host@@V?$c_string_character_source@_W@0@H_N@Z 0000000180036238     libucrt:output.obj
 0002:0000d254       $unwind$?try_cor_exit_process@@YAXI@Z 0000000180036254     libucrt:exit.obj
 0002:0000d268       $ip2state$?try_cor_exit_process@@YAXI@Z 0000000180036268     libucrt:exit.obj
 0002:0000d270       $unwind$?common_exit@@YAXHW4_crt_exit_cleanup_mode@@W4_crt_exit_return_mode@@@Z 0000000180036270     libucrt:exit.obj
 0002:0000d284       $stateUnwindMap$__dcrt_uninitialize_environments_nolock 0000000180036284     libucrt:environment_initialization.obj
 0002:0000d284       $stateUnwindMap$?common_exit@@YAXHW4_crt_exit_cleanup_mode@@W4_crt_exit_return_mode@@@Z 0000000180036284     libucrt:exit.obj
 0002:0000d284       $stateUnwindMap$_execute_onexit_table 0000000180036284     libucrt:onexit.obj
 0002:0000d290       $ip2state$?common_exit@@YAXHW4_crt_exit_cleanup_mode@@W4_crt_exit_return_mode@@@Z 0000000180036290     libucrt:exit.obj
 0002:0000d298       $unwind$??R<lambda_6e4b09c48022b2350581041d5f6b0c4c>@@QEBA@XZ 0000000180036298     libucrt:exit.obj
 0002:0000d2b8       $unwind$??$?RV<lambda_d80eeec6fff315bfe5c115232f3240e3>@@AEAV<lambda_6e4b09c48022b2350581041d5f6b0c4c>@@V<lambda_2358e3775559c9db80273638284d5e45>@@@?$__crt_seh_guarded_call@X@@QEAAX$$QEAV<lambda_d80eeec6fff315bfe5c115232f3240e3>@@AEAV<lambda_6e4b09c48022b2350581041d5f6b0c4c>@@$$QEAV<lambda_2358e3775559c9db80273638284d5e45>@@@Z 00000001800362b8     libucrt:exit.obj
 0002:0000d2dc       $unwind$__dcrt_uninitialize_environments_nolock 00000001800362dc     libucrt:environment_initialization.obj
 0002:0000d2ec       $unwind$??$free_environment@D@@YAXQEAPEAD@Z 00000001800362ec     libucrt:environment_initialization.obj
 0002:0000d2ec       $unwind$??$free_environment@_W@@YAXQEAPEA_W@Z 00000001800362ec     libucrt:environment_initialization.obj
 0002:0000d2ec       $unwind$_initterm          00000001800362ec     libucrt:initterm.obj
 0002:0000d2f8       $unwind$_register_onexit_function 00000001800362f8     libucrt:onexit.obj
 0002:0000d300       $unwind$_execute_onexit_table 0000000180036300     libucrt:onexit.obj
 0002:0000d310       $ip2state$_execute_onexit_table 0000000180036310     libucrt:onexit.obj
 0002:0000d318       $unwind$??R<lambda_22ebabd17bc4fa466a2aca6d8deb888d>@@QEBAHXZ 0000000180036318     libucrt:onexit.obj
 0002:0000d330       $unwind$??$?RV<lambda_638799b9deba96c50f710eeac98168cd>@@AEAV<lambda_22ebabd17bc4fa466a2aca6d8deb888d>@@V<lambda_a6f7d7db0129f75315ebf26d50c089f1>@@@?$__crt_seh_guarded_call@H@@QEAAH$$QEAV<lambda_638799b9deba96c50f710eeac98168cd>@@AEAV<lambda_22ebabd17bc4fa466a2aca6d8deb888d>@@$$QEAV<lambda_a6f7d7db0129f75315ebf26d50c089f1>@@@Z 0000000180036330     libucrt:onexit.obj
 0002:0000d354       $unwind$??$?RV<lambda_7777bce6b2f8c936911f934f8298dc43>@@AEAV<lambda_f03950bc5685219e0bcd2087efbe011e>@@V<lambda_3883c3dff614d5e0c5f61bb1ac94921c>@@@?$__crt_seh_guarded_call@H@@QEAAH$$QEAV<lambda_7777bce6b2f8c936911f934f8298dc43>@@AEAV<lambda_f03950bc5685219e0bcd2087efbe011e>@@$$QEAV<lambda_3883c3dff614d5e0c5f61bb1ac94921c>@@@Z 0000000180036354     libucrt:onexit.obj
 0002:0000d378       $unwind$_query_new_handler 0000000180036378     libucrt:new_handler.obj
 0002:0000d398       $unwind$terminate          0000000180036398     libucrt:terminate.obj
 0002:0000d3b8       $xdatasym                  00000001800363b8     libucrt:strncmp.obj
 0002:0000d3bc       $unwind$?construct_ptd_array@@YAXQEAU__acrt_ptd@@@Z 00000001800363bc     libucrt:per_thread_data.obj
 0002:0000d3c4       $unwind$?destroy_ptd_array@@YAXQEAU__acrt_ptd@@@Z 00000001800363c4     libucrt:per_thread_data.obj
 0002:0000d3cc       $unwind$??$?RV<lambda_0ae27a3a962d80f24befdcbee591983d>@@AEAV<lambda_8d0ee55de4b1038c4002e0adecdf1839>@@V<lambda_dc504788e8f1664fe9b84e20bfb512f2>@@@?$__crt_seh_guarded_call@X@@QEAAX$$QEAV<lambda_0ae27a3a962d80f24befdcbee591983d>@@AEAV<lambda_8d0ee55de4b1038c4002e0adecdf1839>@@$$QEAV<lambda_dc504788e8f1664fe9b84e20bfb512f2>@@@Z 00000001800363cc     libucrt:per_thread_data.obj
 0002:0000d3f0       $unwind$??$?RV<lambda_aa87e3671a710a21b5dc78c0bdf72e11>@@AEAV<lambda_92619d2358a28f41a33ba319515a20b9>@@V<lambda_6992ecaafeb10aed2b74cb1fae11a551>@@@?$__crt_seh_guarded_call@X@@QEAAX$$QEAV<lambda_aa87e3671a710a21b5dc78c0bdf72e11>@@AEAV<lambda_92619d2358a28f41a33ba319515a20b9>@@$$QEAV<lambda_6992ecaafeb10aed2b74cb1fae11a551>@@@Z 00000001800363f0     libucrt:per_thread_data.obj
 0002:0000d414       $unwind$??$?RV<lambda_f2e299630e499de9f9a165e60fcd3db5>@@AEAV<lambda_2ae9d31cdba2644fcbeaf08da7c24588>@@V<lambda_40d01ff24d0e7b3814fdbdcee8eab3c7>@@@?$__crt_seh_guarded_call@X@@QEAAX$$QEAV<lambda_f2e299630e499de9f9a165e60fcd3db5>@@AEAV<lambda_2ae9d31cdba2644fcbeaf08da7c24588>@@$$QEAV<lambda_40d01ff24d0e7b3814fdbdcee8eab3c7>@@@Z 0000000180036414     libucrt:per_thread_data.obj
 0002:0000d438       $unwind$??$?RV<lambda_2d41944a1d46af3157314b8a01080d33>@@AEAV<lambda_8f455de75cd7d7f24b4096f044d8b9e6>@@V<lambda_aa500f224e6afead328df44964fe2772>@@@?$__crt_seh_guarded_call@X@@QEAAX$$QEAV<lambda_2d41944a1d46af3157314b8a01080d33>@@AEAV<lambda_8f455de75cd7d7f24b4096f044d8b9e6>@@$$QEAV<lambda_aa500f224e6afead328df44964fe2772>@@@Z 0000000180036438     libucrt:per_thread_data.obj
 0002:0000d45c       $unwind$__acrt_uninitialize_locale 000000018003645c     libucrt:wsetlocale.obj
 0002:0000d45c       $unwind$__acrt_get_sigabrt_handler 000000018003645c     libucrt:signal.obj
 0002:0000d464       $unwind$??$?RV<lambda_410d79af7f07d98d83a3f525b3859a53>@@AEAV<lambda_3e16ef9562a7dcce91392c22ab16ea36>@@V<lambda_38119f0e861e05405d8a144b9b982f0a>@@@?$__crt_seh_guarded_call@X@@QEAAX$$QEAV<lambda_410d79af7f07d98d83a3f525b3859a53>@@AEAV<lambda_3e16ef9562a7dcce91392c22ab16ea36>@@$$QEAV<lambda_38119f0e861e05405d8a144b9b982f0a>@@@Z 0000000180036464     libucrt:wsetlocale.obj
 0002:0000d48c       $unwind$__acrt_initialize_winapi_thunks 000000018003648c     libucrt:winapi_thunks.obj
 0002:0000d48c       $unwind$__acrt_fenv_get_control 000000018003648c     libucrt:_fenvutils.obj
 0002:0000d494       $unwind$__acrt_fp_format   0000000180036494     libucrt:cvt.obj
 0002:0000d4a4       $unwind$?fp_format_e_internal@@YAHQEAD_KH_NIQEAU_strflt@@2AEAV__crt_cached_ptd_host@@@Z 00000001800364a4     libucrt:cvt.obj
 0002:0000d4c0       $unwind$?fp_format_a@@YAHQEBNPEAD_KQEAD2H_NIW4__acrt_rounding_mode@@AEAV__crt_cached_ptd_host@@@Z 00000001800364c0     libucrt:cvt.obj
 0002:0000d4dc       $unwind$?fp_format_g@@YAHQEBNQEAD_K12H_NIW4__acrt_rounding_mode@@AEAV__crt_cached_ptd_host@@@Z 00000001800364dc     libucrt:cvt.obj
 0002:0000d4f4       $unwind$__acrt_initialize_lowio 00000001800364f4     libucrt:ioinit.obj
 0002:0000d514       $unwind$??$common_expand_argv_wildcards@D@@YAHQEAPEADQEAPEAPEAD@Z 0000000180036514     libucrt:argv_wildcards.obj
 0002:0000d52c       $unwind$__dcrt_get_narrow_environment_from_os 000000018003652c     libucrt:get_environment_from_os.obj
 0002:0000d52c       $unwind$??$__acrt_convert_wcs_mbs_cp@_WDV<lambda_d8593a27d1aa8c02be35c86a17d324c4>@@U__crt_win32_buffer_internal_dynamic_resizing@@@@YAHQEB_WAEAV?$__crt_win32_buffer@DU__crt_win32_buffer_internal_dynamic_resizing@@@@AEBV<lambda_d8593a27d1aa8c02be35c86a17d324c4>@@I@Z 000000018003652c     libucrt:argv_wildcards.obj
 0002:0000d544       $unwind$??$copy_and_add_argument_to_buffer@D@@YAHQEBD0_KAEAV?$argument_list@D@?A0x5f5c8891@@@Z 0000000180036544     libucrt:argv_wildcards.obj
 0002:0000d560       $unwind$??$expand_argument_wildcards@D@@YAHQEAD0AEAV?$argument_list@D@?A0x5f5c8891@@@Z 0000000180036560     libucrt:argv_wildcards.obj
 0002:0000d580       $unwind$__acrt_GetModuleFileNameA 0000000180036580     libucrt:getmodulefilenamea.obj
 0002:0000d59c       $unwind$_setmbcp_nolock    000000018003659c     libucrt:mbctype.obj
 0002:0000d5bc       $unwind$?update_thread_multibyte_data_internal@@YAPEAU__crt_multibyte_data@@QEAU__acrt_ptd@@QEAPEAU1@@Z 00000001800365bc     libucrt:mbctype.obj
 0002:0000d5e4       $unwind$?setmbcp_internal@@YAHH_NQEAU__acrt_ptd@@QEAPEAU__crt_multibyte_data@@@Z 00000001800365e4     libucrt:mbctype.obj
 0002:0000d5fc       $unwind$?setSBUpLow@@YAXPEAU__crt_multibyte_data@@@Z 00000001800365fc     libucrt:mbctype.obj
 0002:0000d618       $unwind$??$?RV<lambda_efdfa57d1f175319df784efa44bb7b81>@@AEAV<lambda_5f0a4c1567f8adc6734073e5d1e1b35c>@@V<lambda_2e8a7d3640ea6ccb4c2413664c2db6fd>@@@?$__crt_seh_guarded_call@X@@QEAAX$$QEAV<lambda_efdfa57d1f175319df784efa44bb7b81>@@AEAV<lambda_5f0a4c1567f8adc6734073e5d1e1b35c>@@$$QEAV<lambda_2e8a7d3640ea6ccb4c2413664c2db6fd>@@@Z 0000000180036618     libucrt:mbctype.obj
 0002:0000d63c       $unwind$__acrt_WideCharToMultiByte 000000018003663c     libucrt:widechartomultibyte.obj
 0002:0000d648       $unwind$raise              0000000180036648     libucrt:signal.obj
 0002:0000d684       $unwind$??$?RV<lambda_450d765d439847d4c735a33c368b5fc0>@@AEAV<lambda_44731a7d0e6d81c3e6aa82d741081786>@@V<lambda_601a2a7da3b7a96e9554ac7215c4b07c>@@@?$__crt_seh_guarded_call@P6AXH@Z@@QEAAP6AXH@Z$$QEAV<lambda_450d765d439847d4c735a33c368b5fc0>@@AEAV<lambda_44731a7d0e6d81c3e6aa82d741081786>@@$$QEAV<lambda_601a2a7da3b7a96e9554ac7215c4b07c>@@@Z 0000000180036684     libucrt:signal.obj
 0002:0000d6a8       $unwind$fclose             00000001800366a8     libucrt:fclose.obj
 0002:0000d6a8       $unwind$_fflush_nolock     00000001800366a8     libucrt:fflush.obj
 0002:0000d6b8       $unwind$?common_flush_all@@YAH_N@Z 00000001800366b8     libucrt:fflush.obj
 0002:0000d6c0       $unwind$??$?RV<lambda_842d9ff0dc9ef11c61343bbaebe7f885>@@AEAV<lambda_c5860995281e5c4ce005b3de8f5874ee>@@V<lambda_d90129c13df834fdcbf8d2b88dafcf2d>@@@?$__crt_seh_guarded_call@X@@QEAAX$$QEAV<lambda_842d9ff0dc9ef11c61343bbaebe7f885>@@AEAV<lambda_c5860995281e5c4ce005b3de8f5874ee>@@$$QEAV<lambda_d90129c13df834fdcbf8d2b88dafcf2d>@@@Z 00000001800366c0     libucrt:fflush.obj
 0002:0000d6e4       $unwind$??$?RV<lambda_886d6c58226a84441f68b9f2b8217b83>@@AEAV<lambda_ab61a845afdef5b7c387490eaf3616ee>@@V<lambda_f7f22ab5edc0698d5f6905b0d3f44752>@@@?$__crt_seh_guarded_call@X@@QEAAX$$QEAV<lambda_886d6c58226a84441f68b9f2b8217b83>@@AEAV<lambda_ab61a845afdef5b7c387490eaf3616ee>@@$$QEAV<lambda_f7f22ab5edc0698d5f6905b0d3f44752>@@@Z 00000001800366e4     libucrt:fflush.obj
 0002:0000d70c       $unwind$__acrt_update_thread_locale_data 000000018003670c     libucrt:locale_refcounting.obj
 0002:0000d730       $unwind$__acrt_locale_free_monetary 0000000180036730     libucrt:initmon.obj
 0002:0000d738       $unwind$__acrt_locale_free_time 0000000180036738     libucrt:inittime.obj
 0002:0000d748       $unwind$__acrt_GetStringTypeA 0000000180036748     libucrt:getstringtypea.obj
 0002:0000d770       $unwind$__acrt_fp_strflt_to_string 0000000180036770     libucrt:_fptostr.obj
 0002:0000d78c       $unwind$__acrt_fltout      000000018003678c     libucrt:cfout.obj
 0002:0000d7ac       $unwind$?divide@__crt_strtox@@YA_KAEAUbig_integer@1@AEBU21@@Z 00000001800367ac     libucrt:cfout.obj
 0002:0000d7c4       $chain$0$?divide@__crt_strtox@@YA_KAEAUbig_integer@1@AEBU21@@Z 00000001800367c4     libucrt:cfout.obj
 0002:0000d7d8       $chain$1$?divide@__crt_strtox@@YA_KAEAUbig_integer@1@AEBU21@@Z 00000001800367d8     libucrt:cfout.obj
 0002:0000d7e8       $unwind$?__mbsrtowcs_utf8@__crt_mbstring@@YA_KPEA_WPEAPEBD_KPEAU_Mbstatet@@AEAV__crt_cached_ptd_host@@@Z 00000001800367e8     libucrt:mbrtowc.obj
 0002:0000d800       $unwind$_fcloseall         0000000180036800     libucrt:closeall.obj
 0002:0000d824       $unwind$__acrt_lowio_destroy_handle_array 0000000180036824     libucrt:osfinfo.obj
 0002:0000d834       $unwind$__acrt_lowio_ensure_fh_exists 0000000180036834     libucrt:osfinfo.obj
 0002:0000d860       $unwind$qsort              0000000180036860     libucrt:qsort.obj
 0002:0000d878       $chain$4$qsort             0000000180036878     libucrt:qsort.obj
 0002:0000d89c       $chain$5$qsort             000000018003689c     libucrt:qsort.obj
 0002:0000d8ac       $unwind$strpbrk            00000001800368ac     libucrt:strpbrk.obj
 0002:0000d8bc       $unwind$fallbackMethod     00000001800368bc     libucrt:strpbrk.obj
 0002:0000d8cc       $unwind$__acrt_LCMapStringA 00000001800368cc     libucrt:lcmapstringa.obj
 0002:0000d8dc       $unwind$?__acrt_LCMapStringA_stat@@YAHPEAU__crt_locale_pointers@@PEB_WKPEBDHPEADHHH@Z 00000001800368dc     libucrt:lcmapstringa.obj
 0002:0000d904       $unwind$_commit            0000000180036904     libucrt:commit.obj
 0002:0000d90c       $unwind$??$?RV<lambda_a37b2b86f63e897a80ea819b0eb08c01>@@AEAV<lambda_38ce7e780aa69e748d6df282ebc68efe>@@V<lambda_99fb1378e971ab6e7edea83e3a7a83a2>@@@?$__crt_seh_guarded_call@H@@QEAAH$$QEAV<lambda_a37b2b86f63e897a80ea819b0eb08c01>@@AEAV<lambda_38ce7e780aa69e748d6df282ebc68efe>@@$$QEAV<lambda_99fb1378e971ab6e7edea83e3a7a83a2>@@@Z 000000018003690c     libucrt:commit.obj
 0002:0000d930       $unwind$_write_nolock      0000000180036930     libucrt:write.obj
 0002:0000d948       $unwind$_write_internal    0000000180036948     libucrt:write.obj
 0002:0000d978       $unwind$?write_double_translated_ansi_nolock@@YA?AUwrite_result@?A0x17268360@@HQEBDIAEAV__crt_cached_ptd_host@@@Z 0000000180036978     libucrt:write.obj
 0002:0000d9a0       $ip2state$?write_double_translated_ansi_nolock@@YA?AUwrite_result@?A0x17268360@@HQEBDIAEAV__crt_cached_ptd_host@@@Z 00000001800369a0     libucrt:write.obj
 0002:0000d9a8       $unwind$?write_text_ansi_nolock@@YA?AUwrite_result@?A0x17268360@@HQEBDI@Z 00000001800369a8     libucrt:write.obj
 0002:0000d9a8       $unwind$?write_text_utf16le_nolock@@YA?AUwrite_result@?A0x17268360@@HQEBDI@Z 00000001800369a8     libucrt:write.obj
 0002:0000d9c8       $unwind$?write_text_utf8_nolock@@YA?AUwrite_result@?A0x17268360@@HQEBDI@Z 00000001800369c8     libucrt:write.obj
 0002:0000d9f0       $xdatasym                  00000001800369f0     libucrt:log10.obj
 0002:0000d9fc       $unwind$__acrt_fenv_set_control 00000001800369fc     libucrt:_fenvutils.obj
 0002:0000da0c       $unwind$?__mbrtoc32_utf8@__crt_mbstring@@YA_KPEA_UPEBD_KPEAU_Mbstatet@@AEAV__crt_cached_ptd_host@@@Z 0000000180036a0c     libucrt:mbrtoc32.obj
 0002:0000da28       $unwind$?_fclose_nolock_internal@@YAHQEAU_iobuf@@AEAV__crt_cached_ptd_host@@@Z 0000000180036a28     libucrt:fclose.obj
 0002:0000da38       $unwind$?_fclose_internal@@YAHQEAU_iobuf@@AEAV__crt_cached_ptd_host@@@Z 0000000180036a38     libucrt:fclose.obj
 0002:0000da5c       $unwind$_putwch_nolock     0000000180036a5c     libucrt:putwch.obj
 0002:0000da64       $unwind$common_control87   0000000180036a64     libucrt:ieee.obj
 0002:0000da90       $unwind$_call_matherr      0000000180036a90     libucrt:libm_error.obj
 0002:0000da98       $unwind$_handle_error      0000000180036a98     libucrt:libm_error.obj
 0002:0000dab8       $unwind$__acrt_initialize_fma3 0000000180036ab8     libucrt:fma3_available.obj
 0002:0000dac0       $unwind$_log_special_common 0000000180036ac0     libucrt:log_special.obj
 0002:0000dacc       $unwind$_close_internal    0000000180036acc     libucrt:close.obj
 0002:0000dad4       $unwind$??$?RV<lambda_ad8af0d99a0adf03d037d7dffe354bb5>@@AEAV<lambda_c9ba49e555ba839a7b07aa3fbecb7617>@@V<lambda_2f1ebd5d68526518146ae959c9e734c8>@@@?$__crt_seh_guarded_call@H@@QEAAH$$QEAV<lambda_ad8af0d99a0adf03d037d7dffe354bb5>@@AEAV<lambda_c9ba49e555ba839a7b07aa3fbecb7617>@@$$QEAV<lambda_2f1ebd5d68526518146ae959c9e734c8>@@@Z 0000000180036ad4     libucrt:close.obj
 0002:0000daf8       $xdatasym                  0000000180036af8     libucrt:fpsr.obj
 0002:0000db00       $unwind$_raise_exc_ex      0000000180036b00     libucrt:fpexcept.obj
 0002:0000db14       $unwind$_ctrlfp            0000000180036b14     libucrt:fpctrl.obj
 0002:0000db3c       $unwind$_IsNonwritableInCurrentImage 0000000180036b3c     LIBCMT:pesect.obj
 0002:0000db60       $unwind$strrchr            0000000180036b60     libvcruntime:strrchr.obj
 0002:0000dcd0       .edata                     0000000180036cd0     OPOSFiscalPrinter.exp
 0002:0000dcf8       rgpv                       0000000180036cf8     OPOSFiscalPrinter.exp
 0002:0000dd08       rgszName                   0000000180036d08     OPOSFiscalPrinter.exp
 0002:0000dd18       rgwOrd                     0000000180036d18     OPOSFiscalPrinter.exp
 0002:0000dd20       szName                     0000000180036d20     OPOSFiscalPrinter.exp
 0002:0000dd36       $N00001                    0000000180036d36     OPOSFiscalPrinter.exp
 0002:0000dd46       $N00002                    0000000180036d46     OPOSFiscalPrinter.exp
 0002:0000dd58       $N00003                    0000000180036d58     OPOSFiscalPrinter.exp
 0002:0000dd6a       $N00004                    0000000180036d6a     OPOSFiscalPrinter.exp
 0002:0000e6ba       .idata$6                   00000001800376ba     kernel32:KERNEL32.dll
 0002:0000e8d2       .idata$6                   00000001800378d2     user32:USER32.dll
 0002:0000ea06       .idata$6                   0000000180037a06     gdi32:GDI32.dll
 0002:0000eaac       .idata$6                   0000000180037aac     advapi32:ADVAPI32.dll
 0002:0000ebc8       .idata$6                   0000000180037bc8     ole32:ole32.dll
 0002:0000ebd2       .idata$6                   0000000180037bd2     oleaut32:OLEAUT32.dll
 0003:000001c0       ?ObjectMap@@3PAU_ATL_OBJMAP_ENTRY30@ATL@@A 00000001800391c0     FiscalPrinter.obj
 0003:000002e0       ?s_SOMethodNames@@3PAPEADA 00000001800392e0     FiscalPrinterImpl.obj
 0003:00000560       ?s_RequiredMethodsPerRelease@@3PAHA 0000000180039560     FiscalPrinterImpl.obj
 0003:000005c0       ?__vcrt_flsindex@@3KA      00000001800395c0     libvcruntime:per_thread_data.obj
 0003:000005d0       ?errno_no_memory@@3HA      00000001800395d0     libucrt:errno.obj
 0003:000005d4       ?doserrno_no_memory@@3KA   00000001800395d4     libucrt:errno.obj
 0003:000005e0       ?__acrt_flsindex@@3KA      00000001800395e0     libucrt:per_thread_data.obj
 0003:00000aa0       _mbctypes                  0000000180039aa0     libucrt:mbctype.obj
 0003:00000bb0       _mbcasemaps                0000000180039bb0     libucrt:mbctype.obj
 0003:00000cb0       ?__rgctypeflag@@3PADA      0000000180039cb0     libucrt:mbctype.obj
 0003:00000cc0       ?__rgcode_page_info@@3PAUcode_page_info@@A 0000000180039cc0     libucrt:mbctype.obj
 0003:00000f60       ?dazSupported@?1??common_control87@@9@9 0000000180039f60     libucrt:ieee.obj
 0003:00000f70       ?__dcrt_lowio_console_output_handle@@3PEAXEA 0000000180039f70     libucrt:initcon.obj
 0003:00000f80       ?dazSupported@?1??_ctrlfp@@9@9 0000000180039f80     libucrt:fpctrl.obj
 0003:000011d0       ?is_initialized_as_dll@@3_NA 000000018003a1d0     LIBCMT:utility.obj
 0003:000011d1       ?module_local_atexit_table_initialized@@3_NA 000000018003a1d1     LIBCMT:utility.obj
 0003:000011d8       ?module_local_atexit_table@@3U_onexit_table_t@@A 000000018003a1d8     LIBCMT:utility.obj
 0003:000011f0       ?module_local_at_quick_exit_table@@3U_onexit_table_t@@A 000000018003a1f0     LIBCMT:utility.obj
 0003:00001208       ?g_tss_cv@@3U_RTL_CONDITION_VARIABLE@@A 000000018003a208     LIBCMT:thread_safe_statics.obj
 0003:00001210       ?g_tss_event@@3PEAXEA      000000018003a210     LIBCMT:thread_safe_statics.obj
 0003:00001218       ?g_tss_mutex@@3U_RTL_CRITICAL_SECTION@@A 000000018003a218     LIBCMT:thread_safe_statics.obj
 0003:00001240       ?g_sleep_condition_variable_cs@@3P6AHPEAU_RTL_CONDITION_VARIABLE@@PEAU_RTL_CRITICAL_SECTION@@K@ZEA 000000018003a240     LIBCMT:thread_safe_statics.obj
 0003:00001248       ?g_wake_all_condition_variable@@3P6AXPEAU_RTL_CONDITION_VARIABLE@@@ZEA 000000018003a248     LIBCMT:thread_safe_statics.obj
 0003:00001250       GS_ExceptionRecord         000000018003a250     LIBCMT:gs_report.obj
 0003:000012f0       GS_ContextRecord           000000018003a2f0     LIBCMT:gs_report.obj
 0003:000017c4       ?__proc_attached@@3HA      000000018003a7c4     LIBCMT:dll_dllmain.obj
 0003:00001858       ?AllocateData@@3P6APEAUAtlThunkData_t@@XZEA 000000018003a858     atls:atlthunk.obj
 0003:00001860       ?InitData@@3P6AXPEAUAtlThunkData_t@@PEAX_K@ZEA 000000018003a860     atls:atlthunk.obj
 0003:00001868       ?DataToCode@@3P6AP6A_JPEAUHWND__@@I_K_J@ZPEAUAtlThunkData_t@@@ZEA 000000018003a868     atls:atlthunk.obj
 0003:00001870       ?FreeData@@3P6AXPEAUAtlThunkData_t@@@ZEA 000000018003a870     atls:atlthunk.obj
 0003:00001878       ?Initialized@@3_NA         000000018003a878     atls:atlthunk.obj
 0003:00001890       ?__vcrt_startup_thread_ptd@@3U__vcrt_ptd@@A 000000018003a890     libvcruntime:per_thread_data.obj
 0003:00001910       __vcrt_lock_table          000000018003a910     libvcruntime:locks.obj
 0003:00001938       __vcrt_locks_initialized   000000018003a938     libvcruntime:locks.obj
 0003:00001980       ?heap@@3V_HeapManager@@A   000000018003a980     libvcruntime:undname.obj
 0003:000019a8       ?module_handles@@3PAPEAUHINSTANCE__@@A 000000018003a9a8     libvcruntime:winapi_downlevel.obj
 0003:000019c0       ?function_pointers@@3PAPEAXA 000000018003a9c0     libvcruntime:winapi_downlevel.obj
 0003:000019e8       ?__acrt_invalid_parameter_handler@@3V?$dual_state_global@P6AXPEB_W00I_K@Z@__crt_state_management@@A 000000018003a9e8     libucrt:invalid_parameter.obj
 0003:000019f0       ?c_termination_complete@@3JA 000000018003a9f0     libucrt:exit.obj
 0003:000019f8       ?thread_local_exit_callback_func@@3P6AXPEAXK0@ZEA 000000018003a9f8     libucrt:exit.obj
 0003:00001a10       ?program_name@?1???$common_configure_argv@D@@YAHW4_crt_argv_mode@@@Z@4PADA 000000018003aa10     libucrt:argv_parsing.obj
 0003:00001b68       ?__acrt_new_handler@@3V?$dual_state_global@P6AH_K@Z@__crt_state_management@@A 000000018003ab68     libucrt:new_handler.obj
 0003:00001b80       ?module_handles@@3PAPEAUHINSTANCE__@@A 000000018003ab80     libucrt:winapi_thunks.obj
 0003:00001c20       ?encoded_function_pointers@@3PAPEAXA 000000018003ac20     libucrt:winapi_thunks.obj
 0003:00001d10       ?internal_state@?1??_mbtowc_internal@@9@4U_Mbstatet@@A 000000018003ad10     libucrt:mbtowc.obj
 0003:00001d28       ?enable_percent_n@@3_KA    000000018003ad28     libucrt:printf_count_output.obj
 0003:00002150       ?__acrt_lock_table@@3PAU_RTL_CRITICAL_SECTION@@A 000000018003b150     libucrt:locks.obj
 0003:00002380       ?__acrt_locks_initialized@@3IA 000000018003b380     libucrt:locks.obj
 0003:000023a0       ?fSystemSet@@3HA           000000018003b3a0     libucrt:mbctype.obj
 0003:000023a4       ?initialized@?1??__acrt_initialize_multibyte@@9@4_NA 000000018003b3a4     libucrt:mbctype.obj
 0003:000023e0       ?ctrlc_action@@3V?$dual_state_global@P6AXH@Z@__crt_state_management@@A 000000018003b3e0     libucrt:signal.obj
 0003:000023e8       ?ctrlbreak_action@@3V?$dual_state_global@P6AXH@Z@__crt_state_management@@A 000000018003b3e8     libucrt:signal.obj
 0003:000023f0       ?abort_action@@3V?$dual_state_global@P6AXH@Z@__crt_state_management@@A 000000018003b3f0     libucrt:signal.obj
 0003:000023f8       ?term_action@@3V?$dual_state_global@P6AXH@Z@__crt_state_management@@A 000000018003b3f8     libucrt:signal.obj
 0003:00002400       ?user_matherr@@3V?$dual_state_global@P6AHPEAU_exception@@@Z@__crt_state_management@@A 000000018003b400     libucrt:matherr.obj
 0003:00002410       ?__acrt_global_new_mode@@3V?$dual_state_global@J@__crt_state_management@@A 000000018003b410     libucrt:new_mode.obj
 0003:00002418       ?internal_pst@?1??__mbrtoc32_utf8@__crt_mbstring@@YA_KPEA_UPEBD_KPEAU_Mbstatet@@AEAV__crt_cached_ptd_host@@@Z@4U3@A 000000018003b418     libucrt:mbrtoc32.obj
 0003:00002420       ?__acrt_app_type@@3W4_crt_app_type@@A 000000018003b420     libucrt:report_runtime_error.obj
 0005:00000000       MoveSmall                  000000018003f000     libvcruntime:memcpy.obj
 0005:00000040       MoveSmallYmm               000000018003f040     libvcruntime:memcpy.obj
 0005:00000064       MoveSmallYmmNT             000000018003f064     libvcruntime:memcpy.obj
 0005:00000088       MoveSmallXmm               000000018003f088     libvcruntime:memcpy.obj
 0005:000000b0       MsetTab                    000000018003f0b0     libvcruntime:memset.obj
 0006:00000220       $R000000                   0000000180040220     FiscalPrinter.res
 0006:00000bc8       $R0009A8                   0000000180040bc8     FiscalPrinter.res
 0006:00000cb0       $R000A90                   0000000180040cb0     FiscalPrinter.res
 0006:00000f18       $R000CF8                   0000000180040f18     FiscalPrinter.res
 0006:000014d0       $R0012B0                   00000001800414d0     FiscalPrinter.res
 0006:000098d8       $R0096B8                   00000001800498d8     FiscalPrinter.res
 0006:00009918       $R0096F8                   0000000180049918     FiscalPrinter.res
