 OPOSPINPad

 Timestamp is 5defaa21 (Tue Dec 10 23:22:25 2019)

 Preferred load address is 0000000180000000

 Start         Length     Name                   Class
 0001:00000000 000000c0H .text$di                CODE
 0001:000000c0 00020930H .text$mn                CODE
 0001:000209f0 00000020H .text$mn$00             CODE
 0001:00020a10 00000490H .text$x                 CODE
 0001:00020ea0 00000078H .text$yd                CODE
 0002:00000000 00000618H .idata$5                DATA
 0002:00000618 00000010H .00cfg                  DATA
 0002:00000628 00000008H .CRT$XCA                DATA
 0002:00000630 00000008H .CRT$XCL                DATA
 0002:00000638 00000020H .CRT$XCU                DATA
 0002:00000658 00000008H .CRT$XCZ                DATA
 0002:00000660 00000008H .CRT$XIA                DATA
 0002:00000668 00000020H .CRT$XIC                DATA
 0002:00000688 00000008H .CRT$XIZ                DATA
 0002:00000690 00000008H .CRT$XLA                DATA
 0002:00000698 00000008H .CRT$XLZ                DATA
 0002:000006a0 00000008H .CRT$XPA                DATA
 0002:000006a8 00000010H .CRT$XPX                DATA
 0002:000006b8 00000008H .CRT$XPXA               DATA
 0002:000006c0 00000008H .CRT$XPZ                DATA
 0002:000006c8 00000008H .CRT$XTA                DATA
 0002:000006d0 00000010H .CRT$XTZ                DATA
 0002:000006d8 00000000H .gfids$y                DATA
 0002:000006e0 0000a688H .rdata                  DATA
 0002:0000ad68 00000028H .rdata$T                DATA
 0002:0000ad90 00000274H .rdata$r                DATA
 0002:0000b004 00000404H .rdata$zzzdbg           DATA
 0002:0000b408 00000008H .rtc$IAA                DATA
 0002:0000b410 00000008H .rtc$IZZ                DATA
 0002:0000b418 00000008H .rtc$TAA                DATA
 0002:0000b420 00000008H .rtc$TZZ                DATA
 0002:0000b428 00000004H .tls                    DATA
 0002:0000b42c 00000004H .tls$                   DATA
 0002:0000b430 00000008H .tls$ZZZ                DATA
 0002:0000b438 00001660H .xdata                  DATA
 0002:0000ca98 00000150H .xdata$x                DATA
 0002:0000cbe8 00000008H ATL$__a                 DATA
 0002:0000cbf0 00000010H ATL$__z                 DATA
 0002:0000cc00 000000a8H .edata                  DATA
 0002:0000cca8 00000078H .idata$2                DATA
 0002:0000cd20 00000018H .idata$3                DATA
 0002:0000cd38 00000618H .idata$4                DATA
 0002:0000d350 00000c24H .idata$6                DATA
 0003:00000000 00000da8H .data                   DATA
 0003:00000da8 000000c8H .data$r                 DATA
 0003:00000e70 0000140cH .bss                    DATA
 0004:00000000 00001eb4H .pdata                  DATA
 0005:00000000 00000094H _RDATA                  DATA
 0006:00000000 00000220H .rsrc$01                DATA
 0006:00000220 00004ba8H .rsrc$02                DATA

  Address         Publics by Value              Rva+Base               Lib:Object

 0000:00000000       __guard_fids_count         0000000000000000     <absolute>
 0000:00000000       __guard_longjmp_count      0000000000000000     <absolute>
 0000:00000000       __guard_longjmp_table      0000000000000000     <absolute>
 0000:00000000       __hybrid_code_map          0000000000000000     <absolute>
 0000:00000000       __guard_iat_count          0000000000000000     <absolute>
 0000:00000000       __guard_iat_table          0000000000000000     <absolute>
 0000:00000000       __volatile_metadata        0000000000000000     <absolute>
 0000:00000000       __hybrid_code_map_count    0000000000000000     <absolute>
 0000:00000000       __enclave_config           0000000000000000     <absolute>
 0000:00000000       ___safe_se_handler_count   0000000000000000     <absolute>
 0000:00000000       __AbsoluteZero             0000000000000000     <absolute>
 0000:00000000       ___safe_se_handler_table   0000000000000000     <absolute>
 0000:00000000       __guard_fids_table         0000000000000000     <absolute>
 0000:00000000       __hybrid_auxiliary_iat     0000000000000000     <absolute>
 0000:00000000       __dynamic_value_reloc_table 0000000000000000     <absolute>
 0000:00000100       __guard_flags              0000000000000100     <absolute>
 0000:00000000       __ImageBase                0000000180000000     <linker-defined>
 0001:000000c0       ?DupWide@_CW@@AEAAXXZ      00000001800010c0 f   CWString.obj
 0001:000000e8       ?cw_dup@@YAXPEBDAEAHAEAPEA_W1@Z 00000001800010e8 f   CWString.obj
 0001:000001c8       ?cw_memcpy@@YAHPEA_WPEBDH@Z 00000001800011c8 f   CWString.obj
 0001:00000214       ?cw_strcpy@@YAHPEA_WPEBD@Z 0000000180001214 f   CWString.obj
 0001:00000228       ??0CAtlComModule@ATL@@QEAA@XZ 0000000180001228 f i OposVariant.obj
 0001:000002a8       ??0CAtlWinModule@ATL@@QEAA@XZ 00000001800012a8 f i OposVariant.obj
 0001:00000314       ??0OposDispParms@@QEAA@PEAVOposVariant@@H@Z 0000000180001314 f   OposVariant.obj
 0001:000003bc       ??1OposDispParms@@QEAA@XZ  00000001800013bc f   OposVariant.obj
 0001:000003d4       ??_Estringdispid@CComTypeInfoHolder@ATL@@QEAAPEAXI@Z 00000001800013d4 f i OposVariant.obj
 0001:00000478       ?AtlWinModuleTerm@ATL@@YAJPEAU_ATL_WIN_MODULE70@1@PEAUHINSTANCE__@@@Z 0000000180001478 f i OposVariant.obj
 0001:00000528       ?ChangeBSTR@OposVariant@@QEAAXPEAPEA_WAEAJ@Z 0000000180001528 f   OposVariant.obj
 0001:00000588       ?ChangeCURRENCY@OposVariant@@QEAAXPEATtagCY@@AEAJ@Z 0000000180001588 f   OposVariant.obj
 0001:000005e8       ?ChangeLONG@OposVariant@@QEAAXPEAJAEAJ@Z 00000001800015e8 f   OposVariant.obj
 0001:00000644       ?GetLONG@OposVariant@@QEAAJXZ 0000000180001644 f   OposVariant.obj
 0001:00000668       ?SetBSTR@OposVariant@@QEAAXPEA_WAEAJ@Z 0000000180001668 f   OposVariant.obj
 0001:000006a8       ?SetBSTR_Copy@OposVariant@@QEAAXPEA_WAEAJ@Z 00000001800016a8 f   OposVariant.obj
 0001:00000718       ?SetBSTR_InOutPtr@OposVariant@@QEAA_NPEAPEA_WAEAJ@Z 0000000180001718 f   OposVariant.obj
 0001:00000768       ?SetBSTR_OutPtr@OposVariant@@QEAA_NPEAPEA_WAEAJ@Z 0000000180001768 f   OposVariant.obj
 0001:00000784       ?SetCURRENCY@OposVariant@@QEAAXTtagCY@@@Z 0000000180001784 f   OposVariant.obj
 0001:000007b8       ?SetDispatch_Ptr@OposVariant@@QEAAXPEAUIDispatch@@AEAJ@Z 00000001800017b8 f   OposVariant.obj
 0001:00000810       ?SetLONG@OposVariant@@QEAAXJ@Z 0000000180001810 f   OposVariant.obj
 0001:00000840       ?SetLONG_Ptr@OposVariant@@QEAAXPEAJAEAJ@Z 0000000180001840 f   OposVariant.obj
 0001:0000088c       ?SetString@OposVariant@@QEAAXPEB_WAEAJ@Z 000000018000188c f   OposVariant.obj
 0001:000008f0       ?SetVARIANT_BOOL@OposVariant@@QEAAXF@Z 00000001800018f0 f   OposVariant.obj
 0001:00000928       ?Term@CAtlComModule@ATL@@QEAAXXZ 0000000180001928 f i OposVariant.obj
 0001:00000998       ?_AtlInitializeCriticalSectionEx@ATL@@YAHPEAU_RTL_CRITICAL_SECTION@@KK@Z 0000000180001998 f i OposVariant.obj
 0001:000009a0       ?_AtlRaiseException@ATL@@YAXKK@Z 00000001800019a0 f i OposVariant.obj
 0001:000009b0       ?GetWindowProc@?$CWindowImplBaseT@VCWindow@ATL@@V?$CWinTraits@$0FGAAAAAA@$0A@@2@@ATL@@UEAAP6A_JPEAUHWND__@@I_K_J@ZXZ 00000001800019b0 f i PINPad.obj
 0001:000009b8       ?StartWindowProc@?$CWindowImplBaseT@VCWindow@ATL@@V?$CWinTraits@$0FGAAAAAA@$0A@@2@@ATL@@SA_JPEAUHWND__@@I_K_J@Z 00000001800019b8 f i PINPad.obj
 0001:00000a7c       ?ObjectMain@CComObjectRootBase@ATL@@SAX_N@Z 0000000180001a7c f i PINPad.obj
 0001:00000a7c       ?OnFinalMessage@?$CWindowImplBaseT@VCWindow@ATL@@V?$CWinTraits@$0FGAAAAAA@$0A@@2@@ATL@@UEAAXPEAUHWND__@@@Z 0000000180001a7c f i PINPad.obj
 0001:00000a7c       _guard_check_icall_nop     0000000180001a7c f i LIBCMT:guard_support.obj
 0001:00000a80       ?GetTypeInfoCount@?$IDispatchImpl@UIOPOSPINPad@@$1?IID_IOPOSPINPad@@3U_GUID@@B$1?LIBID_OposPINPad_CCO@@3U3@B$00$0A@VCComTypeInfoHolder@ATL@@@ATL@@UEAAJPEAI@Z 0000000180001a80 f i PINPad.obj
 0001:00000a94       ?GetTypeInfo@?$IDispatchImpl@UIOPOSPINPad@@$1?IID_IOPOSPINPad@@3U_GUID@@B$1?LIBID_OposPINPad_CCO@@3U3@B$00$0A@VCComTypeInfoHolder@ATL@@@ATL@@UEAAJIKPEAPEAUITypeInfo@@@Z 0000000180001a94 f i PINPad.obj
 0001:00000af8       ?GetIDsOfNames@?$IDispatchImpl@UIOPOSPINPad@@$1?IID_IOPOSPINPad@@3U_GUID@@B$1?LIBID_OposPINPad_CCO@@3U3@B$00$0A@VCComTypeInfoHolder@ATL@@@ATL@@UEAAJAEBU_GUID@@PEAPEA_WIKPEAJ@Z 0000000180001af8 f i PINPad.obj
 0001:00000b04       ?Invoke@?$IDispatchImpl@UIOPOSPINPad@@$1?IID_IOPOSPINPad@@3U_GUID@@B$1?LIBID_OposPINPad_CCO@@3U3@B$00$0A@VCComTypeInfoHolder@ATL@@@ATL@@UEAAJJAEBU_GUID@@KGPEAUtagDISPPARAMS@@PEAUtagVARIANT@@PEAUtagEXCEPINFO@@PEAI@Z 0000000180001b04 f i PINPad.obj
 0001:00000b94       ?CreateControlWindow@?$CComControl@VCOPOSPINPad@@V?$CWindowImpl@VCOPOSPINPad@@VCWindow@ATL@@V?$CWinTraits@$0FGAAAAAA@$0A@@3@@ATL@@@ATL@@UEAAPEAUHWND__@@PEAU3@AEAUtagRECT@@@Z 0000000180001b94 f i PINPad.obj
 0001:00000bcc       ?ControlQueryInterface@?$CComControl@VCOPOSPINPad@@V?$CWindowImpl@VCOPOSPINPad@@VCWindow@ATL@@V?$CWinTraits@$0FGAAAAAA@$0A@@3@@ATL@@@ATL@@UEAAJAEBU_GUID@@PEAPEAX@Z 0000000180001bcc f i PINPad.obj
 0001:00000be0       ?GetUserClassID@?$IOleObjectImpl@VCOPOSPINPad@@@ATL@@UEAAJPEAU_GUID@@@Z 0000000180001be0 f i PINPad.obj
 0001:00000be0       ?GetClassID@?$IPersistStreamInitImpl@VCOPOSPINPad@@@ATL@@UEAAJPEAU_GUID@@@Z 0000000180001be0 f i PINPad.obj
 0001:00000be0       ?GetClassID@?$IPersistStorageImpl@VCOPOSPINPad@@@ATL@@UEAAJPEAU_GUID@@@Z 0000000180001be0 f i PINPad.obj
 0001:00000bfc       ?IsDirty@?$IPersistStreamInitImpl@VCOPOSPINPad@@@ATL@@UEAAJXZ 0000000180001bfc f i PINPad.obj
 0001:00000c18       ?Load@?$IPersistStreamInitImpl@VCOPOSPINPad@@@ATL@@UEAAJPEAUIStream@@@Z 0000000180001c18 f i PINPad.obj
 0001:00000c30       ?Save@?$IPersistStreamInitImpl@VCOPOSPINPad@@@ATL@@UEAAJPEAUIStream@@H@Z 0000000180001c30 f i PINPad.obj
 0001:00000c48       ?GetSizeMax@?$IPersistStreamInitImpl@VCOPOSPINPad@@@ATL@@UEAAJPEAT_ULARGE_INTEGER@@@Z 0000000180001c48 f i PINPad.obj
 0001:00000e74       ?InitNew@?$IPersistStreamInitImpl@VCOPOSPINPad@@@ATL@@UEAAJXZ 0000000180001e74 f i PINPad.obj
 0001:00000e8c       ?ContextSensitiveHelp@?$IOleInPlaceObjectWindowlessImpl@VCOPOSPINPad@@@ATL@@UEAAJH@Z 0000000180001e8c f i PINPad.obj
 0001:00000e8c       ?GetDropTarget@?$IOleInPlaceObjectWindowlessImpl@VCOPOSPINPad@@@ATL@@UEAAJPEAPEAUIDropTarget@@@Z 0000000180001e8c f i PINPad.obj
 0001:00000e8c       ?GetCanonicalFormatEtc@?$IDataObjectImpl@VCOPOSPINPad@@@ATL@@UEAAJPEAUtagFORMATETC@@0@Z 0000000180001e8c f i PINPad.obj
 0001:00000e8c       ?Freeze@?$IViewObjectExImpl@VCOPOSPINPad@@@ATL@@UEAAJKJPEAXPEAK@Z 0000000180001e8c f i PINPad.obj
 0001:00000e8c       ?ContextSensitiveHelp@?$IOleInPlaceActiveObjectImpl@VCOPOSPINPad@@@ATL@@UEAAJH@Z 0000000180001e8c f i PINPad.obj
 0001:00000e8c       ?GetDataHere@?$IDataObjectImpl@VCOPOSPINPad@@@ATL@@UEAAJPEAUtagFORMATETC@@PEAUtagSTGMEDIUM@@@Z 0000000180001e8c f i PINPad.obj
 0001:00000e8c       ?OnMnemonic@?$IOleControlImpl@VCOPOSPINPad@@@ATL@@UEAAJPEAUtagMSG@@@Z 0000000180001e8c f i PINPad.obj
 0001:00000e8c       ?SOOutputCompleteDummy@COPOSPINPad@@MEAAJJ@Z 0000000180001e8c f i PINPad.obj
 0001:00000e8c       ?GetRect@?$IViewObjectExImpl@VCOPOSPINPad@@@ATL@@UEAAJKPEAU_RECTL@@@Z 0000000180001e8c f i PINPad.obj
 0001:00000e8c       ?QueryGetData@?$IDataObjectImpl@VCOPOSPINPad@@@ATL@@UEAAJPEAUtagFORMATETC@@@Z 0000000180001e8c f i PINPad.obj
 0001:00000e8c       ?ReactivateAndUndo@?$IOleInPlaceObjectWindowlessImpl@VCOPOSPINPad@@@ATL@@UEAAJXZ 0000000180001e8c f i PINPad.obj
 0001:00000e8c       ?Unfreeze@?$IViewObjectExImpl@VCOPOSPINPad@@@ATL@@UEAAJK@Z 0000000180001e8c f i PINPad.obj
 0001:00000e8c       ?SetMoniker@?$IOleObjectImpl@VCOPOSPINPad@@@ATL@@UEAAJKPEAUIMoniker@@@Z 0000000180001e8c f i PINPad.obj
 0001:00000e8c       ?QueryInterface@CRegObject@ATL@@UEAAJAEBU_GUID@@PEAPEAX@Z 0000000180001e8c f i PINPad.obj
 0001:00000e8c       ?InitFromData@?$IOleObjectImpl@VCOPOSPINPad@@@ATL@@UEAAJPEAUIDataObject@@HK@Z 0000000180001e8c f i PINPad.obj
 0001:00000e8c       ?GetControlInfo@?$IOleControlImpl@VCOPOSPINPad@@@ATL@@UEAAJPEAUtagCONTROLINFO@@@Z 0000000180001e8c f i PINPad.obj
 0001:00000e8c       ?SetColorScheme@?$IOleObjectImpl@VCOPOSPINPad@@@ATL@@UEAAJPEAUtagLOGPALETTE@@@Z 0000000180001e8c f i PINPad.obj
 0001:00000e8c       ?GetClipboardData@?$IOleObjectImpl@VCOPOSPINPad@@@ATL@@UEAAJKPEAPEAUIDataObject@@@Z 0000000180001e8c f i PINPad.obj
 0001:00000e8c       ?SetData@?$IDataObjectImpl@VCOPOSPINPad@@@ATL@@UEAAJPEAUtagFORMATETC@@PEAUtagSTGMEDIUM@@H@Z 0000000180001e8c f i PINPad.obj
 0001:00000e8c       ?EnumFormatEtc@?$IDataObjectImpl@VCOPOSPINPad@@@ATL@@UEAAJKPEAPEAUIEnumFORMATETC@@@Z 0000000180001e8c f i PINPad.obj
 0001:00000e8c       ?GetColorSet@?$IViewObjectExImpl@VCOPOSPINPad@@@ATL@@UEAAJKJPEAXPEAUtagDVTARGETDEVICE@@PEAUHDC__@@PEAPEAUtagLOGPALETTE@@@Z 0000000180001e8c f i PINPad.obj
 0001:00000e8c       ?GetMoniker@?$IOleObjectImpl@VCOPOSPINPad@@@ATL@@UEAAJKKPEAPEAUIMoniker@@@Z 0000000180001e8c f i PINPad.obj
 0001:00000e94       ?GetObjectDescription@?$CComCoClass@VCOPOSPINPad@@$1?CLSID_OPOSPINPad@@3U_GUID@@B@ATL@@SAPEB_WXZ 0000000180001e94 f i PINPad.obj
 0001:00000e94       ?SaveCompleted@?$IPersistStorageImpl@VCOPOSPINPad@@@ATL@@UEAAJPEAUIStorage@@@Z 0000000180001e94 f i PINPad.obj
 0001:00000e94       ?GetCategoryMap@CComObjectRootBase@ATL@@SAPEBU_ATL_CATMAP_ENTRY@2@XZ 0000000180001e94 f i PINPad.obj
 0001:00000e94       ?OnFrameWindowActivate@?$IOleInPlaceActiveObjectImpl@VCOPOSPINPad@@@ATL@@UEAAJH@Z 0000000180001e94 f i PINPad.obj
 0001:00000e94       ?HandsOffStorage@?$IPersistStorageImpl@VCOPOSPINPad@@@ATL@@UEAAJXZ 0000000180001e94 f i PINPad.obj
 0001:00000e94       ?OnAmbientPropertyChange@?$IOleControlImpl@VCOPOSPINPad@@@ATL@@UEAAJJ@Z 0000000180001e94 f i PINPad.obj
 0001:00000e94       ?SetHostNames@?$IOleObjectImpl@VCOPOSPINPad@@@ATL@@UEAAJPEB_W0@Z 0000000180001e94 f i PINPad.obj
 0001:00000e94       ?EnableModeless@?$IOleInPlaceActiveObjectImpl@VCOPOSPINPad@@@ATL@@UEAAJH@Z 0000000180001e94 f i PINPad.obj
 0001:00000e94       ?ResizeBorder@?$IOleInPlaceActiveObjectImpl@VCOPOSPINPad@@@ATL@@UEAAJPEBUtagRECT@@PEAUIOleInPlaceUIWindow@@H@Z 0000000180001e94 f i PINPad.obj
 0001:00000e94       ?IsUpToDate@?$IOleObjectImpl@VCOPOSPINPad@@@ATL@@UEAAJXZ 0000000180001e94 f i PINPad.obj
 0001:00000e94       ?Release@CRegObject@ATL@@UEAAKXZ 0000000180001e94 f i PINPad.obj
 0001:00000e94       ?Update@?$IOleObjectImpl@VCOPOSPINPad@@@ATL@@UEAAJXZ 0000000180001e94 f i PINPad.obj
 0001:00000e98       ?SetClientSite@?$IOleObjectImpl@VCOPOSPINPad@@@ATL@@UEAAJPEAUIOleClientSite@@@Z 0000000180001e98 f i PINPad.obj
 0001:00000eb4       ?GetClientSite@?$IOleObjectImpl@VCOPOSPINPad@@@ATL@@UEAAJPEAPEAUIOleClientSite@@@Z 0000000180001eb4 f i PINPad.obj
 0001:00000efc       ?Close@?$IOleObjectImpl@VCOPOSPINPad@@@ATL@@UEAAJK@Z 0000000180001efc f i PINPad.obj
 0001:00000f18       ?DoVerb@?$IOleObjectImpl@VCOPOSPINPad@@@ATL@@UEAAJJPEAUtagMSG@@PEAUIOleClientSite@@JPEAUHWND__@@PEBUtagRECT@@@Z 0000000180001f18 f i PINPad.obj
 0001:000010bc       ?EnumVerbs@?$IOleObjectImpl@VCOPOSPINPad@@@ATL@@UEAAJPEAPEAUIEnumOLEVERB@@@Z 00000001800020bc f i PINPad.obj
 0001:000010d8       ?GetUserType@?$IOleObjectImpl@VCOPOSPINPad@@@ATL@@UEAAJKPEAPEA_W@Z 00000001800020d8 f i PINPad.obj
 0001:000010e8       ?SetExtent@?$IOleObjectImpl@VCOPOSPINPad@@@ATL@@UEAAJKPEAUtagSIZE@@@Z 00000001800020e8 f i PINPad.obj
 0001:00001104       ?GetExtent@?$IOleObjectImpl@VCOPOSPINPad@@@ATL@@UEAAJKPEAUtagSIZE@@@Z 0000000180002104 f i PINPad.obj
 0001:00001134       ?Advise@?$IOleObjectImpl@VCOPOSPINPad@@@ATL@@UEAAJPEAUIAdviseSink@@PEAK@Z 0000000180002134 f i PINPad.obj
 0001:00001190       ?Unadvise@?$IOleObjectImpl@VCOPOSPINPad@@@ATL@@UEAAJK@Z 0000000180002190 f i PINPad.obj
 0001:000011c8       ?EnumAdvise@?$IOleObjectImpl@VCOPOSPINPad@@@ATL@@UEAAJPEAPEAUIEnumSTATDATA@@@Z 00000001800021c8 f i PINPad.obj
 0001:00001210       ?GetMiscStatus@?$IOleObjectImpl@VCOPOSPINPad@@@ATL@@UEAAJKPEAK@Z 0000000180002210 f i PINPad.obj
 0001:00001220       ?GetWindow@?$IOleInPlaceActiveObjectImpl@VCOPOSPINPad@@@ATL@@UEAAJPEAPEAUHWND__@@@Z 0000000180002220 f i PINPad.obj
 0001:00001274       ?TranslateAcceleratorW@?$IOleInPlaceActiveObjectImpl@VCOPOSPINPad@@@ATL@@UEAAJPEAUtagMSG@@@Z 0000000180002274 f i PINPad.obj
 0001:00001368       ?OnDocWindowActivate@?$IOleInPlaceActiveObjectImpl@VCOPOSPINPad@@@ATL@@UEAAJH@Z 0000000180002368 f i PINPad.obj
 0001:00001394       ?Draw@?$IViewObjectExImpl@VCOPOSPINPad@@@ATL@@UEAAJKJPEAXPEAUtagDVTARGETDEVICE@@PEAUHDC__@@2PEBU_RECTL@@3P6AH_K@Z4@Z 0000000180002394 f i PINPad.obj
 0001:000013f8       ?SetAdvise@?$IViewObjectExImpl@VCOPOSPINPad@@@ATL@@UEAAJKKPEAUIAdviseSink@@@Z 00000001800023f8 f i PINPad.obj
 0001:0000144c       ?GetAdvise@?$IViewObjectExImpl@VCOPOSPINPad@@@ATL@@UEAAJPEAK0PEAPEAUIAdviseSink@@@Z 000000018000244c f i PINPad.obj
 0001:00001488       ?GetExtent@?$IViewObjectExImpl@VCOPOSPINPad@@@ATL@@UEAAJKJPEAUtagDVTARGETDEVICE@@PEAUtagSIZE@@@Z 0000000180002488 f i PINPad.obj
 0001:000014b8       ?GetViewStatus@?$IViewObjectExImpl@VCOPOSPINPad@@@ATL@@UEAAJPEAK@Z 00000001800024b8 f i PINPad.obj
 0001:000014cc       ?QueryHitPoint@?$IViewObjectExImpl@VCOPOSPINPad@@@ATL@@UEAAJKPEBUtagRECT@@UtagPOINT@@JPEAK@Z 00000001800024cc f i PINPad.obj
 0001:00001510       ?QueryHitRect@?$IViewObjectExImpl@VCOPOSPINPad@@@ATL@@UEAAJKPEBUtagRECT@@0JPEAK@Z 0000000180002510 f i PINPad.obj
 0001:00001578       ?GetNaturalExtent@?$IViewObjectExImpl@VCOPOSPINPad@@@ATL@@UEAAJKJPEAUtagDVTARGETDEVICE@@PEAUHDC__@@PEAUtagExtentInfo@@PEAUtagSIZE@@@Z 0000000180002578 f i PINPad.obj
 0001:000015c0       ?GetWindow@?$IOleInPlaceObjectWindowlessImpl@VCOPOSPINPad@@@ATL@@UEAAJPEAPEAUHWND__@@@Z 00000001800025c0 f i PINPad.obj
 0001:00001614       ?InPlaceDeactivate@?$IOleInPlaceObjectWindowlessImpl@VCOPOSPINPad@@@ATL@@UEAAJXZ 0000000180002614 f i PINPad.obj
 0001:00001630       ?UIDeactivate@?$IOleInPlaceObjectWindowlessImpl@VCOPOSPINPad@@@ATL@@UEAAJXZ 0000000180002630 f i PINPad.obj
 0001:0000164c       ?SetObjectRects@?$IOleInPlaceObjectWindowlessImpl@VCOPOSPINPad@@@ATL@@UEAAJPEBUtagRECT@@0@Z 000000018000264c f i PINPad.obj
 0001:00001668       ?OnWindowMessage@?$IOleInPlaceObjectWindowlessImpl@VCOPOSPINPad@@@ATL@@UEAAJI_K_JPEA_J@Z 0000000180002668 f i PINPad.obj
 0001:00001730       ?EnumConnectionPoints@?$IConnectionPointContainerImpl@VCOPOSPINPad@@@ATL@@UEAAJPEAPEAUIEnumConnectionPoints@@@Z 0000000180002730 f i PINPad.obj
 0001:00001974       ?FindConnectionPoint@?$IConnectionPointContainerImpl@VCOPOSPINPad@@@ATL@@UEAAJAEBU_GUID@@PEAPEAUIConnectionPoint@@@Z 0000000180002974 f i PINPad.obj
 0001:00001a44       ?IsDirty@?$IPersistStorageImpl@VCOPOSPINPad@@@ATL@@UEAAJXZ 0000000180002a44 f i PINPad.obj
 0001:00001a88       ?InitNew@?$IPersistStorageImpl@VCOPOSPINPad@@@ATL@@UEAAJPEAUIStorage@@@Z 0000000180002a88 f i PINPad.obj
 0001:00001acc       ?Load@?$IPersistStorageImpl@VCOPOSPINPad@@@ATL@@UEAAJPEAUIStorage@@@Z 0000000180002acc f i PINPad.obj
 0001:00001b6c       ?Save@?$IPersistStorageImpl@VCOPOSPINPad@@@ATL@@UEAAJPEAUIStorage@@H@Z 0000000180002b6c f i PINPad.obj
 0001:00001c1c       ?GetPages@?$ISpecifyPropertyPagesImpl@VCOPOSPINPad@@@ATL@@UEAAJPEAUtagCAUUID@@@Z 0000000180002c1c f i PINPad.obj
 0001:00001c28       ?QuickActivate@?$IQuickActivateImpl@VCOPOSPINPad@@@ATL@@UEAAJPEAUtagQACONTAINER@@PEAUtagQACONTROL@@@Z 0000000180002c28 f i PINPad.obj
 0001:00001c44       ?SetContentExtent@?$IQuickActivateImpl@VCOPOSPINPad@@@ATL@@UEAAJPEAUtagSIZE@@@Z 0000000180002c44 f i PINPad.obj
 0001:00001c78       ?GetContentExtent@?$IQuickActivateImpl@VCOPOSPINPad@@@ATL@@UEAAJPEAUtagSIZE@@@Z 0000000180002c78 f i PINPad.obj
 0001:00001cb0       ?GetData@?$IDataObjectImpl@VCOPOSPINPad@@@ATL@@UEAAJPEAUtagFORMATETC@@PEAUtagSTGMEDIUM@@@Z 0000000180002cb0 f i PINPad.obj
 0001:00001ccc       ?DAdvise@?$IDataObjectImpl@VCOPOSPINPad@@@ATL@@UEAAJPEAUtagFORMATETC@@KPEAUIAdviseSink@@PEAK@Z 0000000180002ccc f i PINPad.obj
 0001:00001d54       ?DUnadvise@?$IDataObjectImpl@VCOPOSPINPad@@@ATL@@UEAAJK@Z 0000000180002d54 f i PINPad.obj
 0001:00001d80       ?EnumDAdvise@?$IDataObjectImpl@VCOPOSPINPad@@@ATL@@UEAAJPEAPEAUIEnumSTATDATA@@@Z 0000000180002d80 f i PINPad.obj
 0001:00001dbc       ?GetClassInfoW@?$IProvideClassInfo2Impl@$1?CLSID_OPOSPINPad@@3U_GUID@@B$1?DIID__IOPOSPINPadEvents@@3U2@B$1?LIBID_OposPINPad_CCO@@3U2@B$00$0A@VCComTypeInfoHolder@ATL@@@ATL@@UEAAJPEAPEAUITypeInfo@@@Z 0000000180002dbc f i PINPad.obj
 0001:00001e14       ?GetGUID@?$IProvideClassInfo2Impl@$1?CLSID_OPOSPINPad@@3U_GUID@@B$1?DIID__IOPOSPINPadEvents@@3U2@B$1?LIBID_OposPINPad_CCO@@3U2@B$00$0A@VCComTypeInfoHolder@ATL@@@ATL@@UEAAJKPEAU_GUID@@@Z 0000000180002e14 f i PINPad.obj
 0001:00001e48       ?AddRef@CRegObject@ATL@@UEAAKXZ 0000000180002e48 f i PINPad.obj
 0001:00001e48       ?FAccessAllowed@?$IObjectSafetyImpl@VCOPOSPINPad@@$02@ATL@@MEAAHXZ 0000000180002e48 f i PINPad.obj
 0001:00001e48       _get_startup_argv_mode     0000000180002e48 f i LIBCMT:argv_mode.obj
 0001:00001e50       ?GetInterfaceSafetyOptions@?$IObjectSafetyImpl@VCOPOSPINPad@@$02@ATL@@UEAAJAEBU_GUID@@PEAK1@Z 0000000180002e50 f i PINPad.obj
 0001:00001ee4       ?SetInterfaceSafetyOptions@?$IObjectSafetyImpl@VCOPOSPINPad@@$02@ATL@@UEAAJAEBU_GUID@@KK@Z 0000000180002ee4 f i PINPad.obj
 0001:00001f88       ?_LocCPQueryInterface@?$IConnectionPointImpl@VCOPOSPINPad@@$1?IID_IPropertyNotifySink@@3U_GUID@@BVCComDynamicUnkArray@ATL@@@ATL@@UEAAJAEBU_GUID@@PEAPEAX@Z 0000000180002f88 f i PINPad.obj
 0001:00001f88       ?_LocCPQueryInterface@?$IConnectionPointImpl@VCOPOSPINPad@@$1?DIID__IOPOSPINPadEvents@@3U_GUID@@BVCComDynamicUnkArray@ATL@@@ATL@@UEAAJAEBU_GUID@@PEAPEAX@Z 0000000180002f88 f i PINPad.obj
 0001:00001ffc       ?GetConnectionInterface@?$IConnectionPointImpl@VCOPOSPINPad@@$1?IID_IPropertyNotifySink@@3U_GUID@@BVCComDynamicUnkArray@ATL@@@ATL@@UEAAJPEAU_GUID@@@Z 0000000180002ffc f i PINPad.obj
 0001:00002018       ?GetConnectionPointContainer@?$IConnectionPointImpl@VCOPOSPINPad@@$1?IID_IPropertyNotifySink@@3U_GUID@@BVCComDynamicUnkArray@ATL@@@ATL@@UEAAJPEAPEAUIConnectionPointContainer@@@Z 0000000180003018 f i PINPad.obj
 0001:00002038       ?Advise@?$IConnectionPointImpl@VCOPOSPINPad@@$1?DIID__IOPOSPINPadEvents@@3U_GUID@@BVCComDynamicUnkArray@ATL@@@ATL@@UEAAJPEAUIUnknown@@PEAK@Z 0000000180003038 f i PINPad.obj
 0001:00002038       ?Advise@?$IConnectionPointImpl@VCOPOSPINPad@@$1?IID_IPropertyNotifySink@@3U_GUID@@BVCComDynamicUnkArray@ATL@@@ATL@@UEAAJPEAUIUnknown@@PEAK@Z 0000000180003038 f i PINPad.obj
 0001:000020f8       ?Unadvise@?$IConnectionPointImpl@VCOPOSPINPad@@$1?DIID__IOPOSPINPadEvents@@3U_GUID@@BVCComDynamicUnkArray@ATL@@@ATL@@UEAAJK@Z 00000001800030f8 f i PINPad.obj
 0001:000020f8       ?Unadvise@?$IConnectionPointImpl@VCOPOSPINPad@@$1?IID_IPropertyNotifySink@@3U_GUID@@BVCComDynamicUnkArray@ATL@@@ATL@@UEAAJK@Z 00000001800030f8 f i PINPad.obj
 0001:00002174       ?EnumConnections@?$IConnectionPointImpl@VCOPOSPINPad@@$1?DIID__IOPOSPINPadEvents@@3U_GUID@@BVCComDynamicUnkArray@ATL@@@ATL@@UEAAJPEAPEAUIEnumConnections@@@Z 0000000180003174 f i PINPad.obj
 0001:00002174       ?EnumConnections@?$IConnectionPointImpl@VCOPOSPINPad@@$1?IID_IPropertyNotifySink@@3U_GUID@@BVCComDynamicUnkArray@ATL@@@ATL@@UEAAJPEAPEAUIEnumConnections@@@Z 0000000180003174 f i PINPad.obj
 0001:0000232c       ?GetConnectionInterface@?$IConnectionPointImpl@VCOPOSPINPad@@$1?DIID__IOPOSPINPadEvents@@3U_GUID@@BVCComDynamicUnkArray@ATL@@@ATL@@UEAAJPEAU_GUID@@@Z 000000018000332c f i PINPad.obj
 0001:00002348       ?GetConnectionPointContainer@?$IConnectionPointImpl@VCOPOSPINPad@@$1?DIID__IOPOSPINPadEvents@@3U_GUID@@BVCComDynamicUnkArray@ATL@@@ATL@@UEAAJPEAPEAUIConnectionPointContainer@@@Z 0000000180003348 f i PINPad.obj
 0001:00002368       ?UpdateRegistry@COPOSPINPad@@SAJH@Z 0000000180003368 f i PINPad.obj
 0001:00002380       ?ProcessWindowMessage@COPOSPINPad@@UEAAHPEAUHWND__@@I_K_JAEA_JK@Z 0000000180003380 f i PINPad.obj
 0001:00002408       ?SOData@COPOSPINPad@@MEAAJJ@Z 0000000180003408 f i PINPad.obj
 0001:00002458       ?SODirectIO@COPOSPINPad@@MEAAJJPEAJPEAPEA_W@Z 0000000180003458 f i PINPad.obj
 0001:000024d0       ?SOError@COPOSPINPad@@MEAAJJJJPEAJ@Z 00000001800034d0 f i PINPad.obj
 0001:00002558       ?SOStatusUpdate@COPOSPINPad@@MEAAJJ@Z 0000000180003558 f i PINPad.obj
 0001:000025a8       ?Lock@CAtlModule@ATL@@UEAAJXZ 00000001800035a8 f i PINPad.obj
 0001:000025b8       ?Unlock@CAtlModule@ATL@@UEAAJXZ 00000001800035b8 f i PINPad.obj
 0001:000025c4       ?GetLockCount@CAtlModule@ATL@@UEAAJXZ 00000001800035c4 f i PINPad.obj
 0001:000025c8       ?GetGITPtr@CAtlModule@ATL@@UEAAJPEAPEAUIGlobalInterfaceTable@@@Z 00000001800035c8 f i PINPad.obj
 0001:00002638       ?CreateInstance@?$CComCreator@V?$CComObjectCached@VCComClassFactory@ATL@@@ATL@@@ATL@@SAJPEAXAEBU_GUID@@PEAPEAX@Z 0000000180003638 f i PINPad.obj
 0001:00002764       ?CreateInstance@?$CComCreator2@V?$CComCreator@V?$CComObject@VCOPOSPINPad@@@ATL@@@ATL@@V?$CComCreator@V?$CComAggObject@VCOPOSPINPad@@@ATL@@@2@@ATL@@SAJPEAXAEBU_GUID@@PEAPEAX@Z 0000000180003764 f i PINPad.obj
 0001:00002774       ?AddCommonRGSReplacements@?$CAtlModuleT@VCComModule@ATL@@@ATL@@UEAAJPEAUIRegistrarBase@@@Z 0000000180003774 f i PINPad.obj
 0001:0000278c       ?AddRef@?$CComObjectCached@VCComClassFactory@ATL@@@ATL@@UEAAKXZ 000000018000378c f i PINPad.obj
 0001:000027b8       ?Release@?$CComObjectCached@VCComClassFactory@ATL@@@ATL@@UEAAKXZ 00000001800037b8 f i PINPad.obj
 0001:000027f8       ?QueryInterface@?$CComObjectCached@VCComClassFactory@ATL@@@ATL@@UEAAJAEBU_GUID@@PEAPEAX@Z 00000001800037f8 f i PINPad.obj
 0001:0000280c       ??_E?$CComObjectCached@VCComClassFactory@ATL@@@ATL@@UEAAPEAXI@Z 000000018000380c f i PINPad.obj
 0001:0000280c       ??_G?$CComObjectCached@VCComClassFactory@ATL@@@ATL@@UEAAPEAXI@Z 000000018000380c f i PINPad.obj
 0001:00002864       ?UpdateRegistryFromResourceD@CComModule@ATL@@UEAAJIHPEAU_ATL_REGMAP_ENTRY@2@@Z 0000000180003864 f i PINPad.obj
 0001:00002864       ?UpdateRegistryFromResourceD@CComModule@ATL@@UEAAJPEB_WHPEAU_ATL_REGMAP_ENTRY@2@@Z 0000000180003864 f i PINPad.obj
 0001:0000286c       ?UpdateRegistryFromResource@CComModule@ATL@@UEAAJPEB_WHPEAU_ATL_REGMAP_ENTRY@2@@Z 000000018000386c f i PINPad.obj
 0001:00002874       ?UpdateRegistryFromResource@CComModule@ATL@@UEAAJIHPEAU_ATL_REGMAP_ENTRY@2@@Z 0000000180003874 f i PINPad.obj
 0001:0000287c       ??_ECComModule@ATL@@UEAAPEAXI@Z 000000018000387c f i PINPad.obj
 0001:0000287c       ??_GCComModule@ATL@@UEAAPEAXI@Z 000000018000387c f i PINPad.obj
 0001:000028bc       ?Next@?$CComEnumImpl@UIEnumConnectionPoints@@$1?_GUID_b196b285_bab4_101a_b69c_00aa00341d07@@3U__s_GUID@@BPEAUIConnectionPoint@@V?$_CopyInterface@UIConnectionPoint@@@ATL@@@ATL@@UEAAJKPEAPEAUIConnectionPoint@@PEAK@Z 00000001800038bc f i PINPad.obj
 0001:00002988       ?Skip@?$CComEnumImpl@UIEnumConnectionPoints@@$1?_GUID_b196b285_bab4_101a_b69c_00aa00341d07@@3U__s_GUID@@BPEAUIConnectionPoint@@V?$_CopyInterface@UIConnectionPoint@@@ATL@@@ATL@@UEAAJK@Z 0000000180003988 f i PINPad.obj
 0001:000029b4       ?Reset@?$CComEnumImpl@UIEnumConnections@@$1?_GUID_b196b287_bab4_101a_b69c_00aa00341d07@@3U__s_GUID@@BUtagCONNECTDATA@@V?$_Copy@UtagCONNECTDATA@@@ATL@@@ATL@@UEAAJXZ 00000001800039b4 f i PINPad.obj
 0001:000029b4       ?Reset@?$CComEnumImpl@UIEnumConnectionPoints@@$1?_GUID_b196b285_bab4_101a_b69c_00aa00341d07@@3U__s_GUID@@BPEAUIConnectionPoint@@V?$_CopyInterface@UIConnectionPoint@@@ATL@@@ATL@@UEAAJXZ 00000001800039b4 f i PINPad.obj
 0001:000029c0       ?Clone@?$CComEnumImpl@UIEnumConnectionPoints@@$1?_GUID_b196b285_bab4_101a_b69c_00aa00341d07@@3U__s_GUID@@BPEAUIConnectionPoint@@V?$_CopyInterface@UIConnectionPoint@@@ATL@@@ATL@@UEAAJPEAPEAUIEnumConnectionPoints@@@Z 00000001800039c0 f i PINPad.obj
 0001:00002aec       ?AddRef@?$CComObject@V?$CComEnum@UIEnumConnectionPoints@@$1?_GUID_b196b285_bab4_101a_b69c_00aa00341d07@@3U__s_GUID@@BPEAUIConnectionPoint@@V?$_CopyInterface@UIConnectionPoint@@@ATL@@VCComSingleThreadModel@6@@ATL@@@ATL@@UEAAKXZ 0000000180003aec f i PINPad.obj
 0001:00002aec       ?AddRef@?$CComObject@V?$CComEnum@UIEnumConnections@@$1?_GUID_b196b287_bab4_101a_b69c_00aa00341d07@@3U__s_GUID@@BUtagCONNECTDATA@@V?$_Copy@UtagCONNECTDATA@@@ATL@@VCComSingleThreadModel@6@@ATL@@@ATL@@UEAAKXZ 0000000180003aec f i PINPad.obj
 0001:00002af8       ?Release@?$CComObject@V?$CComEnum@UIEnumConnections@@$1?_GUID_b196b287_bab4_101a_b69c_00aa00341d07@@3U__s_GUID@@BUtagCONNECTDATA@@V?$_Copy@UtagCONNECTDATA@@@ATL@@VCComSingleThreadModel@6@@ATL@@@ATL@@UEAAKXZ 0000000180003af8 f i PINPad.obj
 0001:00002af8       ?Release@?$CComObject@V?$CComEnum@UIEnumConnectionPoints@@$1?_GUID_b196b285_bab4_101a_b69c_00aa00341d07@@3U__s_GUID@@BPEAUIConnectionPoint@@V?$_CopyInterface@UIConnectionPoint@@@ATL@@VCComSingleThreadModel@6@@ATL@@@ATL@@UEAAKXZ 0000000180003af8 f i PINPad.obj
 0001:00002b4c       ?QueryInterface@?$CComObject@V?$CComEnum@UIEnumConnectionPoints@@$1?_GUID_b196b285_bab4_101a_b69c_00aa00341d07@@3U__s_GUID@@BPEAUIConnectionPoint@@V?$_CopyInterface@UIConnectionPoint@@@ATL@@VCComSingleThreadModel@6@@ATL@@@ATL@@UEAAJAEBU_GUID@@PEAPEAX@Z 0000000180003b4c f i PINPad.obj
 0001:00002b60       ??_E?$CComObject@V?$CComEnum@UIEnumConnectionPoints@@$1?_GUID_b196b285_bab4_101a_b69c_00aa00341d07@@3U__s_GUID@@BPEAUIConnectionPoint@@V?$_CopyInterface@UIConnectionPoint@@@ATL@@VCComSingleThreadModel@6@@ATL@@@ATL@@UEAAPEAXI@Z 0000000180003b60 f i PINPad.obj
 0001:00002b60       ??_G?$CComObject@V?$CComEnum@UIEnumConnectionPoints@@$1?_GUID_b196b285_bab4_101a_b69c_00aa00341d07@@3U__s_GUID@@BPEAUIConnectionPoint@@V?$_CopyInterface@UIConnectionPoint@@@ATL@@VCComSingleThreadModel@6@@ATL@@@ATL@@UEAAPEAXI@Z 0000000180003b60 f i PINPad.obj
 0001:00002bb8       ?AddReplacement@CRegObject@ATL@@UEAAJPEB_W0@Z 0000000180003bb8 f i PINPad.obj
 0001:00002be8       ?ClearReplacements@CRegObject@ATL@@UEAAJXZ 0000000180003be8 f i PINPad.obj
 0001:00002bf4       ??_GCRegObject@ATL@@UEAAPEAXI@Z 0000000180003bf4 f i PINPad.obj
 0001:00002bf4       ??_ECRegObject@ATL@@UEAAPEAXI@Z 0000000180003bf4 f i PINPad.obj
 0001:00002c74       ?AddRef@?$CComAggObject@VCOPOSPINPad@@@ATL@@UEAAKXZ 0000000180003c74 f i PINPad.obj
 0001:00002c80       ?Release@?$CComAggObject@VCOPOSPINPad@@@ATL@@UEAAKXZ 0000000180003c80 f i PINPad.obj
 0001:00002cd4       ?QueryInterface@?$CComAggObject@VCOPOSPINPad@@@ATL@@UEAAJAEBU_GUID@@PEAPEAX@Z 0000000180003cd4 f i PINPad.obj
 0001:00002d34       ?AddRef@?$CComContainedObject@VCOPOSPINPad@@@ATL@@UEAAKXZ 0000000180003d34 f i PINPad.obj
 0001:00002d44       ?Release@?$CComContainedObject@VCOPOSPINPad@@@ATL@@UEAAKXZ 0000000180003d44 f i PINPad.obj
 0001:00002d54       ?QueryInterface@?$CComContainedObject@VCOPOSPINPad@@@ATL@@UEAAJAEBU_GUID@@PEAPEAX@Z 0000000180003d54 f i PINPad.obj
 0001:00002d64       ??_G?$CComAggObject@VCOPOSPINPad@@@ATL@@UEAAPEAXI@Z 0000000180003d64 f i PINPad.obj
 0001:00002d64       ??_E?$CComAggObject@VCOPOSPINPad@@@ATL@@UEAAPEAXI@Z 0000000180003d64 f i PINPad.obj
 0001:00002dbc       ?AddRef@?$CComObject@VCOPOSPINPad@@@ATL@@UEAAKXZ 0000000180003dbc f i PINPad.obj
 0001:00002dcc       ?Release@?$CComObject@VCOPOSPINPad@@@ATL@@UEAAKXZ 0000000180003dcc f i PINPad.obj
 0001:00002e24       ?QueryInterface@?$CComObject@VCOPOSPINPad@@@ATL@@UEAAJAEBU_GUID@@PEAPEAX@Z 0000000180003e24 f i PINPad.obj
 0001:00002e38       ?OnDrawAdvanced@CComControlBase@ATL@@UEAAJAEAUATL_DRAWINFO@@@Z 0000000180003e38 f i PINPad.obj
 0001:00002fc4       ?Next@?$CComEnumImpl@UIEnumConnections@@$1?_GUID_b196b287_bab4_101a_b69c_00aa00341d07@@3U__s_GUID@@BUtagCONNECTDATA@@V?$_Copy@UtagCONNECTDATA@@@ATL@@@ATL@@UEAAJKPEAUtagCONNECTDATA@@PEAK@Z 0000000180003fc4 f i PINPad.obj
 0001:00003098       ?Skip@?$CComEnumImpl@UIEnumConnections@@$1?_GUID_b196b287_bab4_101a_b69c_00aa00341d07@@3U__s_GUID@@BUtagCONNECTDATA@@V?$_Copy@UtagCONNECTDATA@@@ATL@@@ATL@@UEAAJK@Z 0000000180004098 f i PINPad.obj
 0001:000030c4       ?Clone@?$CComEnumImpl@UIEnumConnections@@$1?_GUID_b196b287_bab4_101a_b69c_00aa00341d07@@3U__s_GUID@@BUtagCONNECTDATA@@V?$_Copy@UtagCONNECTDATA@@@ATL@@@ATL@@UEAAJPEAPEAUIEnumConnections@@@Z 00000001800040c4 f i PINPad.obj
 0001:000031f0       ?QueryInterface@?$CComObject@V?$CComEnum@UIEnumConnections@@$1?_GUID_b196b287_bab4_101a_b69c_00aa00341d07@@3U__s_GUID@@BUtagCONNECTDATA@@V?$_Copy@UtagCONNECTDATA@@@ATL@@VCComSingleThreadModel@6@@ATL@@@ATL@@UEAAJAEBU_GUID@@PEAPEAX@Z 00000001800041f0 f i PINPad.obj
 0001:00003204       ??_E?$CComObject@V?$CComEnum@UIEnumConnections@@$1?_GUID_b196b287_bab4_101a_b69c_00aa00341d07@@3U__s_GUID@@BUtagCONNECTDATA@@V?$_Copy@UtagCONNECTDATA@@@ATL@@VCComSingleThreadModel@6@@ATL@@@ATL@@UEAAPEAXI@Z 0000000180004204 f i PINPad.obj
 0001:00003204       ??_G?$CComObject@V?$CComEnum@UIEnumConnections@@$1?_GUID_b196b287_bab4_101a_b69c_00aa00341d07@@3U__s_GUID@@BUtagCONNECTDATA@@V?$_Copy@UtagCONNECTDATA@@@ATL@@VCComSingleThreadModel@6@@ATL@@@ATL@@UEAAPEAXI@Z 0000000180004204 f i PINPad.obj
 0001:0000325c       ??_E?$CComObject@VCOPOSPINPad@@@ATL@@W7EAAPEAXI@Z 000000018000425c f i PINPad.obj
 0001:00003268       ??_E?$CComObject@VCOPOSPINPad@@@ATL@@WHA@EAAPEAXI@Z 0000000180004268 f i PINPad.obj
 0001:00003274       ?QueryInterface@?$CComObject@VCOPOSPINPad@@@ATL@@WLI@EAAJAEBU_GUID@@PEAPEAX@Z 0000000180004274 f i PINPad.obj
 0001:00003280       ?AddRef@?$CComObject@VCOPOSPINPad@@@ATL@@WLI@EAAKXZ 0000000180004280 f i PINPad.obj
 0001:0000328c       ?Release@?$CComObject@VCOPOSPINPad@@@ATL@@WLI@EAAKXZ 000000018000428c f i PINPad.obj
 0001:00003298       ?QueryInterface@?$CComObject@VCOPOSPINPad@@@ATL@@WMA@EAAJAEBU_GUID@@PEAPEAX@Z 0000000180004298 f i PINPad.obj
 0001:000032a4       ?AddRef@?$CComObject@VCOPOSPINPad@@@ATL@@WMA@EAAKXZ 00000001800042a4 f i PINPad.obj
 0001:000032b0       ?Release@?$CComObject@VCOPOSPINPad@@@ATL@@WMA@EAAKXZ 00000001800042b0 f i PINPad.obj
 0001:000032bc       ?QueryInterface@?$CComObject@VCOPOSPINPad@@@ATL@@WMI@EAAJAEBU_GUID@@PEAPEAX@Z 00000001800042bc f i PINPad.obj
 0001:000032c8       ?AddRef@?$CComObject@VCOPOSPINPad@@@ATL@@WMI@EAAKXZ 00000001800042c8 f i PINPad.obj
 0001:000032d4       ?Release@?$CComObject@VCOPOSPINPad@@@ATL@@WMI@EAAKXZ 00000001800042d4 f i PINPad.obj
 0001:000032e0       ?QueryInterface@?$CComObject@VCOPOSPINPad@@@ATL@@WNA@EAAJAEBU_GUID@@PEAPEAX@Z 00000001800042e0 f i PINPad.obj
 0001:000032ec       ?AddRef@?$CComObject@VCOPOSPINPad@@@ATL@@WNA@EAAKXZ 00000001800042ec f i PINPad.obj
 0001:000032f8       ?Release@?$CComObject@VCOPOSPINPad@@@ATL@@WNA@EAAKXZ 00000001800042f8 f i PINPad.obj
 0001:00003304       ?QueryInterface@?$CComObject@VCOPOSPINPad@@@ATL@@WNI@EAAJAEBU_GUID@@PEAPEAX@Z 0000000180004304 f i PINPad.obj
 0001:00003310       ?AddRef@?$CComObject@VCOPOSPINPad@@@ATL@@WNI@EAAKXZ 0000000180004310 f i PINPad.obj
 0001:0000331c       ?Release@?$CComObject@VCOPOSPINPad@@@ATL@@WNI@EAAKXZ 000000018000431c f i PINPad.obj
 0001:00003328       ?QueryInterface@?$CComObject@VCOPOSPINPad@@@ATL@@WOA@EAAJAEBU_GUID@@PEAPEAX@Z 0000000180004328 f i PINPad.obj
 0001:00003334       ?AddRef@?$CComObject@VCOPOSPINPad@@@ATL@@WOA@EAAKXZ 0000000180004334 f i PINPad.obj
 0001:00003340       ?Release@?$CComObject@VCOPOSPINPad@@@ATL@@WOA@EAAKXZ 0000000180004340 f i PINPad.obj
 0001:0000334c       ?QueryInterface@?$CComObject@VCOPOSPINPad@@@ATL@@WOI@EAAJAEBU_GUID@@PEAPEAX@Z 000000018000434c f i PINPad.obj
 0001:00003358       ?AddRef@?$CComObject@VCOPOSPINPad@@@ATL@@WOI@EAAKXZ 0000000180004358 f i PINPad.obj
 0001:00003364       ?Release@?$CComObject@VCOPOSPINPad@@@ATL@@WOI@EAAKXZ 0000000180004364 f i PINPad.obj
 0001:00003370       ?QueryInterface@?$CComObject@VCOPOSPINPad@@@ATL@@WPA@EAAJAEBU_GUID@@PEAPEAX@Z 0000000180004370 f i PINPad.obj
 0001:0000337c       ?AddRef@?$CComObject@VCOPOSPINPad@@@ATL@@WPA@EAAKXZ 000000018000437c f i PINPad.obj
 0001:00003388       ?Release@?$CComObject@VCOPOSPINPad@@@ATL@@WPA@EAAKXZ 0000000180004388 f i PINPad.obj
 0001:00003394       ?QueryInterface@?$CComObject@VCOPOSPINPad@@@ATL@@WPI@EAAJAEBU_GUID@@PEAPEAX@Z 0000000180004394 f i PINPad.obj
 0001:000033a0       ?AddRef@?$CComObject@VCOPOSPINPad@@@ATL@@WPI@EAAKXZ 00000001800043a0 f i PINPad.obj
 0001:000033ac       ?Release@?$CComObject@VCOPOSPINPad@@@ATL@@WPI@EAAKXZ 00000001800043ac f i PINPad.obj
 0001:000033b8       ?QueryInterface@?$CComObject@VCOPOSPINPad@@@ATL@@WBAA@EAAJAEBU_GUID@@PEAPEAX@Z 00000001800043b8 f i PINPad.obj
 0001:000033c4       ?AddRef@?$CComObject@VCOPOSPINPad@@@ATL@@WBAA@EAAKXZ 00000001800043c4 f i PINPad.obj
 0001:000033d0       ?Release@?$CComObject@VCOPOSPINPad@@@ATL@@WBAA@EAAKXZ 00000001800043d0 f i PINPad.obj
 0001:000033dc       ?QueryInterface@?$CComObject@VCOPOSPINPad@@@ATL@@WBAI@EAAJAEBU_GUID@@PEAPEAX@Z 00000001800043dc f i PINPad.obj
 0001:000033e8       ?AddRef@?$CComObject@VCOPOSPINPad@@@ATL@@WBAI@EAAKXZ 00000001800043e8 f i PINPad.obj
 0001:000033f4       ?Release@?$CComObject@VCOPOSPINPad@@@ATL@@WBAI@EAAKXZ 00000001800043f4 f i PINPad.obj
 0001:00003400       ?QueryInterface@?$CComObject@VCOPOSPINPad@@@ATL@@WBBA@EAAJAEBU_GUID@@PEAPEAX@Z 0000000180004400 f i PINPad.obj
 0001:0000340c       ?AddRef@?$CComObject@VCOPOSPINPad@@@ATL@@WBBA@EAAKXZ 000000018000440c f i PINPad.obj
 0001:00003418       ?Release@?$CComObject@VCOPOSPINPad@@@ATL@@WBBA@EAAKXZ 0000000180004418 f i PINPad.obj
 0001:00003424       ?QueryInterface@?$CComObject@VCOPOSPINPad@@@ATL@@WBBI@EAAJAEBU_GUID@@PEAPEAX@Z 0000000180004424 f i PINPad.obj
 0001:00003430       ?AddRef@?$CComObject@VCOPOSPINPad@@@ATL@@WBBI@EAAKXZ 0000000180004430 f i PINPad.obj
 0001:0000343c       ?Release@?$CComObject@VCOPOSPINPad@@@ATL@@WBBI@EAAKXZ 000000018000443c f i PINPad.obj
 0001:00003448       ?AddRef@?$CComObject@VCOPOSPINPad@@@ATL@@WBCI@EAAKXZ 0000000180004448 f i PINPad.obj
 0001:00003454       ?Release@?$CComObject@VCOPOSPINPad@@@ATL@@WBCI@EAAKXZ 0000000180004454 f i PINPad.obj
 0001:00003460       ?AddRef@?$CComObject@VCOPOSPINPad@@@ATL@@WBEA@EAAKXZ 0000000180004460 f i PINPad.obj
 0001:0000346c       ?Release@?$CComObject@VCOPOSPINPad@@@ATL@@WBEA@EAAKXZ 000000018000446c f i PINPad.obj
 0001:00003478       ??_E?$CComContainedObject@VCOPOSPINPad@@@ATL@@W7EAAPEAXI@Z 0000000180004478 f i PINPad.obj
 0001:00003484       ??_E?$CComContainedObject@VCOPOSPINPad@@@ATL@@WHA@EAAPEAXI@Z 0000000180004484 f i PINPad.obj
 0001:00003490       ?QueryInterface@?$CComContainedObject@VCOPOSPINPad@@@ATL@@WLI@EAAJAEBU_GUID@@PEAPEAX@Z 0000000180004490 f i PINPad.obj
 0001:0000349c       ?AddRef@?$CComContainedObject@VCOPOSPINPad@@@ATL@@WLI@EAAKXZ 000000018000449c f i PINPad.obj
 0001:000034a8       ?Release@?$CComContainedObject@VCOPOSPINPad@@@ATL@@WLI@EAAKXZ 00000001800044a8 f i PINPad.obj
 0001:000034b4       ?QueryInterface@?$CComContainedObject@VCOPOSPINPad@@@ATL@@WMA@EAAJAEBU_GUID@@PEAPEAX@Z 00000001800044b4 f i PINPad.obj
 0001:000034c0       ?AddRef@?$CComContainedObject@VCOPOSPINPad@@@ATL@@WMA@EAAKXZ 00000001800044c0 f i PINPad.obj
 0001:000034cc       ?Release@?$CComContainedObject@VCOPOSPINPad@@@ATL@@WMA@EAAKXZ 00000001800044cc f i PINPad.obj
 0001:000034d8       ?QueryInterface@?$CComContainedObject@VCOPOSPINPad@@@ATL@@WMI@EAAJAEBU_GUID@@PEAPEAX@Z 00000001800044d8 f i PINPad.obj
 0001:000034e4       ?AddRef@?$CComContainedObject@VCOPOSPINPad@@@ATL@@WMI@EAAKXZ 00000001800044e4 f i PINPad.obj
 0001:000034f0       ?Release@?$CComContainedObject@VCOPOSPINPad@@@ATL@@WMI@EAAKXZ 00000001800044f0 f i PINPad.obj
 0001:000034fc       ?QueryInterface@?$CComContainedObject@VCOPOSPINPad@@@ATL@@WNA@EAAJAEBU_GUID@@PEAPEAX@Z 00000001800044fc f i PINPad.obj
 0001:00003508       ?AddRef@?$CComContainedObject@VCOPOSPINPad@@@ATL@@WNA@EAAKXZ 0000000180004508 f i PINPad.obj
 0001:00003514       ?Release@?$CComContainedObject@VCOPOSPINPad@@@ATL@@WNA@EAAKXZ 0000000180004514 f i PINPad.obj
 0001:00003520       ?QueryInterface@?$CComContainedObject@VCOPOSPINPad@@@ATL@@WNI@EAAJAEBU_GUID@@PEAPEAX@Z 0000000180004520 f i PINPad.obj
 0001:0000352c       ?AddRef@?$CComContainedObject@VCOPOSPINPad@@@ATL@@WNI@EAAKXZ 000000018000452c f i PINPad.obj
 0001:00003538       ?Release@?$CComContainedObject@VCOPOSPINPad@@@ATL@@WNI@EAAKXZ 0000000180004538 f i PINPad.obj
 0001:00003544       ?QueryInterface@?$CComContainedObject@VCOPOSPINPad@@@ATL@@WOA@EAAJAEBU_GUID@@PEAPEAX@Z 0000000180004544 f i PINPad.obj
 0001:00003550       ?AddRef@?$CComContainedObject@VCOPOSPINPad@@@ATL@@WOA@EAAKXZ 0000000180004550 f i PINPad.obj
 0001:0000355c       ?Release@?$CComContainedObject@VCOPOSPINPad@@@ATL@@WOA@EAAKXZ 000000018000455c f i PINPad.obj
 0001:00003568       ?QueryInterface@?$CComContainedObject@VCOPOSPINPad@@@ATL@@WOI@EAAJAEBU_GUID@@PEAPEAX@Z 0000000180004568 f i PINPad.obj
 0001:00003574       ?AddRef@?$CComContainedObject@VCOPOSPINPad@@@ATL@@WOI@EAAKXZ 0000000180004574 f i PINPad.obj
 0001:00003580       ?Release@?$CComContainedObject@VCOPOSPINPad@@@ATL@@WOI@EAAKXZ 0000000180004580 f i PINPad.obj
 0001:0000358c       ?QueryInterface@?$CComContainedObject@VCOPOSPINPad@@@ATL@@WPA@EAAJAEBU_GUID@@PEAPEAX@Z 000000018000458c f i PINPad.obj
 0001:00003598       ?AddRef@?$CComContainedObject@VCOPOSPINPad@@@ATL@@WPA@EAAKXZ 0000000180004598 f i PINPad.obj
 0001:000035a4       ?Release@?$CComContainedObject@VCOPOSPINPad@@@ATL@@WPA@EAAKXZ 00000001800045a4 f i PINPad.obj
 0001:000035b0       ?QueryInterface@?$CComContainedObject@VCOPOSPINPad@@@ATL@@WPI@EAAJAEBU_GUID@@PEAPEAX@Z 00000001800045b0 f i PINPad.obj
 0001:000035bc       ?AddRef@?$CComContainedObject@VCOPOSPINPad@@@ATL@@WPI@EAAKXZ 00000001800045bc f i PINPad.obj
 0001:000035c8       ?Release@?$CComContainedObject@VCOPOSPINPad@@@ATL@@WPI@EAAKXZ 00000001800045c8 f i PINPad.obj
 0001:000035d4       ?QueryInterface@?$CComContainedObject@VCOPOSPINPad@@@ATL@@WBAA@EAAJAEBU_GUID@@PEAPEAX@Z 00000001800045d4 f i PINPad.obj
 0001:000035e0       ?AddRef@?$CComContainedObject@VCOPOSPINPad@@@ATL@@WBAA@EAAKXZ 00000001800045e0 f i PINPad.obj
 0001:000035ec       ?Release@?$CComContainedObject@VCOPOSPINPad@@@ATL@@WBAA@EAAKXZ 00000001800045ec f i PINPad.obj
 0001:000035f8       ?QueryInterface@?$CComContainedObject@VCOPOSPINPad@@@ATL@@WBAI@EAAJAEBU_GUID@@PEAPEAX@Z 00000001800045f8 f i PINPad.obj
 0001:00003604       ?AddRef@?$CComContainedObject@VCOPOSPINPad@@@ATL@@WBAI@EAAKXZ 0000000180004604 f i PINPad.obj
 0001:00003610       ?Release@?$CComContainedObject@VCOPOSPINPad@@@ATL@@WBAI@EAAKXZ 0000000180004610 f i PINPad.obj
 0001:0000361c       ?QueryInterface@?$CComContainedObject@VCOPOSPINPad@@@ATL@@WBBA@EAAJAEBU_GUID@@PEAPEAX@Z 000000018000461c f i PINPad.obj
 0001:00003628       ?AddRef@?$CComContainedObject@VCOPOSPINPad@@@ATL@@WBBA@EAAKXZ 0000000180004628 f i PINPad.obj
 0001:00003634       ?Release@?$CComContainedObject@VCOPOSPINPad@@@ATL@@WBBA@EAAKXZ 0000000180004634 f i PINPad.obj
 0001:00003640       ?QueryInterface@?$CComContainedObject@VCOPOSPINPad@@@ATL@@WBBI@EAAJAEBU_GUID@@PEAPEAX@Z 0000000180004640 f i PINPad.obj
 0001:0000364c       ?AddRef@?$CComContainedObject@VCOPOSPINPad@@@ATL@@WBBI@EAAKXZ 000000018000464c f i PINPad.obj
 0001:00003658       ?Release@?$CComContainedObject@VCOPOSPINPad@@@ATL@@WBBI@EAAKXZ 0000000180004658 f i PINPad.obj
 0001:00003664       ?AddRef@?$CComContainedObject@VCOPOSPINPad@@@ATL@@WBCI@EAAKXZ 0000000180004664 f i PINPad.obj
 0001:00003670       ?Release@?$CComContainedObject@VCOPOSPINPad@@@ATL@@WBCI@EAAKXZ 0000000180004670 f i PINPad.obj
 0001:0000367c       ?AddRef@?$CComContainedObject@VCOPOSPINPad@@@ATL@@WBEA@EAAKXZ 000000018000467c f i PINPad.obj
 0001:00003688       ?Release@?$CComContainedObject@VCOPOSPINPad@@@ATL@@WBEA@EAAKXZ 0000000180004688 f i PINPad.obj
 0001:00003694       ?CreateInstance@CComClassFactory@ATL@@UEAAJPEAUIUnknown@@AEBU_GUID@@PEAPEAX@Z 0000000180004694 f i PINPad.obj
 0001:000036f4       ?LockServer@CComClassFactory@ATL@@UEAAJH@Z 00000001800046f4 f i PINPad.obj
 0001:00003718       ??_GCComClassFactory@ATL@@UEAAPEAXI@Z 0000000180004718 f i PINPad.obj
 0001:00003718       ??_ECComClassFactory@ATL@@UEAAPEAXI@Z 0000000180004718 f i PINPad.obj
 0001:00003768       ??$AtlModuleRegisterWndClassInfoT@VAtlModuleRegisterWndClassInfoParamW@ATL@@@ATL@@YAGPEAU_ATL_BASE_MODULE70@0@PEAU_ATL_WIN_MODULE70@0@PEAU_ATL_WNDCLASSINFOW@0@PEAP6A_JPEAUHWND__@@I_K_J@ZVAtlModuleRegisterWndClassInfoParamW@0@@Z 0000000180004768 f i PINPad.obj
 0001:00003968       ??0?$CComContainedObject@VCOPOSPINPad@@@ATL@@QEAA@PEAX@Z 0000000180004968 f i PINPad.obj
 0001:00003a84       ??0?$CComObject@VCOPOSPINPad@@@ATL@@QEAA@PEAX@Z 0000000180004a84 f i PINPad.obj
 0001:00003b9c       ??0CAtlModule@ATL@@QEAA@XZ 0000000180004b9c f i PINPad.obj
 0001:00003c10       ??1?$CComEnumImpl@UIEnumConnectionPoints@@$1?_GUID_b196b285_bab4_101a_b69c_00aa00341d07@@3U__s_GUID@@BPEAUIConnectionPoint@@V?$_CopyInterface@UIConnectionPoint@@@ATL@@@ATL@@UEAA@XZ 0000000180004c10 f i PINPad.obj
 0001:00003c6c       ??1?$CComEnumImpl@UIEnumConnections@@$1?_GUID_b196b287_bab4_101a_b69c_00aa00341d07@@3U__s_GUID@@BUtagCONNECTDATA@@V?$_Copy@UtagCONNECTDATA@@@ATL@@@ATL@@UEAA@XZ 0000000180004c6c f i PINPad.obj
 0001:00003cc8       ??1?$CComObject@VCOPOSPINPad@@@ATL@@UEAA@XZ 0000000180004cc8 f i PINPad.obj
 0001:00003de8       ??_G?$CComContainedObject@VCOPOSPINPad@@@ATL@@UEAAPEAXI@Z 0000000180004de8 f i PINPad.obj
 0001:00003de8       ??_E?$CComContainedObject@VCOPOSPINPad@@@ATL@@UEAAPEAXI@Z 0000000180004de8 f i PINPad.obj
 0001:00003e1c       ??_G?$CComObject@VCOPOSPINPad@@@ATL@@UEAAPEAXI@Z 0000000180004e1c f i PINPad.obj
 0001:00003e1c       ??_E?$CComObject@VCOPOSPINPad@@@ATL@@UEAAPEAXI@Z 0000000180004e1c f i PINPad.obj
 0001:00003e50       ?Add@?$CSimpleArray@GV?$CSimpleArrayEqualHelper@G@ATL@@@ATL@@QEAAHAEBG@Z 0000000180004e50 f i PINPad.obj
 0001:00003f04       ?Add@?$CSimpleMap@PEA_WPEA_WVCExpansionVectorEqualHelper@ATL@@@ATL@@QEAAHAEBQEA_W0@Z 0000000180004f04 f i PINPad.obj
 0001:00003fa4       ?Add@CComDynamicUnkArray@ATL@@QEAAKPEAUIUnknown@@@Z 0000000180004fa4 f i PINPad.obj
 0001:0000408c       ?Add@CExpansionVector@ATL@@QEAAHPEB_W0@Z 000000018000508c f i PINPad.obj
 0001:000041c0       ?AddTermFunc@CAtlModule@ATL@@QEAAJP6AX_K@Z0@Z 00000001800051c0 f i PINPad.obj
 0001:0000425c       ?AddValue@CRegParser@ATL@@IEAAJAEAVCRegKey@2@PEB_WPEA_W@Z 000000018000525c f i PINPad.obj
 0001:000046a4       ?AllocateHeap@?$CTempBuffer@_W$0EAA@VCCRTAllocator@ATL@@@ATL@@AEAAX_K@Z 00000001800056a4 f i PINPad.obj
 0001:000046a4       ?AllocateHeap@?$CTempBuffer@E$0BAA@VCCRTAllocator@ATL@@@ATL@@AEAAX_K@Z 00000001800056a4 f i PINPad.obj
 0001:000046a4       ?AllocateHeap@?$CTempBuffer@_W$0BAA@VCCRTAllocator@ATL@@@ATL@@AEAAX_K@Z 00000001800056a4 f i PINPad.obj
 0001:000046d0       ?Append@CParseBuffer@CRegParser@ATL@@QEAAHPEB_WH@Z 00000001800056d0 f i PINPad.obj
 0001:00004818       ?AtlComModuleGetClassObject@ATL@@YAJPEAU_ATL_COM_MODULE70@1@AEBU_GUID@@1PEAPEAX@Z 0000000180005818 f i PINPad.obj
 0001:00004958       ?AtlComModuleRegisterServer@ATL@@YAJPEAU_ATL_COM_MODULE70@1@HPEBU_GUID@@@Z 0000000180005958 f i PINPad.obj
 0001:00004a18       ?AtlComModuleUnregisterServer@ATL@@YAJPEAU_ATL_COM_MODULE70@1@HPEBU_GUID@@@Z 0000000180005a18 f i PINPad.obj
 0001:00004ad4       ?AtlHiMetricToPixel@ATL@@YAXPEBUtagSIZE@@PEAU2@@Z 0000000180005ad4 f i PINPad.obj
 0001:00004b84       ?AtlHresultFromLastError@ATL@@YAJXZ 0000000180005b84 f i PINPad.obj
 0001:00004ba4       ?AtlHresultFromWin32@ATL@@YAJK@Z 0000000180005ba4 f i PINPad.obj
 0001:00004bb4       ?AtlInternalOleLoadFromStream@ATL@@YAJPEAUIStream@@AEBU_GUID@@PEAPEAXTClassesAllowedInStream@1@K@Z 0000000180005bb4 f i PINPad.obj
 0001:00004cf8       ?AtlInternalQueryInterface@ATL@@YAJPEAXPEBU_ATL_INTMAP_ENTRY@1@AEBU_GUID@@PEAPEAX@Z 0000000180005cf8 f i PINPad.obj
 0001:00004e00       ?AtlLoadTypeLib@ATL@@YAJPEAUHINSTANCE__@@PEB_WPEAPEA_WPEAPEAUITypeLib@@@Z 0000000180005e00 f i PINPad.obj
 0001:0000505c       ?AtlRegisterClassCategoriesHelper@ATL@@YAJAEBU_GUID@@PEBU_ATL_CATMAP_ENTRY@1@H@Z 000000018000605c f i PINPad.obj
 0001:000054e0       ?AtlRegisterTypeLib@ATL@@YAJPEAUHINSTANCE__@@PEB_W@Z 00000001800064e0 f i PINPad.obj
 0001:000056dc       ?AtlThrowImpl@ATL@@YAXJ@Z  00000001800066dc f i PINPad.obj
 0001:00005700       ?AtlUnRegisterTypeLib@ATL@@YAJPEAUHINSTANCE__@@PEB_W@Z 0000000180006700 f i PINPad.obj
 0001:000057c8       ?AtlWinModuleExtractCreateWndData@ATL@@YAPEAXPEAU_ATL_WIN_MODULE70@1@@Z 00000001800067c8 f i PINPad.obj
 0001:00005854       ?Cleanup@CComTypeInfoHolder@ATL@@SAX_K@Z 0000000180006854 f i PINPad.obj
 0001:00005894       ?ClearReplacements@CExpansionVector@ATL@@QEAAJXZ 0000000180006894 f i PINPad.obj
 0001:00005930       ?CreateInstance@?$CComCreator@V?$CComAggObject@VCOPOSPINPad@@@ATL@@@ATL@@SAJPEAXAEBU_GUID@@PEAPEAX@Z 0000000180006930 f i PINPad.obj
 0001:00005a20       ?CreateInstance@?$CComCreator@V?$CComObject@VCOPOSPINPad@@@ATL@@@ATL@@SAJPEAXAEBU_GUID@@PEAPEAX@Z 0000000180006a20 f i PINPad.obj
 0001:00005ad8       ?CreateInstance@?$CComObject@V?$CComEnum@UIEnumConnectionPoints@@$1?_GUID_b196b285_bab4_101a_b69c_00aa00341d07@@3U__s_GUID@@BPEAUIConnectionPoint@@V?$_CopyInterface@UIConnectionPoint@@@ATL@@VCComSingleThreadModel@6@@ATL@@@ATL@@SAJPEAPEAV12@@Z 0000000180006ad8 f i PINPad.obj
 0001:00005b64       ?CreateInstance@?$CComObject@V?$CComEnum@UIEnumConnections@@$1?_GUID_b196b287_bab4_101a_b69c_00aa00341d07@@3U__s_GUID@@BUtagCONNECTDATA@@V?$_Copy@UtagCONNECTDATA@@@ATL@@VCComSingleThreadModel@6@@ATL@@@ATL@@SAJPEAPEAV12@@Z 0000000180006b64 f i PINPad.obj
 0001:00005bf0       ?DefaultReflectionHandler@?$CWindowImplRoot@VCWindow@ATL@@@ATL@@SAHPEAUHWND__@@I_K_JAEA_J@Z 0000000180006bf0 f i PINPad.obj
 0001:00005c54       ?DeleteSubKey@CRegKey@ATL@@QEAAJPEB_W@Z 0000000180006c54 f i PINPad.obj
 0001:00005cec       ?DoEvent@COPOSPINPad@@IEAAXI_K_J@Z 0000000180006cec f i PINPad.obj
 0001:00005da0       ?DoVerbPrimary@?$IOleObjectImpl@VCOPOSPINPad@@@ATL@@QEAAJPEBUtagRECT@@PEAUHWND__@@@Z 0000000180006da0 f i PINPad.obj
 0001:00005ecc       ?DoVerbProperties@CComControlBase@ATL@@QEAAJPEBUtagRECT@@PEAUHWND__@@@Z 0000000180006ecc f i PINPad.obj
 0001:000060f4       ?FireTheEvent@?$CProxy_IOPOSEvents@VCOPOSPINPad@@@@IEAAXPEAVOposVariant@@IAEAJPEB_WJ@Z 00000001800070f4 f i PINPad.obj
 0001:000061e0       ?FireViewChange@CComControlBase@ATL@@QEAAJXZ 00000001800071e0 f i PINPad.obj
 0001:00006244       ?Fire_DataEvent@?$CProxy_IOPOSEvents@VCOPOSPINPad@@@@QEAAXJ@Z 0000000180007244 f i PINPad.obj
 0001:00006330       ?Fire_DirectIOEvent@?$CProxy_IOPOSEvents@VCOPOSPINPad@@@@QEAAXJPEAJPEAPEA_W@Z 0000000180007330 f i PINPad.obj
 0001:00006488       ?Fire_ErrorEvent@?$CProxy_IOPOSEvents@VCOPOSPINPad@@@@QEAAXJJJPEAJ@Z 0000000180007488 f i PINPad.obj
 0001:000065f0       ?Fire_StatusUpdateEvent@?$CProxy_IOPOSEvents@VCOPOSPINPad@@@@QEAAXJ@Z 00000001800075f0 f i PINPad.obj
 0001:000066dc       ?FreeHeap@?$CTempBuffer@_W$0EAA@VCCRTAllocator@ATL@@@ATL@@AEAAXXZ 00000001800076dc f i PINPad.obj
 0001:000066dc       ?FreeHeap@?$CTempBuffer@E$0BAA@VCCRTAllocator@ATL@@@ATL@@AEAAXXZ 00000001800076dc f i PINPad.obj
 0001:000066dc       ?FreeHeap@?$CTempBuffer@_W$0BAA@VCCRTAllocator@ATL@@@ATL@@AEAAXXZ 00000001800076dc f i PINPad.obj
 0001:000066e4       ?GetAmbientLocaleID@CComControlBase@ATL@@QEAAJAEAK@Z 00000001800076e4 f i PINPad.obj
 0001:000067a4       ?GetAmbientUserMode@CComControlBase@ATL@@QEAAJAEAH@Z 00000001800077a4 f i PINPad.obj
 0001:00006874       ?GetClassObject@CComModule@ATL@@QEAAJAEBU_GUID@@0PEAPEAX@Z 0000000180007874 f i PINPad.obj
 0001:00006968       ?GetConnMap@COPOSPINPad@@SAPEBU_ATL_CONNMAP_ENTRY@ATL@@PEAH@Z 0000000180007968 f i PINPad.obj
 0001:000069f0       ?GetIDsOfNames@CComTypeInfoHolder@ATL@@QEAAJAEBU_GUID@@PEAPEA_WIKPEAJ@Z 00000001800079f0 f i PINPad.obj
 0001:00006b68       ?GetPagesHelper@?$ISpecifyPropertyPagesImpl@VCOPOSPINPad@@@ATL@@IEAAJPEAUtagCAUUID@@PEBUATL_PROPMAP_ENTRY@2@@Z 0000000180007b68 f i PINPad.obj
 0001:00006d08       ?GetSizeMax@CComVariant@ATL@@QEBAJPEAT_ULARGE_INTEGER@@@Z 0000000180007d08 f i PINPad.obj
 0001:00006f3c       ?GetTI@CComTypeInfoHolder@ATL@@QEAAJK@Z 0000000180007f3c f i PINPad.obj
 0001:00007234       ?GetZoomInfo@CComControlBase@ATL@@QEAAXAEAUATL_DRAWINFO@@@Z 0000000180008234 f i PINPad.obj
 0001:000072d8       ?HKeyFromString@CRegParser@ATL@@KAPEAUHKEY__@@PEA_W@Z 00000001800082d8 f i PINPad.obj
 0001:0000733c       ?IDataObject_GetData@CComControlBase@ATL@@QEAAJPEAUtagFORMATETC@@PEAUtagSTGMEDIUM@@@Z 000000018000833c f i PINPad.obj
 0001:00007530       ?IOleInPlaceObject_InPlaceDeactivate@CComControlBase@ATL@@QEAAJXZ 0000000180008530 f i PINPad.obj
 0001:000075d0       ?IOleInPlaceObject_SetObjectRects@CComControlBase@ATL@@QEAAJPEBUtagRECT@@0@Z 00000001800085d0 f i PINPad.obj
 0001:000076c0       ?IOleInPlaceObject_UIDeactivate@CComControlBase@ATL@@QEAAJXZ 00000001800086c0 f i PINPad.obj
 0001:000077cc       ?IOleObject_Close@CComControlBase@ATL@@QEAAJK@Z 00000001800087cc f i PINPad.obj
 0001:000078e4       ?IOleObject_SetClientSite@CComControlBase@ATL@@QEAAJPEAUIOleClientSite@@@Z 00000001800088e4 f i PINPad.obj
 0001:0000795c       ?IOleObject_SetExtent@CComControlBase@ATL@@QEAAJKPEAUtagSIZE@@@Z 000000018000895c f i PINPad.obj
 0001:000079f4       ?IPSI_GetIPersistStreamInit@?$IPersistStorageImpl@VCOPOSPINPad@@@ATL@@AEAAPEAUIPersistStreamInit@@XZ 00000001800089f4 f i PINPad.obj
 0001:00007adc       ?IPersistStreamInit_Load@?$IPersistStreamInitImpl@VCOPOSPINPad@@@ATL@@QEAAJPEAUIStream@@PEBUATL_PROPMAP_ENTRY@2@@Z 0000000180008adc f i PINPad.obj
 0001:00007e10       ?IPersistStreamInit_Save@?$IPersistStreamInitImpl@VCOPOSPINPad@@@ATL@@QEAAJPEAUIStream@@HPEBUATL_PROPMAP_ENTRY@2@@Z 0000000180008e10 f i PINPad.obj
 0001:000080b4       ?IQuickActivate_QuickActivate@CComControlBase@ATL@@QEAAJPEAUtagQACONTAINER@@PEAUtagQACONTROL@@@Z 00000001800090b4 f i PINPad.obj
 0001:00008378       ?IViewObject_Draw@CComControlBase@ATL@@QEAAJKJPEAXPEAUtagDVTARGETDEVICE@@PEAUHDC__@@2PEBU_RECTL@@3@Z 0000000180009378 f i PINPad.obj
 0001:0000848c       ?InPlaceActivate@CComControlBase@ATL@@QEAAJJPEBUtagRECT@@@Z 000000018000948c f i PINPad.obj
 0001:000087c4       ?Init@?$CComEnumImpl@UIEnumConnectionPoints@@$1?_GUID_b196b285_bab4_101a_b69c_00aa00341d07@@3U__s_GUID@@BPEAUIConnectionPoint@@V?$_CopyInterface@UIConnectionPoint@@@ATL@@@ATL@@QEAAJPEAPEAUIConnectionPoint@@0PEAUIUnknown@@W4CComEnumFlags@2@@Z 00000001800097c4 f i PINPad.obj
 0001:000088e4       ?Init@?$CComEnumImpl@UIEnumConnections@@$1?_GUID_b196b287_bab4_101a_b69c_00aa00341d07@@3U__s_GUID@@BUtagCONNECTDATA@@V?$_Copy@UtagCONNECTDATA@@@ATL@@@ATL@@QEAAJPEAUtagCONNECTDATA@@0PEAUIUnknown@@W4CComEnumFlags@2@@Z 00000001800098e4 f i PINPad.obj
 0001:00008a08       ?IsEqualObject@?$CComPtrBase@UIOleClientSite@@@ATL@@QEAA_NPEAUIUnknown@@@Z 0000000180009a08 f i PINPad.obj
 0001:00008a94       ?LoadNameCache@CComTypeInfoHolder@ATL@@QEAAJPEAUITypeInfo@@@Z 0000000180009a94 f i PINPad.obj
 0001:00008c14       ?Lookup@?$CSimpleMap@PEA_WPEA_WVCExpansionVectorEqualHelper@ATL@@@ATL@@QEBAPEA_WAEBQEA_W@Z 0000000180009c14 f i PINPad.obj
 0001:00008ca0       ?NextToken@CRegParser@ATL@@IEAAJPEA_W@Z 0000000180009ca0 f i PINPad.obj
 0001:00008e58       ?OnKillFocus@CComControlBase@ATL@@QEAA_JI_K_JAEAH@Z 0000000180009e58 f i PINPad.obj
 0001:00008ef4       ?OnMouseActivate@CComControlBase@ATL@@QEAA_JI_K_JAEAH@Z 0000000180009ef4 f i PINPad.obj
 0001:00008f94       ?OnPaint@CComControlBase@ATL@@QEAA_JI_K_JAEAH@Z 0000000180009f94 f i PINPad.obj
 0001:00009080       ?OnSetFocus@CComControlBase@ATL@@QEAA_JI_K_JAEAH@Z 000000018000a080 f i PINPad.obj
 0001:0000917c       ?PreProcessBuffer@CRegParser@ATL@@QEAAJPEA_WPEAPEA_W@Z 000000018000a17c f i PINPad.obj
 0001:00009500       ?ProcessWindowMessage@?$CComControl@VCOPOSPINPad@@V?$CWindowImpl@VCOPOSPINPad@@VCWindow@ATL@@V?$CWinTraits@$0FGAAAAAA@$0A@@3@@ATL@@@ATL@@UEAAHPEAUHWND__@@I_K_JAEA_JK@Z 000000018000a500 f i PINPad.obj
 0001:000095e4       ?ReadFromStream@CComBSTR@ATL@@QEAAJPEAUIStream@@@Z 000000018000a5e4 f i PINPad.obj
 0001:00009740       ?ReadFromStream@CComVariant@ATL@@QEAAJPEAUIStream@@GTClassesAllowedInStream@2@K@Z 000000018000a740 f i PINPad.obj
 0001:00009950       ?RecurseDeleteKey@CRegKey@ATL@@QEAAJPEB_W@Z 000000018000a950 f i PINPad.obj
 0001:00009aa8       ?RegCreateKeyExW@CAtlTransactionManager@ATL@@QEAAJPEAUHKEY__@@PEB_WKPEA_WKKQEAU_SECURITY_ATTRIBUTES@@PEAPEAU3@PEAK@Z 000000018000aaa8 f i PINPad.obj
 0001:00009bdc       ?RegDeleteKeyW@CAtlTransactionManager@ATL@@QEAAJPEAUHKEY__@@PEB_W@Z 000000018000abdc f i PINPad.obj
 0001:00009c68       ?RegOpenKeyExW@CAtlTransactionManager@ATL@@QEAAJPEAUHKEY__@@PEB_WKKPEAPEAU3@@Z 000000018000ac68 f i PINPad.obj
 0001:00009d20       ?RegisterBuffer@CRegParser@ATL@@QEAAJPEA_WH@Z 000000018000ad20 f i PINPad.obj
 0001:00009e88       ?RegisterFromResource@CRegObject@ATL@@IEAAJPEB_W00H@Z 000000018000ae88 f i PINPad.obj
 0001:0000a044       ?RegisterServer@CComModule@ATL@@QEAAJHPEBU_GUID@@@Z 000000018000b044 f i PINPad.obj
 0001:0000a104       ?RegisterSubkeys@CRegParser@ATL@@IEAAJPEA_WPEAUHKEY__@@HH@Z 000000018000b104 f i PINPad.obj
 0001:0000a970       ?SendOnDataChange@CComControlBase@ATL@@QEAAJK@Z 000000018000b970 f i PINPad.obj
 0001:0000a9e0       ?SetControlFocus@CComControlBase@ATL@@QEAAHH@Z 000000018000b9e0 f i PINPad.obj
 0001:0000aabc       ?SkipAssignment@CRegParser@ATL@@IEAAJPEA_W@Z 000000018000babc f i PINPad.obj
 0001:0000ab60       ?Term@CAtlModule@ATL@@QEAAXXZ 000000018000bb60 f i PINPad.obj
 0001:0000abe0       ?Term@CComModule@ATL@@QEAAXXZ 000000018000bbe0 f i PINPad.obj
 0001:0000ac5c       ?UnregisterServer@CComModule@ATL@@QEAAJHPEBU_GUID@@@Z 000000018000bc5c f i PINPad.obj
 0001:0000ad0c       ?UpdateRegistryFromResource@CAtlModule@ATL@@QEAAJIHPEAU_ATL_REGMAP_ENTRY@2@@Z 000000018000bd0c f i PINPad.obj
 0001:0000b018       ?UpdateRegistryFromResource@CAtlModule@ATL@@QEAAJPEB_WHPEAU_ATL_REGMAP_ENTRY@2@@Z 000000018000c018 f i PINPad.obj
 0001:0000b33c       ?VTFromRegType@CRegParser@ATL@@KAHPEB_WAEAG@Z 000000018000c33c f i PINPad.obj
 0001:0000b3d8       ?WindowProc@?$CWindowImplBaseT@VCWindow@ATL@@V?$CWinTraits@$0FGAAAAAA@$0A@@2@@ATL@@SA_JPEAUHWND__@@I_K_J@Z 000000018000c3d8 f i PINPad.obj
 0001:0000b544       ?WriteToStream@CComVariant@ATL@@QEAAJPEAUIStream@@@Z 000000018000c544 f i PINPad.obj
 0001:0000b798       ?WriteToStream@CComVariant@ATL@@QEAAJPEAUIStream@@G@Z 000000018000c798 f i PINPad.obj
 0001:0000b830       ?_AtlVerifyStackAvailable@_ATL_SAFE_ALLOCA_IMPL@ATL@@YA_N_K@Z 000000018000c830 f i PINPad.obj
 0001:0000b8b4       ?atlCreate@?$CWindowImpl@VCOPOSPINPad@@VCWindow@ATL@@V?$CWinTraits@$0FGAAAAAA@$0A@@3@@ATL@@QEAAPEAUHWND__@@PEAU3@V_U_RECT@2@PEB_WKKV_U_MENUorID@2@PEAX@Z 000000018000c8b4 f i PINPad.obj
 0001:0000b964       ?atlCreate@?$CWindowImplBaseT@VCWindow@ATL@@V?$CWinTraits@$0FGAAAAAA@$0A@@2@@ATL@@QEAAPEAUHWND__@@PEAU3@V_U_RECT@2@PEB_WKKV_U_MENUorID@2@GPEAX@Z 000000018000c964 f i PINPad.obj
 0001:0000bad4       ?ocscpy_s@@YA_NPEA_W_KPEB_W@Z 000000018000cad4 f i PINPad.obj
 0001:0000bb84       DllCanUnloadNow            000000018000cb84 f   PINPad.obj
 0001:0000bb90       DllGetClassObject          000000018000cb90 f   PINPad.obj
 0001:0000bba8       DllMain                    000000018000cba8 f   PINPad.obj
 0001:0000bc50       DllRegisterServer          000000018000cc50 f   PINPad.obj
 0001:0000bc64       DllUnregisterServer        000000018000cc64 f   PINPad.obj
 0001:0000bc78       __local_stdio_printf_options 000000018000cc78 f i PINPad.obj
 0001:0000bc80       swprintf_s                 000000018000cc80 f i PINPad.obj
 0001:0000bcd4       ??0COPOSPINPad@@QEAA@XZ    000000018000ccd4 f   PINPadImpl.obj
 0001:0000bd9c       ??1?$IConnectionPointImpl@VCOPOSPINPad@@$1?DIID__IOPOSPINPadEvents@@3U_GUID@@BVCComDynamicUnkArray@ATL@@@ATL@@QEAA@XZ 000000018000cd9c f i PINPadImpl.obj
 0001:0000bd9c       ??1?$IConnectionPointImpl@VCOPOSPINPad@@$1?IID_IPropertyNotifySink@@3U_GUID@@BVCComDynamicUnkArray@ATL@@@ATL@@QEAA@XZ 000000018000cd9c f i PINPadImpl.obj
 0001:0000bdf8       ??1CComControlBase@ATL@@UEAA@XZ 000000018000cdf8 f i PINPadImpl.obj
 0001:0000be74       ??1COPOSPINPad@@UEAA@XZ    000000018000ce74 f   PINPadImpl.obj
 0001:0000bed8       ?BeginEFTTransaction@COPOSPINPad@@UEAAJPEA_WJPEAJ@Z 000000018000ced8 f   PINPadImpl.obj
 0001:0000bfb0       ?CheckHealth@COPOSPINPad@@UEAAJJPEAJ@Z 000000018000cfb0 f   PINPadImpl.obj
 0001:0000c02c       ?ClaimDevice@COPOSPINPad@@UEAAJJPEAJ@Z 000000018000d02c f   PINPadImpl.obj
 0001:0000c0cc       ?ClearInput@COPOSPINPad@@UEAAJPEAJ@Z 000000018000d0cc f   PINPadImpl.obj
 0001:0000c0f4       ?ClearInputProperties@COPOSPINPad@@UEAAJPEAJ@Z 000000018000d0f4 f   PINPadImpl.obj
 0001:0000c11c       ?Close@COPOSPINPad@@UEAAJPEAJ@Z 000000018000d11c f   PINPadImpl.obj
 0001:0000c1d4       ?CompareFirmwareVersion@COPOSPINPad@@UEAAJPEA_WPEAJ1@Z 000000018000d1d4 f   PINPadImpl.obj
 0001:0000c2b0       ?ComputeMAC@COPOSPINPad@@UEAAJPEA_WPEAPEA_WPEAJ@Z 000000018000d2b0 f   PINPadImpl.obj
 0001:0000c38c       ?DirectIO@COPOSPINPad@@UEAAJJPEAJPEAPEA_W0@Z 000000018000d38c f   PINPadImpl.obj
 0001:0000c488       ?DoInvoke@COPOSPINPad@@IEAAJJPEAVOposVariant@@IHPEAJ_N@Z 000000018000d488 f   PINPadImpl.obj
 0001:0000c5bc       ?EnablePINEntry@COPOSPINPad@@UEAAJPEAJ@Z 000000018000d5bc f   PINPadImpl.obj
 0001:0000c5e4       ?EndEFTTransaction@COPOSPINPad@@UEAAJJPEAJ@Z 000000018000d5e4 f   PINPadImpl.obj
 0001:0000c660       ?EventInit@COPOSPINPad@@IEAAJXZ 000000018000d660 f i PINPadImpl.obj
 0001:0000c7a8       ?EventUninit@COPOSPINPad@@IEAAXXZ 000000018000d7a8 f i PINPadImpl.obj
 0001:0000c80c       ?EventWindowProc@COPOSPINPad@@IEAA_JI_K_J@Z 000000018000d80c f i PINPadImpl.obj
 0001:0000c998       ?FinalConstruct@COPOSPINPad@@QEAAJXZ 000000018000d998 f   PINPadImpl.obj
 0001:0000c9d4       ?FreezeEvents@COPOSPINPad@@MEAAJH@Z 000000018000d9d4 f   PINPadImpl.obj
 0001:0000ca48       ?GetOposProp@COPOSPINPad@@IEAAJJPEAJJ@Z 000000018000da48 f   PINPadImpl.obj
 0001:0000cb64       ?GetOposProp@COPOSPINPad@@IEAAJJPEAPEA_WJ@Z 000000018000db64 f   PINPadImpl.obj
 0001:0000cc90       ?OnDraw@COPOSPINPad@@MEAAJAEAUATL_DRAWINFO@@@Z 000000018000dc90 f   PINPadImpl.obj
 0001:0000cd7c       ?Open@COPOSPINPad@@UEAAJPEA_WPEAJ@Z 000000018000dd7c f   PINPadImpl.obj
 0001:0000d5f8       ?ReleaseDevice@COPOSPINPad@@UEAAJPEAJ@Z 000000018000e5f8 f   PINPadImpl.obj
 0001:0000d664       ?ResetStatistics@COPOSPINPad@@UEAAJPEA_WPEAJ@Z 000000018000e664 f   PINPadImpl.obj
 0001:0000d6ec       ?RetrieveStatistics@COPOSPINPad@@UEAAJPEAPEA_WPEAJ@Z 000000018000e6ec f   PINPadImpl.obj
 0001:0000d774       ?SOProcessID@COPOSPINPad@@UEAAJPEAJ@Z 000000018000e774 f   PINPadImpl.obj
 0001:0000d790       ?SetCOFreezeEvents@COPOSPINPad@@IEAAXF@Z 000000018000e790 f   PINPadImpl.obj
 0001:0000d874       ?SetOposProp@COPOSPINPad@@IEAAJJJJ@Z 000000018000e874 f   PINPadImpl.obj
 0001:0000d9d4       ?SetOposProp@COPOSPINPad@@IEAAJJPEA_WJ@Z 000000018000e9d4 f   PINPadImpl.obj
 0001:0000db2c       ?UpdateFirmware@COPOSPINPad@@UEAAJPEA_WPEAJ@Z 000000018000eb2c f   PINPadImpl.obj
 0001:0000dbb4       ?UpdateKey@COPOSPINPad@@UEAAJJPEA_WPEAJ@Z 000000018000ebb4 f   PINPadImpl.obj
 0001:0000dc8c       ?UpdateStatistics@COPOSPINPad@@UEAAJPEA_WPEAJ@Z 000000018000ec8c f   PINPadImpl.obj
 0001:0000dd14       ?VerifyMAC@COPOSPINPad@@UEAAJPEA_WPEAJ@Z 000000018000ed14 f   PINPadImpl.obj
 0001:0000dd9c       ?get_AccountNumber@COPOSPINPad@@UEAAJPEAPEA_W@Z 000000018000ed9c f   PINPadImpl.obj
 0001:0000ddb0       ?get_AdditionalSecurityInformation@COPOSPINPad@@UEAAJPEAPEA_W@Z 000000018000edb0 f   PINPadImpl.obj
 0001:0000ddc4       ?get_Amount@COPOSPINPad@@UEAAJPEATtagCY@@@Z 000000018000edc4 f   PINPadImpl.obj
 0001:0000de94       ?get_AvailableLanguagesList@COPOSPINPad@@UEAAJPEAPEA_W@Z 000000018000ee94 f   PINPadImpl.obj
 0001:0000dea8       ?get_AvailablePromptsList@COPOSPINPad@@UEAAJPEAPEA_W@Z 000000018000eea8 f   PINPadImpl.obj
 0001:0000debc       ?get_BinaryConversion@COPOSPINPad@@UEAAJPEAJ@Z 000000018000eebc f   PINPadImpl.obj
 0001:0000ded0       ?get_CapCompareFirmwareVersion@COPOSPINPad@@UEAAJPEAF@Z 000000018000eed0 f   PINPadImpl.obj
 0001:0000df04       ?get_CapDisplay@COPOSPINPad@@UEAAJPEAJ@Z 000000018000ef04 f   PINPadImpl.obj
 0001:0000df18       ?get_CapKeyboard@COPOSPINPad@@UEAAJPEAF@Z 000000018000ef18 f   PINPadImpl.obj
 0001:0000df4c       ?get_CapLanguage@COPOSPINPad@@UEAAJPEAJ@Z 000000018000ef4c f   PINPadImpl.obj
 0001:0000df60       ?get_CapMACCalculation@COPOSPINPad@@UEAAJPEAF@Z 000000018000ef60 f   PINPadImpl.obj
 0001:0000df94       ?get_CapPowerReporting@COPOSPINPad@@UEAAJPEAJ@Z 000000018000ef94 f   PINPadImpl.obj
 0001:0000dfa8       ?get_CapStatisticsReporting@COPOSPINPad@@UEAAJPEAF@Z 000000018000efa8 f   PINPadImpl.obj
 0001:0000dfdc       ?get_CapTone@COPOSPINPad@@UEAAJPEAF@Z 000000018000efdc f   PINPadImpl.obj
 0001:0000e010       ?get_CapUpdateFirmware@COPOSPINPad@@UEAAJPEAF@Z 000000018000f010 f   PINPadImpl.obj
 0001:0000e044       ?get_CapUpdateStatistics@COPOSPINPad@@UEAAJPEAF@Z 000000018000f044 f   PINPadImpl.obj
 0001:0000e078       ?get_CheckHealthText@COPOSPINPad@@UEAAJPEAPEA_W@Z 000000018000f078 f   PINPadImpl.obj
 0001:0000e08c       ?get_Claimed@COPOSPINPad@@UEAAJPEAF@Z 000000018000f08c f   PINPadImpl.obj
 0001:0000e0c0       ?get_ControlObjectDescription@COPOSPINPad@@UEAAJPEAPEA_W@Z 000000018000f0c0 f   PINPadImpl.obj
 0001:0000e124       ?get_ControlObjectVersion@COPOSPINPad@@UEAAJPEAJ@Z 000000018000f124 f   PINPadImpl.obj
 0001:0000e130       ?get_DataCount@COPOSPINPad@@UEAAJPEAJ@Z 000000018000f130 f   PINPadImpl.obj
 0001:0000e144       ?get_DataEventEnabled@COPOSPINPad@@UEAAJPEAF@Z 000000018000f144 f   PINPadImpl.obj
 0001:0000e178       ?get_DeviceDescription@COPOSPINPad@@UEAAJPEAPEA_W@Z 000000018000f178 f   PINPadImpl.obj
 0001:0000e18c       ?get_DeviceEnabled@COPOSPINPad@@UEAAJPEAF@Z 000000018000f18c f   PINPadImpl.obj
 0001:0000e1bc       ?get_DeviceName@COPOSPINPad@@UEAAJPEAPEA_W@Z 000000018000f1bc f   PINPadImpl.obj
 0001:0000e1d0       ?get_EncryptedPIN@COPOSPINPad@@UEAAJPEAPEA_W@Z 000000018000f1d0 f   PINPadImpl.obj
 0001:0000e1e4       ?get_FreezeEvents@COPOSPINPad@@UEAAJPEAF@Z 000000018000f1e4 f   PINPadImpl.obj
 0001:0000e214       ?get_MaximumPINLength@COPOSPINPad@@UEAAJPEAJ@Z 000000018000f214 f   PINPadImpl.obj
 0001:0000e228       ?get_MerchantID@COPOSPINPad@@UEAAJPEAPEA_W@Z 000000018000f228 f   PINPadImpl.obj
 0001:0000e23c       ?get_MinimumPINLength@COPOSPINPad@@UEAAJPEAJ@Z 000000018000f23c f   PINPadImpl.obj
 0001:0000e250       ?get_OpenResult@COPOSPINPad@@UEAAJPEAJ@Z 000000018000f250 f   PINPadImpl.obj
 0001:0000e25c       ?get_PINEntryEnabled@COPOSPINPad@@UEAAJPEAF@Z 000000018000f25c f   PINPadImpl.obj
 0001:0000e290       ?get_PowerNotify@COPOSPINPad@@UEAAJPEAJ@Z 000000018000f290 f   PINPadImpl.obj
 0001:0000e2a4       ?get_PowerState@COPOSPINPad@@UEAAJPEAJ@Z 000000018000f2a4 f   PINPadImpl.obj
 0001:0000e2b8       ?get_Prompt@COPOSPINPad@@UEAAJPEAJ@Z 000000018000f2b8 f   PINPadImpl.obj
 0001:0000e2cc       ?get_PromptLanguage@COPOSPINPad@@UEAAJPEAJ@Z 000000018000f2cc f   PINPadImpl.obj
 0001:0000e2e0       ?get_ResultCode@COPOSPINPad@@UEAAJPEAJ@Z 000000018000f2e0 f   PINPadImpl.obj
 0001:0000e31c       ?get_ResultCodeExtended@COPOSPINPad@@UEAAJPEAJ@Z 000000018000f31c f   PINPadImpl.obj
 0001:0000e330       ?get_ServiceObjectDescription@COPOSPINPad@@UEAAJPEAPEA_W@Z 000000018000f330 f   PINPadImpl.obj
 0001:0000e344       ?get_ServiceObjectVersion@COPOSPINPad@@UEAAJPEAJ@Z 000000018000f344 f   PINPadImpl.obj
 0001:0000e358       ?get_State@COPOSPINPad@@UEAAJPEAJ@Z 000000018000f358 f   PINPadImpl.obj
 0001:0000e384       ?get_TerminalID@COPOSPINPad@@UEAAJPEAPEA_W@Z 000000018000f384 f   PINPadImpl.obj
 0001:0000e398       ?get_Track1Data@COPOSPINPad@@UEAAJPEAPEA_W@Z 000000018000f398 f   PINPadImpl.obj
 0001:0000e3ac       ?get_Track2Data@COPOSPINPad@@UEAAJPEAPEA_W@Z 000000018000f3ac f   PINPadImpl.obj
 0001:0000e3c0       ?get_Track3Data@COPOSPINPad@@UEAAJPEAPEA_W@Z 000000018000f3c0 f   PINPadImpl.obj
 0001:0000e3d4       ?get_Track4Data@COPOSPINPad@@UEAAJPEAPEA_W@Z 000000018000f3d4 f   PINPadImpl.obj
 0001:0000e3e8       ?get_TransactionType@COPOSPINPad@@UEAAJPEAJ@Z 000000018000f3e8 f   PINPadImpl.obj
 0001:0000e3fc       ?put_AccountNumber@COPOSPINPad@@UEAAJPEA_W@Z 000000018000f3fc f   PINPadImpl.obj
 0001:0000e410       ?put_Amount@COPOSPINPad@@UEAAJTtagCY@@@Z 000000018000f410 f   PINPadImpl.obj
 0001:0000e4fc       ?put_BinaryConversion@COPOSPINPad@@UEAAJJ@Z 000000018000f4fc f   PINPadImpl.obj
 0001:0000e510       ?put_DataEventEnabled@COPOSPINPad@@UEAAJF@Z 000000018000f510 f   PINPadImpl.obj
 0001:0000e528       ?put_DeviceEnabled@COPOSPINPad@@UEAAJF@Z 000000018000f528 f   PINPadImpl.obj
 0001:0000e540       ?put_FreezeEvents@COPOSPINPad@@UEAAJF@Z 000000018000f540 f   PINPadImpl.obj
 0001:0000e590       ?put_MaximumPINLength@COPOSPINPad@@UEAAJJ@Z 000000018000f590 f   PINPadImpl.obj
 0001:0000e5a4       ?put_MerchantID@COPOSPINPad@@UEAAJPEA_W@Z 000000018000f5a4 f   PINPadImpl.obj
 0001:0000e5b8       ?put_MinimumPINLength@COPOSPINPad@@UEAAJJ@Z 000000018000f5b8 f   PINPadImpl.obj
 0001:0000e5cc       ?put_PowerNotify@COPOSPINPad@@UEAAJJ@Z 000000018000f5cc f   PINPadImpl.obj
 0001:0000e5e0       ?put_Prompt@COPOSPINPad@@UEAAJJ@Z 000000018000f5e0 f   PINPadImpl.obj
 0001:0000e5f4       ?put_PromptLanguage@COPOSPINPad@@UEAAJJ@Z 000000018000f5f4 f   PINPadImpl.obj
 0001:0000e608       ?put_TerminalID@COPOSPINPad@@UEAAJPEA_W@Z 000000018000f608 f   PINPadImpl.obj
 0001:0000e61c       ?put_Track1Data@COPOSPINPad@@UEAAJPEA_W@Z 000000018000f61c f   PINPadImpl.obj
 0001:0000e630       ?put_Track2Data@COPOSPINPad@@UEAAJPEA_W@Z 000000018000f630 f   PINPadImpl.obj
 0001:0000e644       ?put_Track3Data@COPOSPINPad@@UEAAJPEA_W@Z 000000018000f644 f   PINPadImpl.obj
 0001:0000e658       ?put_Track4Data@COPOSPINPad@@UEAAJPEA_W@Z 000000018000f658 f   PINPadImpl.obj
 0001:0000e66c       ?put_TransactionType@COPOSPINPad@@UEAAJJ@Z 000000018000f66c f   PINPadImpl.obj
 0001:0000e680       ?s_EventWindowProc@COPOSPINPad@@KA_JPEAUHWND__@@I_K_J@Z 000000018000f680 f i PINPadImpl.obj
 0001:0000e6fc       ??_U@YAPEAX_K@Z            000000018000f6fc f   LIBCMT:new_array.obj
 0001:0000e704       ??3@YAXPEAX_K@Z            000000018000f704 f   LIBCMT:delete_scalar_size.obj
 0001:0000e704       ??_V@YAXPEAX@Z             000000018000f704 f   LIBCMT:delete_array.obj
 0001:0000e70c       ??_V@YAXPEAX_K@Z           000000018000f70c f   LIBCMT:delete_array_size.obj
 0001:0000e714       __scrt_acquire_startup_lock 000000018000f714 f   LIBCMT:utility.obj
 0001:0000e750       __scrt_dllmain_after_initialize_c 000000018000f750 f   LIBCMT:utility.obj
 0001:0000e784       __scrt_dllmain_before_initialize_c 000000018000f784 f   LIBCMT:utility.obj
 0001:0000e79c       __scrt_dllmain_crt_thread_attach 000000018000f79c f   LIBCMT:utility.obj
 0001:0000e7c4       __scrt_dllmain_crt_thread_detach 000000018000f7c4 f   LIBCMT:utility.obj
 0001:0000e7dc       __scrt_dllmain_exception_filter 000000018000f7dc f   LIBCMT:utility.obj
 0001:0000e83c       __scrt_dllmain_uninitialize_c 000000018000f83c f   LIBCMT:utility.obj
 0001:0000e86c       __scrt_dllmain_uninitialize_critical 000000018000f86c f   LIBCMT:utility.obj
 0001:0000e880       __scrt_initialize_crt      000000018000f880 f   LIBCMT:utility.obj
 0001:0000e8cc       __scrt_initialize_onexit_tables 000000018000f8cc f   LIBCMT:utility.obj
 0001:0000e958       __scrt_is_nonwritable_in_current_image 000000018000f958 f   LIBCMT:utility.obj
 0001:0000e9f0       __scrt_release_startup_lock 000000018000f9f0 f   LIBCMT:utility.obj
 0001:0000ea14       __scrt_uninitialize_crt    000000018000fa14 f   LIBCMT:utility.obj
 0001:0000ea40       _onexit                    000000018000fa40 f   LIBCMT:utility.obj
 0001:0000ea7c       atexit                     000000018000fa7c f   LIBCMT:utility.obj
 0001:0000ea94       ??3@YAXPEAX@Z              000000018000fa94 f   LIBCMT:delete_scalar.obj
 0001:0000eb94       _Init_thread_footer        000000018000fb94 f   LIBCMT:thread_safe_statics.obj
 0001:0000ebf4       _Init_thread_header        000000018000fbf4 f   LIBCMT:thread_safe_statics.obj
 0001:0000ec5c       _Init_thread_notify        000000018000fc5c f   LIBCMT:thread_safe_statics.obj
 0001:0000eca0       _Init_thread_wait          000000018000fca0 f   LIBCMT:thread_safe_statics.obj
 0001:0000ed04       __raise_securityfailure    000000018000fd04 f   LIBCMT:gs_report.obj
 0001:0000ed38       __report_gsfailure         000000018000fd38 f   LIBCMT:gs_report.obj
 0001:0000ee0c       __report_rangecheckfailure 000000018000fe0c f   LIBCMT:gs_report.obj
 0001:0000ee20       __report_securityfailure   000000018000fe20 f   LIBCMT:gs_report.obj
 0001:0000efa0       ??2@YAPEAX_KAEBUnothrow_t@std@@@Z 000000018000ffa0 f   LIBCMT:new_scalar_nothrow.obj
 0001:0000efc0       ??_U@YAPEAX_KAEBUnothrow_t@std@@@Z 000000018000ffc0 f   LIBCMT:new_array_nothrow.obj
 0001:0000efc8       __GSHandlerCheck           000000018000ffc8 f   LIBCMT:gshandler.obj
 0001:0000efe8       __GSHandlerCheckCommon     000000018000ffe8 f   LIBCMT:gshandler.obj
 0001:0000f044       __GSHandlerCheck_SEH       0000000180010044 f   LIBCMT:gshandlerseh.obj
 0001:0000f0e0       __chkstk                   00000001800100e0 f   LIBCMT:chkstk.obj
 0001:0000f0e0       _alloca_probe              00000001800100e0 f   LIBCMT:chkstk.obj
 0001:0000f150       __security_check_cookie    0000000180010150 f   LIBCMT:amdsecgs.obj
 0001:0000f494       _DllMainCRTStartup         0000000180010494 f   LIBCMT:dll_dllmain.obj
 0001:0000f4d4       ??2@YAPEAX_K@Z             00000001800104d4 f   LIBCMT:new_scalar.obj
 0001:0000f510       __isa_available_init       0000000180010510 f   LIBCMT:cpu_disp.obj
 0001:0000f6b4       __scrt_is_ucrt_dll_in_use  00000001800106b4 f   LIBCMT:ucrt_detection.obj
 0001:0000f6c0       __crt_debugger_hook        00000001800106c0 f   LIBCMT:utility_desktop.obj
 0001:0000f6c8       __scrt_fastfail            00000001800106c8 f   LIBCMT:utility_desktop.obj
 0001:0000f814       __security_init_cookie     0000000180010814 f   LIBCMT:gs_support.obj
 0001:0000f8c0       ?__scrt_initialize_type_info@@YAXXZ 00000001800108c0 f   LIBCMT:tncleanup.obj
 0001:0000f8d0       ?__scrt_uninitialize_type_info@@YAXXZ 00000001800108d0 f   LIBCMT:tncleanup.obj
 0001:0000f8dc       __local_stdio_scanf_options 00000001800108dc f i LIBCMT:default_local_stdio_options.obj
 0001:0000f8e4       __scrt_initialize_default_local_stdio_options 00000001800108e4 f   LIBCMT:default_local_stdio_options.obj
 0001:0000f900       __scrt_get_dyn_tls_init_callback 0000000180010900 f   LIBCMT:dyn_tls_init.obj
 0001:0000f908       _RTC_Initialize            0000000180010908 f   LIBCMT:initsect.obj
 0001:0000f944       _RTC_Terminate             0000000180010944 f   LIBCMT:initsect.obj
 0001:0000f980       ??0bad_alloc@std@@QEAA@AEBV01@@Z 0000000180010980 f i LIBCMT:throw_bad_alloc.obj
 0001:0000f9bc       ??0bad_alloc@std@@QEAA@XZ  00000001800109bc f i LIBCMT:throw_bad_alloc.obj
 0001:0000f9dc       ??0bad_array_new_length@std@@QEAA@AEBV01@@Z 00000001800109dc f i LIBCMT:throw_bad_alloc.obj
 0001:0000fa18       ??0bad_array_new_length@std@@QEAA@XZ 0000000180010a18 f i LIBCMT:throw_bad_alloc.obj
 0001:0000fa38       ??0exception@std@@QEAA@AEBV01@@Z 0000000180010a38 f i LIBCMT:throw_bad_alloc.obj
 0001:0000fa6c       ??1bad_alloc@std@@UEAA@XZ  0000000180010a6c f i LIBCMT:throw_bad_alloc.obj
 0001:0000fa6c       ??1bad_exception@std@@UEAA@XZ 0000000180010a6c f i libvcruntime:frame.obj
 0001:0000fa6c       ??1bad_array_new_length@std@@UEAA@XZ 0000000180010a6c f i LIBCMT:throw_bad_alloc.obj
 0001:0000fa80       ??_Eexception@std@@UEAAPEAXI@Z 0000000180010a80 f i LIBCMT:throw_bad_alloc.obj
 0001:0000fa80       ??_Gbad_alloc@std@@UEAAPEAXI@Z 0000000180010a80 f i LIBCMT:throw_bad_alloc.obj
 0001:0000fa80       ??_Ebad_exception@std@@UEAAPEAXI@Z 0000000180010a80 f i libvcruntime:frame.obj
 0001:0000fa80       ??_Gbad_array_new_length@std@@UEAAPEAXI@Z 0000000180010a80 f i LIBCMT:throw_bad_alloc.obj
 0001:0000fa80       ??_Ebad_array_new_length@std@@UEAAPEAXI@Z 0000000180010a80 f i LIBCMT:throw_bad_alloc.obj
 0001:0000fa80       ??_Ebad_alloc@std@@UEAAPEAXI@Z 0000000180010a80 f i LIBCMT:throw_bad_alloc.obj
 0001:0000fa80       ??_Gexception@std@@UEAAPEAXI@Z 0000000180010a80 f i LIBCMT:throw_bad_alloc.obj
 0001:0000fa80       ??_Gbad_exception@std@@UEAAPEAXI@Z 0000000180010a80 f i libvcruntime:frame.obj
 0001:0000fac4       ?__scrt_throw_std_bad_alloc@@YAXXZ 0000000180010ac4 f   LIBCMT:throw_bad_alloc.obj
 0001:0000fae4       ?__scrt_throw_std_bad_array_new_length@@YAXXZ 0000000180010ae4 f   LIBCMT:throw_bad_alloc.obj
 0001:0000fb04       ?what@exception@std@@UEBAPEBDXZ 0000000180010b04 f i LIBCMT:throw_bad_alloc.obj
 0001:0000fb20       ??_Etype_info@@UEAAPEAXI@Z 0000000180010b20 f i LIBCMT:std_type_info_static.obj
 0001:0000fb20       ??_Gtype_info@@UEAAPEAXI@Z 0000000180010b20 f i LIBCMT:std_type_info_static.obj
 0001:0000fb4c       ??0CAtlBaseModule@ATL@@QEAA@XZ 0000000180010b4c f   atls:atlbase.obj
 0001:0000fbf4       ??1CAtlBaseModule@ATL@@QEAA@XZ 0000000180010bf4 f   atls:atlbase.obj
 0001:0000fd28       ?__AllocStdCallThunk_cmn@@YAPEAXXZ 0000000180010d28 f   atls:atlthunk.obj
 0001:0000fe80       AtlThunk_AllocateData      0000000180010e80 f   atls:atlthunk.obj
 0001:0000fefc       AtlThunk_DataToCode        0000000180010efc f   atls:atlthunk.obj
 0001:0000ff50       AtlThunk_FreeData          0000000180010f50 f   atls:atlthunk.obj
 0001:0000ffb0       AtlThunk_InitData          0000000180010fb0 f   atls:atlthunk.obj
 0001:00010058       _get_purecall_handler      0000000180011058 f   libvcruntime:purevirt.obj
 0001:00010060       _purecall                  0000000180011060 f   libvcruntime:purevirt.obj
 0001:0001007c       wcsstr                     000000018001107c f   libvcruntime:wcsstr.obj
 0001:000102b0       memcmp                     00000001800112b0 f   libvcruntime:memcmp.obj
 0001:00010390       memcpy_repmovs             0000000180011390 f   libvcruntime:memcpy.obj
 0001:000103b0       memmove                    00000001800113b0 f   libvcruntime:memcpy.obj
 0001:000103b0       memcpy                     00000001800113b0 f   libvcruntime:memcpy.obj
 0001:000107a0       memset_repmovs             00000001800117a0 f   libvcruntime:memset.obj
 0001:000107c0       memset                     00000001800117c0 f   libvcruntime:memset.obj
 0001:00010950       __vcrt_initialize          0000000180011950 f   libvcruntime:initialization.obj
 0001:00010978       __vcrt_thread_attach       0000000180011978 f   libvcruntime:initialization.obj
 0001:0001098c       __vcrt_thread_detach       000000018001198c f   libvcruntime:initialization.obj
 0001:000109a0       __vcrt_uninitialize        00000001800119a0 f   libvcruntime:initialization.obj
 0001:000109bc       __vcrt_uninitialize_critical 00000001800119bc f   libvcruntime:initialization.obj
 0001:000109cc       __C_specific_handler       00000001800119cc f   libvcruntime:riscchandler.obj
 0001:00010bd8       ??$_CallSETranslator@V__FrameHandler3@@@@YAHPEAUEHExceptionRecord@@PEA_KPEAU_CONTEXT@@PEAU_xDISPATCHER_CONTEXT@@PEBU_s_FuncInfo@@K1@Z 0000000180011bd8 f i libvcruntime:risctrnsctrl.obj
 0001:00010c2c       ?CatchTryBlock@__FrameHandler3@@SAPEBU_s_TryBlockMapEntry@@PEBU_s_FuncInfo@@H@Z 0000000180011c2c f   libvcruntime:risctrnsctrl.obj
 0001:00010c80       ?ExecutionInCatch@__FrameHandler3@@SA_NPEAU_xDISPATCHER_CONTEXT@@PEBU_s_FuncInfo@@@Z 0000000180011c80 f   libvcruntime:risctrnsctrl.obj
 0001:00010cac       ?FrameUnwindToEmptyState@__FrameHandler3@@SAXPEA_KPEAU_xDISPATCHER_CONTEXT@@PEBU_s_FuncInfo@@@Z 0000000180011cac f   libvcruntime:risctrnsctrl.obj
 0001:00010d10       ?GetEstablisherFrame@__FrameHandler3@@SAPEA_KPEA_KPEAU_xDISPATCHER_CONTEXT@@PEBU_s_FuncInfo@@0@Z 0000000180011d10 f   libvcruntime:risctrnsctrl.obj
 0001:00010ddc       ?GetRangeOfTrysToCheck@__FrameHandler3@@SA?AU?$pair@Viterator@TryBlockMap@__FrameHandler3@@V123@@std@@AEAVTryBlockMap@1@HPEAU_xDISPATCHER_CONTEXT@@PEBU_s_FuncInfo@@H@Z 0000000180011ddc f   libvcruntime:risctrnsctrl.obj
 0001:00010f1c       ?UnwindNestedFrames@__FrameHandler3@@SAXPEA_KPEAUEHExceptionRecord@@PEAU_CONTEXT@@0PEAXPEBU_s_FuncInfo@@HHPEBU_s_HandlerType@@PEAU_xDISPATCHER_CONTEXT@@E@Z 0000000180011f1c f   libvcruntime:risctrnsctrl.obj
 0001:00011020       _CreateFrameInfo           0000000180012020 f   libvcruntime:risctrnsctrl.obj
 0001:0001105c       _FindAndUnlinkFrame        000000018001205c f   libvcruntime:risctrnsctrl.obj
 0001:000110b0       _GetImageBase              00000001800120b0 f   libvcruntime:risctrnsctrl.obj
 0001:000110c4       _GetThrowImageBase         00000001800120c4 f   libvcruntime:risctrnsctrl.obj
 0001:000110d8       _SetImageBase              00000001800120d8 f   libvcruntime:risctrnsctrl.obj
 0001:000110f0       _SetThrowImageBase         00000001800120f0 f   libvcruntime:risctrnsctrl.obj
 0001:00011108       __CxxFrameHandler3         0000000180012108 f   libvcruntime:risctrnsctrl.obj
 0001:00011190       __DestructExceptionObject  0000000180012190 f   libvcruntime:ehhelpers.obj
 0001:00011200       ?_CallMemberFunction0@@YAXQEAX0@Z 0000000180012200 f i libvcruntime:ehhelpers.obj
 0001:00011204       _IsExceptionObjectToBeDestroyed 0000000180012204 f   libvcruntime:ehhelpers.obj
 0001:00011234       __AdjustPointer            0000000180012234 f   libvcruntime:ehhelpers.obj
 0001:00011258       __FrameUnwindFilter        0000000180012258 f   libvcruntime:ehhelpers.obj
 0001:000112c0       __std_type_info_compare    00000001800122c0 f   libvcruntime:std_type_info.obj
 0001:000112e8       __std_type_info_destroy_list 00000001800122e8 f   libvcruntime:std_type_info.obj
 0001:00011314       __std_exception_copy       0000000180012314 f   libvcruntime:std_exception.obj
 0001:000113a4       __std_exception_destroy    00000001800123a4 f   libvcruntime:std_exception.obj
 0001:000113cc       _CxxThrowException         00000001800123cc f   libvcruntime:throw.obj
 0001:0001146c       __vcrt_freefls             000000018001246c f   libvcruntime:per_thread_data.obj
 0001:0001148c       __vcrt_freeptd             000000018001248c f   libvcruntime:per_thread_data.obj
 0001:000114dc       __vcrt_getptd              00000001800124dc f   libvcruntime:per_thread_data.obj
 0001:000114f8       __vcrt_getptd_noexit       00000001800124f8 f   libvcruntime:per_thread_data.obj
 0001:000115b8       __vcrt_initialize_ptd      00000001800125b8 f   libvcruntime:per_thread_data.obj
 0001:00011600       __vcrt_uninitialize_ptd    0000000180012600 f   libvcruntime:per_thread_data.obj
 0001:00011624       __vcrt_initialize_locks    0000000180012624 f   libvcruntime:locks.obj
 0001:00011658       __vcrt_uninitialize_locks  0000000180012658 f   libvcruntime:locks.obj
 0001:000116a0       _NLG_Notify                00000001800126a0 f   libvcruntime:notify.obj
 0001:000116c0       __NLG_Dispatch2            00000001800126c0 f   libvcruntime:notify.obj
 0001:000116d0       __NLG_Return2              00000001800126d0 f   libvcruntime:notify.obj
 0001:000116d4       __except_validate_context_record 00000001800126d4 f   libvcruntime:jbcxrval.obj
 0001:0001170c       ?GetCurrentState@__FrameHandler3@@SAHPEA_KPEAU_xDISPATCHER_CONTEXT@@PEBU_s_FuncInfo@@@Z 000000018001270c f   libvcruntime:ehstate.obj
 0001:00011734       ?GetUnwindTryBlock@__FrameHandler3@@SAHPEA_KPEAU_xDISPATCHER_CONTEXT@@PEBU_s_FuncInfo@@@Z 0000000180012734 f   libvcruntime:ehstate.obj
 0001:00011760       ?SetState@__FrameHandler3@@SAXPEA_KPEBU_s_FuncInfo@@H@Z 0000000180012760 f   libvcruntime:ehstate.obj
 0001:0001176c       ?SetUnwindTryBlock@__FrameHandler3@@SAXPEA_KPEAU_xDISPATCHER_CONTEXT@@PEBU_s_FuncInfo@@H@Z 000000018001276c f   libvcruntime:ehstate.obj
 0001:000117a8       ?StateFromControlPc@__FrameHandler3@@SAHPEBU_s_FuncInfo@@PEAU_xDISPATCHER_CONTEXT@@@Z 00000001800127a8 f   libvcruntime:ehstate.obj
 0001:000117b0       ?StateFromIp@__FrameHandler3@@SAHPEBU_s_FuncInfo@@PEAU_xDISPATCHER_CONTEXT@@_K@Z 00000001800127b0 f   libvcruntime:ehstate.obj
 0001:000122b8       ??$TypeMatchHelper@V__FrameHandler3@@@@YAHPEBU_s_HandlerType@@PEBU_s_CatchableType@@PEBU_s_ThrowInfo@@@Z 00000001800132b8 f i libvcruntime:frame.obj
 0001:000123fc       ??$__InternalCxxFrameHandler@V__FrameHandler3@@@@YA?AW4_EXCEPTION_DISPOSITION@@PEAUEHExceptionRecord@@PEA_KPEAU_CONTEXT@@PEAU_xDISPATCHER_CONTEXT@@PEBU_s_FuncInfo@@H1E@Z 00000001800133fc f i libvcruntime:frame.obj
 0001:00012644       ??0bad_exception@std@@QEAA@AEBV01@@Z 0000000180013644 f i libvcruntime:frame.obj
 0001:00012680       ??0bad_exception@std@@QEAA@XZ 0000000180013680 f i libvcruntime:frame.obj
 0001:000126a0       ?CxxCallCatchBlock@__FrameHandler3@@SAPEAXPEAU_EXCEPTION_RECORD@@@Z 00000001800136a0 f   libvcruntime:frame.obj
 0001:00012914       ?FrameUnwindToState@__FrameHandler3@@SAXPEA_KPEAU_xDISPATCHER_CONTEXT@@PEBU_s_FuncInfo@@H@Z 0000000180013914 f   libvcruntime:frame.obj
 0001:00012aa0       ?GetHandlerSearchState@__FrameHandler3@@SAHPEA_KPEAU_xDISPATCHER_CONTEXT@@PEBU_s_FuncInfo@@@Z 0000000180013aa0 f i libvcruntime:frame.obj
 0001:00012cb0       ?_CallMemberFunction1@@YAXQEAX00@Z 0000000180013cb0 f i libvcruntime:frame.obj
 0001:00012cbc       ?_CallMemberFunction2@@YAXQEAX00H@Z 0000000180013cbc f i libvcruntime:frame.obj
 0001:00012e28       __vcrt_FlsAlloc            0000000180013e28 f   libvcruntime:winapi_downlevel.obj
 0001:00012e70       __vcrt_FlsFree             0000000180013e70 f   libvcruntime:winapi_downlevel.obj
 0001:00012eb8       __vcrt_FlsGetValue         0000000180013eb8 f   libvcruntime:winapi_downlevel.obj
 0001:00012f00       __vcrt_FlsSetValue         0000000180013f00 f   libvcruntime:winapi_downlevel.obj
 0001:00012f54       __vcrt_InitializeCriticalSectionEx 0000000180013f54 f   libvcruntime:winapi_downlevel.obj
 0001:00012fd0       _CallSettingFrame          0000000180013fd0 f   libvcruntime:handlers.obj
 0001:00013020       _CallSettingFrame_LookupContinuationIndex 0000000180014020 f   libvcruntime:handlers.obj
 0001:00013050       _CallSettingFrame_NotifyContinuationAddr 0000000180014050 f   libvcruntime:handlers.obj
 0001:00013080       _CallSettingFrameEncoded   0000000180014080 f   libvcruntime:handlers.obj
 0001:000130c8       free                       00000001800140c8 f   libucrt:free.obj
 0001:000130dc       __acrt_call_reportfault    00000001800140dc f   libucrt:invalid_parameter.obj
 0001:00013238       __acrt_initialize_invalid_parameter_handler 0000000180014238 f   libucrt:invalid_parameter.obj
 0001:00013240       _invalid_parameter         0000000180014240 f   libucrt:invalid_parameter.obj
 0001:000132f0       _invalid_parameter_noinfo  00000001800142f0 f   libucrt:invalid_parameter.obj
 0001:00013310       _invoke_watson             0000000180014310 f   libucrt:invalid_parameter.obj
 0001:00013358       __acrt_errno_from_os_error 0000000180014358 f   libucrt:errno.obj
 0001:000133a0       __acrt_errno_map_os_error  00000001800143a0 f   libucrt:errno.obj
 0001:000133f0       __doserrno                 00000001800143f0 f   libucrt:errno.obj
 0001:00013410       _errno                     0000000180014410 f   libucrt:errno.obj
 0001:00013430       calloc                     0000000180014430 f   libucrt:calloc.obj
 0001:00013438       malloc                     0000000180014438 f   libucrt:malloc.obj
 0001:00013440       _recalloc                  0000000180014440 f   libucrt:recalloc.obj
 0001:00013448       _recalloc_base             0000000180014448 f   libucrt:recalloc.obj
 0001:000134e0       _resetstkoflw              00000001800144e0 f   libucrt:resetstk.obj
 0001:0001360c       wcscat_s                   000000018001460c f   libucrt:wcscat_s.obj
 0001:0001368c       wcscpy_s                   000000018001468c f   libucrt:wcscpy_s.obj
 0001:000136f4       wcsncpy_s                  00000001800146f4 f   libucrt:wcsncpy_s.obj
 0001:000139ac       ??$ensure_buffer_is_big_enough@D@formatting_buffer@__crt_stdio_output@@QEAA_N_K@Z 00000001800149ac f i libucrt:output.obj
 0001:00013a54       ??$ensure_buffer_is_big_enough@_W@formatting_buffer@__crt_stdio_output@@QEAA_N_K@Z 0000000180014a54 f i libucrt:output.obj
 0001:00013b00       ??$is_wide_character_specifier@_W@__crt_stdio_output@@YA_N_K_WW4length_modifier@0@@Z 0000000180014b00 f i libucrt:output.obj
 0001:00013b40       ??$type_case_integer_parse_into_buffer@I@?$output_processor@_WV?$string_output_adapter@_W@__crt_stdio_output@@V?$format_validation_base@_WV?$string_output_adapter@_W@__crt_stdio_output@@@2@@__crt_stdio_output@@AEAAXII_N@Z 0000000180014b40 f i libucrt:output.obj
 0001:00013be4       ??$type_case_integer_parse_into_buffer@_K@?$output_processor@_WV?$string_output_adapter@_W@__crt_stdio_output@@V?$format_validation_base@_WV?$string_output_adapter@_W@__crt_stdio_output@@@2@@__crt_stdio_output@@AEAAX_KI_N@Z 0000000180014be4 f i libucrt:output.obj
 0001:00013c88       ??$write_multiple_characters@V?$string_output_adapter@_W@__crt_stdio_output@@D@__crt_stdio_output@@YAXAEBV?$string_output_adapter@_W@0@DHQEAH@Z 0000000180014c88 f i libucrt:output.obj
 0001:00013d04       ??0_LocaleUpdate@@QEAA@QEAU__crt_locale_pointers@@@Z 0000000180014d04 f i libucrt:output.obj
 0001:00013da0       ?crop_zeroes@__crt_stdio_output@@YAXPEADQEAU__crt_locale_pointers@@@Z 0000000180014da0 f i libucrt:output.obj
 0001:00013e0c       ?parse_int_from_format_string@?$output_processor@_WV?$string_output_adapter@_W@__crt_stdio_output@@V?$format_validation_base@_WV?$string_output_adapter@_W@__crt_stdio_output@@@2@@__crt_stdio_output@@AEAA_NQEAH@Z 0000000180014e0c f i libucrt:output.obj
 0001:00013eb0       ?process@?$output_processor@_WV?$string_output_adapter@_W@__crt_stdio_output@@V?$format_validation_base@_WV?$string_output_adapter@_W@__crt_stdio_output@@@2@@__crt_stdio_output@@QEAAHXZ 0000000180014eb0 f i libucrt:output.obj
 0001:00014138       ?state_case_size@?$output_processor@_WV?$string_output_adapter@_W@__crt_stdio_output@@V?$format_validation_base@_WV?$string_output_adapter@_W@__crt_stdio_output@@@2@@__crt_stdio_output@@AEAA_NXZ 0000000180015138 f i libucrt:output.obj
 0001:000142d0       ?state_case_type@?$output_processor@_WV?$string_output_adapter@_W@__crt_stdio_output@@V?$format_validation_base@_WV?$string_output_adapter@_W@__crt_stdio_output@@@2@@__crt_stdio_output@@AEAA_NXZ 00000001800152d0 f i libucrt:output.obj
 0001:0001459c       ?type_case_Z@?$output_processor@_WV?$string_output_adapter@_W@__crt_stdio_output@@V?$format_validation_base@_WV?$string_output_adapter@_W@__crt_stdio_output@@@2@@__crt_stdio_output@@AEAA_NXZ 000000018001559c f i libucrt:output.obj
 0001:00014618       ?type_case_a@?$output_processor@_WV?$string_output_adapter@_W@__crt_stdio_output@@V?$format_validation_base@_WV?$string_output_adapter@_W@__crt_stdio_output@@@2@@__crt_stdio_output@@AEAA_NXZ 0000000180015618 f i libucrt:output.obj
 0001:00014854       ?type_case_c_tchar@?$output_processor@_WV?$string_output_adapter@_W@__crt_stdio_output@@V?$format_validation_base@_WV?$string_output_adapter@_W@__crt_stdio_output@@@2@@__crt_stdio_output@@AEAA_N_W@Z 0000000180015854 f i libucrt:output.obj
 0001:000148fc       ?type_case_integer@?$output_processor@_WV?$string_output_adapter@_W@__crt_stdio_output@@V?$format_validation_base@_WV?$string_output_adapter@_W@__crt_stdio_output@@@2@@__crt_stdio_output@@AEAA_NI_N@Z 00000001800158fc f i libucrt:output.obj
 0001:00014ac8       ?type_case_n@?$output_processor@_WV?$string_output_adapter@_W@__crt_stdio_output@@V?$format_validation_base@_WV?$string_output_adapter@_W@__crt_stdio_output@@@2@@__crt_stdio_output@@AEAA_NXZ 0000000180015ac8 f i libucrt:output.obj
 0001:00014ba4       ?type_case_s@?$output_processor@_WV?$string_output_adapter@_W@__crt_stdio_output@@V?$format_validation_base@_WV?$string_output_adapter@_W@__crt_stdio_output@@@2@@__crt_stdio_output@@AEAA_NXZ 0000000180015ba4 f i libucrt:output.obj
 0001:00014c6c       ?write_stored_string_tchar@?$output_processor@_WV?$string_output_adapter@_W@__crt_stdio_output@@V?$format_validation_base@_WV?$string_output_adapter@_W@__crt_stdio_output@@@2@@__crt_stdio_output@@AEAA_N_W@Z 0000000180015c6c f i libucrt:output.obj
 0001:00014d58       ?write_string@?$string_output_adapter@_W@__crt_stdio_output@@QEBAXQEB_WHQEAHAEAV__crt_deferred_errno_cache@@@Z 0000000180015d58 f i libucrt:output.obj
 0001:00014e00       __stdio_common_vswprintf_s 0000000180015e00 f   libucrt:output.obj
 0001:00014e70       _seh_filter_dll            0000000180015e70 f   libucrt:exception_filter.obj
 0001:00014e84       _seh_filter_exe            0000000180015e84 f   libucrt:exception_filter.obj
 0001:00015274       __acrt_initialize_thread_local_exit_callback 0000000180016274 f   libucrt:exit.obj
 0001:0001527c       _cexit                     000000018001627c f   libucrt:exit.obj
 0001:0001528c       _exit                      000000018001628c f   libucrt:exit.obj
 0001:00015298       _is_c_termination_complete 0000000180016298 f   libucrt:exit.obj
 0001:00015464       __acrt_allocate_buffer_for_argv 0000000180016464 f   libucrt:argv_parsing.obj
 0001:000154c4       _configure_narrow_argv     00000001800164c4 f   libucrt:argv_parsing.obj
 0001:0001583c       __dcrt_uninitialize_environments_nolock 000000018001683c f   libucrt:environment_initialization.obj
 0001:00015874       _initialize_narrow_environment 0000000180016874 f   libucrt:environment_initialization.obj
 0001:00015bbc       _crt_atexit                0000000180016bbc f   libucrt:onexit.obj
 0001:00015bcc       _execute_onexit_table      0000000180016bcc f   libucrt:onexit.obj
 0001:00015c08       _initialize_onexit_table   0000000180016c08 f   libucrt:onexit.obj
 0001:00015c30       _register_onexit_function  0000000180016c30 f   libucrt:onexit.obj
 0001:00015cb0       __acrt_uninitialize_command_line 0000000180016cb0 f   libucrt:argv_data.obj
 0001:00015da8       __acrt_initialize          0000000180016da8 f   libucrt:initialization.obj
 0001:00015dbc       __acrt_thread_attach       0000000180016dbc f   libucrt:initialization.obj
 0001:00015dd0       __acrt_thread_detach       0000000180016dd0 f   libucrt:initialization.obj
 0001:00015de0       __acrt_uninitialize        0000000180016de0 f   libucrt:initialization.obj
 0001:00015e18       __acrt_uninitialize_critical 0000000180016e18 f   libucrt:initialization.obj
 0001:00015e28       _initterm                  0000000180016e28 f   libucrt:initterm.obj
 0001:00015e8c       _initterm_e                0000000180016e8c f   libucrt:initterm.obj
 0001:00015ecc       __acrt_initialize_new_handler 0000000180016ecc f   libucrt:new_handler.obj
 0001:00015ed4       _callnewh                  0000000180016ed4 f   libucrt:new_handler.obj
 0001:00015f04       _query_new_handler         0000000180016f04 f   libucrt:new_handler.obj
 0001:00015f38       terminate                  0000000180016f38 f   libucrt:terminate.obj
 0001:00015f58       abort                      0000000180016f58 f   libucrt:abort.obj
 0001:00015fb0       strcpy_s                   0000000180016fb0 f   libucrt:strcpy_s.obj
 0001:00016010       ??$parse_integer@KV?$c_string_character_source@_W@__crt_strtox@@@__crt_strtox@@YAKQEAU__crt_locale_pointers@@V?$c_string_character_source@_W@0@H_N@Z 0000000180017010 f i libucrt:atox.obj
 0001:000166d0       strncmp                    00000001800176d0 f   libucrt:strncmp.obj
 0001:00016750       wcsncmp                    0000000180017750 f   libucrt:wcsncmp.obj
 0001:0001677c       _free_base                 000000018001777c f   libucrt:free_base.obj
 0001:00016b34       __acrt_freeptd             0000000180017b34 f   libucrt:per_thread_data.obj
 0001:00016b78       __acrt_getptd              0000000180017b78 f   libucrt:per_thread_data.obj
 0001:00016c4c       __acrt_getptd_head         0000000180017c4c f   libucrt:per_thread_data.obj
 0001:00016cf4       __acrt_getptd_noexit       0000000180017cf4 f   libucrt:per_thread_data.obj
 0001:00016dc0       __acrt_initialize_ptd      0000000180017dc0 f   libucrt:per_thread_data.obj
 0001:00016dfc       __acrt_uninitialize_ptd    0000000180017dfc f   libucrt:per_thread_data.obj
 0001:00016e20       _calloc_base               0000000180017e20 f   libucrt:calloc_base.obj
 0001:00016e98       _malloc_base               0000000180017e98 f   libucrt:malloc_base.obj
 0001:00016ef8       _msize_base                0000000180017ef8 f   libucrt:msize.obj
 0001:00016f34       _realloc_base              0000000180017f34 f   libucrt:realloc_base.obj
 0001:00017188       __acrt_AppPolicyGetProcessTerminationMethodInternal 0000000180018188 f   libucrt:winapi_thunks.obj
 0001:000171d8       __acrt_AreFileApisANSI     00000001800181d8 f   libucrt:winapi_thunks.obj
 0001:00017214       __acrt_FlsAlloc            0000000180018214 f   libucrt:winapi_thunks.obj
 0001:0001725c       __acrt_FlsFree             000000018001825c f   libucrt:winapi_thunks.obj
 0001:000172a4       __acrt_FlsGetValue         00000001800182a4 f   libucrt:winapi_thunks.obj
 0001:000172ec       __acrt_FlsSetValue         00000001800182ec f   libucrt:winapi_thunks.obj
 0001:00017340       __acrt_InitializeCriticalSectionEx 0000000180018340 f   libucrt:winapi_thunks.obj
 0001:000173a4       __acrt_LCMapStringEx       00000001800183a4 f   libucrt:winapi_thunks.obj
 0001:00017480       __acrt_LocaleNameToLCID    0000000180018480 f   libucrt:winapi_thunks.obj
 0001:000174d0       __acrt_SetThreadStackGuarantee 00000001800184d0 f   libucrt:winapi_thunks.obj
 0001:00017514       __acrt_initialize_winapi_thunks 0000000180018514 f   libucrt:winapi_thunks.obj
 0001:00017548       __acrt_uninitialize_winapi_thunks 0000000180018548 f   libucrt:winapi_thunks.obj
 0001:0001758c       wcstol                     000000018001858c f   libucrt:strtox.obj
 0001:000175b8       _mbtowc_l                  00000001800185b8 f   libucrt:mbtowc.obj
 0001:00017738       mbtowc                     0000000180018738 f   libucrt:mbtowc.obj
 0001:00017740       wcsnlen                    0000000180018740 f   libucrt:strnlen.obj
 0001:00017918       __acrt_update_locale_info  0000000180018918 f   libucrt:locale_update.obj
 0001:0001794c       __acrt_update_multibyte_info 000000018001894c f   libucrt:locale_update.obj
 0001:00018218       __acrt_fp_format           0000000180019218 f   libucrt:cvt.obj
 0001:0001851c       _fileno                    000000018001951c f   libucrt:fileno.obj
 0001:00018544       __acrt_initialize_stdio    0000000180019544 f   libucrt:_file.obj
 0001:00018664       __acrt_uninitialize_stdio  0000000180019664 f   libucrt:_file.obj
 0001:000186c0       _lock_file                 00000001800196c0 f   libucrt:_file.obj
 0001:000186cc       _unlock_file               00000001800196cc f   libucrt:_file.obj
 0001:000186d8       _get_printf_count_output   00000001800196d8 f   libucrt:printf_count_output.obj
 0001:00018760       __acrt_set_locale_changed  0000000180019760 f   libucrt:wsetlocale.obj
 0001:0001876c       __acrt_uninitialize_locale 000000018001976c f   libucrt:wsetlocale.obj
 0001:00018998       __acrt_initialize_lowio    0000000180019998 f   libucrt:ioinit.obj
 0001:000189d4       __acrt_uninitialize_lowio  00000001800199d4 f   libucrt:ioinit.obj
 0001:00018a14       __acrt_initialize_locks    0000000180019a14 f   libucrt:locks.obj
 0001:00018a5c       __acrt_lock                0000000180019a5c f   libucrt:locks.obj
 0001:00018a78       __acrt_uninitialize_locks  0000000180019a78 f   libucrt:locks.obj
 0001:00018ab0       __acrt_unlock              0000000180019ab0 f   libucrt:locks.obj
 0001:00018acc       __acrt_get_process_end_policy 0000000180019acc f   libucrt:win_policies.obj
 0001:00018b1c       ??$__acrt_mbs_to_wcs_cp@U__crt_win32_buffer_internal_dynamic_resizing@@@@YAHQEBDAEAV?$__crt_win32_buffer@_WU__crt_win32_buffer_internal_dynamic_resizing@@@@I@Z 0000000180019b1c f i libucrt:argv_wildcards.obj
 0001:00018c94       ??$__acrt_wcs_to_mbs_cp@U__crt_win32_buffer_internal_dynamic_resizing@@@@YAHQEB_WAEAV?$__crt_win32_buffer@DU__crt_win32_buffer_internal_dynamic_resizing@@@@I@Z 0000000180019c94 f i libucrt:argv_wildcards.obj
 0001:000194c4       __acrt_expand_narrow_argv_wildcards 000000018001a4c4 f   libucrt:argv_wildcards.obj
 0001:000194cc       ??$__acrt_wcs_to_mbs_cp@U__crt_win32_buffer_no_resizing@@@@YAHQEB_WAEAV?$__crt_win32_buffer@DU__crt_win32_buffer_no_resizing@@@@I@Z 000000018001a4cc f i libucrt:getmodulefilenamea.obj
 0001:000195e0       __acrt_GetModuleFileNameA  000000018001a5e0 f   libucrt:getmodulefilenamea.obj
 0001:00019e2c       __acrt_initialize_multibyte 000000018001ae2c f   libucrt:mbctype.obj
 0001:00019e8c       __acrt_update_thread_multibyte_data 000000018001ae8c f   libucrt:mbctype.obj
 0001:00019ea8       _setmbcp_nolock            000000018001aea8 f   libucrt:mbctype.obj
 0001:0001a1dc       _ismbblead                 000000018001b1dc f   libucrt:ismbbyte.obj
 0001:0001a1f0       __acrt_initialize_command_line 000000018001b1f0 f   libucrt:argv_data.obj
 0001:0001a218       __acrt_MultiByteToWideChar 000000018001b218 f   libucrt:multibytetowidechar.obj
 0001:0001a274       __acrt_WideCharToMultiByte 000000018001b274 f   libucrt:widechartomultibyte.obj
 0001:0001a30c       __dcrt_get_narrow_environment_from_os 000000018001b30c f   libucrt:get_environment_from_os.obj
 0001:0001a410       __acrt_initialize_heap     000000018001b410 f   libucrt:heap_handle.obj
 0001:0001a42c       __acrt_uninitialize_heap   000000018001b42c f   libucrt:heap_handle.obj
 0001:0001a438       __acrt_execute_initializers 000000018001b438 f   libucrt:shared_initialization.obj
 0001:0001a4b8       __acrt_execute_uninitializers 000000018001b4b8 f   libucrt:shared_initialization.obj
 0001:0001a53c       __acrt_get_sigabrt_handler 000000018001b53c f   libucrt:signal.obj
 0001:0001a56c       __acrt_initialize_signal_handlers 000000018001b56c f   libucrt:signal.obj
 0001:0001a58c       raise                      000000018001b58c f   libucrt:signal.obj
 0001:0001a7f8       __acrt_has_user_matherr    000000018001b7f8 f   libucrt:matherr.obj
 0001:0001a818       __acrt_initialize_user_matherr 000000018001b818 f   libucrt:matherr.obj
 0001:0001a820       __acrt_invoke_user_matherr 000000018001b820 f   libucrt:matherr.obj
 0001:0001aa2c       __acrt_stdio_flush_nolock  000000018001ba2c f   libucrt:fflush.obj
 0001:0001aaa8       _fflush_nolock             000000018001baa8 f   libucrt:fflush.obj
 0001:0001aaf4       _flushall                  000000018001baf4 f   libucrt:fflush.obj
 0001:0001aafc       __pctype_func              000000018001bafc f   libucrt:ctype.obj
 0001:0001ab2c       iswctype                   000000018001bb2c f   libucrt:iswctype.obj
 0001:0001ab9c       __acrt_add_locale_ref      000000018001bb9c f   libucrt:locale_refcounting.obj
 0001:0001ac28       __acrt_free_locale         000000018001bc28 f   libucrt:locale_refcounting.obj
 0001:0001ada0       __acrt_locale_add_lc_time_reference 000000018001bda0 f   libucrt:locale_refcounting.obj
 0001:0001adc8       __acrt_locale_free_lc_time_if_unreferenced 000000018001bdc8 f   libucrt:locale_refcounting.obj
 0001:0001ae00       __acrt_locale_release_lc_time_reference 000000018001be00 f   libucrt:locale_refcounting.obj
 0001:0001ae28       __acrt_release_locale_ref  000000018001be28 f   libucrt:locale_refcounting.obj
 0001:0001aed0       __acrt_update_thread_locale_data 000000018001bed0 f   libucrt:locale_refcounting.obj
 0001:0001af3c       _updatetlocinfoEx_nolock   000000018001bf3c f   libucrt:locale_refcounting.obj
 0001:0001afa4       _query_new_mode            000000018001bfa4 f   libucrt:new_mode.obj
 0001:0001afac       __acrt_DownlevelLocaleNameToLCID 000000018001bfac f   libucrt:lcidtoname_downlevel.obj
 0001:0001b05c       _isleadbyte_l              000000018001c05c f i libucrt:_wctype.obj
 0001:0001b0a8       ?__mbrtowc_utf8@__crt_mbstring@@YA_KPEA_WPEBD_KPEAU_Mbstatet@@@Z 000000018001c0a8 f   libucrt:mbrtowc.obj
 0001:0001b0e4       ?__mbsrtowcs_utf8@__crt_mbstring@@YA_KPEA_WPEAPEBD_KPEAU_Mbstatet@@@Z 000000018001c0e4 f   libucrt:mbrtowc.obj
 0001:0001b25c       __acrt_fp_strflt_to_string 000000018001c25c f   libucrt:_fptostr.obj
 0001:0001b340       ?divide@__crt_strtox@@YA_KAEAUbig_integer@1@AEBU21@@Z 000000018001c340 f i libucrt:cfout.obj
 0001:0001b76c       __acrt_fltout              000000018001c76c f   libucrt:cfout.obj
 0001:0001ca28       _fcloseall                 000000018001da28 f   libucrt:closeall.obj
 0001:0001cadc       __acrt_stdio_free_buffer_nolock 000000018001dadc f   libucrt:_freebuf.obj
 0001:0001cb1c       _isatty                    000000018001db1c f   libucrt:isatty.obj
 0001:0001cb7c       __acrt_locale_free_monetary 000000018001db7c f   libucrt:initmon.obj
 0001:0001cc88       __acrt_locale_free_numeric 000000018001dc88 f   libucrt:initnum.obj
 0001:0001cd4c       __acrt_locale_free_time    000000018001dd4c f   libucrt:inittime.obj
 0001:0001ce54       __acrt_GetStringTypeA      000000018001de54 f   libucrt:getstringtypea.obj
 0001:0001cfe4       __acrt_lowio_create_handle_array 000000018001dfe4 f   libucrt:osfinfo.obj
 0001:0001d08c       __acrt_lowio_destroy_handle_array 000000018001e08c f   libucrt:osfinfo.obj
 0001:0001d0dc       __acrt_lowio_ensure_fh_exists 000000018001e0dc f   libucrt:osfinfo.obj
 0001:0001d184       __acrt_lowio_lock_fh       000000018001e184 f   libucrt:osfinfo.obj
 0001:0001d1ac       __acrt_lowio_unlock_fh     000000018001e1ac f   libucrt:osfinfo.obj
 0001:0001d1d4       _free_osfhnd               000000018001e1d4 f   libucrt:osfinfo.obj
 0001:0001d290       _get_osfhandle             000000018001e290 f   libucrt:osfinfo.obj
 0001:0001d310       qsort                      000000018001e310 f   libucrt:qsort.obj
 0001:0001d6c0       strncpy_s                  000000018001e6c0 f   libucrt:strncpy_s.obj
 0001:0001d840       strpbrk                    000000018001e840 f   libucrt:strpbrk.obj
 0001:0001dc20       _mbsdec                    000000018001ec20 f   libucrt:mbsdec.obj
 0001:0001dc28       _mbsdec_l                  000000018001ec28 f   libucrt:mbsdec.obj
 0001:0001dfd4       __acrt_LCMapStringA        000000018001efd4 f   libucrt:lcmapstringa.obj
 0001:0001e110       _commit                    000000018001f110 f   libucrt:commit.obj
 0001:0001ea04       _write                     000000018001fa04 f   libucrt:write.obj
 0001:0001eaf0       _write_nolock              000000018001faf0 f   libucrt:write.obj
 0001:0001edcc       __acrt_GetStringTypeW      000000018001fdcc f   libucrt:getstringtypew.obj
 0001:0001edd4       __ascii_wcsnicmp           000000018001fdd4 f   libucrt:wcsnicmp.obj
 0001:0001ee20       ?__mbrtoc32_utf8@__crt_mbstring@@YA_KPEA_UPEBD_KPEAU_Mbstatet@@@Z 000000018001fe20 f   libucrt:mbrtoc32.obj
 0001:0001effc       fegetenv                   000000018001fffc f   libucrt:fegetenv.obj
 0001:0001f01c       fesetenv                   000000018002001c f   libucrt:fesetenv.obj
 0001:0001f068       feholdexcept               0000000180020068 f   libucrt:feholdexcept.obj
 0001:0001f0b8       ceil                       00000001800200b8 f   libucrt:ceil.obj
 0001:0001f180       log10                      0000000180020180 f   libucrt:log10.obj
 0001:0001f7c8       _lseeki64_nolock           00000001800207c8 f   libucrt:lseek.obj
 0001:0001f7d0       _fclose_nolock             00000001800207d0 f   libucrt:fclose.obj
 0001:0001f854       fclose                     0000000180020854 f   libucrt:fclose.obj
 0001:0001f8b8       _query_app_type            00000001800208b8 f   libucrt:report_runtime_error.obj
 0001:0001f8c0       __strncnt                  00000001800208c0 f   libucrt:strncnt.obj
 0001:0001f8d8       _putwch_nolock             00000001800208d8 f   libucrt:putwch.obj
 0001:0001f914       __acrt_fenv_get_control    0000000180020914 f   libucrt:_fenvutils.obj
 0001:0001fa08       __acrt_fenv_get_status     0000000180020a08 f   libucrt:_fenvutils.obj
 0001:0001fa5c       __acrt_fenv_set_control    0000000180020a5c f   libucrt:_fenvutils.obj
 0001:0001fba4       __acrt_fenv_set_status     0000000180020ba4 f   libucrt:_fenvutils.obj
 0001:0001fc28       _clearfp                   0000000180020c28 f   libucrt:ieee.obj
 0001:0001fdbc       _handle_error              0000000180020dbc f   libucrt:libm_error.obj
 0001:0001fee4       _handle_nan                0000000180020ee4 f   libucrt:libm_error.obj
 0001:0001ff00       __acrt_initialize_fma3     0000000180020f00 f   libucrt:fma3_available.obj
 0001:0001ff70       _log10_special             0000000180020f70 f   libucrt:log_special.obj
 0001:0002009c       _close                     000000018002109c f   libucrt:close.obj
 0001:00020140       _close_nolock              0000000180021140 f   libucrt:close.obj
 0001:00020200       ?__acrt_stdio_free_stream@@YAXV__crt_stdio_stream@@@Z 0000000180021200 f   libucrt:stream.obj
 0001:0002021c       __dcrt_lowio_ensure_console_output_initialized 000000018002121c f   libucrt:initcon.obj
 0001:00020270       __dcrt_terminate_console_output 0000000180021270 f   libucrt:initcon.obj
 0001:0002028c       __dcrt_write_console       000000018002128c f   libucrt:initcon.obj
 0001:00020360       _get_fpsr                  0000000180021360 f   libucrt:fpsr.obj
 0001:00020370       _set_fpsr                  0000000180021370 f   libucrt:fpsr.obj
 0001:0002037a       _fclrf                     000000018002137a f   libucrt:fpsr.obj
 0001:0002038e       _frnd                      000000018002138e f   libucrt:fpsr.obj
 0001:000203b0       _raise_exc                 00000001800213b0 f   libucrt:fpexcept.obj
 0001:000203d8       _raise_exc_ex              00000001800213d8 f   libucrt:fpexcept.obj
 0001:000206e8       _set_errno_from_matherr    00000001800216e8 f   libucrt:fpexcept.obj
 0001:00020718       _clrfp                     0000000180021718 f   libucrt:fpctrl.obj
 0001:00020738       _ctrlfp                    0000000180021738 f   libucrt:fpctrl.obj
 0001:000207b4       _set_statfp                00000001800217b4 f   libucrt:fpctrl.obj
 0001:000207d4       _statfp                    00000001800217d4 f   libucrt:fpctrl.obj
 0001:000207e5       IsProcessorFeaturePresent  00000001800217e5 f   kernel32:KERNEL32.dll
 0001:000207f0       _FindPESection             00000001800217f0 f   LIBCMT:pesect.obj
 0001:00020840       _IsNonwritableInCurrentImage 0000000180021840 f   LIBCMT:pesect.obj
 0001:00020890       _ValidateImageBase         0000000180021890 f   LIBCMT:pesect.obj
 0001:000208c0       strrchr                    00000001800218c0 f   libvcruntime:strrchr.obj
 0001:00020a00       _guard_dispatch_icall_nop  0000000180021a00 f   LIBCMT:guard_dispatch.obj
 0002:00000000       __imp_RegQueryValueExW     0000000180022000     advapi32:ADVAPI32.dll
 0002:00000008       __imp_RegSetValueExW       0000000180022008     advapi32:ADVAPI32.dll
 0002:00000010       __imp_RegQueryInfoKeyW     0000000180022010     advapi32:ADVAPI32.dll
 0002:00000018       __imp_RegOpenKeyExW        0000000180022018     advapi32:ADVAPI32.dll
 0002:00000020       __imp_RegEnumKeyExW        0000000180022020     advapi32:ADVAPI32.dll
 0002:00000028       __imp_RegDeleteValueW      0000000180022028     advapi32:ADVAPI32.dll
 0002:00000030       __imp_RegDeleteKeyW        0000000180022030     advapi32:ADVAPI32.dll
 0002:00000038       __imp_RegCreateKeyExW      0000000180022038     advapi32:ADVAPI32.dll
 0002:00000040       __imp_RegCloseKey          0000000180022040     advapi32:ADVAPI32.dll
 0002:00000048       \177ADVAPI32_NULL_THUNK_DATA 0000000180022048     advapi32:ADVAPI32.dll
 0002:00000050       __imp_GetObjectW           0000000180022050     gdi32:GDI32.dll
 0002:00000058       __imp_SelectObject         0000000180022058     gdi32:GDI32.dll
 0002:00000060       __imp_DeleteObject         0000000180022060     gdi32:GDI32.dll
 0002:00000068       __imp_CreateCompatibleDC   0000000180022068     gdi32:GDI32.dll
 0002:00000070       __imp_BitBlt               0000000180022070     gdi32:GDI32.dll
 0002:00000078       __imp_SetWindowOrgEx       0000000180022078     gdi32:GDI32.dll
 0002:00000080       __imp_SetWindowExtEx       0000000180022080     gdi32:GDI32.dll
 0002:00000088       __imp_SetViewportOrgEx     0000000180022088     gdi32:GDI32.dll
 0002:00000090       __imp_LPtoDP               0000000180022090     gdi32:GDI32.dll
 0002:00000098       __imp_SetMapMode           0000000180022098     gdi32:GDI32.dll
 0002:000000a0       __imp_SaveDC               00000001800220a0     gdi32:GDI32.dll
 0002:000000a8       __imp_RestoreDC            00000001800220a8     gdi32:GDI32.dll
 0002:000000b0       __imp_GetDeviceCaps        00000001800220b0     gdi32:GDI32.dll
 0002:000000b8       __imp_DeleteMetaFile       00000001800220b8     gdi32:GDI32.dll
 0002:000000c0       __imp_DeleteDC             00000001800220c0     gdi32:GDI32.dll
 0002:000000c8       __imp_CreateRectRgnIndirect 00000001800220c8     gdi32:GDI32.dll
 0002:000000d0       __imp_CreateMetaFileW      00000001800220d0     gdi32:GDI32.dll
 0002:000000d8       __imp_CreateDCW            00000001800220d8     gdi32:GDI32.dll
 0002:000000e0       __imp_CloseMetaFile        00000001800220e0     gdi32:GDI32.dll
 0002:000000e8       \177GDI32_NULL_THUNK_DATA  00000001800220e8     gdi32:GDI32.dll
 0002:000000f0       __imp_CloseHandle          00000001800220f0     kernel32:KERNEL32.dll
 0002:000000f8       __imp_SetEvent             00000001800220f8     kernel32:KERNEL32.dll
 0002:00000100       __imp_CreateMutexW         0000000180022100     kernel32:KERNEL32.dll
 0002:00000108       __imp_CreateEventW         0000000180022108     kernel32:KERNEL32.dll
 0002:00000110       __imp_GetCurrentProcessId  0000000180022110     kernel32:KERNEL32.dll
 0002:00000118       __imp_WriteConsoleW        0000000180022118     kernel32:KERNEL32.dll
 0002:00000120       __imp_CreateFileW          0000000180022120     kernel32:KERNEL32.dll
 0002:00000128       __imp_GetConsoleMode       0000000180022128     kernel32:KERNEL32.dll
 0002:00000130       __imp_GetConsoleCP         0000000180022130     kernel32:KERNEL32.dll
 0002:00000138       __imp_WriteFile            0000000180022138     kernel32:KERNEL32.dll
 0002:00000140       __imp_FlushFileBuffers     0000000180022140     kernel32:KERNEL32.dll
 0002:00000148       __imp_SetStdHandle         0000000180022148     kernel32:KERNEL32.dll
 0002:00000150       __imp_GetStringTypeW       0000000180022150     kernel32:KERNEL32.dll
 0002:00000158       __imp_SetFilePointerEx     0000000180022158     kernel32:KERNEL32.dll
 0002:00000160       __imp_FreeEnvironmentStringsW 0000000180022160     kernel32:KERNEL32.dll
 0002:00000168       __imp_lstrcmpiW            0000000180022168     kernel32:KERNEL32.dll
 0002:00000170       __imp_GetCommandLineW      0000000180022170     kernel32:KERNEL32.dll
 0002:00000178       __imp_GetCommandLineA      0000000180022178     kernel32:KERNEL32.dll
 0002:00000180       __imp_GetCPInfo            0000000180022180     kernel32:KERNEL32.dll
 0002:00000188       __imp_GetOEMCP             0000000180022188     kernel32:KERNEL32.dll
 0002:00000190       __imp_GetACP               0000000180022190     kernel32:KERNEL32.dll
 0002:00000198       __imp_IsValidCodePage      0000000180022198     kernel32:KERNEL32.dll
 0002:000001a0       __imp_FindNextFileW        00000001800221a0     kernel32:KERNEL32.dll
 0002:000001a8       __imp_FindFirstFileExW     00000001800221a8     kernel32:KERNEL32.dll
 0002:000001b0       __imp_FindClose            00000001800221b0     kernel32:KERNEL32.dll
 0002:000001b8       __imp_GetFileType          00000001800221b8     kernel32:KERNEL32.dll
 0002:000001c0       __imp_GetStdHandle         00000001800221c0     kernel32:KERNEL32.dll
 0002:000001c8       __imp_LCMapStringW         00000001800221c8     kernel32:KERNEL32.dll
 0002:000001d0       __imp_HeapReAlloc          00000001800221d0     kernel32:KERNEL32.dll
 0002:000001d8       __imp_HeapSize             00000001800221d8     kernel32:KERNEL32.dll
 0002:000001e0       __imp_MulDiv               00000001800221e0     kernel32:KERNEL32.dll
 0002:000001e8       __imp_GlobalLock           00000001800221e8     kernel32:KERNEL32.dll
 0002:000001f0       __imp_GlobalUnlock         00000001800221f0     kernel32:KERNEL32.dll
 0002:000001f8       __imp_GlobalAlloc          00000001800221f8     kernel32:KERNEL32.dll
 0002:00000200       __imp_FindResourceW        0000000180022200     kernel32:KERNEL32.dll
 0002:00000208       __imp_SizeofResource       0000000180022208     kernel32:KERNEL32.dll
 0002:00000210       __imp_LoadResource         0000000180022210     kernel32:KERNEL32.dll
 0002:00000218       __imp_LoadLibraryExW       0000000180022218     kernel32:KERNEL32.dll
 0002:00000220       __imp_GetProcAddress       0000000180022220     kernel32:KERNEL32.dll
 0002:00000228       __imp_GetModuleHandleW     0000000180022228     kernel32:KERNEL32.dll
 0002:00000230       __imp_GetModuleFileNameW   0000000180022230     kernel32:KERNEL32.dll
 0002:00000238       __imp_FreeLibrary          0000000180022238     kernel32:KERNEL32.dll
 0002:00000240       __imp_DisableThreadLibraryCalls 0000000180022240     kernel32:KERNEL32.dll
 0002:00000248       __imp_GetCurrentThreadId   0000000180022248     kernel32:KERNEL32.dll
 0002:00000250       __imp_Sleep                0000000180022250     kernel32:KERNEL32.dll
 0002:00000258       __imp_WaitForSingleObject  0000000180022258     kernel32:KERNEL32.dll
 0002:00000260       __imp_ReleaseMutex         0000000180022260     kernel32:KERNEL32.dll
 0002:00000268       __imp_ResetEvent           0000000180022268     kernel32:KERNEL32.dll
 0002:00000270       __imp_EnterCriticalSection 0000000180022270     kernel32:KERNEL32.dll
 0002:00000278       __imp_LeaveCriticalSection 0000000180022278     kernel32:KERNEL32.dll
 0002:00000280       __imp_SetLastError         0000000180022280     kernel32:KERNEL32.dll
 0002:00000288       __imp_EncodePointer        0000000180022288     kernel32:KERNEL32.dll
 0002:00000290       __imp_DeleteCriticalSection 0000000180022290     kernel32:KERNEL32.dll
 0002:00000298       __imp_InitializeCriticalSectionEx 0000000180022298     kernel32:KERNEL32.dll
 0002:000002a0       __imp_GetLastError         00000001800222a0     kernel32:KERNEL32.dll
 0002:000002a8       __imp_RaiseException       00000001800222a8     kernel32:KERNEL32.dll
 0002:000002b0       __imp_DecodePointer        00000001800222b0     kernel32:KERNEL32.dll
 0002:000002b8       __imp_WideCharToMultiByte  00000001800222b8     kernel32:KERNEL32.dll
 0002:000002c0       __imp_GetEnvironmentStringsW 00000001800222c0     kernel32:KERNEL32.dll
 0002:000002c8       __imp_MultiByteToWideChar  00000001800222c8     kernel32:KERNEL32.dll
 0002:000002d0       __imp_GetModuleHandleExW   00000001800222d0     kernel32:KERNEL32.dll
 0002:000002d8       __imp_ExitProcess          00000001800222d8     kernel32:KERNEL32.dll
 0002:000002e0       __imp_VirtualQuery         00000001800222e0     kernel32:KERNEL32.dll
 0002:000002e8       __imp_VirtualProtect       00000001800222e8     kernel32:KERNEL32.dll
 0002:000002f0       __imp_GetSystemInfo        00000001800222f0     kernel32:KERNEL32.dll
 0002:000002f8       __imp_TlsFree              00000001800222f8     kernel32:KERNEL32.dll
 0002:00000300       __imp_TlsSetValue          0000000180022300     kernel32:KERNEL32.dll
 0002:00000308       __imp_TlsGetValue          0000000180022308     kernel32:KERNEL32.dll
 0002:00000310       __imp_TlsAlloc             0000000180022310     kernel32:KERNEL32.dll
 0002:00000318       __imp_RtlPcToFileHeader    0000000180022318     kernel32:KERNEL32.dll
 0002:00000320       __imp_InterlockedFlushSList 0000000180022320     kernel32:KERNEL32.dll
 0002:00000328       __imp_RtlUnwindEx          0000000180022328     kernel32:KERNEL32.dll
 0002:00000330       __imp_LoadLibraryExA       0000000180022330     kernel32:KERNEL32.dll
 0002:00000338       __imp_VirtualFree          0000000180022338     kernel32:KERNEL32.dll
 0002:00000340       __imp_VirtualAlloc         0000000180022340     kernel32:KERNEL32.dll
 0002:00000348       __imp_FlushInstructionCache 0000000180022348     kernel32:KERNEL32.dll
 0002:00000350       __imp_InterlockedPushEntrySList 0000000180022350     kernel32:KERNEL32.dll
 0002:00000358       __imp_InterlockedPopEntrySList 0000000180022358     kernel32:KERNEL32.dll
 0002:00000360       __imp_GetProcessHeap       0000000180022360     kernel32:KERNEL32.dll
 0002:00000368       __imp_HeapFree             0000000180022368     kernel32:KERNEL32.dll
 0002:00000370       __imp_HeapAlloc            0000000180022370     kernel32:KERNEL32.dll
 0002:00000378       __imp_OutputDebugStringW   0000000180022378     kernel32:KERNEL32.dll
 0002:00000380       __imp_InitializeSListHead  0000000180022380     kernel32:KERNEL32.dll
 0002:00000388       __imp_GetSystemTimeAsFileTime 0000000180022388     kernel32:KERNEL32.dll
 0002:00000390       __imp_QueryPerformanceCounter 0000000180022390     kernel32:KERNEL32.dll
 0002:00000398       __imp_GetStartupInfoW      0000000180022398     kernel32:KERNEL32.dll
 0002:000003a0       __imp_IsDebuggerPresent    00000001800223a0     kernel32:KERNEL32.dll
 0002:000003a8       __imp_IsProcessorFeaturePresent 00000001800223a8     kernel32:KERNEL32.dll
 0002:000003b0       __imp_TerminateProcess     00000001800223b0     kernel32:KERNEL32.dll
 0002:000003b8       __imp_GetCurrentProcess    00000001800223b8     kernel32:KERNEL32.dll
 0002:000003c0       __imp_InitializeCriticalSectionAndSpinCount 00000001800223c0     kernel32:KERNEL32.dll
 0002:000003c8       __imp_WaitForSingleObjectEx 00000001800223c8     kernel32:KERNEL32.dll
 0002:000003d0       __imp_RtlCaptureContext    00000001800223d0     kernel32:KERNEL32.dll
 0002:000003d8       __imp_RtlLookupFunctionEntry 00000001800223d8     kernel32:KERNEL32.dll
 0002:000003e0       __imp_RtlVirtualUnwind     00000001800223e0     kernel32:KERNEL32.dll
 0002:000003e8       __imp_UnhandledExceptionFilter 00000001800223e8     kernel32:KERNEL32.dll
 0002:000003f0       __imp_SetUnhandledExceptionFilter 00000001800223f0     kernel32:KERNEL32.dll
 0002:000003f8       \177KERNEL32_NULL_THUNK_DATA 00000001800223f8     kernel32:KERNEL32.dll
 0002:00000400       __imp_OleCreatePropertyFrame 0000000180022400     oleaut32:OLEAUT32.dll
 0002:00000408       __imp_UnRegisterTypeLib    0000000180022408     oleaut32:OLEAUT32.dll
 0002:00000410       __imp_RegisterTypeLib      0000000180022410     oleaut32:OLEAUT32.dll
 0002:00000418       __imp_LoadRegTypeLib       0000000180022418     oleaut32:OLEAUT32.dll
 0002:00000420       __imp_LoadTypeLib          0000000180022420     oleaut32:OLEAUT32.dll
 0002:00000428       __imp_VarUI4FromStr        0000000180022428     oleaut32:OLEAUT32.dll
 0002:00000430       __imp_VariantInit          0000000180022430     oleaut32:OLEAUT32.dll
 0002:00000438       __imp_SysAllocStringByteLen 0000000180022438     oleaut32:OLEAUT32.dll
 0002:00000440       __imp_SysStringByteLen     0000000180022440     oleaut32:OLEAUT32.dll
 0002:00000448       __imp_VariantChangeType    0000000180022448     oleaut32:OLEAUT32.dll
 0002:00000450       __imp_VariantClear         0000000180022450     oleaut32:OLEAUT32.dll
 0002:00000458       __imp_SysStringLen         0000000180022458     oleaut32:OLEAUT32.dll
 0002:00000460       __imp_SysFreeString        0000000180022460     oleaut32:OLEAUT32.dll
 0002:00000468       __imp_SysAllocStringLen    0000000180022468     oleaut32:OLEAUT32.dll
 0002:00000470       __imp_SysAllocString       0000000180022470     oleaut32:OLEAUT32.dll
 0002:00000478       \177OLEAUT32_NULL_THUNK_DATA 0000000180022478     oleaut32:OLEAUT32.dll
 0002:00000480       __imp_UnregisterClassW     0000000180022480     user32:USER32.dll
 0002:00000488       __imp_PostMessageW         0000000180022488     user32:USER32.dll
 0002:00000490       __imp_DefWindowProcW       0000000180022490     user32:USER32.dll
 0002:00000498       __imp_CallWindowProcW      0000000180022498     user32:USER32.dll
 0002:000004a0       __imp_RegisterClassExW     00000001800224a0     user32:USER32.dll
 0002:000004a8       __imp_GetClassInfoExW      00000001800224a8     user32:USER32.dll
 0002:000004b0       __imp_CreateWindowExW      00000001800224b0     user32:USER32.dll
 0002:000004b8       __imp_IsWindow             00000001800224b8     user32:USER32.dll
 0002:000004c0       __imp_IsChild              00000001800224c0     user32:USER32.dll
 0002:000004c8       __imp_DestroyWindow        00000001800224c8     user32:USER32.dll
 0002:000004d0       __imp_ShowWindow           00000001800224d0     user32:USER32.dll
 0002:000004d8       __imp_SetWindowPos         00000001800224d8     user32:USER32.dll
 0002:000004e0       __imp_CharNextW            00000001800224e0     user32:USER32.dll
 0002:000004e8       __imp_SetFocus             00000001800224e8     user32:USER32.dll
 0002:000004f0       __imp_LoadBitmapW          00000001800224f0     user32:USER32.dll
 0002:000004f8       __imp_RegisterClassW       00000001800224f8     user32:USER32.dll
 0002:00000500       __imp_PeekMessageW         0000000180022500     user32:USER32.dll
 0002:00000508       __imp_LoadCursorW          0000000180022508     user32:USER32.dll
 0002:00000510       __imp_GetParent            0000000180022510     user32:USER32.dll
 0002:00000518       __imp_SetWindowLongPtrW    0000000180022518     user32:USER32.dll
 0002:00000520       __imp_GetWindowLongPtrW    0000000180022520     user32:USER32.dll
 0002:00000528       __imp_PtInRect             0000000180022528     user32:USER32.dll
 0002:00000530       __imp_EqualRect            0000000180022530     user32:USER32.dll
 0002:00000538       __imp_OffsetRect           0000000180022538     user32:USER32.dll
 0002:00000540       __imp_UnionRect            0000000180022540     user32:USER32.dll
 0002:00000548       __imp_IntersectRect        0000000180022548     user32:USER32.dll
 0002:00000550       __imp_GetClientRect        0000000180022550     user32:USER32.dll
 0002:00000558       __imp_InvalidateRect       0000000180022558     user32:USER32.dll
 0002:00000560       __imp_SetWindowRgn         0000000180022560     user32:USER32.dll
 0002:00000568       __imp_EndPaint             0000000180022568     user32:USER32.dll
 0002:00000570       __imp_BeginPaint           0000000180022570     user32:USER32.dll
 0002:00000578       __imp_ReleaseDC            0000000180022578     user32:USER32.dll
 0002:00000580       __imp_GetDC                0000000180022580     user32:USER32.dll
 0002:00000588       __imp_GetKeyState          0000000180022588     user32:USER32.dll
 0002:00000590       __imp_GetFocus             0000000180022590     user32:USER32.dll
 0002:00000598       \177USER32_NULL_THUNK_DATA 0000000180022598     user32:USER32.dll
 0002:000005a0       __imp_CoCreateInstance     00000001800225a0     ole32:ole32.dll
 0002:000005a8       __imp_StringFromGUID2      00000001800225a8     ole32:ole32.dll
 0002:000005b0       __imp_CoTaskMemAlloc       00000001800225b0     ole32:ole32.dll
 0002:000005b8       __imp_CoTaskMemFree        00000001800225b8     ole32:ole32.dll
 0002:000005c0       __imp_ReadClassStm         00000001800225c0     ole32:ole32.dll
 0002:000005c8       __imp_WriteClassStm        00000001800225c8     ole32:ole32.dll
 0002:000005d0       __imp_CreateDataAdviseHolder 00000001800225d0     ole32:ole32.dll
 0002:000005d8       __imp_OleSaveToStream      00000001800225d8     ole32:ole32.dll
 0002:000005e0       __imp_CreateOleAdviseHolder 00000001800225e0     ole32:ole32.dll
 0002:000005e8       __imp_OleRegGetUserType    00000001800225e8     ole32:ole32.dll
 0002:000005f0       __imp_OleRegGetMiscStatus  00000001800225f0     ole32:ole32.dll
 0002:000005f8       __imp_OleRegEnumVerbs      00000001800225f8     ole32:ole32.dll
 0002:00000600       __imp_CLSIDFromProgID      0000000180022600     ole32:ole32.dll
 0002:00000608       __imp_CoTaskMemRealloc     0000000180022608     ole32:ole32.dll
 0002:00000610       \177ole32_NULL_THUNK_DATA  0000000180022610     ole32:ole32.dll
 0002:00000618       __guard_check_icall_fptr   0000000180022618     LIBCMT:guard_support.obj
 0002:00000620       __guard_dispatch_icall_fptr 0000000180022620     LIBCMT:guard_support.obj
 0002:00000628       __xc_a                     0000000180022628     LIBCMT:initializers.obj
 0002:00000658       __xc_z                     0000000180022658     LIBCMT:initializers.obj
 0002:00000660       __xi_a                     0000000180022660     LIBCMT:initializers.obj
 0002:00000670       __acrt_stdio_initializer   0000000180022670     libucrt:stdio_initializer.obj
 0002:00000678       __acrt_multibyte_initializer 0000000180022678     libucrt:multibyte_initializer.obj
 0002:00000680       __acrt_tran_fma3_initializer 0000000180022680     libucrt:fma3_initializer.obj
 0002:00000688       __xi_z                     0000000180022688     LIBCMT:initializers.obj
 0002:00000690       __xl_a                     0000000180022690     LIBCMT:tlssup.obj
 0002:00000698       __xl_z                     0000000180022698     LIBCMT:tlssup.obj
 0002:000006a0       __xp_a                     00000001800226a0     LIBCMT:initializers.obj
 0002:000006a8       __acrt_locale_terminator   00000001800226a8     libucrt:locale_initializer.obj
 0002:000006b0       __dcrt_console_output_terminator 00000001800226b0     libucrt:console_output_initializer.obj
 0002:000006b8       __acrt_stdio_terminator    00000001800226b8     libucrt:stdio_initializer.obj
 0002:000006c0       __xp_z                     00000001800226c0     LIBCMT:initializers.obj
 0002:000006c8       __xt_a                     00000001800226c8     LIBCMT:initializers.obj
 0002:000006d0       __xt_z                     00000001800226d0     LIBCMT:initializers.obj
 0002:000006e0       ??_C@_13HADIAKP@?$AAS@     00000001800226e0     OposVariant.obj
 0002:000006e4       ??_C@_13LHMFKAAD@?$AAM@    00000001800226e4     OposVariant.obj
 0002:000006e8       ??_C@_13MKMNOPIJ@?$AAD@    00000001800226e8     OposVariant.obj
 0002:000006ec       ??_C@_13OPKGLAFF@?$AAB@    00000001800226ec     OposVariant.obj
 0002:000006f0       ??_C@_17LLMMEOJD@?$AAV?$AAa?$AAl@ 00000001800226f0     OposVariant.obj
 0002:000006f8       ??_C@_1BI@JFAIJMHL@?$AAF?$AAo?$AAr?$AAc?$AAe?$AAR?$AAe?$AAm?$AAo?$AAv?$AAe@ 00000001800226f8     OposVariant.obj
 0002:00000710       ??_C@_1BC@GCKHIPE@?$AAN?$AAo?$AAR?$AAe?$AAm?$AAo?$AAv?$AAe@ 0000000180022710     OposVariant.obj
 0002:00000728       ??_C@_1O@JDLOHAN@?$AAD?$AAe?$AAl?$AAe?$AAt?$AAe@ 0000000180022728     OposVariant.obj
 0002:00000738       ??_C@_11LOCGONAA@@         0000000180022738     OposVariant.obj
 0002:00000740       IID_IOPOSPINPad_1_5        0000000180022740     PINPad.obj
 0002:00000750       IID_IOPOSPINPad_1_8        0000000180022750     PINPad.obj
 0002:00000760       IID_IOPOSPINPad_1_9        0000000180022760     PINPad.obj
 0002:00000770       IID_IOPOSPINPad_1_10       0000000180022770     PINPad.obj
 0002:00000780       IID_IOPOSPINPad            0000000180022780     PINPad.obj
 0002:00000790       LIBID_OposPINPad_CCO       0000000180022790     PINPad.obj
 0002:000007a0       DIID__IOPOSPINPadEvents    00000001800227a0     PINPad.obj
 0002:000007b0       CLSID_OPOSPINPad           00000001800227b0     PINPad.obj
 0002:000007c0       _GUID_00000114_0000_0000_c000_000000000046 00000001800227c0     PINPad.obj
 0002:000007d0       ??_C@_1BK@BIGILECK@?$AAA?$AAd?$AAv?$AAa?$AAp?$AAi?$AA3?$AA2?$AA?4?$AAd?$AAl?$AAl@ 00000001800227d0     PINPad.obj
 0002:000007f0       ??_C@_0BI@MNCFCPFK@RegCreateKeyTransactedW@ 00000001800227f0     PINPad.obj
 0002:00000808       _GUID_b196b287_bab4_101a_b69c_00aa00341d07 0000000180022808     PINPad.obj
 0002:00000818       _GUID_b196b285_bab4_101a_b69c_00aa00341d07 0000000180022818     PINPad.obj
 0002:00000828       _GUID_a6bc3ac0_dbaa_11ce_9de3_00aa004bb851 0000000180022828     PINPad.obj
 0002:00000840       ?_entries@?1??_GetEntries@COPOSPINPad@@SAPEBU_ATL_INTMAP_ENTRY@ATL@@XZ@4QBU34@B 0000000180022840     PINPad.obj
 0002:00000ac8       _GUID_0000010c_0000_0000_c000_000000000046 0000000180022ac8     PINPad.obj
 0002:00000ad8       _GUID_cf51ed10_62fe_11cf_bf86_00a0c9034836 0000000180022ad8     PINPad.obj
 0002:00000ae8       _GUID_0000010a_0000_0000_c000_000000000046 0000000180022ae8     PINPad.obj
 0002:00000af8       _GUID_00000146_0000_0000_c000_000000000046 0000000180022af8     PINPad.obj
 0002:00000b08       _GUID_b196b283_bab4_101a_b69c_00aa00341d07 0000000180022b08     PINPad.obj
 0002:00000b18       _GUID_cb5bdc81_93c1_11cf_8f20_00805f2cd064 0000000180022b18     PINPad.obj
 0002:00000b30       ?pPropMap@?1??GetPropertyMap@COPOSPINPad@@SAPEBUATL_PROPMAP_ENTRY@ATL@@XZ@4QBU34@B 0000000180022b30     PINPad.obj
 0002:00000bd8       ??_C@_17DGDADEHL@?$AA_?$AAc?$AAx@ 0000000180022bd8     PINPad.obj
 0002:00000be0       ??_C@_17IOIMFDBO@?$AA_?$AAc?$AAy@ 0000000180022be0     PINPad.obj
 0002:00000be8       _GUID_922eada0_3424_11cf_b670_00aa004cd6d8 0000000180022be8     PINPad.obj
 0002:00000bf8       _GUID_9c2cad80_3424_11cf_b670_00aa004cd6d8 0000000180022bf8     PINPad.obj
 0002:00000c08       _GUID_00000119_0000_0000_c000_000000000046 0000000180022c08     PINPad.obj
 0002:00000c18       _GUID_b196b289_bab4_101a_b69c_00aa00341d07 0000000180022c18     PINPad.obj
 0002:00000c28       _GUID_00000117_0000_0000_c000_000000000046 0000000180022c28     PINPad.obj
 0002:00000c38       ??_7?$CComObjectCached@VCComClassFactory@ATL@@@ATL@@6B@ 0000000180022c38     PINPad.obj
 0002:00000c68       ??_C@_1CE@PGFMOFKI@?$AAS?$AAt?$AAa?$AAt?$AAu?$AAs?$AAU?$AAp?$AAd?$AAa?$AAt?$AAe?$AAE?$AAv?$AAe@ 0000000180022c68     PINPad.obj
 0002:00000c90       ??_C@_1BG@LODEBHDD@?$AAE?$AAr?$AAr?$AAo?$AAr?$AAE?$AAv?$AAe?$AAn?$AAt@ 0000000180022c90     PINPad.obj
 0002:00000ca8       ??_C@_1BM@CBGEBBBJ@?$AAD?$AAi?$AAr?$AAe?$AAc?$AAt?$AAI?$AAO?$AAE?$AAv?$AAe?$AAn?$AAt@ 0000000180022ca8     PINPad.obj
 0002:00000cc8       ??_C@_1BE@IEBMACEM@?$AAD?$AAa?$AAt?$AAa?$AAE?$AAv?$AAe?$AAn?$AAt@ 0000000180022cc8     PINPad.obj
 0002:00000ce0       _GUID_b196b286_bab4_101a_b69c_00aa00341d07 0000000180022ce0     PINPad.obj
 0002:00000cf0       ??_7CComModule@ATL@@6B@    0000000180022cf0     PINPad.obj
 0002:00000d40       ??_C@_1BC@ENICKDH@?$AAC?$AAo?$AAn?$AAt?$AAe?$AAn?$AAt?$AAs@ 0000000180022d40     PINPad.obj
 0002:00000d58       _GUID_00000000_0000_0000_c000_000000000046 0000000180022d58     PINPad.obj
 0002:00000d68       _GUID_00020400_0000_0000_c000_000000000046 0000000180022d68     PINPad.obj
 0002:00000d78       ??_7?$CComObject@V?$CComEnum@UIEnumConnectionPoints@@$1?_GUID_b196b285_bab4_101a_b69c_00aa00341d07@@3U__s_GUID@@BPEAUIConnectionPoint@@V?$_CopyInterface@UIConnectionPoint@@@ATL@@VCComSingleThreadModel@6@@ATL@@@ATL@@6B@ 0000000180022d78     PINPad.obj
 0002:00000db8       _GUID_0000010e_0000_0000_c000_000000000046 0000000180022db8     PINPad.obj
 0002:00000dc8       _GUID_b196b288_bab4_101a_b69c_00aa00341d07 0000000180022dc8     PINPad.obj
 0002:00000dd8       ??_C@_1M@KANJNLFF@?$AAC?$AAL?$AAS?$AAI?$AAD@ 0000000180022dd8     PINPad.obj
 0002:00000de8       ??_C@_1M@EJNEECMJ@?$AAA?$AAp?$AAp?$AAI?$AAD@ 0000000180022de8     PINPad.obj
 0002:00000df8       _GUID_00000113_0000_0000_c000_000000000046 0000000180022df8     PINPad.obj
 0002:00000e10       ?rgszNeverDelete@CRegParser@ATL@@1QBQEB_WB 0000000180022e10     PINPad.obj
 0002:00000e70       _GUID_1c2056cc_5ef4_101b_8bc8_00aa003e3b29 0000000180022e70     PINPad.obj
 0002:00000e80       ??_7CRegObject@ATL@@6B@    0000000180022e80     PINPad.obj
 0002:00000eb0       _GUID_00000112_0000_0000_c000_000000000046 0000000180022eb0     PINPad.obj
 0002:00000ec0       _GUID_3af24292_0c96_11ce_a0cf_00aa00600ab8 0000000180022ec0     PINPad.obj
 0002:00000ed0       _GUID_00000127_0000_0000_c000_000000000046 0000000180022ed0     PINPad.obj
 0002:00000ee0       _GUID_0000010d_0000_0000_c000_000000000046 0000000180022ee0     PINPad.obj
 0002:00000ef0       ??_C@_1CK@OEKPKBNA@?$AAC?$AAo?$AAm?$AAp?$AAo?$AAn?$AAe?$AAn?$AAt?$AA?5?$AAC?$AAa?$AAt?$AAe?$AAg@ 0000000180022ef0     PINPad.obj
 0002:00000f20       ??_C@_1BC@NKMMNMGL@?$AAF?$AAi?$AAl?$AAe?$AAT?$AAy?$AAp?$AAe@ 0000000180022f20     PINPad.obj
 0002:00000f38       ??_C@_1BE@EKPAFMCP@?$AAI?$AAn?$AAt?$AAe?$AAr?$AAf?$AAa?$AAc?$AAe@ 0000000180022f38     PINPad.obj
 0002:00000f50       ??_C@_1BC@MAICEHGI@?$AAH?$AAa?$AAr?$AAd?$AAw?$AAa?$AAr?$AAe@ 0000000180022f50     PINPad.obj
 0002:00000f68       ??_C@_19HLLLM@?$AAM?$AAi?$AAm?$AAe@ 0000000180022f68     PINPad.obj
 0002:00000f78       ??_C@_17OMAOINJK@?$AAS?$AAA?$AAM@ 0000000180022f78     PINPad.obj
 0002:00000f80       ??_C@_1BC@IBECJAAI@?$AAS?$AAE?$AAC?$AAU?$AAR?$AAI?$AAT?$AAY@ 0000000180022f80     PINPad.obj
 0002:00000f98       ??_C@_1O@GBFINDKL@?$AAS?$AAY?$AAS?$AAT?$AAE?$AAM@ 0000000180022f98     PINPad.obj
 0002:00000fa8       ??_C@_1BC@EAHCMADO@?$AAS?$AAo?$AAf?$AAt?$AAw?$AAa?$AAr?$AAe@ 0000000180022fa8     PINPad.obj
 0002:00000fc0       ??_C@_1BA@JIHHIEDE@?$AAT?$AAy?$AAp?$AAe?$AAL?$AAi?$AAb@ 0000000180022fc0     PINPad.obj
 0002:00000fd0       ?map@?1??HKeyFromString@CRegParser@ATL@@KAPEAUHKEY__@@PEA_W@Z@4QBUkeymap@?1??123@KAPEAU4@0@Z@B 0000000180022fd0     PINPad.obj
 0002:000010b0       ??_C@_19NCHLBIN@?$AAH?$AAK?$AAC?$AAR@ 00000001800230b0     PINPad.obj
 0002:000010c0       ??_C@_19JAPAIJDE@?$AAH?$AAK?$AAC?$AAU@ 00000001800230c0     PINPad.obj
 0002:000010d0       ??_C@_19PEALEEJB@?$AAH?$AAK?$AAL?$AAM@ 00000001800230d0     PINPad.obj
 0002:000010e0       ??_C@_17PJOJPMPB@?$AAH?$AAK?$AAU@ 00000001800230e0     PINPad.obj
 0002:000010e8       ??_C@_19PNBHMJPL@?$AAH?$AAK?$AAP?$AAD@ 00000001800230e8     PINPad.obj
 0002:000010f8       ??_C@_19GFFAIJHG@?$AAH?$AAK?$AAD?$AAD@ 00000001800230f8     PINPad.obj
 0002:00001108       ??_C@_19OFICIBHH@?$AAH?$AAK?$AAC?$AAC@ 0000000180023108     PINPad.obj
 0002:00001118       ??_C@_1CE@PACHPJFI@?$AAH?$AAK?$AAE?$AAY?$AA_?$AAC?$AAL?$AAA?$AAS?$AAS?$AAE?$AAS?$AA_?$AAR?$AAO@ 0000000180023118     PINPad.obj
 0002:00001140       ??_C@_1CE@HLHNCBPM@?$AAH?$AAK?$AAE?$AAY?$AA_?$AAC?$AAU?$AAR?$AAR?$AAE?$AAN?$AAT?$AA_?$AAU?$AAS@ 0000000180023140     PINPad.obj
 0002:00001168       ??_C@_1CG@GFBEANJL@?$AAH?$AAK?$AAE?$AAY?$AA_?$AAL?$AAO?$AAC?$AAA?$AAL?$AA_?$AAM?$AAA?$AAC?$AAH@ 0000000180023168     PINPad.obj
 0002:00001190       ??_C@_1BG@BGODANIO@?$AAH?$AAK?$AAE?$AAY?$AA_?$AAU?$AAS?$AAE?$AAR?$AAS@ 0000000180023190     PINPad.obj
 0002:000011a8       ??_C@_1CM@KHNNAOIC@?$AAH?$AAK?$AAE?$AAY?$AA_?$AAP?$AAE?$AAR?$AAF?$AAO?$AAR?$AAM?$AAA?$AAN?$AAC@ 00000001800231a8     PINPad.obj
 0002:000011d8       ??_C@_1BM@HAGMMHIA@?$AAH?$AAK?$AAE?$AAY?$AA_?$AAD?$AAY?$AAN?$AA_?$AAD?$AAA?$AAT?$AAA@ 00000001800231d8     PINPad.obj
 0002:000011f8       ??_C@_1CI@BBJOACGG@?$AAH?$AAK?$AAE?$AAY?$AA_?$AAC?$AAU?$AAR?$AAR?$AAE?$AAN?$AAT?$AA_?$AAC?$AAO@ 00000001800231f8     PINPad.obj
 0002:00001220       _GUID_00000109_0000_0000_c000_000000000046 0000000180023220     PINPad.obj
 0002:00001230       _GUID_7fd52380_4e07_101b_ae2d_08002b2ec713 0000000180023230     PINPad.obj
 0002:00001240       ??_C@_1M@PPPPCDEP@?$AAA?$AAP?$AAP?$AAI?$AAD@ 0000000180023240     PINPad.obj
 0002:00001250       ??_C@_1EA@NHKLICFA@?$AAH?$AAK?$AAC?$AAU?$AA?$AN?$AA?6?$AA?$HL?$AA?7?$AAS?$AAo?$AAf?$AAt?$AAw?$AAa?$AAr@ 0000000180023250     PINPad.obj
 0002:00001290       ??_C@_1BE@LJOLIMEM@?$AA?$AN?$AA?6?$AA?7?$AA?$HN?$AA?$AN?$AA?6?$AA?$HN?$AA?$AN?$AA?6@ 0000000180023290     PINPad.obj
 0002:000012a8       ??_7?$CComContainedObject@VCOPOSPINPad@@@ATL@@6B?$IDispatchImpl@UIOPOSPINPad@@$1?IID_IOPOSPINPad@@3U_GUID@@B$1?LIBID_OposPINPad_CCO@@3U3@B$00$0A@VCComTypeInfoHolder@ATL@@@1@@ 00000001800232a8     PINPad.obj
 0002:000015b0       ??_7?$CComContainedObject@VCOPOSPINPad@@@ATL@@6BCComControlBase@1@@ 00000001800235b0     PINPad.obj
 0002:000015d8       ??_7?$CComContainedObject@VCOPOSPINPad@@@ATL@@6B?$CWindowImpl@VCOPOSPINPad@@VCWindow@ATL@@V?$CWinTraits@$0FGAAAAAA@$0A@@3@@1@@ 00000001800235d8     PINPad.obj
 0002:000015f8       ??_7?$CComContainedObject@VCOPOSPINPad@@@ATL@@6B?$IPersistStreamInitImpl@VCOPOSPINPad@@@1@@ 00000001800235f8     PINPad.obj
 0002:00001640       ??_7?$CComContainedObject@VCOPOSPINPad@@@ATL@@6B?$IOleControlImpl@VCOPOSPINPad@@@1@@ 0000000180023640     PINPad.obj
 0002:00001678       ??_7?$CComContainedObject@VCOPOSPINPad@@@ATL@@6B?$IOleObjectImpl@VCOPOSPINPad@@@1@@ 0000000180023678     PINPad.obj
 0002:00001738       ??_7?$CComContainedObject@VCOPOSPINPad@@@ATL@@6B?$IOleInPlaceActiveObjectImpl@VCOPOSPINPad@@@1@@ 0000000180023738     PINPad.obj
 0002:00001788       ??_7?$CComContainedObject@VCOPOSPINPad@@@ATL@@6B?$IViewObjectExImpl@VCOPOSPINPad@@@1@@ 0000000180023788     PINPad.obj
 0002:00001800       ??_7?$CComContainedObject@VCOPOSPINPad@@@ATL@@6B?$IOleInPlaceObjectWindowlessImpl@VCOPOSPINPad@@@1@@ 0000000180023800     PINPad.obj
 0002:00001858       ??_7?$CComContainedObject@VCOPOSPINPad@@@ATL@@6B?$IConnectionPointContainerImpl@VCOPOSPINPad@@@1@@ 0000000180023858     PINPad.obj
 0002:00001880       ??_7?$CComContainedObject@VCOPOSPINPad@@@ATL@@6B?$IPersistStorageImpl@VCOPOSPINPad@@@1@@ 0000000180023880     PINPad.obj
 0002:000018d0       ??_7?$CComContainedObject@VCOPOSPINPad@@@ATL@@6B?$ISpecifyPropertyPagesImpl@VCOPOSPINPad@@@1@@ 00000001800238d0     PINPad.obj
 0002:000018f0       ??_7?$CComContainedObject@VCOPOSPINPad@@@ATL@@6B?$IQuickActivateImpl@VCOPOSPINPad@@@1@@ 00000001800238f0     PINPad.obj
 0002:00001920       ??_7?$CComContainedObject@VCOPOSPINPad@@@ATL@@6B?$IDataObjectImpl@VCOPOSPINPad@@@1@@ 0000000180023920     PINPad.obj
 0002:00001980       ??_7?$CComContainedObject@VCOPOSPINPad@@@ATL@@6B?$IProvideClassInfo2Impl@$1?CLSID_OPOSPINPad@@3U_GUID@@B$1?DIID__IOPOSPINPadEvents@@3U2@B$1?LIBID_OposPINPad_CCO@@3U2@B$00$0A@VCComTypeInfoHolder@ATL@@@1@@ 0000000180023980     PINPad.obj
 0002:000019a8       ??_7?$CComContainedObject@VCOPOSPINPad@@@ATL@@6B?$IObjectSafetyImpl@VCOPOSPINPad@@$02@1@@ 00000001800239a8     PINPad.obj
 0002:000019d8       ??_7?$CComContainedObject@VCOPOSPINPad@@@ATL@@6B?$IPropertyNotifySinkCP@VCOPOSPINPad@@VCComDynamicUnkArray@ATL@@@1@@ 00000001800239d8     PINPad.obj
 0002:00001a18       ??_7?$CComContainedObject@VCOPOSPINPad@@@ATL@@6B?$CProxy_IOPOSEvents@VCOPOSPINPad@@@@@ 0000000180023a18     PINPad.obj
 0002:00001a58       ??_7?$CComAggObject@VCOPOSPINPad@@@ATL@@6B@ 0000000180023a58     PINPad.obj
 0002:00001a78       ??_C@_1O@MNLDABAF@?$AAM?$AAo?$AAd?$AAu?$AAl?$AAe@ 0000000180023a78     PINPad.obj
 0002:00001a88       ??_C@_1BG@JBACFMF@?$AAM?$AAo?$AAd?$AAu?$AAl?$AAe?$AA_?$AAR?$AAa?$AAw@ 0000000180023a88     PINPad.obj
 0002:00001aa0       ??_C@_1BC@KAILKFFG@?$AAR?$AAE?$AAG?$AAI?$AAS?$AAT?$AAR?$AAY@ 0000000180023aa0     PINPad.obj
 0002:00001ab8       ??_7?$CComObject@VCOPOSPINPad@@@ATL@@6B?$IDispatchImpl@UIOPOSPINPad@@$1?IID_IOPOSPINPad@@3U_GUID@@B$1?LIBID_OposPINPad_CCO@@3U3@B$00$0A@VCComTypeInfoHolder@ATL@@@1@@ 0000000180023ab8     PINPad.obj
 0002:00001dc0       ??_7?$CComObject@VCOPOSPINPad@@@ATL@@6BCComControlBase@1@@ 0000000180023dc0     PINPad.obj
 0002:00001de8       ??_7?$CComObject@VCOPOSPINPad@@@ATL@@6B?$CWindowImpl@VCOPOSPINPad@@VCWindow@ATL@@V?$CWinTraits@$0FGAAAAAA@$0A@@3@@1@@ 0000000180023de8     PINPad.obj
 0002:00001e08       ??_7?$CComObject@VCOPOSPINPad@@@ATL@@6B?$IPersistStreamInitImpl@VCOPOSPINPad@@@1@@ 0000000180023e08     PINPad.obj
 0002:00001e50       ??_7?$CComObject@VCOPOSPINPad@@@ATL@@6B?$IOleControlImpl@VCOPOSPINPad@@@1@@ 0000000180023e50     PINPad.obj
 0002:00001e88       ??_7?$CComObject@VCOPOSPINPad@@@ATL@@6B?$IOleObjectImpl@VCOPOSPINPad@@@1@@ 0000000180023e88     PINPad.obj
 0002:00001f48       ??_7?$CComObject@VCOPOSPINPad@@@ATL@@6B?$IOleInPlaceActiveObjectImpl@VCOPOSPINPad@@@1@@ 0000000180023f48     PINPad.obj
 0002:00001f98       ??_7?$CComObject@VCOPOSPINPad@@@ATL@@6B?$IViewObjectExImpl@VCOPOSPINPad@@@1@@ 0000000180023f98     PINPad.obj
 0002:00002010       ??_7?$CComObject@VCOPOSPINPad@@@ATL@@6B?$IOleInPlaceObjectWindowlessImpl@VCOPOSPINPad@@@1@@ 0000000180024010     PINPad.obj
 0002:00002068       ??_7?$CComObject@VCOPOSPINPad@@@ATL@@6B?$IConnectionPointContainerImpl@VCOPOSPINPad@@@1@@ 0000000180024068     PINPad.obj
 0002:00002090       ??_7?$CComObject@VCOPOSPINPad@@@ATL@@6B?$IPersistStorageImpl@VCOPOSPINPad@@@1@@ 0000000180024090     PINPad.obj
 0002:000020e0       ??_7?$CComObject@VCOPOSPINPad@@@ATL@@6B?$ISpecifyPropertyPagesImpl@VCOPOSPINPad@@@1@@ 00000001800240e0     PINPad.obj
 0002:00002100       ??_7?$CComObject@VCOPOSPINPad@@@ATL@@6B?$IQuickActivateImpl@VCOPOSPINPad@@@1@@ 0000000180024100     PINPad.obj
 0002:00002130       ??_7?$CComObject@VCOPOSPINPad@@@ATL@@6B?$IDataObjectImpl@VCOPOSPINPad@@@1@@ 0000000180024130     PINPad.obj
 0002:00002190       ??_7?$CComObject@VCOPOSPINPad@@@ATL@@6B?$IProvideClassInfo2Impl@$1?CLSID_OPOSPINPad@@3U_GUID@@B$1?DIID__IOPOSPINPadEvents@@3U2@B$1?LIBID_OposPINPad_CCO@@3U2@B$00$0A@VCComTypeInfoHolder@ATL@@@1@@ 0000000180024190     PINPad.obj
 0002:000021b8       ??_7?$CComObject@VCOPOSPINPad@@@ATL@@6B?$IObjectSafetyImpl@VCOPOSPINPad@@$02@1@@ 00000001800241b8     PINPad.obj
 0002:000021e8       ??_7?$CComObject@VCOPOSPINPad@@@ATL@@6B?$IPropertyNotifySinkCP@VCOPOSPINPad@@VCComDynamicUnkArray@ATL@@@1@@ 00000001800241e8     PINPad.obj
 0002:00002228       ??_7?$CComObject@VCOPOSPINPad@@@ATL@@6B?$CProxy_IOPOSEvents@VCOPOSPINPad@@@@@ 0000000180024228     PINPad.obj
 0002:00002268       ??_C@_1O@GBFKGNEO@?$AAA?$AAT?$AAL?$AA?3?$AA?$CF?$AAp@ 0000000180024268     PINPad.obj
 0002:00002278       ??_C@_1BA@PICGEGJB@?$AAD?$AAI?$AAS?$AAP?$AAL?$AAA?$AAY@ 0000000180024278     PINPad.obj
 0002:00002288       _GUID_9bfbbc02_eff1_101a_84ed_00aa00341d07 0000000180024288     PINPad.obj
 0002:00002298       ?_entries@?1??_GetEntries@?$CComEnum@UIEnumConnectionPoints@@$1?_GUID_b196b285_bab4_101a_b69c_00aa00341d07@@3U__s_GUID@@BPEAUIConnectionPoint@@V?$_CopyInterface@UIConnectionPoint@@@ATL@@VCComSingleThreadModel@6@@ATL@@SAPEBU_ATL_INTMAP_ENTRY@3@XZ@4QBU43@B 0000000180024298     PINPad.obj
 0002:000022c8       _GUID_b196b284_bab4_101a_b69c_00aa00341d07 00000001800242c8     PINPad.obj
 0002:000022d8       _GUID_00020412_0000_0000_c000_000000000046 00000001800242d8     PINPad.obj
 0002:000022e8       _GUID_00020401_0000_0000_c000_000000000046 00000001800242e8     PINPad.obj
 0002:000022f8       _GUID_55980ba0_35aa_11cf_b671_00aa004cd6d8 00000001800242f8     PINPad.obj
 0002:00002308       ??_7?$CComObject@V?$CComEnum@UIEnumConnections@@$1?_GUID_b196b287_bab4_101a_b69c_00aa00341d07@@3U__s_GUID@@BUtagCONNECTDATA@@V?$_Copy@UtagCONNECTDATA@@@ATL@@VCComSingleThreadModel@6@@ATL@@@ATL@@6B@ 0000000180024308     PINPad.obj
 0002:00002348       _GUID_b196b28b_bab4_101a_b69c_00aa00341d07 0000000180024348     PINPad.obj
 0002:00002358       ?_entries@?1??_GetEntries@?$CComEnum@UIEnumConnections@@$1?_GUID_b196b287_bab4_101a_b69c_00aa00341d07@@3U__s_GUID@@BUtagCONNECTDATA@@V?$_Copy@UtagCONNECTDATA@@@ATL@@VCComSingleThreadModel@6@@ATL@@SAPEBU_ATL_INTMAP_ENTRY@3@XZ@4QBU43@B 0000000180024358     PINPad.obj
 0002:00002388       ??_7CComClassFactory@ATL@@6B@ 0000000180024388     PINPad.obj
 0002:000023b8       ?_entries@?1??_GetEntries@CComClassFactory@ATL@@SAPEBU_ATL_INTMAP_ENTRY@3@XZ@4QBU43@B 00000001800243b8     PINPad.obj
 0002:000023e8       _GUID_00000001_0000_0000_c000_000000000046 00000001800243e8     PINPad.obj
 0002:000023f8       ??_C@_0BG@EKFFMJIO@RegOpenKeyTransactedW@ 00000001800243f8     PINPad.obj
 0002:00002410       ??_C@_0BI@HAKLOOGP@RegDeleteKeyTransactedW@ 0000000180024410     PINPad.obj
 0002:00002428       ??_C@_0BA@LILAPHGE@RegDeleteKeyExW@ 0000000180024428     PINPad.obj
 0002:00002438       ??_C@_19ILOCMLCJ@?$AA?4?$AAt?$AAl?$AAb@ 0000000180024438     PINPad.obj
 0002:00002448       _GUID_0002e012_0000_0000_c000_000000000046 0000000180024448     PINPad.obj
 0002:00002458       ??_C@_1O@FHBGLCIO@?$AAC?$AAL?$AAS?$AAI?$AAD?$AA?2@ 0000000180024458     PINPad.obj
 0002:00002468       ??_C@_1CK@IFBKBFAA@?$AA?2?$AAR?$AAe?$AAq?$AAu?$AAi?$AAr?$AAe?$AAd?$AA?5?$AAC?$AAa?$AAt?$AAe?$AAg@ 0000000180024468     PINPad.obj
 0002:00002498       ??_C@_1DA@BIHALFED@?$AA?2?$AAI?$AAm?$AAp?$AAl?$AAe?$AAm?$AAe?$AAn?$AAt?$AAe?$AAd?$AA?5?$AAC?$AAa@ 0000000180024498     PINPad.obj
 0002:000024c8       ??_C@_1BK@EDKOLFBJ@?$AAO?$AAL?$AAE?$AAA?$AAU?$AAT?$AA3?$AA2?$AA?4?$AAD?$AAL?$AAL@ 00000001800244c8     PINPad.obj
 0002:000024e8       ??_C@_0BJ@CNLFOMHB@UnRegisterTypeLibForUser@ 00000001800244e8     PINPad.obj
 0002:00002508       ??_C@_0BH@LBOMMKPJ@RegisterTypeLibForUser@ 0000000180024508     PINPad.obj
 0002:00002520       ??_C@_0P@MMNMMLGK@COFreezeEvents@ 0000000180024520     PINPadImpl.obj
 0002:00002530       ??_C@_0BC@OGCGGIMP@GetPropertyNumber@ 0000000180024530     PINPadImpl.obj
 0002:00002548       ??_C@_0BC@MDCNODNB@SetPropertyNumber@ 0000000180024548     PINPadImpl.obj
 0002:00002560       ??_C@_0BC@CFCCMIMD@GetPropertyString@ 0000000180024560     PINPadImpl.obj
 0002:00002578       ??_C@_0BC@CJEDNN@SetPropertyString@ 0000000180024578     PINPadImpl.obj
 0002:00002590       ??_C@_0M@LNPKKKDA@OpenService@ 0000000180024590     PINPadImpl.obj
 0002:000025a0       ??_C@_0M@PCMCHHMH@CheckHealth@ 00000001800245a0     PINPadImpl.obj
 0002:000025b0       ??_C@_0M@JGMIDNEK@ClaimDevice@ 00000001800245b0     PINPadImpl.obj
 0002:000025c0       ??_C@_0L@BNEIFEJC@ClearInput@ 00000001800245c0     PINPadImpl.obj
 0002:000025d0       ??_C@_0N@DDFIIBMP@CloseService@ 00000001800245d0     PINPadImpl.obj
 0002:000025e0       ??_C@_08EEIHICPC@DirectIO@ 00000001800245e0     PINPadImpl.obj
 0002:000025f0       ??_C@_0O@BCPMENMJ@ReleaseDevice@ 00000001800245f0     PINPadImpl.obj
 0002:00002600       ??_C@_09EGHCFIHC@GetAmount@ 0000000180024600     PINPadImpl.obj
 0002:00002610       ??_C@_09GIDHHJOA@SetAmount@ 0000000180024610     PINPadImpl.obj
 0002:00002620       ??_C@_0BE@JOBLMMKO@BeginEFTTransaction@ 0000000180024620     PINPadImpl.obj
 0002:00002638       ??_C@_0L@EGABKKNE@ComputeMAC@ 0000000180024638     PINPadImpl.obj
 0002:00002648       ??_C@_0P@IIOMFEON@EnablePINEntry@ 0000000180024648     PINPadImpl.obj
 0002:00002658       ??_C@_0BC@NAFGEMKG@EndEFTTransaction@ 0000000180024658     PINPadImpl.obj
 0002:00002670       ??_C@_09PHBOFDOC@UpdateKey@ 0000000180024670     PINPadImpl.obj
 0002:00002680       ??_C@_09KHMNCPJO@VerifyMAC@ 0000000180024680     PINPadImpl.obj
 0002:00002690       ??_C@_0BA@GFABKEEE@ResetStatistics@ 0000000180024690     PINPadImpl.obj
 0002:000026a0       ??_C@_0BD@DPALHJGC@RetrieveStatistics@ 00000001800246a0     PINPadImpl.obj
 0002:000026b8       ??_C@_0BB@KOHIKNFC@UpdateStatistics@ 00000001800246b8     PINPadImpl.obj
 0002:000026d0       ??_C@_0BH@PBKBNMGB@CompareFirmwareVersion@ 00000001800246d0     PINPadImpl.obj
 0002:000026e8       ??_C@_0P@FBPDPIPA@UpdateFirmware@ 00000001800246e8     PINPadImpl.obj
 0002:000026f8       ??_C@_0BF@CMAPCJGM@ClearInputProperties@ 00000001800246f8     PINPadImpl.obj
 0002:00002710       ??_7?$CProxy_IOPOSEvents@VCOPOSPINPad@@@@6B@ 0000000180024710     PINPadImpl.obj
 0002:00002750       ??_C@_1BA@IFHENID@?$AA?$FL?$AAE?$AAr?$AAr?$AAo?$AAr?$AA?$FN@ 0000000180024750     PINPadImpl.obj
 0002:00002760       ??_C@_0CJ@KLINAKEC@SOFTWARE?2OLEforRetail?2ServiceOP@ 0000000180024760     PINPadImpl.obj
 0002:00002790       ??_C@_1M@IAIJHCCH@?$AAC?$AAl?$AAo?$AAs?$AAe@ 0000000180024790     PINPadImpl.obj
 0002:000027a0       ??_C@_1M@PCPKGJAH@?$AAC?$AAl?$AAa?$AAi?$AAm@ 00000001800247a0     PINPadImpl.obj
 0002:000027b0       ??_C@_1BA@NDFKIOCP@?$AAR?$AAe?$AAl?$AAe?$AAa?$AAs?$AAe@ 00000001800247b0     PINPadImpl.obj
 0002:000027c0       ??_C@_06NFLHEKM@PINPad@    00000001800247c0     PINPadImpl.obj
 0002:000027c8       ??_C@_1BM@IJMNMBPK@?$AAG?$AAe?$AAt?$AAO?$AAp?$AAe?$AAn?$AAR?$AAe?$AAs?$AAu?$AAl?$AAt@ 00000001800247c8     PINPadImpl.obj
 0002:000027e8       IID_IDispatch              00000001800247e8     uuid:oaidl_i.obj
 0002:000027f8       IID_IPropertyNotifySink    00000001800247f8     uuid:ocidl_i.obj
 0002:00002808       GUID_NULL                  0000000180024808     uuid:cguid_i.obj
 0002:00002818       CLSID_StdGlobalInterfaceTable 0000000180024818     uuid:cguid_i.obj
 0002:00002828       CLSID_StdComponentCategoriesMgr 0000000180024828     uuid:ieguids.obj
 0002:00002838       IID_IUnknown               0000000180024838     uuid:unknwn_i.obj
 0002:00002850       __xmm@ffffffffffffffffffffffffffffffff 0000000180024850     LIBCMT:utility.obj
 0002:00002860       ??_C@_1EC@JIJBPKFM@?$AAa?$AAp?$AAi?$AA?9?$AAm?$AAs?$AA?9?$AAw?$AAi?$AAn?$AA?9?$AAc?$AAo?$AAr?$AAe@ 0000000180024860     LIBCMT:thread_safe_statics.obj
 0002:000028a8       ??_C@_1BK@MGMFAEKH@?$AAk?$AAe?$AAr?$AAn?$AAe?$AAl?$AA3?$AA2?$AA?4?$AAd?$AAl?$AAl@ 00000001800248a8     LIBCMT:thread_safe_statics.obj
 0002:000028c8       ??_C@_0BJ@JEBJOJFJ@SleepConditionVariableCS@ 00000001800248c8     LIBCMT:thread_safe_statics.obj
 0002:000028e8       ??_C@_0BJ@PGPPEPCC@WakeAllConditionVariable@ 00000001800248e8     LIBCMT:thread_safe_statics.obj
 0002:00002901       ?nothrow@std@@3Unothrow_t@1@B 0000000180024901     LIBCMT:std_nothrow.obj
 0002:00002940       _pRawDllMain               0000000180024940     LIBCMT:dll_dllmain.obj
 0002:00002940       _pDefaultRawDllMain        0000000180024940     LIBCMT:dll_dllmain.obj
 0002:00002950       ??_7exception@std@@6B@     0000000180024950     LIBCMT:throw_bad_alloc.obj
 0002:00002960       ??_C@_0BC@EOODALEL@Unknown?5exception@ 0000000180024960     LIBCMT:throw_bad_alloc.obj
 0002:00002980       ??_7bad_alloc@std@@6B@     0000000180024980     LIBCMT:throw_bad_alloc.obj
 0002:00002990       ??_C@_0P@GHFPNOJB@bad?5allocation@ 0000000180024990     LIBCMT:throw_bad_alloc.obj
 0002:000029a8       ??_7bad_array_new_length@std@@6B@ 00000001800249a8     LIBCMT:throw_bad_alloc.obj
 0002:000029b8       ??_C@_0BF@KINCDENJ@bad?5array?5new?5length@ 00000001800249b8     LIBCMT:throw_bad_alloc.obj
 0002:000029d8       ??_7type_info@@6B@         00000001800249d8     LIBCMT:std_type_info_static.obj
 0002:000029e0       GUID_ATLVer110             00000001800249e0     atls:atlbase.obj
 0002:000029f0       ??_C@_1IC@ONKHOIDK@?$AAE?$AAR?$AAR?$AAO?$AAR?$AA?5?$AA?3?$AA?5?$AAU?$AAn?$AAa?$AAb?$AAl?$AAe?$AA?5@ 00000001800249f0     atls:atlbase.obj
 0002:00002a78       ??_C@_0N@FJEPLCIH@atlthunk?4dll@ 0000000180024a78     atls:atlthunk.obj
 0002:00002a88       ??_C@_0BG@GAKFHCBM@AtlThunk_AllocateData@ 0000000180024a88     atls:atlthunk.obj
 0002:00002aa0       ??_C@_0BC@JKONFIAH@AtlThunk_InitData@ 0000000180024aa0     atls:atlthunk.obj
 0002:00002ab8       ??_C@_0BE@IAOEELAK@AtlThunk_DataToCode@ 0000000180024ab8     atls:atlthunk.obj
 0002:00002ad0       ??_C@_0BC@GBGKAIPI@AtlThunk_FreeData@ 0000000180024ad0     atls:atlthunk.obj
 0002:00002b88       _pDestructExceptionObject  0000000180024b88     libvcruntime:ehhelpers.obj
 0002:00002b98       ??_7bad_exception@std@@6B@ 0000000180024b98     libvcruntime:frame.obj
 0002:00002ba8       ??_C@_0O@DPKOEFFH@bad?5exception@ 0000000180024ba8     libvcruntime:frame.obj
 0002:000032c0       ??_C@_08EHJDFFNH@__based?$CI@ 00000001800252c0     libvcruntime:undname.obj
 0002:000032d0       ??_C@_07KOLFKCDI@__cdecl@  00000001800252d0     libvcruntime:undname.obj
 0002:000032d8       ??_C@_08GHMPAG@__pascal@   00000001800252d8     libvcruntime:undname.obj
 0002:000032e8       ??_C@_09IFJBGAPI@__stdcall@ 00000001800252e8     libvcruntime:undname.obj
 0002:000032f8       ??_C@_0L@NPHFGOKO@__thiscall@ 00000001800252f8     libvcruntime:undname.obj
 0002:00003308       ??_C@_0L@JMKHOMEK@__fastcall@ 0000000180025308     libvcruntime:undname.obj
 0002:00003318       ??_C@_0N@BCKKPABJ@__vectorcall@ 0000000180025318     libvcruntime:undname.obj
 0002:00003328       ??_C@_09HIJEGCPM@__clrcall@ 0000000180025328     libvcruntime:undname.obj
 0002:00003334       ??_C@_06GHPCKEAG@__eabi@   0000000180025334     libvcruntime:undname.obj
 0002:00003340       ??_C@_09IOPIDJLG@__swift_1@ 0000000180025340     libvcruntime:undname.obj
 0002:00003350       ??_C@_09KFNFGKHF@__swift_2@ 0000000180025350     libvcruntime:undname.obj
 0002:00003360       ??_C@_07JOMMBBKO@__ptr64@  0000000180025360     libvcruntime:undname.obj
 0002:00003368       ??_C@_0L@PILCLIHE@__restrict@ 0000000180025368     libvcruntime:undname.obj
 0002:00003378       ??_C@_0M@GFIIJFMG@__unaligned@ 0000000180025378     libvcruntime:undname.obj
 0002:00003388       ??_C@_09DHDLOLLB@restrict?$CI@ 0000000180025388     libvcruntime:undname.obj
 0002:00003392       ??_C@_00CNPNBAHC@@         0000000180025392     libvcruntime:undname.obj
 0002:00003394       ??_C@_04NIHEBCM@?5new@     0000000180025394     libvcruntime:undname.obj
 0002:000033a0       ??_C@_07FPCDHGMM@?5delete@ 00000001800253a0     libvcruntime:undname.obj
 0002:000033a8       ??_C@_01NEMOKFLO@?$DN@     00000001800253a8     libvcruntime:undname.obj
 0002:000033ac       ??_C@_02GPIOPFAK@?$DO?$DO@ 00000001800253ac     libvcruntime:undname.obj
 0002:000033b0       ??_C@_02FODMEDOG@?$DM?$DM@ 00000001800253b0     libvcruntime:undname.obj
 0002:000033b4       ??_C@_01DCLJPIOD@?$CB@     00000001800253b4     libvcruntime:undname.obj
 0002:000033b8       ??_C@_02EGOFBIJA@?$DN?$DN@ 00000001800253b8     libvcruntime:undname.obj
 0002:000033bc       ??_C@_02FDNJECIE@?$CB?$DN@ 00000001800253bc     libvcruntime:undname.obj
 0002:000033c0       ??_C@_02GPECMEKF@?$FL?$FN@ 00000001800253c0     libvcruntime:undname.obj
 0002:000033c8       ??_C@_08LHJFAFGD@operator@ 00000001800253c8     libvcruntime:undname.obj
 0002:000033d4       ??_C@_02HBOOOICD@?9?$DO@   00000001800253d4     libvcruntime:undname.obj
 0002:000033d8       ??_C@_01NBENCBCI@?$CK@     00000001800253d8     libvcruntime:undname.obj
 0002:000033dc       ??_C@_02ECNGHCIF@?$CL?$CL@ 00000001800253dc     libvcruntime:undname.obj
 0002:000033e0       ??_C@_02BAABKJLB@?9?9@     00000001800253e0     libvcruntime:undname.obj
 0002:000033e4       ??_C@_01JOAMLHOP@?9@       00000001800253e4     libvcruntime:undname.obj
 0002:000033e8       ??_C@_01MIFGBAGJ@?$CL@     00000001800253e8     libvcruntime:undname.obj
 0002:000033ec       ??_C@_01HNPIGOCE@?$CG@     00000001800253ec     libvcruntime:undname.obj
 0002:000033f0       ??_C@_03MNHNFDLC@?9?$DO?$CK@ 00000001800253f0     libvcruntime:undname.obj
 0002:000033f4       ??_C@_01KMDKNFGN@?1@       00000001800253f4     libvcruntime:undname.obj
 0002:000033f8       ??_C@_01FGNFDNOH@?$CF@     00000001800253f8     libvcruntime:undname.obj
 0002:000033fc       ??_C@_01MNNFJEPP@?$DM@     00000001800253fc     libvcruntime:undname.obj
 0002:00003400       ??_C@_02EHCHHCKH@?$DM?$DN@ 0000000180025400     libvcruntime:undname.obj
 0002:00003404       ??_C@_01PPODPGHN@?$DO@     0000000180025404     libvcruntime:undname.obj
 0002:00003408       ??_C@_02EEKDKGMJ@?$DO?$DN@ 0000000180025408     libvcruntime:undname.obj
 0002:0000340c       ??_C@_01IHBHIGKO@?0@       000000018002540c     libvcruntime:undname.obj
 0002:00003410       ??_C@_02HCKGKOFO@?$CI?$CJ@ 0000000180025410     libvcruntime:undname.obj
 0002:00003414       ??_C@_01PJKLJHI@?$HO@      0000000180025414     libvcruntime:undname.obj
 0002:00003418       ??_C@_01JKBOJNNK@?$FO@     0000000180025418     libvcruntime:undname.obj
 0002:0000341c       ??_C@_01DNKMNLPK@?$HM@     000000018002541c     libvcruntime:undname.obj
 0002:00003420       ??_C@_02PPKAJPJL@?$CG?$CG@ 0000000180025420     libvcruntime:undname.obj
 0002:00003424       ??_C@_02NONPIBCD@?$HM?$HM@ 0000000180025424     libvcruntime:undname.obj
 0002:00003428       ??_C@_02FPIMKNGF@?$CK?$DN@ 0000000180025428     libvcruntime:undname.obj
 0002:0000342c       ??_C@_02FOEOMHFC@?$CL?$DN@ 000000018002542c     libvcruntime:undname.obj
 0002:00003430       ??_C@_02FKMDLLOA@?9?$DN@   0000000180025430     libvcruntime:undname.obj
 0002:00003434       ??_C@_02FJEHGPIO@?1?$DN@   0000000180025434     libvcruntime:undname.obj
 0002:00003438       ??_C@_02FENAOKFI@?$CF?$DN@ 0000000180025438     libvcruntime:undname.obj
 0002:0000343c       ??_C@_03IKFCCPFF@?$DO?$DO?$DN@ 000000018002543c     libvcruntime:undname.obj
 0002:00003440       ??_C@_03CDNPDDLA@?$DM?$DM?$DN@ 0000000180025440     libvcruntime:undname.obj
 0002:00003444       ??_C@_02FGJGFEAB@?$CG?$DN@ 0000000180025444     libvcruntime:undname.obj
 0002:00003448       ??_C@_02DHLNPPGH@?$HM?$DN@ 0000000180025448     libvcruntime:undname.obj
 0002:0000344c       ??_C@_02MHEGNOJ@?$FO?$DN@  000000018002544c     libvcruntime:undname.obj
 0002:00003450       ??_C@_09IFPLHPGF@?$GAvftable?8@ 0000000180025450     libvcruntime:undname.obj
 0002:00003460       ??_C@_09BLBHBJP@?$GAvbtable?8@ 0000000180025460     libvcruntime:undname.obj
 0002:00003470       ??_C@_07FEEIOKP@?$GAvcall?8@ 0000000180025470     libvcruntime:undname.obj
 0002:00003478       ??_C@_08LLFFHHDJ@?$GAtypeof?8@ 0000000180025478     libvcruntime:undname.obj
 0002:00003488       ??_C@_0BF@KDPPACIK@?$GAlocal?5static?5guard?8@ 0000000180025488     libvcruntime:undname.obj
 0002:000034a0       ??_C@_08OBABFOLI@?$GAstring?8@ 00000001800254a0     libvcruntime:undname.obj
 0002:000034b0       ??_C@_0BD@JDLKDPAB@?$GAvbase?5destructor?8@ 00000001800254b0     libvcruntime:undname.obj
 0002:000034c8       ??_C@_0BN@DEGPLNFK@?$GAvector?5deleting?5destructor?8@ 00000001800254c8     libvcruntime:undname.obj
 0002:000034e8       ??_C@_0BO@OBMKPJIG@?$GAdefault?5constructor?5closure?8@ 00000001800254e8     libvcruntime:undname.obj
 0002:00003508       ??_C@_0BN@IMDCHIKM@?$GAscalar?5deleting?5destructor?8@ 0000000180025508     libvcruntime:undname.obj
 0002:00003528       ??_C@_0BO@PFGOCPJJ@?$GAvector?5constructor?5iterator?8@ 0000000180025528     libvcruntime:undname.obj
 0002:00003548       ??_C@_0BN@LFPFMEDL@?$GAvector?5destructor?5iterator?8@ 0000000180025548     libvcruntime:undname.obj
 0002:00003568       ??_C@_0CE@IKBNEHA@?$GAvector?5vbase?5constructor?5itera@ 0000000180025568     libvcruntime:undname.obj
 0002:00003590       ??_C@_0BL@NILFHHPC@?$GAvirtual?5displacement?5map?8@ 0000000180025590     libvcruntime:undname.obj
 0002:000035b0       ??_C@_0CB@JONCMFFK@?$GAeh?5vector?5constructor?5iterator@ 00000001800255b0     libvcruntime:undname.obj
 0002:000035d8       ??_C@_0CA@GCEOPDGL@?$GAeh?5vector?5destructor?5iterator?8@ 00000001800255d8     libvcruntime:undname.obj
 0002:000035f8       ??_C@_0CH@OOJPLCPH@?$GAeh?5vector?5vbase?5constructor?5it@ 00000001800255f8     libvcruntime:undname.obj
 0002:00003620       ??_C@_0BL@LLKPOHJI@?$GAcopy?5constructor?5closure?8@ 0000000180025620     libvcruntime:undname.obj
 0002:00003640       ??_C@_0BA@KBCDOMBN@?$GAudt?5returning?8@ 0000000180025640     libvcruntime:undname.obj
 0002:00003650       ??_C@_03KLGMFNMG@?$GAEH@   0000000180025650     libvcruntime:undname.obj
 0002:00003654       ??_C@_05KHLCHHI@?$GARTTI@  0000000180025654     libvcruntime:undname.obj
 0002:00003660       ??_C@_0BA@KKLDJDLB@?$GAlocal?5vftable?8@ 0000000180025660     libvcruntime:undname.obj
 0002:00003670       ??_C@_0CE@IIHCMGGL@?$GAlocal?5vftable?5constructor?5clos@ 0000000180025670     libvcruntime:undname.obj
 0002:00003694       ??_C@_06FHBGPFGH@?5new?$FL?$FN@ 0000000180025694     libvcruntime:undname.obj
 0002:000036a0       ??_C@_09LBNFPBCA@?5delete?$FL?$FN@ 00000001800256a0     libvcruntime:undname.obj
 0002:000036b0       ??_C@_0P@HJKNJFNN@?$GAomni?5callsig?8@ 00000001800256b0     libvcruntime:undname.obj
 0002:000036c0       ??_C@_0BL@CNOONJFP@?$GAplacement?5delete?5closure?8@ 00000001800256c0     libvcruntime:undname.obj
 0002:000036e0       ??_C@_0BN@CKNJLHMB@?$GAplacement?5delete?$FL?$FN?5closure?8@ 00000001800256e0     libvcruntime:undname.obj
 0002:00003700       ??_C@_0CG@CFDHKGGD@?$GAmanaged?5vector?5constructor?5ite@ 0000000180025700     libvcruntime:undname.obj
 0002:00003728       ??_C@_0CF@IMGKMJNO@?$GAmanaged?5vector?5destructor?5iter@ 0000000180025728     libvcruntime:undname.obj
 0002:00003750       ??_C@_0CG@HLDDJMAG@?$GAeh?5vector?5copy?5constructor?5ite@ 0000000180025750     libvcruntime:undname.obj
 0002:00003778       ??_C@_0CM@FCBBDIGB@?$GAeh?5vector?5vbase?5copy?5construct@ 0000000180025778     libvcruntime:undname.obj
 0002:000037a8       ??_C@_0BL@CLIPGLGB@?$GAdynamic?5initializer?5for?5?8@ 00000001800257a8     libvcruntime:undname.obj
 0002:000037c8       ??_C@_0CB@PDBIFEP@?$GAdynamic?5atexit?5destructor?5for?5@ 00000001800257c8     libvcruntime:undname.obj
 0002:000037f0       ??_C@_0CD@CGAJBKEJ@?$GAvector?5copy?5constructor?5iterat@ 00000001800257f0     libvcruntime:undname.obj
 0002:00003818       ??_C@_0CJ@GJELGAMM@?$GAvector?5vbase?5copy?5constructor?5@ 0000000180025818     libvcruntime:undname.obj
 0002:00003848       ??_C@_0CL@FGIJHLCE@?$GAmanaged?5vector?5copy?5constructo@ 0000000180025848     libvcruntime:undname.obj
 0002:00003878       ??_C@_0BM@PMGGMLDN@?$GAlocal?5static?5thread?5guard?8@ 0000000180025878     libvcruntime:undname.obj
 0002:00003898       ??_C@_0N@BDNMDMOL@operator?5?$CC?$CC?5@ 0000000180025898     libvcruntime:undname.obj
 0002:000038a8       ??_C@_0BC@GGEBGALA@operator?5co_await@ 00000001800258a8     libvcruntime:undname.obj
 0002:000038c0       ??_C@_0M@GAAIMMOH@operator?$DM?$DN?$DO@ 00000001800258c0     libvcruntime:undname.obj
 0002:000038d0       ??_C@_0BC@DAFEJGAK@?5Type?5Descriptor?8@ 00000001800258d0     libvcruntime:undname.obj
 0002:000038e8       ??_C@_0BM@LDKODKLH@?5Base?5Class?5Descriptor?5at?5?$CI@ 00000001800258e8     libvcruntime:undname.obj
 0002:00003908       ??_C@_0BD@LGICGFMM@?5Base?5Class?5Array?8@ 0000000180025908     libvcruntime:undname.obj
 0002:00003920       ??_C@_0BN@MECKDCOJ@?5Class?5Hierarchy?5Descriptor?8@ 0000000180025920     libvcruntime:undname.obj
 0002:00003940       ??_C@_0BK@CFCOFLF@?5Complete?5Object?5Locator?8@ 0000000180025940     libvcruntime:undname.obj
 0002:00003960       ??_C@_0BG@JNJLAMPM@?$GAanonymous?5namespace?8@ 0000000180025960     libvcruntime:undname.obj
 0002:00003990       ??_C@_1DM@KHCHBNEB@?$AAa?$AAp?$AAi?$AA?9?$AAm?$AAs?$AA?9?$AAw?$AAi?$AAn?$AA?9?$AAc?$AAo?$AAr?$AAe@ 0000000180025990     libvcruntime:winapi_downlevel.obj
 0002:000039d0       ??_C@_1DK@LPPGFMPP@?$AAa?$AAp?$AAi?$AA?9?$AAm?$AAs?$AA?9?$AAw?$AAi?$AAn?$AA?9?$AAc?$AAo?$AAr?$AAe@ 00000001800259d0     libvcruntime:winapi_downlevel.obj
 0002:00003a10       ??_C@_1BC@GDMECMAK@?$AAk?$AAe?$AAr?$AAn?$AAe?$AAl?$AA3?$AA2@ 0000000180025a10     libvcruntime:winapi_downlevel.obj
 0002:00003a28       ??_C@_1BA@PFFKHIOG@?$AAa?$AAp?$AAi?$AA?9?$AAm?$AAs?$AA?9@ 0000000180025a28     libvcruntime:winapi_downlevel.obj
 0002:00003a40       ??_C@_08KNHFBNJ@FlsAlloc@  0000000180025a40     libvcruntime:winapi_downlevel.obj
 0002:00003a58       ??_C@_07PEJMOBNF@FlsFree@  0000000180025a58     libvcruntime:winapi_downlevel.obj
 0002:00003a68       ??_C@_0M@GDNOONDI@FlsGetValue@ 0000000180025a68     libvcruntime:winapi_downlevel.obj
 0002:00003a80       ??_C@_0M@JCPCPOEF@FlsSetValue@ 0000000180025a80     libvcruntime:winapi_downlevel.obj
 0002:00003a98       ??_C@_0BM@HCFOFFN@InitializeCriticalSectionEx@ 0000000180025a98     libvcruntime:winapi_downlevel.obj
 0002:00003c30       format_validation_lookup_table 0000000180025c30     libucrt:output.obj
 0002:00003c90       ??_C@_1O@CEDCILHN@?$AA?$CI?$AAn?$AAu?$AAl?$AAl?$AA?$CJ@ 0000000180025c90     libucrt:output.obj
 0002:00003ca0       ??_C@_06OJHGLDPL@?$CInull?$CJ@ 0000000180025ca0     libucrt:output.obj
 0002:00003cb0       __acrt_exception_action_table 0000000180025cb0     libucrt:exception_filter.obj
 0002:00003d70       __acrt_signal_action_table_count 0000000180025d70     libucrt:exception_filter.obj
 0002:00003d78       __acrt_signal_action_first_fpe_index 0000000180025d78     libucrt:exception_filter.obj
 0002:00003d80       __acrt_signal_action_fpe_count 0000000180025d80     libucrt:exception_filter.obj
 0002:00003d88       ??_C@_1BI@BGOHAHKC@?$AAm?$AAs?$AAc?$AAo?$AAr?$AAe?$AAe?$AA?4?$AAd?$AAl?$AAl@ 0000000180025d88     libucrt:exit.obj
 0002:00003da0       ??_C@_0P@MIGLKIOC@CorExitProcess@ 0000000180025da0     libucrt:exit.obj
 0002:00003f50       ??_C@_1EA@JGEFHKEI@?$AAa?$AAp?$AAi?$AA?9?$AAm?$AAs?$AA?9?$AAw?$AAi?$AAn?$AA?9?$AAc?$AAo?$AAr?$AAe@ 0000000180025f50     libucrt:winapi_thunks.obj
 0002:00003f90       ??_C@_1DI@IJCEHOCB@?$AAa?$AAp?$AAi?$AA?9?$AAm?$AAs?$AA?9?$AAw?$AAi?$AAn?$AA?9?$AAc?$AAo?$AAr?$AAe@ 0000000180025f90     libucrt:winapi_thunks.obj
 0002:00003fd0       ??_C@_1EI@MPIAOHOC@?$AAa?$AAp?$AAi?$AA?9?$AAm?$AAs?$AA?9?$AAw?$AAi?$AAn?$AA?9?$AAc?$AAo?$AAr?$AAe@ 0000000180025fd0     libucrt:winapi_thunks.obj
 0002:00004020       ??_C@_1FK@FPHCKFIE@?$AAa?$AAp?$AAi?$AA?9?$AAm?$AAs?$AA?9?$AAw?$AAi?$AAn?$AA?9?$AAc?$AAo?$AAr?$AAe@ 0000000180026020     libucrt:winapi_thunks.obj
 0002:00004080       ??_C@_1EM@DILCGIIO@?$AAa?$AAp?$AAi?$AA?9?$AAm?$AAs?$AA?9?$AAw?$AAi?$AAn?$AA?9?$AAc?$AAo?$AAr?$AAe@ 0000000180026080     libucrt:winapi_thunks.obj
 0002:000040d0       ??_C@_1DM@LNCGDDPN@?$AAa?$AAp?$AAi?$AA?9?$AAm?$AAs?$AA?9?$AAw?$AAi?$AAn?$AA?9?$AAc?$AAo?$AAr?$AAe@ 00000001800260d0     libucrt:winapi_thunks.obj
 0002:00004110       ??_C@_1DO@FPAPJEMD@?$AAa?$AAp?$AAi?$AA?9?$AAm?$AAs?$AA?9?$AAw?$AAi?$AAn?$AA?9?$AAc?$AAo?$AAr?$AAe@ 0000000180026110     libucrt:winapi_thunks.obj
 0002:00004150       ??_C@_1DK@NDHNAHIO@?$AAa?$AAp?$AAi?$AA?9?$AAm?$AAs?$AA?9?$AAw?$AAi?$AAn?$AA?9?$AAc?$AAo?$AAr?$AAe@ 0000000180026150     libucrt:winapi_thunks.obj
 0002:00004190       ??_C@_1DM@KGHDGBCM@?$AAa?$AAp?$AAi?$AA?9?$AAm?$AAs?$AA?9?$AAw?$AAi?$AAn?$AA?9?$AAc?$AAo?$AAr?$AAe@ 0000000180026190     libucrt:winapi_thunks.obj
 0002:000041d0       ??_C@_1EO@IJIOEFOH@?$AAa?$AAp?$AAi?$AA?9?$AAm?$AAs?$AA?9?$AAw?$AAi?$AAn?$AA?9?$AAr?$AAt?$AAc?$AAo@ 00000001800261d0     libucrt:winapi_thunks.obj
 0002:00004220       ??_C@_1FG@HHGEKANL@?$AAa?$AAp?$AAi?$AA?9?$AAm?$AAs?$AA?9?$AAw?$AAi?$AAn?$AA?9?$AAs?$AAe?$AAc?$AAu@ 0000000180026220     libucrt:winapi_thunks.obj
 0002:00004280       ??_C@_1EG@DBIOJECG@?$AAe?$AAx?$AAt?$AA?9?$AAm?$AAs?$AA?9?$AAw?$AAi?$AAn?$AA?9?$AAn?$AAt?$AAu?$AAs@ 0000000180026280     libucrt:winapi_thunks.obj
 0002:000042d0       ??_C@_1EO@FIHMJCLF@?$AAe?$AAx?$AAt?$AA?9?$AAm?$AAs?$AA?9?$AAw?$AAi?$AAn?$AA?9?$AAn?$AAt?$AAu?$AAs@ 00000001800262d0     libucrt:winapi_thunks.obj
 0002:00004320       ??_C@_1BC@DNHGCMLG@?$AAa?$AAd?$AAv?$AAa?$AAp?$AAi?$AA3?$AA2@ 0000000180026320     libucrt:winapi_thunks.obj
 0002:00004338       ??_C@_1M@OAIMIKLP@?$AAn?$AAt?$AAd?$AAl?$AAl@ 0000000180026338     libucrt:winapi_thunks.obj
 0002:00004350       ??_C@_1EG@DPGNFKGC@?$AAa?$AAp?$AAi?$AA?9?$AAm?$AAs?$AA?9?$AAw?$AAi?$AAn?$AA?9?$AAa?$AAp?$AAp?$AAm@ 0000000180026350     libucrt:winapi_thunks.obj
 0002:00004398       ??_C@_1O@BCCLBEOE@?$AAu?$AAs?$AAe?$AAr?$AA3?$AA2@ 0000000180026398     libucrt:winapi_thunks.obj
 0002:000043a8       ??_C@_1BA@IAIFMGEF@?$AAe?$AAx?$AAt?$AA?9?$AAm?$AAs?$AA?9@ 00000001800263a8     libucrt:winapi_thunks.obj
 0002:000043c0       ??_C@_0BA@FHFNEAED@AreFileApisANSI@ 00000001800263c0     libucrt:winapi_thunks.obj
 0002:00004400       ??_C@_0O@KKBNKAPF@LCMapStringEx@ 0000000180026400     libucrt:winapi_thunks.obj
 0002:00004418       ??_C@_0BB@HBDEELFH@LocaleNameToLCID@ 0000000180026418     libucrt:winapi_thunks.obj
 0002:00004430       ??_C@_0CF@OJOFEIGO@AppPolicyGetProcessTerminationM@ 0000000180026430     libucrt:winapi_thunks.obj
 0002:00004460       ??_C@_0BI@BKLFFAPO@SetThreadStackGuarantee@ 0000000180026460     libucrt:winapi_thunks.obj
 0002:00004500       ??_C@_03OEIAHPBN@INF@      0000000180026500     libucrt:cvt.obj
 0002:00004504       ??_C@_03OJHLLCGB@inf@      0000000180026504     libucrt:cvt.obj
 0002:00004508       ??_C@_03LKNCIKJB@NAN@      0000000180026508     libucrt:cvt.obj
 0002:0000450c       ??_C@_03LHCJEHON@nan@      000000018002650c     libucrt:cvt.obj
 0002:00004510       ??_C@_09OFJJIMPC@NAN?$CISNAN?$CJ@ 0000000180026510     libucrt:cvt.obj
 0002:00004520       ??_C@_09IPFBKMDL@nan?$CIsnan?$CJ@ 0000000180026520     libucrt:cvt.obj
 0002:00004530       ??_C@_08IKHNHAJ@NAN?$CIIND?$CJ@ 0000000180026530     libucrt:cvt.obj
 0002:00004540       ??_C@_08OFCDMILK@nan?$CIind?$CJ@ 0000000180026540     libucrt:cvt.obj
 0002:0000454c       ??_C@_05KLBDPFGC@e?$CL000@ 000000018002654c     libucrt:cvt.obj
 0002:00004560       __lc_time_c                0000000180026560     libucrt:nlsdata.obj
 0002:00004820       ??_C@_03KOEHGMDN@Sun@      0000000180026820     libucrt:nlsdata.obj
 0002:00004824       ??_C@_03PDAGKDH@Mon@       0000000180026824     libucrt:nlsdata.obj
 0002:00004828       ??_C@_03NAGEINEP@Tue@      0000000180026828     libucrt:nlsdata.obj
 0002:0000482c       ??_C@_03MHOMLAJA@Wed@      000000018002682c     libucrt:nlsdata.obj
 0002:00004830       ??_C@_03IOFIKPDN@Thu@      0000000180026830     libucrt:nlsdata.obj
 0002:00004834       ??_C@_03IDIOELNC@Fri@      0000000180026834     libucrt:nlsdata.obj
 0002:00004838       ??_C@_03FEFJNEK@Sat@       0000000180026838     libucrt:nlsdata.obj
 0002:0000483c       ??_C@_06OOPIFAJ@Sunday@    000000018002683c     libucrt:nlsdata.obj
 0002:00004844       ??_C@_06JLEDEDGH@Monday@   0000000180026844     libucrt:nlsdata.obj
 0002:00004850       ??_C@_07BAAGCFCM@Tuesday@  0000000180026850     libucrt:nlsdata.obj
 0002:00004858       ??_C@_09DLIGFAKA@Wednesday@ 0000000180026858     libucrt:nlsdata.obj
 0002:00004868       ??_C@_08HACCIKIA@Thursday@ 0000000180026868     libucrt:nlsdata.obj
 0002:00004874       ??_C@_06JECMNKMI@Friday@   0000000180026874     libucrt:nlsdata.obj
 0002:00004880       ??_C@_08INBOOONO@Saturday@ 0000000180026880     libucrt:nlsdata.obj
 0002:0000488c       ??_C@_03JIHJHPIE@Jan@      000000018002688c     libucrt:nlsdata.obj
 0002:00004890       ??_C@_03HJBDCHOM@Feb@      0000000180026890     libucrt:nlsdata.obj
 0002:00004894       ??_C@_03ODNJBKGA@Mar@      0000000180026894     libucrt:nlsdata.obj
 0002:00004898       ??_C@_03LEOLGMJP@Apr@      0000000180026898     libucrt:nlsdata.obj
 0002:0000489c       ??_C@_03CNMDKL@May@        000000018002689c     libucrt:nlsdata.obj
 0002:000048a0       ??_C@_03IDFGHECI@Jun@      00000001800268a0     libucrt:nlsdata.obj
 0002:000048a4       ??_C@_03LBGABGKK@Jul@      00000001800268a4     libucrt:nlsdata.obj
 0002:000048a8       ??_C@_03IFJFEIGA@Aug@      00000001800268a8     libucrt:nlsdata.obj
 0002:000048ac       ??_C@_03GGCAPAJC@Sep@      00000001800268ac     libucrt:nlsdata.obj
 0002:000048b0       ??_C@_03BMAOKBAD@Oct@      00000001800268b0     libucrt:nlsdata.obj
 0002:000048b4       ??_C@_03JPJOFNIA@Nov@      00000001800268b4     libucrt:nlsdata.obj
 0002:000048b8       ??_C@_03MKABNOCG@Dec@      00000001800268b8     libucrt:nlsdata.obj
 0002:000048c0       ??_C@_07CGJPFGJA@January@  00000001800268c0     libucrt:nlsdata.obj
 0002:000048c8       ??_C@_08GNJGEPFN@February@ 00000001800268c8     libucrt:nlsdata.obj
 0002:000048d4       ??_C@_05HPCKOFNC@March@    00000001800268d4     libucrt:nlsdata.obj
 0002:000048dc       ??_C@_05DMJDNLEJ@April@    00000001800268dc     libucrt:nlsdata.obj
 0002:000048e4       ??_C@_04CNLMGBGM@June@     00000001800268e4     libucrt:nlsdata.obj
 0002:000048ec       ??_C@_04MIEPOIFP@July@     00000001800268ec     libucrt:nlsdata.obj
 0002:000048f4       ??_C@_06LBBHFDDG@August@   00000001800268f4     libucrt:nlsdata.obj
 0002:00004900       ??_C@_09BHHEALKD@September@ 0000000180026900     libucrt:nlsdata.obj
 0002:00004910       ??_C@_07JJNFCEND@October@  0000000180026910     libucrt:nlsdata.obj
 0002:00004918       ??_C@_08HCHEGEOA@November@ 0000000180026918     libucrt:nlsdata.obj
 0002:00004928       ??_C@_08EDHMEBNP@December@ 0000000180026928     libucrt:nlsdata.obj
 0002:00004934       ??_C@_02DEDBPAFC@AM@       0000000180026934     libucrt:nlsdata.obj
 0002:00004938       ??_C@_02CJNFDJBF@PM@       0000000180026938     libucrt:nlsdata.obj
 0002:00004940       ??_C@_08BPBNCDIB@MM?1dd?1yy@ 0000000180026940     libucrt:nlsdata.obj
 0002:00004950       ??_C@_0BE@CKGJFCPC@dddd?0?5MMMM?5dd?0?5yyyy@ 0000000180026950     libucrt:nlsdata.obj
 0002:00004968       ??_C@_08JCCMCCIL@HH?3mm?3ss@ 0000000180026968     libucrt:nlsdata.obj
 0002:00004978       ??_C@_17MBGCMIPB@?$AAS?$AAu?$AAn@ 0000000180026978     libucrt:nlsdata.obj
 0002:00004980       ??_C@_17KBOMKBF@?$AAM?$AAo?$AAn@ 0000000180026980     libucrt:nlsdata.obj
 0002:00004988       ??_C@_17BMKGEGOJ@?$AAT?$AAu?$AAe@ 0000000180026988     libucrt:nlsdata.obj
 0002:00004990       ??_C@_17CJEDCEPE@?$AAW?$AAe?$AAd@ 0000000180026990     libucrt:nlsdata.obj
 0002:00004998       ??_C@_17PDPHAADD@?$AAT?$AAh?$AAu@ 0000000180026998     libucrt:nlsdata.obj
 0002:000049a0       ??_C@_17HFOLPPLP@?$AAF?$AAr?$AAi@ 00000001800269a0     libucrt:nlsdata.obj
 0002:000049a8       ??_C@_17GGIBDPIH@?$AAS?$AAa?$AAt@ 00000001800269a8     libucrt:nlsdata.obj
 0002:000049b0       ??_C@_1O@IHNHDHPB@?$AAS?$AAu?$AAn?$AAd?$AAa?$AAy@ 00000001800269b0     libucrt:nlsdata.obj
 0002:000049c0       ??_C@_1O@MMNBFLIA@?$AAM?$AAo?$AAn?$AAd?$AAa?$AAy@ 00000001800269c0     libucrt:nlsdata.obj
 0002:000049d0       ??_C@_1BA@ENFBFFEK@?$AAT?$AAu?$AAe?$AAs?$AAd?$AAa?$AAy@ 00000001800269d0     libucrt:nlsdata.obj
 0002:000049e0       ??_C@_1BE@EBOGMDOH@?$AAW?$AAe?$AAd?$AAn?$AAe?$AAs?$AAd?$AAa?$AAy@ 00000001800269e0     libucrt:nlsdata.obj
 0002:000049f8       ??_C@_1BC@HHMNLIHE@?$AAT?$AAh?$AAu?$AAr?$AAs?$AAd?$AAa?$AAy@ 00000001800269f8     libucrt:nlsdata.obj
 0002:00004a10       ??_C@_1O@PDICJHAG@?$AAF?$AAr?$AAi?$AAd?$AAa?$AAy@ 0000000180026a10     libucrt:nlsdata.obj
 0002:00004a20       ??_C@_1BC@ENMNNPAJ@?$AAS?$AAa?$AAt?$AAu?$AAr?$AAd?$AAa?$AAy@ 0000000180026a20     libucrt:nlsdata.obj
 0002:00004a38       ??_C@_17DKNBKCHM@?$AAJ?$AAa?$AAn@ 0000000180026a38     libucrt:nlsdata.obj
 0002:00004a40       ??_C@_17LMDJEKJN@?$AAF?$AAe?$AAb@ 0000000180026a40     libucrt:nlsdata.obj
 0002:00004a48       ??_C@_17CKNLEDEC@?$AAM?$AAa?$AAr@ 0000000180026a48     libucrt:nlsdata.obj
 0002:00004a50       ??_C@_17LFPOIHDD@?$AAA?$AAp?$AAr@ 0000000180026a50     libucrt:nlsdata.obj
 0002:00004a58       ??_C@_17PNNKMEED@?$AAM?$AAa?$AAy@ 0000000180026a58     libucrt:nlsdata.obj
 0002:00004a60       ??_C@_17KCJGOCPB@?$AAJ?$AAu?$AAn@ 0000000180026a60     libucrt:nlsdata.obj
 0002:00004a68       ??_C@_17IJPCKHK@?$AAJ?$AAu?$AAl@ 0000000180026a68     libucrt:nlsdata.obj
 0002:00004a70       ??_C@_17ICPELBCN@?$AAA?$AAu?$AAg@ 0000000180026a70     libucrt:nlsdata.obj
 0002:00004a78       ??_C@_17HCHCOKMG@?$AAS?$AAe?$AAp@ 0000000180026a78     libucrt:nlsdata.obj
 0002:00004a80       ??_C@_17FNLKOI@?$AAO?$AAc?$AAt@ 0000000180026a80     libucrt:nlsdata.obj
 0002:00004a88       ??_C@_17BBDMLCIG@?$AAN?$AAo?$AAv@ 0000000180026a88     libucrt:nlsdata.obj
 0002:00004a90       ??_C@_17EGKACKIF@?$AAD?$AAe?$AAc@ 0000000180026a90     libucrt:nlsdata.obj
 0002:00004a98       ??_C@_1BA@EFMEIEBA@?$AAJ?$AAa?$AAn?$AAu?$AAa?$AAr?$AAy@ 0000000180026a98     libucrt:nlsdata.obj
 0002:00004aa8       ??_C@_1BC@JGDDFFAM@?$AAF?$AAe?$AAb?$AAr?$AAu?$AAa?$AAr?$AAy@ 0000000180026aa8     libucrt:nlsdata.obj
 0002:00004ac0       ??_C@_1M@IKEENEDF@?$AAM?$AAa?$AAr?$AAc?$AAh@ 0000000180026ac0     libucrt:nlsdata.obj
 0002:00004ad0       ??_C@_1M@GJNLMHFD@?$AAA?$AAp?$AAr?$AAi?$AAl@ 0000000180026ad0     libucrt:nlsdata.obj
 0002:00004ae0       ??_C@_19EPFLPGAP@?$AAJ?$AAu?$AAn?$AAe@ 0000000180026ae0     libucrt:nlsdata.obj
 0002:00004af0       ??_C@_19BIFMLPCD@?$AAJ?$AAu?$AAl?$AAy@ 0000000180026af0     libucrt:nlsdata.obj
 0002:00004b00       ??_C@_1O@PAHLKOAC@?$AAA?$AAu?$AAg?$AAu?$AAs?$AAt@ 0000000180026b00     libucrt:nlsdata.obj
 0002:00004b10       ??_C@_1BE@DKAAMBJL@?$AAS?$AAe?$AAp?$AAt?$AAe?$AAm?$AAb?$AAe?$AAr@ 0000000180026b10     libucrt:nlsdata.obj
 0002:00004b28       ??_C@_1BA@EPANDLNG@?$AAO?$AAc?$AAt?$AAo?$AAb?$AAe?$AAr@ 0000000180026b28     libucrt:nlsdata.obj
 0002:00004b38       ??_C@_1BC@BGLIFPF@?$AAN?$AAo?$AAv?$AAe?$AAm?$AAb?$AAe?$AAr@ 0000000180026b38     libucrt:nlsdata.obj
 0002:00004b50       ??_C@_1BC@FEMKIFH@?$AAD?$AAe?$AAc?$AAe?$AAm?$AAb?$AAe?$AAr@ 0000000180026b50     libucrt:nlsdata.obj
 0002:00004b64       ??_C@_15ODEHAHHF@?$AAA?$AAM@ 0000000180026b64     libucrt:nlsdata.obj
 0002:00004b6c       ??_C@_15CLMNNGEL@?$AAP?$AAM@ 0000000180026b6c     libucrt:nlsdata.obj
 0002:00004b78       ??_C@_1BC@IEBCMHCM@?$AAM?$AAM?$AA?1?$AAd?$AAd?$AA?1?$AAy?$AAy@ 0000000180026b78     libucrt:nlsdata.obj
 0002:00004b90       ??_C@_1CI@KNAKOEBC@?$AAd?$AAd?$AAd?$AAd?$AA?0?$AA?5?$AAM?$AAM?$AAM?$AAM?$AA?5?$AAd?$AAd?$AA?0?$AA?5@ 0000000180026b90     libucrt:nlsdata.obj
 0002:00004bb8       ??_C@_1BC@GDGBMEMK@?$AAH?$AAH?$AA?3?$AAm?$AAm?$AA?3?$AAs?$AAs@ 0000000180026bb8     libucrt:nlsdata.obj
 0002:00004bd0       ??_C@_1M@BMHNFIME@?$AAe?$AAn?$AA?9?$AAU?$AAS@ 0000000180026bd0     libucrt:nlsdata.obj
 0002:00004c00       ??_C@_1M@HPNHIDJI@?$AAj?$AAa?$AA?9?$AAJ?$AAP@ 0000000180026c00     libucrt:mbctype.obj
 0002:00004c10       ??_C@_1M@BIBDDEMK@?$AAz?$AAh?$AA?9?$AAC?$AAN@ 0000000180026c10     libucrt:mbctype.obj
 0002:00004c20       ??_C@_1M@JLOOOEGK@?$AAk?$AAo?$AA?9?$AAK?$AAR@ 0000000180026c20     libucrt:mbctype.obj
 0002:00004c30       ??_C@_1M@CLNBBOPM@?$AAz?$AAh?$AA?9?$AAT?$AAW@ 0000000180026c30     libucrt:mbctype.obj
 0002:00004c40       __newctype                 0000000180026c40     libucrt:ctype.obj
 0002:00004f40       __newclmap                 0000000180026f40     libucrt:ctype.obj
 0002:000050c0       __newcumap                 00000001800270c0     libucrt:ctype.obj
 0002:00005240       _wctype                    0000000180027240     libucrt:ctype.obj
 0002:00006290       ??_C@_15EMKDOKLE@?$AAa?$AAr@ 0000000180028290     libucrt:lcidtoname_downlevel.obj
 0002:00006298       ??_C@_15KNPADPLH@?$AAb?$AAg@ 0000000180028298     libucrt:lcidtoname_downlevel.obj
 0002:000062a0       ??_C@_15EDMHLDMO@?$AAc?$AAa@ 00000001800282a0     libucrt:lcidtoname_downlevel.obj
 0002:000062a8       ??_C@_1O@BPEAJADD@?$AAz?$AAh?$AA?9?$AAC?$AAH?$AAS@ 00000001800282a8     libucrt:lcidtoname_downlevel.obj
 0002:000062b8       ??_C@_15LJNHCMNK@?$AAc?$AAs@ 00000001800282b8     libucrt:lcidtoname_downlevel.obj
 0002:000062c0       ??_C@_15FOMCIDHG@?$AAd?$AAa@ 00000001800282c0     libucrt:lcidtoname_downlevel.obj
 0002:000062c8       ??_C@_15NBKABECB@?$AAd?$AAe@ 00000001800282c8     libucrt:lcidtoname_downlevel.obj
 0002:000062d0       ??_C@_15GHPEIIAO@?$AAe?$AAl@ 00000001800282d0     libucrt:lcidtoname_downlevel.obj
 0002:000062d8       ??_C@_15MNPNEAIF@?$AAe?$AAn@ 00000001800282d8     libucrt:lcidtoname_downlevel.obj
 0002:000062e0       ??_C@_15GPIOMPMH@?$AAe?$AAs@ 00000001800282e0     libucrt:lcidtoname_downlevel.obj
 0002:000062e8       ??_C@_15NGLOAKJC@?$AAf?$AAi@ 00000001800282e8     libucrt:lcidtoname_downlevel.obj
 0002:000062f0       ??_C@_15FBKGNKAM@?$AAf?$AAr@ 00000001800282f0     libucrt:lcidtoname_downlevel.obj
 0002:000062f8       ??_C@_15KGGCNEFK@?$AAh?$AAe@ 00000001800282f8     libucrt:lcidtoname_downlevel.obj
 0002:00006300       ??_C@_15PGHLIDMF@?$AAh?$AAu@ 0000000180028300     libucrt:lcidtoname_downlevel.obj
 0002:00006308       ??_C@_15BIEMAPLM@?$AAi?$AAs@ 0000000180028308     libucrt:lcidtoname_downlevel.obj
 0002:00006310       ??_C@_15IFJLDHAF@?$AAi?$AAt@ 0000000180028310     libucrt:lcidtoname_downlevel.obj
 0002:00006318       ??_C@_15GEMIOCAG@?$AAj?$AAa@ 0000000180028318     libucrt:lcidtoname_downlevel.obj
 0002:00006320       ??_C@_15EPELEGJA@?$AAk?$AAo@ 0000000180028320     libucrt:lcidtoname_downlevel.obj
 0002:00006328       ??_C@_15NDDHIMN@?$AAn?$AAl@ 0000000180028328     libucrt:lcidtoname_downlevel.obj
 0002:00006330       ??_C@_15BPIGNHCD@?$AAn?$AAo@ 0000000180028330     libucrt:lcidtoname_downlevel.obj
 0002:00006338       ??_C@_15DEOPBLCG@?$AAp?$AAl@ 0000000180028338     libucrt:lcidtoname_downlevel.obj
 0002:00006340       ??_C@_15KBECGEFG@?$AAp?$AAt@ 0000000180028340     libucrt:lcidtoname_downlevel.obj
 0002:00006348       ??_C@_15GLJCBFMD@?$AAr?$AAo@ 0000000180028348     libucrt:lcidtoname_downlevel.obj
 0002:00006350       ??_C@_15FEDGKCDI@?$AAr?$AAu@ 0000000180028350     libucrt:lcidtoname_downlevel.obj
 0002:00006358       ??_C@_15GLKMLLHM@?$AAh?$AAr@ 0000000180028358     libucrt:lcidtoname_downlevel.obj
 0002:00006360       ??_C@_15CPKMFBDB@?$AAs?$AAk@ 0000000180028360     libucrt:lcidtoname_downlevel.obj
 0002:00006368       ??_C@_15BAAIOGMK@?$AAs?$AAq@ 0000000180028368     libucrt:lcidtoname_downlevel.obj
 0002:00006370       ??_C@_15INNPNOHD@?$AAs?$AAv@ 0000000180028370     libucrt:lcidtoname_downlevel.obj
 0002:00006378       ??_C@_15CABMMOGH@?$AAt?$AAh@ 0000000180028378     libucrt:lcidtoname_downlevel.obj
 0002:00006380       ??_C@_15BPLIHJJM@?$AAt?$AAr@ 0000000180028380     libucrt:lcidtoname_downlevel.obj
 0002:00006388       ??_C@_15NEOEKKDJ@?$AAu?$AAr@ 0000000180028388     libucrt:lcidtoname_downlevel.obj
 0002:00006390       ??_C@_15NFICGAJK@?$AAi?$AAd@ 0000000180028390     libucrt:lcidtoname_downlevel.obj
 0002:00006398       ??_C@_15PJPFLCCM@?$AAu?$AAk@ 0000000180028398     libucrt:lcidtoname_downlevel.obj
 0002:000063a0       ??_C@_15HPJPHDM@?$AAb?$AAe@ 00000001800283a0     libucrt:lcidtoname_downlevel.obj
 0002:000063a8       ??_C@_15LCHLGJII@?$AAs?$AAl@ 00000001800283a8     libucrt:lcidtoname_downlevel.obj
 0002:000063b0       ??_C@_15PCFJPHHO@?$AAe?$AAt@ 00000001800283b0     libucrt:lcidtoname_downlevel.obj
 0002:000063b8       ??_C@_15HPFPGODN@?$AAl?$AAv@ 00000001800283b8     libucrt:lcidtoname_downlevel.obj
 0002:000063c0       ??_C@_15NFFGKGLG@?$AAl?$AAt@ 00000001800283c0     libucrt:lcidtoname_downlevel.obj
 0002:000063c8       ??_C@_15BDAKCCHN@?$AAf?$AAa@ 00000001800283c8     libucrt:lcidtoname_downlevel.obj
 0002:000063d0       ??_C@_15NFGIAIAJ@?$AAv?$AAi@ 00000001800283d0     libucrt:lcidtoname_downlevel.obj
 0002:000063d8       ??_C@_15LMKNDMHN@?$AAh?$AAy@ 00000001800283d8     libucrt:lcidtoname_downlevel.obj
 0002:000063e0       ??_C@_15IJBHMCFL@?$AAa?$AAz@ 00000001800283e0     libucrt:lcidtoname_downlevel.obj
 0002:000063e8       ??_C@_15EKOFJABL@?$AAe?$AAu@ 00000001800283e8     libucrt:lcidtoname_downlevel.obj
 0002:000063f0       ??_C@_15BGHADCNK@?$AAm?$AAk@ 00000001800283f0     libucrt:lcidtoname_downlevel.obj
 0002:000063f8       ??_C@_15JDNICKHM@?$AAa?$AAf@ 00000001800283f8     libucrt:lcidtoname_downlevel.obj
 0002:00006400       ??_C@_15KPJEDBKD@?$AAk?$AAa@ 0000000180028400     libucrt:lcidtoname_downlevel.obj
 0002:00006408       ??_C@_15PDNFFFEO@?$AAf?$AAo@ 0000000180028408     libucrt:lcidtoname_downlevel.obj
 0002:00006410       ??_C@_15OMLEGLOC@?$AAh?$AAi@ 0000000180028410     libucrt:lcidtoname_downlevel.obj
 0002:00006418       ??_C@_15IDNNENKK@?$AAm?$AAs@ 0000000180028418     libucrt:lcidtoname_downlevel.obj
 0002:00006420       ??_C@_15MACJNBMH@?$AAk?$AAk@ 0000000180028420     libucrt:lcidtoname_downlevel.obj
 0002:00006428       ??_C@_15DKDJEOND@?$AAk?$AAy@ 0000000180028428     libucrt:lcidtoname_downlevel.obj
 0002:00006430       ??_C@_15DFGDLJBG@?$AAs?$AAw@ 0000000180028430     libucrt:lcidtoname_downlevel.obj
 0002:00006438       ??_C@_15BBFAICNG@?$AAu?$AAz@ 0000000180028438     libucrt:lcidtoname_downlevel.obj
 0002:00006440       ??_C@_15DKNDCGEA@?$AAt?$AAt@ 0000000180028440     libucrt:lcidtoname_downlevel.obj
 0002:00006448       ??_C@_15MGIFMDPL@?$AAp?$AAa@ 0000000180028448     libucrt:lcidtoname_downlevel.obj
 0002:00006450       ??_C@_15HCNDBBA@?$AAg?$AAu@ 0000000180028450     libucrt:lcidtoname_downlevel.obj
 0002:00006458       ??_C@_15FNBEIBON@?$AAt?$AAa@ 0000000180028458     libucrt:lcidtoname_downlevel.obj
 0002:00006460       ??_C@_15NCHGBGLK@?$AAt?$AAe@ 0000000180028460     libucrt:lcidtoname_downlevel.obj
 0002:00006468       ??_C@_15PHPHCBPF@?$AAk?$AAn@ 0000000180028468     libucrt:lcidtoname_downlevel.obj
 0002:00006470       ??_C@_15DLGBCKMP@?$AAm?$AAr@ 0000000180028470     libucrt:lcidtoname_downlevel.obj
 0002:00006478       ??_C@_15EABBLBFF@?$AAs?$AAa@ 0000000180028478     libucrt:lcidtoname_downlevel.obj
 0002:00006480       ??_C@_15CBKOMCOI@?$AAm?$AAn@ 0000000180028480     libucrt:lcidtoname_downlevel.obj
 0002:00006488       ??_C@_15CKDMCJAF@?$AAg?$AAl@ 0000000180028488     libucrt:lcidtoname_downlevel.obj
 0002:00006490       ??_C@_17CNJFBPG@?$AAk?$AAo?$AAk@ 0000000180028490     libucrt:lcidtoname_downlevel.obj
 0002:00006498       ??_C@_17FFBJICPL@?$AAs?$AAy?$AAr@ 0000000180028498     libucrt:lcidtoname_downlevel.obj
 0002:000064a0       ??_C@_17KPNDCPAF@?$AAd?$AAi?$AAv@ 00000001800284a0     libucrt:lcidtoname_downlevel.obj
 0002:000064a8       ??_C@_1M@OKAHONE@?$AAa?$AAr?$AA?9?$AAS?$AAA@ 00000001800284a8     libucrt:lcidtoname_downlevel.obj
 0002:000064b8       ??_C@_1M@FFFIGIGK@?$AAb?$AAg?$AA?9?$AAB?$AAG@ 00000001800284b8     libucrt:lcidtoname_downlevel.obj
 0002:000064c8       ??_C@_1M@BJNKEDC@?$AAc?$AAa?$AA?9?$AAE?$AAS@ 00000001800284c8     libucrt:lcidtoname_downlevel.obj
 0002:000064d8       ??_C@_1M@IJJHFJHA@?$AAc?$AAs?$AA?9?$AAC?$AAZ@ 00000001800284d8     libucrt:lcidtoname_downlevel.obj
 0002:000064e8       ??_C@_1M@CLPEOBGI@?$AAd?$AAa?$AA?9?$AAD?$AAK@ 00000001800284e8     libucrt:lcidtoname_downlevel.obj
 0002:000064f8       ??_C@_1M@MCMADGCB@?$AAd?$AAe?$AA?9?$AAD?$AAE@ 00000001800284f8     libucrt:lcidtoname_downlevel.obj
 0002:00006508       ??_C@_1M@OOCKEMAM@?$AAe?$AAl?$AA?9?$AAG?$AAR@ 0000000180028508     libucrt:lcidtoname_downlevel.obj
 0002:00006518       ??_C@_1M@DDNJFGID@?$AAf?$AAi?$AA?9?$AAF?$AAI@ 0000000180028518     libucrt:lcidtoname_downlevel.obj
 0002:00006528       ??_C@_1M@GLIPPMAC@?$AAf?$AAr?$AA?9?$AAF?$AAR@ 0000000180028528     libucrt:lcidtoname_downlevel.obj
 0002:00006538       ??_C@_1M@GFMCHPE@?$AAh?$AAe?$AA?9?$AAI?$AAL@ 0000000180028538     libucrt:lcidtoname_downlevel.obj
 0002:00006548       ??_C@_1M@MHLPGNKM@?$AAh?$AAu?$AA?9?$AAH?$AAU@ 0000000180028548     libucrt:lcidtoname_downlevel.obj
 0002:00006558       ??_C@_1M@LPDDNNPN@?$AAi?$AAs?$AA?9?$AAI?$AAS@ 0000000180028558     libucrt:lcidtoname_downlevel.obj
 0002:00006568       ??_C@_1M@MADIPODN@?$AAi?$AAt?$AA?9?$AAI?$AAT@ 0000000180028568     libucrt:lcidtoname_downlevel.obj
 0002:00006578       ??_C@_1M@IHBJJGG@?$AAn?$AAl?$AA?9?$AAN?$AAL@ 0000000180028578     libucrt:lcidtoname_downlevel.obj
 0002:00006588       ??_C@_1M@EANAGDL@?$AAn?$AAb?$AA?9?$AAN?$AAO@ 0000000180028588     libucrt:lcidtoname_downlevel.obj
 0002:00006598       ??_C@_1M@NEIEMEGP@?$AAp?$AAl?$AA?9?$AAP?$AAL@ 0000000180028598     libucrt:lcidtoname_downlevel.obj
 0002:000065a8       ??_C@_1M@BOCFIGEP@?$AAp?$AAt?$AA?9?$AAB?$AAR@ 00000001800285a8     libucrt:lcidtoname_downlevel.obj
 0002:000065b8       ??_C@_1M@IMPFOPBG@?$AAr?$AAo?$AA?9?$AAR?$AAO@ 00000001800285b8     libucrt:lcidtoname_downlevel.obj
 0002:000065c8       ??_C@_1M@IDNNEJMM@?$AAr?$AAu?$AA?9?$AAR?$AAU@ 00000001800285c8     libucrt:lcidtoname_downlevel.obj
 0002:000065d8       ??_C@_1M@LILEEOGM@?$AAh?$AAr?$AA?9?$AAH?$AAR@ 00000001800285d8     libucrt:lcidtoname_downlevel.obj
 0002:000065e8       ??_C@_1M@FKIFEHPB@?$AAs?$AAk?$AA?9?$AAS?$AAK@ 00000001800285e8     libucrt:lcidtoname_downlevel.obj
 0002:000065f8       ??_C@_1M@LJMAMNPJ@?$AAs?$AAq?$AA?9?$AAA?$AAL@ 00000001800285f8     libucrt:lcidtoname_downlevel.obj
 0002:00006608       ??_C@_1M@GIAKDKJK@?$AAs?$AAv?$AA?9?$AAS?$AAE@ 0000000180028608     libucrt:lcidtoname_downlevel.obj
 0002:00006618       ??_C@_1M@MKJKIKCL@?$AAt?$AAh?$AA?9?$AAT?$AAH@ 0000000180028618     libucrt:lcidtoname_downlevel.obj
 0002:00006628       ??_C@_1M@MFLCCMPB@?$AAt?$AAr?$AA?9?$AAT?$AAR@ 0000000180028628     libucrt:lcidtoname_downlevel.obj
 0002:00006638       ??_C@_1M@OIJHDKJN@?$AAu?$AAr?$AA?9?$AAP?$AAK@ 0000000180028638     libucrt:lcidtoname_downlevel.obj
 0002:00006648       ??_C@_1M@LHIPCIEK@?$AAi?$AAd?$AA?9?$AAI?$AAD@ 0000000180028648     libucrt:lcidtoname_downlevel.obj
 0002:00006658       ??_C@_1M@MFMOBGI@?$AAu?$AAk?$AA?9?$AAU?$AAA@ 0000000180028658     libucrt:lcidtoname_downlevel.obj
 0002:00006668       ??_C@_1M@OBGLJIPL@?$AAb?$AAe?$AA?9?$AAB?$AAY@ 0000000180028668     libucrt:lcidtoname_downlevel.obj
 0002:00006678       ??_C@_1M@BCFAJEAD@?$AAs?$AAl?$AA?9?$AAS?$AAI@ 0000000180028678     libucrt:lcidtoname_downlevel.obj
 0002:00006688       ??_C@_1M@FKFFEDDN@?$AAe?$AAt?$AA?9?$AAE?$AAE@ 0000000180028688     libucrt:lcidtoname_downlevel.obj
 0002:00006698       ??_C@_1M@KGKKAACI@?$AAl?$AAv?$AA?9?$AAL?$AAV@ 0000000180028698     libucrt:lcidtoname_downlevel.obj
 0002:000066a8       ??_C@_1M@IFGBIJO@?$AAl?$AAt?$AA?9?$AAL?$AAT@ 00000001800286a8     libucrt:lcidtoname_downlevel.obj
 0002:000066b8       ??_C@_1M@FGEAHEDM@?$AAf?$AAa?$AA?9?$AAI?$AAR@ 00000001800286b8     libucrt:lcidtoname_downlevel.obj
 0002:000066c8       ??_C@_1M@KBMAIBFN@?$AAv?$AAi?$AA?9?$AAV?$AAN@ 00000001800286c8     libucrt:lcidtoname_downlevel.obj
 0002:000066d8       ??_C@_1M@GPCBKDJK@?$AAh?$AAy?$AA?9?$AAA?$AAM@ 00000001800286d8     libucrt:lcidtoname_downlevel.obj
 0002:000066e8       ??_C@_1BG@BECMDDJB@?$AAa?$AAz?$AA?9?$AAA?$AAZ?$AA?9?$AAL?$AAa?$AAt?$AAn@ 00000001800286e8     libucrt:lcidtoname_downlevel.obj
 0002:00006700       ??_C@_1M@MAOFCAEA@?$AAe?$AAu?$AA?9?$AAE?$AAS@ 0000000180028700     libucrt:lcidtoname_downlevel.obj
 0002:00006710       ??_C@_1M@IGHABKPI@?$AAm?$AAk?$AA?9?$AAM?$AAK@ 0000000180028710     libucrt:lcidtoname_downlevel.obj
 0002:00006720       ??_C@_1M@IAIGNEJG@?$AAt?$AAn?$AA?9?$AAZ?$AAA@ 0000000180028720     libucrt:lcidtoname_downlevel.obj
 0002:00006730       ??_C@_1M@IIJCOJFA@?$AAx?$AAh?$AA?9?$AAZ?$AAA@ 0000000180028730     libucrt:lcidtoname_downlevel.obj
 0002:00006740       ??_C@_1M@LGPJHNJH@?$AAz?$AAu?$AA?9?$AAZ?$AAA@ 0000000180028740     libucrt:lcidtoname_downlevel.obj
 0002:00006750       ??_C@_1M@HOKAOIO@?$AAa?$AAf?$AA?9?$AAZ?$AAA@ 0000000180028750     libucrt:lcidtoname_downlevel.obj
 0002:00006760       ??_C@_1M@DPCLHLIE@?$AAk?$AAa?$AA?9?$AAG?$AAE@ 0000000180028760     libucrt:lcidtoname_downlevel.obj
 0002:00006770       ??_C@_1M@BLKMHJBI@?$AAf?$AAo?$AA?9?$AAF?$AAO@ 0000000180028770     libucrt:lcidtoname_downlevel.obj
 0002:00006780       ??_C@_1M@LGGJAPPB@?$AAh?$AAi?$AA?9?$AAI?$AAN@ 0000000180028780     libucrt:lcidtoname_downlevel.obj
 0002:00006790       ??_C@_1M@FIKPIHFE@?$AAm?$AAt?$AA?9?$AAM?$AAT@ 0000000180028790     libucrt:lcidtoname_downlevel.obj
 0002:000067a0       ??_C@_1M@HEGGPBFA@?$AAs?$AAe?$AA?9?$AAN?$AAO@ 00000001800287a0     libucrt:lcidtoname_downlevel.obj
 0002:000067b0       ??_C@_1M@EIBJEEPA@?$AAm?$AAs?$AA?9?$AAM?$AAY@ 00000001800287b0     libucrt:lcidtoname_downlevel.obj
 0002:000067c0       ??_C@_1M@FHLBGMPP@?$AAk?$AAk?$AA?9?$AAK?$AAZ@ 00000001800287c0     libucrt:lcidtoname_downlevel.obj
 0002:000067d0       ??_C@_1M@NGJJLCGI@?$AAk?$AAy?$AA?9?$AAK?$AAG@ 00000001800287d0     libucrt:lcidtoname_downlevel.obj
 0002:000067e0       ??_C@_1M@GIENNBFC@?$AAs?$AAw?$AA?9?$AAK?$AAE@ 00000001800287e0     libucrt:lcidtoname_downlevel.obj
 0002:000067f0       ??_C@_1BG@NDGMJIMJ@?$AAu?$AAz?$AA?9?$AAU?$AAZ?$AA?9?$AAL?$AAa?$AAt?$AAn@ 00000001800287f0     libucrt:lcidtoname_downlevel.obj
 0002:00006808       ??_C@_1M@IDCCIHBC@?$AAt?$AAt?$AA?9?$AAR?$AAU@ 0000000180028808     libucrt:lcidtoname_downlevel.obj
 0002:00006818       ??_C@_1M@LOICPMOJ@?$AAb?$AAn?$AA?9?$AAI?$AAN@ 0000000180028818     libucrt:lcidtoname_downlevel.obj
 0002:00006828       ??_C@_1M@KPKKNEAH@?$AAp?$AAa?$AA?9?$AAI?$AAN@ 0000000180028828     libucrt:lcidtoname_downlevel.obj
 0002:00006838       ??_C@_1M@PJGPPBOG@?$AAg?$AAu?$AA?9?$AAI?$AAN@ 0000000180028838     libucrt:lcidtoname_downlevel.obj
 0002:00006848       ??_C@_1M@KMKMOPHI@?$AAt?$AAa?$AA?9?$AAI?$AAN@ 0000000180028848     libucrt:lcidtoname_downlevel.obj
 0002:00006858       ??_C@_1M@KFEHEPAC@?$AAt?$AAe?$AA?9?$AAI?$AAN@ 0000000180028858     libucrt:lcidtoname_downlevel.obj
 0002:00006868       ??_C@_1M@CDCLMGHI@?$AAk?$AAn?$AA?9?$AAI?$AAN@ 0000000180028868     libucrt:lcidtoname_downlevel.obj
 0002:00006878       ??_C@_1M@MIODLDKF@?$AAm?$AAl?$AA?9?$AAI?$AAN@ 0000000180028878     libucrt:lcidtoname_downlevel.obj
 0002:00006888       ??_C@_1M@PBIEACPO@?$AAm?$AAr?$AA?9?$AAI?$AAN@ 0000000180028888     libucrt:lcidtoname_downlevel.obj
 0002:00006898       ??_C@_1M@NIDEAGPH@?$AAs?$AAa?$AA?9?$AAI?$AAN@ 0000000180028898     libucrt:lcidtoname_downlevel.obj
 0002:000068a8       ??_C@_1M@FHIHCBIO@?$AAm?$AAn?$AA?9?$AAM?$AAN@ 00000001800288a8     libucrt:lcidtoname_downlevel.obj
 0002:000068b8       ??_C@_1M@JAIJPENP@?$AAc?$AAy?$AA?9?$AAG?$AAB@ 00000001800288b8     libucrt:lcidtoname_downlevel.obj
 0002:000068c8       ??_C@_1M@PHGFBEPN@?$AAg?$AAl?$AA?9?$AAE?$AAS@ 00000001800288c8     libucrt:lcidtoname_downlevel.obj
 0002:000068d8       ??_C@_1O@KPIPDNCP@?$AAk?$AAo?$AAk?$AA?9?$AAI?$AAN@ 00000001800288d8     libucrt:lcidtoname_downlevel.obj
 0002:000068e8       ??_C@_1O@KNHJLDJA@?$AAs?$AAy?$AAr?$AA?9?$AAS?$AAY@ 00000001800288e8     libucrt:lcidtoname_downlevel.obj
 0002:000068f8       ??_C@_1O@MKEKBLAH@?$AAd?$AAi?$AAv?$AA?9?$AAM?$AAV@ 00000001800288f8     libucrt:lcidtoname_downlevel.obj
 0002:00006908       ??_C@_1O@OHDCKDDF@?$AAq?$AAu?$AAz?$AA?9?$AAB?$AAO@ 0000000180028908     libucrt:lcidtoname_downlevel.obj
 0002:00006918       ??_C@_1M@LEPJNLFD@?$AAn?$AAs?$AA?9?$AAZ?$AAA@ 0000000180028918     libucrt:lcidtoname_downlevel.obj
 0002:00006928       ??_C@_1M@OMLEIIJB@?$AAm?$AAi?$AA?9?$AAN?$AAZ@ 0000000180028928     libucrt:lcidtoname_downlevel.obj
 0002:00006938       ??_C@_1M@PMPEAILG@?$AAa?$AAr?$AA?9?$AAI?$AAQ@ 0000000180028938     libucrt:lcidtoname_downlevel.obj
 0002:00006948       ??_C@_1M@CNKPNOEE@?$AAd?$AAe?$AA?9?$AAC?$AAH@ 0000000180028948     libucrt:lcidtoname_downlevel.obj
 0002:00006958       ??_C@_1M@LKMGMLKO@?$AAe?$AAn?$AA?9?$AAG?$AAB@ 0000000180028958     libucrt:lcidtoname_downlevel.obj
 0002:00006968       ??_C@_1M@PGKJFFGL@?$AAe?$AAs?$AA?9?$AAM?$AAX@ 0000000180028968     libucrt:lcidtoname_downlevel.obj
 0002:00006978       ??_C@_1M@DNNANBDC@?$AAf?$AAr?$AA?9?$AAB?$AAE@ 0000000180028978     libucrt:lcidtoname_downlevel.obj
 0002:00006988       ??_C@_1M@HLGMDFHM@?$AAi?$AAt?$AA?9?$AAC?$AAH@ 0000000180028988     libucrt:lcidtoname_downlevel.obj
 0002:00006998       ??_C@_1M@CLLBGJH@?$AAn?$AAl?$AA?9?$AAB?$AAE@ 0000000180028998     libucrt:lcidtoname_downlevel.obj
 0002:000069a8       ??_C@_1M@BODBOGLF@?$AAn?$AAn?$AA?9?$AAN?$AAO@ 00000001800289a8     libucrt:lcidtoname_downlevel.obj
 0002:000069b8       ??_C@_1M@HFFAHKAD@?$AAp?$AAt?$AA?9?$AAP?$AAT@ 00000001800289b8     libucrt:lcidtoname_downlevel.obj
 0002:000069c8       ??_C@_1BG@LNOAKHIE@?$AAs?$AAr?$AA?9?$AAS?$AAP?$AA?9?$AAL?$AAa?$AAt?$AAn@ 00000001800289c8     libucrt:lcidtoname_downlevel.obj
 0002:000069e0       ??_C@_1M@HBMHBGAK@?$AAs?$AAv?$AA?9?$AAF?$AAI@ 00000001800289e0     libucrt:lcidtoname_downlevel.obj
 0002:000069f0       ??_C@_1BG@DGCJGJBE@?$AAa?$AAz?$AA?9?$AAA?$AAZ?$AA?9?$AAC?$AAy?$AAr?$AAl@ 00000001800289f0     libucrt:lcidtoname_downlevel.obj
 0002:00006a08       ??_C@_1M@KEJDAAHB@?$AAs?$AAe?$AA?9?$AAS?$AAE@ 0000000180028a08     libucrt:lcidtoname_downlevel.obj
 0002:00006a18       ??_C@_1M@HEIBJJAD@?$AAm?$AAs?$AA?9?$AAB?$AAN@ 0000000180028a18     libucrt:lcidtoname_downlevel.obj
 0002:00006a28       ??_C@_1BG@PBGJMCEM@?$AAu?$AAz?$AA?9?$AAU?$AAZ?$AA?9?$AAC?$AAy?$AAr?$AAl@ 0000000180028a28     libucrt:lcidtoname_downlevel.obj
 0002:00006a40       ??_C@_1O@LAOBCMDF@?$AAq?$AAu?$AAz?$AA?9?$AAE?$AAC@ 0000000180028a40     libucrt:lcidtoname_downlevel.obj
 0002:00006a50       ??_C@_1M@POEEMAIO@?$AAa?$AAr?$AA?9?$AAE?$AAG@ 0000000180028a50     libucrt:lcidtoname_downlevel.obj
 0002:00006a60       ??_C@_1M@EFAKDEDL@?$AAz?$AAh?$AA?9?$AAH?$AAK@ 0000000180028a60     libucrt:lcidtoname_downlevel.obj
 0002:00006a70       ??_C@_1M@HKKIJHGI@?$AAd?$AAe?$AA?9?$AAA?$AAT@ 0000000180028a70     libucrt:lcidtoname_downlevel.obj
 0002:00006a80       ??_C@_1M@KBFBEHJF@?$AAe?$AAn?$AA?9?$AAA?$AAU@ 0000000180028a80     libucrt:lcidtoname_downlevel.obj
 0002:00006a90       ??_C@_1M@MNPLFAAH@?$AAe?$AAs?$AA?9?$AAE?$AAS@ 0000000180028a90     libucrt:lcidtoname_downlevel.obj
 0002:00006aa0       ??_C@_1M@HJOOJFMA@?$AAf?$AAr?$AA?9?$AAC?$AAA@ 0000000180028aa0     libucrt:lcidtoname_downlevel.obj
 0002:00006ab0       ??_C@_1BG@JPOFPNAB@?$AAs?$AAr?$AA?9?$AAS?$AAP?$AA?9?$AAC?$AAy?$AAr?$AAl@ 0000000180028ab0     libucrt:lcidtoname_downlevel.obj
 0002:00006ac8       ??_C@_1M@LNFOCMOB@?$AAs?$AAe?$AA?9?$AAF?$AAI@ 0000000180028ac8     libucrt:lcidtoname_downlevel.obj
 0002:00006ad8       ??_C@_1O@MGJBOAMB@?$AAq?$AAu?$AAz?$AA?9?$AAP?$AAE@ 0000000180028ad8     libucrt:lcidtoname_downlevel.obj
 0002:00006ae8       ??_C@_1M@GJINLBOK@?$AAa?$AAr?$AA?9?$AAL?$AAY@ 0000000180028ae8     libucrt:lcidtoname_downlevel.obj
 0002:00006af8       ??_C@_1M@GGMNHJNL@?$AAz?$AAh?$AA?9?$AAS?$AAG@ 0000000180028af8     libucrt:lcidtoname_downlevel.obj
 0002:00006b08       ??_C@_1M@HOIKODND@?$AAd?$AAe?$AA?9?$AAL?$AAU@ 0000000180028b08     libucrt:lcidtoname_downlevel.obj
 0002:00006b18       ??_C@_1M@DDOCCGFG@?$AAe?$AAn?$AA?9?$AAC?$AAA@ 0000000180028b18     libucrt:lcidtoname_downlevel.obj
 0002:00006b28       ??_C@_1M@BNOEMJLF@?$AAe?$AAs?$AA?9?$AAG?$AAT@ 0000000180028b28     libucrt:lcidtoname_downlevel.obj
 0002:00006b38       ??_C@_1M@EOGNKEK@?$AAf?$AAr?$AA?9?$AAC?$AAH@ 0000000180028b38     libucrt:lcidtoname_downlevel.obj
 0002:00006b48       ??_C@_1M@FLIDJFHL@?$AAh?$AAr?$AA?9?$AAB?$AAA@ 0000000180028b48     libucrt:lcidtoname_downlevel.obj
 0002:00006b58       ??_C@_1O@FMCELNAJ@?$AAs?$AAm?$AAj?$AA?9?$AAN?$AAO@ 0000000180028b58     libucrt:lcidtoname_downlevel.obj
 0002:00006b68       ??_C@_1M@JHGLJMGJ@?$AAa?$AAr?$AA?9?$AAD?$AAZ@ 0000000180028b68     libucrt:lcidtoname_downlevel.obj
 0002:00006b78       ??_C@_1M@JKKFDCNP@?$AAz?$AAh?$AA?9?$AAM?$AAO@ 0000000180028b78     libucrt:lcidtoname_downlevel.obj
 0002:00006b88       ??_C@_1M@GEEFALPE@?$AAd?$AAe?$AA?9?$AAL?$AAI@ 0000000180028b88     libucrt:lcidtoname_downlevel.obj
 0002:00006b98       ??_C@_1M@IGEOFBG@?$AAe?$AAn?$AA?9?$AAN?$AAZ@ 0000000180028b98     libucrt:lcidtoname_downlevel.obj
 0002:00006ba8       ??_C@_1M@KDBONEHP@?$AAe?$AAs?$AA?9?$AAC?$AAR@ 0000000180028ba8     libucrt:lcidtoname_downlevel.obj
 0002:00006bb8       ??_C@_1M@FHMDOHNN@?$AAf?$AAr?$AA?9?$AAL?$AAU@ 0000000180028bb8     libucrt:lcidtoname_downlevel.obj
 0002:00006bc8       ??_C@_1BG@NFKKMAFG@?$AAb?$AAs?$AA?9?$AAB?$AAA?$AA?9?$AAL?$AAa?$AAt?$AAn@ 0000000180028bc8     libucrt:lcidtoname_downlevel.obj
 0002:00006be0       ??_C@_1O@IMNBEMCI@?$AAs?$AAm?$AAj?$AA?9?$AAS?$AAE@ 0000000180028be0     libucrt:lcidtoname_downlevel.obj
 0002:00006bf0       ??_C@_1M@DHHMBNDP@?$AAa?$AAr?$AA?9?$AAM?$AAA@ 0000000180028bf0     libucrt:lcidtoname_downlevel.obj
 0002:00006c00       ??_C@_1M@BNBLJCGH@?$AAe?$AAn?$AA?9?$AAI?$AAE@ 0000000180028c00     libucrt:lcidtoname_downlevel.obj
 0002:00006c10       ??_C@_1M@GEPAFMDL@?$AAe?$AAs?$AA?9?$AAP?$AAA@ 0000000180028c10     libucrt:lcidtoname_downlevel.obj
 0002:00006c20       ??_C@_1M@OJONDMDL@?$AAf?$AAr?$AA?9?$AAM?$AAC@ 0000000180028c20     libucrt:lcidtoname_downlevel.obj
 0002:00006c30       ??_C@_1BG@OBCNFJB@?$AAs?$AAr?$AA?9?$AAB?$AAA?$AA?9?$AAL?$AAa?$AAt?$AAn@ 0000000180028c30     libucrt:lcidtoname_downlevel.obj
 0002:00006c48       ??_C@_1O@KEMEEGPO@?$AAs?$AAm?$AAa?$AA?9?$AAN?$AAO@ 0000000180028c48     libucrt:lcidtoname_downlevel.obj
 0002:00006c58       ??_C@_1M@ELMGFODK@?$AAa?$AAr?$AA?9?$AAT?$AAN@ 0000000180028c58     libucrt:lcidtoname_downlevel.obj
 0002:00006c68       ??_C@_1M@BHDLHFAF@?$AAe?$AAn?$AA?9?$AAZ?$AAA@ 0000000180028c68     libucrt:lcidtoname_downlevel.obj
 0002:00006c78       ??_C@_1M@BMGIGLIF@?$AAe?$AAs?$AA?9?$AAD?$AAO@ 0000000180028c78     libucrt:lcidtoname_downlevel.obj
 0002:00006c88       ??_C@_1BG@CMBHIPBE@?$AAs?$AAr?$AA?9?$AAB?$AAA?$AA?9?$AAC?$AAy?$AAr?$AAl@ 0000000180028c88     libucrt:lcidtoname_downlevel.obj
 0002:00006ca0       ??_C@_1O@HEDBLHNP@?$AAs?$AAm?$AAa?$AA?9?$AAS?$AAE@ 0000000180028ca0     libucrt:lcidtoname_downlevel.obj
 0002:00006cb0       ??_C@_1M@DAGCADIM@?$AAa?$AAr?$AA?9?$AAO?$AAM@ 0000000180028cb0     libucrt:lcidtoname_downlevel.obj
 0002:00006cc0       ??_C@_1M@FODLMICG@?$AAe?$AAn?$AA?9?$AAJ?$AAM@ 0000000180028cc0     libucrt:lcidtoname_downlevel.obj
 0002:00006cd0       ??_C@_1M@DNMLCIHB@?$AAe?$AAs?$AA?9?$AAV?$AAE@ 0000000180028cd0     libucrt:lcidtoname_downlevel.obj
 0002:00006ce0       ??_C@_1O@EOKHMKJK@?$AAs?$AAm?$AAs?$AA?9?$AAF?$AAI@ 0000000180028ce0     libucrt:lcidtoname_downlevel.obj
 0002:00006cf0       ??_C@_1M@CAFJMKOF@?$AAa?$AAr?$AA?9?$AAY?$AAE@ 0000000180028cf0     libucrt:lcidtoname_downlevel.obj
 0002:00006d00       ??_C@_1M@CBFHIJLI@?$AAe?$AAn?$AA?9?$AAC?$AAB@ 0000000180028d00     libucrt:lcidtoname_downlevel.obj
 0002:00006d10       ??_C@_1M@BGNFLDN@?$AAe?$AAs?$AA?9?$AAC?$AAO@ 0000000180028d10     libucrt:lcidtoname_downlevel.obj
 0002:00006d20       ??_C@_1O@JMPHMAMC@?$AAs?$AAm?$AAn?$AA?9?$AAF?$AAI@ 0000000180028d20     libucrt:lcidtoname_downlevel.obj
 0002:00006d30       ??_C@_1M@JLANABKE@?$AAa?$AAr?$AA?9?$AAS?$AAY@ 0000000180028d30     libucrt:lcidtoname_downlevel.obj
 0002:00006d40       ??_C@_1M@HPKGCFGN@?$AAe?$AAn?$AA?9?$AAB?$AAZ@ 0000000180028d40     libucrt:lcidtoname_downlevel.obj
 0002:00006d50       ??_C@_1M@OLJCMLGM@?$AAe?$AAs?$AA?9?$AAP?$AAE@ 0000000180028d50     libucrt:lcidtoname_downlevel.obj
 0002:00006d60       ??_C@_1M@MKKGFKLE@?$AAa?$AAr?$AA?9?$AAJ?$AAO@ 0000000180028d60     libucrt:lcidtoname_downlevel.obj
 0002:00006d70       ??_C@_1M@EKPGLDNI@?$AAe?$AAn?$AA?9?$AAT?$AAT@ 0000000180028d70     libucrt:lcidtoname_downlevel.obj
 0002:00006d80       ??_C@_1M@OONGHFHE@?$AAe?$AAs?$AA?9?$AAA?$AAR@ 0000000180028d80     libucrt:lcidtoname_downlevel.obj
 0002:00006d90       ??_C@_1M@OOJFGBHE@?$AAa?$AAr?$AA?9?$AAL?$AAB@ 0000000180028d90     libucrt:lcidtoname_downlevel.obj
 0002:00006da0       ??_C@_1M@GCEJHNEG@?$AAe?$AAn?$AA?9?$AAZ?$AAW@ 0000000180028da0     libucrt:lcidtoname_downlevel.obj
 0002:00006db0       ??_C@_1M@JNOCAHJI@?$AAe?$AAs?$AA?9?$AAE?$AAC@ 0000000180028db0     libucrt:lcidtoname_downlevel.obj
 0002:00006dc0       ??_C@_1M@JEFHPGGB@?$AAa?$AAr?$AA?9?$AAK?$AAW@ 0000000180028dc0     libucrt:lcidtoname_downlevel.obj
 0002:00006dd0       ??_C@_1M@MLKIBJOJ@?$AAe?$AAn?$AA?9?$AAP?$AAH@ 0000000180028dd0     libucrt:lcidtoname_downlevel.obj
 0002:00006de0       ??_C@_1M@BDNIPEND@?$AAe?$AAs?$AA?9?$AAC?$AAL@ 0000000180028de0     libucrt:lcidtoname_downlevel.obj
 0002:00006df0       ??_C@_1M@MPNMEKBD@?$AAa?$AAr?$AA?9?$AAA?$AAE@ 0000000180028df0     libucrt:lcidtoname_downlevel.obj
 0002:00006e00       ??_C@_1M@KBJALCPI@?$AAe?$AAs?$AA?9?$AAU?$AAY@ 0000000180028e00     libucrt:lcidtoname_downlevel.obj
 0002:00006e10       ??_C@_1M@LLCCOAGA@?$AAa?$AAr?$AA?9?$AAB?$AAH@ 0000000180028e10     libucrt:lcidtoname_downlevel.obj
 0002:00006e20       ??_C@_1M@PBFNCDEL@?$AAe?$AAs?$AA?9?$AAP?$AAY@ 0000000180028e20     libucrt:lcidtoname_downlevel.obj
 0002:00006e30       ??_C@_1M@EDGINPNP@?$AAa?$AAr?$AA?9?$AAQ?$AAA@ 0000000180028e30     libucrt:lcidtoname_downlevel.obj
 0002:00006e40       ??_C@_1M@MKDBIIJI@?$AAe?$AAs?$AA?9?$AAB?$AAO@ 0000000180028e40     libucrt:lcidtoname_downlevel.obj
 0002:00006e50       ??_C@_1M@CPKKEBLD@?$AAe?$AAs?$AA?9?$AAS?$AAV@ 0000000180028e50     libucrt:lcidtoname_downlevel.obj
 0002:00006e60       ??_C@_1M@NDBGMMJL@?$AAe?$AAs?$AA?9?$AAH?$AAN@ 0000000180028e60     libucrt:lcidtoname_downlevel.obj
 0002:00006e70       ??_C@_1M@JIJIBHDP@?$AAe?$AAs?$AA?9?$AAN?$AAI@ 0000000180028e70     libucrt:lcidtoname_downlevel.obj
 0002:00006e80       ??_C@_1M@CGFMKEEK@?$AAe?$AAs?$AA?9?$AAP?$AAR@ 0000000180028e80     libucrt:lcidtoname_downlevel.obj
 0002:00006e90       ??_C@_1O@ICJHKIIK@?$AAz?$AAh?$AA?9?$AAC?$AAH?$AAT@ 0000000180028e90     libucrt:lcidtoname_downlevel.obj
 0002:00006ea0       ??_C@_15CLNEJCE@?$AAs?$AAr@ 0000000180028ea0     libucrt:lcidtoname_downlevel.obj
 0002:00007cf0       ??_C@_1M@KAHEKEIG@?$AAa?$AAf?$AA?9?$AAz?$AAa@ 0000000180029cf0     libucrt:lcidtoname_downlevel.obj
 0002:00007d00       ??_C@_1M@GIECOABL@?$AAa?$AAr?$AA?9?$AAa?$AAe@ 0000000180029d00     libucrt:lcidtoname_downlevel.obj
 0002:00007d10       ??_C@_1M@BMLMEKGI@?$AAa?$AAr?$AA?9?$AAb?$AAh@ 0000000180029d10     libucrt:lcidtoname_downlevel.obj
 0002:00007d20       ??_C@_1M@DAPFDGGB@?$AAa?$AAr?$AA?9?$AAd?$AAz@ 0000000180029d20     libucrt:lcidtoname_downlevel.obj
 0002:00007d30       ??_C@_1M@FJNKGKIG@?$AAa?$AAr?$AA?9?$AAe?$AAg@ 0000000180029d30     libucrt:lcidtoname_downlevel.obj
 0002:00007d40       ??_C@_1M@FLGKKCLO@?$AAa?$AAr?$AA?9?$AAi?$AAq@ 0000000180029d40     libucrt:lcidtoname_downlevel.obj
 0002:00007d50       ??_C@_1M@GNDIPALM@?$AAa?$AAr?$AA?9?$AAj?$AAo@ 0000000180029d50     libucrt:lcidtoname_downlevel.obj
 0002:00007d60       ??_C@_1M@DDMJFMGJ@?$AAa?$AAr?$AA?9?$AAk?$AAw@ 0000000180029d60     libucrt:lcidtoname_downlevel.obj
 0002:00007d70       ??_C@_1M@EJALMLHM@?$AAa?$AAr?$AA?9?$AAl?$AAb@ 0000000180029d70     libucrt:lcidtoname_downlevel.obj
 0002:00007d80       ??_C@_1M@MOBDBLOC@?$AAa?$AAr?$AA?9?$AAl?$AAy@ 0000000180029d80     libucrt:lcidtoname_downlevel.obj
 0002:00007d90       ??_C@_1M@JAOCLHDH@?$AAa?$AAr?$AA?9?$AAm?$AAa@ 0000000180029d90     libucrt:lcidtoname_downlevel.obj
 0002:00007da0       ??_C@_1M@JHPMKJIE@?$AAa?$AAr?$AA?9?$AAo?$AAm@ 0000000180029da0     libucrt:lcidtoname_downlevel.obj
 0002:00007db0       ??_C@_1M@OEPGHFNH@?$AAa?$AAr?$AA?9?$AAq?$AAa@ 0000000180029db0     libucrt:lcidtoname_downlevel.obj
 0002:00007dc0       ??_C@_1M@KJDONENM@?$AAa?$AAr?$AA?9?$AAs?$AAa@ 0000000180029dc0     libucrt:lcidtoname_downlevel.obj
 0002:00007dd0       ??_C@_1M@DMJDKLKM@?$AAa?$AAr?$AA?9?$AAs?$AAy@ 0000000180029dd0     libucrt:lcidtoname_downlevel.obj
 0002:00007de0       ??_C@_1M@OMFIPEDC@?$AAa?$AAr?$AA?9?$AAt?$AAn@ 0000000180029de0     libucrt:lcidtoname_downlevel.obj
 0002:00007df0       ??_C@_1M@IHMHGAON@?$AAa?$AAr?$AA?9?$AAy?$AAe@ 0000000180029df0     libucrt:lcidtoname_downlevel.obj
 0002:00007e00       ??_C@_1BG@KDCPGJGB@?$AAa?$AAz?$AA?9?$AAa?$AAz?$AA?9?$AAc?$AAy?$AAr?$AAl@ 0000000180029e00     libucrt:lcidtoname_downlevel.obj
 0002:00007e18       ??_C@_1BG@IBCKDDOE@?$AAa?$AAz?$AA?9?$AAa?$AAz?$AA?9?$AAl?$AAa?$AAt?$AAn@ 0000000180029e18     libucrt:lcidtoname_downlevel.obj
 0002:00007e30       ??_C@_1M@EGPFDCPD@?$AAb?$AAe?$AA?9?$AAb?$AAy@ 0000000180029e30     libucrt:lcidtoname_downlevel.obj
 0002:00007e40       ??_C@_1M@PCMGMCGC@?$AAb?$AAg?$AA?9?$AAb?$AAg@ 0000000180029e40     libucrt:lcidtoname_downlevel.obj
 0002:00007e50       ??_C@_1M@BJBMFGOB@?$AAb?$AAn?$AA?9?$AAi?$AAn@ 0000000180029e50     libucrt:lcidtoname_downlevel.obj
 0002:00007e60       ??_C@_1BG@EAKMMACD@?$AAb?$AAs?$AA?9?$AAb?$AAa?$AA?9?$AAl?$AAa?$AAt?$AAn@ 0000000180029e60     libucrt:lcidtoname_downlevel.obj
 0002:00007e78       ??_C@_1M@KGADAODK@?$AAc?$AAa?$AA?9?$AAe?$AAs@ 0000000180029e78     libucrt:lcidtoname_downlevel.obj
 0002:00007e88       ??_C@_1M@COAJPDHI@?$AAc?$AAs?$AA?9?$AAc?$AAz@ 0000000180029e88     libucrt:lcidtoname_downlevel.obj
 0002:00007e98       ??_C@_1M@DHBHFONH@?$AAc?$AAy?$AA?9?$AAg?$AAb@ 0000000180029e98     libucrt:lcidtoname_downlevel.obj
 0002:00007ea8       ??_C@_1M@IMGKELGA@?$AAd?$AAa?$AA?9?$AAd?$AAk@ 0000000180029ea8     libucrt:lcidtoname_downlevel.obj
 0002:00007eb8       ??_C@_1M@NNDGDNGA@?$AAd?$AAe?$AA?9?$AAa?$AAt@ 0000000180029eb8     libucrt:lcidtoname_downlevel.obj
 0002:00007ec8       ??_C@_1M@IKDBHEEM@?$AAd?$AAe?$AA?9?$AAc?$AAh@ 0000000180029ec8     libucrt:lcidtoname_downlevel.obj
 0002:00007ed8       ??_C@_1M@GFFOJMCJ@?$AAd?$AAe?$AA?9?$AAd?$AAe@ 0000000180029ed8     libucrt:lcidtoname_downlevel.obj
 0002:00007ee8       ??_C@_1M@MDNLKBPM@?$AAd?$AAe?$AA?9?$AAl?$AAi@ 0000000180029ee8     libucrt:lcidtoname_downlevel.obj
 0002:00007ef8       ??_C@_1M@NJBEEJNL@?$AAd?$AAe?$AA?9?$AAl?$AAu@ 0000000180029ef8     libucrt:lcidtoname_downlevel.obj
 0002:00007f08       ??_C@_1O@GNNELBAP@?$AAd?$AAi?$AAv?$AA?9?$AAm?$AAv@ 0000000180029f08     libucrt:lcidtoname_downlevel.obj
 0002:00007f18       ??_C@_1M@EJLEOGAE@?$AAe?$AAl?$AA?9?$AAg?$AAr@ 0000000180029f18     libucrt:lcidtoname_downlevel.obj
 0002:00007f28       ??_C@_1M@GMPONJN@?$AAe?$AAn?$AA?9?$AAa?$AAu@ 0000000180029f28     libucrt:lcidtoname_downlevel.obj
 0002:00007f38       ??_C@_1M@NIDIIPGF@?$AAe?$AAn?$AA?9?$AAb?$AAz@ 0000000180029f38     libucrt:lcidtoname_downlevel.obj
 0002:00007f48       ??_C@_1M@JEHMIMFO@?$AAe?$AAn?$AA?9?$AAc?$AAa@ 0000000180029f48     libucrt:lcidtoname_downlevel.obj
 0002:00007f58       ??_C@_1M@IGMJCDLA@?$AAe?$AAn?$AA?9?$AAc?$AAb@ 0000000180029f58     libucrt:lcidtoname_downlevel.obj
 0002:00007f68       ??_C@_1M@BNFIGBKG@?$AAe?$AAn?$AA?9?$AAg?$AAb@ 0000000180029f68     libucrt:lcidtoname_downlevel.obj
 0002:00007f78       ??_C@_1M@LKIFDIGP@?$AAe?$AAn?$AA?9?$AAi?$AAe@ 0000000180029f78     libucrt:lcidtoname_downlevel.obj
 0002:00007f88       ??_C@_1M@PJKFGCCO@?$AAe?$AAn?$AA?9?$AAj?$AAm@ 0000000180029f88     libucrt:lcidtoname_downlevel.obj
 0002:00007f98       ??_C@_1M@KPPKEPBO@?$AAe?$AAn?$AA?9?$AAn?$AAz@ 0000000180029f98     libucrt:lcidtoname_downlevel.obj
 0002:00007fa8       ??_C@_1M@GMDGLDOB@?$AAe?$AAn?$AA?9?$AAp?$AAh@ 0000000180029fa8     libucrt:lcidtoname_downlevel.obj
 0002:00007fb8       ??_C@_1M@ONGIBJNA@?$AAe?$AAn?$AA?9?$AAt?$AAt@ 0000000180029fb8     libucrt:lcidtoname_downlevel.obj
 0002:00007fc8       ??_C@_1M@LLODPCMM@?$AAe?$AAn?$AA?9?$AAu?$AAs@ 0000000180029fc8     libucrt:lcidtoname_downlevel.obj
 0002:00007fd8       ??_C@_1M@LAKFNPAN@?$AAe?$AAn?$AA?9?$AAz?$AAa@ 0000000180029fd8     libucrt:lcidtoname_downlevel.obj
 0002:00007fe8       ??_C@_1M@MFNHNHEO@?$AAe?$AAn?$AA?9?$AAz?$AAw@ 0000000180029fe8     libucrt:lcidtoname_downlevel.obj
 0002:00007ff8       ??_C@_1M@EJEINPHM@?$AAe?$AAs?$AA?9?$AAa?$AAr@ 0000000180029ff8     libucrt:lcidtoname_downlevel.obj
 0002:00008008       ??_C@_1M@GNKPCCJA@?$AAe?$AAs?$AA?9?$AAb?$AAo@ 000000018002a008     libucrt:lcidtoname_downlevel.obj
 0002:00008018       ??_C@_1M@LEEGFONL@?$AAe?$AAs?$AA?9?$AAc?$AAl@ 000000018002a018     libucrt:lcidtoname_downlevel.obj
 0002:00008028       ??_C@_1M@KGPDPBDF@?$AAe?$AAs?$AA?9?$AAc?$AAo@ 000000018002a028     libucrt:lcidtoname_downlevel.obj
 0002:00008038       ??_C@_1M@EIAHOHH@?$AAe?$AAs?$AA?9?$AAc?$AAr@ 000000018002a038     libucrt:lcidtoname_downlevel.obj
 0002:00008048       ??_C@_1M@LLPGMBIN@?$AAe?$AAs?$AA?9?$AAd?$AAo@ 000000018002a048     libucrt:lcidtoname_downlevel.obj
 0002:00008058       ??_C@_1M@DKHMKNJA@?$AAe?$AAs?$AA?9?$AAe?$AAc@ 000000018002a058     libucrt:lcidtoname_downlevel.obj
 0002:00008068       ??_C@_1M@GKGFPKAP@?$AAe?$AAs?$AA?9?$AAe?$AAs@ 000000018002a068     libucrt:lcidtoname_downlevel.obj
 0002:00008078       ??_C@_1M@LKHKGDLN@?$AAe?$AAs?$AA?9?$AAg?$AAt@ 000000018002a078     libucrt:lcidtoname_downlevel.obj
 0002:00008088       ??_C@_1M@HEIIGGJD@?$AAe?$AAs?$AA?9?$AAh?$AAn@ 000000018002a088     libucrt:lcidtoname_downlevel.obj
 0002:00008098       ??_C@_1M@FBDHPPGD@?$AAe?$AAs?$AA?9?$AAm?$AAx@ 000000018002a098     libucrt:lcidtoname_downlevel.obj
 0002:000080a8       ??_C@_1M@DPAGLNDH@?$AAe?$AAs?$AA?9?$AAn?$AAi@ 000000018002a0a8     libucrt:lcidtoname_downlevel.obj
 0002:000080b8       ??_C@_1M@MDGOPGDD@?$AAe?$AAs?$AA?9?$AAp?$AAa@ 000000018002a0b8     libucrt:lcidtoname_downlevel.obj
 0002:000080c8       ??_C@_1M@EMAMGBGE@?$AAe?$AAs?$AA?9?$AAp?$AAe@ 000000018002a0c8     libucrt:lcidtoname_downlevel.obj
 0002:000080d8       ??_C@_1M@IBMCAOEC@?$AAe?$AAs?$AA?9?$AAp?$AAr@ 000000018002a0d8     libucrt:lcidtoname_downlevel.obj
 0002:000080e8       ??_C@_1M@FGMDIJED@?$AAe?$AAs?$AA?9?$AAp?$AAy@ 000000018002a0e8     libucrt:lcidtoname_downlevel.obj
 0002:000080f8       ??_C@_1M@IIDEOLLL@?$AAe?$AAs?$AA?9?$AAs?$AAv@ 000000018002a0f8     libucrt:lcidtoname_downlevel.obj
 0002:00008108       ??_C@_1M@GAOBIPA@?$AAe?$AAs?$AA?9?$AAu?$AAy@ 000000018002a108     libucrt:lcidtoname_downlevel.obj
 0002:00008118       ??_C@_1M@JKFFICHJ@?$AAe?$AAs?$AA?9?$AAv?$AAe@ 000000018002a118     libucrt:lcidtoname_downlevel.obj
 0002:00008128       ??_C@_1M@PNMLOJDF@?$AAe?$AAt?$AA?9?$AAe?$AAe@ 000000018002a128     libucrt:lcidtoname_downlevel.obj
 0002:00008138       ??_C@_1M@GHHLIKEI@?$AAe?$AAu?$AA?9?$AAe?$AAs@ 000000018002a138     libucrt:lcidtoname_downlevel.obj
 0002:00008148       ??_C@_1M@PBNONODE@?$AAf?$AAa?$AA?9?$AAi?$AAr@ 000000018002a148     libucrt:lcidtoname_downlevel.obj
 0002:00008158       ??_C@_1M@JEEHPMIL@?$AAf?$AAi?$AA?9?$AAf?$AAi@ 000000018002a158     libucrt:lcidtoname_downlevel.obj
 0002:00008168       ??_C@_1M@LMDCNDBA@?$AAf?$AAo?$AA?9?$AAf?$AAo@ 000000018002a168     libucrt:lcidtoname_downlevel.obj
 0002:00008178       ??_C@_1M@JKEOHLDK@?$AAf?$AAr?$AA?9?$AAb?$AAe@ 000000018002a178     libucrt:lcidtoname_downlevel.obj
 0002:00008188       ??_C@_1M@NOHADPMI@?$AAf?$AAr?$AA?9?$AAc?$AAa@ 000000018002a188     libucrt:lcidtoname_downlevel.obj
 0002:00008198       ??_C@_1M@KDHIHAEC@?$AAf?$AAr?$AA?9?$AAc?$AAh@ 000000018002a198     libucrt:lcidtoname_downlevel.obj
 0002:000081a8       ??_C@_1M@MMBBFGAK@?$AAf?$AAr?$AA?9?$AAf?$AAr@ 000000018002a1a8     libucrt:lcidtoname_downlevel.obj
 0002:000081b8       ??_C@_1M@PAFNENNF@?$AAf?$AAr?$AA?9?$AAl?$AAu@ 000000018002a1b8     libucrt:lcidtoname_downlevel.obj
 0002:000081c8       ??_C@_1M@EOHDJGDD@?$AAf?$AAr?$AA?9?$AAm?$AAc@ 000000018002a1c8     libucrt:lcidtoname_downlevel.obj
 0002:000081d8       ??_C@_1M@FAPLLOPF@?$AAg?$AAl?$AA?9?$AAe?$AAs@ 000000018002a1d8     libucrt:lcidtoname_downlevel.obj
 0002:000081e8       ??_C@_1M@FOPBFLOO@?$AAg?$AAu?$AA?9?$AAi?$AAn@ 000000018002a1e8     libucrt:lcidtoname_downlevel.obj
 0002:000081f8       ??_C@_1M@KBMCINPM@?$AAh?$AAe?$AA?9?$AAi?$AAl@ 000000018002a1f8     libucrt:lcidtoname_downlevel.obj
 0002:00008208       ??_C@_1M@BBPHKFPJ@?$AAh?$AAi?$AA?9?$AAi?$AAn@ 000000018002a208     libucrt:lcidtoname_downlevel.obj
 0002:00008218       ??_C@_1M@PMBNDPHD@?$AAh?$AAr?$AA?9?$AAb?$AAa@ 000000018002a218     libucrt:lcidtoname_downlevel.obj
 0002:00008228       ??_C@_1M@BPCKOEGE@?$AAh?$AAr?$AA?9?$AAh?$AAr@ 000000018002a228     libucrt:lcidtoname_downlevel.obj
 0002:00008238       ??_C@_1M@GACBMHKE@?$AAh?$AAu?$AA?9?$AAh?$AAu@ 000000018002a238     libucrt:lcidtoname_downlevel.obj
 0002:00008248       ??_C@_1M@MILPAJJC@?$AAh?$AAy?$AA?9?$AAa?$AAm@ 000000018002a248     libucrt:lcidtoname_downlevel.obj
 0002:00008258       ??_C@_1M@BABBICEC@?$AAi?$AAd?$AA?9?$AAi?$AAd@ 000000018002a258     libucrt:lcidtoname_downlevel.obj
 0002:00008268       ??_C@_1M@BIKNHHPF@?$AAi?$AAs?$AA?9?$AAi?$AAs@ 000000018002a268     libucrt:lcidtoname_downlevel.obj
 0002:00008278       ??_C@_1M@NMPCJPHE@?$AAi?$AAt?$AA?9?$AAc?$AAh@ 000000018002a278     libucrt:lcidtoname_downlevel.obj
 0002:00008288       ??_C@_1M@GHKGFEDF@?$AAi?$AAt?$AA?9?$AAi?$AAt@ 000000018002a288     libucrt:lcidtoname_downlevel.obj
 0002:00008298       ??_C@_1M@NIEJCJJA@?$AAj?$AAa?$AA?9?$AAj?$AAp@ 000000018002a298     libucrt:lcidtoname_downlevel.obj
 0002:000082a8       ??_C@_1M@JILFNBIM@?$AAk?$AAa?$AA?9?$AAg?$AAe@ 000000018002a2a8     libucrt:lcidtoname_downlevel.obj
 0002:000082b8       ??_C@_1M@PACPMGPH@?$AAk?$AAk?$AA?9?$AAk?$AAz@ 000000018002a2b8     libucrt:lcidtoname_downlevel.obj
 0002:000082c8       ??_C@_1M@IELFGMHA@?$AAk?$AAn?$AA?9?$AAi?$AAn@ 000000018002a2c8     libucrt:lcidtoname_downlevel.obj
 0002:000082d8       ??_C@_1O@IBBJHCH@?$AAk?$AAo?$AAk?$AA?9?$AAi?$AAn@ 000000018002a2d8     libucrt:lcidtoname_downlevel.obj
 0002:000082e8       ??_C@_1M@DMHAEOGC@?$AAk?$AAo?$AA?9?$AAk?$AAr@ 000000018002a2e8     libucrt:lcidtoname_downlevel.obj
 0002:000082f8       ??_C@_1M@HBAHBIGA@?$AAk?$AAy?$AA?9?$AAk?$AAg@ 000000018002a2f8     libucrt:lcidtoname_downlevel.obj
 0002:00008308       ??_C@_1M@KPMILCJG@?$AAl?$AAt?$AA?9?$AAl?$AAt@ 000000018002a308     libucrt:lcidtoname_downlevel.obj
 0002:00008318       ??_C@_1M@BDEKKCA@?$AAl?$AAv?$AA?9?$AAl?$AAv@ 000000018002a318     libucrt:lcidtoname_downlevel.obj
 0002:00008328       ??_C@_1M@ELCKCCJJ@?$AAm?$AAi?$AA?9?$AAn?$AAz@ 000000018002a328     libucrt:lcidtoname_downlevel.obj
 0002:00008338       ??_C@_1M@CBOOLAPA@?$AAm?$AAk?$AA?9?$AAm?$AAk@ 000000018002a338     libucrt:lcidtoname_downlevel.obj
 0002:00008348       ??_C@_1M@GPHNBJKN@?$AAm?$AAl?$AA?9?$AAi?$AAn@ 000000018002a348     libucrt:lcidtoname_downlevel.obj
 0002:00008358       ??_C@_1M@PABJILIG@?$AAm?$AAn?$AA?9?$AAm?$AAn@ 000000018002a358     libucrt:lcidtoname_downlevel.obj
 0002:00008368       ??_C@_1M@FGBKKIPG@?$AAm?$AAr?$AA?9?$AAi?$AAn@ 000000018002a368     libucrt:lcidtoname_downlevel.obj
 0002:00008378       ??_C@_1M@NDBPDDAL@?$AAm?$AAs?$AA?9?$AAb?$AAn@ 000000018002a378     libucrt:lcidtoname_downlevel.obj
 0002:00008388       ??_C@_1M@OPIHOOPI@?$AAm?$AAs?$AA?9?$AAm?$AAy@ 000000018002a388     libucrt:lcidtoname_downlevel.obj
 0002:00008398       ??_C@_1M@PPDBCNFM@?$AAm?$AAt?$AA?9?$AAm?$AAt@ 000000018002a398     libucrt:lcidtoname_downlevel.obj
 0002:000083a8       ??_C@_1M@KDJDKMDD@?$AAn?$AAb?$AA?9?$AAn?$AAo@ 000000018002a3a8     libucrt:lcidtoname_downlevel.obj
 0002:000083b8       ??_C@_1M@KFCFLMJP@?$AAn?$AAl?$AA?9?$AAb?$AAe@ 000000018002a3b8     libucrt:lcidtoname_downlevel.obj
 0002:000083c8       ??_C@_1M@KPOPDDGO@?$AAn?$AAl?$AA?9?$AAn?$AAl@ 000000018002a3c8     libucrt:lcidtoname_downlevel.obj
 0002:000083d8       ??_C@_1M@LJKPEMLN@?$AAn?$AAn?$AA?9?$AAn?$AAo@ 000000018002a3d8     libucrt:lcidtoname_downlevel.obj
 0002:000083e8       ??_C@_1M@BDGHHBFL@?$AAn?$AAs?$AA?9?$AAz?$AAa@ 000000018002a3e8     libucrt:lcidtoname_downlevel.obj
 0002:000083f8       ??_C@_1M@IDEHOAP@?$AAp?$AAa?$AA?9?$AAi?$AAn@ 000000018002a3f8     libucrt:lcidtoname_downlevel.obj
 0002:00008408       ??_C@_1M@HDBKGOGH@?$AAp?$AAl?$AA?9?$AAp?$AAl@ 000000018002a408     libucrt:lcidtoname_downlevel.obj
 0002:00008418       ??_C@_1M@LJLLCMEH@?$AAp?$AAt?$AA?9?$AAb?$AAr@ 000000018002a418     libucrt:lcidtoname_downlevel.obj
 0002:00008428       ??_C@_1M@NCMONAAL@?$AAp?$AAt?$AA?9?$AAp?$AAt@ 000000018002a428     libucrt:lcidtoname_downlevel.obj
 0002:00008438       ??_C@_1O@EAKMAJDN@?$AAq?$AAu?$AAz?$AA?9?$AAb?$AAo@ 000000018002a438     libucrt:lcidtoname_downlevel.obj
 0002:00008448       ??_C@_1O@BHHPIGDN@?$AAq?$AAu?$AAz?$AA?9?$AAe?$AAc@ 000000018002a448     libucrt:lcidtoname_downlevel.obj
 0002:00008458       ??_C@_1O@GBAPEKMJ@?$AAq?$AAu?$AAz?$AA?9?$AAp?$AAe@ 000000018002a458     libucrt:lcidtoname_downlevel.obj
 0002:00008468       ??_C@_1M@CLGLEFBO@?$AAr?$AAo?$AA?9?$AAr?$AAo@ 000000018002a468     libucrt:lcidtoname_downlevel.obj
 0002:00008478       ??_C@_1M@CEEDODME@?$AAr?$AAu?$AA?9?$AAr?$AAu@ 000000018002a478     libucrt:lcidtoname_downlevel.obj
 0002:00008488       ??_C@_1M@HPKKKMPP@?$AAs?$AAa?$AA?9?$AAi?$AAn@ 000000018002a488     libucrt:lcidtoname_downlevel.obj
 0002:00008498       ??_C@_1M@BKMAIGOJ@?$AAs?$AAe?$AA?9?$AAf?$AAi@ 000000018002a498     libucrt:lcidtoname_downlevel.obj
 0002:000084a8       ??_C@_1M@NDPIFLFI@?$AAs?$AAe?$AA?9?$AAn?$AAo@ 000000018002a4a8     libucrt:lcidtoname_downlevel.obj
 0002:000084b8       ??_C@_1M@DANKKHJ@?$AAs?$AAe?$AA?9?$AAs?$AAe@ 000000018002a4b8     libucrt:lcidtoname_downlevel.obj
 0002:000084c8       ??_C@_1M@PNBLONPJ@?$AAs?$AAk?$AA?9?$AAs?$AAk@ 000000018002a4c8     libucrt:lcidtoname_downlevel.obj
 0002:000084d8       ??_C@_1M@LFMODOAL@?$AAs?$AAl?$AA?9?$AAs?$AAi@ 000000018002a4d8     libucrt:lcidtoname_downlevel.obj
 0002:000084e8       ??_C@_1O@DFKOMPG@?$AAs?$AAm?$AAa?$AA?9?$AAn?$AAo@ 000000018002a4e8     libucrt:lcidtoname_downlevel.obj
 0002:000084f8       ??_C@_1O@NDKPBNNH@?$AAs?$AAm?$AAa?$AA?9?$AAs?$AAe@ 000000018002a4f8     libucrt:lcidtoname_downlevel.obj
 0002:00008508       ??_C@_1O@PLLKBHAB@?$AAs?$AAm?$AAj?$AA?9?$AAn?$AAo@ 000000018002a508     libucrt:lcidtoname_downlevel.obj
 0002:00008518       ??_C@_1O@CLEPOGCA@?$AAs?$AAm?$AAj?$AA?9?$AAs?$AAe@ 000000018002a518     libucrt:lcidtoname_downlevel.obj
 0002:00008528       ??_C@_1O@DLGJGKMK@?$AAs?$AAm?$AAn?$AA?9?$AAf?$AAi@ 000000018002a528     libucrt:lcidtoname_downlevel.obj
 0002:00008538       ??_C@_1O@OJDJGAJC@?$AAs?$AAm?$AAs?$AA?9?$AAf?$AAi@ 000000018002a538     libucrt:lcidtoname_downlevel.obj
 0002:00008548       ??_C@_1M@BOFOGHPB@?$AAs?$AAq?$AA?9?$AAa?$AAl@ 000000018002a548     libucrt:lcidtoname_downlevel.obj
 0002:00008558       ??_C@_1BG@LJBBIPGB@?$AAs?$AAr?$AA?9?$AAb?$AAa?$AA?9?$AAc?$AAy?$AAr?$AAl@ 000000018002a558     libucrt:lcidtoname_downlevel.obj
 0002:00008570       ??_C@_1BG@JLBENFOE@?$AAs?$AAr?$AA?9?$AAb?$AAa?$AA?9?$AAl?$AAa?$AAt?$AAn@ 000000018002a570     libucrt:lcidtoname_downlevel.obj
 0002:00008588       ??_C@_1BG@KODPNHE@?$AAs?$AAr?$AA?9?$AAs?$AAp?$AA?9?$AAc?$AAy?$AAr?$AAl@ 000000018002a588     libucrt:lcidtoname_downlevel.obj
 0002:000085a0       ??_C@_1BG@CIOGKHPB@?$AAs?$AAr?$AA?9?$AAs?$AAp?$AA?9?$AAl?$AAa?$AAt?$AAn@ 000000018002a5a0     libucrt:lcidtoname_downlevel.obj
 0002:000085b8       ??_C@_1M@NGFJLMAC@?$AAs?$AAv?$AA?9?$AAf?$AAi@ 000000018002a5b8     libucrt:lcidtoname_downlevel.obj
 0002:000085c8       ??_C@_1M@MPJEJAJC@?$AAs?$AAv?$AA?9?$AAs?$AAe@ 000000018002a5c8     libucrt:lcidtoname_downlevel.obj
 0002:000085d8       ??_C@_1M@MPNDHLFK@?$AAs?$AAw?$AA?9?$AAk?$AAe@ 000000018002a5d8     libucrt:lcidtoname_downlevel.obj
 0002:000085e8       ??_C@_1O@KOHBJJI@?$AAs?$AAy?$AAr?$AA?9?$AAs?$AAy@ 000000018002a5e8     libucrt:lcidtoname_downlevel.obj
 0002:000085f8       ??_C@_1M@LDCEFHA@?$AAt?$AAa?$AA?9?$AAi?$AAn@ 000000018002a5f8     libucrt:lcidtoname_downlevel.obj
 0002:00008608       ??_C@_1M@CNJOFAK@?$AAt?$AAe?$AA?9?$AAi?$AAn@ 000000018002a608     libucrt:lcidtoname_downlevel.obj
 0002:00008618       ??_C@_1M@GNAECACD@?$AAt?$AAh?$AA?9?$AAt?$AAh@ 000000018002a618     libucrt:lcidtoname_downlevel.obj
 0002:00008628       ??_C@_1M@CHBIHOJO@?$AAt?$AAn?$AA?9?$AAz?$AAa@ 000000018002a628     libucrt:lcidtoname_downlevel.obj
 0002:00008638       ??_C@_1M@GCCMIGPJ@?$AAt?$AAr?$AA?9?$AAt?$AAr@ 000000018002a638     libucrt:lcidtoname_downlevel.obj
 0002:00008648       ??_C@_1M@CELMCNBK@?$AAt?$AAt?$AA?9?$AAr?$AAu@ 000000018002a648     libucrt:lcidtoname_downlevel.obj
 0002:00008658       ??_C@_1M@KLMCELGA@?$AAu?$AAk?$AA?9?$AAu?$AAa@ 000000018002a658     libucrt:lcidtoname_downlevel.obj
 0002:00008668       ??_C@_1M@EPAJJAJF@?$AAu?$AAr?$AA?9?$AAp?$AAk@ 000000018002a668     libucrt:lcidtoname_downlevel.obj
 0002:00008678       ??_C@_1BG@GEGPMCDJ@?$AAu?$AAz?$AA?9?$AAu?$AAz?$AA?9?$AAc?$AAy?$AAr?$AAl@ 000000018002a678     libucrt:lcidtoname_downlevel.obj
 0002:00008690       ??_C@_1BG@EGGKJILM@?$AAu?$AAz?$AA?9?$AAu?$AAz?$AA?9?$AAl?$AAa?$AAt?$AAn@ 000000018002a690     libucrt:lcidtoname_downlevel.obj
 0002:000086a8       ??_C@_1M@GFOCLFF@?$AAv?$AAi?$AA?9?$AAv?$AAn@ 000000018002a6a8     libucrt:lcidtoname_downlevel.obj
 0002:000086b8       ??_C@_1M@CPAMEDFI@?$AAx?$AAh?$AA?9?$AAz?$AAa@ 000000018002a6b8     libucrt:lcidtoname_downlevel.obj
 0002:000086c8       ??_C@_1O@EBKIFIGN@?$AAz?$AAh?$AA?9?$AAc?$AAh?$AAs@ 000000018002a6c8     libucrt:lcidtoname_downlevel.obj
 0002:000086d8       ??_C@_1O@NMHPGANE@?$AAz?$AAh?$AA?9?$AAc?$AAh?$AAt@ 000000018002a6d8     libucrt:lcidtoname_downlevel.obj
 0002:000086e8       ??_C@_1M@LPINJOMC@?$AAz?$AAh?$AA?9?$AAc?$AAn@ 000000018002a6e8     libucrt:lcidtoname_downlevel.obj
 0002:000086f8       ??_C@_1M@OCJEJODD@?$AAz?$AAh?$AA?9?$AAh?$AAk@ 000000018002a6f8     libucrt:lcidtoname_downlevel.obj
 0002:00008708       ??_C@_1M@DNDLJINH@?$AAz?$AAh?$AA?9?$AAm?$AAo@ 000000018002a708     libucrt:lcidtoname_downlevel.obj
 0002:00008718       ??_C@_1M@MBFDNDND@?$AAz?$AAh?$AA?9?$AAs?$AAg@ 000000018002a718     libucrt:lcidtoname_downlevel.obj
 0002:00008728       ??_C@_1M@IMEPLEPE@?$AAz?$AAh?$AA?9?$AAt?$AAw@ 000000018002a728     libucrt:lcidtoname_downlevel.obj
 0002:00008738       ??_C@_1M@BBGHNHJP@?$AAz?$AAu?$AA?9?$AAz?$AAa@ 000000018002a738     libucrt:lcidtoname_downlevel.obj
 0002:00008750       ?large_power_data@?1??multiply_by_power_of_ten@__crt_strtox@@YA_NAEAUbig_integer@2@I@Z@4QBIB 000000018002a750     libucrt:cfout.obj
 0002:000090f8       ?small_powers_of_ten@?1??multiply_by_power_of_ten@__crt_strtox@@YA_NAEAUbig_integer@2@I@Z@4QBIB 000000018002b0f8     libucrt:cfout.obj
 0002:0000911c       ??_C@_01GBGANLPD@0@        000000018002b11c     libucrt:cfout.obj
 0002:00009120       ??_C@_05DNEBIAHO@1?$CDINF@ 000000018002b120     libucrt:cfout.obj
 0002:00009128       ??_C@_06IMKFLFPG@1?$CDQNAN@ 000000018002b128     libucrt:cfout.obj
 0002:00009130       ??_C@_06PGGFOGJG@1?$CDSNAN@ 000000018002b130     libucrt:cfout.obj
 0002:00009138       ??_C@_05PHHOCPM@1?$CDIND@  000000018002b138     libucrt:cfout.obj
 0002:00009140       __real@3ff0000000000000    000000018002b140     libucrt:ceil.obj
 0002:000093a0       __log10_256_lead           000000018002b3a0     libucrt:log10_256_lead_tail_table.obj
 0002:00009bb0       __log10_256_tail           000000018002bbb0     libucrt:log10_256_lead_tail_table.obj
 0002:0000a3c0       __log_F_inv_qword          000000018002c3c0     libucrt:log_f_inv_qword_table.obj
 0002:0000abd0       ??_C@_05HGHHAHAP@log10@    000000018002cbd0     libucrt:log_special.obj
 0002:0000abd8       ??_C@_1BA@BALFACEM@?$AAC?$AAO?$AAN?$AAO?$AAU?$AAT?$AA$@ 000000018002cbd8     libucrt:initcon.obj
 0002:0000ac60       _load_config_used          000000018002cc60     LIBCMT:loadcfg.obj
 0002:0000ad68       _tls_used                  000000018002cd68     LIBCMT:tlssup.obj
 0002:0000ad90       ??_R4exception@std@@6B@    000000018002cd90     LIBCMT:throw_bad_alloc.obj
 0002:0000adb8       ??_R3exception@std@@8      000000018002cdb8     LIBCMT:throw_bad_alloc.obj
 0002:0000add0       ??_R2exception@std@@8      000000018002cdd0     LIBCMT:throw_bad_alloc.obj
 0002:0000ade0       ??_R1A@?0A@EA@exception@std@@8 000000018002cde0     LIBCMT:throw_bad_alloc.obj
 0002:0000ae08       ??_R4bad_alloc@std@@6B@    000000018002ce08     LIBCMT:throw_bad_alloc.obj
 0002:0000ae30       ??_R3bad_alloc@std@@8      000000018002ce30     LIBCMT:throw_bad_alloc.obj
 0002:0000ae48       ??_R2bad_alloc@std@@8      000000018002ce48     LIBCMT:throw_bad_alloc.obj
 0002:0000ae60       ??_R1A@?0A@EA@bad_alloc@std@@8 000000018002ce60     LIBCMT:throw_bad_alloc.obj
 0002:0000ae88       ??_R4bad_array_new_length@std@@6B@ 000000018002ce88     LIBCMT:throw_bad_alloc.obj
 0002:0000aeb0       ??_R3bad_array_new_length@std@@8 000000018002ceb0     LIBCMT:throw_bad_alloc.obj
 0002:0000aec8       ??_R2bad_array_new_length@std@@8 000000018002cec8     LIBCMT:throw_bad_alloc.obj
 0002:0000aee8       ??_R1A@?0A@EA@bad_array_new_length@std@@8 000000018002cee8     LIBCMT:throw_bad_alloc.obj
 0002:0000af10       ??_R4type_info@@6B@        000000018002cf10     LIBCMT:std_type_info_static.obj
 0002:0000af38       ??_R3type_info@@8          000000018002cf38     LIBCMT:std_type_info_static.obj
 0002:0000af50       ??_R2type_info@@8          000000018002cf50     LIBCMT:std_type_info_static.obj
 0002:0000af60       ??_R1A@?0A@EA@type_info@@8 000000018002cf60     LIBCMT:std_type_info_static.obj
 0002:0000af88       ??_R4bad_exception@std@@6B@ 000000018002cf88     libvcruntime:frame.obj
 0002:0000afb0       ??_R3bad_exception@std@@8  000000018002cfb0     libvcruntime:frame.obj
 0002:0000afc8       ??_R2bad_exception@std@@8  000000018002cfc8     libvcruntime:frame.obj
 0002:0000afe0       ??_R1A@?0A@EA@bad_exception@std@@8 000000018002cfe0     libvcruntime:frame.obj
 0002:0000b408       __rtc_iaa                  000000018002d408     LIBCMT:initsect.obj
 0002:0000b410       __rtc_izz                  000000018002d410     LIBCMT:initsect.obj
 0002:0000b418       __rtc_taa                  000000018002d418     LIBCMT:initsect.obj
 0002:0000b420       __rtc_tzz                  000000018002d420     LIBCMT:initsect.obj
 0002:0000b428       _tls_start                 000000018002d428     LIBCMT:tlssup.obj
 0002:0000b42c       _Init_thread_epoch         000000018002d42c     LIBCMT:thread_safe_statics.obj
 0002:0000b430       _tls_end                   000000018002d430     LIBCMT:tlssup.obj
 0002:0000ca98       _TI2?AVbad_alloc@std@@     000000018002ea98     LIBCMT:throw_bad_alloc.obj
 0002:0000cab8       _CTA2?AVbad_alloc@std@@    000000018002eab8     LIBCMT:throw_bad_alloc.obj
 0002:0000cad0       _CT??_R0?AVbad_alloc@std@@@8??0bad_alloc@std@@QEAA@AEBV01@@Z24 000000018002ead0     LIBCMT:throw_bad_alloc.obj
 0002:0000caf8       _CT??_R0?AVexception@std@@@8??0exception@std@@QEAA@AEBV01@@Z24 000000018002eaf8     LIBCMT:throw_bad_alloc.obj
 0002:0000cb20       _TI3?AVbad_array_new_length@std@@ 000000018002eb20     LIBCMT:throw_bad_alloc.obj
 0002:0000cb40       _CTA3?AVbad_array_new_length@std@@ 000000018002eb40     LIBCMT:throw_bad_alloc.obj
 0002:0000cb60       _CT??_R0?AVbad_array_new_length@std@@@8??0bad_array_new_length@std@@QEAA@AEBV01@@Z24 000000018002eb60     LIBCMT:throw_bad_alloc.obj
 0002:0000cb88       _TI2?AVbad_exception@std@@ 000000018002eb88     libvcruntime:frame.obj
 0002:0000cba8       _CTA2?AVbad_exception@std@@ 000000018002eba8     libvcruntime:frame.obj
 0002:0000cbc0       _CT??_R0?AVbad_exception@std@@@8??0bad_exception@std@@QEAA@AEBV01@@Z24 000000018002ebc0     libvcruntime:frame.obj
 0002:0000cbe8       __pobjMapEntryFirst        000000018002ebe8     OposVariant.obj
 0002:0000cbf0       __pobjMapEntryLast         000000018002ebf0     OposVariant.obj
 0002:0000cca8       __IMPORT_DESCRIPTOR_KERNEL32 000000018002eca8     kernel32:KERNEL32.dll
 0002:0000ccbc       __IMPORT_DESCRIPTOR_USER32 000000018002ecbc     user32:USER32.dll
 0002:0000ccd0       __IMPORT_DESCRIPTOR_GDI32  000000018002ecd0     gdi32:GDI32.dll
 0002:0000cce4       __IMPORT_DESCRIPTOR_ADVAPI32 000000018002ece4     advapi32:ADVAPI32.dll
 0002:0000ccf8       __IMPORT_DESCRIPTOR_ole32  000000018002ecf8     ole32:ole32.dll
 0002:0000cd0c       __IMPORT_DESCRIPTOR_OLEAUT32 000000018002ed0c     oleaut32:OLEAUT32.dll
 0002:0000cd20       __NULL_IMPORT_DESCRIPTOR   000000018002ed20     kernel32:KERNEL32.dll
 0003:00000000       ?_tih@?$IDispatchImpl@UIOPOSPINPad@@$1?IID_IOPOSPINPad@@3U_GUID@@B$1?LIBID_OposPINPad_CCO@@3U3@B$00$0A@VCComTypeInfoHolder@ATL@@@ATL@@1VCComTypeInfoHolder@2@A 0000000180030000     PINPad.obj
 0003:00000038       ?_tih@?$IProvideClassInfo2Impl@$1?CLSID_OPOSPINPad@@3U_GUID@@B$1?DIID__IOPOSPINPadEvents@@3U2@B$1?LIBID_OposPINPad_CCO@@3U2@B$00$0A@VCComTypeInfoHolder@ATL@@@ATL@@1VCComTypeInfoHolder@2@A 0000000180030038     PINPad.obj
 0003:00000070       ?vszContents@?6??Save@?$IPersistStorageImpl@VCOPOSPINPad@@@ATL@@UEAAJPEAUIStorage@@H@Z@4PEB_WEB 0000000180030070     PINPad.obj
 0003:00000080       ?wc@?1??GetWndClassInfo@?$CWindowImpl@VCOPOSPINPad@@VCWindow@ATL@@V?$CWinTraits@$0FGAAAAAA@$0A@@3@@ATL@@SAAEAU_ATL_WNDCLASSINFOW@3@XZ@4U43@A 0000000180030080     PINPad.obj
 0003:00000178       ?rcDefault@CWindow@ATL@@2UtagRECT@@A 0000000180030178     PINPad.obj
 0003:00000188       ?s_Claim@?7??GetIDsOfNames@CComTypeInfoHolder@ATL@@QEAAJAEBU_GUID@@PEAPEA_WIKPEAJ@Z@4PA_WA 0000000180030188     PINPad.obj
 0003:000001a0       ?s_Release@?7??GetIDsOfNames@CComTypeInfoHolder@ATL@@QEAAJAEBU_GUID@@PEAPEA_WIKPEAJ@Z@4PA_WA 00000001800301a0     PINPad.obj
 0003:00000250       ?g_WindowName@@3PA_WA      0000000180030250     PINPadImpl.obj
 0003:0000026c       ?g_ControlVersion@@3JA     000000018003026c     PINPadImpl.obj
 0003:00000270       ?g_ControlDescription@@3PADA 0000000180030270     PINPadImpl.obj
 0003:000003b8       __scrt_native_dllmain_reason 00000001800303b8     LIBCMT:utility.obj
 0003:000003bc       _Init_global_epoch         00000001800303bc     LIBCMT:thread_safe_statics.obj
 0003:000003c0       __security_cookie_complement 00000001800303c0     LIBCMT:gs_cookie.obj
 0003:000003c8       __security_cookie          00000001800303c8     LIBCMT:gs_cookie.obj
 0003:000003d0       __isa_available            00000001800303d0     LIBCMT:cpu_disp.obj
 0003:000003d4       __isa_enabled              00000001800303d4     LIBCMT:cpu_disp.obj
 0003:000003d8       __memcpy_nt_iters          00000001800303d8     LIBCMT:cpu_disp.obj
 0003:000003e0       __memset_nt_iters          00000001800303e0     LIBCMT:cpu_disp.obj
 0003:00000408       __abort_behavior           0000000180030408     libucrt:abort.obj
 0003:00000420       _iob                       0000000180030420     libucrt:_file.obj
 0003:00000530       __acrt_initial_locale_data 0000000180030530     libucrt:nlsdata.obj
 0003:00000688       __acrt_initial_locale_pointers 0000000180030688     libucrt:nlsdata.obj
 0003:00000698       __acrt_wide_c_locale_string 0000000180030698     libucrt:nlsdata.obj
 0003:000006a0       __acrt_initial_multibyte_data 00000001800306a0     libucrt:mbctype.obj
 0003:00000be0       _pwctype                   0000000180030be0     libucrt:ctype.obj
 0003:00000be8       __globallocalestatus       0000000180030be8     libucrt:glstatus.obj
 0003:00000bf0       __acrt_lconv_c             0000000180030bf0     libucrt:localeconv.obj
 0003:00000c88       __acrt_lconv_static_decimal 0000000180030c88     libucrt:localeconv.obj
 0003:00000c8c       __acrt_lconv_static_W_decimal 0000000180030c8c     libucrt:localeconv.obj
 0003:00000c90       _lookuptrailbytes          0000000180030c90     libucrt:read.obj
 0003:00000da4       _fltused                   0000000180030da4     LIBCMT:fltused.obj
 0003:00000da8       ??_R0?AVbad_alloc@std@@@8  0000000180030da8     LIBCMT:throw_bad_alloc.obj
 0003:00000dd0       ??_R0?AVexception@std@@@8  0000000180030dd0     LIBCMT:throw_bad_alloc.obj
 0003:00000df8       ??_R0?AVbad_array_new_length@std@@@8 0000000180030df8     LIBCMT:throw_bad_alloc.obj
 0003:00000e28       ??_R0?AVtype_info@@@8      0000000180030e28     LIBCMT:std_type_info_static.obj
 0003:00000e48       ??_R0?AVbad_exception@std@@@8 0000000180030e48     libvcruntime:frame.obj
 0003:00000e70       ?_pPerfRegFunc@ATL@@3P6AJPEAUHINSTANCE__@@@ZEA 0000000180030e70     OposVariant.obj
 0003:00000e78       ?_pPerfUnRegFunc@ATL@@3P6AJXZEA 0000000180030e78     OposVariant.obj
 0003:00000e80       ?_AtlRegisterPerUser@ATL@@3_NA 0000000180030e80     OposVariant.obj
 0003:00000e88       ?_pAtlModule@ATL@@3PEAVCAtlModule@1@EA 0000000180030e88     OposVariant.obj
 0003:00000e90       ?_pModule@ATL@@3PEAVCComModule@1@EA 0000000180030e90     OposVariant.obj
 0003:00000e98       ?m_bInitFailed@CAtlBaseModule@ATL@@2_NA 0000000180030e98     OposVariant.obj
 0003:00000ea0       ?_AtlComModule@ATL@@3VCAtlComModule@1@A 0000000180030ea0     OposVariant.obj
 0003:00000ef0       ?_AtlWinModule@ATL@@3VCAtlWinModule@1@A 0000000180030ef0     OposVariant.obj
 0003:00000f38       ?m_libid@CAtlModule@ATL@@2U_GUID@@A 0000000180030f38     PINPad.obj
 0003:00000f48       ?_entries@?1??GetConnMap@COPOSPINPad@@SAPEBU_ATL_CONNMAP_ENTRY@ATL@@PEAH@Z@4QBU34@B 0000000180030f48     PINPad.obj
 0003:00000f60       ?$TSS0@?1??GetConnMap@COPOSPINPad@@SAPEBU_ATL_CONNMAP_ENTRY@ATL@@PEAH@Z@4HA 0000000180030f60     PINPad.obj
 0003:00000f68       ?_OptionsStorage@?1??__local_stdio_printf_options@@9@4_KA 0000000180030f68     PINPad.obj
 0003:00000f70       ?pfnRegDeleteKeyEx@?1??DeleteSubKey@CRegKey@ATL@@QEAAJPEB_W@Z@4P6AJPEAUHKEY__@@0KK@ZEA 0000000180030f70     PINPad.obj
 0003:00000f78       ?bInitialized@?1??DeleteSubKey@CRegKey@ATL@@QEAAJPEB_W@Z@4_NA 0000000180030f78     PINPad.obj
 0003:00000f80       ?_Module@@3VCComModule@ATL@@A 0000000180030f80     PINPad.obj
 0003:00000fd0       ?pConnMap@?$IConnectionPointContainerImpl@VCOPOSPINPad@@@ATL@@0PEBU_ATL_CONNMAP_ENTRY@2@EB 0000000180030fd0     PINPad.obj
 0003:00000fd8       ?s_nInstances@COPOSPINPad@@1HA 0000000180030fd8     PINPadImpl.obj
 0003:00000fe0       __scrt_current_native_startup_state 0000000180030fe0     LIBCMT:utility.obj
 0003:00000fe8       __scrt_native_startup_lock 0000000180030fe8     LIBCMT:utility.obj
 0003:000015e0       _tls_index                 00000001800315e0     LIBCMT:tlssup.obj
 0003:000015e8       __favor                    00000001800315e8     LIBCMT:cpu_disp.obj
 0003:000015ec       __scrt_debugger_hook_flag  00000001800315ec     LIBCMT:utility_desktop.obj
 0003:000015f0       ?__type_info_root_node@@3U__type_info_node@@A 00000001800315f0     LIBCMT:tncleanup.obj
 0003:00001600       ?_OptionsStorage@?1??__local_stdio_scanf_options@@9@4_KA 0000000180031600     LIBCMT:default_local_stdio_options.obj
 0003:00001610       ?_AtlBaseModule@ATL@@3VCAtlBaseModule@1@A 0000000180031610     atls:atlbase.obj
 0003:00001670       ?__AtlThunkPool@@3PEAT_SLIST_HEADER@@EA 0000000180031670     atls:atlthunk.obj
 0003:0000169c       __@@_PchSym_@00@UztvmgUPdlipUFUhUrmgvinvwrzgvUexgllohUzgohOmzgrevkilqPBACIAJCBDBUlyqiUznwGEUhgwzucOlyq@4B2008FD98C1DD4 000000018003169c     atls:stdafx.obj
 0003:000016a0       ?__WinRTOutOfMemoryExceptionCallback@@3P6APEAXXZEA 00000001800316a0     libvcruntime:ehhelpers.obj
 0003:000016a8       __pPurecall                00000001800316a8     libvcruntime:purevirt_data.obj
 0003:00001760       ?pArgList@UnDecorator@@0PEAVReplicator@@EA 0000000180031760     libvcruntime:undname.obj
 0003:00001768       ?pZNameList@UnDecorator@@0PEAVReplicator@@EA 0000000180031768     libvcruntime:undname.obj
 0003:00001770       ?pTemplateArgList@UnDecorator@@0PEAVReplicator@@EA 0000000180031770     libvcruntime:undname.obj
 0003:00001778       ?gName@UnDecorator@@0PEBDEB 0000000180031778     libvcruntime:undname.obj
 0003:00001780       ?name@UnDecorator@@0PEBDEB 0000000180031780     libvcruntime:undname.obj
 0003:00001788       ?disableFlags@UnDecorator@@0KA 0000000180031788     libvcruntime:undname.obj
 0003:0000178c       ?fExplicitTemplateParams@UnDecorator@@0_NA 000000018003178c     libvcruntime:undname.obj
 0003:0000178d       ?fGetTemplateArgumentList@UnDecorator@@0_NA 000000018003178d     libvcruntime:undname.obj
 0003:00001790       ?m_pGetParameter@UnDecorator@@0P6APEADJ@ZEA 0000000180031790     libvcruntime:undname.obj
 0003:00001798       ?m_CHPENameOffset@UnDecorator@@0KA 0000000180031798     libvcruntime:undname.obj
 0003:0000179c       ?m_recursionLevel@UnDecorator@@0KA 000000018003179c     libvcruntime:undname.obj
 0003:00001820       ?c_exit_complete@?1???R<lambda_6e4b09c48022b2350581041d5f6b0c4c>@@QEBA@XZ@4_NA 0000000180031820     libucrt:exit.obj
 0003:00001938       _environ_table             0000000180031938     libucrt:environment_initialization.obj
 0003:00001940       _wenviron_table            0000000180031940     libucrt:environment_initialization.obj
 0003:00001948       __dcrt_initial_wide_environment 0000000180031948     libucrt:environment_initialization.obj
 0003:00001950       __dcrt_initial_narrow_environment 0000000180031950     libucrt:environment_initialization.obj
 0003:00001958       __acrt_atexit_table        0000000180031958     libucrt:onexit.obj
 0003:00001970       __acrt_at_quick_exit_table 0000000180031970     libucrt:onexit.obj
 0003:00001b48       _nstream                   0000000180031b48     libucrt:_file.obj
 0003:00001b50       __piob                     0000000180031b50     libucrt:_file.obj
 0003:00001b60       __acrt_stdout_buffer       0000000180031b60     libucrt:_sftbuf.obj
 0003:00001b68       __acrt_stderr_buffer       0000000180031b68     libucrt:_sftbuf.obj
 0003:00001b70       __acrt_locale_changed_data 0000000180031b70     libucrt:wsetlocale.obj
 0003:00001b78       __acrt_current_locale_data 0000000180031b78     libucrt:nlsdata.obj
 0003:00001b80       __pioinfo                  0000000180031b80     libucrt:ioinit.obj
 0003:00001f80       _nhandle                   0000000180031f80     libucrt:ioinit.obj
 0003:000021c8       _mbctype                   00000001800321c8     libucrt:mbctype.obj
 0003:000021d0       _mbcasemap                 00000001800321d0     libucrt:mbctype.obj
 0003:000021d8       __acrt_current_multibyte_data 00000001800321d8     libucrt:mbctype.obj
 0003:000021e8       _pgmptr                    00000001800321e8     libucrt:argv_data.obj
 0003:000021f0       __argc                     00000001800321f0     libucrt:argv_data.obj
 0003:000021f8       __argv                     00000001800321f8     libucrt:argv_data.obj
 0003:00002200       __wargv                    0000000180032200     libucrt:argv_data.obj
 0003:00002208       _acmdln                    0000000180032208     libucrt:argv_data.obj
 0003:00002210       _wcmdln                    0000000180032210     libucrt:argv_data.obj
 0003:00002218       __acrt_heap                0000000180032218     libucrt:heap_handle.obj
 0003:0000224c       __acrt_lconv_static_null   000000018003224c     libucrt:localeconv.obj
 0003:00002250       __acrt_lconv_static_W_null 0000000180032250     libucrt:localeconv.obj
 0003:00002264       __fma3_is_available        0000000180032264     libucrt:fma3_available.obj
 0003:00002268       __use_fma3_lib             0000000180032268     libucrt:fma3_available.obj
 0003:00002270       __dyn_tls_init_callback    0000000180032270     <common>
 0003:00002278       __scrt_ucrt_dll_is_in_use  0000000180032278     <common>

 entry point at        0001:0000f494

 Static symbols

 0000:fffc4000       .debug$S                   0000000180000000     OPOSPINPad.exp
 0000:fffc4000       .debug$S                   0000000180000000     advapi32:ADVAPI32.dll
 0000:fffc4000       .debug$S                   0000000180000000     advapi32:ADVAPI32.dll
 0000:fffc4000       .debug$S                   0000000180000000     advapi32:ADVAPI32.dll
 0000:fffc4000       .debug$S                   0000000180000000     advapi32:ADVAPI32.dll
 0000:fffc4000       .debug$S                   0000000180000000     advapi32:ADVAPI32.dll
 0000:fffc4000       .debug$S                   0000000180000000     advapi32:ADVAPI32.dll
 0000:fffc4000       .debug$S                   0000000180000000     advapi32:ADVAPI32.dll
 0000:fffc4000       .debug$S                   0000000180000000     advapi32:ADVAPI32.dll
 0000:fffc4000       .debug$S                   0000000180000000     advapi32:ADVAPI32.dll
 0000:fffc4000       .debug$S                   0000000180000000     gdi32:GDI32.dll
 0000:fffc4000       .debug$S                   0000000180000000     gdi32:GDI32.dll
 0000:fffc4000       .debug$S                   0000000180000000     gdi32:GDI32.dll
 0000:fffc4000       .debug$S                   0000000180000000     gdi32:GDI32.dll
 0000:fffc4000       .debug$S                   0000000180000000     gdi32:GDI32.dll
 0000:fffc4000       .debug$S                   0000000180000000     gdi32:GDI32.dll
 0000:fffc4000       .debug$S                   0000000180000000     gdi32:GDI32.dll
 0000:fffc4000       .debug$S                   0000000180000000     gdi32:GDI32.dll
 0000:fffc4000       .debug$S                   0000000180000000     gdi32:GDI32.dll
 0000:fffc4000       .debug$S                   0000000180000000     gdi32:GDI32.dll
 0000:fffc4000       .debug$S                   0000000180000000     gdi32:GDI32.dll
 0000:fffc4000       .debug$S                   0000000180000000     gdi32:GDI32.dll
 0000:fffc4000       .debug$S                   0000000180000000     gdi32:GDI32.dll
 0000:fffc4000       .debug$S                   0000000180000000     gdi32:GDI32.dll
 0000:fffc4000       .debug$S                   0000000180000000     gdi32:GDI32.dll
 0000:fffc4000       .debug$S                   0000000180000000     gdi32:GDI32.dll
 0000:fffc4000       .debug$S                   0000000180000000     gdi32:GDI32.dll
 0000:fffc4000       .debug$S                   0000000180000000     gdi32:GDI32.dll
 0000:fffc4000       .debug$S                   0000000180000000     gdi32:GDI32.dll
 0000:fffc4000       .debug$S                   0000000180000000     kernel32:KERNEL32.dll
 0000:fffc4000       .debug$S                   0000000180000000     kernel32:KERNEL32.dll
 0000:fffc4000       .debug$S                   0000000180000000     kernel32:KERNEL32.dll
 0000:fffc4000       .debug$S                   0000000180000000     kernel32:KERNEL32.dll
 0000:fffc4000       .debug$S                   0000000180000000     kernel32:KERNEL32.dll
 0000:fffc4000       .debug$S                   0000000180000000     kernel32:KERNEL32.dll
 0000:fffc4000       .debug$S                   0000000180000000     kernel32:KERNEL32.dll
 0000:fffc4000       .debug$S                   0000000180000000     kernel32:KERNEL32.dll
 0000:fffc4000       .debug$S                   0000000180000000     kernel32:KERNEL32.dll
 0000:fffc4000       .debug$S                   0000000180000000     kernel32:KERNEL32.dll
 0000:fffc4000       .debug$S                   0000000180000000     kernel32:KERNEL32.dll
 0000:fffc4000       .debug$S                   0000000180000000     kernel32:KERNEL32.dll
 0000:fffc4000       .debug$S                   0000000180000000     kernel32:KERNEL32.dll
 0000:fffc4000       .debug$S                   0000000180000000     kernel32:KERNEL32.dll
 0000:fffc4000       .debug$S                   0000000180000000     kernel32:KERNEL32.dll
 0000:fffc4000       .debug$S                   0000000180000000     kernel32:KERNEL32.dll
 0000:fffc4000       .debug$S                   0000000180000000     kernel32:KERNEL32.dll
 0000:fffc4000       .debug$S                   0000000180000000     kernel32:KERNEL32.dll
 0000:fffc4000       .debug$S                   0000000180000000     kernel32:KERNEL32.dll
 0000:fffc4000       .debug$S                   0000000180000000     kernel32:KERNEL32.dll
 0000:fffc4000       .debug$S                   0000000180000000     kernel32:KERNEL32.dll
 0000:fffc4000       .debug$S                   0000000180000000     kernel32:KERNEL32.dll
 0000:fffc4000       .debug$S                   0000000180000000     kernel32:KERNEL32.dll
 0000:fffc4000       .debug$S                   0000000180000000     kernel32:KERNEL32.dll
 0000:fffc4000       .debug$S                   0000000180000000     kernel32:KERNEL32.dll
 0000:fffc4000       .debug$S                   0000000180000000     kernel32:KERNEL32.dll
 0000:fffc4000       .debug$S                   0000000180000000     kernel32:KERNEL32.dll
 0000:fffc4000       .debug$S                   0000000180000000     kernel32:KERNEL32.dll
 0000:fffc4000       .debug$S                   0000000180000000     kernel32:KERNEL32.dll
 0000:fffc4000       .debug$S                   0000000180000000     kernel32:KERNEL32.dll
 0000:fffc4000       .debug$S                   0000000180000000     kernel32:KERNEL32.dll
 0000:fffc4000       .debug$S                   0000000180000000     kernel32:KERNEL32.dll
 0000:fffc4000       .debug$S                   0000000180000000     kernel32:KERNEL32.dll
 0000:fffc4000       .debug$S                   0000000180000000     kernel32:KERNEL32.dll
 0000:fffc4000       .debug$S                   0000000180000000     kernel32:KERNEL32.dll
 0000:fffc4000       .debug$S                   0000000180000000     kernel32:KERNEL32.dll
 0000:fffc4000       .debug$S                   0000000180000000     kernel32:KERNEL32.dll
 0000:fffc4000       .debug$S                   0000000180000000     kernel32:KERNEL32.dll
 0000:fffc4000       .debug$S                   0000000180000000     kernel32:KERNEL32.dll
 0000:fffc4000       .debug$S                   0000000180000000     kernel32:KERNEL32.dll
 0000:fffc4000       .debug$S                   0000000180000000     kernel32:KERNEL32.dll
 0000:fffc4000       .debug$S                   0000000180000000     kernel32:KERNEL32.dll
 0000:fffc4000       .debug$S                   0000000180000000     kernel32:KERNEL32.dll
 0000:fffc4000       .debug$S                   0000000180000000     kernel32:KERNEL32.dll
 0000:fffc4000       .debug$S                   0000000180000000     kernel32:KERNEL32.dll
 0000:fffc4000       .debug$S                   0000000180000000     kernel32:KERNEL32.dll
 0000:fffc4000       .debug$S                   0000000180000000     kernel32:KERNEL32.dll
 0000:fffc4000       .debug$S                   0000000180000000     kernel32:KERNEL32.dll
 0000:fffc4000       .debug$S                   0000000180000000     kernel32:KERNEL32.dll
 0000:fffc4000       .debug$S                   0000000180000000     kernel32:KERNEL32.dll
 0000:fffc4000       .debug$S                   0000000180000000     kernel32:KERNEL32.dll
 0000:fffc4000       .debug$S                   0000000180000000     kernel32:KERNEL32.dll
 0000:fffc4000       .debug$S                   0000000180000000     kernel32:KERNEL32.dll
 0000:fffc4000       .debug$S                   0000000180000000     kernel32:KERNEL32.dll
 0000:fffc4000       .debug$S                   0000000180000000     kernel32:KERNEL32.dll
 0000:fffc4000       .debug$S                   0000000180000000     kernel32:KERNEL32.dll
 0000:fffc4000       .debug$S                   0000000180000000     kernel32:KERNEL32.dll
 0000:fffc4000       .debug$S                   0000000180000000     kernel32:KERNEL32.dll
 0000:fffc4000       .debug$S                   0000000180000000     kernel32:KERNEL32.dll
 0000:fffc4000       .debug$S                   0000000180000000     kernel32:KERNEL32.dll
 0000:fffc4000       .debug$S                   0000000180000000     kernel32:KERNEL32.dll
 0000:fffc4000       .debug$S                   0000000180000000     kernel32:KERNEL32.dll
 0000:fffc4000       .debug$S                   0000000180000000     kernel32:KERNEL32.dll
 0000:fffc4000       .debug$S                   0000000180000000     kernel32:KERNEL32.dll
 0000:fffc4000       .debug$S                   0000000180000000     kernel32:KERNEL32.dll
 0000:fffc4000       .debug$S                   0000000180000000     kernel32:KERNEL32.dll
 0000:fffc4000       .debug$S                   0000000180000000     kernel32:KERNEL32.dll
 0000:fffc4000       .debug$S                   0000000180000000     kernel32:KERNEL32.dll
 0000:fffc4000       .debug$S                   0000000180000000     kernel32:KERNEL32.dll
 0000:fffc4000       .debug$S                   0000000180000000     kernel32:KERNEL32.dll
 0000:fffc4000       .debug$S                   0000000180000000     kernel32:KERNEL32.dll
 0000:fffc4000       .debug$S                   0000000180000000     kernel32:KERNEL32.dll
 0000:fffc4000       .debug$S                   0000000180000000     kernel32:KERNEL32.dll
 0000:fffc4000       .debug$S                   0000000180000000     kernel32:KERNEL32.dll
 0000:fffc4000       .debug$S                   0000000180000000     kernel32:KERNEL32.dll
 0000:fffc4000       .debug$S                   0000000180000000     kernel32:KERNEL32.dll
 0000:fffc4000       .debug$S                   0000000180000000     kernel32:KERNEL32.dll
 0000:fffc4000       .debug$S                   0000000180000000     kernel32:KERNEL32.dll
 0000:fffc4000       .debug$S                   0000000180000000     kernel32:KERNEL32.dll
 0000:fffc4000       .debug$S                   0000000180000000     kernel32:KERNEL32.dll
 0000:fffc4000       .debug$S                   0000000180000000     kernel32:KERNEL32.dll
 0000:fffc4000       .debug$S                   0000000180000000     kernel32:KERNEL32.dll
 0000:fffc4000       .debug$S                   0000000180000000     kernel32:KERNEL32.dll
 0000:fffc4000       .debug$S                   0000000180000000     kernel32:KERNEL32.dll
 0000:fffc4000       .debug$S                   0000000180000000     kernel32:KERNEL32.dll
 0000:fffc4000       .debug$S                   0000000180000000     kernel32:KERNEL32.dll
 0000:fffc4000       .debug$S                   0000000180000000     kernel32:KERNEL32.dll
 0000:fffc4000       .debug$S                   0000000180000000     kernel32:KERNEL32.dll
 0000:fffc4000       .debug$S                   0000000180000000     kernel32:KERNEL32.dll
 0000:fffc4000       .debug$S                   0000000180000000     kernel32:KERNEL32.dll
 0000:fffc4000       .debug$S                   0000000180000000     kernel32:KERNEL32.dll
 0000:fffc4000       .debug$S                   0000000180000000     kernel32:KERNEL32.dll
 0000:fffc4000       .debug$S                   0000000180000000     kernel32:KERNEL32.dll
 0000:fffc4000       .debug$S                   0000000180000000     kernel32:KERNEL32.dll
 0000:fffc4000       .debug$S                   0000000180000000     kernel32:KERNEL32.dll
 0000:fffc4000       .debug$S                   0000000180000000     kernel32:KERNEL32.dll
 0000:fffc4000       .debug$S                   0000000180000000     kernel32:KERNEL32.dll
 0000:fffc4000       .debug$S                   0000000180000000     kernel32:KERNEL32.dll
 0000:fffc4000       .debug$S                   0000000180000000     kernel32:KERNEL32.dll
 0000:fffc4000       .debug$S                   0000000180000000     kernel32:KERNEL32.dll
 0000:fffc4000       .debug$S                   0000000180000000     kernel32:KERNEL32.dll
 0000:fffc4000       .debug$S                   0000000180000000     kernel32:KERNEL32.dll
 0000:fffc4000       .debug$S                   0000000180000000     kernel32:KERNEL32.dll
 0000:fffc4000       .debug$S                   0000000180000000     kernel32:KERNEL32.dll
 0000:fffc4000       .debug$S                   0000000180000000     kernel32:KERNEL32.dll
 0000:fffc4000       .debug$S                   0000000180000000     kernel32:KERNEL32.dll
 0000:fffc4000       .debug$S                   0000000180000000     kernel32:KERNEL32.dll
 0000:fffc4000       .debug$S                   0000000180000000     kernel32:KERNEL32.dll
 0000:fffc4000       .debug$S                   0000000180000000     kernel32:KERNEL32.dll
 0000:fffc4000       .debug$S                   0000000180000000     kernel32:KERNEL32.dll
 0000:fffc4000       .debug$S                   0000000180000000     kernel32:KERNEL32.dll
 0000:fffc4000       .debug$S                   0000000180000000     ole32:ole32.dll
 0000:fffc4000       .debug$S                   0000000180000000     ole32:ole32.dll
 0000:fffc4000       .debug$S                   0000000180000000     ole32:ole32.dll
 0000:fffc4000       .debug$S                   0000000180000000     ole32:ole32.dll
 0000:fffc4000       .debug$S                   0000000180000000     ole32:ole32.dll
 0000:fffc4000       .debug$S                   0000000180000000     ole32:ole32.dll
 0000:fffc4000       .debug$S                   0000000180000000     ole32:ole32.dll
 0000:fffc4000       .debug$S                   0000000180000000     ole32:ole32.dll
 0000:fffc4000       .debug$S                   0000000180000000     ole32:ole32.dll
 0000:fffc4000       .debug$S                   0000000180000000     ole32:ole32.dll
 0000:fffc4000       .debug$S                   0000000180000000     ole32:ole32.dll
 0000:fffc4000       .debug$S                   0000000180000000     ole32:ole32.dll
 0000:fffc4000       .debug$S                   0000000180000000     ole32:ole32.dll
 0000:fffc4000       .debug$S                   0000000180000000     ole32:ole32.dll
 0000:fffc4000       .debug$S                   0000000180000000     oleaut32:OLEAUT32.dll
 0000:fffc4000       .debug$S                   0000000180000000     oleaut32:OLEAUT32.dll
 0000:fffc4000       .debug$S                   0000000180000000     oleaut32:OLEAUT32.dll
 0000:fffc4000       .debug$S                   0000000180000000     oleaut32:OLEAUT32.dll
 0000:fffc4000       .debug$S                   0000000180000000     oleaut32:OLEAUT32.dll
 0000:fffc4000       .debug$S                   0000000180000000     oleaut32:OLEAUT32.dll
 0000:fffc4000       .debug$S                   0000000180000000     oleaut32:OLEAUT32.dll
 0000:fffc4000       .debug$S                   0000000180000000     oleaut32:OLEAUT32.dll
 0000:fffc4000       .debug$S                   0000000180000000     oleaut32:OLEAUT32.dll
 0000:fffc4000       .debug$S                   0000000180000000     oleaut32:OLEAUT32.dll
 0000:fffc4000       .debug$S                   0000000180000000     oleaut32:OLEAUT32.dll
 0000:fffc4000       .debug$S                   0000000180000000     oleaut32:OLEAUT32.dll
 0000:fffc4000       .debug$S                   0000000180000000     oleaut32:OLEAUT32.dll
 0000:fffc4000       .debug$S                   0000000180000000     oleaut32:OLEAUT32.dll
 0000:fffc4000       .debug$S                   0000000180000000     oleaut32:OLEAUT32.dll
 0000:fffc4000       .debug$S                   0000000180000000     oleaut32:OLEAUT32.dll
 0000:fffc4000       .debug$S                   0000000180000000     user32:USER32.dll
 0000:fffc4000       .debug$S                   0000000180000000     user32:USER32.dll
 0000:fffc4000       .debug$S                   0000000180000000     user32:USER32.dll
 0000:fffc4000       .debug$S                   0000000180000000     user32:USER32.dll
 0000:fffc4000       .debug$S                   0000000180000000     user32:USER32.dll
 0000:fffc4000       .debug$S                   0000000180000000     user32:USER32.dll
 0000:fffc4000       .debug$S                   0000000180000000     user32:USER32.dll
 0000:fffc4000       .debug$S                   0000000180000000     user32:USER32.dll
 0000:fffc4000       .debug$S                   0000000180000000     user32:USER32.dll
 0000:fffc4000       .debug$S                   0000000180000000     user32:USER32.dll
 0000:fffc4000       .debug$S                   0000000180000000     user32:USER32.dll
 0000:fffc4000       .debug$S                   0000000180000000     user32:USER32.dll
 0000:fffc4000       .debug$S                   0000000180000000     user32:USER32.dll
 0000:fffc4000       .debug$S                   0000000180000000     user32:USER32.dll
 0000:fffc4000       .debug$S                   0000000180000000     user32:USER32.dll
 0000:fffc4000       .debug$S                   0000000180000000     user32:USER32.dll
 0000:fffc4000       .debug$S                   0000000180000000     user32:USER32.dll
 0000:fffc4000       .debug$S                   0000000180000000     user32:USER32.dll
 0000:fffc4000       .debug$S                   0000000180000000     user32:USER32.dll
 0000:fffc4000       .debug$S                   0000000180000000     user32:USER32.dll
 0000:fffc4000       .debug$S                   0000000180000000     user32:USER32.dll
 0000:fffc4000       .debug$S                   0000000180000000     user32:USER32.dll
 0000:fffc4000       .debug$S                   0000000180000000     user32:USER32.dll
 0000:fffc4000       .debug$S                   0000000180000000     user32:USER32.dll
 0000:fffc4000       .debug$S                   0000000180000000     user32:USER32.dll
 0000:fffc4000       .debug$S                   0000000180000000     user32:USER32.dll
 0000:fffc4000       .debug$S                   0000000180000000     user32:USER32.dll
 0000:fffc4000       .debug$S                   0000000180000000     user32:USER32.dll
 0000:fffc4000       .debug$S                   0000000180000000     user32:USER32.dll
 0000:fffc4000       .debug$S                   0000000180000000     user32:USER32.dll
 0000:fffc4000       .debug$S                   0000000180000000     user32:USER32.dll
 0000:fffc4000       .debug$S                   0000000180000000     user32:USER32.dll
 0000:fffc4000       .debug$S                   0000000180000000     user32:USER32.dll
 0000:fffc4000       .debug$S                   0000000180000000     user32:USER32.dll
 0000:fffc4000       .debug$S                   0000000180000000     user32:USER32.dll
 0001:00000000       ??__E_AtlComModule@ATL@@YAXXZ 0000000180001000 f   OposVariant.obj
 0001:00000020       ??__E_AtlWinModule@ATL@@YAXXZ 0000000180001020 f   OposVariant.obj
 0001:00000040       ??__E?pConnMap@?$IConnectionPointContainerImpl@VCOPOSPINPad@@@ATL@@0PEBU_ATL_CONNMAP_ENTRY@2@EB@@YAXXZ 0000000180001040 f   PINPad.obj
 0001:00000058       ??__E_Module@@YAXXZ        0000000180001058 f   PINPad.obj
 0001:00000094       ??__E_AtlBaseModule@ATL@@YAXXZ 0000000180001094 f   atls:atlbase.obj
 0001:0000ea9c       ?__scrt_initialize_thread_safe_statics@@YAHXZ 000000018000fa9c f   LIBCMT:thread_safe_statics.obj
 0001:0000eb6c       ?__scrt_uninitialize_thread_safe_statics@@YAXXZ 000000018000fb6c f   LIBCMT:thread_safe_statics.obj
 0001:0000eebc       capture_current_context    000000018000febc f   LIBCMT:gs_report.obj
 0001:0000ef2c       capture_previous_context   000000018000ff2c f   LIBCMT:gs_report.obj
 0001:0000f0d0       $$000000                   00000001800100d0     LIBCMT:chkstk.obj
 0001:0000f140       $$000000                   0000000180010140     LIBCMT:amdsecgs.obj
 0001:0000f174       ?dllmain_crt_dispatch@@YAHQEAUHINSTANCE__@@KQEAX@Z 0000000180010174 f   LIBCMT:dll_dllmain.obj
 0001:0000f1c4       ?dllmain_crt_process_attach@@YAHQEAUHINSTANCE__@@QEAX@Z 00000001800101c4 f   LIBCMT:dll_dllmain.obj
 0001:0000f2dc       ?dllmain_crt_process_detach@@YAH_N@Z 00000001800102dc f   LIBCMT:dll_dllmain.obj
 0001:0000f360       ?dllmain_dispatch@@YAHQEAUHINSTANCE__@@KQEAX@Z 0000000180010360 f   LIBCMT:dll_dllmain.obj
 0001:0000fc28       ??$GetProcAddressAll@P6AP6A_JPEAUHWND__@@I_K_J@ZPEAUAtlThunkData_t@@@Z@@YAP6AP6A_JPEAUHWND__@@I_K_J@ZPEAUAtlThunkData_t@@@ZPEAP6AP6A_J0I12@Z3@Z@Z 0000000180010c28 f   atls:atlthunk.obj
 0001:0000fc28       ??$GetProcAddressAll@P6APEAUAtlThunkData_t@@XZ@@YAP6APEAUAtlThunkData_t@@XZPEAP6APEAU0@XZ@Z 0000000180010c28 f   atls:atlthunk.obj
 0001:0000fc28       ??$GetProcAddressAll@P6AXPEAUAtlThunkData_t@@@Z@@YAP6AXPEAUAtlThunkData_t@@@ZPEAP6AX0@Z@Z 0000000180010c28 f   atls:atlthunk.obj
 0001:0000fc28       ??$GetProcAddressAll@P6AXPEAUAtlThunkData_t@@PEAX_K@Z@@YAP6AXPEAUAtlThunkData_t@@PEAX_K@ZPEAP6AX012@Z@Z 0000000180010c28 f   atls:atlthunk.obj
 0001:0000fe00       ?__InitializeThunkPool@@YAHXZ 0000000180010e00 f   atls:atlthunk.obj
 0001:000102a0       $$000000                   00000001800112a0     libvcruntime:memcmp.obj
 0001:00010380       $$000000                   0000000180011380     libvcruntime:memcpy.obj
 0001:00010790       $$000000                   0000000180011790     libvcruntime:memset.obj
 0001:00011690       $$000000                   0000000180012690     libvcruntime:notify.obj
 0001:00011818       ??$BuildCatchObjectHelperInternal@V__FrameHandler3@@@@YAHPEAUEHExceptionRecord@@PEAXPEBU_s_HandlerType@@PEBU_s_CatchableType@@@Z 0000000180012818 f   libvcruntime:frame.obj
 0001:00011a18       ??$BuildCatchObjectInternal@V__FrameHandler3@@@@YAXPEAUEHExceptionRecord@@PEAXPEBU_s_HandlerType@@PEBU_s_CatchableType@@@Z 0000000180012a18 f   libvcruntime:frame.obj
 0001:00011ad8       ??$CatchIt@V__FrameHandler3@@@@YAXPEAUEHExceptionRecord@@PEA_KPEAU_CONTEXT@@PEAU_xDISPATCHER_CONTEXT@@PEBU_s_FuncInfo@@PEBU_s_HandlerType@@PEBU_s_CatchableType@@PEBU_s_TryBlockMapEntry@@H1EE@Z 0000000180012ad8 f   libvcruntime:frame.obj
 0001:00011bac       ??$FindHandler@V__FrameHandler3@@@@YAXPEAUEHExceptionRecord@@PEA_KPEAU_CONTEXT@@PEAU_xDISPATCHER_CONTEXT@@PEBU_s_FuncInfo@@EH1@Z 0000000180012bac f   libvcruntime:frame.obj
 0001:000120a4       ??$FindHandlerForForeignException@V__FrameHandler3@@@@YAXPEAUEHExceptionRecord@@PEA_KPEAU_CONTEXT@@PEAU_xDISPATCHER_CONTEXT@@PEBU_s_FuncInfo@@HH1@Z 00000001800130a4 f   libvcruntime:frame.obj
 0001:0001288c       ?ExFilterRethrow@@YAHPEAU_EXCEPTION_POINTERS@@PEAUEHExceptionRecord@@PEAH@Z 000000018001388c f   libvcruntime:frame.obj
 0001:00012b38       ?IsInExceptionSpec@@YAEPEAUEHExceptionRecord@@PEBU_s_ESTypeList@@@Z 0000000180013b38 f   libvcruntime:frame.obj
 0001:00012c28       ?Is_bad_exception_allowed@@YAEPEBU_s_ESTypeList@@@Z 0000000180013c28 f   libvcruntime:frame.obj
 0001:00012ccc       ?try_get_function@@YAPEAXW4function_id@?A0x81a78551@@QEBDQEBW4module_id@2@2@Z 0000000180013ccc f   libvcruntime:winapi_downlevel.obj
 0001:00012fc0       $$000000                   0000000180013fc0     libvcruntime:handlers.obj
 0001:000137d8       ??$common_vsprintf@Vformat_validation_base@__crt_stdio_output@@_W@@YAH_KQEA_W0QEB_WQEAU__crt_locale_pointers@@QEAD@Z 00000001800147d8 f   libucrt:output.obj
 0001:00015008       ??$?RV<lambda_d80eeec6fff315bfe5c115232f3240e3>@@AEAV<lambda_6e4b09c48022b2350581041d5f6b0c4c>@@V<lambda_2358e3775559c9db80273638284d5e45>@@@?$__crt_seh_guarded_call@X@@QEAAX$$QEAV<lambda_d80eeec6fff315bfe5c115232f3240e3>@@AEAV<lambda_6e4b09c48022b2350581041d5f6b0c4c>@@$$QEAV<lambda_2358e3775559c9db80273638284d5e45>@@@Z 0000000180016008 f   libucrt:exit.obj
 0001:00015040       ??R<lambda_6e4b09c48022b2350581041d5f6b0c4c>@@QEBA@XZ 0000000180016040 f   libucrt:exit.obj
 0001:00015104       ?atexit_exception_filter@@YAHK@Z 0000000180016104 f   libucrt:exit.obj
 0001:00015110       ?common_exit@@YAXHW4_crt_exit_cleanup_mode@@W4_crt_exit_return_mode@@@Z 0000000180016110 f   libucrt:exit.obj
 0001:000151cc       ?exit_or_terminate_process@@YAXI@Z 00000001800161cc f   libucrt:exit.obj
 0001:00015218       ?try_cor_exit_process@@YAXI@Z 0000000180016218 f   libucrt:exit.obj
 0001:000152a0       ??$parse_command_line@D@@YAXPEADPEAPEAD0PEA_K2@Z 00000001800162a0 f   libucrt:argv_parsing.obj
 0001:0001564c       ??$common_initialize_environment_nolock@D@@YAHXZ 000000018001664c f   libucrt:environment_initialization.obj
 0001:000156b8       ??$create_environment@D@@YAQEAPEADQEAD@Z 00000001800166b8 f   libucrt:environment_initialization.obj
 0001:000157c0       ??$free_environment@D@@YAXQEAPEAD@Z 00000001800167c0 f   libucrt:environment_initialization.obj
 0001:000157c0       ??$free_environment@_W@@YAXQEAPEA_W@Z 00000001800167c0 f   libucrt:environment_initialization.obj
 0001:00015804       ??$uninitialize_environment_internal@D@@YAXAEAPEAPEAD@Z 0000000180016804 f   libucrt:environment_initialization.obj
 0001:00015820       ??$uninitialize_environment_internal@_W@@YAXAEAPEAPEA_W@Z 0000000180016820 f   libucrt:environment_initialization.obj
 0001:0001587c       ??$?RV<lambda_638799b9deba96c50f710eeac98168cd>@@AEAV<lambda_22ebabd17bc4fa466a2aca6d8deb888d>@@V<lambda_a6f7d7db0129f75315ebf26d50c089f1>@@@?$__crt_seh_guarded_call@H@@QEAAH$$QEAV<lambda_638799b9deba96c50f710eeac98168cd>@@AEAV<lambda_22ebabd17bc4fa466a2aca6d8deb888d>@@$$QEAV<lambda_a6f7d7db0129f75315ebf26d50c089f1>@@@Z 000000018001687c f   libucrt:onexit.obj
 0001:000158b8       ??$?RV<lambda_7777bce6b2f8c936911f934f8298dc43>@@AEAV<lambda_f03950bc5685219e0bcd2087efbe011e>@@V<lambda_3883c3dff614d5e0c5f61bb1ac94921c>@@@?$__crt_seh_guarded_call@H@@QEAAH$$QEAV<lambda_7777bce6b2f8c936911f934f8298dc43>@@AEAV<lambda_f03950bc5685219e0bcd2087efbe011e>@@$$QEAV<lambda_3883c3dff614d5e0c5f61bb1ac94921c>@@@Z 00000001800168b8 f   libucrt:onexit.obj
 0001:000158f4       ??R<lambda_22ebabd17bc4fa466a2aca6d8deb888d>@@QEBAHXZ 00000001800168f4 f   libucrt:onexit.obj
 0001:00015aa4       ??R<lambda_f03950bc5685219e0bcd2087efbe011e>@@QEBAHXZ 0000000180016aa4 f   libucrt:onexit.obj
 0001:00015c78       initialize_global_variables 0000000180016c78 f   libucrt:initialization.obj
 0001:00015c8c       initialize_c               0000000180016c8c f   libucrt:initialization.obj
 0001:00015cb0       initialize_environment     0000000180016cb0 f   libucrt:initialization.obj
 0001:00015cb0       initialize_global_state_isolation 0000000180016cb0 f   libucrt:initialization.obj
 0001:00015cb0       report_memory_leaks        0000000180016cb0 f   libucrt:initialization.obj
 0001:00015cb0       uninitialize_c             0000000180016cb0 f   libucrt:initialization.obj
 0001:00015cb0       uninitialize_global_state_isolation 0000000180016cb0 f   libucrt:initialization.obj
 0001:00015cb4       uninitialize_environment   0000000180016cb4 f   libucrt:initialization.obj
 0001:00015cc4       initialize_pointers        0000000180016cc4 f   libucrt:initialization.obj
 0001:00015d04       uninitialize_vcruntime     0000000180016d04 f   libucrt:initialization.obj
 0001:00015d0c       uninitialize_allocated_memory 0000000180016d0c f   libucrt:initialization.obj
 0001:00015d4c       uninitialize_allocated_io_buffers 0000000180016d4c f   libucrt:initialization.obj
 0001:000166c0       $$000000                   00000001800176c0     libucrt:strncmp.obj
 0001:000167bc       ??$?RV<lambda_0ae27a3a962d80f24befdcbee591983d>@@AEAV<lambda_8d0ee55de4b1038c4002e0adecdf1839>@@V<lambda_dc504788e8f1664fe9b84e20bfb512f2>@@@?$__crt_seh_guarded_call@X@@QEAAX$$QEAV<lambda_0ae27a3a962d80f24befdcbee591983d>@@AEAV<lambda_8d0ee55de4b1038c4002e0adecdf1839>@@$$QEAV<lambda_dc504788e8f1664fe9b84e20bfb512f2>@@@Z 00000001800177bc f   libucrt:per_thread_data.obj
 0001:000167fc       ??$?RV<lambda_2d41944a1d46af3157314b8a01080d33>@@AEAV<lambda_8f455de75cd7d7f24b4096f044d8b9e6>@@V<lambda_aa500f224e6afead328df44964fe2772>@@@?$__crt_seh_guarded_call@X@@QEAAX$$QEAV<lambda_2d41944a1d46af3157314b8a01080d33>@@AEAV<lambda_8f455de75cd7d7f24b4096f044d8b9e6>@@$$QEAV<lambda_aa500f224e6afead328df44964fe2772>@@@Z 00000001800177fc f   libucrt:per_thread_data.obj
 0001:0001683c       ??$?RV<lambda_aa87e3671a710a21b5dc78c0bdf72e11>@@AEAV<lambda_92619d2358a28f41a33ba319515a20b9>@@V<lambda_6992ecaafeb10aed2b74cb1fae11a551>@@@?$__crt_seh_guarded_call@X@@QEAAX$$QEAV<lambda_aa87e3671a710a21b5dc78c0bdf72e11>@@AEAV<lambda_92619d2358a28f41a33ba319515a20b9>@@$$QEAV<lambda_6992ecaafeb10aed2b74cb1fae11a551>@@@Z 000000018001783c f   libucrt:per_thread_data.obj
 0001:00016884       ??$?RV<lambda_f2e299630e499de9f9a165e60fcd3db5>@@AEAV<lambda_2ae9d31cdba2644fcbeaf08da7c24588>@@V<lambda_40d01ff24d0e7b3814fdbdcee8eab3c7>@@@?$__crt_seh_guarded_call@X@@QEAAX$$QEAV<lambda_f2e299630e499de9f9a165e60fcd3db5>@@AEAV<lambda_2ae9d31cdba2644fcbeaf08da7c24588>@@$$QEAV<lambda_40d01ff24d0e7b3814fdbdcee8eab3c7>@@@Z 0000000180017884 f   libucrt:per_thread_data.obj
 0001:000168e4       ?construct_ptd_array@@YAXQEAU__acrt_ptd@@@Z 00000001800178e4 f   libucrt:per_thread_data.obj
 0001:000169b4       ?destroy_fls@@YAXPEAX@Z    00000001800179b4 f   libucrt:per_thread_data.obj
 0001:000169d4       ?destroy_ptd_array@@YAXQEAU__acrt_ptd@@@Z 00000001800179d4 f   libucrt:per_thread_data.obj
 0001:00016acc       ?replace_current_thread_locale_nolock@@YAXQEAU__acrt_ptd@@QEAU__crt_locale_data@@@Z 0000000180017acc f   libucrt:per_thread_data.obj
 0001:00016fb0       ?try_get_function@@YAPEAXW4function_id@?A0x391cf84c@@QEBDQEBW4module_id@2@2@Z 0000000180017fb0 f   libucrt:winapi_thunks.obj
 0001:00017980       ?fp_format_a@@YAHQEBNPEAD_KQEAD2H_NIQEAU__crt_locale_pointers@@@Z 0000000180018980 f   libucrt:cvt.obj
 0001:00017cf0       ?fp_format_e@@YAHQEBNQEAD_K12H_NIQEAU__crt_locale_pointers@@@Z 0000000180018cf0 f   libucrt:cvt.obj
 0001:00017dcc       ?fp_format_e_internal@@YAHQEAD_KH_NIQEAU_strflt@@2QEAU__crt_locale_pointers@@@Z 0000000180018dcc f   libucrt:cvt.obj
 0001:00017fa0       ?fp_format_f_internal@@YAHQEAD_KHQEAU_strflt@@_NQEAU__crt_locale_pointers@@@Z 0000000180018fa0 f   libucrt:cvt.obj
 0001:000180e4       ?fp_format_g@@YAHQEBNQEAD_K12H_NIQEAU__crt_locale_pointers@@@Z 00000001800190e4 f   libucrt:cvt.obj
 0001:000186f0       ??$?RV<lambda_410d79af7f07d98d83a3f525b3859a53>@@AEAV<lambda_3e16ef9562a7dcce91392c22ab16ea36>@@V<lambda_38119f0e861e05405d8a144b9b982f0a>@@@?$__crt_seh_guarded_call@X@@QEAAX$$QEAV<lambda_410d79af7f07d98d83a3f525b3859a53>@@AEAV<lambda_3e16ef9562a7dcce91392c22ab16ea36>@@$$QEAV<lambda_38119f0e861e05405d8a144b9b982f0a>@@@Z 00000001800196f0 f   libucrt:wsetlocale.obj
 0001:0001879c       ?initialize_inherited_file_handles_nolock@@YAXXZ 000000018001979c f   libucrt:ioinit.obj
 0001:0001888c       ?initialize_stdio_handles_nolock@@YAXXZ 000000018001988c f   libucrt:ioinit.obj
 0001:00018b08       ?<lambda_invoker_cdecl>@<lambda_a1ce4c8ae42411fd470c77163914f50e>@@CAHPEBX0@Z 0000000180019b08 f   libucrt:argv_wildcards.obj
 0001:00018e20       ??$common_expand_argv_wildcards@D@@YAHQEAPEADQEAPEAPEAD@Z 0000000180019e20 f   libucrt:argv_wildcards.obj
 0001:0001902c       ??$copy_and_add_argument_to_buffer@D@@YAHQEBD0_KAEAV?$argument_list@D@?A0x5f5c8891@@@Z 000000018001a02c f   libucrt:argv_wildcards.obj
 0001:000191b4       ??$expand_argument_wildcards@D@@YAHQEAD0AEAV?$argument_list@D@?A0x5f5c8891@@@Z 000000018001a1b4 f   libucrt:argv_wildcards.obj
 0001:00019700       ??$?RV<lambda_efdfa57d1f175319df784efa44bb7b81>@@AEAV<lambda_5f0a4c1567f8adc6734073e5d1e1b35c>@@V<lambda_2e8a7d3640ea6ccb4c2413664c2db6fd>@@@?$__crt_seh_guarded_call@X@@QEAAX$$QEAV<lambda_efdfa57d1f175319df784efa44bb7b81>@@AEAV<lambda_5f0a4c1567f8adc6734073e5d1e1b35c>@@$$QEAV<lambda_2e8a7d3640ea6ccb4c2413664c2db6fd>@@@Z 000000018001a700 f   libucrt:mbctype.obj
 0001:000198bc       ?getSystemCP@@YAHH@Z       000000018001a8bc f   libucrt:mbctype.obj
 0001:0001993c       ?setSBCS@@YAXPEAU__crt_multibyte_data@@@Z 000000018001a93c f   libucrt:mbctype.obj
 0001:000199cc       ?setSBUpLow@@YAXPEAU__crt_multibyte_data@@@Z 000000018001a9cc f   libucrt:mbctype.obj
 0001:00019bb0       ?setmbcp_internal@@YAHH_NQEAU__acrt_ptd@@QEAPEAU__crt_multibyte_data@@@Z 000000018001abb0 f   libucrt:mbctype.obj
 0001:00019d74       ?update_thread_multibyte_data_internal@@YAPEAU__crt_multibyte_data@@QEAU__acrt_ptd@@QEAPEAU1@@Z 000000018001ad74 f   libucrt:mbctype.obj
 0001:0001a164       ?x_ismbbtype_l@@YAHPEAU__crt_locale_pointers@@IHH@Z 000000018001b164 f   libucrt:ismbbyte.obj
 0001:0001a4f4       ??$?RV<lambda_450d765d439847d4c735a33c368b5fc0>@@AEAV<lambda_44731a7d0e6d81c3e6aa82d741081786>@@V<lambda_601a2a7da3b7a96e9554ac7215c4b07c>@@@?$__crt_seh_guarded_call@P6AXH@Z@@QEAAP6AXH@Z$$QEAV<lambda_450d765d439847d4c735a33c368b5fc0>@@AEAV<lambda_44731a7d0e6d81c3e6aa82d741081786>@@$$QEAV<lambda_601a2a7da3b7a96e9554ac7215c4b07c>@@@Z 000000018001b4f4 f   libucrt:signal.obj
 0001:0001a850       ??$?RV<lambda_842d9ff0dc9ef11c61343bbaebe7f885>@@AEAV<lambda_c5860995281e5c4ce005b3de8f5874ee>@@V<lambda_d90129c13df834fdcbf8d2b88dafcf2d>@@@?$__crt_seh_guarded_call@X@@QEAAX$$QEAV<lambda_842d9ff0dc9ef11c61343bbaebe7f885>@@AEAV<lambda_c5860995281e5c4ce005b3de8f5874ee>@@$$QEAV<lambda_d90129c13df834fdcbf8d2b88dafcf2d>@@@Z 000000018001b850 f   libucrt:fflush.obj
 0001:0001a8ec       ??$?RV<lambda_886d6c58226a84441f68b9f2b8217b83>@@AEAV<lambda_ab61a845afdef5b7c387490eaf3616ee>@@V<lambda_f7f22ab5edc0698d5f6905b0d3f44752>@@@?$__crt_seh_guarded_call@X@@QEAAX$$QEAV<lambda_886d6c58226a84441f68b9f2b8217b83>@@AEAV<lambda_ab61a845afdef5b7c387490eaf3616ee>@@$$QEAV<lambda_f7f22ab5edc0698d5f6905b0d3f44752>@@@Z 000000018001b8ec f   libucrt:fflush.obj
 0001:0001a9cc       ?common_flush_all@@YAH_N@Z 000000018001b9cc f   libucrt:fflush.obj
 0001:0001c9a0       memcpy_s                   000000018001d9a0 f   libucrt:cfout.obj
 0001:0001ccf4       ?free_crt_array_internal@@YAXQEAPEBX_K@Z 000000018001dcf4 f   libucrt:inittime.obj
 0001:0001d794       fallbackMethod             000000018001e794 f   libucrt:strpbrk.obj
 0001:0001db64       $LN78                      000000018001eb64     libucrt:strpbrk.obj
 0001:0001dba0       $LN77                      000000018001eba0     libucrt:strpbrk.obj
 0001:0001dbe0       $LN76                      000000018001ebe0     libucrt:strpbrk.obj
 0001:0001dcbc       ?__acrt_LCMapStringA_stat@@YAHPEAU__crt_locale_pointers@@PEB_WKPEBDHPEADHHH@Z 000000018001ecbc f   libucrt:lcmapstringa.obj
 0001:0001e06c       ?initialize_multibyte@@YAHXZ 000000018001f06c f   libucrt:multibyte_initializer.obj
 0001:0001e084       ??$?RV<lambda_a37b2b86f63e897a80ea819b0eb08c01>@@AEAV<lambda_38ce7e780aa69e748d6df282ebc68efe>@@V<lambda_99fb1378e971ab6e7edea83e3a7a83a2>@@@?$__crt_seh_guarded_call@H@@QEAAH$$QEAV<lambda_a37b2b86f63e897a80ea819b0eb08c01>@@AEAV<lambda_38ce7e780aa69e748d6df282ebc68efe>@@$$QEAV<lambda_99fb1378e971ab6e7edea83e3a7a83a2>@@@Z 000000018001f084 f   libucrt:commit.obj
 0001:0001e1a4       ?write_double_translated_ansi_nolock@@YA?AUwrite_result@?A0x17268360@@HQEBDI@Z 000000018001f1a4 f   libucrt:write.obj
 0001:0001e674       ?write_text_ansi_nolock@@YA?AUwrite_result@?A0x17268360@@HQEBDI@Z 000000018001f674 f   libucrt:write.obj
 0001:0001e778       ?write_text_utf16le_nolock@@YA?AUwrite_result@?A0x17268360@@HQEBDI@Z 000000018001f778 f   libucrt:write.obj
 0001:0001e894       ?write_text_utf8_nolock@@YA?AUwrite_result@?A0x17268360@@HQEBDI@Z 000000018001f894 f   libucrt:write.obj
 0001:0001f180       $$000000                   0000000180020180     libucrt:log10.obj
 0001:0001f72c       ??$common_lseek_nolock@_J@@YA_JH_JH@Z 000000018002072c f   libucrt:lseek.obj
 0001:0001fc98       _call_matherr              0000000180020c98 f   libucrt:libm_error.obj
 0001:0001fd00       _exception_enabled         0000000180020d00 f   libucrt:libm_error.obj
 0001:0001ff90       _log_special_common        0000000180020f90 f   libucrt:log_special.obj
 0001:00020028       ??$?RV<lambda_751a882b2c74d4b022dec766aa51a29a>@@AEAV<lambda_628dfdc04ba53c8bfc02c9951375f3f5>@@V<lambda_f6c7be5f7998530c34de24c7437d6b54>@@@?$__crt_seh_guarded_call@H@@QEAAH$$QEAV<lambda_751a882b2c74d4b022dec766aa51a29a>@@AEAV<lambda_628dfdc04ba53c8bfc02c9951375f3f5>@@$$QEAV<lambda_f6c7be5f7998530c34de24c7437d6b54>@@@Z 0000000180021028 f   libucrt:close.obj
 0001:00020350       $$000000                   0000000180021350     libucrt:fpsr.obj
 0001:000209f0       $$000000                   00000001800219f0     LIBCMT:guard_dispatch.obj
 0001:00020a10       ?filt$0@?0??_AtlVerifyStackAvailable@_ATL_SAFE_ALLOCA_IMPL@ATL@@YA_N_K@Z@4HA 0000000180021a10 f   PINPad.obj
 0001:00020a31       __scrt_is_nonwritable_in_current_image$filt$0 0000000180021a31 f   LIBCMT:utility.obj
 0001:00020a49       ?catch$0@?0???2@YAPEAX_KAEBUnothrow_t@std@@@Z@4HA 0000000180021a49 f   LIBCMT:new_scalar_nothrow.obj
 0001:00020a56       __catch$??2@YAPEAX_KAEBUnothrow_t@std@@@Z$0 0000000180021a56 f   LIBCMT:new_scalar_nothrow.obj
 0001:00020a64       ?fin$0@?0??dllmain_crt_process_attach@@YAHQEAUHINSTANCE__@@QEAX@Z@4HA 0000000180021a64 f   LIBCMT:dll_dllmain.obj
 0001:00020a7b       ?fin$0@?0??dllmain_crt_process_detach@@YAH_N@Z@4HA 0000000180021a7b f   LIBCMT:dll_dllmain.obj
 0001:00020a94       ?fin$1@?0??dllmain_crt_process_detach@@YAH_N@Z@4HA 0000000180021a94 f   LIBCMT:dll_dllmain.obj
 0001:00020aa8       ?filt$0@?0??dllmain_dispatch@@YAHQEAUHINSTANCE__@@KQEAX@Z@4HA 0000000180021aa8 f   LIBCMT:dll_dllmain.obj
 0001:00020ade       ?filt$0@?0???$_CallSETranslator@V__FrameHandler3@@@@YAHPEAUEHExceptionRecord@@PEA_KPEAU_CONTEXT@@PEAU_xDISPATCHER_CONTEXT@@PEBU_s_FuncInfo@@K1@Z@4HA 0000000180021ade f   libvcruntime:risctrnsctrl.obj
 0001:00020b6f       __DestructExceptionObject$filt$0 0000000180021b6f f   libvcruntime:ehhelpers.obj
 0001:00020c05       ?filt$0@?0??CxxCallCatchBlock@__FrameHandler3@@SAPEAXPEAU_EXCEPTION_RECORD@@@Z@4HA 0000000180021c05 f   libvcruntime:frame.obj
 0001:00020c2a       ?fin$1@?0??CxxCallCatchBlock@__FrameHandler3@@SAPEAXPEAU_EXCEPTION_RECORD@@@Z@4HA 0000000180021c2a f   libvcruntime:frame.obj
 0001:00020ca2       ?filt$0@?0??FrameUnwindToState@__FrameHandler3@@SAXPEA_KPEAU_xDISPATCHER_CONTEXT@@PEBU_s_FuncInfo@@H@Z@4HA 0000000180021ca2 f   libvcruntime:frame.obj
 0001:00020cb8       ?fin$1@?0??FrameUnwindToState@__FrameHandler3@@SAXPEA_KPEAU_xDISPATCHER_CONTEXT@@PEBU_s_FuncInfo@@H@Z@4HA 0000000180021cb8 f   libvcruntime:frame.obj
 0001:00020cdb       ?fin$0@?0???$?RV<lambda_0ae27a3a962d80f24befdcbee591983d>@@AEAV<lambda_8d0ee55de4b1038c4002e0adecdf1839>@@V<lambda_dc504788e8f1664fe9b84e20bfb512f2>@@@?$__crt_seh_guarded_call@X@@QEAAX$$QEAV<lambda_0ae27a3a962d80f24befdcbee591983d>@@AEAV<lambda_8d0ee55de4b1038c4002e0adecdf1839>@@$$QEAV<lambda_dc504788e8f1664fe9b84e20bfb512f2>@@@Z@4HA 0000000180021cdb f   libucrt:per_thread_data.obj
 0001:00020cdb       ?fin$0@?0???$?RV<lambda_2d41944a1d46af3157314b8a01080d33>@@AEAV<lambda_8f455de75cd7d7f24b4096f044d8b9e6>@@V<lambda_aa500f224e6afead328df44964fe2772>@@@?$__crt_seh_guarded_call@X@@QEAAX$$QEAV<lambda_2d41944a1d46af3157314b8a01080d33>@@AEAV<lambda_8f455de75cd7d7f24b4096f044d8b9e6>@@$$QEAV<lambda_aa500f224e6afead328df44964fe2772>@@@Z@4HA 0000000180021cdb f   libucrt:per_thread_data.obj
 0001:00020cdb       ?fin$0@?0???$?RV<lambda_aa87e3671a710a21b5dc78c0bdf72e11>@@AEAV<lambda_92619d2358a28f41a33ba319515a20b9>@@V<lambda_6992ecaafeb10aed2b74cb1fae11a551>@@@?$__crt_seh_guarded_call@X@@QEAAX$$QEAV<lambda_aa87e3671a710a21b5dc78c0bdf72e11>@@AEAV<lambda_92619d2358a28f41a33ba319515a20b9>@@$$QEAV<lambda_6992ecaafeb10aed2b74cb1fae11a551>@@@Z@4HA 0000000180021cdb f   libucrt:per_thread_data.obj
 0001:00020cdb       ?fin$0@?0???$?RV<lambda_f2e299630e499de9f9a165e60fcd3db5>@@AEAV<lambda_2ae9d31cdba2644fcbeaf08da7c24588>@@V<lambda_40d01ff24d0e7b3814fdbdcee8eab3c7>@@@?$__crt_seh_guarded_call@X@@QEAAX$$QEAV<lambda_f2e299630e499de9f9a165e60fcd3db5>@@AEAV<lambda_2ae9d31cdba2644fcbeaf08da7c24588>@@$$QEAV<lambda_40d01ff24d0e7b3814fdbdcee8eab3c7>@@@Z@4HA 0000000180021cdb f   libucrt:per_thread_data.obj
 0001:00020cdb       ?fin$0@?0???$?RV<lambda_efdfa57d1f175319df784efa44bb7b81>@@AEAV<lambda_5f0a4c1567f8adc6734073e5d1e1b35c>@@V<lambda_2e8a7d3640ea6ccb4c2413664c2db6fd>@@@?$__crt_seh_guarded_call@X@@QEAAX$$QEAV<lambda_efdfa57d1f175319df784efa44bb7b81>@@AEAV<lambda_5f0a4c1567f8adc6734073e5d1e1b35c>@@$$QEAV<lambda_2e8a7d3640ea6ccb4c2413664c2db6fd>@@@Z@4HA 0000000180021cdb f   libucrt:mbctype.obj
 0001:00020cdb       ?fin$0@?0???$?RV<lambda_450d765d439847d4c735a33c368b5fc0>@@AEAV<lambda_44731a7d0e6d81c3e6aa82d741081786>@@V<lambda_601a2a7da3b7a96e9554ac7215c4b07c>@@@?$__crt_seh_guarded_call@P6AXH@Z@@QEAAP6AXH@Z$$QEAV<lambda_450d765d439847d4c735a33c368b5fc0>@@AEAV<lambda_44731a7d0e6d81c3e6aa82d741081786>@@$$QEAV<lambda_601a2a7da3b7a96e9554ac7215c4b07c>@@@Z@4HA 0000000180021cdb f   libucrt:signal.obj
 0001:00020cdb       ?fin$0@?0???$?RV<lambda_d80eeec6fff315bfe5c115232f3240e3>@@AEAV<lambda_6e4b09c48022b2350581041d5f6b0c4c>@@V<lambda_2358e3775559c9db80273638284d5e45>@@@?$__crt_seh_guarded_call@X@@QEAAX$$QEAV<lambda_d80eeec6fff315bfe5c115232f3240e3>@@AEAV<lambda_6e4b09c48022b2350581041d5f6b0c4c>@@$$QEAV<lambda_2358e3775559c9db80273638284d5e45>@@@Z@4HA 0000000180021cdb f   libucrt:exit.obj
 0001:00020cdb       ?fin$0@?0???$?RV<lambda_638799b9deba96c50f710eeac98168cd>@@AEAV<lambda_22ebabd17bc4fa466a2aca6d8deb888d>@@V<lambda_a6f7d7db0129f75315ebf26d50c089f1>@@@?$__crt_seh_guarded_call@H@@QEAAH$$QEAV<lambda_638799b9deba96c50f710eeac98168cd>@@AEAV<lambda_22ebabd17bc4fa466a2aca6d8deb888d>@@$$QEAV<lambda_a6f7d7db0129f75315ebf26d50c089f1>@@@Z@4HA 0000000180021cdb f   libucrt:onexit.obj
 0001:00020cdb       ?fin$0@?0???$?RV<lambda_7777bce6b2f8c936911f934f8298dc43>@@AEAV<lambda_f03950bc5685219e0bcd2087efbe011e>@@V<lambda_3883c3dff614d5e0c5f61bb1ac94921c>@@@?$__crt_seh_guarded_call@H@@QEAAH$$QEAV<lambda_7777bce6b2f8c936911f934f8298dc43>@@AEAV<lambda_f03950bc5685219e0bcd2087efbe011e>@@$$QEAV<lambda_3883c3dff614d5e0c5f61bb1ac94921c>@@@Z@4HA 0000000180021cdb f   libucrt:onexit.obj
 0001:00020cf5       ?filt$0@?0???R<lambda_6e4b09c48022b2350581041d5f6b0c4c>@@QEBA@XZ@4HA 0000000180021cf5 f   libucrt:exit.obj
 0001:00020d10       _query_new_handler$fin$0   0000000180021d10 f   libucrt:new_handler.obj
 0001:00020d26       ?fin$0@?0???$?RV<lambda_410d79af7f07d98d83a3f525b3859a53>@@AEAV<lambda_3e16ef9562a7dcce91392c22ab16ea36>@@V<lambda_38119f0e861e05405d8a144b9b982f0a>@@@?$__crt_seh_guarded_call@X@@QEAAX$$QEAV<lambda_410d79af7f07d98d83a3f525b3859a53>@@AEAV<lambda_3e16ef9562a7dcce91392c22ab16ea36>@@$$QEAV<lambda_38119f0e861e05405d8a144b9b982f0a>@@@Z@4HA 0000000180021d26 f   libucrt:wsetlocale.obj
 0001:00020d40       __acrt_initialize_lowio$fin$0 0000000180021d40 f   libucrt:ioinit.obj
 0001:00020d40       __acrt_lowio_ensure_fh_exists$fin$0 0000000180021d40 f   libucrt:osfinfo.obj
 0001:00020d59       ?fin$0@?0??update_thread_multibyte_data_internal@@YAPEAU__crt_multibyte_data@@QEAU__acrt_ptd@@QEAPEAU1@@Z@4HA 0000000180021d59 f   libucrt:mbctype.obj
 0001:00020d72       raise$fin$0                0000000180021d72 f   libucrt:signal.obj
 0001:00020d93       ?fin$0@?0???$?RV<lambda_842d9ff0dc9ef11c61343bbaebe7f885>@@AEAV<lambda_c5860995281e5c4ce005b3de8f5874ee>@@V<lambda_d90129c13df834fdcbf8d2b88dafcf2d>@@@?$__crt_seh_guarded_call@X@@QEAAX$$QEAV<lambda_842d9ff0dc9ef11c61343bbaebe7f885>@@AEAV<lambda_c5860995281e5c4ce005b3de8f5874ee>@@$$QEAV<lambda_d90129c13df834fdcbf8d2b88dafcf2d>@@@Z@4HA 0000000180021d93 f   libucrt:fflush.obj
 0001:00020dae       ?fin$0@?0???$?RV<lambda_886d6c58226a84441f68b9f2b8217b83>@@AEAV<lambda_ab61a845afdef5b7c387490eaf3616ee>@@V<lambda_f7f22ab5edc0698d5f6905b0d3f44752>@@@?$__crt_seh_guarded_call@X@@QEAAX$$QEAV<lambda_886d6c58226a84441f68b9f2b8217b83>@@AEAV<lambda_ab61a845afdef5b7c387490eaf3616ee>@@$$QEAV<lambda_f7f22ab5edc0698d5f6905b0d3f44752>@@@Z@4HA 0000000180021dae f   libucrt:fflush.obj
 0001:00020dcb       __acrt_update_thread_locale_data$fin$0 0000000180021dcb f   libucrt:locale_refcounting.obj
 0001:00020de4       _fcloseall$fin$0           0000000180021de4 f   libucrt:closeall.obj
 0001:00020dfd       ?fin$0@?0???$?RV<lambda_751a882b2c74d4b022dec766aa51a29a>@@AEAV<lambda_628dfdc04ba53c8bfc02c9951375f3f5>@@V<lambda_f6c7be5f7998530c34de24c7437d6b54>@@@?$__crt_seh_guarded_call@H@@QEAAH$$QEAV<lambda_751a882b2c74d4b022dec766aa51a29a>@@AEAV<lambda_628dfdc04ba53c8bfc02c9951375f3f5>@@$$QEAV<lambda_f6c7be5f7998530c34de24c7437d6b54>@@@Z@4HA 0000000180021dfd f   libucrt:close.obj
 0001:00020dfd       ?fin$0@?0???$?RV<lambda_a37b2b86f63e897a80ea819b0eb08c01>@@AEAV<lambda_38ce7e780aa69e748d6df282ebc68efe>@@V<lambda_99fb1378e971ab6e7edea83e3a7a83a2>@@@?$__crt_seh_guarded_call@H@@QEAAH$$QEAV<lambda_a37b2b86f63e897a80ea819b0eb08c01>@@AEAV<lambda_38ce7e780aa69e748d6df282ebc68efe>@@$$QEAV<lambda_99fb1378e971ab6e7edea83e3a7a83a2>@@@Z@4HA 0000000180021dfd f   libucrt:commit.obj
 0001:00020e17       _write$fin$0               0000000180021e17 f   libucrt:write.obj
 0001:00020e2e       fclose$fin$0               0000000180021e2e f   libucrt:fclose.obj
 0001:00020e46       _ctrlfp$filt$0             0000000180021e46 f   libucrt:fpctrl.obj
 0001:00020e80       _IsNonwritableInCurrentImage$filt$0 0000000180021e80 f   LIBCMT:pesect.obj
 0001:00020ea0       ??__F_AtlComModule@ATL@@YAXXZ 0000000180021ea0 f   OposVariant.obj
 0001:00020eac       ??__F_AtlWinModule@ATL@@YAXXZ 0000000180021eac f   OposVariant.obj
 0001:00020ef0       ??__F_Module@@YAXXZ        0000000180021ef0 f   PINPad.obj
 0001:00020f0c       ??__F_AtlBaseModule@ATL@@YAXXZ 0000000180021f0c f   atls:atlbase.obj
 0002:00000630       ?_AtlBaseModule$initializer$@ATL@@3P6AXXZEA 0000000180022630     atls:atlbase.obj
 0002:00000638       ?_AtlComModule$initializer$@ATL@@3P6AXXZEA 0000000180022638     OposVariant.obj
 0002:00000640       ?_AtlWinModule$initializer$@ATL@@3P6AXXZEA 0000000180022640     OposVariant.obj
 0002:00000648       ?_Module$initializer$@@3P6AXXZEA 0000000180022648     PINPad.obj
 0002:00000650       ??pConnMap$initializer$@?$IConnectionPointContainerImpl@VCOPOSPINPad@@@ATL@@0P6AXXZEA@@3P6AXXZEA 0000000180022650     PINPad.obj
 0002:00000668       ?__scrt_initialize_tss_var@@3P6AHXZEA 0000000180022668     LIBCMT:thread_safe_statics.obj
 0002:00002908       GS_ExceptionPointers       0000000180024908     LIBCMT:gs_report.obj
 0002:00002918       $cppxdata$??2@YAPEAX_KAEBUnothrow_t@std@@@Z 0000000180024918     LIBCMT:new_scalar_nothrow.obj
 0002:00002af0       ?ExceptionTemplate@?1??UnwindNestedFrames@__FrameHandler3@@SAXPEA_KPEAUEHExceptionRecord@@PEAU_CONTEXT@@0PEAXPEBU_s_FuncInfo@@HHPEBU_s_HandlerType@@PEAU_xDISPATCHER_CONTEXT@@E@Z@4U_EXCEPTION_RECORD@@B 0000000180024af0     libvcruntime:risctrnsctrl.obj
 0002:00002bc0       ?tokenTable@@3QBUStringLiteral@@B 0000000180024bc0     libvcruntime:undname.obj
 0002:00002cc0       ?nameTable@@3QBUStringLiteral@@B 0000000180024cc0     libvcruntime:undname.obj
 0002:000031f0       ?rttiTable@@3QBUStringLiteral@@B 00000001800251f0     libvcruntime:undname.obj
 0002:00003240       ?IndirectionName@@3QBUStringLiteral@@B 0000000180025240     libvcruntime:undname.obj
 0002:000032a0       ?PrefixName@@3QBUStringLiteral@@B 00000001800252a0     libvcruntime:undname.obj
 0002:00003978       ?module_names@?A0x81a78551@@3QBQEB_WB 0000000180025978     libvcruntime:winapi_downlevel.obj
 0002:00003a38       ?candidate_modules@?1??try_get_FlsAlloc@@YAP6AKP6AXPEAX@Z@ZXZ@4QBW4module_id@?A0x81a78551@@B 0000000180025a38     libvcruntime:winapi_downlevel.obj
 0002:00003a50       ?candidate_modules@?1??try_get_FlsFree@@YAP6AHK@ZXZ@4QBW4module_id@?A0x81a78551@@B 0000000180025a50     libvcruntime:winapi_downlevel.obj
 0002:00003a60       ?candidate_modules@?1??try_get_FlsGetValue@@YAP6APEAXK@ZXZ@4QBW4module_id@?A0x81a78551@@B 0000000180025a60     libvcruntime:winapi_downlevel.obj
 0002:00003a78       ?candidate_modules@?1??try_get_FlsSetValue@@YAP6AHKPEAX@ZXZ@4QBW4module_id@?A0x81a78551@@B 0000000180025a78     libvcruntime:winapi_downlevel.obj
 0002:00003a90       ?candidate_modules@?1??try_get_InitializeCriticalSectionEx@@YAP6AHPEAU_RTL_CRITICAL_SECTION@@KK@ZXZ@4QBW4module_id@?A0x81a78551@@B 0000000180025a90     libvcruntime:winapi_downlevel.obj
 0002:00003ac0       ?errtable@@3QBUerrentry@?A0x31fdb9ec@@B 0000000180025ac0     libucrt:errno.obj
 0002:00003db0       __acrt_initializers        0000000180025db0     libucrt:initialization.obj
 0002:00003eb0       ?module_names@?A0x391cf84c@@3QBQEB_WB 0000000180025eb0     libucrt:winapi_thunks.obj
 0002:000043b8       ?candidate_modules@?1??try_get_AreFileApisANSI@@YAP6AHXZXZ@4QBW4module_id@?A0x391cf84c@@B 00000001800263b8     libucrt:winapi_thunks.obj
 0002:000043d0       ?candidate_modules@?1??try_get_FlsAlloc@@YAP6AKP6AXPEAX@Z@ZXZ@4QBW4module_id@?A0x391cf84c@@B 00000001800263d0     libucrt:winapi_thunks.obj
 0002:000043d8       ?candidate_modules@?1??try_get_FlsFree@@YAP6AHK@ZXZ@4QBW4module_id@?A0x391cf84c@@B 00000001800263d8     libucrt:winapi_thunks.obj
 0002:000043e0       ?candidate_modules@?1??try_get_FlsGetValue@@YAP6APEAXK@ZXZ@4QBW4module_id@?A0x391cf84c@@B 00000001800263e0     libucrt:winapi_thunks.obj
 0002:000043e8       ?candidate_modules@?1??try_get_FlsSetValue@@YAP6AHKPEAX@ZXZ@4QBW4module_id@?A0x391cf84c@@B 00000001800263e8     libucrt:winapi_thunks.obj
 0002:000043f0       ?candidate_modules@?1??try_get_InitializeCriticalSectionEx@@YAP6AHPEAU_RTL_CRITICAL_SECTION@@KK@ZXZ@4QBW4module_id@?A0x391cf84c@@B 00000001800263f0     libucrt:winapi_thunks.obj
 0002:000043f8       ?candidate_modules@?1??try_get_LCMapStringEx@@YAP6AHPEB_WK0HPEA_WHPEAU_nlsversioninfo@@PEAX_J@ZXZ@4QBW4module_id@?A0x391cf84c@@B 00000001800263f8     libucrt:winapi_thunks.obj
 0002:00004410       ?candidate_modules@?1??try_get_LocaleNameToLCID@@YAP6AKPEB_WK@ZXZ@4QBW4module_id@?A0x391cf84c@@B 0000000180026410     libucrt:winapi_thunks.obj
 0002:0000442c       ?candidate_modules@?1??try_get_AppPolicyGetProcessTerminationMethod@@YAP6AJPEAXPEAW4AppPolicyProcessTerminationMethod@@@ZXZ@4QBW4module_id@?A0x391cf84c@@B 000000018002642c     libucrt:winapi_thunks.obj
 0002:00004458       ?candidate_modules@?1??try_get_SetThreadStackGuarantee@@YAP6AHPEAK@ZXZ@4QBW4module_id@?A0x391cf84c@@B 0000000180026458     libucrt:winapi_thunks.obj
 0002:00004480       ?strings@?1??fp_format_nan_or_infinity@@YAHW4__acrt_fp_class@@_NPEAD_K1@Z@4QAY03QEBDA 0000000180026480     libucrt:cvt.obj
 0002:00004be0       ?_mb_locale_names@@3QBQEB_WB 0000000180026be0     libucrt:mbctype.obj
 0002:00005450       ?LcidToLocaleNameTable@?A0x881e4c05@@3QBULcidToLocaleName@1@B 0000000180027450     libucrt:lcidtoname_downlevel.obj
 0002:00006eb0       ?LocaleNameToIndexTable@?A0x881e4c05@@3QBULocaleNameIndex@1@B 0000000180028eb0     libucrt:lcidtoname_downlevel.obj
 0002:00009060       ?large_power_indices@?1??multiply_by_power_of_ten@__crt_strtox@@YA_NAEAUbig_integer@2@I@Z@4QBUunpack_index@?1??12@YA_N0I@Z@B 000000018002b060     libucrt:cfout.obj
 0002:00009150       __real_ninf                000000018002b150     libucrt:log10.obj
 0002:00009160       __real_inf                 000000018002b160     libucrt:log10.obj
 0002:00009170       __real_neg_qnan            000000018002b170     libucrt:log10.obj
 0002:00009180       __real_qnanbit             000000018002b180     libucrt:log10.obj
 0002:00009190       __int_1023                 000000018002b190     libucrt:log10.obj
 0002:000091a0       __mask_001                 000000018002b1a0     libucrt:log10.obj
 0002:000091b0       __mask_mant                000000018002b1b0     libucrt:log10.obj
 0002:000091c0       __mask_mant_top8           000000018002b1c0     libucrt:log10.obj
 0002:000091d0       __mask_mant9               000000018002b1d0     libucrt:log10.obj
 0002:000091e0       __real_log10_e             000000018002b1e0     libucrt:log10.obj
 0002:000091f0       __real_log10_e_lead        000000018002b1f0     libucrt:log10.obj
 0002:00009200       __real_log10_e_tail        000000018002b200     libucrt:log10.obj
 0002:00009210       __real_log10_2_lead        000000018002b210     libucrt:log10.obj
 0002:00009220       __real_log10_2_tail        000000018002b220     libucrt:log10.obj
 0002:00009230       __real_two                 000000018002b230     libucrt:log10.obj
 0002:00009240       __real_one                 000000018002b240     libucrt:log10.obj
 0002:00009250       __real_half                000000018002b250     libucrt:log10.obj
 0002:00009260       __mask_100                 000000018002b260     libucrt:log10.obj
 0002:00009270       __real_1_over_512          000000018002b270     libucrt:log10.obj
 0002:00009280       __real_1_over_2            000000018002b280     libucrt:log10.obj
 0002:00009290       __real_1_over_3            000000018002b290     libucrt:log10.obj
 0002:000092a0       __real_1_over_4            000000018002b2a0     libucrt:log10.obj
 0002:000092b0       __real_1_over_5            000000018002b2b0     libucrt:log10.obj
 0002:000092c0       __real_1_over_6            000000018002b2c0     libucrt:log10.obj
 0002:000092d0       __real_neg_1023            000000018002b2d0     libucrt:log10.obj
 0002:000092e0       __mask_2045                000000018002b2e0     libucrt:log10.obj
 0002:000092f0       __real_threshold           000000018002b2f0     libucrt:log10.obj
 0002:00009300       __real_near_one_lt         000000018002b300     libucrt:log10.obj
 0002:00009310       __real_near_one_gt         000000018002b310     libucrt:log10.obj
 0002:00009320       __real_min_norm            000000018002b320     libucrt:log10.obj
 0002:00009330       __real_notsign             000000018002b330     libucrt:log10.obj
 0002:00009340       __real_ca1                 000000018002b340     libucrt:log10.obj
 0002:00009350       __real_ca2                 000000018002b350     libucrt:log10.obj
 0002:00009360       __real_ca3                 000000018002b360     libucrt:log10.obj
 0002:00009370       __real_ca4                 000000018002b370     libucrt:log10.obj
 0002:00009380       __mask_lower               000000018002b380     libucrt:log10.obj
 0002:00009390       __flag_x_zero              000000018002b390     libucrt:log10.obj
 0002:00009394       __flag_x_neg               000000018002b394     libucrt:log10.obj
 0002:00009398       __flag_x_nan               000000018002b398     libucrt:log10.obj
 0002:0000abf0       __real@433fffffffffffff    000000018002cbf0     libucrt:fpsr.obj
 0002:0000abf8       __real@c33fffffffffffff    000000018002cbf8     libucrt:fpsr.obj
 0002:0000b438       $unwind$?cw_memcpy@@YAHPEA_WPEBDH@Z 000000018002d438     CWString.obj
 0002:0000b438       $unwind$?ProcessWindowMessage@?$CComControl@VCOPOSPINPad@@V?$CWindowImpl@VCOPOSPINPad@@VCWindow@ATL@@V?$CWinTraits@$0FGAAAAAA@$0A@@3@@ATL@@@ATL@@UEAAHPEAUHWND__@@I_K_JAEA_JK@Z 000000018002d438     PINPad.obj
 0002:0000b438       $unwind$wcstol             000000018002d438     libucrt:strtox.obj
 0002:0000b438       $unwind$_invalid_parameter_noinfo 000000018002d438     libucrt:invalid_parameter.obj
 0002:0000b438       $unwind$_log10_special     000000018002d438     libucrt:log_special.obj
 0002:0000b440       $unwind$?cw_strcpy@@YAHPEA_WPEBD@Z 000000018002d440     CWString.obj
 0002:0000b440       $unwind$??1OposDispParms@@QEAA@XZ 000000018002d440     OposVariant.obj
 0002:0000b440       $unwind$??__E_AtlComModule@ATL@@YAXXZ 000000018002d440     OposVariant.obj
 0002:0000b440       $unwind$??__E_AtlWinModule@ATL@@YAXXZ 000000018002d440     OposVariant.obj
 0002:0000b440       $unwind$??__F_AtlWinModule@ATL@@YAXXZ 000000018002d440     OposVariant.obj
 0002:0000b440       $unwind$?GetLONG@OposVariant@@QEAAJXZ 000000018002d440     OposVariant.obj
 0002:0000b440       $unwind$??__E?pConnMap@?$IConnectionPointContainerImpl@VCOPOSPINPad@@@ATL@@0PEBU_ATL_CONNMAP_ENTRY@2@EB@@YAXXZ 000000018002d440     PINPad.obj
 0002:0000b440       $unwind$?AddReplacement@CRegObject@ATL@@UEAAJPEB_W0@Z 000000018002d440     PINPad.obj
 0002:0000b440       $unwind$?AtlHresultFromLastError@ATL@@YAJXZ 000000018002d440     PINPad.obj
 0002:0000b440       $unwind$?AtlThrowImpl@ATL@@YAXJ@Z 000000018002d440     PINPad.obj
 0002:0000b440       $unwind$?CreateInstance@CComClassFactory@ATL@@UEAAJPEAUIUnknown@@AEBU_GUID@@PEAPEAX@Z 000000018002d440     PINPad.obj
 0002:0000b440       $unwind$?DefaultReflectionHandler@?$CWindowImplRoot@VCWindow@ATL@@@ATL@@SAHPEAUHWND__@@I_K_JAEA_J@Z 000000018002d440     PINPad.obj
 0002:0000b440       $unwind$?EnumAdvise@?$IOleObjectImpl@VCOPOSPINPad@@@ATL@@UEAAJPEAPEAUIEnumSTATDATA@@@Z 000000018002d440     PINPad.obj
 0002:0000b440       $unwind$?FireViewChange@CComControlBase@ATL@@QEAAJXZ 000000018002d440     PINPad.obj
 0002:0000b440       $unwind$?GetAdvise@?$IViewObjectExImpl@VCOPOSPINPad@@@ATL@@UEAAJPEAK0PEAPEAUIAdviseSink@@@Z 000000018002d440     PINPad.obj
 0002:0000b440       $unwind$?LockServer@CComClassFactory@ATL@@UEAAJH@Z 000000018002d440     PINPad.obj
 0002:0000b440       $unwind$?OnDocWindowActivate@?$IOleInPlaceActiveObjectImpl@VCOPOSPINPad@@@ATL@@UEAAJH@Z 000000018002d440     PINPad.obj
 0002:0000b440       $unwind$?Unadvise@?$IOleObjectImpl@VCOPOSPINPad@@@ATL@@UEAAJK@Z 000000018002d440     PINPad.obj
 0002:0000b440       $unwind$?_LocCPQueryInterface@?$IConnectionPointImpl@VCOPOSPINPad@@$1?DIID__IOPOSPINPadEvents@@3U_GUID@@BVCComDynamicUnkArray@ATL@@@ATL@@UEAAJAEBU_GUID@@PEAPEAX@Z 000000018002d440     PINPad.obj
 0002:0000b440       $unwind$?_LocCPQueryInterface@?$IConnectionPointImpl@VCOPOSPINPad@@$1?IID_IPropertyNotifySink@@3U_GUID@@BVCComDynamicUnkArray@ATL@@@ATL@@UEAAJAEBU_GUID@@PEAPEAX@Z 000000018002d440     PINPad.obj
 0002:0000b440       $unwind$?FinalConstruct@COPOSPINPad@@QEAAJXZ 000000018002d440     PINPadImpl.obj
 0002:0000b440       $unwind$?get_ResultCode@COPOSPINPad@@UEAAJPEAJ@Z 000000018002d440     PINPadImpl.obj
 0002:0000b440       $unwind$?get_State@COPOSPINPad@@UEAAJPEAJ@Z 000000018002d440     PINPadImpl.obj
 0002:0000b440       $unwind$??__E_AtlBaseModule@ATL@@YAXXZ 000000018002d440     atls:atlbase.obj
 0002:0000b440       $unwind$__scrt_initialize_default_local_stdio_options 000000018002d440     LIBCMT:default_local_stdio_options.obj
 0002:0000b440       $unwind$?dllmain_crt_dispatch@@YAHQEAUHINSTANCE__@@KQEAX@Z 000000018002d440     LIBCMT:dll_dllmain.obj
 0002:0000b440       $unwind$__report_rangecheckfailure 000000018002d440     LIBCMT:gs_report.obj
 0002:0000b440       $unwind$__GSHandlerCheck   000000018002d440     LIBCMT:gshandler.obj
 0002:0000b440       $unwind$?__scrt_uninitialize_thread_safe_statics@@YAXXZ 000000018002d440     LIBCMT:thread_safe_statics.obj
 0002:0000b440       $unwind$_Init_thread_notify 000000018002d440     LIBCMT:thread_safe_statics.obj
 0002:0000b440       $unwind$__scrt_acquire_startup_lock 000000018002d440     LIBCMT:utility.obj
 0002:0000b440       $unwind$__scrt_dllmain_after_initialize_c 000000018002d440     LIBCMT:utility.obj
 0002:0000b440       $unwind$__scrt_dllmain_before_initialize_c 000000018002d440     LIBCMT:utility.obj
 0002:0000b440       $unwind$__scrt_dllmain_crt_thread_attach 000000018002d440     LIBCMT:utility.obj
 0002:0000b440       $unwind$__scrt_dllmain_crt_thread_detach 000000018002d440     LIBCMT:utility.obj
 0002:0000b440       $unwind$__scrt_dllmain_uninitialize_c 000000018002d440     LIBCMT:utility.obj
 0002:0000b440       $unwind$__scrt_dllmain_uninitialize_critical 000000018002d440     LIBCMT:utility.obj
 0002:0000b440       $unwind$atexit             000000018002d440     LIBCMT:utility.obj
 0002:0000b440       $unwind$?GetCurrentState@__FrameHandler3@@SAHPEA_KPEAU_xDISPATCHER_CONTEXT@@PEBU_s_FuncInfo@@@Z 000000018002d440     libvcruntime:ehstate.obj
 0002:0000b440       $unwind$__vcrt_initialize  000000018002d440     libvcruntime:initialization.obj
 0002:0000b440       $unwind$__vcrt_thread_attach 000000018002d440     libvcruntime:initialization.obj
 0002:0000b440       $unwind$__vcrt_thread_detach 000000018002d440     libvcruntime:initialization.obj
 0002:0000b440       $unwind$__vcrt_uninitialize 000000018002d440     libvcruntime:initialization.obj
 0002:0000b440       $unwind$__vcrt_uninitialize_critical 000000018002d440     libvcruntime:initialization.obj
 0002:0000b440       $unwind$__vcrt_initialize_locks 000000018002d440     libvcruntime:locks.obj
 0002:0000b440       $unwind$__vcrt_freefls     000000018002d440     libvcruntime:per_thread_data.obj
 0002:0000b440       $unwind$__vcrt_getptd      000000018002d440     libvcruntime:per_thread_data.obj
 0002:0000b440       $unwind$__vcrt_initialize_ptd 000000018002d440     libvcruntime:per_thread_data.obj
 0002:0000b440       $unwind$__vcrt_uninitialize_ptd 000000018002d440     libvcruntime:per_thread_data.obj
 0002:0000b440       $unwind$_purecall          000000018002d440     libvcruntime:purevirt.obj
 0002:0000b440       $unwind$_GetImageBase      000000018002d440     libvcruntime:risctrnsctrl.obj
 0002:0000b440       $unwind$_GetThrowImageBase 000000018002d440     libvcruntime:risctrnsctrl.obj
 0002:0000b440       $unwind$__dcrt_terminate_console_output 000000018002d440     libucrt:initcon.obj
 0002:0000b440       $unwind$??$uninitialize_environment_internal@D@@YAXAEAPEAPEAD@Z 000000018002d440     libucrt:environment_initialization.obj
 0002:0000b440       $unwind$??$uninitialize_environment_internal@_W@@YAXAEAPEAPEA_W@Z 000000018002d440     libucrt:environment_initialization.obj
 0002:0000b440       $unwind$__dcrt_uninitialize_environments_nolock 000000018002d440     libucrt:environment_initialization.obj
 0002:0000b440       $unwind$__acrt_initialize_heap 000000018002d440     libucrt:heap_handle.obj
 0002:0000b440       $unwind$_msize_base        000000018002d440     libucrt:msize.obj
 0002:0000b440       $unwind$?initialize_multibyte@@YAHXZ 000000018002d440     libucrt:multibyte_initializer.obj
 0002:0000b440       $unwind$__acrt_thread_attach 000000018002d440     libucrt:initialization.obj
 0002:0000b440       $unwind$__acrt_thread_detach 000000018002d440     libucrt:initialization.obj
 0002:0000b440       $unwind$__acrt_uninitialize 000000018002d440     libucrt:initialization.obj
 0002:0000b440       $unwind$__acrt_uninitialize_critical 000000018002d440     libucrt:initialization.obj
 0002:0000b440       $unwind$initialize_c       000000018002d440     libucrt:initialization.obj
 0002:0000b440       $unwind$uninitialize_allocated_io_buffers 000000018002d440     libucrt:initialization.obj
 0002:0000b440       $unwind$uninitialize_environment 000000018002d440     libucrt:initialization.obj
 0002:0000b440       $unwind$__acrt_initialize_ptd 000000018002d440     libucrt:per_thread_data.obj
 0002:0000b440       $unwind$__acrt_uninitialize_ptd 000000018002d440     libucrt:per_thread_data.obj
 0002:0000b440       $unwind$__acrt_AreFileApisANSI 000000018002d440     libucrt:winapi_thunks.obj
 0002:0000b440       $unwind$__pctype_func      000000018002d440     libucrt:ctype.obj
 0002:0000b440       $unwind$__acrt_release_locale_ref 000000018002d440     libucrt:locale_refcounting.obj
 0002:0000b440       $unwind$_isatty            000000018002d440     libucrt:isatty.obj
 0002:0000b440       $unwind$_get_osfhandle     000000018002d440     libucrt:osfinfo.obj
 0002:0000b440       $unwind$__acrt_initialize_multibyte 000000018002d440     libucrt:mbctype.obj
 0002:0000b440       $unwind$__acrt_update_thread_multibyte_data 000000018002d440     libucrt:mbctype.obj
 0002:0000b440       $unwind$__doserrno         000000018002d440     libucrt:errno.obj
 0002:0000b440       $unwind$_errno             000000018002d440     libucrt:errno.obj
 0002:0000b440       $unwind$_invoke_watson     000000018002d440     libucrt:invalid_parameter.obj
 0002:0000b440       $unwind$abort              000000018002d440     libucrt:abort.obj
 0002:0000b440       $unwind$__acrt_initialize_command_line 000000018002d440     libucrt:argv_data.obj
 0002:0000b440       $unwind$_fileno            000000018002d440     libucrt:fileno.obj
 0002:0000b440       $unwind$?state_case_size@?$output_processor@_WV?$string_output_adapter@_W@__crt_stdio_output@@V?$format_validation_base@_WV?$string_output_adapter@_W@__crt_stdio_output@@@2@@__crt_stdio_output@@AEAA_NXZ 000000018002d440     libucrt:output.obj
 0002:0000b440       $unwind$_statfp            000000018002d440     libucrt:fpctrl.obj
 0002:0000b440       $unwind$_set_errno_from_matherr 000000018002d440     libucrt:fpexcept.obj
 0002:0000b448       $unwind$?cw_dup@@YAXPEBDAEAHAEAPEA_W1@Z 000000018002d448     CWString.obj
 0002:0000b448       $unwind$?DAdvise@?$IDataObjectImpl@VCOPOSPINPad@@@ATL@@UEAAJPEAUtagFORMATETC@@KPEAUIAdviseSink@@PEAK@Z 000000018002d448     PINPad.obj
 0002:0000b448       $unwind$??$__acrt_mbs_to_wcs_cp@U__crt_win32_buffer_internal_dynamic_resizing@@@@YAHQEBDAEAV?$__crt_win32_buffer@_WU__crt_win32_buffer_internal_dynamic_resizing@@@@I@Z 000000018002d448     libucrt:argv_wildcards.obj
 0002:0000b460       $unwind$?DupWide@_CW@@AEAAXXZ 000000018002d460     CWString.obj
 0002:0000b460       $unwind$??0CAtlComModule@ATL@@QEAA@XZ 000000018002d460     OposVariant.obj
 0002:0000b460       $unwind$??0CAtlWinModule@ATL@@QEAA@XZ 000000018002d460     OposVariant.obj
 0002:0000b460       $unwind$?SetBSTR_OutPtr@OposVariant@@QEAA_NPEAPEA_WAEAJ@Z 000000018002d460     OposVariant.obj
 0002:0000b460       $unwind$??0?$CComObject@VCOPOSPINPad@@@ATL@@QEAA@PEAX@Z 000000018002d460     PINPad.obj
 0002:0000b460       $unwind$??0CAtlModule@ATL@@QEAA@XZ 000000018002d460     PINPad.obj
 0002:0000b460       $unwind$??1?$CComObject@VCOPOSPINPad@@@ATL@@UEAA@XZ 000000018002d460     PINPad.obj
 0002:0000b460       $unwind$??__E_Module@@YAXXZ 000000018002d460     PINPad.obj
 0002:0000b460       $unwind$?AddRef@?$CComObjectCached@VCComClassFactory@ATL@@@ATL@@UEAAKXZ 000000018002d460     PINPad.obj
 0002:0000b460       $unwind$?AllocateHeap@?$CTempBuffer@E$0BAA@VCCRTAllocator@ATL@@@ATL@@AEAAX_K@Z 000000018002d460     PINPad.obj
 0002:0000b460       $unwind$?AllocateHeap@?$CTempBuffer@_W$0BAA@VCCRTAllocator@ATL@@@ATL@@AEAAX_K@Z 000000018002d460     PINPad.obj
 0002:0000b460       $unwind$?AllocateHeap@?$CTempBuffer@_W$0EAA@VCCRTAllocator@ATL@@@ATL@@AEAAX_K@Z 000000018002d460     PINPad.obj
 0002:0000b460       $unwind$?GetClassInfoW@?$IProvideClassInfo2Impl@$1?CLSID_OPOSPINPad@@3U_GUID@@B$1?DIID__IOPOSPINPadEvents@@3U2@B$1?LIBID_OposPINPad_CCO@@3U2@B$00$0A@VCComTypeInfoHolder@ATL@@@ATL@@UEAAJPEAPEAUITypeInfo@@@Z 000000018002d460     PINPad.obj
 0002:0000b460       $unwind$?GetClientSite@?$IOleObjectImpl@VCOPOSPINPad@@@ATL@@UEAAJPEAPEAUIOleClientSite@@@Z 000000018002d460     PINPad.obj
 0002:0000b460       $unwind$?GetConnMap@COPOSPINPad@@SAPEBU_ATL_CONNMAP_ENTRY@ATL@@PEAH@Z 000000018002d460     PINPad.obj
 0002:0000b460       $unwind$?GetTypeInfo@?$IDispatchImpl@UIOPOSPINPad@@$1?IID_IOPOSPINPad@@3U_GUID@@B$1?LIBID_OposPINPad_CCO@@3U3@B$00$0A@VCComTypeInfoHolder@ATL@@@ATL@@UEAAJIKPEAPEAUITypeInfo@@@Z 000000018002d460     PINPad.obj
 0002:0000b460       $unwind$?IOleInPlaceObject_InPlaceDeactivate@CComControlBase@ATL@@QEAAJXZ 000000018002d460     PINPad.obj
 0002:0000b460       $unwind$?IOleObject_SetExtent@CComControlBase@ATL@@QEAAJKPEAUtagSIZE@@@Z 000000018002d460     PINPad.obj
 0002:0000b460       $unwind$?IsEqualObject@?$CComPtrBase@UIOleClientSite@@@ATL@@QEAA_NPEAUIUnknown@@@Z 000000018002d460     PINPad.obj
 0002:0000b460       $unwind$?QueryHitPoint@?$IViewObjectExImpl@VCOPOSPINPad@@@ATL@@UEAAJKPEBUtagRECT@@UtagPOINT@@JPEAK@Z 000000018002d460     PINPad.obj
 0002:0000b460       $unwind$?QueryInterface@?$CComAggObject@VCOPOSPINPad@@@ATL@@UEAAJAEBU_GUID@@PEAPEAX@Z 000000018002d460     PINPad.obj
 0002:0000b460       $unwind$?Release@?$CComObjectCached@VCComClassFactory@ATL@@@ATL@@UEAAKXZ 000000018002d460     PINPad.obj
 0002:0000b460       $unwind$?Unadvise@?$IConnectionPointImpl@VCOPOSPINPad@@$1?DIID__IOPOSPINPadEvents@@3U_GUID@@BVCComDynamicUnkArray@ATL@@@ATL@@UEAAJK@Z 000000018002d460     PINPad.obj
 0002:0000b460       $unwind$?Unadvise@?$IConnectionPointImpl@VCOPOSPINPad@@$1?IID_IPropertyNotifySink@@3U_GUID@@BVCComDynamicUnkArray@ATL@@@ATL@@UEAAJK@Z 000000018002d460     PINPad.obj
 0002:0000b460       $unwind$??1CComControlBase@ATL@@UEAA@XZ 000000018002d460     PINPadImpl.obj
 0002:0000b460       $unwind$??1COPOSPINPad@@UEAA@XZ 000000018002d460     PINPadImpl.obj
 0002:0000b460       $unwind$?EventUninit@COPOSPINPad@@IEAAXXZ 000000018002d460     PINPadImpl.obj
 0002:0000b460       $unwind$?FreezeEvents@COPOSPINPad@@MEAAJH@Z 000000018002d460     PINPadImpl.obj
 0002:0000b460       $unwind$?SOProcessID@COPOSPINPad@@UEAAJPEAJ@Z 000000018002d460     PINPadImpl.obj
 0002:0000b460       $unwind$?get_CapCompareFirmwareVersion@COPOSPINPad@@UEAAJPEAF@Z 000000018002d460     PINPadImpl.obj
 0002:0000b460       $unwind$?get_CapKeyboard@COPOSPINPad@@UEAAJPEAF@Z 000000018002d460     PINPadImpl.obj
 0002:0000b460       $unwind$?get_CapMACCalculation@COPOSPINPad@@UEAAJPEAF@Z 000000018002d460     PINPadImpl.obj
 0002:0000b460       $unwind$?get_CapStatisticsReporting@COPOSPINPad@@UEAAJPEAF@Z 000000018002d460     PINPadImpl.obj
 0002:0000b460       $unwind$?get_CapTone@COPOSPINPad@@UEAAJPEAF@Z 000000018002d460     PINPadImpl.obj
 0002:0000b460       $unwind$?get_CapUpdateFirmware@COPOSPINPad@@UEAAJPEAF@Z 000000018002d460     PINPadImpl.obj
 0002:0000b460       $unwind$?get_CapUpdateStatistics@COPOSPINPad@@UEAAJPEAF@Z 000000018002d460     PINPadImpl.obj
 0002:0000b460       $unwind$?get_Claimed@COPOSPINPad@@UEAAJPEAF@Z 000000018002d460     PINPadImpl.obj
 0002:0000b460       $unwind$?get_DataEventEnabled@COPOSPINPad@@UEAAJPEAF@Z 000000018002d460     PINPadImpl.obj
 0002:0000b460       $unwind$?get_DeviceEnabled@COPOSPINPad@@UEAAJPEAF@Z 000000018002d460     PINPadImpl.obj
 0002:0000b460       $unwind$?get_FreezeEvents@COPOSPINPad@@UEAAJPEAF@Z 000000018002d460     PINPadImpl.obj
 0002:0000b460       $unwind$?get_PINEntryEnabled@COPOSPINPad@@UEAAJPEAF@Z 000000018002d460     PINPadImpl.obj
 0002:0000b460       $unwind$?put_FreezeEvents@COPOSPINPad@@UEAAJF@Z 000000018002d460     PINPadImpl.obj
 0002:0000b460       $unwind$??1CAtlBaseModule@ATL@@QEAA@XZ 000000018002d460     atls:atlbase.obj
 0002:0000b460       $unwind$AtlThunk_AllocateData 000000018002d460     atls:atlthunk.obj
 0002:0000b460       $unwind$__raise_securityfailure 000000018002d460     LIBCMT:gs_report.obj
 0002:0000b460       $unwind$??2@YAPEAX_K@Z     000000018002d460     LIBCMT:new_scalar.obj
 0002:0000b460       $unwind$??_Gtype_info@@UEAAPEAXI@Z 000000018002d460     LIBCMT:std_type_info_static.obj
 0002:0000b460       $unwind$_Init_thread_footer 000000018002d460     LIBCMT:thread_safe_statics.obj
 0002:0000b460       $unwind$_Init_thread_header 000000018002d460     LIBCMT:thread_safe_statics.obj
 0002:0000b460       $unwind$_Init_thread_wait  000000018002d460     LIBCMT:thread_safe_statics.obj
 0002:0000b460       $unwind$??0bad_alloc@std@@QEAA@AEBV01@@Z 000000018002d460     LIBCMT:throw_bad_alloc.obj
 0002:0000b460       $unwind$??0bad_array_new_length@std@@QEAA@AEBV01@@Z 000000018002d460     LIBCMT:throw_bad_alloc.obj
 0002:0000b460       $unwind$??0exception@std@@QEAA@AEBV01@@Z 000000018002d460     LIBCMT:throw_bad_alloc.obj
 0002:0000b460       $unwind$__scrt_initialize_crt 000000018002d460     LIBCMT:utility.obj
 0002:0000b460       $unwind$__scrt_initialize_onexit_tables 000000018002d460     LIBCMT:utility.obj
 0002:0000b460       $unwind$__scrt_release_startup_lock 000000018002d460     LIBCMT:utility.obj
 0002:0000b460       $unwind$__scrt_uninitialize_crt 000000018002d460     LIBCMT:utility.obj
 0002:0000b460       $unwind$_onexit            000000018002d460     LIBCMT:utility.obj
 0002:0000b460       $unwind$_IsExceptionObjectToBeDestroyed 000000018002d460     libvcruntime:ehhelpers.obj
 0002:0000b460       $unwind$?GetUnwindTryBlock@__FrameHandler3@@SAHPEA_KPEAU_xDISPATCHER_CONTEXT@@PEBU_s_FuncInfo@@@Z 000000018002d460     libvcruntime:ehstate.obj
 0002:0000b460       $unwind$?StateFromIp@__FrameHandler3@@SAHPEBU_s_FuncInfo@@PEAU_xDISPATCHER_CONTEXT@@_K@Z 000000018002d460     libvcruntime:ehstate.obj
 0002:0000b460       $unwind$??0bad_exception@std@@QEAA@AEBV01@@Z 000000018002d460     libvcruntime:frame.obj
 0002:0000b460       $unwind$?ExFilterRethrow@@YAHPEAU_EXCEPTION_POINTERS@@PEAUEHExceptionRecord@@PEAH@Z 000000018002d460     libvcruntime:frame.obj
 0002:0000b460       $unwind$__vcrt_uninitialize_locks 000000018002d460     libvcruntime:locks.obj
 0002:0000b460       $unwind$__vcrt_freeptd     000000018002d460     libvcruntime:per_thread_data.obj
 0002:0000b460       $unwind$?ExecutionInCatch@__FrameHandler3@@SA_NPEAU_xDISPATCHER_CONTEXT@@PEBU_s_FuncInfo@@@Z 000000018002d460     libvcruntime:risctrnsctrl.obj
 0002:0000b460       $unwind$_CreateFrameInfo   000000018002d460     libvcruntime:risctrnsctrl.obj
 0002:0000b460       $unwind$_SetImageBase      000000018002d460     libvcruntime:risctrnsctrl.obj
 0002:0000b460       $unwind$_SetThrowImageBase 000000018002d460     libvcruntime:risctrnsctrl.obj
 0002:0000b460       $unwind$__std_exception_destroy 000000018002d460     libvcruntime:std_exception.obj
 0002:0000b460       $unwind$__std_type_info_destroy_list 000000018002d460     libvcruntime:std_type_info.obj
 0002:0000b460       $unwind$__vcrt_FlsAlloc    000000018002d460     libvcruntime:winapi_downlevel.obj
 0002:0000b460       $unwind$__vcrt_FlsFree     000000018002d460     libvcruntime:winapi_downlevel.obj
 0002:0000b460       $unwind$__vcrt_FlsGetValue 000000018002d460     libvcruntime:winapi_downlevel.obj
 0002:0000b460       $unwind$_calloc_base       000000018002d460     libucrt:calloc_base.obj
 0002:0000b460       $unwind$_malloc_base       000000018002d460     libucrt:malloc_base.obj
 0002:0000b460       $unwind$_callnewh          000000018002d460     libucrt:new_handler.obj
 0002:0000b460       $unwind$initialize_pointers 000000018002d460     libucrt:initialization.obj
 0002:0000b460       $unwind$uninitialize_allocated_memory 000000018002d460     libucrt:initialization.obj
 0002:0000b460       $unwind$__acrt_initialize_locks 000000018002d460     libucrt:locks.obj
 0002:0000b460       $unwind$__acrt_uninitialize_locks 000000018002d460     libucrt:locks.obj
 0002:0000b460       $unwind$__acrt_freeptd     000000018002d460     libucrt:per_thread_data.obj
 0002:0000b460       $unwind$__acrt_getptd_head 000000018002d460     libucrt:per_thread_data.obj
 0002:0000b460       $unwind$__acrt_get_process_end_policy 000000018002d460     libucrt:win_policies.obj
 0002:0000b460       $unwind$__acrt_AppPolicyGetProcessTerminationMethodInternal 000000018002d460     libucrt:winapi_thunks.obj
 0002:0000b460       $unwind$__acrt_FlsAlloc    000000018002d460     libucrt:winapi_thunks.obj
 0002:0000b460       $unwind$__acrt_FlsFree     000000018002d460     libucrt:winapi_thunks.obj
 0002:0000b460       $unwind$__acrt_FlsGetValue 000000018002d460     libucrt:winapi_thunks.obj
 0002:0000b460       $unwind$__acrt_SetThreadStackGuarantee 000000018002d460     libucrt:winapi_thunks.obj
 0002:0000b460       $unwind$__acrt_uninitialize_winapi_thunks 000000018002d460     libucrt:winapi_thunks.obj
 0002:0000b460       $unwind$__acrt_update_locale_info 000000018002d460     libucrt:locale_update.obj
 0002:0000b460       $unwind$__acrt_update_multibyte_info 000000018002d460     libucrt:locale_update.obj
 0002:0000b460       $unwind$__acrt_allocate_buffer_for_argv 000000018002d460     libucrt:argv_parsing.obj
 0002:0000b460       $unwind$?exit_or_terminate_process@@YAXI@Z 000000018002d460     libucrt:exit.obj
 0002:0000b460       $unwind$?try_cor_exit_process@@YAXI@Z 000000018002d460     libucrt:exit.obj
 0002:0000b460       $unwind$__acrt_uninitialize_stdio 000000018002d460     libucrt:_file.obj
 0002:0000b460       $unwind$__acrt_stdio_free_buffer_nolock 000000018002d460     libucrt:_freebuf.obj
 0002:0000b460       $unwind$_fflush_nolock     000000018002d460     libucrt:fflush.obj
 0002:0000b460       $unwind$strcpy_s           000000018002d460     libucrt:strcpy_s.obj
 0002:0000b460       $unwind$wcscat_s           000000018002d460     libucrt:wcscat_s.obj
 0002:0000b460       $unwind$wcscpy_s           000000018002d460     libucrt:wcscpy_s.obj
 0002:0000b460       $unwind$_clrfp             000000018002d460     libucrt:fpctrl.obj
 0002:0000b460       $unwind$_set_statfp        000000018002d460     libucrt:fpctrl.obj
 0002:0000b460       $unwind$_clearfp           000000018002d460     libucrt:ieee.obj
 0002:0000b460       $unwind$fegetenv           000000018002d460     libucrt:fegetenv.obj
 0002:0000b460       $unwind$feholdexcept       000000018002d460     libucrt:feholdexcept.obj
 0002:0000b460       $unwind$fesetenv           000000018002d460     libucrt:fesetenv.obj
 0002:0000b468       $unwind$?AtlWinModuleTerm@ATL@@YAJPEAU_ATL_WIN_MODULE70@1@PEAUHINSTANCE__@@@Z 000000018002d468     OposVariant.obj
 0002:0000b468       $unwind$?AtlWinModuleExtractCreateWndData@ATL@@YAPEAXPEAU_ATL_WIN_MODULE70@1@@Z 000000018002d468     PINPad.obj
 0002:0000b468       $unwind$?CreateInstance@?$CComCreator@V?$CComObject@VCOPOSPINPad@@@ATL@@@ATL@@SAJPEAXAEBU_GUID@@PEAPEAX@Z 000000018002d468     PINPad.obj
 0002:0000b468       $unwind$?DoEvent@COPOSPINPad@@IEAAXI_K_J@Z 000000018002d468     PINPad.obj
 0002:0000b468       $unwind$?DoVerb@?$IOleObjectImpl@VCOPOSPINPad@@@ATL@@UEAAJJPEAUtagMSG@@PEAUIOleClientSite@@JPEAUHWND__@@PEBUtagRECT@@@Z 000000018002d468     PINPad.obj
 0002:0000b468       $unwind$?HKeyFromString@CRegParser@ATL@@KAPEAUHKEY__@@PEA_W@Z 000000018002d468     PINPad.obj
 0002:0000b468       $unwind$?Next@?$CComEnumImpl@UIEnumConnectionPoints@@$1?_GUID_b196b285_bab4_101a_b69c_00aa00341d07@@3U__s_GUID@@BPEAUIConnectionPoint@@V?$_CopyInterface@UIConnectionPoint@@@ATL@@@ATL@@UEAAJKPEAPEAUIConnectionPoint@@PEAK@Z 000000018002d468     PINPad.obj
 0002:0000b468       $unwind$?Next@?$CComEnumImpl@UIEnumConnections@@$1?_GUID_b196b287_bab4_101a_b69c_00aa00341d07@@3U__s_GUID@@BUtagCONNECTDATA@@V?$_Copy@UtagCONNECTDATA@@@ATL@@@ATL@@UEAAJKPEAUtagCONNECTDATA@@PEAK@Z 000000018002d468     PINPad.obj
 0002:0000b468       $unwind$?SODirectIO@COPOSPINPad@@MEAAJJPEAJPEAPEA_W@Z 000000018002d468     PINPad.obj
 0002:0000b468       $unwind$?SetControlFocus@CComControlBase@ATL@@QEAAHH@Z 000000018002d468     PINPad.obj
 0002:0000b468       $unwind$?ocscpy_s@@YA_NPEA_W_KPEB_W@Z 000000018002d468     PINPad.obj
 0002:0000b468       $unwind$?s_EventWindowProc@COPOSPINPad@@KA_JPEAUHWND__@@I_K_J@Z 000000018002d468     PINPadImpl.obj
 0002:0000b468       $unwind$__scrt_dllmain_exception_filter 000000018002d468     LIBCMT:utility.obj
 0002:0000b468       $unwind$?GetHandlerSearchState@__FrameHandler3@@SAHPEA_KPEAU_xDISPATCHER_CONTEXT@@PEBU_s_FuncInfo@@@Z 000000018002d468     libvcruntime:frame.obj
 0002:0000b468       $unwind$?Is_bad_exception_allowed@@YAEPEBU_s_ESTypeList@@@Z 000000018002d468     libvcruntime:frame.obj
 0002:0000b468       $unwind$_recalloc_base     000000018002d468     libucrt:recalloc.obj
 0002:0000b468       $unwind$__acrt_free_locale 000000018002d468     libucrt:locale_refcounting.obj
 0002:0000b468       $unwind$__acrt_lowio_create_handle_array 000000018002d468     libucrt:osfinfo.obj
 0002:0000b468       $unwind$?setSBCS@@YAXPEAU__crt_multibyte_data@@@Z 000000018002d468     libucrt:mbctype.obj
 0002:0000b468       $unwind$_seh_filter_exe    000000018002d468     libucrt:exception_filter.obj
 0002:0000b468       $unwind$_initterm          000000018002d468     libucrt:initterm.obj
 0002:0000b468       $unwind$??$ensure_buffer_is_big_enough@D@formatting_buffer@__crt_stdio_output@@QEAA_N_K@Z 000000018002d468     libucrt:output.obj
 0002:0000b468       $unwind$??$ensure_buffer_is_big_enough@_W@formatting_buffer@__crt_stdio_output@@QEAA_N_K@Z 000000018002d468     libucrt:output.obj
 0002:0000b47c       $unwind$??0OposDispParms@@QEAA@PEAVOposVariant@@H@Z 000000018002d47c     OposVariant.obj
 0002:0000b47c       $unwind$?SetBSTR_Copy@OposVariant@@QEAAXPEA_WAEAJ@Z 000000018002d47c     OposVariant.obj
 0002:0000b47c       $unwind$?SetBSTR_InOutPtr@OposVariant@@QEAA_NPEAPEA_WAEAJ@Z 000000018002d47c     OposVariant.obj
 0002:0000b47c       $unwind$?SetDispatch_Ptr@OposVariant@@QEAAXPEAUIDispatch@@AEAJ@Z 000000018002d47c     OposVariant.obj
 0002:0000b47c       $unwind$?SetLONG_Ptr@OposVariant@@QEAAXPEAJAEAJ@Z 000000018002d47c     OposVariant.obj
 0002:0000b47c       $unwind$?SetString@OposVariant@@QEAAXPEB_WAEAJ@Z 000000018002d47c     OposVariant.obj
 0002:0000b47c       $unwind$?Term@CAtlComModule@ATL@@QEAAXXZ 000000018002d47c     OposVariant.obj
 0002:0000b47c       $unwind$??_GCRegObject@ATL@@UEAAPEAXI@Z 000000018002d47c     PINPad.obj
 0002:0000b47c       $unwind$?Add@?$CSimpleArray@GV?$CSimpleArrayEqualHelper@G@ATL@@@ATL@@QEAAHAEBG@Z 000000018002d47c     PINPad.obj
 0002:0000b47c       $unwind$?Add@?$CSimpleMap@PEA_WPEA_WVCExpansionVectorEqualHelper@ATL@@@ATL@@QEAAHAEBQEA_W0@Z 000000018002d47c     PINPad.obj
 0002:0000b47c       $unwind$?Add@CComDynamicUnkArray@ATL@@QEAAKPEAUIUnknown@@@Z 000000018002d47c     PINPad.obj
 0002:0000b47c       $unwind$?Advise@?$IOleObjectImpl@VCOPOSPINPad@@@ATL@@UEAAJPEAUIAdviseSink@@PEAK@Z 000000018002d47c     PINPad.obj
 0002:0000b47c       $unwind$?ClearReplacements@CExpansionVector@ATL@@QEAAJXZ 000000018002d47c     PINPad.obj
 0002:0000b47c       $unwind$?RegisterServer@CComModule@ATL@@QEAAJHPEBU_GUID@@@Z 000000018002d47c     PINPad.obj
 0002:0000b47c       $unwind$?Term@CAtlModule@ATL@@QEAAXXZ 000000018002d47c     PINPad.obj
 0002:0000b47c       $unwind$?UnregisterServer@CComModule@ATL@@QEAAJHPEBU_GUID@@@Z 000000018002d47c     PINPad.obj
 0002:0000b47c       $unwind$?VTFromRegType@CRegParser@ATL@@KAHPEB_WAEAG@Z 000000018002d47c     PINPad.obj
 0002:0000b47c       $unwind$_DllMainCRTStartup 000000018002d47c     LIBCMT:dll_dllmain.obj
 0002:0000b47c       $unwind$__vcrt_getptd_noexit 000000018002d47c     libvcruntime:per_thread_data.obj
 0002:0000b47c       $unwind$?CatchTryBlock@__FrameHandler3@@SAPEBU_s_TryBlockMapEntry@@PEBU_s_FuncInfo@@H@Z 000000018002d47c     libvcruntime:risctrnsctrl.obj
 0002:0000b47c       $unwind$?FrameUnwindToEmptyState@__FrameHandler3@@SAXPEA_KPEAU_xDISPATCHER_CONTEXT@@PEBU_s_FuncInfo@@@Z 000000018002d47c     libvcruntime:risctrnsctrl.obj
 0002:0000b47c       $unwind$__vcrt_InitializeCriticalSectionEx 000000018002d47c     libvcruntime:winapi_downlevel.obj
 0002:0000b47c       $unwind$memcpy_s           000000018002d47c     libucrt:cfout.obj
 0002:0000b47c       $unwind$__acrt_getptd      000000018002d47c     libucrt:per_thread_data.obj
 0002:0000b47c       $unwind$__acrt_getptd_noexit 000000018002d47c     libucrt:per_thread_data.obj
 0002:0000b47c       $unwind$__acrt_execute_initializers 000000018002d47c     libucrt:shared_initialization.obj
 0002:0000b47c       $unwind$__acrt_InitializeCriticalSectionEx 000000018002d47c     libucrt:winapi_thunks.obj
 0002:0000b47c       $unwind$?free_crt_array_internal@@YAXQEAPEBX_K@Z 000000018002d47c     libucrt:inittime.obj
 0002:0000b47c       $unwind$??$common_lseek_nolock@_J@@YA_JH_JH@Z 000000018002d47c     libucrt:lseek.obj
 0002:0000b47c       $unwind$__acrt_stdio_flush_nolock 000000018002d47c     libucrt:fflush.obj
 0002:0000b47c       $unwind$??0_LocaleUpdate@@QEAA@QEAU__crt_locale_pointers@@@Z 000000018002d47c     libucrt:output.obj
 0002:0000b47c       $unwind$?type_case_Z@?$output_processor@_WV?$string_output_adapter@_W@__crt_stdio_output@@V?$format_validation_base@_WV?$string_output_adapter@_W@__crt_stdio_output@@@2@@__crt_stdio_output@@AEAA_NXZ 000000018002d47c     libucrt:output.obj
 0002:0000b47c       $unwind$?type_case_n@?$output_processor@_WV?$string_output_adapter@_W@__crt_stdio_output@@V?$format_validation_base@_WV?$string_output_adapter@_W@__crt_stdio_output@@@2@@__crt_stdio_output@@AEAA_NXZ 000000018002d47c     libucrt:output.obj
 0002:0000b47c       $unwind$?type_case_s@?$output_processor@_WV?$string_output_adapter@_W@__crt_stdio_output@@V?$format_validation_base@_WV?$string_output_adapter@_W@__crt_stdio_output@@@2@@__crt_stdio_output@@AEAA_NXZ 000000018002d47c     libucrt:output.obj
 0002:0000b47c       $unwind$_exception_enabled 000000018002d47c     libucrt:libm_error.obj
 0002:0000b48c       $unwind$??_Estringdispid@CComTypeInfoHolder@ATL@@QEAAPEAXI@Z 000000018002d48c     OposVariant.obj
 0002:0000b48c       $unwind$?AddTermFunc@CAtlModule@ATL@@QEAAJP6AX_K@Z0@Z 000000018002d48c     PINPad.obj
 0002:0000b48c       $unwind$?AtlComModuleRegisterServer@ATL@@YAJPEAU_ATL_COM_MODULE70@1@HPEBU_GUID@@@Z 000000018002d48c     PINPad.obj
 0002:0000b48c       $unwind$?AtlComModuleUnregisterServer@ATL@@YAJPEAU_ATL_COM_MODULE70@1@HPEBU_GUID@@@Z 000000018002d48c     PINPad.obj
 0002:0000b48c       $unwind$?CreateInstance@?$CComCreator@V?$CComAggObject@VCOPOSPINPad@@@ATL@@@ATL@@SAJPEAXAEBU_GUID@@PEAPEAX@Z 000000018002d48c     PINPad.obj
 0002:0000b48c       $unwind$?CreateInstance@?$CComCreator@V?$CComObjectCached@VCComClassFactory@ATL@@@ATL@@@ATL@@SAJPEAXAEBU_GUID@@PEAPEAX@Z 000000018002d48c     PINPad.obj
 0002:0000b48c       $unwind$?GetPagesHelper@?$ISpecifyPropertyPagesImpl@VCOPOSPINPad@@@ATL@@IEAAJPEAUtagCAUUID@@PEBUATL_PROPMAP_ENTRY@2@@Z 000000018002d48c     PINPad.obj
 0002:0000b48c       $unwind$__GSHandlerCheck_SEH 000000018002d48c     LIBCMT:gshandlerseh.obj
 0002:0000b48c       $unwind$??$TypeMatchHelper@V__FrameHandler3@@@@YAHPEBU_s_HandlerType@@PEBU_s_CatchableType@@PEBU_s_ThrowInfo@@@Z 000000018002d48c     libvcruntime:frame.obj
 0002:0000b48c       $unwind$?initialize_stdio_handles_nolock@@YAXXZ 000000018002d48c     libucrt:ioinit.obj
 0002:0000b48c       $unwind$__acrt_initialize_stdio 000000018002d48c     libucrt:_file.obj
 0002:0000b4a4       $unwind$?SetBSTR@OposVariant@@QEAAXPEA_WAEAJ@Z 000000018002d4a4     OposVariant.obj
 0002:0000b4a4       $unwind$?SetCURRENCY@OposVariant@@QEAAXTtagCY@@@Z 000000018002d4a4     OposVariant.obj
 0002:0000b4a4       $unwind$?SetLONG@OposVariant@@QEAAXJ@Z 000000018002d4a4     OposVariant.obj
 0002:0000b4a4       $unwind$?SetVARIANT_BOOL@OposVariant@@QEAAXF@Z 000000018002d4a4     OposVariant.obj
 0002:0000b4a4       $unwind$??0?$CComContainedObject@VCOPOSPINPad@@@ATL@@QEAA@PEAX@Z 000000018002d4a4     PINPad.obj
 0002:0000b4a4       $unwind$??1?$CComEnumImpl@UIEnumConnectionPoints@@$1?_GUID_b196b285_bab4_101a_b69c_00aa00341d07@@3U__s_GUID@@BPEAUIConnectionPoint@@V?$_CopyInterface@UIConnectionPoint@@@ATL@@@ATL@@UEAA@XZ 000000018002d4a4     PINPad.obj
 0002:0000b4a4       $unwind$??1?$CComEnumImpl@UIEnumConnections@@$1?_GUID_b196b287_bab4_101a_b69c_00aa00341d07@@3U__s_GUID@@BUtagCONNECTDATA@@V?$_Copy@UtagCONNECTDATA@@@ATL@@@ATL@@UEAA@XZ 000000018002d4a4     PINPad.obj
 0002:0000b4a4       $unwind$??_G?$CComAggObject@VCOPOSPINPad@@@ATL@@UEAAPEAXI@Z 000000018002d4a4     PINPad.obj
 0002:0000b4a4       $unwind$??_G?$CComContainedObject@VCOPOSPINPad@@@ATL@@UEAAPEAXI@Z 000000018002d4a4     PINPad.obj
 0002:0000b4a4       $unwind$??_G?$CComObject@V?$CComEnum@UIEnumConnectionPoints@@$1?_GUID_b196b285_bab4_101a_b69c_00aa00341d07@@3U__s_GUID@@BPEAUIConnectionPoint@@V?$_CopyInterface@UIConnectionPoint@@@ATL@@VCComSingleThreadModel@6@@ATL@@@ATL@@UEAAPEAXI@Z 000000018002d4a4     PINPad.obj
 0002:0000b4a4       $unwind$??_G?$CComObject@V?$CComEnum@UIEnumConnections@@$1?_GUID_b196b287_bab4_101a_b69c_00aa00341d07@@3U__s_GUID@@BUtagCONNECTDATA@@V?$_Copy@UtagCONNECTDATA@@@ATL@@VCComSingleThreadModel@6@@ATL@@@ATL@@UEAAPEAXI@Z 000000018002d4a4     PINPad.obj
 0002:0000b4a4       $unwind$??_G?$CComObject@VCOPOSPINPad@@@ATL@@UEAAPEAXI@Z 000000018002d4a4     PINPad.obj
 0002:0000b4a4       $unwind$??_G?$CComObjectCached@VCComClassFactory@ATL@@@ATL@@UEAAPEAXI@Z 000000018002d4a4     PINPad.obj
 0002:0000b4a4       $unwind$??_GCComClassFactory@ATL@@UEAAPEAXI@Z 000000018002d4a4     PINPad.obj
 0002:0000b4a4       $unwind$??_GCComModule@ATL@@UEAAPEAXI@Z 000000018002d4a4     PINPad.obj
 0002:0000b4a4       $unwind$?CreateInstance@?$CComObject@V?$CComEnum@UIEnumConnectionPoints@@$1?_GUID_b196b285_bab4_101a_b69c_00aa00341d07@@3U__s_GUID@@BPEAUIConnectionPoint@@V?$_CopyInterface@UIConnectionPoint@@@ATL@@VCComSingleThreadModel@6@@ATL@@@ATL@@SAJPEAPEAV12@@Z 000000018002d4a4     PINPad.obj
 0002:0000b4a4       $unwind$?CreateInstance@?$CComObject@V?$CComEnum@UIEnumConnections@@$1?_GUID_b196b287_bab4_101a_b69c_00aa00341d07@@3U__s_GUID@@BUtagCONNECTDATA@@V?$_Copy@UtagCONNECTDATA@@@ATL@@VCComSingleThreadModel@6@@ATL@@@ATL@@SAJPEAPEAV12@@Z 000000018002d4a4     PINPad.obj
 0002:0000b4a4       $unwind$?DeleteSubKey@CRegKey@ATL@@QEAAJPEB_W@Z 000000018002d4a4     PINPad.obj
 0002:0000b4a4       $unwind$?IOleObject_SetClientSite@CComControlBase@ATL@@QEAAJPEAUIOleClientSite@@@Z 000000018002d4a4     PINPad.obj
 0002:0000b4a4       $unwind$?InitNew@?$IPersistStorageImpl@VCOPOSPINPad@@@ATL@@UEAAJPEAUIStorage@@@Z 000000018002d4a4     PINPad.obj
 0002:0000b4a4       $unwind$?IsDirty@?$IPersistStorageImpl@VCOPOSPINPad@@@ATL@@UEAAJXZ 000000018002d4a4     PINPad.obj
 0002:0000b4a4       $unwind$?Release@?$CComAggObject@VCOPOSPINPad@@@ATL@@UEAAKXZ 000000018002d4a4     PINPad.obj
 0002:0000b4a4       $unwind$?Release@?$CComObject@V?$CComEnum@UIEnumConnectionPoints@@$1?_GUID_b196b285_bab4_101a_b69c_00aa00341d07@@3U__s_GUID@@BPEAUIConnectionPoint@@V?$_CopyInterface@UIConnectionPoint@@@ATL@@VCComSingleThreadModel@6@@ATL@@@ATL@@UEAAKXZ 000000018002d4a4     PINPad.obj
 0002:0000b4a4       $unwind$?Release@?$CComObject@V?$CComEnum@UIEnumConnections@@$1?_GUID_b196b287_bab4_101a_b69c_00aa00341d07@@3U__s_GUID@@BUtagCONNECTDATA@@V?$_Copy@UtagCONNECTDATA@@@ATL@@VCComSingleThreadModel@6@@ATL@@@ATL@@UEAAKXZ 000000018002d4a4     PINPad.obj
 0002:0000b4a4       $unwind$?Release@?$CComObject@VCOPOSPINPad@@@ATL@@UEAAKXZ 000000018002d4a4     PINPad.obj
 0002:0000b4a4       $unwind$?SOData@COPOSPINPad@@MEAAJJ@Z 000000018002d4a4     PINPad.obj
 0002:0000b4a4       $unwind$?SOStatusUpdate@COPOSPINPad@@MEAAJJ@Z 000000018002d4a4     PINPad.obj
 0002:0000b4a4       $unwind$?SetAdvise@?$IViewObjectExImpl@VCOPOSPINPad@@@ATL@@UEAAJKKPEAUIAdviseSink@@@Z 000000018002d4a4     PINPad.obj
 0002:0000b4a4       $unwind$?Term@CComModule@ATL@@QEAAXXZ 000000018002d4a4     PINPad.obj
 0002:0000b4a4       $unwind$DllMain            000000018002d4a4     PINPad.obj
 0002:0000b4a4       $unwind$??1?$IConnectionPointImpl@VCOPOSPINPad@@$1?DIID__IOPOSPINPadEvents@@3U_GUID@@BVCComDynamicUnkArray@ATL@@@ATL@@QEAA@XZ 000000018002d4a4     PINPadImpl.obj
 0002:0000b4a4       $unwind$??1?$IConnectionPointImpl@VCOPOSPINPad@@$1?IID_IPropertyNotifySink@@3U_GUID@@BVCComDynamicUnkArray@ATL@@@ATL@@QEAA@XZ 000000018002d4a4     PINPadImpl.obj
 0002:0000b4a4       $unwind$??0CAtlBaseModule@ATL@@QEAA@XZ 000000018002d4a4     atls:atlbase.obj
 0002:0000b4a4       $unwind$??$GetProcAddressAll@P6AP6A_JPEAUHWND__@@I_K_J@ZPEAUAtlThunkData_t@@@Z@@YAP6AP6A_JPEAUHWND__@@I_K_J@ZPEAUAtlThunkData_t@@@ZPEAP6AP6A_J0I12@Z3@Z@Z 000000018002d4a4     atls:atlthunk.obj
 0002:0000b4a4       $unwind$??$GetProcAddressAll@P6APEAUAtlThunkData_t@@XZ@@YAP6APEAUAtlThunkData_t@@XZPEAP6APEAU0@XZ@Z 000000018002d4a4     atls:atlthunk.obj
 0002:0000b4a4       $unwind$??$GetProcAddressAll@P6AXPEAUAtlThunkData_t@@@Z@@YAP6AXPEAUAtlThunkData_t@@@ZPEAP6AX0@Z@Z 000000018002d4a4     atls:atlthunk.obj
 0002:0000b4a4       $unwind$??$GetProcAddressAll@P6AXPEAUAtlThunkData_t@@PEAX_K@Z@@YAP6AXPEAUAtlThunkData_t@@PEAX_K@ZPEAP6AX012@Z@Z 000000018002d4a4     atls:atlthunk.obj
 0002:0000b4a4       $unwind$?__AllocStdCallThunk_cmn@@YAPEAXXZ 000000018002d4a4     atls:atlthunk.obj
 0002:0000b4a4       $unwind$?__InitializeThunkPool@@YAHXZ 000000018002d4a4     atls:atlthunk.obj
 0002:0000b4a4       $unwind$AtlThunk_DataToCode 000000018002d4a4     atls:atlthunk.obj
 0002:0000b4a4       $unwind$_RTC_Initialize    000000018002d4a4     LIBCMT:initsect.obj
 0002:0000b4a4       $unwind$_RTC_Terminate     000000018002d4a4     LIBCMT:initsect.obj
 0002:0000b4a4       $unwind$?__scrt_initialize_thread_safe_statics@@YAHXZ 000000018002d4a4     LIBCMT:thread_safe_statics.obj
 0002:0000b4a4       $unwind$??_Gbad_alloc@std@@UEAAPEAXI@Z 000000018002d4a4     LIBCMT:throw_bad_alloc.obj
 0002:0000b4a4       $unwind$??_Gbad_array_new_length@std@@UEAAPEAXI@Z 000000018002d4a4     LIBCMT:throw_bad_alloc.obj
 0002:0000b4a4       $unwind$??_Gexception@std@@UEAAPEAXI@Z 000000018002d4a4     LIBCMT:throw_bad_alloc.obj
 0002:0000b4a4       $unwind$__FrameUnwindFilter 000000018002d4a4     libvcruntime:ehhelpers.obj
 0002:0000b4a4       $unwind$?SetUnwindTryBlock@__FrameHandler3@@SAXPEA_KPEAU_xDISPATCHER_CONTEXT@@PEBU_s_FuncInfo@@H@Z 000000018002d4a4     libvcruntime:ehstate.obj
 0002:0000b4a4       $unwind$??_Gbad_exception@std@@UEAAPEAXI@Z 000000018002d4a4     libvcruntime:frame.obj
 0002:0000b4a4       $unwind$_FindAndUnlinkFrame 000000018002d4a4     libvcruntime:risctrnsctrl.obj
 0002:0000b4a4       $unwind$__vcrt_FlsSetValue 000000018002d4a4     libvcruntime:winapi_downlevel.obj
 0002:0000b4a4       $unwind$??$common_initialize_environment_nolock@D@@YAHXZ 000000018002d4a4     libucrt:environment_initialization.obj
 0002:0000b4a4       $unwind$__acrt_fp_strflt_to_string 000000018002d4a4     libucrt:_fptostr.obj
 0002:0000b4a4       $unwind$_realloc_base      000000018002d4a4     libucrt:realloc_base.obj
 0002:0000b4a4       $unwind$?replace_current_thread_locale_nolock@@YAXQEAU__acrt_ptd@@QEAU__crt_locale_data@@@Z 000000018002d4a4     libucrt:per_thread_data.obj
 0002:0000b4a4       $unwind$__acrt_execute_uninitializers 000000018002d4a4     libucrt:shared_initialization.obj
 0002:0000b4a4       $unwind$__acrt_FlsSetValue 000000018002d4a4     libucrt:winapi_thunks.obj
 0002:0000b4a4       $unwind$__acrt_LocaleNameToLCID 000000018002d4a4     libucrt:winapi_thunks.obj
 0002:0000b4a4       $unwind$_updatetlocinfoEx_nolock 000000018002d4a4     libucrt:locale_refcounting.obj
 0002:0000b4a4       $unwind$_close_nolock      000000018002d4a4     libucrt:close.obj
 0002:0000b4a4       $unwind$__acrt_uninitialize_lowio 000000018002d4a4     libucrt:ioinit.obj
 0002:0000b4a4       $unwind$__acrt_errno_map_os_error 000000018002d4a4     libucrt:errno.obj
 0002:0000b4a4       $unwind$_initterm_e        000000018002d4a4     libucrt:initterm.obj
 0002:0000b4a4       $unwind$_fclose_nolock     000000018002d4a4     libucrt:fclose.obj
 0002:0000b4a4       $unwind$strncpy_s          000000018002d4a4     libucrt:strncpy_s.obj
 0002:0000b4a4       $unwind$wcsncpy_s          000000018002d4a4     libucrt:wcsncpy_s.obj
 0002:0000b4b0       $unwind$?ChangeBSTR@OposVariant@@QEAAXPEAPEA_WAEAJ@Z 000000018002d4b0     OposVariant.obj
 0002:0000b4b0       $unwind$?ChangeCURRENCY@OposVariant@@QEAAXPEATtagCY@@AEAJ@Z 000000018002d4b0     OposVariant.obj
 0002:0000b4b0       $unwind$?ChangeLONG@OposVariant@@QEAAXPEAJAEAJ@Z 000000018002d4b0     OposVariant.obj
 0002:0000b4b0       $unwind$?x_ismbbtype_l@@YAHPEAU__crt_locale_pointers@@IHH@Z 000000018002d4b0     libucrt:ismbbyte.obj
 0002:0000b4c0       $unwind$swprintf_s         000000018002d4c0     PINPad.obj
 0002:0000b4d0       $unwind$?_AtlVerifyStackAvailable@_ATL_SAFE_ALLOCA_IMPL@ATL@@YA_N_K@Z 000000018002d4d0     PINPad.obj
 0002:0000b4fc       $unwind$?filt$0@?0??_AtlVerifyStackAvailable@_ATL_SAFE_ALLOCA_IMPL@ATL@@YA_N_K@Z@4HA 000000018002d4fc     PINPad.obj
 0002:0000b4fc       $unwind$?fin$0@?0??dllmain_crt_process_attach@@YAHQEAUHINSTANCE__@@QEAX@Z@4HA 000000018002d4fc     LIBCMT:dll_dllmain.obj
 0002:0000b4fc       $unwind$?fin$0@?0??dllmain_crt_process_detach@@YAH_N@Z@4HA 000000018002d4fc     LIBCMT:dll_dllmain.obj
 0002:0000b4fc       $unwind$?fin$1@?0??dllmain_crt_process_detach@@YAH_N@Z@4HA 000000018002d4fc     LIBCMT:dll_dllmain.obj
 0002:0000b4fc       $unwind$_IsNonwritableInCurrentImage$filt$0 000000018002d4fc     LIBCMT:pesect.obj
 0002:0000b4fc       $unwind$?filt$0@?0??CxxCallCatchBlock@__FrameHandler3@@SAPEAXPEAU_EXCEPTION_RECORD@@@Z@4HA 000000018002d4fc     libvcruntime:frame.obj
 0002:0000b4fc       $unwind$?filt$0@?0??FrameUnwindToState@__FrameHandler3@@SAXPEA_KPEAU_xDISPATCHER_CONTEXT@@PEBU_s_FuncInfo@@H@Z@4HA 000000018002d4fc     libvcruntime:frame.obj
 0002:0000b4fc       $unwind$?fin$1@?0??FrameUnwindToState@__FrameHandler3@@SAXPEA_KPEAU_xDISPATCHER_CONTEXT@@PEBU_s_FuncInfo@@H@Z@4HA 000000018002d4fc     libvcruntime:frame.obj
 0002:0000b4fc       $unwind$_query_new_handler$fin$0 000000018002d4fc     libucrt:new_handler.obj
 0002:0000b4fc       $unwind$?fin$0@?0???$?RV<lambda_0ae27a3a962d80f24befdcbee591983d>@@AEAV<lambda_8d0ee55de4b1038c4002e0adecdf1839>@@V<lambda_dc504788e8f1664fe9b84e20bfb512f2>@@@?$__crt_seh_guarded_call@X@@QEAAX$$QEAV<lambda_0ae27a3a962d80f24befdcbee591983d>@@AEAV<lambda_8d0ee55de4b1038c4002e0adecdf1839>@@$$QEAV<lambda_dc504788e8f1664fe9b84e20bfb512f2>@@@Z@4HA 000000018002d4fc     libucrt:per_thread_data.obj
 0002:0000b4fc       $unwind$?fin$0@?0???$?RV<lambda_2d41944a1d46af3157314b8a01080d33>@@AEAV<lambda_8f455de75cd7d7f24b4096f044d8b9e6>@@V<lambda_aa500f224e6afead328df44964fe2772>@@@?$__crt_seh_guarded_call@X@@QEAAX$$QEAV<lambda_2d41944a1d46af3157314b8a01080d33>@@AEAV<lambda_8f455de75cd7d7f24b4096f044d8b9e6>@@$$QEAV<lambda_aa500f224e6afead328df44964fe2772>@@@Z@4HA 000000018002d4fc     libucrt:per_thread_data.obj
 0002:0000b4fc       $unwind$?fin$0@?0???$?RV<lambda_aa87e3671a710a21b5dc78c0bdf72e11>@@AEAV<lambda_92619d2358a28f41a33ba319515a20b9>@@V<lambda_6992ecaafeb10aed2b74cb1fae11a551>@@@?$__crt_seh_guarded_call@X@@QEAAX$$QEAV<lambda_aa87e3671a710a21b5dc78c0bdf72e11>@@AEAV<lambda_92619d2358a28f41a33ba319515a20b9>@@$$QEAV<lambda_6992ecaafeb10aed2b74cb1fae11a551>@@@Z@4HA 000000018002d4fc     libucrt:per_thread_data.obj
 0002:0000b4fc       $unwind$?fin$0@?0???$?RV<lambda_f2e299630e499de9f9a165e60fcd3db5>@@AEAV<lambda_2ae9d31cdba2644fcbeaf08da7c24588>@@V<lambda_40d01ff24d0e7b3814fdbdcee8eab3c7>@@@?$__crt_seh_guarded_call@X@@QEAAX$$QEAV<lambda_f2e299630e499de9f9a165e60fcd3db5>@@AEAV<lambda_2ae9d31cdba2644fcbeaf08da7c24588>@@$$QEAV<lambda_40d01ff24d0e7b3814fdbdcee8eab3c7>@@@Z@4HA 000000018002d4fc     libucrt:per_thread_data.obj
 0002:0000b4fc       $unwind$__acrt_update_thread_locale_data$fin$0 000000018002d4fc     libucrt:locale_refcounting.obj
 0002:0000b4fc       $unwind$?fin$0@?0???$?RV<lambda_410d79af7f07d98d83a3f525b3859a53>@@AEAV<lambda_3e16ef9562a7dcce91392c22ab16ea36>@@V<lambda_38119f0e861e05405d8a144b9b982f0a>@@@?$__crt_seh_guarded_call@X@@QEAAX$$QEAV<lambda_410d79af7f07d98d83a3f525b3859a53>@@AEAV<lambda_3e16ef9562a7dcce91392c22ab16ea36>@@$$QEAV<lambda_38119f0e861e05405d8a144b9b982f0a>@@@Z@4HA 000000018002d4fc     libucrt:wsetlocale.obj
 0002:0000b4fc       $unwind$?fin$0@?0???$?RV<lambda_751a882b2c74d4b022dec766aa51a29a>@@AEAV<lambda_628dfdc04ba53c8bfc02c9951375f3f5>@@V<lambda_f6c7be5f7998530c34de24c7437d6b54>@@@?$__crt_seh_guarded_call@H@@QEAAH$$QEAV<lambda_751a882b2c74d4b022dec766aa51a29a>@@AEAV<lambda_628dfdc04ba53c8bfc02c9951375f3f5>@@$$QEAV<lambda_f6c7be5f7998530c34de24c7437d6b54>@@@Z@4HA 000000018002d4fc     libucrt:close.obj
 0002:0000b4fc       $unwind$?fin$0@?0???$?RV<lambda_a37b2b86f63e897a80ea819b0eb08c01>@@AEAV<lambda_38ce7e780aa69e748d6df282ebc68efe>@@V<lambda_99fb1378e971ab6e7edea83e3a7a83a2>@@@?$__crt_seh_guarded_call@H@@QEAAH$$QEAV<lambda_a37b2b86f63e897a80ea819b0eb08c01>@@AEAV<lambda_38ce7e780aa69e748d6df282ebc68efe>@@$$QEAV<lambda_99fb1378e971ab6e7edea83e3a7a83a2>@@@Z@4HA 000000018002d4fc     libucrt:commit.obj
 0002:0000b4fc       $unwind$__acrt_initialize_lowio$fin$0 000000018002d4fc     libucrt:ioinit.obj
 0002:0000b4fc       $unwind$__acrt_lowio_ensure_fh_exists$fin$0 000000018002d4fc     libucrt:osfinfo.obj
 0002:0000b4fc       $unwind$_write$fin$0       000000018002d4fc     libucrt:write.obj
 0002:0000b4fc       $unwind$?fin$0@?0???$?RV<lambda_efdfa57d1f175319df784efa44bb7b81>@@AEAV<lambda_5f0a4c1567f8adc6734073e5d1e1b35c>@@V<lambda_2e8a7d3640ea6ccb4c2413664c2db6fd>@@@?$__crt_seh_guarded_call@X@@QEAAX$$QEAV<lambda_efdfa57d1f175319df784efa44bb7b81>@@AEAV<lambda_5f0a4c1567f8adc6734073e5d1e1b35c>@@$$QEAV<lambda_2e8a7d3640ea6ccb4c2413664c2db6fd>@@@Z@4HA 000000018002d4fc     libucrt:mbctype.obj
 0002:0000b4fc       $unwind$?fin$0@?0??update_thread_multibyte_data_internal@@YAPEAU__crt_multibyte_data@@QEAU__acrt_ptd@@QEAPEAU1@@Z@4HA 000000018002d4fc     libucrt:mbctype.obj
 0002:0000b4fc       $unwind$?fin$0@?0???$?RV<lambda_450d765d439847d4c735a33c368b5fc0>@@AEAV<lambda_44731a7d0e6d81c3e6aa82d741081786>@@V<lambda_601a2a7da3b7a96e9554ac7215c4b07c>@@@?$__crt_seh_guarded_call@P6AXH@Z@@QEAAP6AXH@Z$$QEAV<lambda_450d765d439847d4c735a33c368b5fc0>@@AEAV<lambda_44731a7d0e6d81c3e6aa82d741081786>@@$$QEAV<lambda_601a2a7da3b7a96e9554ac7215c4b07c>@@@Z@4HA 000000018002d4fc     libucrt:signal.obj
 0002:0000b4fc       $unwind$raise$fin$0        000000018002d4fc     libucrt:signal.obj
 0002:0000b4fc       $unwind$?filt$0@?0???R<lambda_6e4b09c48022b2350581041d5f6b0c4c>@@QEBA@XZ@4HA 000000018002d4fc     libucrt:exit.obj
 0002:0000b4fc       $unwind$?fin$0@?0???$?RV<lambda_d80eeec6fff315bfe5c115232f3240e3>@@AEAV<lambda_6e4b09c48022b2350581041d5f6b0c4c>@@V<lambda_2358e3775559c9db80273638284d5e45>@@@?$__crt_seh_guarded_call@X@@QEAAX$$QEAV<lambda_d80eeec6fff315bfe5c115232f3240e3>@@AEAV<lambda_6e4b09c48022b2350581041d5f6b0c4c>@@$$QEAV<lambda_2358e3775559c9db80273638284d5e45>@@@Z@4HA 000000018002d4fc     libucrt:exit.obj
 0002:0000b4fc       $unwind$?fin$0@?0???$?RV<lambda_638799b9deba96c50f710eeac98168cd>@@AEAV<lambda_22ebabd17bc4fa466a2aca6d8deb888d>@@V<lambda_a6f7d7db0129f75315ebf26d50c089f1>@@@?$__crt_seh_guarded_call@H@@QEAAH$$QEAV<lambda_638799b9deba96c50f710eeac98168cd>@@AEAV<lambda_22ebabd17bc4fa466a2aca6d8deb888d>@@$$QEAV<lambda_a6f7d7db0129f75315ebf26d50c089f1>@@@Z@4HA 000000018002d4fc     libucrt:onexit.obj
 0002:0000b4fc       $unwind$?fin$0@?0???$?RV<lambda_7777bce6b2f8c936911f934f8298dc43>@@AEAV<lambda_f03950bc5685219e0bcd2087efbe011e>@@V<lambda_3883c3dff614d5e0c5f61bb1ac94921c>@@@?$__crt_seh_guarded_call@H@@QEAAH$$QEAV<lambda_7777bce6b2f8c936911f934f8298dc43>@@AEAV<lambda_f03950bc5685219e0bcd2087efbe011e>@@$$QEAV<lambda_3883c3dff614d5e0c5f61bb1ac94921c>@@@Z@4HA 000000018002d4fc     libucrt:onexit.obj
 0002:0000b4fc       $unwind$_fcloseall$fin$0   000000018002d4fc     libucrt:closeall.obj
 0002:0000b4fc       $unwind$fclose$fin$0       000000018002d4fc     libucrt:fclose.obj
 0002:0000b4fc       $unwind$?fin$0@?0???$?RV<lambda_842d9ff0dc9ef11c61343bbaebe7f885>@@AEAV<lambda_c5860995281e5c4ce005b3de8f5874ee>@@V<lambda_d90129c13df834fdcbf8d2b88dafcf2d>@@@?$__crt_seh_guarded_call@X@@QEAAX$$QEAV<lambda_842d9ff0dc9ef11c61343bbaebe7f885>@@AEAV<lambda_c5860995281e5c4ce005b3de8f5874ee>@@$$QEAV<lambda_d90129c13df834fdcbf8d2b88dafcf2d>@@@Z@4HA 000000018002d4fc     libucrt:fflush.obj
 0002:0000b4fc       $unwind$?fin$0@?0???$?RV<lambda_886d6c58226a84441f68b9f2b8217b83>@@AEAV<lambda_ab61a845afdef5b7c387490eaf3616ee>@@V<lambda_f7f22ab5edc0698d5f6905b0d3f44752>@@@?$__crt_seh_guarded_call@X@@QEAAX$$QEAV<lambda_886d6c58226a84441f68b9f2b8217b83>@@AEAV<lambda_ab61a845afdef5b7c387490eaf3616ee>@@$$QEAV<lambda_f7f22ab5edc0698d5f6905b0d3f44752>@@@Z@4HA 000000018002d4fc     libucrt:fflush.obj
 0002:0000b4fc       $unwind$_ctrlfp$filt$0     000000018002d4fc     libucrt:fpctrl.obj
 0002:0000b504       $unwind$?AtlInternalOleLoadFromStream@ATL@@YAJPEAUIStream@@AEBU_GUID@@PEAPEAXTClassesAllowedInStream@1@K@Z 000000018002d504     PINPad.obj
 0002:0000b520       $unwind$?ReadFromStream@CComBSTR@ATL@@QEAAJPEAUIStream@@@Z 000000018002d520     PINPad.obj
 0002:0000b520       $unwind$_configure_narrow_argv 000000018002d520     libucrt:argv_parsing.obj
 0002:0000b534       $unwind$?WriteToStream@CComVariant@ATL@@QEAAJPEAUIStream@@@Z 000000018002d534     PINPad.obj
 0002:0000b548       $unwind$?RegOpenKeyExW@CAtlTransactionManager@ATL@@QEAAJPEAUHKEY__@@PEB_WKKPEAPEAU3@@Z 000000018002d548     PINPad.obj
 0002:0000b548       $unwind$?WriteToStream@CComVariant@ATL@@QEAAJPEAUIStream@@G@Z 000000018002d548     PINPad.obj
 0002:0000b548       $unwind$__dcrt_write_console 000000018002d548     libucrt:initcon.obj
 0002:0000b548       $unwind$??$__acrt_wcs_to_mbs_cp@U__crt_win32_buffer_no_resizing@@@@YAHQEB_WAEAV?$__crt_win32_buffer@DU__crt_win32_buffer_no_resizing@@@@I@Z 000000018002d548     libucrt:getmodulefilenamea.obj
 0002:0000b55c       $unwind$?ReadFromStream@CComVariant@ATL@@QEAAJPEAUIStream@@GTClassesAllowedInStream@2@K@Z 000000018002d55c     PINPad.obj
 0002:0000b574       $unwind$?GetSizeMax@CComVariant@ATL@@QEBAJPEAT_ULARGE_INTEGER@@@Z 000000018002d574     PINPad.obj
 0002:0000b58c       $unwind$?RegCreateKeyExW@CAtlTransactionManager@ATL@@QEAAJPEAUHKEY__@@PEB_WKPEA_WKKQEAU_SECURITY_ATTRIBUTES@@PEAPEAU3@PEAK@Z 000000018002d58c     PINPad.obj
 0002:0000b58c       $unwind$__acrt_fp_format   000000018002d58c     libucrt:cvt.obj
 0002:0000b5a0       $unwind$?GetGITPtr@CAtlModule@ATL@@UEAAJPEAPEAUIGlobalInterfaceTable@@@Z 000000018002d5a0     PINPad.obj
 0002:0000b5a0       $unwind$?RegDeleteKeyW@CAtlTransactionManager@ATL@@QEAAJPEAUHKEY__@@PEB_W@Z 000000018002d5a0     PINPad.obj
 0002:0000b5a0       $unwind$strpbrk            000000018002d5a0     libucrt:strpbrk.obj
 0002:0000b5b0       $unwind$?AtlHiMetricToPixel@ATL@@YAXPEBUtagSIZE@@PEAU2@@Z 000000018002d5b0     PINPad.obj
 0002:0000b5b0       $unwind$?AtlInternalQueryInterface@ATL@@YAJPEAXPEBU_ATL_INTMAP_ENTRY@1@AEBU_GUID@@PEAPEAX@Z 000000018002d5b0     PINPad.obj
 0002:0000b5c8       $unwind$?Append@CParseBuffer@CRegParser@ATL@@QEAAHPEB_WH@Z 000000018002d5c8     PINPad.obj
 0002:0000b5c8       $unwind$?AtlComModuleGetClassObject@ATL@@YAJPEAU_ATL_COM_MODULE70@1@AEBU_GUID@@1PEAPEAX@Z 000000018002d5c8     PINPad.obj
 0002:0000b5c8       $unwind$?EnumConnections@?$IConnectionPointImpl@VCOPOSPINPad@@$1?DIID__IOPOSPINPadEvents@@3U_GUID@@BVCComDynamicUnkArray@ATL@@@ATL@@UEAAJPEAPEAUIEnumConnections@@@Z 000000018002d5c8     PINPad.obj
 0002:0000b5c8       $unwind$?EnumConnections@?$IConnectionPointImpl@VCOPOSPINPad@@$1?IID_IPropertyNotifySink@@3U_GUID@@BVCComDynamicUnkArray@ATL@@@ATL@@UEAAJPEAPEAUIEnumConnections@@@Z 000000018002d5c8     PINPad.obj
 0002:0000b5c8       $unwind$?GetClassObject@CComModule@ATL@@QEAAJAEBU_GUID@@0PEAPEAX@Z 000000018002d5c8     PINPad.obj
 0002:0000b5c8       $unwind$?Init@?$CComEnumImpl@UIEnumConnectionPoints@@$1?_GUID_b196b285_bab4_101a_b69c_00aa00341d07@@3U__s_GUID@@BPEAUIConnectionPoint@@V?$_CopyInterface@UIConnectionPoint@@@ATL@@@ATL@@QEAAJPEAPEAUIConnectionPoint@@0PEAUIUnknown@@W4CComEnumFlags@2@@Z 000000018002d5c8     PINPad.obj
 0002:0000b5c8       $unwind$?Init@?$CComEnumImpl@UIEnumConnections@@$1?_GUID_b196b287_bab4_101a_b69c_00aa00341d07@@3U__s_GUID@@BUtagCONNECTDATA@@V?$_Copy@UtagCONNECTDATA@@@ATL@@@ATL@@QEAAJPEAUtagCONNECTDATA@@0PEAUIUnknown@@W4CComEnumFlags@2@@Z 000000018002d5c8     PINPad.obj
 0002:0000b5c8       $unwind$?NextToken@CRegParser@ATL@@IEAAJPEA_W@Z 000000018002d5c8     PINPad.obj
 0002:0000b5c8       $unwind$__acrt_DownlevelLocaleNameToLCID 000000018002d5c8     libucrt:lcidtoname_downlevel.obj
 0002:0000b5c8       $unwind$??R<lambda_f03950bc5685219e0bcd2087efbe011e>@@QEBAHXZ 000000018002d5c8     libucrt:onexit.obj
 0002:0000b5c8       $unwind$?type_case_integer@?$output_processor@_WV?$string_output_adapter@_W@__crt_stdio_output@@V?$format_validation_base@_WV?$string_output_adapter@_W@__crt_stdio_output@@@2@@__crt_stdio_output@@AEAA_NI_N@Z 000000018002d5c8     libucrt:output.obj
 0002:0000b5e0       $unwind$?AtlRegisterClassCategoriesHelper@ATL@@YAJAEBU_GUID@@PEBU_ATL_CATMAP_ENTRY@1@H@Z 000000018002d5e0     PINPad.obj
 0002:0000b604       $unwind$?AtlLoadTypeLib@ATL@@YAJPEAUHINSTANCE__@@PEB_WPEAPEA_WPEAPEAUITypeLib@@@Z 000000018002d604     PINPad.obj
 0002:0000b624       $unwind$?AtlRegisterTypeLib@ATL@@YAJPEAUHINSTANCE__@@PEB_W@Z 000000018002d624     PINPad.obj
 0002:0000b640       $unwind$?AtlUnRegisterTypeLib@ATL@@YAJPEAUHINSTANCE__@@PEB_W@Z 000000018002d640     PINPad.obj
 0002:0000b648       $unwind$?GetTI@CComTypeInfoHolder@ATL@@QEAAJK@Z 000000018002d648     PINPad.obj
 0002:0000b648       $unwind$?RecurseDeleteKey@CRegKey@ATL@@QEAAJPEB_W@Z 000000018002d648     PINPad.obj
 0002:0000b668       $unwind$?UpdateRegistryFromResource@CAtlModule@ATL@@QEAAJIHPEAU_ATL_REGMAP_ENTRY@2@@Z 000000018002d668     PINPad.obj
 0002:0000b668       $unwind$?UpdateRegistryFromResource@CAtlModule@ATL@@QEAAJPEB_WHPEAU_ATL_REGMAP_ENTRY@2@@Z 000000018002d668     PINPad.obj
 0002:0000b688       $unwind$?Lookup@?$CSimpleMap@PEA_WPEA_WVCExpansionVectorEqualHelper@ATL@@@ATL@@QEBAPEA_WAEBQEA_W@Z 000000018002d688     PINPad.obj
 0002:0000b688       $unwind$__std_exception_copy 000000018002d688     libvcruntime:std_exception.obj
 0002:0000b688       $unwind$_free_osfhnd       000000018002d688     libucrt:osfinfo.obj
 0002:0000b69c       $unwind$?Add@CExpansionVector@ATL@@QEAAHPEB_W0@Z 000000018002d69c     PINPad.obj
 0002:0000b6b4       $unwind$?PreProcessBuffer@CRegParser@ATL@@QEAAJPEA_WPEAPEA_W@Z 000000018002d6b4     PINPad.obj
 0002:0000b6d8       $unwind$?RegisterBuffer@CRegParser@ATL@@QEAAJPEA_WH@Z 000000018002d6d8     PINPad.obj
 0002:0000b6f8       $unwind$?AddValue@CRegParser@ATL@@IEAAJAEAVCRegKey@2@PEB_WPEA_W@Z 000000018002d6f8     PINPad.obj
 0002:0000b718       $unwind$?RegisterSubkeys@CRegParser@ATL@@IEAAJPEA_WPEAUHKEY__@@HH@Z 000000018002d718     PINPad.obj
 0002:0000b738       $unwind$?SkipAssignment@CRegParser@ATL@@IEAAJPEA_W@Z 000000018002d738     PINPad.obj
 0002:0000b750       $unwind$?RegisterFromResource@CRegObject@ATL@@IEAAJPEB_W00H@Z 000000018002d750     PINPad.obj
 0002:0000b770       $unwind$?Cleanup@CComTypeInfoHolder@ATL@@SAX_K@Z 000000018002d770     PINPad.obj
 0002:0000b770       $unwind$AtlThunk_FreeData  000000018002d770     atls:atlthunk.obj
 0002:0000b770       $unwind$_free_base         000000018002d770     libucrt:free_base.obj
 0002:0000b770       $unwind$?destroy_fls@@YAXPEAX@Z 000000018002d770     libucrt:per_thread_data.obj
 0002:0000b770       $unwind$__acrt_locale_free_numeric 000000018002d770     libucrt:initnum.obj
 0002:0000b770       $unwind$__acrt_locale_free_lc_time_if_unreferenced 000000018002d770     libucrt:locale_refcounting.obj
 0002:0000b778       $unwind$?GetIDsOfNames@CComTypeInfoHolder@ATL@@QEAAJAEBU_GUID@@PEAPEA_WIKPEAJ@Z 000000018002d778     PINPad.obj
 0002:0000b794       $unwind$?LoadNameCache@CComTypeInfoHolder@ATL@@QEAAJPEAUITypeInfo@@@Z 000000018002d794     PINPad.obj
 0002:0000b7a8       $unwind$?StartWindowProc@?$CWindowImplBaseT@VCWindow@ATL@@V?$CWinTraits@$0FGAAAAAA@$0A@@2@@ATL@@SA_JPEAUHWND__@@I_K_J@Z 000000018002d7a8     PINPad.obj
 0002:0000b7a8       $unwind$??$parse_command_line@D@@YAXPEADPEAPEAD0PEA_K2@Z 000000018002d7a8     libucrt:argv_parsing.obj
 0002:0000b7c4       $unwind$?WindowProc@?$CWindowImplBaseT@VCWindow@ATL@@V?$CWinTraits@$0FGAAAAAA@$0A@@2@@ATL@@SA_JPEAUHWND__@@I_K_J@Z 000000018002d7c4     PINPad.obj
 0002:0000b7dc       $unwind$?atlCreate@?$CWindowImplBaseT@VCWindow@ATL@@V?$CWinTraits@$0FGAAAAAA@$0A@@2@@ATL@@QEAAPEAUHWND__@@PEAU3@V_U_RECT@2@PEB_WKKV_U_MENUorID@2@GPEAX@Z 000000018002d7dc     PINPad.obj
 0002:0000b7f4       $unwind$??$AtlModuleRegisterWndClassInfoT@VAtlModuleRegisterWndClassInfoParamW@ATL@@@ATL@@YAGPEAU_ATL_BASE_MODULE70@0@PEAU_ATL_WIN_MODULE70@0@PEAU_ATL_WNDCLASSINFOW@0@PEAP6A_JPEAUHWND__@@I_K_J@ZVAtlModuleRegisterWndClassInfoParamW@0@@Z 000000018002d7f4     PINPad.obj
 0002:0000b814       $unwind$?GetZoomInfo@CComControlBase@ATL@@QEAAXAEAUATL_DRAWINFO@@@Z 000000018002d814     PINPad.obj
 0002:0000b814       $unwind$?OnKillFocus@CComControlBase@ATL@@QEAA_JI_K_JAEAH@Z 000000018002d814     PINPad.obj
 0002:0000b814       $unwind$iswctype           000000018002d814     libucrt:iswctype.obj
 0002:0000b820       $unwind$?SendOnDataChange@CComControlBase@ATL@@QEAAJK@Z 000000018002d820     PINPad.obj
 0002:0000b830       $unwind$?OnSetFocus@CComControlBase@ATL@@QEAA_JI_K_JAEAH@Z 000000018002d830     PINPad.obj
 0002:0000b840       $unwind$?OnMouseActivate@CComControlBase@ATL@@QEAA_JI_K_JAEAH@Z 000000018002d840     PINPad.obj
 0002:0000b848       $unwind$?GetAmbientLocaleID@CComControlBase@ATL@@QEAAJAEAK@Z 000000018002d848     PINPad.obj
 0002:0000b848       $unwind$?GetAmbientUserMode@CComControlBase@ATL@@QEAAJAEAH@Z 000000018002d848     PINPad.obj
 0002:0000b858       $unwind$?IQuickActivate_QuickActivate@CComControlBase@ATL@@QEAAJPEAUtagQACONTAINER@@PEAUtagQACONTROL@@@Z 000000018002d858     PINPad.obj
 0002:0000b870       $unwind$?DoVerbProperties@CComControlBase@ATL@@QEAAJPEBUtagRECT@@PEAUHWND__@@@Z 000000018002d870     PINPad.obj
 0002:0000b888       $unwind$?InPlaceActivate@CComControlBase@ATL@@QEAAJJPEBUtagRECT@@@Z 000000018002d888     PINPad.obj
 0002:0000b8a8       $unwind$?IOleObject_Close@CComControlBase@ATL@@QEAAJK@Z 000000018002d8a8     PINPad.obj
 0002:0000b8a8       $unwind$?type_case_c_tchar@?$output_processor@_WV?$string_output_adapter@_W@__crt_stdio_output@@V?$format_validation_base@_WV?$string_output_adapter@_W@__crt_stdio_output@@@2@@__crt_stdio_output@@AEAA_N_W@Z 000000018002d8a8     libucrt:output.obj
 0002:0000b8b8       $unwind$?IOleInPlaceObject_UIDeactivate@CComControlBase@ATL@@QEAAJXZ 000000018002d8b8     PINPad.obj
 0002:0000b8d0       $unwind$?IOleInPlaceObject_SetObjectRects@CComControlBase@ATL@@QEAAJPEBUtagRECT@@0@Z 000000018002d8d0     PINPad.obj
 0002:0000b8e4       $unwind$?IViewObject_Draw@CComControlBase@ATL@@QEAAJKJPEAXPEAUtagDVTARGETDEVICE@@PEAUHDC__@@2PEBU_RECTL@@3@Z 000000018002d8e4     PINPad.obj
 0002:0000b900       $unwind$?IDataObject_GetData@CComControlBase@ATL@@QEAAJPEAUtagFORMATETC@@PEAUtagSTGMEDIUM@@@Z 000000018002d900     PINPad.obj
 0002:0000b920       $unwind$?OnPaint@CComControlBase@ATL@@QEAA_JI_K_JAEAH@Z 000000018002d920     PINPad.obj
 0002:0000b93c       $unwind$?OnDrawAdvanced@CComControlBase@ATL@@UEAAJAEAUATL_DRAWINFO@@@Z 000000018002d93c     PINPad.obj
 0002:0000b958       $unwind$?Invoke@?$IDispatchImpl@UIOPOSPINPad@@$1?IID_IOPOSPINPad@@3U_GUID@@B$1?LIBID_OposPINPad_CCO@@3U3@B$00$0A@VCComTypeInfoHolder@ATL@@@ATL@@UEAAJJAEBU_GUID@@KGPEAUtagDISPPARAMS@@PEAUtagVARIANT@@PEAUtagEXCEPINFO@@PEAI@Z 000000018002d958     PINPad.obj
 0002:0000b958       $unwind$?ReleaseDevice@COPOSPINPad@@UEAAJPEAJ@Z 000000018002d958     PINPadImpl.obj
 0002:0000b958       $unwind$_mbsdec_l          000000018002d958     libucrt:mbsdec.obj
 0002:0000b964       $unwind$?atlCreate@?$CWindowImpl@VCOPOSPINPad@@VCWindow@ATL@@V?$CWinTraits@$0FGAAAAAA@$0A@@3@@ATL@@QEAAPEAUHWND__@@PEAU3@V_U_RECT@2@PEB_WKKV_U_MENUorID@2@PEAX@Z 000000018002d964     PINPad.obj
 0002:0000b964       $unwind$?fp_format_e@@YAHQEBNQEAD_K12H_NIQEAU__crt_locale_pointers@@@Z 000000018002d964     libucrt:cvt.obj
 0002:0000b964       $unwind$_mbtowc_l          000000018002d964     libucrt:mbtowc.obj
 0002:0000b964       $unwind$__acrt_LCMapStringEx 000000018002d964     libucrt:winapi_thunks.obj
 0002:0000b978       $unwind$?CreateControlWindow@?$CComControl@VCOPOSPINPad@@V?$CWindowImpl@VCOPOSPINPad@@VCWindow@ATL@@V?$CWinTraits@$0FGAAAAAA@$0A@@3@@ATL@@@ATL@@UEAAPEAUHWND__@@PEAU3@AEAUtagRECT@@@Z 000000018002d978     PINPad.obj
 0002:0000b978       $unwind$?ClearInput@COPOSPINPad@@UEAAJPEAJ@Z 000000018002d978     PINPadImpl.obj
 0002:0000b978       $unwind$?ClearInputProperties@COPOSPINPad@@UEAAJPEAJ@Z 000000018002d978     PINPadImpl.obj
 0002:0000b978       $unwind$?EnablePINEntry@COPOSPINPad@@UEAAJPEAJ@Z 000000018002d978     PINPadImpl.obj
 0002:0000b978       $unwind$?__scrt_throw_std_bad_alloc@@YAXXZ 000000018002d978     LIBCMT:throw_bad_alloc.obj
 0002:0000b978       $unwind$?__scrt_throw_std_bad_array_new_length@@YAXXZ 000000018002d978     LIBCMT:throw_bad_alloc.obj
 0002:0000b978       $unwind$_raise_exc         000000018002d978     libucrt:fpexcept.obj
 0002:0000b980       $unwind$?GetSizeMax@?$IPersistStreamInitImpl@VCOPOSPINPad@@@ATL@@UEAAJPEAT_ULARGE_INTEGER@@@Z 000000018002d980     PINPad.obj
 0002:0000b998       $unwind$?IPersistStreamInit_Load@?$IPersistStreamInitImpl@VCOPOSPINPad@@@ATL@@QEAAJPEAUIStream@@PEBUATL_PROPMAP_ENTRY@2@@Z 000000018002d998     PINPad.obj
 0002:0000b9b4       $unwind$?IPersistStreamInit_Save@?$IPersistStreamInitImpl@VCOPOSPINPad@@@ATL@@QEAAJPEAUIStream@@HPEBUATL_PROPMAP_ENTRY@2@@Z 000000018002d9b4     PINPad.obj
 0002:0000b9d0       $unwind$?DoVerbPrimary@?$IOleObjectImpl@VCOPOSPINPad@@@ATL@@QEAAJPEBUtagRECT@@PEAUHWND__@@@Z 000000018002d9d0     PINPad.obj
 0002:0000b9e8       $unwind$?TranslateAcceleratorW@?$IOleInPlaceActiveObjectImpl@VCOPOSPINPad@@@ATL@@UEAAJPEAUtagMSG@@@Z 000000018002d9e8     PINPad.obj
 0002:0000b9f4       $unwind$?Draw@?$IViewObjectExImpl@VCOPOSPINPad@@@ATL@@UEAAJKJPEAXPEAUtagDVTARGETDEVICE@@PEAUHDC__@@2PEBU_RECTL@@3P6AH_K@Z4@Z 000000018002d9f4     PINPad.obj
 0002:0000b9fc       $unwind$?QueryHitRect@?$IViewObjectExImpl@VCOPOSPINPad@@@ATL@@UEAAJKPEBUtagRECT@@0JPEAK@Z 000000018002d9fc     PINPad.obj
 0002:0000ba0c       $unwind$?OnWindowMessage@?$IOleInPlaceObjectWindowlessImpl@VCOPOSPINPad@@@ATL@@UEAAJI_K_JPEA_J@Z 000000018002da0c     PINPad.obj
 0002:0000ba20       $unwind$?EnumConnectionPoints@?$IConnectionPointContainerImpl@VCOPOSPINPad@@@ATL@@UEAAJPEAPEAUIEnumConnectionPoints@@@Z 000000018002da20     PINPad.obj
 0002:0000ba48       $unwind$?FindConnectionPoint@?$IConnectionPointContainerImpl@VCOPOSPINPad@@@ATL@@UEAAJAEBU_GUID@@PEAPEAUIConnectionPoint@@@Z 000000018002da48     PINPad.obj
 0002:0000ba48       $unwind$?__mbrtoc32_utf8@__crt_mbstring@@YA_KPEA_UPEBD_KPEAU_Mbstatet@@@Z 000000018002da48     libucrt:mbrtoc32.obj
 0002:0000ba64       $unwind$?Load@?$IPersistStorageImpl@VCOPOSPINPad@@@ATL@@UEAAJPEAUIStorage@@@Z 000000018002da64     PINPad.obj
 0002:0000ba74       $unwind$?Save@?$IPersistStorageImpl@VCOPOSPINPad@@@ATL@@UEAAJPEAUIStorage@@H@Z 000000018002da74     PINPad.obj
 0002:0000ba88       $unwind$?IPSI_GetIPersistStreamInit@?$IPersistStorageImpl@VCOPOSPINPad@@@ATL@@AEAAPEAUIPersistStreamInit@@XZ 000000018002da88     PINPad.obj
 0002:0000ba88       $unwind$?parse_int_from_format_string@?$output_processor@_WV?$string_output_adapter@_W@__crt_stdio_output@@V?$format_validation_base@_WV?$string_output_adapter@_W@__crt_stdio_output@@@2@@__crt_stdio_output@@AEAA_NQEAH@Z 000000018002da88     libucrt:output.obj
 0002:0000ba9c       $unwind$?GetInterfaceSafetyOptions@?$IObjectSafetyImpl@VCOPOSPINPad@@$02@ATL@@UEAAJAEBU_GUID@@PEAK1@Z 000000018002da9c     PINPad.obj
 0002:0000bab0       $unwind$?SetInterfaceSafetyOptions@?$IObjectSafetyImpl@VCOPOSPINPad@@$02@ATL@@UEAAJAEBU_GUID@@KK@Z 000000018002dab0     PINPad.obj
 0002:0000bac4       $unwind$?Advise@?$IConnectionPointImpl@VCOPOSPINPad@@$1?DIID__IOPOSPINPadEvents@@3U_GUID@@BVCComDynamicUnkArray@ATL@@@ATL@@UEAAJPEAUIUnknown@@PEAK@Z 000000018002dac4     PINPad.obj
 0002:0000bac4       $unwind$?Advise@?$IConnectionPointImpl@VCOPOSPINPad@@$1?IID_IPropertyNotifySink@@3U_GUID@@BVCComDynamicUnkArray@ATL@@@ATL@@UEAAJPEAUIUnknown@@PEAK@Z 000000018002dac4     PINPad.obj
 0002:0000bad8       $unwind$?Fire_DataEvent@?$CProxy_IOPOSEvents@VCOPOSPINPad@@@@QEAAXJ@Z 000000018002dad8     PINPad.obj
 0002:0000bad8       $unwind$?Fire_StatusUpdateEvent@?$CProxy_IOPOSEvents@VCOPOSPINPad@@@@QEAAXJ@Z 000000018002dad8     PINPad.obj
 0002:0000bad8       $unwind$??$__InternalCxxFrameHandler@V__FrameHandler3@@@@YA?AW4_EXCEPTION_DISPOSITION@@PEAUEHExceptionRecord@@PEA_KPEAU_CONTEXT@@PEAU_xDISPATCHER_CONTEXT@@PEBU_s_FuncInfo@@H1E@Z 000000018002dad8     libvcruntime:frame.obj
 0002:0000baf0       $unwind$?Fire_DirectIOEvent@?$CProxy_IOPOSEvents@VCOPOSPINPad@@@@QEAAXJPEAJPEAPEA_W@Z 000000018002daf0     PINPad.obj
 0002:0000bb10       $unwind$?Fire_ErrorEvent@?$CProxy_IOPOSEvents@VCOPOSPINPad@@@@QEAAXJJJPEAJ@Z 000000018002db10     PINPad.obj
 0002:0000bb30       $unwind$?FireTheEvent@?$CProxy_IOPOSEvents@VCOPOSPINPad@@@@IEAAXPEAVOposVariant@@IAEAJPEB_WJ@Z 000000018002db30     PINPad.obj
 0002:0000bb40       $unwind$?ProcessWindowMessage@COPOSPINPad@@UEAAHPEAUHWND__@@I_K_JAEA_JK@Z 000000018002db40     PINPad.obj
 0002:0000bb40       $unwind$__dcrt_get_narrow_environment_from_os 000000018002db40     libucrt:get_environment_from_os.obj
 0002:0000bb40       $unwind$?fp_format_f_internal@@YAHQEAD_KHQEAU_strflt@@_NQEAU__crt_locale_pointers@@@Z 000000018002db40     libucrt:cvt.obj
 0002:0000bb40       $unwind$??$__acrt_wcs_to_mbs_cp@U__crt_win32_buffer_internal_dynamic_resizing@@@@YAHQEB_WAEAV?$__crt_win32_buffer@DU__crt_win32_buffer_internal_dynamic_resizing@@@@I@Z 000000018002db40     libucrt:argv_wildcards.obj
 0002:0000bb58       $unwind$?SOError@COPOSPINPad@@MEAAJJJJPEAJ@Z 000000018002db58     PINPad.obj
 0002:0000bb58       $unwind$_invalid_parameter 000000018002db58     libucrt:invalid_parameter.obj
 0002:0000bb6c       $unwind$?Clone@?$CComEnumImpl@UIEnumConnectionPoints@@$1?_GUID_b196b285_bab4_101a_b69c_00aa00341d07@@3U__s_GUID@@BPEAUIConnectionPoint@@V?$_CopyInterface@UIConnectionPoint@@@ATL@@@ATL@@UEAAJPEAPEAUIEnumConnectionPoints@@@Z 000000018002db6c     PINPad.obj
 0002:0000bb6c       $unwind$?Clone@?$CComEnumImpl@UIEnumConnections@@$1?_GUID_b196b287_bab4_101a_b69c_00aa00341d07@@3U__s_GUID@@BUtagCONNECTDATA@@V?$_Copy@UtagCONNECTDATA@@@ATL@@@ATL@@UEAAJPEAPEAUIEnumConnections@@@Z 000000018002db6c     PINPad.obj
 0002:0000bb84       $unwind$?GetOposProp@COPOSPINPad@@IEAAJJPEAJJ@Z 000000018002db84     PINPadImpl.obj
 0002:0000bb84       $unwind$?GetOposProp@COPOSPINPad@@IEAAJJPEAPEA_WJ@Z 000000018002db84     PINPadImpl.obj
 0002:0000bb9c       $unwind$?SetOposProp@COPOSPINPad@@IEAAJJJJ@Z 000000018002db9c     PINPadImpl.obj
 0002:0000bbbc       $unwind$?SetOposProp@COPOSPINPad@@IEAAJJPEA_WJ@Z 000000018002dbbc     PINPadImpl.obj
 0002:0000bbd8       $unwind$?DoInvoke@COPOSPINPad@@IEAAJJPEAVOposVariant@@IHPEAJ_N@Z 000000018002dbd8     PINPadImpl.obj
 0002:0000bbf0       $unwind$?SetCOFreezeEvents@COPOSPINPad@@IEAAXF@Z 000000018002dbf0     PINPadImpl.obj
 0002:0000bc04       $unwind$?OnDraw@COPOSPINPad@@MEAAJAEAUATL_DRAWINFO@@@Z 000000018002dc04     PINPadImpl.obj
 0002:0000bc1c       $unwind$?EventInit@COPOSPINPad@@IEAAJXZ 000000018002dc1c     PINPadImpl.obj
 0002:0000bc30       $unwind$?EventWindowProc@COPOSPINPad@@IEAA_JI_K_J@Z 000000018002dc30     PINPadImpl.obj
 0002:0000bc40       $unwind$?get_ControlObjectDescription@COPOSPINPad@@UEAAJPEAPEA_W@Z 000000018002dc40     PINPadImpl.obj
 0002:0000bc40       $unwind$__dcrt_lowio_ensure_console_output_initialized 000000018002dc40     libucrt:initcon.obj
 0002:0000bc40       $unwind$_isleadbyte_l      000000018002dc40     libucrt:_wctype.obj
 0002:0000bc40       $unwind$?getSystemCP@@YAHH@Z 000000018002dc40     libucrt:mbctype.obj
 0002:0000bc48       $unwind$?CheckHealth@COPOSPINPad@@UEAAJJPEAJ@Z 000000018002dc48     PINPadImpl.obj
 0002:0000bc48       $unwind$?EndEFTTransaction@COPOSPINPad@@UEAAJJPEAJ@Z 000000018002dc48     PINPadImpl.obj
 0002:0000bc48       $unwind$?ResetStatistics@COPOSPINPad@@UEAAJPEA_WPEAJ@Z 000000018002dc48     PINPadImpl.obj
 0002:0000bc48       $unwind$?RetrieveStatistics@COPOSPINPad@@UEAAJPEAPEA_WPEAJ@Z 000000018002dc48     PINPadImpl.obj
 0002:0000bc48       $unwind$?UpdateFirmware@COPOSPINPad@@UEAAJPEA_WPEAJ@Z 000000018002dc48     PINPadImpl.obj
 0002:0000bc48       $unwind$?UpdateStatistics@COPOSPINPad@@UEAAJPEA_WPEAJ@Z 000000018002dc48     PINPadImpl.obj
 0002:0000bc48       $unwind$?VerifyMAC@COPOSPINPad@@UEAAJPEA_WPEAJ@Z 000000018002dc48     PINPadImpl.obj
 0002:0000bc58       $unwind$?ClaimDevice@COPOSPINPad@@UEAAJJPEAJ@Z 000000018002dc58     PINPadImpl.obj
 0002:0000bc68       $unwind$?Close@COPOSPINPad@@UEAAJPEAJ@Z 000000018002dc68     PINPadImpl.obj
 0002:0000bc74       $unwind$?DirectIO@COPOSPINPad@@UEAAJJPEAJPEAPEA_W0@Z 000000018002dc74     PINPadImpl.obj
 0002:0000bc90       $unwind$?Open@COPOSPINPad@@UEAAJPEA_WPEAJ@Z 000000018002dc90     PINPadImpl.obj
 0002:0000bcb4       $unwind$?get_Amount@COPOSPINPad@@UEAAJPEATtagCY@@@Z 000000018002dcb4     PINPadImpl.obj
 0002:0000bcc8       $unwind$?put_Amount@COPOSPINPad@@UEAAJTtagCY@@@Z 000000018002dcc8     PINPadImpl.obj
 0002:0000bce0       $unwind$?BeginEFTTransaction@COPOSPINPad@@UEAAJPEA_WJPEAJ@Z 000000018002dce0     PINPadImpl.obj
 0002:0000bce0       $unwind$?CompareFirmwareVersion@COPOSPINPad@@UEAAJPEA_WPEAJ1@Z 000000018002dce0     PINPadImpl.obj
 0002:0000bce0       $unwind$?ComputeMAC@COPOSPINPad@@UEAAJPEA_WPEAPEA_WPEAJ@Z 000000018002dce0     PINPadImpl.obj
 0002:0000bce0       $unwind$?UpdateKey@COPOSPINPad@@UEAAJJPEA_WPEAJ@Z 000000018002dce0     PINPadImpl.obj
 0002:0000bce0       $unwind$?initialize_inherited_file_handles_nolock@@YAXXZ 000000018002dce0     libucrt:ioinit.obj
 0002:0000bcfc       $unwind$__scrt_is_nonwritable_in_current_image 000000018002dcfc     LIBCMT:utility.obj
 0002:0000bd1c       $unwind$__scrt_is_nonwritable_in_current_image$filt$0 000000018002dd1c     LIBCMT:utility.obj
 0002:0000bd24       $unwind$__report_securityfailure 000000018002dd24     LIBCMT:gs_report.obj
 0002:0000bd2c       $unwind$__report_gsfailure 000000018002dd2c     LIBCMT:gs_report.obj
 0002:0000bd34       $unwind$capture_current_context 000000018002dd34     LIBCMT:gs_report.obj
 0002:0000bd40       $unwind$capture_previous_context 000000018002dd40     LIBCMT:gs_report.obj
 0002:0000bd4c       $unwind$??2@YAPEAX_KAEBUnothrow_t@std@@@Z 000000018002dd4c     LIBCMT:new_scalar_nothrow.obj
 0002:0000bd5c       $stateUnwindMap$??2@YAPEAX_KAEBUnothrow_t@std@@@Z 000000018002dd5c     LIBCMT:new_scalar_nothrow.obj
 0002:0000bd6c       $tryMap$??2@YAPEAX_KAEBUnothrow_t@std@@@Z 000000018002dd6c     LIBCMT:new_scalar_nothrow.obj
 0002:0000bd80       $handlerMap$0$??2@YAPEAX_KAEBUnothrow_t@std@@@Z 000000018002dd80     LIBCMT:new_scalar_nothrow.obj
 0002:0000bd98       $ip2state$??2@YAPEAX_KAEBUnothrow_t@std@@@Z 000000018002dd98     LIBCMT:new_scalar_nothrow.obj
 0002:0000bda0       $unwind$?catch$0@?0???2@YAPEAX_KAEBUnothrow_t@std@@@Z@4HA 000000018002dda0     LIBCMT:new_scalar_nothrow.obj
 0002:0000bdb0       $unwind$__GSHandlerCheckCommon 000000018002ddb0     LIBCMT:gshandler.obj
 0002:0000bdb0       $unwind$__acrt_WideCharToMultiByte 000000018002ddb0     libucrt:widechartomultibyte.obj
 0002:0000bdb8       $xdatasym                  000000018002ddb8     LIBCMT:chkstk.obj
 0002:0000bdc0       $xdatasym                  000000018002ddc0     LIBCMT:amdsecgs.obj
 0002:0000bdc4       $unwind$?dllmain_crt_process_attach@@YAHQEAUHINSTANCE__@@QEAX@Z 000000018002ddc4     LIBCMT:dll_dllmain.obj
 0002:0000be00       $unwind$?dllmain_crt_process_detach@@YAH_N@Z 000000018002de00     LIBCMT:dll_dllmain.obj
 0002:0000be54       $unwind$?dllmain_dispatch@@YAHQEAUHINSTANCE__@@KQEAX@Z 000000018002de54     LIBCMT:dll_dllmain.obj
 0002:0000be7c       $unwind$?filt$0@?0??dllmain_dispatch@@YAHQEAUHINSTANCE__@@KQEAX@Z@4HA 000000018002de7c     LIBCMT:dll_dllmain.obj
 0002:0000be84       $unwind$__isa_available_init 000000018002de84     LIBCMT:cpu_disp.obj
 0002:0000be94       $unwind$__scrt_fastfail    000000018002de94     LIBCMT:utility_desktop.obj
 0002:0000bea4       $unwind$__security_init_cookie 000000018002dea4     LIBCMT:gs_support.obj
 0002:0000beb0       $xdatasym                  000000018002deb0     LIBCMT:guard_dispatch.obj
 0002:0000beb4       $unwind$AtlThunk_InitData  000000018002deb4     atls:atlthunk.obj
 0002:0000bec8       $unwind$wcsstr             000000018002dec8     libvcruntime:wcsstr.obj
 0002:0000bee0       $xdatasym                  000000018002dee0     libvcruntime:memcmp.obj
 0002:0000bee8       $xdatasym                  000000018002dee8     libvcruntime:memcpy.obj
 0002:0000bef8       $xdatasym                  000000018002def8     libvcruntime:memset.obj
 0002:0000bf08       $unwind$__C_specific_handler 000000018002df08     libvcruntime:riscchandler.obj
 0002:0000bf24       $unwind$?GetEstablisherFrame@__FrameHandler3@@SAPEA_KPEA_KPEAU_xDISPATCHER_CONTEXT@@PEBU_s_FuncInfo@@0@Z 000000018002df24     libvcruntime:risctrnsctrl.obj
 0002:0000bf3c       $unwind$?UnwindNestedFrames@__FrameHandler3@@SAXPEA_KPEAUEHExceptionRecord@@PEAU_CONTEXT@@0PEAXPEBU_s_FuncInfo@@HHPEBU_s_HandlerType@@PEAU_xDISPATCHER_CONTEXT@@E@Z 000000018002df3c     libvcruntime:risctrnsctrl.obj
 0002:0000bf50       $unwind$?GetRangeOfTrysToCheck@__FrameHandler3@@SA?AU?$pair@Viterator@TryBlockMap@__FrameHandler3@@V123@@std@@AEAVTryBlockMap@1@HPEAU_xDISPATCHER_CONTEXT@@PEBU_s_FuncInfo@@H@Z 000000018002df50     libvcruntime:risctrnsctrl.obj
 0002:0000bf68       $unwind$__CxxFrameHandler3 000000018002df68     libvcruntime:risctrnsctrl.obj
 0002:0000bf7c       $unwind$??$_CallSETranslator@V__FrameHandler3@@@@YAHPEAUEHExceptionRecord@@PEA_KPEAU_CONTEXT@@PEAU_xDISPATCHER_CONTEXT@@PEBU_s_FuncInfo@@K1@Z 000000018002df7c     libvcruntime:risctrnsctrl.obj
 0002:0000bf9c       $unwind$?filt$0@?0???$_CallSETranslator@V__FrameHandler3@@@@YAHPEAUEHExceptionRecord@@PEA_KPEAU_CONTEXT@@PEAU_xDISPATCHER_CONTEXT@@PEBU_s_FuncInfo@@K1@Z@4HA 000000018002df9c     libvcruntime:risctrnsctrl.obj
 0002:0000bfa8       $unwind$__DestructExceptionObject 000000018002dfa8     libvcruntime:ehhelpers.obj
 0002:0000bfc8       $unwind$__DestructExceptionObject$filt$0 000000018002dfc8     libvcruntime:ehhelpers.obj
 0002:0000bfc8       $unwind$?fin$1@?0??CxxCallCatchBlock@__FrameHandler3@@SAPEAXPEAU_EXCEPTION_RECORD@@@Z@4HA 000000018002dfc8     libvcruntime:frame.obj
 0002:0000bfd4       $unwind$_CxxThrowException 000000018002dfd4     libvcruntime:throw.obj
 0002:0000bfe8       $xdatasym                  000000018002dfe8     libvcruntime:notify.obj
 0002:0000bff4       $unwind$?FrameUnwindToState@__FrameHandler3@@SAXPEA_KPEAU_xDISPATCHER_CONTEXT@@PEBU_s_FuncInfo@@H@Z 000000018002dff4     libvcruntime:frame.obj
 0002:0000c040       $unwind$?CxxCallCatchBlock@__FrameHandler3@@SAPEAXPEAU_EXCEPTION_RECORD@@@Z 000000018002e040     libvcruntime:frame.obj
 0002:0000c07c       $unwind$?IsInExceptionSpec@@YAEPEAUEHExceptionRecord@@PEBU_s_ESTypeList@@@Z 000000018002e07c     libvcruntime:frame.obj
 0002:0000c098       $unwind$??$BuildCatchObjectHelperInternal@V__FrameHandler3@@@@YAHPEAUEHExceptionRecord@@PEAXPEBU_s_HandlerType@@PEBU_s_CatchableType@@@Z 000000018002e098     libvcruntime:frame.obj
 0002:0000c0d8       $unwind$??$BuildCatchObjectInternal@V__FrameHandler3@@@@YAXPEAUEHExceptionRecord@@PEAXPEBU_s_HandlerType@@PEBU_s_CatchableType@@@Z 000000018002e0d8     libvcruntime:frame.obj
 0002:0000c104       $unwind$??$FindHandler@V__FrameHandler3@@@@YAXPEAUEHExceptionRecord@@PEA_KPEAU_CONTEXT@@PEAU_xDISPATCHER_CONTEXT@@PEBU_s_FuncInfo@@EH1@Z 000000018002e104     libvcruntime:frame.obj
 0002:0000c124       $unwind$??$CatchIt@V__FrameHandler3@@@@YAXPEAUEHExceptionRecord@@PEA_KPEAU_CONTEXT@@PEAU_xDISPATCHER_CONTEXT@@PEBU_s_FuncInfo@@PEBU_s_HandlerType@@PEBU_s_CatchableType@@PEBU_s_TryBlockMapEntry@@H1EE@Z 000000018002e124     libvcruntime:frame.obj
 0002:0000c13c       $unwind$??$FindHandlerForForeignException@V__FrameHandler3@@@@YAXPEAUEHExceptionRecord@@PEA_KPEAU_CONTEXT@@PEAU_xDISPATCHER_CONTEXT@@PEBU_s_FuncInfo@@HH1@Z 000000018002e13c     libvcruntime:frame.obj
 0002:0000c158       $unwind$?try_get_function@@YAPEAXW4function_id@?A0x81a78551@@QEBDQEBW4module_id@2@2@Z 000000018002e158     libvcruntime:winapi_downlevel.obj
 0002:0000c158       $unwind$?try_get_function@@YAPEAXW4function_id@?A0x391cf84c@@QEBDQEBW4module_id@2@2@Z 000000018002e158     libucrt:winapi_thunks.obj
 0002:0000c178       $xdatasym                  000000018002e178     libvcruntime:handlers.obj
 0002:0000c198       $unwind$__acrt_call_reportfault 000000018002e198     libucrt:invalid_parameter.obj
 0002:0000c1b8       $unwind$_resetstkoflw      000000018002e1b8     libucrt:resetstk.obj
 0002:0000c1dc       $unwind$__stdio_common_vswprintf_s 000000018002e1dc     libucrt:output.obj
 0002:0000c1e8       $unwind$?write_string@?$string_output_adapter@_W@__crt_stdio_output@@QEBAXQEB_WHQEAHAEAV__crt_deferred_errno_cache@@@Z 000000018002e1e8     libucrt:output.obj
 0002:0000c200       $unwind$??$common_vsprintf@Vformat_validation_base@__crt_stdio_output@@_W@@YAH_KQEA_W0QEB_WQEAU__crt_locale_pointers@@QEAD@Z 000000018002e200     libucrt:output.obj
 0002:0000c220       $unwind$??$write_multiple_characters@V?$string_output_adapter@_W@__crt_stdio_output@@D@__crt_stdio_output@@YAXAEBV?$string_output_adapter@_W@0@DHQEAH@Z 000000018002e220     libucrt:output.obj
 0002:0000c22c       $unwind$?process@?$output_processor@_WV?$string_output_adapter@_W@__crt_stdio_output@@V?$format_validation_base@_WV?$string_output_adapter@_W@__crt_stdio_output@@@2@@__crt_stdio_output@@QEAAHXZ 000000018002e22c     libucrt:output.obj
 0002:0000c240       $unwind$?state_case_type@?$output_processor@_WV?$string_output_adapter@_W@__crt_stdio_output@@V?$format_validation_base@_WV?$string_output_adapter@_W@__crt_stdio_output@@@2@@__crt_stdio_output@@AEAA_NXZ 000000018002e240     libucrt:output.obj
 0002:0000c264       $unwind$?type_case_a@?$output_processor@_WV?$string_output_adapter@_W@__crt_stdio_output@@V?$format_validation_base@_WV?$string_output_adapter@_W@__crt_stdio_output@@@2@@__crt_stdio_output@@AEAA_NXZ 000000018002e264     libucrt:output.obj
 0002:0000c274       $unwind$?write_stored_string_tchar@?$output_processor@_WV?$string_output_adapter@_W@__crt_stdio_output@@V?$format_validation_base@_WV?$string_output_adapter@_W@__crt_stdio_output@@@2@@__crt_stdio_output@@AEAA_N_W@Z 000000018002e274     libucrt:output.obj
 0002:0000c288       $unwind$??$type_case_integer_parse_into_buffer@I@?$output_processor@_WV?$string_output_adapter@_W@__crt_stdio_output@@V?$format_validation_base@_WV?$string_output_adapter@_W@__crt_stdio_output@@@2@@__crt_stdio_output@@AEAAXII_N@Z 000000018002e288     libucrt:output.obj
 0002:0000c288       $unwind$??$type_case_integer_parse_into_buffer@_K@?$output_processor@_WV?$string_output_adapter@_W@__crt_stdio_output@@V?$format_validation_base@_WV?$string_output_adapter@_W@__crt_stdio_output@@@2@@__crt_stdio_output@@AEAAX_KI_N@Z 000000018002e288     libucrt:output.obj
 0002:0000c290       $unwind$?common_exit@@YAXHW4_crt_exit_cleanup_mode@@W4_crt_exit_return_mode@@@Z 000000018002e290     libucrt:exit.obj
 0002:0000c29c       $unwind$??R<lambda_6e4b09c48022b2350581041d5f6b0c4c>@@QEBA@XZ 000000018002e29c     libucrt:exit.obj
 0002:0000c2bc       $unwind$??$?RV<lambda_d80eeec6fff315bfe5c115232f3240e3>@@AEAV<lambda_6e4b09c48022b2350581041d5f6b0c4c>@@V<lambda_2358e3775559c9db80273638284d5e45>@@@?$__crt_seh_guarded_call@X@@QEAAX$$QEAV<lambda_d80eeec6fff315bfe5c115232f3240e3>@@AEAV<lambda_6e4b09c48022b2350581041d5f6b0c4c>@@$$QEAV<lambda_2358e3775559c9db80273638284d5e45>@@@Z 000000018002e2bc     libucrt:exit.obj
 0002:0000c2e0       $unwind$??$free_environment@D@@YAXQEAPEAD@Z 000000018002e2e0     libucrt:environment_initialization.obj
 0002:0000c2e0       $unwind$??$free_environment@_W@@YAXQEAPEA_W@Z 000000018002e2e0     libucrt:environment_initialization.obj
 0002:0000c2ec       $unwind$??$create_environment@D@@YAQEAPEADQEAD@Z 000000018002e2ec     libucrt:environment_initialization.obj
 0002:0000c304       $unwind$_register_onexit_function 000000018002e304     libucrt:onexit.obj
 0002:0000c30c       $unwind$_execute_onexit_table 000000018002e30c     libucrt:onexit.obj
 0002:0000c314       $unwind$??R<lambda_22ebabd17bc4fa466a2aca6d8deb888d>@@QEBAHXZ 000000018002e314     libucrt:onexit.obj
 0002:0000c32c       $unwind$??$?RV<lambda_638799b9deba96c50f710eeac98168cd>@@AEAV<lambda_22ebabd17bc4fa466a2aca6d8deb888d>@@V<lambda_a6f7d7db0129f75315ebf26d50c089f1>@@@?$__crt_seh_guarded_call@H@@QEAAH$$QEAV<lambda_638799b9deba96c50f710eeac98168cd>@@AEAV<lambda_22ebabd17bc4fa466a2aca6d8deb888d>@@$$QEAV<lambda_a6f7d7db0129f75315ebf26d50c089f1>@@@Z 000000018002e32c     libucrt:onexit.obj
 0002:0000c350       $unwind$??$?RV<lambda_7777bce6b2f8c936911f934f8298dc43>@@AEAV<lambda_f03950bc5685219e0bcd2087efbe011e>@@V<lambda_3883c3dff614d5e0c5f61bb1ac94921c>@@@?$__crt_seh_guarded_call@H@@QEAAH$$QEAV<lambda_7777bce6b2f8c936911f934f8298dc43>@@AEAV<lambda_f03950bc5685219e0bcd2087efbe011e>@@$$QEAV<lambda_3883c3dff614d5e0c5f61bb1ac94921c>@@@Z 000000018002e350     libucrt:onexit.obj
 0002:0000c374       $unwind$_query_new_handler 000000018002e374     libucrt:new_handler.obj
 0002:0000c394       $unwind$terminate          000000018002e394     libucrt:terminate.obj
 0002:0000c3b4       $unwind$??$parse_integer@KV?$c_string_character_source@_W@__crt_strtox@@@__crt_strtox@@YAKQEAU__crt_locale_pointers@@V?$c_string_character_source@_W@0@H_N@Z 000000018002e3b4     libucrt:atox.obj
 0002:0000c3d0       $xdatasym                  000000018002e3d0     libucrt:strncmp.obj
 0002:0000c3d4       $unwind$?construct_ptd_array@@YAXQEAU__acrt_ptd@@@Z 000000018002e3d4     libucrt:per_thread_data.obj
 0002:0000c3dc       $unwind$?destroy_ptd_array@@YAXQEAU__acrt_ptd@@@Z 000000018002e3dc     libucrt:per_thread_data.obj
 0002:0000c3e4       $unwind$??$?RV<lambda_0ae27a3a962d80f24befdcbee591983d>@@AEAV<lambda_8d0ee55de4b1038c4002e0adecdf1839>@@V<lambda_dc504788e8f1664fe9b84e20bfb512f2>@@@?$__crt_seh_guarded_call@X@@QEAAX$$QEAV<lambda_0ae27a3a962d80f24befdcbee591983d>@@AEAV<lambda_8d0ee55de4b1038c4002e0adecdf1839>@@$$QEAV<lambda_dc504788e8f1664fe9b84e20bfb512f2>@@@Z 000000018002e3e4     libucrt:per_thread_data.obj
 0002:0000c408       $unwind$??$?RV<lambda_aa87e3671a710a21b5dc78c0bdf72e11>@@AEAV<lambda_92619d2358a28f41a33ba319515a20b9>@@V<lambda_6992ecaafeb10aed2b74cb1fae11a551>@@@?$__crt_seh_guarded_call@X@@QEAAX$$QEAV<lambda_aa87e3671a710a21b5dc78c0bdf72e11>@@AEAV<lambda_92619d2358a28f41a33ba319515a20b9>@@$$QEAV<lambda_6992ecaafeb10aed2b74cb1fae11a551>@@@Z 000000018002e408     libucrt:per_thread_data.obj
 0002:0000c42c       $unwind$??$?RV<lambda_f2e299630e499de9f9a165e60fcd3db5>@@AEAV<lambda_2ae9d31cdba2644fcbeaf08da7c24588>@@V<lambda_40d01ff24d0e7b3814fdbdcee8eab3c7>@@@?$__crt_seh_guarded_call@X@@QEAAX$$QEAV<lambda_f2e299630e499de9f9a165e60fcd3db5>@@AEAV<lambda_2ae9d31cdba2644fcbeaf08da7c24588>@@$$QEAV<lambda_40d01ff24d0e7b3814fdbdcee8eab3c7>@@@Z 000000018002e42c     libucrt:per_thread_data.obj
 0002:0000c450       $unwind$??$?RV<lambda_2d41944a1d46af3157314b8a01080d33>@@AEAV<lambda_8f455de75cd7d7f24b4096f044d8b9e6>@@V<lambda_aa500f224e6afead328df44964fe2772>@@@?$__crt_seh_guarded_call@X@@QEAAX$$QEAV<lambda_2d41944a1d46af3157314b8a01080d33>@@AEAV<lambda_8f455de75cd7d7f24b4096f044d8b9e6>@@$$QEAV<lambda_aa500f224e6afead328df44964fe2772>@@@Z 000000018002e450     libucrt:per_thread_data.obj
 0002:0000c474       $unwind$__acrt_initialize_winapi_thunks 000000018002e474     libucrt:winapi_thunks.obj
 0002:0000c47c       $unwind$?fp_format_e_internal@@YAHQEAD_KH_NIQEAU_strflt@@2QEAU__crt_locale_pointers@@@Z 000000018002e47c     libucrt:cvt.obj
 0002:0000c494       $unwind$?fp_format_a@@YAHQEBNPEAD_KQEAD2H_NIQEAU__crt_locale_pointers@@@Z 000000018002e494     libucrt:cvt.obj
 0002:0000c4b0       $unwind$?fp_format_g@@YAHQEBNQEAD_K12H_NIQEAU__crt_locale_pointers@@@Z 000000018002e4b0     libucrt:cvt.obj
 0002:0000c4c4       $unwind$__acrt_uninitialize_locale 000000018002e4c4     libucrt:wsetlocale.obj
 0002:0000c4c4       $unwind$__acrt_get_sigabrt_handler 000000018002e4c4     libucrt:signal.obj
 0002:0000c4cc       $unwind$??$?RV<lambda_410d79af7f07d98d83a3f525b3859a53>@@AEAV<lambda_3e16ef9562a7dcce91392c22ab16ea36>@@V<lambda_38119f0e861e05405d8a144b9b982f0a>@@@?$__crt_seh_guarded_call@X@@QEAAX$$QEAV<lambda_410d79af7f07d98d83a3f525b3859a53>@@AEAV<lambda_3e16ef9562a7dcce91392c22ab16ea36>@@$$QEAV<lambda_38119f0e861e05405d8a144b9b982f0a>@@@Z 000000018002e4cc     libucrt:wsetlocale.obj
 0002:0000c4f4       $unwind$__acrt_initialize_lowio 000000018002e4f4     libucrt:ioinit.obj
 0002:0000c514       $unwind$??$common_expand_argv_wildcards@D@@YAHQEAPEADQEAPEAPEAD@Z 000000018002e514     libucrt:argv_wildcards.obj
 0002:0000c52c       $unwind$??$copy_and_add_argument_to_buffer@D@@YAHQEBD0_KAEAV?$argument_list@D@?A0x5f5c8891@@@Z 000000018002e52c     libucrt:argv_wildcards.obj
 0002:0000c548       $unwind$??$expand_argument_wildcards@D@@YAHQEAD0AEAV?$argument_list@D@?A0x5f5c8891@@@Z 000000018002e548     libucrt:argv_wildcards.obj
 0002:0000c56c       $unwind$__acrt_GetModuleFileNameA 000000018002e56c     libucrt:getmodulefilenamea.obj
 0002:0000c588       $unwind$_setmbcp_nolock    000000018002e588     libucrt:mbctype.obj
 0002:0000c5a8       $unwind$?update_thread_multibyte_data_internal@@YAPEAU__crt_multibyte_data@@QEAU__acrt_ptd@@QEAPEAU1@@Z 000000018002e5a8     libucrt:mbctype.obj
 0002:0000c5d0       $unwind$?setmbcp_internal@@YAHH_NQEAU__acrt_ptd@@QEAPEAU__crt_multibyte_data@@@Z 000000018002e5d0     libucrt:mbctype.obj
 0002:0000c5e0       $unwind$?setSBUpLow@@YAXPEAU__crt_multibyte_data@@@Z 000000018002e5e0     libucrt:mbctype.obj
 0002:0000c5fc       $unwind$??$?RV<lambda_efdfa57d1f175319df784efa44bb7b81>@@AEAV<lambda_5f0a4c1567f8adc6734073e5d1e1b35c>@@V<lambda_2e8a7d3640ea6ccb4c2413664c2db6fd>@@@?$__crt_seh_guarded_call@X@@QEAAX$$QEAV<lambda_efdfa57d1f175319df784efa44bb7b81>@@AEAV<lambda_5f0a4c1567f8adc6734073e5d1e1b35c>@@$$QEAV<lambda_2e8a7d3640ea6ccb4c2413664c2db6fd>@@@Z 000000018002e5fc     libucrt:mbctype.obj
 0002:0000c620       $unwind$raise              000000018002e620     libucrt:signal.obj
 0002:0000c65c       $unwind$??$?RV<lambda_450d765d439847d4c735a33c368b5fc0>@@AEAV<lambda_44731a7d0e6d81c3e6aa82d741081786>@@V<lambda_601a2a7da3b7a96e9554ac7215c4b07c>@@@?$__crt_seh_guarded_call@P6AXH@Z@@QEAAP6AXH@Z$$QEAV<lambda_450d765d439847d4c735a33c368b5fc0>@@AEAV<lambda_44731a7d0e6d81c3e6aa82d741081786>@@$$QEAV<lambda_601a2a7da3b7a96e9554ac7215c4b07c>@@@Z 000000018002e65c     libucrt:signal.obj
 0002:0000c680       $unwind$?common_flush_all@@YAH_N@Z 000000018002e680     libucrt:fflush.obj
 0002:0000c688       $unwind$??$?RV<lambda_842d9ff0dc9ef11c61343bbaebe7f885>@@AEAV<lambda_c5860995281e5c4ce005b3de8f5874ee>@@V<lambda_d90129c13df834fdcbf8d2b88dafcf2d>@@@?$__crt_seh_guarded_call@X@@QEAAX$$QEAV<lambda_842d9ff0dc9ef11c61343bbaebe7f885>@@AEAV<lambda_c5860995281e5c4ce005b3de8f5874ee>@@$$QEAV<lambda_d90129c13df834fdcbf8d2b88dafcf2d>@@@Z 000000018002e688     libucrt:fflush.obj
 0002:0000c6ac       $unwind$??$?RV<lambda_886d6c58226a84441f68b9f2b8217b83>@@AEAV<lambda_ab61a845afdef5b7c387490eaf3616ee>@@V<lambda_f7f22ab5edc0698d5f6905b0d3f44752>@@@?$__crt_seh_guarded_call@X@@QEAAX$$QEAV<lambda_886d6c58226a84441f68b9f2b8217b83>@@AEAV<lambda_ab61a845afdef5b7c387490eaf3616ee>@@$$QEAV<lambda_f7f22ab5edc0698d5f6905b0d3f44752>@@@Z 000000018002e6ac     libucrt:fflush.obj
 0002:0000c6d4       $unwind$__acrt_update_thread_locale_data 000000018002e6d4     libucrt:locale_refcounting.obj
 0002:0000c6f8       $unwind$?__mbrtowc_utf8@__crt_mbstring@@YA_KPEA_WPEBD_KPEAU_Mbstatet@@@Z 000000018002e6f8     libucrt:mbrtowc.obj
 0002:0000c700       $unwind$?__mbsrtowcs_utf8@__crt_mbstring@@YA_KPEA_WPEAPEBD_KPEAU_Mbstatet@@@Z 000000018002e700     libucrt:mbrtowc.obj
 0002:0000c718       $unwind$__acrt_fltout      000000018002e718     libucrt:cfout.obj
 0002:0000c738       $unwind$?divide@__crt_strtox@@YA_KAEAUbig_integer@1@AEBU21@@Z 000000018002e738     libucrt:cfout.obj
 0002:0000c750       $chain$0$?divide@__crt_strtox@@YA_KAEAUbig_integer@1@AEBU21@@Z 000000018002e750     libucrt:cfout.obj
 0002:0000c764       $chain$1$?divide@__crt_strtox@@YA_KAEAUbig_integer@1@AEBU21@@Z 000000018002e764     libucrt:cfout.obj
 0002:0000c774       $unwind$_fcloseall         000000018002e774     libucrt:closeall.obj
 0002:0000c798       $unwind$__acrt_locale_free_monetary 000000018002e798     libucrt:initmon.obj
 0002:0000c7a0       $unwind$__acrt_locale_free_time 000000018002e7a0     libucrt:inittime.obj
 0002:0000c7b0       $unwind$__acrt_GetStringTypeA 000000018002e7b0     libucrt:getstringtypea.obj
 0002:0000c7d8       $unwind$__acrt_lowio_destroy_handle_array 000000018002e7d8     libucrt:osfinfo.obj
 0002:0000c7e8       $unwind$__acrt_lowio_ensure_fh_exists 000000018002e7e8     libucrt:osfinfo.obj
 0002:0000c814       $unwind$qsort              000000018002e814     libucrt:qsort.obj
 0002:0000c82c       $chain$4$qsort             000000018002e82c     libucrt:qsort.obj
 0002:0000c850       $chain$5$qsort             000000018002e850     libucrt:qsort.obj
 0002:0000c860       $unwind$fallbackMethod     000000018002e860     libucrt:strpbrk.obj
 0002:0000c870       $unwind$__acrt_LCMapStringA 000000018002e870     libucrt:lcmapstringa.obj
 0002:0000c880       $unwind$?__acrt_LCMapStringA_stat@@YAHPEAU__crt_locale_pointers@@PEB_WKPEBDHPEADHHH@Z 000000018002e880     libucrt:lcmapstringa.obj
 0002:0000c8a8       $unwind$_close             000000018002e8a8     libucrt:close.obj
 0002:0000c8a8       $unwind$_commit            000000018002e8a8     libucrt:commit.obj
 0002:0000c8b0       $unwind$??$?RV<lambda_a37b2b86f63e897a80ea819b0eb08c01>@@AEAV<lambda_38ce7e780aa69e748d6df282ebc68efe>@@V<lambda_99fb1378e971ab6e7edea83e3a7a83a2>@@@?$__crt_seh_guarded_call@H@@QEAAH$$QEAV<lambda_a37b2b86f63e897a80ea819b0eb08c01>@@AEAV<lambda_38ce7e780aa69e748d6df282ebc68efe>@@$$QEAV<lambda_99fb1378e971ab6e7edea83e3a7a83a2>@@@Z 000000018002e8b0     libucrt:commit.obj
 0002:0000c8d4       $unwind$_write             000000018002e8d4     libucrt:write.obj
 0002:0000c904       $unwind$_write_nolock      000000018002e904     libucrt:write.obj
 0002:0000c91c       $unwind$?write_double_translated_ansi_nolock@@YA?AUwrite_result@?A0x17268360@@HQEBDI@Z 000000018002e91c     libucrt:write.obj
 0002:0000c940       $unwind$?write_text_ansi_nolock@@YA?AUwrite_result@?A0x17268360@@HQEBDI@Z 000000018002e940     libucrt:write.obj
 0002:0000c940       $unwind$?write_text_utf16le_nolock@@YA?AUwrite_result@?A0x17268360@@HQEBDI@Z 000000018002e940     libucrt:write.obj
 0002:0000c960       $unwind$?write_text_utf8_nolock@@YA?AUwrite_result@?A0x17268360@@HQEBDI@Z 000000018002e960     libucrt:write.obj
 0002:0000c988       $xdatasym                  000000018002e988     libucrt:log10.obj
 0002:0000c994       $unwind$fclose             000000018002e994     libucrt:fclose.obj
 0002:0000c9b8       $unwind$_putwch_nolock     000000018002e9b8     libucrt:putwch.obj
 0002:0000c9c0       $unwind$__acrt_fenv_set_control 000000018002e9c0     libucrt:_fenvutils.obj
 0002:0000c9d0       $unwind$_call_matherr      000000018002e9d0     libucrt:libm_error.obj
 0002:0000c9d8       $unwind$_handle_error      000000018002e9d8     libucrt:libm_error.obj
 0002:0000c9f8       $unwind$__acrt_initialize_fma3 000000018002e9f8     libucrt:fma3_available.obj
 0002:0000ca00       $unwind$_log_special_common 000000018002ea00     libucrt:log_special.obj
 0002:0000ca0c       $unwind$??$?RV<lambda_751a882b2c74d4b022dec766aa51a29a>@@AEAV<lambda_628dfdc04ba53c8bfc02c9951375f3f5>@@V<lambda_f6c7be5f7998530c34de24c7437d6b54>@@@?$__crt_seh_guarded_call@H@@QEAAH$$QEAV<lambda_751a882b2c74d4b022dec766aa51a29a>@@AEAV<lambda_628dfdc04ba53c8bfc02c9951375f3f5>@@$$QEAV<lambda_f6c7be5f7998530c34de24c7437d6b54>@@@Z 000000018002ea0c     libucrt:close.obj
 0002:0000ca30       $xdatasym                  000000018002ea30     libucrt:fpsr.obj
 0002:0000ca38       $unwind$_raise_exc_ex      000000018002ea38     libucrt:fpexcept.obj
 0002:0000ca4c       $unwind$_ctrlfp            000000018002ea4c     libucrt:fpctrl.obj
 0002:0000ca74       $unwind$_IsNonwritableInCurrentImage 000000018002ea74     LIBCMT:pesect.obj
 0002:0000cc00       .edata                     000000018002ec00     OPOSPINPad.exp
 0002:0000cc28       rgpv                       000000018002ec28     OPOSPINPad.exp
 0002:0000cc38       rgszName                   000000018002ec38     OPOSPINPad.exp
 0002:0000cc48       rgwOrd                     000000018002ec48     OPOSPINPad.exp
 0002:0000cc50       szName                     000000018002ec50     OPOSPINPad.exp
 0002:0000cc5f       $N00001                    000000018002ec5f     OPOSPINPad.exp
 0002:0000cc6f       $N00002                    000000018002ec6f     OPOSPINPad.exp
 0002:0000cc81       $N00003                    000000018002ec81     OPOSPINPad.exp
 0002:0000cc93       $N00004                    000000018002ec93     OPOSPINPad.exp
 0002:0000d5c2       .idata$6                   000000018002f5c2     kernel32:KERNEL32.dll
 0002:0000d7da       .idata$6                   000000018002f7da     user32:USER32.dll
 0002:0000d90e       .idata$6                   000000018002f90e     gdi32:GDI32.dll
 0002:0000d9b4       .idata$6                   000000018002f9b4     advapi32:ADVAPI32.dll
 0002:0000dad0       .idata$6                   000000018002fad0     ole32:ole32.dll
 0002:0000dada       .idata$6                   000000018002fada     oleaut32:OLEAUT32.dll
 0003:000001c0       ?ObjectMap@@3PAU_ATL_OBJMAP_ENTRY30@ATL@@A 00000001800301c0     PINPad.obj
 0003:000002c0       ?s_SOMethodNames@@3PAPEADA 00000001800302c0     PINPadImpl.obj
 0003:00000398       ?s_RequiredMethodsPerRelease@@3PAHA 0000000180030398     PINPadImpl.obj
 0003:000003f0       ?__vcrt_flsindex@@3KA      00000001800303f0     libvcruntime:per_thread_data.obj
 0003:00000400       ?errno_no_memory@@3HA      0000000180030400     libucrt:errno.obj
 0003:00000404       ?doserrno_no_memory@@3KA   0000000180030404     libucrt:errno.obj
 0003:00000410       ?__acrt_flsindex@@3KA      0000000180030410     libucrt:per_thread_data.obj
 0003:000008d0       _mbctypes                  00000001800308d0     libucrt:mbctype.obj
 0003:000009e0       _mbcasemaps                00000001800309e0     libucrt:mbctype.obj
 0003:00000ae0       ?__rgctypeflag@@3PADA      0000000180030ae0     libucrt:mbctype.obj
 0003:00000af0       ?__rgcode_page_info@@3PAUcode_page_info@@A 0000000180030af0     libucrt:mbctype.obj
 0003:00000d90       ?__dcrt_lowio_console_output_handle@@3PEAXEA 0000000180030d90     libucrt:initcon.obj
 0003:00000da0       ?dazSupported@?1??_ctrlfp@@9@9 0000000180030da0     libucrt:fpctrl.obj
 0003:00000ff0       ?is_initialized_as_dll@@3_NA 0000000180030ff0     LIBCMT:utility.obj
 0003:00000ff1       ?module_local_atexit_table_initialized@@3_NA 0000000180030ff1     LIBCMT:utility.obj
 0003:00000ff8       ?module_local_atexit_table@@3U_onexit_table_t@@A 0000000180030ff8     LIBCMT:utility.obj
 0003:00001010       ?module_local_at_quick_exit_table@@3U_onexit_table_t@@A 0000000180031010     LIBCMT:utility.obj
 0003:00001028       ?g_tss_cv@@3U_RTL_CONDITION_VARIABLE@@A 0000000180031028     LIBCMT:thread_safe_statics.obj
 0003:00001030       ?g_tss_event@@3PEAXEA      0000000180031030     LIBCMT:thread_safe_statics.obj
 0003:00001038       ?g_tss_mutex@@3U_RTL_CRITICAL_SECTION@@A 0000000180031038     LIBCMT:thread_safe_statics.obj
 0003:00001060       ?g_sleep_condition_variable_cs@@3P6AHPEAU_RTL_CONDITION_VARIABLE@@PEAU_RTL_CRITICAL_SECTION@@K@ZEA 0000000180031060     LIBCMT:thread_safe_statics.obj
 0003:00001068       ?g_wake_all_condition_variable@@3P6AXPEAU_RTL_CONDITION_VARIABLE@@@ZEA 0000000180031068     LIBCMT:thread_safe_statics.obj
 0003:00001070       GS_ExceptionRecord         0000000180031070     LIBCMT:gs_report.obj
 0003:00001110       GS_ContextRecord           0000000180031110     LIBCMT:gs_report.obj
 0003:000015e4       ?__proc_attached@@3HA      00000001800315e4     LIBCMT:dll_dllmain.obj
 0003:00001678       ?AllocateData@@3P6APEAUAtlThunkData_t@@XZEA 0000000180031678     atls:atlthunk.obj
 0003:00001680       ?InitData@@3P6AXPEAUAtlThunkData_t@@PEAX_K@ZEA 0000000180031680     atls:atlthunk.obj
 0003:00001688       ?DataToCode@@3P6AP6A_JPEAUHWND__@@I_K_J@ZPEAUAtlThunkData_t@@@ZEA 0000000180031688     atls:atlthunk.obj
 0003:00001690       ?FreeData@@3P6AXPEAUAtlThunkData_t@@@ZEA 0000000180031690     atls:atlthunk.obj
 0003:00001698       ?Initialized@@3_NA         0000000180031698     atls:atlthunk.obj
 0003:000016b0       ?__vcrt_startup_thread_ptd@@3U__vcrt_ptd@@A 00000001800316b0     libvcruntime:per_thread_data.obj
 0003:00001730       __vcrt_lock_table          0000000180031730     libvcruntime:locks.obj
 0003:00001758       __vcrt_locks_initialized   0000000180031758     libvcruntime:locks.obj
 0003:000017a0       ?heap@@3V_HeapManager@@A   00000001800317a0     libvcruntime:undname.obj
 0003:000017c8       ?module_handles@@3PAPEAUHINSTANCE__@@A 00000001800317c8     libvcruntime:winapi_downlevel.obj
 0003:000017e0       ?function_pointers@@3PAPEAXA 00000001800317e0     libvcruntime:winapi_downlevel.obj
 0003:00001808       ?__acrt_invalid_parameter_handler@@3V?$dual_state_global@P6AXPEB_W00I_K@Z@__crt_state_management@@A 0000000180031808     libucrt:invalid_parameter.obj
 0003:00001810       ?c_termination_complete@@3JA 0000000180031810     libucrt:exit.obj
 0003:00001818       ?thread_local_exit_callback_func@@3P6AXPEAXK0@ZEA 0000000180031818     libucrt:exit.obj
 0003:00001830       ?program_name@?1???$common_configure_argv@D@@YAHW4_crt_argv_mode@@@Z@4PADA 0000000180031830     libucrt:argv_parsing.obj
 0003:00001988       ?__acrt_new_handler@@3V?$dual_state_global@P6AH_K@Z@__crt_state_management@@A 0000000180031988     libucrt:new_handler.obj
 0003:00001990       ?module_handles@@3PAPEAUHINSTANCE__@@A 0000000180031990     libucrt:winapi_thunks.obj
 0003:00001a30       ?encoded_function_pointers@@3PAPEAXA 0000000180031a30     libucrt:winapi_thunks.obj
 0003:00001b40       ?internal_state@?1??_mbtowc_l@@9@4U_Mbstatet@@A 0000000180031b40     libucrt:mbtowc.obj
 0003:00001b58       ?enable_percent_n@@3_KA    0000000180031b58     libucrt:printf_count_output.obj
 0003:00001f90       ?__acrt_lock_table@@3PAU_RTL_CRITICAL_SECTION@@A 0000000180031f90     libucrt:locks.obj
 0003:000021c0       ?__acrt_locks_initialized@@3IA 00000001800321c0     libucrt:locks.obj
 0003:000021e0       ?fSystemSet@@3HA           00000001800321e0     libucrt:mbctype.obj
 0003:000021e4       ?initialized@?1??__acrt_initialize_multibyte@@9@4_NA 00000001800321e4     libucrt:mbctype.obj
 0003:00002220       ?ctrlc_action@@3V?$dual_state_global@P6AXH@Z@__crt_state_management@@A 0000000180032220     libucrt:signal.obj
 0003:00002228       ?ctrlbreak_action@@3V?$dual_state_global@P6AXH@Z@__crt_state_management@@A 0000000180032228     libucrt:signal.obj
 0003:00002230       ?abort_action@@3V?$dual_state_global@P6AXH@Z@__crt_state_management@@A 0000000180032230     libucrt:signal.obj
 0003:00002238       ?term_action@@3V?$dual_state_global@P6AXH@Z@__crt_state_management@@A 0000000180032238     libucrt:signal.obj
 0003:00002240       ?user_matherr@@3V?$dual_state_global@P6AHPEAU_exception@@@Z@__crt_state_management@@A 0000000180032240     libucrt:matherr.obj
 0003:00002248       ?__acrt_global_new_mode@@3V?$dual_state_global@J@__crt_state_management@@A 0000000180032248     libucrt:new_mode.obj
 0003:00002258       ?internal_pst@?1??__mbrtoc32_utf8@__crt_mbstring@@YA_KPEA_UPEBD_KPEAU_Mbstatet@@@Z@4U3@A 0000000180032258     libucrt:mbrtoc32.obj
 0003:00002260       ?__acrt_app_type@@3W4_crt_app_type@@A 0000000180032260     libucrt:report_runtime_error.obj
 0004:00000000       $pdata$?cw_memcpy@@YAHPEA_WPEBDH@Z 0000000180033000     CWString.obj
 0004:0000000c       $pdata$?cw_strcpy@@YAHPEA_WPEBD@Z 000000018003300c     CWString.obj
 0004:00000018       $pdata$?cw_dup@@YAXPEBDAEAHAEAPEA_W1@Z 0000000180033018     CWString.obj
 0004:00000024       $pdata$?DupWide@_CW@@AEAAXXZ 0000000180033024     CWString.obj
 0004:00000030       $pdata$?AtlWinModuleTerm@ATL@@YAJPEAU_ATL_WIN_MODULE70@1@PEAUHINSTANCE__@@@Z 0000000180033030     OposVariant.obj
 0004:0000003c       $pdata$??0CAtlComModule@ATL@@QEAA@XZ 000000018003303c     OposVariant.obj
 0004:00000048       $pdata$?Term@CAtlComModule@ATL@@QEAAXXZ 0000000180033048     OposVariant.obj
 0004:00000054       $pdata$??__E_AtlComModule@ATL@@YAXXZ 0000000180033054     OposVariant.obj
 0004:00000060       $pdata$??0CAtlWinModule@ATL@@QEAA@XZ 0000000180033060     OposVariant.obj
 0004:0000006c       $pdata$??__E_AtlWinModule@ATL@@YAXXZ 000000018003306c     OposVariant.obj
 0004:00000078       $pdata$??__F_AtlWinModule@ATL@@YAXXZ 0000000180033078     OposVariant.obj
 0004:00000084       $pdata$??_Estringdispid@CComTypeInfoHolder@ATL@@QEAAPEAXI@Z 0000000180033084     OposVariant.obj
 0004:00000090       $pdata$?SetVARIANT_BOOL@OposVariant@@QEAAXF@Z 0000000180033090     OposVariant.obj
 0004:0000009c       $pdata$?GetLONG@OposVariant@@QEAAJXZ 000000018003309c     OposVariant.obj
 0004:000000a8       $pdata$?ChangeLONG@OposVariant@@QEAAXPEAJAEAJ@Z 00000001800330a8     OposVariant.obj
 0004:000000b4       $pdata$?SetLONG@OposVariant@@QEAAXJ@Z 00000001800330b4     OposVariant.obj
 0004:000000c0       $pdata$?SetLONG_Ptr@OposVariant@@QEAAXPEAJAEAJ@Z 00000001800330c0     OposVariant.obj
 0004:000000cc       $pdata$?ChangeCURRENCY@OposVariant@@QEAAXPEATtagCY@@AEAJ@Z 00000001800330cc     OposVariant.obj
 0004:000000d8       $pdata$?SetCURRENCY@OposVariant@@QEAAXTtagCY@@@Z 00000001800330d8     OposVariant.obj
 0004:000000e4       $pdata$?ChangeBSTR@OposVariant@@QEAAXPEAPEA_WAEAJ@Z 00000001800330e4     OposVariant.obj
 0004:000000f0       $pdata$?SetBSTR@OposVariant@@QEAAXPEA_WAEAJ@Z 00000001800330f0     OposVariant.obj
 0004:000000fc       $pdata$?SetBSTR_Copy@OposVariant@@QEAAXPEA_WAEAJ@Z 00000001800330fc     OposVariant.obj
 0004:00000108       $pdata$?SetBSTR_OutPtr@OposVariant@@QEAA_NPEAPEA_WAEAJ@Z 0000000180033108     OposVariant.obj
 0004:00000114       $pdata$?SetBSTR_InOutPtr@OposVariant@@QEAA_NPEAPEA_WAEAJ@Z 0000000180033114     OposVariant.obj
 0004:00000120       $pdata$?SetString@OposVariant@@QEAAXPEB_WAEAJ@Z 0000000180033120     OposVariant.obj
 0004:0000012c       $pdata$?SetDispatch_Ptr@OposVariant@@QEAAXPEAUIDispatch@@AEAJ@Z 000000018003312c     OposVariant.obj
 0004:00000138       $pdata$??0OposDispParms@@QEAA@PEAVOposVariant@@H@Z 0000000180033138     OposVariant.obj
 0004:00000144       $pdata$??1OposDispParms@@QEAA@XZ 0000000180033144     OposVariant.obj
 0004:00000150       $pdata$?AtlThrowImpl@ATL@@YAXJ@Z 0000000180033150     PINPad.obj
 0004:0000015c       $pdata$swprintf_s          000000018003315c     PINPad.obj
 0004:00000168       $pdata$?_AtlVerifyStackAvailable@_ATL_SAFE_ALLOCA_IMPL@ATL@@YA_N_K@Z 0000000180033168     PINPad.obj
 0004:00000174       $pdata$?filt$0@?0??_AtlVerifyStackAvailable@_ATL_SAFE_ALLOCA_IMPL@ATL@@YA_N_K@Z@4HA 0000000180033174     PINPad.obj
 0004:00000180       $pdata$?ocscpy_s@@YA_NPEA_W_KPEB_W@Z 0000000180033180     PINPad.obj
 0004:0000018c       $pdata$?AtlHresultFromLastError@ATL@@YAJXZ 000000018003318c     PINPad.obj
 0004:00000198       $pdata$?AtlInternalOleLoadFromStream@ATL@@YAJPEAUIStream@@AEBU_GUID@@PEAPEAXTClassesAllowedInStream@1@K@Z 0000000180033198     PINPad.obj
 0004:000001a4       $pdata$?ReadFromStream@CComBSTR@ATL@@QEAAJPEAUIStream@@@Z 00000001800331a4     PINPad.obj
 0004:000001b0       $pdata$?WriteToStream@CComVariant@ATL@@QEAAJPEAUIStream@@@Z 00000001800331b0     PINPad.obj
 0004:000001bc       $pdata$?WriteToStream@CComVariant@ATL@@QEAAJPEAUIStream@@G@Z 00000001800331bc     PINPad.obj
 0004:000001c8       $pdata$?ReadFromStream@CComVariant@ATL@@QEAAJPEAUIStream@@GTClassesAllowedInStream@2@K@Z 00000001800331c8     PINPad.obj
 0004:000001d4       $pdata$?GetSizeMax@CComVariant@ATL@@QEBAJPEAT_ULARGE_INTEGER@@@Z 00000001800331d4     PINPad.obj
 0004:000001e0       $pdata$?RegCreateKeyExW@CAtlTransactionManager@ATL@@QEAAJPEAUHKEY__@@PEB_WKPEA_WKKQEAU_SECURITY_ATTRIBUTES@@PEAPEAU3@PEAK@Z 00000001800331e0     PINPad.obj
 0004:000001ec       $pdata$?RegOpenKeyExW@CAtlTransactionManager@ATL@@QEAAJPEAUHKEY__@@PEB_WKKPEAPEAU3@@Z 00000001800331ec     PINPad.obj
 0004:000001f8       $pdata$?RegDeleteKeyW@CAtlTransactionManager@ATL@@QEAAJPEAUHKEY__@@PEB_W@Z 00000001800331f8     PINPad.obj
 0004:00000204       $pdata$?Add@?$CSimpleArray@GV?$CSimpleArrayEqualHelper@G@ATL@@@ATL@@QEAAHAEBG@Z 0000000180033204     PINPad.obj
 0004:00000210       $pdata$?AtlInternalQueryInterface@ATL@@YAJPEAXPEBU_ATL_INTMAP_ENTRY@1@AEBU_GUID@@PEAPEAX@Z 0000000180033210     PINPad.obj
 0004:0000021c       $pdata$?AtlComModuleGetClassObject@ATL@@YAJPEAU_ATL_COM_MODULE70@1@AEBU_GUID@@1PEAPEAX@Z 000000018003321c     PINPad.obj
 0004:00000228       $pdata$?AtlRegisterClassCategoriesHelper@ATL@@YAJAEBU_GUID@@PEBU_ATL_CATMAP_ENTRY@1@H@Z 0000000180033228     PINPad.obj
 0004:00000234       $pdata$?AtlLoadTypeLib@ATL@@YAJPEAUHINSTANCE__@@PEB_WPEAPEA_WPEAPEAUITypeLib@@@Z 0000000180033234     PINPad.obj
 0004:00000240       $pdata$?AtlRegisterTypeLib@ATL@@YAJPEAUHINSTANCE__@@PEB_W@Z 0000000180033240     PINPad.obj
 0004:0000024c       $pdata$?AtlUnRegisterTypeLib@ATL@@YAJPEAUHINSTANCE__@@PEB_W@Z 000000018003324c     PINPad.obj
 0004:00000258       $pdata$?AtlComModuleRegisterServer@ATL@@YAJPEAU_ATL_COM_MODULE70@1@HPEBU_GUID@@@Z 0000000180033258     PINPad.obj
 0004:00000264       $pdata$?AtlComModuleUnregisterServer@ATL@@YAJPEAU_ATL_COM_MODULE70@1@HPEBU_GUID@@@Z 0000000180033264     PINPad.obj
 0004:00000270       $pdata$?AtlWinModuleExtractCreateWndData@ATL@@YAPEAXPEAU_ATL_WIN_MODULE70@1@@Z 0000000180033270     PINPad.obj
 0004:0000027c       $pdata$?DeleteSubKey@CRegKey@ATL@@QEAAJPEB_W@Z 000000018003327c     PINPad.obj
 0004:00000288       $pdata$?RecurseDeleteKey@CRegKey@ATL@@QEAAJPEB_W@Z 0000000180033288     PINPad.obj
 0004:00000294       $pdata$??0CAtlModule@ATL@@QEAA@XZ 0000000180033294     PINPad.obj
 0004:000002a0       $pdata$?Term@CAtlModule@ATL@@QEAAXXZ 00000001800332a0     PINPad.obj
 0004:000002ac       $pdata$?AddTermFunc@CAtlModule@ATL@@QEAAJP6AX_K@Z0@Z 00000001800332ac     PINPad.obj
 0004:000002b8       $pdata$?GetGITPtr@CAtlModule@ATL@@UEAAJPEAPEAUIGlobalInterfaceTable@@@Z 00000001800332b8     PINPad.obj
 0004:000002c4       $pdata$?UpdateRegistryFromResource@CAtlModule@ATL@@QEAAJPEB_WHPEAU_ATL_REGMAP_ENTRY@2@@Z 00000001800332c4     PINPad.obj
 0004:000002d0       $pdata$?UpdateRegistryFromResource@CAtlModule@ATL@@QEAAJIHPEAU_ATL_REGMAP_ENTRY@2@@Z 00000001800332d0     PINPad.obj
 0004:000002dc       $pdata$?Term@CComModule@ATL@@QEAAXXZ 00000001800332dc     PINPad.obj
 0004:000002e8       $pdata$?GetClassObject@CComModule@ATL@@QEAAJAEBU_GUID@@0PEAPEAX@Z 00000001800332e8     PINPad.obj
 0004:000002f4       $pdata$?RegisterServer@CComModule@ATL@@QEAAJHPEBU_GUID@@@Z 00000001800332f4     PINPad.obj
 0004:00000300       $pdata$?UnregisterServer@CComModule@ATL@@QEAAJHPEBU_GUID@@@Z 0000000180033300     PINPad.obj
 0004:0000030c       $pdata$??_GCComModule@ATL@@UEAAPEAXI@Z 000000018003330c     PINPad.obj
 0004:00000318       $pdata$?Add@?$CSimpleMap@PEA_WPEA_WVCExpansionVectorEqualHelper@ATL@@@ATL@@QEAAHAEBQEA_W0@Z 0000000180033318     PINPad.obj
 0004:00000324       $pdata$?Lookup@?$CSimpleMap@PEA_WPEA_WVCExpansionVectorEqualHelper@ATL@@@ATL@@QEBAPEA_WAEBQEA_W@Z 0000000180033324     PINPad.obj
 0004:00000330       $pdata$?Add@CExpansionVector@ATL@@QEAAHPEB_W0@Z 0000000180033330     PINPad.obj
 0004:0000033c       $pdata$?ClearReplacements@CExpansionVector@ATL@@QEAAJXZ 000000018003333c     PINPad.obj
 0004:00000348       $pdata$?PreProcessBuffer@CRegParser@ATL@@QEAAJPEA_WPEAPEA_W@Z 0000000180033348     PINPad.obj
 0004:00000354       $pdata$?RegisterBuffer@CRegParser@ATL@@QEAAJPEA_WH@Z 0000000180033354     PINPad.obj
 0004:00000360       $pdata$?NextToken@CRegParser@ATL@@IEAAJPEA_W@Z 0000000180033360     PINPad.obj
 0004:0000036c       $pdata$?AddValue@CRegParser@ATL@@IEAAJAEAVCRegKey@2@PEB_WPEA_W@Z 000000018003336c     PINPad.obj
 0004:00000378       $pdata$?RegisterSubkeys@CRegParser@ATL@@IEAAJPEA_WPEAUHKEY__@@HH@Z 0000000180033378     PINPad.obj
 0004:00000384       $pdata$?SkipAssignment@CRegParser@ATL@@IEAAJPEA_W@Z 0000000180033384     PINPad.obj
 0004:00000390       $pdata$?HKeyFromString@CRegParser@ATL@@KAPEAUHKEY__@@PEA_W@Z 0000000180033390     PINPad.obj
 0004:0000039c       $pdata$?VTFromRegType@CRegParser@ATL@@KAHPEB_WAEAG@Z 000000018003339c     PINPad.obj
 0004:000003a8       $pdata$?Append@CParseBuffer@CRegParser@ATL@@QEAAHPEB_WH@Z 00000001800333a8     PINPad.obj
 0004:000003b4       $pdata$?AddReplacement@CRegObject@ATL@@UEAAJPEB_W0@Z 00000001800333b4     PINPad.obj
 0004:000003c0       $pdata$?RegisterFromResource@CRegObject@ATL@@IEAAJPEB_W00H@Z 00000001800333c0     PINPad.obj
 0004:000003cc       $pdata$??_GCRegObject@ATL@@UEAAPEAXI@Z 00000001800333cc     PINPad.obj
 0004:000003d8       $pdata$?AllocateHeap@?$CTempBuffer@E$0BAA@VCCRTAllocator@ATL@@@ATL@@AEAAX_K@Z 00000001800333d8     PINPad.obj
 0004:000003d8       $pdata$?AllocateHeap@?$CTempBuffer@_W$0BAA@VCCRTAllocator@ATL@@@ATL@@AEAAX_K@Z 00000001800333d8     PINPad.obj
 0004:000003d8       $pdata$?AllocateHeap@?$CTempBuffer@_W$0EAA@VCCRTAllocator@ATL@@@ATL@@AEAAX_K@Z 00000001800333d8     PINPad.obj
 0004:000003e4       $pdata$?CreateInstance@CComClassFactory@ATL@@UEAAJPEAUIUnknown@@AEBU_GUID@@PEAPEAX@Z 00000001800333e4     PINPad.obj
 0004:000003f0       $pdata$?LockServer@CComClassFactory@ATL@@UEAAJH@Z 00000001800333f0     PINPad.obj
 0004:000003fc       $pdata$??_GCComClassFactory@ATL@@UEAAPEAXI@Z 00000001800333fc     PINPad.obj
 0004:00000408       $pdata$?GetTI@CComTypeInfoHolder@ATL@@QEAAJK@Z 0000000180033408     PINPad.obj
 0004:00000414       $pdata$?Cleanup@CComTypeInfoHolder@ATL@@SAX_K@Z 0000000180033414     PINPad.obj
 0004:00000420       $pdata$?GetIDsOfNames@CComTypeInfoHolder@ATL@@QEAAJAEBU_GUID@@PEAPEA_WIKPEAJ@Z 0000000180033420     PINPad.obj
 0004:0000042c       $pdata$?LoadNameCache@CComTypeInfoHolder@ATL@@QEAAJPEAUITypeInfo@@@Z 000000018003342c     PINPad.obj
 0004:00000438       $pdata$?Add@CComDynamicUnkArray@ATL@@QEAAKPEAUIUnknown@@@Z 0000000180033438     PINPad.obj
 0004:00000444       $pdata$?AtlHiMetricToPixel@ATL@@YAXPEBUtagSIZE@@PEAU2@@Z 0000000180033444     PINPad.obj
 0004:00000450       $pdata$?DefaultReflectionHandler@?$CWindowImplRoot@VCWindow@ATL@@@ATL@@SAHPEAUHWND__@@I_K_JAEA_J@Z 0000000180033450     PINPad.obj
 0004:0000045c       $pdata$?StartWindowProc@?$CWindowImplBaseT@VCWindow@ATL@@V?$CWinTraits@$0FGAAAAAA@$0A@@2@@ATL@@SA_JPEAUHWND__@@I_K_J@Z 000000018003345c     PINPad.obj
 0004:00000468       $pdata$?WindowProc@?$CWindowImplBaseT@VCWindow@ATL@@V?$CWinTraits@$0FGAAAAAA@$0A@@2@@ATL@@SA_JPEAUHWND__@@I_K_J@Z 0000000180033468     PINPad.obj
 0004:00000474       $pdata$?atlCreate@?$CWindowImplBaseT@VCWindow@ATL@@V?$CWinTraits@$0FGAAAAAA@$0A@@2@@ATL@@QEAAPEAUHWND__@@PEAU3@V_U_RECT@2@PEB_WKKV_U_MENUorID@2@GPEAX@Z 0000000180033474     PINPad.obj
 0004:00000480       $pdata$?IsEqualObject@?$CComPtrBase@UIOleClientSite@@@ATL@@QEAA_NPEAUIUnknown@@@Z 0000000180033480     PINPad.obj
 0004:0000048c       $pdata$??$AtlModuleRegisterWndClassInfoT@VAtlModuleRegisterWndClassInfoParamW@ATL@@@ATL@@YAGPEAU_ATL_BASE_MODULE70@0@PEAU_ATL_WIN_MODULE70@0@PEAU_ATL_WNDCLASSINFOW@0@PEAP6A_JPEAUHWND__@@I_K_J@ZVAtlModuleRegisterWndClassInfoParamW@0@@Z 000000018003348c     PINPad.obj
 0004:00000498       $pdata$?GetZoomInfo@CComControlBase@ATL@@QEAAXAEAUATL_DRAWINFO@@@Z 0000000180033498     PINPad.obj
 0004:000004a4       $pdata$?SendOnDataChange@CComControlBase@ATL@@QEAAJK@Z 00000001800334a4     PINPad.obj
 0004:000004b0       $pdata$?OnSetFocus@CComControlBase@ATL@@QEAA_JI_K_JAEAH@Z 00000001800334b0     PINPad.obj
 0004:000004bc       $pdata$?OnKillFocus@CComControlBase@ATL@@QEAA_JI_K_JAEAH@Z 00000001800334bc     PINPad.obj
 0004:000004c8       $pdata$?OnMouseActivate@CComControlBase@ATL@@QEAA_JI_K_JAEAH@Z 00000001800334c8     PINPad.obj
 0004:000004d4       $pdata$?GetAmbientLocaleID@CComControlBase@ATL@@QEAAJAEAK@Z 00000001800334d4     PINPad.obj
 0004:000004e0       $pdata$?GetAmbientUserMode@CComControlBase@ATL@@QEAAJAEAH@Z 00000001800334e0     PINPad.obj
 0004:000004ec       $pdata$?SetControlFocus@CComControlBase@ATL@@QEAAHH@Z 00000001800334ec     PINPad.obj
 0004:000004f8       $pdata$?IQuickActivate_QuickActivate@CComControlBase@ATL@@QEAAJPEAUtagQACONTAINER@@PEAUtagQACONTROL@@@Z 00000001800334f8     PINPad.obj
 0004:00000504       $pdata$?DoVerbProperties@CComControlBase@ATL@@QEAAJPEBUtagRECT@@PEAUHWND__@@@Z 0000000180033504     PINPad.obj
 0004:00000510       $pdata$?InPlaceActivate@CComControlBase@ATL@@QEAAJJPEBUtagRECT@@@Z 0000000180033510     PINPad.obj
 0004:0000051c       $pdata$?IOleObject_SetClientSite@CComControlBase@ATL@@QEAAJPEAUIOleClientSite@@@Z 000000018003351c     PINPad.obj
 0004:00000528       $pdata$?IOleObject_Close@CComControlBase@ATL@@QEAAJK@Z 0000000180033528     PINPad.obj
 0004:00000534       $pdata$?IOleObject_SetExtent@CComControlBase@ATL@@QEAAJKPEAUtagSIZE@@@Z 0000000180033534     PINPad.obj
 0004:00000540       $pdata$?IOleInPlaceObject_InPlaceDeactivate@CComControlBase@ATL@@QEAAJXZ 0000000180033540     PINPad.obj
 0004:0000054c       $pdata$?IOleInPlaceObject_UIDeactivate@CComControlBase@ATL@@QEAAJXZ 000000018003354c     PINPad.obj
 0004:00000558       $pdata$?IOleInPlaceObject_SetObjectRects@CComControlBase@ATL@@QEAAJPEBUtagRECT@@0@Z 0000000180033558     PINPad.obj
 0004:00000564       $pdata$?IViewObject_Draw@CComControlBase@ATL@@QEAAJKJPEAXPEAUtagDVTARGETDEVICE@@PEAUHDC__@@2PEBU_RECTL@@3@Z 0000000180033564     PINPad.obj
 0004:00000570       $pdata$?IDataObject_GetData@CComControlBase@ATL@@QEAAJPEAUtagFORMATETC@@PEAUtagSTGMEDIUM@@@Z 0000000180033570     PINPad.obj
 0004:0000057c       $pdata$?FireViewChange@CComControlBase@ATL@@QEAAJXZ 000000018003357c     PINPad.obj
 0004:00000588       $pdata$?OnPaint@CComControlBase@ATL@@QEAA_JI_K_JAEAH@Z 0000000180033588     PINPad.obj
 0004:00000594       $pdata$?OnDrawAdvanced@CComControlBase@ATL@@UEAAJAEAUATL_DRAWINFO@@@Z 0000000180033594     PINPad.obj
 0004:000005a0       $pdata$?GetTypeInfo@?$IDispatchImpl@UIOPOSPINPad@@$1?IID_IOPOSPINPad@@3U_GUID@@B$1?LIBID_OposPINPad_CCO@@3U3@B$00$0A@VCComTypeInfoHolder@ATL@@@ATL@@UEAAJIKPEAPEAUITypeInfo@@@Z 00000001800335a0     PINPad.obj
 0004:000005ac       $pdata$?Invoke@?$IDispatchImpl@UIOPOSPINPad@@$1?IID_IOPOSPINPad@@3U_GUID@@B$1?LIBID_OposPINPad_CCO@@3U3@B$00$0A@VCComTypeInfoHolder@ATL@@@ATL@@UEAAJJAEBU_GUID@@KGPEAUtagDISPPARAMS@@PEAUtagVARIANT@@PEAUtagEXCEPINFO@@PEAI@Z 00000001800335ac     PINPad.obj
 0004:000005b8       $pdata$?atlCreate@?$CWindowImpl@VCOPOSPINPad@@VCWindow@ATL@@V?$CWinTraits@$0FGAAAAAA@$0A@@3@@ATL@@QEAAPEAUHWND__@@PEAU3@V_U_RECT@2@PEB_WKKV_U_MENUorID@2@PEAX@Z 00000001800335b8     PINPad.obj
 0004:000005c4       $pdata$?CreateControlWindow@?$CComControl@VCOPOSPINPad@@V?$CWindowImpl@VCOPOSPINPad@@VCWindow@ATL@@V?$CWinTraits@$0FGAAAAAA@$0A@@3@@ATL@@@ATL@@UEAAPEAUHWND__@@PEAU3@AEAUtagRECT@@@Z 00000001800335c4     PINPad.obj
 0004:000005d0       $pdata$?ProcessWindowMessage@?$CComControl@VCOPOSPINPad@@V?$CWindowImpl@VCOPOSPINPad@@VCWindow@ATL@@V?$CWinTraits@$0FGAAAAAA@$0A@@3@@ATL@@@ATL@@UEAAHPEAUHWND__@@I_K_JAEA_JK@Z 00000001800335d0     PINPad.obj
 0004:000005dc       $pdata$?GetSizeMax@?$IPersistStreamInitImpl@VCOPOSPINPad@@@ATL@@UEAAJPEAT_ULARGE_INTEGER@@@Z 00000001800335dc     PINPad.obj
 0004:000005e8       $pdata$?IPersistStreamInit_Load@?$IPersistStreamInitImpl@VCOPOSPINPad@@@ATL@@QEAAJPEAUIStream@@PEBUATL_PROPMAP_ENTRY@2@@Z 00000001800335e8     PINPad.obj
 0004:000005f4       $pdata$?IPersistStreamInit_Save@?$IPersistStreamInitImpl@VCOPOSPINPad@@@ATL@@QEAAJPEAUIStream@@HPEBUATL_PROPMAP_ENTRY@2@@Z 00000001800335f4     PINPad.obj
 0004:00000600       $pdata$?GetClientSite@?$IOleObjectImpl@VCOPOSPINPad@@@ATL@@UEAAJPEAPEAUIOleClientSite@@@Z 0000000180033600     PINPad.obj
 0004:0000060c       $pdata$?DoVerbPrimary@?$IOleObjectImpl@VCOPOSPINPad@@@ATL@@QEAAJPEBUtagRECT@@PEAUHWND__@@@Z 000000018003360c     PINPad.obj
 0004:00000618       $pdata$?DoVerb@?$IOleObjectImpl@VCOPOSPINPad@@@ATL@@UEAAJJPEAUtagMSG@@PEAUIOleClientSite@@JPEAUHWND__@@PEBUtagRECT@@@Z 0000000180033618     PINPad.obj
 0004:00000624       $pdata$?Advise@?$IOleObjectImpl@VCOPOSPINPad@@@ATL@@UEAAJPEAUIAdviseSink@@PEAK@Z 0000000180033624     PINPad.obj
 0004:00000630       $pdata$?Unadvise@?$IOleObjectImpl@VCOPOSPINPad@@@ATL@@UEAAJK@Z 0000000180033630     PINPad.obj
 0004:0000063c       $pdata$?EnumAdvise@?$IOleObjectImpl@VCOPOSPINPad@@@ATL@@UEAAJPEAPEAUIEnumSTATDATA@@@Z 000000018003363c     PINPad.obj
 0004:00000648       $pdata$?TranslateAcceleratorW@?$IOleInPlaceActiveObjectImpl@VCOPOSPINPad@@@ATL@@UEAAJPEAUtagMSG@@@Z 0000000180033648     PINPad.obj
 0004:00000654       $pdata$?OnDocWindowActivate@?$IOleInPlaceActiveObjectImpl@VCOPOSPINPad@@@ATL@@UEAAJH@Z 0000000180033654     PINPad.obj
 0004:00000660       $pdata$?Draw@?$IViewObjectExImpl@VCOPOSPINPad@@@ATL@@UEAAJKJPEAXPEAUtagDVTARGETDEVICE@@PEAUHDC__@@2PEBU_RECTL@@3P6AH_K@Z4@Z 0000000180033660     PINPad.obj
 0004:0000066c       $pdata$?SetAdvise@?$IViewObjectExImpl@VCOPOSPINPad@@@ATL@@UEAAJKKPEAUIAdviseSink@@@Z 000000018003366c     PINPad.obj
 0004:00000678       $pdata$?GetAdvise@?$IViewObjectExImpl@VCOPOSPINPad@@@ATL@@UEAAJPEAK0PEAPEAUIAdviseSink@@@Z 0000000180033678     PINPad.obj
 0004:00000684       $pdata$?QueryHitPoint@?$IViewObjectExImpl@VCOPOSPINPad@@@ATL@@UEAAJKPEBUtagRECT@@UtagPOINT@@JPEAK@Z 0000000180033684     PINPad.obj
 0004:00000690       $pdata$?QueryHitRect@?$IViewObjectExImpl@VCOPOSPINPad@@@ATL@@UEAAJKPEBUtagRECT@@0JPEAK@Z 0000000180033690     PINPad.obj
 0004:0000069c       $pdata$?OnWindowMessage@?$IOleInPlaceObjectWindowlessImpl@VCOPOSPINPad@@@ATL@@UEAAJI_K_JPEA_J@Z 000000018003369c     PINPad.obj
 0004:000006a8       $pdata$?EnumConnectionPoints@?$IConnectionPointContainerImpl@VCOPOSPINPad@@@ATL@@UEAAJPEAPEAUIEnumConnectionPoints@@@Z 00000001800336a8     PINPad.obj
 0004:000006b4       $pdata$?FindConnectionPoint@?$IConnectionPointContainerImpl@VCOPOSPINPad@@@ATL@@UEAAJAEBU_GUID@@PEAPEAUIConnectionPoint@@@Z 00000001800336b4     PINPad.obj
 0004:000006c0       $pdata$?IsDirty@?$IPersistStorageImpl@VCOPOSPINPad@@@ATL@@UEAAJXZ 00000001800336c0     PINPad.obj
 0004:000006cc       $pdata$?InitNew@?$IPersistStorageImpl@VCOPOSPINPad@@@ATL@@UEAAJPEAUIStorage@@@Z 00000001800336cc     PINPad.obj
 0004:000006d8       $pdata$?Load@?$IPersistStorageImpl@VCOPOSPINPad@@@ATL@@UEAAJPEAUIStorage@@@Z 00000001800336d8     PINPad.obj
 0004:000006e4       $pdata$?Save@?$IPersistStorageImpl@VCOPOSPINPad@@@ATL@@UEAAJPEAUIStorage@@H@Z 00000001800336e4     PINPad.obj
 0004:000006f0       $pdata$?IPSI_GetIPersistStreamInit@?$IPersistStorageImpl@VCOPOSPINPad@@@ATL@@AEAAPEAUIPersistStreamInit@@XZ 00000001800336f0     PINPad.obj
 0004:000006fc       $pdata$?GetPagesHelper@?$ISpecifyPropertyPagesImpl@VCOPOSPINPad@@@ATL@@IEAAJPEAUtagCAUUID@@PEBUATL_PROPMAP_ENTRY@2@@Z 00000001800336fc     PINPad.obj
 0004:00000708       $pdata$?DAdvise@?$IDataObjectImpl@VCOPOSPINPad@@@ATL@@UEAAJPEAUtagFORMATETC@@KPEAUIAdviseSink@@PEAK@Z 0000000180033708     PINPad.obj
 0004:00000714       $pdata$?GetClassInfoW@?$IProvideClassInfo2Impl@$1?CLSID_OPOSPINPad@@3U_GUID@@B$1?DIID__IOPOSPINPadEvents@@3U2@B$1?LIBID_OposPINPad_CCO@@3U2@B$00$0A@VCComTypeInfoHolder@ATL@@@ATL@@UEAAJPEAPEAUITypeInfo@@@Z 0000000180033714     PINPad.obj
 0004:00000720       $pdata$?GetInterfaceSafetyOptions@?$IObjectSafetyImpl@VCOPOSPINPad@@$02@ATL@@UEAAJAEBU_GUID@@PEAK1@Z 0000000180033720     PINPad.obj
 0004:0000072c       $pdata$?SetInterfaceSafetyOptions@?$IObjectSafetyImpl@VCOPOSPINPad@@$02@ATL@@UEAAJAEBU_GUID@@KK@Z 000000018003372c     PINPad.obj
 0004:00000738       $pdata$?_LocCPQueryInterface@?$IConnectionPointImpl@VCOPOSPINPad@@$1?DIID__IOPOSPINPadEvents@@3U_GUID@@BVCComDynamicUnkArray@ATL@@@ATL@@UEAAJAEBU_GUID@@PEAPEAX@Z 0000000180033738     PINPad.obj
 0004:00000738       $pdata$?_LocCPQueryInterface@?$IConnectionPointImpl@VCOPOSPINPad@@$1?IID_IPropertyNotifySink@@3U_GUID@@BVCComDynamicUnkArray@ATL@@@ATL@@UEAAJAEBU_GUID@@PEAPEAX@Z 0000000180033738     PINPad.obj
 0004:00000744       $pdata$?Advise@?$IConnectionPointImpl@VCOPOSPINPad@@$1?DIID__IOPOSPINPadEvents@@3U_GUID@@BVCComDynamicUnkArray@ATL@@@ATL@@UEAAJPEAUIUnknown@@PEAK@Z 0000000180033744     PINPad.obj
 0004:00000744       $pdata$?Advise@?$IConnectionPointImpl@VCOPOSPINPad@@$1?IID_IPropertyNotifySink@@3U_GUID@@BVCComDynamicUnkArray@ATL@@@ATL@@UEAAJPEAUIUnknown@@PEAK@Z 0000000180033744     PINPad.obj
 0004:00000750       $pdata$?Unadvise@?$IConnectionPointImpl@VCOPOSPINPad@@$1?DIID__IOPOSPINPadEvents@@3U_GUID@@BVCComDynamicUnkArray@ATL@@@ATL@@UEAAJK@Z 0000000180033750     PINPad.obj
 0004:00000750       $pdata$?Unadvise@?$IConnectionPointImpl@VCOPOSPINPad@@$1?IID_IPropertyNotifySink@@3U_GUID@@BVCComDynamicUnkArray@ATL@@@ATL@@UEAAJK@Z 0000000180033750     PINPad.obj
 0004:0000075c       $pdata$?EnumConnections@?$IConnectionPointImpl@VCOPOSPINPad@@$1?DIID__IOPOSPINPadEvents@@3U_GUID@@BVCComDynamicUnkArray@ATL@@@ATL@@UEAAJPEAPEAUIEnumConnections@@@Z 000000018003375c     PINPad.obj
 0004:0000075c       $pdata$?EnumConnections@?$IConnectionPointImpl@VCOPOSPINPad@@$1?IID_IPropertyNotifySink@@3U_GUID@@BVCComDynamicUnkArray@ATL@@@ATL@@UEAAJPEAPEAUIEnumConnections@@@Z 000000018003375c     PINPad.obj
 0004:00000768       $pdata$?Fire_DataEvent@?$CProxy_IOPOSEvents@VCOPOSPINPad@@@@QEAAXJ@Z 0000000180033768     PINPad.obj
 0004:00000774       $pdata$?Fire_DirectIOEvent@?$CProxy_IOPOSEvents@VCOPOSPINPad@@@@QEAAXJPEAJPEAPEA_W@Z 0000000180033774     PINPad.obj
 0004:00000780       $pdata$?Fire_ErrorEvent@?$CProxy_IOPOSEvents@VCOPOSPINPad@@@@QEAAXJJJPEAJ@Z 0000000180033780     PINPad.obj
 0004:0000078c       $pdata$?Fire_StatusUpdateEvent@?$CProxy_IOPOSEvents@VCOPOSPINPad@@@@QEAAXJ@Z 000000018003378c     PINPad.obj
 0004:00000798       $pdata$?FireTheEvent@?$CProxy_IOPOSEvents@VCOPOSPINPad@@@@IEAAXPEAVOposVariant@@IAEAJPEB_WJ@Z 0000000180033798     PINPad.obj
 0004:000007a4       $pdata$?GetConnMap@COPOSPINPad@@SAPEBU_ATL_CONNMAP_ENTRY@ATL@@PEAH@Z 00000001800337a4     PINPad.obj
 0004:000007b0       $pdata$?ProcessWindowMessage@COPOSPINPad@@UEAAHPEAUHWND__@@I_K_JAEA_JK@Z 00000001800337b0     PINPad.obj
 0004:000007bc       $pdata$?SOData@COPOSPINPad@@MEAAJJ@Z 00000001800337bc     PINPad.obj
 0004:000007c8       $pdata$?SODirectIO@COPOSPINPad@@MEAAJJPEAJPEAPEA_W@Z 00000001800337c8     PINPad.obj
 0004:000007d4       $pdata$?SOError@COPOSPINPad@@MEAAJJJJPEAJ@Z 00000001800337d4     PINPad.obj
 0004:000007e0       $pdata$?SOStatusUpdate@COPOSPINPad@@MEAAJJ@Z 00000001800337e0     PINPad.obj
 0004:000007ec       $pdata$?DoEvent@COPOSPINPad@@IEAAXI_K_J@Z 00000001800337ec     PINPad.obj
 0004:000007f8       $pdata$??__E_Module@@YAXXZ 00000001800337f8     PINPad.obj
 0004:00000804       $pdata$?CreateInstance@?$CComCreator@V?$CComObjectCached@VCComClassFactory@ATL@@@ATL@@@ATL@@SAJPEAXAEBU_GUID@@PEAPEAX@Z 0000000180033804     PINPad.obj
 0004:00000810       $pdata$DllMain             0000000180033810     PINPad.obj
 0004:0000081c       $pdata$?CreateInstance@?$CComCreator@V?$CComObject@VCOPOSPINPad@@@ATL@@@ATL@@SAJPEAXAEBU_GUID@@PEAPEAX@Z 000000018003381c     PINPad.obj
 0004:00000828       $pdata$?CreateInstance@?$CComCreator@V?$CComAggObject@VCOPOSPINPad@@@ATL@@@ATL@@SAJPEAXAEBU_GUID@@PEAPEAX@Z 0000000180033828     PINPad.obj
 0004:00000834       $pdata$?AddRef@?$CComObjectCached@VCComClassFactory@ATL@@@ATL@@UEAAKXZ 0000000180033834     PINPad.obj
 0004:00000840       $pdata$?Release@?$CComObjectCached@VCComClassFactory@ATL@@@ATL@@UEAAKXZ 0000000180033840     PINPad.obj
 0004:0000084c       $pdata$??_G?$CComObjectCached@VCComClassFactory@ATL@@@ATL@@UEAAPEAXI@Z 000000018003384c     PINPad.obj
 0004:00000858       $pdata$??1?$CComEnumImpl@UIEnumConnectionPoints@@$1?_GUID_b196b285_bab4_101a_b69c_00aa00341d07@@3U__s_GUID@@BPEAUIConnectionPoint@@V?$_CopyInterface@UIConnectionPoint@@@ATL@@@ATL@@UEAA@XZ 0000000180033858     PINPad.obj
 0004:00000864       $pdata$?Next@?$CComEnumImpl@UIEnumConnectionPoints@@$1?_GUID_b196b285_bab4_101a_b69c_00aa00341d07@@3U__s_GUID@@BPEAUIConnectionPoint@@V?$_CopyInterface@UIConnectionPoint@@@ATL@@@ATL@@UEAAJKPEAPEAUIConnectionPoint@@PEAK@Z 0000000180033864     PINPad.obj
 0004:00000870       $pdata$?Clone@?$CComEnumImpl@UIEnumConnectionPoints@@$1?_GUID_b196b285_bab4_101a_b69c_00aa00341d07@@3U__s_GUID@@BPEAUIConnectionPoint@@V?$_CopyInterface@UIConnectionPoint@@@ATL@@@ATL@@UEAAJPEAPEAUIEnumConnectionPoints@@@Z 0000000180033870     PINPad.obj
 0004:0000087c       $pdata$?Init@?$CComEnumImpl@UIEnumConnectionPoints@@$1?_GUID_b196b285_bab4_101a_b69c_00aa00341d07@@3U__s_GUID@@BPEAUIConnectionPoint@@V?$_CopyInterface@UIConnectionPoint@@@ATL@@@ATL@@QEAAJPEAPEAUIConnectionPoint@@0PEAUIUnknown@@W4CComEnumFlags@2@@Z 000000018003387c     PINPad.obj
 0004:00000888       $pdata$?Release@?$CComObject@V?$CComEnum@UIEnumConnectionPoints@@$1?_GUID_b196b285_bab4_101a_b69c_00aa00341d07@@3U__s_GUID@@BPEAUIConnectionPoint@@V?$_CopyInterface@UIConnectionPoint@@@ATL@@VCComSingleThreadModel@6@@ATL@@@ATL@@UEAAKXZ 0000000180033888     PINPad.obj
 0004:00000888       $pdata$?Release@?$CComObject@V?$CComEnum@UIEnumConnections@@$1?_GUID_b196b287_bab4_101a_b69c_00aa00341d07@@3U__s_GUID@@BUtagCONNECTDATA@@V?$_Copy@UtagCONNECTDATA@@@ATL@@VCComSingleThreadModel@6@@ATL@@@ATL@@UEAAKXZ 0000000180033888     PINPad.obj
 0004:00000894       $pdata$?CreateInstance@?$CComObject@V?$CComEnum@UIEnumConnectionPoints@@$1?_GUID_b196b285_bab4_101a_b69c_00aa00341d07@@3U__s_GUID@@BPEAUIConnectionPoint@@V?$_CopyInterface@UIConnectionPoint@@@ATL@@VCComSingleThreadModel@6@@ATL@@@ATL@@SAJPEAPEAV12@@Z 0000000180033894     PINPad.obj
 0004:000008a0       $pdata$??_G?$CComObject@V?$CComEnum@UIEnumConnectionPoints@@$1?_GUID_b196b285_bab4_101a_b69c_00aa00341d07@@3U__s_GUID@@BPEAUIConnectionPoint@@V?$_CopyInterface@UIConnectionPoint@@@ATL@@VCComSingleThreadModel@6@@ATL@@@ATL@@UEAAPEAXI@Z 00000001800338a0     PINPad.obj
 0004:000008ac       $pdata$?Release@?$CComAggObject@VCOPOSPINPad@@@ATL@@UEAAKXZ 00000001800338ac     PINPad.obj
 0004:000008b8       $pdata$?QueryInterface@?$CComAggObject@VCOPOSPINPad@@@ATL@@UEAAJAEBU_GUID@@PEAPEAX@Z 00000001800338b8     PINPad.obj
 0004:000008c4       $pdata$??0?$CComContainedObject@VCOPOSPINPad@@@ATL@@QEAA@PEAX@Z 00000001800338c4     PINPad.obj
 0004:000008d0       $pdata$??_G?$CComContainedObject@VCOPOSPINPad@@@ATL@@UEAAPEAXI@Z 00000001800338d0     PINPad.obj
 0004:000008dc       $pdata$??_G?$CComAggObject@VCOPOSPINPad@@@ATL@@UEAAPEAXI@Z 00000001800338dc     PINPad.obj
 0004:000008e8       $pdata$??0?$CComObject@VCOPOSPINPad@@@ATL@@QEAA@PEAX@Z 00000001800338e8     PINPad.obj
 0004:000008f4       $pdata$??1?$CComObject@VCOPOSPINPad@@@ATL@@UEAA@XZ 00000001800338f4     PINPad.obj
 0004:00000900       $pdata$?Release@?$CComObject@VCOPOSPINPad@@@ATL@@UEAAKXZ 0000000180033900     PINPad.obj
 0004:0000090c       $pdata$??_G?$CComObject@VCOPOSPINPad@@@ATL@@UEAAPEAXI@Z 000000018003390c     PINPad.obj
 0004:00000918       $pdata$??__E?pConnMap@?$IConnectionPointContainerImpl@VCOPOSPINPad@@@ATL@@0PEBU_ATL_CONNMAP_ENTRY@2@EB@@YAXXZ 0000000180033918     PINPad.obj
 0004:00000924       $pdata$??1?$CComEnumImpl@UIEnumConnections@@$1?_GUID_b196b287_bab4_101a_b69c_00aa00341d07@@3U__s_GUID@@BUtagCONNECTDATA@@V?$_Copy@UtagCONNECTDATA@@@ATL@@@ATL@@UEAA@XZ 0000000180033924     PINPad.obj
 0004:00000930       $pdata$?Next@?$CComEnumImpl@UIEnumConnections@@$1?_GUID_b196b287_bab4_101a_b69c_00aa00341d07@@3U__s_GUID@@BUtagCONNECTDATA@@V?$_Copy@UtagCONNECTDATA@@@ATL@@@ATL@@UEAAJKPEAUtagCONNECTDATA@@PEAK@Z 0000000180033930     PINPad.obj
 0004:0000093c       $pdata$?Clone@?$CComEnumImpl@UIEnumConnections@@$1?_GUID_b196b287_bab4_101a_b69c_00aa00341d07@@3U__s_GUID@@BUtagCONNECTDATA@@V?$_Copy@UtagCONNECTDATA@@@ATL@@@ATL@@UEAAJPEAPEAUIEnumConnections@@@Z 000000018003393c     PINPad.obj
 0004:00000948       $pdata$?Init@?$CComEnumImpl@UIEnumConnections@@$1?_GUID_b196b287_bab4_101a_b69c_00aa00341d07@@3U__s_GUID@@BUtagCONNECTDATA@@V?$_Copy@UtagCONNECTDATA@@@ATL@@@ATL@@QEAAJPEAUtagCONNECTDATA@@0PEAUIUnknown@@W4CComEnumFlags@2@@Z 0000000180033948     PINPad.obj
 0004:00000954       $pdata$?CreateInstance@?$CComObject@V?$CComEnum@UIEnumConnections@@$1?_GUID_b196b287_bab4_101a_b69c_00aa00341d07@@3U__s_GUID@@BUtagCONNECTDATA@@V?$_Copy@UtagCONNECTDATA@@@ATL@@VCComSingleThreadModel@6@@ATL@@@ATL@@SAJPEAPEAV12@@Z 0000000180033954     PINPad.obj
 0004:00000960       $pdata$??_G?$CComObject@V?$CComEnum@UIEnumConnections@@$1?_GUID_b196b287_bab4_101a_b69c_00aa00341d07@@3U__s_GUID@@BUtagCONNECTDATA@@V?$_Copy@UtagCONNECTDATA@@@ATL@@VCComSingleThreadModel@6@@ATL@@@ATL@@UEAAPEAXI@Z 0000000180033960     PINPad.obj
 0004:0000096c       $pdata$??1CComControlBase@ATL@@UEAA@XZ 000000018003396c     PINPadImpl.obj
 0004:00000978       $pdata$??1?$IConnectionPointImpl@VCOPOSPINPad@@$1?DIID__IOPOSPINPadEvents@@3U_GUID@@BVCComDynamicUnkArray@ATL@@@ATL@@QEAA@XZ 0000000180033978     PINPadImpl.obj
 0004:00000978       $pdata$??1?$IConnectionPointImpl@VCOPOSPINPad@@$1?IID_IPropertyNotifySink@@3U_GUID@@BVCComDynamicUnkArray@ATL@@@ATL@@QEAA@XZ 0000000180033978     PINPadImpl.obj
 0004:00000984       $pdata$?FinalConstruct@COPOSPINPad@@QEAAJXZ 0000000180033984     PINPadImpl.obj
 0004:00000990       $pdata$??1COPOSPINPad@@UEAA@XZ 0000000180033990     PINPadImpl.obj
 0004:0000099c       $pdata$?GetOposProp@COPOSPINPad@@IEAAJJPEAJJ@Z 000000018003399c     PINPadImpl.obj
 0004:000009a8       $pdata$?SetOposProp@COPOSPINPad@@IEAAJJJJ@Z 00000001800339a8     PINPadImpl.obj
 0004:000009b4       $pdata$?GetOposProp@COPOSPINPad@@IEAAJJPEAPEA_WJ@Z 00000001800339b4     PINPadImpl.obj
 0004:000009c0       $pdata$?SetOposProp@COPOSPINPad@@IEAAJJPEA_WJ@Z 00000001800339c0     PINPadImpl.obj
 0004:000009cc       $pdata$?DoInvoke@COPOSPINPad@@IEAAJJPEAVOposVariant@@IHPEAJ_N@Z 00000001800339cc     PINPadImpl.obj
 0004:000009d8       $pdata$?SetCOFreezeEvents@COPOSPINPad@@IEAAXF@Z 00000001800339d8     PINPadImpl.obj
 0004:000009e4       $pdata$?FreezeEvents@COPOSPINPad@@MEAAJH@Z 00000001800339e4     PINPadImpl.obj
 0004:000009f0       $pdata$?OnDraw@COPOSPINPad@@MEAAJAEAUATL_DRAWINFO@@@Z 00000001800339f0     PINPadImpl.obj
 0004:000009fc       $pdata$?EventInit@COPOSPINPad@@IEAAJXZ 00000001800339fc     PINPadImpl.obj
 0004:00000a08       $pdata$?EventUninit@COPOSPINPad@@IEAAXXZ 0000000180033a08     PINPadImpl.obj
 0004:00000a14       $pdata$?s_EventWindowProc@COPOSPINPad@@KA_JPEAUHWND__@@I_K_J@Z 0000000180033a14     PINPadImpl.obj
 0004:00000a20       $pdata$?EventWindowProc@COPOSPINPad@@IEAA_JI_K_J@Z 0000000180033a20     PINPadImpl.obj
 0004:00000a2c       $pdata$?SOProcessID@COPOSPINPad@@UEAAJPEAJ@Z 0000000180033a2c     PINPadImpl.obj
 0004:00000a38       $pdata$?get_Claimed@COPOSPINPad@@UEAAJPEAF@Z 0000000180033a38     PINPadImpl.obj
 0004:00000a44       $pdata$?get_DataEventEnabled@COPOSPINPad@@UEAAJPEAF@Z 0000000180033a44     PINPadImpl.obj
 0004:00000a50       $pdata$?get_DeviceEnabled@COPOSPINPad@@UEAAJPEAF@Z 0000000180033a50     PINPadImpl.obj
 0004:00000a5c       $pdata$?get_FreezeEvents@COPOSPINPad@@UEAAJPEAF@Z 0000000180033a5c     PINPadImpl.obj
 0004:00000a68       $pdata$?put_FreezeEvents@COPOSPINPad@@UEAAJF@Z 0000000180033a68     PINPadImpl.obj
 0004:00000a74       $pdata$?get_ResultCode@COPOSPINPad@@UEAAJPEAJ@Z 0000000180033a74     PINPadImpl.obj
 0004:00000a80       $pdata$?get_State@COPOSPINPad@@UEAAJPEAJ@Z 0000000180033a80     PINPadImpl.obj
 0004:00000a8c       $pdata$?get_ControlObjectDescription@COPOSPINPad@@UEAAJPEAPEA_W@Z 0000000180033a8c     PINPadImpl.obj
 0004:00000a98       $pdata$?CheckHealth@COPOSPINPad@@UEAAJJPEAJ@Z 0000000180033a98     PINPadImpl.obj
 0004:00000aa4       $pdata$?ClaimDevice@COPOSPINPad@@UEAAJJPEAJ@Z 0000000180033aa4     PINPadImpl.obj
 0004:00000ab0       $pdata$?ClearInput@COPOSPINPad@@UEAAJPEAJ@Z 0000000180033ab0     PINPadImpl.obj
 0004:00000abc       $pdata$?Close@COPOSPINPad@@UEAAJPEAJ@Z 0000000180033abc     PINPadImpl.obj
 0004:00000ac8       $pdata$?DirectIO@COPOSPINPad@@UEAAJJPEAJPEAPEA_W0@Z 0000000180033ac8     PINPadImpl.obj
 0004:00000ad4       $pdata$?Open@COPOSPINPad@@UEAAJPEA_WPEAJ@Z 0000000180033ad4     PINPadImpl.obj
 0004:00000ae0       $pdata$?ReleaseDevice@COPOSPINPad@@UEAAJPEAJ@Z 0000000180033ae0     PINPadImpl.obj
 0004:00000aec       $pdata$?get_Amount@COPOSPINPad@@UEAAJPEATtagCY@@@Z 0000000180033aec     PINPadImpl.obj
 0004:00000af8       $pdata$?put_Amount@COPOSPINPad@@UEAAJTtagCY@@@Z 0000000180033af8     PINPadImpl.obj
 0004:00000b04       $pdata$?get_CapKeyboard@COPOSPINPad@@UEAAJPEAF@Z 0000000180033b04     PINPadImpl.obj
 0004:00000b10       $pdata$?get_CapMACCalculation@COPOSPINPad@@UEAAJPEAF@Z 0000000180033b10     PINPadImpl.obj
 0004:00000b1c       $pdata$?get_CapTone@COPOSPINPad@@UEAAJPEAF@Z 0000000180033b1c     PINPadImpl.obj
 0004:00000b28       $pdata$?get_PINEntryEnabled@COPOSPINPad@@UEAAJPEAF@Z 0000000180033b28     PINPadImpl.obj
 0004:00000b34       $pdata$?BeginEFTTransaction@COPOSPINPad@@UEAAJPEA_WJPEAJ@Z 0000000180033b34     PINPadImpl.obj
 0004:00000b40       $pdata$?ComputeMAC@COPOSPINPad@@UEAAJPEA_WPEAPEA_WPEAJ@Z 0000000180033b40     PINPadImpl.obj
 0004:00000b4c       $pdata$?EnablePINEntry@COPOSPINPad@@UEAAJPEAJ@Z 0000000180033b4c     PINPadImpl.obj
 0004:00000b58       $pdata$?EndEFTTransaction@COPOSPINPad@@UEAAJJPEAJ@Z 0000000180033b58     PINPadImpl.obj
 0004:00000b64       $pdata$?UpdateKey@COPOSPINPad@@UEAAJJPEA_WPEAJ@Z 0000000180033b64     PINPadImpl.obj
 0004:00000b70       $pdata$?VerifyMAC@COPOSPINPad@@UEAAJPEA_WPEAJ@Z 0000000180033b70     PINPadImpl.obj
 0004:00000b7c       $pdata$?get_CapStatisticsReporting@COPOSPINPad@@UEAAJPEAF@Z 0000000180033b7c     PINPadImpl.obj
 0004:00000b88       $pdata$?get_CapUpdateStatistics@COPOSPINPad@@UEAAJPEAF@Z 0000000180033b88     PINPadImpl.obj
 0004:00000b94       $pdata$?ResetStatistics@COPOSPINPad@@UEAAJPEA_WPEAJ@Z 0000000180033b94     PINPadImpl.obj
 0004:00000ba0       $pdata$?RetrieveStatistics@COPOSPINPad@@UEAAJPEAPEA_WPEAJ@Z 0000000180033ba0     PINPadImpl.obj
 0004:00000bac       $pdata$?UpdateStatistics@COPOSPINPad@@UEAAJPEA_WPEAJ@Z 0000000180033bac     PINPadImpl.obj
 0004:00000bb8       $pdata$?get_CapCompareFirmwareVersion@COPOSPINPad@@UEAAJPEAF@Z 0000000180033bb8     PINPadImpl.obj
 0004:00000bc4       $pdata$?get_CapUpdateFirmware@COPOSPINPad@@UEAAJPEAF@Z 0000000180033bc4     PINPadImpl.obj
 0004:00000bd0       $pdata$?CompareFirmwareVersion@COPOSPINPad@@UEAAJPEA_WPEAJ1@Z 0000000180033bd0     PINPadImpl.obj
 0004:00000bdc       $pdata$?UpdateFirmware@COPOSPINPad@@UEAAJPEA_WPEAJ@Z 0000000180033bdc     PINPadImpl.obj
 0004:00000be8       $pdata$?ClearInputProperties@COPOSPINPad@@UEAAJPEAJ@Z 0000000180033be8     PINPadImpl.obj
 0004:00000bf4       $pdata$atexit              0000000180033bf4     LIBCMT:utility.obj
 0004:00000c00       $pdata$_onexit             0000000180033c00     LIBCMT:utility.obj
 0004:00000c0c       $pdata$__scrt_is_nonwritable_in_current_image 0000000180033c0c     LIBCMT:utility.obj
 0004:00000c18       $pdata$__scrt_is_nonwritable_in_current_image$filt$0 0000000180033c18     LIBCMT:utility.obj
 0004:00000c24       $pdata$__scrt_acquire_startup_lock 0000000180033c24     LIBCMT:utility.obj
 0004:00000c30       $pdata$__scrt_release_startup_lock 0000000180033c30     LIBCMT:utility.obj
 0004:00000c3c       $pdata$__scrt_initialize_crt 0000000180033c3c     LIBCMT:utility.obj
 0004:00000c48       $pdata$__scrt_uninitialize_crt 0000000180033c48     LIBCMT:utility.obj
 0004:00000c54       $pdata$__scrt_initialize_onexit_tables 0000000180033c54     LIBCMT:utility.obj
 0004:00000c60       $pdata$__scrt_dllmain_exception_filter 0000000180033c60     LIBCMT:utility.obj
 0004:00000c6c       $pdata$__scrt_dllmain_before_initialize_c 0000000180033c6c     LIBCMT:utility.obj
 0004:00000c78       $pdata$__scrt_dllmain_after_initialize_c 0000000180033c78     LIBCMT:utility.obj
 0004:00000c84       $pdata$__scrt_dllmain_uninitialize_c 0000000180033c84     LIBCMT:utility.obj
 0004:00000c90       $pdata$__scrt_dllmain_uninitialize_critical 0000000180033c90     LIBCMT:utility.obj
 0004:00000c9c       $pdata$__scrt_dllmain_crt_thread_attach 0000000180033c9c     LIBCMT:utility.obj
 0004:00000ca8       $pdata$__scrt_dllmain_crt_thread_detach 0000000180033ca8     LIBCMT:utility.obj
 0004:00000cb4       $pdata$_Init_thread_header 0000000180033cb4     LIBCMT:thread_safe_statics.obj
 0004:00000cc0       $pdata$_Init_thread_footer 0000000180033cc0     LIBCMT:thread_safe_statics.obj
 0004:00000ccc       $pdata$_Init_thread_wait   0000000180033ccc     LIBCMT:thread_safe_statics.obj
 0004:00000cd8       $pdata$_Init_thread_notify 0000000180033cd8     LIBCMT:thread_safe_statics.obj
 0004:00000ce4       $pdata$?__scrt_uninitialize_thread_safe_statics@@YAXXZ 0000000180033ce4     LIBCMT:thread_safe_statics.obj
 0004:00000cf0       $pdata$?__scrt_initialize_thread_safe_statics@@YAHXZ 0000000180033cf0     LIBCMT:thread_safe_statics.obj
 0004:00000cfc       $pdata$__report_securityfailure 0000000180033cfc     LIBCMT:gs_report.obj
 0004:00000d08       $pdata$__report_rangecheckfailure 0000000180033d08     LIBCMT:gs_report.obj
 0004:00000d14       $pdata$__report_gsfailure  0000000180033d14     LIBCMT:gs_report.obj
 0004:00000d20       $pdata$capture_current_context 0000000180033d20     LIBCMT:gs_report.obj
 0004:00000d2c       $pdata$capture_previous_context 0000000180033d2c     LIBCMT:gs_report.obj
 0004:00000d38       $pdata$__raise_securityfailure 0000000180033d38     LIBCMT:gs_report.obj
 0004:00000d44       $pdata$??2@YAPEAX_KAEBUnothrow_t@std@@@Z 0000000180033d44     LIBCMT:new_scalar_nothrow.obj
 0004:00000d50       $pdata$?catch$0@?0???2@YAPEAX_KAEBUnothrow_t@std@@@Z@4HA 0000000180033d50     LIBCMT:new_scalar_nothrow.obj
 0004:00000d5c       $pdata$__GSHandlerCheckCommon 0000000180033d5c     LIBCMT:gshandler.obj
 0004:00000d68       $pdata$__GSHandlerCheck    0000000180033d68     LIBCMT:gshandler.obj
 0004:00000d74       $pdata$__GSHandlerCheck_SEH 0000000180033d74     LIBCMT:gshandlerseh.obj
 0004:00000d98       $pdata$?dllmain_crt_process_attach@@YAHQEAUHINSTANCE__@@QEAX@Z 0000000180033d98     LIBCMT:dll_dllmain.obj
 0004:00000da4       $pdata$?fin$0@?0??dllmain_crt_process_attach@@YAHQEAUHINSTANCE__@@QEAX@Z@4HA 0000000180033da4     LIBCMT:dll_dllmain.obj
 0004:00000db0       $pdata$?dllmain_crt_process_detach@@YAH_N@Z 0000000180033db0     LIBCMT:dll_dllmain.obj
 0004:00000dbc       $pdata$?fin$0@?0??dllmain_crt_process_detach@@YAH_N@Z@4HA 0000000180033dbc     LIBCMT:dll_dllmain.obj
 0004:00000dc8       $pdata$?fin$1@?0??dllmain_crt_process_detach@@YAH_N@Z@4HA 0000000180033dc8     LIBCMT:dll_dllmain.obj
 0004:00000dd4       $pdata$?dllmain_crt_dispatch@@YAHQEAUHINSTANCE__@@KQEAX@Z 0000000180033dd4     LIBCMT:dll_dllmain.obj
 0004:00000de0       $pdata$?dllmain_dispatch@@YAHQEAUHINSTANCE__@@KQEAX@Z 0000000180033de0     LIBCMT:dll_dllmain.obj
 0004:00000dec       $pdata$?filt$0@?0??dllmain_dispatch@@YAHQEAUHINSTANCE__@@KQEAX@Z@4HA 0000000180033dec     LIBCMT:dll_dllmain.obj
 0004:00000df8       $pdata$_DllMainCRTStartup  0000000180033df8     LIBCMT:dll_dllmain.obj
 0004:00000e04       $pdata$??2@YAPEAX_K@Z      0000000180033e04     LIBCMT:new_scalar.obj
 0004:00000e10       $pdata$__isa_available_init 0000000180033e10     LIBCMT:cpu_disp.obj
 0004:00000e1c       $pdata$__scrt_fastfail     0000000180033e1c     LIBCMT:utility_desktop.obj
 0004:00000e28       $pdata$__security_init_cookie 0000000180033e28     LIBCMT:gs_support.obj
 0004:00000e34       $pdata$__scrt_initialize_default_local_stdio_options 0000000180033e34     LIBCMT:default_local_stdio_options.obj
 0004:00000e40       $pdata$_RTC_Initialize     0000000180033e40     LIBCMT:initsect.obj
 0004:00000e4c       $pdata$_RTC_Terminate      0000000180033e4c     LIBCMT:initsect.obj
 0004:00000e58       $pdata$??0exception@std@@QEAA@AEBV01@@Z 0000000180033e58     LIBCMT:throw_bad_alloc.obj
 0004:00000e64       $pdata$??_Gbad_alloc@std@@UEAAPEAXI@Z 0000000180033e64     LIBCMT:throw_bad_alloc.obj
 0004:00000e64       $pdata$??_Gbad_array_new_length@std@@UEAAPEAXI@Z 0000000180033e64     LIBCMT:throw_bad_alloc.obj
 0004:00000e64       $pdata$??_Gexception@std@@UEAAPEAXI@Z 0000000180033e64     LIBCMT:throw_bad_alloc.obj
 0004:00000e64       $pdata$??_Gbad_exception@std@@UEAAPEAXI@Z 0000000180033e64     libvcruntime:frame.obj
 0004:00000e70       $pdata$??0bad_alloc@std@@QEAA@AEBV01@@Z 0000000180033e70     LIBCMT:throw_bad_alloc.obj
 0004:00000e7c       $pdata$??0bad_array_new_length@std@@QEAA@AEBV01@@Z 0000000180033e7c     LIBCMT:throw_bad_alloc.obj
 0004:00000e88       $pdata$?__scrt_throw_std_bad_alloc@@YAXXZ 0000000180033e88     LIBCMT:throw_bad_alloc.obj
 0004:00000e94       $pdata$?__scrt_throw_std_bad_array_new_length@@YAXXZ 0000000180033e94     LIBCMT:throw_bad_alloc.obj
 0004:00000eac       $pdata$??_Gtype_info@@UEAAPEAXI@Z 0000000180033eac     LIBCMT:std_type_info_static.obj
 0004:00000eb8       $pdata$??0CAtlBaseModule@ATL@@QEAA@XZ 0000000180033eb8     atls:atlbase.obj
 0004:00000ec4       $pdata$??1CAtlBaseModule@ATL@@QEAA@XZ 0000000180033ec4     atls:atlbase.obj
 0004:00000ed0       $pdata$??__E_AtlBaseModule@ATL@@YAXXZ 0000000180033ed0     atls:atlbase.obj
 0004:00000edc       $pdata$AtlThunk_AllocateData 0000000180033edc     atls:atlthunk.obj
 0004:00000ee8       $pdata$AtlThunk_InitData   0000000180033ee8     atls:atlthunk.obj
 0004:00000ef4       $pdata$AtlThunk_DataToCode 0000000180033ef4     atls:atlthunk.obj
 0004:00000f00       $pdata$AtlThunk_FreeData   0000000180033f00     atls:atlthunk.obj
 0004:00000f0c       $pdata$?__InitializeThunkPool@@YAHXZ 0000000180033f0c     atls:atlthunk.obj
 0004:00000f18       $pdata$?__AllocStdCallThunk_cmn@@YAPEAXXZ 0000000180033f18     atls:atlthunk.obj
 0004:00000f24       $pdata$??$GetProcAddressAll@P6AP6A_JPEAUHWND__@@I_K_J@ZPEAUAtlThunkData_t@@@Z@@YAP6AP6A_JPEAUHWND__@@I_K_J@ZPEAUAtlThunkData_t@@@ZPEAP6AP6A_J0I12@Z3@Z@Z 0000000180033f24     atls:atlthunk.obj
 0004:00000f24       $pdata$??$GetProcAddressAll@P6APEAUAtlThunkData_t@@XZ@@YAP6APEAUAtlThunkData_t@@XZPEAP6APEAU0@XZ@Z 0000000180033f24     atls:atlthunk.obj
 0004:00000f24       $pdata$??$GetProcAddressAll@P6AXPEAUAtlThunkData_t@@@Z@@YAP6AXPEAUAtlThunkData_t@@@ZPEAP6AX0@Z@Z 0000000180033f24     atls:atlthunk.obj
 0004:00000f24       $pdata$??$GetProcAddressAll@P6AXPEAUAtlThunkData_t@@PEAX_K@Z@@YAP6AXPEAUAtlThunkData_t@@PEAX_K@ZPEAP6AX012@Z@Z 0000000180033f24     atls:atlthunk.obj
 0004:00000f30       $pdata$_purecall           0000000180033f30     libvcruntime:purevirt.obj
 0004:00000f3c       $pdata$wcsstr              0000000180033f3c     libvcruntime:wcsstr.obj
 0004:00000f84       $pdata$__vcrt_initialize   0000000180033f84     libvcruntime:initialization.obj
 0004:00000f90       $pdata$__vcrt_uninitialize 0000000180033f90     libvcruntime:initialization.obj
 0004:00000f9c       $pdata$__vcrt_uninitialize_critical 0000000180033f9c     libvcruntime:initialization.obj
 0004:00000fa8       $pdata$__vcrt_thread_attach 0000000180033fa8     libvcruntime:initialization.obj
 0004:00000fb4       $pdata$__vcrt_thread_detach 0000000180033fb4     libvcruntime:initialization.obj
 0004:00000fc0       $pdata$__C_specific_handler 0000000180033fc0     libvcruntime:riscchandler.obj
 0004:00000fcc       $pdata$?CatchTryBlock@__FrameHandler3@@SAPEBU_s_TryBlockMapEntry@@PEBU_s_FuncInfo@@H@Z 0000000180033fcc     libvcruntime:risctrnsctrl.obj
 0004:00000fd8       $pdata$?ExecutionInCatch@__FrameHandler3@@SA_NPEAU_xDISPATCHER_CONTEXT@@PEBU_s_FuncInfo@@@Z 0000000180033fd8     libvcruntime:risctrnsctrl.obj
 0004:00000fe4       $pdata$?FrameUnwindToEmptyState@__FrameHandler3@@SAXPEA_KPEAU_xDISPATCHER_CONTEXT@@PEBU_s_FuncInfo@@@Z 0000000180033fe4     libvcruntime:risctrnsctrl.obj
 0004:00000ff0       $pdata$?GetEstablisherFrame@__FrameHandler3@@SAPEA_KPEA_KPEAU_xDISPATCHER_CONTEXT@@PEBU_s_FuncInfo@@0@Z 0000000180033ff0     libvcruntime:risctrnsctrl.obj
 0004:00000ffc       $pdata$?UnwindNestedFrames@__FrameHandler3@@SAXPEA_KPEAUEHExceptionRecord@@PEAU_CONTEXT@@0PEAXPEBU_s_FuncInfo@@HHPEBU_s_HandlerType@@PEAU_xDISPATCHER_CONTEXT@@E@Z 0000000180033ffc     libvcruntime:risctrnsctrl.obj
 0004:00001008       $pdata$?GetRangeOfTrysToCheck@__FrameHandler3@@SA?AU?$pair@Viterator@TryBlockMap@__FrameHandler3@@V123@@std@@AEAVTryBlockMap@1@HPEAU_xDISPATCHER_CONTEXT@@PEBU_s_FuncInfo@@H@Z 0000000180034008     libvcruntime:risctrnsctrl.obj
 0004:00001014       $pdata$_GetImageBase       0000000180034014     libvcruntime:risctrnsctrl.obj
 0004:00001020       $pdata$_SetImageBase       0000000180034020     libvcruntime:risctrnsctrl.obj
 0004:0000102c       $pdata$_GetThrowImageBase  000000018003402c     libvcruntime:risctrnsctrl.obj
 0004:00001038       $pdata$_SetThrowImageBase  0000000180034038     libvcruntime:risctrnsctrl.obj
 0004:00001044       $pdata$_CreateFrameInfo    0000000180034044     libvcruntime:risctrnsctrl.obj
 0004:00001050       $pdata$_FindAndUnlinkFrame 0000000180034050     libvcruntime:risctrnsctrl.obj
 0004:0000105c       $pdata$__CxxFrameHandler3  000000018003405c     libvcruntime:risctrnsctrl.obj
 0004:00001068       $pdata$??$_CallSETranslator@V__FrameHandler3@@@@YAHPEAUEHExceptionRecord@@PEA_KPEAU_CONTEXT@@PEAU_xDISPATCHER_CONTEXT@@PEBU_s_FuncInfo@@K1@Z 0000000180034068     libvcruntime:risctrnsctrl.obj
 0004:00001074       $pdata$?filt$0@?0???$_CallSETranslator@V__FrameHandler3@@@@YAHPEAUEHExceptionRecord@@PEA_KPEAU_CONTEXT@@PEAU_xDISPATCHER_CONTEXT@@PEBU_s_FuncInfo@@K1@Z@4HA 0000000180034074     libvcruntime:risctrnsctrl.obj
 0004:00001080       $pdata$_IsExceptionObjectToBeDestroyed 0000000180034080     libvcruntime:ehhelpers.obj
 0004:0000108c       $pdata$__FrameUnwindFilter 000000018003408c     libvcruntime:ehhelpers.obj
 0004:00001098       $pdata$__DestructExceptionObject 0000000180034098     libvcruntime:ehhelpers.obj
 0004:000010a4       $pdata$__DestructExceptionObject$filt$0 00000001800340a4     libvcruntime:ehhelpers.obj
 0004:000010b0       $pdata$__std_type_info_destroy_list 00000001800340b0     libvcruntime:std_type_info.obj
 0004:000010bc       $pdata$__std_exception_copy 00000001800340bc     libvcruntime:std_exception.obj
 0004:000010c8       $pdata$__std_exception_destroy 00000001800340c8     libvcruntime:std_exception.obj
 0004:000010d4       $pdata$_CxxThrowException  00000001800340d4     libvcruntime:throw.obj
 0004:000010e0       $pdata$__vcrt_initialize_ptd 00000001800340e0     libvcruntime:per_thread_data.obj
 0004:000010ec       $pdata$__vcrt_uninitialize_ptd 00000001800340ec     libvcruntime:per_thread_data.obj
 0004:000010f8       $pdata$__vcrt_getptd       00000001800340f8     libvcruntime:per_thread_data.obj
 0004:00001104       $pdata$__vcrt_getptd_noexit 0000000180034104     libvcruntime:per_thread_data.obj
 0004:00001110       $pdata$__vcrt_freeptd      0000000180034110     libvcruntime:per_thread_data.obj
 0004:0000111c       $pdata$__vcrt_freefls      000000018003411c     libvcruntime:per_thread_data.obj
 0004:00001128       $pdata$__vcrt_initialize_locks 0000000180034128     libvcruntime:locks.obj
 0004:00001134       $pdata$__vcrt_uninitialize_locks 0000000180034134     libvcruntime:locks.obj
 0004:00001164       $pdata$?StateFromIp@__FrameHandler3@@SAHPEBU_s_FuncInfo@@PEAU_xDISPATCHER_CONTEXT@@_K@Z 0000000180034164     libvcruntime:ehstate.obj
 0004:00001170       $pdata$?GetCurrentState@__FrameHandler3@@SAHPEA_KPEAU_xDISPATCHER_CONTEXT@@PEBU_s_FuncInfo@@@Z 0000000180034170     libvcruntime:ehstate.obj
 0004:0000117c       $pdata$?SetUnwindTryBlock@__FrameHandler3@@SAXPEA_KPEAU_xDISPATCHER_CONTEXT@@PEBU_s_FuncInfo@@H@Z 000000018003417c     libvcruntime:ehstate.obj
 0004:00001188       $pdata$?GetUnwindTryBlock@__FrameHandler3@@SAHPEA_KPEAU_xDISPATCHER_CONTEXT@@PEBU_s_FuncInfo@@@Z 0000000180034188     libvcruntime:ehstate.obj
 0004:00001194       $pdata$?FrameUnwindToState@__FrameHandler3@@SAXPEA_KPEAU_xDISPATCHER_CONTEXT@@PEBU_s_FuncInfo@@H@Z 0000000180034194     libvcruntime:frame.obj
 0004:000011a0       $pdata$?filt$0@?0??FrameUnwindToState@__FrameHandler3@@SAXPEA_KPEAU_xDISPATCHER_CONTEXT@@PEBU_s_FuncInfo@@H@Z@4HA 00000001800341a0     libvcruntime:frame.obj
 0004:000011ac       $pdata$?fin$1@?0??FrameUnwindToState@__FrameHandler3@@SAXPEA_KPEAU_xDISPATCHER_CONTEXT@@PEBU_s_FuncInfo@@H@Z@4HA 00000001800341ac     libvcruntime:frame.obj
 0004:000011b8       $pdata$?GetHandlerSearchState@__FrameHandler3@@SAHPEA_KPEAU_xDISPATCHER_CONTEXT@@PEBU_s_FuncInfo@@@Z 00000001800341b8     libvcruntime:frame.obj
 0004:000011c4       $pdata$?CxxCallCatchBlock@__FrameHandler3@@SAPEAXPEAU_EXCEPTION_RECORD@@@Z 00000001800341c4     libvcruntime:frame.obj
 0004:000011d0       $pdata$?filt$0@?0??CxxCallCatchBlock@__FrameHandler3@@SAPEAXPEAU_EXCEPTION_RECORD@@@Z@4HA 00000001800341d0     libvcruntime:frame.obj
 0004:000011dc       $pdata$?fin$1@?0??CxxCallCatchBlock@__FrameHandler3@@SAPEAXPEAU_EXCEPTION_RECORD@@@Z@4HA 00000001800341dc     libvcruntime:frame.obj
 0004:000011e8       $pdata$??0bad_exception@std@@QEAA@AEBV01@@Z 00000001800341e8     libvcruntime:frame.obj
 0004:000011f4       $pdata$?ExFilterRethrow@@YAHPEAU_EXCEPTION_POINTERS@@PEAUEHExceptionRecord@@PEAH@Z 00000001800341f4     libvcruntime:frame.obj
 0004:00001200       $pdata$?IsInExceptionSpec@@YAEPEAUEHExceptionRecord@@PEBU_s_ESTypeList@@@Z 0000000180034200     libvcruntime:frame.obj
 0004:0000120c       $pdata$?Is_bad_exception_allowed@@YAEPEBU_s_ESTypeList@@@Z 000000018003420c     libvcruntime:frame.obj
 0004:00001218       $pdata$??$__InternalCxxFrameHandler@V__FrameHandler3@@@@YA?AW4_EXCEPTION_DISPOSITION@@PEAUEHExceptionRecord@@PEA_KPEAU_CONTEXT@@PEAU_xDISPATCHER_CONTEXT@@PEBU_s_FuncInfo@@H1E@Z 0000000180034218     libvcruntime:frame.obj
 0004:00001224       $pdata$??$TypeMatchHelper@V__FrameHandler3@@@@YAHPEBU_s_HandlerType@@PEBU_s_CatchableType@@PEBU_s_ThrowInfo@@@Z 0000000180034224     libvcruntime:frame.obj
 0004:00001230       $pdata$??$BuildCatchObjectHelperInternal@V__FrameHandler3@@@@YAHPEAUEHExceptionRecord@@PEAXPEBU_s_HandlerType@@PEBU_s_CatchableType@@@Z 0000000180034230     libvcruntime:frame.obj
 0004:0000123c       $pdata$??$BuildCatchObjectInternal@V__FrameHandler3@@@@YAXPEAUEHExceptionRecord@@PEAXPEBU_s_HandlerType@@PEBU_s_CatchableType@@@Z 000000018003423c     libvcruntime:frame.obj
 0004:00001248       $pdata$??$FindHandler@V__FrameHandler3@@@@YAXPEAUEHExceptionRecord@@PEA_KPEAU_CONTEXT@@PEAU_xDISPATCHER_CONTEXT@@PEBU_s_FuncInfo@@EH1@Z 0000000180034248     libvcruntime:frame.obj
 0004:00001254       $pdata$??$CatchIt@V__FrameHandler3@@@@YAXPEAUEHExceptionRecord@@PEA_KPEAU_CONTEXT@@PEAU_xDISPATCHER_CONTEXT@@PEBU_s_FuncInfo@@PEBU_s_HandlerType@@PEBU_s_CatchableType@@PEBU_s_TryBlockMapEntry@@H1EE@Z 0000000180034254     libvcruntime:frame.obj
 0004:00001260       $pdata$??$FindHandlerForForeignException@V__FrameHandler3@@@@YAXPEAUEHExceptionRecord@@PEA_KPEAU_CONTEXT@@PEAU_xDISPATCHER_CONTEXT@@PEBU_s_FuncInfo@@HH1@Z 0000000180034260     libvcruntime:frame.obj
 0004:0000126c       $pdata$__vcrt_FlsAlloc     000000018003426c     libvcruntime:winapi_downlevel.obj
 0004:00001278       $pdata$__vcrt_FlsFree      0000000180034278     libvcruntime:winapi_downlevel.obj
 0004:00001284       $pdata$__vcrt_FlsGetValue  0000000180034284     libvcruntime:winapi_downlevel.obj
 0004:00001290       $pdata$__vcrt_FlsSetValue  0000000180034290     libvcruntime:winapi_downlevel.obj
 0004:0000129c       $pdata$__vcrt_InitializeCriticalSectionEx 000000018003429c     libvcruntime:winapi_downlevel.obj
 0004:000012a8       $pdata$?try_get_function@@YAPEAXW4function_id@?A0x81a78551@@QEBDQEBW4module_id@2@2@Z 00000001800342a8     libvcruntime:winapi_downlevel.obj
 0004:000012e4       $pdata$_invalid_parameter_noinfo 00000001800342e4     libucrt:invalid_parameter.obj
 0004:000012f0       $pdata$_invoke_watson      00000001800342f0     libucrt:invalid_parameter.obj
 0004:000012fc       $pdata$__acrt_call_reportfault 00000001800342fc     libucrt:invalid_parameter.obj
 0004:00001308       $pdata$_invalid_parameter  0000000180034308     libucrt:invalid_parameter.obj
 0004:00001314       $pdata$_errno              0000000180034314     libucrt:errno.obj
 0004:00001320       $pdata$__doserrno          0000000180034320     libucrt:errno.obj
 0004:0000132c       $pdata$__acrt_errno_map_os_error 000000018003432c     libucrt:errno.obj
 0004:00001338       $pdata$_recalloc_base      0000000180034338     libucrt:recalloc.obj
 0004:00001344       $pdata$_resetstkoflw       0000000180034344     libucrt:resetstk.obj
 0004:00001350       $pdata$wcscat_s            0000000180034350     libucrt:wcscat_s.obj
 0004:0000135c       $pdata$wcscpy_s            000000018003435c     libucrt:wcscpy_s.obj
 0004:00001368       $pdata$wcsncpy_s           0000000180034368     libucrt:wcsncpy_s.obj
 0004:00001374       $pdata$??0_LocaleUpdate@@QEAA@QEAU__crt_locale_pointers@@@Z 0000000180034374     libucrt:output.obj
 0004:00001380       $pdata$__stdio_common_vswprintf_s 0000000180034380     libucrt:output.obj
 0004:0000138c       $pdata$?write_string@?$string_output_adapter@_W@__crt_stdio_output@@QEBAXQEB_WHQEAHAEAV__crt_deferred_errno_cache@@@Z 000000018003438c     libucrt:output.obj
 0004:00001398       $pdata$??$common_vsprintf@Vformat_validation_base@__crt_stdio_output@@_W@@YAH_KQEA_W0QEB_WQEAU__crt_locale_pointers@@QEAD@Z 0000000180034398     libucrt:output.obj
 0004:000013a4       $pdata$??$write_multiple_characters@V?$string_output_adapter@_W@__crt_stdio_output@@D@__crt_stdio_output@@YAXAEBV?$string_output_adapter@_W@0@DHQEAH@Z 00000001800343a4     libucrt:output.obj
 0004:000013b0       $pdata$??$ensure_buffer_is_big_enough@D@formatting_buffer@__crt_stdio_output@@QEAA_N_K@Z 00000001800343b0     libucrt:output.obj
 0004:000013bc       $pdata$??$ensure_buffer_is_big_enough@_W@formatting_buffer@__crt_stdio_output@@QEAA_N_K@Z 00000001800343bc     libucrt:output.obj
 0004:000013c8       $pdata$?process@?$output_processor@_WV?$string_output_adapter@_W@__crt_stdio_output@@V?$format_validation_base@_WV?$string_output_adapter@_W@__crt_stdio_output@@@2@@__crt_stdio_output@@QEAAHXZ 00000001800343c8     libucrt:output.obj
 0004:000013d4       $pdata$?parse_int_from_format_string@?$output_processor@_WV?$string_output_adapter@_W@__crt_stdio_output@@V?$format_validation_base@_WV?$string_output_adapter@_W@__crt_stdio_output@@@2@@__crt_stdio_output@@AEAA_NQEAH@Z 00000001800343d4     libucrt:output.obj
 0004:000013e0       $pdata$?state_case_size@?$output_processor@_WV?$string_output_adapter@_W@__crt_stdio_output@@V?$format_validation_base@_WV?$string_output_adapter@_W@__crt_stdio_output@@@2@@__crt_stdio_output@@AEAA_NXZ 00000001800343e0     libucrt:output.obj
 0004:000013ec       $pdata$?state_case_type@?$output_processor@_WV?$string_output_adapter@_W@__crt_stdio_output@@V?$format_validation_base@_WV?$string_output_adapter@_W@__crt_stdio_output@@@2@@__crt_stdio_output@@AEAA_NXZ 00000001800343ec     libucrt:output.obj
 0004:000013f8       $pdata$?type_case_c_tchar@?$output_processor@_WV?$string_output_adapter@_W@__crt_stdio_output@@V?$format_validation_base@_WV?$string_output_adapter@_W@__crt_stdio_output@@@2@@__crt_stdio_output@@AEAA_N_W@Z 00000001800343f8     libucrt:output.obj
 0004:00001404       $pdata$?type_case_Z@?$output_processor@_WV?$string_output_adapter@_W@__crt_stdio_output@@V?$format_validation_base@_WV?$string_output_adapter@_W@__crt_stdio_output@@@2@@__crt_stdio_output@@AEAA_NXZ 0000000180034404     libucrt:output.obj
 0004:00001410       $pdata$?type_case_s@?$output_processor@_WV?$string_output_adapter@_W@__crt_stdio_output@@V?$format_validation_base@_WV?$string_output_adapter@_W@__crt_stdio_output@@@2@@__crt_stdio_output@@AEAA_NXZ 0000000180034410     libucrt:output.obj
 0004:0000141c       $pdata$?type_case_a@?$output_processor@_WV?$string_output_adapter@_W@__crt_stdio_output@@V?$format_validation_base@_WV?$string_output_adapter@_W@__crt_stdio_output@@@2@@__crt_stdio_output@@AEAA_NXZ 000000018003441c     libucrt:output.obj
 0004:00001428       $pdata$?type_case_integer@?$output_processor@_WV?$string_output_adapter@_W@__crt_stdio_output@@V?$format_validation_base@_WV?$string_output_adapter@_W@__crt_stdio_output@@@2@@__crt_stdio_output@@AEAA_NI_N@Z 0000000180034428     libucrt:output.obj
 0004:00001434       $pdata$?type_case_n@?$output_processor@_WV?$string_output_adapter@_W@__crt_stdio_output@@V?$format_validation_base@_WV?$string_output_adapter@_W@__crt_stdio_output@@@2@@__crt_stdio_output@@AEAA_NXZ 0000000180034434     libucrt:output.obj
 0004:00001440       $pdata$?write_stored_string_tchar@?$output_processor@_WV?$string_output_adapter@_W@__crt_stdio_output@@V?$format_validation_base@_WV?$string_output_adapter@_W@__crt_stdio_output@@@2@@__crt_stdio_output@@AEAA_N_W@Z 0000000180034440     libucrt:output.obj
 0004:0000144c       $pdata$??$type_case_integer_parse_into_buffer@_K@?$output_processor@_WV?$string_output_adapter@_W@__crt_stdio_output@@V?$format_validation_base@_WV?$string_output_adapter@_W@__crt_stdio_output@@@2@@__crt_stdio_output@@AEAAX_KI_N@Z 000000018003444c     libucrt:output.obj
 0004:00001458       $pdata$??$type_case_integer_parse_into_buffer@I@?$output_processor@_WV?$string_output_adapter@_W@__crt_stdio_output@@V?$format_validation_base@_WV?$string_output_adapter@_W@__crt_stdio_output@@@2@@__crt_stdio_output@@AEAAXII_N@Z 0000000180034458     libucrt:output.obj
 0004:00001464       $pdata$_seh_filter_exe     0000000180034464     libucrt:exception_filter.obj
 0004:00001470       $pdata$?try_cor_exit_process@@YAXI@Z 0000000180034470     libucrt:exit.obj
 0004:0000147c       $pdata$?exit_or_terminate_process@@YAXI@Z 000000018003447c     libucrt:exit.obj
 0004:00001488       $pdata$?common_exit@@YAXHW4_crt_exit_cleanup_mode@@W4_crt_exit_return_mode@@@Z 0000000180034488     libucrt:exit.obj
 0004:00001494       $pdata$??R<lambda_6e4b09c48022b2350581041d5f6b0c4c>@@QEBA@XZ 0000000180034494     libucrt:exit.obj
 0004:000014a0       $pdata$?filt$0@?0???R<lambda_6e4b09c48022b2350581041d5f6b0c4c>@@QEBA@XZ@4HA 00000001800344a0     libucrt:exit.obj
 0004:000014ac       $pdata$??$?RV<lambda_d80eeec6fff315bfe5c115232f3240e3>@@AEAV<lambda_6e4b09c48022b2350581041d5f6b0c4c>@@V<lambda_2358e3775559c9db80273638284d5e45>@@@?$__crt_seh_guarded_call@X@@QEAAX$$QEAV<lambda_d80eeec6fff315bfe5c115232f3240e3>@@AEAV<lambda_6e4b09c48022b2350581041d5f6b0c4c>@@$$QEAV<lambda_2358e3775559c9db80273638284d5e45>@@@Z 00000001800344ac     libucrt:exit.obj
 0004:000014b8       $pdata$?fin$0@?0???$?RV<lambda_0ae27a3a962d80f24befdcbee591983d>@@AEAV<lambda_8d0ee55de4b1038c4002e0adecdf1839>@@V<lambda_dc504788e8f1664fe9b84e20bfb512f2>@@@?$__crt_seh_guarded_call@X@@QEAAX$$QEAV<lambda_0ae27a3a962d80f24befdcbee591983d>@@AEAV<lambda_8d0ee55de4b1038c4002e0adecdf1839>@@$$QEAV<lambda_dc504788e8f1664fe9b84e20bfb512f2>@@@Z@4HA 00000001800344b8     libucrt:per_thread_data.obj
 0004:000014b8       $pdata$?fin$0@?0???$?RV<lambda_2d41944a1d46af3157314b8a01080d33>@@AEAV<lambda_8f455de75cd7d7f24b4096f044d8b9e6>@@V<lambda_aa500f224e6afead328df44964fe2772>@@@?$__crt_seh_guarded_call@X@@QEAAX$$QEAV<lambda_2d41944a1d46af3157314b8a01080d33>@@AEAV<lambda_8f455de75cd7d7f24b4096f044d8b9e6>@@$$QEAV<lambda_aa500f224e6afead328df44964fe2772>@@@Z@4HA 00000001800344b8     libucrt:per_thread_data.obj
 0004:000014b8       $pdata$?fin$0@?0???$?RV<lambda_aa87e3671a710a21b5dc78c0bdf72e11>@@AEAV<lambda_92619d2358a28f41a33ba319515a20b9>@@V<lambda_6992ecaafeb10aed2b74cb1fae11a551>@@@?$__crt_seh_guarded_call@X@@QEAAX$$QEAV<lambda_aa87e3671a710a21b5dc78c0bdf72e11>@@AEAV<lambda_92619d2358a28f41a33ba319515a20b9>@@$$QEAV<lambda_6992ecaafeb10aed2b74cb1fae11a551>@@@Z@4HA 00000001800344b8     libucrt:per_thread_data.obj
 0004:000014b8       $pdata$?fin$0@?0???$?RV<lambda_f2e299630e499de9f9a165e60fcd3db5>@@AEAV<lambda_2ae9d31cdba2644fcbeaf08da7c24588>@@V<lambda_40d01ff24d0e7b3814fdbdcee8eab3c7>@@@?$__crt_seh_guarded_call@X@@QEAAX$$QEAV<lambda_f2e299630e499de9f9a165e60fcd3db5>@@AEAV<lambda_2ae9d31cdba2644fcbeaf08da7c24588>@@$$QEAV<lambda_40d01ff24d0e7b3814fdbdcee8eab3c7>@@@Z@4HA 00000001800344b8     libucrt:per_thread_data.obj
 0004:000014b8       $pdata$?fin$0@?0???$?RV<lambda_efdfa57d1f175319df784efa44bb7b81>@@AEAV<lambda_5f0a4c1567f8adc6734073e5d1e1b35c>@@V<lambda_2e8a7d3640ea6ccb4c2413664c2db6fd>@@@?$__crt_seh_guarded_call@X@@QEAAX$$QEAV<lambda_efdfa57d1f175319df784efa44bb7b81>@@AEAV<lambda_5f0a4c1567f8adc6734073e5d1e1b35c>@@$$QEAV<lambda_2e8a7d3640ea6ccb4c2413664c2db6fd>@@@Z@4HA 00000001800344b8     libucrt:mbctype.obj
 0004:000014b8       $pdata$?fin$0@?0???$?RV<lambda_450d765d439847d4c735a33c368b5fc0>@@AEAV<lambda_44731a7d0e6d81c3e6aa82d741081786>@@V<lambda_601a2a7da3b7a96e9554ac7215c4b07c>@@@?$__crt_seh_guarded_call@P6AXH@Z@@QEAAP6AXH@Z$$QEAV<lambda_450d765d439847d4c735a33c368b5fc0>@@AEAV<lambda_44731a7d0e6d81c3e6aa82d741081786>@@$$QEAV<lambda_601a2a7da3b7a96e9554ac7215c4b07c>@@@Z@4HA 00000001800344b8     libucrt:signal.obj
 0004:000014b8       $pdata$?fin$0@?0???$?RV<lambda_d80eeec6fff315bfe5c115232f3240e3>@@AEAV<lambda_6e4b09c48022b2350581041d5f6b0c4c>@@V<lambda_2358e3775559c9db80273638284d5e45>@@@?$__crt_seh_guarded_call@X@@QEAAX$$QEAV<lambda_d80eeec6fff315bfe5c115232f3240e3>@@AEAV<lambda_6e4b09c48022b2350581041d5f6b0c4c>@@$$QEAV<lambda_2358e3775559c9db80273638284d5e45>@@@Z@4HA 00000001800344b8     libucrt:exit.obj
 0004:000014b8       $pdata$?fin$0@?0???$?RV<lambda_638799b9deba96c50f710eeac98168cd>@@AEAV<lambda_22ebabd17bc4fa466a2aca6d8deb888d>@@V<lambda_a6f7d7db0129f75315ebf26d50c089f1>@@@?$__crt_seh_guarded_call@H@@QEAAH$$QEAV<lambda_638799b9deba96c50f710eeac98168cd>@@AEAV<lambda_22ebabd17bc4fa466a2aca6d8deb888d>@@$$QEAV<lambda_a6f7d7db0129f75315ebf26d50c089f1>@@@Z@4HA 00000001800344b8     libucrt:onexit.obj
 0004:000014b8       $pdata$?fin$0@?0???$?RV<lambda_7777bce6b2f8c936911f934f8298dc43>@@AEAV<lambda_f03950bc5685219e0bcd2087efbe011e>@@V<lambda_3883c3dff614d5e0c5f61bb1ac94921c>@@@?$__crt_seh_guarded_call@H@@QEAAH$$QEAV<lambda_7777bce6b2f8c936911f934f8298dc43>@@AEAV<lambda_f03950bc5685219e0bcd2087efbe011e>@@$$QEAV<lambda_3883c3dff614d5e0c5f61bb1ac94921c>@@@Z@4HA 00000001800344b8     libucrt:onexit.obj
 0004:000014c4       $pdata$_configure_narrow_argv 00000001800344c4     libucrt:argv_parsing.obj
 0004:000014d0       $pdata$__acrt_allocate_buffer_for_argv 00000001800344d0     libucrt:argv_parsing.obj
 0004:000014dc       $pdata$??$parse_command_line@D@@YAXPEADPEAPEAD0PEA_K2@Z 00000001800344dc     libucrt:argv_parsing.obj
 0004:000014e8       $pdata$__dcrt_uninitialize_environments_nolock 00000001800344e8     libucrt:environment_initialization.obj
 0004:000014f4       $pdata$??$common_initialize_environment_nolock@D@@YAHXZ 00000001800344f4     libucrt:environment_initialization.obj
 0004:00001500       $pdata$??$uninitialize_environment_internal@D@@YAXAEAPEAPEAD@Z 0000000180034500     libucrt:environment_initialization.obj
 0004:0000150c       $pdata$??$uninitialize_environment_internal@_W@@YAXAEAPEAPEA_W@Z 000000018003450c     libucrt:environment_initialization.obj
 0004:00001518       $pdata$??$free_environment@D@@YAXQEAPEAD@Z 0000000180034518     libucrt:environment_initialization.obj
 0004:00001518       $pdata$??$free_environment@_W@@YAXQEAPEA_W@Z 0000000180034518     libucrt:environment_initialization.obj
 0004:00001524       $pdata$??$create_environment@D@@YAQEAPEADQEAD@Z 0000000180034524     libucrt:environment_initialization.obj
 0004:00001530       $pdata$_register_onexit_function 0000000180034530     libucrt:onexit.obj
 0004:0000153c       $pdata$_execute_onexit_table 000000018003453c     libucrt:onexit.obj
 0004:00001548       $pdata$??R<lambda_22ebabd17bc4fa466a2aca6d8deb888d>@@QEBAHXZ 0000000180034548     libucrt:onexit.obj
 0004:00001554       $pdata$??R<lambda_f03950bc5685219e0bcd2087efbe011e>@@QEBAHXZ 0000000180034554     libucrt:onexit.obj
 0004:00001560       $pdata$??$?RV<lambda_638799b9deba96c50f710eeac98168cd>@@AEAV<lambda_22ebabd17bc4fa466a2aca6d8deb888d>@@V<lambda_a6f7d7db0129f75315ebf26d50c089f1>@@@?$__crt_seh_guarded_call@H@@QEAAH$$QEAV<lambda_638799b9deba96c50f710eeac98168cd>@@AEAV<lambda_22ebabd17bc4fa466a2aca6d8deb888d>@@$$QEAV<lambda_a6f7d7db0129f75315ebf26d50c089f1>@@@Z 0000000180034560     libucrt:onexit.obj
 0004:0000156c       $pdata$??$?RV<lambda_7777bce6b2f8c936911f934f8298dc43>@@AEAV<lambda_f03950bc5685219e0bcd2087efbe011e>@@V<lambda_3883c3dff614d5e0c5f61bb1ac94921c>@@@?$__crt_seh_guarded_call@H@@QEAAH$$QEAV<lambda_7777bce6b2f8c936911f934f8298dc43>@@AEAV<lambda_f03950bc5685219e0bcd2087efbe011e>@@$$QEAV<lambda_3883c3dff614d5e0c5f61bb1ac94921c>@@@Z 000000018003456c     libucrt:onexit.obj
 0004:00001578       $pdata$__acrt_uninitialize 0000000180034578     libucrt:initialization.obj
 0004:00001584       $pdata$__acrt_uninitialize_critical 0000000180034584     libucrt:initialization.obj
 0004:00001590       $pdata$__acrt_thread_attach 0000000180034590     libucrt:initialization.obj
 0004:0000159c       $pdata$__acrt_thread_detach 000000018003459c     libucrt:initialization.obj
 0004:000015a8       $pdata$initialize_c        00000001800345a8     libucrt:initialization.obj
 0004:000015b4       $pdata$uninitialize_environment 00000001800345b4     libucrt:initialization.obj
 0004:000015c0       $pdata$initialize_pointers 00000001800345c0     libucrt:initialization.obj
 0004:000015cc       $pdata$uninitialize_allocated_memory 00000001800345cc     libucrt:initialization.obj
 0004:000015d8       $pdata$uninitialize_allocated_io_buffers 00000001800345d8     libucrt:initialization.obj
 0004:000015e4       $pdata$_initterm           00000001800345e4     libucrt:initterm.obj
 0004:000015f0       $pdata$_initterm_e         00000001800345f0     libucrt:initterm.obj
 0004:000015fc       $pdata$_callnewh           00000001800345fc     libucrt:new_handler.obj
 0004:00001608       $pdata$_query_new_handler  0000000180034608     libucrt:new_handler.obj
 0004:00001614       $pdata$_query_new_handler$fin$0 0000000180034614     libucrt:new_handler.obj
 0004:00001620       $pdata$terminate           0000000180034620     libucrt:terminate.obj
 0004:0000162c       $pdata$abort               000000018003462c     libucrt:abort.obj
 0004:00001638       $pdata$strcpy_s            0000000180034638     libucrt:strcpy_s.obj
 0004:00001644       $pdata$??$parse_integer@KV?$c_string_character_source@_W@__crt_strtox@@@__crt_strtox@@YAKQEAU__crt_locale_pointers@@V?$c_string_character_source@_W@0@H_N@Z 0000000180034644     libucrt:atox.obj
 0004:0000165c       $pdata$_free_base          000000018003465c     libucrt:free_base.obj
 0004:00001668       $pdata$__acrt_initialize_ptd 0000000180034668     libucrt:per_thread_data.obj
 0004:00001674       $pdata$__acrt_uninitialize_ptd 0000000180034674     libucrt:per_thread_data.obj
 0004:00001680       $pdata$__acrt_getptd       0000000180034680     libucrt:per_thread_data.obj
 0004:0000168c       $pdata$__acrt_getptd_head  000000018003468c     libucrt:per_thread_data.obj
 0004:00001698       $pdata$__acrt_getptd_noexit 0000000180034698     libucrt:per_thread_data.obj
 0004:000016a4       $pdata$__acrt_freeptd      00000001800346a4     libucrt:per_thread_data.obj
 0004:000016b0       $pdata$?destroy_fls@@YAXPEAX@Z 00000001800346b0     libucrt:per_thread_data.obj
 0004:000016bc       $pdata$?replace_current_thread_locale_nolock@@YAXQEAU__acrt_ptd@@QEAU__crt_locale_data@@@Z 00000001800346bc     libucrt:per_thread_data.obj
 0004:000016c8       $pdata$?construct_ptd_array@@YAXQEAU__acrt_ptd@@@Z 00000001800346c8     libucrt:per_thread_data.obj
 0004:000016d4       $pdata$?destroy_ptd_array@@YAXQEAU__acrt_ptd@@@Z 00000001800346d4     libucrt:per_thread_data.obj
 0004:000016e0       $pdata$??$?RV<lambda_0ae27a3a962d80f24befdcbee591983d>@@AEAV<lambda_8d0ee55de4b1038c4002e0adecdf1839>@@V<lambda_dc504788e8f1664fe9b84e20bfb512f2>@@@?$__crt_seh_guarded_call@X@@QEAAX$$QEAV<lambda_0ae27a3a962d80f24befdcbee591983d>@@AEAV<lambda_8d0ee55de4b1038c4002e0adecdf1839>@@$$QEAV<lambda_dc504788e8f1664fe9b84e20bfb512f2>@@@Z 00000001800346e0     libucrt:per_thread_data.obj
 0004:000016ec       $pdata$??$?RV<lambda_aa87e3671a710a21b5dc78c0bdf72e11>@@AEAV<lambda_92619d2358a28f41a33ba319515a20b9>@@V<lambda_6992ecaafeb10aed2b74cb1fae11a551>@@@?$__crt_seh_guarded_call@X@@QEAAX$$QEAV<lambda_aa87e3671a710a21b5dc78c0bdf72e11>@@AEAV<lambda_92619d2358a28f41a33ba319515a20b9>@@$$QEAV<lambda_6992ecaafeb10aed2b74cb1fae11a551>@@@Z 00000001800346ec     libucrt:per_thread_data.obj
 0004:000016f8       $pdata$??$?RV<lambda_f2e299630e499de9f9a165e60fcd3db5>@@AEAV<lambda_2ae9d31cdba2644fcbeaf08da7c24588>@@V<lambda_40d01ff24d0e7b3814fdbdcee8eab3c7>@@@?$__crt_seh_guarded_call@X@@QEAAX$$QEAV<lambda_f2e299630e499de9f9a165e60fcd3db5>@@AEAV<lambda_2ae9d31cdba2644fcbeaf08da7c24588>@@$$QEAV<lambda_40d01ff24d0e7b3814fdbdcee8eab3c7>@@@Z 00000001800346f8     libucrt:per_thread_data.obj
 0004:00001704       $pdata$??$?RV<lambda_2d41944a1d46af3157314b8a01080d33>@@AEAV<lambda_8f455de75cd7d7f24b4096f044d8b9e6>@@V<lambda_aa500f224e6afead328df44964fe2772>@@@?$__crt_seh_guarded_call@X@@QEAAX$$QEAV<lambda_2d41944a1d46af3157314b8a01080d33>@@AEAV<lambda_8f455de75cd7d7f24b4096f044d8b9e6>@@$$QEAV<lambda_aa500f224e6afead328df44964fe2772>@@@Z 0000000180034704     libucrt:per_thread_data.obj
 0004:00001710       $pdata$_calloc_base        0000000180034710     libucrt:calloc_base.obj
 0004:0000171c       $pdata$_malloc_base        000000018003471c     libucrt:malloc_base.obj
 0004:00001728       $pdata$_msize_base         0000000180034728     libucrt:msize.obj
 0004:00001734       $pdata$_realloc_base       0000000180034734     libucrt:realloc_base.obj
 0004:00001740       $pdata$__acrt_initialize_winapi_thunks 0000000180034740     libucrt:winapi_thunks.obj
 0004:0000174c       $pdata$__acrt_uninitialize_winapi_thunks 000000018003474c     libucrt:winapi_thunks.obj
 0004:00001758       $pdata$__acrt_AreFileApisANSI 0000000180034758     libucrt:winapi_thunks.obj
 0004:00001764       $pdata$__acrt_FlsAlloc     0000000180034764     libucrt:winapi_thunks.obj
 0004:00001770       $pdata$__acrt_FlsFree      0000000180034770     libucrt:winapi_thunks.obj
 0004:0000177c       $pdata$__acrt_FlsGetValue  000000018003477c     libucrt:winapi_thunks.obj
 0004:00001788       $pdata$__acrt_FlsSetValue  0000000180034788     libucrt:winapi_thunks.obj
 0004:00001794       $pdata$__acrt_InitializeCriticalSectionEx 0000000180034794     libucrt:winapi_thunks.obj
 0004:000017a0       $pdata$__acrt_LCMapStringEx 00000001800347a0     libucrt:winapi_thunks.obj
 0004:000017ac       $pdata$__acrt_LocaleNameToLCID 00000001800347ac     libucrt:winapi_thunks.obj
 0004:000017b8       $pdata$__acrt_AppPolicyGetProcessTerminationMethodInternal 00000001800347b8     libucrt:winapi_thunks.obj
 0004:000017c4       $pdata$__acrt_SetThreadStackGuarantee 00000001800347c4     libucrt:winapi_thunks.obj
 0004:000017d0       $pdata$?try_get_function@@YAPEAXW4function_id@?A0x391cf84c@@QEBDQEBW4module_id@2@2@Z 00000001800347d0     libucrt:winapi_thunks.obj
 0004:000017dc       $pdata$wcstol              00000001800347dc     libucrt:strtox.obj
 0004:000017e8       $pdata$_mbtowc_l           00000001800347e8     libucrt:mbtowc.obj
 0004:000017f4       $pdata$__acrt_update_locale_info 00000001800347f4     libucrt:locale_update.obj
 0004:00001800       $pdata$__acrt_update_multibyte_info 0000000180034800     libucrt:locale_update.obj
 0004:0000180c       $pdata$__acrt_fp_format    000000018003480c     libucrt:cvt.obj
 0004:00001818       $pdata$?fp_format_e_internal@@YAHQEAD_KH_NIQEAU_strflt@@2QEAU__crt_locale_pointers@@@Z 0000000180034818     libucrt:cvt.obj
 0004:00001824       $pdata$?fp_format_e@@YAHQEBNQEAD_K12H_NIQEAU__crt_locale_pointers@@@Z 0000000180034824     libucrt:cvt.obj
 0004:00001830       $pdata$?fp_format_a@@YAHQEBNPEAD_KQEAD2H_NIQEAU__crt_locale_pointers@@@Z 0000000180034830     libucrt:cvt.obj
 0004:0000183c       $pdata$?fp_format_f_internal@@YAHQEAD_KHQEAU_strflt@@_NQEAU__crt_locale_pointers@@@Z 000000018003483c     libucrt:cvt.obj
 0004:00001848       $pdata$?fp_format_g@@YAHQEBNQEAD_K12H_NIQEAU__crt_locale_pointers@@@Z 0000000180034848     libucrt:cvt.obj
 0004:00001854       $pdata$_fileno             0000000180034854     libucrt:fileno.obj
 0004:00001860       $pdata$__acrt_initialize_stdio 0000000180034860     libucrt:_file.obj
 0004:0000186c       $pdata$__acrt_uninitialize_stdio 000000018003486c     libucrt:_file.obj
 0004:00001878       $pdata$__acrt_uninitialize_locale 0000000180034878     libucrt:wsetlocale.obj
 0004:00001884       $pdata$??$?RV<lambda_410d79af7f07d98d83a3f525b3859a53>@@AEAV<lambda_3e16ef9562a7dcce91392c22ab16ea36>@@V<lambda_38119f0e861e05405d8a144b9b982f0a>@@@?$__crt_seh_guarded_call@X@@QEAAX$$QEAV<lambda_410d79af7f07d98d83a3f525b3859a53>@@AEAV<lambda_3e16ef9562a7dcce91392c22ab16ea36>@@$$QEAV<lambda_38119f0e861e05405d8a144b9b982f0a>@@@Z 0000000180034884     libucrt:wsetlocale.obj
 0004:00001890       $pdata$?fin$0@?0???$?RV<lambda_410d79af7f07d98d83a3f525b3859a53>@@AEAV<lambda_3e16ef9562a7dcce91392c22ab16ea36>@@V<lambda_38119f0e861e05405d8a144b9b982f0a>@@@?$__crt_seh_guarded_call@X@@QEAAX$$QEAV<lambda_410d79af7f07d98d83a3f525b3859a53>@@AEAV<lambda_3e16ef9562a7dcce91392c22ab16ea36>@@$$QEAV<lambda_38119f0e861e05405d8a144b9b982f0a>@@@Z@4HA 0000000180034890     libucrt:wsetlocale.obj
 0004:0000189c       $pdata$__acrt_initialize_lowio 000000018003489c     libucrt:ioinit.obj
 0004:000018a8       $pdata$__acrt_initialize_lowio$fin$0 00000001800348a8     libucrt:ioinit.obj
 0004:000018a8       $pdata$__acrt_lowio_ensure_fh_exists$fin$0 00000001800348a8     libucrt:osfinfo.obj
 0004:000018b4       $pdata$__acrt_uninitialize_lowio 00000001800348b4     libucrt:ioinit.obj
 0004:000018c0       $pdata$?initialize_inherited_file_handles_nolock@@YAXXZ 00000001800348c0     libucrt:ioinit.obj
 0004:000018cc       $pdata$?initialize_stdio_handles_nolock@@YAXXZ 00000001800348cc     libucrt:ioinit.obj
 0004:000018d8       $pdata$__acrt_initialize_locks 00000001800348d8     libucrt:locks.obj
 0004:000018e4       $pdata$__acrt_uninitialize_locks 00000001800348e4     libucrt:locks.obj
 0004:000018f0       $pdata$__acrt_get_process_end_policy 00000001800348f0     libucrt:win_policies.obj
 0004:000018fc       $pdata$??$__acrt_mbs_to_wcs_cp@U__crt_win32_buffer_internal_dynamic_resizing@@@@YAHQEBDAEAV?$__crt_win32_buffer@_WU__crt_win32_buffer_internal_dynamic_resizing@@@@I@Z 00000001800348fc     libucrt:argv_wildcards.obj
 0004:00001908       $pdata$??$__acrt_wcs_to_mbs_cp@U__crt_win32_buffer_internal_dynamic_resizing@@@@YAHQEB_WAEAV?$__crt_win32_buffer@DU__crt_win32_buffer_internal_dynamic_resizing@@@@I@Z 0000000180034908     libucrt:argv_wildcards.obj
 0004:00001914       $pdata$??$common_expand_argv_wildcards@D@@YAHQEAPEADQEAPEAPEAD@Z 0000000180034914     libucrt:argv_wildcards.obj
 0004:00001920       $pdata$??$copy_and_add_argument_to_buffer@D@@YAHQEBD0_KAEAV?$argument_list@D@?A0x5f5c8891@@@Z 0000000180034920     libucrt:argv_wildcards.obj
 0004:0000192c       $pdata$??$expand_argument_wildcards@D@@YAHQEAD0AEAV?$argument_list@D@?A0x5f5c8891@@@Z 000000018003492c     libucrt:argv_wildcards.obj
 0004:00001938       $pdata$__acrt_GetModuleFileNameA 0000000180034938     libucrt:getmodulefilenamea.obj
 0004:00001944       $pdata$??$__acrt_wcs_to_mbs_cp@U__crt_win32_buffer_no_resizing@@@@YAHQEB_WAEAV?$__crt_win32_buffer@DU__crt_win32_buffer_no_resizing@@@@I@Z 0000000180034944     libucrt:getmodulefilenamea.obj
 0004:00001950       $pdata$__acrt_update_thread_multibyte_data 0000000180034950     libucrt:mbctype.obj
 0004:0000195c       $pdata$__acrt_initialize_multibyte 000000018003495c     libucrt:mbctype.obj
 0004:00001968       $pdata$_setmbcp_nolock     0000000180034968     libucrt:mbctype.obj
 0004:00001974       $pdata$?getSystemCP@@YAHH@Z 0000000180034974     libucrt:mbctype.obj
 0004:00001980       $pdata$?setSBCS@@YAXPEAU__crt_multibyte_data@@@Z 0000000180034980     libucrt:mbctype.obj
 0004:0000198c       $pdata$?update_thread_multibyte_data_internal@@YAPEAU__crt_multibyte_data@@QEAU__acrt_ptd@@QEAPEAU1@@Z 000000018003498c     libucrt:mbctype.obj
 0004:00001998       $pdata$?fin$0@?0??update_thread_multibyte_data_internal@@YAPEAU__crt_multibyte_data@@QEAU__acrt_ptd@@QEAPEAU1@@Z@4HA 0000000180034998     libucrt:mbctype.obj
 0004:000019a4       $pdata$?setmbcp_internal@@YAHH_NQEAU__acrt_ptd@@QEAPEAU__crt_multibyte_data@@@Z 00000001800349a4     libucrt:mbctype.obj
 0004:000019b0       $pdata$?setSBUpLow@@YAXPEAU__crt_multibyte_data@@@Z 00000001800349b0     libucrt:mbctype.obj
 0004:000019bc       $pdata$??$?RV<lambda_efdfa57d1f175319df784efa44bb7b81>@@AEAV<lambda_5f0a4c1567f8adc6734073e5d1e1b35c>@@V<lambda_2e8a7d3640ea6ccb4c2413664c2db6fd>@@@?$__crt_seh_guarded_call@X@@QEAAX$$QEAV<lambda_efdfa57d1f175319df784efa44bb7b81>@@AEAV<lambda_5f0a4c1567f8adc6734073e5d1e1b35c>@@$$QEAV<lambda_2e8a7d3640ea6ccb4c2413664c2db6fd>@@@Z 00000001800349bc     libucrt:mbctype.obj
 0004:000019c8       $pdata$?x_ismbbtype_l@@YAHPEAU__crt_locale_pointers@@IHH@Z 00000001800349c8     libucrt:ismbbyte.obj
 0004:000019d4       $pdata$__acrt_initialize_command_line 00000001800349d4     libucrt:argv_data.obj
 0004:000019e0       $pdata$__acrt_WideCharToMultiByte 00000001800349e0     libucrt:widechartomultibyte.obj
 0004:000019ec       $pdata$__dcrt_get_narrow_environment_from_os 00000001800349ec     libucrt:get_environment_from_os.obj
 0004:000019f8       $pdata$__acrt_initialize_heap 00000001800349f8     libucrt:heap_handle.obj
 0004:00001a04       $pdata$__acrt_execute_initializers 0000000180034a04     libucrt:shared_initialization.obj
 0004:00001a10       $pdata$__acrt_execute_uninitializers 0000000180034a10     libucrt:shared_initialization.obj
 0004:00001a1c       $pdata$__acrt_get_sigabrt_handler 0000000180034a1c     libucrt:signal.obj
 0004:00001a28       $pdata$raise               0000000180034a28     libucrt:signal.obj
 0004:00001a34       $pdata$raise$fin$0         0000000180034a34     libucrt:signal.obj
 0004:00001a40       $pdata$??$?RV<lambda_450d765d439847d4c735a33c368b5fc0>@@AEAV<lambda_44731a7d0e6d81c3e6aa82d741081786>@@V<lambda_601a2a7da3b7a96e9554ac7215c4b07c>@@@?$__crt_seh_guarded_call@P6AXH@Z@@QEAAP6AXH@Z$$QEAV<lambda_450d765d439847d4c735a33c368b5fc0>@@AEAV<lambda_44731a7d0e6d81c3e6aa82d741081786>@@$$QEAV<lambda_601a2a7da3b7a96e9554ac7215c4b07c>@@@Z 0000000180034a40     libucrt:signal.obj
 0004:00001a4c       $pdata$_fflush_nolock      0000000180034a4c     libucrt:fflush.obj
 0004:00001a58       $pdata$__acrt_stdio_flush_nolock 0000000180034a58     libucrt:fflush.obj
 0004:00001a64       $pdata$?common_flush_all@@YAH_N@Z 0000000180034a64     libucrt:fflush.obj
 0004:00001a70       $pdata$??$?RV<lambda_842d9ff0dc9ef11c61343bbaebe7f885>@@AEAV<lambda_c5860995281e5c4ce005b3de8f5874ee>@@V<lambda_d90129c13df834fdcbf8d2b88dafcf2d>@@@?$__crt_seh_guarded_call@X@@QEAAX$$QEAV<lambda_842d9ff0dc9ef11c61343bbaebe7f885>@@AEAV<lambda_c5860995281e5c4ce005b3de8f5874ee>@@$$QEAV<lambda_d90129c13df834fdcbf8d2b88dafcf2d>@@@Z 0000000180034a70     libucrt:fflush.obj
 0004:00001a7c       $pdata$?fin$0@?0???$?RV<lambda_842d9ff0dc9ef11c61343bbaebe7f885>@@AEAV<lambda_c5860995281e5c4ce005b3de8f5874ee>@@V<lambda_d90129c13df834fdcbf8d2b88dafcf2d>@@@?$__crt_seh_guarded_call@X@@QEAAX$$QEAV<lambda_842d9ff0dc9ef11c61343bbaebe7f885>@@AEAV<lambda_c5860995281e5c4ce005b3de8f5874ee>@@$$QEAV<lambda_d90129c13df834fdcbf8d2b88dafcf2d>@@@Z@4HA 0000000180034a7c     libucrt:fflush.obj
 0004:00001a88       $pdata$??$?RV<lambda_886d6c58226a84441f68b9f2b8217b83>@@AEAV<lambda_ab61a845afdef5b7c387490eaf3616ee>@@V<lambda_f7f22ab5edc0698d5f6905b0d3f44752>@@@?$__crt_seh_guarded_call@X@@QEAAX$$QEAV<lambda_886d6c58226a84441f68b9f2b8217b83>@@AEAV<lambda_ab61a845afdef5b7c387490eaf3616ee>@@$$QEAV<lambda_f7f22ab5edc0698d5f6905b0d3f44752>@@@Z 0000000180034a88     libucrt:fflush.obj
 0004:00001a94       $pdata$?fin$0@?0???$?RV<lambda_886d6c58226a84441f68b9f2b8217b83>@@AEAV<lambda_ab61a845afdef5b7c387490eaf3616ee>@@V<lambda_f7f22ab5edc0698d5f6905b0d3f44752>@@@?$__crt_seh_guarded_call@X@@QEAAX$$QEAV<lambda_886d6c58226a84441f68b9f2b8217b83>@@AEAV<lambda_ab61a845afdef5b7c387490eaf3616ee>@@$$QEAV<lambda_f7f22ab5edc0698d5f6905b0d3f44752>@@@Z@4HA 0000000180034a94     libucrt:fflush.obj
 0004:00001aa0       $pdata$__pctype_func       0000000180034aa0     libucrt:ctype.obj
 0004:00001aac       $pdata$iswctype            0000000180034aac     libucrt:iswctype.obj
 0004:00001ab8       $pdata$__acrt_release_locale_ref 0000000180034ab8     libucrt:locale_refcounting.obj
 0004:00001ac4       $pdata$__acrt_free_locale  0000000180034ac4     libucrt:locale_refcounting.obj
 0004:00001ad0       $pdata$__acrt_locale_free_lc_time_if_unreferenced 0000000180034ad0     libucrt:locale_refcounting.obj
 0004:00001adc       $pdata$__acrt_update_thread_locale_data 0000000180034adc     libucrt:locale_refcounting.obj
 0004:00001ae8       $pdata$__acrt_update_thread_locale_data$fin$0 0000000180034ae8     libucrt:locale_refcounting.obj
 0004:00001af4       $pdata$_updatetlocinfoEx_nolock 0000000180034af4     libucrt:locale_refcounting.obj
 0004:00001b00       $pdata$__acrt_DownlevelLocaleNameToLCID 0000000180034b00     libucrt:lcidtoname_downlevel.obj
 0004:00001b0c       $pdata$_isleadbyte_l       0000000180034b0c     libucrt:_wctype.obj
 0004:00001b18       $pdata$?__mbrtowc_utf8@__crt_mbstring@@YA_KPEA_WPEBD_KPEAU_Mbstatet@@@Z 0000000180034b18     libucrt:mbrtowc.obj
 0004:00001b24       $pdata$?__mbsrtowcs_utf8@__crt_mbstring@@YA_KPEA_WPEAPEBD_KPEAU_Mbstatet@@@Z 0000000180034b24     libucrt:mbrtowc.obj
 0004:00001b30       $pdata$__acrt_fp_strflt_to_string 0000000180034b30     libucrt:_fptostr.obj
 0004:00001b3c       $pdata$memcpy_s            0000000180034b3c     libucrt:cfout.obj
 0004:00001b48       $pdata$__acrt_fltout       0000000180034b48     libucrt:cfout.obj
 0004:00001b54       $pdata$?divide@__crt_strtox@@YA_KAEAUbig_integer@1@AEBU21@@Z 0000000180034b54     libucrt:cfout.obj
 0004:00001b60       $pdata$0$?divide@__crt_strtox@@YA_KAEAUbig_integer@1@AEBU21@@Z 0000000180034b60     libucrt:cfout.obj
 0004:00001b6c       $pdata$1$?divide@__crt_strtox@@YA_KAEAUbig_integer@1@AEBU21@@Z 0000000180034b6c     libucrt:cfout.obj
 0004:00001b78       $pdata$_fcloseall          0000000180034b78     libucrt:closeall.obj
 0004:00001b84       $pdata$_fcloseall$fin$0    0000000180034b84     libucrt:closeall.obj
 0004:00001b90       $pdata$__acrt_stdio_free_buffer_nolock 0000000180034b90     libucrt:_freebuf.obj
 0004:00001b9c       $pdata$_isatty             0000000180034b9c     libucrt:isatty.obj
 0004:00001ba8       $pdata$__acrt_locale_free_monetary 0000000180034ba8     libucrt:initmon.obj
 0004:00001bb4       $pdata$__acrt_locale_free_numeric 0000000180034bb4     libucrt:initnum.obj
 0004:00001bc0       $pdata$__acrt_locale_free_time 0000000180034bc0     libucrt:inittime.obj
 0004:00001bcc       $pdata$?free_crt_array_internal@@YAXQEAPEBX_K@Z 0000000180034bcc     libucrt:inittime.obj
 0004:00001bd8       $pdata$__acrt_GetStringTypeA 0000000180034bd8     libucrt:getstringtypea.obj
 0004:00001be4       $pdata$_get_osfhandle      0000000180034be4     libucrt:osfinfo.obj
 0004:00001bf0       $pdata$_free_osfhnd        0000000180034bf0     libucrt:osfinfo.obj
 0004:00001bfc       $pdata$__acrt_lowio_create_handle_array 0000000180034bfc     libucrt:osfinfo.obj
 0004:00001c08       $pdata$__acrt_lowio_destroy_handle_array 0000000180034c08     libucrt:osfinfo.obj
 0004:00001c14       $pdata$__acrt_lowio_ensure_fh_exists 0000000180034c14     libucrt:osfinfo.obj
 0004:00001c20       $pdata$qsort               0000000180034c20     libucrt:qsort.obj
 0004:00001c2c       $pdata$4$qsort             0000000180034c2c     libucrt:qsort.obj
 0004:00001c38       $pdata$5$qsort             0000000180034c38     libucrt:qsort.obj
 0004:00001c44       $pdata$strncpy_s           0000000180034c44     libucrt:strncpy_s.obj
 0004:00001c50       $pdata$strpbrk             0000000180034c50     libucrt:strpbrk.obj
 0004:00001c5c       $pdata$fallbackMethod      0000000180034c5c     libucrt:strpbrk.obj
 0004:00001c68       $pdata$_mbsdec_l           0000000180034c68     libucrt:mbsdec.obj
 0004:00001c74       $pdata$__acrt_LCMapStringA 0000000180034c74     libucrt:lcmapstringa.obj
 0004:00001c80       $pdata$?__acrt_LCMapStringA_stat@@YAHPEAU__crt_locale_pointers@@PEB_WKPEBDHPEADHHH@Z 0000000180034c80     libucrt:lcmapstringa.obj
 0004:00001c8c       $pdata$?initialize_multibyte@@YAHXZ 0000000180034c8c     libucrt:multibyte_initializer.obj
 0004:00001c98       $pdata$_commit             0000000180034c98     libucrt:commit.obj
 0004:00001ca4       $pdata$??$?RV<lambda_a37b2b86f63e897a80ea819b0eb08c01>@@AEAV<lambda_38ce7e780aa69e748d6df282ebc68efe>@@V<lambda_99fb1378e971ab6e7edea83e3a7a83a2>@@@?$__crt_seh_guarded_call@H@@QEAAH$$QEAV<lambda_a37b2b86f63e897a80ea819b0eb08c01>@@AEAV<lambda_38ce7e780aa69e748d6df282ebc68efe>@@$$QEAV<lambda_99fb1378e971ab6e7edea83e3a7a83a2>@@@Z 0000000180034ca4     libucrt:commit.obj
 0004:00001cb0       $pdata$?fin$0@?0???$?RV<lambda_751a882b2c74d4b022dec766aa51a29a>@@AEAV<lambda_628dfdc04ba53c8bfc02c9951375f3f5>@@V<lambda_f6c7be5f7998530c34de24c7437d6b54>@@@?$__crt_seh_guarded_call@H@@QEAAH$$QEAV<lambda_751a882b2c74d4b022dec766aa51a29a>@@AEAV<lambda_628dfdc04ba53c8bfc02c9951375f3f5>@@$$QEAV<lambda_f6c7be5f7998530c34de24c7437d6b54>@@@Z@4HA 0000000180034cb0     libucrt:close.obj
 0004:00001cb0       $pdata$?fin$0@?0???$?RV<lambda_a37b2b86f63e897a80ea819b0eb08c01>@@AEAV<lambda_38ce7e780aa69e748d6df282ebc68efe>@@V<lambda_99fb1378e971ab6e7edea83e3a7a83a2>@@@?$__crt_seh_guarded_call@H@@QEAAH$$QEAV<lambda_a37b2b86f63e897a80ea819b0eb08c01>@@AEAV<lambda_38ce7e780aa69e748d6df282ebc68efe>@@$$QEAV<lambda_99fb1378e971ab6e7edea83e3a7a83a2>@@@Z@4HA 0000000180034cb0     libucrt:commit.obj
 0004:00001cbc       $pdata$_write              0000000180034cbc     libucrt:write.obj
 0004:00001cc8       $pdata$_write$fin$0        0000000180034cc8     libucrt:write.obj
 0004:00001cd4       $pdata$_write_nolock       0000000180034cd4     libucrt:write.obj
 0004:00001ce0       $pdata$?write_double_translated_ansi_nolock@@YA?AUwrite_result@?A0x17268360@@HQEBDI@Z 0000000180034ce0     libucrt:write.obj
 0004:00001cec       $pdata$?write_text_ansi_nolock@@YA?AUwrite_result@?A0x17268360@@HQEBDI@Z 0000000180034cec     libucrt:write.obj
 0004:00001cf8       $pdata$?write_text_utf16le_nolock@@YA?AUwrite_result@?A0x17268360@@HQEBDI@Z 0000000180034cf8     libucrt:write.obj
 0004:00001d04       $pdata$?write_text_utf8_nolock@@YA?AUwrite_result@?A0x17268360@@HQEBDI@Z 0000000180034d04     libucrt:write.obj
 0004:00001d10       $pdata$?__mbrtoc32_utf8@__crt_mbstring@@YA_KPEA_UPEBD_KPEAU_Mbstatet@@@Z 0000000180034d10     libucrt:mbrtoc32.obj
 0004:00001d1c       $pdata$fegetenv            0000000180034d1c     libucrt:fegetenv.obj
 0004:00001d28       $pdata$fesetenv            0000000180034d28     libucrt:fesetenv.obj
 0004:00001d34       $pdata$feholdexcept        0000000180034d34     libucrt:feholdexcept.obj
 0004:00001d4c       $pdata$??$common_lseek_nolock@_J@@YA_JH_JH@Z 0000000180034d4c     libucrt:lseek.obj
 0004:00001d58       $pdata$fclose              0000000180034d58     libucrt:fclose.obj
 0004:00001d64       $pdata$fclose$fin$0        0000000180034d64     libucrt:fclose.obj
 0004:00001d70       $pdata$_fclose_nolock      0000000180034d70     libucrt:fclose.obj
 0004:00001d7c       $pdata$_putwch_nolock      0000000180034d7c     libucrt:putwch.obj
 0004:00001d88       $pdata$__acrt_fenv_set_control 0000000180034d88     libucrt:_fenvutils.obj
 0004:00001d94       $pdata$_clearfp            0000000180034d94     libucrt:ieee.obj
 0004:00001da0       $pdata$_call_matherr       0000000180034da0     libucrt:libm_error.obj
 0004:00001dac       $pdata$_exception_enabled  0000000180034dac     libucrt:libm_error.obj
 0004:00001db8       $pdata$_handle_error       0000000180034db8     libucrt:libm_error.obj
 0004:00001dc4       $pdata$__acrt_initialize_fma3 0000000180034dc4     libucrt:fma3_available.obj
 0004:00001dd0       $pdata$_log_special_common 0000000180034dd0     libucrt:log_special.obj
 0004:00001ddc       $pdata$_log10_special      0000000180034ddc     libucrt:log_special.obj
 0004:00001de8       $pdata$_close              0000000180034de8     libucrt:close.obj
 0004:00001df4       $pdata$_close_nolock       0000000180034df4     libucrt:close.obj
 0004:00001e00       $pdata$??$?RV<lambda_751a882b2c74d4b022dec766aa51a29a>@@AEAV<lambda_628dfdc04ba53c8bfc02c9951375f3f5>@@V<lambda_f6c7be5f7998530c34de24c7437d6b54>@@@?$__crt_seh_guarded_call@H@@QEAAH$$QEAV<lambda_751a882b2c74d4b022dec766aa51a29a>@@AEAV<lambda_628dfdc04ba53c8bfc02c9951375f3f5>@@$$QEAV<lambda_f6c7be5f7998530c34de24c7437d6b54>@@@Z 0000000180034e00     libucrt:close.obj
 0004:00001e0c       $pdata$__dcrt_lowio_ensure_console_output_initialized 0000000180034e0c     libucrt:initcon.obj
 0004:00001e18       $pdata$__dcrt_write_console 0000000180034e18     libucrt:initcon.obj
 0004:00001e24       $pdata$__dcrt_terminate_console_output 0000000180034e24     libucrt:initcon.obj
 0004:00001e3c       $pdata$_set_errno_from_matherr 0000000180034e3c     libucrt:fpexcept.obj
 0004:00001e48       $pdata$_raise_exc          0000000180034e48     libucrt:fpexcept.obj
 0004:00001e54       $pdata$_raise_exc_ex       0000000180034e54     libucrt:fpexcept.obj
 0004:00001e60       $pdata$_clrfp              0000000180034e60     libucrt:fpctrl.obj
 0004:00001e6c       $pdata$_ctrlfp             0000000180034e6c     libucrt:fpctrl.obj
 0004:00001e78       $pdata$_ctrlfp$filt$0      0000000180034e78     libucrt:fpctrl.obj
 0004:00001e84       $pdata$_statfp             0000000180034e84     libucrt:fpctrl.obj
 0004:00001e90       $pdata$_set_statfp         0000000180034e90     libucrt:fpctrl.obj
 0004:00001e9c       $pdata$_IsNonwritableInCurrentImage 0000000180034e9c     LIBCMT:pesect.obj
 0004:00001ea8       $pdata$_IsNonwritableInCurrentImage$filt$0 0000000180034ea8     LIBCMT:pesect.obj
 0005:00000000       MoveSmall                  0000000180035000     libvcruntime:memcpy.obj
 0005:00000050       MsetTab                    0000000180035050     libvcruntime:memset.obj
 0006:00000220       $R000000                   0000000180036220     PINPad.res
 0006:00000ba0       $R000980                   0000000180036ba0     PINPad.res
 0006:00000c88       $R000A68                   0000000180036c88     PINPad.res
 0006:00000ef0       $R000CD0                   0000000180036ef0     PINPad.res
 0006:00001438       $R001218                   0000000180037438     PINPad.res
 0006:00004c18       $R0049F8                   000000018003ac18     PINPad.res
 0006:00004c48       $R004A28                   000000018003ac48     PINPad.res
