 OPOSElectronicValueRW

 Timestamp is 5c43fdc5 (Sun Jan 20 13:49:09 2019)

 Preferred load address is 0000000180000000

 Start         Length     Name                   Class
 0001:00000000 000000c0H .text$di                CODE
 0001:000000c0 000226e0H .text$mn                CODE
 0001:000227a0 00000020H .text$mn$00             CODE
 0001:000227c0 00000410H .text$x                 CODE
 0001:00022bd0 000000c0H .text$yd                CODE
 0002:00000000 00000620H .idata$5                DATA
 0002:00000620 00000010H .00cfg                  DATA
 0002:00000630 00000008H .CRT$XCA                DATA
 0002:00000638 00000008H .CRT$XCL                DATA
 0002:00000640 00000020H .CRT$XCU                DATA
 0002:00000660 00000008H .CRT$XCZ                DATA
 0002:00000668 00000008H .CRT$XIA                DATA
 0002:00000670 00000020H .CRT$XIC                DATA
 0002:00000690 00000008H .CRT$XIZ                DATA
 0002:00000698 00000008H .CRT$XLA                DATA
 0002:000006a0 00000008H .CRT$XLZ                DATA
 0002:000006a8 00000008H .CRT$XPA                DATA
 0002:000006b0 00000010H .CRT$XPX                DATA
 0002:000006c0 00000008H .CRT$XPXA               DATA
 0002:000006c8 00000008H .CRT$XPZ                DATA
 0002:000006d0 00000008H .CRT$XTA                DATA
 0002:000006d8 00000008H .CRT$XTZ                DATA
 0002:000006e0 00000000H .gfids$x                DATA
 0002:000006e0 00000000H .gfids$y                DATA
 0002:000006e0 0000acf0H .rdata                  DATA
 0002:0000b3d0 00000028H .rdata$T                DATA
 0002:0000b3f8 00000274H .rdata$r                DATA
 0002:0000b66c 00000404H .rdata$zzzdbg           DATA
 0002:0000ba70 00000008H .rtc$IAA                DATA
 0002:0000ba78 00000008H .rtc$IZZ                DATA
 0002:0000ba80 00000008H .rtc$TAA                DATA
 0002:0000ba88 00000008H .rtc$TZZ                DATA
 0002:0000ba90 00000004H .tls                    DATA
 0002:0000ba94 00000004H .tls$                   DATA
 0002:0000ba98 00000008H .tls$ZZZ                DATA
 0002:0000baa0 000016d8H .xdata                  DATA
 0002:0000d178 00000150H .xdata$x                DATA
 0002:0000d2c8 00000008H ATL$__a                 DATA
 0002:0000d2d0 00000010H ATL$__z                 DATA
 0002:0000d2e0 000000b4H .edata                  DATA
 0002:0000d394 00000078H .idata$2                DATA
 0002:0000d40c 00000014H .idata$3                DATA
 0002:0000d420 00000620H .idata$4                DATA
 0002:0000da40 00000c3aH .idata$6                DATA
 0003:00000000 00000df8H .data                   DATA
 0003:00000df8 000000c8H .data$r                 DATA
 0003:00000ec0 000013d4H .bss                    DATA
 0004:00000000 00002280H .pdata                  DATA
 0005:00000000 00000220H .rsrc$01                DATA
 0005:00000220 00007e88H .rsrc$02                DATA

  Address         Publics by Value              Rva+Base               Lib:Object

 0000:00000000       __guard_fids_count         0000000000000000     <absolute>
 0000:00000000       __guard_longjmp_count      0000000000000000     <absolute>
 0000:00000000       __guard_longjmp_table      0000000000000000     <absolute>
 0000:00000000       __hybrid_code_map          0000000000000000     <absolute>
 0000:00000000       __guard_iat_count          0000000000000000     <absolute>
 0000:00000000       __guard_iat_table          0000000000000000     <absolute>
 0000:00000000       __volatile_metadata        0000000000000000     <absolute>
 0000:00000000       __hybrid_code_map_count    0000000000000000     <absolute>
 0000:00000000       __enclave_config           0000000000000000     <absolute>
 0000:00000000       ___safe_se_handler_count   0000000000000000     <absolute>
 0000:00000000       ___safe_se_handler_table   0000000000000000     <absolute>
 0000:00000000       __guard_fids_table         0000000000000000     <absolute>
 0000:00000000       __hybrid_auxiliary_iat     0000000000000000     <absolute>
 0000:00000000       __dynamic_value_reloc_table 0000000000000000     <absolute>
 0000:00000100       __guard_flags              0000000000000100     <absolute>
 0000:00000000       __ImageBase                0000000180000000     <linker-defined>
 0001:000000c0       ?DupWide@_CW@@AEAAXXZ      00000001800010c0 f   CWString.obj
 0001:000000e8       ?cw_dup@@YAXPEBDAEAHAEAPEA_W1@Z 00000001800010e8 f   CWString.obj
 0001:00000194       ?cw_memcpy@@YAHPEA_WPEBDH@Z 0000000180001194 f   CWString.obj
 0001:000001e0       ?cw_strcpy@@YAHPEA_WPEBD@Z 00000001800011e0 f   CWString.obj
 0001:000001f4       ??0CAtlComModule@ATL@@QEAA@XZ 00000001800011f4 f i OposVariant.obj
 0001:0000027c       ??0CAtlWinModule@ATL@@QEAA@XZ 000000018000127c f i OposVariant.obj
 0001:000002f4       ??0OposDispParms@@QEAA@PEAVOposVariant@@H@Z 00000001800012f4 f   OposVariant.obj
 0001:0000039c       ??1OposDispParms@@QEAA@XZ  000000018000139c f   OposVariant.obj
 0001:000003b4       ??_Estringdispid@CComTypeInfoHolder@ATL@@QEAAPEAXI@Z 00000001800013b4 f i OposVariant.obj
 0001:00000458       ?AtlWinModuleTerm@ATL@@YAJPEAU_ATL_WIN_MODULE70@1@PEAUHINSTANCE__@@@Z 0000000180001458 f i OposVariant.obj
 0001:00000508       ?ChangeBSTR@OposVariant@@QEAAXPEAPEA_WAEAJ@Z 0000000180001508 f   OposVariant.obj
 0001:00000568       ?ChangeCURRENCY@OposVariant@@QEAAXPEATtagCY@@AEAJ@Z 0000000180001568 f   OposVariant.obj
 0001:000005c8       ?ChangeLONG@OposVariant@@QEAAXPEAJAEAJ@Z 00000001800015c8 f   OposVariant.obj
 0001:00000624       ?GetLONG@OposVariant@@QEAAJXZ 0000000180001624 f   OposVariant.obj
 0001:00000648       ?SetBSTR@OposVariant@@QEAAXPEA_WAEAJ@Z 0000000180001648 f   OposVariant.obj
 0001:00000688       ?SetBSTR_Copy@OposVariant@@QEAAXPEA_WAEAJ@Z 0000000180001688 f   OposVariant.obj
 0001:000006f8       ?SetBSTR_InOutPtr@OposVariant@@QEAA_NPEAPEA_WAEAJ@Z 00000001800016f8 f   OposVariant.obj
 0001:00000748       ?SetCURRENCY@OposVariant@@QEAAXTtagCY@@@Z 0000000180001748 f   OposVariant.obj
 0001:0000077c       ?SetDispatch_Ptr@OposVariant@@QEAAXPEAUIDispatch@@AEAJ@Z 000000018000177c f   OposVariant.obj
 0001:000007d4       ?SetLONG@OposVariant@@QEAAXJ@Z 00000001800017d4 f   OposVariant.obj
 0001:00000804       ?SetLONG_Ptr@OposVariant@@QEAAXPEAJAEAJ@Z 0000000180001804 f   OposVariant.obj
 0001:00000850       ?SetString@OposVariant@@QEAAXPEB_WAEAJ@Z 0000000180001850 f   OposVariant.obj
 0001:000008b4       ?SetVARIANT_BOOL@OposVariant@@QEAAXF@Z 00000001800018b4 f   OposVariant.obj
 0001:000008ec       ?Term@CAtlComModule@ATL@@QEAAXXZ 00000001800018ec f i OposVariant.obj
 0001:0000095c       ?_AtlInitializeCriticalSectionEx@ATL@@YAHPEAU_RTL_CRITICAL_SECTION@@KK@Z 000000018000195c f i OposVariant.obj
 0001:00000964       ?_AtlRaiseException@ATL@@YAXKK@Z 0000000180001964 f i OposVariant.obj
 0001:00000974       ?AddRef@?$CComObjectCached@VCComClassFactory@ATL@@@ATL@@UEAAKXZ 0000000180001974 f i ElectronicValueRW.obj
 0001:000009a0       ?Release@?$CComObjectCached@VCComClassFactory@ATL@@@ATL@@UEAAKXZ 00000001800019a0 f i ElectronicValueRW.obj
 0001:000009e0       ?QueryInterface@?$CComObjectCached@VCComClassFactory@ATL@@@ATL@@UEAAJAEBU_GUID@@PEAPEAX@Z 00000001800019e0 f i ElectronicValueRW.obj
 0001:000009f4       ??_G?$CComObjectCached@VCComClassFactory@ATL@@@ATL@@UEAAPEAXI@Z 00000001800019f4 f i ElectronicValueRW.obj
 0001:000009f4       ??_E?$CComObjectCached@VCComClassFactory@ATL@@@ATL@@UEAAPEAXI@Z 00000001800019f4 f i ElectronicValueRW.obj
 0001:00000a4c       ?ObjectMain@CComObjectRootBase@ATL@@SAX_N@Z 0000000180001a4c f i ElectronicValueRW.obj
 0001:00000a4c       _guard_check_icall_nop     0000000180001a4c f i LIBCMT:guard_support.obj
 0001:00000a4c       ?OnFinalMessage@?$CWindowImplBaseT@VCWindow@ATL@@V?$CWinTraits@$0FGAAAAAA@$0A@@2@@ATL@@UEAAXPEAUHWND__@@@Z 0000000180001a4c f i ElectronicValueRW.obj
 0001:00000a50       ?GetCategoryMap@CComObjectRootBase@ATL@@SAPEBU_ATL_CATMAP_ENTRY@2@XZ 0000000180001a50 f i ElectronicValueRW.obj
 0001:00000a50       ?HandsOffStorage@?$IPersistStorageImpl@VCOPOSElectronicValueRW@@@ATL@@UEAAJXZ 0000000180001a50 f i ElectronicValueRW.obj
 0001:00000a50       ?GetObjectDescription@?$CComCoClass@VCOPOSElectronicValueRW@@$1?CLSID_OPOSElectronicValueRW@@3U_GUID@@B@ATL@@SAPEB_WXZ 0000000180001a50 f i ElectronicValueRW.obj
 0001:00000a50       ?SetHostNames@?$IOleObjectImpl@VCOPOSElectronicValueRW@@@ATL@@UEAAJPEB_W0@Z 0000000180001a50 f i ElectronicValueRW.obj
 0001:00000a50       ?EnableModeless@?$IOleInPlaceActiveObjectImpl@VCOPOSElectronicValueRW@@@ATL@@UEAAJH@Z 0000000180001a50 f i ElectronicValueRW.obj
 0001:00000a50       ?OnAmbientPropertyChange@?$IOleControlImpl@VCOPOSElectronicValueRW@@@ATL@@UEAAJJ@Z 0000000180001a50 f i ElectronicValueRW.obj
 0001:00000a50       ?ResizeBorder@?$IOleInPlaceActiveObjectImpl@VCOPOSElectronicValueRW@@@ATL@@UEAAJPEBUtagRECT@@PEAUIOleInPlaceUIWindow@@H@Z 0000000180001a50 f i ElectronicValueRW.obj
 0001:00000a50       ?Update@?$IOleObjectImpl@VCOPOSElectronicValueRW@@@ATL@@UEAAJXZ 0000000180001a50 f i ElectronicValueRW.obj
 0001:00000a50       ?IsUpToDate@?$IOleObjectImpl@VCOPOSElectronicValueRW@@@ATL@@UEAAJXZ 0000000180001a50 f i ElectronicValueRW.obj
 0001:00000a50       ?SaveCompleted@?$IPersistStorageImpl@VCOPOSElectronicValueRW@@@ATL@@UEAAJPEAUIStorage@@@Z 0000000180001a50 f i ElectronicValueRW.obj
 0001:00000a50       ?Release@CRegObject@ATL@@UEAAKXZ 0000000180001a50 f i ElectronicValueRW.obj
 0001:00000a50       ?OnFrameWindowActivate@?$IOleInPlaceActiveObjectImpl@VCOPOSElectronicValueRW@@@ATL@@UEAAJH@Z 0000000180001a50 f i ElectronicValueRW.obj
 0001:00000a54       ?AddRef@?$CComAggObject@VCOPOSElectronicValueRW@@@ATL@@UEAAKXZ 0000000180001a54 f i ElectronicValueRW.obj
 0001:00000a60       ?Release@?$CComAggObject@VCOPOSElectronicValueRW@@@ATL@@UEAAKXZ 0000000180001a60 f i ElectronicValueRW.obj
 0001:00000ab4       ?QueryInterface@?$CComAggObject@VCOPOSElectronicValueRW@@@ATL@@UEAAJAEBU_GUID@@PEAPEAX@Z 0000000180001ab4 f i ElectronicValueRW.obj
 0001:00000b14       ?OnDrawAdvanced@CComControlBase@ATL@@UEAAJAEAUATL_DRAWINFO@@@Z 0000000180001b14 f i ElectronicValueRW.obj
 0001:00000c34       ?AddRef@?$CComContainedObject@VCOPOSElectronicValueRW@@@ATL@@UEAAKXZ 0000000180001c34 f i ElectronicValueRW.obj
 0001:00000c44       ?Release@?$CComContainedObject@VCOPOSElectronicValueRW@@@ATL@@UEAAKXZ 0000000180001c44 f i ElectronicValueRW.obj
 0001:00000c54       ?QueryInterface@?$CComContainedObject@VCOPOSElectronicValueRW@@@ATL@@UEAAJAEBU_GUID@@PEAPEAX@Z 0000000180001c54 f i ElectronicValueRW.obj
 0001:00000c64       ??_G?$CComAggObject@VCOPOSElectronicValueRW@@@ATL@@UEAAPEAXI@Z 0000000180001c64 f i ElectronicValueRW.obj
 0001:00000c64       ??_E?$CComAggObject@VCOPOSElectronicValueRW@@@ATL@@UEAAPEAXI@Z 0000000180001c64 f i ElectronicValueRW.obj
 0001:00000cbc       ?AddRef@?$CComObject@VCOPOSElectronicValueRW@@@ATL@@UEAAKXZ 0000000180001cbc f i ElectronicValueRW.obj
 0001:00000ccc       ?Release@?$CComObject@VCOPOSElectronicValueRW@@@ATL@@UEAAKXZ 0000000180001ccc f i ElectronicValueRW.obj
 0001:00000d24       ?QueryInterface@?$CComObject@VCOPOSElectronicValueRW@@@ATL@@UEAAJAEBU_GUID@@PEAPEAX@Z 0000000180001d24 f i ElectronicValueRW.obj
 0001:00000d38       ?CreateInstance@CComClassFactory@ATL@@UEAAJPEAUIUnknown@@AEBU_GUID@@PEAPEAX@Z 0000000180001d38 f i ElectronicValueRW.obj
 0001:00000d98       ?LockServer@CComClassFactory@ATL@@UEAAJH@Z 0000000180001d98 f i ElectronicValueRW.obj
 0001:00000dbc       ??_GCComClassFactory@ATL@@UEAAPEAXI@Z 0000000180001dbc f i ElectronicValueRW.obj
 0001:00000dbc       ??_ECComClassFactory@ATL@@UEAAPEAXI@Z 0000000180001dbc f i ElectronicValueRW.obj
 0001:00000e0c       ?Next@?$CComEnumImpl@UIEnumConnections@@$1?_GUID_b196b287_bab4_101a_b69c_00aa00341d07@@3U__s_GUID@@BUtagCONNECTDATA@@V?$_Copy@UtagCONNECTDATA@@@ATL@@@ATL@@UEAAJKPEAUtagCONNECTDATA@@PEAK@Z 0000000180001e0c f i ElectronicValueRW.obj
 0001:00000ee0       ?Skip@?$CComEnumImpl@UIEnumConnections@@$1?_GUID_b196b287_bab4_101a_b69c_00aa00341d07@@3U__s_GUID@@BUtagCONNECTDATA@@V?$_Copy@UtagCONNECTDATA@@@ATL@@@ATL@@UEAAJK@Z 0000000180001ee0 f i ElectronicValueRW.obj
 0001:00000f0c       ?Reset@?$CComEnumImpl@UIEnumConnections@@$1?_GUID_b196b287_bab4_101a_b69c_00aa00341d07@@3U__s_GUID@@BUtagCONNECTDATA@@V?$_Copy@UtagCONNECTDATA@@@ATL@@@ATL@@UEAAJXZ 0000000180001f0c f i ElectronicValueRW.obj
 0001:00000f0c       ?Reset@?$CComEnumImpl@UIEnumConnectionPoints@@$1?_GUID_b196b285_bab4_101a_b69c_00aa00341d07@@3U__s_GUID@@BPEAUIConnectionPoint@@V?$_CopyInterface@UIConnectionPoint@@@ATL@@@ATL@@UEAAJXZ 0000000180001f0c f i ElectronicValueRW.obj
 0001:00000f18       ?Clone@?$CComEnumImpl@UIEnumConnections@@$1?_GUID_b196b287_bab4_101a_b69c_00aa00341d07@@3U__s_GUID@@BUtagCONNECTDATA@@V?$_Copy@UtagCONNECTDATA@@@ATL@@@ATL@@UEAAJPEAPEAUIEnumConnections@@@Z 0000000180001f18 f i ElectronicValueRW.obj
 0001:00001040       ?AddRef@?$CComObject@V?$CComEnum@UIEnumConnections@@$1?_GUID_b196b287_bab4_101a_b69c_00aa00341d07@@3U__s_GUID@@BUtagCONNECTDATA@@V?$_Copy@UtagCONNECTDATA@@@ATL@@VCComSingleThreadModel@6@@ATL@@@ATL@@UEAAKXZ 0000000180002040 f i ElectronicValueRW.obj
 0001:00001040       ?AddRef@?$CComObject@V?$CComEnum@UIEnumConnectionPoints@@$1?_GUID_b196b285_bab4_101a_b69c_00aa00341d07@@3U__s_GUID@@BPEAUIConnectionPoint@@V?$_CopyInterface@UIConnectionPoint@@@ATL@@VCComSingleThreadModel@6@@ATL@@@ATL@@UEAAKXZ 0000000180002040 f i ElectronicValueRW.obj
 0001:0000104c       ?Release@?$CComObject@V?$CComEnum@UIEnumConnections@@$1?_GUID_b196b287_bab4_101a_b69c_00aa00341d07@@3U__s_GUID@@BUtagCONNECTDATA@@V?$_Copy@UtagCONNECTDATA@@@ATL@@VCComSingleThreadModel@6@@ATL@@@ATL@@UEAAKXZ 000000018000204c f i ElectronicValueRW.obj
 0001:0000104c       ?Release@?$CComObject@V?$CComEnum@UIEnumConnectionPoints@@$1?_GUID_b196b285_bab4_101a_b69c_00aa00341d07@@3U__s_GUID@@BPEAUIConnectionPoint@@V?$_CopyInterface@UIConnectionPoint@@@ATL@@VCComSingleThreadModel@6@@ATL@@@ATL@@UEAAKXZ 000000018000204c f i ElectronicValueRW.obj
 0001:000010a0       ?QueryInterface@?$CComObject@V?$CComEnum@UIEnumConnections@@$1?_GUID_b196b287_bab4_101a_b69c_00aa00341d07@@3U__s_GUID@@BUtagCONNECTDATA@@V?$_Copy@UtagCONNECTDATA@@@ATL@@VCComSingleThreadModel@6@@ATL@@@ATL@@UEAAJAEBU_GUID@@PEAPEAX@Z 00000001800020a0 f i ElectronicValueRW.obj
 0001:000010b4       ??_G?$CComObject@V?$CComEnum@UIEnumConnections@@$1?_GUID_b196b287_bab4_101a_b69c_00aa00341d07@@3U__s_GUID@@BUtagCONNECTDATA@@V?$_Copy@UtagCONNECTDATA@@@ATL@@VCComSingleThreadModel@6@@ATL@@@ATL@@UEAAPEAXI@Z 00000001800020b4 f i ElectronicValueRW.obj
 0001:000010b4       ??_E?$CComObject@V?$CComEnum@UIEnumConnections@@$1?_GUID_b196b287_bab4_101a_b69c_00aa00341d07@@3U__s_GUID@@BUtagCONNECTDATA@@V?$_Copy@UtagCONNECTDATA@@@ATL@@VCComSingleThreadModel@6@@ATL@@@ATL@@UEAAPEAXI@Z 00000001800020b4 f i ElectronicValueRW.obj
 0001:0000110c       ?Lock@CAtlModule@ATL@@UEAAJXZ 000000018000210c f i ElectronicValueRW.obj
 0001:0000111c       ?Unlock@CAtlModule@ATL@@UEAAJXZ 000000018000211c f i ElectronicValueRW.obj
 0001:00001128       ?GetLockCount@CAtlModule@ATL@@UEAAJXZ 0000000180002128 f i ElectronicValueRW.obj
 0001:0000112c       ?GetGITPtr@CAtlModule@ATL@@UEAAJPEAPEAUIGlobalInterfaceTable@@@Z 000000018000212c f i ElectronicValueRW.obj
 0001:0000119c       ?AddCommonRGSReplacements@?$CAtlModuleT@VCComModule@ATL@@@ATL@@UEAAJPEAUIRegistrarBase@@@Z 000000018000219c f i ElectronicValueRW.obj
 0001:000011b4       ?GetWindowProc@?$CWindowImplBaseT@VCWindow@ATL@@V?$CWinTraits@$0FGAAAAAA@$0A@@2@@ATL@@UEAAP6A_JPEAUHWND__@@I_K_J@ZXZ 00000001800021b4 f i ElectronicValueRW.obj
 0001:000011bc       ?StartWindowProc@?$CWindowImplBaseT@VCWindow@ATL@@V?$CWinTraits@$0FGAAAAAA@$0A@@2@@ATL@@SA_JPEAUHWND__@@I_K_J@Z 00000001800021bc f i ElectronicValueRW.obj
 0001:00001280       ?UpdateRegistryFromResourceD@CComModule@ATL@@UEAAJIHPEAU_ATL_REGMAP_ENTRY@2@@Z 0000000180002280 f i ElectronicValueRW.obj
 0001:00001280       ?UpdateRegistryFromResourceD@CComModule@ATL@@UEAAJPEB_WHPEAU_ATL_REGMAP_ENTRY@2@@Z 0000000180002280 f i ElectronicValueRW.obj
 0001:00001288       ?UpdateRegistryFromResource@CComModule@ATL@@UEAAJPEB_WHPEAU_ATL_REGMAP_ENTRY@2@@Z 0000000180002288 f i ElectronicValueRW.obj
 0001:00001290       ?UpdateRegistryFromResource@CComModule@ATL@@UEAAJIHPEAU_ATL_REGMAP_ENTRY@2@@Z 0000000180002290 f i ElectronicValueRW.obj
 0001:00001298       ??_E?$CComObject@VCOPOSElectronicValueRW@@@ATL@@W7EAAPEAXI@Z 0000000180002298 f i ElectronicValueRW.obj
 0001:000012a4       ??_E?$CComObject@VCOPOSElectronicValueRW@@@ATL@@WHA@EAAPEAXI@Z 00000001800022a4 f i ElectronicValueRW.obj
 0001:000012b0       ?QueryInterface@?$CComObject@VCOPOSElectronicValueRW@@@ATL@@WLI@EAAJAEBU_GUID@@PEAPEAX@Z 00000001800022b0 f i ElectronicValueRW.obj
 0001:000012bc       ?AddRef@?$CComObject@VCOPOSElectronicValueRW@@@ATL@@WLI@EAAKXZ 00000001800022bc f i ElectronicValueRW.obj
 0001:000012c8       ?Release@?$CComObject@VCOPOSElectronicValueRW@@@ATL@@WLI@EAAKXZ 00000001800022c8 f i ElectronicValueRW.obj
 0001:000012d4       ?QueryInterface@?$CComObject@VCOPOSElectronicValueRW@@@ATL@@WMA@EAAJAEBU_GUID@@PEAPEAX@Z 00000001800022d4 f i ElectronicValueRW.obj
 0001:000012e0       ?AddRef@?$CComObject@VCOPOSElectronicValueRW@@@ATL@@WMA@EAAKXZ 00000001800022e0 f i ElectronicValueRW.obj
 0001:000012ec       ?Release@?$CComObject@VCOPOSElectronicValueRW@@@ATL@@WMA@EAAKXZ 00000001800022ec f i ElectronicValueRW.obj
 0001:000012f8       ?QueryInterface@?$CComObject@VCOPOSElectronicValueRW@@@ATL@@WMI@EAAJAEBU_GUID@@PEAPEAX@Z 00000001800022f8 f i ElectronicValueRW.obj
 0001:00001304       ?AddRef@?$CComObject@VCOPOSElectronicValueRW@@@ATL@@WMI@EAAKXZ 0000000180002304 f i ElectronicValueRW.obj
 0001:00001310       ?Release@?$CComObject@VCOPOSElectronicValueRW@@@ATL@@WMI@EAAKXZ 0000000180002310 f i ElectronicValueRW.obj
 0001:0000131c       ?QueryInterface@?$CComObject@VCOPOSElectronicValueRW@@@ATL@@WNA@EAAJAEBU_GUID@@PEAPEAX@Z 000000018000231c f i ElectronicValueRW.obj
 0001:00001328       ?AddRef@?$CComObject@VCOPOSElectronicValueRW@@@ATL@@WNA@EAAKXZ 0000000180002328 f i ElectronicValueRW.obj
 0001:00001334       ?Release@?$CComObject@VCOPOSElectronicValueRW@@@ATL@@WNA@EAAKXZ 0000000180002334 f i ElectronicValueRW.obj
 0001:00001340       ?QueryInterface@?$CComObject@VCOPOSElectronicValueRW@@@ATL@@WNI@EAAJAEBU_GUID@@PEAPEAX@Z 0000000180002340 f i ElectronicValueRW.obj
 0001:0000134c       ?AddRef@?$CComObject@VCOPOSElectronicValueRW@@@ATL@@WNI@EAAKXZ 000000018000234c f i ElectronicValueRW.obj
 0001:00001358       ?Release@?$CComObject@VCOPOSElectronicValueRW@@@ATL@@WNI@EAAKXZ 0000000180002358 f i ElectronicValueRW.obj
 0001:00001364       ?QueryInterface@?$CComObject@VCOPOSElectronicValueRW@@@ATL@@WOA@EAAJAEBU_GUID@@PEAPEAX@Z 0000000180002364 f i ElectronicValueRW.obj
 0001:00001370       ?AddRef@?$CComObject@VCOPOSElectronicValueRW@@@ATL@@WOA@EAAKXZ 0000000180002370 f i ElectronicValueRW.obj
 0001:0000137c       ?Release@?$CComObject@VCOPOSElectronicValueRW@@@ATL@@WOA@EAAKXZ 000000018000237c f i ElectronicValueRW.obj
 0001:00001388       ?QueryInterface@?$CComObject@VCOPOSElectronicValueRW@@@ATL@@WOI@EAAJAEBU_GUID@@PEAPEAX@Z 0000000180002388 f i ElectronicValueRW.obj
 0001:00001394       ?AddRef@?$CComObject@VCOPOSElectronicValueRW@@@ATL@@WOI@EAAKXZ 0000000180002394 f i ElectronicValueRW.obj
 0001:000013a0       ?Release@?$CComObject@VCOPOSElectronicValueRW@@@ATL@@WOI@EAAKXZ 00000001800023a0 f i ElectronicValueRW.obj
 0001:000013ac       ?QueryInterface@?$CComObject@VCOPOSElectronicValueRW@@@ATL@@WPA@EAAJAEBU_GUID@@PEAPEAX@Z 00000001800023ac f i ElectronicValueRW.obj
 0001:000013b8       ?AddRef@?$CComObject@VCOPOSElectronicValueRW@@@ATL@@WPA@EAAKXZ 00000001800023b8 f i ElectronicValueRW.obj
 0001:000013c4       ?Release@?$CComObject@VCOPOSElectronicValueRW@@@ATL@@WPA@EAAKXZ 00000001800023c4 f i ElectronicValueRW.obj
 0001:000013d0       ?QueryInterface@?$CComObject@VCOPOSElectronicValueRW@@@ATL@@WPI@EAAJAEBU_GUID@@PEAPEAX@Z 00000001800023d0 f i ElectronicValueRW.obj
 0001:000013dc       ?AddRef@?$CComObject@VCOPOSElectronicValueRW@@@ATL@@WPI@EAAKXZ 00000001800023dc f i ElectronicValueRW.obj
 0001:000013e8       ?Release@?$CComObject@VCOPOSElectronicValueRW@@@ATL@@WPI@EAAKXZ 00000001800023e8 f i ElectronicValueRW.obj
 0001:000013f4       ?QueryInterface@?$CComObject@VCOPOSElectronicValueRW@@@ATL@@WBAA@EAAJAEBU_GUID@@PEAPEAX@Z 00000001800023f4 f i ElectronicValueRW.obj
 0001:00001400       ?AddRef@?$CComObject@VCOPOSElectronicValueRW@@@ATL@@WBAA@EAAKXZ 0000000180002400 f i ElectronicValueRW.obj
 0001:0000140c       ?Release@?$CComObject@VCOPOSElectronicValueRW@@@ATL@@WBAA@EAAKXZ 000000018000240c f i ElectronicValueRW.obj
 0001:00001418       ?QueryInterface@?$CComObject@VCOPOSElectronicValueRW@@@ATL@@WBAI@EAAJAEBU_GUID@@PEAPEAX@Z 0000000180002418 f i ElectronicValueRW.obj
 0001:00001424       ?AddRef@?$CComObject@VCOPOSElectronicValueRW@@@ATL@@WBAI@EAAKXZ 0000000180002424 f i ElectronicValueRW.obj
 0001:00001430       ?Release@?$CComObject@VCOPOSElectronicValueRW@@@ATL@@WBAI@EAAKXZ 0000000180002430 f i ElectronicValueRW.obj
 0001:0000143c       ?QueryInterface@?$CComObject@VCOPOSElectronicValueRW@@@ATL@@WBBA@EAAJAEBU_GUID@@PEAPEAX@Z 000000018000243c f i ElectronicValueRW.obj
 0001:00001448       ?AddRef@?$CComObject@VCOPOSElectronicValueRW@@@ATL@@WBBA@EAAKXZ 0000000180002448 f i ElectronicValueRW.obj
 0001:00001454       ?Release@?$CComObject@VCOPOSElectronicValueRW@@@ATL@@WBBA@EAAKXZ 0000000180002454 f i ElectronicValueRW.obj
 0001:00001460       ?QueryInterface@?$CComObject@VCOPOSElectronicValueRW@@@ATL@@WBBI@EAAJAEBU_GUID@@PEAPEAX@Z 0000000180002460 f i ElectronicValueRW.obj
 0001:0000146c       ?AddRef@?$CComObject@VCOPOSElectronicValueRW@@@ATL@@WBBI@EAAKXZ 000000018000246c f i ElectronicValueRW.obj
 0001:00001478       ?Release@?$CComObject@VCOPOSElectronicValueRW@@@ATL@@WBBI@EAAKXZ 0000000180002478 f i ElectronicValueRW.obj
 0001:00001484       ?AddRef@?$CComObject@VCOPOSElectronicValueRW@@@ATL@@WBCI@EAAKXZ 0000000180002484 f i ElectronicValueRW.obj
 0001:00001490       ?Release@?$CComObject@VCOPOSElectronicValueRW@@@ATL@@WBCI@EAAKXZ 0000000180002490 f i ElectronicValueRW.obj
 0001:0000149c       ?AddRef@?$CComObject@VCOPOSElectronicValueRW@@@ATL@@WBEA@EAAKXZ 000000018000249c f i ElectronicValueRW.obj
 0001:000014a8       ?Release@?$CComObject@VCOPOSElectronicValueRW@@@ATL@@WBEA@EAAKXZ 00000001800024a8 f i ElectronicValueRW.obj
 0001:000014b4       ??_ECComModule@ATL@@UEAAPEAXI@Z 00000001800024b4 f i ElectronicValueRW.obj
 0001:000014b4       ??_GCComModule@ATL@@UEAAPEAXI@Z 00000001800024b4 f i ElectronicValueRW.obj
 0001:00001534       ??_E?$CComContainedObject@VCOPOSElectronicValueRW@@@ATL@@W7EAAPEAXI@Z 0000000180002534 f i ElectronicValueRW.obj
 0001:00001540       ??_E?$CComContainedObject@VCOPOSElectronicValueRW@@@ATL@@WHA@EAAPEAXI@Z 0000000180002540 f i ElectronicValueRW.obj
 0001:0000154c       ?QueryInterface@?$CComContainedObject@VCOPOSElectronicValueRW@@@ATL@@WLI@EAAJAEBU_GUID@@PEAPEAX@Z 000000018000254c f i ElectronicValueRW.obj
 0001:00001558       ?AddRef@?$CComContainedObject@VCOPOSElectronicValueRW@@@ATL@@WLI@EAAKXZ 0000000180002558 f i ElectronicValueRW.obj
 0001:00001564       ?Release@?$CComContainedObject@VCOPOSElectronicValueRW@@@ATL@@WLI@EAAKXZ 0000000180002564 f i ElectronicValueRW.obj
 0001:00001570       ?QueryInterface@?$CComContainedObject@VCOPOSElectronicValueRW@@@ATL@@WMA@EAAJAEBU_GUID@@PEAPEAX@Z 0000000180002570 f i ElectronicValueRW.obj
 0001:0000157c       ?AddRef@?$CComContainedObject@VCOPOSElectronicValueRW@@@ATL@@WMA@EAAKXZ 000000018000257c f i ElectronicValueRW.obj
 0001:00001588       ?Release@?$CComContainedObject@VCOPOSElectronicValueRW@@@ATL@@WMA@EAAKXZ 0000000180002588 f i ElectronicValueRW.obj
 0001:00001594       ?QueryInterface@?$CComContainedObject@VCOPOSElectronicValueRW@@@ATL@@WMI@EAAJAEBU_GUID@@PEAPEAX@Z 0000000180002594 f i ElectronicValueRW.obj
 0001:000015a0       ?AddRef@?$CComContainedObject@VCOPOSElectronicValueRW@@@ATL@@WMI@EAAKXZ 00000001800025a0 f i ElectronicValueRW.obj
 0001:000015ac       ?Release@?$CComContainedObject@VCOPOSElectronicValueRW@@@ATL@@WMI@EAAKXZ 00000001800025ac f i ElectronicValueRW.obj
 0001:000015b8       ?QueryInterface@?$CComContainedObject@VCOPOSElectronicValueRW@@@ATL@@WNA@EAAJAEBU_GUID@@PEAPEAX@Z 00000001800025b8 f i ElectronicValueRW.obj
 0001:000015c4       ?AddRef@?$CComContainedObject@VCOPOSElectronicValueRW@@@ATL@@WNA@EAAKXZ 00000001800025c4 f i ElectronicValueRW.obj
 0001:000015d0       ?Release@?$CComContainedObject@VCOPOSElectronicValueRW@@@ATL@@WNA@EAAKXZ 00000001800025d0 f i ElectronicValueRW.obj
 0001:000015dc       ?QueryInterface@?$CComContainedObject@VCOPOSElectronicValueRW@@@ATL@@WNI@EAAJAEBU_GUID@@PEAPEAX@Z 00000001800025dc f i ElectronicValueRW.obj
 0001:000015e8       ?AddRef@?$CComContainedObject@VCOPOSElectronicValueRW@@@ATL@@WNI@EAAKXZ 00000001800025e8 f i ElectronicValueRW.obj
 0001:000015f4       ?Release@?$CComContainedObject@VCOPOSElectronicValueRW@@@ATL@@WNI@EAAKXZ 00000001800025f4 f i ElectronicValueRW.obj
 0001:00001600       ?QueryInterface@?$CComContainedObject@VCOPOSElectronicValueRW@@@ATL@@WOA@EAAJAEBU_GUID@@PEAPEAX@Z 0000000180002600 f i ElectronicValueRW.obj
 0001:0000160c       ?AddRef@?$CComContainedObject@VCOPOSElectronicValueRW@@@ATL@@WOA@EAAKXZ 000000018000260c f i ElectronicValueRW.obj
 0001:00001618       ?Release@?$CComContainedObject@VCOPOSElectronicValueRW@@@ATL@@WOA@EAAKXZ 0000000180002618 f i ElectronicValueRW.obj
 0001:00001624       ?QueryInterface@?$CComContainedObject@VCOPOSElectronicValueRW@@@ATL@@WOI@EAAJAEBU_GUID@@PEAPEAX@Z 0000000180002624 f i ElectronicValueRW.obj
 0001:00001630       ?AddRef@?$CComContainedObject@VCOPOSElectronicValueRW@@@ATL@@WOI@EAAKXZ 0000000180002630 f i ElectronicValueRW.obj
 0001:0000163c       ?Release@?$CComContainedObject@VCOPOSElectronicValueRW@@@ATL@@WOI@EAAKXZ 000000018000263c f i ElectronicValueRW.obj
 0001:00001648       ?QueryInterface@?$CComContainedObject@VCOPOSElectronicValueRW@@@ATL@@WPA@EAAJAEBU_GUID@@PEAPEAX@Z 0000000180002648 f i ElectronicValueRW.obj
 0001:00001654       ?AddRef@?$CComContainedObject@VCOPOSElectronicValueRW@@@ATL@@WPA@EAAKXZ 0000000180002654 f i ElectronicValueRW.obj
 0001:00001660       ?Release@?$CComContainedObject@VCOPOSElectronicValueRW@@@ATL@@WPA@EAAKXZ 0000000180002660 f i ElectronicValueRW.obj
 0001:0000166c       ?QueryInterface@?$CComContainedObject@VCOPOSElectronicValueRW@@@ATL@@WPI@EAAJAEBU_GUID@@PEAPEAX@Z 000000018000266c f i ElectronicValueRW.obj
 0001:00001678       ?AddRef@?$CComContainedObject@VCOPOSElectronicValueRW@@@ATL@@WPI@EAAKXZ 0000000180002678 f i ElectronicValueRW.obj
 0001:00001684       ?Release@?$CComContainedObject@VCOPOSElectronicValueRW@@@ATL@@WPI@EAAKXZ 0000000180002684 f i ElectronicValueRW.obj
 0001:00001690       ?QueryInterface@?$CComContainedObject@VCOPOSElectronicValueRW@@@ATL@@WBAA@EAAJAEBU_GUID@@PEAPEAX@Z 0000000180002690 f i ElectronicValueRW.obj
 0001:0000169c       ?AddRef@?$CComContainedObject@VCOPOSElectronicValueRW@@@ATL@@WBAA@EAAKXZ 000000018000269c f i ElectronicValueRW.obj
 0001:000016a8       ?Release@?$CComContainedObject@VCOPOSElectronicValueRW@@@ATL@@WBAA@EAAKXZ 00000001800026a8 f i ElectronicValueRW.obj
 0001:000016b4       ?QueryInterface@?$CComContainedObject@VCOPOSElectronicValueRW@@@ATL@@WBAI@EAAJAEBU_GUID@@PEAPEAX@Z 00000001800026b4 f i ElectronicValueRW.obj
 0001:000016c0       ?AddRef@?$CComContainedObject@VCOPOSElectronicValueRW@@@ATL@@WBAI@EAAKXZ 00000001800026c0 f i ElectronicValueRW.obj
 0001:000016cc       ?Release@?$CComContainedObject@VCOPOSElectronicValueRW@@@ATL@@WBAI@EAAKXZ 00000001800026cc f i ElectronicValueRW.obj
 0001:000016d8       ?QueryInterface@?$CComContainedObject@VCOPOSElectronicValueRW@@@ATL@@WBBA@EAAJAEBU_GUID@@PEAPEAX@Z 00000001800026d8 f i ElectronicValueRW.obj
 0001:000016e4       ?AddRef@?$CComContainedObject@VCOPOSElectronicValueRW@@@ATL@@WBBA@EAAKXZ 00000001800026e4 f i ElectronicValueRW.obj
 0001:000016f0       ?Release@?$CComContainedObject@VCOPOSElectronicValueRW@@@ATL@@WBBA@EAAKXZ 00000001800026f0 f i ElectronicValueRW.obj
 0001:000016fc       ?QueryInterface@?$CComContainedObject@VCOPOSElectronicValueRW@@@ATL@@WBBI@EAAJAEBU_GUID@@PEAPEAX@Z 00000001800026fc f i ElectronicValueRW.obj
 0001:00001708       ?AddRef@?$CComContainedObject@VCOPOSElectronicValueRW@@@ATL@@WBBI@EAAKXZ 0000000180002708 f i ElectronicValueRW.obj
 0001:00001714       ?Release@?$CComContainedObject@VCOPOSElectronicValueRW@@@ATL@@WBBI@EAAKXZ 0000000180002714 f i ElectronicValueRW.obj
 0001:00001720       ?AddRef@?$CComContainedObject@VCOPOSElectronicValueRW@@@ATL@@WBCI@EAAKXZ 0000000180002720 f i ElectronicValueRW.obj
 0001:0000172c       ?Release@?$CComContainedObject@VCOPOSElectronicValueRW@@@ATL@@WBCI@EAAKXZ 000000018000272c f i ElectronicValueRW.obj
 0001:00001738       ?AddRef@?$CComContainedObject@VCOPOSElectronicValueRW@@@ATL@@WBEA@EAAKXZ 0000000180002738 f i ElectronicValueRW.obj
 0001:00001744       ?Release@?$CComContainedObject@VCOPOSElectronicValueRW@@@ATL@@WBEA@EAAKXZ 0000000180002744 f i ElectronicValueRW.obj
 0001:00001750       ?GetTypeInfoCount@?$IDispatchImpl@UIOPOSElectronicValueRW@@$1?IID_IOPOSElectronicValueRW@@3U_GUID@@B$1?LIBID_OposElectronicValueRW_CCO@@3U3@B$00$0A@VCComTypeInfoHolder@ATL@@@ATL@@UEAAJPEAI@Z 0000000180002750 f i ElectronicValueRW.obj
 0001:00001764       ?GetTypeInfo@?$IDispatchImpl@UIOPOSElectronicValueRW@@$1?IID_IOPOSElectronicValueRW@@3U_GUID@@B$1?LIBID_OposElectronicValueRW_CCO@@3U3@B$00$0A@VCComTypeInfoHolder@ATL@@@ATL@@UEAAJIKPEAPEAUITypeInfo@@@Z 0000000180002764 f i ElectronicValueRW.obj
 0001:000017c8       ?GetIDsOfNames@?$IDispatchImpl@UIOPOSElectronicValueRW@@$1?IID_IOPOSElectronicValueRW@@3U_GUID@@B$1?LIBID_OposElectronicValueRW_CCO@@3U3@B$00$0A@VCComTypeInfoHolder@ATL@@@ATL@@UEAAJAEBU_GUID@@PEAPEA_WIKPEAJ@Z 00000001800027c8 f i ElectronicValueRW.obj
 0001:000017d4       ?Invoke@?$IDispatchImpl@UIOPOSElectronicValueRW@@$1?IID_IOPOSElectronicValueRW@@3U_GUID@@B$1?LIBID_OposElectronicValueRW_CCO@@3U3@B$00$0A@VCComTypeInfoHolder@ATL@@@ATL@@UEAAJJAEBU_GUID@@KGPEAUtagDISPPARAMS@@PEAUtagVARIANT@@PEAUtagEXCEPINFO@@PEAI@Z 00000001800027d4 f i ElectronicValueRW.obj
 0001:00001864       ?CreateControlWindow@?$CComControl@VCOPOSElectronicValueRW@@V?$CWindowImpl@VCOPOSElectronicValueRW@@VCWindow@ATL@@V?$CWinTraits@$0FGAAAAAA@$0A@@3@@ATL@@@ATL@@UEAAPEAUHWND__@@PEAU3@AEAUtagRECT@@@Z 0000000180002864 f i ElectronicValueRW.obj
 0001:0000189c       ?ControlQueryInterface@?$CComControl@VCOPOSElectronicValueRW@@V?$CWindowImpl@VCOPOSElectronicValueRW@@VCWindow@ATL@@V?$CWinTraits@$0FGAAAAAA@$0A@@3@@ATL@@@ATL@@UEAAJAEBU_GUID@@PEAPEAX@Z 000000018000289c f i ElectronicValueRW.obj
 0001:000018b0       ?GetClassID@?$IPersistStreamInitImpl@VCOPOSElectronicValueRW@@@ATL@@UEAAJPEAU_GUID@@@Z 00000001800028b0 f i ElectronicValueRW.obj
 0001:000018b0       ?GetClassID@?$IPersistStorageImpl@VCOPOSElectronicValueRW@@@ATL@@UEAAJPEAU_GUID@@@Z 00000001800028b0 f i ElectronicValueRW.obj
 0001:000018b0       ?GetUserClassID@?$IOleObjectImpl@VCOPOSElectronicValueRW@@@ATL@@UEAAJPEAU_GUID@@@Z 00000001800028b0 f i ElectronicValueRW.obj
 0001:000018cc       ?IsDirty@?$IPersistStreamInitImpl@VCOPOSElectronicValueRW@@@ATL@@UEAAJXZ 00000001800028cc f i ElectronicValueRW.obj
 0001:000018e8       ?Load@?$IPersistStreamInitImpl@VCOPOSElectronicValueRW@@@ATL@@UEAAJPEAUIStream@@@Z 00000001800028e8 f i ElectronicValueRW.obj
 0001:00001938       ?Save@?$IPersistStreamInitImpl@VCOPOSElectronicValueRW@@@ATL@@UEAAJPEAUIStream@@H@Z 0000000180002938 f i ElectronicValueRW.obj
 0001:0000199c       ?GetSizeMax@?$IPersistStreamInitImpl@VCOPOSElectronicValueRW@@@ATL@@UEAAJPEAT_ULARGE_INTEGER@@@Z 000000018000299c f i ElectronicValueRW.obj
 0001:00001bc8       ?InitNew@?$IPersistStreamInitImpl@VCOPOSElectronicValueRW@@@ATL@@UEAAJXZ 0000000180002bc8 f i ElectronicValueRW.obj
 0001:00001be0       ?SetColorScheme@?$IOleObjectImpl@VCOPOSElectronicValueRW@@@ATL@@UEAAJPEAUtagLOGPALETTE@@@Z 0000000180002be0 f i ElectronicValueRW.obj
 0001:00001be0       ?SetData@?$IDataObjectImpl@VCOPOSElectronicValueRW@@@ATL@@UEAAJPEAUtagFORMATETC@@PEAUtagSTGMEDIUM@@H@Z 0000000180002be0 f i ElectronicValueRW.obj
 0001:00001be0       ?GetRect@?$IViewObjectExImpl@VCOPOSElectronicValueRW@@@ATL@@UEAAJKPEAU_RECTL@@@Z 0000000180002be0 f i ElectronicValueRW.obj
 0001:00001be0       ?ReactivateAndUndo@?$IOleInPlaceObjectWindowlessImpl@VCOPOSElectronicValueRW@@@ATL@@UEAAJXZ 0000000180002be0 f i ElectronicValueRW.obj
 0001:00001be0       ?EnumFormatEtc@?$IDataObjectImpl@VCOPOSElectronicValueRW@@@ATL@@UEAAJKPEAPEAUIEnumFORMATETC@@@Z 0000000180002be0 f i ElectronicValueRW.obj
 0001:00001be0       ?GetDataHere@?$IDataObjectImpl@VCOPOSElectronicValueRW@@@ATL@@UEAAJPEAUtagFORMATETC@@PEAUtagSTGMEDIUM@@@Z 0000000180002be0 f i ElectronicValueRW.obj
 0001:00001be0       ?OnMnemonic@?$IOleControlImpl@VCOPOSElectronicValueRW@@@ATL@@UEAAJPEAUtagMSG@@@Z 0000000180002be0 f i ElectronicValueRW.obj
 0001:00001be0       ?QueryInterface@CRegObject@ATL@@UEAAJAEBU_GUID@@PEAPEAX@Z 0000000180002be0 f i ElectronicValueRW.obj
 0001:00001be0       ?ContextSensitiveHelp@?$IOleInPlaceActiveObjectImpl@VCOPOSElectronicValueRW@@@ATL@@UEAAJH@Z 0000000180002be0 f i ElectronicValueRW.obj
 0001:00001be0       ?ContextSensitiveHelp@?$IOleInPlaceObjectWindowlessImpl@VCOPOSElectronicValueRW@@@ATL@@UEAAJH@Z 0000000180002be0 f i ElectronicValueRW.obj
 0001:00001be0       ?Unfreeze@?$IViewObjectExImpl@VCOPOSElectronicValueRW@@@ATL@@UEAAJK@Z 0000000180002be0 f i ElectronicValueRW.obj
 0001:00001be0       ?SetMoniker@?$IOleObjectImpl@VCOPOSElectronicValueRW@@@ATL@@UEAAJKPEAUIMoniker@@@Z 0000000180002be0 f i ElectronicValueRW.obj
 0001:00001be0       ?GetClipboardData@?$IOleObjectImpl@VCOPOSElectronicValueRW@@@ATL@@UEAAJKPEAPEAUIDataObject@@@Z 0000000180002be0 f i ElectronicValueRW.obj
 0001:00001be0       ?GetControlInfo@?$IOleControlImpl@VCOPOSElectronicValueRW@@@ATL@@UEAAJPEAUtagCONTROLINFO@@@Z 0000000180002be0 f i ElectronicValueRW.obj
 0001:00001be0       ?GetMoniker@?$IOleObjectImpl@VCOPOSElectronicValueRW@@@ATL@@UEAAJKKPEAPEAUIMoniker@@@Z 0000000180002be0 f i ElectronicValueRW.obj
 0001:00001be0       ?QueryGetData@?$IDataObjectImpl@VCOPOSElectronicValueRW@@@ATL@@UEAAJPEAUtagFORMATETC@@@Z 0000000180002be0 f i ElectronicValueRW.obj
 0001:00001be0       ?Freeze@?$IViewObjectExImpl@VCOPOSElectronicValueRW@@@ATL@@UEAAJKJPEAXPEAK@Z 0000000180002be0 f i ElectronicValueRW.obj
 0001:00001be0       ?GetColorSet@?$IViewObjectExImpl@VCOPOSElectronicValueRW@@@ATL@@UEAAJKJPEAXPEAUtagDVTARGETDEVICE@@PEAUHDC__@@PEAPEAUtagLOGPALETTE@@@Z 0000000180002be0 f i ElectronicValueRW.obj
 0001:00001be0       ?GetCanonicalFormatEtc@?$IDataObjectImpl@VCOPOSElectronicValueRW@@@ATL@@UEAAJPEAUtagFORMATETC@@0@Z 0000000180002be0 f i ElectronicValueRW.obj
 0001:00001be0       ?GetDropTarget@?$IOleInPlaceObjectWindowlessImpl@VCOPOSElectronicValueRW@@@ATL@@UEAAJPEAPEAUIDropTarget@@@Z 0000000180002be0 f i ElectronicValueRW.obj
 0001:00001be0       ?InitFromData@?$IOleObjectImpl@VCOPOSElectronicValueRW@@@ATL@@UEAAJPEAUIDataObject@@HK@Z 0000000180002be0 f i ElectronicValueRW.obj
 0001:00001be8       ?SetClientSite@?$IOleObjectImpl@VCOPOSElectronicValueRW@@@ATL@@UEAAJPEAUIOleClientSite@@@Z 0000000180002be8 f i ElectronicValueRW.obj
 0001:00001c04       ?GetClientSite@?$IOleObjectImpl@VCOPOSElectronicValueRW@@@ATL@@UEAAJPEAPEAUIOleClientSite@@@Z 0000000180002c04 f i ElectronicValueRW.obj
 0001:00001c4c       ?Close@?$IOleObjectImpl@VCOPOSElectronicValueRW@@@ATL@@UEAAJK@Z 0000000180002c4c f i ElectronicValueRW.obj
 0001:00001c68       ?DoVerb@?$IOleObjectImpl@VCOPOSElectronicValueRW@@@ATL@@UEAAJJPEAUtagMSG@@PEAUIOleClientSite@@JPEAUHWND__@@PEBUtagRECT@@@Z 0000000180002c68 f i ElectronicValueRW.obj
 0001:00001e0c       ?EnumVerbs@?$IOleObjectImpl@VCOPOSElectronicValueRW@@@ATL@@UEAAJPEAPEAUIEnumOLEVERB@@@Z 0000000180002e0c f i ElectronicValueRW.obj
 0001:00001e28       ?GetUserType@?$IOleObjectImpl@VCOPOSElectronicValueRW@@@ATL@@UEAAJKPEAPEA_W@Z 0000000180002e28 f i ElectronicValueRW.obj
 0001:00001e38       ?SetExtent@?$IOleObjectImpl@VCOPOSElectronicValueRW@@@ATL@@UEAAJKPEAUtagSIZE@@@Z 0000000180002e38 f i ElectronicValueRW.obj
 0001:00001e54       ?GetExtent@?$IOleObjectImpl@VCOPOSElectronicValueRW@@@ATL@@UEAAJKPEAUtagSIZE@@@Z 0000000180002e54 f i ElectronicValueRW.obj
 0001:00001e84       ?Advise@?$IOleObjectImpl@VCOPOSElectronicValueRW@@@ATL@@UEAAJPEAUIAdviseSink@@PEAK@Z 0000000180002e84 f i ElectronicValueRW.obj
 0001:00001ee0       ?Unadvise@?$IOleObjectImpl@VCOPOSElectronicValueRW@@@ATL@@UEAAJK@Z 0000000180002ee0 f i ElectronicValueRW.obj
 0001:00001f18       ?EnumAdvise@?$IOleObjectImpl@VCOPOSElectronicValueRW@@@ATL@@UEAAJPEAPEAUIEnumSTATDATA@@@Z 0000000180002f18 f i ElectronicValueRW.obj
 0001:00001f60       ?GetMiscStatus@?$IOleObjectImpl@VCOPOSElectronicValueRW@@@ATL@@UEAAJKPEAK@Z 0000000180002f60 f i ElectronicValueRW.obj
 0001:00001f70       ?GetWindow@?$IOleInPlaceActiveObjectImpl@VCOPOSElectronicValueRW@@@ATL@@UEAAJPEAPEAUHWND__@@@Z 0000000180002f70 f i ElectronicValueRW.obj
 0001:00001fc4       ?TranslateAcceleratorW@?$IOleInPlaceActiveObjectImpl@VCOPOSElectronicValueRW@@@ATL@@UEAAJPEAUtagMSG@@@Z 0000000180002fc4 f i ElectronicValueRW.obj
 0001:000020b8       ?OnDocWindowActivate@?$IOleInPlaceActiveObjectImpl@VCOPOSElectronicValueRW@@@ATL@@UEAAJH@Z 00000001800030b8 f i ElectronicValueRW.obj
 0001:000020e4       ?FAccessAllowed@?$IObjectSafetyImpl@VCOPOSElectronicValueRW@@$02@ATL@@MEAAHXZ 00000001800030e4 f i ElectronicValueRW.obj
 0001:000020e4       _get_startup_argv_mode     00000001800030e4 f i LIBCMT:argv_mode.obj
 0001:000020e4       ?AddRef@CRegObject@ATL@@UEAAKXZ 00000001800030e4 f i ElectronicValueRW.obj
 0001:000020ec       ?AddReplacement@CRegObject@ATL@@UEAAJPEB_W0@Z 00000001800030ec f i ElectronicValueRW.obj
 0001:0000211c       ?ClearReplacements@CRegObject@ATL@@UEAAJXZ 000000018000311c f i ElectronicValueRW.obj
 0001:00002128       ?Draw@?$IViewObjectExImpl@VCOPOSElectronicValueRW@@@ATL@@UEAAJKJPEAXPEAUtagDVTARGETDEVICE@@PEAUHDC__@@2PEBU_RECTL@@3P6AH_K@Z4@Z 0000000180003128 f i ElectronicValueRW.obj
 0001:0000218c       ?SetAdvise@?$IViewObjectExImpl@VCOPOSElectronicValueRW@@@ATL@@UEAAJKKPEAUIAdviseSink@@@Z 000000018000318c f i ElectronicValueRW.obj
 0001:000021e0       ?GetAdvise@?$IViewObjectExImpl@VCOPOSElectronicValueRW@@@ATL@@UEAAJPEAK0PEAPEAUIAdviseSink@@@Z 00000001800031e0 f i ElectronicValueRW.obj
 0001:0000221c       ?GetExtent@?$IViewObjectExImpl@VCOPOSElectronicValueRW@@@ATL@@UEAAJKJPEAUtagDVTARGETDEVICE@@PEAUtagSIZE@@@Z 000000018000321c f i ElectronicValueRW.obj
 0001:0000224c       ?GetViewStatus@?$IViewObjectExImpl@VCOPOSElectronicValueRW@@@ATL@@UEAAJPEAK@Z 000000018000324c f i ElectronicValueRW.obj
 0001:00002260       ?QueryHitPoint@?$IViewObjectExImpl@VCOPOSElectronicValueRW@@@ATL@@UEAAJKPEBUtagRECT@@UtagPOINT@@JPEAK@Z 0000000180003260 f i ElectronicValueRW.obj
 0001:000022a4       ?QueryHitRect@?$IViewObjectExImpl@VCOPOSElectronicValueRW@@@ATL@@UEAAJKPEBUtagRECT@@0JPEAK@Z 00000001800032a4 f i ElectronicValueRW.obj
 0001:0000230c       ??_ECRegObject@ATL@@UEAAPEAXI@Z 000000018000330c f i ElectronicValueRW.obj
 0001:0000230c       ??_GCRegObject@ATL@@UEAAPEAXI@Z 000000018000330c f i ElectronicValueRW.obj
 0001:0000238c       ?GetNaturalExtent@?$IViewObjectExImpl@VCOPOSElectronicValueRW@@@ATL@@UEAAJKJPEAUtagDVTARGETDEVICE@@PEAUHDC__@@PEAUtagExtentInfo@@PEAUtagSIZE@@@Z 000000018000338c f i ElectronicValueRW.obj
 0001:000023d4       ?GetWindow@?$IOleInPlaceObjectWindowlessImpl@VCOPOSElectronicValueRW@@@ATL@@UEAAJPEAPEAUHWND__@@@Z 00000001800033d4 f i ElectronicValueRW.obj
 0001:00002428       ?InPlaceDeactivate@?$IOleInPlaceObjectWindowlessImpl@VCOPOSElectronicValueRW@@@ATL@@UEAAJXZ 0000000180003428 f i ElectronicValueRW.obj
 0001:00002444       ?UIDeactivate@?$IOleInPlaceObjectWindowlessImpl@VCOPOSElectronicValueRW@@@ATL@@UEAAJXZ 0000000180003444 f i ElectronicValueRW.obj
 0001:00002460       ?SetObjectRects@?$IOleInPlaceObjectWindowlessImpl@VCOPOSElectronicValueRW@@@ATL@@UEAAJPEBUtagRECT@@0@Z 0000000180003460 f i ElectronicValueRW.obj
 0001:0000247c       ?OnWindowMessage@?$IOleInPlaceObjectWindowlessImpl@VCOPOSElectronicValueRW@@@ATL@@UEAAJI_K_JPEA_J@Z 000000018000347c f i ElectronicValueRW.obj
 0001:00002544       ?EnumConnectionPoints@?$IConnectionPointContainerImpl@VCOPOSElectronicValueRW@@@ATL@@UEAAJPEAPEAUIEnumConnectionPoints@@@Z 0000000180003544 f i ElectronicValueRW.obj
 0001:0000278c       ?FindConnectionPoint@?$IConnectionPointContainerImpl@VCOPOSElectronicValueRW@@@ATL@@UEAAJAEBU_GUID@@PEAPEAUIConnectionPoint@@@Z 000000018000378c f i ElectronicValueRW.obj
 0001:0000285c       ?IsDirty@?$IPersistStorageImpl@VCOPOSElectronicValueRW@@@ATL@@UEAAJXZ 000000018000385c f i ElectronicValueRW.obj
 0001:000028a0       ?InitNew@?$IPersistStorageImpl@VCOPOSElectronicValueRW@@@ATL@@UEAAJPEAUIStorage@@@Z 00000001800038a0 f i ElectronicValueRW.obj
 0001:000028e4       ?Load@?$IPersistStorageImpl@VCOPOSElectronicValueRW@@@ATL@@UEAAJPEAUIStorage@@@Z 00000001800038e4 f i ElectronicValueRW.obj
 0001:00002984       ?Save@?$IPersistStorageImpl@VCOPOSElectronicValueRW@@@ATL@@UEAAJPEAUIStorage@@H@Z 0000000180003984 f i ElectronicValueRW.obj
 0001:00002a34       ?GetPages@?$ISpecifyPropertyPagesImpl@VCOPOSElectronicValueRW@@@ATL@@UEAAJPEAUtagCAUUID@@@Z 0000000180003a34 f i ElectronicValueRW.obj
 0001:00002a40       ?QuickActivate@?$IQuickActivateImpl@VCOPOSElectronicValueRW@@@ATL@@UEAAJPEAUtagQACONTAINER@@PEAUtagQACONTROL@@@Z 0000000180003a40 f i ElectronicValueRW.obj
 0001:00002a5c       ?SetContentExtent@?$IQuickActivateImpl@VCOPOSElectronicValueRW@@@ATL@@UEAAJPEAUtagSIZE@@@Z 0000000180003a5c f i ElectronicValueRW.obj
 0001:00002a90       ?GetContentExtent@?$IQuickActivateImpl@VCOPOSElectronicValueRW@@@ATL@@UEAAJPEAUtagSIZE@@@Z 0000000180003a90 f i ElectronicValueRW.obj
 0001:00002ac8       ?GetData@?$IDataObjectImpl@VCOPOSElectronicValueRW@@@ATL@@UEAAJPEAUtagFORMATETC@@PEAUtagSTGMEDIUM@@@Z 0000000180003ac8 f i ElectronicValueRW.obj
 0001:00002ae4       ?DAdvise@?$IDataObjectImpl@VCOPOSElectronicValueRW@@@ATL@@UEAAJPEAUtagFORMATETC@@KPEAUIAdviseSink@@PEAK@Z 0000000180003ae4 f i ElectronicValueRW.obj
 0001:00002b6c       ?DUnadvise@?$IDataObjectImpl@VCOPOSElectronicValueRW@@@ATL@@UEAAJK@Z 0000000180003b6c f i ElectronicValueRW.obj
 0001:00002b98       ?EnumDAdvise@?$IDataObjectImpl@VCOPOSElectronicValueRW@@@ATL@@UEAAJPEAPEAUIEnumSTATDATA@@@Z 0000000180003b98 f i ElectronicValueRW.obj
 0001:00002bd4       ?GetClassInfoW@?$IProvideClassInfo2Impl@$1?CLSID_OPOSElectronicValueRW@@3U_GUID@@B$1?DIID__IOPOSElectronicValueRWEvents@@3U2@B$1?LIBID_OposElectronicValueRW_CCO@@3U2@B$00$0A@VCComTypeInfoHolder@ATL@@@ATL@@UEAAJPEAPEAUITypeInfo@@@Z 0000000180003bd4 f i ElectronicValueRW.obj
 0001:00002c2c       ?GetGUID@?$IProvideClassInfo2Impl@$1?CLSID_OPOSElectronicValueRW@@3U_GUID@@B$1?DIID__IOPOSElectronicValueRWEvents@@3U2@B$1?LIBID_OposElectronicValueRW_CCO@@3U2@B$00$0A@VCComTypeInfoHolder@ATL@@@ATL@@UEAAJKPEAU_GUID@@@Z 0000000180003c2c f i ElectronicValueRW.obj
 0001:00002c60       ?GetInterfaceSafetyOptions@?$IObjectSafetyImpl@VCOPOSElectronicValueRW@@$02@ATL@@UEAAJAEBU_GUID@@PEAK1@Z 0000000180003c60 f i ElectronicValueRW.obj
 0001:00002cf4       ?SetInterfaceSafetyOptions@?$IObjectSafetyImpl@VCOPOSElectronicValueRW@@$02@ATL@@UEAAJAEBU_GUID@@KK@Z 0000000180003cf4 f i ElectronicValueRW.obj
 0001:00002d98       ?_LocCPQueryInterface@?$IConnectionPointImpl@VCOPOSElectronicValueRW@@$1?IID_IPropertyNotifySink@@3U_GUID@@BVCComDynamicUnkArray@ATL@@@ATL@@UEAAJAEBU_GUID@@PEAPEAX@Z 0000000180003d98 f i ElectronicValueRW.obj
 0001:00002d98       ?_LocCPQueryInterface@?$IConnectionPointImpl@VCOPOSElectronicValueRW@@$1?DIID__IOPOSElectronicValueRWEvents@@3U_GUID@@BVCComDynamicUnkArray@ATL@@@ATL@@UEAAJAEBU_GUID@@PEAPEAX@Z 0000000180003d98 f i ElectronicValueRW.obj
 0001:00002e0c       ?GetConnectionInterface@?$IConnectionPointImpl@VCOPOSElectronicValueRW@@$1?IID_IPropertyNotifySink@@3U_GUID@@BVCComDynamicUnkArray@ATL@@@ATL@@UEAAJPEAU_GUID@@@Z 0000000180003e0c f i ElectronicValueRW.obj
 0001:00002e28       ?GetConnectionPointContainer@?$IConnectionPointImpl@VCOPOSElectronicValueRW@@$1?IID_IPropertyNotifySink@@3U_GUID@@BVCComDynamicUnkArray@ATL@@@ATL@@UEAAJPEAPEAUIConnectionPointContainer@@@Z 0000000180003e28 f i ElectronicValueRW.obj
 0001:00002e48       ?Advise@?$IConnectionPointImpl@VCOPOSElectronicValueRW@@$1?DIID__IOPOSElectronicValueRWEvents@@3U_GUID@@BVCComDynamicUnkArray@ATL@@@ATL@@UEAAJPEAUIUnknown@@PEAK@Z 0000000180003e48 f i ElectronicValueRW.obj
 0001:00002e48       ?Advise@?$IConnectionPointImpl@VCOPOSElectronicValueRW@@$1?IID_IPropertyNotifySink@@3U_GUID@@BVCComDynamicUnkArray@ATL@@@ATL@@UEAAJPEAUIUnknown@@PEAK@Z 0000000180003e48 f i ElectronicValueRW.obj
 0001:00002f08       ?Unadvise@?$IConnectionPointImpl@VCOPOSElectronicValueRW@@$1?IID_IPropertyNotifySink@@3U_GUID@@BVCComDynamicUnkArray@ATL@@@ATL@@UEAAJK@Z 0000000180003f08 f i ElectronicValueRW.obj
 0001:00002f08       ?Unadvise@?$IConnectionPointImpl@VCOPOSElectronicValueRW@@$1?DIID__IOPOSElectronicValueRWEvents@@3U_GUID@@BVCComDynamicUnkArray@ATL@@@ATL@@UEAAJK@Z 0000000180003f08 f i ElectronicValueRW.obj
 0001:00002f84       ?EnumConnections@?$IConnectionPointImpl@VCOPOSElectronicValueRW@@$1?IID_IPropertyNotifySink@@3U_GUID@@BVCComDynamicUnkArray@ATL@@@ATL@@UEAAJPEAPEAUIEnumConnections@@@Z 0000000180003f84 f i ElectronicValueRW.obj
 0001:00002f84       ?EnumConnections@?$IConnectionPointImpl@VCOPOSElectronicValueRW@@$1?DIID__IOPOSElectronicValueRWEvents@@3U_GUID@@BVCComDynamicUnkArray@ATL@@@ATL@@UEAAJPEAPEAUIEnumConnections@@@Z 0000000180003f84 f i ElectronicValueRW.obj
 0001:0000312c       ?GetConnectionInterface@?$IConnectionPointImpl@VCOPOSElectronicValueRW@@$1?DIID__IOPOSElectronicValueRWEvents@@3U_GUID@@BVCComDynamicUnkArray@ATL@@@ATL@@UEAAJPEAU_GUID@@@Z 000000018000412c f i ElectronicValueRW.obj
 0001:00003148       ?GetConnectionPointContainer@?$IConnectionPointImpl@VCOPOSElectronicValueRW@@$1?DIID__IOPOSElectronicValueRWEvents@@3U_GUID@@BVCComDynamicUnkArray@ATL@@@ATL@@UEAAJPEAPEAUIConnectionPointContainer@@@Z 0000000180004148 f i ElectronicValueRW.obj
 0001:00003168       ?UpdateRegistry@COPOSElectronicValueRW@@SAJH@Z 0000000180004168 f i ElectronicValueRW.obj
 0001:00003180       ?ProcessWindowMessage@COPOSElectronicValueRW@@UEAAHPEAUHWND__@@I_K_JAEA_JK@Z 0000000180004180 f i ElectronicValueRW.obj
 0001:00003208       ?SOData@COPOSElectronicValueRW@@MEAAJJ@Z 0000000180004208 f i ElectronicValueRW.obj
 0001:00003258       ?SODirectIO@COPOSElectronicValueRW@@MEAAJJPEAJPEAPEA_W@Z 0000000180004258 f i ElectronicValueRW.obj
 0001:000032d0       ?SOError@COPOSElectronicValueRW@@MEAAJJJJPEAJ@Z 00000001800042d0 f i ElectronicValueRW.obj
 0001:00003358       ?SOOutputComplete@COPOSElectronicValueRW@@MEAAJJ@Z 0000000180004358 f i ElectronicValueRW.obj
 0001:000033a8       ?SOStatusUpdate@COPOSElectronicValueRW@@MEAAJJ@Z 00000001800043a8 f i ElectronicValueRW.obj
 0001:000033f8       ?SOTransition@COPOSElectronicValueRW@@MEAAJJPEAJPEAPEA_W@Z 00000001800043f8 f i ElectronicValueRW.obj
 0001:00003470       ?CreateInstance@?$CComCreator@V?$CComObjectCached@VCComClassFactory@ATL@@@ATL@@@ATL@@SAJPEAXAEBU_GUID@@PEAPEAX@Z 0000000180004470 f i ElectronicValueRW.obj
 0001:00003574       ?CreateInstance@?$CComCreator2@V?$CComCreator@V?$CComObject@VCOPOSElectronicValueRW@@@ATL@@@ATL@@V?$CComCreator@V?$CComAggObject@VCOPOSElectronicValueRW@@@ATL@@@2@@ATL@@SAJPEAXAEBU_GUID@@PEAPEAX@Z 0000000180004574 f i ElectronicValueRW.obj
 0001:00003584       ?Next@?$CComEnumImpl@UIEnumConnectionPoints@@$1?_GUID_b196b285_bab4_101a_b69c_00aa00341d07@@3U__s_GUID@@BPEAUIConnectionPoint@@V?$_CopyInterface@UIConnectionPoint@@@ATL@@@ATL@@UEAAJKPEAPEAUIConnectionPoint@@PEAK@Z 0000000180004584 f i ElectronicValueRW.obj
 0001:00003650       ?Skip@?$CComEnumImpl@UIEnumConnectionPoints@@$1?_GUID_b196b285_bab4_101a_b69c_00aa00341d07@@3U__s_GUID@@BPEAUIConnectionPoint@@V?$_CopyInterface@UIConnectionPoint@@@ATL@@@ATL@@UEAAJK@Z 0000000180004650 f i ElectronicValueRW.obj
 0001:0000367c       ?Clone@?$CComEnumImpl@UIEnumConnectionPoints@@$1?_GUID_b196b285_bab4_101a_b69c_00aa00341d07@@3U__s_GUID@@BPEAUIConnectionPoint@@V?$_CopyInterface@UIConnectionPoint@@@ATL@@@ATL@@UEAAJPEAPEAUIEnumConnectionPoints@@@Z 000000018000467c f i ElectronicValueRW.obj
 0001:000037a4       ?QueryInterface@?$CComObject@V?$CComEnum@UIEnumConnectionPoints@@$1?_GUID_b196b285_bab4_101a_b69c_00aa00341d07@@3U__s_GUID@@BPEAUIConnectionPoint@@V?$_CopyInterface@UIConnectionPoint@@@ATL@@VCComSingleThreadModel@6@@ATL@@@ATL@@UEAAJAEBU_GUID@@PEAPEAX@Z 00000001800047a4 f i ElectronicValueRW.obj
 0001:000037b8       ??_E?$CComObject@V?$CComEnum@UIEnumConnectionPoints@@$1?_GUID_b196b285_bab4_101a_b69c_00aa00341d07@@3U__s_GUID@@BPEAUIConnectionPoint@@V?$_CopyInterface@UIConnectionPoint@@@ATL@@VCComSingleThreadModel@6@@ATL@@@ATL@@UEAAPEAXI@Z 00000001800047b8 f i ElectronicValueRW.obj
 0001:000037b8       ??_G?$CComObject@V?$CComEnum@UIEnumConnectionPoints@@$1?_GUID_b196b285_bab4_101a_b69c_00aa00341d07@@3U__s_GUID@@BPEAUIConnectionPoint@@V?$_CopyInterface@UIConnectionPoint@@@ATL@@VCComSingleThreadModel@6@@ATL@@@ATL@@UEAAPEAXI@Z 00000001800047b8 f i ElectronicValueRW.obj
 0001:00003810       ??$AtlModuleRegisterWndClassInfoT@VAtlModuleRegisterWndClassInfoParamW@ATL@@@ATL@@YAGPEAU_ATL_BASE_MODULE70@0@PEAU_ATL_WIN_MODULE70@0@PEAU_ATL_WNDCLASSINFOW@0@PEAP6A_JPEAUHWND__@@I_K_J@ZVAtlModuleRegisterWndClassInfoParamW@0@@Z 0000000180004810 f i ElectronicValueRW.obj
 0001:00003a10       ??0?$CComContainedObject@VCOPOSElectronicValueRW@@@ATL@@QEAA@PEAX@Z 0000000180004a10 f i ElectronicValueRW.obj
 0001:00003b2c       ??0?$CComObject@VCOPOSElectronicValueRW@@@ATL@@QEAA@PEAX@Z 0000000180004b2c f i ElectronicValueRW.obj
 0001:00003c44       ??0CAtlModule@ATL@@QEAA@XZ 0000000180004c44 f i ElectronicValueRW.obj
 0001:00003cc4       ??1?$CComEnumImpl@UIEnumConnectionPoints@@$1?_GUID_b196b285_bab4_101a_b69c_00aa00341d07@@3U__s_GUID@@BPEAUIConnectionPoint@@V?$_CopyInterface@UIConnectionPoint@@@ATL@@@ATL@@UEAA@XZ 0000000180004cc4 f i ElectronicValueRW.obj
 0001:00003d20       ??1?$CComEnumImpl@UIEnumConnections@@$1?_GUID_b196b287_bab4_101a_b69c_00aa00341d07@@3U__s_GUID@@BUtagCONNECTDATA@@V?$_Copy@UtagCONNECTDATA@@@ATL@@@ATL@@UEAA@XZ 0000000180004d20 f i ElectronicValueRW.obj
 0001:00003d7c       ??1?$CComObject@VCOPOSElectronicValueRW@@@ATL@@UEAA@XZ 0000000180004d7c f i ElectronicValueRW.obj
 0001:00003e9c       ??_E?$CComContainedObject@VCOPOSElectronicValueRW@@@ATL@@UEAAPEAXI@Z 0000000180004e9c f i ElectronicValueRW.obj
 0001:00003e9c       ??_G?$CComContainedObject@VCOPOSElectronicValueRW@@@ATL@@UEAAPEAXI@Z 0000000180004e9c f i ElectronicValueRW.obj
 0001:00003ed0       ??_E?$CComObject@VCOPOSElectronicValueRW@@@ATL@@UEAAPEAXI@Z 0000000180004ed0 f i ElectronicValueRW.obj
 0001:00003ed0       ??_G?$CComObject@VCOPOSElectronicValueRW@@@ATL@@UEAAPEAXI@Z 0000000180004ed0 f i ElectronicValueRW.obj
 0001:00003f04       ?Add@?$CSimpleArray@GV?$CSimpleArrayEqualHelper@G@ATL@@@ATL@@QEAAHAEBG@Z 0000000180004f04 f i ElectronicValueRW.obj
 0001:00003fb8       ?Add@?$CSimpleMap@PEA_WPEA_WVCExpansionVectorEqualHelper@ATL@@@ATL@@QEAAHAEBQEA_W0@Z 0000000180004fb8 f i ElectronicValueRW.obj
 0001:00004058       ?Add@CComDynamicUnkArray@ATL@@QEAAKPEAUIUnknown@@@Z 0000000180005058 f i ElectronicValueRW.obj
 0001:00004150       ?Add@CExpansionVector@ATL@@QEAAHPEB_W0@Z 0000000180005150 f i ElectronicValueRW.obj
 0001:000042e0       ?AddValue@CRegParser@ATL@@IEAAJAEAVCRegKey@2@PEB_WPEA_W@Z 00000001800052e0 f i ElectronicValueRW.obj
 0001:00004728       ?AllocateHeap@?$CTempBuffer@_W$0EAA@VCCRTAllocator@ATL@@@ATL@@AEAAX_K@Z 0000000180005728 f i ElectronicValueRW.obj
 0001:00004728       ?AllocateHeap@?$CTempBuffer@_W$0BAA@VCCRTAllocator@ATL@@@ATL@@AEAAX_K@Z 0000000180005728 f i ElectronicValueRW.obj
 0001:00004728       ?AllocateHeap@?$CTempBuffer@E$0BAA@VCCRTAllocator@ATL@@@ATL@@AEAAX_K@Z 0000000180005728 f i ElectronicValueRW.obj
 0001:00004754       ?Append@CParseBuffer@CRegParser@ATL@@QEAAHPEB_WH@Z 0000000180005754 f i ElectronicValueRW.obj
 0001:0000486c       ?AtlCallTermFunc@ATL@@YAXPEAU_ATL_MODULE70@1@@Z 000000018000586c f i ElectronicValueRW.obj
 0001:000048d0       ?AtlComModuleGetClassObject@ATL@@YAJPEAU_ATL_COM_MODULE70@1@AEBU_GUID@@1PEAPEAX@Z 00000001800058d0 f i ElectronicValueRW.obj
 0001:00004a10       ?AtlComModuleRegisterServer@ATL@@YAJPEAU_ATL_COM_MODULE70@1@HPEBU_GUID@@@Z 0000000180005a10 f i ElectronicValueRW.obj
 0001:00004ad0       ?AtlComModuleUnregisterServer@ATL@@YAJPEAU_ATL_COM_MODULE70@1@HPEBU_GUID@@@Z 0000000180005ad0 f i ElectronicValueRW.obj
 0001:00004b8c       ?AtlCreateTargetDC@ATL@@YAPEAUHDC__@@PEAU2@PEAUtagDVTARGETDEVICE@@@Z 0000000180005b8c f i ElectronicValueRW.obj
 0001:00004c00       ?AtlHiMetricToPixel@ATL@@YAXPEBUtagSIZE@@PEAU2@@Z 0000000180005c00 f i ElectronicValueRW.obj
 0001:00004cb0       ?AtlHresultFromLastError@ATL@@YAJXZ 0000000180005cb0 f i ElectronicValueRW.obj
 0001:00004cd0       ?AtlHresultFromWin32@ATL@@YAJK@Z 0000000180005cd0 f i ElectronicValueRW.obj
 0001:00004ce0       ?AtlIPersistStreamInit_Load@ATL@@YAJPEAUIStream@@PEBUATL_PROPMAP_ENTRY@1@PEAXPEAUIUnknown@@@Z 0000000180005ce0 f i ElectronicValueRW.obj
 0001:00004f18       ?AtlIPersistStreamInit_Save@ATL@@YAJPEAUIStream@@HPEBUATL_PROPMAP_ENTRY@1@PEAXPEAUIUnknown@@@Z 0000000180005f18 f i ElectronicValueRW.obj
 0001:00005154       ?AtlInternalOleLoadFromStream@ATL@@YAJPEAUIStream@@AEBU_GUID@@PEAPEAXTClassesAllowedInStream@1@K@Z 0000000180006154 f i ElectronicValueRW.obj
 0001:00005298       ?AtlInternalQueryInterface@ATL@@YAJPEAXPEBU_ATL_INTMAP_ENTRY@1@AEBU_GUID@@PEAPEAX@Z 0000000180006298 f i ElectronicValueRW.obj
 0001:000053a0       ?AtlLoadTypeLib@ATL@@YAJPEAUHINSTANCE__@@PEB_WPEAPEA_WPEAPEAUITypeLib@@@Z 00000001800063a0 f i ElectronicValueRW.obj
 0001:000055fc       ?AtlModuleAddTermFunc@ATL@@YAJPEAU_ATL_MODULE70@1@P6AX_K@Z1@Z 00000001800065fc f i ElectronicValueRW.obj
 0001:00005690       ?AtlRegisterClassCategoriesHelper@ATL@@YAJAEBU_GUID@@PEBU_ATL_CATMAP_ENTRY@1@H@Z 0000000180006690 f i ElectronicValueRW.obj
 0001:00005af8       ?AtlRegisterTypeLib@ATL@@YAJPEAUHINSTANCE__@@PEB_W@Z 0000000180006af8 f i ElectronicValueRW.obj
 0001:00005cf4       ?AtlThrowImpl@ATL@@YAXJ@Z  0000000180006cf4 f i ElectronicValueRW.obj
 0001:00005d18       ?AtlUnRegisterTypeLib@ATL@@YAJPEAUHINSTANCE__@@PEB_W@Z 0000000180006d18 f i ElectronicValueRW.obj
 0001:00005de0       ?AtlWinModuleExtractCreateWndData@ATL@@YAPEAXPEAU_ATL_WIN_MODULE70@1@@Z 0000000180006de0 f i ElectronicValueRW.obj
 0001:00005e6c       ?Cleanup@CComTypeInfoHolder@ATL@@SAX_K@Z 0000000180006e6c f i ElectronicValueRW.obj
 0001:00005eac       ?ClearReplacements@CExpansionVector@ATL@@QEAAJXZ 0000000180006eac f i ElectronicValueRW.obj
 0001:00005f48       ?CreateInstance@?$CComCreator@V?$CComAggObject@VCOPOSElectronicValueRW@@@ATL@@@ATL@@SAJPEAXAEBU_GUID@@PEAPEAX@Z 0000000180006f48 f i ElectronicValueRW.obj
 0001:00006020       ?CreateInstance@?$CComCreator@V?$CComObject@VCOPOSElectronicValueRW@@@ATL@@@ATL@@SAJPEAXAEBU_GUID@@PEAPEAX@Z 0000000180007020 f i ElectronicValueRW.obj
 0001:000060d8       ?CreateInstance@?$CComObject@V?$CComEnum@UIEnumConnectionPoints@@$1?_GUID_b196b285_bab4_101a_b69c_00aa00341d07@@3U__s_GUID@@BPEAUIConnectionPoint@@V?$_CopyInterface@UIConnectionPoint@@@ATL@@VCComSingleThreadModel@6@@ATL@@@ATL@@SAJPEAPEAV12@@Z 00000001800070d8 f i ElectronicValueRW.obj
 0001:00006164       ?CreateInstance@?$CComObject@V?$CComEnum@UIEnumConnections@@$1?_GUID_b196b287_bab4_101a_b69c_00aa00341d07@@3U__s_GUID@@BUtagCONNECTDATA@@V?$_Copy@UtagCONNECTDATA@@@ATL@@VCComSingleThreadModel@6@@ATL@@@ATL@@SAJPEAPEAV12@@Z 0000000180007164 f i ElectronicValueRW.obj
 0001:000061f0       ?DefaultReflectionHandler@?$CWindowImplRoot@VCWindow@ATL@@@ATL@@SAHPEAUHWND__@@I_K_JAEA_J@Z 00000001800071f0 f i ElectronicValueRW.obj
 0001:00006254       ?DeleteSubKey@CRegKey@ATL@@QEAAJPEB_W@Z 0000000180007254 f i ElectronicValueRW.obj
 0001:000062ec       ?DoEvent@COPOSElectronicValueRW@@IEAAXI_K_J@Z 00000001800072ec f i ElectronicValueRW.obj
 0001:000063a0       ?DoVerbPrimary@?$IOleObjectImpl@VCOPOSElectronicValueRW@@@ATL@@QEAAJPEBUtagRECT@@PEAUHWND__@@@Z 00000001800073a0 f i ElectronicValueRW.obj
 0001:000064c8       ?DoVerbProperties@CComControlBase@ATL@@QEAAJPEBUtagRECT@@PEAUHWND__@@@Z 00000001800074c8 f i ElectronicValueRW.obj
 0001:000066f0       ?FireTheEvent@?$CProxy_IOPOSEvents@VCOPOSElectronicValueRW@@@@IEAAXPEAVOposVariant@@IAEAJPEB_WJ@Z 00000001800076f0 f i ElectronicValueRW.obj
 0001:000067dc       ?FireViewChange@CComControlBase@ATL@@QEAAJXZ 00000001800077dc f i ElectronicValueRW.obj
 0001:00006840       ?Fire_DataEvent@?$CProxy_IOPOSEvents@VCOPOSElectronicValueRW@@@@QEAAXJ@Z 0000000180007840 f i ElectronicValueRW.obj
 0001:0000692c       ?Fire_DirectIOEvent@?$CProxy_IOPOSEvents@VCOPOSElectronicValueRW@@@@QEAAXJPEAJPEAPEA_W@Z 000000018000792c f i ElectronicValueRW.obj
 0001:00006a84       ?Fire_ErrorEvent@?$CProxy_IOPOSEvents@VCOPOSElectronicValueRW@@@@QEAAXJJJPEAJ@Z 0000000180007a84 f i ElectronicValueRW.obj
 0001:00006bec       ?Fire_OutputCompleteEvent@?$CProxy_IOPOSEvents@VCOPOSElectronicValueRW@@@@QEAAXJ@Z 0000000180007bec f i ElectronicValueRW.obj
 0001:00006cd8       ?Fire_StatusUpdateEvent@?$CProxy_IOPOSEvents@VCOPOSElectronicValueRW@@@@QEAAXJ@Z 0000000180007cd8 f i ElectronicValueRW.obj
 0001:00006dc4       ?Fire_TransitionEvent@?$CProxy_IOPOSEvents@VCOPOSElectronicValueRW@@@@QEAAXJPEAJPEAPEA_W@Z 0000000180007dc4 f i ElectronicValueRW.obj
 0001:00006f1c       ?FreeHeap@?$CTempBuffer@_W$0BAA@VCCRTAllocator@ATL@@@ATL@@AEAAXXZ 0000000180007f1c f i ElectronicValueRW.obj
 0001:00006f1c       ?FreeHeap@?$CTempBuffer@_W$0EAA@VCCRTAllocator@ATL@@@ATL@@AEAAXXZ 0000000180007f1c f i ElectronicValueRW.obj
 0001:00006f1c       ?FreeHeap@?$CTempBuffer@E$0BAA@VCCRTAllocator@ATL@@@ATL@@AEAAXXZ 0000000180007f1c f i ElectronicValueRW.obj
 0001:00006f24       ?GetAmbientLocaleID@CComControlBase@ATL@@QEAAJAEAK@Z 0000000180007f24 f i ElectronicValueRW.obj
 0001:00006fe4       ?GetAmbientUserMode@CComControlBase@ATL@@QEAAJAEAH@Z 0000000180007fe4 f i ElectronicValueRW.obj
 0001:000070b8       ?GetClassObject@CComModule@ATL@@QEAAJAEBU_GUID@@0PEAPEAX@Z 00000001800080b8 f i ElectronicValueRW.obj
 0001:000071ac       ?GetConnMap@COPOSElectronicValueRW@@SAPEBU_ATL_CONNMAP_ENTRY@ATL@@PEAH@Z 00000001800081ac f i ElectronicValueRW.obj
 0001:00007234       ?GetIDsOfNames@CComTypeInfoHolder@ATL@@QEAAJAEBU_GUID@@PEAPEA_WIKPEAJ@Z 0000000180008234 f i ElectronicValueRW.obj
 0001:000073ac       ?GetPagesHelper@?$ISpecifyPropertyPagesImpl@VCOPOSElectronicValueRW@@@ATL@@IEAAJPEAUtagCAUUID@@PEBUATL_PROPMAP_ENTRY@2@@Z 00000001800083ac f i ElectronicValueRW.obj
 0001:0000754c       ?GetSizeMax@CComVariant@ATL@@QEBAJPEAT_ULARGE_INTEGER@@@Z 000000018000854c f i ElectronicValueRW.obj
 0001:00007780       ?GetTI@CComTypeInfoHolder@ATL@@QEAAJK@Z 0000000180008780 f i ElectronicValueRW.obj
 0001:000079f8       ?GetZoomInfo@CComControlBase@ATL@@QEAAXAEAUATL_DRAWINFO@@@Z 00000001800089f8 f i ElectronicValueRW.obj
 0001:00007a9c       ?HKeyFromString@CRegParser@ATL@@KAPEAUHKEY__@@PEA_W@Z 0000000180008a9c f i ElectronicValueRW.obj
 0001:00007b00       ?IDataObject_GetData@CComControlBase@ATL@@QEAAJPEAUtagFORMATETC@@PEAUtagSTGMEDIUM@@@Z 0000000180008b00 f i ElectronicValueRW.obj
 0001:00007cf4       ?IOleInPlaceObject_InPlaceDeactivate@CComControlBase@ATL@@QEAAJXZ 0000000180008cf4 f i ElectronicValueRW.obj
 0001:00007d94       ?IOleInPlaceObject_SetObjectRects@CComControlBase@ATL@@QEAAJPEBUtagRECT@@0@Z 0000000180008d94 f i ElectronicValueRW.obj
 0001:00007e84       ?IOleInPlaceObject_UIDeactivate@CComControlBase@ATL@@QEAAJXZ 0000000180008e84 f i ElectronicValueRW.obj
 0001:00007f90       ?IOleObject_Close@CComControlBase@ATL@@QEAAJK@Z 0000000180008f90 f i ElectronicValueRW.obj
 0001:000080a8       ?IOleObject_SetClientSite@CComControlBase@ATL@@QEAAJPEAUIOleClientSite@@@Z 00000001800090a8 f i ElectronicValueRW.obj
 0001:00008120       ?IOleObject_SetExtent@CComControlBase@ATL@@QEAAJKPEAUtagSIZE@@@Z 0000000180009120 f i ElectronicValueRW.obj
 0001:000081b8       ?IPSI_GetIPersistStreamInit@?$IPersistStorageImpl@VCOPOSElectronicValueRW@@@ATL@@AEAAPEAUIPersistStreamInit@@XZ 00000001800091b8 f i ElectronicValueRW.obj
 0001:00008214       ?IQuickActivate_QuickActivate@CComControlBase@ATL@@QEAAJPEAUtagQACONTAINER@@PEAUtagQACONTROL@@@Z 0000000180009214 f i ElectronicValueRW.obj
 0001:000084d8       ?IViewObject_Draw@CComControlBase@ATL@@QEAAJKJPEAXPEAUtagDVTARGETDEVICE@@PEAUHDC__@@2PEBU_RECTL@@3@Z 00000001800094d8 f i ElectronicValueRW.obj
 0001:000085ec       ?InPlaceActivate@CComControlBase@ATL@@QEAAJJPEBUtagRECT@@@Z 00000001800095ec f i ElectronicValueRW.obj
 0001:00008924       ?Init@?$CComEnumImpl@UIEnumConnectionPoints@@$1?_GUID_b196b285_bab4_101a_b69c_00aa00341d07@@3U__s_GUID@@BPEAUIConnectionPoint@@V?$_CopyInterface@UIConnectionPoint@@@ATL@@@ATL@@QEAAJPEAPEAUIConnectionPoint@@0PEAUIUnknown@@W4CComEnumFlags@2@@Z 0000000180009924 f i ElectronicValueRW.obj
 0001:00008a44       ?Init@?$CComEnumImpl@UIEnumConnections@@$1?_GUID_b196b287_bab4_101a_b69c_00aa00341d07@@3U__s_GUID@@BUtagCONNECTDATA@@V?$_Copy@UtagCONNECTDATA@@@ATL@@@ATL@@QEAAJPEAUtagCONNECTDATA@@0PEAUIUnknown@@W4CComEnumFlags@2@@Z 0000000180009a44 f i ElectronicValueRW.obj
 0001:00008b68       ?IsEqualObject@?$CComPtrBase@UITypeInfo@@@ATL@@QEAA_NPEAUIUnknown@@@Z 0000000180009b68 f i ElectronicValueRW.obj
 0001:00008b68       ?IsEqualObject@?$CComPtrBase@UIOleClientSite@@@ATL@@QEAA_NPEAUIUnknown@@@Z 0000000180009b68 f i ElectronicValueRW.obj
 0001:00008bf4       ?LoadNameCache@CComTypeInfoHolder@ATL@@QEAAJPEAUITypeInfo@@@Z 0000000180009bf4 f i ElectronicValueRW.obj
 0001:00008d78       ?Lookup@?$CSimpleMap@PEA_WPEA_WVCExpansionVectorEqualHelper@ATL@@@ATL@@QEBAPEA_WAEBQEA_W@Z 0000000180009d78 f i ElectronicValueRW.obj
 0001:00008e04       ?NextToken@CRegParser@ATL@@IEAAJPEA_W@Z 0000000180009e04 f i ElectronicValueRW.obj
 0001:00008fbc       ?OnKillFocus@CComControlBase@ATL@@QEAA_JI_K_JAEAH@Z 0000000180009fbc f i ElectronicValueRW.obj
 0001:00009058       ?OnMouseActivate@CComControlBase@ATL@@QEAA_JI_K_JAEAH@Z 000000018000a058 f i ElectronicValueRW.obj
 0001:000090f8       ?OnPaint@CComControlBase@ATL@@QEAA_JI_K_JAEAH@Z 000000018000a0f8 f i ElectronicValueRW.obj
 0001:000091e4       ?OnSetFocus@CComControlBase@ATL@@QEAA_JI_K_JAEAH@Z 000000018000a1e4 f i ElectronicValueRW.obj
 0001:000092e0       ?Open@CRegKey@ATL@@QEAAJPEAUHKEY__@@PEB_WK@Z 000000018000a2e0 f i ElectronicValueRW.obj
 0001:0000936c       ?PreProcessBuffer@CRegParser@ATL@@QEAAJPEA_WPEAPEA_W@Z 000000018000a36c f i ElectronicValueRW.obj
 0001:000096f0       ?ProcessWindowMessage@?$CComControl@VCOPOSElectronicValueRW@@V?$CWindowImpl@VCOPOSElectronicValueRW@@VCWindow@ATL@@V?$CWinTraits@$0FGAAAAAA@$0A@@3@@ATL@@@ATL@@UEAAHPEAUHWND__@@I_K_JAEA_JK@Z 000000018000a6f0 f i ElectronicValueRW.obj
 0001:000097d4       ?PutProperty@?$CComPtr@UIDispatch@@@ATL@@SAJPEAUIDispatch@@JPEAUtagVARIANT@@@Z 000000018000a7d4 f i ElectronicValueRW.obj
 0001:000098d8       ?ReadFromStream@CComBSTR@ATL@@QEAAJPEAUIStream@@@Z 000000018000a8d8 f i ElectronicValueRW.obj
 0001:00009a34       ?ReadFromStream@CComVariant@ATL@@QEAAJPEAUIStream@@GTClassesAllowedInStream@2@K@Z 000000018000aa34 f i ElectronicValueRW.obj
 0001:00009c44       ?RecurseDeleteKey@CRegKey@ATL@@QEAAJPEB_W@Z 000000018000ac44 f i ElectronicValueRW.obj
 0001:00009d50       ?RegCreateKeyExW@CAtlTransactionManager@ATL@@QEAAJPEAUHKEY__@@PEB_WKPEA_WKKQEAU_SECURITY_ATTRIBUTES@@PEAPEAU3@PEAK@Z 000000018000ad50 f i ElectronicValueRW.obj
 0001:00009e84       ?RegDeleteKeyW@CAtlTransactionManager@ATL@@QEAAJPEAUHKEY__@@PEB_W@Z 000000018000ae84 f i ElectronicValueRW.obj
 0001:00009f10       ?RegOpenKeyExW@CAtlTransactionManager@ATL@@QEAAJPEAUHKEY__@@PEB_WKKPEAPEAU3@@Z 000000018000af10 f i ElectronicValueRW.obj
 0001:00009fc8       ?RegisterBuffer@CRegParser@ATL@@QEAAJPEA_WH@Z 000000018000afc8 f i ElectronicValueRW.obj
 0001:0000a130       ?RegisterFromResource@CRegObject@ATL@@IEAAJPEB_W00H@Z 000000018000b130 f i ElectronicValueRW.obj
 0001:0000a2ec       ?RegisterServer@CComModule@ATL@@QEAAJHPEBU_GUID@@@Z 000000018000b2ec f i ElectronicValueRW.obj
 0001:0000a3ac       ?RegisterSubkeys@CRegParser@ATL@@IEAAJPEA_WPEAUHKEY__@@HH@Z 000000018000b3ac f i ElectronicValueRW.obj
 0001:0000aaa8       ?SendOnDataChange@CComControlBase@ATL@@QEAAJK@Z 000000018000baa8 f i ElectronicValueRW.obj
 0001:0000ab18       ?SetControlFocus@CComControlBase@ATL@@QEAAHH@Z 000000018000bb18 f i ElectronicValueRW.obj
 0001:0000abf4       ?SkipAssignment@CRegParser@ATL@@IEAAJPEA_W@Z 000000018000bbf4 f i ElectronicValueRW.obj
 0001:0000ac98       ?Term@CComModule@ATL@@QEAAXXZ 000000018000bc98 f i ElectronicValueRW.obj
 0001:0000ad44       ?UnregisterServer@CComModule@ATL@@QEAAJHPEBU_GUID@@@Z 000000018000bd44 f i ElectronicValueRW.obj
 0001:0000adf4       ?UpdateRegistryFromResource@CAtlModule@ATL@@QEAAJIHPEAU_ATL_REGMAP_ENTRY@2@@Z 000000018000bdf4 f i ElectronicValueRW.obj
 0001:0000b12c       ?UpdateRegistryFromResource@CAtlModule@ATL@@QEAAJPEB_WHPEAU_ATL_REGMAP_ENTRY@2@@Z 000000018000c12c f i ElectronicValueRW.obj
 0001:0000b484       ?VTFromRegType@CRegParser@ATL@@KAHPEB_WAEAG@Z 000000018000c484 f i ElectronicValueRW.obj
 0001:0000b520       ?WindowProc@?$CWindowImplBaseT@VCWindow@ATL@@V?$CWinTraits@$0FGAAAAAA@$0A@@2@@ATL@@SA_JPEAUHWND__@@I_K_J@Z 000000018000c520 f i ElectronicValueRW.obj
 0001:0000b68c       ?WriteToStream@CComBSTR@ATL@@QEAAJPEAUIStream@@@Z 000000018000c68c f i ElectronicValueRW.obj
 0001:0000b70c       ?WriteToStream@CComVariant@ATL@@QEAAJPEAUIStream@@@Z 000000018000c70c f i ElectronicValueRW.obj
 0001:0000b920       ?WriteToStream@CComVariant@ATL@@QEAAJPEAUIStream@@G@Z 000000018000c920 f i ElectronicValueRW.obj
 0001:0000b9b8       ?_AtlVerifyStackAvailable@_ATL_SAFE_ALLOCA_IMPL@ATL@@YA_N_K@Z 000000018000c9b8 f i ElectronicValueRW.obj
 0001:0000ba3c       ?atlCreate@?$CWindowImpl@VCOPOSElectronicValueRW@@VCWindow@ATL@@V?$CWinTraits@$0FGAAAAAA@$0A@@3@@ATL@@QEAAPEAUHWND__@@PEAU3@V_U_RECT@2@PEB_WKKV_U_MENUorID@2@PEAX@Z 000000018000ca3c f i ElectronicValueRW.obj
 0001:0000baec       ?atlCreate@?$CWindowImplBaseT@VCWindow@ATL@@V?$CWinTraits@$0FGAAAAAA@$0A@@2@@ATL@@QEAAPEAUHWND__@@PEAU3@V_U_RECT@2@PEB_WKKV_U_MENUorID@2@GPEAX@Z 000000018000caec f i ElectronicValueRW.obj
 0001:0000bc5c       ?atlCreate@CRegKey@ATL@@QEAAJPEAUHKEY__@@PEB_WPEA_WKKPEAU_SECURITY_ATTRIBUTES@@PEAK@Z 000000018000cc5c f i ElectronicValueRW.obj
 0001:0000bd48       DllCanUnloadNow            000000018000cd48 f   ElectronicValueRW.obj
 0001:0000bd54       DllGetClassObject          000000018000cd54 f   ElectronicValueRW.obj
 0001:0000bd6c       DllMain                    000000018000cd6c f   ElectronicValueRW.obj
 0001:0000be14       DllRegisterServer          000000018000ce14 f   ElectronicValueRW.obj
 0001:0000be28       DllUnregisterServer        000000018000ce28 f   ElectronicValueRW.obj
 0001:0000be3c       __local_stdio_printf_options 000000018000ce3c f i ElectronicValueRW.obj
 0001:0000becc       swprintf_s                 000000018000cecc f i ElectronicValueRW.obj
 0001:0000bf20       ??0COPOSElectronicValueRW@@QEAA@XZ 000000018000cf20 f   ElectronicValueRWImpl.obj
 0001:0000bff4       ??1?$IConnectionPointImpl@VCOPOSElectronicValueRW@@$1?IID_IPropertyNotifySink@@3U_GUID@@BVCComDynamicUnkArray@ATL@@@ATL@@QEAA@XZ 000000018000cff4 f i ElectronicValueRWImpl.obj
 0001:0000bff4       ??1?$IConnectionPointImpl@VCOPOSElectronicValueRW@@$1?DIID__IOPOSElectronicValueRWEvents@@3U_GUID@@BVCComDynamicUnkArray@ATL@@@ATL@@QEAA@XZ 000000018000cff4 f i ElectronicValueRWImpl.obj
 0001:0000c050       ??1CComControlBase@ATL@@UEAA@XZ 000000018000d050 f i ElectronicValueRWImpl.obj
 0001:0000c0cc       ??1COPOSElectronicValueRW@@UEAA@XZ 000000018000d0cc f   ElectronicValueRWImpl.obj
 0001:0000c130       ?AccessDailyLog@COPOSElectronicValueRW@@UEAAJJJJPEAJ@Z 000000018000d130 f   ElectronicValueRWImpl.obj
 0001:0000c218       ?AccessData@COPOSElectronicValueRW@@UEAAJJPEAJPEAPEA_W0@Z 000000018000d218 f   ElectronicValueRWImpl.obj
 0001:0000c314       ?AccessLog@COPOSElectronicValueRW@@UEAAJJJJPEAJ@Z 000000018000d314 f   ElectronicValueRWImpl.obj
 0001:0000c3fc       ?ActivateEVService@COPOSElectronicValueRW@@UEAAJPEAJPEAPEA_W0@Z 000000018000d3fc f   ElectronicValueRWImpl.obj
 0001:0000c4d8       ?ActivateService@COPOSElectronicValueRW@@UEAAJPEAJPEAPEA_W0@Z 000000018000d4d8 f   ElectronicValueRWImpl.obj
 0001:0000c5b4       ?AddValue@COPOSElectronicValueRW@@UEAAJJJPEAJ@Z 000000018000d5b4 f   ElectronicValueRWImpl.obj
 0001:0000c680       ?AuthorizeCompletion@COPOSElectronicValueRW@@UEAAJJTtagCY@@0JPEAJ@Z 000000018000d680 f   ElectronicValueRWImpl.obj
 0001:0000c780       ?AuthorizePreSales@COPOSElectronicValueRW@@UEAAJJTtagCY@@0JPEAJ@Z 000000018000d780 f   ElectronicValueRWImpl.obj
 0001:0000c880       ?AuthorizeRefund@COPOSElectronicValueRW@@UEAAJJTtagCY@@0JPEAJ@Z 000000018000d880 f   ElectronicValueRWImpl.obj
 0001:0000c980       ?AuthorizeSales@COPOSElectronicValueRW@@UEAAJJTtagCY@@0JPEAJ@Z 000000018000d980 f   ElectronicValueRWImpl.obj
 0001:0000ca80       ?AuthorizeVoid@COPOSElectronicValueRW@@UEAAJJTtagCY@@0JPEAJ@Z 000000018000da80 f   ElectronicValueRWImpl.obj
 0001:0000cb80       ?AuthorizeVoidPreSales@COPOSElectronicValueRW@@UEAAJJTtagCY@@0JPEAJ@Z 000000018000db80 f   ElectronicValueRWImpl.obj
 0001:0000cc80       ?BeginDetection@COPOSElectronicValueRW@@UEAAJJJPEAJ@Z 000000018000dc80 f   ElectronicValueRWImpl.obj
 0001:0000cd4c       ?BeginRemoval@COPOSElectronicValueRW@@UEAAJJPEAJ@Z 000000018000dd4c f   ElectronicValueRWImpl.obj
 0001:0000cdc8       ?CancelValue@COPOSElectronicValueRW@@UEAAJJJPEAJ@Z 000000018000ddc8 f   ElectronicValueRWImpl.obj
 0001:0000ce94       ?CaptureCard@COPOSElectronicValueRW@@UEAAJPEAJ@Z 000000018000de94 f   ElectronicValueRWImpl.obj
 0001:0000cebc       ?CashDeposit@COPOSElectronicValueRW@@UEAAJJTtagCY@@JPEAJ@Z 000000018000debc f   ElectronicValueRWImpl.obj
 0001:0000cfa8       ?CheckCard@COPOSElectronicValueRW@@UEAAJJJPEAJ@Z 000000018000dfa8 f   ElectronicValueRWImpl.obj
 0001:0000d074       ?CheckHealth@COPOSElectronicValueRW@@UEAAJJPEAJ@Z 000000018000e074 f   ElectronicValueRWImpl.obj
 0001:0000d0f0       ?CheckServiceRegistrationToMedium@COPOSElectronicValueRW@@UEAAJJJPEAJ@Z 000000018000e0f0 f   ElectronicValueRWImpl.obj
 0001:0000d1bc       ?ClaimDevice@COPOSElectronicValueRW@@UEAAJJPEAJ@Z 000000018000e1bc f   ElectronicValueRWImpl.obj
 0001:0000d25c       ?ClearInput@COPOSElectronicValueRW@@UEAAJPEAJ@Z 000000018000e25c f   ElectronicValueRWImpl.obj
 0001:0000d284       ?ClearInputProperties@COPOSElectronicValueRW@@UEAAJPEAJ@Z 000000018000e284 f   ElectronicValueRWImpl.obj
 0001:0000d2ac       ?ClearOutput@COPOSElectronicValueRW@@UEAAJPEAJ@Z 000000018000e2ac f   ElectronicValueRWImpl.obj
 0001:0000d2d4       ?ClearParameterInformation@COPOSElectronicValueRW@@UEAAJPEAJ@Z 000000018000e2d4 f   ElectronicValueRWImpl.obj
 0001:0000d2fc       ?Close@COPOSElectronicValueRW@@UEAAJPEAJ@Z 000000018000e2fc f   ElectronicValueRWImpl.obj
 0001:0000d3b4       ?CloseDailyEVService@COPOSElectronicValueRW@@UEAAJPEAJPEAPEA_W0@Z 000000018000e3b4 f   ElectronicValueRWImpl.obj
 0001:0000d490       ?CompareFirmwareVersion@COPOSElectronicValueRW@@UEAAJPEA_WPEAJ1@Z 000000018000e490 f   ElectronicValueRWImpl.obj
 0001:0000d56c       ?DeactivateEVService@COPOSElectronicValueRW@@UEAAJPEAJPEAPEA_W0@Z 000000018000e56c f   ElectronicValueRWImpl.obj
 0001:0000d648       ?DirectIO@COPOSElectronicValueRW@@UEAAJJPEAJPEAPEA_W0@Z 000000018000e648 f   ElectronicValueRWImpl.obj
 0001:0000d744       ?DoInvoke@COPOSElectronicValueRW@@IEAAJJPEAVOposVariant@@IHPEAJ_N@Z 000000018000e744 f   ElectronicValueRWImpl.obj
 0001:0000d878       ?EndDetection@COPOSElectronicValueRW@@UEAAJPEAJ@Z 000000018000e878 f   ElectronicValueRWImpl.obj
 0001:0000d8a0       ?EndRemoval@COPOSElectronicValueRW@@UEAAJPEAJ@Z 000000018000e8a0 f   ElectronicValueRWImpl.obj
 0001:0000d8c8       ?EnumerateCardServices@COPOSElectronicValueRW@@UEAAJPEAJ@Z 000000018000e8c8 f   ElectronicValueRWImpl.obj
 0001:0000d8f0       ?EventInit@COPOSElectronicValueRW@@IEAAJXZ 000000018000e8f0 f i ElectronicValueRWImpl.obj
 0001:0000da38       ?EventUninit@COPOSElectronicValueRW@@IEAAXXZ 000000018000ea38 f i ElectronicValueRWImpl.obj
 0001:0000da9c       ?EventWindowProc@COPOSElectronicValueRW@@IEAA_JI_K_J@Z 000000018000ea9c f i ElectronicValueRWImpl.obj
 0001:0000dce0       ?FinalConstruct@COPOSElectronicValueRW@@QEAAJXZ 000000018000ece0 f   ElectronicValueRWImpl.obj
 0001:0000dd1c       ?FreezeEvents@COPOSElectronicValueRW@@MEAAJH@Z 000000018000ed1c f   ElectronicValueRWImpl.obj
 0001:0000dd90       ?GetOposProp@COPOSElectronicValueRW@@IEAAJJPEAJJ@Z 000000018000ed90 f   ElectronicValueRWImpl.obj
 0001:0000deac       ?GetOposProp@COPOSElectronicValueRW@@IEAAJJPEAPEA_WJ@Z 000000018000eeac f   ElectronicValueRWImpl.obj
 0001:0000dfd8       ?LockTerminal@COPOSElectronicValueRW@@UEAAJPEAJ@Z 000000018000efd8 f   ElectronicValueRWImpl.obj
 0001:0000e000       ?OnDraw@COPOSElectronicValueRW@@MEAAJAEAUATL_DRAWINFO@@@Z 000000018000f000 f   ElectronicValueRWImpl.obj
 0001:0000e0ec       ?Open@COPOSElectronicValueRW@@UEAAJPEA_WPEAJ@Z 000000018000f0ec f   ElectronicValueRWImpl.obj
 0001:0000e990       ?OpenDailyEVService@COPOSElectronicValueRW@@UEAAJPEAJPEAPEA_W0@Z 000000018000f990 f   ElectronicValueRWImpl.obj
 0001:0000ea6c       ?QueryLastSuccessfulTransactionResult@COPOSElectronicValueRW@@UEAAJPEAJ@Z 000000018000fa6c f   ElectronicValueRWImpl.obj
 0001:0000ea94       ?ReadValue@COPOSElectronicValueRW@@UEAAJJJPEAJ@Z 000000018000fa94 f   ElectronicValueRWImpl.obj
 0001:0000eb60       ?RegisterServiceToMedium@COPOSElectronicValueRW@@UEAAJJJPEAJ@Z 000000018000fb60 f   ElectronicValueRWImpl.obj
 0001:0000ec2c       ?ReleaseDevice@COPOSElectronicValueRW@@UEAAJPEAJ@Z 000000018000fc2c f   ElectronicValueRWImpl.obj
 0001:0000ec98       ?ResetStatistics@COPOSElectronicValueRW@@UEAAJPEA_WPEAJ@Z 000000018000fc98 f   ElectronicValueRWImpl.obj
 0001:0000ed20       ?RetrieveResultInformation@COPOSElectronicValueRW@@UEAAJPEA_WPEAPEA_WPEAJ@Z 000000018000fd20 f   ElectronicValueRWImpl.obj
 0001:0000edfc       ?RetrieveStatistics@COPOSElectronicValueRW@@UEAAJPEAPEA_WPEAJ@Z 000000018000fdfc f   ElectronicValueRWImpl.obj
 0001:0000ee84       ?SOProcessID@COPOSElectronicValueRW@@UEAAJPEAJ@Z 000000018000fe84 f   ElectronicValueRWImpl.obj
 0001:0000eea0       ?SetCOFreezeEvents@COPOSElectronicValueRW@@IEAAXF@Z 000000018000fea0 f   ElectronicValueRWImpl.obj
 0001:0000ef84       ?SetOposProp@COPOSElectronicValueRW@@IEAAJJJJ@Z 000000018000ff84 f   ElectronicValueRWImpl.obj
 0001:0000f0e4       ?SetOposProp@COPOSElectronicValueRW@@IEAAJJPEA_WJ@Z 00000001800100e4 f   ElectronicValueRWImpl.obj
 0001:0000f23c       ?SetParameterInformation@COPOSElectronicValueRW@@UEAAJPEA_W0PEAJ@Z 000000018001023c f   ElectronicValueRWImpl.obj
 0001:0000f318       ?SubtractValue@COPOSElectronicValueRW@@UEAAJJJPEAJ@Z 0000000180010318 f   ElectronicValueRWImpl.obj
 0001:0000f3e4       ?TransactionAccess@COPOSElectronicValueRW@@UEAAJJPEAJ@Z 00000001800103e4 f   ElectronicValueRWImpl.obj
 0001:0000f460       ?UnlockTerminal@COPOSElectronicValueRW@@UEAAJPEAJ@Z 0000000180010460 f   ElectronicValueRWImpl.obj
 0001:0000f488       ?UnregisterServiceToMedium@COPOSElectronicValueRW@@UEAAJJJPEAJ@Z 0000000180010488 f   ElectronicValueRWImpl.obj
 0001:0000f554       ?UpdateData@COPOSElectronicValueRW@@UEAAJJPEAJPEAPEA_W0@Z 0000000180010554 f   ElectronicValueRWImpl.obj
 0001:0000f650       ?UpdateFirmware@COPOSElectronicValueRW@@UEAAJPEA_WPEAJ@Z 0000000180010650 f   ElectronicValueRWImpl.obj
 0001:0000f6d8       ?UpdateKey@COPOSElectronicValueRW@@UEAAJPEAJPEAPEA_W0@Z 00000001800106d8 f   ElectronicValueRWImpl.obj
 0001:0000f7b4       ?UpdateStatistics@COPOSElectronicValueRW@@UEAAJPEA_WPEAJ@Z 00000001800107b4 f   ElectronicValueRWImpl.obj
 0001:0000f83c       ?WriteValue@COPOSElectronicValueRW@@UEAAJJJPEAJ@Z 000000018001083c f   ElectronicValueRWImpl.obj
 0001:0000f908       ?get_AccountNumber@COPOSElectronicValueRW@@UEAAJPEAPEA_W@Z 0000000180010908 f   ElectronicValueRWImpl.obj
 0001:0000f91c       ?get_AdditionalSecurityInformation@COPOSElectronicValueRW@@UEAAJPEAPEA_W@Z 000000018001091c f   ElectronicValueRWImpl.obj
 0001:0000f930       ?get_Amount@COPOSElectronicValueRW@@UEAAJPEATtagCY@@@Z 0000000180010930 f   ElectronicValueRWImpl.obj
 0001:0000fa00       ?get_ApprovalCode@COPOSElectronicValueRW@@UEAAJPEAPEA_W@Z 0000000180010a00 f   ElectronicValueRWImpl.obj
 0001:0000fa14       ?get_AsyncMode@COPOSElectronicValueRW@@UEAAJPEAF@Z 0000000180010a14 f   ElectronicValueRWImpl.obj
 0001:0000fa48       ?get_AutoDisable@COPOSElectronicValueRW@@UEAAJPEAF@Z 0000000180010a48 f   ElectronicValueRWImpl.obj
 0001:0000fa7c       ?get_Balance@COPOSElectronicValueRW@@UEAAJPEATtagCY@@@Z 0000000180010a7c f   ElectronicValueRWImpl.obj
 0001:0000fb4c       ?get_BalanceOfPoint@COPOSElectronicValueRW@@UEAAJPEATtagCY@@@Z 0000000180010b4c f   ElectronicValueRWImpl.obj
 0001:0000fc1c       ?get_BinaryConversion@COPOSElectronicValueRW@@UEAAJPEAJ@Z 0000000180010c1c f   ElectronicValueRWImpl.obj
 0001:0000fc30       ?get_CapActivateService@COPOSElectronicValueRW@@UEAAJPEAF@Z 0000000180010c30 f   ElectronicValueRWImpl.obj
 0001:0000fc64       ?get_CapAddValue@COPOSElectronicValueRW@@UEAAJPEAF@Z 0000000180010c64 f   ElectronicValueRWImpl.obj
 0001:0000fc98       ?get_CapAdditionalSecurityInformation@COPOSElectronicValueRW@@UEAAJPEAF@Z 0000000180010c98 f   ElectronicValueRWImpl.obj
 0001:0000fccc       ?get_CapAuthorizeCompletion@COPOSElectronicValueRW@@UEAAJPEAF@Z 0000000180010ccc f   ElectronicValueRWImpl.obj
 0001:0000fd00       ?get_CapAuthorizePreSales@COPOSElectronicValueRW@@UEAAJPEAF@Z 0000000180010d00 f   ElectronicValueRWImpl.obj
 0001:0000fd34       ?get_CapAuthorizeRefund@COPOSElectronicValueRW@@UEAAJPEAF@Z 0000000180010d34 f   ElectronicValueRWImpl.obj
 0001:0000fd68       ?get_CapAuthorizeVoid@COPOSElectronicValueRW@@UEAAJPEAF@Z 0000000180010d68 f   ElectronicValueRWImpl.obj
 0001:0000fd9c       ?get_CapAuthorizeVoidPreSales@COPOSElectronicValueRW@@UEAAJPEAF@Z 0000000180010d9c f   ElectronicValueRWImpl.obj
 0001:0000fdd0       ?get_CapCancelValue@COPOSElectronicValueRW@@UEAAJPEAF@Z 0000000180010dd0 f   ElectronicValueRWImpl.obj
 0001:0000fe04       ?get_CapCardSensor@COPOSElectronicValueRW@@UEAAJPEAJ@Z 0000000180010e04 f   ElectronicValueRWImpl.obj
 0001:0000fe18       ?get_CapCashDeposit@COPOSElectronicValueRW@@UEAAJPEAF@Z 0000000180010e18 f   ElectronicValueRWImpl.obj
 0001:0000fe4c       ?get_CapCenterResultCode@COPOSElectronicValueRW@@UEAAJPEAF@Z 0000000180010e4c f   ElectronicValueRWImpl.obj
 0001:0000fe80       ?get_CapCheckCard@COPOSElectronicValueRW@@UEAAJPEAF@Z 0000000180010e80 f   ElectronicValueRWImpl.obj
 0001:0000feb4       ?get_CapCompareFirmwareVersion@COPOSElectronicValueRW@@UEAAJPEAF@Z 0000000180010eb4 f   ElectronicValueRWImpl.obj
 0001:0000fee8       ?get_CapDailyLog@COPOSElectronicValueRW@@UEAAJPEAJ@Z 0000000180010ee8 f   ElectronicValueRWImpl.obj
 0001:0000fefc       ?get_CapDetectionControl@COPOSElectronicValueRW@@UEAAJPEAJ@Z 0000000180010efc f   ElectronicValueRWImpl.obj
 0001:0000ff10       ?get_CapElectronicMoney@COPOSElectronicValueRW@@UEAAJPEAF@Z 0000000180010f10 f   ElectronicValueRWImpl.obj
 0001:0000ff44       ?get_CapEnumerateCardServices@COPOSElectronicValueRW@@UEAAJPEAF@Z 0000000180010f44 f   ElectronicValueRWImpl.obj
 0001:0000ff78       ?get_CapIndirectTransactionLog@COPOSElectronicValueRW@@UEAAJPEAF@Z 0000000180010f78 f   ElectronicValueRWImpl.obj
 0001:0000ffac       ?get_CapInstallments@COPOSElectronicValueRW@@UEAAJPEAF@Z 0000000180010fac f   ElectronicValueRWImpl.obj
 0001:0000ffe0       ?get_CapLockTerminal@COPOSElectronicValueRW@@UEAAJPEAF@Z 0000000180010fe0 f   ElectronicValueRWImpl.obj
 0001:00010014       ?get_CapLogStatus@COPOSElectronicValueRW@@UEAAJPEAF@Z 0000000180011014 f   ElectronicValueRWImpl.obj
 0001:00010048       ?get_CapMediumID@COPOSElectronicValueRW@@UEAAJPEAF@Z 0000000180011048 f   ElectronicValueRWImpl.obj
 0001:0001007c       ?get_CapMembershipCertificate@COPOSElectronicValueRW@@UEAAJPEAF@Z 000000018001107c f   ElectronicValueRWImpl.obj
 0001:000100b0       ?get_CapPINDevice@COPOSElectronicValueRW@@UEAAJPEAF@Z 00000001800110b0 f   ElectronicValueRWImpl.obj
 0001:000100e4       ?get_CapPaymentDetail@COPOSElectronicValueRW@@UEAAJPEAF@Z 00000001800110e4 f   ElectronicValueRWImpl.obj
 0001:00010118       ?get_CapPoint@COPOSElectronicValueRW@@UEAAJPEAF@Z 0000000180011118 f   ElectronicValueRWImpl.obj
 0001:0001014c       ?get_CapPowerReporting@COPOSElectronicValueRW@@UEAAJPEAJ@Z 000000018001114c f   ElectronicValueRWImpl.obj
 0001:00010160       ?get_CapStatisticsReporting@COPOSElectronicValueRW@@UEAAJPEAF@Z 0000000180011160 f   ElectronicValueRWImpl.obj
 0001:00010194       ?get_CapSubtractValue@COPOSElectronicValueRW@@UEAAJPEAF@Z 0000000180011194 f   ElectronicValueRWImpl.obj
 0001:000101c8       ?get_CapTaxOthers@COPOSElectronicValueRW@@UEAAJPEAF@Z 00000001800111c8 f   ElectronicValueRWImpl.obj
 0001:000101fc       ?get_CapTrainingMode@COPOSElectronicValueRW@@UEAAJPEAF@Z 00000001800111fc f   ElectronicValueRWImpl.obj
 0001:00010230       ?get_CapTransaction@COPOSElectronicValueRW@@UEAAJPEAF@Z 0000000180011230 f   ElectronicValueRWImpl.obj
 0001:00010264       ?get_CapTransactionLog@COPOSElectronicValueRW@@UEAAJPEAF@Z 0000000180011264 f   ElectronicValueRWImpl.obj
 0001:00010298       ?get_CapTransactionNumber@COPOSElectronicValueRW@@UEAAJPEAF@Z 0000000180011298 f   ElectronicValueRWImpl.obj
 0001:000102cc       ?get_CapUnlockTerminal@COPOSElectronicValueRW@@UEAAJPEAF@Z 00000001800112cc f   ElectronicValueRWImpl.obj
 0001:00010300       ?get_CapUpdateFirmware@COPOSElectronicValueRW@@UEAAJPEAF@Z 0000000180011300 f   ElectronicValueRWImpl.obj
 0001:00010334       ?get_CapUpdateKey@COPOSElectronicValueRW@@UEAAJPEAF@Z 0000000180011334 f   ElectronicValueRWImpl.obj
 0001:00010368       ?get_CapUpdateStatistics@COPOSElectronicValueRW@@UEAAJPEAF@Z 0000000180011368 f   ElectronicValueRWImpl.obj
 0001:0001039c       ?get_CapVoucher@COPOSElectronicValueRW@@UEAAJPEAF@Z 000000018001139c f   ElectronicValueRWImpl.obj
 0001:000103d0       ?get_CapWriteValue@COPOSElectronicValueRW@@UEAAJPEAF@Z 00000001800113d0 f   ElectronicValueRWImpl.obj
 0001:00010404       ?get_CardCompanyID@COPOSElectronicValueRW@@UEAAJPEAPEA_W@Z 0000000180011404 f   ElectronicValueRWImpl.obj
 0001:00010418       ?get_CardServiceList@COPOSElectronicValueRW@@UEAAJPEAPEA_W@Z 0000000180011418 f   ElectronicValueRWImpl.obj
 0001:0001042c       ?get_CenterResultCode@COPOSElectronicValueRW@@UEAAJPEAPEA_W@Z 000000018001142c f   ElectronicValueRWImpl.obj
 0001:00010440       ?get_CheckHealthText@COPOSElectronicValueRW@@UEAAJPEAPEA_W@Z 0000000180011440 f   ElectronicValueRWImpl.obj
 0001:00010454       ?get_Claimed@COPOSElectronicValueRW@@UEAAJPEAF@Z 0000000180011454 f   ElectronicValueRWImpl.obj
 0001:00010488       ?get_ControlObjectDescription@COPOSElectronicValueRW@@UEAAJPEAPEA_W@Z 0000000180011488 f   ElectronicValueRWImpl.obj
 0001:000104ec       ?get_ControlObjectVersion@COPOSElectronicValueRW@@UEAAJPEAJ@Z 00000001800114ec f   ElectronicValueRWImpl.obj
 0001:000104f8       ?get_CurrentService@COPOSElectronicValueRW@@UEAAJPEAPEA_W@Z 00000001800114f8 f   ElectronicValueRWImpl.obj
 0001:0001050c       ?get_DailyLog@COPOSElectronicValueRW@@UEAAJPEAPEA_W@Z 000000018001150c f   ElectronicValueRWImpl.obj
 0001:00010520       ?get_DataCount@COPOSElectronicValueRW@@UEAAJPEAJ@Z 0000000180011520 f   ElectronicValueRWImpl.obj
 0001:00010534       ?get_DataEventEnabled@COPOSElectronicValueRW@@UEAAJPEAF@Z 0000000180011534 f   ElectronicValueRWImpl.obj
 0001:00010568       ?get_DetectionControl@COPOSElectronicValueRW@@UEAAJPEAF@Z 0000000180011568 f   ElectronicValueRWImpl.obj
 0001:0001059c       ?get_DetectionStatus@COPOSElectronicValueRW@@UEAAJPEAJ@Z 000000018001159c f   ElectronicValueRWImpl.obj
 0001:000105b0       ?get_DeviceDescription@COPOSElectronicValueRW@@UEAAJPEAPEA_W@Z 00000001800115b0 f   ElectronicValueRWImpl.obj
 0001:000105c4       ?get_DeviceEnabled@COPOSElectronicValueRW@@UEAAJPEAF@Z 00000001800115c4 f   ElectronicValueRWImpl.obj
 0001:000105f8       ?get_DeviceName@COPOSElectronicValueRW@@UEAAJPEAPEA_W@Z 00000001800115f8 f   ElectronicValueRWImpl.obj
 0001:0001060c       ?get_ExpirationDate@COPOSElectronicValueRW@@UEAAJPEAPEA_W@Z 000000018001160c f   ElectronicValueRWImpl.obj
 0001:00010620       ?get_FreezeEvents@COPOSElectronicValueRW@@UEAAJPEAF@Z 0000000180011620 f   ElectronicValueRWImpl.obj
 0001:00010650       ?get_LastUsedDate@COPOSElectronicValueRW@@UEAAJPEAPEA_W@Z 0000000180011650 f   ElectronicValueRWImpl.obj
 0001:00010664       ?get_LogStatus@COPOSElectronicValueRW@@UEAAJPEAJ@Z 0000000180011664 f   ElectronicValueRWImpl.obj
 0001:00010678       ?get_MediumID@COPOSElectronicValueRW@@UEAAJPEAPEA_W@Z 0000000180011678 f   ElectronicValueRWImpl.obj
 0001:0001068c       ?get_OpenResult@COPOSElectronicValueRW@@UEAAJPEAJ@Z 000000018001168c f   ElectronicValueRWImpl.obj
 0001:00010698       ?get_OutputID@COPOSElectronicValueRW@@UEAAJPEAJ@Z 0000000180011698 f   ElectronicValueRWImpl.obj
 0001:000106ac       ?get_PINEntry@COPOSElectronicValueRW@@UEAAJPEAJ@Z 00000001800116ac f   ElectronicValueRWImpl.obj
 0001:000106c0       ?get_PaymentCondition@COPOSElectronicValueRW@@UEAAJPEAJ@Z 00000001800116c0 f   ElectronicValueRWImpl.obj
 0001:000106d4       ?get_PaymentDetail@COPOSElectronicValueRW@@UEAAJPEAPEA_W@Z 00000001800116d4 f   ElectronicValueRWImpl.obj
 0001:000106e8       ?get_PaymentMedia@COPOSElectronicValueRW@@UEAAJPEAJ@Z 00000001800116e8 f   ElectronicValueRWImpl.obj
 0001:000106fc       ?get_Point@COPOSElectronicValueRW@@UEAAJPEATtagCY@@@Z 00000001800116fc f   ElectronicValueRWImpl.obj
 0001:000107cc       ?get_PowerNotify@COPOSElectronicValueRW@@UEAAJPEAJ@Z 00000001800117cc f   ElectronicValueRWImpl.obj
 0001:000107e0       ?get_PowerState@COPOSElectronicValueRW@@UEAAJPEAJ@Z 00000001800117e0 f   ElectronicValueRWImpl.obj
 0001:000107f4       ?get_ReaderWriterServiceList@COPOSElectronicValueRW@@UEAAJPEAPEA_W@Z 00000001800117f4 f   ElectronicValueRWImpl.obj
 0001:00010808       ?get_ResultCode@COPOSElectronicValueRW@@UEAAJPEAJ@Z 0000000180011808 f   ElectronicValueRWImpl.obj
 0001:00010844       ?get_ResultCodeExtended@COPOSElectronicValueRW@@UEAAJPEAJ@Z 0000000180011844 f   ElectronicValueRWImpl.obj
 0001:00010858       ?get_SequenceNumber@COPOSElectronicValueRW@@UEAAJPEAJ@Z 0000000180011858 f   ElectronicValueRWImpl.obj
 0001:0001086c       ?get_ServiceObjectDescription@COPOSElectronicValueRW@@UEAAJPEAPEA_W@Z 000000018001186c f   ElectronicValueRWImpl.obj
 0001:00010880       ?get_ServiceObjectVersion@COPOSElectronicValueRW@@UEAAJPEAJ@Z 0000000180011880 f   ElectronicValueRWImpl.obj
 0001:00010894       ?get_ServiceType@COPOSElectronicValueRW@@UEAAJPEAJ@Z 0000000180011894 f   ElectronicValueRWImpl.obj
 0001:000108a8       ?get_SettledAmount@COPOSElectronicValueRW@@UEAAJPEATtagCY@@@Z 00000001800118a8 f   ElectronicValueRWImpl.obj
 0001:00010978       ?get_SettledPoint@COPOSElectronicValueRW@@UEAAJPEATtagCY@@@Z 0000000180011978 f   ElectronicValueRWImpl.obj
 0001:00010a48       ?get_SlipNumber@COPOSElectronicValueRW@@UEAAJPEAPEA_W@Z 0000000180011a48 f   ElectronicValueRWImpl.obj
 0001:00010a5c       ?get_State@COPOSElectronicValueRW@@UEAAJPEAJ@Z 0000000180011a5c f   ElectronicValueRWImpl.obj
 0001:00010a88       ?get_TrainingModeState@COPOSElectronicValueRW@@UEAAJPEAJ@Z 0000000180011a88 f   ElectronicValueRWImpl.obj
 0001:00010a9c       ?get_TransactionLog@COPOSElectronicValueRW@@UEAAJPEAPEA_W@Z 0000000180011a9c f   ElectronicValueRWImpl.obj
 0001:00010ab0       ?get_TransactionNumber@COPOSElectronicValueRW@@UEAAJPEAPEA_W@Z 0000000180011ab0 f   ElectronicValueRWImpl.obj
 0001:00010ac4       ?get_TransactionType@COPOSElectronicValueRW@@UEAAJPEAJ@Z 0000000180011ac4 f   ElectronicValueRWImpl.obj
 0001:00010ad8       ?get_VoucherID@COPOSElectronicValueRW@@UEAAJPEAPEA_W@Z 0000000180011ad8 f   ElectronicValueRWImpl.obj
 0001:00010aec       ?get_VoucherIDList@COPOSElectronicValueRW@@UEAAJPEAPEA_W@Z 0000000180011aec f   ElectronicValueRWImpl.obj
 0001:00010b00       ?put_AdditionalSecurityInformation@COPOSElectronicValueRW@@UEAAJPEA_W@Z 0000000180011b00 f   ElectronicValueRWImpl.obj
 0001:00010b14       ?put_Amount@COPOSElectronicValueRW@@UEAAJTtagCY@@@Z 0000000180011b14 f   ElectronicValueRWImpl.obj
 0001:00010c00       ?put_ApprovalCode@COPOSElectronicValueRW@@UEAAJPEA_W@Z 0000000180011c00 f   ElectronicValueRWImpl.obj
 0001:00010c14       ?put_AsyncMode@COPOSElectronicValueRW@@UEAAJF@Z 0000000180011c14 f   ElectronicValueRWImpl.obj
 0001:00010c30       ?put_AutoDisable@COPOSElectronicValueRW@@UEAAJF@Z 0000000180011c30 f   ElectronicValueRWImpl.obj
 0001:00010c48       ?put_BinaryConversion@COPOSElectronicValueRW@@UEAAJJ@Z 0000000180011c48 f   ElectronicValueRWImpl.obj
 0001:00010c5c       ?put_CurrentService@COPOSElectronicValueRW@@UEAAJPEA_W@Z 0000000180011c5c f   ElectronicValueRWImpl.obj
 0001:00010c70       ?put_DataEventEnabled@COPOSElectronicValueRW@@UEAAJF@Z 0000000180011c70 f   ElectronicValueRWImpl.obj
 0001:00010c88       ?put_DetectionControl@COPOSElectronicValueRW@@UEAAJF@Z 0000000180011c88 f   ElectronicValueRWImpl.obj
 0001:00010ca4       ?put_DeviceEnabled@COPOSElectronicValueRW@@UEAAJF@Z 0000000180011ca4 f   ElectronicValueRWImpl.obj
 0001:00010cbc       ?put_FreezeEvents@COPOSElectronicValueRW@@UEAAJF@Z 0000000180011cbc f   ElectronicValueRWImpl.obj
 0001:00010d0c       ?put_MediumID@COPOSElectronicValueRW@@UEAAJPEA_W@Z 0000000180011d0c f   ElectronicValueRWImpl.obj
 0001:00010d20       ?put_PINEntry@COPOSElectronicValueRW@@UEAAJJ@Z 0000000180011d20 f   ElectronicValueRWImpl.obj
 0001:00010d34       ?put_PaymentMedia@COPOSElectronicValueRW@@UEAAJJ@Z 0000000180011d34 f   ElectronicValueRWImpl.obj
 0001:00010d48       ?put_Point@COPOSElectronicValueRW@@UEAAJTtagCY@@@Z 0000000180011d48 f   ElectronicValueRWImpl.obj
 0001:00010e34       ?put_PowerNotify@COPOSElectronicValueRW@@UEAAJJ@Z 0000000180011e34 f   ElectronicValueRWImpl.obj
 0001:00010e48       ?put_TrainingModeState@COPOSElectronicValueRW@@UEAAJJ@Z 0000000180011e48 f   ElectronicValueRWImpl.obj
 0001:00010e5c       ?put_VoucherID@COPOSElectronicValueRW@@UEAAJPEA_W@Z 0000000180011e5c f   ElectronicValueRWImpl.obj
 0001:00010e70       ?put_VoucherIDList@COPOSElectronicValueRW@@UEAAJPEA_W@Z 0000000180011e70 f   ElectronicValueRWImpl.obj
 0001:00010e84       ?s_EventWindowProc@COPOSElectronicValueRW@@KA_JPEAUHWND__@@I_K_J@Z 0000000180011e84 f i ElectronicValueRWImpl.obj
 0001:00010f00       ??_U@YAPEAX_K@Z            0000000180011f00 f   LIBCMT:new_array.obj
 0001:00010f08       ??3@YAXPEAX_K@Z            0000000180011f08 f   LIBCMT:delete_scalar_size.obj
 0001:00010f08       ??_V@YAXPEAX@Z             0000000180011f08 f   LIBCMT:delete_array.obj
 0001:00010f10       ??_V@YAXPEAX_K@Z           0000000180011f10 f   LIBCMT:delete_array_size.obj
 0001:00010f18       __scrt_acquire_startup_lock 0000000180011f18 f   LIBCMT:utility.obj
 0001:00010f54       __scrt_dllmain_after_initialize_c 0000000180011f54 f   LIBCMT:utility.obj
 0001:00010f88       __scrt_dllmain_before_initialize_c 0000000180011f88 f   LIBCMT:utility.obj
 0001:00010fa0       __scrt_dllmain_crt_thread_attach 0000000180011fa0 f   LIBCMT:utility.obj
 0001:00010fc8       __scrt_dllmain_crt_thread_detach 0000000180011fc8 f   LIBCMT:utility.obj
 0001:00010fe0       __scrt_dllmain_exception_filter 0000000180011fe0 f   LIBCMT:utility.obj
 0001:00011040       __scrt_dllmain_uninitialize_c 0000000180012040 f   LIBCMT:utility.obj
 0001:00011070       __scrt_dllmain_uninitialize_critical 0000000180012070 f   LIBCMT:utility.obj
 0001:00011084       __scrt_initialize_crt      0000000180012084 f   LIBCMT:utility.obj
 0001:000110d0       __scrt_initialize_onexit_tables 00000001800120d0 f   LIBCMT:utility.obj
 0001:000111a8       __scrt_is_nonwritable_in_current_image 00000001800121a8 f   LIBCMT:utility.obj
 0001:00011244       __scrt_release_startup_lock 0000000180012244 f   LIBCMT:utility.obj
 0001:00011268       __scrt_uninitialize_crt    0000000180012268 f   LIBCMT:utility.obj
 0001:00011294       _onexit                    0000000180012294 f   LIBCMT:utility.obj
 0001:000112e4       atexit                     00000001800122e4 f   LIBCMT:utility.obj
 0001:000112fc       ??3@YAXPEAX@Z              00000001800122fc f   LIBCMT:delete_scalar.obj
 0001:0001148c       _Init_thread_footer        000000018001248c f   LIBCMT:thread_safe_statics.obj
 0001:000114ec       _Init_thread_header        00000001800124ec f   LIBCMT:thread_safe_statics.obj
 0001:00011554       _Init_thread_notify        0000000180012554 f   LIBCMT:thread_safe_statics.obj
 0001:000115a4       _Init_thread_wait          00000001800125a4 f   LIBCMT:thread_safe_statics.obj
 0001:0001161c       __raise_securityfailure    000000018001261c f   LIBCMT:gs_report.obj
 0001:00011650       __report_gsfailure         0000000180012650 f   LIBCMT:gs_report.obj
 0001:00011724       __report_rangecheckfailure 0000000180012724 f   LIBCMT:gs_report.obj
 0001:00011738       __report_securityfailure   0000000180012738 f   LIBCMT:gs_report.obj
 0001:000118b8       ??2@YAPEAX_KAEBUnothrow_t@std@@@Z 00000001800128b8 f   LIBCMT:new_scalar_nothrow.obj
 0001:000118d8       ??_U@YAPEAX_KAEBUnothrow_t@std@@@Z 00000001800128d8 f   LIBCMT:new_array_nothrow.obj
 0001:000118e0       __GSHandlerCheck           00000001800128e0 f   LIBCMT:gshandler.obj
 0001:00011900       __GSHandlerCheckCommon     0000000180012900 f   LIBCMT:gshandler.obj
 0001:0001195c       __GSHandlerCheck_SEH       000000018001295c f   LIBCMT:gshandlerseh.obj
 0001:00011a00       __chkstk                   0000000180012a00 f   LIBCMT:chkstk.obj
 0001:00011a00       _alloca_probe              0000000180012a00 f   LIBCMT:chkstk.obj
 0001:00011a70       __security_check_cookie    0000000180012a70 f   LIBCMT:amdsecgs.obj
 0001:00011dc4       _DllMainCRTStartup         0000000180012dc4 f   LIBCMT:dll_dllmain.obj
 0001:00011e04       ??2@YAPEAX_K@Z             0000000180012e04 f   LIBCMT:new_scalar.obj
 0001:00011e40       __isa_available_init       0000000180012e40 f   LIBCMT:cpu_disp.obj
 0001:00011ffc       __scrt_is_ucrt_dll_in_use  0000000180012ffc f   LIBCMT:ucrt_detection.obj
 0001:00012008       __crt_debugger_hook        0000000180013008 f   LIBCMT:utility_desktop.obj
 0001:00012010       __scrt_fastfail            0000000180013010 f   LIBCMT:utility_desktop.obj
 0001:0001215c       __security_init_cookie     000000018001315c f   LIBCMT:gs_support.obj
 0001:00012208       ?__scrt_initialize_type_info@@YAXXZ 0000000180013208 f   LIBCMT:tncleanup.obj
 0001:00012218       ?__scrt_uninitialize_type_info@@YAXXZ 0000000180013218 f   LIBCMT:tncleanup.obj
 0001:00012224       __local_stdio_scanf_options 0000000180013224 f i LIBCMT:default_local_stdio_options.obj
 0001:0001222c       __scrt_initialize_default_local_stdio_options 000000018001322c f   LIBCMT:default_local_stdio_options.obj
 0001:00012248       __scrt_get_dyn_tls_init_callback 0000000180013248 f   LIBCMT:dyn_tls_init.obj
 0001:00012250       _RTC_Initialize            0000000180013250 f   LIBCMT:initsect.obj
 0001:0001228c       _RTC_Terminate             000000018001328c f   LIBCMT:initsect.obj
 0001:000122c8       ??0bad_alloc@std@@QEAA@AEBV01@@Z 00000001800132c8 f i LIBCMT:throw_bad_alloc.obj
 0001:00012308       ??0bad_alloc@std@@QEAA@XZ  0000000180013308 f i LIBCMT:throw_bad_alloc.obj
 0001:00012328       ??0bad_array_new_length@std@@QEAA@AEBV01@@Z 0000000180013328 f i LIBCMT:throw_bad_alloc.obj
 0001:00012368       ??0bad_array_new_length@std@@QEAA@XZ 0000000180013368 f i LIBCMT:throw_bad_alloc.obj
 0001:00012388       ??0exception@std@@QEAA@AEBV01@@Z 0000000180013388 f i LIBCMT:throw_bad_alloc.obj
 0001:000123c0       ??1bad_array_new_length@std@@UEAA@XZ 00000001800133c0 f i LIBCMT:throw_bad_alloc.obj
 0001:000123c0       ??1bad_alloc@std@@UEAA@XZ  00000001800133c0 f i LIBCMT:throw_bad_alloc.obj
 0001:000123c0       ??1bad_exception@std@@UEAA@XZ 00000001800133c0 f i libvcruntime:frame.obj
 0001:000123d4       ??_Ebad_exception@std@@UEAAPEAXI@Z 00000001800133d4 f i libvcruntime:frame.obj
 0001:000123d4       ??_Gbad_array_new_length@std@@UEAAPEAXI@Z 00000001800133d4 f i LIBCMT:throw_bad_alloc.obj
 0001:000123d4       ??_Gbad_alloc@std@@UEAAPEAXI@Z 00000001800133d4 f i LIBCMT:throw_bad_alloc.obj
 0001:000123d4       ??_Ebad_array_new_length@std@@UEAAPEAXI@Z 00000001800133d4 f i LIBCMT:throw_bad_alloc.obj
 0001:000123d4       ??_Gbad_exception@std@@UEAAPEAXI@Z 00000001800133d4 f i libvcruntime:frame.obj
 0001:000123d4       ??_Eexception@std@@UEAAPEAXI@Z 00000001800133d4 f i LIBCMT:throw_bad_alloc.obj
 0001:000123d4       ??_Ebad_alloc@std@@UEAAPEAXI@Z 00000001800133d4 f i LIBCMT:throw_bad_alloc.obj
 0001:000123d4       ??_Gexception@std@@UEAAPEAXI@Z 00000001800133d4 f i LIBCMT:throw_bad_alloc.obj
 0001:00012418       ?__scrt_throw_std_bad_alloc@@YAXXZ 0000000180013418 f   LIBCMT:throw_bad_alloc.obj
 0001:00012438       ?__scrt_throw_std_bad_array_new_length@@YAXXZ 0000000180013438 f   LIBCMT:throw_bad_alloc.obj
 0001:00012458       ?what@exception@std@@UEBAPEBDXZ 0000000180013458 f i LIBCMT:throw_bad_alloc.obj
 0001:00012470       ??_Etype_info@@UEAAPEAXI@Z 0000000180013470 f i LIBCMT:std_type_info_static.obj
 0001:00012470       ??_Gtype_info@@UEAAPEAXI@Z 0000000180013470 f i LIBCMT:std_type_info_static.obj
 0001:0001249c       ??0CAtlBaseModule@ATL@@QEAA@XZ 000000018001349c f   atls:atlbase.obj
 0001:00012544       ??1CAtlBaseModule@ATL@@QEAA@XZ 0000000180013544 f   atls:atlbase.obj
 0001:00012678       ?__AllocStdCallThunk_cmn@@YAPEAXXZ 0000000180013678 f   atls:atlthunk.obj
 0001:000127d0       AtlThunk_AllocateData      00000001800137d0 f   atls:atlthunk.obj
 0001:0001284c       AtlThunk_DataToCode        000000018001384c f   atls:atlthunk.obj
 0001:000128a0       AtlThunk_FreeData          00000001800138a0 f   atls:atlthunk.obj
 0001:00012900       AtlThunk_InitData          0000000180013900 f   atls:atlthunk.obj
 0001:000129c0       memset_repmovs             00000001800139c0 f   libvcruntime:memset.obj
 0001:000129e0       memset                     00000001800139e0 f   libvcruntime:memset.obj
 0001:00012b70       _purecall                  0000000180013b70 f   libvcruntime:purevirt.obj
 0001:00012ba0       wcsstr                     0000000180013ba0 f   libvcruntime:wcsstr.obj
 0001:00012dd0       memcmp                     0000000180013dd0 f   libvcruntime:memcmp.obj
 0001:00012eb0       memcpy_repmovs             0000000180013eb0 f   libvcruntime:memcpy.obj
 0001:00012ed0       memmove                    0000000180013ed0 f   libvcruntime:memcpy.obj
 0001:00012ed0       memcpy                     0000000180013ed0 f   libvcruntime:memcpy.obj
 0001:00013308       __vcrt_initialize          0000000180014308 f   libvcruntime:initialization.obj
 0001:0001333c       __vcrt_thread_attach       000000018001433c f   libvcruntime:initialization.obj
 0001:00013350       __vcrt_thread_detach       0000000180014350 f   libvcruntime:initialization.obj
 0001:00013364       __vcrt_uninitialize        0000000180014364 f   libvcruntime:initialization.obj
 0001:00013384       __vcrt_uninitialize_critical 0000000180014384 f   libvcruntime:initialization.obj
 0001:00013394       __C_specific_handler       0000000180014394 f   libvcruntime:riscchandler.obj
 0001:000135a0       __DestructExceptionObject  00000001800145a0 f   libvcruntime:ehhelpers.obj
 0001:00013614       ?_CallMemberFunction0@@YAXQEAX0@Z 0000000180014614 f i libvcruntime:ehhelpers.obj
 0001:00013618       _IsExceptionObjectToBeDestroyed 0000000180014618 f   libvcruntime:ehhelpers.obj
 0001:00013648       __AdjustPointer            0000000180014648 f   libvcruntime:ehhelpers.obj
 0001:0001366c       __FrameUnwindFilter        000000018001466c f   libvcruntime:ehhelpers.obj
 0001:000136b8       __std_terminate            00000001800146b8 f   libvcruntime:ehhelpers.obj
 0001:000136c4       ??$_CallSETranslator@V__FrameHandler3@@@@YAHPEAUEHExceptionRecord@@PEA_KPEAU_CONTEXT@@PEAU_xDISPATCHER_CONTEXT@@PEBU_s_FuncInfo@@K1@Z 00000001800146c4 f i libvcruntime:risctrnsctrl.obj
 0001:00013718       ?CatchTryBlock@__FrameHandler3@@SAPEBU_s_TryBlockMapEntry@@PEBU_s_FuncInfo@@H@Z 0000000180014718 f   libvcruntime:risctrnsctrl.obj
 0001:00013770       ?ExecutionInCatch@__FrameHandler3@@SA_NPEAU_xDISPATCHER_CONTEXT@@PEBU_s_FuncInfo@@@Z 0000000180014770 f   libvcruntime:risctrnsctrl.obj
 0001:0001379c       ?FrameUnwindToEmptyState@__FrameHandler3@@SAXPEA_KPEAU_xDISPATCHER_CONTEXT@@PEBU_s_FuncInfo@@@Z 000000018001479c f   libvcruntime:risctrnsctrl.obj
 0001:00013800       ?GetEstablisherFrame@__FrameHandler3@@SAPEA_KPEA_KPEAU_xDISPATCHER_CONTEXT@@PEBU_s_FuncInfo@@0@Z 0000000180014800 f   libvcruntime:risctrnsctrl.obj
 0001:000138cc       ?GetRangeOfTrysToCheck@__FrameHandler3@@SA?AU?$pair@Viterator@TryBlockMap@__FrameHandler3@@V123@@std@@AEAVTryBlockMap@1@HH@Z 00000001800148cc f   libvcruntime:risctrnsctrl.obj
 0001:00013a28       ?UnwindNestedFrames@__FrameHandler3@@SAXPEA_KPEAUEHExceptionRecord@@PEAU_CONTEXT@@0PEAXPEBU_s_FuncInfo@@HHPEBU_s_HandlerType@@PEAU_xDISPATCHER_CONTEXT@@E@Z 0000000180014a28 f   libvcruntime:risctrnsctrl.obj
 0001:00013b4c       _CreateFrameInfo           0000000180014b4c f   libvcruntime:risctrnsctrl.obj
 0001:00013b88       _FindAndUnlinkFrame        0000000180014b88 f   libvcruntime:risctrnsctrl.obj
 0001:00013bdc       _GetImageBase              0000000180014bdc f   libvcruntime:risctrnsctrl.obj
 0001:00013bf0       _GetThrowImageBase         0000000180014bf0 f   libvcruntime:risctrnsctrl.obj
 0001:00013c04       _SetImageBase              0000000180014c04 f   libvcruntime:risctrnsctrl.obj
 0001:00013c1c       _SetThrowImageBase         0000000180014c1c f   libvcruntime:risctrnsctrl.obj
 0001:00013c34       __CxxFrameHandler3         0000000180014c34 f   libvcruntime:risctrnsctrl.obj
 0001:00013cb4       __std_type_info_compare    0000000180014cb4 f   libvcruntime:std_type_info.obj
 0001:00013cdc       __std_type_info_destroy_list 0000000180014cdc f   libvcruntime:std_type_info.obj
 0001:00013d08       __std_exception_copy       0000000180014d08 f   libvcruntime:std_exception.obj
 0001:00013d98       __std_exception_destroy    0000000180014d98 f   libvcruntime:std_exception.obj
 0001:00013dc0       _CxxThrowException         0000000180014dc0 f   libvcruntime:throw.obj
 0001:00013e80       __vcrt_initialize_pure_virtual_call_handler 0000000180014e80 f   libvcruntime:purevirt_data.obj
 0001:00013e90       __vcrt_freefls             0000000180014e90 f   libvcruntime:per_thread_data.obj
 0001:00013eb0       __vcrt_freeptd             0000000180014eb0 f   libvcruntime:per_thread_data.obj
 0001:00013f00       __vcrt_getptd              0000000180014f00 f   libvcruntime:per_thread_data.obj
 0001:00013f1c       __vcrt_getptd_noexit       0000000180014f1c f   libvcruntime:per_thread_data.obj
 0001:00013fe8       __vcrt_initialize_ptd      0000000180014fe8 f   libvcruntime:per_thread_data.obj
 0001:0001403c       __vcrt_uninitialize_ptd    000000018001503c f   libvcruntime:per_thread_data.obj
 0001:00014060       __vcrt_initialize_locks    0000000180015060 f   libvcruntime:locks.obj
 0001:000140a8       __vcrt_uninitialize_locks  00000001800150a8 f   libvcruntime:locks.obj
 0001:000142b8       __vcrt_FlsAlloc            00000001800152b8 f   libvcruntime:winapi_downlevel.obj
 0001:00014300       __vcrt_FlsFree             0000000180015300 f   libvcruntime:winapi_downlevel.obj
 0001:00014348       __vcrt_FlsGetValue         0000000180015348 f   libvcruntime:winapi_downlevel.obj
 0001:00014390       __vcrt_FlsSetValue         0000000180015390 f   libvcruntime:winapi_downlevel.obj
 0001:000143e4       __vcrt_InitializeCriticalSectionEx 00000001800153e4 f   libvcruntime:winapi_downlevel.obj
 0001:00014448       __vcrt_initialize_winapi_thunks 0000000180015448 f   libvcruntime:winapi_downlevel.obj
 0001:00014478       __vcrt_uninitialize_winapi_thunks 0000000180015478 f   libvcruntime:winapi_downlevel.obj
 0001:000144d0       _NLG_Notify                00000001800154d0 f   libvcruntime:notify.obj
 0001:000144f0       __NLG_Dispatch2            00000001800154f0 f   libvcruntime:notify.obj
 0001:00014500       __NLG_Return2              0000000180015500 f   libvcruntime:notify.obj
 0001:00014504       __except_validate_context_record 0000000180015504 f   libvcruntime:jbcxrval.obj
 0001:0001453c       ?GetCurrentState@__FrameHandler3@@SAHPEA_KPEAU_xDISPATCHER_CONTEXT@@PEBU_s_FuncInfo@@@Z 000000018001553c f   libvcruntime:ehstate.obj
 0001:00014564       ?GetUnwindTryBlock@__FrameHandler3@@SAHPEA_KPEAU_xDISPATCHER_CONTEXT@@PEBU_s_FuncInfo@@@Z 0000000180015564 f   libvcruntime:ehstate.obj
 0001:00014590       ?SetState@__FrameHandler3@@SAXPEA_KPEBU_s_FuncInfo@@H@Z 0000000180015590 f   libvcruntime:ehstate.obj
 0001:0001459c       ?SetUnwindTryBlock@__FrameHandler3@@SAXPEA_KPEAU_xDISPATCHER_CONTEXT@@PEBU_s_FuncInfo@@H@Z 000000018001559c f   libvcruntime:ehstate.obj
 0001:000145d8       ?StateFromControlPc@__FrameHandler3@@SAHPEBU_s_FuncInfo@@PEAU_xDISPATCHER_CONTEXT@@@Z 00000001800155d8 f   libvcruntime:ehstate.obj
 0001:000145e0       ?StateFromIp@__FrameHandler3@@SAHPEBU_s_FuncInfo@@PEAU_xDISPATCHER_CONTEXT@@_K@Z 00000001800155e0 f   libvcruntime:ehstate.obj
 0001:0001506c       ??$TypeMatchHelper@V__FrameHandler3@@@@YAHPEBU_s_HandlerType@@PEBU_s_CatchableType@@PEBU_s_ThrowInfo@@@Z 000000018001606c f i libvcruntime:frame.obj
 0001:000151b0       ??$__InternalCxxFrameHandler@V__FrameHandler3@@@@YA?AW4_EXCEPTION_DISPOSITION@@PEAUEHExceptionRecord@@PEA_KPEAU_CONTEXT@@PEAU_xDISPATCHER_CONTEXT@@PEBU_s_FuncInfo@@H1E@Z 00000001800161b0 f i libvcruntime:frame.obj
 0001:000153f8       ??0bad_exception@std@@QEAA@AEBV01@@Z 00000001800163f8 f i libvcruntime:frame.obj
 0001:00015438       ??0bad_exception@std@@QEAA@XZ 0000000180016438 f i libvcruntime:frame.obj
 0001:00015458       ?CxxCallCatchBlock@__FrameHandler3@@SAPEAXPEAU_EXCEPTION_RECORD@@@Z 0000000180016458 f   libvcruntime:frame.obj
 0001:000156cc       ?FrameUnwindToState@__FrameHandler3@@SAXPEA_KPEAU_xDISPATCHER_CONTEXT@@PEBU_s_FuncInfo@@H@Z 00000001800166cc f   libvcruntime:frame.obj
 0001:00015860       ?GetHandlerSearchState@__FrameHandler3@@SAHPEA_KPEAU_xDISPATCHER_CONTEXT@@PEBU_s_FuncInfo@@@Z 0000000180016860 f i libvcruntime:frame.obj
 0001:00015a64       ?_CallMemberFunction1@@YAXQEAX00@Z 0000000180016a64 f i libvcruntime:frame.obj
 0001:00015a70       ?_CallMemberFunction2@@YAXQEAX00H@Z 0000000180016a70 f i libvcruntime:frame.obj
 0001:00015a90       _CallSettingFrame          0000000180016a90 f   libvcruntime:handlers.obj
 0001:00015ae0       _CallSettingFrameEncoded   0000000180016ae0 f   libvcruntime:handlers.obj
 0001:00015b28       free                       0000000180016b28 f   libucrt:free.obj
 0001:00015b30       __acrt_call_reportfault    0000000180016b30 f   libucrt:invalid_parameter.obj
 0001:00015c8c       __acrt_initialize_invalid_parameter_handler 0000000180016c8c f   libucrt:invalid_parameter.obj
 0001:00015c94       _invalid_parameter         0000000180016c94 f   libucrt:invalid_parameter.obj
 0001:00015d3c       _invalid_parameter_noinfo  0000000180016d3c f   libucrt:invalid_parameter.obj
 0001:00015d5c       _invoke_watson             0000000180016d5c f   libucrt:invalid_parameter.obj
 0001:00015da4       __acrt_errno_from_os_error 0000000180016da4 f   libucrt:errno.obj
 0001:00015dec       __acrt_errno_map_os_error  0000000180016dec f   libucrt:errno.obj
 0001:00015e3c       __doserrno                 0000000180016e3c f   libucrt:errno.obj
 0001:00015e5c       _errno                     0000000180016e5c f   libucrt:errno.obj
 0001:00015e7c       calloc                     0000000180016e7c f   libucrt:calloc.obj
 0001:00015e84       malloc                     0000000180016e84 f   libucrt:malloc.obj
 0001:00015e8c       _recalloc                  0000000180016e8c f   libucrt:recalloc.obj
 0001:00015e94       _recalloc_base             0000000180016e94 f   libucrt:recalloc.obj
 0001:00015f2c       _resetstkoflw              0000000180016f2c f   libucrt:resetstk.obj
 0001:00016050       wcscat_s                   0000000180017050 f   libucrt:wcscat_s.obj
 0001:000160d0       wcscpy_s                   00000001800170d0 f   libucrt:wcscpy_s.obj
 0001:00016138       wcsncpy_s                  0000000180017138 f   libucrt:wcsncpy_s.obj
 0001:000163d0       ??$ensure_buffer_is_big_enough@D@formatting_buffer@__crt_stdio_output@@QEAA_N_K@Z 00000001800173d0 f i libucrt:output.obj
 0001:0001647c       ??$is_wide_character_specifier@_W@__crt_stdio_output@@YA_N_K_WW4length_modifier@0@@Z 000000018001747c f i libucrt:output.obj
 0001:000164c0       ??$type_case_integer_parse_into_buffer@I@?$output_processor@_WV?$string_output_adapter@_W@__crt_stdio_output@@V?$format_validation_base@_WV?$string_output_adapter@_W@__crt_stdio_output@@@2@@__crt_stdio_output@@AEAAXII_N@Z 00000001800174c0 f i libucrt:output.obj
 0001:0001655c       ??$type_case_integer_parse_into_buffer@_K@?$output_processor@_WV?$string_output_adapter@_W@__crt_stdio_output@@V?$format_validation_base@_WV?$string_output_adapter@_W@__crt_stdio_output@@@2@@__crt_stdio_output@@AEAAX_KI_N@Z 000000018001755c f i libucrt:output.obj
 0001:000165f8       ??$write_multiple_characters@V?$string_output_adapter@_W@__crt_stdio_output@@D@__crt_stdio_output@@YAXAEBV?$string_output_adapter@_W@0@DHQEAH@Z 00000001800175f8 f i libucrt:output.obj
 0001:00016668       ??0?$output_processor@_WV?$string_output_adapter@_W@__crt_stdio_output@@V?$format_validation_base@_WV?$string_output_adapter@_W@__crt_stdio_output@@@2@@__crt_stdio_output@@QEAA@AEBV?$string_output_adapter@_W@1@_KQEB_WQEAU__crt_locale_pointers@@QEAD@Z 0000000180017668 f i libucrt:output.obj
 0001:000166e8       ??0_LocaleUpdate@@QEAA@QEAU__crt_locale_pointers@@@Z 00000001800176e8 f i libucrt:output.obj
 0001:00016778       ?force_decimal_point@__crt_stdio_output@@YAXPEADQEAU__crt_locale_pointers@@@Z 0000000180017778 f i libucrt:output.obj
 0001:000167e8       ?parse_int_from_format_string@?$output_processor@_WV?$string_output_adapter@_W@__crt_stdio_output@@V?$format_validation_base@_WV?$string_output_adapter@_W@__crt_stdio_output@@@2@@__crt_stdio_output@@AEAA_NQEAH@Z 00000001800177e8 f i libucrt:output.obj
 0001:00016868       ?process@?$output_processor@_WV?$string_output_adapter@_W@__crt_stdio_output@@V?$format_validation_base@_WV?$string_output_adapter@_W@__crt_stdio_output@@@2@@__crt_stdio_output@@QEAAHXZ 0000000180017868 f i libucrt:output.obj
 0001:00016af0       ?state_case_size@?$output_processor@_WV?$string_output_adapter@_W@__crt_stdio_output@@V?$format_validation_base@_WV?$string_output_adapter@_W@__crt_stdio_output@@@2@@__crt_stdio_output@@AEAA_NXZ 0000000180017af0 f i libucrt:output.obj
 0001:00016c94       ?state_case_type@?$output_processor@_WV?$string_output_adapter@_W@__crt_stdio_output@@V?$format_validation_base@_WV?$string_output_adapter@_W@__crt_stdio_output@@@2@@__crt_stdio_output@@AEAA_NXZ 0000000180017c94 f i libucrt:output.obj
 0001:00016f60       ?type_case_Z@?$output_processor@_WV?$string_output_adapter@_W@__crt_stdio_output@@V?$format_validation_base@_WV?$string_output_adapter@_W@__crt_stdio_output@@@2@@__crt_stdio_output@@AEAA_NXZ 0000000180017f60 f i libucrt:output.obj
 0001:00016fe0       ?type_case_a@?$output_processor@_WV?$string_output_adapter@_W@__crt_stdio_output@@V?$format_validation_base@_WV?$string_output_adapter@_W@__crt_stdio_output@@@2@@__crt_stdio_output@@AEAA_NXZ 0000000180017fe0 f i libucrt:output.obj
 0001:00017224       ?type_case_c_tchar@?$output_processor@_WV?$string_output_adapter@_W@__crt_stdio_output@@V?$format_validation_base@_WV?$string_output_adapter@_W@__crt_stdio_output@@@2@@__crt_stdio_output@@AEAA_N_W@Z 0000000180018224 f i libucrt:output.obj
 0001:000172cc       ?type_case_integer@?$output_processor@_WV?$string_output_adapter@_W@__crt_stdio_output@@V?$format_validation_base@_WV?$string_output_adapter@_W@__crt_stdio_output@@@2@@__crt_stdio_output@@AEAA_NI_N@Z 00000001800182cc f i libucrt:output.obj
 0001:0001746c       ?type_case_n@?$output_processor@_WV?$string_output_adapter@_W@__crt_stdio_output@@V?$format_validation_base@_WV?$string_output_adapter@_W@__crt_stdio_output@@@2@@__crt_stdio_output@@AEAA_NXZ 000000018001846c f i libucrt:output.obj
 0001:00017548       ?type_case_s@?$output_processor@_WV?$string_output_adapter@_W@__crt_stdio_output@@V?$format_validation_base@_WV?$string_output_adapter@_W@__crt_stdio_output@@@2@@__crt_stdio_output@@AEAA_NXZ 0000000180018548 f i libucrt:output.obj
 0001:00017610       ?write_stored_string_tchar@?$output_processor@_WV?$string_output_adapter@_W@__crt_stdio_output@@V?$format_validation_base@_WV?$string_output_adapter@_W@__crt_stdio_output@@@2@@__crt_stdio_output@@AEAA_N_W@Z 0000000180018610 f i libucrt:output.obj
 0001:00017700       ?write_string@?$string_output_adapter@_W@__crt_stdio_output@@QEBAXQEB_WHQEAH1@Z 0000000180018700 f i libucrt:output.obj
 0001:000177c0       __stdio_common_vswprintf_s 00000001800187c0 f   libucrt:output.obj
 0001:00017830       _seh_filter_dll            0000000180018830 f   libucrt:exception_filter.obj
 0001:00017844       _seh_filter_exe            0000000180018844 f   libucrt:exception_filter.obj
 0001:00017c04       __acrt_initialize_thread_local_exit_callback 0000000180018c04 f   libucrt:exit.obj
 0001:00017c0c       _cexit                     0000000180018c0c f   libucrt:exit.obj
 0001:00017c1c       _exit                      0000000180018c1c f   libucrt:exit.obj
 0001:00017c28       _is_c_termination_complete 0000000180018c28 f   libucrt:exit.obj
 0001:00017dec       __acrt_allocate_buffer_for_argv 0000000180018dec f   libucrt:argv_parsing.obj
 0001:00017e50       _configure_narrow_argv     0000000180018e50 f   libucrt:argv_parsing.obj
 0001:000181ac       __dcrt_uninitialize_environments_nolock 00000001800191ac f   libucrt:environment_initialization.obj
 0001:000181e4       _initialize_narrow_environment 00000001800191e4 f   libucrt:environment_initialization.obj
 0001:000181ec       ??$?RV<lambda_b8c45f8f788dd370798f47cfe8ac3a86>@@AEAV<lambda_4e60a939b0d047cfe11ddc22648dfba9>@@V<lambda_332c3edc96d0294ec56c57d38c1cdfd5>@@@?$__crt_seh_guarded_call@H@@QEAAH$$QEAV<lambda_b8c45f8f788dd370798f47cfe8ac3a86>@@AEAV<lambda_4e60a939b0d047cfe11ddc22648dfba9>@@$$QEAV<lambda_332c3edc96d0294ec56c57d38c1cdfd5>@@@Z 00000001800191ec f i libucrt:onexit.obj
 0001:00018228       ??$?RV<lambda_e24bbb7b643b32fcea6fa61b31d4c984>@@AEAV<lambda_275893d493268fdec8709772e3fcec0e>@@V<lambda_9d71df4d7cf3f480f8d633942495c3b0>@@@?$__crt_seh_guarded_call@H@@QEAAH$$QEAV<lambda_e24bbb7b643b32fcea6fa61b31d4c984>@@AEAV<lambda_275893d493268fdec8709772e3fcec0e>@@$$QEAV<lambda_9d71df4d7cf3f480f8d633942495c3b0>@@@Z 0000000180019228 f i libucrt:onexit.obj
 0001:000185a4       _crt_atexit                00000001800195a4 f   libucrt:onexit.obj
 0001:000185b4       _execute_onexit_table      00000001800195b4 f   libucrt:onexit.obj
 0001:000185f0       _initialize_onexit_table   00000001800195f0 f   libucrt:onexit.obj
 0001:00018630       _register_onexit_function  0000000180019630 f   libucrt:onexit.obj
 0001:000186b0       __acrt_uninitialize_command_line 00000001800196b0 f   libucrt:argv_data.obj
 0001:000187b0       __acrt_initialize          00000001800197b0 f   libucrt:initialization.obj
 0001:000187c4       __acrt_thread_attach       00000001800197c4 f   libucrt:initialization.obj
 0001:000187d8       __acrt_thread_detach       00000001800197d8 f   libucrt:initialization.obj
 0001:000187e8       __acrt_uninitialize        00000001800197e8 f   libucrt:initialization.obj
 0001:000187fc       __acrt_uninitialize_critical 00000001800197fc f   libucrt:initialization.obj
 0001:0001880c       _initterm                  000000018001980c f   libucrt:initterm.obj
 0001:00018884       _initterm_e                0000000180019884 f   libucrt:initterm.obj
 0001:000188d0       __acrt_initialize_new_handler 00000001800198d0 f   libucrt:new_handler.obj
 0001:000188d8       _callnewh                  00000001800198d8 f   libucrt:new_handler.obj
 0001:00018918       _query_new_handler         0000000180019918 f   libucrt:new_handler.obj
 0001:0001894c       terminate                  000000018001994c f   libucrt:terminate.obj
 0001:00018974       abort                      0000000180019974 f   libucrt:abort.obj
 0001:000189cc       strcpy_s                   00000001800199cc f   libucrt:strcpy_s.obj
 0001:00018a2c       wcsncmp                    0000000180019a2c f   libucrt:wcsncmp.obj
 0001:00018a58       ??$is_overflow_condition@K@__crt_strtox@@YA_NIK@Z 0000000180019a58 f i libucrt:atox.obj
 0001:00018a84       ??$parse_integer@KV?$c_string_character_source@_W@__crt_strtox@@@__crt_strtox@@YAKQEAU__crt_locale_pointers@@V?$c_string_character_source@_W@0@H_N@Z 0000000180019a84 f i libucrt:atox.obj
 0001:00019170       strncmp                    000000018001a170 f   libucrt:strncmp.obj
 0001:000191f0       _free_base                 000000018001a1f0 f   libucrt:free_base.obj
 0001:00019230       ??$?RV<lambda_46352004c1216016012b18bd6f87e700>@@AEAV<lambda_3bd07e1a1191394380780325891bf33f>@@V<lambda_334532d3f185bcaa59b5be82d7d22bff>@@@?$__crt_seh_guarded_call@X@@QEAAX$$QEAV<lambda_46352004c1216016012b18bd6f87e700>@@AEAV<lambda_3bd07e1a1191394380780325891bf33f>@@$$QEAV<lambda_334532d3f185bcaa59b5be82d7d22bff>@@@Z 000000018001a230 f i libucrt:per_thread_data.obj
 0001:00019290       ??$?RV<lambda_5e887d1dcbef67a5eb4283622ba103bf>@@AEAV<lambda_4466841279450cc726390878d4a41900>@@V<lambda_341c25c0346d94847f1f3c463c57e077>@@@?$__crt_seh_guarded_call@X@@QEAAX$$QEAV<lambda_5e887d1dcbef67a5eb4283622ba103bf>@@AEAV<lambda_4466841279450cc726390878d4a41900>@@$$QEAV<lambda_341c25c0346d94847f1f3c463c57e077>@@@Z 000000018001a290 f i libucrt:per_thread_data.obj
 0001:000192d8       ??$?RV<lambda_72d1df2b273a38828b1ce30cbf4cdab5>@@AEAV<lambda_876a65b173b8412d3a47c70a915b0cf4>@@V<lambda_41932305e351933ebe8f8be3ed8bb5dc>@@@?$__crt_seh_guarded_call@X@@QEAAX$$QEAV<lambda_72d1df2b273a38828b1ce30cbf4cdab5>@@AEAV<lambda_876a65b173b8412d3a47c70a915b0cf4>@@$$QEAV<lambda_41932305e351933ebe8f8be3ed8bb5dc>@@@Z 000000018001a2d8 f i libucrt:per_thread_data.obj
 0001:00019318       ??$?RV<lambda_fb3a7dec4e47f37f22dae91bb15c9095>@@AEAV<lambda_698284760c8add0bfb0756c19673e34b>@@V<lambda_dfb8eca1e75fef3034a8fb18dd509707>@@@?$__crt_seh_guarded_call@X@@QEAAX$$QEAV<lambda_fb3a7dec4e47f37f22dae91bb15c9095>@@AEAV<lambda_698284760c8add0bfb0756c19673e34b>@@$$QEAV<lambda_dfb8eca1e75fef3034a8fb18dd509707>@@@Z 000000018001a318 f i libucrt:per_thread_data.obj
 0001:000195a8       __acrt_freeptd             000000018001a5a8 f   libucrt:per_thread_data.obj
 0001:000195ec       __acrt_getptd              000000018001a5ec f   libucrt:per_thread_data.obj
 0001:00019680       __acrt_getptd_noexit       000000018001a680 f   libucrt:per_thread_data.obj
 0001:00019720       __acrt_initialize_ptd      000000018001a720 f   libucrt:per_thread_data.obj
 0001:0001975c       __acrt_uninitialize_ptd    000000018001a75c f   libucrt:per_thread_data.obj
 0001:00019780       _calloc_base               000000018001a780 f   libucrt:calloc_base.obj
 0001:000197f8       _malloc_base               000000018001a7f8 f   libucrt:malloc_base.obj
 0001:00019858       _msize                     000000018001a858 f   libucrt:msize.obj
 0001:00019894       _realloc_base              000000018001a894 f   libucrt:realloc_base.obj
 0001:00019ab8       __acrt_FlsAlloc            000000018001aab8 f   libucrt:winapi_thunks.obj
 0001:00019b10       __acrt_FlsFree             000000018001ab10 f   libucrt:winapi_thunks.obj
 0001:00019b68       __acrt_FlsGetValue         000000018001ab68 f   libucrt:winapi_thunks.obj
 0001:00019bc0       __acrt_FlsSetValue         000000018001abc0 f   libucrt:winapi_thunks.obj
 0001:00019c28       __acrt_InitializeCriticalSectionEx 000000018001ac28 f   libucrt:winapi_thunks.obj
 0001:00019ca0       __acrt_LCMapStringEx       000000018001aca0 f   libucrt:winapi_thunks.obj
 0001:00019d90       __acrt_LocaleNameToLCID    000000018001ad90 f   libucrt:winapi_thunks.obj
 0001:00019df8       __acrt_SetThreadStackGuarantee 000000018001adf8 f   libucrt:winapi_thunks.obj
 0001:00019e48       __acrt_initialize_winapi_thunks 000000018001ae48 f   libucrt:winapi_thunks.obj
 0001:00019e80       __acrt_is_packaged_app     000000018001ae80 f   libucrt:winapi_thunks.obj
 0001:00019f08       __acrt_uninitialize_winapi_thunks 000000018001af08 f   libucrt:winapi_thunks.obj
 0001:00019f4c       isdigit                    000000018001af4c f i libucrt:_ctype.obj
 0001:0001a010       _tolower_l                 000000018001b010 f   libucrt:tolower_toupper.obj
 0001:0001a150       tolower                    000000018001b150 f   libucrt:tolower_toupper.obj
 0001:0001a17c       ??$make_c_string_character_source@_WPEAPEA_W@__crt_strtox@@YA?AV?$c_string_character_source@_W@0@QEB_WQEAPEA_W@Z 000000018001b17c f i libucrt:strtox.obj
 0001:0001a190       wcstol                     000000018001b190 f   libucrt:strtox.obj
 0001:0001a1c0       _mbtowc_l                  000000018001b1c0 f   libucrt:mbtowc.obj
 0001:0001a308       mbtowc                     000000018001b308 f   libucrt:mbtowc.obj
 0001:0001a310       wcsnlen                    000000018001b310 f   libucrt:strnlen.obj
 0001:0001a500       __acrt_update_locale_info  000000018001b500 f   libucrt:locale_update.obj
 0001:0001a534       __acrt_update_multibyte_info 000000018001b534 f   libucrt:locale_update.obj
 0001:0001a568       ?__acrt_fp_classify@@YA?AW4__acrt_fp_class@@AEBN@Z 000000018001b568 f i libucrt:cvt.obj
 0001:0001afa0       __acrt_fp_format           000000018001bfa0 f   libucrt:cvt.obj
 0001:0001b1e4       _fileno                    000000018001c1e4 f   libucrt:fileno.obj
 0001:0001b20c       __acrt_initialize_stdio    000000018001c20c f   libucrt:_file.obj
 0001:0001b32c       __acrt_uninitialize_stdio  000000018001c32c f   libucrt:_file.obj
 0001:0001b388       _lock_file                 000000018001c388 f   libucrt:_file.obj
 0001:0001b394       _unlock_file               000000018001c394 f   libucrt:_file.obj
 0001:0001b3a0       _get_printf_count_output   000000018001c3a0 f   libucrt:printf_count_output.obj
 0001:0001b3b8       __acrt_set_locale_changed  000000018001c3b8 f   libucrt:wsetlocale.obj
 0001:0001b3c4       __acrt_uninitialize_locale 000000018001c3c4 f   libucrt:wsetlocale.obj
 0001:0001b5f4       __acrt_initialize_lowio    000000018001c5f4 f   libucrt:ioinit.obj
 0001:0001b630       __acrt_uninitialize_lowio  000000018001c630 f   libucrt:ioinit.obj
 0001:0001b670       __acrt_initialize_locks    000000018001c670 f   libucrt:locks.obj
 0001:0001b6b8       __acrt_lock                000000018001c6b8 f   libucrt:locks.obj
 0001:0001b6d4       __acrt_uninitialize_locks  000000018001c6d4 f   libucrt:locks.obj
 0001:0001b70c       __acrt_unlock              000000018001c70c f   libucrt:locks.obj
 0001:0001bc04       ?expand_if_necessary@?$argument_list@D@?A0xca0879c4@@AEAAHXZ 000000018001cc04 f i libucrt:argv_wildcards.obj
 0001:0001bccc       __acrt_expand_narrow_argv_wildcards 000000018001cccc f   libucrt:argv_wildcards.obj
 0001:0001bcd4       ??$?RV<lambda_99476a1ad63dd22509b5d3e65b0ffc95>@@AEAV<lambda_ad1ced32f4ac17aa236e5ef05d6b3b7c>@@V<lambda_f7424dd8d45958661754dc4f2697e9c3>@@@?$__crt_seh_guarded_call@X@@QEAAX$$QEAV<lambda_99476a1ad63dd22509b5d3e65b0ffc95>@@AEAV<lambda_ad1ced32f4ac17aa236e5ef05d6b3b7c>@@$$QEAV<lambda_f7424dd8d45958661754dc4f2697e9c3>@@@Z 000000018001ccd4 f i libucrt:mbctype.obj
 0001:0001c3d0       __acrt_initialize_multibyte 000000018001d3d0 f   libucrt:mbctype.obj
 0001:0001c3f8       __acrt_update_thread_multibyte_data 000000018001d3f8 f   libucrt:mbctype.obj
 0001:0001c4b8       _setmbcp_nolock            000000018001d4b8 f   libucrt:mbctype.obj
 0001:0001c7d8       _ismbblead                 000000018001d7d8 f   libucrt:ismbbyte.obj
 0001:0001c7ec       __acrt_initialize_command_line 000000018001d7ec f   libucrt:argv_data.obj
 0001:0001c814       __dcrt_get_narrow_environment_from_os 000000018001d814 f   libucrt:get_environment_from_os.obj
 0001:0001c918       __acrt_initialize_heap     000000018001d918 f   libucrt:heap_handle.obj
 0001:0001c934       __acrt_uninitialize_heap   000000018001d934 f   libucrt:heap_handle.obj
 0001:0001c940       __acrt_execute_initializers 000000018001d940 f   libucrt:shared_initialization.obj
 0001:0001c9d4       __acrt_execute_uninitializers 000000018001d9d4 f   libucrt:shared_initialization.obj
 0001:0001ca24       ??$?RV<lambda_c36588078e9f5dfd39652860aa6b3aaf>@@AEAV<lambda_ec61778202f4f5fc7e7711acc23c3bca>@@V<lambda_dc9d2797ccde5d239b4a0efae8ebd7db>@@@?$__crt_seh_guarded_call@P6AXH@Z@@QEAAP6AXH@Z$$QEAV<lambda_c36588078e9f5dfd39652860aa6b3aaf>@@AEAV<lambda_ec61778202f4f5fc7e7711acc23c3bca>@@$$QEAV<lambda_dc9d2797ccde5d239b4a0efae8ebd7db>@@@Z 000000018001da24 f i libucrt:signal.obj
 0001:0001ca6c       __acrt_get_sigabrt_handler 000000018001da6c f   libucrt:signal.obj
 0001:0001ca9c       __acrt_initialize_signal_handlers 000000018001da9c f   libucrt:signal.obj
 0001:0001cabc       raise                      000000018001dabc f   libucrt:signal.obj
 0001:0001cd58       __acrt_has_user_matherr    000000018001dd58 f   libucrt:matherr.obj
 0001:0001cd78       __acrt_initialize_user_matherr 000000018001dd78 f   libucrt:matherr.obj
 0001:0001cd80       __acrt_invoke_user_matherr 000000018001dd80 f   libucrt:matherr.obj
 0001:0001cdc8       __pctype_func              000000018001ddc8 f   libucrt:ctype.obj
 0001:0001cdf8       iswctype                   000000018001ddf8 f   libucrt:iswctype.obj
 0001:0001ce68       _isctype_l                 000000018001de68 f   libucrt:isctype.obj
 0001:0001cf78       __acrt_add_locale_ref      000000018001df78 f   libucrt:locale_refcounting.obj
 0001:0001d004       __acrt_free_locale         000000018001e004 f   libucrt:locale_refcounting.obj
 0001:0001d17c       __acrt_locale_add_lc_time_reference 000000018001e17c f   libucrt:locale_refcounting.obj
 0001:0001d1a4       __acrt_locale_free_lc_time_if_unreferenced 000000018001e1a4 f   libucrt:locale_refcounting.obj
 0001:0001d1dc       __acrt_locale_release_lc_time_reference 000000018001e1dc f   libucrt:locale_refcounting.obj
 0001:0001d204       __acrt_release_locale_ref  000000018001e204 f   libucrt:locale_refcounting.obj
 0001:0001d2ac       __acrt_update_thread_locale_data 000000018001e2ac f   libucrt:locale_refcounting.obj
 0001:0001d31c       _updatetlocinfoEx_nolock   000000018001e31c f   libucrt:locale_refcounting.obj
 0001:0001d384       _query_new_mode            000000018001e384 f   libucrt:new_mode.obj
 0001:0001d454       __acrt_DownlevelLocaleNameToLCID 000000018001e454 f   libucrt:lcidtoname_downlevel.obj
 0001:0001d488       _isleadbyte_l              000000018001e488 f i libucrt:_wctype.obj
 0001:0001d824       __acrt_LCMapStringA        000000018001e824 f   libucrt:lcmapstringa.obj
 0001:0001d8bc       __acrt_fp_strflt_to_string 000000018001e8bc f   libucrt:_fptostr.obj
 0001:0001d980       ?divide@__crt_strtox@@YA_KAEAUbig_integer@1@AEBU21@@Z 000000018001e980 f i libucrt:cfout.obj
 0001:0001de50       __acrt_fltout              000000018001ee50 f   libucrt:cfout.obj
 0001:0001f244       _fcloseall                 0000000180020244 f   libucrt:closeall.obj
 0001:0001f2f8       __acrt_stdio_flush_nolock  00000001800202f8 f   libucrt:fflush.obj
 0001:0001f370       _fflush_nolock             0000000180020370 f   libucrt:fflush.obj
 0001:0001f3bc       _flushall                  00000001800203bc f   libucrt:fflush.obj
 0001:0001f4ac       __acrt_stdio_free_buffer_nolock 00000001800204ac f   libucrt:_freebuf.obj
 0001:0001f4ec       _isatty                    00000001800204ec f   libucrt:isatty.obj
 0001:0001f54c       __acrt_locale_free_monetary 000000018002054c f   libucrt:initmon.obj
 0001:0001f658       __acrt_locale_free_numeric 0000000180020658 f   libucrt:initnum.obj
 0001:0001f71c       __acrt_locale_free_time    000000018002071c f   libucrt:inittime.obj
 0001:0001f824       __acrt_GetStringTypeA      0000000180020824 f   libucrt:getstringtypea.obj
 0001:0001f9d8       __acrt_lowio_create_handle_array 00000001800209d8 f   libucrt:osfinfo.obj
 0001:0001fa70       __acrt_lowio_destroy_handle_array 0000000180020a70 f   libucrt:osfinfo.obj
 0001:0001fac0       __acrt_lowio_ensure_fh_exists 0000000180020ac0 f   libucrt:osfinfo.obj
 0001:0001fb78       __acrt_lowio_lock_fh       0000000180020b78 f   libucrt:osfinfo.obj
 0001:0001fb9c       __acrt_lowio_unlock_fh     0000000180020b9c f   libucrt:osfinfo.obj
 0001:0001fbc0       _free_osfhnd               0000000180020bc0 f   libucrt:osfinfo.obj
 0001:0001fc7c       _get_osfhandle             0000000180020c7c f   libucrt:osfinfo.obj
 0001:0001fdd0       qsort                      0000000180020dd0 f   libucrt:qsort.obj
 0001:00020104       strncpy_s                  0000000180021104 f   libucrt:strncpy_s.obj
 0001:000201d8       strpbrk                    00000001800211d8 f   libucrt:strpbrk.obj
 0001:00020278       _mbsdec                    0000000180021278 f   libucrt:mbsdec.obj
 0001:00020280       _mbsdec_l                  0000000180021280 f   libucrt:mbsdec.obj
 0001:00020330       __strncnt                  0000000180021330 f   libucrt:strncnt.obj
 0001:00020348       fegetenv                   0000000180021348 f   libucrt:fegetenv.obj
 0001:00020368       fesetenv                   0000000180021368 f   libucrt:fesetenv.obj
 0001:000203b4       feholdexcept               00000001800213b4 f   libucrt:feholdexcept.obj
 0001:00020404       ceil                       0000000180021404 f   libucrt:ceil.obj
 0001:000204d0       log10                      00000001800214d0 f   libucrt:log10.obj
 0001:0002101c       _write                     000000018002201c f   libucrt:write.obj
 0001:00021108       _write_nolock              0000000180022108 f   libucrt:write.obj
 0001:00021488       _lseeki64_nolock           0000000180022488 f   libucrt:lseek.obj
 0001:00021490       _fclose_nolock             0000000180022490 f   libucrt:fclose.obj
 0001:00021514       fclose                     0000000180022514 f   libucrt:fclose.obj
 0001:00021580       ??$?RV<lambda_b521505b218e5242e90febf6bfebc422>@@AEAV<lambda_6978c1fb23f02e42e1d9e99668cc68aa>@@V<lambda_314360699dd331753a4119843814e9a7>@@@?$__crt_seh_guarded_call@H@@QEAAH$$QEAV<lambda_b521505b218e5242e90febf6bfebc422>@@AEAV<lambda_6978c1fb23f02e42e1d9e99668cc68aa>@@$$QEAV<lambda_314360699dd331753a4119843814e9a7>@@@Z 0000000180022580 f i libucrt:commit.obj
 0001:0002160c       _commit                    000000018002260c f   libucrt:commit.obj
 0001:000216a0       _query_app_type            00000001800226a0 f   libucrt:report_runtime_error.obj
 0001:000216a8       _getfpcontrolword          00000001800226a8 f   libucrt:_fenvutils.obj
 0001:000216c0       _getfpstatusword           00000001800226c0 f   libucrt:_fenvutils.obj
 0001:000216d4       _setfpcontrolword          00000001800226d4 f   libucrt:_fenvutils.obj
 0001:000216e0       _setfpstatusword           00000001800226e0 f   libucrt:_fenvutils.obj
 0001:00021730       _clearfp                   0000000180022730 f   libucrt:ieee.obj
 0001:00021784       _controlfp                 0000000180022784 f   libucrt:ieee.obj
 0001:00021790       _statusfp                  0000000180022790 f   libucrt:ieee.obj
 0001:00021b94       _handle_error              0000000180022b94 f   libucrt:libm_error.obj
 0001:00021cbc       _handle_nan                0000000180022cbc f   libucrt:libm_error.obj
 0001:00021ce0       __acrt_initialize_fma3     0000000180022ce0 f   libucrt:fma3_available.obj
 0001:00021d50       _log10_special             0000000180022d50 f   libucrt:log_special.obj
 0001:00021e08       _putwch_nolock             0000000180022e08 f   libucrt:putwch.obj
 0001:00021e64       ??$?RV<lambda_bfedae4ebbf01fab1bb6dcc6a9e276e0>@@AEAV<lambda_2fe9b910cf3cbf4a0ab98a02ba45b3ec>@@V<lambda_237c231691f317818eb88cc1d5d642d6>@@@?$__crt_seh_guarded_call@H@@QEAAH$$QEAV<lambda_bfedae4ebbf01fab1bb6dcc6a9e276e0>@@AEAV<lambda_2fe9b910cf3cbf4a0ab98a02ba45b3ec>@@$$QEAV<lambda_237c231691f317818eb88cc1d5d642d6>@@@Z 0000000180022e64 f i libucrt:close.obj
 0001:00021ed8       _close                     0000000180022ed8 f   libucrt:close.obj
 0001:00021f7c       _close_nolock              0000000180022f7c f   libucrt:close.obj
 0001:00022038       ?__acrt_stdio_free_stream@@YAXV__crt_stdio_stream@@@Z 0000000180023038 f   libucrt:stream.obj
 0001:00022090       _get_fpsr                  0000000180023090 f   libucrt:fpsr.obj
 0001:000220a0       _set_fpsr                  00000001800230a0 f   libucrt:fpsr.obj
 0001:000220aa       _fclrf                     00000001800230aa f   libucrt:fpsr.obj
 0001:000220be       _frnd                      00000001800230be f   libucrt:fpsr.obj
 0001:000220e0       _raise_exc                 00000001800230e0 f   libucrt:fpexcept.obj
 0001:00022108       _raise_exc_ex              0000000180023108 f   libucrt:fpexcept.obj
 0001:00022410       _set_errno_from_matherr    0000000180023410 f   libucrt:fpexcept.obj
 0001:00022440       _clrfp                     0000000180023440 f   libucrt:fpctrl.obj
 0001:00022460       _ctrlfp                    0000000180023460 f   libucrt:fpctrl.obj
 0001:000224dc       _set_statfp                00000001800234dc f   libucrt:fpctrl.obj
 0001:000224fc       _statfp                    00000001800234fc f   libucrt:fpctrl.obj
 0001:00022510       __dcrt_lowio_initialize_console_output 0000000180023510 f   libucrt:initcon.obj
 0001:0002254c       __dcrt_terminate_console_output 000000018002354c f   libucrt:initcon.obj
 0001:0002256c       IsProcessorFeaturePresent  000000018002356c f   kernel32:KERNEL32.dll
 0001:00022580       _FindPESection             0000000180023580 f   LIBCMT:pesect.obj
 0001:000225d0       _IsNonwritableInCurrentImage 00000001800235d0 f   LIBCMT:pesect.obj
 0001:00022620       _ValidateImageBase         0000000180023620 f   LIBCMT:pesect.obj
 0001:00022650       strrchr                    0000000180023650 f   libvcruntime:strrchr.obj
 0001:000227b0       _guard_dispatch_icall_nop  00000001800237b0 f   LIBCMT:guard_dispatch.obj
 0002:00000000       __imp_RegQueryValueExW     0000000180024000     advapi32:ADVAPI32.dll
 0002:00000008       __imp_RegSetValueExW       0000000180024008     advapi32:ADVAPI32.dll
 0002:00000010       __imp_RegQueryInfoKeyW     0000000180024010     advapi32:ADVAPI32.dll
 0002:00000018       __imp_RegOpenKeyExW        0000000180024018     advapi32:ADVAPI32.dll
 0002:00000020       __imp_RegEnumKeyExW        0000000180024020     advapi32:ADVAPI32.dll
 0002:00000028       __imp_RegDeleteValueW      0000000180024028     advapi32:ADVAPI32.dll
 0002:00000030       __imp_RegDeleteKeyW        0000000180024030     advapi32:ADVAPI32.dll
 0002:00000038       __imp_RegCreateKeyExW      0000000180024038     advapi32:ADVAPI32.dll
 0002:00000040       __imp_RegCloseKey          0000000180024040     advapi32:ADVAPI32.dll
 0002:00000048       \177ADVAPI32_NULL_THUNK_DATA 0000000180024048     advapi32:ADVAPI32.dll
 0002:00000050       __imp_GetObjectW           0000000180024050     gdi32:GDI32.dll
 0002:00000058       __imp_SelectObject         0000000180024058     gdi32:GDI32.dll
 0002:00000060       __imp_DeleteObject         0000000180024060     gdi32:GDI32.dll
 0002:00000068       __imp_CreateCompatibleDC   0000000180024068     gdi32:GDI32.dll
 0002:00000070       __imp_BitBlt               0000000180024070     gdi32:GDI32.dll
 0002:00000078       __imp_SetWindowOrgEx       0000000180024078     gdi32:GDI32.dll
 0002:00000080       __imp_SetWindowExtEx       0000000180024080     gdi32:GDI32.dll
 0002:00000088       __imp_SetViewportOrgEx     0000000180024088     gdi32:GDI32.dll
 0002:00000090       __imp_LPtoDP               0000000180024090     gdi32:GDI32.dll
 0002:00000098       __imp_SetMapMode           0000000180024098     gdi32:GDI32.dll
 0002:000000a0       __imp_SaveDC               00000001800240a0     gdi32:GDI32.dll
 0002:000000a8       __imp_RestoreDC            00000001800240a8     gdi32:GDI32.dll
 0002:000000b0       __imp_GetDeviceCaps        00000001800240b0     gdi32:GDI32.dll
 0002:000000b8       __imp_DeleteMetaFile       00000001800240b8     gdi32:GDI32.dll
 0002:000000c0       __imp_DeleteDC             00000001800240c0     gdi32:GDI32.dll
 0002:000000c8       __imp_CreateRectRgnIndirect 00000001800240c8     gdi32:GDI32.dll
 0002:000000d0       __imp_CreateMetaFileW      00000001800240d0     gdi32:GDI32.dll
 0002:000000d8       __imp_CreateDCW            00000001800240d8     gdi32:GDI32.dll
 0002:000000e0       __imp_CloseMetaFile        00000001800240e0     gdi32:GDI32.dll
 0002:000000e8       \177GDI32_NULL_THUNK_DATA  00000001800240e8     gdi32:GDI32.dll
 0002:000000f0       __imp_CloseHandle          00000001800240f0     kernel32:KERNEL32.dll
 0002:000000f8       __imp_SetEvent             00000001800240f8     kernel32:KERNEL32.dll
 0002:00000100       __imp_CreateMutexW         0000000180024100     kernel32:KERNEL32.dll
 0002:00000108       __imp_CreateEventW         0000000180024108     kernel32:KERNEL32.dll
 0002:00000110       __imp_GetCurrentProcessId  0000000180024110     kernel32:KERNEL32.dll
 0002:00000118       __imp_CreateFileW          0000000180024118     kernel32:KERNEL32.dll
 0002:00000120       __imp_WriteConsoleW        0000000180024120     kernel32:KERNEL32.dll
 0002:00000128       __imp_FlushFileBuffers     0000000180024128     kernel32:KERNEL32.dll
 0002:00000130       __imp_SetFilePointerEx     0000000180024130     kernel32:KERNEL32.dll
 0002:00000138       __imp_GetConsoleMode       0000000180024138     kernel32:KERNEL32.dll
 0002:00000140       __imp_GetConsoleCP         0000000180024140     kernel32:KERNEL32.dll
 0002:00000148       __imp_WriteFile            0000000180024148     kernel32:KERNEL32.dll
 0002:00000150       __imp_SetStdHandle         0000000180024150     kernel32:KERNEL32.dll
 0002:00000158       __imp_GetStringTypeW       0000000180024158     kernel32:KERNEL32.dll
 0002:00000160       __imp_FreeEnvironmentStringsW 0000000180024160     kernel32:KERNEL32.dll
 0002:00000168       __imp_FindResourceW        0000000180024168     kernel32:KERNEL32.dll
 0002:00000170       __imp_GetCommandLineW      0000000180024170     kernel32:KERNEL32.dll
 0002:00000178       __imp_GetCommandLineA      0000000180024178     kernel32:KERNEL32.dll
 0002:00000180       __imp_GetCPInfo            0000000180024180     kernel32:KERNEL32.dll
 0002:00000188       __imp_GetOEMCP             0000000180024188     kernel32:KERNEL32.dll
 0002:00000190       __imp_IsValidCodePage      0000000180024190     kernel32:KERNEL32.dll
 0002:00000198       __imp_FindNextFileA        0000000180024198     kernel32:KERNEL32.dll
 0002:000001a0       __imp_FindFirstFileExA     00000001800241a0     kernel32:KERNEL32.dll
 0002:000001a8       __imp_FindClose            00000001800241a8     kernel32:KERNEL32.dll
 0002:000001b0       __imp_GetFileType          00000001800241b0     kernel32:KERNEL32.dll
 0002:000001b8       __imp_GetStdHandle         00000001800241b8     kernel32:KERNEL32.dll
 0002:000001c0       __imp_GetACP               00000001800241c0     kernel32:KERNEL32.dll
 0002:000001c8       __imp_LCMapStringW         00000001800241c8     kernel32:KERNEL32.dll
 0002:000001d0       __imp_lstrcmpiW            00000001800241d0     kernel32:KERNEL32.dll
 0002:000001d8       __imp_MulDiv               00000001800241d8     kernel32:KERNEL32.dll
 0002:000001e0       __imp_GlobalUnlock         00000001800241e0     kernel32:KERNEL32.dll
 0002:000001e8       __imp_GlobalLock           00000001800241e8     kernel32:KERNEL32.dll
 0002:000001f0       __imp_GlobalAlloc          00000001800241f0     kernel32:KERNEL32.dll
 0002:000001f8       __imp_SizeofResource       00000001800241f8     kernel32:KERNEL32.dll
 0002:00000200       __imp_LoadResource         0000000180024200     kernel32:KERNEL32.dll
 0002:00000208       __imp_LoadLibraryExW       0000000180024208     kernel32:KERNEL32.dll
 0002:00000210       __imp_GetProcAddress       0000000180024210     kernel32:KERNEL32.dll
 0002:00000218       __imp_GetModuleHandleW     0000000180024218     kernel32:KERNEL32.dll
 0002:00000220       __imp_GetModuleFileNameW   0000000180024220     kernel32:KERNEL32.dll
 0002:00000228       __imp_FreeLibrary          0000000180024228     kernel32:KERNEL32.dll
 0002:00000230       __imp_DisableThreadLibraryCalls 0000000180024230     kernel32:KERNEL32.dll
 0002:00000238       __imp_GetCurrentThreadId   0000000180024238     kernel32:KERNEL32.dll
 0002:00000240       __imp_Sleep                0000000180024240     kernel32:KERNEL32.dll
 0002:00000248       __imp_WaitForSingleObject  0000000180024248     kernel32:KERNEL32.dll
 0002:00000250       __imp_ReleaseMutex         0000000180024250     kernel32:KERNEL32.dll
 0002:00000258       __imp_ResetEvent           0000000180024258     kernel32:KERNEL32.dll
 0002:00000260       __imp_EnterCriticalSection 0000000180024260     kernel32:KERNEL32.dll
 0002:00000268       __imp_LeaveCriticalSection 0000000180024268     kernel32:KERNEL32.dll
 0002:00000270       __imp_SetLastError         0000000180024270     kernel32:KERNEL32.dll
 0002:00000278       __imp_EncodePointer        0000000180024278     kernel32:KERNEL32.dll
 0002:00000280       __imp_DeleteCriticalSection 0000000180024280     kernel32:KERNEL32.dll
 0002:00000288       __imp_InitializeCriticalSectionEx 0000000180024288     kernel32:KERNEL32.dll
 0002:00000290       __imp_GetLastError         0000000180024290     kernel32:KERNEL32.dll
 0002:00000298       __imp_RaiseException       0000000180024298     kernel32:KERNEL32.dll
 0002:000002a0       __imp_DecodePointer        00000001800242a0     kernel32:KERNEL32.dll
 0002:000002a8       __imp_WideCharToMultiByte  00000001800242a8     kernel32:KERNEL32.dll
 0002:000002b0       __imp_GetEnvironmentStringsW 00000001800242b0     kernel32:KERNEL32.dll
 0002:000002b8       __imp_MultiByteToWideChar  00000001800242b8     kernel32:KERNEL32.dll
 0002:000002c0       __imp_HeapReAlloc          00000001800242c0     kernel32:KERNEL32.dll
 0002:000002c8       __imp_HeapSize             00000001800242c8     kernel32:KERNEL32.dll
 0002:000002d0       __imp_GetModuleFileNameA   00000001800242d0     kernel32:KERNEL32.dll
 0002:000002d8       __imp_GetModuleHandleExW   00000001800242d8     kernel32:KERNEL32.dll
 0002:000002e0       __imp_ExitProcess          00000001800242e0     kernel32:KERNEL32.dll
 0002:000002e8       __imp_VirtualQuery         00000001800242e8     kernel32:KERNEL32.dll
 0002:000002f0       __imp_VirtualProtect       00000001800242f0     kernel32:KERNEL32.dll
 0002:000002f8       __imp_GetSystemInfo        00000001800242f8     kernel32:KERNEL32.dll
 0002:00000300       __imp_TlsFree              0000000180024300     kernel32:KERNEL32.dll
 0002:00000308       __imp_TlsSetValue          0000000180024308     kernel32:KERNEL32.dll
 0002:00000310       __imp_TlsGetValue          0000000180024310     kernel32:KERNEL32.dll
 0002:00000318       __imp_TlsAlloc             0000000180024318     kernel32:KERNEL32.dll
 0002:00000320       __imp_RtlPcToFileHeader    0000000180024320     kernel32:KERNEL32.dll
 0002:00000328       __imp_InterlockedFlushSList 0000000180024328     kernel32:KERNEL32.dll
 0002:00000330       __imp_RtlUnwindEx          0000000180024330     kernel32:KERNEL32.dll
 0002:00000338       __imp_LoadLibraryExA       0000000180024338     kernel32:KERNEL32.dll
 0002:00000340       __imp_VirtualFree          0000000180024340     kernel32:KERNEL32.dll
 0002:00000348       __imp_VirtualAlloc         0000000180024348     kernel32:KERNEL32.dll
 0002:00000350       __imp_FlushInstructionCache 0000000180024350     kernel32:KERNEL32.dll
 0002:00000358       __imp_InterlockedPushEntrySList 0000000180024358     kernel32:KERNEL32.dll
 0002:00000360       __imp_InterlockedPopEntrySList 0000000180024360     kernel32:KERNEL32.dll
 0002:00000368       __imp_GetProcessHeap       0000000180024368     kernel32:KERNEL32.dll
 0002:00000370       __imp_HeapFree             0000000180024370     kernel32:KERNEL32.dll
 0002:00000378       __imp_HeapAlloc            0000000180024378     kernel32:KERNEL32.dll
 0002:00000380       __imp_OutputDebugStringW   0000000180024380     kernel32:KERNEL32.dll
 0002:00000388       __imp_InitializeSListHead  0000000180024388     kernel32:KERNEL32.dll
 0002:00000390       __imp_GetSystemTimeAsFileTime 0000000180024390     kernel32:KERNEL32.dll
 0002:00000398       __imp_QueryPerformanceCounter 0000000180024398     kernel32:KERNEL32.dll
 0002:000003a0       __imp_GetStartupInfoW      00000001800243a0     kernel32:KERNEL32.dll
 0002:000003a8       __imp_IsDebuggerPresent    00000001800243a8     kernel32:KERNEL32.dll
 0002:000003b0       __imp_InitializeCriticalSectionAndSpinCount 00000001800243b0     kernel32:KERNEL32.dll
 0002:000003b8       __imp_WaitForSingleObjectEx 00000001800243b8     kernel32:KERNEL32.dll
 0002:000003c0       __imp_RtlCaptureContext    00000001800243c0     kernel32:KERNEL32.dll
 0002:000003c8       __imp_RtlLookupFunctionEntry 00000001800243c8     kernel32:KERNEL32.dll
 0002:000003d0       __imp_RtlVirtualUnwind     00000001800243d0     kernel32:KERNEL32.dll
 0002:000003d8       __imp_UnhandledExceptionFilter 00000001800243d8     kernel32:KERNEL32.dll
 0002:000003e0       __imp_SetUnhandledExceptionFilter 00000001800243e0     kernel32:KERNEL32.dll
 0002:000003e8       __imp_GetCurrentProcess    00000001800243e8     kernel32:KERNEL32.dll
 0002:000003f0       __imp_TerminateProcess     00000001800243f0     kernel32:KERNEL32.dll
 0002:000003f8       __imp_IsProcessorFeaturePresent 00000001800243f8     kernel32:KERNEL32.dll
 0002:00000400       \177KERNEL32_NULL_THUNK_DATA 0000000180024400     kernel32:KERNEL32.dll
 0002:00000408       __imp_OleCreatePropertyFrame 0000000180024408     oleaut32:OLEAUT32.dll
 0002:00000410       __imp_UnRegisterTypeLib    0000000180024410     oleaut32:OLEAUT32.dll
 0002:00000418       __imp_RegisterTypeLib      0000000180024418     oleaut32:OLEAUT32.dll
 0002:00000420       __imp_LoadRegTypeLib       0000000180024420     oleaut32:OLEAUT32.dll
 0002:00000428       __imp_LoadTypeLib          0000000180024428     oleaut32:OLEAUT32.dll
 0002:00000430       __imp_VarUI4FromStr        0000000180024430     oleaut32:OLEAUT32.dll
 0002:00000438       __imp_VariantInit          0000000180024438     oleaut32:OLEAUT32.dll
 0002:00000440       __imp_SysAllocStringByteLen 0000000180024440     oleaut32:OLEAUT32.dll
 0002:00000448       __imp_SysStringByteLen     0000000180024448     oleaut32:OLEAUT32.dll
 0002:00000450       __imp_VariantChangeType    0000000180024450     oleaut32:OLEAUT32.dll
 0002:00000458       __imp_VariantClear         0000000180024458     oleaut32:OLEAUT32.dll
 0002:00000460       __imp_SysStringLen         0000000180024460     oleaut32:OLEAUT32.dll
 0002:00000468       __imp_SysFreeString        0000000180024468     oleaut32:OLEAUT32.dll
 0002:00000470       __imp_SysAllocStringLen    0000000180024470     oleaut32:OLEAUT32.dll
 0002:00000478       __imp_SysAllocString       0000000180024478     oleaut32:OLEAUT32.dll
 0002:00000480       \177OLEAUT32_NULL_THUNK_DATA 0000000180024480     oleaut32:OLEAUT32.dll
 0002:00000488       __imp_UnregisterClassW     0000000180024488     user32:USER32.dll
 0002:00000490       __imp_PostMessageW         0000000180024490     user32:USER32.dll
 0002:00000498       __imp_DefWindowProcW       0000000180024498     user32:USER32.dll
 0002:000004a0       __imp_CallWindowProcW      00000001800244a0     user32:USER32.dll
 0002:000004a8       __imp_RegisterClassExW     00000001800244a8     user32:USER32.dll
 0002:000004b0       __imp_GetClassInfoExW      00000001800244b0     user32:USER32.dll
 0002:000004b8       __imp_CreateWindowExW      00000001800244b8     user32:USER32.dll
 0002:000004c0       __imp_IsWindow             00000001800244c0     user32:USER32.dll
 0002:000004c8       __imp_IsChild              00000001800244c8     user32:USER32.dll
 0002:000004d0       __imp_DestroyWindow        00000001800244d0     user32:USER32.dll
 0002:000004d8       __imp_ShowWindow           00000001800244d8     user32:USER32.dll
 0002:000004e0       __imp_SetWindowPos         00000001800244e0     user32:USER32.dll
 0002:000004e8       __imp_CharNextW            00000001800244e8     user32:USER32.dll
 0002:000004f0       __imp_SetFocus             00000001800244f0     user32:USER32.dll
 0002:000004f8       __imp_LoadBitmapW          00000001800244f8     user32:USER32.dll
 0002:00000500       __imp_RegisterClassW       0000000180024500     user32:USER32.dll
 0002:00000508       __imp_PeekMessageW         0000000180024508     user32:USER32.dll
 0002:00000510       __imp_LoadCursorW          0000000180024510     user32:USER32.dll
 0002:00000518       __imp_GetParent            0000000180024518     user32:USER32.dll
 0002:00000520       __imp_SetWindowLongPtrW    0000000180024520     user32:USER32.dll
 0002:00000528       __imp_GetWindowLongPtrW    0000000180024528     user32:USER32.dll
 0002:00000530       __imp_PtInRect             0000000180024530     user32:USER32.dll
 0002:00000538       __imp_EqualRect            0000000180024538     user32:USER32.dll
 0002:00000540       __imp_OffsetRect           0000000180024540     user32:USER32.dll
 0002:00000548       __imp_UnionRect            0000000180024548     user32:USER32.dll
 0002:00000550       __imp_IntersectRect        0000000180024550     user32:USER32.dll
 0002:00000558       __imp_GetClientRect        0000000180024558     user32:USER32.dll
 0002:00000560       __imp_InvalidateRect       0000000180024560     user32:USER32.dll
 0002:00000568       __imp_SetWindowRgn         0000000180024568     user32:USER32.dll
 0002:00000570       __imp_EndPaint             0000000180024570     user32:USER32.dll
 0002:00000578       __imp_BeginPaint           0000000180024578     user32:USER32.dll
 0002:00000580       __imp_ReleaseDC            0000000180024580     user32:USER32.dll
 0002:00000588       __imp_GetDC                0000000180024588     user32:USER32.dll
 0002:00000590       __imp_GetKeyState          0000000180024590     user32:USER32.dll
 0002:00000598       __imp_GetFocus             0000000180024598     user32:USER32.dll
 0002:000005a0       \177USER32_NULL_THUNK_DATA 00000001800245a0     user32:USER32.dll
 0002:000005a8       __imp_CoCreateInstance     00000001800245a8     ole32:ole32.dll
 0002:000005b0       __imp_StringFromGUID2      00000001800245b0     ole32:ole32.dll
 0002:000005b8       __imp_CoTaskMemAlloc       00000001800245b8     ole32:ole32.dll
 0002:000005c0       __imp_CoTaskMemRealloc     00000001800245c0     ole32:ole32.dll
 0002:000005c8       __imp_CreateDataAdviseHolder 00000001800245c8     ole32:ole32.dll
 0002:000005d0       __imp_ReadClassStm         00000001800245d0     ole32:ole32.dll
 0002:000005d8       __imp_WriteClassStm        00000001800245d8     ole32:ole32.dll
 0002:000005e0       __imp_OleSaveToStream      00000001800245e0     ole32:ole32.dll
 0002:000005e8       __imp_CreateOleAdviseHolder 00000001800245e8     ole32:ole32.dll
 0002:000005f0       __imp_OleRegGetUserType    00000001800245f0     ole32:ole32.dll
 0002:000005f8       __imp_OleRegGetMiscStatus  00000001800245f8     ole32:ole32.dll
 0002:00000600       __imp_OleRegEnumVerbs      0000000180024600     ole32:ole32.dll
 0002:00000608       __imp_CLSIDFromProgID      0000000180024608     ole32:ole32.dll
 0002:00000610       __imp_CoTaskMemFree        0000000180024610     ole32:ole32.dll
 0002:00000618       \177ole32_NULL_THUNK_DATA  0000000180024618     ole32:ole32.dll
 0002:00000620       __guard_check_icall_fptr   0000000180024620     LIBCMT:guard_support.obj
 0002:00000628       __guard_dispatch_icall_fptr 0000000180024628     LIBCMT:guard_support.obj
 0002:00000630       __xc_a                     0000000180024630     LIBCMT:initializers.obj
 0002:00000660       __xc_z                     0000000180024660     LIBCMT:initializers.obj
 0002:00000668       __xi_a                     0000000180024668     LIBCMT:initializers.obj
 0002:00000678       __acrt_stdio_initializer   0000000180024678     libucrt:stdio_initializer.obj
 0002:00000680       __acrt_multibyte_initializer 0000000180024680     libucrt:multibyte_initializer.obj
 0002:00000688       __acrt_tran_fma3_initializer 0000000180024688     libucrt:fma3_initializer.obj
 0002:00000690       __xi_z                     0000000180024690     LIBCMT:initializers.obj
 0002:00000698       __xl_a                     0000000180024698     LIBCMT:tlssup.obj
 0002:000006a0       __xl_z                     00000001800246a0     LIBCMT:tlssup.obj
 0002:000006a8       __xp_a                     00000001800246a8     LIBCMT:initializers.obj
 0002:000006b0       __acrt_locale_terminator   00000001800246b0     libucrt:locale_initializer.obj
 0002:000006b8       __dcrt_console_output_terminator 00000001800246b8     libucrt:console_output_initializer.obj
 0002:000006c0       __acrt_stdio_terminator    00000001800246c0     libucrt:stdio_initializer.obj
 0002:000006c8       __xp_z                     00000001800246c8     LIBCMT:initializers.obj
 0002:000006d0       __xt_a                     00000001800246d0     LIBCMT:initializers.obj
 0002:000006d8       __xt_z                     00000001800246d8     LIBCMT:initializers.obj
 0002:000006e0       ??_C@_13HADIAKP@?$AAS@     00000001800246e0     OposVariant.obj
 0002:000006e4       ??_C@_13LHMFKAAD@?$AAM@    00000001800246e4     OposVariant.obj
 0002:000006e8       ??_C@_13MKMNOPIJ@?$AAD@    00000001800246e8     OposVariant.obj
 0002:000006ec       ??_C@_13OPKGLAFF@?$AAB@    00000001800246ec     OposVariant.obj
 0002:000006f0       ??_C@_17LLMMEOJD@?$AAV?$AAa?$AAl@ 00000001800246f0     OposVariant.obj
 0002:000006f8       ??_C@_1BI@JFAIJMHL@?$AAF?$AAo?$AAr?$AAc?$AAe?$AAR?$AAe?$AAm?$AAo?$AAv?$AAe@ 00000001800246f8     OposVariant.obj
 0002:00000710       ??_C@_1BC@GCKHIPE@?$AAN?$AAo?$AAR?$AAe?$AAm?$AAo?$AAv?$AAe@ 0000000180024710     OposVariant.obj
 0002:00000728       ??_C@_1O@JDLOHAN@?$AAD?$AAe?$AAl?$AAe?$AAt?$AAe@ 0000000180024728     OposVariant.obj
 0002:00000738       ??_C@_11LOCGONAA@@         0000000180024738     OposVariant.obj
 0002:00000740       ??_C@_1O@GBFKGNEO@?$AAA?$AAT?$AAL?$AA?3?$AA?$CF?$AAp@ 0000000180024740     ElectronicValueRW.obj
 0002:00000750       ??_C@_1BA@PICGEGJB@?$AAD?$AAI?$AAS?$AAP?$AAL?$AAA?$AAY@ 0000000180024750     ElectronicValueRW.obj
 0002:00000760       ??_7?$CComObjectCached@VCComClassFactory@ATL@@@ATL@@6B@ 0000000180024760     ElectronicValueRW.obj
 0002:00000790       _GUID_9bfbbc02_eff1_101a_84ed_00aa00341d07 0000000180024790     ElectronicValueRW.obj
 0002:000007a0       ??_C@_1M@PPPPCDEP@?$AAA?$AAP?$AAP?$AAI?$AAD@ 00000001800247a0     ElectronicValueRW.obj
 0002:000007b0       ??_7?$CComContainedObject@VCOPOSElectronicValueRW@@@ATL@@6B?$IDispatchImpl@UIOPOSElectronicValueRW@@$1?IID_IOPOSElectronicValueRW@@3U_GUID@@B$1?LIBID_OposElectronicValueRW_CCO@@3U3@B$00$0A@VCComTypeInfoHolder@ATL@@@1@@ 00000001800247b0     ElectronicValueRW.obj
 0002:00000d68       ??_7?$CComContainedObject@VCOPOSElectronicValueRW@@@ATL@@6BCComControlBase@1@@ 0000000180024d68     ElectronicValueRW.obj
 0002:00000d90       ??_7?$CComContainedObject@VCOPOSElectronicValueRW@@@ATL@@6B?$CWindowImpl@VCOPOSElectronicValueRW@@VCWindow@ATL@@V?$CWinTraits@$0FGAAAAAA@$0A@@3@@1@@ 0000000180024d90     ElectronicValueRW.obj
 0002:00000db0       ??_7?$CComContainedObject@VCOPOSElectronicValueRW@@@ATL@@6B?$IPersistStreamInitImpl@VCOPOSElectronicValueRW@@@1@@ 0000000180024db0     ElectronicValueRW.obj
 0002:00000df8       ??_7?$CComContainedObject@VCOPOSElectronicValueRW@@@ATL@@6B?$IOleControlImpl@VCOPOSElectronicValueRW@@@1@@ 0000000180024df8     ElectronicValueRW.obj
 0002:00000e30       ??_7?$CComContainedObject@VCOPOSElectronicValueRW@@@ATL@@6B?$IOleObjectImpl@VCOPOSElectronicValueRW@@@1@@ 0000000180024e30     ElectronicValueRW.obj
 0002:00000ef0       ??_7?$CComContainedObject@VCOPOSElectronicValueRW@@@ATL@@6B?$IOleInPlaceActiveObjectImpl@VCOPOSElectronicValueRW@@@1@@ 0000000180024ef0     ElectronicValueRW.obj
 0002:00000f40       ??_7?$CComContainedObject@VCOPOSElectronicValueRW@@@ATL@@6B?$IViewObjectExImpl@VCOPOSElectronicValueRW@@@1@@ 0000000180024f40     ElectronicValueRW.obj
 0002:00000fb8       ??_7?$CComContainedObject@VCOPOSElectronicValueRW@@@ATL@@6B?$IOleInPlaceObjectWindowlessImpl@VCOPOSElectronicValueRW@@@1@@ 0000000180024fb8     ElectronicValueRW.obj
 0002:00001010       ??_7?$CComContainedObject@VCOPOSElectronicValueRW@@@ATL@@6B?$IConnectionPointContainerImpl@VCOPOSElectronicValueRW@@@1@@ 0000000180025010     ElectronicValueRW.obj
 0002:00001038       ??_7?$CComContainedObject@VCOPOSElectronicValueRW@@@ATL@@6B?$IPersistStorageImpl@VCOPOSElectronicValueRW@@@1@@ 0000000180025038     ElectronicValueRW.obj
 0002:00001088       ??_7?$CComContainedObject@VCOPOSElectronicValueRW@@@ATL@@6B?$ISpecifyPropertyPagesImpl@VCOPOSElectronicValueRW@@@1@@ 0000000180025088     ElectronicValueRW.obj
 0002:000010a8       ??_7?$CComContainedObject@VCOPOSElectronicValueRW@@@ATL@@6B?$IQuickActivateImpl@VCOPOSElectronicValueRW@@@1@@ 00000001800250a8     ElectronicValueRW.obj
 0002:000010d8       ??_7?$CComContainedObject@VCOPOSElectronicValueRW@@@ATL@@6B?$IDataObjectImpl@VCOPOSElectronicValueRW@@@1@@ 00000001800250d8     ElectronicValueRW.obj
 0002:00001138       ??_7?$CComContainedObject@VCOPOSElectronicValueRW@@@ATL@@6B?$IProvideClassInfo2Impl@$1?CLSID_OPOSElectronicValueRW@@3U_GUID@@B$1?DIID__IOPOSElectronicValueRWEvents@@3U2@B$1?LIBID_OposElectronicValueRW_CCO@@3U2@B$00$0A@VCComTypeInfoHolder@ATL@@@1@@ 0000000180025138     ElectronicValueRW.obj
 0002:00001160       ??_7?$CComContainedObject@VCOPOSElectronicValueRW@@@ATL@@6B?$IObjectSafetyImpl@VCOPOSElectronicValueRW@@$02@1@@ 0000000180025160     ElectronicValueRW.obj
 0002:00001190       ??_7?$CComContainedObject@VCOPOSElectronicValueRW@@@ATL@@6B?$IPropertyNotifySinkCP@VCOPOSElectronicValueRW@@VCComDynamicUnkArray@ATL@@@1@@ 0000000180025190     ElectronicValueRW.obj
 0002:000011d0       ??_7?$CComContainedObject@VCOPOSElectronicValueRW@@@ATL@@6B?$CProxy_IOPOSEvents@VCOPOSElectronicValueRW@@@@@ 00000001800251d0     ElectronicValueRW.obj
 0002:00001210       ??_7?$CComAggObject@VCOPOSElectronicValueRW@@@ATL@@6B@ 0000000180025210     ElectronicValueRW.obj
 0002:00001230       ??_7?$CComObject@VCOPOSElectronicValueRW@@@ATL@@6B?$IDispatchImpl@UIOPOSElectronicValueRW@@$1?IID_IOPOSElectronicValueRW@@3U_GUID@@B$1?LIBID_OposElectronicValueRW_CCO@@3U3@B$00$0A@VCComTypeInfoHolder@ATL@@@1@@ 0000000180025230     ElectronicValueRW.obj
 0002:000017e8       ??_7?$CComObject@VCOPOSElectronicValueRW@@@ATL@@6BCComControlBase@1@@ 00000001800257e8     ElectronicValueRW.obj
 0002:00001810       ??_7?$CComObject@VCOPOSElectronicValueRW@@@ATL@@6B?$CWindowImpl@VCOPOSElectronicValueRW@@VCWindow@ATL@@V?$CWinTraits@$0FGAAAAAA@$0A@@3@@1@@ 0000000180025810     ElectronicValueRW.obj
 0002:00001830       ??_7?$CComObject@VCOPOSElectronicValueRW@@@ATL@@6B?$IPersistStreamInitImpl@VCOPOSElectronicValueRW@@@1@@ 0000000180025830     ElectronicValueRW.obj
 0002:00001878       ??_7?$CComObject@VCOPOSElectronicValueRW@@@ATL@@6B?$IOleControlImpl@VCOPOSElectronicValueRW@@@1@@ 0000000180025878     ElectronicValueRW.obj
 0002:000018b0       ??_7?$CComObject@VCOPOSElectronicValueRW@@@ATL@@6B?$IOleObjectImpl@VCOPOSElectronicValueRW@@@1@@ 00000001800258b0     ElectronicValueRW.obj
 0002:00001970       ??_7?$CComObject@VCOPOSElectronicValueRW@@@ATL@@6B?$IOleInPlaceActiveObjectImpl@VCOPOSElectronicValueRW@@@1@@ 0000000180025970     ElectronicValueRW.obj
 0002:000019c0       ??_7?$CComObject@VCOPOSElectronicValueRW@@@ATL@@6B?$IViewObjectExImpl@VCOPOSElectronicValueRW@@@1@@ 00000001800259c0     ElectronicValueRW.obj
 0002:00001a38       ??_7?$CComObject@VCOPOSElectronicValueRW@@@ATL@@6B?$IOleInPlaceObjectWindowlessImpl@VCOPOSElectronicValueRW@@@1@@ 0000000180025a38     ElectronicValueRW.obj
 0002:00001a90       ??_7CComClassFactory@ATL@@6B@ 0000000180025a90     ElectronicValueRW.obj
 0002:00001ac0       ??_7?$CComObject@VCOPOSElectronicValueRW@@@ATL@@6B?$IConnectionPointContainerImpl@VCOPOSElectronicValueRW@@@1@@ 0000000180025ac0     ElectronicValueRW.obj
 0002:00001ae8       ??_7?$CComObject@VCOPOSElectronicValueRW@@@ATL@@6B?$IPersistStorageImpl@VCOPOSElectronicValueRW@@@1@@ 0000000180025ae8     ElectronicValueRW.obj
 0002:00001b38       ??_7?$CComObject@VCOPOSElectronicValueRW@@@ATL@@6B?$ISpecifyPropertyPagesImpl@VCOPOSElectronicValueRW@@@1@@ 0000000180025b38     ElectronicValueRW.obj
 0002:00001b58       ??_7?$CComObject@VCOPOSElectronicValueRW@@@ATL@@6B?$IQuickActivateImpl@VCOPOSElectronicValueRW@@@1@@ 0000000180025b58     ElectronicValueRW.obj
 0002:00001b88       ??_7?$CComObject@VCOPOSElectronicValueRW@@@ATL@@6B?$IDataObjectImpl@VCOPOSElectronicValueRW@@@1@@ 0000000180025b88     ElectronicValueRW.obj
 0002:00001be8       ??_7?$CComObject@VCOPOSElectronicValueRW@@@ATL@@6B?$IProvideClassInfo2Impl@$1?CLSID_OPOSElectronicValueRW@@3U_GUID@@B$1?DIID__IOPOSElectronicValueRWEvents@@3U2@B$1?LIBID_OposElectronicValueRW_CCO@@3U2@B$00$0A@VCComTypeInfoHolder@ATL@@@1@@ 0000000180025be8     ElectronicValueRW.obj
 0002:00001c10       ??_7?$CComObject@VCOPOSElectronicValueRW@@@ATL@@6B?$IObjectSafetyImpl@VCOPOSElectronicValueRW@@$02@1@@ 0000000180025c10     ElectronicValueRW.obj
 0002:00001c40       ??_7?$CComObject@VCOPOSElectronicValueRW@@@ATL@@6B?$IPropertyNotifySinkCP@VCOPOSElectronicValueRW@@VCComDynamicUnkArray@ATL@@@1@@ 0000000180025c40     ElectronicValueRW.obj
 0002:00001c80       ??_7?$CComObject@VCOPOSElectronicValueRW@@@ATL@@6B?$CProxy_IOPOSEvents@VCOPOSElectronicValueRW@@@@@ 0000000180025c80     ElectronicValueRW.obj
 0002:00001cc0       ?_entries@?1??_GetEntries@CComClassFactory@ATL@@SAPEBU_ATL_INTMAP_ENTRY@3@XZ@4QBU43@B 0000000180025cc0     ElectronicValueRW.obj
 0002:00001cf0       _GUID_00000001_0000_0000_c000_000000000046 0000000180025cf0     ElectronicValueRW.obj
 0002:00001d00       _GUID_55980ba0_35aa_11cf_b671_00aa004cd6d8 0000000180025d00     ElectronicValueRW.obj
 0002:00001d10       _GUID_b196b28b_bab4_101a_b69c_00aa00341d07 0000000180025d10     ElectronicValueRW.obj
 0002:00001d20       ?_entries@?1??_GetEntries@?$CComEnum@UIEnumConnectionPoints@@$1?_GUID_b196b285_bab4_101a_b69c_00aa00341d07@@3U__s_GUID@@BPEAUIConnectionPoint@@V?$_CopyInterface@UIConnectionPoint@@@ATL@@VCComSingleThreadModel@6@@ATL@@SAPEBU_ATL_INTMAP_ENTRY@3@XZ@4QBU43@B 0000000180025d20     ElectronicValueRW.obj
 0002:00001d50       _GUID_00020412_0000_0000_c000_000000000046 0000000180025d50     ElectronicValueRW.obj
 0002:00001d60       _GUID_00020401_0000_0000_c000_000000000046 0000000180025d60     ElectronicValueRW.obj
 0002:00001d70       ??_C@_1BK@BIGILECK@?$AAA?$AAd?$AAv?$AAa?$AAp?$AAi?$AA3?$AA2?$AA?4?$AAd?$AAl?$AAl@ 0000000180025d70     ElectronicValueRW.obj
 0002:00001d90       ??_C@_0BI@MNCFCPFK@RegCreateKeyTransactedW@ 0000000180025d90     ElectronicValueRW.obj
 0002:00001da8       _GUID_b196b287_bab4_101a_b69c_00aa00341d07 0000000180025da8     ElectronicValueRW.obj
 0002:00001db8       _GUID_b196b285_bab4_101a_b69c_00aa00341d07 0000000180025db8     ElectronicValueRW.obj
 0002:00001dc8       ??_7?$CComObject@V?$CComEnum@UIEnumConnections@@$1?_GUID_b196b287_bab4_101a_b69c_00aa00341d07@@3U__s_GUID@@BUtagCONNECTDATA@@V?$_Copy@UtagCONNECTDATA@@@ATL@@VCComSingleThreadModel@6@@ATL@@@ATL@@6B@ 0000000180025dc8     ElectronicValueRW.obj
 0002:00001e08       _GUID_a6bc3ac0_dbaa_11ce_9de3_00aa004bb851 0000000180025e08     ElectronicValueRW.obj
 0002:00001e18       _GUID_0000010c_0000_0000_c000_000000000046 0000000180025e18     ElectronicValueRW.obj
 0002:00001e28       _GUID_00000146_0000_0000_c000_000000000046 0000000180025e28     ElectronicValueRW.obj
 0002:00001e38       ?_entries@?1??_GetEntries@?$CComEnum@UIEnumConnections@@$1?_GUID_b196b287_bab4_101a_b69c_00aa00341d07@@3U__s_GUID@@BUtagCONNECTDATA@@V?$_Copy@UtagCONNECTDATA@@@ATL@@VCComSingleThreadModel@6@@ATL@@SAPEBU_ATL_INTMAP_ENTRY@3@XZ@4QBU43@B 0000000180025e38     ElectronicValueRW.obj
 0002:00001e68       IID_IOPOSElectronicValueRW_1_12 0000000180025e68     ElectronicValueRW.obj
 0002:00001e78       IID_IOPOSElectronicValueRW_1_12_zz 0000000180025e78     ElectronicValueRW.obj
 0002:00001e88       IID_IOPOSElectronicValueRW_1_14 0000000180025e88     ElectronicValueRW.obj
 0002:00001e98       IID_IOPOSElectronicValueRW_1_14_zz 0000000180025e98     ElectronicValueRW.obj
 0002:00001ea8       IID_IOPOSElectronicValueRW_1_14_100 0000000180025ea8     ElectronicValueRW.obj
 0002:00001eb8       IID_IOPOSElectronicValueRW_1_14_100_zz 0000000180025eb8     ElectronicValueRW.obj
 0002:00001ec8       IID_IOPOSElectronicValueRW_1_15 0000000180025ec8     ElectronicValueRW.obj
 0002:00001ed8       IID_IOPOSElectronicValueRW 0000000180025ed8     ElectronicValueRW.obj
 0002:00001ee8       LIBID_OposElectronicValueRW_CCO 0000000180025ee8     ElectronicValueRW.obj
 0002:00001ef8       DIID__IOPOSElectronicValueRWEvents 0000000180025ef8     ElectronicValueRW.obj
 0002:00001f08       CLSID_OPOSElectronicValueRW 0000000180025f08     ElectronicValueRW.obj
 0002:00001f18       ??_7CComModule@ATL@@6B@    0000000180025f18     ElectronicValueRW.obj
 0002:00001f68       _GUID_00000114_0000_0000_c000_000000000046 0000000180025f68     ElectronicValueRW.obj
 0002:00001f78       _GUID_00000000_0000_0000_c000_000000000046 0000000180025f78     ElectronicValueRW.obj
 0002:00001f88       _GUID_00020400_0000_0000_c000_000000000046 0000000180025f88     ElectronicValueRW.obj
 0002:00001f98       ??_C@_1M@KANJNLFF@?$AAC?$AAL?$AAS?$AAI?$AAD@ 0000000180025f98     ElectronicValueRW.obj
 0002:00001fa8       ??_C@_1M@EJNEECMJ@?$AAA?$AAp?$AAp?$AAI?$AAD@ 0000000180025fa8     ElectronicValueRW.obj
 0002:00001fc0       ?rgszNeverDelete@CRegParser@ATL@@1QBQEB_WB 0000000180025fc0     ElectronicValueRW.obj
 0002:00002020       ??_7CRegObject@ATL@@6B@    0000000180026020     ElectronicValueRW.obj
 0002:00002050       ??_C@_1CK@OEKPKBNA@?$AAC?$AAo?$AAm?$AAp?$AAo?$AAn?$AAe?$AAn?$AAt?$AA?5?$AAC?$AAa?$AAt?$AAe?$AAg@ 0000000180026050     ElectronicValueRW.obj
 0002:00002080       ??_C@_1BC@NKMMNMGL@?$AAF?$AAi?$AAl?$AAe?$AAT?$AAy?$AAp?$AAe@ 0000000180026080     ElectronicValueRW.obj
 0002:00002098       ??_C@_1BE@EKPAFMCP@?$AAI?$AAn?$AAt?$AAe?$AAr?$AAf?$AAa?$AAc?$AAe@ 0000000180026098     ElectronicValueRW.obj
 0002:000020b0       ??_C@_1BC@MAICEHGI@?$AAH?$AAa?$AAr?$AAd?$AAw?$AAa?$AAr?$AAe@ 00000001800260b0     ElectronicValueRW.obj
 0002:000020c8       _GUID_922eada0_3424_11cf_b670_00aa004cd6d8 00000001800260c8     ElectronicValueRW.obj
 0002:000020d8       ??_C@_19HLLLM@?$AAM?$AAi?$AAm?$AAe@ 00000001800260d8     ElectronicValueRW.obj
 0002:000020e8       ??_C@_17OMAOINJK@?$AAS?$AAA?$AAM@ 00000001800260e8     ElectronicValueRW.obj
 0002:000020f0       ??_C@_1BC@IBECJAAI@?$AAS?$AAE?$AAC?$AAU?$AAR?$AAI?$AAT?$AAY@ 00000001800260f0     ElectronicValueRW.obj
 0002:00002108       ??_C@_1O@GBFINDKL@?$AAS?$AAY?$AAS?$AAT?$AAE?$AAM@ 0000000180026108     ElectronicValueRW.obj
 0002:00002118       ??_C@_1BC@EAHCMADO@?$AAS?$AAo?$AAf?$AAt?$AAw?$AAa?$AAr?$AAe@ 0000000180026118     ElectronicValueRW.obj
 0002:00002130       _GUID_9c2cad80_3424_11cf_b670_00aa004cd6d8 0000000180026130     ElectronicValueRW.obj
 0002:00002140       ??_C@_1BA@JIHHIEDE@?$AAT?$AAy?$AAp?$AAe?$AAL?$AAi?$AAb@ 0000000180026140     ElectronicValueRW.obj
 0002:00002150       _GUID_00000119_0000_0000_c000_000000000046 0000000180026150     ElectronicValueRW.obj
 0002:00002160       _GUID_b196b289_bab4_101a_b69c_00aa00341d07 0000000180026160     ElectronicValueRW.obj
 0002:00002170       ?map@?1??HKeyFromString@CRegParser@ATL@@KAPEAUHKEY__@@PEA_W@Z@4QBUkeymap@?1??123@KAPEAU4@0@Z@B 0000000180026170     ElectronicValueRW.obj
 0002:00002250       ??_C@_19NCHLBIN@?$AAH?$AAK?$AAC?$AAR@ 0000000180026250     ElectronicValueRW.obj
 0002:00002260       ??_C@_19JAPAIJDE@?$AAH?$AAK?$AAC?$AAU@ 0000000180026260     ElectronicValueRW.obj
 0002:00002270       ??_C@_19PEALEEJB@?$AAH?$AAK?$AAL?$AAM@ 0000000180026270     ElectronicValueRW.obj
 0002:00002280       ??_C@_17PJOJPMPB@?$AAH?$AAK?$AAU@ 0000000180026280     ElectronicValueRW.obj
 0002:00002288       ??_C@_19PNBHMJPL@?$AAH?$AAK?$AAP?$AAD@ 0000000180026288     ElectronicValueRW.obj
 0002:00002298       ??_C@_19GFFAIJHG@?$AAH?$AAK?$AAD?$AAD@ 0000000180026298     ElectronicValueRW.obj
 0002:000022a8       ??_C@_19OFICIBHH@?$AAH?$AAK?$AAC?$AAC@ 00000001800262a8     ElectronicValueRW.obj
 0002:000022b8       ??_C@_1CE@PACHPJFI@?$AAH?$AAK?$AAE?$AAY?$AA_?$AAC?$AAL?$AAA?$AAS?$AAS?$AAE?$AAS?$AA_?$AAR?$AAO@ 00000001800262b8     ElectronicValueRW.obj
 0002:000022e0       ??_C@_1CE@HLHNCBPM@?$AAH?$AAK?$AAE?$AAY?$AA_?$AAC?$AAU?$AAR?$AAR?$AAE?$AAN?$AAT?$AA_?$AAU?$AAS@ 00000001800262e0     ElectronicValueRW.obj
 0002:00002308       ??_C@_1CG@GFBEANJL@?$AAH?$AAK?$AAE?$AAY?$AA_?$AAL?$AAO?$AAC?$AAA?$AAL?$AA_?$AAM?$AAA?$AAC?$AAH@ 0000000180026308     ElectronicValueRW.obj
 0002:00002330       ??_C@_1BG@BGODANIO@?$AAH?$AAK?$AAE?$AAY?$AA_?$AAU?$AAS?$AAE?$AAR?$AAS@ 0000000180026330     ElectronicValueRW.obj
 0002:00002348       ??_C@_1CM@KHNNAOIC@?$AAH?$AAK?$AAE?$AAY?$AA_?$AAP?$AAE?$AAR?$AAF?$AAO?$AAR?$AAM?$AAA?$AAN?$AAC@ 0000000180026348     ElectronicValueRW.obj
 0002:00002378       ??_C@_1BM@HAGMMHIA@?$AAH?$AAK?$AAE?$AAY?$AA_?$AAD?$AAY?$AAN?$AA_?$AAD?$AAA?$AAT?$AAA@ 0000000180026378     ElectronicValueRW.obj
 0002:00002398       ??_C@_1CI@BBJOACGG@?$AAH?$AAK?$AAE?$AAY?$AA_?$AAC?$AAU?$AAR?$AAR?$AAE?$AAN?$AAT?$AA_?$AAC?$AAO@ 0000000180026398     ElectronicValueRW.obj
 0002:000023c0       _GUID_00000117_0000_0000_c000_000000000046 00000001800263c0     ElectronicValueRW.obj
 0002:000023d0       _GUID_00000109_0000_0000_c000_000000000046 00000001800263d0     ElectronicValueRW.obj
 0002:000023e0       _GUID_7fd52380_4e07_101b_ae2d_08002b2ec713 00000001800263e0     ElectronicValueRW.obj
 0002:000023f0       ??_C@_1EA@NHKLICFA@?$AAH?$AAK?$AAC?$AAU?$AA?$AN?$AA?6?$AA?$HL?$AA?7?$AAS?$AAo?$AAf?$AAt?$AAw?$AAa?$AAr@ 00000001800263f0     ElectronicValueRW.obj
 0002:00002430       ??_C@_1BE@LJOLIMEM@?$AA?$AN?$AA?6?$AA?7?$AA?$HN?$AA?$AN?$AA?6?$AA?$HN?$AA?$AN?$AA?6@ 0000000180026430     ElectronicValueRW.obj
 0002:00002448       ??_C@_1O@MNLDABAF@?$AAM?$AAo?$AAd?$AAu?$AAl?$AAe@ 0000000180026448     ElectronicValueRW.obj
 0002:00002458       ??_C@_1BG@JBACFMF@?$AAM?$AAo?$AAd?$AAu?$AAl?$AAe?$AA_?$AAR?$AAa?$AAw@ 0000000180026458     ElectronicValueRW.obj
 0002:00002470       ??_C@_1BC@KAILKFFG@?$AAR?$AAE?$AAG?$AAI?$AAS?$AAT?$AAR?$AAY@ 0000000180026470     ElectronicValueRW.obj
 0002:00002490       ?_entries@?1??_GetEntries@COPOSElectronicValueRW@@SAPEBU_ATL_INTMAP_ENTRY@ATL@@XZ@4QBU34@B 0000000180026490     ElectronicValueRW.obj
 0002:00002760       _GUID_cf51ed10_62fe_11cf_bf86_00a0c9034836 0000000180026760     ElectronicValueRW.obj
 0002:00002770       _GUID_0000010a_0000_0000_c000_000000000046 0000000180026770     ElectronicValueRW.obj
 0002:00002780       _GUID_b196b283_bab4_101a_b69c_00aa00341d07 0000000180026780     ElectronicValueRW.obj
 0002:00002790       _GUID_cb5bdc81_93c1_11cf_8f20_00805f2cd064 0000000180026790     ElectronicValueRW.obj
 0002:000027a0       ?pPropMap@?1??GetPropertyMap@COPOSElectronicValueRW@@SAPEBUATL_PROPMAP_ENTRY@ATL@@XZ@4QBU34@B 00000001800267a0     ElectronicValueRW.obj
 0002:00002848       ??_C@_17DGDADEHL@?$AA_?$AAc?$AAx@ 0000000180026848     ElectronicValueRW.obj
 0002:00002850       ??_C@_17IOIMFDBO@?$AA_?$AAc?$AAy@ 0000000180026850     ElectronicValueRW.obj
 0002:00002858       _GUID_0000010e_0000_0000_c000_000000000046 0000000180026858     ElectronicValueRW.obj
 0002:00002868       _GUID_b196b288_bab4_101a_b69c_00aa00341d07 0000000180026868     ElectronicValueRW.obj
 0002:00002878       _GUID_b196b286_bab4_101a_b69c_00aa00341d07 0000000180026878     ElectronicValueRW.obj
 0002:00002888       ??_C@_1CA@BFAKJMNP@?$AAT?$AAr?$AAa?$AAn?$AAs?$AAi?$AAt?$AAi?$AAo?$AAn?$AAE?$AAv?$AAe?$AAn?$AAt@ 0000000180026888     ElectronicValueRW.obj
 0002:000028a8       ??_C@_1CE@PGFMOFKI@?$AAS?$AAt?$AAa?$AAt?$AAu?$AAs?$AAU?$AAp?$AAd?$AAa?$AAt?$AAe?$AAE?$AAv?$AAe@ 00000001800268a8     ElectronicValueRW.obj
 0002:000028d0       ??_C@_1CI@HLBJDONE@?$AAO?$AAu?$AAt?$AAp?$AAu?$AAt?$AAC?$AAo?$AAm?$AAp?$AAl?$AAe?$AAt?$AAe?$AAE@ 00000001800268d0     ElectronicValueRW.obj
 0002:000028f8       ??_C@_1BG@LODEBHDD@?$AAE?$AAr?$AAr?$AAo?$AAr?$AAE?$AAv?$AAe?$AAn?$AAt@ 00000001800268f8     ElectronicValueRW.obj
 0002:00002910       ??_C@_1BM@CBGEBBBJ@?$AAD?$AAi?$AAr?$AAe?$AAc?$AAt?$AAI?$AAO?$AAE?$AAv?$AAe?$AAn?$AAt@ 0000000180026910     ElectronicValueRW.obj
 0002:00002930       ??_C@_1BE@IEBMACEM@?$AAD?$AAa?$AAt?$AAa?$AAE?$AAv?$AAe?$AAn?$AAt@ 0000000180026930     ElectronicValueRW.obj
 0002:00002948       _GUID_00000113_0000_0000_c000_000000000046 0000000180026948     ElectronicValueRW.obj
 0002:00002958       ??_C@_1BC@ENICKDH@?$AAC?$AAo?$AAn?$AAt?$AAe?$AAn?$AAt?$AAs@ 0000000180026958     ElectronicValueRW.obj
 0002:00002970       _GUID_1c2056cc_5ef4_101b_8bc8_00aa003e3b29 0000000180026970     ElectronicValueRW.obj
 0002:00002980       ??_7?$CComObject@V?$CComEnum@UIEnumConnectionPoints@@$1?_GUID_b196b285_bab4_101a_b69c_00aa00341d07@@3U__s_GUID@@BPEAUIConnectionPoint@@V?$_CopyInterface@UIConnectionPoint@@@ATL@@VCComSingleThreadModel@6@@ATL@@@ATL@@6B@ 0000000180026980     ElectronicValueRW.obj
 0002:000029c0       _GUID_b196b284_bab4_101a_b69c_00aa00341d07 00000001800269c0     ElectronicValueRW.obj
 0002:000029d0       _GUID_00000112_0000_0000_c000_000000000046 00000001800269d0     ElectronicValueRW.obj
 0002:000029e0       _GUID_3af24292_0c96_11ce_a0cf_00aa00600ab8 00000001800269e0     ElectronicValueRW.obj
 0002:000029f0       _GUID_00000127_0000_0000_c000_000000000046 00000001800269f0     ElectronicValueRW.obj
 0002:00002a00       _GUID_0000010d_0000_0000_c000_000000000046 0000000180026a00     ElectronicValueRW.obj
 0002:00002a10       ??_C@_0BG@EKFFMJIO@RegOpenKeyTransactedW@ 0000000180026a10     ElectronicValueRW.obj
 0002:00002a28       ??_C@_0BI@HAKLOOGP@RegDeleteKeyTransactedW@ 0000000180026a28     ElectronicValueRW.obj
 0002:00002a40       ??_C@_0BA@LILAPHGE@RegDeleteKeyExW@ 0000000180026a40     ElectronicValueRW.obj
 0002:00002a50       ??_C@_19ILOCMLCJ@?$AA?4?$AAt?$AAl?$AAb@ 0000000180026a50     ElectronicValueRW.obj
 0002:00002a60       _GUID_0002e012_0000_0000_c000_000000000046 0000000180026a60     ElectronicValueRW.obj
 0002:00002a70       ??_C@_1O@FHBGLCIO@?$AAC?$AAL?$AAS?$AAI?$AAD?$AA?2@ 0000000180026a70     ElectronicValueRW.obj
 0002:00002a80       ??_C@_1CK@IFBKBFAA@?$AA?2?$AAR?$AAe?$AAq?$AAu?$AAi?$AAr?$AAe?$AAd?$AA?5?$AAC?$AAa?$AAt?$AAe?$AAg@ 0000000180026a80     ElectronicValueRW.obj
 0002:00002ab0       ??_C@_1DA@BIHALFED@?$AA?2?$AAI?$AAm?$AAp?$AAl?$AAe?$AAm?$AAe?$AAn?$AAt?$AAe?$AAd?$AA?5?$AAC?$AAa@ 0000000180026ab0     ElectronicValueRW.obj
 0002:00002ae0       ??_C@_1BK@EDKOLFBJ@?$AAO?$AAL?$AAE?$AAA?$AAU?$AAT?$AA3?$AA2?$AA?4?$AAD?$AAL?$AAL@ 0000000180026ae0     ElectronicValueRW.obj
 0002:00002b00       ??_C@_0BJ@CNLFOMHB@UnRegisterTypeLibForUser@ 0000000180026b00     ElectronicValueRW.obj
 0002:00002b20       ??_C@_0BH@LBOMMKPJ@RegisterTypeLibForUser@ 0000000180026b20     ElectronicValueRW.obj
 0002:00002b38       ??_C@_0P@MMNMMLGK@COFreezeEvents@ 0000000180026b38     ElectronicValueRWImpl.obj
 0002:00002b48       ??_C@_0BC@OGCGGIMP@GetPropertyNumber@ 0000000180026b48     ElectronicValueRWImpl.obj
 0002:00002b60       ??_C@_0BC@MDCNODNB@SetPropertyNumber@ 0000000180026b60     ElectronicValueRWImpl.obj
 0002:00002b78       ??_C@_0BC@CFCCMIMD@GetPropertyString@ 0000000180026b78     ElectronicValueRWImpl.obj
 0002:00002b90       ??_C@_0BC@CJEDNN@SetPropertyString@ 0000000180026b90     ElectronicValueRWImpl.obj
 0002:00002ba8       ??_C@_0M@LNPKKKDA@OpenService@ 0000000180026ba8     ElectronicValueRWImpl.obj
 0002:00002bb8       ??_C@_0M@PCMCHHMH@CheckHealth@ 0000000180026bb8     ElectronicValueRWImpl.obj
 0002:00002bc8       ??_C@_0M@JGMIDNEK@ClaimDevice@ 0000000180026bc8     ElectronicValueRWImpl.obj
 0002:00002bd8       ??_C@_0L@BNEIFEJC@ClearInput@ 0000000180026bd8     ElectronicValueRWImpl.obj
 0002:00002be8       ??_C@_0M@JMBCPNGJ@ClearOutput@ 0000000180026be8     ElectronicValueRWImpl.obj
 0002:00002bf8       ??_C@_0N@DDFIIBMP@CloseService@ 0000000180026bf8     ElectronicValueRWImpl.obj
 0002:00002c08       ??_C@_08EEIHICPC@DirectIO@ 0000000180026c08     ElectronicValueRWImpl.obj
 0002:00002c18       ??_C@_0O@BCPMENMJ@ReleaseDevice@ 0000000180026c18     ElectronicValueRWImpl.obj
 0002:00002c28       ??_C@_0BA@GFABKEEE@ResetStatistics@ 0000000180026c28     ElectronicValueRWImpl.obj
 0002:00002c38       ??_C@_0BD@DPALHJGC@RetrieveStatistics@ 0000000180026c38     ElectronicValueRWImpl.obj
 0002:00002c50       ??_C@_0BB@KOHIKNFC@UpdateStatistics@ 0000000180026c50     ElectronicValueRWImpl.obj
 0002:00002c68       ??_C@_0BH@PBKBNMGB@CompareFirmwareVersion@ 0000000180026c68     ElectronicValueRWImpl.obj
 0002:00002c80       ??_C@_0P@FBPDPIPA@UpdateFirmware@ 0000000180026c80     ElectronicValueRWImpl.obj
 0002:00002c90       ??_C@_0BF@CMAPCJGM@ClearInputProperties@ 0000000180026c90     ElectronicValueRWImpl.obj
 0002:00002ca8       ??_C@_09EGHCFIHC@GetAmount@ 0000000180026ca8     ElectronicValueRWImpl.obj
 0002:00002cb8       ??_C@_09GIDHHJOA@SetAmount@ 0000000180026cb8     ElectronicValueRWImpl.obj
 0002:00002cc8       ??_C@_0L@OFHFGGCE@GetBalance@ 0000000180026cc8     ElectronicValueRWImpl.obj
 0002:00002cd8       ??_C@_0BC@HFMPIMNJ@GetBalanceOfPoint@ 0000000180026cd8     ElectronicValueRWImpl.obj
 0002:00002cf0       ??_C@_08HLPBNFEC@GetPoint@ 0000000180026cf0     ElectronicValueRWImpl.obj
 0002:00002d00       ??_C@_08IKNNMGDP@SetPoint@ 0000000180026d00     ElectronicValueRWImpl.obj
 0002:00002d10       ??_C@_0BB@DEPMOCKF@GetSettledAmount@ 0000000180026d10     ElectronicValueRWImpl.obj
 0002:00002d28       ??_C@_0BA@PCCMIHIE@GetSettledPoint@ 0000000180026d28     ElectronicValueRWImpl.obj
 0002:00002d38       ??_C@_09EDIPBOE@AccessLog@ 0000000180026d38     ElectronicValueRWImpl.obj
 0002:00002d48       ??_C@_0BA@CPKFOAIG@ActivateService@ 0000000180026d48     ElectronicValueRWImpl.obj
 0002:00002d58       ??_C@_08LOICPCFH@AddValue@ 0000000180026d58     ElectronicValueRWImpl.obj
 0002:00002d68       ??_C@_0P@IKCODGEO@BeginDetection@ 0000000180026d68     ElectronicValueRWImpl.obj
 0002:00002d78       ??_C@_0N@PCJLGBKP@BeginRemoval@ 0000000180026d78     ElectronicValueRWImpl.obj
 0002:00002d88       ??_C@_0M@GJJFNMHB@CancelValue@ 0000000180026d88     ElectronicValueRWImpl.obj
 0002:00002d98       ??_C@_0M@ENIGCFE@CaptureCard@ 0000000180026d98     ElectronicValueRWImpl.obj
 0002:00002da8       ??_C@_0N@HNJPBHDG@EndDetection@ 0000000180026da8     ElectronicValueRWImpl.obj
 0002:00002db8       ??_C@_0L@FCEKAOMI@EndRemoval@ 0000000180026db8     ElectronicValueRWImpl.obj
 0002:00002dc8       ??_C@_0BG@DBMDMKJM@EnumerateCardServices@ 0000000180026dc8     ElectronicValueRWImpl.obj
 0002:00002de0       ??_C@_0N@NKOFBOHJ@LockTerminal@ 0000000180026de0     ElectronicValueRWImpl.obj
 0002:00002df0       ??_C@_09JBBNAFDB@ReadValue@ 0000000180026df0     ElectronicValueRWImpl.obj
 0002:00002e00       ??_C@_0O@OCEFCPNI@SubtractValue@ 0000000180026e00     ElectronicValueRWImpl.obj
 0002:00002e10       ??_C@_0BC@FMEIPINL@TransactionAccess@ 0000000180026e10     ElectronicValueRWImpl.obj
 0002:00002e28       ??_C@_0P@ELGEJAPJ@UnlockTerminal@ 0000000180026e28     ElectronicValueRWImpl.obj
 0002:00002e38       ??_C@_09PHBOFDOC@UpdateKey@ 0000000180026e38     ElectronicValueRWImpl.obj
 0002:00002e48       ??_C@_0L@HDNANADD@WriteValue@ 0000000180026e48     ElectronicValueRWImpl.obj
 0002:00002e58       ??_C@_0BK@JLGGNCBA@ClearParameterInformation@ 0000000180026e58     ElectronicValueRWImpl.obj
 0002:00002e78       ??_C@_0CF@BOMLKPAA@QueryLastSuccessfulTransactionR@ 0000000180026e78     ElectronicValueRWImpl.obj
 0002:00002ea0       ??_C@_0BK@ILMAJPBB@RetrieveResultInformation@ 0000000180026ea0     ElectronicValueRWImpl.obj
 0002:00002ec0       ??_C@_0BI@DOFOAILE@SetParameterInformation@ 0000000180026ec0     ElectronicValueRWImpl.obj
 0002:00002ed8       ??_C@_0L@BFEKGFKN@AccessData@ 0000000180026ed8     ElectronicValueRWImpl.obj
 0002:00002ee8       ??_C@_0BC@EKOJKELK@ActivateEVService@ 0000000180026ee8     ElectronicValueRWImpl.obj
 0002:00002f00       ??_C@_0CB@MMCGCA@CheckServiceRegistrationToMediu@ 0000000180026f00     ElectronicValueRWImpl.obj
 0002:00002f28       ??_C@_0BE@KLAJMPGL@CloseDailyEVService@ 0000000180026f28     ElectronicValueRWImpl.obj
 0002:00002f40       ??_C@_0BE@FBHCBEID@DeactivateEVService@ 0000000180026f40     ElectronicValueRWImpl.obj
 0002:00002f58       ??_C@_0BD@FDDFHNFA@OpenDailyEVService@ 0000000180026f58     ElectronicValueRWImpl.obj
 0002:00002f70       ??_C@_0BI@MFJBMGKE@RegisterServiceToMedium@ 0000000180026f70     ElectronicValueRWImpl.obj
 0002:00002f88       ??_C@_0BK@NILIGKOK@UnregisterServiceToMedium@ 0000000180026f88     ElectronicValueRWImpl.obj
 0002:00002fa8       ??_C@_0L@DHPPFEDE@UpdateData@ 0000000180026fa8     ElectronicValueRWImpl.obj
 0002:00002fb8       ??_C@_0P@GAPGHBOB@AccessDailyLog@ 0000000180026fb8     ElectronicValueRWImpl.obj
 0002:00002fc8       ??_C@_0BE@DCPICDJJ@AuthorizeCompletion@ 0000000180026fc8     ElectronicValueRWImpl.obj
 0002:00002fe0       ??_C@_0BC@BFIHDIME@AuthorizePreSales@ 0000000180026fe0     ElectronicValueRWImpl.obj
 0002:00002ff8       ??_C@_0BA@MIHOKOFD@AuthorizeRefund@ 0000000180026ff8     ElectronicValueRWImpl.obj
 0002:00003008       ??_C@_0P@FBALCMBO@AuthorizeSales@ 0000000180027008     ElectronicValueRWImpl.obj
 0002:00003018       ??_C@_0O@CLMPAPFO@AuthorizeVoid@ 0000000180027018     ElectronicValueRWImpl.obj
 0002:00003028       ??_C@_0BG@LAFENIFB@AuthorizeVoidPreSales@ 0000000180027028     ElectronicValueRWImpl.obj
 0002:00003040       ??_C@_0M@LJIOAJGI@CashDeposit@ 0000000180027040     ElectronicValueRWImpl.obj
 0002:00003050       ??_C@_09EAIKPMK@CheckCard@ 0000000180027050     ElectronicValueRWImpl.obj
 0002:00003060       ??_7?$CProxy_IOPOSEvents@VCOPOSElectronicValueRW@@@@6B@ 0000000180027060     ElectronicValueRWImpl.obj
 0002:000030a0       ??_C@_1BA@IFHENID@?$AA?$FL?$AAE?$AAr?$AAr?$AAo?$AAr?$AA?$FN@ 00000001800270a0     ElectronicValueRWImpl.obj
 0002:000030b0       ??_C@_0DE@PJGMIIKM@SOFTWARE?2OLEforRetail?2ServiceOP@ 00000001800270b0     ElectronicValueRWImpl.obj
 0002:000030e8       ??_C@_1M@IAIJHCCH@?$AAC?$AAl?$AAo?$AAs?$AAe@ 00000001800270e8     ElectronicValueRWImpl.obj
 0002:000030f8       ??_C@_1M@PCPKGJAH@?$AAC?$AAl?$AAa?$AAi?$AAm@ 00000001800270f8     ElectronicValueRWImpl.obj
 0002:00003108       ??_C@_1BA@NDFKIOCP@?$AAR?$AAe?$AAl?$AAe?$AAa?$AAs?$AAe@ 0000000180027108     ElectronicValueRWImpl.obj
 0002:00003118       ??_C@_0BC@GPJAGDJO@ElectronicValueRW@ 0000000180027118     ElectronicValueRWImpl.obj
 0002:00003130       ??_C@_1BM@IJMNMBPK@?$AAG?$AAe?$AAt?$AAO?$AAp?$AAe?$AAn?$AAR?$AAe?$AAs?$AAu?$AAl?$AAt@ 0000000180027130     ElectronicValueRWImpl.obj
 0002:00003150       IID_IPropertyNotifySink    0000000180027150     uuid:ocidl_i.obj
 0002:00003160       IID_IDispatch              0000000180027160     uuid:oaidl_i.obj
 0002:00003170       GUID_NULL                  0000000180027170     uuid:cguid_i.obj
 0002:00003180       CLSID_StdGlobalInterfaceTable 0000000180027180     uuid:cguid_i.obj
 0002:00003190       CLSID_StdComponentCategoriesMgr 0000000180027190     uuid:ieguids.obj
 0002:000031a0       IID_IUnknown               00000001800271a0     uuid:unknwn_i.obj
 0002:000031e0       ??_C@_1EC@JIJBPKFM@?$AAa?$AAp?$AAi?$AA?9?$AAm?$AAs?$AA?9?$AAw?$AAi?$AAn?$AA?9?$AAc?$AAo?$AAr?$AAe@ 00000001800271e0     LIBCMT:thread_safe_statics.obj
 0002:00003228       ??_C@_1BK@MGMFAEKH@?$AAk?$AAe?$AAr?$AAn?$AAe?$AAl?$AA3?$AA2?$AA?4?$AAd?$AAl?$AAl@ 0000000180027228     LIBCMT:thread_safe_statics.obj
 0002:00003248       ??_C@_0BM@HLJJNPAH@InitializeConditionVariable@ 0000000180027248     LIBCMT:thread_safe_statics.obj
 0002:00003268       ??_C@_0BJ@JEBJOJFJ@SleepConditionVariableCS@ 0000000180027268     LIBCMT:thread_safe_statics.obj
 0002:00003288       ??_C@_0BJ@PGPPEPCC@WakeAllConditionVariable@ 0000000180027288     LIBCMT:thread_safe_statics.obj
 0002:000032a1       ?nothrow@std@@3Unothrow_t@1@B 00000001800272a1     LIBCMT:std_nothrow.obj
 0002:000032e0       _pRawDllMain               00000001800272e0     LIBCMT:dll_dllmain.obj
 0002:000032e0       _pDefaultRawDllMain        00000001800272e0     LIBCMT:dll_dllmain.obj
 0002:000032f0       ??_7exception@std@@6B@     00000001800272f0     LIBCMT:throw_bad_alloc.obj
 0002:00003300       ??_C@_0BC@EOODALEL@Unknown?5exception@ 0000000180027300     LIBCMT:throw_bad_alloc.obj
 0002:00003320       ??_7bad_alloc@std@@6B@     0000000180027320     LIBCMT:throw_bad_alloc.obj
 0002:00003330       ??_C@_0P@GHFPNOJB@bad?5allocation@ 0000000180027330     LIBCMT:throw_bad_alloc.obj
 0002:00003348       ??_7bad_array_new_length@std@@6B@ 0000000180027348     LIBCMT:throw_bad_alloc.obj
 0002:00003358       ??_C@_0BF@KINCDENJ@bad?5array?5new?5length@ 0000000180027358     LIBCMT:throw_bad_alloc.obj
 0002:00003378       ??_7type_info@@6B@         0000000180027378     LIBCMT:std_type_info_static.obj
 0002:00003380       GUID_ATLVer110             0000000180027380     atls:atlbase.obj
 0002:00003390       ??_C@_1IC@ONKHOIDK@?$AAE?$AAR?$AAR?$AAO?$AAR?$AA?5?$AA?3?$AA?5?$AAU?$AAn?$AAa?$AAb?$AAl?$AAe?$AA?5@ 0000000180027390     atls:atlbase.obj
 0002:00003418       ??_C@_0N@FJEPLCIH@atlthunk?4dll@ 0000000180027418     atls:atlthunk.obj
 0002:00003428       ??_C@_0BG@GAKFHCBM@AtlThunk_AllocateData@ 0000000180027428     atls:atlthunk.obj
 0002:00003440       ??_C@_0BC@JKONFIAH@AtlThunk_InitData@ 0000000180027440     atls:atlthunk.obj
 0002:00003458       ??_C@_0BE@IAOEELAK@AtlThunk_DataToCode@ 0000000180027458     atls:atlthunk.obj
 0002:00003470       ??_C@_0BC@GBGKAIPI@AtlThunk_FreeData@ 0000000180027470     atls:atlthunk.obj
 0002:00003488       _pDestructExceptionObject  0000000180027488     libvcruntime:ehhelpers.obj
 0002:00003588       ??_C@_1DM@KHCHBNEB@?$AAa?$AAp?$AAi?$AA?9?$AAm?$AAs?$AA?9?$AAw?$AAi?$AAn?$AA?9?$AAc?$AAo?$AAr?$AAe@ 0000000180027588     libvcruntime:winapi_downlevel.obj
 0002:000035c8       ??_C@_1DK@LPPGFMPP@?$AAa?$AAp?$AAi?$AA?9?$AAm?$AAs?$AA?9?$AAw?$AAi?$AAn?$AA?9?$AAc?$AAo?$AAr?$AAe@ 00000001800275c8     libvcruntime:winapi_downlevel.obj
 0002:00003608       ??_C@_1BC@GDMECMAK@?$AAk?$AAe?$AAr?$AAn?$AAe?$AAl?$AA3?$AA2@ 0000000180027608     libvcruntime:winapi_downlevel.obj
 0002:00003620       ??_C@_1BA@PFFKHIOG@?$AAa?$AAp?$AAi?$AA?9?$AAm?$AAs?$AA?9@ 0000000180027620     libvcruntime:winapi_downlevel.obj
 0002:00003630       ??_C@_1BA@IAIFMGEF@?$AAe?$AAx?$AAt?$AA?9?$AAm?$AAs?$AA?9@ 0000000180027630     libvcruntime:winapi_downlevel.obj
 0002:00003648       ??_C@_08KNHFBNJ@FlsAlloc@  0000000180027648     libvcruntime:winapi_downlevel.obj
 0002:00003660       ??_C@_07PEJMOBNF@FlsFree@  0000000180027660     libvcruntime:winapi_downlevel.obj
 0002:00003670       ??_C@_0M@GDNOONDI@FlsGetValue@ 0000000180027670     libvcruntime:winapi_downlevel.obj
 0002:00003688       ??_C@_0M@JCPCPOEF@FlsSetValue@ 0000000180027688     libvcruntime:winapi_downlevel.obj
 0002:000036a0       ??_C@_0BM@HCFOFFN@InitializeCriticalSectionEx@ 00000001800276a0     libvcruntime:winapi_downlevel.obj
 0002:000036c8       ??_7bad_exception@std@@6B@ 00000001800276c8     libvcruntime:frame.obj
 0002:000036d8       ??_C@_0O@DPKOEFFH@bad?5exception@ 00000001800276d8     libvcruntime:frame.obj
 0002:00003a28       ??_C@_08EHJDFFNH@__based?$CI@ 0000000180027a28     libvcruntime:undname.obj
 0002:00003a38       ??_C@_07KOLFKCDI@__cdecl@  0000000180027a38     libvcruntime:undname.obj
 0002:00003a40       ??_C@_08GHMPAG@__pascal@   0000000180027a40     libvcruntime:undname.obj
 0002:00003a50       ??_C@_09IFJBGAPI@__stdcall@ 0000000180027a50     libvcruntime:undname.obj
 0002:00003a60       ??_C@_0L@NPHFGOKO@__thiscall@ 0000000180027a60     libvcruntime:undname.obj
 0002:00003a70       ??_C@_0L@JMKHOMEK@__fastcall@ 0000000180027a70     libvcruntime:undname.obj
 0002:00003a80       ??_C@_0N@BCKKPABJ@__vectorcall@ 0000000180027a80     libvcruntime:undname.obj
 0002:00003a90       ??_C@_09HIJEGCPM@__clrcall@ 0000000180027a90     libvcruntime:undname.obj
 0002:00003a9c       ??_C@_06GHPCKEAG@__eabi@   0000000180027a9c     libvcruntime:undname.obj
 0002:00003aa8       ??_C@_09IOPIDJLG@__swift_1@ 0000000180027aa8     libvcruntime:undname.obj
 0002:00003ab8       ??_C@_09KFNFGKHF@__swift_2@ 0000000180027ab8     libvcruntime:undname.obj
 0002:00003ac8       ??_C@_07JOMMBBKO@__ptr64@  0000000180027ac8     libvcruntime:undname.obj
 0002:00003ad0       ??_C@_0L@PILCLIHE@__restrict@ 0000000180027ad0     libvcruntime:undname.obj
 0002:00003ae0       ??_C@_0M@GFIIJFMG@__unaligned@ 0000000180027ae0     libvcruntime:undname.obj
 0002:00003af0       ??_C@_09DHDLOLLB@restrict?$CI@ 0000000180027af0     libvcruntime:undname.obj
 0002:00003afa       ??_C@_00CNPNBAHC@@         0000000180027afa     libvcruntime:undname.obj
 0002:00003afc       ??_C@_04NIHEBCM@?5new@     0000000180027afc     libvcruntime:undname.obj
 0002:00003b08       ??_C@_07FPCDHGMM@?5delete@ 0000000180027b08     libvcruntime:undname.obj
 0002:00003b10       ??_C@_01NEMOKFLO@?$DN@     0000000180027b10     libvcruntime:undname.obj
 0002:00003b14       ??_C@_02GPIOPFAK@?$DO?$DO@ 0000000180027b14     libvcruntime:undname.obj
 0002:00003b18       ??_C@_02FODMEDOG@?$DM?$DM@ 0000000180027b18     libvcruntime:undname.obj
 0002:00003b1c       ??_C@_01DCLJPIOD@?$CB@     0000000180027b1c     libvcruntime:undname.obj
 0002:00003b20       ??_C@_02EGOFBIJA@?$DN?$DN@ 0000000180027b20     libvcruntime:undname.obj
 0002:00003b24       ??_C@_02FDNJECIE@?$CB?$DN@ 0000000180027b24     libvcruntime:undname.obj
 0002:00003b28       ??_C@_02GPECMEKF@?$FL?$FN@ 0000000180027b28     libvcruntime:undname.obj
 0002:00003b30       ??_C@_08LHJFAFGD@operator@ 0000000180027b30     libvcruntime:undname.obj
 0002:00003b3c       ??_C@_02HBOOOICD@?9?$DO@   0000000180027b3c     libvcruntime:undname.obj
 0002:00003b40       ??_C@_01NBENCBCI@?$CK@     0000000180027b40     libvcruntime:undname.obj
 0002:00003b44       ??_C@_02ECNGHCIF@?$CL?$CL@ 0000000180027b44     libvcruntime:undname.obj
 0002:00003b48       ??_C@_02BAABKJLB@?9?9@     0000000180027b48     libvcruntime:undname.obj
 0002:00003b4c       ??_C@_01JOAMLHOP@?9@       0000000180027b4c     libvcruntime:undname.obj
 0002:00003b50       ??_C@_01MIFGBAGJ@?$CL@     0000000180027b50     libvcruntime:undname.obj
 0002:00003b54       ??_C@_01HNPIGOCE@?$CG@     0000000180027b54     libvcruntime:undname.obj
 0002:00003b58       ??_C@_03MNHNFDLC@?9?$DO?$CK@ 0000000180027b58     libvcruntime:undname.obj
 0002:00003b5c       ??_C@_01KMDKNFGN@?1@       0000000180027b5c     libvcruntime:undname.obj
 0002:00003b60       ??_C@_01FGNFDNOH@?$CF@     0000000180027b60     libvcruntime:undname.obj
 0002:00003b64       ??_C@_01MNNFJEPP@?$DM@     0000000180027b64     libvcruntime:undname.obj
 0002:00003b68       ??_C@_02EHCHHCKH@?$DM?$DN@ 0000000180027b68     libvcruntime:undname.obj
 0002:00003b6c       ??_C@_01PPODPGHN@?$DO@     0000000180027b6c     libvcruntime:undname.obj
 0002:00003b70       ??_C@_02EEKDKGMJ@?$DO?$DN@ 0000000180027b70     libvcruntime:undname.obj
 0002:00003b74       ??_C@_01IHBHIGKO@?0@       0000000180027b74     libvcruntime:undname.obj
 0002:00003b78       ??_C@_02HCKGKOFO@?$CI?$CJ@ 0000000180027b78     libvcruntime:undname.obj
 0002:00003b7c       ??_C@_01PJKLJHI@?$HO@      0000000180027b7c     libvcruntime:undname.obj
 0002:00003b80       ??_C@_01JKBOJNNK@?$FO@     0000000180027b80     libvcruntime:undname.obj
 0002:00003b84       ??_C@_01DNKMNLPK@?$HM@     0000000180027b84     libvcruntime:undname.obj
 0002:00003b88       ??_C@_02PPKAJPJL@?$CG?$CG@ 0000000180027b88     libvcruntime:undname.obj
 0002:00003b8c       ??_C@_02NONPIBCD@?$HM?$HM@ 0000000180027b8c     libvcruntime:undname.obj
 0002:00003b90       ??_C@_02FPIMKNGF@?$CK?$DN@ 0000000180027b90     libvcruntime:undname.obj
 0002:00003b94       ??_C@_02FOEOMHFC@?$CL?$DN@ 0000000180027b94     libvcruntime:undname.obj
 0002:00003b98       ??_C@_02FKMDLLOA@?9?$DN@   0000000180027b98     libvcruntime:undname.obj
 0002:00003b9c       ??_C@_02FJEHGPIO@?1?$DN@   0000000180027b9c     libvcruntime:undname.obj
 0002:00003ba0       ??_C@_02FENAOKFI@?$CF?$DN@ 0000000180027ba0     libvcruntime:undname.obj
 0002:00003ba4       ??_C@_03IKFCCPFF@?$DO?$DO?$DN@ 0000000180027ba4     libvcruntime:undname.obj
 0002:00003ba8       ??_C@_03CDNPDDLA@?$DM?$DM?$DN@ 0000000180027ba8     libvcruntime:undname.obj
 0002:00003bac       ??_C@_02FGJGFEAB@?$CG?$DN@ 0000000180027bac     libvcruntime:undname.obj
 0002:00003bb0       ??_C@_02DHLNPPGH@?$HM?$DN@ 0000000180027bb0     libvcruntime:undname.obj
 0002:00003bb4       ??_C@_02MHEGNOJ@?$FO?$DN@  0000000180027bb4     libvcruntime:undname.obj
 0002:00003bb8       ??_C@_09IFPLHPGF@?$GAvftable?8@ 0000000180027bb8     libvcruntime:undname.obj
 0002:00003bc8       ??_C@_09BLBHBJP@?$GAvbtable?8@ 0000000180027bc8     libvcruntime:undname.obj
 0002:00003bd8       ??_C@_07FEEIOKP@?$GAvcall?8@ 0000000180027bd8     libvcruntime:undname.obj
 0002:00003be0       ??_C@_08LLFFHHDJ@?$GAtypeof?8@ 0000000180027be0     libvcruntime:undname.obj
 0002:00003bf0       ??_C@_0BF@KDPPACIK@?$GAlocal?5static?5guard?8@ 0000000180027bf0     libvcruntime:undname.obj
 0002:00003c08       ??_C@_08OBABFOLI@?$GAstring?8@ 0000000180027c08     libvcruntime:undname.obj
 0002:00003c18       ??_C@_0BD@JDLKDPAB@?$GAvbase?5destructor?8@ 0000000180027c18     libvcruntime:undname.obj
 0002:00003c30       ??_C@_0BN@DEGPLNFK@?$GAvector?5deleting?5destructor?8@ 0000000180027c30     libvcruntime:undname.obj
 0002:00003c50       ??_C@_0BO@OBMKPJIG@?$GAdefault?5constructor?5closure?8@ 0000000180027c50     libvcruntime:undname.obj
 0002:00003c70       ??_C@_0BN@IMDCHIKM@?$GAscalar?5deleting?5destructor?8@ 0000000180027c70     libvcruntime:undname.obj
 0002:00003c90       ??_C@_0BO@PFGOCPJJ@?$GAvector?5constructor?5iterator?8@ 0000000180027c90     libvcruntime:undname.obj
 0002:00003cb0       ??_C@_0BN@LFPFMEDL@?$GAvector?5destructor?5iterator?8@ 0000000180027cb0     libvcruntime:undname.obj
 0002:00003cd0       ??_C@_0CE@IKBNEHA@?$GAvector?5vbase?5constructor?5itera@ 0000000180027cd0     libvcruntime:undname.obj
 0002:00003cf8       ??_C@_0BL@NILFHHPC@?$GAvirtual?5displacement?5map?8@ 0000000180027cf8     libvcruntime:undname.obj
 0002:00003d18       ??_C@_0CB@JONCMFFK@?$GAeh?5vector?5constructor?5iterator@ 0000000180027d18     libvcruntime:undname.obj
 0002:00003d40       ??_C@_0CA@GCEOPDGL@?$GAeh?5vector?5destructor?5iterator?8@ 0000000180027d40     libvcruntime:undname.obj
 0002:00003d60       ??_C@_0CH@OOJPLCPH@?$GAeh?5vector?5vbase?5constructor?5it@ 0000000180027d60     libvcruntime:undname.obj
 0002:00003d88       ??_C@_0BL@LLKPOHJI@?$GAcopy?5constructor?5closure?8@ 0000000180027d88     libvcruntime:undname.obj
 0002:00003da8       ??_C@_0BA@KBCDOMBN@?$GAudt?5returning?8@ 0000000180027da8     libvcruntime:undname.obj
 0002:00003db8       ??_C@_03KLGMFNMG@?$GAEH@   0000000180027db8     libvcruntime:undname.obj
 0002:00003dbc       ??_C@_05KHLCHHI@?$GARTTI@  0000000180027dbc     libvcruntime:undname.obj
 0002:00003dc8       ??_C@_0BA@KKLDJDLB@?$GAlocal?5vftable?8@ 0000000180027dc8     libvcruntime:undname.obj
 0002:00003dd8       ??_C@_0CE@IIHCMGGL@?$GAlocal?5vftable?5constructor?5clos@ 0000000180027dd8     libvcruntime:undname.obj
 0002:00003dfc       ??_C@_06FHBGPFGH@?5new?$FL?$FN@ 0000000180027dfc     libvcruntime:undname.obj
 0002:00003e08       ??_C@_09LBNFPBCA@?5delete?$FL?$FN@ 0000000180027e08     libvcruntime:undname.obj
 0002:00003e18       ??_C@_0P@HJKNJFNN@?$GAomni?5callsig?8@ 0000000180027e18     libvcruntime:undname.obj
 0002:00003e28       ??_C@_0BL@CNOONJFP@?$GAplacement?5delete?5closure?8@ 0000000180027e28     libvcruntime:undname.obj
 0002:00003e48       ??_C@_0BN@CKNJLHMB@?$GAplacement?5delete?$FL?$FN?5closure?8@ 0000000180027e48     libvcruntime:undname.obj
 0002:00003e68       ??_C@_0CG@CFDHKGGD@?$GAmanaged?5vector?5constructor?5ite@ 0000000180027e68     libvcruntime:undname.obj
 0002:00003e90       ??_C@_0CF@IMGKMJNO@?$GAmanaged?5vector?5destructor?5iter@ 0000000180027e90     libvcruntime:undname.obj
 0002:00003eb8       ??_C@_0CG@HLDDJMAG@?$GAeh?5vector?5copy?5constructor?5ite@ 0000000180027eb8     libvcruntime:undname.obj
 0002:00003ee0       ??_C@_0CM@FCBBDIGB@?$GAeh?5vector?5vbase?5copy?5construct@ 0000000180027ee0     libvcruntime:undname.obj
 0002:00003f10       ??_C@_0BL@CLIPGLGB@?$GAdynamic?5initializer?5for?5?8@ 0000000180027f10     libvcruntime:undname.obj
 0002:00003f30       ??_C@_0CB@PDBIFEP@?$GAdynamic?5atexit?5destructor?5for?5@ 0000000180027f30     libvcruntime:undname.obj
 0002:00003f58       ??_C@_0CD@CGAJBKEJ@?$GAvector?5copy?5constructor?5iterat@ 0000000180027f58     libvcruntime:undname.obj
 0002:00003f80       ??_C@_0CJ@GJELGAMM@?$GAvector?5vbase?5copy?5constructor?5@ 0000000180027f80     libvcruntime:undname.obj
 0002:00003fb0       ??_C@_0CL@FGIJHLCE@?$GAmanaged?5vector?5copy?5constructo@ 0000000180027fb0     libvcruntime:undname.obj
 0002:00003fe0       ??_C@_0BM@PMGGMLDN@?$GAlocal?5static?5thread?5guard?8@ 0000000180027fe0     libvcruntime:undname.obj
 0002:00004000       ??_C@_0N@BDNMDMOL@operator?5?$CC?$CC?5@ 0000000180028000     libvcruntime:undname.obj
 0002:00004010       ??_C@_0BC@GGEBGALA@operator?5co_await@ 0000000180028010     libvcruntime:undname.obj
 0002:00004028       ??_C@_0BC@DAFEJGAK@?5Type?5Descriptor?8@ 0000000180028028     libvcruntime:undname.obj
 0002:00004040       ??_C@_0BM@LDKODKLH@?5Base?5Class?5Descriptor?5at?5?$CI@ 0000000180028040     libvcruntime:undname.obj
 0002:00004060       ??_C@_0BD@LGICGFMM@?5Base?5Class?5Array?8@ 0000000180028060     libvcruntime:undname.obj
 0002:00004078       ??_C@_0BN@MECKDCOJ@?5Class?5Hierarchy?5Descriptor?8@ 0000000180028078     libvcruntime:undname.obj
 0002:00004098       ??_C@_0BK@CFCOFLF@?5Complete?5Object?5Locator?8@ 0000000180028098     libvcruntime:undname.obj
 0002:00004230       format_validation_lookup_table 0000000180028230     libucrt:output.obj
 0002:0000428c       ??_C@_06OJHGLDPL@?$CInull?$CJ?$AA@ 000000018002828c     libucrt:output.obj
 0002:00004298       ??_C@_1O@CEDCILHN@?$AA?$CI?$AAn?$AAu?$AAl?$AAl?$AA?$CJ?$AA?$AA@ 0000000180028298     libucrt:output.obj
 0002:000042b0       __acrt_exception_action_table 00000001800282b0     libucrt:exception_filter.obj
 0002:00004370       __acrt_signal_action_table_count 0000000180028370     libucrt:exception_filter.obj
 0002:00004378       __acrt_signal_action_first_fpe_index 0000000180028378     libucrt:exception_filter.obj
 0002:00004380       __acrt_signal_action_fpe_count 0000000180028380     libucrt:exception_filter.obj
 0002:00004388       ??_C@_1BI@BGOHAHKC@?$AAm?$AAs?$AAc?$AAo?$AAr?$AAe?$AAe?$AA?4?$AAd?$AAl?$AAl?$AA?$AA@ 0000000180028388     libucrt:exit.obj
 0002:000043a0       ??_C@_0P@MIGLKIOC@CorExitProcess?$AA@ 00000001800283a0     libucrt:exit.obj
 0002:00004540       ??_C@_1EG@CNNIPFIM@?$AAa?$AAp?$AAi?$AA?9?$AAm?$AAs?$AA?9?$AAw?$AAi?$AAn?$AA?9?$AAa?$AAp?$AAp?$AAm?$AAo?$AAd?$AAe?$AAl?$AA?9?$AAr?$AAu?$AAn?$AAt?$AAi?$AAm?$AAe?$AA?9?$AAl?$AA1?$AA?9?$AA1@ 0000000180028540     libucrt:winapi_thunks.obj
 0002:00004590       ??_C@_1EA@JGEFHKEI@?$AAa?$AAp?$AAi?$AA?9?$AAm?$AAs?$AA?9?$AAw?$AAi?$AAn?$AA?9?$AAc?$AAo?$AAr?$AAe?$AA?9?$AAd?$AAa?$AAt?$AAe?$AAt?$AAi?$AAm?$AAe?$AA?9?$AAl?$AA1?$AA?9?$AA1?$AA?9?$AA1?$AA?$AA@ 0000000180028590     libucrt:winapi_thunks.obj
 0002:000045d0       ??_C@_1DM@KHCHBNEB@?$AAa?$AAp?$AAi?$AA?9?$AAm?$AAs?$AA?9?$AAw?$AAi?$AAn?$AA?9?$AAc?$AAo?$AAr?$AAe?$AA?9?$AAf?$AAi?$AAb?$AAe?$AAr?$AAs?$AA?9?$AAl?$AA1?$AA?9?$AA1?$AA?9?$AA1?$AA?$AA@ 00000001800285d0     libucrt:winapi_thunks.obj
 0002:00004610       ??_C@_1DI@GCIAAENM@?$AAa?$AAp?$AAi?$AA?9?$AAm?$AAs?$AA?9?$AAw?$AAi?$AAn?$AA?9?$AAc?$AAo?$AAr?$AAe?$AA?9?$AAf?$AAi?$AAl?$AAe?$AA?9?$AAl?$AA2?$AA?9?$AA1?$AA?9?$AA1?$AA?$AA@ 0000000180028610     libucrt:winapi_thunks.obj
 0002:00004650       ??_C@_1EI@MPIAOHOC@?$AAa?$AAp?$AAi?$AA?9?$AAm?$AAs?$AA?9?$AAw?$AAi?$AAn?$AA?9?$AAc?$AAo?$AAr?$AAe?$AA?9?$AAl?$AAo?$AAc?$AAa?$AAl?$AAi?$AAz?$AAa?$AAt?$AAi?$AAo?$AAn?$AA?9?$AAl?$AA1?$AA?9@ 0000000180028650     libucrt:winapi_thunks.obj
 0002:000046a0       ??_C@_1FK@FPHCKFIE@?$AAa?$AAp?$AAi?$AA?9?$AAm?$AAs?$AA?9?$AAw?$AAi?$AAn?$AA?9?$AAc?$AAo?$AAr?$AAe?$AA?9?$AAl?$AAo?$AAc?$AAa?$AAl?$AAi?$AAz?$AAa?$AAt?$AAi?$AAo?$AAn?$AA?9?$AAo?$AAb?$AAs@ 00000001800286a0     libucrt:winapi_thunks.obj
 0002:00004700       ??_C@_1EM@DILCGIIO@?$AAa?$AAp?$AAi?$AA?9?$AAm?$AAs?$AA?9?$AAw?$AAi?$AAn?$AA?9?$AAc?$AAo?$AAr?$AAe?$AA?9?$AAp?$AAr?$AAo?$AAc?$AAe?$AAs?$AAs?$AAt?$AAh?$AAr?$AAe?$AAa?$AAd?$AAs?$AA?9?$AAl@ 0000000180028700     libucrt:winapi_thunks.obj
 0002:00004750       ??_C@_1DM@LNCGDDPN@?$AAa?$AAp?$AAi?$AA?9?$AAm?$AAs?$AA?9?$AAw?$AAi?$AAn?$AA?9?$AAc?$AAo?$AAr?$AAe?$AA?9?$AAs?$AAt?$AAr?$AAi?$AAn?$AAg?$AA?9?$AAl?$AA1?$AA?9?$AA1?$AA?9?$AA0?$AA?$AA@ 0000000180028750     libucrt:winapi_thunks.obj
 0002:00004790       ??_C@_1DK@LPPGFMPP@?$AAa?$AAp?$AAi?$AA?9?$AAm?$AAs?$AA?9?$AAw?$AAi?$AAn?$AA?9?$AAc?$AAo?$AAr?$AAe?$AA?9?$AAs?$AAy?$AAn?$AAc?$AAh?$AA?9?$AAl?$AA1?$AA?9?$AA2?$AA?9?$AA0?$AA?$AA@ 0000000180028790     libucrt:winapi_thunks.obj
 0002:000047d0       ??_C@_1DO@FPAPJEMD@?$AAa?$AAp?$AAi?$AA?9?$AAm?$AAs?$AA?9?$AAw?$AAi?$AAn?$AA?9?$AAc?$AAo?$AAr?$AAe?$AA?9?$AAs?$AAy?$AAs?$AAi?$AAn?$AAf?$AAo?$AA?9?$AAl?$AA1?$AA?9?$AA2?$AA?9?$AA1?$AA?$AA@ 00000001800287d0     libucrt:winapi_thunks.obj
 0002:00004810       ??_C@_1DK@NDHNAHIO@?$AAa?$AAp?$AAi?$AA?9?$AAm?$AAs?$AA?9?$AAw?$AAi?$AAn?$AA?9?$AAc?$AAo?$AAr?$AAe?$AA?9?$AAw?$AAi?$AAn?$AAr?$AAt?$AA?9?$AAl?$AA1?$AA?9?$AA1?$AA?9?$AA0?$AA?$AA@ 0000000180028810     libucrt:winapi_thunks.obj
 0002:00004850       ??_C@_1DM@KGHDGBCM@?$AAa?$AAp?$AAi?$AA?9?$AAm?$AAs?$AA?9?$AAw?$AAi?$AAn?$AA?9?$AAc?$AAo?$AAr?$AAe?$AA?9?$AAx?$AAs?$AAt?$AAa?$AAt?$AAe?$AA?9?$AAl?$AA2?$AA?9?$AA1?$AA?9?$AA0?$AA?$AA@ 0000000180028850     libucrt:winapi_thunks.obj
 0002:00004890       ??_C@_1EO@IJIOEFOH@?$AAa?$AAp?$AAi?$AA?9?$AAm?$AAs?$AA?9?$AAw?$AAi?$AAn?$AA?9?$AAr?$AAt?$AAc?$AAo?$AAr?$AAe?$AA?9?$AAn?$AAt?$AAu?$AAs?$AAe?$AAr?$AA?9?$AAw?$AAi?$AAn?$AAd?$AAo?$AAw?$AA?9@ 0000000180028890     libucrt:winapi_thunks.obj
 0002:000048e0       ??_C@_1FG@HHGEKANL@?$AAa?$AAp?$AAi?$AA?9?$AAm?$AAs?$AA?9?$AAw?$AAi?$AAn?$AA?9?$AAs?$AAe?$AAc?$AAu?$AAr?$AAi?$AAt?$AAy?$AA?9?$AAs?$AAy?$AAs?$AAt?$AAe?$AAm?$AAf?$AAu?$AAn?$AAc?$AAt?$AAi@ 00000001800288e0     libucrt:winapi_thunks.obj
 0002:00004940       ??_C@_1FG@NCKKOLKO@?$AAe?$AAx?$AAt?$AA?9?$AAm?$AAs?$AA?9?$AAw?$AAi?$AAn?$AA?9?$AAk?$AAe?$AAr?$AAn?$AAe?$AAl?$AA3?$AA2?$AA?9?$AAp?$AAa?$AAc?$AAk?$AAa?$AAg?$AAe?$AA?9?$AAc?$AAu?$AAr?$AAr@ 0000000180028940     libucrt:winapi_thunks.obj
 0002:000049a0       ??_C@_1EG@DBIOJECG@?$AAe?$AAx?$AAt?$AA?9?$AAm?$AAs?$AA?9?$AAw?$AAi?$AAn?$AA?9?$AAn?$AAt?$AAu?$AAs?$AAe?$AAr?$AA?9?$AAd?$AAi?$AAa?$AAl?$AAo?$AAg?$AAb?$AAo?$AAx?$AA?9?$AAl?$AA1?$AA?9?$AA1@ 00000001800289a0     libucrt:winapi_thunks.obj
 0002:000049f0       ??_C@_1EO@FIHMJCLF@?$AAe?$AAx?$AAt?$AA?9?$AAm?$AAs?$AA?9?$AAw?$AAi?$AAn?$AA?9?$AAn?$AAt?$AAu?$AAs?$AAe?$AAr?$AA?9?$AAw?$AAi?$AAn?$AAd?$AAo?$AAw?$AAs?$AAt?$AAa?$AAt?$AAi?$AAo?$AAn?$AA?9@ 00000001800289f0     libucrt:winapi_thunks.obj
 0002:00004a40       ??_C@_1BC@DNHGCMLG@?$AAa?$AAd?$AAv?$AAa?$AAp?$AAi?$AA3?$AA2?$AA?$AA@ 0000000180028a40     libucrt:winapi_thunks.obj
 0002:00004a58       ??_C@_1BC@GDMECMAK@?$AAk?$AAe?$AAr?$AAn?$AAe?$AAl?$AA3?$AA2?$AA?$AA@ 0000000180028a58     libucrt:winapi_thunks.obj
 0002:00004a70       ??_C@_1O@BCCLBEOE@?$AAu?$AAs?$AAe?$AAr?$AA3?$AA2?$AA?$AA@ 0000000180028a70     libucrt:winapi_thunks.obj
 0002:00004a88       ??_C@_08KNHFBNJ@FlsAlloc?$AA@ 0000000180028a88     libucrt:winapi_thunks.obj
 0002:00004aa0       ??_C@_07PEJMOBNF@FlsFree?$AA@ 0000000180028aa0     libucrt:winapi_thunks.obj
 0002:00004ab0       ??_C@_0M@GDNOONDI@FlsGetValue?$AA@ 0000000180028ab0     libucrt:winapi_thunks.obj
 0002:00004ac8       ??_C@_0M@JCPCPOEF@FlsSetValue?$AA@ 0000000180028ac8     libucrt:winapi_thunks.obj
 0002:00004ae0       ??_C@_0BE@JOGNEJCI@GetCurrentPackageId?$AA@ 0000000180028ae0     libucrt:winapi_thunks.obj
 0002:00004b00       ??_C@_0BM@HCFOFFN@InitializeCriticalSectionEx?$AA@ 0000000180028b00     libucrt:winapi_thunks.obj
 0002:00004b28       ??_C@_0O@KKBNKAPF@LCMapStringEx?$AA@ 0000000180028b28     libucrt:winapi_thunks.obj
 0002:00004b40       ??_C@_0BB@HBDEELFH@LocaleNameToLCID?$AA@ 0000000180028b40     libucrt:winapi_thunks.obj
 0002:00004b60       ??_C@_0BI@BKLFFAPO@SetThreadStackGuarantee?$AA@ 0000000180028b60     libucrt:winapi_thunks.obj
 0002:00004b78       ??_C@_03OEIAHPBN@INF?$AA@  0000000180028b78     libucrt:cvt.obj
 0002:00004b7c       ??_C@_03OJHLLCGB@inf?$AA@  0000000180028b7c     libucrt:cvt.obj
 0002:00004b80       ??_C@_03LKNCIKJB@NAN?$AA@  0000000180028b80     libucrt:cvt.obj
 0002:00004b84       ??_C@_03LHCJEHON@nan?$AA@  0000000180028b84     libucrt:cvt.obj
 0002:00004b88       ??_C@_09OFJJIMPC@NAN?$CISNAN?$CJ?$AA@ 0000000180028b88     libucrt:cvt.obj
 0002:00004b98       ??_C@_09IPFBKMDL@nan?$CIsnan?$CJ?$AA@ 0000000180028b98     libucrt:cvt.obj
 0002:00004ba8       ??_C@_08IKHNHAJ@NAN?$CIIND?$CJ?$AA@ 0000000180028ba8     libucrt:cvt.obj
 0002:00004bb8       ??_C@_08OFCDMILK@nan?$CIind?$CJ?$AA@ 0000000180028bb8     libucrt:cvt.obj
 0002:00004bc4       ??_C@_05KLBDPFGC@e?$CL000?$AA@ 0000000180028bc4     libucrt:cvt.obj
 0002:00004bd0       __lc_time_c                0000000180028bd0     libucrt:nlsdata.obj
 0002:00004e90       ??_C@_03KOEHGMDN@Sun?$AA@  0000000180028e90     libucrt:nlsdata.obj
 0002:00004e94       ??_C@_03PDAGKDH@Mon?$AA@   0000000180028e94     libucrt:nlsdata.obj
 0002:00004e98       ??_C@_03NAGEINEP@Tue?$AA@  0000000180028e98     libucrt:nlsdata.obj
 0002:00004e9c       ??_C@_03MHOMLAJA@Wed?$AA@  0000000180028e9c     libucrt:nlsdata.obj
 0002:00004ea0       ??_C@_03IOFIKPDN@Thu?$AA@  0000000180028ea0     libucrt:nlsdata.obj
 0002:00004ea4       ??_C@_03IDIOELNC@Fri?$AA@  0000000180028ea4     libucrt:nlsdata.obj
 0002:00004ea8       ??_C@_03FEFJNEK@Sat?$AA@   0000000180028ea8     libucrt:nlsdata.obj
 0002:00004eac       ??_C@_06OOPIFAJ@Sunday?$AA@ 0000000180028eac     libucrt:nlsdata.obj
 0002:00004eb4       ??_C@_06JLEDEDGH@Monday?$AA@ 0000000180028eb4     libucrt:nlsdata.obj
 0002:00004ec0       ??_C@_07BAAGCFCM@Tuesday?$AA@ 0000000180028ec0     libucrt:nlsdata.obj
 0002:00004ec8       ??_C@_09DLIGFAKA@Wednesday?$AA@ 0000000180028ec8     libucrt:nlsdata.obj
 0002:00004ed8       ??_C@_08HACCIKIA@Thursday?$AA@ 0000000180028ed8     libucrt:nlsdata.obj
 0002:00004ee4       ??_C@_06JECMNKMI@Friday?$AA@ 0000000180028ee4     libucrt:nlsdata.obj
 0002:00004ef0       ??_C@_08INBOOONO@Saturday?$AA@ 0000000180028ef0     libucrt:nlsdata.obj
 0002:00004efc       ??_C@_03JIHJHPIE@Jan?$AA@  0000000180028efc     libucrt:nlsdata.obj
 0002:00004f00       ??_C@_03HJBDCHOM@Feb?$AA@  0000000180028f00     libucrt:nlsdata.obj
 0002:00004f04       ??_C@_03ODNJBKGA@Mar?$AA@  0000000180028f04     libucrt:nlsdata.obj
 0002:00004f08       ??_C@_03LEOLGMJP@Apr?$AA@  0000000180028f08     libucrt:nlsdata.obj
 0002:00004f0c       ??_C@_03CNMDKL@May?$AA@    0000000180028f0c     libucrt:nlsdata.obj
 0002:00004f10       ??_C@_03IDFGHECI@Jun?$AA@  0000000180028f10     libucrt:nlsdata.obj
 0002:00004f14       ??_C@_03LBGABGKK@Jul?$AA@  0000000180028f14     libucrt:nlsdata.obj
 0002:00004f18       ??_C@_03IFJFEIGA@Aug?$AA@  0000000180028f18     libucrt:nlsdata.obj
 0002:00004f1c       ??_C@_03GGCAPAJC@Sep?$AA@  0000000180028f1c     libucrt:nlsdata.obj
 0002:00004f20       ??_C@_03BMAOKBAD@Oct?$AA@  0000000180028f20     libucrt:nlsdata.obj
 0002:00004f24       ??_C@_03JPJOFNIA@Nov?$AA@  0000000180028f24     libucrt:nlsdata.obj
 0002:00004f28       ??_C@_03MKABNOCG@Dec?$AA@  0000000180028f28     libucrt:nlsdata.obj
 0002:00004f30       ??_C@_07CGJPFGJA@January?$AA@ 0000000180028f30     libucrt:nlsdata.obj
 0002:00004f38       ??_C@_08GNJGEPFN@February?$AA@ 0000000180028f38     libucrt:nlsdata.obj
 0002:00004f44       ??_C@_05HPCKOFNC@March?$AA@ 0000000180028f44     libucrt:nlsdata.obj
 0002:00004f4c       ??_C@_05DMJDNLEJ@April?$AA@ 0000000180028f4c     libucrt:nlsdata.obj
 0002:00004f54       ??_C@_04CNLMGBGM@June?$AA@ 0000000180028f54     libucrt:nlsdata.obj
 0002:00004f5c       ??_C@_04MIEPOIFP@July?$AA@ 0000000180028f5c     libucrt:nlsdata.obj
 0002:00004f64       ??_C@_06LBBHFDDG@August?$AA@ 0000000180028f64     libucrt:nlsdata.obj
 0002:00004f70       ??_C@_09BHHEALKD@September?$AA@ 0000000180028f70     libucrt:nlsdata.obj
 0002:00004f80       ??_C@_07JJNFCEND@October?$AA@ 0000000180028f80     libucrt:nlsdata.obj
 0002:00004f88       ??_C@_08HCHEGEOA@November?$AA@ 0000000180028f88     libucrt:nlsdata.obj
 0002:00004f98       ??_C@_08EDHMEBNP@December?$AA@ 0000000180028f98     libucrt:nlsdata.obj
 0002:00004fa4       ??_C@_02DEDBPAFC@AM?$AA@   0000000180028fa4     libucrt:nlsdata.obj
 0002:00004fa8       ??_C@_02CJNFDJBF@PM?$AA@   0000000180028fa8     libucrt:nlsdata.obj
 0002:00004fb0       ??_C@_08BPBNCDIB@MM?1dd?1yy?$AA@ 0000000180028fb0     libucrt:nlsdata.obj
 0002:00004fc0       ??_C@_0BE@CKGJFCPC@dddd?0?5MMMM?5dd?0?5yyyy?$AA@ 0000000180028fc0     libucrt:nlsdata.obj
 0002:00004fd8       ??_C@_08JCCMCCIL@HH?3mm?3ss?$AA@ 0000000180028fd8     libucrt:nlsdata.obj
 0002:00004fe8       ??_C@_17MBGCMIPB@?$AAS?$AAu?$AAn?$AA?$AA@ 0000000180028fe8     libucrt:nlsdata.obj
 0002:00004ff0       ??_C@_17KBOMKBF@?$AAM?$AAo?$AAn?$AA?$AA@ 0000000180028ff0     libucrt:nlsdata.obj
 0002:00004ff8       ??_C@_17BMKGEGOJ@?$AAT?$AAu?$AAe?$AA?$AA@ 0000000180028ff8     libucrt:nlsdata.obj
 0002:00005000       ??_C@_17CJEDCEPE@?$AAW?$AAe?$AAd?$AA?$AA@ 0000000180029000     libucrt:nlsdata.obj
 0002:00005008       ??_C@_17PDPHAADD@?$AAT?$AAh?$AAu?$AA?$AA@ 0000000180029008     libucrt:nlsdata.obj
 0002:00005010       ??_C@_17HFOLPPLP@?$AAF?$AAr?$AAi?$AA?$AA@ 0000000180029010     libucrt:nlsdata.obj
 0002:00005018       ??_C@_17GGIBDPIH@?$AAS?$AAa?$AAt?$AA?$AA@ 0000000180029018     libucrt:nlsdata.obj
 0002:00005020       ??_C@_1O@IHNHDHPB@?$AAS?$AAu?$AAn?$AAd?$AAa?$AAy?$AA?$AA@ 0000000180029020     libucrt:nlsdata.obj
 0002:00005030       ??_C@_1O@MMNBFLIA@?$AAM?$AAo?$AAn?$AAd?$AAa?$AAy?$AA?$AA@ 0000000180029030     libucrt:nlsdata.obj
 0002:00005040       ??_C@_1BA@ENFBFFEK@?$AAT?$AAu?$AAe?$AAs?$AAd?$AAa?$AAy?$AA?$AA@ 0000000180029040     libucrt:nlsdata.obj
 0002:00005050       ??_C@_1BE@EBOGMDOH@?$AAW?$AAe?$AAd?$AAn?$AAe?$AAs?$AAd?$AAa?$AAy?$AA?$AA@ 0000000180029050     libucrt:nlsdata.obj
 0002:00005068       ??_C@_1BC@HHMNLIHE@?$AAT?$AAh?$AAu?$AAr?$AAs?$AAd?$AAa?$AAy?$AA?$AA@ 0000000180029068     libucrt:nlsdata.obj
 0002:00005080       ??_C@_1O@PDICJHAG@?$AAF?$AAr?$AAi?$AAd?$AAa?$AAy?$AA?$AA@ 0000000180029080     libucrt:nlsdata.obj
 0002:00005090       ??_C@_1BC@ENMNNPAJ@?$AAS?$AAa?$AAt?$AAu?$AAr?$AAd?$AAa?$AAy?$AA?$AA@ 0000000180029090     libucrt:nlsdata.obj
 0002:000050a8       ??_C@_17DKNBKCHM@?$AAJ?$AAa?$AAn?$AA?$AA@ 00000001800290a8     libucrt:nlsdata.obj
 0002:000050b0       ??_C@_17LMDJEKJN@?$AAF?$AAe?$AAb?$AA?$AA@ 00000001800290b0     libucrt:nlsdata.obj
 0002:000050b8       ??_C@_17CKNLEDEC@?$AAM?$AAa?$AAr?$AA?$AA@ 00000001800290b8     libucrt:nlsdata.obj
 0002:000050c0       ??_C@_17LFPOIHDD@?$AAA?$AAp?$AAr?$AA?$AA@ 00000001800290c0     libucrt:nlsdata.obj
 0002:000050c8       ??_C@_17PNNKMEED@?$AAM?$AAa?$AAy?$AA?$AA@ 00000001800290c8     libucrt:nlsdata.obj
 0002:000050d0       ??_C@_17KCJGOCPB@?$AAJ?$AAu?$AAn?$AA?$AA@ 00000001800290d0     libucrt:nlsdata.obj
 0002:000050d8       ??_C@_17IJPCKHK@?$AAJ?$AAu?$AAl?$AA?$AA@ 00000001800290d8     libucrt:nlsdata.obj
 0002:000050e0       ??_C@_17ICPELBCN@?$AAA?$AAu?$AAg?$AA?$AA@ 00000001800290e0     libucrt:nlsdata.obj
 0002:000050e8       ??_C@_17HCHCOKMG@?$AAS?$AAe?$AAp?$AA?$AA@ 00000001800290e8     libucrt:nlsdata.obj
 0002:000050f0       ??_C@_17FNLKOI@?$AAO?$AAc?$AAt?$AA?$AA@ 00000001800290f0     libucrt:nlsdata.obj
 0002:000050f8       ??_C@_17BBDMLCIG@?$AAN?$AAo?$AAv?$AA?$AA@ 00000001800290f8     libucrt:nlsdata.obj
 0002:00005100       ??_C@_17EGKACKIF@?$AAD?$AAe?$AAc?$AA?$AA@ 0000000180029100     libucrt:nlsdata.obj
 0002:00005108       ??_C@_1BA@EFMEIEBA@?$AAJ?$AAa?$AAn?$AAu?$AAa?$AAr?$AAy?$AA?$AA@ 0000000180029108     libucrt:nlsdata.obj
 0002:00005118       ??_C@_1BC@JGDDFFAM@?$AAF?$AAe?$AAb?$AAr?$AAu?$AAa?$AAr?$AAy?$AA?$AA@ 0000000180029118     libucrt:nlsdata.obj
 0002:00005130       ??_C@_1M@IKEENEDF@?$AAM?$AAa?$AAr?$AAc?$AAh?$AA?$AA@ 0000000180029130     libucrt:nlsdata.obj
 0002:00005140       ??_C@_1M@GJNLMHFD@?$AAA?$AAp?$AAr?$AAi?$AAl?$AA?$AA@ 0000000180029140     libucrt:nlsdata.obj
 0002:00005150       ??_C@_19EPFLPGAP@?$AAJ?$AAu?$AAn?$AAe?$AA?$AA@ 0000000180029150     libucrt:nlsdata.obj
 0002:00005160       ??_C@_19BIFMLPCD@?$AAJ?$AAu?$AAl?$AAy?$AA?$AA@ 0000000180029160     libucrt:nlsdata.obj
 0002:00005170       ??_C@_1O@PAHLKOAC@?$AAA?$AAu?$AAg?$AAu?$AAs?$AAt?$AA?$AA@ 0000000180029170     libucrt:nlsdata.obj
 0002:00005180       ??_C@_1BE@DKAAMBJL@?$AAS?$AAe?$AAp?$AAt?$AAe?$AAm?$AAb?$AAe?$AAr?$AA?$AA@ 0000000180029180     libucrt:nlsdata.obj
 0002:00005198       ??_C@_1BA@EPANDLNG@?$AAO?$AAc?$AAt?$AAo?$AAb?$AAe?$AAr?$AA?$AA@ 0000000180029198     libucrt:nlsdata.obj
 0002:000051a8       ??_C@_1BC@BGLIFPF@?$AAN?$AAo?$AAv?$AAe?$AAm?$AAb?$AAe?$AAr?$AA?$AA@ 00000001800291a8     libucrt:nlsdata.obj
 0002:000051c0       ??_C@_1BC@FEMKIFH@?$AAD?$AAe?$AAc?$AAe?$AAm?$AAb?$AAe?$AAr?$AA?$AA@ 00000001800291c0     libucrt:nlsdata.obj
 0002:000051d4       ??_C@_15ODEHAHHF@?$AAA?$AAM?$AA?$AA@ 00000001800291d4     libucrt:nlsdata.obj
 0002:000051dc       ??_C@_15CLMNNGEL@?$AAP?$AAM?$AA?$AA@ 00000001800291dc     libucrt:nlsdata.obj
 0002:000051e8       ??_C@_1BC@IEBCMHCM@?$AAM?$AAM?$AA?1?$AAd?$AAd?$AA?1?$AAy?$AAy?$AA?$AA@ 00000001800291e8     libucrt:nlsdata.obj
 0002:00005200       ??_C@_1CI@KNAKOEBC@?$AAd?$AAd?$AAd?$AAd?$AA?0?$AA?5?$AAM?$AAM?$AAM?$AAM?$AA?5?$AAd?$AAd?$AA?0?$AA?5?$AAy?$AAy?$AAy?$AAy?$AA?$AA@ 0000000180029200     libucrt:nlsdata.obj
 0002:00005228       ??_C@_1BC@GDGBMEMK@?$AAH?$AAH?$AA?3?$AAm?$AAm?$AA?3?$AAs?$AAs?$AA?$AA@ 0000000180029228     libucrt:nlsdata.obj
 0002:00005240       ??_C@_1M@BMHNFIME@?$AAe?$AAn?$AA?9?$AAU?$AAS?$AA?$AA@ 0000000180029240     libucrt:nlsdata.obj
 0002:00005270       ??_C@_1M@HPNHIDJI@?$AAj?$AAa?$AA?9?$AAJ?$AAP?$AA?$AA@ 0000000180029270     libucrt:mbctype.obj
 0002:00005280       ??_C@_1M@BIBDDEMK@?$AAz?$AAh?$AA?9?$AAC?$AAN?$AA?$AA@ 0000000180029280     libucrt:mbctype.obj
 0002:00005290       ??_C@_1M@JLOOOEGK@?$AAk?$AAo?$AA?9?$AAK?$AAR?$AA?$AA@ 0000000180029290     libucrt:mbctype.obj
 0002:000052a0       ??_C@_1M@CLNBBOPM@?$AAz?$AAh?$AA?9?$AAT?$AAW?$AA?$AA@ 00000001800292a0     libucrt:mbctype.obj
 0002:000052b0       __newctype                 00000001800292b0     libucrt:ctype.obj
 0002:000055b0       __newclmap                 00000001800295b0     libucrt:ctype.obj
 0002:00005730       __newcumap                 0000000180029730     libucrt:ctype.obj
 0002:000058b0       _wctype                    00000001800298b0     libucrt:ctype.obj
 0002:00006900       ??_C@_15EMKDOKLE@?$AAa?$AAr?$AA?$AA@ 000000018002a900     libucrt:lcidtoname_downlevel.obj
 0002:00006908       ??_C@_15KNPADPLH@?$AAb?$AAg?$AA?$AA@ 000000018002a908     libucrt:lcidtoname_downlevel.obj
 0002:00006910       ??_C@_15EDMHLDMO@?$AAc?$AAa?$AA?$AA@ 000000018002a910     libucrt:lcidtoname_downlevel.obj
 0002:00006918       ??_C@_1O@BPEAJADD@?$AAz?$AAh?$AA?9?$AAC?$AAH?$AAS?$AA?$AA@ 000000018002a918     libucrt:lcidtoname_downlevel.obj
 0002:00006928       ??_C@_15LJNHCMNK@?$AAc?$AAs?$AA?$AA@ 000000018002a928     libucrt:lcidtoname_downlevel.obj
 0002:00006930       ??_C@_15FOMCIDHG@?$AAd?$AAa?$AA?$AA@ 000000018002a930     libucrt:lcidtoname_downlevel.obj
 0002:00006938       ??_C@_15NBKABECB@?$AAd?$AAe?$AA?$AA@ 000000018002a938     libucrt:lcidtoname_downlevel.obj
 0002:00006940       ??_C@_15GHPEIIAO@?$AAe?$AAl?$AA?$AA@ 000000018002a940     libucrt:lcidtoname_downlevel.obj
 0002:00006948       ??_C@_15MNPNEAIF@?$AAe?$AAn?$AA?$AA@ 000000018002a948     libucrt:lcidtoname_downlevel.obj
 0002:00006950       ??_C@_15GPIOMPMH@?$AAe?$AAs?$AA?$AA@ 000000018002a950     libucrt:lcidtoname_downlevel.obj
 0002:00006958       ??_C@_15NGLOAKJC@?$AAf?$AAi?$AA?$AA@ 000000018002a958     libucrt:lcidtoname_downlevel.obj
 0002:00006960       ??_C@_15FBKGNKAM@?$AAf?$AAr?$AA?$AA@ 000000018002a960     libucrt:lcidtoname_downlevel.obj
 0002:00006968       ??_C@_15KGGCNEFK@?$AAh?$AAe?$AA?$AA@ 000000018002a968     libucrt:lcidtoname_downlevel.obj
 0002:00006970       ??_C@_15PGHLIDMF@?$AAh?$AAu?$AA?$AA@ 000000018002a970     libucrt:lcidtoname_downlevel.obj
 0002:00006978       ??_C@_15BIEMAPLM@?$AAi?$AAs?$AA?$AA@ 000000018002a978     libucrt:lcidtoname_downlevel.obj
 0002:00006980       ??_C@_15IFJLDHAF@?$AAi?$AAt?$AA?$AA@ 000000018002a980     libucrt:lcidtoname_downlevel.obj
 0002:00006988       ??_C@_15GEMIOCAG@?$AAj?$AAa?$AA?$AA@ 000000018002a988     libucrt:lcidtoname_downlevel.obj
 0002:00006990       ??_C@_15EPELEGJA@?$AAk?$AAo?$AA?$AA@ 000000018002a990     libucrt:lcidtoname_downlevel.obj
 0002:00006998       ??_C@_15NDDHIMN@?$AAn?$AAl?$AA?$AA@ 000000018002a998     libucrt:lcidtoname_downlevel.obj
 0002:000069a0       ??_C@_15BPIGNHCD@?$AAn?$AAo?$AA?$AA@ 000000018002a9a0     libucrt:lcidtoname_downlevel.obj
 0002:000069a8       ??_C@_15DEOPBLCG@?$AAp?$AAl?$AA?$AA@ 000000018002a9a8     libucrt:lcidtoname_downlevel.obj
 0002:000069b0       ??_C@_15KBECGEFG@?$AAp?$AAt?$AA?$AA@ 000000018002a9b0     libucrt:lcidtoname_downlevel.obj
 0002:000069b8       ??_C@_15GLJCBFMD@?$AAr?$AAo?$AA?$AA@ 000000018002a9b8     libucrt:lcidtoname_downlevel.obj
 0002:000069c0       ??_C@_15FEDGKCDI@?$AAr?$AAu?$AA?$AA@ 000000018002a9c0     libucrt:lcidtoname_downlevel.obj
 0002:000069c8       ??_C@_15GLKMLLHM@?$AAh?$AAr?$AA?$AA@ 000000018002a9c8     libucrt:lcidtoname_downlevel.obj
 0002:000069d0       ??_C@_15CPKMFBDB@?$AAs?$AAk?$AA?$AA@ 000000018002a9d0     libucrt:lcidtoname_downlevel.obj
 0002:000069d8       ??_C@_15BAAIOGMK@?$AAs?$AAq?$AA?$AA@ 000000018002a9d8     libucrt:lcidtoname_downlevel.obj
 0002:000069e0       ??_C@_15INNPNOHD@?$AAs?$AAv?$AA?$AA@ 000000018002a9e0     libucrt:lcidtoname_downlevel.obj
 0002:000069e8       ??_C@_15CABMMOGH@?$AAt?$AAh?$AA?$AA@ 000000018002a9e8     libucrt:lcidtoname_downlevel.obj
 0002:000069f0       ??_C@_15BPLIHJJM@?$AAt?$AAr?$AA?$AA@ 000000018002a9f0     libucrt:lcidtoname_downlevel.obj
 0002:000069f8       ??_C@_15NEOEKKDJ@?$AAu?$AAr?$AA?$AA@ 000000018002a9f8     libucrt:lcidtoname_downlevel.obj
 0002:00006a00       ??_C@_15NFICGAJK@?$AAi?$AAd?$AA?$AA@ 000000018002aa00     libucrt:lcidtoname_downlevel.obj
 0002:00006a08       ??_C@_15PJPFLCCM@?$AAu?$AAk?$AA?$AA@ 000000018002aa08     libucrt:lcidtoname_downlevel.obj
 0002:00006a10       ??_C@_15HPJPHDM@?$AAb?$AAe?$AA?$AA@ 000000018002aa10     libucrt:lcidtoname_downlevel.obj
 0002:00006a18       ??_C@_15LCHLGJII@?$AAs?$AAl?$AA?$AA@ 000000018002aa18     libucrt:lcidtoname_downlevel.obj
 0002:00006a20       ??_C@_15PCFJPHHO@?$AAe?$AAt?$AA?$AA@ 000000018002aa20     libucrt:lcidtoname_downlevel.obj
 0002:00006a28       ??_C@_15HPFPGODN@?$AAl?$AAv?$AA?$AA@ 000000018002aa28     libucrt:lcidtoname_downlevel.obj
 0002:00006a30       ??_C@_15NFFGKGLG@?$AAl?$AAt?$AA?$AA@ 000000018002aa30     libucrt:lcidtoname_downlevel.obj
 0002:00006a38       ??_C@_15BDAKCCHN@?$AAf?$AAa?$AA?$AA@ 000000018002aa38     libucrt:lcidtoname_downlevel.obj
 0002:00006a40       ??_C@_15NFGIAIAJ@?$AAv?$AAi?$AA?$AA@ 000000018002aa40     libucrt:lcidtoname_downlevel.obj
 0002:00006a48       ??_C@_15LMKNDMHN@?$AAh?$AAy?$AA?$AA@ 000000018002aa48     libucrt:lcidtoname_downlevel.obj
 0002:00006a50       ??_C@_15IJBHMCFL@?$AAa?$AAz?$AA?$AA@ 000000018002aa50     libucrt:lcidtoname_downlevel.obj
 0002:00006a58       ??_C@_15EKOFJABL@?$AAe?$AAu?$AA?$AA@ 000000018002aa58     libucrt:lcidtoname_downlevel.obj
 0002:00006a60       ??_C@_15BGHADCNK@?$AAm?$AAk?$AA?$AA@ 000000018002aa60     libucrt:lcidtoname_downlevel.obj
 0002:00006a68       ??_C@_15JDNICKHM@?$AAa?$AAf?$AA?$AA@ 000000018002aa68     libucrt:lcidtoname_downlevel.obj
 0002:00006a70       ??_C@_15KPJEDBKD@?$AAk?$AAa?$AA?$AA@ 000000018002aa70     libucrt:lcidtoname_downlevel.obj
 0002:00006a78       ??_C@_15PDNFFFEO@?$AAf?$AAo?$AA?$AA@ 000000018002aa78     libucrt:lcidtoname_downlevel.obj
 0002:00006a80       ??_C@_15OMLEGLOC@?$AAh?$AAi?$AA?$AA@ 000000018002aa80     libucrt:lcidtoname_downlevel.obj
 0002:00006a88       ??_C@_15IDNNENKK@?$AAm?$AAs?$AA?$AA@ 000000018002aa88     libucrt:lcidtoname_downlevel.obj
 0002:00006a90       ??_C@_15MACJNBMH@?$AAk?$AAk?$AA?$AA@ 000000018002aa90     libucrt:lcidtoname_downlevel.obj
 0002:00006a98       ??_C@_15DKDJEOND@?$AAk?$AAy?$AA?$AA@ 000000018002aa98     libucrt:lcidtoname_downlevel.obj
 0002:00006aa0       ??_C@_15DFGDLJBG@?$AAs?$AAw?$AA?$AA@ 000000018002aaa0     libucrt:lcidtoname_downlevel.obj
 0002:00006aa8       ??_C@_15BBFAICNG@?$AAu?$AAz?$AA?$AA@ 000000018002aaa8     libucrt:lcidtoname_downlevel.obj
 0002:00006ab0       ??_C@_15DKNDCGEA@?$AAt?$AAt?$AA?$AA@ 000000018002aab0     libucrt:lcidtoname_downlevel.obj
 0002:00006ab8       ??_C@_15MGIFMDPL@?$AAp?$AAa?$AA?$AA@ 000000018002aab8     libucrt:lcidtoname_downlevel.obj
 0002:00006ac0       ??_C@_15HCNDBBA@?$AAg?$AAu?$AA?$AA@ 000000018002aac0     libucrt:lcidtoname_downlevel.obj
 0002:00006ac8       ??_C@_15FNBEIBON@?$AAt?$AAa?$AA?$AA@ 000000018002aac8     libucrt:lcidtoname_downlevel.obj
 0002:00006ad0       ??_C@_15NCHGBGLK@?$AAt?$AAe?$AA?$AA@ 000000018002aad0     libucrt:lcidtoname_downlevel.obj
 0002:00006ad8       ??_C@_15PHPHCBPF@?$AAk?$AAn?$AA?$AA@ 000000018002aad8     libucrt:lcidtoname_downlevel.obj
 0002:00006ae0       ??_C@_15DLGBCKMP@?$AAm?$AAr?$AA?$AA@ 000000018002aae0     libucrt:lcidtoname_downlevel.obj
 0002:00006ae8       ??_C@_15EABBLBFF@?$AAs?$AAa?$AA?$AA@ 000000018002aae8     libucrt:lcidtoname_downlevel.obj
 0002:00006af0       ??_C@_15CBKOMCOI@?$AAm?$AAn?$AA?$AA@ 000000018002aaf0     libucrt:lcidtoname_downlevel.obj
 0002:00006af8       ??_C@_15CKDMCJAF@?$AAg?$AAl?$AA?$AA@ 000000018002aaf8     libucrt:lcidtoname_downlevel.obj
 0002:00006b00       ??_C@_17CNJFBPG@?$AAk?$AAo?$AAk?$AA?$AA@ 000000018002ab00     libucrt:lcidtoname_downlevel.obj
 0002:00006b08       ??_C@_17FFBJICPL@?$AAs?$AAy?$AAr?$AA?$AA@ 000000018002ab08     libucrt:lcidtoname_downlevel.obj
 0002:00006b10       ??_C@_17KPNDCPAF@?$AAd?$AAi?$AAv?$AA?$AA@ 000000018002ab10     libucrt:lcidtoname_downlevel.obj
 0002:00006b18       ??_C@_11LOCGONAA@?$AA?$AA@ 000000018002ab18     libucrt:lcidtoname_downlevel.obj
 0002:00006b20       ??_C@_1M@OKAHONE@?$AAa?$AAr?$AA?9?$AAS?$AAA?$AA?$AA@ 000000018002ab20     libucrt:lcidtoname_downlevel.obj
 0002:00006b30       ??_C@_1M@FFFIGIGK@?$AAb?$AAg?$AA?9?$AAB?$AAG?$AA?$AA@ 000000018002ab30     libucrt:lcidtoname_downlevel.obj
 0002:00006b40       ??_C@_1M@BJNKEDC@?$AAc?$AAa?$AA?9?$AAE?$AAS?$AA?$AA@ 000000018002ab40     libucrt:lcidtoname_downlevel.obj
 0002:00006b50       ??_C@_1M@IJJHFJHA@?$AAc?$AAs?$AA?9?$AAC?$AAZ?$AA?$AA@ 000000018002ab50     libucrt:lcidtoname_downlevel.obj
 0002:00006b60       ??_C@_1M@CLPEOBGI@?$AAd?$AAa?$AA?9?$AAD?$AAK?$AA?$AA@ 000000018002ab60     libucrt:lcidtoname_downlevel.obj
 0002:00006b70       ??_C@_1M@MCMADGCB@?$AAd?$AAe?$AA?9?$AAD?$AAE?$AA?$AA@ 000000018002ab70     libucrt:lcidtoname_downlevel.obj
 0002:00006b80       ??_C@_1M@OOCKEMAM@?$AAe?$AAl?$AA?9?$AAG?$AAR?$AA?$AA@ 000000018002ab80     libucrt:lcidtoname_downlevel.obj
 0002:00006b90       ??_C@_1M@DDNJFGID@?$AAf?$AAi?$AA?9?$AAF?$AAI?$AA?$AA@ 000000018002ab90     libucrt:lcidtoname_downlevel.obj
 0002:00006ba0       ??_C@_1M@GLIPPMAC@?$AAf?$AAr?$AA?9?$AAF?$AAR?$AA?$AA@ 000000018002aba0     libucrt:lcidtoname_downlevel.obj
 0002:00006bb0       ??_C@_1M@GFMCHPE@?$AAh?$AAe?$AA?9?$AAI?$AAL?$AA?$AA@ 000000018002abb0     libucrt:lcidtoname_downlevel.obj
 0002:00006bc0       ??_C@_1M@MHLPGNKM@?$AAh?$AAu?$AA?9?$AAH?$AAU?$AA?$AA@ 000000018002abc0     libucrt:lcidtoname_downlevel.obj
 0002:00006bd0       ??_C@_1M@LPDDNNPN@?$AAi?$AAs?$AA?9?$AAI?$AAS?$AA?$AA@ 000000018002abd0     libucrt:lcidtoname_downlevel.obj
 0002:00006be0       ??_C@_1M@MADIPODN@?$AAi?$AAt?$AA?9?$AAI?$AAT?$AA?$AA@ 000000018002abe0     libucrt:lcidtoname_downlevel.obj
 0002:00006bf0       ??_C@_1M@IHBJJGG@?$AAn?$AAl?$AA?9?$AAN?$AAL?$AA?$AA@ 000000018002abf0     libucrt:lcidtoname_downlevel.obj
 0002:00006c00       ??_C@_1M@EANAGDL@?$AAn?$AAb?$AA?9?$AAN?$AAO?$AA?$AA@ 000000018002ac00     libucrt:lcidtoname_downlevel.obj
 0002:00006c10       ??_C@_1M@NEIEMEGP@?$AAp?$AAl?$AA?9?$AAP?$AAL?$AA?$AA@ 000000018002ac10     libucrt:lcidtoname_downlevel.obj
 0002:00006c20       ??_C@_1M@BOCFIGEP@?$AAp?$AAt?$AA?9?$AAB?$AAR?$AA?$AA@ 000000018002ac20     libucrt:lcidtoname_downlevel.obj
 0002:00006c30       ??_C@_1M@IMPFOPBG@?$AAr?$AAo?$AA?9?$AAR?$AAO?$AA?$AA@ 000000018002ac30     libucrt:lcidtoname_downlevel.obj
 0002:00006c40       ??_C@_1M@IDNNEJMM@?$AAr?$AAu?$AA?9?$AAR?$AAU?$AA?$AA@ 000000018002ac40     libucrt:lcidtoname_downlevel.obj
 0002:00006c50       ??_C@_1M@LILEEOGM@?$AAh?$AAr?$AA?9?$AAH?$AAR?$AA?$AA@ 000000018002ac50     libucrt:lcidtoname_downlevel.obj
 0002:00006c60       ??_C@_1M@FKIFEHPB@?$AAs?$AAk?$AA?9?$AAS?$AAK?$AA?$AA@ 000000018002ac60     libucrt:lcidtoname_downlevel.obj
 0002:00006c70       ??_C@_1M@LJMAMNPJ@?$AAs?$AAq?$AA?9?$AAA?$AAL?$AA?$AA@ 000000018002ac70     libucrt:lcidtoname_downlevel.obj
 0002:00006c80       ??_C@_1M@GIAKDKJK@?$AAs?$AAv?$AA?9?$AAS?$AAE?$AA?$AA@ 000000018002ac80     libucrt:lcidtoname_downlevel.obj
 0002:00006c90       ??_C@_1M@MKJKIKCL@?$AAt?$AAh?$AA?9?$AAT?$AAH?$AA?$AA@ 000000018002ac90     libucrt:lcidtoname_downlevel.obj
 0002:00006ca0       ??_C@_1M@MFLCCMPB@?$AAt?$AAr?$AA?9?$AAT?$AAR?$AA?$AA@ 000000018002aca0     libucrt:lcidtoname_downlevel.obj
 0002:00006cb0       ??_C@_1M@OIJHDKJN@?$AAu?$AAr?$AA?9?$AAP?$AAK?$AA?$AA@ 000000018002acb0     libucrt:lcidtoname_downlevel.obj
 0002:00006cc0       ??_C@_1M@LHIPCIEK@?$AAi?$AAd?$AA?9?$AAI?$AAD?$AA?$AA@ 000000018002acc0     libucrt:lcidtoname_downlevel.obj
 0002:00006cd0       ??_C@_1M@MFMOBGI@?$AAu?$AAk?$AA?9?$AAU?$AAA?$AA?$AA@ 000000018002acd0     libucrt:lcidtoname_downlevel.obj
 0002:00006ce0       ??_C@_1M@OBGLJIPL@?$AAb?$AAe?$AA?9?$AAB?$AAY?$AA?$AA@ 000000018002ace0     libucrt:lcidtoname_downlevel.obj
 0002:00006cf0       ??_C@_1M@BCFAJEAD@?$AAs?$AAl?$AA?9?$AAS?$AAI?$AA?$AA@ 000000018002acf0     libucrt:lcidtoname_downlevel.obj
 0002:00006d00       ??_C@_1M@FKFFEDDN@?$AAe?$AAt?$AA?9?$AAE?$AAE?$AA?$AA@ 000000018002ad00     libucrt:lcidtoname_downlevel.obj
 0002:00006d10       ??_C@_1M@KGKKAACI@?$AAl?$AAv?$AA?9?$AAL?$AAV?$AA?$AA@ 000000018002ad10     libucrt:lcidtoname_downlevel.obj
 0002:00006d20       ??_C@_1M@IFGBIJO@?$AAl?$AAt?$AA?9?$AAL?$AAT?$AA?$AA@ 000000018002ad20     libucrt:lcidtoname_downlevel.obj
 0002:00006d30       ??_C@_1M@FGEAHEDM@?$AAf?$AAa?$AA?9?$AAI?$AAR?$AA?$AA@ 000000018002ad30     libucrt:lcidtoname_downlevel.obj
 0002:00006d40       ??_C@_1M@KBMAIBFN@?$AAv?$AAi?$AA?9?$AAV?$AAN?$AA?$AA@ 000000018002ad40     libucrt:lcidtoname_downlevel.obj
 0002:00006d50       ??_C@_1M@GPCBKDJK@?$AAh?$AAy?$AA?9?$AAA?$AAM?$AA?$AA@ 000000018002ad50     libucrt:lcidtoname_downlevel.obj
 0002:00006d60       ??_C@_1BG@BECMDDJB@?$AAa?$AAz?$AA?9?$AAA?$AAZ?$AA?9?$AAL?$AAa?$AAt?$AAn?$AA?$AA@ 000000018002ad60     libucrt:lcidtoname_downlevel.obj
 0002:00006d78       ??_C@_1M@MAOFCAEA@?$AAe?$AAu?$AA?9?$AAE?$AAS?$AA?$AA@ 000000018002ad78     libucrt:lcidtoname_downlevel.obj
 0002:00006d88       ??_C@_1M@IGHABKPI@?$AAm?$AAk?$AA?9?$AAM?$AAK?$AA?$AA@ 000000018002ad88     libucrt:lcidtoname_downlevel.obj
 0002:00006d98       ??_C@_1M@IAIGNEJG@?$AAt?$AAn?$AA?9?$AAZ?$AAA?$AA?$AA@ 000000018002ad98     libucrt:lcidtoname_downlevel.obj
 0002:00006da8       ??_C@_1M@IIJCOJFA@?$AAx?$AAh?$AA?9?$AAZ?$AAA?$AA?$AA@ 000000018002ada8     libucrt:lcidtoname_downlevel.obj
 0002:00006db8       ??_C@_1M@LGPJHNJH@?$AAz?$AAu?$AA?9?$AAZ?$AAA?$AA?$AA@ 000000018002adb8     libucrt:lcidtoname_downlevel.obj
 0002:00006dc8       ??_C@_1M@HOKAOIO@?$AAa?$AAf?$AA?9?$AAZ?$AAA?$AA?$AA@ 000000018002adc8     libucrt:lcidtoname_downlevel.obj
 0002:00006dd8       ??_C@_1M@DPCLHLIE@?$AAk?$AAa?$AA?9?$AAG?$AAE?$AA?$AA@ 000000018002add8     libucrt:lcidtoname_downlevel.obj
 0002:00006de8       ??_C@_1M@BLKMHJBI@?$AAf?$AAo?$AA?9?$AAF?$AAO?$AA?$AA@ 000000018002ade8     libucrt:lcidtoname_downlevel.obj
 0002:00006df8       ??_C@_1M@LGGJAPPB@?$AAh?$AAi?$AA?9?$AAI?$AAN?$AA?$AA@ 000000018002adf8     libucrt:lcidtoname_downlevel.obj
 0002:00006e08       ??_C@_1M@FIKPIHFE@?$AAm?$AAt?$AA?9?$AAM?$AAT?$AA?$AA@ 000000018002ae08     libucrt:lcidtoname_downlevel.obj
 0002:00006e18       ??_C@_1M@HEGGPBFA@?$AAs?$AAe?$AA?9?$AAN?$AAO?$AA?$AA@ 000000018002ae18     libucrt:lcidtoname_downlevel.obj
 0002:00006e28       ??_C@_1M@EIBJEEPA@?$AAm?$AAs?$AA?9?$AAM?$AAY?$AA?$AA@ 000000018002ae28     libucrt:lcidtoname_downlevel.obj
 0002:00006e38       ??_C@_1M@FHLBGMPP@?$AAk?$AAk?$AA?9?$AAK?$AAZ?$AA?$AA@ 000000018002ae38     libucrt:lcidtoname_downlevel.obj
 0002:00006e48       ??_C@_1M@NGJJLCGI@?$AAk?$AAy?$AA?9?$AAK?$AAG?$AA?$AA@ 000000018002ae48     libucrt:lcidtoname_downlevel.obj
 0002:00006e58       ??_C@_1M@GIENNBFC@?$AAs?$AAw?$AA?9?$AAK?$AAE?$AA?$AA@ 000000018002ae58     libucrt:lcidtoname_downlevel.obj
 0002:00006e68       ??_C@_1BG@NDGMJIMJ@?$AAu?$AAz?$AA?9?$AAU?$AAZ?$AA?9?$AAL?$AAa?$AAt?$AAn?$AA?$AA@ 000000018002ae68     libucrt:lcidtoname_downlevel.obj
 0002:00006e80       ??_C@_1M@IDCCIHBC@?$AAt?$AAt?$AA?9?$AAR?$AAU?$AA?$AA@ 000000018002ae80     libucrt:lcidtoname_downlevel.obj
 0002:00006e90       ??_C@_1M@LOICPMOJ@?$AAb?$AAn?$AA?9?$AAI?$AAN?$AA?$AA@ 000000018002ae90     libucrt:lcidtoname_downlevel.obj
 0002:00006ea0       ??_C@_1M@KPKKNEAH@?$AAp?$AAa?$AA?9?$AAI?$AAN?$AA?$AA@ 000000018002aea0     libucrt:lcidtoname_downlevel.obj
 0002:00006eb0       ??_C@_1M@PJGPPBOG@?$AAg?$AAu?$AA?9?$AAI?$AAN?$AA?$AA@ 000000018002aeb0     libucrt:lcidtoname_downlevel.obj
 0002:00006ec0       ??_C@_1M@KMKMOPHI@?$AAt?$AAa?$AA?9?$AAI?$AAN?$AA?$AA@ 000000018002aec0     libucrt:lcidtoname_downlevel.obj
 0002:00006ed0       ??_C@_1M@KFEHEPAC@?$AAt?$AAe?$AA?9?$AAI?$AAN?$AA?$AA@ 000000018002aed0     libucrt:lcidtoname_downlevel.obj
 0002:00006ee0       ??_C@_1M@CDCLMGHI@?$AAk?$AAn?$AA?9?$AAI?$AAN?$AA?$AA@ 000000018002aee0     libucrt:lcidtoname_downlevel.obj
 0002:00006ef0       ??_C@_1M@MIODLDKF@?$AAm?$AAl?$AA?9?$AAI?$AAN?$AA?$AA@ 000000018002aef0     libucrt:lcidtoname_downlevel.obj
 0002:00006f00       ??_C@_1M@PBIEACPO@?$AAm?$AAr?$AA?9?$AAI?$AAN?$AA?$AA@ 000000018002af00     libucrt:lcidtoname_downlevel.obj
 0002:00006f10       ??_C@_1M@NIDEAGPH@?$AAs?$AAa?$AA?9?$AAI?$AAN?$AA?$AA@ 000000018002af10     libucrt:lcidtoname_downlevel.obj
 0002:00006f20       ??_C@_1M@FHIHCBIO@?$AAm?$AAn?$AA?9?$AAM?$AAN?$AA?$AA@ 000000018002af20     libucrt:lcidtoname_downlevel.obj
 0002:00006f30       ??_C@_1M@JAIJPENP@?$AAc?$AAy?$AA?9?$AAG?$AAB?$AA?$AA@ 000000018002af30     libucrt:lcidtoname_downlevel.obj
 0002:00006f40       ??_C@_1M@PHGFBEPN@?$AAg?$AAl?$AA?9?$AAE?$AAS?$AA?$AA@ 000000018002af40     libucrt:lcidtoname_downlevel.obj
 0002:00006f50       ??_C@_1O@KPIPDNCP@?$AAk?$AAo?$AAk?$AA?9?$AAI?$AAN?$AA?$AA@ 000000018002af50     libucrt:lcidtoname_downlevel.obj
 0002:00006f60       ??_C@_1O@KNHJLDJA@?$AAs?$AAy?$AAr?$AA?9?$AAS?$AAY?$AA?$AA@ 000000018002af60     libucrt:lcidtoname_downlevel.obj
 0002:00006f70       ??_C@_1O@MKEKBLAH@?$AAd?$AAi?$AAv?$AA?9?$AAM?$AAV?$AA?$AA@ 000000018002af70     libucrt:lcidtoname_downlevel.obj
 0002:00006f80       ??_C@_1O@OHDCKDDF@?$AAq?$AAu?$AAz?$AA?9?$AAB?$AAO?$AA?$AA@ 000000018002af80     libucrt:lcidtoname_downlevel.obj
 0002:00006f90       ??_C@_1M@LEPJNLFD@?$AAn?$AAs?$AA?9?$AAZ?$AAA?$AA?$AA@ 000000018002af90     libucrt:lcidtoname_downlevel.obj
 0002:00006fa0       ??_C@_1M@OMLEIIJB@?$AAm?$AAi?$AA?9?$AAN?$AAZ?$AA?$AA@ 000000018002afa0     libucrt:lcidtoname_downlevel.obj
 0002:00006fb0       ??_C@_1M@PMPEAILG@?$AAa?$AAr?$AA?9?$AAI?$AAQ?$AA?$AA@ 000000018002afb0     libucrt:lcidtoname_downlevel.obj
 0002:00006fc0       ??_C@_1M@CNKPNOEE@?$AAd?$AAe?$AA?9?$AAC?$AAH?$AA?$AA@ 000000018002afc0     libucrt:lcidtoname_downlevel.obj
 0002:00006fd0       ??_C@_1M@LKMGMLKO@?$AAe?$AAn?$AA?9?$AAG?$AAB?$AA?$AA@ 000000018002afd0     libucrt:lcidtoname_downlevel.obj
 0002:00006fe0       ??_C@_1M@PGKJFFGL@?$AAe?$AAs?$AA?9?$AAM?$AAX?$AA?$AA@ 000000018002afe0     libucrt:lcidtoname_downlevel.obj
 0002:00006ff0       ??_C@_1M@DNNANBDC@?$AAf?$AAr?$AA?9?$AAB?$AAE?$AA?$AA@ 000000018002aff0     libucrt:lcidtoname_downlevel.obj
 0002:00007000       ??_C@_1M@HLGMDFHM@?$AAi?$AAt?$AA?9?$AAC?$AAH?$AA?$AA@ 000000018002b000     libucrt:lcidtoname_downlevel.obj
 0002:00007010       ??_C@_1M@CLLBGJH@?$AAn?$AAl?$AA?9?$AAB?$AAE?$AA?$AA@ 000000018002b010     libucrt:lcidtoname_downlevel.obj
 0002:00007020       ??_C@_1M@BODBOGLF@?$AAn?$AAn?$AA?9?$AAN?$AAO?$AA?$AA@ 000000018002b020     libucrt:lcidtoname_downlevel.obj
 0002:00007030       ??_C@_1M@HFFAHKAD@?$AAp?$AAt?$AA?9?$AAP?$AAT?$AA?$AA@ 000000018002b030     libucrt:lcidtoname_downlevel.obj
 0002:00007040       ??_C@_1BG@LNOAKHIE@?$AAs?$AAr?$AA?9?$AAS?$AAP?$AA?9?$AAL?$AAa?$AAt?$AAn?$AA?$AA@ 000000018002b040     libucrt:lcidtoname_downlevel.obj
 0002:00007058       ??_C@_1M@HBMHBGAK@?$AAs?$AAv?$AA?9?$AAF?$AAI?$AA?$AA@ 000000018002b058     libucrt:lcidtoname_downlevel.obj
 0002:00007068       ??_C@_1BG@DGCJGJBE@?$AAa?$AAz?$AA?9?$AAA?$AAZ?$AA?9?$AAC?$AAy?$AAr?$AAl?$AA?$AA@ 000000018002b068     libucrt:lcidtoname_downlevel.obj
 0002:00007080       ??_C@_1M@KEJDAAHB@?$AAs?$AAe?$AA?9?$AAS?$AAE?$AA?$AA@ 000000018002b080     libucrt:lcidtoname_downlevel.obj
 0002:00007090       ??_C@_1M@HEIBJJAD@?$AAm?$AAs?$AA?9?$AAB?$AAN?$AA?$AA@ 000000018002b090     libucrt:lcidtoname_downlevel.obj
 0002:000070a0       ??_C@_1BG@PBGJMCEM@?$AAu?$AAz?$AA?9?$AAU?$AAZ?$AA?9?$AAC?$AAy?$AAr?$AAl?$AA?$AA@ 000000018002b0a0     libucrt:lcidtoname_downlevel.obj
 0002:000070b8       ??_C@_1O@LAOBCMDF@?$AAq?$AAu?$AAz?$AA?9?$AAE?$AAC?$AA?$AA@ 000000018002b0b8     libucrt:lcidtoname_downlevel.obj
 0002:000070c8       ??_C@_1M@POEEMAIO@?$AAa?$AAr?$AA?9?$AAE?$AAG?$AA?$AA@ 000000018002b0c8     libucrt:lcidtoname_downlevel.obj
 0002:000070d8       ??_C@_1M@EFAKDEDL@?$AAz?$AAh?$AA?9?$AAH?$AAK?$AA?$AA@ 000000018002b0d8     libucrt:lcidtoname_downlevel.obj
 0002:000070e8       ??_C@_1M@HKKIJHGI@?$AAd?$AAe?$AA?9?$AAA?$AAT?$AA?$AA@ 000000018002b0e8     libucrt:lcidtoname_downlevel.obj
 0002:000070f8       ??_C@_1M@KBFBEHJF@?$AAe?$AAn?$AA?9?$AAA?$AAU?$AA?$AA@ 000000018002b0f8     libucrt:lcidtoname_downlevel.obj
 0002:00007108       ??_C@_1M@MNPLFAAH@?$AAe?$AAs?$AA?9?$AAE?$AAS?$AA?$AA@ 000000018002b108     libucrt:lcidtoname_downlevel.obj
 0002:00007118       ??_C@_1M@HJOOJFMA@?$AAf?$AAr?$AA?9?$AAC?$AAA?$AA?$AA@ 000000018002b118     libucrt:lcidtoname_downlevel.obj
 0002:00007128       ??_C@_1BG@JPOFPNAB@?$AAs?$AAr?$AA?9?$AAS?$AAP?$AA?9?$AAC?$AAy?$AAr?$AAl?$AA?$AA@ 000000018002b128     libucrt:lcidtoname_downlevel.obj
 0002:00007140       ??_C@_1M@LNFOCMOB@?$AAs?$AAe?$AA?9?$AAF?$AAI?$AA?$AA@ 000000018002b140     libucrt:lcidtoname_downlevel.obj
 0002:00007150       ??_C@_1O@MGJBOAMB@?$AAq?$AAu?$AAz?$AA?9?$AAP?$AAE?$AA?$AA@ 000000018002b150     libucrt:lcidtoname_downlevel.obj
 0002:00007160       ??_C@_1M@GJINLBOK@?$AAa?$AAr?$AA?9?$AAL?$AAY?$AA?$AA@ 000000018002b160     libucrt:lcidtoname_downlevel.obj
 0002:00007170       ??_C@_1M@GGMNHJNL@?$AAz?$AAh?$AA?9?$AAS?$AAG?$AA?$AA@ 000000018002b170     libucrt:lcidtoname_downlevel.obj
 0002:00007180       ??_C@_1M@HOIKODND@?$AAd?$AAe?$AA?9?$AAL?$AAU?$AA?$AA@ 000000018002b180     libucrt:lcidtoname_downlevel.obj
 0002:00007190       ??_C@_1M@DDOCCGFG@?$AAe?$AAn?$AA?9?$AAC?$AAA?$AA?$AA@ 000000018002b190     libucrt:lcidtoname_downlevel.obj
 0002:000071a0       ??_C@_1M@BNOEMJLF@?$AAe?$AAs?$AA?9?$AAG?$AAT?$AA?$AA@ 000000018002b1a0     libucrt:lcidtoname_downlevel.obj
 0002:000071b0       ??_C@_1M@EOGNKEK@?$AAf?$AAr?$AA?9?$AAC?$AAH?$AA?$AA@ 000000018002b1b0     libucrt:lcidtoname_downlevel.obj
 0002:000071c0       ??_C@_1M@FLIDJFHL@?$AAh?$AAr?$AA?9?$AAB?$AAA?$AA?$AA@ 000000018002b1c0     libucrt:lcidtoname_downlevel.obj
 0002:000071d0       ??_C@_1O@FMCELNAJ@?$AAs?$AAm?$AAj?$AA?9?$AAN?$AAO?$AA?$AA@ 000000018002b1d0     libucrt:lcidtoname_downlevel.obj
 0002:000071e0       ??_C@_1M@JHGLJMGJ@?$AAa?$AAr?$AA?9?$AAD?$AAZ?$AA?$AA@ 000000018002b1e0     libucrt:lcidtoname_downlevel.obj
 0002:000071f0       ??_C@_1M@JKKFDCNP@?$AAz?$AAh?$AA?9?$AAM?$AAO?$AA?$AA@ 000000018002b1f0     libucrt:lcidtoname_downlevel.obj
 0002:00007200       ??_C@_1M@GEEFALPE@?$AAd?$AAe?$AA?9?$AAL?$AAI?$AA?$AA@ 000000018002b200     libucrt:lcidtoname_downlevel.obj
 0002:00007210       ??_C@_1M@IGEOFBG@?$AAe?$AAn?$AA?9?$AAN?$AAZ?$AA?$AA@ 000000018002b210     libucrt:lcidtoname_downlevel.obj
 0002:00007220       ??_C@_1M@KDBONEHP@?$AAe?$AAs?$AA?9?$AAC?$AAR?$AA?$AA@ 000000018002b220     libucrt:lcidtoname_downlevel.obj
 0002:00007230       ??_C@_1M@FHMDOHNN@?$AAf?$AAr?$AA?9?$AAL?$AAU?$AA?$AA@ 000000018002b230     libucrt:lcidtoname_downlevel.obj
 0002:00007240       ??_C@_1BG@NFKKMAFG@?$AAb?$AAs?$AA?9?$AAB?$AAA?$AA?9?$AAL?$AAa?$AAt?$AAn?$AA?$AA@ 000000018002b240     libucrt:lcidtoname_downlevel.obj
 0002:00007258       ??_C@_1O@IMNBEMCI@?$AAs?$AAm?$AAj?$AA?9?$AAS?$AAE?$AA?$AA@ 000000018002b258     libucrt:lcidtoname_downlevel.obj
 0002:00007268       ??_C@_1M@DHHMBNDP@?$AAa?$AAr?$AA?9?$AAM?$AAA?$AA?$AA@ 000000018002b268     libucrt:lcidtoname_downlevel.obj
 0002:00007278       ??_C@_1M@BNBLJCGH@?$AAe?$AAn?$AA?9?$AAI?$AAE?$AA?$AA@ 000000018002b278     libucrt:lcidtoname_downlevel.obj
 0002:00007288       ??_C@_1M@GEPAFMDL@?$AAe?$AAs?$AA?9?$AAP?$AAA?$AA?$AA@ 000000018002b288     libucrt:lcidtoname_downlevel.obj
 0002:00007298       ??_C@_1M@OJONDMDL@?$AAf?$AAr?$AA?9?$AAM?$AAC?$AA?$AA@ 000000018002b298     libucrt:lcidtoname_downlevel.obj
 0002:000072a8       ??_C@_1BG@OBCNFJB@?$AAs?$AAr?$AA?9?$AAB?$AAA?$AA?9?$AAL?$AAa?$AAt?$AAn?$AA?$AA@ 000000018002b2a8     libucrt:lcidtoname_downlevel.obj
 0002:000072c0       ??_C@_1O@KEMEEGPO@?$AAs?$AAm?$AAa?$AA?9?$AAN?$AAO?$AA?$AA@ 000000018002b2c0     libucrt:lcidtoname_downlevel.obj
 0002:000072d0       ??_C@_1M@ELMGFODK@?$AAa?$AAr?$AA?9?$AAT?$AAN?$AA?$AA@ 000000018002b2d0     libucrt:lcidtoname_downlevel.obj
 0002:000072e0       ??_C@_1M@BHDLHFAF@?$AAe?$AAn?$AA?9?$AAZ?$AAA?$AA?$AA@ 000000018002b2e0     libucrt:lcidtoname_downlevel.obj
 0002:000072f0       ??_C@_1M@BMGIGLIF@?$AAe?$AAs?$AA?9?$AAD?$AAO?$AA?$AA@ 000000018002b2f0     libucrt:lcidtoname_downlevel.obj
 0002:00007300       ??_C@_1BG@CMBHIPBE@?$AAs?$AAr?$AA?9?$AAB?$AAA?$AA?9?$AAC?$AAy?$AAr?$AAl?$AA?$AA@ 000000018002b300     libucrt:lcidtoname_downlevel.obj
 0002:00007318       ??_C@_1O@HEDBLHNP@?$AAs?$AAm?$AAa?$AA?9?$AAS?$AAE?$AA?$AA@ 000000018002b318     libucrt:lcidtoname_downlevel.obj
 0002:00007328       ??_C@_1M@DAGCADIM@?$AAa?$AAr?$AA?9?$AAO?$AAM?$AA?$AA@ 000000018002b328     libucrt:lcidtoname_downlevel.obj
 0002:00007338       ??_C@_1M@FODLMICG@?$AAe?$AAn?$AA?9?$AAJ?$AAM?$AA?$AA@ 000000018002b338     libucrt:lcidtoname_downlevel.obj
 0002:00007348       ??_C@_1M@DNMLCIHB@?$AAe?$AAs?$AA?9?$AAV?$AAE?$AA?$AA@ 000000018002b348     libucrt:lcidtoname_downlevel.obj
 0002:00007358       ??_C@_1O@EOKHMKJK@?$AAs?$AAm?$AAs?$AA?9?$AAF?$AAI?$AA?$AA@ 000000018002b358     libucrt:lcidtoname_downlevel.obj
 0002:00007368       ??_C@_1M@CAFJMKOF@?$AAa?$AAr?$AA?9?$AAY?$AAE?$AA?$AA@ 000000018002b368     libucrt:lcidtoname_downlevel.obj
 0002:00007378       ??_C@_1M@CBFHIJLI@?$AAe?$AAn?$AA?9?$AAC?$AAB?$AA?$AA@ 000000018002b378     libucrt:lcidtoname_downlevel.obj
 0002:00007388       ??_C@_1M@BGNFLDN@?$AAe?$AAs?$AA?9?$AAC?$AAO?$AA?$AA@ 000000018002b388     libucrt:lcidtoname_downlevel.obj
 0002:00007398       ??_C@_1O@JMPHMAMC@?$AAs?$AAm?$AAn?$AA?9?$AAF?$AAI?$AA?$AA@ 000000018002b398     libucrt:lcidtoname_downlevel.obj
 0002:000073a8       ??_C@_1M@JLANABKE@?$AAa?$AAr?$AA?9?$AAS?$AAY?$AA?$AA@ 000000018002b3a8     libucrt:lcidtoname_downlevel.obj
 0002:000073b8       ??_C@_1M@HPKGCFGN@?$AAe?$AAn?$AA?9?$AAB?$AAZ?$AA?$AA@ 000000018002b3b8     libucrt:lcidtoname_downlevel.obj
 0002:000073c8       ??_C@_1M@OLJCMLGM@?$AAe?$AAs?$AA?9?$AAP?$AAE?$AA?$AA@ 000000018002b3c8     libucrt:lcidtoname_downlevel.obj
 0002:000073d8       ??_C@_1M@MKKGFKLE@?$AAa?$AAr?$AA?9?$AAJ?$AAO?$AA?$AA@ 000000018002b3d8     libucrt:lcidtoname_downlevel.obj
 0002:000073e8       ??_C@_1M@EKPGLDNI@?$AAe?$AAn?$AA?9?$AAT?$AAT?$AA?$AA@ 000000018002b3e8     libucrt:lcidtoname_downlevel.obj
 0002:000073f8       ??_C@_1M@OONGHFHE@?$AAe?$AAs?$AA?9?$AAA?$AAR?$AA?$AA@ 000000018002b3f8     libucrt:lcidtoname_downlevel.obj
 0002:00007408       ??_C@_1M@OOJFGBHE@?$AAa?$AAr?$AA?9?$AAL?$AAB?$AA?$AA@ 000000018002b408     libucrt:lcidtoname_downlevel.obj
 0002:00007418       ??_C@_1M@GCEJHNEG@?$AAe?$AAn?$AA?9?$AAZ?$AAW?$AA?$AA@ 000000018002b418     libucrt:lcidtoname_downlevel.obj
 0002:00007428       ??_C@_1M@JNOCAHJI@?$AAe?$AAs?$AA?9?$AAE?$AAC?$AA?$AA@ 000000018002b428     libucrt:lcidtoname_downlevel.obj
 0002:00007438       ??_C@_1M@JEFHPGGB@?$AAa?$AAr?$AA?9?$AAK?$AAW?$AA?$AA@ 000000018002b438     libucrt:lcidtoname_downlevel.obj
 0002:00007448       ??_C@_1M@MLKIBJOJ@?$AAe?$AAn?$AA?9?$AAP?$AAH?$AA?$AA@ 000000018002b448     libucrt:lcidtoname_downlevel.obj
 0002:00007458       ??_C@_1M@BDNIPEND@?$AAe?$AAs?$AA?9?$AAC?$AAL?$AA?$AA@ 000000018002b458     libucrt:lcidtoname_downlevel.obj
 0002:00007468       ??_C@_1M@MPNMEKBD@?$AAa?$AAr?$AA?9?$AAA?$AAE?$AA?$AA@ 000000018002b468     libucrt:lcidtoname_downlevel.obj
 0002:00007478       ??_C@_1M@KBJALCPI@?$AAe?$AAs?$AA?9?$AAU?$AAY?$AA?$AA@ 000000018002b478     libucrt:lcidtoname_downlevel.obj
 0002:00007488       ??_C@_1M@LLCCOAGA@?$AAa?$AAr?$AA?9?$AAB?$AAH?$AA?$AA@ 000000018002b488     libucrt:lcidtoname_downlevel.obj
 0002:00007498       ??_C@_1M@PBFNCDEL@?$AAe?$AAs?$AA?9?$AAP?$AAY?$AA?$AA@ 000000018002b498     libucrt:lcidtoname_downlevel.obj
 0002:000074a8       ??_C@_1M@EDGINPNP@?$AAa?$AAr?$AA?9?$AAQ?$AAA?$AA?$AA@ 000000018002b4a8     libucrt:lcidtoname_downlevel.obj
 0002:000074b8       ??_C@_1M@MKDBIIJI@?$AAe?$AAs?$AA?9?$AAB?$AAO?$AA?$AA@ 000000018002b4b8     libucrt:lcidtoname_downlevel.obj
 0002:000074c8       ??_C@_1M@CPKKEBLD@?$AAe?$AAs?$AA?9?$AAS?$AAV?$AA?$AA@ 000000018002b4c8     libucrt:lcidtoname_downlevel.obj
 0002:000074d8       ??_C@_1M@NDBGMMJL@?$AAe?$AAs?$AA?9?$AAH?$AAN?$AA?$AA@ 000000018002b4d8     libucrt:lcidtoname_downlevel.obj
 0002:000074e8       ??_C@_1M@JIJIBHDP@?$AAe?$AAs?$AA?9?$AAN?$AAI?$AA?$AA@ 000000018002b4e8     libucrt:lcidtoname_downlevel.obj
 0002:000074f8       ??_C@_1M@CGFMKEEK@?$AAe?$AAs?$AA?9?$AAP?$AAR?$AA?$AA@ 000000018002b4f8     libucrt:lcidtoname_downlevel.obj
 0002:00007508       ??_C@_1O@ICJHKIIK@?$AAz?$AAh?$AA?9?$AAC?$AAH?$AAT?$AA?$AA@ 000000018002b508     libucrt:lcidtoname_downlevel.obj
 0002:00007518       ??_C@_15CLNEJCE@?$AAs?$AAr?$AA?$AA@ 000000018002b518     libucrt:lcidtoname_downlevel.obj
 0002:00008360       ??_C@_1M@KAHEKEIG@?$AAa?$AAf?$AA?9?$AAz?$AAa?$AA?$AA@ 000000018002c360     libucrt:lcidtoname_downlevel.obj
 0002:00008370       ??_C@_1M@GIECOABL@?$AAa?$AAr?$AA?9?$AAa?$AAe?$AA?$AA@ 000000018002c370     libucrt:lcidtoname_downlevel.obj
 0002:00008380       ??_C@_1M@BMLMEKGI@?$AAa?$AAr?$AA?9?$AAb?$AAh?$AA?$AA@ 000000018002c380     libucrt:lcidtoname_downlevel.obj
 0002:00008390       ??_C@_1M@DAPFDGGB@?$AAa?$AAr?$AA?9?$AAd?$AAz?$AA?$AA@ 000000018002c390     libucrt:lcidtoname_downlevel.obj
 0002:000083a0       ??_C@_1M@FJNKGKIG@?$AAa?$AAr?$AA?9?$AAe?$AAg?$AA?$AA@ 000000018002c3a0     libucrt:lcidtoname_downlevel.obj
 0002:000083b0       ??_C@_1M@FLGKKCLO@?$AAa?$AAr?$AA?9?$AAi?$AAq?$AA?$AA@ 000000018002c3b0     libucrt:lcidtoname_downlevel.obj
 0002:000083c0       ??_C@_1M@GNDIPALM@?$AAa?$AAr?$AA?9?$AAj?$AAo?$AA?$AA@ 000000018002c3c0     libucrt:lcidtoname_downlevel.obj
 0002:000083d0       ??_C@_1M@DDMJFMGJ@?$AAa?$AAr?$AA?9?$AAk?$AAw?$AA?$AA@ 000000018002c3d0     libucrt:lcidtoname_downlevel.obj
 0002:000083e0       ??_C@_1M@EJALMLHM@?$AAa?$AAr?$AA?9?$AAl?$AAb?$AA?$AA@ 000000018002c3e0     libucrt:lcidtoname_downlevel.obj
 0002:000083f0       ??_C@_1M@MOBDBLOC@?$AAa?$AAr?$AA?9?$AAl?$AAy?$AA?$AA@ 000000018002c3f0     libucrt:lcidtoname_downlevel.obj
 0002:00008400       ??_C@_1M@JAOCLHDH@?$AAa?$AAr?$AA?9?$AAm?$AAa?$AA?$AA@ 000000018002c400     libucrt:lcidtoname_downlevel.obj
 0002:00008410       ??_C@_1M@JHPMKJIE@?$AAa?$AAr?$AA?9?$AAo?$AAm?$AA?$AA@ 000000018002c410     libucrt:lcidtoname_downlevel.obj
 0002:00008420       ??_C@_1M@OEPGHFNH@?$AAa?$AAr?$AA?9?$AAq?$AAa?$AA?$AA@ 000000018002c420     libucrt:lcidtoname_downlevel.obj
 0002:00008430       ??_C@_1M@KJDONENM@?$AAa?$AAr?$AA?9?$AAs?$AAa?$AA?$AA@ 000000018002c430     libucrt:lcidtoname_downlevel.obj
 0002:00008440       ??_C@_1M@DMJDKLKM@?$AAa?$AAr?$AA?9?$AAs?$AAy?$AA?$AA@ 000000018002c440     libucrt:lcidtoname_downlevel.obj
 0002:00008450       ??_C@_1M@OMFIPEDC@?$AAa?$AAr?$AA?9?$AAt?$AAn?$AA?$AA@ 000000018002c450     libucrt:lcidtoname_downlevel.obj
 0002:00008460       ??_C@_1M@IHMHGAON@?$AAa?$AAr?$AA?9?$AAy?$AAe?$AA?$AA@ 000000018002c460     libucrt:lcidtoname_downlevel.obj
 0002:00008470       ??_C@_1BG@KDCPGJGB@?$AAa?$AAz?$AA?9?$AAa?$AAz?$AA?9?$AAc?$AAy?$AAr?$AAl?$AA?$AA@ 000000018002c470     libucrt:lcidtoname_downlevel.obj
 0002:00008488       ??_C@_1BG@IBCKDDOE@?$AAa?$AAz?$AA?9?$AAa?$AAz?$AA?9?$AAl?$AAa?$AAt?$AAn?$AA?$AA@ 000000018002c488     libucrt:lcidtoname_downlevel.obj
 0002:000084a0       ??_C@_1M@EGPFDCPD@?$AAb?$AAe?$AA?9?$AAb?$AAy?$AA?$AA@ 000000018002c4a0     libucrt:lcidtoname_downlevel.obj
 0002:000084b0       ??_C@_1M@PCMGMCGC@?$AAb?$AAg?$AA?9?$AAb?$AAg?$AA?$AA@ 000000018002c4b0     libucrt:lcidtoname_downlevel.obj
 0002:000084c0       ??_C@_1M@BJBMFGOB@?$AAb?$AAn?$AA?9?$AAi?$AAn?$AA?$AA@ 000000018002c4c0     libucrt:lcidtoname_downlevel.obj
 0002:000084d0       ??_C@_1BG@EAKMMACD@?$AAb?$AAs?$AA?9?$AAb?$AAa?$AA?9?$AAl?$AAa?$AAt?$AAn?$AA?$AA@ 000000018002c4d0     libucrt:lcidtoname_downlevel.obj
 0002:000084e8       ??_C@_1M@KGADAODK@?$AAc?$AAa?$AA?9?$AAe?$AAs?$AA?$AA@ 000000018002c4e8     libucrt:lcidtoname_downlevel.obj
 0002:000084f8       ??_C@_1M@COAJPDHI@?$AAc?$AAs?$AA?9?$AAc?$AAz?$AA?$AA@ 000000018002c4f8     libucrt:lcidtoname_downlevel.obj
 0002:00008508       ??_C@_1M@DHBHFONH@?$AAc?$AAy?$AA?9?$AAg?$AAb?$AA?$AA@ 000000018002c508     libucrt:lcidtoname_downlevel.obj
 0002:00008518       ??_C@_1M@IMGKELGA@?$AAd?$AAa?$AA?9?$AAd?$AAk?$AA?$AA@ 000000018002c518     libucrt:lcidtoname_downlevel.obj
 0002:00008528       ??_C@_1M@NNDGDNGA@?$AAd?$AAe?$AA?9?$AAa?$AAt?$AA?$AA@ 000000018002c528     libucrt:lcidtoname_downlevel.obj
 0002:00008538       ??_C@_1M@IKDBHEEM@?$AAd?$AAe?$AA?9?$AAc?$AAh?$AA?$AA@ 000000018002c538     libucrt:lcidtoname_downlevel.obj
 0002:00008548       ??_C@_1M@GFFOJMCJ@?$AAd?$AAe?$AA?9?$AAd?$AAe?$AA?$AA@ 000000018002c548     libucrt:lcidtoname_downlevel.obj
 0002:00008558       ??_C@_1M@MDNLKBPM@?$AAd?$AAe?$AA?9?$AAl?$AAi?$AA?$AA@ 000000018002c558     libucrt:lcidtoname_downlevel.obj
 0002:00008568       ??_C@_1M@NJBEEJNL@?$AAd?$AAe?$AA?9?$AAl?$AAu?$AA?$AA@ 000000018002c568     libucrt:lcidtoname_downlevel.obj
 0002:00008578       ??_C@_1O@GNNELBAP@?$AAd?$AAi?$AAv?$AA?9?$AAm?$AAv?$AA?$AA@ 000000018002c578     libucrt:lcidtoname_downlevel.obj
 0002:00008588       ??_C@_1M@EJLEOGAE@?$AAe?$AAl?$AA?9?$AAg?$AAr?$AA?$AA@ 000000018002c588     libucrt:lcidtoname_downlevel.obj
 0002:00008598       ??_C@_1M@GMPONJN@?$AAe?$AAn?$AA?9?$AAa?$AAu?$AA?$AA@ 000000018002c598     libucrt:lcidtoname_downlevel.obj
 0002:000085a8       ??_C@_1M@NIDIIPGF@?$AAe?$AAn?$AA?9?$AAb?$AAz?$AA?$AA@ 000000018002c5a8     libucrt:lcidtoname_downlevel.obj
 0002:000085b8       ??_C@_1M@JEHMIMFO@?$AAe?$AAn?$AA?9?$AAc?$AAa?$AA?$AA@ 000000018002c5b8     libucrt:lcidtoname_downlevel.obj
 0002:000085c8       ??_C@_1M@IGMJCDLA@?$AAe?$AAn?$AA?9?$AAc?$AAb?$AA?$AA@ 000000018002c5c8     libucrt:lcidtoname_downlevel.obj
 0002:000085d8       ??_C@_1M@BNFIGBKG@?$AAe?$AAn?$AA?9?$AAg?$AAb?$AA?$AA@ 000000018002c5d8     libucrt:lcidtoname_downlevel.obj
 0002:000085e8       ??_C@_1M@LKIFDIGP@?$AAe?$AAn?$AA?9?$AAi?$AAe?$AA?$AA@ 000000018002c5e8     libucrt:lcidtoname_downlevel.obj
 0002:000085f8       ??_C@_1M@PJKFGCCO@?$AAe?$AAn?$AA?9?$AAj?$AAm?$AA?$AA@ 000000018002c5f8     libucrt:lcidtoname_downlevel.obj
 0002:00008608       ??_C@_1M@KPPKEPBO@?$AAe?$AAn?$AA?9?$AAn?$AAz?$AA?$AA@ 000000018002c608     libucrt:lcidtoname_downlevel.obj
 0002:00008618       ??_C@_1M@GMDGLDOB@?$AAe?$AAn?$AA?9?$AAp?$AAh?$AA?$AA@ 000000018002c618     libucrt:lcidtoname_downlevel.obj
 0002:00008628       ??_C@_1M@ONGIBJNA@?$AAe?$AAn?$AA?9?$AAt?$AAt?$AA?$AA@ 000000018002c628     libucrt:lcidtoname_downlevel.obj
 0002:00008638       ??_C@_1M@LLODPCMM@?$AAe?$AAn?$AA?9?$AAu?$AAs?$AA?$AA@ 000000018002c638     libucrt:lcidtoname_downlevel.obj
 0002:00008648       ??_C@_1M@LAKFNPAN@?$AAe?$AAn?$AA?9?$AAz?$AAa?$AA?$AA@ 000000018002c648     libucrt:lcidtoname_downlevel.obj
 0002:00008658       ??_C@_1M@MFNHNHEO@?$AAe?$AAn?$AA?9?$AAz?$AAw?$AA?$AA@ 000000018002c658     libucrt:lcidtoname_downlevel.obj
 0002:00008668       ??_C@_1M@EJEINPHM@?$AAe?$AAs?$AA?9?$AAa?$AAr?$AA?$AA@ 000000018002c668     libucrt:lcidtoname_downlevel.obj
 0002:00008678       ??_C@_1M@GNKPCCJA@?$AAe?$AAs?$AA?9?$AAb?$AAo?$AA?$AA@ 000000018002c678     libucrt:lcidtoname_downlevel.obj
 0002:00008688       ??_C@_1M@LEEGFONL@?$AAe?$AAs?$AA?9?$AAc?$AAl?$AA?$AA@ 000000018002c688     libucrt:lcidtoname_downlevel.obj
 0002:00008698       ??_C@_1M@KGPDPBDF@?$AAe?$AAs?$AA?9?$AAc?$AAo?$AA?$AA@ 000000018002c698     libucrt:lcidtoname_downlevel.obj
 0002:000086a8       ??_C@_1M@EIAHOHH@?$AAe?$AAs?$AA?9?$AAc?$AAr?$AA?$AA@ 000000018002c6a8     libucrt:lcidtoname_downlevel.obj
 0002:000086b8       ??_C@_1M@LLPGMBIN@?$AAe?$AAs?$AA?9?$AAd?$AAo?$AA?$AA@ 000000018002c6b8     libucrt:lcidtoname_downlevel.obj
 0002:000086c8       ??_C@_1M@DKHMKNJA@?$AAe?$AAs?$AA?9?$AAe?$AAc?$AA?$AA@ 000000018002c6c8     libucrt:lcidtoname_downlevel.obj
 0002:000086d8       ??_C@_1M@GKGFPKAP@?$AAe?$AAs?$AA?9?$AAe?$AAs?$AA?$AA@ 000000018002c6d8     libucrt:lcidtoname_downlevel.obj
 0002:000086e8       ??_C@_1M@LKHKGDLN@?$AAe?$AAs?$AA?9?$AAg?$AAt?$AA?$AA@ 000000018002c6e8     libucrt:lcidtoname_downlevel.obj
 0002:000086f8       ??_C@_1M@HEIIGGJD@?$AAe?$AAs?$AA?9?$AAh?$AAn?$AA?$AA@ 000000018002c6f8     libucrt:lcidtoname_downlevel.obj
 0002:00008708       ??_C@_1M@FBDHPPGD@?$AAe?$AAs?$AA?9?$AAm?$AAx?$AA?$AA@ 000000018002c708     libucrt:lcidtoname_downlevel.obj
 0002:00008718       ??_C@_1M@DPAGLNDH@?$AAe?$AAs?$AA?9?$AAn?$AAi?$AA?$AA@ 000000018002c718     libucrt:lcidtoname_downlevel.obj
 0002:00008728       ??_C@_1M@MDGOPGDD@?$AAe?$AAs?$AA?9?$AAp?$AAa?$AA?$AA@ 000000018002c728     libucrt:lcidtoname_downlevel.obj
 0002:00008738       ??_C@_1M@EMAMGBGE@?$AAe?$AAs?$AA?9?$AAp?$AAe?$AA?$AA@ 000000018002c738     libucrt:lcidtoname_downlevel.obj
 0002:00008748       ??_C@_1M@IBMCAOEC@?$AAe?$AAs?$AA?9?$AAp?$AAr?$AA?$AA@ 000000018002c748     libucrt:lcidtoname_downlevel.obj
 0002:00008758       ??_C@_1M@FGMDIJED@?$AAe?$AAs?$AA?9?$AAp?$AAy?$AA?$AA@ 000000018002c758     libucrt:lcidtoname_downlevel.obj
 0002:00008768       ??_C@_1M@IIDEOLLL@?$AAe?$AAs?$AA?9?$AAs?$AAv?$AA?$AA@ 000000018002c768     libucrt:lcidtoname_downlevel.obj
 0002:00008778       ??_C@_1M@GAOBIPA@?$AAe?$AAs?$AA?9?$AAu?$AAy?$AA?$AA@ 000000018002c778     libucrt:lcidtoname_downlevel.obj
 0002:00008788       ??_C@_1M@JKFFICHJ@?$AAe?$AAs?$AA?9?$AAv?$AAe?$AA?$AA@ 000000018002c788     libucrt:lcidtoname_downlevel.obj
 0002:00008798       ??_C@_1M@PNMLOJDF@?$AAe?$AAt?$AA?9?$AAe?$AAe?$AA?$AA@ 000000018002c798     libucrt:lcidtoname_downlevel.obj
 0002:000087a8       ??_C@_1M@GHHLIKEI@?$AAe?$AAu?$AA?9?$AAe?$AAs?$AA?$AA@ 000000018002c7a8     libucrt:lcidtoname_downlevel.obj
 0002:000087b8       ??_C@_1M@PBNONODE@?$AAf?$AAa?$AA?9?$AAi?$AAr?$AA?$AA@ 000000018002c7b8     libucrt:lcidtoname_downlevel.obj
 0002:000087c8       ??_C@_1M@JEEHPMIL@?$AAf?$AAi?$AA?9?$AAf?$AAi?$AA?$AA@ 000000018002c7c8     libucrt:lcidtoname_downlevel.obj
 0002:000087d8       ??_C@_1M@LMDCNDBA@?$AAf?$AAo?$AA?9?$AAf?$AAo?$AA?$AA@ 000000018002c7d8     libucrt:lcidtoname_downlevel.obj
 0002:000087e8       ??_C@_1M@JKEOHLDK@?$AAf?$AAr?$AA?9?$AAb?$AAe?$AA?$AA@ 000000018002c7e8     libucrt:lcidtoname_downlevel.obj
 0002:000087f8       ??_C@_1M@NOHADPMI@?$AAf?$AAr?$AA?9?$AAc?$AAa?$AA?$AA@ 000000018002c7f8     libucrt:lcidtoname_downlevel.obj
 0002:00008808       ??_C@_1M@KDHIHAEC@?$AAf?$AAr?$AA?9?$AAc?$AAh?$AA?$AA@ 000000018002c808     libucrt:lcidtoname_downlevel.obj
 0002:00008818       ??_C@_1M@MMBBFGAK@?$AAf?$AAr?$AA?9?$AAf?$AAr?$AA?$AA@ 000000018002c818     libucrt:lcidtoname_downlevel.obj
 0002:00008828       ??_C@_1M@PAFNENNF@?$AAf?$AAr?$AA?9?$AAl?$AAu?$AA?$AA@ 000000018002c828     libucrt:lcidtoname_downlevel.obj
 0002:00008838       ??_C@_1M@EOHDJGDD@?$AAf?$AAr?$AA?9?$AAm?$AAc?$AA?$AA@ 000000018002c838     libucrt:lcidtoname_downlevel.obj
 0002:00008848       ??_C@_1M@FAPLLOPF@?$AAg?$AAl?$AA?9?$AAe?$AAs?$AA?$AA@ 000000018002c848     libucrt:lcidtoname_downlevel.obj
 0002:00008858       ??_C@_1M@FOPBFLOO@?$AAg?$AAu?$AA?9?$AAi?$AAn?$AA?$AA@ 000000018002c858     libucrt:lcidtoname_downlevel.obj
 0002:00008868       ??_C@_1M@KBMCINPM@?$AAh?$AAe?$AA?9?$AAi?$AAl?$AA?$AA@ 000000018002c868     libucrt:lcidtoname_downlevel.obj
 0002:00008878       ??_C@_1M@BBPHKFPJ@?$AAh?$AAi?$AA?9?$AAi?$AAn?$AA?$AA@ 000000018002c878     libucrt:lcidtoname_downlevel.obj
 0002:00008888       ??_C@_1M@PMBNDPHD@?$AAh?$AAr?$AA?9?$AAb?$AAa?$AA?$AA@ 000000018002c888     libucrt:lcidtoname_downlevel.obj
 0002:00008898       ??_C@_1M@BPCKOEGE@?$AAh?$AAr?$AA?9?$AAh?$AAr?$AA?$AA@ 000000018002c898     libucrt:lcidtoname_downlevel.obj
 0002:000088a8       ??_C@_1M@GACBMHKE@?$AAh?$AAu?$AA?9?$AAh?$AAu?$AA?$AA@ 000000018002c8a8     libucrt:lcidtoname_downlevel.obj
 0002:000088b8       ??_C@_1M@MILPAJJC@?$AAh?$AAy?$AA?9?$AAa?$AAm?$AA?$AA@ 000000018002c8b8     libucrt:lcidtoname_downlevel.obj
 0002:000088c8       ??_C@_1M@BABBICEC@?$AAi?$AAd?$AA?9?$AAi?$AAd?$AA?$AA@ 000000018002c8c8     libucrt:lcidtoname_downlevel.obj
 0002:000088d8       ??_C@_1M@BIKNHHPF@?$AAi?$AAs?$AA?9?$AAi?$AAs?$AA?$AA@ 000000018002c8d8     libucrt:lcidtoname_downlevel.obj
 0002:000088e8       ??_C@_1M@NMPCJPHE@?$AAi?$AAt?$AA?9?$AAc?$AAh?$AA?$AA@ 000000018002c8e8     libucrt:lcidtoname_downlevel.obj
 0002:000088f8       ??_C@_1M@GHKGFEDF@?$AAi?$AAt?$AA?9?$AAi?$AAt?$AA?$AA@ 000000018002c8f8     libucrt:lcidtoname_downlevel.obj
 0002:00008908       ??_C@_1M@NIEJCJJA@?$AAj?$AAa?$AA?9?$AAj?$AAp?$AA?$AA@ 000000018002c908     libucrt:lcidtoname_downlevel.obj
 0002:00008918       ??_C@_1M@JILFNBIM@?$AAk?$AAa?$AA?9?$AAg?$AAe?$AA?$AA@ 000000018002c918     libucrt:lcidtoname_downlevel.obj
 0002:00008928       ??_C@_1M@PACPMGPH@?$AAk?$AAk?$AA?9?$AAk?$AAz?$AA?$AA@ 000000018002c928     libucrt:lcidtoname_downlevel.obj
 0002:00008938       ??_C@_1M@IELFGMHA@?$AAk?$AAn?$AA?9?$AAi?$AAn?$AA?$AA@ 000000018002c938     libucrt:lcidtoname_downlevel.obj
 0002:00008948       ??_C@_1O@IBBJHCH@?$AAk?$AAo?$AAk?$AA?9?$AAi?$AAn?$AA?$AA@ 000000018002c948     libucrt:lcidtoname_downlevel.obj
 0002:00008958       ??_C@_1M@DMHAEOGC@?$AAk?$AAo?$AA?9?$AAk?$AAr?$AA?$AA@ 000000018002c958     libucrt:lcidtoname_downlevel.obj
 0002:00008968       ??_C@_1M@HBAHBIGA@?$AAk?$AAy?$AA?9?$AAk?$AAg?$AA?$AA@ 000000018002c968     libucrt:lcidtoname_downlevel.obj
 0002:00008978       ??_C@_1M@KPMILCJG@?$AAl?$AAt?$AA?9?$AAl?$AAt?$AA?$AA@ 000000018002c978     libucrt:lcidtoname_downlevel.obj
 0002:00008988       ??_C@_1M@BDEKKCA@?$AAl?$AAv?$AA?9?$AAl?$AAv?$AA?$AA@ 000000018002c988     libucrt:lcidtoname_downlevel.obj
 0002:00008998       ??_C@_1M@ELCKCCJJ@?$AAm?$AAi?$AA?9?$AAn?$AAz?$AA?$AA@ 000000018002c998     libucrt:lcidtoname_downlevel.obj
 0002:000089a8       ??_C@_1M@CBOOLAPA@?$AAm?$AAk?$AA?9?$AAm?$AAk?$AA?$AA@ 000000018002c9a8     libucrt:lcidtoname_downlevel.obj
 0002:000089b8       ??_C@_1M@GPHNBJKN@?$AAm?$AAl?$AA?9?$AAi?$AAn?$AA?$AA@ 000000018002c9b8     libucrt:lcidtoname_downlevel.obj
 0002:000089c8       ??_C@_1M@PABJILIG@?$AAm?$AAn?$AA?9?$AAm?$AAn?$AA?$AA@ 000000018002c9c8     libucrt:lcidtoname_downlevel.obj
 0002:000089d8       ??_C@_1M@FGBKKIPG@?$AAm?$AAr?$AA?9?$AAi?$AAn?$AA?$AA@ 000000018002c9d8     libucrt:lcidtoname_downlevel.obj
 0002:000089e8       ??_C@_1M@NDBPDDAL@?$AAm?$AAs?$AA?9?$AAb?$AAn?$AA?$AA@ 000000018002c9e8     libucrt:lcidtoname_downlevel.obj
 0002:000089f8       ??_C@_1M@OPIHOOPI@?$AAm?$AAs?$AA?9?$AAm?$AAy?$AA?$AA@ 000000018002c9f8     libucrt:lcidtoname_downlevel.obj
 0002:00008a08       ??_C@_1M@PPDBCNFM@?$AAm?$AAt?$AA?9?$AAm?$AAt?$AA?$AA@ 000000018002ca08     libucrt:lcidtoname_downlevel.obj
 0002:00008a18       ??_C@_1M@KDJDKMDD@?$AAn?$AAb?$AA?9?$AAn?$AAo?$AA?$AA@ 000000018002ca18     libucrt:lcidtoname_downlevel.obj
 0002:00008a28       ??_C@_1M@KFCFLMJP@?$AAn?$AAl?$AA?9?$AAb?$AAe?$AA?$AA@ 000000018002ca28     libucrt:lcidtoname_downlevel.obj
 0002:00008a38       ??_C@_1M@KPOPDDGO@?$AAn?$AAl?$AA?9?$AAn?$AAl?$AA?$AA@ 000000018002ca38     libucrt:lcidtoname_downlevel.obj
 0002:00008a48       ??_C@_1M@LJKPEMLN@?$AAn?$AAn?$AA?9?$AAn?$AAo?$AA?$AA@ 000000018002ca48     libucrt:lcidtoname_downlevel.obj
 0002:00008a58       ??_C@_1M@BDGHHBFL@?$AAn?$AAs?$AA?9?$AAz?$AAa?$AA?$AA@ 000000018002ca58     libucrt:lcidtoname_downlevel.obj
 0002:00008a68       ??_C@_1M@IDEHOAP@?$AAp?$AAa?$AA?9?$AAi?$AAn?$AA?$AA@ 000000018002ca68     libucrt:lcidtoname_downlevel.obj
 0002:00008a78       ??_C@_1M@HDBKGOGH@?$AAp?$AAl?$AA?9?$AAp?$AAl?$AA?$AA@ 000000018002ca78     libucrt:lcidtoname_downlevel.obj
 0002:00008a88       ??_C@_1M@LJLLCMEH@?$AAp?$AAt?$AA?9?$AAb?$AAr?$AA?$AA@ 000000018002ca88     libucrt:lcidtoname_downlevel.obj
 0002:00008a98       ??_C@_1M@NCMONAAL@?$AAp?$AAt?$AA?9?$AAp?$AAt?$AA?$AA@ 000000018002ca98     libucrt:lcidtoname_downlevel.obj
 0002:00008aa8       ??_C@_1O@EAKMAJDN@?$AAq?$AAu?$AAz?$AA?9?$AAb?$AAo?$AA?$AA@ 000000018002caa8     libucrt:lcidtoname_downlevel.obj
 0002:00008ab8       ??_C@_1O@BHHPIGDN@?$AAq?$AAu?$AAz?$AA?9?$AAe?$AAc?$AA?$AA@ 000000018002cab8     libucrt:lcidtoname_downlevel.obj
 0002:00008ac8       ??_C@_1O@GBAPEKMJ@?$AAq?$AAu?$AAz?$AA?9?$AAp?$AAe?$AA?$AA@ 000000018002cac8     libucrt:lcidtoname_downlevel.obj
 0002:00008ad8       ??_C@_1M@CLGLEFBO@?$AAr?$AAo?$AA?9?$AAr?$AAo?$AA?$AA@ 000000018002cad8     libucrt:lcidtoname_downlevel.obj
 0002:00008ae8       ??_C@_1M@CEEDODME@?$AAr?$AAu?$AA?9?$AAr?$AAu?$AA?$AA@ 000000018002cae8     libucrt:lcidtoname_downlevel.obj
 0002:00008af8       ??_C@_1M@HPKKKMPP@?$AAs?$AAa?$AA?9?$AAi?$AAn?$AA?$AA@ 000000018002caf8     libucrt:lcidtoname_downlevel.obj
 0002:00008b08       ??_C@_1M@BKMAIGOJ@?$AAs?$AAe?$AA?9?$AAf?$AAi?$AA?$AA@ 000000018002cb08     libucrt:lcidtoname_downlevel.obj
 0002:00008b18       ??_C@_1M@NDPIFLFI@?$AAs?$AAe?$AA?9?$AAn?$AAo?$AA?$AA@ 000000018002cb18     libucrt:lcidtoname_downlevel.obj
 0002:00008b28       ??_C@_1M@DANKKHJ@?$AAs?$AAe?$AA?9?$AAs?$AAe?$AA?$AA@ 000000018002cb28     libucrt:lcidtoname_downlevel.obj
 0002:00008b38       ??_C@_1M@PNBLONPJ@?$AAs?$AAk?$AA?9?$AAs?$AAk?$AA?$AA@ 000000018002cb38     libucrt:lcidtoname_downlevel.obj
 0002:00008b48       ??_C@_1M@LFMODOAL@?$AAs?$AAl?$AA?9?$AAs?$AAi?$AA?$AA@ 000000018002cb48     libucrt:lcidtoname_downlevel.obj
 0002:00008b58       ??_C@_1O@DFKOMPG@?$AAs?$AAm?$AAa?$AA?9?$AAn?$AAo?$AA?$AA@ 000000018002cb58     libucrt:lcidtoname_downlevel.obj
 0002:00008b68       ??_C@_1O@NDKPBNNH@?$AAs?$AAm?$AAa?$AA?9?$AAs?$AAe?$AA?$AA@ 000000018002cb68     libucrt:lcidtoname_downlevel.obj
 0002:00008b78       ??_C@_1O@PLLKBHAB@?$AAs?$AAm?$AAj?$AA?9?$AAn?$AAo?$AA?$AA@ 000000018002cb78     libucrt:lcidtoname_downlevel.obj
 0002:00008b88       ??_C@_1O@CLEPOGCA@?$AAs?$AAm?$AAj?$AA?9?$AAs?$AAe?$AA?$AA@ 000000018002cb88     libucrt:lcidtoname_downlevel.obj
 0002:00008b98       ??_C@_1O@DLGJGKMK@?$AAs?$AAm?$AAn?$AA?9?$AAf?$AAi?$AA?$AA@ 000000018002cb98     libucrt:lcidtoname_downlevel.obj
 0002:00008ba8       ??_C@_1O@OJDJGAJC@?$AAs?$AAm?$AAs?$AA?9?$AAf?$AAi?$AA?$AA@ 000000018002cba8     libucrt:lcidtoname_downlevel.obj
 0002:00008bb8       ??_C@_1M@BOFOGHPB@?$AAs?$AAq?$AA?9?$AAa?$AAl?$AA?$AA@ 000000018002cbb8     libucrt:lcidtoname_downlevel.obj
 0002:00008bc8       ??_C@_1BG@LJBBIPGB@?$AAs?$AAr?$AA?9?$AAb?$AAa?$AA?9?$AAc?$AAy?$AAr?$AAl?$AA?$AA@ 000000018002cbc8     libucrt:lcidtoname_downlevel.obj
 0002:00008be0       ??_C@_1BG@JLBENFOE@?$AAs?$AAr?$AA?9?$AAb?$AAa?$AA?9?$AAl?$AAa?$AAt?$AAn?$AA?$AA@ 000000018002cbe0     libucrt:lcidtoname_downlevel.obj
 0002:00008bf8       ??_C@_1BG@KODPNHE@?$AAs?$AAr?$AA?9?$AAs?$AAp?$AA?9?$AAc?$AAy?$AAr?$AAl?$AA?$AA@ 000000018002cbf8     libucrt:lcidtoname_downlevel.obj
 0002:00008c10       ??_C@_1BG@CIOGKHPB@?$AAs?$AAr?$AA?9?$AAs?$AAp?$AA?9?$AAl?$AAa?$AAt?$AAn?$AA?$AA@ 000000018002cc10     libucrt:lcidtoname_downlevel.obj
 0002:00008c28       ??_C@_1M@NGFJLMAC@?$AAs?$AAv?$AA?9?$AAf?$AAi?$AA?$AA@ 000000018002cc28     libucrt:lcidtoname_downlevel.obj
 0002:00008c38       ??_C@_1M@MPJEJAJC@?$AAs?$AAv?$AA?9?$AAs?$AAe?$AA?$AA@ 000000018002cc38     libucrt:lcidtoname_downlevel.obj
 0002:00008c48       ??_C@_1M@MPNDHLFK@?$AAs?$AAw?$AA?9?$AAk?$AAe?$AA?$AA@ 000000018002cc48     libucrt:lcidtoname_downlevel.obj
 0002:00008c58       ??_C@_1O@KOHBJJI@?$AAs?$AAy?$AAr?$AA?9?$AAs?$AAy?$AA?$AA@ 000000018002cc58     libucrt:lcidtoname_downlevel.obj
 0002:00008c68       ??_C@_1M@LDCEFHA@?$AAt?$AAa?$AA?9?$AAi?$AAn?$AA?$AA@ 000000018002cc68     libucrt:lcidtoname_downlevel.obj
 0002:00008c78       ??_C@_1M@CNJOFAK@?$AAt?$AAe?$AA?9?$AAi?$AAn?$AA?$AA@ 000000018002cc78     libucrt:lcidtoname_downlevel.obj
 0002:00008c88       ??_C@_1M@GNAECACD@?$AAt?$AAh?$AA?9?$AAt?$AAh?$AA?$AA@ 000000018002cc88     libucrt:lcidtoname_downlevel.obj
 0002:00008c98       ??_C@_1M@CHBIHOJO@?$AAt?$AAn?$AA?9?$AAz?$AAa?$AA?$AA@ 000000018002cc98     libucrt:lcidtoname_downlevel.obj
 0002:00008ca8       ??_C@_1M@GCCMIGPJ@?$AAt?$AAr?$AA?9?$AAt?$AAr?$AA?$AA@ 000000018002cca8     libucrt:lcidtoname_downlevel.obj
 0002:00008cb8       ??_C@_1M@CELMCNBK@?$AAt?$AAt?$AA?9?$AAr?$AAu?$AA?$AA@ 000000018002ccb8     libucrt:lcidtoname_downlevel.obj
 0002:00008cc8       ??_C@_1M@KLMCELGA@?$AAu?$AAk?$AA?9?$AAu?$AAa?$AA?$AA@ 000000018002ccc8     libucrt:lcidtoname_downlevel.obj
 0002:00008cd8       ??_C@_1M@EPAJJAJF@?$AAu?$AAr?$AA?9?$AAp?$AAk?$AA?$AA@ 000000018002ccd8     libucrt:lcidtoname_downlevel.obj
 0002:00008ce8       ??_C@_1BG@GEGPMCDJ@?$AAu?$AAz?$AA?9?$AAu?$AAz?$AA?9?$AAc?$AAy?$AAr?$AAl?$AA?$AA@ 000000018002cce8     libucrt:lcidtoname_downlevel.obj
 0002:00008d00       ??_C@_1BG@EGGKJILM@?$AAu?$AAz?$AA?9?$AAu?$AAz?$AA?9?$AAl?$AAa?$AAt?$AAn?$AA?$AA@ 000000018002cd00     libucrt:lcidtoname_downlevel.obj
 0002:00008d18       ??_C@_1M@GFOCLFF@?$AAv?$AAi?$AA?9?$AAv?$AAn?$AA?$AA@ 000000018002cd18     libucrt:lcidtoname_downlevel.obj
 0002:00008d28       ??_C@_1M@CPAMEDFI@?$AAx?$AAh?$AA?9?$AAz?$AAa?$AA?$AA@ 000000018002cd28     libucrt:lcidtoname_downlevel.obj
 0002:00008d38       ??_C@_1O@EBKIFIGN@?$AAz?$AAh?$AA?9?$AAc?$AAh?$AAs?$AA?$AA@ 000000018002cd38     libucrt:lcidtoname_downlevel.obj
 0002:00008d48       ??_C@_1O@NMHPGANE@?$AAz?$AAh?$AA?9?$AAc?$AAh?$AAt?$AA?$AA@ 000000018002cd48     libucrt:lcidtoname_downlevel.obj
 0002:00008d58       ??_C@_1M@LPINJOMC@?$AAz?$AAh?$AA?9?$AAc?$AAn?$AA?$AA@ 000000018002cd58     libucrt:lcidtoname_downlevel.obj
 0002:00008d68       ??_C@_1M@OCJEJODD@?$AAz?$AAh?$AA?9?$AAh?$AAk?$AA?$AA@ 000000018002cd68     libucrt:lcidtoname_downlevel.obj
 0002:00008d78       ??_C@_1M@DNDLJINH@?$AAz?$AAh?$AA?9?$AAm?$AAo?$AA?$AA@ 000000018002cd78     libucrt:lcidtoname_downlevel.obj
 0002:00008d88       ??_C@_1M@MBFDNDND@?$AAz?$AAh?$AA?9?$AAs?$AAg?$AA?$AA@ 000000018002cd88     libucrt:lcidtoname_downlevel.obj
 0002:00008d98       ??_C@_1M@IMEPLEPE@?$AAz?$AAh?$AA?9?$AAt?$AAw?$AA?$AA@ 000000018002cd98     libucrt:lcidtoname_downlevel.obj
 0002:00008da8       ??_C@_1M@BBGHNHJP@?$AAz?$AAu?$AA?9?$AAz?$AAa?$AA?$AA@ 000000018002cda8     libucrt:lcidtoname_downlevel.obj
 0002:00008dc0       ?large_power_data@?1??multiply_by_power_of_ten@__crt_strtox@@YA_NAEAUbig_integer@2@I@Z@4QBIB 000000018002cdc0     libucrt:cfout.obj
 0002:000096d0       ?large_power_indices@?1??multiply_by_power_of_ten@__crt_strtox@@YA_NAEAUbig_integer@2@I@Z@4QBUunpack_index@?1??12@YA_N0I@Z@B 000000018002d6d0     libucrt:cfout.obj
 0002:00009768       ?small_powers_of_ten@?6??multiply_by_power_of_ten@__crt_strtox@@YA_NAEAUbig_integer@2@I@Z@4QBIB 000000018002d768     libucrt:cfout.obj
 0002:0000978c       ??_C@_01GBGANLPD@0?$AA@    000000018002d78c     libucrt:cfout.obj
 0002:00009790       ??_C@_05DNEBIAHO@1?$CDINF?$AA@ 000000018002d790     libucrt:cfout.obj
 0002:00009798       ??_C@_06IMKFLFPG@1?$CDQNAN?$AA@ 000000018002d798     libucrt:cfout.obj
 0002:000097a0       ??_C@_06PGGFOGJG@1?$CDSNAN?$AA@ 000000018002d7a0     libucrt:cfout.obj
 0002:000097a8       ??_C@_05PHHOCPM@1?$CDIND?$AA@ 000000018002d7a8     libucrt:cfout.obj
 0002:000097b0       __real@3ff0000000000000    000000018002d7b0     libucrt:ceil.obj
 0002:00009a10       __log10_256_lead           000000018002da10     libucrt:log10_256_lead_tail_table.obj
 0002:0000a220       __log10_256_tail           000000018002e220     libucrt:log10_256_lead_tail_table.obj
 0002:0000aa30       __log_F_inv_qword          000000018002ea30     libucrt:log_f_inv_qword_table.obj
 0002:0000b240       ??_C@_05HGHHAHAP@log10?$AA@ 000000018002f240     libucrt:log_special.obj
 0002:0000b260       ??_C@_1BA@BALFACEM@?$AAC?$AAO?$AAN?$AAO?$AAU?$AAT?$AA$?$AA?$AA@ 000000018002f260     libucrt:initcon.obj
 0002:0000b2d0       _load_config_used          000000018002f2d0     LIBCMT:loadcfg.obj
 0002:0000b3d0       _tls_used                  000000018002f3d0     LIBCMT:tlssup.obj
 0002:0000b3f8       ??_R4exception@std@@6B@    000000018002f3f8     LIBCMT:throw_bad_alloc.obj
 0002:0000b420       ??_R3exception@std@@8      000000018002f420     LIBCMT:throw_bad_alloc.obj
 0002:0000b438       ??_R2exception@std@@8      000000018002f438     LIBCMT:throw_bad_alloc.obj
 0002:0000b448       ??_R1A@?0A@EA@exception@std@@8 000000018002f448     LIBCMT:throw_bad_alloc.obj
 0002:0000b470       ??_R4bad_alloc@std@@6B@    000000018002f470     LIBCMT:throw_bad_alloc.obj
 0002:0000b498       ??_R3bad_alloc@std@@8      000000018002f498     LIBCMT:throw_bad_alloc.obj
 0002:0000b4b0       ??_R2bad_alloc@std@@8      000000018002f4b0     LIBCMT:throw_bad_alloc.obj
 0002:0000b4c8       ??_R1A@?0A@EA@bad_alloc@std@@8 000000018002f4c8     LIBCMT:throw_bad_alloc.obj
 0002:0000b4f0       ??_R4bad_array_new_length@std@@6B@ 000000018002f4f0     LIBCMT:throw_bad_alloc.obj
 0002:0000b518       ??_R3bad_array_new_length@std@@8 000000018002f518     LIBCMT:throw_bad_alloc.obj
 0002:0000b530       ??_R2bad_array_new_length@std@@8 000000018002f530     LIBCMT:throw_bad_alloc.obj
 0002:0000b550       ??_R1A@?0A@EA@bad_array_new_length@std@@8 000000018002f550     LIBCMT:throw_bad_alloc.obj
 0002:0000b578       ??_R4type_info@@6B@        000000018002f578     LIBCMT:std_type_info_static.obj
 0002:0000b5a0       ??_R3type_info@@8          000000018002f5a0     LIBCMT:std_type_info_static.obj
 0002:0000b5b8       ??_R2type_info@@8          000000018002f5b8     LIBCMT:std_type_info_static.obj
 0002:0000b5c8       ??_R1A@?0A@EA@type_info@@8 000000018002f5c8     LIBCMT:std_type_info_static.obj
 0002:0000b5f0       ??_R4bad_exception@std@@6B@ 000000018002f5f0     libvcruntime:frame.obj
 0002:0000b618       ??_R3bad_exception@std@@8  000000018002f618     libvcruntime:frame.obj
 0002:0000b630       ??_R2bad_exception@std@@8  000000018002f630     libvcruntime:frame.obj
 0002:0000b648       ??_R1A@?0A@EA@bad_exception@std@@8 000000018002f648     libvcruntime:frame.obj
 0002:0000ba70       __rtc_iaa                  000000018002fa70     LIBCMT:initsect.obj
 0002:0000ba78       __rtc_izz                  000000018002fa78     LIBCMT:initsect.obj
 0002:0000ba80       __rtc_taa                  000000018002fa80     LIBCMT:initsect.obj
 0002:0000ba88       __rtc_tzz                  000000018002fa88     LIBCMT:initsect.obj
 0002:0000ba90       _tls_start                 000000018002fa90     LIBCMT:tlssup.obj
 0002:0000ba94       _Init_thread_epoch         000000018002fa94     LIBCMT:thread_safe_statics.obj
 0002:0000ba98       _tls_end                   000000018002fa98     LIBCMT:tlssup.obj
 0002:0000d178       _TI2?AVbad_alloc@std@@     0000000180031178     LIBCMT:throw_bad_alloc.obj
 0002:0000d198       _CTA2?AVbad_alloc@std@@    0000000180031198     LIBCMT:throw_bad_alloc.obj
 0002:0000d1b0       _CT??_R0?AVbad_alloc@std@@@8??0bad_alloc@std@@QEAA@AEBV01@@Z24 00000001800311b0     LIBCMT:throw_bad_alloc.obj
 0002:0000d1d8       _CT??_R0?AVexception@std@@@8??0exception@std@@QEAA@AEBV01@@Z24 00000001800311d8     LIBCMT:throw_bad_alloc.obj
 0002:0000d200       _TI3?AVbad_array_new_length@std@@ 0000000180031200     LIBCMT:throw_bad_alloc.obj
 0002:0000d220       _CTA3?AVbad_array_new_length@std@@ 0000000180031220     LIBCMT:throw_bad_alloc.obj
 0002:0000d240       _CT??_R0?AVbad_array_new_length@std@@@8??0bad_array_new_length@std@@QEAA@AEBV01@@Z24 0000000180031240     LIBCMT:throw_bad_alloc.obj
 0002:0000d268       _TI2?AVbad_exception@std@@ 0000000180031268     libvcruntime:frame.obj
 0002:0000d288       _CTA2?AVbad_exception@std@@ 0000000180031288     libvcruntime:frame.obj
 0002:0000d2a0       _CT??_R0?AVbad_exception@std@@@8??0bad_exception@std@@QEAA@AEBV01@@Z24 00000001800312a0     libvcruntime:frame.obj
 0002:0000d2c8       __pobjMapEntryFirst        00000001800312c8     OposVariant.obj
 0002:0000d2d0       __pobjMapEntryLast         00000001800312d0     OposVariant.obj
 0002:0000d394       __IMPORT_DESCRIPTOR_KERNEL32 0000000180031394     kernel32:KERNEL32.dll
 0002:0000d3a8       __IMPORT_DESCRIPTOR_USER32 00000001800313a8     user32:USER32.dll
 0002:0000d3bc       __IMPORT_DESCRIPTOR_GDI32  00000001800313bc     gdi32:GDI32.dll
 0002:0000d3d0       __IMPORT_DESCRIPTOR_ADVAPI32 00000001800313d0     advapi32:ADVAPI32.dll
 0002:0000d3e4       __IMPORT_DESCRIPTOR_ole32  00000001800313e4     ole32:ole32.dll
 0002:0000d3f8       __IMPORT_DESCRIPTOR_OLEAUT32 00000001800313f8     oleaut32:OLEAUT32.dll
 0002:0000d40c       __NULL_IMPORT_DESCRIPTOR   000000018003140c     kernel32:KERNEL32.dll
 0003:00000000       ?s_Claim@?7??GetIDsOfNames@CComTypeInfoHolder@ATL@@QEAAJAEBU_GUID@@PEAPEA_WIKPEAJ@Z@4PA_WA 0000000180033000     ElectronicValueRW.obj
 0003:00000018       ?s_Release@?7??GetIDsOfNames@CComTypeInfoHolder@ATL@@QEAAJAEBU_GUID@@PEAPEA_WIKPEAJ@Z@4PA_WA 0000000180033018     ElectronicValueRW.obj
 0003:00000040       ?wc@?1??GetWndClassInfo@?$CWindowImpl@VCOPOSElectronicValueRW@@VCWindow@ATL@@V?$CWinTraits@$0FGAAAAAA@$0A@@3@@ATL@@SAAEAU_ATL_WNDCLASSINFOW@3@XZ@4U43@A 0000000180033040     ElectronicValueRW.obj
 0003:00000138       ?rcDefault@CWindow@ATL@@2UtagRECT@@A 0000000180033138     ElectronicValueRW.obj
 0003:00000148       ?_tih@?$IDispatchImpl@UIOPOSElectronicValueRW@@$1?IID_IOPOSElectronicValueRW@@3U_GUID@@B$1?LIBID_OposElectronicValueRW_CCO@@3U3@B$00$0A@VCComTypeInfoHolder@ATL@@@ATL@@1VCComTypeInfoHolder@2@A 0000000180033148     ElectronicValueRW.obj
 0003:00000180       ?_tih@?$IProvideClassInfo2Impl@$1?CLSID_OPOSElectronicValueRW@@3U_GUID@@B$1?DIID__IOPOSElectronicValueRWEvents@@3U2@B$1?LIBID_OposElectronicValueRW_CCO@@3U2@B$00$0A@VCComTypeInfoHolder@ATL@@@ATL@@1VCComTypeInfoHolder@2@A 0000000180033180     ElectronicValueRW.obj
 0003:000001b8       ?vszContents@?6??Save@?$IPersistStorageImpl@VCOPOSElectronicValueRW@@@ATL@@UEAAJPEAUIStorage@@H@Z@4PEB_WEB 00000001800331b8     ElectronicValueRW.obj
 0003:00000250       ?g_WindowName@@3PA_WA      0000000180033250     ElectronicValueRWImpl.obj
 0003:00000288       ?g_ControlDescription@@3PADA 0000000180033288     ElectronicValueRWImpl.obj
 0003:000002c8       ?g_ControlVersion@@3JA     00000001800332c8     ElectronicValueRWImpl.obj
 0003:000004fc       __scrt_native_dllmain_reason 00000001800334fc     LIBCMT:utility.obj
 0003:00000500       _Init_global_epoch         0000000180033500     LIBCMT:thread_safe_statics.obj
 0003:00000510       __security_cookie_complement 0000000180033510     LIBCMT:gs_cookie.obj
 0003:00000518       __security_cookie          0000000180033518     LIBCMT:gs_cookie.obj
 0003:00000520       __isa_available            0000000180033520     LIBCMT:cpu_disp.obj
 0003:00000524       __isa_enabled              0000000180033524     LIBCMT:cpu_disp.obj
 0003:00000528       __memcpy_nt_iters          0000000180033528     LIBCMT:cpu_disp.obj
 0003:00000548       __abort_behavior           0000000180033548     libucrt:abort.obj
 0003:00000560       _iob                       0000000180033560     libucrt:_file.obj
 0003:00000670       __acrt_initial_locale_data 0000000180033670     libucrt:nlsdata.obj
 0003:000007c8       __acrt_initial_locale_pointers 00000001800337c8     libucrt:nlsdata.obj
 0003:000007d8       __acrt_wide_c_locale_string 00000001800337d8     libucrt:nlsdata.obj
 0003:000007e0       __acrt_initial_multibyte_data 00000001800337e0     libucrt:mbctype.obj
 0003:00000a08       __acrt_current_multibyte_data 0000000180033a08     libucrt:mbctype.obj
 0003:00000b10       _mbctype                   0000000180033b10     libucrt:mbctype.obj
 0003:00000c20       _mbcasemap                 0000000180033c20     libucrt:mbctype.obj
 0003:00000d20       _pwctype                   0000000180033d20     libucrt:ctype.obj
 0003:00000d28       __globallocalestatus       0000000180033d28     libucrt:glstatus.obj
 0003:00000d30       __acrt_lconv_c             0000000180033d30     libucrt:localeconv.obj
 0003:00000dc8       __acrt_lconv_static_decimal 0000000180033dc8     libucrt:localeconv.obj
 0003:00000dcc       __acrt_lconv_static_W_decimal 0000000180033dcc     libucrt:localeconv.obj
 0003:00000de8       __dcrt_lowio_console_output_handle 0000000180033de8     libucrt:initcon.obj
 0003:00000df0       _fltused                   0000000180033df0     LIBCMT:fltused.obj
 0003:00000df8       ??_R0?AVbad_alloc@std@@@8  0000000180033df8     LIBCMT:throw_bad_alloc.obj
 0003:00000e20       ??_R0?AVexception@std@@@8  0000000180033e20     LIBCMT:throw_bad_alloc.obj
 0003:00000e48       ??_R0?AVbad_array_new_length@std@@@8 0000000180033e48     LIBCMT:throw_bad_alloc.obj
 0003:00000e78       ??_R0?AVtype_info@@@8      0000000180033e78     LIBCMT:std_type_info_static.obj
 0003:00000e98       ??_R0?AVbad_exception@std@@@8 0000000180033e98     libvcruntime:frame.obj
 0003:00000ec0       ?m_bInitFailed@CAtlBaseModule@ATL@@2_NA 0000000180033ec0     OposVariant.obj
 0003:00000ec8       ?_pPerfRegFunc@ATL@@3P6AJPEAUHINSTANCE__@@@ZEA 0000000180033ec8     OposVariant.obj
 0003:00000ed0       ?_pPerfUnRegFunc@ATL@@3P6AJXZEA 0000000180033ed0     OposVariant.obj
 0003:00000ed8       ?_AtlRegisterPerUser@ATL@@3_NA 0000000180033ed8     OposVariant.obj
 0003:00000ee0       ?_pAtlModule@ATL@@3PEAVCAtlModule@1@EA 0000000180033ee0     OposVariant.obj
 0003:00000ee8       ?_pModule@ATL@@3PEAVCComModule@1@EA 0000000180033ee8     OposVariant.obj
 0003:00000ef0       ?_AtlComModule@ATL@@3VCAtlComModule@1@A 0000000180033ef0     OposVariant.obj
 0003:00000f40       ?_AtlWinModule@ATL@@3VCAtlWinModule@1@A 0000000180033f40     OposVariant.obj
 0003:00000f88       ?m_libid@CAtlModule@ATL@@2U_GUID@@A 0000000180033f88     ElectronicValueRW.obj
 0003:00000f98       ?_entries@?1??GetConnMap@COPOSElectronicValueRW@@SAPEBU_ATL_CONNMAP_ENTRY@ATL@@PEAH@Z@4QBU34@B 0000000180033f98     ElectronicValueRW.obj
 0003:00000fb0       ?$TSS0@?1??GetConnMap@COPOSElectronicValueRW@@SAPEBU_ATL_CONNMAP_ENTRY@ATL@@PEAH@Z@4HA 0000000180033fb0     ElectronicValueRW.obj
 0003:00000fb8       ?_OptionsStorage@?1??__local_stdio_printf_options@@9@4_KA 0000000180033fb8     ElectronicValueRW.obj
 0003:00000fc0       ?pfnRegDeleteKeyEx@?1??DeleteSubKey@CRegKey@ATL@@QEAAJPEB_W@Z@4P6AJPEAUHKEY__@@0KK@ZEA 0000000180033fc0     ElectronicValueRW.obj
 0003:00000fc8       ?bInitialized@?1??DeleteSubKey@CRegKey@ATL@@QEAAJPEB_W@Z@4_NA 0000000180033fc8     ElectronicValueRW.obj
 0003:00000fd0       ?_Module@@3VCComModule@ATL@@A 0000000180033fd0     ElectronicValueRW.obj
 0003:00001020       ?pConnMap@?$IConnectionPointContainerImpl@VCOPOSElectronicValueRW@@@ATL@@0PEBU_ATL_CONNMAP_ENTRY@2@EB 0000000180034020     ElectronicValueRW.obj
 0003:00001028       ?s_nInstances@COPOSElectronicValueRW@@1HA 0000000180034028     ElectronicValueRWImpl.obj
 0003:00001030       __scrt_current_native_startup_state 0000000180034030     LIBCMT:utility.obj
 0003:00001038       __scrt_native_startup_lock 0000000180034038     LIBCMT:utility.obj
 0003:00001630       _tls_index                 0000000180034630     LIBCMT:tlssup.obj
 0003:00001638       __favor                    0000000180034638     LIBCMT:cpu_disp.obj
 0003:0000163c       __scrt_debugger_hook_flag  000000018003463c     LIBCMT:utility_desktop.obj
 0003:00001640       ?__type_info_root_node@@3U__type_info_node@@A 0000000180034640     LIBCMT:tncleanup.obj
 0003:00001650       ?_OptionsStorage@?1??__local_stdio_scanf_options@@9@4_KA 0000000180034650     LIBCMT:default_local_stdio_options.obj
 0003:00001660       ?_AtlBaseModule@ATL@@3VCAtlBaseModule@1@A 0000000180034660     atls:atlbase.obj
 0003:000016c0       ?__AtlThunkPool@@3PEAT_SLIST_HEADER@@EA 00000001800346c0     atls:atlthunk.obj
 0003:000016ec       __@@_PchSym_@00@UztvmgUPdlipUCUhUrmgvinvwrzgvUexgllohUzgohOmzgrevkilqPBACIAJCBDBUlyqiUznwGEUhgwzucOlyq@4B2008FD98C1DD4 00000001800346ec     atls:stdafx.obj
 0003:000016f0       ?__WinRTOutOfMemoryExceptionCallback@@3P6APEAXXZEA 00000001800346f0     libvcruntime:ehhelpers.obj
 0003:000016f8       __pPurecall                00000001800346f8     libvcruntime:purevirt_data.obj
 0003:00001800       ?pArgList@UnDecorator@@0PEAVReplicator@@EA 0000000180034800     libvcruntime:undname.obj
 0003:00001808       ?pZNameList@UnDecorator@@0PEAVReplicator@@EA 0000000180034808     libvcruntime:undname.obj
 0003:00001810       ?pTemplateArgList@UnDecorator@@0PEAVReplicator@@EA 0000000180034810     libvcruntime:undname.obj
 0003:00001818       ?gName@UnDecorator@@0PEBDEB 0000000180034818     libvcruntime:undname.obj
 0003:00001820       ?name@UnDecorator@@0PEBDEB 0000000180034820     libvcruntime:undname.obj
 0003:00001828       ?disableFlags@UnDecorator@@0KA 0000000180034828     libvcruntime:undname.obj
 0003:0000182c       ?fExplicitTemplateParams@UnDecorator@@0_NA 000000018003482c     libvcruntime:undname.obj
 0003:0000182d       ?fGetTemplateArgumentList@UnDecorator@@0_NA 000000018003482d     libvcruntime:undname.obj
 0003:00001830       ?m_pGetParameter@UnDecorator@@0P6APEADJ@ZEA 0000000180034830     libvcruntime:undname.obj
 0003:00001838       ?m_CHPENameOffset@UnDecorator@@0KA 0000000180034838     libvcruntime:undname.obj
 0003:0000183c       ?m_recursionLevel@UnDecorator@@0KA 000000018003483c     libvcruntime:undname.obj
 0003:00001998       _environ_table             0000000180034998     libucrt:environment_initialization.obj
 0003:000019a0       _wenviron_table            00000001800349a0     libucrt:environment_initialization.obj
 0003:000019a8       __dcrt_initial_wide_environment 00000001800349a8     libucrt:environment_initialization.obj
 0003:000019b0       __dcrt_initial_narrow_environment 00000001800349b0     libucrt:environment_initialization.obj
 0003:000019b8       __acrt_atexit_table        00000001800349b8     libucrt:onexit.obj
 0003:000019d0       __acrt_at_quick_exit_table 00000001800349d0     libucrt:onexit.obj
 0003:00001b98       _nstream                   0000000180034b98     libucrt:_file.obj
 0003:00001ba0       __piob                     0000000180034ba0     libucrt:_file.obj
 0003:00001bb0       __acrt_stdout_buffer       0000000180034bb0     libucrt:_sftbuf.obj
 0003:00001bb8       __acrt_stderr_buffer       0000000180034bb8     libucrt:_sftbuf.obj
 0003:00001bc0       __acrt_locale_changed_data 0000000180034bc0     libucrt:wsetlocale.obj
 0003:00001bc8       __acrt_current_locale_data 0000000180034bc8     libucrt:nlsdata.obj
 0003:00001bd0       __pioinfo                  0000000180034bd0     libucrt:ioinit.obj
 0003:00001fd0       _nhandle                   0000000180034fd0     libucrt:ioinit.obj
 0003:000021ec       __mbcodepage               00000001800351ec     libucrt:mbctype.obj
 0003:000021f0       __ismbcodepage             00000001800351f0     libucrt:mbctype.obj
 0003:000021f8       __mbulinfo                 00000001800351f8     libucrt:mbctype.obj
 0003:00002208       __mblocalename             0000000180035208     libucrt:mbctype.obj
 0003:00002214       __argc                     0000000180035214     libucrt:argv_data.obj
 0003:00002218       __argv                     0000000180035218     libucrt:argv_data.obj
 0003:00002220       __wargv                    0000000180035220     libucrt:argv_data.obj
 0003:00002228       _acmdln                    0000000180035228     libucrt:argv_data.obj
 0003:00002230       _wcmdln                    0000000180035230     libucrt:argv_data.obj
 0003:00002238       _pgmptr                    0000000180035238     libucrt:argv_data.obj
 0003:00002240       __acrt_heap                0000000180035240     libucrt:heap_handle.obj
 0003:00002274       __acrt_lconv_static_null   0000000180035274     libucrt:localeconv.obj
 0003:00002278       __acrt_lconv_static_W_null 0000000180035278     libucrt:localeconv.obj
 0003:00002280       __fma3_is_available        0000000180035280     libucrt:fma3_available.obj
 0003:00002284       __use_fma3_lib             0000000180035284     libucrt:fma3_available.obj
 0003:00002288       __dyn_tls_init_callback    0000000180035288     <common>
 0003:00002290       __scrt_ucrt_dll_is_in_use  0000000180035290     <common>

 entry point at        0001:00011dc4

 Static symbols

 0000:fffbd000       .debug$S                   0000000180000000     user32:USER32.dll
 0000:fffbd000       .debug$S                   0000000180000000     oleaut32:OLEAUT32.dll
 0000:fffbd000       .debug$S                   0000000180000000     oleaut32:OLEAUT32.dll
 0000:fffbd000       .debug$S                   0000000180000000     oleaut32:OLEAUT32.dll
 0000:fffbd000       .debug$S                   0000000180000000     oleaut32:OLEAUT32.dll
 0000:fffbd000       .debug$S                   0000000180000000     oleaut32:OLEAUT32.dll
 0000:fffbd000       .debug$S                   0000000180000000     oleaut32:OLEAUT32.dll
 0000:fffbd000       .debug$S                   0000000180000000     oleaut32:OLEAUT32.dll
 0000:fffbd000       .debug$S                   0000000180000000     oleaut32:OLEAUT32.dll
 0000:fffbd000       .debug$S                   0000000180000000     oleaut32:OLEAUT32.dll
 0000:fffbd000       .debug$S                   0000000180000000     oleaut32:OLEAUT32.dll
 0000:fffbd000       .debug$S                   0000000180000000     oleaut32:OLEAUT32.dll
 0000:fffbd000       .debug$S                   0000000180000000     oleaut32:OLEAUT32.dll
 0000:fffbd000       .debug$S                   0000000180000000     oleaut32:OLEAUT32.dll
 0000:fffbd000       .debug$S                   0000000180000000     oleaut32:OLEAUT32.dll
 0000:fffbd000       .debug$S                   0000000180000000     OPOSElectronicValueRW.exp
 0000:fffbd000       .debug$S                   0000000180000000     kernel32:KERNEL32.dll
 0000:fffbd000       .debug$S                   0000000180000000     kernel32:KERNEL32.dll
 0000:fffbd000       .debug$S                   0000000180000000     kernel32:KERNEL32.dll
 0000:fffbd000       .debug$S                   0000000180000000     kernel32:KERNEL32.dll
 0000:fffbd000       .debug$S                   0000000180000000     kernel32:KERNEL32.dll
 0000:fffbd000       .debug$S                   0000000180000000     kernel32:KERNEL32.dll
 0000:fffbd000       .debug$S                   0000000180000000     kernel32:KERNEL32.dll
 0000:fffbd000       .debug$S                   0000000180000000     kernel32:KERNEL32.dll
 0000:fffbd000       .debug$S                   0000000180000000     oleaut32:OLEAUT32.dll
 0000:fffbd000       .debug$S                   0000000180000000     kernel32:KERNEL32.dll
 0000:fffbd000       .debug$S                   0000000180000000     kernel32:KERNEL32.dll
 0000:fffbd000       .debug$S                   0000000180000000     kernel32:KERNEL32.dll
 0000:fffbd000       .debug$S                   0000000180000000     kernel32:KERNEL32.dll
 0000:fffbd000       .debug$S                   0000000180000000     kernel32:KERNEL32.dll
 0000:fffbd000       .debug$S                   0000000180000000     kernel32:KERNEL32.dll
 0000:fffbd000       .debug$S                   0000000180000000     kernel32:KERNEL32.dll
 0000:fffbd000       .debug$S                   0000000180000000     kernel32:KERNEL32.dll
 0000:fffbd000       .debug$S                   0000000180000000     kernel32:KERNEL32.dll
 0000:fffbd000       .debug$S                   0000000180000000     kernel32:KERNEL32.dll
 0000:fffbd000       .debug$S                   0000000180000000     kernel32:KERNEL32.dll
 0000:fffbd000       .debug$S                   0000000180000000     kernel32:KERNEL32.dll
 0000:fffbd000       .debug$S                   0000000180000000     kernel32:KERNEL32.dll
 0000:fffbd000       .debug$S                   0000000180000000     kernel32:KERNEL32.dll
 0000:fffbd000       .debug$S                   0000000180000000     kernel32:KERNEL32.dll
 0000:fffbd000       .debug$S                   0000000180000000     kernel32:KERNEL32.dll
 0000:fffbd000       .debug$S                   0000000180000000     kernel32:KERNEL32.dll
 0000:fffbd000       .debug$S                   0000000180000000     kernel32:KERNEL32.dll
 0000:fffbd000       .debug$S                   0000000180000000     kernel32:KERNEL32.dll
 0000:fffbd000       .debug$S                   0000000180000000     kernel32:KERNEL32.dll
 0000:fffbd000       .debug$S                   0000000180000000     kernel32:KERNEL32.dll
 0000:fffbd000       .debug$S                   0000000180000000     kernel32:KERNEL32.dll
 0000:fffbd000       .debug$S                   0000000180000000     kernel32:KERNEL32.dll
 0000:fffbd000       .debug$S                   0000000180000000     kernel32:KERNEL32.dll
 0000:fffbd000       .debug$S                   0000000180000000     kernel32:KERNEL32.dll
 0000:fffbd000       .debug$S                   0000000180000000     kernel32:KERNEL32.dll
 0000:fffbd000       .debug$S                   0000000180000000     kernel32:KERNEL32.dll
 0000:fffbd000       .debug$S                   0000000180000000     kernel32:KERNEL32.dll
 0000:fffbd000       .debug$S                   0000000180000000     kernel32:KERNEL32.dll
 0000:fffbd000       .debug$S                   0000000180000000     kernel32:KERNEL32.dll
 0000:fffbd000       .debug$S                   0000000180000000     kernel32:KERNEL32.dll
 0000:fffbd000       .debug$S                   0000000180000000     kernel32:KERNEL32.dll
 0000:fffbd000       .debug$S                   0000000180000000     kernel32:KERNEL32.dll
 0000:fffbd000       .debug$S                   0000000180000000     kernel32:KERNEL32.dll
 0000:fffbd000       .debug$S                   0000000180000000     kernel32:KERNEL32.dll
 0000:fffbd000       .debug$S                   0000000180000000     kernel32:KERNEL32.dll
 0000:fffbd000       .debug$S                   0000000180000000     kernel32:KERNEL32.dll
 0000:fffbd000       .debug$S                   0000000180000000     kernel32:KERNEL32.dll
 0000:fffbd000       .debug$S                   0000000180000000     kernel32:KERNEL32.dll
 0000:fffbd000       .debug$S                   0000000180000000     kernel32:KERNEL32.dll
 0000:fffbd000       .debug$S                   0000000180000000     kernel32:KERNEL32.dll
 0000:fffbd000       .debug$S                   0000000180000000     kernel32:KERNEL32.dll
 0000:fffbd000       .debug$S                   0000000180000000     kernel32:KERNEL32.dll
 0000:fffbd000       .debug$S                   0000000180000000     kernel32:KERNEL32.dll
 0000:fffbd000       .debug$S                   0000000180000000     kernel32:KERNEL32.dll
 0000:fffbd000       .debug$S                   0000000180000000     kernel32:KERNEL32.dll
 0000:fffbd000       .debug$S                   0000000180000000     kernel32:KERNEL32.dll
 0000:fffbd000       .debug$S                   0000000180000000     kernel32:KERNEL32.dll
 0000:fffbd000       .debug$S                   0000000180000000     kernel32:KERNEL32.dll
 0000:fffbd000       .debug$S                   0000000180000000     kernel32:KERNEL32.dll
 0000:fffbd000       .debug$S                   0000000180000000     kernel32:KERNEL32.dll
 0000:fffbd000       .debug$S                   0000000180000000     kernel32:KERNEL32.dll
 0000:fffbd000       .debug$S                   0000000180000000     kernel32:KERNEL32.dll
 0000:fffbd000       .debug$S                   0000000180000000     kernel32:KERNEL32.dll
 0000:fffbd000       .debug$S                   0000000180000000     kernel32:KERNEL32.dll
 0000:fffbd000       .debug$S                   0000000180000000     kernel32:KERNEL32.dll
 0000:fffbd000       .debug$S                   0000000180000000     kernel32:KERNEL32.dll
 0000:fffbd000       .debug$S                   0000000180000000     kernel32:KERNEL32.dll
 0000:fffbd000       .debug$S                   0000000180000000     kernel32:KERNEL32.dll
 0000:fffbd000       .debug$S                   0000000180000000     kernel32:KERNEL32.dll
 0000:fffbd000       .debug$S                   0000000180000000     kernel32:KERNEL32.dll
 0000:fffbd000       .debug$S                   0000000180000000     kernel32:KERNEL32.dll
 0000:fffbd000       .debug$S                   0000000180000000     kernel32:KERNEL32.dll
 0000:fffbd000       .debug$S                   0000000180000000     kernel32:KERNEL32.dll
 0000:fffbd000       .debug$S                   0000000180000000     kernel32:KERNEL32.dll
 0000:fffbd000       .debug$S                   0000000180000000     kernel32:KERNEL32.dll
 0000:fffbd000       .debug$S                   0000000180000000     kernel32:KERNEL32.dll
 0000:fffbd000       .debug$S                   0000000180000000     kernel32:KERNEL32.dll
 0000:fffbd000       .debug$S                   0000000180000000     kernel32:KERNEL32.dll
 0000:fffbd000       .debug$S                   0000000180000000     kernel32:KERNEL32.dll
 0000:fffbd000       .debug$S                   0000000180000000     kernel32:KERNEL32.dll
 0000:fffbd000       .debug$S                   0000000180000000     kernel32:KERNEL32.dll
 0000:fffbd000       .debug$S                   0000000180000000     kernel32:KERNEL32.dll
 0000:fffbd000       .debug$S                   0000000180000000     kernel32:KERNEL32.dll
 0000:fffbd000       .debug$S                   0000000180000000     kernel32:KERNEL32.dll
 0000:fffbd000       .debug$S                   0000000180000000     kernel32:KERNEL32.dll
 0000:fffbd000       .debug$S                   0000000180000000     kernel32:KERNEL32.dll
 0000:fffbd000       .debug$S                   0000000180000000     kernel32:KERNEL32.dll
 0000:fffbd000       .debug$S                   0000000180000000     kernel32:KERNEL32.dll
 0000:fffbd000       .debug$S                   0000000180000000     kernel32:KERNEL32.dll
 0000:fffbd000       .debug$S                   0000000180000000     kernel32:KERNEL32.dll
 0000:fffbd000       .debug$S                   0000000180000000     kernel32:KERNEL32.dll
 0000:fffbd000       .debug$S                   0000000180000000     kernel32:KERNEL32.dll
 0000:fffbd000       .debug$S                   0000000180000000     kernel32:KERNEL32.dll
 0000:fffbd000       .debug$S                   0000000180000000     kernel32:KERNEL32.dll
 0000:fffbd000       .debug$S                   0000000180000000     kernel32:KERNEL32.dll
 0000:fffbd000       .debug$S                   0000000180000000     kernel32:KERNEL32.dll
 0000:fffbd000       .debug$S                   0000000180000000     kernel32:KERNEL32.dll
 0000:fffbd000       .debug$S                   0000000180000000     kernel32:KERNEL32.dll
 0000:fffbd000       .debug$S                   0000000180000000     kernel32:KERNEL32.dll
 0000:fffbd000       .debug$S                   0000000180000000     kernel32:KERNEL32.dll
 0000:fffbd000       .debug$S                   0000000180000000     kernel32:KERNEL32.dll
 0000:fffbd000       .debug$S                   0000000180000000     ole32:ole32.dll
 0000:fffbd000       .debug$S                   0000000180000000     kernel32:KERNEL32.dll
 0000:fffbd000       .debug$S                   0000000180000000     kernel32:KERNEL32.dll
 0000:fffbd000       .debug$S                   0000000180000000     kernel32:KERNEL32.dll
 0000:fffbd000       .debug$S                   0000000180000000     kernel32:KERNEL32.dll
 0000:fffbd000       .debug$S                   0000000180000000     kernel32:KERNEL32.dll
 0000:fffbd000       .debug$S                   0000000180000000     kernel32:KERNEL32.dll
 0000:fffbd000       .debug$S                   0000000180000000     kernel32:KERNEL32.dll
 0000:fffbd000       .debug$S                   0000000180000000     ole32:ole32.dll
 0000:fffbd000       .debug$S                   0000000180000000     kernel32:KERNEL32.dll
 0000:fffbd000       .debug$S                   0000000180000000     ole32:ole32.dll
 0000:fffbd000       .debug$S                   0000000180000000     ole32:ole32.dll
 0000:fffbd000       .debug$S                   0000000180000000     kernel32:KERNEL32.dll
 0000:fffbd000       .debug$S                   0000000180000000     kernel32:KERNEL32.dll
 0000:fffbd000       .debug$S                   0000000180000000     kernel32:KERNEL32.dll
 0000:fffbd000       .debug$S                   0000000180000000     kernel32:KERNEL32.dll
 0000:fffbd000       .debug$S                   0000000180000000     kernel32:KERNEL32.dll
 0000:fffbd000       .debug$S                   0000000180000000     kernel32:KERNEL32.dll
 0000:fffbd000       .debug$S                   0000000180000000     user32:USER32.dll
 0000:fffbd000       .debug$S                   0000000180000000     user32:USER32.dll
 0000:fffbd000       .debug$S                   0000000180000000     ole32:ole32.dll
 0000:fffbd000       .debug$S                   0000000180000000     user32:USER32.dll
 0000:fffbd000       .debug$S                   0000000180000000     user32:USER32.dll
 0000:fffbd000       .debug$S                   0000000180000000     user32:USER32.dll
 0000:fffbd000       .debug$S                   0000000180000000     ole32:ole32.dll
 0000:fffbd000       .debug$S                   0000000180000000     oleaut32:OLEAUT32.dll
 0000:fffbd000       .debug$S                   0000000180000000     user32:USER32.dll
 0000:fffbd000       .debug$S                   0000000180000000     ole32:ole32.dll
 0000:fffbd000       .debug$S                   0000000180000000     user32:USER32.dll
 0000:fffbd000       .debug$S                   0000000180000000     user32:USER32.dll
 0000:fffbd000       .debug$S                   0000000180000000     user32:USER32.dll
 0000:fffbd000       .debug$S                   0000000180000000     user32:USER32.dll
 0000:fffbd000       .debug$S                   0000000180000000     user32:USER32.dll
 0000:fffbd000       .debug$S                   0000000180000000     user32:USER32.dll
 0000:fffbd000       .debug$S                   0000000180000000     user32:USER32.dll
 0000:fffbd000       .debug$S                   0000000180000000     user32:USER32.dll
 0000:fffbd000       .debug$S                   0000000180000000     ole32:ole32.dll
 0000:fffbd000       .debug$S                   0000000180000000     ole32:ole32.dll
 0000:fffbd000       .debug$S                   0000000180000000     user32:USER32.dll
 0000:fffbd000       .debug$S                   0000000180000000     user32:USER32.dll
 0000:fffbd000       .debug$S                   0000000180000000     user32:USER32.dll
 0000:fffbd000       .debug$S                   0000000180000000     user32:USER32.dll
 0000:fffbd000       .debug$S                   0000000180000000     user32:USER32.dll
 0000:fffbd000       .debug$S                   0000000180000000     user32:USER32.dll
 0000:fffbd000       .debug$S                   0000000180000000     ole32:ole32.dll
 0000:fffbd000       .debug$S                   0000000180000000     ole32:ole32.dll
 0000:fffbd000       .debug$S                   0000000180000000     user32:USER32.dll
 0000:fffbd000       .debug$S                   0000000180000000     user32:USER32.dll
 0000:fffbd000       .debug$S                   0000000180000000     user32:USER32.dll
 0000:fffbd000       .debug$S                   0000000180000000     user32:USER32.dll
 0000:fffbd000       .debug$S                   0000000180000000     user32:USER32.dll
 0000:fffbd000       .debug$S                   0000000180000000     user32:USER32.dll
 0000:fffbd000       .debug$S                   0000000180000000     user32:USER32.dll
 0000:fffbd000       .debug$S                   0000000180000000     user32:USER32.dll
 0000:fffbd000       .debug$S                   0000000180000000     user32:USER32.dll
 0000:fffbd000       .debug$S                   0000000180000000     user32:USER32.dll
 0000:fffbd000       .debug$S                   0000000180000000     user32:USER32.dll
 0000:fffbd000       .debug$S                   0000000180000000     user32:USER32.dll
 0000:fffbd000       .debug$S                   0000000180000000     user32:USER32.dll
 0000:fffbd000       .debug$S                   0000000180000000     user32:USER32.dll
 0000:fffbd000       .debug$S                   0000000180000000     ole32:ole32.dll
 0000:fffbd000       .debug$S                   0000000180000000     gdi32:GDI32.dll
 0000:fffbd000       .debug$S                   0000000180000000     gdi32:GDI32.dll
 0000:fffbd000       .debug$S                   0000000180000000     gdi32:GDI32.dll
 0000:fffbd000       .debug$S                   0000000180000000     gdi32:GDI32.dll
 0000:fffbd000       .debug$S                   0000000180000000     gdi32:GDI32.dll
 0000:fffbd000       .debug$S                   0000000180000000     gdi32:GDI32.dll
 0000:fffbd000       .debug$S                   0000000180000000     ole32:ole32.dll
 0000:fffbd000       .debug$S                   0000000180000000     gdi32:GDI32.dll
 0000:fffbd000       .debug$S                   0000000180000000     gdi32:GDI32.dll
 0000:fffbd000       .debug$S                   0000000180000000     ole32:ole32.dll
 0000:fffbd000       .debug$S                   0000000180000000     gdi32:GDI32.dll
 0000:fffbd000       .debug$S                   0000000180000000     gdi32:GDI32.dll
 0000:fffbd000       .debug$S                   0000000180000000     gdi32:GDI32.dll
 0000:fffbd000       .debug$S                   0000000180000000     gdi32:GDI32.dll
 0000:fffbd000       .debug$S                   0000000180000000     gdi32:GDI32.dll
 0000:fffbd000       .debug$S                   0000000180000000     gdi32:GDI32.dll
 0000:fffbd000       .debug$S                   0000000180000000     gdi32:GDI32.dll
 0000:fffbd000       .debug$S                   0000000180000000     gdi32:GDI32.dll
 0000:fffbd000       .debug$S                   0000000180000000     gdi32:GDI32.dll
 0000:fffbd000       .debug$S                   0000000180000000     gdi32:GDI32.dll
 0000:fffbd000       .debug$S                   0000000180000000     gdi32:GDI32.dll
 0000:fffbd000       .debug$S                   0000000180000000     advapi32:ADVAPI32.dll
 0000:fffbd000       .debug$S                   0000000180000000     advapi32:ADVAPI32.dll
 0000:fffbd000       .debug$S                   0000000180000000     advapi32:ADVAPI32.dll
 0000:fffbd000       .debug$S                   0000000180000000     advapi32:ADVAPI32.dll
 0000:fffbd000       .debug$S                   0000000180000000     advapi32:ADVAPI32.dll
 0000:fffbd000       .debug$S                   0000000180000000     advapi32:ADVAPI32.dll
 0000:fffbd000       .debug$S                   0000000180000000     advapi32:ADVAPI32.dll
 0000:fffbd000       .debug$S                   0000000180000000     advapi32:ADVAPI32.dll
 0000:fffbd000       .debug$S                   0000000180000000     advapi32:ADVAPI32.dll
 0001:00000000       ??__E_AtlComModule@ATL@@YAXXZ 0000000180001000 f   OposVariant.obj
 0001:00000020       ??__E_AtlWinModule@ATL@@YAXXZ 0000000180001020 f   OposVariant.obj
 0001:00000040       ??__E?pConnMap@?$IConnectionPointContainerImpl@VCOPOSElectronicValueRW@@@ATL@@0PEBU_ATL_CONNMAP_ENTRY@2@EB@@YAXXZ 0000000180001040 f   ElectronicValueRW.obj
 0001:00000058       ??__E_Module@@YAXXZ        0000000180001058 f   ElectronicValueRW.obj
 0001:00000094       ??__E_AtlBaseModule@ATL@@YAXXZ 0000000180001094 f   atls:atlbase.obj
 0001:0000be44       memcpy_s                   000000018000ce44 f   ElectronicValueRW.obj
 0001:00011304       ?__scrt_initialize_thread_safe_statics@@YAHXZ 0000000180012304 f   LIBCMT:thread_safe_statics.obj
 0001:00011464       ?__scrt_uninitialize_thread_safe_statics@@YAXXZ 0000000180012464 f   LIBCMT:thread_safe_statics.obj
 0001:000117d4       capture_current_context    00000001800127d4 f   LIBCMT:gs_report.obj
 0001:00011844       capture_previous_context   0000000180012844 f   LIBCMT:gs_report.obj
 0001:000119f0       $$000000                   00000001800129f0     LIBCMT:chkstk.obj
 0001:00011a60       $$000000                   0000000180012a60     LIBCMT:amdsecgs.obj
 0001:00011a94       ?dllmain_crt_dispatch@@YAHQEAUHINSTANCE__@@KQEAX@Z 0000000180012a94 f   LIBCMT:dll_dllmain.obj
 0001:00011ae4       ?dllmain_crt_process_attach@@YAHQEAUHINSTANCE__@@QEAX@Z 0000000180012ae4 f   LIBCMT:dll_dllmain.obj
 0001:00011c00       ?dllmain_crt_process_detach@@YAH_N@Z 0000000180012c00 f   LIBCMT:dll_dllmain.obj
 0001:00011c90       ?dllmain_dispatch@@YAHQEAUHINSTANCE__@@KQEAX@Z 0000000180012c90 f   LIBCMT:dll_dllmain.obj
 0001:00012578       ??$GetProcAddressAll@P6AXPEAUAtlThunkData_t@@@Z@@YAP6AXPEAUAtlThunkData_t@@@ZPEAP6AX0@Z@Z 0000000180013578 f   atls:atlthunk.obj
 0001:00012578       ??$GetProcAddressAll@P6AP6A_JPEAUHWND__@@I_K_J@ZPEAUAtlThunkData_t@@@Z@@YAP6AP6A_JPEAUHWND__@@I_K_J@ZPEAUAtlThunkData_t@@@ZPEAP6AP6A_J0I12@Z3@Z@Z 0000000180013578 f   atls:atlthunk.obj
 0001:00012578       ??$GetProcAddressAll@P6APEAUAtlThunkData_t@@XZ@@YAP6APEAUAtlThunkData_t@@XZPEAP6APEAU0@XZ@Z 0000000180013578 f   atls:atlthunk.obj
 0001:00012578       ??$GetProcAddressAll@P6AXPEAUAtlThunkData_t@@PEAX_K@Z@@YAP6AXPEAUAtlThunkData_t@@PEAX_K@ZPEAP6AX012@Z@Z 0000000180013578 f   atls:atlthunk.obj
 0001:00012750       ?__InitializeThunkPool@@YAHXZ 0000000180013750 f   atls:atlthunk.obj
 0001:000129b0       $$000000                   00000001800139b0     libvcruntime:memset.obj
 0001:00012aac       MsetTab                    0000000180013aac     libvcruntime:memset.obj
 0001:00012dc0       $$000000                   0000000180013dc0     libvcruntime:memcmp.obj
 0001:00012ea0       $$000000                   0000000180013ea0     libvcruntime:memcpy.obj
 0001:00012f57       MoveSmall                  0000000180013f57     libvcruntime:memcpy.obj
 0001:000140e0       ?try_get_function@@YAPEAXW4function_id@?A0xbfd18cd1@@QEBDQEBW4module_id@2@2@Z 00000001800150e0 f   libvcruntime:winapi_downlevel.obj
 0001:000144c0       $$000000                   00000001800154c0     libvcruntime:notify.obj
 0001:00014648       ??$BuildCatchObjectHelperInternal@V__FrameHandler3@@@@YAHPEAUEHExceptionRecord@@PEAXPEBU_s_HandlerType@@PEBU_s_CatchableType@@@Z 0000000180015648 f   libvcruntime:frame.obj
 0001:00014848       ??$BuildCatchObjectInternal@V__FrameHandler3@@@@YAXPEAUEHExceptionRecord@@PEAXPEBU_s_HandlerType@@PEBU_s_CatchableType@@@Z 0000000180015848 f   libvcruntime:frame.obj
 0001:00014908       ??$CatchIt@V__FrameHandler3@@@@YAXPEAUEHExceptionRecord@@PEA_KPEAU_CONTEXT@@PEAU_xDISPATCHER_CONTEXT@@PEBU_s_FuncInfo@@PEBU_s_HandlerType@@PEBU_s_CatchableType@@PEBU_s_TryBlockMapEntry@@H1EE@Z 0000000180015908 f   libvcruntime:frame.obj
 0001:000149d8       ??$FindHandler@V__FrameHandler3@@@@YAXPEAUEHExceptionRecord@@PEA_KPEAU_CONTEXT@@PEAU_xDISPATCHER_CONTEXT@@PEBU_s_FuncInfo@@EH1@Z 00000001800159d8 f   libvcruntime:frame.obj
 0001:00014e3c       ??$FindHandlerForForeignException@V__FrameHandler3@@@@YAXPEAUEHExceptionRecord@@PEA_KPEAU_CONTEXT@@PEAU_xDISPATCHER_CONTEXT@@PEBU_s_FuncInfo@@HH1@Z 0000000180015e3c f   libvcruntime:frame.obj
 0001:00015644       ?ExFilterRethrow@@YAHPEAU_EXCEPTION_POINTERS@@PEAUEHExceptionRecord@@PEAH@Z 0000000180016644 f   libvcruntime:frame.obj
 0001:000158f8       ?IsInExceptionSpec@@YAEPEAUEHExceptionRecord@@PEBU_s_ESTypeList@@@Z 00000001800168f8 f   libvcruntime:frame.obj
 0001:000159d0       ?Is_bad_exception_allowed@@YAEPEBU_s_ESTypeList@@@Z 00000001800169d0 f   libvcruntime:frame.obj
 0001:00015a80       $$000000                   0000000180016a80     libvcruntime:handlers.obj
 0001:0001621c       ??$common_vsprintf@Vformat_validation_base@__crt_stdio_output@@_W@@YAH_KQEA_W0QEB_WQEAU__crt_locale_pointers@@QEAD@Z 000000018001721c f   libucrt:output.obj
 0001:000179d4       ?atexit_exception_filter@@YAHK@Z 00000001800189d4 f   libucrt:exit.obj
 0001:000179e0       ?common_exit@@YAXHW4_crt_exit_cleanup_mode@@W4_crt_exit_return_mode@@@Z 00000001800189e0 f   libucrt:exit.obj
 0001:00017b4c       ?exit_or_terminate_process@@YAXI@Z 0000000180018b4c f   libucrt:exit.obj
 0001:00017b98       ?try_cor_exit_process@@YAXI@Z 0000000180018b98 f   libucrt:exit.obj
 0001:00017c30       ??$parse_command_line@D@@YAXPEADPEAPEAD0PEA_K2@Z 0000000180018c30 f   libucrt:argv_parsing.obj
 0001:00017fc8       ??$common_initialize_environment_nolock@D@@YAHXZ 0000000180018fc8 f   libucrt:environment_initialization.obj
 0001:00018034       ??$create_environment@D@@YAQEAPEADQEAD@Z 0000000180019034 f   libucrt:environment_initialization.obj
 0001:00018130       ??$free_environment@D@@YAXQEAPEAD@Z 0000000180019130 f   libucrt:environment_initialization.obj
 0001:00018130       ??$free_environment@_W@@YAXQEAPEA_W@Z 0000000180019130 f   libucrt:environment_initialization.obj
 0001:00018174       ??$uninitialize_environment_internal@D@@YAXAEAPEAPEAD@Z 0000000180019174 f   libucrt:environment_initialization.obj
 0001:00018190       ??$uninitialize_environment_internal@_W@@YAXAEAPEAPEA_W@Z 0000000180019190 f   libucrt:environment_initialization.obj
 0001:000183c8       ??R<lambda_4e60a939b0d047cfe11ddc22648dfba9>@@QEBAHXZ 00000001800193c8 f   libucrt:onexit.obj
 0001:00018678       initialize_global_variables 0000000180019678 f   libucrt:initialization.obj
 0001:0001868c       initialize_c               000000018001968c f   libucrt:initialization.obj
 0001:000186b0       uninitialize_global_state_isolation 00000001800196b0 f   libucrt:initialization.obj
 0001:000186b0       report_memory_leaks        00000001800196b0 f   libucrt:initialization.obj
 0001:000186b0       uninitialize_c             00000001800196b0 f   libucrt:initialization.obj
 0001:000186b0       initialize_environment     00000001800196b0 f   libucrt:initialization.obj
 0001:000186b0       initialize_global_state_isolation 00000001800196b0 f   libucrt:initialization.obj
 0001:000186b4       uninitialize_environment   00000001800196b4 f   libucrt:initialization.obj
 0001:000186c4       initialize_pointers        00000001800196c4 f   libucrt:initialization.obj
 0001:00018718       uninitialize_vcruntime     0000000180019718 f   libucrt:initialization.obj
 0001:00018720       uninitialize_allocated_memory 0000000180019720 f   libucrt:initialization.obj
 0001:00019160       $$000000                   000000018001a160     libucrt:strncmp.obj
 0001:00019358       ?construct_ptd_array@@YAXQEAU__acrt_ptd@@@Z 000000018001a358 f   libucrt:per_thread_data.obj
 0001:00019428       ?destroy_fls@@YAXPEAX@Z    000000018001a428 f   libucrt:per_thread_data.obj
 0001:00019448       ?destroy_ptd_array@@YAXQEAU__acrt_ptd@@@Z 000000018001a448 f   libucrt:per_thread_data.obj
 0001:00019540       ?replace_current_thread_locale_nolock@@YAXQEAU__acrt_ptd@@QEAU__crt_locale_data@@@Z 000000018001a540 f   libucrt:per_thread_data.obj
 0001:00019918       ?try_get_function@@YAPEAXW4function_id@?A0x63058377@@QEBDQEBW4module_id@2@2@Z 000000018001a918 f   libucrt:winapi_thunks.obj
 0001:00019fc0       ?internal_isupper_l@@YA_NHQEAU__crt_locale_pointers@@@Z 000000018001afc0 f   libucrt:tolower_toupper.obj
 0001:0001a5d0       ?fp_format_a@@YAHQEBNPEAD_KQEAD2H_NIQEAU__crt_locale_pointers@@@Z 000000018001b5d0 f   libucrt:cvt.obj
 0001:0001a930       ?fp_format_e@@YAHQEBNQEAD_K12H_NIQEAU__crt_locale_pointers@@@Z 000000018001b930 f   libucrt:cvt.obj
 0001:0001aa00       ?fp_format_e_internal@@YAHQEAD_KH_NIQEAU_strflt@@2QEAU__crt_locale_pointers@@@Z 000000018001ba00 f   libucrt:cvt.obj
 0001:0001abdc       ?fp_format_f_internal@@YAHQEAD_KHQEAU_strflt@@_NQEAU__crt_locale_pointers@@@Z 000000018001bbdc f   libucrt:cvt.obj
 0001:0001ad24       ?fp_format_g@@YAHQEBNQEAD_K12H_NIQEAU__crt_locale_pointers@@@Z 000000018001bd24 f   libucrt:cvt.obj
 0001:0001ae5c       ?fp_format_nan_or_infinity@@YAHW4__acrt_fp_class@@_NPEAD_K1@Z 000000018001be5c f   libucrt:cvt.obj
 0001:0001b40c       ?initialize_inherited_file_handles_nolock@@YAXXZ 000000018001c40c f   libucrt:ioinit.obj
 0001:0001b4f8       ?initialize_stdio_handles_nolock@@YAXXZ 000000018001c4f8 f   libucrt:ioinit.obj
 0001:0001b728       ?<helper_func_cdecl>@<lambda_2feae5270eb4d0d5532525f423405775>@@CAHPEBX0@Z 000000018001c728 f   libucrt:argv_wildcards.obj
 0001:0001b73c       ??$common_expand_argv_wildcards@D@@YAHQEAPEADQEAPEAPEAD@Z 000000018001c73c f   libucrt:argv_wildcards.obj
 0001:0001b948       ??$copy_and_add_argument_to_buffer@D@@YAHQEBD0_KAEAV?$argument_list@D@?A0xca0879c4@@@Z 000000018001c948 f   libucrt:argv_wildcards.obj
 0001:0001ba58       ??$expand_argument_wildcards@D@@YAHQEAD0AEAV?$argument_list@D@?A0xca0879c4@@@Z 000000018001ca58 f   libucrt:argv_wildcards.obj
 0001:0001bd0c       ??R<lambda_ad1ced32f4ac17aa236e5ef05d6b3b7c>@@QEBAXXZ 000000018001cd0c f   libucrt:mbctype.obj
 0001:0001bf24       ?getSystemCP@@YAHH@Z       000000018001cf24 f   libucrt:mbctype.obj
 0001:0001bfa4       ?setSBCS@@YAXPEAU__crt_multibyte_data@@@Z 000000018001cfa4 f   libucrt:mbctype.obj
 0001:0001c034       ?setSBUpLow@@YAXPEAU__crt_multibyte_data@@@Z 000000018001d034 f   libucrt:mbctype.obj
 0001:0001c218       ?setmbcp_internal@@YAHH_N@Z 000000018001d218 f   libucrt:mbctype.obj
 0001:0001c760       ?x_ismbbtype_l@@YAHPEAU__crt_locale_pointers@@IHH@Z 000000018001d760 f   libucrt:ismbbyte.obj
 0001:0001d38c       ?GetTableIndexFromLocaleName@@YAHPEB_W@Z 000000018001e38c f   libucrt:lcidtoname_downlevel.obj
 0001:0001d4c8       ?__acrt_LCMapStringA_stat@@YAHPEAU__crt_locale_pointers@@PEB_WKPEBDHPEADHHH@Z 000000018001e4c8 f   libucrt:lcmapstringa.obj
 0001:0001f1bc       memcpy_s                   00000001800201bc f   libucrt:cfout.obj
 0001:0001f3c8       common_flush_all           00000001800203c8 f   libucrt:fflush.obj
 0001:0001f6c4       ?free_crt_array_internal@@YAXQEAPEBX_K@Z 00000001800206c4 f   libucrt:inittime.obj
 0001:0001fd00       ?shortsort@@YAXPEAD0_KP6AHPEBX2@Z@Z 0000000180020d00 f   libucrt:qsort.obj
 0001:00020318       ?initialize_multibyte@@YAHXZ 0000000180021318 f   libucrt:multibyte_initializer.obj
 0001:000204d0       $$000000                   00000001800214d0     libucrt:log10.obj
 0001:00020a7c       ?write_double_translated_ansi_nolock@@YA?AUwrite_result@?A0x9c548279@@HQEBDI@Z 0000000180021a7c f   libucrt:write.obj
 0001:00020c84       ?write_text_ansi_nolock@@YA?AUwrite_result@?A0x9c548279@@HQEBDI@Z 0000000180021c84 f   libucrt:write.obj
 0001:00020d8c       ?write_text_utf16le_nolock@@YA?AUwrite_result@?A0x9c548279@@HQEBDI@Z 0000000180021d8c f   libucrt:write.obj
 0001:00020ea8       ?write_text_utf8_nolock@@YA?AUwrite_result@?A0x9c548279@@HQEBDI@Z 0000000180021ea8 f   libucrt:write.obj
 0001:000213ec       ??$common_lseek_nolock@_J@@YA_JH_JH@Z 00000001800223ec f   libucrt:lseek.obj
 0001:000217d8       common_control87           00000001800227d8 f   libucrt:ieee.obj
 0001:00021a70       _call_matherr              0000000180022a70 f   libucrt:libm_error.obj
 0001:00021ad8       _exception_enabled         0000000180022ad8 f   libucrt:libm_error.obj
 0001:00021d70       _log_special_common        0000000180022d70 f   libucrt:log_special.obj
 0001:00022080       $$000000                   0000000180023080     libucrt:fpsr.obj
 0001:000227a0       $$000000                   00000001800237a0     LIBCMT:guard_dispatch.obj
 0001:000227c0       ?filt$0@?0??_AtlVerifyStackAvailable@_ATL_SAFE_ALLOCA_IMPL@ATL@@YA_N_K@Z@4HA 00000001800237c0 f   ElectronicValueRW.obj
 0001:000227e1       __scrt_is_nonwritable_in_current_image$filt$0 00000001800237e1 f   LIBCMT:utility.obj
 0001:000227f9       ?catch$0@?0???2@YAPEAX_KAEBUnothrow_t@std@@@Z@4HA 00000001800237f9 f   LIBCMT:new_scalar_nothrow.obj
 0001:00022806       __catch$??2@YAPEAX_KAEBUnothrow_t@std@@@Z$0 0000000180023806 f   LIBCMT:new_scalar_nothrow.obj
 0001:00022814       ?fin$0@?0??dllmain_crt_process_attach@@YAHQEAUHINSTANCE__@@QEAX@Z@4HA 0000000180023814 f   LIBCMT:dll_dllmain.obj
 0001:0002282b       ?fin$0@?0??dllmain_crt_process_detach@@YAH_N@Z@4HA 000000018002382b f   LIBCMT:dll_dllmain.obj
 0001:00022847       ?filt$0@?0??dllmain_dispatch@@YAHQEAUHINSTANCE__@@KQEAX@Z@4HA 0000000180023847 f   LIBCMT:dll_dllmain.obj
 0001:0002287d       __DestructExceptionObject$filt$0 000000018002387d f   libvcruntime:ehhelpers.obj
 0001:00022895       ?filt$0@?0???$_CallSETranslator@V__FrameHandler3@@@@YAHPEAUEHExceptionRecord@@PEA_KPEAU_CONTEXT@@PEAU_xDISPATCHER_CONTEXT@@PEBU_s_FuncInfo@@K1@Z@4HA 0000000180023895 f   libvcruntime:risctrnsctrl.obj
 0001:00022926       ?filt$0@?0??CxxCallCatchBlock@__FrameHandler3@@SAPEAXPEAU_EXCEPTION_RECORD@@@Z@4HA 0000000180023926 f   libvcruntime:frame.obj
 0001:0002294b       ?fin$1@?0??CxxCallCatchBlock@__FrameHandler3@@SAPEAXPEAU_EXCEPTION_RECORD@@@Z@4HA 000000018002394b f   libvcruntime:frame.obj
 0001:000229c3       ?filt$0@?0??FrameUnwindToState@__FrameHandler3@@SAXPEA_KPEAU_xDISPATCHER_CONTEXT@@PEBU_s_FuncInfo@@H@Z@4HA 00000001800239c3 f   libvcruntime:frame.obj
 0001:000229d9       ?fin$1@?0??FrameUnwindToState@__FrameHandler3@@SAXPEA_KPEAU_xDISPATCHER_CONTEXT@@PEBU_s_FuncInfo@@H@Z@4HA 00000001800239d9 f   libvcruntime:frame.obj
 0001:000229fc       ?filt$0@?0??common_exit@@YAXHW4_crt_exit_cleanup_mode@@W4_crt_exit_return_mode@@@Z@4HA 00000001800239fc f   libucrt:exit.obj
 0001:00022a17       ?fin$1@?0??common_exit@@YAXHW4_crt_exit_cleanup_mode@@W4_crt_exit_return_mode@@@Z@4HA 0000000180023a17 f   libucrt:exit.obj
 0001:00022a30       ?fin$0@?0???$?RV<lambda_fb3a7dec4e47f37f22dae91bb15c9095>@@AEAV<lambda_698284760c8add0bfb0756c19673e34b>@@V<lambda_dfb8eca1e75fef3034a8fb18dd509707>@@@?$__crt_seh_guarded_call@X@@QEAAX$$QEAV<lambda_fb3a7dec4e47f37f22dae91bb15c9095>@@AEAV<lambda_698284760c8add0bfb0756c19673e34b>@@$$QEAV<lambda_dfb8eca1e75fef3034a8fb18dd509707>@@@Z@4HA 0000000180023a30 f   libucrt:per_thread_data.obj
 0001:00022a30       ?fin$0@?0???$?RV<lambda_b8c45f8f788dd370798f47cfe8ac3a86>@@AEAV<lambda_4e60a939b0d047cfe11ddc22648dfba9>@@V<lambda_332c3edc96d0294ec56c57d38c1cdfd5>@@@?$__crt_seh_guarded_call@H@@QEAAH$$QEAV<lambda_b8c45f8f788dd370798f47cfe8ac3a86>@@AEAV<lambda_4e60a939b0d047cfe11ddc22648dfba9>@@$$QEAV<lambda_332c3edc96d0294ec56c57d38c1cdfd5>@@@Z@4HA 0000000180023a30 f   libucrt:onexit.obj
 0001:00022a30       ?fin$0@?0???$?RV<lambda_5e887d1dcbef67a5eb4283622ba103bf>@@AEAV<lambda_4466841279450cc726390878d4a41900>@@V<lambda_341c25c0346d94847f1f3c463c57e077>@@@?$__crt_seh_guarded_call@X@@QEAAX$$QEAV<lambda_5e887d1dcbef67a5eb4283622ba103bf>@@AEAV<lambda_4466841279450cc726390878d4a41900>@@$$QEAV<lambda_341c25c0346d94847f1f3c463c57e077>@@@Z@4HA 0000000180023a30 f   libucrt:per_thread_data.obj
 0001:00022a30       ?fin$0@?0???$?RV<lambda_46352004c1216016012b18bd6f87e700>@@AEAV<lambda_3bd07e1a1191394380780325891bf33f>@@V<lambda_334532d3f185bcaa59b5be82d7d22bff>@@@?$__crt_seh_guarded_call@X@@QEAAX$$QEAV<lambda_46352004c1216016012b18bd6f87e700>@@AEAV<lambda_3bd07e1a1191394380780325891bf33f>@@$$QEAV<lambda_334532d3f185bcaa59b5be82d7d22bff>@@@Z@4HA 0000000180023a30 f   libucrt:per_thread_data.obj
 0001:00022a30       ?fin$0@?0???$?RV<lambda_99476a1ad63dd22509b5d3e65b0ffc95>@@AEAV<lambda_ad1ced32f4ac17aa236e5ef05d6b3b7c>@@V<lambda_f7424dd8d45958661754dc4f2697e9c3>@@@?$__crt_seh_guarded_call@X@@QEAAX$$QEAV<lambda_99476a1ad63dd22509b5d3e65b0ffc95>@@AEAV<lambda_ad1ced32f4ac17aa236e5ef05d6b3b7c>@@$$QEAV<lambda_f7424dd8d45958661754dc4f2697e9c3>@@@Z@4HA 0000000180023a30 f   libucrt:mbctype.obj
 0001:00022a30       ?fin$0@?0???$?RV<lambda_c36588078e9f5dfd39652860aa6b3aaf>@@AEAV<lambda_ec61778202f4f5fc7e7711acc23c3bca>@@V<lambda_dc9d2797ccde5d239b4a0efae8ebd7db>@@@?$__crt_seh_guarded_call@P6AXH@Z@@QEAAP6AXH@Z$$QEAV<lambda_c36588078e9f5dfd39652860aa6b3aaf>@@AEAV<lambda_ec61778202f4f5fc7e7711acc23c3bca>@@$$QEAV<lambda_dc9d2797ccde5d239b4a0efae8ebd7db>@@@Z@4HA 0000000180023a30 f   libucrt:signal.obj
 0001:00022a30       ?fin$0@?0???$?RV<lambda_72d1df2b273a38828b1ce30cbf4cdab5>@@AEAV<lambda_876a65b173b8412d3a47c70a915b0cf4>@@V<lambda_41932305e351933ebe8f8be3ed8bb5dc>@@@?$__crt_seh_guarded_call@X@@QEAAX$$QEAV<lambda_72d1df2b273a38828b1ce30cbf4cdab5>@@AEAV<lambda_876a65b173b8412d3a47c70a915b0cf4>@@$$QEAV<lambda_41932305e351933ebe8f8be3ed8bb5dc>@@@Z@4HA 0000000180023a30 f   libucrt:per_thread_data.obj
 0001:00022a4a       ?fin$0@?0???$?RV<lambda_e24bbb7b643b32fcea6fa61b31d4c984>@@AEAV<lambda_275893d493268fdec8709772e3fcec0e>@@V<lambda_9d71df4d7cf3f480f8d633942495c3b0>@@@?$__crt_seh_guarded_call@H@@QEAAH$$QEAV<lambda_e24bbb7b643b32fcea6fa61b31d4c984>@@AEAV<lambda_275893d493268fdec8709772e3fcec0e>@@$$QEAV<lambda_9d71df4d7cf3f480f8d633942495c3b0>@@@Z@4HA 0000000180023a4a f   libucrt:onexit.obj
 0001:00022a67       _query_new_handler$fin$0   0000000180023a67 f   libucrt:new_handler.obj
 0001:00022a7d       __acrt_update_thread_locale_data$fin$0 0000000180023a7d f   libucrt:locale_refcounting.obj
 0001:00022a7d       __acrt_uninitialize_locale$fin$0 0000000180023a7d f   libucrt:wsetlocale.obj
 0001:00022a96       __acrt_initialize_lowio$fin$0 0000000180023a96 f   libucrt:ioinit.obj
 0001:00022a96       __acrt_lowio_ensure_fh_exists$fin$0 0000000180023a96 f   libucrt:osfinfo.obj
 0001:00022aaf       __acrt_update_thread_multibyte_data$fin$0 0000000180023aaf f   libucrt:mbctype.obj
 0001:00022ac8       raise$fin$0                0000000180023ac8 f   libucrt:signal.obj
 0001:00022aec       _fcloseall$fin$0           0000000180023aec f   libucrt:closeall.obj
 0001:00022b05       common_flush_all$fin$0     0000000180023b05 f   libucrt:fflush.obj
 0001:00022b1f       common_flush_all$fin$1     0000000180023b1f f   libucrt:fflush.obj
 0001:00022b38       _write$fin$0               0000000180023b38 f   libucrt:write.obj
 0001:00022b4f       fclose$fin$0               0000000180023b4f f   libucrt:fclose.obj
 0001:00022b67       ?fin$0@?0???$?RV<lambda_b521505b218e5242e90febf6bfebc422>@@AEAV<lambda_6978c1fb23f02e42e1d9e99668cc68aa>@@V<lambda_314360699dd331753a4119843814e9a7>@@@?$__crt_seh_guarded_call@H@@QEAAH$$QEAV<lambda_b521505b218e5242e90febf6bfebc422>@@AEAV<lambda_6978c1fb23f02e42e1d9e99668cc68aa>@@$$QEAV<lambda_314360699dd331753a4119843814e9a7>@@@Z@4HA 0000000180023b67 f   libucrt:commit.obj
 0001:00022b67       ?fin$0@?0???$?RV<lambda_bfedae4ebbf01fab1bb6dcc6a9e276e0>@@AEAV<lambda_2fe9b910cf3cbf4a0ab98a02ba45b3ec>@@V<lambda_237c231691f317818eb88cc1d5d642d6>@@@?$__crt_seh_guarded_call@H@@QEAAH$$QEAV<lambda_bfedae4ebbf01fab1bb6dcc6a9e276e0>@@AEAV<lambda_2fe9b910cf3cbf4a0ab98a02ba45b3ec>@@$$QEAV<lambda_237c231691f317818eb88cc1d5d642d6>@@@Z@4HA 0000000180023b67 f   libucrt:close.obj
 0001:00022b81       common_control87$filt$0    0000000180023b81 f   libucrt:ieee.obj
 0001:00022b81       _ctrlfp$filt$0             0000000180023b81 f   libucrt:fpctrl.obj
 0001:00022bb0       _IsNonwritableInCurrentImage$filt$0 0000000180023bb0 f   LIBCMT:pesect.obj
 0001:00022bd0       ??__F_AtlComModule@ATL@@YAXXZ 0000000180023bd0 f   OposVariant.obj
 0001:00022bdc       ??__F_AtlWinModule@ATL@@YAXXZ 0000000180023bdc f   OposVariant.obj
 0001:00022c20       ??__F_Module@@YAXXZ        0000000180023c20 f   ElectronicValueRW.obj
 0001:00022c84       ??__F_AtlBaseModule@ATL@@YAXXZ 0000000180023c84 f   atls:atlbase.obj
 0002:00000638       ?_AtlBaseModule$initializer$@ATL@@3P6AXXZEA 0000000180024638     atls:atlbase.obj
 0002:00000640       ?_AtlComModule$initializer$@ATL@@3P6AXXZEA 0000000180024640     OposVariant.obj
 0002:00000648       ?_AtlWinModule$initializer$@ATL@@3P6AXXZEA 0000000180024648     OposVariant.obj
 0002:00000650       ?_Module$initializer$@@3P6AXXZEA 0000000180024650     ElectronicValueRW.obj
 0002:00000658       ??pConnMap$initializer$@?$IConnectionPointContainerImpl@VCOPOSElectronicValueRW@@@ATL@@0P6AXXZEA@@3P6AXXZEA 0000000180024658     ElectronicValueRW.obj
 0002:00000670       ?__scrt_initialize_tss_var@@3P6AHXZEA 0000000180024670     LIBCMT:thread_safe_statics.obj
 0002:000031b0       $cppxdata$?__scrt_initialize_thread_safe_statics@@YAHXZ 00000001800271b0     LIBCMT:thread_safe_statics.obj
 0002:000032a8       GS_ExceptionPointers       00000001800272a8     LIBCMT:gs_report.obj
 0002:000032b8       $cppxdata$??2@YAPEAX_KAEBUnothrow_t@std@@@Z 00000001800272b8     LIBCMT:new_scalar_nothrow.obj
 0002:00003490       ?ExceptionTemplate@?1??UnwindNestedFrames@__FrameHandler3@@SAXPEA_KPEAUEHExceptionRecord@@PEAU_CONTEXT@@0PEAXPEBU_s_FuncInfo@@HHPEBU_s_HandlerType@@PEAU_xDISPATCHER_CONTEXT@@E@Z@4U_EXCEPTION_RECORD@@B 0000000180027490     libvcruntime:risctrnsctrl.obj
 0002:00003530       ?ExceptionTemplate@?1??_CxxThrowException@@9@4UEHExceptionRecord@@B 0000000180027530     libvcruntime:throw.obj
 0002:00003570       ?module_names@?A0xbfd18cd1@@3QBQEB_WB 0000000180027570     libvcruntime:winapi_downlevel.obj
 0002:00003640       ?candidate_modules@?1??try_get_FlsAlloc@@YAP6AKP6AXPEAX@Z@ZXZ@4QBW4module_id@?A0xbfd18cd1@@B 0000000180027640     libvcruntime:winapi_downlevel.obj
 0002:00003658       ?candidate_modules@?1??try_get_FlsFree@@YAP6AHK@ZXZ@4QBW4module_id@?A0xbfd18cd1@@B 0000000180027658     libvcruntime:winapi_downlevel.obj
 0002:00003668       ?candidate_modules@?1??try_get_FlsGetValue@@YAP6APEAXK@ZXZ@4QBW4module_id@?A0xbfd18cd1@@B 0000000180027668     libvcruntime:winapi_downlevel.obj
 0002:00003680       ?candidate_modules@?1??try_get_FlsSetValue@@YAP6AHKPEAX@ZXZ@4QBW4module_id@?A0xbfd18cd1@@B 0000000180027680     libvcruntime:winapi_downlevel.obj
 0002:00003698       ?candidate_modules@?1??try_get_InitializeCriticalSectionEx@@YAP6AHPEAU_RTL_CRITICAL_SECTION@@KK@ZXZ@4QBW4module_id@?A0xbfd18cd1@@B 0000000180027698     libvcruntime:winapi_downlevel.obj
 0002:000036f0       ?tokenTable@@3QBQEBDB      00000001800276f0     libvcruntime:undname.obj
 0002:00003770       ?nameTable@@3QBQEBDB       0000000180027770     libvcruntime:undname.obj
 0002:00003a00       ?rttiTable@@3QBQEBDB       0000000180027a00     libvcruntime:undname.obj
 0002:000040c0       errtable                   00000001800280c0     libucrt:errno.obj
 0002:000043b0       __acrt_initializers        00000001800283b0     libucrt:initialization.obj
 0002:000044a0       module_names               00000001800284a0     libucrt:winapi_thunks.obj
 0002:00004a80       ?candidate_modules@?1??try_get_FlsAlloc@@YAP6AKP6AXPEAX@Z@ZXZ@4QBW4module_id@?A0x63058377@@B 0000000180028a80     libucrt:winapi_thunks.obj
 0002:00004a98       ?candidate_modules@?1??try_get_FlsFree@@YAP6AHK@ZXZ@4QBW4module_id@?A0x63058377@@B 0000000180028a98     libucrt:winapi_thunks.obj
 0002:00004aa8       ?candidate_modules@?1??try_get_FlsGetValue@@YAP6APEAXK@ZXZ@4QBW4module_id@?A0x63058377@@B 0000000180028aa8     libucrt:winapi_thunks.obj
 0002:00004ac0       ?candidate_modules@?1??try_get_FlsSetValue@@YAP6AHKPEAX@ZXZ@4QBW4module_id@?A0x63058377@@B 0000000180028ac0     libucrt:winapi_thunks.obj
 0002:00004ad8       ?candidate_modules@?1??try_get_GetCurrentPackageId@@YAP6AJPEAIPEAE@ZXZ@4QBW4module_id@?A0x63058377@@B 0000000180028ad8     libucrt:winapi_thunks.obj
 0002:00004af8       ?candidate_modules@?1??try_get_InitializeCriticalSectionEx@@YAP6AHPEAU_RTL_CRITICAL_SECTION@@KK@ZXZ@4QBW4module_id@?A0x63058377@@B 0000000180028af8     libucrt:winapi_thunks.obj
 0002:00004b20       ?candidate_modules@?1??try_get_LCMapStringEx@@YAP6AHPEB_WK0HPEA_WHPEAU_nlsversioninfo@@PEAX_J@ZXZ@4QBW4module_id@?A0x63058377@@B 0000000180028b20     libucrt:winapi_thunks.obj
 0002:00004b38       ?candidate_modules@?1??try_get_LocaleNameToLCID@@YAP6AKPEB_WK@ZXZ@4QBW4module_id@?A0x63058377@@B 0000000180028b38     libucrt:winapi_thunks.obj
 0002:00004b58       ?candidate_modules@?1??try_get_SetThreadStackGuarantee@@YAP6AHPEAK@ZXZ@4QBW4module_id@?A0x63058377@@B 0000000180028b58     libucrt:winapi_thunks.obj
 0002:00005250       _mb_locale_names           0000000180029250     libucrt:mbctype.obj
 0002:00005ac0       LcidToLocaleNameTable      0000000180029ac0     libucrt:lcidtoname_downlevel.obj
 0002:00007520       LocaleNameToIndexTable     000000018002b520     libucrt:lcidtoname_downlevel.obj
 0002:000097c0       __real_ninf                000000018002d7c0     libucrt:log10.obj
 0002:000097d0       __real_inf                 000000018002d7d0     libucrt:log10.obj
 0002:000097e0       __real_neg_qnan            000000018002d7e0     libucrt:log10.obj
 0002:000097f0       __real_qnanbit             000000018002d7f0     libucrt:log10.obj
 0002:00009800       __int_1023                 000000018002d800     libucrt:log10.obj
 0002:00009810       __mask_001                 000000018002d810     libucrt:log10.obj
 0002:00009820       __mask_mant                000000018002d820     libucrt:log10.obj
 0002:00009830       __mask_mant_top8           000000018002d830     libucrt:log10.obj
 0002:00009840       __mask_mant9               000000018002d840     libucrt:log10.obj
 0002:00009850       __real_log10_e             000000018002d850     libucrt:log10.obj
 0002:00009860       __real_log10_e_lead        000000018002d860     libucrt:log10.obj
 0002:00009870       __real_log10_e_tail        000000018002d870     libucrt:log10.obj
 0002:00009880       __real_log10_2_lead        000000018002d880     libucrt:log10.obj
 0002:00009890       __real_log10_2_tail        000000018002d890     libucrt:log10.obj
 0002:000098a0       __real_two                 000000018002d8a0     libucrt:log10.obj
 0002:000098b0       __real_one                 000000018002d8b0     libucrt:log10.obj
 0002:000098c0       __real_half                000000018002d8c0     libucrt:log10.obj
 0002:000098d0       __mask_100                 000000018002d8d0     libucrt:log10.obj
 0002:000098e0       __real_1_over_512          000000018002d8e0     libucrt:log10.obj
 0002:000098f0       __real_1_over_2            000000018002d8f0     libucrt:log10.obj
 0002:00009900       __real_1_over_3            000000018002d900     libucrt:log10.obj
 0002:00009910       __real_1_over_4            000000018002d910     libucrt:log10.obj
 0002:00009920       __real_1_over_5            000000018002d920     libucrt:log10.obj
 0002:00009930       __real_1_over_6            000000018002d930     libucrt:log10.obj
 0002:00009940       __real_neg_1023            000000018002d940     libucrt:log10.obj
 0002:00009950       __mask_2045                000000018002d950     libucrt:log10.obj
 0002:00009960       __real_threshold           000000018002d960     libucrt:log10.obj
 0002:00009970       __real_near_one_lt         000000018002d970     libucrt:log10.obj
 0002:00009980       __real_near_one_gt         000000018002d980     libucrt:log10.obj
 0002:00009990       __real_min_norm            000000018002d990     libucrt:log10.obj
 0002:000099a0       __real_notsign             000000018002d9a0     libucrt:log10.obj
 0002:000099b0       __real_ca1                 000000018002d9b0     libucrt:log10.obj
 0002:000099c0       __real_ca2                 000000018002d9c0     libucrt:log10.obj
 0002:000099d0       __real_ca3                 000000018002d9d0     libucrt:log10.obj
 0002:000099e0       __real_ca4                 000000018002d9e0     libucrt:log10.obj
 0002:000099f0       __mask_lower               000000018002d9f0     libucrt:log10.obj
 0002:00009a00       __flag_x_zero              000000018002da00     libucrt:log10.obj
 0002:00009a04       __flag_x_neg               000000018002da04     libucrt:log10.obj
 0002:00009a08       __flag_x_nan               000000018002da08     libucrt:log10.obj
 0002:0000b250       __real@433fffffffffffff    000000018002f250     libucrt:fpsr.obj
 0002:0000b258       __real@c33fffffffffffff    000000018002f258     libucrt:fpsr.obj
 0002:0000baa0       $unwind$_log10_special     000000018002faa0     libucrt:log_special.obj
 0002:0000baa0       $unwind$?ProcessWindowMessage@?$CComControl@VCOPOSElectronicValueRW@@V?$CWindowImpl@VCOPOSElectronicValueRW@@VCWindow@ATL@@V?$CWinTraits@$0FGAAAAAA@$0A@@3@@ATL@@@ATL@@UEAAHPEAUHWND__@@I_K_JAEA_JK@Z 000000018002faa0     ElectronicValueRW.obj
 0002:0000baa0       $unwind$_invalid_parameter_noinfo 000000018002faa0     libucrt:invalid_parameter.obj
 0002:0000baa0       $unwind$?cw_memcpy@@YAHPEA_WPEBDH@Z 000000018002faa0     CWString.obj
 0002:0000baa8       $unwind$_get_osfhandle     000000018002faa8     libucrt:osfinfo.obj
 0002:0000baa8       $unwind$??1OposDispParms@@QEAA@XZ 000000018002faa8     OposVariant.obj
 0002:0000baa8       $unwind$?AtlThrowImpl@ATL@@YAXJ@Z 000000018002faa8     ElectronicValueRW.obj
 0002:0000baa8       $unwind$__scrt_dllmain_crt_thread_attach 000000018002faa8     LIBCMT:utility.obj
 0002:0000baa8       $unwind$?AtlHresultFromLastError@ATL@@YAJXZ 000000018002faa8     ElectronicValueRW.obj
 0002:0000baa8       $unwind$__doserrno         000000018002faa8     libucrt:errno.obj
 0002:0000baa8       $unwind$__scrt_dllmain_uninitialize_critical 000000018002faa8     LIBCMT:utility.obj
 0002:0000baa8       $unwind$__scrt_dllmain_uninitialize_c 000000018002faa8     LIBCMT:utility.obj
 0002:0000baa8       $unwind$__scrt_dllmain_after_initialize_c 000000018002faa8     LIBCMT:utility.obj
 0002:0000baa8       $unwind$_errno             000000018002faa8     libucrt:errno.obj
 0002:0000baa8       $unwind$_invoke_watson     000000018002faa8     libucrt:invalid_parameter.obj
 0002:0000baa8       $unwind$__scrt_dllmain_before_initialize_c 000000018002faa8     LIBCMT:utility.obj
 0002:0000baa8       $unwind$_Init_thread_notify 000000018002faa8     LIBCMT:thread_safe_statics.obj
 0002:0000baa8       $unwind$__scrt_acquire_startup_lock 000000018002faa8     LIBCMT:utility.obj
 0002:0000baa8       $unwind$atexit             000000018002faa8     LIBCMT:utility.obj
 0002:0000baa8       $unwind$?__scrt_uninitialize_thread_safe_statics@@YAXXZ 000000018002faa8     LIBCMT:thread_safe_statics.obj
 0002:0000baa8       $unwind$__report_rangecheckfailure 000000018002faa8     LIBCMT:gs_report.obj
 0002:0000baa8       $unwind$?AddReplacement@CRegObject@ATL@@UEAAJPEB_W0@Z 000000018002faa8     ElectronicValueRW.obj
 0002:0000baa8       $unwind$?initialize_multibyte@@YAHXZ 000000018002faa8     libucrt:multibyte_initializer.obj
 0002:0000baa8       $unwind$__GSHandlerCheck   000000018002faa8     LIBCMT:gshandler.obj
 0002:0000baa8       $unwind$__acrt_uninitialize_critical 000000018002faa8     libucrt:initialization.obj
 0002:0000baa8       $unwind$__acrt_DownlevelLocaleNameToLCID 000000018002faa8     libucrt:lcidtoname_downlevel.obj
 0002:0000baa8       $unwind$?cw_strcpy@@YAHPEA_WPEBD@Z 000000018002faa8     CWString.obj
 0002:0000baa8       $unwind$?CreateInstance@CComClassFactory@ATL@@UEAAJPEAUIUnknown@@AEBU_GUID@@PEAPEAX@Z 000000018002faa8     ElectronicValueRW.obj
 0002:0000baa8       $unwind$?LockServer@CComClassFactory@ATL@@UEAAJH@Z 000000018002faa8     ElectronicValueRW.obj
 0002:0000baa8       $unwind$__acrt_thread_attach 000000018002faa8     libucrt:initialization.obj
 0002:0000baa8       $unwind$__acrt_thread_detach 000000018002faa8     libucrt:initialization.obj
 0002:0000baa8       $unwind$initialize_c       000000018002faa8     libucrt:initialization.obj
 0002:0000baa8       $unwind$?DefaultReflectionHandler@?$CWindowImplRoot@VCWindow@ATL@@@ATL@@SAHPEAUHWND__@@I_K_JAEA_J@Z 000000018002faa8     ElectronicValueRW.obj
 0002:0000baa8       $unwind$uninitialize_environment 000000018002faa8     libucrt:initialization.obj
 0002:0000baa8       $unwind$?GetCurrentState@__FrameHandler3@@SAHPEA_KPEAU_xDISPATCHER_CONTEXT@@PEBU_s_FuncInfo@@@Z 000000018002faa8     libvcruntime:ehstate.obj
 0002:0000baa8       $unwind$?state_case_size@?$output_processor@_WV?$string_output_adapter@_W@__crt_stdio_output@@V?$format_validation_base@_WV?$string_output_adapter@_W@__crt_stdio_output@@@2@@__crt_stdio_output@@AEAA_NXZ 000000018002faa8     libucrt:output.obj
 0002:0000baa8       $unwind$_isatty            000000018002faa8     libucrt:isatty.obj
 0002:0000baa8       $unwind$_getfpcontrolword  000000018002faa8     libucrt:_fenvutils.obj
 0002:0000baa8       $unwind$?FireViewChange@CComControlBase@ATL@@QEAAJXZ 000000018002faa8     ElectronicValueRW.obj
 0002:0000baa8       $unwind$_getfpstatusword   000000018002faa8     libucrt:_fenvutils.obj
 0002:0000baa8       $unwind$??__E_AtlComModule@ATL@@YAXXZ 000000018002faa8     OposVariant.obj
 0002:0000baa8       $unwind$?dllmain_crt_dispatch@@YAHQEAUHINSTANCE__@@KQEAX@Z 000000018002faa8     LIBCMT:dll_dllmain.obj
 0002:0000baa8       $unwind$??__E_AtlWinModule@ATL@@YAXXZ 000000018002faa8     OposVariant.obj
 0002:0000baa8       $unwind$??__F_AtlWinModule@ATL@@YAXXZ 000000018002faa8     OposVariant.obj
 0002:0000baa8       $unwind$_fileno            000000018002faa8     libucrt:fileno.obj
 0002:0000baa8       $unwind$__scrt_initialize_default_local_stdio_options 000000018002faa8     LIBCMT:default_local_stdio_options.obj
 0002:0000baa8       $unwind$?Unadvise@?$IOleObjectImpl@VCOPOSElectronicValueRW@@@ATL@@UEAAJK@Z 000000018002faa8     ElectronicValueRW.obj
 0002:0000baa8       $unwind$?EnumAdvise@?$IOleObjectImpl@VCOPOSElectronicValueRW@@@ATL@@UEAAJPEAPEAUIEnumSTATDATA@@@Z 000000018002faa8     ElectronicValueRW.obj
 0002:0000baa8       $unwind$?OnDocWindowActivate@?$IOleInPlaceActiveObjectImpl@VCOPOSElectronicValueRW@@@ATL@@UEAAJH@Z 000000018002faa8     ElectronicValueRW.obj
 0002:0000baa8       $unwind$??$uninitialize_environment_internal@_W@@YAXAEAPEAPEA_W@Z 000000018002faa8     libucrt:environment_initialization.obj
 0002:0000baa8       $unwind$?GetAdvise@?$IViewObjectExImpl@VCOPOSElectronicValueRW@@@ATL@@UEAAJPEAK0PEAPEAUIAdviseSink@@@Z 000000018002faa8     ElectronicValueRW.obj
 0002:0000baa8       $unwind$_set_errno_from_matherr 000000018002faa8     libucrt:fpexcept.obj
 0002:0000baa8       $unwind$?GetLONG@OposVariant@@QEAAJXZ 000000018002faa8     OposVariant.obj
 0002:0000baa8       $unwind$abort              000000018002faa8     libucrt:abort.obj
 0002:0000baa8       $unwind$??$uninitialize_environment_internal@D@@YAXAEAPEAPEAD@Z 000000018002faa8     libucrt:environment_initialization.obj
 0002:0000baa8       $unwind$_statfp            000000018002faa8     libucrt:fpctrl.obj
 0002:0000baa8       $unwind$__dcrt_terminate_console_output 000000018002faa8     libucrt:initcon.obj
 0002:0000baa8       $unwind$?_LocCPQueryInterface@?$IConnectionPointImpl@VCOPOSElectronicValueRW@@$1?IID_IPropertyNotifySink@@3U_GUID@@BVCComDynamicUnkArray@ATL@@@ATL@@UEAAJAEBU_GUID@@PEAPEAX@Z 000000018002faa8     ElectronicValueRW.obj
 0002:0000baa8       $unwind$__acrt_initialize_heap 000000018002faa8     libucrt:heap_handle.obj
 0002:0000baa8       $unwind$__acrt_initialize_multibyte 000000018002faa8     libucrt:mbctype.obj
 0002:0000baa8       $unwind$?_LocCPQueryInterface@?$IConnectionPointImpl@VCOPOSElectronicValueRW@@$1?DIID__IOPOSElectronicValueRWEvents@@3U_GUID@@BVCComDynamicUnkArray@ATL@@@ATL@@UEAAJAEBU_GUID@@PEAPEAX@Z 000000018002faa8     ElectronicValueRW.obj
 0002:0000baa8       $unwind$__acrt_initialize_command_line 000000018002faa8     libucrt:argv_data.obj
 0002:0000baa8       $unwind$__acrt_initialize_ptd 000000018002faa8     libucrt:per_thread_data.obj
 0002:0000baa8       $unwind$__acrt_uninitialize_ptd 000000018002faa8     libucrt:per_thread_data.obj
 0002:0000baa8       $unwind$__dcrt_uninitialize_environments_nolock 000000018002faa8     libucrt:environment_initialization.obj
 0002:0000baa8       $unwind$?get_State@COPOSElectronicValueRW@@UEAAJPEAJ@Z 000000018002faa8     ElectronicValueRWImpl.obj
 0002:0000baa8       $unwind$_msize             000000018002faa8     libucrt:msize.obj
 0002:0000baa8       $unwind$__vcrt_freefls     000000018002faa8     libvcruntime:per_thread_data.obj
 0002:0000baa8       $unwind$?get_ResultCode@COPOSElectronicValueRW@@UEAAJPEAJ@Z 000000018002faa8     ElectronicValueRWImpl.obj
 0002:0000baa8       $unwind$__scrt_dllmain_crt_thread_detach 000000018002faa8     LIBCMT:utility.obj
 0002:0000baa8       $unwind$__vcrt_getptd      000000018002faa8     libvcruntime:per_thread_data.obj
 0002:0000baa8       $unwind$??__E_AtlBaseModule@ATL@@YAXXZ 000000018002faa8     atls:atlbase.obj
 0002:0000baa8       $unwind$??__F_Module@@YAXXZ 000000018002faa8     ElectronicValueRW.obj
 0002:0000baa8       $unwind$?FinalConstruct@COPOSElectronicValueRW@@QEAAJXZ 000000018002faa8     ElectronicValueRWImpl.obj
 0002:0000baa8       $unwind$__vcrt_uninitialize_ptd 000000018002faa8     libvcruntime:per_thread_data.obj
 0002:0000baa8       $unwind$__pctype_func      000000018002faa8     libucrt:ctype.obj
 0002:0000baa8       $unwind$__vcrt_initialize_ptd 000000018002faa8     libvcruntime:per_thread_data.obj
 0002:0000baa8       $unwind$_purecall          000000018002faa8     libvcruntime:purevirt.obj
 0002:0000baa8       $unwind$__vcrt_initialize  000000018002faa8     libvcruntime:initialization.obj
 0002:0000baa8       $unwind$__vcrt_uninitialize 000000018002faa8     libvcruntime:initialization.obj
 0002:0000baa8       $unwind$tolower            000000018002faa8     libucrt:tolower_toupper.obj
 0002:0000baa8       $unwind$__vcrt_uninitialize_critical 000000018002faa8     libvcruntime:initialization.obj
 0002:0000baa8       $unwind$_GetThrowImageBase 000000018002faa8     libvcruntime:risctrnsctrl.obj
 0002:0000baa8       $unwind$__vcrt_thread_attach 000000018002faa8     libvcruntime:initialization.obj
 0002:0000baa8       $unwind$??__E?pConnMap@?$IConnectionPointContainerImpl@VCOPOSElectronicValueRW@@@ATL@@0PEBU_ATL_CONNMAP_ENTRY@2@EB@@YAXXZ 000000018002faa8     ElectronicValueRW.obj
 0002:0000baa8       $unwind$__vcrt_thread_detach 000000018002faa8     libvcruntime:initialization.obj
 0002:0000baa8       $unwind$_GetImageBase      000000018002faa8     libvcruntime:risctrnsctrl.obj
 0002:0000baa8       $unwind$__std_terminate    000000018002faa8     libvcruntime:ehhelpers.obj
 0002:0000baa8       $unwind$__FrameUnwindFilter 000000018002faa8     libvcruntime:ehhelpers.obj
 0002:0000baa8       $unwind$__acrt_release_locale_ref 000000018002faa8     libucrt:locale_refcounting.obj
 0002:0000bab0       $unwind$?AtlComModuleRegisterServer@ATL@@YAJPEAU_ATL_COM_MODULE70@1@HPEBU_GUID@@@Z 000000018002fab0     ElectronicValueRW.obj
 0002:0000bab0       $unwind$?AtlModuleAddTermFunc@ATL@@YAJPEAU_ATL_MODULE70@1@P6AX_K@Z1@Z 000000018002fab0     ElectronicValueRW.obj
 0002:0000bab0       $unwind$??$TypeMatchHelper@V__FrameHandler3@@@@YAHPEBU_s_HandlerType@@PEBU_s_CatchableType@@PEBU_s_ThrowInfo@@@Z 000000018002fab0     libvcruntime:frame.obj
 0002:0000bab0       $unwind$?process@?$output_processor@_WV?$string_output_adapter@_W@__crt_stdio_output@@V?$format_validation_base@_WV?$string_output_adapter@_W@__crt_stdio_output@@@2@@__crt_stdio_output@@QEAAHXZ 000000018002fab0     libucrt:output.obj
 0002:0000bab0       $unwind$__GSHandlerCheck_SEH 000000018002fab0     LIBCMT:gshandlerseh.obj
 0002:0000bab0       $unwind$?cw_dup@@YAXPEBDAEAHAEAPEA_W1@Z 000000018002fab0     CWString.obj
 0002:0000bab0       $unwind$_initterm          000000018002fab0     libucrt:initterm.obj
 0002:0000bab0       $unwind$__acrt_initialize_stdio 000000018002fab0     libucrt:_file.obj
 0002:0000bab0       $unwind$??_Estringdispid@CComTypeInfoHolder@ATL@@QEAAPEAXI@Z 000000018002fab0     OposVariant.obj
 0002:0000bab0       $unwind$?GetPagesHelper@?$ISpecifyPropertyPagesImpl@VCOPOSElectronicValueRW@@@ATL@@IEAAJPEAUtagCAUUID@@PEBUATL_PROPMAP_ENTRY@2@@Z 000000018002fab0     ElectronicValueRW.obj
 0002:0000bab0       $unwind$?AtlComModuleUnregisterServer@ATL@@YAJPEAU_ATL_COM_MODULE70@1@HPEBU_GUID@@@Z 000000018002fab0     ElectronicValueRW.obj
 0002:0000bab0       $unwind$?CreateInstance@?$CComCreator@V?$CComAggObject@VCOPOSElectronicValueRW@@@ATL@@@ATL@@SAJPEAXAEBU_GUID@@PEAPEAX@Z 000000018002fab0     ElectronicValueRW.obj
 0002:0000bac8       $unwind$__std_exception_destroy 000000018002fac8     libvcruntime:std_exception.obj
 0002:0000bac8       $unwind$??1CComControlBase@ATL@@UEAA@XZ 000000018002fac8     ElectronicValueRWImpl.obj
 0002:0000bac8       $unwind$__std_type_info_destroy_list 000000018002fac8     libvcruntime:std_type_info.obj
 0002:0000bac8       $unwind$AtlThunk_AllocateData 000000018002fac8     atls:atlthunk.obj
 0002:0000bac8       $unwind$?type_case_integer@?$output_processor@_WV?$string_output_adapter@_W@__crt_stdio_output@@V?$format_validation_base@_WV?$string_output_adapter@_W@__crt_stdio_output@@@2@@__crt_stdio_output@@AEAA_NI_N@Z 000000018002fac8     libucrt:output.obj
 0002:0000bac8       $unwind$__acrt_allocate_buffer_for_argv 000000018002fac8     libucrt:argv_parsing.obj
 0002:0000bac8       $unwind$??1COPOSElectronicValueRW@@UEAA@XZ 000000018002fac8     ElectronicValueRWImpl.obj
 0002:0000bac8       $unwind$__acrt_uninitialize_winapi_thunks 000000018002fac8     libucrt:winapi_thunks.obj
 0002:0000bac8       $unwind$?FreezeEvents@COPOSElectronicValueRW@@MEAAJH@Z 000000018002fac8     ElectronicValueRWImpl.obj
 0002:0000bac8       $unwind$?EventUninit@COPOSElectronicValueRW@@IEAAXXZ 000000018002fac8     ElectronicValueRWImpl.obj
 0002:0000bac8       $unwind$_fflush_nolock     000000018002fac8     libucrt:fflush.obj
 0002:0000bac8       $unwind$?SOProcessID@COPOSElectronicValueRW@@UEAAJPEAJ@Z 000000018002fac8     ElectronicValueRWImpl.obj
 0002:0000bac8       $unwind$?get_AutoDisable@COPOSElectronicValueRW@@UEAAJPEAF@Z 000000018002fac8     ElectronicValueRWImpl.obj
 0002:0000bac8       $unwind$??__E_Module@@YAXXZ 000000018002fac8     ElectronicValueRW.obj
 0002:0000bac8       $unwind$?get_Claimed@COPOSElectronicValueRW@@UEAAJPEAF@Z 000000018002fac8     ElectronicValueRWImpl.obj
 0002:0000bac8       $unwind$__vcrt_freeptd     000000018002fac8     libvcruntime:per_thread_data.obj
 0002:0000bac8       $unwind$?get_DataEventEnabled@COPOSElectronicValueRW@@UEAAJPEAF@Z 000000018002fac8     ElectronicValueRWImpl.obj
 0002:0000bac8       $unwind$??_Gtype_info@@UEAAPEAXI@Z 000000018002fac8     LIBCMT:std_type_info_static.obj
 0002:0000bac8       $unwind$?get_DeviceEnabled@COPOSElectronicValueRW@@UEAAJPEAF@Z 000000018002fac8     ElectronicValueRWImpl.obj
 0002:0000bac8       $unwind$?get_FreezeEvents@COPOSElectronicValueRW@@UEAAJPEAF@Z 000000018002fac8     ElectronicValueRWImpl.obj
 0002:0000bac8       $unwind$?put_FreezeEvents@COPOSElectronicValueRW@@UEAAJF@Z 000000018002fac8     ElectronicValueRWImpl.obj
 0002:0000bac8       $unwind$??0bad_array_new_length@std@@QEAA@AEBV01@@Z 000000018002fac8     LIBCMT:throw_bad_alloc.obj
 0002:0000bac8       $unwind$__acrt_update_locale_info 000000018002fac8     libucrt:locale_update.obj
 0002:0000bac8       $unwind$__acrt_update_multibyte_info 000000018002fac8     libucrt:locale_update.obj
 0002:0000bac8       $unwind$__vcrt_initialize_locks 000000018002fac8     libvcruntime:locks.obj
 0002:0000bac8       $unwind$_malloc_base       000000018002fac8     libucrt:malloc_base.obj
 0002:0000bac8       $unwind$?get_CapStatisticsReporting@COPOSElectronicValueRW@@UEAAJPEAF@Z 000000018002fac8     ElectronicValueRWImpl.obj
 0002:0000bac8       $unwind$_calloc_base       000000018002fac8     libucrt:calloc_base.obj
 0002:0000bac8       $unwind$?get_CapUpdateStatistics@COPOSElectronicValueRW@@UEAAJPEAF@Z 000000018002fac8     ElectronicValueRWImpl.obj
 0002:0000bac8       $unwind$?get_CapCompareFirmwareVersion@COPOSElectronicValueRW@@UEAAJPEAF@Z 000000018002fac8     ElectronicValueRWImpl.obj
 0002:0000bac8       $unwind$?get_CapUpdateFirmware@COPOSElectronicValueRW@@UEAAJPEAF@Z 000000018002fac8     ElectronicValueRWImpl.obj
 0002:0000bac8       $unwind$?get_AsyncMode@COPOSElectronicValueRW@@UEAAJPEAF@Z 000000018002fac8     ElectronicValueRWImpl.obj
 0002:0000bac8       $unwind$?get_CapActivateService@COPOSElectronicValueRW@@UEAAJPEAF@Z 000000018002fac8     ElectronicValueRWImpl.obj
 0002:0000bac8       $unwind$?get_CapAddValue@COPOSElectronicValueRW@@UEAAJPEAF@Z 000000018002fac8     ElectronicValueRWImpl.obj
 0002:0000bac8       $unwind$?get_CapCancelValue@COPOSElectronicValueRW@@UEAAJPEAF@Z 000000018002fac8     ElectronicValueRWImpl.obj
 0002:0000bac8       $unwind$?get_CapElectronicMoney@COPOSElectronicValueRW@@UEAAJPEAF@Z 000000018002fac8     ElectronicValueRWImpl.obj
 0002:0000bac8       $unwind$?get_CapEnumerateCardServices@COPOSElectronicValueRW@@UEAAJPEAF@Z 000000018002fac8     ElectronicValueRWImpl.obj
 0002:0000bac8       $unwind$?get_CapIndirectTransactionLog@COPOSElectronicValueRW@@UEAAJPEAF@Z 000000018002fac8     ElectronicValueRWImpl.obj
 0002:0000bac8       $unwind$?get_CapLockTerminal@COPOSElectronicValueRW@@UEAAJPEAF@Z 000000018002fac8     ElectronicValueRWImpl.obj
 0002:0000bac8       $unwind$?get_CapLogStatus@COPOSElectronicValueRW@@UEAAJPEAF@Z 000000018002fac8     ElectronicValueRWImpl.obj
 0002:0000bac8       $unwind$?get_CapMediumID@COPOSElectronicValueRW@@UEAAJPEAF@Z 000000018002fac8     ElectronicValueRWImpl.obj
 0002:0000bac8       $unwind$?get_CapPoint@COPOSElectronicValueRW@@UEAAJPEAF@Z 000000018002fac8     ElectronicValueRWImpl.obj
 0002:0000bac8       $unwind$?get_CapSubtractValue@COPOSElectronicValueRW@@UEAAJPEAF@Z 000000018002fac8     ElectronicValueRWImpl.obj
 0002:0000bac8       $unwind$?get_CapTransaction@COPOSElectronicValueRW@@UEAAJPEAF@Z 000000018002fac8     ElectronicValueRWImpl.obj
 0002:0000bac8       $unwind$?get_CapTransactionLog@COPOSElectronicValueRW@@UEAAJPEAF@Z 000000018002fac8     ElectronicValueRWImpl.obj
 0002:0000bac8       $unwind$?get_CapUnlockTerminal@COPOSElectronicValueRW@@UEAAJPEAF@Z 000000018002fac8     ElectronicValueRWImpl.obj
 0002:0000bac8       $unwind$?get_CapUpdateKey@COPOSElectronicValueRW@@UEAAJPEAF@Z 000000018002fac8     ElectronicValueRWImpl.obj
 0002:0000bac8       $unwind$?get_CapVoucher@COPOSElectronicValueRW@@UEAAJPEAF@Z 000000018002fac8     ElectronicValueRWImpl.obj
 0002:0000bac8       $unwind$?get_CapWriteValue@COPOSElectronicValueRW@@UEAAJPEAF@Z 000000018002fac8     ElectronicValueRWImpl.obj
 0002:0000bac8       $unwind$??0bad_alloc@std@@QEAA@AEBV01@@Z 000000018002fac8     LIBCMT:throw_bad_alloc.obj
 0002:0000bac8       $unwind$?get_DetectionControl@COPOSElectronicValueRW@@UEAAJPEAF@Z 000000018002fac8     ElectronicValueRWImpl.obj
 0002:0000bac8       $unwind$?get_CapPINDevice@COPOSElectronicValueRW@@UEAAJPEAF@Z 000000018002fac8     ElectronicValueRWImpl.obj
 0002:0000bac8       $unwind$?get_CapTrainingMode@COPOSElectronicValueRW@@UEAAJPEAF@Z 000000018002fac8     ElectronicValueRWImpl.obj
 0002:0000bac8       $unwind$__acrt_freeptd     000000018002fac8     libucrt:per_thread_data.obj
 0002:0000bac8       $unwind$?get_CapMembershipCertificate@COPOSElectronicValueRW@@UEAAJPEAF@Z 000000018002fac8     ElectronicValueRWImpl.obj
 0002:0000bac8       $unwind$?get_CapAdditionalSecurityInformation@COPOSElectronicValueRW@@UEAAJPEAF@Z 000000018002fac8     ElectronicValueRWImpl.obj
 0002:0000bac8       $unwind$?get_CapAuthorizeCompletion@COPOSElectronicValueRW@@UEAAJPEAF@Z 000000018002fac8     ElectronicValueRWImpl.obj
 0002:0000bac8       $unwind$_CreateFrameInfo   000000018002fac8     libvcruntime:risctrnsctrl.obj
 0002:0000bac8       $unwind$?get_CapAuthorizePreSales@COPOSElectronicValueRW@@UEAAJPEAF@Z 000000018002fac8     ElectronicValueRWImpl.obj
 0002:0000bac8       $unwind$__vcrt_FlsAlloc    000000018002fac8     libvcruntime:winapi_downlevel.obj
 0002:0000bac8       $unwind$?get_CapAuthorizeRefund@COPOSElectronicValueRW@@UEAAJPEAF@Z 000000018002fac8     ElectronicValueRWImpl.obj
 0002:0000bac8       $unwind$?GetConnMap@COPOSElectronicValueRW@@SAPEBU_ATL_CONNMAP_ENTRY@ATL@@PEAH@Z 000000018002fac8     ElectronicValueRW.obj
 0002:0000bac8       $unwind$?get_CapAuthorizeVoid@COPOSElectronicValueRW@@UEAAJPEAF@Z 000000018002fac8     ElectronicValueRWImpl.obj
 0002:0000bac8       $unwind$?get_CapAuthorizeVoidPreSales@COPOSElectronicValueRW@@UEAAJPEAF@Z 000000018002fac8     ElectronicValueRWImpl.obj
 0002:0000bac8       $unwind$?get_CapCashDeposit@COPOSElectronicValueRW@@UEAAJPEAF@Z 000000018002fac8     ElectronicValueRWImpl.obj
 0002:0000bac8       $unwind$?get_CapCenterResultCode@COPOSElectronicValueRW@@UEAAJPEAF@Z 000000018002fac8     ElectronicValueRWImpl.obj
 0002:0000bac8       $unwind$?Unadvise@?$IConnectionPointImpl@VCOPOSElectronicValueRW@@$1?DIID__IOPOSElectronicValueRWEvents@@3U_GUID@@BVCComDynamicUnkArray@ATL@@@ATL@@UEAAJK@Z 000000018002fac8     ElectronicValueRW.obj
 0002:0000bac8       $unwind$?get_CapCheckCard@COPOSElectronicValueRW@@UEAAJPEAF@Z 000000018002fac8     ElectronicValueRWImpl.obj
 0002:0000bac8       $unwind$?get_CapInstallments@COPOSElectronicValueRW@@UEAAJPEAF@Z 000000018002fac8     ElectronicValueRWImpl.obj
 0002:0000bac8       $unwind$?get_CapPaymentDetail@COPOSElectronicValueRW@@UEAAJPEAF@Z 000000018002fac8     ElectronicValueRWImpl.obj
 0002:0000bac8       $unwind$?get_CapTaxOthers@COPOSElectronicValueRW@@UEAAJPEAF@Z 000000018002fac8     ElectronicValueRWImpl.obj
 0002:0000bac8       $unwind$?get_CapTransactionNumber@COPOSElectronicValueRW@@UEAAJPEAF@Z 000000018002fac8     ElectronicValueRWImpl.obj
 0002:0000bac8       $unwind$??0exception@std@@QEAA@AEBV01@@Z 000000018002fac8     LIBCMT:throw_bad_alloc.obj
 0002:0000bac8       $unwind$?Unadvise@?$IConnectionPointImpl@VCOPOSElectronicValueRW@@$1?IID_IPropertyNotifySink@@3U_GUID@@BVCComDynamicUnkArray@ATL@@@ATL@@UEAAJK@Z 000000018002fac8     ElectronicValueRW.obj
 0002:0000bac8       $unwind$?GetClassInfoW@?$IProvideClassInfo2Impl@$1?CLSID_OPOSElectronicValueRW@@3U_GUID@@B$1?DIID__IOPOSElectronicValueRWEvents@@3U2@B$1?LIBID_OposElectronicValueRW_CCO@@3U2@B$00$0A@VCComTypeInfoHolder@ATL@@@ATL@@UEAAJPEAPEAUITypeInfo@@@Z 000000018002fac8     ElectronicValueRW.obj
 0002:0000bac8       $unwind$_set_statfp        000000018002fac8     libucrt:fpctrl.obj
 0002:0000bac8       $unwind$?exit_or_terminate_process@@YAXI@Z 000000018002fac8     libucrt:exit.obj
 0002:0000bac8       $unwind$?IPSI_GetIPersistStreamInit@?$IPersistStorageImpl@VCOPOSElectronicValueRW@@@ATL@@AEAAPEAUIPersistStreamInit@@XZ 000000018002fac8     ElectronicValueRW.obj
 0002:0000bac8       $unwind$strcpy_s           000000018002fac8     libucrt:strcpy_s.obj
 0002:0000bac8       $unwind$_clrfp             000000018002fac8     libucrt:fpctrl.obj
 0002:0000bac8       $unwind$__vcrt_FlsFree     000000018002fac8     libvcruntime:winapi_downlevel.obj
 0002:0000bac8       $unwind$__vcrt_FlsGetValue 000000018002fac8     libvcruntime:winapi_downlevel.obj
 0002:0000bac8       $unwind$?QueryHitPoint@?$IViewObjectExImpl@VCOPOSElectronicValueRW@@@ATL@@UEAAJKPEBUtagRECT@@UtagPOINT@@JPEAK@Z 000000018002fac8     ElectronicValueRW.obj
 0002:0000bac8       $unwind$__acrt_fp_strflt_to_string 000000018002fac8     libucrt:_fptostr.obj
 0002:0000bac8       $unwind$_SetThrowImageBase 000000018002fac8     libvcruntime:risctrnsctrl.obj
 0002:0000bac8       $unwind$?StateFromIp@__FrameHandler3@@SAHPEBU_s_FuncInfo@@PEAU_xDISPATCHER_CONTEXT@@_K@Z 000000018002fac8     libvcruntime:ehstate.obj
 0002:0000bac8       $unwind$?GetClientSite@?$IOleObjectImpl@VCOPOSElectronicValueRW@@@ATL@@UEAAJPEAPEAUIOleClientSite@@@Z 000000018002fac8     ElectronicValueRW.obj
 0002:0000bac8       $unwind$_SetImageBase      000000018002fac8     libvcruntime:risctrnsctrl.obj
 0002:0000bac8       $unwind$??2@YAPEAX_K@Z     000000018002fac8     LIBCMT:new_scalar.obj
 0002:0000bac8       $unwind$?Load@?$IPersistStreamInitImpl@VCOPOSElectronicValueRW@@@ATL@@UEAAJPEAUIStream@@@Z 000000018002fac8     ElectronicValueRW.obj
 0002:0000bac8       $unwind$__acrt_uninitialize_stdio 000000018002fac8     libucrt:_file.obj
 0002:0000bac8       $unwind$_clearfp           000000018002fac8     libucrt:ieee.obj
 0002:0000bac8       $unwind$__acrt_stdio_free_buffer_nolock 000000018002fac8     libucrt:_freebuf.obj
 0002:0000bac8       $unwind$?GetTypeInfo@?$IDispatchImpl@UIOPOSElectronicValueRW@@$1?IID_IOPOSElectronicValueRW@@3U_GUID@@B$1?LIBID_OposElectronicValueRW_CCO@@3U3@B$00$0A@VCComTypeInfoHolder@ATL@@@ATL@@UEAAJIKPEAPEAUITypeInfo@@@Z 000000018002fac8     ElectronicValueRW.obj
 0002:0000bac8       $unwind$?AddRef@?$CComObjectCached@VCComClassFactory@ATL@@@ATL@@UEAAKXZ 000000018002fac8     ElectronicValueRW.obj
 0002:0000bac8       $unwind$?IOleInPlaceObject_InPlaceDeactivate@CComControlBase@ATL@@QEAAJXZ 000000018002fac8     ElectronicValueRW.obj
 0002:0000bac8       $unwind$uninitialize_allocated_memory 000000018002fac8     libucrt:initialization.obj
 0002:0000bac8       $unwind$?IOleObject_SetExtent@CComControlBase@ATL@@QEAAJKPEAUtagSIZE@@@Z 000000018002fac8     ElectronicValueRW.obj
 0002:0000bac8       $unwind$initialize_pointers 000000018002fac8     libucrt:initialization.obj
 0002:0000bac8       $unwind$_setfpstatusword   000000018002fac8     libucrt:_fenvutils.obj
 0002:0000bac8       $unwind$?IsEqualObject@?$CComPtrBase@UIOleClientSite@@@ATL@@QEAA_NPEAUIUnknown@@@Z 000000018002fac8     ElectronicValueRW.obj
 0002:0000bac8       $unwind$?DupWide@_CW@@AEAAXXZ 000000018002fac8     CWString.obj
 0002:0000bac8       $unwind$?AtlCreateTargetDC@ATL@@YAPEAUHDC__@@PEAU2@PEAUtagDVTARGETDEVICE@@@Z 000000018002fac8     ElectronicValueRW.obj
 0002:0000bac8       $unwind$?Release@?$CComObjectCached@VCComClassFactory@ATL@@@ATL@@UEAAKXZ 000000018002fac8     ElectronicValueRW.obj
 0002:0000bac8       $unwind$?GetUnwindTryBlock@__FrameHandler3@@SAHPEA_KPEAU_xDISPATCHER_CONTEXT@@PEBU_s_FuncInfo@@@Z 000000018002fac8     libvcruntime:ehstate.obj
 0002:0000bac8       $unwind$?ExecutionInCatch@__FrameHandler3@@SA_NPEAU_xDISPATCHER_CONTEXT@@PEBU_s_FuncInfo@@@Z 000000018002fac8     libvcruntime:risctrnsctrl.obj
 0002:0000bac8       $unwind$??1?$CComObject@VCOPOSElectronicValueRW@@@ATL@@UEAA@XZ 000000018002fac8     ElectronicValueRW.obj
 0002:0000bac8       $unwind$?IsEqualObject@?$CComPtrBase@UITypeInfo@@@ATL@@QEAA_NPEAUIUnknown@@@Z 000000018002fac8     ElectronicValueRW.obj
 0002:0000bac8       $unwind$?AllocateHeap@?$CTempBuffer@E$0BAA@VCCRTAllocator@ATL@@@ATL@@AEAAX_K@Z 000000018002fac8     ElectronicValueRW.obj
 0002:0000bac8       $unwind$?AllocateHeap@?$CTempBuffer@_W$0BAA@VCCRTAllocator@ATL@@@ATL@@AEAAX_K@Z 000000018002fac8     ElectronicValueRW.obj
 0002:0000bac8       $unwind$feholdexcept       000000018002fac8     libucrt:feholdexcept.obj
 0002:0000bac8       $unwind$fesetenv           000000018002fac8     libucrt:fesetenv.obj
 0002:0000bac8       $unwind$__raise_securityfailure 000000018002fac8     LIBCMT:gs_report.obj
 0002:0000bac8       $unwind$?AllocateHeap@?$CTempBuffer@_W$0EAA@VCCRTAllocator@ATL@@@ATL@@AEAAX_K@Z 000000018002fac8     ElectronicValueRW.obj
 0002:0000bac8       $unwind$??0?$output_processor@_WV?$string_output_adapter@_W@__crt_stdio_output@@V?$format_validation_base@_WV?$string_output_adapter@_W@__crt_stdio_output@@@2@@__crt_stdio_output@@QEAA@AEBV?$string_output_adapter@_W@1@_KQEB_WQEAU__crt_locale_pointers@@QEAD@Z 000000018002fac8     libucrt:output.obj
 0002:0000bac8       $unwind$__acrt_initialize_locks 000000018002fac8     libucrt:locks.obj
 0002:0000bac8       $unwind$??0bad_exception@std@@QEAA@AEBV01@@Z 000000018002fac8     libvcruntime:frame.obj
 0002:0000bac8       $unwind$_onexit            000000018002fac8     LIBCMT:utility.obj
 0002:0000bac8       $unwind$__acrt_uninitialize_locks 000000018002fac8     libucrt:locks.obj
 0002:0000bac8       $unwind$__scrt_release_startup_lock 000000018002fac8     LIBCMT:utility.obj
 0002:0000bac8       $unwind$__scrt_initialize_crt 000000018002fac8     LIBCMT:utility.obj
 0002:0000bac8       $unwind$__scrt_uninitialize_crt 000000018002fac8     LIBCMT:utility.obj
 0002:0000bac8       $unwind$?ExFilterRethrow@@YAHPEAU_EXCEPTION_POINTERS@@PEAUEHExceptionRecord@@PEAH@Z 000000018002fac8     libvcruntime:frame.obj
 0002:0000bac8       $unwind$??0?$CComObject@VCOPOSElectronicValueRW@@@ATL@@QEAA@PEAX@Z 000000018002fac8     ElectronicValueRW.obj
 0002:0000bac8       $unwind$_IsExceptionObjectToBeDestroyed 000000018002fac8     libvcruntime:ehhelpers.obj
 0002:0000bac8       $unwind$__vcrt_uninitialize_locks 000000018002fac8     libvcruntime:locks.obj
 0002:0000bac8       $unwind$?QueryInterface@?$CComAggObject@VCOPOSElectronicValueRW@@@ATL@@UEAAJAEBU_GUID@@PEAPEAX@Z 000000018002fac8     ElectronicValueRW.obj
 0002:0000bac8       $unwind$wcscat_s           000000018002fac8     libucrt:wcscat_s.obj
 0002:0000bac8       $unwind$??1CAtlBaseModule@ATL@@QEAA@XZ 000000018002fac8     atls:atlbase.obj
 0002:0000bac8       $unwind$fegetenv           000000018002fac8     libucrt:fegetenv.obj
 0002:0000bac8       $unwind$_Init_thread_header 000000018002fac8     LIBCMT:thread_safe_statics.obj
 0002:0000bac8       $unwind$_Init_thread_footer 000000018002fac8     LIBCMT:thread_safe_statics.obj
 0002:0000bac8       $unwind$_Init_thread_wait  000000018002fac8     LIBCMT:thread_safe_statics.obj
 0002:0000bac8       $unwind$wcscpy_s           000000018002fac8     libucrt:wcscpy_s.obj
 0002:0000bad0       $unwind$__acrt_lowio_create_handle_array 000000018002fad0     libucrt:osfinfo.obj
 0002:0000bad0       $unwind$?expand_if_necessary@?$argument_list@D@?A0xca0879c4@@AEAAHXZ 000000018002fad0     libucrt:argv_wildcards.obj
 0002:0000bad0       $unwind$_recalloc_base     000000018002fad0     libucrt:recalloc.obj
 0002:0000bad0       $unwind$__acrt_execute_initializers 000000018002fad0     libucrt:shared_initialization.obj
 0002:0000bad0       $unwind$?AtlWinModuleExtractCreateWndData@ATL@@YAPEAXPEAU_ATL_WIN_MODULE70@1@@Z 000000018002fad0     ElectronicValueRW.obj
 0002:0000bad0       $unwind$?AtlWinModuleTerm@ATL@@YAJPEAU_ATL_WIN_MODULE70@1@PEAUHINSTANCE__@@@Z 000000018002fad0     OposVariant.obj
 0002:0000bad0       $unwind$__acrt_free_locale 000000018002fad0     libucrt:locale_refcounting.obj
 0002:0000bad0       $unwind$?Is_bad_exception_allowed@@YAEPEBU_s_ESTypeList@@@Z 000000018002fad0     libvcruntime:frame.obj
 0002:0000bad0       $unwind$?HKeyFromString@CRegParser@ATL@@KAPEAUHKEY__@@PEA_W@Z 000000018002fad0     ElectronicValueRW.obj
 0002:0000bad0       $unwind$?GetHandlerSearchState@__FrameHandler3@@SAHPEA_KPEAU_xDISPATCHER_CONTEXT@@PEBU_s_FuncInfo@@@Z 000000018002fad0     libvcruntime:frame.obj
 0002:0000bad0       $unwind$??$ensure_buffer_is_big_enough@D@formatting_buffer@__crt_stdio_output@@QEAA_N_K@Z 000000018002fad0     libucrt:output.obj
 0002:0000bad0       $unwind$?Append@CParseBuffer@CRegParser@ATL@@QEAAHPEB_WH@Z 000000018002fad0     ElectronicValueRW.obj
 0002:0000bad0       $unwind$?Add@CComDynamicUnkArray@ATL@@QEAAKPEAUIUnknown@@@Z 000000018002fad0     ElectronicValueRW.obj
 0002:0000bad0       $unwind$?SetControlFocus@CComControlBase@ATL@@QEAAHH@Z 000000018002fad0     ElectronicValueRW.obj
 0002:0000bad0       $unwind$?DoVerb@?$IOleObjectImpl@VCOPOSElectronicValueRW@@@ATL@@UEAAJJPEAUtagMSG@@PEAUIOleClientSite@@JPEAUHWND__@@PEBUtagRECT@@@Z 000000018002fad0     ElectronicValueRW.obj
 0002:0000bad0       $unwind$?SODirectIO@COPOSElectronicValueRW@@MEAAJJPEAJPEAPEA_W@Z 000000018002fad0     ElectronicValueRW.obj
 0002:0000bad0       $unwind$?SOTransition@COPOSElectronicValueRW@@MEAAJJPEAJPEAPEA_W@Z 000000018002fad0     ElectronicValueRW.obj
 0002:0000bad0       $unwind$?DoEvent@COPOSElectronicValueRW@@IEAAXI_K_J@Z 000000018002fad0     ElectronicValueRW.obj
 0002:0000bad0       $unwind$?CreateInstance@?$CComCreator@V?$CComObject@VCOPOSElectronicValueRW@@@ATL@@@ATL@@SAJPEAXAEBU_GUID@@PEAPEAX@Z 000000018002fad0     ElectronicValueRW.obj
 0002:0000bad0       $unwind$?Next@?$CComEnumImpl@UIEnumConnectionPoints@@$1?_GUID_b196b285_bab4_101a_b69c_00aa00341d07@@3U__s_GUID@@BPEAUIConnectionPoint@@V?$_CopyInterface@UIConnectionPoint@@@ATL@@@ATL@@UEAAJKPEAPEAUIConnectionPoint@@PEAK@Z 000000018002fad0     ElectronicValueRW.obj
 0002:0000bad0       $unwind$?setSBCS@@YAXPEAU__crt_multibyte_data@@@Z 000000018002fad0     libucrt:mbctype.obj
 0002:0000bad0       $unwind$_seh_filter_exe    000000018002fad0     libucrt:exception_filter.obj
 0002:0000bad0       $unwind$__scrt_dllmain_exception_filter 000000018002fad0     LIBCMT:utility.obj
 0002:0000bad0       $unwind$?Next@?$CComEnumImpl@UIEnumConnections@@$1?_GUID_b196b287_bab4_101a_b69c_00aa00341d07@@3U__s_GUID@@BUtagCONNECTDATA@@V?$_Copy@UtagCONNECTDATA@@@ATL@@@ATL@@UEAAJKPEAUtagCONNECTDATA@@PEAK@Z 000000018002fad0     ElectronicValueRW.obj
 0002:0000bad0       $unwind$__acrt_InitializeCriticalSectionEx 000000018002fad0     libucrt:winapi_thunks.obj
 0002:0000bad0       $unwind$?s_EventWindowProc@COPOSElectronicValueRW@@KA_JPEAUHWND__@@I_K_J@Z 000000018002fad0     ElectronicValueRWImpl.obj
 0002:0000bae4       $unwind$__acrt_FlsGetValue 000000018002fae4     libucrt:winapi_thunks.obj
 0002:0000bae4       $unwind$__acrt_FlsFree     000000018002fae4     libucrt:winapi_thunks.obj
 0002:0000bae4       $unwind$??0CAtlBaseModule@ATL@@QEAA@XZ 000000018002fae4     atls:atlbase.obj
 0002:0000bae4       $unwind$??1?$IConnectionPointImpl@VCOPOSElectronicValueRW@@$1?DIID__IOPOSElectronicValueRWEvents@@3U_GUID@@BVCComDynamicUnkArray@ATL@@@ATL@@QEAA@XZ 000000018002fae4     ElectronicValueRWImpl.obj
 0002:0000bae4       $unwind$AtlThunk_DataToCode 000000018002fae4     atls:atlthunk.obj
 0002:0000bae4       $unwind$??1?$IConnectionPointImpl@VCOPOSElectronicValueRW@@$1?IID_IPropertyNotifySink@@3U_GUID@@BVCComDynamicUnkArray@ATL@@@ATL@@QEAA@XZ 000000018002fae4     ElectronicValueRWImpl.obj
 0002:0000bae4       $unwind$?__InitializeThunkPool@@YAHXZ 000000018002fae4     atls:atlthunk.obj
 0002:0000bae4       $unwind$?__AllocStdCallThunk_cmn@@YAPEAXXZ 000000018002fae4     atls:atlthunk.obj
 0002:0000bae4       $unwind$??$GetProcAddressAll@P6AP6A_JPEAUHWND__@@I_K_J@ZPEAUAtlThunkData_t@@@Z@@YAP6AP6A_JPEAUHWND__@@I_K_J@ZPEAUAtlThunkData_t@@@ZPEAP6AP6A_J0I12@Z3@Z@Z 000000018002fae4     atls:atlthunk.obj
 0002:0000bae4       $unwind$??$GetProcAddressAll@P6APEAUAtlThunkData_t@@XZ@@YAP6APEAUAtlThunkData_t@@XZPEAP6APEAU0@XZ@Z 000000018002fae4     atls:atlthunk.obj
 0002:0000bae4       $unwind$??$GetProcAddressAll@P6AXPEAUAtlThunkData_t@@PEAX_K@Z@@YAP6AXPEAUAtlThunkData_t@@PEAX_K@ZPEAP6AX012@Z@Z 000000018002fae4     atls:atlthunk.obj
 0002:0000bae4       $unwind$??$GetProcAddressAll@P6AXPEAUAtlThunkData_t@@@Z@@YAP6AXPEAUAtlThunkData_t@@@ZPEAP6AX0@Z@Z 000000018002fae4     atls:atlthunk.obj
 0002:0000bae4       $unwind$??_G?$CComObject@V?$CComEnum@UIEnumConnections@@$1?_GUID_b196b287_bab4_101a_b69c_00aa00341d07@@3U__s_GUID@@BUtagCONNECTDATA@@V?$_Copy@UtagCONNECTDATA@@@ATL@@VCComSingleThreadModel@6@@ATL@@@ATL@@UEAAPEAXI@Z 000000018002fae4     ElectronicValueRW.obj
 0002:0000bae4       $unwind$__acrt_SetThreadStackGuarantee 000000018002fae4     libucrt:winapi_thunks.obj
 0002:0000bae4       $unwind$?CreateInstance@?$CComObject@V?$CComEnum@UIEnumConnections@@$1?_GUID_b196b287_bab4_101a_b69c_00aa00341d07@@3U__s_GUID@@BUtagCONNECTDATA@@V?$_Copy@UtagCONNECTDATA@@@ATL@@VCComSingleThreadModel@6@@ATL@@@ATL@@SAJPEAPEAV12@@Z 000000018002fae4     ElectronicValueRW.obj
 0002:0000bae4       $unwind$?Release@?$CComObject@V?$CComEnum@UIEnumConnections@@$1?_GUID_b196b287_bab4_101a_b69c_00aa00341d07@@3U__s_GUID@@BUtagCONNECTDATA@@V?$_Copy@UtagCONNECTDATA@@@ATL@@VCComSingleThreadModel@6@@ATL@@@ATL@@UEAAKXZ 000000018002fae4     ElectronicValueRW.obj
 0002:0000bae4       $unwind$__acrt_FlsAlloc    000000018002fae4     libucrt:winapi_thunks.obj
 0002:0000bae4       $unwind$?try_cor_exit_process@@YAXI@Z 000000018002fae4     libucrt:exit.obj
 0002:0000bae4       $unwind$??1?$CComEnumImpl@UIEnumConnections@@$1?_GUID_b196b287_bab4_101a_b69c_00aa00341d07@@3U__s_GUID@@BUtagCONNECTDATA@@V?$_Copy@UtagCONNECTDATA@@@ATL@@@ATL@@UEAA@XZ 000000018002fae4     ElectronicValueRW.obj
 0002:0000bae4       $unwind$??_G?$CComObject@VCOPOSElectronicValueRW@@@ATL@@UEAAPEAXI@Z 000000018002fae4     ElectronicValueRW.obj
 0002:0000bae4       $unwind$?Release@?$CComObject@VCOPOSElectronicValueRW@@@ATL@@UEAAKXZ 000000018002fae4     ElectronicValueRW.obj
 0002:0000bae4       $unwind$??_G?$CComAggObject@VCOPOSElectronicValueRW@@@ATL@@UEAAPEAXI@Z 000000018002fae4     ElectronicValueRW.obj
 0002:0000bae4       $unwind$??_G?$CComContainedObject@VCOPOSElectronicValueRW@@@ATL@@UEAAPEAXI@Z 000000018002fae4     ElectronicValueRW.obj
 0002:0000bae4       $unwind$??_Gbad_array_new_length@std@@UEAAPEAXI@Z 000000018002fae4     LIBCMT:throw_bad_alloc.obj
 0002:0000bae4       $unwind$?Release@?$CComAggObject@VCOPOSElectronicValueRW@@@ATL@@UEAAKXZ 000000018002fae4     ElectronicValueRW.obj
 0002:0000bae4       $unwind$??_G?$CComObjectCached@VCComClassFactory@ATL@@@ATL@@UEAAPEAXI@Z 000000018002fae4     ElectronicValueRW.obj
 0002:0000bae4       $unwind$__acrt_invoke_user_matherr 000000018002fae4     libucrt:matherr.obj
 0002:0000bae4       $unwind$??_G?$CComObject@V?$CComEnum@UIEnumConnectionPoints@@$1?_GUID_b196b285_bab4_101a_b69c_00aa00341d07@@3U__s_GUID@@BPEAUIConnectionPoint@@V?$_CopyInterface@UIConnectionPoint@@@ATL@@VCComSingleThreadModel@6@@ATL@@@ATL@@UEAAPEAXI@Z 000000018002fae4     ElectronicValueRW.obj
 0002:0000bae4       $unwind$?CreateInstance@?$CComObject@V?$CComEnum@UIEnumConnectionPoints@@$1?_GUID_b196b285_bab4_101a_b69c_00aa00341d07@@3U__s_GUID@@BPEAUIConnectionPoint@@V?$_CopyInterface@UIConnectionPoint@@@ATL@@VCComSingleThreadModel@6@@ATL@@@ATL@@SAJPEAPEAV12@@Z 000000018002fae4     ElectronicValueRW.obj
 0002:0000bae4       $unwind$_realloc_base      000000018002fae4     libucrt:realloc_base.obj
 0002:0000bae4       $unwind$?Release@?$CComObject@V?$CComEnum@UIEnumConnectionPoints@@$1?_GUID_b196b285_bab4_101a_b69c_00aa00341d07@@3U__s_GUID@@BPEAUIConnectionPoint@@V?$_CopyInterface@UIConnectionPoint@@@ATL@@VCComSingleThreadModel@6@@ATL@@@ATL@@UEAAKXZ 000000018002fae4     ElectronicValueRW.obj
 0002:0000bae4       $unwind$_FindAndUnlinkFrame 000000018002fae4     libvcruntime:risctrnsctrl.obj
 0002:0000bae4       $unwind$??_Gbad_alloc@std@@UEAAPEAXI@Z 000000018002fae4     LIBCMT:throw_bad_alloc.obj
 0002:0000bae4       $unwind$??1?$CComEnumImpl@UIEnumConnectionPoints@@$1?_GUID_b196b285_bab4_101a_b69c_00aa00341d07@@3U__s_GUID@@BPEAUIConnectionPoint@@V?$_CopyInterface@UIConnectionPoint@@@ATL@@@ATL@@UEAA@XZ 000000018002fae4     ElectronicValueRW.obj
 0002:0000bae4       $unwind$?internal_isupper_l@@YA_NHQEAU__crt_locale_pointers@@@Z 000000018002fae4     libucrt:tolower_toupper.obj
 0002:0000bae4       $unwind$?replace_current_thread_locale_nolock@@YAXQEAU__acrt_ptd@@QEAU__crt_locale_data@@@Z 000000018002fae4     libucrt:per_thread_data.obj
 0002:0000bae4       $unwind$DllMain            000000018002fae4     ElectronicValueRW.obj
 0002:0000bae4       $unwind$__acrt_getptd      000000018002fae4     libucrt:per_thread_data.obj
 0002:0000bae4       $unwind$??_Gexception@std@@UEAAPEAXI@Z 000000018002fae4     LIBCMT:throw_bad_alloc.obj
 0002:0000bae4       $unwind$?SOStatusUpdate@COPOSElectronicValueRW@@MEAAJJ@Z 000000018002fae4     ElectronicValueRW.obj
 0002:0000bae4       $unwind$?SOOutputComplete@COPOSElectronicValueRW@@MEAAJJ@Z 000000018002fae4     ElectronicValueRW.obj
 0002:0000bae4       $unwind$??$common_initialize_environment_nolock@D@@YAHXZ 000000018002fae4     libucrt:environment_initialization.obj
 0002:0000bae4       $unwind$?SOData@COPOSElectronicValueRW@@MEAAJJ@Z 000000018002fae4     ElectronicValueRW.obj
 0002:0000bae4       $unwind$?InitNew@?$IPersistStorageImpl@VCOPOSElectronicValueRW@@@ATL@@UEAAJPEAUIStorage@@@Z 000000018002fae4     ElectronicValueRW.obj
 0002:0000bae4       $unwind$?IsDirty@?$IPersistStorageImpl@VCOPOSElectronicValueRW@@@ATL@@UEAAJXZ 000000018002fae4     ElectronicValueRW.obj
 0002:0000bae4       $unwind$__vcrt_FlsSetValue 000000018002fae4     libvcruntime:winapi_downlevel.obj
 0002:0000bae4       $unwind$?SetAdvise@?$IViewObjectExImpl@VCOPOSElectronicValueRW@@@ATL@@UEAAJKKPEAUIAdviseSink@@@Z 000000018002fae4     ElectronicValueRW.obj
 0002:0000bae4       $unwind$?SetCURRENCY@OposVariant@@QEAAXTtagCY@@@Z 000000018002fae4     OposVariant.obj
 0002:0000bae4       $unwind$?IOleObject_SetClientSite@CComControlBase@ATL@@QEAAJPEAUIOleClientSite@@@Z 000000018002fae4     ElectronicValueRW.obj
 0002:0000bae4       $unwind$?SetLONG@OposVariant@@QEAAXJ@Z 000000018002fae4     OposVariant.obj
 0002:0000bae4       $unwind$?SetUnwindTryBlock@__FrameHandler3@@SAXPEA_KPEAU_xDISPATCHER_CONTEXT@@PEBU_s_FuncInfo@@H@Z 000000018002fae4     libvcruntime:ehstate.obj
 0002:0000bae4       $unwind$_RTC_Terminate     000000018002fae4     LIBCMT:initsect.obj
 0002:0000bae4       $unwind$??_GCComClassFactory@ATL@@UEAAPEAXI@Z 000000018002fae4     ElectronicValueRW.obj
 0002:0000bae4       $unwind$__acrt_uninitialize_lowio 000000018002fae4     libucrt:ioinit.obj
 0002:0000bae4       $unwind$?SetVARIANT_BOOL@OposVariant@@QEAAXF@Z 000000018002fae4     OposVariant.obj
 0002:0000bae4       $unwind$_updatetlocinfoEx_nolock 000000018002fae4     libucrt:locale_refcounting.obj
 0002:0000bae4       $unwind$_RTC_Initialize    000000018002fae4     LIBCMT:initsect.obj
 0002:0000bae4       $unwind$_close_nolock      000000018002fae4     libucrt:close.obj
 0002:0000bae4       $unwind$??0CAtlWinModule@ATL@@QEAA@XZ 000000018002fae4     OposVariant.obj
 0002:0000bae4       $unwind$??_Gbad_exception@std@@UEAAPEAXI@Z 000000018002fae4     libvcruntime:frame.obj
 0002:0000bae4       $unwind$?Term@CComModule@ATL@@QEAAXXZ 000000018002fae4     ElectronicValueRW.obj
 0002:0000bae4       $unwind$_callnewh          000000018002fae4     libucrt:new_handler.obj
 0002:0000bae4       $unwind$??0CAtlModule@ATL@@QEAA@XZ 000000018002fae4     ElectronicValueRW.obj
 0002:0000bae4       $unwind$?DeleteSubKey@CRegKey@ATL@@QEAAJPEB_W@Z 000000018002fae4     ElectronicValueRW.obj
 0002:0000bae4       $unwind$?force_decimal_point@__crt_stdio_output@@YAXPEADQEAU__crt_locale_pointers@@@Z 000000018002fae4     libucrt:output.obj
 0002:0000bae4       $unwind$??0CAtlComModule@ATL@@QEAA@XZ 000000018002fae4     OposVariant.obj
 0002:0000bae4       $unwind$_fclose_nolock     000000018002fae4     libucrt:fclose.obj
 0002:0000bae4       $unwind$?WriteToStream@CComBSTR@ATL@@QEAAJPEAUIStream@@@Z 000000018002fae4     ElectronicValueRW.obj
 0002:0000bae4       $unwind$??0_LocaleUpdate@@QEAA@QEAU__crt_locale_pointers@@@Z 000000018002fae4     libucrt:output.obj
 0002:0000bae4       $unwind$__acrt_errno_map_os_error 000000018002fae4     libucrt:errno.obj
 0002:0000bae4       $unwind$?SetBSTR@OposVariant@@QEAAXPEA_WAEAJ@Z 000000018002fae4     OposVariant.obj
 0002:0000bae4       $unwind$wcsncpy_s          000000018002fae4     libucrt:wcsncpy_s.obj
 0002:0000bae4       $unwind$strncpy_s          000000018002fae4     libucrt:strncpy_s.obj
 0002:0000bae4       $unwind$??0?$CComContainedObject@VCOPOSElectronicValueRW@@@ATL@@QEAA@PEAX@Z 000000018002fae4     ElectronicValueRW.obj
 0002:0000baf0       $unwind$?Add@?$CSimpleArray@GV?$CSimpleArrayEqualHelper@G@ATL@@@ATL@@QEAAHAEBG@Z 000000018002faf0     ElectronicValueRW.obj
 0002:0000baf0       $unwind$__acrt_stdio_flush_nolock 000000018002faf0     libucrt:fflush.obj
 0002:0000baf0       $unwind$memcpy_s           000000018002faf0     ElectronicValueRW.obj
 0002:0000baf0       $unwind$__acrt_FlsSetValue 000000018002faf0     libucrt:winapi_thunks.obj
 0002:0000baf0       $unwind$_DllMainCRTStartup 000000018002faf0     LIBCMT:dll_dllmain.obj
 0002:0000baf0       $unwind$?SetBSTR_Copy@OposVariant@@QEAAXPEA_WAEAJ@Z 000000018002faf0     OposVariant.obj
 0002:0000baf0       $unwind$memcpy_s           000000018002faf0     libucrt:cfout.obj
 0002:0000baf0       $unwind$??R<lambda_ad1ced32f4ac17aa236e5ef05d6b3b7c>@@QEBAXXZ 000000018002faf0     libucrt:mbctype.obj
 0002:0000baf0       $unwind$__vcrt_InitializeCriticalSectionEx 000000018002faf0     libvcruntime:winapi_downlevel.obj
 0002:0000baf0       $unwind$?SetBSTR_InOutPtr@OposVariant@@QEAA_NPEAPEA_WAEAJ@Z 000000018002faf0     OposVariant.obj
 0002:0000baf0       $unwind$?type_case_Z@?$output_processor@_WV?$string_output_adapter@_W@__crt_stdio_output@@V?$format_validation_base@_WV?$string_output_adapter@_W@__crt_stdio_output@@@2@@__crt_stdio_output@@AEAA_NXZ 000000018002faf0     libucrt:output.obj
 0002:0000baf0       $unwind$?type_case_s@?$output_processor@_WV?$string_output_adapter@_W@__crt_stdio_output@@V?$format_validation_base@_WV?$string_output_adapter@_W@__crt_stdio_output@@@2@@__crt_stdio_output@@AEAA_NXZ 000000018002faf0     libucrt:output.obj
 0002:0000baf0       $unwind$?AtlCallTermFunc@ATL@@YAXPEAU_ATL_MODULE70@1@@Z 000000018002faf0     ElectronicValueRW.obj
 0002:0000baf0       $unwind$__vcrt_getptd_noexit 000000018002faf0     libvcruntime:per_thread_data.obj
 0002:0000baf0       $unwind$?free_crt_array_internal@@YAXQEAPEBX_K@Z 000000018002faf0     libucrt:inittime.obj
 0002:0000baf0       $unwind$?Advise@?$IOleObjectImpl@VCOPOSElectronicValueRW@@@ATL@@UEAAJPEAUIAdviseSink@@PEAK@Z 000000018002faf0     ElectronicValueRW.obj
 0002:0000baf0       $unwind$?type_case_n@?$output_processor@_WV?$string_output_adapter@_W@__crt_stdio_output@@V?$format_validation_base@_WV?$string_output_adapter@_W@__crt_stdio_output@@@2@@__crt_stdio_output@@AEAA_NXZ 000000018002faf0     libucrt:output.obj
 0002:0000baf0       $unwind$__acrt_getptd_noexit 000000018002faf0     libucrt:per_thread_data.obj
 0002:0000baf0       $unwind$?SetLONG_Ptr@OposVariant@@QEAAXPEAJAEAJ@Z 000000018002faf0     OposVariant.obj
 0002:0000baf0       $unwind$??0OposDispParms@@QEAA@PEAVOposVariant@@H@Z 000000018002faf0     OposVariant.obj
 0002:0000baf0       $unwind$?RegisterServer@CComModule@ATL@@QEAAJHPEBU_GUID@@@Z 000000018002faf0     ElectronicValueRW.obj
 0002:0000baf0       $unwind$?SetString@OposVariant@@QEAAXPEB_WAEAJ@Z 000000018002faf0     OposVariant.obj
 0002:0000baf0       $unwind$?UnregisterServer@CComModule@ATL@@QEAAJHPEBU_GUID@@@Z 000000018002faf0     ElectronicValueRW.obj
 0002:0000baf0       $unwind$??_GCComModule@ATL@@UEAAPEAXI@Z 000000018002faf0     ElectronicValueRW.obj
 0002:0000baf0       $unwind$?Add@?$CSimpleMap@PEA_WPEA_WVCExpansionVectorEqualHelper@ATL@@@ATL@@QEAAHAEBQEA_W0@Z 000000018002faf0     ElectronicValueRW.obj
 0002:0000baf0       $unwind$__acrt_execute_uninitializers 000000018002faf0     libucrt:shared_initialization.obj
 0002:0000baf0       $unwind$?ClearReplacements@CExpansionVector@ATL@@QEAAJXZ 000000018002faf0     ElectronicValueRW.obj
 0002:0000baf0       $unwind$?SetDispatch_Ptr@OposVariant@@QEAAXPEAUIDispatch@@AEAJ@Z 000000018002faf0     OposVariant.obj
 0002:0000baf0       $unwind$??_GCRegObject@ATL@@UEAAPEAXI@Z 000000018002faf0     ElectronicValueRW.obj
 0002:0000baf0       $unwind$??$common_lseek_nolock@_J@@YA_JH_JH@Z 000000018002faf0     libucrt:lseek.obj
 0002:0000baf0       $unwind$_exception_enabled 000000018002faf0     libucrt:libm_error.obj
 0002:0000baf0       $unwind$?CatchTryBlock@__FrameHandler3@@SAPEBU_s_TryBlockMapEntry@@PEBU_s_FuncInfo@@H@Z 000000018002faf0     libvcruntime:risctrnsctrl.obj
 0002:0000baf0       $unwind$__acrt_LocaleNameToLCID 000000018002faf0     libucrt:winapi_thunks.obj
 0002:0000baf0       $unwind$?Term@CAtlComModule@ATL@@QEAAXXZ 000000018002faf0     OposVariant.obj
 0002:0000baf0       $unwind$?FrameUnwindToEmptyState@__FrameHandler3@@SAXPEA_KPEAU_xDISPATCHER_CONTEXT@@PEBU_s_FuncInfo@@@Z 000000018002faf0     libvcruntime:risctrnsctrl.obj
 0002:0000baf0       $unwind$?VTFromRegType@CRegParser@ATL@@KAHPEB_WAEAG@Z 000000018002faf0     ElectronicValueRW.obj
 0002:0000baf0       $unwind$_initterm_e        000000018002faf0     libucrt:initterm.obj
 0002:0000bb00       $unwind$?ChangeLONG@OposVariant@@QEAAXPEAJAEAJ@Z 000000018002fb00     OposVariant.obj
 0002:0000bb00       $unwind$?x_ismbbtype_l@@YAHPEAU__crt_locale_pointers@@IHH@Z 000000018002fb00     libucrt:ismbbyte.obj
 0002:0000bb00       $unwind$?ChangeCURRENCY@OposVariant@@QEAAXPEATtagCY@@AEAJ@Z 000000018002fb00     OposVariant.obj
 0002:0000bb00       $unwind$?ChangeBSTR@OposVariant@@QEAAXPEAPEA_WAEAJ@Z 000000018002fb00     OposVariant.obj
 0002:0000bb10       $unwind$swprintf_s         000000018002fb10     ElectronicValueRW.obj
 0002:0000bb20       $unwind$?_AtlVerifyStackAvailable@_ATL_SAFE_ALLOCA_IMPL@ATL@@YA_N_K@Z 000000018002fb20     ElectronicValueRW.obj
 0002:0000bb4c       $unwind$?fin$0@?0???$?RV<lambda_bfedae4ebbf01fab1bb6dcc6a9e276e0>@@AEAV<lambda_2fe9b910cf3cbf4a0ab98a02ba45b3ec>@@V<lambda_237c231691f317818eb88cc1d5d642d6>@@@?$__crt_seh_guarded_call@H@@QEAAH$$QEAV<lambda_bfedae4ebbf01fab1bb6dcc6a9e276e0>@@AEAV<lambda_2fe9b910cf3cbf4a0ab98a02ba45b3ec>@@$$QEAV<lambda_237c231691f317818eb88cc1d5d642d6>@@@Z@4HA 000000018002fb4c     libucrt:close.obj
 0002:0000bb4c       $unwind$_ctrlfp$filt$0     000000018002fb4c     libucrt:fpctrl.obj
 0002:0000bb4c       $unwind$__acrt_lowio_ensure_fh_exists$fin$0 000000018002fb4c     libucrt:osfinfo.obj
 0002:0000bb4c       $unwind$raise$fin$0        000000018002fb4c     libucrt:signal.obj
 0002:0000bb4c       $unwind$_query_new_handler$fin$0 000000018002fb4c     libucrt:new_handler.obj
 0002:0000bb4c       $unwind$_IsNonwritableInCurrentImage$filt$0 000000018002fb4c     LIBCMT:pesect.obj
 0002:0000bb4c       $unwind$__DestructExceptionObject$filt$0 000000018002fb4c     libvcruntime:ehhelpers.obj
 0002:0000bb4c       $unwind$?fin$0@?0???$?RV<lambda_e24bbb7b643b32fcea6fa61b31d4c984>@@AEAV<lambda_275893d493268fdec8709772e3fcec0e>@@V<lambda_9d71df4d7cf3f480f8d633942495c3b0>@@@?$__crt_seh_guarded_call@H@@QEAAH$$QEAV<lambda_e24bbb7b643b32fcea6fa61b31d4c984>@@AEAV<lambda_275893d493268fdec8709772e3fcec0e>@@$$QEAV<lambda_9d71df4d7cf3f480f8d633942495c3b0>@@@Z@4HA 000000018002fb4c     libucrt:onexit.obj
 0002:0000bb4c       $unwind$__acrt_initialize_lowio$fin$0 000000018002fb4c     libucrt:ioinit.obj
 0002:0000bb4c       $unwind$?fin$0@?0???$?RV<lambda_b8c45f8f788dd370798f47cfe8ac3a86>@@AEAV<lambda_4e60a939b0d047cfe11ddc22648dfba9>@@V<lambda_332c3edc96d0294ec56c57d38c1cdfd5>@@@?$__crt_seh_guarded_call@H@@QEAAH$$QEAV<lambda_b8c45f8f788dd370798f47cfe8ac3a86>@@AEAV<lambda_4e60a939b0d047cfe11ddc22648dfba9>@@$$QEAV<lambda_332c3edc96d0294ec56c57d38c1cdfd5>@@@Z@4HA 000000018002fb4c     libucrt:onexit.obj
 0002:0000bb4c       $unwind$__acrt_uninitialize_locale$fin$0 000000018002fb4c     libucrt:wsetlocale.obj
 0002:0000bb4c       $unwind$fclose$fin$0       000000018002fb4c     libucrt:fclose.obj
 0002:0000bb4c       $unwind$?fin$0@?0???$?RV<lambda_72d1df2b273a38828b1ce30cbf4cdab5>@@AEAV<lambda_876a65b173b8412d3a47c70a915b0cf4>@@V<lambda_41932305e351933ebe8f8be3ed8bb5dc>@@@?$__crt_seh_guarded_call@X@@QEAAX$$QEAV<lambda_72d1df2b273a38828b1ce30cbf4cdab5>@@AEAV<lambda_876a65b173b8412d3a47c70a915b0cf4>@@$$QEAV<lambda_41932305e351933ebe8f8be3ed8bb5dc>@@@Z@4HA 000000018002fb4c     libucrt:per_thread_data.obj
 0002:0000bb4c       $unwind$?fin$0@?0???$?RV<lambda_5e887d1dcbef67a5eb4283622ba103bf>@@AEAV<lambda_4466841279450cc726390878d4a41900>@@V<lambda_341c25c0346d94847f1f3c463c57e077>@@@?$__crt_seh_guarded_call@X@@QEAAX$$QEAV<lambda_5e887d1dcbef67a5eb4283622ba103bf>@@AEAV<lambda_4466841279450cc726390878d4a41900>@@$$QEAV<lambda_341c25c0346d94847f1f3c463c57e077>@@@Z@4HA 000000018002fb4c     libucrt:per_thread_data.obj
 0002:0000bb4c       $unwind$?filt$0@?0??CxxCallCatchBlock@__FrameHandler3@@SAPEAXPEAU_EXCEPTION_RECORD@@@Z@4HA 000000018002fb4c     libvcruntime:frame.obj
 0002:0000bb4c       $unwind$?filt$0@?0??common_exit@@YAXHW4_crt_exit_cleanup_mode@@W4_crt_exit_return_mode@@@Z@4HA 000000018002fb4c     libucrt:exit.obj
 0002:0000bb4c       $unwind$?fin$0@?0???$?RV<lambda_46352004c1216016012b18bd6f87e700>@@AEAV<lambda_3bd07e1a1191394380780325891bf33f>@@V<lambda_334532d3f185bcaa59b5be82d7d22bff>@@@?$__crt_seh_guarded_call@X@@QEAAX$$QEAV<lambda_46352004c1216016012b18bd6f87e700>@@AEAV<lambda_3bd07e1a1191394380780325891bf33f>@@$$QEAV<lambda_334532d3f185bcaa59b5be82d7d22bff>@@@Z@4HA 000000018002fb4c     libucrt:per_thread_data.obj
 0002:0000bb4c       $unwind$?filt$0@?0??_AtlVerifyStackAvailable@_ATL_SAFE_ALLOCA_IMPL@ATL@@YA_N_K@Z@4HA 000000018002fb4c     ElectronicValueRW.obj
 0002:0000bb4c       $unwind$common_flush_all$fin$1 000000018002fb4c     libucrt:fflush.obj
 0002:0000bb4c       $unwind$_write$fin$0       000000018002fb4c     libucrt:write.obj
 0002:0000bb4c       $unwind$?fin$1@?0??FrameUnwindToState@__FrameHandler3@@SAXPEA_KPEAU_xDISPATCHER_CONTEXT@@PEBU_s_FuncInfo@@H@Z@4HA 000000018002fb4c     libvcruntime:frame.obj
 0002:0000bb4c       $unwind$?fin$0@?0??dllmain_crt_process_attach@@YAHQEAUHINSTANCE__@@QEAX@Z@4HA 000000018002fb4c     LIBCMT:dll_dllmain.obj
 0002:0000bb4c       $unwind$?filt$0@?0??FrameUnwindToState@__FrameHandler3@@SAXPEA_KPEAU_xDISPATCHER_CONTEXT@@PEBU_s_FuncInfo@@H@Z@4HA 000000018002fb4c     libvcruntime:frame.obj
 0002:0000bb4c       $unwind$?fin$0@?0???$?RV<lambda_fb3a7dec4e47f37f22dae91bb15c9095>@@AEAV<lambda_698284760c8add0bfb0756c19673e34b>@@V<lambda_dfb8eca1e75fef3034a8fb18dd509707>@@@?$__crt_seh_guarded_call@X@@QEAAX$$QEAV<lambda_fb3a7dec4e47f37f22dae91bb15c9095>@@AEAV<lambda_698284760c8add0bfb0756c19673e34b>@@$$QEAV<lambda_dfb8eca1e75fef3034a8fb18dd509707>@@@Z@4HA 000000018002fb4c     libucrt:per_thread_data.obj
 0002:0000bb4c       $unwind$?fin$1@?0??common_exit@@YAXHW4_crt_exit_cleanup_mode@@W4_crt_exit_return_mode@@@Z@4HA 000000018002fb4c     libucrt:exit.obj
 0002:0000bb4c       $unwind$__acrt_update_thread_locale_data$fin$0 000000018002fb4c     libucrt:locale_refcounting.obj
 0002:0000bb4c       $unwind$?fin$0@?0???$?RV<lambda_99476a1ad63dd22509b5d3e65b0ffc95>@@AEAV<lambda_ad1ced32f4ac17aa236e5ef05d6b3b7c>@@V<lambda_f7424dd8d45958661754dc4f2697e9c3>@@@?$__crt_seh_guarded_call@X@@QEAAX$$QEAV<lambda_99476a1ad63dd22509b5d3e65b0ffc95>@@AEAV<lambda_ad1ced32f4ac17aa236e5ef05d6b3b7c>@@$$QEAV<lambda_f7424dd8d45958661754dc4f2697e9c3>@@@Z@4HA 000000018002fb4c     libucrt:mbctype.obj
 0002:0000bb4c       $unwind$__acrt_update_thread_multibyte_data$fin$0 000000018002fb4c     libucrt:mbctype.obj
 0002:0000bb4c       $unwind$?fin$0@?0???$?RV<lambda_c36588078e9f5dfd39652860aa6b3aaf>@@AEAV<lambda_ec61778202f4f5fc7e7711acc23c3bca>@@V<lambda_dc9d2797ccde5d239b4a0efae8ebd7db>@@@?$__crt_seh_guarded_call@P6AXH@Z@@QEAAP6AXH@Z$$QEAV<lambda_c36588078e9f5dfd39652860aa6b3aaf>@@AEAV<lambda_ec61778202f4f5fc7e7711acc23c3bca>@@$$QEAV<lambda_dc9d2797ccde5d239b4a0efae8ebd7db>@@@Z@4HA 000000018002fb4c     libucrt:signal.obj
 0002:0000bb4c       $unwind$?fin$0@?0??dllmain_crt_process_detach@@YAH_N@Z@4HA 000000018002fb4c     LIBCMT:dll_dllmain.obj
 0002:0000bb4c       $unwind$common_flush_all$fin$0 000000018002fb4c     libucrt:fflush.obj
 0002:0000bb4c       $unwind$?fin$0@?0???$?RV<lambda_b521505b218e5242e90febf6bfebc422>@@AEAV<lambda_6978c1fb23f02e42e1d9e99668cc68aa>@@V<lambda_314360699dd331753a4119843814e9a7>@@@?$__crt_seh_guarded_call@H@@QEAAH$$QEAV<lambda_b521505b218e5242e90febf6bfebc422>@@AEAV<lambda_6978c1fb23f02e42e1d9e99668cc68aa>@@$$QEAV<lambda_314360699dd331753a4119843814e9a7>@@@Z@4HA 000000018002fb4c     libucrt:commit.obj
 0002:0000bb4c       $unwind$_fcloseall$fin$0   000000018002fb4c     libucrt:closeall.obj
 0002:0000bb4c       $unwind$common_control87$filt$0 000000018002fb4c     libucrt:ieee.obj
 0002:0000bb54       $unwind$?AtlInternalOleLoadFromStream@ATL@@YAJPEAUIStream@@AEBU_GUID@@PEAPEAXTClassesAllowedInStream@1@K@Z 000000018002fb54     ElectronicValueRW.obj
 0002:0000bb70       $unwind$?Close@COPOSElectronicValueRW@@UEAAJPEAJ@Z 000000018002fb70     ElectronicValueRWImpl.obj
 0002:0000bb70       $unwind$?PutProperty@?$CComPtr@UIDispatch@@@ATL@@SAJPEAUIDispatch@@JPEAUtagVARIANT@@@Z 000000018002fb70     ElectronicValueRW.obj
 0002:0000bb7c       $unwind$_configure_narrow_argv 000000018002fb7c     libucrt:argv_parsing.obj
 0002:0000bb7c       $unwind$?ReadFromStream@CComBSTR@ATL@@QEAAJPEAUIStream@@@Z 000000018002fb7c     ElectronicValueRW.obj
 0002:0000bb90       $unwind$?WriteToStream@CComVariant@ATL@@QEAAJPEAUIStream@@@Z 000000018002fb90     ElectronicValueRW.obj
 0002:0000bba4       $unwind$?RegOpenKeyExW@CAtlTransactionManager@ATL@@QEAAJPEAUHKEY__@@PEB_WKKPEAPEAU3@@Z 000000018002fba4     ElectronicValueRW.obj
 0002:0000bba4       $unwind$?WriteToStream@CComVariant@ATL@@QEAAJPEAUIStream@@G@Z 000000018002fba4     ElectronicValueRW.obj
 0002:0000bbb8       $unwind$?ReadFromStream@CComVariant@ATL@@QEAAJPEAUIStream@@GTClassesAllowedInStream@2@K@Z 000000018002fbb8     ElectronicValueRW.obj
 0002:0000bbd0       $unwind$?GetSizeMax@CComVariant@ATL@@QEBAJPEAT_ULARGE_INTEGER@@@Z 000000018002fbd0     ElectronicValueRW.obj
 0002:0000bbe8       $unwind$?RegCreateKeyExW@CAtlTransactionManager@ATL@@QEAAJPEAUHKEY__@@PEB_WKPEA_WKKQEAU_SECURITY_ATTRIBUTES@@PEAPEAU3@PEAK@Z 000000018002fbe8     ElectronicValueRW.obj
 0002:0000bbfc       $unwind$?RegDeleteKeyW@CAtlTransactionManager@ATL@@QEAAJPEAUHKEY__@@PEB_W@Z 000000018002fbfc     ElectronicValueRW.obj
 0002:0000bbfc       $unwind$?GetGITPtr@CAtlModule@ATL@@UEAAJPEAPEAUIGlobalInterfaceTable@@@Z 000000018002fbfc     ElectronicValueRW.obj
 0002:0000bc0c       $unwind$?AtlHiMetricToPixel@ATL@@YAXPEBUtagSIZE@@PEAU2@@Z 000000018002fc0c     ElectronicValueRW.obj
 0002:0000bc0c       $unwind$?AtlInternalQueryInterface@ATL@@YAJPEAXPEBU_ATL_INTMAP_ENTRY@1@AEBU_GUID@@PEAPEAX@Z 000000018002fc0c     ElectronicValueRW.obj
 0002:0000bc24       $unwind$?Init@?$CComEnumImpl@UIEnumConnections@@$1?_GUID_b196b287_bab4_101a_b69c_00aa00341d07@@3U__s_GUID@@BUtagCONNECTDATA@@V?$_Copy@UtagCONNECTDATA@@@ATL@@@ATL@@QEAAJPEAUtagCONNECTDATA@@0PEAUIUnknown@@W4CComEnumFlags@2@@Z 000000018002fc24     ElectronicValueRW.obj
 0002:0000bc24       $unwind$?Init@?$CComEnumImpl@UIEnumConnectionPoints@@$1?_GUID_b196b285_bab4_101a_b69c_00aa00341d07@@3U__s_GUID@@BPEAUIConnectionPoint@@V?$_CopyInterface@UIConnectionPoint@@@ATL@@@ATL@@QEAAJPEAPEAUIConnectionPoint@@0PEAUIUnknown@@W4CComEnumFlags@2@@Z 000000018002fc24     ElectronicValueRW.obj
 0002:0000bc24       $unwind$?GetClassObject@CComModule@ATL@@QEAAJAEBU_GUID@@0PEAPEAX@Z 000000018002fc24     ElectronicValueRW.obj
 0002:0000bc24       $unwind$?CreateInstance@?$CComCreator@V?$CComObjectCached@VCComClassFactory@ATL@@@ATL@@@ATL@@SAJPEAXAEBU_GUID@@PEAPEAX@Z 000000018002fc24     ElectronicValueRW.obj
 0002:0000bc24       $unwind$?NextToken@CRegParser@ATL@@IEAAJPEA_W@Z 000000018002fc24     ElectronicValueRW.obj
 0002:0000bc24       $unwind$?AtlComModuleGetClassObject@ATL@@YAJPEAU_ATL_COM_MODULE70@1@AEBU_GUID@@1PEAPEAX@Z 000000018002fc24     ElectronicValueRW.obj
 0002:0000bc3c       $unwind$?AtlRegisterClassCategoriesHelper@ATL@@YAJAEBU_GUID@@PEBU_ATL_CATMAP_ENTRY@1@H@Z 000000018002fc3c     ElectronicValueRW.obj
 0002:0000bc60       $unwind$?AtlLoadTypeLib@ATL@@YAJPEAUHINSTANCE__@@PEB_WPEAPEA_WPEAPEAUITypeLib@@@Z 000000018002fc60     ElectronicValueRW.obj
 0002:0000bc80       $unwind$?AtlRegisterTypeLib@ATL@@YAJPEAUHINSTANCE__@@PEB_W@Z 000000018002fc80     ElectronicValueRW.obj
 0002:0000bc9c       $unwind$?AtlUnRegisterTypeLib@ATL@@YAJPEAUHINSTANCE__@@PEB_W@Z 000000018002fc9c     ElectronicValueRW.obj
 0002:0000bca4       $unwind$?atlCreate@CRegKey@ATL@@QEAAJPEAUHKEY__@@PEB_WPEA_WKKPEAU_SECURITY_ATTRIBUTES@@PEAK@Z 000000018002fca4     ElectronicValueRW.obj
 0002:0000bcb0       $unwind$?Open@CRegKey@ATL@@QEAAJPEAUHKEY__@@PEB_WK@Z 000000018002fcb0     ElectronicValueRW.obj
 0002:0000bcbc       $unwind$?RecurseDeleteKey@CRegKey@ATL@@QEAAJPEB_W@Z 000000018002fcbc     ElectronicValueRW.obj
 0002:0000bcd8       $unwind$?UpdateRegistryFromResource@CAtlModule@ATL@@QEAAJIHPEAU_ATL_REGMAP_ENTRY@2@@Z 000000018002fcd8     ElectronicValueRW.obj
 0002:0000bcd8       $unwind$?UpdateRegistryFromResource@CAtlModule@ATL@@QEAAJPEB_WHPEAU_ATL_REGMAP_ENTRY@2@@Z 000000018002fcd8     ElectronicValueRW.obj
 0002:0000bcf8       $unwind$?Lookup@?$CSimpleMap@PEA_WPEA_WVCExpansionVectorEqualHelper@ATL@@@ATL@@QEBAPEA_WAEBQEA_W@Z 000000018002fcf8     ElectronicValueRW.obj
 0002:0000bcf8       $unwind$_free_osfhnd       000000018002fcf8     libucrt:osfinfo.obj
 0002:0000bcf8       $unwind$__std_exception_copy 000000018002fcf8     libvcruntime:std_exception.obj
 0002:0000bcf8       $unwind$?initialize_stdio_handles_nolock@@YAXXZ 000000018002fcf8     libucrt:ioinit.obj
 0002:0000bd0c       $unwind$?Add@CExpansionVector@ATL@@QEAAHPEB_W0@Z 000000018002fd0c     ElectronicValueRW.obj
 0002:0000bd24       $unwind$?PreProcessBuffer@CRegParser@ATL@@QEAAJPEA_WPEAPEA_W@Z 000000018002fd24     ElectronicValueRW.obj
 0002:0000bd48       $unwind$?RegisterBuffer@CRegParser@ATL@@QEAAJPEA_WH@Z 000000018002fd48     ElectronicValueRW.obj
 0002:0000bd68       $unwind$?AddValue@CRegParser@ATL@@IEAAJAEAVCRegKey@2@PEB_WPEA_W@Z 000000018002fd68     ElectronicValueRW.obj
 0002:0000bd88       $unwind$?RegisterSubkeys@CRegParser@ATL@@IEAAJPEA_WPEAUHKEY__@@HH@Z 000000018002fd88     ElectronicValueRW.obj
 0002:0000bda8       $unwind$?SkipAssignment@CRegParser@ATL@@IEAAJPEA_W@Z 000000018002fda8     ElectronicValueRW.obj
 0002:0000bdc0       $unwind$?RegisterFromResource@CRegObject@ATL@@IEAAJPEB_W00H@Z 000000018002fdc0     ElectronicValueRW.obj
 0002:0000bde0       $unwind$?AtlIPersistStreamInit_Load@ATL@@YAJPEAUIStream@@PEBUATL_PROPMAP_ENTRY@1@PEAXPEAUIUnknown@@@Z 000000018002fde0     ElectronicValueRW.obj
 0002:0000bdf8       $unwind$?AtlIPersistStreamInit_Save@ATL@@YAJPEAUIStream@@HPEBUATL_PROPMAP_ENTRY@1@PEAXPEAUIUnknown@@@Z 000000018002fdf8     ElectronicValueRW.obj
 0002:0000be14       $unwind$?GetTI@CComTypeInfoHolder@ATL@@QEAAJK@Z 000000018002fe14     ElectronicValueRW.obj
 0002:0000be34       $unwind$__acrt_locale_free_numeric 000000018002fe34     libucrt:initnum.obj
 0002:0000be34       $unwind$?Cleanup@CComTypeInfoHolder@ATL@@SAX_K@Z 000000018002fe34     ElectronicValueRW.obj
 0002:0000be34       $unwind$_free_base         000000018002fe34     libucrt:free_base.obj
 0002:0000be34       $unwind$__acrt_locale_free_lc_time_if_unreferenced 000000018002fe34     libucrt:locale_refcounting.obj
 0002:0000be34       $unwind$?destroy_fls@@YAXPEAX@Z 000000018002fe34     libucrt:per_thread_data.obj
 0002:0000be34       $unwind$AtlThunk_FreeData  000000018002fe34     atls:atlthunk.obj
 0002:0000be3c       $unwind$?GetIDsOfNames@CComTypeInfoHolder@ATL@@QEAAJAEBU_GUID@@PEAPEA_WIKPEAJ@Z 000000018002fe3c     ElectronicValueRW.obj
 0002:0000be58       $unwind$?LoadNameCache@CComTypeInfoHolder@ATL@@QEAAJPEAUITypeInfo@@@Z 000000018002fe58     ElectronicValueRW.obj
 0002:0000be6c       $unwind$?StartWindowProc@?$CWindowImplBaseT@VCWindow@ATL@@V?$CWinTraits@$0FGAAAAAA@$0A@@2@@ATL@@SA_JPEAUHWND__@@I_K_J@Z 000000018002fe6c     ElectronicValueRW.obj
 0002:0000be6c       $unwind$??$parse_command_line@D@@YAXPEADPEAPEAD0PEA_K2@Z 000000018002fe6c     libucrt:argv_parsing.obj
 0002:0000be6c       $unwind$??R<lambda_4e60a939b0d047cfe11ddc22648dfba9>@@QEBAHXZ 000000018002fe6c     libucrt:onexit.obj
 0002:0000be88       $unwind$?WindowProc@?$CWindowImplBaseT@VCWindow@ATL@@V?$CWinTraits@$0FGAAAAAA@$0A@@2@@ATL@@SA_JPEAUHWND__@@I_K_J@Z 000000018002fe88     ElectronicValueRW.obj
 0002:0000bea0       $unwind$?atlCreate@?$CWindowImplBaseT@VCWindow@ATL@@V?$CWinTraits@$0FGAAAAAA@$0A@@2@@ATL@@QEAAPEAUHWND__@@PEAU3@V_U_RECT@2@PEB_WKKV_U_MENUorID@2@GPEAX@Z 000000018002fea0     ElectronicValueRW.obj
 0002:0000beb8       $unwind$??$AtlModuleRegisterWndClassInfoT@VAtlModuleRegisterWndClassInfoParamW@ATL@@@ATL@@YAGPEAU_ATL_BASE_MODULE70@0@PEAU_ATL_WIN_MODULE70@0@PEAU_ATL_WNDCLASSINFOW@0@PEAP6A_JPEAUHWND__@@I_K_J@ZVAtlModuleRegisterWndClassInfoParamW@0@@Z 000000018002feb8     ElectronicValueRW.obj
 0002:0000bed8       $unwind$iswctype           000000018002fed8     libucrt:iswctype.obj
 0002:0000bed8       $unwind$?GetZoomInfo@CComControlBase@ATL@@QEAAXAEAUATL_DRAWINFO@@@Z 000000018002fed8     ElectronicValueRW.obj
 0002:0000bed8       $unwind$?OnKillFocus@CComControlBase@ATL@@QEAA_JI_K_JAEAH@Z 000000018002fed8     ElectronicValueRW.obj
 0002:0000bed8       $unwind$__acrt_is_packaged_app 000000018002fed8     libucrt:winapi_thunks.obj
 0002:0000bee4       $unwind$?SendOnDataChange@CComControlBase@ATL@@QEAAJK@Z 000000018002fee4     ElectronicValueRW.obj
 0002:0000bef4       $unwind$?OnSetFocus@CComControlBase@ATL@@QEAA_JI_K_JAEAH@Z 000000018002fef4     ElectronicValueRW.obj
 0002:0000bf04       $unwind$?OnMouseActivate@CComControlBase@ATL@@QEAA_JI_K_JAEAH@Z 000000018002ff04     ElectronicValueRW.obj
 0002:0000bf0c       $unwind$?GetAmbientLocaleID@CComControlBase@ATL@@QEAAJAEAK@Z 000000018002ff0c     ElectronicValueRW.obj
 0002:0000bf1c       $unwind$?GetAmbientUserMode@CComControlBase@ATL@@QEAAJAEAH@Z 000000018002ff1c     ElectronicValueRW.obj
 0002:0000bf30       $unwind$?IQuickActivate_QuickActivate@CComControlBase@ATL@@QEAAJPEAUtagQACONTAINER@@PEAUtagQACONTROL@@@Z 000000018002ff30     ElectronicValueRW.obj
 0002:0000bf48       $unwind$?DoVerbProperties@CComControlBase@ATL@@QEAAJPEBUtagRECT@@PEAUHWND__@@@Z 000000018002ff48     ElectronicValueRW.obj
 0002:0000bf60       $unwind$?InPlaceActivate@CComControlBase@ATL@@QEAAJJPEBUtagRECT@@@Z 000000018002ff60     ElectronicValueRW.obj
 0002:0000bf80       $unwind$?IOleObject_Close@CComControlBase@ATL@@QEAAJK@Z 000000018002ff80     ElectronicValueRW.obj
 0002:0000bf80       $unwind$?type_case_c_tchar@?$output_processor@_WV?$string_output_adapter@_W@__crt_stdio_output@@V?$format_validation_base@_WV?$string_output_adapter@_W@__crt_stdio_output@@@2@@__crt_stdio_output@@AEAA_N_W@Z 000000018002ff80     libucrt:output.obj
 0002:0000bf90       $unwind$?IOleInPlaceObject_UIDeactivate@CComControlBase@ATL@@QEAAJXZ 000000018002ff90     ElectronicValueRW.obj
 0002:0000bfa8       $unwind$?IOleInPlaceObject_SetObjectRects@CComControlBase@ATL@@QEAAJPEBUtagRECT@@0@Z 000000018002ffa8     ElectronicValueRW.obj
 0002:0000bfbc       $unwind$?IViewObject_Draw@CComControlBase@ATL@@QEAAJKJPEAXPEAUtagDVTARGETDEVICE@@PEAUHDC__@@2PEBU_RECTL@@3@Z 000000018002ffbc     ElectronicValueRW.obj
 0002:0000bfd8       $unwind$?IDataObject_GetData@CComControlBase@ATL@@QEAAJPEAUtagFORMATETC@@PEAUtagSTGMEDIUM@@@Z 000000018002ffd8     ElectronicValueRW.obj
 0002:0000bff8       $unwind$?OnPaint@CComControlBase@ATL@@QEAA_JI_K_JAEAH@Z 000000018002fff8     ElectronicValueRW.obj
 0002:0000c014       $unwind$?OnDrawAdvanced@CComControlBase@ATL@@UEAAJAEAUATL_DRAWINFO@@@Z 0000000180030014     ElectronicValueRW.obj
 0002:0000c02c       $unwind$_mbsdec_l          000000018003002c     libucrt:mbsdec.obj
 0002:0000c02c       $unwind$?Invoke@?$IDispatchImpl@UIOPOSElectronicValueRW@@$1?IID_IOPOSElectronicValueRW@@3U_GUID@@B$1?LIBID_OposElectronicValueRW_CCO@@3U3@B$00$0A@VCComTypeInfoHolder@ATL@@@ATL@@UEAAJJAEBU_GUID@@KGPEAUtagDISPPARAMS@@PEAUtagVARIANT@@PEAUtagEXCEPINFO@@PEAI@Z 000000018003002c     ElectronicValueRW.obj
 0002:0000c02c       $unwind$?ReleaseDevice@COPOSElectronicValueRW@@UEAAJPEAJ@Z 000000018003002c     ElectronicValueRWImpl.obj
 0002:0000c038       $unwind$?atlCreate@?$CWindowImpl@VCOPOSElectronicValueRW@@VCWindow@ATL@@V?$CWinTraits@$0FGAAAAAA@$0A@@3@@ATL@@QEAAPEAUHWND__@@PEAU3@V_U_RECT@2@PEB_WKKV_U_MENUorID@2@PEAX@Z 0000000180030038     ElectronicValueRW.obj
 0002:0000c038       $unwind$?fp_format_e@@YAHQEBNQEAD_K12H_NIQEAU__crt_locale_pointers@@@Z 0000000180030038     libucrt:cvt.obj
 0002:0000c04c       $unwind$?CreateControlWindow@?$CComControl@VCOPOSElectronicValueRW@@V?$CWindowImpl@VCOPOSElectronicValueRW@@VCWindow@ATL@@V?$CWinTraits@$0FGAAAAAA@$0A@@3@@ATL@@@ATL@@UEAAPEAUHWND__@@PEAU3@AEAUtagRECT@@@Z 000000018003004c     ElectronicValueRW.obj
 0002:0000c04c       $unwind$?ClearInputProperties@COPOSElectronicValueRW@@UEAAJPEAJ@Z 000000018003004c     ElectronicValueRWImpl.obj
 0002:0000c04c       $unwind$?ClearOutput@COPOSElectronicValueRW@@UEAAJPEAJ@Z 000000018003004c     ElectronicValueRWImpl.obj
 0002:0000c04c       $unwind$__dcrt_lowio_initialize_console_output 000000018003004c     libucrt:initcon.obj
 0002:0000c04c       $unwind$?CaptureCard@COPOSElectronicValueRW@@UEAAJPEAJ@Z 000000018003004c     ElectronicValueRWImpl.obj
 0002:0000c04c       $unwind$?EndDetection@COPOSElectronicValueRW@@UEAAJPEAJ@Z 000000018003004c     ElectronicValueRWImpl.obj
 0002:0000c04c       $unwind$?EndRemoval@COPOSElectronicValueRW@@UEAAJPEAJ@Z 000000018003004c     ElectronicValueRWImpl.obj
 0002:0000c04c       $unwind$?EnumerateCardServices@COPOSElectronicValueRW@@UEAAJPEAJ@Z 000000018003004c     ElectronicValueRWImpl.obj
 0002:0000c04c       $unwind$?LockTerminal@COPOSElectronicValueRW@@UEAAJPEAJ@Z 000000018003004c     ElectronicValueRWImpl.obj
 0002:0000c04c       $unwind$?__scrt_throw_std_bad_alloc@@YAXXZ 000000018003004c     LIBCMT:throw_bad_alloc.obj
 0002:0000c04c       $unwind$?ClearInput@COPOSElectronicValueRW@@UEAAJPEAJ@Z 000000018003004c     ElectronicValueRWImpl.obj
 0002:0000c04c       $unwind$_raise_exc         000000018003004c     libucrt:fpexcept.obj
 0002:0000c04c       $unwind$?UnlockTerminal@COPOSElectronicValueRW@@UEAAJPEAJ@Z 000000018003004c     ElectronicValueRWImpl.obj
 0002:0000c04c       $unwind$?ClearParameterInformation@COPOSElectronicValueRW@@UEAAJPEAJ@Z 000000018003004c     ElectronicValueRWImpl.obj
 0002:0000c04c       $unwind$?QueryLastSuccessfulTransactionResult@COPOSElectronicValueRW@@UEAAJPEAJ@Z 000000018003004c     ElectronicValueRWImpl.obj
 0002:0000c04c       $unwind$?__scrt_throw_std_bad_array_new_length@@YAXXZ 000000018003004c     LIBCMT:throw_bad_alloc.obj
 0002:0000c054       $unwind$__stdio_common_vswprintf_s 0000000180030054     libucrt:output.obj
 0002:0000c054       $unwind$?Save@?$IPersistStreamInitImpl@VCOPOSElectronicValueRW@@@ATL@@UEAAJPEAUIStream@@H@Z 0000000180030054     ElectronicValueRW.obj
 0002:0000c060       $unwind$?GetSizeMax@?$IPersistStreamInitImpl@VCOPOSElectronicValueRW@@@ATL@@UEAAJPEAT_ULARGE_INTEGER@@@Z 0000000180030060     ElectronicValueRW.obj
 0002:0000c078       $unwind$?DoVerbPrimary@?$IOleObjectImpl@VCOPOSElectronicValueRW@@@ATL@@QEAAJPEBUtagRECT@@PEAUHWND__@@@Z 0000000180030078     ElectronicValueRW.obj
 0002:0000c090       $unwind$?TranslateAcceleratorW@?$IOleInPlaceActiveObjectImpl@VCOPOSElectronicValueRW@@@ATL@@UEAAJPEAUtagMSG@@@Z 0000000180030090     ElectronicValueRW.obj
 0002:0000c09c       $unwind$?Draw@?$IViewObjectExImpl@VCOPOSElectronicValueRW@@@ATL@@UEAAJKJPEAXPEAUtagDVTARGETDEVICE@@PEAUHDC__@@2PEBU_RECTL@@3P6AH_K@Z4@Z 000000018003009c     ElectronicValueRW.obj
 0002:0000c0a4       $unwind$?QueryHitRect@?$IViewObjectExImpl@VCOPOSElectronicValueRW@@@ATL@@UEAAJKPEBUtagRECT@@0JPEAK@Z 00000001800300a4     ElectronicValueRW.obj
 0002:0000c0b4       $unwind$?OnWindowMessage@?$IOleInPlaceObjectWindowlessImpl@VCOPOSElectronicValueRW@@@ATL@@UEAAJI_K_JPEA_J@Z 00000001800300b4     ElectronicValueRW.obj
 0002:0000c0c8       $unwind$?EnumConnectionPoints@?$IConnectionPointContainerImpl@VCOPOSElectronicValueRW@@@ATL@@UEAAJPEAPEAUIEnumConnectionPoints@@@Z 00000001800300c8     ElectronicValueRW.obj
 0002:0000c0f0       $unwind$?FindConnectionPoint@?$IConnectionPointContainerImpl@VCOPOSElectronicValueRW@@@ATL@@UEAAJAEBU_GUID@@PEAPEAUIConnectionPoint@@@Z 00000001800300f0     ElectronicValueRW.obj
 0002:0000c10c       $unwind$?Load@?$IPersistStorageImpl@VCOPOSElectronicValueRW@@@ATL@@UEAAJPEAUIStorage@@@Z 000000018003010c     ElectronicValueRW.obj
 0002:0000c11c       $unwind$?Save@?$IPersistStorageImpl@VCOPOSElectronicValueRW@@@ATL@@UEAAJPEAUIStorage@@H@Z 000000018003011c     ElectronicValueRW.obj
 0002:0000c130       $unwind$_invalid_parameter 0000000180030130     libucrt:invalid_parameter.obj
 0002:0000c130       $unwind$?DAdvise@?$IDataObjectImpl@VCOPOSElectronicValueRW@@@ATL@@UEAAJPEAUtagFORMATETC@@KPEAUIAdviseSink@@PEAK@Z 0000000180030130     ElectronicValueRW.obj
 0002:0000c148       $unwind$?GetInterfaceSafetyOptions@?$IObjectSafetyImpl@VCOPOSElectronicValueRW@@$02@ATL@@UEAAJAEBU_GUID@@PEAK1@Z 0000000180030148     ElectronicValueRW.obj
 0002:0000c15c       $unwind$?parse_int_from_format_string@?$output_processor@_WV?$string_output_adapter@_W@__crt_stdio_output@@V?$format_validation_base@_WV?$string_output_adapter@_W@__crt_stdio_output@@@2@@__crt_stdio_output@@AEAA_NQEAH@Z 000000018003015c     libucrt:output.obj
 0002:0000c15c       $unwind$?SetInterfaceSafetyOptions@?$IObjectSafetyImpl@VCOPOSElectronicValueRW@@$02@ATL@@UEAAJAEBU_GUID@@KK@Z 000000018003015c     ElectronicValueRW.obj
 0002:0000c170       $unwind$?Advise@?$IConnectionPointImpl@VCOPOSElectronicValueRW@@$1?IID_IPropertyNotifySink@@3U_GUID@@BVCComDynamicUnkArray@ATL@@@ATL@@UEAAJPEAUIUnknown@@PEAK@Z 0000000180030170     ElectronicValueRW.obj
 0002:0000c170       $unwind$?Advise@?$IConnectionPointImpl@VCOPOSElectronicValueRW@@$1?DIID__IOPOSElectronicValueRWEvents@@3U_GUID@@BVCComDynamicUnkArray@ATL@@@ATL@@UEAAJPEAUIUnknown@@PEAK@Z 0000000180030170     ElectronicValueRW.obj
 0002:0000c184       $unwind$?EnumConnections@?$IConnectionPointImpl@VCOPOSElectronicValueRW@@$1?IID_IPropertyNotifySink@@3U_GUID@@BVCComDynamicUnkArray@ATL@@@ATL@@UEAAJPEAPEAUIEnumConnections@@@Z 0000000180030184     ElectronicValueRW.obj
 0002:0000c184       $unwind$??$create_environment@D@@YAQEAPEADQEAD@Z 0000000180030184     libucrt:environment_initialization.obj
 0002:0000c184       $unwind$?EnumConnections@?$IConnectionPointImpl@VCOPOSElectronicValueRW@@$1?DIID__IOPOSElectronicValueRWEvents@@3U_GUID@@BVCComDynamicUnkArray@ATL@@@ATL@@UEAAJPEAPEAUIEnumConnections@@@Z 0000000180030184     ElectronicValueRW.obj
 0002:0000c19c       $unwind$?Fire_DataEvent@?$CProxy_IOPOSEvents@VCOPOSElectronicValueRW@@@@QEAAXJ@Z 000000018003019c     ElectronicValueRW.obj
 0002:0000c19c       $unwind$?Fire_OutputCompleteEvent@?$CProxy_IOPOSEvents@VCOPOSElectronicValueRW@@@@QEAAXJ@Z 000000018003019c     ElectronicValueRW.obj
 0002:0000c19c       $unwind$__acrt_LCMapStringEx 000000018003019c     libucrt:winapi_thunks.obj
 0002:0000c19c       $unwind$_mbtowc_l          000000018003019c     libucrt:mbtowc.obj
 0002:0000c19c       $unwind$??$__InternalCxxFrameHandler@V__FrameHandler3@@@@YA?AW4_EXCEPTION_DISPOSITION@@PEAUEHExceptionRecord@@PEA_KPEAU_CONTEXT@@PEAU_xDISPATCHER_CONTEXT@@PEBU_s_FuncInfo@@H1E@Z 000000018003019c     libvcruntime:frame.obj
 0002:0000c19c       $unwind$?Fire_StatusUpdateEvent@?$CProxy_IOPOSEvents@VCOPOSElectronicValueRW@@@@QEAAXJ@Z 000000018003019c     ElectronicValueRW.obj
 0002:0000c1b4       $unwind$?Fire_DirectIOEvent@?$CProxy_IOPOSEvents@VCOPOSElectronicValueRW@@@@QEAAXJPEAJPEAPEA_W@Z 00000001800301b4     ElectronicValueRW.obj
 0002:0000c1b4       $unwind$?Fire_TransitionEvent@?$CProxy_IOPOSEvents@VCOPOSElectronicValueRW@@@@QEAAXJPEAJPEAPEA_W@Z 00000001800301b4     ElectronicValueRW.obj
 0002:0000c1d4       $unwind$?Fire_ErrorEvent@?$CProxy_IOPOSEvents@VCOPOSElectronicValueRW@@@@QEAAXJJJPEAJ@Z 00000001800301d4     ElectronicValueRW.obj
 0002:0000c1f4       $unwind$?FireTheEvent@?$CProxy_IOPOSEvents@VCOPOSElectronicValueRW@@@@IEAAXPEAVOposVariant@@IAEAJPEB_WJ@Z 00000001800301f4     ElectronicValueRW.obj
 0002:0000c204       $unwind$__dcrt_get_narrow_environment_from_os 0000000180030204     libucrt:get_environment_from_os.obj
 0002:0000c204       $unwind$?fp_format_f_internal@@YAHQEAD_KHQEAU_strflt@@_NQEAU__crt_locale_pointers@@@Z 0000000180030204     libucrt:cvt.obj
 0002:0000c204       $unwind$?ProcessWindowMessage@COPOSElectronicValueRW@@UEAAHPEAUHWND__@@I_K_JAEA_JK@Z 0000000180030204     ElectronicValueRW.obj
 0002:0000c21c       $unwind$?EventWindowProc@COPOSElectronicValueRW@@IEAA_JI_K_J@Z 000000018003021c     ElectronicValueRWImpl.obj
 0002:0000c21c       $unwind$?SOError@COPOSElectronicValueRW@@MEAAJJJJPEAJ@Z 000000018003021c     ElectronicValueRW.obj
 0002:0000c230       $unwind$?Clone@?$CComEnumImpl@UIEnumConnectionPoints@@$1?_GUID_b196b285_bab4_101a_b69c_00aa00341d07@@3U__s_GUID@@BPEAUIConnectionPoint@@V?$_CopyInterface@UIConnectionPoint@@@ATL@@@ATL@@UEAAJPEAPEAUIEnumConnectionPoints@@@Z 0000000180030230     ElectronicValueRW.obj
 0002:0000c230       $unwind$?Clone@?$CComEnumImpl@UIEnumConnections@@$1?_GUID_b196b287_bab4_101a_b69c_00aa00341d07@@3U__s_GUID@@BUtagCONNECTDATA@@V?$_Copy@UtagCONNECTDATA@@@ATL@@@ATL@@UEAAJPEAPEAUIEnumConnections@@@Z 0000000180030230     ElectronicValueRW.obj
 0002:0000c248       $unwind$?GetOposProp@COPOSElectronicValueRW@@IEAAJJPEAJJ@Z 0000000180030248     ElectronicValueRWImpl.obj
 0002:0000c248       $unwind$?GetOposProp@COPOSElectronicValueRW@@IEAAJJPEAPEA_WJ@Z 0000000180030248     ElectronicValueRWImpl.obj
 0002:0000c260       $unwind$?SetOposProp@COPOSElectronicValueRW@@IEAAJJJJ@Z 0000000180030260     ElectronicValueRWImpl.obj
 0002:0000c280       $unwind$?SetOposProp@COPOSElectronicValueRW@@IEAAJJPEA_WJ@Z 0000000180030280     ElectronicValueRWImpl.obj
 0002:0000c29c       $unwind$?DoInvoke@COPOSElectronicValueRW@@IEAAJJPEAVOposVariant@@IHPEAJ_N@Z 000000018003029c     ElectronicValueRWImpl.obj
 0002:0000c2b4       $unwind$?SetCOFreezeEvents@COPOSElectronicValueRW@@IEAAXF@Z 00000001800302b4     ElectronicValueRWImpl.obj
 0002:0000c2c8       $unwind$?OnDraw@COPOSElectronicValueRW@@MEAAJAEAUATL_DRAWINFO@@@Z 00000001800302c8     ElectronicValueRWImpl.obj
 0002:0000c2e0       $unwind$?EventInit@COPOSElectronicValueRW@@IEAAJXZ 00000001800302e0     ElectronicValueRWImpl.obj
 0002:0000c2f4       $unwind$isdigit            00000001800302f4     libucrt:_ctype.obj
 0002:0000c2f4       $unwind$?getSystemCP@@YAHH@Z 00000001800302f4     libucrt:mbctype.obj
 0002:0000c2f4       $unwind$__scrt_initialize_onexit_tables 00000001800302f4     LIBCMT:utility.obj
 0002:0000c2f4       $unwind$?get_ControlObjectDescription@COPOSElectronicValueRW@@UEAAJPEAPEA_W@Z 00000001800302f4     ElectronicValueRWImpl.obj
 0002:0000c2f4       $unwind$_isleadbyte_l      00000001800302f4     libucrt:_wctype.obj
 0002:0000c2fc       $unwind$?TransactionAccess@COPOSElectronicValueRW@@UEAAJJPEAJ@Z 00000001800302fc     ElectronicValueRWImpl.obj
 0002:0000c2fc       $unwind$?BeginRemoval@COPOSElectronicValueRW@@UEAAJJPEAJ@Z 00000001800302fc     ElectronicValueRWImpl.obj
 0002:0000c2fc       $unwind$?ResetStatistics@COPOSElectronicValueRW@@UEAAJPEA_WPEAJ@Z 00000001800302fc     ElectronicValueRWImpl.obj
 0002:0000c2fc       $unwind$?RetrieveStatistics@COPOSElectronicValueRW@@UEAAJPEAPEA_WPEAJ@Z 00000001800302fc     ElectronicValueRWImpl.obj
 0002:0000c2fc       $unwind$?UpdateStatistics@COPOSElectronicValueRW@@UEAAJPEA_WPEAJ@Z 00000001800302fc     ElectronicValueRWImpl.obj
 0002:0000c2fc       $unwind$?UpdateFirmware@COPOSElectronicValueRW@@UEAAJPEA_WPEAJ@Z 00000001800302fc     ElectronicValueRWImpl.obj
 0002:0000c2fc       $unwind$?CheckHealth@COPOSElectronicValueRW@@UEAAJJPEAJ@Z 00000001800302fc     ElectronicValueRWImpl.obj
 0002:0000c30c       $unwind$?ClaimDevice@COPOSElectronicValueRW@@UEAAJJPEAJ@Z 000000018003030c     ElectronicValueRWImpl.obj
 0002:0000c31c       $unwind$?AccessData@COPOSElectronicValueRW@@UEAAJJPEAJPEAPEA_W0@Z 000000018003031c     ElectronicValueRWImpl.obj
 0002:0000c31c       $unwind$?UpdateData@COPOSElectronicValueRW@@UEAAJJPEAJPEAPEA_W0@Z 000000018003031c     ElectronicValueRWImpl.obj
 0002:0000c31c       $unwind$?DirectIO@COPOSElectronicValueRW@@UEAAJJPEAJPEAPEA_W0@Z 000000018003031c     ElectronicValueRWImpl.obj
 0002:0000c338       $unwind$?Open@COPOSElectronicValueRW@@UEAAJPEA_WPEAJ@Z 0000000180030338     ElectronicValueRWImpl.obj
 0002:0000c35c       $unwind$?OpenDailyEVService@COPOSElectronicValueRW@@UEAAJPEAJPEAPEA_W0@Z 000000018003035c     ElectronicValueRWImpl.obj
 0002:0000c35c       $unwind$?CloseDailyEVService@COPOSElectronicValueRW@@UEAAJPEAJPEAPEA_W0@Z 000000018003035c     ElectronicValueRWImpl.obj
 0002:0000c35c       $unwind$?ActivateEVService@COPOSElectronicValueRW@@UEAAJPEAJPEAPEA_W0@Z 000000018003035c     ElectronicValueRWImpl.obj
 0002:0000c35c       $unwind$?SetParameterInformation@COPOSElectronicValueRW@@UEAAJPEA_W0PEAJ@Z 000000018003035c     ElectronicValueRWImpl.obj
 0002:0000c35c       $unwind$?RetrieveResultInformation@COPOSElectronicValueRW@@UEAAJPEA_WPEAPEA_WPEAJ@Z 000000018003035c     ElectronicValueRWImpl.obj
 0002:0000c35c       $unwind$?ActivateService@COPOSElectronicValueRW@@UEAAJPEAJPEAPEA_W0@Z 000000018003035c     ElectronicValueRWImpl.obj
 0002:0000c35c       $unwind$?CompareFirmwareVersion@COPOSElectronicValueRW@@UEAAJPEA_WPEAJ1@Z 000000018003035c     ElectronicValueRWImpl.obj
 0002:0000c35c       $unwind$?DeactivateEVService@COPOSElectronicValueRW@@UEAAJPEAJPEAPEA_W0@Z 000000018003035c     ElectronicValueRWImpl.obj
 0002:0000c35c       $unwind$?UpdateKey@COPOSElectronicValueRW@@UEAAJPEAJPEAPEA_W0@Z 000000018003035c     ElectronicValueRWImpl.obj
 0002:0000c35c       $unwind$?initialize_inherited_file_handles_nolock@@YAXXZ 000000018003035c     libucrt:ioinit.obj
 0002:0000c378       $unwind$?get_SettledPoint@COPOSElectronicValueRW@@UEAAJPEATtagCY@@@Z 0000000180030378     ElectronicValueRWImpl.obj
 0002:0000c378       $unwind$?get_SettledAmount@COPOSElectronicValueRW@@UEAAJPEATtagCY@@@Z 0000000180030378     ElectronicValueRWImpl.obj
 0002:0000c378       $unwind$?get_Amount@COPOSElectronicValueRW@@UEAAJPEATtagCY@@@Z 0000000180030378     ElectronicValueRWImpl.obj
 0002:0000c378       $unwind$?get_Point@COPOSElectronicValueRW@@UEAAJPEATtagCY@@@Z 0000000180030378     ElectronicValueRWImpl.obj
 0002:0000c378       $unwind$?get_BalanceOfPoint@COPOSElectronicValueRW@@UEAAJPEATtagCY@@@Z 0000000180030378     ElectronicValueRWImpl.obj
 0002:0000c378       $unwind$?get_Balance@COPOSElectronicValueRW@@UEAAJPEATtagCY@@@Z 0000000180030378     ElectronicValueRWImpl.obj
 0002:0000c38c       $unwind$?put_Point@COPOSElectronicValueRW@@UEAAJTtagCY@@@Z 000000018003038c     ElectronicValueRWImpl.obj
 0002:0000c38c       $unwind$?put_Amount@COPOSElectronicValueRW@@UEAAJTtagCY@@@Z 000000018003038c     ElectronicValueRWImpl.obj
 0002:0000c3a4       $unwind$?AccessLog@COPOSElectronicValueRW@@UEAAJJJJPEAJ@Z 00000001800303a4     ElectronicValueRWImpl.obj
 0002:0000c3a4       $unwind$?AccessDailyLog@COPOSElectronicValueRW@@UEAAJJJJPEAJ@Z 00000001800303a4     ElectronicValueRWImpl.obj
 0002:0000c3a4       $unwind$?CashDeposit@COPOSElectronicValueRW@@UEAAJJTtagCY@@JPEAJ@Z 00000001800303a4     ElectronicValueRWImpl.obj
 0002:0000c3c0       $unwind$?UnregisterServiceToMedium@COPOSElectronicValueRW@@UEAAJJJPEAJ@Z 00000001800303c0     ElectronicValueRWImpl.obj
 0002:0000c3c0       $unwind$?ReadValue@COPOSElectronicValueRW@@UEAAJJJPEAJ@Z 00000001800303c0     ElectronicValueRWImpl.obj
 0002:0000c3c0       $unwind$?WriteValue@COPOSElectronicValueRW@@UEAAJJJPEAJ@Z 00000001800303c0     ElectronicValueRWImpl.obj
 0002:0000c3c0       $unwind$?RegisterServiceToMedium@COPOSElectronicValueRW@@UEAAJJJPEAJ@Z 00000001800303c0     ElectronicValueRWImpl.obj
 0002:0000c3c0       $unwind$?CancelValue@COPOSElectronicValueRW@@UEAAJJJPEAJ@Z 00000001800303c0     ElectronicValueRWImpl.obj
 0002:0000c3c0       $unwind$?CheckCard@COPOSElectronicValueRW@@UEAAJJJPEAJ@Z 00000001800303c0     ElectronicValueRWImpl.obj
 0002:0000c3c0       $unwind$?BeginDetection@COPOSElectronicValueRW@@UEAAJJJPEAJ@Z 00000001800303c0     ElectronicValueRWImpl.obj
 0002:0000c3c0       $unwind$?AddValue@COPOSElectronicValueRW@@UEAAJJJPEAJ@Z 00000001800303c0     ElectronicValueRWImpl.obj
 0002:0000c3c0       $unwind$?CheckServiceRegistrationToMedium@COPOSElectronicValueRW@@UEAAJJJPEAJ@Z 00000001800303c0     ElectronicValueRWImpl.obj
 0002:0000c3c0       $unwind$?SubtractValue@COPOSElectronicValueRW@@UEAAJJJPEAJ@Z 00000001800303c0     ElectronicValueRWImpl.obj
 0002:0000c3d8       $unwind$?AuthorizeVoidPreSales@COPOSElectronicValueRW@@UEAAJJTtagCY@@0JPEAJ@Z 00000001800303d8     ElectronicValueRWImpl.obj
 0002:0000c3d8       $unwind$?AuthorizeCompletion@COPOSElectronicValueRW@@UEAAJJTtagCY@@0JPEAJ@Z 00000001800303d8     ElectronicValueRWImpl.obj
 0002:0000c3d8       $unwind$?AuthorizePreSales@COPOSElectronicValueRW@@UEAAJJTtagCY@@0JPEAJ@Z 00000001800303d8     ElectronicValueRWImpl.obj
 0002:0000c3d8       $unwind$?AuthorizeSales@COPOSElectronicValueRW@@UEAAJJTtagCY@@0JPEAJ@Z 00000001800303d8     ElectronicValueRWImpl.obj
 0002:0000c3d8       $unwind$?AuthorizeRefund@COPOSElectronicValueRW@@UEAAJJTtagCY@@0JPEAJ@Z 00000001800303d8     ElectronicValueRWImpl.obj
 0002:0000c3d8       $unwind$?AuthorizeVoid@COPOSElectronicValueRW@@UEAAJJTtagCY@@0JPEAJ@Z 00000001800303d8     ElectronicValueRWImpl.obj
 0002:0000c3f4       $unwind$__scrt_is_nonwritable_in_current_image 00000001800303f4     LIBCMT:utility.obj
 0002:0000c414       $unwind$__scrt_is_nonwritable_in_current_image$filt$0 0000000180030414     LIBCMT:utility.obj
 0002:0000c41c       $unwind$?__scrt_initialize_thread_safe_statics@@YAHXZ 000000018003041c     LIBCMT:thread_safe_statics.obj
 0002:0000c434       $stateUnwindMap$?__scrt_initialize_thread_safe_statics@@YAHXZ 0000000180030434     LIBCMT:thread_safe_statics.obj
 0002:0000c440       $ip2state$?__scrt_initialize_thread_safe_statics@@YAHXZ 0000000180030440     LIBCMT:thread_safe_statics.obj
 0002:0000c448       $unwind$__report_securityfailure 0000000180030448     LIBCMT:gs_report.obj
 0002:0000c450       $unwind$_putwch_nolock     0000000180030450     libucrt:putwch.obj
 0002:0000c450       $unwind$__report_gsfailure 0000000180030450     LIBCMT:gs_report.obj
 0002:0000c458       $unwind$capture_current_context 0000000180030458     LIBCMT:gs_report.obj
 0002:0000c464       $unwind$capture_previous_context 0000000180030464     LIBCMT:gs_report.obj
 0002:0000c470       $unwind$??2@YAPEAX_KAEBUnothrow_t@std@@@Z 0000000180030470     LIBCMT:new_scalar_nothrow.obj
 0002:0000c480       $stateUnwindMap$??2@YAPEAX_KAEBUnothrow_t@std@@@Z 0000000180030480     LIBCMT:new_scalar_nothrow.obj
 0002:0000c490       $tryMap$??2@YAPEAX_KAEBUnothrow_t@std@@@Z 0000000180030490     LIBCMT:new_scalar_nothrow.obj
 0002:0000c4a4       $handlerMap$0$??2@YAPEAX_KAEBUnothrow_t@std@@@Z 00000001800304a4     LIBCMT:new_scalar_nothrow.obj
 0002:0000c4b8       $ip2state$??2@YAPEAX_KAEBUnothrow_t@std@@@Z 00000001800304b8     LIBCMT:new_scalar_nothrow.obj
 0002:0000c4c0       $unwind$?catch$0@?0???2@YAPEAX_KAEBUnothrow_t@std@@@Z@4HA 00000001800304c0     LIBCMT:new_scalar_nothrow.obj
 0002:0000c4d0       $unwind$__GSHandlerCheckCommon 00000001800304d0     LIBCMT:gshandler.obj
 0002:0000c4d8       $xdatasym                  00000001800304d8     LIBCMT:chkstk.obj
 0002:0000c4e0       $xdatasym                  00000001800304e0     LIBCMT:amdsecgs.obj
 0002:0000c4e4       $unwind$?dllmain_crt_process_attach@@YAHQEAUHINSTANCE__@@QEAX@Z 00000001800304e4     LIBCMT:dll_dllmain.obj
 0002:0000c520       $unwind$?dllmain_crt_process_detach@@YAH_N@Z 0000000180030520     LIBCMT:dll_dllmain.obj
 0002:0000c558       $unwind$?dllmain_dispatch@@YAHQEAUHINSTANCE__@@KQEAX@Z 0000000180030558     LIBCMT:dll_dllmain.obj
 0002:0000c580       $unwind$?filt$0@?0??dllmain_dispatch@@YAHQEAUHINSTANCE__@@KQEAX@Z@4HA 0000000180030580     LIBCMT:dll_dllmain.obj
 0002:0000c588       $unwind$__isa_available_init 0000000180030588     LIBCMT:cpu_disp.obj
 0002:0000c59c       $unwind$__scrt_fastfail    000000018003059c     LIBCMT:utility_desktop.obj
 0002:0000c5ac       $unwind$__security_init_cookie 00000001800305ac     LIBCMT:gs_support.obj
 0002:0000c5b8       $xdatasym                  00000001800305b8     LIBCMT:guard_dispatch.obj
 0002:0000c5bc       $unwind$AtlThunk_InitData  00000001800305bc     atls:atlthunk.obj
 0002:0000c5d0       $xdatasym                  00000001800305d0     libvcruntime:memset.obj
 0002:0000c5e0       $unwind$wcsstr             00000001800305e0     libvcruntime:wcsstr.obj
 0002:0000c5f8       $xdatasym                  00000001800305f8     libvcruntime:memcmp.obj
 0002:0000c600       $xdatasym                  0000000180030600     libvcruntime:memcpy.obj
 0002:0000c610       $unwind$__C_specific_handler 0000000180030610     libvcruntime:riscchandler.obj
 0002:0000c62c       $unwind$__DestructExceptionObject 000000018003062c     libvcruntime:ehhelpers.obj
 0002:0000c64c       $unwind$?GetEstablisherFrame@__FrameHandler3@@SAPEA_KPEA_KPEAU_xDISPATCHER_CONTEXT@@PEBU_s_FuncInfo@@0@Z 000000018003064c     libvcruntime:risctrnsctrl.obj
 0002:0000c664       $unwind$?UnwindNestedFrames@__FrameHandler3@@SAXPEA_KPEAUEHExceptionRecord@@PEAU_CONTEXT@@0PEAXPEBU_s_FuncInfo@@HHPEBU_s_HandlerType@@PEAU_xDISPATCHER_CONTEXT@@E@Z 0000000180030664     libvcruntime:risctrnsctrl.obj
 0002:0000c678       $unwind$?GetRangeOfTrysToCheck@__FrameHandler3@@SA?AU?$pair@Viterator@TryBlockMap@__FrameHandler3@@V123@@std@@AEAVTryBlockMap@1@HH@Z 0000000180030678     libvcruntime:risctrnsctrl.obj
 0002:0000c690       $unwind$__CxxFrameHandler3 0000000180030690     libvcruntime:risctrnsctrl.obj
 0002:0000c6a0       $unwind$??$_CallSETranslator@V__FrameHandler3@@@@YAHPEAUEHExceptionRecord@@PEA_KPEAU_CONTEXT@@PEAU_xDISPATCHER_CONTEXT@@PEBU_s_FuncInfo@@K1@Z 00000001800306a0     libvcruntime:risctrnsctrl.obj
 0002:0000c6c0       $unwind$?filt$0@?0???$_CallSETranslator@V__FrameHandler3@@@@YAHPEAUEHExceptionRecord@@PEA_KPEAU_CONTEXT@@PEAU_xDISPATCHER_CONTEXT@@PEBU_s_FuncInfo@@K1@Z@4HA 00000001800306c0     libvcruntime:risctrnsctrl.obj
 0002:0000c6cc       $unwind$_CxxThrowException 00000001800306cc     libvcruntime:throw.obj
 0002:0000c6dc       $unwind$__vcrt_initialize_winapi_thunks 00000001800306dc     libvcruntime:winapi_downlevel.obj
 0002:0000c6dc       $unwind$__acrt_initialize_winapi_thunks 00000001800306dc     libucrt:winapi_thunks.obj
 0002:0000c6e4       $unwind$__vcrt_uninitialize_winapi_thunks 00000001800306e4     libvcruntime:winapi_downlevel.obj
 0002:0000c6ec       $unwind$?write_string@?$string_output_adapter@_W@__crt_stdio_output@@QEBAXQEB_WHQEAH1@Z 00000001800306ec     libucrt:output.obj
 0002:0000c6ec       $unwind$?IsInExceptionSpec@@YAEPEAUEHExceptionRecord@@PEBU_s_ESTypeList@@@Z 00000001800306ec     libvcruntime:frame.obj
 0002:0000c6ec       $unwind$?try_get_function@@YAPEAXW4function_id@?A0x63058377@@QEBDQEBW4module_id@2@2@Z 00000001800306ec     libucrt:winapi_thunks.obj
 0002:0000c6ec       $unwind$?try_get_function@@YAPEAXW4function_id@?A0xbfd18cd1@@QEBDQEBW4module_id@2@2@Z 00000001800306ec     libvcruntime:winapi_downlevel.obj
 0002:0000c708       $xdatasym                  0000000180030708     libvcruntime:notify.obj
 0002:0000c714       $unwind$?FrameUnwindToState@__FrameHandler3@@SAXPEA_KPEAU_xDISPATCHER_CONTEXT@@PEBU_s_FuncInfo@@H@Z 0000000180030714     libvcruntime:frame.obj
 0002:0000c760       $unwind$?CxxCallCatchBlock@__FrameHandler3@@SAPEAXPEAU_EXCEPTION_RECORD@@@Z 0000000180030760     libvcruntime:frame.obj
 0002:0000c79c       $unwind$?fin$1@?0??CxxCallCatchBlock@__FrameHandler3@@SAPEAXPEAU_EXCEPTION_RECORD@@@Z@4HA 000000018003079c     libvcruntime:frame.obj
 0002:0000c7a8       $unwind$??$BuildCatchObjectHelperInternal@V__FrameHandler3@@@@YAHPEAUEHExceptionRecord@@PEAXPEBU_s_HandlerType@@PEBU_s_CatchableType@@@Z 00000001800307a8     libvcruntime:frame.obj
 0002:0000c7e8       $unwind$??$BuildCatchObjectInternal@V__FrameHandler3@@@@YAXPEAUEHExceptionRecord@@PEAXPEBU_s_HandlerType@@PEBU_s_CatchableType@@@Z 00000001800307e8     libvcruntime:frame.obj
 0002:0000c814       $unwind$??$FindHandler@V__FrameHandler3@@@@YAXPEAUEHExceptionRecord@@PEA_KPEAU_CONTEXT@@PEAU_xDISPATCHER_CONTEXT@@PEBU_s_FuncInfo@@EH1@Z 0000000180030814     libvcruntime:frame.obj
 0002:0000c830       $unwind$??$CatchIt@V__FrameHandler3@@@@YAXPEAUEHExceptionRecord@@PEA_KPEAU_CONTEXT@@PEAU_xDISPATCHER_CONTEXT@@PEBU_s_FuncInfo@@PEBU_s_HandlerType@@PEBU_s_CatchableType@@PEBU_s_TryBlockMapEntry@@H1EE@Z 0000000180030830     libvcruntime:frame.obj
 0002:0000c848       $unwind$??$FindHandlerForForeignException@V__FrameHandler3@@@@YAXPEAUEHExceptionRecord@@PEA_KPEAU_CONTEXT@@PEAU_xDISPATCHER_CONTEXT@@PEBU_s_FuncInfo@@HH1@Z 0000000180030848     libvcruntime:frame.obj
 0002:0000c868       $xdatasym                  0000000180030868     libvcruntime:handlers.obj
 0002:0000c878       $unwind$__acrt_call_reportfault 0000000180030878     libucrt:invalid_parameter.obj
 0002:0000c898       $unwind$_resetstkoflw      0000000180030898     libucrt:resetstk.obj
 0002:0000c8bc       $unwind$??$common_vsprintf@Vformat_validation_base@__crt_stdio_output@@_W@@YAH_KQEA_W0QEB_WQEAU__crt_locale_pointers@@QEAD@Z 00000001800308bc     libucrt:output.obj
 0002:0000c8e0       $unwind$??$write_multiple_characters@V?$string_output_adapter@_W@__crt_stdio_output@@D@__crt_stdio_output@@YAXAEBV?$string_output_adapter@_W@0@DHQEAH@Z 00000001800308e0     libucrt:output.obj
 0002:0000c8ec       $unwind$?state_case_type@?$output_processor@_WV?$string_output_adapter@_W@__crt_stdio_output@@V?$format_validation_base@_WV?$string_output_adapter@_W@__crt_stdio_output@@@2@@__crt_stdio_output@@AEAA_NXZ 00000001800308ec     libucrt:output.obj
 0002:0000c910       $unwind$?type_case_a@?$output_processor@_WV?$string_output_adapter@_W@__crt_stdio_output@@V?$format_validation_base@_WV?$string_output_adapter@_W@__crt_stdio_output@@@2@@__crt_stdio_output@@AEAA_NXZ 0000000180030910     libucrt:output.obj
 0002:0000c920       $unwind$?write_stored_string_tchar@?$output_processor@_WV?$string_output_adapter@_W@__crt_stdio_output@@V?$format_validation_base@_WV?$string_output_adapter@_W@__crt_stdio_output@@@2@@__crt_stdio_output@@AEAA_N_W@Z 0000000180030920     libucrt:output.obj
 0002:0000c934       $unwind$??$type_case_integer_parse_into_buffer@I@?$output_processor@_WV?$string_output_adapter@_W@__crt_stdio_output@@V?$format_validation_base@_WV?$string_output_adapter@_W@__crt_stdio_output@@@2@@__crt_stdio_output@@AEAAXII_N@Z 0000000180030934     libucrt:output.obj
 0002:0000c934       $unwind$??$type_case_integer_parse_into_buffer@_K@?$output_processor@_WV?$string_output_adapter@_W@__crt_stdio_output@@V?$format_validation_base@_WV?$string_output_adapter@_W@__crt_stdio_output@@@2@@__crt_stdio_output@@AEAAX_KI_N@Z 0000000180030934     libucrt:output.obj
 0002:0000c93c       $unwind$?common_exit@@YAXHW4_crt_exit_cleanup_mode@@W4_crt_exit_return_mode@@@Z 000000018003093c     libucrt:exit.obj
 0002:0000c97c       $unwind$??$free_environment@_W@@YAXQEAPEA_W@Z 000000018003097c     libucrt:environment_initialization.obj
 0002:0000c97c       $unwind$??$free_environment@D@@YAXQEAPEAD@Z 000000018003097c     libucrt:environment_initialization.obj
 0002:0000c988       $unwind$_register_onexit_function 0000000180030988     libucrt:onexit.obj
 0002:0000c990       $unwind$_execute_onexit_table 0000000180030990     libucrt:onexit.obj
 0002:0000c998       $unwind$??$?RV<lambda_b8c45f8f788dd370798f47cfe8ac3a86>@@AEAV<lambda_4e60a939b0d047cfe11ddc22648dfba9>@@V<lambda_332c3edc96d0294ec56c57d38c1cdfd5>@@@?$__crt_seh_guarded_call@H@@QEAAH$$QEAV<lambda_b8c45f8f788dd370798f47cfe8ac3a86>@@AEAV<lambda_4e60a939b0d047cfe11ddc22648dfba9>@@$$QEAV<lambda_332c3edc96d0294ec56c57d38c1cdfd5>@@@Z 0000000180030998     libucrt:onexit.obj
 0002:0000c9bc       $unwind$??$?RV<lambda_e24bbb7b643b32fcea6fa61b31d4c984>@@AEAV<lambda_275893d493268fdec8709772e3fcec0e>@@V<lambda_9d71df4d7cf3f480f8d633942495c3b0>@@@?$__crt_seh_guarded_call@H@@QEAAH$$QEAV<lambda_e24bbb7b643b32fcea6fa61b31d4c984>@@AEAV<lambda_275893d493268fdec8709772e3fcec0e>@@$$QEAV<lambda_9d71df4d7cf3f480f8d633942495c3b0>@@@Z 00000001800309bc     libucrt:onexit.obj
 0002:0000c9ec       $unwind$_query_new_handler 00000001800309ec     libucrt:new_handler.obj
 0002:0000ca0c       $unwind$terminate          0000000180030a0c     libucrt:terminate.obj
 0002:0000ca2c       $unwind$??$parse_integer@KV?$c_string_character_source@_W@__crt_strtox@@@__crt_strtox@@YAKQEAU__crt_locale_pointers@@V?$c_string_character_source@_W@0@H_N@Z 0000000180030a2c     libucrt:atox.obj
 0002:0000ca48       $xdatasym                  0000000180030a48     libucrt:strncmp.obj
 0002:0000ca4c       $unwind$?construct_ptd_array@@YAXQEAU__acrt_ptd@@@Z 0000000180030a4c     libucrt:per_thread_data.obj
 0002:0000ca54       $unwind$?destroy_ptd_array@@YAXQEAU__acrt_ptd@@@Z 0000000180030a54     libucrt:per_thread_data.obj
 0002:0000ca5c       $unwind$??$?RV<lambda_72d1df2b273a38828b1ce30cbf4cdab5>@@AEAV<lambda_876a65b173b8412d3a47c70a915b0cf4>@@V<lambda_41932305e351933ebe8f8be3ed8bb5dc>@@@?$__crt_seh_guarded_call@X@@QEAAX$$QEAV<lambda_72d1df2b273a38828b1ce30cbf4cdab5>@@AEAV<lambda_876a65b173b8412d3a47c70a915b0cf4>@@$$QEAV<lambda_41932305e351933ebe8f8be3ed8bb5dc>@@@Z 0000000180030a5c     libucrt:per_thread_data.obj
 0002:0000ca80       $unwind$??$?RV<lambda_5e887d1dcbef67a5eb4283622ba103bf>@@AEAV<lambda_4466841279450cc726390878d4a41900>@@V<lambda_341c25c0346d94847f1f3c463c57e077>@@@?$__crt_seh_guarded_call@X@@QEAAX$$QEAV<lambda_5e887d1dcbef67a5eb4283622ba103bf>@@AEAV<lambda_4466841279450cc726390878d4a41900>@@$$QEAV<lambda_341c25c0346d94847f1f3c463c57e077>@@@Z 0000000180030a80     libucrt:per_thread_data.obj
 0002:0000caa4       $unwind$??$?RV<lambda_46352004c1216016012b18bd6f87e700>@@AEAV<lambda_3bd07e1a1191394380780325891bf33f>@@V<lambda_334532d3f185bcaa59b5be82d7d22bff>@@@?$__crt_seh_guarded_call@X@@QEAAX$$QEAV<lambda_46352004c1216016012b18bd6f87e700>@@AEAV<lambda_3bd07e1a1191394380780325891bf33f>@@$$QEAV<lambda_334532d3f185bcaa59b5be82d7d22bff>@@@Z 0000000180030aa4     libucrt:per_thread_data.obj
 0002:0000cac8       $unwind$??$?RV<lambda_fb3a7dec4e47f37f22dae91bb15c9095>@@AEAV<lambda_698284760c8add0bfb0756c19673e34b>@@V<lambda_dfb8eca1e75fef3034a8fb18dd509707>@@@?$__crt_seh_guarded_call@X@@QEAAX$$QEAV<lambda_fb3a7dec4e47f37f22dae91bb15c9095>@@AEAV<lambda_698284760c8add0bfb0756c19673e34b>@@$$QEAV<lambda_dfb8eca1e75fef3034a8fb18dd509707>@@@Z 0000000180030ac8     libucrt:per_thread_data.obj
 0002:0000caec       $unwind$_tolower_l         0000000180030aec     libucrt:tolower_toupper.obj
 0002:0000cafc       $unwind$wcstol             0000000180030afc     libucrt:strtox.obj
 0002:0000cb04       $unwind$wcsnlen            0000000180030b04     libucrt:strnlen.obj
 0002:0000cb0c       $unwind$__acrt_fp_format   0000000180030b0c     libucrt:cvt.obj
 0002:0000cb28       $unwind$?fp_format_nan_or_infinity@@YAHW4__acrt_fp_class@@_NPEAD_K1@Z 0000000180030b28     libucrt:cvt.obj
 0002:0000cb3c       $unwind$?fp_format_e_internal@@YAHQEAD_KH_NIQEAU_strflt@@2QEAU__crt_locale_pointers@@@Z 0000000180030b3c     libucrt:cvt.obj
 0002:0000cb54       $unwind$?fp_format_a@@YAHQEBNPEAD_KQEAD2H_NIQEAU__crt_locale_pointers@@@Z 0000000180030b54     libucrt:cvt.obj
 0002:0000cb70       $unwind$?fp_format_g@@YAHQEBNQEAD_K12H_NIQEAU__crt_locale_pointers@@@Z 0000000180030b70     libucrt:cvt.obj
 0002:0000cb84       $unwind$__acrt_uninitialize_locale 0000000180030b84     libucrt:wsetlocale.obj
 0002:0000cba4       $unwind$__acrt_initialize_lowio 0000000180030ba4     libucrt:ioinit.obj
 0002:0000cbc4       $unwind$??$common_expand_argv_wildcards@D@@YAHQEAPEADQEAPEAPEAD@Z 0000000180030bc4     libucrt:argv_wildcards.obj
 0002:0000cbdc       $unwind$??$copy_and_add_argument_to_buffer@D@@YAHQEBD0_KAEAV?$argument_list@D@?A0xca0879c4@@@Z 0000000180030bdc     libucrt:argv_wildcards.obj
 0002:0000cbf8       $unwind$??$expand_argument_wildcards@D@@YAHQEAD0AEAV?$argument_list@D@?A0xca0879c4@@@Z 0000000180030bf8     libucrt:argv_wildcards.obj
 0002:0000cc18       $unwind$__acrt_update_thread_multibyte_data 0000000180030c18     libucrt:mbctype.obj
 0002:0000cc3c       $unwind$_setmbcp_nolock    0000000180030c3c     libucrt:mbctype.obj
 0002:0000cc5c       $unwind$?setSBUpLow@@YAXPEAU__crt_multibyte_data@@@Z 0000000180030c5c     libucrt:mbctype.obj
 0002:0000cc78       $unwind$?setmbcp_internal@@YAHH_N@Z 0000000180030c78     libucrt:mbctype.obj
 0002:0000cc88       $unwind$??$?RV<lambda_99476a1ad63dd22509b5d3e65b0ffc95>@@AEAV<lambda_ad1ced32f4ac17aa236e5ef05d6b3b7c>@@V<lambda_f7424dd8d45958661754dc4f2697e9c3>@@@?$__crt_seh_guarded_call@X@@QEAAX$$QEAV<lambda_99476a1ad63dd22509b5d3e65b0ffc95>@@AEAV<lambda_ad1ced32f4ac17aa236e5ef05d6b3b7c>@@$$QEAV<lambda_f7424dd8d45958661754dc4f2697e9c3>@@@Z 0000000180030c88     libucrt:mbctype.obj
 0002:0000ccac       $unwind$__acrt_get_sigabrt_handler 0000000180030cac     libucrt:signal.obj
 0002:0000ccb4       $unwind$raise              0000000180030cb4     libucrt:signal.obj
 0002:0000cce0       $unwind$??$?RV<lambda_c36588078e9f5dfd39652860aa6b3aaf>@@AEAV<lambda_ec61778202f4f5fc7e7711acc23c3bca>@@V<lambda_dc9d2797ccde5d239b4a0efae8ebd7db>@@@?$__crt_seh_guarded_call@P6AXH@Z@@QEAAP6AXH@Z$$QEAV<lambda_c36588078e9f5dfd39652860aa6b3aaf>@@AEAV<lambda_ec61778202f4f5fc7e7711acc23c3bca>@@$$QEAV<lambda_dc9d2797ccde5d239b4a0efae8ebd7db>@@@Z 0000000180030ce0     libucrt:signal.obj
 0002:0000cd04       $unwind$_isctype_l         0000000180030d04     libucrt:isctype.obj
 0002:0000cd20       $unwind$__acrt_update_thread_locale_data 0000000180030d20     libucrt:locale_refcounting.obj
 0002:0000cd44       $unwind$?GetTableIndexFromLocaleName@@YAHPEB_W@Z 0000000180030d44     libucrt:lcidtoname_downlevel.obj
 0002:0000cd5c       $unwind$__acrt_LCMapStringA 0000000180030d5c     libucrt:lcmapstringa.obj
 0002:0000cd6c       $unwind$?__acrt_LCMapStringA_stat@@YAHPEAU__crt_locale_pointers@@PEB_WKPEBDHPEADHHH@Z 0000000180030d6c     libucrt:lcmapstringa.obj
 0002:0000cd94       $unwind$__acrt_fltout      0000000180030d94     libucrt:cfout.obj
 0002:0000cdb4       $unwind$?divide@__crt_strtox@@YA_KAEAUbig_integer@1@AEBU21@@Z 0000000180030db4     libucrt:cfout.obj
 0002:0000cdd4       $chain$5$?divide@__crt_strtox@@YA_KAEAUbig_integer@1@AEBU21@@Z 0000000180030dd4     libucrt:cfout.obj
 0002:0000cde8       $chain$6$?divide@__crt_strtox@@YA_KAEAUbig_integer@1@AEBU21@@Z 0000000180030de8     libucrt:cfout.obj
 0002:0000cdf8       $unwind$_fcloseall         0000000180030df8     libucrt:closeall.obj
 0002:0000ce1c       $unwind$common_flush_all   0000000180030e1c     libucrt:fflush.obj
 0002:0000ce58       $unwind$__acrt_locale_free_monetary 0000000180030e58     libucrt:initmon.obj
 0002:0000ce60       $unwind$__acrt_locale_free_time 0000000180030e60     libucrt:inittime.obj
 0002:0000ce70       $unwind$__acrt_GetStringTypeA 0000000180030e70     libucrt:getstringtypea.obj
 0002:0000ce98       $unwind$__acrt_lowio_destroy_handle_array 0000000180030e98     libucrt:osfinfo.obj
 0002:0000cea8       $unwind$__acrt_lowio_ensure_fh_exists 0000000180030ea8     libucrt:osfinfo.obj
 0002:0000ced4       $unwind$qsort              0000000180030ed4     libucrt:qsort.obj
 0002:0000ceec       $chain$4$qsort             0000000180030eec     libucrt:qsort.obj
 0002:0000cf10       $chain$5$qsort             0000000180030f10     libucrt:qsort.obj
 0002:0000cf20       $unwind$?shortsort@@YAXPEAD0_KP6AHPEBX2@Z@Z 0000000180030f20     libucrt:qsort.obj
 0002:0000cf30       $chain$2$?shortsort@@YAXPEAD0_KP6AHPEBX2@Z@Z 0000000180030f30     libucrt:qsort.obj
 0002:0000cf4c       $chain$3$?shortsort@@YAXPEAD0_KP6AHPEBX2@Z@Z 0000000180030f4c     libucrt:qsort.obj
 0002:0000cf5c       $unwind$strpbrk            0000000180030f5c     libucrt:strpbrk.obj
 0002:0000cf70       $xdatasym                  0000000180030f70     libucrt:log10.obj
 0002:0000cf7c       $unwind$_write             0000000180030f7c     libucrt:write.obj
 0002:0000cfac       $unwind$_write_nolock      0000000180030fac     libucrt:write.obj
 0002:0000cfc4       $unwind$?write_double_translated_ansi_nolock@@YA?AUwrite_result@?A0x9c548279@@HQEBDI@Z 0000000180030fc4     libucrt:write.obj
 0002:0000cfe4       $unwind$?write_text_ansi_nolock@@YA?AUwrite_result@?A0x9c548279@@HQEBDI@Z 0000000180030fe4     libucrt:write.obj
 0002:0000cfe4       $unwind$?write_text_utf16le_nolock@@YA?AUwrite_result@?A0x9c548279@@HQEBDI@Z 0000000180030fe4     libucrt:write.obj
 0002:0000d004       $unwind$?write_text_utf8_nolock@@YA?AUwrite_result@?A0x9c548279@@HQEBDI@Z 0000000180031004     libucrt:write.obj
 0002:0000d028       $unwind$fclose             0000000180031028     libucrt:fclose.obj
 0002:0000d04c       $unwind$_close             000000018003104c     libucrt:close.obj
 0002:0000d04c       $unwind$_commit            000000018003104c     libucrt:commit.obj
 0002:0000d054       $unwind$??$?RV<lambda_b521505b218e5242e90febf6bfebc422>@@AEAV<lambda_6978c1fb23f02e42e1d9e99668cc68aa>@@V<lambda_314360699dd331753a4119843814e9a7>@@@?$__crt_seh_guarded_call@H@@QEAAH$$QEAV<lambda_b521505b218e5242e90febf6bfebc422>@@AEAV<lambda_6978c1fb23f02e42e1d9e99668cc68aa>@@$$QEAV<lambda_314360699dd331753a4119843814e9a7>@@@Z 0000000180031054     libucrt:commit.obj
 0002:0000d078       $unwind$common_control87   0000000180031078     libucrt:ieee.obj
 0002:0000d0a8       $unwind$_call_matherr      00000001800310a8     libucrt:libm_error.obj
 0002:0000d0b0       $unwind$_handle_error      00000001800310b0     libucrt:libm_error.obj
 0002:0000d0d0       $unwind$__acrt_initialize_fma3 00000001800310d0     libucrt:fma3_available.obj
 0002:0000d0d8       $unwind$_log_special_common 00000001800310d8     libucrt:log_special.obj
 0002:0000d0e4       $unwind$??$?RV<lambda_bfedae4ebbf01fab1bb6dcc6a9e276e0>@@AEAV<lambda_2fe9b910cf3cbf4a0ab98a02ba45b3ec>@@V<lambda_237c231691f317818eb88cc1d5d642d6>@@@?$__crt_seh_guarded_call@H@@QEAAH$$QEAV<lambda_bfedae4ebbf01fab1bb6dcc6a9e276e0>@@AEAV<lambda_2fe9b910cf3cbf4a0ab98a02ba45b3ec>@@$$QEAV<lambda_237c231691f317818eb88cc1d5d642d6>@@@Z 00000001800310e4     libucrt:close.obj
 0002:0000d108       $xdatasym                  0000000180031108     libucrt:fpsr.obj
 0002:0000d110       $unwind$_raise_exc_ex      0000000180031110     libucrt:fpexcept.obj
 0002:0000d124       $unwind$_ctrlfp            0000000180031124     libucrt:fpctrl.obj
 0002:0000d14c       $unwind$_IsNonwritableInCurrentImage 000000018003114c     LIBCMT:pesect.obj
 0002:0000d170       $unwind$strrchr            0000000180031170     libvcruntime:strrchr.obj
 0002:0000d2e0       .edata                     00000001800312e0     OPOSElectronicValueRW.exp
 0002:0000d308       rgpv                       0000000180031308     OPOSElectronicValueRW.exp
 0002:0000d318       rgszName                   0000000180031318     OPOSElectronicValueRW.exp
 0002:0000d328       rgwOrd                     0000000180031328     OPOSElectronicValueRW.exp
 0002:0000d330       szName                     0000000180031330     OPOSElectronicValueRW.exp
 0002:0000d34a       $N00001                    000000018003134a     OPOSElectronicValueRW.exp
 0002:0000d35a       $N00002                    000000018003135a     OPOSElectronicValueRW.exp
 0002:0000d36c       $N00003                    000000018003136c     OPOSElectronicValueRW.exp
 0002:0000d37e       $N00004                    000000018003137e     OPOSElectronicValueRW.exp
 0002:0000dcb2       .idata$6                   0000000180031cb2     kernel32:KERNEL32.dll
 0002:0000deca       .idata$6                   0000000180031eca     user32:USER32.dll
 0002:0000dffe       .idata$6                   0000000180031ffe     gdi32:GDI32.dll
 0002:0000e0a4       .idata$6                   00000001800320a4     advapi32:ADVAPI32.dll
 0002:0000e1c0       .idata$6                   00000001800321c0     ole32:ole32.dll
 0002:0000e1ca       .idata$6                   00000001800321ca     oleaut32:OLEAUT32.dll
 0003:000001c0       ?ObjectMap@@3PAU_ATL_OBJMAP_ENTRY30@ATL@@A 00000001800331c0     ElectronicValueRW.obj
 0003:000002d0       ?s_SOMethodNames@@3PAPEADA 00000001800332d0     ElectronicValueRWImpl.obj
 0003:000004e8       ?s_RequiredMethodsPerRelease@@3PAHA 00000001800334e8     ElectronicValueRWImpl.obj
 0003:00000530       ?__vcrt_flsindex@@3KA      0000000180033530     libvcruntime:per_thread_data.obj
 0003:00000540       errno_no_memory            0000000180033540     libucrt:errno.obj
 0003:00000544       doserrno_no_memory         0000000180033544     libucrt:errno.obj
 0003:00000550       __acrt_flsindex            0000000180033550     libucrt:per_thread_data.obj
 0003:00000a10       __rgctypeflag              0000000180033a10     libucrt:mbctype.obj
 0003:00000a20       __rgcode_page_info         0000000180033a20     libucrt:mbctype.obj
 0003:00000dd0       ?dazSupported@?1??common_control87@@9@9 0000000180033dd0     libucrt:ieee.obj
 0003:00000de0       ?dazSupported@?1??_ctrlfp@@9@9 0000000180033de0     libucrt:fpctrl.obj
 0003:00001040       ?is_initialized_as_dll@@3_NA 0000000180034040     LIBCMT:utility.obj
 0003:00001041       ?module_local_atexit_table_initialized@@3_NA 0000000180034041     LIBCMT:utility.obj
 0003:00001048       ?module_local_atexit_table@@3U_onexit_table_t@@A 0000000180034048     LIBCMT:utility.obj
 0003:00001060       ?module_local_at_quick_exit_table@@3U_onexit_table_t@@A 0000000180034060     LIBCMT:utility.obj
 0003:00001078       ?_Tss_mutex@@3U_RTL_CRITICAL_SECTION@@A 0000000180034078     LIBCMT:thread_safe_statics.obj
 0003:000010a0       ?_Tss_cv@@3U_RTL_CONDITION_VARIABLE@@A 00000001800340a0     LIBCMT:thread_safe_statics.obj
 0003:000010a8       ?_Tss_event@@3PEAXEA       00000001800340a8     LIBCMT:thread_safe_statics.obj
 0003:000010b0       ?encoded_sleep_condition_variable_cs@@3P6AHPEAU_RTL_CONDITION_VARIABLE@@PEAU_RTL_CRITICAL_SECTION@@K@ZEA 00000001800340b0     LIBCMT:thread_safe_statics.obj
 0003:000010b8       ?encoded_wake_all_condition_variable@@3P6AXPEAU_RTL_CONDITION_VARIABLE@@@ZEA 00000001800340b8     LIBCMT:thread_safe_statics.obj
 0003:000010c0       GS_ExceptionRecord         00000001800340c0     LIBCMT:gs_report.obj
 0003:00001160       GS_ContextRecord           0000000180034160     LIBCMT:gs_report.obj
 0003:00001634       ?__proc_attached@@3HA      0000000180034634     LIBCMT:dll_dllmain.obj
 0003:000016c8       ?AllocateData@@3P6APEAUAtlThunkData_t@@XZEA 00000001800346c8     atls:atlthunk.obj
 0003:000016d0       ?InitData@@3P6AXPEAUAtlThunkData_t@@PEAX_K@ZEA 00000001800346d0     atls:atlthunk.obj
 0003:000016d8       ?DataToCode@@3P6AP6A_JPEAUHWND__@@I_K_J@ZPEAUAtlThunkData_t@@@ZEA 00000001800346d8     atls:atlthunk.obj
 0003:000016e0       ?FreeData@@3P6AXPEAUAtlThunkData_t@@@ZEA 00000001800346e0     atls:atlthunk.obj
 0003:000016e8       ?Initialized@@3_NA         00000001800346e8     atls:atlthunk.obj
 0003:00001700       ?__vcrt_startup_thread_ptd@@3U__vcrt_ptd@@A 0000000180034700     libvcruntime:per_thread_data.obj
 0003:00001790       __vcrt_lock_table          0000000180034790     libvcruntime:locks.obj
 0003:000017b8       __vcrt_locks_initialized   00000001800347b8     libvcruntime:locks.obj
 0003:000017c0       ?module_handles@@3PAPEAUHINSTANCE__@@A 00000001800347c0     libvcruntime:winapi_downlevel.obj
 0003:000017d8       ?encoded_function_pointers@@3PAPEAXA 00000001800347d8     libvcruntime:winapi_downlevel.obj
 0003:00001840       ?heap@@3V_HeapManager@@A   0000000180034840     libvcruntime:undname.obj
 0003:00001868       __acrt_invalid_parameter_handler 0000000180034868     libucrt:invalid_parameter.obj
 0003:00001870       c_termination_complete     0000000180034870     libucrt:exit.obj
 0003:00001878       thread_local_exit_callback_func 0000000180034878     libucrt:exit.obj
 0003:00001880       ?c_exit_complete@?5??common_exit@@YAXHW4_crt_exit_cleanup_mode@@W4_crt_exit_return_mode@@@Z@4_NA 0000000180034880     libucrt:exit.obj
 0003:00001890       ?program_name@?5???$common_configure_argv@D@@YAHW4_crt_argv_mode@@@Z@4PADA 0000000180034890     libucrt:argv_parsing.obj
 0003:000019e8       __acrt_new_handler         00000001800349e8     libucrt:new_handler.obj
 0003:000019f0       module_handles             00000001800349f0     libucrt:winapi_thunks.obj
 0003:00001a90       encoded_function_pointers  0000000180034a90     libucrt:winapi_thunks.obj
 0003:00001b90       ?state_cache@?1??__acrt_is_packaged_app@@9@4JA 0000000180034b90     libucrt:winapi_thunks.obj
 0003:00001ba8       enable_percent_n           0000000180034ba8     libucrt:printf_count_output.obj
 0003:00001fe0       __acrt_lock_table          0000000180034fe0     libucrt:locks.obj
 0003:000021e8       __acrt_locks_initialized   00000001800351e8     libucrt:locks.obj
 0003:00002204       fSystemSet                 0000000180035204     libucrt:mbctype.obj
 0003:00002210       ?initialized@?1??__acrt_initialize_multibyte@@9@4_NA 0000000180035210     libucrt:mbctype.obj
 0003:00002248       ctrlc_action               0000000180035248     libucrt:signal.obj
 0003:00002250       ctrlbreak_action           0000000180035250     libucrt:signal.obj
 0003:00002258       abort_action               0000000180035258     libucrt:signal.obj
 0003:00002260       term_action                0000000180035260     libucrt:signal.obj
 0003:00002268       user_matherr               0000000180035268     libucrt:matherr.obj
 0003:00002270       __acrt_global_new_mode     0000000180035270     libucrt:new_mode.obj
 0003:0000227c       __acrt_app_type            000000018003527c     libucrt:report_runtime_error.obj
 0004:00000000       $pdata$?cw_memcpy@@YAHPEA_WPEBDH@Z 0000000180036000     CWString.obj
 0004:0000000c       $pdata$?cw_strcpy@@YAHPEA_WPEBD@Z 000000018003600c     CWString.obj
 0004:00000018       $pdata$?cw_dup@@YAXPEBDAEAHAEAPEA_W1@Z 0000000180036018     CWString.obj
 0004:00000024       $pdata$?DupWide@_CW@@AEAAXXZ 0000000180036024     CWString.obj
 0004:00000030       $pdata$?AtlWinModuleTerm@ATL@@YAJPEAU_ATL_WIN_MODULE70@1@PEAUHINSTANCE__@@@Z 0000000180036030     OposVariant.obj
 0004:0000003c       $pdata$??0CAtlComModule@ATL@@QEAA@XZ 000000018003603c     OposVariant.obj
 0004:00000048       $pdata$?Term@CAtlComModule@ATL@@QEAAXXZ 0000000180036048     OposVariant.obj
 0004:00000054       $pdata$??__E_AtlComModule@ATL@@YAXXZ 0000000180036054     OposVariant.obj
 0004:00000060       $pdata$??0CAtlWinModule@ATL@@QEAA@XZ 0000000180036060     OposVariant.obj
 0004:0000006c       $pdata$??__E_AtlWinModule@ATL@@YAXXZ 000000018003606c     OposVariant.obj
 0004:00000078       $pdata$??__F_AtlWinModule@ATL@@YAXXZ 0000000180036078     OposVariant.obj
 0004:00000084       $pdata$??_Estringdispid@CComTypeInfoHolder@ATL@@QEAAPEAXI@Z 0000000180036084     OposVariant.obj
 0004:00000090       $pdata$?SetVARIANT_BOOL@OposVariant@@QEAAXF@Z 0000000180036090     OposVariant.obj
 0004:0000009c       $pdata$?GetLONG@OposVariant@@QEAAJXZ 000000018003609c     OposVariant.obj
 0004:000000a8       $pdata$?ChangeLONG@OposVariant@@QEAAXPEAJAEAJ@Z 00000001800360a8     OposVariant.obj
 0004:000000b4       $pdata$?SetLONG@OposVariant@@QEAAXJ@Z 00000001800360b4     OposVariant.obj
 0004:000000c0       $pdata$?SetLONG_Ptr@OposVariant@@QEAAXPEAJAEAJ@Z 00000001800360c0     OposVariant.obj
 0004:000000cc       $pdata$?ChangeCURRENCY@OposVariant@@QEAAXPEATtagCY@@AEAJ@Z 00000001800360cc     OposVariant.obj
 0004:000000d8       $pdata$?SetCURRENCY@OposVariant@@QEAAXTtagCY@@@Z 00000001800360d8     OposVariant.obj
 0004:000000e4       $pdata$?ChangeBSTR@OposVariant@@QEAAXPEAPEA_WAEAJ@Z 00000001800360e4     OposVariant.obj
 0004:000000f0       $pdata$?SetBSTR@OposVariant@@QEAAXPEA_WAEAJ@Z 00000001800360f0     OposVariant.obj
 0004:000000fc       $pdata$?SetBSTR_Copy@OposVariant@@QEAAXPEA_WAEAJ@Z 00000001800360fc     OposVariant.obj
 0004:00000108       $pdata$?SetBSTR_InOutPtr@OposVariant@@QEAA_NPEAPEA_WAEAJ@Z 0000000180036108     OposVariant.obj
 0004:00000114       $pdata$?SetString@OposVariant@@QEAAXPEB_WAEAJ@Z 0000000180036114     OposVariant.obj
 0004:00000120       $pdata$?SetDispatch_Ptr@OposVariant@@QEAAXPEAUIDispatch@@AEAJ@Z 0000000180036120     OposVariant.obj
 0004:0000012c       $pdata$??0OposDispParms@@QEAA@PEAVOposVariant@@H@Z 000000018003612c     OposVariant.obj
 0004:00000138       $pdata$??1OposDispParms@@QEAA@XZ 0000000180036138     OposVariant.obj
 0004:00000144       $pdata$memcpy_s            0000000180036144     ElectronicValueRW.obj
 0004:00000150       $pdata$?AtlThrowImpl@ATL@@YAXJ@Z 0000000180036150     ElectronicValueRW.obj
 0004:0000015c       $pdata$swprintf_s          000000018003615c     ElectronicValueRW.obj
 0004:00000168       $pdata$?_AtlVerifyStackAvailable@_ATL_SAFE_ALLOCA_IMPL@ATL@@YA_N_K@Z 0000000180036168     ElectronicValueRW.obj
 0004:00000174       $pdata$?filt$0@?0??_AtlVerifyStackAvailable@_ATL_SAFE_ALLOCA_IMPL@ATL@@YA_N_K@Z@4HA 0000000180036174     ElectronicValueRW.obj
 0004:00000180       $pdata$?AtlHresultFromLastError@ATL@@YAJXZ 0000000180036180     ElectronicValueRW.obj
 0004:0000018c       $pdata$?AtlInternalOleLoadFromStream@ATL@@YAJPEAUIStream@@AEBU_GUID@@PEAPEAXTClassesAllowedInStream@1@K@Z 000000018003618c     ElectronicValueRW.obj
 0004:00000198       $pdata$?PutProperty@?$CComPtr@UIDispatch@@@ATL@@SAJPEAUIDispatch@@JPEAUtagVARIANT@@@Z 0000000180036198     ElectronicValueRW.obj
 0004:000001a4       $pdata$?WriteToStream@CComBSTR@ATL@@QEAAJPEAUIStream@@@Z 00000001800361a4     ElectronicValueRW.obj
 0004:000001b0       $pdata$?ReadFromStream@CComBSTR@ATL@@QEAAJPEAUIStream@@@Z 00000001800361b0     ElectronicValueRW.obj
 0004:000001bc       $pdata$?WriteToStream@CComVariant@ATL@@QEAAJPEAUIStream@@@Z 00000001800361bc     ElectronicValueRW.obj
 0004:000001c8       $pdata$?WriteToStream@CComVariant@ATL@@QEAAJPEAUIStream@@G@Z 00000001800361c8     ElectronicValueRW.obj
 0004:000001d4       $pdata$?ReadFromStream@CComVariant@ATL@@QEAAJPEAUIStream@@GTClassesAllowedInStream@2@K@Z 00000001800361d4     ElectronicValueRW.obj
 0004:000001e0       $pdata$?GetSizeMax@CComVariant@ATL@@QEBAJPEAT_ULARGE_INTEGER@@@Z 00000001800361e0     ElectronicValueRW.obj
 0004:000001ec       $pdata$?RegCreateKeyExW@CAtlTransactionManager@ATL@@QEAAJPEAUHKEY__@@PEB_WKPEA_WKKQEAU_SECURITY_ATTRIBUTES@@PEAPEAU3@PEAK@Z 00000001800361ec     ElectronicValueRW.obj
 0004:000001f8       $pdata$?RegOpenKeyExW@CAtlTransactionManager@ATL@@QEAAJPEAUHKEY__@@PEB_WKKPEAPEAU3@@Z 00000001800361f8     ElectronicValueRW.obj
 0004:00000204       $pdata$?RegDeleteKeyW@CAtlTransactionManager@ATL@@QEAAJPEAUHKEY__@@PEB_W@Z 0000000180036204     ElectronicValueRW.obj
 0004:00000210       $pdata$?Add@?$CSimpleArray@GV?$CSimpleArrayEqualHelper@G@ATL@@@ATL@@QEAAHAEBG@Z 0000000180036210     ElectronicValueRW.obj
 0004:0000021c       $pdata$?AtlInternalQueryInterface@ATL@@YAJPEAXPEBU_ATL_INTMAP_ENTRY@1@AEBU_GUID@@PEAPEAX@Z 000000018003621c     ElectronicValueRW.obj
 0004:00000228       $pdata$?AtlComModuleGetClassObject@ATL@@YAJPEAU_ATL_COM_MODULE70@1@AEBU_GUID@@1PEAPEAX@Z 0000000180036228     ElectronicValueRW.obj
 0004:00000234       $pdata$?AtlRegisterClassCategoriesHelper@ATL@@YAJAEBU_GUID@@PEBU_ATL_CATMAP_ENTRY@1@H@Z 0000000180036234     ElectronicValueRW.obj
 0004:00000240       $pdata$?AtlLoadTypeLib@ATL@@YAJPEAUHINSTANCE__@@PEB_WPEAPEA_WPEAPEAUITypeLib@@@Z 0000000180036240     ElectronicValueRW.obj
 0004:0000024c       $pdata$?AtlRegisterTypeLib@ATL@@YAJPEAUHINSTANCE__@@PEB_W@Z 000000018003624c     ElectronicValueRW.obj
 0004:00000258       $pdata$?AtlUnRegisterTypeLib@ATL@@YAJPEAUHINSTANCE__@@PEB_W@Z 0000000180036258     ElectronicValueRW.obj
 0004:00000264       $pdata$?AtlComModuleRegisterServer@ATL@@YAJPEAU_ATL_COM_MODULE70@1@HPEBU_GUID@@@Z 0000000180036264     ElectronicValueRW.obj
 0004:00000270       $pdata$?AtlComModuleUnregisterServer@ATL@@YAJPEAU_ATL_COM_MODULE70@1@HPEBU_GUID@@@Z 0000000180036270     ElectronicValueRW.obj
 0004:0000027c       $pdata$?AtlModuleAddTermFunc@ATL@@YAJPEAU_ATL_MODULE70@1@P6AX_K@Z1@Z 000000018003627c     ElectronicValueRW.obj
 0004:00000288       $pdata$?AtlCallTermFunc@ATL@@YAXPEAU_ATL_MODULE70@1@@Z 0000000180036288     ElectronicValueRW.obj
 0004:00000294       $pdata$?AtlWinModuleExtractCreateWndData@ATL@@YAPEAXPEAU_ATL_WIN_MODULE70@1@@Z 0000000180036294     ElectronicValueRW.obj
 0004:000002a0       $pdata$?atlCreate@CRegKey@ATL@@QEAAJPEAUHKEY__@@PEB_WPEA_WKKPEAU_SECURITY_ATTRIBUTES@@PEAK@Z 00000001800362a0     ElectronicValueRW.obj
 0004:000002ac       $pdata$?Open@CRegKey@ATL@@QEAAJPEAUHKEY__@@PEB_WK@Z 00000001800362ac     ElectronicValueRW.obj
 0004:000002b8       $pdata$?DeleteSubKey@CRegKey@ATL@@QEAAJPEB_W@Z 00000001800362b8     ElectronicValueRW.obj
 0004:000002c4       $pdata$?RecurseDeleteKey@CRegKey@ATL@@QEAAJPEB_W@Z 00000001800362c4     ElectronicValueRW.obj
 0004:000002d0       $pdata$??0CAtlModule@ATL@@QEAA@XZ 00000001800362d0     ElectronicValueRW.obj
 0004:000002dc       $pdata$?GetGITPtr@CAtlModule@ATL@@UEAAJPEAPEAUIGlobalInterfaceTable@@@Z 00000001800362dc     ElectronicValueRW.obj
 0004:000002e8       $pdata$?UpdateRegistryFromResource@CAtlModule@ATL@@QEAAJPEB_WHPEAU_ATL_REGMAP_ENTRY@2@@Z 00000001800362e8     ElectronicValueRW.obj
 0004:000002f4       $pdata$?UpdateRegistryFromResource@CAtlModule@ATL@@QEAAJIHPEAU_ATL_REGMAP_ENTRY@2@@Z 00000001800362f4     ElectronicValueRW.obj
 0004:00000300       $pdata$?Term@CComModule@ATL@@QEAAXXZ 0000000180036300     ElectronicValueRW.obj
 0004:0000030c       $pdata$?GetClassObject@CComModule@ATL@@QEAAJAEBU_GUID@@0PEAPEAX@Z 000000018003630c     ElectronicValueRW.obj
 0004:00000318       $pdata$?RegisterServer@CComModule@ATL@@QEAAJHPEBU_GUID@@@Z 0000000180036318     ElectronicValueRW.obj
 0004:00000324       $pdata$?UnregisterServer@CComModule@ATL@@QEAAJHPEBU_GUID@@@Z 0000000180036324     ElectronicValueRW.obj
 0004:00000330       $pdata$??_GCComModule@ATL@@UEAAPEAXI@Z 0000000180036330     ElectronicValueRW.obj
 0004:0000033c       $pdata$?Add@?$CSimpleMap@PEA_WPEA_WVCExpansionVectorEqualHelper@ATL@@@ATL@@QEAAHAEBQEA_W0@Z 000000018003633c     ElectronicValueRW.obj
 0004:00000348       $pdata$?Lookup@?$CSimpleMap@PEA_WPEA_WVCExpansionVectorEqualHelper@ATL@@@ATL@@QEBAPEA_WAEBQEA_W@Z 0000000180036348     ElectronicValueRW.obj
 0004:00000354       $pdata$?Add@CExpansionVector@ATL@@QEAAHPEB_W0@Z 0000000180036354     ElectronicValueRW.obj
 0004:00000360       $pdata$?ClearReplacements@CExpansionVector@ATL@@QEAAJXZ 0000000180036360     ElectronicValueRW.obj
 0004:0000036c       $pdata$?PreProcessBuffer@CRegParser@ATL@@QEAAJPEA_WPEAPEA_W@Z 000000018003636c     ElectronicValueRW.obj
 0004:00000378       $pdata$?RegisterBuffer@CRegParser@ATL@@QEAAJPEA_WH@Z 0000000180036378     ElectronicValueRW.obj
 0004:00000384       $pdata$?NextToken@CRegParser@ATL@@IEAAJPEA_W@Z 0000000180036384     ElectronicValueRW.obj
 0004:00000390       $pdata$?AddValue@CRegParser@ATL@@IEAAJAEAVCRegKey@2@PEB_WPEA_W@Z 0000000180036390     ElectronicValueRW.obj
 0004:0000039c       $pdata$?RegisterSubkeys@CRegParser@ATL@@IEAAJPEA_WPEAUHKEY__@@HH@Z 000000018003639c     ElectronicValueRW.obj
 0004:000003a8       $pdata$?SkipAssignment@CRegParser@ATL@@IEAAJPEA_W@Z 00000001800363a8     ElectronicValueRW.obj
 0004:000003b4       $pdata$?HKeyFromString@CRegParser@ATL@@KAPEAUHKEY__@@PEA_W@Z 00000001800363b4     ElectronicValueRW.obj
 0004:000003c0       $pdata$?VTFromRegType@CRegParser@ATL@@KAHPEB_WAEAG@Z 00000001800363c0     ElectronicValueRW.obj
 0004:000003cc       $pdata$?Append@CParseBuffer@CRegParser@ATL@@QEAAHPEB_WH@Z 00000001800363cc     ElectronicValueRW.obj
 0004:000003d8       $pdata$?AddReplacement@CRegObject@ATL@@UEAAJPEB_W0@Z 00000001800363d8     ElectronicValueRW.obj
 0004:000003e4       $pdata$?RegisterFromResource@CRegObject@ATL@@IEAAJPEB_W00H@Z 00000001800363e4     ElectronicValueRW.obj
 0004:000003f0       $pdata$??_GCRegObject@ATL@@UEAAPEAXI@Z 00000001800363f0     ElectronicValueRW.obj
 0004:000003fc       $pdata$?AllocateHeap@?$CTempBuffer@_W$0EAA@VCCRTAllocator@ATL@@@ATL@@AEAAX_K@Z 00000001800363fc     ElectronicValueRW.obj
 0004:000003fc       $pdata$?AllocateHeap@?$CTempBuffer@_W$0BAA@VCCRTAllocator@ATL@@@ATL@@AEAAX_K@Z 00000001800363fc     ElectronicValueRW.obj
 0004:000003fc       $pdata$?AllocateHeap@?$CTempBuffer@E$0BAA@VCCRTAllocator@ATL@@@ATL@@AEAAX_K@Z 00000001800363fc     ElectronicValueRW.obj
 0004:00000408       $pdata$?IsEqualObject@?$CComPtrBase@UIOleClientSite@@@ATL@@QEAA_NPEAUIUnknown@@@Z 0000000180036408     ElectronicValueRW.obj
 0004:00000408       $pdata$?IsEqualObject@?$CComPtrBase@UITypeInfo@@@ATL@@QEAA_NPEAUIUnknown@@@Z 0000000180036408     ElectronicValueRW.obj
 0004:00000414       $pdata$?AtlIPersistStreamInit_Load@ATL@@YAJPEAUIStream@@PEBUATL_PROPMAP_ENTRY@1@PEAXPEAUIUnknown@@@Z 0000000180036414     ElectronicValueRW.obj
 0004:00000420       $pdata$?AtlIPersistStreamInit_Save@ATL@@YAJPEAUIStream@@HPEBUATL_PROPMAP_ENTRY@1@PEAXPEAUIUnknown@@@Z 0000000180036420     ElectronicValueRW.obj
 0004:0000042c       $pdata$?CreateInstance@CComClassFactory@ATL@@UEAAJPEAUIUnknown@@AEBU_GUID@@PEAPEAX@Z 000000018003642c     ElectronicValueRW.obj
 0004:00000438       $pdata$?LockServer@CComClassFactory@ATL@@UEAAJH@Z 0000000180036438     ElectronicValueRW.obj
 0004:00000444       $pdata$??_GCComClassFactory@ATL@@UEAAPEAXI@Z 0000000180036444     ElectronicValueRW.obj
 0004:00000450       $pdata$?GetTI@CComTypeInfoHolder@ATL@@QEAAJK@Z 0000000180036450     ElectronicValueRW.obj
 0004:0000045c       $pdata$?Cleanup@CComTypeInfoHolder@ATL@@SAX_K@Z 000000018003645c     ElectronicValueRW.obj
 0004:00000468       $pdata$?GetIDsOfNames@CComTypeInfoHolder@ATL@@QEAAJAEBU_GUID@@PEAPEA_WIKPEAJ@Z 0000000180036468     ElectronicValueRW.obj
 0004:00000474       $pdata$?LoadNameCache@CComTypeInfoHolder@ATL@@QEAAJPEAUITypeInfo@@@Z 0000000180036474     ElectronicValueRW.obj
 0004:00000480       $pdata$?Add@CComDynamicUnkArray@ATL@@QEAAKPEAUIUnknown@@@Z 0000000180036480     ElectronicValueRW.obj
 0004:0000048c       $pdata$?AtlCreateTargetDC@ATL@@YAPEAUHDC__@@PEAU2@PEAUtagDVTARGETDEVICE@@@Z 000000018003648c     ElectronicValueRW.obj
 0004:00000498       $pdata$?AtlHiMetricToPixel@ATL@@YAXPEBUtagSIZE@@PEAU2@@Z 0000000180036498     ElectronicValueRW.obj
 0004:000004a4       $pdata$?DefaultReflectionHandler@?$CWindowImplRoot@VCWindow@ATL@@@ATL@@SAHPEAUHWND__@@I_K_JAEA_J@Z 00000001800364a4     ElectronicValueRW.obj
 0004:000004b0       $pdata$?StartWindowProc@?$CWindowImplBaseT@VCWindow@ATL@@V?$CWinTraits@$0FGAAAAAA@$0A@@2@@ATL@@SA_JPEAUHWND__@@I_K_J@Z 00000001800364b0     ElectronicValueRW.obj
 0004:000004bc       $pdata$?WindowProc@?$CWindowImplBaseT@VCWindow@ATL@@V?$CWinTraits@$0FGAAAAAA@$0A@@2@@ATL@@SA_JPEAUHWND__@@I_K_J@Z 00000001800364bc     ElectronicValueRW.obj
 0004:000004c8       $pdata$?atlCreate@?$CWindowImplBaseT@VCWindow@ATL@@V?$CWinTraits@$0FGAAAAAA@$0A@@2@@ATL@@QEAAPEAUHWND__@@PEAU3@V_U_RECT@2@PEB_WKKV_U_MENUorID@2@GPEAX@Z 00000001800364c8     ElectronicValueRW.obj
 0004:000004d4       $pdata$??$AtlModuleRegisterWndClassInfoT@VAtlModuleRegisterWndClassInfoParamW@ATL@@@ATL@@YAGPEAU_ATL_BASE_MODULE70@0@PEAU_ATL_WIN_MODULE70@0@PEAU_ATL_WNDCLASSINFOW@0@PEAP6A_JPEAUHWND__@@I_K_J@ZVAtlModuleRegisterWndClassInfoParamW@0@@Z 00000001800364d4     ElectronicValueRW.obj
 0004:000004e0       $pdata$?GetZoomInfo@CComControlBase@ATL@@QEAAXAEAUATL_DRAWINFO@@@Z 00000001800364e0     ElectronicValueRW.obj
 0004:000004ec       $pdata$?SendOnDataChange@CComControlBase@ATL@@QEAAJK@Z 00000001800364ec     ElectronicValueRW.obj
 0004:000004f8       $pdata$?OnSetFocus@CComControlBase@ATL@@QEAA_JI_K_JAEAH@Z 00000001800364f8     ElectronicValueRW.obj
 0004:00000504       $pdata$?OnKillFocus@CComControlBase@ATL@@QEAA_JI_K_JAEAH@Z 0000000180036504     ElectronicValueRW.obj
 0004:00000510       $pdata$?OnMouseActivate@CComControlBase@ATL@@QEAA_JI_K_JAEAH@Z 0000000180036510     ElectronicValueRW.obj
 0004:0000051c       $pdata$?GetAmbientLocaleID@CComControlBase@ATL@@QEAAJAEAK@Z 000000018003651c     ElectronicValueRW.obj
 0004:00000528       $pdata$?GetAmbientUserMode@CComControlBase@ATL@@QEAAJAEAH@Z 0000000180036528     ElectronicValueRW.obj
 0004:00000534       $pdata$?SetControlFocus@CComControlBase@ATL@@QEAAHH@Z 0000000180036534     ElectronicValueRW.obj
 0004:00000540       $pdata$?IQuickActivate_QuickActivate@CComControlBase@ATL@@QEAAJPEAUtagQACONTAINER@@PEAUtagQACONTROL@@@Z 0000000180036540     ElectronicValueRW.obj
 0004:0000054c       $pdata$?DoVerbProperties@CComControlBase@ATL@@QEAAJPEBUtagRECT@@PEAUHWND__@@@Z 000000018003654c     ElectronicValueRW.obj
 0004:00000558       $pdata$?InPlaceActivate@CComControlBase@ATL@@QEAAJJPEBUtagRECT@@@Z 0000000180036558     ElectronicValueRW.obj
 0004:00000564       $pdata$?IOleObject_SetClientSite@CComControlBase@ATL@@QEAAJPEAUIOleClientSite@@@Z 0000000180036564     ElectronicValueRW.obj
 0004:00000570       $pdata$?IOleObject_Close@CComControlBase@ATL@@QEAAJK@Z 0000000180036570     ElectronicValueRW.obj
 0004:0000057c       $pdata$?IOleObject_SetExtent@CComControlBase@ATL@@QEAAJKPEAUtagSIZE@@@Z 000000018003657c     ElectronicValueRW.obj
 0004:00000588       $pdata$?IOleInPlaceObject_InPlaceDeactivate@CComControlBase@ATL@@QEAAJXZ 0000000180036588     ElectronicValueRW.obj
 0004:00000594       $pdata$?IOleInPlaceObject_UIDeactivate@CComControlBase@ATL@@QEAAJXZ 0000000180036594     ElectronicValueRW.obj
 0004:000005a0       $pdata$?IOleInPlaceObject_SetObjectRects@CComControlBase@ATL@@QEAAJPEBUtagRECT@@0@Z 00000001800365a0     ElectronicValueRW.obj
 0004:000005ac       $pdata$?IViewObject_Draw@CComControlBase@ATL@@QEAAJKJPEAXPEAUtagDVTARGETDEVICE@@PEAUHDC__@@2PEBU_RECTL@@3@Z 00000001800365ac     ElectronicValueRW.obj
 0004:000005b8       $pdata$?IDataObject_GetData@CComControlBase@ATL@@QEAAJPEAUtagFORMATETC@@PEAUtagSTGMEDIUM@@@Z 00000001800365b8     ElectronicValueRW.obj
 0004:000005c4       $pdata$?FireViewChange@CComControlBase@ATL@@QEAAJXZ 00000001800365c4     ElectronicValueRW.obj
 0004:000005d0       $pdata$?OnPaint@CComControlBase@ATL@@QEAA_JI_K_JAEAH@Z 00000001800365d0     ElectronicValueRW.obj
 0004:000005dc       $pdata$?OnDrawAdvanced@CComControlBase@ATL@@UEAAJAEAUATL_DRAWINFO@@@Z 00000001800365dc     ElectronicValueRW.obj
 0004:000005e8       $pdata$?GetTypeInfo@?$IDispatchImpl@UIOPOSElectronicValueRW@@$1?IID_IOPOSElectronicValueRW@@3U_GUID@@B$1?LIBID_OposElectronicValueRW_CCO@@3U3@B$00$0A@VCComTypeInfoHolder@ATL@@@ATL@@UEAAJIKPEAPEAUITypeInfo@@@Z 00000001800365e8     ElectronicValueRW.obj
 0004:000005f4       $pdata$?Invoke@?$IDispatchImpl@UIOPOSElectronicValueRW@@$1?IID_IOPOSElectronicValueRW@@3U_GUID@@B$1?LIBID_OposElectronicValueRW_CCO@@3U3@B$00$0A@VCComTypeInfoHolder@ATL@@@ATL@@UEAAJJAEBU_GUID@@KGPEAUtagDISPPARAMS@@PEAUtagVARIANT@@PEAUtagEXCEPINFO@@PEAI@Z 00000001800365f4     ElectronicValueRW.obj
 0004:00000600       $pdata$?atlCreate@?$CWindowImpl@VCOPOSElectronicValueRW@@VCWindow@ATL@@V?$CWinTraits@$0FGAAAAAA@$0A@@3@@ATL@@QEAAPEAUHWND__@@PEAU3@V_U_RECT@2@PEB_WKKV_U_MENUorID@2@PEAX@Z 0000000180036600     ElectronicValueRW.obj
 0004:0000060c       $pdata$?CreateControlWindow@?$CComControl@VCOPOSElectronicValueRW@@V?$CWindowImpl@VCOPOSElectronicValueRW@@VCWindow@ATL@@V?$CWinTraits@$0FGAAAAAA@$0A@@3@@ATL@@@ATL@@UEAAPEAUHWND__@@PEAU3@AEAUtagRECT@@@Z 000000018003660c     ElectronicValueRW.obj
 0004:00000618       $pdata$?ProcessWindowMessage@?$CComControl@VCOPOSElectronicValueRW@@V?$CWindowImpl@VCOPOSElectronicValueRW@@VCWindow@ATL@@V?$CWinTraits@$0FGAAAAAA@$0A@@3@@ATL@@@ATL@@UEAAHPEAUHWND__@@I_K_JAEA_JK@Z 0000000180036618     ElectronicValueRW.obj
 0004:00000624       $pdata$?Load@?$IPersistStreamInitImpl@VCOPOSElectronicValueRW@@@ATL@@UEAAJPEAUIStream@@@Z 0000000180036624     ElectronicValueRW.obj
 0004:00000630       $pdata$?Save@?$IPersistStreamInitImpl@VCOPOSElectronicValueRW@@@ATL@@UEAAJPEAUIStream@@H@Z 0000000180036630     ElectronicValueRW.obj
 0004:0000063c       $pdata$?GetSizeMax@?$IPersistStreamInitImpl@VCOPOSElectronicValueRW@@@ATL@@UEAAJPEAT_ULARGE_INTEGER@@@Z 000000018003663c     ElectronicValueRW.obj
 0004:00000648       $pdata$?GetClientSite@?$IOleObjectImpl@VCOPOSElectronicValueRW@@@ATL@@UEAAJPEAPEAUIOleClientSite@@@Z 0000000180036648     ElectronicValueRW.obj
 0004:00000654       $pdata$?DoVerbPrimary@?$IOleObjectImpl@VCOPOSElectronicValueRW@@@ATL@@QEAAJPEBUtagRECT@@PEAUHWND__@@@Z 0000000180036654     ElectronicValueRW.obj
 0004:00000660       $pdata$?DoVerb@?$IOleObjectImpl@VCOPOSElectronicValueRW@@@ATL@@UEAAJJPEAUtagMSG@@PEAUIOleClientSite@@JPEAUHWND__@@PEBUtagRECT@@@Z 0000000180036660     ElectronicValueRW.obj
 0004:0000066c       $pdata$?Advise@?$IOleObjectImpl@VCOPOSElectronicValueRW@@@ATL@@UEAAJPEAUIAdviseSink@@PEAK@Z 000000018003666c     ElectronicValueRW.obj
 0004:00000678       $pdata$?Unadvise@?$IOleObjectImpl@VCOPOSElectronicValueRW@@@ATL@@UEAAJK@Z 0000000180036678     ElectronicValueRW.obj
 0004:00000684       $pdata$?EnumAdvise@?$IOleObjectImpl@VCOPOSElectronicValueRW@@@ATL@@UEAAJPEAPEAUIEnumSTATDATA@@@Z 0000000180036684     ElectronicValueRW.obj
 0004:00000690       $pdata$?TranslateAcceleratorW@?$IOleInPlaceActiveObjectImpl@VCOPOSElectronicValueRW@@@ATL@@UEAAJPEAUtagMSG@@@Z 0000000180036690     ElectronicValueRW.obj
 0004:0000069c       $pdata$?OnDocWindowActivate@?$IOleInPlaceActiveObjectImpl@VCOPOSElectronicValueRW@@@ATL@@UEAAJH@Z 000000018003669c     ElectronicValueRW.obj
 0004:000006a8       $pdata$?Draw@?$IViewObjectExImpl@VCOPOSElectronicValueRW@@@ATL@@UEAAJKJPEAXPEAUtagDVTARGETDEVICE@@PEAUHDC__@@2PEBU_RECTL@@3P6AH_K@Z4@Z 00000001800366a8     ElectronicValueRW.obj
 0004:000006b4       $pdata$?SetAdvise@?$IViewObjectExImpl@VCOPOSElectronicValueRW@@@ATL@@UEAAJKKPEAUIAdviseSink@@@Z 00000001800366b4     ElectronicValueRW.obj
 0004:000006c0       $pdata$?GetAdvise@?$IViewObjectExImpl@VCOPOSElectronicValueRW@@@ATL@@UEAAJPEAK0PEAPEAUIAdviseSink@@@Z 00000001800366c0     ElectronicValueRW.obj
 0004:000006cc       $pdata$?QueryHitPoint@?$IViewObjectExImpl@VCOPOSElectronicValueRW@@@ATL@@UEAAJKPEBUtagRECT@@UtagPOINT@@JPEAK@Z 00000001800366cc     ElectronicValueRW.obj
 0004:000006d8       $pdata$?QueryHitRect@?$IViewObjectExImpl@VCOPOSElectronicValueRW@@@ATL@@UEAAJKPEBUtagRECT@@0JPEAK@Z 00000001800366d8     ElectronicValueRW.obj
 0004:000006e4       $pdata$?OnWindowMessage@?$IOleInPlaceObjectWindowlessImpl@VCOPOSElectronicValueRW@@@ATL@@UEAAJI_K_JPEA_J@Z 00000001800366e4     ElectronicValueRW.obj
 0004:000006f0       $pdata$?EnumConnectionPoints@?$IConnectionPointContainerImpl@VCOPOSElectronicValueRW@@@ATL@@UEAAJPEAPEAUIEnumConnectionPoints@@@Z 00000001800366f0     ElectronicValueRW.obj
 0004:000006fc       $pdata$?FindConnectionPoint@?$IConnectionPointContainerImpl@VCOPOSElectronicValueRW@@@ATL@@UEAAJAEBU_GUID@@PEAPEAUIConnectionPoint@@@Z 00000001800366fc     ElectronicValueRW.obj
 0004:00000708       $pdata$?IsDirty@?$IPersistStorageImpl@VCOPOSElectronicValueRW@@@ATL@@UEAAJXZ 0000000180036708     ElectronicValueRW.obj
 0004:00000714       $pdata$?InitNew@?$IPersistStorageImpl@VCOPOSElectronicValueRW@@@ATL@@UEAAJPEAUIStorage@@@Z 0000000180036714     ElectronicValueRW.obj
 0004:00000720       $pdata$?Load@?$IPersistStorageImpl@VCOPOSElectronicValueRW@@@ATL@@UEAAJPEAUIStorage@@@Z 0000000180036720     ElectronicValueRW.obj
 0004:0000072c       $pdata$?Save@?$IPersistStorageImpl@VCOPOSElectronicValueRW@@@ATL@@UEAAJPEAUIStorage@@H@Z 000000018003672c     ElectronicValueRW.obj
 0004:00000738       $pdata$?IPSI_GetIPersistStreamInit@?$IPersistStorageImpl@VCOPOSElectronicValueRW@@@ATL@@AEAAPEAUIPersistStreamInit@@XZ 0000000180036738     ElectronicValueRW.obj
 0004:00000744       $pdata$?GetPagesHelper@?$ISpecifyPropertyPagesImpl@VCOPOSElectronicValueRW@@@ATL@@IEAAJPEAUtagCAUUID@@PEBUATL_PROPMAP_ENTRY@2@@Z 0000000180036744     ElectronicValueRW.obj
 0004:00000750       $pdata$?DAdvise@?$IDataObjectImpl@VCOPOSElectronicValueRW@@@ATL@@UEAAJPEAUtagFORMATETC@@KPEAUIAdviseSink@@PEAK@Z 0000000180036750     ElectronicValueRW.obj
 0004:0000075c       $pdata$?GetClassInfoW@?$IProvideClassInfo2Impl@$1?CLSID_OPOSElectronicValueRW@@3U_GUID@@B$1?DIID__IOPOSElectronicValueRWEvents@@3U2@B$1?LIBID_OposElectronicValueRW_CCO@@3U2@B$00$0A@VCComTypeInfoHolder@ATL@@@ATL@@UEAAJPEAPEAUITypeInfo@@@Z 000000018003675c     ElectronicValueRW.obj
 0004:00000768       $pdata$?GetInterfaceSafetyOptions@?$IObjectSafetyImpl@VCOPOSElectronicValueRW@@$02@ATL@@UEAAJAEBU_GUID@@PEAK1@Z 0000000180036768     ElectronicValueRW.obj
 0004:00000774       $pdata$?SetInterfaceSafetyOptions@?$IObjectSafetyImpl@VCOPOSElectronicValueRW@@$02@ATL@@UEAAJAEBU_GUID@@KK@Z 0000000180036774     ElectronicValueRW.obj
 0004:00000780       $pdata$?_LocCPQueryInterface@?$IConnectionPointImpl@VCOPOSElectronicValueRW@@$1?IID_IPropertyNotifySink@@3U_GUID@@BVCComDynamicUnkArray@ATL@@@ATL@@UEAAJAEBU_GUID@@PEAPEAX@Z 0000000180036780     ElectronicValueRW.obj
 0004:00000780       $pdata$?_LocCPQueryInterface@?$IConnectionPointImpl@VCOPOSElectronicValueRW@@$1?DIID__IOPOSElectronicValueRWEvents@@3U_GUID@@BVCComDynamicUnkArray@ATL@@@ATL@@UEAAJAEBU_GUID@@PEAPEAX@Z 0000000180036780     ElectronicValueRW.obj
 0004:0000078c       $pdata$?Advise@?$IConnectionPointImpl@VCOPOSElectronicValueRW@@$1?IID_IPropertyNotifySink@@3U_GUID@@BVCComDynamicUnkArray@ATL@@@ATL@@UEAAJPEAUIUnknown@@PEAK@Z 000000018003678c     ElectronicValueRW.obj
 0004:0000078c       $pdata$?Advise@?$IConnectionPointImpl@VCOPOSElectronicValueRW@@$1?DIID__IOPOSElectronicValueRWEvents@@3U_GUID@@BVCComDynamicUnkArray@ATL@@@ATL@@UEAAJPEAUIUnknown@@PEAK@Z 000000018003678c     ElectronicValueRW.obj
 0004:00000798       $pdata$?Unadvise@?$IConnectionPointImpl@VCOPOSElectronicValueRW@@$1?IID_IPropertyNotifySink@@3U_GUID@@BVCComDynamicUnkArray@ATL@@@ATL@@UEAAJK@Z 0000000180036798     ElectronicValueRW.obj
 0004:00000798       $pdata$?Unadvise@?$IConnectionPointImpl@VCOPOSElectronicValueRW@@$1?DIID__IOPOSElectronicValueRWEvents@@3U_GUID@@BVCComDynamicUnkArray@ATL@@@ATL@@UEAAJK@Z 0000000180036798     ElectronicValueRW.obj
 0004:000007a4       $pdata$?EnumConnections@?$IConnectionPointImpl@VCOPOSElectronicValueRW@@$1?DIID__IOPOSElectronicValueRWEvents@@3U_GUID@@BVCComDynamicUnkArray@ATL@@@ATL@@UEAAJPEAPEAUIEnumConnections@@@Z 00000001800367a4     ElectronicValueRW.obj
 0004:000007a4       $pdata$?EnumConnections@?$IConnectionPointImpl@VCOPOSElectronicValueRW@@$1?IID_IPropertyNotifySink@@3U_GUID@@BVCComDynamicUnkArray@ATL@@@ATL@@UEAAJPEAPEAUIEnumConnections@@@Z 00000001800367a4     ElectronicValueRW.obj
 0004:000007b0       $pdata$?Fire_DataEvent@?$CProxy_IOPOSEvents@VCOPOSElectronicValueRW@@@@QEAAXJ@Z 00000001800367b0     ElectronicValueRW.obj
 0004:000007bc       $pdata$?Fire_DirectIOEvent@?$CProxy_IOPOSEvents@VCOPOSElectronicValueRW@@@@QEAAXJPEAJPEAPEA_W@Z 00000001800367bc     ElectronicValueRW.obj
 0004:000007c8       $pdata$?Fire_ErrorEvent@?$CProxy_IOPOSEvents@VCOPOSElectronicValueRW@@@@QEAAXJJJPEAJ@Z 00000001800367c8     ElectronicValueRW.obj
 0004:000007d4       $pdata$?Fire_OutputCompleteEvent@?$CProxy_IOPOSEvents@VCOPOSElectronicValueRW@@@@QEAAXJ@Z 00000001800367d4     ElectronicValueRW.obj
 0004:000007e0       $pdata$?Fire_StatusUpdateEvent@?$CProxy_IOPOSEvents@VCOPOSElectronicValueRW@@@@QEAAXJ@Z 00000001800367e0     ElectronicValueRW.obj
 0004:000007ec       $pdata$?Fire_TransitionEvent@?$CProxy_IOPOSEvents@VCOPOSElectronicValueRW@@@@QEAAXJPEAJPEAPEA_W@Z 00000001800367ec     ElectronicValueRW.obj
 0004:000007f8       $pdata$?FireTheEvent@?$CProxy_IOPOSEvents@VCOPOSElectronicValueRW@@@@IEAAXPEAVOposVariant@@IAEAJPEB_WJ@Z 00000001800367f8     ElectronicValueRW.obj
 0004:00000804       $pdata$?GetConnMap@COPOSElectronicValueRW@@SAPEBU_ATL_CONNMAP_ENTRY@ATL@@PEAH@Z 0000000180036804     ElectronicValueRW.obj
 0004:00000810       $pdata$?ProcessWindowMessage@COPOSElectronicValueRW@@UEAAHPEAUHWND__@@I_K_JAEA_JK@Z 0000000180036810     ElectronicValueRW.obj
 0004:0000081c       $pdata$?SOData@COPOSElectronicValueRW@@MEAAJJ@Z 000000018003681c     ElectronicValueRW.obj
 0004:00000828       $pdata$?SODirectIO@COPOSElectronicValueRW@@MEAAJJPEAJPEAPEA_W@Z 0000000180036828     ElectronicValueRW.obj
 0004:00000834       $pdata$?SOError@COPOSElectronicValueRW@@MEAAJJJJPEAJ@Z 0000000180036834     ElectronicValueRW.obj
 0004:00000840       $pdata$?SOOutputComplete@COPOSElectronicValueRW@@MEAAJJ@Z 0000000180036840     ElectronicValueRW.obj
 0004:0000084c       $pdata$?SOStatusUpdate@COPOSElectronicValueRW@@MEAAJJ@Z 000000018003684c     ElectronicValueRW.obj
 0004:00000858       $pdata$?SOTransition@COPOSElectronicValueRW@@MEAAJJPEAJPEAPEA_W@Z 0000000180036858     ElectronicValueRW.obj
 0004:00000864       $pdata$?DoEvent@COPOSElectronicValueRW@@IEAAXI_K_J@Z 0000000180036864     ElectronicValueRW.obj
 0004:00000870       $pdata$??__E_Module@@YAXXZ 0000000180036870     ElectronicValueRW.obj
 0004:0000087c       $pdata$??__F_Module@@YAXXZ 000000018003687c     ElectronicValueRW.obj
 0004:00000888       $pdata$?CreateInstance@?$CComCreator@V?$CComObjectCached@VCComClassFactory@ATL@@@ATL@@@ATL@@SAJPEAXAEBU_GUID@@PEAPEAX@Z 0000000180036888     ElectronicValueRW.obj
 0004:00000894       $pdata$DllMain             0000000180036894     ElectronicValueRW.obj
 0004:000008a0       $pdata$?CreateInstance@?$CComCreator@V?$CComObject@VCOPOSElectronicValueRW@@@ATL@@@ATL@@SAJPEAXAEBU_GUID@@PEAPEAX@Z 00000001800368a0     ElectronicValueRW.obj
 0004:000008ac       $pdata$?CreateInstance@?$CComCreator@V?$CComAggObject@VCOPOSElectronicValueRW@@@ATL@@@ATL@@SAJPEAXAEBU_GUID@@PEAPEAX@Z 00000001800368ac     ElectronicValueRW.obj
 0004:000008b8       $pdata$??1?$CComEnumImpl@UIEnumConnectionPoints@@$1?_GUID_b196b285_bab4_101a_b69c_00aa00341d07@@3U__s_GUID@@BPEAUIConnectionPoint@@V?$_CopyInterface@UIConnectionPoint@@@ATL@@@ATL@@UEAA@XZ 00000001800368b8     ElectronicValueRW.obj
 0004:000008c4       $pdata$?Next@?$CComEnumImpl@UIEnumConnectionPoints@@$1?_GUID_b196b285_bab4_101a_b69c_00aa00341d07@@3U__s_GUID@@BPEAUIConnectionPoint@@V?$_CopyInterface@UIConnectionPoint@@@ATL@@@ATL@@UEAAJKPEAPEAUIConnectionPoint@@PEAK@Z 00000001800368c4     ElectronicValueRW.obj
 0004:000008d0       $pdata$?Clone@?$CComEnumImpl@UIEnumConnectionPoints@@$1?_GUID_b196b285_bab4_101a_b69c_00aa00341d07@@3U__s_GUID@@BPEAUIConnectionPoint@@V?$_CopyInterface@UIConnectionPoint@@@ATL@@@ATL@@UEAAJPEAPEAUIEnumConnectionPoints@@@Z 00000001800368d0     ElectronicValueRW.obj
 0004:000008dc       $pdata$?Init@?$CComEnumImpl@UIEnumConnectionPoints@@$1?_GUID_b196b285_bab4_101a_b69c_00aa00341d07@@3U__s_GUID@@BPEAUIConnectionPoint@@V?$_CopyInterface@UIConnectionPoint@@@ATL@@@ATL@@QEAAJPEAPEAUIConnectionPoint@@0PEAUIUnknown@@W4CComEnumFlags@2@@Z 00000001800368dc     ElectronicValueRW.obj
 0004:000008e8       $pdata$?Release@?$CComObject@V?$CComEnum@UIEnumConnections@@$1?_GUID_b196b287_bab4_101a_b69c_00aa00341d07@@3U__s_GUID@@BUtagCONNECTDATA@@V?$_Copy@UtagCONNECTDATA@@@ATL@@VCComSingleThreadModel@6@@ATL@@@ATL@@UEAAKXZ 00000001800368e8     ElectronicValueRW.obj
 0004:000008e8       $pdata$?Release@?$CComObject@V?$CComEnum@UIEnumConnectionPoints@@$1?_GUID_b196b285_bab4_101a_b69c_00aa00341d07@@3U__s_GUID@@BPEAUIConnectionPoint@@V?$_CopyInterface@UIConnectionPoint@@@ATL@@VCComSingleThreadModel@6@@ATL@@@ATL@@UEAAKXZ 00000001800368e8     ElectronicValueRW.obj
 0004:000008f4       $pdata$?CreateInstance@?$CComObject@V?$CComEnum@UIEnumConnectionPoints@@$1?_GUID_b196b285_bab4_101a_b69c_00aa00341d07@@3U__s_GUID@@BPEAUIConnectionPoint@@V?$_CopyInterface@UIConnectionPoint@@@ATL@@VCComSingleThreadModel@6@@ATL@@@ATL@@SAJPEAPEAV12@@Z 00000001800368f4     ElectronicValueRW.obj
 0004:00000900       $pdata$??_G?$CComObject@V?$CComEnum@UIEnumConnectionPoints@@$1?_GUID_b196b285_bab4_101a_b69c_00aa00341d07@@3U__s_GUID@@BPEAUIConnectionPoint@@V?$_CopyInterface@UIConnectionPoint@@@ATL@@VCComSingleThreadModel@6@@ATL@@@ATL@@UEAAPEAXI@Z 0000000180036900     ElectronicValueRW.obj
 0004:0000090c       $pdata$?AddRef@?$CComObjectCached@VCComClassFactory@ATL@@@ATL@@UEAAKXZ 000000018003690c     ElectronicValueRW.obj
 0004:00000918       $pdata$?Release@?$CComObjectCached@VCComClassFactory@ATL@@@ATL@@UEAAKXZ 0000000180036918     ElectronicValueRW.obj
 0004:00000924       $pdata$??_G?$CComObjectCached@VCComClassFactory@ATL@@@ATL@@UEAAPEAXI@Z 0000000180036924     ElectronicValueRW.obj
 0004:00000930       $pdata$?Release@?$CComAggObject@VCOPOSElectronicValueRW@@@ATL@@UEAAKXZ 0000000180036930     ElectronicValueRW.obj
 0004:0000093c       $pdata$?QueryInterface@?$CComAggObject@VCOPOSElectronicValueRW@@@ATL@@UEAAJAEBU_GUID@@PEAPEAX@Z 000000018003693c     ElectronicValueRW.obj
 0004:00000948       $pdata$??0?$CComContainedObject@VCOPOSElectronicValueRW@@@ATL@@QEAA@PEAX@Z 0000000180036948     ElectronicValueRW.obj
 0004:00000954       $pdata$??_G?$CComContainedObject@VCOPOSElectronicValueRW@@@ATL@@UEAAPEAXI@Z 0000000180036954     ElectronicValueRW.obj
 0004:00000960       $pdata$??_G?$CComAggObject@VCOPOSElectronicValueRW@@@ATL@@UEAAPEAXI@Z 0000000180036960     ElectronicValueRW.obj
 0004:0000096c       $pdata$??0?$CComObject@VCOPOSElectronicValueRW@@@ATL@@QEAA@PEAX@Z 000000018003696c     ElectronicValueRW.obj
 0004:00000978       $pdata$??1?$CComObject@VCOPOSElectronicValueRW@@@ATL@@UEAA@XZ 0000000180036978     ElectronicValueRW.obj
 0004:00000984       $pdata$?Release@?$CComObject@VCOPOSElectronicValueRW@@@ATL@@UEAAKXZ 0000000180036984     ElectronicValueRW.obj
 0004:00000990       $pdata$??_G?$CComObject@VCOPOSElectronicValueRW@@@ATL@@UEAAPEAXI@Z 0000000180036990     ElectronicValueRW.obj
 0004:0000099c       $pdata$??__E?pConnMap@?$IConnectionPointContainerImpl@VCOPOSElectronicValueRW@@@ATL@@0PEBU_ATL_CONNMAP_ENTRY@2@EB@@YAXXZ 000000018003699c     ElectronicValueRW.obj
 0004:000009a8       $pdata$??1?$CComEnumImpl@UIEnumConnections@@$1?_GUID_b196b287_bab4_101a_b69c_00aa00341d07@@3U__s_GUID@@BUtagCONNECTDATA@@V?$_Copy@UtagCONNECTDATA@@@ATL@@@ATL@@UEAA@XZ 00000001800369a8     ElectronicValueRW.obj
 0004:000009b4       $pdata$?Next@?$CComEnumImpl@UIEnumConnections@@$1?_GUID_b196b287_bab4_101a_b69c_00aa00341d07@@3U__s_GUID@@BUtagCONNECTDATA@@V?$_Copy@UtagCONNECTDATA@@@ATL@@@ATL@@UEAAJKPEAUtagCONNECTDATA@@PEAK@Z 00000001800369b4     ElectronicValueRW.obj
 0004:000009c0       $pdata$?Clone@?$CComEnumImpl@UIEnumConnections@@$1?_GUID_b196b287_bab4_101a_b69c_00aa00341d07@@3U__s_GUID@@BUtagCONNECTDATA@@V?$_Copy@UtagCONNECTDATA@@@ATL@@@ATL@@UEAAJPEAPEAUIEnumConnections@@@Z 00000001800369c0     ElectronicValueRW.obj
 0004:000009cc       $pdata$?Init@?$CComEnumImpl@UIEnumConnections@@$1?_GUID_b196b287_bab4_101a_b69c_00aa00341d07@@3U__s_GUID@@BUtagCONNECTDATA@@V?$_Copy@UtagCONNECTDATA@@@ATL@@@ATL@@QEAAJPEAUtagCONNECTDATA@@0PEAUIUnknown@@W4CComEnumFlags@2@@Z 00000001800369cc     ElectronicValueRW.obj
 0004:000009d8       $pdata$?CreateInstance@?$CComObject@V?$CComEnum@UIEnumConnections@@$1?_GUID_b196b287_bab4_101a_b69c_00aa00341d07@@3U__s_GUID@@BUtagCONNECTDATA@@V?$_Copy@UtagCONNECTDATA@@@ATL@@VCComSingleThreadModel@6@@ATL@@@ATL@@SAJPEAPEAV12@@Z 00000001800369d8     ElectronicValueRW.obj
 0004:000009e4       $pdata$??_G?$CComObject@V?$CComEnum@UIEnumConnections@@$1?_GUID_b196b287_bab4_101a_b69c_00aa00341d07@@3U__s_GUID@@BUtagCONNECTDATA@@V?$_Copy@UtagCONNECTDATA@@@ATL@@VCComSingleThreadModel@6@@ATL@@@ATL@@UEAAPEAXI@Z 00000001800369e4     ElectronicValueRW.obj
 0004:000009f0       $pdata$??1CComControlBase@ATL@@UEAA@XZ 00000001800369f0     ElectronicValueRWImpl.obj
 0004:000009fc       $pdata$??1?$IConnectionPointImpl@VCOPOSElectronicValueRW@@$1?IID_IPropertyNotifySink@@3U_GUID@@BVCComDynamicUnkArray@ATL@@@ATL@@QEAA@XZ 00000001800369fc     ElectronicValueRWImpl.obj
 0004:000009fc       $pdata$??1?$IConnectionPointImpl@VCOPOSElectronicValueRW@@$1?DIID__IOPOSElectronicValueRWEvents@@3U_GUID@@BVCComDynamicUnkArray@ATL@@@ATL@@QEAA@XZ 00000001800369fc     ElectronicValueRWImpl.obj
 0004:00000a08       $pdata$?FinalConstruct@COPOSElectronicValueRW@@QEAAJXZ 0000000180036a08     ElectronicValueRWImpl.obj
 0004:00000a14       $pdata$??1COPOSElectronicValueRW@@UEAA@XZ 0000000180036a14     ElectronicValueRWImpl.obj
 0004:00000a20       $pdata$?GetOposProp@COPOSElectronicValueRW@@IEAAJJPEAJJ@Z 0000000180036a20     ElectronicValueRWImpl.obj
 0004:00000a2c       $pdata$?SetOposProp@COPOSElectronicValueRW@@IEAAJJJJ@Z 0000000180036a2c     ElectronicValueRWImpl.obj
 0004:00000a38       $pdata$?GetOposProp@COPOSElectronicValueRW@@IEAAJJPEAPEA_WJ@Z 0000000180036a38     ElectronicValueRWImpl.obj
 0004:00000a44       $pdata$?SetOposProp@COPOSElectronicValueRW@@IEAAJJPEA_WJ@Z 0000000180036a44     ElectronicValueRWImpl.obj
 0004:00000a50       $pdata$?DoInvoke@COPOSElectronicValueRW@@IEAAJJPEAVOposVariant@@IHPEAJ_N@Z 0000000180036a50     ElectronicValueRWImpl.obj
 0004:00000a5c       $pdata$?SetCOFreezeEvents@COPOSElectronicValueRW@@IEAAXF@Z 0000000180036a5c     ElectronicValueRWImpl.obj
 0004:00000a68       $pdata$?FreezeEvents@COPOSElectronicValueRW@@MEAAJH@Z 0000000180036a68     ElectronicValueRWImpl.obj
 0004:00000a74       $pdata$?OnDraw@COPOSElectronicValueRW@@MEAAJAEAUATL_DRAWINFO@@@Z 0000000180036a74     ElectronicValueRWImpl.obj
 0004:00000a80       $pdata$?EventInit@COPOSElectronicValueRW@@IEAAJXZ 0000000180036a80     ElectronicValueRWImpl.obj
 0004:00000a8c       $pdata$?EventUninit@COPOSElectronicValueRW@@IEAAXXZ 0000000180036a8c     ElectronicValueRWImpl.obj
 0004:00000a98       $pdata$?s_EventWindowProc@COPOSElectronicValueRW@@KA_JPEAUHWND__@@I_K_J@Z 0000000180036a98     ElectronicValueRWImpl.obj
 0004:00000aa4       $pdata$?EventWindowProc@COPOSElectronicValueRW@@IEAA_JI_K_J@Z 0000000180036aa4     ElectronicValueRWImpl.obj
 0004:00000ab0       $pdata$?SOProcessID@COPOSElectronicValueRW@@UEAAJPEAJ@Z 0000000180036ab0     ElectronicValueRWImpl.obj
 0004:00000abc       $pdata$?get_AutoDisable@COPOSElectronicValueRW@@UEAAJPEAF@Z 0000000180036abc     ElectronicValueRWImpl.obj
 0004:00000ac8       $pdata$?get_Claimed@COPOSElectronicValueRW@@UEAAJPEAF@Z 0000000180036ac8     ElectronicValueRWImpl.obj
 0004:00000ad4       $pdata$?get_DataEventEnabled@COPOSElectronicValueRW@@UEAAJPEAF@Z 0000000180036ad4     ElectronicValueRWImpl.obj
 0004:00000ae0       $pdata$?get_DeviceEnabled@COPOSElectronicValueRW@@UEAAJPEAF@Z 0000000180036ae0     ElectronicValueRWImpl.obj
 0004:00000aec       $pdata$?get_FreezeEvents@COPOSElectronicValueRW@@UEAAJPEAF@Z 0000000180036aec     ElectronicValueRWImpl.obj
 0004:00000af8       $pdata$?put_FreezeEvents@COPOSElectronicValueRW@@UEAAJF@Z 0000000180036af8     ElectronicValueRWImpl.obj
 0004:00000b04       $pdata$?get_ResultCode@COPOSElectronicValueRW@@UEAAJPEAJ@Z 0000000180036b04     ElectronicValueRWImpl.obj
 0004:00000b10       $pdata$?get_State@COPOSElectronicValueRW@@UEAAJPEAJ@Z 0000000180036b10     ElectronicValueRWImpl.obj
 0004:00000b1c       $pdata$?get_ControlObjectDescription@COPOSElectronicValueRW@@UEAAJPEAPEA_W@Z 0000000180036b1c     ElectronicValueRWImpl.obj
 0004:00000b28       $pdata$?get_CapStatisticsReporting@COPOSElectronicValueRW@@UEAAJPEAF@Z 0000000180036b28     ElectronicValueRWImpl.obj
 0004:00000b34       $pdata$?get_CapUpdateStatistics@COPOSElectronicValueRW@@UEAAJPEAF@Z 0000000180036b34     ElectronicValueRWImpl.obj
 0004:00000b40       $pdata$?get_CapCompareFirmwareVersion@COPOSElectronicValueRW@@UEAAJPEAF@Z 0000000180036b40     ElectronicValueRWImpl.obj
 0004:00000b4c       $pdata$?get_CapUpdateFirmware@COPOSElectronicValueRW@@UEAAJPEAF@Z 0000000180036b4c     ElectronicValueRWImpl.obj
 0004:00000b58       $pdata$?CheckHealth@COPOSElectronicValueRW@@UEAAJJPEAJ@Z 0000000180036b58     ElectronicValueRWImpl.obj
 0004:00000b64       $pdata$?ClaimDevice@COPOSElectronicValueRW@@UEAAJJPEAJ@Z 0000000180036b64     ElectronicValueRWImpl.obj
 0004:00000b70       $pdata$?ClearInput@COPOSElectronicValueRW@@UEAAJPEAJ@Z 0000000180036b70     ElectronicValueRWImpl.obj
 0004:00000b7c       $pdata$?ClearOutput@COPOSElectronicValueRW@@UEAAJPEAJ@Z 0000000180036b7c     ElectronicValueRWImpl.obj
 0004:00000b88       $pdata$?Close@COPOSElectronicValueRW@@UEAAJPEAJ@Z 0000000180036b88     ElectronicValueRWImpl.obj
 0004:00000b94       $pdata$?DirectIO@COPOSElectronicValueRW@@UEAAJJPEAJPEAPEA_W0@Z 0000000180036b94     ElectronicValueRWImpl.obj
 0004:00000ba0       $pdata$?Open@COPOSElectronicValueRW@@UEAAJPEA_WPEAJ@Z 0000000180036ba0     ElectronicValueRWImpl.obj
 0004:00000bac       $pdata$?ReleaseDevice@COPOSElectronicValueRW@@UEAAJPEAJ@Z 0000000180036bac     ElectronicValueRWImpl.obj
 0004:00000bb8       $pdata$?ResetStatistics@COPOSElectronicValueRW@@UEAAJPEA_WPEAJ@Z 0000000180036bb8     ElectronicValueRWImpl.obj
 0004:00000bc4       $pdata$?RetrieveStatistics@COPOSElectronicValueRW@@UEAAJPEAPEA_WPEAJ@Z 0000000180036bc4     ElectronicValueRWImpl.obj
 0004:00000bd0       $pdata$?UpdateStatistics@COPOSElectronicValueRW@@UEAAJPEA_WPEAJ@Z 0000000180036bd0     ElectronicValueRWImpl.obj
 0004:00000bdc       $pdata$?CompareFirmwareVersion@COPOSElectronicValueRW@@UEAAJPEA_WPEAJ1@Z 0000000180036bdc     ElectronicValueRWImpl.obj
 0004:00000be8       $pdata$?UpdateFirmware@COPOSElectronicValueRW@@UEAAJPEA_WPEAJ@Z 0000000180036be8     ElectronicValueRWImpl.obj
 0004:00000bf4       $pdata$?ClearInputProperties@COPOSElectronicValueRW@@UEAAJPEAJ@Z 0000000180036bf4     ElectronicValueRWImpl.obj
 0004:00000c00       $pdata$?get_Amount@COPOSElectronicValueRW@@UEAAJPEATtagCY@@@Z 0000000180036c00     ElectronicValueRWImpl.obj
 0004:00000c0c       $pdata$?put_Amount@COPOSElectronicValueRW@@UEAAJTtagCY@@@Z 0000000180036c0c     ElectronicValueRWImpl.obj
 0004:00000c18       $pdata$?get_AsyncMode@COPOSElectronicValueRW@@UEAAJPEAF@Z 0000000180036c18     ElectronicValueRWImpl.obj
 0004:00000c24       $pdata$?get_Balance@COPOSElectronicValueRW@@UEAAJPEATtagCY@@@Z 0000000180036c24     ElectronicValueRWImpl.obj
 0004:00000c30       $pdata$?get_BalanceOfPoint@COPOSElectronicValueRW@@UEAAJPEATtagCY@@@Z 0000000180036c30     ElectronicValueRWImpl.obj
 0004:00000c3c       $pdata$?get_CapActivateService@COPOSElectronicValueRW@@UEAAJPEAF@Z 0000000180036c3c     ElectronicValueRWImpl.obj
 0004:00000c48       $pdata$?get_CapAddValue@COPOSElectronicValueRW@@UEAAJPEAF@Z 0000000180036c48     ElectronicValueRWImpl.obj
 0004:00000c54       $pdata$?get_CapCancelValue@COPOSElectronicValueRW@@UEAAJPEAF@Z 0000000180036c54     ElectronicValueRWImpl.obj
 0004:00000c60       $pdata$?get_CapElectronicMoney@COPOSElectronicValueRW@@UEAAJPEAF@Z 0000000180036c60     ElectronicValueRWImpl.obj
 0004:00000c6c       $pdata$?get_CapEnumerateCardServices@COPOSElectronicValueRW@@UEAAJPEAF@Z 0000000180036c6c     ElectronicValueRWImpl.obj
 0004:00000c78       $pdata$?get_CapIndirectTransactionLog@COPOSElectronicValueRW@@UEAAJPEAF@Z 0000000180036c78     ElectronicValueRWImpl.obj
 0004:00000c84       $pdata$?get_CapLockTerminal@COPOSElectronicValueRW@@UEAAJPEAF@Z 0000000180036c84     ElectronicValueRWImpl.obj
 0004:00000c90       $pdata$?get_CapLogStatus@COPOSElectronicValueRW@@UEAAJPEAF@Z 0000000180036c90     ElectronicValueRWImpl.obj
 0004:00000c9c       $pdata$?get_CapMediumID@COPOSElectronicValueRW@@UEAAJPEAF@Z 0000000180036c9c     ElectronicValueRWImpl.obj
 0004:00000ca8       $pdata$?get_CapPoint@COPOSElectronicValueRW@@UEAAJPEAF@Z 0000000180036ca8     ElectronicValueRWImpl.obj
 0004:00000cb4       $pdata$?get_CapSubtractValue@COPOSElectronicValueRW@@UEAAJPEAF@Z 0000000180036cb4     ElectronicValueRWImpl.obj
 0004:00000cc0       $pdata$?get_CapTransaction@COPOSElectronicValueRW@@UEAAJPEAF@Z 0000000180036cc0     ElectronicValueRWImpl.obj
 0004:00000ccc       $pdata$?get_CapTransactionLog@COPOSElectronicValueRW@@UEAAJPEAF@Z 0000000180036ccc     ElectronicValueRWImpl.obj
 0004:00000cd8       $pdata$?get_CapUnlockTerminal@COPOSElectronicValueRW@@UEAAJPEAF@Z 0000000180036cd8     ElectronicValueRWImpl.obj
 0004:00000ce4       $pdata$?get_CapUpdateKey@COPOSElectronicValueRW@@UEAAJPEAF@Z 0000000180036ce4     ElectronicValueRWImpl.obj
 0004:00000cf0       $pdata$?get_CapVoucher@COPOSElectronicValueRW@@UEAAJPEAF@Z 0000000180036cf0     ElectronicValueRWImpl.obj
 0004:00000cfc       $pdata$?get_CapWriteValue@COPOSElectronicValueRW@@UEAAJPEAF@Z 0000000180036cfc     ElectronicValueRWImpl.obj
 0004:00000d08       $pdata$?get_DetectionControl@COPOSElectronicValueRW@@UEAAJPEAF@Z 0000000180036d08     ElectronicValueRWImpl.obj
 0004:00000d14       $pdata$?get_Point@COPOSElectronicValueRW@@UEAAJPEATtagCY@@@Z 0000000180036d14     ElectronicValueRWImpl.obj
 0004:00000d20       $pdata$?put_Point@COPOSElectronicValueRW@@UEAAJTtagCY@@@Z 0000000180036d20     ElectronicValueRWImpl.obj
 0004:00000d2c       $pdata$?get_SettledAmount@COPOSElectronicValueRW@@UEAAJPEATtagCY@@@Z 0000000180036d2c     ElectronicValueRWImpl.obj
 0004:00000d38       $pdata$?get_SettledPoint@COPOSElectronicValueRW@@UEAAJPEATtagCY@@@Z 0000000180036d38     ElectronicValueRWImpl.obj
 0004:00000d44       $pdata$?AccessLog@COPOSElectronicValueRW@@UEAAJJJJPEAJ@Z 0000000180036d44     ElectronicValueRWImpl.obj
 0004:00000d50       $pdata$?ActivateService@COPOSElectronicValueRW@@UEAAJPEAJPEAPEA_W0@Z 0000000180036d50     ElectronicValueRWImpl.obj
 0004:00000d5c       $pdata$?AddValue@COPOSElectronicValueRW@@UEAAJJJPEAJ@Z 0000000180036d5c     ElectronicValueRWImpl.obj
 0004:00000d68       $pdata$?BeginDetection@COPOSElectronicValueRW@@UEAAJJJPEAJ@Z 0000000180036d68     ElectronicValueRWImpl.obj
 0004:00000d74       $pdata$?BeginRemoval@COPOSElectronicValueRW@@UEAAJJPEAJ@Z 0000000180036d74     ElectronicValueRWImpl.obj
 0004:00000d80       $pdata$?CancelValue@COPOSElectronicValueRW@@UEAAJJJPEAJ@Z 0000000180036d80     ElectronicValueRWImpl.obj
 0004:00000d8c       $pdata$?CaptureCard@COPOSElectronicValueRW@@UEAAJPEAJ@Z 0000000180036d8c     ElectronicValueRWImpl.obj
 0004:00000d98       $pdata$?EndDetection@COPOSElectronicValueRW@@UEAAJPEAJ@Z 0000000180036d98     ElectronicValueRWImpl.obj
 0004:00000da4       $pdata$?EndRemoval@COPOSElectronicValueRW@@UEAAJPEAJ@Z 0000000180036da4     ElectronicValueRWImpl.obj
 0004:00000db0       $pdata$?EnumerateCardServices@COPOSElectronicValueRW@@UEAAJPEAJ@Z 0000000180036db0     ElectronicValueRWImpl.obj
 0004:00000dbc       $pdata$?LockTerminal@COPOSElectronicValueRW@@UEAAJPEAJ@Z 0000000180036dbc     ElectronicValueRWImpl.obj
 0004:00000dc8       $pdata$?ReadValue@COPOSElectronicValueRW@@UEAAJJJPEAJ@Z 0000000180036dc8     ElectronicValueRWImpl.obj
 0004:00000dd4       $pdata$?SubtractValue@COPOSElectronicValueRW@@UEAAJJJPEAJ@Z 0000000180036dd4     ElectronicValueRWImpl.obj
 0004:00000de0       $pdata$?TransactionAccess@COPOSElectronicValueRW@@UEAAJJPEAJ@Z 0000000180036de0     ElectronicValueRWImpl.obj
 0004:00000dec       $pdata$?UnlockTerminal@COPOSElectronicValueRW@@UEAAJPEAJ@Z 0000000180036dec     ElectronicValueRWImpl.obj
 0004:00000df8       $pdata$?UpdateKey@COPOSElectronicValueRW@@UEAAJPEAJPEAPEA_W0@Z 0000000180036df8     ElectronicValueRWImpl.obj
 0004:00000e04       $pdata$?WriteValue@COPOSElectronicValueRW@@UEAAJJJPEAJ@Z 0000000180036e04     ElectronicValueRWImpl.obj
 0004:00000e10       $pdata$?get_CapPINDevice@COPOSElectronicValueRW@@UEAAJPEAF@Z 0000000180036e10     ElectronicValueRWImpl.obj
 0004:00000e1c       $pdata$?get_CapTrainingMode@COPOSElectronicValueRW@@UEAAJPEAF@Z 0000000180036e1c     ElectronicValueRWImpl.obj
 0004:00000e28       $pdata$?ClearParameterInformation@COPOSElectronicValueRW@@UEAAJPEAJ@Z 0000000180036e28     ElectronicValueRWImpl.obj
 0004:00000e34       $pdata$?QueryLastSuccessfulTransactionResult@COPOSElectronicValueRW@@UEAAJPEAJ@Z 0000000180036e34     ElectronicValueRWImpl.obj
 0004:00000e40       $pdata$?RetrieveResultInformation@COPOSElectronicValueRW@@UEAAJPEA_WPEAPEA_WPEAJ@Z 0000000180036e40     ElectronicValueRWImpl.obj
 0004:00000e4c       $pdata$?SetParameterInformation@COPOSElectronicValueRW@@UEAAJPEA_W0PEAJ@Z 0000000180036e4c     ElectronicValueRWImpl.obj
 0004:00000e58       $pdata$?get_CapMembershipCertificate@COPOSElectronicValueRW@@UEAAJPEAF@Z 0000000180036e58     ElectronicValueRWImpl.obj
 0004:00000e64       $pdata$?AccessData@COPOSElectronicValueRW@@UEAAJJPEAJPEAPEA_W0@Z 0000000180036e64     ElectronicValueRWImpl.obj
 0004:00000e70       $pdata$?ActivateEVService@COPOSElectronicValueRW@@UEAAJPEAJPEAPEA_W0@Z 0000000180036e70     ElectronicValueRWImpl.obj
 0004:00000e7c       $pdata$?CheckServiceRegistrationToMedium@COPOSElectronicValueRW@@UEAAJJJPEAJ@Z 0000000180036e7c     ElectronicValueRWImpl.obj
 0004:00000e88       $pdata$?CloseDailyEVService@COPOSElectronicValueRW@@UEAAJPEAJPEAPEA_W0@Z 0000000180036e88     ElectronicValueRWImpl.obj
 0004:00000e94       $pdata$?DeactivateEVService@COPOSElectronicValueRW@@UEAAJPEAJPEAPEA_W0@Z 0000000180036e94     ElectronicValueRWImpl.obj
 0004:00000ea0       $pdata$?OpenDailyEVService@COPOSElectronicValueRW@@UEAAJPEAJPEAPEA_W0@Z 0000000180036ea0     ElectronicValueRWImpl.obj
 0004:00000eac       $pdata$?RegisterServiceToMedium@COPOSElectronicValueRW@@UEAAJJJPEAJ@Z 0000000180036eac     ElectronicValueRWImpl.obj
 0004:00000eb8       $pdata$?UnregisterServiceToMedium@COPOSElectronicValueRW@@UEAAJJJPEAJ@Z 0000000180036eb8     ElectronicValueRWImpl.obj
 0004:00000ec4       $pdata$?UpdateData@COPOSElectronicValueRW@@UEAAJJPEAJPEAPEA_W0@Z 0000000180036ec4     ElectronicValueRWImpl.obj
 0004:00000ed0       $pdata$?get_CapAdditionalSecurityInformation@COPOSElectronicValueRW@@UEAAJPEAF@Z 0000000180036ed0     ElectronicValueRWImpl.obj
 0004:00000edc       $pdata$?get_CapAuthorizeCompletion@COPOSElectronicValueRW@@UEAAJPEAF@Z 0000000180036edc     ElectronicValueRWImpl.obj
 0004:00000ee8       $pdata$?get_CapAuthorizePreSales@COPOSElectronicValueRW@@UEAAJPEAF@Z 0000000180036ee8     ElectronicValueRWImpl.obj
 0004:00000ef4       $pdata$?get_CapAuthorizeRefund@COPOSElectronicValueRW@@UEAAJPEAF@Z 0000000180036ef4     ElectronicValueRWImpl.obj
 0004:00000f00       $pdata$?get_CapAuthorizeVoid@COPOSElectronicValueRW@@UEAAJPEAF@Z 0000000180036f00     ElectronicValueRWImpl.obj
 0004:00000f0c       $pdata$?get_CapAuthorizeVoidPreSales@COPOSElectronicValueRW@@UEAAJPEAF@Z 0000000180036f0c     ElectronicValueRWImpl.obj
 0004:00000f18       $pdata$?get_CapCashDeposit@COPOSElectronicValueRW@@UEAAJPEAF@Z 0000000180036f18     ElectronicValueRWImpl.obj
 0004:00000f24       $pdata$?get_CapCenterResultCode@COPOSElectronicValueRW@@UEAAJPEAF@Z 0000000180036f24     ElectronicValueRWImpl.obj
 0004:00000f30       $pdata$?get_CapCheckCard@COPOSElectronicValueRW@@UEAAJPEAF@Z 0000000180036f30     ElectronicValueRWImpl.obj
 0004:00000f3c       $pdata$?get_CapInstallments@COPOSElectronicValueRW@@UEAAJPEAF@Z 0000000180036f3c     ElectronicValueRWImpl.obj
 0004:00000f48       $pdata$?get_CapPaymentDetail@COPOSElectronicValueRW@@UEAAJPEAF@Z 0000000180036f48     ElectronicValueRWImpl.obj
 0004:00000f54       $pdata$?get_CapTaxOthers@COPOSElectronicValueRW@@UEAAJPEAF@Z 0000000180036f54     ElectronicValueRWImpl.obj
 0004:00000f60       $pdata$?get_CapTransactionNumber@COPOSElectronicValueRW@@UEAAJPEAF@Z 0000000180036f60     ElectronicValueRWImpl.obj
 0004:00000f6c       $pdata$?AccessDailyLog@COPOSElectronicValueRW@@UEAAJJJJPEAJ@Z 0000000180036f6c     ElectronicValueRWImpl.obj
 0004:00000f78       $pdata$?AuthorizeCompletion@COPOSElectronicValueRW@@UEAAJJTtagCY@@0JPEAJ@Z 0000000180036f78     ElectronicValueRWImpl.obj
 0004:00000f84       $pdata$?AuthorizePreSales@COPOSElectronicValueRW@@UEAAJJTtagCY@@0JPEAJ@Z 0000000180036f84     ElectronicValueRWImpl.obj
 0004:00000f90       $pdata$?AuthorizeRefund@COPOSElectronicValueRW@@UEAAJJTtagCY@@0JPEAJ@Z 0000000180036f90     ElectronicValueRWImpl.obj
 0004:00000f9c       $pdata$?AuthorizeSales@COPOSElectronicValueRW@@UEAAJJTtagCY@@0JPEAJ@Z 0000000180036f9c     ElectronicValueRWImpl.obj
 0004:00000fa8       $pdata$?AuthorizeVoid@COPOSElectronicValueRW@@UEAAJJTtagCY@@0JPEAJ@Z 0000000180036fa8     ElectronicValueRWImpl.obj
 0004:00000fb4       $pdata$?AuthorizeVoidPreSales@COPOSElectronicValueRW@@UEAAJJTtagCY@@0JPEAJ@Z 0000000180036fb4     ElectronicValueRWImpl.obj
 0004:00000fc0       $pdata$?CashDeposit@COPOSElectronicValueRW@@UEAAJJTtagCY@@JPEAJ@Z 0000000180036fc0     ElectronicValueRWImpl.obj
 0004:00000fcc       $pdata$?CheckCard@COPOSElectronicValueRW@@UEAAJJJPEAJ@Z 0000000180036fcc     ElectronicValueRWImpl.obj
 0004:00000fd8       $pdata$atexit              0000000180036fd8     LIBCMT:utility.obj
 0004:00000fe4       $pdata$_onexit             0000000180036fe4     LIBCMT:utility.obj
 0004:00000ff0       $pdata$__scrt_is_nonwritable_in_current_image 0000000180036ff0     LIBCMT:utility.obj
 0004:00000ffc       $pdata$__scrt_is_nonwritable_in_current_image$filt$0 0000000180036ffc     LIBCMT:utility.obj
 0004:00001008       $pdata$__scrt_acquire_startup_lock 0000000180037008     LIBCMT:utility.obj
 0004:00001014       $pdata$__scrt_release_startup_lock 0000000180037014     LIBCMT:utility.obj
 0004:00001020       $pdata$__scrt_initialize_crt 0000000180037020     LIBCMT:utility.obj
 0004:0000102c       $pdata$__scrt_uninitialize_crt 000000018003702c     LIBCMT:utility.obj
 0004:00001038       $pdata$__scrt_initialize_onexit_tables 0000000180037038     LIBCMT:utility.obj
 0004:00001044       $pdata$__scrt_dllmain_exception_filter 0000000180037044     LIBCMT:utility.obj
 0004:00001050       $pdata$__scrt_dllmain_before_initialize_c 0000000180037050     LIBCMT:utility.obj
 0004:0000105c       $pdata$__scrt_dllmain_after_initialize_c 000000018003705c     LIBCMT:utility.obj
 0004:00001068       $pdata$__scrt_dllmain_uninitialize_c 0000000180037068     LIBCMT:utility.obj
 0004:00001074       $pdata$__scrt_dllmain_uninitialize_critical 0000000180037074     LIBCMT:utility.obj
 0004:00001080       $pdata$__scrt_dllmain_crt_thread_attach 0000000180037080     LIBCMT:utility.obj
 0004:0000108c       $pdata$__scrt_dllmain_crt_thread_detach 000000018003708c     LIBCMT:utility.obj
 0004:00001098       $pdata$_Init_thread_header 0000000180037098     LIBCMT:thread_safe_statics.obj
 0004:000010a4       $pdata$_Init_thread_footer 00000001800370a4     LIBCMT:thread_safe_statics.obj
 0004:000010b0       $pdata$_Init_thread_wait   00000001800370b0     LIBCMT:thread_safe_statics.obj
 0004:000010bc       $pdata$_Init_thread_notify 00000001800370bc     LIBCMT:thread_safe_statics.obj
 0004:000010c8       $pdata$?__scrt_uninitialize_thread_safe_statics@@YAXXZ 00000001800370c8     LIBCMT:thread_safe_statics.obj
 0004:000010d4       $pdata$?__scrt_initialize_thread_safe_statics@@YAHXZ 00000001800370d4     LIBCMT:thread_safe_statics.obj
 0004:000010e0       $pdata$__report_securityfailure 00000001800370e0     LIBCMT:gs_report.obj
 0004:000010ec       $pdata$__report_rangecheckfailure 00000001800370ec     LIBCMT:gs_report.obj
 0004:000010f8       $pdata$__report_gsfailure  00000001800370f8     LIBCMT:gs_report.obj
 0004:00001104       $pdata$capture_current_context 0000000180037104     LIBCMT:gs_report.obj
 0004:00001110       $pdata$capture_previous_context 0000000180037110     LIBCMT:gs_report.obj
 0004:0000111c       $pdata$__raise_securityfailure 000000018003711c     LIBCMT:gs_report.obj
 0004:00001128       $pdata$??2@YAPEAX_KAEBUnothrow_t@std@@@Z 0000000180037128     LIBCMT:new_scalar_nothrow.obj
 0004:00001134       $pdata$?catch$0@?0???2@YAPEAX_KAEBUnothrow_t@std@@@Z@4HA 0000000180037134     LIBCMT:new_scalar_nothrow.obj
 0004:00001140       $pdata$__GSHandlerCheckCommon 0000000180037140     LIBCMT:gshandler.obj
 0004:0000114c       $pdata$__GSHandlerCheck    000000018003714c     LIBCMT:gshandler.obj
 0004:00001158       $pdata$__GSHandlerCheck_SEH 0000000180037158     LIBCMT:gshandlerseh.obj
 0004:0000117c       $pdata$?dllmain_crt_process_attach@@YAHQEAUHINSTANCE__@@QEAX@Z 000000018003717c     LIBCMT:dll_dllmain.obj
 0004:00001188       $pdata$?fin$0@?0??dllmain_crt_process_attach@@YAHQEAUHINSTANCE__@@QEAX@Z@4HA 0000000180037188     LIBCMT:dll_dllmain.obj
 0004:00001194       $pdata$?dllmain_crt_process_detach@@YAH_N@Z 0000000180037194     LIBCMT:dll_dllmain.obj
 0004:000011a0       $pdata$?fin$0@?0??dllmain_crt_process_detach@@YAH_N@Z@4HA 00000001800371a0     LIBCMT:dll_dllmain.obj
 0004:000011ac       $pdata$?dllmain_crt_dispatch@@YAHQEAUHINSTANCE__@@KQEAX@Z 00000001800371ac     LIBCMT:dll_dllmain.obj
 0004:000011b8       $pdata$?dllmain_dispatch@@YAHQEAUHINSTANCE__@@KQEAX@Z 00000001800371b8     LIBCMT:dll_dllmain.obj
 0004:000011c4       $pdata$?filt$0@?0??dllmain_dispatch@@YAHQEAUHINSTANCE__@@KQEAX@Z@4HA 00000001800371c4     LIBCMT:dll_dllmain.obj
 0004:000011d0       $pdata$_DllMainCRTStartup  00000001800371d0     LIBCMT:dll_dllmain.obj
 0004:000011dc       $pdata$??2@YAPEAX_K@Z      00000001800371dc     LIBCMT:new_scalar.obj
 0004:000011e8       $pdata$__isa_available_init 00000001800371e8     LIBCMT:cpu_disp.obj
 0004:000011f4       $pdata$__scrt_fastfail     00000001800371f4     LIBCMT:utility_desktop.obj
 0004:00001200       $pdata$__security_init_cookie 0000000180037200     LIBCMT:gs_support.obj
 0004:0000120c       $pdata$__scrt_initialize_default_local_stdio_options 000000018003720c     LIBCMT:default_local_stdio_options.obj
 0004:00001218       $pdata$_RTC_Initialize     0000000180037218     LIBCMT:initsect.obj
 0004:00001224       $pdata$_RTC_Terminate      0000000180037224     LIBCMT:initsect.obj
 0004:00001230       $pdata$??0exception@std@@QEAA@AEBV01@@Z 0000000180037230     LIBCMT:throw_bad_alloc.obj
 0004:0000123c       $pdata$??_Gbad_alloc@std@@UEAAPEAXI@Z 000000018003723c     LIBCMT:throw_bad_alloc.obj
 0004:0000123c       $pdata$??_Gexception@std@@UEAAPEAXI@Z 000000018003723c     LIBCMT:throw_bad_alloc.obj
 0004:0000123c       $pdata$??_Gbad_array_new_length@std@@UEAAPEAXI@Z 000000018003723c     LIBCMT:throw_bad_alloc.obj
 0004:0000123c       $pdata$??_Gbad_exception@std@@UEAAPEAXI@Z 000000018003723c     libvcruntime:frame.obj
 0004:00001248       $pdata$??0bad_alloc@std@@QEAA@AEBV01@@Z 0000000180037248     LIBCMT:throw_bad_alloc.obj
 0004:00001254       $pdata$??0bad_array_new_length@std@@QEAA@AEBV01@@Z 0000000180037254     LIBCMT:throw_bad_alloc.obj
 0004:00001260       $pdata$?__scrt_throw_std_bad_alloc@@YAXXZ 0000000180037260     LIBCMT:throw_bad_alloc.obj
 0004:0000126c       $pdata$?__scrt_throw_std_bad_array_new_length@@YAXXZ 000000018003726c     LIBCMT:throw_bad_alloc.obj
 0004:00001284       $pdata$??_Gtype_info@@UEAAPEAXI@Z 0000000180037284     LIBCMT:std_type_info_static.obj
 0004:00001290       $pdata$??0CAtlBaseModule@ATL@@QEAA@XZ 0000000180037290     atls:atlbase.obj
 0004:0000129c       $pdata$??1CAtlBaseModule@ATL@@QEAA@XZ 000000018003729c     atls:atlbase.obj
 0004:000012a8       $pdata$??__E_AtlBaseModule@ATL@@YAXXZ 00000001800372a8     atls:atlbase.obj
 0004:000012b4       $pdata$AtlThunk_AllocateData 00000001800372b4     atls:atlthunk.obj
 0004:000012c0       $pdata$AtlThunk_InitData   00000001800372c0     atls:atlthunk.obj
 0004:000012cc       $pdata$AtlThunk_DataToCode 00000001800372cc     atls:atlthunk.obj
 0004:000012d8       $pdata$AtlThunk_FreeData   00000001800372d8     atls:atlthunk.obj
 0004:000012e4       $pdata$?__InitializeThunkPool@@YAHXZ 00000001800372e4     atls:atlthunk.obj
 0004:000012f0       $pdata$?__AllocStdCallThunk_cmn@@YAPEAXXZ 00000001800372f0     atls:atlthunk.obj
 0004:000012fc       $pdata$??$GetProcAddressAll@P6AXPEAUAtlThunkData_t@@PEAX_K@Z@@YAP6AXPEAUAtlThunkData_t@@PEAX_K@ZPEAP6AX012@Z@Z 00000001800372fc     atls:atlthunk.obj
