 OPOSVoiceRecognition

 Timestamp is 61a757ac (Wed Dec  1 20:08:28 2021)

 Preferred load address is 0000000180000000

 Start         Length     Name                   Class
 0001:00000000 000000c0H .text$di                CODE
 0001:000000c0 00023d60H .text$mn                CODE
 0001:00023e20 00000040H .text$mn$00             CODE
 0001:00023e60 00000660H .text$x                 CODE
 0001:000244c0 00000078H .text$yd                CODE
 0002:00000000 00000638H .idata$5                DATA
 0002:00000638 00000030H .00cfg                  DATA
 0002:00000668 00000008H .CRT$XCA                DATA
 0002:00000670 00000008H .CRT$XCL                DATA
 0002:00000678 00000020H .CRT$XCU                DATA
 0002:00000698 00000008H .CRT$XCZ                DATA
 0002:000006a0 00000008H .CRT$XIA                DATA
 0002:000006a8 00000020H .CRT$XIC                DATA
 0002:000006c8 00000008H .CRT$XIZ                DATA
 0002:000006d0 00000008H .CRT$XLA                DATA
 0002:000006d8 00000008H .CRT$XLZ                DATA
 0002:000006e0 00000008H .CRT$XPA                DATA
 0002:000006e8 00000010H .CRT$XPX                DATA
 0002:000006f8 00000008H .CRT$XPXA               DATA
 0002:00000700 00000008H .CRT$XPZ                DATA
 0002:00000708 00000008H .CRT$XTA                DATA
 0002:00000710 00000010H .CRT$XTZ                DATA
 0002:00000718 00000000H .gehcont$y              DATA
 0002:00000718 00000000H .gfids$y                DATA
 0002:00000720 0000a460H .rdata                  DATA
 0002:0000ab80 00000000H .rdata$CastGuardVftablesA DATA
 0002:0000ab80 00000000H .rdata$CastGuardVftablesC DATA
 0002:0000ab80 00000028H .rdata$T                DATA
 0002:0000aba8 00000274H .rdata$r                DATA
 0002:0000ae1c 00000048H .rdata$voltmd           DATA
 0002:0000ae64 0000043cH .rdata$zzzdbg           DATA
 0002:0000b2a0 00000008H .rtc$IAA                DATA
 0002:0000b2a8 00000008H .rtc$IZZ                DATA
 0002:0000b2b0 00000008H .rtc$TAA                DATA
 0002:0000b2b8 00000008H .rtc$TZZ                DATA
 0002:0000b2c0 00000004H .tls                    DATA
 0002:0000b2c4 00000004H .tls$                   DATA
 0002:0000b2c8 00000008H .tls$ZZZ                DATA
 0002:0000b2d0 00001940H .xdata                  DATA
 0002:0000cc10 00000150H .xdata$x                DATA
 0002:0000cd60 00000008H ATL$__a                 DATA
 0002:0000cd68 00000008H ATL$__z                 DATA
 0002:0000cd70 000000b4H .edata                  DATA
 0002:0000ce24 00000078H .idata$2                DATA
 0002:0000ce9c 00000014H .idata$3                DATA
 0002:0000ceb0 00000638H .idata$4                DATA
 0002:0000d4e8 00000c5cH .idata$6                DATA
 0003:00000000 00000d88H .data                   DATA
 0003:00000d88 000000a8H .data$r                 DATA
 0003:00000e30 00000020H .data$rs                DATA
 0003:00000e50 000013ecH .bss                    DATA
 0004:00000000 0000201cH .pdata                  DATA
 0005:00000000 000000f4H _RDATA                  DATA
 0006:00000000 00000220H .rsrc$01                DATA
 0006:00000220 00003dc0H .rsrc$02                DATA

  Address         Publics by Value              Rva+Base               Lib:Object

 0000:00000000       __x64_code_ranges_to_entry_points 0000000000000000     <absolute>
 0000:00000000       __x64_code_ranges_to_entry_points_count 0000000000000000     <absolute>
 0000:00000000       __guard_fids_count         0000000000000000     <absolute>
 0000:00000000       __guard_longjmp_table      0000000000000000     <absolute>
 0000:00000000       __arm64x_extra_rfe_table   0000000000000000     <absolute>
 0000:00000000       __arm64x_redirection_metadata 0000000000000000     <absolute>
 0000:00000000       __guard_iat_table          0000000000000000     <absolute>
 0000:00000000       __hybrid_code_map          0000000000000000     <absolute>
 0000:00000000       __arm64x_extra_rfe_table_size 0000000000000000     <absolute>
 0000:00000000       ___safe_se_handler_count   0000000000000000     <absolute>
 0000:00000000       __guard_iat_count          0000000000000000     <absolute>
 0000:00000000       __guard_longjmp_count      0000000000000000     <absolute>
 0000:00000000       ___safe_se_handler_table   0000000000000000     <absolute>
 0000:00000000       __dynamic_value_reloc_table 0000000000000000     <absolute>
 0000:00000000       __hybrid_auxiliary_iat     0000000000000000     <absolute>
 0000:00000000       __hybrid_auxiliary_iat_copy 0000000000000000     <absolute>
 0000:00000000       __guard_eh_cont_count      0000000000000000     <absolute>
 0000:00000000       __AbsoluteZero             0000000000000000     <absolute>
 0000:00000000       __guard_check_icall_a64n_fptr 0000000000000000     <absolute>
 0000:00000000       __guard_fids_table         0000000000000000     <absolute>
 0000:00000000       __arm64x_redirection_metadata_count 0000000000000000     <absolute>
 0000:00000000       __enclave_config           0000000000000000     <absolute>
 0000:00000000       __guard_eh_cont_table      0000000000000000     <absolute>
 0000:00000000       __arm64x_native_entrypoint 0000000000000000     <absolute>
 0000:00000000       __hybrid_code_map_count    0000000000000000     <absolute>
 0000:00000100       __guard_flags              0000000000000100     <absolute>
 0000:00000000       __ImageBase                0000000180000000     <linker-defined>
 0001:000000c0       ?DupWide@_CW@@AEAAXXZ      00000001800010c0 f   CWString.obj
 0001:000000e8       ?cw_dup@@YAXPEBDAEAHAEAPEA_W1@Z 00000001800010e8 f   CWString.obj
 0001:000001c8       ?cw_memcpy@@YAHPEA_WPEBDH@Z 00000001800011c8 f   CWString.obj
 0001:00000214       ?cw_strcpy@@YAHPEA_WPEBD@Z 0000000180001214 f   CWString.obj
 0001:00000228       ??0CAtlComModule@ATL@@QEAA@XZ 0000000180001228 f i OposVariant.obj
 0001:000002a8       ??0CAtlWinModule@ATL@@QEAA@XZ 00000001800012a8 f i OposVariant.obj
 0001:00000314       ??0OposDispParms@@QEAA@PEAVOposVariant@@H@Z 0000000180001314 f   OposVariant.obj
 0001:000003bc       ??1OposDispParms@@QEAA@XZ  00000001800013bc f   OposVariant.obj
 0001:000003d4       ??_Estringdispid@CComTypeInfoHolder@ATL@@QEAAPEAXI@Z 00000001800013d4 f i OposVariant.obj
 0001:00000478       ?AtlWinModuleTerm@ATL@@YAJPEAU_ATL_WIN_MODULE70@1@PEAUHINSTANCE__@@@Z 0000000180001478 f i OposVariant.obj
 0001:00000528       ?ChangeBSTR@OposVariant@@QEAAXPEAPEA_WAEAJ@Z 0000000180001528 f   OposVariant.obj
 0001:00000588       ?ChangeLONG@OposVariant@@QEAAXPEAJAEAJ@Z 0000000180001588 f   OposVariant.obj
 0001:000005e4       ?GetLONG@OposVariant@@QEAAJXZ 00000001800015e4 f   OposVariant.obj
 0001:00000608       ?SetBSTR@OposVariant@@QEAAXPEA_WAEAJ@Z 0000000180001608 f   OposVariant.obj
 0001:00000648       ?SetBSTR_Copy@OposVariant@@QEAAXPEA_WAEAJ@Z 0000000180001648 f   OposVariant.obj
 0001:000006b8       ?SetBSTR_InOutPtr@OposVariant@@QEAA_NPEAPEA_WAEAJ@Z 00000001800016b8 f   OposVariant.obj
 0001:00000708       ?SetDispatch_Ptr@OposVariant@@QEAAXPEAUIDispatch@@AEAJ@Z 0000000180001708 f   OposVariant.obj
 0001:00000760       ?SetLONG@OposVariant@@QEAAXJ@Z 0000000180001760 f   OposVariant.obj
 0001:00000790       ?SetLONG_Ptr@OposVariant@@QEAAXPEAJAEAJ@Z 0000000180001790 f   OposVariant.obj
 0001:000007dc       ?SetString@OposVariant@@QEAAXPEB_WAEAJ@Z 00000001800017dc f   OposVariant.obj
 0001:00000840       ?SetVARIANT_BOOL@OposVariant@@QEAAXF@Z 0000000180001840 f   OposVariant.obj
 0001:00000878       ?Term@CAtlComModule@ATL@@QEAAXXZ 0000000180001878 f i OposVariant.obj
 0001:000008e8       ?_AtlInitializeCriticalSectionEx@ATL@@YAHPEAU_RTL_CRITICAL_SECTION@@KK@Z 00000001800018e8 f i OposVariant.obj
 0001:000008f0       ?_AtlRaiseException@ATL@@YAXKK@Z 00000001800018f0 f i OposVariant.obj
 0001:00000900       ?Next@?$CComEnumImpl@UIEnumConnections@@$1?_GUID_b196b287_bab4_101a_b69c_00aa00341d07@@3U__s_GUID@@BUtagCONNECTDATA@@V?$_Copy@UtagCONNECTDATA@@@ATL@@@ATL@@UEAAJKPEAUtagCONNECTDATA@@PEAK@Z 0000000180001900 f i VoiceRecognition.obj
 0001:000009c8       ?Skip@?$CComEnumImpl@UIEnumConnections@@$1?_GUID_b196b287_bab4_101a_b69c_00aa00341d07@@3U__s_GUID@@BUtagCONNECTDATA@@V?$_Copy@UtagCONNECTDATA@@@ATL@@@ATL@@UEAAJK@Z 00000001800019c8 f i VoiceRecognition.obj
 0001:000009f4       ?Reset@?$CComEnumImpl@UIEnumConnections@@$1?_GUID_b196b287_bab4_101a_b69c_00aa00341d07@@3U__s_GUID@@BUtagCONNECTDATA@@V?$_Copy@UtagCONNECTDATA@@@ATL@@@ATL@@UEAAJXZ 00000001800019f4 f i VoiceRecognition.obj
 0001:000009f4       ?Reset@?$CComEnumImpl@UIEnumConnectionPoints@@$1?_GUID_b196b285_bab4_101a_b69c_00aa00341d07@@3U__s_GUID@@BPEAUIConnectionPoint@@V?$_CopyInterface@UIConnectionPoint@@@ATL@@@ATL@@UEAAJXZ 00000001800019f4 f i VoiceRecognition.obj
 0001:00000a00       ?Clone@?$CComEnumImpl@UIEnumConnections@@$1?_GUID_b196b287_bab4_101a_b69c_00aa00341d07@@3U__s_GUID@@BUtagCONNECTDATA@@V?$_Copy@UtagCONNECTDATA@@@ATL@@@ATL@@UEAAJPEAPEAUIEnumConnections@@@Z 0000000180001a00 f i VoiceRecognition.obj
 0001:00000b2c       ?AddRef@?$CComObject@V?$CComEnum@UIEnumConnectionPoints@@$1?_GUID_b196b285_bab4_101a_b69c_00aa00341d07@@3U__s_GUID@@BPEAUIConnectionPoint@@V?$_CopyInterface@UIConnectionPoint@@@ATL@@VCComSingleThreadModel@6@@ATL@@@ATL@@UEAAKXZ 0000000180001b2c f i VoiceRecognition.obj
 0001:00000b2c       ?AddRef@?$CComObject@V?$CComEnum@UIEnumConnections@@$1?_GUID_b196b287_bab4_101a_b69c_00aa00341d07@@3U__s_GUID@@BUtagCONNECTDATA@@V?$_Copy@UtagCONNECTDATA@@@ATL@@VCComSingleThreadModel@6@@ATL@@@ATL@@UEAAKXZ 0000000180001b2c f i VoiceRecognition.obj
 0001:00000b38       ?Release@?$CComObject@V?$CComEnum@UIEnumConnections@@$1?_GUID_b196b287_bab4_101a_b69c_00aa00341d07@@3U__s_GUID@@BUtagCONNECTDATA@@V?$_Copy@UtagCONNECTDATA@@@ATL@@VCComSingleThreadModel@6@@ATL@@@ATL@@UEAAKXZ 0000000180001b38 f i VoiceRecognition.obj
 0001:00000b38       ?Release@?$CComObject@V?$CComEnum@UIEnumConnectionPoints@@$1?_GUID_b196b285_bab4_101a_b69c_00aa00341d07@@3U__s_GUID@@BPEAUIConnectionPoint@@V?$_CopyInterface@UIConnectionPoint@@@ATL@@VCComSingleThreadModel@6@@ATL@@@ATL@@UEAAKXZ 0000000180001b38 f i VoiceRecognition.obj
 0001:00000b8c       ?QueryInterface@?$CComObject@V?$CComEnum@UIEnumConnections@@$1?_GUID_b196b287_bab4_101a_b69c_00aa00341d07@@3U__s_GUID@@BUtagCONNECTDATA@@V?$_Copy@UtagCONNECTDATA@@@ATL@@VCComSingleThreadModel@6@@ATL@@@ATL@@UEAAJAEBU_GUID@@PEAPEAX@Z 0000000180001b8c f i VoiceRecognition.obj
 0001:00000ba0       ??_G?$CComObject@V?$CComEnum@UIEnumConnections@@$1?_GUID_b196b287_bab4_101a_b69c_00aa00341d07@@3U__s_GUID@@BUtagCONNECTDATA@@V?$_Copy@UtagCONNECTDATA@@@ATL@@VCComSingleThreadModel@6@@ATL@@@ATL@@UEAAPEAXI@Z 0000000180001ba0 f i VoiceRecognition.obj
 0001:00000ba0       ??_E?$CComObject@V?$CComEnum@UIEnumConnections@@$1?_GUID_b196b287_bab4_101a_b69c_00aa00341d07@@3U__s_GUID@@BUtagCONNECTDATA@@V?$_Copy@UtagCONNECTDATA@@@ATL@@VCComSingleThreadModel@6@@ATL@@@ATL@@UEAAPEAXI@Z 0000000180001ba0 f i VoiceRecognition.obj
 0001:00000bf8       ?OnFinalMessage@?$CWindowImplBaseT@VCWindow@ATL@@V?$CWinTraits@$0FGAAAAAA@$0A@@2@@ATL@@UEAAXPEAUHWND__@@@Z 0000000180001bf8 f i VoiceRecognition.obj
 0001:00000bf8       _guard_check_icall_nop     0000000180001bf8 f i LIBCMT:guard_support.obj
 0001:00000bf8       ?ObjectMain@CComObjectRootBase@ATL@@SAX_N@Z 0000000180001bf8 f i VoiceRecognition.obj
 0001:00000bfc       ?EnableModeless@?$IOleInPlaceActiveObjectImpl@VCOPOSVoiceRecognition@@@ATL@@UEAAJH@Z 0000000180001bfc f i VoiceRecognition.obj
 0001:00000bfc       ?GetCategoryMap@CComObjectRootBase@ATL@@SAPEBU_ATL_CATMAP_ENTRY@2@XZ 0000000180001bfc f i VoiceRecognition.obj
 0001:00000bfc       ?Update@?$IOleObjectImpl@VCOPOSVoiceRecognition@@@ATL@@UEAAJXZ 0000000180001bfc f i VoiceRecognition.obj
 0001:00000bfc       ?SaveCompleted@?$IPersistStorageImpl@VCOPOSVoiceRecognition@@@ATL@@UEAAJPEAUIStorage@@@Z 0000000180001bfc f i VoiceRecognition.obj
 0001:00000bfc       ?Release@CRegObject@ATL@@UEAAKXZ 0000000180001bfc f i VoiceRecognition.obj
 0001:00000bfc       ?ResizeBorder@?$IOleInPlaceActiveObjectImpl@VCOPOSVoiceRecognition@@@ATL@@UEAAJPEBUtagRECT@@PEAUIOleInPlaceUIWindow@@H@Z 0000000180001bfc f i VoiceRecognition.obj
 0001:00000bfc       ?OnFrameWindowActivate@?$IOleInPlaceActiveObjectImpl@VCOPOSVoiceRecognition@@@ATL@@UEAAJH@Z 0000000180001bfc f i VoiceRecognition.obj
 0001:00000bfc       ?OnAmbientPropertyChange@?$IOleControlImpl@VCOPOSVoiceRecognition@@@ATL@@UEAAJJ@Z 0000000180001bfc f i VoiceRecognition.obj
 0001:00000bfc       ?SetHostNames@?$IOleObjectImpl@VCOPOSVoiceRecognition@@@ATL@@UEAAJPEB_W0@Z 0000000180001bfc f i VoiceRecognition.obj
 0001:00000bfc       ?IsUpToDate@?$IOleObjectImpl@VCOPOSVoiceRecognition@@@ATL@@UEAAJXZ 0000000180001bfc f i VoiceRecognition.obj
 0001:00000bfc       ?GetObjectDescription@?$CComCoClass@VCOPOSVoiceRecognition@@$1?CLSID_OPOSVoiceRecognition@@3U_GUID@@B@ATL@@SAPEB_WXZ 0000000180001bfc f i VoiceRecognition.obj
 0001:00000bfc       ?HandsOffStorage@?$IPersistStorageImpl@VCOPOSVoiceRecognition@@@ATL@@UEAAJXZ 0000000180001bfc f i VoiceRecognition.obj
 0001:00000c00       ??_E?$CComObject@VCOPOSVoiceRecognition@@@ATL@@W7EAAPEAXI@Z 0000000180001c00 f i VoiceRecognition.obj
 0001:00000c0c       ??_E?$CComObject@VCOPOSVoiceRecognition@@@ATL@@WHA@EAAPEAXI@Z 0000000180001c0c f i VoiceRecognition.obj
 0001:00000c18       ?QueryInterface@?$CComObject@VCOPOSVoiceRecognition@@@ATL@@WLI@EAAJAEBU_GUID@@PEAPEAX@Z 0000000180001c18 f i VoiceRecognition.obj
 0001:00000c24       ?AddRef@?$CComObject@VCOPOSVoiceRecognition@@@ATL@@WLI@EAAKXZ 0000000180001c24 f i VoiceRecognition.obj
 0001:00000c30       ?Release@?$CComObject@VCOPOSVoiceRecognition@@@ATL@@WLI@EAAKXZ 0000000180001c30 f i VoiceRecognition.obj
 0001:00000c3c       ?QueryInterface@?$CComObject@VCOPOSVoiceRecognition@@@ATL@@WMA@EAAJAEBU_GUID@@PEAPEAX@Z 0000000180001c3c f i VoiceRecognition.obj
 0001:00000c48       ?AddRef@?$CComObject@VCOPOSVoiceRecognition@@@ATL@@WMA@EAAKXZ 0000000180001c48 f i VoiceRecognition.obj
 0001:00000c54       ?Release@?$CComObject@VCOPOSVoiceRecognition@@@ATL@@WMA@EAAKXZ 0000000180001c54 f i VoiceRecognition.obj
 0001:00000c60       ?QueryInterface@?$CComObject@VCOPOSVoiceRecognition@@@ATL@@WMI@EAAJAEBU_GUID@@PEAPEAX@Z 0000000180001c60 f i VoiceRecognition.obj
 0001:00000c6c       ?AddRef@?$CComObject@VCOPOSVoiceRecognition@@@ATL@@WMI@EAAKXZ 0000000180001c6c f i VoiceRecognition.obj
 0001:00000c78       ?Release@?$CComObject@VCOPOSVoiceRecognition@@@ATL@@WMI@EAAKXZ 0000000180001c78 f i VoiceRecognition.obj
 0001:00000c84       ?QueryInterface@?$CComObject@VCOPOSVoiceRecognition@@@ATL@@WNA@EAAJAEBU_GUID@@PEAPEAX@Z 0000000180001c84 f i VoiceRecognition.obj
 0001:00000c90       ?AddRef@?$CComObject@VCOPOSVoiceRecognition@@@ATL@@WNA@EAAKXZ 0000000180001c90 f i VoiceRecognition.obj
 0001:00000c9c       ?Release@?$CComObject@VCOPOSVoiceRecognition@@@ATL@@WNA@EAAKXZ 0000000180001c9c f i VoiceRecognition.obj
 0001:00000ca8       ?QueryInterface@?$CComObject@VCOPOSVoiceRecognition@@@ATL@@WNI@EAAJAEBU_GUID@@PEAPEAX@Z 0000000180001ca8 f i VoiceRecognition.obj
 0001:00000cb4       ?AddRef@?$CComObject@VCOPOSVoiceRecognition@@@ATL@@WNI@EAAKXZ 0000000180001cb4 f i VoiceRecognition.obj
 0001:00000cc0       ?Release@?$CComObject@VCOPOSVoiceRecognition@@@ATL@@WNI@EAAKXZ 0000000180001cc0 f i VoiceRecognition.obj
 0001:00000ccc       ?QueryInterface@?$CComObject@VCOPOSVoiceRecognition@@@ATL@@WOA@EAAJAEBU_GUID@@PEAPEAX@Z 0000000180001ccc f i VoiceRecognition.obj
 0001:00000cd8       ?AddRef@?$CComObject@VCOPOSVoiceRecognition@@@ATL@@WOA@EAAKXZ 0000000180001cd8 f i VoiceRecognition.obj
 0001:00000ce4       ?Release@?$CComObject@VCOPOSVoiceRecognition@@@ATL@@WOA@EAAKXZ 0000000180001ce4 f i VoiceRecognition.obj
 0001:00000cf0       ?QueryInterface@?$CComObject@VCOPOSVoiceRecognition@@@ATL@@WOI@EAAJAEBU_GUID@@PEAPEAX@Z 0000000180001cf0 f i VoiceRecognition.obj
 0001:00000cfc       ?AddRef@?$CComObject@VCOPOSVoiceRecognition@@@ATL@@WOI@EAAKXZ 0000000180001cfc f i VoiceRecognition.obj
 0001:00000d08       ?Release@?$CComObject@VCOPOSVoiceRecognition@@@ATL@@WOI@EAAKXZ 0000000180001d08 f i VoiceRecognition.obj
 0001:00000d14       ?QueryInterface@?$CComObject@VCOPOSVoiceRecognition@@@ATL@@WPA@EAAJAEBU_GUID@@PEAPEAX@Z 0000000180001d14 f i VoiceRecognition.obj
 0001:00000d20       ?AddRef@?$CComObject@VCOPOSVoiceRecognition@@@ATL@@WPA@EAAKXZ 0000000180001d20 f i VoiceRecognition.obj
 0001:00000d2c       ?Release@?$CComObject@VCOPOSVoiceRecognition@@@ATL@@WPA@EAAKXZ 0000000180001d2c f i VoiceRecognition.obj
 0001:00000d38       ?QueryInterface@?$CComObject@VCOPOSVoiceRecognition@@@ATL@@WPI@EAAJAEBU_GUID@@PEAPEAX@Z 0000000180001d38 f i VoiceRecognition.obj
 0001:00000d44       ?AddRef@?$CComObject@VCOPOSVoiceRecognition@@@ATL@@WPI@EAAKXZ 0000000180001d44 f i VoiceRecognition.obj
 0001:00000d50       ?Release@?$CComObject@VCOPOSVoiceRecognition@@@ATL@@WPI@EAAKXZ 0000000180001d50 f i VoiceRecognition.obj
 0001:00000d5c       ?QueryInterface@?$CComObject@VCOPOSVoiceRecognition@@@ATL@@WBAA@EAAJAEBU_GUID@@PEAPEAX@Z 0000000180001d5c f i VoiceRecognition.obj
 0001:00000d68       ?AddRef@?$CComObject@VCOPOSVoiceRecognition@@@ATL@@WBAA@EAAKXZ 0000000180001d68 f i VoiceRecognition.obj
 0001:00000d74       ?Release@?$CComObject@VCOPOSVoiceRecognition@@@ATL@@WBAA@EAAKXZ 0000000180001d74 f i VoiceRecognition.obj
 0001:00000d80       ?QueryInterface@?$CComObject@VCOPOSVoiceRecognition@@@ATL@@WBAI@EAAJAEBU_GUID@@PEAPEAX@Z 0000000180001d80 f i VoiceRecognition.obj
 0001:00000d8c       ?AddRef@?$CComObject@VCOPOSVoiceRecognition@@@ATL@@WBAI@EAAKXZ 0000000180001d8c f i VoiceRecognition.obj
 0001:00000d98       ?Release@?$CComObject@VCOPOSVoiceRecognition@@@ATL@@WBAI@EAAKXZ 0000000180001d98 f i VoiceRecognition.obj
 0001:00000da4       ?QueryInterface@?$CComObject@VCOPOSVoiceRecognition@@@ATL@@WBBA@EAAJAEBU_GUID@@PEAPEAX@Z 0000000180001da4 f i VoiceRecognition.obj
 0001:00000db0       ?AddRef@?$CComObject@VCOPOSVoiceRecognition@@@ATL@@WBBA@EAAKXZ 0000000180001db0 f i VoiceRecognition.obj
 0001:00000dbc       ?Release@?$CComObject@VCOPOSVoiceRecognition@@@ATL@@WBBA@EAAKXZ 0000000180001dbc f i VoiceRecognition.obj
 0001:00000dc8       ?QueryInterface@?$CComObject@VCOPOSVoiceRecognition@@@ATL@@WBBI@EAAJAEBU_GUID@@PEAPEAX@Z 0000000180001dc8 f i VoiceRecognition.obj
 0001:00000dd4       ?AddRef@?$CComObject@VCOPOSVoiceRecognition@@@ATL@@WBBI@EAAKXZ 0000000180001dd4 f i VoiceRecognition.obj
 0001:00000de0       ?Release@?$CComObject@VCOPOSVoiceRecognition@@@ATL@@WBBI@EAAKXZ 0000000180001de0 f i VoiceRecognition.obj
 0001:00000dec       ?AddRef@?$CComObject@VCOPOSVoiceRecognition@@@ATL@@WBCI@EAAKXZ 0000000180001dec f i VoiceRecognition.obj
 0001:00000df8       ?Release@?$CComObject@VCOPOSVoiceRecognition@@@ATL@@WBCI@EAAKXZ 0000000180001df8 f i VoiceRecognition.obj
 0001:00000e04       ?AddRef@?$CComObject@VCOPOSVoiceRecognition@@@ATL@@WBEA@EAAKXZ 0000000180001e04 f i VoiceRecognition.obj
 0001:00000e10       ?Release@?$CComObject@VCOPOSVoiceRecognition@@@ATL@@WBEA@EAAKXZ 0000000180001e10 f i VoiceRecognition.obj
 0001:00000e1c       ??_E?$CComContainedObject@VCOPOSVoiceRecognition@@@ATL@@W7EAAPEAXI@Z 0000000180001e1c f i VoiceRecognition.obj
 0001:00000e28       ??_E?$CComContainedObject@VCOPOSVoiceRecognition@@@ATL@@WHA@EAAPEAXI@Z 0000000180001e28 f i VoiceRecognition.obj
 0001:00000e34       ?QueryInterface@?$CComContainedObject@VCOPOSVoiceRecognition@@@ATL@@WLI@EAAJAEBU_GUID@@PEAPEAX@Z 0000000180001e34 f i VoiceRecognition.obj
 0001:00000e40       ?AddRef@?$CComContainedObject@VCOPOSVoiceRecognition@@@ATL@@WLI@EAAKXZ 0000000180001e40 f i VoiceRecognition.obj
 0001:00000e4c       ?Release@?$CComContainedObject@VCOPOSVoiceRecognition@@@ATL@@WLI@EAAKXZ 0000000180001e4c f i VoiceRecognition.obj
 0001:00000e58       ?QueryInterface@?$CComContainedObject@VCOPOSVoiceRecognition@@@ATL@@WMA@EAAJAEBU_GUID@@PEAPEAX@Z 0000000180001e58 f i VoiceRecognition.obj
 0001:00000e64       ?AddRef@?$CComContainedObject@VCOPOSVoiceRecognition@@@ATL@@WMA@EAAKXZ 0000000180001e64 f i VoiceRecognition.obj
 0001:00000e70       ?Release@?$CComContainedObject@VCOPOSVoiceRecognition@@@ATL@@WMA@EAAKXZ 0000000180001e70 f i VoiceRecognition.obj
 0001:00000e7c       ?QueryInterface@?$CComContainedObject@VCOPOSVoiceRecognition@@@ATL@@WMI@EAAJAEBU_GUID@@PEAPEAX@Z 0000000180001e7c f i VoiceRecognition.obj
 0001:00000e88       ?AddRef@?$CComContainedObject@VCOPOSVoiceRecognition@@@ATL@@WMI@EAAKXZ 0000000180001e88 f i VoiceRecognition.obj
 0001:00000e94       ?Release@?$CComContainedObject@VCOPOSVoiceRecognition@@@ATL@@WMI@EAAKXZ 0000000180001e94 f i VoiceRecognition.obj
 0001:00000ea0       ?QueryInterface@?$CComContainedObject@VCOPOSVoiceRecognition@@@ATL@@WNA@EAAJAEBU_GUID@@PEAPEAX@Z 0000000180001ea0 f i VoiceRecognition.obj
 0001:00000eac       ?AddRef@?$CComContainedObject@VCOPOSVoiceRecognition@@@ATL@@WNA@EAAKXZ 0000000180001eac f i VoiceRecognition.obj
 0001:00000eb8       ?Release@?$CComContainedObject@VCOPOSVoiceRecognition@@@ATL@@WNA@EAAKXZ 0000000180001eb8 f i VoiceRecognition.obj
 0001:00000ec4       ?QueryInterface@?$CComContainedObject@VCOPOSVoiceRecognition@@@ATL@@WNI@EAAJAEBU_GUID@@PEAPEAX@Z 0000000180001ec4 f i VoiceRecognition.obj
 0001:00000ed0       ?AddRef@?$CComContainedObject@VCOPOSVoiceRecognition@@@ATL@@WNI@EAAKXZ 0000000180001ed0 f i VoiceRecognition.obj
 0001:00000edc       ?Release@?$CComContainedObject@VCOPOSVoiceRecognition@@@ATL@@WNI@EAAKXZ 0000000180001edc f i VoiceRecognition.obj
 0001:00000ee8       ?QueryInterface@?$CComContainedObject@VCOPOSVoiceRecognition@@@ATL@@WOA@EAAJAEBU_GUID@@PEAPEAX@Z 0000000180001ee8 f i VoiceRecognition.obj
 0001:00000ef4       ?AddRef@?$CComContainedObject@VCOPOSVoiceRecognition@@@ATL@@WOA@EAAKXZ 0000000180001ef4 f i VoiceRecognition.obj
 0001:00000f00       ?Release@?$CComContainedObject@VCOPOSVoiceRecognition@@@ATL@@WOA@EAAKXZ 0000000180001f00 f i VoiceRecognition.obj
 0001:00000f0c       ?QueryInterface@?$CComContainedObject@VCOPOSVoiceRecognition@@@ATL@@WOI@EAAJAEBU_GUID@@PEAPEAX@Z 0000000180001f0c f i VoiceRecognition.obj
 0001:00000f18       ?AddRef@?$CComContainedObject@VCOPOSVoiceRecognition@@@ATL@@WOI@EAAKXZ 0000000180001f18 f i VoiceRecognition.obj
 0001:00000f24       ?Release@?$CComContainedObject@VCOPOSVoiceRecognition@@@ATL@@WOI@EAAKXZ 0000000180001f24 f i VoiceRecognition.obj
 0001:00000f30       ?QueryInterface@?$CComContainedObject@VCOPOSVoiceRecognition@@@ATL@@WPA@EAAJAEBU_GUID@@PEAPEAX@Z 0000000180001f30 f i VoiceRecognition.obj
 0001:00000f3c       ?AddRef@?$CComContainedObject@VCOPOSVoiceRecognition@@@ATL@@WPA@EAAKXZ 0000000180001f3c f i VoiceRecognition.obj
 0001:00000f48       ?Release@?$CComContainedObject@VCOPOSVoiceRecognition@@@ATL@@WPA@EAAKXZ 0000000180001f48 f i VoiceRecognition.obj
 0001:00000f54       ?QueryInterface@?$CComContainedObject@VCOPOSVoiceRecognition@@@ATL@@WPI@EAAJAEBU_GUID@@PEAPEAX@Z 0000000180001f54 f i VoiceRecognition.obj
 0001:00000f60       ?AddRef@?$CComContainedObject@VCOPOSVoiceRecognition@@@ATL@@WPI@EAAKXZ 0000000180001f60 f i VoiceRecognition.obj
 0001:00000f6c       ?Release@?$CComContainedObject@VCOPOSVoiceRecognition@@@ATL@@WPI@EAAKXZ 0000000180001f6c f i VoiceRecognition.obj
 0001:00000f78       ?QueryInterface@?$CComContainedObject@VCOPOSVoiceRecognition@@@ATL@@WBAA@EAAJAEBU_GUID@@PEAPEAX@Z 0000000180001f78 f i VoiceRecognition.obj
 0001:00000f84       ?AddRef@?$CComContainedObject@VCOPOSVoiceRecognition@@@ATL@@WBAA@EAAKXZ 0000000180001f84 f i VoiceRecognition.obj
 0001:00000f90       ?Release@?$CComContainedObject@VCOPOSVoiceRecognition@@@ATL@@WBAA@EAAKXZ 0000000180001f90 f i VoiceRecognition.obj
 0001:00000f9c       ?QueryInterface@?$CComContainedObject@VCOPOSVoiceRecognition@@@ATL@@WBAI@EAAJAEBU_GUID@@PEAPEAX@Z 0000000180001f9c f i VoiceRecognition.obj
 0001:00000fa8       ?AddRef@?$CComContainedObject@VCOPOSVoiceRecognition@@@ATL@@WBAI@EAAKXZ 0000000180001fa8 f i VoiceRecognition.obj
 0001:00000fb4       ?Release@?$CComContainedObject@VCOPOSVoiceRecognition@@@ATL@@WBAI@EAAKXZ 0000000180001fb4 f i VoiceRecognition.obj
 0001:00000fc0       ?QueryInterface@?$CComContainedObject@VCOPOSVoiceRecognition@@@ATL@@WBBA@EAAJAEBU_GUID@@PEAPEAX@Z 0000000180001fc0 f i VoiceRecognition.obj
 0001:00000fcc       ?AddRef@?$CComContainedObject@VCOPOSVoiceRecognition@@@ATL@@WBBA@EAAKXZ 0000000180001fcc f i VoiceRecognition.obj
 0001:00000fd8       ?Release@?$CComContainedObject@VCOPOSVoiceRecognition@@@ATL@@WBBA@EAAKXZ 0000000180001fd8 f i VoiceRecognition.obj
 0001:00000fe4       ?QueryInterface@?$CComContainedObject@VCOPOSVoiceRecognition@@@ATL@@WBBI@EAAJAEBU_GUID@@PEAPEAX@Z 0000000180001fe4 f i VoiceRecognition.obj
 0001:00000ff0       ?AddRef@?$CComContainedObject@VCOPOSVoiceRecognition@@@ATL@@WBBI@EAAKXZ 0000000180001ff0 f i VoiceRecognition.obj
 0001:00000ffc       ?Release@?$CComContainedObject@VCOPOSVoiceRecognition@@@ATL@@WBBI@EAAKXZ 0000000180001ffc f i VoiceRecognition.obj
 0001:00001008       ?AddRef@?$CComContainedObject@VCOPOSVoiceRecognition@@@ATL@@WBCI@EAAKXZ 0000000180002008 f i VoiceRecognition.obj
 0001:00001014       ?Release@?$CComContainedObject@VCOPOSVoiceRecognition@@@ATL@@WBCI@EAAKXZ 0000000180002014 f i VoiceRecognition.obj
 0001:00001020       ?AddRef@?$CComContainedObject@VCOPOSVoiceRecognition@@@ATL@@WBEA@EAAKXZ 0000000180002020 f i VoiceRecognition.obj
 0001:0000102c       ?Release@?$CComContainedObject@VCOPOSVoiceRecognition@@@ATL@@WBEA@EAAKXZ 000000018000202c f i VoiceRecognition.obj
 0001:00001038       ?CreateInstance@CComClassFactory@ATL@@UEAAJPEAUIUnknown@@AEBU_GUID@@PEAPEAX@Z 0000000180002038 f i VoiceRecognition.obj
 0001:00001098       ?LockServer@CComClassFactory@ATL@@UEAAJH@Z 0000000180002098 f i VoiceRecognition.obj
 0001:000010bc       ??_GCComClassFactory@ATL@@UEAAPEAXI@Z 00000001800020bc f i VoiceRecognition.obj
 0001:000010bc       ??_ECComClassFactory@ATL@@UEAAPEAXI@Z 00000001800020bc f i VoiceRecognition.obj
 0001:0000110c       ?GetWindowProc@?$CWindowImplBaseT@VCWindow@ATL@@V?$CWinTraits@$0FGAAAAAA@$0A@@2@@ATL@@UEAAP6A_JPEAUHWND__@@I_K_J@ZXZ 000000018000210c f i VoiceRecognition.obj
 0001:00001114       ?StartWindowProc@?$CWindowImplBaseT@VCWindow@ATL@@V?$CWinTraits@$0FGAAAAAA@$0A@@2@@ATL@@SA_JPEAUHWND__@@I_K_J@Z 0000000180002114 f i VoiceRecognition.obj
 0001:000011c8       ?GetTypeInfoCount@?$IDispatchImpl@UIOPOSVoiceRecognition@@$1?IID_IOPOSVoiceRecognition@@3U_GUID@@B$1?LIBID_OposVoiceRecognition_CCO@@3U3@B$00$0A@VCComTypeInfoHolder@ATL@@@ATL@@UEAAJPEAI@Z 00000001800021c8 f i VoiceRecognition.obj
 0001:000011dc       ?GetTypeInfo@?$IDispatchImpl@UIOPOSVoiceRecognition@@$1?IID_IOPOSVoiceRecognition@@3U_GUID@@B$1?LIBID_OposVoiceRecognition_CCO@@3U3@B$00$0A@VCComTypeInfoHolder@ATL@@@ATL@@UEAAJIKPEAPEAUITypeInfo@@@Z 00000001800021dc f i VoiceRecognition.obj
 0001:00001240       ?GetIDsOfNames@?$IDispatchImpl@UIOPOSVoiceRecognition@@$1?IID_IOPOSVoiceRecognition@@3U_GUID@@B$1?LIBID_OposVoiceRecognition_CCO@@3U3@B$00$0A@VCComTypeInfoHolder@ATL@@@ATL@@UEAAJAEBU_GUID@@PEAPEA_WIKPEAJ@Z 0000000180002240 f i VoiceRecognition.obj
 0001:0000124c       ?Invoke@?$IDispatchImpl@UIOPOSVoiceRecognition@@$1?IID_IOPOSVoiceRecognition@@3U_GUID@@B$1?LIBID_OposVoiceRecognition_CCO@@3U3@B$00$0A@VCComTypeInfoHolder@ATL@@@ATL@@UEAAJJAEBU_GUID@@KGPEAUtagDISPPARAMS@@PEAUtagVARIANT@@PEAUtagEXCEPINFO@@PEAI@Z 000000018000224c f i VoiceRecognition.obj
 0001:000012dc       ?CreateControlWindow@?$CComControl@VCOPOSVoiceRecognition@@V?$CWindowImpl@VCOPOSVoiceRecognition@@VCWindow@ATL@@V?$CWinTraits@$0FGAAAAAA@$0A@@3@@ATL@@@ATL@@UEAAPEAUHWND__@@PEAU3@AEAUtagRECT@@@Z 00000001800022dc f i VoiceRecognition.obj
 0001:00001314       ?ControlQueryInterface@?$CComControl@VCOPOSVoiceRecognition@@V?$CWindowImpl@VCOPOSVoiceRecognition@@VCWindow@ATL@@V?$CWinTraits@$0FGAAAAAA@$0A@@3@@ATL@@@ATL@@UEAAJAEBU_GUID@@PEAPEAX@Z 0000000180002314 f i VoiceRecognition.obj
 0001:00001328       ?GetUserClassID@?$IOleObjectImpl@VCOPOSVoiceRecognition@@@ATL@@UEAAJPEAU_GUID@@@Z 0000000180002328 f i VoiceRecognition.obj
 0001:00001328       ?GetClassID@?$IPersistStorageImpl@VCOPOSVoiceRecognition@@@ATL@@UEAAJPEAU_GUID@@@Z 0000000180002328 f i VoiceRecognition.obj
 0001:00001328       ?GetClassID@?$IPersistStreamInitImpl@VCOPOSVoiceRecognition@@@ATL@@UEAAJPEAU_GUID@@@Z 0000000180002328 f i VoiceRecognition.obj
 0001:00001344       ?IsDirty@?$IPersistStreamInitImpl@VCOPOSVoiceRecognition@@@ATL@@UEAAJXZ 0000000180002344 f i VoiceRecognition.obj
 0001:00001360       ?Load@?$IPersistStreamInitImpl@VCOPOSVoiceRecognition@@@ATL@@UEAAJPEAUIStream@@@Z 0000000180002360 f i VoiceRecognition.obj
 0001:00001378       ?Save@?$IPersistStreamInitImpl@VCOPOSVoiceRecognition@@@ATL@@UEAAJPEAUIStream@@H@Z 0000000180002378 f i VoiceRecognition.obj
 0001:00001390       ?GetSizeMax@?$IPersistStreamInitImpl@VCOPOSVoiceRecognition@@@ATL@@UEAAJPEAT_ULARGE_INTEGER@@@Z 0000000180002390 f i VoiceRecognition.obj
 0001:000015b4       ?InitNew@?$IPersistStreamInitImpl@VCOPOSVoiceRecognition@@@ATL@@UEAAJXZ 00000001800025b4 f i VoiceRecognition.obj
 0001:000015cc       ?GetCanonicalFormatEtc@?$IDataObjectImpl@VCOPOSVoiceRecognition@@@ATL@@UEAAJPEAUtagFORMATETC@@0@Z 00000001800025cc f i VoiceRecognition.obj
 0001:000015cc       ?ContextSensitiveHelp@?$IOleInPlaceActiveObjectImpl@VCOPOSVoiceRecognition@@@ATL@@UEAAJH@Z 00000001800025cc f i VoiceRecognition.obj
 0001:000015cc       ?ReactivateAndUndo@?$IOleInPlaceObjectWindowlessImpl@VCOPOSVoiceRecognition@@@ATL@@UEAAJXZ 00000001800025cc f i VoiceRecognition.obj
 0001:000015cc       ?SetColorScheme@?$IOleObjectImpl@VCOPOSVoiceRecognition@@@ATL@@UEAAJPEAUtagLOGPALETTE@@@Z 00000001800025cc f i VoiceRecognition.obj
 0001:000015cc       ?SOOutputCompleteDummy@COPOSVoiceRecognition@@MEAAJJ@Z 00000001800025cc f i VoiceRecognition.obj
 0001:000015cc       ?ContextSensitiveHelp@?$IOleInPlaceObjectWindowlessImpl@VCOPOSVoiceRecognition@@@ATL@@UEAAJH@Z 00000001800025cc f i VoiceRecognition.obj
 0001:000015cc       ?GetColorSet@?$IViewObjectExImpl@VCOPOSVoiceRecognition@@@ATL@@UEAAJKJPEAXPEAUtagDVTARGETDEVICE@@PEAUHDC__@@PEAPEAUtagLOGPALETTE@@@Z 00000001800025cc f i VoiceRecognition.obj
 0001:000015cc       ?EnumFormatEtc@?$IDataObjectImpl@VCOPOSVoiceRecognition@@@ATL@@UEAAJKPEAPEAUIEnumFORMATETC@@@Z 00000001800025cc f i VoiceRecognition.obj
 0001:000015cc       ?SetData@?$IDataObjectImpl@VCOPOSVoiceRecognition@@@ATL@@UEAAJPEAUtagFORMATETC@@PEAUtagSTGMEDIUM@@H@Z 00000001800025cc f i VoiceRecognition.obj
 0001:000015cc       ?GetMoniker@?$IOleObjectImpl@VCOPOSVoiceRecognition@@@ATL@@UEAAJKKPEAPEAUIMoniker@@@Z 00000001800025cc f i VoiceRecognition.obj
 0001:000015cc       ?QueryGetData@?$IDataObjectImpl@VCOPOSVoiceRecognition@@@ATL@@UEAAJPEAUtagFORMATETC@@@Z 00000001800025cc f i VoiceRecognition.obj
 0001:000015cc       ?InitFromData@?$IOleObjectImpl@VCOPOSVoiceRecognition@@@ATL@@UEAAJPEAUIDataObject@@HK@Z 00000001800025cc f i VoiceRecognition.obj
 0001:000015cc       ?Unfreeze@?$IViewObjectExImpl@VCOPOSVoiceRecognition@@@ATL@@UEAAJK@Z 00000001800025cc f i VoiceRecognition.obj
 0001:000015cc       ?GetDropTarget@?$IOleInPlaceObjectWindowlessImpl@VCOPOSVoiceRecognition@@@ATL@@UEAAJPEAPEAUIDropTarget@@@Z 00000001800025cc f i VoiceRecognition.obj
 0001:000015cc       ?SetMoniker@?$IOleObjectImpl@VCOPOSVoiceRecognition@@@ATL@@UEAAJKPEAUIMoniker@@@Z 00000001800025cc f i VoiceRecognition.obj
 0001:000015cc       ?QueryInterface@CRegObject@ATL@@UEAAJAEBU_GUID@@PEAPEAX@Z 00000001800025cc f i VoiceRecognition.obj
 0001:000015cc       ?GetDataHere@?$IDataObjectImpl@VCOPOSVoiceRecognition@@@ATL@@UEAAJPEAUtagFORMATETC@@PEAUtagSTGMEDIUM@@@Z 00000001800025cc f i VoiceRecognition.obj
 0001:000015cc       ?GetRect@?$IViewObjectExImpl@VCOPOSVoiceRecognition@@@ATL@@UEAAJKPEAU_RECTL@@@Z 00000001800025cc f i VoiceRecognition.obj
 0001:000015cc       ?GetControlInfo@?$IOleControlImpl@VCOPOSVoiceRecognition@@@ATL@@UEAAJPEAUtagCONTROLINFO@@@Z 00000001800025cc f i VoiceRecognition.obj
 0001:000015cc       ?OnMnemonic@?$IOleControlImpl@VCOPOSVoiceRecognition@@@ATL@@UEAAJPEAUtagMSG@@@Z 00000001800025cc f i VoiceRecognition.obj
 0001:000015cc       ?GetClipboardData@?$IOleObjectImpl@VCOPOSVoiceRecognition@@@ATL@@UEAAJKPEAPEAUIDataObject@@@Z 00000001800025cc f i VoiceRecognition.obj
 0001:000015cc       ?Freeze@?$IViewObjectExImpl@VCOPOSVoiceRecognition@@@ATL@@UEAAJKJPEAXPEAK@Z 00000001800025cc f i VoiceRecognition.obj
 0001:000015d4       ?SetClientSite@?$IOleObjectImpl@VCOPOSVoiceRecognition@@@ATL@@UEAAJPEAUIOleClientSite@@@Z 00000001800025d4 f i VoiceRecognition.obj
 0001:000015f0       ?GetClientSite@?$IOleObjectImpl@VCOPOSVoiceRecognition@@@ATL@@UEAAJPEAPEAUIOleClientSite@@@Z 00000001800025f0 f i VoiceRecognition.obj
 0001:00001638       ?Close@?$IOleObjectImpl@VCOPOSVoiceRecognition@@@ATL@@UEAAJK@Z 0000000180002638 f i VoiceRecognition.obj
 0001:00001654       ?DoVerb@?$IOleObjectImpl@VCOPOSVoiceRecognition@@@ATL@@UEAAJJPEAUtagMSG@@PEAUIOleClientSite@@JPEAUHWND__@@PEBUtagRECT@@@Z 0000000180002654 f i VoiceRecognition.obj
 0001:000017f8       ?EnumVerbs@?$IOleObjectImpl@VCOPOSVoiceRecognition@@@ATL@@UEAAJPEAPEAUIEnumOLEVERB@@@Z 00000001800027f8 f i VoiceRecognition.obj
 0001:00001814       ?GetUserType@?$IOleObjectImpl@VCOPOSVoiceRecognition@@@ATL@@UEAAJKPEAPEA_W@Z 0000000180002814 f i VoiceRecognition.obj
 0001:00001824       ?SetExtent@?$IOleObjectImpl@VCOPOSVoiceRecognition@@@ATL@@UEAAJKPEAUtagSIZE@@@Z 0000000180002824 f i VoiceRecognition.obj
 0001:00001840       ?GetExtent@?$IOleObjectImpl@VCOPOSVoiceRecognition@@@ATL@@UEAAJKPEAUtagSIZE@@@Z 0000000180002840 f i VoiceRecognition.obj
 0001:00001870       ?Advise@?$IOleObjectImpl@VCOPOSVoiceRecognition@@@ATL@@UEAAJPEAUIAdviseSink@@PEAK@Z 0000000180002870 f i VoiceRecognition.obj
 0001:000018cc       ?Unadvise@?$IOleObjectImpl@VCOPOSVoiceRecognition@@@ATL@@UEAAJK@Z 00000001800028cc f i VoiceRecognition.obj
 0001:00001904       ?EnumAdvise@?$IOleObjectImpl@VCOPOSVoiceRecognition@@@ATL@@UEAAJPEAPEAUIEnumSTATDATA@@@Z 0000000180002904 f i VoiceRecognition.obj
 0001:0000194c       ?GetMiscStatus@?$IOleObjectImpl@VCOPOSVoiceRecognition@@@ATL@@UEAAJKPEAK@Z 000000018000294c f i VoiceRecognition.obj
 0001:0000195c       ?GetWindow@?$IOleInPlaceActiveObjectImpl@VCOPOSVoiceRecognition@@@ATL@@UEAAJPEAPEAUHWND__@@@Z 000000018000295c f i VoiceRecognition.obj
 0001:000019b0       ?TranslateAcceleratorW@?$IOleInPlaceActiveObjectImpl@VCOPOSVoiceRecognition@@@ATL@@UEAAJPEAUtagMSG@@@Z 00000001800029b0 f i VoiceRecognition.obj
 0001:00001aa4       ?OnDocWindowActivate@?$IOleInPlaceActiveObjectImpl@VCOPOSVoiceRecognition@@@ATL@@UEAAJH@Z 0000000180002aa4 f i VoiceRecognition.obj
 0001:00001ad0       ?Draw@?$IViewObjectExImpl@VCOPOSVoiceRecognition@@@ATL@@UEAAJKJPEAXPEAUtagDVTARGETDEVICE@@PEAUHDC__@@2PEBU_RECTL@@3P6AH_K@Z4@Z 0000000180002ad0 f i VoiceRecognition.obj
 0001:00001b34       ?SetAdvise@?$IViewObjectExImpl@VCOPOSVoiceRecognition@@@ATL@@UEAAJKKPEAUIAdviseSink@@@Z 0000000180002b34 f i VoiceRecognition.obj
 0001:00001b88       ?GetAdvise@?$IViewObjectExImpl@VCOPOSVoiceRecognition@@@ATL@@UEAAJPEAK0PEAPEAUIAdviseSink@@@Z 0000000180002b88 f i VoiceRecognition.obj
 0001:00001bc4       ?GetExtent@?$IViewObjectExImpl@VCOPOSVoiceRecognition@@@ATL@@UEAAJKJPEAUtagDVTARGETDEVICE@@PEAUtagSIZE@@@Z 0000000180002bc4 f i VoiceRecognition.obj
 0001:00001bf4       ?GetViewStatus@?$IViewObjectExImpl@VCOPOSVoiceRecognition@@@ATL@@UEAAJPEAK@Z 0000000180002bf4 f i VoiceRecognition.obj
 0001:00001c08       ?QueryHitPoint@?$IViewObjectExImpl@VCOPOSVoiceRecognition@@@ATL@@UEAAJKPEBUtagRECT@@UtagPOINT@@JPEAK@Z 0000000180002c08 f i VoiceRecognition.obj
 0001:00001c4c       ?QueryHitRect@?$IViewObjectExImpl@VCOPOSVoiceRecognition@@@ATL@@UEAAJKPEBUtagRECT@@0JPEAK@Z 0000000180002c4c f i VoiceRecognition.obj
 0001:00001cb4       ?GetNaturalExtent@?$IViewObjectExImpl@VCOPOSVoiceRecognition@@@ATL@@UEAAJKJPEAUtagDVTARGETDEVICE@@PEAUHDC__@@PEAUtagExtentInfo@@PEAUtagSIZE@@@Z 0000000180002cb4 f i VoiceRecognition.obj
 0001:00001cfc       ?GetWindow@?$IOleInPlaceObjectWindowlessImpl@VCOPOSVoiceRecognition@@@ATL@@UEAAJPEAPEAUHWND__@@@Z 0000000180002cfc f i VoiceRecognition.obj
 0001:00001d50       ?InPlaceDeactivate@?$IOleInPlaceObjectWindowlessImpl@VCOPOSVoiceRecognition@@@ATL@@UEAAJXZ 0000000180002d50 f i VoiceRecognition.obj
 0001:00001d6c       ?UIDeactivate@?$IOleInPlaceObjectWindowlessImpl@VCOPOSVoiceRecognition@@@ATL@@UEAAJXZ 0000000180002d6c f i VoiceRecognition.obj
 0001:00001d88       ?SetObjectRects@?$IOleInPlaceObjectWindowlessImpl@VCOPOSVoiceRecognition@@@ATL@@UEAAJPEBUtagRECT@@0@Z 0000000180002d88 f i VoiceRecognition.obj
 0001:00001da4       ?OnWindowMessage@?$IOleInPlaceObjectWindowlessImpl@VCOPOSVoiceRecognition@@@ATL@@UEAAJI_K_JPEA_J@Z 0000000180002da4 f i VoiceRecognition.obj
 0001:00001e6c       ?EnumConnectionPoints@?$IConnectionPointContainerImpl@VCOPOSVoiceRecognition@@@ATL@@UEAAJPEAPEAUIEnumConnectionPoints@@@Z 0000000180002e6c f i VoiceRecognition.obj
 0001:000020b4       ?FindConnectionPoint@?$IConnectionPointContainerImpl@VCOPOSVoiceRecognition@@@ATL@@UEAAJAEBU_GUID@@PEAPEAUIConnectionPoint@@@Z 00000001800030b4 f i VoiceRecognition.obj
 0001:00002184       ?IsDirty@?$IPersistStorageImpl@VCOPOSVoiceRecognition@@@ATL@@UEAAJXZ 0000000180003184 f i VoiceRecognition.obj
 0001:000021c4       ?InitNew@?$IPersistStorageImpl@VCOPOSVoiceRecognition@@@ATL@@UEAAJPEAUIStorage@@@Z 00000001800031c4 f i VoiceRecognition.obj
 0001:00002204       ?Load@?$IPersistStorageImpl@VCOPOSVoiceRecognition@@@ATL@@UEAAJPEAUIStorage@@@Z 0000000180003204 f i VoiceRecognition.obj
 0001:000022a4       ?Save@?$IPersistStorageImpl@VCOPOSVoiceRecognition@@@ATL@@UEAAJPEAUIStorage@@H@Z 00000001800032a4 f i VoiceRecognition.obj
 0001:00002354       ?GetPages@?$ISpecifyPropertyPagesImpl@VCOPOSVoiceRecognition@@@ATL@@UEAAJPEAUtagCAUUID@@@Z 0000000180003354 f i VoiceRecognition.obj
 0001:00002360       ?QuickActivate@?$IQuickActivateImpl@VCOPOSVoiceRecognition@@@ATL@@UEAAJPEAUtagQACONTAINER@@PEAUtagQACONTROL@@@Z 0000000180003360 f i VoiceRecognition.obj
 0001:0000237c       ?SetContentExtent@?$IQuickActivateImpl@VCOPOSVoiceRecognition@@@ATL@@UEAAJPEAUtagSIZE@@@Z 000000018000337c f i VoiceRecognition.obj
 0001:000023b0       ?GetContentExtent@?$IQuickActivateImpl@VCOPOSVoiceRecognition@@@ATL@@UEAAJPEAUtagSIZE@@@Z 00000001800033b0 f i VoiceRecognition.obj
 0001:000023e8       ?GetData@?$IDataObjectImpl@VCOPOSVoiceRecognition@@@ATL@@UEAAJPEAUtagFORMATETC@@PEAUtagSTGMEDIUM@@@Z 00000001800033e8 f i VoiceRecognition.obj
 0001:00002404       ?DAdvise@?$IDataObjectImpl@VCOPOSVoiceRecognition@@@ATL@@UEAAJPEAUtagFORMATETC@@KPEAUIAdviseSink@@PEAK@Z 0000000180003404 f i VoiceRecognition.obj
 0001:0000248c       ?DUnadvise@?$IDataObjectImpl@VCOPOSVoiceRecognition@@@ATL@@UEAAJK@Z 000000018000348c f i VoiceRecognition.obj
 0001:000024b8       ?EnumDAdvise@?$IDataObjectImpl@VCOPOSVoiceRecognition@@@ATL@@UEAAJPEAPEAUIEnumSTATDATA@@@Z 00000001800034b8 f i VoiceRecognition.obj
 0001:000024f4       ?GetClassInfoW@?$IProvideClassInfo2Impl@$1?CLSID_OPOSVoiceRecognition@@3U_GUID@@B$1?DIID__IOPOSVoiceRecognitionEvents@@3U2@B$1?LIBID_OposVoiceRecognition_CCO@@3U2@B$00$0A@VCComTypeInfoHolder@ATL@@@ATL@@UEAAJPEAPEAUITypeInfo@@@Z 00000001800034f4 f i VoiceRecognition.obj
 0001:0000254c       ?GetGUID@?$IProvideClassInfo2Impl@$1?CLSID_OPOSVoiceRecognition@@3U_GUID@@B$1?DIID__IOPOSVoiceRecognitionEvents@@3U2@B$1?LIBID_OposVoiceRecognition_CCO@@3U2@B$00$0A@VCComTypeInfoHolder@ATL@@@ATL@@UEAAJKPEAU_GUID@@@Z 000000018000354c f i VoiceRecognition.obj
 0001:00002580       _get_startup_argv_mode     0000000180003580 f i LIBCMT:argv_mode.obj
 0001:00002580       ?AddRef@CRegObject@ATL@@UEAAKXZ 0000000180003580 f i VoiceRecognition.obj
 0001:00002580       ?FAccessAllowed@?$IObjectSafetyImpl@VCOPOSVoiceRecognition@@$02@ATL@@MEAAHXZ 0000000180003580 f i VoiceRecognition.obj
 0001:00002588       ?GetInterfaceSafetyOptions@?$IObjectSafetyImpl@VCOPOSVoiceRecognition@@$02@ATL@@UEAAJAEBU_GUID@@PEAK1@Z 0000000180003588 f i VoiceRecognition.obj
 0001:0000261c       ?SetInterfaceSafetyOptions@?$IObjectSafetyImpl@VCOPOSVoiceRecognition@@$02@ATL@@UEAAJAEBU_GUID@@KK@Z 000000018000361c f i VoiceRecognition.obj
 0001:000026c0       ?_LocCPQueryInterface@?$IConnectionPointImpl@VCOPOSVoiceRecognition@@$1?DIID__IOPOSVoiceRecognitionEvents@@3U_GUID@@BVCComDynamicUnkArray@ATL@@@ATL@@UEAAJAEBU_GUID@@PEAPEAX@Z 00000001800036c0 f i VoiceRecognition.obj
 0001:000026c0       ?_LocCPQueryInterface@?$IConnectionPointImpl@VCOPOSVoiceRecognition@@$1?IID_IPropertyNotifySink@@3U_GUID@@BVCComDynamicUnkArray@ATL@@@ATL@@UEAAJAEBU_GUID@@PEAPEAX@Z 00000001800036c0 f i VoiceRecognition.obj
 0001:00002734       ?GetConnectionInterface@?$IConnectionPointImpl@VCOPOSVoiceRecognition@@$1?IID_IPropertyNotifySink@@3U_GUID@@BVCComDynamicUnkArray@ATL@@@ATL@@UEAAJPEAU_GUID@@@Z 0000000180003734 f i VoiceRecognition.obj
 0001:00002750       ?GetConnectionPointContainer@?$IConnectionPointImpl@VCOPOSVoiceRecognition@@$1?IID_IPropertyNotifySink@@3U_GUID@@BVCComDynamicUnkArray@ATL@@@ATL@@UEAAJPEAPEAUIConnectionPointContainer@@@Z 0000000180003750 f i VoiceRecognition.obj
 0001:00002770       ?Advise@?$IConnectionPointImpl@VCOPOSVoiceRecognition@@$1?IID_IPropertyNotifySink@@3U_GUID@@BVCComDynamicUnkArray@ATL@@@ATL@@UEAAJPEAUIUnknown@@PEAK@Z 0000000180003770 f i VoiceRecognition.obj
 0001:00002770       ?Advise@?$IConnectionPointImpl@VCOPOSVoiceRecognition@@$1?DIID__IOPOSVoiceRecognitionEvents@@3U_GUID@@BVCComDynamicUnkArray@ATL@@@ATL@@UEAAJPEAUIUnknown@@PEAK@Z 0000000180003770 f i VoiceRecognition.obj
 0001:0000282c       ?Unadvise@?$IConnectionPointImpl@VCOPOSVoiceRecognition@@$1?IID_IPropertyNotifySink@@3U_GUID@@BVCComDynamicUnkArray@ATL@@@ATL@@UEAAJK@Z 000000018000382c f i VoiceRecognition.obj
 0001:0000282c       ?Unadvise@?$IConnectionPointImpl@VCOPOSVoiceRecognition@@$1?DIID__IOPOSVoiceRecognitionEvents@@3U_GUID@@BVCComDynamicUnkArray@ATL@@@ATL@@UEAAJK@Z 000000018000382c f i VoiceRecognition.obj
 0001:00002894       ?EnumConnections@?$IConnectionPointImpl@VCOPOSVoiceRecognition@@$1?DIID__IOPOSVoiceRecognitionEvents@@3U_GUID@@BVCComDynamicUnkArray@ATL@@@ATL@@UEAAJPEAPEAUIEnumConnections@@@Z 0000000180003894 f i VoiceRecognition.obj
 0001:00002894       ?EnumConnections@?$IConnectionPointImpl@VCOPOSVoiceRecognition@@$1?IID_IPropertyNotifySink@@3U_GUID@@BVCComDynamicUnkArray@ATL@@@ATL@@UEAAJPEAPEAUIEnumConnections@@@Z 0000000180003894 f i VoiceRecognition.obj
 0001:00002a28       ?GetConnectionInterface@?$IConnectionPointImpl@VCOPOSVoiceRecognition@@$1?DIID__IOPOSVoiceRecognitionEvents@@3U_GUID@@BVCComDynamicUnkArray@ATL@@@ATL@@UEAAJPEAU_GUID@@@Z 0000000180003a28 f i VoiceRecognition.obj
 0001:00002a44       ?GetConnectionPointContainer@?$IConnectionPointImpl@VCOPOSVoiceRecognition@@$1?DIID__IOPOSVoiceRecognitionEvents@@3U_GUID@@BVCComDynamicUnkArray@ATL@@@ATL@@UEAAJPEAPEAUIConnectionPointContainer@@@Z 0000000180003a44 f i VoiceRecognition.obj
 0001:00002a64       ?Lock@CAtlModule@ATL@@UEAAJXZ 0000000180003a64 f i VoiceRecognition.obj
 0001:00002a74       ?Unlock@CAtlModule@ATL@@UEAAJXZ 0000000180003a74 f i VoiceRecognition.obj
 0001:00002a80       ?GetLockCount@CAtlModule@ATL@@UEAAJXZ 0000000180003a80 f i VoiceRecognition.obj
 0001:00002a84       ?GetGITPtr@CAtlModule@ATL@@UEAAJPEAPEAUIGlobalInterfaceTable@@@Z 0000000180003a84 f i VoiceRecognition.obj
 0001:00002af4       ?UpdateRegistry@COPOSVoiceRecognition@@SAJH@Z 0000000180003af4 f i VoiceRecognition.obj
 0001:00002b0c       ?ProcessWindowMessage@COPOSVoiceRecognition@@UEAAHPEAUHWND__@@I_K_JAEA_JK@Z 0000000180003b0c f i VoiceRecognition.obj
 0001:00002b9c       ?SOData@COPOSVoiceRecognition@@MEAAJJ@Z 0000000180003b9c f i VoiceRecognition.obj
 0001:00002bec       ?SODirectIO@COPOSVoiceRecognition@@MEAAJJPEAJPEAPEA_W@Z 0000000180003bec f i VoiceRecognition.obj
 0001:00002c64       ?SOError@COPOSVoiceRecognition@@MEAAJJJJPEAJ@Z 0000000180003c64 f i VoiceRecognition.obj
 0001:00002cec       ?SOStatusUpdate@COPOSVoiceRecognition@@MEAAJJ@Z 0000000180003cec f i VoiceRecognition.obj
 0001:00002d3c       ?AddCommonRGSReplacements@?$CAtlModuleT@VCComModule@ATL@@@ATL@@UEAAJPEAUIRegistrarBase@@@Z 0000000180003d3c f i VoiceRecognition.obj
 0001:00002d54       ?UpdateRegistryFromResourceD@CComModule@ATL@@UEAAJPEB_WHPEAU_ATL_REGMAP_ENTRY@2@@Z 0000000180003d54 f i VoiceRecognition.obj
 0001:00002d54       ?UpdateRegistryFromResourceD@CComModule@ATL@@UEAAJIHPEAU_ATL_REGMAP_ENTRY@2@@Z 0000000180003d54 f i VoiceRecognition.obj
 0001:00002d5c       ?UpdateRegistryFromResource@CComModule@ATL@@UEAAJPEB_WHPEAU_ATL_REGMAP_ENTRY@2@@Z 0000000180003d5c f i VoiceRecognition.obj
 0001:00002d64       ?UpdateRegistryFromResource@CComModule@ATL@@UEAAJIHPEAU_ATL_REGMAP_ENTRY@2@@Z 0000000180003d64 f i VoiceRecognition.obj
 0001:00002d6c       ??_GCComModule@ATL@@UEAAPEAXI@Z 0000000180003d6c f i VoiceRecognition.obj
 0001:00002d6c       ??_ECComModule@ATL@@UEAAPEAXI@Z 0000000180003d6c f i VoiceRecognition.obj
 0001:00002dac       ?CreateInstance@?$CComCreator@V?$CComObjectCached@VCComClassFactory@ATL@@@ATL@@@ATL@@SAJPEAXAEBU_GUID@@PEAPEAX@Z 0000000180003dac f i VoiceRecognition.obj
 0001:00002ed0       ?CreateInstance@?$CComCreator2@V?$CComCreator@V?$CComObject@VCOPOSVoiceRecognition@@@ATL@@@ATL@@V?$CComCreator@V?$CComAggObject@VCOPOSVoiceRecognition@@@ATL@@@2@@ATL@@SAJPEAXAEBU_GUID@@PEAPEAX@Z 0000000180003ed0 f i VoiceRecognition.obj
 0001:00002ee0       ?AddRef@?$CComObjectCached@VCComClassFactory@ATL@@@ATL@@UEAAKXZ 0000000180003ee0 f i VoiceRecognition.obj
 0001:00002f0c       ?Release@?$CComObjectCached@VCComClassFactory@ATL@@@ATL@@UEAAKXZ 0000000180003f0c f i VoiceRecognition.obj
 0001:00002f4c       ?QueryInterface@?$CComObjectCached@VCComClassFactory@ATL@@@ATL@@UEAAJAEBU_GUID@@PEAPEAX@Z 0000000180003f4c f i VoiceRecognition.obj
 0001:00002f60       ??_G?$CComObjectCached@VCComClassFactory@ATL@@@ATL@@UEAAPEAXI@Z 0000000180003f60 f i VoiceRecognition.obj
 0001:00002f60       ??_E?$CComObjectCached@VCComClassFactory@ATL@@@ATL@@UEAAPEAXI@Z 0000000180003f60 f i VoiceRecognition.obj
 0001:00002fb8       ?Next@?$CComEnumImpl@UIEnumConnectionPoints@@$1?_GUID_b196b285_bab4_101a_b69c_00aa00341d07@@3U__s_GUID@@BPEAUIConnectionPoint@@V?$_CopyInterface@UIConnectionPoint@@@ATL@@@ATL@@UEAAJKPEAPEAUIConnectionPoint@@PEAK@Z 0000000180003fb8 f i VoiceRecognition.obj
 0001:0000307c       ?Skip@?$CComEnumImpl@UIEnumConnectionPoints@@$1?_GUID_b196b285_bab4_101a_b69c_00aa00341d07@@3U__s_GUID@@BPEAUIConnectionPoint@@V?$_CopyInterface@UIConnectionPoint@@@ATL@@@ATL@@UEAAJK@Z 000000018000407c f i VoiceRecognition.obj
 0001:000030a8       ?Clone@?$CComEnumImpl@UIEnumConnectionPoints@@$1?_GUID_b196b285_bab4_101a_b69c_00aa00341d07@@3U__s_GUID@@BPEAUIConnectionPoint@@V?$_CopyInterface@UIConnectionPoint@@@ATL@@@ATL@@UEAAJPEAPEAUIEnumConnectionPoints@@@Z 00000001800040a8 f i VoiceRecognition.obj
 0001:000031d4       ?QueryInterface@?$CComObject@V?$CComEnum@UIEnumConnectionPoints@@$1?_GUID_b196b285_bab4_101a_b69c_00aa00341d07@@3U__s_GUID@@BPEAUIConnectionPoint@@V?$_CopyInterface@UIConnectionPoint@@@ATL@@VCComSingleThreadModel@6@@ATL@@@ATL@@UEAAJAEBU_GUID@@PEAPEAX@Z 00000001800041d4 f i VoiceRecognition.obj
 0001:000031e8       ??_G?$CComObject@V?$CComEnum@UIEnumConnectionPoints@@$1?_GUID_b196b285_bab4_101a_b69c_00aa00341d07@@3U__s_GUID@@BPEAUIConnectionPoint@@V?$_CopyInterface@UIConnectionPoint@@@ATL@@VCComSingleThreadModel@6@@ATL@@@ATL@@UEAAPEAXI@Z 00000001800041e8 f i VoiceRecognition.obj
 0001:000031e8       ??_E?$CComObject@V?$CComEnum@UIEnumConnectionPoints@@$1?_GUID_b196b285_bab4_101a_b69c_00aa00341d07@@3U__s_GUID@@BPEAUIConnectionPoint@@V?$_CopyInterface@UIConnectionPoint@@@ATL@@VCComSingleThreadModel@6@@ATL@@@ATL@@UEAAPEAXI@Z 00000001800041e8 f i VoiceRecognition.obj
 0001:00003240       ?AddReplacement@CRegObject@ATL@@UEAAJPEB_W0@Z 0000000180004240 f i VoiceRecognition.obj
 0001:00003270       ?ClearReplacements@CRegObject@ATL@@UEAAJXZ 0000000180004270 f i VoiceRecognition.obj
 0001:0000327c       ??_ECRegObject@ATL@@UEAAPEAXI@Z 000000018000427c f i VoiceRecognition.obj
 0001:0000327c       ??_GCRegObject@ATL@@UEAAPEAXI@Z 000000018000427c f i VoiceRecognition.obj
 0001:000032fc       ?AddRef@?$CComAggObject@VCOPOSVoiceRecognition@@@ATL@@UEAAKXZ 00000001800042fc f i VoiceRecognition.obj
 0001:00003308       ?Release@?$CComAggObject@VCOPOSVoiceRecognition@@@ATL@@UEAAKXZ 0000000180004308 f i VoiceRecognition.obj
 0001:0000335c       ?QueryInterface@?$CComAggObject@VCOPOSVoiceRecognition@@@ATL@@UEAAJAEBU_GUID@@PEAPEAX@Z 000000018000435c f i VoiceRecognition.obj
 0001:000033bc       ?AddRef@?$CComContainedObject@VCOPOSVoiceRecognition@@@ATL@@UEAAKXZ 00000001800043bc f i VoiceRecognition.obj
 0001:000033cc       ?Release@?$CComContainedObject@VCOPOSVoiceRecognition@@@ATL@@UEAAKXZ 00000001800043cc f i VoiceRecognition.obj
 0001:000033dc       ?QueryInterface@?$CComContainedObject@VCOPOSVoiceRecognition@@@ATL@@UEAAJAEBU_GUID@@PEAPEAX@Z 00000001800043dc f i VoiceRecognition.obj
 0001:000033ec       ??_E?$CComAggObject@VCOPOSVoiceRecognition@@@ATL@@UEAAPEAXI@Z 00000001800043ec f i VoiceRecognition.obj
 0001:000033ec       ??_G?$CComAggObject@VCOPOSVoiceRecognition@@@ATL@@UEAAPEAXI@Z 00000001800043ec f i VoiceRecognition.obj
 0001:00003444       ?AddRef@?$CComObject@VCOPOSVoiceRecognition@@@ATL@@UEAAKXZ 0000000180004444 f i VoiceRecognition.obj
 0001:00003454       ?Release@?$CComObject@VCOPOSVoiceRecognition@@@ATL@@UEAAKXZ 0000000180004454 f i VoiceRecognition.obj
 0001:000034ac       ?QueryInterface@?$CComObject@VCOPOSVoiceRecognition@@@ATL@@UEAAJAEBU_GUID@@PEAPEAX@Z 00000001800044ac f i VoiceRecognition.obj
 0001:000034c0       ?OnDrawAdvanced@CComControlBase@ATL@@UEAAJAEAUATL_DRAWINFO@@@Z 00000001800044c0 f i VoiceRecognition.obj
 0001:0000364c       ??$AtlModuleRegisterWndClassInfoT@VAtlModuleRegisterWndClassInfoParamW@ATL@@@ATL@@YAGPEAU_ATL_BASE_MODULE70@0@PEAU_ATL_WIN_MODULE70@0@PEAU_ATL_WNDCLASSINFOW@0@PEAP6A_JPEAUHWND__@@I_K_J@ZVAtlModuleRegisterWndClassInfoParamW@0@@Z 000000018000464c f i VoiceRecognition.obj
 0001:0000384c       ??0?$CComContainedObject@VCOPOSVoiceRecognition@@@ATL@@QEAA@PEAX@Z 000000018000484c f i VoiceRecognition.obj
 0001:00003968       ??0?$CComObject@VCOPOSVoiceRecognition@@@ATL@@QEAA@PEAX@Z 0000000180004968 f i VoiceRecognition.obj
 0001:00003a80       ??0CAtlModule@ATL@@QEAA@XZ 0000000180004a80 f i VoiceRecognition.obj
 0001:00003af4       ??1?$CComEnumImpl@UIEnumConnectionPoints@@$1?_GUID_b196b285_bab4_101a_b69c_00aa00341d07@@3U__s_GUID@@BPEAUIConnectionPoint@@V?$_CopyInterface@UIConnectionPoint@@@ATL@@@ATL@@UEAA@XZ 0000000180004af4 f i VoiceRecognition.obj
 0001:00003b4c       ??1?$CComEnumImpl@UIEnumConnections@@$1?_GUID_b196b287_bab4_101a_b69c_00aa00341d07@@3U__s_GUID@@BUtagCONNECTDATA@@V?$_Copy@UtagCONNECTDATA@@@ATL@@@ATL@@UEAA@XZ 0000000180004b4c f i VoiceRecognition.obj
 0001:00003ba4       ??1?$CComObject@VCOPOSVoiceRecognition@@@ATL@@UEAA@XZ 0000000180004ba4 f i VoiceRecognition.obj
 0001:00003cc4       ??_G?$CComContainedObject@VCOPOSVoiceRecognition@@@ATL@@UEAAPEAXI@Z 0000000180004cc4 f i VoiceRecognition.obj
 0001:00003cc4       ??_E?$CComContainedObject@VCOPOSVoiceRecognition@@@ATL@@UEAAPEAXI@Z 0000000180004cc4 f i VoiceRecognition.obj
 0001:00003cf8       ??_E?$CComObject@VCOPOSVoiceRecognition@@@ATL@@UEAAPEAXI@Z 0000000180004cf8 f i VoiceRecognition.obj
 0001:00003cf8       ??_G?$CComObject@VCOPOSVoiceRecognition@@@ATL@@UEAAPEAXI@Z 0000000180004cf8 f i VoiceRecognition.obj
 0001:00003d2c       ?Add@?$CSimpleArray@GV?$CSimpleArrayEqualHelper@G@ATL@@@ATL@@QEAAHAEBG@Z 0000000180004d2c f i VoiceRecognition.obj
 0001:00003dcc       ?Add@?$CSimpleMap@PEA_WPEA_WVCExpansionVectorEqualHelper@ATL@@@ATL@@QEAAHAEBQEA_W0@Z 0000000180004dcc f i VoiceRecognition.obj
 0001:00003e68       ?Add@CComDynamicUnkArray@ATL@@QEAAKPEAUIUnknown@@@Z 0000000180004e68 f i VoiceRecognition.obj
 0001:00003f4c       ?Add@CExpansionVector@ATL@@QEAAHPEB_W0@Z 0000000180004f4c f i VoiceRecognition.obj
 0001:00004080       ?AddTermFunc@CAtlModule@ATL@@QEAAJP6AX_K@Z0@Z 0000000180005080 f i VoiceRecognition.obj
 0001:0000411c       ?AddValue@CRegParser@ATL@@IEAAJAEAVCRegKey@2@PEB_WPEA_W@Z 000000018000511c f i VoiceRecognition.obj
 0001:0000452c       ?AllocateHeap@?$CTempBuffer@E$0BAA@VCCRTAllocator@ATL@@@ATL@@AEAAX_K@Z 000000018000552c f i VoiceRecognition.obj
 0001:0000452c       ?AllocateHeap@?$CTempBuffer@_W$0BAA@VCCRTAllocator@ATL@@@ATL@@AEAAX_K@Z 000000018000552c f i VoiceRecognition.obj
 0001:0000452c       ?AllocateHeap@?$CTempBuffer@_W$0EAA@VCCRTAllocator@ATL@@@ATL@@AEAAX_K@Z 000000018000552c f i VoiceRecognition.obj
 0001:00004558       ?Append@CParseBuffer@CRegParser@ATL@@QEAAHPEB_WH@Z 0000000180005558 f i VoiceRecognition.obj
 0001:0000468c       ?AtlComModuleGetClassObject@ATL@@YAJPEAU_ATL_COM_MODULE70@1@AEBU_GUID@@1PEAPEAX@Z 000000018000568c f i VoiceRecognition.obj
 0001:000047c8       ?AtlComModuleRegisterServer@ATL@@YAJPEAU_ATL_COM_MODULE70@1@HPEBU_GUID@@@Z 00000001800057c8 f i VoiceRecognition.obj
 0001:00004888       ?AtlComModuleUnregisterServer@ATL@@YAJPEAU_ATL_COM_MODULE70@1@HPEBU_GUID@@@Z 0000000180005888 f i VoiceRecognition.obj
 0001:00004944       ?AtlHiMetricToPixel@ATL@@YAXPEBUtagSIZE@@PEAU2@@Z 0000000180005944 f i VoiceRecognition.obj
 0001:000049f4       ?AtlHresultFromLastError@ATL@@YAJXZ 00000001800059f4 f i VoiceRecognition.obj
 0001:00004a14       ?AtlHresultFromWin32@ATL@@YAJK@Z 0000000180005a14 f i VoiceRecognition.obj
 0001:00004a24       ?AtlInternalOleLoadFromStream@ATL@@YAJPEAUIStream@@AEBU_GUID@@PEAPEAXTClassesAllowedInStream@1@K@Z 0000000180005a24 f i VoiceRecognition.obj
 0001:00004b74       ?AtlInternalQueryInterface@ATL@@YAJPEAXPEBU_ATL_INTMAP_ENTRY@1@AEBU_GUID@@PEAPEAX@Z 0000000180005b74 f i VoiceRecognition.obj
 0001:00004c7c       ?AtlLoadTypeLib@ATL@@YAJPEAUHINSTANCE__@@PEB_WPEAPEA_WPEAPEAUITypeLib@@@Z 0000000180005c7c f i VoiceRecognition.obj
 0001:00004ed8       ?AtlRegisterClassCategoriesHelper@ATL@@YAJAEBU_GUID@@PEBU_ATL_CATMAP_ENTRY@1@H@Z 0000000180005ed8 f i VoiceRecognition.obj
 0001:0000535c       ?AtlRegisterTypeLib@ATL@@YAJPEAUHINSTANCE__@@PEB_W@Z 000000018000635c f i VoiceRecognition.obj
 0001:00005558       ?AtlThrowImpl@ATL@@YAXJ@Z  0000000180006558 f i VoiceRecognition.obj
 0001:0000557c       ?AtlUnRegisterTypeLib@ATL@@YAJPEAUHINSTANCE__@@PEB_W@Z 000000018000657c f i VoiceRecognition.obj
 0001:00005644       ?AtlWinModuleExtractCreateWndData@ATL@@YAPEAXPEAU_ATL_WIN_MODULE70@1@@Z 0000000180006644 f i VoiceRecognition.obj
 0001:000056d0       ?ChToByte@CRegParser@ATL@@KAE_W@Z 00000001800066d0 f i VoiceRecognition.obj
 0001:0000575c       ?Cleanup@CComTypeInfoHolder@ATL@@SAX_K@Z 000000018000675c f i VoiceRecognition.obj
 0001:0000579c       ?ClearReplacements@CExpansionVector@ATL@@QEAAJXZ 000000018000679c f i VoiceRecognition.obj
 0001:00005838       ?CreateInstance@?$CComCreator@V?$CComAggObject@VCOPOSVoiceRecognition@@@ATL@@@ATL@@SAJPEAXAEBU_GUID@@PEAPEAX@Z 0000000180006838 f i VoiceRecognition.obj
 0001:0000591c       ?CreateInstance@?$CComCreator@V?$CComObject@VCOPOSVoiceRecognition@@@ATL@@@ATL@@SAJPEAXAEBU_GUID@@PEAPEAX@Z 000000018000691c f i VoiceRecognition.obj
 0001:000059dc       ?CreateInstance@?$CComObject@V?$CComEnum@UIEnumConnectionPoints@@$1?_GUID_b196b285_bab4_101a_b69c_00aa00341d07@@3U__s_GUID@@BPEAUIConnectionPoint@@V?$_CopyInterface@UIConnectionPoint@@@ATL@@VCComSingleThreadModel@6@@ATL@@@ATL@@SAJPEAPEAV12@@Z 00000001800069dc f i VoiceRecognition.obj
 0001:00005a6c       ?CreateInstance@?$CComObject@V?$CComEnum@UIEnumConnections@@$1?_GUID_b196b287_bab4_101a_b69c_00aa00341d07@@3U__s_GUID@@BUtagCONNECTDATA@@V?$_Copy@UtagCONNECTDATA@@@ATL@@VCComSingleThreadModel@6@@ATL@@@ATL@@SAJPEAPEAV12@@Z 0000000180006a6c f i VoiceRecognition.obj
 0001:00005afc       ?DefaultReflectionHandler@?$CWindowImplRoot@VCWindow@ATL@@@ATL@@SAHPEAUHWND__@@I_K_JAEA_J@Z 0000000180006afc f i VoiceRecognition.obj
 0001:00005b90       ?DeleteSubKey@CRegKey@ATL@@QEAAJPEB_W@Z 0000000180006b90 f i VoiceRecognition.obj
 0001:00005c28       ?DoEvent@COPOSVoiceRecognition@@IEAAXI_K_J@Z 0000000180006c28 f i VoiceRecognition.obj
 0001:00005cdc       ?DoVerbPrimary@?$IOleObjectImpl@VCOPOSVoiceRecognition@@@ATL@@QEAAJPEBUtagRECT@@PEAUHWND__@@@Z 0000000180006cdc f i VoiceRecognition.obj
 0001:00005e08       ?DoVerbProperties@CComControlBase@ATL@@QEAAJPEBUtagRECT@@PEAUHWND__@@@Z 0000000180006e08 f i VoiceRecognition.obj
 0001:00006030       ?FireTheEvent@?$CProxy_IOPOSEvents@VCOPOSVoiceRecognition@@@@IEAAXPEAVOposVariant@@IAEAJPEB_WJ@Z 0000000180007030 f i VoiceRecognition.obj
 0001:0000611c       ?FireViewChange@CComControlBase@ATL@@QEAAJXZ 000000018000711c f i VoiceRecognition.obj
 0001:00006180       ?Fire_DataEvent@?$CProxy_IOPOSEvents@VCOPOSVoiceRecognition@@@@QEAAXJ@Z 0000000180007180 f i VoiceRecognition.obj
 0001:0000626c       ?Fire_DirectIOEvent@?$CProxy_IOPOSEvents@VCOPOSVoiceRecognition@@@@QEAAXJPEAJPEAPEA_W@Z 000000018000726c f i VoiceRecognition.obj
 0001:000063cc       ?Fire_ErrorEvent@?$CProxy_IOPOSEvents@VCOPOSVoiceRecognition@@@@QEAAXJJJPEAJ@Z 00000001800073cc f i VoiceRecognition.obj
 0001:00006540       ?Fire_StatusUpdateEvent@?$CProxy_IOPOSEvents@VCOPOSVoiceRecognition@@@@QEAAXJ@Z 0000000180007540 f i VoiceRecognition.obj
 0001:0000662c       ?FreeHeap@?$CTempBuffer@_W$0EAA@VCCRTAllocator@ATL@@@ATL@@AEAAXXZ 000000018000762c f i VoiceRecognition.obj
 0001:0000662c       ?FreeHeap@?$CTempBuffer@E$0BAA@VCCRTAllocator@ATL@@@ATL@@AEAAXXZ 000000018000762c f i VoiceRecognition.obj
 0001:0000662c       ?FreeHeap@?$CTempBuffer@_W$0BAA@VCCRTAllocator@ATL@@@ATL@@AEAAXXZ 000000018000762c f i VoiceRecognition.obj
 0001:00006634       ?GetAmbientLocaleID@CComControlBase@ATL@@QEAAJAEAK@Z 0000000180007634 f i VoiceRecognition.obj
 0001:000066f4       ?GetAmbientUserMode@CComControlBase@ATL@@QEAAJAEAH@Z 00000001800076f4 f i VoiceRecognition.obj
 0001:000067c4       ?GetClassObject@CComModule@ATL@@QEAAJAEBU_GUID@@0PEAPEAX@Z 00000001800077c4 f i VoiceRecognition.obj
 0001:000068b8       ?GetConnMap@COPOSVoiceRecognition@@SAPEBU_ATL_CONNMAP_ENTRY@ATL@@PEAH@Z 00000001800078b8 f i VoiceRecognition.obj
 0001:00006940       ?GetIDsOfNames@CComTypeInfoHolder@ATL@@QEAAJAEBU_GUID@@PEAPEA_WIKPEAJ@Z 0000000180007940 f i VoiceRecognition.obj
 0001:00006ab0       ?GetPagesHelper@?$ISpecifyPropertyPagesImpl@VCOPOSVoiceRecognition@@@ATL@@IEAAJPEAUtagCAUUID@@PEBUATL_PROPMAP_ENTRY@2@@Z 0000000180007ab0 f i VoiceRecognition.obj
 0001:00006c50       ?GetSizeMax@CComVariant@ATL@@QEBAJPEAT_ULARGE_INTEGER@@@Z 0000000180007c50 f i VoiceRecognition.obj
 0001:00006e80       ?GetTI@CComTypeInfoHolder@ATL@@QEAAJK@Z 0000000180007e80 f i VoiceRecognition.obj
 0001:00007164       ?GetZoomInfo@CComControlBase@ATL@@QEAAXAEAUATL_DRAWINFO@@@Z 0000000180008164 f i VoiceRecognition.obj
 0001:00007208       ?HKeyFromString@CRegParser@ATL@@KAPEAUHKEY__@@PEA_W@Z 0000000180008208 f i VoiceRecognition.obj
 0001:0000726c       ?IDataObject_GetData@CComControlBase@ATL@@QEAAJPEAUtagFORMATETC@@PEAUtagSTGMEDIUM@@@Z 000000018000826c f i VoiceRecognition.obj
 0001:00007460       ?IOleInPlaceObject_InPlaceDeactivate@CComControlBase@ATL@@QEAAJXZ 0000000180008460 f i VoiceRecognition.obj
 0001:00007500       ?IOleInPlaceObject_SetObjectRects@CComControlBase@ATL@@QEAAJPEBUtagRECT@@0@Z 0000000180008500 f i VoiceRecognition.obj
 0001:000075f0       ?IOleInPlaceObject_UIDeactivate@CComControlBase@ATL@@QEAAJXZ 00000001800085f0 f i VoiceRecognition.obj
 0001:000076fc       ?IOleObject_Close@CComControlBase@ATL@@QEAAJK@Z 00000001800086fc f i VoiceRecognition.obj
 0001:00007814       ?IOleObject_SetClientSite@CComControlBase@ATL@@QEAAJPEAUIOleClientSite@@@Z 0000000180008814 f i VoiceRecognition.obj
 0001:00007888       ?IOleObject_SetExtent@CComControlBase@ATL@@QEAAJKPEAUtagSIZE@@@Z 0000000180008888 f i VoiceRecognition.obj
 0001:00007920       ?IPSI_GetIPersistStreamInit@?$IPersistStorageImpl@VCOPOSVoiceRecognition@@@ATL@@AEAAPEAUIPersistStreamInit@@XZ 0000000180008920 f i VoiceRecognition.obj
 0001:00007a08       ?IPersistStreamInit_Load@?$IPersistStreamInitImpl@VCOPOSVoiceRecognition@@@ATL@@QEAAJPEAUIStream@@PEBUATL_PROPMAP_ENTRY@2@@Z 0000000180008a08 f i VoiceRecognition.obj
 0001:00007d30       ?IPersistStreamInit_Save@?$IPersistStreamInitImpl@VCOPOSVoiceRecognition@@@ATL@@QEAAJPEAUIStream@@HPEBUATL_PROPMAP_ENTRY@2@@Z 0000000180008d30 f i VoiceRecognition.obj
 0001:00007fcc       ?IQuickActivate_QuickActivate@CComControlBase@ATL@@QEAAJPEAUtagQACONTAINER@@PEAUtagQACONTROL@@@Z 0000000180008fcc f i VoiceRecognition.obj
 0001:00008290       ?IViewObject_Draw@CComControlBase@ATL@@QEAAJKJPEAXPEAUtagDVTARGETDEVICE@@PEAUHDC__@@2PEBU_RECTL@@3@Z 0000000180009290 f i VoiceRecognition.obj
 0001:000083a4       ?InPlaceActivate@CComControlBase@ATL@@QEAAJJPEBUtagRECT@@@Z 00000001800093a4 f i VoiceRecognition.obj
 0001:000086d4       ?Init@?$CComEnumImpl@UIEnumConnectionPoints@@$1?_GUID_b196b285_bab4_101a_b69c_00aa00341d07@@3U__s_GUID@@BPEAUIConnectionPoint@@V?$_CopyInterface@UIConnectionPoint@@@ATL@@@ATL@@QEAAJPEAPEAUIConnectionPoint@@0PEAUIUnknown@@W4CComEnumFlags@2@@Z 00000001800096d4 f i VoiceRecognition.obj
 0001:000087f0       ?Init@?$CComEnumImpl@UIEnumConnections@@$1?_GUID_b196b287_bab4_101a_b69c_00aa00341d07@@3U__s_GUID@@BUtagCONNECTDATA@@V?$_Copy@UtagCONNECTDATA@@@ATL@@@ATL@@QEAAJPEAUtagCONNECTDATA@@0PEAUIUnknown@@W4CComEnumFlags@2@@Z 00000001800097f0 f i VoiceRecognition.obj
 0001:00008910       ?IsEqualObject@?$CComPtrBase@UIOleClientSite@@@ATL@@QEAA_NPEAUIUnknown@@@Z 0000000180009910 f i VoiceRecognition.obj
 0001:0000899c       ?LoadNameCache@CComTypeInfoHolder@ATL@@QEAAJPEAUITypeInfo@@@Z 000000018000999c f i VoiceRecognition.obj
 0001:00008b2c       ?Lookup@?$CSimpleMap@PEA_WPEA_WVCExpansionVectorEqualHelper@ATL@@@ATL@@QEBAPEA_WAEBQEA_W@Z 0000000180009b2c f i VoiceRecognition.obj
 0001:00008bb4       ?NextToken@CRegParser@ATL@@IEAAJPEA_W@Z 0000000180009bb4 f i VoiceRecognition.obj
 0001:00008d50       ?OnKillFocus@CComControlBase@ATL@@QEAA_JI_K_JAEAH@Z 0000000180009d50 f i VoiceRecognition.obj
 0001:00008dec       ?OnMouseActivate@CComControlBase@ATL@@QEAA_JI_K_JAEAH@Z 0000000180009dec f i VoiceRecognition.obj
 0001:00008e8c       ?OnPaint@CComControlBase@ATL@@QEAA_JI_K_JAEAH@Z 0000000180009e8c f i VoiceRecognition.obj
 0001:00008f78       ?OnSetFocus@CComControlBase@ATL@@QEAA_JI_K_JAEAH@Z 0000000180009f78 f i VoiceRecognition.obj
 0001:00009080       ?PreProcessBuffer@CRegParser@ATL@@QEAAJPEA_WPEAPEA_W@Z 000000018000a080 f i VoiceRecognition.obj
 0001:00009408       ?ProcessWindowMessage@?$CComControl@VCOPOSVoiceRecognition@@V?$CWindowImpl@VCOPOSVoiceRecognition@@VCWindow@ATL@@V?$CWinTraits@$0FGAAAAAA@$0A@@3@@ATL@@@ATL@@UEAAHPEAUHWND__@@I_K_JAEA_JK@Z 000000018000a408 f i VoiceRecognition.obj
 0001:000094f4       ?ReadFromStream@CComBSTR@ATL@@QEAAJPEAUIStream@@@Z 000000018000a4f4 f i VoiceRecognition.obj
 0001:00009644       ?ReadFromStream@CComVariant@ATL@@QEAAJPEAUIStream@@GTClassesAllowedInStream@2@K@Z 000000018000a644 f i VoiceRecognition.obj
 0001:00009888       ?RecurseDeleteKey@CRegKey@ATL@@QEAAJPEB_W@Z 000000018000a888 f i VoiceRecognition.obj
 0001:000099e0       ?RegCreateKeyExW@CAtlTransactionManager@ATL@@QEAAJPEAUHKEY__@@PEB_WKPEA_WKKQEAU_SECURITY_ATTRIBUTES@@PEAPEAU3@PEAK@Z 000000018000a9e0 f i VoiceRecognition.obj
 0001:00009b14       ?RegDeleteKeyW@CAtlTransactionManager@ATL@@QEAAJPEAUHKEY__@@PEB_W@Z 000000018000ab14 f i VoiceRecognition.obj
 0001:00009ba0       ?RegOpenKeyExW@CAtlTransactionManager@ATL@@QEAAJPEAUHKEY__@@PEB_WKKPEAPEAU3@@Z 000000018000aba0 f i VoiceRecognition.obj
 0001:00009c58       ?RegisterBuffer@CRegParser@ATL@@QEAAJPEA_WH@Z 000000018000ac58 f i VoiceRecognition.obj
 0001:00009dc4       ?RegisterFromResource@CRegObject@ATL@@IEAAJPEB_W00H@Z 000000018000adc4 f i VoiceRecognition.obj
 0001:00009f80       ?RegisterServer@CComModule@ATL@@QEAAJHPEBU_GUID@@@Z 000000018000af80 f i VoiceRecognition.obj
 0001:0000a03c       ?RegisterSubkeys@CRegParser@ATL@@IEAAJPEA_WPEAUHKEY__@@HH@Z 000000018000b03c f i VoiceRecognition.obj
 0001:0000a8bc       ?SendOnDataChange@CComControlBase@ATL@@QEAAJK@Z 000000018000b8bc f i VoiceRecognition.obj
 0001:0000a92c       ?SetControlFocus@CComControlBase@ATL@@QEAAHH@Z 000000018000b92c f i VoiceRecognition.obj
 0001:0000a9fc       ?SkipAssignment@CRegParser@ATL@@IEAAJPEA_W@Z 000000018000b9fc f i VoiceRecognition.obj
 0001:0000aab4       ?Term@CAtlModule@ATL@@QEAAXXZ 000000018000bab4 f i VoiceRecognition.obj
 0001:0000ab6c       ?Term@CComModule@ATL@@QEAAXXZ 000000018000bb6c f i VoiceRecognition.obj
 0001:0000abe8       ?UnregisterServer@CComModule@ATL@@QEAAJHPEBU_GUID@@@Z 000000018000bbe8 f i VoiceRecognition.obj
 0001:0000ac98       ?UpdateRegistryFromResource@CAtlModule@ATL@@QEAAJIHPEAU_ATL_REGMAP_ENTRY@2@@Z 000000018000bc98 f i VoiceRecognition.obj
 0001:0000afa4       ?UpdateRegistryFromResource@CAtlModule@ATL@@QEAAJPEB_WHPEAU_ATL_REGMAP_ENTRY@2@@Z 000000018000bfa4 f i VoiceRecognition.obj
 0001:0000b2c8       ?VTFromRegType@CRegParser@ATL@@KAHPEB_WAEAG@Z 000000018000c2c8 f i VoiceRecognition.obj
 0001:0000b364       ?WindowProc@?$CWindowImplBaseT@VCWindow@ATL@@V?$CWinTraits@$0FGAAAAAA@$0A@@2@@ATL@@SA_JPEAUHWND__@@I_K_J@Z 000000018000c364 f i VoiceRecognition.obj
 0001:0000b4d0       ?WriteToStream@CComVariant@ATL@@QEAAJPEAUIStream@@@Z 000000018000c4d0 f i VoiceRecognition.obj
 0001:0000b73c       ?WriteToStream@CComVariant@ATL@@QEAAJPEAUIStream@@G@Z 000000018000c73c f i VoiceRecognition.obj
 0001:0000b7d4       ?_AtlVerifyStackAvailable@_ATL_SAFE_ALLOCA_IMPL@ATL@@YA_N_K@Z 000000018000c7d4 f i VoiceRecognition.obj
 0001:0000b858       ?atlCreate@?$CWindowImpl@VCOPOSVoiceRecognition@@VCWindow@ATL@@V?$CWinTraits@$0FGAAAAAA@$0A@@3@@ATL@@QEAAPEAUHWND__@@PEAU3@V_U_RECT@2@PEB_WKKV_U_MENUorID@2@PEAX@Z 000000018000c858 f i VoiceRecognition.obj
 0001:0000b914       ?atlCreate@?$CWindowImplBaseT@VCWindow@ATL@@V?$CWinTraits@$0FGAAAAAA@$0A@@2@@ATL@@QEAAPEAUHWND__@@PEAU3@V_U_RECT@2@PEB_WKKV_U_MENUorID@2@GPEAX@Z 000000018000c914 f i VoiceRecognition.obj
 0001:0000ba84       ?ocscpy_s@@YA_NPEA_W_KPEB_W@Z 000000018000ca84 f i VoiceRecognition.obj
 0001:0000bb34       DllCanUnloadNow            000000018000cb34 f   VoiceRecognition.obj
 0001:0000bb40       DllGetClassObject          000000018000cb40 f   VoiceRecognition.obj
 0001:0000bb58       DllMain                    000000018000cb58 f   VoiceRecognition.obj
 0001:0000bc00       DllRegisterServer          000000018000cc00 f   VoiceRecognition.obj
 0001:0000bc14       DllUnregisterServer        000000018000cc14 f   VoiceRecognition.obj
 0001:0000bc28       __local_stdio_printf_options 000000018000cc28 f i VoiceRecognition.obj
 0001:0000bc30       swprintf_s                 000000018000cc30 f i VoiceRecognition.obj
 0001:0000bc84       ??0COPOSVoiceRecognition@@QEAA@XZ 000000018000cc84 f   VoiceRecognitionImpl.obj
 0001:0000bd54       ??1?$IConnectionPointImpl@VCOPOSVoiceRecognition@@$1?DIID__IOPOSVoiceRecognitionEvents@@3U_GUID@@BVCComDynamicUnkArray@ATL@@@ATL@@QEAA@XZ 000000018000cd54 f i VoiceRecognitionImpl.obj
 0001:0000bd54       ??1?$IConnectionPointImpl@VCOPOSVoiceRecognition@@$1?IID_IPropertyNotifySink@@3U_GUID@@BVCComDynamicUnkArray@ATL@@@ATL@@QEAA@XZ 000000018000cd54 f i VoiceRecognitionImpl.obj
 0001:0000bdb0       ??1CComControlBase@ATL@@UEAA@XZ 000000018000cdb0 f i VoiceRecognitionImpl.obj
 0001:0000be2c       ??1COPOSVoiceRecognition@@UEAA@XZ 000000018000ce2c f   VoiceRecognitionImpl.obj
 0001:0000be90       ?CheckHealth@COPOSVoiceRecognition@@UEAAJJPEAJ@Z 000000018000ce90 f   VoiceRecognitionImpl.obj
 0001:0000bf0c       ?ClaimDevice@COPOSVoiceRecognition@@UEAAJJPEAJ@Z 000000018000cf0c f   VoiceRecognitionImpl.obj
 0001:0000bfac       ?ClearInput@COPOSVoiceRecognition@@UEAAJPEAJ@Z 000000018000cfac f   VoiceRecognitionImpl.obj
 0001:0000bfd4       ?ClearInputProperties@COPOSVoiceRecognition@@UEAAJPEAJ@Z 000000018000cfd4 f   VoiceRecognitionImpl.obj
 0001:0000bffc       ?Close@COPOSVoiceRecognition@@UEAAJPEAJ@Z 000000018000cffc f   VoiceRecognitionImpl.obj
 0001:0000c0b4       ?CompareFirmwareVersion@COPOSVoiceRecognition@@UEAAJPEA_WPEAJ1@Z 000000018000d0b4 f   VoiceRecognitionImpl.obj
 0001:0000c190       ?DirectIO@COPOSVoiceRecognition@@UEAAJJPEAJPEAPEA_W0@Z 000000018000d190 f   VoiceRecognitionImpl.obj
 0001:0000c28c       ?DoInvoke@COPOSVoiceRecognition@@IEAAJJPEAVOposVariant@@IHPEAJ_N@Z 000000018000d28c f   VoiceRecognitionImpl.obj
 0001:0000c3c0       ?EventInit@COPOSVoiceRecognition@@IEAAJXZ 000000018000d3c0 f i VoiceRecognitionImpl.obj
 0001:0000c510       ?EventUninit@COPOSVoiceRecognition@@IEAAXXZ 000000018000d510 f i VoiceRecognitionImpl.obj
 0001:0000c574       ?EventWindowProc@COPOSVoiceRecognition@@IEAA_JI_K_J@Z 000000018000d574 f i VoiceRecognitionImpl.obj
 0001:0000c6ec       ?FinalConstruct@COPOSVoiceRecognition@@QEAAJXZ 000000018000d6ec f   VoiceRecognitionImpl.obj
 0001:0000c728       ?FreezeEvents@COPOSVoiceRecognition@@MEAAJH@Z 000000018000d728 f   VoiceRecognitionImpl.obj
 0001:0000c794       ?GetOposProp@COPOSVoiceRecognition@@IEAAJJPEAJJ@Z 000000018000d794 f   VoiceRecognitionImpl.obj
 0001:0000c8b0       ?GetOposProp@COPOSVoiceRecognition@@IEAAJJPEAPEA_WJ@Z 000000018000d8b0 f   VoiceRecognitionImpl.obj
 0001:0000c9dc       ?OnDraw@COPOSVoiceRecognition@@MEAAJAEAUATL_DRAWINFO@@@Z 000000018000d9dc f   VoiceRecognitionImpl.obj
 0001:0000cac8       ?Open@COPOSVoiceRecognition@@UEAAJPEA_WPEAJ@Z 000000018000dac8 f   VoiceRecognitionImpl.obj
 0001:0000d338       ?ReleaseDevice@COPOSVoiceRecognition@@UEAAJPEAJ@Z 000000018000e338 f   VoiceRecognitionImpl.obj
 0001:0000d3a4       ?ResetStatistics@COPOSVoiceRecognition@@UEAAJPEA_WPEAJ@Z 000000018000e3a4 f   VoiceRecognitionImpl.obj
 0001:0000d42c       ?RetrieveStatistics@COPOSVoiceRecognition@@UEAAJPEAPEA_WPEAJ@Z 000000018000e42c f   VoiceRecognitionImpl.obj
 0001:0000d4b4       ?SOProcessID@COPOSVoiceRecognition@@UEAAJPEAJ@Z 000000018000e4b4 f   VoiceRecognitionImpl.obj
 0001:0000d4d0       ?SetCOFreezeEvents@COPOSVoiceRecognition@@IEAAXF@Z 000000018000e4d0 f   VoiceRecognitionImpl.obj
 0001:0000d5b4       ?SetOposProp@COPOSVoiceRecognition@@IEAAJJJJ@Z 000000018000e5b4 f   VoiceRecognitionImpl.obj
 0001:0000d714       ?StartHearingFree@COPOSVoiceRecognition@@UEAAJPEA_WPEAJ@Z 000000018000e714 f   VoiceRecognitionImpl.obj
 0001:0000d79c       ?StartHearingSentence@COPOSVoiceRecognition@@UEAAJPEA_W00PEAJ@Z 000000018000e79c f   VoiceRecognitionImpl.obj
 0001:0000d888       ?StartHearingWord@COPOSVoiceRecognition@@UEAAJPEA_W0PEAJ@Z 000000018000e888 f   VoiceRecognitionImpl.obj
 0001:0000d964       ?StartHearingYesNo@COPOSVoiceRecognition@@UEAAJPEA_WPEAJ@Z 000000018000e964 f   VoiceRecognitionImpl.obj
 0001:0000d9ec       ?StopHearing@COPOSVoiceRecognition@@UEAAJPEAJ@Z 000000018000e9ec f   VoiceRecognitionImpl.obj
 0001:0000da14       ?UpdateFirmware@COPOSVoiceRecognition@@UEAAJPEA_WPEAJ@Z 000000018000ea14 f   VoiceRecognitionImpl.obj
 0001:0000da9c       ?UpdateStatistics@COPOSVoiceRecognition@@UEAAJPEA_WPEAJ@Z 000000018000ea9c f   VoiceRecognitionImpl.obj
 0001:0000db24       ?get_AutoDisable@COPOSVoiceRecognition@@UEAAJPEAF@Z 000000018000eb24 f   VoiceRecognitionImpl.obj
 0001:0000db58       ?get_BinaryConversion@COPOSVoiceRecognition@@UEAAJPEAJ@Z 000000018000eb58 f   VoiceRecognitionImpl.obj
 0001:0000db6c       ?get_CapCompareFirmwareVersion@COPOSVoiceRecognition@@UEAAJPEAF@Z 000000018000eb6c f   VoiceRecognitionImpl.obj
 0001:0000dba0       ?get_CapLanguage@COPOSVoiceRecognition@@UEAAJPEAF@Z 000000018000eba0 f   VoiceRecognitionImpl.obj
 0001:0000dbd4       ?get_CapPowerReporting@COPOSVoiceRecognition@@UEAAJPEAJ@Z 000000018000ebd4 f   VoiceRecognitionImpl.obj
 0001:0000dbe8       ?get_CapStatisticsReporting@COPOSVoiceRecognition@@UEAAJPEAF@Z 000000018000ebe8 f   VoiceRecognitionImpl.obj
 0001:0000dc1c       ?get_CapUpdateFirmware@COPOSVoiceRecognition@@UEAAJPEAF@Z 000000018000ec1c f   VoiceRecognitionImpl.obj
 0001:0000dc50       ?get_CapUpdateStatistics@COPOSVoiceRecognition@@UEAAJPEAF@Z 000000018000ec50 f   VoiceRecognitionImpl.obj
 0001:0000dc84       ?get_CheckHealthText@COPOSVoiceRecognition@@UEAAJPEAPEA_W@Z 000000018000ec84 f   VoiceRecognitionImpl.obj
 0001:0000dc98       ?get_Claimed@COPOSVoiceRecognition@@UEAAJPEAF@Z 000000018000ec98 f   VoiceRecognitionImpl.obj
 0001:0000dccc       ?get_ControlObjectDescription@COPOSVoiceRecognition@@UEAAJPEAPEA_W@Z 000000018000eccc f   VoiceRecognitionImpl.obj
 0001:0000dd30       ?get_ControlObjectVersion@COPOSVoiceRecognition@@UEAAJPEAJ@Z 000000018000ed30 f   VoiceRecognitionImpl.obj
 0001:0000dd3c       ?get_DataCount@COPOSVoiceRecognition@@UEAAJPEAJ@Z 000000018000ed3c f   VoiceRecognitionImpl.obj
 0001:0000dd50       ?get_DataEventEnabled@COPOSVoiceRecognition@@UEAAJPEAF@Z 000000018000ed50 f   VoiceRecognitionImpl.obj
 0001:0000dd84       ?get_DeviceDescription@COPOSVoiceRecognition@@UEAAJPEAPEA_W@Z 000000018000ed84 f   VoiceRecognitionImpl.obj
 0001:0000dd98       ?get_DeviceEnabled@COPOSVoiceRecognition@@UEAAJPEAF@Z 000000018000ed98 f   VoiceRecognitionImpl.obj
 0001:0000ddcc       ?get_DeviceName@COPOSVoiceRecognition@@UEAAJPEAPEA_W@Z 000000018000edcc f   VoiceRecognitionImpl.obj
 0001:0000dde0       ?get_FreezeEvents@COPOSVoiceRecognition@@UEAAJPEAF@Z 000000018000ede0 f   VoiceRecognitionImpl.obj
 0001:0000de10       ?get_HearingDataPattern@COPOSVoiceRecognition@@UEAAJPEAPEA_W@Z 000000018000ee10 f   VoiceRecognitionImpl.obj
 0001:0000de24       ?get_HearingDataWord@COPOSVoiceRecognition@@UEAAJPEAPEA_W@Z 000000018000ee24 f   VoiceRecognitionImpl.obj
 0001:0000de38       ?get_HearingDataWordList@COPOSVoiceRecognition@@UEAAJPEAPEA_W@Z 000000018000ee38 f   VoiceRecognitionImpl.obj
 0001:0000de4c       ?get_HearingResult@COPOSVoiceRecognition@@UEAAJPEAJ@Z 000000018000ee4c f   VoiceRecognitionImpl.obj
 0001:0000de60       ?get_HearingStatus@COPOSVoiceRecognition@@UEAAJPEAJ@Z 000000018000ee60 f   VoiceRecognitionImpl.obj
 0001:0000de74       ?get_LanguageList@COPOSVoiceRecognition@@UEAAJPEAPEA_W@Z 000000018000ee74 f   VoiceRecognitionImpl.obj
 0001:0000de88       ?get_OpenResult@COPOSVoiceRecognition@@UEAAJPEAJ@Z 000000018000ee88 f   VoiceRecognitionImpl.obj
 0001:0000de94       ?get_PowerNotify@COPOSVoiceRecognition@@UEAAJPEAJ@Z 000000018000ee94 f   VoiceRecognitionImpl.obj
 0001:0000dea8       ?get_PowerState@COPOSVoiceRecognition@@UEAAJPEAJ@Z 000000018000eea8 f   VoiceRecognitionImpl.obj
 0001:0000debc       ?get_ResultCode@COPOSVoiceRecognition@@UEAAJPEAJ@Z 000000018000eebc f   VoiceRecognitionImpl.obj
 0001:0000def8       ?get_ResultCodeExtended@COPOSVoiceRecognition@@UEAAJPEAJ@Z 000000018000eef8 f   VoiceRecognitionImpl.obj
 0001:0000df0c       ?get_ServiceObjectDescription@COPOSVoiceRecognition@@UEAAJPEAPEA_W@Z 000000018000ef0c f   VoiceRecognitionImpl.obj
 0001:0000df20       ?get_ServiceObjectVersion@COPOSVoiceRecognition@@UEAAJPEAJ@Z 000000018000ef20 f   VoiceRecognitionImpl.obj
 0001:0000df34       ?get_State@COPOSVoiceRecognition@@UEAAJPEAJ@Z 000000018000ef34 f   VoiceRecognitionImpl.obj
 0001:0000df60       ?put_AutoDisable@COPOSVoiceRecognition@@UEAAJF@Z 000000018000ef60 f   VoiceRecognitionImpl.obj
 0001:0000df78       ?put_BinaryConversion@COPOSVoiceRecognition@@UEAAJJ@Z 000000018000ef78 f   VoiceRecognitionImpl.obj
 0001:0000df8c       ?put_DataEventEnabled@COPOSVoiceRecognition@@UEAAJF@Z 000000018000ef8c f   VoiceRecognitionImpl.obj
 0001:0000dfa4       ?put_DeviceEnabled@COPOSVoiceRecognition@@UEAAJF@Z 000000018000efa4 f   VoiceRecognitionImpl.obj
 0001:0000dfbc       ?put_FreezeEvents@COPOSVoiceRecognition@@UEAAJF@Z 000000018000efbc f   VoiceRecognitionImpl.obj
 0001:0000e00c       ?put_PowerNotify@COPOSVoiceRecognition@@UEAAJJ@Z 000000018000f00c f   VoiceRecognitionImpl.obj
 0001:0000e020       ?s_EventWindowProc@COPOSVoiceRecognition@@KA_JPEAUHWND__@@I_K_J@Z 000000018000f020 f i VoiceRecognitionImpl.obj
 0001:0000e09c       ??_U@YAPEAX_K@Z            000000018000f09c f   LIBCMT:new_array.obj
 0001:0000e0a4       ??_V@YAXPEAX@Z             000000018000f0a4 f   LIBCMT:delete_array.obj
 0001:0000e0a4       ??3@YAXPEAX_K@Z            000000018000f0a4 f   LIBCMT:delete_scalar_size.obj
 0001:0000e0ac       ??_V@YAXPEAX_K@Z           000000018000f0ac f   LIBCMT:delete_array_size.obj
 0001:0000e0b4       __scrt_acquire_startup_lock 000000018000f0b4 f   LIBCMT:utility.obj
 0001:0000e0f0       __scrt_dllmain_after_initialize_c 000000018000f0f0 f   LIBCMT:utility.obj
 0001:0000e124       __scrt_dllmain_before_initialize_c 000000018000f124 f   LIBCMT:utility.obj
 0001:0000e13c       __scrt_dllmain_crt_thread_attach 000000018000f13c f   LIBCMT:utility.obj
 0001:0000e164       __scrt_dllmain_crt_thread_detach 000000018000f164 f   LIBCMT:utility.obj
 0001:0000e17c       __scrt_dllmain_exception_filter 000000018000f17c f   LIBCMT:utility.obj
 0001:0000e1dc       __scrt_dllmain_uninitialize_c 000000018000f1dc f   LIBCMT:utility.obj
 0001:0000e20c       __scrt_dllmain_uninitialize_critical 000000018000f20c f   LIBCMT:utility.obj
 0001:0000e220       __scrt_initialize_crt      000000018000f220 f   LIBCMT:utility.obj
 0001:0000e26c       __scrt_initialize_onexit_tables 000000018000f26c f   LIBCMT:utility.obj
 0001:0000e2f8       __scrt_is_nonwritable_in_current_image 000000018000f2f8 f   LIBCMT:utility.obj
 0001:0000e390       __scrt_release_startup_lock 000000018000f390 f   LIBCMT:utility.obj
 0001:0000e3b4       __scrt_uninitialize_crt    000000018000f3b4 f   LIBCMT:utility.obj
 0001:0000e3e0       _onexit                    000000018000f3e0 f   LIBCMT:utility.obj
 0001:0000e41c       atexit                     000000018000f41c f   LIBCMT:utility.obj
 0001:0000e434       ??3@YAXPEAX@Z              000000018000f434 f   LIBCMT:delete_scalar.obj
 0001:0000e534       _Init_thread_footer        000000018000f534 f   LIBCMT:thread_safe_statics.obj
 0001:0000e594       _Init_thread_header        000000018000f594 f   LIBCMT:thread_safe_statics.obj
 0001:0000e5fc       _Init_thread_notify        000000018000f5fc f   LIBCMT:thread_safe_statics.obj
 0001:0000e640       _Init_thread_wait          000000018000f640 f   LIBCMT:thread_safe_statics.obj
 0001:0000e6a4       __raise_securityfailure    000000018000f6a4 f   LIBCMT:gs_report.obj
 0001:0000e6d8       __report_gsfailure         000000018000f6d8 f   LIBCMT:gs_report.obj
 0001:0000e7ac       __report_rangecheckfailure 000000018000f7ac f   LIBCMT:gs_report.obj
 0001:0000e7c0       __report_securityfailure   000000018000f7c0 f   LIBCMT:gs_report.obj
 0001:0000e940       ??2@YAPEAX_KAEBUnothrow_t@std@@@Z 000000018000f940 f   LIBCMT:new_scalar_nothrow.obj
 0001:0000e954       ??_U@YAPEAX_KAEBUnothrow_t@std@@@Z 000000018000f954 f   LIBCMT:new_array_nothrow.obj
 0001:0000e95c       __GSHandlerCheck           000000018000f95c f   LIBCMT:gshandler.obj
 0001:0000e97c       __GSHandlerCheckCommon     000000018000f97c f   LIBCMT:gshandler.obj
 0001:0000e9d8       __GSHandlerCheck_SEH       000000018000f9d8 f   LIBCMT:gshandlerseh.obj
 0001:0000ea70       __chkstk                   000000018000fa70 f   LIBCMT:chkstk.obj
 0001:0000ea70       _alloca_probe              000000018000fa70 f   LIBCMT:chkstk.obj
 0001:0000ead0       __security_check_cookie    000000018000fad0 f   LIBCMT:amdsecgs.obj
 0001:0000ee10       _DllMainCRTStartup         000000018000fe10 f   LIBCMT:dll_dllmain.obj
 0001:0000ee50       ??2@YAPEAX_K@Z             000000018000fe50 f   LIBCMT:new_scalar.obj
 0001:0000ee8c       __isa_available_init       000000018000fe8c f   LIBCMT:cpu_disp.obj
 0001:0000f030       __scrt_is_ucrt_dll_in_use  0000000180010030 f   LIBCMT:ucrt_detection.obj
 0001:0000f03c       __crt_debugger_hook        000000018001003c f   LIBCMT:utility_desktop.obj
 0001:0000f044       __scrt_fastfail            0000000180010044 f   LIBCMT:utility_desktop.obj
 0001:0000f190       __security_init_cookie     0000000180010190 f   LIBCMT:gs_support.obj
 0001:0000f23c       ?__scrt_initialize_type_info@@YAXXZ 000000018001023c f   LIBCMT:tncleanup.obj
 0001:0000f24c       ?__scrt_uninitialize_type_info@@YAXXZ 000000018001024c f   LIBCMT:tncleanup.obj
 0001:0000f258       __local_stdio_scanf_options 0000000180010258 f i LIBCMT:default_local_stdio_options.obj
 0001:0000f260       __scrt_initialize_default_local_stdio_options 0000000180010260 f   LIBCMT:default_local_stdio_options.obj
 0001:0000f27c       __scrt_get_dyn_tls_init_callback 000000018001027c f   LIBCMT:dyn_tls_init.obj
 0001:0000f284       _RTC_Initialize            0000000180010284 f   LIBCMT:initsect.obj
 0001:0000f2c0       _RTC_Terminate             00000001800102c0 f   LIBCMT:initsect.obj
 0001:0000f2fc       ??0bad_alloc@std@@QEAA@AEBV01@@Z 00000001800102fc f i LIBCMT:throw_bad_alloc.obj
 0001:0000f338       ??0bad_alloc@std@@QEAA@XZ  0000000180010338 f i LIBCMT:throw_bad_alloc.obj
 0001:0000f358       ??0bad_array_new_length@std@@QEAA@AEBV01@@Z 0000000180010358 f i LIBCMT:throw_bad_alloc.obj
 0001:0000f394       ??0bad_array_new_length@std@@QEAA@XZ 0000000180010394 f i LIBCMT:throw_bad_alloc.obj
 0001:0000f3b4       ??0exception@std@@QEAA@AEBV01@@Z 00000001800103b4 f i LIBCMT:throw_bad_alloc.obj
 0001:0000f3e8       ??1bad_exception@std@@UEAA@XZ 00000001800103e8 f i libvcruntime:frame.obj
 0001:0000f3e8       ??1bad_alloc@std@@UEAA@XZ  00000001800103e8 f i LIBCMT:throw_bad_alloc.obj
 0001:0000f3e8       ??1bad_array_new_length@std@@UEAA@XZ 00000001800103e8 f i LIBCMT:throw_bad_alloc.obj
 0001:0000f3fc       ??_Ebad_exception@std@@UEAAPEAXI@Z 00000001800103fc f i libvcruntime:frame.obj
 0001:0000f3fc       ??_Gbad_exception@std@@UEAAPEAXI@Z 00000001800103fc f i libvcruntime:frame.obj
 0001:0000f3fc       ??_Gexception@std@@UEAAPEAXI@Z 00000001800103fc f i LIBCMT:throw_bad_alloc.obj
 0001:0000f3fc       ??_Gbad_array_new_length@std@@UEAAPEAXI@Z 00000001800103fc f i LIBCMT:throw_bad_alloc.obj
 0001:0000f3fc       ??_Eexception@std@@UEAAPEAXI@Z 00000001800103fc f i LIBCMT:throw_bad_alloc.obj
 0001:0000f3fc       ??_Ebad_array_new_length@std@@UEAAPEAXI@Z 00000001800103fc f i LIBCMT:throw_bad_alloc.obj
 0001:0000f3fc       ??_Ebad_alloc@std@@UEAAPEAXI@Z 00000001800103fc f i LIBCMT:throw_bad_alloc.obj
 0001:0000f3fc       ??_Gbad_alloc@std@@UEAAPEAXI@Z 00000001800103fc f i LIBCMT:throw_bad_alloc.obj
 0001:0000f440       ?__scrt_throw_std_bad_alloc@@YAXXZ 0000000180010440 f   LIBCMT:throw_bad_alloc.obj
 0001:0000f460       ?__scrt_throw_std_bad_array_new_length@@YAXXZ 0000000180010460 f   LIBCMT:throw_bad_alloc.obj
 0001:0000f480       ?what@exception@std@@UEBAPEBDXZ 0000000180010480 f i LIBCMT:throw_bad_alloc.obj
 0001:0000f4a0       ??_Gtype_info@@UEAAPEAXI@Z 00000001800104a0 f i LIBCMT:std_type_info_static.obj
 0001:0000f4a0       ??_Etype_info@@UEAAPEAXI@Z 00000001800104a0 f i LIBCMT:std_type_info_static.obj
 0001:0000f4cc       ??0CAtlBaseModule@ATL@@QEAA@XZ 00000001800104cc f   atls:atlbase.obj
 0001:0000f574       ??1CAtlBaseModule@ATL@@QEAA@XZ 0000000180010574 f   atls:atlbase.obj
 0001:0000f6a8       ?__AllocStdCallThunk_cmn@@YAPEAXXZ 00000001800106a8 f   atls:atlthunk.obj
 0001:0000f800       AtlThunk_AllocateData      0000000180010800 f   atls:atlthunk.obj
 0001:0000f87c       AtlThunk_DataToCode        000000018001087c f   atls:atlthunk.obj
 0001:0000f8d0       AtlThunk_FreeData          00000001800108d0 f   atls:atlthunk.obj
 0001:0000f930       AtlThunk_InitData          0000000180010930 f   atls:atlthunk.obj
 0001:0000f9d8       _get_purecall_handler      00000001800109d8 f   libvcruntime:purevirt.obj
 0001:0000f9e4       _purecall                  00000001800109e4 f   libvcruntime:purevirt.obj
 0001:0000fa00       wcsstr                     0000000180010a00 f   libvcruntime:wcsstr.obj
 0001:0000fc30       memcmp                     0000000180010c30 f   libvcruntime:memcmp.obj
 0001:0000fd10       memcpy_repmovs             0000000180010d10 f   libvcruntime:memcpy.obj
 0001:0000fd30       memcpy                     0000000180010d30 f   libvcruntime:memcpy.obj
 0001:0000fd30       memmove                    0000000180010d30 f   libvcruntime:memcpy.obj
 0001:000103c0       memset_repmovs             00000001800113c0 f   libvcruntime:memset.obj
 0001:000103e0       memset                     00000001800113e0 f   libvcruntime:memset.obj
 0001:00010570       __vcrt_initialize          0000000180011570 f   libvcruntime:initialization.obj
 0001:00010598       __vcrt_thread_attach       0000000180011598 f   libvcruntime:initialization.obj
 0001:000105ac       __vcrt_thread_detach       00000001800115ac f   libvcruntime:initialization.obj
 0001:000105c0       __vcrt_uninitialize        00000001800115c0 f   libvcruntime:initialization.obj
 0001:000105dc       __vcrt_uninitialize_critical 00000001800115dc f   libvcruntime:initialization.obj
 0001:000105ec       __C_specific_handler       00000001800115ec f   libvcruntime:riscchandler.obj
 0001:000107e4       ??$_CallSETranslator@V__FrameHandler3@@@@YAHPEAUEHExceptionRecord@@PEA_KPEAU_CONTEXT@@PEAU_xDISPATCHER_CONTEXT@@PEBU_s_FuncInfo@@K1H@Z 00000001800117e4 f i libvcruntime:risctrnsctrl.obj
 0001:00010838       ??$_CallSETranslator@V__FrameHandler4@@@@YAHPEAUEHExceptionRecord@@PEA_KPEAU_CONTEXT@@PEAU_xDISPATCHER_CONTEXT@@PEAUFuncInfo4@FH4@@K1H@Z 0000000180011838 f i libvcruntime:risctrnsctrl.obj
 0001:0001088c       ?CatchTryBlock@__FrameHandler3@@SAPEBU_s_TryBlockMapEntry@@PEBU_s_FuncInfo@@H@Z 000000018001188c f   libvcruntime:risctrnsctrl.obj
 0001:000108f0       ?DecompFuncInfo@FH4@@YA_JPEAEAEAUFuncInfo4@1@_KH_N@Z 00000001800118f0 f i libvcruntime:risctrnsctrl.obj
 0001:00010a14       ?ExecutionInCatch@__FrameHandler3@@SA_NPEAU_xDISPATCHER_CONTEXT@@PEBU_s_FuncInfo@@@Z 0000000180011a14 f   libvcruntime:risctrnsctrl.obj
 0001:00010a40       ?ExecutionInCatch@__FrameHandler4@@SA_NPEAU_xDISPATCHER_CONTEXT@@PEAUFuncInfo4@FH4@@@Z 0000000180011a40 f   libvcruntime:risctrnsctrl.obj
 0001:00010a48       ?FrameUnwindToEmptyState@__FrameHandler3@@SAXPEA_KPEAU_xDISPATCHER_CONTEXT@@PEBU_s_FuncInfo@@@Z 0000000180011a48 f   libvcruntime:risctrnsctrl.obj
 0001:00010aac       ?FrameUnwindToEmptyState@__FrameHandler4@@SAXPEA_KPEAU_xDISPATCHER_CONTEXT@@PEAUFuncInfo4@FH4@@@Z 0000000180011aac f   libvcruntime:risctrnsctrl.obj
 0001:00010ae0       ?GetEstablisherFrame@__FrameHandler3@@SAPEA_KPEA_KPEAU_xDISPATCHER_CONTEXT@@PEBU_s_FuncInfo@@0@Z 0000000180011ae0 f   libvcruntime:risctrnsctrl.obj
 0001:00010bac       ?GetEstablisherFrame@__FrameHandler4@@SAPEA_KPEA_KPEAU_xDISPATCHER_CONTEXT@@PEAUFuncInfo4@FH4@@0@Z 0000000180011bac f   libvcruntime:risctrnsctrl.obj
 0001:00010bd0       ?GetRangeOfTrysToCheck@__FrameHandler3@@SA?AU?$pair@Viterator@TryBlockMap@__FrameHandler3@@V123@@std@@AEAVTryBlockMap@1@HPEAU_xDISPATCHER_CONTEXT@@PEBU_s_FuncInfo@@H@Z 0000000180011bd0 f   libvcruntime:risctrnsctrl.obj
 0001:00010d10       ?GetRangeOfTrysToCheck@__FrameHandler4@@SA?AU?$pair@Viterator@TryBlockMap4@FH4@@V123@@std@@AEAVTryBlockMap4@FH4@@HPEAU_xDISPATCHER_CONTEXT@@PEAUFuncInfo4@5@H@Z 0000000180011d10 f   libvcruntime:risctrnsctrl.obj
 0001:00010e7c       ?UnwindNestedFrames@__FrameHandler3@@SAXPEA_KPEAUEHExceptionRecord@@PEAU_CONTEXT@@0PEAXPEBU_s_FuncInfo@@HHPEBU_s_HandlerType@@PEAU_xDISPATCHER_CONTEXT@@E@Z 0000000180011e7c f   libvcruntime:risctrnsctrl.obj
 0001:00010f80       ?UnwindNestedFrames@__FrameHandler4@@SAXPEA_KPEAUEHExceptionRecord@@PEAU_CONTEXT@@0PEAXPEAUFuncInfo4@FH4@@HHPEAUHandlerType4@5@PEAU_xDISPATCHER_CONTEXT@@E@Z 0000000180011f80 f   libvcruntime:risctrnsctrl.obj
 0001:000110a0       ?setBuffer@TryBlockMap4@FH4@@QEAAXViterator@12@@Z 00000001800120a0 f i libvcruntime:risctrnsctrl.obj
 0001:00011264       _CreateFrameInfo           0000000180012264 f   libvcruntime:risctrnsctrl.obj
 0001:000112a0       _FindAndUnlinkFrame        00000001800122a0 f   libvcruntime:risctrnsctrl.obj
 0001:000112f4       _GetImageBase              00000001800122f4 f   libvcruntime:risctrnsctrl.obj
 0001:00011308       _GetThrowImageBase         0000000180012308 f   libvcruntime:risctrnsctrl.obj
 0001:0001131c       _SetImageBase              000000018001231c f   libvcruntime:risctrnsctrl.obj
 0001:00011334       _SetThrowImageBase         0000000180012334 f   libvcruntime:risctrnsctrl.obj
 0001:0001134c       __CxxFrameHandler3         000000018001234c f   libvcruntime:risctrnsctrl.obj
 0001:000113d4       __CxxFrameHandler4         00000001800123d4 f   libvcruntime:risctrnsctrl.obj
 0001:00011494       __DestructExceptionObject  0000000180012494 f   libvcruntime:ehhelpers.obj
 0001:00011504       ?_CallMemberFunction0@@YAXQEAX0@Z 0000000180012504 f i libvcruntime:ehhelpers.obj
 0001:00011508       _IsExceptionObjectToBeDestroyed 0000000180012508 f   libvcruntime:ehhelpers.obj
 0001:00011538       __AdjustPointer            0000000180012538 f   libvcruntime:ehhelpers.obj
 0001:0001155c       __FrameUnwindFilter        000000018001255c f   libvcruntime:ehhelpers.obj
 0001:000115c4       __std_terminate            00000001800125c4 f   libvcruntime:ehhelpers.obj
 0001:000115d0       __std_type_info_compare    00000001800125d0 f   libvcruntime:std_type_info.obj
 0001:000115f8       __std_type_info_destroy_list 00000001800125f8 f   libvcruntime:std_type_info.obj
 0001:00011624       __std_exception_copy       0000000180012624 f   libvcruntime:std_exception.obj
 0001:000116b4       __std_exception_destroy    00000001800126b4 f   libvcruntime:std_exception.obj
 0001:000116dc       _CxxThrowException         00000001800126dc f   libvcruntime:throw.obj
 0001:0001177c       __vcrt_freefls             000000018001277c f   libvcruntime:per_thread_data.obj
 0001:0001179c       __vcrt_freeptd             000000018001279c f   libvcruntime:per_thread_data.obj
 0001:000117ec       __vcrt_getptd              00000001800127ec f   libvcruntime:per_thread_data.obj
 0001:00011808       __vcrt_getptd_noexit       0000000180012808 f   libvcruntime:per_thread_data.obj
 0001:000118c8       __vcrt_initialize_ptd      00000001800128c8 f   libvcruntime:per_thread_data.obj
 0001:00011910       __vcrt_uninitialize_ptd    0000000180012910 f   libvcruntime:per_thread_data.obj
 0001:00011934       __vcrt_initialize_locks    0000000180012934 f   libvcruntime:locks.obj
 0001:0001197c       __vcrt_uninitialize_locks  000000018001297c f   libvcruntime:locks.obj
 0001:000119d0       _NLG_Notify                00000001800129d0 f   libvcruntime:notify.obj
 0001:000119f0       __NLG_Dispatch2            00000001800129f0 f   libvcruntime:notify.obj
 0001:00011a00       __NLG_Return2              0000000180012a00 f   libvcruntime:notify.obj
 0001:00011a04       __except_validate_context_record 0000000180012a04 f   libvcruntime:jbcxrval.obj
 0001:00011a3c       ?GetCurrentState@__FrameHandler3@@SAHPEA_KPEAU_xDISPATCHER_CONTEXT@@PEBU_s_FuncInfo@@@Z 0000000180012a3c f   libvcruntime:ehstate.obj
 0001:00011a64       ?GetUnwindTryBlock@__FrameHandler3@@SAHPEA_KPEAU_xDISPATCHER_CONTEXT@@PEBU_s_FuncInfo@@@Z 0000000180012a64 f   libvcruntime:ehstate.obj
 0001:00011a90       ?SetState@__FrameHandler3@@SAXPEA_KPEBU_s_FuncInfo@@H@Z 0000000180012a90 f   libvcruntime:ehstate.obj
 0001:00011a9c       ?SetUnwindTryBlock@__FrameHandler3@@SAXPEA_KPEAU_xDISPATCHER_CONTEXT@@PEBU_s_FuncInfo@@H@Z 0000000180012a9c f   libvcruntime:ehstate.obj
 0001:00011ad8       ?StateFromControlPc@__FrameHandler3@@SAHPEBU_s_FuncInfo@@PEAU_xDISPATCHER_CONTEXT@@@Z 0000000180012ad8 f   libvcruntime:ehstate.obj
 0001:00011ae0       ?StateFromControlPc@__FrameHandler4@@SAHPEAUFuncInfo4@FH4@@PEAU_xDISPATCHER_CONTEXT@@@Z 0000000180012ae0 f   libvcruntime:ehstate.obj
 0001:00011ae8       ?StateFromIp@__FrameHandler3@@SAHPEBU_s_FuncInfo@@PEAU_xDISPATCHER_CONTEXT@@_K@Z 0000000180012ae8 f   libvcruntime:ehstate.obj
 0001:00011b50       ?StateFromIp@__FrameHandler4@@SAHPEAUFuncInfo4@FH4@@PEAU_xDISPATCHER_CONTEXT@@_K@Z 0000000180012b50 f   libvcruntime:ehstate.obj
 0001:00013250       ??$TypeMatchHelper@V__FrameHandler3@@@@YAHPEBU_s_HandlerType@@PEBU_s_CatchableType@@PEBU_s_ThrowInfo@@@Z 0000000180014250 f i libvcruntime:frame.obj
 0001:00013390       ??$TypeMatchHelper@V__FrameHandler4@@@@YAHPEAUHandlerType4@FH4@@PEBU_s_CatchableType@@PEBU_s_ThrowInfo@@@Z 0000000180014390 f i libvcruntime:frame.obj
 0001:000134d4       ??$__InternalCxxFrameHandler@V__FrameHandler3@@@@YA?AW4_EXCEPTION_DISPOSITION@@PEAUEHExceptionRecord@@PEA_KPEAU_CONTEXT@@PEAU_xDISPATCHER_CONTEXT@@PEBU_s_FuncInfo@@H1E@Z 00000001800144d4 f i libvcruntime:frame.obj
 0001:0001370c       ??$__InternalCxxFrameHandler@V__FrameHandler4@@@@YA?AW4_EXCEPTION_DISPOSITION@@PEAUEHExceptionRecord@@PEA_KPEAU_CONTEXT@@PEAU_xDISPATCHER_CONTEXT@@PEAUFuncInfo4@FH4@@H1E@Z 000000018001470c f i libvcruntime:frame.obj
 0001:000139a0       ??0HandlerMap4@FH4@@QEAA@PEBUTryBlockMapEntry4@1@_KH@Z 00000001800149a0 f i libvcruntime:frame.obj
 0001:00013a1c       ??0TryBlockMap4@FH4@@QEAA@PEBUFuncInfo4@1@_K@Z 0000000180014a1c f i libvcruntime:frame.obj
 0001:00013af4       ??0bad_exception@std@@QEAA@AEBV01@@Z 0000000180014af4 f i libvcruntime:frame.obj
 0001:00013b30       ??0bad_exception@std@@QEAA@XZ 0000000180014b30 f i libvcruntime:frame.obj
 0001:00013b50       ?CxxCallCatchBlock@__FrameHandler3@@SAPEAXPEAU_EXCEPTION_RECORD@@@Z 0000000180014b50 f   libvcruntime:frame.obj
 0001:00013d3c       ?CxxCallCatchBlock@__FrameHandler4@@SAPEAXPEAU_EXCEPTION_RECORD@@@Z 0000000180014d3c f   libvcruntime:frame.obj
 0001:00013f8c       ?DecompHandler@HandlerMap4@FH4@@AEAAXXZ 0000000180014f8c f i libvcruntime:frame.obj
 0001:000141d8       ?FrameUnwindToState@__FrameHandler3@@SAXPEA_KPEAU_xDISPATCHER_CONTEXT@@PEBU_s_FuncInfo@@H@Z 00000001800151d8 f   libvcruntime:frame.obj
 0001:00014364       ?FrameUnwindToState@__FrameHandler4@@SAXPEA_KPEAU_xDISPATCHER_CONTEXT@@PEAUFuncInfo4@FH4@@H@Z 0000000180015364 f   libvcruntime:frame.obj
 0001:00014660       ?GetHandlerSearchState@__FrameHandler3@@SAHPEA_KPEAU_xDISPATCHER_CONTEXT@@PEBU_s_FuncInfo@@@Z 0000000180015660 f i libvcruntime:frame.obj
 0001:00014870       ?ReadEntry@UWMap4@FH4@@AEAAXPEAPEAE@Z 0000000180015870 f i libvcruntime:frame.obj
 0001:0001490c       ?_CallMemberFunction1@@YAXQEAX00@Z 000000018001590c f i libvcruntime:frame.obj
 0001:00014918       ?_CallMemberFunction2@@YAXQEAX00H@Z 0000000180015918 f i libvcruntime:frame.obj
 0001:00014928       ?getStartStop@UWMap4@FH4@@QEAAXHHAEAViterator@12@0@Z 0000000180015928 f i libvcruntime:frame.obj
 0001:000149f8       ?getStateFromIterators@UWMap4@FH4@@SAHAEBViterator@12@H0H0@Z 00000001800159f8 f i libvcruntime:frame.obj
 0001:00014c14       __vcrt_FlsAlloc            0000000180015c14 f   libvcruntime:winapi_downlevel.obj
 0001:00014c5c       __vcrt_FlsFree             0000000180015c5c f   libvcruntime:winapi_downlevel.obj
 0001:00014ca4       __vcrt_FlsGetValue         0000000180015ca4 f   libvcruntime:winapi_downlevel.obj
 0001:00014cec       __vcrt_FlsSetValue         0000000180015cec f   libvcruntime:winapi_downlevel.obj
 0001:00014d40       __vcrt_InitializeCriticalSectionEx 0000000180015d40 f   libvcruntime:winapi_downlevel.obj
 0001:00014dc0       _CallSettingFrame          0000000180015dc0 f   libvcruntime:handlers.obj
 0001:00014e10       _CallSettingFrame_LookupContinuationIndex 0000000180015e10 f   libvcruntime:handlers.obj
 0001:00014e40       _CallSettingFrame_NotifyContinuationAddr 0000000180015e40 f   libvcruntime:handlers.obj
 0001:00014e70       _CallSettingFrameEncoded   0000000180015e70 f   libvcruntime:handlers.obj
 0001:00014eb8       free                       0000000180015eb8 f   libucrt:free.obj
 0001:00014ecc       ?get_raw_ptd@__crt_cached_ptd_host@@QEAAPEAU__acrt_ptd@@XZ 0000000180015ecc f i libucrt:invalid_parameter.obj
 0001:00014f34       ?get_raw_ptd_noexit@__crt_cached_ptd_host@@QEAAPEAU__acrt_ptd@@XZ 0000000180015f34 f i libucrt:invalid_parameter.obj
 0001:00014fa0       ?value@?$dual_state_global@P6AXPEB_W00I_K@Z@__crt_state_management@@QEAAAEAP6AXPEB_W00I_K@ZAEAV__crt_cached_ptd_host@@@Z 0000000180015fa0 f i libucrt:invalid_parameter.obj
 0001:00014fec       __acrt_call_reportfault    0000000180015fec f   libucrt:invalid_parameter.obj
 0001:00015148       __acrt_initialize_invalid_parameter_handler 0000000180016148 f   libucrt:invalid_parameter.obj
 0001:00015150       _invalid_parameter         0000000180016150 f   libucrt:invalid_parameter.obj
 0001:000151ec       _invalid_parameter_internal 00000001800161ec f   libucrt:invalid_parameter.obj
 0001:000152bc       _invalid_parameter_noinfo  00000001800162bc f   libucrt:invalid_parameter.obj
 0001:000152dc       _invoke_watson             00000001800162dc f   libucrt:invalid_parameter.obj
 0001:00015324       __acrt_errno_from_os_error 0000000180016324 f   libucrt:errno.obj
 0001:0001536c       __acrt_errno_map_os_error  000000018001636c f   libucrt:errno.obj
 0001:000153b4       __acrt_errno_map_os_error_ptd 00000001800163b4 f   libucrt:errno.obj
 0001:000153d8       __doserrno                 00000001800163d8 f   libucrt:errno.obj
 0001:000153f8       _errno                     00000001800163f8 f   libucrt:errno.obj
 0001:00015418       calloc                     0000000180016418 f   libucrt:calloc.obj
 0001:00015420       malloc                     0000000180016420 f   libucrt:malloc.obj
 0001:00015428       _recalloc                  0000000180016428 f   libucrt:recalloc.obj
 0001:00015430       _recalloc_base             0000000180016430 f   libucrt:recalloc.obj
 0001:000154c8       _resetstkoflw              00000001800164c8 f   libucrt:resetstk.obj
 0001:000155f4       wcscat_s                   00000001800165f4 f   libucrt:wcscat_s.obj
 0001:00015678       wcscpy_s                   0000000180016678 f   libucrt:wcscpy_s.obj
 0001:000156e0       wcsncpy_s                  00000001800166e0 f   libucrt:wcsncpy_s.obj
 0001:00015994       ??$ensure_buffer_is_big_enough@D@formatting_buffer@__crt_stdio_output@@QEAA_N_KAEAV__crt_cached_ptd_host@@@Z 0000000180016994 f i libucrt:output.obj
 0001:00015a3c       ??$ensure_buffer_is_big_enough@_W@formatting_buffer@__crt_stdio_output@@QEAA_N_KAEAV__crt_cached_ptd_host@@@Z 0000000180016a3c f i libucrt:output.obj
 0001:00015ae8       ??$is_wide_character_specifier@_W@__crt_stdio_output@@YA_N_K_WW4length_modifier@0@@Z 0000000180016ae8 f i libucrt:output.obj
 0001:00015b28       ??$parse_integer@KV?$c_string_character_source@_W@__crt_strtox@@$0A@@__crt_strtox@@YAKAEAV__crt_cached_ptd_host@@V?$c_string_character_source@_W@0@H_N@Z 0000000180016b28 f i libucrt:output.obj
 0001:00016280       ??$type_case_integer@$07@?$output_processor@_WV?$string_output_adapter@_W@__crt_stdio_output@@V?$format_validation_base@_WV?$string_output_adapter@_W@__crt_stdio_output@@@2@@__crt_stdio_output@@AEAA_N_N@Z 0000000180017280 f i libucrt:output.obj
 0001:0001646c       ??$type_case_integer@$09@?$output_processor@_WV?$string_output_adapter@_W@__crt_stdio_output@@V?$format_validation_base@_WV?$string_output_adapter@_W@__crt_stdio_output@@@2@@__crt_stdio_output@@AEAA_N_N@Z 000000018001746c f i libucrt:output.obj
 0001:00016658       ??$type_case_integer@$0BA@@?$output_processor@_WV?$string_output_adapter@_W@__crt_stdio_output@@V?$format_validation_base@_WV?$string_output_adapter@_W@__crt_stdio_output@@@2@@__crt_stdio_output@@AEAA_N_N@Z 0000000180017658 f i libucrt:output.obj
 0001:00016844       ??$type_case_integer_parse_into_buffer@I$07@?$output_processor@_WV?$string_output_adapter@_W@__crt_stdio_output@@V?$format_validation_base@_WV?$string_output_adapter@_W@__crt_stdio_output@@@2@@__crt_stdio_output@@AEAAXI_N@Z 0000000180017844 f i libucrt:output.obj
 0001:000168cc       ??$type_case_integer_parse_into_buffer@I$09@?$output_processor@_WV?$string_output_adapter@_W@__crt_stdio_output@@V?$format_validation_base@_WV?$string_output_adapter@_W@__crt_stdio_output@@@2@@__crt_stdio_output@@AEAAXI_N@Z 00000001800178cc f i libucrt:output.obj
 0001:00016984       ??$type_case_integer_parse_into_buffer@I$0BA@@?$output_processor@_WV?$string_output_adapter@_W@__crt_stdio_output@@V?$format_validation_base@_WV?$string_output_adapter@_W@__crt_stdio_output@@@2@@__crt_stdio_output@@AEAAXI_N@Z 0000000180017984 f i libucrt:output.obj
 0001:00016a28       ??$type_case_integer_parse_into_buffer@_K$07@?$output_processor@_WV?$string_output_adapter@_W@__crt_stdio_output@@V?$format_validation_base@_WV?$string_output_adapter@_W@__crt_stdio_output@@@2@@__crt_stdio_output@@AEAAX_K_N@Z 0000000180017a28 f i libucrt:output.obj
 0001:00016ab0       ??$type_case_integer_parse_into_buffer@_K$09@?$output_processor@_WV?$string_output_adapter@_W@__crt_stdio_output@@V?$format_validation_base@_WV?$string_output_adapter@_W@__crt_stdio_output@@@2@@__crt_stdio_output@@AEAAX_K_N@Z 0000000180017ab0 f i libucrt:output.obj
 0001:00016b70       ??$type_case_integer_parse_into_buffer@_K$0BA@@?$output_processor@_WV?$string_output_adapter@_W@__crt_stdio_output@@V?$format_validation_base@_WV?$string_output_adapter@_W@__crt_stdio_output@@@2@@__crt_stdio_output@@AEAAX_K_N@Z 0000000180017b70 f i libucrt:output.obj
 0001:00016c14       ?crop_zeroes@__crt_stdio_output@@YAXPEADQEAU__crt_locale_pointers@@@Z 0000000180017c14 f i libucrt:output.obj
 0001:00016c80       ?parse_int_from_format_string@?$output_processor@_WV?$string_output_adapter@_W@__crt_stdio_output@@V?$format_validation_base@_WV?$string_output_adapter@_W@__crt_stdio_output@@@2@@__crt_stdio_output@@AEAA_NQEAH@Z 0000000180017c80 f i libucrt:output.obj
 0001:00016d10       ?process@?$output_processor@_WV?$string_output_adapter@_W@__crt_stdio_output@@V?$format_validation_base@_WV?$string_output_adapter@_W@__crt_stdio_output@@@2@@__crt_stdio_output@@QEAAHXZ 0000000180017d10 f i libucrt:output.obj
 0001:00016fec       ?state_case_size@?$output_processor@_WV?$string_output_adapter@_W@__crt_stdio_output@@V?$format_validation_base@_WV?$string_output_adapter@_W@__crt_stdio_output@@@2@@__crt_stdio_output@@AEAA_NXZ 0000000180017fec f i libucrt:output.obj
 0001:00017198       ?state_case_type@?$output_processor@_WV?$string_output_adapter@_W@__crt_stdio_output@@V?$format_validation_base@_WV?$string_output_adapter@_W@__crt_stdio_output@@@2@@__crt_stdio_output@@AEAA_NXZ 0000000180018198 f i libucrt:output.obj
 0001:000175f4       ?type_case_Z@?$output_processor@_WV?$string_output_adapter@_W@__crt_stdio_output@@V?$format_validation_base@_WV?$string_output_adapter@_W@__crt_stdio_output@@@2@@__crt_stdio_output@@AEAA_NXZ 00000001800185f4 f i libucrt:output.obj
 0001:00017670       ?type_case_a@?$output_processor@_WV?$string_output_adapter@_W@__crt_stdio_output@@V?$format_validation_base@_WV?$string_output_adapter@_W@__crt_stdio_output@@@2@@__crt_stdio_output@@AEAA_NXZ 0000000180018670 f i libucrt:output.obj
 0001:000178d0       ?type_case_c_tchar@?$output_processor@_WV?$string_output_adapter@_W@__crt_stdio_output@@V?$format_validation_base@_WV?$string_output_adapter@_W@__crt_stdio_output@@@2@@__crt_stdio_output@@AEAA_N_W@Z 00000001800188d0 f i libucrt:output.obj
 0001:00017994       ?type_case_n@?$output_processor@_WV?$string_output_adapter@_W@__crt_stdio_output@@V?$format_validation_base@_WV?$string_output_adapter@_W@__crt_stdio_output@@@2@@__crt_stdio_output@@AEAA_NXZ 0000000180018994 f i libucrt:output.obj
 0001:00017a48       ?type_case_s@?$output_processor@_WV?$string_output_adapter@_W@__crt_stdio_output@@V?$format_validation_base@_WV?$string_output_adapter@_W@__crt_stdio_output@@@2@@__crt_stdio_output@@AEAA_NXZ 0000000180018a48 f i libucrt:output.obj
 0001:00017ae0       ?type_case_s_compute_narrow_string_length@?$output_processor@_WV?$string_output_adapter@_W@__crt_stdio_output@@V?$format_validation_base@_WV?$string_output_adapter@_W@__crt_stdio_output@@@2@@__crt_stdio_output@@AEAAHH_W@Z 0000000180018ae0 f i libucrt:output.obj
 0001:00017b60       ?update_locale_slow@__crt_cached_ptd_host@@AEAAXXZ 0000000180018b60 f i libucrt:output.obj
 0001:00017bd8       ?write_string@?$string_output_adapter@_W@__crt_stdio_output@@QEBAXQEB_WHQEAHAEAV__crt_cached_ptd_host@@@Z 0000000180018bd8 f i libucrt:output.obj
 0001:00017c80       __stdio_common_vswprintf_s 0000000180018c80 f   libucrt:output.obj
 0001:00017d94       _seh_filter_dll            0000000180018d94 f   libucrt:exception_filter.obj
 0001:00017da8       _seh_filter_exe            0000000180018da8 f   libucrt:exception_filter.obj
 0001:000181cc       __acrt_initialize_thread_local_exit_callback 00000001800191cc f   libucrt:exit.obj
 0001:000181d4       _cexit                     00000001800191d4 f   libucrt:exit.obj
 0001:000181e4       _exit                      00000001800191e4 f   libucrt:exit.obj
 0001:000181f0       _is_c_termination_complete 00000001800191f0 f   libucrt:exit.obj
 0001:000183b8       __acrt_allocate_buffer_for_argv 00000001800193b8 f   libucrt:argv_parsing.obj
 0001:00018418       _configure_narrow_argv     0000000180019418 f   libucrt:argv_parsing.obj
 0001:000187a0       __dcrt_uninitialize_environments_nolock 00000001800197a0 f   libucrt:environment_initialization.obj
 0001:000187e4       _initialize_narrow_environment 00000001800197e4 f   libucrt:environment_initialization.obj
 0001:00018b34       _crt_atexit                0000000180019b34 f   libucrt:onexit.obj
 0001:00018b44       _execute_onexit_table      0000000180019b44 f   libucrt:onexit.obj
 0001:00018b88       _initialize_onexit_table   0000000180019b88 f   libucrt:onexit.obj
 0001:00018bb0       _register_onexit_function  0000000180019bb0 f   libucrt:onexit.obj
 0001:00018c30       __acrt_uninitialize_command_line 0000000180019c30 f   libucrt:argv_data.obj
 0001:00018d28       __acrt_initialize          0000000180019d28 f   libucrt:initialization.obj
 0001:00018d3c       __acrt_thread_attach       0000000180019d3c f   libucrt:initialization.obj
 0001:00018d50       __acrt_thread_detach       0000000180019d50 f   libucrt:initialization.obj
 0001:00018d60       __acrt_uninitialize        0000000180019d60 f   libucrt:initialization.obj
 0001:00018d98       __acrt_uninitialize_critical 0000000180019d98 f   libucrt:initialization.obj
 0001:00018da8       _initterm                  0000000180019da8 f   libucrt:initterm.obj
 0001:00018dec       _initterm_e                0000000180019dec f   libucrt:initterm.obj
 0001:00018e34       __acrt_initialize_new_handler 0000000180019e34 f   libucrt:new_handler.obj
 0001:00018e3c       _callnewh                  0000000180019e3c f   libucrt:new_handler.obj
 0001:00018e78       _query_new_handler         0000000180019e78 f   libucrt:new_handler.obj
 0001:00018eac       terminate                  0000000180019eac f   libucrt:terminate.obj
 0001:00018ed8       abort                      0000000180019ed8 f   libucrt:abort.obj
 0001:00018f30       strcpy_s                   0000000180019f30 f   libucrt:strcpy_s.obj
 0001:00018fa0       strncmp                    0000000180019fa0 f   libucrt:strncmp.obj
 0001:00019020       wcsncmp                    000000018001a020 f   libucrt:wcsncmp.obj
 0001:0001904c       _free_base                 000000018001a04c f   libucrt:free_base.obj
 0001:00019400       __acrt_freeptd             000000018001a400 f   libucrt:per_thread_data.obj
 0001:00019444       __acrt_getptd              000000018001a444 f   libucrt:per_thread_data.obj
 0001:00019518       __acrt_getptd_head         000000018001a518 f   libucrt:per_thread_data.obj
 0001:000195bc       __acrt_getptd_noexit       000000018001a5bc f   libucrt:per_thread_data.obj
 0001:00019684       __acrt_getptd_noexit_explicit 000000018001a684 f   libucrt:per_thread_data.obj
 0001:00019744       __acrt_initialize_ptd      000000018001a744 f   libucrt:per_thread_data.obj
 0001:00019780       __acrt_uninitialize_ptd    000000018001a780 f   libucrt:per_thread_data.obj
 0001:00019814       __acrt_set_locale_changed  000000018001a814 f   libucrt:wsetlocale.obj
 0001:00019820       __acrt_uninitialize_locale 000000018001a820 f   libucrt:wsetlocale.obj
 0001:00019850       _calloc_base               000000018001a850 f   libucrt:calloc_base.obj
 0001:000198c8       _malloc_base               000000018001a8c8 f   libucrt:malloc_base.obj
 0001:00019928       _msize_base                000000018001a928 f   libucrt:msize.obj
 0001:00019964       _realloc_base              000000018001a964 f   libucrt:realloc_base.obj
 0001:00019ba0       __acrt_AppPolicyGetProcessTerminationMethodInternal 000000018001aba0 f   libucrt:winapi_thunks.obj
 0001:00019bf8       __acrt_AreFileApisANSI     000000018001abf8 f   libucrt:winapi_thunks.obj
 0001:00019c3c       __acrt_FlsAlloc            000000018001ac3c f   libucrt:winapi_thunks.obj
 0001:00019c44       __acrt_FlsFree             000000018001ac44 f   libucrt:winapi_thunks.obj
 0001:00019c4c       __acrt_FlsGetValue         000000018001ac4c f   libucrt:winapi_thunks.obj
 0001:00019c54       __acrt_FlsSetValue         000000018001ac54 f   libucrt:winapi_thunks.obj
 0001:00019c5c       __acrt_InitializeCriticalSectionEx 000000018001ac5c f   libucrt:winapi_thunks.obj
 0001:00019ccc       __acrt_LCMapStringEx       000000018001accc f   libucrt:winapi_thunks.obj
 0001:00019db8       __acrt_LocaleNameToLCID    000000018001adb8 f   libucrt:winapi_thunks.obj
 0001:00019e18       __acrt_SetThreadStackGuarantee 000000018001ae18 f   libucrt:winapi_thunks.obj
 0001:00019e64       __acrt_initialize_winapi_thunks 000000018001ae64 f   libucrt:winapi_thunks.obj
 0001:00019e88       __acrt_uninitialize_winapi_thunks 000000018001ae88 f   libucrt:winapi_thunks.obj
 0001:00019ecc       wcsnlen                    000000018001aecc f   libucrt:strnlen.obj
 0001:0001a0a4       __acrt_update_locale_info  000000018001b0a4 f   libucrt:locale_update.obj
 0001:0001a0d8       __acrt_update_locale_info_explicit 000000018001b0d8 f   libucrt:locale_update.obj
 0001:0001a110       __acrt_update_multibyte_info 000000018001b110 f   libucrt:locale_update.obj
 0001:0001a144       __acrt_update_multibyte_info_explicit 000000018001b144 f   libucrt:locale_update.obj
 0001:0001acac       __acrt_fp_format           000000018001bcac f   libucrt:cvt.obj
 0001:0001af94       _mbtowc_internal           000000018001bf94 f   libucrt:mbtowc.obj
 0001:0001b10c       _fileno                    000000018001c10c f   libucrt:fileno.obj
 0001:0001b134       __acrt_initialize_stdio    000000018001c134 f   libucrt:_file.obj
 0001:0001b254       __acrt_uninitialize_stdio  000000018001c254 f   libucrt:_file.obj
 0001:0001b2b0       _lock_file                 000000018001c2b0 f   libucrt:_file.obj
 0001:0001b2bc       _unlock_file               000000018001c2bc f   libucrt:_file.obj
 0001:0001b2c8       _get_printf_count_output   000000018001c2c8 f   libucrt:printf_count_output.obj
 0001:0001b4d8       __acrt_initialize_lowio    000000018001c4d8 f   libucrt:ioinit.obj
 0001:0001b514       __acrt_uninitialize_lowio  000000018001c514 f   libucrt:ioinit.obj
 0001:0001b554       __acrt_initialize_locks    000000018001c554 f   libucrt:locks.obj
 0001:0001b59c       __acrt_lock                000000018001c59c f   libucrt:locks.obj
 0001:0001b5b8       __acrt_uninitialize_locks  000000018001c5b8 f   libucrt:locks.obj
 0001:0001b5f0       __acrt_unlock              000000018001c5f0 f   libucrt:locks.obj
 0001:0001b60c       __acrt_get_process_end_policy 000000018001c60c f   libucrt:win_policies.obj
 0001:0001b65c       ??$__acrt_convert_wcs_mbs_cp@D_WV<lambda_7c9dea7b4ca7285d2cdb541a38da6275>@@U__crt_win32_buffer_internal_dynamic_resizing@@@@YAHQEBDAEAV?$__crt_win32_buffer@_WU__crt_win32_buffer_internal_dynamic_resizing@@@@AEBV<lambda_7c9dea7b4ca7285d2cdb541a38da6275>@@I@Z 000000018001c65c f i libucrt:argv_wildcards.obj
 0001:0001b7d8       ??$__acrt_convert_wcs_mbs_cp@_WDV<lambda_d8593a27d1aa8c02be35c86a17d324c4>@@U__crt_win32_buffer_internal_dynamic_resizing@@@@YAHQEB_WAEAV?$__crt_win32_buffer@DU__crt_win32_buffer_internal_dynamic_resizing@@@@AEBV<lambda_d8593a27d1aa8c02be35c86a17d324c4>@@I@Z 000000018001c7d8 f i libucrt:argv_wildcards.obj
 0001:0001c080       ??0_LocaleUpdate@@QEAA@QEAU__crt_locale_pointers@@@Z 000000018001d080 f i libucrt:argv_wildcards.obj
 0001:0001c11c       __acrt_expand_narrow_argv_wildcards 000000018001d11c f   libucrt:argv_wildcards.obj
 0001:0001c124       ??$__acrt_convert_wcs_mbs_cp@_WDV<lambda_f788ae46380686e8b737efdd8c720d07>@@U__crt_win32_buffer_no_resizing@@@@YAHQEB_WAEAV?$__crt_win32_buffer@DU__crt_win32_buffer_no_resizing@@@@AEBV<lambda_f788ae46380686e8b737efdd8c720d07>@@I@Z 000000018001d124 f i libucrt:getmodulefilenamea.obj
 0001:0001c240       __acrt_GetModuleFileNameA  000000018001d240 f   libucrt:getmodulefilenamea.obj
 0001:0001cb5c       __acrt_initialize_multibyte 000000018001db5c f   libucrt:mbctype.obj
 0001:0001cbbc       __acrt_update_thread_multibyte_data 000000018001dbbc f   libucrt:mbctype.obj
 0001:0001cbd8       _setmbcp_nolock            000000018001dbd8 f   libucrt:mbctype.obj
 0001:0001cf0c       _ismbblead                 000000018001df0c f   libucrt:ismbbyte.obj
 0001:0001cf20       __acrt_initialize_command_line 000000018001df20 f   libucrt:argv_data.obj
 0001:0001cf48       __acrt_MultiByteToWideChar 000000018001df48 f   libucrt:multibytetowidechar.obj
 0001:0001cfa4       __acrt_WideCharToMultiByte 000000018001dfa4 f   libucrt:widechartomultibyte.obj
 0001:0001d054       __dcrt_get_narrow_environment_from_os 000000018001e054 f   libucrt:get_environment_from_os.obj
 0001:0001d164       __acrt_initialize_heap     000000018001e164 f   libucrt:heap_handle.obj
 0001:0001d180       __acrt_uninitialize_heap   000000018001e180 f   libucrt:heap_handle.obj
 0001:0001d18c       __acrt_execute_initializers 000000018001e18c f   libucrt:shared_initialization.obj
 0001:0001d220       __acrt_execute_uninitializers 000000018001e220 f   libucrt:shared_initialization.obj
 0001:0001d2b0       __acrt_get_sigabrt_handler 000000018001e2b0 f   libucrt:signal.obj
 0001:0001d2e0       __acrt_initialize_signal_handlers 000000018001e2e0 f   libucrt:signal.obj
 0001:0001d300       raise                      000000018001e300 f   libucrt:signal.obj
 0001:0001d580       __acrt_has_user_matherr    000000018001e580 f   libucrt:matherr.obj
 0001:0001d5a0       __acrt_initialize_user_matherr 000000018001e5a0 f   libucrt:matherr.obj
 0001:0001d5a8       __acrt_invoke_user_matherr 000000018001e5a8 f   libucrt:matherr.obj
 0001:0001d7bc       __acrt_stdio_flush_nolock  000000018001e7bc f   libucrt:fflush.obj
 0001:0001d848       _fflush_nolock             000000018001e848 f   libucrt:fflush.obj
 0001:0001d91c       _flushall                  000000018001e91c f   libucrt:fflush.obj
 0001:0001d924       __acrt_add_locale_ref      000000018001e924 f   libucrt:locale_refcounting.obj
 0001:0001d9b0       __acrt_free_locale         000000018001e9b0 f   libucrt:locale_refcounting.obj
 0001:0001db28       __acrt_locale_add_lc_time_reference 000000018001eb28 f   libucrt:locale_refcounting.obj
 0001:0001db50       __acrt_locale_free_lc_time_if_unreferenced 000000018001eb50 f   libucrt:locale_refcounting.obj
 0001:0001db88       __acrt_locale_release_lc_time_reference 000000018001eb88 f   libucrt:locale_refcounting.obj
 0001:0001dbb0       __acrt_release_locale_ref  000000018001ebb0 f   libucrt:locale_refcounting.obj
 0001:0001dc58       __acrt_update_thread_locale_data 000000018001ec58 f   libucrt:locale_refcounting.obj
 0001:0001dcc8       _updatetlocinfoEx_nolock   000000018001ecc8 f   libucrt:locale_refcounting.obj
 0001:0001dd30       __acrt_locale_free_monetary 000000018001ed30 f   libucrt:initmon.obj
 0001:0001de3c       __acrt_locale_free_numeric 000000018001ee3c f   libucrt:initnum.obj
 0001:0001dedc       __acrt_locale_free_time    000000018001eedc f   libucrt:inittime.obj
 0001:0001dfe4       __acrt_GetStringTypeA      000000018001efe4 f   libucrt:getstringtypea.obj
 0001:0001e180       _query_new_mode            000000018001f180 f   libucrt:new_mode.obj
 0001:0001e188       __acrt_DownlevelLocaleNameToLCID 000000018001f188 f   libucrt:lcidtoname_downlevel.obj
 0001:0001e230       __acrt_fp_strflt_to_string 000000018001f230 f   libucrt:_fptostr.obj
 0001:0001e3c0       ?divide@__crt_strtox@@YA_KAEAUbig_integer@1@AEBU21@@Z 000000018001f3c0 f i libucrt:cfout.obj
 0001:0001e84c       __acrt_fltout              000000018001f84c f   libucrt:cfout.obj
 0001:0001fb14       fegetround                 0000000180020b14 f   libucrt:fegetround.obj
 0001:0001fb28       ?__mbrtowc_utf8@__crt_mbstring@@YA_KPEA_WPEBD_KPEAU_Mbstatet@@AEAV__crt_cached_ptd_host@@@Z 0000000180020b28 f   libucrt:mbrtowc.obj
 0001:0001fb6c       ?__mbsrtowcs_utf8@__crt_mbstring@@YA_KPEA_WPEAPEBD_KPEAU_Mbstatet@@AEAV__crt_cached_ptd_host@@@Z 0000000180020b6c f   libucrt:mbrtowc.obj
 0001:0001fd10       _fcloseall                 0000000180020d10 f   libucrt:closeall.obj
 0001:0001fdc4       __acrt_stdio_free_buffer_nolock 0000000180020dc4 f   libucrt:_freebuf.obj
 0001:0001fe04       _isatty                    0000000180020e04 f   libucrt:isatty.obj
 0001:0001fe64       __acrt_lowio_create_handle_array 0000000180020e64 f   libucrt:osfinfo.obj
 0001:0001ff0c       __acrt_lowio_destroy_handle_array 0000000180020f0c f   libucrt:osfinfo.obj
 0001:0001ff5c       __acrt_lowio_ensure_fh_exists 0000000180020f5c f   libucrt:osfinfo.obj
 0001:00020004       __acrt_lowio_lock_fh       0000000180021004 f   libucrt:osfinfo.obj
 0001:0002002c       __acrt_lowio_unlock_fh     000000018002102c f   libucrt:osfinfo.obj
 0001:00020054       _free_osfhnd               0000000180021054 f   libucrt:osfinfo.obj
 0001:00020110       _get_osfhandle             0000000180021110 f   libucrt:osfinfo.obj
 0001:00020190       qsort                      0000000180021190 f   libucrt:qsort.obj
 0001:000205a0       strncpy_s                  00000001800215a0 f   libucrt:strncpy_s.obj
 0001:00020730       strpbrk                    0000000180021730 f   libucrt:strpbrk.obj
 0001:00020af8       _mbsdec                    0000000180021af8 f   libucrt:mbsdec.obj
 0001:00020b00       _mbsdec_l                  0000000180021b00 f   libucrt:mbsdec.obj
 0001:00020eb4       __acrt_LCMapStringA        0000000180021eb4 f   libucrt:lcmapstringa.obj
 0001:00020ff0       _commit                    0000000180021ff0 f   libucrt:commit.obj
 0001:000218a0       _write_internal            00000001800228a0 f   libucrt:write.obj
 0001:000219c8       _write_nolock              00000001800229c8 f   libucrt:write.obj
 0001:00021cd8       __ascii_wcsnicmp           0000000180022cd8 f   libucrt:wcsnicmp.obj
 0001:00021d24       _controlfp_s               0000000180022d24 f   libucrt:contrlfp.obj
 0001:00021d88       fegetenv                   0000000180022d88 f   libucrt:fegetenv.obj
 0001:00021da8       fesetenv                   0000000180022da8 f   libucrt:fesetenv.obj
 0001:00021df4       feholdexcept               0000000180022df4 f   libucrt:feholdexcept.obj
 0001:00021e44       ceil                       0000000180022e44 f   libucrt:ceil.obj
 0001:00021f10       log10                      0000000180022f10 f   libucrt:log10.obj
 0001:000224bc       __acrt_fenv_get_common_round_control 00000001800234bc f   libucrt:_fenvutils.obj
 0001:000224c8       __acrt_fenv_get_control    00000001800234c8 f   libucrt:_fenvutils.obj
 0001:000225ac       __acrt_fenv_get_status     00000001800235ac f   libucrt:_fenvutils.obj
 0001:00022604       __acrt_fenv_set_control    0000000180023604 f   libucrt:_fenvutils.obj
 0001:00022740       __acrt_fenv_set_status     0000000180023740 f   libucrt:_fenvutils.obj
 0001:000227b4       ?reset_and_return@__crt_mbstring@@YA_K_KPEAU_Mbstatet@@@Z 00000001800237b4 f   libucrt:common_utf8.obj
 0001:000227bc       ?return_illegal_sequence@__crt_mbstring@@YA_KPEAU_Mbstatet@@AEAV__crt_cached_ptd_host@@@Z 00000001800237bc f   libucrt:common_utf8.obj
 0001:000227d0       ?__mbrtoc32_utf8@__crt_mbstring@@YA_KPEA_UPEBD_KPEAU_Mbstatet@@AEAV__crt_cached_ptd_host@@@Z 00000001800237d0 f   libucrt:mbrtoc32.obj
 0001:00022acc       fclose                     0000000180023acc f   libucrt:fclose.obj
 0001:00022c10       _lseeki64_nolock_internal  0000000180023c10 f   libucrt:lseek.obj
 0001:00022c18       _query_app_type            0000000180023c18 f   libucrt:report_runtime_error.obj
 0001:00022c20       __strncnt                  0000000180023c20 f   libucrt:strncnt.obj
 0001:00022c38       _putwch_nolock             0000000180023c38 f   libucrt:putwch.obj
 0001:00022c74       _clearfp                   0000000180023c74 f   libucrt:ieee.obj
 0001:00022ce4       _control87                 0000000180023ce4 f   libucrt:ieee.obj
 0001:000230d0       _handle_error              00000001800240d0 f   libucrt:libm_error.obj
 0001:000231f8       _handle_nan                00000001800241f8 f   libucrt:libm_error.obj
 0001:00023220       __acrt_initialize_fma3     0000000180024220 f   libucrt:fma3_available.obj
 0001:00023290       _log10_special             0000000180024290 f   libucrt:log_special.obj
 0001:000233c0       _close_internal            00000001800243c0 f   libucrt:close.obj
 0001:00023484       _close_nolock_internal     0000000180024484 f   libucrt:close.obj
 0001:00023554       ?__acrt_stdio_free_stream@@YAXV__crt_stdio_stream@@@Z 0000000180024554 f   libucrt:stream.obj
 0001:00023570       __dcrt_lowio_ensure_console_output_initialized 0000000180024570 f   libucrt:initcon.obj
 0001:000235c4       __dcrt_terminate_console_output 00000001800245c4 f   libucrt:initcon.obj
 0001:000235e0       __dcrt_write_console       00000001800245e0 f   libucrt:initcon.obj
 0001:000236b0       _get_fpsr                  00000001800246b0 f   libucrt:fpsr.obj
 0001:000236c0       _set_fpsr                  00000001800246c0 f   libucrt:fpsr.obj
 0001:000236ca       _fclrf                     00000001800246ca f   libucrt:fpsr.obj
 0001:000236de       _frnd                      00000001800246de f   libucrt:fpsr.obj
 0001:00023700       _raise_exc                 0000000180024700 f   libucrt:fpexcept.obj
 0001:00023728       _raise_exc_ex              0000000180024728 f   libucrt:fpexcept.obj
 0001:00023a38       _set_errno_from_matherr    0000000180024a38 f   libucrt:fpexcept.obj
 0001:00023a68       _clrfp                     0000000180024a68 f   libucrt:fpctrl.obj
 0001:00023a88       _ctrlfp                    0000000180024a88 f   libucrt:fpctrl.obj
 0001:00023b04       _set_statfp                0000000180024b04 f   libucrt:fpctrl.obj
 0001:00023b24       _statfp                    0000000180024b24 f   libucrt:fpctrl.obj
 0001:00023b40       _FindPESection             0000000180024b40 f   LIBCMT:pesect.obj
 0001:00023b90       _IsNonwritableInCurrentImage 0000000180024b90 f   LIBCMT:pesect.obj
 0001:00023be0       _ValidateImageBase         0000000180024be0 f   LIBCMT:pesect.obj
 0001:00023c0c       __GSHandlerCheck_EH        0000000180024c0c f   LIBCMT:gshandlereh.obj
 0001:00023c8c       __C_specific_handler_noexcept 0000000180024c8c f   libvcruntime:chandler_noexcept.obj
 0001:00023cd8       strrchr                    0000000180024cd8 f   libvcruntime:strrchr.obj
 0001:00023e30       _guard_dispatch_icall_nop  0000000180024e30 f   LIBCMT:guard_dispatch.obj
 0001:00023e50       _guard_xfg_dispatch_icall_nop 0000000180024e50 f   LIBCMT:guard_xfg_dispatch.obj
 0002:00000000       __imp_RegQueryValueExW     0000000180026000     advapi32:ADVAPI32.dll
 0002:00000008       __imp_RegSetValueExW       0000000180026008     advapi32:ADVAPI32.dll
 0002:00000010       __imp_RegQueryInfoKeyW     0000000180026010     advapi32:ADVAPI32.dll
 0002:00000018       __imp_RegOpenKeyExW        0000000180026018     advapi32:ADVAPI32.dll
 0002:00000020       __imp_RegEnumKeyExW        0000000180026020     advapi32:ADVAPI32.dll
 0002:00000028       __imp_RegDeleteValueW      0000000180026028     advapi32:ADVAPI32.dll
 0002:00000030       __imp_RegDeleteKeyW        0000000180026030     advapi32:ADVAPI32.dll
 0002:00000038       __imp_RegCreateKeyExW      0000000180026038     advapi32:ADVAPI32.dll
 0002:00000040       __imp_RegCloseKey          0000000180026040     advapi32:ADVAPI32.dll
 0002:00000048       \177ADVAPI32_NULL_THUNK_DATA 0000000180026048     advapi32:ADVAPI32.dll
 0002:00000050       __imp_GetObjectW           0000000180026050     gdi32:GDI32.dll
 0002:00000058       __imp_SelectObject         0000000180026058     gdi32:GDI32.dll
 0002:00000060       __imp_DeleteObject         0000000180026060     gdi32:GDI32.dll
 0002:00000068       __imp_CreateCompatibleDC   0000000180026068     gdi32:GDI32.dll
 0002:00000070       __imp_BitBlt               0000000180026070     gdi32:GDI32.dll
 0002:00000078       __imp_SetWindowOrgEx       0000000180026078     gdi32:GDI32.dll
 0002:00000080       __imp_SetWindowExtEx       0000000180026080     gdi32:GDI32.dll
 0002:00000088       __imp_SetViewportOrgEx     0000000180026088     gdi32:GDI32.dll
 0002:00000090       __imp_LPtoDP               0000000180026090     gdi32:GDI32.dll
 0002:00000098       __imp_SetMapMode           0000000180026098     gdi32:GDI32.dll
 0002:000000a0       __imp_SaveDC               00000001800260a0     gdi32:GDI32.dll
 0002:000000a8       __imp_RestoreDC            00000001800260a8     gdi32:GDI32.dll
 0002:000000b0       __imp_GetDeviceCaps        00000001800260b0     gdi32:GDI32.dll
 0002:000000b8       __imp_DeleteMetaFile       00000001800260b8     gdi32:GDI32.dll
 0002:000000c0       __imp_DeleteDC             00000001800260c0     gdi32:GDI32.dll
 0002:000000c8       __imp_CreateRectRgnIndirect 00000001800260c8     gdi32:GDI32.dll
 0002:000000d0       __imp_CreateMetaFileW      00000001800260d0     gdi32:GDI32.dll
 0002:000000d8       __imp_CreateDCW            00000001800260d8     gdi32:GDI32.dll
 0002:000000e0       __imp_CloseMetaFile        00000001800260e0     gdi32:GDI32.dll
 0002:000000e8       \177GDI32_NULL_THUNK_DATA  00000001800260e8     gdi32:GDI32.dll
 0002:000000f0       __imp_CloseHandle          00000001800260f0     kernel32:KERNEL32.dll
 0002:000000f8       __imp_SetEvent             00000001800260f8     kernel32:KERNEL32.dll
 0002:00000100       __imp_CreateMutexW         0000000180026100     kernel32:KERNEL32.dll
 0002:00000108       __imp_CreateEventW         0000000180026108     kernel32:KERNEL32.dll
 0002:00000110       __imp_GetCurrentProcessId  0000000180026110     kernel32:KERNEL32.dll
 0002:00000118       __imp_WriteConsoleW        0000000180026118     kernel32:KERNEL32.dll
 0002:00000120       __imp_CreateFileW          0000000180026120     kernel32:KERNEL32.dll
 0002:00000128       __imp_GetConsoleMode       0000000180026128     kernel32:KERNEL32.dll
 0002:00000130       __imp_GetConsoleOutputCP   0000000180026130     kernel32:KERNEL32.dll
 0002:00000138       __imp_WriteFile            0000000180026138     kernel32:KERNEL32.dll
 0002:00000140       __imp_FlushFileBuffers     0000000180026140     kernel32:KERNEL32.dll
 0002:00000148       __imp_SetStdHandle         0000000180026148     kernel32:KERNEL32.dll
 0002:00000150       __imp_SetFilePointerEx     0000000180026150     kernel32:KERNEL32.dll
 0002:00000158       __imp_GetStringTypeW       0000000180026158     kernel32:KERNEL32.dll
 0002:00000160       __imp_FreeEnvironmentStringsW 0000000180026160     kernel32:KERNEL32.dll
 0002:00000168       __imp_lstrcmpiW            0000000180026168     kernel32:KERNEL32.dll
 0002:00000170       __imp_GetCommandLineW      0000000180026170     kernel32:KERNEL32.dll
 0002:00000178       __imp_GetCommandLineA      0000000180026178     kernel32:KERNEL32.dll
 0002:00000180       __imp_GetCPInfo            0000000180026180     kernel32:KERNEL32.dll
 0002:00000188       __imp_GetOEMCP             0000000180026188     kernel32:KERNEL32.dll
 0002:00000190       __imp_GetACP               0000000180026190     kernel32:KERNEL32.dll
 0002:00000198       __imp_IsValidCodePage      0000000180026198     kernel32:KERNEL32.dll
 0002:000001a0       __imp_FindNextFileW        00000001800261a0     kernel32:KERNEL32.dll
 0002:000001a8       __imp_FindFirstFileExW     00000001800261a8     kernel32:KERNEL32.dll
 0002:000001b0       __imp_FindClose            00000001800261b0     kernel32:KERNEL32.dll
 0002:000001b8       __imp_GetFileType          00000001800261b8     kernel32:KERNEL32.dll
 0002:000001c0       __imp_GetStdHandle         00000001800261c0     kernel32:KERNEL32.dll
 0002:000001c8       __imp_LCMapStringW         00000001800261c8     kernel32:KERNEL32.dll
 0002:000001d0       __imp_FlsFree              00000001800261d0     kernel32:KERNEL32.dll
 0002:000001d8       __imp_FlsSetValue          00000001800261d8     kernel32:KERNEL32.dll
 0002:000001e0       __imp_MulDiv               00000001800261e0     kernel32:KERNEL32.dll
 0002:000001e8       __imp_GlobalLock           00000001800261e8     kernel32:KERNEL32.dll
 0002:000001f0       __imp_GlobalUnlock         00000001800261f0     kernel32:KERNEL32.dll
 0002:000001f8       __imp_GlobalAlloc          00000001800261f8     kernel32:KERNEL32.dll
 0002:00000200       __imp_FindResourceW        0000000180026200     kernel32:KERNEL32.dll
 0002:00000208       __imp_SizeofResource       0000000180026208     kernel32:KERNEL32.dll
 0002:00000210       __imp_LoadResource         0000000180026210     kernel32:KERNEL32.dll
 0002:00000218       __imp_LoadLibraryExW       0000000180026218     kernel32:KERNEL32.dll
 0002:00000220       __imp_GetProcAddress       0000000180026220     kernel32:KERNEL32.dll
 0002:00000228       __imp_GetModuleHandleW     0000000180026228     kernel32:KERNEL32.dll
 0002:00000230       __imp_GetModuleFileNameW   0000000180026230     kernel32:KERNEL32.dll
 0002:00000238       __imp_FreeLibrary          0000000180026238     kernel32:KERNEL32.dll
 0002:00000240       __imp_DisableThreadLibraryCalls 0000000180026240     kernel32:KERNEL32.dll
 0002:00000248       __imp_GetCurrentThreadId   0000000180026248     kernel32:KERNEL32.dll
 0002:00000250       __imp_Sleep                0000000180026250     kernel32:KERNEL32.dll
 0002:00000258       __imp_WaitForSingleObject  0000000180026258     kernel32:KERNEL32.dll
 0002:00000260       __imp_ReleaseMutex         0000000180026260     kernel32:KERNEL32.dll
 0002:00000268       __imp_ResetEvent           0000000180026268     kernel32:KERNEL32.dll
 0002:00000270       __imp_EnterCriticalSection 0000000180026270     kernel32:KERNEL32.dll
 0002:00000278       __imp_LeaveCriticalSection 0000000180026278     kernel32:KERNEL32.dll
 0002:00000280       __imp_SetLastError         0000000180026280     kernel32:KERNEL32.dll
 0002:00000288       __imp_EncodePointer        0000000180026288     kernel32:KERNEL32.dll
 0002:00000290       __imp_DeleteCriticalSection 0000000180026290     kernel32:KERNEL32.dll
 0002:00000298       __imp_InitializeCriticalSectionEx 0000000180026298     kernel32:KERNEL32.dll
 0002:000002a0       __imp_GetLastError         00000001800262a0     kernel32:KERNEL32.dll
 0002:000002a8       __imp_RaiseException       00000001800262a8     kernel32:KERNEL32.dll
 0002:000002b0       __imp_DecodePointer        00000001800262b0     kernel32:KERNEL32.dll
 0002:000002b8       __imp_WideCharToMultiByte  00000001800262b8     kernel32:KERNEL32.dll
 0002:000002c0       __imp_GetEnvironmentStringsW 00000001800262c0     kernel32:KERNEL32.dll
 0002:000002c8       __imp_MultiByteToWideChar  00000001800262c8     kernel32:KERNEL32.dll
 0002:000002d0       __imp_FlsGetValue          00000001800262d0     kernel32:KERNEL32.dll
 0002:000002d8       __imp_FlsAlloc             00000001800262d8     kernel32:KERNEL32.dll
 0002:000002e0       __imp_HeapReAlloc          00000001800262e0     kernel32:KERNEL32.dll
 0002:000002e8       __imp_HeapSize             00000001800262e8     kernel32:KERNEL32.dll
 0002:000002f0       __imp_GetModuleHandleExW   00000001800262f0     kernel32:KERNEL32.dll
 0002:000002f8       __imp_ExitProcess          00000001800262f8     kernel32:KERNEL32.dll
 0002:00000300       __imp_VirtualQuery         0000000180026300     kernel32:KERNEL32.dll
 0002:00000308       __imp_VirtualProtect       0000000180026308     kernel32:KERNEL32.dll
 0002:00000310       __imp_GetSystemInfo        0000000180026310     kernel32:KERNEL32.dll
 0002:00000318       __imp_TlsFree              0000000180026318     kernel32:KERNEL32.dll
 0002:00000320       __imp_TlsSetValue          0000000180026320     kernel32:KERNEL32.dll
 0002:00000328       __imp_TlsGetValue          0000000180026328     kernel32:KERNEL32.dll
 0002:00000330       __imp_TlsAlloc             0000000180026330     kernel32:KERNEL32.dll
 0002:00000338       __imp_RtlPcToFileHeader    0000000180026338     kernel32:KERNEL32.dll
 0002:00000340       __imp_InterlockedFlushSList 0000000180026340     kernel32:KERNEL32.dll
 0002:00000348       __imp_RtlUnwindEx          0000000180026348     kernel32:KERNEL32.dll
 0002:00000350       __imp_LoadLibraryExA       0000000180026350     kernel32:KERNEL32.dll
 0002:00000358       __imp_VirtualFree          0000000180026358     kernel32:KERNEL32.dll
 0002:00000360       __imp_VirtualAlloc         0000000180026360     kernel32:KERNEL32.dll
 0002:00000368       __imp_FlushInstructionCache 0000000180026368     kernel32:KERNEL32.dll
 0002:00000370       __imp_InterlockedPushEntrySList 0000000180026370     kernel32:KERNEL32.dll
 0002:00000378       __imp_InterlockedPopEntrySList 0000000180026378     kernel32:KERNEL32.dll
 0002:00000380       __imp_GetProcessHeap       0000000180026380     kernel32:KERNEL32.dll
 0002:00000388       __imp_HeapFree             0000000180026388     kernel32:KERNEL32.dll
 0002:00000390       __imp_HeapAlloc            0000000180026390     kernel32:KERNEL32.dll
 0002:00000398       __imp_OutputDebugStringW   0000000180026398     kernel32:KERNEL32.dll
 0002:000003a0       __imp_InitializeSListHead  00000001800263a0     kernel32:KERNEL32.dll
 0002:000003a8       __imp_GetSystemTimeAsFileTime 00000001800263a8     kernel32:KERNEL32.dll
 0002:000003b0       __imp_QueryPerformanceCounter 00000001800263b0     kernel32:KERNEL32.dll
 0002:000003b8       __imp_GetStartupInfoW      00000001800263b8     kernel32:KERNEL32.dll
 0002:000003c0       __imp_InitializeCriticalSectionAndSpinCount 00000001800263c0     kernel32:KERNEL32.dll
 0002:000003c8       __imp_WaitForSingleObjectEx 00000001800263c8     kernel32:KERNEL32.dll
 0002:000003d0       __imp_RtlCaptureContext    00000001800263d0     kernel32:KERNEL32.dll
 0002:000003d8       __imp_RtlLookupFunctionEntry 00000001800263d8     kernel32:KERNEL32.dll
 0002:000003e0       __imp_RtlVirtualUnwind     00000001800263e0     kernel32:KERNEL32.dll
 0002:000003e8       __imp_UnhandledExceptionFilter 00000001800263e8     kernel32:KERNEL32.dll
 0002:000003f0       __imp_SetUnhandledExceptionFilter 00000001800263f0     kernel32:KERNEL32.dll
 0002:000003f8       __imp_GetCurrentProcess    00000001800263f8     kernel32:KERNEL32.dll
 0002:00000400       __imp_TerminateProcess     0000000180026400     kernel32:KERNEL32.dll
 0002:00000408       __imp_IsProcessorFeaturePresent 0000000180026408     kernel32:KERNEL32.dll
 0002:00000410       __imp_IsDebuggerPresent    0000000180026410     kernel32:KERNEL32.dll
 0002:00000418       \177KERNEL32_NULL_THUNK_DATA 0000000180026418     kernel32:KERNEL32.dll
 0002:00000420       __imp_OleCreatePropertyFrame 0000000180026420     oleaut32:OLEAUT32.dll
 0002:00000428       __imp_UnRegisterTypeLib    0000000180026428     oleaut32:OLEAUT32.dll
 0002:00000430       __imp_RegisterTypeLib      0000000180026430     oleaut32:OLEAUT32.dll
 0002:00000438       __imp_LoadRegTypeLib       0000000180026438     oleaut32:OLEAUT32.dll
 0002:00000440       __imp_LoadTypeLib          0000000180026440     oleaut32:OLEAUT32.dll
 0002:00000448       __imp_VarUI4FromStr        0000000180026448     oleaut32:OLEAUT32.dll
 0002:00000450       __imp_VariantInit          0000000180026450     oleaut32:OLEAUT32.dll
 0002:00000458       __imp_SysAllocStringByteLen 0000000180026458     oleaut32:OLEAUT32.dll
 0002:00000460       __imp_SysStringByteLen     0000000180026460     oleaut32:OLEAUT32.dll
 0002:00000468       __imp_VariantChangeType    0000000180026468     oleaut32:OLEAUT32.dll
 0002:00000470       __imp_VariantClear         0000000180026470     oleaut32:OLEAUT32.dll
 0002:00000478       __imp_SysStringLen         0000000180026478     oleaut32:OLEAUT32.dll
 0002:00000480       __imp_SysFreeString        0000000180026480     oleaut32:OLEAUT32.dll
 0002:00000488       __imp_SysAllocStringLen    0000000180026488     oleaut32:OLEAUT32.dll
 0002:00000490       __imp_SysAllocString       0000000180026490     oleaut32:OLEAUT32.dll
 0002:00000498       \177OLEAUT32_NULL_THUNK_DATA 0000000180026498     oleaut32:OLEAUT32.dll
 0002:000004a0       __imp_UnregisterClassW     00000001800264a0     user32:USER32.dll
 0002:000004a8       __imp_PostMessageW         00000001800264a8     user32:USER32.dll
 0002:000004b0       __imp_DefWindowProcW       00000001800264b0     user32:USER32.dll
 0002:000004b8       __imp_CallWindowProcW      00000001800264b8     user32:USER32.dll
 0002:000004c0       __imp_RegisterClassExW     00000001800264c0     user32:USER32.dll
 0002:000004c8       __imp_GetClassInfoExW      00000001800264c8     user32:USER32.dll
 0002:000004d0       __imp_CreateWindowExW      00000001800264d0     user32:USER32.dll
 0002:000004d8       __imp_IsWindow             00000001800264d8     user32:USER32.dll
 0002:000004e0       __imp_IsChild              00000001800264e0     user32:USER32.dll
 0002:000004e8       __imp_DestroyWindow        00000001800264e8     user32:USER32.dll
 0002:000004f0       __imp_ShowWindow           00000001800264f0     user32:USER32.dll
 0002:000004f8       __imp_SetWindowPos         00000001800264f8     user32:USER32.dll
 0002:00000500       __imp_CharNextW            0000000180026500     user32:USER32.dll
 0002:00000508       __imp_SetFocus             0000000180026508     user32:USER32.dll
 0002:00000510       __imp_LoadBitmapW          0000000180026510     user32:USER32.dll
 0002:00000518       __imp_RegisterClassW       0000000180026518     user32:USER32.dll
 0002:00000520       __imp_PeekMessageW         0000000180026520     user32:USER32.dll
 0002:00000528       __imp_LoadCursorW          0000000180026528     user32:USER32.dll
 0002:00000530       __imp_GetParent            0000000180026530     user32:USER32.dll
 0002:00000538       __imp_SetWindowLongPtrW    0000000180026538     user32:USER32.dll
 0002:00000540       __imp_GetWindowLongPtrW    0000000180026540     user32:USER32.dll
 0002:00000548       __imp_PtInRect             0000000180026548     user32:USER32.dll
 0002:00000550       __imp_EqualRect            0000000180026550     user32:USER32.dll
 0002:00000558       __imp_OffsetRect           0000000180026558     user32:USER32.dll
 0002:00000560       __imp_UnionRect            0000000180026560     user32:USER32.dll
 0002:00000568       __imp_IntersectRect        0000000180026568     user32:USER32.dll
 0002:00000570       __imp_GetClientRect        0000000180026570     user32:USER32.dll
 0002:00000578       __imp_InvalidateRect       0000000180026578     user32:USER32.dll
 0002:00000580       __imp_SetWindowRgn         0000000180026580     user32:USER32.dll
 0002:00000588       __imp_EndPaint             0000000180026588     user32:USER32.dll
 0002:00000590       __imp_BeginPaint           0000000180026590     user32:USER32.dll
 0002:00000598       __imp_ReleaseDC            0000000180026598     user32:USER32.dll
 0002:000005a0       __imp_GetDC                00000001800265a0     user32:USER32.dll
 0002:000005a8       __imp_GetKeyState          00000001800265a8     user32:USER32.dll
 0002:000005b0       __imp_GetFocus             00000001800265b0     user32:USER32.dll
 0002:000005b8       \177USER32_NULL_THUNK_DATA 00000001800265b8     user32:USER32.dll
 0002:000005c0       __imp_CoCreateInstance     00000001800265c0     ole32:ole32.dll
 0002:000005c8       __imp_StringFromGUID2      00000001800265c8     ole32:ole32.dll
 0002:000005d0       __imp_CoTaskMemAlloc       00000001800265d0     ole32:ole32.dll
 0002:000005d8       __imp_CoTaskMemRealloc     00000001800265d8     ole32:ole32.dll
 0002:000005e0       __imp_CoTaskMemFree        00000001800265e0     ole32:ole32.dll
 0002:000005e8       __imp_WriteClassStm        00000001800265e8     ole32:ole32.dll
 0002:000005f0       __imp_CreateDataAdviseHolder 00000001800265f0     ole32:ole32.dll
 0002:000005f8       __imp_OleSaveToStream      00000001800265f8     ole32:ole32.dll
 0002:00000600       __imp_CreateOleAdviseHolder 0000000180026600     ole32:ole32.dll
 0002:00000608       __imp_OleRegGetUserType    0000000180026608     ole32:ole32.dll
 0002:00000610       __imp_OleRegGetMiscStatus  0000000180026610     ole32:ole32.dll
 0002:00000618       __imp_OleRegEnumVerbs      0000000180026618     ole32:ole32.dll
 0002:00000620       __imp_CLSIDFromProgID      0000000180026620     ole32:ole32.dll
 0002:00000628       __imp_ReadClassStm         0000000180026628     ole32:ole32.dll
 0002:00000630       \177ole32_NULL_THUNK_DATA  0000000180026630     ole32:ole32.dll
 0002:00000638       __guard_check_icall_fptr   0000000180026638     LIBCMT:guard_support.obj
 0002:00000640       __guard_xfg_check_icall_fptr 0000000180026640     LIBCMT:guard_support.obj
 0002:00000648       __guard_dispatch_icall_fptr 0000000180026648     LIBCMT:guard_support.obj
 0002:00000650       __guard_xfg_dispatch_icall_fptr 0000000180026650     LIBCMT:guard_support.obj
 0002:00000658       __guard_xfg_table_dispatch_icall_fptr 0000000180026658     LIBCMT:guard_support.obj
 0002:00000660       __castguard_check_failure_os_handled_fptr 0000000180026660     LIBCMT:guard_support.obj
 0002:00000668       __xc_a                     0000000180026668     LIBCMT:initializers.obj
 0002:00000698       __xc_z                     0000000180026698     LIBCMT:initializers.obj
 0002:000006a0       __xi_a                     00000001800266a0     LIBCMT:initializers.obj
 0002:000006b0       __acrt_stdio_initializer   00000001800266b0     libucrt:stdio_initializer.obj
 0002:000006b8       __acrt_multibyte_initializer 00000001800266b8     libucrt:multibyte_initializer.obj
 0002:000006c0       __acrt_tran_fma3_initializer 00000001800266c0     libucrt:fma3_initializer.obj
 0002:000006c8       __xi_z                     00000001800266c8     LIBCMT:initializers.obj
 0002:000006d0       __xl_a                     00000001800266d0     LIBCMT:tlssup.obj
 0002:000006d8       __xl_z                     00000001800266d8     LIBCMT:tlssup.obj
 0002:000006e0       __xp_a                     00000001800266e0     LIBCMT:initializers.obj
 0002:000006e8       __acrt_locale_terminator   00000001800266e8     libucrt:locale_initializer.obj
 0002:000006f0       __dcrt_console_output_terminator 00000001800266f0     libucrt:console_output_initializer.obj
 0002:000006f8       __acrt_stdio_terminator    00000001800266f8     libucrt:stdio_initializer.obj
 0002:00000700       __xp_z                     0000000180026700     LIBCMT:initializers.obj
 0002:00000708       __xt_a                     0000000180026708     LIBCMT:initializers.obj
 0002:00000710       __xt_z                     0000000180026710     LIBCMT:initializers.obj
 0002:00000720       ??_C@_13HADIAKP@?$AAS@     0000000180026720     OposVariant.obj
 0002:00000724       ??_C@_13LHMFKAAD@?$AAM@    0000000180026724     OposVariant.obj
 0002:00000728       ??_C@_13MKMNOPIJ@?$AAD@    0000000180026728     OposVariant.obj
 0002:0000072c       ??_C@_13OPKGLAFF@?$AAB@    000000018002672c     OposVariant.obj
 0002:00000730       ??_C@_17LLMMEOJD@?$AAV?$AAa?$AAl@ 0000000180026730     OposVariant.obj
 0002:00000738       ??_C@_1BI@JFAIJMHL@?$AAF?$AAo?$AAr?$AAc?$AAe?$AAR?$AAe?$AAm?$AAo?$AAv?$AAe@ 0000000180026738     OposVariant.obj
 0002:00000750       ??_C@_1BC@GCKHIPE@?$AAN?$AAo?$AAR?$AAe?$AAm?$AAo?$AAv?$AAe@ 0000000180026750     OposVariant.obj
 0002:00000768       ??_C@_1O@JDLOHAN@?$AAD?$AAe?$AAl?$AAe?$AAt?$AAe@ 0000000180026768     OposVariant.obj
 0002:00000778       ??_C@_11LOCGONAA@@         0000000180026778     OposVariant.obj
 0002:00000780       ??_7?$CComObject@V?$CComEnum@UIEnumConnections@@$1?_GUID_b196b287_bab4_101a_b69c_00aa00341d07@@3U__s_GUID@@BUtagCONNECTDATA@@V?$_Copy@UtagCONNECTDATA@@@ATL@@VCComSingleThreadModel@6@@ATL@@@ATL@@6B@ 0000000180026780     VoiceRecognition.obj
 0002:000007c0       _GUID_55980ba0_35aa_11cf_b671_00aa004cd6d8 00000001800267c0     VoiceRecognition.obj
 0002:000007d0       _GUID_b196b28b_bab4_101a_b69c_00aa00341d07 00000001800267d0     VoiceRecognition.obj
 0002:000007e0       ?_entries@?1??_GetEntries@?$CComEnum@UIEnumConnections@@$1?_GUID_b196b287_bab4_101a_b69c_00aa00341d07@@3U__s_GUID@@BUtagCONNECTDATA@@V?$_Copy@UtagCONNECTDATA@@@ATL@@VCComSingleThreadModel@6@@ATL@@SAPEBU_ATL_INTMAP_ENTRY@3@XZ@4QBU43@B 00000001800267e0     VoiceRecognition.obj
 0002:00000810       ??_7CComClassFactory@ATL@@6B@ 0000000180026810     VoiceRecognition.obj
 0002:00000840       ?_entries@?1??_GetEntries@CComClassFactory@ATL@@SAPEBU_ATL_INTMAP_ENTRY@3@XZ@4QBU43@B 0000000180026840     VoiceRecognition.obj
 0002:00000870       _GUID_00000001_0000_0000_c000_000000000046 0000000180026870     VoiceRecognition.obj
 0002:00000880       IID_IOPOSVoiceRecognition_1_16 0000000180026880     VoiceRecognition.obj
 0002:00000890       IID_IOPOSVoiceRecognition  0000000180026890     VoiceRecognition.obj
 0002:000008a0       LIBID_OposVoiceRecognition_CCO 00000001800268a0     VoiceRecognition.obj
 0002:000008b0       DIID__IOPOSVoiceRecognitionEvents 00000001800268b0     VoiceRecognition.obj
 0002:000008c0       CLSID_OPOSVoiceRecognition 00000001800268c0     VoiceRecognition.obj
 0002:000008d0       ??_C@_1BK@BIGILECK@?$AAA?$AAd?$AAv?$AAa?$AAp?$AAi?$AA3?$AA2?$AA?4?$AAd?$AAl?$AAl@ 00000001800268d0     VoiceRecognition.obj
 0002:000008f0       ??_C@_0BI@MNCFCPFK@RegCreateKeyTransactedW@ 00000001800268f0     VoiceRecognition.obj
 0002:00000908       _GUID_00000114_0000_0000_c000_000000000046 0000000180026908     VoiceRecognition.obj
 0002:00000918       _GUID_b196b287_bab4_101a_b69c_00aa00341d07 0000000180026918     VoiceRecognition.obj
 0002:00000928       _GUID_b196b285_bab4_101a_b69c_00aa00341d07 0000000180026928     VoiceRecognition.obj
 0002:00000938       _GUID_a6bc3ac0_dbaa_11ce_9de3_00aa004bb851 0000000180026938     VoiceRecognition.obj
 0002:00000948       _GUID_0000010c_0000_0000_c000_000000000046 0000000180026948     VoiceRecognition.obj
 0002:00000958       _GUID_00000146_0000_0000_c000_000000000046 0000000180026958     VoiceRecognition.obj
 0002:00000970       ?_entries@?1??_GetEntries@COPOSVoiceRecognition@@SAPEBU_ATL_INTMAP_ENTRY@ATL@@XZ@4QBU34@B 0000000180026970     VoiceRecognition.obj
 0002:00000bb0       _GUID_cf51ed10_62fe_11cf_bf86_00a0c9034836 0000000180026bb0     VoiceRecognition.obj
 0002:00000bc0       _GUID_0000010a_0000_0000_c000_000000000046 0000000180026bc0     VoiceRecognition.obj
 0002:00000bd0       _GUID_b196b283_bab4_101a_b69c_00aa00341d07 0000000180026bd0     VoiceRecognition.obj
 0002:00000be0       _GUID_cb5bdc81_93c1_11cf_8f20_00805f2cd064 0000000180026be0     VoiceRecognition.obj
 0002:00000bf0       ?pPropMap@?1??GetPropertyMap@COPOSVoiceRecognition@@SAPEBUATL_PROPMAP_ENTRY@ATL@@XZ@4QBU34@B 0000000180026bf0     VoiceRecognition.obj
 0002:00000c98       ??_7CComModule@ATL@@6B@    0000000180026c98     VoiceRecognition.obj
 0002:00000ce8       ??_C@_17DGDADEHL@?$AA_?$AAc?$AAx@ 0000000180026ce8     VoiceRecognition.obj
 0002:00000cf0       ??_C@_17IOIMFDBO@?$AA_?$AAc?$AAy@ 0000000180026cf0     VoiceRecognition.obj
 0002:00000cf8       _GUID_00000000_0000_0000_c000_000000000046 0000000180026cf8     VoiceRecognition.obj
 0002:00000d08       _GUID_00020400_0000_0000_c000_000000000046 0000000180026d08     VoiceRecognition.obj
 0002:00000d18       _GUID_922eada0_3424_11cf_b670_00aa004cd6d8 0000000180026d18     VoiceRecognition.obj
 0002:00000d28       _GUID_9c2cad80_3424_11cf_b670_00aa004cd6d8 0000000180026d28     VoiceRecognition.obj
 0002:00000d38       _GUID_00000119_0000_0000_c000_000000000046 0000000180026d38     VoiceRecognition.obj
 0002:00000d48       _GUID_b196b289_bab4_101a_b69c_00aa00341d07 0000000180026d48     VoiceRecognition.obj
 0002:00000d58       ??_7?$CComObjectCached@VCComClassFactory@ATL@@@ATL@@6B@ 0000000180026d58     VoiceRecognition.obj
 0002:00000d88       ??_C@_1CE@PGFMOFKI@?$AAS?$AAt?$AAa?$AAt?$AAu?$AAs?$AAU?$AAp?$AAd?$AAa?$AAt?$AAe?$AAE?$AAv?$AAe@ 0000000180026d88     VoiceRecognition.obj
 0002:00000db0       ??_C@_1BG@LODEBHDD@?$AAE?$AAr?$AAr?$AAo?$AAr?$AAE?$AAv?$AAe?$AAn?$AAt@ 0000000180026db0     VoiceRecognition.obj
 0002:00000dc8       ??_C@_1BM@CBGEBBBJ@?$AAD?$AAi?$AAr?$AAe?$AAc?$AAt?$AAI?$AAO?$AAE?$AAv?$AAe?$AAn?$AAt@ 0000000180026dc8     VoiceRecognition.obj
 0002:00000de8       ??_C@_1BE@IEBMACEM@?$AAD?$AAa?$AAt?$AAa?$AAE?$AAv?$AAe?$AAn?$AAt@ 0000000180026de8     VoiceRecognition.obj
 0002:00000e00       _GUID_b196b286_bab4_101a_b69c_00aa00341d07 0000000180026e00     VoiceRecognition.obj
 0002:00000e10       _GUID_00000117_0000_0000_c000_000000000046 0000000180026e10     VoiceRecognition.obj
 0002:00000e20       ??_C@_1BC@ENICKDH@?$AAC?$AAo?$AAn?$AAt?$AAe?$AAn?$AAt?$AAs@ 0000000180026e20     VoiceRecognition.obj
 0002:00000e38       ??_7?$CComObject@V?$CComEnum@UIEnumConnectionPoints@@$1?_GUID_b196b285_bab4_101a_b69c_00aa00341d07@@3U__s_GUID@@BPEAUIConnectionPoint@@V?$_CopyInterface@UIConnectionPoint@@@ATL@@VCComSingleThreadModel@6@@ATL@@@ATL@@6B@ 0000000180026e38     VoiceRecognition.obj
 0002:00000e78       ??_C@_1M@KANJNLFF@?$AAC?$AAL?$AAS?$AAI?$AAD@ 0000000180026e78     VoiceRecognition.obj
 0002:00000e88       ??_C@_1M@EJNEECMJ@?$AAA?$AAp?$AAp?$AAI?$AAD@ 0000000180026e88     VoiceRecognition.obj
 0002:00000e98       _GUID_0000010e_0000_0000_c000_000000000046 0000000180026e98     VoiceRecognition.obj
 0002:00000eb0       ?rgszNeverDelete@CRegParser@ATL@@1QBQEB_WB 0000000180026eb0     VoiceRecognition.obj
 0002:00000f10       _GUID_b196b288_bab4_101a_b69c_00aa00341d07 0000000180026f10     VoiceRecognition.obj
 0002:00000f20       ??_7CRegObject@ATL@@6B@    0000000180026f20     VoiceRecognition.obj
 0002:00000f50       _GUID_00000113_0000_0000_c000_000000000046 0000000180026f50     VoiceRecognition.obj
 0002:00000f60       ??_C@_1CK@OEKPKBNA@?$AAC?$AAo?$AAm?$AAp?$AAo?$AAn?$AAe?$AAn?$AAt?$AA?5?$AAC?$AAa?$AAt?$AAe?$AAg@ 0000000180026f60     VoiceRecognition.obj
 0002:00000f90       ??_C@_1BC@NKMMNMGL@?$AAF?$AAi?$AAl?$AAe?$AAT?$AAy?$AAp?$AAe@ 0000000180026f90     VoiceRecognition.obj
 0002:00000fa8       ??_C@_1BE@EKPAFMCP@?$AAI?$AAn?$AAt?$AAe?$AAr?$AAf?$AAa?$AAc?$AAe@ 0000000180026fa8     VoiceRecognition.obj
 0002:00000fc0       ??_C@_1BC@MAICEHGI@?$AAH?$AAa?$AAr?$AAd?$AAw?$AAa?$AAr?$AAe@ 0000000180026fc0     VoiceRecognition.obj
 0002:00000fd8       ??_C@_19HLLLM@?$AAM?$AAi?$AAm?$AAe@ 0000000180026fd8     VoiceRecognition.obj
 0002:00000fe8       ??_C@_17OMAOINJK@?$AAS?$AAA?$AAM@ 0000000180026fe8     VoiceRecognition.obj
 0002:00000ff0       ??_C@_1BC@IBECJAAI@?$AAS?$AAE?$AAC?$AAU?$AAR?$AAI?$AAT?$AAY@ 0000000180026ff0     VoiceRecognition.obj
 0002:00001008       ??_C@_1O@GBFINDKL@?$AAS?$AAY?$AAS?$AAT?$AAE?$AAM@ 0000000180027008     VoiceRecognition.obj
 0002:00001018       ??_C@_1BC@EAHCMADO@?$AAS?$AAo?$AAf?$AAt?$AAw?$AAa?$AAr?$AAe@ 0000000180027018     VoiceRecognition.obj
 0002:00001030       ??_C@_1BA@JIHHIEDE@?$AAT?$AAy?$AAp?$AAe?$AAL?$AAi?$AAb@ 0000000180027030     VoiceRecognition.obj
 0002:00001040       _GUID_1c2056cc_5ef4_101b_8bc8_00aa003e3b29 0000000180027040     VoiceRecognition.obj
 0002:00001050       ?map@?1??HKeyFromString@CRegParser@ATL@@KAPEAUHKEY__@@PEA_W@Z@4QBUkeymap@?1??123@KAPEAU4@0@Z@B 0000000180027050     VoiceRecognition.obj
 0002:00001130       ??_C@_19NCHLBIN@?$AAH?$AAK?$AAC?$AAR@ 0000000180027130     VoiceRecognition.obj
 0002:00001140       ??_C@_19JAPAIJDE@?$AAH?$AAK?$AAC?$AAU@ 0000000180027140     VoiceRecognition.obj
 0002:00001150       ??_C@_19PEALEEJB@?$AAH?$AAK?$AAL?$AAM@ 0000000180027150     VoiceRecognition.obj
 0002:00001160       ??_C@_17PJOJPMPB@?$AAH?$AAK?$AAU@ 0000000180027160     VoiceRecognition.obj
 0002:00001168       ??_C@_19PNBHMJPL@?$AAH?$AAK?$AAP?$AAD@ 0000000180027168     VoiceRecognition.obj
 0002:00001178       ??_C@_19GFFAIJHG@?$AAH?$AAK?$AAD?$AAD@ 0000000180027178     VoiceRecognition.obj
 0002:00001188       ??_C@_19OFICIBHH@?$AAH?$AAK?$AAC?$AAC@ 0000000180027188     VoiceRecognition.obj
 0002:00001198       ??_C@_1CE@PACHPJFI@?$AAH?$AAK?$AAE?$AAY?$AA_?$AAC?$AAL?$AAA?$AAS?$AAS?$AAE?$AAS?$AA_?$AAR?$AAO@ 0000000180027198     VoiceRecognition.obj
 0002:000011c0       ??_C@_1CE@HLHNCBPM@?$AAH?$AAK?$AAE?$AAY?$AA_?$AAC?$AAU?$AAR?$AAR?$AAE?$AAN?$AAT?$AA_?$AAU?$AAS@ 00000001800271c0     VoiceRecognition.obj
 0002:000011e8       ??_C@_1CG@GFBEANJL@?$AAH?$AAK?$AAE?$AAY?$AA_?$AAL?$AAO?$AAC?$AAA?$AAL?$AA_?$AAM?$AAA?$AAC?$AAH@ 00000001800271e8     VoiceRecognition.obj
 0002:00001210       ??_C@_1BG@BGODANIO@?$AAH?$AAK?$AAE?$AAY?$AA_?$AAU?$AAS?$AAE?$AAR?$AAS@ 0000000180027210     VoiceRecognition.obj
 0002:00001228       ??_C@_1CM@KHNNAOIC@?$AAH?$AAK?$AAE?$AAY?$AA_?$AAP?$AAE?$AAR?$AAF?$AAO?$AAR?$AAM?$AAA?$AAN?$AAC@ 0000000180027228     VoiceRecognition.obj
 0002:00001258       ??_C@_1BM@HAGMMHIA@?$AAH?$AAK?$AAE?$AAY?$AA_?$AAD?$AAY?$AAN?$AA_?$AAD?$AAA?$AAT?$AAA@ 0000000180027258     VoiceRecognition.obj
 0002:00001278       ??_C@_1CI@BBJOACGG@?$AAH?$AAK?$AAE?$AAY?$AA_?$AAC?$AAU?$AAR?$AAR?$AAE?$AAN?$AAT?$AA_?$AAC?$AAO@ 0000000180027278     VoiceRecognition.obj
 0002:000012a0       _GUID_00000109_0000_0000_c000_000000000046 00000001800272a0     VoiceRecognition.obj
 0002:000012b0       _GUID_7fd52380_4e07_101b_ae2d_08002b2ec713 00000001800272b0     VoiceRecognition.obj
 0002:000012c0       _GUID_00000112_0000_0000_c000_000000000046 00000001800272c0     VoiceRecognition.obj
 0002:000012d0       ??_C@_1EA@NHKLICFA@?$AAH?$AAK?$AAC?$AAU?$AA?$AN?$AA?6?$AA?$HL?$AA?7?$AAS?$AAo?$AAf?$AAt?$AAw?$AAa?$AAr@ 00000001800272d0     VoiceRecognition.obj
 0002:00001310       ??_C@_1BE@LJOLIMEM@?$AA?$AN?$AA?6?$AA?7?$AA?$HN?$AA?$AN?$AA?6?$AA?$HN?$AA?$AN?$AA?6@ 0000000180027310     VoiceRecognition.obj
 0002:00001328       _GUID_3af24292_0c96_11ce_a0cf_00aa00600ab8 0000000180027328     VoiceRecognition.obj
 0002:00001338       _GUID_00000127_0000_0000_c000_000000000046 0000000180027338     VoiceRecognition.obj
 0002:00001348       _GUID_0000010d_0000_0000_c000_000000000046 0000000180027348     VoiceRecognition.obj
 0002:00001358       ??_C@_1M@PPPPCDEP@?$AAA?$AAP?$AAP?$AAI?$AAD@ 0000000180027358     VoiceRecognition.obj
 0002:00001368       ??_C@_1O@MNLDABAF@?$AAM?$AAo?$AAd?$AAu?$AAl?$AAe@ 0000000180027368     VoiceRecognition.obj
 0002:00001378       ??_C@_1BG@JBACFMF@?$AAM?$AAo?$AAd?$AAu?$AAl?$AAe?$AA_?$AAR?$AAa?$AAw@ 0000000180027378     VoiceRecognition.obj
 0002:00001390       ??_C@_1BC@KAILKFFG@?$AAR?$AAE?$AAG?$AAI?$AAS?$AAT?$AAR?$AAY@ 0000000180027390     VoiceRecognition.obj
 0002:000013a8       ??_7?$CComContainedObject@VCOPOSVoiceRecognition@@@ATL@@6B?$IDispatchImpl@UIOPOSVoiceRecognition@@$1?IID_IOPOSVoiceRecognition@@3U_GUID@@B$1?LIBID_OposVoiceRecognition_CCO@@3U3@B$00$0A@VCComTypeInfoHolder@ATL@@@1@@ 00000001800273a8     VoiceRecognition.obj
 0002:000015d0       ??_7?$CComContainedObject@VCOPOSVoiceRecognition@@@ATL@@6BCComControlBase@1@@ 00000001800275d0     VoiceRecognition.obj
 0002:000015f8       ??_7?$CComContainedObject@VCOPOSVoiceRecognition@@@ATL@@6B?$CWindowImpl@VCOPOSVoiceRecognition@@VCWindow@ATL@@V?$CWinTraits@$0FGAAAAAA@$0A@@3@@1@@ 00000001800275f8     VoiceRecognition.obj
 0002:00001618       ??_7?$CComContainedObject@VCOPOSVoiceRecognition@@@ATL@@6B?$IPersistStreamInitImpl@VCOPOSVoiceRecognition@@@1@@ 0000000180027618     VoiceRecognition.obj
 0002:00001660       ??_7?$CComContainedObject@VCOPOSVoiceRecognition@@@ATL@@6B?$IOleControlImpl@VCOPOSVoiceRecognition@@@1@@ 0000000180027660     VoiceRecognition.obj
 0002:00001698       ??_7?$CComContainedObject@VCOPOSVoiceRecognition@@@ATL@@6B?$IOleObjectImpl@VCOPOSVoiceRecognition@@@1@@ 0000000180027698     VoiceRecognition.obj
 0002:00001758       ??_7?$CComContainedObject@VCOPOSVoiceRecognition@@@ATL@@6B?$IOleInPlaceActiveObjectImpl@VCOPOSVoiceRecognition@@@1@@ 0000000180027758     VoiceRecognition.obj
 0002:000017a8       ??_7?$CComContainedObject@VCOPOSVoiceRecognition@@@ATL@@6B?$IViewObjectExImpl@VCOPOSVoiceRecognition@@@1@@ 00000001800277a8     VoiceRecognition.obj
 0002:00001820       ??_7?$CComContainedObject@VCOPOSVoiceRecognition@@@ATL@@6B?$IOleInPlaceObjectWindowlessImpl@VCOPOSVoiceRecognition@@@1@@ 0000000180027820     VoiceRecognition.obj
 0002:00001878       ??_7?$CComContainedObject@VCOPOSVoiceRecognition@@@ATL@@6B?$IConnectionPointContainerImpl@VCOPOSVoiceRecognition@@@1@@ 0000000180027878     VoiceRecognition.obj
 0002:000018a0       ??_7?$CComContainedObject@VCOPOSVoiceRecognition@@@ATL@@6B?$IPersistStorageImpl@VCOPOSVoiceRecognition@@@1@@ 00000001800278a0     VoiceRecognition.obj
 0002:000018f0       ??_7?$CComContainedObject@VCOPOSVoiceRecognition@@@ATL@@6B?$ISpecifyPropertyPagesImpl@VCOPOSVoiceRecognition@@@1@@ 00000001800278f0     VoiceRecognition.obj
 0002:00001910       ??_7?$CComContainedObject@VCOPOSVoiceRecognition@@@ATL@@6B?$IQuickActivateImpl@VCOPOSVoiceRecognition@@@1@@ 0000000180027910     VoiceRecognition.obj
 0002:00001940       ??_7?$CComContainedObject@VCOPOSVoiceRecognition@@@ATL@@6B?$IDataObjectImpl@VCOPOSVoiceRecognition@@@1@@ 0000000180027940     VoiceRecognition.obj
 0002:000019a0       ??_7?$CComContainedObject@VCOPOSVoiceRecognition@@@ATL@@6B?$IProvideClassInfo2Impl@$1?CLSID_OPOSVoiceRecognition@@3U_GUID@@B$1?DIID__IOPOSVoiceRecognitionEvents@@3U2@B$1?LIBID_OposVoiceRecognition_CCO@@3U2@B$00$0A@VCComTypeInfoHolder@ATL@@@1@@ 00000001800279a0     VoiceRecognition.obj
 0002:000019c8       ??_7?$CComContainedObject@VCOPOSVoiceRecognition@@@ATL@@6B?$IObjectSafetyImpl@VCOPOSVoiceRecognition@@$02@1@@ 00000001800279c8     VoiceRecognition.obj
 0002:000019f8       ??_7?$CComContainedObject@VCOPOSVoiceRecognition@@@ATL@@6B?$IPropertyNotifySinkCP@VCOPOSVoiceRecognition@@VCComDynamicUnkArray@ATL@@@1@@ 00000001800279f8     VoiceRecognition.obj
 0002:00001a38       ??_7?$CComContainedObject@VCOPOSVoiceRecognition@@@ATL@@6B?$CProxy_IOPOSEvents@VCOPOSVoiceRecognition@@@@@ 0000000180027a38     VoiceRecognition.obj
 0002:00001a78       ??_7?$CComAggObject@VCOPOSVoiceRecognition@@@ATL@@6B@ 0000000180027a78     VoiceRecognition.obj
 0002:00001a98       ??_7?$CComObject@VCOPOSVoiceRecognition@@@ATL@@6B?$IDispatchImpl@UIOPOSVoiceRecognition@@$1?IID_IOPOSVoiceRecognition@@3U_GUID@@B$1?LIBID_OposVoiceRecognition_CCO@@3U3@B$00$0A@VCComTypeInfoHolder@ATL@@@1@@ 0000000180027a98     VoiceRecognition.obj
 0002:00001cc0       ??_7?$CComObject@VCOPOSVoiceRecognition@@@ATL@@6BCComControlBase@1@@ 0000000180027cc0     VoiceRecognition.obj
 0002:00001ce8       ??_7?$CComObject@VCOPOSVoiceRecognition@@@ATL@@6B?$CWindowImpl@VCOPOSVoiceRecognition@@VCWindow@ATL@@V?$CWinTraits@$0FGAAAAAA@$0A@@3@@1@@ 0000000180027ce8     VoiceRecognition.obj
 0002:00001d08       ??_7?$CComObject@VCOPOSVoiceRecognition@@@ATL@@6B?$IPersistStreamInitImpl@VCOPOSVoiceRecognition@@@1@@ 0000000180027d08     VoiceRecognition.obj
 0002:00001d50       ??_7?$CComObject@VCOPOSVoiceRecognition@@@ATL@@6B?$IOleControlImpl@VCOPOSVoiceRecognition@@@1@@ 0000000180027d50     VoiceRecognition.obj
 0002:00001d88       ??_7?$CComObject@VCOPOSVoiceRecognition@@@ATL@@6B?$IOleObjectImpl@VCOPOSVoiceRecognition@@@1@@ 0000000180027d88     VoiceRecognition.obj
 0002:00001e48       ??_7?$CComObject@VCOPOSVoiceRecognition@@@ATL@@6B?$IOleInPlaceActiveObjectImpl@VCOPOSVoiceRecognition@@@1@@ 0000000180027e48     VoiceRecognition.obj
 0002:00001e98       ??_7?$CComObject@VCOPOSVoiceRecognition@@@ATL@@6B?$IViewObjectExImpl@VCOPOSVoiceRecognition@@@1@@ 0000000180027e98     VoiceRecognition.obj
 0002:00001f10       ??_7?$CComObject@VCOPOSVoiceRecognition@@@ATL@@6B?$IOleInPlaceObjectWindowlessImpl@VCOPOSVoiceRecognition@@@1@@ 0000000180027f10     VoiceRecognition.obj
 0002:00001f68       ??_7?$CComObject@VCOPOSVoiceRecognition@@@ATL@@6B?$IConnectionPointContainerImpl@VCOPOSVoiceRecognition@@@1@@ 0000000180027f68     VoiceRecognition.obj
 0002:00001f90       ??_7?$CComObject@VCOPOSVoiceRecognition@@@ATL@@6B?$IPersistStorageImpl@VCOPOSVoiceRecognition@@@1@@ 0000000180027f90     VoiceRecognition.obj
 0002:00001fe0       ??_7?$CComObject@VCOPOSVoiceRecognition@@@ATL@@6B?$ISpecifyPropertyPagesImpl@VCOPOSVoiceRecognition@@@1@@ 0000000180027fe0     VoiceRecognition.obj
 0002:00002000       ??_7?$CComObject@VCOPOSVoiceRecognition@@@ATL@@6B?$IQuickActivateImpl@VCOPOSVoiceRecognition@@@1@@ 0000000180028000     VoiceRecognition.obj
 0002:00002030       ??_7?$CComObject@VCOPOSVoiceRecognition@@@ATL@@6B?$IDataObjectImpl@VCOPOSVoiceRecognition@@@1@@ 0000000180028030     VoiceRecognition.obj
 0002:00002090       ??_7?$CComObject@VCOPOSVoiceRecognition@@@ATL@@6B?$IProvideClassInfo2Impl@$1?CLSID_OPOSVoiceRecognition@@3U_GUID@@B$1?DIID__IOPOSVoiceRecognitionEvents@@3U2@B$1?LIBID_OposVoiceRecognition_CCO@@3U2@B$00$0A@VCComTypeInfoHolder@ATL@@@1@@ 0000000180028090     VoiceRecognition.obj
 0002:000020b8       ??_7?$CComObject@VCOPOSVoiceRecognition@@@ATL@@6B?$IObjectSafetyImpl@VCOPOSVoiceRecognition@@$02@1@@ 00000001800280b8     VoiceRecognition.obj
 0002:000020e8       ??_7?$CComObject@VCOPOSVoiceRecognition@@@ATL@@6B?$IPropertyNotifySinkCP@VCOPOSVoiceRecognition@@VCComDynamicUnkArray@ATL@@@1@@ 00000001800280e8     VoiceRecognition.obj
 0002:00002128       ??_7?$CComObject@VCOPOSVoiceRecognition@@@ATL@@6B?$CProxy_IOPOSEvents@VCOPOSVoiceRecognition@@@@@ 0000000180028128     VoiceRecognition.obj
 0002:00002168       ??_C@_1O@GBFKGNEO@?$AAA?$AAT?$AAL?$AA?3?$AA?$CF?$AAp@ 0000000180028168     VoiceRecognition.obj
 0002:00002178       ??_C@_1BA@PICGEGJB@?$AAD?$AAI?$AAS?$AAP?$AAL?$AAA?$AAY@ 0000000180028178     VoiceRecognition.obj
 0002:00002188       _GUID_b196b284_bab4_101a_b69c_00aa00341d07 0000000180028188     VoiceRecognition.obj
 0002:00002198       _GUID_9bfbbc02_eff1_101a_84ed_00aa00341d07 0000000180028198     VoiceRecognition.obj
 0002:000021a8       ?_entries@?1??_GetEntries@?$CComEnum@UIEnumConnectionPoints@@$1?_GUID_b196b285_bab4_101a_b69c_00aa00341d07@@3U__s_GUID@@BPEAUIConnectionPoint@@V?$_CopyInterface@UIConnectionPoint@@@ATL@@VCComSingleThreadModel@6@@ATL@@SAPEBU_ATL_INTMAP_ENTRY@3@XZ@4QBU43@B 00000001800281a8     VoiceRecognition.obj
 0002:000021d8       _GUID_00020412_0000_0000_c000_000000000046 00000001800281d8     VoiceRecognition.obj
 0002:000021e8       _GUID_00020401_0000_0000_c000_000000000046 00000001800281e8     VoiceRecognition.obj
 0002:000021f8       ??_C@_0BG@EKFFMJIO@RegOpenKeyTransactedW@ 00000001800281f8     VoiceRecognition.obj
 0002:00002210       ??_C@_0BI@HAKLOOGP@RegDeleteKeyTransactedW@ 0000000180028210     VoiceRecognition.obj
 0002:00002228       ??_C@_0BA@LILAPHGE@RegDeleteKeyExW@ 0000000180028228     VoiceRecognition.obj
 0002:00002238       ??_C@_19ILOCMLCJ@?$AA?4?$AAt?$AAl?$AAb@ 0000000180028238     VoiceRecognition.obj
 0002:00002248       _GUID_0002e012_0000_0000_c000_000000000046 0000000180028248     VoiceRecognition.obj
 0002:00002258       ??_C@_1O@FHBGLCIO@?$AAC?$AAL?$AAS?$AAI?$AAD?$AA?2@ 0000000180028258     VoiceRecognition.obj
 0002:00002268       ??_C@_1CK@IFBKBFAA@?$AA?2?$AAR?$AAe?$AAq?$AAu?$AAi?$AAr?$AAe?$AAd?$AA?5?$AAC?$AAa?$AAt?$AAe?$AAg@ 0000000180028268     VoiceRecognition.obj
 0002:00002298       ??_C@_1DA@BIHALFED@?$AA?2?$AAI?$AAm?$AAp?$AAl?$AAe?$AAm?$AAe?$AAn?$AAt?$AAe?$AAd?$AA?5?$AAC?$AAa@ 0000000180028298     VoiceRecognition.obj
 0002:000022c8       ??_C@_1BK@EDKOLFBJ@?$AAO?$AAL?$AAE?$AAA?$AAU?$AAT?$AA3?$AA2?$AA?4?$AAD?$AAL?$AAL@ 00000001800282c8     VoiceRecognition.obj
 0002:000022e8       ??_C@_0BJ@CNLFOMHB@UnRegisterTypeLibForUser@ 00000001800282e8     VoiceRecognition.obj
 0002:00002308       ??_C@_0BH@LBOMMKPJ@RegisterTypeLibForUser@ 0000000180028308     VoiceRecognition.obj
 0002:00002320       ??_C@_0P@MMNMMLGK@COFreezeEvents@ 0000000180028320     VoiceRecognitionImpl.obj
 0002:00002330       ??_C@_0BC@OGCGGIMP@GetPropertyNumber@ 0000000180028330     VoiceRecognitionImpl.obj
 0002:00002348       ??_C@_0BC@MDCNODNB@SetPropertyNumber@ 0000000180028348     VoiceRecognitionImpl.obj
 0002:00002360       ??_C@_0BC@CFCCMIMD@GetPropertyString@ 0000000180028360     VoiceRecognitionImpl.obj
 0002:00002378       ??_C@_0BC@CJEDNN@SetPropertyString@ 0000000180028378     VoiceRecognitionImpl.obj
 0002:00002390       ??_C@_0M@LNPKKKDA@OpenService@ 0000000180028390     VoiceRecognitionImpl.obj
 0002:000023a0       ??_C@_0M@PCMCHHMH@CheckHealth@ 00000001800283a0     VoiceRecognitionImpl.obj
 0002:000023b0       ??_C@_0M@JGMIDNEK@ClaimDevice@ 00000001800283b0     VoiceRecognitionImpl.obj
 0002:000023c0       ??_C@_0L@BNEIFEJC@ClearInput@ 00000001800283c0     VoiceRecognitionImpl.obj
 0002:000023d0       ??_C@_0N@DDFIIBMP@CloseService@ 00000001800283d0     VoiceRecognitionImpl.obj
 0002:000023e0       ??_C@_08EEIHICPC@DirectIO@ 00000001800283e0     VoiceRecognitionImpl.obj
 0002:000023f0       ??_C@_0O@BCPMENMJ@ReleaseDevice@ 00000001800283f0     VoiceRecognitionImpl.obj
 0002:00002400       ??_C@_0BA@GFABKEEE@ResetStatistics@ 0000000180028400     VoiceRecognitionImpl.obj
 0002:00002410       ??_C@_0BD@DPALHJGC@RetrieveStatistics@ 0000000180028410     VoiceRecognitionImpl.obj
 0002:00002428       ??_C@_0BB@KOHIKNFC@UpdateStatistics@ 0000000180028428     VoiceRecognitionImpl.obj
 0002:00002440       ??_C@_0BH@PBKBNMGB@CompareFirmwareVersion@ 0000000180028440     VoiceRecognitionImpl.obj
 0002:00002458       ??_C@_0P@FBPDPIPA@UpdateFirmware@ 0000000180028458     VoiceRecognitionImpl.obj
 0002:00002468       ??_C@_0BF@CMAPCJGM@ClearInputProperties@ 0000000180028468     VoiceRecognitionImpl.obj
 0002:00002480       ??_C@_0BB@BIBADGFE@StartHearingFree@ 0000000180028480     VoiceRecognitionImpl.obj
 0002:00002498       ??_C@_0BF@LPLDKDIO@StartHearingSentence@ 0000000180028498     VoiceRecognitionImpl.obj
 0002:000024b0       ??_C@_0BB@OHJBIDJA@StartHearingWord@ 00000001800284b0     VoiceRecognitionImpl.obj
 0002:000024c8       ??_C@_0BC@OPFBKICN@StartHearingYesNo@ 00000001800284c8     VoiceRecognitionImpl.obj
 0002:000024e0       ??_C@_0M@BMOMHKLM@StopHearing@ 00000001800284e0     VoiceRecognitionImpl.obj
 0002:000024f0       ??_7?$CProxy_IOPOSEvents@VCOPOSVoiceRecognition@@@@6B@ 00000001800284f0     VoiceRecognitionImpl.obj
 0002:00002530       ??_C@_1BA@IFHENID@?$AA?$FL?$AAE?$AAr?$AAr?$AAo?$AAr?$AA?$FN@ 0000000180028530     VoiceRecognitionImpl.obj
 0002:00002540       ??_C@_0DD@NKOLHJNC@SOFTWARE?2OLEforRetail?2ServiceOP@ 0000000180028540     VoiceRecognitionImpl.obj
 0002:00002578       ??_C@_1M@IAIJHCCH@?$AAC?$AAl?$AAo?$AAs?$AAe@ 0000000180028578     VoiceRecognitionImpl.obj
 0002:00002588       ??_C@_1M@PCPKGJAH@?$AAC?$AAl?$AAa?$AAi?$AAm@ 0000000180028588     VoiceRecognitionImpl.obj
 0002:00002598       ??_C@_1BA@NDFKIOCP@?$AAR?$AAe?$AAl?$AAe?$AAa?$AAs?$AAe@ 0000000180028598     VoiceRecognitionImpl.obj
 0002:000025a8       ??_C@_0BB@CPKIMFJI@VoiceRecognition@ 00000001800285a8     VoiceRecognitionImpl.obj
 0002:000025c0       ??_C@_1BM@IJMNMBPK@?$AAG?$AAe?$AAt?$AAO?$AAp?$AAe?$AAn?$AAR?$AAe?$AAs?$AAu?$AAl?$AAt@ 00000001800285c0     VoiceRecognitionImpl.obj
 0002:000025e0       IID_IDispatch              00000001800285e0     uuid:oaidl_i.obj
 0002:000025f0       IID_IPropertyNotifySink    00000001800285f0     uuid:ocidl_i.obj
 0002:00002600       GUID_NULL                  0000000180028600     uuid:cguid_i.obj
 0002:00002610       CLSID_StdGlobalInterfaceTable 0000000180028610     uuid:cguid_i.obj
 0002:00002620       CLSID_StdComponentCategoriesMgr 0000000180028620     uuid:ieguids.obj
 0002:00002630       IID_IUnknown               0000000180028630     uuid:unknwn_i.obj
 0002:00002640       __xmm@ffffffffffffffffffffffffffffffff 0000000180028640     LIBCMT:utility.obj
 0002:00002650       ??_C@_1EC@JIJBPKFM@?$AAa?$AAp?$AAi?$AA?9?$AAm?$AAs?$AA?9?$AAw?$AAi?$AAn?$AA?9?$AAc?$AAo?$AAr?$AAe@ 0000000180028650     LIBCMT:thread_safe_statics.obj
 0002:00002698       ??_C@_1BK@MGMFAEKH@?$AAk?$AAe?$AAr?$AAn?$AAe?$AAl?$AA3?$AA2?$AA?4?$AAd?$AAl?$AAl@ 0000000180028698     LIBCMT:thread_safe_statics.obj
 0002:000026b8       ??_C@_0BJ@JEBJOJFJ@SleepConditionVariableCS@ 00000001800286b8     LIBCMT:thread_safe_statics.obj
 0002:000026d8       ??_C@_0BJ@PGPPEPCC@WakeAllConditionVariable@ 00000001800286d8     LIBCMT:thread_safe_statics.obj
 0002:000026f1       ?nothrow@std@@3Unothrow_t@1@B 00000001800286f1     LIBCMT:std_nothrow.obj
 0002:00002708       _pDefaultRawDllMain        0000000180028708     LIBCMT:dll_dllmain.obj
 0002:00002708       _pRawDllMain               0000000180028708     LIBCMT:dll_dllmain.obj
 0002:00002718       ??_7exception@std@@6B@     0000000180028718     LIBCMT:throw_bad_alloc.obj
 0002:00002728       ??_C@_0BC@EOODALEL@Unknown?5exception@ 0000000180028728     LIBCMT:throw_bad_alloc.obj
 0002:00002748       ??_7bad_alloc@std@@6B@     0000000180028748     LIBCMT:throw_bad_alloc.obj
 0002:00002758       ??_C@_0P@GHFPNOJB@bad?5allocation@ 0000000180028758     LIBCMT:throw_bad_alloc.obj
 0002:00002770       ??_7bad_array_new_length@std@@6B@ 0000000180028770     LIBCMT:throw_bad_alloc.obj
 0002:00002780       ??_C@_0BF@KINCDENJ@bad?5array?5new?5length@ 0000000180028780     LIBCMT:throw_bad_alloc.obj
 0002:000027a0       ??_7type_info@@6B@         00000001800287a0     LIBCMT:std_type_info_static.obj
 0002:000027a8       GUID_ATLVer110             00000001800287a8     atls:atlbase.obj
 0002:000027c0       ??_C@_1IC@ONKHOIDK@?$AAE?$AAR?$AAR?$AAO?$AAR?$AA?5?$AA?3?$AA?5?$AAU?$AAn?$AAa?$AAb?$AAl?$AAe?$AA?5@ 00000001800287c0     atls:atlbase.obj
 0002:00002848       ??_C@_0N@FJEPLCIH@atlthunk?4dll@ 0000000180028848     atls:atlthunk.obj
 0002:00002858       ??_C@_0BG@GAKFHCBM@AtlThunk_AllocateData@ 0000000180028858     atls:atlthunk.obj
 0002:00002870       ??_C@_0BC@JKONFIAH@AtlThunk_InitData@ 0000000180028870     atls:atlthunk.obj
 0002:00002888       ??_C@_0BE@IAOEELAK@AtlThunk_DataToCode@ 0000000180028888     atls:atlthunk.obj
 0002:000028a0       ??_C@_0BC@GBGKAIPI@AtlThunk_FreeData@ 00000001800288a0     atls:atlthunk.obj
 0002:000028b8       ?s_negLengthTab@FH4@@3QBCB 00000001800288b8     libvcruntime:risctrnsctrl.obj
 0002:000028c8       ?s_shiftTab@FH4@@3QBEB     00000001800288c8     libvcruntime:risctrnsctrl.obj
 0002:00002a18       _pDestructExceptionObject  0000000180028a18     libvcruntime:ehhelpers.obj
 0002:00002a28       ??_7bad_exception@std@@6B@ 0000000180028a28     libvcruntime:frame.obj
 0002:00002a38       ??_C@_0O@DPKOEFFH@bad?5exception@ 0000000180028a38     libvcruntime:frame.obj
 0002:00003160       ??_C@_08EHJDFFNH@__based?$CI@ 0000000180029160     libvcruntime:undname.obj
 0002:00003170       ??_C@_07KOLFKCDI@__cdecl@  0000000180029170     libvcruntime:undname.obj
 0002:00003178       ??_C@_08GHMPAG@__pascal@   0000000180029178     libvcruntime:undname.obj
 0002:00003188       ??_C@_09IFJBGAPI@__stdcall@ 0000000180029188     libvcruntime:undname.obj
 0002:00003198       ??_C@_0L@NPHFGOKO@__thiscall@ 0000000180029198     libvcruntime:undname.obj
 0002:000031a8       ??_C@_0L@JMKHOMEK@__fastcall@ 00000001800291a8     libvcruntime:undname.obj
 0002:000031b8       ??_C@_0N@BCKKPABJ@__vectorcall@ 00000001800291b8     libvcruntime:undname.obj
 0002:000031c8       ??_C@_09HIJEGCPM@__clrcall@ 00000001800291c8     libvcruntime:undname.obj
 0002:000031d4       ??_C@_06GHPCKEAG@__eabi@   00000001800291d4     libvcruntime:undname.obj
 0002:000031e0       ??_C@_09IOPIDJLG@__swift_1@ 00000001800291e0     libvcruntime:undname.obj
 0002:000031f0       ??_C@_09KFNFGKHF@__swift_2@ 00000001800291f0     libvcruntime:undname.obj
 0002:00003200       ??_C@_09LMMOFLDE@__swift_3@ 0000000180029200     libvcruntime:undname.obj
 0002:00003210       ??_C@_07JOMMBBKO@__ptr64@  0000000180029210     libvcruntime:undname.obj
 0002:00003218       ??_C@_0L@PILCLIHE@__restrict@ 0000000180029218     libvcruntime:undname.obj
 0002:00003228       ??_C@_0M@GFIIJFMG@__unaligned@ 0000000180029228     libvcruntime:undname.obj
 0002:00003238       ??_C@_09DHDLOLLB@restrict?$CI@ 0000000180029238     libvcruntime:undname.obj
 0002:00003242       ??_C@_00CNPNBAHC@@         0000000180029242     libvcruntime:undname.obj
 0002:00003244       ??_C@_04NIHEBCM@?5new@     0000000180029244     libvcruntime:undname.obj
 0002:00003250       ??_C@_07FPCDHGMM@?5delete@ 0000000180029250     libvcruntime:undname.obj
 0002:00003258       ??_C@_01NEMOKFLO@?$DN@     0000000180029258     libvcruntime:undname.obj
 0002:0000325c       ??_C@_02GPIOPFAK@?$DO?$DO@ 000000018002925c     libvcruntime:undname.obj
 0002:00003260       ??_C@_02FODMEDOG@?$DM?$DM@ 0000000180029260     libvcruntime:undname.obj
 0002:00003264       ??_C@_01DCLJPIOD@?$CB@     0000000180029264     libvcruntime:undname.obj
 0002:00003268       ??_C@_02EGOFBIJA@?$DN?$DN@ 0000000180029268     libvcruntime:undname.obj
 0002:0000326c       ??_C@_02FDNJECIE@?$CB?$DN@ 000000018002926c     libvcruntime:undname.obj
 0002:00003270       ??_C@_02GPECMEKF@?$FL?$FN@ 0000000180029270     libvcruntime:undname.obj
 0002:00003278       ??_C@_08LHJFAFGD@operator@ 0000000180029278     libvcruntime:undname.obj
 0002:00003284       ??_C@_02HBOOOICD@?9?$DO@   0000000180029284     libvcruntime:undname.obj
 0002:00003288       ??_C@_01NBENCBCI@?$CK@     0000000180029288     libvcruntime:undname.obj
 0002:0000328c       ??_C@_02ECNGHCIF@?$CL?$CL@ 000000018002928c     libvcruntime:undname.obj
 0002:00003290       ??_C@_02BAABKJLB@?9?9@     0000000180029290     libvcruntime:undname.obj
 0002:00003294       ??_C@_01JOAMLHOP@?9@       0000000180029294     libvcruntime:undname.obj
 0002:00003298       ??_C@_01MIFGBAGJ@?$CL@     0000000180029298     libvcruntime:undname.obj
 0002:0000329c       ??_C@_01HNPIGOCE@?$CG@     000000018002929c     libvcruntime:undname.obj
 0002:000032a0       ??_C@_03MNHNFDLC@?9?$DO?$CK@ 00000001800292a0     libvcruntime:undname.obj
 0002:000032a4       ??_C@_01KMDKNFGN@?1@       00000001800292a4     libvcruntime:undname.obj
 0002:000032a8       ??_C@_01FGNFDNOH@?$CF@     00000001800292a8     libvcruntime:undname.obj
 0002:000032ac       ??_C@_01MNNFJEPP@?$DM@     00000001800292ac     libvcruntime:undname.obj
 0002:000032b0       ??_C@_02EHCHHCKH@?$DM?$DN@ 00000001800292b0     libvcruntime:undname.obj
 0002:000032b4       ??_C@_01PPODPGHN@?$DO@     00000001800292b4     libvcruntime:undname.obj
 0002:000032b8       ??_C@_02EEKDKGMJ@?$DO?$DN@ 00000001800292b8     libvcruntime:undname.obj
 0002:000032bc       ??_C@_01IHBHIGKO@?0@       00000001800292bc     libvcruntime:undname.obj
 0002:000032c0       ??_C@_02HCKGKOFO@?$CI?$CJ@ 00000001800292c0     libvcruntime:undname.obj
 0002:000032c4       ??_C@_01PJKLJHI@?$HO@      00000001800292c4     libvcruntime:undname.obj
 0002:000032c8       ??_C@_01JKBOJNNK@?$FO@     00000001800292c8     libvcruntime:undname.obj
 0002:000032cc       ??_C@_01DNKMNLPK@?$HM@     00000001800292cc     libvcruntime:undname.obj
 0002:000032d0       ??_C@_02PPKAJPJL@?$CG?$CG@ 00000001800292d0     libvcruntime:undname.obj
 0002:000032d4       ??_C@_02NONPIBCD@?$HM?$HM@ 00000001800292d4     libvcruntime:undname.obj
 0002:000032d8       ??_C@_02FPIMKNGF@?$CK?$DN@ 00000001800292d8     libvcruntime:undname.obj
 0002:000032dc       ??_C@_02FOEOMHFC@?$CL?$DN@ 00000001800292dc     libvcruntime:undname.obj
 0002:000032e0       ??_C@_02FKMDLLOA@?9?$DN@   00000001800292e0     libvcruntime:undname.obj
 0002:000032e4       ??_C@_02FJEHGPIO@?1?$DN@   00000001800292e4     libvcruntime:undname.obj
 0002:000032e8       ??_C@_02FENAOKFI@?$CF?$DN@ 00000001800292e8     libvcruntime:undname.obj
 0002:000032ec       ??_C@_03IKFCCPFF@?$DO?$DO?$DN@ 00000001800292ec     libvcruntime:undname.obj
 0002:000032f0       ??_C@_03CDNPDDLA@?$DM?$DM?$DN@ 00000001800292f0     libvcruntime:undname.obj
 0002:000032f4       ??_C@_02FGJGFEAB@?$CG?$DN@ 00000001800292f4     libvcruntime:undname.obj
 0002:000032f8       ??_C@_02DHLNPPGH@?$HM?$DN@ 00000001800292f8     libvcruntime:undname.obj
 0002:000032fc       ??_C@_02MHEGNOJ@?$FO?$DN@  00000001800292fc     libvcruntime:undname.obj
 0002:00003300       ??_C@_09IFPLHPGF@?$GAvftable?8@ 0000000180029300     libvcruntime:undname.obj
 0002:00003310       ??_C@_09BLBHBJP@?$GAvbtable?8@ 0000000180029310     libvcruntime:undname.obj
 0002:00003320       ??_C@_07FEEIOKP@?$GAvcall?8@ 0000000180029320     libvcruntime:undname.obj
 0002:00003328       ??_C@_08LLFFHHDJ@?$GAtypeof?8@ 0000000180029328     libvcruntime:undname.obj
 0002:00003338       ??_C@_0BF@KDPPACIK@?$GAlocal?5static?5guard?8@ 0000000180029338     libvcruntime:undname.obj
 0002:00003350       ??_C@_08OBABFOLI@?$GAstring?8@ 0000000180029350     libvcruntime:undname.obj
 0002:00003360       ??_C@_0BD@JDLKDPAB@?$GAvbase?5destructor?8@ 0000000180029360     libvcruntime:undname.obj
 0002:00003378       ??_C@_0BN@DEGPLNFK@?$GAvector?5deleting?5destructor?8@ 0000000180029378     libvcruntime:undname.obj
 0002:00003398       ??_C@_0BO@OBMKPJIG@?$GAdefault?5constructor?5closure?8@ 0000000180029398     libvcruntime:undname.obj
 0002:000033b8       ??_C@_0BN@IMDCHIKM@?$GAscalar?5deleting?5destructor?8@ 00000001800293b8     libvcruntime:undname.obj
 0002:000033d8       ??_C@_0BO@PFGOCPJJ@?$GAvector?5constructor?5iterator?8@ 00000001800293d8     libvcruntime:undname.obj
 0002:000033f8       ??_C@_0BN@LFPFMEDL@?$GAvector?5destructor?5iterator?8@ 00000001800293f8     libvcruntime:undname.obj
 0002:00003418       ??_C@_0CE@IKBNEHA@?$GAvector?5vbase?5constructor?5itera@ 0000000180029418     libvcruntime:undname.obj
 0002:00003440       ??_C@_0BL@NILFHHPC@?$GAvirtual?5displacement?5map?8@ 0000000180029440     libvcruntime:undname.obj
 0002:00003460       ??_C@_0CB@JONCMFFK@?$GAeh?5vector?5constructor?5iterator@ 0000000180029460     libvcruntime:undname.obj
 0002:00003488       ??_C@_0CA@GCEOPDGL@?$GAeh?5vector?5destructor?5iterator?8@ 0000000180029488     libvcruntime:undname.obj
 0002:000034a8       ??_C@_0CH@OOJPLCPH@?$GAeh?5vector?5vbase?5constructor?5it@ 00000001800294a8     libvcruntime:undname.obj
 0002:000034d0       ??_C@_0BL@LLKPOHJI@?$GAcopy?5constructor?5closure?8@ 00000001800294d0     libvcruntime:undname.obj
 0002:000034f0       ??_C@_0BA@KBCDOMBN@?$GAudt?5returning?8@ 00000001800294f0     libvcruntime:undname.obj
 0002:00003500       ??_C@_03KLGMFNMG@?$GAEH@   0000000180029500     libvcruntime:undname.obj
 0002:00003504       ??_C@_05KHLCHHI@?$GARTTI@  0000000180029504     libvcruntime:undname.obj
 0002:00003510       ??_C@_0BA@KKLDJDLB@?$GAlocal?5vftable?8@ 0000000180029510     libvcruntime:undname.obj
 0002:00003520       ??_C@_0CE@IIHCMGGL@?$GAlocal?5vftable?5constructor?5clos@ 0000000180029520     libvcruntime:undname.obj
 0002:00003544       ??_C@_06FHBGPFGH@?5new?$FL?$FN@ 0000000180029544     libvcruntime:undname.obj
 0002:00003550       ??_C@_09LBNFPBCA@?5delete?$FL?$FN@ 0000000180029550     libvcruntime:undname.obj
 0002:00003560       ??_C@_0P@HJKNJFNN@?$GAomni?5callsig?8@ 0000000180029560     libvcruntime:undname.obj
 0002:00003570       ??_C@_0BL@CNOONJFP@?$GAplacement?5delete?5closure?8@ 0000000180029570     libvcruntime:undname.obj
 0002:00003590       ??_C@_0BN@CKNJLHMB@?$GAplacement?5delete?$FL?$FN?5closure?8@ 0000000180029590     libvcruntime:undname.obj
 0002:000035b0       ??_C@_0CG@CFDHKGGD@?$GAmanaged?5vector?5constructor?5ite@ 00000001800295b0     libvcruntime:undname.obj
 0002:000035d8       ??_C@_0CF@IMGKMJNO@?$GAmanaged?5vector?5destructor?5iter@ 00000001800295d8     libvcruntime:undname.obj
 0002:00003600       ??_C@_0CG@HLDDJMAG@?$GAeh?5vector?5copy?5constructor?5ite@ 0000000180029600     libvcruntime:undname.obj
 0002:00003628       ??_C@_0CM@FCBBDIGB@?$GAeh?5vector?5vbase?5copy?5construct@ 0000000180029628     libvcruntime:undname.obj
 0002:00003658       ??_C@_0BL@CLIPGLGB@?$GAdynamic?5initializer?5for?5?8@ 0000000180029658     libvcruntime:undname.obj
 0002:00003678       ??_C@_0CB@PDBIFEP@?$GAdynamic?5atexit?5destructor?5for?5@ 0000000180029678     libvcruntime:undname.obj
 0002:000036a0       ??_C@_0CD@CGAJBKEJ@?$GAvector?5copy?5constructor?5iterat@ 00000001800296a0     libvcruntime:undname.obj
 0002:000036c8       ??_C@_0CJ@GJELGAMM@?$GAvector?5vbase?5copy?5constructor?5@ 00000001800296c8     libvcruntime:undname.obj
 0002:000036f8       ??_C@_0CL@FGIJHLCE@?$GAmanaged?5vector?5copy?5constructo@ 00000001800296f8     libvcruntime:undname.obj
 0002:00003728       ??_C@_0BM@PMGGMLDN@?$GAlocal?5static?5thread?5guard?8@ 0000000180029728     libvcruntime:undname.obj
 0002:00003748       ??_C@_0N@BDNMDMOL@operator?5?$CC?$CC?5@ 0000000180029748     libvcruntime:undname.obj
 0002:00003758       ??_C@_0BC@GGEBGALA@operator?5co_await@ 0000000180029758     libvcruntime:undname.obj
 0002:00003770       ??_C@_0M@GAAIMMOH@operator?$DM?$DN?$DO@ 0000000180029770     libvcruntime:undname.obj
 0002:00003780       ??_C@_0BC@DAFEJGAK@?5Type?5Descriptor?8@ 0000000180029780     libvcruntime:undname.obj
 0002:00003798       ??_C@_0BM@LDKODKLH@?5Base?5Class?5Descriptor?5at?5?$CI@ 0000000180029798     libvcruntime:undname.obj
 0002:000037b8       ??_C@_0BD@LGICGFMM@?5Base?5Class?5Array?8@ 00000001800297b8     libvcruntime:undname.obj
 0002:000037d0       ??_C@_0BN@MECKDCOJ@?5Class?5Hierarchy?5Descriptor?8@ 00000001800297d0     libvcruntime:undname.obj
 0002:000037f0       ??_C@_0BK@CFCOFLF@?5Complete?5Object?5Locator?8@ 00000001800297f0     libvcruntime:undname.obj
 0002:00003810       ??_C@_0BG@JNJLAMPM@?$GAanonymous?5namespace?8@ 0000000180029810     libvcruntime:undname.obj
 0002:00003840       ??_C@_1DM@KHCHBNEB@?$AAa?$AAp?$AAi?$AA?9?$AAm?$AAs?$AA?9?$AAw?$AAi?$AAn?$AA?9?$AAc?$AAo?$AAr?$AAe@ 0000000180029840     libvcruntime:winapi_downlevel.obj
 0002:00003880       ??_C@_1DK@LPPGFMPP@?$AAa?$AAp?$AAi?$AA?9?$AAm?$AAs?$AA?9?$AAw?$AAi?$AAn?$AA?9?$AAc?$AAo?$AAr?$AAe@ 0000000180029880     libvcruntime:winapi_downlevel.obj
 0002:000038c0       ??_C@_1BC@GDMECMAK@?$AAk?$AAe?$AAr?$AAn?$AAe?$AAl?$AA3?$AA2@ 00000001800298c0     libvcruntime:winapi_downlevel.obj
 0002:000038d8       ??_C@_1BA@PFFKHIOG@?$AAa?$AAp?$AAi?$AA?9?$AAm?$AAs?$AA?9@ 00000001800298d8     libvcruntime:winapi_downlevel.obj
 0002:000038f0       ??_C@_08KNHFBNJ@FlsAlloc@  00000001800298f0     libvcruntime:winapi_downlevel.obj
 0002:00003908       ??_C@_07PEJMOBNF@FlsFree@  0000000180029908     libvcruntime:winapi_downlevel.obj
 0002:00003918       ??_C@_0M@GDNOONDI@FlsGetValue@ 0000000180029918     libvcruntime:winapi_downlevel.obj
 0002:00003930       ??_C@_0M@JCPCPOEF@FlsSetValue@ 0000000180029930     libvcruntime:winapi_downlevel.obj
 0002:00003948       ??_C@_0BM@HCFOFFN@InitializeCriticalSectionEx@ 0000000180029948     libvcruntime:winapi_downlevel.obj
 0002:00003ae0       ?format_validation_lookup_table_spectre@__crt_stdio_output@@3V?$spectre_mitigated_lookup_table@Ustate_transition_pair@__crt_stdio_output@@$0IA@@1@B 0000000180029ae0     libucrt:output.obj
 0002:00003be0       ??_C@_1O@CEDCILHN@?$AA?$CI?$AAn?$AAu?$AAl?$AAl?$AA?$CJ@ 0000000180029be0     libucrt:output.obj
 0002:00003bf0       ??_C@_06OJHGLDPL@?$CInull?$CJ@ 0000000180029bf0     libucrt:output.obj
 0002:00003c00       __acrt_exception_action_table 0000000180029c00     libucrt:exception_filter.obj
 0002:00003cc0       __acrt_signal_action_table_count 0000000180029cc0     libucrt:exception_filter.obj
 0002:00003cc8       __acrt_signal_action_first_fpe_index 0000000180029cc8     libucrt:exception_filter.obj
 0002:00003cd0       __acrt_signal_action_fpe_count 0000000180029cd0     libucrt:exception_filter.obj
 0002:00003d28       ??_C@_1BI@BGOHAHKC@?$AAm?$AAs?$AAc?$AAo?$AAr?$AAe?$AAe?$AA?4?$AAd?$AAl?$AAl@ 0000000180029d28     libucrt:exit.obj
 0002:00003d40       ??_C@_0P@MIGLKIOC@CorExitProcess@ 0000000180029d40     libucrt:exit.obj
 0002:00003ea0       __lc_time_c                0000000180029ea0     libucrt:nlsdata.obj
 0002:00004160       ??_C@_03KOEHGMDN@Sun@      000000018002a160     libucrt:nlsdata.obj
 0002:00004164       ??_C@_03PDAGKDH@Mon@       000000018002a164     libucrt:nlsdata.obj
 0002:00004168       ??_C@_03NAGEINEP@Tue@      000000018002a168     libucrt:nlsdata.obj
 0002:0000416c       ??_C@_03MHOMLAJA@Wed@      000000018002a16c     libucrt:nlsdata.obj
 0002:00004170       ??_C@_03IOFIKPDN@Thu@      000000018002a170     libucrt:nlsdata.obj
 0002:00004174       ??_C@_03IDIOELNC@Fri@      000000018002a174     libucrt:nlsdata.obj
 0002:00004178       ??_C@_03FEFJNEK@Sat@       000000018002a178     libucrt:nlsdata.obj
 0002:0000417c       ??_C@_06OOPIFAJ@Sunday@    000000018002a17c     libucrt:nlsdata.obj
 0002:00004184       ??_C@_06JLEDEDGH@Monday@   000000018002a184     libucrt:nlsdata.obj
 0002:00004190       ??_C@_07BAAGCFCM@Tuesday@  000000018002a190     libucrt:nlsdata.obj
 0002:00004198       ??_C@_09DLIGFAKA@Wednesday@ 000000018002a198     libucrt:nlsdata.obj
 0002:000041a8       ??_C@_08HACCIKIA@Thursday@ 000000018002a1a8     libucrt:nlsdata.obj
 0002:000041b4       ??_C@_06JECMNKMI@Friday@   000000018002a1b4     libucrt:nlsdata.obj
 0002:000041c0       ??_C@_08INBOOONO@Saturday@ 000000018002a1c0     libucrt:nlsdata.obj
 0002:000041cc       ??_C@_03JIHJHPIE@Jan@      000000018002a1cc     libucrt:nlsdata.obj
 0002:000041d0       ??_C@_03HJBDCHOM@Feb@      000000018002a1d0     libucrt:nlsdata.obj
 0002:000041d4       ??_C@_03ODNJBKGA@Mar@      000000018002a1d4     libucrt:nlsdata.obj
 0002:000041d8       ??_C@_03LEOLGMJP@Apr@      000000018002a1d8     libucrt:nlsdata.obj
 0002:000041dc       ??_C@_03CNMDKL@May@        000000018002a1dc     libucrt:nlsdata.obj
 0002:000041e0       ??_C@_03IDFGHECI@Jun@      000000018002a1e0     libucrt:nlsdata.obj
 0002:000041e4       ??_C@_03LBGABGKK@Jul@      000000018002a1e4     libucrt:nlsdata.obj
 0002:000041e8       ??_C@_03IFJFEIGA@Aug@      000000018002a1e8     libucrt:nlsdata.obj
 0002:000041ec       ??_C@_03GGCAPAJC@Sep@      000000018002a1ec     libucrt:nlsdata.obj
 0002:000041f0       ??_C@_03BMAOKBAD@Oct@      000000018002a1f0     libucrt:nlsdata.obj
 0002:000041f4       ??_C@_03JPJOFNIA@Nov@      000000018002a1f4     libucrt:nlsdata.obj
 0002:000041f8       ??_C@_03MKABNOCG@Dec@      000000018002a1f8     libucrt:nlsdata.obj
 0002:00004200       ??_C@_07CGJPFGJA@January@  000000018002a200     libucrt:nlsdata.obj
 0002:00004208       ??_C@_08GNJGEPFN@February@ 000000018002a208     libucrt:nlsdata.obj
 0002:00004214       ??_C@_05HPCKOFNC@March@    000000018002a214     libucrt:nlsdata.obj
 0002:0000421c       ??_C@_05DMJDNLEJ@April@    000000018002a21c     libucrt:nlsdata.obj
 0002:00004224       ??_C@_04CNLMGBGM@June@     000000018002a224     libucrt:nlsdata.obj
 0002:0000422c       ??_C@_04MIEPOIFP@July@     000000018002a22c     libucrt:nlsdata.obj
 0002:00004234       ??_C@_06LBBHFDDG@August@   000000018002a234     libucrt:nlsdata.obj
 0002:00004240       ??_C@_09BHHEALKD@September@ 000000018002a240     libucrt:nlsdata.obj
 0002:00004250       ??_C@_07JJNFCEND@October@  000000018002a250     libucrt:nlsdata.obj
 0002:00004258       ??_C@_08HCHEGEOA@November@ 000000018002a258     libucrt:nlsdata.obj
 0002:00004268       ??_C@_08EDHMEBNP@December@ 000000018002a268     libucrt:nlsdata.obj
 0002:00004274       ??_C@_02DEDBPAFC@AM@       000000018002a274     libucrt:nlsdata.obj
 0002:00004278       ??_C@_02CJNFDJBF@PM@       000000018002a278     libucrt:nlsdata.obj
 0002:00004280       ??_C@_08BPBNCDIB@MM?1dd?1yy@ 000000018002a280     libucrt:nlsdata.obj
 0002:00004290       ??_C@_0BE@CKGJFCPC@dddd?0?5MMMM?5dd?0?5yyyy@ 000000018002a290     libucrt:nlsdata.obj
 0002:000042a8       ??_C@_08JCCMCCIL@HH?3mm?3ss@ 000000018002a2a8     libucrt:nlsdata.obj
 0002:000042b8       ??_C@_17MBGCMIPB@?$AAS?$AAu?$AAn@ 000000018002a2b8     libucrt:nlsdata.obj
 0002:000042c0       ??_C@_17KBOMKBF@?$AAM?$AAo?$AAn@ 000000018002a2c0     libucrt:nlsdata.obj
 0002:000042c8       ??_C@_17BMKGEGOJ@?$AAT?$AAu?$AAe@ 000000018002a2c8     libucrt:nlsdata.obj
 0002:000042d0       ??_C@_17CJEDCEPE@?$AAW?$AAe?$AAd@ 000000018002a2d0     libucrt:nlsdata.obj
 0002:000042d8       ??_C@_17PDPHAADD@?$AAT?$AAh?$AAu@ 000000018002a2d8     libucrt:nlsdata.obj
 0002:000042e0       ??_C@_17HFOLPPLP@?$AAF?$AAr?$AAi@ 000000018002a2e0     libucrt:nlsdata.obj
 0002:000042e8       ??_C@_17GGIBDPIH@?$AAS?$AAa?$AAt@ 000000018002a2e8     libucrt:nlsdata.obj
 0002:000042f0       ??_C@_1O@IHNHDHPB@?$AAS?$AAu?$AAn?$AAd?$AAa?$AAy@ 000000018002a2f0     libucrt:nlsdata.obj
 0002:00004300       ??_C@_1O@MMNBFLIA@?$AAM?$AAo?$AAn?$AAd?$AAa?$AAy@ 000000018002a300     libucrt:nlsdata.obj
 0002:00004310       ??_C@_1BA@ENFBFFEK@?$AAT?$AAu?$AAe?$AAs?$AAd?$AAa?$AAy@ 000000018002a310     libucrt:nlsdata.obj
 0002:00004320       ??_C@_1BE@EBOGMDOH@?$AAW?$AAe?$AAd?$AAn?$AAe?$AAs?$AAd?$AAa?$AAy@ 000000018002a320     libucrt:nlsdata.obj
 0002:00004338       ??_C@_1BC@HHMNLIHE@?$AAT?$AAh?$AAu?$AAr?$AAs?$AAd?$AAa?$AAy@ 000000018002a338     libucrt:nlsdata.obj
 0002:00004350       ??_C@_1O@PDICJHAG@?$AAF?$AAr?$AAi?$AAd?$AAa?$AAy@ 000000018002a350     libucrt:nlsdata.obj
 0002:00004360       ??_C@_1BC@ENMNNPAJ@?$AAS?$AAa?$AAt?$AAu?$AAr?$AAd?$AAa?$AAy@ 000000018002a360     libucrt:nlsdata.obj
 0002:00004378       ??_C@_17DKNBKCHM@?$AAJ?$AAa?$AAn@ 000000018002a378     libucrt:nlsdata.obj
 0002:00004380       ??_C@_17LMDJEKJN@?$AAF?$AAe?$AAb@ 000000018002a380     libucrt:nlsdata.obj
 0002:00004388       ??_C@_17CKNLEDEC@?$AAM?$AAa?$AAr@ 000000018002a388     libucrt:nlsdata.obj
 0002:00004390       ??_C@_17LFPOIHDD@?$AAA?$AAp?$AAr@ 000000018002a390     libucrt:nlsdata.obj
 0002:00004398       ??_C@_17PNNKMEED@?$AAM?$AAa?$AAy@ 000000018002a398     libucrt:nlsdata.obj
 0002:000043a0       ??_C@_17KCJGOCPB@?$AAJ?$AAu?$AAn@ 000000018002a3a0     libucrt:nlsdata.obj
 0002:000043a8       ??_C@_17IJPCKHK@?$AAJ?$AAu?$AAl@ 000000018002a3a8     libucrt:nlsdata.obj
 0002:000043b0       ??_C@_17ICPELBCN@?$AAA?$AAu?$AAg@ 000000018002a3b0     libucrt:nlsdata.obj
 0002:000043b8       ??_C@_17HCHCOKMG@?$AAS?$AAe?$AAp@ 000000018002a3b8     libucrt:nlsdata.obj
 0002:000043c0       ??_C@_17FNLKOI@?$AAO?$AAc?$AAt@ 000000018002a3c0     libucrt:nlsdata.obj
 0002:000043c8       ??_C@_17BBDMLCIG@?$AAN?$AAo?$AAv@ 000000018002a3c8     libucrt:nlsdata.obj
 0002:000043d0       ??_C@_17EGKACKIF@?$AAD?$AAe?$AAc@ 000000018002a3d0     libucrt:nlsdata.obj
 0002:000043d8       ??_C@_1BA@EFMEIEBA@?$AAJ?$AAa?$AAn?$AAu?$AAa?$AAr?$AAy@ 000000018002a3d8     libucrt:nlsdata.obj
 0002:000043e8       ??_C@_1BC@JGDDFFAM@?$AAF?$AAe?$AAb?$AAr?$AAu?$AAa?$AAr?$AAy@ 000000018002a3e8     libucrt:nlsdata.obj
 0002:00004400       ??_C@_1M@IKEENEDF@?$AAM?$AAa?$AAr?$AAc?$AAh@ 000000018002a400     libucrt:nlsdata.obj
 0002:00004410       ??_C@_1M@GJNLMHFD@?$AAA?$AAp?$AAr?$AAi?$AAl@ 000000018002a410     libucrt:nlsdata.obj
 0002:00004420       ??_C@_19EPFLPGAP@?$AAJ?$AAu?$AAn?$AAe@ 000000018002a420     libucrt:nlsdata.obj
 0002:00004430       ??_C@_19BIFMLPCD@?$AAJ?$AAu?$AAl?$AAy@ 000000018002a430     libucrt:nlsdata.obj
 0002:00004440       ??_C@_1O@PAHLKOAC@?$AAA?$AAu?$AAg?$AAu?$AAs?$AAt@ 000000018002a440     libucrt:nlsdata.obj
 0002:00004450       ??_C@_1BE@DKAAMBJL@?$AAS?$AAe?$AAp?$AAt?$AAe?$AAm?$AAb?$AAe?$AAr@ 000000018002a450     libucrt:nlsdata.obj
 0002:00004468       ??_C@_1BA@EPANDLNG@?$AAO?$AAc?$AAt?$AAo?$AAb?$AAe?$AAr@ 000000018002a468     libucrt:nlsdata.obj
 0002:00004478       ??_C@_1BC@BGLIFPF@?$AAN?$AAo?$AAv?$AAe?$AAm?$AAb?$AAe?$AAr@ 000000018002a478     libucrt:nlsdata.obj
 0002:00004490       ??_C@_1BC@FEMKIFH@?$AAD?$AAe?$AAc?$AAe?$AAm?$AAb?$AAe?$AAr@ 000000018002a490     libucrt:nlsdata.obj
 0002:000044a4       ??_C@_15ODEHAHHF@?$AAA?$AAM@ 000000018002a4a4     libucrt:nlsdata.obj
 0002:000044ac       ??_C@_15CLMNNGEL@?$AAP?$AAM@ 000000018002a4ac     libucrt:nlsdata.obj
 0002:000044b8       ??_C@_1BC@IEBCMHCM@?$AAM?$AAM?$AA?1?$AAd?$AAd?$AA?1?$AAy?$AAy@ 000000018002a4b8     libucrt:nlsdata.obj
 0002:000044d0       ??_C@_1CI@KNAKOEBC@?$AAd?$AAd?$AAd?$AAd?$AA?0?$AA?5?$AAM?$AAM?$AAM?$AAM?$AA?5?$AAd?$AAd?$AA?0?$AA?5@ 000000018002a4d0     libucrt:nlsdata.obj
 0002:000044f8       ??_C@_1BC@GDGBMEMK@?$AAH?$AAH?$AA?3?$AAm?$AAm?$AA?3?$AAs?$AAs@ 000000018002a4f8     libucrt:nlsdata.obj
 0002:00004510       ??_C@_1M@BMHNFIME@?$AAe?$AAn?$AA?9?$AAU?$AAS@ 000000018002a510     libucrt:nlsdata.obj
 0002:000045c0       ??_C@_1EA@JGEFHKEI@?$AAa?$AAp?$AAi?$AA?9?$AAm?$AAs?$AA?9?$AAw?$AAi?$AAn?$AA?9?$AAc?$AAo?$AAr?$AAe@ 000000018002a5c0     libucrt:winapi_thunks.obj
 0002:00004600       ??_C@_1DI@IJCEHOCB@?$AAa?$AAp?$AAi?$AA?9?$AAm?$AAs?$AA?9?$AAw?$AAi?$AAn?$AA?9?$AAc?$AAo?$AAr?$AAe@ 000000018002a600     libucrt:winapi_thunks.obj
 0002:00004640       ??_C@_1EI@MPIAOHOC@?$AAa?$AAp?$AAi?$AA?9?$AAm?$AAs?$AA?9?$AAw?$AAi?$AAn?$AA?9?$AAc?$AAo?$AAr?$AAe@ 000000018002a640     libucrt:winapi_thunks.obj
 0002:00004690       ??_C@_1FK@FPHCKFIE@?$AAa?$AAp?$AAi?$AA?9?$AAm?$AAs?$AA?9?$AAw?$AAi?$AAn?$AA?9?$AAc?$AAo?$AAr?$AAe@ 000000018002a690     libucrt:winapi_thunks.obj
 0002:000046f0       ??_C@_1EM@DILCGIIO@?$AAa?$AAp?$AAi?$AA?9?$AAm?$AAs?$AA?9?$AAw?$AAi?$AAn?$AA?9?$AAc?$AAo?$AAr?$AAe@ 000000018002a6f0     libucrt:winapi_thunks.obj
 0002:00004740       ??_C@_1DM@LNCGDDPN@?$AAa?$AAp?$AAi?$AA?9?$AAm?$AAs?$AA?9?$AAw?$AAi?$AAn?$AA?9?$AAc?$AAo?$AAr?$AAe@ 000000018002a740     libucrt:winapi_thunks.obj
 0002:00004780       ??_C@_1DO@FPAPJEMD@?$AAa?$AAp?$AAi?$AA?9?$AAm?$AAs?$AA?9?$AAw?$AAi?$AAn?$AA?9?$AAc?$AAo?$AAr?$AAe@ 000000018002a780     libucrt:winapi_thunks.obj
 0002:000047c0       ??_C@_1DK@NDHNAHIO@?$AAa?$AAp?$AAi?$AA?9?$AAm?$AAs?$AA?9?$AAw?$AAi?$AAn?$AA?9?$AAc?$AAo?$AAr?$AAe@ 000000018002a7c0     libucrt:winapi_thunks.obj
 0002:00004800       ??_C@_1DM@KGHDGBCM@?$AAa?$AAp?$AAi?$AA?9?$AAm?$AAs?$AA?9?$AAw?$AAi?$AAn?$AA?9?$AAc?$AAo?$AAr?$AAe@ 000000018002a800     libucrt:winapi_thunks.obj
 0002:00004840       ??_C@_1EO@IJIOEFOH@?$AAa?$AAp?$AAi?$AA?9?$AAm?$AAs?$AA?9?$AAw?$AAi?$AAn?$AA?9?$AAr?$AAt?$AAc?$AAo@ 000000018002a840     libucrt:winapi_thunks.obj
 0002:00004890       ??_C@_1FG@HHGEKANL@?$AAa?$AAp?$AAi?$AA?9?$AAm?$AAs?$AA?9?$AAw?$AAi?$AAn?$AA?9?$AAs?$AAe?$AAc?$AAu@ 000000018002a890     libucrt:winapi_thunks.obj
 0002:000048f0       ??_C@_1EG@DBIOJECG@?$AAe?$AAx?$AAt?$AA?9?$AAm?$AAs?$AA?9?$AAw?$AAi?$AAn?$AA?9?$AAn?$AAt?$AAu?$AAs@ 000000018002a8f0     libucrt:winapi_thunks.obj
 0002:00004940       ??_C@_1EO@FIHMJCLF@?$AAe?$AAx?$AAt?$AA?9?$AAm?$AAs?$AA?9?$AAw?$AAi?$AAn?$AA?9?$AAn?$AAt?$AAu?$AAs@ 000000018002a940     libucrt:winapi_thunks.obj
 0002:00004990       ??_C@_1BC@DNHGCMLG@?$AAa?$AAd?$AAv?$AAa?$AAp?$AAi?$AA3?$AA2@ 000000018002a990     libucrt:winapi_thunks.obj
 0002:000049a8       ??_C@_1M@OAIMIKLP@?$AAn?$AAt?$AAd?$AAl?$AAl@ 000000018002a9a8     libucrt:winapi_thunks.obj
 0002:000049c0       ??_C@_1EG@DPGNFKGC@?$AAa?$AAp?$AAi?$AA?9?$AAm?$AAs?$AA?9?$AAw?$AAi?$AAn?$AA?9?$AAa?$AAp?$AAp?$AAm@ 000000018002a9c0     libucrt:winapi_thunks.obj
 0002:00004a08       ??_C@_1O@BCCLBEOE@?$AAu?$AAs?$AAe?$AAr?$AA3?$AA2@ 000000018002aa08     libucrt:winapi_thunks.obj
 0002:00004a18       ??_C@_1BA@IAIFMGEF@?$AAe?$AAx?$AAt?$AA?9?$AAm?$AAs?$AA?9@ 000000018002aa18     libucrt:winapi_thunks.obj
 0002:00004a30       ??_C@_0BA@FHFNEAED@AreFileApisANSI@ 000000018002aa30     libucrt:winapi_thunks.obj
 0002:00004a50       ??_C@_0O@KKBNKAPF@LCMapStringEx@ 000000018002aa50     libucrt:winapi_thunks.obj
 0002:00004a68       ??_C@_0BB@HBDEELFH@LocaleNameToLCID@ 000000018002aa68     libucrt:winapi_thunks.obj
 0002:00004a80       ??_C@_0CF@OJOFEIGO@AppPolicyGetProcessTerminationM@ 000000018002aa80     libucrt:winapi_thunks.obj
 0002:00004ab0       ??_C@_0BI@BKLFFAPO@SetThreadStackGuarantee@ 000000018002aab0     libucrt:winapi_thunks.obj
 0002:00004b50       ??_C@_03OEIAHPBN@INF@      000000018002ab50     libucrt:cvt.obj
 0002:00004b54       ??_C@_03OJHLLCGB@inf@      000000018002ab54     libucrt:cvt.obj
 0002:00004b58       ??_C@_03LKNCIKJB@NAN@      000000018002ab58     libucrt:cvt.obj
 0002:00004b5c       ??_C@_03LHCJEHON@nan@      000000018002ab5c     libucrt:cvt.obj
 0002:00004b60       ??_C@_09OFJJIMPC@NAN?$CISNAN?$CJ@ 000000018002ab60     libucrt:cvt.obj
 0002:00004b70       ??_C@_09IPFBKMDL@nan?$CIsnan?$CJ@ 000000018002ab70     libucrt:cvt.obj
 0002:00004b80       ??_C@_08IKHNHAJ@NAN?$CIIND?$CJ@ 000000018002ab80     libucrt:cvt.obj
 0002:00004b90       ??_C@_08OFCDMILK@nan?$CIind?$CJ@ 000000018002ab90     libucrt:cvt.obj
 0002:00004b9c       ??_C@_05KLBDPFGC@e?$CL000@ 000000018002ab9c     libucrt:cvt.obj
 0002:00004bc8       ??_C@_1M@HPNHIDJI@?$AAj?$AAa?$AA?9?$AAJ?$AAP@ 000000018002abc8     libucrt:mbctype.obj
 0002:00004bd8       ??_C@_1M@BIBDDEMK@?$AAz?$AAh?$AA?9?$AAC?$AAN@ 000000018002abd8     libucrt:mbctype.obj
 0002:00004be8       ??_C@_1M@JLOOOEGK@?$AAk?$AAo?$AA?9?$AAK?$AAR@ 000000018002abe8     libucrt:mbctype.obj
 0002:00004bf8       ??_C@_1M@CLNBBOPM@?$AAz?$AAh?$AA?9?$AAT?$AAW@ 000000018002abf8     libucrt:mbctype.obj
 0002:00004c10       __newctype                 000000018002ac10     libucrt:ctype.obj
 0002:00004f10       __newclmap                 000000018002af10     libucrt:ctype.obj
 0002:00005090       __newcumap                 000000018002b090     libucrt:ctype.obj
 0002:00005210       ??_C@_15PJPFLCCM@?$AAu?$AAk@ 000000018002b210     libucrt:get_qualified_locale.obj
 0002:00006060       ??_C@_15EMKDOKLE@?$AAa?$AAr@ 000000018002c060     libucrt:lcidtoname_downlevel.obj
 0002:00006068       ??_C@_15KNPADPLH@?$AAb?$AAg@ 000000018002c068     libucrt:lcidtoname_downlevel.obj
 0002:00006070       ??_C@_15EDMHLDMO@?$AAc?$AAa@ 000000018002c070     libucrt:lcidtoname_downlevel.obj
 0002:00006078       ??_C@_1O@BPEAJADD@?$AAz?$AAh?$AA?9?$AAC?$AAH?$AAS@ 000000018002c078     libucrt:lcidtoname_downlevel.obj
 0002:00006088       ??_C@_15LJNHCMNK@?$AAc?$AAs@ 000000018002c088     libucrt:lcidtoname_downlevel.obj
 0002:00006090       ??_C@_15FOMCIDHG@?$AAd?$AAa@ 000000018002c090     libucrt:lcidtoname_downlevel.obj
 0002:00006098       ??_C@_15NBKABECB@?$AAd?$AAe@ 000000018002c098     libucrt:lcidtoname_downlevel.obj
 0002:000060a0       ??_C@_15GHPEIIAO@?$AAe?$AAl@ 000000018002c0a0     libucrt:lcidtoname_downlevel.obj
 0002:000060a8       ??_C@_15MNPNEAIF@?$AAe?$AAn@ 000000018002c0a8     libucrt:lcidtoname_downlevel.obj
 0002:000060b0       ??_C@_15GPIOMPMH@?$AAe?$AAs@ 000000018002c0b0     libucrt:lcidtoname_downlevel.obj
 0002:000060b8       ??_C@_15NGLOAKJC@?$AAf?$AAi@ 000000018002c0b8     libucrt:lcidtoname_downlevel.obj
 0002:000060c0       ??_C@_15FBKGNKAM@?$AAf?$AAr@ 000000018002c0c0     libucrt:lcidtoname_downlevel.obj
 0002:000060c8       ??_C@_15KGGCNEFK@?$AAh?$AAe@ 000000018002c0c8     libucrt:lcidtoname_downlevel.obj
 0002:000060d0       ??_C@_15PGHLIDMF@?$AAh?$AAu@ 000000018002c0d0     libucrt:lcidtoname_downlevel.obj
 0002:000060d8       ??_C@_15BIEMAPLM@?$AAi?$AAs@ 000000018002c0d8     libucrt:lcidtoname_downlevel.obj
 0002:000060e0       ??_C@_15IFJLDHAF@?$AAi?$AAt@ 000000018002c0e0     libucrt:lcidtoname_downlevel.obj
 0002:000060e8       ??_C@_15GEMIOCAG@?$AAj?$AAa@ 000000018002c0e8     libucrt:lcidtoname_downlevel.obj
 0002:000060f0       ??_C@_15EPELEGJA@?$AAk?$AAo@ 000000018002c0f0     libucrt:lcidtoname_downlevel.obj
 0002:000060f8       ??_C@_15NDDHIMN@?$AAn?$AAl@ 000000018002c0f8     libucrt:lcidtoname_downlevel.obj
 0002:00006100       ??_C@_15BPIGNHCD@?$AAn?$AAo@ 000000018002c100     libucrt:lcidtoname_downlevel.obj
 0002:00006108       ??_C@_15DEOPBLCG@?$AAp?$AAl@ 000000018002c108     libucrt:lcidtoname_downlevel.obj
 0002:00006110       ??_C@_15KBECGEFG@?$AAp?$AAt@ 000000018002c110     libucrt:lcidtoname_downlevel.obj
 0002:00006118       ??_C@_15GLJCBFMD@?$AAr?$AAo@ 000000018002c118     libucrt:lcidtoname_downlevel.obj
 0002:00006120       ??_C@_15FEDGKCDI@?$AAr?$AAu@ 000000018002c120     libucrt:lcidtoname_downlevel.obj
 0002:00006128       ??_C@_15GLKMLLHM@?$AAh?$AAr@ 000000018002c128     libucrt:lcidtoname_downlevel.obj
 0002:00006130       ??_C@_15CPKMFBDB@?$AAs?$AAk@ 000000018002c130     libucrt:lcidtoname_downlevel.obj
 0002:00006138       ??_C@_15BAAIOGMK@?$AAs?$AAq@ 000000018002c138     libucrt:lcidtoname_downlevel.obj
 0002:00006140       ??_C@_15INNPNOHD@?$AAs?$AAv@ 000000018002c140     libucrt:lcidtoname_downlevel.obj
 0002:00006148       ??_C@_15CABMMOGH@?$AAt?$AAh@ 000000018002c148     libucrt:lcidtoname_downlevel.obj
 0002:00006150       ??_C@_15BPLIHJJM@?$AAt?$AAr@ 000000018002c150     libucrt:lcidtoname_downlevel.obj
 0002:00006158       ??_C@_15NEOEKKDJ@?$AAu?$AAr@ 000000018002c158     libucrt:lcidtoname_downlevel.obj
 0002:00006160       ??_C@_15NFICGAJK@?$AAi?$AAd@ 000000018002c160     libucrt:lcidtoname_downlevel.obj
 0002:00006168       ??_C@_15HPJPHDM@?$AAb?$AAe@ 000000018002c168     libucrt:lcidtoname_downlevel.obj
 0002:00006170       ??_C@_15LCHLGJII@?$AAs?$AAl@ 000000018002c170     libucrt:lcidtoname_downlevel.obj
 0002:00006178       ??_C@_15PCFJPHHO@?$AAe?$AAt@ 000000018002c178     libucrt:lcidtoname_downlevel.obj
 0002:00006180       ??_C@_15HPFPGODN@?$AAl?$AAv@ 000000018002c180     libucrt:lcidtoname_downlevel.obj
 0002:00006188       ??_C@_15NFFGKGLG@?$AAl?$AAt@ 000000018002c188     libucrt:lcidtoname_downlevel.obj
 0002:00006190       ??_C@_15BDAKCCHN@?$AAf?$AAa@ 000000018002c190     libucrt:lcidtoname_downlevel.obj
 0002:00006198       ??_C@_15NFGIAIAJ@?$AAv?$AAi@ 000000018002c198     libucrt:lcidtoname_downlevel.obj
 0002:000061a0       ??_C@_15LMKNDMHN@?$AAh?$AAy@ 000000018002c1a0     libucrt:lcidtoname_downlevel.obj
 0002:000061a8       ??_C@_15IJBHMCFL@?$AAa?$AAz@ 000000018002c1a8     libucrt:lcidtoname_downlevel.obj
 0002:000061b0       ??_C@_15EKOFJABL@?$AAe?$AAu@ 000000018002c1b0     libucrt:lcidtoname_downlevel.obj
 0002:000061b8       ??_C@_15BGHADCNK@?$AAm?$AAk@ 000000018002c1b8     libucrt:lcidtoname_downlevel.obj
 0002:000061c0       ??_C@_15JDNICKHM@?$AAa?$AAf@ 000000018002c1c0     libucrt:lcidtoname_downlevel.obj
 0002:000061c8       ??_C@_15KPJEDBKD@?$AAk?$AAa@ 000000018002c1c8     libucrt:lcidtoname_downlevel.obj
 0002:000061d0       ??_C@_15PDNFFFEO@?$AAf?$AAo@ 000000018002c1d0     libucrt:lcidtoname_downlevel.obj
 0002:000061d8       ??_C@_15OMLEGLOC@?$AAh?$AAi@ 000000018002c1d8     libucrt:lcidtoname_downlevel.obj
 0002:000061e0       ??_C@_15IDNNENKK@?$AAm?$AAs@ 000000018002c1e0     libucrt:lcidtoname_downlevel.obj
 0002:000061e8       ??_C@_15MACJNBMH@?$AAk?$AAk@ 000000018002c1e8     libucrt:lcidtoname_downlevel.obj
 0002:000061f0       ??_C@_15DKDJEOND@?$AAk?$AAy@ 000000018002c1f0     libucrt:lcidtoname_downlevel.obj
 0002:000061f8       ??_C@_15DFGDLJBG@?$AAs?$AAw@ 000000018002c1f8     libucrt:lcidtoname_downlevel.obj
 0002:00006200       ??_C@_15BBFAICNG@?$AAu?$AAz@ 000000018002c200     libucrt:lcidtoname_downlevel.obj
 0002:00006208       ??_C@_15DKNDCGEA@?$AAt?$AAt@ 000000018002c208     libucrt:lcidtoname_downlevel.obj
 0002:00006210       ??_C@_15MGIFMDPL@?$AAp?$AAa@ 000000018002c210     libucrt:lcidtoname_downlevel.obj
 0002:00006218       ??_C@_15HCNDBBA@?$AAg?$AAu@ 000000018002c218     libucrt:lcidtoname_downlevel.obj
 0002:00006220       ??_C@_15FNBEIBON@?$AAt?$AAa@ 000000018002c220     libucrt:lcidtoname_downlevel.obj
 0002:00006228       ??_C@_15NCHGBGLK@?$AAt?$AAe@ 000000018002c228     libucrt:lcidtoname_downlevel.obj
 0002:00006230       ??_C@_15PHPHCBPF@?$AAk?$AAn@ 000000018002c230     libucrt:lcidtoname_downlevel.obj
 0002:00006238       ??_C@_15DLGBCKMP@?$AAm?$AAr@ 000000018002c238     libucrt:lcidtoname_downlevel.obj
 0002:00006240       ??_C@_15EABBLBFF@?$AAs?$AAa@ 000000018002c240     libucrt:lcidtoname_downlevel.obj
 0002:00006248       ??_C@_15CBKOMCOI@?$AAm?$AAn@ 000000018002c248     libucrt:lcidtoname_downlevel.obj
 0002:00006250       ??_C@_15CKDMCJAF@?$AAg?$AAl@ 000000018002c250     libucrt:lcidtoname_downlevel.obj
 0002:00006258       ??_C@_17CNJFBPG@?$AAk?$AAo?$AAk@ 000000018002c258     libucrt:lcidtoname_downlevel.obj
 0002:00006260       ??_C@_17FFBJICPL@?$AAs?$AAy?$AAr@ 000000018002c260     libucrt:lcidtoname_downlevel.obj
 0002:00006268       ??_C@_17KPNDCPAF@?$AAd?$AAi?$AAv@ 000000018002c268     libucrt:lcidtoname_downlevel.obj
 0002:00006270       ??_C@_1M@OKAHONE@?$AAa?$AAr?$AA?9?$AAS?$AAA@ 000000018002c270     libucrt:lcidtoname_downlevel.obj
 0002:00006280       ??_C@_1M@FFFIGIGK@?$AAb?$AAg?$AA?9?$AAB?$AAG@ 000000018002c280     libucrt:lcidtoname_downlevel.obj
 0002:00006290       ??_C@_1M@BJNKEDC@?$AAc?$AAa?$AA?9?$AAE?$AAS@ 000000018002c290     libucrt:lcidtoname_downlevel.obj
 0002:000062a0       ??_C@_1M@IJJHFJHA@?$AAc?$AAs?$AA?9?$AAC?$AAZ@ 000000018002c2a0     libucrt:lcidtoname_downlevel.obj
 0002:000062b0       ??_C@_1M@CLPEOBGI@?$AAd?$AAa?$AA?9?$AAD?$AAK@ 000000018002c2b0     libucrt:lcidtoname_downlevel.obj
 0002:000062c0       ??_C@_1M@MCMADGCB@?$AAd?$AAe?$AA?9?$AAD?$AAE@ 000000018002c2c0     libucrt:lcidtoname_downlevel.obj
 0002:000062d0       ??_C@_1M@OOCKEMAM@?$AAe?$AAl?$AA?9?$AAG?$AAR@ 000000018002c2d0     libucrt:lcidtoname_downlevel.obj
 0002:000062e0       ??_C@_1M@DDNJFGID@?$AAf?$AAi?$AA?9?$AAF?$AAI@ 000000018002c2e0     libucrt:lcidtoname_downlevel.obj
 0002:000062f0       ??_C@_1M@GLIPPMAC@?$AAf?$AAr?$AA?9?$AAF?$AAR@ 000000018002c2f0     libucrt:lcidtoname_downlevel.obj
 0002:00006300       ??_C@_1M@GFMCHPE@?$AAh?$AAe?$AA?9?$AAI?$AAL@ 000000018002c300     libucrt:lcidtoname_downlevel.obj
 0002:00006310       ??_C@_1M@MHLPGNKM@?$AAh?$AAu?$AA?9?$AAH?$AAU@ 000000018002c310     libucrt:lcidtoname_downlevel.obj
 0002:00006320       ??_C@_1M@LPDDNNPN@?$AAi?$AAs?$AA?9?$AAI?$AAS@ 000000018002c320     libucrt:lcidtoname_downlevel.obj
 0002:00006330       ??_C@_1M@MADIPODN@?$AAi?$AAt?$AA?9?$AAI?$AAT@ 000000018002c330     libucrt:lcidtoname_downlevel.obj
 0002:00006340       ??_C@_1M@IHBJJGG@?$AAn?$AAl?$AA?9?$AAN?$AAL@ 000000018002c340     libucrt:lcidtoname_downlevel.obj
 0002:00006350       ??_C@_1M@EANAGDL@?$AAn?$AAb?$AA?9?$AAN?$AAO@ 000000018002c350     libucrt:lcidtoname_downlevel.obj
 0002:00006360       ??_C@_1M@NEIEMEGP@?$AAp?$AAl?$AA?9?$AAP?$AAL@ 000000018002c360     libucrt:lcidtoname_downlevel.obj
 0002:00006370       ??_C@_1M@BOCFIGEP@?$AAp?$AAt?$AA?9?$AAB?$AAR@ 000000018002c370     libucrt:lcidtoname_downlevel.obj
 0002:00006380       ??_C@_1M@IMPFOPBG@?$AAr?$AAo?$AA?9?$AAR?$AAO@ 000000018002c380     libucrt:lcidtoname_downlevel.obj
 0002:00006390       ??_C@_1M@IDNNEJMM@?$AAr?$AAu?$AA?9?$AAR?$AAU@ 000000018002c390     libucrt:lcidtoname_downlevel.obj
 0002:000063a0       ??_C@_1M@LILEEOGM@?$AAh?$AAr?$AA?9?$AAH?$AAR@ 000000018002c3a0     libucrt:lcidtoname_downlevel.obj
 0002:000063b0       ??_C@_1M@FKIFEHPB@?$AAs?$AAk?$AA?9?$AAS?$AAK@ 000000018002c3b0     libucrt:lcidtoname_downlevel.obj
 0002:000063c0       ??_C@_1M@LJMAMNPJ@?$AAs?$AAq?$AA?9?$AAA?$AAL@ 000000018002c3c0     libucrt:lcidtoname_downlevel.obj
 0002:000063d0       ??_C@_1M@GIAKDKJK@?$AAs?$AAv?$AA?9?$AAS?$AAE@ 000000018002c3d0     libucrt:lcidtoname_downlevel.obj
 0002:000063e0       ??_C@_1M@MKJKIKCL@?$AAt?$AAh?$AA?9?$AAT?$AAH@ 000000018002c3e0     libucrt:lcidtoname_downlevel.obj
 0002:000063f0       ??_C@_1M@MFLCCMPB@?$AAt?$AAr?$AA?9?$AAT?$AAR@ 000000018002c3f0     libucrt:lcidtoname_downlevel.obj
 0002:00006400       ??_C@_1M@OIJHDKJN@?$AAu?$AAr?$AA?9?$AAP?$AAK@ 000000018002c400     libucrt:lcidtoname_downlevel.obj
 0002:00006410       ??_C@_1M@LHIPCIEK@?$AAi?$AAd?$AA?9?$AAI?$AAD@ 000000018002c410     libucrt:lcidtoname_downlevel.obj
 0002:00006420       ??_C@_1M@MFMOBGI@?$AAu?$AAk?$AA?9?$AAU?$AAA@ 000000018002c420     libucrt:lcidtoname_downlevel.obj
 0002:00006430       ??_C@_1M@OBGLJIPL@?$AAb?$AAe?$AA?9?$AAB?$AAY@ 000000018002c430     libucrt:lcidtoname_downlevel.obj
 0002:00006440       ??_C@_1M@BCFAJEAD@?$AAs?$AAl?$AA?9?$AAS?$AAI@ 000000018002c440     libucrt:lcidtoname_downlevel.obj
 0002:00006450       ??_C@_1M@FKFFEDDN@?$AAe?$AAt?$AA?9?$AAE?$AAE@ 000000018002c450     libucrt:lcidtoname_downlevel.obj
 0002:00006460       ??_C@_1M@KGKKAACI@?$AAl?$AAv?$AA?9?$AAL?$AAV@ 000000018002c460     libucrt:lcidtoname_downlevel.obj
 0002:00006470       ??_C@_1M@IFGBIJO@?$AAl?$AAt?$AA?9?$AAL?$AAT@ 000000018002c470     libucrt:lcidtoname_downlevel.obj
 0002:00006480       ??_C@_1M@FGEAHEDM@?$AAf?$AAa?$AA?9?$AAI?$AAR@ 000000018002c480     libucrt:lcidtoname_downlevel.obj
 0002:00006490       ??_C@_1M@KBMAIBFN@?$AAv?$AAi?$AA?9?$AAV?$AAN@ 000000018002c490     libucrt:lcidtoname_downlevel.obj
 0002:000064a0       ??_C@_1M@GPCBKDJK@?$AAh?$AAy?$AA?9?$AAA?$AAM@ 000000018002c4a0     libucrt:lcidtoname_downlevel.obj
 0002:000064b0       ??_C@_1BG@BECMDDJB@?$AAa?$AAz?$AA?9?$AAA?$AAZ?$AA?9?$AAL?$AAa?$AAt?$AAn@ 000000018002c4b0     libucrt:lcidtoname_downlevel.obj
 0002:000064c8       ??_C@_1M@MAOFCAEA@?$AAe?$AAu?$AA?9?$AAE?$AAS@ 000000018002c4c8     libucrt:lcidtoname_downlevel.obj
 0002:000064d8       ??_C@_1M@IGHABKPI@?$AAm?$AAk?$AA?9?$AAM?$AAK@ 000000018002c4d8     libucrt:lcidtoname_downlevel.obj
 0002:000064e8       ??_C@_1M@IAIGNEJG@?$AAt?$AAn?$AA?9?$AAZ?$AAA@ 000000018002c4e8     libucrt:lcidtoname_downlevel.obj
 0002:000064f8       ??_C@_1M@IIJCOJFA@?$AAx?$AAh?$AA?9?$AAZ?$AAA@ 000000018002c4f8     libucrt:lcidtoname_downlevel.obj
 0002:00006508       ??_C@_1M@LGPJHNJH@?$AAz?$AAu?$AA?9?$AAZ?$AAA@ 000000018002c508     libucrt:lcidtoname_downlevel.obj
 0002:00006518       ??_C@_1M@HOKAOIO@?$AAa?$AAf?$AA?9?$AAZ?$AAA@ 000000018002c518     libucrt:lcidtoname_downlevel.obj
 0002:00006528       ??_C@_1M@DPCLHLIE@?$AAk?$AAa?$AA?9?$AAG?$AAE@ 000000018002c528     libucrt:lcidtoname_downlevel.obj
 0002:00006538       ??_C@_1M@BLKMHJBI@?$AAf?$AAo?$AA?9?$AAF?$AAO@ 000000018002c538     libucrt:lcidtoname_downlevel.obj
 0002:00006548       ??_C@_1M@LGGJAPPB@?$AAh?$AAi?$AA?9?$AAI?$AAN@ 000000018002c548     libucrt:lcidtoname_downlevel.obj
 0002:00006558       ??_C@_1M@FIKPIHFE@?$AAm?$AAt?$AA?9?$AAM?$AAT@ 000000018002c558     libucrt:lcidtoname_downlevel.obj
 0002:00006568       ??_C@_1M@HEGGPBFA@?$AAs?$AAe?$AA?9?$AAN?$AAO@ 000000018002c568     libucrt:lcidtoname_downlevel.obj
 0002:00006578       ??_C@_1M@EIBJEEPA@?$AAm?$AAs?$AA?9?$AAM?$AAY@ 000000018002c578     libucrt:lcidtoname_downlevel.obj
 0002:00006588       ??_C@_1M@FHLBGMPP@?$AAk?$AAk?$AA?9?$AAK?$AAZ@ 000000018002c588     libucrt:lcidtoname_downlevel.obj
 0002:00006598       ??_C@_1M@NGJJLCGI@?$AAk?$AAy?$AA?9?$AAK?$AAG@ 000000018002c598     libucrt:lcidtoname_downlevel.obj
 0002:000065a8       ??_C@_1M@GIENNBFC@?$AAs?$AAw?$AA?9?$AAK?$AAE@ 000000018002c5a8     libucrt:lcidtoname_downlevel.obj
 0002:000065b8       ??_C@_1BG@NDGMJIMJ@?$AAu?$AAz?$AA?9?$AAU?$AAZ?$AA?9?$AAL?$AAa?$AAt?$AAn@ 000000018002c5b8     libucrt:lcidtoname_downlevel.obj
 0002:000065d0       ??_C@_1M@IDCCIHBC@?$AAt?$AAt?$AA?9?$AAR?$AAU@ 000000018002c5d0     libucrt:lcidtoname_downlevel.obj
 0002:000065e0       ??_C@_1M@LOICPMOJ@?$AAb?$AAn?$AA?9?$AAI?$AAN@ 000000018002c5e0     libucrt:lcidtoname_downlevel.obj
 0002:000065f0       ??_C@_1M@KPKKNEAH@?$AAp?$AAa?$AA?9?$AAI?$AAN@ 000000018002c5f0     libucrt:lcidtoname_downlevel.obj
 0002:00006600       ??_C@_1M@PJGPPBOG@?$AAg?$AAu?$AA?9?$AAI?$AAN@ 000000018002c600     libucrt:lcidtoname_downlevel.obj
 0002:00006610       ??_C@_1M@KMKMOPHI@?$AAt?$AAa?$AA?9?$AAI?$AAN@ 000000018002c610     libucrt:lcidtoname_downlevel.obj
 0002:00006620       ??_C@_1M@KFEHEPAC@?$AAt?$AAe?$AA?9?$AAI?$AAN@ 000000018002c620     libucrt:lcidtoname_downlevel.obj
 0002:00006630       ??_C@_1M@CDCLMGHI@?$AAk?$AAn?$AA?9?$AAI?$AAN@ 000000018002c630     libucrt:lcidtoname_downlevel.obj
 0002:00006640       ??_C@_1M@MIODLDKF@?$AAm?$AAl?$AA?9?$AAI?$AAN@ 000000018002c640     libucrt:lcidtoname_downlevel.obj
 0002:00006650       ??_C@_1M@PBIEACPO@?$AAm?$AAr?$AA?9?$AAI?$AAN@ 000000018002c650     libucrt:lcidtoname_downlevel.obj
 0002:00006660       ??_C@_1M@NIDEAGPH@?$AAs?$AAa?$AA?9?$AAI?$AAN@ 000000018002c660     libucrt:lcidtoname_downlevel.obj
 0002:00006670       ??_C@_1M@FHIHCBIO@?$AAm?$AAn?$AA?9?$AAM?$AAN@ 000000018002c670     libucrt:lcidtoname_downlevel.obj
 0002:00006680       ??_C@_1M@JAIJPENP@?$AAc?$AAy?$AA?9?$AAG?$AAB@ 000000018002c680     libucrt:lcidtoname_downlevel.obj
 0002:00006690       ??_C@_1M@PHGFBEPN@?$AAg?$AAl?$AA?9?$AAE?$AAS@ 000000018002c690     libucrt:lcidtoname_downlevel.obj
 0002:000066a0       ??_C@_1O@KPIPDNCP@?$AAk?$AAo?$AAk?$AA?9?$AAI?$AAN@ 000000018002c6a0     libucrt:lcidtoname_downlevel.obj
 0002:000066b0       ??_C@_1O@KNHJLDJA@?$AAs?$AAy?$AAr?$AA?9?$AAS?$AAY@ 000000018002c6b0     libucrt:lcidtoname_downlevel.obj
 0002:000066c0       ??_C@_1O@MKEKBLAH@?$AAd?$AAi?$AAv?$AA?9?$AAM?$AAV@ 000000018002c6c0     libucrt:lcidtoname_downlevel.obj
 0002:000066d0       ??_C@_1O@OHDCKDDF@?$AAq?$AAu?$AAz?$AA?9?$AAB?$AAO@ 000000018002c6d0     libucrt:lcidtoname_downlevel.obj
 0002:000066e0       ??_C@_1M@LEPJNLFD@?$AAn?$AAs?$AA?9?$AAZ?$AAA@ 000000018002c6e0     libucrt:lcidtoname_downlevel.obj
 0002:000066f0       ??_C@_1M@OMLEIIJB@?$AAm?$AAi?$AA?9?$AAN?$AAZ@ 000000018002c6f0     libucrt:lcidtoname_downlevel.obj
 0002:00006700       ??_C@_1M@PMPEAILG@?$AAa?$AAr?$AA?9?$AAI?$AAQ@ 000000018002c700     libucrt:lcidtoname_downlevel.obj
 0002:00006710       ??_C@_1M@CNKPNOEE@?$AAd?$AAe?$AA?9?$AAC?$AAH@ 000000018002c710     libucrt:lcidtoname_downlevel.obj
 0002:00006720       ??_C@_1M@LKMGMLKO@?$AAe?$AAn?$AA?9?$AAG?$AAB@ 000000018002c720     libucrt:lcidtoname_downlevel.obj
 0002:00006730       ??_C@_1M@PGKJFFGL@?$AAe?$AAs?$AA?9?$AAM?$AAX@ 000000018002c730     libucrt:lcidtoname_downlevel.obj
 0002:00006740       ??_C@_1M@DNNANBDC@?$AAf?$AAr?$AA?9?$AAB?$AAE@ 000000018002c740     libucrt:lcidtoname_downlevel.obj
 0002:00006750       ??_C@_1M@HLGMDFHM@?$AAi?$AAt?$AA?9?$AAC?$AAH@ 000000018002c750     libucrt:lcidtoname_downlevel.obj
 0002:00006760       ??_C@_1M@CLLBGJH@?$AAn?$AAl?$AA?9?$AAB?$AAE@ 000000018002c760     libucrt:lcidtoname_downlevel.obj
 0002:00006770       ??_C@_1M@BODBOGLF@?$AAn?$AAn?$AA?9?$AAN?$AAO@ 000000018002c770     libucrt:lcidtoname_downlevel.obj
 0002:00006780       ??_C@_1M@HFFAHKAD@?$AAp?$AAt?$AA?9?$AAP?$AAT@ 000000018002c780     libucrt:lcidtoname_downlevel.obj
 0002:00006790       ??_C@_1BG@LNOAKHIE@?$AAs?$AAr?$AA?9?$AAS?$AAP?$AA?9?$AAL?$AAa?$AAt?$AAn@ 000000018002c790     libucrt:lcidtoname_downlevel.obj
 0002:000067a8       ??_C@_1M@HBMHBGAK@?$AAs?$AAv?$AA?9?$AAF?$AAI@ 000000018002c7a8     libucrt:lcidtoname_downlevel.obj
 0002:000067b8       ??_C@_1BG@DGCJGJBE@?$AAa?$AAz?$AA?9?$AAA?$AAZ?$AA?9?$AAC?$AAy?$AAr?$AAl@ 000000018002c7b8     libucrt:lcidtoname_downlevel.obj
 0002:000067d0       ??_C@_1M@KEJDAAHB@?$AAs?$AAe?$AA?9?$AAS?$AAE@ 000000018002c7d0     libucrt:lcidtoname_downlevel.obj
 0002:000067e0       ??_C@_1M@HEIBJJAD@?$AAm?$AAs?$AA?9?$AAB?$AAN@ 000000018002c7e0     libucrt:lcidtoname_downlevel.obj
 0002:000067f0       ??_C@_1BG@PBGJMCEM@?$AAu?$AAz?$AA?9?$AAU?$AAZ?$AA?9?$AAC?$AAy?$AAr?$AAl@ 000000018002c7f0     libucrt:lcidtoname_downlevel.obj
 0002:00006808       ??_C@_1O@LAOBCMDF@?$AAq?$AAu?$AAz?$AA?9?$AAE?$AAC@ 000000018002c808     libucrt:lcidtoname_downlevel.obj
 0002:00006818       ??_C@_1M@POEEMAIO@?$AAa?$AAr?$AA?9?$AAE?$AAG@ 000000018002c818     libucrt:lcidtoname_downlevel.obj
 0002:00006828       ??_C@_1M@EFAKDEDL@?$AAz?$AAh?$AA?9?$AAH?$AAK@ 000000018002c828     libucrt:lcidtoname_downlevel.obj
 0002:00006838       ??_C@_1M@HKKIJHGI@?$AAd?$AAe?$AA?9?$AAA?$AAT@ 000000018002c838     libucrt:lcidtoname_downlevel.obj
 0002:00006848       ??_C@_1M@KBFBEHJF@?$AAe?$AAn?$AA?9?$AAA?$AAU@ 000000018002c848     libucrt:lcidtoname_downlevel.obj
 0002:00006858       ??_C@_1M@MNPLFAAH@?$AAe?$AAs?$AA?9?$AAE?$AAS@ 000000018002c858     libucrt:lcidtoname_downlevel.obj
 0002:00006868       ??_C@_1M@HJOOJFMA@?$AAf?$AAr?$AA?9?$AAC?$AAA@ 000000018002c868     libucrt:lcidtoname_downlevel.obj
 0002:00006878       ??_C@_1BG@JPOFPNAB@?$AAs?$AAr?$AA?9?$AAS?$AAP?$AA?9?$AAC?$AAy?$AAr?$AAl@ 000000018002c878     libucrt:lcidtoname_downlevel.obj
 0002:00006890       ??_C@_1M@LNFOCMOB@?$AAs?$AAe?$AA?9?$AAF?$AAI@ 000000018002c890     libucrt:lcidtoname_downlevel.obj
 0002:000068a0       ??_C@_1O@MGJBOAMB@?$AAq?$AAu?$AAz?$AA?9?$AAP?$AAE@ 000000018002c8a0     libucrt:lcidtoname_downlevel.obj
 0002:000068b0       ??_C@_1M@GJINLBOK@?$AAa?$AAr?$AA?9?$AAL?$AAY@ 000000018002c8b0     libucrt:lcidtoname_downlevel.obj
 0002:000068c0       ??_C@_1M@GGMNHJNL@?$AAz?$AAh?$AA?9?$AAS?$AAG@ 000000018002c8c0     libucrt:lcidtoname_downlevel.obj
 0002:000068d0       ??_C@_1M@HOIKODND@?$AAd?$AAe?$AA?9?$AAL?$AAU@ 000000018002c8d0     libucrt:lcidtoname_downlevel.obj
 0002:000068e0       ??_C@_1M@DDOCCGFG@?$AAe?$AAn?$AA?9?$AAC?$AAA@ 000000018002c8e0     libucrt:lcidtoname_downlevel.obj
 0002:000068f0       ??_C@_1M@BNOEMJLF@?$AAe?$AAs?$AA?9?$AAG?$AAT@ 000000018002c8f0     libucrt:lcidtoname_downlevel.obj
 0002:00006900       ??_C@_1M@EOGNKEK@?$AAf?$AAr?$AA?9?$AAC?$AAH@ 000000018002c900     libucrt:lcidtoname_downlevel.obj
 0002:00006910       ??_C@_1M@FLIDJFHL@?$AAh?$AAr?$AA?9?$AAB?$AAA@ 000000018002c910     libucrt:lcidtoname_downlevel.obj
 0002:00006920       ??_C@_1O@FMCELNAJ@?$AAs?$AAm?$AAj?$AA?9?$AAN?$AAO@ 000000018002c920     libucrt:lcidtoname_downlevel.obj
 0002:00006930       ??_C@_1M@JHGLJMGJ@?$AAa?$AAr?$AA?9?$AAD?$AAZ@ 000000018002c930     libucrt:lcidtoname_downlevel.obj
 0002:00006940       ??_C@_1M@JKKFDCNP@?$AAz?$AAh?$AA?9?$AAM?$AAO@ 000000018002c940     libucrt:lcidtoname_downlevel.obj
 0002:00006950       ??_C@_1M@GEEFALPE@?$AAd?$AAe?$AA?9?$AAL?$AAI@ 000000018002c950     libucrt:lcidtoname_downlevel.obj
 0002:00006960       ??_C@_1M@IGEOFBG@?$AAe?$AAn?$AA?9?$AAN?$AAZ@ 000000018002c960     libucrt:lcidtoname_downlevel.obj
 0002:00006970       ??_C@_1M@KDBONEHP@?$AAe?$AAs?$AA?9?$AAC?$AAR@ 000000018002c970     libucrt:lcidtoname_downlevel.obj
 0002:00006980       ??_C@_1M@FHMDOHNN@?$AAf?$AAr?$AA?9?$AAL?$AAU@ 000000018002c980     libucrt:lcidtoname_downlevel.obj
 0002:00006990       ??_C@_1BG@NFKKMAFG@?$AAb?$AAs?$AA?9?$AAB?$AAA?$AA?9?$AAL?$AAa?$AAt?$AAn@ 000000018002c990     libucrt:lcidtoname_downlevel.obj
 0002:000069a8       ??_C@_1O@IMNBEMCI@?$AAs?$AAm?$AAj?$AA?9?$AAS?$AAE@ 000000018002c9a8     libucrt:lcidtoname_downlevel.obj
 0002:000069b8       ??_C@_1M@DHHMBNDP@?$AAa?$AAr?$AA?9?$AAM?$AAA@ 000000018002c9b8     libucrt:lcidtoname_downlevel.obj
 0002:000069c8       ??_C@_1M@BNBLJCGH@?$AAe?$AAn?$AA?9?$AAI?$AAE@ 000000018002c9c8     libucrt:lcidtoname_downlevel.obj
 0002:000069d8       ??_C@_1M@GEPAFMDL@?$AAe?$AAs?$AA?9?$AAP?$AAA@ 000000018002c9d8     libucrt:lcidtoname_downlevel.obj
 0002:000069e8       ??_C@_1M@OJONDMDL@?$AAf?$AAr?$AA?9?$AAM?$AAC@ 000000018002c9e8     libucrt:lcidtoname_downlevel.obj
 0002:000069f8       ??_C@_1BG@OBCNFJB@?$AAs?$AAr?$AA?9?$AAB?$AAA?$AA?9?$AAL?$AAa?$AAt?$AAn@ 000000018002c9f8     libucrt:lcidtoname_downlevel.obj
 0002:00006a10       ??_C@_1O@KEMEEGPO@?$AAs?$AAm?$AAa?$AA?9?$AAN?$AAO@ 000000018002ca10     libucrt:lcidtoname_downlevel.obj
 0002:00006a20       ??_C@_1M@ELMGFODK@?$AAa?$AAr?$AA?9?$AAT?$AAN@ 000000018002ca20     libucrt:lcidtoname_downlevel.obj
 0002:00006a30       ??_C@_1M@BHDLHFAF@?$AAe?$AAn?$AA?9?$AAZ?$AAA@ 000000018002ca30     libucrt:lcidtoname_downlevel.obj
 0002:00006a40       ??_C@_1M@BMGIGLIF@?$AAe?$AAs?$AA?9?$AAD?$AAO@ 000000018002ca40     libucrt:lcidtoname_downlevel.obj
 0002:00006a50       ??_C@_1BG@CMBHIPBE@?$AAs?$AAr?$AA?9?$AAB?$AAA?$AA?9?$AAC?$AAy?$AAr?$AAl@ 000000018002ca50     libucrt:lcidtoname_downlevel.obj
 0002:00006a68       ??_C@_1O@HEDBLHNP@?$AAs?$AAm?$AAa?$AA?9?$AAS?$AAE@ 000000018002ca68     libucrt:lcidtoname_downlevel.obj
 0002:00006a78       ??_C@_1M@DAGCADIM@?$AAa?$AAr?$AA?9?$AAO?$AAM@ 000000018002ca78     libucrt:lcidtoname_downlevel.obj
 0002:00006a88       ??_C@_1M@FODLMICG@?$AAe?$AAn?$AA?9?$AAJ?$AAM@ 000000018002ca88     libucrt:lcidtoname_downlevel.obj
 0002:00006a98       ??_C@_1M@DNMLCIHB@?$AAe?$AAs?$AA?9?$AAV?$AAE@ 000000018002ca98     libucrt:lcidtoname_downlevel.obj
 0002:00006aa8       ??_C@_1O@EOKHMKJK@?$AAs?$AAm?$AAs?$AA?9?$AAF?$AAI@ 000000018002caa8     libucrt:lcidtoname_downlevel.obj
 0002:00006ab8       ??_C@_1M@CAFJMKOF@?$AAa?$AAr?$AA?9?$AAY?$AAE@ 000000018002cab8     libucrt:lcidtoname_downlevel.obj
 0002:00006ac8       ??_C@_1M@CBFHIJLI@?$AAe?$AAn?$AA?9?$AAC?$AAB@ 000000018002cac8     libucrt:lcidtoname_downlevel.obj
 0002:00006ad8       ??_C@_1M@BGNFLDN@?$AAe?$AAs?$AA?9?$AAC?$AAO@ 000000018002cad8     libucrt:lcidtoname_downlevel.obj
 0002:00006ae8       ??_C@_1O@JMPHMAMC@?$AAs?$AAm?$AAn?$AA?9?$AAF?$AAI@ 000000018002cae8     libucrt:lcidtoname_downlevel.obj
 0002:00006af8       ??_C@_1M@JLANABKE@?$AAa?$AAr?$AA?9?$AAS?$AAY@ 000000018002caf8     libucrt:lcidtoname_downlevel.obj
 0002:00006b08       ??_C@_1M@HPKGCFGN@?$AAe?$AAn?$AA?9?$AAB?$AAZ@ 000000018002cb08     libucrt:lcidtoname_downlevel.obj
 0002:00006b18       ??_C@_1M@OLJCMLGM@?$AAe?$AAs?$AA?9?$AAP?$AAE@ 000000018002cb18     libucrt:lcidtoname_downlevel.obj
 0002:00006b28       ??_C@_1M@MKKGFKLE@?$AAa?$AAr?$AA?9?$AAJ?$AAO@ 000000018002cb28     libucrt:lcidtoname_downlevel.obj
 0002:00006b38       ??_C@_1M@EKPGLDNI@?$AAe?$AAn?$AA?9?$AAT?$AAT@ 000000018002cb38     libucrt:lcidtoname_downlevel.obj
 0002:00006b48       ??_C@_1M@OONGHFHE@?$AAe?$AAs?$AA?9?$AAA?$AAR@ 000000018002cb48     libucrt:lcidtoname_downlevel.obj
 0002:00006b58       ??_C@_1M@OOJFGBHE@?$AAa?$AAr?$AA?9?$AAL?$AAB@ 000000018002cb58     libucrt:lcidtoname_downlevel.obj
 0002:00006b68       ??_C@_1M@GCEJHNEG@?$AAe?$AAn?$AA?9?$AAZ?$AAW@ 000000018002cb68     libucrt:lcidtoname_downlevel.obj
 0002:00006b78       ??_C@_1M@JNOCAHJI@?$AAe?$AAs?$AA?9?$AAE?$AAC@ 000000018002cb78     libucrt:lcidtoname_downlevel.obj
 0002:00006b88       ??_C@_1M@JEFHPGGB@?$AAa?$AAr?$AA?9?$AAK?$AAW@ 000000018002cb88     libucrt:lcidtoname_downlevel.obj
 0002:00006b98       ??_C@_1M@MLKIBJOJ@?$AAe?$AAn?$AA?9?$AAP?$AAH@ 000000018002cb98     libucrt:lcidtoname_downlevel.obj
 0002:00006ba8       ??_C@_1M@BDNIPEND@?$AAe?$AAs?$AA?9?$AAC?$AAL@ 000000018002cba8     libucrt:lcidtoname_downlevel.obj
 0002:00006bb8       ??_C@_1M@MPNMEKBD@?$AAa?$AAr?$AA?9?$AAA?$AAE@ 000000018002cbb8     libucrt:lcidtoname_downlevel.obj
 0002:00006bc8       ??_C@_1M@KBJALCPI@?$AAe?$AAs?$AA?9?$AAU?$AAY@ 000000018002cbc8     libucrt:lcidtoname_downlevel.obj
 0002:00006bd8       ??_C@_1M@LLCCOAGA@?$AAa?$AAr?$AA?9?$AAB?$AAH@ 000000018002cbd8     libucrt:lcidtoname_downlevel.obj
 0002:00006be8       ??_C@_1M@PBFNCDEL@?$AAe?$AAs?$AA?9?$AAP?$AAY@ 000000018002cbe8     libucrt:lcidtoname_downlevel.obj
 0002:00006bf8       ??_C@_1M@EDGINPNP@?$AAa?$AAr?$AA?9?$AAQ?$AAA@ 000000018002cbf8     libucrt:lcidtoname_downlevel.obj
 0002:00006c08       ??_C@_1M@MKDBIIJI@?$AAe?$AAs?$AA?9?$AAB?$AAO@ 000000018002cc08     libucrt:lcidtoname_downlevel.obj
 0002:00006c18       ??_C@_1M@CPKKEBLD@?$AAe?$AAs?$AA?9?$AAS?$AAV@ 000000018002cc18     libucrt:lcidtoname_downlevel.obj
 0002:00006c28       ??_C@_1M@NDBGMMJL@?$AAe?$AAs?$AA?9?$AAH?$AAN@ 000000018002cc28     libucrt:lcidtoname_downlevel.obj
 0002:00006c38       ??_C@_1M@JIJIBHDP@?$AAe?$AAs?$AA?9?$AAN?$AAI@ 000000018002cc38     libucrt:lcidtoname_downlevel.obj
 0002:00006c48       ??_C@_1M@CGFMKEEK@?$AAe?$AAs?$AA?9?$AAP?$AAR@ 000000018002cc48     libucrt:lcidtoname_downlevel.obj
 0002:00006c58       ??_C@_1O@ICJHKIIK@?$AAz?$AAh?$AA?9?$AAC?$AAH?$AAT@ 000000018002cc58     libucrt:lcidtoname_downlevel.obj
 0002:00006c68       ??_C@_15CLNEJCE@?$AAs?$AAr@ 000000018002cc68     libucrt:lcidtoname_downlevel.obj
 0002:00007ab0       ??_C@_1M@KAHEKEIG@?$AAa?$AAf?$AA?9?$AAz?$AAa@ 000000018002dab0     libucrt:lcidtoname_downlevel.obj
 0002:00007ac0       ??_C@_1M@GIECOABL@?$AAa?$AAr?$AA?9?$AAa?$AAe@ 000000018002dac0     libucrt:lcidtoname_downlevel.obj
 0002:00007ad0       ??_C@_1M@BMLMEKGI@?$AAa?$AAr?$AA?9?$AAb?$AAh@ 000000018002dad0     libucrt:lcidtoname_downlevel.obj
 0002:00007ae0       ??_C@_1M@DAPFDGGB@?$AAa?$AAr?$AA?9?$AAd?$AAz@ 000000018002dae0     libucrt:lcidtoname_downlevel.obj
 0002:00007af0       ??_C@_1M@FJNKGKIG@?$AAa?$AAr?$AA?9?$AAe?$AAg@ 000000018002daf0     libucrt:lcidtoname_downlevel.obj
 0002:00007b00       ??_C@_1M@FLGKKCLO@?$AAa?$AAr?$AA?9?$AAi?$AAq@ 000000018002db00     libucrt:lcidtoname_downlevel.obj
 0002:00007b10       ??_C@_1M@GNDIPALM@?$AAa?$AAr?$AA?9?$AAj?$AAo@ 000000018002db10     libucrt:lcidtoname_downlevel.obj
 0002:00007b20       ??_C@_1M@DDMJFMGJ@?$AAa?$AAr?$AA?9?$AAk?$AAw@ 000000018002db20     libucrt:lcidtoname_downlevel.obj
 0002:00007b30       ??_C@_1M@EJALMLHM@?$AAa?$AAr?$AA?9?$AAl?$AAb@ 000000018002db30     libucrt:lcidtoname_downlevel.obj
 0002:00007b40       ??_C@_1M@MOBDBLOC@?$AAa?$AAr?$AA?9?$AAl?$AAy@ 000000018002db40     libucrt:lcidtoname_downlevel.obj
 0002:00007b50       ??_C@_1M@JAOCLHDH@?$AAa?$AAr?$AA?9?$AAm?$AAa@ 000000018002db50     libucrt:lcidtoname_downlevel.obj
 0002:00007b60       ??_C@_1M@JHPMKJIE@?$AAa?$AAr?$AA?9?$AAo?$AAm@ 000000018002db60     libucrt:lcidtoname_downlevel.obj
 0002:00007b70       ??_C@_1M@OEPGHFNH@?$AAa?$AAr?$AA?9?$AAq?$AAa@ 000000018002db70     libucrt:lcidtoname_downlevel.obj
 0002:00007b80       ??_C@_1M@KJDONENM@?$AAa?$AAr?$AA?9?$AAs?$AAa@ 000000018002db80     libucrt:lcidtoname_downlevel.obj
 0002:00007b90       ??_C@_1M@DMJDKLKM@?$AAa?$AAr?$AA?9?$AAs?$AAy@ 000000018002db90     libucrt:lcidtoname_downlevel.obj
 0002:00007ba0       ??_C@_1M@OMFIPEDC@?$AAa?$AAr?$AA?9?$AAt?$AAn@ 000000018002dba0     libucrt:lcidtoname_downlevel.obj
 0002:00007bb0       ??_C@_1M@IHMHGAON@?$AAa?$AAr?$AA?9?$AAy?$AAe@ 000000018002dbb0     libucrt:lcidtoname_downlevel.obj
 0002:00007bc0       ??_C@_1BG@KDCPGJGB@?$AAa?$AAz?$AA?9?$AAa?$AAz?$AA?9?$AAc?$AAy?$AAr?$AAl@ 000000018002dbc0     libucrt:lcidtoname_downlevel.obj
 0002:00007bd8       ??_C@_1BG@IBCKDDOE@?$AAa?$AAz?$AA?9?$AAa?$AAz?$AA?9?$AAl?$AAa?$AAt?$AAn@ 000000018002dbd8     libucrt:lcidtoname_downlevel.obj
 0002:00007bf0       ??_C@_1M@EGPFDCPD@?$AAb?$AAe?$AA?9?$AAb?$AAy@ 000000018002dbf0     libucrt:lcidtoname_downlevel.obj
 0002:00007c00       ??_C@_1M@PCMGMCGC@?$AAb?$AAg?$AA?9?$AAb?$AAg@ 000000018002dc00     libucrt:lcidtoname_downlevel.obj
 0002:00007c10       ??_C@_1M@BJBMFGOB@?$AAb?$AAn?$AA?9?$AAi?$AAn@ 000000018002dc10     libucrt:lcidtoname_downlevel.obj
 0002:00007c20       ??_C@_1BG@EAKMMACD@?$AAb?$AAs?$AA?9?$AAb?$AAa?$AA?9?$AAl?$AAa?$AAt?$AAn@ 000000018002dc20     libucrt:lcidtoname_downlevel.obj
 0002:00007c38       ??_C@_1M@KGADAODK@?$AAc?$AAa?$AA?9?$AAe?$AAs@ 000000018002dc38     libucrt:lcidtoname_downlevel.obj
 0002:00007c48       ??_C@_1M@COAJPDHI@?$AAc?$AAs?$AA?9?$AAc?$AAz@ 000000018002dc48     libucrt:lcidtoname_downlevel.obj
 0002:00007c58       ??_C@_1M@DHBHFONH@?$AAc?$AAy?$AA?9?$AAg?$AAb@ 000000018002dc58     libucrt:lcidtoname_downlevel.obj
 0002:00007c68       ??_C@_1M@IMGKELGA@?$AAd?$AAa?$AA?9?$AAd?$AAk@ 000000018002dc68     libucrt:lcidtoname_downlevel.obj
 0002:00007c78       ??_C@_1M@NNDGDNGA@?$AAd?$AAe?$AA?9?$AAa?$AAt@ 000000018002dc78     libucrt:lcidtoname_downlevel.obj
 0002:00007c88       ??_C@_1M@IKDBHEEM@?$AAd?$AAe?$AA?9?$AAc?$AAh@ 000000018002dc88     libucrt:lcidtoname_downlevel.obj
 0002:00007c98       ??_C@_1M@GFFOJMCJ@?$AAd?$AAe?$AA?9?$AAd?$AAe@ 000000018002dc98     libucrt:lcidtoname_downlevel.obj
 0002:00007ca8       ??_C@_1M@MDNLKBPM@?$AAd?$AAe?$AA?9?$AAl?$AAi@ 000000018002dca8     libucrt:lcidtoname_downlevel.obj
 0002:00007cb8       ??_C@_1M@NJBEEJNL@?$AAd?$AAe?$AA?9?$AAl?$AAu@ 000000018002dcb8     libucrt:lcidtoname_downlevel.obj
 0002:00007cc8       ??_C@_1O@GNNELBAP@?$AAd?$AAi?$AAv?$AA?9?$AAm?$AAv@ 000000018002dcc8     libucrt:lcidtoname_downlevel.obj
 0002:00007cd8       ??_C@_1M@EJLEOGAE@?$AAe?$AAl?$AA?9?$AAg?$AAr@ 000000018002dcd8     libucrt:lcidtoname_downlevel.obj
 0002:00007ce8       ??_C@_1M@GMPONJN@?$AAe?$AAn?$AA?9?$AAa?$AAu@ 000000018002dce8     libucrt:lcidtoname_downlevel.obj
 0002:00007cf8       ??_C@_1M@NIDIIPGF@?$AAe?$AAn?$AA?9?$AAb?$AAz@ 000000018002dcf8     libucrt:lcidtoname_downlevel.obj
 0002:00007d08       ??_C@_1M@JEHMIMFO@?$AAe?$AAn?$AA?9?$AAc?$AAa@ 000000018002dd08     libucrt:lcidtoname_downlevel.obj
 0002:00007d18       ??_C@_1M@IGMJCDLA@?$AAe?$AAn?$AA?9?$AAc?$AAb@ 000000018002dd18     libucrt:lcidtoname_downlevel.obj
 0002:00007d28       ??_C@_1M@BNFIGBKG@?$AAe?$AAn?$AA?9?$AAg?$AAb@ 000000018002dd28     libucrt:lcidtoname_downlevel.obj
 0002:00007d38       ??_C@_1M@LKIFDIGP@?$AAe?$AAn?$AA?9?$AAi?$AAe@ 000000018002dd38     libucrt:lcidtoname_downlevel.obj
 0002:00007d48       ??_C@_1M@PJKFGCCO@?$AAe?$AAn?$AA?9?$AAj?$AAm@ 000000018002dd48     libucrt:lcidtoname_downlevel.obj
 0002:00007d58       ??_C@_1M@KPPKEPBO@?$AAe?$AAn?$AA?9?$AAn?$AAz@ 000000018002dd58     libucrt:lcidtoname_downlevel.obj
 0002:00007d68       ??_C@_1M@GMDGLDOB@?$AAe?$AAn?$AA?9?$AAp?$AAh@ 000000018002dd68     libucrt:lcidtoname_downlevel.obj
 0002:00007d78       ??_C@_1M@ONGIBJNA@?$AAe?$AAn?$AA?9?$AAt?$AAt@ 000000018002dd78     libucrt:lcidtoname_downlevel.obj
 0002:00007d88       ??_C@_1M@LLODPCMM@?$AAe?$AAn?$AA?9?$AAu?$AAs@ 000000018002dd88     libucrt:lcidtoname_downlevel.obj
 0002:00007d98       ??_C@_1M@LAKFNPAN@?$AAe?$AAn?$AA?9?$AAz?$AAa@ 000000018002dd98     libucrt:lcidtoname_downlevel.obj
 0002:00007da8       ??_C@_1M@MFNHNHEO@?$AAe?$AAn?$AA?9?$AAz?$AAw@ 000000018002dda8     libucrt:lcidtoname_downlevel.obj
 0002:00007db8       ??_C@_1M@EJEINPHM@?$AAe?$AAs?$AA?9?$AAa?$AAr@ 000000018002ddb8     libucrt:lcidtoname_downlevel.obj
 0002:00007dc8       ??_C@_1M@GNKPCCJA@?$AAe?$AAs?$AA?9?$AAb?$AAo@ 000000018002ddc8     libucrt:lcidtoname_downlevel.obj
 0002:00007dd8       ??_C@_1M@LEEGFONL@?$AAe?$AAs?$AA?9?$AAc?$AAl@ 000000018002ddd8     libucrt:lcidtoname_downlevel.obj
 0002:00007de8       ??_C@_1M@KGPDPBDF@?$AAe?$AAs?$AA?9?$AAc?$AAo@ 000000018002dde8     libucrt:lcidtoname_downlevel.obj
 0002:00007df8       ??_C@_1M@EIAHOHH@?$AAe?$AAs?$AA?9?$AAc?$AAr@ 000000018002ddf8     libucrt:lcidtoname_downlevel.obj
 0002:00007e08       ??_C@_1M@LLPGMBIN@?$AAe?$AAs?$AA?9?$AAd?$AAo@ 000000018002de08     libucrt:lcidtoname_downlevel.obj
 0002:00007e18       ??_C@_1M@DKHMKNJA@?$AAe?$AAs?$AA?9?$AAe?$AAc@ 000000018002de18     libucrt:lcidtoname_downlevel.obj
 0002:00007e28       ??_C@_1M@GKGFPKAP@?$AAe?$AAs?$AA?9?$AAe?$AAs@ 000000018002de28     libucrt:lcidtoname_downlevel.obj
 0002:00007e38       ??_C@_1M@LKHKGDLN@?$AAe?$AAs?$AA?9?$AAg?$AAt@ 000000018002de38     libucrt:lcidtoname_downlevel.obj
 0002:00007e48       ??_C@_1M@HEIIGGJD@?$AAe?$AAs?$AA?9?$AAh?$AAn@ 000000018002de48     libucrt:lcidtoname_downlevel.obj
 0002:00007e58       ??_C@_1M@FBDHPPGD@?$AAe?$AAs?$AA?9?$AAm?$AAx@ 000000018002de58     libucrt:lcidtoname_downlevel.obj
 0002:00007e68       ??_C@_1M@DPAGLNDH@?$AAe?$AAs?$AA?9?$AAn?$AAi@ 000000018002de68     libucrt:lcidtoname_downlevel.obj
 0002:00007e78       ??_C@_1M@MDGOPGDD@?$AAe?$AAs?$AA?9?$AAp?$AAa@ 000000018002de78     libucrt:lcidtoname_downlevel.obj
 0002:00007e88       ??_C@_1M@EMAMGBGE@?$AAe?$AAs?$AA?9?$AAp?$AAe@ 000000018002de88     libucrt:lcidtoname_downlevel.obj
 0002:00007e98       ??_C@_1M@IBMCAOEC@?$AAe?$AAs?$AA?9?$AAp?$AAr@ 000000018002de98     libucrt:lcidtoname_downlevel.obj
 0002:00007ea8       ??_C@_1M@FGMDIJED@?$AAe?$AAs?$AA?9?$AAp?$AAy@ 000000018002dea8     libucrt:lcidtoname_downlevel.obj
 0002:00007eb8       ??_C@_1M@IIDEOLLL@?$AAe?$AAs?$AA?9?$AAs?$AAv@ 000000018002deb8     libucrt:lcidtoname_downlevel.obj
 0002:00007ec8       ??_C@_1M@GAOBIPA@?$AAe?$AAs?$AA?9?$AAu?$AAy@ 000000018002dec8     libucrt:lcidtoname_downlevel.obj
 0002:00007ed8       ??_C@_1M@JKFFICHJ@?$AAe?$AAs?$AA?9?$AAv?$AAe@ 000000018002ded8     libucrt:lcidtoname_downlevel.obj
 0002:00007ee8       ??_C@_1M@PNMLOJDF@?$AAe?$AAt?$AA?9?$AAe?$AAe@ 000000018002dee8     libucrt:lcidtoname_downlevel.obj
 0002:00007ef8       ??_C@_1M@GHHLIKEI@?$AAe?$AAu?$AA?9?$AAe?$AAs@ 000000018002def8     libucrt:lcidtoname_downlevel.obj
 0002:00007f08       ??_C@_1M@PBNONODE@?$AAf?$AAa?$AA?9?$AAi?$AAr@ 000000018002df08     libucrt:lcidtoname_downlevel.obj
 0002:00007f18       ??_C@_1M@JEEHPMIL@?$AAf?$AAi?$AA?9?$AAf?$AAi@ 000000018002df18     libucrt:lcidtoname_downlevel.obj
 0002:00007f28       ??_C@_1M@LMDCNDBA@?$AAf?$AAo?$AA?9?$AAf?$AAo@ 000000018002df28     libucrt:lcidtoname_downlevel.obj
 0002:00007f38       ??_C@_1M@JKEOHLDK@?$AAf?$AAr?$AA?9?$AAb?$AAe@ 000000018002df38     libucrt:lcidtoname_downlevel.obj
 0002:00007f48       ??_C@_1M@NOHADPMI@?$AAf?$AAr?$AA?9?$AAc?$AAa@ 000000018002df48     libucrt:lcidtoname_downlevel.obj
 0002:00007f58       ??_C@_1M@KDHIHAEC@?$AAf?$AAr?$AA?9?$AAc?$AAh@ 000000018002df58     libucrt:lcidtoname_downlevel.obj
 0002:00007f68       ??_C@_1M@MMBBFGAK@?$AAf?$AAr?$AA?9?$AAf?$AAr@ 000000018002df68     libucrt:lcidtoname_downlevel.obj
 0002:00007f78       ??_C@_1M@PAFNENNF@?$AAf?$AAr?$AA?9?$AAl?$AAu@ 000000018002df78     libucrt:lcidtoname_downlevel.obj
 0002:00007f88       ??_C@_1M@EOHDJGDD@?$AAf?$AAr?$AA?9?$AAm?$AAc@ 000000018002df88     libucrt:lcidtoname_downlevel.obj
 0002:00007f98       ??_C@_1M@FAPLLOPF@?$AAg?$AAl?$AA?9?$AAe?$AAs@ 000000018002df98     libucrt:lcidtoname_downlevel.obj
 0002:00007fa8       ??_C@_1M@FOPBFLOO@?$AAg?$AAu?$AA?9?$AAi?$AAn@ 000000018002dfa8     libucrt:lcidtoname_downlevel.obj
 0002:00007fb8       ??_C@_1M@KBMCINPM@?$AAh?$AAe?$AA?9?$AAi?$AAl@ 000000018002dfb8     libucrt:lcidtoname_downlevel.obj
 0002:00007fc8       ??_C@_1M@BBPHKFPJ@?$AAh?$AAi?$AA?9?$AAi?$AAn@ 000000018002dfc8     libucrt:lcidtoname_downlevel.obj
 0002:00007fd8       ??_C@_1M@PMBNDPHD@?$AAh?$AAr?$AA?9?$AAb?$AAa@ 000000018002dfd8     libucrt:lcidtoname_downlevel.obj
 0002:00007fe8       ??_C@_1M@BPCKOEGE@?$AAh?$AAr?$AA?9?$AAh?$AAr@ 000000018002dfe8     libucrt:lcidtoname_downlevel.obj
 0002:00007ff8       ??_C@_1M@GACBMHKE@?$AAh?$AAu?$AA?9?$AAh?$AAu@ 000000018002dff8     libucrt:lcidtoname_downlevel.obj
 0002:00008008       ??_C@_1M@MILPAJJC@?$AAh?$AAy?$AA?9?$AAa?$AAm@ 000000018002e008     libucrt:lcidtoname_downlevel.obj
 0002:00008018       ??_C@_1M@BABBICEC@?$AAi?$AAd?$AA?9?$AAi?$AAd@ 000000018002e018     libucrt:lcidtoname_downlevel.obj
 0002:00008028       ??_C@_1M@BIKNHHPF@?$AAi?$AAs?$AA?9?$AAi?$AAs@ 000000018002e028     libucrt:lcidtoname_downlevel.obj
 0002:00008038       ??_C@_1M@NMPCJPHE@?$AAi?$AAt?$AA?9?$AAc?$AAh@ 000000018002e038     libucrt:lcidtoname_downlevel.obj
 0002:00008048       ??_C@_1M@GHKGFEDF@?$AAi?$AAt?$AA?9?$AAi?$AAt@ 000000018002e048     libucrt:lcidtoname_downlevel.obj
 0002:00008058       ??_C@_1M@NIEJCJJA@?$AAj?$AAa?$AA?9?$AAj?$AAp@ 000000018002e058     libucrt:lcidtoname_downlevel.obj
 0002:00008068       ??_C@_1M@JILFNBIM@?$AAk?$AAa?$AA?9?$AAg?$AAe@ 000000018002e068     libucrt:lcidtoname_downlevel.obj
 0002:00008078       ??_C@_1M@PACPMGPH@?$AAk?$AAk?$AA?9?$AAk?$AAz@ 000000018002e078     libucrt:lcidtoname_downlevel.obj
 0002:00008088       ??_C@_1M@IELFGMHA@?$AAk?$AAn?$AA?9?$AAi?$AAn@ 000000018002e088     libucrt:lcidtoname_downlevel.obj
 0002:00008098       ??_C@_1O@IBBJHCH@?$AAk?$AAo?$AAk?$AA?9?$AAi?$AAn@ 000000018002e098     libucrt:lcidtoname_downlevel.obj
 0002:000080a8       ??_C@_1M@DMHAEOGC@?$AAk?$AAo?$AA?9?$AAk?$AAr@ 000000018002e0a8     libucrt:lcidtoname_downlevel.obj
 0002:000080b8       ??_C@_1M@HBAHBIGA@?$AAk?$AAy?$AA?9?$AAk?$AAg@ 000000018002e0b8     libucrt:lcidtoname_downlevel.obj
 0002:000080c8       ??_C@_1M@KPMILCJG@?$AAl?$AAt?$AA?9?$AAl?$AAt@ 000000018002e0c8     libucrt:lcidtoname_downlevel.obj
 0002:000080d8       ??_C@_1M@BDEKKCA@?$AAl?$AAv?$AA?9?$AAl?$AAv@ 000000018002e0d8     libucrt:lcidtoname_downlevel.obj
 0002:000080e8       ??_C@_1M@ELCKCCJJ@?$AAm?$AAi?$AA?9?$AAn?$AAz@ 000000018002e0e8     libucrt:lcidtoname_downlevel.obj
 0002:000080f8       ??_C@_1M@CBOOLAPA@?$AAm?$AAk?$AA?9?$AAm?$AAk@ 000000018002e0f8     libucrt:lcidtoname_downlevel.obj
 0002:00008108       ??_C@_1M@GPHNBJKN@?$AAm?$AAl?$AA?9?$AAi?$AAn@ 000000018002e108     libucrt:lcidtoname_downlevel.obj
 0002:00008118       ??_C@_1M@PABJILIG@?$AAm?$AAn?$AA?9?$AAm?$AAn@ 000000018002e118     libucrt:lcidtoname_downlevel.obj
 0002:00008128       ??_C@_1M@FGBKKIPG@?$AAm?$AAr?$AA?9?$AAi?$AAn@ 000000018002e128     libucrt:lcidtoname_downlevel.obj
 0002:00008138       ??_C@_1M@NDBPDDAL@?$AAm?$AAs?$AA?9?$AAb?$AAn@ 000000018002e138     libucrt:lcidtoname_downlevel.obj
 0002:00008148       ??_C@_1M@OPIHOOPI@?$AAm?$AAs?$AA?9?$AAm?$AAy@ 000000018002e148     libucrt:lcidtoname_downlevel.obj
 0002:00008158       ??_C@_1M@PPDBCNFM@?$AAm?$AAt?$AA?9?$AAm?$AAt@ 000000018002e158     libucrt:lcidtoname_downlevel.obj
 0002:00008168       ??_C@_1M@KDJDKMDD@?$AAn?$AAb?$AA?9?$AAn?$AAo@ 000000018002e168     libucrt:lcidtoname_downlevel.obj
 0002:00008178       ??_C@_1M@KFCFLMJP@?$AAn?$AAl?$AA?9?$AAb?$AAe@ 000000018002e178     libucrt:lcidtoname_downlevel.obj
 0002:00008188       ??_C@_1M@KPOPDDGO@?$AAn?$AAl?$AA?9?$AAn?$AAl@ 000000018002e188     libucrt:lcidtoname_downlevel.obj
 0002:00008198       ??_C@_1M@LJKPEMLN@?$AAn?$AAn?$AA?9?$AAn?$AAo@ 000000018002e198     libucrt:lcidtoname_downlevel.obj
 0002:000081a8       ??_C@_1M@BDGHHBFL@?$AAn?$AAs?$AA?9?$AAz?$AAa@ 000000018002e1a8     libucrt:lcidtoname_downlevel.obj
 0002:000081b8       ??_C@_1M@IDEHOAP@?$AAp?$AAa?$AA?9?$AAi?$AAn@ 000000018002e1b8     libucrt:lcidtoname_downlevel.obj
 0002:000081c8       ??_C@_1M@HDBKGOGH@?$AAp?$AAl?$AA?9?$AAp?$AAl@ 000000018002e1c8     libucrt:lcidtoname_downlevel.obj
 0002:000081d8       ??_C@_1M@LJLLCMEH@?$AAp?$AAt?$AA?9?$AAb?$AAr@ 000000018002e1d8     libucrt:lcidtoname_downlevel.obj
 0002:000081e8       ??_C@_1M@NCMONAAL@?$AAp?$AAt?$AA?9?$AAp?$AAt@ 000000018002e1e8     libucrt:lcidtoname_downlevel.obj
 0002:000081f8       ??_C@_1O@EAKMAJDN@?$AAq?$AAu?$AAz?$AA?9?$AAb?$AAo@ 000000018002e1f8     libucrt:lcidtoname_downlevel.obj
 0002:00008208       ??_C@_1O@BHHPIGDN@?$AAq?$AAu?$AAz?$AA?9?$AAe?$AAc@ 000000018002e208     libucrt:lcidtoname_downlevel.obj
 0002:00008218       ??_C@_1O@GBAPEKMJ@?$AAq?$AAu?$AAz?$AA?9?$AAp?$AAe@ 000000018002e218     libucrt:lcidtoname_downlevel.obj
 0002:00008228       ??_C@_1M@CLGLEFBO@?$AAr?$AAo?$AA?9?$AAr?$AAo@ 000000018002e228     libucrt:lcidtoname_downlevel.obj
 0002:00008238       ??_C@_1M@CEEDODME@?$AAr?$AAu?$AA?9?$AAr?$AAu@ 000000018002e238     libucrt:lcidtoname_downlevel.obj
 0002:00008248       ??_C@_1M@HPKKKMPP@?$AAs?$AAa?$AA?9?$AAi?$AAn@ 000000018002e248     libucrt:lcidtoname_downlevel.obj
 0002:00008258       ??_C@_1M@BKMAIGOJ@?$AAs?$AAe?$AA?9?$AAf?$AAi@ 000000018002e258     libucrt:lcidtoname_downlevel.obj
 0002:00008268       ??_C@_1M@NDPIFLFI@?$AAs?$AAe?$AA?9?$AAn?$AAo@ 000000018002e268     libucrt:lcidtoname_downlevel.obj
 0002:00008278       ??_C@_1M@DANKKHJ@?$AAs?$AAe?$AA?9?$AAs?$AAe@ 000000018002e278     libucrt:lcidtoname_downlevel.obj
 0002:00008288       ??_C@_1M@PNBLONPJ@?$AAs?$AAk?$AA?9?$AAs?$AAk@ 000000018002e288     libucrt:lcidtoname_downlevel.obj
 0002:00008298       ??_C@_1M@LFMODOAL@?$AAs?$AAl?$AA?9?$AAs?$AAi@ 000000018002e298     libucrt:lcidtoname_downlevel.obj
 0002:000082a8       ??_C@_1O@DFKOMPG@?$AAs?$AAm?$AAa?$AA?9?$AAn?$AAo@ 000000018002e2a8     libucrt:lcidtoname_downlevel.obj
 0002:000082b8       ??_C@_1O@NDKPBNNH@?$AAs?$AAm?$AAa?$AA?9?$AAs?$AAe@ 000000018002e2b8     libucrt:lcidtoname_downlevel.obj
 0002:000082c8       ??_C@_1O@PLLKBHAB@?$AAs?$AAm?$AAj?$AA?9?$AAn?$AAo@ 000000018002e2c8     libucrt:lcidtoname_downlevel.obj
 0002:000082d8       ??_C@_1O@CLEPOGCA@?$AAs?$AAm?$AAj?$AA?9?$AAs?$AAe@ 000000018002e2d8     libucrt:lcidtoname_downlevel.obj
 0002:000082e8       ??_C@_1O@DLGJGKMK@?$AAs?$AAm?$AAn?$AA?9?$AAf?$AAi@ 000000018002e2e8     libucrt:lcidtoname_downlevel.obj
 0002:000082f8       ??_C@_1O@OJDJGAJC@?$AAs?$AAm?$AAs?$AA?9?$AAf?$AAi@ 000000018002e2f8     libucrt:lcidtoname_downlevel.obj
 0002:00008308       ??_C@_1M@BOFOGHPB@?$AAs?$AAq?$AA?9?$AAa?$AAl@ 000000018002e308     libucrt:lcidtoname_downlevel.obj
 0002:00008318       ??_C@_1BG@LJBBIPGB@?$AAs?$AAr?$AA?9?$AAb?$AAa?$AA?9?$AAc?$AAy?$AAr?$AAl@ 000000018002e318     libucrt:lcidtoname_downlevel.obj
 0002:00008330       ??_C@_1BG@JLBENFOE@?$AAs?$AAr?$AA?9?$AAb?$AAa?$AA?9?$AAl?$AAa?$AAt?$AAn@ 000000018002e330     libucrt:lcidtoname_downlevel.obj
 0002:00008348       ??_C@_1BG@KODPNHE@?$AAs?$AAr?$AA?9?$AAs?$AAp?$AA?9?$AAc?$AAy?$AAr?$AAl@ 000000018002e348     libucrt:lcidtoname_downlevel.obj
 0002:00008360       ??_C@_1BG@CIOGKHPB@?$AAs?$AAr?$AA?9?$AAs?$AAp?$AA?9?$AAl?$AAa?$AAt?$AAn@ 000000018002e360     libucrt:lcidtoname_downlevel.obj
 0002:00008378       ??_C@_1M@NGFJLMAC@?$AAs?$AAv?$AA?9?$AAf?$AAi@ 000000018002e378     libucrt:lcidtoname_downlevel.obj
 0002:00008388       ??_C@_1M@MPJEJAJC@?$AAs?$AAv?$AA?9?$AAs?$AAe@ 000000018002e388     libucrt:lcidtoname_downlevel.obj
 0002:00008398       ??_C@_1M@MPNDHLFK@?$AAs?$AAw?$AA?9?$AAk?$AAe@ 000000018002e398     libucrt:lcidtoname_downlevel.obj
 0002:000083a8       ??_C@_1O@KOHBJJI@?$AAs?$AAy?$AAr?$AA?9?$AAs?$AAy@ 000000018002e3a8     libucrt:lcidtoname_downlevel.obj
 0002:000083b8       ??_C@_1M@LDCEFHA@?$AAt?$AAa?$AA?9?$AAi?$AAn@ 000000018002e3b8     libucrt:lcidtoname_downlevel.obj
 0002:000083c8       ??_C@_1M@CNJOFAK@?$AAt?$AAe?$AA?9?$AAi?$AAn@ 000000018002e3c8     libucrt:lcidtoname_downlevel.obj
 0002:000083d8       ??_C@_1M@GNAECACD@?$AAt?$AAh?$AA?9?$AAt?$AAh@ 000000018002e3d8     libucrt:lcidtoname_downlevel.obj
 0002:000083e8       ??_C@_1M@CHBIHOJO@?$AAt?$AAn?$AA?9?$AAz?$AAa@ 000000018002e3e8     libucrt:lcidtoname_downlevel.obj
 0002:000083f8       ??_C@_1M@GCCMIGPJ@?$AAt?$AAr?$AA?9?$AAt?$AAr@ 000000018002e3f8     libucrt:lcidtoname_downlevel.obj
 0002:00008408       ??_C@_1M@CELMCNBK@?$AAt?$AAt?$AA?9?$AAr?$AAu@ 000000018002e408     libucrt:lcidtoname_downlevel.obj
 0002:00008418       ??_C@_1M@KLMCELGA@?$AAu?$AAk?$AA?9?$AAu?$AAa@ 000000018002e418     libucrt:lcidtoname_downlevel.obj
 0002:00008428       ??_C@_1M@EPAJJAJF@?$AAu?$AAr?$AA?9?$AAp?$AAk@ 000000018002e428     libucrt:lcidtoname_downlevel.obj
 0002:00008438       ??_C@_1BG@GEGPMCDJ@?$AAu?$AAz?$AA?9?$AAu?$AAz?$AA?9?$AAc?$AAy?$AAr?$AAl@ 000000018002e438     libucrt:lcidtoname_downlevel.obj
 0002:00008450       ??_C@_1BG@EGGKJILM@?$AAu?$AAz?$AA?9?$AAu?$AAz?$AA?9?$AAl?$AAa?$AAt?$AAn@ 000000018002e450     libucrt:lcidtoname_downlevel.obj
 0002:00008468       ??_C@_1M@GFOCLFF@?$AAv?$AAi?$AA?9?$AAv?$AAn@ 000000018002e468     libucrt:lcidtoname_downlevel.obj
 0002:00008478       ??_C@_1M@CPAMEDFI@?$AAx?$AAh?$AA?9?$AAz?$AAa@ 000000018002e478     libucrt:lcidtoname_downlevel.obj
 0002:00008488       ??_C@_1O@EBKIFIGN@?$AAz?$AAh?$AA?9?$AAc?$AAh?$AAs@ 000000018002e488     libucrt:lcidtoname_downlevel.obj
 0002:00008498       ??_C@_1O@NMHPGANE@?$AAz?$AAh?$AA?9?$AAc?$AAh?$AAt@ 000000018002e498     libucrt:lcidtoname_downlevel.obj
 0002:000084a8       ??_C@_1M@LPINJOMC@?$AAz?$AAh?$AA?9?$AAc?$AAn@ 000000018002e4a8     libucrt:lcidtoname_downlevel.obj
 0002:000084b8       ??_C@_1M@OCJEJODD@?$AAz?$AAh?$AA?9?$AAh?$AAk@ 000000018002e4b8     libucrt:lcidtoname_downlevel.obj
 0002:000084c8       ??_C@_1M@DNDLJINH@?$AAz?$AAh?$AA?9?$AAm?$AAo@ 000000018002e4c8     libucrt:lcidtoname_downlevel.obj
 0002:000084d8       ??_C@_1M@MBFDNDND@?$AAz?$AAh?$AA?9?$AAs?$AAg@ 000000018002e4d8     libucrt:lcidtoname_downlevel.obj
 0002:000084e8       ??_C@_1M@IMEPLEPE@?$AAz?$AAh?$AA?9?$AAt?$AAw@ 000000018002e4e8     libucrt:lcidtoname_downlevel.obj
 0002:000084f8       ??_C@_1M@BBGHNHJP@?$AAz?$AAu?$AA?9?$AAz?$AAa@ 000000018002e4f8     libucrt:lcidtoname_downlevel.obj
 0002:00008510       ?large_power_data@?1??multiply_by_power_of_ten@__crt_strtox@@YA_NAEAUbig_integer@2@I@Z@4QBIB 000000018002e510     libucrt:cfout.obj
 0002:00008e20       ?large_power_indices@?1??multiply_by_power_of_ten@__crt_strtox@@YA_NAEAUbig_integer@2@I@Z@4QBUunpack_index@?1??12@YA_N0I@Z@B 000000018002ee20     libucrt:cfout.obj
 0002:00008eb8       ?small_powers_of_ten@?1??multiply_by_power_of_ten@__crt_strtox@@YA_NAEAUbig_integer@2@I@Z@4QBIB 000000018002eeb8     libucrt:cfout.obj
 0002:00008edc       ??_C@_01GBGANLPD@0@        000000018002eedc     libucrt:cfout.obj
 0002:00008ee0       ??_C@_05DNEBIAHO@1?$CDINF@ 000000018002eee0     libucrt:cfout.obj
 0002:00008ee8       ??_C@_06IMKFLFPG@1?$CDQNAN@ 000000018002eee8     libucrt:cfout.obj
 0002:00008ef0       ??_C@_06PGGFOGJG@1?$CDSNAN@ 000000018002eef0     libucrt:cfout.obj
 0002:00008ef8       ??_C@_05PHHOCPM@1?$CDIND@  000000018002eef8     libucrt:cfout.obj
 0002:00008f28       __real@3ff0000000000000    000000018002ef28     libucrt:ceil.obj
 0002:00009180       __log10_256_lead           000000018002f180     libucrt:log10_256_lead_tail_table.obj
 0002:00009990       __log10_256_tail           000000018002f990     libucrt:log10_256_lead_tail_table.obj
 0002:0000a1a0       __log_F_inv_qword          00000001800301a0     libucrt:log_f_inv_qword_table.obj
 0002:0000a9b0       ??_C@_05HGHHAHAP@log10@    00000001800309b0     libucrt:log_special.obj
 0002:0000a9b8       ??_C@_1BA@BALFACEM@?$AAC?$AAO?$AAN?$AAO?$AAU?$AAT?$AA$@ 00000001800309b8     libucrt:initcon.obj
 0002:0000aa40       _load_config_used          0000000180030a40     LIBCMT:loadcfg.obj
 0002:0000ab80       _tls_used                  0000000180030b80     LIBCMT:tlssup.obj
 0002:0000aba8       ??_R4exception@std@@6B@    0000000180030ba8     LIBCMT:throw_bad_alloc.obj
 0002:0000abd0       ??_R3exception@std@@8      0000000180030bd0     LIBCMT:throw_bad_alloc.obj
 0002:0000abe8       ??_R2exception@std@@8      0000000180030be8     LIBCMT:throw_bad_alloc.obj
 0002:0000abf8       ??_R1A@?0A@EA@exception@std@@8 0000000180030bf8     LIBCMT:throw_bad_alloc.obj
 0002:0000ac20       ??_R4bad_alloc@std@@6B@    0000000180030c20     LIBCMT:throw_bad_alloc.obj
 0002:0000ac48       ??_R3bad_alloc@std@@8      0000000180030c48     LIBCMT:throw_bad_alloc.obj
 0002:0000ac60       ??_R2bad_alloc@std@@8      0000000180030c60     LIBCMT:throw_bad_alloc.obj
 0002:0000ac78       ??_R1A@?0A@EA@bad_alloc@std@@8 0000000180030c78     LIBCMT:throw_bad_alloc.obj
 0002:0000aca0       ??_R4bad_array_new_length@std@@6B@ 0000000180030ca0     LIBCMT:throw_bad_alloc.obj
 0002:0000acc8       ??_R3bad_array_new_length@std@@8 0000000180030cc8     LIBCMT:throw_bad_alloc.obj
 0002:0000ace0       ??_R2bad_array_new_length@std@@8 0000000180030ce0     LIBCMT:throw_bad_alloc.obj
 0002:0000ad00       ??_R1A@?0A@EA@bad_array_new_length@std@@8 0000000180030d00     LIBCMT:throw_bad_alloc.obj
 0002:0000ad28       ??_R4type_info@@6B@        0000000180030d28     LIBCMT:std_type_info_static.obj
 0002:0000ad50       ??_R3type_info@@8          0000000180030d50     LIBCMT:std_type_info_static.obj
 0002:0000ad68       ??_R2type_info@@8          0000000180030d68     LIBCMT:std_type_info_static.obj
 0002:0000ad78       ??_R1A@?0A@EA@type_info@@8 0000000180030d78     LIBCMT:std_type_info_static.obj
 0002:0000ada0       ??_R4bad_exception@std@@6B@ 0000000180030da0     libvcruntime:frame.obj
 0002:0000adc8       ??_R3bad_exception@std@@8  0000000180030dc8     libvcruntime:frame.obj
 0002:0000ade0       ??_R2bad_exception@std@@8  0000000180030de0     libvcruntime:frame.obj
 0002:0000adf8       ??_R1A@?0A@EA@bad_exception@std@@8 0000000180030df8     libvcruntime:frame.obj
 0002:0000ae1c       __volatile_metadata        0000000180030e1c     <linker-defined>
 0002:0000b2a0       __rtc_iaa                  00000001800312a0     LIBCMT:initsect.obj
 0002:0000b2a8       __rtc_izz                  00000001800312a8     LIBCMT:initsect.obj
 0002:0000b2b0       __rtc_taa                  00000001800312b0     LIBCMT:initsect.obj
 0002:0000b2b8       __rtc_tzz                  00000001800312b8     LIBCMT:initsect.obj
 0002:0000b2c0       _tls_start                 00000001800312c0     LIBCMT:tlssup.obj
 0002:0000b2c4       _Init_thread_epoch         00000001800312c4     LIBCMT:thread_safe_statics.obj
 0002:0000b2c8       _tls_end                   00000001800312c8     LIBCMT:tlssup.obj
 0002:0000cc10       _TI2?AVbad_alloc@std@@     0000000180032c10     LIBCMT:throw_bad_alloc.obj
 0002:0000cc30       _CTA2?AVbad_alloc@std@@    0000000180032c30     LIBCMT:throw_bad_alloc.obj
 0002:0000cc48       _CT??_R0?AVbad_alloc@std@@@8??0bad_alloc@std@@QEAA@AEBV01@@Z24 0000000180032c48     LIBCMT:throw_bad_alloc.obj
 0002:0000cc70       _CT??_R0?AVexception@std@@@8??0exception@std@@QEAA@AEBV01@@Z24 0000000180032c70     LIBCMT:throw_bad_alloc.obj
 0002:0000cc98       _TI3?AVbad_array_new_length@std@@ 0000000180032c98     LIBCMT:throw_bad_alloc.obj
 0002:0000ccb8       _CTA3?AVbad_array_new_length@std@@ 0000000180032cb8     LIBCMT:throw_bad_alloc.obj
 0002:0000ccd8       _CT??_R0?AVbad_array_new_length@std@@@8??0bad_array_new_length@std@@QEAA@AEBV01@@Z24 0000000180032cd8     LIBCMT:throw_bad_alloc.obj
 0002:0000cd00       _TI2?AVbad_exception@std@@ 0000000180032d00     libvcruntime:frame.obj
 0002:0000cd20       _CTA2?AVbad_exception@std@@ 0000000180032d20     libvcruntime:frame.obj
 0002:0000cd38       _CT??_R0?AVbad_exception@std@@@8??0bad_exception@std@@QEAA@AEBV01@@Z24 0000000180032d38     libvcruntime:frame.obj
 0002:0000cd60       __pobjMapEntryFirst        0000000180032d60     OposVariant.obj
 0002:0000cd68       __pobjMapEntryLast         0000000180032d68     OposVariant.obj
 0002:0000ce24       __IMPORT_DESCRIPTOR_KERNEL32 0000000180032e24     kernel32:KERNEL32.dll
 0002:0000ce38       __IMPORT_DESCRIPTOR_USER32 0000000180032e38     user32:USER32.dll
 0002:0000ce4c       __IMPORT_DESCRIPTOR_GDI32  0000000180032e4c     gdi32:GDI32.dll
 0002:0000ce60       __IMPORT_DESCRIPTOR_ADVAPI32 0000000180032e60     advapi32:ADVAPI32.dll
 0002:0000ce74       __IMPORT_DESCRIPTOR_ole32  0000000180032e74     ole32:ole32.dll
 0002:0000ce88       __IMPORT_DESCRIPTOR_OLEAUT32 0000000180032e88     oleaut32:OLEAUT32.dll
 0002:0000ce9c       __NULL_IMPORT_DESCRIPTOR   0000000180032e9c     kernel32:KERNEL32.dll
 0003:00000000       ?rcDefault@CWindow@ATL@@2UtagRECT@@A 0000000180035000     VoiceRecognition.obj
 0003:00000010       ?s_Claim@?7??GetIDsOfNames@CComTypeInfoHolder@ATL@@QEAAJAEBU_GUID@@PEAPEA_WIKPEAJ@Z@4PA_WA 0000000180035010     VoiceRecognition.obj
 0003:00000028       ?s_Release@?7??GetIDsOfNames@CComTypeInfoHolder@ATL@@QEAAJAEBU_GUID@@PEAPEA_WIKPEAJ@Z@4PA_WA 0000000180035028     VoiceRecognition.obj
 0003:00000048       ?_tih@?$IDispatchImpl@UIOPOSVoiceRecognition@@$1?IID_IOPOSVoiceRecognition@@3U_GUID@@B$1?LIBID_OposVoiceRecognition_CCO@@3U3@B$00$0A@VCComTypeInfoHolder@ATL@@@ATL@@1VCComTypeInfoHolder@2@A 0000000180035048     VoiceRecognition.obj
 0003:00000080       ?_tih@?$IProvideClassInfo2Impl@$1?CLSID_OPOSVoiceRecognition@@3U_GUID@@B$1?DIID__IOPOSVoiceRecognitionEvents@@3U2@B$1?LIBID_OposVoiceRecognition_CCO@@3U2@B$00$0A@VCComTypeInfoHolder@ATL@@@ATL@@1VCComTypeInfoHolder@2@A 0000000180035080     VoiceRecognition.obj
 0003:000000b8       ?vszContents@?6??Save@?$IPersistStorageImpl@VCOPOSVoiceRecognition@@@ATL@@UEAAJPEAUIStorage@@H@Z@4PEB_WEB 00000001800350b8     VoiceRecognition.obj
 0003:000000c0       ?wc@?1??GetWndClassInfo@?$CWindowImpl@VCOPOSVoiceRecognition@@VCWindow@ATL@@V?$CWinTraits@$0FGAAAAAA@$0A@@3@@ATL@@SAAEAU_ATL_WNDCLASSINFOW@3@XZ@4U43@A 00000001800350c0     VoiceRecognition.obj
 0003:00000250       ?g_WindowName@@3PA_WA      0000000180035250     VoiceRecognitionImpl.obj
 0003:00000280       ?g_ControlDescription@@3PADA 0000000180035280     VoiceRecognitionImpl.obj
 0003:000002b8       ?g_ControlVersion@@3JA     00000001800352b8     VoiceRecognitionImpl.obj
 0003:00000380       __scrt_native_dllmain_reason 0000000180035380     LIBCMT:utility.obj
 0003:00000384       _Init_global_epoch         0000000180035384     LIBCMT:thread_safe_statics.obj
 0003:00000390       __security_cookie          0000000180035390     LIBCMT:gs_cookie.obj
 0003:00000398       __security_cookie_complement 0000000180035398     LIBCMT:gs_cookie.obj
 0003:000003a0       __isa_available            00000001800353a0     LIBCMT:cpu_disp.obj
 0003:000003a4       __isa_enabled              00000001800353a4     LIBCMT:cpu_disp.obj
 0003:000003a8       __memcpy_nt_iters          00000001800353a8     LIBCMT:cpu_disp.obj
 0003:000003b0       __memset_nt_iters          00000001800353b0     LIBCMT:cpu_disp.obj
 0003:000003d8       __abort_behavior           00000001800353d8     libucrt:abort.obj
 0003:000003f0       __acrt_initial_locale_data 00000001800353f0     libucrt:nlsdata.obj
 0003:00000548       __acrt_initial_locale_pointers 0000000180035548     libucrt:nlsdata.obj
 0003:00000558       __acrt_wide_c_locale_string 0000000180035558     libucrt:nlsdata.obj
 0003:00000560       _iob                       0000000180035560     libucrt:_file.obj
 0003:00000670       __acrt_initial_multibyte_data 0000000180035670     libucrt:mbctype.obj
 0003:00000bb0       __acrt_lconv_c             0000000180035bb0     libucrt:localeconv.obj
 0003:00000c48       __acrt_lconv_static_decimal 0000000180035c48     libucrt:localeconv.obj
 0003:00000c4c       __acrt_lconv_static_W_decimal 0000000180035c4c     libucrt:localeconv.obj
 0003:00000c50       __globallocalestatus       0000000180035c50     libucrt:glstatus.obj
 0003:00000c60       _lookuptrailbytes          0000000180035c60     libucrt:read.obj
 0003:00000d84       _fltused                   0000000180035d84     LIBCMT:fltused.obj
 0003:00000d88       ??_R0?AVbad_alloc@std@@@8  0000000180035d88     LIBCMT:throw_bad_alloc.obj
 0003:00000db0       ??_R0?AVexception@std@@@8  0000000180035db0     LIBCMT:throw_bad_alloc.obj
 0003:00000dd8       ??_R0?AVbad_array_new_length@std@@@8 0000000180035dd8     LIBCMT:throw_bad_alloc.obj
 0003:00000e08       ??_R0?AVbad_exception@std@@@8 0000000180035e08     libvcruntime:frame.obj
 0003:00000e30       ??_R0?AVtype_info@@@8      0000000180035e30     LIBCMT:std_type_info_static.obj
 0003:00000e50       ?m_bInitFailed@CAtlBaseModule@ATL@@2_NA 0000000180035e50     OposVariant.obj
 0003:00000e58       ?_pPerfRegFunc@ATL@@3P6AJPEAUHINSTANCE__@@@ZEA 0000000180035e58     OposVariant.obj
 0003:00000e60       ?_pPerfUnRegFunc@ATL@@3P6AJXZEA 0000000180035e60     OposVariant.obj
 0003:00000e68       ?_AtlRegisterPerUser@ATL@@3_NA 0000000180035e68     OposVariant.obj
 0003:00000e70       ?_pAtlModule@ATL@@3PEAVCAtlModule@1@EA 0000000180035e70     OposVariant.obj
 0003:00000e78       ?_pModule@ATL@@3PEAVCComModule@1@EA 0000000180035e78     OposVariant.obj
 0003:00000e80       ?_AtlComModule@ATL@@3VCAtlComModule@1@A 0000000180035e80     OposVariant.obj
 0003:00000ed0       ?_AtlWinModule@ATL@@3VCAtlWinModule@1@A 0000000180035ed0     OposVariant.obj
 0003:00000f18       ?m_libid@CAtlModule@ATL@@2U_GUID@@A 0000000180035f18     VoiceRecognition.obj
 0003:00000f28       ?_entries@?1??GetConnMap@COPOSVoiceRecognition@@SAPEBU_ATL_CONNMAP_ENTRY@ATL@@PEAH@Z@4QBU34@B 0000000180035f28     VoiceRecognition.obj
 0003:00000f40       ?$TSS0@?1??GetConnMap@COPOSVoiceRecognition@@SAPEBU_ATL_CONNMAP_ENTRY@ATL@@PEAH@Z@4HA 0000000180035f40     VoiceRecognition.obj
 0003:00000f48       ?_OptionsStorage@?1??__local_stdio_printf_options@@9@4_KA 0000000180035f48     VoiceRecognition.obj
 0003:00000f50       ?pfnRegDeleteKeyEx@?1??DeleteSubKey@CRegKey@ATL@@QEAAJPEB_W@Z@4P6AJPEAUHKEY__@@0KK@ZEA 0000000180035f50     VoiceRecognition.obj
 0003:00000f58       ?bInitialized@?1??DeleteSubKey@CRegKey@ATL@@QEAAJPEB_W@Z@4_NA 0000000180035f58     VoiceRecognition.obj
 0003:00000f60       ?_Module@@3VCComModule@ATL@@A 0000000180035f60     VoiceRecognition.obj
 0003:00000fb0       ?pConnMap@?$IConnectionPointContainerImpl@VCOPOSVoiceRecognition@@@ATL@@0PEBU_ATL_CONNMAP_ENTRY@2@EB 0000000180035fb0     VoiceRecognition.obj
 0003:00000fb8       ?s_nInstances@COPOSVoiceRecognition@@1HA 0000000180035fb8     VoiceRecognitionImpl.obj
 0003:00000fc0       __scrt_current_native_startup_state 0000000180035fc0     LIBCMT:utility.obj
 0003:00000fc8       __scrt_native_startup_lock 0000000180035fc8     LIBCMT:utility.obj
 0003:000015c0       _tls_index                 00000001800365c0     LIBCMT:tlssup.obj
 0003:000015c8       __favor                    00000001800365c8     LIBCMT:cpu_disp.obj
 0003:000015cc       __scrt_debugger_hook_flag  00000001800365cc     LIBCMT:utility_desktop.obj
 0003:000015d0       ?__type_info_root_node@@3U__type_info_node@@A 00000001800365d0     LIBCMT:tncleanup.obj
 0003:000015e0       ?_OptionsStorage@?1??__local_stdio_scanf_options@@9@4_KA 00000001800365e0     LIBCMT:default_local_stdio_options.obj
 0003:000015f0       ?_AtlBaseModule@ATL@@3VCAtlBaseModule@1@A 00000001800365f0     atls:atlbase.obj
 0003:00001650       ?__AtlThunkPool@@3PEAT_SLIST_HEADER@@EA 0000000180036650     atls:atlthunk.obj
 0003:0000167c       __@@_PchSym_@00@UzABUPdlipUCAUhUrmgvinvwrzgvUexgllohUzgohOmzgrevkilqPBACIAJCBDBUlyqiUznwGEUhgwzucOlyq@4B2008FD98C1DD4 000000018003667c     atls:stdafx.obj
 0003:00001680       ?__WinRTOutOfMemoryExceptionCallback@@3P6APEAXXZEA 0000000180036680     libvcruntime:ehhelpers.obj
 0003:00001688       __pPurecall                0000000180036688     libvcruntime:purevirt_data.obj
 0003:00001740       ?pArgList@UnDecorator@@0PEAVReplicator@@EA 0000000180036740     libvcruntime:undname.obj
 0003:00001748       ?pZNameList@UnDecorator@@0PEAVReplicator@@EA 0000000180036748     libvcruntime:undname.obj
 0003:00001750       ?pTemplateArgList@UnDecorator@@0PEAVReplicator@@EA 0000000180036750     libvcruntime:undname.obj
 0003:00001758       ?gName@UnDecorator@@0PEBDEB 0000000180036758     libvcruntime:undname.obj
 0003:00001760       ?name@UnDecorator@@0PEBDEB 0000000180036760     libvcruntime:undname.obj
 0003:00001768       ?disableFlags@UnDecorator@@0KA 0000000180036768     libvcruntime:undname.obj
 0003:0000176c       ?fExplicitTemplateParams@UnDecorator@@0_NA 000000018003676c     libvcruntime:undname.obj
 0003:0000176d       ?fGetTemplateArgumentList@UnDecorator@@0_NA 000000018003676d     libvcruntime:undname.obj
 0003:00001770       ?m_pGetParameter@UnDecorator@@0P6APEADJ@ZEA 0000000180036770     libvcruntime:undname.obj
 0003:00001778       ?m_CHPENameOffset@UnDecorator@@0KA 0000000180036778     libvcruntime:undname.obj
 0003:0000177c       ?m_recursionLevel@UnDecorator@@0KA 000000018003677c     libvcruntime:undname.obj
 0003:00001800       ?c_exit_complete@?1???R<lambda_6e4b09c48022b2350581041d5f6b0c4c>@@QEBA@XZ@4_NA 0000000180036800     libucrt:exit.obj
 0003:00001918       _environ_table             0000000180036918     libucrt:environment_initialization.obj
 0003:00001920       _wenviron_table            0000000180036920     libucrt:environment_initialization.obj
 0003:00001928       __dcrt_initial_wide_environment 0000000180036928     libucrt:environment_initialization.obj
 0003:00001930       __dcrt_initial_narrow_environment 0000000180036930     libucrt:environment_initialization.obj
 0003:00001938       __acrt_atexit_table        0000000180036938     libucrt:onexit.obj
 0003:00001950       __acrt_at_quick_exit_table 0000000180036950     libucrt:onexit.obj
 0003:00001970       __acrt_locale_changed_data 0000000180036970     libucrt:wsetlocale.obj
 0003:00001978       __acrt_current_locale_data 0000000180036978     libucrt:nlsdata.obj
 0003:00001b18       _nstream                   0000000180036b18     libucrt:_file.obj
 0003:00001b20       __piob                     0000000180036b20     libucrt:_file.obj
 0003:00001b30       __acrt_stdout_buffer       0000000180036b30     libucrt:_sftbuf.obj
 0003:00001b38       __acrt_stderr_buffer       0000000180036b38     libucrt:_sftbuf.obj
 0003:00001b40       __pioinfo                  0000000180036b40     libucrt:ioinit.obj
 0003:00001f40       _nhandle                   0000000180036f40     libucrt:ioinit.obj
 0003:00002188       _mbctype                   0000000180037188     libucrt:mbctype.obj
 0003:00002190       _mbcasemap                 0000000180037190     libucrt:mbctype.obj
 0003:00002198       __acrt_current_multibyte_data 0000000180037198     libucrt:mbctype.obj
 0003:000021a8       _pgmptr                    00000001800371a8     libucrt:argv_data.obj
 0003:000021b0       __argc                     00000001800371b0     libucrt:argv_data.obj
 0003:000021b8       __argv                     00000001800371b8     libucrt:argv_data.obj
 0003:000021c0       __wargv                    00000001800371c0     libucrt:argv_data.obj
 0003:000021c8       _acmdln                    00000001800371c8     libucrt:argv_data.obj
 0003:000021d0       _wcmdln                    00000001800371d0     libucrt:argv_data.obj
 0003:000021d8       __acrt_heap                00000001800371d8     libucrt:heap_handle.obj
 0003:00002208       __acrt_lconv_static_null   0000000180037208     libucrt:localeconv.obj
 0003:0000220c       __acrt_lconv_static_W_null 000000018003720c     libucrt:localeconv.obj
 0003:00002224       __fma3_is_available        0000000180037224     libucrt:fma3_available.obj
 0003:00002228       __use_fma3_lib             0000000180037228     libucrt:fma3_available.obj
 0003:00002230       __dyn_tls_init_callback    0000000180037230     <common>
 0003:00002238       __scrt_ucrt_dll_is_in_use  0000000180037238     <common>

 entry point at        0001:0000ee10

 Static symbols

 0000:fffbf000       .debug$S                   0000000180000000     OPOSVoiceRecognition.exp
 0000:fffbf000       .debug$S                   0000000180000000     advapi32:ADVAPI32.dll
 0000:fffbf000       .debug$S                   0000000180000000     advapi32:ADVAPI32.dll
 0000:fffbf000       .debug$S                   0000000180000000     advapi32:ADVAPI32.dll
 0000:fffbf000       .debug$S                   0000000180000000     advapi32:ADVAPI32.dll
 0000:fffbf000       .debug$S                   0000000180000000     advapi32:ADVAPI32.dll
 0000:fffbf000       .debug$S                   0000000180000000     advapi32:ADVAPI32.dll
 0000:fffbf000       .debug$S                   0000000180000000     advapi32:ADVAPI32.dll
 0000:fffbf000       .debug$S                   0000000180000000     advapi32:ADVAPI32.dll
 0000:fffbf000       .debug$S                   0000000180000000     advapi32:ADVAPI32.dll
 0000:fffbf000       .debug$S                   0000000180000000     gdi32:GDI32.dll
 0000:fffbf000       .debug$S                   0000000180000000     gdi32:GDI32.dll
 0000:fffbf000       .debug$S                   0000000180000000     gdi32:GDI32.dll
 0000:fffbf000       .debug$S                   0000000180000000     gdi32:GDI32.dll
 0000:fffbf000       .debug$S                   0000000180000000     gdi32:GDI32.dll
 0000:fffbf000       .debug$S                   0000000180000000     gdi32:GDI32.dll
 0000:fffbf000       .debug$S                   0000000180000000     gdi32:GDI32.dll
 0000:fffbf000       .debug$S                   0000000180000000     gdi32:GDI32.dll
 0000:fffbf000       .debug$S                   0000000180000000     gdi32:GDI32.dll
 0000:fffbf000       .debug$S                   0000000180000000     gdi32:GDI32.dll
 0000:fffbf000       .debug$S                   0000000180000000     gdi32:GDI32.dll
 0000:fffbf000       .debug$S                   0000000180000000     gdi32:GDI32.dll
 0000:fffbf000       .debug$S                   0000000180000000     gdi32:GDI32.dll
 0000:fffbf000       .debug$S                   0000000180000000     gdi32:GDI32.dll
 0000:fffbf000       .debug$S                   0000000180000000     gdi32:GDI32.dll
 0000:fffbf000       .debug$S                   0000000180000000     gdi32:GDI32.dll
 0000:fffbf000       .debug$S                   0000000180000000     gdi32:GDI32.dll
 0000:fffbf000       .debug$S                   0000000180000000     gdi32:GDI32.dll
 0000:fffbf000       .debug$S                   0000000180000000     gdi32:GDI32.dll
 0000:fffbf000       .debug$S                   0000000180000000     kernel32:KERNEL32.dll
 0000:fffbf000       .debug$S                   0000000180000000     kernel32:KERNEL32.dll
 0000:fffbf000       .debug$S                   0000000180000000     kernel32:KERNEL32.dll
 0000:fffbf000       .debug$S                   0000000180000000     kernel32:KERNEL32.dll
 0000:fffbf000       .debug$S                   0000000180000000     kernel32:KERNEL32.dll
 0000:fffbf000       .debug$S                   0000000180000000     kernel32:KERNEL32.dll
 0000:fffbf000       .debug$S                   0000000180000000     kernel32:KERNEL32.dll
 0000:fffbf000       .debug$S                   0000000180000000     kernel32:KERNEL32.dll
 0000:fffbf000       .debug$S                   0000000180000000     kernel32:KERNEL32.dll
 0000:fffbf000       .debug$S                   0000000180000000     kernel32:KERNEL32.dll
 0000:fffbf000       .debug$S                   0000000180000000     kernel32:KERNEL32.dll
 0000:fffbf000       .debug$S                   0000000180000000     kernel32:KERNEL32.dll
 0000:fffbf000       .debug$S                   0000000180000000     kernel32:KERNEL32.dll
 0000:fffbf000       .debug$S                   0000000180000000     kernel32:KERNEL32.dll
 0000:fffbf000       .debug$S                   0000000180000000     kernel32:KERNEL32.dll
 0000:fffbf000       .debug$S                   0000000180000000     kernel32:KERNEL32.dll
 0000:fffbf000       .debug$S                   0000000180000000     kernel32:KERNEL32.dll
 0000:fffbf000       .debug$S                   0000000180000000     kernel32:KERNEL32.dll
 0000:fffbf000       .debug$S                   0000000180000000     kernel32:KERNEL32.dll
 0000:fffbf000       .debug$S                   0000000180000000     kernel32:KERNEL32.dll
 0000:fffbf000       .debug$S                   0000000180000000     kernel32:KERNEL32.dll
 0000:fffbf000       .debug$S                   0000000180000000     kernel32:KERNEL32.dll
 0000:fffbf000       .debug$S                   0000000180000000     kernel32:KERNEL32.dll
 0000:fffbf000       .debug$S                   0000000180000000     kernel32:KERNEL32.dll
 0000:fffbf000       .debug$S                   0000000180000000     kernel32:KERNEL32.dll
 0000:fffbf000       .debug$S                   0000000180000000     kernel32:KERNEL32.dll
 0000:fffbf000       .debug$S                   0000000180000000     kernel32:KERNEL32.dll
 0000:fffbf000       .debug$S                   0000000180000000     kernel32:KERNEL32.dll
 0000:fffbf000       .debug$S                   0000000180000000     kernel32:KERNEL32.dll
 0000:fffbf000       .debug$S                   0000000180000000     kernel32:KERNEL32.dll
 0000:fffbf000       .debug$S                   0000000180000000     kernel32:KERNEL32.dll
 0000:fffbf000       .debug$S                   0000000180000000     kernel32:KERNEL32.dll
 0000:fffbf000       .debug$S                   0000000180000000     kernel32:KERNEL32.dll
 0000:fffbf000       .debug$S                   0000000180000000     kernel32:KERNEL32.dll
 0000:fffbf000       .debug$S                   0000000180000000     kernel32:KERNEL32.dll
 0000:fffbf000       .debug$S                   0000000180000000     kernel32:KERNEL32.dll
 0000:fffbf000       .debug$S                   0000000180000000     kernel32:KERNEL32.dll
 0000:fffbf000       .debug$S                   0000000180000000     kernel32:KERNEL32.dll
 0000:fffbf000       .debug$S                   0000000180000000     kernel32:KERNEL32.dll
 0000:fffbf000       .debug$S                   0000000180000000     kernel32:KERNEL32.dll
 0000:fffbf000       .debug$S                   0000000180000000     kernel32:KERNEL32.dll
 0000:fffbf000       .debug$S                   0000000180000000     kernel32:KERNEL32.dll
 0000:fffbf000       .debug$S                   0000000180000000     kernel32:KERNEL32.dll
 0000:fffbf000       .debug$S                   0000000180000000     kernel32:KERNEL32.dll
 0000:fffbf000       .debug$S                   0000000180000000     kernel32:KERNEL32.dll
 0000:fffbf000       .debug$S                   0000000180000000     kernel32:KERNEL32.dll
 0000:fffbf000       .debug$S                   0000000180000000     kernel32:KERNEL32.dll
 0000:fffbf000       .debug$S                   0000000180000000     kernel32:KERNEL32.dll
 0000:fffbf000       .debug$S                   0000000180000000     kernel32:KERNEL32.dll
 0000:fffbf000       .debug$S                   0000000180000000     kernel32:KERNEL32.dll
 0000:fffbf000       .debug$S                   0000000180000000     kernel32:KERNEL32.dll
 0000:fffbf000       .debug$S                   0000000180000000     kernel32:KERNEL32.dll
 0000:fffbf000       .debug$S                   0000000180000000     kernel32:KERNEL32.dll
 0000:fffbf000       .debug$S                   0000000180000000     kernel32:KERNEL32.dll
 0000:fffbf000       .debug$S                   0000000180000000     kernel32:KERNEL32.dll
 0000:fffbf000       .debug$S                   0000000180000000     kernel32:KERNEL32.dll
 0000:fffbf000       .debug$S                   0000000180000000     kernel32:KERNEL32.dll
 0000:fffbf000       .debug$S                   0000000180000000     kernel32:KERNEL32.dll
 0000:fffbf000       .debug$S                   0000000180000000     kernel32:KERNEL32.dll
 0000:fffbf000       .debug$S                   0000000180000000     kernel32:KERNEL32.dll
 0000:fffbf000       .debug$S                   0000000180000000     kernel32:KERNEL32.dll
 0000:fffbf000       .debug$S                   0000000180000000     kernel32:KERNEL32.dll
 0000:fffbf000       .debug$S                   0000000180000000     kernel32:KERNEL32.dll
 0000:fffbf000       .debug$S                   0000000180000000     kernel32:KERNEL32.dll
 0000:fffbf000       .debug$S                   0000000180000000     kernel32:KERNEL32.dll
 0000:fffbf000       .debug$S                   0000000180000000     kernel32:KERNEL32.dll
 0000:fffbf000       .debug$S                   0000000180000000     kernel32:KERNEL32.dll
 0000:fffbf000       .debug$S                   0000000180000000     kernel32:KERNEL32.dll
 0000:fffbf000       .debug$S                   0000000180000000     kernel32:KERNEL32.dll
 0000:fffbf000       .debug$S                   0000000180000000     kernel32:KERNEL32.dll
 0000:fffbf000       .debug$S                   0000000180000000     kernel32:KERNEL32.dll
 0000:fffbf000       .debug$S                   0000000180000000     kernel32:KERNEL32.dll
 0000:fffbf000       .debug$S                   0000000180000000     kernel32:KERNEL32.dll
 0000:fffbf000       .debug$S                   0000000180000000     kernel32:KERNEL32.dll
 0000:fffbf000       .debug$S                   0000000180000000     kernel32:KERNEL32.dll
 0000:fffbf000       .debug$S                   0000000180000000     kernel32:KERNEL32.dll
 0000:fffbf000       .debug$S                   0000000180000000     kernel32:KERNEL32.dll
 0000:fffbf000       .debug$S                   0000000180000000     kernel32:KERNEL32.dll
 0000:fffbf000       .debug$S                   0000000180000000     kernel32:KERNEL32.dll
 0000:fffbf000       .debug$S                   0000000180000000     kernel32:KERNEL32.dll
 0000:fffbf000       .debug$S                   0000000180000000     kernel32:KERNEL32.dll
 0000:fffbf000       .debug$S                   0000000180000000     kernel32:KERNEL32.dll
 0000:fffbf000       .debug$S                   0000000180000000     kernel32:KERNEL32.dll
 0000:fffbf000       .debug$S                   0000000180000000     kernel32:KERNEL32.dll
 0000:fffbf000       .debug$S                   0000000180000000     kernel32:KERNEL32.dll
 0000:fffbf000       .debug$S                   0000000180000000     kernel32:KERNEL32.dll
 0000:fffbf000       .debug$S                   0000000180000000     kernel32:KERNEL32.dll
 0000:fffbf000       .debug$S                   0000000180000000     kernel32:KERNEL32.dll
 0000:fffbf000       .debug$S                   0000000180000000     kernel32:KERNEL32.dll
 0000:fffbf000       .debug$S                   0000000180000000     kernel32:KERNEL32.dll
 0000:fffbf000       .debug$S                   0000000180000000     kernel32:KERNEL32.dll
 0000:fffbf000       .debug$S                   0000000180000000     kernel32:KERNEL32.dll
 0000:fffbf000       .debug$S                   0000000180000000     kernel32:KERNEL32.dll
 0000:fffbf000       .debug$S                   0000000180000000     kernel32:KERNEL32.dll
 0000:fffbf000       .debug$S                   0000000180000000     kernel32:KERNEL32.dll
 0000:fffbf000       .debug$S                   0000000180000000     kernel32:KERNEL32.dll
 0000:fffbf000       .debug$S                   0000000180000000     kernel32:KERNEL32.dll
 0000:fffbf000       .debug$S                   0000000180000000     kernel32:KERNEL32.dll
 0000:fffbf000       .debug$S                   0000000180000000     kernel32:KERNEL32.dll
 0000:fffbf000       .debug$S                   0000000180000000     kernel32:KERNEL32.dll
 0000:fffbf000       .debug$S                   0000000180000000     kernel32:KERNEL32.dll
 0000:fffbf000       .debug$S                   0000000180000000     kernel32:KERNEL32.dll
 0000:fffbf000       .debug$S                   0000000180000000     kernel32:KERNEL32.dll
 0000:fffbf000       .debug$S                   0000000180000000     kernel32:KERNEL32.dll
 0000:fffbf000       .debug$S                   0000000180000000     kernel32:KERNEL32.dll
 0000:fffbf000       .debug$S                   0000000180000000     kernel32:KERNEL32.dll
 0000:fffbf000       .debug$S                   0000000180000000     kernel32:KERNEL32.dll
 0000:fffbf000       .debug$S                   0000000180000000     kernel32:KERNEL32.dll
 0000:fffbf000       .debug$S                   0000000180000000     kernel32:KERNEL32.dll
 0000:fffbf000       .debug$S                   0000000180000000     kernel32:KERNEL32.dll
 0000:fffbf000       .debug$S                   0000000180000000     kernel32:KERNEL32.dll
 0000:fffbf000       .debug$S                   0000000180000000     kernel32:KERNEL32.dll
 0000:fffbf000       .debug$S                   0000000180000000     kernel32:KERNEL32.dll
 0000:fffbf000       .debug$S                   0000000180000000     kernel32:KERNEL32.dll
 0000:fffbf000       .debug$S                   0000000180000000     kernel32:KERNEL32.dll
 0000:fffbf000       .debug$S                   0000000180000000     ole32:ole32.dll
 0000:fffbf000       .debug$S                   0000000180000000     ole32:ole32.dll
 0000:fffbf000       .debug$S                   0000000180000000     ole32:ole32.dll
 0000:fffbf000       .debug$S                   0000000180000000     ole32:ole32.dll
 0000:fffbf000       .debug$S                   0000000180000000     ole32:ole32.dll
 0000:fffbf000       .debug$S                   0000000180000000     ole32:ole32.dll
 0000:fffbf000       .debug$S                   0000000180000000     ole32:ole32.dll
 0000:fffbf000       .debug$S                   0000000180000000     ole32:ole32.dll
 0000:fffbf000       .debug$S                   0000000180000000     ole32:ole32.dll
 0000:fffbf000       .debug$S                   0000000180000000     ole32:ole32.dll
 0000:fffbf000       .debug$S                   0000000180000000     ole32:ole32.dll
 0000:fffbf000       .debug$S                   0000000180000000     ole32:ole32.dll
 0000:fffbf000       .debug$S                   0000000180000000     ole32:ole32.dll
 0000:fffbf000       .debug$S                   0000000180000000     ole32:ole32.dll
 0000:fffbf000       .debug$S                   0000000180000000     oleaut32:OLEAUT32.dll
 0000:fffbf000       .debug$S                   0000000180000000     oleaut32:OLEAUT32.dll
 0000:fffbf000       .debug$S                   0000000180000000     oleaut32:OLEAUT32.dll
 0000:fffbf000       .debug$S                   0000000180000000     oleaut32:OLEAUT32.dll
 0000:fffbf000       .debug$S                   0000000180000000     oleaut32:OLEAUT32.dll
 0000:fffbf000       .debug$S                   0000000180000000     oleaut32:OLEAUT32.dll
 0000:fffbf000       .debug$S                   0000000180000000     oleaut32:OLEAUT32.dll
 0000:fffbf000       .debug$S                   0000000180000000     oleaut32:OLEAUT32.dll
 0000:fffbf000       .debug$S                   0000000180000000     oleaut32:OLEAUT32.dll
 0000:fffbf000       .debug$S                   0000000180000000     oleaut32:OLEAUT32.dll
 0000:fffbf000       .debug$S                   0000000180000000     oleaut32:OLEAUT32.dll
 0000:fffbf000       .debug$S                   0000000180000000     oleaut32:OLEAUT32.dll
 0000:fffbf000       .debug$S                   0000000180000000     oleaut32:OLEAUT32.dll
 0000:fffbf000       .debug$S                   0000000180000000     oleaut32:OLEAUT32.dll
 0000:fffbf000       .debug$S                   0000000180000000     oleaut32:OLEAUT32.dll
 0000:fffbf000       .debug$S                   0000000180000000     oleaut32:OLEAUT32.dll
 0000:fffbf000       .debug$S                   0000000180000000     user32:USER32.dll
 0000:fffbf000       .debug$S                   0000000180000000     user32:USER32.dll
 0000:fffbf000       .debug$S                   0000000180000000     user32:USER32.dll
 0000:fffbf000       .debug$S                   0000000180000000     user32:USER32.dll
 0000:fffbf000       .debug$S                   0000000180000000     user32:USER32.dll
 0000:fffbf000       .debug$S                   0000000180000000     user32:USER32.dll
 0000:fffbf000       .debug$S                   0000000180000000     user32:USER32.dll
 0000:fffbf000       .debug$S                   0000000180000000     user32:USER32.dll
 0000:fffbf000       .debug$S                   0000000180000000     user32:USER32.dll
 0000:fffbf000       .debug$S                   0000000180000000     user32:USER32.dll
 0000:fffbf000       .debug$S                   0000000180000000     user32:USER32.dll
 0000:fffbf000       .debug$S                   0000000180000000     user32:USER32.dll
 0000:fffbf000       .debug$S                   0000000180000000     user32:USER32.dll
 0000:fffbf000       .debug$S                   0000000180000000     user32:USER32.dll
 0000:fffbf000       .debug$S                   0000000180000000     user32:USER32.dll
 0000:fffbf000       .debug$S                   0000000180000000     user32:USER32.dll
 0000:fffbf000       .debug$S                   0000000180000000     user32:USER32.dll
 0000:fffbf000       .debug$S                   0000000180000000     user32:USER32.dll
 0000:fffbf000       .debug$S                   0000000180000000     user32:USER32.dll
 0000:fffbf000       .debug$S                   0000000180000000     user32:USER32.dll
 0000:fffbf000       .debug$S                   0000000180000000     user32:USER32.dll
 0000:fffbf000       .debug$S                   0000000180000000     user32:USER32.dll
 0000:fffbf000       .debug$S                   0000000180000000     user32:USER32.dll
 0000:fffbf000       .debug$S                   0000000180000000     user32:USER32.dll
 0000:fffbf000       .debug$S                   0000000180000000     user32:USER32.dll
 0000:fffbf000       .debug$S                   0000000180000000     user32:USER32.dll
 0000:fffbf000       .debug$S                   0000000180000000     user32:USER32.dll
 0000:fffbf000       .debug$S                   0000000180000000     user32:USER32.dll
 0000:fffbf000       .debug$S                   0000000180000000     user32:USER32.dll
 0000:fffbf000       .debug$S                   0000000180000000     user32:USER32.dll
 0000:fffbf000       .debug$S                   0000000180000000     user32:USER32.dll
 0000:fffbf000       .debug$S                   0000000180000000     user32:USER32.dll
 0000:fffbf000       .debug$S                   0000000180000000     user32:USER32.dll
 0000:fffbf000       .debug$S                   0000000180000000     user32:USER32.dll
 0000:fffbf000       .debug$S                   0000000180000000     user32:USER32.dll
 0001:00000000       ??__E_AtlComModule@ATL@@YAXXZ 0000000180001000 f   OposVariant.obj
 0001:00000020       ??__E_AtlWinModule@ATL@@YAXXZ 0000000180001020 f   OposVariant.obj
 0001:00000040       ??__E?pConnMap@?$IConnectionPointContainerImpl@VCOPOSVoiceRecognition@@@ATL@@0PEBU_ATL_CONNMAP_ENTRY@2@EB@@YAXXZ 0000000180001040 f   VoiceRecognition.obj
 0001:00000058       ??__E_Module@@YAXXZ        0000000180001058 f   VoiceRecognition.obj
 0001:00000094       ??__E_AtlBaseModule@ATL@@YAXXZ 0000000180001094 f   atls:atlbase.obj
 0001:0000e43c       ?__scrt_initialize_thread_safe_statics@@YAHXZ 000000018000f43c f   LIBCMT:thread_safe_statics.obj
 0001:0000e50c       ?__scrt_uninitialize_thread_safe_statics@@YAXXZ 000000018000f50c f   LIBCMT:thread_safe_statics.obj
 0001:0000e85c       capture_current_context    000000018000f85c f   LIBCMT:gs_report.obj
 0001:0000e8cc       capture_previous_context   000000018000f8cc f   LIBCMT:gs_report.obj
 0001:0000ea60       $$000000                   000000018000fa60     LIBCMT:chkstk.obj
 0001:0000eac0       $$000000                   000000018000fac0     LIBCMT:amdsecgs.obj
 0001:0000eaf0       ?dllmain_crt_dispatch@@YAHQEAUHINSTANCE__@@KQEAX@Z 000000018000faf0 f   LIBCMT:dll_dllmain.obj
 0001:0000eb40       ?dllmain_crt_process_attach@@YAHQEAUHINSTANCE__@@QEAX@Z 000000018000fb40 f   LIBCMT:dll_dllmain.obj
 0001:0000ec58       ?dllmain_crt_process_detach@@YAH_N@Z 000000018000fc58 f   LIBCMT:dll_dllmain.obj
 0001:0000ecdc       ?dllmain_dispatch@@YAHQEAUHINSTANCE__@@KQEAX@Z 000000018000fcdc f   LIBCMT:dll_dllmain.obj
 0001:0000f5a8       ??$GetProcAddressAll@P6AP6A_JPEAUHWND__@@I_K_J@ZPEAUAtlThunkData_t@@@Z@@YAP6AP6A_JPEAUHWND__@@I_K_J@ZPEAUAtlThunkData_t@@@ZPEAP6AP6A_J0I12@Z3@Z@Z 00000001800105a8 f   atls:atlthunk.obj
 0001:0000f5a8       ??$GetProcAddressAll@P6APEAUAtlThunkData_t@@XZ@@YAP6APEAUAtlThunkData_t@@XZPEAP6APEAU0@XZ@Z 00000001800105a8 f   atls:atlthunk.obj
 0001:0000f5a8       ??$GetProcAddressAll@P6AXPEAUAtlThunkData_t@@@Z@@YAP6AXPEAUAtlThunkData_t@@@ZPEAP6AX0@Z@Z 00000001800105a8 f   atls:atlthunk.obj
 0001:0000f5a8       ??$GetProcAddressAll@P6AXPEAUAtlThunkData_t@@PEAX_K@Z@@YAP6AXPEAUAtlThunkData_t@@PEAX_K@ZPEAP6AX012@Z@Z 00000001800105a8 f   atls:atlthunk.obj
 0001:0000f780       ?__InitializeThunkPool@@YAHXZ 0000000180010780 f   atls:atlthunk.obj
 0001:0000fc20       $$000000                   0000000180010c20     libvcruntime:memcmp.obj
 0001:0000fd00       $$000000                   0000000180010d00     libvcruntime:memcpy.obj
 0001:000103b0       $$000000                   00000001800113b0     libvcruntime:memset.obj
 0001:000119c0       $$000000                   00000001800129c0     libvcruntime:notify.obj
 0001:00011c40       ??$BuildCatchObjectHelperInternal@V__FrameHandler3@@@@YAHPEAUEHExceptionRecord@@PEAXPEBU_s_HandlerType@@PEBU_s_CatchableType@@@Z 0000000180012c40 f   libvcruntime:frame.obj
 0001:00011e40       ??$BuildCatchObjectHelperInternal@V__FrameHandler4@@@@YAHPEAUEHExceptionRecord@@PEAXPEAUHandlerType4@FH4@@PEBU_s_CatchableType@@@Z 0000000180012e40 f   libvcruntime:frame.obj
 0001:00012044       ??$BuildCatchObjectInternal@V__FrameHandler3@@@@YAXPEAUEHExceptionRecord@@PEAXPEBU_s_HandlerType@@PEBU_s_CatchableType@@@Z 0000000180013044 f   libvcruntime:frame.obj
 0001:00012104       ??$BuildCatchObjectInternal@V__FrameHandler4@@@@YAXPEAUEHExceptionRecord@@PEAXPEAUHandlerType4@FH4@@PEBU_s_CatchableType@@@Z 0000000180013104 f   libvcruntime:frame.obj
 0001:000121c8       ??$CatchIt@V__FrameHandler3@@@@YAXPEAUEHExceptionRecord@@PEA_KPEAU_CONTEXT@@PEAU_xDISPATCHER_CONTEXT@@PEBU_s_FuncInfo@@PEBU_s_HandlerType@@PEBU_s_CatchableType@@PEBU_s_TryBlockMapEntry@@H1EE@Z 00000001800131c8 f   libvcruntime:frame.obj
 0001:0001229c       ??$CatchIt@V__FrameHandler4@@@@YAXPEAUEHExceptionRecord@@PEA_KPEAU_CONTEXT@@PEAU_xDISPATCHER_CONTEXT@@PEAUFuncInfo4@FH4@@PEAUHandlerType4@4@PEBU_s_CatchableType@@PEAUTryBlockMapEntry4@4@H1EE@Z 000000018001329c f   libvcruntime:frame.obj
 0001:00012370       ??$FindHandler@V__FrameHandler3@@@@YAXPEAUEHExceptionRecord@@PEA_KPEAU_CONTEXT@@PEAU_xDISPATCHER_CONTEXT@@PEBU_s_FuncInfo@@EH1@Z 0000000180013370 f   libvcruntime:frame.obj
 0001:00012848       ??$FindHandler@V__FrameHandler4@@@@YAXPEAUEHExceptionRecord@@PEA_KPEAU_CONTEXT@@PEAU_xDISPATCHER_CONTEXT@@PEAUFuncInfo4@FH4@@EH1@Z 0000000180013848 f   libvcruntime:frame.obj
 0001:00012d44       ??$FindHandlerForForeignException@V__FrameHandler3@@@@YAXPEAUEHExceptionRecord@@PEA_KPEAU_CONTEXT@@PEAU_xDISPATCHER_CONTEXT@@PEBU_s_FuncInfo@@HH1@Z 0000000180013d44 f   libvcruntime:frame.obj
 0001:00012f60       ??$FindHandlerForForeignException@V__FrameHandler4@@@@YAXPEAUEHExceptionRecord@@PEA_KPEAU_CONTEXT@@PEAU_xDISPATCHER_CONTEXT@@PEAUFuncInfo4@FH4@@HH1@Z 0000000180013f60 f   libvcruntime:frame.obj
 0001:00014120       ?ExFilterRethrow@@YAHPEAU_EXCEPTION_POINTERS@@PEAUEHExceptionRecord@@PEAH@Z 0000000180015120 f   libvcruntime:frame.obj
 0001:000141a8       ?ExFilterRethrowFH4@@YAHPEAU_EXCEPTION_POINTERS@@PEAUEHExceptionRecord@@HPEAH@Z 00000001800151a8 f   libvcruntime:frame.obj
 0001:000146f8       ?IsInExceptionSpec@@YAEPEAUEHExceptionRecord@@PEBU_s_ESTypeList@@@Z 00000001800156f8 f   libvcruntime:frame.obj
 0001:000147e8       ?Is_bad_exception_allowed@@YAEPEBU_s_ESTypeList@@@Z 00000001800157e8 f   libvcruntime:frame.obj
 0001:00014ac4       ?try_get_function@@YAPEAXW4function_id@?A0xbc0cc709@@QEBDQEBW4module_id@2@2@Z 0000000180015ac4 f   libvcruntime:winapi_downlevel.obj
 0001:00014db0       $$000000                   0000000180015db0     libvcruntime:handlers.obj
 0001:000157dc       ??$common_vsprintf@Vformat_validation_base@__crt_stdio_output@@_W@@YAH_KQEA_W0QEB_WAEAV__crt_cached_ptd_host@@QEAD@Z 00000001800167dc f   libucrt:output.obj
 0001:00017f2c       ??$?RV<lambda_d80eeec6fff315bfe5c115232f3240e3>@@AEAV<lambda_6e4b09c48022b2350581041d5f6b0c4c>@@V<lambda_2358e3775559c9db80273638284d5e45>@@@?$__crt_seh_guarded_call@X@@QEAAX$$QEAV<lambda_d80eeec6fff315bfe5c115232f3240e3>@@AEAV<lambda_6e4b09c48022b2350581041d5f6b0c4c>@@$$QEAV<lambda_2358e3775559c9db80273638284d5e45>@@@Z 0000000180018f2c f   libucrt:exit.obj
 0001:00017f64       ??R<lambda_6e4b09c48022b2350581041d5f6b0c4c>@@QEBA@XZ 0000000180018f64 f   libucrt:exit.obj
 0001:00018030       ?common_exit@@YAXHW4_crt_exit_cleanup_mode@@W4_crt_exit_return_mode@@@Z 0000000180019030 f   libucrt:exit.obj
 0001:000180f8       ?exit_or_terminate_process@@YAXI@Z 00000001800190f8 f   libucrt:exit.obj
 0001:0001812c       ?should_call_terminate_process@@YA_NXZ 000000018001912c f   libucrt:exit.obj
 0001:0001815c       ?try_cor_exit_process@@YAXI@Z 000000018001915c f   libucrt:exit.obj
 0001:000181f8       ??$parse_command_line@D@@YAXPEADPEAPEAD0PEA_K2@Z 00000001800191f8 f   libucrt:argv_parsing.obj
 0001:000185a0       ??$common_initialize_environment_nolock@D@@YAHXZ 00000001800195a0 f   libucrt:environment_initialization.obj
 0001:00018614       ??$create_environment@D@@YAQEAPEADQEAD@Z 0000000180019614 f   libucrt:environment_initialization.obj
 0001:00018724       ??$free_environment@D@@YAXQEAPEAD@Z 0000000180019724 f   libucrt:environment_initialization.obj
 0001:00018724       ??$free_environment@_W@@YAXQEAPEA_W@Z 0000000180019724 f   libucrt:environment_initialization.obj
 0001:00018768       ??$uninitialize_environment_internal@D@@YAXAEAPEAPEAD@Z 0000000180019768 f   libucrt:environment_initialization.obj
 0001:00018784       ??$uninitialize_environment_internal@_W@@YAXAEAPEAPEA_W@Z 0000000180019784 f   libucrt:environment_initialization.obj
 0001:000187ec       ??$?RV<lambda_638799b9deba96c50f710eeac98168cd>@@AEAV<lambda_22ebabd17bc4fa466a2aca6d8deb888d>@@V<lambda_a6f7d7db0129f75315ebf26d50c089f1>@@@?$__crt_seh_guarded_call@H@@QEAAH$$QEAV<lambda_638799b9deba96c50f710eeac98168cd>@@AEAV<lambda_22ebabd17bc4fa466a2aca6d8deb888d>@@$$QEAV<lambda_a6f7d7db0129f75315ebf26d50c089f1>@@@Z 00000001800197ec f   libucrt:onexit.obj
 0001:00018828       ??$?RV<lambda_7777bce6b2f8c936911f934f8298dc43>@@AEAV<lambda_f03950bc5685219e0bcd2087efbe011e>@@V<lambda_3883c3dff614d5e0c5f61bb1ac94921c>@@@?$__crt_seh_guarded_call@H@@QEAAH$$QEAV<lambda_7777bce6b2f8c936911f934f8298dc43>@@AEAV<lambda_f03950bc5685219e0bcd2087efbe011e>@@$$QEAV<lambda_3883c3dff614d5e0c5f61bb1ac94921c>@@@Z 0000000180019828 f   libucrt:onexit.obj
 0001:00018864       ??R<lambda_22ebabd17bc4fa466a2aca6d8deb888d>@@QEBAHXZ 0000000180019864 f   libucrt:onexit.obj
 0001:00018a14       ??R<lambda_f03950bc5685219e0bcd2087efbe011e>@@QEBAHXZ 0000000180019a14 f   libucrt:onexit.obj
 0001:00018bf8       initialize_global_variables 0000000180019bf8 f   libucrt:initialization.obj
 0001:00018c0c       initialize_c               0000000180019c0c f   libucrt:initialization.obj
 0001:00018c30       initialize_environment     0000000180019c30 f   libucrt:initialization.obj
 0001:00018c30       initialize_global_state_isolation 0000000180019c30 f   libucrt:initialization.obj
 0001:00018c30       report_memory_leaks        0000000180019c30 f   libucrt:initialization.obj
 0001:00018c30       uninitialize_c             0000000180019c30 f   libucrt:initialization.obj
 0001:00018c30       uninitialize_global_state_isolation 0000000180019c30 f   libucrt:initialization.obj
 0001:00018c34       uninitialize_environment   0000000180019c34 f   libucrt:initialization.obj
 0001:00018c44       initialize_pointers        0000000180019c44 f   libucrt:initialization.obj
 0001:00018c84       uninitialize_vcruntime     0000000180019c84 f   libucrt:initialization.obj
 0001:00018c8c       uninitialize_allocated_memory 0000000180019c8c f   libucrt:initialization.obj
 0001:00018ccc       uninitialize_allocated_io_buffers 0000000180019ccc f   libucrt:initialization.obj
 0001:00018f90       $$000000                   0000000180019f90     libucrt:strncmp.obj
 0001:00019088       ??$?RV<lambda_0ae27a3a962d80f24befdcbee591983d>@@AEAV<lambda_8d0ee55de4b1038c4002e0adecdf1839>@@V<lambda_dc504788e8f1664fe9b84e20bfb512f2>@@@?$__crt_seh_guarded_call@X@@QEAAX$$QEAV<lambda_0ae27a3a962d80f24befdcbee591983d>@@AEAV<lambda_8d0ee55de4b1038c4002e0adecdf1839>@@$$QEAV<lambda_dc504788e8f1664fe9b84e20bfb512f2>@@@Z 000000018001a088 f   libucrt:per_thread_data.obj
 0001:000190c8       ??$?RV<lambda_2d41944a1d46af3157314b8a01080d33>@@AEAV<lambda_8f455de75cd7d7f24b4096f044d8b9e6>@@V<lambda_aa500f224e6afead328df44964fe2772>@@@?$__crt_seh_guarded_call@X@@QEAAX$$QEAV<lambda_2d41944a1d46af3157314b8a01080d33>@@AEAV<lambda_8f455de75cd7d7f24b4096f044d8b9e6>@@$$QEAV<lambda_aa500f224e6afead328df44964fe2772>@@@Z 000000018001a0c8 f   libucrt:per_thread_data.obj
 0001:00019108       ??$?RV<lambda_aa87e3671a710a21b5dc78c0bdf72e11>@@AEAV<lambda_92619d2358a28f41a33ba319515a20b9>@@V<lambda_6992ecaafeb10aed2b74cb1fae11a551>@@@?$__crt_seh_guarded_call@X@@QEAAX$$QEAV<lambda_aa87e3671a710a21b5dc78c0bdf72e11>@@AEAV<lambda_92619d2358a28f41a33ba319515a20b9>@@$$QEAV<lambda_6992ecaafeb10aed2b74cb1fae11a551>@@@Z 000000018001a108 f   libucrt:per_thread_data.obj
 0001:00019150       ??$?RV<lambda_f2e299630e499de9f9a165e60fcd3db5>@@AEAV<lambda_2ae9d31cdba2644fcbeaf08da7c24588>@@V<lambda_40d01ff24d0e7b3814fdbdcee8eab3c7>@@@?$__crt_seh_guarded_call@X@@QEAAX$$QEAV<lambda_f2e299630e499de9f9a165e60fcd3db5>@@AEAV<lambda_2ae9d31cdba2644fcbeaf08da7c24588>@@$$QEAV<lambda_40d01ff24d0e7b3814fdbdcee8eab3c7>@@@Z 000000018001a150 f   libucrt:per_thread_data.obj
 0001:000191b0       ?construct_ptd_array@@YAXQEAU__acrt_ptd@@@Z 000000018001a1b0 f   libucrt:per_thread_data.obj
 0001:00019280       ?destroy_fls@@YAXPEAX@Z    000000018001a280 f   libucrt:per_thread_data.obj
 0001:000192a0       ?destroy_ptd_array@@YAXQEAU__acrt_ptd@@@Z 000000018001a2a0 f   libucrt:per_thread_data.obj
 0001:00019398       ?replace_current_thread_locale_nolock@@YAXQEAU__acrt_ptd@@QEAU__crt_locale_data@@@Z 000000018001a398 f   libucrt:per_thread_data.obj
 0001:000197a4       ??$?RV<lambda_410d79af7f07d98d83a3f525b3859a53>@@AEAV<lambda_3e16ef9562a7dcce91392c22ab16ea36>@@V<lambda_38119f0e861e05405d8a144b9b982f0a>@@@?$__crt_seh_guarded_call@X@@QEAAX$$QEAV<lambda_410d79af7f07d98d83a3f525b3859a53>@@AEAV<lambda_3e16ef9562a7dcce91392c22ab16ea36>@@$$QEAV<lambda_38119f0e861e05405d8a144b9b982f0a>@@@Z 000000018001a7a4 f   libucrt:wsetlocale.obj
 0001:000199e0       ?try_get_function@@YAPEAXW4function_id@?A0x391cf84c@@QEBDQEBW4module_id@2@2@Z 000000018001a9e0 f   libucrt:winapi_thunks.obj
 0001:0001a17c       ?fp_format_a@@YAHQEBNPEAD_KQEAD2H_NIW4__acrt_rounding_mode@@AEAV__crt_cached_ptd_host@@@Z 000000018001b17c f   libucrt:cvt.obj
 0001:0001a530       ?fp_format_e@@YAHQEBNQEAD_K12H_NIW4__acrt_rounding_mode@@AEAV__crt_cached_ptd_host@@@Z 000000018001b530 f   libucrt:cvt.obj
 0001:0001a62c       ?fp_format_e_internal@@YAHQEAD_KH_NIQEAU_strflt@@2AEAV__crt_cached_ptd_host@@@Z 000000018001b62c f   libucrt:cvt.obj
 0001:0001a810       ?fp_format_f@@YAHQEBNQEAD_K12HW4__acrt_rounding_mode@@AEAV__crt_cached_ptd_host@@@Z 000000018001b810 f   libucrt:cvt.obj
 0001:0001a8e8       ?fp_format_f_internal@@YAHQEAD_KHQEAU_strflt@@_NAEAV__crt_cached_ptd_host@@@Z 000000018001b8e8 f   libucrt:cvt.obj
 0001:0001aa40       ?fp_format_g@@YAHQEBNQEAD_K12H_NIW4__acrt_rounding_mode@@AEAV__crt_cached_ptd_host@@@Z 000000018001ba40 f   libucrt:cvt.obj
 0001:0001ab94       ?should_round_up@@YA_NQEBN_KFW4__acrt_rounding_mode@@@Z 000000018001bb94 f   libucrt:cvt.obj
 0001:0001b2e0       ?initialize_inherited_file_handles_nolock@@YAXXZ 000000018001c2e0 f   libucrt:ioinit.obj
 0001:0001b3d0       ?initialize_stdio_handles_nolock@@YAXXZ 000000018001c3d0 f   libucrt:ioinit.obj
 0001:0001b648       ?<lambda_invoker_cdecl>@<lambda_a1ce4c8ae42411fd470c77163914f50e>@@CAHPEBX0@Z 000000018001c648 f   libucrt:argv_wildcards.obj
 0001:0001b964       ??$common_expand_argv_wildcards@D@@YAHQEAPEADQEAPEAPEAD@Z 000000018001c964 f   libucrt:argv_wildcards.obj
 0001:0001bba8       ??$copy_and_add_argument_to_buffer@D@@YAHQEBD0_KAEAV?$argument_list@D@?A0x5f5c8891@@@Z 000000018001cba8 f   libucrt:argv_wildcards.obj
 0001:0001bd30       ??$expand_argument_wildcards@D@@YAHQEAD0AEAV?$argument_list@D@?A0x5f5c8891@@@Z 000000018001cd30 f   libucrt:argv_wildcards.obj
 0001:0001c364       ??$?RV<lambda_efdfa57d1f175319df784efa44bb7b81>@@AEAV<lambda_5f0a4c1567f8adc6734073e5d1e1b35c>@@V<lambda_2e8a7d3640ea6ccb4c2413664c2db6fd>@@@?$__crt_seh_guarded_call@X@@QEAAX$$QEAV<lambda_efdfa57d1f175319df784efa44bb7b81>@@AEAV<lambda_5f0a4c1567f8adc6734073e5d1e1b35c>@@$$QEAV<lambda_2e8a7d3640ea6ccb4c2413664c2db6fd>@@@Z 000000018001d364 f   libucrt:mbctype.obj
 0001:0001c534       ?getSystemCP@@YAHH@Z       000000018001d534 f   libucrt:mbctype.obj
 0001:0001c5b4       ?setSBCS@@YAXPEAU__crt_multibyte_data@@@Z 000000018001d5b4 f   libucrt:mbctype.obj
 0001:0001c64c       ?setSBUpLow@@YAXPEAU__crt_multibyte_data@@@Z 000000018001d64c f   libucrt:mbctype.obj
 0001:0001c834       ?setmbcp_internal@@YAHH_NQEAU__acrt_ptd@@QEAPEAU__crt_multibyte_data@@@Z 000000018001d834 f   libucrt:mbctype.obj
 0001:0001caa4       ?update_thread_multibyte_data_internal@@YAPEAU__crt_multibyte_data@@QEAU__acrt_ptd@@QEAPEAU1@@Z 000000018001daa4 f   libucrt:mbctype.obj
 0001:0001ce98       ?x_ismbbtype_l@@YAHPEAU__crt_locale_pointers@@IHH@Z 000000018001de98 f   libucrt:ismbbyte.obj
 0001:0001d268       ??$?RV<lambda_450d765d439847d4c735a33c368b5fc0>@@AEAV<lambda_44731a7d0e6d81c3e6aa82d741081786>@@V<lambda_601a2a7da3b7a96e9554ac7215c4b07c>@@@?$__crt_seh_guarded_call@P6AXH@Z@@QEAAP6AXH@Z$$QEAV<lambda_450d765d439847d4c735a33c368b5fc0>@@AEAV<lambda_44731a7d0e6d81c3e6aa82d741081786>@@$$QEAV<lambda_601a2a7da3b7a96e9554ac7215c4b07c>@@@Z 000000018001e268 f   libucrt:signal.obj
 0001:0001d5e0       ??$?RV<lambda_842d9ff0dc9ef11c61343bbaebe7f885>@@AEAV<lambda_c5860995281e5c4ce005b3de8f5874ee>@@V<lambda_d90129c13df834fdcbf8d2b88dafcf2d>@@@?$__crt_seh_guarded_call@X@@QEAAX$$QEAV<lambda_842d9ff0dc9ef11c61343bbaebe7f885>@@AEAV<lambda_c5860995281e5c4ce005b3de8f5874ee>@@$$QEAV<lambda_d90129c13df834fdcbf8d2b88dafcf2d>@@@Z 000000018001e5e0 f   libucrt:fflush.obj
 0001:0001d67c       ??$?RV<lambda_886d6c58226a84441f68b9f2b8217b83>@@AEAV<lambda_ab61a845afdef5b7c387490eaf3616ee>@@V<lambda_f7f22ab5edc0698d5f6905b0d3f44752>@@@?$__crt_seh_guarded_call@X@@QEAAX$$QEAV<lambda_886d6c58226a84441f68b9f2b8217b83>@@AEAV<lambda_ab61a845afdef5b7c387490eaf3616ee>@@$$QEAV<lambda_f7f22ab5edc0698d5f6905b0d3f44752>@@@Z 000000018001e67c f   libucrt:fflush.obj
 0001:0001d75c       ?common_flush_all@@YAH_N@Z 000000018001e75c f   libucrt:fflush.obj
 0001:0001dea8       ?free_crt_array_internal@@YAXQEAPEBX_K@Z 000000018001eea8 f   libucrt:inittime.obj
 0001:0001fa8c       memcpy_s                   0000000180020a8c f   libucrt:cfout.obj
 0001:00020690       fallbackMethod             0000000180021690 f   libucrt:strpbrk.obj
 0001:00020a3c       $LN78                      0000000180021a3c     libucrt:strpbrk.obj
 0001:00020a78       $LN77                      0000000180021a78     libucrt:strpbrk.obj
 0001:00020ab8       $LN76                      0000000180021ab8     libucrt:strpbrk.obj
 0001:00020b94       ?__acrt_LCMapStringA_stat@@YAHPEAU__crt_locale_pointers@@PEB_WKPEBDHPEADHHH@Z 0000000180021b94 f   libucrt:lcmapstringa.obj
 0001:00020f4c       ?initialize_multibyte@@YAHXZ 0000000180021f4c f   libucrt:multibyte_initializer.obj
 0001:00020f64       ??$?RV<lambda_a37b2b86f63e897a80ea819b0eb08c01>@@AEAV<lambda_38ce7e780aa69e748d6df282ebc68efe>@@V<lambda_99fb1378e971ab6e7edea83e3a7a83a2>@@@?$__crt_seh_guarded_call@H@@QEAAH$$QEAV<lambda_a37b2b86f63e897a80ea819b0eb08c01>@@AEAV<lambda_38ce7e780aa69e748d6df282ebc68efe>@@$$QEAV<lambda_99fb1378e971ab6e7edea83e3a7a83a2>@@@Z 0000000180021f64 f   libucrt:commit.obj
 0001:00021084       ?write_double_translated_ansi_nolock@@YA?AUwrite_result@?A0x17268360@@HQEBDIAEAV__crt_cached_ptd_host@@@Z 0000000180022084 f   libucrt:write.obj
 0001:00021510       ?write_text_ansi_nolock@@YA?AUwrite_result@?A0x17268360@@HQEBDI@Z 0000000180022510 f   libucrt:write.obj
 0001:00021614       ?write_text_utf16le_nolock@@YA?AUwrite_result@?A0x17268360@@HQEBDI@Z 0000000180022614 f   libucrt:write.obj
 0001:00021730       ?write_text_utf8_nolock@@YA?AUwrite_result@?A0x17268360@@HQEBDI@Z 0000000180022730 f   libucrt:write.obj
 0001:00021f10       $$000000                   0000000180022f10     libucrt:log10.obj
 0001:000229ac       ?_fclose_internal@@YAHQEAU_iobuf@@AEAV__crt_cached_ptd_host@@@Z 00000001800239ac f   libucrt:fclose.obj
 0001:00022a28       ?_fclose_nolock_internal@@YAHQEAU_iobuf@@AEAV__crt_cached_ptd_host@@@Z 0000000180023a28 f   libucrt:fclose.obj
 0001:00022b64       ??$common_lseek_nolock@_J@@YA_JH_JHAEAV__crt_cached_ptd_host@@@Z 0000000180023b64 f   libucrt:lseek.obj
 0001:00022cec       common_control87           0000000180023cec f   libucrt:ieee.obj
 0001:00022fac       _call_matherr              0000000180023fac f   libucrt:libm_error.obj
 0001:00023014       _exception_enabled         0000000180024014 f   libucrt:libm_error.obj
 0001:000232b0       _log_special_common        00000001800242b0 f   libucrt:log_special.obj
 0001:00023348       ??$?RV<lambda_ad8af0d99a0adf03d037d7dffe354bb5>@@AEAV<lambda_c9ba49e555ba839a7b07aa3fbecb7617>@@V<lambda_2f1ebd5d68526518146ae959c9e734c8>@@@?$__crt_seh_guarded_call@H@@QEAAH$$QEAV<lambda_ad8af0d99a0adf03d037d7dffe354bb5>@@AEAV<lambda_c9ba49e555ba839a7b07aa3fbecb7617>@@$$QEAV<lambda_2f1ebd5d68526518146ae959c9e734c8>@@@Z 0000000180024348 f   libucrt:close.obj
 0001:000236a0       $$000000                   00000001800246a0     libucrt:fpsr.obj
 0001:00023e20       $$000000                   0000000180024e20     LIBCMT:guard_dispatch.obj
 0001:00023e40       $$000000                   0000000180024e40     LIBCMT:guard_xfg_dispatch.obj
 0001:00023e60       ?filt$0@?0??_AtlVerifyStackAvailable@_ATL_SAFE_ALLOCA_IMPL@ATL@@YA_N_K@Z@4HA 0000000180024e60 f   VoiceRecognition.obj
 0001:00023e81       __scrt_is_nonwritable_in_current_image$filt$0 0000000180024e81 f   LIBCMT:utility.obj
 0001:00023e99       ?catch$0@?0???2@YAPEAX_KAEBUnothrow_t@std@@@Z@4HA 0000000180024e99 f   LIBCMT:new_scalar_nothrow.obj
 0001:00023ea6       __catch$??2@YAPEAX_KAEBUnothrow_t@std@@@Z$0 0000000180024ea6 f   LIBCMT:new_scalar_nothrow.obj
 0001:00023eb7       ?fin$0@?0??dllmain_crt_process_attach@@YAHQEAUHINSTANCE__@@QEAX@Z@4HA 0000000180024eb7 f   LIBCMT:dll_dllmain.obj
 0001:00023ece       ?fin$0@?0??dllmain_crt_process_detach@@YAH_N@Z@4HA 0000000180024ece f   LIBCMT:dll_dllmain.obj
 0001:00023ee7       ?fin$1@?0??dllmain_crt_process_detach@@YAH_N@Z@4HA 0000000180024ee7 f   LIBCMT:dll_dllmain.obj
 0001:00023efb       ?filt$0@?0??dllmain_dispatch@@YAHQEAUHINSTANCE__@@KQEAX@Z@4HA 0000000180024efb f   LIBCMT:dll_dllmain.obj
 0001:00023f31       ?filt$0@?0???$_CallSETranslator@V__FrameHandler3@@@@YAHPEAUEHExceptionRecord@@PEA_KPEAU_CONTEXT@@PEAU_xDISPATCHER_CONTEXT@@PEBU_s_FuncInfo@@K1H@Z@4HA 0000000180024f31 f   libvcruntime:risctrnsctrl.obj
 0001:00023fc2       ?filt$0@?0???$_CallSETranslator@V__FrameHandler4@@@@YAHPEAUEHExceptionRecord@@PEA_KPEAU_CONTEXT@@PEAU_xDISPATCHER_CONTEXT@@PEAUFuncInfo4@FH4@@K1H@Z@4HA 0000000180024fc2 f   libvcruntime:risctrnsctrl.obj
 0001:00024061       __DestructExceptionObject$filt$0 0000000180025061 f   libvcruntime:ehhelpers.obj
 0001:000240f7       ?filt$0@?0??CxxCallCatchBlock@__FrameHandler3@@SAPEAXPEAU_EXCEPTION_RECORD@@@Z@4HA 00000001800250f7 f   libvcruntime:frame.obj
 0001:0002411c       ?fin$1@?0??CxxCallCatchBlock@__FrameHandler3@@SAPEAXPEAU_EXCEPTION_RECORD@@@Z@4HA 000000018002511c f   libvcruntime:frame.obj
 0001:000241a2       ?filt$0@?0??CxxCallCatchBlock@__FrameHandler4@@SAPEAXPEAU_EXCEPTION_RECORD@@@Z@4HA 00000001800251a2 f   libvcruntime:frame.obj
 0001:000241d1       ?fin$1@?0??CxxCallCatchBlock@__FrameHandler4@@SAPEAXPEAU_EXCEPTION_RECORD@@@Z@4HA 00000001800251d1 f   libvcruntime:frame.obj
 0001:00024262       ?filt$0@?0??FrameUnwindToState@__FrameHandler3@@SAXPEA_KPEAU_xDISPATCHER_CONTEXT@@PEBU_s_FuncInfo@@H@Z@4HA 0000000180025262 f   libvcruntime:frame.obj
 0001:00024278       ?fin$1@?0??FrameUnwindToState@__FrameHandler3@@SAXPEA_KPEAU_xDISPATCHER_CONTEXT@@PEBU_s_FuncInfo@@H@Z@4HA 0000000180025278 f   libvcruntime:frame.obj
 0001:0002429b       ?filt$0@?0??FrameUnwindToState@__FrameHandler4@@SAXPEA_KPEAU_xDISPATCHER_CONTEXT@@PEAUFuncInfo4@FH4@@H@Z@4HA 000000018002529b f   libvcruntime:frame.obj
 0001:000242b1       ?fin$1@?0??FrameUnwindToState@__FrameHandler4@@SAXPEA_KPEAU_xDISPATCHER_CONTEXT@@PEAUFuncInfo4@FH4@@H@Z@4HA 00000001800252b1 f   libvcruntime:frame.obj
 0001:000242d4       ?fin$0@?0???$?RV<lambda_0ae27a3a962d80f24befdcbee591983d>@@AEAV<lambda_8d0ee55de4b1038c4002e0adecdf1839>@@V<lambda_dc504788e8f1664fe9b84e20bfb512f2>@@@?$__crt_seh_guarded_call@X@@QEAAX$$QEAV<lambda_0ae27a3a962d80f24befdcbee591983d>@@AEAV<lambda_8d0ee55de4b1038c4002e0adecdf1839>@@$$QEAV<lambda_dc504788e8f1664fe9b84e20bfb512f2>@@@Z@4HA 00000001800252d4 f   libucrt:per_thread_data.obj
 0001:000242d4       ?fin$0@?0???$?RV<lambda_2d41944a1d46af3157314b8a01080d33>@@AEAV<lambda_8f455de75cd7d7f24b4096f044d8b9e6>@@V<lambda_aa500f224e6afead328df44964fe2772>@@@?$__crt_seh_guarded_call@X@@QEAAX$$QEAV<lambda_2d41944a1d46af3157314b8a01080d33>@@AEAV<lambda_8f455de75cd7d7f24b4096f044d8b9e6>@@$$QEAV<lambda_aa500f224e6afead328df44964fe2772>@@@Z@4HA 00000001800252d4 f   libucrt:per_thread_data.obj
 0001:000242d4       ?fin$0@?0???$?RV<lambda_aa87e3671a710a21b5dc78c0bdf72e11>@@AEAV<lambda_92619d2358a28f41a33ba319515a20b9>@@V<lambda_6992ecaafeb10aed2b74cb1fae11a551>@@@?$__crt_seh_guarded_call@X@@QEAAX$$QEAV<lambda_aa87e3671a710a21b5dc78c0bdf72e11>@@AEAV<lambda_92619d2358a28f41a33ba319515a20b9>@@$$QEAV<lambda_6992ecaafeb10aed2b74cb1fae11a551>@@@Z@4HA 00000001800252d4 f   libucrt:per_thread_data.obj
 0001:000242d4       ?fin$0@?0???$?RV<lambda_f2e299630e499de9f9a165e60fcd3db5>@@AEAV<lambda_2ae9d31cdba2644fcbeaf08da7c24588>@@V<lambda_40d01ff24d0e7b3814fdbdcee8eab3c7>@@@?$__crt_seh_guarded_call@X@@QEAAX$$QEAV<lambda_f2e299630e499de9f9a165e60fcd3db5>@@AEAV<lambda_2ae9d31cdba2644fcbeaf08da7c24588>@@$$QEAV<lambda_40d01ff24d0e7b3814fdbdcee8eab3c7>@@@Z@4HA 00000001800252d4 f   libucrt:per_thread_data.obj
 0001:000242d4       ?fin$0@?0???$?RV<lambda_450d765d439847d4c735a33c368b5fc0>@@AEAV<lambda_44731a7d0e6d81c3e6aa82d741081786>@@V<lambda_601a2a7da3b7a96e9554ac7215c4b07c>@@@?$__crt_seh_guarded_call@P6AXH@Z@@QEAAP6AXH@Z$$QEAV<lambda_450d765d439847d4c735a33c368b5fc0>@@AEAV<lambda_44731a7d0e6d81c3e6aa82d741081786>@@$$QEAV<lambda_601a2a7da3b7a96e9554ac7215c4b07c>@@@Z@4HA 00000001800252d4 f   libucrt:signal.obj
 0001:000242d4       ?fin$0@?0???$?RV<lambda_d80eeec6fff315bfe5c115232f3240e3>@@AEAV<lambda_6e4b09c48022b2350581041d5f6b0c4c>@@V<lambda_2358e3775559c9db80273638284d5e45>@@@?$__crt_seh_guarded_call@X@@QEAAX$$QEAV<lambda_d80eeec6fff315bfe5c115232f3240e3>@@AEAV<lambda_6e4b09c48022b2350581041d5f6b0c4c>@@$$QEAV<lambda_2358e3775559c9db80273638284d5e45>@@@Z@4HA 00000001800252d4 f   libucrt:exit.obj
 0001:000242d4       ?fin$0@?0???$?RV<lambda_638799b9deba96c50f710eeac98168cd>@@AEAV<lambda_22ebabd17bc4fa466a2aca6d8deb888d>@@V<lambda_a6f7d7db0129f75315ebf26d50c089f1>@@@?$__crt_seh_guarded_call@H@@QEAAH$$QEAV<lambda_638799b9deba96c50f710eeac98168cd>@@AEAV<lambda_22ebabd17bc4fa466a2aca6d8deb888d>@@$$QEAV<lambda_a6f7d7db0129f75315ebf26d50c089f1>@@@Z@4HA 00000001800252d4 f   libucrt:onexit.obj
 0001:000242d4       ?fin$0@?0???$?RV<lambda_7777bce6b2f8c936911f934f8298dc43>@@AEAV<lambda_f03950bc5685219e0bcd2087efbe011e>@@V<lambda_3883c3dff614d5e0c5f61bb1ac94921c>@@@?$__crt_seh_guarded_call@H@@QEAAH$$QEAV<lambda_7777bce6b2f8c936911f934f8298dc43>@@AEAV<lambda_f03950bc5685219e0bcd2087efbe011e>@@$$QEAV<lambda_3883c3dff614d5e0c5f61bb1ac94921c>@@@Z@4HA 00000001800252d4 f   libucrt:onexit.obj
 0001:000242ee       ?filt$0@?0???R<lambda_6e4b09c48022b2350581041d5f6b0c4c>@@QEBA@XZ@4HA 00000001800252ee f   libucrt:exit.obj
 0001:0002431b       _query_new_handler$fin$0   000000018002531b f   libucrt:new_handler.obj
 0001:00024331       ?fin$0@?0???$?RV<lambda_410d79af7f07d98d83a3f525b3859a53>@@AEAV<lambda_3e16ef9562a7dcce91392c22ab16ea36>@@V<lambda_38119f0e861e05405d8a144b9b982f0a>@@@?$__crt_seh_guarded_call@X@@QEAAX$$QEAV<lambda_410d79af7f07d98d83a3f525b3859a53>@@AEAV<lambda_3e16ef9562a7dcce91392c22ab16ea36>@@$$QEAV<lambda_38119f0e861e05405d8a144b9b982f0a>@@@Z@4HA 0000000180025331 f   libucrt:wsetlocale.obj
 0001:0002434b       __acrt_initialize_lowio$fin$0 000000018002534b f   libucrt:ioinit.obj
 0001:0002434b       __acrt_lowio_ensure_fh_exists$fin$0 000000018002534b f   libucrt:osfinfo.obj
 0001:00024364       ?fin$0@?0???$?RV<lambda_efdfa57d1f175319df784efa44bb7b81>@@AEAV<lambda_5f0a4c1567f8adc6734073e5d1e1b35c>@@V<lambda_2e8a7d3640ea6ccb4c2413664c2db6fd>@@@?$__crt_seh_guarded_call@X@@QEAAX$$QEAV<lambda_efdfa57d1f175319df784efa44bb7b81>@@AEAV<lambda_5f0a4c1567f8adc6734073e5d1e1b35c>@@$$QEAV<lambda_2e8a7d3640ea6ccb4c2413664c2db6fd>@@@Z@4HA 0000000180025364 f   libucrt:mbctype.obj
 0001:0002437e       ?fin$0@?0??update_thread_multibyte_data_internal@@YAPEAU__crt_multibyte_data@@QEAU__acrt_ptd@@QEAPEAU1@@Z@4HA 000000018002537e f   libucrt:mbctype.obj
 0001:00024397       raise$fin$0                0000000180025397 f   libucrt:signal.obj
 0001:000243b8       ?fin$0@?0???$?RV<lambda_842d9ff0dc9ef11c61343bbaebe7f885>@@AEAV<lambda_c5860995281e5c4ce005b3de8f5874ee>@@V<lambda_d90129c13df834fdcbf8d2b88dafcf2d>@@@?$__crt_seh_guarded_call@X@@QEAAX$$QEAV<lambda_842d9ff0dc9ef11c61343bbaebe7f885>@@AEAV<lambda_c5860995281e5c4ce005b3de8f5874ee>@@$$QEAV<lambda_d90129c13df834fdcbf8d2b88dafcf2d>@@@Z@4HA 00000001800253b8 f   libucrt:fflush.obj
 0001:000243d3       ?fin$0@?0???$?RV<lambda_886d6c58226a84441f68b9f2b8217b83>@@AEAV<lambda_ab61a845afdef5b7c387490eaf3616ee>@@V<lambda_f7f22ab5edc0698d5f6905b0d3f44752>@@@?$__crt_seh_guarded_call@X@@QEAAX$$QEAV<lambda_886d6c58226a84441f68b9f2b8217b83>@@AEAV<lambda_ab61a845afdef5b7c387490eaf3616ee>@@$$QEAV<lambda_f7f22ab5edc0698d5f6905b0d3f44752>@@@Z@4HA 00000001800253d3 f   libucrt:fflush.obj
 0001:000243f0       __acrt_update_thread_locale_data$fin$0 00000001800253f0 f   libucrt:locale_refcounting.obj
 0001:00024409       _fcloseall$fin$0           0000000180025409 f   libucrt:closeall.obj
 0001:00024422       ?fin$0@?0???$?RV<lambda_ad8af0d99a0adf03d037d7dffe354bb5>@@AEAV<lambda_c9ba49e555ba839a7b07aa3fbecb7617>@@V<lambda_2f1ebd5d68526518146ae959c9e734c8>@@@?$__crt_seh_guarded_call@H@@QEAAH$$QEAV<lambda_ad8af0d99a0adf03d037d7dffe354bb5>@@AEAV<lambda_c9ba49e555ba839a7b07aa3fbecb7617>@@$$QEAV<lambda_2f1ebd5d68526518146ae959c9e734c8>@@@Z@4HA 0000000180025422 f   libucrt:close.obj
 0001:00024422       ?fin$0@?0???$?RV<lambda_a37b2b86f63e897a80ea819b0eb08c01>@@AEAV<lambda_38ce7e780aa69e748d6df282ebc68efe>@@V<lambda_99fb1378e971ab6e7edea83e3a7a83a2>@@@?$__crt_seh_guarded_call@H@@QEAAH$$QEAV<lambda_a37b2b86f63e897a80ea819b0eb08c01>@@AEAV<lambda_38ce7e780aa69e748d6df282ebc68efe>@@$$QEAV<lambda_99fb1378e971ab6e7edea83e3a7a83a2>@@@Z@4HA 0000000180025422 f   libucrt:commit.obj
 0001:0002443c       _write_internal$fin$0      000000018002543c f   libucrt:write.obj
 0001:00024453       ?fin$0@?0??_fclose_internal@@YAHQEAU_iobuf@@AEAV__crt_cached_ptd_host@@@Z@4HA 0000000180025453 f   libucrt:fclose.obj
 0001:0002446b       _ctrlfp$filt$0             000000018002546b f   libucrt:fpctrl.obj
 0001:0002446b       common_control87$filt$0    000000018002546b f   libucrt:ieee.obj
 0001:000244a0       _IsNonwritableInCurrentImage$filt$0 00000001800254a0 f   LIBCMT:pesect.obj
 0001:000244c0       ??__F_AtlComModule@ATL@@YAXXZ 00000001800254c0 f   OposVariant.obj
 0001:000244cc       ??__F_AtlWinModule@ATL@@YAXXZ 00000001800254cc f   OposVariant.obj
 0001:00024510       ??__F_Module@@YAXXZ        0000000180025510 f   VoiceRecognition.obj
 0001:0002452c       ??__F_AtlBaseModule@ATL@@YAXXZ 000000018002552c f   atls:atlbase.obj
 0002:00000670       ?_AtlBaseModule$initializer$@ATL@@3P6AXXZEA 0000000180026670     atls:atlbase.obj
 0002:00000678       ?_AtlComModule$initializer$@ATL@@3P6AXXZEA 0000000180026678     OposVariant.obj
 0002:00000680       ?_AtlWinModule$initializer$@ATL@@3P6AXXZEA 0000000180026680     OposVariant.obj
 0002:00000688       ?_Module$initializer$@@3P6AXXZEA 0000000180026688     VoiceRecognition.obj
 0002:00000690       ??pConnMap$initializer$@?$IConnectionPointContainerImpl@VCOPOSVoiceRecognition@@@ATL@@0P6AXXZEA@@3P6AXXZEA 0000000180026690     VoiceRecognition.obj
 0002:000006a8       ?__scrt_initialize_tss_var@@3P6AHXZEA 00000001800266a8     LIBCMT:thread_safe_statics.obj
 0002:000026f8       GS_ExceptionPointers       00000001800286f8     LIBCMT:gs_report.obj
 0002:000028e0       ?ExceptionTemplate@?1??UnwindNestedFrames@__FrameHandler4@@SAXPEA_KPEAUEHExceptionRecord@@PEAU_CONTEXT@@0PEAXPEAUFuncInfo4@FH4@@HHPEAUHandlerType4@6@PEAU_xDISPATCHER_CONTEXT@@E@Z@4U_EXCEPTION_RECORD@@B 00000001800288e0     libvcruntime:risctrnsctrl.obj
 0002:00002980       ?ExceptionTemplate@?1??UnwindNestedFrames@__FrameHandler3@@SAXPEA_KPEAUEHExceptionRecord@@PEAU_CONTEXT@@0PEAXPEBU_s_FuncInfo@@HHPEBU_s_HandlerType@@PEAU_xDISPATCHER_CONTEXT@@E@Z@4U_EXCEPTION_RECORD@@B 0000000180028980     libvcruntime:risctrnsctrl.obj
 0002:00002a50       ?tokenTable@@3QBUStringLiteral@@B 0000000180028a50     libvcruntime:undname.obj
 0002:00002b60       ?nameTable@@3QBUStringLiteral@@B 0000000180028b60     libvcruntime:undname.obj
 0002:00003090       ?rttiTable@@3QBUStringLiteral@@B 0000000180029090     libvcruntime:undname.obj
 0002:000030e0       ?IndirectionName@@3QBUStringLiteral@@B 00000001800290e0     libvcruntime:undname.obj
 0002:00003140       ?PrefixName@@3QBUStringLiteral@@B 0000000180029140     libvcruntime:undname.obj
 0002:00003828       ?module_names@?A0xbc0cc709@@3QBQEB_WB 0000000180029828     libvcruntime:winapi_downlevel.obj
 0002:000038e8       ?candidate_modules@?1??try_get_FlsAlloc@@YAP6AKP6AXPEAX@Z@ZXZ@4QBW4module_id@?A0xbc0cc709@@B 00000001800298e8     libvcruntime:winapi_downlevel.obj
 0002:00003900       ?candidate_modules@?1??try_get_FlsFree@@YAP6AHK@ZXZ@4QBW4module_id@?A0xbc0cc709@@B 0000000180029900     libvcruntime:winapi_downlevel.obj
 0002:00003910       ?candidate_modules@?1??try_get_FlsGetValue@@YAP6APEAXK@ZXZ@4QBW4module_id@?A0xbc0cc709@@B 0000000180029910     libvcruntime:winapi_downlevel.obj
 0002:00003928       ?candidate_modules@?1??try_get_FlsSetValue@@YAP6AHKPEAX@ZXZ@4QBW4module_id@?A0xbc0cc709@@B 0000000180029928     libvcruntime:winapi_downlevel.obj
 0002:00003940       ?candidate_modules@?1??try_get_InitializeCriticalSectionEx@@YAP6AHPEAU_RTL_CRITICAL_SECTION@@KK@ZXZ@4QBW4module_id@?A0xbc0cc709@@B 0000000180029940     libvcruntime:winapi_downlevel.obj
 0002:00003970       ?errtable@@3QBUerrentry@?A0x31fdb9ec@@B 0000000180029970     libucrt:errno.obj
 0002:00003cd8       $cppxdata$?try_cor_exit_process@@YAXI@Z 0000000180029cd8     libucrt:exit.obj
 0002:00003d00       $cppxdata$?common_exit@@YAXHW4_crt_exit_cleanup_mode@@W4_crt_exit_return_mode@@@Z 0000000180029d00     libucrt:exit.obj
 0002:00003d50       $cppxdata$__dcrt_uninitialize_environments_nolock 0000000180029d50     libucrt:environment_initialization.obj
 0002:00003d78       $cppxdata$_execute_onexit_table 0000000180029d78     libucrt:onexit.obj
 0002:00003da0       __acrt_initializers        0000000180029da0     libucrt:initialization.obj
 0002:00004520       ?module_names@?A0x391cf84c@@3QBQEB_WB 000000018002a520     libucrt:winapi_thunks.obj
 0002:00004a28       ?candidate_modules@?1??try_get_AreFileApisANSI@@YAP6AHXZXZ@4QBW4module_id@?A0x391cf84c@@B 000000018002aa28     libucrt:winapi_thunks.obj
 0002:00004a40       ?candidate_modules@?1??try_get_InitializeCriticalSectionEx@@YAP6AHPEAU_RTL_CRITICAL_SECTION@@KK@ZXZ@4QBW4module_id@?A0x391cf84c@@B 000000018002aa40     libucrt:winapi_thunks.obj
 0002:00004a48       ?candidate_modules@?1??try_get_LCMapStringEx@@YAP6AHPEB_WK0HPEA_WHPEAU_nlsversioninfo@@PEAX_J@ZXZ@4QBW4module_id@?A0x391cf84c@@B 000000018002aa48     libucrt:winapi_thunks.obj
 0002:00004a60       ?candidate_modules@?1??try_get_LocaleNameToLCID@@YAP6AKPEB_WK@ZXZ@4QBW4module_id@?A0x391cf84c@@B 000000018002aa60     libucrt:winapi_thunks.obj
 0002:00004a7c       ?candidate_modules@?1??try_get_AppPolicyGetProcessTerminationMethod@@YAP6AJPEAXPEAW4AppPolicyProcessTerminationMethod@@@ZXZ@4QBW4module_id@?A0x391cf84c@@B 000000018002aa7c     libucrt:winapi_thunks.obj
 0002:00004aa8       ?candidate_modules@?1??try_get_SetThreadStackGuarantee@@YAP6AHPEAK@ZXZ@4QBW4module_id@?A0x391cf84c@@B 000000018002aaa8     libucrt:winapi_thunks.obj
 0002:00004ad0       ?strings@?1??fp_format_nan_or_infinity@@YAHW4__acrt_fp_class@@_NPEAD_K1@Z@4QAY03QEBDA 000000018002aad0     libucrt:cvt.obj
 0002:00004ba8       ?_mb_locale_names@@3QBQEB_WB 000000018002aba8     libucrt:mbctype.obj
 0002:00005220       ?LcidToLocaleNameTable@?A0x881e4c05@@3QBULcidToLocaleName@1@B 000000018002b220     libucrt:lcidtoname_downlevel.obj
 0002:00006c70       ?LocaleNameToIndexTable@?A0x881e4c05@@3QBULocaleNameIndex@1@B 000000018002cc70     libucrt:lcidtoname_downlevel.obj
 0002:00008f00       $cppxdata$?write_double_translated_ansi_nolock@@YA?AUwrite_result@?A0x17268360@@HQEBDIAEAV__crt_cached_ptd_host@@@Z 000000018002ef00     libucrt:write.obj
 0002:00008f30       __real_ninf                000000018002ef30     libucrt:log10.obj
 0002:00008f40       __real_inf                 000000018002ef40     libucrt:log10.obj
 0002:00008f50       __real_neg_qnan            000000018002ef50     libucrt:log10.obj
 0002:00008f60       __real_qnanbit             000000018002ef60     libucrt:log10.obj
 0002:00008f70       __int_1023                 000000018002ef70     libucrt:log10.obj
 0002:00008f80       __mask_001                 000000018002ef80     libucrt:log10.obj
 0002:00008f90       __mask_mant                000000018002ef90     libucrt:log10.obj
 0002:00008fa0       __mask_mant_top8           000000018002efa0     libucrt:log10.obj
 0002:00008fb0       __mask_mant9               000000018002efb0     libucrt:log10.obj
 0002:00008fc0       __real_log10_e             000000018002efc0     libucrt:log10.obj
 0002:00008fd0       __real_log10_e_lead        000000018002efd0     libucrt:log10.obj
 0002:00008fe0       __real_log10_e_tail        000000018002efe0     libucrt:log10.obj
 0002:00008ff0       __real_log10_2_lead        000000018002eff0     libucrt:log10.obj
 0002:00009000       __real_log10_2_tail        000000018002f000     libucrt:log10.obj
 0002:00009010       __real_two                 000000018002f010     libucrt:log10.obj
 0002:00009020       __real_one                 000000018002f020     libucrt:log10.obj
 0002:00009030       __real_half                000000018002f030     libucrt:log10.obj
 0002:00009040       __mask_100                 000000018002f040     libucrt:log10.obj
 0002:00009050       __real_1_over_512          000000018002f050     libucrt:log10.obj
 0002:00009060       __real_1_over_2            000000018002f060     libucrt:log10.obj
 0002:00009070       __real_1_over_3            000000018002f070     libucrt:log10.obj
 0002:00009080       __real_1_over_4            000000018002f080     libucrt:log10.obj
 0002:00009090       __real_1_over_5            000000018002f090     libucrt:log10.obj
 0002:000090a0       __real_1_over_6            000000018002f0a0     libucrt:log10.obj
 0002:000090b0       __real_neg_1023            000000018002f0b0     libucrt:log10.obj
 0002:000090c0       __mask_2045                000000018002f0c0     libucrt:log10.obj
 0002:000090d0       __real_threshold           000000018002f0d0     libucrt:log10.obj
 0002:000090e0       __real_near_one_lt         000000018002f0e0     libucrt:log10.obj
 0002:000090f0       __real_near_one_gt         000000018002f0f0     libucrt:log10.obj
 0002:00009100       __real_min_norm            000000018002f100     libucrt:log10.obj
 0002:00009110       __real_notsign             000000018002f110     libucrt:log10.obj
 0002:00009120       __real_ca1                 000000018002f120     libucrt:log10.obj
 0002:00009130       __real_ca2                 000000018002f130     libucrt:log10.obj
 0002:00009140       __real_ca3                 000000018002f140     libucrt:log10.obj
 0002:00009150       __real_ca4                 000000018002f150     libucrt:log10.obj
 0002:00009160       __mask_lower               000000018002f160     libucrt:log10.obj
 0002:00009170       __flag_x_zero              000000018002f170     libucrt:log10.obj
 0002:00009174       __flag_x_neg               000000018002f174     libucrt:log10.obj
 0002:00009178       __flag_x_nan               000000018002f178     libucrt:log10.obj
 0002:0000a9d0       __real@433fffffffffffff    00000001800309d0     libucrt:fpsr.obj
 0002:0000a9d8       __real@c33fffffffffffff    00000001800309d8     libucrt:fpsr.obj
 0002:0000b2d0       $unwind$?cw_memcpy@@YAHPEA_WPEBDH@Z 00000001800312d0     CWString.obj
 0002:0000b2d0       $unwind$_invalid_parameter_noinfo 00000001800312d0     libucrt:invalid_parameter.obj
 0002:0000b2d0       $unwind$?state_case_size@?$output_processor@_WV?$string_output_adapter@_W@__crt_stdio_output@@V?$format_validation_base@_WV?$string_output_adapter@_W@__crt_stdio_output@@@2@@__crt_stdio_output@@AEAA_NXZ 00000001800312d0     libucrt:output.obj
 0002:0000b2d0       $unwind$_log10_special     00000001800312d0     libucrt:log_special.obj
 0002:0000b2d8       $unwind$?cw_strcpy@@YAHPEA_WPEBD@Z 00000001800312d8     CWString.obj
 0002:0000b2d8       $unwind$??1OposDispParms@@QEAA@XZ 00000001800312d8     OposVariant.obj
 0002:0000b2d8       $unwind$??__E_AtlComModule@ATL@@YAXXZ 00000001800312d8     OposVariant.obj
 0002:0000b2d8       $unwind$??__E_AtlWinModule@ATL@@YAXXZ 00000001800312d8     OposVariant.obj
 0002:0000b2d8       $unwind$??__F_AtlWinModule@ATL@@YAXXZ 00000001800312d8     OposVariant.obj
 0002:0000b2d8       $unwind$?GetLONG@OposVariant@@QEAAJXZ 00000001800312d8     OposVariant.obj
 0002:0000b2d8       $unwind$??__E?pConnMap@?$IConnectionPointContainerImpl@VCOPOSVoiceRecognition@@@ATL@@0PEBU_ATL_CONNMAP_ENTRY@2@EB@@YAXXZ 00000001800312d8     VoiceRecognition.obj
 0002:0000b2d8       $unwind$?AddReplacement@CRegObject@ATL@@UEAAJPEB_W0@Z 00000001800312d8     VoiceRecognition.obj
 0002:0000b2d8       $unwind$?AtlHresultFromLastError@ATL@@YAJXZ 00000001800312d8     VoiceRecognition.obj
 0002:0000b2d8       $unwind$?AtlThrowImpl@ATL@@YAXJ@Z 00000001800312d8     VoiceRecognition.obj
 0002:0000b2d8       $unwind$?CreateInstance@CComClassFactory@ATL@@UEAAJPEAUIUnknown@@AEBU_GUID@@PEAPEAX@Z 00000001800312d8     VoiceRecognition.obj
 0002:0000b2d8       $unwind$?DefaultReflectionHandler@?$CWindowImplRoot@VCWindow@ATL@@@ATL@@SAHPEAUHWND__@@I_K_JAEA_J@Z 00000001800312d8     VoiceRecognition.obj
 0002:0000b2d8       $unwind$?EnumAdvise@?$IOleObjectImpl@VCOPOSVoiceRecognition@@@ATL@@UEAAJPEAPEAUIEnumSTATDATA@@@Z 00000001800312d8     VoiceRecognition.obj
 0002:0000b2d8       $unwind$?FireViewChange@CComControlBase@ATL@@QEAAJXZ 00000001800312d8     VoiceRecognition.obj
 0002:0000b2d8       $unwind$?GetAdvise@?$IViewObjectExImpl@VCOPOSVoiceRecognition@@@ATL@@UEAAJPEAK0PEAPEAUIAdviseSink@@@Z 00000001800312d8     VoiceRecognition.obj
 0002:0000b2d8       $unwind$?LockServer@CComClassFactory@ATL@@UEAAJH@Z 00000001800312d8     VoiceRecognition.obj
 0002:0000b2d8       $unwind$?OnDocWindowActivate@?$IOleInPlaceActiveObjectImpl@VCOPOSVoiceRecognition@@@ATL@@UEAAJH@Z 00000001800312d8     VoiceRecognition.obj
 0002:0000b2d8       $unwind$?Unadvise@?$IOleObjectImpl@VCOPOSVoiceRecognition@@@ATL@@UEAAJK@Z 00000001800312d8     VoiceRecognition.obj
 0002:0000b2d8       $unwind$?_LocCPQueryInterface@?$IConnectionPointImpl@VCOPOSVoiceRecognition@@$1?DIID__IOPOSVoiceRecognitionEvents@@3U_GUID@@BVCComDynamicUnkArray@ATL@@@ATL@@UEAAJAEBU_GUID@@PEAPEAX@Z 00000001800312d8     VoiceRecognition.obj
 0002:0000b2d8       $unwind$?_LocCPQueryInterface@?$IConnectionPointImpl@VCOPOSVoiceRecognition@@$1?IID_IPropertyNotifySink@@3U_GUID@@BVCComDynamicUnkArray@ATL@@@ATL@@UEAAJAEBU_GUID@@PEAPEAX@Z 00000001800312d8     VoiceRecognition.obj
 0002:0000b2d8       $unwind$?FinalConstruct@COPOSVoiceRecognition@@QEAAJXZ 00000001800312d8     VoiceRecognitionImpl.obj
 0002:0000b2d8       $unwind$?get_ResultCode@COPOSVoiceRecognition@@UEAAJPEAJ@Z 00000001800312d8     VoiceRecognitionImpl.obj
 0002:0000b2d8       $unwind$?get_State@COPOSVoiceRecognition@@UEAAJPEAJ@Z 00000001800312d8     VoiceRecognitionImpl.obj
 0002:0000b2d8       $unwind$__dcrt_terminate_console_output 00000001800312d8     libucrt:initcon.obj
 0002:0000b2d8       $unwind$??$uninitialize_environment_internal@D@@YAXAEAPEAPEAD@Z 00000001800312d8     libucrt:environment_initialization.obj
 0002:0000b2d8       $unwind$??$uninitialize_environment_internal@_W@@YAXAEAPEAPEA_W@Z 00000001800312d8     libucrt:environment_initialization.obj
 0002:0000b2d8       $unwind$__acrt_initialize_heap 00000001800312d8     libucrt:heap_handle.obj
 0002:0000b2d8       $unwind$_msize_base        00000001800312d8     libucrt:msize.obj
 0002:0000b2d8       $unwind$?initialize_multibyte@@YAHXZ 00000001800312d8     libucrt:multibyte_initializer.obj
 0002:0000b2d8       $unwind$__acrt_thread_attach 00000001800312d8     libucrt:initialization.obj
 0002:0000b2d8       $unwind$__acrt_thread_detach 00000001800312d8     libucrt:initialization.obj
 0002:0000b2d8       $unwind$__acrt_uninitialize 00000001800312d8     libucrt:initialization.obj
 0002:0000b2d8       $unwind$__acrt_uninitialize_critical 00000001800312d8     libucrt:initialization.obj
 0002:0000b2d8       $unwind$initialize_c       00000001800312d8     libucrt:initialization.obj
 0002:0000b2d8       $unwind$uninitialize_allocated_io_buffers 00000001800312d8     libucrt:initialization.obj
 0002:0000b2d8       $unwind$uninitialize_environment 00000001800312d8     libucrt:initialization.obj
 0002:0000b2d8       $unwind$__acrt_initialize_ptd 00000001800312d8     libucrt:per_thread_data.obj
 0002:0000b2d8       $unwind$__acrt_uninitialize_ptd 00000001800312d8     libucrt:per_thread_data.obj
 0002:0000b2d8       $unwind$__acrt_AreFileApisANSI 00000001800312d8     libucrt:winapi_thunks.obj
 0002:0000b2d8       $unwind$__acrt_release_locale_ref 00000001800312d8     libucrt:locale_refcounting.obj
 0002:0000b2d8       $unwind$_isatty            00000001800312d8     libucrt:isatty.obj
 0002:0000b2d8       $unwind$_get_osfhandle     00000001800312d8     libucrt:osfinfo.obj
 0002:0000b2d8       $unwind$__acrt_initialize_multibyte 00000001800312d8     libucrt:mbctype.obj
 0002:0000b2d8       $unwind$__acrt_update_thread_multibyte_data 00000001800312d8     libucrt:mbctype.obj
 0002:0000b2d8       $unwind$__doserrno         00000001800312d8     libucrt:errno.obj
 0002:0000b2d8       $unwind$_errno             00000001800312d8     libucrt:errno.obj
 0002:0000b2d8       $unwind$_invoke_watson     00000001800312d8     libucrt:invalid_parameter.obj
 0002:0000b2d8       $unwind$abort              00000001800312d8     libucrt:abort.obj
 0002:0000b2d8       $unwind$__acrt_initialize_command_line 00000001800312d8     libucrt:argv_data.obj
 0002:0000b2d8       $unwind$?should_call_terminate_process@@YA_NXZ 00000001800312d8     libucrt:exit.obj
 0002:0000b2d8       $unwind$_fileno            00000001800312d8     libucrt:fileno.obj
 0002:0000b2d8       $unwind$_statfp            00000001800312d8     libucrt:fpctrl.obj
 0002:0000b2d8       $unwind$fegetround         00000001800312d8     libucrt:fegetround.obj
 0002:0000b2d8       $unwind$_set_errno_from_matherr 00000001800312d8     libucrt:fpexcept.obj
 0002:0000b2d8       $unwind$??__E_AtlBaseModule@ATL@@YAXXZ 00000001800312d8     atls:atlbase.obj
 0002:0000b2d8       $unwind$__scrt_initialize_default_local_stdio_options 00000001800312d8     LIBCMT:default_local_stdio_options.obj
 0002:0000b2d8       $unwind$?dllmain_crt_dispatch@@YAHQEAUHINSTANCE__@@KQEAX@Z 00000001800312d8     LIBCMT:dll_dllmain.obj
 0002:0000b2d8       $unwind$__report_rangecheckfailure 00000001800312d8     LIBCMT:gs_report.obj
 0002:0000b2d8       $unwind$__GSHandlerCheck   00000001800312d8     LIBCMT:gshandler.obj
 0002:0000b2d8       $unwind$?__scrt_uninitialize_thread_safe_statics@@YAXXZ 00000001800312d8     LIBCMT:thread_safe_statics.obj
 0002:0000b2d8       $unwind$_Init_thread_notify 00000001800312d8     LIBCMT:thread_safe_statics.obj
 0002:0000b2d8       $unwind$__scrt_acquire_startup_lock 00000001800312d8     LIBCMT:utility.obj
 0002:0000b2d8       $unwind$__scrt_dllmain_after_initialize_c 00000001800312d8     LIBCMT:utility.obj
 0002:0000b2d8       $unwind$__scrt_dllmain_before_initialize_c 00000001800312d8     LIBCMT:utility.obj
 0002:0000b2d8       $unwind$__scrt_dllmain_crt_thread_attach 00000001800312d8     LIBCMT:utility.obj
 0002:0000b2d8       $unwind$__scrt_dllmain_crt_thread_detach 00000001800312d8     LIBCMT:utility.obj
 0002:0000b2d8       $unwind$__scrt_dllmain_uninitialize_c 00000001800312d8     LIBCMT:utility.obj
 0002:0000b2d8       $unwind$__scrt_dllmain_uninitialize_critical 00000001800312d8     LIBCMT:utility.obj
 0002:0000b2d8       $unwind$atexit             00000001800312d8     LIBCMT:utility.obj
 0002:0000b2d8       $unwind$__std_terminate    00000001800312d8     libvcruntime:ehhelpers.obj
 0002:0000b2d8       $unwind$?GetCurrentState@__FrameHandler3@@SAHPEA_KPEAU_xDISPATCHER_CONTEXT@@PEBU_s_FuncInfo@@@Z 00000001800312d8     libvcruntime:ehstate.obj
 0002:0000b2d8       $unwind$__vcrt_initialize  00000001800312d8     libvcruntime:initialization.obj
 0002:0000b2d8       $unwind$__vcrt_thread_attach 00000001800312d8     libvcruntime:initialization.obj
 0002:0000b2d8       $unwind$__vcrt_thread_detach 00000001800312d8     libvcruntime:initialization.obj
 0002:0000b2d8       $unwind$__vcrt_uninitialize 00000001800312d8     libvcruntime:initialization.obj
 0002:0000b2d8       $unwind$__vcrt_uninitialize_critical 00000001800312d8     libvcruntime:initialization.obj
 0002:0000b2d8       $unwind$__vcrt_freefls     00000001800312d8     libvcruntime:per_thread_data.obj
 0002:0000b2d8       $unwind$__vcrt_getptd      00000001800312d8     libvcruntime:per_thread_data.obj
 0002:0000b2d8       $unwind$__vcrt_initialize_ptd 00000001800312d8     libvcruntime:per_thread_data.obj
 0002:0000b2d8       $unwind$__vcrt_uninitialize_ptd 00000001800312d8     libvcruntime:per_thread_data.obj
 0002:0000b2d8       $unwind$_purecall          00000001800312d8     libvcruntime:purevirt.obj
 0002:0000b2d8       $unwind$?FrameUnwindToEmptyState@__FrameHandler4@@SAXPEA_KPEAU_xDISPATCHER_CONTEXT@@PEAUFuncInfo4@FH4@@@Z 00000001800312d8     libvcruntime:risctrnsctrl.obj
 0002:0000b2d8       $unwind$_GetImageBase      00000001800312d8     libvcruntime:risctrnsctrl.obj
 0002:0000b2d8       $unwind$_GetThrowImageBase 00000001800312d8     libvcruntime:risctrnsctrl.obj
 0002:0000b2e0       $unwind$?cw_dup@@YAXPEBDAEAHAEAPEA_W1@Z 00000001800312e0     CWString.obj
 0002:0000b2e0       $unwind$?DAdvise@?$IDataObjectImpl@VCOPOSVoiceRecognition@@@ATL@@UEAAJPEAUtagFORMATETC@@KPEAUIAdviseSink@@PEAK@Z 00000001800312e0     VoiceRecognition.obj
 0002:0000b2e0       $unwind$??$create_environment@D@@YAQEAPEADQEAD@Z 00000001800312e0     libucrt:environment_initialization.obj
 0002:0000b2e0       $unwind$_mbtowc_internal   00000001800312e0     libucrt:mbtowc.obj
 0002:0000b2e0       $unwind$??$__acrt_convert_wcs_mbs_cp@D_WV<lambda_7c9dea7b4ca7285d2cdb541a38da6275>@@U__crt_win32_buffer_internal_dynamic_resizing@@@@YAHQEBDAEAV?$__crt_win32_buffer@_WU__crt_win32_buffer_internal_dynamic_resizing@@@@AEBV<lambda_7c9dea7b4ca7285d2cdb541a38da6275>@@I@Z 00000001800312e0     libucrt:argv_wildcards.obj
 0002:0000b2e0       $unwind$?process@?$output_processor@_WV?$string_output_adapter@_W@__crt_stdio_output@@V?$format_validation_base@_WV?$string_output_adapter@_W@__crt_stdio_output@@@2@@__crt_stdio_output@@QEAAHXZ 00000001800312e0     libucrt:output.obj
 0002:0000b2f8       $unwind$?DupWide@_CW@@AEAAXXZ 00000001800312f8     CWString.obj
 0002:0000b2f8       $unwind$??0CAtlComModule@ATL@@QEAA@XZ 00000001800312f8     OposVariant.obj
 0002:0000b2f8       $unwind$??0CAtlWinModule@ATL@@QEAA@XZ 00000001800312f8     OposVariant.obj
 0002:0000b2f8       $unwind$??0?$CComObject@VCOPOSVoiceRecognition@@@ATL@@QEAA@PEAX@Z 00000001800312f8     VoiceRecognition.obj
 0002:0000b2f8       $unwind$??0CAtlModule@ATL@@QEAA@XZ 00000001800312f8     VoiceRecognition.obj
 0002:0000b2f8       $unwind$??1?$CComObject@VCOPOSVoiceRecognition@@@ATL@@UEAA@XZ 00000001800312f8     VoiceRecognition.obj
 0002:0000b2f8       $unwind$??__E_Module@@YAXXZ 00000001800312f8     VoiceRecognition.obj
 0002:0000b2f8       $unwind$?AddRef@?$CComObjectCached@VCComClassFactory@ATL@@@ATL@@UEAAKXZ 00000001800312f8     VoiceRecognition.obj
 0002:0000b2f8       $unwind$?AllocateHeap@?$CTempBuffer@E$0BAA@VCCRTAllocator@ATL@@@ATL@@AEAAX_K@Z 00000001800312f8     VoiceRecognition.obj
 0002:0000b2f8       $unwind$?AllocateHeap@?$CTempBuffer@_W$0BAA@VCCRTAllocator@ATL@@@ATL@@AEAAX_K@Z 00000001800312f8     VoiceRecognition.obj
 0002:0000b2f8       $unwind$?AllocateHeap@?$CTempBuffer@_W$0EAA@VCCRTAllocator@ATL@@@ATL@@AEAAX_K@Z 00000001800312f8     VoiceRecognition.obj
 0002:0000b2f8       $unwind$?GetClassInfoW@?$IProvideClassInfo2Impl@$1?CLSID_OPOSVoiceRecognition@@3U_GUID@@B$1?DIID__IOPOSVoiceRecognitionEvents@@3U2@B$1?LIBID_OposVoiceRecognition_CCO@@3U2@B$00$0A@VCComTypeInfoHolder@ATL@@@ATL@@UEAAJPEAPEAUITypeInfo@@@Z 00000001800312f8     VoiceRecognition.obj
 0002:0000b2f8       $unwind$?GetClientSite@?$IOleObjectImpl@VCOPOSVoiceRecognition@@@ATL@@UEAAJPEAPEAUIOleClientSite@@@Z 00000001800312f8     VoiceRecognition.obj
 0002:0000b2f8       $unwind$?GetConnMap@COPOSVoiceRecognition@@SAPEBU_ATL_CONNMAP_ENTRY@ATL@@PEAH@Z 00000001800312f8     VoiceRecognition.obj
 0002:0000b2f8       $unwind$?GetTypeInfo@?$IDispatchImpl@UIOPOSVoiceRecognition@@$1?IID_IOPOSVoiceRecognition@@3U_GUID@@B$1?LIBID_OposVoiceRecognition_CCO@@3U3@B$00$0A@VCComTypeInfoHolder@ATL@@@ATL@@UEAAJIKPEAPEAUITypeInfo@@@Z 00000001800312f8     VoiceRecognition.obj
 0002:0000b2f8       $unwind$?IOleInPlaceObject_InPlaceDeactivate@CComControlBase@ATL@@QEAAJXZ 00000001800312f8     VoiceRecognition.obj
 0002:0000b2f8       $unwind$?IOleObject_SetExtent@CComControlBase@ATL@@QEAAJKPEAUtagSIZE@@@Z 00000001800312f8     VoiceRecognition.obj
 0002:0000b2f8       $unwind$?IsEqualObject@?$CComPtrBase@UIOleClientSite@@@ATL@@QEAA_NPEAUIUnknown@@@Z 00000001800312f8     VoiceRecognition.obj
 0002:0000b2f8       $unwind$?QueryHitPoint@?$IViewObjectExImpl@VCOPOSVoiceRecognition@@@ATL@@UEAAJKPEBUtagRECT@@UtagPOINT@@JPEAK@Z 00000001800312f8     VoiceRecognition.obj
 0002:0000b2f8       $unwind$?QueryInterface@?$CComAggObject@VCOPOSVoiceRecognition@@@ATL@@UEAAJAEBU_GUID@@PEAPEAX@Z 00000001800312f8     VoiceRecognition.obj
 0002:0000b2f8       $unwind$?Release@?$CComObjectCached@VCComClassFactory@ATL@@@ATL@@UEAAKXZ 00000001800312f8     VoiceRecognition.obj
 0002:0000b2f8       $unwind$?Unadvise@?$IConnectionPointImpl@VCOPOSVoiceRecognition@@$1?DIID__IOPOSVoiceRecognitionEvents@@3U_GUID@@BVCComDynamicUnkArray@ATL@@@ATL@@UEAAJK@Z 00000001800312f8     VoiceRecognition.obj
 0002:0000b2f8       $unwind$?Unadvise@?$IConnectionPointImpl@VCOPOSVoiceRecognition@@$1?IID_IPropertyNotifySink@@3U_GUID@@BVCComDynamicUnkArray@ATL@@@ATL@@UEAAJK@Z 00000001800312f8     VoiceRecognition.obj
 0002:0000b2f8       $unwind$??1CComControlBase@ATL@@UEAA@XZ 00000001800312f8     VoiceRecognitionImpl.obj
 0002:0000b2f8       $unwind$??1COPOSVoiceRecognition@@UEAA@XZ 00000001800312f8     VoiceRecognitionImpl.obj
 0002:0000b2f8       $unwind$?EventUninit@COPOSVoiceRecognition@@IEAAXXZ 00000001800312f8     VoiceRecognitionImpl.obj
 0002:0000b2f8       $unwind$?FreezeEvents@COPOSVoiceRecognition@@MEAAJH@Z 00000001800312f8     VoiceRecognitionImpl.obj
 0002:0000b2f8       $unwind$?SOProcessID@COPOSVoiceRecognition@@UEAAJPEAJ@Z 00000001800312f8     VoiceRecognitionImpl.obj
 0002:0000b2f8       $unwind$?get_AutoDisable@COPOSVoiceRecognition@@UEAAJPEAF@Z 00000001800312f8     VoiceRecognitionImpl.obj
 0002:0000b2f8       $unwind$?get_CapCompareFirmwareVersion@COPOSVoiceRecognition@@UEAAJPEAF@Z 00000001800312f8     VoiceRecognitionImpl.obj
 0002:0000b2f8       $unwind$?get_CapLanguage@COPOSVoiceRecognition@@UEAAJPEAF@Z 00000001800312f8     VoiceRecognitionImpl.obj
 0002:0000b2f8       $unwind$?get_CapStatisticsReporting@COPOSVoiceRecognition@@UEAAJPEAF@Z 00000001800312f8     VoiceRecognitionImpl.obj
 0002:0000b2f8       $unwind$?get_CapUpdateFirmware@COPOSVoiceRecognition@@UEAAJPEAF@Z 00000001800312f8     VoiceRecognitionImpl.obj
 0002:0000b2f8       $unwind$?get_CapUpdateStatistics@COPOSVoiceRecognition@@UEAAJPEAF@Z 00000001800312f8     VoiceRecognitionImpl.obj
 0002:0000b2f8       $unwind$?get_Claimed@COPOSVoiceRecognition@@UEAAJPEAF@Z 00000001800312f8     VoiceRecognitionImpl.obj
 0002:0000b2f8       $unwind$?get_DataEventEnabled@COPOSVoiceRecognition@@UEAAJPEAF@Z 00000001800312f8     VoiceRecognitionImpl.obj
 0002:0000b2f8       $unwind$?get_DeviceEnabled@COPOSVoiceRecognition@@UEAAJPEAF@Z 00000001800312f8     VoiceRecognitionImpl.obj
 0002:0000b2f8       $unwind$?get_FreezeEvents@COPOSVoiceRecognition@@UEAAJPEAF@Z 00000001800312f8     VoiceRecognitionImpl.obj
 0002:0000b2f8       $unwind$?put_FreezeEvents@COPOSVoiceRecognition@@UEAAJF@Z 00000001800312f8     VoiceRecognitionImpl.obj
 0002:0000b2f8       $unwind$_calloc_base       00000001800312f8     libucrt:calloc_base.obj
 0002:0000b2f8       $unwind$_malloc_base       00000001800312f8     libucrt:malloc_base.obj
 0002:0000b2f8       $unwind$_callnewh          00000001800312f8     libucrt:new_handler.obj
 0002:0000b2f8       $unwind$initialize_pointers 00000001800312f8     libucrt:initialization.obj
 0002:0000b2f8       $unwind$uninitialize_allocated_memory 00000001800312f8     libucrt:initialization.obj
 0002:0000b2f8       $unwind$__acrt_initialize_locks 00000001800312f8     libucrt:locks.obj
 0002:0000b2f8       $unwind$__acrt_uninitialize_locks 00000001800312f8     libucrt:locks.obj
 0002:0000b2f8       $unwind$__acrt_freeptd     00000001800312f8     libucrt:per_thread_data.obj
 0002:0000b2f8       $unwind$__acrt_getptd_head 00000001800312f8     libucrt:per_thread_data.obj
 0002:0000b2f8       $unwind$__acrt_get_process_end_policy 00000001800312f8     libucrt:win_policies.obj
 0002:0000b2f8       $unwind$__acrt_AppPolicyGetProcessTerminationMethodInternal 00000001800312f8     libucrt:winapi_thunks.obj
 0002:0000b2f8       $unwind$__acrt_SetThreadStackGuarantee 00000001800312f8     libucrt:winapi_thunks.obj
 0002:0000b2f8       $unwind$__acrt_uninitialize_winapi_thunks 00000001800312f8     libucrt:winapi_thunks.obj
 0002:0000b2f8       $unwind$__acrt_update_locale_info 00000001800312f8     libucrt:locale_update.obj
 0002:0000b2f8       $unwind$__acrt_update_locale_info_explicit 00000001800312f8     libucrt:locale_update.obj
 0002:0000b2f8       $unwind$__acrt_update_multibyte_info 00000001800312f8     libucrt:locale_update.obj
 0002:0000b2f8       $unwind$__acrt_update_multibyte_info_explicit 00000001800312f8     libucrt:locale_update.obj
 0002:0000b2f8       $unwind$__acrt_errno_map_os_error 00000001800312f8     libucrt:errno.obj
 0002:0000b2f8       $unwind$__acrt_errno_map_os_error_ptd 00000001800312f8     libucrt:errno.obj
 0002:0000b2f8       $unwind$__acrt_allocate_buffer_for_argv 00000001800312f8     libucrt:argv_parsing.obj
 0002:0000b2f8       $unwind$?exit_or_terminate_process@@YAXI@Z 00000001800312f8     libucrt:exit.obj
 0002:0000b2f8       $unwind$__acrt_uninitialize_stdio 00000001800312f8     libucrt:_file.obj
 0002:0000b2f8       $unwind$__acrt_stdio_free_buffer_nolock 00000001800312f8     libucrt:_freebuf.obj
 0002:0000b2f8       $unwind$strcpy_s           00000001800312f8     libucrt:strcpy_s.obj
 0002:0000b2f8       $unwind$wcscat_s           00000001800312f8     libucrt:wcscat_s.obj
 0002:0000b2f8       $unwind$wcscpy_s           00000001800312f8     libucrt:wcscpy_s.obj
 0002:0000b2f8       $unwind$_clrfp             00000001800312f8     libucrt:fpctrl.obj
 0002:0000b2f8       $unwind$_set_statfp        00000001800312f8     libucrt:fpctrl.obj
 0002:0000b2f8       $unwind$_clearfp           00000001800312f8     libucrt:ieee.obj
 0002:0000b2f8       $unwind$_controlfp_s       00000001800312f8     libucrt:contrlfp.obj
 0002:0000b2f8       $unwind$fegetenv           00000001800312f8     libucrt:fegetenv.obj
 0002:0000b2f8       $unwind$feholdexcept       00000001800312f8     libucrt:feholdexcept.obj
 0002:0000b2f8       $unwind$fesetenv           00000001800312f8     libucrt:fesetenv.obj
 0002:0000b2f8       $unwind$??1CAtlBaseModule@ATL@@QEAA@XZ 00000001800312f8     atls:atlbase.obj
 0002:0000b2f8       $unwind$AtlThunk_AllocateData 00000001800312f8     atls:atlthunk.obj
 0002:0000b2f8       $unwind$__raise_securityfailure 00000001800312f8     LIBCMT:gs_report.obj
 0002:0000b2f8       $unwind$??2@YAPEAX_K@Z     00000001800312f8     LIBCMT:new_scalar.obj
 0002:0000b2f8       $unwind$??_Gtype_info@@UEAAPEAXI@Z 00000001800312f8     LIBCMT:std_type_info_static.obj
 0002:0000b2f8       $unwind$_Init_thread_footer 00000001800312f8     LIBCMT:thread_safe_statics.obj
 0002:0000b2f8       $unwind$_Init_thread_header 00000001800312f8     LIBCMT:thread_safe_statics.obj
 0002:0000b2f8       $unwind$_Init_thread_wait  00000001800312f8     LIBCMT:thread_safe_statics.obj
 0002:0000b2f8       $unwind$??0bad_alloc@std@@QEAA@AEBV01@@Z 00000001800312f8     LIBCMT:throw_bad_alloc.obj
 0002:0000b2f8       $unwind$??0bad_array_new_length@std@@QEAA@AEBV01@@Z 00000001800312f8     LIBCMT:throw_bad_alloc.obj
 0002:0000b2f8       $unwind$??0exception@std@@QEAA@AEBV01@@Z 00000001800312f8     LIBCMT:throw_bad_alloc.obj
 0002:0000b2f8       $unwind$__scrt_initialize_crt 00000001800312f8     LIBCMT:utility.obj
 0002:0000b2f8       $unwind$__scrt_initialize_onexit_tables 00000001800312f8     LIBCMT:utility.obj
 0002:0000b2f8       $unwind$__scrt_release_startup_lock 00000001800312f8     LIBCMT:utility.obj
 0002:0000b2f8       $unwind$__scrt_uninitialize_crt 00000001800312f8     LIBCMT:utility.obj
 0002:0000b2f8       $unwind$_onexit            00000001800312f8     LIBCMT:utility.obj
 0002:0000b2f8       $unwind$_IsExceptionObjectToBeDestroyed 00000001800312f8     libvcruntime:ehhelpers.obj
 0002:0000b2f8       $unwind$?GetUnwindTryBlock@__FrameHandler3@@SAHPEA_KPEAU_xDISPATCHER_CONTEXT@@PEBU_s_FuncInfo@@@Z 00000001800312f8     libvcruntime:ehstate.obj
 0002:0000b2f8       $unwind$?StateFromIp@__FrameHandler3@@SAHPEBU_s_FuncInfo@@PEAU_xDISPATCHER_CONTEXT@@_K@Z 00000001800312f8     libvcruntime:ehstate.obj
 0002:0000b2f8       $unwind$??0HandlerMap4@FH4@@QEAA@PEBUTryBlockMapEntry4@1@_KH@Z 00000001800312f8     libvcruntime:frame.obj
 0002:0000b2f8       $unwind$??0bad_exception@std@@QEAA@AEBV01@@Z 00000001800312f8     libvcruntime:frame.obj
 0002:0000b2f8       $unwind$__vcrt_initialize_locks 00000001800312f8     libvcruntime:locks.obj
 0002:0000b2f8       $unwind$__vcrt_uninitialize_locks 00000001800312f8     libvcruntime:locks.obj
 0002:0000b2f8       $unwind$__vcrt_freeptd     00000001800312f8     libvcruntime:per_thread_data.obj
 0002:0000b2f8       $unwind$?ExecutionInCatch@__FrameHandler3@@SA_NPEAU_xDISPATCHER_CONTEXT@@PEBU_s_FuncInfo@@@Z 00000001800312f8     libvcruntime:risctrnsctrl.obj
 0002:0000b2f8       $unwind$_CreateFrameInfo   00000001800312f8     libvcruntime:risctrnsctrl.obj
 0002:0000b2f8       $unwind$_SetImageBase      00000001800312f8     libvcruntime:risctrnsctrl.obj
 0002:0000b2f8       $unwind$_SetThrowImageBase 00000001800312f8     libvcruntime:risctrnsctrl.obj
 0002:0000b2f8       $unwind$__std_exception_destroy 00000001800312f8     libvcruntime:std_exception.obj
 0002:0000b2f8       $unwind$__std_type_info_destroy_list 00000001800312f8     libvcruntime:std_type_info.obj
 0002:0000b2f8       $unwind$__vcrt_FlsAlloc    00000001800312f8     libvcruntime:winapi_downlevel.obj
 0002:0000b2f8       $unwind$__vcrt_FlsFree     00000001800312f8     libvcruntime:winapi_downlevel.obj
 0002:0000b2f8       $unwind$__vcrt_FlsGetValue 00000001800312f8     libvcruntime:winapi_downlevel.obj
 0002:0000b300       $unwind$?AtlWinModuleTerm@ATL@@YAJPEAU_ATL_WIN_MODULE70@1@PEAUHINSTANCE__@@@Z 0000000180031300     OposVariant.obj
 0002:0000b300       $unwind$?AtlWinModuleExtractCreateWndData@ATL@@YAPEAXPEAU_ATL_WIN_MODULE70@1@@Z 0000000180031300     VoiceRecognition.obj
 0002:0000b300       $unwind$?CreateInstance@?$CComCreator@V?$CComObject@VCOPOSVoiceRecognition@@@ATL@@@ATL@@SAJPEAXAEBU_GUID@@PEAPEAX@Z 0000000180031300     VoiceRecognition.obj
 0002:0000b300       $unwind$?DoEvent@COPOSVoiceRecognition@@IEAAXI_K_J@Z 0000000180031300     VoiceRecognition.obj
 0002:0000b300       $unwind$?DoVerb@?$IOleObjectImpl@VCOPOSVoiceRecognition@@@ATL@@UEAAJJPEAUtagMSG@@PEAUIOleClientSite@@JPEAUHWND__@@PEBUtagRECT@@@Z 0000000180031300     VoiceRecognition.obj
 0002:0000b300       $unwind$?HKeyFromString@CRegParser@ATL@@KAPEAUHKEY__@@PEA_W@Z 0000000180031300     VoiceRecognition.obj
 0002:0000b300       $unwind$?Next@?$CComEnumImpl@UIEnumConnectionPoints@@$1?_GUID_b196b285_bab4_101a_b69c_00aa00341d07@@3U__s_GUID@@BPEAUIConnectionPoint@@V?$_CopyInterface@UIConnectionPoint@@@ATL@@@ATL@@UEAAJKPEAPEAUIConnectionPoint@@PEAK@Z 0000000180031300     VoiceRecognition.obj
 0002:0000b300       $unwind$?Next@?$CComEnumImpl@UIEnumConnections@@$1?_GUID_b196b287_bab4_101a_b69c_00aa00341d07@@3U__s_GUID@@BUtagCONNECTDATA@@V?$_Copy@UtagCONNECTDATA@@@ATL@@@ATL@@UEAAJKPEAUtagCONNECTDATA@@PEAK@Z 0000000180031300     VoiceRecognition.obj
 0002:0000b300       $unwind$?SODirectIO@COPOSVoiceRecognition@@MEAAJJPEAJPEAPEA_W@Z 0000000180031300     VoiceRecognition.obj
 0002:0000b300       $unwind$?SetControlFocus@CComControlBase@ATL@@QEAAHH@Z 0000000180031300     VoiceRecognition.obj
 0002:0000b300       $unwind$?ocscpy_s@@YA_NPEA_W_KPEB_W@Z 0000000180031300     VoiceRecognition.obj
 0002:0000b300       $unwind$?s_EventWindowProc@COPOSVoiceRecognition@@KA_JPEAUHWND__@@I_K_J@Z 0000000180031300     VoiceRecognitionImpl.obj
 0002:0000b300       $unwind$_recalloc_base     0000000180031300     libucrt:recalloc.obj
 0002:0000b300       $unwind$__acrt_free_locale 0000000180031300     libucrt:locale_refcounting.obj
 0002:0000b300       $unwind$__acrt_lowio_create_handle_array 0000000180031300     libucrt:osfinfo.obj
 0002:0000b300       $unwind$_seh_filter_exe    0000000180031300     libucrt:exception_filter.obj
 0002:0000b300       $unwind$__acrt_stdio_flush_nolock 0000000180031300     libucrt:fflush.obj
 0002:0000b300       $unwind$??$ensure_buffer_is_big_enough@D@formatting_buffer@__crt_stdio_output@@QEAA_N_KAEAV__crt_cached_ptd_host@@@Z 0000000180031300     libucrt:output.obj
 0002:0000b300       $unwind$??$ensure_buffer_is_big_enough@_W@formatting_buffer@__crt_stdio_output@@QEAA_N_KAEAV__crt_cached_ptd_host@@@Z 0000000180031300     libucrt:output.obj
 0002:0000b300       $unwind$__scrt_dllmain_exception_filter 0000000180031300     LIBCMT:utility.obj
 0002:0000b300       $unwind$?GetHandlerSearchState@__FrameHandler3@@SAHPEA_KPEAU_xDISPATCHER_CONTEXT@@PEBU_s_FuncInfo@@@Z 0000000180031300     libvcruntime:frame.obj
 0002:0000b300       $unwind$?Is_bad_exception_allowed@@YAEPEBU_s_ESTypeList@@@Z 0000000180031300     libvcruntime:frame.obj
 0002:0000b300       $unwind$?CatchTryBlock@__FrameHandler3@@SAPEBU_s_TryBlockMapEntry@@PEBU_s_FuncInfo@@H@Z 0000000180031300     libvcruntime:risctrnsctrl.obj
 0002:0000b314       $unwind$??0OposDispParms@@QEAA@PEAVOposVariant@@H@Z 0000000180031314     OposVariant.obj
 0002:0000b314       $unwind$?SetBSTR_Copy@OposVariant@@QEAAXPEA_WAEAJ@Z 0000000180031314     OposVariant.obj
 0002:0000b314       $unwind$?SetBSTR_InOutPtr@OposVariant@@QEAA_NPEAPEA_WAEAJ@Z 0000000180031314     OposVariant.obj
 0002:0000b314       $unwind$?SetDispatch_Ptr@OposVariant@@QEAAXPEAUIDispatch@@AEAJ@Z 0000000180031314     OposVariant.obj
 0002:0000b314       $unwind$?SetLONG_Ptr@OposVariant@@QEAAXPEAJAEAJ@Z 0000000180031314     OposVariant.obj
 0002:0000b314       $unwind$?SetString@OposVariant@@QEAAXPEB_WAEAJ@Z 0000000180031314     OposVariant.obj
 0002:0000b314       $unwind$?Term@CAtlComModule@ATL@@QEAAXXZ 0000000180031314     OposVariant.obj
 0002:0000b314       $unwind$??_GCRegObject@ATL@@UEAAPEAXI@Z 0000000180031314     VoiceRecognition.obj
 0002:0000b314       $unwind$?Add@?$CSimpleArray@GV?$CSimpleArrayEqualHelper@G@ATL@@@ATL@@QEAAHAEBG@Z 0000000180031314     VoiceRecognition.obj
 0002:0000b314       $unwind$?Add@?$CSimpleMap@PEA_WPEA_WVCExpansionVectorEqualHelper@ATL@@@ATL@@QEAAHAEBQEA_W0@Z 0000000180031314     VoiceRecognition.obj
 0002:0000b314       $unwind$?Add@CComDynamicUnkArray@ATL@@QEAAKPEAUIUnknown@@@Z 0000000180031314     VoiceRecognition.obj
 0002:0000b314       $unwind$?Advise@?$IOleObjectImpl@VCOPOSVoiceRecognition@@@ATL@@UEAAJPEAUIAdviseSink@@PEAK@Z 0000000180031314     VoiceRecognition.obj
 0002:0000b314       $unwind$?ClearReplacements@CExpansionVector@ATL@@QEAAJXZ 0000000180031314     VoiceRecognition.obj
 0002:0000b314       $unwind$?CreateInstance@?$CComObject@V?$CComEnum@UIEnumConnectionPoints@@$1?_GUID_b196b285_bab4_101a_b69c_00aa00341d07@@3U__s_GUID@@BPEAUIConnectionPoint@@V?$_CopyInterface@UIConnectionPoint@@@ATL@@VCComSingleThreadModel@6@@ATL@@@ATL@@SAJPEAPEAV12@@Z 0000000180031314     VoiceRecognition.obj
 0002:0000b314       $unwind$?CreateInstance@?$CComObject@V?$CComEnum@UIEnumConnections@@$1?_GUID_b196b287_bab4_101a_b69c_00aa00341d07@@3U__s_GUID@@BUtagCONNECTDATA@@V?$_Copy@UtagCONNECTDATA@@@ATL@@VCComSingleThreadModel@6@@ATL@@@ATL@@SAJPEAPEAV12@@Z 0000000180031314     VoiceRecognition.obj
 0002:0000b314       $unwind$?RegisterServer@CComModule@ATL@@QEAAJHPEBU_GUID@@@Z 0000000180031314     VoiceRecognition.obj
 0002:0000b314       $unwind$?UnregisterServer@CComModule@ATL@@QEAAJHPEBU_GUID@@@Z 0000000180031314     VoiceRecognition.obj
 0002:0000b314       $unwind$?VTFromRegType@CRegParser@ATL@@KAHPEB_WAEAG@Z 0000000180031314     VoiceRecognition.obj
 0002:0000b314       $unwind$memcpy_s           0000000180031314     libucrt:cfout.obj
 0002:0000b314       $unwind$__acrt_getptd      0000000180031314     libucrt:per_thread_data.obj
 0002:0000b314       $unwind$__acrt_getptd_noexit 0000000180031314     libucrt:per_thread_data.obj
 0002:0000b314       $unwind$__acrt_getptd_noexit_explicit 0000000180031314     libucrt:per_thread_data.obj
 0002:0000b314       $unwind$__acrt_execute_initializers 0000000180031314     libucrt:shared_initialization.obj
 0002:0000b314       $unwind$__acrt_InitializeCriticalSectionEx 0000000180031314     libucrt:winapi_thunks.obj
 0002:0000b314       $unwind$_close_nolock_internal 0000000180031314     libucrt:close.obj
 0002:0000b314       $unwind$?value@?$dual_state_global@P6AXPEB_W00I_K@Z@__crt_state_management@@QEAAAEAP6AXPEB_W00I_K@ZAEAV__crt_cached_ptd_host@@@Z 0000000180031314     libucrt:invalid_parameter.obj
 0002:0000b314       $unwind$??0_LocaleUpdate@@QEAA@QEAU__crt_locale_pointers@@@Z 0000000180031314     libucrt:argv_wildcards.obj
 0002:0000b314       $unwind$?type_case_Z@?$output_processor@_WV?$string_output_adapter@_W@__crt_stdio_output@@V?$format_validation_base@_WV?$string_output_adapter@_W@__crt_stdio_output@@@2@@__crt_stdio_output@@AEAA_NXZ 0000000180031314     libucrt:output.obj
 0002:0000b314       $unwind$?type_case_s@?$output_processor@_WV?$string_output_adapter@_W@__crt_stdio_output@@V?$format_validation_base@_WV?$string_output_adapter@_W@__crt_stdio_output@@@2@@__crt_stdio_output@@AEAA_NXZ 0000000180031314     libucrt:output.obj
 0002:0000b314       $unwind$?type_case_s_compute_narrow_string_length@?$output_processor@_WV?$string_output_adapter@_W@__crt_stdio_output@@V?$format_validation_base@_WV?$string_output_adapter@_W@__crt_stdio_output@@@2@@__crt_stdio_output@@AEAAHH_W@Z 0000000180031314     libucrt:output.obj
 0002:0000b314       $unwind$?update_locale_slow@__crt_cached_ptd_host@@AEAAXXZ 0000000180031314     libucrt:output.obj
 0002:0000b314       $unwind$strncpy_s          0000000180031314     libucrt:strncpy_s.obj
 0002:0000b314       $unwind$wcsncpy_s          0000000180031314     libucrt:wcsncpy_s.obj
 0002:0000b314       $unwind$_exception_enabled 0000000180031314     libucrt:libm_error.obj
 0002:0000b314       $unwind$_DllMainCRTStartup 0000000180031314     LIBCMT:dll_dllmain.obj
 0002:0000b314       $unwind$__vcrt_getptd_noexit 0000000180031314     libvcruntime:per_thread_data.obj
 0002:0000b314       $unwind$?FrameUnwindToEmptyState@__FrameHandler3@@SAXPEA_KPEAU_xDISPATCHER_CONTEXT@@PEBU_s_FuncInfo@@@Z 0000000180031314     libvcruntime:risctrnsctrl.obj
 0002:0000b314       $unwind$__vcrt_InitializeCriticalSectionEx 0000000180031314     libvcruntime:winapi_downlevel.obj
 0002:0000b324       $unwind$??_Estringdispid@CComTypeInfoHolder@ATL@@QEAAPEAXI@Z 0000000180031324     OposVariant.obj
 0002:0000b324       $unwind$?AddTermFunc@CAtlModule@ATL@@QEAAJP6AX_K@Z0@Z 0000000180031324     VoiceRecognition.obj
 0002:0000b324       $unwind$?AtlComModuleRegisterServer@ATL@@YAJPEAU_ATL_COM_MODULE70@1@HPEBU_GUID@@@Z 0000000180031324     VoiceRecognition.obj
 0002:0000b324       $unwind$?AtlComModuleUnregisterServer@ATL@@YAJPEAU_ATL_COM_MODULE70@1@HPEBU_GUID@@@Z 0000000180031324     VoiceRecognition.obj
 0002:0000b324       $unwind$?CreateInstance@?$CComCreator@V?$CComAggObject@VCOPOSVoiceRecognition@@@ATL@@@ATL@@SAJPEAXAEBU_GUID@@PEAPEAX@Z 0000000180031324     VoiceRecognition.obj
 0002:0000b324       $unwind$?CreateInstance@?$CComCreator@V?$CComObjectCached@VCComClassFactory@ATL@@@ATL@@@ATL@@SAJPEAXAEBU_GUID@@PEAPEAX@Z 0000000180031324     VoiceRecognition.obj
 0002:0000b324       $unwind$?GetPagesHelper@?$ISpecifyPropertyPagesImpl@VCOPOSVoiceRecognition@@@ATL@@IEAAJPEAUtagCAUUID@@PEBUATL_PROPMAP_ENTRY@2@@Z 0000000180031324     VoiceRecognition.obj
 0002:0000b324       $unwind$?Term@CAtlModule@ATL@@QEAAXXZ 0000000180031324     VoiceRecognition.obj
 0002:0000b324       $unwind$?initialize_stdio_handles_nolock@@YAXXZ 0000000180031324     libucrt:ioinit.obj
 0002:0000b324       $unwind$__acrt_initialize_stdio 0000000180031324     libucrt:_file.obj
 0002:0000b324       $unwind$__GSHandlerCheck_EH 0000000180031324     LIBCMT:gshandlereh.obj
 0002:0000b324       $unwind$__GSHandlerCheck_SEH 0000000180031324     LIBCMT:gshandlerseh.obj
 0002:0000b324       $unwind$??$TypeMatchHelper@V__FrameHandler3@@@@YAHPEBU_s_HandlerType@@PEBU_s_CatchableType@@PEBU_s_ThrowInfo@@@Z 0000000180031324     libvcruntime:frame.obj
 0002:0000b324       $unwind$??$TypeMatchHelper@V__FrameHandler4@@@@YAHPEAUHandlerType4@FH4@@PEBU_s_CatchableType@@PEBU_s_ThrowInfo@@@Z 0000000180031324     libvcruntime:frame.obj
 0002:0000b33c       $unwind$?SetBSTR@OposVariant@@QEAAXPEA_WAEAJ@Z 000000018003133c     OposVariant.obj
 0002:0000b33c       $unwind$?SetLONG@OposVariant@@QEAAXJ@Z 000000018003133c     OposVariant.obj
 0002:0000b33c       $unwind$?SetVARIANT_BOOL@OposVariant@@QEAAXF@Z 000000018003133c     OposVariant.obj
 0002:0000b33c       $unwind$??0?$CComContainedObject@VCOPOSVoiceRecognition@@@ATL@@QEAA@PEAX@Z 000000018003133c     VoiceRecognition.obj
 0002:0000b33c       $unwind$??1?$CComEnumImpl@UIEnumConnectionPoints@@$1?_GUID_b196b285_bab4_101a_b69c_00aa00341d07@@3U__s_GUID@@BPEAUIConnectionPoint@@V?$_CopyInterface@UIConnectionPoint@@@ATL@@@ATL@@UEAA@XZ 000000018003133c     VoiceRecognition.obj
 0002:0000b33c       $unwind$??1?$CComEnumImpl@UIEnumConnections@@$1?_GUID_b196b287_bab4_101a_b69c_00aa00341d07@@3U__s_GUID@@BUtagCONNECTDATA@@V?$_Copy@UtagCONNECTDATA@@@ATL@@@ATL@@UEAA@XZ 000000018003133c     VoiceRecognition.obj
 0002:0000b33c       $unwind$??_G?$CComAggObject@VCOPOSVoiceRecognition@@@ATL@@UEAAPEAXI@Z 000000018003133c     VoiceRecognition.obj
 0002:0000b33c       $unwind$??_G?$CComContainedObject@VCOPOSVoiceRecognition@@@ATL@@UEAAPEAXI@Z 000000018003133c     VoiceRecognition.obj
 0002:0000b33c       $unwind$??_G?$CComObject@V?$CComEnum@UIEnumConnectionPoints@@$1?_GUID_b196b285_bab4_101a_b69c_00aa00341d07@@3U__s_GUID@@BPEAUIConnectionPoint@@V?$_CopyInterface@UIConnectionPoint@@@ATL@@VCComSingleThreadModel@6@@ATL@@@ATL@@UEAAPEAXI@Z 000000018003133c     VoiceRecognition.obj
 0002:0000b33c       $unwind$??_G?$CComObject@V?$CComEnum@UIEnumConnections@@$1?_GUID_b196b287_bab4_101a_b69c_00aa00341d07@@3U__s_GUID@@BUtagCONNECTDATA@@V?$_Copy@UtagCONNECTDATA@@@ATL@@VCComSingleThreadModel@6@@ATL@@@ATL@@UEAAPEAXI@Z 000000018003133c     VoiceRecognition.obj
 0002:0000b33c       $unwind$??_G?$CComObject@VCOPOSVoiceRecognition@@@ATL@@UEAAPEAXI@Z 000000018003133c     VoiceRecognition.obj
 0002:0000b33c       $unwind$??_G?$CComObjectCached@VCComClassFactory@ATL@@@ATL@@UEAAPEAXI@Z 000000018003133c     VoiceRecognition.obj
 0002:0000b33c       $unwind$??_GCComClassFactory@ATL@@UEAAPEAXI@Z 000000018003133c     VoiceRecognition.obj
 0002:0000b33c       $unwind$??_GCComModule@ATL@@UEAAPEAXI@Z 000000018003133c     VoiceRecognition.obj
 0002:0000b33c       $unwind$?DeleteSubKey@CRegKey@ATL@@QEAAJPEB_W@Z 000000018003133c     VoiceRecognition.obj
 0002:0000b33c       $unwind$?IOleObject_SetClientSite@CComControlBase@ATL@@QEAAJPEAUIOleClientSite@@@Z 000000018003133c     VoiceRecognition.obj
 0002:0000b33c       $unwind$?InitNew@?$IPersistStorageImpl@VCOPOSVoiceRecognition@@@ATL@@UEAAJPEAUIStorage@@@Z 000000018003133c     VoiceRecognition.obj
 0002:0000b33c       $unwind$?IsDirty@?$IPersistStorageImpl@VCOPOSVoiceRecognition@@@ATL@@UEAAJXZ 000000018003133c     VoiceRecognition.obj
 0002:0000b33c       $unwind$?Release@?$CComAggObject@VCOPOSVoiceRecognition@@@ATL@@UEAAKXZ 000000018003133c     VoiceRecognition.obj
 0002:0000b33c       $unwind$?Release@?$CComObject@V?$CComEnum@UIEnumConnectionPoints@@$1?_GUID_b196b285_bab4_101a_b69c_00aa00341d07@@3U__s_GUID@@BPEAUIConnectionPoint@@V?$_CopyInterface@UIConnectionPoint@@@ATL@@VCComSingleThreadModel@6@@ATL@@@ATL@@UEAAKXZ 000000018003133c     VoiceRecognition.obj
 0002:0000b33c       $unwind$?Release@?$CComObject@V?$CComEnum@UIEnumConnections@@$1?_GUID_b196b287_bab4_101a_b69c_00aa00341d07@@3U__s_GUID@@BUtagCONNECTDATA@@V?$_Copy@UtagCONNECTDATA@@@ATL@@VCComSingleThreadModel@6@@ATL@@@ATL@@UEAAKXZ 000000018003133c     VoiceRecognition.obj
 0002:0000b33c       $unwind$?Release@?$CComObject@VCOPOSVoiceRecognition@@@ATL@@UEAAKXZ 000000018003133c     VoiceRecognition.obj
 0002:0000b33c       $unwind$?SOData@COPOSVoiceRecognition@@MEAAJJ@Z 000000018003133c     VoiceRecognition.obj
 0002:0000b33c       $unwind$?SOStatusUpdate@COPOSVoiceRecognition@@MEAAJJ@Z 000000018003133c     VoiceRecognition.obj
 0002:0000b33c       $unwind$?SetAdvise@?$IViewObjectExImpl@VCOPOSVoiceRecognition@@@ATL@@UEAAJKKPEAUIAdviseSink@@@Z 000000018003133c     VoiceRecognition.obj
 0002:0000b33c       $unwind$?Term@CComModule@ATL@@QEAAXXZ 000000018003133c     VoiceRecognition.obj
 0002:0000b33c       $unwind$DllMain            000000018003133c     VoiceRecognition.obj
 0002:0000b33c       $unwind$??1?$IConnectionPointImpl@VCOPOSVoiceRecognition@@$1?DIID__IOPOSVoiceRecognitionEvents@@3U_GUID@@BVCComDynamicUnkArray@ATL@@@ATL@@QEAA@XZ 000000018003133c     VoiceRecognitionImpl.obj
 0002:0000b33c       $unwind$??1?$IConnectionPointImpl@VCOPOSVoiceRecognition@@$1?IID_IPropertyNotifySink@@3U_GUID@@BVCComDynamicUnkArray@ATL@@@ATL@@QEAA@XZ 000000018003133c     VoiceRecognitionImpl.obj
 0002:0000b33c       $unwind$??$common_initialize_environment_nolock@D@@YAHXZ 000000018003133c     libucrt:environment_initialization.obj
 0002:0000b33c       $unwind$_realloc_base      000000018003133c     libucrt:realloc_base.obj
 0002:0000b33c       $unwind$?replace_current_thread_locale_nolock@@YAXQEAU__acrt_ptd@@QEAU__crt_locale_data@@@Z 000000018003133c     libucrt:per_thread_data.obj
 0002:0000b33c       $unwind$__acrt_execute_uninitializers 000000018003133c     libucrt:shared_initialization.obj
 0002:0000b33c       $unwind$__acrt_LocaleNameToLCID 000000018003133c     libucrt:winapi_thunks.obj
 0002:0000b33c       $unwind$?free_crt_array_internal@@YAXQEAPEBX_K@Z 000000018003133c     libucrt:inittime.obj
 0002:0000b33c       $unwind$_updatetlocinfoEx_nolock 000000018003133c     libucrt:locale_refcounting.obj
 0002:0000b33c       $unwind$__acrt_uninitialize_lowio 000000018003133c     libucrt:ioinit.obj
 0002:0000b33c       $unwind$?setSBCS@@YAXPEAU__crt_multibyte_data@@@Z 000000018003133c     libucrt:mbctype.obj
 0002:0000b33c       $unwind$_initterm_e        000000018003133c     libucrt:initterm.obj
 0002:0000b33c       $unwind$??0CAtlBaseModule@ATL@@QEAA@XZ 000000018003133c     atls:atlbase.obj
 0002:0000b33c       $unwind$??$GetProcAddressAll@P6AP6A_JPEAUHWND__@@I_K_J@ZPEAUAtlThunkData_t@@@Z@@YAP6AP6A_JPEAUHWND__@@I_K_J@ZPEAUAtlThunkData_t@@@ZPEAP6AP6A_J0I12@Z3@Z@Z 000000018003133c     atls:atlthunk.obj
 0002:0000b33c       $unwind$??$GetProcAddressAll@P6APEAUAtlThunkData_t@@XZ@@YAP6APEAUAtlThunkData_t@@XZPEAP6APEAU0@XZ@Z 000000018003133c     atls:atlthunk.obj
 0002:0000b33c       $unwind$??$GetProcAddressAll@P6AXPEAUAtlThunkData_t@@@Z@@YAP6AXPEAUAtlThunkData_t@@@ZPEAP6AX0@Z@Z 000000018003133c     atls:atlthunk.obj
 0002:0000b33c       $unwind$??$GetProcAddressAll@P6AXPEAUAtlThunkData_t@@PEAX_K@Z@@YAP6AXPEAUAtlThunkData_t@@PEAX_K@ZPEAP6AX012@Z@Z 000000018003133c     atls:atlthunk.obj
 0002:0000b33c       $unwind$?__AllocStdCallThunk_cmn@@YAPEAXXZ 000000018003133c     atls:atlthunk.obj
 0002:0000b33c       $unwind$?__InitializeThunkPool@@YAHXZ 000000018003133c     atls:atlthunk.obj
 0002:0000b33c       $unwind$AtlThunk_DataToCode 000000018003133c     atls:atlthunk.obj
 0002:0000b33c       $unwind$_RTC_Initialize    000000018003133c     LIBCMT:initsect.obj
 0002:0000b33c       $unwind$_RTC_Terminate     000000018003133c     LIBCMT:initsect.obj
 0002:0000b33c       $unwind$?__scrt_initialize_thread_safe_statics@@YAHXZ 000000018003133c     LIBCMT:thread_safe_statics.obj
 0002:0000b33c       $unwind$??_Gbad_alloc@std@@UEAAPEAXI@Z 000000018003133c     LIBCMT:throw_bad_alloc.obj
 0002:0000b33c       $unwind$??_Gbad_array_new_length@std@@UEAAPEAXI@Z 000000018003133c     LIBCMT:throw_bad_alloc.obj
 0002:0000b33c       $unwind$??_Gexception@std@@UEAAPEAXI@Z 000000018003133c     LIBCMT:throw_bad_alloc.obj
 0002:0000b33c       $unwind$__C_specific_handler_noexcept 000000018003133c     libvcruntime:chandler_noexcept.obj
 0002:0000b33c       $unwind$__FrameUnwindFilter 000000018003133c     libvcruntime:ehhelpers.obj
 0002:0000b33c       $unwind$?SetUnwindTryBlock@__FrameHandler3@@SAXPEA_KPEAU_xDISPATCHER_CONTEXT@@PEBU_s_FuncInfo@@H@Z 000000018003133c     libvcruntime:ehstate.obj
 0002:0000b33c       $unwind$??_Gbad_exception@std@@UEAAPEAXI@Z 000000018003133c     libvcruntime:frame.obj
 0002:0000b33c       $unwind$?ExFilterRethrow@@YAHPEAU_EXCEPTION_POINTERS@@PEAUEHExceptionRecord@@PEAH@Z 000000018003133c     libvcruntime:frame.obj
 0002:0000b33c       $unwind$?ExFilterRethrowFH4@@YAHPEAU_EXCEPTION_POINTERS@@PEAUEHExceptionRecord@@HPEAH@Z 000000018003133c     libvcruntime:frame.obj
 0002:0000b33c       $unwind$_FindAndUnlinkFrame 000000018003133c     libvcruntime:risctrnsctrl.obj
 0002:0000b33c       $unwind$__vcrt_FlsSetValue 000000018003133c     libvcruntime:winapi_downlevel.obj
 0002:0000b348       $unwind$?ChangeBSTR@OposVariant@@QEAAXPEAPEA_WAEAJ@Z 0000000180031348     OposVariant.obj
 0002:0000b348       $unwind$?ChangeLONG@OposVariant@@QEAAXPEAJAEAJ@Z 0000000180031348     OposVariant.obj
 0002:0000b348       $unwind$?x_ismbbtype_l@@YAHPEAU__crt_locale_pointers@@IHH@Z 0000000180031348     libucrt:ismbbyte.obj
 0002:0000b358       $unwind$swprintf_s         0000000180031358     VoiceRecognition.obj
 0002:0000b368       $unwind$?_AtlVerifyStackAvailable@_ATL_SAFE_ALLOCA_IMPL@ATL@@YA_N_K@Z 0000000180031368     VoiceRecognition.obj
 0002:0000b394       $unwind$?filt$0@?0??_AtlVerifyStackAvailable@_ATL_SAFE_ALLOCA_IMPL@ATL@@YA_N_K@Z@4HA 0000000180031394     VoiceRecognition.obj
 0002:0000b394       $unwind$_query_new_handler$fin$0 0000000180031394     libucrt:new_handler.obj
 0002:0000b394       $unwind$?fin$0@?0???$?RV<lambda_0ae27a3a962d80f24befdcbee591983d>@@AEAV<lambda_8d0ee55de4b1038c4002e0adecdf1839>@@V<lambda_dc504788e8f1664fe9b84e20bfb512f2>@@@?$__crt_seh_guarded_call@X@@QEAAX$$QEAV<lambda_0ae27a3a962d80f24befdcbee591983d>@@AEAV<lambda_8d0ee55de4b1038c4002e0adecdf1839>@@$$QEAV<lambda_dc504788e8f1664fe9b84e20bfb512f2>@@@Z@4HA 0000000180031394     libucrt:per_thread_data.obj
 0002:0000b394       $unwind$?fin$0@?0???$?RV<lambda_2d41944a1d46af3157314b8a01080d33>@@AEAV<lambda_8f455de75cd7d7f24b4096f044d8b9e6>@@V<lambda_aa500f224e6afead328df44964fe2772>@@@?$__crt_seh_guarded_call@X@@QEAAX$$QEAV<lambda_2d41944a1d46af3157314b8a01080d33>@@AEAV<lambda_8f455de75cd7d7f24b4096f044d8b9e6>@@$$QEAV<lambda_aa500f224e6afead328df44964fe2772>@@@Z@4HA 0000000180031394     libucrt:per_thread_data.obj
 0002:0000b394       $unwind$?fin$0@?0???$?RV<lambda_aa87e3671a710a21b5dc78c0bdf72e11>@@AEAV<lambda_92619d2358a28f41a33ba319515a20b9>@@V<lambda_6992ecaafeb10aed2b74cb1fae11a551>@@@?$__crt_seh_guarded_call@X@@QEAAX$$QEAV<lambda_aa87e3671a710a21b5dc78c0bdf72e11>@@AEAV<lambda_92619d2358a28f41a33ba319515a20b9>@@$$QEAV<lambda_6992ecaafeb10aed2b74cb1fae11a551>@@@Z@4HA 0000000180031394     libucrt:per_thread_data.obj
 0002:0000b394       $unwind$?fin$0@?0???$?RV<lambda_f2e299630e499de9f9a165e60fcd3db5>@@AEAV<lambda_2ae9d31cdba2644fcbeaf08da7c24588>@@V<lambda_40d01ff24d0e7b3814fdbdcee8eab3c7>@@@?$__crt_seh_guarded_call@X@@QEAAX$$QEAV<lambda_f2e299630e499de9f9a165e60fcd3db5>@@AEAV<lambda_2ae9d31cdba2644fcbeaf08da7c24588>@@$$QEAV<lambda_40d01ff24d0e7b3814fdbdcee8eab3c7>@@@Z@4HA 0000000180031394     libucrt:per_thread_data.obj
 0002:0000b394       $unwind$__acrt_update_thread_locale_data$fin$0 0000000180031394     libucrt:locale_refcounting.obj
 0002:0000b394       $unwind$?fin$0@?0???$?RV<lambda_410d79af7f07d98d83a3f525b3859a53>@@AEAV<lambda_3e16ef9562a7dcce91392c22ab16ea36>@@V<lambda_38119f0e861e05405d8a144b9b982f0a>@@@?$__crt_seh_guarded_call@X@@QEAAX$$QEAV<lambda_410d79af7f07d98d83a3f525b3859a53>@@AEAV<lambda_3e16ef9562a7dcce91392c22ab16ea36>@@$$QEAV<lambda_38119f0e861e05405d8a144b9b982f0a>@@@Z@4HA 0000000180031394     libucrt:wsetlocale.obj
 0002:0000b394       $unwind$?fin$0@?0???$?RV<lambda_ad8af0d99a0adf03d037d7dffe354bb5>@@AEAV<lambda_c9ba49e555ba839a7b07aa3fbecb7617>@@V<lambda_2f1ebd5d68526518146ae959c9e734c8>@@@?$__crt_seh_guarded_call@H@@QEAAH$$QEAV<lambda_ad8af0d99a0adf03d037d7dffe354bb5>@@AEAV<lambda_c9ba49e555ba839a7b07aa3fbecb7617>@@$$QEAV<lambda_2f1ebd5d68526518146ae959c9e734c8>@@@Z@4HA 0000000180031394     libucrt:close.obj
 0002:0000b394       $unwind$?fin$0@?0???$?RV<lambda_a37b2b86f63e897a80ea819b0eb08c01>@@AEAV<lambda_38ce7e780aa69e748d6df282ebc68efe>@@V<lambda_99fb1378e971ab6e7edea83e3a7a83a2>@@@?$__crt_seh_guarded_call@H@@QEAAH$$QEAV<lambda_a37b2b86f63e897a80ea819b0eb08c01>@@AEAV<lambda_38ce7e780aa69e748d6df282ebc68efe>@@$$QEAV<lambda_99fb1378e971ab6e7edea83e3a7a83a2>@@@Z@4HA 0000000180031394     libucrt:commit.obj
 0002:0000b394       $unwind$__acrt_initialize_lowio$fin$0 0000000180031394     libucrt:ioinit.obj
 0002:0000b394       $unwind$__acrt_lowio_ensure_fh_exists$fin$0 0000000180031394     libucrt:osfinfo.obj
 0002:0000b394       $unwind$?fin$0@?0???$?RV<lambda_efdfa57d1f175319df784efa44bb7b81>@@AEAV<lambda_5f0a4c1567f8adc6734073e5d1e1b35c>@@V<lambda_2e8a7d3640ea6ccb4c2413664c2db6fd>@@@?$__crt_seh_guarded_call@X@@QEAAX$$QEAV<lambda_efdfa57d1f175319df784efa44bb7b81>@@AEAV<lambda_5f0a4c1567f8adc6734073e5d1e1b35c>@@$$QEAV<lambda_2e8a7d3640ea6ccb4c2413664c2db6fd>@@@Z@4HA 0000000180031394     libucrt:mbctype.obj
 0002:0000b394       $unwind$?fin$0@?0??update_thread_multibyte_data_internal@@YAPEAU__crt_multibyte_data@@QEAU__acrt_ptd@@QEAPEAU1@@Z@4HA 0000000180031394     libucrt:mbctype.obj
 0002:0000b394       $unwind$?fin$0@?0???$?RV<lambda_450d765d439847d4c735a33c368b5fc0>@@AEAV<lambda_44731a7d0e6d81c3e6aa82d741081786>@@V<lambda_601a2a7da3b7a96e9554ac7215c4b07c>@@@?$__crt_seh_guarded_call@P6AXH@Z@@QEAAP6AXH@Z$$QEAV<lambda_450d765d439847d4c735a33c368b5fc0>@@AEAV<lambda_44731a7d0e6d81c3e6aa82d741081786>@@$$QEAV<lambda_601a2a7da3b7a96e9554ac7215c4b07c>@@@Z@4HA 0000000180031394     libucrt:signal.obj
 0002:0000b394       $unwind$raise$fin$0        0000000180031394     libucrt:signal.obj
 0002:0000b394       $unwind$?filt$0@?0???R<lambda_6e4b09c48022b2350581041d5f6b0c4c>@@QEBA@XZ@4HA 0000000180031394     libucrt:exit.obj
 0002:0000b394       $unwind$?fin$0@?0???$?RV<lambda_d80eeec6fff315bfe5c115232f3240e3>@@AEAV<lambda_6e4b09c48022b2350581041d5f6b0c4c>@@V<lambda_2358e3775559c9db80273638284d5e45>@@@?$__crt_seh_guarded_call@X@@QEAAX$$QEAV<lambda_d80eeec6fff315bfe5c115232f3240e3>@@AEAV<lambda_6e4b09c48022b2350581041d5f6b0c4c>@@$$QEAV<lambda_2358e3775559c9db80273638284d5e45>@@@Z@4HA 0000000180031394     libucrt:exit.obj
 0002:0000b394       $unwind$?fin$0@?0???$?RV<lambda_638799b9deba96c50f710eeac98168cd>@@AEAV<lambda_22ebabd17bc4fa466a2aca6d8deb888d>@@V<lambda_a6f7d7db0129f75315ebf26d50c089f1>@@@?$__crt_seh_guarded_call@H@@QEAAH$$QEAV<lambda_638799b9deba96c50f710eeac98168cd>@@AEAV<lambda_22ebabd17bc4fa466a2aca6d8deb888d>@@$$QEAV<lambda_a6f7d7db0129f75315ebf26d50c089f1>@@@Z@4HA 0000000180031394     libucrt:onexit.obj
 0002:0000b394       $unwind$?fin$0@?0???$?RV<lambda_7777bce6b2f8c936911f934f8298dc43>@@AEAV<lambda_f03950bc5685219e0bcd2087efbe011e>@@V<lambda_3883c3dff614d5e0c5f61bb1ac94921c>@@@?$__crt_seh_guarded_call@H@@QEAAH$$QEAV<lambda_7777bce6b2f8c936911f934f8298dc43>@@AEAV<lambda_f03950bc5685219e0bcd2087efbe011e>@@$$QEAV<lambda_3883c3dff614d5e0c5f61bb1ac94921c>@@@Z@4HA 0000000180031394     libucrt:onexit.obj
 0002:0000b394       $unwind$_fcloseall$fin$0   0000000180031394     libucrt:closeall.obj
 0002:0000b394       $unwind$?fin$0@?0???$?RV<lambda_842d9ff0dc9ef11c61343bbaebe7f885>@@AEAV<lambda_c5860995281e5c4ce005b3de8f5874ee>@@V<lambda_d90129c13df834fdcbf8d2b88dafcf2d>@@@?$__crt_seh_guarded_call@X@@QEAAX$$QEAV<lambda_842d9ff0dc9ef11c61343bbaebe7f885>@@AEAV<lambda_c5860995281e5c4ce005b3de8f5874ee>@@$$QEAV<lambda_d90129c13df834fdcbf8d2b88dafcf2d>@@@Z@4HA 0000000180031394     libucrt:fflush.obj
 0002:0000b394       $unwind$?fin$0@?0???$?RV<lambda_886d6c58226a84441f68b9f2b8217b83>@@AEAV<lambda_ab61a845afdef5b7c387490eaf3616ee>@@V<lambda_f7f22ab5edc0698d5f6905b0d3f44752>@@@?$__crt_seh_guarded_call@X@@QEAAX$$QEAV<lambda_886d6c58226a84441f68b9f2b8217b83>@@AEAV<lambda_ab61a845afdef5b7c387490eaf3616ee>@@$$QEAV<lambda_f7f22ab5edc0698d5f6905b0d3f44752>@@@Z@4HA 0000000180031394     libucrt:fflush.obj
 0002:0000b394       $unwind$_ctrlfp$filt$0     0000000180031394     libucrt:fpctrl.obj
 0002:0000b394       $unwind$common_control87$filt$0 0000000180031394     libucrt:ieee.obj
 0002:0000b394       $unwind$?fin$0@?0??dllmain_crt_process_attach@@YAHQEAUHINSTANCE__@@QEAX@Z@4HA 0000000180031394     LIBCMT:dll_dllmain.obj
 0002:0000b394       $unwind$?fin$0@?0??dllmain_crt_process_detach@@YAH_N@Z@4HA 0000000180031394     LIBCMT:dll_dllmain.obj
 0002:0000b394       $unwind$?fin$1@?0??dllmain_crt_process_detach@@YAH_N@Z@4HA 0000000180031394     LIBCMT:dll_dllmain.obj
 0002:0000b394       $unwind$_IsNonwritableInCurrentImage$filt$0 0000000180031394     LIBCMT:pesect.obj
 0002:0000b394       $unwind$?filt$0@?0??CxxCallCatchBlock@__FrameHandler3@@SAPEAXPEAU_EXCEPTION_RECORD@@@Z@4HA 0000000180031394     libvcruntime:frame.obj
 0002:0000b394       $unwind$?filt$0@?0??CxxCallCatchBlock@__FrameHandler4@@SAPEAXPEAU_EXCEPTION_RECORD@@@Z@4HA 0000000180031394     libvcruntime:frame.obj
 0002:0000b394       $unwind$?filt$0@?0??FrameUnwindToState@__FrameHandler3@@SAXPEA_KPEAU_xDISPATCHER_CONTEXT@@PEBU_s_FuncInfo@@H@Z@4HA 0000000180031394     libvcruntime:frame.obj
 0002:0000b394       $unwind$?fin$1@?0??FrameUnwindToState@__FrameHandler3@@SAXPEA_KPEAU_xDISPATCHER_CONTEXT@@PEBU_s_FuncInfo@@H@Z@4HA 0000000180031394     libvcruntime:frame.obj
 0002:0000b39c       $unwind$?AtlInternalOleLoadFromStream@ATL@@YAJPEAUIStream@@AEBU_GUID@@PEAPEAXTClassesAllowedInStream@1@K@Z 000000018003139c     VoiceRecognition.obj
 0002:0000b3b8       $unwind$?ReadFromStream@CComBSTR@ATL@@QEAAJPEAUIStream@@@Z 00000001800313b8     VoiceRecognition.obj
 0002:0000b3b8       $unwind$_configure_narrow_argv 00000001800313b8     libucrt:argv_parsing.obj
 0002:0000b3cc       $unwind$?WriteToStream@CComVariant@ATL@@QEAAJPEAUIStream@@@Z 00000001800313cc     VoiceRecognition.obj
 0002:0000b3e0       $unwind$?RegOpenKeyExW@CAtlTransactionManager@ATL@@QEAAJPEAUHKEY__@@PEB_WKKPEAPEAU3@@Z 00000001800313e0     VoiceRecognition.obj
 0002:0000b3e0       $unwind$?WriteToStream@CComVariant@ATL@@QEAAJPEAUIStream@@G@Z 00000001800313e0     VoiceRecognition.obj
 0002:0000b3e0       $unwind$__dcrt_write_console 00000001800313e0     libucrt:initcon.obj
 0002:0000b3e0       $unwind$??$__acrt_convert_wcs_mbs_cp@_WDV<lambda_f788ae46380686e8b737efdd8c720d07>@@U__crt_win32_buffer_no_resizing@@@@YAHQEB_WAEAV?$__crt_win32_buffer@DU__crt_win32_buffer_no_resizing@@@@AEBV<lambda_f788ae46380686e8b737efdd8c720d07>@@I@Z 00000001800313e0     libucrt:getmodulefilenamea.obj
 0002:0000b3f4       $unwind$?ReadFromStream@CComVariant@ATL@@QEAAJPEAUIStream@@GTClassesAllowedInStream@2@K@Z 00000001800313f4     VoiceRecognition.obj
 0002:0000b40c       $unwind$?GetSizeMax@CComVariant@ATL@@QEBAJPEAT_ULARGE_INTEGER@@@Z 000000018003140c     VoiceRecognition.obj
 0002:0000b420       $unwind$?RegCreateKeyExW@CAtlTransactionManager@ATL@@QEAAJPEAUHKEY__@@PEB_WKPEA_WKKQEAU_SECURITY_ATTRIBUTES@@PEAPEAU3@PEAK@Z 0000000180031420     VoiceRecognition.obj
 0002:0000b434       $unwind$?GetGITPtr@CAtlModule@ATL@@UEAAJPEAPEAUIGlobalInterfaceTable@@@Z 0000000180031434     VoiceRecognition.obj
 0002:0000b434       $unwind$?RegDeleteKeyW@CAtlTransactionManager@ATL@@QEAAJPEAUHKEY__@@PEB_W@Z 0000000180031434     VoiceRecognition.obj
 0002:0000b434       $unwind$?getStateFromIterators@UWMap4@FH4@@SAHAEBViterator@12@H0H0@Z 0000000180031434     libvcruntime:frame.obj
 0002:0000b444       $unwind$?AtlHiMetricToPixel@ATL@@YAXPEBUtagSIZE@@PEAU2@@Z 0000000180031444     VoiceRecognition.obj
 0002:0000b444       $unwind$?AtlInternalQueryInterface@ATL@@YAJPEAXPEBU_ATL_INTMAP_ENTRY@1@AEBU_GUID@@PEAPEAX@Z 0000000180031444     VoiceRecognition.obj
 0002:0000b45c       $unwind$?Append@CParseBuffer@CRegParser@ATL@@QEAAHPEB_WH@Z 000000018003145c     VoiceRecognition.obj
 0002:0000b45c       $unwind$?AtlComModuleGetClassObject@ATL@@YAJPEAU_ATL_COM_MODULE70@1@AEBU_GUID@@1PEAPEAX@Z 000000018003145c     VoiceRecognition.obj
 0002:0000b45c       $unwind$?GetClassObject@CComModule@ATL@@QEAAJAEBU_GUID@@0PEAPEAX@Z 000000018003145c     VoiceRecognition.obj
 0002:0000b45c       $unwind$?NextToken@CRegParser@ATL@@IEAAJPEA_W@Z 000000018003145c     VoiceRecognition.obj
 0002:0000b45c       $unwind$?StartWindowProc@?$CWindowImplBaseT@VCWindow@ATL@@V?$CWinTraits@$0FGAAAAAA@$0A@@2@@ATL@@SA_JPEAUHWND__@@I_K_J@Z 000000018003145c     VoiceRecognition.obj
 0002:0000b45c       $unwind$?fp_format_f_internal@@YAHQEAD_KHQEAU_strflt@@_NAEAV__crt_cached_ptd_host@@@Z 000000018003145c     libucrt:cvt.obj
 0002:0000b45c       $unwind$__acrt_DownlevelLocaleNameToLCID 000000018003145c     libucrt:lcidtoname_downlevel.obj
 0002:0000b45c       $unwind$??R<lambda_f03950bc5685219e0bcd2087efbe011e>@@QEBAHXZ 000000018003145c     libucrt:onexit.obj
 0002:0000b474       $unwind$?AtlRegisterClassCategoriesHelper@ATL@@YAJAEBU_GUID@@PEBU_ATL_CATMAP_ENTRY@1@H@Z 0000000180031474     VoiceRecognition.obj
 0002:0000b498       $unwind$?AtlLoadTypeLib@ATL@@YAJPEAUHINSTANCE__@@PEB_WPEAPEA_WPEAPEAUITypeLib@@@Z 0000000180031498     VoiceRecognition.obj
 0002:0000b4b8       $unwind$?AtlRegisterTypeLib@ATL@@YAJPEAUHINSTANCE__@@PEB_W@Z 00000001800314b8     VoiceRecognition.obj
 0002:0000b4d4       $unwind$?AtlUnRegisterTypeLib@ATL@@YAJPEAUHINSTANCE__@@PEB_W@Z 00000001800314d4     VoiceRecognition.obj
 0002:0000b4dc       $unwind$?GetTI@CComTypeInfoHolder@ATL@@QEAAJK@Z 00000001800314dc     VoiceRecognition.obj
 0002:0000b4dc       $unwind$?RecurseDeleteKey@CRegKey@ATL@@QEAAJPEB_W@Z 00000001800314dc     VoiceRecognition.obj
 0002:0000b4fc       $unwind$?UpdateRegistryFromResource@CAtlModule@ATL@@QEAAJIHPEAU_ATL_REGMAP_ENTRY@2@@Z 00000001800314fc     VoiceRecognition.obj
 0002:0000b4fc       $unwind$?UpdateRegistryFromResource@CAtlModule@ATL@@QEAAJPEB_WHPEAU_ATL_REGMAP_ENTRY@2@@Z 00000001800314fc     VoiceRecognition.obj
 0002:0000b51c       $unwind$?Lookup@?$CSimpleMap@PEA_WPEA_WVCExpansionVectorEqualHelper@ATL@@@ATL@@QEBAPEA_WAEBQEA_W@Z 000000018003151c     VoiceRecognition.obj
 0002:0000b51c       $unwind$_free_osfhnd       000000018003151c     libucrt:osfinfo.obj
 0002:0000b51c       $unwind$__std_exception_copy 000000018003151c     libvcruntime:std_exception.obj
 0002:0000b530       $unwind$?Add@CExpansionVector@ATL@@QEAAHPEB_W0@Z 0000000180031530     VoiceRecognition.obj
 0002:0000b548       $unwind$?PreProcessBuffer@CRegParser@ATL@@QEAAJPEA_WPEAPEA_W@Z 0000000180031548     VoiceRecognition.obj
 0002:0000b56c       $unwind$?RegisterBuffer@CRegParser@ATL@@QEAAJPEA_WH@Z 000000018003156c     VoiceRecognition.obj
 0002:0000b58c       $unwind$?AddValue@CRegParser@ATL@@IEAAJAEAVCRegKey@2@PEB_WPEA_W@Z 000000018003158c     VoiceRecognition.obj
 0002:0000b5ac       $unwind$?RegisterSubkeys@CRegParser@ATL@@IEAAJPEA_WPEAUHKEY__@@HH@Z 00000001800315ac     VoiceRecognition.obj
 0002:0000b5cc       $unwind$?SkipAssignment@CRegParser@ATL@@IEAAJPEA_W@Z 00000001800315cc     VoiceRecognition.obj
 0002:0000b5e8       $unwind$?RegisterFromResource@CRegObject@ATL@@IEAAJPEB_W00H@Z 00000001800315e8     VoiceRecognition.obj
 0002:0000b608       $unwind$?Cleanup@CComTypeInfoHolder@ATL@@SAX_K@Z 0000000180031608     VoiceRecognition.obj
 0002:0000b608       $unwind$_free_base         0000000180031608     libucrt:free_base.obj
 0002:0000b608       $unwind$?destroy_fls@@YAXPEAX@Z 0000000180031608     libucrt:per_thread_data.obj
 0002:0000b608       $unwind$__acrt_locale_free_numeric 0000000180031608     libucrt:initnum.obj
 0002:0000b608       $unwind$__acrt_locale_free_lc_time_if_unreferenced 0000000180031608     libucrt:locale_refcounting.obj
 0002:0000b608       $unwind$AtlThunk_FreeData  0000000180031608     atls:atlthunk.obj
 0002:0000b610       $unwind$?GetIDsOfNames@CComTypeInfoHolder@ATL@@QEAAJAEBU_GUID@@PEAPEA_WIKPEAJ@Z 0000000180031610     VoiceRecognition.obj
 0002:0000b62c       $unwind$?LoadNameCache@CComTypeInfoHolder@ATL@@QEAAJPEAUITypeInfo@@@Z 000000018003162c     VoiceRecognition.obj
 0002:0000b644       $unwind$?WindowProc@?$CWindowImplBaseT@VCWindow@ATL@@V?$CWinTraits@$0FGAAAAAA@$0A@@2@@ATL@@SA_JPEAUHWND__@@I_K_J@Z 0000000180031644     VoiceRecognition.obj
 0002:0000b65c       $unwind$?atlCreate@?$CWindowImplBaseT@VCWindow@ATL@@V?$CWinTraits@$0FGAAAAAA@$0A@@2@@ATL@@QEAAPEAUHWND__@@PEAU3@V_U_RECT@2@PEB_WKKV_U_MENUorID@2@GPEAX@Z 000000018003165c     VoiceRecognition.obj
 0002:0000b674       $unwind$??$AtlModuleRegisterWndClassInfoT@VAtlModuleRegisterWndClassInfoParamW@ATL@@@ATL@@YAGPEAU_ATL_BASE_MODULE70@0@PEAU_ATL_WIN_MODULE70@0@PEAU_ATL_WNDCLASSINFOW@0@PEAP6A_JPEAUHWND__@@I_K_J@ZVAtlModuleRegisterWndClassInfoParamW@0@@Z 0000000180031674     VoiceRecognition.obj
 0002:0000b694       $unwind$?GetZoomInfo@CComControlBase@ATL@@QEAAXAEAUATL_DRAWINFO@@@Z 0000000180031694     VoiceRecognition.obj
 0002:0000b694       $unwind$?OnKillFocus@CComControlBase@ATL@@QEAA_JI_K_JAEAH@Z 0000000180031694     VoiceRecognition.obj
 0002:0000b694       $unwind$?get_raw_ptd@__crt_cached_ptd_host@@QEAAPEAU__acrt_ptd@@XZ 0000000180031694     libucrt:invalid_parameter.obj
 0002:0000b6a0       $unwind$?SendOnDataChange@CComControlBase@ATL@@QEAAJK@Z 00000001800316a0     VoiceRecognition.obj
 0002:0000b6b0       $unwind$?OnSetFocus@CComControlBase@ATL@@QEAA_JI_K_JAEAH@Z 00000001800316b0     VoiceRecognition.obj
 0002:0000b6c4       $unwind$?OnMouseActivate@CComControlBase@ATL@@QEAA_JI_K_JAEAH@Z 00000001800316c4     VoiceRecognition.obj
 0002:0000b6cc       $unwind$?GetAmbientLocaleID@CComControlBase@ATL@@QEAAJAEAK@Z 00000001800316cc     VoiceRecognition.obj
 0002:0000b6cc       $unwind$?GetAmbientUserMode@CComControlBase@ATL@@QEAAJAEAH@Z 00000001800316cc     VoiceRecognition.obj
 0002:0000b6dc       $unwind$?IQuickActivate_QuickActivate@CComControlBase@ATL@@QEAAJPEAUtagQACONTAINER@@PEAUtagQACONTROL@@@Z 00000001800316dc     VoiceRecognition.obj
 0002:0000b6f4       $unwind$?DoVerbProperties@CComControlBase@ATL@@QEAAJPEBUtagRECT@@PEAUHWND__@@@Z 00000001800316f4     VoiceRecognition.obj
 0002:0000b70c       $unwind$?InPlaceActivate@CComControlBase@ATL@@QEAAJJPEBUtagRECT@@@Z 000000018003170c     VoiceRecognition.obj
 0002:0000b72c       $unwind$?IOleObject_Close@CComControlBase@ATL@@QEAAJK@Z 000000018003172c     VoiceRecognition.obj
 0002:0000b72c       $unwind$?get_raw_ptd_noexit@__crt_cached_ptd_host@@QEAAPEAU__acrt_ptd@@XZ 000000018003172c     libucrt:invalid_parameter.obj
 0002:0000b72c       $unwind$?type_case_c_tchar@?$output_processor@_WV?$string_output_adapter@_W@__crt_stdio_output@@V?$format_validation_base@_WV?$string_output_adapter@_W@__crt_stdio_output@@@2@@__crt_stdio_output@@AEAA_N_W@Z 000000018003172c     libucrt:output.obj
 0002:0000b73c       $unwind$?IOleInPlaceObject_UIDeactivate@CComControlBase@ATL@@QEAAJXZ 000000018003173c     VoiceRecognition.obj
 0002:0000b754       $unwind$?IOleInPlaceObject_SetObjectRects@CComControlBase@ATL@@QEAAJPEBUtagRECT@@0@Z 0000000180031754     VoiceRecognition.obj
 0002:0000b768       $unwind$?IViewObject_Draw@CComControlBase@ATL@@QEAAJKJPEAXPEAUtagDVTARGETDEVICE@@PEAUHDC__@@2PEBU_RECTL@@3@Z 0000000180031768     VoiceRecognition.obj
 0002:0000b784       $unwind$?IDataObject_GetData@CComControlBase@ATL@@QEAAJPEAUtagFORMATETC@@PEAUtagSTGMEDIUM@@@Z 0000000180031784     VoiceRecognition.obj
 0002:0000b7a4       $unwind$?OnPaint@CComControlBase@ATL@@QEAA_JI_K_JAEAH@Z 00000001800317a4     VoiceRecognition.obj
 0002:0000b7c0       $unwind$?OnDrawAdvanced@CComControlBase@ATL@@UEAAJAEAUATL_DRAWINFO@@@Z 00000001800317c0     VoiceRecognition.obj
 0002:0000b7dc       $unwind$?Invoke@?$IDispatchImpl@UIOPOSVoiceRecognition@@$1?IID_IOPOSVoiceRecognition@@3U_GUID@@B$1?LIBID_OposVoiceRecognition_CCO@@3U3@B$00$0A@VCComTypeInfoHolder@ATL@@@ATL@@UEAAJJAEBU_GUID@@KGPEAUtagDISPPARAMS@@PEAUtagVARIANT@@PEAUtagEXCEPINFO@@PEAI@Z 00000001800317dc     VoiceRecognition.obj
 0002:0000b7dc       $unwind$?ReleaseDevice@COPOSVoiceRecognition@@UEAAJPEAJ@Z 00000001800317dc     VoiceRecognitionImpl.obj
 0002:0000b7dc       $unwind$_mbsdec_l          00000001800317dc     libucrt:mbsdec.obj
 0002:0000b7e8       $unwind$?atlCreate@?$CWindowImpl@VCOPOSVoiceRecognition@@VCWindow@ATL@@V?$CWinTraits@$0FGAAAAAA@$0A@@3@@ATL@@QEAAPEAUHWND__@@PEAU3@V_U_RECT@2@PEB_WKKV_U_MENUorID@2@PEAX@Z 00000001800317e8     VoiceRecognition.obj
 0002:0000b7e8       $unwind$?fp_format_f@@YAHQEBNQEAD_K12HW4__acrt_rounding_mode@@AEAV__crt_cached_ptd_host@@@Z 00000001800317e8     libucrt:cvt.obj
 0002:0000b7e8       $unwind$__acrt_LCMapStringEx 00000001800317e8     libucrt:winapi_thunks.obj
 0002:0000b7fc       $unwind$?CreateControlWindow@?$CComControl@VCOPOSVoiceRecognition@@V?$CWindowImpl@VCOPOSVoiceRecognition@@VCWindow@ATL@@V?$CWinTraits@$0FGAAAAAA@$0A@@3@@ATL@@@ATL@@UEAAPEAUHWND__@@PEAU3@AEAUtagRECT@@@Z 00000001800317fc     VoiceRecognition.obj
 0002:0000b7fc       $unwind$?ClearInput@COPOSVoiceRecognition@@UEAAJPEAJ@Z 00000001800317fc     VoiceRecognitionImpl.obj
 0002:0000b7fc       $unwind$?ClearInputProperties@COPOSVoiceRecognition@@UEAAJPEAJ@Z 00000001800317fc     VoiceRecognitionImpl.obj
 0002:0000b7fc       $unwind$?StopHearing@COPOSVoiceRecognition@@UEAAJPEAJ@Z 00000001800317fc     VoiceRecognitionImpl.obj
 0002:0000b7fc       $unwind$_raise_exc         00000001800317fc     libucrt:fpexcept.obj
 0002:0000b7fc       $unwind$?__scrt_throw_std_bad_alloc@@YAXXZ 00000001800317fc     LIBCMT:throw_bad_alloc.obj
 0002:0000b7fc       $unwind$?__scrt_throw_std_bad_array_new_length@@YAXXZ 00000001800317fc     LIBCMT:throw_bad_alloc.obj
 0002:0000b804       $unwind$?ProcessWindowMessage@?$CComControl@VCOPOSVoiceRecognition@@V?$CWindowImpl@VCOPOSVoiceRecognition@@VCWindow@ATL@@V?$CWinTraits@$0FGAAAAAA@$0A@@3@@ATL@@@ATL@@UEAAHPEAUHWND__@@I_K_JAEA_JK@Z 0000000180031804     VoiceRecognition.obj
 0002:0000b80c       $unwind$?GetSizeMax@?$IPersistStreamInitImpl@VCOPOSVoiceRecognition@@@ATL@@UEAAJPEAT_ULARGE_INTEGER@@@Z 000000018003180c     VoiceRecognition.obj
 0002:0000b824       $unwind$?IPersistStreamInit_Load@?$IPersistStreamInitImpl@VCOPOSVoiceRecognition@@@ATL@@QEAAJPEAUIStream@@PEBUATL_PROPMAP_ENTRY@2@@Z 0000000180031824     VoiceRecognition.obj
 0002:0000b840       $unwind$?IPersistStreamInit_Save@?$IPersistStreamInitImpl@VCOPOSVoiceRecognition@@@ATL@@QEAAJPEAUIStream@@HPEBUATL_PROPMAP_ENTRY@2@@Z 0000000180031840     VoiceRecognition.obj
 0002:0000b85c       $unwind$?DoVerbPrimary@?$IOleObjectImpl@VCOPOSVoiceRecognition@@@ATL@@QEAAJPEBUtagRECT@@PEAUHWND__@@@Z 000000018003185c     VoiceRecognition.obj
 0002:0000b874       $unwind$?TranslateAcceleratorW@?$IOleInPlaceActiveObjectImpl@VCOPOSVoiceRecognition@@@ATL@@UEAAJPEAUtagMSG@@@Z 0000000180031874     VoiceRecognition.obj
 0002:0000b880       $unwind$?Draw@?$IViewObjectExImpl@VCOPOSVoiceRecognition@@@ATL@@UEAAJKJPEAXPEAUtagDVTARGETDEVICE@@PEAUHDC__@@2PEBU_RECTL@@3P6AH_K@Z4@Z 0000000180031880     VoiceRecognition.obj
 0002:0000b888       $unwind$?QueryHitRect@?$IViewObjectExImpl@VCOPOSVoiceRecognition@@@ATL@@UEAAJKPEBUtagRECT@@0JPEAK@Z 0000000180031888     VoiceRecognition.obj
 0002:0000b898       $unwind$?OnWindowMessage@?$IOleInPlaceObjectWindowlessImpl@VCOPOSVoiceRecognition@@@ATL@@UEAAJI_K_JPEA_J@Z 0000000180031898     VoiceRecognition.obj
 0002:0000b8ac       $unwind$?EnumConnectionPoints@?$IConnectionPointContainerImpl@VCOPOSVoiceRecognition@@@ATL@@UEAAJPEAPEAUIEnumConnectionPoints@@@Z 00000001800318ac     VoiceRecognition.obj
 0002:0000b8d4       $unwind$?FindConnectionPoint@?$IConnectionPointContainerImpl@VCOPOSVoiceRecognition@@@ATL@@UEAAJAEBU_GUID@@PEAPEAUIConnectionPoint@@@Z 00000001800318d4     VoiceRecognition.obj
 0002:0000b8f0       $unwind$?Load@?$IPersistStorageImpl@VCOPOSVoiceRecognition@@@ATL@@UEAAJPEAUIStorage@@@Z 00000001800318f0     VoiceRecognition.obj
 0002:0000b900       $unwind$?Save@?$IPersistStorageImpl@VCOPOSVoiceRecognition@@@ATL@@UEAAJPEAUIStorage@@H@Z 0000000180031900     VoiceRecognition.obj
 0002:0000b914       $unwind$?IPSI_GetIPersistStreamInit@?$IPersistStorageImpl@VCOPOSVoiceRecognition@@@ATL@@AEAAPEAUIPersistStreamInit@@XZ 0000000180031914     VoiceRecognition.obj
 0002:0000b928       $unwind$?GetInterfaceSafetyOptions@?$IObjectSafetyImpl@VCOPOSVoiceRecognition@@$02@ATL@@UEAAJAEBU_GUID@@PEAK1@Z 0000000180031928     VoiceRecognition.obj
 0002:0000b93c       $unwind$?SetInterfaceSafetyOptions@?$IObjectSafetyImpl@VCOPOSVoiceRecognition@@$02@ATL@@UEAAJAEBU_GUID@@KK@Z 000000018003193c     VoiceRecognition.obj
 0002:0000b950       $unwind$?Advise@?$IConnectionPointImpl@VCOPOSVoiceRecognition@@$1?DIID__IOPOSVoiceRecognitionEvents@@3U_GUID@@BVCComDynamicUnkArray@ATL@@@ATL@@UEAAJPEAUIUnknown@@PEAK@Z 0000000180031950     VoiceRecognition.obj
 0002:0000b950       $unwind$?Advise@?$IConnectionPointImpl@VCOPOSVoiceRecognition@@$1?IID_IPropertyNotifySink@@3U_GUID@@BVCComDynamicUnkArray@ATL@@@ATL@@UEAAJPEAUIUnknown@@PEAK@Z 0000000180031950     VoiceRecognition.obj
 0002:0000b964       $unwind$?EnumConnections@?$IConnectionPointImpl@VCOPOSVoiceRecognition@@$1?DIID__IOPOSVoiceRecognitionEvents@@3U_GUID@@BVCComDynamicUnkArray@ATL@@@ATL@@UEAAJPEAPEAUIEnumConnections@@@Z 0000000180031964     VoiceRecognition.obj
 0002:0000b964       $unwind$?EnumConnections@?$IConnectionPointImpl@VCOPOSVoiceRecognition@@$1?IID_IPropertyNotifySink@@3U_GUID@@BVCComDynamicUnkArray@ATL@@@ATL@@UEAAJPEAPEAUIEnumConnections@@@Z 0000000180031964     VoiceRecognition.obj
 0002:0000b97c       $unwind$?Fire_DataEvent@?$CProxy_IOPOSEvents@VCOPOSVoiceRecognition@@@@QEAAXJ@Z 000000018003197c     VoiceRecognition.obj
 0002:0000b97c       $unwind$?Fire_StatusUpdateEvent@?$CProxy_IOPOSEvents@VCOPOSVoiceRecognition@@@@QEAAXJ@Z 000000018003197c     VoiceRecognition.obj
 0002:0000b97c       $unwind$?fp_format_e@@YAHQEBNQEAD_K12H_NIW4__acrt_rounding_mode@@AEAV__crt_cached_ptd_host@@@Z 000000018003197c     libucrt:cvt.obj
 0002:0000b97c       $unwind$??$__InternalCxxFrameHandler@V__FrameHandler3@@@@YA?AW4_EXCEPTION_DISPOSITION@@PEAUEHExceptionRecord@@PEA_KPEAU_CONTEXT@@PEAU_xDISPATCHER_CONTEXT@@PEBU_s_FuncInfo@@H1E@Z 000000018003197c     libvcruntime:frame.obj
 0002:0000b994       $unwind$?Fire_DirectIOEvent@?$CProxy_IOPOSEvents@VCOPOSVoiceRecognition@@@@QEAAXJPEAJPEAPEA_W@Z 0000000180031994     VoiceRecognition.obj
 0002:0000b9b4       $unwind$?Fire_ErrorEvent@?$CProxy_IOPOSEvents@VCOPOSVoiceRecognition@@@@QEAAXJJJPEAJ@Z 00000001800319b4     VoiceRecognition.obj
 0002:0000b9d4       $unwind$?FireTheEvent@?$CProxy_IOPOSEvents@VCOPOSVoiceRecognition@@@@IEAAXPEAVOposVariant@@IAEAJPEB_WJ@Z 00000001800319d4     VoiceRecognition.obj
 0002:0000b9e4       $unwind$?ProcessWindowMessage@COPOSVoiceRecognition@@UEAAHPEAUHWND__@@I_K_JAEA_JK@Z 00000001800319e4     VoiceRecognition.obj
 0002:0000b9fc       $unwind$?SOError@COPOSVoiceRecognition@@MEAAJJJJPEAJ@Z 00000001800319fc     VoiceRecognition.obj
 0002:0000b9fc       $unwind$??$common_lseek_nolock@_J@@YA_JH_JHAEAV__crt_cached_ptd_host@@@Z 00000001800319fc     libucrt:lseek.obj
 0002:0000b9fc       $unwind$_invalid_parameter_internal 00000001800319fc     libucrt:invalid_parameter.obj
 0002:0000b9fc       $unwind$??$type_case_integer@$07@?$output_processor@_WV?$string_output_adapter@_W@__crt_stdio_output@@V?$format_validation_base@_WV?$string_output_adapter@_W@__crt_stdio_output@@@2@@__crt_stdio_output@@AEAA_N_N@Z 00000001800319fc     libucrt:output.obj
 0002:0000b9fc       $unwind$??$type_case_integer@$09@?$output_processor@_WV?$string_output_adapter@_W@__crt_stdio_output@@V?$format_validation_base@_WV?$string_output_adapter@_W@__crt_stdio_output@@@2@@__crt_stdio_output@@AEAA_N_N@Z 00000001800319fc     libucrt:output.obj
 0002:0000b9fc       $unwind$??$type_case_integer@$0BA@@?$output_processor@_WV?$string_output_adapter@_W@__crt_stdio_output@@V?$format_validation_base@_WV?$string_output_adapter@_W@__crt_stdio_output@@@2@@__crt_stdio_output@@AEAA_N_N@Z 00000001800319fc     libucrt:output.obj
 0002:0000ba10       $unwind$?Clone@?$CComEnumImpl@UIEnumConnectionPoints@@$1?_GUID_b196b285_bab4_101a_b69c_00aa00341d07@@3U__s_GUID@@BPEAUIConnectionPoint@@V?$_CopyInterface@UIConnectionPoint@@@ATL@@@ATL@@UEAAJPEAPEAUIEnumConnectionPoints@@@Z 0000000180031a10     VoiceRecognition.obj
 0002:0000ba10       $unwind$?Clone@?$CComEnumImpl@UIEnumConnections@@$1?_GUID_b196b287_bab4_101a_b69c_00aa00341d07@@3U__s_GUID@@BUtagCONNECTDATA@@V?$_Copy@UtagCONNECTDATA@@@ATL@@@ATL@@UEAAJPEAPEAUIEnumConnections@@@Z 0000000180031a10     VoiceRecognition.obj
 0002:0000ba28       $unwind$?Init@?$CComEnumImpl@UIEnumConnectionPoints@@$1?_GUID_b196b285_bab4_101a_b69c_00aa00341d07@@3U__s_GUID@@BPEAUIConnectionPoint@@V?$_CopyInterface@UIConnectionPoint@@@ATL@@@ATL@@QEAAJPEAPEAUIConnectionPoint@@0PEAUIUnknown@@W4CComEnumFlags@2@@Z 0000000180031a28     VoiceRecognition.obj
 0002:0000ba28       $unwind$?Init@?$CComEnumImpl@UIEnumConnections@@$1?_GUID_b196b287_bab4_101a_b69c_00aa00341d07@@3U__s_GUID@@BUtagCONNECTDATA@@V?$_Copy@UtagCONNECTDATA@@@ATL@@@ATL@@QEAAJPEAUtagCONNECTDATA@@0PEAUIUnknown@@W4CComEnumFlags@2@@Z 0000000180031a28     VoiceRecognition.obj
 0002:0000ba28       $unwind$?should_round_up@@YA_NQEBN_KFW4__acrt_rounding_mode@@@Z 0000000180031a28     libucrt:cvt.obj
 0002:0000ba28       $unwind$??$parse_command_line@D@@YAXPEADPEAPEAD0PEA_K2@Z 0000000180031a28     libucrt:argv_parsing.obj
 0002:0000ba44       $unwind$?GetOposProp@COPOSVoiceRecognition@@IEAAJJPEAJJ@Z 0000000180031a44     VoiceRecognitionImpl.obj
 0002:0000ba44       $unwind$?GetOposProp@COPOSVoiceRecognition@@IEAAJJPEAPEA_WJ@Z 0000000180031a44     VoiceRecognitionImpl.obj
 0002:0000ba5c       $unwind$?SetOposProp@COPOSVoiceRecognition@@IEAAJJJJ@Z 0000000180031a5c     VoiceRecognitionImpl.obj
 0002:0000ba7c       $unwind$?DoInvoke@COPOSVoiceRecognition@@IEAAJJPEAVOposVariant@@IHPEAJ_N@Z 0000000180031a7c     VoiceRecognitionImpl.obj
 0002:0000ba94       $unwind$?SetCOFreezeEvents@COPOSVoiceRecognition@@IEAAXF@Z 0000000180031a94     VoiceRecognitionImpl.obj
 0002:0000baa8       $unwind$?OnDraw@COPOSVoiceRecognition@@MEAAJAEAUATL_DRAWINFO@@@Z 0000000180031aa8     VoiceRecognitionImpl.obj
 0002:0000bac0       $unwind$?EventInit@COPOSVoiceRecognition@@IEAAJXZ 0000000180031ac0     VoiceRecognitionImpl.obj
 0002:0000bad4       $unwind$?EventWindowProc@COPOSVoiceRecognition@@IEAA_JI_K_J@Z 0000000180031ad4     VoiceRecognitionImpl.obj
 0002:0000bad4       $unwind$?type_case_n@?$output_processor@_WV?$string_output_adapter@_W@__crt_stdio_output@@V?$format_validation_base@_WV?$string_output_adapter@_W@__crt_stdio_output@@@2@@__crt_stdio_output@@AEAA_NXZ 0000000180031ad4     libucrt:output.obj
 0002:0000bae0       $unwind$?get_ControlObjectDescription@COPOSVoiceRecognition@@UEAAJPEAPEA_W@Z 0000000180031ae0     VoiceRecognitionImpl.obj
 0002:0000bae0       $unwind$__dcrt_lowio_ensure_console_output_initialized 0000000180031ae0     libucrt:initcon.obj
 0002:0000bae0       $unwind$?__mbrtowc_utf8@__crt_mbstring@@YA_KPEA_WPEBD_KPEAU_Mbstatet@@AEAV__crt_cached_ptd_host@@@Z 0000000180031ae0     libucrt:mbrtowc.obj
 0002:0000bae0       $unwind$?getSystemCP@@YAHH@Z 0000000180031ae0     libucrt:mbctype.obj
 0002:0000bae8       $unwind$?CheckHealth@COPOSVoiceRecognition@@UEAAJJPEAJ@Z 0000000180031ae8     VoiceRecognitionImpl.obj
 0002:0000bae8       $unwind$?ResetStatistics@COPOSVoiceRecognition@@UEAAJPEA_WPEAJ@Z 0000000180031ae8     VoiceRecognitionImpl.obj
 0002:0000bae8       $unwind$?RetrieveStatistics@COPOSVoiceRecognition@@UEAAJPEAPEA_WPEAJ@Z 0000000180031ae8     VoiceRecognitionImpl.obj
 0002:0000bae8       $unwind$?StartHearingFree@COPOSVoiceRecognition@@UEAAJPEA_WPEAJ@Z 0000000180031ae8     VoiceRecognitionImpl.obj
 0002:0000bae8       $unwind$?StartHearingYesNo@COPOSVoiceRecognition@@UEAAJPEA_WPEAJ@Z 0000000180031ae8     VoiceRecognitionImpl.obj
 0002:0000bae8       $unwind$?UpdateFirmware@COPOSVoiceRecognition@@UEAAJPEA_WPEAJ@Z 0000000180031ae8     VoiceRecognitionImpl.obj
 0002:0000bae8       $unwind$?UpdateStatistics@COPOSVoiceRecognition@@UEAAJPEA_WPEAJ@Z 0000000180031ae8     VoiceRecognitionImpl.obj
 0002:0000baf8       $unwind$?ClaimDevice@COPOSVoiceRecognition@@UEAAJJPEAJ@Z 0000000180031af8     VoiceRecognitionImpl.obj
 0002:0000bb08       $unwind$?Close@COPOSVoiceRecognition@@UEAAJPEAJ@Z 0000000180031b08     VoiceRecognitionImpl.obj
 0002:0000bb14       $unwind$?DirectIO@COPOSVoiceRecognition@@UEAAJJPEAJPEAPEA_W0@Z 0000000180031b14     VoiceRecognitionImpl.obj
 0002:0000bb30       $unwind$?Open@COPOSVoiceRecognition@@UEAAJPEA_WPEAJ@Z 0000000180031b30     VoiceRecognitionImpl.obj
 0002:0000bb54       $unwind$?CompareFirmwareVersion@COPOSVoiceRecognition@@UEAAJPEA_WPEAJ1@Z 0000000180031b54     VoiceRecognitionImpl.obj
 0002:0000bb54       $unwind$?StartHearingWord@COPOSVoiceRecognition@@UEAAJPEA_W0PEAJ@Z 0000000180031b54     VoiceRecognitionImpl.obj
 0002:0000bb54       $unwind$?initialize_inherited_file_handles_nolock@@YAXXZ 0000000180031b54     libucrt:ioinit.obj
 0002:0000bb70       $unwind$?StartHearingSentence@COPOSVoiceRecognition@@UEAAJPEA_W00PEAJ@Z 0000000180031b70     VoiceRecognitionImpl.obj
 0002:0000bb90       $unwind$__scrt_is_nonwritable_in_current_image 0000000180031b90     LIBCMT:utility.obj
 0002:0000bbb0       $unwind$__scrt_is_nonwritable_in_current_image$filt$0 0000000180031bb0     LIBCMT:utility.obj
 0002:0000bbb8       $unwind$__report_securityfailure 0000000180031bb8     LIBCMT:gs_report.obj
 0002:0000bbc0       $unwind$__report_gsfailure 0000000180031bc0     LIBCMT:gs_report.obj
 0002:0000bbc8       $unwind$capture_current_context 0000000180031bc8     LIBCMT:gs_report.obj
 0002:0000bbd4       $unwind$capture_previous_context 0000000180031bd4     LIBCMT:gs_report.obj
 0002:0000bbe0       $unwind$??2@YAPEAX_KAEBUnothrow_t@std@@@Z 0000000180031be0     LIBCMT:new_scalar_nothrow.obj
 0002:0000bbf0       $cppxdata$??2@YAPEAX_KAEBUnothrow_t@std@@@Z 0000000180031bf0     LIBCMT:new_scalar_nothrow.obj
 0002:0000bbfd       $stateUnwindMap$??2@YAPEAX_KAEBUnothrow_t@std@@@Z 0000000180031bfd     LIBCMT:new_scalar_nothrow.obj
 0002:0000bc00       $tryMap$??2@YAPEAX_KAEBUnothrow_t@std@@@Z 0000000180031c00     LIBCMT:new_scalar_nothrow.obj
 0002:0000bc08       $handlerMap$??2@YAPEAX_KAEBUnothrow_t@std@@@Z 0000000180031c08     LIBCMT:new_scalar_nothrow.obj
 0002:0000bc10       $ip2state$??2@YAPEAX_KAEBUnothrow_t@std@@@Z 0000000180031c10     LIBCMT:new_scalar_nothrow.obj
 0002:0000bc14       $unwind$?catch$0@?0???2@YAPEAX_KAEBUnothrow_t@std@@@Z@4HA 0000000180031c14     LIBCMT:new_scalar_nothrow.obj
 0002:0000bc24       $cppxdata$?catch$0@?0???2@YAPEAX_KAEBUnothrow_t@std@@@Z@4HA 0000000180031c24     LIBCMT:new_scalar_nothrow.obj
 0002:0000bc2e       $stateUnwindMap$?catch$0@?0???2@YAPEAX_KAEBUnothrow_t@std@@@Z@4HA 0000000180031c2e     LIBCMT:new_scalar_nothrow.obj
 0002:0000bc30       $ip2state$?catch$0@?0???2@YAPEAX_KAEBUnothrow_t@std@@@Z@4HA 0000000180031c30     LIBCMT:new_scalar_nothrow.obj
 0002:0000bc34       $unwind$__GSHandlerCheckCommon 0000000180031c34     LIBCMT:gshandler.obj
 0002:0000bc40       $xdatasym                  0000000180031c40     LIBCMT:chkstk.obj
 0002:0000bc48       $xdatasym                  0000000180031c48     LIBCMT:amdsecgs.obj
 0002:0000bc4c       $unwind$?dllmain_crt_process_attach@@YAHQEAUHINSTANCE__@@QEAX@Z 0000000180031c4c     LIBCMT:dll_dllmain.obj
 0002:0000bc88       $unwind$?dllmain_crt_process_detach@@YAH_N@Z 0000000180031c88     LIBCMT:dll_dllmain.obj
 0002:0000bcdc       $unwind$?dllmain_dispatch@@YAHQEAUHINSTANCE__@@KQEAX@Z 0000000180031cdc     LIBCMT:dll_dllmain.obj
 0002:0000bd04       $unwind$_write_internal$fin$0 0000000180031d04     libucrt:write.obj
 0002:0000bd04       $unwind$?fin$0@?0??_fclose_internal@@YAHQEAU_iobuf@@AEAV__crt_cached_ptd_host@@@Z@4HA 0000000180031d04     libucrt:fclose.obj
 0002:0000bd04       $unwind$?filt$0@?0??dllmain_dispatch@@YAHQEAUHINSTANCE__@@KQEAX@Z@4HA 0000000180031d04     LIBCMT:dll_dllmain.obj
 0002:0000bd04       $unwind$?filt$0@?0??FrameUnwindToState@__FrameHandler4@@SAXPEA_KPEAU_xDISPATCHER_CONTEXT@@PEAUFuncInfo4@FH4@@H@Z@4HA 0000000180031d04     libvcruntime:frame.obj
 0002:0000bd04       $unwind$?fin$1@?0??FrameUnwindToState@__FrameHandler4@@SAXPEA_KPEAU_xDISPATCHER_CONTEXT@@PEAUFuncInfo4@FH4@@H@Z@4HA 0000000180031d04     libvcruntime:frame.obj
 0002:0000bd0c       $unwind$__isa_available_init 0000000180031d0c     LIBCMT:cpu_disp.obj
 0002:0000bd1c       $unwind$__scrt_fastfail    0000000180031d1c     LIBCMT:utility_desktop.obj
 0002:0000bd2c       $unwind$__security_init_cookie 0000000180031d2c     LIBCMT:gs_support.obj
 0002:0000bd38       $xdatasym                  0000000180031d38     LIBCMT:guard_dispatch.obj
 0002:0000bd40       $xdatasym                  0000000180031d40     LIBCMT:guard_xfg_dispatch.obj
 0002:0000bd44       $unwind$AtlThunk_InitData  0000000180031d44     atls:atlthunk.obj
 0002:0000bd58       $unwind$wcsstr             0000000180031d58     libvcruntime:wcsstr.obj
 0002:0000bd70       $xdatasym                  0000000180031d70     libvcruntime:memcmp.obj
 0002:0000bd78       $xdatasym                  0000000180031d78     libvcruntime:memcpy.obj
 0002:0000bd88       $xdatasym                  0000000180031d88     libvcruntime:memset.obj
 0002:0000bd98       $unwind$__C_specific_handler 0000000180031d98     libvcruntime:riscchandler.obj
 0002:0000bd98       $unwind$?GetRangeOfTrysToCheck@__FrameHandler3@@SA?AU?$pair@Viterator@TryBlockMap@__FrameHandler3@@V123@@std@@AEAVTryBlockMap@1@HPEAU_xDISPATCHER_CONTEXT@@PEBU_s_FuncInfo@@H@Z 0000000180031d98     libvcruntime:risctrnsctrl.obj
 0002:0000bdb4       $unwind$?StateFromIp@__FrameHandler4@@SAHPEAUFuncInfo4@FH4@@PEAU_xDISPATCHER_CONTEXT@@_K@Z 0000000180031db4     libvcruntime:ehstate.obj
 0002:0000bdb4       $unwind$?DecompFuncInfo@FH4@@YA_JPEAEAEAUFuncInfo4@1@_KH_N@Z 0000000180031db4     libvcruntime:risctrnsctrl.obj
 0002:0000bdcc       $unwind$?GetEstablisherFrame@__FrameHandler3@@SAPEA_KPEA_KPEAU_xDISPATCHER_CONTEXT@@PEBU_s_FuncInfo@@0@Z 0000000180031dcc     libvcruntime:risctrnsctrl.obj
 0002:0000bde4       $unwind$?UnwindNestedFrames@__FrameHandler3@@SAXPEA_KPEAUEHExceptionRecord@@PEAU_CONTEXT@@0PEAXPEBU_s_FuncInfo@@HHPEBU_s_HandlerType@@PEAU_xDISPATCHER_CONTEXT@@E@Z 0000000180031de4     libvcruntime:risctrnsctrl.obj
 0002:0000bde4       $unwind$?UnwindNestedFrames@__FrameHandler4@@SAXPEA_KPEAUEHExceptionRecord@@PEAU_CONTEXT@@0PEAXPEAUFuncInfo4@FH4@@HHPEAUHandlerType4@5@PEAU_xDISPATCHER_CONTEXT@@E@Z 0000000180031de4     libvcruntime:risctrnsctrl.obj
 0002:0000bdf8       $unwind$?GetRangeOfTrysToCheck@__FrameHandler4@@SA?AU?$pair@Viterator@TryBlockMap4@FH4@@V123@@std@@AEAVTryBlockMap4@FH4@@HPEAU_xDISPATCHER_CONTEXT@@PEAUFuncInfo4@5@H@Z 0000000180031df8     libvcruntime:risctrnsctrl.obj
 0002:0000be14       $unwind$__CxxFrameHandler3 0000000180031e14     libvcruntime:risctrnsctrl.obj
 0002:0000be28       $unwind$__CxxFrameHandler4 0000000180031e28     libvcruntime:risctrnsctrl.obj
 0002:0000be3c       $unwind$??$_CallSETranslator@V__FrameHandler4@@@@YAHPEAUEHExceptionRecord@@PEA_KPEAU_CONTEXT@@PEAU_xDISPATCHER_CONTEXT@@PEAUFuncInfo4@FH4@@K1H@Z 0000000180031e3c     libvcruntime:risctrnsctrl.obj
 0002:0000be5c       $unwind$?filt$0@?0???$_CallSETranslator@V__FrameHandler3@@@@YAHPEAUEHExceptionRecord@@PEA_KPEAU_CONTEXT@@PEAU_xDISPATCHER_CONTEXT@@PEBU_s_FuncInfo@@K1H@Z@4HA 0000000180031e5c     libvcruntime:risctrnsctrl.obj
 0002:0000be5c       $unwind$?filt$0@?0???$_CallSETranslator@V__FrameHandler4@@@@YAHPEAUEHExceptionRecord@@PEA_KPEAU_CONTEXT@@PEAU_xDISPATCHER_CONTEXT@@PEAUFuncInfo4@FH4@@K1H@Z@4HA 0000000180031e5c     libvcruntime:risctrnsctrl.obj
 0002:0000be68       $unwind$??$_CallSETranslator@V__FrameHandler3@@@@YAHPEAUEHExceptionRecord@@PEA_KPEAU_CONTEXT@@PEAU_xDISPATCHER_CONTEXT@@PEBU_s_FuncInfo@@K1H@Z 0000000180031e68     libvcruntime:risctrnsctrl.obj
 0002:0000be88       $unwind$__DestructExceptionObject 0000000180031e88     libvcruntime:ehhelpers.obj
 0002:0000bea8       $unwind$__DestructExceptionObject$filt$0 0000000180031ea8     libvcruntime:ehhelpers.obj
 0002:0000bea8       $unwind$?fin$1@?0??CxxCallCatchBlock@__FrameHandler3@@SAPEAXPEAU_EXCEPTION_RECORD@@@Z@4HA 0000000180031ea8     libvcruntime:frame.obj
 0002:0000bea8       $unwind$?fin$1@?0??CxxCallCatchBlock@__FrameHandler4@@SAPEAXPEAU_EXCEPTION_RECORD@@@Z@4HA 0000000180031ea8     libvcruntime:frame.obj
 0002:0000beb4       $unwind$_CxxThrowException 0000000180031eb4     libvcruntime:throw.obj
 0002:0000bec8       $xdatasym                  0000000180031ec8     libvcruntime:notify.obj
 0002:0000bed4       $unwind$?getStartStop@UWMap4@FH4@@QEAAXHHAEAViterator@12@0@Z 0000000180031ed4     libvcruntime:frame.obj
 0002:0000beec       $unwind$?FrameUnwindToState@__FrameHandler3@@SAXPEA_KPEAU_xDISPATCHER_CONTEXT@@PEBU_s_FuncInfo@@H@Z 0000000180031eec     libvcruntime:frame.obj
 0002:0000bf38       $unwind$?CxxCallCatchBlock@__FrameHandler3@@SAPEAXPEAU_EXCEPTION_RECORD@@@Z 0000000180031f38     libvcruntime:frame.obj
 0002:0000bf74       $unwind$?FrameUnwindToState@__FrameHandler4@@SAXPEA_KPEAU_xDISPATCHER_CONTEXT@@PEAUFuncInfo4@FH4@@H@Z 0000000180031f74     libvcruntime:frame.obj
 0002:0000bfbc       $unwind$?CxxCallCatchBlock@__FrameHandler4@@SAPEAXPEAU_EXCEPTION_RECORD@@@Z 0000000180031fbc     libvcruntime:frame.obj
 0002:0000c018       $unwind$?IsInExceptionSpec@@YAEPEAUEHExceptionRecord@@PEBU_s_ESTypeList@@@Z 0000000180032018     libvcruntime:frame.obj
 0002:0000c034       $unwind$??$__InternalCxxFrameHandler@V__FrameHandler4@@@@YA?AW4_EXCEPTION_DISPOSITION@@PEAUEHExceptionRecord@@PEA_KPEAU_CONTEXT@@PEAU_xDISPATCHER_CONTEXT@@PEAUFuncInfo4@FH4@@H1E@Z 0000000180032034     libvcruntime:frame.obj
 0002:0000c04c       $unwind$??$BuildCatchObjectHelperInternal@V__FrameHandler3@@@@YAHPEAUEHExceptionRecord@@PEAXPEBU_s_HandlerType@@PEBU_s_CatchableType@@@Z 000000018003204c     libvcruntime:frame.obj
 0002:0000c08c       $unwind$??$BuildCatchObjectHelperInternal@V__FrameHandler4@@@@YAHPEAUEHExceptionRecord@@PEAXPEAUHandlerType4@FH4@@PEBU_s_CatchableType@@@Z 000000018003208c     libvcruntime:frame.obj
 0002:0000c0cc       $unwind$??$BuildCatchObjectInternal@V__FrameHandler3@@@@YAXPEAUEHExceptionRecord@@PEAXPEBU_s_HandlerType@@PEBU_s_CatchableType@@@Z 00000001800320cc     libvcruntime:frame.obj
 0002:0000c0f8       $unwind$??$BuildCatchObjectInternal@V__FrameHandler4@@@@YAXPEAUEHExceptionRecord@@PEAXPEAUHandlerType4@FH4@@PEBU_s_CatchableType@@@Z 00000001800320f8     libvcruntime:frame.obj
 0002:0000c124       $unwind$??$FindHandler@V__FrameHandler3@@@@YAXPEAUEHExceptionRecord@@PEA_KPEAU_CONTEXT@@PEAU_xDISPATCHER_CONTEXT@@PEBU_s_FuncInfo@@EH1@Z 0000000180032124     libvcruntime:frame.obj
 0002:0000c144       $unwind$??$FindHandler@V__FrameHandler4@@@@YAXPEAUEHExceptionRecord@@PEA_KPEAU_CONTEXT@@PEAU_xDISPATCHER_CONTEXT@@PEAUFuncInfo4@FH4@@EH1@Z 0000000180032144     libvcruntime:frame.obj
 0002:0000c164       $unwind$??$CatchIt@V__FrameHandler3@@@@YAXPEAUEHExceptionRecord@@PEA_KPEAU_CONTEXT@@PEAU_xDISPATCHER_CONTEXT@@PEBU_s_FuncInfo@@PEBU_s_HandlerType@@PEBU_s_CatchableType@@PEBU_s_TryBlockMapEntry@@H1EE@Z 0000000180032164     libvcruntime:frame.obj
 0002:0000c164       $unwind$??$CatchIt@V__FrameHandler4@@@@YAXPEAUEHExceptionRecord@@PEA_KPEAU_CONTEXT@@PEAU_xDISPATCHER_CONTEXT@@PEAUFuncInfo4@FH4@@PEAUHandlerType4@4@PEBU_s_CatchableType@@PEAUTryBlockMapEntry4@4@H1EE@Z 0000000180032164     libvcruntime:frame.obj
 0002:0000c17c       $unwind$??$FindHandlerForForeignException@V__FrameHandler3@@@@YAXPEAUEHExceptionRecord@@PEA_KPEAU_CONTEXT@@PEAU_xDISPATCHER_CONTEXT@@PEBU_s_FuncInfo@@HH1@Z 000000018003217c     libvcruntime:frame.obj
 0002:0000c198       $unwind$??$FindHandlerForForeignException@V__FrameHandler4@@@@YAXPEAUEHExceptionRecord@@PEA_KPEAU_CONTEXT@@PEAU_xDISPATCHER_CONTEXT@@PEAUFuncInfo4@FH4@@HH1@Z 0000000180032198     libvcruntime:frame.obj
 0002:0000c1b8       $unwind$?try_get_function@@YAPEAXW4function_id@?A0x391cf84c@@QEBDQEBW4module_id@2@2@Z 00000001800321b8     libucrt:winapi_thunks.obj
 0002:0000c1b8       $unwind$?try_get_function@@YAPEAXW4function_id@?A0xbc0cc709@@QEBDQEBW4module_id@2@2@Z 00000001800321b8     libvcruntime:winapi_downlevel.obj
 0002:0000c1d8       $xdatasym                  00000001800321d8     libvcruntime:handlers.obj
 0002:0000c1f8       $unwind$__acrt_call_reportfault 00000001800321f8     libucrt:invalid_parameter.obj
 0002:0000c218       $unwind$_invalid_parameter 0000000180032218     libucrt:invalid_parameter.obj
 0002:0000c224       $unwind$_resetstkoflw      0000000180032224     libucrt:resetstk.obj
 0002:0000c248       $unwind$__stdio_common_vswprintf_s 0000000180032248     libucrt:output.obj
 0002:0000c25c       $unwind$?write_string@?$string_output_adapter@_W@__crt_stdio_output@@QEBAXQEB_WHQEAHAEAV__crt_cached_ptd_host@@@Z 000000018003225c     libucrt:output.obj
 0002:0000c274       $unwind$??$common_vsprintf@Vformat_validation_base@__crt_stdio_output@@_W@@YAH_KQEA_W0QEB_WAEAV__crt_cached_ptd_host@@QEAD@Z 0000000180032274     libucrt:output.obj
 0002:0000c294       $unwind$?parse_int_from_format_string@?$output_processor@_WV?$string_output_adapter@_W@__crt_stdio_output@@V?$format_validation_base@_WV?$string_output_adapter@_W@__crt_stdio_output@@@2@@__crt_stdio_output@@AEAA_NQEAH@Z 0000000180032294     libucrt:output.obj
 0002:0000c2a8       $unwind$?state_case_type@?$output_processor@_WV?$string_output_adapter@_W@__crt_stdio_output@@V?$format_validation_base@_WV?$string_output_adapter@_W@__crt_stdio_output@@@2@@__crt_stdio_output@@AEAA_NXZ 00000001800322a8     libucrt:output.obj
 0002:0000c2cc       $unwind$?type_case_a@?$output_processor@_WV?$string_output_adapter@_W@__crt_stdio_output@@V?$format_validation_base@_WV?$string_output_adapter@_W@__crt_stdio_output@@@2@@__crt_stdio_output@@AEAA_NXZ 00000001800322cc     libucrt:output.obj
 0002:0000c2e0       $unwind$??$parse_integer@KV?$c_string_character_source@_W@__crt_strtox@@$0A@@__crt_strtox@@YAKAEAV__crt_cached_ptd_host@@V?$c_string_character_source@_W@0@H_N@Z 00000001800322e0     libucrt:output.obj
 0002:0000c2fc       $unwind$?try_cor_exit_process@@YAXI@Z 00000001800322fc     libucrt:exit.obj
 0002:0000c310       $ip2state$?try_cor_exit_process@@YAXI@Z 0000000180032310     libucrt:exit.obj
 0002:0000c318       $unwind$?common_exit@@YAXHW4_crt_exit_cleanup_mode@@W4_crt_exit_return_mode@@@Z 0000000180032318     libucrt:exit.obj
 0002:0000c32c       $stateUnwindMap$__dcrt_uninitialize_environments_nolock 000000018003232c     libucrt:environment_initialization.obj
 0002:0000c32c       $stateUnwindMap$?common_exit@@YAXHW4_crt_exit_cleanup_mode@@W4_crt_exit_return_mode@@@Z 000000018003232c     libucrt:exit.obj
 0002:0000c32c       $stateUnwindMap$_execute_onexit_table 000000018003232c     libucrt:onexit.obj
 0002:0000c338       $ip2state$?common_exit@@YAXHW4_crt_exit_cleanup_mode@@W4_crt_exit_return_mode@@@Z 0000000180032338     libucrt:exit.obj
 0002:0000c340       $unwind$??R<lambda_6e4b09c48022b2350581041d5f6b0c4c>@@QEBA@XZ 0000000180032340     libucrt:exit.obj
 0002:0000c360       $unwind$??$?RV<lambda_d80eeec6fff315bfe5c115232f3240e3>@@AEAV<lambda_6e4b09c48022b2350581041d5f6b0c4c>@@V<lambda_2358e3775559c9db80273638284d5e45>@@@?$__crt_seh_guarded_call@X@@QEAAX$$QEAV<lambda_d80eeec6fff315bfe5c115232f3240e3>@@AEAV<lambda_6e4b09c48022b2350581041d5f6b0c4c>@@$$QEAV<lambda_2358e3775559c9db80273638284d5e45>@@@Z 0000000180032360     libucrt:exit.obj
 0002:0000c384       $unwind$__dcrt_uninitialize_environments_nolock 0000000180032384     libucrt:environment_initialization.obj
 0002:0000c394       $unwind$??$free_environment@D@@YAXQEAPEAD@Z 0000000180032394     libucrt:environment_initialization.obj
 0002:0000c394       $unwind$??$free_environment@_W@@YAXQEAPEA_W@Z 0000000180032394     libucrt:environment_initialization.obj
 0002:0000c394       $unwind$_initterm          0000000180032394     libucrt:initterm.obj
 0002:0000c3a0       $unwind$_register_onexit_function 00000001800323a0     libucrt:onexit.obj
 0002:0000c3a8       $unwind$_execute_onexit_table 00000001800323a8     libucrt:onexit.obj
 0002:0000c3b8       $ip2state$_execute_onexit_table 00000001800323b8     libucrt:onexit.obj
 0002:0000c3c0       $unwind$??R<lambda_22ebabd17bc4fa466a2aca6d8deb888d>@@QEBAHXZ 00000001800323c0     libucrt:onexit.obj
 0002:0000c3d8       $unwind$??$?RV<lambda_638799b9deba96c50f710eeac98168cd>@@AEAV<lambda_22ebabd17bc4fa466a2aca6d8deb888d>@@V<lambda_a6f7d7db0129f75315ebf26d50c089f1>@@@?$__crt_seh_guarded_call@H@@QEAAH$$QEAV<lambda_638799b9deba96c50f710eeac98168cd>@@AEAV<lambda_22ebabd17bc4fa466a2aca6d8deb888d>@@$$QEAV<lambda_a6f7d7db0129f75315ebf26d50c089f1>@@@Z 00000001800323d8     libucrt:onexit.obj
 0002:0000c3fc       $unwind$??$?RV<lambda_7777bce6b2f8c936911f934f8298dc43>@@AEAV<lambda_f03950bc5685219e0bcd2087efbe011e>@@V<lambda_3883c3dff614d5e0c5f61bb1ac94921c>@@@?$__crt_seh_guarded_call@H@@QEAAH$$QEAV<lambda_7777bce6b2f8c936911f934f8298dc43>@@AEAV<lambda_f03950bc5685219e0bcd2087efbe011e>@@$$QEAV<lambda_3883c3dff614d5e0c5f61bb1ac94921c>@@@Z 00000001800323fc     libucrt:onexit.obj
 0002:0000c420       $unwind$_query_new_handler 0000000180032420     libucrt:new_handler.obj
 0002:0000c440       $unwind$terminate          0000000180032440     libucrt:terminate.obj
 0002:0000c460       $xdatasym                  0000000180032460     libucrt:strncmp.obj
 0002:0000c464       $unwind$?construct_ptd_array@@YAXQEAU__acrt_ptd@@@Z 0000000180032464     libucrt:per_thread_data.obj
 0002:0000c46c       $unwind$?destroy_ptd_array@@YAXQEAU__acrt_ptd@@@Z 000000018003246c     libucrt:per_thread_data.obj
 0002:0000c474       $unwind$??$?RV<lambda_0ae27a3a962d80f24befdcbee591983d>@@AEAV<lambda_8d0ee55de4b1038c4002e0adecdf1839>@@V<lambda_dc504788e8f1664fe9b84e20bfb512f2>@@@?$__crt_seh_guarded_call@X@@QEAAX$$QEAV<lambda_0ae27a3a962d80f24befdcbee591983d>@@AEAV<lambda_8d0ee55de4b1038c4002e0adecdf1839>@@$$QEAV<lambda_dc504788e8f1664fe9b84e20bfb512f2>@@@Z 0000000180032474     libucrt:per_thread_data.obj
 0002:0000c498       $unwind$??$?RV<lambda_aa87e3671a710a21b5dc78c0bdf72e11>@@AEAV<lambda_92619d2358a28f41a33ba319515a20b9>@@V<lambda_6992ecaafeb10aed2b74cb1fae11a551>@@@?$__crt_seh_guarded_call@X@@QEAAX$$QEAV<lambda_aa87e3671a710a21b5dc78c0bdf72e11>@@AEAV<lambda_92619d2358a28f41a33ba319515a20b9>@@$$QEAV<lambda_6992ecaafeb10aed2b74cb1fae11a551>@@@Z 0000000180032498     libucrt:per_thread_data.obj
 0002:0000c4bc       $unwind$??$?RV<lambda_f2e299630e499de9f9a165e60fcd3db5>@@AEAV<lambda_2ae9d31cdba2644fcbeaf08da7c24588>@@V<lambda_40d01ff24d0e7b3814fdbdcee8eab3c7>@@@?$__crt_seh_guarded_call@X@@QEAAX$$QEAV<lambda_f2e299630e499de9f9a165e60fcd3db5>@@AEAV<lambda_2ae9d31cdba2644fcbeaf08da7c24588>@@$$QEAV<lambda_40d01ff24d0e7b3814fdbdcee8eab3c7>@@@Z 00000001800324bc     libucrt:per_thread_data.obj
 0002:0000c4e0       $unwind$??$?RV<lambda_2d41944a1d46af3157314b8a01080d33>@@AEAV<lambda_8f455de75cd7d7f24b4096f044d8b9e6>@@V<lambda_aa500f224e6afead328df44964fe2772>@@@?$__crt_seh_guarded_call@X@@QEAAX$$QEAV<lambda_2d41944a1d46af3157314b8a01080d33>@@AEAV<lambda_8f455de75cd7d7f24b4096f044d8b9e6>@@$$QEAV<lambda_aa500f224e6afead328df44964fe2772>@@@Z 00000001800324e0     libucrt:per_thread_data.obj
 0002:0000c504       $unwind$__acrt_uninitialize_locale 0000000180032504     libucrt:wsetlocale.obj
 0002:0000c504       $unwind$__acrt_get_sigabrt_handler 0000000180032504     libucrt:signal.obj
 0002:0000c50c       $unwind$??$?RV<lambda_410d79af7f07d98d83a3f525b3859a53>@@AEAV<lambda_3e16ef9562a7dcce91392c22ab16ea36>@@V<lambda_38119f0e861e05405d8a144b9b982f0a>@@@?$__crt_seh_guarded_call@X@@QEAAX$$QEAV<lambda_410d79af7f07d98d83a3f525b3859a53>@@AEAV<lambda_3e16ef9562a7dcce91392c22ab16ea36>@@$$QEAV<lambda_38119f0e861e05405d8a144b9b982f0a>@@@Z 000000018003250c     libucrt:wsetlocale.obj
 0002:0000c534       $unwind$__acrt_initialize_winapi_thunks 0000000180032534     libucrt:winapi_thunks.obj
 0002:0000c534       $unwind$__acrt_fenv_get_control 0000000180032534     libucrt:_fenvutils.obj
 0002:0000c53c       $unwind$__acrt_fp_format   000000018003253c     libucrt:cvt.obj
 0002:0000c54c       $unwind$?fp_format_e_internal@@YAHQEAD_KH_NIQEAU_strflt@@2AEAV__crt_cached_ptd_host@@@Z 000000018003254c     libucrt:cvt.obj
 0002:0000c568       $unwind$?fp_format_a@@YAHQEBNPEAD_KQEAD2H_NIW4__acrt_rounding_mode@@AEAV__crt_cached_ptd_host@@@Z 0000000180032568     libucrt:cvt.obj
 0002:0000c584       $unwind$?fp_format_g@@YAHQEBNQEAD_K12H_NIW4__acrt_rounding_mode@@AEAV__crt_cached_ptd_host@@@Z 0000000180032584     libucrt:cvt.obj
 0002:0000c59c       $unwind$__acrt_initialize_lowio 000000018003259c     libucrt:ioinit.obj
 0002:0000c5bc       $unwind$??$common_expand_argv_wildcards@D@@YAHQEAPEADQEAPEAPEAD@Z 00000001800325bc     libucrt:argv_wildcards.obj
 0002:0000c5d4       $unwind$__dcrt_get_narrow_environment_from_os 00000001800325d4     libucrt:get_environment_from_os.obj
 0002:0000c5d4       $unwind$??$__acrt_convert_wcs_mbs_cp@_WDV<lambda_d8593a27d1aa8c02be35c86a17d324c4>@@U__crt_win32_buffer_internal_dynamic_resizing@@@@YAHQEB_WAEAV?$__crt_win32_buffer@DU__crt_win32_buffer_internal_dynamic_resizing@@@@AEBV<lambda_d8593a27d1aa8c02be35c86a17d324c4>@@I@Z 00000001800325d4     libucrt:argv_wildcards.obj
 0002:0000c5ec       $unwind$??$copy_and_add_argument_to_buffer@D@@YAHQEBD0_KAEAV?$argument_list@D@?A0x5f5c8891@@@Z 00000001800325ec     libucrt:argv_wildcards.obj
 0002:0000c608       $unwind$??$expand_argument_wildcards@D@@YAHQEAD0AEAV?$argument_list@D@?A0x5f5c8891@@@Z 0000000180032608     libucrt:argv_wildcards.obj
 0002:0000c628       $unwind$__acrt_GetModuleFileNameA 0000000180032628     libucrt:getmodulefilenamea.obj
 0002:0000c644       $unwind$_setmbcp_nolock    0000000180032644     libucrt:mbctype.obj
 0002:0000c664       $unwind$?update_thread_multibyte_data_internal@@YAPEAU__crt_multibyte_data@@QEAU__acrt_ptd@@QEAPEAU1@@Z 0000000180032664     libucrt:mbctype.obj
 0002:0000c68c       $unwind$?setmbcp_internal@@YAHH_NQEAU__acrt_ptd@@QEAPEAU__crt_multibyte_data@@@Z 000000018003268c     libucrt:mbctype.obj
 0002:0000c6a4       $unwind$?setSBUpLow@@YAXPEAU__crt_multibyte_data@@@Z 00000001800326a4     libucrt:mbctype.obj
 0002:0000c6c0       $unwind$??$?RV<lambda_efdfa57d1f175319df784efa44bb7b81>@@AEAV<lambda_5f0a4c1567f8adc6734073e5d1e1b35c>@@V<lambda_2e8a7d3640ea6ccb4c2413664c2db6fd>@@@?$__crt_seh_guarded_call@X@@QEAAX$$QEAV<lambda_efdfa57d1f175319df784efa44bb7b81>@@AEAV<lambda_5f0a4c1567f8adc6734073e5d1e1b35c>@@$$QEAV<lambda_2e8a7d3640ea6ccb4c2413664c2db6fd>@@@Z 00000001800326c0     libucrt:mbctype.obj
 0002:0000c6e4       $unwind$__acrt_WideCharToMultiByte 00000001800326e4     libucrt:widechartomultibyte.obj
 0002:0000c6f0       $unwind$raise              00000001800326f0     libucrt:signal.obj
 0002:0000c72c       $unwind$??$?RV<lambda_450d765d439847d4c735a33c368b5fc0>@@AEAV<lambda_44731a7d0e6d81c3e6aa82d741081786>@@V<lambda_601a2a7da3b7a96e9554ac7215c4b07c>@@@?$__crt_seh_guarded_call@P6AXH@Z@@QEAAP6AXH@Z$$QEAV<lambda_450d765d439847d4c735a33c368b5fc0>@@AEAV<lambda_44731a7d0e6d81c3e6aa82d741081786>@@$$QEAV<lambda_601a2a7da3b7a96e9554ac7215c4b07c>@@@Z 000000018003272c     libucrt:signal.obj
 0002:0000c750       $unwind$fclose             0000000180032750     libucrt:fclose.obj
 0002:0000c750       $unwind$_fflush_nolock     0000000180032750     libucrt:fflush.obj
 0002:0000c760       $unwind$?common_flush_all@@YAH_N@Z 0000000180032760     libucrt:fflush.obj
 0002:0000c768       $unwind$??$?RV<lambda_842d9ff0dc9ef11c61343bbaebe7f885>@@AEAV<lambda_c5860995281e5c4ce005b3de8f5874ee>@@V<lambda_d90129c13df834fdcbf8d2b88dafcf2d>@@@?$__crt_seh_guarded_call@X@@QEAAX$$QEAV<lambda_842d9ff0dc9ef11c61343bbaebe7f885>@@AEAV<lambda_c5860995281e5c4ce005b3de8f5874ee>@@$$QEAV<lambda_d90129c13df834fdcbf8d2b88dafcf2d>@@@Z 0000000180032768     libucrt:fflush.obj
 0002:0000c78c       $unwind$??$?RV<lambda_886d6c58226a84441f68b9f2b8217b83>@@AEAV<lambda_ab61a845afdef5b7c387490eaf3616ee>@@V<lambda_f7f22ab5edc0698d5f6905b0d3f44752>@@@?$__crt_seh_guarded_call@X@@QEAAX$$QEAV<lambda_886d6c58226a84441f68b9f2b8217b83>@@AEAV<lambda_ab61a845afdef5b7c387490eaf3616ee>@@$$QEAV<lambda_f7f22ab5edc0698d5f6905b0d3f44752>@@@Z 000000018003278c     libucrt:fflush.obj
 0002:0000c7b4       $unwind$__acrt_update_thread_locale_data 00000001800327b4     libucrt:locale_refcounting.obj
 0002:0000c7d8       $unwind$__acrt_locale_free_monetary 00000001800327d8     libucrt:initmon.obj
 0002:0000c7e0       $unwind$__acrt_locale_free_time 00000001800327e0     libucrt:inittime.obj
 0002:0000c7f0       $unwind$__acrt_GetStringTypeA 00000001800327f0     libucrt:getstringtypea.obj
 0002:0000c818       $unwind$__acrt_fp_strflt_to_string 0000000180032818     libucrt:_fptostr.obj
 0002:0000c834       $unwind$__acrt_fltout      0000000180032834     libucrt:cfout.obj
 0002:0000c854       $unwind$?divide@__crt_strtox@@YA_KAEAUbig_integer@1@AEBU21@@Z 0000000180032854     libucrt:cfout.obj
 0002:0000c86c       $chain$0$?divide@__crt_strtox@@YA_KAEAUbig_integer@1@AEBU21@@Z 000000018003286c     libucrt:cfout.obj
 0002:0000c880       $chain$1$?divide@__crt_strtox@@YA_KAEAUbig_integer@1@AEBU21@@Z 0000000180032880     libucrt:cfout.obj
 0002:0000c890       $unwind$?__mbsrtowcs_utf8@__crt_mbstring@@YA_KPEA_WPEAPEBD_KPEAU_Mbstatet@@AEAV__crt_cached_ptd_host@@@Z 0000000180032890     libucrt:mbrtowc.obj
 0002:0000c8a8       $unwind$_fcloseall         00000001800328a8     libucrt:closeall.obj
 0002:0000c8cc       $unwind$__acrt_lowio_destroy_handle_array 00000001800328cc     libucrt:osfinfo.obj
 0002:0000c8dc       $unwind$__acrt_lowio_ensure_fh_exists 00000001800328dc     libucrt:osfinfo.obj
 0002:0000c908       $unwind$qsort              0000000180032908     libucrt:qsort.obj
 0002:0000c920       $chain$4$qsort             0000000180032920     libucrt:qsort.obj
 0002:0000c944       $chain$5$qsort             0000000180032944     libucrt:qsort.obj
 0002:0000c954       $unwind$strpbrk            0000000180032954     libucrt:strpbrk.obj
 0002:0000c964       $unwind$fallbackMethod     0000000180032964     libucrt:strpbrk.obj
 0002:0000c974       $unwind$__acrt_LCMapStringA 0000000180032974     libucrt:lcmapstringa.obj
 0002:0000c984       $unwind$?__acrt_LCMapStringA_stat@@YAHPEAU__crt_locale_pointers@@PEB_WKPEBDHPEADHHH@Z 0000000180032984     libucrt:lcmapstringa.obj
 0002:0000c9ac       $unwind$_commit            00000001800329ac     libucrt:commit.obj
 0002:0000c9b4       $unwind$??$?RV<lambda_a37b2b86f63e897a80ea819b0eb08c01>@@AEAV<lambda_38ce7e780aa69e748d6df282ebc68efe>@@V<lambda_99fb1378e971ab6e7edea83e3a7a83a2>@@@?$__crt_seh_guarded_call@H@@QEAAH$$QEAV<lambda_a37b2b86f63e897a80ea819b0eb08c01>@@AEAV<lambda_38ce7e780aa69e748d6df282ebc68efe>@@$$QEAV<lambda_99fb1378e971ab6e7edea83e3a7a83a2>@@@Z 00000001800329b4     libucrt:commit.obj
 0002:0000c9d8       $unwind$_write_nolock      00000001800329d8     libucrt:write.obj
 0002:0000c9f0       $unwind$_write_internal    00000001800329f0     libucrt:write.obj
 0002:0000ca20       $unwind$?write_double_translated_ansi_nolock@@YA?AUwrite_result@?A0x17268360@@HQEBDIAEAV__crt_cached_ptd_host@@@Z 0000000180032a20     libucrt:write.obj
 0002:0000ca48       $ip2state$?write_double_translated_ansi_nolock@@YA?AUwrite_result@?A0x17268360@@HQEBDIAEAV__crt_cached_ptd_host@@@Z 0000000180032a48     libucrt:write.obj
 0002:0000ca50       $unwind$?write_text_ansi_nolock@@YA?AUwrite_result@?A0x17268360@@HQEBDI@Z 0000000180032a50     libucrt:write.obj
 0002:0000ca50       $unwind$?write_text_utf16le_nolock@@YA?AUwrite_result@?A0x17268360@@HQEBDI@Z 0000000180032a50     libucrt:write.obj
 0002:0000ca70       $unwind$?write_text_utf8_nolock@@YA?AUwrite_result@?A0x17268360@@HQEBDI@Z 0000000180032a70     libucrt:write.obj
 0002:0000ca98       $xdatasym                  0000000180032a98     libucrt:log10.obj
 0002:0000caa4       $unwind$__acrt_fenv_set_control 0000000180032aa4     libucrt:_fenvutils.obj
 0002:0000cab4       $unwind$?__mbrtoc32_utf8@__crt_mbstring@@YA_KPEA_UPEBD_KPEAU_Mbstatet@@AEAV__crt_cached_ptd_host@@@Z 0000000180032ab4     libucrt:mbrtoc32.obj
 0002:0000cad0       $unwind$?_fclose_nolock_internal@@YAHQEAU_iobuf@@AEAV__crt_cached_ptd_host@@@Z 0000000180032ad0     libucrt:fclose.obj
 0002:0000cae0       $unwind$?_fclose_internal@@YAHQEAU_iobuf@@AEAV__crt_cached_ptd_host@@@Z 0000000180032ae0     libucrt:fclose.obj
 0002:0000cb04       $unwind$_putwch_nolock     0000000180032b04     libucrt:putwch.obj
 0002:0000cb0c       $unwind$common_control87   0000000180032b0c     libucrt:ieee.obj
 0002:0000cb38       $unwind$_call_matherr      0000000180032b38     libucrt:libm_error.obj
 0002:0000cb40       $unwind$_handle_error      0000000180032b40     libucrt:libm_error.obj
 0002:0000cb60       $unwind$__acrt_initialize_fma3 0000000180032b60     libucrt:fma3_available.obj
 0002:0000cb68       $unwind$_log_special_common 0000000180032b68     libucrt:log_special.obj
 0002:0000cb74       $unwind$_close_internal    0000000180032b74     libucrt:close.obj
 0002:0000cb7c       $unwind$??$?RV<lambda_ad8af0d99a0adf03d037d7dffe354bb5>@@AEAV<lambda_c9ba49e555ba839a7b07aa3fbecb7617>@@V<lambda_2f1ebd5d68526518146ae959c9e734c8>@@@?$__crt_seh_guarded_call@H@@QEAAH$$QEAV<lambda_ad8af0d99a0adf03d037d7dffe354bb5>@@AEAV<lambda_c9ba49e555ba839a7b07aa3fbecb7617>@@$$QEAV<lambda_2f1ebd5d68526518146ae959c9e734c8>@@@Z 0000000180032b7c     libucrt:close.obj
 0002:0000cba0       $xdatasym                  0000000180032ba0     libucrt:fpsr.obj
 0002:0000cba8       $unwind$_raise_exc_ex      0000000180032ba8     libucrt:fpexcept.obj
 0002:0000cbbc       $unwind$_ctrlfp            0000000180032bbc     libucrt:fpctrl.obj
 0002:0000cbe4       $unwind$_IsNonwritableInCurrentImage 0000000180032be4     LIBCMT:pesect.obj
 0002:0000cc08       $unwind$strrchr            0000000180032c08     libvcruntime:strrchr.obj
 0002:0000cd70       .edata                     0000000180032d70     OPOSVoiceRecognition.exp
 0002:0000cd98       rgpv                       0000000180032d98     OPOSVoiceRecognition.exp
 0002:0000cda8       rgszName                   0000000180032da8     OPOSVoiceRecognition.exp
 0002:0000cdb8       rgwOrd                     0000000180032db8     OPOSVoiceRecognition.exp
 0002:0000cdc0       szName                     0000000180032dc0     OPOSVoiceRecognition.exp
 0002:0000cdd9       $N00001                    0000000180032dd9     OPOSVoiceRecognition.exp
 0002:0000cde9       $N00002                    0000000180032de9     OPOSVoiceRecognition.exp
 0002:0000cdfb       $N00003                    0000000180032dfb     OPOSVoiceRecognition.exp
 0002:0000ce0d       $N00004                    0000000180032e0d     OPOSVoiceRecognition.exp
 0002:0000d75a       .idata$6                   000000018003375a     kernel32:KERNEL32.dll
 0002:0000d972       .idata$6                   0000000180033972     user32:USER32.dll
 0002:0000daa6       .idata$6                   0000000180033aa6     gdi32:GDI32.dll
 0002:0000db4c       .idata$6                   0000000180033b4c     advapi32:ADVAPI32.dll
 0002:0000dc68       .idata$6                   0000000180033c68     ole32:ole32.dll
 0002:0000dc72       .idata$6                   0000000180033c72     oleaut32:OLEAUT32.dll
 0003:000001c0       ?ObjectMap@@3PAU_ATL_OBJMAP_ENTRY30@ATL@@A 00000001800351c0     VoiceRecognition.obj
 0003:000002bc       ?s_RequiredMethodsPerRelease@@3PAHA 00000001800352bc     VoiceRecognitionImpl.obj
 0003:000002c0       ?s_SOMethodNames@@3PAPEADA 00000001800352c0     VoiceRecognitionImpl.obj
 0003:000003c0       ?__vcrt_flsindex@@3KA      00000001800353c0     libvcruntime:per_thread_data.obj
 0003:000003d0       ?errno_no_memory@@3HA      00000001800353d0     libucrt:errno.obj
 0003:000003d4       ?doserrno_no_memory@@3KA   00000001800353d4     libucrt:errno.obj
 0003:000003e0       ?__acrt_flsindex@@3KA      00000001800353e0     libucrt:per_thread_data.obj
 0003:000008a0       _mbctypes                  00000001800358a0     libucrt:mbctype.obj
 0003:000009b0       _mbcasemaps                00000001800359b0     libucrt:mbctype.obj
 0003:00000ab0       ?__rgctypeflag@@3PADA      0000000180035ab0     libucrt:mbctype.obj
 0003:00000ac0       ?__rgcode_page_info@@3PAUcode_page_info@@A 0000000180035ac0     libucrt:mbctype.obj
 0003:00000d60       ?dazSupported@?1??common_control87@@9@9 0000000180035d60     libucrt:ieee.obj
 0003:00000d70       ?__dcrt_lowio_console_output_handle@@3PEAXEA 0000000180035d70     libucrt:initcon.obj
 0003:00000d80       ?dazSupported@?1??_ctrlfp@@9@9 0000000180035d80     libucrt:fpctrl.obj
 0003:00000fd0       ?is_initialized_as_dll@@3_NA 0000000180035fd0     LIBCMT:utility.obj
 0003:00000fd1       ?module_local_atexit_table_initialized@@3_NA 0000000180035fd1     LIBCMT:utility.obj
 0003:00000fd8       ?module_local_atexit_table@@3U_onexit_table_t@@A 0000000180035fd8     LIBCMT:utility.obj
 0003:00000ff0       ?module_local_at_quick_exit_table@@3U_onexit_table_t@@A 0000000180035ff0     LIBCMT:utility.obj
 0003:00001008       ?g_tss_cv@@3U_RTL_CONDITION_VARIABLE@@A 0000000180036008     LIBCMT:thread_safe_statics.obj
 0003:00001010       ?g_tss_event@@3PEAXEA      0000000180036010     LIBCMT:thread_safe_statics.obj
 0003:00001018       ?g_tss_mutex@@3U_RTL_CRITICAL_SECTION@@A 0000000180036018     LIBCMT:thread_safe_statics.obj
 0003:00001040       ?g_sleep_condition_variable_cs@@3P6AHPEAU_RTL_CONDITION_VARIABLE@@PEAU_RTL_CRITICAL_SECTION@@K@ZEA 0000000180036040     LIBCMT:thread_safe_statics.obj
 0003:00001048       ?g_wake_all_condition_variable@@3P6AXPEAU_RTL_CONDITION_VARIABLE@@@ZEA 0000000180036048     LIBCMT:thread_safe_statics.obj
 0003:00001050       GS_ExceptionRecord         0000000180036050     LIBCMT:gs_report.obj
 0003:000010f0       GS_ContextRecord           00000001800360f0     LIBCMT:gs_report.obj
 0003:000015c4       ?__proc_attached@@3HA      00000001800365c4     LIBCMT:dll_dllmain.obj
 0003:00001658       ?AllocateData@@3P6APEAUAtlThunkData_t@@XZEA 0000000180036658     atls:atlthunk.obj
 0003:00001660       ?InitData@@3P6AXPEAUAtlThunkData_t@@PEAX_K@ZEA 0000000180036660     atls:atlthunk.obj
 0003:00001668       ?DataToCode@@3P6AP6A_JPEAUHWND__@@I_K_J@ZPEAUAtlThunkData_t@@@ZEA 0000000180036668     atls:atlthunk.obj
 0003:00001670       ?FreeData@@3P6AXPEAUAtlThunkData_t@@@ZEA 0000000180036670     atls:atlthunk.obj
 0003:00001678       ?Initialized@@3_NA         0000000180036678     atls:atlthunk.obj
 0003:00001690       ?__vcrt_startup_thread_ptd@@3U__vcrt_ptd@@A 0000000180036690     libvcruntime:per_thread_data.obj
 0003:00001710       __vcrt_lock_table          0000000180036710     libvcruntime:locks.obj
 0003:00001738       __vcrt_locks_initialized   0000000180036738     libvcruntime:locks.obj
 0003:00001780       ?heap@@3V_HeapManager@@A   0000000180036780     libvcruntime:undname.obj
 0003:000017a8       ?module_handles@@3PAPEAUHINSTANCE__@@A 00000001800367a8     libvcruntime:winapi_downlevel.obj
 0003:000017c0       ?function_pointers@@3PAPEAXA 00000001800367c0     libvcruntime:winapi_downlevel.obj
 0003:000017e8       ?__acrt_invalid_parameter_handler@@3V?$dual_state_global@P6AXPEB_W00I_K@Z@__crt_state_management@@A 00000001800367e8     libucrt:invalid_parameter.obj
 0003:000017f0       ?c_termination_complete@@3JA 00000001800367f0     libucrt:exit.obj
 0003:000017f8       ?thread_local_exit_callback_func@@3P6AXPEAXK0@ZEA 00000001800367f8     libucrt:exit.obj
 0003:00001810       ?program_name@?1???$common_configure_argv@D@@YAHW4_crt_argv_mode@@@Z@4PADA 0000000180036810     libucrt:argv_parsing.obj
 0003:00001968       ?__acrt_new_handler@@3V?$dual_state_global@P6AH_K@Z@__crt_state_management@@A 0000000180036968     libucrt:new_handler.obj
 0003:00001980       ?module_handles@@3PAPEAUHINSTANCE__@@A 0000000180036980     libucrt:winapi_thunks.obj
 0003:00001a20       ?encoded_function_pointers@@3PAPEAXA 0000000180036a20     libucrt:winapi_thunks.obj
 0003:00001b10       ?internal_state@?1??_mbtowc_internal@@9@4U_Mbstatet@@A 0000000180036b10     libucrt:mbtowc.obj
 0003:00001b28       ?enable_percent_n@@3_KA    0000000180036b28     libucrt:printf_count_output.obj
 0003:00001f50       ?__acrt_lock_table@@3PAU_RTL_CRITICAL_SECTION@@A 0000000180036f50     libucrt:locks.obj
 0003:00002180       ?__acrt_locks_initialized@@3IA 0000000180037180     libucrt:locks.obj
 0003:000021a0       ?fSystemSet@@3HA           00000001800371a0     libucrt:mbctype.obj
 0003:000021a4       ?initialized@?1??__acrt_initialize_multibyte@@9@4_NA 00000001800371a4     libucrt:mbctype.obj
 0003:000021e0       ?ctrlc_action@@3V?$dual_state_global@P6AXH@Z@__crt_state_management@@A 00000001800371e0     libucrt:signal.obj
 0003:000021e8       ?ctrlbreak_action@@3V?$dual_state_global@P6AXH@Z@__crt_state_management@@A 00000001800371e8     libucrt:signal.obj
 0003:000021f0       ?abort_action@@3V?$dual_state_global@P6AXH@Z@__crt_state_management@@A 00000001800371f0     libucrt:signal.obj
 0003:000021f8       ?term_action@@3V?$dual_state_global@P6AXH@Z@__crt_state_management@@A 00000001800371f8     libucrt:signal.obj
 0003:00002200       ?user_matherr@@3V?$dual_state_global@P6AHPEAU_exception@@@Z@__crt_state_management@@A 0000000180037200     libucrt:matherr.obj
 0003:00002210       ?__acrt_global_new_mode@@3V?$dual_state_global@J@__crt_state_management@@A 0000000180037210     libucrt:new_mode.obj
 0003:00002218       ?internal_pst@?1??__mbrtoc32_utf8@__crt_mbstring@@YA_KPEA_UPEBD_KPEAU_Mbstatet@@AEAV__crt_cached_ptd_host@@@Z@4U3@A 0000000180037218     libucrt:mbrtoc32.obj
 0003:00002220       ?__acrt_app_type@@3W4_crt_app_type@@A 0000000180037220     libucrt:report_runtime_error.obj
 0005:00000000       MoveSmall                  000000018003b000     libvcruntime:memcpy.obj
 0005:00000040       MoveSmallYmm               000000018003b040     libvcruntime:memcpy.obj
 0005:00000064       MoveSmallYmmNT             000000018003b064     libvcruntime:memcpy.obj
 0005:00000088       MoveSmallXmm               000000018003b088     libvcruntime:memcpy.obj
 0005:000000b0       MsetTab                    000000018003b0b0     libvcruntime:memset.obj
 0006:00000220       $R000000                   000000018003c220     VoiceRecognition.res
 0006:00000b80       $R000960                   000000018003cb80     VoiceRecognition.res
 0006:00000c68       $R000A48                   000000018003cc68     VoiceRecognition.res
 0006:00000ed0       $R000CB0                   000000018003ced0     VoiceRecognition.res
 0006:000013c0       $R0011A0                   000000018003d3c0     VoiceRecognition.res
 0006:00003e20       $R003C00                   000000018003fe20     VoiceRecognition.res
 0006:00003e60       $R003C40                   000000018003fe60     VoiceRecognition.res
