 OPOSBiometrics

 Timestamp is 5ed45711 (Mon Jun  1 10:17:05 2020)

 Preferred load address is 0000000180000000

 Start         Length     Name                   Class
 0001:00000000 000000c0H .text$di                CODE
 0001:000000c0 00021b20H .text$mn                CODE
 0001:00021be0 00000040H .text$mn$00             CODE
 0001:00021c20 000004b0H .text$x                 CODE
 0001:000220d0 00000078H .text$yd                CODE
 0002:00000000 00000620H .idata$5                DATA
 0002:00000620 00000028H .00cfg                  DATA
 0002:00000648 00000008H .CRT$XCA                DATA
 0002:00000650 00000008H .CRT$XCL                DATA
 0002:00000658 00000020H .CRT$XCU                DATA
 0002:00000678 00000008H .CRT$XCZ                DATA
 0002:00000680 00000008H .CRT$XIA                DATA
 0002:00000688 00000020H .CRT$XIC                DATA
 0002:000006a8 00000008H .CRT$XIZ                DATA
 0002:000006b0 00000008H .CRT$XLA                DATA
 0002:000006b8 00000008H .CRT$XLZ                DATA
 0002:000006c0 00000008H .CRT$XPA                DATA
 0002:000006c8 00000010H .CRT$XPX                DATA
 0002:000006d8 00000008H .CRT$XPXA               DATA
 0002:000006e0 00000008H .CRT$XPZ                DATA
 0002:000006e8 00000008H .CRT$XTA                DATA
 0002:000006f0 00000010H .CRT$XTZ                DATA
 0002:000006f8 00000000H .gfids$y                DATA
 0002:00000700 0000a940H .rdata                  DATA
 0002:0000b040 00000028H .rdata$T                DATA
 0002:0000b068 00000274H .rdata$r                DATA
 0002:0000b2dc 0000040cH .rdata$zzzdbg           DATA
 0002:0000b6e8 00000008H .rtc$IAA                DATA
 0002:0000b6f0 00000008H .rtc$IZZ                DATA
 0002:0000b6f8 00000008H .rtc$TAA                DATA
 0002:0000b700 00000008H .rtc$TZZ                DATA
 0002:0000b708 00000004H .tls                    DATA
 0002:0000b70c 00000004H .tls$                   DATA
 0002:0000b710 00000008H .tls$ZZZ                DATA
 0002:0000b718 00001710H .xdata                  DATA
 0002:0000ce28 00000150H .xdata$x                DATA
 0002:0000cf78 00000008H ATL$__a                 DATA
 0002:0000cf80 00000010H ATL$__z                 DATA
 0002:0000cf90 000000acH .edata                  DATA
 0002:0000d03c 00000078H .idata$2                DATA
 0002:0000d0b4 00000014H .idata$3                DATA
 0002:0000d0c8 00000620H .idata$4                DATA
 0002:0000d6e8 00000c2aH .idata$6                DATA
 0003:00000000 00000db8H .data                   DATA
 0003:00000db8 000000c8H .data$r                 DATA
 0003:00000e80 0000140cH .bss                    DATA
 0004:00000000 00001ef0H .pdata                  DATA
 0005:00000000 00000094H _RDATA                  DATA
 0006:00000000 00000220H .rsrc$01                DATA
 0006:00000220 000048a0H .rsrc$02                DATA

  Address         Publics by Value              Rva+Base               Lib:Object

 0000:00000000       __guard_fids_count         0000000000000000     <absolute>
 0000:00000000       __x64_code_ranges_to_entry_points 0000000000000000     <absolute>
 0000:00000000       __guard_longjmp_count      0000000000000000     <absolute>
 0000:00000000       __guard_longjmp_table      0000000000000000     <absolute>
 0000:00000000       __hybrid_code_map          0000000000000000     <absolute>
 0000:00000000       __arm64x_redirection_metadata 0000000000000000     <absolute>
 0000:00000000       __guard_iat_count          0000000000000000     <absolute>
 0000:00000000       __guard_eh_cont_count      0000000000000000     <absolute>
 0000:00000000       __guard_iat_table          0000000000000000     <absolute>
 0000:00000000       __arm64x_native_entrypoint 0000000000000000     <absolute>
 0000:00000000       __volatile_metadata        0000000000000000     <absolute>
 0000:00000000       __hybrid_code_map_count    0000000000000000     <absolute>
 0000:00000000       __guard_eh_cont_table      0000000000000000     <absolute>
 0000:00000000       __enclave_config           0000000000000000     <absolute>
 0000:00000000       ___safe_se_handler_count   0000000000000000     <absolute>
 0000:00000000       __AbsoluteZero             0000000000000000     <absolute>
 0000:00000000       ___safe_se_handler_table   0000000000000000     <absolute>
 0000:00000000       __dynamic_value_reloc_table 0000000000000000     <absolute>
 0000:00000000       __guard_fids_table         0000000000000000     <absolute>
 0000:00000000       __hybrid_auxiliary_iat     0000000000000000     <absolute>
 0000:00000100       __guard_flags              0000000000000100     <absolute>
 0000:00000000       __ImageBase                0000000180000000     <linker-defined>
 0001:000000c0       ?DupWide@_CW@@AEAAXXZ      00000001800010c0 f   CWString.obj
 0001:000000e8       ?cw_dup@@YAXPEBDAEAHAEAPEA_W1@Z 00000001800010e8 f   CWString.obj
 0001:000001c8       ?cw_memcpy@@YAHPEA_WPEBDH@Z 00000001800011c8 f   CWString.obj
 0001:00000214       ?cw_strcpy@@YAHPEA_WPEBD@Z 0000000180001214 f   CWString.obj
 0001:00000228       ??0CAtlComModule@ATL@@QEAA@XZ 0000000180001228 f i OposVariant.obj
 0001:000002a8       ??0CAtlWinModule@ATL@@QEAA@XZ 00000001800012a8 f i OposVariant.obj
 0001:00000314       ??0OposDispParms@@QEAA@PEAVOposVariant@@H@Z 0000000180001314 f   OposVariant.obj
 0001:000003bc       ??1OposDispParms@@QEAA@XZ  00000001800013bc f   OposVariant.obj
 0001:000003d4       ??_Estringdispid@CComTypeInfoHolder@ATL@@QEAAPEAXI@Z 00000001800013d4 f i OposVariant.obj
 0001:00000478       ?AtlWinModuleTerm@ATL@@YAJPEAU_ATL_WIN_MODULE70@1@PEAUHINSTANCE__@@@Z 0000000180001478 f i OposVariant.obj
 0001:00000528       ?ChangeBSTR@OposVariant@@QEAAXPEAPEA_WAEAJ@Z 0000000180001528 f   OposVariant.obj
 0001:00000588       ?ChangeLONG@OposVariant@@QEAAXPEAJAEAJ@Z 0000000180001588 f   OposVariant.obj
 0001:000005e4       ?GetLONG@OposVariant@@QEAAJXZ 00000001800015e4 f   OposVariant.obj
 0001:00000608       ?SetBSTR@OposVariant@@QEAAXPEA_WAEAJ@Z 0000000180001608 f   OposVariant.obj
 0001:00000648       ?SetBSTR_Copy@OposVariant@@QEAAXPEA_WAEAJ@Z 0000000180001648 f   OposVariant.obj
 0001:000006b8       ?SetBSTR_InOutPtr@OposVariant@@QEAA_NPEAPEA_WAEAJ@Z 00000001800016b8 f   OposVariant.obj
 0001:00000708       ?SetDispatch_Ptr@OposVariant@@QEAAXPEAUIDispatch@@AEAJ@Z 0000000180001708 f   OposVariant.obj
 0001:00000760       ?SetLONG@OposVariant@@QEAAXJ@Z 0000000180001760 f   OposVariant.obj
 0001:00000790       ?SetLONG_Ptr@OposVariant@@QEAAXPEAJAEAJ@Z 0000000180001790 f   OposVariant.obj
 0001:000007dc       ?SetString@OposVariant@@QEAAXPEB_WAEAJ@Z 00000001800017dc f   OposVariant.obj
 0001:00000840       ?SetVARIANT@OposVariant@@QEAAXAEAUtagVARIANT@@GAEAJ@Z 0000000180001840 f   OposVariant.obj
 0001:000008b0       ?SetVARIANT_BOOL@OposVariant@@QEAAXF@Z 00000001800018b0 f   OposVariant.obj
 0001:000008e8       ?SetVARIANT_BOOL_Ptr@OposVariant@@QEAAXPEAFAEAJ@Z 00000001800018e8 f   OposVariant.obj
 0001:00000934       ?SetVARIANT_Ptr@OposVariant@@QEAAXAEAPEAUtagVARIANT@@GAEAJ@Z 0000000180001934 f   OposVariant.obj
 0001:000009b4       ?Term@CAtlComModule@ATL@@QEAAXXZ 00000001800019b4 f i OposVariant.obj
 0001:00000a24       ?_AtlInitializeCriticalSectionEx@ATL@@YAHPEAU_RTL_CRITICAL_SECTION@@KK@Z 0000000180001a24 f i OposVariant.obj
 0001:00000a2c       ?_AtlRaiseException@ATL@@YAXKK@Z 0000000180001a2c f i OposVariant.obj
 0001:00000a3c       ?GetWindowProc@?$CWindowImplBaseT@VCWindow@ATL@@V?$CWinTraits@$0FGAAAAAA@$0A@@2@@ATL@@UEAAP6A_JPEAUHWND__@@I_K_J@ZXZ 0000000180001a3c f i Biometrics.obj
 0001:00000a44       ?StartWindowProc@?$CWindowImplBaseT@VCWindow@ATL@@V?$CWinTraits@$0FGAAAAAA@$0A@@2@@ATL@@SA_JPEAUHWND__@@I_K_J@Z 0000000180001a44 f i Biometrics.obj
 0001:00000b08       _guard_check_icall_nop     0000000180001b08 f i LIBCMT:guard_support.obj
 0001:00000b08       ?ObjectMain@CComObjectRootBase@ATL@@SAX_N@Z 0000000180001b08 f i Biometrics.obj
 0001:00000b08       ?OnFinalMessage@?$CWindowImplBaseT@VCWindow@ATL@@V?$CWinTraits@$0FGAAAAAA@$0A@@2@@ATL@@UEAAXPEAUHWND__@@@Z 0000000180001b08 f i Biometrics.obj
 0001:00000b0c       ?GetTypeInfoCount@?$IDispatchImpl@UIOPOSBiometrics@@$1?IID_IOPOSBiometrics@@3U_GUID@@B$1?LIBID_OposBiometrics_CCO@@3U3@B$00$0A@VCComTypeInfoHolder@ATL@@@ATL@@UEAAJPEAI@Z 0000000180001b0c f i Biometrics.obj
 0001:00000b20       ?GetTypeInfo@?$IDispatchImpl@UIOPOSBiometrics@@$1?IID_IOPOSBiometrics@@3U_GUID@@B$1?LIBID_OposBiometrics_CCO@@3U3@B$00$0A@VCComTypeInfoHolder@ATL@@@ATL@@UEAAJIKPEAPEAUITypeInfo@@@Z 0000000180001b20 f i Biometrics.obj
 0001:00000b84       ?GetIDsOfNames@?$IDispatchImpl@UIOPOSBiometrics@@$1?IID_IOPOSBiometrics@@3U_GUID@@B$1?LIBID_OposBiometrics_CCO@@3U3@B$00$0A@VCComTypeInfoHolder@ATL@@@ATL@@UEAAJAEBU_GUID@@PEAPEA_WIKPEAJ@Z 0000000180001b84 f i Biometrics.obj
 0001:00000b90       ?Invoke@?$IDispatchImpl@UIOPOSBiometrics@@$1?IID_IOPOSBiometrics@@3U_GUID@@B$1?LIBID_OposBiometrics_CCO@@3U3@B$00$0A@VCComTypeInfoHolder@ATL@@@ATL@@UEAAJJAEBU_GUID@@KGPEAUtagDISPPARAMS@@PEAUtagVARIANT@@PEAUtagEXCEPINFO@@PEAI@Z 0000000180001b90 f i Biometrics.obj
 0001:00000c20       ?CreateControlWindow@?$CComControl@VCOPOSBiometrics@@V?$CWindowImpl@VCOPOSBiometrics@@VCWindow@ATL@@V?$CWinTraits@$0FGAAAAAA@$0A@@3@@ATL@@@ATL@@UEAAPEAUHWND__@@PEAU3@AEAUtagRECT@@@Z 0000000180001c20 f i Biometrics.obj
 0001:00000c58       ?ControlQueryInterface@?$CComControl@VCOPOSBiometrics@@V?$CWindowImpl@VCOPOSBiometrics@@VCWindow@ATL@@V?$CWinTraits@$0FGAAAAAA@$0A@@3@@ATL@@@ATL@@UEAAJAEBU_GUID@@PEAPEAX@Z 0000000180001c58 f i Biometrics.obj
 0001:00000c6c       ?GetClassID@?$IPersistStorageImpl@VCOPOSBiometrics@@@ATL@@UEAAJPEAU_GUID@@@Z 0000000180001c6c f i Biometrics.obj
 0001:00000c6c       ?GetClassID@?$IPersistStreamInitImpl@VCOPOSBiometrics@@@ATL@@UEAAJPEAU_GUID@@@Z 0000000180001c6c f i Biometrics.obj
 0001:00000c6c       ?GetUserClassID@?$IOleObjectImpl@VCOPOSBiometrics@@@ATL@@UEAAJPEAU_GUID@@@Z 0000000180001c6c f i Biometrics.obj
 0001:00000c88       ?IsDirty@?$IPersistStreamInitImpl@VCOPOSBiometrics@@@ATL@@UEAAJXZ 0000000180001c88 f i Biometrics.obj
 0001:00000ca4       ?Load@?$IPersistStreamInitImpl@VCOPOSBiometrics@@@ATL@@UEAAJPEAUIStream@@@Z 0000000180001ca4 f i Biometrics.obj
 0001:00000cbc       ?Save@?$IPersistStreamInitImpl@VCOPOSBiometrics@@@ATL@@UEAAJPEAUIStream@@H@Z 0000000180001cbc f i Biometrics.obj
 0001:00000cd4       ?GetSizeMax@?$IPersistStreamInitImpl@VCOPOSBiometrics@@@ATL@@UEAAJPEAT_ULARGE_INTEGER@@@Z 0000000180001cd4 f i Biometrics.obj
 0001:00000f00       ?InitNew@?$IPersistStreamInitImpl@VCOPOSBiometrics@@@ATL@@UEAAJXZ 0000000180001f00 f i Biometrics.obj
 0001:00000f18       ?InitFromData@?$IOleObjectImpl@VCOPOSBiometrics@@@ATL@@UEAAJPEAUIDataObject@@HK@Z 0000000180001f18 f i Biometrics.obj
 0001:00000f18       ?Freeze@?$IViewObjectExImpl@VCOPOSBiometrics@@@ATL@@UEAAJKJPEAXPEAK@Z 0000000180001f18 f i Biometrics.obj
 0001:00000f18       ?GetDataHere@?$IDataObjectImpl@VCOPOSBiometrics@@@ATL@@UEAAJPEAUtagFORMATETC@@PEAUtagSTGMEDIUM@@@Z 0000000180001f18 f i Biometrics.obj
 0001:00000f18       ?GetControlInfo@?$IOleControlImpl@VCOPOSBiometrics@@@ATL@@UEAAJPEAUtagCONTROLINFO@@@Z 0000000180001f18 f i Biometrics.obj
 0001:00000f18       ?SetColorScheme@?$IOleObjectImpl@VCOPOSBiometrics@@@ATL@@UEAAJPEAUtagLOGPALETTE@@@Z 0000000180001f18 f i Biometrics.obj
 0001:00000f18       ?ReactivateAndUndo@?$IOleInPlaceObjectWindowlessImpl@VCOPOSBiometrics@@@ATL@@UEAAJXZ 0000000180001f18 f i Biometrics.obj
 0001:00000f18       ?QueryGetData@?$IDataObjectImpl@VCOPOSBiometrics@@@ATL@@UEAAJPEAUtagFORMATETC@@@Z 0000000180001f18 f i Biometrics.obj
 0001:00000f18       ?SetData@?$IDataObjectImpl@VCOPOSBiometrics@@@ATL@@UEAAJPEAUtagFORMATETC@@PEAUtagSTGMEDIUM@@H@Z 0000000180001f18 f i Biometrics.obj
 0001:00000f18       ?ContextSensitiveHelp@?$IOleInPlaceActiveObjectImpl@VCOPOSBiometrics@@@ATL@@UEAAJH@Z 0000000180001f18 f i Biometrics.obj
 0001:00000f18       ?GetCanonicalFormatEtc@?$IDataObjectImpl@VCOPOSBiometrics@@@ATL@@UEAAJPEAUtagFORMATETC@@0@Z 0000000180001f18 f i Biometrics.obj
 0001:00000f18       ?SOOutputCompleteDummy@COPOSBiometrics@@MEAAJJ@Z 0000000180001f18 f i Biometrics.obj
 0001:00000f18       ?GetMoniker@?$IOleObjectImpl@VCOPOSBiometrics@@@ATL@@UEAAJKKPEAPEAUIMoniker@@@Z 0000000180001f18 f i Biometrics.obj
 0001:00000f18       ?OnMnemonic@?$IOleControlImpl@VCOPOSBiometrics@@@ATL@@UEAAJPEAUtagMSG@@@Z 0000000180001f18 f i Biometrics.obj
 0001:00000f18       ?QueryInterface@CRegObject@ATL@@UEAAJAEBU_GUID@@PEAPEAX@Z 0000000180001f18 f i Biometrics.obj
 0001:00000f18       ?EnumFormatEtc@?$IDataObjectImpl@VCOPOSBiometrics@@@ATL@@UEAAJKPEAPEAUIEnumFORMATETC@@@Z 0000000180001f18 f i Biometrics.obj
 0001:00000f18       ?GetColorSet@?$IViewObjectExImpl@VCOPOSBiometrics@@@ATL@@UEAAJKJPEAXPEAUtagDVTARGETDEVICE@@PEAUHDC__@@PEAPEAUtagLOGPALETTE@@@Z 0000000180001f18 f i Biometrics.obj
 0001:00000f18       ?SetMoniker@?$IOleObjectImpl@VCOPOSBiometrics@@@ATL@@UEAAJKPEAUIMoniker@@@Z 0000000180001f18 f i Biometrics.obj
 0001:00000f18       ?ContextSensitiveHelp@?$IOleInPlaceObjectWindowlessImpl@VCOPOSBiometrics@@@ATL@@UEAAJH@Z 0000000180001f18 f i Biometrics.obj
 0001:00000f18       ?Unfreeze@?$IViewObjectExImpl@VCOPOSBiometrics@@@ATL@@UEAAJK@Z 0000000180001f18 f i Biometrics.obj
 0001:00000f18       ?GetClipboardData@?$IOleObjectImpl@VCOPOSBiometrics@@@ATL@@UEAAJKPEAPEAUIDataObject@@@Z 0000000180001f18 f i Biometrics.obj
 0001:00000f18       ?GetDropTarget@?$IOleInPlaceObjectWindowlessImpl@VCOPOSBiometrics@@@ATL@@UEAAJPEAPEAUIDropTarget@@@Z 0000000180001f18 f i Biometrics.obj
 0001:00000f18       ?GetRect@?$IViewObjectExImpl@VCOPOSBiometrics@@@ATL@@UEAAJKPEAU_RECTL@@@Z 0000000180001f18 f i Biometrics.obj
 0001:00000f20       ?ResizeBorder@?$IOleInPlaceActiveObjectImpl@VCOPOSBiometrics@@@ATL@@UEAAJPEBUtagRECT@@PEAUIOleInPlaceUIWindow@@H@Z 0000000180001f20 f i Biometrics.obj
 0001:00000f20       ?GetObjectDescription@?$CComCoClass@VCOPOSBiometrics@@$1?CLSID_OPOSBiometrics@@3U_GUID@@B@ATL@@SAPEB_WXZ 0000000180001f20 f i Biometrics.obj
 0001:00000f20       ?IsUpToDate@?$IOleObjectImpl@VCOPOSBiometrics@@@ATL@@UEAAJXZ 0000000180001f20 f i Biometrics.obj
 0001:00000f20       ?Release@CRegObject@ATL@@UEAAKXZ 0000000180001f20 f i Biometrics.obj
 0001:00000f20       ?OnFrameWindowActivate@?$IOleInPlaceActiveObjectImpl@VCOPOSBiometrics@@@ATL@@UEAAJH@Z 0000000180001f20 f i Biometrics.obj
 0001:00000f20       ?SaveCompleted@?$IPersistStorageImpl@VCOPOSBiometrics@@@ATL@@UEAAJPEAUIStorage@@@Z 0000000180001f20 f i Biometrics.obj
 0001:00000f20       ?HandsOffStorage@?$IPersistStorageImpl@VCOPOSBiometrics@@@ATL@@UEAAJXZ 0000000180001f20 f i Biometrics.obj
 0001:00000f20       ?EnableModeless@?$IOleInPlaceActiveObjectImpl@VCOPOSBiometrics@@@ATL@@UEAAJH@Z 0000000180001f20 f i Biometrics.obj
 0001:00000f20       ?GetCategoryMap@CComObjectRootBase@ATL@@SAPEBU_ATL_CATMAP_ENTRY@2@XZ 0000000180001f20 f i Biometrics.obj
 0001:00000f20       ?SetHostNames@?$IOleObjectImpl@VCOPOSBiometrics@@@ATL@@UEAAJPEB_W0@Z 0000000180001f20 f i Biometrics.obj
 0001:00000f20       ?Update@?$IOleObjectImpl@VCOPOSBiometrics@@@ATL@@UEAAJXZ 0000000180001f20 f i Biometrics.obj
 0001:00000f20       ?OnAmbientPropertyChange@?$IOleControlImpl@VCOPOSBiometrics@@@ATL@@UEAAJJ@Z 0000000180001f20 f i Biometrics.obj
 0001:00000f24       ?SetClientSite@?$IOleObjectImpl@VCOPOSBiometrics@@@ATL@@UEAAJPEAUIOleClientSite@@@Z 0000000180001f24 f i Biometrics.obj
 0001:00000f40       ?GetClientSite@?$IOleObjectImpl@VCOPOSBiometrics@@@ATL@@UEAAJPEAPEAUIOleClientSite@@@Z 0000000180001f40 f i Biometrics.obj
 0001:00000f88       ?Close@?$IOleObjectImpl@VCOPOSBiometrics@@@ATL@@UEAAJK@Z 0000000180001f88 f i Biometrics.obj
 0001:00000fa4       ?DoVerb@?$IOleObjectImpl@VCOPOSBiometrics@@@ATL@@UEAAJJPEAUtagMSG@@PEAUIOleClientSite@@JPEAUHWND__@@PEBUtagRECT@@@Z 0000000180001fa4 f i Biometrics.obj
 0001:00001148       ?EnumVerbs@?$IOleObjectImpl@VCOPOSBiometrics@@@ATL@@UEAAJPEAPEAUIEnumOLEVERB@@@Z 0000000180002148 f i Biometrics.obj
 0001:00001164       ?GetUserType@?$IOleObjectImpl@VCOPOSBiometrics@@@ATL@@UEAAJKPEAPEA_W@Z 0000000180002164 f i Biometrics.obj
 0001:00001174       ?SetExtent@?$IOleObjectImpl@VCOPOSBiometrics@@@ATL@@UEAAJKPEAUtagSIZE@@@Z 0000000180002174 f i Biometrics.obj
 0001:00001190       ?GetExtent@?$IOleObjectImpl@VCOPOSBiometrics@@@ATL@@UEAAJKPEAUtagSIZE@@@Z 0000000180002190 f i Biometrics.obj
 0001:000011c0       ?Advise@?$IOleObjectImpl@VCOPOSBiometrics@@@ATL@@UEAAJPEAUIAdviseSink@@PEAK@Z 00000001800021c0 f i Biometrics.obj
 0001:0000121c       ?Unadvise@?$IOleObjectImpl@VCOPOSBiometrics@@@ATL@@UEAAJK@Z 000000018000221c f i Biometrics.obj
 0001:00001254       ?EnumAdvise@?$IOleObjectImpl@VCOPOSBiometrics@@@ATL@@UEAAJPEAPEAUIEnumSTATDATA@@@Z 0000000180002254 f i Biometrics.obj
 0001:0000129c       ?GetMiscStatus@?$IOleObjectImpl@VCOPOSBiometrics@@@ATL@@UEAAJKPEAK@Z 000000018000229c f i Biometrics.obj
 0001:000012ac       ?GetWindow@?$IOleInPlaceActiveObjectImpl@VCOPOSBiometrics@@@ATL@@UEAAJPEAPEAUHWND__@@@Z 00000001800022ac f i Biometrics.obj
 0001:00001300       ?TranslateAcceleratorW@?$IOleInPlaceActiveObjectImpl@VCOPOSBiometrics@@@ATL@@UEAAJPEAUtagMSG@@@Z 0000000180002300 f i Biometrics.obj
 0001:000013f4       ?OnDocWindowActivate@?$IOleInPlaceActiveObjectImpl@VCOPOSBiometrics@@@ATL@@UEAAJH@Z 00000001800023f4 f i Biometrics.obj
 0001:00001420       ?Draw@?$IViewObjectExImpl@VCOPOSBiometrics@@@ATL@@UEAAJKJPEAXPEAUtagDVTARGETDEVICE@@PEAUHDC__@@2PEBU_RECTL@@3P6AH_K@Z4@Z 0000000180002420 f i Biometrics.obj
 0001:00001484       ?SetAdvise@?$IViewObjectExImpl@VCOPOSBiometrics@@@ATL@@UEAAJKKPEAUIAdviseSink@@@Z 0000000180002484 f i Biometrics.obj
 0001:000014d8       ?GetAdvise@?$IViewObjectExImpl@VCOPOSBiometrics@@@ATL@@UEAAJPEAK0PEAPEAUIAdviseSink@@@Z 00000001800024d8 f i Biometrics.obj
 0001:00001514       ?GetExtent@?$IViewObjectExImpl@VCOPOSBiometrics@@@ATL@@UEAAJKJPEAUtagDVTARGETDEVICE@@PEAUtagSIZE@@@Z 0000000180002514 f i Biometrics.obj
 0001:00001544       ?GetViewStatus@?$IViewObjectExImpl@VCOPOSBiometrics@@@ATL@@UEAAJPEAK@Z 0000000180002544 f i Biometrics.obj
 0001:00001558       ?QueryHitPoint@?$IViewObjectExImpl@VCOPOSBiometrics@@@ATL@@UEAAJKPEBUtagRECT@@UtagPOINT@@JPEAK@Z 0000000180002558 f i Biometrics.obj
 0001:0000159c       ?QueryHitRect@?$IViewObjectExImpl@VCOPOSBiometrics@@@ATL@@UEAAJKPEBUtagRECT@@0JPEAK@Z 000000018000259c f i Biometrics.obj
 0001:00001604       ?GetNaturalExtent@?$IViewObjectExImpl@VCOPOSBiometrics@@@ATL@@UEAAJKJPEAUtagDVTARGETDEVICE@@PEAUHDC__@@PEAUtagExtentInfo@@PEAUtagSIZE@@@Z 0000000180002604 f i Biometrics.obj
 0001:0000164c       ?GetWindow@?$IOleInPlaceObjectWindowlessImpl@VCOPOSBiometrics@@@ATL@@UEAAJPEAPEAUHWND__@@@Z 000000018000264c f i Biometrics.obj
 0001:000016a0       ?InPlaceDeactivate@?$IOleInPlaceObjectWindowlessImpl@VCOPOSBiometrics@@@ATL@@UEAAJXZ 00000001800026a0 f i Biometrics.obj
 0001:000016bc       ?UIDeactivate@?$IOleInPlaceObjectWindowlessImpl@VCOPOSBiometrics@@@ATL@@UEAAJXZ 00000001800026bc f i Biometrics.obj
 0001:000016d8       ?SetObjectRects@?$IOleInPlaceObjectWindowlessImpl@VCOPOSBiometrics@@@ATL@@UEAAJPEBUtagRECT@@0@Z 00000001800026d8 f i Biometrics.obj
 0001:000016f4       ?OnWindowMessage@?$IOleInPlaceObjectWindowlessImpl@VCOPOSBiometrics@@@ATL@@UEAAJI_K_JPEA_J@Z 00000001800026f4 f i Biometrics.obj
 0001:000017bc       ?EnumConnectionPoints@?$IConnectionPointContainerImpl@VCOPOSBiometrics@@@ATL@@UEAAJPEAPEAUIEnumConnectionPoints@@@Z 00000001800027bc f i Biometrics.obj
 0001:00001a08       ?FindConnectionPoint@?$IConnectionPointContainerImpl@VCOPOSBiometrics@@@ATL@@UEAAJAEBU_GUID@@PEAPEAUIConnectionPoint@@@Z 0000000180002a08 f i Biometrics.obj
 0001:00001ad8       ?IsDirty@?$IPersistStorageImpl@VCOPOSBiometrics@@@ATL@@UEAAJXZ 0000000180002ad8 f i Biometrics.obj
 0001:00001b18       ?InitNew@?$IPersistStorageImpl@VCOPOSBiometrics@@@ATL@@UEAAJPEAUIStorage@@@Z 0000000180002b18 f i Biometrics.obj
 0001:00001b58       ?Load@?$IPersistStorageImpl@VCOPOSBiometrics@@@ATL@@UEAAJPEAUIStorage@@@Z 0000000180002b58 f i Biometrics.obj
 0001:00001bf8       ?Save@?$IPersistStorageImpl@VCOPOSBiometrics@@@ATL@@UEAAJPEAUIStorage@@H@Z 0000000180002bf8 f i Biometrics.obj
 0001:00001ca8       ?GetPages@?$ISpecifyPropertyPagesImpl@VCOPOSBiometrics@@@ATL@@UEAAJPEAUtagCAUUID@@@Z 0000000180002ca8 f i Biometrics.obj
 0001:00001cb4       ?QuickActivate@?$IQuickActivateImpl@VCOPOSBiometrics@@@ATL@@UEAAJPEAUtagQACONTAINER@@PEAUtagQACONTROL@@@Z 0000000180002cb4 f i Biometrics.obj
 0001:00001cd0       ?SetContentExtent@?$IQuickActivateImpl@VCOPOSBiometrics@@@ATL@@UEAAJPEAUtagSIZE@@@Z 0000000180002cd0 f i Biometrics.obj
 0001:00001d04       ?GetContentExtent@?$IQuickActivateImpl@VCOPOSBiometrics@@@ATL@@UEAAJPEAUtagSIZE@@@Z 0000000180002d04 f i Biometrics.obj
 0001:00001d3c       ?GetData@?$IDataObjectImpl@VCOPOSBiometrics@@@ATL@@UEAAJPEAUtagFORMATETC@@PEAUtagSTGMEDIUM@@@Z 0000000180002d3c f i Biometrics.obj
 0001:00001d58       ?DAdvise@?$IDataObjectImpl@VCOPOSBiometrics@@@ATL@@UEAAJPEAUtagFORMATETC@@KPEAUIAdviseSink@@PEAK@Z 0000000180002d58 f i Biometrics.obj
 0001:00001de0       ?DUnadvise@?$IDataObjectImpl@VCOPOSBiometrics@@@ATL@@UEAAJK@Z 0000000180002de0 f i Biometrics.obj
 0001:00001e0c       ?EnumDAdvise@?$IDataObjectImpl@VCOPOSBiometrics@@@ATL@@UEAAJPEAPEAUIEnumSTATDATA@@@Z 0000000180002e0c f i Biometrics.obj
 0001:00001e48       ?GetClassInfoW@?$IProvideClassInfo2Impl@$1?CLSID_OPOSBiometrics@@3U_GUID@@B$1?DIID__IOPOSBiometricsEvents@@3U2@B$1?LIBID_OposBiometrics_CCO@@3U2@B$00$0A@VCComTypeInfoHolder@ATL@@@ATL@@UEAAJPEAPEAUITypeInfo@@@Z 0000000180002e48 f i Biometrics.obj
 0001:00001ea0       ?GetGUID@?$IProvideClassInfo2Impl@$1?CLSID_OPOSBiometrics@@3U_GUID@@B$1?DIID__IOPOSBiometricsEvents@@3U2@B$1?LIBID_OposBiometrics_CCO@@3U2@B$00$0A@VCComTypeInfoHolder@ATL@@@ATL@@UEAAJKPEAU_GUID@@@Z 0000000180002ea0 f i Biometrics.obj
 0001:00001ed4       ?AddRef@CRegObject@ATL@@UEAAKXZ 0000000180002ed4 f i Biometrics.obj
 0001:00001ed4       _get_startup_argv_mode     0000000180002ed4 f i LIBCMT:argv_mode.obj
 0001:00001ed4       ?FAccessAllowed@?$IObjectSafetyImpl@VCOPOSBiometrics@@$02@ATL@@MEAAHXZ 0000000180002ed4 f i Biometrics.obj
 0001:00001edc       ?GetInterfaceSafetyOptions@?$IObjectSafetyImpl@VCOPOSBiometrics@@$02@ATL@@UEAAJAEBU_GUID@@PEAK1@Z 0000000180002edc f i Biometrics.obj
 0001:00001f70       ?SetInterfaceSafetyOptions@?$IObjectSafetyImpl@VCOPOSBiometrics@@$02@ATL@@UEAAJAEBU_GUID@@KK@Z 0000000180002f70 f i Biometrics.obj
 0001:00002014       ?_LocCPQueryInterface@?$IConnectionPointImpl@VCOPOSBiometrics@@$1?IID_IPropertyNotifySink@@3U_GUID@@BVCComDynamicUnkArray@ATL@@@ATL@@UEAAJAEBU_GUID@@PEAPEAX@Z 0000000180003014 f i Biometrics.obj
 0001:00002014       ?_LocCPQueryInterface@?$IConnectionPointImpl@VCOPOSBiometrics@@$1?DIID__IOPOSBiometricsEvents@@3U_GUID@@BVCComDynamicUnkArray@ATL@@@ATL@@UEAAJAEBU_GUID@@PEAPEAX@Z 0000000180003014 f i Biometrics.obj
 0001:00002084       ?GetConnectionInterface@?$IConnectionPointImpl@VCOPOSBiometrics@@$1?IID_IPropertyNotifySink@@3U_GUID@@BVCComDynamicUnkArray@ATL@@@ATL@@UEAAJPEAU_GUID@@@Z 0000000180003084 f i Biometrics.obj
 0001:000020a0       ?GetConnectionPointContainer@?$IConnectionPointImpl@VCOPOSBiometrics@@$1?IID_IPropertyNotifySink@@3U_GUID@@BVCComDynamicUnkArray@ATL@@@ATL@@UEAAJPEAPEAUIConnectionPointContainer@@@Z 00000001800030a0 f i Biometrics.obj
 0001:000020c0       ?Advise@?$IConnectionPointImpl@VCOPOSBiometrics@@$1?IID_IPropertyNotifySink@@3U_GUID@@BVCComDynamicUnkArray@ATL@@@ATL@@UEAAJPEAUIUnknown@@PEAK@Z 00000001800030c0 f i Biometrics.obj
 0001:000020c0       ?Advise@?$IConnectionPointImpl@VCOPOSBiometrics@@$1?DIID__IOPOSBiometricsEvents@@3U_GUID@@BVCComDynamicUnkArray@ATL@@@ATL@@UEAAJPEAUIUnknown@@PEAK@Z 00000001800030c0 f i Biometrics.obj
 0001:0000217c       ?Unadvise@?$IConnectionPointImpl@VCOPOSBiometrics@@$1?IID_IPropertyNotifySink@@3U_GUID@@BVCComDynamicUnkArray@ATL@@@ATL@@UEAAJK@Z 000000018000317c f i Biometrics.obj
 0001:0000217c       ?Unadvise@?$IConnectionPointImpl@VCOPOSBiometrics@@$1?DIID__IOPOSBiometricsEvents@@3U_GUID@@BVCComDynamicUnkArray@ATL@@@ATL@@UEAAJK@Z 000000018000317c f i Biometrics.obj
 0001:000021e4       ?EnumConnections@?$IConnectionPointImpl@VCOPOSBiometrics@@$1?DIID__IOPOSBiometricsEvents@@3U_GUID@@BVCComDynamicUnkArray@ATL@@@ATL@@UEAAJPEAPEAUIEnumConnections@@@Z 00000001800031e4 f i Biometrics.obj
 0001:000021e4       ?EnumConnections@?$IConnectionPointImpl@VCOPOSBiometrics@@$1?IID_IPropertyNotifySink@@3U_GUID@@BVCComDynamicUnkArray@ATL@@@ATL@@UEAAJPEAPEAUIEnumConnections@@@Z 00000001800031e4 f i Biometrics.obj
 0001:00002390       ?GetConnectionInterface@?$IConnectionPointImpl@VCOPOSBiometrics@@$1?DIID__IOPOSBiometricsEvents@@3U_GUID@@BVCComDynamicUnkArray@ATL@@@ATL@@UEAAJPEAU_GUID@@@Z 0000000180003390 f i Biometrics.obj
 0001:000023ac       ?GetConnectionPointContainer@?$IConnectionPointImpl@VCOPOSBiometrics@@$1?DIID__IOPOSBiometricsEvents@@3U_GUID@@BVCComDynamicUnkArray@ATL@@@ATL@@UEAAJPEAPEAUIConnectionPointContainer@@@Z 00000001800033ac f i Biometrics.obj
 0001:000023cc       ?UpdateRegistry@COPOSBiometrics@@SAJH@Z 00000001800033cc f i Biometrics.obj
 0001:000023e4       ?ProcessWindowMessage@COPOSBiometrics@@UEAAHPEAUHWND__@@I_K_JAEA_JK@Z 00000001800033e4 f i Biometrics.obj
 0001:0000246c       ?SOData@COPOSBiometrics@@MEAAJJ@Z 000000018000346c f i Biometrics.obj
 0001:000024bc       ?SODirectIO@COPOSBiometrics@@MEAAJJPEAJPEAPEA_W@Z 00000001800034bc f i Biometrics.obj
 0001:00002534       ?SOError@COPOSBiometrics@@MEAAJJJJPEAJ@Z 0000000180003534 f i Biometrics.obj
 0001:000025bc       ?SOStatusUpdate@COPOSBiometrics@@MEAAJJ@Z 00000001800035bc f i Biometrics.obj
 0001:0000260c       ?Lock@CAtlModule@ATL@@UEAAJXZ 000000018000360c f i Biometrics.obj
 0001:0000261c       ?Unlock@CAtlModule@ATL@@UEAAJXZ 000000018000361c f i Biometrics.obj
 0001:00002628       ?GetLockCount@CAtlModule@ATL@@UEAAJXZ 0000000180003628 f i Biometrics.obj
 0001:0000262c       ?GetGITPtr@CAtlModule@ATL@@UEAAJPEAPEAUIGlobalInterfaceTable@@@Z 000000018000362c f i Biometrics.obj
 0001:0000269c       ?AddCommonRGSReplacements@?$CAtlModuleT@VCComModule@ATL@@@ATL@@UEAAJPEAUIRegistrarBase@@@Z 000000018000369c f i Biometrics.obj
 0001:000026b4       ?CreateInstance@?$CComCreator@V?$CComObjectCached@VCComClassFactory@ATL@@@ATL@@@ATL@@SAJPEAXAEBU_GUID@@PEAPEAX@Z 00000001800036b4 f i Biometrics.obj
 0001:000027d8       ?CreateInstance@?$CComCreator2@V?$CComCreator@V?$CComObject@VCOPOSBiometrics@@@ATL@@@ATL@@V?$CComCreator@V?$CComAggObject@VCOPOSBiometrics@@@ATL@@@2@@ATL@@SAJPEAXAEBU_GUID@@PEAPEAX@Z 00000001800037d8 f i Biometrics.obj
 0001:000027e8       ?UpdateRegistryFromResourceD@CComModule@ATL@@UEAAJPEB_WHPEAU_ATL_REGMAP_ENTRY@2@@Z 00000001800037e8 f i Biometrics.obj
 0001:000027e8       ?UpdateRegistryFromResourceD@CComModule@ATL@@UEAAJIHPEAU_ATL_REGMAP_ENTRY@2@@Z 00000001800037e8 f i Biometrics.obj
 0001:000027f0       ?UpdateRegistryFromResource@CComModule@ATL@@UEAAJPEB_WHPEAU_ATL_REGMAP_ENTRY@2@@Z 00000001800037f0 f i Biometrics.obj
 0001:000027f8       ?UpdateRegistryFromResource@CComModule@ATL@@UEAAJIHPEAU_ATL_REGMAP_ENTRY@2@@Z 00000001800037f8 f i Biometrics.obj
 0001:00002800       ?AddRef@?$CComObjectCached@VCComClassFactory@ATL@@@ATL@@UEAAKXZ 0000000180003800 f i Biometrics.obj
 0001:0000282c       ?Release@?$CComObjectCached@VCComClassFactory@ATL@@@ATL@@UEAAKXZ 000000018000382c f i Biometrics.obj
 0001:0000286c       ?QueryInterface@?$CComObjectCached@VCComClassFactory@ATL@@@ATL@@UEAAJAEBU_GUID@@PEAPEAX@Z 000000018000386c f i Biometrics.obj
 0001:00002880       ??_G?$CComObjectCached@VCComClassFactory@ATL@@@ATL@@UEAAPEAXI@Z 0000000180003880 f i Biometrics.obj
 0001:00002880       ??_E?$CComObjectCached@VCComClassFactory@ATL@@@ATL@@UEAAPEAXI@Z 0000000180003880 f i Biometrics.obj
 0001:000028d8       ??_ECComModule@ATL@@UEAAPEAXI@Z 00000001800038d8 f i Biometrics.obj
 0001:000028d8       ??_GCComModule@ATL@@UEAAPEAXI@Z 00000001800038d8 f i Biometrics.obj
 0001:00002918       ?Next@?$CComEnumImpl@UIEnumConnectionPoints@@$1?_GUID_b196b285_bab4_101a_b69c_00aa00341d07@@3U__s_GUID@@BPEAUIConnectionPoint@@V?$_CopyInterface@UIConnectionPoint@@@ATL@@@ATL@@UEAAJKPEAPEAUIConnectionPoint@@PEAK@Z 0000000180003918 f i Biometrics.obj
 0001:000029e4       ?Skip@?$CComEnumImpl@UIEnumConnectionPoints@@$1?_GUID_b196b285_bab4_101a_b69c_00aa00341d07@@3U__s_GUID@@BPEAUIConnectionPoint@@V?$_CopyInterface@UIConnectionPoint@@@ATL@@@ATL@@UEAAJK@Z 00000001800039e4 f i Biometrics.obj
 0001:00002a10       ?Reset@?$CComEnumImpl@UIEnumConnectionPoints@@$1?_GUID_b196b285_bab4_101a_b69c_00aa00341d07@@3U__s_GUID@@BPEAUIConnectionPoint@@V?$_CopyInterface@UIConnectionPoint@@@ATL@@@ATL@@UEAAJXZ 0000000180003a10 f i Biometrics.obj
 0001:00002a10       ?Reset@?$CComEnumImpl@UIEnumConnections@@$1?_GUID_b196b287_bab4_101a_b69c_00aa00341d07@@3U__s_GUID@@BUtagCONNECTDATA@@V?$_Copy@UtagCONNECTDATA@@@ATL@@@ATL@@UEAAJXZ 0000000180003a10 f i Biometrics.obj
 0001:00002a1c       ?Clone@?$CComEnumImpl@UIEnumConnectionPoints@@$1?_GUID_b196b285_bab4_101a_b69c_00aa00341d07@@3U__s_GUID@@BPEAUIConnectionPoint@@V?$_CopyInterface@UIConnectionPoint@@@ATL@@@ATL@@UEAAJPEAPEAUIEnumConnectionPoints@@@Z 0000000180003a1c f i Biometrics.obj
 0001:00002b48       ?AddRef@?$CComObject@V?$CComEnum@UIEnumConnectionPoints@@$1?_GUID_b196b285_bab4_101a_b69c_00aa00341d07@@3U__s_GUID@@BPEAUIConnectionPoint@@V?$_CopyInterface@UIConnectionPoint@@@ATL@@VCComSingleThreadModel@6@@ATL@@@ATL@@UEAAKXZ 0000000180003b48 f i Biometrics.obj
 0001:00002b48       ?AddRef@?$CComObject@V?$CComEnum@UIEnumConnections@@$1?_GUID_b196b287_bab4_101a_b69c_00aa00341d07@@3U__s_GUID@@BUtagCONNECTDATA@@V?$_Copy@UtagCONNECTDATA@@@ATL@@VCComSingleThreadModel@6@@ATL@@@ATL@@UEAAKXZ 0000000180003b48 f i Biometrics.obj
 0001:00002b54       ?Release@?$CComObject@V?$CComEnum@UIEnumConnections@@$1?_GUID_b196b287_bab4_101a_b69c_00aa00341d07@@3U__s_GUID@@BUtagCONNECTDATA@@V?$_Copy@UtagCONNECTDATA@@@ATL@@VCComSingleThreadModel@6@@ATL@@@ATL@@UEAAKXZ 0000000180003b54 f i Biometrics.obj
 0001:00002b54       ?Release@?$CComObject@V?$CComEnum@UIEnumConnectionPoints@@$1?_GUID_b196b285_bab4_101a_b69c_00aa00341d07@@3U__s_GUID@@BPEAUIConnectionPoint@@V?$_CopyInterface@UIConnectionPoint@@@ATL@@VCComSingleThreadModel@6@@ATL@@@ATL@@UEAAKXZ 0000000180003b54 f i Biometrics.obj
 0001:00002ba8       ?QueryInterface@?$CComObject@V?$CComEnum@UIEnumConnectionPoints@@$1?_GUID_b196b285_bab4_101a_b69c_00aa00341d07@@3U__s_GUID@@BPEAUIConnectionPoint@@V?$_CopyInterface@UIConnectionPoint@@@ATL@@VCComSingleThreadModel@6@@ATL@@@ATL@@UEAAJAEBU_GUID@@PEAPEAX@Z 0000000180003ba8 f i Biometrics.obj
 0001:00002bbc       ??_G?$CComObject@V?$CComEnum@UIEnumConnectionPoints@@$1?_GUID_b196b285_bab4_101a_b69c_00aa00341d07@@3U__s_GUID@@BPEAUIConnectionPoint@@V?$_CopyInterface@UIConnectionPoint@@@ATL@@VCComSingleThreadModel@6@@ATL@@@ATL@@UEAAPEAXI@Z 0000000180003bbc f i Biometrics.obj
 0001:00002bbc       ??_E?$CComObject@V?$CComEnum@UIEnumConnectionPoints@@$1?_GUID_b196b285_bab4_101a_b69c_00aa00341d07@@3U__s_GUID@@BPEAUIConnectionPoint@@V?$_CopyInterface@UIConnectionPoint@@@ATL@@VCComSingleThreadModel@6@@ATL@@@ATL@@UEAAPEAXI@Z 0000000180003bbc f i Biometrics.obj
 0001:00002c14       ?AddReplacement@CRegObject@ATL@@UEAAJPEB_W0@Z 0000000180003c14 f i Biometrics.obj
 0001:00002c44       ?ClearReplacements@CRegObject@ATL@@UEAAJXZ 0000000180003c44 f i Biometrics.obj
 0001:00002c50       ??_GCRegObject@ATL@@UEAAPEAXI@Z 0000000180003c50 f i Biometrics.obj
 0001:00002c50       ??_ECRegObject@ATL@@UEAAPEAXI@Z 0000000180003c50 f i Biometrics.obj
 0001:00002cd0       ?AddRef@?$CComAggObject@VCOPOSBiometrics@@@ATL@@UEAAKXZ 0000000180003cd0 f i Biometrics.obj
 0001:00002cdc       ?Release@?$CComAggObject@VCOPOSBiometrics@@@ATL@@UEAAKXZ 0000000180003cdc f i Biometrics.obj
 0001:00002d30       ?QueryInterface@?$CComAggObject@VCOPOSBiometrics@@@ATL@@UEAAJAEBU_GUID@@PEAPEAX@Z 0000000180003d30 f i Biometrics.obj
 0001:00002d90       ?AddRef@?$CComContainedObject@VCOPOSBiometrics@@@ATL@@UEAAKXZ 0000000180003d90 f i Biometrics.obj
 0001:00002da0       ?Release@?$CComContainedObject@VCOPOSBiometrics@@@ATL@@UEAAKXZ 0000000180003da0 f i Biometrics.obj
 0001:00002db0       ?QueryInterface@?$CComContainedObject@VCOPOSBiometrics@@@ATL@@UEAAJAEBU_GUID@@PEAPEAX@Z 0000000180003db0 f i Biometrics.obj
 0001:00002dc0       ??_G?$CComAggObject@VCOPOSBiometrics@@@ATL@@UEAAPEAXI@Z 0000000180003dc0 f i Biometrics.obj
 0001:00002dc0       ??_E?$CComAggObject@VCOPOSBiometrics@@@ATL@@UEAAPEAXI@Z 0000000180003dc0 f i Biometrics.obj
 0001:00002e18       ?AddRef@?$CComObject@VCOPOSBiometrics@@@ATL@@UEAAKXZ 0000000180003e18 f i Biometrics.obj
 0001:00002e28       ?Release@?$CComObject@VCOPOSBiometrics@@@ATL@@UEAAKXZ 0000000180003e28 f i Biometrics.obj
 0001:00002e80       ?QueryInterface@?$CComObject@VCOPOSBiometrics@@@ATL@@UEAAJAEBU_GUID@@PEAPEAX@Z 0000000180003e80 f i Biometrics.obj
 0001:00002e94       ?OnDrawAdvanced@CComControlBase@ATL@@UEAAJAEAUATL_DRAWINFO@@@Z 0000000180003e94 f i Biometrics.obj
 0001:00003020       ?Next@?$CComEnumImpl@UIEnumConnections@@$1?_GUID_b196b287_bab4_101a_b69c_00aa00341d07@@3U__s_GUID@@BUtagCONNECTDATA@@V?$_Copy@UtagCONNECTDATA@@@ATL@@@ATL@@UEAAJKPEAUtagCONNECTDATA@@PEAK@Z 0000000180004020 f i Biometrics.obj
 0001:000030f4       ?Skip@?$CComEnumImpl@UIEnumConnections@@$1?_GUID_b196b287_bab4_101a_b69c_00aa00341d07@@3U__s_GUID@@BUtagCONNECTDATA@@V?$_Copy@UtagCONNECTDATA@@@ATL@@@ATL@@UEAAJK@Z 00000001800040f4 f i Biometrics.obj
 0001:00003120       ?Clone@?$CComEnumImpl@UIEnumConnections@@$1?_GUID_b196b287_bab4_101a_b69c_00aa00341d07@@3U__s_GUID@@BUtagCONNECTDATA@@V?$_Copy@UtagCONNECTDATA@@@ATL@@@ATL@@UEAAJPEAPEAUIEnumConnections@@@Z 0000000180004120 f i Biometrics.obj
 0001:0000324c       ?QueryInterface@?$CComObject@V?$CComEnum@UIEnumConnections@@$1?_GUID_b196b287_bab4_101a_b69c_00aa00341d07@@3U__s_GUID@@BUtagCONNECTDATA@@V?$_Copy@UtagCONNECTDATA@@@ATL@@VCComSingleThreadModel@6@@ATL@@@ATL@@UEAAJAEBU_GUID@@PEAPEAX@Z 000000018000424c f i Biometrics.obj
 0001:00003260       ??_G?$CComObject@V?$CComEnum@UIEnumConnections@@$1?_GUID_b196b287_bab4_101a_b69c_00aa00341d07@@3U__s_GUID@@BUtagCONNECTDATA@@V?$_Copy@UtagCONNECTDATA@@@ATL@@VCComSingleThreadModel@6@@ATL@@@ATL@@UEAAPEAXI@Z 0000000180004260 f i Biometrics.obj
 0001:00003260       ??_E?$CComObject@V?$CComEnum@UIEnumConnections@@$1?_GUID_b196b287_bab4_101a_b69c_00aa00341d07@@3U__s_GUID@@BUtagCONNECTDATA@@V?$_Copy@UtagCONNECTDATA@@@ATL@@VCComSingleThreadModel@6@@ATL@@@ATL@@UEAAPEAXI@Z 0000000180004260 f i Biometrics.obj
 0001:000032b8       ??_E?$CComObject@VCOPOSBiometrics@@@ATL@@W7EAAPEAXI@Z 00000001800042b8 f i Biometrics.obj
 0001:000032c4       ??_E?$CComObject@VCOPOSBiometrics@@@ATL@@WHA@EAAPEAXI@Z 00000001800042c4 f i Biometrics.obj
 0001:000032d0       ?QueryInterface@?$CComObject@VCOPOSBiometrics@@@ATL@@WLI@EAAJAEBU_GUID@@PEAPEAX@Z 00000001800042d0 f i Biometrics.obj
 0001:000032dc       ?AddRef@?$CComObject@VCOPOSBiometrics@@@ATL@@WLI@EAAKXZ 00000001800042dc f i Biometrics.obj
 0001:000032e8       ?Release@?$CComObject@VCOPOSBiometrics@@@ATL@@WLI@EAAKXZ 00000001800042e8 f i Biometrics.obj
 0001:000032f4       ?QueryInterface@?$CComObject@VCOPOSBiometrics@@@ATL@@WMA@EAAJAEBU_GUID@@PEAPEAX@Z 00000001800042f4 f i Biometrics.obj
 0001:00003300       ?AddRef@?$CComObject@VCOPOSBiometrics@@@ATL@@WMA@EAAKXZ 0000000180004300 f i Biometrics.obj
 0001:0000330c       ?Release@?$CComObject@VCOPOSBiometrics@@@ATL@@WMA@EAAKXZ 000000018000430c f i Biometrics.obj
 0001:00003318       ?QueryInterface@?$CComObject@VCOPOSBiometrics@@@ATL@@WMI@EAAJAEBU_GUID@@PEAPEAX@Z 0000000180004318 f i Biometrics.obj
 0001:00003324       ?AddRef@?$CComObject@VCOPOSBiometrics@@@ATL@@WMI@EAAKXZ 0000000180004324 f i Biometrics.obj
 0001:00003330       ?Release@?$CComObject@VCOPOSBiometrics@@@ATL@@WMI@EAAKXZ 0000000180004330 f i Biometrics.obj
 0001:0000333c       ?QueryInterface@?$CComObject@VCOPOSBiometrics@@@ATL@@WNA@EAAJAEBU_GUID@@PEAPEAX@Z 000000018000433c f i Biometrics.obj
 0001:00003348       ?AddRef@?$CComObject@VCOPOSBiometrics@@@ATL@@WNA@EAAKXZ 0000000180004348 f i Biometrics.obj
 0001:00003354       ?Release@?$CComObject@VCOPOSBiometrics@@@ATL@@WNA@EAAKXZ 0000000180004354 f i Biometrics.obj
 0001:00003360       ?QueryInterface@?$CComObject@VCOPOSBiometrics@@@ATL@@WNI@EAAJAEBU_GUID@@PEAPEAX@Z 0000000180004360 f i Biometrics.obj
 0001:0000336c       ?AddRef@?$CComObject@VCOPOSBiometrics@@@ATL@@WNI@EAAKXZ 000000018000436c f i Biometrics.obj
 0001:00003378       ?Release@?$CComObject@VCOPOSBiometrics@@@ATL@@WNI@EAAKXZ 0000000180004378 f i Biometrics.obj
 0001:00003384       ?QueryInterface@?$CComObject@VCOPOSBiometrics@@@ATL@@WOA@EAAJAEBU_GUID@@PEAPEAX@Z 0000000180004384 f i Biometrics.obj
 0001:00003390       ?AddRef@?$CComObject@VCOPOSBiometrics@@@ATL@@WOA@EAAKXZ 0000000180004390 f i Biometrics.obj
 0001:0000339c       ?Release@?$CComObject@VCOPOSBiometrics@@@ATL@@WOA@EAAKXZ 000000018000439c f i Biometrics.obj
 0001:000033a8       ?QueryInterface@?$CComObject@VCOPOSBiometrics@@@ATL@@WOI@EAAJAEBU_GUID@@PEAPEAX@Z 00000001800043a8 f i Biometrics.obj
 0001:000033b4       ?AddRef@?$CComObject@VCOPOSBiometrics@@@ATL@@WOI@EAAKXZ 00000001800043b4 f i Biometrics.obj
 0001:000033c0       ?Release@?$CComObject@VCOPOSBiometrics@@@ATL@@WOI@EAAKXZ 00000001800043c0 f i Biometrics.obj
 0001:000033cc       ?QueryInterface@?$CComObject@VCOPOSBiometrics@@@ATL@@WPA@EAAJAEBU_GUID@@PEAPEAX@Z 00000001800043cc f i Biometrics.obj
 0001:000033d8       ?AddRef@?$CComObject@VCOPOSBiometrics@@@ATL@@WPA@EAAKXZ 00000001800043d8 f i Biometrics.obj
 0001:000033e4       ?Release@?$CComObject@VCOPOSBiometrics@@@ATL@@WPA@EAAKXZ 00000001800043e4 f i Biometrics.obj
 0001:000033f0       ?QueryInterface@?$CComObject@VCOPOSBiometrics@@@ATL@@WPI@EAAJAEBU_GUID@@PEAPEAX@Z 00000001800043f0 f i Biometrics.obj
 0001:000033fc       ?AddRef@?$CComObject@VCOPOSBiometrics@@@ATL@@WPI@EAAKXZ 00000001800043fc f i Biometrics.obj
 0001:00003408       ?Release@?$CComObject@VCOPOSBiometrics@@@ATL@@WPI@EAAKXZ 0000000180004408 f i Biometrics.obj
 0001:00003414       ?QueryInterface@?$CComObject@VCOPOSBiometrics@@@ATL@@WBAA@EAAJAEBU_GUID@@PEAPEAX@Z 0000000180004414 f i Biometrics.obj
 0001:00003420       ?AddRef@?$CComObject@VCOPOSBiometrics@@@ATL@@WBAA@EAAKXZ 0000000180004420 f i Biometrics.obj
 0001:0000342c       ?Release@?$CComObject@VCOPOSBiometrics@@@ATL@@WBAA@EAAKXZ 000000018000442c f i Biometrics.obj
 0001:00003438       ?QueryInterface@?$CComObject@VCOPOSBiometrics@@@ATL@@WBAI@EAAJAEBU_GUID@@PEAPEAX@Z 0000000180004438 f i Biometrics.obj
 0001:00003444       ?AddRef@?$CComObject@VCOPOSBiometrics@@@ATL@@WBAI@EAAKXZ 0000000180004444 f i Biometrics.obj
 0001:00003450       ?Release@?$CComObject@VCOPOSBiometrics@@@ATL@@WBAI@EAAKXZ 0000000180004450 f i Biometrics.obj
 0001:0000345c       ?QueryInterface@?$CComObject@VCOPOSBiometrics@@@ATL@@WBBA@EAAJAEBU_GUID@@PEAPEAX@Z 000000018000445c f i Biometrics.obj
 0001:00003468       ?AddRef@?$CComObject@VCOPOSBiometrics@@@ATL@@WBBA@EAAKXZ 0000000180004468 f i Biometrics.obj
 0001:00003474       ?Release@?$CComObject@VCOPOSBiometrics@@@ATL@@WBBA@EAAKXZ 0000000180004474 f i Biometrics.obj
 0001:00003480       ?QueryInterface@?$CComObject@VCOPOSBiometrics@@@ATL@@WBBI@EAAJAEBU_GUID@@PEAPEAX@Z 0000000180004480 f i Biometrics.obj
 0001:0000348c       ?AddRef@?$CComObject@VCOPOSBiometrics@@@ATL@@WBBI@EAAKXZ 000000018000448c f i Biometrics.obj
 0001:00003498       ?Release@?$CComObject@VCOPOSBiometrics@@@ATL@@WBBI@EAAKXZ 0000000180004498 f i Biometrics.obj
 0001:000034a4       ?AddRef@?$CComObject@VCOPOSBiometrics@@@ATL@@WBCI@EAAKXZ 00000001800044a4 f i Biometrics.obj
 0001:000034b0       ?Release@?$CComObject@VCOPOSBiometrics@@@ATL@@WBCI@EAAKXZ 00000001800044b0 f i Biometrics.obj
 0001:000034bc       ?AddRef@?$CComObject@VCOPOSBiometrics@@@ATL@@WBEA@EAAKXZ 00000001800044bc f i Biometrics.obj
 0001:000034c8       ?Release@?$CComObject@VCOPOSBiometrics@@@ATL@@WBEA@EAAKXZ 00000001800044c8 f i Biometrics.obj
 0001:000034d4       ??_E?$CComContainedObject@VCOPOSBiometrics@@@ATL@@W7EAAPEAXI@Z 00000001800044d4 f i Biometrics.obj
 0001:000034e0       ??_E?$CComContainedObject@VCOPOSBiometrics@@@ATL@@WHA@EAAPEAXI@Z 00000001800044e0 f i Biometrics.obj
 0001:000034ec       ?QueryInterface@?$CComContainedObject@VCOPOSBiometrics@@@ATL@@WLI@EAAJAEBU_GUID@@PEAPEAX@Z 00000001800044ec f i Biometrics.obj
 0001:000034f8       ?AddRef@?$CComContainedObject@VCOPOSBiometrics@@@ATL@@WLI@EAAKXZ 00000001800044f8 f i Biometrics.obj
 0001:00003504       ?Release@?$CComContainedObject@VCOPOSBiometrics@@@ATL@@WLI@EAAKXZ 0000000180004504 f i Biometrics.obj
 0001:00003510       ?QueryInterface@?$CComContainedObject@VCOPOSBiometrics@@@ATL@@WMA@EAAJAEBU_GUID@@PEAPEAX@Z 0000000180004510 f i Biometrics.obj
 0001:0000351c       ?AddRef@?$CComContainedObject@VCOPOSBiometrics@@@ATL@@WMA@EAAKXZ 000000018000451c f i Biometrics.obj
 0001:00003528       ?Release@?$CComContainedObject@VCOPOSBiometrics@@@ATL@@WMA@EAAKXZ 0000000180004528 f i Biometrics.obj
 0001:00003534       ?QueryInterface@?$CComContainedObject@VCOPOSBiometrics@@@ATL@@WMI@EAAJAEBU_GUID@@PEAPEAX@Z 0000000180004534 f i Biometrics.obj
 0001:00003540       ?AddRef@?$CComContainedObject@VCOPOSBiometrics@@@ATL@@WMI@EAAKXZ 0000000180004540 f i Biometrics.obj
 0001:0000354c       ?Release@?$CComContainedObject@VCOPOSBiometrics@@@ATL@@WMI@EAAKXZ 000000018000454c f i Biometrics.obj
 0001:00003558       ?QueryInterface@?$CComContainedObject@VCOPOSBiometrics@@@ATL@@WNA@EAAJAEBU_GUID@@PEAPEAX@Z 0000000180004558 f i Biometrics.obj
 0001:00003564       ?AddRef@?$CComContainedObject@VCOPOSBiometrics@@@ATL@@WNA@EAAKXZ 0000000180004564 f i Biometrics.obj
 0001:00003570       ?Release@?$CComContainedObject@VCOPOSBiometrics@@@ATL@@WNA@EAAKXZ 0000000180004570 f i Biometrics.obj
 0001:0000357c       ?QueryInterface@?$CComContainedObject@VCOPOSBiometrics@@@ATL@@WNI@EAAJAEBU_GUID@@PEAPEAX@Z 000000018000457c f i Biometrics.obj
 0001:00003588       ?AddRef@?$CComContainedObject@VCOPOSBiometrics@@@ATL@@WNI@EAAKXZ 0000000180004588 f i Biometrics.obj
 0001:00003594       ?Release@?$CComContainedObject@VCOPOSBiometrics@@@ATL@@WNI@EAAKXZ 0000000180004594 f i Biometrics.obj
 0001:000035a0       ?QueryInterface@?$CComContainedObject@VCOPOSBiometrics@@@ATL@@WOA@EAAJAEBU_GUID@@PEAPEAX@Z 00000001800045a0 f i Biometrics.obj
 0001:000035ac       ?AddRef@?$CComContainedObject@VCOPOSBiometrics@@@ATL@@WOA@EAAKXZ 00000001800045ac f i Biometrics.obj
 0001:000035b8       ?Release@?$CComContainedObject@VCOPOSBiometrics@@@ATL@@WOA@EAAKXZ 00000001800045b8 f i Biometrics.obj
 0001:000035c4       ?QueryInterface@?$CComContainedObject@VCOPOSBiometrics@@@ATL@@WOI@EAAJAEBU_GUID@@PEAPEAX@Z 00000001800045c4 f i Biometrics.obj
 0001:000035d0       ?AddRef@?$CComContainedObject@VCOPOSBiometrics@@@ATL@@WOI@EAAKXZ 00000001800045d0 f i Biometrics.obj
 0001:000035dc       ?Release@?$CComContainedObject@VCOPOSBiometrics@@@ATL@@WOI@EAAKXZ 00000001800045dc f i Biometrics.obj
 0001:000035e8       ?QueryInterface@?$CComContainedObject@VCOPOSBiometrics@@@ATL@@WPA@EAAJAEBU_GUID@@PEAPEAX@Z 00000001800045e8 f i Biometrics.obj
 0001:000035f4       ?AddRef@?$CComContainedObject@VCOPOSBiometrics@@@ATL@@WPA@EAAKXZ 00000001800045f4 f i Biometrics.obj
 0001:00003600       ?Release@?$CComContainedObject@VCOPOSBiometrics@@@ATL@@WPA@EAAKXZ 0000000180004600 f i Biometrics.obj
 0001:0000360c       ?QueryInterface@?$CComContainedObject@VCOPOSBiometrics@@@ATL@@WPI@EAAJAEBU_GUID@@PEAPEAX@Z 000000018000460c f i Biometrics.obj
 0001:00003618       ?AddRef@?$CComContainedObject@VCOPOSBiometrics@@@ATL@@WPI@EAAKXZ 0000000180004618 f i Biometrics.obj
 0001:00003624       ?Release@?$CComContainedObject@VCOPOSBiometrics@@@ATL@@WPI@EAAKXZ 0000000180004624 f i Biometrics.obj
 0001:00003630       ?QueryInterface@?$CComContainedObject@VCOPOSBiometrics@@@ATL@@WBAA@EAAJAEBU_GUID@@PEAPEAX@Z 0000000180004630 f i Biometrics.obj
 0001:0000363c       ?AddRef@?$CComContainedObject@VCOPOSBiometrics@@@ATL@@WBAA@EAAKXZ 000000018000463c f i Biometrics.obj
 0001:00003648       ?Release@?$CComContainedObject@VCOPOSBiometrics@@@ATL@@WBAA@EAAKXZ 0000000180004648 f i Biometrics.obj
 0001:00003654       ?QueryInterface@?$CComContainedObject@VCOPOSBiometrics@@@ATL@@WBAI@EAAJAEBU_GUID@@PEAPEAX@Z 0000000180004654 f i Biometrics.obj
 0001:00003660       ?AddRef@?$CComContainedObject@VCOPOSBiometrics@@@ATL@@WBAI@EAAKXZ 0000000180004660 f i Biometrics.obj
 0001:0000366c       ?Release@?$CComContainedObject@VCOPOSBiometrics@@@ATL@@WBAI@EAAKXZ 000000018000466c f i Biometrics.obj
 0001:00003678       ?QueryInterface@?$CComContainedObject@VCOPOSBiometrics@@@ATL@@WBBA@EAAJAEBU_GUID@@PEAPEAX@Z 0000000180004678 f i Biometrics.obj
 0001:00003684       ?AddRef@?$CComContainedObject@VCOPOSBiometrics@@@ATL@@WBBA@EAAKXZ 0000000180004684 f i Biometrics.obj
 0001:00003690       ?Release@?$CComContainedObject@VCOPOSBiometrics@@@ATL@@WBBA@EAAKXZ 0000000180004690 f i Biometrics.obj
 0001:0000369c       ?QueryInterface@?$CComContainedObject@VCOPOSBiometrics@@@ATL@@WBBI@EAAJAEBU_GUID@@PEAPEAX@Z 000000018000469c f i Biometrics.obj
 0001:000036a8       ?AddRef@?$CComContainedObject@VCOPOSBiometrics@@@ATL@@WBBI@EAAKXZ 00000001800046a8 f i Biometrics.obj
 0001:000036b4       ?Release@?$CComContainedObject@VCOPOSBiometrics@@@ATL@@WBBI@EAAKXZ 00000001800046b4 f i Biometrics.obj
 0001:000036c0       ?AddRef@?$CComContainedObject@VCOPOSBiometrics@@@ATL@@WBCI@EAAKXZ 00000001800046c0 f i Biometrics.obj
 0001:000036cc       ?Release@?$CComContainedObject@VCOPOSBiometrics@@@ATL@@WBCI@EAAKXZ 00000001800046cc f i Biometrics.obj
 0001:000036d8       ?AddRef@?$CComContainedObject@VCOPOSBiometrics@@@ATL@@WBEA@EAAKXZ 00000001800046d8 f i Biometrics.obj
 0001:000036e4       ?Release@?$CComContainedObject@VCOPOSBiometrics@@@ATL@@WBEA@EAAKXZ 00000001800046e4 f i Biometrics.obj
 0001:000036f0       ?CreateInstance@CComClassFactory@ATL@@UEAAJPEAUIUnknown@@AEBU_GUID@@PEAPEAX@Z 00000001800046f0 f i Biometrics.obj
 0001:00003750       ?LockServer@CComClassFactory@ATL@@UEAAJH@Z 0000000180004750 f i Biometrics.obj
 0001:00003774       ??_ECComClassFactory@ATL@@UEAAPEAXI@Z 0000000180004774 f i Biometrics.obj
 0001:00003774       ??_GCComClassFactory@ATL@@UEAAPEAXI@Z 0000000180004774 f i Biometrics.obj
 0001:000037c4       ??$AtlModuleRegisterWndClassInfoT@VAtlModuleRegisterWndClassInfoParamW@ATL@@@ATL@@YAGPEAU_ATL_BASE_MODULE70@0@PEAU_ATL_WIN_MODULE70@0@PEAU_ATL_WNDCLASSINFOW@0@PEAP6A_JPEAUHWND__@@I_K_J@ZVAtlModuleRegisterWndClassInfoParamW@0@@Z 00000001800047c4 f i Biometrics.obj
 0001:000039c4       ??0?$CComContainedObject@VCOPOSBiometrics@@@ATL@@QEAA@PEAX@Z 00000001800049c4 f i Biometrics.obj
 0001:00003ae0       ??0?$CComObject@VCOPOSBiometrics@@@ATL@@QEAA@PEAX@Z 0000000180004ae0 f i Biometrics.obj
 0001:00003bf8       ??0CAtlModule@ATL@@QEAA@XZ 0000000180004bf8 f i Biometrics.obj
 0001:00003c6c       ??1?$CComEnumImpl@UIEnumConnectionPoints@@$1?_GUID_b196b285_bab4_101a_b69c_00aa00341d07@@3U__s_GUID@@BPEAUIConnectionPoint@@V?$_CopyInterface@UIConnectionPoint@@@ATL@@@ATL@@UEAA@XZ 0000000180004c6c f i Biometrics.obj
 0001:00003cc8       ??1?$CComEnumImpl@UIEnumConnections@@$1?_GUID_b196b287_bab4_101a_b69c_00aa00341d07@@3U__s_GUID@@BUtagCONNECTDATA@@V?$_Copy@UtagCONNECTDATA@@@ATL@@@ATL@@UEAA@XZ 0000000180004cc8 f i Biometrics.obj
 0001:00003d24       ??1?$CComObject@VCOPOSBiometrics@@@ATL@@UEAA@XZ 0000000180004d24 f i Biometrics.obj
 0001:00003e44       ??_E?$CComContainedObject@VCOPOSBiometrics@@@ATL@@UEAAPEAXI@Z 0000000180004e44 f i Biometrics.obj
 0001:00003e44       ??_G?$CComContainedObject@VCOPOSBiometrics@@@ATL@@UEAAPEAXI@Z 0000000180004e44 f i Biometrics.obj
 0001:00003e78       ??_E?$CComObject@VCOPOSBiometrics@@@ATL@@UEAAPEAXI@Z 0000000180004e78 f i Biometrics.obj
 0001:00003e78       ??_G?$CComObject@VCOPOSBiometrics@@@ATL@@UEAAPEAXI@Z 0000000180004e78 f i Biometrics.obj
 0001:00003eac       ?Add@?$CSimpleArray@GV?$CSimpleArrayEqualHelper@G@ATL@@@ATL@@QEAAHAEBG@Z 0000000180004eac f i Biometrics.obj
 0001:00003f60       ?Add@?$CSimpleMap@PEA_WPEA_WVCExpansionVectorEqualHelper@ATL@@@ATL@@QEAAHAEBQEA_W0@Z 0000000180004f60 f i Biometrics.obj
 0001:00004000       ?Add@CComDynamicUnkArray@ATL@@QEAAKPEAUIUnknown@@@Z 0000000180005000 f i Biometrics.obj
 0001:000040ec       ?Add@CExpansionVector@ATL@@QEAAHPEB_W0@Z 00000001800050ec f i Biometrics.obj
 0001:00004220       ?AddTermFunc@CAtlModule@ATL@@QEAAJP6AX_K@Z0@Z 0000000180005220 f i Biometrics.obj
 0001:000042bc       ?AddValue@CRegParser@ATL@@IEAAJAEAVCRegKey@2@PEB_WPEA_W@Z 00000001800052bc f i Biometrics.obj
 0001:00004704       ?AllocateHeap@?$CTempBuffer@_W$0BAA@VCCRTAllocator@ATL@@@ATL@@AEAAX_K@Z 0000000180005704 f i Biometrics.obj
 0001:00004704       ?AllocateHeap@?$CTempBuffer@_W$0EAA@VCCRTAllocator@ATL@@@ATL@@AEAAX_K@Z 0000000180005704 f i Biometrics.obj
 0001:00004704       ?AllocateHeap@?$CTempBuffer@E$0BAA@VCCRTAllocator@ATL@@@ATL@@AEAAX_K@Z 0000000180005704 f i Biometrics.obj
 0001:00004730       ?Append@CParseBuffer@CRegParser@ATL@@QEAAHPEB_WH@Z 0000000180005730 f i Biometrics.obj
 0001:00004878       ?AtlComModuleGetClassObject@ATL@@YAJPEAU_ATL_COM_MODULE70@1@AEBU_GUID@@1PEAPEAX@Z 0000000180005878 f i Biometrics.obj
 0001:000049b8       ?AtlComModuleRegisterServer@ATL@@YAJPEAU_ATL_COM_MODULE70@1@HPEBU_GUID@@@Z 00000001800059b8 f i Biometrics.obj
 0001:00004a78       ?AtlComModuleUnregisterServer@ATL@@YAJPEAU_ATL_COM_MODULE70@1@HPEBU_GUID@@@Z 0000000180005a78 f i Biometrics.obj
 0001:00004b34       ?AtlHiMetricToPixel@ATL@@YAXPEBUtagSIZE@@PEAU2@@Z 0000000180005b34 f i Biometrics.obj
 0001:00004be4       ?AtlHresultFromLastError@ATL@@YAJXZ 0000000180005be4 f i Biometrics.obj
 0001:00004c04       ?AtlHresultFromWin32@ATL@@YAJK@Z 0000000180005c04 f i Biometrics.obj
 0001:00004c14       ?AtlInternalOleLoadFromStream@ATL@@YAJPEAUIStream@@AEBU_GUID@@PEAPEAXTClassesAllowedInStream@1@K@Z 0000000180005c14 f i Biometrics.obj
 0001:00004d58       ?AtlInternalQueryInterface@ATL@@YAJPEAXPEBU_ATL_INTMAP_ENTRY@1@AEBU_GUID@@PEAPEAX@Z 0000000180005d58 f i Biometrics.obj
 0001:00004e60       ?AtlLoadTypeLib@ATL@@YAJPEAUHINSTANCE__@@PEB_WPEAPEA_WPEAPEAUITypeLib@@@Z 0000000180005e60 f i Biometrics.obj
 0001:000050bc       ?AtlRegisterClassCategoriesHelper@ATL@@YAJAEBU_GUID@@PEBU_ATL_CATMAP_ENTRY@1@H@Z 00000001800060bc f i Biometrics.obj
 0001:00005540       ?AtlRegisterTypeLib@ATL@@YAJPEAUHINSTANCE__@@PEB_W@Z 0000000180006540 f i Biometrics.obj
 0001:0000573c       ?AtlThrowImpl@ATL@@YAXJ@Z  000000018000673c f i Biometrics.obj
 0001:00005760       ?AtlUnRegisterTypeLib@ATL@@YAJPEAUHINSTANCE__@@PEB_W@Z 0000000180006760 f i Biometrics.obj
 0001:00005828       ?AtlWinModuleExtractCreateWndData@ATL@@YAPEAXPEAU_ATL_WIN_MODULE70@1@@Z 0000000180006828 f i Biometrics.obj
 0001:000058b4       ?Cleanup@CComTypeInfoHolder@ATL@@SAX_K@Z 00000001800068b4 f i Biometrics.obj
 0001:000058f4       ?ClearReplacements@CExpansionVector@ATL@@QEAAJXZ 00000001800068f4 f i Biometrics.obj
 0001:00005990       ?CreateInstance@?$CComCreator@V?$CComAggObject@VCOPOSBiometrics@@@ATL@@@ATL@@SAJPEAXAEBU_GUID@@PEAPEAX@Z 0000000180006990 f i Biometrics.obj
 0001:00005a74       ?CreateInstance@?$CComCreator@V?$CComObject@VCOPOSBiometrics@@@ATL@@@ATL@@SAJPEAXAEBU_GUID@@PEAPEAX@Z 0000000180006a74 f i Biometrics.obj
 0001:00005b28       ?CreateInstance@?$CComObject@V?$CComEnum@UIEnumConnectionPoints@@$1?_GUID_b196b285_bab4_101a_b69c_00aa00341d07@@3U__s_GUID@@BPEAUIConnectionPoint@@V?$_CopyInterface@UIConnectionPoint@@@ATL@@VCComSingleThreadModel@6@@ATL@@@ATL@@SAJPEAPEAV12@@Z 0000000180006b28 f i Biometrics.obj
 0001:00005bb8       ?CreateInstance@?$CComObject@V?$CComEnum@UIEnumConnections@@$1?_GUID_b196b287_bab4_101a_b69c_00aa00341d07@@3U__s_GUID@@BUtagCONNECTDATA@@V?$_Copy@UtagCONNECTDATA@@@ATL@@VCComSingleThreadModel@6@@ATL@@@ATL@@SAJPEAPEAV12@@Z 0000000180006bb8 f i Biometrics.obj
 0001:00005c48       ?DefaultReflectionHandler@?$CWindowImplRoot@VCWindow@ATL@@@ATL@@SAHPEAUHWND__@@I_K_JAEA_J@Z 0000000180006c48 f i Biometrics.obj
 0001:00005cac       ?DeleteSubKey@CRegKey@ATL@@QEAAJPEB_W@Z 0000000180006cac f i Biometrics.obj
 0001:00005d44       ?DoEvent@COPOSBiometrics@@IEAAXI_K_J@Z 0000000180006d44 f i Biometrics.obj
 0001:00005df8       ?DoVerbPrimary@?$IOleObjectImpl@VCOPOSBiometrics@@@ATL@@QEAAJPEBUtagRECT@@PEAUHWND__@@@Z 0000000180006df8 f i Biometrics.obj
 0001:00005f24       ?DoVerbProperties@CComControlBase@ATL@@QEAAJPEBUtagRECT@@PEAUHWND__@@@Z 0000000180006f24 f i Biometrics.obj
 0001:0000614c       ?FireTheEvent@?$CProxy_IOPOSEvents@VCOPOSBiometrics@@@@IEAAXPEAVOposVariant@@IAEAJPEB_WJ@Z 000000018000714c f i Biometrics.obj
 0001:00006238       ?FireViewChange@CComControlBase@ATL@@QEAAJXZ 0000000180007238 f i Biometrics.obj
 0001:0000629c       ?Fire_DataEvent@?$CProxy_IOPOSEvents@VCOPOSBiometrics@@@@QEAAXJ@Z 000000018000729c f i Biometrics.obj
 0001:00006388       ?Fire_DirectIOEvent@?$CProxy_IOPOSEvents@VCOPOSBiometrics@@@@QEAAXJPEAJPEAPEA_W@Z 0000000180007388 f i Biometrics.obj
 0001:000064e8       ?Fire_ErrorEvent@?$CProxy_IOPOSEvents@VCOPOSBiometrics@@@@QEAAXJJJPEAJ@Z 00000001800074e8 f i Biometrics.obj
 0001:0000665c       ?Fire_StatusUpdateEvent@?$CProxy_IOPOSEvents@VCOPOSBiometrics@@@@QEAAXJ@Z 000000018000765c f i Biometrics.obj
 0001:00006748       ?FreeHeap@?$CTempBuffer@_W$0BAA@VCCRTAllocator@ATL@@@ATL@@AEAAXXZ 0000000180007748 f i Biometrics.obj
 0001:00006748       ?FreeHeap@?$CTempBuffer@_W$0EAA@VCCRTAllocator@ATL@@@ATL@@AEAAXXZ 0000000180007748 f i Biometrics.obj
 0001:00006748       ?FreeHeap@?$CTempBuffer@E$0BAA@VCCRTAllocator@ATL@@@ATL@@AEAAXXZ 0000000180007748 f i Biometrics.obj
 0001:00006750       ?GetAmbientLocaleID@CComControlBase@ATL@@QEAAJAEAK@Z 0000000180007750 f i Biometrics.obj
 0001:00006810       ?GetAmbientUserMode@CComControlBase@ATL@@QEAAJAEAH@Z 0000000180007810 f i Biometrics.obj
 0001:000068e0       ?GetClassObject@CComModule@ATL@@QEAAJAEBU_GUID@@0PEAPEAX@Z 00000001800078e0 f i Biometrics.obj
 0001:000069d4       ?GetConnMap@COPOSBiometrics@@SAPEBU_ATL_CONNMAP_ENTRY@ATL@@PEAH@Z 00000001800079d4 f i Biometrics.obj
 0001:00006a5c       ?GetIDsOfNames@CComTypeInfoHolder@ATL@@QEAAJAEBU_GUID@@PEAPEA_WIKPEAJ@Z 0000000180007a5c f i Biometrics.obj
 0001:00006bd4       ?GetPagesHelper@?$ISpecifyPropertyPagesImpl@VCOPOSBiometrics@@@ATL@@IEAAJPEAUtagCAUUID@@PEBUATL_PROPMAP_ENTRY@2@@Z 0000000180007bd4 f i Biometrics.obj
 0001:00006d74       ?GetSizeMax@CComVariant@ATL@@QEBAJPEAT_ULARGE_INTEGER@@@Z 0000000180007d74 f i Biometrics.obj
 0001:00006fa4       ?GetTI@CComTypeInfoHolder@ATL@@QEAAJK@Z 0000000180007fa4 f i Biometrics.obj
 0001:0000728c       ?GetZoomInfo@CComControlBase@ATL@@QEAAXAEAUATL_DRAWINFO@@@Z 000000018000828c f i Biometrics.obj
 0001:00007330       ?HKeyFromString@CRegParser@ATL@@KAPEAUHKEY__@@PEA_W@Z 0000000180008330 f i Biometrics.obj
 0001:00007394       ?IDataObject_GetData@CComControlBase@ATL@@QEAAJPEAUtagFORMATETC@@PEAUtagSTGMEDIUM@@@Z 0000000180008394 f i Biometrics.obj
 0001:00007588       ?IOleInPlaceObject_InPlaceDeactivate@CComControlBase@ATL@@QEAAJXZ 0000000180008588 f i Biometrics.obj
 0001:00007628       ?IOleInPlaceObject_SetObjectRects@CComControlBase@ATL@@QEAAJPEBUtagRECT@@0@Z 0000000180008628 f i Biometrics.obj
 0001:00007718       ?IOleInPlaceObject_UIDeactivate@CComControlBase@ATL@@QEAAJXZ 0000000180008718 f i Biometrics.obj
 0001:00007824       ?IOleObject_Close@CComControlBase@ATL@@QEAAJK@Z 0000000180008824 f i Biometrics.obj
 0001:0000793c       ?IOleObject_SetClientSite@CComControlBase@ATL@@QEAAJPEAUIOleClientSite@@@Z 000000018000893c f i Biometrics.obj
 0001:000079b4       ?IOleObject_SetExtent@CComControlBase@ATL@@QEAAJKPEAUtagSIZE@@@Z 00000001800089b4 f i Biometrics.obj
 0001:00007a4c       ?IPSI_GetIPersistStreamInit@?$IPersistStorageImpl@VCOPOSBiometrics@@@ATL@@AEAAPEAUIPersistStreamInit@@XZ 0000000180008a4c f i Biometrics.obj
 0001:00007b34       ?IPersistStreamInit_Load@?$IPersistStreamInitImpl@VCOPOSBiometrics@@@ATL@@QEAAJPEAUIStream@@PEBUATL_PROPMAP_ENTRY@2@@Z 0000000180008b34 f i Biometrics.obj
 0001:00007e60       ?IPersistStreamInit_Save@?$IPersistStreamInitImpl@VCOPOSBiometrics@@@ATL@@QEAAJPEAUIStream@@HPEBUATL_PROPMAP_ENTRY@2@@Z 0000000180008e60 f i Biometrics.obj
 0001:00008100       ?IQuickActivate_QuickActivate@CComControlBase@ATL@@QEAAJPEAUtagQACONTAINER@@PEAUtagQACONTROL@@@Z 0000000180009100 f i Biometrics.obj
 0001:000083c4       ?IViewObject_Draw@CComControlBase@ATL@@QEAAJKJPEAXPEAUtagDVTARGETDEVICE@@PEAUHDC__@@2PEBU_RECTL@@3@Z 00000001800093c4 f i Biometrics.obj
 0001:000084d8       ?InPlaceActivate@CComControlBase@ATL@@QEAAJJPEBUtagRECT@@@Z 00000001800094d8 f i Biometrics.obj
 0001:0000880c       ?Init@?$CComEnumImpl@UIEnumConnectionPoints@@$1?_GUID_b196b285_bab4_101a_b69c_00aa00341d07@@3U__s_GUID@@BPEAUIConnectionPoint@@V?$_CopyInterface@UIConnectionPoint@@@ATL@@@ATL@@QEAAJPEAPEAUIConnectionPoint@@0PEAUIUnknown@@W4CComEnumFlags@2@@Z 000000018000980c f i Biometrics.obj
 0001:0000892c       ?Init@?$CComEnumImpl@UIEnumConnections@@$1?_GUID_b196b287_bab4_101a_b69c_00aa00341d07@@3U__s_GUID@@BUtagCONNECTDATA@@V?$_Copy@UtagCONNECTDATA@@@ATL@@@ATL@@QEAAJPEAUtagCONNECTDATA@@0PEAUIUnknown@@W4CComEnumFlags@2@@Z 000000018000992c f i Biometrics.obj
 0001:00008a50       ?IsEqualObject@?$CComPtrBase@UIOleClientSite@@@ATL@@QEAA_NPEAUIUnknown@@@Z 0000000180009a50 f i Biometrics.obj
 0001:00008adc       ?LoadNameCache@CComTypeInfoHolder@ATL@@QEAAJPEAUITypeInfo@@@Z 0000000180009adc f i Biometrics.obj
 0001:00008c5c       ?Lookup@?$CSimpleMap@PEA_WPEA_WVCExpansionVectorEqualHelper@ATL@@@ATL@@QEBAPEA_WAEBQEA_W@Z 0000000180009c5c f i Biometrics.obj
 0001:00008ce4       ?NextToken@CRegParser@ATL@@IEAAJPEA_W@Z 0000000180009ce4 f i Biometrics.obj
 0001:00008e9c       ?OnKillFocus@CComControlBase@ATL@@QEAA_JI_K_JAEAH@Z 0000000180009e9c f i Biometrics.obj
 0001:00008f38       ?OnMouseActivate@CComControlBase@ATL@@QEAA_JI_K_JAEAH@Z 0000000180009f38 f i Biometrics.obj
 0001:00008fd8       ?OnPaint@CComControlBase@ATL@@QEAA_JI_K_JAEAH@Z 0000000180009fd8 f i Biometrics.obj
 0001:000090c4       ?OnSetFocus@CComControlBase@ATL@@QEAA_JI_K_JAEAH@Z 000000018000a0c4 f i Biometrics.obj
 0001:000091c0       ?PreProcessBuffer@CRegParser@ATL@@QEAAJPEA_WPEAPEA_W@Z 000000018000a1c0 f i Biometrics.obj
 0001:0000954c       ?ProcessWindowMessage@?$CComControl@VCOPOSBiometrics@@V?$CWindowImpl@VCOPOSBiometrics@@VCWindow@ATL@@V?$CWinTraits@$0FGAAAAAA@$0A@@3@@ATL@@@ATL@@UEAAHPEAUHWND__@@I_K_JAEA_JK@Z 000000018000a54c f i Biometrics.obj
 0001:00009630       ?ReadFromStream@CComBSTR@ATL@@QEAAJPEAUIStream@@@Z 000000018000a630 f i Biometrics.obj
 0001:00009780       ?ReadFromStream@CComVariant@ATL@@QEAAJPEAUIStream@@GTClassesAllowedInStream@2@K@Z 000000018000a780 f i Biometrics.obj
 0001:000099a4       ?RecurseDeleteKey@CRegKey@ATL@@QEAAJPEB_W@Z 000000018000a9a4 f i Biometrics.obj
 0001:00009afc       ?RegCreateKeyExW@CAtlTransactionManager@ATL@@QEAAJPEAUHKEY__@@PEB_WKPEA_WKKQEAU_SECURITY_ATTRIBUTES@@PEAPEAU3@PEAK@Z 000000018000aafc f i Biometrics.obj
 0001:00009c30       ?RegDeleteKeyW@CAtlTransactionManager@ATL@@QEAAJPEAUHKEY__@@PEB_W@Z 000000018000ac30 f i Biometrics.obj
 0001:00009cbc       ?RegOpenKeyExW@CAtlTransactionManager@ATL@@QEAAJPEAUHKEY__@@PEB_WKKPEAPEAU3@@Z 000000018000acbc f i Biometrics.obj
 0001:00009d74       ?RegisterBuffer@CRegParser@ATL@@QEAAJPEA_WH@Z 000000018000ad74 f i Biometrics.obj
 0001:00009edc       ?RegisterFromResource@CRegObject@ATL@@IEAAJPEB_W00H@Z 000000018000aedc f i Biometrics.obj
 0001:0000a098       ?RegisterServer@CComModule@ATL@@QEAAJHPEBU_GUID@@@Z 000000018000b098 f i Biometrics.obj
 0001:0000a158       ?RegisterSubkeys@CRegParser@ATL@@IEAAJPEA_WPEAUHKEY__@@HH@Z 000000018000b158 f i Biometrics.obj
 0001:0000a9c4       ?SendOnDataChange@CComControlBase@ATL@@QEAAJK@Z 000000018000b9c4 f i Biometrics.obj
 0001:0000aa34       ?SetControlFocus@CComControlBase@ATL@@QEAAHH@Z 000000018000ba34 f i Biometrics.obj
 0001:0000ab10       ?SkipAssignment@CRegParser@ATL@@IEAAJPEA_W@Z 000000018000bb10 f i Biometrics.obj
 0001:0000abb4       ?Term@CAtlModule@ATL@@QEAAXXZ 000000018000bbb4 f i Biometrics.obj
 0001:0000ac34       ?Term@CComModule@ATL@@QEAAXXZ 000000018000bc34 f i Biometrics.obj
 0001:0000acb0       ?UnregisterServer@CComModule@ATL@@QEAAJHPEBU_GUID@@@Z 000000018000bcb0 f i Biometrics.obj
 0001:0000ad60       ?UpdateRegistryFromResource@CAtlModule@ATL@@QEAAJIHPEAU_ATL_REGMAP_ENTRY@2@@Z 000000018000bd60 f i Biometrics.obj
 0001:0000b06c       ?UpdateRegistryFromResource@CAtlModule@ATL@@QEAAJPEB_WHPEAU_ATL_REGMAP_ENTRY@2@@Z 000000018000c06c f i Biometrics.obj
 0001:0000b390       ?VTFromRegType@CRegParser@ATL@@KAHPEB_WAEAG@Z 000000018000c390 f i Biometrics.obj
 0001:0000b42c       ?WindowProc@?$CWindowImplBaseT@VCWindow@ATL@@V?$CWinTraits@$0FGAAAAAA@$0A@@2@@ATL@@SA_JPEAUHWND__@@I_K_J@Z 000000018000c42c f i Biometrics.obj
 0001:0000b598       ?WriteToStream@CComVariant@ATL@@QEAAJPEAUIStream@@@Z 000000018000c598 f i Biometrics.obj
 0001:0000b814       ?WriteToStream@CComVariant@ATL@@QEAAJPEAUIStream@@G@Z 000000018000c814 f i Biometrics.obj
 0001:0000b8ac       ?_AtlVerifyStackAvailable@_ATL_SAFE_ALLOCA_IMPL@ATL@@YA_N_K@Z 000000018000c8ac f i Biometrics.obj
 0001:0000b930       ?atlCreate@?$CWindowImpl@VCOPOSBiometrics@@VCWindow@ATL@@V?$CWinTraits@$0FGAAAAAA@$0A@@3@@ATL@@QEAAPEAUHWND__@@PEAU3@V_U_RECT@2@PEB_WKKV_U_MENUorID@2@PEAX@Z 000000018000c930 f i Biometrics.obj
 0001:0000b9e0       ?atlCreate@?$CWindowImplBaseT@VCWindow@ATL@@V?$CWinTraits@$0FGAAAAAA@$0A@@2@@ATL@@QEAAPEAUHWND__@@PEAU3@V_U_RECT@2@PEB_WKKV_U_MENUorID@2@GPEAX@Z 000000018000c9e0 f i Biometrics.obj
 0001:0000bb50       ?ocscpy_s@@YA_NPEA_W_KPEB_W@Z 000000018000cb50 f i Biometrics.obj
 0001:0000bc00       DllCanUnloadNow            000000018000cc00 f   Biometrics.obj
 0001:0000bc0c       DllGetClassObject          000000018000cc0c f   Biometrics.obj
 0001:0000bc24       DllMain                    000000018000cc24 f   Biometrics.obj
 0001:0000bccc       DllRegisterServer          000000018000cccc f   Biometrics.obj
 0001:0000bce0       DllUnregisterServer        000000018000cce0 f   Biometrics.obj
 0001:0000bcf4       __local_stdio_printf_options 000000018000ccf4 f i Biometrics.obj
 0001:0000bcfc       swprintf_s                 000000018000ccfc f i Biometrics.obj
 0001:0000bd50       ??0COPOSBiometrics@@QEAA@XZ 000000018000cd50 f   BiometricsImpl.obj
 0001:0000be18       ??1?$IConnectionPointImpl@VCOPOSBiometrics@@$1?DIID__IOPOSBiometricsEvents@@3U_GUID@@BVCComDynamicUnkArray@ATL@@@ATL@@QEAA@XZ 000000018000ce18 f i BiometricsImpl.obj
 0001:0000be18       ??1?$IConnectionPointImpl@VCOPOSBiometrics@@$1?IID_IPropertyNotifySink@@3U_GUID@@BVCComDynamicUnkArray@ATL@@@ATL@@QEAA@XZ 000000018000ce18 f i BiometricsImpl.obj
 0001:0000be74       ??1CComControlBase@ATL@@UEAA@XZ 000000018000ce74 f i BiometricsImpl.obj
 0001:0000bef0       ??1COPOSBiometrics@@UEAA@XZ 000000018000cef0 f   BiometricsImpl.obj
 0001:0000bf54       ?BeginEnrollCapture@COPOSBiometrics@@UEAAJPEA_W0PEAJ@Z 000000018000cf54 f   BiometricsImpl.obj
 0001:0000c030       ?BeginVerifyCapture@COPOSBiometrics@@UEAAJPEAJ@Z 000000018000d030 f   BiometricsImpl.obj
 0001:0000c058       ?CheckHealth@COPOSBiometrics@@UEAAJJPEAJ@Z 000000018000d058 f   BiometricsImpl.obj
 0001:0000c0d4       ?ClaimDevice@COPOSBiometrics@@UEAAJJPEAJ@Z 000000018000d0d4 f   BiometricsImpl.obj
 0001:0000c174       ?ClearInput@COPOSBiometrics@@UEAAJPEAJ@Z 000000018000d174 f   BiometricsImpl.obj
 0001:0000c19c       ?ClearInputProperties@COPOSBiometrics@@UEAAJPEAJ@Z 000000018000d19c f   BiometricsImpl.obj
 0001:0000c1c4       ?Close@COPOSBiometrics@@UEAAJPEAJ@Z 000000018000d1c4 f   BiometricsImpl.obj
 0001:0000c27c       ?CompareFirmwareVersion@COPOSBiometrics@@UEAAJPEA_WPEAJ1@Z 000000018000d27c f   BiometricsImpl.obj
 0001:0000c358       ?DirectIO@COPOSBiometrics@@UEAAJJPEAJPEAPEA_W0@Z 000000018000d358 f   BiometricsImpl.obj
 0001:0000c454       ?DoInvoke@COPOSBiometrics@@IEAAJJPEAVOposVariant@@IHPEAJ_N@Z 000000018000d454 f   BiometricsImpl.obj
 0001:0000c588       ?EndCapture@COPOSBiometrics@@UEAAJPEAJ@Z 000000018000d588 f   BiometricsImpl.obj
 0001:0000c5b0       ?EventInit@COPOSBiometrics@@IEAAJXZ 000000018000d5b0 f i BiometricsImpl.obj
 0001:0000c6f8       ?EventUninit@COPOSBiometrics@@IEAAXXZ 000000018000d6f8 f i BiometricsImpl.obj
 0001:0000c75c       ?EventWindowProc@COPOSBiometrics@@IEAA_JI_K_J@Z 000000018000d75c f i BiometricsImpl.obj
 0001:0000c8d4       ?FinalConstruct@COPOSBiometrics@@QEAAJXZ 000000018000d8d4 f   BiometricsImpl.obj
 0001:0000c910       ?FreezeEvents@COPOSBiometrics@@MEAAJH@Z 000000018000d910 f   BiometricsImpl.obj
 0001:0000c984       ?GetOposProp@COPOSBiometrics@@IEAAJJPEAJJ@Z 000000018000d984 f   BiometricsImpl.obj
 0001:0000caa0       ?GetOposProp@COPOSBiometrics@@IEAAJJPEAPEA_WJ@Z 000000018000daa0 f   BiometricsImpl.obj
 0001:0000cbcc       ?Identify@COPOSBiometrics@@UEAAJJJFUtagVARIANT@@PEAU2@JPEAJ@Z 000000018000dbcc f   BiometricsImpl.obj
 0001:0000cd24       ?IdentifyMatch@COPOSBiometrics@@UEAAJJJFPEA_WUtagVARIANT@@PEAU2@PEAJ@Z 000000018000dd24 f   BiometricsImpl.obj
 0001:0000ce84       ?OnDraw@COPOSBiometrics@@MEAAJAEAUATL_DRAWINFO@@@Z 000000018000de84 f   BiometricsImpl.obj
 0001:0000cf70       ?Open@COPOSBiometrics@@UEAAJPEA_WPEAJ@Z 000000018000df70 f   BiometricsImpl.obj
 0001:0000d7f8       ?ProcessPrematchData@COPOSBiometrics@@UEAAJPEA_W0PEAPEA_WPEAJ@Z 000000018000e7f8 f   BiometricsImpl.obj
 0001:0000d8e4       ?ReleaseDevice@COPOSBiometrics@@UEAAJPEAJ@Z 000000018000e8e4 f   BiometricsImpl.obj
 0001:0000d950       ?ResetStatistics@COPOSBiometrics@@UEAAJPEA_WPEAJ@Z 000000018000e950 f   BiometricsImpl.obj
 0001:0000d9d8       ?RetrieveStatistics@COPOSBiometrics@@UEAAJPEAPEA_WPEAJ@Z 000000018000e9d8 f   BiometricsImpl.obj
 0001:0000da60       ?SOProcessID@COPOSBiometrics@@UEAAJPEAJ@Z 000000018000ea60 f   BiometricsImpl.obj
 0001:0000da7c       ?SetCOFreezeEvents@COPOSBiometrics@@IEAAXF@Z 000000018000ea7c f   BiometricsImpl.obj
 0001:0000db60       ?SetOposProp@COPOSBiometrics@@IEAAJJJJ@Z 000000018000eb60 f   BiometricsImpl.obj
 0001:0000dcc0       ?UpdateFirmware@COPOSBiometrics@@UEAAJPEA_WPEAJ@Z 000000018000ecc0 f   BiometricsImpl.obj
 0001:0000dd48       ?UpdateStatistics@COPOSBiometrics@@UEAAJPEA_WPEAJ@Z 000000018000ed48 f   BiometricsImpl.obj
 0001:0000ddd0       ?Verify@COPOSBiometrics@@UEAAJJJFPEA_WPEAPEA_WPEAFPEAJ31J3@Z 000000018000edd0 f   BiometricsImpl.obj
 0001:0000df8c       ?VerifyMatch@COPOSBiometrics@@UEAAJJJFPEA_W0PEAPEA_WPEAFPEAJ313@Z 000000018000ef8c f   BiometricsImpl.obj
 0001:0000e158       ?get_Algorithm@COPOSBiometrics@@UEAAJPEAJ@Z 000000018000f158 f   BiometricsImpl.obj
 0001:0000e16c       ?get_AlgorithmList@COPOSBiometrics@@UEAAJPEAPEA_W@Z 000000018000f16c f   BiometricsImpl.obj
 0001:0000e180       ?get_AutoDisable@COPOSBiometrics@@UEAAJPEAF@Z 000000018000f180 f   BiometricsImpl.obj
 0001:0000e1b0       ?get_BIR@COPOSBiometrics@@UEAAJPEAPEA_W@Z 000000018000f1b0 f   BiometricsImpl.obj
 0001:0000e1c4       ?get_BinaryConversion@COPOSBiometrics@@UEAAJPEAJ@Z 000000018000f1c4 f   BiometricsImpl.obj
 0001:0000e1d8       ?get_CapCompareFirmwareVersion@COPOSBiometrics@@UEAAJPEAF@Z 000000018000f1d8 f   BiometricsImpl.obj
 0001:0000e20c       ?get_CapPowerReporting@COPOSBiometrics@@UEAAJPEAJ@Z 000000018000f20c f   BiometricsImpl.obj
 0001:0000e220       ?get_CapPrematchData@COPOSBiometrics@@UEAAJPEAF@Z 000000018000f220 f   BiometricsImpl.obj
 0001:0000e254       ?get_CapRawSensorData@COPOSBiometrics@@UEAAJPEAF@Z 000000018000f254 f   BiometricsImpl.obj
 0001:0000e288       ?get_CapRealTimeData@COPOSBiometrics@@UEAAJPEAF@Z 000000018000f288 f   BiometricsImpl.obj
 0001:0000e2bc       ?get_CapSensorColor@COPOSBiometrics@@UEAAJPEAJ@Z 000000018000f2bc f   BiometricsImpl.obj
 0001:0000e2d0       ?get_CapSensorOrientation@COPOSBiometrics@@UEAAJPEAJ@Z 000000018000f2d0 f   BiometricsImpl.obj
 0001:0000e2e4       ?get_CapSensorType@COPOSBiometrics@@UEAAJPEAJ@Z 000000018000f2e4 f   BiometricsImpl.obj
 0001:0000e2f8       ?get_CapStatisticsReporting@COPOSBiometrics@@UEAAJPEAF@Z 000000018000f2f8 f   BiometricsImpl.obj
 0001:0000e32c       ?get_CapTemplateAdaptation@COPOSBiometrics@@UEAAJPEAF@Z 000000018000f32c f   BiometricsImpl.obj
 0001:0000e360       ?get_CapUpdateFirmware@COPOSBiometrics@@UEAAJPEAF@Z 000000018000f360 f   BiometricsImpl.obj
 0001:0000e394       ?get_CapUpdateStatistics@COPOSBiometrics@@UEAAJPEAF@Z 000000018000f394 f   BiometricsImpl.obj
 0001:0000e3c8       ?get_CheckHealthText@COPOSBiometrics@@UEAAJPEAPEA_W@Z 000000018000f3c8 f   BiometricsImpl.obj
 0001:0000e3dc       ?get_Claimed@COPOSBiometrics@@UEAAJPEAF@Z 000000018000f3dc f   BiometricsImpl.obj
 0001:0000e410       ?get_ControlObjectDescription@COPOSBiometrics@@UEAAJPEAPEA_W@Z 000000018000f410 f   BiometricsImpl.obj
 0001:0000e474       ?get_ControlObjectVersion@COPOSBiometrics@@UEAAJPEAJ@Z 000000018000f474 f   BiometricsImpl.obj
 0001:0000e480       ?get_DataCount@COPOSBiometrics@@UEAAJPEAJ@Z 000000018000f480 f   BiometricsImpl.obj
 0001:0000e494       ?get_DataEventEnabled@COPOSBiometrics@@UEAAJPEAF@Z 000000018000f494 f   BiometricsImpl.obj
 0001:0000e4c8       ?get_DeviceDescription@COPOSBiometrics@@UEAAJPEAPEA_W@Z 000000018000f4c8 f   BiometricsImpl.obj
 0001:0000e4dc       ?get_DeviceEnabled@COPOSBiometrics@@UEAAJPEAF@Z 000000018000f4dc f   BiometricsImpl.obj
 0001:0000e510       ?get_DeviceName@COPOSBiometrics@@UEAAJPEAPEA_W@Z 000000018000f510 f   BiometricsImpl.obj
 0001:0000e524       ?get_FreezeEvents@COPOSBiometrics@@UEAAJPEAF@Z 000000018000f524 f   BiometricsImpl.obj
 0001:0000e554       ?get_OpenResult@COPOSBiometrics@@UEAAJPEAJ@Z 000000018000f554 f   BiometricsImpl.obj
 0001:0000e560       ?get_PowerNotify@COPOSBiometrics@@UEAAJPEAJ@Z 000000018000f560 f   BiometricsImpl.obj
 0001:0000e574       ?get_PowerState@COPOSBiometrics@@UEAAJPEAJ@Z 000000018000f574 f   BiometricsImpl.obj
 0001:0000e588       ?get_RawSensorData@COPOSBiometrics@@UEAAJPEAPEA_W@Z 000000018000f588 f   BiometricsImpl.obj
 0001:0000e59c       ?get_RealTimeDataEnabled@COPOSBiometrics@@UEAAJPEAF@Z 000000018000f59c f   BiometricsImpl.obj
 0001:0000e5d0       ?get_ResultCode@COPOSBiometrics@@UEAAJPEAJ@Z 000000018000f5d0 f   BiometricsImpl.obj
 0001:0000e60c       ?get_ResultCodeExtended@COPOSBiometrics@@UEAAJPEAJ@Z 000000018000f60c f   BiometricsImpl.obj
 0001:0000e620       ?get_SensorBPP@COPOSBiometrics@@UEAAJPEAJ@Z 000000018000f620 f   BiometricsImpl.obj
 0001:0000e634       ?get_SensorColor@COPOSBiometrics@@UEAAJPEAJ@Z 000000018000f634 f   BiometricsImpl.obj
 0001:0000e648       ?get_SensorHeight@COPOSBiometrics@@UEAAJPEAJ@Z 000000018000f648 f   BiometricsImpl.obj
 0001:0000e65c       ?get_SensorOrientation@COPOSBiometrics@@UEAAJPEAJ@Z 000000018000f65c f   BiometricsImpl.obj
 0001:0000e670       ?get_SensorType@COPOSBiometrics@@UEAAJPEAJ@Z 000000018000f670 f   BiometricsImpl.obj
 0001:0000e684       ?get_SensorWidth@COPOSBiometrics@@UEAAJPEAJ@Z 000000018000f684 f   BiometricsImpl.obj
 0001:0000e698       ?get_ServiceObjectDescription@COPOSBiometrics@@UEAAJPEAPEA_W@Z 000000018000f698 f   BiometricsImpl.obj
 0001:0000e6ac       ?get_ServiceObjectVersion@COPOSBiometrics@@UEAAJPEAJ@Z 000000018000f6ac f   BiometricsImpl.obj
 0001:0000e6c0       ?get_State@COPOSBiometrics@@UEAAJPEAJ@Z 000000018000f6c0 f   BiometricsImpl.obj
 0001:0000e6ec       ?put_Algorithm@COPOSBiometrics@@UEAAJJ@Z 000000018000f6ec f   BiometricsImpl.obj
 0001:0000e700       ?put_AutoDisable@COPOSBiometrics@@UEAAJF@Z 000000018000f700 f   BiometricsImpl.obj
 0001:0000e718       ?put_BinaryConversion@COPOSBiometrics@@UEAAJJ@Z 000000018000f718 f   BiometricsImpl.obj
 0001:0000e72c       ?put_DataEventEnabled@COPOSBiometrics@@UEAAJF@Z 000000018000f72c f   BiometricsImpl.obj
 0001:0000e744       ?put_DeviceEnabled@COPOSBiometrics@@UEAAJF@Z 000000018000f744 f   BiometricsImpl.obj
 0001:0000e75c       ?put_FreezeEvents@COPOSBiometrics@@UEAAJF@Z 000000018000f75c f   BiometricsImpl.obj
 0001:0000e7ac       ?put_PowerNotify@COPOSBiometrics@@UEAAJJ@Z 000000018000f7ac f   BiometricsImpl.obj
 0001:0000e7c0       ?put_RealTimeDataEnabled@COPOSBiometrics@@UEAAJF@Z 000000018000f7c0 f   BiometricsImpl.obj
 0001:0000e7dc       ?put_SensorColor@COPOSBiometrics@@UEAAJJ@Z 000000018000f7dc f   BiometricsImpl.obj
 0001:0000e7f0       ?put_SensorOrientation@COPOSBiometrics@@UEAAJJ@Z 000000018000f7f0 f   BiometricsImpl.obj
 0001:0000e804       ?put_SensorType@COPOSBiometrics@@UEAAJJ@Z 000000018000f804 f   BiometricsImpl.obj
 0001:0000e818       ?s_EventWindowProc@COPOSBiometrics@@KA_JPEAUHWND__@@I_K_J@Z 000000018000f818 f i BiometricsImpl.obj
 0001:0000e894       ??_U@YAPEAX_K@Z            000000018000f894 f   LIBCMT:new_array.obj
 0001:0000e89c       ??_V@YAXPEAX@Z             000000018000f89c f   LIBCMT:delete_array.obj
 0001:0000e89c       ??3@YAXPEAX_K@Z            000000018000f89c f   LIBCMT:delete_scalar_size.obj
 0001:0000e8a4       ??_V@YAXPEAX_K@Z           000000018000f8a4 f   LIBCMT:delete_array_size.obj
 0001:0000e8ac       __scrt_acquire_startup_lock 000000018000f8ac f   LIBCMT:utility.obj
 0001:0000e8e8       __scrt_dllmain_after_initialize_c 000000018000f8e8 f   LIBCMT:utility.obj
 0001:0000e91c       __scrt_dllmain_before_initialize_c 000000018000f91c f   LIBCMT:utility.obj
 0001:0000e934       __scrt_dllmain_crt_thread_attach 000000018000f934 f   LIBCMT:utility.obj
 0001:0000e95c       __scrt_dllmain_crt_thread_detach 000000018000f95c f   LIBCMT:utility.obj
 0001:0000e974       __scrt_dllmain_exception_filter 000000018000f974 f   LIBCMT:utility.obj
 0001:0000e9d4       __scrt_dllmain_uninitialize_c 000000018000f9d4 f   LIBCMT:utility.obj
 0001:0000ea04       __scrt_dllmain_uninitialize_critical 000000018000fa04 f   LIBCMT:utility.obj
 0001:0000ea18       __scrt_initialize_crt      000000018000fa18 f   LIBCMT:utility.obj
 0001:0000ea64       __scrt_initialize_onexit_tables 000000018000fa64 f   LIBCMT:utility.obj
 0001:0000eaf0       __scrt_is_nonwritable_in_current_image 000000018000faf0 f   LIBCMT:utility.obj
 0001:0000eb88       __scrt_release_startup_lock 000000018000fb88 f   LIBCMT:utility.obj
 0001:0000ebac       __scrt_uninitialize_crt    000000018000fbac f   LIBCMT:utility.obj
 0001:0000ebd8       _onexit                    000000018000fbd8 f   LIBCMT:utility.obj
 0001:0000ec14       atexit                     000000018000fc14 f   LIBCMT:utility.obj
 0001:0000ec2c       ??3@YAXPEAX@Z              000000018000fc2c f   LIBCMT:delete_scalar.obj
 0001:0000ed2c       _Init_thread_footer        000000018000fd2c f   LIBCMT:thread_safe_statics.obj
 0001:0000ed8c       _Init_thread_header        000000018000fd8c f   LIBCMT:thread_safe_statics.obj
 0001:0000edf4       _Init_thread_notify        000000018000fdf4 f   LIBCMT:thread_safe_statics.obj
 0001:0000ee38       _Init_thread_wait          000000018000fe38 f   LIBCMT:thread_safe_statics.obj
 0001:0000ee9c       __raise_securityfailure    000000018000fe9c f   LIBCMT:gs_report.obj
 0001:0000eed0       __report_gsfailure         000000018000fed0 f   LIBCMT:gs_report.obj
 0001:0000efa4       __report_rangecheckfailure 000000018000ffa4 f   LIBCMT:gs_report.obj
 0001:0000efb8       __report_securityfailure   000000018000ffb8 f   LIBCMT:gs_report.obj
 0001:0000f138       ??2@YAPEAX_KAEBUnothrow_t@std@@@Z 0000000180010138 f   LIBCMT:new_scalar_nothrow.obj
 0001:0000f14c       ??_U@YAPEAX_KAEBUnothrow_t@std@@@Z 000000018001014c f   LIBCMT:new_array_nothrow.obj
 0001:0000f154       __GSHandlerCheck           0000000180010154 f   LIBCMT:gshandler.obj
 0001:0000f174       __GSHandlerCheckCommon     0000000180010174 f   LIBCMT:gshandler.obj
 0001:0000f1d0       __GSHandlerCheck_SEH       00000001800101d0 f   LIBCMT:gshandlerseh.obj
 0001:0000f270       __chkstk                   0000000180010270 f   LIBCMT:chkstk.obj
 0001:0000f270       _alloca_probe              0000000180010270 f   LIBCMT:chkstk.obj
 0001:0000f2e0       __security_check_cookie    00000001800102e0 f   LIBCMT:amdsecgs.obj
 0001:0000f624       _DllMainCRTStartup         0000000180010624 f   LIBCMT:dll_dllmain.obj
 0001:0000f664       ??2@YAPEAX_K@Z             0000000180010664 f   LIBCMT:new_scalar.obj
 0001:0000f6a0       __isa_available_init       00000001800106a0 f   LIBCMT:cpu_disp.obj
 0001:0000f844       __scrt_is_ucrt_dll_in_use  0000000180010844 f   LIBCMT:ucrt_detection.obj
 0001:0000f850       __crt_debugger_hook        0000000180010850 f   LIBCMT:utility_desktop.obj
 0001:0000f858       __scrt_fastfail            0000000180010858 f   LIBCMT:utility_desktop.obj
 0001:0000f9a4       __security_init_cookie     00000001800109a4 f   LIBCMT:gs_support.obj
 0001:0000fa50       ?__scrt_initialize_type_info@@YAXXZ 0000000180010a50 f   LIBCMT:tncleanup.obj
 0001:0000fa60       ?__scrt_uninitialize_type_info@@YAXXZ 0000000180010a60 f   LIBCMT:tncleanup.obj
 0001:0000fa6c       __local_stdio_scanf_options 0000000180010a6c f i LIBCMT:default_local_stdio_options.obj
 0001:0000fa74       __scrt_initialize_default_local_stdio_options 0000000180010a74 f   LIBCMT:default_local_stdio_options.obj
 0001:0000fa90       __scrt_get_dyn_tls_init_callback 0000000180010a90 f   LIBCMT:dyn_tls_init.obj
 0001:0000fa98       _RTC_Initialize            0000000180010a98 f   LIBCMT:initsect.obj
 0001:0000fad4       _RTC_Terminate             0000000180010ad4 f   LIBCMT:initsect.obj
 0001:0000fb10       ??0bad_alloc@std@@QEAA@AEBV01@@Z 0000000180010b10 f i LIBCMT:throw_bad_alloc.obj
 0001:0000fb4c       ??0bad_alloc@std@@QEAA@XZ  0000000180010b4c f i LIBCMT:throw_bad_alloc.obj
 0001:0000fb6c       ??0bad_array_new_length@std@@QEAA@AEBV01@@Z 0000000180010b6c f i LIBCMT:throw_bad_alloc.obj
 0001:0000fba8       ??0bad_array_new_length@std@@QEAA@XZ 0000000180010ba8 f i LIBCMT:throw_bad_alloc.obj
 0001:0000fbc8       ??0exception@std@@QEAA@AEBV01@@Z 0000000180010bc8 f i LIBCMT:throw_bad_alloc.obj
 0001:0000fbfc       ??1bad_exception@std@@UEAA@XZ 0000000180010bfc f i libvcruntime:frame.obj
 0001:0000fbfc       ??1bad_array_new_length@std@@UEAA@XZ 0000000180010bfc f i LIBCMT:throw_bad_alloc.obj
 0001:0000fbfc       ??1bad_alloc@std@@UEAA@XZ  0000000180010bfc f i LIBCMT:throw_bad_alloc.obj
 0001:0000fc10       ??_Gbad_alloc@std@@UEAAPEAXI@Z 0000000180010c10 f i LIBCMT:throw_bad_alloc.obj
 0001:0000fc10       ??_Ebad_alloc@std@@UEAAPEAXI@Z 0000000180010c10 f i LIBCMT:throw_bad_alloc.obj
 0001:0000fc10       ??_Gbad_array_new_length@std@@UEAAPEAXI@Z 0000000180010c10 f i LIBCMT:throw_bad_alloc.obj
 0001:0000fc10       ??_Gbad_exception@std@@UEAAPEAXI@Z 0000000180010c10 f i libvcruntime:frame.obj
 0001:0000fc10       ??_Eexception@std@@UEAAPEAXI@Z 0000000180010c10 f i LIBCMT:throw_bad_alloc.obj
 0001:0000fc10       ??_Ebad_exception@std@@UEAAPEAXI@Z 0000000180010c10 f i libvcruntime:frame.obj
 0001:0000fc10       ??_Ebad_array_new_length@std@@UEAAPEAXI@Z 0000000180010c10 f i LIBCMT:throw_bad_alloc.obj
 0001:0000fc10       ??_Gexception@std@@UEAAPEAXI@Z 0000000180010c10 f i LIBCMT:throw_bad_alloc.obj
 0001:0000fc54       ?__scrt_throw_std_bad_alloc@@YAXXZ 0000000180010c54 f   LIBCMT:throw_bad_alloc.obj
 0001:0000fc74       ?__scrt_throw_std_bad_array_new_length@@YAXXZ 0000000180010c74 f   LIBCMT:throw_bad_alloc.obj
 0001:0000fc94       ?what@exception@std@@UEBAPEBDXZ 0000000180010c94 f i LIBCMT:throw_bad_alloc.obj
 0001:0000fcb0       ??_Etype_info@@UEAAPEAXI@Z 0000000180010cb0 f i LIBCMT:std_type_info_static.obj
 0001:0000fcb0       ??_Gtype_info@@UEAAPEAXI@Z 0000000180010cb0 f i LIBCMT:std_type_info_static.obj
 0001:0000fcdc       ??0CAtlBaseModule@ATL@@QEAA@XZ 0000000180010cdc f   atls:atlbase.obj
 0001:0000fd84       ??1CAtlBaseModule@ATL@@QEAA@XZ 0000000180010d84 f   atls:atlbase.obj
 0001:0000feb8       ?__AllocStdCallThunk_cmn@@YAPEAXXZ 0000000180010eb8 f   atls:atlthunk.obj
 0001:00010010       AtlThunk_AllocateData      0000000180011010 f   atls:atlthunk.obj
 0001:0001008c       AtlThunk_DataToCode        000000018001108c f   atls:atlthunk.obj
 0001:000100e0       AtlThunk_FreeData          00000001800110e0 f   atls:atlthunk.obj
 0001:00010140       AtlThunk_InitData          0000000180011140 f   atls:atlthunk.obj
 0001:000101e8       _get_purecall_handler      00000001800111e8 f   libvcruntime:purevirt.obj
 0001:000101f0       _purecall                  00000001800111f0 f   libvcruntime:purevirt.obj
 0001:0001020c       wcsstr                     000000018001120c f   libvcruntime:wcsstr.obj
 0001:00010440       memcmp                     0000000180011440 f   libvcruntime:memcmp.obj
 0001:00010520       memcpy_repmovs             0000000180011520 f   libvcruntime:memcpy.obj
 0001:00010540       memmove                    0000000180011540 f   libvcruntime:memcpy.obj
 0001:00010540       memcpy                     0000000180011540 f   libvcruntime:memcpy.obj
 0001:00010930       memset_repmovs             0000000180011930 f   libvcruntime:memset.obj
 0001:00010950       memset                     0000000180011950 f   libvcruntime:memset.obj
 0001:00010ae0       __vcrt_initialize          0000000180011ae0 f   libvcruntime:initialization.obj
 0001:00010b08       __vcrt_thread_attach       0000000180011b08 f   libvcruntime:initialization.obj
 0001:00010b1c       __vcrt_thread_detach       0000000180011b1c f   libvcruntime:initialization.obj
 0001:00010b30       __vcrt_uninitialize        0000000180011b30 f   libvcruntime:initialization.obj
 0001:00010b4c       __vcrt_uninitialize_critical 0000000180011b4c f   libvcruntime:initialization.obj
 0001:00010b5c       __C_specific_handler       0000000180011b5c f   libvcruntime:riscchandler.obj
 0001:00010d68       ??$_CallSETranslator@V__FrameHandler4@@@@YAHPEAUEHExceptionRecord@@PEA_KPEAU_CONTEXT@@PEAU_xDISPATCHER_CONTEXT@@PEAUFuncInfo4@FH4@@K1H@Z 0000000180011d68 f i libvcruntime:risctrnsctrl.obj
 0001:00010dbc       ?DecompFuncInfo@FH4@@YA_JPEAEAEAUFuncInfo4@1@_KH_N@Z 0000000180011dbc f i libvcruntime:risctrnsctrl.obj
 0001:00010ee0       ?ExecutionInCatch@__FrameHandler4@@SA_NPEAU_xDISPATCHER_CONTEXT@@PEAUFuncInfo4@FH4@@@Z 0000000180011ee0 f   libvcruntime:risctrnsctrl.obj
 0001:00010ee8       ?FrameUnwindToEmptyState@__FrameHandler4@@SAXPEA_KPEAU_xDISPATCHER_CONTEXT@@PEAUFuncInfo4@FH4@@@Z 0000000180011ee8 f   libvcruntime:risctrnsctrl.obj
 0001:00010f1c       ?GetEstablisherFrame@__FrameHandler4@@SAPEA_KPEA_KPEAU_xDISPATCHER_CONTEXT@@PEAUFuncInfo4@FH4@@0@Z 0000000180011f1c f   libvcruntime:risctrnsctrl.obj
 0001:00010f40       ?GetRangeOfTrysToCheck@__FrameHandler4@@SA?AU?$pair@Viterator@TryBlockMap4@FH4@@V123@@std@@AEAVTryBlockMap4@FH4@@HPEAU_xDISPATCHER_CONTEXT@@PEAUFuncInfo4@5@H@Z 0000000180011f40 f   libvcruntime:risctrnsctrl.obj
 0001:0001109c       ?UnwindNestedFrames@__FrameHandler4@@SAXPEA_KPEAUEHExceptionRecord@@PEAU_CONTEXT@@0PEAXPEAUFuncInfo4@FH4@@HHPEAUHandlerType4@5@PEAU_xDISPATCHER_CONTEXT@@E@Z 000000018001209c f   libvcruntime:risctrnsctrl.obj
 0001:000111bc       ?setBuffer@TryBlockMap4@FH4@@QEAAXViterator@12@@Z 00000001800121bc f i libvcruntime:risctrnsctrl.obj
 0001:00011380       _CreateFrameInfo           0000000180012380 f   libvcruntime:risctrnsctrl.obj
 0001:000113bc       _FindAndUnlinkFrame        00000001800123bc f   libvcruntime:risctrnsctrl.obj
 0001:00011410       _GetImageBase              0000000180012410 f   libvcruntime:risctrnsctrl.obj
 0001:00011424       _GetThrowImageBase         0000000180012424 f   libvcruntime:risctrnsctrl.obj
 0001:00011438       _SetImageBase              0000000180012438 f   libvcruntime:risctrnsctrl.obj
 0001:00011450       _SetThrowImageBase         0000000180012450 f   libvcruntime:risctrnsctrl.obj
 0001:00011468       __CxxFrameHandler4         0000000180012468 f   libvcruntime:risctrnsctrl.obj
 0001:00011528       __DestructExceptionObject  0000000180012528 f   libvcruntime:ehhelpers.obj
 0001:00011598       ?_CallMemberFunction0@@YAXQEAX0@Z 0000000180012598 f i libvcruntime:ehhelpers.obj
 0001:0001159c       _IsExceptionObjectToBeDestroyed 000000018001259c f   libvcruntime:ehhelpers.obj
 0001:000115cc       __AdjustPointer            00000001800125cc f   libvcruntime:ehhelpers.obj
 0001:000115f0       __FrameUnwindFilter        00000001800125f0 f   libvcruntime:ehhelpers.obj
 0001:00011658       __std_type_info_compare    0000000180012658 f   libvcruntime:std_type_info.obj
 0001:00011680       __std_type_info_destroy_list 0000000180012680 f   libvcruntime:std_type_info.obj
 0001:000116ac       __std_exception_copy       00000001800126ac f   libvcruntime:std_exception.obj
 0001:0001173c       __std_exception_destroy    000000018001273c f   libvcruntime:std_exception.obj
 0001:00011764       _CxxThrowException         0000000180012764 f   libvcruntime:throw.obj
 0001:00011804       __vcrt_freefls             0000000180012804 f   libvcruntime:per_thread_data.obj
 0001:00011824       __vcrt_freeptd             0000000180012824 f   libvcruntime:per_thread_data.obj
 0001:00011874       __vcrt_getptd              0000000180012874 f   libvcruntime:per_thread_data.obj
 0001:00011890       __vcrt_getptd_noexit       0000000180012890 f   libvcruntime:per_thread_data.obj
 0001:00011950       __vcrt_initialize_ptd      0000000180012950 f   libvcruntime:per_thread_data.obj
 0001:00011998       __vcrt_uninitialize_ptd    0000000180012998 f   libvcruntime:per_thread_data.obj
 0001:000119bc       __vcrt_initialize_locks    00000001800129bc f   libvcruntime:locks.obj
 0001:000119f0       __vcrt_uninitialize_locks  00000001800129f0 f   libvcruntime:locks.obj
 0001:00011a40       _NLG_Notify                0000000180012a40 f   libvcruntime:notify.obj
 0001:00011a60       __NLG_Dispatch2            0000000180012a60 f   libvcruntime:notify.obj
 0001:00011a70       __NLG_Return2              0000000180012a70 f   libvcruntime:notify.obj
 0001:00011a74       __except_validate_context_record 0000000180012a74 f   libvcruntime:jbcxrval.obj
 0001:00011aac       ?StateFromControlPc@__FrameHandler4@@SAHPEAUFuncInfo4@FH4@@PEAU_xDISPATCHER_CONTEXT@@@Z 0000000180012aac f   libvcruntime:ehstate.obj
 0001:00011ab4       ?StateFromIp@__FrameHandler4@@SAHPEAUFuncInfo4@FH4@@PEAU_xDISPATCHER_CONTEXT@@_K@Z 0000000180012ab4 f   libvcruntime:ehstate.obj
 0001:00012738       ??$TypeMatchHelper@V__FrameHandler3@@@@YAHPEBU_s_HandlerType@@PEBU_s_CatchableType@@PEBU_s_ThrowInfo@@@Z 0000000180013738 f i libvcruntime:frame.obj
 0001:00012878       ??$TypeMatchHelper@V__FrameHandler4@@@@YAHPEAUHandlerType4@FH4@@PEBU_s_CatchableType@@PEBU_s_ThrowInfo@@@Z 0000000180013878 f i libvcruntime:frame.obj
 0001:000129bc       ??$__InternalCxxFrameHandler@V__FrameHandler4@@@@YA?AW4_EXCEPTION_DISPOSITION@@PEAUEHExceptionRecord@@PEA_KPEAU_CONTEXT@@PEAU_xDISPATCHER_CONTEXT@@PEAUFuncInfo4@FH4@@H1E@Z 00000001800139bc f i libvcruntime:frame.obj
 0001:00012c50       ??0HandlerMap4@FH4@@QEAA@PEBUTryBlockMapEntry4@1@_KH@Z 0000000180013c50 f i libvcruntime:frame.obj
 0001:00012ccc       ??0TryBlockMap4@FH4@@QEAA@PEBUFuncInfo4@1@_K@Z 0000000180013ccc f i libvcruntime:frame.obj
 0001:00012da4       ??0bad_exception@std@@QEAA@AEBV01@@Z 0000000180013da4 f i libvcruntime:frame.obj
 0001:00012de0       ??0bad_exception@std@@QEAA@XZ 0000000180013de0 f i libvcruntime:frame.obj
 0001:00012e00       ?CxxCallCatchBlock@__FrameHandler4@@SAPEAXPEAU_EXCEPTION_RECORD@@@Z 0000000180013e00 f   libvcruntime:frame.obj
 0001:00013050       ?DecompHandler@HandlerMap4@FH4@@AEAAXXZ 0000000180014050 f i libvcruntime:frame.obj
 0001:00013290       ?FrameUnwindToState@__FrameHandler4@@SAXPEA_KPEAU_xDISPATCHER_CONTEXT@@PEAUFuncInfo4@FH4@@H@Z 0000000180014290 f   libvcruntime:frame.obj
 0001:000136ec       ?ReadEntry@UWMap4@FH4@@AEAAXPEAPEAE@Z 00000001800146ec f i libvcruntime:frame.obj
 0001:0001378c       ?_CallMemberFunction1@@YAXQEAX00@Z 000000018001478c f i libvcruntime:frame.obj
 0001:00013798       ?_CallMemberFunction2@@YAXQEAX00H@Z 0000000180014798 f i libvcruntime:frame.obj
 0001:000137a8       ?getStartStop@UWMap4@FH4@@QEAAXHHAEAViterator@12@0@Z 00000001800147a8 f i libvcruntime:frame.obj
 0001:00013878       ?getStateFromIterators@UWMap4@FH4@@SAHAEBViterator@12@H0H0@Z 0000000180014878 f i libvcruntime:frame.obj
 0001:00013a8c       __vcrt_FlsAlloc            0000000180014a8c f   libvcruntime:winapi_downlevel.obj
 0001:00013ad4       __vcrt_FlsFree             0000000180014ad4 f   libvcruntime:winapi_downlevel.obj
 0001:00013b1c       __vcrt_FlsGetValue         0000000180014b1c f   libvcruntime:winapi_downlevel.obj
 0001:00013b64       __vcrt_FlsSetValue         0000000180014b64 f   libvcruntime:winapi_downlevel.obj
 0001:00013bb8       __vcrt_InitializeCriticalSectionEx 0000000180014bb8 f   libvcruntime:winapi_downlevel.obj
 0001:00013c30       _CallSettingFrame          0000000180014c30 f   libvcruntime:handlers.obj
 0001:00013c80       _CallSettingFrame_LookupContinuationIndex 0000000180014c80 f   libvcruntime:handlers.obj
 0001:00013cb0       _CallSettingFrame_NotifyContinuationAddr 0000000180014cb0 f   libvcruntime:handlers.obj
 0001:00013ce0       _CallSettingFrameEncoded   0000000180014ce0 f   libvcruntime:handlers.obj
 0001:00013d28       free                       0000000180014d28 f   libucrt:free.obj
 0001:00013d3c       __acrt_call_reportfault    0000000180014d3c f   libucrt:invalid_parameter.obj
 0001:00013e98       __acrt_initialize_invalid_parameter_handler 0000000180014e98 f   libucrt:invalid_parameter.obj
 0001:00013ea0       _invalid_parameter         0000000180014ea0 f   libucrt:invalid_parameter.obj
 0001:00013f50       _invalid_parameter_noinfo  0000000180014f50 f   libucrt:invalid_parameter.obj
 0001:00013f70       _invoke_watson             0000000180014f70 f   libucrt:invalid_parameter.obj
 0001:00013fb8       __acrt_errno_from_os_error 0000000180014fb8 f   libucrt:errno.obj
 0001:00014000       __acrt_errno_map_os_error  0000000180015000 f   libucrt:errno.obj
 0001:00014050       __doserrno                 0000000180015050 f   libucrt:errno.obj
 0001:00014070       _errno                     0000000180015070 f   libucrt:errno.obj
 0001:00014090       calloc                     0000000180015090 f   libucrt:calloc.obj
 0001:00014098       malloc                     0000000180015098 f   libucrt:malloc.obj
 0001:000140a0       _recalloc                  00000001800150a0 f   libucrt:recalloc.obj
 0001:000140a8       _recalloc_base             00000001800150a8 f   libucrt:recalloc.obj
 0001:00014140       _resetstkoflw              0000000180015140 f   libucrt:resetstk.obj
 0001:0001426c       wcscat_s                   000000018001526c f   libucrt:wcscat_s.obj
 0001:000142ec       wcscpy_s                   00000001800152ec f   libucrt:wcscpy_s.obj
 0001:00014354       wcsncpy_s                  0000000180015354 f   libucrt:wcsncpy_s.obj
 0001:0001460c       ??$ensure_buffer_is_big_enough@D@formatting_buffer@__crt_stdio_output@@QEAA_N_K@Z 000000018001560c f i libucrt:output.obj
 0001:000146b4       ??$ensure_buffer_is_big_enough@_W@formatting_buffer@__crt_stdio_output@@QEAA_N_K@Z 00000001800156b4 f i libucrt:output.obj
 0001:00014760       ??$is_wide_character_specifier@_W@__crt_stdio_output@@YA_N_K_WW4length_modifier@0@@Z 0000000180015760 f i libucrt:output.obj
 0001:000147a0       ??$type_case_integer_parse_into_buffer@I@?$output_processor@_WV?$string_output_adapter@_W@__crt_stdio_output@@V?$format_validation_base@_WV?$string_output_adapter@_W@__crt_stdio_output@@@2@@__crt_stdio_output@@AEAAXII_N@Z 00000001800157a0 f i libucrt:output.obj
 0001:00014844       ??$type_case_integer_parse_into_buffer@_K@?$output_processor@_WV?$string_output_adapter@_W@__crt_stdio_output@@V?$format_validation_base@_WV?$string_output_adapter@_W@__crt_stdio_output@@@2@@__crt_stdio_output@@AEAAX_KI_N@Z 0000000180015844 f i libucrt:output.obj
 0001:000148e8       ??$write_multiple_characters@V?$string_output_adapter@_W@__crt_stdio_output@@D@__crt_stdio_output@@YAXAEBV?$string_output_adapter@_W@0@DHQEAH@Z 00000001800158e8 f i libucrt:output.obj
 0001:00014960       ??0_LocaleUpdate@@QEAA@QEAU__crt_locale_pointers@@@Z 0000000180015960 f i libucrt:output.obj
 0001:00014a00       ?crop_zeroes@__crt_stdio_output@@YAXPEADQEAU__crt_locale_pointers@@@Z 0000000180015a00 f i libucrt:output.obj
 0001:00014aa0       ?force_decimal_point@__crt_stdio_output@@YAXPEADQEAU__crt_locale_pointers@@@Z 0000000180015aa0 f i libucrt:output.obj
 0001:00014b18       ?parse_int_from_format_string@?$output_processor@_WV?$string_output_adapter@_W@__crt_stdio_output@@V?$format_validation_base@_WV?$string_output_adapter@_W@__crt_stdio_output@@@2@@__crt_stdio_output@@AEAA_NQEAH@Z 0000000180015b18 f i libucrt:output.obj
 0001:00014bbc       ?process@?$output_processor@_WV?$string_output_adapter@_W@__crt_stdio_output@@V?$format_validation_base@_WV?$string_output_adapter@_W@__crt_stdio_output@@@2@@__crt_stdio_output@@QEAAHXZ 0000000180015bbc f i libucrt:output.obj
 0001:00014e34       ?state_case_size@?$output_processor@_WV?$string_output_adapter@_W@__crt_stdio_output@@V?$format_validation_base@_WV?$string_output_adapter@_W@__crt_stdio_output@@@2@@__crt_stdio_output@@AEAA_NXZ 0000000180015e34 f i libucrt:output.obj
 0001:00014fc8       ?state_case_type@?$output_processor@_WV?$string_output_adapter@_W@__crt_stdio_output@@V?$format_validation_base@_WV?$string_output_adapter@_W@__crt_stdio_output@@@2@@__crt_stdio_output@@AEAA_NXZ 0000000180015fc8 f i libucrt:output.obj
 0001:000152a0       ?to_integer_size@__crt_stdio_output@@YA_KW4length_modifier@1@@Z 00000001800162a0 f i libucrt:output.obj
 0001:00015308       ?type_case_Z@?$output_processor@_WV?$string_output_adapter@_W@__crt_stdio_output@@V?$format_validation_base@_WV?$string_output_adapter@_W@__crt_stdio_output@@@2@@__crt_stdio_output@@AEAA_NXZ 0000000180016308 f i libucrt:output.obj
 0001:00015384       ?type_case_a@?$output_processor@_WV?$string_output_adapter@_W@__crt_stdio_output@@V?$format_validation_base@_WV?$string_output_adapter@_W@__crt_stdio_output@@@2@@__crt_stdio_output@@AEAA_NXZ 0000000180016384 f i libucrt:output.obj
 0001:00015564       ?type_case_c_tchar@?$output_processor@_WV?$string_output_adapter@_W@__crt_stdio_output@@V?$format_validation_base@_WV?$string_output_adapter@_W@__crt_stdio_output@@@2@@__crt_stdio_output@@AEAA_N_W@Z 0000000180016564 f i libucrt:output.obj
 0001:0001560c       ?type_case_integer@?$output_processor@_WV?$string_output_adapter@_W@__crt_stdio_output@@V?$format_validation_base@_WV?$string_output_adapter@_W@__crt_stdio_output@@@2@@__crt_stdio_output@@AEAA_NI_N@Z 000000018001660c f i libucrt:output.obj
 0001:00015794       ?type_case_n@?$output_processor@_WV?$string_output_adapter@_W@__crt_stdio_output@@V?$format_validation_base@_WV?$string_output_adapter@_W@__crt_stdio_output@@@2@@__crt_stdio_output@@AEAA_NXZ 0000000180016794 f i libucrt:output.obj
 0001:0001581c       ?type_case_s@?$output_processor@_WV?$string_output_adapter@_W@__crt_stdio_output@@V?$format_validation_base@_WV?$string_output_adapter@_W@__crt_stdio_output@@@2@@__crt_stdio_output@@AEAA_NXZ 000000018001681c f i libucrt:output.obj
 0001:000158e4       ?write_stored_string_tchar@?$output_processor@_WV?$string_output_adapter@_W@__crt_stdio_output@@V?$format_validation_base@_WV?$string_output_adapter@_W@__crt_stdio_output@@@2@@__crt_stdio_output@@AEAA_N_W@Z 00000001800168e4 f i libucrt:output.obj
 0001:000159cc       ?write_string@?$string_output_adapter@_W@__crt_stdio_output@@QEBAXQEB_WHQEAHAEAV__crt_deferred_errno_cache@@@Z 00000001800169cc f i libucrt:output.obj
 0001:00015a74       __stdio_common_vswprintf_s 0000000180016a74 f   libucrt:output.obj
 0001:00015ae4       _seh_filter_dll            0000000180016ae4 f   libucrt:exception_filter.obj
 0001:00015af8       _seh_filter_exe            0000000180016af8 f   libucrt:exception_filter.obj
 0001:00015ee8       __acrt_initialize_thread_local_exit_callback 0000000180016ee8 f   libucrt:exit.obj
 0001:00015ef0       _cexit                     0000000180016ef0 f   libucrt:exit.obj
 0001:00015f00       _exit                      0000000180016f00 f   libucrt:exit.obj
 0001:00015f0c       _is_c_termination_complete 0000000180016f0c f   libucrt:exit.obj
 0001:000160d4       __acrt_allocate_buffer_for_argv 00000001800170d4 f   libucrt:argv_parsing.obj
 0001:00016134       _configure_narrow_argv     0000000180017134 f   libucrt:argv_parsing.obj
 0001:000164ac       __dcrt_uninitialize_environments_nolock 00000001800174ac f   libucrt:environment_initialization.obj
 0001:000164e4       _initialize_narrow_environment 00000001800174e4 f   libucrt:environment_initialization.obj
 0001:0001682c       _crt_atexit                000000018001782c f   libucrt:onexit.obj
 0001:0001683c       _execute_onexit_table      000000018001783c f   libucrt:onexit.obj
 0001:00016878       _initialize_onexit_table   0000000180017878 f   libucrt:onexit.obj
 0001:000168a0       _register_onexit_function  00000001800178a0 f   libucrt:onexit.obj
 0001:00016920       __acrt_uninitialize_command_line 0000000180017920 f   libucrt:argv_data.obj
 0001:00016a18       __acrt_initialize          0000000180017a18 f   libucrt:initialization.obj
 0001:00016a2c       __acrt_thread_attach       0000000180017a2c f   libucrt:initialization.obj
 0001:00016a40       __acrt_thread_detach       0000000180017a40 f   libucrt:initialization.obj
 0001:00016a50       __acrt_uninitialize        0000000180017a50 f   libucrt:initialization.obj
 0001:00016a88       __acrt_uninitialize_critical 0000000180017a88 f   libucrt:initialization.obj
 0001:00016a98       _initterm                  0000000180017a98 f   libucrt:initterm.obj
 0001:00016afc       _initterm_e                0000000180017afc f   libucrt:initterm.obj
 0001:00016b3c       __acrt_initialize_new_handler 0000000180017b3c f   libucrt:new_handler.obj
 0001:00016b44       _callnewh                  0000000180017b44 f   libucrt:new_handler.obj
 0001:00016b74       _query_new_handler         0000000180017b74 f   libucrt:new_handler.obj
 0001:00016ba8       terminate                  0000000180017ba8 f   libucrt:terminate.obj
 0001:00016bc8       abort                      0000000180017bc8 f   libucrt:abort.obj
 0001:00016c20       strcpy_s                   0000000180017c20 f   libucrt:strcpy_s.obj
 0001:00016c80       ??$parse_integer@KV?$c_string_character_source@_W@__crt_strtox@@@__crt_strtox@@YAKQEAU__crt_locale_pointers@@V?$c_string_character_source@_W@0@H_N@Z 0000000180017c80 f i libucrt:atox.obj
 0001:00017340       strncmp                    0000000180018340 f   libucrt:strncmp.obj
 0001:000173c0       wcsncmp                    00000001800183c0 f   libucrt:wcsncmp.obj
 0001:000173ec       _free_base                 00000001800183ec f   libucrt:free_base.obj
 0001:000177a4       __acrt_freeptd             00000001800187a4 f   libucrt:per_thread_data.obj
 0001:000177e8       __acrt_getptd              00000001800187e8 f   libucrt:per_thread_data.obj
 0001:000178bc       __acrt_getptd_head         00000001800188bc f   libucrt:per_thread_data.obj
 0001:00017964       __acrt_getptd_noexit       0000000180018964 f   libucrt:per_thread_data.obj
 0001:00017a30       __acrt_initialize_ptd      0000000180018a30 f   libucrt:per_thread_data.obj
 0001:00017a6c       __acrt_uninitialize_ptd    0000000180018a6c f   libucrt:per_thread_data.obj
 0001:00017a90       _calloc_base               0000000180018a90 f   libucrt:calloc_base.obj
 0001:00017b08       _malloc_base               0000000180018b08 f   libucrt:malloc_base.obj
 0001:00017b68       _msize_base                0000000180018b68 f   libucrt:msize.obj
 0001:00017ba4       _realloc_base              0000000180018ba4 f   libucrt:realloc_base.obj
 0001:00017df8       __acrt_AppPolicyGetProcessTerminationMethodInternal 0000000180018df8 f   libucrt:winapi_thunks.obj
 0001:00017e48       __acrt_AreFileApisANSI     0000000180018e48 f   libucrt:winapi_thunks.obj
 0001:00017e84       __acrt_FlsAlloc            0000000180018e84 f   libucrt:winapi_thunks.obj
 0001:00017ecc       __acrt_FlsFree             0000000180018ecc f   libucrt:winapi_thunks.obj
 0001:00017f14       __acrt_FlsGetValue         0000000180018f14 f   libucrt:winapi_thunks.obj
 0001:00017f5c       __acrt_FlsSetValue         0000000180018f5c f   libucrt:winapi_thunks.obj
 0001:00017fb0       __acrt_InitializeCriticalSectionEx 0000000180018fb0 f   libucrt:winapi_thunks.obj
 0001:00018014       __acrt_LCMapStringEx       0000000180019014 f   libucrt:winapi_thunks.obj
 0001:000180f0       __acrt_LocaleNameToLCID    00000001800190f0 f   libucrt:winapi_thunks.obj
 0001:00018140       __acrt_SetThreadStackGuarantee 0000000180019140 f   libucrt:winapi_thunks.obj
 0001:00018184       __acrt_initialize_winapi_thunks 0000000180019184 f   libucrt:winapi_thunks.obj
 0001:000181b8       __acrt_uninitialize_winapi_thunks 00000001800191b8 f   libucrt:winapi_thunks.obj
 0001:000181fc       wcstol                     00000001800191fc f   libucrt:strtox.obj
 0001:00018228       _mbtowc_l                  0000000180019228 f   libucrt:mbtowc.obj
 0001:000183a8       mbtowc                     00000001800193a8 f   libucrt:mbtowc.obj
 0001:000183b0       wcsnlen                    00000001800193b0 f   libucrt:strnlen.obj
 0001:00018588       __acrt_update_locale_info  0000000180019588 f   libucrt:locale_update.obj
 0001:000185bc       __acrt_update_multibyte_info 00000001800195bc f   libucrt:locale_update.obj
 0001:00018ff4       __acrt_fp_format           0000000180019ff4 f   libucrt:cvt.obj
 0001:0001932c       _fileno                    000000018001a32c f   libucrt:fileno.obj
 0001:00019354       __acrt_initialize_stdio    000000018001a354 f   libucrt:_file.obj
 0001:00019474       __acrt_uninitialize_stdio  000000018001a474 f   libucrt:_file.obj
 0001:000194d0       _lock_file                 000000018001a4d0 f   libucrt:_file.obj
 0001:000194dc       _unlock_file               000000018001a4dc f   libucrt:_file.obj
 0001:000194e8       _get_printf_count_output   000000018001a4e8 f   libucrt:printf_count_output.obj
 0001:00019570       __acrt_set_locale_changed  000000018001a570 f   libucrt:wsetlocale.obj
 0001:0001957c       __acrt_uninitialize_locale 000000018001a57c f   libucrt:wsetlocale.obj
 0001:000197a8       __acrt_initialize_lowio    000000018001a7a8 f   libucrt:ioinit.obj
 0001:000197e4       __acrt_uninitialize_lowio  000000018001a7e4 f   libucrt:ioinit.obj
 0001:00019824       __acrt_initialize_locks    000000018001a824 f   libucrt:locks.obj
 0001:0001986c       __acrt_lock                000000018001a86c f   libucrt:locks.obj
 0001:00019888       __acrt_uninitialize_locks  000000018001a888 f   libucrt:locks.obj
 0001:000198c0       __acrt_unlock              000000018001a8c0 f   libucrt:locks.obj
 0001:000198dc       __acrt_get_process_end_policy 000000018001a8dc f   libucrt:win_policies.obj
 0001:0001992c       ??$__acrt_mbs_to_wcs_cp@U__crt_win32_buffer_internal_dynamic_resizing@@@@YAHQEBDAEAV?$__crt_win32_buffer@_WU__crt_win32_buffer_internal_dynamic_resizing@@@@I@Z 000000018001a92c f i libucrt:argv_wildcards.obj
 0001:00019aa4       ??$__acrt_wcs_to_mbs_cp@U__crt_win32_buffer_internal_dynamic_resizing@@@@YAHQEB_WAEAV?$__crt_win32_buffer@DU__crt_win32_buffer_internal_dynamic_resizing@@@@I@Z 000000018001aaa4 f i libucrt:argv_wildcards.obj
 0001:0001a2d4       __acrt_expand_narrow_argv_wildcards 000000018001b2d4 f   libucrt:argv_wildcards.obj
 0001:0001a2dc       ??$__acrt_wcs_to_mbs_cp@U__crt_win32_buffer_no_resizing@@@@YAHQEB_WAEAV?$__crt_win32_buffer@DU__crt_win32_buffer_no_resizing@@@@I@Z 000000018001b2dc f i libucrt:getmodulefilenamea.obj
 0001:0001a3f0       __acrt_GetModuleFileNameA  000000018001b3f0 f   libucrt:getmodulefilenamea.obj
 0001:0001ac38       __acrt_initialize_multibyte 000000018001bc38 f   libucrt:mbctype.obj
 0001:0001ac98       __acrt_update_thread_multibyte_data 000000018001bc98 f   libucrt:mbctype.obj
 0001:0001acb4       _setmbcp_nolock            000000018001bcb4 f   libucrt:mbctype.obj
 0001:0001afe8       _ismbblead                 000000018001bfe8 f   libucrt:ismbbyte.obj
 0001:0001affc       __acrt_initialize_command_line 000000018001bffc f   libucrt:argv_data.obj
 0001:0001b024       __acrt_MultiByteToWideChar 000000018001c024 f   libucrt:multibytetowidechar.obj
 0001:0001b080       __acrt_WideCharToMultiByte 000000018001c080 f   libucrt:widechartomultibyte.obj
 0001:0001b130       __dcrt_get_narrow_environment_from_os 000000018001c130 f   libucrt:get_environment_from_os.obj
 0001:0001b234       __acrt_initialize_heap     000000018001c234 f   libucrt:heap_handle.obj
 0001:0001b250       __acrt_uninitialize_heap   000000018001c250 f   libucrt:heap_handle.obj
 0001:0001b25c       __acrt_execute_initializers 000000018001c25c f   libucrt:shared_initialization.obj
 0001:0001b2dc       __acrt_execute_uninitializers 000000018001c2dc f   libucrt:shared_initialization.obj
 0001:0001b360       __acrt_get_sigabrt_handler 000000018001c360 f   libucrt:signal.obj
 0001:0001b390       __acrt_initialize_signal_handlers 000000018001c390 f   libucrt:signal.obj
 0001:0001b3b0       raise                      000000018001c3b0 f   libucrt:signal.obj
 0001:0001b61c       __acrt_has_user_matherr    000000018001c61c f   libucrt:matherr.obj
 0001:0001b63c       __acrt_initialize_user_matherr 000000018001c63c f   libucrt:matherr.obj
 0001:0001b644       __acrt_invoke_user_matherr 000000018001c644 f   libucrt:matherr.obj
 0001:0001b850       __acrt_stdio_flush_nolock  000000018001c850 f   libucrt:fflush.obj
 0001:0001b8cc       _fflush_nolock             000000018001c8cc f   libucrt:fflush.obj
 0001:0001b918       _flushall                  000000018001c918 f   libucrt:fflush.obj
 0001:0001b920       __pctype_func              000000018001c920 f   libucrt:ctype.obj
 0001:0001b950       iswctype                   000000018001c950 f   libucrt:iswctype.obj
 0001:0001b9bc       __acrt_add_locale_ref      000000018001c9bc f   libucrt:locale_refcounting.obj
 0001:0001ba48       __acrt_free_locale         000000018001ca48 f   libucrt:locale_refcounting.obj
 0001:0001bbc0       __acrt_locale_add_lc_time_reference 000000018001cbc0 f   libucrt:locale_refcounting.obj
 0001:0001bbe8       __acrt_locale_free_lc_time_if_unreferenced 000000018001cbe8 f   libucrt:locale_refcounting.obj
 0001:0001bc20       __acrt_locale_release_lc_time_reference 000000018001cc20 f   libucrt:locale_refcounting.obj
 0001:0001bc48       __acrt_release_locale_ref  000000018001cc48 f   libucrt:locale_refcounting.obj
 0001:0001bcf0       __acrt_update_thread_locale_data 000000018001ccf0 f   libucrt:locale_refcounting.obj
 0001:0001bd60       _updatetlocinfoEx_nolock   000000018001cd60 f   libucrt:locale_refcounting.obj
 0001:0001bdc8       _query_new_mode            000000018001cdc8 f   libucrt:new_mode.obj
 0001:0001bdd0       __acrt_DownlevelLocaleNameToLCID 000000018001cdd0 f   libucrt:lcidtoname_downlevel.obj
 0001:0001be80       _isleadbyte_l              000000018001ce80 f i libucrt:_wctype.obj
 0001:0001becc       ?__mbrtowc_utf8@__crt_mbstring@@YA_KPEA_WPEBD_KPEAU_Mbstatet@@@Z 000000018001cecc f   libucrt:mbrtowc.obj
 0001:0001bf08       ?__mbsrtowcs_utf8@__crt_mbstring@@YA_KPEA_WPEAPEBD_KPEAU_Mbstatet@@@Z 000000018001cf08 f   libucrt:mbrtowc.obj
 0001:0001c080       __acrt_fp_strflt_to_string 000000018001d080 f   libucrt:_fptostr.obj
 0001:0001c1d0       ?divide@__crt_strtox@@YA_KAEAUbig_integer@1@AEBU21@@Z 000000018001d1d0 f i libucrt:cfout.obj
 0001:0001c5fc       __acrt_fltout              000000018001d5fc f   libucrt:cfout.obj
 0001:0001d8c8       fegetround                 000000018001e8c8 f   libucrt:fegetround.obj
 0001:0001d8dc       _fcloseall                 000000018001e8dc f   libucrt:closeall.obj
 0001:0001d990       __acrt_stdio_free_buffer_nolock 000000018001e990 f   libucrt:_freebuf.obj
 0001:0001d9d0       _isatty                    000000018001e9d0 f   libucrt:isatty.obj
 0001:0001da30       __acrt_locale_free_monetary 000000018001ea30 f   libucrt:initmon.obj
 0001:0001db3c       __acrt_locale_free_numeric 000000018001eb3c f   libucrt:initnum.obj
 0001:0001dc00       __acrt_locale_free_time    000000018001ec00 f   libucrt:inittime.obj
 0001:0001dd08       __acrt_GetStringTypeA      000000018001ed08 f   libucrt:getstringtypea.obj
 0001:0001de98       __acrt_lowio_create_handle_array 000000018001ee98 f   libucrt:osfinfo.obj
 0001:0001df40       __acrt_lowio_destroy_handle_array 000000018001ef40 f   libucrt:osfinfo.obj
 0001:0001df90       __acrt_lowio_ensure_fh_exists 000000018001ef90 f   libucrt:osfinfo.obj
 0001:0001e038       __acrt_lowio_lock_fh       000000018001f038 f   libucrt:osfinfo.obj
 0001:0001e060       __acrt_lowio_unlock_fh     000000018001f060 f   libucrt:osfinfo.obj
 0001:0001e088       _free_osfhnd               000000018001f088 f   libucrt:osfinfo.obj
 0001:0001e144       _get_osfhandle             000000018001f144 f   libucrt:osfinfo.obj
 0001:0001e1c0       qsort                      000000018001f1c0 f   libucrt:qsort.obj
 0001:0001e560       strncpy_s                  000000018001f560 f   libucrt:strncpy_s.obj
 0001:0001e6e0       strpbrk                    000000018001f6e0 f   libucrt:strpbrk.obj
 0001:0001eaa8       _mbsdec                    000000018001faa8 f   libucrt:mbsdec.obj
 0001:0001eab0       _mbsdec_l                  000000018001fab0 f   libucrt:mbsdec.obj
 0001:0001ee5c       __acrt_LCMapStringA        000000018001fe5c f   libucrt:lcmapstringa.obj
 0001:0001ef98       _commit                    000000018001ff98 f   libucrt:commit.obj
 0001:0001f8a8       _write                     00000001800208a8 f   libucrt:write.obj
 0001:0001f994       _write_nolock              0000000180020994 f   libucrt:write.obj
 0001:0001fc78       __acrt_GetStringTypeW      0000000180020c78 f   libucrt:getstringtypew.obj
 0001:0001fc80       __ascii_wcsnicmp           0000000180020c80 f   libucrt:wcsnicmp.obj
 0001:0001fccc       ?__mbrtoc32_utf8@__crt_mbstring@@YA_KPEA_UPEBD_KPEAU_Mbstatet@@@Z 0000000180020ccc f   libucrt:mbrtoc32.obj
 0001:0001fea4       _controlfp_s               0000000180020ea4 f   libucrt:contrlfp.obj
 0001:0001ff08       fegetenv                   0000000180020f08 f   libucrt:fegetenv.obj
 0001:0001ff28       fesetenv                   0000000180020f28 f   libucrt:fesetenv.obj
 0001:0001ff74       feholdexcept               0000000180020f74 f   libucrt:feholdexcept.obj
 0001:0001ffc4       ceil                       0000000180020fc4 f   libucrt:ceil.obj
 0001:00020090       log10                      0000000180021090 f   libucrt:log10.obj
 0001:0002063c       __acrt_fenv_get_common_round_control 000000018002163c f   libucrt:_fenvutils.obj
 0001:00020648       __acrt_fenv_get_control    0000000180021648 f   libucrt:_fenvutils.obj
 0001:0002073c       __acrt_fenv_get_status     000000018002173c f   libucrt:_fenvutils.obj
 0001:00020790       __acrt_fenv_set_control    0000000180021790 f   libucrt:_fenvutils.obj
 0001:000208d8       __acrt_fenv_set_status     00000001800218d8 f   libucrt:_fenvutils.obj
 0001:000209f8       _lseeki64_nolock           00000001800219f8 f   libucrt:lseek.obj
 0001:00020a00       _fclose_nolock             0000000180021a00 f   libucrt:fclose.obj
 0001:00020a84       fclose                     0000000180021a84 f   libucrt:fclose.obj
 0001:00020ae8       _query_app_type            0000000180021ae8 f   libucrt:report_runtime_error.obj
 0001:00020af0       __strncnt                  0000000180021af0 f   libucrt:strncnt.obj
 0001:00020b08       _putwch_nolock             0000000180021b08 f   libucrt:putwch.obj
 0001:00020b44       _clearfp                   0000000180021b44 f   libucrt:ieee.obj
 0001:00020bb4       _control87                 0000000180021bb4 f   libucrt:ieee.obj
 0001:00020fa0       _handle_error              0000000180021fa0 f   libucrt:libm_error.obj
 0001:000210c8       _handle_nan                00000001800220c8 f   libucrt:libm_error.obj
 0001:000210f0       __acrt_initialize_fma3     00000001800220f0 f   libucrt:fma3_available.obj
 0001:00021160       _log10_special             0000000180022160 f   libucrt:log_special.obj
 0001:0002128c       _close                     000000018002228c f   libucrt:close.obj
 0001:00021330       _close_nolock              0000000180022330 f   libucrt:close.obj
 0001:000213f0       ?__acrt_stdio_free_stream@@YAXV__crt_stdio_stream@@@Z 00000001800223f0 f   libucrt:stream.obj
 0001:0002140c       __dcrt_lowio_ensure_console_output_initialized 000000018002240c f   libucrt:initcon.obj
 0001:00021460       __dcrt_terminate_console_output 0000000180022460 f   libucrt:initcon.obj
 0001:0002147c       __dcrt_write_console       000000018002247c f   libucrt:initcon.obj
 0001:00021550       _get_fpsr                  0000000180022550 f   libucrt:fpsr.obj
 0001:00021560       _set_fpsr                  0000000180022560 f   libucrt:fpsr.obj
 0001:0002156a       _fclrf                     000000018002256a f   libucrt:fpsr.obj
 0001:0002157e       _frnd                      000000018002257e f   libucrt:fpsr.obj
 0001:000215a0       _raise_exc                 00000001800225a0 f   libucrt:fpexcept.obj
 0001:000215c8       _raise_exc_ex              00000001800225c8 f   libucrt:fpexcept.obj
 0001:000218d8       _set_errno_from_matherr    00000001800228d8 f   libucrt:fpexcept.obj
 0001:00021908       _clrfp                     0000000180022908 f   libucrt:fpctrl.obj
 0001:00021928       _ctrlfp                    0000000180022928 f   libucrt:fpctrl.obj
 0001:000219a4       _set_statfp                00000001800229a4 f   libucrt:fpctrl.obj
 0001:000219c4       _statfp                    00000001800229c4 f   libucrt:fpctrl.obj
 0001:000219d5       IsProcessorFeaturePresent  00000001800229d5 f   kernel32:KERNEL32.dll
 0001:000219e0       _FindPESection             00000001800229e0 f   LIBCMT:pesect.obj
 0001:00021a30       _IsNonwritableInCurrentImage 0000000180022a30 f   LIBCMT:pesect.obj
 0001:00021a80       _ValidateImageBase         0000000180022a80 f   LIBCMT:pesect.obj
 0001:00021ab0       strrchr                    0000000180022ab0 f   libvcruntime:strrchr.obj
 0001:00021bf0       _guard_dispatch_icall_nop  0000000180022bf0 f   LIBCMT:guard_dispatch.obj
 0001:00021c10       _guard_xfg_dispatch_icall_nop 0000000180022c10 f   LIBCMT:guard_xfg_dispatch.obj
 0002:00000000       __imp_RegQueryValueExW     0000000180024000     advapi32:ADVAPI32.dll
 0002:00000008       __imp_RegSetValueExW       0000000180024008     advapi32:ADVAPI32.dll
 0002:00000010       __imp_RegQueryInfoKeyW     0000000180024010     advapi32:ADVAPI32.dll
 0002:00000018       __imp_RegOpenKeyExW        0000000180024018     advapi32:ADVAPI32.dll
 0002:00000020       __imp_RegEnumKeyExW        0000000180024020     advapi32:ADVAPI32.dll
 0002:00000028       __imp_RegDeleteValueW      0000000180024028     advapi32:ADVAPI32.dll
 0002:00000030       __imp_RegDeleteKeyW        0000000180024030     advapi32:ADVAPI32.dll
 0002:00000038       __imp_RegCreateKeyExW      0000000180024038     advapi32:ADVAPI32.dll
 0002:00000040       __imp_RegCloseKey          0000000180024040     advapi32:ADVAPI32.dll
 0002:00000048       \177ADVAPI32_NULL_THUNK_DATA 0000000180024048     advapi32:ADVAPI32.dll
 0002:00000050       __imp_GetObjectW           0000000180024050     gdi32:GDI32.dll
 0002:00000058       __imp_SelectObject         0000000180024058     gdi32:GDI32.dll
 0002:00000060       __imp_DeleteObject         0000000180024060     gdi32:GDI32.dll
 0002:00000068       __imp_CreateCompatibleDC   0000000180024068     gdi32:GDI32.dll
 0002:00000070       __imp_BitBlt               0000000180024070     gdi32:GDI32.dll
 0002:00000078       __imp_SetWindowOrgEx       0000000180024078     gdi32:GDI32.dll
 0002:00000080       __imp_SetWindowExtEx       0000000180024080     gdi32:GDI32.dll
 0002:00000088       __imp_SetViewportOrgEx     0000000180024088     gdi32:GDI32.dll
 0002:00000090       __imp_LPtoDP               0000000180024090     gdi32:GDI32.dll
 0002:00000098       __imp_SetMapMode           0000000180024098     gdi32:GDI32.dll
 0002:000000a0       __imp_SaveDC               00000001800240a0     gdi32:GDI32.dll
 0002:000000a8       __imp_RestoreDC            00000001800240a8     gdi32:GDI32.dll
 0002:000000b0       __imp_GetDeviceCaps        00000001800240b0     gdi32:GDI32.dll
 0002:000000b8       __imp_DeleteMetaFile       00000001800240b8     gdi32:GDI32.dll
 0002:000000c0       __imp_DeleteDC             00000001800240c0     gdi32:GDI32.dll
 0002:000000c8       __imp_CreateRectRgnIndirect 00000001800240c8     gdi32:GDI32.dll
 0002:000000d0       __imp_CreateMetaFileW      00000001800240d0     gdi32:GDI32.dll
 0002:000000d8       __imp_CreateDCW            00000001800240d8     gdi32:GDI32.dll
 0002:000000e0       __imp_CloseMetaFile        00000001800240e0     gdi32:GDI32.dll
 0002:000000e8       \177GDI32_NULL_THUNK_DATA  00000001800240e8     gdi32:GDI32.dll
 0002:000000f0       __imp_CloseHandle          00000001800240f0     kernel32:KERNEL32.dll
 0002:000000f8       __imp_SetEvent             00000001800240f8     kernel32:KERNEL32.dll
 0002:00000100       __imp_CreateMutexW         0000000180024100     kernel32:KERNEL32.dll
 0002:00000108       __imp_CreateEventW         0000000180024108     kernel32:KERNEL32.dll
 0002:00000110       __imp_GetCurrentProcessId  0000000180024110     kernel32:KERNEL32.dll
 0002:00000118       __imp_WriteConsoleW        0000000180024118     kernel32:KERNEL32.dll
 0002:00000120       __imp_CreateFileW          0000000180024120     kernel32:KERNEL32.dll
 0002:00000128       __imp_GetConsoleMode       0000000180024128     kernel32:KERNEL32.dll
 0002:00000130       __imp_GetConsoleOutputCP   0000000180024130     kernel32:KERNEL32.dll
 0002:00000138       __imp_WriteFile            0000000180024138     kernel32:KERNEL32.dll
 0002:00000140       __imp_FlushFileBuffers     0000000180024140     kernel32:KERNEL32.dll
 0002:00000148       __imp_SetStdHandle         0000000180024148     kernel32:KERNEL32.dll
 0002:00000150       __imp_GetStringTypeW       0000000180024150     kernel32:KERNEL32.dll
 0002:00000158       __imp_SetFilePointerEx     0000000180024158     kernel32:KERNEL32.dll
 0002:00000160       __imp_FreeEnvironmentStringsW 0000000180024160     kernel32:KERNEL32.dll
 0002:00000168       __imp_lstrcmpiW            0000000180024168     kernel32:KERNEL32.dll
 0002:00000170       __imp_GetCommandLineW      0000000180024170     kernel32:KERNEL32.dll
 0002:00000178       __imp_GetCommandLineA      0000000180024178     kernel32:KERNEL32.dll
 0002:00000180       __imp_GetCPInfo            0000000180024180     kernel32:KERNEL32.dll
 0002:00000188       __imp_GetOEMCP             0000000180024188     kernel32:KERNEL32.dll
 0002:00000190       __imp_GetACP               0000000180024190     kernel32:KERNEL32.dll
 0002:00000198       __imp_IsValidCodePage      0000000180024198     kernel32:KERNEL32.dll
 0002:000001a0       __imp_FindNextFileW        00000001800241a0     kernel32:KERNEL32.dll
 0002:000001a8       __imp_FindFirstFileExW     00000001800241a8     kernel32:KERNEL32.dll
 0002:000001b0       __imp_FindClose            00000001800241b0     kernel32:KERNEL32.dll
 0002:000001b8       __imp_GetFileType          00000001800241b8     kernel32:KERNEL32.dll
 0002:000001c0       __imp_GetStdHandle         00000001800241c0     kernel32:KERNEL32.dll
 0002:000001c8       __imp_LCMapStringW         00000001800241c8     kernel32:KERNEL32.dll
 0002:000001d0       __imp_HeapReAlloc          00000001800241d0     kernel32:KERNEL32.dll
 0002:000001d8       __imp_HeapSize             00000001800241d8     kernel32:KERNEL32.dll
 0002:000001e0       __imp_MulDiv               00000001800241e0     kernel32:KERNEL32.dll
 0002:000001e8       __imp_GlobalLock           00000001800241e8     kernel32:KERNEL32.dll
 0002:000001f0       __imp_GlobalUnlock         00000001800241f0     kernel32:KERNEL32.dll
 0002:000001f8       __imp_GlobalAlloc          00000001800241f8     kernel32:KERNEL32.dll
 0002:00000200       __imp_FindResourceW        0000000180024200     kernel32:KERNEL32.dll
 0002:00000208       __imp_SizeofResource       0000000180024208     kernel32:KERNEL32.dll
 0002:00000210       __imp_LoadResource         0000000180024210     kernel32:KERNEL32.dll
 0002:00000218       __imp_LoadLibraryExW       0000000180024218     kernel32:KERNEL32.dll
 0002:00000220       __imp_GetProcAddress       0000000180024220     kernel32:KERNEL32.dll
 0002:00000228       __imp_GetModuleHandleW     0000000180024228     kernel32:KERNEL32.dll
 0002:00000230       __imp_GetModuleFileNameW   0000000180024230     kernel32:KERNEL32.dll
 0002:00000238       __imp_FreeLibrary          0000000180024238     kernel32:KERNEL32.dll
 0002:00000240       __imp_DisableThreadLibraryCalls 0000000180024240     kernel32:KERNEL32.dll
 0002:00000248       __imp_GetCurrentThreadId   0000000180024248     kernel32:KERNEL32.dll
 0002:00000250       __imp_Sleep                0000000180024250     kernel32:KERNEL32.dll
 0002:00000258       __imp_WaitForSingleObject  0000000180024258     kernel32:KERNEL32.dll
 0002:00000260       __imp_ReleaseMutex         0000000180024260     kernel32:KERNEL32.dll
 0002:00000268       __imp_ResetEvent           0000000180024268     kernel32:KERNEL32.dll
 0002:00000270       __imp_EnterCriticalSection 0000000180024270     kernel32:KERNEL32.dll
 0002:00000278       __imp_LeaveCriticalSection 0000000180024278     kernel32:KERNEL32.dll
 0002:00000280       __imp_SetLastError         0000000180024280     kernel32:KERNEL32.dll
 0002:00000288       __imp_EncodePointer        0000000180024288     kernel32:KERNEL32.dll
 0002:00000290       __imp_DeleteCriticalSection 0000000180024290     kernel32:KERNEL32.dll
 0002:00000298       __imp_InitializeCriticalSectionEx 0000000180024298     kernel32:KERNEL32.dll
 0002:000002a0       __imp_GetLastError         00000001800242a0     kernel32:KERNEL32.dll
 0002:000002a8       __imp_RaiseException       00000001800242a8     kernel32:KERNEL32.dll
 0002:000002b0       __imp_DecodePointer        00000001800242b0     kernel32:KERNEL32.dll
 0002:000002b8       __imp_WideCharToMultiByte  00000001800242b8     kernel32:KERNEL32.dll
 0002:000002c0       __imp_GetEnvironmentStringsW 00000001800242c0     kernel32:KERNEL32.dll
 0002:000002c8       __imp_MultiByteToWideChar  00000001800242c8     kernel32:KERNEL32.dll
 0002:000002d0       __imp_GetModuleHandleExW   00000001800242d0     kernel32:KERNEL32.dll
 0002:000002d8       __imp_ExitProcess          00000001800242d8     kernel32:KERNEL32.dll
 0002:000002e0       __imp_VirtualQuery         00000001800242e0     kernel32:KERNEL32.dll
 0002:000002e8       __imp_VirtualProtect       00000001800242e8     kernel32:KERNEL32.dll
 0002:000002f0       __imp_GetSystemInfo        00000001800242f0     kernel32:KERNEL32.dll
 0002:000002f8       __imp_TlsFree              00000001800242f8     kernel32:KERNEL32.dll
 0002:00000300       __imp_TlsSetValue          0000000180024300     kernel32:KERNEL32.dll
 0002:00000308       __imp_TlsGetValue          0000000180024308     kernel32:KERNEL32.dll
 0002:00000310       __imp_TlsAlloc             0000000180024310     kernel32:KERNEL32.dll
 0002:00000318       __imp_RtlPcToFileHeader    0000000180024318     kernel32:KERNEL32.dll
 0002:00000320       __imp_InterlockedFlushSList 0000000180024320     kernel32:KERNEL32.dll
 0002:00000328       __imp_RtlUnwindEx          0000000180024328     kernel32:KERNEL32.dll
 0002:00000330       __imp_LoadLibraryExA       0000000180024330     kernel32:KERNEL32.dll
 0002:00000338       __imp_VirtualFree          0000000180024338     kernel32:KERNEL32.dll
 0002:00000340       __imp_VirtualAlloc         0000000180024340     kernel32:KERNEL32.dll
 0002:00000348       __imp_FlushInstructionCache 0000000180024348     kernel32:KERNEL32.dll
 0002:00000350       __imp_InterlockedPushEntrySList 0000000180024350     kernel32:KERNEL32.dll
 0002:00000358       __imp_InterlockedPopEntrySList 0000000180024358     kernel32:KERNEL32.dll
 0002:00000360       __imp_GetProcessHeap       0000000180024360     kernel32:KERNEL32.dll
 0002:00000368       __imp_HeapFree             0000000180024368     kernel32:KERNEL32.dll
 0002:00000370       __imp_HeapAlloc            0000000180024370     kernel32:KERNEL32.dll
 0002:00000378       __imp_OutputDebugStringW   0000000180024378     kernel32:KERNEL32.dll
 0002:00000380       __imp_InitializeSListHead  0000000180024380     kernel32:KERNEL32.dll
 0002:00000388       __imp_GetSystemTimeAsFileTime 0000000180024388     kernel32:KERNEL32.dll
 0002:00000390       __imp_QueryPerformanceCounter 0000000180024390     kernel32:KERNEL32.dll
 0002:00000398       __imp_GetStartupInfoW      0000000180024398     kernel32:KERNEL32.dll
 0002:000003a0       __imp_IsDebuggerPresent    00000001800243a0     kernel32:KERNEL32.dll
 0002:000003a8       __imp_IsProcessorFeaturePresent 00000001800243a8     kernel32:KERNEL32.dll
 0002:000003b0       __imp_TerminateProcess     00000001800243b0     kernel32:KERNEL32.dll
 0002:000003b8       __imp_GetCurrentProcess    00000001800243b8     kernel32:KERNEL32.dll
 0002:000003c0       __imp_InitializeCriticalSectionAndSpinCount 00000001800243c0     kernel32:KERNEL32.dll
 0002:000003c8       __imp_WaitForSingleObjectEx 00000001800243c8     kernel32:KERNEL32.dll
 0002:000003d0       __imp_RtlCaptureContext    00000001800243d0     kernel32:KERNEL32.dll
 0002:000003d8       __imp_RtlLookupFunctionEntry 00000001800243d8     kernel32:KERNEL32.dll
 0002:000003e0       __imp_RtlVirtualUnwind     00000001800243e0     kernel32:KERNEL32.dll
 0002:000003e8       __imp_UnhandledExceptionFilter 00000001800243e8     kernel32:KERNEL32.dll
 0002:000003f0       __imp_SetUnhandledExceptionFilter 00000001800243f0     kernel32:KERNEL32.dll
 0002:000003f8       \177KERNEL32_NULL_THUNK_DATA 00000001800243f8     kernel32:KERNEL32.dll
 0002:00000400       __imp_OleCreatePropertyFrame 0000000180024400     oleaut32:OLEAUT32.dll
 0002:00000408       __imp_UnRegisterTypeLib    0000000180024408     oleaut32:OLEAUT32.dll
 0002:00000410       __imp_RegisterTypeLib      0000000180024410     oleaut32:OLEAUT32.dll
 0002:00000418       __imp_LoadRegTypeLib       0000000180024418     oleaut32:OLEAUT32.dll
 0002:00000420       __imp_LoadTypeLib          0000000180024420     oleaut32:OLEAUT32.dll
 0002:00000428       __imp_VarUI4FromStr        0000000180024428     oleaut32:OLEAUT32.dll
 0002:00000430       __imp_VariantInit          0000000180024430     oleaut32:OLEAUT32.dll
 0002:00000438       __imp_SysAllocStringByteLen 0000000180024438     oleaut32:OLEAUT32.dll
 0002:00000440       __imp_SysStringByteLen     0000000180024440     oleaut32:OLEAUT32.dll
 0002:00000448       __imp_VariantChangeType    0000000180024448     oleaut32:OLEAUT32.dll
 0002:00000450       __imp_VariantCopyInd       0000000180024450     oleaut32:OLEAUT32.dll
 0002:00000458       __imp_VariantClear         0000000180024458     oleaut32:OLEAUT32.dll
 0002:00000460       __imp_SysStringLen         0000000180024460     oleaut32:OLEAUT32.dll
 0002:00000468       __imp_SysFreeString        0000000180024468     oleaut32:OLEAUT32.dll
 0002:00000470       __imp_SysAllocStringLen    0000000180024470     oleaut32:OLEAUT32.dll
 0002:00000478       __imp_SysAllocString       0000000180024478     oleaut32:OLEAUT32.dll
 0002:00000480       \177OLEAUT32_NULL_THUNK_DATA 0000000180024480     oleaut32:OLEAUT32.dll
 0002:00000488       __imp_UnregisterClassW     0000000180024488     user32:USER32.dll
 0002:00000490       __imp_PostMessageW         0000000180024490     user32:USER32.dll
 0002:00000498       __imp_DefWindowProcW       0000000180024498     user32:USER32.dll
 0002:000004a0       __imp_CallWindowProcW      00000001800244a0     user32:USER32.dll
 0002:000004a8       __imp_RegisterClassExW     00000001800244a8     user32:USER32.dll
 0002:000004b0       __imp_GetClassInfoExW      00000001800244b0     user32:USER32.dll
 0002:000004b8       __imp_CreateWindowExW      00000001800244b8     user32:USER32.dll
 0002:000004c0       __imp_IsWindow             00000001800244c0     user32:USER32.dll
 0002:000004c8       __imp_IsChild              00000001800244c8     user32:USER32.dll
 0002:000004d0       __imp_DestroyWindow        00000001800244d0     user32:USER32.dll
 0002:000004d8       __imp_ShowWindow           00000001800244d8     user32:USER32.dll
 0002:000004e0       __imp_SetWindowPos         00000001800244e0     user32:USER32.dll
 0002:000004e8       __imp_CharNextW            00000001800244e8     user32:USER32.dll
 0002:000004f0       __imp_SetFocus             00000001800244f0     user32:USER32.dll
 0002:000004f8       __imp_LoadBitmapW          00000001800244f8     user32:USER32.dll
 0002:00000500       __imp_RegisterClassW       0000000180024500     user32:USER32.dll
 0002:00000508       __imp_PeekMessageW         0000000180024508     user32:USER32.dll
 0002:00000510       __imp_LoadCursorW          0000000180024510     user32:USER32.dll
 0002:00000518       __imp_GetParent            0000000180024518     user32:USER32.dll
 0002:00000520       __imp_SetWindowLongPtrW    0000000180024520     user32:USER32.dll
 0002:00000528       __imp_GetWindowLongPtrW    0000000180024528     user32:USER32.dll
 0002:00000530       __imp_PtInRect             0000000180024530     user32:USER32.dll
 0002:00000538       __imp_EqualRect            0000000180024538     user32:USER32.dll
 0002:00000540       __imp_OffsetRect           0000000180024540     user32:USER32.dll
 0002:00000548       __imp_UnionRect            0000000180024548     user32:USER32.dll
 0002:00000550       __imp_IntersectRect        0000000180024550     user32:USER32.dll
 0002:00000558       __imp_GetClientRect        0000000180024558     user32:USER32.dll
 0002:00000560       __imp_InvalidateRect       0000000180024560     user32:USER32.dll
 0002:00000568       __imp_SetWindowRgn         0000000180024568     user32:USER32.dll
 0002:00000570       __imp_EndPaint             0000000180024570     user32:USER32.dll
 0002:00000578       __imp_BeginPaint           0000000180024578     user32:USER32.dll
 0002:00000580       __imp_ReleaseDC            0000000180024580     user32:USER32.dll
 0002:00000588       __imp_GetDC                0000000180024588     user32:USER32.dll
 0002:00000590       __imp_GetKeyState          0000000180024590     user32:USER32.dll
 0002:00000598       __imp_GetFocus             0000000180024598     user32:USER32.dll
 0002:000005a0       \177USER32_NULL_THUNK_DATA 00000001800245a0     user32:USER32.dll
 0002:000005a8       __imp_CoCreateInstance     00000001800245a8     ole32:ole32.dll
 0002:000005b0       __imp_StringFromGUID2      00000001800245b0     ole32:ole32.dll
 0002:000005b8       __imp_CoTaskMemAlloc       00000001800245b8     ole32:ole32.dll
 0002:000005c0       __imp_CoTaskMemFree        00000001800245c0     ole32:ole32.dll
 0002:000005c8       __imp_ReadClassStm         00000001800245c8     ole32:ole32.dll
 0002:000005d0       __imp_WriteClassStm        00000001800245d0     ole32:ole32.dll
 0002:000005d8       __imp_CreateDataAdviseHolder 00000001800245d8     ole32:ole32.dll
 0002:000005e0       __imp_OleSaveToStream      00000001800245e0     ole32:ole32.dll
 0002:000005e8       __imp_CreateOleAdviseHolder 00000001800245e8     ole32:ole32.dll
 0002:000005f0       __imp_OleRegGetUserType    00000001800245f0     ole32:ole32.dll
 0002:000005f8       __imp_OleRegGetMiscStatus  00000001800245f8     ole32:ole32.dll
 0002:00000600       __imp_OleRegEnumVerbs      0000000180024600     ole32:ole32.dll
 0002:00000608       __imp_CLSIDFromProgID      0000000180024608     ole32:ole32.dll
 0002:00000610       __imp_CoTaskMemRealloc     0000000180024610     ole32:ole32.dll
 0002:00000618       \177ole32_NULL_THUNK_DATA  0000000180024618     ole32:ole32.dll
 0002:00000620       __guard_check_icall_fptr   0000000180024620     LIBCMT:guard_support.obj
 0002:00000628       __guard_xfg_check_icall_fptr 0000000180024628     LIBCMT:guard_support.obj
 0002:00000630       __guard_dispatch_icall_fptr 0000000180024630     LIBCMT:guard_support.obj
 0002:00000638       __guard_xfg_dispatch_icall_fptr 0000000180024638     LIBCMT:guard_support.obj
 0002:00000640       __guard_xfg_table_dispatch_icall_fptr 0000000180024640     LIBCMT:guard_support.obj
 0002:00000648       __xc_a                     0000000180024648     LIBCMT:initializers.obj
 0002:00000678       __xc_z                     0000000180024678     LIBCMT:initializers.obj
 0002:00000680       __xi_a                     0000000180024680     LIBCMT:initializers.obj
 0002:00000690       __acrt_stdio_initializer   0000000180024690     libucrt:stdio_initializer.obj
 0002:00000698       __acrt_multibyte_initializer 0000000180024698     libucrt:multibyte_initializer.obj
 0002:000006a0       __acrt_tran_fma3_initializer 00000001800246a0     libucrt:fma3_initializer.obj
 0002:000006a8       __xi_z                     00000001800246a8     LIBCMT:initializers.obj
 0002:000006b0       __xl_a                     00000001800246b0     LIBCMT:tlssup.obj
 0002:000006b8       __xl_z                     00000001800246b8     LIBCMT:tlssup.obj
 0002:000006c0       __xp_a                     00000001800246c0     LIBCMT:initializers.obj
 0002:000006c8       __acrt_locale_terminator   00000001800246c8     libucrt:locale_initializer.obj
 0002:000006d0       __dcrt_console_output_terminator 00000001800246d0     libucrt:console_output_initializer.obj
 0002:000006d8       __acrt_stdio_terminator    00000001800246d8     libucrt:stdio_initializer.obj
 0002:000006e0       __xp_z                     00000001800246e0     LIBCMT:initializers.obj
 0002:000006e8       __xt_a                     00000001800246e8     LIBCMT:initializers.obj
 0002:000006f0       __xt_z                     00000001800246f0     LIBCMT:initializers.obj
 0002:00000700       ??_C@_13HADIAKP@?$AAS@     0000000180024700     OposVariant.obj
 0002:00000704       ??_C@_13LHMFKAAD@?$AAM@    0000000180024704     OposVariant.obj
 0002:00000708       ??_C@_13MKMNOPIJ@?$AAD@    0000000180024708     OposVariant.obj
 0002:0000070c       ??_C@_13OPKGLAFF@?$AAB@    000000018002470c     OposVariant.obj
 0002:00000710       ??_C@_17LLMMEOJD@?$AAV?$AAa?$AAl@ 0000000180024710     OposVariant.obj
 0002:00000718       ??_C@_1BI@JFAIJMHL@?$AAF?$AAo?$AAr?$AAc?$AAe?$AAR?$AAe?$AAm?$AAo?$AAv?$AAe@ 0000000180024718     OposVariant.obj
 0002:00000730       ??_C@_1BC@GCKHIPE@?$AAN?$AAo?$AAR?$AAe?$AAm?$AAo?$AAv?$AAe@ 0000000180024730     OposVariant.obj
 0002:00000748       ??_C@_1O@JDLOHAN@?$AAD?$AAe?$AAl?$AAe?$AAt?$AAe@ 0000000180024748     OposVariant.obj
 0002:00000758       ??_C@_11LOCGONAA@@         0000000180024758     OposVariant.obj
 0002:00000760       IID_IOPOSBiometrics_1_10   0000000180024760     Biometrics.obj
 0002:00000770       IID_IOPOSBiometrics        0000000180024770     Biometrics.obj
 0002:00000780       LIBID_OposBiometrics_CCO   0000000180024780     Biometrics.obj
 0002:00000790       DIID__IOPOSBiometricsEvents 0000000180024790     Biometrics.obj
 0002:000007a0       CLSID_OPOSBiometrics       00000001800247a0     Biometrics.obj
 0002:000007b0       _GUID_00000114_0000_0000_c000_000000000046 00000001800247b0     Biometrics.obj
 0002:000007c0       ??_C@_1BK@BIGILECK@?$AAA?$AAd?$AAv?$AAa?$AAp?$AAi?$AA3?$AA2?$AA?4?$AAd?$AAl?$AAl@ 00000001800247c0     Biometrics.obj
 0002:000007e0       ??_C@_0BI@MNCFCPFK@RegCreateKeyTransactedW@ 00000001800247e0     Biometrics.obj
 0002:000007f8       _GUID_b196b287_bab4_101a_b69c_00aa00341d07 00000001800247f8     Biometrics.obj
 0002:00000808       _GUID_b196b285_bab4_101a_b69c_00aa00341d07 0000000180024808     Biometrics.obj
 0002:00000818       _GUID_a6bc3ac0_dbaa_11ce_9de3_00aa004bb851 0000000180024818     Biometrics.obj
 0002:00000828       _GUID_0000010c_0000_0000_c000_000000000046 0000000180024828     Biometrics.obj
 0002:00000840       ?_entries@?1??_GetEntries@COPOSBiometrics@@SAPEBU_ATL_INTMAP_ENTRY@ATL@@XZ@4QBU34@B 0000000180024840     Biometrics.obj
 0002:00000a80       _GUID_00000146_0000_0000_c000_000000000046 0000000180024a80     Biometrics.obj
 0002:00000a90       _GUID_cf51ed10_62fe_11cf_bf86_00a0c9034836 0000000180024a90     Biometrics.obj
 0002:00000aa0       _GUID_0000010a_0000_0000_c000_000000000046 0000000180024aa0     Biometrics.obj
 0002:00000ab0       _GUID_b196b283_bab4_101a_b69c_00aa00341d07 0000000180024ab0     Biometrics.obj
 0002:00000ac0       _GUID_cb5bdc81_93c1_11cf_8f20_00805f2cd064 0000000180024ac0     Biometrics.obj
 0002:00000ad0       ?pPropMap@?1??GetPropertyMap@COPOSBiometrics@@SAPEBUATL_PROPMAP_ENTRY@ATL@@XZ@4QBU34@B 0000000180024ad0     Biometrics.obj
 0002:00000b78       ??_C@_17DGDADEHL@?$AA_?$AAc?$AAx@ 0000000180024b78     Biometrics.obj
 0002:00000b80       ??_C@_17IOIMFDBO@?$AA_?$AAc?$AAy@ 0000000180024b80     Biometrics.obj
 0002:00000b88       _GUID_922eada0_3424_11cf_b670_00aa004cd6d8 0000000180024b88     Biometrics.obj
 0002:00000b98       _GUID_9c2cad80_3424_11cf_b670_00aa004cd6d8 0000000180024b98     Biometrics.obj
 0002:00000ba8       _GUID_00000119_0000_0000_c000_000000000046 0000000180024ba8     Biometrics.obj
 0002:00000bb8       _GUID_b196b289_bab4_101a_b69c_00aa00341d07 0000000180024bb8     Biometrics.obj
 0002:00000bc8       _GUID_00000117_0000_0000_c000_000000000046 0000000180024bc8     Biometrics.obj
 0002:00000bd8       ??_7?$CComObjectCached@VCComClassFactory@ATL@@@ATL@@6B@ 0000000180024bd8     Biometrics.obj
 0002:00000c08       ??_C@_1CE@PGFMOFKI@?$AAS?$AAt?$AAa?$AAt?$AAu?$AAs?$AAU?$AAp?$AAd?$AAa?$AAt?$AAe?$AAE?$AAv?$AAe@ 0000000180024c08     Biometrics.obj
 0002:00000c30       ??_7CComModule@ATL@@6B@    0000000180024c30     Biometrics.obj
 0002:00000c80       ??_C@_1BG@LODEBHDD@?$AAE?$AAr?$AAr?$AAo?$AAr?$AAE?$AAv?$AAe?$AAn?$AAt@ 0000000180024c80     Biometrics.obj
 0002:00000c98       ??_C@_1BM@CBGEBBBJ@?$AAD?$AAi?$AAr?$AAe?$AAc?$AAt?$AAI?$AAO?$AAE?$AAv?$AAe?$AAn?$AAt@ 0000000180024c98     Biometrics.obj
 0002:00000cb8       ??_C@_1BE@IEBMACEM@?$AAD?$AAa?$AAt?$AAa?$AAE?$AAv?$AAe?$AAn?$AAt@ 0000000180024cb8     Biometrics.obj
 0002:00000cd0       _GUID_b196b286_bab4_101a_b69c_00aa00341d07 0000000180024cd0     Biometrics.obj
 0002:00000ce0       _GUID_00000000_0000_0000_c000_000000000046 0000000180024ce0     Biometrics.obj
 0002:00000cf0       _GUID_00020400_0000_0000_c000_000000000046 0000000180024cf0     Biometrics.obj
 0002:00000d00       ??_C@_1BC@ENICKDH@?$AAC?$AAo?$AAn?$AAt?$AAe?$AAn?$AAt?$AAs@ 0000000180024d00     Biometrics.obj
 0002:00000d18       ??_7?$CComObject@V?$CComEnum@UIEnumConnectionPoints@@$1?_GUID_b196b285_bab4_101a_b69c_00aa00341d07@@3U__s_GUID@@BPEAUIConnectionPoint@@V?$_CopyInterface@UIConnectionPoint@@@ATL@@VCComSingleThreadModel@6@@ATL@@@ATL@@6B@ 0000000180024d18     Biometrics.obj
 0002:00000d58       _GUID_0000010e_0000_0000_c000_000000000046 0000000180024d58     Biometrics.obj
 0002:00000d68       _GUID_b196b288_bab4_101a_b69c_00aa00341d07 0000000180024d68     Biometrics.obj
 0002:00000d78       ??_C@_1M@KANJNLFF@?$AAC?$AAL?$AAS?$AAI?$AAD@ 0000000180024d78     Biometrics.obj
 0002:00000d88       ??_C@_1M@EJNEECMJ@?$AAA?$AAp?$AAp?$AAI?$AAD@ 0000000180024d88     Biometrics.obj
 0002:00000d98       _GUID_00000113_0000_0000_c000_000000000046 0000000180024d98     Biometrics.obj
 0002:00000db0       ?rgszNeverDelete@CRegParser@ATL@@1QBQEB_WB 0000000180024db0     Biometrics.obj
 0002:00000e10       _GUID_1c2056cc_5ef4_101b_8bc8_00aa003e3b29 0000000180024e10     Biometrics.obj
 0002:00000e20       ??_7CRegObject@ATL@@6B@    0000000180024e20     Biometrics.obj
 0002:00000e50       _GUID_00000112_0000_0000_c000_000000000046 0000000180024e50     Biometrics.obj
 0002:00000e60       _GUID_3af24292_0c96_11ce_a0cf_00aa00600ab8 0000000180024e60     Biometrics.obj
 0002:00000e70       _GUID_00000127_0000_0000_c000_000000000046 0000000180024e70     Biometrics.obj
 0002:00000e80       _GUID_0000010d_0000_0000_c000_000000000046 0000000180024e80     Biometrics.obj
 0002:00000e90       ??_C@_1CK@OEKPKBNA@?$AAC?$AAo?$AAm?$AAp?$AAo?$AAn?$AAe?$AAn?$AAt?$AA?5?$AAC?$AAa?$AAt?$AAe?$AAg@ 0000000180024e90     Biometrics.obj
 0002:00000ec0       ??_C@_1BC@NKMMNMGL@?$AAF?$AAi?$AAl?$AAe?$AAT?$AAy?$AAp?$AAe@ 0000000180024ec0     Biometrics.obj
 0002:00000ed8       ??_C@_1BE@EKPAFMCP@?$AAI?$AAn?$AAt?$AAe?$AAr?$AAf?$AAa?$AAc?$AAe@ 0000000180024ed8     Biometrics.obj
 0002:00000ef0       ??_C@_1BC@MAICEHGI@?$AAH?$AAa?$AAr?$AAd?$AAw?$AAa?$AAr?$AAe@ 0000000180024ef0     Biometrics.obj
 0002:00000f08       ??_C@_19HLLLM@?$AAM?$AAi?$AAm?$AAe@ 0000000180024f08     Biometrics.obj
 0002:00000f18       ??_C@_17OMAOINJK@?$AAS?$AAA?$AAM@ 0000000180024f18     Biometrics.obj
 0002:00000f20       ??_C@_1BC@IBECJAAI@?$AAS?$AAE?$AAC?$AAU?$AAR?$AAI?$AAT?$AAY@ 0000000180024f20     Biometrics.obj
 0002:00000f38       ??_C@_1O@GBFINDKL@?$AAS?$AAY?$AAS?$AAT?$AAE?$AAM@ 0000000180024f38     Biometrics.obj
 0002:00000f48       ??_C@_1BC@EAHCMADO@?$AAS?$AAo?$AAf?$AAt?$AAw?$AAa?$AAr?$AAe@ 0000000180024f48     Biometrics.obj
 0002:00000f60       ??_C@_1BA@JIHHIEDE@?$AAT?$AAy?$AAp?$AAe?$AAL?$AAi?$AAb@ 0000000180024f60     Biometrics.obj
 0002:00000f70       ?map@?1??HKeyFromString@CRegParser@ATL@@KAPEAUHKEY__@@PEA_W@Z@4QBUkeymap@?1??123@KAPEAU4@0@Z@B 0000000180024f70     Biometrics.obj
 0002:00001050       ??_C@_19NCHLBIN@?$AAH?$AAK?$AAC?$AAR@ 0000000180025050     Biometrics.obj
 0002:00001060       ??_C@_19JAPAIJDE@?$AAH?$AAK?$AAC?$AAU@ 0000000180025060     Biometrics.obj
 0002:00001070       ??_C@_19PEALEEJB@?$AAH?$AAK?$AAL?$AAM@ 0000000180025070     Biometrics.obj
 0002:00001080       ??_C@_17PJOJPMPB@?$AAH?$AAK?$AAU@ 0000000180025080     Biometrics.obj
 0002:00001088       ??_C@_19PNBHMJPL@?$AAH?$AAK?$AAP?$AAD@ 0000000180025088     Biometrics.obj
 0002:00001098       ??_C@_19GFFAIJHG@?$AAH?$AAK?$AAD?$AAD@ 0000000180025098     Biometrics.obj
 0002:000010a8       ??_C@_19OFICIBHH@?$AAH?$AAK?$AAC?$AAC@ 00000001800250a8     Biometrics.obj
 0002:000010b8       ??_C@_1CE@PACHPJFI@?$AAH?$AAK?$AAE?$AAY?$AA_?$AAC?$AAL?$AAA?$AAS?$AAS?$AAE?$AAS?$AA_?$AAR?$AAO@ 00000001800250b8     Biometrics.obj
 0002:000010e0       ??_C@_1CE@HLHNCBPM@?$AAH?$AAK?$AAE?$AAY?$AA_?$AAC?$AAU?$AAR?$AAR?$AAE?$AAN?$AAT?$AA_?$AAU?$AAS@ 00000001800250e0     Biometrics.obj
 0002:00001108       ??_C@_1CG@GFBEANJL@?$AAH?$AAK?$AAE?$AAY?$AA_?$AAL?$AAO?$AAC?$AAA?$AAL?$AA_?$AAM?$AAA?$AAC?$AAH@ 0000000180025108     Biometrics.obj
 0002:00001130       ??_C@_1BG@BGODANIO@?$AAH?$AAK?$AAE?$AAY?$AA_?$AAU?$AAS?$AAE?$AAR?$AAS@ 0000000180025130     Biometrics.obj
 0002:00001148       ??_C@_1CM@KHNNAOIC@?$AAH?$AAK?$AAE?$AAY?$AA_?$AAP?$AAE?$AAR?$AAF?$AAO?$AAR?$AAM?$AAA?$AAN?$AAC@ 0000000180025148     Biometrics.obj
 0002:00001178       ??_C@_1BM@HAGMMHIA@?$AAH?$AAK?$AAE?$AAY?$AA_?$AAD?$AAY?$AAN?$AA_?$AAD?$AAA?$AAT?$AAA@ 0000000180025178     Biometrics.obj
 0002:00001198       ??_C@_1CI@BBJOACGG@?$AAH?$AAK?$AAE?$AAY?$AA_?$AAC?$AAU?$AAR?$AAR?$AAE?$AAN?$AAT?$AA_?$AAC?$AAO@ 0000000180025198     Biometrics.obj
 0002:000011c0       _GUID_00000109_0000_0000_c000_000000000046 00000001800251c0     Biometrics.obj
 0002:000011d0       _GUID_7fd52380_4e07_101b_ae2d_08002b2ec713 00000001800251d0     Biometrics.obj
 0002:000011e0       ??_C@_1M@PPPPCDEP@?$AAA?$AAP?$AAP?$AAI?$AAD@ 00000001800251e0     Biometrics.obj
 0002:000011f0       ??_C@_1EA@NHKLICFA@?$AAH?$AAK?$AAC?$AAU?$AA?$AN?$AA?6?$AA?$HL?$AA?7?$AAS?$AAo?$AAf?$AAt?$AAw?$AAa?$AAr@ 00000001800251f0     Biometrics.obj
 0002:00001230       ??_C@_1BE@LJOLIMEM@?$AA?$AN?$AA?6?$AA?7?$AA?$HN?$AA?$AN?$AA?6?$AA?$HN?$AA?$AN?$AA?6@ 0000000180025230     Biometrics.obj
 0002:00001248       ??_C@_1O@MNLDABAF@?$AAM?$AAo?$AAd?$AAu?$AAl?$AAe@ 0000000180025248     Biometrics.obj
 0002:00001258       ??_C@_1BG@JBACFMF@?$AAM?$AAo?$AAd?$AAu?$AAl?$AAe?$AA_?$AAR?$AAa?$AAw@ 0000000180025258     Biometrics.obj
 0002:00001270       ??_C@_1BC@KAILKFFG@?$AAR?$AAE?$AAG?$AAI?$AAS?$AAT?$AAR?$AAY@ 0000000180025270     Biometrics.obj
 0002:00001288       ??_7?$CComContainedObject@VCOPOSBiometrics@@@ATL@@6B?$IDispatchImpl@UIOPOSBiometrics@@$1?IID_IOPOSBiometrics@@3U_GUID@@B$1?LIBID_OposBiometrics_CCO@@3U3@B$00$0A@VCComTypeInfoHolder@ATL@@@1@@ 0000000180025288     Biometrics.obj
 0002:00001548       ??_7?$CComContainedObject@VCOPOSBiometrics@@@ATL@@6BCComControlBase@1@@ 0000000180025548     Biometrics.obj
 0002:00001570       ??_7?$CComContainedObject@VCOPOSBiometrics@@@ATL@@6B?$CWindowImpl@VCOPOSBiometrics@@VCWindow@ATL@@V?$CWinTraits@$0FGAAAAAA@$0A@@3@@1@@ 0000000180025570     Biometrics.obj
 0002:00001590       ??_7?$CComContainedObject@VCOPOSBiometrics@@@ATL@@6B?$IPersistStreamInitImpl@VCOPOSBiometrics@@@1@@ 0000000180025590     Biometrics.obj
 0002:000015d8       ??_7?$CComContainedObject@VCOPOSBiometrics@@@ATL@@6B?$IOleControlImpl@VCOPOSBiometrics@@@1@@ 00000001800255d8     Biometrics.obj
 0002:00001610       ??_7?$CComContainedObject@VCOPOSBiometrics@@@ATL@@6B?$IOleObjectImpl@VCOPOSBiometrics@@@1@@ 0000000180025610     Biometrics.obj
 0002:000016d0       ??_7?$CComContainedObject@VCOPOSBiometrics@@@ATL@@6B?$IOleInPlaceActiveObjectImpl@VCOPOSBiometrics@@@1@@ 00000001800256d0     Biometrics.obj
 0002:00001720       ??_7?$CComContainedObject@VCOPOSBiometrics@@@ATL@@6B?$IViewObjectExImpl@VCOPOSBiometrics@@@1@@ 0000000180025720     Biometrics.obj
 0002:00001798       ??_7?$CComContainedObject@VCOPOSBiometrics@@@ATL@@6B?$IOleInPlaceObjectWindowlessImpl@VCOPOSBiometrics@@@1@@ 0000000180025798     Biometrics.obj
 0002:000017f0       ??_7?$CComContainedObject@VCOPOSBiometrics@@@ATL@@6B?$IConnectionPointContainerImpl@VCOPOSBiometrics@@@1@@ 00000001800257f0     Biometrics.obj
 0002:00001818       ??_7?$CComContainedObject@VCOPOSBiometrics@@@ATL@@6B?$IPersistStorageImpl@VCOPOSBiometrics@@@1@@ 0000000180025818     Biometrics.obj
 0002:00001868       ??_7?$CComContainedObject@VCOPOSBiometrics@@@ATL@@6B?$ISpecifyPropertyPagesImpl@VCOPOSBiometrics@@@1@@ 0000000180025868     Biometrics.obj
 0002:00001888       ??_7?$CComContainedObject@VCOPOSBiometrics@@@ATL@@6B?$IQuickActivateImpl@VCOPOSBiometrics@@@1@@ 0000000180025888     Biometrics.obj
 0002:000018b8       ??_7?$CComContainedObject@VCOPOSBiometrics@@@ATL@@6B?$IDataObjectImpl@VCOPOSBiometrics@@@1@@ 00000001800258b8     Biometrics.obj
 0002:00001918       ??_7?$CComContainedObject@VCOPOSBiometrics@@@ATL@@6B?$IProvideClassInfo2Impl@$1?CLSID_OPOSBiometrics@@3U_GUID@@B$1?DIID__IOPOSBiometricsEvents@@3U2@B$1?LIBID_OposBiometrics_CCO@@3U2@B$00$0A@VCComTypeInfoHolder@ATL@@@1@@ 0000000180025918     Biometrics.obj
 0002:00001940       ??_7?$CComContainedObject@VCOPOSBiometrics@@@ATL@@6B?$IObjectSafetyImpl@VCOPOSBiometrics@@$02@1@@ 0000000180025940     Biometrics.obj
 0002:00001970       ??_7?$CComContainedObject@VCOPOSBiometrics@@@ATL@@6B?$IPropertyNotifySinkCP@VCOPOSBiometrics@@VCComDynamicUnkArray@ATL@@@1@@ 0000000180025970     Biometrics.obj
 0002:000019b0       ??_7?$CComContainedObject@VCOPOSBiometrics@@@ATL@@6B?$CProxy_IOPOSEvents@VCOPOSBiometrics@@@@@ 00000001800259b0     Biometrics.obj
 0002:000019f0       ??_7?$CComAggObject@VCOPOSBiometrics@@@ATL@@6B@ 00000001800259f0     Biometrics.obj
 0002:00001a10       ??_7?$CComObject@VCOPOSBiometrics@@@ATL@@6B?$IDispatchImpl@UIOPOSBiometrics@@$1?IID_IOPOSBiometrics@@3U_GUID@@B$1?LIBID_OposBiometrics_CCO@@3U3@B$00$0A@VCComTypeInfoHolder@ATL@@@1@@ 0000000180025a10     Biometrics.obj
 0002:00001cd0       ??_7?$CComObject@VCOPOSBiometrics@@@ATL@@6BCComControlBase@1@@ 0000000180025cd0     Biometrics.obj
 0002:00001cf8       ??_7?$CComObject@VCOPOSBiometrics@@@ATL@@6B?$CWindowImpl@VCOPOSBiometrics@@VCWindow@ATL@@V?$CWinTraits@$0FGAAAAAA@$0A@@3@@1@@ 0000000180025cf8     Biometrics.obj
 0002:00001d18       ??_7?$CComObject@VCOPOSBiometrics@@@ATL@@6B?$IPersistStreamInitImpl@VCOPOSBiometrics@@@1@@ 0000000180025d18     Biometrics.obj
 0002:00001d60       ??_7?$CComObject@VCOPOSBiometrics@@@ATL@@6B?$IOleControlImpl@VCOPOSBiometrics@@@1@@ 0000000180025d60     Biometrics.obj
 0002:00001d98       ??_7?$CComObject@VCOPOSBiometrics@@@ATL@@6B?$IOleObjectImpl@VCOPOSBiometrics@@@1@@ 0000000180025d98     Biometrics.obj
 0002:00001e58       ??_7?$CComObject@VCOPOSBiometrics@@@ATL@@6B?$IOleInPlaceActiveObjectImpl@VCOPOSBiometrics@@@1@@ 0000000180025e58     Biometrics.obj
 0002:00001ea8       ??_7?$CComObject@VCOPOSBiometrics@@@ATL@@6B?$IViewObjectExImpl@VCOPOSBiometrics@@@1@@ 0000000180025ea8     Biometrics.obj
 0002:00001f20       ??_7?$CComObject@VCOPOSBiometrics@@@ATL@@6B?$IOleInPlaceObjectWindowlessImpl@VCOPOSBiometrics@@@1@@ 0000000180025f20     Biometrics.obj
 0002:00001f78       ??_7?$CComObject@VCOPOSBiometrics@@@ATL@@6B?$IConnectionPointContainerImpl@VCOPOSBiometrics@@@1@@ 0000000180025f78     Biometrics.obj
 0002:00001fa0       ??_7?$CComObject@VCOPOSBiometrics@@@ATL@@6B?$IPersistStorageImpl@VCOPOSBiometrics@@@1@@ 0000000180025fa0     Biometrics.obj
 0002:00001ff0       ??_7?$CComObject@VCOPOSBiometrics@@@ATL@@6B?$ISpecifyPropertyPagesImpl@VCOPOSBiometrics@@@1@@ 0000000180025ff0     Biometrics.obj
 0002:00002010       ??_7?$CComObject@VCOPOSBiometrics@@@ATL@@6B?$IQuickActivateImpl@VCOPOSBiometrics@@@1@@ 0000000180026010     Biometrics.obj
 0002:00002040       ??_7?$CComObject@VCOPOSBiometrics@@@ATL@@6B?$IDataObjectImpl@VCOPOSBiometrics@@@1@@ 0000000180026040     Biometrics.obj
 0002:000020a0       ??_7?$CComObject@VCOPOSBiometrics@@@ATL@@6B?$IProvideClassInfo2Impl@$1?CLSID_OPOSBiometrics@@3U_GUID@@B$1?DIID__IOPOSBiometricsEvents@@3U2@B$1?LIBID_OposBiometrics_CCO@@3U2@B$00$0A@VCComTypeInfoHolder@ATL@@@1@@ 00000001800260a0     Biometrics.obj
 0002:000020c8       ??_7?$CComObject@VCOPOSBiometrics@@@ATL@@6B?$IObjectSafetyImpl@VCOPOSBiometrics@@$02@1@@ 00000001800260c8     Biometrics.obj
 0002:000020f8       ??_7?$CComObject@VCOPOSBiometrics@@@ATL@@6B?$IPropertyNotifySinkCP@VCOPOSBiometrics@@VCComDynamicUnkArray@ATL@@@1@@ 00000001800260f8     Biometrics.obj
 0002:00002138       ??_7?$CComObject@VCOPOSBiometrics@@@ATL@@6B?$CProxy_IOPOSEvents@VCOPOSBiometrics@@@@@ 0000000180026138     Biometrics.obj
 0002:00002178       ??_C@_1O@GBFKGNEO@?$AAA?$AAT?$AAL?$AA?3?$AA?$CF?$AAp@ 0000000180026178     Biometrics.obj
 0002:00002188       ??_C@_1BA@PICGEGJB@?$AAD?$AAI?$AAS?$AAP?$AAL?$AAA?$AAY@ 0000000180026188     Biometrics.obj
 0002:00002198       _GUID_9bfbbc02_eff1_101a_84ed_00aa00341d07 0000000180026198     Biometrics.obj
 0002:000021a8       ?_entries@?1??_GetEntries@?$CComEnum@UIEnumConnectionPoints@@$1?_GUID_b196b285_bab4_101a_b69c_00aa00341d07@@3U__s_GUID@@BPEAUIConnectionPoint@@V?$_CopyInterface@UIConnectionPoint@@@ATL@@VCComSingleThreadModel@6@@ATL@@SAPEBU_ATL_INTMAP_ENTRY@3@XZ@4QBU43@B 00000001800261a8     Biometrics.obj
 0002:000021d8       _GUID_b196b284_bab4_101a_b69c_00aa00341d07 00000001800261d8     Biometrics.obj
 0002:000021e8       _GUID_00020412_0000_0000_c000_000000000046 00000001800261e8     Biometrics.obj
 0002:000021f8       _GUID_00020401_0000_0000_c000_000000000046 00000001800261f8     Biometrics.obj
 0002:00002208       _GUID_55980ba0_35aa_11cf_b671_00aa004cd6d8 0000000180026208     Biometrics.obj
 0002:00002218       ??_7?$CComObject@V?$CComEnum@UIEnumConnections@@$1?_GUID_b196b287_bab4_101a_b69c_00aa00341d07@@3U__s_GUID@@BUtagCONNECTDATA@@V?$_Copy@UtagCONNECTDATA@@@ATL@@VCComSingleThreadModel@6@@ATL@@@ATL@@6B@ 0000000180026218     Biometrics.obj
 0002:00002258       _GUID_b196b28b_bab4_101a_b69c_00aa00341d07 0000000180026258     Biometrics.obj
 0002:00002268       ?_entries@?1??_GetEntries@?$CComEnum@UIEnumConnections@@$1?_GUID_b196b287_bab4_101a_b69c_00aa00341d07@@3U__s_GUID@@BUtagCONNECTDATA@@V?$_Copy@UtagCONNECTDATA@@@ATL@@VCComSingleThreadModel@6@@ATL@@SAPEBU_ATL_INTMAP_ENTRY@3@XZ@4QBU43@B 0000000180026268     Biometrics.obj
 0002:00002298       ??_7CComClassFactory@ATL@@6B@ 0000000180026298     Biometrics.obj
 0002:000022c8       ?_entries@?1??_GetEntries@CComClassFactory@ATL@@SAPEBU_ATL_INTMAP_ENTRY@3@XZ@4QBU43@B 00000001800262c8     Biometrics.obj
 0002:000022f8       _GUID_00000001_0000_0000_c000_000000000046 00000001800262f8     Biometrics.obj
 0002:00002308       ??_C@_0BG@EKFFMJIO@RegOpenKeyTransactedW@ 0000000180026308     Biometrics.obj
 0002:00002320       ??_C@_0BI@HAKLOOGP@RegDeleteKeyTransactedW@ 0000000180026320     Biometrics.obj
 0002:00002338       ??_C@_0BA@LILAPHGE@RegDeleteKeyExW@ 0000000180026338     Biometrics.obj
 0002:00002348       ??_C@_19ILOCMLCJ@?$AA?4?$AAt?$AAl?$AAb@ 0000000180026348     Biometrics.obj
 0002:00002358       _GUID_0002e012_0000_0000_c000_000000000046 0000000180026358     Biometrics.obj
 0002:00002368       ??_C@_1O@FHBGLCIO@?$AAC?$AAL?$AAS?$AAI?$AAD?$AA?2@ 0000000180026368     Biometrics.obj
 0002:00002378       ??_C@_1CK@IFBKBFAA@?$AA?2?$AAR?$AAe?$AAq?$AAu?$AAi?$AAr?$AAe?$AAd?$AA?5?$AAC?$AAa?$AAt?$AAe?$AAg@ 0000000180026378     Biometrics.obj
 0002:000023a8       ??_C@_1DA@BIHALFED@?$AA?2?$AAI?$AAm?$AAp?$AAl?$AAe?$AAm?$AAe?$AAn?$AAt?$AAe?$AAd?$AA?5?$AAC?$AAa@ 00000001800263a8     Biometrics.obj
 0002:000023d8       ??_C@_1BK@EDKOLFBJ@?$AAO?$AAL?$AAE?$AAA?$AAU?$AAT?$AA3?$AA2?$AA?4?$AAD?$AAL?$AAL@ 00000001800263d8     Biometrics.obj
 0002:000023f8       ??_C@_0BJ@CNLFOMHB@UnRegisterTypeLibForUser@ 00000001800263f8     Biometrics.obj
 0002:00002418       ??_C@_0BH@LBOMMKPJ@RegisterTypeLibForUser@ 0000000180026418     Biometrics.obj
 0002:00002430       ??_C@_0P@MMNMMLGK@COFreezeEvents@ 0000000180026430     BiometricsImpl.obj
 0002:00002440       ??_C@_0BC@OGCGGIMP@GetPropertyNumber@ 0000000180026440     BiometricsImpl.obj
 0002:00002458       ??_C@_0BC@MDCNODNB@SetPropertyNumber@ 0000000180026458     BiometricsImpl.obj
 0002:00002470       ??_C@_0BC@CFCCMIMD@GetPropertyString@ 0000000180026470     BiometricsImpl.obj
 0002:00002488       ??_C@_0BC@CJEDNN@SetPropertyString@ 0000000180026488     BiometricsImpl.obj
 0002:000024a0       ??_C@_0M@LNPKKKDA@OpenService@ 00000001800264a0     BiometricsImpl.obj
 0002:000024b0       ??_C@_0M@PCMCHHMH@CheckHealth@ 00000001800264b0     BiometricsImpl.obj
 0002:000024c0       ??_C@_0M@JGMIDNEK@ClaimDevice@ 00000001800264c0     BiometricsImpl.obj
 0002:000024d0       ??_C@_0L@BNEIFEJC@ClearInput@ 00000001800264d0     BiometricsImpl.obj
 0002:000024e0       ??_C@_0N@DDFIIBMP@CloseService@ 00000001800264e0     BiometricsImpl.obj
 0002:000024f0       ??_C@_08EEIHICPC@DirectIO@ 00000001800264f0     BiometricsImpl.obj
 0002:00002500       ??_C@_0O@BCPMENMJ@ReleaseDevice@ 0000000180026500     BiometricsImpl.obj
 0002:00002510       ??_C@_0BA@GFABKEEE@ResetStatistics@ 0000000180026510     BiometricsImpl.obj
 0002:00002520       ??_C@_0BD@DPALHJGC@RetrieveStatistics@ 0000000180026520     BiometricsImpl.obj
 0002:00002538       ??_C@_0BB@KOHIKNFC@UpdateStatistics@ 0000000180026538     BiometricsImpl.obj
 0002:00002550       ??_C@_0BH@PBKBNMGB@CompareFirmwareVersion@ 0000000180026550     BiometricsImpl.obj
 0002:00002568       ??_C@_0P@FBPDPIPA@UpdateFirmware@ 0000000180026568     BiometricsImpl.obj
 0002:00002578       ??_C@_0BF@CMAPCJGM@ClearInputProperties@ 0000000180026578     BiometricsImpl.obj
 0002:00002590       ??_C@_0BD@NCBJJODO@BeginEnrollCapture@ 0000000180026590     BiometricsImpl.obj
 0002:000025a8       ??_C@_0BD@DGMDGFJO@BeginVerifyCapture@ 00000001800265a8     BiometricsImpl.obj
 0002:000025c0       ??_C@_0L@GDHLKFDG@EndCapture@ 00000001800265c0     BiometricsImpl.obj
 0002:000025d0       ??_C@_08CMMNHGIP@Identify@ 00000001800265d0     BiometricsImpl.obj
 0002:000025e0       ??_C@_0O@MJNIFCOM@IdentifyMatch@ 00000001800265e0     BiometricsImpl.obj
 0002:000025f0       ??_C@_0BE@CCPPGGAJ@ProcessPrematchData@ 00000001800265f0     BiometricsImpl.obj
 0002:00002604       ??_C@_06NDEBMOO@Verify@    0000000180026604     BiometricsImpl.obj
 0002:00002610       ??_C@_0M@PJLEGMK@VerifyMatch@ 0000000180026610     BiometricsImpl.obj
 0002:00002620       ??_7?$CProxy_IOPOSEvents@VCOPOSBiometrics@@@@6B@ 0000000180026620     BiometricsImpl.obj
 0002:00002660       ??_C@_1BA@IFHENID@?$AA?$FL?$AAE?$AAr?$AAr?$AAo?$AAr?$AA?$FN@ 0000000180026660     BiometricsImpl.obj
 0002:00002670       ??_C@_0CN@LNAAFFHC@SOFTWARE?2OLEforRetail?2ServiceOP@ 0000000180026670     BiometricsImpl.obj
 0002:000026a0       ??_C@_1M@IAIJHCCH@?$AAC?$AAl?$AAo?$AAs?$AAe@ 00000001800266a0     BiometricsImpl.obj
 0002:000026b0       ??_C@_1M@PCPKGJAH@?$AAC?$AAl?$AAa?$AAi?$AAm@ 00000001800266b0     BiometricsImpl.obj
 0002:000026c0       ??_C@_1BA@NDFKIOCP@?$AAR?$AAe?$AAl?$AAe?$AAa?$AAs?$AAe@ 00000001800266c0     BiometricsImpl.obj
 0002:000026d0       ??_C@_0L@DNBIECGH@Biometrics@ 00000001800266d0     BiometricsImpl.obj
 0002:000026e0       ??_C@_1BM@IJMNMBPK@?$AAG?$AAe?$AAt?$AAO?$AAp?$AAe?$AAn?$AAR?$AAe?$AAs?$AAu?$AAl?$AAt@ 00000001800266e0     BiometricsImpl.obj
 0002:00002700       IID_IDispatch              0000000180026700     uuid:oaidl_i.obj
 0002:00002710       IID_IPropertyNotifySink    0000000180026710     uuid:ocidl_i.obj
 0002:00002720       GUID_NULL                  0000000180026720     uuid:cguid_i.obj
 0002:00002730       CLSID_StdGlobalInterfaceTable 0000000180026730     uuid:cguid_i.obj
 0002:00002740       CLSID_StdComponentCategoriesMgr 0000000180026740     uuid:ieguids.obj
 0002:00002750       IID_IUnknown               0000000180026750     uuid:unknwn_i.obj
 0002:00002760       __xmm@ffffffffffffffffffffffffffffffff 0000000180026760     LIBCMT:utility.obj
 0002:00002770       ??_C@_1EC@JIJBPKFM@?$AAa?$AAp?$AAi?$AA?9?$AAm?$AAs?$AA?9?$AAw?$AAi?$AAn?$AA?9?$AAc?$AAo?$AAr?$AAe@ 0000000180026770     LIBCMT:thread_safe_statics.obj
 0002:000027b8       ??_C@_1BK@MGMFAEKH@?$AAk?$AAe?$AAr?$AAn?$AAe?$AAl?$AA3?$AA2?$AA?4?$AAd?$AAl?$AAl@ 00000001800267b8     LIBCMT:thread_safe_statics.obj
 0002:000027d8       ??_C@_0BJ@JEBJOJFJ@SleepConditionVariableCS@ 00000001800267d8     LIBCMT:thread_safe_statics.obj
 0002:000027f8       ??_C@_0BJ@PGPPEPCC@WakeAllConditionVariable@ 00000001800267f8     LIBCMT:thread_safe_statics.obj
 0002:00002811       ?nothrow@std@@3Unothrow_t@1@B 0000000180026811     LIBCMT:std_nothrow.obj
 0002:00002828       _pDefaultRawDllMain        0000000180026828     LIBCMT:dll_dllmain.obj
 0002:00002828       _pRawDllMain               0000000180026828     LIBCMT:dll_dllmain.obj
 0002:00002838       ??_7exception@std@@6B@     0000000180026838     LIBCMT:throw_bad_alloc.obj
 0002:00002848       ??_C@_0BC@EOODALEL@Unknown?5exception@ 0000000180026848     LIBCMT:throw_bad_alloc.obj
 0002:00002868       ??_7bad_alloc@std@@6B@     0000000180026868     LIBCMT:throw_bad_alloc.obj
 0002:00002878       ??_C@_0P@GHFPNOJB@bad?5allocation@ 0000000180026878     LIBCMT:throw_bad_alloc.obj
 0002:00002890       ??_7bad_array_new_length@std@@6B@ 0000000180026890     LIBCMT:throw_bad_alloc.obj
 0002:000028a0       ??_C@_0BF@KINCDENJ@bad?5array?5new?5length@ 00000001800268a0     LIBCMT:throw_bad_alloc.obj
 0002:000028c0       ??_7type_info@@6B@         00000001800268c0     LIBCMT:std_type_info_static.obj
 0002:000028c8       GUID_ATLVer110             00000001800268c8     atls:atlbase.obj
 0002:000028e0       ??_C@_1IC@ONKHOIDK@?$AAE?$AAR?$AAR?$AAO?$AAR?$AA?5?$AA?3?$AA?5?$AAU?$AAn?$AAa?$AAb?$AAl?$AAe?$AA?5@ 00000001800268e0     atls:atlbase.obj
 0002:00002968       ??_C@_0N@FJEPLCIH@atlthunk?4dll@ 0000000180026968     atls:atlthunk.obj
 0002:00002978       ??_C@_0BG@GAKFHCBM@AtlThunk_AllocateData@ 0000000180026978     atls:atlthunk.obj
 0002:00002990       ??_C@_0BC@JKONFIAH@AtlThunk_InitData@ 0000000180026990     atls:atlthunk.obj
 0002:000029a8       ??_C@_0BE@IAOEELAK@AtlThunk_DataToCode@ 00000001800269a8     atls:atlthunk.obj
 0002:000029c0       ??_C@_0BC@GBGKAIPI@AtlThunk_FreeData@ 00000001800269c0     atls:atlthunk.obj
 0002:000029d8       ?s_negLengthTab@FH4@@3QBCB 00000001800269d8     libvcruntime:risctrnsctrl.obj
 0002:000029e8       ?s_shiftTab@FH4@@3QBEB     00000001800269e8     libvcruntime:risctrnsctrl.obj
 0002:00002a98       _pDestructExceptionObject  0000000180026a98     libvcruntime:ehhelpers.obj
 0002:00002aa8       ??_7bad_exception@std@@6B@ 0000000180026aa8     libvcruntime:frame.obj
 0002:00002ab8       ??_C@_0O@DPKOEFFH@bad?5exception@ 0000000180026ab8     libvcruntime:frame.obj
 0002:000031d0       ??_C@_08EHJDFFNH@__based?$CI@ 00000001800271d0     libvcruntime:undname.obj
 0002:000031e0       ??_C@_07KOLFKCDI@__cdecl@  00000001800271e0     libvcruntime:undname.obj
 0002:000031e8       ??_C@_08GHMPAG@__pascal@   00000001800271e8     libvcruntime:undname.obj
 0002:000031f8       ??_C@_09IFJBGAPI@__stdcall@ 00000001800271f8     libvcruntime:undname.obj
 0002:00003208       ??_C@_0L@NPHFGOKO@__thiscall@ 0000000180027208     libvcruntime:undname.obj
 0002:00003218       ??_C@_0L@JMKHOMEK@__fastcall@ 0000000180027218     libvcruntime:undname.obj
 0002:00003228       ??_C@_0N@BCKKPABJ@__vectorcall@ 0000000180027228     libvcruntime:undname.obj
 0002:00003238       ??_C@_09HIJEGCPM@__clrcall@ 0000000180027238     libvcruntime:undname.obj
 0002:00003244       ??_C@_06GHPCKEAG@__eabi@   0000000180027244     libvcruntime:undname.obj
 0002:00003250       ??_C@_09IOPIDJLG@__swift_1@ 0000000180027250     libvcruntime:undname.obj
 0002:00003260       ??_C@_09KFNFGKHF@__swift_2@ 0000000180027260     libvcruntime:undname.obj
 0002:00003270       ??_C@_07JOMMBBKO@__ptr64@  0000000180027270     libvcruntime:undname.obj
 0002:00003278       ??_C@_0L@PILCLIHE@__restrict@ 0000000180027278     libvcruntime:undname.obj
 0002:00003288       ??_C@_0M@GFIIJFMG@__unaligned@ 0000000180027288     libvcruntime:undname.obj
 0002:00003298       ??_C@_09DHDLOLLB@restrict?$CI@ 0000000180027298     libvcruntime:undname.obj
 0002:000032a2       ??_C@_00CNPNBAHC@@         00000001800272a2     libvcruntime:undname.obj
 0002:000032a4       ??_C@_04NIHEBCM@?5new@     00000001800272a4     libvcruntime:undname.obj
 0002:000032b0       ??_C@_07FPCDHGMM@?5delete@ 00000001800272b0     libvcruntime:undname.obj
 0002:000032b8       ??_C@_01NEMOKFLO@?$DN@     00000001800272b8     libvcruntime:undname.obj
 0002:000032bc       ??_C@_02GPIOPFAK@?$DO?$DO@ 00000001800272bc     libvcruntime:undname.obj
 0002:000032c0       ??_C@_02FODMEDOG@?$DM?$DM@ 00000001800272c0     libvcruntime:undname.obj
 0002:000032c4       ??_C@_01DCLJPIOD@?$CB@     00000001800272c4     libvcruntime:undname.obj
 0002:000032c8       ??_C@_02EGOFBIJA@?$DN?$DN@ 00000001800272c8     libvcruntime:undname.obj
 0002:000032cc       ??_C@_02FDNJECIE@?$CB?$DN@ 00000001800272cc     libvcruntime:undname.obj
 0002:000032d0       ??_C@_02GPECMEKF@?$FL?$FN@ 00000001800272d0     libvcruntime:undname.obj
 0002:000032d8       ??_C@_08LHJFAFGD@operator@ 00000001800272d8     libvcruntime:undname.obj
 0002:000032e4       ??_C@_02HBOOOICD@?9?$DO@   00000001800272e4     libvcruntime:undname.obj
 0002:000032e8       ??_C@_01NBENCBCI@?$CK@     00000001800272e8     libvcruntime:undname.obj
 0002:000032ec       ??_C@_02ECNGHCIF@?$CL?$CL@ 00000001800272ec     libvcruntime:undname.obj
 0002:000032f0       ??_C@_02BAABKJLB@?9?9@     00000001800272f0     libvcruntime:undname.obj
 0002:000032f4       ??_C@_01JOAMLHOP@?9@       00000001800272f4     libvcruntime:undname.obj
 0002:000032f8       ??_C@_01MIFGBAGJ@?$CL@     00000001800272f8     libvcruntime:undname.obj
 0002:000032fc       ??_C@_01HNPIGOCE@?$CG@     00000001800272fc     libvcruntime:undname.obj
 0002:00003300       ??_C@_03MNHNFDLC@?9?$DO?$CK@ 0000000180027300     libvcruntime:undname.obj
 0002:00003304       ??_C@_01KMDKNFGN@?1@       0000000180027304     libvcruntime:undname.obj
 0002:00003308       ??_C@_01FGNFDNOH@?$CF@     0000000180027308     libvcruntime:undname.obj
 0002:0000330c       ??_C@_01MNNFJEPP@?$DM@     000000018002730c     libvcruntime:undname.obj
 0002:00003310       ??_C@_02EHCHHCKH@?$DM?$DN@ 0000000180027310     libvcruntime:undname.obj
 0002:00003314       ??_C@_01PPODPGHN@?$DO@     0000000180027314     libvcruntime:undname.obj
 0002:00003318       ??_C@_02EEKDKGMJ@?$DO?$DN@ 0000000180027318     libvcruntime:undname.obj
 0002:0000331c       ??_C@_01IHBHIGKO@?0@       000000018002731c     libvcruntime:undname.obj
 0002:00003320       ??_C@_02HCKGKOFO@?$CI?$CJ@ 0000000180027320     libvcruntime:undname.obj
 0002:00003324       ??_C@_01PJKLJHI@?$HO@      0000000180027324     libvcruntime:undname.obj
 0002:00003328       ??_C@_01JKBOJNNK@?$FO@     0000000180027328     libvcruntime:undname.obj
 0002:0000332c       ??_C@_01DNKMNLPK@?$HM@     000000018002732c     libvcruntime:undname.obj
 0002:00003330       ??_C@_02PPKAJPJL@?$CG?$CG@ 0000000180027330     libvcruntime:undname.obj
 0002:00003334       ??_C@_02NONPIBCD@?$HM?$HM@ 0000000180027334     libvcruntime:undname.obj
 0002:00003338       ??_C@_02FPIMKNGF@?$CK?$DN@ 0000000180027338     libvcruntime:undname.obj
 0002:0000333c       ??_C@_02FOEOMHFC@?$CL?$DN@ 000000018002733c     libvcruntime:undname.obj
 0002:00003340       ??_C@_02FKMDLLOA@?9?$DN@   0000000180027340     libvcruntime:undname.obj
 0002:00003344       ??_C@_02FJEHGPIO@?1?$DN@   0000000180027344     libvcruntime:undname.obj
 0002:00003348       ??_C@_02FENAOKFI@?$CF?$DN@ 0000000180027348     libvcruntime:undname.obj
 0002:0000334c       ??_C@_03IKFCCPFF@?$DO?$DO?$DN@ 000000018002734c     libvcruntime:undname.obj
 0002:00003350       ??_C@_03CDNPDDLA@?$DM?$DM?$DN@ 0000000180027350     libvcruntime:undname.obj
 0002:00003354       ??_C@_02FGJGFEAB@?$CG?$DN@ 0000000180027354     libvcruntime:undname.obj
 0002:00003358       ??_C@_02DHLNPPGH@?$HM?$DN@ 0000000180027358     libvcruntime:undname.obj
 0002:0000335c       ??_C@_02MHEGNOJ@?$FO?$DN@  000000018002735c     libvcruntime:undname.obj
 0002:00003360       ??_C@_09IFPLHPGF@?$GAvftable?8@ 0000000180027360     libvcruntime:undname.obj
 0002:00003370       ??_C@_09BLBHBJP@?$GAvbtable?8@ 0000000180027370     libvcruntime:undname.obj
 0002:00003380       ??_C@_07FEEIOKP@?$GAvcall?8@ 0000000180027380     libvcruntime:undname.obj
 0002:00003388       ??_C@_08LLFFHHDJ@?$GAtypeof?8@ 0000000180027388     libvcruntime:undname.obj
 0002:00003398       ??_C@_0BF@KDPPACIK@?$GAlocal?5static?5guard?8@ 0000000180027398     libvcruntime:undname.obj
 0002:000033b0       ??_C@_08OBABFOLI@?$GAstring?8@ 00000001800273b0     libvcruntime:undname.obj
 0002:000033c0       ??_C@_0BD@JDLKDPAB@?$GAvbase?5destructor?8@ 00000001800273c0     libvcruntime:undname.obj
 0002:000033d8       ??_C@_0BN@DEGPLNFK@?$GAvector?5deleting?5destructor?8@ 00000001800273d8     libvcruntime:undname.obj
 0002:000033f8       ??_C@_0BO@OBMKPJIG@?$GAdefault?5constructor?5closure?8@ 00000001800273f8     libvcruntime:undname.obj
 0002:00003418       ??_C@_0BN@IMDCHIKM@?$GAscalar?5deleting?5destructor?8@ 0000000180027418     libvcruntime:undname.obj
 0002:00003438       ??_C@_0BO@PFGOCPJJ@?$GAvector?5constructor?5iterator?8@ 0000000180027438     libvcruntime:undname.obj
 0002:00003458       ??_C@_0BN@LFPFMEDL@?$GAvector?5destructor?5iterator?8@ 0000000180027458     libvcruntime:undname.obj
 0002:00003478       ??_C@_0CE@IKBNEHA@?$GAvector?5vbase?5constructor?5itera@ 0000000180027478     libvcruntime:undname.obj
 0002:000034a0       ??_C@_0BL@NILFHHPC@?$GAvirtual?5displacement?5map?8@ 00000001800274a0     libvcruntime:undname.obj
 0002:000034c0       ??_C@_0CB@JONCMFFK@?$GAeh?5vector?5constructor?5iterator@ 00000001800274c0     libvcruntime:undname.obj
 0002:000034e8       ??_C@_0CA@GCEOPDGL@?$GAeh?5vector?5destructor?5iterator?8@ 00000001800274e8     libvcruntime:undname.obj
 0002:00003508       ??_C@_0CH@OOJPLCPH@?$GAeh?5vector?5vbase?5constructor?5it@ 0000000180027508     libvcruntime:undname.obj
 0002:00003530       ??_C@_0BL@LLKPOHJI@?$GAcopy?5constructor?5closure?8@ 0000000180027530     libvcruntime:undname.obj
 0002:00003550       ??_C@_0BA@KBCDOMBN@?$GAudt?5returning?8@ 0000000180027550     libvcruntime:undname.obj
 0002:00003560       ??_C@_03KLGMFNMG@?$GAEH@   0000000180027560     libvcruntime:undname.obj
 0002:00003564       ??_C@_05KHLCHHI@?$GARTTI@  0000000180027564     libvcruntime:undname.obj
 0002:00003570       ??_C@_0BA@KKLDJDLB@?$GAlocal?5vftable?8@ 0000000180027570     libvcruntime:undname.obj
 0002:00003580       ??_C@_0CE@IIHCMGGL@?$GAlocal?5vftable?5constructor?5clos@ 0000000180027580     libvcruntime:undname.obj
 0002:000035a4       ??_C@_06FHBGPFGH@?5new?$FL?$FN@ 00000001800275a4     libvcruntime:undname.obj
 0002:000035b0       ??_C@_09LBNFPBCA@?5delete?$FL?$FN@ 00000001800275b0     libvcruntime:undname.obj
 0002:000035c0       ??_C@_0P@HJKNJFNN@?$GAomni?5callsig?8@ 00000001800275c0     libvcruntime:undname.obj
 0002:000035d0       ??_C@_0BL@CNOONJFP@?$GAplacement?5delete?5closure?8@ 00000001800275d0     libvcruntime:undname.obj
 0002:000035f0       ??_C@_0BN@CKNJLHMB@?$GAplacement?5delete?$FL?$FN?5closure?8@ 00000001800275f0     libvcruntime:undname.obj
 0002:00003610       ??_C@_0CG@CFDHKGGD@?$GAmanaged?5vector?5constructor?5ite@ 0000000180027610     libvcruntime:undname.obj
 0002:00003638       ??_C@_0CF@IMGKMJNO@?$GAmanaged?5vector?5destructor?5iter@ 0000000180027638     libvcruntime:undname.obj
 0002:00003660       ??_C@_0CG@HLDDJMAG@?$GAeh?5vector?5copy?5constructor?5ite@ 0000000180027660     libvcruntime:undname.obj
 0002:00003688       ??_C@_0CM@FCBBDIGB@?$GAeh?5vector?5vbase?5copy?5construct@ 0000000180027688     libvcruntime:undname.obj
 0002:000036b8       ??_C@_0BL@CLIPGLGB@?$GAdynamic?5initializer?5for?5?8@ 00000001800276b8     libvcruntime:undname.obj
 0002:000036d8       ??_C@_0CB@PDBIFEP@?$GAdynamic?5atexit?5destructor?5for?5@ 00000001800276d8     libvcruntime:undname.obj
 0002:00003700       ??_C@_0CD@CGAJBKEJ@?$GAvector?5copy?5constructor?5iterat@ 0000000180027700     libvcruntime:undname.obj
 0002:00003728       ??_C@_0CJ@GJELGAMM@?$GAvector?5vbase?5copy?5constructor?5@ 0000000180027728     libvcruntime:undname.obj
 0002:00003758       ??_C@_0CL@FGIJHLCE@?$GAmanaged?5vector?5copy?5constructo@ 0000000180027758     libvcruntime:undname.obj
 0002:00003788       ??_C@_0BM@PMGGMLDN@?$GAlocal?5static?5thread?5guard?8@ 0000000180027788     libvcruntime:undname.obj
 0002:000037a8       ??_C@_0N@BDNMDMOL@operator?5?$CC?$CC?5@ 00000001800277a8     libvcruntime:undname.obj
 0002:000037b8       ??_C@_0BC@GGEBGALA@operator?5co_await@ 00000001800277b8     libvcruntime:undname.obj
 0002:000037d0       ??_C@_0M@GAAIMMOH@operator?$DM?$DN?$DO@ 00000001800277d0     libvcruntime:undname.obj
 0002:000037e0       ??_C@_0BC@DAFEJGAK@?5Type?5Descriptor?8@ 00000001800277e0     libvcruntime:undname.obj
 0002:000037f8       ??_C@_0BM@LDKODKLH@?5Base?5Class?5Descriptor?5at?5?$CI@ 00000001800277f8     libvcruntime:undname.obj
 0002:00003818       ??_C@_0BD@LGICGFMM@?5Base?5Class?5Array?8@ 0000000180027818     libvcruntime:undname.obj
 0002:00003830       ??_C@_0BN@MECKDCOJ@?5Class?5Hierarchy?5Descriptor?8@ 0000000180027830     libvcruntime:undname.obj
 0002:00003850       ??_C@_0BK@CFCOFLF@?5Complete?5Object?5Locator?8@ 0000000180027850     libvcruntime:undname.obj
 0002:00003870       ??_C@_0BG@JNJLAMPM@?$GAanonymous?5namespace?8@ 0000000180027870     libvcruntime:undname.obj
 0002:000038a0       ??_C@_1DM@KHCHBNEB@?$AAa?$AAp?$AAi?$AA?9?$AAm?$AAs?$AA?9?$AAw?$AAi?$AAn?$AA?9?$AAc?$AAo?$AAr?$AAe@ 00000001800278a0     libvcruntime:winapi_downlevel.obj
 0002:000038e0       ??_C@_1DK@LPPGFMPP@?$AAa?$AAp?$AAi?$AA?9?$AAm?$AAs?$AA?9?$AAw?$AAi?$AAn?$AA?9?$AAc?$AAo?$AAr?$AAe@ 00000001800278e0     libvcruntime:winapi_downlevel.obj
 0002:00003920       ??_C@_1BC@GDMECMAK@?$AAk?$AAe?$AAr?$AAn?$AAe?$AAl?$AA3?$AA2@ 0000000180027920     libvcruntime:winapi_downlevel.obj
 0002:00003938       ??_C@_1BA@PFFKHIOG@?$AAa?$AAp?$AAi?$AA?9?$AAm?$AAs?$AA?9@ 0000000180027938     libvcruntime:winapi_downlevel.obj
 0002:00003950       ??_C@_08KNHFBNJ@FlsAlloc@  0000000180027950     libvcruntime:winapi_downlevel.obj
 0002:00003968       ??_C@_07PEJMOBNF@FlsFree@  0000000180027968     libvcruntime:winapi_downlevel.obj
 0002:00003978       ??_C@_0M@GDNOONDI@FlsGetValue@ 0000000180027978     libvcruntime:winapi_downlevel.obj
 0002:00003990       ??_C@_0M@JCPCPOEF@FlsSetValue@ 0000000180027990     libvcruntime:winapi_downlevel.obj
 0002:000039a8       ??_C@_0BM@HCFOFFN@InitializeCriticalSectionEx@ 00000001800279a8     libvcruntime:winapi_downlevel.obj
 0002:00003b40       ?format_validation_lookup_table_spectre@__crt_stdio_output@@3V?$spectre_mitigated_lookup_table@Ustate_transition_pair@__crt_stdio_output@@$0IA@@1@B 0000000180027b40     libucrt:output.obj
 0002:00003f40       ??_C@_1O@CEDCILHN@?$AA?$CI?$AAn?$AAu?$AAl?$AAl?$AA?$CJ@ 0000000180027f40     libucrt:output.obj
 0002:00003f50       ??_C@_06OJHGLDPL@?$CInull?$CJ@ 0000000180027f50     libucrt:output.obj
 0002:00003f60       __acrt_exception_action_table 0000000180027f60     libucrt:exception_filter.obj
 0002:00004020       __acrt_signal_action_table_count 0000000180028020     libucrt:exception_filter.obj
 0002:00004028       __acrt_signal_action_first_fpe_index 0000000180028028     libucrt:exception_filter.obj
 0002:00004030       __acrt_signal_action_fpe_count 0000000180028030     libucrt:exception_filter.obj
 0002:00004038       ??_C@_1BI@BGOHAHKC@?$AAm?$AAs?$AAc?$AAo?$AAr?$AAe?$AAe?$AA?4?$AAd?$AAl?$AAl@ 0000000180028038     libucrt:exit.obj
 0002:00004050       ??_C@_0P@MIGLKIOC@CorExitProcess@ 0000000180028050     libucrt:exit.obj
 0002:00004200       ??_C@_1EA@JGEFHKEI@?$AAa?$AAp?$AAi?$AA?9?$AAm?$AAs?$AA?9?$AAw?$AAi?$AAn?$AA?9?$AAc?$AAo?$AAr?$AAe@ 0000000180028200     libucrt:winapi_thunks.obj
 0002:00004240       ??_C@_1DI@IJCEHOCB@?$AAa?$AAp?$AAi?$AA?9?$AAm?$AAs?$AA?9?$AAw?$AAi?$AAn?$AA?9?$AAc?$AAo?$AAr?$AAe@ 0000000180028240     libucrt:winapi_thunks.obj
 0002:00004280       ??_C@_1EI@MPIAOHOC@?$AAa?$AAp?$AAi?$AA?9?$AAm?$AAs?$AA?9?$AAw?$AAi?$AAn?$AA?9?$AAc?$AAo?$AAr?$AAe@ 0000000180028280     libucrt:winapi_thunks.obj
 0002:000042d0       ??_C@_1FK@FPHCKFIE@?$AAa?$AAp?$AAi?$AA?9?$AAm?$AAs?$AA?9?$AAw?$AAi?$AAn?$AA?9?$AAc?$AAo?$AAr?$AAe@ 00000001800282d0     libucrt:winapi_thunks.obj
 0002:00004330       ??_C@_1EM@DILCGIIO@?$AAa?$AAp?$AAi?$AA?9?$AAm?$AAs?$AA?9?$AAw?$AAi?$AAn?$AA?9?$AAc?$AAo?$AAr?$AAe@ 0000000180028330     libucrt:winapi_thunks.obj
 0002:00004380       ??_C@_1DM@LNCGDDPN@?$AAa?$AAp?$AAi?$AA?9?$AAm?$AAs?$AA?9?$AAw?$AAi?$AAn?$AA?9?$AAc?$AAo?$AAr?$AAe@ 0000000180028380     libucrt:winapi_thunks.obj
 0002:000043c0       ??_C@_1DO@FPAPJEMD@?$AAa?$AAp?$AAi?$AA?9?$AAm?$AAs?$AA?9?$AAw?$AAi?$AAn?$AA?9?$AAc?$AAo?$AAr?$AAe@ 00000001800283c0     libucrt:winapi_thunks.obj
 0002:00004400       ??_C@_1DK@NDHNAHIO@?$AAa?$AAp?$AAi?$AA?9?$AAm?$AAs?$AA?9?$AAw?$AAi?$AAn?$AA?9?$AAc?$AAo?$AAr?$AAe@ 0000000180028400     libucrt:winapi_thunks.obj
 0002:00004440       ??_C@_1DM@KGHDGBCM@?$AAa?$AAp?$AAi?$AA?9?$AAm?$AAs?$AA?9?$AAw?$AAi?$AAn?$AA?9?$AAc?$AAo?$AAr?$AAe@ 0000000180028440     libucrt:winapi_thunks.obj
 0002:00004480       ??_C@_1EO@IJIOEFOH@?$AAa?$AAp?$AAi?$AA?9?$AAm?$AAs?$AA?9?$AAw?$AAi?$AAn?$AA?9?$AAr?$AAt?$AAc?$AAo@ 0000000180028480     libucrt:winapi_thunks.obj
 0002:000044d0       ??_C@_1FG@HHGEKANL@?$AAa?$AAp?$AAi?$AA?9?$AAm?$AAs?$AA?9?$AAw?$AAi?$AAn?$AA?9?$AAs?$AAe?$AAc?$AAu@ 00000001800284d0     libucrt:winapi_thunks.obj
 0002:00004530       ??_C@_1EG@DBIOJECG@?$AAe?$AAx?$AAt?$AA?9?$AAm?$AAs?$AA?9?$AAw?$AAi?$AAn?$AA?9?$AAn?$AAt?$AAu?$AAs@ 0000000180028530     libucrt:winapi_thunks.obj
 0002:00004580       ??_C@_1EO@FIHMJCLF@?$AAe?$AAx?$AAt?$AA?9?$AAm?$AAs?$AA?9?$AAw?$AAi?$AAn?$AA?9?$AAn?$AAt?$AAu?$AAs@ 0000000180028580     libucrt:winapi_thunks.obj
 0002:000045d0       ??_C@_1BC@DNHGCMLG@?$AAa?$AAd?$AAv?$AAa?$AAp?$AAi?$AA3?$AA2@ 00000001800285d0     libucrt:winapi_thunks.obj
 0002:000045e8       ??_C@_1M@OAIMIKLP@?$AAn?$AAt?$AAd?$AAl?$AAl@ 00000001800285e8     libucrt:winapi_thunks.obj
 0002:00004600       ??_C@_1EG@DPGNFKGC@?$AAa?$AAp?$AAi?$AA?9?$AAm?$AAs?$AA?9?$AAw?$AAi?$AAn?$AA?9?$AAa?$AAp?$AAp?$AAm@ 0000000180028600     libucrt:winapi_thunks.obj
 0002:00004648       ??_C@_1O@BCCLBEOE@?$AAu?$AAs?$AAe?$AAr?$AA3?$AA2@ 0000000180028648     libucrt:winapi_thunks.obj
 0002:00004658       ??_C@_1BA@IAIFMGEF@?$AAe?$AAx?$AAt?$AA?9?$AAm?$AAs?$AA?9@ 0000000180028658     libucrt:winapi_thunks.obj
 0002:00004670       ??_C@_0BA@FHFNEAED@AreFileApisANSI@ 0000000180028670     libucrt:winapi_thunks.obj
 0002:000046b0       ??_C@_0O@KKBNKAPF@LCMapStringEx@ 00000001800286b0     libucrt:winapi_thunks.obj
 0002:000046c8       ??_C@_0BB@HBDEELFH@LocaleNameToLCID@ 00000001800286c8     libucrt:winapi_thunks.obj
 0002:000046e0       ??_C@_0CF@OJOFEIGO@AppPolicyGetProcessTerminationM@ 00000001800286e0     libucrt:winapi_thunks.obj
 0002:00004710       ??_C@_0BI@BKLFFAPO@SetThreadStackGuarantee@ 0000000180028710     libucrt:winapi_thunks.obj
 0002:000047b0       ??_C@_03OEIAHPBN@INF@      00000001800287b0     libucrt:cvt.obj
 0002:000047b4       ??_C@_03OJHLLCGB@inf@      00000001800287b4     libucrt:cvt.obj
 0002:000047b8       ??_C@_03LKNCIKJB@NAN@      00000001800287b8     libucrt:cvt.obj
 0002:000047bc       ??_C@_03LHCJEHON@nan@      00000001800287bc     libucrt:cvt.obj
 0002:000047c0       ??_C@_09OFJJIMPC@NAN?$CISNAN?$CJ@ 00000001800287c0     libucrt:cvt.obj
 0002:000047d0       ??_C@_09IPFBKMDL@nan?$CIsnan?$CJ@ 00000001800287d0     libucrt:cvt.obj
 0002:000047e0       ??_C@_08IKHNHAJ@NAN?$CIIND?$CJ@ 00000001800287e0     libucrt:cvt.obj
 0002:000047f0       ??_C@_08OFCDMILK@nan?$CIind?$CJ@ 00000001800287f0     libucrt:cvt.obj
 0002:000047fc       ??_C@_05KLBDPFGC@e?$CL000@ 00000001800287fc     libucrt:cvt.obj
 0002:00004810       __lc_time_c                0000000180028810     libucrt:nlsdata.obj
 0002:00004ad0       ??_C@_03KOEHGMDN@Sun@      0000000180028ad0     libucrt:nlsdata.obj
 0002:00004ad4       ??_C@_03PDAGKDH@Mon@       0000000180028ad4     libucrt:nlsdata.obj
 0002:00004ad8       ??_C@_03NAGEINEP@Tue@      0000000180028ad8     libucrt:nlsdata.obj
 0002:00004adc       ??_C@_03MHOMLAJA@Wed@      0000000180028adc     libucrt:nlsdata.obj
 0002:00004ae0       ??_C@_03IOFIKPDN@Thu@      0000000180028ae0     libucrt:nlsdata.obj
 0002:00004ae4       ??_C@_03IDIOELNC@Fri@      0000000180028ae4     libucrt:nlsdata.obj
 0002:00004ae8       ??_C@_03FEFJNEK@Sat@       0000000180028ae8     libucrt:nlsdata.obj
 0002:00004aec       ??_C@_06OOPIFAJ@Sunday@    0000000180028aec     libucrt:nlsdata.obj
 0002:00004af4       ??_C@_06JLEDEDGH@Monday@   0000000180028af4     libucrt:nlsdata.obj
 0002:00004b00       ??_C@_07BAAGCFCM@Tuesday@  0000000180028b00     libucrt:nlsdata.obj
 0002:00004b08       ??_C@_09DLIGFAKA@Wednesday@ 0000000180028b08     libucrt:nlsdata.obj
 0002:00004b18       ??_C@_08HACCIKIA@Thursday@ 0000000180028b18     libucrt:nlsdata.obj
 0002:00004b24       ??_C@_06JECMNKMI@Friday@   0000000180028b24     libucrt:nlsdata.obj
 0002:00004b30       ??_C@_08INBOOONO@Saturday@ 0000000180028b30     libucrt:nlsdata.obj
 0002:00004b3c       ??_C@_03JIHJHPIE@Jan@      0000000180028b3c     libucrt:nlsdata.obj
 0002:00004b40       ??_C@_03HJBDCHOM@Feb@      0000000180028b40     libucrt:nlsdata.obj
 0002:00004b44       ??_C@_03ODNJBKGA@Mar@      0000000180028b44     libucrt:nlsdata.obj
 0002:00004b48       ??_C@_03LEOLGMJP@Apr@      0000000180028b48     libucrt:nlsdata.obj
 0002:00004b4c       ??_C@_03CNMDKL@May@        0000000180028b4c     libucrt:nlsdata.obj
 0002:00004b50       ??_C@_03IDFGHECI@Jun@      0000000180028b50     libucrt:nlsdata.obj
 0002:00004b54       ??_C@_03LBGABGKK@Jul@      0000000180028b54     libucrt:nlsdata.obj
 0002:00004b58       ??_C@_03IFJFEIGA@Aug@      0000000180028b58     libucrt:nlsdata.obj
 0002:00004b5c       ??_C@_03GGCAPAJC@Sep@      0000000180028b5c     libucrt:nlsdata.obj
 0002:00004b60       ??_C@_03BMAOKBAD@Oct@      0000000180028b60     libucrt:nlsdata.obj
 0002:00004b64       ??_C@_03JPJOFNIA@Nov@      0000000180028b64     libucrt:nlsdata.obj
 0002:00004b68       ??_C@_03MKABNOCG@Dec@      0000000180028b68     libucrt:nlsdata.obj
 0002:00004b70       ??_C@_07CGJPFGJA@January@  0000000180028b70     libucrt:nlsdata.obj
 0002:00004b78       ??_C@_08GNJGEPFN@February@ 0000000180028b78     libucrt:nlsdata.obj
 0002:00004b84       ??_C@_05HPCKOFNC@March@    0000000180028b84     libucrt:nlsdata.obj
 0002:00004b8c       ??_C@_05DMJDNLEJ@April@    0000000180028b8c     libucrt:nlsdata.obj
 0002:00004b94       ??_C@_04CNLMGBGM@June@     0000000180028b94     libucrt:nlsdata.obj
 0002:00004b9c       ??_C@_04MIEPOIFP@July@     0000000180028b9c     libucrt:nlsdata.obj
 0002:00004ba4       ??_C@_06LBBHFDDG@August@   0000000180028ba4     libucrt:nlsdata.obj
 0002:00004bb0       ??_C@_09BHHEALKD@September@ 0000000180028bb0     libucrt:nlsdata.obj
 0002:00004bc0       ??_C@_07JJNFCEND@October@  0000000180028bc0     libucrt:nlsdata.obj
 0002:00004bc8       ??_C@_08HCHEGEOA@November@ 0000000180028bc8     libucrt:nlsdata.obj
 0002:00004bd8       ??_C@_08EDHMEBNP@December@ 0000000180028bd8     libucrt:nlsdata.obj
 0002:00004be4       ??_C@_02DEDBPAFC@AM@       0000000180028be4     libucrt:nlsdata.obj
 0002:00004be8       ??_C@_02CJNFDJBF@PM@       0000000180028be8     libucrt:nlsdata.obj
 0002:00004bf0       ??_C@_08BPBNCDIB@MM?1dd?1yy@ 0000000180028bf0     libucrt:nlsdata.obj
 0002:00004c00       ??_C@_0BE@CKGJFCPC@dddd?0?5MMMM?5dd?0?5yyyy@ 0000000180028c00     libucrt:nlsdata.obj
 0002:00004c18       ??_C@_08JCCMCCIL@HH?3mm?3ss@ 0000000180028c18     libucrt:nlsdata.obj
 0002:00004c28       ??_C@_17MBGCMIPB@?$AAS?$AAu?$AAn@ 0000000180028c28     libucrt:nlsdata.obj
 0002:00004c30       ??_C@_17KBOMKBF@?$AAM?$AAo?$AAn@ 0000000180028c30     libucrt:nlsdata.obj
 0002:00004c38       ??_C@_17BMKGEGOJ@?$AAT?$AAu?$AAe@ 0000000180028c38     libucrt:nlsdata.obj
 0002:00004c40       ??_C@_17CJEDCEPE@?$AAW?$AAe?$AAd@ 0000000180028c40     libucrt:nlsdata.obj
 0002:00004c48       ??_C@_17PDPHAADD@?$AAT?$AAh?$AAu@ 0000000180028c48     libucrt:nlsdata.obj
 0002:00004c50       ??_C@_17HFOLPPLP@?$AAF?$AAr?$AAi@ 0000000180028c50     libucrt:nlsdata.obj
 0002:00004c58       ??_C@_17GGIBDPIH@?$AAS?$AAa?$AAt@ 0000000180028c58     libucrt:nlsdata.obj
 0002:00004c60       ??_C@_1O@IHNHDHPB@?$AAS?$AAu?$AAn?$AAd?$AAa?$AAy@ 0000000180028c60     libucrt:nlsdata.obj
 0002:00004c70       ??_C@_1O@MMNBFLIA@?$AAM?$AAo?$AAn?$AAd?$AAa?$AAy@ 0000000180028c70     libucrt:nlsdata.obj
 0002:00004c80       ??_C@_1BA@ENFBFFEK@?$AAT?$AAu?$AAe?$AAs?$AAd?$AAa?$AAy@ 0000000180028c80     libucrt:nlsdata.obj
 0002:00004c90       ??_C@_1BE@EBOGMDOH@?$AAW?$AAe?$AAd?$AAn?$AAe?$AAs?$AAd?$AAa?$AAy@ 0000000180028c90     libucrt:nlsdata.obj
 0002:00004ca8       ??_C@_1BC@HHMNLIHE@?$AAT?$AAh?$AAu?$AAr?$AAs?$AAd?$AAa?$AAy@ 0000000180028ca8     libucrt:nlsdata.obj
 0002:00004cc0       ??_C@_1O@PDICJHAG@?$AAF?$AAr?$AAi?$AAd?$AAa?$AAy@ 0000000180028cc0     libucrt:nlsdata.obj
 0002:00004cd0       ??_C@_1BC@ENMNNPAJ@?$AAS?$AAa?$AAt?$AAu?$AAr?$AAd?$AAa?$AAy@ 0000000180028cd0     libucrt:nlsdata.obj
 0002:00004ce8       ??_C@_17DKNBKCHM@?$AAJ?$AAa?$AAn@ 0000000180028ce8     libucrt:nlsdata.obj
 0002:00004cf0       ??_C@_17LMDJEKJN@?$AAF?$AAe?$AAb@ 0000000180028cf0     libucrt:nlsdata.obj
 0002:00004cf8       ??_C@_17CKNLEDEC@?$AAM?$AAa?$AAr@ 0000000180028cf8     libucrt:nlsdata.obj
 0002:00004d00       ??_C@_17LFPOIHDD@?$AAA?$AAp?$AAr@ 0000000180028d00     libucrt:nlsdata.obj
 0002:00004d08       ??_C@_17PNNKMEED@?$AAM?$AAa?$AAy@ 0000000180028d08     libucrt:nlsdata.obj
 0002:00004d10       ??_C@_17KCJGOCPB@?$AAJ?$AAu?$AAn@ 0000000180028d10     libucrt:nlsdata.obj
 0002:00004d18       ??_C@_17IJPCKHK@?$AAJ?$AAu?$AAl@ 0000000180028d18     libucrt:nlsdata.obj
 0002:00004d20       ??_C@_17ICPELBCN@?$AAA?$AAu?$AAg@ 0000000180028d20     libucrt:nlsdata.obj
 0002:00004d28       ??_C@_17HCHCOKMG@?$AAS?$AAe?$AAp@ 0000000180028d28     libucrt:nlsdata.obj
 0002:00004d30       ??_C@_17FNLKOI@?$AAO?$AAc?$AAt@ 0000000180028d30     libucrt:nlsdata.obj
 0002:00004d38       ??_C@_17BBDMLCIG@?$AAN?$AAo?$AAv@ 0000000180028d38     libucrt:nlsdata.obj
 0002:00004d40       ??_C@_17EGKACKIF@?$AAD?$AAe?$AAc@ 0000000180028d40     libucrt:nlsdata.obj
 0002:00004d48       ??_C@_1BA@EFMEIEBA@?$AAJ?$AAa?$AAn?$AAu?$AAa?$AAr?$AAy@ 0000000180028d48     libucrt:nlsdata.obj
 0002:00004d58       ??_C@_1BC@JGDDFFAM@?$AAF?$AAe?$AAb?$AAr?$AAu?$AAa?$AAr?$AAy@ 0000000180028d58     libucrt:nlsdata.obj
 0002:00004d70       ??_C@_1M@IKEENEDF@?$AAM?$AAa?$AAr?$AAc?$AAh@ 0000000180028d70     libucrt:nlsdata.obj
 0002:00004d80       ??_C@_1M@GJNLMHFD@?$AAA?$AAp?$AAr?$AAi?$AAl@ 0000000180028d80     libucrt:nlsdata.obj
 0002:00004d90       ??_C@_19EPFLPGAP@?$AAJ?$AAu?$AAn?$AAe@ 0000000180028d90     libucrt:nlsdata.obj
 0002:00004da0       ??_C@_19BIFMLPCD@?$AAJ?$AAu?$AAl?$AAy@ 0000000180028da0     libucrt:nlsdata.obj
 0002:00004db0       ??_C@_1O@PAHLKOAC@?$AAA?$AAu?$AAg?$AAu?$AAs?$AAt@ 0000000180028db0     libucrt:nlsdata.obj
 0002:00004dc0       ??_C@_1BE@DKAAMBJL@?$AAS?$AAe?$AAp?$AAt?$AAe?$AAm?$AAb?$AAe?$AAr@ 0000000180028dc0     libucrt:nlsdata.obj
 0002:00004dd8       ??_C@_1BA@EPANDLNG@?$AAO?$AAc?$AAt?$AAo?$AAb?$AAe?$AAr@ 0000000180028dd8     libucrt:nlsdata.obj
 0002:00004de8       ??_C@_1BC@BGLIFPF@?$AAN?$AAo?$AAv?$AAe?$AAm?$AAb?$AAe?$AAr@ 0000000180028de8     libucrt:nlsdata.obj
 0002:00004e00       ??_C@_1BC@FEMKIFH@?$AAD?$AAe?$AAc?$AAe?$AAm?$AAb?$AAe?$AAr@ 0000000180028e00     libucrt:nlsdata.obj
 0002:00004e14       ??_C@_15ODEHAHHF@?$AAA?$AAM@ 0000000180028e14     libucrt:nlsdata.obj
 0002:00004e1c       ??_C@_15CLMNNGEL@?$AAP?$AAM@ 0000000180028e1c     libucrt:nlsdata.obj
 0002:00004e28       ??_C@_1BC@IEBCMHCM@?$AAM?$AAM?$AA?1?$AAd?$AAd?$AA?1?$AAy?$AAy@ 0000000180028e28     libucrt:nlsdata.obj
 0002:00004e40       ??_C@_1CI@KNAKOEBC@?$AAd?$AAd?$AAd?$AAd?$AA?0?$AA?5?$AAM?$AAM?$AAM?$AAM?$AA?5?$AAd?$AAd?$AA?0?$AA?5@ 0000000180028e40     libucrt:nlsdata.obj
 0002:00004e68       ??_C@_1BC@GDGBMEMK@?$AAH?$AAH?$AA?3?$AAm?$AAm?$AA?3?$AAs?$AAs@ 0000000180028e68     libucrt:nlsdata.obj
 0002:00004e80       ??_C@_1M@BMHNFIME@?$AAe?$AAn?$AA?9?$AAU?$AAS@ 0000000180028e80     libucrt:nlsdata.obj
 0002:00004eb0       ??_C@_1M@HPNHIDJI@?$AAj?$AAa?$AA?9?$AAJ?$AAP@ 0000000180028eb0     libucrt:mbctype.obj
 0002:00004ec0       ??_C@_1M@BIBDDEMK@?$AAz?$AAh?$AA?9?$AAC?$AAN@ 0000000180028ec0     libucrt:mbctype.obj
 0002:00004ed0       ??_C@_1M@JLOOOEGK@?$AAk?$AAo?$AA?9?$AAK?$AAR@ 0000000180028ed0     libucrt:mbctype.obj
 0002:00004ee0       ??_C@_1M@CLNBBOPM@?$AAz?$AAh?$AA?9?$AAT?$AAW@ 0000000180028ee0     libucrt:mbctype.obj
 0002:00004ef0       __newctype                 0000000180028ef0     libucrt:ctype.obj
 0002:000051f0       __newclmap                 00000001800291f0     libucrt:ctype.obj
 0002:00005370       __newcumap                 0000000180029370     libucrt:ctype.obj
 0002:000054f0       _wctype                    00000001800294f0     libucrt:ctype.obj
 0002:00006540       ??_C@_15EMKDOKLE@?$AAa?$AAr@ 000000018002a540     libucrt:lcidtoname_downlevel.obj
 0002:00006548       ??_C@_15KNPADPLH@?$AAb?$AAg@ 000000018002a548     libucrt:lcidtoname_downlevel.obj
 0002:00006550       ??_C@_15EDMHLDMO@?$AAc?$AAa@ 000000018002a550     libucrt:lcidtoname_downlevel.obj
 0002:00006558       ??_C@_1O@BPEAJADD@?$AAz?$AAh?$AA?9?$AAC?$AAH?$AAS@ 000000018002a558     libucrt:lcidtoname_downlevel.obj
 0002:00006568       ??_C@_15LJNHCMNK@?$AAc?$AAs@ 000000018002a568     libucrt:lcidtoname_downlevel.obj
 0002:00006570       ??_C@_15FOMCIDHG@?$AAd?$AAa@ 000000018002a570     libucrt:lcidtoname_downlevel.obj
 0002:00006578       ??_C@_15NBKABECB@?$AAd?$AAe@ 000000018002a578     libucrt:lcidtoname_downlevel.obj
 0002:00006580       ??_C@_15GHPEIIAO@?$AAe?$AAl@ 000000018002a580     libucrt:lcidtoname_downlevel.obj
 0002:00006588       ??_C@_15MNPNEAIF@?$AAe?$AAn@ 000000018002a588     libucrt:lcidtoname_downlevel.obj
 0002:00006590       ??_C@_15GPIOMPMH@?$AAe?$AAs@ 000000018002a590     libucrt:lcidtoname_downlevel.obj
 0002:00006598       ??_C@_15NGLOAKJC@?$AAf?$AAi@ 000000018002a598     libucrt:lcidtoname_downlevel.obj
 0002:000065a0       ??_C@_15FBKGNKAM@?$AAf?$AAr@ 000000018002a5a0     libucrt:lcidtoname_downlevel.obj
 0002:000065a8       ??_C@_15KGGCNEFK@?$AAh?$AAe@ 000000018002a5a8     libucrt:lcidtoname_downlevel.obj
 0002:000065b0       ??_C@_15PGHLIDMF@?$AAh?$AAu@ 000000018002a5b0     libucrt:lcidtoname_downlevel.obj
 0002:000065b8       ??_C@_15BIEMAPLM@?$AAi?$AAs@ 000000018002a5b8     libucrt:lcidtoname_downlevel.obj
 0002:000065c0       ??_C@_15IFJLDHAF@?$AAi?$AAt@ 000000018002a5c0     libucrt:lcidtoname_downlevel.obj
 0002:000065c8       ??_C@_15GEMIOCAG@?$AAj?$AAa@ 000000018002a5c8     libucrt:lcidtoname_downlevel.obj
 0002:000065d0       ??_C@_15EPELEGJA@?$AAk?$AAo@ 000000018002a5d0     libucrt:lcidtoname_downlevel.obj
 0002:000065d8       ??_C@_15NDDHIMN@?$AAn?$AAl@ 000000018002a5d8     libucrt:lcidtoname_downlevel.obj
 0002:000065e0       ??_C@_15BPIGNHCD@?$AAn?$AAo@ 000000018002a5e0     libucrt:lcidtoname_downlevel.obj
 0002:000065e8       ??_C@_15DEOPBLCG@?$AAp?$AAl@ 000000018002a5e8     libucrt:lcidtoname_downlevel.obj
 0002:000065f0       ??_C@_15KBECGEFG@?$AAp?$AAt@ 000000018002a5f0     libucrt:lcidtoname_downlevel.obj
 0002:000065f8       ??_C@_15GLJCBFMD@?$AAr?$AAo@ 000000018002a5f8     libucrt:lcidtoname_downlevel.obj
 0002:00006600       ??_C@_15FEDGKCDI@?$AAr?$AAu@ 000000018002a600     libucrt:lcidtoname_downlevel.obj
 0002:00006608       ??_C@_15GLKMLLHM@?$AAh?$AAr@ 000000018002a608     libucrt:lcidtoname_downlevel.obj
 0002:00006610       ??_C@_15CPKMFBDB@?$AAs?$AAk@ 000000018002a610     libucrt:lcidtoname_downlevel.obj
 0002:00006618       ??_C@_15BAAIOGMK@?$AAs?$AAq@ 000000018002a618     libucrt:lcidtoname_downlevel.obj
 0002:00006620       ??_C@_15INNPNOHD@?$AAs?$AAv@ 000000018002a620     libucrt:lcidtoname_downlevel.obj
 0002:00006628       ??_C@_15CABMMOGH@?$AAt?$AAh@ 000000018002a628     libucrt:lcidtoname_downlevel.obj
 0002:00006630       ??_C@_15BPLIHJJM@?$AAt?$AAr@ 000000018002a630     libucrt:lcidtoname_downlevel.obj
 0002:00006638       ??_C@_15NEOEKKDJ@?$AAu?$AAr@ 000000018002a638     libucrt:lcidtoname_downlevel.obj
 0002:00006640       ??_C@_15NFICGAJK@?$AAi?$AAd@ 000000018002a640     libucrt:lcidtoname_downlevel.obj
 0002:00006648       ??_C@_15PJPFLCCM@?$AAu?$AAk@ 000000018002a648     libucrt:lcidtoname_downlevel.obj
 0002:00006650       ??_C@_15HPJPHDM@?$AAb?$AAe@ 000000018002a650     libucrt:lcidtoname_downlevel.obj
 0002:00006658       ??_C@_15LCHLGJII@?$AAs?$AAl@ 000000018002a658     libucrt:lcidtoname_downlevel.obj
 0002:00006660       ??_C@_15PCFJPHHO@?$AAe?$AAt@ 000000018002a660     libucrt:lcidtoname_downlevel.obj
 0002:00006668       ??_C@_15HPFPGODN@?$AAl?$AAv@ 000000018002a668     libucrt:lcidtoname_downlevel.obj
 0002:00006670       ??_C@_15NFFGKGLG@?$AAl?$AAt@ 000000018002a670     libucrt:lcidtoname_downlevel.obj
 0002:00006678       ??_C@_15BDAKCCHN@?$AAf?$AAa@ 000000018002a678     libucrt:lcidtoname_downlevel.obj
 0002:00006680       ??_C@_15NFGIAIAJ@?$AAv?$AAi@ 000000018002a680     libucrt:lcidtoname_downlevel.obj
 0002:00006688       ??_C@_15LMKNDMHN@?$AAh?$AAy@ 000000018002a688     libucrt:lcidtoname_downlevel.obj
 0002:00006690       ??_C@_15IJBHMCFL@?$AAa?$AAz@ 000000018002a690     libucrt:lcidtoname_downlevel.obj
 0002:00006698       ??_C@_15EKOFJABL@?$AAe?$AAu@ 000000018002a698     libucrt:lcidtoname_downlevel.obj
 0002:000066a0       ??_C@_15BGHADCNK@?$AAm?$AAk@ 000000018002a6a0     libucrt:lcidtoname_downlevel.obj
 0002:000066a8       ??_C@_15JDNICKHM@?$AAa?$AAf@ 000000018002a6a8     libucrt:lcidtoname_downlevel.obj
 0002:000066b0       ??_C@_15KPJEDBKD@?$AAk?$AAa@ 000000018002a6b0     libucrt:lcidtoname_downlevel.obj
 0002:000066b8       ??_C@_15PDNFFFEO@?$AAf?$AAo@ 000000018002a6b8     libucrt:lcidtoname_downlevel.obj
 0002:000066c0       ??_C@_15OMLEGLOC@?$AAh?$AAi@ 000000018002a6c0     libucrt:lcidtoname_downlevel.obj
 0002:000066c8       ??_C@_15IDNNENKK@?$AAm?$AAs@ 000000018002a6c8     libucrt:lcidtoname_downlevel.obj
 0002:000066d0       ??_C@_15MACJNBMH@?$AAk?$AAk@ 000000018002a6d0     libucrt:lcidtoname_downlevel.obj
 0002:000066d8       ??_C@_15DKDJEOND@?$AAk?$AAy@ 000000018002a6d8     libucrt:lcidtoname_downlevel.obj
 0002:000066e0       ??_C@_15DFGDLJBG@?$AAs?$AAw@ 000000018002a6e0     libucrt:lcidtoname_downlevel.obj
 0002:000066e8       ??_C@_15BBFAICNG@?$AAu?$AAz@ 000000018002a6e8     libucrt:lcidtoname_downlevel.obj
 0002:000066f0       ??_C@_15DKNDCGEA@?$AAt?$AAt@ 000000018002a6f0     libucrt:lcidtoname_downlevel.obj
 0002:000066f8       ??_C@_15MGIFMDPL@?$AAp?$AAa@ 000000018002a6f8     libucrt:lcidtoname_downlevel.obj
 0002:00006700       ??_C@_15HCNDBBA@?$AAg?$AAu@ 000000018002a700     libucrt:lcidtoname_downlevel.obj
 0002:00006708       ??_C@_15FNBEIBON@?$AAt?$AAa@ 000000018002a708     libucrt:lcidtoname_downlevel.obj
 0002:00006710       ??_C@_15NCHGBGLK@?$AAt?$AAe@ 000000018002a710     libucrt:lcidtoname_downlevel.obj
 0002:00006718       ??_C@_15PHPHCBPF@?$AAk?$AAn@ 000000018002a718     libucrt:lcidtoname_downlevel.obj
 0002:00006720       ??_C@_15DLGBCKMP@?$AAm?$AAr@ 000000018002a720     libucrt:lcidtoname_downlevel.obj
 0002:00006728       ??_C@_15EABBLBFF@?$AAs?$AAa@ 000000018002a728     libucrt:lcidtoname_downlevel.obj
 0002:00006730       ??_C@_15CBKOMCOI@?$AAm?$AAn@ 000000018002a730     libucrt:lcidtoname_downlevel.obj
 0002:00006738       ??_C@_15CKDMCJAF@?$AAg?$AAl@ 000000018002a738     libucrt:lcidtoname_downlevel.obj
 0002:00006740       ??_C@_17CNJFBPG@?$AAk?$AAo?$AAk@ 000000018002a740     libucrt:lcidtoname_downlevel.obj
 0002:00006748       ??_C@_17FFBJICPL@?$AAs?$AAy?$AAr@ 000000018002a748     libucrt:lcidtoname_downlevel.obj
 0002:00006750       ??_C@_17KPNDCPAF@?$AAd?$AAi?$AAv@ 000000018002a750     libucrt:lcidtoname_downlevel.obj
 0002:00006758       ??_C@_1M@OKAHONE@?$AAa?$AAr?$AA?9?$AAS?$AAA@ 000000018002a758     libucrt:lcidtoname_downlevel.obj
 0002:00006768       ??_C@_1M@FFFIGIGK@?$AAb?$AAg?$AA?9?$AAB?$AAG@ 000000018002a768     libucrt:lcidtoname_downlevel.obj
 0002:00006778       ??_C@_1M@BJNKEDC@?$AAc?$AAa?$AA?9?$AAE?$AAS@ 000000018002a778     libucrt:lcidtoname_downlevel.obj
 0002:00006788       ??_C@_1M@IJJHFJHA@?$AAc?$AAs?$AA?9?$AAC?$AAZ@ 000000018002a788     libucrt:lcidtoname_downlevel.obj
 0002:00006798       ??_C@_1M@CLPEOBGI@?$AAd?$AAa?$AA?9?$AAD?$AAK@ 000000018002a798     libucrt:lcidtoname_downlevel.obj
 0002:000067a8       ??_C@_1M@MCMADGCB@?$AAd?$AAe?$AA?9?$AAD?$AAE@ 000000018002a7a8     libucrt:lcidtoname_downlevel.obj
 0002:000067b8       ??_C@_1M@OOCKEMAM@?$AAe?$AAl?$AA?9?$AAG?$AAR@ 000000018002a7b8     libucrt:lcidtoname_downlevel.obj
 0002:000067c8       ??_C@_1M@DDNJFGID@?$AAf?$AAi?$AA?9?$AAF?$AAI@ 000000018002a7c8     libucrt:lcidtoname_downlevel.obj
 0002:000067d8       ??_C@_1M@GLIPPMAC@?$AAf?$AAr?$AA?9?$AAF?$AAR@ 000000018002a7d8     libucrt:lcidtoname_downlevel.obj
 0002:000067e8       ??_C@_1M@GFMCHPE@?$AAh?$AAe?$AA?9?$AAI?$AAL@ 000000018002a7e8     libucrt:lcidtoname_downlevel.obj
 0002:000067f8       ??_C@_1M@MHLPGNKM@?$AAh?$AAu?$AA?9?$AAH?$AAU@ 000000018002a7f8     libucrt:lcidtoname_downlevel.obj
 0002:00006808       ??_C@_1M@LPDDNNPN@?$AAi?$AAs?$AA?9?$AAI?$AAS@ 000000018002a808     libucrt:lcidtoname_downlevel.obj
 0002:00006818       ??_C@_1M@MADIPODN@?$AAi?$AAt?$AA?9?$AAI?$AAT@ 000000018002a818     libucrt:lcidtoname_downlevel.obj
 0002:00006828       ??_C@_1M@IHBJJGG@?$AAn?$AAl?$AA?9?$AAN?$AAL@ 000000018002a828     libucrt:lcidtoname_downlevel.obj
 0002:00006838       ??_C@_1M@EANAGDL@?$AAn?$AAb?$AA?9?$AAN?$AAO@ 000000018002a838     libucrt:lcidtoname_downlevel.obj
 0002:00006848       ??_C@_1M@NEIEMEGP@?$AAp?$AAl?$AA?9?$AAP?$AAL@ 000000018002a848     libucrt:lcidtoname_downlevel.obj
 0002:00006858       ??_C@_1M@BOCFIGEP@?$AAp?$AAt?$AA?9?$AAB?$AAR@ 000000018002a858     libucrt:lcidtoname_downlevel.obj
 0002:00006868       ??_C@_1M@IMPFOPBG@?$AAr?$AAo?$AA?9?$AAR?$AAO@ 000000018002a868     libucrt:lcidtoname_downlevel.obj
 0002:00006878       ??_C@_1M@IDNNEJMM@?$AAr?$AAu?$AA?9?$AAR?$AAU@ 000000018002a878     libucrt:lcidtoname_downlevel.obj
 0002:00006888       ??_C@_1M@LILEEOGM@?$AAh?$AAr?$AA?9?$AAH?$AAR@ 000000018002a888     libucrt:lcidtoname_downlevel.obj
 0002:00006898       ??_C@_1M@FKIFEHPB@?$AAs?$AAk?$AA?9?$AAS?$AAK@ 000000018002a898     libucrt:lcidtoname_downlevel.obj
 0002:000068a8       ??_C@_1M@LJMAMNPJ@?$AAs?$AAq?$AA?9?$AAA?$AAL@ 000000018002a8a8     libucrt:lcidtoname_downlevel.obj
 0002:000068b8       ??_C@_1M@GIAKDKJK@?$AAs?$AAv?$AA?9?$AAS?$AAE@ 000000018002a8b8     libucrt:lcidtoname_downlevel.obj
 0002:000068c8       ??_C@_1M@MKJKIKCL@?$AAt?$AAh?$AA?9?$AAT?$AAH@ 000000018002a8c8     libucrt:lcidtoname_downlevel.obj
 0002:000068d8       ??_C@_1M@MFLCCMPB@?$AAt?$AAr?$AA?9?$AAT?$AAR@ 000000018002a8d8     libucrt:lcidtoname_downlevel.obj
 0002:000068e8       ??_C@_1M@OIJHDKJN@?$AAu?$AAr?$AA?9?$AAP?$AAK@ 000000018002a8e8     libucrt:lcidtoname_downlevel.obj
 0002:000068f8       ??_C@_1M@LHIPCIEK@?$AAi?$AAd?$AA?9?$AAI?$AAD@ 000000018002a8f8     libucrt:lcidtoname_downlevel.obj
 0002:00006908       ??_C@_1M@MFMOBGI@?$AAu?$AAk?$AA?9?$AAU?$AAA@ 000000018002a908     libucrt:lcidtoname_downlevel.obj
 0002:00006918       ??_C@_1M@OBGLJIPL@?$AAb?$AAe?$AA?9?$AAB?$AAY@ 000000018002a918     libucrt:lcidtoname_downlevel.obj
 0002:00006928       ??_C@_1M@BCFAJEAD@?$AAs?$AAl?$AA?9?$AAS?$AAI@ 000000018002a928     libucrt:lcidtoname_downlevel.obj
 0002:00006938       ??_C@_1M@FKFFEDDN@?$AAe?$AAt?$AA?9?$AAE?$AAE@ 000000018002a938     libucrt:lcidtoname_downlevel.obj
 0002:00006948       ??_C@_1M@KGKKAACI@?$AAl?$AAv?$AA?9?$AAL?$AAV@ 000000018002a948     libucrt:lcidtoname_downlevel.obj
 0002:00006958       ??_C@_1M@IFGBIJO@?$AAl?$AAt?$AA?9?$AAL?$AAT@ 000000018002a958     libucrt:lcidtoname_downlevel.obj
 0002:00006968       ??_C@_1M@FGEAHEDM@?$AAf?$AAa?$AA?9?$AAI?$AAR@ 000000018002a968     libucrt:lcidtoname_downlevel.obj
 0002:00006978       ??_C@_1M@KBMAIBFN@?$AAv?$AAi?$AA?9?$AAV?$AAN@ 000000018002a978     libucrt:lcidtoname_downlevel.obj
 0002:00006988       ??_C@_1M@GPCBKDJK@?$AAh?$AAy?$AA?9?$AAA?$AAM@ 000000018002a988     libucrt:lcidtoname_downlevel.obj
 0002:00006998       ??_C@_1BG@BECMDDJB@?$AAa?$AAz?$AA?9?$AAA?$AAZ?$AA?9?$AAL?$AAa?$AAt?$AAn@ 000000018002a998     libucrt:lcidtoname_downlevel.obj
 0002:000069b0       ??_C@_1M@MAOFCAEA@?$AAe?$AAu?$AA?9?$AAE?$AAS@ 000000018002a9b0     libucrt:lcidtoname_downlevel.obj
 0002:000069c0       ??_C@_1M@IGHABKPI@?$AAm?$AAk?$AA?9?$AAM?$AAK@ 000000018002a9c0     libucrt:lcidtoname_downlevel.obj
 0002:000069d0       ??_C@_1M@IAIGNEJG@?$AAt?$AAn?$AA?9?$AAZ?$AAA@ 000000018002a9d0     libucrt:lcidtoname_downlevel.obj
 0002:000069e0       ??_C@_1M@IIJCOJFA@?$AAx?$AAh?$AA?9?$AAZ?$AAA@ 000000018002a9e0     libucrt:lcidtoname_downlevel.obj
 0002:000069f0       ??_C@_1M@LGPJHNJH@?$AAz?$AAu?$AA?9?$AAZ?$AAA@ 000000018002a9f0     libucrt:lcidtoname_downlevel.obj
 0002:00006a00       ??_C@_1M@HOKAOIO@?$AAa?$AAf?$AA?9?$AAZ?$AAA@ 000000018002aa00     libucrt:lcidtoname_downlevel.obj
 0002:00006a10       ??_C@_1M@DPCLHLIE@?$AAk?$AAa?$AA?9?$AAG?$AAE@ 000000018002aa10     libucrt:lcidtoname_downlevel.obj
 0002:00006a20       ??_C@_1M@BLKMHJBI@?$AAf?$AAo?$AA?9?$AAF?$AAO@ 000000018002aa20     libucrt:lcidtoname_downlevel.obj
 0002:00006a30       ??_C@_1M@LGGJAPPB@?$AAh?$AAi?$AA?9?$AAI?$AAN@ 000000018002aa30     libucrt:lcidtoname_downlevel.obj
 0002:00006a40       ??_C@_1M@FIKPIHFE@?$AAm?$AAt?$AA?9?$AAM?$AAT@ 000000018002aa40     libucrt:lcidtoname_downlevel.obj
 0002:00006a50       ??_C@_1M@HEGGPBFA@?$AAs?$AAe?$AA?9?$AAN?$AAO@ 000000018002aa50     libucrt:lcidtoname_downlevel.obj
 0002:00006a60       ??_C@_1M@EIBJEEPA@?$AAm?$AAs?$AA?9?$AAM?$AAY@ 000000018002aa60     libucrt:lcidtoname_downlevel.obj
 0002:00006a70       ??_C@_1M@FHLBGMPP@?$AAk?$AAk?$AA?9?$AAK?$AAZ@ 000000018002aa70     libucrt:lcidtoname_downlevel.obj
 0002:00006a80       ??_C@_1M@NGJJLCGI@?$AAk?$AAy?$AA?9?$AAK?$AAG@ 000000018002aa80     libucrt:lcidtoname_downlevel.obj
 0002:00006a90       ??_C@_1M@GIENNBFC@?$AAs?$AAw?$AA?9?$AAK?$AAE@ 000000018002aa90     libucrt:lcidtoname_downlevel.obj
 0002:00006aa0       ??_C@_1BG@NDGMJIMJ@?$AAu?$AAz?$AA?9?$AAU?$AAZ?$AA?9?$AAL?$AAa?$AAt?$AAn@ 000000018002aaa0     libucrt:lcidtoname_downlevel.obj
 0002:00006ab8       ??_C@_1M@IDCCIHBC@?$AAt?$AAt?$AA?9?$AAR?$AAU@ 000000018002aab8     libucrt:lcidtoname_downlevel.obj
 0002:00006ac8       ??_C@_1M@LOICPMOJ@?$AAb?$AAn?$AA?9?$AAI?$AAN@ 000000018002aac8     libucrt:lcidtoname_downlevel.obj
 0002:00006ad8       ??_C@_1M@KPKKNEAH@?$AAp?$AAa?$AA?9?$AAI?$AAN@ 000000018002aad8     libucrt:lcidtoname_downlevel.obj
 0002:00006ae8       ??_C@_1M@PJGPPBOG@?$AAg?$AAu?$AA?9?$AAI?$AAN@ 000000018002aae8     libucrt:lcidtoname_downlevel.obj
 0002:00006af8       ??_C@_1M@KMKMOPHI@?$AAt?$AAa?$AA?9?$AAI?$AAN@ 000000018002aaf8     libucrt:lcidtoname_downlevel.obj
 0002:00006b08       ??_C@_1M@KFEHEPAC@?$AAt?$AAe?$AA?9?$AAI?$AAN@ 000000018002ab08     libucrt:lcidtoname_downlevel.obj
 0002:00006b18       ??_C@_1M@CDCLMGHI@?$AAk?$AAn?$AA?9?$AAI?$AAN@ 000000018002ab18     libucrt:lcidtoname_downlevel.obj
 0002:00006b28       ??_C@_1M@MIODLDKF@?$AAm?$AAl?$AA?9?$AAI?$AAN@ 000000018002ab28     libucrt:lcidtoname_downlevel.obj
 0002:00006b38       ??_C@_1M@PBIEACPO@?$AAm?$AAr?$AA?9?$AAI?$AAN@ 000000018002ab38     libucrt:lcidtoname_downlevel.obj
 0002:00006b48       ??_C@_1M@NIDEAGPH@?$AAs?$AAa?$AA?9?$AAI?$AAN@ 000000018002ab48     libucrt:lcidtoname_downlevel.obj
 0002:00006b58       ??_C@_1M@FHIHCBIO@?$AAm?$AAn?$AA?9?$AAM?$AAN@ 000000018002ab58     libucrt:lcidtoname_downlevel.obj
 0002:00006b68       ??_C@_1M@JAIJPENP@?$AAc?$AAy?$AA?9?$AAG?$AAB@ 000000018002ab68     libucrt:lcidtoname_downlevel.obj
 0002:00006b78       ??_C@_1M@PHGFBEPN@?$AAg?$AAl?$AA?9?$AAE?$AAS@ 000000018002ab78     libucrt:lcidtoname_downlevel.obj
 0002:00006b88       ??_C@_1O@KPIPDNCP@?$AAk?$AAo?$AAk?$AA?9?$AAI?$AAN@ 000000018002ab88     libucrt:lcidtoname_downlevel.obj
 0002:00006b98       ??_C@_1O@KNHJLDJA@?$AAs?$AAy?$AAr?$AA?9?$AAS?$AAY@ 000000018002ab98     libucrt:lcidtoname_downlevel.obj
 0002:00006ba8       ??_C@_1O@MKEKBLAH@?$AAd?$AAi?$AAv?$AA?9?$AAM?$AAV@ 000000018002aba8     libucrt:lcidtoname_downlevel.obj
 0002:00006bb8       ??_C@_1O@OHDCKDDF@?$AAq?$AAu?$AAz?$AA?9?$AAB?$AAO@ 000000018002abb8     libucrt:lcidtoname_downlevel.obj
 0002:00006bc8       ??_C@_1M@LEPJNLFD@?$AAn?$AAs?$AA?9?$AAZ?$AAA@ 000000018002abc8     libucrt:lcidtoname_downlevel.obj
 0002:00006bd8       ??_C@_1M@OMLEIIJB@?$AAm?$AAi?$AA?9?$AAN?$AAZ@ 000000018002abd8     libucrt:lcidtoname_downlevel.obj
 0002:00006be8       ??_C@_1M@PMPEAILG@?$AAa?$AAr?$AA?9?$AAI?$AAQ@ 000000018002abe8     libucrt:lcidtoname_downlevel.obj
 0002:00006bf8       ??_C@_1M@CNKPNOEE@?$AAd?$AAe?$AA?9?$AAC?$AAH@ 000000018002abf8     libucrt:lcidtoname_downlevel.obj
 0002:00006c08       ??_C@_1M@LKMGMLKO@?$AAe?$AAn?$AA?9?$AAG?$AAB@ 000000018002ac08     libucrt:lcidtoname_downlevel.obj
 0002:00006c18       ??_C@_1M@PGKJFFGL@?$AAe?$AAs?$AA?9?$AAM?$AAX@ 000000018002ac18     libucrt:lcidtoname_downlevel.obj
 0002:00006c28       ??_C@_1M@DNNANBDC@?$AAf?$AAr?$AA?9?$AAB?$AAE@ 000000018002ac28     libucrt:lcidtoname_downlevel.obj
 0002:00006c38       ??_C@_1M@HLGMDFHM@?$AAi?$AAt?$AA?9?$AAC?$AAH@ 000000018002ac38     libucrt:lcidtoname_downlevel.obj
 0002:00006c48       ??_C@_1M@CLLBGJH@?$AAn?$AAl?$AA?9?$AAB?$AAE@ 000000018002ac48     libucrt:lcidtoname_downlevel.obj
 0002:00006c58       ??_C@_1M@BODBOGLF@?$AAn?$AAn?$AA?9?$AAN?$AAO@ 000000018002ac58     libucrt:lcidtoname_downlevel.obj
 0002:00006c68       ??_C@_1M@HFFAHKAD@?$AAp?$AAt?$AA?9?$AAP?$AAT@ 000000018002ac68     libucrt:lcidtoname_downlevel.obj
 0002:00006c78       ??_C@_1BG@LNOAKHIE@?$AAs?$AAr?$AA?9?$AAS?$AAP?$AA?9?$AAL?$AAa?$AAt?$AAn@ 000000018002ac78     libucrt:lcidtoname_downlevel.obj
 0002:00006c90       ??_C@_1M@HBMHBGAK@?$AAs?$AAv?$AA?9?$AAF?$AAI@ 000000018002ac90     libucrt:lcidtoname_downlevel.obj
 0002:00006ca0       ??_C@_1BG@DGCJGJBE@?$AAa?$AAz?$AA?9?$AAA?$AAZ?$AA?9?$AAC?$AAy?$AAr?$AAl@ 000000018002aca0     libucrt:lcidtoname_downlevel.obj
 0002:00006cb8       ??_C@_1M@KEJDAAHB@?$AAs?$AAe?$AA?9?$AAS?$AAE@ 000000018002acb8     libucrt:lcidtoname_downlevel.obj
 0002:00006cc8       ??_C@_1M@HEIBJJAD@?$AAm?$AAs?$AA?9?$AAB?$AAN@ 000000018002acc8     libucrt:lcidtoname_downlevel.obj
 0002:00006cd8       ??_C@_1BG@PBGJMCEM@?$AAu?$AAz?$AA?9?$AAU?$AAZ?$AA?9?$AAC?$AAy?$AAr?$AAl@ 000000018002acd8     libucrt:lcidtoname_downlevel.obj
 0002:00006cf0       ??_C@_1O@LAOBCMDF@?$AAq?$AAu?$AAz?$AA?9?$AAE?$AAC@ 000000018002acf0     libucrt:lcidtoname_downlevel.obj
 0002:00006d00       ??_C@_1M@POEEMAIO@?$AAa?$AAr?$AA?9?$AAE?$AAG@ 000000018002ad00     libucrt:lcidtoname_downlevel.obj
 0002:00006d10       ??_C@_1M@EFAKDEDL@?$AAz?$AAh?$AA?9?$AAH?$AAK@ 000000018002ad10     libucrt:lcidtoname_downlevel.obj
 0002:00006d20       ??_C@_1M@HKKIJHGI@?$AAd?$AAe?$AA?9?$AAA?$AAT@ 000000018002ad20     libucrt:lcidtoname_downlevel.obj
 0002:00006d30       ??_C@_1M@KBFBEHJF@?$AAe?$AAn?$AA?9?$AAA?$AAU@ 000000018002ad30     libucrt:lcidtoname_downlevel.obj
 0002:00006d40       ??_C@_1M@MNPLFAAH@?$AAe?$AAs?$AA?9?$AAE?$AAS@ 000000018002ad40     libucrt:lcidtoname_downlevel.obj
 0002:00006d50       ??_C@_1M@HJOOJFMA@?$AAf?$AAr?$AA?9?$AAC?$AAA@ 000000018002ad50     libucrt:lcidtoname_downlevel.obj
 0002:00006d60       ??_C@_1BG@JPOFPNAB@?$AAs?$AAr?$AA?9?$AAS?$AAP?$AA?9?$AAC?$AAy?$AAr?$AAl@ 000000018002ad60     libucrt:lcidtoname_downlevel.obj
 0002:00006d78       ??_C@_1M@LNFOCMOB@?$AAs?$AAe?$AA?9?$AAF?$AAI@ 000000018002ad78     libucrt:lcidtoname_downlevel.obj
 0002:00006d88       ??_C@_1O@MGJBOAMB@?$AAq?$AAu?$AAz?$AA?9?$AAP?$AAE@ 000000018002ad88     libucrt:lcidtoname_downlevel.obj
 0002:00006d98       ??_C@_1M@GJINLBOK@?$AAa?$AAr?$AA?9?$AAL?$AAY@ 000000018002ad98     libucrt:lcidtoname_downlevel.obj
 0002:00006da8       ??_C@_1M@GGMNHJNL@?$AAz?$AAh?$AA?9?$AAS?$AAG@ 000000018002ada8     libucrt:lcidtoname_downlevel.obj
 0002:00006db8       ??_C@_1M@HOIKODND@?$AAd?$AAe?$AA?9?$AAL?$AAU@ 000000018002adb8     libucrt:lcidtoname_downlevel.obj
 0002:00006dc8       ??_C@_1M@DDOCCGFG@?$AAe?$AAn?$AA?9?$AAC?$AAA@ 000000018002adc8     libucrt:lcidtoname_downlevel.obj
 0002:00006dd8       ??_C@_1M@BNOEMJLF@?$AAe?$AAs?$AA?9?$AAG?$AAT@ 000000018002add8     libucrt:lcidtoname_downlevel.obj
 0002:00006de8       ??_C@_1M@EOGNKEK@?$AAf?$AAr?$AA?9?$AAC?$AAH@ 000000018002ade8     libucrt:lcidtoname_downlevel.obj
 0002:00006df8       ??_C@_1M@FLIDJFHL@?$AAh?$AAr?$AA?9?$AAB?$AAA@ 000000018002adf8     libucrt:lcidtoname_downlevel.obj
 0002:00006e08       ??_C@_1O@FMCELNAJ@?$AAs?$AAm?$AAj?$AA?9?$AAN?$AAO@ 000000018002ae08     libucrt:lcidtoname_downlevel.obj
 0002:00006e18       ??_C@_1M@JHGLJMGJ@?$AAa?$AAr?$AA?9?$AAD?$AAZ@ 000000018002ae18     libucrt:lcidtoname_downlevel.obj
 0002:00006e28       ??_C@_1M@JKKFDCNP@?$AAz?$AAh?$AA?9?$AAM?$AAO@ 000000018002ae28     libucrt:lcidtoname_downlevel.obj
 0002:00006e38       ??_C@_1M@GEEFALPE@?$AAd?$AAe?$AA?9?$AAL?$AAI@ 000000018002ae38     libucrt:lcidtoname_downlevel.obj
 0002:00006e48       ??_C@_1M@IGEOFBG@?$AAe?$AAn?$AA?9?$AAN?$AAZ@ 000000018002ae48     libucrt:lcidtoname_downlevel.obj
 0002:00006e58       ??_C@_1M@KDBONEHP@?$AAe?$AAs?$AA?9?$AAC?$AAR@ 000000018002ae58     libucrt:lcidtoname_downlevel.obj
 0002:00006e68       ??_C@_1M@FHMDOHNN@?$AAf?$AAr?$AA?9?$AAL?$AAU@ 000000018002ae68     libucrt:lcidtoname_downlevel.obj
 0002:00006e78       ??_C@_1BG@NFKKMAFG@?$AAb?$AAs?$AA?9?$AAB?$AAA?$AA?9?$AAL?$AAa?$AAt?$AAn@ 000000018002ae78     libucrt:lcidtoname_downlevel.obj
 0002:00006e90       ??_C@_1O@IMNBEMCI@?$AAs?$AAm?$AAj?$AA?9?$AAS?$AAE@ 000000018002ae90     libucrt:lcidtoname_downlevel.obj
 0002:00006ea0       ??_C@_1M@DHHMBNDP@?$AAa?$AAr?$AA?9?$AAM?$AAA@ 000000018002aea0     libucrt:lcidtoname_downlevel.obj
 0002:00006eb0       ??_C@_1M@BNBLJCGH@?$AAe?$AAn?$AA?9?$AAI?$AAE@ 000000018002aeb0     libucrt:lcidtoname_downlevel.obj
 0002:00006ec0       ??_C@_1M@GEPAFMDL@?$AAe?$AAs?$AA?9?$AAP?$AAA@ 000000018002aec0     libucrt:lcidtoname_downlevel.obj
 0002:00006ed0       ??_C@_1M@OJONDMDL@?$AAf?$AAr?$AA?9?$AAM?$AAC@ 000000018002aed0     libucrt:lcidtoname_downlevel.obj
 0002:00006ee0       ??_C@_1BG@OBCNFJB@?$AAs?$AAr?$AA?9?$AAB?$AAA?$AA?9?$AAL?$AAa?$AAt?$AAn@ 000000018002aee0     libucrt:lcidtoname_downlevel.obj
 0002:00006ef8       ??_C@_1O@KEMEEGPO@?$AAs?$AAm?$AAa?$AA?9?$AAN?$AAO@ 000000018002aef8     libucrt:lcidtoname_downlevel.obj
 0002:00006f08       ??_C@_1M@ELMGFODK@?$AAa?$AAr?$AA?9?$AAT?$AAN@ 000000018002af08     libucrt:lcidtoname_downlevel.obj
 0002:00006f18       ??_C@_1M@BHDLHFAF@?$AAe?$AAn?$AA?9?$AAZ?$AAA@ 000000018002af18     libucrt:lcidtoname_downlevel.obj
 0002:00006f28       ??_C@_1M@BMGIGLIF@?$AAe?$AAs?$AA?9?$AAD?$AAO@ 000000018002af28     libucrt:lcidtoname_downlevel.obj
 0002:00006f38       ??_C@_1BG@CMBHIPBE@?$AAs?$AAr?$AA?9?$AAB?$AAA?$AA?9?$AAC?$AAy?$AAr?$AAl@ 000000018002af38     libucrt:lcidtoname_downlevel.obj
 0002:00006f50       ??_C@_1O@HEDBLHNP@?$AAs?$AAm?$AAa?$AA?9?$AAS?$AAE@ 000000018002af50     libucrt:lcidtoname_downlevel.obj
 0002:00006f60       ??_C@_1M@DAGCADIM@?$AAa?$AAr?$AA?9?$AAO?$AAM@ 000000018002af60     libucrt:lcidtoname_downlevel.obj
 0002:00006f70       ??_C@_1M@FODLMICG@?$AAe?$AAn?$AA?9?$AAJ?$AAM@ 000000018002af70     libucrt:lcidtoname_downlevel.obj
 0002:00006f80       ??_C@_1M@DNMLCIHB@?$AAe?$AAs?$AA?9?$AAV?$AAE@ 000000018002af80     libucrt:lcidtoname_downlevel.obj
 0002:00006f90       ??_C@_1O@EOKHMKJK@?$AAs?$AAm?$AAs?$AA?9?$AAF?$AAI@ 000000018002af90     libucrt:lcidtoname_downlevel.obj
 0002:00006fa0       ??_C@_1M@CAFJMKOF@?$AAa?$AAr?$AA?9?$AAY?$AAE@ 000000018002afa0     libucrt:lcidtoname_downlevel.obj
 0002:00006fb0       ??_C@_1M@CBFHIJLI@?$AAe?$AAn?$AA?9?$AAC?$AAB@ 000000018002afb0     libucrt:lcidtoname_downlevel.obj
 0002:00006fc0       ??_C@_1M@BGNFLDN@?$AAe?$AAs?$AA?9?$AAC?$AAO@ 000000018002afc0     libucrt:lcidtoname_downlevel.obj
 0002:00006fd0       ??_C@_1O@JMPHMAMC@?$AAs?$AAm?$AAn?$AA?9?$AAF?$AAI@ 000000018002afd0     libucrt:lcidtoname_downlevel.obj
 0002:00006fe0       ??_C@_1M@JLANABKE@?$AAa?$AAr?$AA?9?$AAS?$AAY@ 000000018002afe0     libucrt:lcidtoname_downlevel.obj
 0002:00006ff0       ??_C@_1M@HPKGCFGN@?$AAe?$AAn?$AA?9?$AAB?$AAZ@ 000000018002aff0     libucrt:lcidtoname_downlevel.obj
 0002:00007000       ??_C@_1M@OLJCMLGM@?$AAe?$AAs?$AA?9?$AAP?$AAE@ 000000018002b000     libucrt:lcidtoname_downlevel.obj
 0002:00007010       ??_C@_1M@MKKGFKLE@?$AAa?$AAr?$AA?9?$AAJ?$AAO@ 000000018002b010     libucrt:lcidtoname_downlevel.obj
 0002:00007020       ??_C@_1M@EKPGLDNI@?$AAe?$AAn?$AA?9?$AAT?$AAT@ 000000018002b020     libucrt:lcidtoname_downlevel.obj
 0002:00007030       ??_C@_1M@OONGHFHE@?$AAe?$AAs?$AA?9?$AAA?$AAR@ 000000018002b030     libucrt:lcidtoname_downlevel.obj
 0002:00007040       ??_C@_1M@OOJFGBHE@?$AAa?$AAr?$AA?9?$AAL?$AAB@ 000000018002b040     libucrt:lcidtoname_downlevel.obj
 0002:00007050       ??_C@_1M@GCEJHNEG@?$AAe?$AAn?$AA?9?$AAZ?$AAW@ 000000018002b050     libucrt:lcidtoname_downlevel.obj
 0002:00007060       ??_C@_1M@JNOCAHJI@?$AAe?$AAs?$AA?9?$AAE?$AAC@ 000000018002b060     libucrt:lcidtoname_downlevel.obj
 0002:00007070       ??_C@_1M@JEFHPGGB@?$AAa?$AAr?$AA?9?$AAK?$AAW@ 000000018002b070     libucrt:lcidtoname_downlevel.obj
 0002:00007080       ??_C@_1M@MLKIBJOJ@?$AAe?$AAn?$AA?9?$AAP?$AAH@ 000000018002b080     libucrt:lcidtoname_downlevel.obj
 0002:00007090       ??_C@_1M@BDNIPEND@?$AAe?$AAs?$AA?9?$AAC?$AAL@ 000000018002b090     libucrt:lcidtoname_downlevel.obj
 0002:000070a0       ??_C@_1M@MPNMEKBD@?$AAa?$AAr?$AA?9?$AAA?$AAE@ 000000018002b0a0     libucrt:lcidtoname_downlevel.obj
 0002:000070b0       ??_C@_1M@KBJALCPI@?$AAe?$AAs?$AA?9?$AAU?$AAY@ 000000018002b0b0     libucrt:lcidtoname_downlevel.obj
 0002:000070c0       ??_C@_1M@LLCCOAGA@?$AAa?$AAr?$AA?9?$AAB?$AAH@ 000000018002b0c0     libucrt:lcidtoname_downlevel.obj
 0002:000070d0       ??_C@_1M@PBFNCDEL@?$AAe?$AAs?$AA?9?$AAP?$AAY@ 000000018002b0d0     libucrt:lcidtoname_downlevel.obj
 0002:000070e0       ??_C@_1M@EDGINPNP@?$AAa?$AAr?$AA?9?$AAQ?$AAA@ 000000018002b0e0     libucrt:lcidtoname_downlevel.obj
 0002:000070f0       ??_C@_1M@MKDBIIJI@?$AAe?$AAs?$AA?9?$AAB?$AAO@ 000000018002b0f0     libucrt:lcidtoname_downlevel.obj
 0002:00007100       ??_C@_1M@CPKKEBLD@?$AAe?$AAs?$AA?9?$AAS?$AAV@ 000000018002b100     libucrt:lcidtoname_downlevel.obj
 0002:00007110       ??_C@_1M@NDBGMMJL@?$AAe?$AAs?$AA?9?$AAH?$AAN@ 000000018002b110     libucrt:lcidtoname_downlevel.obj
 0002:00007120       ??_C@_1M@JIJIBHDP@?$AAe?$AAs?$AA?9?$AAN?$AAI@ 000000018002b120     libucrt:lcidtoname_downlevel.obj
 0002:00007130       ??_C@_1M@CGFMKEEK@?$AAe?$AAs?$AA?9?$AAP?$AAR@ 000000018002b130     libucrt:lcidtoname_downlevel.obj
 0002:00007140       ??_C@_1O@ICJHKIIK@?$AAz?$AAh?$AA?9?$AAC?$AAH?$AAT@ 000000018002b140     libucrt:lcidtoname_downlevel.obj
 0002:00007150       ??_C@_15CLNEJCE@?$AAs?$AAr@ 000000018002b150     libucrt:lcidtoname_downlevel.obj
 0002:00007fa0       ??_C@_1M@KAHEKEIG@?$AAa?$AAf?$AA?9?$AAz?$AAa@ 000000018002bfa0     libucrt:lcidtoname_downlevel.obj
 0002:00007fb0       ??_C@_1M@GIECOABL@?$AAa?$AAr?$AA?9?$AAa?$AAe@ 000000018002bfb0     libucrt:lcidtoname_downlevel.obj
 0002:00007fc0       ??_C@_1M@BMLMEKGI@?$AAa?$AAr?$AA?9?$AAb?$AAh@ 000000018002bfc0     libucrt:lcidtoname_downlevel.obj
 0002:00007fd0       ??_C@_1M@DAPFDGGB@?$AAa?$AAr?$AA?9?$AAd?$AAz@ 000000018002bfd0     libucrt:lcidtoname_downlevel.obj
 0002:00007fe0       ??_C@_1M@FJNKGKIG@?$AAa?$AAr?$AA?9?$AAe?$AAg@ 000000018002bfe0     libucrt:lcidtoname_downlevel.obj
 0002:00007ff0       ??_C@_1M@FLGKKCLO@?$AAa?$AAr?$AA?9?$AAi?$AAq@ 000000018002bff0     libucrt:lcidtoname_downlevel.obj
 0002:00008000       ??_C@_1M@GNDIPALM@?$AAa?$AAr?$AA?9?$AAj?$AAo@ 000000018002c000     libucrt:lcidtoname_downlevel.obj
 0002:00008010       ??_C@_1M@DDMJFMGJ@?$AAa?$AAr?$AA?9?$AAk?$AAw@ 000000018002c010     libucrt:lcidtoname_downlevel.obj
 0002:00008020       ??_C@_1M@EJALMLHM@?$AAa?$AAr?$AA?9?$AAl?$AAb@ 000000018002c020     libucrt:lcidtoname_downlevel.obj
 0002:00008030       ??_C@_1M@MOBDBLOC@?$AAa?$AAr?$AA?9?$AAl?$AAy@ 000000018002c030     libucrt:lcidtoname_downlevel.obj
 0002:00008040       ??_C@_1M@JAOCLHDH@?$AAa?$AAr?$AA?9?$AAm?$AAa@ 000000018002c040     libucrt:lcidtoname_downlevel.obj
 0002:00008050       ??_C@_1M@JHPMKJIE@?$AAa?$AAr?$AA?9?$AAo?$AAm@ 000000018002c050     libucrt:lcidtoname_downlevel.obj
 0002:00008060       ??_C@_1M@OEPGHFNH@?$AAa?$AAr?$AA?9?$AAq?$AAa@ 000000018002c060     libucrt:lcidtoname_downlevel.obj
 0002:00008070       ??_C@_1M@KJDONENM@?$AAa?$AAr?$AA?9?$AAs?$AAa@ 000000018002c070     libucrt:lcidtoname_downlevel.obj
 0002:00008080       ??_C@_1M@DMJDKLKM@?$AAa?$AAr?$AA?9?$AAs?$AAy@ 000000018002c080     libucrt:lcidtoname_downlevel.obj
 0002:00008090       ??_C@_1M@OMFIPEDC@?$AAa?$AAr?$AA?9?$AAt?$AAn@ 000000018002c090     libucrt:lcidtoname_downlevel.obj
 0002:000080a0       ??_C@_1M@IHMHGAON@?$AAa?$AAr?$AA?9?$AAy?$AAe@ 000000018002c0a0     libucrt:lcidtoname_downlevel.obj
 0002:000080b0       ??_C@_1BG@KDCPGJGB@?$AAa?$AAz?$AA?9?$AAa?$AAz?$AA?9?$AAc?$AAy?$AAr?$AAl@ 000000018002c0b0     libucrt:lcidtoname_downlevel.obj
 0002:000080c8       ??_C@_1BG@IBCKDDOE@?$AAa?$AAz?$AA?9?$AAa?$AAz?$AA?9?$AAl?$AAa?$AAt?$AAn@ 000000018002c0c8     libucrt:lcidtoname_downlevel.obj
 0002:000080e0       ??_C@_1M@EGPFDCPD@?$AAb?$AAe?$AA?9?$AAb?$AAy@ 000000018002c0e0     libucrt:lcidtoname_downlevel.obj
 0002:000080f0       ??_C@_1M@PCMGMCGC@?$AAb?$AAg?$AA?9?$AAb?$AAg@ 000000018002c0f0     libucrt:lcidtoname_downlevel.obj
 0002:00008100       ??_C@_1M@BJBMFGOB@?$AAb?$AAn?$AA?9?$AAi?$AAn@ 000000018002c100     libucrt:lcidtoname_downlevel.obj
 0002:00008110       ??_C@_1BG@EAKMMACD@?$AAb?$AAs?$AA?9?$AAb?$AAa?$AA?9?$AAl?$AAa?$AAt?$AAn@ 000000018002c110     libucrt:lcidtoname_downlevel.obj
 0002:00008128       ??_C@_1M@KGADAODK@?$AAc?$AAa?$AA?9?$AAe?$AAs@ 000000018002c128     libucrt:lcidtoname_downlevel.obj
 0002:00008138       ??_C@_1M@COAJPDHI@?$AAc?$AAs?$AA?9?$AAc?$AAz@ 000000018002c138     libucrt:lcidtoname_downlevel.obj
 0002:00008148       ??_C@_1M@DHBHFONH@?$AAc?$AAy?$AA?9?$AAg?$AAb@ 000000018002c148     libucrt:lcidtoname_downlevel.obj
 0002:00008158       ??_C@_1M@IMGKELGA@?$AAd?$AAa?$AA?9?$AAd?$AAk@ 000000018002c158     libucrt:lcidtoname_downlevel.obj
 0002:00008168       ??_C@_1M@NNDGDNGA@?$AAd?$AAe?$AA?9?$AAa?$AAt@ 000000018002c168     libucrt:lcidtoname_downlevel.obj
 0002:00008178       ??_C@_1M@IKDBHEEM@?$AAd?$AAe?$AA?9?$AAc?$AAh@ 000000018002c178     libucrt:lcidtoname_downlevel.obj
 0002:00008188       ??_C@_1M@GFFOJMCJ@?$AAd?$AAe?$AA?9?$AAd?$AAe@ 000000018002c188     libucrt:lcidtoname_downlevel.obj
 0002:00008198       ??_C@_1M@MDNLKBPM@?$AAd?$AAe?$AA?9?$AAl?$AAi@ 000000018002c198     libucrt:lcidtoname_downlevel.obj
 0002:000081a8       ??_C@_1M@NJBEEJNL@?$AAd?$AAe?$AA?9?$AAl?$AAu@ 000000018002c1a8     libucrt:lcidtoname_downlevel.obj
 0002:000081b8       ??_C@_1O@GNNELBAP@?$AAd?$AAi?$AAv?$AA?9?$AAm?$AAv@ 000000018002c1b8     libucrt:lcidtoname_downlevel.obj
 0002:000081c8       ??_C@_1M@EJLEOGAE@?$AAe?$AAl?$AA?9?$AAg?$AAr@ 000000018002c1c8     libucrt:lcidtoname_downlevel.obj
 0002:000081d8       ??_C@_1M@GMPONJN@?$AAe?$AAn?$AA?9?$AAa?$AAu@ 000000018002c1d8     libucrt:lcidtoname_downlevel.obj
 0002:000081e8       ??_C@_1M@NIDIIPGF@?$AAe?$AAn?$AA?9?$AAb?$AAz@ 000000018002c1e8     libucrt:lcidtoname_downlevel.obj
 0002:000081f8       ??_C@_1M@JEHMIMFO@?$AAe?$AAn?$AA?9?$AAc?$AAa@ 000000018002c1f8     libucrt:lcidtoname_downlevel.obj
 0002:00008208       ??_C@_1M@IGMJCDLA@?$AAe?$AAn?$AA?9?$AAc?$AAb@ 000000018002c208     libucrt:lcidtoname_downlevel.obj
 0002:00008218       ??_C@_1M@BNFIGBKG@?$AAe?$AAn?$AA?9?$AAg?$AAb@ 000000018002c218     libucrt:lcidtoname_downlevel.obj
 0002:00008228       ??_C@_1M@LKIFDIGP@?$AAe?$AAn?$AA?9?$AAi?$AAe@ 000000018002c228     libucrt:lcidtoname_downlevel.obj
 0002:00008238       ??_C@_1M@PJKFGCCO@?$AAe?$AAn?$AA?9?$AAj?$AAm@ 000000018002c238     libucrt:lcidtoname_downlevel.obj
 0002:00008248       ??_C@_1M@KPPKEPBO@?$AAe?$AAn?$AA?9?$AAn?$AAz@ 000000018002c248     libucrt:lcidtoname_downlevel.obj
 0002:00008258       ??_C@_1M@GMDGLDOB@?$AAe?$AAn?$AA?9?$AAp?$AAh@ 000000018002c258     libucrt:lcidtoname_downlevel.obj
 0002:00008268       ??_C@_1M@ONGIBJNA@?$AAe?$AAn?$AA?9?$AAt?$AAt@ 000000018002c268     libucrt:lcidtoname_downlevel.obj
 0002:00008278       ??_C@_1M@LLODPCMM@?$AAe?$AAn?$AA?9?$AAu?$AAs@ 000000018002c278     libucrt:lcidtoname_downlevel.obj
 0002:00008288       ??_C@_1M@LAKFNPAN@?$AAe?$AAn?$AA?9?$AAz?$AAa@ 000000018002c288     libucrt:lcidtoname_downlevel.obj
 0002:00008298       ??_C@_1M@MFNHNHEO@?$AAe?$AAn?$AA?9?$AAz?$AAw@ 000000018002c298     libucrt:lcidtoname_downlevel.obj
 0002:000082a8       ??_C@_1M@EJEINPHM@?$AAe?$AAs?$AA?9?$AAa?$AAr@ 000000018002c2a8     libucrt:lcidtoname_downlevel.obj
 0002:000082b8       ??_C@_1M@GNKPCCJA@?$AAe?$AAs?$AA?9?$AAb?$AAo@ 000000018002c2b8     libucrt:lcidtoname_downlevel.obj
 0002:000082c8       ??_C@_1M@LEEGFONL@?$AAe?$AAs?$AA?9?$AAc?$AAl@ 000000018002c2c8     libucrt:lcidtoname_downlevel.obj
 0002:000082d8       ??_C@_1M@KGPDPBDF@?$AAe?$AAs?$AA?9?$AAc?$AAo@ 000000018002c2d8     libucrt:lcidtoname_downlevel.obj
 0002:000082e8       ??_C@_1M@EIAHOHH@?$AAe?$AAs?$AA?9?$AAc?$AAr@ 000000018002c2e8     libucrt:lcidtoname_downlevel.obj
 0002:000082f8       ??_C@_1M@LLPGMBIN@?$AAe?$AAs?$AA?9?$AAd?$AAo@ 000000018002c2f8     libucrt:lcidtoname_downlevel.obj
 0002:00008308       ??_C@_1M@DKHMKNJA@?$AAe?$AAs?$AA?9?$AAe?$AAc@ 000000018002c308     libucrt:lcidtoname_downlevel.obj
 0002:00008318       ??_C@_1M@GKGFPKAP@?$AAe?$AAs?$AA?9?$AAe?$AAs@ 000000018002c318     libucrt:lcidtoname_downlevel.obj
 0002:00008328       ??_C@_1M@LKHKGDLN@?$AAe?$AAs?$AA?9?$AAg?$AAt@ 000000018002c328     libucrt:lcidtoname_downlevel.obj
 0002:00008338       ??_C@_1M@HEIIGGJD@?$AAe?$AAs?$AA?9?$AAh?$AAn@ 000000018002c338     libucrt:lcidtoname_downlevel.obj
 0002:00008348       ??_C@_1M@FBDHPPGD@?$AAe?$AAs?$AA?9?$AAm?$AAx@ 000000018002c348     libucrt:lcidtoname_downlevel.obj
 0002:00008358       ??_C@_1M@DPAGLNDH@?$AAe?$AAs?$AA?9?$AAn?$AAi@ 000000018002c358     libucrt:lcidtoname_downlevel.obj
 0002:00008368       ??_C@_1M@MDGOPGDD@?$AAe?$AAs?$AA?9?$AAp?$AAa@ 000000018002c368     libucrt:lcidtoname_downlevel.obj
 0002:00008378       ??_C@_1M@EMAMGBGE@?$AAe?$AAs?$AA?9?$AAp?$AAe@ 000000018002c378     libucrt:lcidtoname_downlevel.obj
 0002:00008388       ??_C@_1M@IBMCAOEC@?$AAe?$AAs?$AA?9?$AAp?$AAr@ 000000018002c388     libucrt:lcidtoname_downlevel.obj
 0002:00008398       ??_C@_1M@FGMDIJED@?$AAe?$AAs?$AA?9?$AAp?$AAy@ 000000018002c398     libucrt:lcidtoname_downlevel.obj
 0002:000083a8       ??_C@_1M@IIDEOLLL@?$AAe?$AAs?$AA?9?$AAs?$AAv@ 000000018002c3a8     libucrt:lcidtoname_downlevel.obj
 0002:000083b8       ??_C@_1M@GAOBIPA@?$AAe?$AAs?$AA?9?$AAu?$AAy@ 000000018002c3b8     libucrt:lcidtoname_downlevel.obj
 0002:000083c8       ??_C@_1M@JKFFICHJ@?$AAe?$AAs?$AA?9?$AAv?$AAe@ 000000018002c3c8     libucrt:lcidtoname_downlevel.obj
 0002:000083d8       ??_C@_1M@PNMLOJDF@?$AAe?$AAt?$AA?9?$AAe?$AAe@ 000000018002c3d8     libucrt:lcidtoname_downlevel.obj
 0002:000083e8       ??_C@_1M@GHHLIKEI@?$AAe?$AAu?$AA?9?$AAe?$AAs@ 000000018002c3e8     libucrt:lcidtoname_downlevel.obj
 0002:000083f8       ??_C@_1M@PBNONODE@?$AAf?$AAa?$AA?9?$AAi?$AAr@ 000000018002c3f8     libucrt:lcidtoname_downlevel.obj
 0002:00008408       ??_C@_1M@JEEHPMIL@?$AAf?$AAi?$AA?9?$AAf?$AAi@ 000000018002c408     libucrt:lcidtoname_downlevel.obj
 0002:00008418       ??_C@_1M@LMDCNDBA@?$AAf?$AAo?$AA?9?$AAf?$AAo@ 000000018002c418     libucrt:lcidtoname_downlevel.obj
 0002:00008428       ??_C@_1M@JKEOHLDK@?$AAf?$AAr?$AA?9?$AAb?$AAe@ 000000018002c428     libucrt:lcidtoname_downlevel.obj
 0002:00008438       ??_C@_1M@NOHADPMI@?$AAf?$AAr?$AA?9?$AAc?$AAa@ 000000018002c438     libucrt:lcidtoname_downlevel.obj
 0002:00008448       ??_C@_1M@KDHIHAEC@?$AAf?$AAr?$AA?9?$AAc?$AAh@ 000000018002c448     libucrt:lcidtoname_downlevel.obj
 0002:00008458       ??_C@_1M@MMBBFGAK@?$AAf?$AAr?$AA?9?$AAf?$AAr@ 000000018002c458     libucrt:lcidtoname_downlevel.obj
 0002:00008468       ??_C@_1M@PAFNENNF@?$AAf?$AAr?$AA?9?$AAl?$AAu@ 000000018002c468     libucrt:lcidtoname_downlevel.obj
 0002:00008478       ??_C@_1M@EOHDJGDD@?$AAf?$AAr?$AA?9?$AAm?$AAc@ 000000018002c478     libucrt:lcidtoname_downlevel.obj
 0002:00008488       ??_C@_1M@FAPLLOPF@?$AAg?$AAl?$AA?9?$AAe?$AAs@ 000000018002c488     libucrt:lcidtoname_downlevel.obj
 0002:00008498       ??_C@_1M@FOPBFLOO@?$AAg?$AAu?$AA?9?$AAi?$AAn@ 000000018002c498     libucrt:lcidtoname_downlevel.obj
 0002:000084a8       ??_C@_1M@KBMCINPM@?$AAh?$AAe?$AA?9?$AAi?$AAl@ 000000018002c4a8     libucrt:lcidtoname_downlevel.obj
 0002:000084b8       ??_C@_1M@BBPHKFPJ@?$AAh?$AAi?$AA?9?$AAi?$AAn@ 000000018002c4b8     libucrt:lcidtoname_downlevel.obj
 0002:000084c8       ??_C@_1M@PMBNDPHD@?$AAh?$AAr?$AA?9?$AAb?$AAa@ 000000018002c4c8     libucrt:lcidtoname_downlevel.obj
 0002:000084d8       ??_C@_1M@BPCKOEGE@?$AAh?$AAr?$AA?9?$AAh?$AAr@ 000000018002c4d8     libucrt:lcidtoname_downlevel.obj
 0002:000084e8       ??_C@_1M@GACBMHKE@?$AAh?$AAu?$AA?9?$AAh?$AAu@ 000000018002c4e8     libucrt:lcidtoname_downlevel.obj
 0002:000084f8       ??_C@_1M@MILPAJJC@?$AAh?$AAy?$AA?9?$AAa?$AAm@ 000000018002c4f8     libucrt:lcidtoname_downlevel.obj
 0002:00008508       ??_C@_1M@BABBICEC@?$AAi?$AAd?$AA?9?$AAi?$AAd@ 000000018002c508     libucrt:lcidtoname_downlevel.obj
 0002:00008518       ??_C@_1M@BIKNHHPF@?$AAi?$AAs?$AA?9?$AAi?$AAs@ 000000018002c518     libucrt:lcidtoname_downlevel.obj
 0002:00008528       ??_C@_1M@NMPCJPHE@?$AAi?$AAt?$AA?9?$AAc?$AAh@ 000000018002c528     libucrt:lcidtoname_downlevel.obj
 0002:00008538       ??_C@_1M@GHKGFEDF@?$AAi?$AAt?$AA?9?$AAi?$AAt@ 000000018002c538     libucrt:lcidtoname_downlevel.obj
 0002:00008548       ??_C@_1M@NIEJCJJA@?$AAj?$AAa?$AA?9?$AAj?$AAp@ 000000018002c548     libucrt:lcidtoname_downlevel.obj
 0002:00008558       ??_C@_1M@JILFNBIM@?$AAk?$AAa?$AA?9?$AAg?$AAe@ 000000018002c558     libucrt:lcidtoname_downlevel.obj
 0002:00008568       ??_C@_1M@PACPMGPH@?$AAk?$AAk?$AA?9?$AAk?$AAz@ 000000018002c568     libucrt:lcidtoname_downlevel.obj
 0002:00008578       ??_C@_1M@IELFGMHA@?$AAk?$AAn?$AA?9?$AAi?$AAn@ 000000018002c578     libucrt:lcidtoname_downlevel.obj
 0002:00008588       ??_C@_1O@IBBJHCH@?$AAk?$AAo?$AAk?$AA?9?$AAi?$AAn@ 000000018002c588     libucrt:lcidtoname_downlevel.obj
 0002:00008598       ??_C@_1M@DMHAEOGC@?$AAk?$AAo?$AA?9?$AAk?$AAr@ 000000018002c598     libucrt:lcidtoname_downlevel.obj
 0002:000085a8       ??_C@_1M@HBAHBIGA@?$AAk?$AAy?$AA?9?$AAk?$AAg@ 000000018002c5a8     libucrt:lcidtoname_downlevel.obj
 0002:000085b8       ??_C@_1M@KPMILCJG@?$AAl?$AAt?$AA?9?$AAl?$AAt@ 000000018002c5b8     libucrt:lcidtoname_downlevel.obj
 0002:000085c8       ??_C@_1M@BDEKKCA@?$AAl?$AAv?$AA?9?$AAl?$AAv@ 000000018002c5c8     libucrt:lcidtoname_downlevel.obj
 0002:000085d8       ??_C@_1M@ELCKCCJJ@?$AAm?$AAi?$AA?9?$AAn?$AAz@ 000000018002c5d8     libucrt:lcidtoname_downlevel.obj
 0002:000085e8       ??_C@_1M@CBOOLAPA@?$AAm?$AAk?$AA?9?$AAm?$AAk@ 000000018002c5e8     libucrt:lcidtoname_downlevel.obj
 0002:000085f8       ??_C@_1M@GPHNBJKN@?$AAm?$AAl?$AA?9?$AAi?$AAn@ 000000018002c5f8     libucrt:lcidtoname_downlevel.obj
 0002:00008608       ??_C@_1M@PABJILIG@?$AAm?$AAn?$AA?9?$AAm?$AAn@ 000000018002c608     libucrt:lcidtoname_downlevel.obj
 0002:00008618       ??_C@_1M@FGBKKIPG@?$AAm?$AAr?$AA?9?$AAi?$AAn@ 000000018002c618     libucrt:lcidtoname_downlevel.obj
 0002:00008628       ??_C@_1M@NDBPDDAL@?$AAm?$AAs?$AA?9?$AAb?$AAn@ 000000018002c628     libucrt:lcidtoname_downlevel.obj
 0002:00008638       ??_C@_1M@OPIHOOPI@?$AAm?$AAs?$AA?9?$AAm?$AAy@ 000000018002c638     libucrt:lcidtoname_downlevel.obj
 0002:00008648       ??_C@_1M@PPDBCNFM@?$AAm?$AAt?$AA?9?$AAm?$AAt@ 000000018002c648     libucrt:lcidtoname_downlevel.obj
 0002:00008658       ??_C@_1M@KDJDKMDD@?$AAn?$AAb?$AA?9?$AAn?$AAo@ 000000018002c658     libucrt:lcidtoname_downlevel.obj
 0002:00008668       ??_C@_1M@KFCFLMJP@?$AAn?$AAl?$AA?9?$AAb?$AAe@ 000000018002c668     libucrt:lcidtoname_downlevel.obj
 0002:00008678       ??_C@_1M@KPOPDDGO@?$AAn?$AAl?$AA?9?$AAn?$AAl@ 000000018002c678     libucrt:lcidtoname_downlevel.obj
 0002:00008688       ??_C@_1M@LJKPEMLN@?$AAn?$AAn?$AA?9?$AAn?$AAo@ 000000018002c688     libucrt:lcidtoname_downlevel.obj
 0002:00008698       ??_C@_1M@BDGHHBFL@?$AAn?$AAs?$AA?9?$AAz?$AAa@ 000000018002c698     libucrt:lcidtoname_downlevel.obj
 0002:000086a8       ??_C@_1M@IDEHOAP@?$AAp?$AAa?$AA?9?$AAi?$AAn@ 000000018002c6a8     libucrt:lcidtoname_downlevel.obj
 0002:000086b8       ??_C@_1M@HDBKGOGH@?$AAp?$AAl?$AA?9?$AAp?$AAl@ 000000018002c6b8     libucrt:lcidtoname_downlevel.obj
 0002:000086c8       ??_C@_1M@LJLLCMEH@?$AAp?$AAt?$AA?9?$AAb?$AAr@ 000000018002c6c8     libucrt:lcidtoname_downlevel.obj
 0002:000086d8       ??_C@_1M@NCMONAAL@?$AAp?$AAt?$AA?9?$AAp?$AAt@ 000000018002c6d8     libucrt:lcidtoname_downlevel.obj
 0002:000086e8       ??_C@_1O@EAKMAJDN@?$AAq?$AAu?$AAz?$AA?9?$AAb?$AAo@ 000000018002c6e8     libucrt:lcidtoname_downlevel.obj
 0002:000086f8       ??_C@_1O@BHHPIGDN@?$AAq?$AAu?$AAz?$AA?9?$AAe?$AAc@ 000000018002c6f8     libucrt:lcidtoname_downlevel.obj
 0002:00008708       ??_C@_1O@GBAPEKMJ@?$AAq?$AAu?$AAz?$AA?9?$AAp?$AAe@ 000000018002c708     libucrt:lcidtoname_downlevel.obj
 0002:00008718       ??_C@_1M@CLGLEFBO@?$AAr?$AAo?$AA?9?$AAr?$AAo@ 000000018002c718     libucrt:lcidtoname_downlevel.obj
 0002:00008728       ??_C@_1M@CEEDODME@?$AAr?$AAu?$AA?9?$AAr?$AAu@ 000000018002c728     libucrt:lcidtoname_downlevel.obj
 0002:00008738       ??_C@_1M@HPKKKMPP@?$AAs?$AAa?$AA?9?$AAi?$AAn@ 000000018002c738     libucrt:lcidtoname_downlevel.obj
 0002:00008748       ??_C@_1M@BKMAIGOJ@?$AAs?$AAe?$AA?9?$AAf?$AAi@ 000000018002c748     libucrt:lcidtoname_downlevel.obj
 0002:00008758       ??_C@_1M@NDPIFLFI@?$AAs?$AAe?$AA?9?$AAn?$AAo@ 000000018002c758     libucrt:lcidtoname_downlevel.obj
 0002:00008768       ??_C@_1M@DANKKHJ@?$AAs?$AAe?$AA?9?$AAs?$AAe@ 000000018002c768     libucrt:lcidtoname_downlevel.obj
 0002:00008778       ??_C@_1M@PNBLONPJ@?$AAs?$AAk?$AA?9?$AAs?$AAk@ 000000018002c778     libucrt:lcidtoname_downlevel.obj
 0002:00008788       ??_C@_1M@LFMODOAL@?$AAs?$AAl?$AA?9?$AAs?$AAi@ 000000018002c788     libucrt:lcidtoname_downlevel.obj
 0002:00008798       ??_C@_1O@DFKOMPG@?$AAs?$AAm?$AAa?$AA?9?$AAn?$AAo@ 000000018002c798     libucrt:lcidtoname_downlevel.obj
 0002:000087a8       ??_C@_1O@NDKPBNNH@?$AAs?$AAm?$AAa?$AA?9?$AAs?$AAe@ 000000018002c7a8     libucrt:lcidtoname_downlevel.obj
 0002:000087b8       ??_C@_1O@PLLKBHAB@?$AAs?$AAm?$AAj?$AA?9?$AAn?$AAo@ 000000018002c7b8     libucrt:lcidtoname_downlevel.obj
 0002:000087c8       ??_C@_1O@CLEPOGCA@?$AAs?$AAm?$AAj?$AA?9?$AAs?$AAe@ 000000018002c7c8     libucrt:lcidtoname_downlevel.obj
 0002:000087d8       ??_C@_1O@DLGJGKMK@?$AAs?$AAm?$AAn?$AA?9?$AAf?$AAi@ 000000018002c7d8     libucrt:lcidtoname_downlevel.obj
 0002:000087e8       ??_C@_1O@OJDJGAJC@?$AAs?$AAm?$AAs?$AA?9?$AAf?$AAi@ 000000018002c7e8     libucrt:lcidtoname_downlevel.obj
 0002:000087f8       ??_C@_1M@BOFOGHPB@?$AAs?$AAq?$AA?9?$AAa?$AAl@ 000000018002c7f8     libucrt:lcidtoname_downlevel.obj
 0002:00008808       ??_C@_1BG@LJBBIPGB@?$AAs?$AAr?$AA?9?$AAb?$AAa?$AA?9?$AAc?$AAy?$AAr?$AAl@ 000000018002c808     libucrt:lcidtoname_downlevel.obj
 0002:00008820       ??_C@_1BG@JLBENFOE@?$AAs?$AAr?$AA?9?$AAb?$AAa?$AA?9?$AAl?$AAa?$AAt?$AAn@ 000000018002c820     libucrt:lcidtoname_downlevel.obj
 0002:00008838       ??_C@_1BG@KODPNHE@?$AAs?$AAr?$AA?9?$AAs?$AAp?$AA?9?$AAc?$AAy?$AAr?$AAl@ 000000018002c838     libucrt:lcidtoname_downlevel.obj
 0002:00008850       ??_C@_1BG@CIOGKHPB@?$AAs?$AAr?$AA?9?$AAs?$AAp?$AA?9?$AAl?$AAa?$AAt?$AAn@ 000000018002c850     libucrt:lcidtoname_downlevel.obj
 0002:00008868       ??_C@_1M@NGFJLMAC@?$AAs?$AAv?$AA?9?$AAf?$AAi@ 000000018002c868     libucrt:lcidtoname_downlevel.obj
 0002:00008878       ??_C@_1M@MPJEJAJC@?$AAs?$AAv?$AA?9?$AAs?$AAe@ 000000018002c878     libucrt:lcidtoname_downlevel.obj
 0002:00008888       ??_C@_1M@MPNDHLFK@?$AAs?$AAw?$AA?9?$AAk?$AAe@ 000000018002c888     libucrt:lcidtoname_downlevel.obj
 0002:00008898       ??_C@_1O@KOHBJJI@?$AAs?$AAy?$AAr?$AA?9?$AAs?$AAy@ 000000018002c898     libucrt:lcidtoname_downlevel.obj
 0002:000088a8       ??_C@_1M@LDCEFHA@?$AAt?$AAa?$AA?9?$AAi?$AAn@ 000000018002c8a8     libucrt:lcidtoname_downlevel.obj
 0002:000088b8       ??_C@_1M@CNJOFAK@?$AAt?$AAe?$AA?9?$AAi?$AAn@ 000000018002c8b8     libucrt:lcidtoname_downlevel.obj
 0002:000088c8       ??_C@_1M@GNAECACD@?$AAt?$AAh?$AA?9?$AAt?$AAh@ 000000018002c8c8     libucrt:lcidtoname_downlevel.obj
 0002:000088d8       ??_C@_1M@CHBIHOJO@?$AAt?$AAn?$AA?9?$AAz?$AAa@ 000000018002c8d8     libucrt:lcidtoname_downlevel.obj
 0002:000088e8       ??_C@_1M@GCCMIGPJ@?$AAt?$AAr?$AA?9?$AAt?$AAr@ 000000018002c8e8     libucrt:lcidtoname_downlevel.obj
 0002:000088f8       ??_C@_1M@CELMCNBK@?$AAt?$AAt?$AA?9?$AAr?$AAu@ 000000018002c8f8     libucrt:lcidtoname_downlevel.obj
 0002:00008908       ??_C@_1M@KLMCELGA@?$AAu?$AAk?$AA?9?$AAu?$AAa@ 000000018002c908     libucrt:lcidtoname_downlevel.obj
 0002:00008918       ??_C@_1M@EPAJJAJF@?$AAu?$AAr?$AA?9?$AAp?$AAk@ 000000018002c918     libucrt:lcidtoname_downlevel.obj
 0002:00008928       ??_C@_1BG@GEGPMCDJ@?$AAu?$AAz?$AA?9?$AAu?$AAz?$AA?9?$AAc?$AAy?$AAr?$AAl@ 000000018002c928     libucrt:lcidtoname_downlevel.obj
 0002:00008940       ??_C@_1BG@EGGKJILM@?$AAu?$AAz?$AA?9?$AAu?$AAz?$AA?9?$AAl?$AAa?$AAt?$AAn@ 000000018002c940     libucrt:lcidtoname_downlevel.obj
 0002:00008958       ??_C@_1M@GFOCLFF@?$AAv?$AAi?$AA?9?$AAv?$AAn@ 000000018002c958     libucrt:lcidtoname_downlevel.obj
 0002:00008968       ??_C@_1M@CPAMEDFI@?$AAx?$AAh?$AA?9?$AAz?$AAa@ 000000018002c968     libucrt:lcidtoname_downlevel.obj
 0002:00008978       ??_C@_1O@EBKIFIGN@?$AAz?$AAh?$AA?9?$AAc?$AAh?$AAs@ 000000018002c978     libucrt:lcidtoname_downlevel.obj
 0002:00008988       ??_C@_1O@NMHPGANE@?$AAz?$AAh?$AA?9?$AAc?$AAh?$AAt@ 000000018002c988     libucrt:lcidtoname_downlevel.obj
 0002:00008998       ??_C@_1M@LPINJOMC@?$AAz?$AAh?$AA?9?$AAc?$AAn@ 000000018002c998     libucrt:lcidtoname_downlevel.obj
 0002:000089a8       ??_C@_1M@OCJEJODD@?$AAz?$AAh?$AA?9?$AAh?$AAk@ 000000018002c9a8     libucrt:lcidtoname_downlevel.obj
 0002:000089b8       ??_C@_1M@DNDLJINH@?$AAz?$AAh?$AA?9?$AAm?$AAo@ 000000018002c9b8     libucrt:lcidtoname_downlevel.obj
 0002:000089c8       ??_C@_1M@MBFDNDND@?$AAz?$AAh?$AA?9?$AAs?$AAg@ 000000018002c9c8     libucrt:lcidtoname_downlevel.obj
 0002:000089d8       ??_C@_1M@IMEPLEPE@?$AAz?$AAh?$AA?9?$AAt?$AAw@ 000000018002c9d8     libucrt:lcidtoname_downlevel.obj
 0002:000089e8       ??_C@_1M@BBGHNHJP@?$AAz?$AAu?$AA?9?$AAz?$AAa@ 000000018002c9e8     libucrt:lcidtoname_downlevel.obj
 0002:00008a00       ?large_power_data@?1??multiply_by_power_of_ten@__crt_strtox@@YA_NAEAUbig_integer@2@I@Z@4QBIB 000000018002ca00     libucrt:cfout.obj
 0002:00009310       ?large_power_indices@?1??multiply_by_power_of_ten@__crt_strtox@@YA_NAEAUbig_integer@2@I@Z@4QBUunpack_index@?1??12@YA_N0I@Z@B 000000018002d310     libucrt:cfout.obj
 0002:000093a8       ?small_powers_of_ten@?1??multiply_by_power_of_ten@__crt_strtox@@YA_NAEAUbig_integer@2@I@Z@4QBIB 000000018002d3a8     libucrt:cfout.obj
 0002:000093cc       ??_C@_01GBGANLPD@0@        000000018002d3cc     libucrt:cfout.obj
 0002:000093d0       ??_C@_05DNEBIAHO@1?$CDINF@ 000000018002d3d0     libucrt:cfout.obj
 0002:000093d8       ??_C@_06IMKFLFPG@1?$CDQNAN@ 000000018002d3d8     libucrt:cfout.obj
 0002:000093e0       ??_C@_06PGGFOGJG@1?$CDSNAN@ 000000018002d3e0     libucrt:cfout.obj
 0002:000093e8       ??_C@_05PHHOCPM@1?$CDIND@  000000018002d3e8     libucrt:cfout.obj
 0002:000093f0       __real@3ff0000000000000    000000018002d3f0     libucrt:ceil.obj
 0002:00009650       __log10_256_lead           000000018002d650     libucrt:log10_256_lead_tail_table.obj
 0002:00009e60       __log10_256_tail           000000018002de60     libucrt:log10_256_lead_tail_table.obj
 0002:0000a670       __log_F_inv_qword          000000018002e670     libucrt:log_f_inv_qword_table.obj
 0002:0000ae80       ??_C@_05HGHHAHAP@log10@    000000018002ee80     libucrt:log_special.obj
 0002:0000ae88       ??_C@_1BA@BALFACEM@?$AAC?$AAO?$AAN?$AAO?$AAU?$AAT?$AA$@ 000000018002ee88     libucrt:initcon.obj
 0002:0000af10       _load_config_used          000000018002ef10     LIBCMT:loadcfg.obj
 0002:0000b040       _tls_used                  000000018002f040     LIBCMT:tlssup.obj
 0002:0000b068       ??_R4exception@std@@6B@    000000018002f068     LIBCMT:throw_bad_alloc.obj
 0002:0000b090       ??_R3exception@std@@8      000000018002f090     LIBCMT:throw_bad_alloc.obj
 0002:0000b0a8       ??_R2exception@std@@8      000000018002f0a8     LIBCMT:throw_bad_alloc.obj
 0002:0000b0b8       ??_R1A@?0A@EA@exception@std@@8 000000018002f0b8     LIBCMT:throw_bad_alloc.obj
 0002:0000b0e0       ??_R4bad_alloc@std@@6B@    000000018002f0e0     LIBCMT:throw_bad_alloc.obj
 0002:0000b108       ??_R3bad_alloc@std@@8      000000018002f108     LIBCMT:throw_bad_alloc.obj
 0002:0000b120       ??_R2bad_alloc@std@@8      000000018002f120     LIBCMT:throw_bad_alloc.obj
 0002:0000b138       ??_R1A@?0A@EA@bad_alloc@std@@8 000000018002f138     LIBCMT:throw_bad_alloc.obj
 0002:0000b160       ??_R4bad_array_new_length@std@@6B@ 000000018002f160     LIBCMT:throw_bad_alloc.obj
 0002:0000b188       ??_R3bad_array_new_length@std@@8 000000018002f188     LIBCMT:throw_bad_alloc.obj
 0002:0000b1a0       ??_R2bad_array_new_length@std@@8 000000018002f1a0     LIBCMT:throw_bad_alloc.obj
 0002:0000b1c0       ??_R1A@?0A@EA@bad_array_new_length@std@@8 000000018002f1c0     LIBCMT:throw_bad_alloc.obj
 0002:0000b1e8       ??_R4type_info@@6B@        000000018002f1e8     LIBCMT:std_type_info_static.obj
 0002:0000b210       ??_R3type_info@@8          000000018002f210     LIBCMT:std_type_info_static.obj
 0002:0000b228       ??_R2type_info@@8          000000018002f228     LIBCMT:std_type_info_static.obj
 0002:0000b238       ??_R1A@?0A@EA@type_info@@8 000000018002f238     LIBCMT:std_type_info_static.obj
 0002:0000b260       ??_R4bad_exception@std@@6B@ 000000018002f260     libvcruntime:frame.obj
 0002:0000b288       ??_R3bad_exception@std@@8  000000018002f288     libvcruntime:frame.obj
 0002:0000b2a0       ??_R2bad_exception@std@@8  000000018002f2a0     libvcruntime:frame.obj
 0002:0000b2b8       ??_R1A@?0A@EA@bad_exception@std@@8 000000018002f2b8     libvcruntime:frame.obj
 0002:0000b6e8       __rtc_iaa                  000000018002f6e8     LIBCMT:initsect.obj
 0002:0000b6f0       __rtc_izz                  000000018002f6f0     LIBCMT:initsect.obj
 0002:0000b6f8       __rtc_taa                  000000018002f6f8     LIBCMT:initsect.obj
 0002:0000b700       __rtc_tzz                  000000018002f700     LIBCMT:initsect.obj
 0002:0000b708       _tls_start                 000000018002f708     LIBCMT:tlssup.obj
 0002:0000b70c       _Init_thread_epoch         000000018002f70c     LIBCMT:thread_safe_statics.obj
 0002:0000b710       _tls_end                   000000018002f710     LIBCMT:tlssup.obj
 0002:0000ce28       _TI2?AVbad_alloc@std@@     0000000180030e28     LIBCMT:throw_bad_alloc.obj
 0002:0000ce48       _CTA2?AVbad_alloc@std@@    0000000180030e48     LIBCMT:throw_bad_alloc.obj
 0002:0000ce60       _CT??_R0?AVbad_alloc@std@@@8??0bad_alloc@std@@QEAA@AEBV01@@Z24 0000000180030e60     LIBCMT:throw_bad_alloc.obj
 0002:0000ce88       _CT??_R0?AVexception@std@@@8??0exception@std@@QEAA@AEBV01@@Z24 0000000180030e88     LIBCMT:throw_bad_alloc.obj
 0002:0000ceb0       _TI3?AVbad_array_new_length@std@@ 0000000180030eb0     LIBCMT:throw_bad_alloc.obj
 0002:0000ced0       _CTA3?AVbad_array_new_length@std@@ 0000000180030ed0     LIBCMT:throw_bad_alloc.obj
 0002:0000cef0       _CT??_R0?AVbad_array_new_length@std@@@8??0bad_array_new_length@std@@QEAA@AEBV01@@Z24 0000000180030ef0     LIBCMT:throw_bad_alloc.obj
 0002:0000cf18       _TI2?AVbad_exception@std@@ 0000000180030f18     libvcruntime:frame.obj
 0002:0000cf38       _CTA2?AVbad_exception@std@@ 0000000180030f38     libvcruntime:frame.obj
 0002:0000cf50       _CT??_R0?AVbad_exception@std@@@8??0bad_exception@std@@QEAA@AEBV01@@Z24 0000000180030f50     libvcruntime:frame.obj
 0002:0000cf78       __pobjMapEntryFirst        0000000180030f78     OposVariant.obj
 0002:0000cf80       __pobjMapEntryLast         0000000180030f80     OposVariant.obj
 0002:0000d03c       __IMPORT_DESCRIPTOR_KERNEL32 000000018003103c     kernel32:KERNEL32.dll
 0002:0000d050       __IMPORT_DESCRIPTOR_USER32 0000000180031050     user32:USER32.dll
 0002:0000d064       __IMPORT_DESCRIPTOR_GDI32  0000000180031064     gdi32:GDI32.dll
 0002:0000d078       __IMPORT_DESCRIPTOR_ADVAPI32 0000000180031078     advapi32:ADVAPI32.dll
 0002:0000d08c       __IMPORT_DESCRIPTOR_ole32  000000018003108c     ole32:ole32.dll
 0002:0000d0a0       __IMPORT_DESCRIPTOR_OLEAUT32 00000001800310a0     oleaut32:OLEAUT32.dll
 0002:0000d0b4       __NULL_IMPORT_DESCRIPTOR   00000001800310b4     kernel32:KERNEL32.dll
 0003:00000000       ?s_Claim@?7??GetIDsOfNames@CComTypeInfoHolder@ATL@@QEAAJAEBU_GUID@@PEAPEA_WIKPEAJ@Z@4PA_WA 0000000180033000     Biometrics.obj
 0003:00000018       ?s_Release@?7??GetIDsOfNames@CComTypeInfoHolder@ATL@@QEAAJAEBU_GUID@@PEAPEA_WIKPEAJ@Z@4PA_WA 0000000180033018     Biometrics.obj
 0003:00000038       ?_tih@?$IDispatchImpl@UIOPOSBiometrics@@$1?IID_IOPOSBiometrics@@3U_GUID@@B$1?LIBID_OposBiometrics_CCO@@3U3@B$00$0A@VCComTypeInfoHolder@ATL@@@ATL@@1VCComTypeInfoHolder@2@A 0000000180033038     Biometrics.obj
 0003:00000070       ?_tih@?$IProvideClassInfo2Impl@$1?CLSID_OPOSBiometrics@@3U_GUID@@B$1?DIID__IOPOSBiometricsEvents@@3U2@B$1?LIBID_OposBiometrics_CCO@@3U2@B$00$0A@VCComTypeInfoHolder@ATL@@@ATL@@1VCComTypeInfoHolder@2@A 0000000180033070     Biometrics.obj
 0003:000000a8       ?vszContents@?6??Save@?$IPersistStorageImpl@VCOPOSBiometrics@@@ATL@@UEAAJPEAUIStorage@@H@Z@4PEB_WEB 00000001800330a8     Biometrics.obj
 0003:000000b0       ?wc@?1??GetWndClassInfo@?$CWindowImpl@VCOPOSBiometrics@@VCWindow@ATL@@V?$CWinTraits@$0FGAAAAAA@$0A@@3@@ATL@@SAAEAU_ATL_WNDCLASSINFOW@3@XZ@4U43@A 00000001800330b0     Biometrics.obj
 0003:000001a8       ?rcDefault@CWindow@ATL@@2UtagRECT@@A 00000001800331a8     Biometrics.obj
 0003:00000250       ?g_WindowName@@3PA_WA      0000000180033250     BiometricsImpl.obj
 0003:00000274       ?g_ControlVersion@@3JA     0000000180033274     BiometricsImpl.obj
 0003:00000280       ?g_ControlDescription@@3PADA 0000000180033280     BiometricsImpl.obj
 0003:000003ac       __scrt_native_dllmain_reason 00000001800333ac     LIBCMT:utility.obj
 0003:000003b0       _Init_global_epoch         00000001800333b0     LIBCMT:thread_safe_statics.obj
 0003:000003c0       __security_cookie_complement 00000001800333c0     LIBCMT:gs_cookie.obj
 0003:000003c8       __security_cookie          00000001800333c8     LIBCMT:gs_cookie.obj
 0003:000003d0       __isa_available            00000001800333d0     LIBCMT:cpu_disp.obj
 0003:000003d4       __isa_enabled              00000001800333d4     LIBCMT:cpu_disp.obj
 0003:000003d8       __memcpy_nt_iters          00000001800333d8     LIBCMT:cpu_disp.obj
 0003:000003e0       __memset_nt_iters          00000001800333e0     LIBCMT:cpu_disp.obj
 0003:00000408       __abort_behavior           0000000180033408     libucrt:abort.obj
 0003:00000420       _iob                       0000000180033420     libucrt:_file.obj
 0003:00000530       __acrt_initial_locale_data 0000000180033530     libucrt:nlsdata.obj
 0003:00000688       __acrt_initial_locale_pointers 0000000180033688     libucrt:nlsdata.obj
 0003:00000698       __acrt_wide_c_locale_string 0000000180033698     libucrt:nlsdata.obj
 0003:000006a0       __acrt_initial_multibyte_data 00000001800336a0     libucrt:mbctype.obj
 0003:00000be0       _pwctype                   0000000180033be0     libucrt:ctype.obj
 0003:00000be8       __globallocalestatus       0000000180033be8     libucrt:glstatus.obj
 0003:00000bf0       __acrt_lconv_c             0000000180033bf0     libucrt:localeconv.obj
 0003:00000c88       __acrt_lconv_static_decimal 0000000180033c88     libucrt:localeconv.obj
 0003:00000c8c       __acrt_lconv_static_W_decimal 0000000180033c8c     libucrt:localeconv.obj
 0003:00000c90       _lookuptrailbytes          0000000180033c90     libucrt:read.obj
 0003:00000db4       _fltused                   0000000180033db4     LIBCMT:fltused.obj
 0003:00000db8       ??_R0?AVbad_alloc@std@@@8  0000000180033db8     LIBCMT:throw_bad_alloc.obj
 0003:00000de0       ??_R0?AVexception@std@@@8  0000000180033de0     LIBCMT:throw_bad_alloc.obj
 0003:00000e08       ??_R0?AVbad_array_new_length@std@@@8 0000000180033e08     LIBCMT:throw_bad_alloc.obj
 0003:00000e38       ??_R0?AVtype_info@@@8      0000000180033e38     LIBCMT:std_type_info_static.obj
 0003:00000e58       ??_R0?AVbad_exception@std@@@8 0000000180033e58     libvcruntime:frame.obj
 0003:00000e80       ?_pPerfRegFunc@ATL@@3P6AJPEAUHINSTANCE__@@@ZEA 0000000180033e80     OposVariant.obj
 0003:00000e88       ?_pPerfUnRegFunc@ATL@@3P6AJXZEA 0000000180033e88     OposVariant.obj
 0003:00000e90       ?_AtlRegisterPerUser@ATL@@3_NA 0000000180033e90     OposVariant.obj
 0003:00000e98       ?_pAtlModule@ATL@@3PEAVCAtlModule@1@EA 0000000180033e98     OposVariant.obj
 0003:00000ea0       ?_pModule@ATL@@3PEAVCComModule@1@EA 0000000180033ea0     OposVariant.obj
 0003:00000ea8       ?m_bInitFailed@CAtlBaseModule@ATL@@2_NA 0000000180033ea8     OposVariant.obj
 0003:00000eb0       ?_AtlComModule@ATL@@3VCAtlComModule@1@A 0000000180033eb0     OposVariant.obj
 0003:00000f00       ?_AtlWinModule@ATL@@3VCAtlWinModule@1@A 0000000180033f00     OposVariant.obj
 0003:00000f48       ?m_libid@CAtlModule@ATL@@2U_GUID@@A 0000000180033f48     Biometrics.obj
 0003:00000f58       ?_entries@?1??GetConnMap@COPOSBiometrics@@SAPEBU_ATL_CONNMAP_ENTRY@ATL@@PEAH@Z@4QBU34@B 0000000180033f58     Biometrics.obj
 0003:00000f70       ?$TSS0@?1??GetConnMap@COPOSBiometrics@@SAPEBU_ATL_CONNMAP_ENTRY@ATL@@PEAH@Z@4HA 0000000180033f70     Biometrics.obj
 0003:00000f78       ?_OptionsStorage@?1??__local_stdio_printf_options@@9@4_KA 0000000180033f78     Biometrics.obj
 0003:00000f80       ?pfnRegDeleteKeyEx@?1??DeleteSubKey@CRegKey@ATL@@QEAAJPEB_W@Z@4P6AJPEAUHKEY__@@0KK@ZEA 0000000180033f80     Biometrics.obj
 0003:00000f88       ?bInitialized@?1??DeleteSubKey@CRegKey@ATL@@QEAAJPEB_W@Z@4_NA 0000000180033f88     Biometrics.obj
 0003:00000f90       ?_Module@@3VCComModule@ATL@@A 0000000180033f90     Biometrics.obj
 0003:00000fe0       ?pConnMap@?$IConnectionPointContainerImpl@VCOPOSBiometrics@@@ATL@@0PEBU_ATL_CONNMAP_ENTRY@2@EB 0000000180033fe0     Biometrics.obj
 0003:00000fe8       ?s_nInstances@COPOSBiometrics@@1HA 0000000180033fe8     BiometricsImpl.obj
 0003:00000ff0       __scrt_current_native_startup_state 0000000180033ff0     LIBCMT:utility.obj
 0003:00000ff8       __scrt_native_startup_lock 0000000180033ff8     LIBCMT:utility.obj
 0003:000015f0       _tls_index                 00000001800345f0     LIBCMT:tlssup.obj
 0003:000015f8       __favor                    00000001800345f8     LIBCMT:cpu_disp.obj
 0003:000015fc       __scrt_debugger_hook_flag  00000001800345fc     LIBCMT:utility_desktop.obj
 0003:00001600       ?__type_info_root_node@@3U__type_info_node@@A 0000000180034600     LIBCMT:tncleanup.obj
 0003:00001610       ?_OptionsStorage@?1??__local_stdio_scanf_options@@9@4_KA 0000000180034610     LIBCMT:default_local_stdio_options.obj
 0003:00001620       ?_AtlBaseModule@ATL@@3VCAtlBaseModule@1@A 0000000180034620     atls:atlbase.obj
 0003:00001680       ?__AtlThunkPool@@3PEAT_SLIST_HEADER@@EA 0000000180034680     atls:atlthunk.obj
 0003:000016ac       __@@_PchSym_@00@UzABUPdlipUGUhUrmgvinvwrzgvUexgllohUzgohOmzgrevkilqPBACIAJCBDBUlyqiUznwGEUhgwzucOlyq@4B2008FD98C1DD4 00000001800346ac     atls:stdafx.obj
 0003:000016b0       ?__WinRTOutOfMemoryExceptionCallback@@3P6APEAXXZEA 00000001800346b0     libvcruntime:ehhelpers.obj
 0003:000016b8       __pPurecall                00000001800346b8     libvcruntime:purevirt_data.obj
 0003:00001770       ?pArgList@UnDecorator@@0PEAVReplicator@@EA 0000000180034770     libvcruntime:undname.obj
 0003:00001778       ?pZNameList@UnDecorator@@0PEAVReplicator@@EA 0000000180034778     libvcruntime:undname.obj
 0003:00001780       ?pTemplateArgList@UnDecorator@@0PEAVReplicator@@EA 0000000180034780     libvcruntime:undname.obj
 0003:00001788       ?gName@UnDecorator@@0PEBDEB 0000000180034788     libvcruntime:undname.obj
 0003:00001790       ?name@UnDecorator@@0PEBDEB 0000000180034790     libvcruntime:undname.obj
 0003:00001798       ?disableFlags@UnDecorator@@0KA 0000000180034798     libvcruntime:undname.obj
 0003:0000179c       ?fExplicitTemplateParams@UnDecorator@@0_NA 000000018003479c     libvcruntime:undname.obj
 0003:0000179d       ?fGetTemplateArgumentList@UnDecorator@@0_NA 000000018003479d     libvcruntime:undname.obj
 0003:000017a0       ?m_pGetParameter@UnDecorator@@0P6APEADJ@ZEA 00000001800347a0     libvcruntime:undname.obj
 0003:000017a8       ?m_CHPENameOffset@UnDecorator@@0KA 00000001800347a8     libvcruntime:undname.obj
 0003:000017ac       ?m_recursionLevel@UnDecorator@@0KA 00000001800347ac     libvcruntime:undname.obj
 0003:00001830       ?c_exit_complete@?1???R<lambda_6e4b09c48022b2350581041d5f6b0c4c>@@QEBA@XZ@4_NA 0000000180034830     libucrt:exit.obj
 0003:00001948       _environ_table             0000000180034948     libucrt:environment_initialization.obj
 0003:00001950       _wenviron_table            0000000180034950     libucrt:environment_initialization.obj
 0003:00001958       __dcrt_initial_wide_environment 0000000180034958     libucrt:environment_initialization.obj
 0003:00001960       __dcrt_initial_narrow_environment 0000000180034960     libucrt:environment_initialization.obj
 0003:00001968       __acrt_atexit_table        0000000180034968     libucrt:onexit.obj
 0003:00001980       __acrt_at_quick_exit_table 0000000180034980     libucrt:onexit.obj
 0003:00001b58       _nstream                   0000000180034b58     libucrt:_file.obj
 0003:00001b60       __piob                     0000000180034b60     libucrt:_file.obj
 0003:00001b70       __acrt_stdout_buffer       0000000180034b70     libucrt:_sftbuf.obj
 0003:00001b78       __acrt_stderr_buffer       0000000180034b78     libucrt:_sftbuf.obj
 0003:00001b80       __acrt_locale_changed_data 0000000180034b80     libucrt:wsetlocale.obj
 0003:00001b88       __acrt_current_locale_data 0000000180034b88     libucrt:nlsdata.obj
 0003:00001b90       __pioinfo                  0000000180034b90     libucrt:ioinit.obj
 0003:00001f90       _nhandle                   0000000180034f90     libucrt:ioinit.obj
 0003:000021d8       _mbctype                   00000001800351d8     libucrt:mbctype.obj
 0003:000021e0       _mbcasemap                 00000001800351e0     libucrt:mbctype.obj
 0003:000021e8       __acrt_current_multibyte_data 00000001800351e8     libucrt:mbctype.obj
 0003:000021f8       _pgmptr                    00000001800351f8     libucrt:argv_data.obj
 0003:00002200       __argc                     0000000180035200     libucrt:argv_data.obj
 0003:00002208       __argv                     0000000180035208     libucrt:argv_data.obj
 0003:00002210       __wargv                    0000000180035210     libucrt:argv_data.obj
 0003:00002218       _acmdln                    0000000180035218     libucrt:argv_data.obj
 0003:00002220       _wcmdln                    0000000180035220     libucrt:argv_data.obj
 0003:00002228       __acrt_heap                0000000180035228     libucrt:heap_handle.obj
 0003:0000225c       __acrt_lconv_static_null   000000018003525c     libucrt:localeconv.obj
 0003:00002260       __acrt_lconv_static_W_null 0000000180035260     libucrt:localeconv.obj
 0003:00002274       __fma3_is_available        0000000180035274     libucrt:fma3_available.obj
 0003:00002278       __use_fma3_lib             0000000180035278     libucrt:fma3_available.obj
 0003:00002280       __dyn_tls_init_callback    0000000180035280     <common>
 0003:00002288       __scrt_ucrt_dll_is_in_use  0000000180035288     <common>

 entry point at        0001:0000f624

 Static symbols

 0000:fffc1000       .debug$S                   0000000180000000     OPOSBiometrics.exp
 0000:fffc1000       .debug$S                   0000000180000000     advapi32:ADVAPI32.dll
 0000:fffc1000       .debug$S                   0000000180000000     advapi32:ADVAPI32.dll
 0000:fffc1000       .debug$S                   0000000180000000     advapi32:ADVAPI32.dll
 0000:fffc1000       .debug$S                   0000000180000000     advapi32:ADVAPI32.dll
 0000:fffc1000       .debug$S                   0000000180000000     advapi32:ADVAPI32.dll
 0000:fffc1000       .debug$S                   0000000180000000     advapi32:ADVAPI32.dll
 0000:fffc1000       .debug$S                   0000000180000000     advapi32:ADVAPI32.dll
 0000:fffc1000       .debug$S                   0000000180000000     advapi32:ADVAPI32.dll
 0000:fffc1000       .debug$S                   0000000180000000     advapi32:ADVAPI32.dll
 0000:fffc1000       .debug$S                   0000000180000000     gdi32:GDI32.dll
 0000:fffc1000       .debug$S                   0000000180000000     gdi32:GDI32.dll
 0000:fffc1000       .debug$S                   0000000180000000     gdi32:GDI32.dll
 0000:fffc1000       .debug$S                   0000000180000000     gdi32:GDI32.dll
 0000:fffc1000       .debug$S                   0000000180000000     gdi32:GDI32.dll
 0000:fffc1000       .debug$S                   0000000180000000     gdi32:GDI32.dll
 0000:fffc1000       .debug$S                   0000000180000000     gdi32:GDI32.dll
 0000:fffc1000       .debug$S                   0000000180000000     gdi32:GDI32.dll
 0000:fffc1000       .debug$S                   0000000180000000     gdi32:GDI32.dll
 0000:fffc1000       .debug$S                   0000000180000000     gdi32:GDI32.dll
 0000:fffc1000       .debug$S                   0000000180000000     gdi32:GDI32.dll
 0000:fffc1000       .debug$S                   0000000180000000     gdi32:GDI32.dll
 0000:fffc1000       .debug$S                   0000000180000000     gdi32:GDI32.dll
 0000:fffc1000       .debug$S                   0000000180000000     gdi32:GDI32.dll
 0000:fffc1000       .debug$S                   0000000180000000     gdi32:GDI32.dll
 0000:fffc1000       .debug$S                   0000000180000000     gdi32:GDI32.dll
 0000:fffc1000       .debug$S                   0000000180000000     gdi32:GDI32.dll
 0000:fffc1000       .debug$S                   0000000180000000     gdi32:GDI32.dll
 0000:fffc1000       .debug$S                   0000000180000000     gdi32:GDI32.dll
 0000:fffc1000       .debug$S                   0000000180000000     kernel32:KERNEL32.dll
 0000:fffc1000       .debug$S                   0000000180000000     kernel32:KERNEL32.dll
 0000:fffc1000       .debug$S                   0000000180000000     kernel32:KERNEL32.dll
 0000:fffc1000       .debug$S                   0000000180000000     kernel32:KERNEL32.dll
 0000:fffc1000       .debug$S                   0000000180000000     kernel32:KERNEL32.dll
 0000:fffc1000       .debug$S                   0000000180000000     kernel32:KERNEL32.dll
 0000:fffc1000       .debug$S                   0000000180000000     kernel32:KERNEL32.dll
 0000:fffc1000       .debug$S                   0000000180000000     kernel32:KERNEL32.dll
 0000:fffc1000       .debug$S                   0000000180000000     kernel32:KERNEL32.dll
 0000:fffc1000       .debug$S                   0000000180000000     kernel32:KERNEL32.dll
 0000:fffc1000       .debug$S                   0000000180000000     kernel32:KERNEL32.dll
 0000:fffc1000       .debug$S                   0000000180000000     kernel32:KERNEL32.dll
 0000:fffc1000       .debug$S                   0000000180000000     kernel32:KERNEL32.dll
 0000:fffc1000       .debug$S                   0000000180000000     kernel32:KERNEL32.dll
 0000:fffc1000       .debug$S                   0000000180000000     kernel32:KERNEL32.dll
 0000:fffc1000       .debug$S                   0000000180000000     kernel32:KERNEL32.dll
 0000:fffc1000       .debug$S                   0000000180000000     kernel32:KERNEL32.dll
 0000:fffc1000       .debug$S                   0000000180000000     kernel32:KERNEL32.dll
 0000:fffc1000       .debug$S                   0000000180000000     kernel32:KERNEL32.dll
 0000:fffc1000       .debug$S                   0000000180000000     kernel32:KERNEL32.dll
 0000:fffc1000       .debug$S                   0000000180000000     kernel32:KERNEL32.dll
 0000:fffc1000       .debug$S                   0000000180000000     kernel32:KERNEL32.dll
 0000:fffc1000       .debug$S                   0000000180000000     kernel32:KERNEL32.dll
 0000:fffc1000       .debug$S                   0000000180000000     kernel32:KERNEL32.dll
 0000:fffc1000       .debug$S                   0000000180000000     kernel32:KERNEL32.dll
 0000:fffc1000       .debug$S                   0000000180000000     kernel32:KERNEL32.dll
 0000:fffc1000       .debug$S                   0000000180000000     kernel32:KERNEL32.dll
 0000:fffc1000       .debug$S                   0000000180000000     kernel32:KERNEL32.dll
 0000:fffc1000       .debug$S                   0000000180000000     kernel32:KERNEL32.dll
 0000:fffc1000       .debug$S                   0000000180000000     kernel32:KERNEL32.dll
 0000:fffc1000       .debug$S                   0000000180000000     kernel32:KERNEL32.dll
 0000:fffc1000       .debug$S                   0000000180000000     kernel32:KERNEL32.dll
 0000:fffc1000       .debug$S                   0000000180000000     kernel32:KERNEL32.dll
 0000:fffc1000       .debug$S                   0000000180000000     kernel32:KERNEL32.dll
 0000:fffc1000       .debug$S                   0000000180000000     kernel32:KERNEL32.dll
 0000:fffc1000       .debug$S                   0000000180000000     kernel32:KERNEL32.dll
 0000:fffc1000       .debug$S                   0000000180000000     kernel32:KERNEL32.dll
 0000:fffc1000       .debug$S                   0000000180000000     kernel32:KERNEL32.dll
 0000:fffc1000       .debug$S                   0000000180000000     kernel32:KERNEL32.dll
 0000:fffc1000       .debug$S                   0000000180000000     kernel32:KERNEL32.dll
 0000:fffc1000       .debug$S                   0000000180000000     kernel32:KERNEL32.dll
 0000:fffc1000       .debug$S                   0000000180000000     kernel32:KERNEL32.dll
 0000:fffc1000       .debug$S                   0000000180000000     kernel32:KERNEL32.dll
 0000:fffc1000       .debug$S                   0000000180000000     kernel32:KERNEL32.dll
 0000:fffc1000       .debug$S                   0000000180000000     kernel32:KERNEL32.dll
 0000:fffc1000       .debug$S                   0000000180000000     kernel32:KERNEL32.dll
 0000:fffc1000       .debug$S                   0000000180000000     kernel32:KERNEL32.dll
 0000:fffc1000       .debug$S                   0000000180000000     kernel32:KERNEL32.dll
 0000:fffc1000       .debug$S                   0000000180000000     kernel32:KERNEL32.dll
 0000:fffc1000       .debug$S                   0000000180000000     kernel32:KERNEL32.dll
 0000:fffc1000       .debug$S                   0000000180000000     kernel32:KERNEL32.dll
 0000:fffc1000       .debug$S                   0000000180000000     kernel32:KERNEL32.dll
 0000:fffc1000       .debug$S                   0000000180000000     kernel32:KERNEL32.dll
 0000:fffc1000       .debug$S                   0000000180000000     kernel32:KERNEL32.dll
 0000:fffc1000       .debug$S                   0000000180000000     kernel32:KERNEL32.dll
 0000:fffc1000       .debug$S                   0000000180000000     kernel32:KERNEL32.dll
 0000:fffc1000       .debug$S                   0000000180000000     kernel32:KERNEL32.dll
 0000:fffc1000       .debug$S                   0000000180000000     kernel32:KERNEL32.dll
 0000:fffc1000       .debug$S                   0000000180000000     kernel32:KERNEL32.dll
 0000:fffc1000       .debug$S                   0000000180000000     kernel32:KERNEL32.dll
 0000:fffc1000       .debug$S                   0000000180000000     kernel32:KERNEL32.dll
 0000:fffc1000       .debug$S                   0000000180000000     kernel32:KERNEL32.dll
 0000:fffc1000       .debug$S                   0000000180000000     kernel32:KERNEL32.dll
 0000:fffc1000       .debug$S                   0000000180000000     kernel32:KERNEL32.dll
 0000:fffc1000       .debug$S                   0000000180000000     kernel32:KERNEL32.dll
 0000:fffc1000       .debug$S                   0000000180000000     kernel32:KERNEL32.dll
 0000:fffc1000       .debug$S                   0000000180000000     kernel32:KERNEL32.dll
 0000:fffc1000       .debug$S                   0000000180000000     kernel32:KERNEL32.dll
 0000:fffc1000       .debug$S                   0000000180000000     kernel32:KERNEL32.dll
 0000:fffc1000       .debug$S                   0000000180000000     kernel32:KERNEL32.dll
 0000:fffc1000       .debug$S                   0000000180000000     kernel32:KERNEL32.dll
 0000:fffc1000       .debug$S                   0000000180000000     kernel32:KERNEL32.dll
 0000:fffc1000       .debug$S                   0000000180000000     kernel32:KERNEL32.dll
 0000:fffc1000       .debug$S                   0000000180000000     kernel32:KERNEL32.dll
 0000:fffc1000       .debug$S                   0000000180000000     kernel32:KERNEL32.dll
 0000:fffc1000       .debug$S                   0000000180000000     kernel32:KERNEL32.dll
 0000:fffc1000       .debug$S                   0000000180000000     kernel32:KERNEL32.dll
 0000:fffc1000       .debug$S                   0000000180000000     kernel32:KERNEL32.dll
 0000:fffc1000       .debug$S                   0000000180000000     kernel32:KERNEL32.dll
 0000:fffc1000       .debug$S                   0000000180000000     kernel32:KERNEL32.dll
 0000:fffc1000       .debug$S                   0000000180000000     kernel32:KERNEL32.dll
 0000:fffc1000       .debug$S                   0000000180000000     kernel32:KERNEL32.dll
 0000:fffc1000       .debug$S                   0000000180000000     kernel32:KERNEL32.dll
 0000:fffc1000       .debug$S                   0000000180000000     kernel32:KERNEL32.dll
 0000:fffc1000       .debug$S                   0000000180000000     kernel32:KERNEL32.dll
 0000:fffc1000       .debug$S                   0000000180000000     kernel32:KERNEL32.dll
 0000:fffc1000       .debug$S                   0000000180000000     kernel32:KERNEL32.dll
 0000:fffc1000       .debug$S                   0000000180000000     kernel32:KERNEL32.dll
 0000:fffc1000       .debug$S                   0000000180000000     kernel32:KERNEL32.dll
 0000:fffc1000       .debug$S                   0000000180000000     kernel32:KERNEL32.dll
 0000:fffc1000       .debug$S                   0000000180000000     kernel32:KERNEL32.dll
 0000:fffc1000       .debug$S                   0000000180000000     kernel32:KERNEL32.dll
 0000:fffc1000       .debug$S                   0000000180000000     kernel32:KERNEL32.dll
 0000:fffc1000       .debug$S                   0000000180000000     kernel32:KERNEL32.dll
 0000:fffc1000       .debug$S                   0000000180000000     kernel32:KERNEL32.dll
 0000:fffc1000       .debug$S                   0000000180000000     kernel32:KERNEL32.dll
 0000:fffc1000       .debug$S                   0000000180000000     kernel32:KERNEL32.dll
 0000:fffc1000       .debug$S                   0000000180000000     kernel32:KERNEL32.dll
 0000:fffc1000       .debug$S                   0000000180000000     kernel32:KERNEL32.dll
 0000:fffc1000       .debug$S                   0000000180000000     kernel32:KERNEL32.dll
 0000:fffc1000       .debug$S                   0000000180000000     kernel32:KERNEL32.dll
 0000:fffc1000       .debug$S                   0000000180000000     kernel32:KERNEL32.dll
 0000:fffc1000       .debug$S                   0000000180000000     kernel32:KERNEL32.dll
 0000:fffc1000       .debug$S                   0000000180000000     kernel32:KERNEL32.dll
 0000:fffc1000       .debug$S                   0000000180000000     kernel32:KERNEL32.dll
 0000:fffc1000       .debug$S                   0000000180000000     kernel32:KERNEL32.dll
 0000:fffc1000       .debug$S                   0000000180000000     kernel32:KERNEL32.dll
 0000:fffc1000       .debug$S                   0000000180000000     kernel32:KERNEL32.dll
 0000:fffc1000       .debug$S                   0000000180000000     kernel32:KERNEL32.dll
 0000:fffc1000       .debug$S                   0000000180000000     kernel32:KERNEL32.dll
 0000:fffc1000       .debug$S                   0000000180000000     kernel32:KERNEL32.dll
 0000:fffc1000       .debug$S                   0000000180000000     ole32:ole32.dll
 0000:fffc1000       .debug$S                   0000000180000000     ole32:ole32.dll
 0000:fffc1000       .debug$S                   0000000180000000     ole32:ole32.dll
 0000:fffc1000       .debug$S                   0000000180000000     ole32:ole32.dll
 0000:fffc1000       .debug$S                   0000000180000000     ole32:ole32.dll
 0000:fffc1000       .debug$S                   0000000180000000     ole32:ole32.dll
 0000:fffc1000       .debug$S                   0000000180000000     ole32:ole32.dll
 0000:fffc1000       .debug$S                   0000000180000000     ole32:ole32.dll
 0000:fffc1000       .debug$S                   0000000180000000     ole32:ole32.dll
 0000:fffc1000       .debug$S                   0000000180000000     ole32:ole32.dll
 0000:fffc1000       .debug$S                   0000000180000000     ole32:ole32.dll
 0000:fffc1000       .debug$S                   0000000180000000     ole32:ole32.dll
 0000:fffc1000       .debug$S                   0000000180000000     ole32:ole32.dll
 0000:fffc1000       .debug$S                   0000000180000000     ole32:ole32.dll
 0000:fffc1000       .debug$S                   0000000180000000     oleaut32:OLEAUT32.dll
 0000:fffc1000       .debug$S                   0000000180000000     oleaut32:OLEAUT32.dll
 0000:fffc1000       .debug$S                   0000000180000000     oleaut32:OLEAUT32.dll
 0000:fffc1000       .debug$S                   0000000180000000     oleaut32:OLEAUT32.dll
 0000:fffc1000       .debug$S                   0000000180000000     oleaut32:OLEAUT32.dll
 0000:fffc1000       .debug$S                   0000000180000000     oleaut32:OLEAUT32.dll
 0000:fffc1000       .debug$S                   0000000180000000     oleaut32:OLEAUT32.dll
 0000:fffc1000       .debug$S                   0000000180000000     oleaut32:OLEAUT32.dll
 0000:fffc1000       .debug$S                   0000000180000000     oleaut32:OLEAUT32.dll
 0000:fffc1000       .debug$S                   0000000180000000     oleaut32:OLEAUT32.dll
 0000:fffc1000       .debug$S                   0000000180000000     oleaut32:OLEAUT32.dll
 0000:fffc1000       .debug$S                   0000000180000000     oleaut32:OLEAUT32.dll
 0000:fffc1000       .debug$S                   0000000180000000     oleaut32:OLEAUT32.dll
 0000:fffc1000       .debug$S                   0000000180000000     oleaut32:OLEAUT32.dll
 0000:fffc1000       .debug$S                   0000000180000000     oleaut32:OLEAUT32.dll
 0000:fffc1000       .debug$S                   0000000180000000     oleaut32:OLEAUT32.dll
 0000:fffc1000       .debug$S                   0000000180000000     user32:USER32.dll
 0000:fffc1000       .debug$S                   0000000180000000     user32:USER32.dll
 0000:fffc1000       .debug$S                   0000000180000000     user32:USER32.dll
 0000:fffc1000       .debug$S                   0000000180000000     user32:USER32.dll
 0000:fffc1000       .debug$S                   0000000180000000     user32:USER32.dll
 0000:fffc1000       .debug$S                   0000000180000000     user32:USER32.dll
 0000:fffc1000       .debug$S                   0000000180000000     user32:USER32.dll
 0000:fffc1000       .debug$S                   0000000180000000     user32:USER32.dll
 0000:fffc1000       .debug$S                   0000000180000000     user32:USER32.dll
 0000:fffc1000       .debug$S                   0000000180000000     user32:USER32.dll
 0000:fffc1000       .debug$S                   0000000180000000     user32:USER32.dll
 0000:fffc1000       .debug$S                   0000000180000000     user32:USER32.dll
 0000:fffc1000       .debug$S                   0000000180000000     user32:USER32.dll
 0000:fffc1000       .debug$S                   0000000180000000     user32:USER32.dll
 0000:fffc1000       .debug$S                   0000000180000000     user32:USER32.dll
 0000:fffc1000       .debug$S                   0000000180000000     user32:USER32.dll
 0000:fffc1000       .debug$S                   0000000180000000     user32:USER32.dll
 0000:fffc1000       .debug$S                   0000000180000000     user32:USER32.dll
 0000:fffc1000       .debug$S                   0000000180000000     user32:USER32.dll
 0000:fffc1000       .debug$S                   0000000180000000     user32:USER32.dll
 0000:fffc1000       .debug$S                   0000000180000000     user32:USER32.dll
 0000:fffc1000       .debug$S                   0000000180000000     user32:USER32.dll
 0000:fffc1000       .debug$S                   0000000180000000     user32:USER32.dll
 0000:fffc1000       .debug$S                   0000000180000000     user32:USER32.dll
 0000:fffc1000       .debug$S                   0000000180000000     user32:USER32.dll
 0000:fffc1000       .debug$S                   0000000180000000     user32:USER32.dll
 0000:fffc1000       .debug$S                   0000000180000000     user32:USER32.dll
 0000:fffc1000       .debug$S                   0000000180000000     user32:USER32.dll
 0000:fffc1000       .debug$S                   0000000180000000     user32:USER32.dll
 0000:fffc1000       .debug$S                   0000000180000000     user32:USER32.dll
 0000:fffc1000       .debug$S                   0000000180000000     user32:USER32.dll
 0000:fffc1000       .debug$S                   0000000180000000     user32:USER32.dll
 0000:fffc1000       .debug$S                   0000000180000000     user32:USER32.dll
 0000:fffc1000       .debug$S                   0000000180000000     user32:USER32.dll
 0000:fffc1000       .debug$S                   0000000180000000     user32:USER32.dll
 0001:00000000       ??__E_AtlComModule@ATL@@YAXXZ 0000000180001000 f   OposVariant.obj
 0001:00000020       ??__E_AtlWinModule@ATL@@YAXXZ 0000000180001020 f   OposVariant.obj
 0001:00000040       ??__E?pConnMap@?$IConnectionPointContainerImpl@VCOPOSBiometrics@@@ATL@@0PEBU_ATL_CONNMAP_ENTRY@2@EB@@YAXXZ 0000000180001040 f   Biometrics.obj
 0001:00000058       ??__E_Module@@YAXXZ        0000000180001058 f   Biometrics.obj
 0001:00000094       ??__E_AtlBaseModule@ATL@@YAXXZ 0000000180001094 f   atls:atlbase.obj
 0001:0000ec34       ?__scrt_initialize_thread_safe_statics@@YAHXZ 000000018000fc34 f   LIBCMT:thread_safe_statics.obj
 0001:0000ed04       ?__scrt_uninitialize_thread_safe_statics@@YAXXZ 000000018000fd04 f   LIBCMT:thread_safe_statics.obj
 0001:0000f054       capture_current_context    0000000180010054 f   LIBCMT:gs_report.obj
 0001:0000f0c4       capture_previous_context   00000001800100c4 f   LIBCMT:gs_report.obj
 0001:0000f260       $$000000                   0000000180010260     LIBCMT:chkstk.obj
 0001:0000f2d0       $$000000                   00000001800102d0     LIBCMT:amdsecgs.obj
 0001:0000f304       ?dllmain_crt_dispatch@@YAHQEAUHINSTANCE__@@KQEAX@Z 0000000180010304 f   LIBCMT:dll_dllmain.obj
 0001:0000f354       ?dllmain_crt_process_attach@@YAHQEAUHINSTANCE__@@QEAX@Z 0000000180010354 f   LIBCMT:dll_dllmain.obj
 0001:0000f46c       ?dllmain_crt_process_detach@@YAH_N@Z 000000018001046c f   LIBCMT:dll_dllmain.obj
 0001:0000f4f0       ?dllmain_dispatch@@YAHQEAUHINSTANCE__@@KQEAX@Z 00000001800104f0 f   LIBCMT:dll_dllmain.obj
 0001:0000fdb8       ??$GetProcAddressAll@P6AP6A_JPEAUHWND__@@I_K_J@ZPEAUAtlThunkData_t@@@Z@@YAP6AP6A_JPEAUHWND__@@I_K_J@ZPEAUAtlThunkData_t@@@ZPEAP6AP6A_J0I12@Z3@Z@Z 0000000180010db8 f   atls:atlthunk.obj
 0001:0000fdb8       ??$GetProcAddressAll@P6APEAUAtlThunkData_t@@XZ@@YAP6APEAUAtlThunkData_t@@XZPEAP6APEAU0@XZ@Z 0000000180010db8 f   atls:atlthunk.obj
 0001:0000fdb8       ??$GetProcAddressAll@P6AXPEAUAtlThunkData_t@@@Z@@YAP6AXPEAUAtlThunkData_t@@@ZPEAP6AX0@Z@Z 0000000180010db8 f   atls:atlthunk.obj
 0001:0000fdb8       ??$GetProcAddressAll@P6AXPEAUAtlThunkData_t@@PEAX_K@Z@@YAP6AXPEAUAtlThunkData_t@@PEAX_K@ZPEAP6AX012@Z@Z 0000000180010db8 f   atls:atlthunk.obj
 0001:0000ff90       ?__InitializeThunkPool@@YAHXZ 0000000180010f90 f   atls:atlthunk.obj
 0001:00010430       $$000000                   0000000180011430     libvcruntime:memcmp.obj
 0001:00010510       $$000000                   0000000180011510     libvcruntime:memcpy.obj
 0001:00010920       $$000000                   0000000180011920     libvcruntime:memset.obj
 0001:00011a30       $$000000                   0000000180012a30     libvcruntime:notify.obj
 0001:00011b9c       ??$BuildCatchObjectHelperInternal@V__FrameHandler4@@@@YAHPEAUEHExceptionRecord@@PEAXPEAUHandlerType4@FH4@@PEBU_s_CatchableType@@@Z 0000000180012b9c f   libvcruntime:frame.obj
 0001:00011da0       ??$BuildCatchObjectInternal@V__FrameHandler4@@@@YAXPEAUEHExceptionRecord@@PEAXPEAUHandlerType4@FH4@@PEBU_s_CatchableType@@@Z 0000000180012da0 f   libvcruntime:frame.obj
 0001:00011e64       ??$CatchIt@V__FrameHandler4@@@@YAXPEAUEHExceptionRecord@@PEA_KPEAU_CONTEXT@@PEAU_xDISPATCHER_CONTEXT@@PEAUFuncInfo4@FH4@@PEAUHandlerType4@4@PEBU_s_CatchableType@@PEAUTryBlockMapEntry4@4@H1EE@Z 0000000180012e64 f   libvcruntime:frame.obj
 0001:00011f38       ??$FindHandler@V__FrameHandler4@@@@YAXPEAUEHExceptionRecord@@PEA_KPEAU_CONTEXT@@PEAU_xDISPATCHER_CONTEXT@@PEAUFuncInfo4@FH4@@EH1@Z 0000000180012f38 f   libvcruntime:frame.obj
 0001:00012448       ??$FindHandlerForForeignException@V__FrameHandler4@@@@YAXPEAUEHExceptionRecord@@PEA_KPEAU_CONTEXT@@PEAU_xDISPATCHER_CONTEXT@@PEAUFuncInfo4@FH4@@HH1@Z 0000000180013448 f   libvcruntime:frame.obj
 0001:000131d8       ?ExFilterRethrow@@YAHPEAU_EXCEPTION_POINTERS@@PEAUEHExceptionRecord@@PEAH@Z 00000001800141d8 f   libvcruntime:frame.obj
 0001:00013260       ?ExFilterRethrowFH4@@YAHPEAU_EXCEPTION_POINTERS@@PEAUEHExceptionRecord@@HPEAH@Z 0000000180014260 f   libvcruntime:frame.obj
 0001:00013578       ?IsInExceptionSpec@@YAEPEAUEHExceptionRecord@@PEBU_s_ESTypeList@@@Z 0000000180014578 f   libvcruntime:frame.obj
 0001:00013664       ?Is_bad_exception_allowed@@YAEPEBU_s_ESTypeList@@@Z 0000000180014664 f   libvcruntime:frame.obj
 0001:00013940       ?try_get_function@@YAPEAXW4function_id@?A0x5302d918@@QEBDQEBW4module_id@2@2@Z 0000000180014940 f   libvcruntime:winapi_downlevel.obj
 0001:00013c20       $$000000                   0000000180014c20     libvcruntime:handlers.obj
 0001:00014438       ??$common_vsprintf@Vformat_validation_base@__crt_stdio_output@@_W@@YAH_KQEA_W0QEB_WQEAU__crt_locale_pointers@@QEAD@Z 0000000180015438 f   libucrt:output.obj
 0001:000152d8       $LN17                      00000001800162d8     libucrt:output.obj
 0001:00015c7c       ??$?RV<lambda_d80eeec6fff315bfe5c115232f3240e3>@@AEAV<lambda_6e4b09c48022b2350581041d5f6b0c4c>@@V<lambda_2358e3775559c9db80273638284d5e45>@@@?$__crt_seh_guarded_call@X@@QEAAX$$QEAV<lambda_d80eeec6fff315bfe5c115232f3240e3>@@AEAV<lambda_6e4b09c48022b2350581041d5f6b0c4c>@@$$QEAV<lambda_2358e3775559c9db80273638284d5e45>@@@Z 0000000180016c7c f   libucrt:exit.obj
 0001:00015cb4       ??R<lambda_6e4b09c48022b2350581041d5f6b0c4c>@@QEBA@XZ 0000000180016cb4 f   libucrt:exit.obj
 0001:00015d78       ?atexit_exception_filter@@YAHK@Z 0000000180016d78 f   libucrt:exit.obj
 0001:00015d84       ?common_exit@@YAXHW4_crt_exit_cleanup_mode@@W4_crt_exit_return_mode@@@Z 0000000180016d84 f   libucrt:exit.obj
 0001:00015e40       ?exit_or_terminate_process@@YAXI@Z 0000000180016e40 f   libucrt:exit.obj
 0001:00015e8c       ?try_cor_exit_process@@YAXI@Z 0000000180016e8c f   libucrt:exit.obj
 0001:00015f14       ??$parse_command_line@D@@YAXPEADPEAPEAD0PEA_K2@Z 0000000180016f14 f   libucrt:argv_parsing.obj
 0001:000162bc       ??$common_initialize_environment_nolock@D@@YAHXZ 00000001800172bc f   libucrt:environment_initialization.obj
 0001:00016328       ??$create_environment@D@@YAQEAPEADQEAD@Z 0000000180017328 f   libucrt:environment_initialization.obj
 0001:00016430       ??$free_environment@D@@YAXQEAPEAD@Z 0000000180017430 f   libucrt:environment_initialization.obj
 0001:00016430       ??$free_environment@_W@@YAXQEAPEA_W@Z 0000000180017430 f   libucrt:environment_initialization.obj
 0001:00016474       ??$uninitialize_environment_internal@D@@YAXAEAPEAPEAD@Z 0000000180017474 f   libucrt:environment_initialization.obj
 0001:00016490       ??$uninitialize_environment_internal@_W@@YAXAEAPEAPEA_W@Z 0000000180017490 f   libucrt:environment_initialization.obj
 0001:000164ec       ??$?RV<lambda_638799b9deba96c50f710eeac98168cd>@@AEAV<lambda_22ebabd17bc4fa466a2aca6d8deb888d>@@V<lambda_a6f7d7db0129f75315ebf26d50c089f1>@@@?$__crt_seh_guarded_call@H@@QEAAH$$QEAV<lambda_638799b9deba96c50f710eeac98168cd>@@AEAV<lambda_22ebabd17bc4fa466a2aca6d8deb888d>@@$$QEAV<lambda_a6f7d7db0129f75315ebf26d50c089f1>@@@Z 00000001800174ec f   libucrt:onexit.obj
 0001:00016528       ??$?RV<lambda_7777bce6b2f8c936911f934f8298dc43>@@AEAV<lambda_f03950bc5685219e0bcd2087efbe011e>@@V<lambda_3883c3dff614d5e0c5f61bb1ac94921c>@@@?$__crt_seh_guarded_call@H@@QEAAH$$QEAV<lambda_7777bce6b2f8c936911f934f8298dc43>@@AEAV<lambda_f03950bc5685219e0bcd2087efbe011e>@@$$QEAV<lambda_3883c3dff614d5e0c5f61bb1ac94921c>@@@Z 0000000180017528 f   libucrt:onexit.obj
 0001:00016564       ??R<lambda_22ebabd17bc4fa466a2aca6d8deb888d>@@QEBAHXZ 0000000180017564 f   libucrt:onexit.obj
 0001:00016714       ??R<lambda_f03950bc5685219e0bcd2087efbe011e>@@QEBAHXZ 0000000180017714 f   libucrt:onexit.obj
 0001:000168e8       initialize_global_variables 00000001800178e8 f   libucrt:initialization.obj
 0001:000168fc       initialize_c               00000001800178fc f   libucrt:initialization.obj
 0001:00016920       initialize_environment     0000000180017920 f   libucrt:initialization.obj
 0001:00016920       initialize_global_state_isolation 0000000180017920 f   libucrt:initialization.obj
 0001:00016920       report_memory_leaks        0000000180017920 f   libucrt:initialization.obj
 0001:00016920       uninitialize_c             0000000180017920 f   libucrt:initialization.obj
 0001:00016920       uninitialize_global_state_isolation 0000000180017920 f   libucrt:initialization.obj
 0001:00016924       uninitialize_environment   0000000180017924 f   libucrt:initialization.obj
 0001:00016934       initialize_pointers        0000000180017934 f   libucrt:initialization.obj
 0001:00016974       uninitialize_vcruntime     0000000180017974 f   libucrt:initialization.obj
 0001:0001697c       uninitialize_allocated_memory 000000018001797c f   libucrt:initialization.obj
 0001:000169bc       uninitialize_allocated_io_buffers 00000001800179bc f   libucrt:initialization.obj
 0001:00017330       $$000000                   0000000180018330     libucrt:strncmp.obj
 0001:0001742c       ??$?RV<lambda_0ae27a3a962d80f24befdcbee591983d>@@AEAV<lambda_8d0ee55de4b1038c4002e0adecdf1839>@@V<lambda_dc504788e8f1664fe9b84e20bfb512f2>@@@?$__crt_seh_guarded_call@X@@QEAAX$$QEAV<lambda_0ae27a3a962d80f24befdcbee591983d>@@AEAV<lambda_8d0ee55de4b1038c4002e0adecdf1839>@@$$QEAV<lambda_dc504788e8f1664fe9b84e20bfb512f2>@@@Z 000000018001842c f   libucrt:per_thread_data.obj
 0001:0001746c       ??$?RV<lambda_2d41944a1d46af3157314b8a01080d33>@@AEAV<lambda_8f455de75cd7d7f24b4096f044d8b9e6>@@V<lambda_aa500f224e6afead328df44964fe2772>@@@?$__crt_seh_guarded_call@X@@QEAAX$$QEAV<lambda_2d41944a1d46af3157314b8a01080d33>@@AEAV<lambda_8f455de75cd7d7f24b4096f044d8b9e6>@@$$QEAV<lambda_aa500f224e6afead328df44964fe2772>@@@Z 000000018001846c f   libucrt:per_thread_data.obj
 0001:000174ac       ??$?RV<lambda_aa87e3671a710a21b5dc78c0bdf72e11>@@AEAV<lambda_92619d2358a28f41a33ba319515a20b9>@@V<lambda_6992ecaafeb10aed2b74cb1fae11a551>@@@?$__crt_seh_guarded_call@X@@QEAAX$$QEAV<lambda_aa87e3671a710a21b5dc78c0bdf72e11>@@AEAV<lambda_92619d2358a28f41a33ba319515a20b9>@@$$QEAV<lambda_6992ecaafeb10aed2b74cb1fae11a551>@@@Z 00000001800184ac f   libucrt:per_thread_data.obj
 0001:000174f4       ??$?RV<lambda_f2e299630e499de9f9a165e60fcd3db5>@@AEAV<lambda_2ae9d31cdba2644fcbeaf08da7c24588>@@V<lambda_40d01ff24d0e7b3814fdbdcee8eab3c7>@@@?$__crt_seh_guarded_call@X@@QEAAX$$QEAV<lambda_f2e299630e499de9f9a165e60fcd3db5>@@AEAV<lambda_2ae9d31cdba2644fcbeaf08da7c24588>@@$$QEAV<lambda_40d01ff24d0e7b3814fdbdcee8eab3c7>@@@Z 00000001800184f4 f   libucrt:per_thread_data.obj
 0001:00017554       ?construct_ptd_array@@YAXQEAU__acrt_ptd@@@Z 0000000180018554 f   libucrt:per_thread_data.obj
 0001:00017624       ?destroy_fls@@YAXPEAX@Z    0000000180018624 f   libucrt:per_thread_data.obj
 0001:00017644       ?destroy_ptd_array@@YAXQEAU__acrt_ptd@@@Z 0000000180018644 f   libucrt:per_thread_data.obj
 0001:0001773c       ?replace_current_thread_locale_nolock@@YAXQEAU__acrt_ptd@@QEAU__crt_locale_data@@@Z 000000018001873c f   libucrt:per_thread_data.obj
 0001:00017c20       ?try_get_function@@YAPEAXW4function_id@?A0x391cf84c@@QEBDQEBW4module_id@2@2@Z 0000000180018c20 f   libucrt:winapi_thunks.obj
 0001:000185f0       ?fp_format_a@@YAHQEBNPEAD_KQEAD2H_NIQEAU__crt_locale_pointers@@W4__acrt_rounding_mode@@@Z 00000001800195f0 f   libucrt:cvt.obj
 0001:00018970       ?fp_format_e@@YAHQEBNQEAD_K12H_NIQEAU__crt_locale_pointers@@W4__acrt_rounding_mode@@@Z 0000000180019970 f   libucrt:cvt.obj
 0001:00018a60       ?fp_format_e_internal@@YAHQEAD_KH_NIQEAU_strflt@@2QEAU__crt_locale_pointers@@@Z 0000000180019a60 f   libucrt:cvt.obj
 0001:00018c34       ?fp_format_f_internal@@YAHQEAD_KHQEAU_strflt@@_NQEAU__crt_locale_pointers@@@Z 0000000180019c34 f   libucrt:cvt.obj
 0001:00018d9c       ?fp_format_g@@YAHQEBNQEAD_K12H_NIQEAU__crt_locale_pointers@@@Z 0000000180019d9c f   libucrt:cvt.obj
 0001:00018edc       ?should_round_up@@YA_NQEBN_KFW4__acrt_rounding_mode@@@Z 0000000180019edc f   libucrt:cvt.obj
 0001:00019500       ??$?RV<lambda_410d79af7f07d98d83a3f525b3859a53>@@AEAV<lambda_3e16ef9562a7dcce91392c22ab16ea36>@@V<lambda_38119f0e861e05405d8a144b9b982f0a>@@@?$__crt_seh_guarded_call@X@@QEAAX$$QEAV<lambda_410d79af7f07d98d83a3f525b3859a53>@@AEAV<lambda_3e16ef9562a7dcce91392c22ab16ea36>@@$$QEAV<lambda_38119f0e861e05405d8a144b9b982f0a>@@@Z 000000018001a500 f   libucrt:wsetlocale.obj
 0001:000195ac       ?initialize_inherited_file_handles_nolock@@YAXXZ 000000018001a5ac f   libucrt:ioinit.obj
 0001:0001969c       ?initialize_stdio_handles_nolock@@YAXXZ 000000018001a69c f   libucrt:ioinit.obj
 0001:00019918       ?<lambda_invoker_cdecl>@<lambda_a1ce4c8ae42411fd470c77163914f50e>@@CAHPEBX0@Z 000000018001a918 f   libucrt:argv_wildcards.obj
 0001:00019c30       ??$common_expand_argv_wildcards@D@@YAHQEAPEADQEAPEAPEAD@Z 000000018001ac30 f   libucrt:argv_wildcards.obj
 0001:00019e3c       ??$copy_and_add_argument_to_buffer@D@@YAHQEBD0_KAEAV?$argument_list@D@?A0x5f5c8891@@@Z 000000018001ae3c f   libucrt:argv_wildcards.obj
 0001:00019fc4       ??$expand_argument_wildcards@D@@YAHQEAD0AEAV?$argument_list@D@?A0x5f5c8891@@@Z 000000018001afc4 f   libucrt:argv_wildcards.obj
 0001:0001a510       ??$?RV<lambda_efdfa57d1f175319df784efa44bb7b81>@@AEAV<lambda_5f0a4c1567f8adc6734073e5d1e1b35c>@@V<lambda_2e8a7d3640ea6ccb4c2413664c2db6fd>@@@?$__crt_seh_guarded_call@X@@QEAAX$$QEAV<lambda_efdfa57d1f175319df784efa44bb7b81>@@AEAV<lambda_5f0a4c1567f8adc6734073e5d1e1b35c>@@$$QEAV<lambda_2e8a7d3640ea6ccb4c2413664c2db6fd>@@@Z 000000018001b510 f   libucrt:mbctype.obj
 0001:0001a6cc       ?getSystemCP@@YAHH@Z       000000018001b6cc f   libucrt:mbctype.obj
 0001:0001a74c       ?setSBCS@@YAXPEAU__crt_multibyte_data@@@Z 000000018001b74c f   libucrt:mbctype.obj
 0001:0001a7dc       ?setSBUpLow@@YAXPEAU__crt_multibyte_data@@@Z 000000018001b7dc f   libucrt:mbctype.obj
 0001:0001a9c0       ?setmbcp_internal@@YAHH_NQEAU__acrt_ptd@@QEAPEAU__crt_multibyte_data@@@Z 000000018001b9c0 f   libucrt:mbctype.obj
 0001:0001ab80       ?update_thread_multibyte_data_internal@@YAPEAU__crt_multibyte_data@@QEAU__acrt_ptd@@QEAPEAU1@@Z 000000018001bb80 f   libucrt:mbctype.obj
 0001:0001af70       ?x_ismbbtype_l@@YAHPEAU__crt_locale_pointers@@IHH@Z 000000018001bf70 f   libucrt:ismbbyte.obj
 0001:0001b318       ??$?RV<lambda_450d765d439847d4c735a33c368b5fc0>@@AEAV<lambda_44731a7d0e6d81c3e6aa82d741081786>@@V<lambda_601a2a7da3b7a96e9554ac7215c4b07c>@@@?$__crt_seh_guarded_call@P6AXH@Z@@QEAAP6AXH@Z$$QEAV<lambda_450d765d439847d4c735a33c368b5fc0>@@AEAV<lambda_44731a7d0e6d81c3e6aa82d741081786>@@$$QEAV<lambda_601a2a7da3b7a96e9554ac7215c4b07c>@@@Z 000000018001c318 f   libucrt:signal.obj
 0001:0001b674       ??$?RV<lambda_842d9ff0dc9ef11c61343bbaebe7f885>@@AEAV<lambda_c5860995281e5c4ce005b3de8f5874ee>@@V<lambda_d90129c13df834fdcbf8d2b88dafcf2d>@@@?$__crt_seh_guarded_call@X@@QEAAX$$QEAV<lambda_842d9ff0dc9ef11c61343bbaebe7f885>@@AEAV<lambda_c5860995281e5c4ce005b3de8f5874ee>@@$$QEAV<lambda_d90129c13df834fdcbf8d2b88dafcf2d>@@@Z 000000018001c674 f   libucrt:fflush.obj
 0001:0001b710       ??$?RV<lambda_886d6c58226a84441f68b9f2b8217b83>@@AEAV<lambda_ab61a845afdef5b7c387490eaf3616ee>@@V<lambda_f7f22ab5edc0698d5f6905b0d3f44752>@@@?$__crt_seh_guarded_call@X@@QEAAX$$QEAV<lambda_886d6c58226a84441f68b9f2b8217b83>@@AEAV<lambda_ab61a845afdef5b7c387490eaf3616ee>@@$$QEAV<lambda_f7f22ab5edc0698d5f6905b0d3f44752>@@@Z 000000018001c710 f   libucrt:fflush.obj
 0001:0001b7f0       ?common_flush_all@@YAH_N@Z 000000018001c7f0 f   libucrt:fflush.obj
 0001:0001d840       memcpy_s                   000000018001e840 f   libucrt:cfout.obj
 0001:0001dba8       ?free_crt_array_internal@@YAXQEAPEBX_K@Z 000000018001eba8 f   libucrt:inittime.obj
 0001:0001e634       fallbackMethod             000000018001f634 f   libucrt:strpbrk.obj
 0001:0001e9ec       $LN78                      000000018001f9ec     libucrt:strpbrk.obj
 0001:0001ea28       $LN77                      000000018001fa28     libucrt:strpbrk.obj
 0001:0001ea68       $LN76                      000000018001fa68     libucrt:strpbrk.obj
 0001:0001eb44       ?__acrt_LCMapStringA_stat@@YAHPEAU__crt_locale_pointers@@PEB_WKPEBDHPEADHHH@Z 000000018001fb44 f   libucrt:lcmapstringa.obj
 0001:0001eef4       ?initialize_multibyte@@YAHXZ 000000018001fef4 f   libucrt:multibyte_initializer.obj
 0001:0001ef0c       ??$?RV<lambda_a37b2b86f63e897a80ea819b0eb08c01>@@AEAV<lambda_38ce7e780aa69e748d6df282ebc68efe>@@V<lambda_99fb1378e971ab6e7edea83e3a7a83a2>@@@?$__crt_seh_guarded_call@H@@QEAAH$$QEAV<lambda_a37b2b86f63e897a80ea819b0eb08c01>@@AEAV<lambda_38ce7e780aa69e748d6df282ebc68efe>@@$$QEAV<lambda_99fb1378e971ab6e7edea83e3a7a83a2>@@@Z 000000018001ff0c f   libucrt:commit.obj
 0001:0001f02c       ?write_double_translated_ansi_nolock@@YA?AUwrite_result@?A0x17268360@@HQEBDI@Z 000000018002002c f   libucrt:write.obj
 0001:0001f518       ?write_text_ansi_nolock@@YA?AUwrite_result@?A0x17268360@@HQEBDI@Z 0000000180020518 f   libucrt:write.obj
 0001:0001f61c       ?write_text_utf16le_nolock@@YA?AUwrite_result@?A0x17268360@@HQEBDI@Z 000000018002061c f   libucrt:write.obj
 0001:0001f738       ?write_text_utf8_nolock@@YA?AUwrite_result@?A0x17268360@@HQEBDI@Z 0000000180020738 f   libucrt:write.obj
 0001:00020090       $$000000                   0000000180021090     libucrt:log10.obj
 0001:0002095c       ??$common_lseek_nolock@_J@@YA_JH_JH@Z 000000018002195c f   libucrt:lseek.obj
 0001:00020bbc       common_control87           0000000180021bbc f   libucrt:ieee.obj
 0001:00020e7c       _call_matherr              0000000180021e7c f   libucrt:libm_error.obj
 0001:00020ee4       _exception_enabled         0000000180021ee4 f   libucrt:libm_error.obj
 0001:00021180       _log_special_common        0000000180022180 f   libucrt:log_special.obj
 0001:00021218       ??$?RV<lambda_751a882b2c74d4b022dec766aa51a29a>@@AEAV<lambda_628dfdc04ba53c8bfc02c9951375f3f5>@@V<lambda_f6c7be5f7998530c34de24c7437d6b54>@@@?$__crt_seh_guarded_call@H@@QEAAH$$QEAV<lambda_751a882b2c74d4b022dec766aa51a29a>@@AEAV<lambda_628dfdc04ba53c8bfc02c9951375f3f5>@@$$QEAV<lambda_f6c7be5f7998530c34de24c7437d6b54>@@@Z 0000000180022218 f   libucrt:close.obj
 0001:00021540       $$000000                   0000000180022540     libucrt:fpsr.obj
 0001:00021be0       $$000000                   0000000180022be0     LIBCMT:guard_dispatch.obj
 0001:00021c00       $$000000                   0000000180022c00     LIBCMT:guard_xfg_dispatch.obj
 0001:00021c20       ?filt$0@?0??_AtlVerifyStackAvailable@_ATL_SAFE_ALLOCA_IMPL@ATL@@YA_N_K@Z@4HA 0000000180022c20 f   Biometrics.obj
 0001:00021c41       __scrt_is_nonwritable_in_current_image$filt$0 0000000180022c41 f   LIBCMT:utility.obj
 0001:00021c59       ?catch$0@?0???2@YAPEAX_KAEBUnothrow_t@std@@@Z@4HA 0000000180022c59 f   LIBCMT:new_scalar_nothrow.obj
 0001:00021c66       __catch$??2@YAPEAX_KAEBUnothrow_t@std@@@Z$0 0000000180022c66 f   LIBCMT:new_scalar_nothrow.obj
 0001:00021c77       ?fin$0@?0??dllmain_crt_process_attach@@YAHQEAUHINSTANCE__@@QEAX@Z@4HA 0000000180022c77 f   LIBCMT:dll_dllmain.obj
 0001:00021c8e       ?fin$0@?0??dllmain_crt_process_detach@@YAH_N@Z@4HA 0000000180022c8e f   LIBCMT:dll_dllmain.obj
 0001:00021ca7       ?fin$1@?0??dllmain_crt_process_detach@@YAH_N@Z@4HA 0000000180022ca7 f   LIBCMT:dll_dllmain.obj
 0001:00021cbb       ?filt$0@?0??dllmain_dispatch@@YAHQEAUHINSTANCE__@@KQEAX@Z@4HA 0000000180022cbb f   LIBCMT:dll_dllmain.obj
 0001:00021cf1       ?filt$0@?0???$_CallSETranslator@V__FrameHandler4@@@@YAHPEAUEHExceptionRecord@@PEA_KPEAU_CONTEXT@@PEAU_xDISPATCHER_CONTEXT@@PEAUFuncInfo4@FH4@@K1H@Z@4HA 0000000180022cf1 f   libvcruntime:risctrnsctrl.obj
 0001:00021d90       __DestructExceptionObject$filt$0 0000000180022d90 f   libvcruntime:ehhelpers.obj
 0001:00021e26       ?filt$0@?0??CxxCallCatchBlock@__FrameHandler4@@SAPEAXPEAU_EXCEPTION_RECORD@@@Z@4HA 0000000180022e26 f   libvcruntime:frame.obj
 0001:00021e55       ?fin$1@?0??CxxCallCatchBlock@__FrameHandler4@@SAPEAXPEAU_EXCEPTION_RECORD@@@Z@4HA 0000000180022e55 f   libvcruntime:frame.obj
 0001:00021ed8       ?filt$0@?0??FrameUnwindToState@__FrameHandler4@@SAXPEA_KPEAU_xDISPATCHER_CONTEXT@@PEAUFuncInfo4@FH4@@H@Z@4HA 0000000180022ed8 f   libvcruntime:frame.obj
 0001:00021eee       ?fin$1@?0??FrameUnwindToState@__FrameHandler4@@SAXPEA_KPEAU_xDISPATCHER_CONTEXT@@PEAUFuncInfo4@FH4@@H@Z@4HA 0000000180022eee f   libvcruntime:frame.obj
 0001:00021f11       ?fin$0@?0???$?RV<lambda_0ae27a3a962d80f24befdcbee591983d>@@AEAV<lambda_8d0ee55de4b1038c4002e0adecdf1839>@@V<lambda_dc504788e8f1664fe9b84e20bfb512f2>@@@?$__crt_seh_guarded_call@X@@QEAAX$$QEAV<lambda_0ae27a3a962d80f24befdcbee591983d>@@AEAV<lambda_8d0ee55de4b1038c4002e0adecdf1839>@@$$QEAV<lambda_dc504788e8f1664fe9b84e20bfb512f2>@@@Z@4HA 0000000180022f11 f   libucrt:per_thread_data.obj
 0001:00021f11       ?fin$0@?0???$?RV<lambda_2d41944a1d46af3157314b8a01080d33>@@AEAV<lambda_8f455de75cd7d7f24b4096f044d8b9e6>@@V<lambda_aa500f224e6afead328df44964fe2772>@@@?$__crt_seh_guarded_call@X@@QEAAX$$QEAV<lambda_2d41944a1d46af3157314b8a01080d33>@@AEAV<lambda_8f455de75cd7d7f24b4096f044d8b9e6>@@$$QEAV<lambda_aa500f224e6afead328df44964fe2772>@@@Z@4HA 0000000180022f11 f   libucrt:per_thread_data.obj
 0001:00021f11       ?fin$0@?0???$?RV<lambda_aa87e3671a710a21b5dc78c0bdf72e11>@@AEAV<lambda_92619d2358a28f41a33ba319515a20b9>@@V<lambda_6992ecaafeb10aed2b74cb1fae11a551>@@@?$__crt_seh_guarded_call@X@@QEAAX$$QEAV<lambda_aa87e3671a710a21b5dc78c0bdf72e11>@@AEAV<lambda_92619d2358a28f41a33ba319515a20b9>@@$$QEAV<lambda_6992ecaafeb10aed2b74cb1fae11a551>@@@Z@4HA 0000000180022f11 f   libucrt:per_thread_data.obj
 0001:00021f11       ?fin$0@?0???$?RV<lambda_f2e299630e499de9f9a165e60fcd3db5>@@AEAV<lambda_2ae9d31cdba2644fcbeaf08da7c24588>@@V<lambda_40d01ff24d0e7b3814fdbdcee8eab3c7>@@@?$__crt_seh_guarded_call@X@@QEAAX$$QEAV<lambda_f2e299630e499de9f9a165e60fcd3db5>@@AEAV<lambda_2ae9d31cdba2644fcbeaf08da7c24588>@@$$QEAV<lambda_40d01ff24d0e7b3814fdbdcee8eab3c7>@@@Z@4HA 0000000180022f11 f   libucrt:per_thread_data.obj
 0001:00021f11       ?fin$0@?0???$?RV<lambda_efdfa57d1f175319df784efa44bb7b81>@@AEAV<lambda_5f0a4c1567f8adc6734073e5d1e1b35c>@@V<lambda_2e8a7d3640ea6ccb4c2413664c2db6fd>@@@?$__crt_seh_guarded_call@X@@QEAAX$$QEAV<lambda_efdfa57d1f175319df784efa44bb7b81>@@AEAV<lambda_5f0a4c1567f8adc6734073e5d1e1b35c>@@$$QEAV<lambda_2e8a7d3640ea6ccb4c2413664c2db6fd>@@@Z@4HA 0000000180022f11 f   libucrt:mbctype.obj
 0001:00021f11       ?fin$0@?0???$?RV<lambda_450d765d439847d4c735a33c368b5fc0>@@AEAV<lambda_44731a7d0e6d81c3e6aa82d741081786>@@V<lambda_601a2a7da3b7a96e9554ac7215c4b07c>@@@?$__crt_seh_guarded_call@P6AXH@Z@@QEAAP6AXH@Z$$QEAV<lambda_450d765d439847d4c735a33c368b5fc0>@@AEAV<lambda_44731a7d0e6d81c3e6aa82d741081786>@@$$QEAV<lambda_601a2a7da3b7a96e9554ac7215c4b07c>@@@Z@4HA 0000000180022f11 f   libucrt:signal.obj
 0001:00021f11       ?fin$0@?0???$?RV<lambda_d80eeec6fff315bfe5c115232f3240e3>@@AEAV<lambda_6e4b09c48022b2350581041d5f6b0c4c>@@V<lambda_2358e3775559c9db80273638284d5e45>@@@?$__crt_seh_guarded_call@X@@QEAAX$$QEAV<lambda_d80eeec6fff315bfe5c115232f3240e3>@@AEAV<lambda_6e4b09c48022b2350581041d5f6b0c4c>@@$$QEAV<lambda_2358e3775559c9db80273638284d5e45>@@@Z@4HA 0000000180022f11 f   libucrt:exit.obj
 0001:00021f11       ?fin$0@?0???$?RV<lambda_638799b9deba96c50f710eeac98168cd>@@AEAV<lambda_22ebabd17bc4fa466a2aca6d8deb888d>@@V<lambda_a6f7d7db0129f75315ebf26d50c089f1>@@@?$__crt_seh_guarded_call@H@@QEAAH$$QEAV<lambda_638799b9deba96c50f710eeac98168cd>@@AEAV<lambda_22ebabd17bc4fa466a2aca6d8deb888d>@@$$QEAV<lambda_a6f7d7db0129f75315ebf26d50c089f1>@@@Z@4HA 0000000180022f11 f   libucrt:onexit.obj
 0001:00021f11       ?fin$0@?0???$?RV<lambda_7777bce6b2f8c936911f934f8298dc43>@@AEAV<lambda_f03950bc5685219e0bcd2087efbe011e>@@V<lambda_3883c3dff614d5e0c5f61bb1ac94921c>@@@?$__crt_seh_guarded_call@H@@QEAAH$$QEAV<lambda_7777bce6b2f8c936911f934f8298dc43>@@AEAV<lambda_f03950bc5685219e0bcd2087efbe011e>@@$$QEAV<lambda_3883c3dff614d5e0c5f61bb1ac94921c>@@@Z@4HA 0000000180022f11 f   libucrt:onexit.obj
 0001:00021f2b       ?filt$0@?0???R<lambda_6e4b09c48022b2350581041d5f6b0c4c>@@QEBA@XZ@4HA 0000000180022f2b f   libucrt:exit.obj
 0001:00021f46       _query_new_handler$fin$0   0000000180022f46 f   libucrt:new_handler.obj
 0001:00021f5c       ?fin$0@?0???$?RV<lambda_410d79af7f07d98d83a3f525b3859a53>@@AEAV<lambda_3e16ef9562a7dcce91392c22ab16ea36>@@V<lambda_38119f0e861e05405d8a144b9b982f0a>@@@?$__crt_seh_guarded_call@X@@QEAAX$$QEAV<lambda_410d79af7f07d98d83a3f525b3859a53>@@AEAV<lambda_3e16ef9562a7dcce91392c22ab16ea36>@@$$QEAV<lambda_38119f0e861e05405d8a144b9b982f0a>@@@Z@4HA 0000000180022f5c f   libucrt:wsetlocale.obj
 0001:00021f76       __acrt_initialize_lowio$fin$0 0000000180022f76 f   libucrt:ioinit.obj
 0001:00021f76       __acrt_lowio_ensure_fh_exists$fin$0 0000000180022f76 f   libucrt:osfinfo.obj
 0001:00021f8f       ?fin$0@?0??update_thread_multibyte_data_internal@@YAPEAU__crt_multibyte_data@@QEAU__acrt_ptd@@QEAPEAU1@@Z@4HA 0000000180022f8f f   libucrt:mbctype.obj
 0001:00021fa8       raise$fin$0                0000000180022fa8 f   libucrt:signal.obj
 0001:00021fc9       ?fin$0@?0???$?RV<lambda_842d9ff0dc9ef11c61343bbaebe7f885>@@AEAV<lambda_c5860995281e5c4ce005b3de8f5874ee>@@V<lambda_d90129c13df834fdcbf8d2b88dafcf2d>@@@?$__crt_seh_guarded_call@X@@QEAAX$$QEAV<lambda_842d9ff0dc9ef11c61343bbaebe7f885>@@AEAV<lambda_c5860995281e5c4ce005b3de8f5874ee>@@$$QEAV<lambda_d90129c13df834fdcbf8d2b88dafcf2d>@@@Z@4HA 0000000180022fc9 f   libucrt:fflush.obj
 0001:00021fe4       ?fin$0@?0???$?RV<lambda_886d6c58226a84441f68b9f2b8217b83>@@AEAV<lambda_ab61a845afdef5b7c387490eaf3616ee>@@V<lambda_f7f22ab5edc0698d5f6905b0d3f44752>@@@?$__crt_seh_guarded_call@X@@QEAAX$$QEAV<lambda_886d6c58226a84441f68b9f2b8217b83>@@AEAV<lambda_ab61a845afdef5b7c387490eaf3616ee>@@$$QEAV<lambda_f7f22ab5edc0698d5f6905b0d3f44752>@@@Z@4HA 0000000180022fe4 f   libucrt:fflush.obj
 0001:00022001       __acrt_update_thread_locale_data$fin$0 0000000180023001 f   libucrt:locale_refcounting.obj
 0001:0002201a       _fcloseall$fin$0           000000018002301a f   libucrt:closeall.obj
 0001:00022033       ?fin$0@?0???$?RV<lambda_751a882b2c74d4b022dec766aa51a29a>@@AEAV<lambda_628dfdc04ba53c8bfc02c9951375f3f5>@@V<lambda_f6c7be5f7998530c34de24c7437d6b54>@@@?$__crt_seh_guarded_call@H@@QEAAH$$QEAV<lambda_751a882b2c74d4b022dec766aa51a29a>@@AEAV<lambda_628dfdc04ba53c8bfc02c9951375f3f5>@@$$QEAV<lambda_f6c7be5f7998530c34de24c7437d6b54>@@@Z@4HA 0000000180023033 f   libucrt:close.obj
 0001:00022033       ?fin$0@?0???$?RV<lambda_a37b2b86f63e897a80ea819b0eb08c01>@@AEAV<lambda_38ce7e780aa69e748d6df282ebc68efe>@@V<lambda_99fb1378e971ab6e7edea83e3a7a83a2>@@@?$__crt_seh_guarded_call@H@@QEAAH$$QEAV<lambda_a37b2b86f63e897a80ea819b0eb08c01>@@AEAV<lambda_38ce7e780aa69e748d6df282ebc68efe>@@$$QEAV<lambda_99fb1378e971ab6e7edea83e3a7a83a2>@@@Z@4HA 0000000180023033 f   libucrt:commit.obj
 0001:0002204d       _write$fin$0               000000018002304d f   libucrt:write.obj
 0001:00022064       fclose$fin$0               0000000180023064 f   libucrt:fclose.obj
 0001:0002207c       _ctrlfp$filt$0             000000018002307c f   libucrt:fpctrl.obj
 0001:0002207c       common_control87$filt$0    000000018002307c f   libucrt:ieee.obj
 0001:000220b0       _IsNonwritableInCurrentImage$filt$0 00000001800230b0 f   LIBCMT:pesect.obj
 0001:000220d0       ??__F_AtlComModule@ATL@@YAXXZ 00000001800230d0 f   OposVariant.obj
 0001:000220dc       ??__F_AtlWinModule@ATL@@YAXXZ 00000001800230dc f   OposVariant.obj
 0001:00022120       ??__F_Module@@YAXXZ        0000000180023120 f   Biometrics.obj
 0001:0002213c       ??__F_AtlBaseModule@ATL@@YAXXZ 000000018002313c f   atls:atlbase.obj
 0002:00000650       ?_AtlBaseModule$initializer$@ATL@@3P6AXXZEA 0000000180024650     atls:atlbase.obj
 0002:00000658       ?_AtlComModule$initializer$@ATL@@3P6AXXZEA 0000000180024658     OposVariant.obj
 0002:00000660       ?_AtlWinModule$initializer$@ATL@@3P6AXXZEA 0000000180024660     OposVariant.obj
 0002:00000668       ?_Module$initializer$@@3P6AXXZEA 0000000180024668     Biometrics.obj
 0002:00000670       ??pConnMap$initializer$@?$IConnectionPointContainerImpl@VCOPOSBiometrics@@@ATL@@0P6AXXZEA@@3P6AXXZEA 0000000180024670     Biometrics.obj
 0002:00000688       ?__scrt_initialize_tss_var@@3P6AHXZEA 0000000180024688     LIBCMT:thread_safe_statics.obj
 0002:00002818       GS_ExceptionPointers       0000000180026818     LIBCMT:gs_report.obj
 0002:00002a00       ?ExceptionTemplate@?1??UnwindNestedFrames@__FrameHandler4@@SAXPEA_KPEAUEHExceptionRecord@@PEAU_CONTEXT@@0PEAXPEAUFuncInfo4@FH4@@HHPEAUHandlerType4@6@PEAU_xDISPATCHER_CONTEXT@@E@Z@4U_EXCEPTION_RECORD@@B 0000000180026a00     libvcruntime:risctrnsctrl.obj
 0002:00002ad0       ?tokenTable@@3QBUStringLiteral@@B 0000000180026ad0     libvcruntime:undname.obj
 0002:00002bd0       ?nameTable@@3QBUStringLiteral@@B 0000000180026bd0     libvcruntime:undname.obj
 0002:00003100       ?rttiTable@@3QBUStringLiteral@@B 0000000180027100     libvcruntime:undname.obj
 0002:00003150       ?IndirectionName@@3QBUStringLiteral@@B 0000000180027150     libvcruntime:undname.obj
 0002:000031b0       ?PrefixName@@3QBUStringLiteral@@B 00000001800271b0     libvcruntime:undname.obj
 0002:00003888       ?module_names@?A0x5302d918@@3QBQEB_WB 0000000180027888     libvcruntime:winapi_downlevel.obj
 0002:00003948       ?candidate_modules@?1??try_get_FlsAlloc@@YAP6AKP6AXPEAX@Z@ZXZ@4QBW4module_id@?A0x5302d918@@B 0000000180027948     libvcruntime:winapi_downlevel.obj
 0002:00003960       ?candidate_modules@?1??try_get_FlsFree@@YAP6AHK@ZXZ@4QBW4module_id@?A0x5302d918@@B 0000000180027960     libvcruntime:winapi_downlevel.obj
 0002:00003970       ?candidate_modules@?1??try_get_FlsGetValue@@YAP6APEAXK@ZXZ@4QBW4module_id@?A0x5302d918@@B 0000000180027970     libvcruntime:winapi_downlevel.obj
 0002:00003988       ?candidate_modules@?1??try_get_FlsSetValue@@YAP6AHKPEAX@ZXZ@4QBW4module_id@?A0x5302d918@@B 0000000180027988     libvcruntime:winapi_downlevel.obj
 0002:000039a0       ?candidate_modules@?1??try_get_InitializeCriticalSectionEx@@YAP6AHPEAU_RTL_CRITICAL_SECTION@@KK@ZXZ@4QBW4module_id@?A0x5302d918@@B 00000001800279a0     libvcruntime:winapi_downlevel.obj
 0002:000039d0       ?errtable@@3QBUerrentry@?A0x31fdb9ec@@B 00000001800279d0     libucrt:errno.obj
 0002:00004060       __acrt_initializers        0000000180028060     libucrt:initialization.obj
 0002:00004160       ?module_names@?A0x391cf84c@@3QBQEB_WB 0000000180028160     libucrt:winapi_thunks.obj
 0002:00004668       ?candidate_modules@?1??try_get_AreFileApisANSI@@YAP6AHXZXZ@4QBW4module_id@?A0x391cf84c@@B 0000000180028668     libucrt:winapi_thunks.obj
 0002:00004680       ?candidate_modules@?1??try_get_FlsAlloc@@YAP6AKP6AXPEAX@Z@ZXZ@4QBW4module_id@?A0x391cf84c@@B 0000000180028680     libucrt:winapi_thunks.obj
 0002:00004688       ?candidate_modules@?1??try_get_FlsFree@@YAP6AHK@ZXZ@4QBW4module_id@?A0x391cf84c@@B 0000000180028688     libucrt:winapi_thunks.obj
 0002:00004690       ?candidate_modules@?1??try_get_FlsGetValue@@YAP6APEAXK@ZXZ@4QBW4module_id@?A0x391cf84c@@B 0000000180028690     libucrt:winapi_thunks.obj
 0002:00004698       ?candidate_modules@?1??try_get_FlsSetValue@@YAP6AHKPEAX@ZXZ@4QBW4module_id@?A0x391cf84c@@B 0000000180028698     libucrt:winapi_thunks.obj
 0002:000046a0       ?candidate_modules@?1??try_get_InitializeCriticalSectionEx@@YAP6AHPEAU_RTL_CRITICAL_SECTION@@KK@ZXZ@4QBW4module_id@?A0x391cf84c@@B 00000001800286a0     libucrt:winapi_thunks.obj
 0002:000046a8       ?candidate_modules@?1??try_get_LCMapStringEx@@YAP6AHPEB_WK0HPEA_WHPEAU_nlsversioninfo@@PEAX_J@ZXZ@4QBW4module_id@?A0x391cf84c@@B 00000001800286a8     libucrt:winapi_thunks.obj
 0002:000046c0       ?candidate_modules@?1??try_get_LocaleNameToLCID@@YAP6AKPEB_WK@ZXZ@4QBW4module_id@?A0x391cf84c@@B 00000001800286c0     libucrt:winapi_thunks.obj
 0002:000046dc       ?candidate_modules@?1??try_get_AppPolicyGetProcessTerminationMethod@@YAP6AJPEAXPEAW4AppPolicyProcessTerminationMethod@@@ZXZ@4QBW4module_id@?A0x391cf84c@@B 00000001800286dc     libucrt:winapi_thunks.obj
 0002:00004708       ?candidate_modules@?1??try_get_SetThreadStackGuarantee@@YAP6AHPEAK@ZXZ@4QBW4module_id@?A0x391cf84c@@B 0000000180028708     libucrt:winapi_thunks.obj
 0002:00004730       ?strings@?1??fp_format_nan_or_infinity@@YAHW4__acrt_fp_class@@_NPEAD_K1@Z@4QAY03QEBDA 0000000180028730     libucrt:cvt.obj
 0002:00004e90       ?_mb_locale_names@@3QBQEB_WB 0000000180028e90     libucrt:mbctype.obj
 0002:00005700       ?LcidToLocaleNameTable@?A0x881e4c05@@3QBULcidToLocaleName@1@B 0000000180029700     libucrt:lcidtoname_downlevel.obj
 0002:00007160       ?LocaleNameToIndexTable@?A0x881e4c05@@3QBULocaleNameIndex@1@B 000000018002b160     libucrt:lcidtoname_downlevel.obj
 0002:00009400       __real_ninf                000000018002d400     libucrt:log10.obj
 0002:00009410       __real_inf                 000000018002d410     libucrt:log10.obj
 0002:00009420       __real_neg_qnan            000000018002d420     libucrt:log10.obj
 0002:00009430       __real_qnanbit             000000018002d430     libucrt:log10.obj
 0002:00009440       __int_1023                 000000018002d440     libucrt:log10.obj
 0002:00009450       __mask_001                 000000018002d450     libucrt:log10.obj
 0002:00009460       __mask_mant                000000018002d460     libucrt:log10.obj
 0002:00009470       __mask_mant_top8           000000018002d470     libucrt:log10.obj
 0002:00009480       __mask_mant9               000000018002d480     libucrt:log10.obj
 0002:00009490       __real_log10_e             000000018002d490     libucrt:log10.obj
 0002:000094a0       __real_log10_e_lead        000000018002d4a0     libucrt:log10.obj
 0002:000094b0       __real_log10_e_tail        000000018002d4b0     libucrt:log10.obj
 0002:000094c0       __real_log10_2_lead        000000018002d4c0     libucrt:log10.obj
 0002:000094d0       __real_log10_2_tail        000000018002d4d0     libucrt:log10.obj
 0002:000094e0       __real_two                 000000018002d4e0     libucrt:log10.obj
 0002:000094f0       __real_one                 000000018002d4f0     libucrt:log10.obj
 0002:00009500       __real_half                000000018002d500     libucrt:log10.obj
 0002:00009510       __mask_100                 000000018002d510     libucrt:log10.obj
 0002:00009520       __real_1_over_512          000000018002d520     libucrt:log10.obj
 0002:00009530       __real_1_over_2            000000018002d530     libucrt:log10.obj
 0002:00009540       __real_1_over_3            000000018002d540     libucrt:log10.obj
 0002:00009550       __real_1_over_4            000000018002d550     libucrt:log10.obj
 0002:00009560       __real_1_over_5            000000018002d560     libucrt:log10.obj
 0002:00009570       __real_1_over_6            000000018002d570     libucrt:log10.obj
 0002:00009580       __real_neg_1023            000000018002d580     libucrt:log10.obj
 0002:00009590       __mask_2045                000000018002d590     libucrt:log10.obj
 0002:000095a0       __real_threshold           000000018002d5a0     libucrt:log10.obj
 0002:000095b0       __real_near_one_lt         000000018002d5b0     libucrt:log10.obj
 0002:000095c0       __real_near_one_gt         000000018002d5c0     libucrt:log10.obj
 0002:000095d0       __real_min_norm            000000018002d5d0     libucrt:log10.obj
 0002:000095e0       __real_notsign             000000018002d5e0     libucrt:log10.obj
 0002:000095f0       __real_ca1                 000000018002d5f0     libucrt:log10.obj
 0002:00009600       __real_ca2                 000000018002d600     libucrt:log10.obj
 0002:00009610       __real_ca3                 000000018002d610     libucrt:log10.obj
 0002:00009620       __real_ca4                 000000018002d620     libucrt:log10.obj
 0002:00009630       __mask_lower               000000018002d630     libucrt:log10.obj
 0002:00009640       __flag_x_zero              000000018002d640     libucrt:log10.obj
 0002:00009644       __flag_x_neg               000000018002d644     libucrt:log10.obj
 0002:00009648       __flag_x_nan               000000018002d648     libucrt:log10.obj
 0002:0000aea0       __real@433fffffffffffff    000000018002eea0     libucrt:fpsr.obj
 0002:0000aea8       __real@c33fffffffffffff    000000018002eea8     libucrt:fpsr.obj
 0002:0000b718       $unwind$?ProcessWindowMessage@?$CComControl@VCOPOSBiometrics@@V?$CWindowImpl@VCOPOSBiometrics@@VCWindow@ATL@@V?$CWinTraits@$0FGAAAAAA@$0A@@3@@ATL@@@ATL@@UEAAHPEAUHWND__@@I_K_JAEA_JK@Z 000000018002f718     Biometrics.obj
 0002:0000b718       $unwind$?cw_memcpy@@YAHPEA_WPEBDH@Z 000000018002f718     CWString.obj
 0002:0000b718       $unwind$wcstol             000000018002f718     libucrt:strtox.obj
 0002:0000b718       $unwind$_invalid_parameter_noinfo 000000018002f718     libucrt:invalid_parameter.obj
 0002:0000b718       $unwind$_log10_special     000000018002f718     libucrt:log_special.obj
 0002:0000b720       $unwind$??__E?pConnMap@?$IConnectionPointContainerImpl@VCOPOSBiometrics@@@ATL@@0PEBU_ATL_CONNMAP_ENTRY@2@EB@@YAXXZ 000000018002f720     Biometrics.obj
 0002:0000b720       $unwind$?AddReplacement@CRegObject@ATL@@UEAAJPEB_W0@Z 000000018002f720     Biometrics.obj
 0002:0000b720       $unwind$?AtlHresultFromLastError@ATL@@YAJXZ 000000018002f720     Biometrics.obj
 0002:0000b720       $unwind$?AtlThrowImpl@ATL@@YAXJ@Z 000000018002f720     Biometrics.obj
 0002:0000b720       $unwind$?CreateInstance@CComClassFactory@ATL@@UEAAJPEAUIUnknown@@AEBU_GUID@@PEAPEAX@Z 000000018002f720     Biometrics.obj
 0002:0000b720       $unwind$?DefaultReflectionHandler@?$CWindowImplRoot@VCWindow@ATL@@@ATL@@SAHPEAUHWND__@@I_K_JAEA_J@Z 000000018002f720     Biometrics.obj
 0002:0000b720       $unwind$?EnumAdvise@?$IOleObjectImpl@VCOPOSBiometrics@@@ATL@@UEAAJPEAPEAUIEnumSTATDATA@@@Z 000000018002f720     Biometrics.obj
 0002:0000b720       $unwind$?FireViewChange@CComControlBase@ATL@@QEAAJXZ 000000018002f720     Biometrics.obj
 0002:0000b720       $unwind$?GetAdvise@?$IViewObjectExImpl@VCOPOSBiometrics@@@ATL@@UEAAJPEAK0PEAPEAUIAdviseSink@@@Z 000000018002f720     Biometrics.obj
 0002:0000b720       $unwind$?LockServer@CComClassFactory@ATL@@UEAAJH@Z 000000018002f720     Biometrics.obj
 0002:0000b720       $unwind$?OnDocWindowActivate@?$IOleInPlaceActiveObjectImpl@VCOPOSBiometrics@@@ATL@@UEAAJH@Z 000000018002f720     Biometrics.obj
 0002:0000b720       $unwind$?Unadvise@?$IOleObjectImpl@VCOPOSBiometrics@@@ATL@@UEAAJK@Z 000000018002f720     Biometrics.obj
 0002:0000b720       $unwind$?_LocCPQueryInterface@?$IConnectionPointImpl@VCOPOSBiometrics@@$1?DIID__IOPOSBiometricsEvents@@3U_GUID@@BVCComDynamicUnkArray@ATL@@@ATL@@UEAAJAEBU_GUID@@PEAPEAX@Z 000000018002f720     Biometrics.obj
 0002:0000b720       $unwind$?_LocCPQueryInterface@?$IConnectionPointImpl@VCOPOSBiometrics@@$1?IID_IPropertyNotifySink@@3U_GUID@@BVCComDynamicUnkArray@ATL@@@ATL@@UEAAJAEBU_GUID@@PEAPEAX@Z 000000018002f720     Biometrics.obj
 0002:0000b720       $unwind$?FinalConstruct@COPOSBiometrics@@QEAAJXZ 000000018002f720     BiometricsImpl.obj
 0002:0000b720       $unwind$?get_ResultCode@COPOSBiometrics@@UEAAJPEAJ@Z 000000018002f720     BiometricsImpl.obj
 0002:0000b720       $unwind$?get_State@COPOSBiometrics@@UEAAJPEAJ@Z 000000018002f720     BiometricsImpl.obj
 0002:0000b720       $unwind$?cw_strcpy@@YAHPEA_WPEBD@Z 000000018002f720     CWString.obj
 0002:0000b720       $unwind$??1OposDispParms@@QEAA@XZ 000000018002f720     OposVariant.obj
 0002:0000b720       $unwind$??__E_AtlComModule@ATL@@YAXXZ 000000018002f720     OposVariant.obj
 0002:0000b720       $unwind$??__E_AtlWinModule@ATL@@YAXXZ 000000018002f720     OposVariant.obj
 0002:0000b720       $unwind$??__F_AtlWinModule@ATL@@YAXXZ 000000018002f720     OposVariant.obj
 0002:0000b720       $unwind$?GetLONG@OposVariant@@QEAAJXZ 000000018002f720     OposVariant.obj
 0002:0000b720       $unwind$??__E_AtlBaseModule@ATL@@YAXXZ 000000018002f720     atls:atlbase.obj
 0002:0000b720       $unwind$__scrt_initialize_default_local_stdio_options 000000018002f720     LIBCMT:default_local_stdio_options.obj
 0002:0000b720       $unwind$?dllmain_crt_dispatch@@YAHQEAUHINSTANCE__@@KQEAX@Z 000000018002f720     LIBCMT:dll_dllmain.obj
 0002:0000b720       $unwind$__report_rangecheckfailure 000000018002f720     LIBCMT:gs_report.obj
 0002:0000b720       $unwind$__GSHandlerCheck   000000018002f720     LIBCMT:gshandler.obj
 0002:0000b720       $unwind$?__scrt_uninitialize_thread_safe_statics@@YAXXZ 000000018002f720     LIBCMT:thread_safe_statics.obj
 0002:0000b720       $unwind$_Init_thread_notify 000000018002f720     LIBCMT:thread_safe_statics.obj
 0002:0000b720       $unwind$__scrt_acquire_startup_lock 000000018002f720     LIBCMT:utility.obj
 0002:0000b720       $unwind$__scrt_dllmain_after_initialize_c 000000018002f720     LIBCMT:utility.obj
 0002:0000b720       $unwind$__scrt_dllmain_before_initialize_c 000000018002f720     LIBCMT:utility.obj
 0002:0000b720       $unwind$__scrt_dllmain_crt_thread_attach 000000018002f720     LIBCMT:utility.obj
 0002:0000b720       $unwind$__scrt_dllmain_crt_thread_detach 000000018002f720     LIBCMT:utility.obj
 0002:0000b720       $unwind$__scrt_dllmain_uninitialize_c 000000018002f720     LIBCMT:utility.obj
 0002:0000b720       $unwind$__scrt_dllmain_uninitialize_critical 000000018002f720     LIBCMT:utility.obj
 0002:0000b720       $unwind$atexit             000000018002f720     LIBCMT:utility.obj
 0002:0000b720       $unwind$__vcrt_initialize  000000018002f720     libvcruntime:initialization.obj
 0002:0000b720       $unwind$__vcrt_thread_attach 000000018002f720     libvcruntime:initialization.obj
 0002:0000b720       $unwind$__vcrt_thread_detach 000000018002f720     libvcruntime:initialization.obj
 0002:0000b720       $unwind$__vcrt_uninitialize 000000018002f720     libvcruntime:initialization.obj
 0002:0000b720       $unwind$__vcrt_uninitialize_critical 000000018002f720     libvcruntime:initialization.obj
 0002:0000b720       $unwind$__vcrt_initialize_locks 000000018002f720     libvcruntime:locks.obj
 0002:0000b720       $unwind$__vcrt_freefls     000000018002f720     libvcruntime:per_thread_data.obj
 0002:0000b720       $unwind$__vcrt_getptd      000000018002f720     libvcruntime:per_thread_data.obj
 0002:0000b720       $unwind$__vcrt_initialize_ptd 000000018002f720     libvcruntime:per_thread_data.obj
 0002:0000b720       $unwind$__vcrt_uninitialize_ptd 000000018002f720     libvcruntime:per_thread_data.obj
 0002:0000b720       $unwind$_purecall          000000018002f720     libvcruntime:purevirt.obj
 0002:0000b720       $unwind$?FrameUnwindToEmptyState@__FrameHandler4@@SAXPEA_KPEAU_xDISPATCHER_CONTEXT@@PEAUFuncInfo4@FH4@@@Z 000000018002f720     libvcruntime:risctrnsctrl.obj
 0002:0000b720       $unwind$_GetImageBase      000000018002f720     libvcruntime:risctrnsctrl.obj
 0002:0000b720       $unwind$_GetThrowImageBase 000000018002f720     libvcruntime:risctrnsctrl.obj
 0002:0000b720       $unwind$__dcrt_terminate_console_output 000000018002f720     libucrt:initcon.obj
 0002:0000b720       $unwind$??$uninitialize_environment_internal@D@@YAXAEAPEAPEAD@Z 000000018002f720     libucrt:environment_initialization.obj
 0002:0000b720       $unwind$??$uninitialize_environment_internal@_W@@YAXAEAPEAPEA_W@Z 000000018002f720     libucrt:environment_initialization.obj
 0002:0000b720       $unwind$__dcrt_uninitialize_environments_nolock 000000018002f720     libucrt:environment_initialization.obj
 0002:0000b720       $unwind$__acrt_initialize_heap 000000018002f720     libucrt:heap_handle.obj
 0002:0000b720       $unwind$_msize_base        000000018002f720     libucrt:msize.obj
 0002:0000b720       $unwind$?initialize_multibyte@@YAHXZ 000000018002f720     libucrt:multibyte_initializer.obj
 0002:0000b720       $unwind$__acrt_thread_attach 000000018002f720     libucrt:initialization.obj
 0002:0000b720       $unwind$__acrt_thread_detach 000000018002f720     libucrt:initialization.obj
 0002:0000b720       $unwind$__acrt_uninitialize 000000018002f720     libucrt:initialization.obj
 0002:0000b720       $unwind$__acrt_uninitialize_critical 000000018002f720     libucrt:initialization.obj
 0002:0000b720       $unwind$initialize_c       000000018002f720     libucrt:initialization.obj
 0002:0000b720       $unwind$uninitialize_allocated_io_buffers 000000018002f720     libucrt:initialization.obj
 0002:0000b720       $unwind$uninitialize_environment 000000018002f720     libucrt:initialization.obj
 0002:0000b720       $unwind$__acrt_initialize_ptd 000000018002f720     libucrt:per_thread_data.obj
 0002:0000b720       $unwind$__acrt_uninitialize_ptd 000000018002f720     libucrt:per_thread_data.obj
 0002:0000b720       $unwind$__acrt_AreFileApisANSI 000000018002f720     libucrt:winapi_thunks.obj
 0002:0000b720       $unwind$__pctype_func      000000018002f720     libucrt:ctype.obj
 0002:0000b720       $unwind$__acrt_release_locale_ref 000000018002f720     libucrt:locale_refcounting.obj
 0002:0000b720       $unwind$_isatty            000000018002f720     libucrt:isatty.obj
 0002:0000b720       $unwind$_get_osfhandle     000000018002f720     libucrt:osfinfo.obj
 0002:0000b720       $unwind$__acrt_initialize_multibyte 000000018002f720     libucrt:mbctype.obj
 0002:0000b720       $unwind$__acrt_update_thread_multibyte_data 000000018002f720     libucrt:mbctype.obj
 0002:0000b720       $unwind$__doserrno         000000018002f720     libucrt:errno.obj
 0002:0000b720       $unwind$_errno             000000018002f720     libucrt:errno.obj
 0002:0000b720       $unwind$_invoke_watson     000000018002f720     libucrt:invalid_parameter.obj
 0002:0000b720       $unwind$abort              000000018002f720     libucrt:abort.obj
 0002:0000b720       $unwind$__acrt_initialize_command_line 000000018002f720     libucrt:argv_data.obj
 0002:0000b720       $unwind$_fileno            000000018002f720     libucrt:fileno.obj
 0002:0000b720       $unwind$?state_case_size@?$output_processor@_WV?$string_output_adapter@_W@__crt_stdio_output@@V?$format_validation_base@_WV?$string_output_adapter@_W@__crt_stdio_output@@@2@@__crt_stdio_output@@AEAA_NXZ 000000018002f720     libucrt:output.obj
 0002:0000b720       $unwind$_statfp            000000018002f720     libucrt:fpctrl.obj
 0002:0000b720       $unwind$fegetround         000000018002f720     libucrt:fegetround.obj
 0002:0000b720       $unwind$_set_errno_from_matherr 000000018002f720     libucrt:fpexcept.obj
 0002:0000b728       $unwind$?DAdvise@?$IDataObjectImpl@VCOPOSBiometrics@@@ATL@@UEAAJPEAUtagFORMATETC@@KPEAUIAdviseSink@@PEAK@Z 000000018002f728     Biometrics.obj
 0002:0000b728       $unwind$?cw_dup@@YAXPEBDAEAHAEAPEA_W1@Z 000000018002f728     CWString.obj
 0002:0000b728       $unwind$??$__acrt_mbs_to_wcs_cp@U__crt_win32_buffer_internal_dynamic_resizing@@@@YAHQEBDAEAV?$__crt_win32_buffer@_WU__crt_win32_buffer_internal_dynamic_resizing@@@@I@Z 000000018002f728     libucrt:argv_wildcards.obj
 0002:0000b740       $unwind$??0?$CComObject@VCOPOSBiometrics@@@ATL@@QEAA@PEAX@Z 000000018002f740     Biometrics.obj
 0002:0000b740       $unwind$??0CAtlModule@ATL@@QEAA@XZ 000000018002f740     Biometrics.obj
 0002:0000b740       $unwind$??1?$CComObject@VCOPOSBiometrics@@@ATL@@UEAA@XZ 000000018002f740     Biometrics.obj
 0002:0000b740       $unwind$??__E_Module@@YAXXZ 000000018002f740     Biometrics.obj
 0002:0000b740       $unwind$?AddRef@?$CComObjectCached@VCComClassFactory@ATL@@@ATL@@UEAAKXZ 000000018002f740     Biometrics.obj
 0002:0000b740       $unwind$?AllocateHeap@?$CTempBuffer@E$0BAA@VCCRTAllocator@ATL@@@ATL@@AEAAX_K@Z 000000018002f740     Biometrics.obj
 0002:0000b740       $unwind$?AllocateHeap@?$CTempBuffer@_W$0BAA@VCCRTAllocator@ATL@@@ATL@@AEAAX_K@Z 000000018002f740     Biometrics.obj
 0002:0000b740       $unwind$?AllocateHeap@?$CTempBuffer@_W$0EAA@VCCRTAllocator@ATL@@@ATL@@AEAAX_K@Z 000000018002f740     Biometrics.obj
 0002:0000b740       $unwind$?GetClassInfoW@?$IProvideClassInfo2Impl@$1?CLSID_OPOSBiometrics@@3U_GUID@@B$1?DIID__IOPOSBiometricsEvents@@3U2@B$1?LIBID_OposBiometrics_CCO@@3U2@B$00$0A@VCComTypeInfoHolder@ATL@@@ATL@@UEAAJPEAPEAUITypeInfo@@@Z 000000018002f740     Biometrics.obj
 0002:0000b740       $unwind$?GetClientSite@?$IOleObjectImpl@VCOPOSBiometrics@@@ATL@@UEAAJPEAPEAUIOleClientSite@@@Z 000000018002f740     Biometrics.obj
 0002:0000b740       $unwind$?GetConnMap@COPOSBiometrics@@SAPEBU_ATL_CONNMAP_ENTRY@ATL@@PEAH@Z 000000018002f740     Biometrics.obj
 0002:0000b740       $unwind$?GetTypeInfo@?$IDispatchImpl@UIOPOSBiometrics@@$1?IID_IOPOSBiometrics@@3U_GUID@@B$1?LIBID_OposBiometrics_CCO@@3U3@B$00$0A@VCComTypeInfoHolder@ATL@@@ATL@@UEAAJIKPEAPEAUITypeInfo@@@Z 000000018002f740     Biometrics.obj
 0002:0000b740       $unwind$?IOleInPlaceObject_InPlaceDeactivate@CComControlBase@ATL@@QEAAJXZ 000000018002f740     Biometrics.obj
 0002:0000b740       $unwind$?IOleObject_SetExtent@CComControlBase@ATL@@QEAAJKPEAUtagSIZE@@@Z 000000018002f740     Biometrics.obj
 0002:0000b740       $unwind$?IsEqualObject@?$CComPtrBase@UIOleClientSite@@@ATL@@QEAA_NPEAUIUnknown@@@Z 000000018002f740     Biometrics.obj
 0002:0000b740       $unwind$?QueryHitPoint@?$IViewObjectExImpl@VCOPOSBiometrics@@@ATL@@UEAAJKPEBUtagRECT@@UtagPOINT@@JPEAK@Z 000000018002f740     Biometrics.obj
 0002:0000b740       $unwind$?QueryInterface@?$CComAggObject@VCOPOSBiometrics@@@ATL@@UEAAJAEBU_GUID@@PEAPEAX@Z 000000018002f740     Biometrics.obj
 0002:0000b740       $unwind$?Release@?$CComObjectCached@VCComClassFactory@ATL@@@ATL@@UEAAKXZ 000000018002f740     Biometrics.obj
 0002:0000b740       $unwind$?Unadvise@?$IConnectionPointImpl@VCOPOSBiometrics@@$1?DIID__IOPOSBiometricsEvents@@3U_GUID@@BVCComDynamicUnkArray@ATL@@@ATL@@UEAAJK@Z 000000018002f740     Biometrics.obj
 0002:0000b740       $unwind$?Unadvise@?$IConnectionPointImpl@VCOPOSBiometrics@@$1?IID_IPropertyNotifySink@@3U_GUID@@BVCComDynamicUnkArray@ATL@@@ATL@@UEAAJK@Z 000000018002f740     Biometrics.obj
 0002:0000b740       $unwind$??1CComControlBase@ATL@@UEAA@XZ 000000018002f740     BiometricsImpl.obj
 0002:0000b740       $unwind$??1COPOSBiometrics@@UEAA@XZ 000000018002f740     BiometricsImpl.obj
 0002:0000b740       $unwind$?EventUninit@COPOSBiometrics@@IEAAXXZ 000000018002f740     BiometricsImpl.obj
 0002:0000b740       $unwind$?FreezeEvents@COPOSBiometrics@@MEAAJH@Z 000000018002f740     BiometricsImpl.obj
 0002:0000b740       $unwind$?SOProcessID@COPOSBiometrics@@UEAAJPEAJ@Z 000000018002f740     BiometricsImpl.obj
 0002:0000b740       $unwind$?get_AutoDisable@COPOSBiometrics@@UEAAJPEAF@Z 000000018002f740     BiometricsImpl.obj
 0002:0000b740       $unwind$?get_CapCompareFirmwareVersion@COPOSBiometrics@@UEAAJPEAF@Z 000000018002f740     BiometricsImpl.obj
 0002:0000b740       $unwind$?get_CapPrematchData@COPOSBiometrics@@UEAAJPEAF@Z 000000018002f740     BiometricsImpl.obj
 0002:0000b740       $unwind$?get_CapRawSensorData@COPOSBiometrics@@UEAAJPEAF@Z 000000018002f740     BiometricsImpl.obj
 0002:0000b740       $unwind$?get_CapRealTimeData@COPOSBiometrics@@UEAAJPEAF@Z 000000018002f740     BiometricsImpl.obj
 0002:0000b740       $unwind$?get_CapStatisticsReporting@COPOSBiometrics@@UEAAJPEAF@Z 000000018002f740     BiometricsImpl.obj
 0002:0000b740       $unwind$?get_CapTemplateAdaptation@COPOSBiometrics@@UEAAJPEAF@Z 000000018002f740     BiometricsImpl.obj
 0002:0000b740       $unwind$?get_CapUpdateFirmware@COPOSBiometrics@@UEAAJPEAF@Z 000000018002f740     BiometricsImpl.obj
 0002:0000b740       $unwind$?get_CapUpdateStatistics@COPOSBiometrics@@UEAAJPEAF@Z 000000018002f740     BiometricsImpl.obj
 0002:0000b740       $unwind$?get_Claimed@COPOSBiometrics@@UEAAJPEAF@Z 000000018002f740     BiometricsImpl.obj
 0002:0000b740       $unwind$?get_DataEventEnabled@COPOSBiometrics@@UEAAJPEAF@Z 000000018002f740     BiometricsImpl.obj
 0002:0000b740       $unwind$?get_DeviceEnabled@COPOSBiometrics@@UEAAJPEAF@Z 000000018002f740     BiometricsImpl.obj
 0002:0000b740       $unwind$?get_FreezeEvents@COPOSBiometrics@@UEAAJPEAF@Z 000000018002f740     BiometricsImpl.obj
 0002:0000b740       $unwind$?get_RealTimeDataEnabled@COPOSBiometrics@@UEAAJPEAF@Z 000000018002f740     BiometricsImpl.obj
 0002:0000b740       $unwind$?put_FreezeEvents@COPOSBiometrics@@UEAAJF@Z 000000018002f740     BiometricsImpl.obj
 0002:0000b740       $unwind$?DupWide@_CW@@AEAAXXZ 000000018002f740     CWString.obj
 0002:0000b740       $unwind$??0CAtlComModule@ATL@@QEAA@XZ 000000018002f740     OposVariant.obj
 0002:0000b740       $unwind$??0CAtlWinModule@ATL@@QEAA@XZ 000000018002f740     OposVariant.obj
 0002:0000b740       $unwind$??1CAtlBaseModule@ATL@@QEAA@XZ 000000018002f740     atls:atlbase.obj
 0002:0000b740       $unwind$AtlThunk_AllocateData 000000018002f740     atls:atlthunk.obj
 0002:0000b740       $unwind$__raise_securityfailure 000000018002f740     LIBCMT:gs_report.obj
 0002:0000b740       $unwind$??2@YAPEAX_K@Z     000000018002f740     LIBCMT:new_scalar.obj
 0002:0000b740       $unwind$??_Gtype_info@@UEAAPEAXI@Z 000000018002f740     LIBCMT:std_type_info_static.obj
 0002:0000b740       $unwind$_Init_thread_footer 000000018002f740     LIBCMT:thread_safe_statics.obj
 0002:0000b740       $unwind$_Init_thread_header 000000018002f740     LIBCMT:thread_safe_statics.obj
 0002:0000b740       $unwind$_Init_thread_wait  000000018002f740     LIBCMT:thread_safe_statics.obj
 0002:0000b740       $unwind$??0bad_alloc@std@@QEAA@AEBV01@@Z 000000018002f740     LIBCMT:throw_bad_alloc.obj
 0002:0000b740       $unwind$??0bad_array_new_length@std@@QEAA@AEBV01@@Z 000000018002f740     LIBCMT:throw_bad_alloc.obj
 0002:0000b740       $unwind$??0exception@std@@QEAA@AEBV01@@Z 000000018002f740     LIBCMT:throw_bad_alloc.obj
 0002:0000b740       $unwind$__scrt_initialize_crt 000000018002f740     LIBCMT:utility.obj
 0002:0000b740       $unwind$__scrt_initialize_onexit_tables 000000018002f740     LIBCMT:utility.obj
 0002:0000b740       $unwind$__scrt_release_startup_lock 000000018002f740     LIBCMT:utility.obj
 0002:0000b740       $unwind$__scrt_uninitialize_crt 000000018002f740     LIBCMT:utility.obj
 0002:0000b740       $unwind$_onexit            000000018002f740     LIBCMT:utility.obj
 0002:0000b740       $unwind$_IsExceptionObjectToBeDestroyed 000000018002f740     libvcruntime:ehhelpers.obj
 0002:0000b740       $unwind$??0HandlerMap4@FH4@@QEAA@PEBUTryBlockMapEntry4@1@_KH@Z 000000018002f740     libvcruntime:frame.obj
 0002:0000b740       $unwind$??0bad_exception@std@@QEAA@AEBV01@@Z 000000018002f740     libvcruntime:frame.obj
 0002:0000b740       $unwind$?ExFilterRethrow@@YAHPEAU_EXCEPTION_POINTERS@@PEAUEHExceptionRecord@@PEAH@Z 000000018002f740     libvcruntime:frame.obj
 0002:0000b740       $unwind$__vcrt_uninitialize_locks 000000018002f740     libvcruntime:locks.obj
 0002:0000b740       $unwind$__vcrt_freeptd     000000018002f740     libvcruntime:per_thread_data.obj
 0002:0000b740       $unwind$_CreateFrameInfo   000000018002f740     libvcruntime:risctrnsctrl.obj
 0002:0000b740       $unwind$_SetImageBase      000000018002f740     libvcruntime:risctrnsctrl.obj
 0002:0000b740       $unwind$_SetThrowImageBase 000000018002f740     libvcruntime:risctrnsctrl.obj
 0002:0000b740       $unwind$__std_exception_destroy 000000018002f740     libvcruntime:std_exception.obj
 0002:0000b740       $unwind$__std_type_info_destroy_list 000000018002f740     libvcruntime:std_type_info.obj
 0002:0000b740       $unwind$__vcrt_FlsAlloc    000000018002f740     libvcruntime:winapi_downlevel.obj
 0002:0000b740       $unwind$__vcrt_FlsFree     000000018002f740     libvcruntime:winapi_downlevel.obj
 0002:0000b740       $unwind$__vcrt_FlsGetValue 000000018002f740     libvcruntime:winapi_downlevel.obj
 0002:0000b740       $unwind$_calloc_base       000000018002f740     libucrt:calloc_base.obj
 0002:0000b740       $unwind$_malloc_base       000000018002f740     libucrt:malloc_base.obj
 0002:0000b740       $unwind$_callnewh          000000018002f740     libucrt:new_handler.obj
 0002:0000b740       $unwind$initialize_pointers 000000018002f740     libucrt:initialization.obj
 0002:0000b740       $unwind$uninitialize_allocated_memory 000000018002f740     libucrt:initialization.obj
 0002:0000b740       $unwind$__acrt_initialize_locks 000000018002f740     libucrt:locks.obj
 0002:0000b740       $unwind$__acrt_uninitialize_locks 000000018002f740     libucrt:locks.obj
 0002:0000b740       $unwind$__acrt_freeptd     000000018002f740     libucrt:per_thread_data.obj
 0002:0000b740       $unwind$__acrt_getptd_head 000000018002f740     libucrt:per_thread_data.obj
 0002:0000b740       $unwind$__acrt_get_process_end_policy 000000018002f740     libucrt:win_policies.obj
 0002:0000b740       $unwind$__acrt_AppPolicyGetProcessTerminationMethodInternal 000000018002f740     libucrt:winapi_thunks.obj
 0002:0000b740       $unwind$__acrt_FlsAlloc    000000018002f740     libucrt:winapi_thunks.obj
 0002:0000b740       $unwind$__acrt_FlsFree     000000018002f740     libucrt:winapi_thunks.obj
 0002:0000b740       $unwind$__acrt_FlsGetValue 000000018002f740     libucrt:winapi_thunks.obj
 0002:0000b740       $unwind$__acrt_SetThreadStackGuarantee 000000018002f740     libucrt:winapi_thunks.obj
 0002:0000b740       $unwind$__acrt_uninitialize_winapi_thunks 000000018002f740     libucrt:winapi_thunks.obj
 0002:0000b740       $unwind$__acrt_update_locale_info 000000018002f740     libucrt:locale_update.obj
 0002:0000b740       $unwind$__acrt_update_multibyte_info 000000018002f740     libucrt:locale_update.obj
 0002:0000b740       $unwind$__acrt_allocate_buffer_for_argv 000000018002f740     libucrt:argv_parsing.obj
 0002:0000b740       $unwind$?exit_or_terminate_process@@YAXI@Z 000000018002f740     libucrt:exit.obj
 0002:0000b740       $unwind$?try_cor_exit_process@@YAXI@Z 000000018002f740     libucrt:exit.obj
 0002:0000b740       $unwind$__acrt_uninitialize_stdio 000000018002f740     libucrt:_file.obj
 0002:0000b740       $unwind$__acrt_stdio_free_buffer_nolock 000000018002f740     libucrt:_freebuf.obj
 0002:0000b740       $unwind$_fflush_nolock     000000018002f740     libucrt:fflush.obj
 0002:0000b740       $unwind$strcpy_s           000000018002f740     libucrt:strcpy_s.obj
 0002:0000b740       $unwind$wcscat_s           000000018002f740     libucrt:wcscat_s.obj
 0002:0000b740       $unwind$wcscpy_s           000000018002f740     libucrt:wcscpy_s.obj
 0002:0000b740       $unwind$_clrfp             000000018002f740     libucrt:fpctrl.obj
 0002:0000b740       $unwind$_set_statfp        000000018002f740     libucrt:fpctrl.obj
 0002:0000b740       $unwind$_clearfp           000000018002f740     libucrt:ieee.obj
 0002:0000b740       $unwind$_controlfp_s       000000018002f740     libucrt:contrlfp.obj
 0002:0000b740       $unwind$fegetenv           000000018002f740     libucrt:fegetenv.obj
 0002:0000b740       $unwind$feholdexcept       000000018002f740     libucrt:feholdexcept.obj
 0002:0000b740       $unwind$fesetenv           000000018002f740     libucrt:fesetenv.obj
 0002:0000b748       $unwind$?AtlWinModuleExtractCreateWndData@ATL@@YAPEAXPEAU_ATL_WIN_MODULE70@1@@Z 000000018002f748     Biometrics.obj
 0002:0000b748       $unwind$?CreateInstance@?$CComCreator@V?$CComObject@VCOPOSBiometrics@@@ATL@@@ATL@@SAJPEAXAEBU_GUID@@PEAPEAX@Z 000000018002f748     Biometrics.obj
 0002:0000b748       $unwind$?DoEvent@COPOSBiometrics@@IEAAXI_K_J@Z 000000018002f748     Biometrics.obj
 0002:0000b748       $unwind$?DoVerb@?$IOleObjectImpl@VCOPOSBiometrics@@@ATL@@UEAAJJPEAUtagMSG@@PEAUIOleClientSite@@JPEAUHWND__@@PEBUtagRECT@@@Z 000000018002f748     Biometrics.obj
 0002:0000b748       $unwind$?HKeyFromString@CRegParser@ATL@@KAPEAUHKEY__@@PEA_W@Z 000000018002f748     Biometrics.obj
 0002:0000b748       $unwind$?Next@?$CComEnumImpl@UIEnumConnectionPoints@@$1?_GUID_b196b285_bab4_101a_b69c_00aa00341d07@@3U__s_GUID@@BPEAUIConnectionPoint@@V?$_CopyInterface@UIConnectionPoint@@@ATL@@@ATL@@UEAAJKPEAPEAUIConnectionPoint@@PEAK@Z 000000018002f748     Biometrics.obj
 0002:0000b748       $unwind$?Next@?$CComEnumImpl@UIEnumConnections@@$1?_GUID_b196b287_bab4_101a_b69c_00aa00341d07@@3U__s_GUID@@BUtagCONNECTDATA@@V?$_Copy@UtagCONNECTDATA@@@ATL@@@ATL@@UEAAJKPEAUtagCONNECTDATA@@PEAK@Z 000000018002f748     Biometrics.obj
 0002:0000b748       $unwind$?SODirectIO@COPOSBiometrics@@MEAAJJPEAJPEAPEA_W@Z 000000018002f748     Biometrics.obj
 0002:0000b748       $unwind$?SetControlFocus@CComControlBase@ATL@@QEAAHH@Z 000000018002f748     Biometrics.obj
 0002:0000b748       $unwind$?ocscpy_s@@YA_NPEA_W_KPEB_W@Z 000000018002f748     Biometrics.obj
 0002:0000b748       $unwind$?s_EventWindowProc@COPOSBiometrics@@KA_JPEAUHWND__@@I_K_J@Z 000000018002f748     BiometricsImpl.obj
 0002:0000b748       $unwind$?AtlWinModuleTerm@ATL@@YAJPEAU_ATL_WIN_MODULE70@1@PEAUHINSTANCE__@@@Z 000000018002f748     OposVariant.obj
 0002:0000b748       $unwind$?SetVARIANT@OposVariant@@QEAAXAEAUtagVARIANT@@GAEAJ@Z 000000018002f748     OposVariant.obj
 0002:0000b748       $unwind$__scrt_dllmain_exception_filter 000000018002f748     LIBCMT:utility.obj
 0002:0000b748       $unwind$?Is_bad_exception_allowed@@YAEPEBU_s_ESTypeList@@@Z 000000018002f748     libvcruntime:frame.obj
 0002:0000b748       $unwind$_recalloc_base     000000018002f748     libucrt:recalloc.obj
 0002:0000b748       $unwind$__acrt_free_locale 000000018002f748     libucrt:locale_refcounting.obj
 0002:0000b748       $unwind$__acrt_lowio_create_handle_array 000000018002f748     libucrt:osfinfo.obj
 0002:0000b748       $unwind$?setSBCS@@YAXPEAU__crt_multibyte_data@@@Z 000000018002f748     libucrt:mbctype.obj
 0002:0000b748       $unwind$_seh_filter_exe    000000018002f748     libucrt:exception_filter.obj
 0002:0000b748       $unwind$_initterm          000000018002f748     libucrt:initterm.obj
 0002:0000b748       $unwind$??$ensure_buffer_is_big_enough@D@formatting_buffer@__crt_stdio_output@@QEAA_N_K@Z 000000018002f748     libucrt:output.obj
 0002:0000b748       $unwind$??$ensure_buffer_is_big_enough@_W@formatting_buffer@__crt_stdio_output@@QEAA_N_K@Z 000000018002f748     libucrt:output.obj
 0002:0000b75c       $unwind$??_GCRegObject@ATL@@UEAAPEAXI@Z 000000018002f75c     Biometrics.obj
 0002:0000b75c       $unwind$?Add@?$CSimpleArray@GV?$CSimpleArrayEqualHelper@G@ATL@@@ATL@@QEAAHAEBG@Z 000000018002f75c     Biometrics.obj
 0002:0000b75c       $unwind$?Add@?$CSimpleMap@PEA_WPEA_WVCExpansionVectorEqualHelper@ATL@@@ATL@@QEAAHAEBQEA_W0@Z 000000018002f75c     Biometrics.obj
 0002:0000b75c       $unwind$?Add@CComDynamicUnkArray@ATL@@QEAAKPEAUIUnknown@@@Z 000000018002f75c     Biometrics.obj
 0002:0000b75c       $unwind$?Advise@?$IOleObjectImpl@VCOPOSBiometrics@@@ATL@@UEAAJPEAUIAdviseSink@@PEAK@Z 000000018002f75c     Biometrics.obj
 0002:0000b75c       $unwind$?ClearReplacements@CExpansionVector@ATL@@QEAAJXZ 000000018002f75c     Biometrics.obj
 0002:0000b75c       $unwind$?CreateInstance@?$CComObject@V?$CComEnum@UIEnumConnectionPoints@@$1?_GUID_b196b285_bab4_101a_b69c_00aa00341d07@@3U__s_GUID@@BPEAUIConnectionPoint@@V?$_CopyInterface@UIConnectionPoint@@@ATL@@VCComSingleThreadModel@6@@ATL@@@ATL@@SAJPEAPEAV12@@Z 000000018002f75c     Biometrics.obj
 0002:0000b75c       $unwind$?CreateInstance@?$CComObject@V?$CComEnum@UIEnumConnections@@$1?_GUID_b196b287_bab4_101a_b69c_00aa00341d07@@3U__s_GUID@@BUtagCONNECTDATA@@V?$_Copy@UtagCONNECTDATA@@@ATL@@VCComSingleThreadModel@6@@ATL@@@ATL@@SAJPEAPEAV12@@Z 000000018002f75c     Biometrics.obj
 0002:0000b75c       $unwind$?RegisterServer@CComModule@ATL@@QEAAJHPEBU_GUID@@@Z 000000018002f75c     Biometrics.obj
 0002:0000b75c       $unwind$?Term@CAtlModule@ATL@@QEAAXXZ 000000018002f75c     Biometrics.obj
 0002:0000b75c       $unwind$?UnregisterServer@CComModule@ATL@@QEAAJHPEBU_GUID@@@Z 000000018002f75c     Biometrics.obj
 0002:0000b75c       $unwind$?VTFromRegType@CRegParser@ATL@@KAHPEB_WAEAG@Z 000000018002f75c     Biometrics.obj
 0002:0000b75c       $unwind$??0OposDispParms@@QEAA@PEAVOposVariant@@H@Z 000000018002f75c     OposVariant.obj
 0002:0000b75c       $unwind$?SetBSTR_Copy@OposVariant@@QEAAXPEA_WAEAJ@Z 000000018002f75c     OposVariant.obj
 0002:0000b75c       $unwind$?SetBSTR_InOutPtr@OposVariant@@QEAA_NPEAPEA_WAEAJ@Z 000000018002f75c     OposVariant.obj
 0002:0000b75c       $unwind$?SetDispatch_Ptr@OposVariant@@QEAAXPEAUIDispatch@@AEAJ@Z 000000018002f75c     OposVariant.obj
 0002:0000b75c       $unwind$?SetLONG_Ptr@OposVariant@@QEAAXPEAJAEAJ@Z 000000018002f75c     OposVariant.obj
 0002:0000b75c       $unwind$?SetString@OposVariant@@QEAAXPEB_WAEAJ@Z 000000018002f75c     OposVariant.obj
 0002:0000b75c       $unwind$?SetVARIANT_BOOL_Ptr@OposVariant@@QEAAXPEAFAEAJ@Z 000000018002f75c     OposVariant.obj
 0002:0000b75c       $unwind$?Term@CAtlComModule@ATL@@QEAAXXZ 000000018002f75c     OposVariant.obj
 0002:0000b75c       $unwind$_DllMainCRTStartup 000000018002f75c     LIBCMT:dll_dllmain.obj
 0002:0000b75c       $unwind$__vcrt_getptd_noexit 000000018002f75c     libvcruntime:per_thread_data.obj
 0002:0000b75c       $unwind$__vcrt_InitializeCriticalSectionEx 000000018002f75c     libvcruntime:winapi_downlevel.obj
 0002:0000b75c       $unwind$memcpy_s           000000018002f75c     libucrt:cfout.obj
 0002:0000b75c       $unwind$__acrt_getptd      000000018002f75c     libucrt:per_thread_data.obj
 0002:0000b75c       $unwind$__acrt_getptd_noexit 000000018002f75c     libucrt:per_thread_data.obj
 0002:0000b75c       $unwind$__acrt_execute_initializers 000000018002f75c     libucrt:shared_initialization.obj
 0002:0000b75c       $unwind$__acrt_InitializeCriticalSectionEx 000000018002f75c     libucrt:winapi_thunks.obj
 0002:0000b75c       $unwind$?free_crt_array_internal@@YAXQEAPEBX_K@Z 000000018002f75c     libucrt:inittime.obj
 0002:0000b75c       $unwind$??$common_lseek_nolock@_J@@YA_JH_JH@Z 000000018002f75c     libucrt:lseek.obj
 0002:0000b75c       $unwind$__acrt_stdio_flush_nolock 000000018002f75c     libucrt:fflush.obj
 0002:0000b75c       $unwind$??0_LocaleUpdate@@QEAA@QEAU__crt_locale_pointers@@@Z 000000018002f75c     libucrt:output.obj
 0002:0000b75c       $unwind$?type_case_Z@?$output_processor@_WV?$string_output_adapter@_W@__crt_stdio_output@@V?$format_validation_base@_WV?$string_output_adapter@_W@__crt_stdio_output@@@2@@__crt_stdio_output@@AEAA_NXZ 000000018002f75c     libucrt:output.obj
 0002:0000b75c       $unwind$?type_case_s@?$output_processor@_WV?$string_output_adapter@_W@__crt_stdio_output@@V?$format_validation_base@_WV?$string_output_adapter@_W@__crt_stdio_output@@@2@@__crt_stdio_output@@AEAA_NXZ 000000018002f75c     libucrt:output.obj
 0002:0000b75c       $unwind$_exception_enabled 000000018002f75c     libucrt:libm_error.obj
 0002:0000b76c       $unwind$?AddTermFunc@CAtlModule@ATL@@QEAAJP6AX_K@Z0@Z 000000018002f76c     Biometrics.obj
 0002:0000b76c       $unwind$?AtlComModuleRegisterServer@ATL@@YAJPEAU_ATL_COM_MODULE70@1@HPEBU_GUID@@@Z 000000018002f76c     Biometrics.obj
 0002:0000b76c       $unwind$?AtlComModuleUnregisterServer@ATL@@YAJPEAU_ATL_COM_MODULE70@1@HPEBU_GUID@@@Z 000000018002f76c     Biometrics.obj
 0002:0000b76c       $unwind$?CreateInstance@?$CComCreator@V?$CComAggObject@VCOPOSBiometrics@@@ATL@@@ATL@@SAJPEAXAEBU_GUID@@PEAPEAX@Z 000000018002f76c     Biometrics.obj
 0002:0000b76c       $unwind$?CreateInstance@?$CComCreator@V?$CComObjectCached@VCComClassFactory@ATL@@@ATL@@@ATL@@SAJPEAXAEBU_GUID@@PEAPEAX@Z 000000018002f76c     Biometrics.obj
 0002:0000b76c       $unwind$?GetPagesHelper@?$ISpecifyPropertyPagesImpl@VCOPOSBiometrics@@@ATL@@IEAAJPEAUtagCAUUID@@PEBUATL_PROPMAP_ENTRY@2@@Z 000000018002f76c     Biometrics.obj
 0002:0000b76c       $unwind$??_Estringdispid@CComTypeInfoHolder@ATL@@QEAAPEAXI@Z 000000018002f76c     OposVariant.obj
 0002:0000b76c       $unwind$?SetVARIANT_Ptr@OposVariant@@QEAAXAEAPEAUtagVARIANT@@GAEAJ@Z 000000018002f76c     OposVariant.obj
 0002:0000b76c       $unwind$__GSHandlerCheck_SEH 000000018002f76c     LIBCMT:gshandlerseh.obj
 0002:0000b76c       $unwind$??$TypeMatchHelper@V__FrameHandler3@@@@YAHPEBU_s_HandlerType@@PEBU_s_CatchableType@@PEBU_s_ThrowInfo@@@Z 000000018002f76c     libvcruntime:frame.obj
 0002:0000b76c       $unwind$??$TypeMatchHelper@V__FrameHandler4@@@@YAHPEAUHandlerType4@FH4@@PEBU_s_CatchableType@@PEBU_s_ThrowInfo@@@Z 000000018002f76c     libvcruntime:frame.obj
 0002:0000b76c       $unwind$?initialize_stdio_handles_nolock@@YAXXZ 000000018002f76c     libucrt:ioinit.obj
 0002:0000b76c       $unwind$__acrt_initialize_stdio 000000018002f76c     libucrt:_file.obj
 0002:0000b76c       $unwind$?process@?$output_processor@_WV?$string_output_adapter@_W@__crt_stdio_output@@V?$format_validation_base@_WV?$string_output_adapter@_W@__crt_stdio_output@@@2@@__crt_stdio_output@@QEAAHXZ 000000018002f76c     libucrt:output.obj
 0002:0000b76c       $unwind$?type_case_integer@?$output_processor@_WV?$string_output_adapter@_W@__crt_stdio_output@@V?$format_validation_base@_WV?$string_output_adapter@_W@__crt_stdio_output@@@2@@__crt_stdio_output@@AEAA_NI_N@Z 000000018002f76c     libucrt:output.obj
 0002:0000b784       $unwind$??0?$CComContainedObject@VCOPOSBiometrics@@@ATL@@QEAA@PEAX@Z 000000018002f784     Biometrics.obj
 0002:0000b784       $unwind$??1?$CComEnumImpl@UIEnumConnectionPoints@@$1?_GUID_b196b285_bab4_101a_b69c_00aa00341d07@@3U__s_GUID@@BPEAUIConnectionPoint@@V?$_CopyInterface@UIConnectionPoint@@@ATL@@@ATL@@UEAA@XZ 000000018002f784     Biometrics.obj
 0002:0000b784       $unwind$??1?$CComEnumImpl@UIEnumConnections@@$1?_GUID_b196b287_bab4_101a_b69c_00aa00341d07@@3U__s_GUID@@BUtagCONNECTDATA@@V?$_Copy@UtagCONNECTDATA@@@ATL@@@ATL@@UEAA@XZ 000000018002f784     Biometrics.obj
 0002:0000b784       $unwind$??_G?$CComAggObject@VCOPOSBiometrics@@@ATL@@UEAAPEAXI@Z 000000018002f784     Biometrics.obj
 0002:0000b784       $unwind$??_G?$CComContainedObject@VCOPOSBiometrics@@@ATL@@UEAAPEAXI@Z 000000018002f784     Biometrics.obj
 0002:0000b784       $unwind$??_G?$CComObject@V?$CComEnum@UIEnumConnectionPoints@@$1?_GUID_b196b285_bab4_101a_b69c_00aa00341d07@@3U__s_GUID@@BPEAUIConnectionPoint@@V?$_CopyInterface@UIConnectionPoint@@@ATL@@VCComSingleThreadModel@6@@ATL@@@ATL@@UEAAPEAXI@Z 000000018002f784     Biometrics.obj
 0002:0000b784       $unwind$??_G?$CComObject@V?$CComEnum@UIEnumConnections@@$1?_GUID_b196b287_bab4_101a_b69c_00aa00341d07@@3U__s_GUID@@BUtagCONNECTDATA@@V?$_Copy@UtagCONNECTDATA@@@ATL@@VCComSingleThreadModel@6@@ATL@@@ATL@@UEAAPEAXI@Z 000000018002f784     Biometrics.obj
 0002:0000b784       $unwind$??_G?$CComObject@VCOPOSBiometrics@@@ATL@@UEAAPEAXI@Z 000000018002f784     Biometrics.obj
 0002:0000b784       $unwind$??_G?$CComObjectCached@VCComClassFactory@ATL@@@ATL@@UEAAPEAXI@Z 000000018002f784     Biometrics.obj
 0002:0000b784       $unwind$??_GCComClassFactory@ATL@@UEAAPEAXI@Z 000000018002f784     Biometrics.obj
 0002:0000b784       $unwind$??_GCComModule@ATL@@UEAAPEAXI@Z 000000018002f784     Biometrics.obj
 0002:0000b784       $unwind$?DeleteSubKey@CRegKey@ATL@@QEAAJPEB_W@Z 000000018002f784     Biometrics.obj
 0002:0000b784       $unwind$?IOleObject_SetClientSite@CComControlBase@ATL@@QEAAJPEAUIOleClientSite@@@Z 000000018002f784     Biometrics.obj
 0002:0000b784       $unwind$?InitNew@?$IPersistStorageImpl@VCOPOSBiometrics@@@ATL@@UEAAJPEAUIStorage@@@Z 000000018002f784     Biometrics.obj
 0002:0000b784       $unwind$?IsDirty@?$IPersistStorageImpl@VCOPOSBiometrics@@@ATL@@UEAAJXZ 000000018002f784     Biometrics.obj
 0002:0000b784       $unwind$?Release@?$CComAggObject@VCOPOSBiometrics@@@ATL@@UEAAKXZ 000000018002f784     Biometrics.obj
 0002:0000b784       $unwind$?Release@?$CComObject@V?$CComEnum@UIEnumConnectionPoints@@$1?_GUID_b196b285_bab4_101a_b69c_00aa00341d07@@3U__s_GUID@@BPEAUIConnectionPoint@@V?$_CopyInterface@UIConnectionPoint@@@ATL@@VCComSingleThreadModel@6@@ATL@@@ATL@@UEAAKXZ 000000018002f784     Biometrics.obj
 0002:0000b784       $unwind$?Release@?$CComObject@V?$CComEnum@UIEnumConnections@@$1?_GUID_b196b287_bab4_101a_b69c_00aa00341d07@@3U__s_GUID@@BUtagCONNECTDATA@@V?$_Copy@UtagCONNECTDATA@@@ATL@@VCComSingleThreadModel@6@@ATL@@@ATL@@UEAAKXZ 000000018002f784     Biometrics.obj
 0002:0000b784       $unwind$?Release@?$CComObject@VCOPOSBiometrics@@@ATL@@UEAAKXZ 000000018002f784     Biometrics.obj
 0002:0000b784       $unwind$?SOData@COPOSBiometrics@@MEAAJJ@Z 000000018002f784     Biometrics.obj
 0002:0000b784       $unwind$?SOStatusUpdate@COPOSBiometrics@@MEAAJJ@Z 000000018002f784     Biometrics.obj
 0002:0000b784       $unwind$?SetAdvise@?$IViewObjectExImpl@VCOPOSBiometrics@@@ATL@@UEAAJKKPEAUIAdviseSink@@@Z 000000018002f784     Biometrics.obj
 0002:0000b784       $unwind$?Term@CComModule@ATL@@QEAAXXZ 000000018002f784     Biometrics.obj
 0002:0000b784       $unwind$DllMain            000000018002f784     Biometrics.obj
 0002:0000b784       $unwind$??1?$IConnectionPointImpl@VCOPOSBiometrics@@$1?DIID__IOPOSBiometricsEvents@@3U_GUID@@BVCComDynamicUnkArray@ATL@@@ATL@@QEAA@XZ 000000018002f784     BiometricsImpl.obj
 0002:0000b784       $unwind$??1?$IConnectionPointImpl@VCOPOSBiometrics@@$1?IID_IPropertyNotifySink@@3U_GUID@@BVCComDynamicUnkArray@ATL@@@ATL@@QEAA@XZ 000000018002f784     BiometricsImpl.obj
 0002:0000b784       $unwind$?SetBSTR@OposVariant@@QEAAXPEA_WAEAJ@Z 000000018002f784     OposVariant.obj
 0002:0000b784       $unwind$?SetLONG@OposVariant@@QEAAXJ@Z 000000018002f784     OposVariant.obj
 0002:0000b784       $unwind$?SetVARIANT_BOOL@OposVariant@@QEAAXF@Z 000000018002f784     OposVariant.obj
 0002:0000b784       $unwind$??0CAtlBaseModule@ATL@@QEAA@XZ 000000018002f784     atls:atlbase.obj
 0002:0000b784       $unwind$??$GetProcAddressAll@P6AP6A_JPEAUHWND__@@I_K_J@ZPEAUAtlThunkData_t@@@Z@@YAP6AP6A_JPEAUHWND__@@I_K_J@ZPEAUAtlThunkData_t@@@ZPEAP6AP6A_J0I12@Z3@Z@Z 000000018002f784     atls:atlthunk.obj
 0002:0000b784       $unwind$??$GetProcAddressAll@P6APEAUAtlThunkData_t@@XZ@@YAP6APEAUAtlThunkData_t@@XZPEAP6APEAU0@XZ@Z 000000018002f784     atls:atlthunk.obj
 0002:0000b784       $unwind$??$GetProcAddressAll@P6AXPEAUAtlThunkData_t@@@Z@@YAP6AXPEAUAtlThunkData_t@@@ZPEAP6AX0@Z@Z 000000018002f784     atls:atlthunk.obj
 0002:0000b784       $unwind$??$GetProcAddressAll@P6AXPEAUAtlThunkData_t@@PEAX_K@Z@@YAP6AXPEAUAtlThunkData_t@@PEAX_K@ZPEAP6AX012@Z@Z 000000018002f784     atls:atlthunk.obj
 0002:0000b784       $unwind$?__AllocStdCallThunk_cmn@@YAPEAXXZ 000000018002f784     atls:atlthunk.obj
 0002:0000b784       $unwind$?__InitializeThunkPool@@YAHXZ 000000018002f784     atls:atlthunk.obj
 0002:0000b784       $unwind$AtlThunk_DataToCode 000000018002f784     atls:atlthunk.obj
 0002:0000b784       $unwind$_RTC_Initialize    000000018002f784     LIBCMT:initsect.obj
 0002:0000b784       $unwind$_RTC_Terminate     000000018002f784     LIBCMT:initsect.obj
 0002:0000b784       $unwind$?__scrt_initialize_thread_safe_statics@@YAHXZ 000000018002f784     LIBCMT:thread_safe_statics.obj
 0002:0000b784       $unwind$??_Gbad_alloc@std@@UEAAPEAXI@Z 000000018002f784     LIBCMT:throw_bad_alloc.obj
 0002:0000b784       $unwind$??_Gbad_array_new_length@std@@UEAAPEAXI@Z 000000018002f784     LIBCMT:throw_bad_alloc.obj
 0002:0000b784       $unwind$??_Gexception@std@@UEAAPEAXI@Z 000000018002f784     LIBCMT:throw_bad_alloc.obj
 0002:0000b784       $unwind$__FrameUnwindFilter 000000018002f784     libvcruntime:ehhelpers.obj
 0002:0000b784       $unwind$??_Gbad_exception@std@@UEAAPEAXI@Z 000000018002f784     libvcruntime:frame.obj
 0002:0000b784       $unwind$?ExFilterRethrowFH4@@YAHPEAU_EXCEPTION_POINTERS@@PEAUEHExceptionRecord@@HPEAH@Z 000000018002f784     libvcruntime:frame.obj
 0002:0000b784       $unwind$_FindAndUnlinkFrame 000000018002f784     libvcruntime:risctrnsctrl.obj
 0002:0000b784       $unwind$__vcrt_FlsSetValue 000000018002f784     libvcruntime:winapi_downlevel.obj
 0002:0000b784       $unwind$??$common_initialize_environment_nolock@D@@YAHXZ 000000018002f784     libucrt:environment_initialization.obj
 0002:0000b784       $unwind$_realloc_base      000000018002f784     libucrt:realloc_base.obj
 0002:0000b784       $unwind$?replace_current_thread_locale_nolock@@YAXQEAU__acrt_ptd@@QEAU__crt_locale_data@@@Z 000000018002f784     libucrt:per_thread_data.obj
 0002:0000b784       $unwind$__acrt_execute_uninitializers 000000018002f784     libucrt:shared_initialization.obj
 0002:0000b784       $unwind$__acrt_FlsSetValue 000000018002f784     libucrt:winapi_thunks.obj
 0002:0000b784       $unwind$__acrt_LocaleNameToLCID 000000018002f784     libucrt:winapi_thunks.obj
 0002:0000b784       $unwind$_updatetlocinfoEx_nolock 000000018002f784     libucrt:locale_refcounting.obj
 0002:0000b784       $unwind$_close_nolock      000000018002f784     libucrt:close.obj
 0002:0000b784       $unwind$__acrt_uninitialize_lowio 000000018002f784     libucrt:ioinit.obj
 0002:0000b784       $unwind$__acrt_errno_map_os_error 000000018002f784     libucrt:errno.obj
 0002:0000b784       $unwind$_initterm_e        000000018002f784     libucrt:initterm.obj
 0002:0000b784       $unwind$_fclose_nolock     000000018002f784     libucrt:fclose.obj
 0002:0000b784       $unwind$?type_case_n@?$output_processor@_WV?$string_output_adapter@_W@__crt_stdio_output@@V?$format_validation_base@_WV?$string_output_adapter@_W@__crt_stdio_output@@@2@@__crt_stdio_output@@AEAA_NXZ 000000018002f784     libucrt:output.obj
 0002:0000b784       $unwind$strncpy_s          000000018002f784     libucrt:strncpy_s.obj
 0002:0000b784       $unwind$wcsncpy_s          000000018002f784     libucrt:wcsncpy_s.obj
 0002:0000b790       $unwind$?ChangeBSTR@OposVariant@@QEAAXPEAPEA_WAEAJ@Z 000000018002f790     OposVariant.obj
 0002:0000b790       $unwind$?ChangeLONG@OposVariant@@QEAAXPEAJAEAJ@Z 000000018002f790     OposVariant.obj
 0002:0000b790       $unwind$?x_ismbbtype_l@@YAHPEAU__crt_locale_pointers@@IHH@Z 000000018002f790     libucrt:ismbbyte.obj
 0002:0000b7a0       $unwind$swprintf_s         000000018002f7a0     Biometrics.obj
 0002:0000b7b0       $unwind$?_AtlVerifyStackAvailable@_ATL_SAFE_ALLOCA_IMPL@ATL@@YA_N_K@Z 000000018002f7b0     Biometrics.obj
 0002:0000b7dc       $unwind$?filt$0@?0??_AtlVerifyStackAvailable@_ATL_SAFE_ALLOCA_IMPL@ATL@@YA_N_K@Z@4HA 000000018002f7dc     Biometrics.obj
 0002:0000b7dc       $unwind$?fin$0@?0??dllmain_crt_process_attach@@YAHQEAUHINSTANCE__@@QEAX@Z@4HA 000000018002f7dc     LIBCMT:dll_dllmain.obj
 0002:0000b7dc       $unwind$?fin$0@?0??dllmain_crt_process_detach@@YAH_N@Z@4HA 000000018002f7dc     LIBCMT:dll_dllmain.obj
 0002:0000b7dc       $unwind$?fin$1@?0??dllmain_crt_process_detach@@YAH_N@Z@4HA 000000018002f7dc     LIBCMT:dll_dllmain.obj
 0002:0000b7dc       $unwind$_IsNonwritableInCurrentImage$filt$0 000000018002f7dc     LIBCMT:pesect.obj
 0002:0000b7dc       $unwind$?filt$0@?0??CxxCallCatchBlock@__FrameHandler4@@SAPEAXPEAU_EXCEPTION_RECORD@@@Z@4HA 000000018002f7dc     libvcruntime:frame.obj
 0002:0000b7dc       $unwind$_query_new_handler$fin$0 000000018002f7dc     libucrt:new_handler.obj
 0002:0000b7dc       $unwind$?fin$0@?0???$?RV<lambda_0ae27a3a962d80f24befdcbee591983d>@@AEAV<lambda_8d0ee55de4b1038c4002e0adecdf1839>@@V<lambda_dc504788e8f1664fe9b84e20bfb512f2>@@@?$__crt_seh_guarded_call@X@@QEAAX$$QEAV<lambda_0ae27a3a962d80f24befdcbee591983d>@@AEAV<lambda_8d0ee55de4b1038c4002e0adecdf1839>@@$$QEAV<lambda_dc504788e8f1664fe9b84e20bfb512f2>@@@Z@4HA 000000018002f7dc     libucrt:per_thread_data.obj
 0002:0000b7dc       $unwind$?fin$0@?0???$?RV<lambda_2d41944a1d46af3157314b8a01080d33>@@AEAV<lambda_8f455de75cd7d7f24b4096f044d8b9e6>@@V<lambda_aa500f224e6afead328df44964fe2772>@@@?$__crt_seh_guarded_call@X@@QEAAX$$QEAV<lambda_2d41944a1d46af3157314b8a01080d33>@@AEAV<lambda_8f455de75cd7d7f24b4096f044d8b9e6>@@$$QEAV<lambda_aa500f224e6afead328df44964fe2772>@@@Z@4HA 000000018002f7dc     libucrt:per_thread_data.obj
 0002:0000b7dc       $unwind$?fin$0@?0???$?RV<lambda_aa87e3671a710a21b5dc78c0bdf72e11>@@AEAV<lambda_92619d2358a28f41a33ba319515a20b9>@@V<lambda_6992ecaafeb10aed2b74cb1fae11a551>@@@?$__crt_seh_guarded_call@X@@QEAAX$$QEAV<lambda_aa87e3671a710a21b5dc78c0bdf72e11>@@AEAV<lambda_92619d2358a28f41a33ba319515a20b9>@@$$QEAV<lambda_6992ecaafeb10aed2b74cb1fae11a551>@@@Z@4HA 000000018002f7dc     libucrt:per_thread_data.obj
 0002:0000b7dc       $unwind$?fin$0@?0???$?RV<lambda_f2e299630e499de9f9a165e60fcd3db5>@@AEAV<lambda_2ae9d31cdba2644fcbeaf08da7c24588>@@V<lambda_40d01ff24d0e7b3814fdbdcee8eab3c7>@@@?$__crt_seh_guarded_call@X@@QEAAX$$QEAV<lambda_f2e299630e499de9f9a165e60fcd3db5>@@AEAV<lambda_2ae9d31cdba2644fcbeaf08da7c24588>@@$$QEAV<lambda_40d01ff24d0e7b3814fdbdcee8eab3c7>@@@Z@4HA 000000018002f7dc     libucrt:per_thread_data.obj
 0002:0000b7dc       $unwind$__acrt_update_thread_locale_data$fin$0 000000018002f7dc     libucrt:locale_refcounting.obj
 0002:0000b7dc       $unwind$?fin$0@?0???$?RV<lambda_410d79af7f07d98d83a3f525b3859a53>@@AEAV<lambda_3e16ef9562a7dcce91392c22ab16ea36>@@V<lambda_38119f0e861e05405d8a144b9b982f0a>@@@?$__crt_seh_guarded_call@X@@QEAAX$$QEAV<lambda_410d79af7f07d98d83a3f525b3859a53>@@AEAV<lambda_3e16ef9562a7dcce91392c22ab16ea36>@@$$QEAV<lambda_38119f0e861e05405d8a144b9b982f0a>@@@Z@4HA 000000018002f7dc     libucrt:wsetlocale.obj
 0002:0000b7dc       $unwind$?fin$0@?0???$?RV<lambda_751a882b2c74d4b022dec766aa51a29a>@@AEAV<lambda_628dfdc04ba53c8bfc02c9951375f3f5>@@V<lambda_f6c7be5f7998530c34de24c7437d6b54>@@@?$__crt_seh_guarded_call@H@@QEAAH$$QEAV<lambda_751a882b2c74d4b022dec766aa51a29a>@@AEAV<lambda_628dfdc04ba53c8bfc02c9951375f3f5>@@$$QEAV<lambda_f6c7be5f7998530c34de24c7437d6b54>@@@Z@4HA 000000018002f7dc     libucrt:close.obj
 0002:0000b7dc       $unwind$?fin$0@?0???$?RV<lambda_a37b2b86f63e897a80ea819b0eb08c01>@@AEAV<lambda_38ce7e780aa69e748d6df282ebc68efe>@@V<lambda_99fb1378e971ab6e7edea83e3a7a83a2>@@@?$__crt_seh_guarded_call@H@@QEAAH$$QEAV<lambda_a37b2b86f63e897a80ea819b0eb08c01>@@AEAV<lambda_38ce7e780aa69e748d6df282ebc68efe>@@$$QEAV<lambda_99fb1378e971ab6e7edea83e3a7a83a2>@@@Z@4HA 000000018002f7dc     libucrt:commit.obj
 0002:0000b7dc       $unwind$__acrt_initialize_lowio$fin$0 000000018002f7dc     libucrt:ioinit.obj
 0002:0000b7dc       $unwind$__acrt_lowio_ensure_fh_exists$fin$0 000000018002f7dc     libucrt:osfinfo.obj
 0002:0000b7dc       $unwind$_write$fin$0       000000018002f7dc     libucrt:write.obj
 0002:0000b7dc       $unwind$?fin$0@?0???$?RV<lambda_efdfa57d1f175319df784efa44bb7b81>@@AEAV<lambda_5f0a4c1567f8adc6734073e5d1e1b35c>@@V<lambda_2e8a7d3640ea6ccb4c2413664c2db6fd>@@@?$__crt_seh_guarded_call@X@@QEAAX$$QEAV<lambda_efdfa57d1f175319df784efa44bb7b81>@@AEAV<lambda_5f0a4c1567f8adc6734073e5d1e1b35c>@@$$QEAV<lambda_2e8a7d3640ea6ccb4c2413664c2db6fd>@@@Z@4HA 000000018002f7dc     libucrt:mbctype.obj
 0002:0000b7dc       $unwind$?fin$0@?0??update_thread_multibyte_data_internal@@YAPEAU__crt_multibyte_data@@QEAU__acrt_ptd@@QEAPEAU1@@Z@4HA 000000018002f7dc     libucrt:mbctype.obj
 0002:0000b7dc       $unwind$?fin$0@?0???$?RV<lambda_450d765d439847d4c735a33c368b5fc0>@@AEAV<lambda_44731a7d0e6d81c3e6aa82d741081786>@@V<lambda_601a2a7da3b7a96e9554ac7215c4b07c>@@@?$__crt_seh_guarded_call@P6AXH@Z@@QEAAP6AXH@Z$$QEAV<lambda_450d765d439847d4c735a33c368b5fc0>@@AEAV<lambda_44731a7d0e6d81c3e6aa82d741081786>@@$$QEAV<lambda_601a2a7da3b7a96e9554ac7215c4b07c>@@@Z@4HA 000000018002f7dc     libucrt:signal.obj
 0002:0000b7dc       $unwind$raise$fin$0        000000018002f7dc     libucrt:signal.obj
 0002:0000b7dc       $unwind$?filt$0@?0???R<lambda_6e4b09c48022b2350581041d5f6b0c4c>@@QEBA@XZ@4HA 000000018002f7dc     libucrt:exit.obj
 0002:0000b7dc       $unwind$?fin$0@?0???$?RV<lambda_d80eeec6fff315bfe5c115232f3240e3>@@AEAV<lambda_6e4b09c48022b2350581041d5f6b0c4c>@@V<lambda_2358e3775559c9db80273638284d5e45>@@@?$__crt_seh_guarded_call@X@@QEAAX$$QEAV<lambda_d80eeec6fff315bfe5c115232f3240e3>@@AEAV<lambda_6e4b09c48022b2350581041d5f6b0c4c>@@$$QEAV<lambda_2358e3775559c9db80273638284d5e45>@@@Z@4HA 000000018002f7dc     libucrt:exit.obj
 0002:0000b7dc       $unwind$?fin$0@?0???$?RV<lambda_638799b9deba96c50f710eeac98168cd>@@AEAV<lambda_22ebabd17bc4fa466a2aca6d8deb888d>@@V<lambda_a6f7d7db0129f75315ebf26d50c089f1>@@@?$__crt_seh_guarded_call@H@@QEAAH$$QEAV<lambda_638799b9deba96c50f710eeac98168cd>@@AEAV<lambda_22ebabd17bc4fa466a2aca6d8deb888d>@@$$QEAV<lambda_a6f7d7db0129f75315ebf26d50c089f1>@@@Z@4HA 000000018002f7dc     libucrt:onexit.obj
 0002:0000b7dc       $unwind$?fin$0@?0???$?RV<lambda_7777bce6b2f8c936911f934f8298dc43>@@AEAV<lambda_f03950bc5685219e0bcd2087efbe011e>@@V<lambda_3883c3dff614d5e0c5f61bb1ac94921c>@@@?$__crt_seh_guarded_call@H@@QEAAH$$QEAV<lambda_7777bce6b2f8c936911f934f8298dc43>@@AEAV<lambda_f03950bc5685219e0bcd2087efbe011e>@@$$QEAV<lambda_3883c3dff614d5e0c5f61bb1ac94921c>@@@Z@4HA 000000018002f7dc     libucrt:onexit.obj
 0002:0000b7dc       $unwind$_fcloseall$fin$0   000000018002f7dc     libucrt:closeall.obj
 0002:0000b7dc       $unwind$fclose$fin$0       000000018002f7dc     libucrt:fclose.obj
 0002:0000b7dc       $unwind$?fin$0@?0???$?RV<lambda_842d9ff0dc9ef11c61343bbaebe7f885>@@AEAV<lambda_c5860995281e5c4ce005b3de8f5874ee>@@V<lambda_d90129c13df834fdcbf8d2b88dafcf2d>@@@?$__crt_seh_guarded_call@X@@QEAAX$$QEAV<lambda_842d9ff0dc9ef11c61343bbaebe7f885>@@AEAV<lambda_c5860995281e5c4ce005b3de8f5874ee>@@$$QEAV<lambda_d90129c13df834fdcbf8d2b88dafcf2d>@@@Z@4HA 000000018002f7dc     libucrt:fflush.obj
 0002:0000b7dc       $unwind$?fin$0@?0???$?RV<lambda_886d6c58226a84441f68b9f2b8217b83>@@AEAV<lambda_ab61a845afdef5b7c387490eaf3616ee>@@V<lambda_f7f22ab5edc0698d5f6905b0d3f44752>@@@?$__crt_seh_guarded_call@X@@QEAAX$$QEAV<lambda_886d6c58226a84441f68b9f2b8217b83>@@AEAV<lambda_ab61a845afdef5b7c387490eaf3616ee>@@$$QEAV<lambda_f7f22ab5edc0698d5f6905b0d3f44752>@@@Z@4HA 000000018002f7dc     libucrt:fflush.obj
 0002:0000b7dc       $unwind$_ctrlfp$filt$0     000000018002f7dc     libucrt:fpctrl.obj
 0002:0000b7dc       $unwind$common_control87$filt$0 000000018002f7dc     libucrt:ieee.obj
 0002:0000b7e4       $unwind$?AtlInternalOleLoadFromStream@ATL@@YAJPEAUIStream@@AEBU_GUID@@PEAPEAXTClassesAllowedInStream@1@K@Z 000000018002f7e4     Biometrics.obj
 0002:0000b800       $unwind$?ReadFromStream@CComBSTR@ATL@@QEAAJPEAUIStream@@@Z 000000018002f800     Biometrics.obj
 0002:0000b800       $unwind$_configure_narrow_argv 000000018002f800     libucrt:argv_parsing.obj
 0002:0000b814       $unwind$?WriteToStream@CComVariant@ATL@@QEAAJPEAUIStream@@@Z 000000018002f814     Biometrics.obj
 0002:0000b828       $unwind$?RegOpenKeyExW@CAtlTransactionManager@ATL@@QEAAJPEAUHKEY__@@PEB_WKKPEAPEAU3@@Z 000000018002f828     Biometrics.obj
 0002:0000b828       $unwind$?WriteToStream@CComVariant@ATL@@QEAAJPEAUIStream@@G@Z 000000018002f828     Biometrics.obj
 0002:0000b828       $unwind$__dcrt_write_console 000000018002f828     libucrt:initcon.obj
 0002:0000b828       $unwind$??$__acrt_wcs_to_mbs_cp@U__crt_win32_buffer_no_resizing@@@@YAHQEB_WAEAV?$__crt_win32_buffer@DU__crt_win32_buffer_no_resizing@@@@I@Z 000000018002f828     libucrt:getmodulefilenamea.obj
 0002:0000b83c       $unwind$?ReadFromStream@CComVariant@ATL@@QEAAJPEAUIStream@@GTClassesAllowedInStream@2@K@Z 000000018002f83c     Biometrics.obj
 0002:0000b854       $unwind$?GetSizeMax@CComVariant@ATL@@QEBAJPEAT_ULARGE_INTEGER@@@Z 000000018002f854     Biometrics.obj
 0002:0000b86c       $unwind$?RegCreateKeyExW@CAtlTransactionManager@ATL@@QEAAJPEAUHKEY__@@PEB_WKPEA_WKKQEAU_SECURITY_ATTRIBUTES@@PEAPEAU3@PEAK@Z 000000018002f86c     Biometrics.obj
 0002:0000b880       $unwind$?GetGITPtr@CAtlModule@ATL@@UEAAJPEAPEAUIGlobalInterfaceTable@@@Z 000000018002f880     Biometrics.obj
 0002:0000b880       $unwind$?RegDeleteKeyW@CAtlTransactionManager@ATL@@QEAAJPEAUHKEY__@@PEB_W@Z 000000018002f880     Biometrics.obj
 0002:0000b880       $unwind$?getStateFromIterators@UWMap4@FH4@@SAHAEBViterator@12@H0H0@Z 000000018002f880     libvcruntime:frame.obj
 0002:0000b890       $unwind$?AtlHiMetricToPixel@ATL@@YAXPEBUtagSIZE@@PEAU2@@Z 000000018002f890     Biometrics.obj
 0002:0000b890       $unwind$?AtlInternalQueryInterface@ATL@@YAJPEAXPEBU_ATL_INTMAP_ENTRY@1@AEBU_GUID@@PEAPEAX@Z 000000018002f890     Biometrics.obj
 0002:0000b8a8       $unwind$?Append@CParseBuffer@CRegParser@ATL@@QEAAHPEB_WH@Z 000000018002f8a8     Biometrics.obj
 0002:0000b8a8       $unwind$?AtlComModuleGetClassObject@ATL@@YAJPEAU_ATL_COM_MODULE70@1@AEBU_GUID@@1PEAPEAX@Z 000000018002f8a8     Biometrics.obj
 0002:0000b8a8       $unwind$?EnumConnections@?$IConnectionPointImpl@VCOPOSBiometrics@@$1?DIID__IOPOSBiometricsEvents@@3U_GUID@@BVCComDynamicUnkArray@ATL@@@ATL@@UEAAJPEAPEAUIEnumConnections@@@Z 000000018002f8a8     Biometrics.obj
 0002:0000b8a8       $unwind$?EnumConnections@?$IConnectionPointImpl@VCOPOSBiometrics@@$1?IID_IPropertyNotifySink@@3U_GUID@@BVCComDynamicUnkArray@ATL@@@ATL@@UEAAJPEAPEAUIEnumConnections@@@Z 000000018002f8a8     Biometrics.obj
 0002:0000b8a8       $unwind$?GetClassObject@CComModule@ATL@@QEAAJAEBU_GUID@@0PEAPEAX@Z 000000018002f8a8     Biometrics.obj
 0002:0000b8a8       $unwind$?Init@?$CComEnumImpl@UIEnumConnectionPoints@@$1?_GUID_b196b285_bab4_101a_b69c_00aa00341d07@@3U__s_GUID@@BPEAUIConnectionPoint@@V?$_CopyInterface@UIConnectionPoint@@@ATL@@@ATL@@QEAAJPEAPEAUIConnectionPoint@@0PEAUIUnknown@@W4CComEnumFlags@2@@Z 000000018002f8a8     Biometrics.obj
 0002:0000b8a8       $unwind$?Init@?$CComEnumImpl@UIEnumConnections@@$1?_GUID_b196b287_bab4_101a_b69c_00aa00341d07@@3U__s_GUID@@BUtagCONNECTDATA@@V?$_Copy@UtagCONNECTDATA@@@ATL@@@ATL@@QEAAJPEAUtagCONNECTDATA@@0PEAUIUnknown@@W4CComEnumFlags@2@@Z 000000018002f8a8     Biometrics.obj
 0002:0000b8a8       $unwind$?NextToken@CRegParser@ATL@@IEAAJPEA_W@Z 000000018002f8a8     Biometrics.obj
 0002:0000b8a8       $unwind$__acrt_fp_strflt_to_string 000000018002f8a8     libucrt:_fptostr.obj
 0002:0000b8a8       $unwind$__acrt_DownlevelLocaleNameToLCID 000000018002f8a8     libucrt:lcidtoname_downlevel.obj
 0002:0000b8a8       $unwind$??R<lambda_f03950bc5685219e0bcd2087efbe011e>@@QEBAHXZ 000000018002f8a8     libucrt:onexit.obj
 0002:0000b8c0       $unwind$?AtlRegisterClassCategoriesHelper@ATL@@YAJAEBU_GUID@@PEBU_ATL_CATMAP_ENTRY@1@H@Z 000000018002f8c0     Biometrics.obj
 0002:0000b8e4       $unwind$?AtlLoadTypeLib@ATL@@YAJPEAUHINSTANCE__@@PEB_WPEAPEA_WPEAPEAUITypeLib@@@Z 000000018002f8e4     Biometrics.obj
 0002:0000b904       $unwind$?AtlRegisterTypeLib@ATL@@YAJPEAUHINSTANCE__@@PEB_W@Z 000000018002f904     Biometrics.obj
 0002:0000b920       $unwind$?AtlUnRegisterTypeLib@ATL@@YAJPEAUHINSTANCE__@@PEB_W@Z 000000018002f920     Biometrics.obj
 0002:0000b928       $unwind$?GetTI@CComTypeInfoHolder@ATL@@QEAAJK@Z 000000018002f928     Biometrics.obj
 0002:0000b928       $unwind$?RecurseDeleteKey@CRegKey@ATL@@QEAAJPEB_W@Z 000000018002f928     Biometrics.obj
 0002:0000b948       $unwind$?UpdateRegistryFromResource@CAtlModule@ATL@@QEAAJIHPEAU_ATL_REGMAP_ENTRY@2@@Z 000000018002f948     Biometrics.obj
 0002:0000b948       $unwind$?UpdateRegistryFromResource@CAtlModule@ATL@@QEAAJPEB_WHPEAU_ATL_REGMAP_ENTRY@2@@Z 000000018002f948     Biometrics.obj
 0002:0000b968       $unwind$?Lookup@?$CSimpleMap@PEA_WPEA_WVCExpansionVectorEqualHelper@ATL@@@ATL@@QEBAPEA_WAEBQEA_W@Z 000000018002f968     Biometrics.obj
 0002:0000b968       $unwind$__std_exception_copy 000000018002f968     libvcruntime:std_exception.obj
 0002:0000b968       $unwind$_free_osfhnd       000000018002f968     libucrt:osfinfo.obj
 0002:0000b97c       $unwind$?Add@CExpansionVector@ATL@@QEAAHPEB_W0@Z 000000018002f97c     Biometrics.obj
 0002:0000b994       $unwind$?PreProcessBuffer@CRegParser@ATL@@QEAAJPEA_WPEAPEA_W@Z 000000018002f994     Biometrics.obj
 0002:0000b9b8       $unwind$?RegisterBuffer@CRegParser@ATL@@QEAAJPEA_WH@Z 000000018002f9b8     Biometrics.obj
 0002:0000b9d8       $unwind$?AddValue@CRegParser@ATL@@IEAAJAEAVCRegKey@2@PEB_WPEA_W@Z 000000018002f9d8     Biometrics.obj
 0002:0000b9f8       $unwind$?RegisterSubkeys@CRegParser@ATL@@IEAAJPEA_WPEAUHKEY__@@HH@Z 000000018002f9f8     Biometrics.obj
 0002:0000ba18       $unwind$?SkipAssignment@CRegParser@ATL@@IEAAJPEA_W@Z 000000018002fa18     Biometrics.obj
 0002:0000ba30       $unwind$?RegisterFromResource@CRegObject@ATL@@IEAAJPEB_W00H@Z 000000018002fa30     Biometrics.obj
 0002:0000ba50       $unwind$?Cleanup@CComTypeInfoHolder@ATL@@SAX_K@Z 000000018002fa50     Biometrics.obj
 0002:0000ba50       $unwind$AtlThunk_FreeData  000000018002fa50     atls:atlthunk.obj
 0002:0000ba50       $unwind$_free_base         000000018002fa50     libucrt:free_base.obj
 0002:0000ba50       $unwind$?destroy_fls@@YAXPEAX@Z 000000018002fa50     libucrt:per_thread_data.obj
 0002:0000ba50       $unwind$__acrt_locale_free_numeric 000000018002fa50     libucrt:initnum.obj
 0002:0000ba50       $unwind$__acrt_locale_free_lc_time_if_unreferenced 000000018002fa50     libucrt:locale_refcounting.obj
 0002:0000ba58       $unwind$?GetIDsOfNames@CComTypeInfoHolder@ATL@@QEAAJAEBU_GUID@@PEAPEA_WIKPEAJ@Z 000000018002fa58     Biometrics.obj
 0002:0000ba74       $unwind$?LoadNameCache@CComTypeInfoHolder@ATL@@QEAAJPEAUITypeInfo@@@Z 000000018002fa74     Biometrics.obj
 0002:0000ba88       $unwind$?StartWindowProc@?$CWindowImplBaseT@VCWindow@ATL@@V?$CWinTraits@$0FGAAAAAA@$0A@@2@@ATL@@SA_JPEAUHWND__@@I_K_J@Z 000000018002fa88     Biometrics.obj
 0002:0000ba88       $unwind$?should_round_up@@YA_NQEBN_KFW4__acrt_rounding_mode@@@Z 000000018002fa88     libucrt:cvt.obj
 0002:0000ba88       $unwind$??$parse_command_line@D@@YAXPEADPEAPEAD0PEA_K2@Z 000000018002fa88     libucrt:argv_parsing.obj
 0002:0000baa4       $unwind$?WindowProc@?$CWindowImplBaseT@VCWindow@ATL@@V?$CWinTraits@$0FGAAAAAA@$0A@@2@@ATL@@SA_JPEAUHWND__@@I_K_J@Z 000000018002faa4     Biometrics.obj
 0002:0000babc       $unwind$?atlCreate@?$CWindowImplBaseT@VCWindow@ATL@@V?$CWinTraits@$0FGAAAAAA@$0A@@2@@ATL@@QEAAPEAUHWND__@@PEAU3@V_U_RECT@2@PEB_WKKV_U_MENUorID@2@GPEAX@Z 000000018002fabc     Biometrics.obj
 0002:0000bad4       $unwind$??$AtlModuleRegisterWndClassInfoT@VAtlModuleRegisterWndClassInfoParamW@ATL@@@ATL@@YAGPEAU_ATL_BASE_MODULE70@0@PEAU_ATL_WIN_MODULE70@0@PEAU_ATL_WNDCLASSINFOW@0@PEAP6A_JPEAUHWND__@@I_K_J@ZVAtlModuleRegisterWndClassInfoParamW@0@@Z 000000018002fad4     Biometrics.obj
 0002:0000baf4       $unwind$?GetZoomInfo@CComControlBase@ATL@@QEAAXAEAUATL_DRAWINFO@@@Z 000000018002faf4     Biometrics.obj
 0002:0000baf4       $unwind$?OnKillFocus@CComControlBase@ATL@@QEAA_JI_K_JAEAH@Z 000000018002faf4     Biometrics.obj
 0002:0000baf4       $unwind$iswctype           000000018002faf4     libucrt:iswctype.obj
 0002:0000bb00       $unwind$?SendOnDataChange@CComControlBase@ATL@@QEAAJK@Z 000000018002fb00     Biometrics.obj
 0002:0000bb10       $unwind$?OnSetFocus@CComControlBase@ATL@@QEAA_JI_K_JAEAH@Z 000000018002fb10     Biometrics.obj
 0002:0000bb20       $unwind$?OnMouseActivate@CComControlBase@ATL@@QEAA_JI_K_JAEAH@Z 000000018002fb20     Biometrics.obj
 0002:0000bb28       $unwind$?GetAmbientLocaleID@CComControlBase@ATL@@QEAAJAEAK@Z 000000018002fb28     Biometrics.obj
 0002:0000bb28       $unwind$?GetAmbientUserMode@CComControlBase@ATL@@QEAAJAEAH@Z 000000018002fb28     Biometrics.obj
 0002:0000bb38       $unwind$?IQuickActivate_QuickActivate@CComControlBase@ATL@@QEAAJPEAUtagQACONTAINER@@PEAUtagQACONTROL@@@Z 000000018002fb38     Biometrics.obj
 0002:0000bb50       $unwind$?DoVerbProperties@CComControlBase@ATL@@QEAAJPEBUtagRECT@@PEAUHWND__@@@Z 000000018002fb50     Biometrics.obj
 0002:0000bb68       $unwind$?InPlaceActivate@CComControlBase@ATL@@QEAAJJPEBUtagRECT@@@Z 000000018002fb68     Biometrics.obj
 0002:0000bb88       $unwind$?IOleObject_Close@CComControlBase@ATL@@QEAAJK@Z 000000018002fb88     Biometrics.obj
 0002:0000bb88       $unwind$?type_case_c_tchar@?$output_processor@_WV?$string_output_adapter@_W@__crt_stdio_output@@V?$format_validation_base@_WV?$string_output_adapter@_W@__crt_stdio_output@@@2@@__crt_stdio_output@@AEAA_N_W@Z 000000018002fb88     libucrt:output.obj
 0002:0000bb98       $unwind$?IOleInPlaceObject_UIDeactivate@CComControlBase@ATL@@QEAAJXZ 000000018002fb98     Biometrics.obj
 0002:0000bbb0       $unwind$?IOleInPlaceObject_SetObjectRects@CComControlBase@ATL@@QEAAJPEBUtagRECT@@0@Z 000000018002fbb0     Biometrics.obj
 0002:0000bbc4       $unwind$?IViewObject_Draw@CComControlBase@ATL@@QEAAJKJPEAXPEAUtagDVTARGETDEVICE@@PEAUHDC__@@2PEBU_RECTL@@3@Z 000000018002fbc4     Biometrics.obj
 0002:0000bbe0       $unwind$?IDataObject_GetData@CComControlBase@ATL@@QEAAJPEAUtagFORMATETC@@PEAUtagSTGMEDIUM@@@Z 000000018002fbe0     Biometrics.obj
 0002:0000bc00       $unwind$?OnPaint@CComControlBase@ATL@@QEAA_JI_K_JAEAH@Z 000000018002fc00     Biometrics.obj
 0002:0000bc1c       $unwind$?OnDrawAdvanced@CComControlBase@ATL@@UEAAJAEAUATL_DRAWINFO@@@Z 000000018002fc1c     Biometrics.obj
 0002:0000bc38       $unwind$?Invoke@?$IDispatchImpl@UIOPOSBiometrics@@$1?IID_IOPOSBiometrics@@3U_GUID@@B$1?LIBID_OposBiometrics_CCO@@3U3@B$00$0A@VCComTypeInfoHolder@ATL@@@ATL@@UEAAJJAEBU_GUID@@KGPEAUtagDISPPARAMS@@PEAUtagVARIANT@@PEAUtagEXCEPINFO@@PEAI@Z 000000018002fc38     Biometrics.obj
 0002:0000bc38       $unwind$?ReleaseDevice@COPOSBiometrics@@UEAAJPEAJ@Z 000000018002fc38     BiometricsImpl.obj
 0002:0000bc38       $unwind$_mbsdec_l          000000018002fc38     libucrt:mbsdec.obj
 0002:0000bc44       $unwind$?atlCreate@?$CWindowImpl@VCOPOSBiometrics@@VCWindow@ATL@@V?$CWinTraits@$0FGAAAAAA@$0A@@3@@ATL@@QEAAPEAUHWND__@@PEAU3@V_U_RECT@2@PEB_WKKV_U_MENUorID@2@PEAX@Z 000000018002fc44     Biometrics.obj
 0002:0000bc44       $unwind$?fp_format_e@@YAHQEBNQEAD_K12H_NIQEAU__crt_locale_pointers@@W4__acrt_rounding_mode@@@Z 000000018002fc44     libucrt:cvt.obj
 0002:0000bc44       $unwind$_mbtowc_l          000000018002fc44     libucrt:mbtowc.obj
 0002:0000bc44       $unwind$__acrt_LCMapStringEx 000000018002fc44     libucrt:winapi_thunks.obj
 0002:0000bc58       $unwind$?CreateControlWindow@?$CComControl@VCOPOSBiometrics@@V?$CWindowImpl@VCOPOSBiometrics@@VCWindow@ATL@@V?$CWinTraits@$0FGAAAAAA@$0A@@3@@ATL@@@ATL@@UEAAPEAUHWND__@@PEAU3@AEAUtagRECT@@@Z 000000018002fc58     Biometrics.obj
 0002:0000bc58       $unwind$?BeginVerifyCapture@COPOSBiometrics@@UEAAJPEAJ@Z 000000018002fc58     BiometricsImpl.obj
 0002:0000bc58       $unwind$?ClearInput@COPOSBiometrics@@UEAAJPEAJ@Z 000000018002fc58     BiometricsImpl.obj
 0002:0000bc58       $unwind$?ClearInputProperties@COPOSBiometrics@@UEAAJPEAJ@Z 000000018002fc58     BiometricsImpl.obj
 0002:0000bc58       $unwind$?EndCapture@COPOSBiometrics@@UEAAJPEAJ@Z 000000018002fc58     BiometricsImpl.obj
 0002:0000bc58       $unwind$?__scrt_throw_std_bad_alloc@@YAXXZ 000000018002fc58     LIBCMT:throw_bad_alloc.obj
 0002:0000bc58       $unwind$?__scrt_throw_std_bad_array_new_length@@YAXXZ 000000018002fc58     LIBCMT:throw_bad_alloc.obj
 0002:0000bc58       $unwind$_raise_exc         000000018002fc58     libucrt:fpexcept.obj
 0002:0000bc60       $unwind$?GetSizeMax@?$IPersistStreamInitImpl@VCOPOSBiometrics@@@ATL@@UEAAJPEAT_ULARGE_INTEGER@@@Z 000000018002fc60     Biometrics.obj
 0002:0000bc78       $unwind$?IPersistStreamInit_Load@?$IPersistStreamInitImpl@VCOPOSBiometrics@@@ATL@@QEAAJPEAUIStream@@PEBUATL_PROPMAP_ENTRY@2@@Z 000000018002fc78     Biometrics.obj
 0002:0000bc94       $unwind$?IPersistStreamInit_Save@?$IPersistStreamInitImpl@VCOPOSBiometrics@@@ATL@@QEAAJPEAUIStream@@HPEBUATL_PROPMAP_ENTRY@2@@Z 000000018002fc94     Biometrics.obj
 0002:0000bcb0       $unwind$?DoVerbPrimary@?$IOleObjectImpl@VCOPOSBiometrics@@@ATL@@QEAAJPEBUtagRECT@@PEAUHWND__@@@Z 000000018002fcb0     Biometrics.obj
 0002:0000bcc8       $unwind$?TranslateAcceleratorW@?$IOleInPlaceActiveObjectImpl@VCOPOSBiometrics@@@ATL@@UEAAJPEAUtagMSG@@@Z 000000018002fcc8     Biometrics.obj
 0002:0000bcd4       $unwind$?Draw@?$IViewObjectExImpl@VCOPOSBiometrics@@@ATL@@UEAAJKJPEAXPEAUtagDVTARGETDEVICE@@PEAUHDC__@@2PEBU_RECTL@@3P6AH_K@Z4@Z 000000018002fcd4     Biometrics.obj
 0002:0000bcdc       $unwind$?QueryHitRect@?$IViewObjectExImpl@VCOPOSBiometrics@@@ATL@@UEAAJKPEBUtagRECT@@0JPEAK@Z 000000018002fcdc     Biometrics.obj
 0002:0000bcec       $unwind$?OnWindowMessage@?$IOleInPlaceObjectWindowlessImpl@VCOPOSBiometrics@@@ATL@@UEAAJI_K_JPEA_J@Z 000000018002fcec     Biometrics.obj
 0002:0000bd00       $unwind$?EnumConnectionPoints@?$IConnectionPointContainerImpl@VCOPOSBiometrics@@@ATL@@UEAAJPEAPEAUIEnumConnectionPoints@@@Z 000000018002fd00     Biometrics.obj
 0002:0000bd28       $unwind$?FindConnectionPoint@?$IConnectionPointContainerImpl@VCOPOSBiometrics@@@ATL@@UEAAJAEBU_GUID@@PEAPEAUIConnectionPoint@@@Z 000000018002fd28     Biometrics.obj
 0002:0000bd28       $unwind$?__mbrtoc32_utf8@__crt_mbstring@@YA_KPEA_UPEBD_KPEAU_Mbstatet@@@Z 000000018002fd28     libucrt:mbrtoc32.obj
 0002:0000bd44       $unwind$?Load@?$IPersistStorageImpl@VCOPOSBiometrics@@@ATL@@UEAAJPEAUIStorage@@@Z 000000018002fd44     Biometrics.obj
 0002:0000bd54       $unwind$?Save@?$IPersistStorageImpl@VCOPOSBiometrics@@@ATL@@UEAAJPEAUIStorage@@H@Z 000000018002fd54     Biometrics.obj
 0002:0000bd68       $unwind$?IPSI_GetIPersistStreamInit@?$IPersistStorageImpl@VCOPOSBiometrics@@@ATL@@AEAAPEAUIPersistStreamInit@@XZ 000000018002fd68     Biometrics.obj
 0002:0000bd68       $unwind$?parse_int_from_format_string@?$output_processor@_WV?$string_output_adapter@_W@__crt_stdio_output@@V?$format_validation_base@_WV?$string_output_adapter@_W@__crt_stdio_output@@@2@@__crt_stdio_output@@AEAA_NQEAH@Z 000000018002fd68     libucrt:output.obj
 0002:0000bd7c       $unwind$?GetInterfaceSafetyOptions@?$IObjectSafetyImpl@VCOPOSBiometrics@@$02@ATL@@UEAAJAEBU_GUID@@PEAK1@Z 000000018002fd7c     Biometrics.obj
 0002:0000bd90       $unwind$?SetInterfaceSafetyOptions@?$IObjectSafetyImpl@VCOPOSBiometrics@@$02@ATL@@UEAAJAEBU_GUID@@KK@Z 000000018002fd90     Biometrics.obj
 0002:0000bda4       $unwind$?Advise@?$IConnectionPointImpl@VCOPOSBiometrics@@$1?DIID__IOPOSBiometricsEvents@@3U_GUID@@BVCComDynamicUnkArray@ATL@@@ATL@@UEAAJPEAUIUnknown@@PEAK@Z 000000018002fda4     Biometrics.obj
 0002:0000bda4       $unwind$?Advise@?$IConnectionPointImpl@VCOPOSBiometrics@@$1?IID_IPropertyNotifySink@@3U_GUID@@BVCComDynamicUnkArray@ATL@@@ATL@@UEAAJPEAUIUnknown@@PEAK@Z 000000018002fda4     Biometrics.obj
 0002:0000bdb8       $unwind$?Fire_DataEvent@?$CProxy_IOPOSEvents@VCOPOSBiometrics@@@@QEAAXJ@Z 000000018002fdb8     Biometrics.obj
 0002:0000bdb8       $unwind$?Fire_StatusUpdateEvent@?$CProxy_IOPOSEvents@VCOPOSBiometrics@@@@QEAAXJ@Z 000000018002fdb8     Biometrics.obj
 0002:0000bdd0       $unwind$?Fire_DirectIOEvent@?$CProxy_IOPOSEvents@VCOPOSBiometrics@@@@QEAAXJPEAJPEAPEA_W@Z 000000018002fdd0     Biometrics.obj
 0002:0000bdf0       $unwind$?Fire_ErrorEvent@?$CProxy_IOPOSEvents@VCOPOSBiometrics@@@@QEAAXJJJPEAJ@Z 000000018002fdf0     Biometrics.obj
 0002:0000be10       $unwind$?FireTheEvent@?$CProxy_IOPOSEvents@VCOPOSBiometrics@@@@IEAAXPEAVOposVariant@@IAEAJPEB_WJ@Z 000000018002fe10     Biometrics.obj
 0002:0000be20       $unwind$?ProcessWindowMessage@COPOSBiometrics@@UEAAHPEAUHWND__@@I_K_JAEA_JK@Z 000000018002fe20     Biometrics.obj
 0002:0000be20       $unwind$__dcrt_get_narrow_environment_from_os 000000018002fe20     libucrt:get_environment_from_os.obj
 0002:0000be20       $unwind$?fp_format_f_internal@@YAHQEAD_KHQEAU_strflt@@_NQEAU__crt_locale_pointers@@@Z 000000018002fe20     libucrt:cvt.obj
 0002:0000be20       $unwind$??$__acrt_wcs_to_mbs_cp@U__crt_win32_buffer_internal_dynamic_resizing@@@@YAHQEB_WAEAV?$__crt_win32_buffer@DU__crt_win32_buffer_internal_dynamic_resizing@@@@I@Z 000000018002fe20     libucrt:argv_wildcards.obj
 0002:0000be38       $unwind$?SOError@COPOSBiometrics@@MEAAJJJJPEAJ@Z 000000018002fe38     Biometrics.obj
 0002:0000be38       $unwind$_invalid_parameter 000000018002fe38     libucrt:invalid_parameter.obj
 0002:0000be4c       $unwind$?Clone@?$CComEnumImpl@UIEnumConnectionPoints@@$1?_GUID_b196b285_bab4_101a_b69c_00aa00341d07@@3U__s_GUID@@BPEAUIConnectionPoint@@V?$_CopyInterface@UIConnectionPoint@@@ATL@@@ATL@@UEAAJPEAPEAUIEnumConnectionPoints@@@Z 000000018002fe4c     Biometrics.obj
 0002:0000be4c       $unwind$?Clone@?$CComEnumImpl@UIEnumConnections@@$1?_GUID_b196b287_bab4_101a_b69c_00aa00341d07@@3U__s_GUID@@BUtagCONNECTDATA@@V?$_Copy@UtagCONNECTDATA@@@ATL@@@ATL@@UEAAJPEAPEAUIEnumConnections@@@Z 000000018002fe4c     Biometrics.obj
 0002:0000be64       $unwind$?GetOposProp@COPOSBiometrics@@IEAAJJPEAJJ@Z 000000018002fe64     BiometricsImpl.obj
 0002:0000be64       $unwind$?GetOposProp@COPOSBiometrics@@IEAAJJPEAPEA_WJ@Z 000000018002fe64     BiometricsImpl.obj
 0002:0000be7c       $unwind$?SetOposProp@COPOSBiometrics@@IEAAJJJJ@Z 000000018002fe7c     BiometricsImpl.obj
 0002:0000be9c       $unwind$?DoInvoke@COPOSBiometrics@@IEAAJJPEAVOposVariant@@IHPEAJ_N@Z 000000018002fe9c     BiometricsImpl.obj
 0002:0000beb4       $unwind$?SetCOFreezeEvents@COPOSBiometrics@@IEAAXF@Z 000000018002feb4     BiometricsImpl.obj
 0002:0000bec8       $unwind$?OnDraw@COPOSBiometrics@@MEAAJAEAUATL_DRAWINFO@@@Z 000000018002fec8     BiometricsImpl.obj
 0002:0000bee0       $unwind$?EventInit@COPOSBiometrics@@IEAAJXZ 000000018002fee0     BiometricsImpl.obj
 0002:0000bef4       $unwind$?EventWindowProc@COPOSBiometrics@@IEAA_JI_K_J@Z 000000018002fef4     BiometricsImpl.obj
 0002:0000bef4       $unwind$__stdio_common_vswprintf_s 000000018002fef4     libucrt:output.obj
 0002:0000bf00       $unwind$?get_ControlObjectDescription@COPOSBiometrics@@UEAAJPEAPEA_W@Z 000000018002ff00     BiometricsImpl.obj
 0002:0000bf00       $unwind$__dcrt_lowio_ensure_console_output_initialized 000000018002ff00     libucrt:initcon.obj
 0002:0000bf00       $unwind$_isleadbyte_l      000000018002ff00     libucrt:_wctype.obj
 0002:0000bf00       $unwind$?getSystemCP@@YAHH@Z 000000018002ff00     libucrt:mbctype.obj
 0002:0000bf08       $unwind$?CheckHealth@COPOSBiometrics@@UEAAJJPEAJ@Z 000000018002ff08     BiometricsImpl.obj
 0002:0000bf08       $unwind$?ResetStatistics@COPOSBiometrics@@UEAAJPEA_WPEAJ@Z 000000018002ff08     BiometricsImpl.obj
 0002:0000bf08       $unwind$?RetrieveStatistics@COPOSBiometrics@@UEAAJPEAPEA_WPEAJ@Z 000000018002ff08     BiometricsImpl.obj
 0002:0000bf08       $unwind$?UpdateFirmware@COPOSBiometrics@@UEAAJPEA_WPEAJ@Z 000000018002ff08     BiometricsImpl.obj
 0002:0000bf08       $unwind$?UpdateStatistics@COPOSBiometrics@@UEAAJPEA_WPEAJ@Z 000000018002ff08     BiometricsImpl.obj
 0002:0000bf18       $unwind$?ClaimDevice@COPOSBiometrics@@UEAAJJPEAJ@Z 000000018002ff18     BiometricsImpl.obj
 0002:0000bf28       $unwind$?Close@COPOSBiometrics@@UEAAJPEAJ@Z 000000018002ff28     BiometricsImpl.obj
 0002:0000bf34       $unwind$?DirectIO@COPOSBiometrics@@UEAAJJPEAJPEAPEA_W0@Z 000000018002ff34     BiometricsImpl.obj
 0002:0000bf50       $unwind$?Open@COPOSBiometrics@@UEAAJPEA_WPEAJ@Z 000000018002ff50     BiometricsImpl.obj
 0002:0000bf74       $unwind$?BeginEnrollCapture@COPOSBiometrics@@UEAAJPEA_W0PEAJ@Z 000000018002ff74     BiometricsImpl.obj
 0002:0000bf74       $unwind$?CompareFirmwareVersion@COPOSBiometrics@@UEAAJPEA_WPEAJ1@Z 000000018002ff74     BiometricsImpl.obj
 0002:0000bf74       $unwind$?initialize_inherited_file_handles_nolock@@YAXXZ 000000018002ff74     libucrt:ioinit.obj
 0002:0000bf90       $unwind$?Identify@COPOSBiometrics@@UEAAJJJFUtagVARIANT@@PEAU2@JPEAJ@Z 000000018002ff90     BiometricsImpl.obj
 0002:0000bf90       $unwind$?IdentifyMatch@COPOSBiometrics@@UEAAJJJFPEA_WUtagVARIANT@@PEAU2@PEAJ@Z 000000018002ff90     BiometricsImpl.obj
 0002:0000bfb0       $unwind$?ProcessPrematchData@COPOSBiometrics@@UEAAJPEA_W0PEAPEA_WPEAJ@Z 000000018002ffb0     BiometricsImpl.obj
 0002:0000bfd0       $unwind$?Verify@COPOSBiometrics@@UEAAJJJFPEA_WPEAPEA_WPEAFPEAJ31J3@Z 000000018002ffd0     BiometricsImpl.obj
 0002:0000bfd0       $unwind$?VerifyMatch@COPOSBiometrics@@UEAAJJJFPEA_W0PEAPEA_WPEAFPEAJ313@Z 000000018002ffd0     BiometricsImpl.obj
 0002:0000bff0       $unwind$__scrt_is_nonwritable_in_current_image 000000018002fff0     LIBCMT:utility.obj
 0002:0000c010       $unwind$__scrt_is_nonwritable_in_current_image$filt$0 0000000180030010     LIBCMT:utility.obj
 0002:0000c018       $unwind$__report_securityfailure 0000000180030018     LIBCMT:gs_report.obj
 0002:0000c020       $unwind$__report_gsfailure 0000000180030020     LIBCMT:gs_report.obj
 0002:0000c028       $unwind$capture_current_context 0000000180030028     LIBCMT:gs_report.obj
 0002:0000c034       $unwind$capture_previous_context 0000000180030034     LIBCMT:gs_report.obj
 0002:0000c040       $unwind$??2@YAPEAX_KAEBUnothrow_t@std@@@Z 0000000180030040     LIBCMT:new_scalar_nothrow.obj
 0002:0000c050       $cppxdata$??2@YAPEAX_KAEBUnothrow_t@std@@@Z 0000000180030050     LIBCMT:new_scalar_nothrow.obj
 0002:0000c05d       $stateUnwindMap$??2@YAPEAX_KAEBUnothrow_t@std@@@Z 000000018003005d     LIBCMT:new_scalar_nothrow.obj
 0002:0000c060       $tryMap$??2@YAPEAX_KAEBUnothrow_t@std@@@Z 0000000180030060     LIBCMT:new_scalar_nothrow.obj
 0002:0000c068       $handlerMap$??2@YAPEAX_KAEBUnothrow_t@std@@@Z 0000000180030068     LIBCMT:new_scalar_nothrow.obj
 0002:0000c070       $ip2state$??2@YAPEAX_KAEBUnothrow_t@std@@@Z 0000000180030070     LIBCMT:new_scalar_nothrow.obj
 0002:0000c074       $unwind$?catch$0@?0???2@YAPEAX_KAEBUnothrow_t@std@@@Z@4HA 0000000180030074     LIBCMT:new_scalar_nothrow.obj
 0002:0000c084       $cppxdata$?catch$0@?0???2@YAPEAX_KAEBUnothrow_t@std@@@Z@4HA 0000000180030084     LIBCMT:new_scalar_nothrow.obj
 0002:0000c08e       $stateUnwindMap$?catch$0@?0???2@YAPEAX_KAEBUnothrow_t@std@@@Z@4HA 000000018003008e     LIBCMT:new_scalar_nothrow.obj
 0002:0000c090       $ip2state$?catch$0@?0???2@YAPEAX_KAEBUnothrow_t@std@@@Z@4HA 0000000180030090     LIBCMT:new_scalar_nothrow.obj
 0002:0000c094       $unwind$__GSHandlerCheckCommon 0000000180030094     LIBCMT:gshandler.obj
 0002:0000c0a0       $xdatasym                  00000001800300a0     LIBCMT:chkstk.obj
 0002:0000c0a8       $xdatasym                  00000001800300a8     LIBCMT:amdsecgs.obj
 0002:0000c0ac       $unwind$?dllmain_crt_process_attach@@YAHQEAUHINSTANCE__@@QEAX@Z 00000001800300ac     LIBCMT:dll_dllmain.obj
 0002:0000c0e8       $unwind$?dllmain_crt_process_detach@@YAH_N@Z 00000001800300e8     LIBCMT:dll_dllmain.obj
 0002:0000c13c       $unwind$?dllmain_dispatch@@YAHQEAUHINSTANCE__@@KQEAX@Z 000000018003013c     LIBCMT:dll_dllmain.obj
 0002:0000c164       $unwind$?filt$0@?0??dllmain_dispatch@@YAHQEAUHINSTANCE__@@KQEAX@Z@4HA 0000000180030164     LIBCMT:dll_dllmain.obj
 0002:0000c164       $unwind$?filt$0@?0??FrameUnwindToState@__FrameHandler4@@SAXPEA_KPEAU_xDISPATCHER_CONTEXT@@PEAUFuncInfo4@FH4@@H@Z@4HA 0000000180030164     libvcruntime:frame.obj
 0002:0000c164       $unwind$?fin$1@?0??FrameUnwindToState@__FrameHandler4@@SAXPEA_KPEAU_xDISPATCHER_CONTEXT@@PEAUFuncInfo4@FH4@@H@Z@4HA 0000000180030164     libvcruntime:frame.obj
 0002:0000c16c       $unwind$__isa_available_init 000000018003016c     LIBCMT:cpu_disp.obj
 0002:0000c17c       $unwind$__scrt_fastfail    000000018003017c     LIBCMT:utility_desktop.obj
 0002:0000c18c       $unwind$__security_init_cookie 000000018003018c     LIBCMT:gs_support.obj
 0002:0000c198       $xdatasym                  0000000180030198     LIBCMT:guard_dispatch.obj
 0002:0000c1a0       $xdatasym                  00000001800301a0     LIBCMT:guard_xfg_dispatch.obj
 0002:0000c1a4       $unwind$AtlThunk_InitData  00000001800301a4     atls:atlthunk.obj
 0002:0000c1b8       $unwind$wcsstr             00000001800301b8     libvcruntime:wcsstr.obj
 0002:0000c1d0       $xdatasym                  00000001800301d0     libvcruntime:memcmp.obj
 0002:0000c1d8       $xdatasym                  00000001800301d8     libvcruntime:memcpy.obj
 0002:0000c1e8       $xdatasym                  00000001800301e8     libvcruntime:memset.obj
 0002:0000c1f8       $unwind$__C_specific_handler 00000001800301f8     libvcruntime:riscchandler.obj
 0002:0000c214       $unwind$?DecompFuncInfo@FH4@@YA_JPEAEAEAUFuncInfo4@1@_KH_N@Z 0000000180030214     libvcruntime:risctrnsctrl.obj
 0002:0000c22c       $unwind$?UnwindNestedFrames@__FrameHandler4@@SAXPEA_KPEAUEHExceptionRecord@@PEAU_CONTEXT@@0PEAXPEAUFuncInfo4@FH4@@HHPEAUHandlerType4@5@PEAU_xDISPATCHER_CONTEXT@@E@Z 000000018003022c     libvcruntime:risctrnsctrl.obj
 0002:0000c240       $unwind$?GetRangeOfTrysToCheck@__FrameHandler4@@SA?AU?$pair@Viterator@TryBlockMap4@FH4@@V123@@std@@AEAVTryBlockMap4@FH4@@HPEAU_xDISPATCHER_CONTEXT@@PEAUFuncInfo4@5@H@Z 0000000180030240     libvcruntime:risctrnsctrl.obj
 0002:0000c25c       $unwind$__CxxFrameHandler4 000000018003025c     libvcruntime:risctrnsctrl.obj
 0002:0000c270       $unwind$??$_CallSETranslator@V__FrameHandler4@@@@YAHPEAUEHExceptionRecord@@PEA_KPEAU_CONTEXT@@PEAU_xDISPATCHER_CONTEXT@@PEAUFuncInfo4@FH4@@K1H@Z 0000000180030270     libvcruntime:risctrnsctrl.obj
 0002:0000c290       $unwind$?filt$0@?0???$_CallSETranslator@V__FrameHandler4@@@@YAHPEAUEHExceptionRecord@@PEA_KPEAU_CONTEXT@@PEAU_xDISPATCHER_CONTEXT@@PEAUFuncInfo4@FH4@@K1H@Z@4HA 0000000180030290     libvcruntime:risctrnsctrl.obj
 0002:0000c29c       $unwind$__DestructExceptionObject 000000018003029c     libvcruntime:ehhelpers.obj
 0002:0000c2bc       $unwind$__DestructExceptionObject$filt$0 00000001800302bc     libvcruntime:ehhelpers.obj
 0002:0000c2bc       $unwind$?fin$1@?0??CxxCallCatchBlock@__FrameHandler4@@SAPEAXPEAU_EXCEPTION_RECORD@@@Z@4HA 00000001800302bc     libvcruntime:frame.obj
 0002:0000c2c8       $unwind$_CxxThrowException 00000001800302c8     libvcruntime:throw.obj
 0002:0000c2d8       $xdatasym                  00000001800302d8     libvcruntime:notify.obj
 0002:0000c2e4       $unwind$?StateFromIp@__FrameHandler4@@SAHPEAUFuncInfo4@FH4@@PEAU_xDISPATCHER_CONTEXT@@_K@Z 00000001800302e4     libvcruntime:ehstate.obj
 0002:0000c2f8       $unwind$?getStartStop@UWMap4@FH4@@QEAAXHHAEAViterator@12@0@Z 00000001800302f8     libvcruntime:frame.obj
 0002:0000c310       $unwind$?FrameUnwindToState@__FrameHandler4@@SAXPEA_KPEAU_xDISPATCHER_CONTEXT@@PEAUFuncInfo4@FH4@@H@Z 0000000180030310     libvcruntime:frame.obj
 0002:0000c358       $unwind$?CxxCallCatchBlock@__FrameHandler4@@SAPEAXPEAU_EXCEPTION_RECORD@@@Z 0000000180030358     libvcruntime:frame.obj
 0002:0000c3b4       $unwind$?IsInExceptionSpec@@YAEPEAUEHExceptionRecord@@PEBU_s_ESTypeList@@@Z 00000001800303b4     libvcruntime:frame.obj
 0002:0000c3d0       $unwind$??$__InternalCxxFrameHandler@V__FrameHandler4@@@@YA?AW4_EXCEPTION_DISPOSITION@@PEAUEHExceptionRecord@@PEA_KPEAU_CONTEXT@@PEAU_xDISPATCHER_CONTEXT@@PEAUFuncInfo4@FH4@@H1E@Z 00000001800303d0     libvcruntime:frame.obj
 0002:0000c3e8       $unwind$??$BuildCatchObjectHelperInternal@V__FrameHandler4@@@@YAHPEAUEHExceptionRecord@@PEAXPEAUHandlerType4@FH4@@PEBU_s_CatchableType@@@Z 00000001800303e8     libvcruntime:frame.obj
 0002:0000c428       $unwind$??$BuildCatchObjectInternal@V__FrameHandler4@@@@YAXPEAUEHExceptionRecord@@PEAXPEAUHandlerType4@FH4@@PEBU_s_CatchableType@@@Z 0000000180030428     libvcruntime:frame.obj
 0002:0000c454       $unwind$??$FindHandler@V__FrameHandler4@@@@YAXPEAUEHExceptionRecord@@PEA_KPEAU_CONTEXT@@PEAU_xDISPATCHER_CONTEXT@@PEAUFuncInfo4@FH4@@EH1@Z 0000000180030454     libvcruntime:frame.obj
 0002:0000c474       $unwind$??$CatchIt@V__FrameHandler4@@@@YAXPEAUEHExceptionRecord@@PEA_KPEAU_CONTEXT@@PEAU_xDISPATCHER_CONTEXT@@PEAUFuncInfo4@FH4@@PEAUHandlerType4@4@PEBU_s_CatchableType@@PEAUTryBlockMapEntry4@4@H1EE@Z 0000000180030474     libvcruntime:frame.obj
 0002:0000c48c       $unwind$??$FindHandlerForForeignException@V__FrameHandler4@@@@YAXPEAUEHExceptionRecord@@PEA_KPEAU_CONTEXT@@PEAU_xDISPATCHER_CONTEXT@@PEAUFuncInfo4@FH4@@HH1@Z 000000018003048c     libvcruntime:frame.obj
 0002:0000c4ac       $unwind$?try_get_function@@YAPEAXW4function_id@?A0x5302d918@@QEBDQEBW4module_id@2@2@Z 00000001800304ac     libvcruntime:winapi_downlevel.obj
 0002:0000c4ac       $unwind$?try_get_function@@YAPEAXW4function_id@?A0x391cf84c@@QEBDQEBW4module_id@2@2@Z 00000001800304ac     libucrt:winapi_thunks.obj
 0002:0000c4c8       $xdatasym                  00000001800304c8     libvcruntime:handlers.obj
 0002:0000c4e8       $unwind$__acrt_call_reportfault 00000001800304e8     libucrt:invalid_parameter.obj
 0002:0000c508       $unwind$_resetstkoflw      0000000180030508     libucrt:resetstk.obj
 0002:0000c52c       $unwind$?write_string@?$string_output_adapter@_W@__crt_stdio_output@@QEBAXQEB_WHQEAHAEAV__crt_deferred_errno_cache@@@Z 000000018003052c     libucrt:output.obj
 0002:0000c544       $unwind$??$common_vsprintf@Vformat_validation_base@__crt_stdio_output@@_W@@YAH_KQEA_W0QEB_WQEAU__crt_locale_pointers@@QEAD@Z 0000000180030544     libucrt:output.obj
 0002:0000c564       $unwind$??$write_multiple_characters@V?$string_output_adapter@_W@__crt_stdio_output@@D@__crt_stdio_output@@YAXAEBV?$string_output_adapter@_W@0@DHQEAH@Z 0000000180030564     libucrt:output.obj
 0002:0000c570       $unwind$?state_case_type@?$output_processor@_WV?$string_output_adapter@_W@__crt_stdio_output@@V?$format_validation_base@_WV?$string_output_adapter@_W@__crt_stdio_output@@@2@@__crt_stdio_output@@AEAA_NXZ 0000000180030570     libucrt:output.obj
 0002:0000c594       $unwind$?type_case_a@?$output_processor@_WV?$string_output_adapter@_W@__crt_stdio_output@@V?$format_validation_base@_WV?$string_output_adapter@_W@__crt_stdio_output@@@2@@__crt_stdio_output@@AEAA_NXZ 0000000180030594     libucrt:output.obj
 0002:0000c5a4       $unwind$?write_stored_string_tchar@?$output_processor@_WV?$string_output_adapter@_W@__crt_stdio_output@@V?$format_validation_base@_WV?$string_output_adapter@_W@__crt_stdio_output@@@2@@__crt_stdio_output@@AEAA_N_W@Z 00000001800305a4     libucrt:output.obj
 0002:0000c5b8       $unwind$??$type_case_integer_parse_into_buffer@I@?$output_processor@_WV?$string_output_adapter@_W@__crt_stdio_output@@V?$format_validation_base@_WV?$string_output_adapter@_W@__crt_stdio_output@@@2@@__crt_stdio_output@@AEAAXII_N@Z 00000001800305b8     libucrt:output.obj
 0002:0000c5b8       $unwind$??$type_case_integer_parse_into_buffer@_K@?$output_processor@_WV?$string_output_adapter@_W@__crt_stdio_output@@V?$format_validation_base@_WV?$string_output_adapter@_W@__crt_stdio_output@@@2@@__crt_stdio_output@@AEAAX_KI_N@Z 00000001800305b8     libucrt:output.obj
 0002:0000c5c0       $unwind$?common_exit@@YAXHW4_crt_exit_cleanup_mode@@W4_crt_exit_return_mode@@@Z 00000001800305c0     libucrt:exit.obj
 0002:0000c5cc       $unwind$??R<lambda_6e4b09c48022b2350581041d5f6b0c4c>@@QEBA@XZ 00000001800305cc     libucrt:exit.obj
 0002:0000c5ec       $unwind$??$?RV<lambda_d80eeec6fff315bfe5c115232f3240e3>@@AEAV<lambda_6e4b09c48022b2350581041d5f6b0c4c>@@V<lambda_2358e3775559c9db80273638284d5e45>@@@?$__crt_seh_guarded_call@X@@QEAAX$$QEAV<lambda_d80eeec6fff315bfe5c115232f3240e3>@@AEAV<lambda_6e4b09c48022b2350581041d5f6b0c4c>@@$$QEAV<lambda_2358e3775559c9db80273638284d5e45>@@@Z 00000001800305ec     libucrt:exit.obj
 0002:0000c610       $unwind$??$free_environment@D@@YAXQEAPEAD@Z 0000000180030610     libucrt:environment_initialization.obj
 0002:0000c610       $unwind$??$free_environment@_W@@YAXQEAPEA_W@Z 0000000180030610     libucrt:environment_initialization.obj
 0002:0000c61c       $unwind$??$create_environment@D@@YAQEAPEADQEAD@Z 000000018003061c     libucrt:environment_initialization.obj
 0002:0000c634       $unwind$_register_onexit_function 0000000180030634     libucrt:onexit.obj
 0002:0000c63c       $unwind$_execute_onexit_table 000000018003063c     libucrt:onexit.obj
 0002:0000c644       $unwind$??R<lambda_22ebabd17bc4fa466a2aca6d8deb888d>@@QEBAHXZ 0000000180030644     libucrt:onexit.obj
 0002:0000c65c       $unwind$??$?RV<lambda_638799b9deba96c50f710eeac98168cd>@@AEAV<lambda_22ebabd17bc4fa466a2aca6d8deb888d>@@V<lambda_a6f7d7db0129f75315ebf26d50c089f1>@@@?$__crt_seh_guarded_call@H@@QEAAH$$QEAV<lambda_638799b9deba96c50f710eeac98168cd>@@AEAV<lambda_22ebabd17bc4fa466a2aca6d8deb888d>@@$$QEAV<lambda_a6f7d7db0129f75315ebf26d50c089f1>@@@Z 000000018003065c     libucrt:onexit.obj
 0002:0000c680       $unwind$??$?RV<lambda_7777bce6b2f8c936911f934f8298dc43>@@AEAV<lambda_f03950bc5685219e0bcd2087efbe011e>@@V<lambda_3883c3dff614d5e0c5f61bb1ac94921c>@@@?$__crt_seh_guarded_call@H@@QEAAH$$QEAV<lambda_7777bce6b2f8c936911f934f8298dc43>@@AEAV<lambda_f03950bc5685219e0bcd2087efbe011e>@@$$QEAV<lambda_3883c3dff614d5e0c5f61bb1ac94921c>@@@Z 0000000180030680     libucrt:onexit.obj
 0002:0000c6a4       $unwind$_query_new_handler 00000001800306a4     libucrt:new_handler.obj
 0002:0000c6c4       $unwind$terminate          00000001800306c4     libucrt:terminate.obj
 0002:0000c6e4       $unwind$??$parse_integer@KV?$c_string_character_source@_W@__crt_strtox@@@__crt_strtox@@YAKQEAU__crt_locale_pointers@@V?$c_string_character_source@_W@0@H_N@Z 00000001800306e4     libucrt:atox.obj
 0002:0000c700       $xdatasym                  0000000180030700     libucrt:strncmp.obj
 0002:0000c704       $unwind$?construct_ptd_array@@YAXQEAU__acrt_ptd@@@Z 0000000180030704     libucrt:per_thread_data.obj
 0002:0000c70c       $unwind$?destroy_ptd_array@@YAXQEAU__acrt_ptd@@@Z 000000018003070c     libucrt:per_thread_data.obj
 0002:0000c714       $unwind$??$?RV<lambda_0ae27a3a962d80f24befdcbee591983d>@@AEAV<lambda_8d0ee55de4b1038c4002e0adecdf1839>@@V<lambda_dc504788e8f1664fe9b84e20bfb512f2>@@@?$__crt_seh_guarded_call@X@@QEAAX$$QEAV<lambda_0ae27a3a962d80f24befdcbee591983d>@@AEAV<lambda_8d0ee55de4b1038c4002e0adecdf1839>@@$$QEAV<lambda_dc504788e8f1664fe9b84e20bfb512f2>@@@Z 0000000180030714     libucrt:per_thread_data.obj
 0002:0000c738       $unwind$??$?RV<lambda_aa87e3671a710a21b5dc78c0bdf72e11>@@AEAV<lambda_92619d2358a28f41a33ba319515a20b9>@@V<lambda_6992ecaafeb10aed2b74cb1fae11a551>@@@?$__crt_seh_guarded_call@X@@QEAAX$$QEAV<lambda_aa87e3671a710a21b5dc78c0bdf72e11>@@AEAV<lambda_92619d2358a28f41a33ba319515a20b9>@@$$QEAV<lambda_6992ecaafeb10aed2b74cb1fae11a551>@@@Z 0000000180030738     libucrt:per_thread_data.obj
 0002:0000c75c       $unwind$??$?RV<lambda_f2e299630e499de9f9a165e60fcd3db5>@@AEAV<lambda_2ae9d31cdba2644fcbeaf08da7c24588>@@V<lambda_40d01ff24d0e7b3814fdbdcee8eab3c7>@@@?$__crt_seh_guarded_call@X@@QEAAX$$QEAV<lambda_f2e299630e499de9f9a165e60fcd3db5>@@AEAV<lambda_2ae9d31cdba2644fcbeaf08da7c24588>@@$$QEAV<lambda_40d01ff24d0e7b3814fdbdcee8eab3c7>@@@Z 000000018003075c     libucrt:per_thread_data.obj
 0002:0000c780       $unwind$??$?RV<lambda_2d41944a1d46af3157314b8a01080d33>@@AEAV<lambda_8f455de75cd7d7f24b4096f044d8b9e6>@@V<lambda_aa500f224e6afead328df44964fe2772>@@@?$__crt_seh_guarded_call@X@@QEAAX$$QEAV<lambda_2d41944a1d46af3157314b8a01080d33>@@AEAV<lambda_8f455de75cd7d7f24b4096f044d8b9e6>@@$$QEAV<lambda_aa500f224e6afead328df44964fe2772>@@@Z 0000000180030780     libucrt:per_thread_data.obj
 0002:0000c7a4       $unwind$__acrt_initialize_winapi_thunks 00000001800307a4     libucrt:winapi_thunks.obj
 0002:0000c7ac       $unwind$__acrt_fp_format   00000001800307ac     libucrt:cvt.obj
 0002:0000c7c4       $unwind$?fp_format_e_internal@@YAHQEAD_KH_NIQEAU_strflt@@2QEAU__crt_locale_pointers@@@Z 00000001800307c4     libucrt:cvt.obj
 0002:0000c7dc       $unwind$?fp_format_a@@YAHQEBNPEAD_KQEAD2H_NIQEAU__crt_locale_pointers@@W4__acrt_rounding_mode@@@Z 00000001800307dc     libucrt:cvt.obj
 0002:0000c7f8       $unwind$?fp_format_g@@YAHQEBNQEAD_K12H_NIQEAU__crt_locale_pointers@@@Z 00000001800307f8     libucrt:cvt.obj
 0002:0000c80c       $unwind$__acrt_uninitialize_locale 000000018003080c     libucrt:wsetlocale.obj
 0002:0000c80c       $unwind$__acrt_get_sigabrt_handler 000000018003080c     libucrt:signal.obj
 0002:0000c814       $unwind$??$?RV<lambda_410d79af7f07d98d83a3f525b3859a53>@@AEAV<lambda_3e16ef9562a7dcce91392c22ab16ea36>@@V<lambda_38119f0e861e05405d8a144b9b982f0a>@@@?$__crt_seh_guarded_call@X@@QEAAX$$QEAV<lambda_410d79af7f07d98d83a3f525b3859a53>@@AEAV<lambda_3e16ef9562a7dcce91392c22ab16ea36>@@$$QEAV<lambda_38119f0e861e05405d8a144b9b982f0a>@@@Z 0000000180030814     libucrt:wsetlocale.obj
 0002:0000c83c       $unwind$__acrt_initialize_lowio 000000018003083c     libucrt:ioinit.obj
 0002:0000c85c       $unwind$??$common_expand_argv_wildcards@D@@YAHQEAPEADQEAPEAPEAD@Z 000000018003085c     libucrt:argv_wildcards.obj
 0002:0000c874       $unwind$??$copy_and_add_argument_to_buffer@D@@YAHQEBD0_KAEAV?$argument_list@D@?A0x5f5c8891@@@Z 0000000180030874     libucrt:argv_wildcards.obj
 0002:0000c890       $unwind$??$expand_argument_wildcards@D@@YAHQEAD0AEAV?$argument_list@D@?A0x5f5c8891@@@Z 0000000180030890     libucrt:argv_wildcards.obj
 0002:0000c8b4       $unwind$__acrt_GetModuleFileNameA 00000001800308b4     libucrt:getmodulefilenamea.obj
 0002:0000c8d0       $unwind$_setmbcp_nolock    00000001800308d0     libucrt:mbctype.obj
 0002:0000c8f0       $unwind$?update_thread_multibyte_data_internal@@YAPEAU__crt_multibyte_data@@QEAU__acrt_ptd@@QEAPEAU1@@Z 00000001800308f0     libucrt:mbctype.obj
 0002:0000c918       $unwind$?setmbcp_internal@@YAHH_NQEAU__acrt_ptd@@QEAPEAU__crt_multibyte_data@@@Z 0000000180030918     libucrt:mbctype.obj
 0002:0000c928       $unwind$?setSBUpLow@@YAXPEAU__crt_multibyte_data@@@Z 0000000180030928     libucrt:mbctype.obj
 0002:0000c944       $unwind$??$?RV<lambda_efdfa57d1f175319df784efa44bb7b81>@@AEAV<lambda_5f0a4c1567f8adc6734073e5d1e1b35c>@@V<lambda_2e8a7d3640ea6ccb4c2413664c2db6fd>@@@?$__crt_seh_guarded_call@X@@QEAAX$$QEAV<lambda_efdfa57d1f175319df784efa44bb7b81>@@AEAV<lambda_5f0a4c1567f8adc6734073e5d1e1b35c>@@$$QEAV<lambda_2e8a7d3640ea6ccb4c2413664c2db6fd>@@@Z 0000000180030944     libucrt:mbctype.obj
 0002:0000c968       $unwind$__acrt_WideCharToMultiByte 0000000180030968     libucrt:widechartomultibyte.obj
 0002:0000c974       $unwind$raise              0000000180030974     libucrt:signal.obj
 0002:0000c9b0       $unwind$??$?RV<lambda_450d765d439847d4c735a33c368b5fc0>@@AEAV<lambda_44731a7d0e6d81c3e6aa82d741081786>@@V<lambda_601a2a7da3b7a96e9554ac7215c4b07c>@@@?$__crt_seh_guarded_call@P6AXH@Z@@QEAAP6AXH@Z$$QEAV<lambda_450d765d439847d4c735a33c368b5fc0>@@AEAV<lambda_44731a7d0e6d81c3e6aa82d741081786>@@$$QEAV<lambda_601a2a7da3b7a96e9554ac7215c4b07c>@@@Z 00000001800309b0     libucrt:signal.obj
 0002:0000c9d4       $unwind$?common_flush_all@@YAH_N@Z 00000001800309d4     libucrt:fflush.obj
 0002:0000c9dc       $unwind$??$?RV<lambda_842d9ff0dc9ef11c61343bbaebe7f885>@@AEAV<lambda_c5860995281e5c4ce005b3de8f5874ee>@@V<lambda_d90129c13df834fdcbf8d2b88dafcf2d>@@@?$__crt_seh_guarded_call@X@@QEAAX$$QEAV<lambda_842d9ff0dc9ef11c61343bbaebe7f885>@@AEAV<lambda_c5860995281e5c4ce005b3de8f5874ee>@@$$QEAV<lambda_d90129c13df834fdcbf8d2b88dafcf2d>@@@Z 00000001800309dc     libucrt:fflush.obj
 0002:0000ca00       $unwind$??$?RV<lambda_886d6c58226a84441f68b9f2b8217b83>@@AEAV<lambda_ab61a845afdef5b7c387490eaf3616ee>@@V<lambda_f7f22ab5edc0698d5f6905b0d3f44752>@@@?$__crt_seh_guarded_call@X@@QEAAX$$QEAV<lambda_886d6c58226a84441f68b9f2b8217b83>@@AEAV<lambda_ab61a845afdef5b7c387490eaf3616ee>@@$$QEAV<lambda_f7f22ab5edc0698d5f6905b0d3f44752>@@@Z 0000000180030a00     libucrt:fflush.obj
 0002:0000ca28       $unwind$__acrt_update_thread_locale_data 0000000180030a28     libucrt:locale_refcounting.obj
 0002:0000ca4c       $unwind$?__mbrtowc_utf8@__crt_mbstring@@YA_KPEA_WPEBD_KPEAU_Mbstatet@@@Z 0000000180030a4c     libucrt:mbrtowc.obj
 0002:0000ca54       $unwind$?__mbsrtowcs_utf8@__crt_mbstring@@YA_KPEA_WPEAPEBD_KPEAU_Mbstatet@@@Z 0000000180030a54     libucrt:mbrtowc.obj
 0002:0000ca6c       $unwind$__acrt_fltout      0000000180030a6c     libucrt:cfout.obj
 0002:0000ca8c       $unwind$?divide@__crt_strtox@@YA_KAEAUbig_integer@1@AEBU21@@Z 0000000180030a8c     libucrt:cfout.obj
 0002:0000caa4       $chain$0$?divide@__crt_strtox@@YA_KAEAUbig_integer@1@AEBU21@@Z 0000000180030aa4     libucrt:cfout.obj
 0002:0000cab8       $chain$1$?divide@__crt_strtox@@YA_KAEAUbig_integer@1@AEBU21@@Z 0000000180030ab8     libucrt:cfout.obj
 0002:0000cac8       $unwind$_fcloseall         0000000180030ac8     libucrt:closeall.obj
 0002:0000caec       $unwind$__acrt_locale_free_monetary 0000000180030aec     libucrt:initmon.obj
 0002:0000caf4       $unwind$__acrt_locale_free_time 0000000180030af4     libucrt:inittime.obj
 0002:0000cb04       $unwind$__acrt_GetStringTypeA 0000000180030b04     libucrt:getstringtypea.obj
 0002:0000cb2c       $unwind$__acrt_lowio_destroy_handle_array 0000000180030b2c     libucrt:osfinfo.obj
 0002:0000cb3c       $unwind$__acrt_lowio_ensure_fh_exists 0000000180030b3c     libucrt:osfinfo.obj
 0002:0000cb68       $unwind$qsort              0000000180030b68     libucrt:qsort.obj
 0002:0000cb80       $chain$4$qsort             0000000180030b80     libucrt:qsort.obj
 0002:0000cba4       $chain$5$qsort             0000000180030ba4     libucrt:qsort.obj
 0002:0000cbb4       $unwind$strpbrk            0000000180030bb4     libucrt:strpbrk.obj
 0002:0000cbc4       $unwind$fallbackMethod     0000000180030bc4     libucrt:strpbrk.obj
 0002:0000cbd4       $unwind$__acrt_LCMapStringA 0000000180030bd4     libucrt:lcmapstringa.obj
 0002:0000cbe4       $unwind$?__acrt_LCMapStringA_stat@@YAHPEAU__crt_locale_pointers@@PEB_WKPEBDHPEADHHH@Z 0000000180030be4     libucrt:lcmapstringa.obj
 0002:0000cc0c       $unwind$_close             0000000180030c0c     libucrt:close.obj
 0002:0000cc0c       $unwind$_commit            0000000180030c0c     libucrt:commit.obj
 0002:0000cc14       $unwind$??$?RV<lambda_a37b2b86f63e897a80ea819b0eb08c01>@@AEAV<lambda_38ce7e780aa69e748d6df282ebc68efe>@@V<lambda_99fb1378e971ab6e7edea83e3a7a83a2>@@@?$__crt_seh_guarded_call@H@@QEAAH$$QEAV<lambda_a37b2b86f63e897a80ea819b0eb08c01>@@AEAV<lambda_38ce7e780aa69e748d6df282ebc68efe>@@$$QEAV<lambda_99fb1378e971ab6e7edea83e3a7a83a2>@@@Z 0000000180030c14     libucrt:commit.obj
 0002:0000cc38       $unwind$_write             0000000180030c38     libucrt:write.obj
 0002:0000cc68       $unwind$_write_nolock      0000000180030c68     libucrt:write.obj
 0002:0000cc80       $unwind$?write_double_translated_ansi_nolock@@YA?AUwrite_result@?A0x17268360@@HQEBDI@Z 0000000180030c80     libucrt:write.obj
 0002:0000cca4       $unwind$?write_text_ansi_nolock@@YA?AUwrite_result@?A0x17268360@@HQEBDI@Z 0000000180030ca4     libucrt:write.obj
 0002:0000cca4       $unwind$?write_text_utf16le_nolock@@YA?AUwrite_result@?A0x17268360@@HQEBDI@Z 0000000180030ca4     libucrt:write.obj
 0002:0000ccc4       $unwind$?write_text_utf8_nolock@@YA?AUwrite_result@?A0x17268360@@HQEBDI@Z 0000000180030cc4     libucrt:write.obj
 0002:0000cce8       $xdatasym                  0000000180030ce8     libucrt:log10.obj
 0002:0000ccf4       $unwind$__acrt_fenv_set_control 0000000180030cf4     libucrt:_fenvutils.obj
 0002:0000cd04       $unwind$fclose             0000000180030d04     libucrt:fclose.obj
 0002:0000cd28       $unwind$_putwch_nolock     0000000180030d28     libucrt:putwch.obj
 0002:0000cd30       $unwind$common_control87   0000000180030d30     libucrt:ieee.obj
 0002:0000cd5c       $unwind$_call_matherr      0000000180030d5c     libucrt:libm_error.obj
 0002:0000cd64       $unwind$_handle_error      0000000180030d64     libucrt:libm_error.obj
 0002:0000cd84       $unwind$__acrt_initialize_fma3 0000000180030d84     libucrt:fma3_available.obj
 0002:0000cd8c       $unwind$_log_special_common 0000000180030d8c     libucrt:log_special.obj
 0002:0000cd98       $unwind$??$?RV<lambda_751a882b2c74d4b022dec766aa51a29a>@@AEAV<lambda_628dfdc04ba53c8bfc02c9951375f3f5>@@V<lambda_f6c7be5f7998530c34de24c7437d6b54>@@@?$__crt_seh_guarded_call@H@@QEAAH$$QEAV<lambda_751a882b2c74d4b022dec766aa51a29a>@@AEAV<lambda_628dfdc04ba53c8bfc02c9951375f3f5>@@$$QEAV<lambda_f6c7be5f7998530c34de24c7437d6b54>@@@Z 0000000180030d98     libucrt:close.obj
 0002:0000cdc0       $xdatasym                  0000000180030dc0     libucrt:fpsr.obj
 0002:0000cdc8       $unwind$_raise_exc_ex      0000000180030dc8     libucrt:fpexcept.obj
 0002:0000cddc       $unwind$_ctrlfp            0000000180030ddc     libucrt:fpctrl.obj
 0002:0000ce04       $unwind$_IsNonwritableInCurrentImage 0000000180030e04     LIBCMT:pesect.obj
 0002:0000cf90       .edata                     0000000180030f90     OPOSBiometrics.exp
 0002:0000cfb8       rgpv                       0000000180030fb8     OPOSBiometrics.exp
 0002:0000cfc8       rgszName                   0000000180030fc8     OPOSBiometrics.exp
 0002:0000cfd8       rgwOrd                     0000000180030fd8     OPOSBiometrics.exp
 0002:0000cfe0       szName                     0000000180030fe0     OPOSBiometrics.exp
 0002:0000cff3       $N00001                    0000000180030ff3     OPOSBiometrics.exp
 0002:0000d003       $N00002                    0000000180031003     OPOSBiometrics.exp
 0002:0000d015       $N00003                    0000000180031015     OPOSBiometrics.exp
 0002:0000d027       $N00004                    0000000180031027     OPOSBiometrics.exp
 0002:0000d95a       .idata$6                   000000018003195a     kernel32:KERNEL32.dll
 0002:0000db72       .idata$6                   0000000180031b72     user32:USER32.dll
 0002:0000dca6       .idata$6                   0000000180031ca6     gdi32:GDI32.dll
 0002:0000dd4c       .idata$6                   0000000180031d4c     advapi32:ADVAPI32.dll
 0002:0000de68       .idata$6                   0000000180031e68     ole32:ole32.dll
 0002:0000de72       .idata$6                   0000000180031e72     oleaut32:OLEAUT32.dll
 0003:000001c0       ?ObjectMap@@3PAU_ATL_OBJMAP_ENTRY30@ATL@@A 00000001800331c0     Biometrics.obj
 0003:000002d0       ?s_SOMethodNames@@3PAPEADA 00000001800332d0     BiometricsImpl.obj
 0003:000003a8       ?s_RequiredMethodsPerRelease@@3PAHA 00000001800333a8     BiometricsImpl.obj
 0003:000003f0       ?__vcrt_flsindex@@3KA      00000001800333f0     libvcruntime:per_thread_data.obj
 0003:00000400       ?errno_no_memory@@3HA      0000000180033400     libucrt:errno.obj
 0003:00000404       ?doserrno_no_memory@@3KA   0000000180033404     libucrt:errno.obj
 0003:00000410       ?__acrt_flsindex@@3KA      0000000180033410     libucrt:per_thread_data.obj
 0003:000008d0       _mbctypes                  00000001800338d0     libucrt:mbctype.obj
 0003:000009e0       _mbcasemaps                00000001800339e0     libucrt:mbctype.obj
 0003:00000ae0       ?__rgctypeflag@@3PADA      0000000180033ae0     libucrt:mbctype.obj
 0003:00000af0       ?__rgcode_page_info@@3PAUcode_page_info@@A 0000000180033af0     libucrt:mbctype.obj
 0003:00000d90       ?dazSupported@?1??common_control87@@9@9 0000000180033d90     libucrt:ieee.obj
 0003:00000da0       ?__dcrt_lowio_console_output_handle@@3PEAXEA 0000000180033da0     libucrt:initcon.obj
 0003:00000db0       ?dazSupported@?1??_ctrlfp@@9@9 0000000180033db0     libucrt:fpctrl.obj
 0003:00001000       ?is_initialized_as_dll@@3_NA 0000000180034000     LIBCMT:utility.obj
 0003:00001001       ?module_local_atexit_table_initialized@@3_NA 0000000180034001     LIBCMT:utility.obj
 0003:00001008       ?module_local_atexit_table@@3U_onexit_table_t@@A 0000000180034008     LIBCMT:utility.obj
 0003:00001020       ?module_local_at_quick_exit_table@@3U_onexit_table_t@@A 0000000180034020     LIBCMT:utility.obj
 0003:00001038       ?g_tss_cv@@3U_RTL_CONDITION_VARIABLE@@A 0000000180034038     LIBCMT:thread_safe_statics.obj
 0003:00001040       ?g_tss_event@@3PEAXEA      0000000180034040     LIBCMT:thread_safe_statics.obj
 0003:00001048       ?g_tss_mutex@@3U_RTL_CRITICAL_SECTION@@A 0000000180034048     LIBCMT:thread_safe_statics.obj
 0003:00001070       ?g_sleep_condition_variable_cs@@3P6AHPEAU_RTL_CONDITION_VARIABLE@@PEAU_RTL_CRITICAL_SECTION@@K@ZEA 0000000180034070     LIBCMT:thread_safe_statics.obj
 0003:00001078       ?g_wake_all_condition_variable@@3P6AXPEAU_RTL_CONDITION_VARIABLE@@@ZEA 0000000180034078     LIBCMT:thread_safe_statics.obj
 0003:00001080       GS_ExceptionRecord         0000000180034080     LIBCMT:gs_report.obj
 0003:00001120       GS_ContextRecord           0000000180034120     LIBCMT:gs_report.obj
 0003:000015f4       ?__proc_attached@@3HA      00000001800345f4     LIBCMT:dll_dllmain.obj
 0003:00001688       ?AllocateData@@3P6APEAUAtlThunkData_t@@XZEA 0000000180034688     atls:atlthunk.obj
 0003:00001690       ?InitData@@3P6AXPEAUAtlThunkData_t@@PEAX_K@ZEA 0000000180034690     atls:atlthunk.obj
 0003:00001698       ?DataToCode@@3P6AP6A_JPEAUHWND__@@I_K_J@ZPEAUAtlThunkData_t@@@ZEA 0000000180034698     atls:atlthunk.obj
 0003:000016a0       ?FreeData@@3P6AXPEAUAtlThunkData_t@@@ZEA 00000001800346a0     atls:atlthunk.obj
 0003:000016a8       ?Initialized@@3_NA         00000001800346a8     atls:atlthunk.obj
 0003:000016c0       ?__vcrt_startup_thread_ptd@@3U__vcrt_ptd@@A 00000001800346c0     libvcruntime:per_thread_data.obj
 0003:00001740       __vcrt_lock_table          0000000180034740     libvcruntime:locks.obj
 0003:00001768       __vcrt_locks_initialized   0000000180034768     libvcruntime:locks.obj
 0003:000017b0       ?heap@@3V_HeapManager@@A   00000001800347b0     libvcruntime:undname.obj
 0003:000017d8       ?module_handles@@3PAPEAUHINSTANCE__@@A 00000001800347d8     libvcruntime:winapi_downlevel.obj
 0003:000017f0       ?function_pointers@@3PAPEAXA 00000001800347f0     libvcruntime:winapi_downlevel.obj
 0003:00001818       ?__acrt_invalid_parameter_handler@@3V?$dual_state_global@P6AXPEB_W00I_K@Z@__crt_state_management@@A 0000000180034818     libucrt:invalid_parameter.obj
 0003:00001820       ?c_termination_complete@@3JA 0000000180034820     libucrt:exit.obj
 0003:00001828       ?thread_local_exit_callback_func@@3P6AXPEAXK0@ZEA 0000000180034828     libucrt:exit.obj
 0003:00001840       ?program_name@?1???$common_configure_argv@D@@YAHW4_crt_argv_mode@@@Z@4PADA 0000000180034840     libucrt:argv_parsing.obj
 0003:00001998       ?__acrt_new_handler@@3V?$dual_state_global@P6AH_K@Z@__crt_state_management@@A 0000000180034998     libucrt:new_handler.obj
 0003:000019a0       ?module_handles@@3PAPEAUHINSTANCE__@@A 00000001800349a0     libucrt:winapi_thunks.obj
 0003:00001a40       ?encoded_function_pointers@@3PAPEAXA 0000000180034a40     libucrt:winapi_thunks.obj
 0003:00001b50       ?internal_state@?1??_mbtowc_l@@9@4U_Mbstatet@@A 0000000180034b50     libucrt:mbtowc.obj
 0003:00001b68       ?enable_percent_n@@3_KA    0000000180034b68     libucrt:printf_count_output.obj
 0003:00001fa0       ?__acrt_lock_table@@3PAU_RTL_CRITICAL_SECTION@@A 0000000180034fa0     libucrt:locks.obj
 0003:000021d0       ?__acrt_locks_initialized@@3IA 00000001800351d0     libucrt:locks.obj
 0003:000021f0       ?fSystemSet@@3HA           00000001800351f0     libucrt:mbctype.obj
 0003:000021f4       ?initialized@?1??__acrt_initialize_multibyte@@9@4_NA 00000001800351f4     libucrt:mbctype.obj
 0003:00002230       ?ctrlc_action@@3V?$dual_state_global@P6AXH@Z@__crt_state_management@@A 0000000180035230     libucrt:signal.obj
 0003:00002238       ?ctrlbreak_action@@3V?$dual_state_global@P6AXH@Z@__crt_state_management@@A 0000000180035238     libucrt:signal.obj
 0003:00002240       ?abort_action@@3V?$dual_state_global@P6AXH@Z@__crt_state_management@@A 0000000180035240     libucrt:signal.obj
 0003:00002248       ?term_action@@3V?$dual_state_global@P6AXH@Z@__crt_state_management@@A 0000000180035248     libucrt:signal.obj
 0003:00002250       ?user_matherr@@3V?$dual_state_global@P6AHPEAU_exception@@@Z@__crt_state_management@@A 0000000180035250     libucrt:matherr.obj
 0003:00002258       ?__acrt_global_new_mode@@3V?$dual_state_global@J@__crt_state_management@@A 0000000180035258     libucrt:new_mode.obj
 0003:00002268       ?internal_pst@?1??__mbrtoc32_utf8@__crt_mbstring@@YA_KPEA_UPEBD_KPEAU_Mbstatet@@@Z@4U3@A 0000000180035268     libucrt:mbrtoc32.obj
 0003:00002270       ?__acrt_app_type@@3W4_crt_app_type@@A 0000000180035270     libucrt:report_runtime_error.obj
 0004:00000000       $pdata$?cw_memcpy@@YAHPEA_WPEBDH@Z 0000000180036000     CWString.obj
 0004:0000000c       $pdata$?cw_strcpy@@YAHPEA_WPEBD@Z 000000018003600c     CWString.obj
 0004:00000018       $pdata$?cw_dup@@YAXPEBDAEAHAEAPEA_W1@Z 0000000180036018     CWString.obj
 0004:00000024       $pdata$?DupWide@_CW@@AEAAXXZ 0000000180036024     CWString.obj
 0004:00000030       $pdata$?AtlWinModuleTerm@ATL@@YAJPEAU_ATL_WIN_MODULE70@1@PEAUHINSTANCE__@@@Z 0000000180036030     OposVariant.obj
 0004:0000003c       $pdata$??0CAtlComModule@ATL@@QEAA@XZ 000000018003603c     OposVariant.obj
 0004:00000048       $pdata$?Term@CAtlComModule@ATL@@QEAAXXZ 0000000180036048     OposVariant.obj
 0004:00000054       $pdata$??__E_AtlComModule@ATL@@YAXXZ 0000000180036054     OposVariant.obj
 0004:00000060       $pdata$??0CAtlWinModule@ATL@@QEAA@XZ 0000000180036060     OposVariant.obj
 0004:0000006c       $pdata$??__E_AtlWinModule@ATL@@YAXXZ 000000018003606c     OposVariant.obj
 0004:00000078       $pdata$??__F_AtlWinModule@ATL@@YAXXZ 0000000180036078     OposVariant.obj
 0004:00000084       $pdata$??_Estringdispid@CComTypeInfoHolder@ATL@@QEAAPEAXI@Z 0000000180036084     OposVariant.obj
 0004:00000090       $pdata$?SetVARIANT_BOOL@OposVariant@@QEAAXF@Z 0000000180036090     OposVariant.obj
 0004:0000009c       $pdata$?SetVARIANT_BOOL_Ptr@OposVariant@@QEAAXPEAFAEAJ@Z 000000018003609c     OposVariant.obj
 0004:000000a8       $pdata$?GetLONG@OposVariant@@QEAAJXZ 00000001800360a8     OposVariant.obj
 0004:000000b4       $pdata$?ChangeLONG@OposVariant@@QEAAXPEAJAEAJ@Z 00000001800360b4     OposVariant.obj
 0004:000000c0       $pdata$?SetLONG@OposVariant@@QEAAXJ@Z 00000001800360c0     OposVariant.obj
 0004:000000cc       $pdata$?SetLONG_Ptr@OposVariant@@QEAAXPEAJAEAJ@Z 00000001800360cc     OposVariant.obj
 0004:000000d8       $pdata$?ChangeBSTR@OposVariant@@QEAAXPEAPEA_WAEAJ@Z 00000001800360d8     OposVariant.obj
 0004:000000e4       $pdata$?SetBSTR@OposVariant@@QEAAXPEA_WAEAJ@Z 00000001800360e4     OposVariant.obj
 0004:000000f0       $pdata$?SetBSTR_Copy@OposVariant@@QEAAXPEA_WAEAJ@Z 00000001800360f0     OposVariant.obj
 0004:000000fc       $pdata$?SetBSTR_InOutPtr@OposVariant@@QEAA_NPEAPEA_WAEAJ@Z 00000001800360fc     OposVariant.obj
 0004:00000108       $pdata$?SetVARIANT@OposVariant@@QEAAXAEAUtagVARIANT@@GAEAJ@Z 0000000180036108     OposVariant.obj
 0004:00000114       $pdata$?SetVARIANT_Ptr@OposVariant@@QEAAXAEAPEAUtagVARIANT@@GAEAJ@Z 0000000180036114     OposVariant.obj
 0004:00000120       $pdata$?SetString@OposVariant@@QEAAXPEB_WAEAJ@Z 0000000180036120     OposVariant.obj
 0004:0000012c       $pdata$?SetDispatch_Ptr@OposVariant@@QEAAXPEAUIDispatch@@AEAJ@Z 000000018003612c     OposVariant.obj
 0004:00000138       $pdata$??0OposDispParms@@QEAA@PEAVOposVariant@@H@Z 0000000180036138     OposVariant.obj
 0004:00000144       $pdata$??1OposDispParms@@QEAA@XZ 0000000180036144     OposVariant.obj
 0004:00000150       $pdata$?AtlThrowImpl@ATL@@YAXJ@Z 0000000180036150     Biometrics.obj
 0004:0000015c       $pdata$swprintf_s          000000018003615c     Biometrics.obj
 0004:00000168       $pdata$?_AtlVerifyStackAvailable@_ATL_SAFE_ALLOCA_IMPL@ATL@@YA_N_K@Z 0000000180036168     Biometrics.obj
 0004:00000174       $pdata$?filt$0@?0??_AtlVerifyStackAvailable@_ATL_SAFE_ALLOCA_IMPL@ATL@@YA_N_K@Z@4HA 0000000180036174     Biometrics.obj
 0004:00000180       $pdata$?ocscpy_s@@YA_NPEA_W_KPEB_W@Z 0000000180036180     Biometrics.obj
 0004:0000018c       $pdata$?AtlHresultFromLastError@ATL@@YAJXZ 000000018003618c     Biometrics.obj
 0004:00000198       $pdata$?AtlInternalOleLoadFromStream@ATL@@YAJPEAUIStream@@AEBU_GUID@@PEAPEAXTClassesAllowedInStream@1@K@Z 0000000180036198     Biometrics.obj
 0004:000001a4       $pdata$?ReadFromStream@CComBSTR@ATL@@QEAAJPEAUIStream@@@Z 00000001800361a4     Biometrics.obj
 0004:000001b0       $pdata$?WriteToStream@CComVariant@ATL@@QEAAJPEAUIStream@@@Z 00000001800361b0     Biometrics.obj
 0004:000001bc       $pdata$?WriteToStream@CComVariant@ATL@@QEAAJPEAUIStream@@G@Z 00000001800361bc     Biometrics.obj
 0004:000001c8       $pdata$?ReadFromStream@CComVariant@ATL@@QEAAJPEAUIStream@@GTClassesAllowedInStream@2@K@Z 00000001800361c8     Biometrics.obj
 0004:000001d4       $pdata$?GetSizeMax@CComVariant@ATL@@QEBAJPEAT_ULARGE_INTEGER@@@Z 00000001800361d4     Biometrics.obj
 0004:000001e0       $pdata$?RegCreateKeyExW@CAtlTransactionManager@ATL@@QEAAJPEAUHKEY__@@PEB_WKPEA_WKKQEAU_SECURITY_ATTRIBUTES@@PEAPEAU3@PEAK@Z 00000001800361e0     Biometrics.obj
 0004:000001ec       $pdata$?RegOpenKeyExW@CAtlTransactionManager@ATL@@QEAAJPEAUHKEY__@@PEB_WKKPEAPEAU3@@Z 00000001800361ec     Biometrics.obj
 0004:000001f8       $pdata$?RegDeleteKeyW@CAtlTransactionManager@ATL@@QEAAJPEAUHKEY__@@PEB_W@Z 00000001800361f8     Biometrics.obj
 0004:00000204       $pdata$?Add@?$CSimpleArray@GV?$CSimpleArrayEqualHelper@G@ATL@@@ATL@@QEAAHAEBG@Z 0000000180036204     Biometrics.obj
 0004:00000210       $pdata$?AtlInternalQueryInterface@ATL@@YAJPEAXPEBU_ATL_INTMAP_ENTRY@1@AEBU_GUID@@PEAPEAX@Z 0000000180036210     Biometrics.obj
 0004:0000021c       $pdata$?AtlComModuleGetClassObject@ATL@@YAJPEAU_ATL_COM_MODULE70@1@AEBU_GUID@@1PEAPEAX@Z 000000018003621c     Biometrics.obj
 0004:00000228       $pdata$?AtlRegisterClassCategoriesHelper@ATL@@YAJAEBU_GUID@@PEBU_ATL_CATMAP_ENTRY@1@H@Z 0000000180036228     Biometrics.obj
 0004:00000234       $pdata$?AtlLoadTypeLib@ATL@@YAJPEAUHINSTANCE__@@PEB_WPEAPEA_WPEAPEAUITypeLib@@@Z 0000000180036234     Biometrics.obj
 0004:00000240       $pdata$?AtlRegisterTypeLib@ATL@@YAJPEAUHINSTANCE__@@PEB_W@Z 0000000180036240     Biometrics.obj
 0004:0000024c       $pdata$?AtlUnRegisterTypeLib@ATL@@YAJPEAUHINSTANCE__@@PEB_W@Z 000000018003624c     Biometrics.obj
 0004:00000258       $pdata$?AtlComModuleRegisterServer@ATL@@YAJPEAU_ATL_COM_MODULE70@1@HPEBU_GUID@@@Z 0000000180036258     Biometrics.obj
 0004:00000264       $pdata$?AtlComModuleUnregisterServer@ATL@@YAJPEAU_ATL_COM_MODULE70@1@HPEBU_GUID@@@Z 0000000180036264     Biometrics.obj
 0004:00000270       $pdata$?AtlWinModuleExtractCreateWndData@ATL@@YAPEAXPEAU_ATL_WIN_MODULE70@1@@Z 0000000180036270     Biometrics.obj
 0004:0000027c       $pdata$?DeleteSubKey@CRegKey@ATL@@QEAAJPEB_W@Z 000000018003627c     Biometrics.obj
 0004:00000288       $pdata$?RecurseDeleteKey@CRegKey@ATL@@QEAAJPEB_W@Z 0000000180036288     Biometrics.obj
 0004:00000294       $pdata$??0CAtlModule@ATL@@QEAA@XZ 0000000180036294     Biometrics.obj
 0004:000002a0       $pdata$?Term@CAtlModule@ATL@@QEAAXXZ 00000001800362a0     Biometrics.obj
 0004:000002ac       $pdata$?AddTermFunc@CAtlModule@ATL@@QEAAJP6AX_K@Z0@Z 00000001800362ac     Biometrics.obj
 0004:000002b8       $pdata$?GetGITPtr@CAtlModule@ATL@@UEAAJPEAPEAUIGlobalInterfaceTable@@@Z 00000001800362b8     Biometrics.obj
 0004:000002c4       $pdata$?UpdateRegistryFromResource@CAtlModule@ATL@@QEAAJPEB_WHPEAU_ATL_REGMAP_ENTRY@2@@Z 00000001800362c4     Biometrics.obj
 0004:000002d0       $pdata$?UpdateRegistryFromResource@CAtlModule@ATL@@QEAAJIHPEAU_ATL_REGMAP_ENTRY@2@@Z 00000001800362d0     Biometrics.obj
 0004:000002dc       $pdata$?Term@CComModule@ATL@@QEAAXXZ 00000001800362dc     Biometrics.obj
 0004:000002e8       $pdata$?GetClassObject@CComModule@ATL@@QEAAJAEBU_GUID@@0PEAPEAX@Z 00000001800362e8     Biometrics.obj
 0004:000002f4       $pdata$?RegisterServer@CComModule@ATL@@QEAAJHPEBU_GUID@@@Z 00000001800362f4     Biometrics.obj
 0004:00000300       $pdata$?UnregisterServer@CComModule@ATL@@QEAAJHPEBU_GUID@@@Z 0000000180036300     Biometrics.obj
 0004:0000030c       $pdata$??_GCComModule@ATL@@UEAAPEAXI@Z 000000018003630c     Biometrics.obj
 0004:00000318       $pdata$?Add@?$CSimpleMap@PEA_WPEA_WVCExpansionVectorEqualHelper@ATL@@@ATL@@QEAAHAEBQEA_W0@Z 0000000180036318     Biometrics.obj
 0004:00000324       $pdata$?Lookup@?$CSimpleMap@PEA_WPEA_WVCExpansionVectorEqualHelper@ATL@@@ATL@@QEBAPEA_WAEBQEA_W@Z 0000000180036324     Biometrics.obj
 0004:00000330       $pdata$?Add@CExpansionVector@ATL@@QEAAHPEB_W0@Z 0000000180036330     Biometrics.obj
 0004:0000033c       $pdata$?ClearReplacements@CExpansionVector@ATL@@QEAAJXZ 000000018003633c     Biometrics.obj
 0004:00000348       $pdata$?PreProcessBuffer@CRegParser@ATL@@QEAAJPEA_WPEAPEA_W@Z 0000000180036348     Biometrics.obj
 0004:00000354       $pdata$?RegisterBuffer@CRegParser@ATL@@QEAAJPEA_WH@Z 0000000180036354     Biometrics.obj
 0004:00000360       $pdata$?NextToken@CRegParser@ATL@@IEAAJPEA_W@Z 0000000180036360     Biometrics.obj
 0004:0000036c       $pdata$?AddValue@CRegParser@ATL@@IEAAJAEAVCRegKey@2@PEB_WPEA_W@Z 000000018003636c     Biometrics.obj
 0004:00000378       $pdata$?RegisterSubkeys@CRegParser@ATL@@IEAAJPEA_WPEAUHKEY__@@HH@Z 0000000180036378     Biometrics.obj
 0004:00000384       $pdata$?SkipAssignment@CRegParser@ATL@@IEAAJPEA_W@Z 0000000180036384     Biometrics.obj
 0004:00000390       $pdata$?HKeyFromString@CRegParser@ATL@@KAPEAUHKEY__@@PEA_W@Z 0000000180036390     Biometrics.obj
 0004:0000039c       $pdata$?VTFromRegType@CRegParser@ATL@@KAHPEB_WAEAG@Z 000000018003639c     Biometrics.obj
 0004:000003a8       $pdata$?Append@CParseBuffer@CRegParser@ATL@@QEAAHPEB_WH@Z 00000001800363a8     Biometrics.obj
 0004:000003b4       $pdata$?AddReplacement@CRegObject@ATL@@UEAAJPEB_W0@Z 00000001800363b4     Biometrics.obj
 0004:000003c0       $pdata$?RegisterFromResource@CRegObject@ATL@@IEAAJPEB_W00H@Z 00000001800363c0     Biometrics.obj
 0004:000003cc       $pdata$??_GCRegObject@ATL@@UEAAPEAXI@Z 00000001800363cc     Biometrics.obj
 0004:000003d8       $pdata$?AllocateHeap@?$CTempBuffer@E$0BAA@VCCRTAllocator@ATL@@@ATL@@AEAAX_K@Z 00000001800363d8     Biometrics.obj
 0004:000003d8       $pdata$?AllocateHeap@?$CTempBuffer@_W$0BAA@VCCRTAllocator@ATL@@@ATL@@AEAAX_K@Z 00000001800363d8     Biometrics.obj
 0004:000003d8       $pdata$?AllocateHeap@?$CTempBuffer@_W$0EAA@VCCRTAllocator@ATL@@@ATL@@AEAAX_K@Z 00000001800363d8     Biometrics.obj
 0004:000003e4       $pdata$?CreateInstance@CComClassFactory@ATL@@UEAAJPEAUIUnknown@@AEBU_GUID@@PEAPEAX@Z 00000001800363e4     Biometrics.obj
 0004:000003f0       $pdata$?LockServer@CComClassFactory@ATL@@UEAAJH@Z 00000001800363f0     Biometrics.obj
 0004:000003fc       $pdata$??_GCComClassFactory@ATL@@UEAAPEAXI@Z 00000001800363fc     Biometrics.obj
 0004:00000408       $pdata$?GetTI@CComTypeInfoHolder@ATL@@QEAAJK@Z 0000000180036408     Biometrics.obj
 0004:00000414       $pdata$?Cleanup@CComTypeInfoHolder@ATL@@SAX_K@Z 0000000180036414     Biometrics.obj
 0004:00000420       $pdata$?GetIDsOfNames@CComTypeInfoHolder@ATL@@QEAAJAEBU_GUID@@PEAPEA_WIKPEAJ@Z 0000000180036420     Biometrics.obj
 0004:0000042c       $pdata$?LoadNameCache@CComTypeInfoHolder@ATL@@QEAAJPEAUITypeInfo@@@Z 000000018003642c     Biometrics.obj
 0004:00000438       $pdata$?Add@CComDynamicUnkArray@ATL@@QEAAKPEAUIUnknown@@@Z 0000000180036438     Biometrics.obj
 0004:00000444       $pdata$?AtlHiMetricToPixel@ATL@@YAXPEBUtagSIZE@@PEAU2@@Z 0000000180036444     Biometrics.obj
 0004:00000450       $pdata$?DefaultReflectionHandler@?$CWindowImplRoot@VCWindow@ATL@@@ATL@@SAHPEAUHWND__@@I_K_JAEA_J@Z 0000000180036450     Biometrics.obj
 0004:0000045c       $pdata$?StartWindowProc@?$CWindowImplBaseT@VCWindow@ATL@@V?$CWinTraits@$0FGAAAAAA@$0A@@2@@ATL@@SA_JPEAUHWND__@@I_K_J@Z 000000018003645c     Biometrics.obj
 0004:00000468       $pdata$?WindowProc@?$CWindowImplBaseT@VCWindow@ATL@@V?$CWinTraits@$0FGAAAAAA@$0A@@2@@ATL@@SA_JPEAUHWND__@@I_K_J@Z 0000000180036468     Biometrics.obj
 0004:00000474       $pdata$?atlCreate@?$CWindowImplBaseT@VCWindow@ATL@@V?$CWinTraits@$0FGAAAAAA@$0A@@2@@ATL@@QEAAPEAUHWND__@@PEAU3@V_U_RECT@2@PEB_WKKV_U_MENUorID@2@GPEAX@Z 0000000180036474     Biometrics.obj
 0004:00000480       $pdata$?IsEqualObject@?$CComPtrBase@UIOleClientSite@@@ATL@@QEAA_NPEAUIUnknown@@@Z 0000000180036480     Biometrics.obj
 0004:0000048c       $pdata$??$AtlModuleRegisterWndClassInfoT@VAtlModuleRegisterWndClassInfoParamW@ATL@@@ATL@@YAGPEAU_ATL_BASE_MODULE70@0@PEAU_ATL_WIN_MODULE70@0@PEAU_ATL_WNDCLASSINFOW@0@PEAP6A_JPEAUHWND__@@I_K_J@ZVAtlModuleRegisterWndClassInfoParamW@0@@Z 000000018003648c     Biometrics.obj
 0004:00000498       $pdata$?GetZoomInfo@CComControlBase@ATL@@QEAAXAEAUATL_DRAWINFO@@@Z 0000000180036498     Biometrics.obj
 0004:000004a4       $pdata$?SendOnDataChange@CComControlBase@ATL@@QEAAJK@Z 00000001800364a4     Biometrics.obj
 0004:000004b0       $pdata$?OnSetFocus@CComControlBase@ATL@@QEAA_JI_K_JAEAH@Z 00000001800364b0     Biometrics.obj
 0004:000004bc       $pdata$?OnKillFocus@CComControlBase@ATL@@QEAA_JI_K_JAEAH@Z 00000001800364bc     Biometrics.obj
 0004:000004c8       $pdata$?OnMouseActivate@CComControlBase@ATL@@QEAA_JI_K_JAEAH@Z 00000001800364c8     Biometrics.obj
 0004:000004d4       $pdata$?GetAmbientLocaleID@CComControlBase@ATL@@QEAAJAEAK@Z 00000001800364d4     Biometrics.obj
 0004:000004e0       $pdata$?GetAmbientUserMode@CComControlBase@ATL@@QEAAJAEAH@Z 00000001800364e0     Biometrics.obj
 0004:000004ec       $pdata$?SetControlFocus@CComControlBase@ATL@@QEAAHH@Z 00000001800364ec     Biometrics.obj
 0004:000004f8       $pdata$?IQuickActivate_QuickActivate@CComControlBase@ATL@@QEAAJPEAUtagQACONTAINER@@PEAUtagQACONTROL@@@Z 00000001800364f8     Biometrics.obj
 0004:00000504       $pdata$?DoVerbProperties@CComControlBase@ATL@@QEAAJPEBUtagRECT@@PEAUHWND__@@@Z 0000000180036504     Biometrics.obj
 0004:00000510       $pdata$?InPlaceActivate@CComControlBase@ATL@@QEAAJJPEBUtagRECT@@@Z 0000000180036510     Biometrics.obj
 0004:0000051c       $pdata$?IOleObject_SetClientSite@CComControlBase@ATL@@QEAAJPEAUIOleClientSite@@@Z 000000018003651c     Biometrics.obj
 0004:00000528       $pdata$?IOleObject_Close@CComControlBase@ATL@@QEAAJK@Z 0000000180036528     Biometrics.obj
 0004:00000534       $pdata$?IOleObject_SetExtent@CComControlBase@ATL@@QEAAJKPEAUtagSIZE@@@Z 0000000180036534     Biometrics.obj
 0004:00000540       $pdata$?IOleInPlaceObject_InPlaceDeactivate@CComControlBase@ATL@@QEAAJXZ 0000000180036540     Biometrics.obj
 0004:0000054c       $pdata$?IOleInPlaceObject_UIDeactivate@CComControlBase@ATL@@QEAAJXZ 000000018003654c     Biometrics.obj
 0004:00000558       $pdata$?IOleInPlaceObject_SetObjectRects@CComControlBase@ATL@@QEAAJPEBUtagRECT@@0@Z 0000000180036558     Biometrics.obj
 0004:00000564       $pdata$?IViewObject_Draw@CComControlBase@ATL@@QEAAJKJPEAXPEAUtagDVTARGETDEVICE@@PEAUHDC__@@2PEBU_RECTL@@3@Z 0000000180036564     Biometrics.obj
 0004:00000570       $pdata$?IDataObject_GetData@CComControlBase@ATL@@QEAAJPEAUtagFORMATETC@@PEAUtagSTGMEDIUM@@@Z 0000000180036570     Biometrics.obj
 0004:0000057c       $pdata$?FireViewChange@CComControlBase@ATL@@QEAAJXZ 000000018003657c     Biometrics.obj
 0004:00000588       $pdata$?OnPaint@CComControlBase@ATL@@QEAA_JI_K_JAEAH@Z 0000000180036588     Biometrics.obj
 0004:00000594       $pdata$?OnDrawAdvanced@CComControlBase@ATL@@UEAAJAEAUATL_DRAWINFO@@@Z 0000000180036594     Biometrics.obj
 0004:000005a0       $pdata$?GetTypeInfo@?$IDispatchImpl@UIOPOSBiometrics@@$1?IID_IOPOSBiometrics@@3U_GUID@@B$1?LIBID_OposBiometrics_CCO@@3U3@B$00$0A@VCComTypeInfoHolder@ATL@@@ATL@@UEAAJIKPEAPEAUITypeInfo@@@Z 00000001800365a0     Biometrics.obj
 0004:000005ac       $pdata$?Invoke@?$IDispatchImpl@UIOPOSBiometrics@@$1?IID_IOPOSBiometrics@@3U_GUID@@B$1?LIBID_OposBiometrics_CCO@@3U3@B$00$0A@VCComTypeInfoHolder@ATL@@@ATL@@UEAAJJAEBU_GUID@@KGPEAUtagDISPPARAMS@@PEAUtagVARIANT@@PEAUtagEXCEPINFO@@PEAI@Z 00000001800365ac     Biometrics.obj
 0004:000005b8       $pdata$?atlCreate@?$CWindowImpl@VCOPOSBiometrics@@VCWindow@ATL@@V?$CWinTraits@$0FGAAAAAA@$0A@@3@@ATL@@QEAAPEAUHWND__@@PEAU3@V_U_RECT@2@PEB_WKKV_U_MENUorID@2@PEAX@Z 00000001800365b8     Biometrics.obj
 0004:000005c4       $pdata$?CreateControlWindow@?$CComControl@VCOPOSBiometrics@@V?$CWindowImpl@VCOPOSBiometrics@@VCWindow@ATL@@V?$CWinTraits@$0FGAAAAAA@$0A@@3@@ATL@@@ATL@@UEAAPEAUHWND__@@PEAU3@AEAUtagRECT@@@Z 00000001800365c4     Biometrics.obj
 0004:000005d0       $pdata$?ProcessWindowMessage@?$CComControl@VCOPOSBiometrics@@V?$CWindowImpl@VCOPOSBiometrics@@VCWindow@ATL@@V?$CWinTraits@$0FGAAAAAA@$0A@@3@@ATL@@@ATL@@UEAAHPEAUHWND__@@I_K_JAEA_JK@Z 00000001800365d0     Biometrics.obj
 0004:000005dc       $pdata$?GetSizeMax@?$IPersistStreamInitImpl@VCOPOSBiometrics@@@ATL@@UEAAJPEAT_ULARGE_INTEGER@@@Z 00000001800365dc     Biometrics.obj
 0004:000005e8       $pdata$?IPersistStreamInit_Load@?$IPersistStreamInitImpl@VCOPOSBiometrics@@@ATL@@QEAAJPEAUIStream@@PEBUATL_PROPMAP_ENTRY@2@@Z 00000001800365e8     Biometrics.obj
 0004:000005f4       $pdata$?IPersistStreamInit_Save@?$IPersistStreamInitImpl@VCOPOSBiometrics@@@ATL@@QEAAJPEAUIStream@@HPEBUATL_PROPMAP_ENTRY@2@@Z 00000001800365f4     Biometrics.obj
 0004:00000600       $pdata$?GetClientSite@?$IOleObjectImpl@VCOPOSBiometrics@@@ATL@@UEAAJPEAPEAUIOleClientSite@@@Z 0000000180036600     Biometrics.obj
 0004:0000060c       $pdata$?DoVerbPrimary@?$IOleObjectImpl@VCOPOSBiometrics@@@ATL@@QEAAJPEBUtagRECT@@PEAUHWND__@@@Z 000000018003660c     Biometrics.obj
 0004:00000618       $pdata$?DoVerb@?$IOleObjectImpl@VCOPOSBiometrics@@@ATL@@UEAAJJPEAUtagMSG@@PEAUIOleClientSite@@JPEAUHWND__@@PEBUtagRECT@@@Z 0000000180036618     Biometrics.obj
 0004:00000624       $pdata$?Advise@?$IOleObjectImpl@VCOPOSBiometrics@@@ATL@@UEAAJPEAUIAdviseSink@@PEAK@Z 0000000180036624     Biometrics.obj
 0004:00000630       $pdata$?Unadvise@?$IOleObjectImpl@VCOPOSBiometrics@@@ATL@@UEAAJK@Z 0000000180036630     Biometrics.obj
 0004:0000063c       $pdata$?EnumAdvise@?$IOleObjectImpl@VCOPOSBiometrics@@@ATL@@UEAAJPEAPEAUIEnumSTATDATA@@@Z 000000018003663c     Biometrics.obj
 0004:00000648       $pdata$?TranslateAcceleratorW@?$IOleInPlaceActiveObjectImpl@VCOPOSBiometrics@@@ATL@@UEAAJPEAUtagMSG@@@Z 0000000180036648     Biometrics.obj
 0004:00000654       $pdata$?OnDocWindowActivate@?$IOleInPlaceActiveObjectImpl@VCOPOSBiometrics@@@ATL@@UEAAJH@Z 0000000180036654     Biometrics.obj
 0004:00000660       $pdata$?Draw@?$IViewObjectExImpl@VCOPOSBiometrics@@@ATL@@UEAAJKJPEAXPEAUtagDVTARGETDEVICE@@PEAUHDC__@@2PEBU_RECTL@@3P6AH_K@Z4@Z 0000000180036660     Biometrics.obj
 0004:0000066c       $pdata$?SetAdvise@?$IViewObjectExImpl@VCOPOSBiometrics@@@ATL@@UEAAJKKPEAUIAdviseSink@@@Z 000000018003666c     Biometrics.obj
 0004:00000678       $pdata$?GetAdvise@?$IViewObjectExImpl@VCOPOSBiometrics@@@ATL@@UEAAJPEAK0PEAPEAUIAdviseSink@@@Z 0000000180036678     Biometrics.obj
 0004:00000684       $pdata$?QueryHitPoint@?$IViewObjectExImpl@VCOPOSBiometrics@@@ATL@@UEAAJKPEBUtagRECT@@UtagPOINT@@JPEAK@Z 0000000180036684     Biometrics.obj
 0004:00000690       $pdata$?QueryHitRect@?$IViewObjectExImpl@VCOPOSBiometrics@@@ATL@@UEAAJKPEBUtagRECT@@0JPEAK@Z 0000000180036690     Biometrics.obj
 0004:0000069c       $pdata$?OnWindowMessage@?$IOleInPlaceObjectWindowlessImpl@VCOPOSBiometrics@@@ATL@@UEAAJI_K_JPEA_J@Z 000000018003669c     Biometrics.obj
 0004:000006a8       $pdata$?EnumConnectionPoints@?$IConnectionPointContainerImpl@VCOPOSBiometrics@@@ATL@@UEAAJPEAPEAUIEnumConnectionPoints@@@Z 00000001800366a8     Biometrics.obj
 0004:000006b4       $pdata$?FindConnectionPoint@?$IConnectionPointContainerImpl@VCOPOSBiometrics@@@ATL@@UEAAJAEBU_GUID@@PEAPEAUIConnectionPoint@@@Z 00000001800366b4     Biometrics.obj
 0004:000006c0       $pdata$?IsDirty@?$IPersistStorageImpl@VCOPOSBiometrics@@@ATL@@UEAAJXZ 00000001800366c0     Biometrics.obj
 0004:000006cc       $pdata$?InitNew@?$IPersistStorageImpl@VCOPOSBiometrics@@@ATL@@UEAAJPEAUIStorage@@@Z 00000001800366cc     Biometrics.obj
 0004:000006d8       $pdata$?Load@?$IPersistStorageImpl@VCOPOSBiometrics@@@ATL@@UEAAJPEAUIStorage@@@Z 00000001800366d8     Biometrics.obj
 0004:000006e4       $pdata$?Save@?$IPersistStorageImpl@VCOPOSBiometrics@@@ATL@@UEAAJPEAUIStorage@@H@Z 00000001800366e4     Biometrics.obj
 0004:000006f0       $pdata$?IPSI_GetIPersistStreamInit@?$IPersistStorageImpl@VCOPOSBiometrics@@@ATL@@AEAAPEAUIPersistStreamInit@@XZ 00000001800366f0     Biometrics.obj
 0004:000006fc       $pdata$?GetPagesHelper@?$ISpecifyPropertyPagesImpl@VCOPOSBiometrics@@@ATL@@IEAAJPEAUtagCAUUID@@PEBUATL_PROPMAP_ENTRY@2@@Z 00000001800366fc     Biometrics.obj
 0004:00000708       $pdata$?DAdvise@?$IDataObjectImpl@VCOPOSBiometrics@@@ATL@@UEAAJPEAUtagFORMATETC@@KPEAUIAdviseSink@@PEAK@Z 0000000180036708     Biometrics.obj
 0004:00000714       $pdata$?GetClassInfoW@?$IProvideClassInfo2Impl@$1?CLSID_OPOSBiometrics@@3U_GUID@@B$1?DIID__IOPOSBiometricsEvents@@3U2@B$1?LIBID_OposBiometrics_CCO@@3U2@B$00$0A@VCComTypeInfoHolder@ATL@@@ATL@@UEAAJPEAPEAUITypeInfo@@@Z 0000000180036714     Biometrics.obj
 0004:00000720       $pdata$?GetInterfaceSafetyOptions@?$IObjectSafetyImpl@VCOPOSBiometrics@@$02@ATL@@UEAAJAEBU_GUID@@PEAK1@Z 0000000180036720     Biometrics.obj
 0004:0000072c       $pdata$?SetInterfaceSafetyOptions@?$IObjectSafetyImpl@VCOPOSBiometrics@@$02@ATL@@UEAAJAEBU_GUID@@KK@Z 000000018003672c     Biometrics.obj
 0004:00000738       $pdata$?_LocCPQueryInterface@?$IConnectionPointImpl@VCOPOSBiometrics@@$1?DIID__IOPOSBiometricsEvents@@3U_GUID@@BVCComDynamicUnkArray@ATL@@@ATL@@UEAAJAEBU_GUID@@PEAPEAX@Z 0000000180036738     Biometrics.obj
 0004:00000738       $pdata$?_LocCPQueryInterface@?$IConnectionPointImpl@VCOPOSBiometrics@@$1?IID_IPropertyNotifySink@@3U_GUID@@BVCComDynamicUnkArray@ATL@@@ATL@@UEAAJAEBU_GUID@@PEAPEAX@Z 0000000180036738     Biometrics.obj
 0004:00000744       $pdata$?Advise@?$IConnectionPointImpl@VCOPOSBiometrics@@$1?DIID__IOPOSBiometricsEvents@@3U_GUID@@BVCComDynamicUnkArray@ATL@@@ATL@@UEAAJPEAUIUnknown@@PEAK@Z 0000000180036744     Biometrics.obj
 0004:00000744       $pdata$?Advise@?$IConnectionPointImpl@VCOPOSBiometrics@@$1?IID_IPropertyNotifySink@@3U_GUID@@BVCComDynamicUnkArray@ATL@@@ATL@@UEAAJPEAUIUnknown@@PEAK@Z 0000000180036744     Biometrics.obj
 0004:00000750       $pdata$?Unadvise@?$IConnectionPointImpl@VCOPOSBiometrics@@$1?DIID__IOPOSBiometricsEvents@@3U_GUID@@BVCComDynamicUnkArray@ATL@@@ATL@@UEAAJK@Z 0000000180036750     Biometrics.obj
 0004:00000750       $pdata$?Unadvise@?$IConnectionPointImpl@VCOPOSBiometrics@@$1?IID_IPropertyNotifySink@@3U_GUID@@BVCComDynamicUnkArray@ATL@@@ATL@@UEAAJK@Z 0000000180036750     Biometrics.obj
 0004:0000075c       $pdata$?EnumConnections@?$IConnectionPointImpl@VCOPOSBiometrics@@$1?DIID__IOPOSBiometricsEvents@@3U_GUID@@BVCComDynamicUnkArray@ATL@@@ATL@@UEAAJPEAPEAUIEnumConnections@@@Z 000000018003675c     Biometrics.obj
 0004:0000075c       $pdata$?EnumConnections@?$IConnectionPointImpl@VCOPOSBiometrics@@$1?IID_IPropertyNotifySink@@3U_GUID@@BVCComDynamicUnkArray@ATL@@@ATL@@UEAAJPEAPEAUIEnumConnections@@@Z 000000018003675c     Biometrics.obj
 0004:00000768       $pdata$?Fire_DataEvent@?$CProxy_IOPOSEvents@VCOPOSBiometrics@@@@QEAAXJ@Z 0000000180036768     Biometrics.obj
 0004:00000774       $pdata$?Fire_DirectIOEvent@?$CProxy_IOPOSEvents@VCOPOSBiometrics@@@@QEAAXJPEAJPEAPEA_W@Z 0000000180036774     Biometrics.obj
 0004:00000780       $pdata$?Fire_ErrorEvent@?$CProxy_IOPOSEvents@VCOPOSBiometrics@@@@QEAAXJJJPEAJ@Z 0000000180036780     Biometrics.obj
 0004:0000078c       $pdata$?Fire_StatusUpdateEvent@?$CProxy_IOPOSEvents@VCOPOSBiometrics@@@@QEAAXJ@Z 000000018003678c     Biometrics.obj
 0004:00000798       $pdata$?FireTheEvent@?$CProxy_IOPOSEvents@VCOPOSBiometrics@@@@IEAAXPEAVOposVariant@@IAEAJPEB_WJ@Z 0000000180036798     Biometrics.obj
 0004:000007a4       $pdata$?GetConnMap@COPOSBiometrics@@SAPEBU_ATL_CONNMAP_ENTRY@ATL@@PEAH@Z 00000001800367a4     Biometrics.obj
 0004:000007b0       $pdata$?ProcessWindowMessage@COPOSBiometrics@@UEAAHPEAUHWND__@@I_K_JAEA_JK@Z 00000001800367b0     Biometrics.obj
 0004:000007bc       $pdata$?SOData@COPOSBiometrics@@MEAAJJ@Z 00000001800367bc     Biometrics.obj
 0004:000007c8       $pdata$?SODirectIO@COPOSBiometrics@@MEAAJJPEAJPEAPEA_W@Z 00000001800367c8     Biometrics.obj
 0004:000007d4       $pdata$?SOError@COPOSBiometrics@@MEAAJJJJPEAJ@Z 00000001800367d4     Biometrics.obj
 0004:000007e0       $pdata$?SOStatusUpdate@COPOSBiometrics@@MEAAJJ@Z 00000001800367e0     Biometrics.obj
 0004:000007ec       $pdata$?DoEvent@COPOSBiometrics@@IEAAXI_K_J@Z 00000001800367ec     Biometrics.obj
 0004:000007f8       $pdata$??__E_Module@@YAXXZ 00000001800367f8     Biometrics.obj
 0004:00000804       $pdata$?CreateInstance@?$CComCreator@V?$CComObjectCached@VCComClassFactory@ATL@@@ATL@@@ATL@@SAJPEAXAEBU_GUID@@PEAPEAX@Z 0000000180036804     Biometrics.obj
 0004:00000810       $pdata$DllMain             0000000180036810     Biometrics.obj
 0004:0000081c       $pdata$?CreateInstance@?$CComCreator@V?$CComObject@VCOPOSBiometrics@@@ATL@@@ATL@@SAJPEAXAEBU_GUID@@PEAPEAX@Z 000000018003681c     Biometrics.obj
 0004:00000828       $pdata$?CreateInstance@?$CComCreator@V?$CComAggObject@VCOPOSBiometrics@@@ATL@@@ATL@@SAJPEAXAEBU_GUID@@PEAPEAX@Z 0000000180036828     Biometrics.obj
 0004:00000834       $pdata$?AddRef@?$CComObjectCached@VCComClassFactory@ATL@@@ATL@@UEAAKXZ 0000000180036834     Biometrics.obj
 0004:00000840       $pdata$?Release@?$CComObjectCached@VCComClassFactory@ATL@@@ATL@@UEAAKXZ 0000000180036840     Biometrics.obj
 0004:0000084c       $pdata$??_G?$CComObjectCached@VCComClassFactory@ATL@@@ATL@@UEAAPEAXI@Z 000000018003684c     Biometrics.obj
 0004:00000858       $pdata$??1?$CComEnumImpl@UIEnumConnectionPoints@@$1?_GUID_b196b285_bab4_101a_b69c_00aa00341d07@@3U__s_GUID@@BPEAUIConnectionPoint@@V?$_CopyInterface@UIConnectionPoint@@@ATL@@@ATL@@UEAA@XZ 0000000180036858     Biometrics.obj
 0004:00000864       $pdata$?Next@?$CComEnumImpl@UIEnumConnectionPoints@@$1?_GUID_b196b285_bab4_101a_b69c_00aa00341d07@@3U__s_GUID@@BPEAUIConnectionPoint@@V?$_CopyInterface@UIConnectionPoint@@@ATL@@@ATL@@UEAAJKPEAPEAUIConnectionPoint@@PEAK@Z 0000000180036864     Biometrics.obj
 0004:00000870       $pdata$?Clone@?$CComEnumImpl@UIEnumConnectionPoints@@$1?_GUID_b196b285_bab4_101a_b69c_00aa00341d07@@3U__s_GUID@@BPEAUIConnectionPoint@@V?$_CopyInterface@UIConnectionPoint@@@ATL@@@ATL@@UEAAJPEAPEAUIEnumConnectionPoints@@@Z 0000000180036870     Biometrics.obj
 0004:0000087c       $pdata$?Init@?$CComEnumImpl@UIEnumConnectionPoints@@$1?_GUID_b196b285_bab4_101a_b69c_00aa00341d07@@3U__s_GUID@@BPEAUIConnectionPoint@@V?$_CopyInterface@UIConnectionPoint@@@ATL@@@ATL@@QEAAJPEAPEAUIConnectionPoint@@0PEAUIUnknown@@W4CComEnumFlags@2@@Z 000000018003687c     Biometrics.obj
 0004:00000888       $pdata$?Release@?$CComObject@V?$CComEnum@UIEnumConnectionPoints@@$1?_GUID_b196b285_bab4_101a_b69c_00aa00341d07@@3U__s_GUID@@BPEAUIConnectionPoint@@V?$_CopyInterface@UIConnectionPoint@@@ATL@@VCComSingleThreadModel@6@@ATL@@@ATL@@UEAAKXZ 0000000180036888     Biometrics.obj
 0004:00000888       $pdata$?Release@?$CComObject@V?$CComEnum@UIEnumConnections@@$1?_GUID_b196b287_bab4_101a_b69c_00aa00341d07@@3U__s_GUID@@BUtagCONNECTDATA@@V?$_Copy@UtagCONNECTDATA@@@ATL@@VCComSingleThreadModel@6@@ATL@@@ATL@@UEAAKXZ 0000000180036888     Biometrics.obj
 0004:00000894       $pdata$?CreateInstance@?$CComObject@V?$CComEnum@UIEnumConnectionPoints@@$1?_GUID_b196b285_bab4_101a_b69c_00aa00341d07@@3U__s_GUID@@BPEAUIConnectionPoint@@V?$_CopyInterface@UIConnectionPoint@@@ATL@@VCComSingleThreadModel@6@@ATL@@@ATL@@SAJPEAPEAV12@@Z 0000000180036894     Biometrics.obj
 0004:000008a0       $pdata$??_G?$CComObject@V?$CComEnum@UIEnumConnectionPoints@@$1?_GUID_b196b285_bab4_101a_b69c_00aa00341d07@@3U__s_GUID@@BPEAUIConnectionPoint@@V?$_CopyInterface@UIConnectionPoint@@@ATL@@VCComSingleThreadModel@6@@ATL@@@ATL@@UEAAPEAXI@Z 00000001800368a0     Biometrics.obj
 0004:000008ac       $pdata$?Release@?$CComAggObject@VCOPOSBiometrics@@@ATL@@UEAAKXZ 00000001800368ac     Biometrics.obj
 0004:000008b8       $pdata$?QueryInterface@?$CComAggObject@VCOPOSBiometrics@@@ATL@@UEAAJAEBU_GUID@@PEAPEAX@Z 00000001800368b8     Biometrics.obj
 0004:000008c4       $pdata$??0?$CComContainedObject@VCOPOSBiometrics@@@ATL@@QEAA@PEAX@Z 00000001800368c4     Biometrics.obj
 0004:000008d0       $pdata$??_G?$CComContainedObject@VCOPOSBiometrics@@@ATL@@UEAAPEAXI@Z 00000001800368d0     Biometrics.obj
 0004:000008dc       $pdata$??_G?$CComAggObject@VCOPOSBiometrics@@@ATL@@UEAAPEAXI@Z 00000001800368dc     Biometrics.obj
 0004:000008e8       $pdata$??0?$CComObject@VCOPOSBiometrics@@@ATL@@QEAA@PEAX@Z 00000001800368e8     Biometrics.obj
 0004:000008f4       $pdata$??1?$CComObject@VCOPOSBiometrics@@@ATL@@UEAA@XZ 00000001800368f4     Biometrics.obj
 0004:00000900       $pdata$?Release@?$CComObject@VCOPOSBiometrics@@@ATL@@UEAAKXZ 0000000180036900     Biometrics.obj
 0004:0000090c       $pdata$??_G?$CComObject@VCOPOSBiometrics@@@ATL@@UEAAPEAXI@Z 000000018003690c     Biometrics.obj
 0004:00000918       $pdata$??__E?pConnMap@?$IConnectionPointContainerImpl@VCOPOSBiometrics@@@ATL@@0PEBU_ATL_CONNMAP_ENTRY@2@EB@@YAXXZ 0000000180036918     Biometrics.obj
 0004:00000924       $pdata$??1?$CComEnumImpl@UIEnumConnections@@$1?_GUID_b196b287_bab4_101a_b69c_00aa00341d07@@3U__s_GUID@@BUtagCONNECTDATA@@V?$_Copy@UtagCONNECTDATA@@@ATL@@@ATL@@UEAA@XZ 0000000180036924     Biometrics.obj
 0004:00000930       $pdata$?Next@?$CComEnumImpl@UIEnumConnections@@$1?_GUID_b196b287_bab4_101a_b69c_00aa00341d07@@3U__s_GUID@@BUtagCONNECTDATA@@V?$_Copy@UtagCONNECTDATA@@@ATL@@@ATL@@UEAAJKPEAUtagCONNECTDATA@@PEAK@Z 0000000180036930     Biometrics.obj
 0004:0000093c       $pdata$?Clone@?$CComEnumImpl@UIEnumConnections@@$1?_GUID_b196b287_bab4_101a_b69c_00aa00341d07@@3U__s_GUID@@BUtagCONNECTDATA@@V?$_Copy@UtagCONNECTDATA@@@ATL@@@ATL@@UEAAJPEAPEAUIEnumConnections@@@Z 000000018003693c     Biometrics.obj
 0004:00000948       $pdata$?Init@?$CComEnumImpl@UIEnumConnections@@$1?_GUID_b196b287_bab4_101a_b69c_00aa00341d07@@3U__s_GUID@@BUtagCONNECTDATA@@V?$_Copy@UtagCONNECTDATA@@@ATL@@@ATL@@QEAAJPEAUtagCONNECTDATA@@0PEAUIUnknown@@W4CComEnumFlags@2@@Z 0000000180036948     Biometrics.obj
 0004:00000954       $pdata$?CreateInstance@?$CComObject@V?$CComEnum@UIEnumConnections@@$1?_GUID_b196b287_bab4_101a_b69c_00aa00341d07@@3U__s_GUID@@BUtagCONNECTDATA@@V?$_Copy@UtagCONNECTDATA@@@ATL@@VCComSingleThreadModel@6@@ATL@@@ATL@@SAJPEAPEAV12@@Z 0000000180036954     Biometrics.obj
 0004:00000960       $pdata$??_G?$CComObject@V?$CComEnum@UIEnumConnections@@$1?_GUID_b196b287_bab4_101a_b69c_00aa00341d07@@3U__s_GUID@@BUtagCONNECTDATA@@V?$_Copy@UtagCONNECTDATA@@@ATL@@VCComSingleThreadModel@6@@ATL@@@ATL@@UEAAPEAXI@Z 0000000180036960     Biometrics.obj
 0004:0000096c       $pdata$??1CComControlBase@ATL@@UEAA@XZ 000000018003696c     BiometricsImpl.obj
 0004:00000978       $pdata$??1?$IConnectionPointImpl@VCOPOSBiometrics@@$1?DIID__IOPOSBiometricsEvents@@3U_GUID@@BVCComDynamicUnkArray@ATL@@@ATL@@QEAA@XZ 0000000180036978     BiometricsImpl.obj
 0004:00000978       $pdata$??1?$IConnectionPointImpl@VCOPOSBiometrics@@$1?IID_IPropertyNotifySink@@3U_GUID@@BVCComDynamicUnkArray@ATL@@@ATL@@QEAA@XZ 0000000180036978     BiometricsImpl.obj
 0004:00000984       $pdata$?FinalConstruct@COPOSBiometrics@@QEAAJXZ 0000000180036984     BiometricsImpl.obj
 0004:00000990       $pdata$??1COPOSBiometrics@@UEAA@XZ 0000000180036990     BiometricsImpl.obj
 0004:0000099c       $pdata$?GetOposProp@COPOSBiometrics@@IEAAJJPEAJJ@Z 000000018003699c     BiometricsImpl.obj
 0004:000009a8       $pdata$?SetOposProp@COPOSBiometrics@@IEAAJJJJ@Z 00000001800369a8     BiometricsImpl.obj
 0004:000009b4       $pdata$?GetOposProp@COPOSBiometrics@@IEAAJJPEAPEA_WJ@Z 00000001800369b4     BiometricsImpl.obj
 0004:000009c0       $pdata$?DoInvoke@COPOSBiometrics@@IEAAJJPEAVOposVariant@@IHPEAJ_N@Z 00000001800369c0     BiometricsImpl.obj
 0004:000009cc       $pdata$?SetCOFreezeEvents@COPOSBiometrics@@IEAAXF@Z 00000001800369cc     BiometricsImpl.obj
 0004:000009d8       $pdata$?FreezeEvents@COPOSBiometrics@@MEAAJH@Z 00000001800369d8     BiometricsImpl.obj
 0004:000009e4       $pdata$?OnDraw@COPOSBiometrics@@MEAAJAEAUATL_DRAWINFO@@@Z 00000001800369e4     BiometricsImpl.obj
 0004:000009f0       $pdata$?EventInit@COPOSBiometrics@@IEAAJXZ 00000001800369f0     BiometricsImpl.obj
 0004:000009fc       $pdata$?EventUninit@COPOSBiometrics@@IEAAXXZ 00000001800369fc     BiometricsImpl.obj
 0004:00000a08       $pdata$?s_EventWindowProc@COPOSBiometrics@@KA_JPEAUHWND__@@I_K_J@Z 0000000180036a08     BiometricsImpl.obj
 0004:00000a14       $pdata$?EventWindowProc@COPOSBiometrics@@IEAA_JI_K_J@Z 0000000180036a14     BiometricsImpl.obj
 0004:00000a20       $pdata$?SOProcessID@COPOSBiometrics@@UEAAJPEAJ@Z 0000000180036a20     BiometricsImpl.obj
 0004:00000a2c       $pdata$?get_AutoDisable@COPOSBiometrics@@UEAAJPEAF@Z 0000000180036a2c     BiometricsImpl.obj
 0004:00000a38       $pdata$?get_Claimed@COPOSBiometrics@@UEAAJPEAF@Z 0000000180036a38     BiometricsImpl.obj
 0004:00000a44       $pdata$?get_DataEventEnabled@COPOSBiometrics@@UEAAJPEAF@Z 0000000180036a44     BiometricsImpl.obj
 0004:00000a50       $pdata$?get_DeviceEnabled@COPOSBiometrics@@UEAAJPEAF@Z 0000000180036a50     BiometricsImpl.obj
 0004:00000a5c       $pdata$?get_FreezeEvents@COPOSBiometrics@@UEAAJPEAF@Z 0000000180036a5c     BiometricsImpl.obj
 0004:00000a68       $pdata$?put_FreezeEvents@COPOSBiometrics@@UEAAJF@Z 0000000180036a68     BiometricsImpl.obj
 0004:00000a74       $pdata$?get_ResultCode@COPOSBiometrics@@UEAAJPEAJ@Z 0000000180036a74     BiometricsImpl.obj
 0004:00000a80       $pdata$?get_State@COPOSBiometrics@@UEAAJPEAJ@Z 0000000180036a80     BiometricsImpl.obj
 0004:00000a8c       $pdata$?get_ControlObjectDescription@COPOSBiometrics@@UEAAJPEAPEA_W@Z 0000000180036a8c     BiometricsImpl.obj
 0004:00000a98       $pdata$?get_CapStatisticsReporting@COPOSBiometrics@@UEAAJPEAF@Z 0000000180036a98     BiometricsImpl.obj
 0004:00000aa4       $pdata$?get_CapUpdateStatistics@COPOSBiometrics@@UEAAJPEAF@Z 0000000180036aa4     BiometricsImpl.obj
 0004:00000ab0       $pdata$?get_CapCompareFirmwareVersion@COPOSBiometrics@@UEAAJPEAF@Z 0000000180036ab0     BiometricsImpl.obj
 0004:00000abc       $pdata$?get_CapUpdateFirmware@COPOSBiometrics@@UEAAJPEAF@Z 0000000180036abc     BiometricsImpl.obj
 0004:00000ac8       $pdata$?CheckHealth@COPOSBiometrics@@UEAAJJPEAJ@Z 0000000180036ac8     BiometricsImpl.obj
 0004:00000ad4       $pdata$?ClaimDevice@COPOSBiometrics@@UEAAJJPEAJ@Z 0000000180036ad4     BiometricsImpl.obj
 0004:00000ae0       $pdata$?ClearInput@COPOSBiometrics@@UEAAJPEAJ@Z 0000000180036ae0     BiometricsImpl.obj
 0004:00000aec       $pdata$?Close@COPOSBiometrics@@UEAAJPEAJ@Z 0000000180036aec     BiometricsImpl.obj
 0004:00000af8       $pdata$?DirectIO@COPOSBiometrics@@UEAAJJPEAJPEAPEA_W0@Z 0000000180036af8     BiometricsImpl.obj
 0004:00000b04       $pdata$?Open@COPOSBiometrics@@UEAAJPEA_WPEAJ@Z 0000000180036b04     BiometricsImpl.obj
 0004:00000b10       $pdata$?ReleaseDevice@COPOSBiometrics@@UEAAJPEAJ@Z 0000000180036b10     BiometricsImpl.obj
 0004:00000b1c       $pdata$?ResetStatistics@COPOSBiometrics@@UEAAJPEA_WPEAJ@Z 0000000180036b1c     BiometricsImpl.obj
 0004:00000b28       $pdata$?RetrieveStatistics@COPOSBiometrics@@UEAAJPEAPEA_WPEAJ@Z 0000000180036b28     BiometricsImpl.obj
 0004:00000b34       $pdata$?UpdateStatistics@COPOSBiometrics@@UEAAJPEA_WPEAJ@Z 0000000180036b34     BiometricsImpl.obj
 0004:00000b40       $pdata$?CompareFirmwareVersion@COPOSBiometrics@@UEAAJPEA_WPEAJ1@Z 0000000180036b40     BiometricsImpl.obj
 0004:00000b4c       $pdata$?UpdateFirmware@COPOSBiometrics@@UEAAJPEA_WPEAJ@Z 0000000180036b4c     BiometricsImpl.obj
 0004:00000b58       $pdata$?ClearInputProperties@COPOSBiometrics@@UEAAJPEAJ@Z 0000000180036b58     BiometricsImpl.obj
 0004:00000b64       $pdata$?get_CapPrematchData@COPOSBiometrics@@UEAAJPEAF@Z 0000000180036b64     BiometricsImpl.obj
 0004:00000b70       $pdata$?get_CapRawSensorData@COPOSBiometrics@@UEAAJPEAF@Z 0000000180036b70     BiometricsImpl.obj
 0004:00000b7c       $pdata$?get_CapRealTimeData@COPOSBiometrics@@UEAAJPEAF@Z 0000000180036b7c     BiometricsImpl.obj
 0004:00000b88       $pdata$?get_CapTemplateAdaptation@COPOSBiometrics@@UEAAJPEAF@Z 0000000180036b88     BiometricsImpl.obj
 0004:00000b94       $pdata$?get_RealTimeDataEnabled@COPOSBiometrics@@UEAAJPEAF@Z 0000000180036b94     BiometricsImpl.obj
 0004:00000ba0       $pdata$?BeginEnrollCapture@COPOSBiometrics@@UEAAJPEA_W0PEAJ@Z 0000000180036ba0     BiometricsImpl.obj
 0004:00000bac       $pdata$?BeginVerifyCapture@COPOSBiometrics@@UEAAJPEAJ@Z 0000000180036bac     BiometricsImpl.obj
 0004:00000bb8       $pdata$?EndCapture@COPOSBiometrics@@UEAAJPEAJ@Z 0000000180036bb8     BiometricsImpl.obj
 0004:00000bc4       $pdata$?Identify@COPOSBiometrics@@UEAAJJJFUtagVARIANT@@PEAU2@JPEAJ@Z 0000000180036bc4     BiometricsImpl.obj
 0004:00000bd0       $pdata$?IdentifyMatch@COPOSBiometrics@@UEAAJJJFPEA_WUtagVARIANT@@PEAU2@PEAJ@Z 0000000180036bd0     BiometricsImpl.obj
 0004:00000bdc       $pdata$?ProcessPrematchData@COPOSBiometrics@@UEAAJPEA_W0PEAPEA_WPEAJ@Z 0000000180036bdc     BiometricsImpl.obj
 0004:00000be8       $pdata$?Verify@COPOSBiometrics@@UEAAJJJFPEA_WPEAPEA_WPEAFPEAJ31J3@Z 0000000180036be8     BiometricsImpl.obj
 0004:00000bf4       $pdata$?VerifyMatch@COPOSBiometrics@@UEAAJJJFPEA_W0PEAPEA_WPEAFPEAJ313@Z 0000000180036bf4     BiometricsImpl.obj
 0004:00000c00       $pdata$atexit              0000000180036c00     LIBCMT:utility.obj
 0004:00000c0c       $pdata$_onexit             0000000180036c0c     LIBCMT:utility.obj
 0004:00000c18       $pdata$__scrt_is_nonwritable_in_current_image 0000000180036c18     LIBCMT:utility.obj
 0004:00000c24       $pdata$__scrt_is_nonwritable_in_current_image$filt$0 0000000180036c24     LIBCMT:utility.obj
 0004:00000c30       $pdata$__scrt_acquire_startup_lock 0000000180036c30     LIBCMT:utility.obj
 0004:00000c3c       $pdata$__scrt_release_startup_lock 0000000180036c3c     LIBCMT:utility.obj
 0004:00000c48       $pdata$__scrt_initialize_crt 0000000180036c48     LIBCMT:utility.obj
 0004:00000c54       $pdata$__scrt_uninitialize_crt 0000000180036c54     LIBCMT:utility.obj
 0004:00000c60       $pdata$__scrt_initialize_onexit_tables 0000000180036c60     LIBCMT:utility.obj
 0004:00000c6c       $pdata$__scrt_dllmain_exception_filter 0000000180036c6c     LIBCMT:utility.obj
 0004:00000c78       $pdata$__scrt_dllmain_before_initialize_c 0000000180036c78     LIBCMT:utility.obj
 0004:00000c84       $pdata$__scrt_dllmain_after_initialize_c 0000000180036c84     LIBCMT:utility.obj
 0004:00000c90       $pdata$__scrt_dllmain_uninitialize_c 0000000180036c90     LIBCMT:utility.obj
 0004:00000c9c       $pdata$__scrt_dllmain_uninitialize_critical 0000000180036c9c     LIBCMT:utility.obj
 0004:00000ca8       $pdata$__scrt_dllmain_crt_thread_attach 0000000180036ca8     LIBCMT:utility.obj
 0004:00000cb4       $pdata$__scrt_dllmain_crt_thread_detach 0000000180036cb4     LIBCMT:utility.obj
 0004:00000cc0       $pdata$_Init_thread_header 0000000180036cc0     LIBCMT:thread_safe_statics.obj
 0004:00000ccc       $pdata$_Init_thread_footer 0000000180036ccc     LIBCMT:thread_safe_statics.obj
 0004:00000cd8       $pdata$_Init_thread_wait   0000000180036cd8     LIBCMT:thread_safe_statics.obj
 0004:00000ce4       $pdata$_Init_thread_notify 0000000180036ce4     LIBCMT:thread_safe_statics.obj
 0004:00000cf0       $pdata$?__scrt_uninitialize_thread_safe_statics@@YAXXZ 0000000180036cf0     LIBCMT:thread_safe_statics.obj
 0004:00000cfc       $pdata$?__scrt_initialize_thread_safe_statics@@YAHXZ 0000000180036cfc     LIBCMT:thread_safe_statics.obj
 0004:00000d08       $pdata$__report_securityfailure 0000000180036d08     LIBCMT:gs_report.obj
 0004:00000d14       $pdata$__report_rangecheckfailure 0000000180036d14     LIBCMT:gs_report.obj
 0004:00000d20       $pdata$__report_gsfailure  0000000180036d20     LIBCMT:gs_report.obj
 0004:00000d2c       $pdata$capture_current_context 0000000180036d2c     LIBCMT:gs_report.obj
 0004:00000d38       $pdata$capture_previous_context 0000000180036d38     LIBCMT:gs_report.obj
 0004:00000d44       $pdata$__raise_securityfailure 0000000180036d44     LIBCMT:gs_report.obj
 0004:00000d50       $pdata$??2@YAPEAX_KAEBUnothrow_t@std@@@Z 0000000180036d50     LIBCMT:new_scalar_nothrow.obj
 0004:00000d5c       $pdata$?catch$0@?0???2@YAPEAX_KAEBUnothrow_t@std@@@Z@4HA 0000000180036d5c     LIBCMT:new_scalar_nothrow.obj
 0004:00000d68       $pdata$__GSHandlerCheckCommon 0000000180036d68     LIBCMT:gshandler.obj
 0004:00000d74       $pdata$__GSHandlerCheck    0000000180036d74     LIBCMT:gshandler.obj
 0004:00000d80       $pdata$__GSHandlerCheck_SEH 0000000180036d80     LIBCMT:gshandlerseh.obj
 0004:00000da4       $pdata$?dllmain_crt_process_attach@@YAHQEAUHINSTANCE__@@QEAX@Z 0000000180036da4     LIBCMT:dll_dllmain.obj
 0004:00000db0       $pdata$?fin$0@?0??dllmain_crt_process_attach@@YAHQEAUHINSTANCE__@@QEAX@Z@4HA 0000000180036db0     LIBCMT:dll_dllmain.obj
 0004:00000dbc       $pdata$?dllmain_crt_process_detach@@YAH_N@Z 0000000180036dbc     LIBCMT:dll_dllmain.obj
 0004:00000dc8       $pdata$?fin$0@?0??dllmain_crt_process_detach@@YAH_N@Z@4HA 0000000180036dc8     LIBCMT:dll_dllmain.obj
 0004:00000dd4       $pdata$?fin$1@?0??dllmain_crt_process_detach@@YAH_N@Z@4HA 0000000180036dd4     LIBCMT:dll_dllmain.obj
 0004:00000de0       $pdata$?dllmain_crt_dispatch@@YAHQEAUHINSTANCE__@@KQEAX@Z 0000000180036de0     LIBCMT:dll_dllmain.obj
 0004:00000dec       $pdata$?dllmain_dispatch@@YAHQEAUHINSTANCE__@@KQEAX@Z 0000000180036dec     LIBCMT:dll_dllmain.obj
 0004:00000df8       $pdata$?filt$0@?0??dllmain_dispatch@@YAHQEAUHINSTANCE__@@KQEAX@Z@4HA 0000000180036df8     LIBCMT:dll_dllmain.obj
 0004:00000e04       $pdata$_DllMainCRTStartup  0000000180036e04     LIBCMT:dll_dllmain.obj
 0004:00000e10       $pdata$??2@YAPEAX_K@Z      0000000180036e10     LIBCMT:new_scalar.obj
 0004:00000e1c       $pdata$__isa_available_init 0000000180036e1c     LIBCMT:cpu_disp.obj
 0004:00000e28       $pdata$__scrt_fastfail     0000000180036e28     LIBCMT:utility_desktop.obj
 0004:00000e34       $pdata$__security_init_cookie 0000000180036e34     LIBCMT:gs_support.obj
 0004:00000e40       $pdata$__scrt_initialize_default_local_stdio_options 0000000180036e40     LIBCMT:default_local_stdio_options.obj
 0004:00000e4c       $pdata$_RTC_Initialize     0000000180036e4c     LIBCMT:initsect.obj
 0004:00000e58       $pdata$_RTC_Terminate      0000000180036e58     LIBCMT:initsect.obj
 0004:00000e64       $pdata$??0exception@std@@QEAA@AEBV01@@Z 0000000180036e64     LIBCMT:throw_bad_alloc.obj
 0004:00000e70       $pdata$??_Gbad_alloc@std@@UEAAPEAXI@Z 0000000180036e70     LIBCMT:throw_bad_alloc.obj
 0004:00000e70       $pdata$??_Gbad_array_new_length@std@@UEAAPEAXI@Z 0000000180036e70     LIBCMT:throw_bad_alloc.obj
 0004:00000e70       $pdata$??_Gexception@std@@UEAAPEAXI@Z 0000000180036e70     LIBCMT:throw_bad_alloc.obj
 0004:00000e70       $pdata$??_Gbad_exception@std@@UEAAPEAXI@Z 0000000180036e70     libvcruntime:frame.obj
 0004:00000e7c       $pdata$??0bad_alloc@std@@QEAA@AEBV01@@Z 0000000180036e7c     LIBCMT:throw_bad_alloc.obj
 0004:00000e88       $pdata$??0bad_array_new_length@std@@QEAA@AEBV01@@Z 0000000180036e88     LIBCMT:throw_bad_alloc.obj
 0004:00000e94       $pdata$?__scrt_throw_std_bad_alloc@@YAXXZ 0000000180036e94     LIBCMT:throw_bad_alloc.obj
 0004:00000ea0       $pdata$?__scrt_throw_std_bad_array_new_length@@YAXXZ 0000000180036ea0     LIBCMT:throw_bad_alloc.obj
 0004:00000ec4       $pdata$??_Gtype_info@@UEAAPEAXI@Z 0000000180036ec4     LIBCMT:std_type_info_static.obj
 0004:00000ed0       $pdata$??0CAtlBaseModule@ATL@@QEAA@XZ 0000000180036ed0     atls:atlbase.obj
 0004:00000edc       $pdata$??1CAtlBaseModule@ATL@@QEAA@XZ 0000000180036edc     atls:atlbase.obj
 0004:00000ee8       $pdata$??__E_AtlBaseModule@ATL@@YAXXZ 0000000180036ee8     atls:atlbase.obj
 0004:00000ef4       $pdata$AtlThunk_AllocateData 0000000180036ef4     atls:atlthunk.obj
 0004:00000f00       $pdata$AtlThunk_InitData   0000000180036f00     atls:atlthunk.obj
 0004:00000f0c       $pdata$AtlThunk_DataToCode 0000000180036f0c     atls:atlthunk.obj
 0004:00000f18       $pdata$AtlThunk_FreeData   0000000180036f18     atls:atlthunk.obj
 0004:00000f24       $pdata$?__InitializeThunkPool@@YAHXZ 0000000180036f24     atls:atlthunk.obj
 0004:00000f30       $pdata$?__AllocStdCallThunk_cmn@@YAPEAXXZ 0000000180036f30     atls:atlthunk.obj
 0004:00000f3c       $pdata$??$GetProcAddressAll@P6AP6A_JPEAUHWND__@@I_K_J@ZPEAUAtlThunkData_t@@@Z@@YAP6AP6A_JPEAUHWND__@@I_K_J@ZPEAUAtlThunkData_t@@@ZPEAP6AP6A_J0I12@Z3@Z@Z 0000000180036f3c     atls:atlthunk.obj
 0004:00000f3c       $pdata$??$GetProcAddressAll@P6APEAUAtlThunkData_t@@XZ@@YAP6APEAUAtlThunkData_t@@XZPEAP6APEAU0@XZ@Z 0000000180036f3c     atls:atlthunk.obj
 0004:00000f3c       $pdata$??$GetProcAddressAll@P6AXPEAUAtlThunkData_t@@@Z@@YAP6AXPEAUAtlThunkData_t@@@ZPEAP6AX0@Z@Z 0000000180036f3c     atls:atlthunk.obj
 0004:00000f3c       $pdata$??$GetProcAddressAll@P6AXPEAUAtlThunkData_t@@PEAX_K@Z@@YAP6AXPEAUAtlThunkData_t@@PEAX_K@ZPEAP6AX012@Z@Z 0000000180036f3c     atls:atlthunk.obj
 0004:00000f48       $pdata$_purecall           0000000180036f48     libvcruntime:purevirt.obj
 0004:00000f54       $pdata$wcsstr              0000000180036f54     libvcruntime:wcsstr.obj
 0004:00000f9c       $pdata$__vcrt_initialize   0000000180036f9c     libvcruntime:initialization.obj
 0004:00000fa8       $pdata$__vcrt_uninitialize 0000000180036fa8     libvcruntime:initialization.obj
 0004:00000fb4       $pdata$__vcrt_uninitialize_critical 0000000180036fb4     libvcruntime:initialization.obj
 0004:00000fc0       $pdata$__vcrt_thread_attach 0000000180036fc0     libvcruntime:initialization.obj
 0004:00000fcc       $pdata$__vcrt_thread_detach 0000000180036fcc     libvcruntime:initialization.obj
 0004:00000fd8       $pdata$__C_specific_handler 0000000180036fd8     libvcruntime:riscchandler.obj
 0004:00000fe4       $pdata$?DecompFuncInfo@FH4@@YA_JPEAEAEAUFuncInfo4@1@_KH_N@Z 0000000180036fe4     libvcruntime:risctrnsctrl.obj
 0004:00000ff0       $pdata$?FrameUnwindToEmptyState@__FrameHandler4@@SAXPEA_KPEAU_xDISPATCHER_CONTEXT@@PEAUFuncInfo4@FH4@@@Z 0000000180036ff0     libvcruntime:risctrnsctrl.obj
 0004:00000ffc       $pdata$?UnwindNestedFrames@__FrameHandler4@@SAXPEA_KPEAUEHExceptionRecord@@PEAU_CONTEXT@@0PEAXPEAUFuncInfo4@FH4@@HHPEAUHandlerType4@5@PEAU_xDISPATCHER_CONTEXT@@E@Z 0000000180036ffc     libvcruntime:risctrnsctrl.obj
 0004:00001008       $pdata$?GetRangeOfTrysToCheck@__FrameHandler4@@SA?AU?$pair@Viterator@TryBlockMap4@FH4@@V123@@std@@AEAVTryBlockMap4@FH4@@HPEAU_xDISPATCHER_CONTEXT@@PEAUFuncInfo4@5@H@Z 0000000180037008     libvcruntime:risctrnsctrl.obj
 0004:00001014       $pdata$_GetImageBase       0000000180037014     libvcruntime:risctrnsctrl.obj
 0004:00001020       $pdata$_SetImageBase       0000000180037020     libvcruntime:risctrnsctrl.obj
 0004:0000102c       $pdata$_GetThrowImageBase  000000018003702c     libvcruntime:risctrnsctrl.obj
 0004:00001038       $pdata$_SetThrowImageBase  0000000180037038     libvcruntime:risctrnsctrl.obj
 0004:00001044       $pdata$_CreateFrameInfo    0000000180037044     libvcruntime:risctrnsctrl.obj
 0004:00001050       $pdata$_FindAndUnlinkFrame 0000000180037050     libvcruntime:risctrnsctrl.obj
 0004:0000105c       $pdata$__CxxFrameHandler4  000000018003705c     libvcruntime:risctrnsctrl.obj
 0004:00001068       $pdata$??$_CallSETranslator@V__FrameHandler4@@@@YAHPEAUEHExceptionRecord@@PEA_KPEAU_CONTEXT@@PEAU_xDISPATCHER_CONTEXT@@PEAUFuncInfo4@FH4@@K1H@Z 0000000180037068     libvcruntime:risctrnsctrl.obj
 0004:00001074       $pdata$?filt$0@?0???$_CallSETranslator@V__FrameHandler4@@@@YAHPEAUEHExceptionRecord@@PEA_KPEAU_CONTEXT@@PEAU_xDISPATCHER_CONTEXT@@PEAUFuncInfo4@FH4@@K1H@Z@4HA 0000000180037074     libvcruntime:risctrnsctrl.obj
 0004:00001080       $pdata$_IsExceptionObjectToBeDestroyed 0000000180037080     libvcruntime:ehhelpers.obj
 0004:0000108c       $pdata$__FrameUnwindFilter 000000018003708c     libvcruntime:ehhelpers.obj
 0004:00001098       $pdata$__DestructExceptionObject 0000000180037098     libvcruntime:ehhelpers.obj
 0004:000010a4       $pdata$__DestructExceptionObject$filt$0 00000001800370a4     libvcruntime:ehhelpers.obj
 0004:000010b0       $pdata$__std_type_info_destroy_list 00000001800370b0     libvcruntime:std_type_info.obj
 0004:000010bc       $pdata$__std_exception_copy 00000001800370bc     libvcruntime:std_exception.obj
 0004:000010c8       $pdata$__std_exception_destroy 00000001800370c8     libvcruntime:std_exception.obj
 0004:000010d4       $pdata$_CxxThrowException  00000001800370d4     libvcruntime:throw.obj
 0004:000010e0       $pdata$__vcrt_initialize_ptd 00000001800370e0     libvcruntime:per_thread_data.obj
 0004:000010ec       $pdata$__vcrt_uninitialize_ptd 00000001800370ec     libvcruntime:per_thread_data.obj
 0004:000010f8       $pdata$__vcrt_getptd       00000001800370f8     libvcruntime:per_thread_data.obj
 0004:00001104       $pdata$__vcrt_getptd_noexit 0000000180037104     libvcruntime:per_thread_data.obj
 0004:00001110       $pdata$__vcrt_freeptd      0000000180037110     libvcruntime:per_thread_data.obj
 0004:0000111c       $pdata$__vcrt_freefls      000000018003711c     libvcruntime:per_thread_data.obj
 0004:00001128       $pdata$__vcrt_initialize_locks 0000000180037128     libvcruntime:locks.obj
 0004:00001134       $pdata$__vcrt_uninitialize_locks 0000000180037134     libvcruntime:locks.obj
 0004:00001164       $pdata$?StateFromIp@__FrameHandler4@@SAHPEAUFuncInfo4@FH4@@PEAU_xDISPATCHER_CONTEXT@@_K@Z 0000000180037164     libvcruntime:ehstate.obj
 0004:00001170       $pdata$?getStartStop@UWMap4@FH4@@QEAAXHHAEAViterator@12@0@Z 0000000180037170     libvcruntime:frame.obj
 0004:0000117c       $pdata$?getStateFromIterators@UWMap4@FH4@@SAHAEBViterator@12@H0H0@Z 000000018003717c     libvcruntime:frame.obj
 0004:00001188       $pdata$??0HandlerMap4@FH4@@QEAA@PEBUTryBlockMapEntry4@1@_KH@Z 0000000180037188     libvcruntime:frame.obj
 0004:00001194       $pdata$?FrameUnwindToState@__FrameHandler4@@SAXPEA_KPEAU_xDISPATCHER_CONTEXT@@PEAUFuncInfo4@FH4@@H@Z 0000000180037194     libvcruntime:frame.obj
 0004:000011a0       $pdata$?filt$0@?0??FrameUnwindToState@__FrameHandler4@@SAXPEA_KPEAU_xDISPATCHER_CONTEXT@@PEAUFuncInfo4@FH4@@H@Z@4HA 00000001800371a0     libvcruntime:frame.obj
 0004:000011ac       $pdata$?fin$1@?0??FrameUnwindToState@__FrameHandler4@@SAXPEA_KPEAU_xDISPATCHER_CONTEXT@@PEAUFuncInfo4@FH4@@H@Z@4HA 00000001800371ac     libvcruntime:frame.obj
 0004:000011b8       $pdata$?CxxCallCatchBlock@__FrameHandler4@@SAPEAXPEAU_EXCEPTION_RECORD@@@Z 00000001800371b8     libvcruntime:frame.obj
 0004:000011c4       $pdata$?filt$0@?0??CxxCallCatchBlock@__FrameHandler4@@SAPEAXPEAU_EXCEPTION_RECORD@@@Z@4HA 00000001800371c4     libvcruntime:frame.obj
 0004:000011d0       $pdata$?fin$1@?0??CxxCallCatchBlock@__FrameHandler4@@SAPEAXPEAU_EXCEPTION_RECORD@@@Z@4HA 00000001800371d0     libvcruntime:frame.obj
 0004:000011dc       $pdata$??0bad_exception@std@@QEAA@AEBV01@@Z 00000001800371dc     libvcruntime:frame.obj
 0004:000011e8       $pdata$?ExFilterRethrow@@YAHPEAU_EXCEPTION_POINTERS@@PEAUEHExceptionRecord@@PEAH@Z 00000001800371e8     libvcruntime:frame.obj
 0004:000011f4       $pdata$?ExFilterRethrowFH4@@YAHPEAU_EXCEPTION_POINTERS@@PEAUEHExceptionRecord@@HPEAH@Z 00000001800371f4     libvcruntime:frame.obj
 0004:00001200       $pdata$?IsInExceptionSpec@@YAEPEAUEHExceptionRecord@@PEBU_s_ESTypeList@@@Z 0000000180037200     libvcruntime:frame.obj
 0004:0000120c       $pdata$?Is_bad_exception_allowed@@YAEPEBU_s_ESTypeList@@@Z 000000018003720c     libvcruntime:frame.obj
 0004:00001218       $pdata$??$__InternalCxxFrameHandler@V__FrameHandler4@@@@YA?AW4_EXCEPTION_DISPOSITION@@PEAUEHExceptionRecord@@PEA_KPEAU_CONTEXT@@PEAU_xDISPATCHER_CONTEXT@@PEAUFuncInfo4@FH4@@H1E@Z 0000000180037218     libvcruntime:frame.obj
 0004:00001224       $pdata$??$TypeMatchHelper@V__FrameHandler3@@@@YAHPEBU_s_HandlerType@@PEBU_s_CatchableType@@PEBU_s_ThrowInfo@@@Z 0000000180037224     libvcruntime:frame.obj
 0004:00001230       $pdata$??$TypeMatchHelper@V__FrameHandler4@@@@YAHPEAUHandlerType4@FH4@@PEBU_s_CatchableType@@PEBU_s_ThrowInfo@@@Z 0000000180037230     libvcruntime:frame.obj
 0004:0000123c       $pdata$??$BuildCatchObjectHelperInternal@V__FrameHandler4@@@@YAHPEAUEHExceptionRecord@@PEAXPEAUHandlerType4@FH4@@PEBU_s_CatchableType@@@Z 000000018003723c     libvcruntime:frame.obj
 0004:00001248       $pdata$??$BuildCatchObjectInternal@V__FrameHandler4@@@@YAXPEAUEHExceptionRecord@@PEAXPEAUHandlerType4@FH4@@PEBU_s_CatchableType@@@Z 0000000180037248     libvcruntime:frame.obj
 0004:00001254       $pdata$??$FindHandler@V__FrameHandler4@@@@YAXPEAUEHExceptionRecord@@PEA_KPEAU_CONTEXT@@PEAU_xDISPATCHER_CONTEXT@@PEAUFuncInfo4@FH4@@EH1@Z 0000000180037254     libvcruntime:frame.obj
 0004:00001260       $pdata$??$CatchIt@V__FrameHandler4@@@@YAXPEAUEHExceptionRecord@@PEA_KPEAU_CONTEXT@@PEAU_xDISPATCHER_CONTEXT@@PEAUFuncInfo4@FH4@@PEAUHandlerType4@4@PEBU_s_CatchableType@@PEAUTryBlockMapEntry4@4@H1EE@Z 0000000180037260     libvcruntime:frame.obj
 0004:0000126c       $pdata$??$FindHandlerForForeignException@V__FrameHandler4@@@@YAXPEAUEHExceptionRecord@@PEA_KPEAU_CONTEXT@@PEAU_xDISPATCHER_CONTEXT@@PEAUFuncInfo4@FH4@@HH1@Z 000000018003726c     libvcruntime:frame.obj
 0004:00001278       $pdata$__vcrt_FlsAlloc     0000000180037278     libvcruntime:winapi_downlevel.obj
 0004:00001284       $pdata$__vcrt_FlsFree      0000000180037284     libvcruntime:winapi_downlevel.obj
 0004:00001290       $pdata$__vcrt_FlsGetValue  0000000180037290     libvcruntime:winapi_downlevel.obj
 0004:0000129c       $pdata$__vcrt_FlsSetValue  000000018003729c     libvcruntime:winapi_downlevel.obj
 0004:000012a8       $pdata$__vcrt_InitializeCriticalSectionEx 00000001800372a8     libvcruntime:winapi_downlevel.obj
 0004:000012b4       $pdata$?try_get_function@@YAPEAXW4function_id@?A0x5302d918@@QEBDQEBW4module_id@2@2@Z 00000001800372b4     libvcruntime:winapi_downlevel.obj
 0004:000012f0       $pdata$_invalid_parameter_noinfo 00000001800372f0     libucrt:invalid_parameter.obj
 0004:000012fc       $pdata$_invoke_watson      00000001800372fc     libucrt:invalid_parameter.obj
 0004:00001308       $pdata$__acrt_call_reportfault 0000000180037308     libucrt:invalid_parameter.obj
 0004:00001314       $pdata$_invalid_parameter  0000000180037314     libucrt:invalid_parameter.obj
 0004:00001320       $pdata$_errno              0000000180037320     libucrt:errno.obj
 0004:0000132c       $pdata$__doserrno          000000018003732c     libucrt:errno.obj
 0004:00001338       $pdata$__acrt_errno_map_os_error 0000000180037338     libucrt:errno.obj
 0004:00001344       $pdata$_recalloc_base      0000000180037344     libucrt:recalloc.obj
 0004:00001350       $pdata$_resetstkoflw       0000000180037350     libucrt:resetstk.obj
 0004:0000135c       $pdata$wcscat_s            000000018003735c     libucrt:wcscat_s.obj
 0004:00001368       $pdata$wcscpy_s            0000000180037368     libucrt:wcscpy_s.obj
 0004:00001374       $pdata$wcsncpy_s           0000000180037374     libucrt:wcsncpy_s.obj
 0004:00001380       $pdata$??0_LocaleUpdate@@QEAA@QEAU__crt_locale_pointers@@@Z 0000000180037380     libucrt:output.obj
 0004:0000138c       $pdata$__stdio_common_vswprintf_s 000000018003738c     libucrt:output.obj
 0004:00001398       $pdata$?write_string@?$string_output_adapter@_W@__crt_stdio_output@@QEBAXQEB_WHQEAHAEAV__crt_deferred_errno_cache@@@Z 0000000180037398     libucrt:output.obj
 0004:000013a4       $pdata$??$common_vsprintf@Vformat_validation_base@__crt_stdio_output@@_W@@YAH_KQEA_W0QEB_WQEAU__crt_locale_pointers@@QEAD@Z 00000001800373a4     libucrt:output.obj
 0004:000013b0       $pdata$??$write_multiple_characters@V?$string_output_adapter@_W@__crt_stdio_output@@D@__crt_stdio_output@@YAXAEBV?$string_output_adapter@_W@0@DHQEAH@Z 00000001800373b0     libucrt:output.obj
 0004:000013bc       $pdata$??$ensure_buffer_is_big_enough@D@formatting_buffer@__crt_stdio_output@@QEAA_N_K@Z 00000001800373bc     libucrt:output.obj
 0004:000013c8       $pdata$??$ensure_buffer_is_big_enough@_W@formatting_buffer@__crt_stdio_output@@QEAA_N_K@Z 00000001800373c8     libucrt:output.obj
 0004:000013d4       $pdata$?process@?$output_processor@_WV?$string_output_adapter@_W@__crt_stdio_output@@V?$format_validation_base@_WV?$string_output_adapter@_W@__crt_stdio_output@@@2@@__crt_stdio_output@@QEAAHXZ 00000001800373d4     libucrt:output.obj
 0004:000013e0       $pdata$?parse_int_from_format_string@?$output_processor@_WV?$string_output_adapter@_W@__crt_stdio_output@@V?$format_validation_base@_WV?$string_output_adapter@_W@__crt_stdio_output@@@2@@__crt_stdio_output@@AEAA_NQEAH@Z 00000001800373e0     libucrt:output.obj
 0004:000013ec       $pdata$?state_case_size@?$output_processor@_WV?$string_output_adapter@_W@__crt_stdio_output@@V?$format_validation_base@_WV?$string_output_adapter@_W@__crt_stdio_output@@@2@@__crt_stdio_output@@AEAA_NXZ 00000001800373ec     libucrt:output.obj
 0004:000013f8       $pdata$?state_case_type@?$output_processor@_WV?$string_output_adapter@_W@__crt_stdio_output@@V?$format_validation_base@_WV?$string_output_adapter@_W@__crt_stdio_output@@@2@@__crt_stdio_output@@AEAA_NXZ 00000001800373f8     libucrt:output.obj
 0004:00001404       $pdata$?type_case_c_tchar@?$output_processor@_WV?$string_output_adapter@_W@__crt_stdio_output@@V?$format_validation_base@_WV?$string_output_adapter@_W@__crt_stdio_output@@@2@@__crt_stdio_output@@AEAA_N_W@Z 0000000180037404     libucrt:output.obj
 0004:00001410       $pdata$?type_case_Z@?$output_processor@_WV?$string_output_adapter@_W@__crt_stdio_output@@V?$format_validation_base@_WV?$string_output_adapter@_W@__crt_stdio_output@@@2@@__crt_stdio_output@@AEAA_NXZ 0000000180037410     libucrt:output.obj
 0004:0000141c       $pdata$?type_case_s@?$output_processor@_WV?$string_output_adapter@_W@__crt_stdio_output@@V?$format_validation_base@_WV?$string_output_adapter@_W@__crt_stdio_output@@@2@@__crt_stdio_output@@AEAA_NXZ 000000018003741c     libucrt:output.obj
 0004:00001428       $pdata$?type_case_a@?$output_processor@_WV?$string_output_adapter@_W@__crt_stdio_output@@V?$format_validation_base@_WV?$string_output_adapter@_W@__crt_stdio_output@@@2@@__crt_stdio_output@@AEAA_NXZ 0000000180037428     libucrt:output.obj
 0004:00001434       $pdata$?type_case_integer@?$output_processor@_WV?$string_output_adapter@_W@__crt_stdio_output@@V?$format_validation_base@_WV?$string_output_adapter@_W@__crt_stdio_output@@@2@@__crt_stdio_output@@AEAA_NI_N@Z 0000000180037434     libucrt:output.obj
 0004:00001440       $pdata$?type_case_n@?$output_processor@_WV?$string_output_adapter@_W@__crt_stdio_output@@V?$format_validation_base@_WV?$string_output_adapter@_W@__crt_stdio_output@@@2@@__crt_stdio_output@@AEAA_NXZ 0000000180037440     libucrt:output.obj
 0004:0000144c       $pdata$?write_stored_string_tchar@?$output_processor@_WV?$string_output_adapter@_W@__crt_stdio_output@@V?$format_validation_base@_WV?$string_output_adapter@_W@__crt_stdio_output@@@2@@__crt_stdio_output@@AEAA_N_W@Z 000000018003744c     libucrt:output.obj
 0004:00001458       $pdata$??$type_case_integer_parse_into_buffer@_K@?$output_processor@_WV?$string_output_adapter@_W@__crt_stdio_output@@V?$format_validation_base@_WV?$string_output_adapter@_W@__crt_stdio_output@@@2@@__crt_stdio_output@@AEAAX_KI_N@Z 0000000180037458     libucrt:output.obj
 0004:00001464       $pdata$??$type_case_integer_parse_into_buffer@I@?$output_processor@_WV?$string_output_adapter@_W@__crt_stdio_output@@V?$format_validation_base@_WV?$string_output_adapter@_W@__crt_stdio_output@@@2@@__crt_stdio_output@@AEAAXII_N@Z 0000000180037464     libucrt:output.obj
 0004:00001470       $pdata$_seh_filter_exe     0000000180037470     libucrt:exception_filter.obj
 0004:0000147c       $pdata$?try_cor_exit_process@@YAXI@Z 000000018003747c     libucrt:exit.obj
 0004:00001488       $pdata$?exit_or_terminate_process@@YAXI@Z 0000000180037488     libucrt:exit.obj
 0004:00001494       $pdata$?common_exit@@YAXHW4_crt_exit_cleanup_mode@@W4_crt_exit_return_mode@@@Z 0000000180037494     libucrt:exit.obj
 0004:000014a0       $pdata$??R<lambda_6e4b09c48022b2350581041d5f6b0c4c>@@QEBA@XZ 00000001800374a0     libucrt:exit.obj
 0004:000014ac       $pdata$?filt$0@?0???R<lambda_6e4b09c48022b2350581041d5f6b0c4c>@@QEBA@XZ@4HA 00000001800374ac     libucrt:exit.obj
 0004:000014b8       $pdata$??$?RV<lambda_d80eeec6fff315bfe5c115232f3240e3>@@AEAV<lambda_6e4b09c48022b2350581041d5f6b0c4c>@@V<lambda_2358e3775559c9db80273638284d5e45>@@@?$__crt_seh_guarded_call@X@@QEAAX$$QEAV<lambda_d80eeec6fff315bfe5c115232f3240e3>@@AEAV<lambda_6e4b09c48022b2350581041d5f6b0c4c>@@$$QEAV<lambda_2358e3775559c9db80273638284d5e45>@@@Z 00000001800374b8     libucrt:exit.obj
 0004:000014c4       $pdata$?fin$0@?0???$?RV<lambda_0ae27a3a962d80f24befdcbee591983d>@@AEAV<lambda_8d0ee55de4b1038c4002e0adecdf1839>@@V<lambda_dc504788e8f1664fe9b84e20bfb512f2>@@@?$__crt_seh_guarded_call@X@@QEAAX$$QEAV<lambda_0ae27a3a962d80f24befdcbee591983d>@@AEAV<lambda_8d0ee55de4b1038c4002e0adecdf1839>@@$$QEAV<lambda_dc504788e8f1664fe9b84e20bfb512f2>@@@Z@4HA 00000001800374c4     libucrt:per_thread_data.obj
 0004:000014c4       $pdata$?fin$0@?0???$?RV<lambda_2d41944a1d46af3157314b8a01080d33>@@AEAV<lambda_8f455de75cd7d7f24b4096f044d8b9e6>@@V<lambda_aa500f224e6afead328df44964fe2772>@@@?$__crt_seh_guarded_call@X@@QEAAX$$QEAV<lambda_2d41944a1d46af3157314b8a01080d33>@@AEAV<lambda_8f455de75cd7d7f24b4096f044d8b9e6>@@$$QEAV<lambda_aa500f224e6afead328df44964fe2772>@@@Z@4HA 00000001800374c4     libucrt:per_thread_data.obj
 0004:000014c4       $pdata$?fin$0@?0???$?RV<lambda_aa87e3671a710a21b5dc78c0bdf72e11>@@AEAV<lambda_92619d2358a28f41a33ba319515a20b9>@@V<lambda_6992ecaafeb10aed2b74cb1fae11a551>@@@?$__crt_seh_guarded_call@X@@QEAAX$$QEAV<lambda_aa87e3671a710a21b5dc78c0bdf72e11>@@AEAV<lambda_92619d2358a28f41a33ba319515a20b9>@@$$QEAV<lambda_6992ecaafeb10aed2b74cb1fae11a551>@@@Z@4HA 00000001800374c4     libucrt:per_thread_data.obj
 0004:000014c4       $pdata$?fin$0@?0???$?RV<lambda_f2e299630e499de9f9a165e60fcd3db5>@@AEAV<lambda_2ae9d31cdba2644fcbeaf08da7c24588>@@V<lambda_40d01ff24d0e7b3814fdbdcee8eab3c7>@@@?$__crt_seh_guarded_call@X@@QEAAX$$QEAV<lambda_f2e299630e499de9f9a165e60fcd3db5>@@AEAV<lambda_2ae9d31cdba2644fcbeaf08da7c24588>@@$$QEAV<lambda_40d01ff24d0e7b3814fdbdcee8eab3c7>@@@Z@4HA 00000001800374c4     libucrt:per_thread_data.obj
 0004:000014c4       $pdata$?fin$0@?0???$?RV<lambda_efdfa57d1f175319df784efa44bb7b81>@@AEAV<lambda_5f0a4c1567f8adc6734073e5d1e1b35c>@@V<lambda_2e8a7d3640ea6ccb4c2413664c2db6fd>@@@?$__crt_seh_guarded_call@X@@QEAAX$$QEAV<lambda_efdfa57d1f175319df784efa44bb7b81>@@AEAV<lambda_5f0a4c1567f8adc6734073e5d1e1b35c>@@$$QEAV<lambda_2e8a7d3640ea6ccb4c2413664c2db6fd>@@@Z@4HA 00000001800374c4     libucrt:mbctype.obj
 0004:000014c4       $pdata$?fin$0@?0???$?RV<lambda_450d765d439847d4c735a33c368b5fc0>@@AEAV<lambda_44731a7d0e6d81c3e6aa82d741081786>@@V<lambda_601a2a7da3b7a96e9554ac7215c4b07c>@@@?$__crt_seh_guarded_call@P6AXH@Z@@QEAAP6AXH@Z$$QEAV<lambda_450d765d439847d4c735a33c368b5fc0>@@AEAV<lambda_44731a7d0e6d81c3e6aa82d741081786>@@$$QEAV<lambda_601a2a7da3b7a96e9554ac7215c4b07c>@@@Z@4HA 00000001800374c4     libucrt:signal.obj
 0004:000014c4       $pdata$?fin$0@?0???$?RV<lambda_d80eeec6fff315bfe5c115232f3240e3>@@AEAV<lambda_6e4b09c48022b2350581041d5f6b0c4c>@@V<lambda_2358e3775559c9db80273638284d5e45>@@@?$__crt_seh_guarded_call@X@@QEAAX$$QEAV<lambda_d80eeec6fff315bfe5c115232f3240e3>@@AEAV<lambda_6e4b09c48022b2350581041d5f6b0c4c>@@$$QEAV<lambda_2358e3775559c9db80273638284d5e45>@@@Z@4HA 00000001800374c4     libucrt:exit.obj
 0004:000014c4       $pdata$?fin$0@?0???$?RV<lambda_638799b9deba96c50f710eeac98168cd>@@AEAV<lambda_22ebabd17bc4fa466a2aca6d8deb888d>@@V<lambda_a6f7d7db0129f75315ebf26d50c089f1>@@@?$__crt_seh_guarded_call@H@@QEAAH$$QEAV<lambda_638799b9deba96c50f710eeac98168cd>@@AEAV<lambda_22ebabd17bc4fa466a2aca6d8deb888d>@@$$QEAV<lambda_a6f7d7db0129f75315ebf26d50c089f1>@@@Z@4HA 00000001800374c4     libucrt:onexit.obj
 0004:000014c4       $pdata$?fin$0@?0???$?RV<lambda_7777bce6b2f8c936911f934f8298dc43>@@AEAV<lambda_f03950bc5685219e0bcd2087efbe011e>@@V<lambda_3883c3dff614d5e0c5f61bb1ac94921c>@@@?$__crt_seh_guarded_call@H@@QEAAH$$QEAV<lambda_7777bce6b2f8c936911f934f8298dc43>@@AEAV<lambda_f03950bc5685219e0bcd2087efbe011e>@@$$QEAV<lambda_3883c3dff614d5e0c5f61bb1ac94921c>@@@Z@4HA 00000001800374c4     libucrt:onexit.obj
 0004:000014d0       $pdata$_configure_narrow_argv 00000001800374d0     libucrt:argv_parsing.obj
 0004:000014dc       $pdata$__acrt_allocate_buffer_for_argv 00000001800374dc     libucrt:argv_parsing.obj
 0004:000014e8       $pdata$??$parse_command_line@D@@YAXPEADPEAPEAD0PEA_K2@Z 00000001800374e8     libucrt:argv_parsing.obj
 0004:000014f4       $pdata$__dcrt_uninitialize_environments_nolock 00000001800374f4     libucrt:environment_initialization.obj
 0004:00001500       $pdata$??$common_initialize_environment_nolock@D@@YAHXZ 0000000180037500     libucrt:environment_initialization.obj
 0004:0000150c       $pdata$??$uninitialize_environment_internal@D@@YAXAEAPEAPEAD@Z 000000018003750c     libucrt:environment_initialization.obj
 0004:00001518       $pdata$??$uninitialize_environment_internal@_W@@YAXAEAPEAPEA_W@Z 0000000180037518     libucrt:environment_initialization.obj
 0004:00001524       $pdata$??$free_environment@D@@YAXQEAPEAD@Z 0000000180037524     libucrt:environment_initialization.obj
 0004:00001524       $pdata$??$free_environment@_W@@YAXQEAPEA_W@Z 0000000180037524     libucrt:environment_initialization.obj
 0004:00001530       $pdata$??$create_environment@D@@YAQEAPEADQEAD@Z 0000000180037530     libucrt:environment_initialization.obj
 0004:0000153c       $pdata$_register_onexit_function 000000018003753c     libucrt:onexit.obj
 0004:00001548       $pdata$_execute_onexit_table 0000000180037548     libucrt:onexit.obj
 0004:00001554       $pdata$??R<lambda_22ebabd17bc4fa466a2aca6d8deb888d>@@QEBAHXZ 0000000180037554     libucrt:onexit.obj
 0004:00001560       $pdata$??R<lambda_f03950bc5685219e0bcd2087efbe011e>@@QEBAHXZ 0000000180037560     libucrt:onexit.obj
 0004:0000156c       $pdata$??$?RV<lambda_638799b9deba96c50f710eeac98168cd>@@AEAV<lambda_22ebabd17bc4fa466a2aca6d8deb888d>@@V<lambda_a6f7d7db0129f75315ebf26d50c089f1>@@@?$__crt_seh_guarded_call@H@@QEAAH$$QEAV<lambda_638799b9deba96c50f710eeac98168cd>@@AEAV<lambda_22ebabd17bc4fa466a2aca6d8deb888d>@@$$QEAV<lambda_a6f7d7db0129f75315ebf26d50c089f1>@@@Z 000000018003756c     libucrt:onexit.obj
 0004:00001578       $pdata$??$?RV<lambda_7777bce6b2f8c936911f934f8298dc43>@@AEAV<lambda_f03950bc5685219e0bcd2087efbe011e>@@V<lambda_3883c3dff614d5e0c5f61bb1ac94921c>@@@?$__crt_seh_guarded_call@H@@QEAAH$$QEAV<lambda_7777bce6b2f8c936911f934f8298dc43>@@AEAV<lambda_f03950bc5685219e0bcd2087efbe011e>@@$$QEAV<lambda_3883c3dff614d5e0c5f61bb1ac94921c>@@@Z 0000000180037578     libucrt:onexit.obj
 0004:00001584       $pdata$__acrt_uninitialize 0000000180037584     libucrt:initialization.obj
 0004:00001590       $pdata$__acrt_uninitialize_critical 0000000180037590     libucrt:initialization.obj
 0004:0000159c       $pdata$__acrt_thread_attach 000000018003759c     libucrt:initialization.obj
 0004:000015a8       $pdata$__acrt_thread_detach 00000001800375a8     libucrt:initialization.obj
 0004:000015b4       $pdata$initialize_c        00000001800375b4     libucrt:initialization.obj
 0004:000015c0       $pdata$uninitialize_environment 00000001800375c0     libucrt:initialization.obj
 0004:000015cc       $pdata$initialize_pointers 00000001800375cc     libucrt:initialization.obj
 0004:000015d8       $pdata$uninitialize_allocated_memory 00000001800375d8     libucrt:initialization.obj
 0004:000015e4       $pdata$uninitialize_allocated_io_buffers 00000001800375e4     libucrt:initialization.obj
 0004:000015f0       $pdata$_initterm           00000001800375f0     libucrt:initterm.obj
 0004:000015fc       $pdata$_initterm_e         00000001800375fc     libucrt:initterm.obj
 0004:00001608       $pdata$_callnewh           0000000180037608     libucrt:new_handler.obj
 0004:00001614       $pdata$_query_new_handler  0000000180037614     libucrt:new_handler.obj
 0004:00001620       $pdata$_query_new_handler$fin$0 0000000180037620     libucrt:new_handler.obj
 0004:0000162c       $pdata$terminate           000000018003762c     libucrt:terminate.obj
 0004:00001638       $pdata$abort               0000000180037638     libucrt:abort.obj
 0004:00001644       $pdata$strcpy_s            0000000180037644     libucrt:strcpy_s.obj
 0004:00001650       $pdata$??$parse_integer@KV?$c_string_character_source@_W@__crt_strtox@@@__crt_strtox@@YAKQEAU__crt_locale_pointers@@V?$c_string_character_source@_W@0@H_N@Z 0000000180037650     libucrt:atox.obj
 0004:00001668       $pdata$_free_base          0000000180037668     libucrt:free_base.obj
 0004:00001674       $pdata$__acrt_initialize_ptd 0000000180037674     libucrt:per_thread_data.obj
 0004:00001680       $pdata$__acrt_uninitialize_ptd 0000000180037680     libucrt:per_thread_data.obj
 0004:0000168c       $pdata$__acrt_getptd       000000018003768c     libucrt:per_thread_data.obj
 0004:00001698       $pdata$__acrt_getptd_head  0000000180037698     libucrt:per_thread_data.obj
 0004:000016a4       $pdata$__acrt_getptd_noexit 00000001800376a4     libucrt:per_thread_data.obj
 0004:000016b0       $pdata$__acrt_freeptd      00000001800376b0     libucrt:per_thread_data.obj
 0004:000016bc       $pdata$?destroy_fls@@YAXPEAX@Z 00000001800376bc     libucrt:per_thread_data.obj
 0004:000016c8       $pdata$?replace_current_thread_locale_nolock@@YAXQEAU__acrt_ptd@@QEAU__crt_locale_data@@@Z 00000001800376c8     libucrt:per_thread_data.obj
 0004:000016d4       $pdata$?construct_ptd_array@@YAXQEAU__acrt_ptd@@@Z 00000001800376d4     libucrt:per_thread_data.obj
 0004:000016e0       $pdata$?destroy_ptd_array@@YAXQEAU__acrt_ptd@@@Z 00000001800376e0     libucrt:per_thread_data.obj
 0004:000016ec       $pdata$??$?RV<lambda_0ae27a3a962d80f24befdcbee591983d>@@AEAV<lambda_8d0ee55de4b1038c4002e0adecdf1839>@@V<lambda_dc504788e8f1664fe9b84e20bfb512f2>@@@?$__crt_seh_guarded_call@X@@QEAAX$$QEAV<lambda_0ae27a3a962d80f24befdcbee591983d>@@AEAV<lambda_8d0ee55de4b1038c4002e0adecdf1839>@@$$QEAV<lambda_dc504788e8f1664fe9b84e20bfb512f2>@@@Z 00000001800376ec     libucrt:per_thread_data.obj
 0004:000016f8       $pdata$??$?RV<lambda_aa87e3671a710a21b5dc78c0bdf72e11>@@AEAV<lambda_92619d2358a28f41a33ba319515a20b9>@@V<lambda_6992ecaafeb10aed2b74cb1fae11a551>@@@?$__crt_seh_guarded_call@X@@QEAAX$$QEAV<lambda_aa87e3671a710a21b5dc78c0bdf72e11>@@AEAV<lambda_92619d2358a28f41a33ba319515a20b9>@@$$QEAV<lambda_6992ecaafeb10aed2b74cb1fae11a551>@@@Z 00000001800376f8     libucrt:per_thread_data.obj
 0004:00001704       $pdata$??$?RV<lambda_f2e299630e499de9f9a165e60fcd3db5>@@AEAV<lambda_2ae9d31cdba2644fcbeaf08da7c24588>@@V<lambda_40d01ff24d0e7b3814fdbdcee8eab3c7>@@@?$__crt_seh_guarded_call@X@@QEAAX$$QEAV<lambda_f2e299630e499de9f9a165e60fcd3db5>@@AEAV<lambda_2ae9d31cdba2644fcbeaf08da7c24588>@@$$QEAV<lambda_40d01ff24d0e7b3814fdbdcee8eab3c7>@@@Z 0000000180037704     libucrt:per_thread_data.obj
 0004:00001710       $pdata$??$?RV<lambda_2d41944a1d46af3157314b8a01080d33>@@AEAV<lambda_8f455de75cd7d7f24b4096f044d8b9e6>@@V<lambda_aa500f224e6afead328df44964fe2772>@@@?$__crt_seh_guarded_call@X@@QEAAX$$QEAV<lambda_2d41944a1d46af3157314b8a01080d33>@@AEAV<lambda_8f455de75cd7d7f24b4096f044d8b9e6>@@$$QEAV<lambda_aa500f224e6afead328df44964fe2772>@@@Z 0000000180037710     libucrt:per_thread_data.obj
 0004:0000171c       $pdata$_calloc_base        000000018003771c     libucrt:calloc_base.obj
 0004:00001728       $pdata$_malloc_base        0000000180037728     libucrt:malloc_base.obj
 0004:00001734       $pdata$_msize_base         0000000180037734     libucrt:msize.obj
 0004:00001740       $pdata$_realloc_base       0000000180037740     libucrt:realloc_base.obj
 0004:0000174c       $pdata$__acrt_initialize_winapi_thunks 000000018003774c     libucrt:winapi_thunks.obj
 0004:00001758       $pdata$__acrt_uninitialize_winapi_thunks 0000000180037758     libucrt:winapi_thunks.obj
 0004:00001764       $pdata$__acrt_AreFileApisANSI 0000000180037764     libucrt:winapi_thunks.obj
 0004:00001770       $pdata$__acrt_FlsAlloc     0000000180037770     libucrt:winapi_thunks.obj
 0004:0000177c       $pdata$__acrt_FlsFree      000000018003777c     libucrt:winapi_thunks.obj
 0004:00001788       $pdata$__acrt_FlsGetValue  0000000180037788     libucrt:winapi_thunks.obj
 0004:00001794       $pdata$__acrt_FlsSetValue  0000000180037794     libucrt:winapi_thunks.obj
 0004:000017a0       $pdata$__acrt_InitializeCriticalSectionEx 00000001800377a0     libucrt:winapi_thunks.obj
 0004:000017ac       $pdata$__acrt_LCMapStringEx 00000001800377ac     libucrt:winapi_thunks.obj
 0004:000017b8       $pdata$__acrt_LocaleNameToLCID 00000001800377b8     libucrt:winapi_thunks.obj
 0004:000017c4       $pdata$__acrt_AppPolicyGetProcessTerminationMethodInternal 00000001800377c4     libucrt:winapi_thunks.obj
 0004:000017d0       $pdata$__acrt_SetThreadStackGuarantee 00000001800377d0     libucrt:winapi_thunks.obj
 0004:000017dc       $pdata$?try_get_function@@YAPEAXW4function_id@?A0x391cf84c@@QEBDQEBW4module_id@2@2@Z 00000001800377dc     libucrt:winapi_thunks.obj
 0004:000017e8       $pdata$wcstol              00000001800377e8     libucrt:strtox.obj
 0004:000017f4       $pdata$_mbtowc_l           00000001800377f4     libucrt:mbtowc.obj
 0004:00001800       $pdata$__acrt_update_locale_info 0000000180037800     libucrt:locale_update.obj
 0004:0000180c       $pdata$__acrt_update_multibyte_info 000000018003780c     libucrt:locale_update.obj
 0004:00001818       $pdata$__acrt_fp_format    0000000180037818     libucrt:cvt.obj
 0004:00001824       $pdata$?fp_format_e_internal@@YAHQEAD_KH_NIQEAU_strflt@@2QEAU__crt_locale_pointers@@@Z 0000000180037824     libucrt:cvt.obj
 0004:00001830       $pdata$?fp_format_e@@YAHQEBNQEAD_K12H_NIQEAU__crt_locale_pointers@@W4__acrt_rounding_mode@@@Z 0000000180037830     libucrt:cvt.obj
 0004:0000183c       $pdata$?should_round_up@@YA_NQEBN_KFW4__acrt_rounding_mode@@@Z 000000018003783c     libucrt:cvt.obj
 0004:00001848       $pdata$?fp_format_a@@YAHQEBNPEAD_KQEAD2H_NIQEAU__crt_locale_pointers@@W4__acrt_rounding_mode@@@Z 0000000180037848     libucrt:cvt.obj
 0004:00001854       $pdata$?fp_format_f_internal@@YAHQEAD_KHQEAU_strflt@@_NQEAU__crt_locale_pointers@@@Z 0000000180037854     libucrt:cvt.obj
 0004:00001860       $pdata$?fp_format_g@@YAHQEBNQEAD_K12H_NIQEAU__crt_locale_pointers@@@Z 0000000180037860     libucrt:cvt.obj
 0004:0000186c       $pdata$_fileno             000000018003786c     libucrt:fileno.obj
 0004:00001878       $pdata$__acrt_initialize_stdio 0000000180037878     libucrt:_file.obj
 0004:00001884       $pdata$__acrt_uninitialize_stdio 0000000180037884     libucrt:_file.obj
 0004:00001890       $pdata$__acrt_uninitialize_locale 0000000180037890     libucrt:wsetlocale.obj
 0004:0000189c       $pdata$??$?RV<lambda_410d79af7f07d98d83a3f525b3859a53>@@AEAV<lambda_3e16ef9562a7dcce91392c22ab16ea36>@@V<lambda_38119f0e861e05405d8a144b9b982f0a>@@@?$__crt_seh_guarded_call@X@@QEAAX$$QEAV<lambda_410d79af7f07d98d83a3f525b3859a53>@@AEAV<lambda_3e16ef9562a7dcce91392c22ab16ea36>@@$$QEAV<lambda_38119f0e861e05405d8a144b9b982f0a>@@@Z 000000018003789c     libucrt:wsetlocale.obj
 0004:000018a8       $pdata$?fin$0@?0???$?RV<lambda_410d79af7f07d98d83a3f525b3859a53>@@AEAV<lambda_3e16ef9562a7dcce91392c22ab16ea36>@@V<lambda_38119f0e861e05405d8a144b9b982f0a>@@@?$__crt_seh_guarded_call@X@@QEAAX$$QEAV<lambda_410d79af7f07d98d83a3f525b3859a53>@@AEAV<lambda_3e16ef9562a7dcce91392c22ab16ea36>@@$$QEAV<lambda_38119f0e861e05405d8a144b9b982f0a>@@@Z@4HA 00000001800378a8     libucrt:wsetlocale.obj
 0004:000018b4       $pdata$__acrt_initialize_lowio 00000001800378b4     libucrt:ioinit.obj
 0004:000018c0       $pdata$__acrt_initialize_lowio$fin$0 00000001800378c0     libucrt:ioinit.obj
 0004:000018c0       $pdata$__acrt_lowio_ensure_fh_exists$fin$0 00000001800378c0     libucrt:osfinfo.obj
 0004:000018cc       $pdata$__acrt_uninitialize_lowio 00000001800378cc     libucrt:ioinit.obj
 0004:000018d8       $pdata$?initialize_inherited_file_handles_nolock@@YAXXZ 00000001800378d8     libucrt:ioinit.obj
 0004:000018e4       $pdata$?initialize_stdio_handles_nolock@@YAXXZ 00000001800378e4     libucrt:ioinit.obj
 0004:000018f0       $pdata$__acrt_initialize_locks 00000001800378f0     libucrt:locks.obj
 0004:000018fc       $pdata$__acrt_uninitialize_locks 00000001800378fc     libucrt:locks.obj
 0004:00001908       $pdata$__acrt_get_process_end_policy 0000000180037908     libucrt:win_policies.obj
 0004:00001914       $pdata$??$__acrt_mbs_to_wcs_cp@U__crt_win32_buffer_internal_dynamic_resizing@@@@YAHQEBDAEAV?$__crt_win32_buffer@_WU__crt_win32_buffer_internal_dynamic_resizing@@@@I@Z 0000000180037914     libucrt:argv_wildcards.obj
 0004:00001920       $pdata$??$__acrt_wcs_to_mbs_cp@U__crt_win32_buffer_internal_dynamic_resizing@@@@YAHQEB_WAEAV?$__crt_win32_buffer@DU__crt_win32_buffer_internal_dynamic_resizing@@@@I@Z 0000000180037920     libucrt:argv_wildcards.obj
 0004:0000192c       $pdata$??$common_expand_argv_wildcards@D@@YAHQEAPEADQEAPEAPEAD@Z 000000018003792c     libucrt:argv_wildcards.obj
 0004:00001938       $pdata$??$copy_and_add_argument_to_buffer@D@@YAHQEBD0_KAEAV?$argument_list@D@?A0x5f5c8891@@@Z 0000000180037938     libucrt:argv_wildcards.obj
 0004:00001944       $pdata$??$expand_argument_wildcards@D@@YAHQEAD0AEAV?$argument_list@D@?A0x5f5c8891@@@Z 0000000180037944     libucrt:argv_wildcards.obj
 0004:00001950       $pdata$__acrt_GetModuleFileNameA 0000000180037950     libucrt:getmodulefilenamea.obj
 0004:0000195c       $pdata$??$__acrt_wcs_to_mbs_cp@U__crt_win32_buffer_no_resizing@@@@YAHQEB_WAEAV?$__crt_win32_buffer@DU__crt_win32_buffer_no_resizing@@@@I@Z 000000018003795c     libucrt:getmodulefilenamea.obj
 0004:00001968       $pdata$__acrt_update_thread_multibyte_data 0000000180037968     libucrt:mbctype.obj
 0004:00001974       $pdata$__acrt_initialize_multibyte 0000000180037974     libucrt:mbctype.obj
 0004:00001980       $pdata$_setmbcp_nolock     0000000180037980     libucrt:mbctype.obj
 0004:0000198c       $pdata$?getSystemCP@@YAHH@Z 000000018003798c     libucrt:mbctype.obj
 0004:00001998       $pdata$?setSBCS@@YAXPEAU__crt_multibyte_data@@@Z 0000000180037998     libucrt:mbctype.obj
 0004:000019a4       $pdata$?update_thread_multibyte_data_internal@@YAPEAU__crt_multibyte_data@@QEAU__acrt_ptd@@QEAPEAU1@@Z 00000001800379a4     libucrt:mbctype.obj
 0004:000019b0       $pdata$?fin$0@?0??update_thread_multibyte_data_internal@@YAPEAU__crt_multibyte_data@@QEAU__acrt_ptd@@QEAPEAU1@@Z@4HA 00000001800379b0     libucrt:mbctype.obj
 0004:000019bc       $pdata$?setmbcp_internal@@YAHH_NQEAU__acrt_ptd@@QEAPEAU__crt_multibyte_data@@@Z 00000001800379bc     libucrt:mbctype.obj
 0004:000019c8       $pdata$?setSBUpLow@@YAXPEAU__crt_multibyte_data@@@Z 00000001800379c8     libucrt:mbctype.obj
 0004:000019d4       $pdata$??$?RV<lambda_efdfa57d1f175319df784efa44bb7b81>@@AEAV<lambda_5f0a4c1567f8adc6734073e5d1e1b35c>@@V<lambda_2e8a7d3640ea6ccb4c2413664c2db6fd>@@@?$__crt_seh_guarded_call@X@@QEAAX$$QEAV<lambda_efdfa57d1f175319df784efa44bb7b81>@@AEAV<lambda_5f0a4c1567f8adc6734073e5d1e1b35c>@@$$QEAV<lambda_2e8a7d3640ea6ccb4c2413664c2db6fd>@@@Z 00000001800379d4     libucrt:mbctype.obj
 0004:000019e0       $pdata$?x_ismbbtype_l@@YAHPEAU__crt_locale_pointers@@IHH@Z 00000001800379e0     libucrt:ismbbyte.obj
 0004:000019ec       $pdata$__acrt_initialize_command_line 00000001800379ec     libucrt:argv_data.obj
 0004:000019f8       $pdata$__acrt_WideCharToMultiByte 00000001800379f8     libucrt:widechartomultibyte.obj
 0004:00001a04       $pdata$__dcrt_get_narrow_environment_from_os 0000000180037a04     libucrt:get_environment_from_os.obj
 0004:00001a10       $pdata$__acrt_initialize_heap 0000000180037a10     libucrt:heap_handle.obj
 0004:00001a1c       $pdata$__acrt_execute_initializers 0000000180037a1c     libucrt:shared_initialization.obj
 0004:00001a28       $pdata$__acrt_execute_uninitializers 0000000180037a28     libucrt:shared_initialization.obj
 0004:00001a34       $pdata$__acrt_get_sigabrt_handler 0000000180037a34     libucrt:signal.obj
 0004:00001a40       $pdata$raise               0000000180037a40     libucrt:signal.obj
 0004:00001a4c       $pdata$raise$fin$0         0000000180037a4c     libucrt:signal.obj
 0004:00001a58       $pdata$??$?RV<lambda_450d765d439847d4c735a33c368b5fc0>@@AEAV<lambda_44731a7d0e6d81c3e6aa82d741081786>@@V<lambda_601a2a7da3b7a96e9554ac7215c4b07c>@@@?$__crt_seh_guarded_call@P6AXH@Z@@QEAAP6AXH@Z$$QEAV<lambda_450d765d439847d4c735a33c368b5fc0>@@AEAV<lambda_44731a7d0e6d81c3e6aa82d741081786>@@$$QEAV<lambda_601a2a7da3b7a96e9554ac7215c4b07c>@@@Z 0000000180037a58     libucrt:signal.obj
 0004:00001a64       $pdata$_fflush_nolock      0000000180037a64     libucrt:fflush.obj
 0004:00001a70       $pdata$__acrt_stdio_flush_nolock 0000000180037a70     libucrt:fflush.obj
 0004:00001a7c       $pdata$?common_flush_all@@YAH_N@Z 0000000180037a7c     libucrt:fflush.obj
 0004:00001a88       $pdata$??$?RV<lambda_842d9ff0dc9ef11c61343bbaebe7f885>@@AEAV<lambda_c5860995281e5c4ce005b3de8f5874ee>@@V<lambda_d90129c13df834fdcbf8d2b88dafcf2d>@@@?$__crt_seh_guarded_call@X@@QEAAX$$QEAV<lambda_842d9ff0dc9ef11c61343bbaebe7f885>@@AEAV<lambda_c5860995281e5c4ce005b3de8f5874ee>@@$$QEAV<lambda_d90129c13df834fdcbf8d2b88dafcf2d>@@@Z 0000000180037a88     libucrt:fflush.obj
 0004:00001a94       $pdata$?fin$0@?0???$?RV<lambda_842d9ff0dc9ef11c61343bbaebe7f885>@@AEAV<lambda_c5860995281e5c4ce005b3de8f5874ee>@@V<lambda_d90129c13df834fdcbf8d2b88dafcf2d>@@@?$__crt_seh_guarded_call@X@@QEAAX$$QEAV<lambda_842d9ff0dc9ef11c61343bbaebe7f885>@@AEAV<lambda_c5860995281e5c4ce005b3de8f5874ee>@@$$QEAV<lambda_d90129c13df834fdcbf8d2b88dafcf2d>@@@Z@4HA 0000000180037a94     libucrt:fflush.obj
 0004:00001aa0       $pdata$??$?RV<lambda_886d6c58226a84441f68b9f2b8217b83>@@AEAV<lambda_ab61a845afdef5b7c387490eaf3616ee>@@V<lambda_f7f22ab5edc0698d5f6905b0d3f44752>@@@?$__crt_seh_guarded_call@X@@QEAAX$$QEAV<lambda_886d6c58226a84441f68b9f2b8217b83>@@AEAV<lambda_ab61a845afdef5b7c387490eaf3616ee>@@$$QEAV<lambda_f7f22ab5edc0698d5f6905b0d3f44752>@@@Z 0000000180037aa0     libucrt:fflush.obj
 0004:00001aac       $pdata$?fin$0@?0???$?RV<lambda_886d6c58226a84441f68b9f2b8217b83>@@AEAV<lambda_ab61a845afdef5b7c387490eaf3616ee>@@V<lambda_f7f22ab5edc0698d5f6905b0d3f44752>@@@?$__crt_seh_guarded_call@X@@QEAAX$$QEAV<lambda_886d6c58226a84441f68b9f2b8217b83>@@AEAV<lambda_ab61a845afdef5b7c387490eaf3616ee>@@$$QEAV<lambda_f7f22ab5edc0698d5f6905b0d3f44752>@@@Z@4HA 0000000180037aac     libucrt:fflush.obj
 0004:00001ab8       $pdata$__pctype_func       0000000180037ab8     libucrt:ctype.obj
 0004:00001ac4       $pdata$iswctype            0000000180037ac4     libucrt:iswctype.obj
 0004:00001ad0       $pdata$__acrt_release_locale_ref 0000000180037ad0     libucrt:locale_refcounting.obj
 0004:00001adc       $pdata$__acrt_free_locale  0000000180037adc     libucrt:locale_refcounting.obj
 0004:00001ae8       $pdata$__acrt_locale_free_lc_time_if_unreferenced 0000000180037ae8     libucrt:locale_refcounting.obj
 0004:00001af4       $pdata$__acrt_update_thread_locale_data 0000000180037af4     libucrt:locale_refcounting.obj
 0004:00001b00       $pdata$__acrt_update_thread_locale_data$fin$0 0000000180037b00     libucrt:locale_refcounting.obj
 0004:00001b0c       $pdata$_updatetlocinfoEx_nolock 0000000180037b0c     libucrt:locale_refcounting.obj
 0004:00001b18       $pdata$__acrt_DownlevelLocaleNameToLCID 0000000180037b18     libucrt:lcidtoname_downlevel.obj
 0004:00001b24       $pdata$_isleadbyte_l       0000000180037b24     libucrt:_wctype.obj
 0004:00001b30       $pdata$?__mbrtowc_utf8@__crt_mbstring@@YA_KPEA_WPEBD_KPEAU_Mbstatet@@@Z 0000000180037b30     libucrt:mbrtowc.obj
 0004:00001b3c       $pdata$?__mbsrtowcs_utf8@__crt_mbstring@@YA_KPEA_WPEAPEBD_KPEAU_Mbstatet@@@Z 0000000180037b3c     libucrt:mbrtowc.obj
 0004:00001b48       $pdata$__acrt_fp_strflt_to_string 0000000180037b48     libucrt:_fptostr.obj
 0004:00001b54       $pdata$memcpy_s            0000000180037b54     libucrt:cfout.obj
 0004:00001b60       $pdata$__acrt_fltout       0000000180037b60     libucrt:cfout.obj
 0004:00001b6c       $pdata$?divide@__crt_strtox@@YA_KAEAUbig_integer@1@AEBU21@@Z 0000000180037b6c     libucrt:cfout.obj
 0004:00001b78       $pdata$0$?divide@__crt_strtox@@YA_KAEAUbig_integer@1@AEBU21@@Z 0000000180037b78     libucrt:cfout.obj
 0004:00001b84       $pdata$1$?divide@__crt_strtox@@YA_KAEAUbig_integer@1@AEBU21@@Z 0000000180037b84     libucrt:cfout.obj
 0004:00001b90       $pdata$fegetround          0000000180037b90     libucrt:fegetround.obj
 0004:00001b9c       $pdata$_fcloseall          0000000180037b9c     libucrt:closeall.obj
 0004:00001ba8       $pdata$_fcloseall$fin$0    0000000180037ba8     libucrt:closeall.obj
 0004:00001bb4       $pdata$__acrt_stdio_free_buffer_nolock 0000000180037bb4     libucrt:_freebuf.obj
 0004:00001bc0       $pdata$_isatty             0000000180037bc0     libucrt:isatty.obj
 0004:00001bcc       $pdata$__acrt_locale_free_monetary 0000000180037bcc     libucrt:initmon.obj
 0004:00001bd8       $pdata$__acrt_locale_free_numeric 0000000180037bd8     libucrt:initnum.obj
 0004:00001be4       $pdata$__acrt_locale_free_time 0000000180037be4     libucrt:inittime.obj
 0004:00001bf0       $pdata$?free_crt_array_internal@@YAXQEAPEBX_K@Z 0000000180037bf0     libucrt:inittime.obj
 0004:00001bfc       $pdata$__acrt_GetStringTypeA 0000000180037bfc     libucrt:getstringtypea.obj
 0004:00001c08       $pdata$_get_osfhandle      0000000180037c08     libucrt:osfinfo.obj
 0004:00001c14       $pdata$_free_osfhnd        0000000180037c14     libucrt:osfinfo.obj
 0004:00001c20       $pdata$__acrt_lowio_create_handle_array 0000000180037c20     libucrt:osfinfo.obj
 0004:00001c2c       $pdata$__acrt_lowio_destroy_handle_array 0000000180037c2c     libucrt:osfinfo.obj
 0004:00001c38       $pdata$__acrt_lowio_ensure_fh_exists 0000000180037c38     libucrt:osfinfo.obj
 0004:00001c44       $pdata$qsort               0000000180037c44     libucrt:qsort.obj
 0004:00001c50       $pdata$4$qsort             0000000180037c50     libucrt:qsort.obj
 0004:00001c5c       $pdata$5$qsort             0000000180037c5c     libucrt:qsort.obj
 0004:00001c68       $pdata$strncpy_s           0000000180037c68     libucrt:strncpy_s.obj
 0004:00001c74       $pdata$strpbrk             0000000180037c74     libucrt:strpbrk.obj
 0004:00001c80       $pdata$fallbackMethod      0000000180037c80     libucrt:strpbrk.obj
 0004:00001c8c       $pdata$_mbsdec_l           0000000180037c8c     libucrt:mbsdec.obj
 0004:00001c98       $pdata$__acrt_LCMapStringA 0000000180037c98     libucrt:lcmapstringa.obj
 0004:00001ca4       $pdata$?__acrt_LCMapStringA_stat@@YAHPEAU__crt_locale_pointers@@PEB_WKPEBDHPEADHHH@Z 0000000180037ca4     libucrt:lcmapstringa.obj
 0004:00001cb0       $pdata$?initialize_multibyte@@YAHXZ 0000000180037cb0     libucrt:multibyte_initializer.obj
 0004:00001cbc       $pdata$_commit             0000000180037cbc     libucrt:commit.obj
 0004:00001cc8       $pdata$??$?RV<lambda_a37b2b86f63e897a80ea819b0eb08c01>@@AEAV<lambda_38ce7e780aa69e748d6df282ebc68efe>@@V<lambda_99fb1378e971ab6e7edea83e3a7a83a2>@@@?$__crt_seh_guarded_call@H@@QEAAH$$QEAV<lambda_a37b2b86f63e897a80ea819b0eb08c01>@@AEAV<lambda_38ce7e780aa69e748d6df282ebc68efe>@@$$QEAV<lambda_99fb1378e971ab6e7edea83e3a7a83a2>@@@Z 0000000180037cc8     libucrt:commit.obj
 0004:00001cd4       $pdata$?fin$0@?0???$?RV<lambda_751a882b2c74d4b022dec766aa51a29a>@@AEAV<lambda_628dfdc04ba53c8bfc02c9951375f3f5>@@V<lambda_f6c7be5f7998530c34de24c7437d6b54>@@@?$__crt_seh_guarded_call@H@@QEAAH$$QEAV<lambda_751a882b2c74d4b022dec766aa51a29a>@@AEAV<lambda_628dfdc04ba53c8bfc02c9951375f3f5>@@$$QEAV<lambda_f6c7be5f7998530c34de24c7437d6b54>@@@Z@4HA 0000000180037cd4     libucrt:close.obj
 0004:00001cd4       $pdata$?fin$0@?0???$?RV<lambda_a37b2b86f63e897a80ea819b0eb08c01>@@AEAV<lambda_38ce7e780aa69e748d6df282ebc68efe>@@V<lambda_99fb1378e971ab6e7edea83e3a7a83a2>@@@?$__crt_seh_guarded_call@H@@QEAAH$$QEAV<lambda_a37b2b86f63e897a80ea819b0eb08c01>@@AEAV<lambda_38ce7e780aa69e748d6df282ebc68efe>@@$$QEAV<lambda_99fb1378e971ab6e7edea83e3a7a83a2>@@@Z@4HA 0000000180037cd4     libucrt:commit.obj
 0004:00001ce0       $pdata$_write              0000000180037ce0     libucrt:write.obj
 0004:00001cec       $pdata$_write$fin$0        0000000180037cec     libucrt:write.obj
 0004:00001cf8       $pdata$_write_nolock       0000000180037cf8     libucrt:write.obj
 0004:00001d04       $pdata$?write_double_translated_ansi_nolock@@YA?AUwrite_result@?A0x17268360@@HQEBDI@Z 0000000180037d04     libucrt:write.obj
 0004:00001d10       $pdata$?write_text_ansi_nolock@@YA?AUwrite_result@?A0x17268360@@HQEBDI@Z 0000000180037d10     libucrt:write.obj
 0004:00001d1c       $pdata$?write_text_utf16le_nolock@@YA?AUwrite_result@?A0x17268360@@HQEBDI@Z 0000000180037d1c     libucrt:write.obj
 0004:00001d28       $pdata$?write_text_utf8_nolock@@YA?AUwrite_result@?A0x17268360@@HQEBDI@Z 0000000180037d28     libucrt:write.obj
 0004:00001d34       $pdata$?__mbrtoc32_utf8@__crt_mbstring@@YA_KPEA_UPEBD_KPEAU_Mbstatet@@@Z 0000000180037d34     libucrt:mbrtoc32.obj
 0004:00001d40       $pdata$_controlfp_s        0000000180037d40     libucrt:contrlfp.obj
 0004:00001d4c       $pdata$fegetenv            0000000180037d4c     libucrt:fegetenv.obj
 0004:00001d58       $pdata$fesetenv            0000000180037d58     libucrt:fesetenv.obj
 0004:00001d64       $pdata$feholdexcept        0000000180037d64     libucrt:feholdexcept.obj
 0004:00001d7c       $pdata$__acrt_fenv_set_control 0000000180037d7c     libucrt:_fenvutils.obj
 0004:00001d88       $pdata$??$common_lseek_nolock@_J@@YA_JH_JH@Z 0000000180037d88     libucrt:lseek.obj
 0004:00001d94       $pdata$fclose              0000000180037d94     libucrt:fclose.obj
 0004:00001da0       $pdata$fclose$fin$0        0000000180037da0     libucrt:fclose.obj
 0004:00001dac       $pdata$_fclose_nolock      0000000180037dac     libucrt:fclose.obj
 0004:00001db8       $pdata$_putwch_nolock      0000000180037db8     libucrt:putwch.obj
 0004:00001dc4       $pdata$_clearfp            0000000180037dc4     libucrt:ieee.obj
 0004:00001dd0       $pdata$common_control87    0000000180037dd0     libucrt:ieee.obj
 0004:00001ddc       $pdata$_ctrlfp$filt$0      0000000180037ddc     libucrt:fpctrl.obj
 0004:00001ddc       $pdata$common_control87$filt$0 0000000180037ddc     libucrt:ieee.obj
 0004:00001de8       $pdata$_call_matherr       0000000180037de8     libucrt:libm_error.obj
 0004:00001df4       $pdata$_exception_enabled  0000000180037df4     libucrt:libm_error.obj
 0004:00001e00       $pdata$_handle_error       0000000180037e00     libucrt:libm_error.obj
 0004:00001e0c       $pdata$__acrt_initialize_fma3 0000000180037e0c     libucrt:fma3_available.obj
 0004:00001e18       $pdata$_log_special_common 0000000180037e18     libucrt:log_special.obj
 0004:00001e24       $pdata$_log10_special      0000000180037e24     libucrt:log_special.obj
 0004:00001e30       $pdata$_close              0000000180037e30     libucrt:close.obj
 0004:00001e3c       $pdata$_close_nolock       0000000180037e3c     libucrt:close.obj
 0004:00001e48       $pdata$??$?RV<lambda_751a882b2c74d4b022dec766aa51a29a>@@AEAV<lambda_628dfdc04ba53c8bfc02c9951375f3f5>@@V<lambda_f6c7be5f7998530c34de24c7437d6b54>@@@?$__crt_seh_guarded_call@H@@QEAAH$$QEAV<lambda_751a882b2c74d4b022dec766aa51a29a>@@AEAV<lambda_628dfdc04ba53c8bfc02c9951375f3f5>@@$$QEAV<lambda_f6c7be5f7998530c34de24c7437d6b54>@@@Z 0000000180037e48     libucrt:close.obj
 0004:00001e54       $pdata$__dcrt_lowio_ensure_console_output_initialized 0000000180037e54     libucrt:initcon.obj
 0004:00001e60       $pdata$__dcrt_write_console 0000000180037e60     libucrt:initcon.obj
 0004:00001e6c       $pdata$__dcrt_terminate_console_output 0000000180037e6c     libucrt:initcon.obj
 0004:00001e84       $pdata$_set_errno_from_matherr 0000000180037e84     libucrt:fpexcept.obj
 0004:00001e90       $pdata$_raise_exc          0000000180037e90     libucrt:fpexcept.obj
 0004:00001e9c       $pdata$_raise_exc_ex       0000000180037e9c     libucrt:fpexcept.obj
 0004:00001ea8       $pdata$_clrfp              0000000180037ea8     libucrt:fpctrl.obj
 0004:00001eb4       $pdata$_ctrlfp             0000000180037eb4     libucrt:fpctrl.obj
 0004:00001ec0       $pdata$_statfp             0000000180037ec0     libucrt:fpctrl.obj
 0004:00001ecc       $pdata$_set_statfp         0000000180037ecc     libucrt:fpctrl.obj
 0004:00001ed8       $pdata$_IsNonwritableInCurrentImage 0000000180037ed8     LIBCMT:pesect.obj
 0004:00001ee4       $pdata$_IsNonwritableInCurrentImage$filt$0 0000000180037ee4     LIBCMT:pesect.obj
 0005:00000000       MoveSmall                  0000000180038000     libvcruntime:memcpy.obj
 0005:00000050       MsetTab                    0000000180038050     libvcruntime:memset.obj
 0006:00000220       $R000000                   0000000180039220     Biometrics.res
 0006:00000bb8       $R000998                   0000000180039bb8     Biometrics.res
 0006:00000ca0       $R000A80                   0000000180039ca0     Biometrics.res
