 OPOSTotals

 Timestamp is 5defab4a (Tue Dec 10 23:27:22 2019)

 Preferred load address is 0000000180000000

 Start         Length     Name                   Class
 0001:00000000 000000c0H .text$di                CODE
 0001:000000c0 000204a0H .text$mn                CODE
 0001:00020560 00000020H .text$mn$00             CODE
 0001:00020580 00000490H .text$x                 CODE
 0001:00020a10 00000078H .text$yd                CODE
 0002:00000000 00000618H .idata$5                DATA
 0002:00000618 00000010H .00cfg                  DATA
 0002:00000628 00000008H .CRT$XCA                DATA
 0002:00000630 00000008H .CRT$XCL                DATA
 0002:00000638 00000020H .CRT$XCU                DATA
 0002:00000658 00000008H .CRT$XCZ                DATA
 0002:00000660 00000008H .CRT$XIA                DATA
 0002:00000668 00000020H .CRT$XIC                DATA
 0002:00000688 00000008H .CRT$XIZ                DATA
 0002:00000690 00000008H .CRT$XLA                DATA
 0002:00000698 00000008H .CRT$XLZ                DATA
 0002:000006a0 00000008H .CRT$XPA                DATA
 0002:000006a8 00000010H .CRT$XPX                DATA
 0002:000006b8 00000008H .CRT$XPXA               DATA
 0002:000006c0 00000008H .CRT$XPZ                DATA
 0002:000006c8 00000008H .CRT$XTA                DATA
 0002:000006d0 00000010H .CRT$XTZ                DATA
 0002:000006d8 00000000H .gfids$y                DATA
 0002:000006e0 0000a4a8H .rdata                  DATA
 0002:0000ab88 00000028H .rdata$T                DATA
 0002:0000abb0 00000274H .rdata$r                DATA
 0002:0000ae24 00000404H .rdata$zzzdbg           DATA
 0002:0000b228 00000008H .rtc$IAA                DATA
 0002:0000b230 00000008H .rtc$IZZ                DATA
 0002:0000b238 00000008H .rtc$TAA                DATA
 0002:0000b240 00000008H .rtc$TZZ                DATA
 0002:0000b248 00000004H .tls                    DATA
 0002:0000b24c 00000004H .tls$                   DATA
 0002:0000b250 00000008H .tls$ZZZ                DATA
 0002:0000b258 00001650H .xdata                  DATA
 0002:0000c8a8 00000150H .xdata$x                DATA
 0002:0000c9f8 00000008H ATL$__a                 DATA
 0002:0000ca00 00000010H ATL$__z                 DATA
 0002:0000ca10 000000a8H .edata                  DATA
 0002:0000cab8 00000078H .idata$2                DATA
 0002:0000cb30 00000018H .idata$3                DATA
 0002:0000cb48 00000618H .idata$4                DATA
 0002:0000d160 00000c24H .idata$6                DATA
 0003:00000000 00000dd8H .data                   DATA
 0003:00000dd8 000000c8H .data$r                 DATA
 0003:00000ea0 0000140cH .bss                    DATA
 0004:00000000 00001e90H .pdata                  DATA
 0005:00000000 00000094H _RDATA                  DATA
 0006:00000000 00000220H .rsrc$01                DATA
 0006:00000220 000040f0H .rsrc$02                DATA

  Address         Publics by Value              Rva+Base               Lib:Object

 0000:00000000       __guard_fids_count         0000000000000000     <absolute>
 0000:00000000       ___safe_se_handler_count   0000000000000000     <absolute>
 0000:00000000       __guard_longjmp_count      0000000000000000     <absolute>
 0000:00000000       __guard_longjmp_table      0000000000000000     <absolute>
 0000:00000000       __guard_iat_table          0000000000000000     <absolute>
 0000:00000000       __hybrid_code_map          0000000000000000     <absolute>
 0000:00000000       __guard_iat_count          0000000000000000     <absolute>
 0000:00000000       __hybrid_code_map_count    0000000000000000     <absolute>
 0000:00000000       __volatile_metadata        0000000000000000     <absolute>
 0000:00000000       __enclave_config           0000000000000000     <absolute>
 0000:00000000       __AbsoluteZero             0000000000000000     <absolute>
 0000:00000000       ___safe_se_handler_table   0000000000000000     <absolute>
 0000:00000000       __guard_fids_table         0000000000000000     <absolute>
 0000:00000000       __hybrid_auxiliary_iat     0000000000000000     <absolute>
 0000:00000000       __dynamic_value_reloc_table 0000000000000000     <absolute>
 0000:00000100       __guard_flags              0000000000000100     <absolute>
 0000:00000000       __ImageBase                0000000180000000     <linker-defined>
 0001:000000c0       ?DupWide@_CW@@AEAAXXZ      00000001800010c0 f   CWString.obj
 0001:000000e8       ?cw_dup@@YAXPEBDAEAHAEAPEA_W1@Z 00000001800010e8 f   CWString.obj
 0001:000001c8       ?cw_memcpy@@YAHPEA_WPEBDH@Z 00000001800011c8 f   CWString.obj
 0001:00000214       ?cw_strcpy@@YAHPEA_WPEBD@Z 0000000180001214 f   CWString.obj
 0001:00000228       ??0CAtlComModule@ATL@@QEAA@XZ 0000000180001228 f i OposVariant.obj
 0001:000002a8       ??0CAtlWinModule@ATL@@QEAA@XZ 00000001800012a8 f i OposVariant.obj
 0001:00000314       ??0OposDispParms@@QEAA@PEAVOposVariant@@H@Z 0000000180001314 f   OposVariant.obj
 0001:000003bc       ??1OposDispParms@@QEAA@XZ  00000001800013bc f   OposVariant.obj
 0001:000003d4       ??_Estringdispid@CComTypeInfoHolder@ATL@@QEAAPEAXI@Z 00000001800013d4 f i OposVariant.obj
 0001:00000478       ?AtlWinModuleTerm@ATL@@YAJPEAU_ATL_WIN_MODULE70@1@PEAUHINSTANCE__@@@Z 0000000180001478 f i OposVariant.obj
 0001:00000528       ?ChangeBSTR@OposVariant@@QEAAXPEAPEA_WAEAJ@Z 0000000180001528 f   OposVariant.obj
 0001:00000588       ?ChangeLONG@OposVariant@@QEAAXPEAJAEAJ@Z 0000000180001588 f   OposVariant.obj
 0001:000005e4       ?GetLONG@OposVariant@@QEAAJXZ 00000001800015e4 f   OposVariant.obj
 0001:00000608       ?SetBSTR@OposVariant@@QEAAXPEA_WAEAJ@Z 0000000180001608 f   OposVariant.obj
 0001:00000648       ?SetBSTR_Copy@OposVariant@@QEAAXPEA_WAEAJ@Z 0000000180001648 f   OposVariant.obj
 0001:000006b8       ?SetBSTR_InOutPtr@OposVariant@@QEAA_NPEAPEA_WAEAJ@Z 00000001800016b8 f   OposVariant.obj
 0001:00000708       ?SetBSTR_OutPtr@OposVariant@@QEAA_NPEAPEA_WAEAJ@Z 0000000180001708 f   OposVariant.obj
 0001:00000724       ?SetDispatch_Ptr@OposVariant@@QEAAXPEAUIDispatch@@AEAJ@Z 0000000180001724 f   OposVariant.obj
 0001:0000077c       ?SetLONG@OposVariant@@QEAAXJ@Z 000000018000177c f   OposVariant.obj
 0001:000007ac       ?SetLONG_Ptr@OposVariant@@QEAAXPEAJAEAJ@Z 00000001800017ac f   OposVariant.obj
 0001:000007f8       ?SetString@OposVariant@@QEAAXPEB_WAEAJ@Z 00000001800017f8 f   OposVariant.obj
 0001:0000085c       ?SetVARIANT_BOOL@OposVariant@@QEAAXF@Z 000000018000185c f   OposVariant.obj
 0001:00000894       ?Term@CAtlComModule@ATL@@QEAAXXZ 0000000180001894 f i OposVariant.obj
 0001:00000904       ?_AtlInitializeCriticalSectionEx@ATL@@YAHPEAU_RTL_CRITICAL_SECTION@@KK@Z 0000000180001904 f i OposVariant.obj
 0001:0000090c       ?_AtlRaiseException@ATL@@YAXKK@Z 000000018000190c f i OposVariant.obj
 0001:0000091c       ?GetWindowProc@?$CWindowImplBaseT@VCWindow@ATL@@V?$CWinTraits@$0FGAAAAAA@$0A@@2@@ATL@@UEAAP6A_JPEAUHWND__@@I_K_J@ZXZ 000000018000191c f i Totals.obj
 0001:00000924       ?StartWindowProc@?$CWindowImplBaseT@VCWindow@ATL@@V?$CWinTraits@$0FGAAAAAA@$0A@@2@@ATL@@SA_JPEAUHWND__@@I_K_J@Z 0000000180001924 f i Totals.obj
 0001:000009e8       ?ObjectMain@CComObjectRootBase@ATL@@SAX_N@Z 00000001800019e8 f i Totals.obj
 0001:000009e8       _guard_check_icall_nop     00000001800019e8 f i LIBCMT:guard_support.obj
 0001:000009e8       ?OnFinalMessage@?$CWindowImplBaseT@VCWindow@ATL@@V?$CWinTraits@$0FGAAAAAA@$0A@@2@@ATL@@UEAAXPEAUHWND__@@@Z 00000001800019e8 f i Totals.obj
 0001:000009ec       ?GetTypeInfoCount@?$IDispatchImpl@UIOPOSTotals@@$1?IID_IOPOSTotals@@3U_GUID@@B$1?LIBID_OposTotals_CCO@@3U3@B$00$0A@VCComTypeInfoHolder@ATL@@@ATL@@UEAAJPEAI@Z 00000001800019ec f i Totals.obj
 0001:00000a00       ?GetTypeInfo@?$IDispatchImpl@UIOPOSTotals@@$1?IID_IOPOSTotals@@3U_GUID@@B$1?LIBID_OposTotals_CCO@@3U3@B$00$0A@VCComTypeInfoHolder@ATL@@@ATL@@UEAAJIKPEAPEAUITypeInfo@@@Z 0000000180001a00 f i Totals.obj
 0001:00000a64       ?GetIDsOfNames@?$IDispatchImpl@UIOPOSTotals@@$1?IID_IOPOSTotals@@3U_GUID@@B$1?LIBID_OposTotals_CCO@@3U3@B$00$0A@VCComTypeInfoHolder@ATL@@@ATL@@UEAAJAEBU_GUID@@PEAPEA_WIKPEAJ@Z 0000000180001a64 f i Totals.obj
 0001:00000a70       ?Invoke@?$IDispatchImpl@UIOPOSTotals@@$1?IID_IOPOSTotals@@3U_GUID@@B$1?LIBID_OposTotals_CCO@@3U3@B$00$0A@VCComTypeInfoHolder@ATL@@@ATL@@UEAAJJAEBU_GUID@@KGPEAUtagDISPPARAMS@@PEAUtagVARIANT@@PEAUtagEXCEPINFO@@PEAI@Z 0000000180001a70 f i Totals.obj
 0001:00000b00       ?CreateControlWindow@?$CComControl@VCOPOSTotals@@V?$CWindowImpl@VCOPOSTotals@@VCWindow@ATL@@V?$CWinTraits@$0FGAAAAAA@$0A@@3@@ATL@@@ATL@@UEAAPEAUHWND__@@PEAU3@AEAUtagRECT@@@Z 0000000180001b00 f i Totals.obj
 0001:00000b38       ?ControlQueryInterface@?$CComControl@VCOPOSTotals@@V?$CWindowImpl@VCOPOSTotals@@VCWindow@ATL@@V?$CWinTraits@$0FGAAAAAA@$0A@@3@@ATL@@@ATL@@UEAAJAEBU_GUID@@PEAPEAX@Z 0000000180001b38 f i Totals.obj
 0001:00000b4c       ?GetClassID@?$IPersistStorageImpl@VCOPOSTotals@@@ATL@@UEAAJPEAU_GUID@@@Z 0000000180001b4c f i Totals.obj
 0001:00000b4c       ?GetClassID@?$IPersistStreamInitImpl@VCOPOSTotals@@@ATL@@UEAAJPEAU_GUID@@@Z 0000000180001b4c f i Totals.obj
 0001:00000b4c       ?GetUserClassID@?$IOleObjectImpl@VCOPOSTotals@@@ATL@@UEAAJPEAU_GUID@@@Z 0000000180001b4c f i Totals.obj
 0001:00000b68       ?IsDirty@?$IPersistStreamInitImpl@VCOPOSTotals@@@ATL@@UEAAJXZ 0000000180001b68 f i Totals.obj
 0001:00000b84       ?Load@?$IPersistStreamInitImpl@VCOPOSTotals@@@ATL@@UEAAJPEAUIStream@@@Z 0000000180001b84 f i Totals.obj
 0001:00000b9c       ?Save@?$IPersistStreamInitImpl@VCOPOSTotals@@@ATL@@UEAAJPEAUIStream@@H@Z 0000000180001b9c f i Totals.obj
 0001:00000bb4       ?GetSizeMax@?$IPersistStreamInitImpl@VCOPOSTotals@@@ATL@@UEAAJPEAT_ULARGE_INTEGER@@@Z 0000000180001bb4 f i Totals.obj
 0001:00000de0       ?InitNew@?$IPersistStreamInitImpl@VCOPOSTotals@@@ATL@@UEAAJXZ 0000000180001de0 f i Totals.obj
 0001:00000df8       ?GetClipboardData@?$IOleObjectImpl@VCOPOSTotals@@@ATL@@UEAAJKPEAPEAUIDataObject@@@Z 0000000180001df8 f i Totals.obj
 0001:00000df8       ?SetMoniker@?$IOleObjectImpl@VCOPOSTotals@@@ATL@@UEAAJKPEAUIMoniker@@@Z 0000000180001df8 f i Totals.obj
 0001:00000df8       ?SOOutputCompleteDummy@COPOSTotals@@MEAAJJ@Z 0000000180001df8 f i Totals.obj
 0001:00000df8       ?ContextSensitiveHelp@?$IOleInPlaceObjectWindowlessImpl@VCOPOSTotals@@@ATL@@UEAAJH@Z 0000000180001df8 f i Totals.obj
 0001:00000df8       ?OnMnemonic@?$IOleControlImpl@VCOPOSTotals@@@ATL@@UEAAJPEAUtagMSG@@@Z 0000000180001df8 f i Totals.obj
 0001:00000df8       ?GetRect@?$IViewObjectExImpl@VCOPOSTotals@@@ATL@@UEAAJKPEAU_RECTL@@@Z 0000000180001df8 f i Totals.obj
 0001:00000df8       ?GetColorSet@?$IViewObjectExImpl@VCOPOSTotals@@@ATL@@UEAAJKJPEAXPEAUtagDVTARGETDEVICE@@PEAUHDC__@@PEAPEAUtagLOGPALETTE@@@Z 0000000180001df8 f i Totals.obj
 0001:00000df8       ?ReactivateAndUndo@?$IOleInPlaceObjectWindowlessImpl@VCOPOSTotals@@@ATL@@UEAAJXZ 0000000180001df8 f i Totals.obj
 0001:00000df8       ?SODataDummy@COPOSTotals@@MEAAJJ@Z 0000000180001df8 f i Totals.obj
 0001:00000df8       ?Freeze@?$IViewObjectExImpl@VCOPOSTotals@@@ATL@@UEAAJKJPEAXPEAK@Z 0000000180001df8 f i Totals.obj
 0001:00000df8       ?EnumFormatEtc@?$IDataObjectImpl@VCOPOSTotals@@@ATL@@UEAAJKPEAPEAUIEnumFORMATETC@@@Z 0000000180001df8 f i Totals.obj
 0001:00000df8       ?ContextSensitiveHelp@?$IOleInPlaceActiveObjectImpl@VCOPOSTotals@@@ATL@@UEAAJH@Z 0000000180001df8 f i Totals.obj
 0001:00000df8       ?SetColorScheme@?$IOleObjectImpl@VCOPOSTotals@@@ATL@@UEAAJPEAUtagLOGPALETTE@@@Z 0000000180001df8 f i Totals.obj
 0001:00000df8       ?GetMoniker@?$IOleObjectImpl@VCOPOSTotals@@@ATL@@UEAAJKKPEAPEAUIMoniker@@@Z 0000000180001df8 f i Totals.obj
 0001:00000df8       ?QueryInterface@CRegObject@ATL@@UEAAJAEBU_GUID@@PEAPEAX@Z 0000000180001df8 f i Totals.obj
 0001:00000df8       ?SetData@?$IDataObjectImpl@VCOPOSTotals@@@ATL@@UEAAJPEAUtagFORMATETC@@PEAUtagSTGMEDIUM@@H@Z 0000000180001df8 f i Totals.obj
 0001:00000df8       ?GetDropTarget@?$IOleInPlaceObjectWindowlessImpl@VCOPOSTotals@@@ATL@@UEAAJPEAPEAUIDropTarget@@@Z 0000000180001df8 f i Totals.obj
 0001:00000df8       ?GetDataHere@?$IDataObjectImpl@VCOPOSTotals@@@ATL@@UEAAJPEAUtagFORMATETC@@PEAUtagSTGMEDIUM@@@Z 0000000180001df8 f i Totals.obj
 0001:00000df8       ?GetCanonicalFormatEtc@?$IDataObjectImpl@VCOPOSTotals@@@ATL@@UEAAJPEAUtagFORMATETC@@0@Z 0000000180001df8 f i Totals.obj
 0001:00000df8       ?InitFromData@?$IOleObjectImpl@VCOPOSTotals@@@ATL@@UEAAJPEAUIDataObject@@HK@Z 0000000180001df8 f i Totals.obj
 0001:00000df8       ?Unfreeze@?$IViewObjectExImpl@VCOPOSTotals@@@ATL@@UEAAJK@Z 0000000180001df8 f i Totals.obj
 0001:00000df8       ?GetControlInfo@?$IOleControlImpl@VCOPOSTotals@@@ATL@@UEAAJPEAUtagCONTROLINFO@@@Z 0000000180001df8 f i Totals.obj
 0001:00000df8       ?SOErrorDummy@COPOSTotals@@MEAAJJJJPEAJ@Z 0000000180001df8 f i Totals.obj
 0001:00000df8       ?QueryGetData@?$IDataObjectImpl@VCOPOSTotals@@@ATL@@UEAAJPEAUtagFORMATETC@@@Z 0000000180001df8 f i Totals.obj
 0001:00000e00       ?HandsOffStorage@?$IPersistStorageImpl@VCOPOSTotals@@@ATL@@UEAAJXZ 0000000180001e00 f i Totals.obj
 0001:00000e00       ?SaveCompleted@?$IPersistStorageImpl@VCOPOSTotals@@@ATL@@UEAAJPEAUIStorage@@@Z 0000000180001e00 f i Totals.obj
 0001:00000e00       ?EnableModeless@?$IOleInPlaceActiveObjectImpl@VCOPOSTotals@@@ATL@@UEAAJH@Z 0000000180001e00 f i Totals.obj
 0001:00000e00       ?OnAmbientPropertyChange@?$IOleControlImpl@VCOPOSTotals@@@ATL@@UEAAJJ@Z 0000000180001e00 f i Totals.obj
 0001:00000e00       ?IsUpToDate@?$IOleObjectImpl@VCOPOSTotals@@@ATL@@UEAAJXZ 0000000180001e00 f i Totals.obj
 0001:00000e00       ?SetHostNames@?$IOleObjectImpl@VCOPOSTotals@@@ATL@@UEAAJPEB_W0@Z 0000000180001e00 f i Totals.obj
 0001:00000e00       ?GetObjectDescription@?$CComCoClass@VCOPOSTotals@@$1?CLSID_OPOSTotals@@3U_GUID@@B@ATL@@SAPEB_WXZ 0000000180001e00 f i Totals.obj
 0001:00000e00       ?Update@?$IOleObjectImpl@VCOPOSTotals@@@ATL@@UEAAJXZ 0000000180001e00 f i Totals.obj
 0001:00000e00       ?GetCategoryMap@CComObjectRootBase@ATL@@SAPEBU_ATL_CATMAP_ENTRY@2@XZ 0000000180001e00 f i Totals.obj
 0001:00000e00       ?ResizeBorder@?$IOleInPlaceActiveObjectImpl@VCOPOSTotals@@@ATL@@UEAAJPEBUtagRECT@@PEAUIOleInPlaceUIWindow@@H@Z 0000000180001e00 f i Totals.obj
 0001:00000e00       ?OnFrameWindowActivate@?$IOleInPlaceActiveObjectImpl@VCOPOSTotals@@@ATL@@UEAAJH@Z 0000000180001e00 f i Totals.obj
 0001:00000e00       ?Release@CRegObject@ATL@@UEAAKXZ 0000000180001e00 f i Totals.obj
 0001:00000e04       ?SetClientSite@?$IOleObjectImpl@VCOPOSTotals@@@ATL@@UEAAJPEAUIOleClientSite@@@Z 0000000180001e04 f i Totals.obj
 0001:00000e20       ?GetClientSite@?$IOleObjectImpl@VCOPOSTotals@@@ATL@@UEAAJPEAPEAUIOleClientSite@@@Z 0000000180001e20 f i Totals.obj
 0001:00000e68       ?Close@?$IOleObjectImpl@VCOPOSTotals@@@ATL@@UEAAJK@Z 0000000180001e68 f i Totals.obj
 0001:00000e84       ?DoVerb@?$IOleObjectImpl@VCOPOSTotals@@@ATL@@UEAAJJPEAUtagMSG@@PEAUIOleClientSite@@JPEAUHWND__@@PEBUtagRECT@@@Z 0000000180001e84 f i Totals.obj
 0001:00001028       ?EnumVerbs@?$IOleObjectImpl@VCOPOSTotals@@@ATL@@UEAAJPEAPEAUIEnumOLEVERB@@@Z 0000000180002028 f i Totals.obj
 0001:00001044       ?GetUserType@?$IOleObjectImpl@VCOPOSTotals@@@ATL@@UEAAJKPEAPEA_W@Z 0000000180002044 f i Totals.obj
 0001:00001054       ?SetExtent@?$IOleObjectImpl@VCOPOSTotals@@@ATL@@UEAAJKPEAUtagSIZE@@@Z 0000000180002054 f i Totals.obj
 0001:00001070       ?GetExtent@?$IOleObjectImpl@VCOPOSTotals@@@ATL@@UEAAJKPEAUtagSIZE@@@Z 0000000180002070 f i Totals.obj
 0001:000010a0       ?Advise@?$IOleObjectImpl@VCOPOSTotals@@@ATL@@UEAAJPEAUIAdviseSink@@PEAK@Z 00000001800020a0 f i Totals.obj
 0001:000010fc       ?Unadvise@?$IOleObjectImpl@VCOPOSTotals@@@ATL@@UEAAJK@Z 00000001800020fc f i Totals.obj
 0001:00001134       ?EnumAdvise@?$IOleObjectImpl@VCOPOSTotals@@@ATL@@UEAAJPEAPEAUIEnumSTATDATA@@@Z 0000000180002134 f i Totals.obj
 0001:0000117c       ?GetMiscStatus@?$IOleObjectImpl@VCOPOSTotals@@@ATL@@UEAAJKPEAK@Z 000000018000217c f i Totals.obj
 0001:0000118c       ?GetWindow@?$IOleInPlaceActiveObjectImpl@VCOPOSTotals@@@ATL@@UEAAJPEAPEAUHWND__@@@Z 000000018000218c f i Totals.obj
 0001:000011e0       ?TranslateAcceleratorW@?$IOleInPlaceActiveObjectImpl@VCOPOSTotals@@@ATL@@UEAAJPEAUtagMSG@@@Z 00000001800021e0 f i Totals.obj
 0001:000012d4       ?OnDocWindowActivate@?$IOleInPlaceActiveObjectImpl@VCOPOSTotals@@@ATL@@UEAAJH@Z 00000001800022d4 f i Totals.obj
 0001:00001300       ?Draw@?$IViewObjectExImpl@VCOPOSTotals@@@ATL@@UEAAJKJPEAXPEAUtagDVTARGETDEVICE@@PEAUHDC__@@2PEBU_RECTL@@3P6AH_K@Z4@Z 0000000180002300 f i Totals.obj
 0001:00001364       ?SetAdvise@?$IViewObjectExImpl@VCOPOSTotals@@@ATL@@UEAAJKKPEAUIAdviseSink@@@Z 0000000180002364 f i Totals.obj
 0001:000013b8       ?GetAdvise@?$IViewObjectExImpl@VCOPOSTotals@@@ATL@@UEAAJPEAK0PEAPEAUIAdviseSink@@@Z 00000001800023b8 f i Totals.obj
 0001:000013f4       ?GetExtent@?$IViewObjectExImpl@VCOPOSTotals@@@ATL@@UEAAJKJPEAUtagDVTARGETDEVICE@@PEAUtagSIZE@@@Z 00000001800023f4 f i Totals.obj
 0001:00001424       ?GetViewStatus@?$IViewObjectExImpl@VCOPOSTotals@@@ATL@@UEAAJPEAK@Z 0000000180002424 f i Totals.obj
 0001:00001438       ?QueryHitPoint@?$IViewObjectExImpl@VCOPOSTotals@@@ATL@@UEAAJKPEBUtagRECT@@UtagPOINT@@JPEAK@Z 0000000180002438 f i Totals.obj
 0001:0000147c       ?QueryHitRect@?$IViewObjectExImpl@VCOPOSTotals@@@ATL@@UEAAJKPEBUtagRECT@@0JPEAK@Z 000000018000247c f i Totals.obj
 0001:000014e4       ?GetNaturalExtent@?$IViewObjectExImpl@VCOPOSTotals@@@ATL@@UEAAJKJPEAUtagDVTARGETDEVICE@@PEAUHDC__@@PEAUtagExtentInfo@@PEAUtagSIZE@@@Z 00000001800024e4 f i Totals.obj
 0001:0000152c       ?GetWindow@?$IOleInPlaceObjectWindowlessImpl@VCOPOSTotals@@@ATL@@UEAAJPEAPEAUHWND__@@@Z 000000018000252c f i Totals.obj
 0001:00001580       ?InPlaceDeactivate@?$IOleInPlaceObjectWindowlessImpl@VCOPOSTotals@@@ATL@@UEAAJXZ 0000000180002580 f i Totals.obj
 0001:0000159c       ?UIDeactivate@?$IOleInPlaceObjectWindowlessImpl@VCOPOSTotals@@@ATL@@UEAAJXZ 000000018000259c f i Totals.obj
 0001:000015b8       ?SetObjectRects@?$IOleInPlaceObjectWindowlessImpl@VCOPOSTotals@@@ATL@@UEAAJPEBUtagRECT@@0@Z 00000001800025b8 f i Totals.obj
 0001:000015d4       ?OnWindowMessage@?$IOleInPlaceObjectWindowlessImpl@VCOPOSTotals@@@ATL@@UEAAJI_K_JPEA_J@Z 00000001800025d4 f i Totals.obj
 0001:0000169c       ?EnumConnectionPoints@?$IConnectionPointContainerImpl@VCOPOSTotals@@@ATL@@UEAAJPEAPEAUIEnumConnectionPoints@@@Z 000000018000269c f i Totals.obj
 0001:000018e0       ?FindConnectionPoint@?$IConnectionPointContainerImpl@VCOPOSTotals@@@ATL@@UEAAJAEBU_GUID@@PEAPEAUIConnectionPoint@@@Z 00000001800028e0 f i Totals.obj
 0001:000019b0       ?IsDirty@?$IPersistStorageImpl@VCOPOSTotals@@@ATL@@UEAAJXZ 00000001800029b0 f i Totals.obj
 0001:000019f4       ?InitNew@?$IPersistStorageImpl@VCOPOSTotals@@@ATL@@UEAAJPEAUIStorage@@@Z 00000001800029f4 f i Totals.obj
 0001:00001a38       ?Load@?$IPersistStorageImpl@VCOPOSTotals@@@ATL@@UEAAJPEAUIStorage@@@Z 0000000180002a38 f i Totals.obj
 0001:00001ad8       ?Save@?$IPersistStorageImpl@VCOPOSTotals@@@ATL@@UEAAJPEAUIStorage@@H@Z 0000000180002ad8 f i Totals.obj
 0001:00001b88       ?GetPages@?$ISpecifyPropertyPagesImpl@VCOPOSTotals@@@ATL@@UEAAJPEAUtagCAUUID@@@Z 0000000180002b88 f i Totals.obj
 0001:00001b94       ?QuickActivate@?$IQuickActivateImpl@VCOPOSTotals@@@ATL@@UEAAJPEAUtagQACONTAINER@@PEAUtagQACONTROL@@@Z 0000000180002b94 f i Totals.obj
 0001:00001bb0       ?SetContentExtent@?$IQuickActivateImpl@VCOPOSTotals@@@ATL@@UEAAJPEAUtagSIZE@@@Z 0000000180002bb0 f i Totals.obj
 0001:00001be4       ?GetContentExtent@?$IQuickActivateImpl@VCOPOSTotals@@@ATL@@UEAAJPEAUtagSIZE@@@Z 0000000180002be4 f i Totals.obj
 0001:00001c1c       ?GetData@?$IDataObjectImpl@VCOPOSTotals@@@ATL@@UEAAJPEAUtagFORMATETC@@PEAUtagSTGMEDIUM@@@Z 0000000180002c1c f i Totals.obj
 0001:00001c38       ?DAdvise@?$IDataObjectImpl@VCOPOSTotals@@@ATL@@UEAAJPEAUtagFORMATETC@@KPEAUIAdviseSink@@PEAK@Z 0000000180002c38 f i Totals.obj
 0001:00001cc0       ?DUnadvise@?$IDataObjectImpl@VCOPOSTotals@@@ATL@@UEAAJK@Z 0000000180002cc0 f i Totals.obj
 0001:00001cec       ?EnumDAdvise@?$IDataObjectImpl@VCOPOSTotals@@@ATL@@UEAAJPEAPEAUIEnumSTATDATA@@@Z 0000000180002cec f i Totals.obj
 0001:00001d28       ?GetClassInfoW@?$IProvideClassInfo2Impl@$1?CLSID_OPOSTotals@@3U_GUID@@B$1?DIID__IOPOSTotalsEvents@@3U2@B$1?LIBID_OposTotals_CCO@@3U2@B$00$0A@VCComTypeInfoHolder@ATL@@@ATL@@UEAAJPEAPEAUITypeInfo@@@Z 0000000180002d28 f i Totals.obj
 0001:00001d80       ?GetGUID@?$IProvideClassInfo2Impl@$1?CLSID_OPOSTotals@@3U_GUID@@B$1?DIID__IOPOSTotalsEvents@@3U2@B$1?LIBID_OposTotals_CCO@@3U2@B$00$0A@VCComTypeInfoHolder@ATL@@@ATL@@UEAAJKPEAU_GUID@@@Z 0000000180002d80 f i Totals.obj
 0001:00001db4       ?FAccessAllowed@?$IObjectSafetyImpl@VCOPOSTotals@@$02@ATL@@MEAAHXZ 0000000180002db4 f i Totals.obj
 0001:00001db4       ?AddRef@CRegObject@ATL@@UEAAKXZ 0000000180002db4 f i Totals.obj
 0001:00001db4       _get_startup_argv_mode     0000000180002db4 f i LIBCMT:argv_mode.obj
 0001:00001dbc       ?GetInterfaceSafetyOptions@?$IObjectSafetyImpl@VCOPOSTotals@@$02@ATL@@UEAAJAEBU_GUID@@PEAK1@Z 0000000180002dbc f i Totals.obj
 0001:00001e50       ?SetInterfaceSafetyOptions@?$IObjectSafetyImpl@VCOPOSTotals@@$02@ATL@@UEAAJAEBU_GUID@@KK@Z 0000000180002e50 f i Totals.obj
 0001:00001ef4       ?_LocCPQueryInterface@?$IConnectionPointImpl@VCOPOSTotals@@$1?DIID__IOPOSTotalsEvents@@3U_GUID@@BVCComDynamicUnkArray@ATL@@@ATL@@UEAAJAEBU_GUID@@PEAPEAX@Z 0000000180002ef4 f i Totals.obj
 0001:00001ef4       ?_LocCPQueryInterface@?$IConnectionPointImpl@VCOPOSTotals@@$1?IID_IPropertyNotifySink@@3U_GUID@@BVCComDynamicUnkArray@ATL@@@ATL@@UEAAJAEBU_GUID@@PEAPEAX@Z 0000000180002ef4 f i Totals.obj
 0001:00001f68       ?GetConnectionInterface@?$IConnectionPointImpl@VCOPOSTotals@@$1?IID_IPropertyNotifySink@@3U_GUID@@BVCComDynamicUnkArray@ATL@@@ATL@@UEAAJPEAU_GUID@@@Z 0000000180002f68 f i Totals.obj
 0001:00001f84       ?GetConnectionPointContainer@?$IConnectionPointImpl@VCOPOSTotals@@$1?IID_IPropertyNotifySink@@3U_GUID@@BVCComDynamicUnkArray@ATL@@@ATL@@UEAAJPEAPEAUIConnectionPointContainer@@@Z 0000000180002f84 f i Totals.obj
 0001:00001fa4       ?Advise@?$IConnectionPointImpl@VCOPOSTotals@@$1?DIID__IOPOSTotalsEvents@@3U_GUID@@BVCComDynamicUnkArray@ATL@@@ATL@@UEAAJPEAUIUnknown@@PEAK@Z 0000000180002fa4 f i Totals.obj
 0001:00001fa4       ?Advise@?$IConnectionPointImpl@VCOPOSTotals@@$1?IID_IPropertyNotifySink@@3U_GUID@@BVCComDynamicUnkArray@ATL@@@ATL@@UEAAJPEAUIUnknown@@PEAK@Z 0000000180002fa4 f i Totals.obj
 0001:00002064       ?Unadvise@?$IConnectionPointImpl@VCOPOSTotals@@$1?IID_IPropertyNotifySink@@3U_GUID@@BVCComDynamicUnkArray@ATL@@@ATL@@UEAAJK@Z 0000000180003064 f i Totals.obj
 0001:00002064       ?Unadvise@?$IConnectionPointImpl@VCOPOSTotals@@$1?DIID__IOPOSTotalsEvents@@3U_GUID@@BVCComDynamicUnkArray@ATL@@@ATL@@UEAAJK@Z 0000000180003064 f i Totals.obj
 0001:000020e0       ?EnumConnections@?$IConnectionPointImpl@VCOPOSTotals@@$1?IID_IPropertyNotifySink@@3U_GUID@@BVCComDynamicUnkArray@ATL@@@ATL@@UEAAJPEAPEAUIEnumConnections@@@Z 00000001800030e0 f i Totals.obj
 0001:000020e0       ?EnumConnections@?$IConnectionPointImpl@VCOPOSTotals@@$1?DIID__IOPOSTotalsEvents@@3U_GUID@@BVCComDynamicUnkArray@ATL@@@ATL@@UEAAJPEAPEAUIEnumConnections@@@Z 00000001800030e0 f i Totals.obj
 0001:00002298       ?GetConnectionInterface@?$IConnectionPointImpl@VCOPOSTotals@@$1?DIID__IOPOSTotalsEvents@@3U_GUID@@BVCComDynamicUnkArray@ATL@@@ATL@@UEAAJPEAU_GUID@@@Z 0000000180003298 f i Totals.obj
 0001:000022b4       ?GetConnectionPointContainer@?$IConnectionPointImpl@VCOPOSTotals@@$1?DIID__IOPOSTotalsEvents@@3U_GUID@@BVCComDynamicUnkArray@ATL@@@ATL@@UEAAJPEAPEAUIConnectionPointContainer@@@Z 00000001800032b4 f i Totals.obj
 0001:000022d4       ?UpdateRegistry@COPOSTotals@@SAJH@Z 00000001800032d4 f i Totals.obj
 0001:000022ec       ?ProcessWindowMessage@COPOSTotals@@UEAAHPEAUHWND__@@I_K_JAEA_JK@Z 00000001800032ec f i Totals.obj
 0001:00002374       ?SODirectIO@COPOSTotals@@MEAAJJPEAJPEAPEA_W@Z 0000000180003374 f i Totals.obj
 0001:000023ec       ?SOStatusUpdate@COPOSTotals@@MEAAJJ@Z 00000001800033ec f i Totals.obj
 0001:0000243c       ?Lock@CAtlModule@ATL@@UEAAJXZ 000000018000343c f i Totals.obj
 0001:0000244c       ?Unlock@CAtlModule@ATL@@UEAAJXZ 000000018000344c f i Totals.obj
 0001:00002458       ?GetLockCount@CAtlModule@ATL@@UEAAJXZ 0000000180003458 f i Totals.obj
 0001:0000245c       ?GetGITPtr@CAtlModule@ATL@@UEAAJPEAPEAUIGlobalInterfaceTable@@@Z 000000018000345c f i Totals.obj
 0001:000024cc       ?CreateInstance@?$CComCreator@V?$CComObjectCached@VCComClassFactory@ATL@@@ATL@@@ATL@@SAJPEAXAEBU_GUID@@PEAPEAX@Z 00000001800034cc f i Totals.obj
 0001:000025f8       ?CreateInstance@?$CComCreator2@V?$CComCreator@V?$CComObject@VCOPOSTotals@@@ATL@@@ATL@@V?$CComCreator@V?$CComAggObject@VCOPOSTotals@@@ATL@@@2@@ATL@@SAJPEAXAEBU_GUID@@PEAPEAX@Z 00000001800035f8 f i Totals.obj
 0001:00002608       ?AddRef@?$CComObjectCached@VCComClassFactory@ATL@@@ATL@@UEAAKXZ 0000000180003608 f i Totals.obj
 0001:00002634       ?Release@?$CComObjectCached@VCComClassFactory@ATL@@@ATL@@UEAAKXZ 0000000180003634 f i Totals.obj
 0001:00002674       ?QueryInterface@?$CComObjectCached@VCComClassFactory@ATL@@@ATL@@UEAAJAEBU_GUID@@PEAPEAX@Z 0000000180003674 f i Totals.obj
 0001:00002688       ??_E?$CComObjectCached@VCComClassFactory@ATL@@@ATL@@UEAAPEAXI@Z 0000000180003688 f i Totals.obj
 0001:00002688       ??_G?$CComObjectCached@VCComClassFactory@ATL@@@ATL@@UEAAPEAXI@Z 0000000180003688 f i Totals.obj
 0001:000026e0       ?AddCommonRGSReplacements@?$CAtlModuleT@VCComModule@ATL@@@ATL@@UEAAJPEAUIRegistrarBase@@@Z 00000001800036e0 f i Totals.obj
 0001:000026f8       ?UpdateRegistryFromResourceD@CComModule@ATL@@UEAAJPEB_WHPEAU_ATL_REGMAP_ENTRY@2@@Z 00000001800036f8 f i Totals.obj
 0001:000026f8       ?UpdateRegistryFromResourceD@CComModule@ATL@@UEAAJIHPEAU_ATL_REGMAP_ENTRY@2@@Z 00000001800036f8 f i Totals.obj
 0001:00002700       ?UpdateRegistryFromResource@CComModule@ATL@@UEAAJPEB_WHPEAU_ATL_REGMAP_ENTRY@2@@Z 0000000180003700 f i Totals.obj
 0001:00002708       ?UpdateRegistryFromResource@CComModule@ATL@@UEAAJIHPEAU_ATL_REGMAP_ENTRY@2@@Z 0000000180003708 f i Totals.obj
 0001:00002710       ??_ECComModule@ATL@@UEAAPEAXI@Z 0000000180003710 f i Totals.obj
 0001:00002710       ??_GCComModule@ATL@@UEAAPEAXI@Z 0000000180003710 f i Totals.obj
 0001:00002750       ?Next@?$CComEnumImpl@UIEnumConnectionPoints@@$1?_GUID_b196b285_bab4_101a_b69c_00aa00341d07@@3U__s_GUID@@BPEAUIConnectionPoint@@V?$_CopyInterface@UIConnectionPoint@@@ATL@@@ATL@@UEAAJKPEAPEAUIConnectionPoint@@PEAK@Z 0000000180003750 f i Totals.obj
 0001:0000281c       ?Skip@?$CComEnumImpl@UIEnumConnectionPoints@@$1?_GUID_b196b285_bab4_101a_b69c_00aa00341d07@@3U__s_GUID@@BPEAUIConnectionPoint@@V?$_CopyInterface@UIConnectionPoint@@@ATL@@@ATL@@UEAAJK@Z 000000018000381c f i Totals.obj
 0001:00002848       ?Reset@?$CComEnumImpl@UIEnumConnectionPoints@@$1?_GUID_b196b285_bab4_101a_b69c_00aa00341d07@@3U__s_GUID@@BPEAUIConnectionPoint@@V?$_CopyInterface@UIConnectionPoint@@@ATL@@@ATL@@UEAAJXZ 0000000180003848 f i Totals.obj
 0001:00002848       ?Reset@?$CComEnumImpl@UIEnumConnections@@$1?_GUID_b196b287_bab4_101a_b69c_00aa00341d07@@3U__s_GUID@@BUtagCONNECTDATA@@V?$_Copy@UtagCONNECTDATA@@@ATL@@@ATL@@UEAAJXZ 0000000180003848 f i Totals.obj
 0001:00002854       ?Clone@?$CComEnumImpl@UIEnumConnectionPoints@@$1?_GUID_b196b285_bab4_101a_b69c_00aa00341d07@@3U__s_GUID@@BPEAUIConnectionPoint@@V?$_CopyInterface@UIConnectionPoint@@@ATL@@@ATL@@UEAAJPEAPEAUIEnumConnectionPoints@@@Z 0000000180003854 f i Totals.obj
 0001:00002980       ?AddRef@?$CComObject@V?$CComEnum@UIEnumConnections@@$1?_GUID_b196b287_bab4_101a_b69c_00aa00341d07@@3U__s_GUID@@BUtagCONNECTDATA@@V?$_Copy@UtagCONNECTDATA@@@ATL@@VCComSingleThreadModel@6@@ATL@@@ATL@@UEAAKXZ 0000000180003980 f i Totals.obj
 0001:00002980       ?AddRef@?$CComObject@V?$CComEnum@UIEnumConnectionPoints@@$1?_GUID_b196b285_bab4_101a_b69c_00aa00341d07@@3U__s_GUID@@BPEAUIConnectionPoint@@V?$_CopyInterface@UIConnectionPoint@@@ATL@@VCComSingleThreadModel@6@@ATL@@@ATL@@UEAAKXZ 0000000180003980 f i Totals.obj
 0001:0000298c       ?Release@?$CComObject@V?$CComEnum@UIEnumConnectionPoints@@$1?_GUID_b196b285_bab4_101a_b69c_00aa00341d07@@3U__s_GUID@@BPEAUIConnectionPoint@@V?$_CopyInterface@UIConnectionPoint@@@ATL@@VCComSingleThreadModel@6@@ATL@@@ATL@@UEAAKXZ 000000018000398c f i Totals.obj
 0001:0000298c       ?Release@?$CComObject@V?$CComEnum@UIEnumConnections@@$1?_GUID_b196b287_bab4_101a_b69c_00aa00341d07@@3U__s_GUID@@BUtagCONNECTDATA@@V?$_Copy@UtagCONNECTDATA@@@ATL@@VCComSingleThreadModel@6@@ATL@@@ATL@@UEAAKXZ 000000018000398c f i Totals.obj
 0001:000029e0       ?QueryInterface@?$CComObject@V?$CComEnum@UIEnumConnectionPoints@@$1?_GUID_b196b285_bab4_101a_b69c_00aa00341d07@@3U__s_GUID@@BPEAUIConnectionPoint@@V?$_CopyInterface@UIConnectionPoint@@@ATL@@VCComSingleThreadModel@6@@ATL@@@ATL@@UEAAJAEBU_GUID@@PEAPEAX@Z 00000001800039e0 f i Totals.obj
 0001:000029f4       ??_G?$CComObject@V?$CComEnum@UIEnumConnectionPoints@@$1?_GUID_b196b285_bab4_101a_b69c_00aa00341d07@@3U__s_GUID@@BPEAUIConnectionPoint@@V?$_CopyInterface@UIConnectionPoint@@@ATL@@VCComSingleThreadModel@6@@ATL@@@ATL@@UEAAPEAXI@Z 00000001800039f4 f i Totals.obj
 0001:000029f4       ??_E?$CComObject@V?$CComEnum@UIEnumConnectionPoints@@$1?_GUID_b196b285_bab4_101a_b69c_00aa00341d07@@3U__s_GUID@@BPEAUIConnectionPoint@@V?$_CopyInterface@UIConnectionPoint@@@ATL@@VCComSingleThreadModel@6@@ATL@@@ATL@@UEAAPEAXI@Z 00000001800039f4 f i Totals.obj
 0001:00002a4c       ?AddReplacement@CRegObject@ATL@@UEAAJPEB_W0@Z 0000000180003a4c f i Totals.obj
 0001:00002a7c       ?ClearReplacements@CRegObject@ATL@@UEAAJXZ 0000000180003a7c f i Totals.obj
 0001:00002a88       ??_ECRegObject@ATL@@UEAAPEAXI@Z 0000000180003a88 f i Totals.obj
 0001:00002a88       ??_GCRegObject@ATL@@UEAAPEAXI@Z 0000000180003a88 f i Totals.obj
 0001:00002b08       ?AddRef@?$CComAggObject@VCOPOSTotals@@@ATL@@UEAAKXZ 0000000180003b08 f i Totals.obj
 0001:00002b14       ?Release@?$CComAggObject@VCOPOSTotals@@@ATL@@UEAAKXZ 0000000180003b14 f i Totals.obj
 0001:00002b68       ?QueryInterface@?$CComAggObject@VCOPOSTotals@@@ATL@@UEAAJAEBU_GUID@@PEAPEAX@Z 0000000180003b68 f i Totals.obj
 0001:00002bc8       ?AddRef@?$CComContainedObject@VCOPOSTotals@@@ATL@@UEAAKXZ 0000000180003bc8 f i Totals.obj
 0001:00002bd8       ?Release@?$CComContainedObject@VCOPOSTotals@@@ATL@@UEAAKXZ 0000000180003bd8 f i Totals.obj
 0001:00002be8       ?QueryInterface@?$CComContainedObject@VCOPOSTotals@@@ATL@@UEAAJAEBU_GUID@@PEAPEAX@Z 0000000180003be8 f i Totals.obj
 0001:00002bf8       ??_E?$CComAggObject@VCOPOSTotals@@@ATL@@UEAAPEAXI@Z 0000000180003bf8 f i Totals.obj
 0001:00002bf8       ??_G?$CComAggObject@VCOPOSTotals@@@ATL@@UEAAPEAXI@Z 0000000180003bf8 f i Totals.obj
 0001:00002c50       ?AddRef@?$CComObject@VCOPOSTotals@@@ATL@@UEAAKXZ 0000000180003c50 f i Totals.obj
 0001:00002c60       ?Release@?$CComObject@VCOPOSTotals@@@ATL@@UEAAKXZ 0000000180003c60 f i Totals.obj
 0001:00002cb8       ?QueryInterface@?$CComObject@VCOPOSTotals@@@ATL@@UEAAJAEBU_GUID@@PEAPEAX@Z 0000000180003cb8 f i Totals.obj
 0001:00002ccc       ?OnDrawAdvanced@CComControlBase@ATL@@UEAAJAEAUATL_DRAWINFO@@@Z 0000000180003ccc f i Totals.obj
 0001:00002e58       ?Next@?$CComEnumImpl@UIEnumConnections@@$1?_GUID_b196b287_bab4_101a_b69c_00aa00341d07@@3U__s_GUID@@BUtagCONNECTDATA@@V?$_Copy@UtagCONNECTDATA@@@ATL@@@ATL@@UEAAJKPEAUtagCONNECTDATA@@PEAK@Z 0000000180003e58 f i Totals.obj
 0001:00002f2c       ?Skip@?$CComEnumImpl@UIEnumConnections@@$1?_GUID_b196b287_bab4_101a_b69c_00aa00341d07@@3U__s_GUID@@BUtagCONNECTDATA@@V?$_Copy@UtagCONNECTDATA@@@ATL@@@ATL@@UEAAJK@Z 0000000180003f2c f i Totals.obj
 0001:00002f58       ?Clone@?$CComEnumImpl@UIEnumConnections@@$1?_GUID_b196b287_bab4_101a_b69c_00aa00341d07@@3U__s_GUID@@BUtagCONNECTDATA@@V?$_Copy@UtagCONNECTDATA@@@ATL@@@ATL@@UEAAJPEAPEAUIEnumConnections@@@Z 0000000180003f58 f i Totals.obj
 0001:00003084       ?QueryInterface@?$CComObject@V?$CComEnum@UIEnumConnections@@$1?_GUID_b196b287_bab4_101a_b69c_00aa00341d07@@3U__s_GUID@@BUtagCONNECTDATA@@V?$_Copy@UtagCONNECTDATA@@@ATL@@VCComSingleThreadModel@6@@ATL@@@ATL@@UEAAJAEBU_GUID@@PEAPEAX@Z 0000000180004084 f i Totals.obj
 0001:00003098       ??_E?$CComObject@V?$CComEnum@UIEnumConnections@@$1?_GUID_b196b287_bab4_101a_b69c_00aa00341d07@@3U__s_GUID@@BUtagCONNECTDATA@@V?$_Copy@UtagCONNECTDATA@@@ATL@@VCComSingleThreadModel@6@@ATL@@@ATL@@UEAAPEAXI@Z 0000000180004098 f i Totals.obj
 0001:00003098       ??_G?$CComObject@V?$CComEnum@UIEnumConnections@@$1?_GUID_b196b287_bab4_101a_b69c_00aa00341d07@@3U__s_GUID@@BUtagCONNECTDATA@@V?$_Copy@UtagCONNECTDATA@@@ATL@@VCComSingleThreadModel@6@@ATL@@@ATL@@UEAAPEAXI@Z 0000000180004098 f i Totals.obj
 0001:000030f0       ??_E?$CComObject@VCOPOSTotals@@@ATL@@W7EAAPEAXI@Z 00000001800040f0 f i Totals.obj
 0001:000030fc       ??_E?$CComObject@VCOPOSTotals@@@ATL@@WHA@EAAPEAXI@Z 00000001800040fc f i Totals.obj
 0001:00003108       ?QueryInterface@?$CComObject@VCOPOSTotals@@@ATL@@WLI@EAAJAEBU_GUID@@PEAPEAX@Z 0000000180004108 f i Totals.obj
 0001:00003114       ?AddRef@?$CComObject@VCOPOSTotals@@@ATL@@WLI@EAAKXZ 0000000180004114 f i Totals.obj
 0001:00003120       ?Release@?$CComObject@VCOPOSTotals@@@ATL@@WLI@EAAKXZ 0000000180004120 f i Totals.obj
 0001:0000312c       ?QueryInterface@?$CComObject@VCOPOSTotals@@@ATL@@WMA@EAAJAEBU_GUID@@PEAPEAX@Z 000000018000412c f i Totals.obj
 0001:00003138       ?AddRef@?$CComObject@VCOPOSTotals@@@ATL@@WMA@EAAKXZ 0000000180004138 f i Totals.obj
 0001:00003144       ?Release@?$CComObject@VCOPOSTotals@@@ATL@@WMA@EAAKXZ 0000000180004144 f i Totals.obj
 0001:00003150       ?QueryInterface@?$CComObject@VCOPOSTotals@@@ATL@@WMI@EAAJAEBU_GUID@@PEAPEAX@Z 0000000180004150 f i Totals.obj
 0001:0000315c       ?AddRef@?$CComObject@VCOPOSTotals@@@ATL@@WMI@EAAKXZ 000000018000415c f i Totals.obj
 0001:00003168       ?Release@?$CComObject@VCOPOSTotals@@@ATL@@WMI@EAAKXZ 0000000180004168 f i Totals.obj
 0001:00003174       ?QueryInterface@?$CComObject@VCOPOSTotals@@@ATL@@WNA@EAAJAEBU_GUID@@PEAPEAX@Z 0000000180004174 f i Totals.obj
 0001:00003180       ?AddRef@?$CComObject@VCOPOSTotals@@@ATL@@WNA@EAAKXZ 0000000180004180 f i Totals.obj
 0001:0000318c       ?Release@?$CComObject@VCOPOSTotals@@@ATL@@WNA@EAAKXZ 000000018000418c f i Totals.obj
 0001:00003198       ?QueryInterface@?$CComObject@VCOPOSTotals@@@ATL@@WNI@EAAJAEBU_GUID@@PEAPEAX@Z 0000000180004198 f i Totals.obj
 0001:000031a4       ?AddRef@?$CComObject@VCOPOSTotals@@@ATL@@WNI@EAAKXZ 00000001800041a4 f i Totals.obj
 0001:000031b0       ?Release@?$CComObject@VCOPOSTotals@@@ATL@@WNI@EAAKXZ 00000001800041b0 f i Totals.obj
 0001:000031bc       ?QueryInterface@?$CComObject@VCOPOSTotals@@@ATL@@WOA@EAAJAEBU_GUID@@PEAPEAX@Z 00000001800041bc f i Totals.obj
 0001:000031c8       ?AddRef@?$CComObject@VCOPOSTotals@@@ATL@@WOA@EAAKXZ 00000001800041c8 f i Totals.obj
 0001:000031d4       ?Release@?$CComObject@VCOPOSTotals@@@ATL@@WOA@EAAKXZ 00000001800041d4 f i Totals.obj
 0001:000031e0       ?QueryInterface@?$CComObject@VCOPOSTotals@@@ATL@@WOI@EAAJAEBU_GUID@@PEAPEAX@Z 00000001800041e0 f i Totals.obj
 0001:000031ec       ?AddRef@?$CComObject@VCOPOSTotals@@@ATL@@WOI@EAAKXZ 00000001800041ec f i Totals.obj
 0001:000031f8       ?Release@?$CComObject@VCOPOSTotals@@@ATL@@WOI@EAAKXZ 00000001800041f8 f i Totals.obj
 0001:00003204       ?QueryInterface@?$CComObject@VCOPOSTotals@@@ATL@@WPA@EAAJAEBU_GUID@@PEAPEAX@Z 0000000180004204 f i Totals.obj
 0001:00003210       ?AddRef@?$CComObject@VCOPOSTotals@@@ATL@@WPA@EAAKXZ 0000000180004210 f i Totals.obj
 0001:0000321c       ?Release@?$CComObject@VCOPOSTotals@@@ATL@@WPA@EAAKXZ 000000018000421c f i Totals.obj
 0001:00003228       ?QueryInterface@?$CComObject@VCOPOSTotals@@@ATL@@WPI@EAAJAEBU_GUID@@PEAPEAX@Z 0000000180004228 f i Totals.obj
 0001:00003234       ?AddRef@?$CComObject@VCOPOSTotals@@@ATL@@WPI@EAAKXZ 0000000180004234 f i Totals.obj
 0001:00003240       ?Release@?$CComObject@VCOPOSTotals@@@ATL@@WPI@EAAKXZ 0000000180004240 f i Totals.obj
 0001:0000324c       ?QueryInterface@?$CComObject@VCOPOSTotals@@@ATL@@WBAA@EAAJAEBU_GUID@@PEAPEAX@Z 000000018000424c f i Totals.obj
 0001:00003258       ?AddRef@?$CComObject@VCOPOSTotals@@@ATL@@WBAA@EAAKXZ 0000000180004258 f i Totals.obj
 0001:00003264       ?Release@?$CComObject@VCOPOSTotals@@@ATL@@WBAA@EAAKXZ 0000000180004264 f i Totals.obj
 0001:00003270       ?QueryInterface@?$CComObject@VCOPOSTotals@@@ATL@@WBAI@EAAJAEBU_GUID@@PEAPEAX@Z 0000000180004270 f i Totals.obj
 0001:0000327c       ?AddRef@?$CComObject@VCOPOSTotals@@@ATL@@WBAI@EAAKXZ 000000018000427c f i Totals.obj
 0001:00003288       ?Release@?$CComObject@VCOPOSTotals@@@ATL@@WBAI@EAAKXZ 0000000180004288 f i Totals.obj
 0001:00003294       ?QueryInterface@?$CComObject@VCOPOSTotals@@@ATL@@WBBA@EAAJAEBU_GUID@@PEAPEAX@Z 0000000180004294 f i Totals.obj
 0001:000032a0       ?AddRef@?$CComObject@VCOPOSTotals@@@ATL@@WBBA@EAAKXZ 00000001800042a0 f i Totals.obj
 0001:000032ac       ?Release@?$CComObject@VCOPOSTotals@@@ATL@@WBBA@EAAKXZ 00000001800042ac f i Totals.obj
 0001:000032b8       ?QueryInterface@?$CComObject@VCOPOSTotals@@@ATL@@WBBI@EAAJAEBU_GUID@@PEAPEAX@Z 00000001800042b8 f i Totals.obj
 0001:000032c4       ?AddRef@?$CComObject@VCOPOSTotals@@@ATL@@WBBI@EAAKXZ 00000001800042c4 f i Totals.obj
 0001:000032d0       ?Release@?$CComObject@VCOPOSTotals@@@ATL@@WBBI@EAAKXZ 00000001800042d0 f i Totals.obj
 0001:000032dc       ?AddRef@?$CComObject@VCOPOSTotals@@@ATL@@WBCI@EAAKXZ 00000001800042dc f i Totals.obj
 0001:000032e8       ?Release@?$CComObject@VCOPOSTotals@@@ATL@@WBCI@EAAKXZ 00000001800042e8 f i Totals.obj
 0001:000032f4       ?AddRef@?$CComObject@VCOPOSTotals@@@ATL@@WBEA@EAAKXZ 00000001800042f4 f i Totals.obj
 0001:00003300       ?Release@?$CComObject@VCOPOSTotals@@@ATL@@WBEA@EAAKXZ 0000000180004300 f i Totals.obj
 0001:0000330c       ??_E?$CComContainedObject@VCOPOSTotals@@@ATL@@W7EAAPEAXI@Z 000000018000430c f i Totals.obj
 0001:00003318       ??_E?$CComContainedObject@VCOPOSTotals@@@ATL@@WHA@EAAPEAXI@Z 0000000180004318 f i Totals.obj
 0001:00003324       ?QueryInterface@?$CComContainedObject@VCOPOSTotals@@@ATL@@WLI@EAAJAEBU_GUID@@PEAPEAX@Z 0000000180004324 f i Totals.obj
 0001:00003330       ?AddRef@?$CComContainedObject@VCOPOSTotals@@@ATL@@WLI@EAAKXZ 0000000180004330 f i Totals.obj
 0001:0000333c       ?Release@?$CComContainedObject@VCOPOSTotals@@@ATL@@WLI@EAAKXZ 000000018000433c f i Totals.obj
 0001:00003348       ?QueryInterface@?$CComContainedObject@VCOPOSTotals@@@ATL@@WMA@EAAJAEBU_GUID@@PEAPEAX@Z 0000000180004348 f i Totals.obj
 0001:00003354       ?AddRef@?$CComContainedObject@VCOPOSTotals@@@ATL@@WMA@EAAKXZ 0000000180004354 f i Totals.obj
 0001:00003360       ?Release@?$CComContainedObject@VCOPOSTotals@@@ATL@@WMA@EAAKXZ 0000000180004360 f i Totals.obj
 0001:0000336c       ?QueryInterface@?$CComContainedObject@VCOPOSTotals@@@ATL@@WMI@EAAJAEBU_GUID@@PEAPEAX@Z 000000018000436c f i Totals.obj
 0001:00003378       ?AddRef@?$CComContainedObject@VCOPOSTotals@@@ATL@@WMI@EAAKXZ 0000000180004378 f i Totals.obj
 0001:00003384       ?Release@?$CComContainedObject@VCOPOSTotals@@@ATL@@WMI@EAAKXZ 0000000180004384 f i Totals.obj
 0001:00003390       ?QueryInterface@?$CComContainedObject@VCOPOSTotals@@@ATL@@WNA@EAAJAEBU_GUID@@PEAPEAX@Z 0000000180004390 f i Totals.obj
 0001:0000339c       ?AddRef@?$CComContainedObject@VCOPOSTotals@@@ATL@@WNA@EAAKXZ 000000018000439c f i Totals.obj
 0001:000033a8       ?Release@?$CComContainedObject@VCOPOSTotals@@@ATL@@WNA@EAAKXZ 00000001800043a8 f i Totals.obj
 0001:000033b4       ?QueryInterface@?$CComContainedObject@VCOPOSTotals@@@ATL@@WNI@EAAJAEBU_GUID@@PEAPEAX@Z 00000001800043b4 f i Totals.obj
 0001:000033c0       ?AddRef@?$CComContainedObject@VCOPOSTotals@@@ATL@@WNI@EAAKXZ 00000001800043c0 f i Totals.obj
 0001:000033cc       ?Release@?$CComContainedObject@VCOPOSTotals@@@ATL@@WNI@EAAKXZ 00000001800043cc f i Totals.obj
 0001:000033d8       ?QueryInterface@?$CComContainedObject@VCOPOSTotals@@@ATL@@WOA@EAAJAEBU_GUID@@PEAPEAX@Z 00000001800043d8 f i Totals.obj
 0001:000033e4       ?AddRef@?$CComContainedObject@VCOPOSTotals@@@ATL@@WOA@EAAKXZ 00000001800043e4 f i Totals.obj
 0001:000033f0       ?Release@?$CComContainedObject@VCOPOSTotals@@@ATL@@WOA@EAAKXZ 00000001800043f0 f i Totals.obj
 0001:000033fc       ?QueryInterface@?$CComContainedObject@VCOPOSTotals@@@ATL@@WOI@EAAJAEBU_GUID@@PEAPEAX@Z 00000001800043fc f i Totals.obj
 0001:00003408       ?AddRef@?$CComContainedObject@VCOPOSTotals@@@ATL@@WOI@EAAKXZ 0000000180004408 f i Totals.obj
 0001:00003414       ?Release@?$CComContainedObject@VCOPOSTotals@@@ATL@@WOI@EAAKXZ 0000000180004414 f i Totals.obj
 0001:00003420       ?QueryInterface@?$CComContainedObject@VCOPOSTotals@@@ATL@@WPA@EAAJAEBU_GUID@@PEAPEAX@Z 0000000180004420 f i Totals.obj
 0001:0000342c       ?AddRef@?$CComContainedObject@VCOPOSTotals@@@ATL@@WPA@EAAKXZ 000000018000442c f i Totals.obj
 0001:00003438       ?Release@?$CComContainedObject@VCOPOSTotals@@@ATL@@WPA@EAAKXZ 0000000180004438 f i Totals.obj
 0001:00003444       ?QueryInterface@?$CComContainedObject@VCOPOSTotals@@@ATL@@WPI@EAAJAEBU_GUID@@PEAPEAX@Z 0000000180004444 f i Totals.obj
 0001:00003450       ?AddRef@?$CComContainedObject@VCOPOSTotals@@@ATL@@WPI@EAAKXZ 0000000180004450 f i Totals.obj
 0001:0000345c       ?Release@?$CComContainedObject@VCOPOSTotals@@@ATL@@WPI@EAAKXZ 000000018000445c f i Totals.obj
 0001:00003468       ?QueryInterface@?$CComContainedObject@VCOPOSTotals@@@ATL@@WBAA@EAAJAEBU_GUID@@PEAPEAX@Z 0000000180004468 f i Totals.obj
 0001:00003474       ?AddRef@?$CComContainedObject@VCOPOSTotals@@@ATL@@WBAA@EAAKXZ 0000000180004474 f i Totals.obj
 0001:00003480       ?Release@?$CComContainedObject@VCOPOSTotals@@@ATL@@WBAA@EAAKXZ 0000000180004480 f i Totals.obj
 0001:0000348c       ?QueryInterface@?$CComContainedObject@VCOPOSTotals@@@ATL@@WBAI@EAAJAEBU_GUID@@PEAPEAX@Z 000000018000448c f i Totals.obj
 0001:00003498       ?AddRef@?$CComContainedObject@VCOPOSTotals@@@ATL@@WBAI@EAAKXZ 0000000180004498 f i Totals.obj
 0001:000034a4       ?Release@?$CComContainedObject@VCOPOSTotals@@@ATL@@WBAI@EAAKXZ 00000001800044a4 f i Totals.obj
 0001:000034b0       ?QueryInterface@?$CComContainedObject@VCOPOSTotals@@@ATL@@WBBA@EAAJAEBU_GUID@@PEAPEAX@Z 00000001800044b0 f i Totals.obj
 0001:000034bc       ?AddRef@?$CComContainedObject@VCOPOSTotals@@@ATL@@WBBA@EAAKXZ 00000001800044bc f i Totals.obj
 0001:000034c8       ?Release@?$CComContainedObject@VCOPOSTotals@@@ATL@@WBBA@EAAKXZ 00000001800044c8 f i Totals.obj
 0001:000034d4       ?QueryInterface@?$CComContainedObject@VCOPOSTotals@@@ATL@@WBBI@EAAJAEBU_GUID@@PEAPEAX@Z 00000001800044d4 f i Totals.obj
 0001:000034e0       ?AddRef@?$CComContainedObject@VCOPOSTotals@@@ATL@@WBBI@EAAKXZ 00000001800044e0 f i Totals.obj
 0001:000034ec       ?Release@?$CComContainedObject@VCOPOSTotals@@@ATL@@WBBI@EAAKXZ 00000001800044ec f i Totals.obj
 0001:000034f8       ?AddRef@?$CComContainedObject@VCOPOSTotals@@@ATL@@WBCI@EAAKXZ 00000001800044f8 f i Totals.obj
 0001:00003504       ?Release@?$CComContainedObject@VCOPOSTotals@@@ATL@@WBCI@EAAKXZ 0000000180004504 f i Totals.obj
 0001:00003510       ?AddRef@?$CComContainedObject@VCOPOSTotals@@@ATL@@WBEA@EAAKXZ 0000000180004510 f i Totals.obj
 0001:0000351c       ?Release@?$CComContainedObject@VCOPOSTotals@@@ATL@@WBEA@EAAKXZ 000000018000451c f i Totals.obj
 0001:00003528       ?CreateInstance@CComClassFactory@ATL@@UEAAJPEAUIUnknown@@AEBU_GUID@@PEAPEAX@Z 0000000180004528 f i Totals.obj
 0001:00003588       ?LockServer@CComClassFactory@ATL@@UEAAJH@Z 0000000180004588 f i Totals.obj
 0001:000035ac       ??_ECComClassFactory@ATL@@UEAAPEAXI@Z 00000001800045ac f i Totals.obj
 0001:000035ac       ??_GCComClassFactory@ATL@@UEAAPEAXI@Z 00000001800045ac f i Totals.obj
 0001:000035fc       ??$AtlModuleRegisterWndClassInfoT@VAtlModuleRegisterWndClassInfoParamW@ATL@@@ATL@@YAGPEAU_ATL_BASE_MODULE70@0@PEAU_ATL_WIN_MODULE70@0@PEAU_ATL_WNDCLASSINFOW@0@PEAP6A_JPEAUHWND__@@I_K_J@ZVAtlModuleRegisterWndClassInfoParamW@0@@Z 00000001800045fc f i Totals.obj
 0001:000037fc       ??0?$CComContainedObject@VCOPOSTotals@@@ATL@@QEAA@PEAX@Z 00000001800047fc f i Totals.obj
 0001:00003918       ??0?$CComObject@VCOPOSTotals@@@ATL@@QEAA@PEAX@Z 0000000180004918 f i Totals.obj
 0001:00003a30       ??0CAtlModule@ATL@@QEAA@XZ 0000000180004a30 f i Totals.obj
 0001:00003aa4       ??1?$CComEnumImpl@UIEnumConnectionPoints@@$1?_GUID_b196b285_bab4_101a_b69c_00aa00341d07@@3U__s_GUID@@BPEAUIConnectionPoint@@V?$_CopyInterface@UIConnectionPoint@@@ATL@@@ATL@@UEAA@XZ 0000000180004aa4 f i Totals.obj
 0001:00003b00       ??1?$CComEnumImpl@UIEnumConnections@@$1?_GUID_b196b287_bab4_101a_b69c_00aa00341d07@@3U__s_GUID@@BUtagCONNECTDATA@@V?$_Copy@UtagCONNECTDATA@@@ATL@@@ATL@@UEAA@XZ 0000000180004b00 f i Totals.obj
 0001:00003b5c       ??1?$CComObject@VCOPOSTotals@@@ATL@@UEAA@XZ 0000000180004b5c f i Totals.obj
 0001:00003c7c       ??_G?$CComContainedObject@VCOPOSTotals@@@ATL@@UEAAPEAXI@Z 0000000180004c7c f i Totals.obj
 0001:00003c7c       ??_E?$CComContainedObject@VCOPOSTotals@@@ATL@@UEAAPEAXI@Z 0000000180004c7c f i Totals.obj
 0001:00003cb0       ??_E?$CComObject@VCOPOSTotals@@@ATL@@UEAAPEAXI@Z 0000000180004cb0 f i Totals.obj
 0001:00003cb0       ??_G?$CComObject@VCOPOSTotals@@@ATL@@UEAAPEAXI@Z 0000000180004cb0 f i Totals.obj
 0001:00003ce4       ?Add@?$CSimpleArray@GV?$CSimpleArrayEqualHelper@G@ATL@@@ATL@@QEAAHAEBG@Z 0000000180004ce4 f i Totals.obj
 0001:00003d98       ?Add@?$CSimpleMap@PEA_WPEA_WVCExpansionVectorEqualHelper@ATL@@@ATL@@QEAAHAEBQEA_W0@Z 0000000180004d98 f i Totals.obj
 0001:00003e38       ?Add@CComDynamicUnkArray@ATL@@QEAAKPEAUIUnknown@@@Z 0000000180004e38 f i Totals.obj
 0001:00003f20       ?Add@CExpansionVector@ATL@@QEAAHPEB_W0@Z 0000000180004f20 f i Totals.obj
 0001:00004054       ?AddTermFunc@CAtlModule@ATL@@QEAAJP6AX_K@Z0@Z 0000000180005054 f i Totals.obj
 0001:000040f0       ?AddValue@CRegParser@ATL@@IEAAJAEAVCRegKey@2@PEB_WPEA_W@Z 00000001800050f0 f i Totals.obj
 0001:00004538       ?AllocateHeap@?$CTempBuffer@E$0BAA@VCCRTAllocator@ATL@@@ATL@@AEAAX_K@Z 0000000180005538 f i Totals.obj
 0001:00004538       ?AllocateHeap@?$CTempBuffer@_W$0EAA@VCCRTAllocator@ATL@@@ATL@@AEAAX_K@Z 0000000180005538 f i Totals.obj
 0001:00004538       ?AllocateHeap@?$CTempBuffer@_W$0BAA@VCCRTAllocator@ATL@@@ATL@@AEAAX_K@Z 0000000180005538 f i Totals.obj
 0001:00004564       ?Append@CParseBuffer@CRegParser@ATL@@QEAAHPEB_WH@Z 0000000180005564 f i Totals.obj
 0001:000046ac       ?AtlComModuleGetClassObject@ATL@@YAJPEAU_ATL_COM_MODULE70@1@AEBU_GUID@@1PEAPEAX@Z 00000001800056ac f i Totals.obj
 0001:000047ec       ?AtlComModuleRegisterServer@ATL@@YAJPEAU_ATL_COM_MODULE70@1@HPEBU_GUID@@@Z 00000001800057ec f i Totals.obj
 0001:000048ac       ?AtlComModuleUnregisterServer@ATL@@YAJPEAU_ATL_COM_MODULE70@1@HPEBU_GUID@@@Z 00000001800058ac f i Totals.obj
 0001:00004968       ?AtlHiMetricToPixel@ATL@@YAXPEBUtagSIZE@@PEAU2@@Z 0000000180005968 f i Totals.obj
 0001:00004a18       ?AtlHresultFromLastError@ATL@@YAJXZ 0000000180005a18 f i Totals.obj
 0001:00004a38       ?AtlHresultFromWin32@ATL@@YAJK@Z 0000000180005a38 f i Totals.obj
 0001:00004a48       ?AtlInternalOleLoadFromStream@ATL@@YAJPEAUIStream@@AEBU_GUID@@PEAPEAXTClassesAllowedInStream@1@K@Z 0000000180005a48 f i Totals.obj
 0001:00004b8c       ?AtlInternalQueryInterface@ATL@@YAJPEAXPEBU_ATL_INTMAP_ENTRY@1@AEBU_GUID@@PEAPEAX@Z 0000000180005b8c f i Totals.obj
 0001:00004c94       ?AtlLoadTypeLib@ATL@@YAJPEAUHINSTANCE__@@PEB_WPEAPEA_WPEAPEAUITypeLib@@@Z 0000000180005c94 f i Totals.obj
 0001:00004ef0       ?AtlRegisterClassCategoriesHelper@ATL@@YAJAEBU_GUID@@PEBU_ATL_CATMAP_ENTRY@1@H@Z 0000000180005ef0 f i Totals.obj
 0001:00005374       ?AtlRegisterTypeLib@ATL@@YAJPEAUHINSTANCE__@@PEB_W@Z 0000000180006374 f i Totals.obj
 0001:00005570       ?AtlThrowImpl@ATL@@YAXJ@Z  0000000180006570 f i Totals.obj
 0001:00005594       ?AtlUnRegisterTypeLib@ATL@@YAJPEAUHINSTANCE__@@PEB_W@Z 0000000180006594 f i Totals.obj
 0001:0000565c       ?AtlWinModuleExtractCreateWndData@ATL@@YAPEAXPEAU_ATL_WIN_MODULE70@1@@Z 000000018000665c f i Totals.obj
 0001:000056e8       ?Cleanup@CComTypeInfoHolder@ATL@@SAX_K@Z 00000001800066e8 f i Totals.obj
 0001:00005728       ?ClearReplacements@CExpansionVector@ATL@@QEAAJXZ 0000000180006728 f i Totals.obj
 0001:000057c4       ?CreateInstance@?$CComCreator@V?$CComAggObject@VCOPOSTotals@@@ATL@@@ATL@@SAJPEAXAEBU_GUID@@PEAPEAX@Z 00000001800067c4 f i Totals.obj
 0001:000058b4       ?CreateInstance@?$CComCreator@V?$CComObject@VCOPOSTotals@@@ATL@@@ATL@@SAJPEAXAEBU_GUID@@PEAPEAX@Z 00000001800068b4 f i Totals.obj
 0001:0000596c       ?CreateInstance@?$CComObject@V?$CComEnum@UIEnumConnectionPoints@@$1?_GUID_b196b285_bab4_101a_b69c_00aa00341d07@@3U__s_GUID@@BPEAUIConnectionPoint@@V?$_CopyInterface@UIConnectionPoint@@@ATL@@VCComSingleThreadModel@6@@ATL@@@ATL@@SAJPEAPEAV12@@Z 000000018000696c f i Totals.obj
 0001:000059f8       ?CreateInstance@?$CComObject@V?$CComEnum@UIEnumConnections@@$1?_GUID_b196b287_bab4_101a_b69c_00aa00341d07@@3U__s_GUID@@BUtagCONNECTDATA@@V?$_Copy@UtagCONNECTDATA@@@ATL@@VCComSingleThreadModel@6@@ATL@@@ATL@@SAJPEAPEAV12@@Z 00000001800069f8 f i Totals.obj
 0001:00005a84       ?DefaultReflectionHandler@?$CWindowImplRoot@VCWindow@ATL@@@ATL@@SAHPEAUHWND__@@I_K_JAEA_J@Z 0000000180006a84 f i Totals.obj
 0001:00005ae8       ?DeleteSubKey@CRegKey@ATL@@QEAAJPEB_W@Z 0000000180006ae8 f i Totals.obj
 0001:00005b80       ?DoEvent@COPOSTotals@@IEAAXI_K_J@Z 0000000180006b80 f i Totals.obj
 0001:00005c34       ?DoVerbPrimary@?$IOleObjectImpl@VCOPOSTotals@@@ATL@@QEAAJPEBUtagRECT@@PEAUHWND__@@@Z 0000000180006c34 f i Totals.obj
 0001:00005d60       ?DoVerbProperties@CComControlBase@ATL@@QEAAJPEBUtagRECT@@PEAUHWND__@@@Z 0000000180006d60 f i Totals.obj
 0001:00005f88       ?FireTheEvent@?$CProxy_IOPOSEvents@VCOPOSTotals@@@@IEAAXPEAVOposVariant@@IAEAJPEB_WJ@Z 0000000180006f88 f i Totals.obj
 0001:00006074       ?FireViewChange@CComControlBase@ATL@@QEAAJXZ 0000000180007074 f i Totals.obj
 0001:000060d8       ?Fire_DirectIOEvent@?$CProxy_IOPOSEvents@VCOPOSTotals@@@@QEAAXJPEAJPEAPEA_W@Z 00000001800070d8 f i Totals.obj
 0001:00006230       ?Fire_StatusUpdateEvent@?$CProxy_IOPOSEvents@VCOPOSTotals@@@@QEAAXJ@Z 0000000180007230 f i Totals.obj
 0001:0000631c       ?FreeHeap@?$CTempBuffer@_W$0BAA@VCCRTAllocator@ATL@@@ATL@@AEAAXXZ 000000018000731c f i Totals.obj
 0001:0000631c       ?FreeHeap@?$CTempBuffer@E$0BAA@VCCRTAllocator@ATL@@@ATL@@AEAAXXZ 000000018000731c f i Totals.obj
 0001:0000631c       ?FreeHeap@?$CTempBuffer@_W$0EAA@VCCRTAllocator@ATL@@@ATL@@AEAAXXZ 000000018000731c f i Totals.obj
 0001:00006324       ?GetAmbientLocaleID@CComControlBase@ATL@@QEAAJAEAK@Z 0000000180007324 f i Totals.obj
 0001:000063e4       ?GetAmbientUserMode@CComControlBase@ATL@@QEAAJAEAH@Z 00000001800073e4 f i Totals.obj
 0001:000064b4       ?GetClassObject@CComModule@ATL@@QEAAJAEBU_GUID@@0PEAPEAX@Z 00000001800074b4 f i Totals.obj
 0001:000065a8       ?GetConnMap@COPOSTotals@@SAPEBU_ATL_CONNMAP_ENTRY@ATL@@PEAH@Z 00000001800075a8 f i Totals.obj
 0001:00006630       ?GetIDsOfNames@CComTypeInfoHolder@ATL@@QEAAJAEBU_GUID@@PEAPEA_WIKPEAJ@Z 0000000180007630 f i Totals.obj
 0001:000067a8       ?GetPagesHelper@?$ISpecifyPropertyPagesImpl@VCOPOSTotals@@@ATL@@IEAAJPEAUtagCAUUID@@PEBUATL_PROPMAP_ENTRY@2@@Z 00000001800077a8 f i Totals.obj
 0001:00006948       ?GetSizeMax@CComVariant@ATL@@QEBAJPEAT_ULARGE_INTEGER@@@Z 0000000180007948 f i Totals.obj
 0001:00006b7c       ?GetTI@CComTypeInfoHolder@ATL@@QEAAJK@Z 0000000180007b7c f i Totals.obj
 0001:00006e74       ?GetZoomInfo@CComControlBase@ATL@@QEAAXAEAUATL_DRAWINFO@@@Z 0000000180007e74 f i Totals.obj
 0001:00006f18       ?HKeyFromString@CRegParser@ATL@@KAPEAUHKEY__@@PEA_W@Z 0000000180007f18 f i Totals.obj
 0001:00006f7c       ?IDataObject_GetData@CComControlBase@ATL@@QEAAJPEAUtagFORMATETC@@PEAUtagSTGMEDIUM@@@Z 0000000180007f7c f i Totals.obj
 0001:00007170       ?IOleInPlaceObject_InPlaceDeactivate@CComControlBase@ATL@@QEAAJXZ 0000000180008170 f i Totals.obj
 0001:00007210       ?IOleInPlaceObject_SetObjectRects@CComControlBase@ATL@@QEAAJPEBUtagRECT@@0@Z 0000000180008210 f i Totals.obj
 0001:00007300       ?IOleInPlaceObject_UIDeactivate@CComControlBase@ATL@@QEAAJXZ 0000000180008300 f i Totals.obj
 0001:0000740c       ?IOleObject_Close@CComControlBase@ATL@@QEAAJK@Z 000000018000840c f i Totals.obj
 0001:00007524       ?IOleObject_SetClientSite@CComControlBase@ATL@@QEAAJPEAUIOleClientSite@@@Z 0000000180008524 f i Totals.obj
 0001:0000759c       ?IOleObject_SetExtent@CComControlBase@ATL@@QEAAJKPEAUtagSIZE@@@Z 000000018000859c f i Totals.obj
 0001:00007634       ?IPSI_GetIPersistStreamInit@?$IPersistStorageImpl@VCOPOSTotals@@@ATL@@AEAAPEAUIPersistStreamInit@@XZ 0000000180008634 f i Totals.obj
 0001:0000771c       ?IPersistStreamInit_Load@?$IPersistStreamInitImpl@VCOPOSTotals@@@ATL@@QEAAJPEAUIStream@@PEBUATL_PROPMAP_ENTRY@2@@Z 000000018000871c f i Totals.obj
 0001:00007a50       ?IPersistStreamInit_Save@?$IPersistStreamInitImpl@VCOPOSTotals@@@ATL@@QEAAJPEAUIStream@@HPEBUATL_PROPMAP_ENTRY@2@@Z 0000000180008a50 f i Totals.obj
 0001:00007cf4       ?IQuickActivate_QuickActivate@CComControlBase@ATL@@QEAAJPEAUtagQACONTAINER@@PEAUtagQACONTROL@@@Z 0000000180008cf4 f i Totals.obj
 0001:00007fb8       ?IViewObject_Draw@CComControlBase@ATL@@QEAAJKJPEAXPEAUtagDVTARGETDEVICE@@PEAUHDC__@@2PEBU_RECTL@@3@Z 0000000180008fb8 f i Totals.obj
 0001:000080cc       ?InPlaceActivate@CComControlBase@ATL@@QEAAJJPEBUtagRECT@@@Z 00000001800090cc f i Totals.obj
 0001:00008404       ?Init@?$CComEnumImpl@UIEnumConnectionPoints@@$1?_GUID_b196b285_bab4_101a_b69c_00aa00341d07@@3U__s_GUID@@BPEAUIConnectionPoint@@V?$_CopyInterface@UIConnectionPoint@@@ATL@@@ATL@@QEAAJPEAPEAUIConnectionPoint@@0PEAUIUnknown@@W4CComEnumFlags@2@@Z 0000000180009404 f i Totals.obj
 0001:00008524       ?Init@?$CComEnumImpl@UIEnumConnections@@$1?_GUID_b196b287_bab4_101a_b69c_00aa00341d07@@3U__s_GUID@@BUtagCONNECTDATA@@V?$_Copy@UtagCONNECTDATA@@@ATL@@@ATL@@QEAAJPEAUtagCONNECTDATA@@0PEAUIUnknown@@W4CComEnumFlags@2@@Z 0000000180009524 f i Totals.obj
 0001:00008648       ?IsEqualObject@?$CComPtrBase@UIOleClientSite@@@ATL@@QEAA_NPEAUIUnknown@@@Z 0000000180009648 f i Totals.obj
 0001:000086d4       ?LoadNameCache@CComTypeInfoHolder@ATL@@QEAAJPEAUITypeInfo@@@Z 00000001800096d4 f i Totals.obj
 0001:00008854       ?Lookup@?$CSimpleMap@PEA_WPEA_WVCExpansionVectorEqualHelper@ATL@@@ATL@@QEBAPEA_WAEBQEA_W@Z 0000000180009854 f i Totals.obj
 0001:000088e0       ?NextToken@CRegParser@ATL@@IEAAJPEA_W@Z 00000001800098e0 f i Totals.obj
 0001:00008a98       ?OnKillFocus@CComControlBase@ATL@@QEAA_JI_K_JAEAH@Z 0000000180009a98 f i Totals.obj
 0001:00008b34       ?OnMouseActivate@CComControlBase@ATL@@QEAA_JI_K_JAEAH@Z 0000000180009b34 f i Totals.obj
 0001:00008bd4       ?OnPaint@CComControlBase@ATL@@QEAA_JI_K_JAEAH@Z 0000000180009bd4 f i Totals.obj
 0001:00008cc0       ?OnSetFocus@CComControlBase@ATL@@QEAA_JI_K_JAEAH@Z 0000000180009cc0 f i Totals.obj
 0001:00008dbc       ?PreProcessBuffer@CRegParser@ATL@@QEAAJPEA_WPEAPEA_W@Z 0000000180009dbc f i Totals.obj
 0001:00009140       ?ProcessWindowMessage@?$CComControl@VCOPOSTotals@@V?$CWindowImpl@VCOPOSTotals@@VCWindow@ATL@@V?$CWinTraits@$0FGAAAAAA@$0A@@3@@ATL@@@ATL@@UEAAHPEAUHWND__@@I_K_JAEA_JK@Z 000000018000a140 f i Totals.obj
 0001:00009224       ?ReadFromStream@CComBSTR@ATL@@QEAAJPEAUIStream@@@Z 000000018000a224 f i Totals.obj
 0001:00009380       ?ReadFromStream@CComVariant@ATL@@QEAAJPEAUIStream@@GTClassesAllowedInStream@2@K@Z 000000018000a380 f i Totals.obj
 0001:00009590       ?RecurseDeleteKey@CRegKey@ATL@@QEAAJPEB_W@Z 000000018000a590 f i Totals.obj
 0001:000096e8       ?RegCreateKeyExW@CAtlTransactionManager@ATL@@QEAAJPEAUHKEY__@@PEB_WKPEA_WKKQEAU_SECURITY_ATTRIBUTES@@PEAPEAU3@PEAK@Z 000000018000a6e8 f i Totals.obj
 0001:0000981c       ?RegDeleteKeyW@CAtlTransactionManager@ATL@@QEAAJPEAUHKEY__@@PEB_W@Z 000000018000a81c f i Totals.obj
 0001:000098a8       ?RegOpenKeyExW@CAtlTransactionManager@ATL@@QEAAJPEAUHKEY__@@PEB_WKKPEAPEAU3@@Z 000000018000a8a8 f i Totals.obj
 0001:00009960       ?RegisterBuffer@CRegParser@ATL@@QEAAJPEA_WH@Z 000000018000a960 f i Totals.obj
 0001:00009ac8       ?RegisterFromResource@CRegObject@ATL@@IEAAJPEB_W00H@Z 000000018000aac8 f i Totals.obj
 0001:00009c84       ?RegisterServer@CComModule@ATL@@QEAAJHPEBU_GUID@@@Z 000000018000ac84 f i Totals.obj
 0001:00009d44       ?RegisterSubkeys@CRegParser@ATL@@IEAAJPEA_WPEAUHKEY__@@HH@Z 000000018000ad44 f i Totals.obj
 0001:0000a5b0       ?SendOnDataChange@CComControlBase@ATL@@QEAAJK@Z 000000018000b5b0 f i Totals.obj
 0001:0000a620       ?SetControlFocus@CComControlBase@ATL@@QEAAHH@Z 000000018000b620 f i Totals.obj
 0001:0000a6fc       ?SkipAssignment@CRegParser@ATL@@IEAAJPEA_W@Z 000000018000b6fc f i Totals.obj
 0001:0000a7a0       ?Term@CAtlModule@ATL@@QEAAXXZ 000000018000b7a0 f i Totals.obj
 0001:0000a820       ?Term@CComModule@ATL@@QEAAXXZ 000000018000b820 f i Totals.obj
 0001:0000a89c       ?UnregisterServer@CComModule@ATL@@QEAAJHPEBU_GUID@@@Z 000000018000b89c f i Totals.obj
 0001:0000a94c       ?UpdateRegistryFromResource@CAtlModule@ATL@@QEAAJIHPEAU_ATL_REGMAP_ENTRY@2@@Z 000000018000b94c f i Totals.obj
 0001:0000ac58       ?UpdateRegistryFromResource@CAtlModule@ATL@@QEAAJPEB_WHPEAU_ATL_REGMAP_ENTRY@2@@Z 000000018000bc58 f i Totals.obj
 0001:0000af7c       ?VTFromRegType@CRegParser@ATL@@KAHPEB_WAEAG@Z 000000018000bf7c f i Totals.obj
 0001:0000b018       ?WindowProc@?$CWindowImplBaseT@VCWindow@ATL@@V?$CWinTraits@$0FGAAAAAA@$0A@@2@@ATL@@SA_JPEAUHWND__@@I_K_J@Z 000000018000c018 f i Totals.obj
 0001:0000b184       ?WriteToStream@CComVariant@ATL@@QEAAJPEAUIStream@@@Z 000000018000c184 f i Totals.obj
 0001:0000b3d8       ?WriteToStream@CComVariant@ATL@@QEAAJPEAUIStream@@G@Z 000000018000c3d8 f i Totals.obj
 0001:0000b470       ?_AtlVerifyStackAvailable@_ATL_SAFE_ALLOCA_IMPL@ATL@@YA_N_K@Z 000000018000c470 f i Totals.obj
 0001:0000b4f4       ?atlCreate@?$CWindowImpl@VCOPOSTotals@@VCWindow@ATL@@V?$CWinTraits@$0FGAAAAAA@$0A@@3@@ATL@@QEAAPEAUHWND__@@PEAU3@V_U_RECT@2@PEB_WKKV_U_MENUorID@2@PEAX@Z 000000018000c4f4 f i Totals.obj
 0001:0000b5a4       ?atlCreate@?$CWindowImplBaseT@VCWindow@ATL@@V?$CWinTraits@$0FGAAAAAA@$0A@@2@@ATL@@QEAAPEAUHWND__@@PEAU3@V_U_RECT@2@PEB_WKKV_U_MENUorID@2@GPEAX@Z 000000018000c5a4 f i Totals.obj
 0001:0000b714       ?ocscpy_s@@YA_NPEA_W_KPEB_W@Z 000000018000c714 f i Totals.obj
 0001:0000b7c4       DllCanUnloadNow            000000018000c7c4 f   Totals.obj
 0001:0000b7d0       DllGetClassObject          000000018000c7d0 f   Totals.obj
 0001:0000b7e8       DllMain                    000000018000c7e8 f   Totals.obj
 0001:0000b890       DllRegisterServer          000000018000c890 f   Totals.obj
 0001:0000b8a4       DllUnregisterServer        000000018000c8a4 f   Totals.obj
 0001:0000b8b8       __local_stdio_printf_options 000000018000c8b8 f i Totals.obj
 0001:0000b8c0       swprintf_s                 000000018000c8c0 f i Totals.obj
 0001:0000b914       ??0COPOSTotals@@QEAA@XZ    000000018000c914 f   TotalsImpl.obj
 0001:0000b9d0       ??1?$IConnectionPointImpl@VCOPOSTotals@@$1?IID_IPropertyNotifySink@@3U_GUID@@BVCComDynamicUnkArray@ATL@@@ATL@@QEAA@XZ 000000018000c9d0 f i TotalsImpl.obj
 0001:0000b9d0       ??1?$IConnectionPointImpl@VCOPOSTotals@@$1?DIID__IOPOSTotalsEvents@@3U_GUID@@BVCComDynamicUnkArray@ATL@@@ATL@@QEAA@XZ 000000018000c9d0 f i TotalsImpl.obj
 0001:0000ba2c       ??1CComControlBase@ATL@@UEAA@XZ 000000018000ca2c f i TotalsImpl.obj
 0001:0000baa8       ??1COPOSTotals@@UEAA@XZ    000000018000caa8 f   TotalsImpl.obj
 0001:0000bb0c       ?BeginTrans@COPOSTotals@@UEAAJPEAJ@Z 000000018000cb0c f   TotalsImpl.obj
 0001:0000bb34       ?CheckHealth@COPOSTotals@@UEAAJJPEAJ@Z 000000018000cb34 f   TotalsImpl.obj
 0001:0000bbb0       ?ClaimDevice@COPOSTotals@@UEAAJJPEAJ@Z 000000018000cbb0 f   TotalsImpl.obj
 0001:0000bc48       ?ClaimFile@COPOSTotals@@UEAAJJJPEAJ@Z 000000018000cc48 f   TotalsImpl.obj
 0001:0000bd14       ?Close@COPOSTotals@@UEAAJPEAJ@Z 000000018000cd14 f   TotalsImpl.obj
 0001:0000bdcc       ?CommitTrans@COPOSTotals@@UEAAJPEAJ@Z 000000018000cdcc f   TotalsImpl.obj
 0001:0000bdf4       ?CompareFirmwareVersion@COPOSTotals@@UEAAJPEA_WPEAJ1@Z 000000018000cdf4 f   TotalsImpl.obj
 0001:0000bed0       ?Create@COPOSTotals@@UEAAJPEA_WPEAJJF1@Z 000000018000ced0 f   TotalsImpl.obj
 0001:0000bfcc       ?Delete@COPOSTotals@@UEAAJPEA_WPEAJ@Z 000000018000cfcc f   TotalsImpl.obj
 0001:0000c054       ?DirectIO@COPOSTotals@@UEAAJJPEAJPEAPEA_W0@Z 000000018000d054 f   TotalsImpl.obj
 0001:0000c150       ?DoInvoke@COPOSTotals@@IEAAJJPEAVOposVariant@@IHPEAJ_N@Z 000000018000d150 f   TotalsImpl.obj
 0001:0000c284       ?EventInit@COPOSTotals@@IEAAJXZ 000000018000d284 f i TotalsImpl.obj
 0001:0000c3cc       ?EventUninit@COPOSTotals@@IEAAXXZ 000000018000d3cc f i TotalsImpl.obj
 0001:0000c430       ?EventWindowProc@COPOSTotals@@IEAA_JI_K_J@Z 000000018000d430 f i TotalsImpl.obj
 0001:0000c528       ?FinalConstruct@COPOSTotals@@QEAAJXZ 000000018000d528 f   TotalsImpl.obj
 0001:0000c564       ?Find@COPOSTotals@@UEAAJPEA_WPEAJ11@Z 000000018000d564 f   TotalsImpl.obj
 0001:0000c650       ?FindByIndex@COPOSTotals@@UEAAJJPEAPEA_WPEAJ@Z 000000018000d650 f   TotalsImpl.obj
 0001:0000c728       ?FreezeEvents@COPOSTotals@@MEAAJH@Z 000000018000d728 f   TotalsImpl.obj
 0001:0000c79c       ?GetOposProp@COPOSTotals@@IEAAJJPEAJJ@Z 000000018000d79c f   TotalsImpl.obj
 0001:0000c8b8       ?GetOposProp@COPOSTotals@@IEAAJJPEAPEA_WJ@Z 000000018000d8b8 f   TotalsImpl.obj
 0001:0000c9e4       ?OnDraw@COPOSTotals@@MEAAJAEAUATL_DRAWINFO@@@Z 000000018000d9e4 f   TotalsImpl.obj
 0001:0000cad0       ?Open@COPOSTotals@@UEAAJPEA_WPEAJ@Z 000000018000dad0 f   TotalsImpl.obj
 0001:0000d358       ?Read@COPOSTotals@@UEAAJJPEAPEA_WJJPEAJ@Z 000000018000e358 f   TotalsImpl.obj
 0001:0000d464       ?RecalculateValidationData@COPOSTotals@@UEAAJJPEAJ@Z 000000018000e464 f   TotalsImpl.obj
 0001:0000d4e0       ?ReleaseDevice@COPOSTotals@@UEAAJPEAJ@Z 000000018000e4e0 f   TotalsImpl.obj
 0001:0000d524       ?ReleaseFile@COPOSTotals@@UEAAJJPEAJ@Z 000000018000e524 f   TotalsImpl.obj
 0001:0000d5a0       ?Rename@COPOSTotals@@UEAAJJPEA_WPEAJ@Z 000000018000e5a0 f   TotalsImpl.obj
 0001:0000d678       ?ResetStatistics@COPOSTotals@@UEAAJPEA_WPEAJ@Z 000000018000e678 f   TotalsImpl.obj
 0001:0000d700       ?RetrieveStatistics@COPOSTotals@@UEAAJPEAPEA_WPEAJ@Z 000000018000e700 f   TotalsImpl.obj
 0001:0000d788       ?Rollback@COPOSTotals@@UEAAJPEAJ@Z 000000018000e788 f   TotalsImpl.obj
 0001:0000d7b0       ?SOProcessID@COPOSTotals@@UEAAJPEAJ@Z 000000018000e7b0 f   TotalsImpl.obj
 0001:0000d7cc       ?SetAll@COPOSTotals@@UEAAJJJPEAJ@Z 000000018000e7cc f   TotalsImpl.obj
 0001:0000d898       ?SetCOFreezeEvents@COPOSTotals@@IEAAXF@Z 000000018000e898 f   TotalsImpl.obj
 0001:0000d97c       ?SetOposProp@COPOSTotals@@IEAAJJJJ@Z 000000018000e97c f   TotalsImpl.obj
 0001:0000dadc       ?UpdateFirmware@COPOSTotals@@UEAAJPEA_WPEAJ@Z 000000018000eadc f   TotalsImpl.obj
 0001:0000db64       ?UpdateStatistics@COPOSTotals@@UEAAJPEA_WPEAJ@Z 000000018000eb64 f   TotalsImpl.obj
 0001:0000dbec       ?ValidateData@COPOSTotals@@UEAAJJPEAJ@Z 000000018000ebec f   TotalsImpl.obj
 0001:0000dc68       ?Write@COPOSTotals@@UEAAJJPEA_WJJPEAJ@Z 000000018000ec68 f   TotalsImpl.obj
 0001:0000dd74       ?get_BinaryConversion@COPOSTotals@@UEAAJPEAJ@Z 000000018000ed74 f   TotalsImpl.obj
 0001:0000dd88       ?get_CapCompareFirmwareVersion@COPOSTotals@@UEAAJPEAF@Z 000000018000ed88 f   TotalsImpl.obj
 0001:0000ddbc       ?get_CapErrorDetection@COPOSTotals@@UEAAJPEAF@Z 000000018000edbc f   TotalsImpl.obj
 0001:0000ddec       ?get_CapPowerReporting@COPOSTotals@@UEAAJPEAJ@Z 000000018000edec f   TotalsImpl.obj
 0001:0000de00       ?get_CapSingleFile@COPOSTotals@@UEAAJPEAF@Z 000000018000ee00 f   TotalsImpl.obj
 0001:0000de30       ?get_CapStatisticsReporting@COPOSTotals@@UEAAJPEAF@Z 000000018000ee30 f   TotalsImpl.obj
 0001:0000de64       ?get_CapTransactions@COPOSTotals@@UEAAJPEAF@Z 000000018000ee64 f   TotalsImpl.obj
 0001:0000de94       ?get_CapUpdateFirmware@COPOSTotals@@UEAAJPEAF@Z 000000018000ee94 f   TotalsImpl.obj
 0001:0000dec8       ?get_CapUpdateStatistics@COPOSTotals@@UEAAJPEAF@Z 000000018000eec8 f   TotalsImpl.obj
 0001:0000defc       ?get_CheckHealthText@COPOSTotals@@UEAAJPEAPEA_W@Z 000000018000eefc f   TotalsImpl.obj
 0001:0000df0c       ?get_Claimed@COPOSTotals@@UEAAJPEAF@Z 000000018000ef0c f   TotalsImpl.obj
 0001:0000df3c       ?get_ControlObjectDescription@COPOSTotals@@UEAAJPEAPEA_W@Z 000000018000ef3c f   TotalsImpl.obj
 0001:0000dfa0       ?get_ControlObjectVersion@COPOSTotals@@UEAAJPEAJ@Z 000000018000efa0 f   TotalsImpl.obj
 0001:0000dfac       ?get_DeviceDescription@COPOSTotals@@UEAAJPEAPEA_W@Z 000000018000efac f   TotalsImpl.obj
 0001:0000dfbc       ?get_DeviceEnabled@COPOSTotals@@UEAAJPEAF@Z 000000018000efbc f   TotalsImpl.obj
 0001:0000dfec       ?get_DeviceName@COPOSTotals@@UEAAJPEAPEA_W@Z 000000018000efec f   TotalsImpl.obj
 0001:0000dffc       ?get_FreeData@COPOSTotals@@UEAAJPEAJ@Z 000000018000effc f   TotalsImpl.obj
 0001:0000e00c       ?get_FreezeEvents@COPOSTotals@@UEAAJPEAF@Z 000000018000f00c f   TotalsImpl.obj
 0001:0000e03c       ?get_NumberOfFiles@COPOSTotals@@UEAAJPEAJ@Z 000000018000f03c f   TotalsImpl.obj
 0001:0000e04c       ?get_OpenResult@COPOSTotals@@UEAAJPEAJ@Z 000000018000f04c f   TotalsImpl.obj
 0001:0000e058       ?get_PowerNotify@COPOSTotals@@UEAAJPEAJ@Z 000000018000f058 f   TotalsImpl.obj
 0001:0000e06c       ?get_PowerState@COPOSTotals@@UEAAJPEAJ@Z 000000018000f06c f   TotalsImpl.obj
 0001:0000e080       ?get_ResultCode@COPOSTotals@@UEAAJPEAJ@Z 000000018000f080 f   TotalsImpl.obj
 0001:0000e0bc       ?get_ResultCodeExtended@COPOSTotals@@UEAAJPEAJ@Z 000000018000f0bc f   TotalsImpl.obj
 0001:0000e0cc       ?get_ServiceObjectDescription@COPOSTotals@@UEAAJPEAPEA_W@Z 000000018000f0cc f   TotalsImpl.obj
 0001:0000e0dc       ?get_ServiceObjectVersion@COPOSTotals@@UEAAJPEAJ@Z 000000018000f0dc f   TotalsImpl.obj
 0001:0000e0ec       ?get_State@COPOSTotals@@UEAAJPEAJ@Z 000000018000f0ec f   TotalsImpl.obj
 0001:0000e118       ?get_TotalsSize@COPOSTotals@@UEAAJPEAJ@Z 000000018000f118 f   TotalsImpl.obj
 0001:0000e128       ?get_TransactionInProgress@COPOSTotals@@UEAAJPEAF@Z 000000018000f128 f   TotalsImpl.obj
 0001:0000e158       ?put_BinaryConversion@COPOSTotals@@UEAAJJ@Z 000000018000f158 f   TotalsImpl.obj
 0001:0000e16c       ?put_DeviceEnabled@COPOSTotals@@UEAAJF@Z 000000018000f16c f   TotalsImpl.obj
 0001:0000e184       ?put_FreezeEvents@COPOSTotals@@UEAAJF@Z 000000018000f184 f   TotalsImpl.obj
 0001:0000e1d4       ?put_PowerNotify@COPOSTotals@@UEAAJJ@Z 000000018000f1d4 f   TotalsImpl.obj
 0001:0000e1e8       ?s_EventWindowProc@COPOSTotals@@KA_JPEAUHWND__@@I_K_J@Z 000000018000f1e8 f i TotalsImpl.obj
 0001:0000e264       ??_U@YAPEAX_K@Z            000000018000f264 f   LIBCMT:new_array.obj
 0001:0000e26c       ??3@YAXPEAX_K@Z            000000018000f26c f   LIBCMT:delete_scalar_size.obj
 0001:0000e26c       ??_V@YAXPEAX@Z             000000018000f26c f   LIBCMT:delete_array.obj
 0001:0000e274       ??_V@YAXPEAX_K@Z           000000018000f274 f   LIBCMT:delete_array_size.obj
 0001:0000e27c       __scrt_acquire_startup_lock 000000018000f27c f   LIBCMT:utility.obj
 0001:0000e2b8       __scrt_dllmain_after_initialize_c 000000018000f2b8 f   LIBCMT:utility.obj
 0001:0000e2ec       __scrt_dllmain_before_initialize_c 000000018000f2ec f   LIBCMT:utility.obj
 0001:0000e304       __scrt_dllmain_crt_thread_attach 000000018000f304 f   LIBCMT:utility.obj
 0001:0000e32c       __scrt_dllmain_crt_thread_detach 000000018000f32c f   LIBCMT:utility.obj
 0001:0000e344       __scrt_dllmain_exception_filter 000000018000f344 f   LIBCMT:utility.obj
 0001:0000e3a4       __scrt_dllmain_uninitialize_c 000000018000f3a4 f   LIBCMT:utility.obj
 0001:0000e3d4       __scrt_dllmain_uninitialize_critical 000000018000f3d4 f   LIBCMT:utility.obj
 0001:0000e3e8       __scrt_initialize_crt      000000018000f3e8 f   LIBCMT:utility.obj
 0001:0000e434       __scrt_initialize_onexit_tables 000000018000f434 f   LIBCMT:utility.obj
 0001:0000e4c0       __scrt_is_nonwritable_in_current_image 000000018000f4c0 f   LIBCMT:utility.obj
 0001:0000e558       __scrt_release_startup_lock 000000018000f558 f   LIBCMT:utility.obj
 0001:0000e57c       __scrt_uninitialize_crt    000000018000f57c f   LIBCMT:utility.obj
 0001:0000e5a8       _onexit                    000000018000f5a8 f   LIBCMT:utility.obj
 0001:0000e5e4       atexit                     000000018000f5e4 f   LIBCMT:utility.obj
 0001:0000e5fc       ??3@YAXPEAX@Z              000000018000f5fc f   LIBCMT:delete_scalar.obj
 0001:0000e6fc       _Init_thread_footer        000000018000f6fc f   LIBCMT:thread_safe_statics.obj
 0001:0000e75c       _Init_thread_header        000000018000f75c f   LIBCMT:thread_safe_statics.obj
 0001:0000e7c4       _Init_thread_notify        000000018000f7c4 f   LIBCMT:thread_safe_statics.obj
 0001:0000e808       _Init_thread_wait          000000018000f808 f   LIBCMT:thread_safe_statics.obj
 0001:0000e86c       __raise_securityfailure    000000018000f86c f   LIBCMT:gs_report.obj
 0001:0000e8a0       __report_gsfailure         000000018000f8a0 f   LIBCMT:gs_report.obj
 0001:0000e974       __report_rangecheckfailure 000000018000f974 f   LIBCMT:gs_report.obj
 0001:0000e988       __report_securityfailure   000000018000f988 f   LIBCMT:gs_report.obj
 0001:0000eb08       ??2@YAPEAX_KAEBUnothrow_t@std@@@Z 000000018000fb08 f   LIBCMT:new_scalar_nothrow.obj
 0001:0000eb28       ??_U@YAPEAX_KAEBUnothrow_t@std@@@Z 000000018000fb28 f   LIBCMT:new_array_nothrow.obj
 0001:0000eb30       __GSHandlerCheck           000000018000fb30 f   LIBCMT:gshandler.obj
 0001:0000eb50       __GSHandlerCheckCommon     000000018000fb50 f   LIBCMT:gshandler.obj
 0001:0000ebac       __GSHandlerCheck_SEH       000000018000fbac f   LIBCMT:gshandlerseh.obj
 0001:0000ec50       __chkstk                   000000018000fc50 f   LIBCMT:chkstk.obj
 0001:0000ec50       _alloca_probe              000000018000fc50 f   LIBCMT:chkstk.obj
 0001:0000ecc0       __security_check_cookie    000000018000fcc0 f   LIBCMT:amdsecgs.obj
 0001:0000f004       _DllMainCRTStartup         0000000180010004 f   LIBCMT:dll_dllmain.obj
 0001:0000f044       ??2@YAPEAX_K@Z             0000000180010044 f   LIBCMT:new_scalar.obj
 0001:0000f080       __isa_available_init       0000000180010080 f   LIBCMT:cpu_disp.obj
 0001:0000f224       __scrt_is_ucrt_dll_in_use  0000000180010224 f   LIBCMT:ucrt_detection.obj
 0001:0000f230       __crt_debugger_hook        0000000180010230 f   LIBCMT:utility_desktop.obj
 0001:0000f238       __scrt_fastfail            0000000180010238 f   LIBCMT:utility_desktop.obj
 0001:0000f384       __security_init_cookie     0000000180010384 f   LIBCMT:gs_support.obj
 0001:0000f430       ?__scrt_initialize_type_info@@YAXXZ 0000000180010430 f   LIBCMT:tncleanup.obj
 0001:0000f440       ?__scrt_uninitialize_type_info@@YAXXZ 0000000180010440 f   LIBCMT:tncleanup.obj
 0001:0000f44c       __local_stdio_scanf_options 000000018001044c f i LIBCMT:default_local_stdio_options.obj
 0001:0000f454       __scrt_initialize_default_local_stdio_options 0000000180010454 f   LIBCMT:default_local_stdio_options.obj
 0001:0000f470       __scrt_get_dyn_tls_init_callback 0000000180010470 f   LIBCMT:dyn_tls_init.obj
 0001:0000f478       _RTC_Initialize            0000000180010478 f   LIBCMT:initsect.obj
 0001:0000f4b4       _RTC_Terminate             00000001800104b4 f   LIBCMT:initsect.obj
 0001:0000f4f0       ??0bad_alloc@std@@QEAA@AEBV01@@Z 00000001800104f0 f i LIBCMT:throw_bad_alloc.obj
 0001:0000f52c       ??0bad_alloc@std@@QEAA@XZ  000000018001052c f i LIBCMT:throw_bad_alloc.obj
 0001:0000f54c       ??0bad_array_new_length@std@@QEAA@AEBV01@@Z 000000018001054c f i LIBCMT:throw_bad_alloc.obj
 0001:0000f588       ??0bad_array_new_length@std@@QEAA@XZ 0000000180010588 f i LIBCMT:throw_bad_alloc.obj
 0001:0000f5a8       ??0exception@std@@QEAA@AEBV01@@Z 00000001800105a8 f i LIBCMT:throw_bad_alloc.obj
 0001:0000f5dc       ??1bad_alloc@std@@UEAA@XZ  00000001800105dc f i LIBCMT:throw_bad_alloc.obj
 0001:0000f5dc       ??1bad_array_new_length@std@@UEAA@XZ 00000001800105dc f i LIBCMT:throw_bad_alloc.obj
 0001:0000f5dc       ??1bad_exception@std@@UEAA@XZ 00000001800105dc f i libvcruntime:frame.obj
 0001:0000f5f0       ??_Gbad_exception@std@@UEAAPEAXI@Z 00000001800105f0 f i libvcruntime:frame.obj
 0001:0000f5f0       ??_Gexception@std@@UEAAPEAXI@Z 00000001800105f0 f i LIBCMT:throw_bad_alloc.obj
 0001:0000f5f0       ??_Gbad_array_new_length@std@@UEAAPEAXI@Z 00000001800105f0 f i LIBCMT:throw_bad_alloc.obj
 0001:0000f5f0       ??_Ebad_exception@std@@UEAAPEAXI@Z 00000001800105f0 f i libvcruntime:frame.obj
 0001:0000f5f0       ??_Gbad_alloc@std@@UEAAPEAXI@Z 00000001800105f0 f i LIBCMT:throw_bad_alloc.obj
 0001:0000f5f0       ??_Ebad_alloc@std@@UEAAPEAXI@Z 00000001800105f0 f i LIBCMT:throw_bad_alloc.obj
 0001:0000f5f0       ??_Eexception@std@@UEAAPEAXI@Z 00000001800105f0 f i LIBCMT:throw_bad_alloc.obj
 0001:0000f5f0       ??_Ebad_array_new_length@std@@UEAAPEAXI@Z 00000001800105f0 f i LIBCMT:throw_bad_alloc.obj
 0001:0000f634       ?__scrt_throw_std_bad_alloc@@YAXXZ 0000000180010634 f   LIBCMT:throw_bad_alloc.obj
 0001:0000f654       ?__scrt_throw_std_bad_array_new_length@@YAXXZ 0000000180010654 f   LIBCMT:throw_bad_alloc.obj
 0001:0000f674       ?what@exception@std@@UEBAPEBDXZ 0000000180010674 f i LIBCMT:throw_bad_alloc.obj
 0001:0000f690       ??_Gtype_info@@UEAAPEAXI@Z 0000000180010690 f i LIBCMT:std_type_info_static.obj
 0001:0000f690       ??_Etype_info@@UEAAPEAXI@Z 0000000180010690 f i LIBCMT:std_type_info_static.obj
 0001:0000f6bc       ??0CAtlBaseModule@ATL@@QEAA@XZ 00000001800106bc f   atls:atlbase.obj
 0001:0000f764       ??1CAtlBaseModule@ATL@@QEAA@XZ 0000000180010764 f   atls:atlbase.obj
 0001:0000f898       ?__AllocStdCallThunk_cmn@@YAPEAXXZ 0000000180010898 f   atls:atlthunk.obj
 0001:0000f9f0       AtlThunk_AllocateData      00000001800109f0 f   atls:atlthunk.obj
 0001:0000fa6c       AtlThunk_DataToCode        0000000180010a6c f   atls:atlthunk.obj
 0001:0000fac0       AtlThunk_FreeData          0000000180010ac0 f   atls:atlthunk.obj
 0001:0000fb20       AtlThunk_InitData          0000000180010b20 f   atls:atlthunk.obj
 0001:0000fbc8       _get_purecall_handler      0000000180010bc8 f   libvcruntime:purevirt.obj
 0001:0000fbd0       _purecall                  0000000180010bd0 f   libvcruntime:purevirt.obj
 0001:0000fbec       wcsstr                     0000000180010bec f   libvcruntime:wcsstr.obj
 0001:0000fe20       memcmp                     0000000180010e20 f   libvcruntime:memcmp.obj
 0001:0000ff00       memcpy_repmovs             0000000180010f00 f   libvcruntime:memcpy.obj
 0001:0000ff20       memcpy                     0000000180010f20 f   libvcruntime:memcpy.obj
 0001:0000ff20       memmove                    0000000180010f20 f   libvcruntime:memcpy.obj
 0001:00010310       memset_repmovs             0000000180011310 f   libvcruntime:memset.obj
 0001:00010330       memset                     0000000180011330 f   libvcruntime:memset.obj
 0001:000104c0       __vcrt_initialize          00000001800114c0 f   libvcruntime:initialization.obj
 0001:000104e8       __vcrt_thread_attach       00000001800114e8 f   libvcruntime:initialization.obj
 0001:000104fc       __vcrt_thread_detach       00000001800114fc f   libvcruntime:initialization.obj
 0001:00010510       __vcrt_uninitialize        0000000180011510 f   libvcruntime:initialization.obj
 0001:0001052c       __vcrt_uninitialize_critical 000000018001152c f   libvcruntime:initialization.obj
 0001:0001053c       __C_specific_handler       000000018001153c f   libvcruntime:riscchandler.obj
 0001:00010748       ??$_CallSETranslator@V__FrameHandler3@@@@YAHPEAUEHExceptionRecord@@PEA_KPEAU_CONTEXT@@PEAU_xDISPATCHER_CONTEXT@@PEBU_s_FuncInfo@@K1@Z 0000000180011748 f i libvcruntime:risctrnsctrl.obj
 0001:0001079c       ?CatchTryBlock@__FrameHandler3@@SAPEBU_s_TryBlockMapEntry@@PEBU_s_FuncInfo@@H@Z 000000018001179c f   libvcruntime:risctrnsctrl.obj
 0001:000107f0       ?ExecutionInCatch@__FrameHandler3@@SA_NPEAU_xDISPATCHER_CONTEXT@@PEBU_s_FuncInfo@@@Z 00000001800117f0 f   libvcruntime:risctrnsctrl.obj
 0001:0001081c       ?FrameUnwindToEmptyState@__FrameHandler3@@SAXPEA_KPEAU_xDISPATCHER_CONTEXT@@PEBU_s_FuncInfo@@@Z 000000018001181c f   libvcruntime:risctrnsctrl.obj
 0001:00010880       ?GetEstablisherFrame@__FrameHandler3@@SAPEA_KPEA_KPEAU_xDISPATCHER_CONTEXT@@PEBU_s_FuncInfo@@0@Z 0000000180011880 f   libvcruntime:risctrnsctrl.obj
 0001:0001094c       ?GetRangeOfTrysToCheck@__FrameHandler3@@SA?AU?$pair@Viterator@TryBlockMap@__FrameHandler3@@V123@@std@@AEAVTryBlockMap@1@HPEAU_xDISPATCHER_CONTEXT@@PEBU_s_FuncInfo@@H@Z 000000018001194c f   libvcruntime:risctrnsctrl.obj
 0001:00010a8c       ?UnwindNestedFrames@__FrameHandler3@@SAXPEA_KPEAUEHExceptionRecord@@PEAU_CONTEXT@@0PEAXPEBU_s_FuncInfo@@HHPEBU_s_HandlerType@@PEAU_xDISPATCHER_CONTEXT@@E@Z 0000000180011a8c f   libvcruntime:risctrnsctrl.obj
 0001:00010b90       _CreateFrameInfo           0000000180011b90 f   libvcruntime:risctrnsctrl.obj
 0001:00010bcc       _FindAndUnlinkFrame        0000000180011bcc f   libvcruntime:risctrnsctrl.obj
 0001:00010c20       _GetImageBase              0000000180011c20 f   libvcruntime:risctrnsctrl.obj
 0001:00010c34       _GetThrowImageBase         0000000180011c34 f   libvcruntime:risctrnsctrl.obj
 0001:00010c48       _SetImageBase              0000000180011c48 f   libvcruntime:risctrnsctrl.obj
 0001:00010c60       _SetThrowImageBase         0000000180011c60 f   libvcruntime:risctrnsctrl.obj
 0001:00010c78       __CxxFrameHandler3         0000000180011c78 f   libvcruntime:risctrnsctrl.obj
 0001:00010d00       __DestructExceptionObject  0000000180011d00 f   libvcruntime:ehhelpers.obj
 0001:00010d70       ?_CallMemberFunction0@@YAXQEAX0@Z 0000000180011d70 f i libvcruntime:ehhelpers.obj
 0001:00010d74       _IsExceptionObjectToBeDestroyed 0000000180011d74 f   libvcruntime:ehhelpers.obj
 0001:00010da4       __AdjustPointer            0000000180011da4 f   libvcruntime:ehhelpers.obj
 0001:00010dc8       __FrameUnwindFilter        0000000180011dc8 f   libvcruntime:ehhelpers.obj
 0001:00010e30       __std_type_info_compare    0000000180011e30 f   libvcruntime:std_type_info.obj
 0001:00010e58       __std_type_info_destroy_list 0000000180011e58 f   libvcruntime:std_type_info.obj
 0001:00010e84       __std_exception_copy       0000000180011e84 f   libvcruntime:std_exception.obj
 0001:00010f14       __std_exception_destroy    0000000180011f14 f   libvcruntime:std_exception.obj
 0001:00010f3c       _CxxThrowException         0000000180011f3c f   libvcruntime:throw.obj
 0001:00010fdc       __vcrt_freefls             0000000180011fdc f   libvcruntime:per_thread_data.obj
 0001:00010ffc       __vcrt_freeptd             0000000180011ffc f   libvcruntime:per_thread_data.obj
 0001:0001104c       __vcrt_getptd              000000018001204c f   libvcruntime:per_thread_data.obj
 0001:00011068       __vcrt_getptd_noexit       0000000180012068 f   libvcruntime:per_thread_data.obj
 0001:00011128       __vcrt_initialize_ptd      0000000180012128 f   libvcruntime:per_thread_data.obj
 0001:00011170       __vcrt_uninitialize_ptd    0000000180012170 f   libvcruntime:per_thread_data.obj
 0001:00011194       __vcrt_initialize_locks    0000000180012194 f   libvcruntime:locks.obj
 0001:000111c8       __vcrt_uninitialize_locks  00000001800121c8 f   libvcruntime:locks.obj
 0001:00011210       _NLG_Notify                0000000180012210 f   libvcruntime:notify.obj
 0001:00011230       __NLG_Dispatch2            0000000180012230 f   libvcruntime:notify.obj
 0001:00011240       __NLG_Return2              0000000180012240 f   libvcruntime:notify.obj
 0001:00011244       __except_validate_context_record 0000000180012244 f   libvcruntime:jbcxrval.obj
 0001:0001127c       ?GetCurrentState@__FrameHandler3@@SAHPEA_KPEAU_xDISPATCHER_CONTEXT@@PEBU_s_FuncInfo@@@Z 000000018001227c f   libvcruntime:ehstate.obj
 0001:000112a4       ?GetUnwindTryBlock@__FrameHandler3@@SAHPEA_KPEAU_xDISPATCHER_CONTEXT@@PEBU_s_FuncInfo@@@Z 00000001800122a4 f   libvcruntime:ehstate.obj
 0001:000112d0       ?SetState@__FrameHandler3@@SAXPEA_KPEBU_s_FuncInfo@@H@Z 00000001800122d0 f   libvcruntime:ehstate.obj
 0001:000112dc       ?SetUnwindTryBlock@__FrameHandler3@@SAXPEA_KPEAU_xDISPATCHER_CONTEXT@@PEBU_s_FuncInfo@@H@Z 00000001800122dc f   libvcruntime:ehstate.obj
 0001:00011318       ?StateFromControlPc@__FrameHandler3@@SAHPEBU_s_FuncInfo@@PEAU_xDISPATCHER_CONTEXT@@@Z 0000000180012318 f   libvcruntime:ehstate.obj
 0001:00011320       ?StateFromIp@__FrameHandler3@@SAHPEBU_s_FuncInfo@@PEAU_xDISPATCHER_CONTEXT@@_K@Z 0000000180012320 f   libvcruntime:ehstate.obj
 0001:00011e28       ??$TypeMatchHelper@V__FrameHandler3@@@@YAHPEBU_s_HandlerType@@PEBU_s_CatchableType@@PEBU_s_ThrowInfo@@@Z 0000000180012e28 f i libvcruntime:frame.obj
 0001:00011f6c       ??$__InternalCxxFrameHandler@V__FrameHandler3@@@@YA?AW4_EXCEPTION_DISPOSITION@@PEAUEHExceptionRecord@@PEA_KPEAU_CONTEXT@@PEAU_xDISPATCHER_CONTEXT@@PEBU_s_FuncInfo@@H1E@Z 0000000180012f6c f i libvcruntime:frame.obj
 0001:000121b4       ??0bad_exception@std@@QEAA@AEBV01@@Z 00000001800131b4 f i libvcruntime:frame.obj
 0001:000121f0       ??0bad_exception@std@@QEAA@XZ 00000001800131f0 f i libvcruntime:frame.obj
 0001:00012210       ?CxxCallCatchBlock@__FrameHandler3@@SAPEAXPEAU_EXCEPTION_RECORD@@@Z 0000000180013210 f   libvcruntime:frame.obj
 0001:00012484       ?FrameUnwindToState@__FrameHandler3@@SAXPEA_KPEAU_xDISPATCHER_CONTEXT@@PEBU_s_FuncInfo@@H@Z 0000000180013484 f   libvcruntime:frame.obj
 0001:00012610       ?GetHandlerSearchState@__FrameHandler3@@SAHPEA_KPEAU_xDISPATCHER_CONTEXT@@PEBU_s_FuncInfo@@@Z 0000000180013610 f i libvcruntime:frame.obj
 0001:00012820       ?_CallMemberFunction1@@YAXQEAX00@Z 0000000180013820 f i libvcruntime:frame.obj
 0001:0001282c       ?_CallMemberFunction2@@YAXQEAX00H@Z 000000018001382c f i libvcruntime:frame.obj
 0001:00012998       __vcrt_FlsAlloc            0000000180013998 f   libvcruntime:winapi_downlevel.obj
 0001:000129e0       __vcrt_FlsFree             00000001800139e0 f   libvcruntime:winapi_downlevel.obj
 0001:00012a28       __vcrt_FlsGetValue         0000000180013a28 f   libvcruntime:winapi_downlevel.obj
 0001:00012a70       __vcrt_FlsSetValue         0000000180013a70 f   libvcruntime:winapi_downlevel.obj
 0001:00012ac4       __vcrt_InitializeCriticalSectionEx 0000000180013ac4 f   libvcruntime:winapi_downlevel.obj
 0001:00012b40       _CallSettingFrame          0000000180013b40 f   libvcruntime:handlers.obj
 0001:00012b90       _CallSettingFrame_LookupContinuationIndex 0000000180013b90 f   libvcruntime:handlers.obj
 0001:00012bc0       _CallSettingFrame_NotifyContinuationAddr 0000000180013bc0 f   libvcruntime:handlers.obj
 0001:00012bf0       _CallSettingFrameEncoded   0000000180013bf0 f   libvcruntime:handlers.obj
 0001:00012c38       free                       0000000180013c38 f   libucrt:free.obj
 0001:00012c4c       __acrt_call_reportfault    0000000180013c4c f   libucrt:invalid_parameter.obj
 0001:00012da8       __acrt_initialize_invalid_parameter_handler 0000000180013da8 f   libucrt:invalid_parameter.obj
 0001:00012db0       _invalid_parameter         0000000180013db0 f   libucrt:invalid_parameter.obj
 0001:00012e60       _invalid_parameter_noinfo  0000000180013e60 f   libucrt:invalid_parameter.obj
 0001:00012e80       _invoke_watson             0000000180013e80 f   libucrt:invalid_parameter.obj
 0001:00012ec8       __acrt_errno_from_os_error 0000000180013ec8 f   libucrt:errno.obj
 0001:00012f10       __acrt_errno_map_os_error  0000000180013f10 f   libucrt:errno.obj
 0001:00012f60       __doserrno                 0000000180013f60 f   libucrt:errno.obj
 0001:00012f80       _errno                     0000000180013f80 f   libucrt:errno.obj
 0001:00012fa0       calloc                     0000000180013fa0 f   libucrt:calloc.obj
 0001:00012fa8       malloc                     0000000180013fa8 f   libucrt:malloc.obj
 0001:00012fb0       _recalloc                  0000000180013fb0 f   libucrt:recalloc.obj
 0001:00012fb8       _recalloc_base             0000000180013fb8 f   libucrt:recalloc.obj
 0001:00013050       _resetstkoflw              0000000180014050 f   libucrt:resetstk.obj
 0001:0001317c       wcscat_s                   000000018001417c f   libucrt:wcscat_s.obj
 0001:000131fc       wcscpy_s                   00000001800141fc f   libucrt:wcscpy_s.obj
 0001:00013264       wcsncpy_s                  0000000180014264 f   libucrt:wcsncpy_s.obj
 0001:0001351c       ??$ensure_buffer_is_big_enough@D@formatting_buffer@__crt_stdio_output@@QEAA_N_K@Z 000000018001451c f i libucrt:output.obj
 0001:000135c4       ??$ensure_buffer_is_big_enough@_W@formatting_buffer@__crt_stdio_output@@QEAA_N_K@Z 00000001800145c4 f i libucrt:output.obj
 0001:00013670       ??$is_wide_character_specifier@_W@__crt_stdio_output@@YA_N_K_WW4length_modifier@0@@Z 0000000180014670 f i libucrt:output.obj
 0001:000136b0       ??$type_case_integer_parse_into_buffer@I@?$output_processor@_WV?$string_output_adapter@_W@__crt_stdio_output@@V?$format_validation_base@_WV?$string_output_adapter@_W@__crt_stdio_output@@@2@@__crt_stdio_output@@AEAAXII_N@Z 00000001800146b0 f i libucrt:output.obj
 0001:00013754       ??$type_case_integer_parse_into_buffer@_K@?$output_processor@_WV?$string_output_adapter@_W@__crt_stdio_output@@V?$format_validation_base@_WV?$string_output_adapter@_W@__crt_stdio_output@@@2@@__crt_stdio_output@@AEAAX_KI_N@Z 0000000180014754 f i libucrt:output.obj
 0001:000137f8       ??$write_multiple_characters@V?$string_output_adapter@_W@__crt_stdio_output@@D@__crt_stdio_output@@YAXAEBV?$string_output_adapter@_W@0@DHQEAH@Z 00000001800147f8 f i libucrt:output.obj
 0001:00013874       ??0_LocaleUpdate@@QEAA@QEAU__crt_locale_pointers@@@Z 0000000180014874 f i libucrt:output.obj
 0001:00013910       ?crop_zeroes@__crt_stdio_output@@YAXPEADQEAU__crt_locale_pointers@@@Z 0000000180014910 f i libucrt:output.obj
 0001:0001397c       ?parse_int_from_format_string@?$output_processor@_WV?$string_output_adapter@_W@__crt_stdio_output@@V?$format_validation_base@_WV?$string_output_adapter@_W@__crt_stdio_output@@@2@@__crt_stdio_output@@AEAA_NQEAH@Z 000000018001497c f i libucrt:output.obj
 0001:00013a20       ?process@?$output_processor@_WV?$string_output_adapter@_W@__crt_stdio_output@@V?$format_validation_base@_WV?$string_output_adapter@_W@__crt_stdio_output@@@2@@__crt_stdio_output@@QEAAHXZ 0000000180014a20 f i libucrt:output.obj
 0001:00013ca8       ?state_case_size@?$output_processor@_WV?$string_output_adapter@_W@__crt_stdio_output@@V?$format_validation_base@_WV?$string_output_adapter@_W@__crt_stdio_output@@@2@@__crt_stdio_output@@AEAA_NXZ 0000000180014ca8 f i libucrt:output.obj
 0001:00013e40       ?state_case_type@?$output_processor@_WV?$string_output_adapter@_W@__crt_stdio_output@@V?$format_validation_base@_WV?$string_output_adapter@_W@__crt_stdio_output@@@2@@__crt_stdio_output@@AEAA_NXZ 0000000180014e40 f i libucrt:output.obj
 0001:0001410c       ?type_case_Z@?$output_processor@_WV?$string_output_adapter@_W@__crt_stdio_output@@V?$format_validation_base@_WV?$string_output_adapter@_W@__crt_stdio_output@@@2@@__crt_stdio_output@@AEAA_NXZ 000000018001510c f i libucrt:output.obj
 0001:00014188       ?type_case_a@?$output_processor@_WV?$string_output_adapter@_W@__crt_stdio_output@@V?$format_validation_base@_WV?$string_output_adapter@_W@__crt_stdio_output@@@2@@__crt_stdio_output@@AEAA_NXZ 0000000180015188 f i libucrt:output.obj
 0001:000143c4       ?type_case_c_tchar@?$output_processor@_WV?$string_output_adapter@_W@__crt_stdio_output@@V?$format_validation_base@_WV?$string_output_adapter@_W@__crt_stdio_output@@@2@@__crt_stdio_output@@AEAA_N_W@Z 00000001800153c4 f i libucrt:output.obj
 0001:0001446c       ?type_case_integer@?$output_processor@_WV?$string_output_adapter@_W@__crt_stdio_output@@V?$format_validation_base@_WV?$string_output_adapter@_W@__crt_stdio_output@@@2@@__crt_stdio_output@@AEAA_NI_N@Z 000000018001546c f i libucrt:output.obj
 0001:00014638       ?type_case_n@?$output_processor@_WV?$string_output_adapter@_W@__crt_stdio_output@@V?$format_validation_base@_WV?$string_output_adapter@_W@__crt_stdio_output@@@2@@__crt_stdio_output@@AEAA_NXZ 0000000180015638 f i libucrt:output.obj
 0001:00014714       ?type_case_s@?$output_processor@_WV?$string_output_adapter@_W@__crt_stdio_output@@V?$format_validation_base@_WV?$string_output_adapter@_W@__crt_stdio_output@@@2@@__crt_stdio_output@@AEAA_NXZ 0000000180015714 f i libucrt:output.obj
 0001:000147dc       ?write_stored_string_tchar@?$output_processor@_WV?$string_output_adapter@_W@__crt_stdio_output@@V?$format_validation_base@_WV?$string_output_adapter@_W@__crt_stdio_output@@@2@@__crt_stdio_output@@AEAA_N_W@Z 00000001800157dc f i libucrt:output.obj
 0001:000148c8       ?write_string@?$string_output_adapter@_W@__crt_stdio_output@@QEBAXQEB_WHQEAHAEAV__crt_deferred_errno_cache@@@Z 00000001800158c8 f i libucrt:output.obj
 0001:00014970       __stdio_common_vswprintf_s 0000000180015970 f   libucrt:output.obj
 0001:000149e0       _seh_filter_dll            00000001800159e0 f   libucrt:exception_filter.obj
 0001:000149f4       _seh_filter_exe            00000001800159f4 f   libucrt:exception_filter.obj
 0001:00014de4       __acrt_initialize_thread_local_exit_callback 0000000180015de4 f   libucrt:exit.obj
 0001:00014dec       _cexit                     0000000180015dec f   libucrt:exit.obj
 0001:00014dfc       _exit                      0000000180015dfc f   libucrt:exit.obj
 0001:00014e08       _is_c_termination_complete 0000000180015e08 f   libucrt:exit.obj
 0001:00014fd4       __acrt_allocate_buffer_for_argv 0000000180015fd4 f   libucrt:argv_parsing.obj
 0001:00015034       _configure_narrow_argv     0000000180016034 f   libucrt:argv_parsing.obj
 0001:000153ac       __dcrt_uninitialize_environments_nolock 00000001800163ac f   libucrt:environment_initialization.obj
 0001:000153e4       _initialize_narrow_environment 00000001800163e4 f   libucrt:environment_initialization.obj
 0001:0001572c       _crt_atexit                000000018001672c f   libucrt:onexit.obj
 0001:0001573c       _execute_onexit_table      000000018001673c f   libucrt:onexit.obj
 0001:00015778       _initialize_onexit_table   0000000180016778 f   libucrt:onexit.obj
 0001:000157a0       _register_onexit_function  00000001800167a0 f   libucrt:onexit.obj
 0001:00015820       __acrt_uninitialize_command_line 0000000180016820 f   libucrt:argv_data.obj
 0001:00015918       __acrt_initialize          0000000180016918 f   libucrt:initialization.obj
 0001:0001592c       __acrt_thread_attach       000000018001692c f   libucrt:initialization.obj
 0001:00015940       __acrt_thread_detach       0000000180016940 f   libucrt:initialization.obj
 0001:00015950       __acrt_uninitialize        0000000180016950 f   libucrt:initialization.obj
 0001:00015988       __acrt_uninitialize_critical 0000000180016988 f   libucrt:initialization.obj
 0001:00015998       _initterm                  0000000180016998 f   libucrt:initterm.obj
 0001:000159fc       _initterm_e                00000001800169fc f   libucrt:initterm.obj
 0001:00015a3c       __acrt_initialize_new_handler 0000000180016a3c f   libucrt:new_handler.obj
 0001:00015a44       _callnewh                  0000000180016a44 f   libucrt:new_handler.obj
 0001:00015a74       _query_new_handler         0000000180016a74 f   libucrt:new_handler.obj
 0001:00015aa8       terminate                  0000000180016aa8 f   libucrt:terminate.obj
 0001:00015ac8       abort                      0000000180016ac8 f   libucrt:abort.obj
 0001:00015b20       strcpy_s                   0000000180016b20 f   libucrt:strcpy_s.obj
 0001:00015b80       ??$parse_integer@KV?$c_string_character_source@_W@__crt_strtox@@@__crt_strtox@@YAKQEAU__crt_locale_pointers@@V?$c_string_character_source@_W@0@H_N@Z 0000000180016b80 f i libucrt:atox.obj
 0001:00016240       strncmp                    0000000180017240 f   libucrt:strncmp.obj
 0001:000162c0       wcsncmp                    00000001800172c0 f   libucrt:wcsncmp.obj
 0001:000162ec       _free_base                 00000001800172ec f   libucrt:free_base.obj
 0001:000166a4       __acrt_freeptd             00000001800176a4 f   libucrt:per_thread_data.obj
 0001:000166e8       __acrt_getptd              00000001800176e8 f   libucrt:per_thread_data.obj
 0001:000167bc       __acrt_getptd_head         00000001800177bc f   libucrt:per_thread_data.obj
 0001:00016864       __acrt_getptd_noexit       0000000180017864 f   libucrt:per_thread_data.obj
 0001:00016930       __acrt_initialize_ptd      0000000180017930 f   libucrt:per_thread_data.obj
 0001:0001696c       __acrt_uninitialize_ptd    000000018001796c f   libucrt:per_thread_data.obj
 0001:00016990       _calloc_base               0000000180017990 f   libucrt:calloc_base.obj
 0001:00016a08       _malloc_base               0000000180017a08 f   libucrt:malloc_base.obj
 0001:00016a68       _msize_base                0000000180017a68 f   libucrt:msize.obj
 0001:00016aa4       _realloc_base              0000000180017aa4 f   libucrt:realloc_base.obj
 0001:00016cf8       __acrt_AppPolicyGetProcessTerminationMethodInternal 0000000180017cf8 f   libucrt:winapi_thunks.obj
 0001:00016d48       __acrt_AreFileApisANSI     0000000180017d48 f   libucrt:winapi_thunks.obj
 0001:00016d84       __acrt_FlsAlloc            0000000180017d84 f   libucrt:winapi_thunks.obj
 0001:00016dcc       __acrt_FlsFree             0000000180017dcc f   libucrt:winapi_thunks.obj
 0001:00016e14       __acrt_FlsGetValue         0000000180017e14 f   libucrt:winapi_thunks.obj
 0001:00016e5c       __acrt_FlsSetValue         0000000180017e5c f   libucrt:winapi_thunks.obj
 0001:00016eb0       __acrt_InitializeCriticalSectionEx 0000000180017eb0 f   libucrt:winapi_thunks.obj
 0001:00016f14       __acrt_LCMapStringEx       0000000180017f14 f   libucrt:winapi_thunks.obj
 0001:00016ff0       __acrt_LocaleNameToLCID    0000000180017ff0 f   libucrt:winapi_thunks.obj
 0001:00017040       __acrt_SetThreadStackGuarantee 0000000180018040 f   libucrt:winapi_thunks.obj
 0001:00017084       __acrt_initialize_winapi_thunks 0000000180018084 f   libucrt:winapi_thunks.obj
 0001:000170b8       __acrt_uninitialize_winapi_thunks 00000001800180b8 f   libucrt:winapi_thunks.obj
 0001:000170fc       wcstol                     00000001800180fc f   libucrt:strtox.obj
 0001:00017128       _mbtowc_l                  0000000180018128 f   libucrt:mbtowc.obj
 0001:000172a8       mbtowc                     00000001800182a8 f   libucrt:mbtowc.obj
 0001:000172b0       wcsnlen                    00000001800182b0 f   libucrt:strnlen.obj
 0001:00017488       __acrt_update_locale_info  0000000180018488 f   libucrt:locale_update.obj
 0001:000174bc       __acrt_update_multibyte_info 00000001800184bc f   libucrt:locale_update.obj
 0001:00017d88       __acrt_fp_format           0000000180018d88 f   libucrt:cvt.obj
 0001:0001808c       _fileno                    000000018001908c f   libucrt:fileno.obj
 0001:000180b4       __acrt_initialize_stdio    00000001800190b4 f   libucrt:_file.obj
 0001:000181d4       __acrt_uninitialize_stdio  00000001800191d4 f   libucrt:_file.obj
 0001:00018230       _lock_file                 0000000180019230 f   libucrt:_file.obj
 0001:0001823c       _unlock_file               000000018001923c f   libucrt:_file.obj
 0001:00018248       _get_printf_count_output   0000000180019248 f   libucrt:printf_count_output.obj
 0001:000182d0       __acrt_set_locale_changed  00000001800192d0 f   libucrt:wsetlocale.obj
 0001:000182dc       __acrt_uninitialize_locale 00000001800192dc f   libucrt:wsetlocale.obj
 0001:00018508       __acrt_initialize_lowio    0000000180019508 f   libucrt:ioinit.obj
 0001:00018544       __acrt_uninitialize_lowio  0000000180019544 f   libucrt:ioinit.obj
 0001:00018584       __acrt_initialize_locks    0000000180019584 f   libucrt:locks.obj
 0001:000185cc       __acrt_lock                00000001800195cc f   libucrt:locks.obj
 0001:000185e8       __acrt_uninitialize_locks  00000001800195e8 f   libucrt:locks.obj
 0001:00018620       __acrt_unlock              0000000180019620 f   libucrt:locks.obj
 0001:0001863c       __acrt_get_process_end_policy 000000018001963c f   libucrt:win_policies.obj
 0001:0001868c       ??$__acrt_mbs_to_wcs_cp@U__crt_win32_buffer_internal_dynamic_resizing@@@@YAHQEBDAEAV?$__crt_win32_buffer@_WU__crt_win32_buffer_internal_dynamic_resizing@@@@I@Z 000000018001968c f i libucrt:argv_wildcards.obj
 0001:00018804       ??$__acrt_wcs_to_mbs_cp@U__crt_win32_buffer_internal_dynamic_resizing@@@@YAHQEB_WAEAV?$__crt_win32_buffer@DU__crt_win32_buffer_internal_dynamic_resizing@@@@I@Z 0000000180019804 f i libucrt:argv_wildcards.obj
 0001:00019034       __acrt_expand_narrow_argv_wildcards 000000018001a034 f   libucrt:argv_wildcards.obj
 0001:0001903c       ??$__acrt_wcs_to_mbs_cp@U__crt_win32_buffer_no_resizing@@@@YAHQEB_WAEAV?$__crt_win32_buffer@DU__crt_win32_buffer_no_resizing@@@@I@Z 000000018001a03c f i libucrt:getmodulefilenamea.obj
 0001:00019150       __acrt_GetModuleFileNameA  000000018001a150 f   libucrt:getmodulefilenamea.obj
 0001:0001999c       __acrt_initialize_multibyte 000000018001a99c f   libucrt:mbctype.obj
 0001:000199fc       __acrt_update_thread_multibyte_data 000000018001a9fc f   libucrt:mbctype.obj
 0001:00019a18       _setmbcp_nolock            000000018001aa18 f   libucrt:mbctype.obj
 0001:00019d4c       _ismbblead                 000000018001ad4c f   libucrt:ismbbyte.obj
 0001:00019d60       __acrt_initialize_command_line 000000018001ad60 f   libucrt:argv_data.obj
 0001:00019d88       __acrt_MultiByteToWideChar 000000018001ad88 f   libucrt:multibytetowidechar.obj
 0001:00019de4       __acrt_WideCharToMultiByte 000000018001ade4 f   libucrt:widechartomultibyte.obj
 0001:00019e7c       __dcrt_get_narrow_environment_from_os 000000018001ae7c f   libucrt:get_environment_from_os.obj
 0001:00019f80       __acrt_initialize_heap     000000018001af80 f   libucrt:heap_handle.obj
 0001:00019f9c       __acrt_uninitialize_heap   000000018001af9c f   libucrt:heap_handle.obj
 0001:00019fa8       __acrt_execute_initializers 000000018001afa8 f   libucrt:shared_initialization.obj
 0001:0001a028       __acrt_execute_uninitializers 000000018001b028 f   libucrt:shared_initialization.obj
 0001:0001a0ac       __acrt_get_sigabrt_handler 000000018001b0ac f   libucrt:signal.obj
 0001:0001a0dc       __acrt_initialize_signal_handlers 000000018001b0dc f   libucrt:signal.obj
 0001:0001a0fc       raise                      000000018001b0fc f   libucrt:signal.obj
 0001:0001a368       __acrt_has_user_matherr    000000018001b368 f   libucrt:matherr.obj
 0001:0001a388       __acrt_initialize_user_matherr 000000018001b388 f   libucrt:matherr.obj
 0001:0001a390       __acrt_invoke_user_matherr 000000018001b390 f   libucrt:matherr.obj
 0001:0001a59c       __acrt_stdio_flush_nolock  000000018001b59c f   libucrt:fflush.obj
 0001:0001a618       _fflush_nolock             000000018001b618 f   libucrt:fflush.obj
 0001:0001a664       _flushall                  000000018001b664 f   libucrt:fflush.obj
 0001:0001a66c       __pctype_func              000000018001b66c f   libucrt:ctype.obj
 0001:0001a69c       iswctype                   000000018001b69c f   libucrt:iswctype.obj
 0001:0001a70c       __acrt_add_locale_ref      000000018001b70c f   libucrt:locale_refcounting.obj
 0001:0001a798       __acrt_free_locale         000000018001b798 f   libucrt:locale_refcounting.obj
 0001:0001a910       __acrt_locale_add_lc_time_reference 000000018001b910 f   libucrt:locale_refcounting.obj
 0001:0001a938       __acrt_locale_free_lc_time_if_unreferenced 000000018001b938 f   libucrt:locale_refcounting.obj
 0001:0001a970       __acrt_locale_release_lc_time_reference 000000018001b970 f   libucrt:locale_refcounting.obj
 0001:0001a998       __acrt_release_locale_ref  000000018001b998 f   libucrt:locale_refcounting.obj
 0001:0001aa40       __acrt_update_thread_locale_data 000000018001ba40 f   libucrt:locale_refcounting.obj
 0001:0001aaac       _updatetlocinfoEx_nolock   000000018001baac f   libucrt:locale_refcounting.obj
 0001:0001ab14       _query_new_mode            000000018001bb14 f   libucrt:new_mode.obj
 0001:0001ab1c       __acrt_DownlevelLocaleNameToLCID 000000018001bb1c f   libucrt:lcidtoname_downlevel.obj
 0001:0001abcc       _isleadbyte_l              000000018001bbcc f i libucrt:_wctype.obj
 0001:0001ac18       ?__mbrtowc_utf8@__crt_mbstring@@YA_KPEA_WPEBD_KPEAU_Mbstatet@@@Z 000000018001bc18 f   libucrt:mbrtowc.obj
 0001:0001ac54       ?__mbsrtowcs_utf8@__crt_mbstring@@YA_KPEA_WPEAPEBD_KPEAU_Mbstatet@@@Z 000000018001bc54 f   libucrt:mbrtowc.obj
 0001:0001adcc       __acrt_fp_strflt_to_string 000000018001bdcc f   libucrt:_fptostr.obj
 0001:0001aeb0       ?divide@__crt_strtox@@YA_KAEAUbig_integer@1@AEBU21@@Z 000000018001beb0 f i libucrt:cfout.obj
 0001:0001b2dc       __acrt_fltout              000000018001c2dc f   libucrt:cfout.obj
 0001:0001c598       _fcloseall                 000000018001d598 f   libucrt:closeall.obj
 0001:0001c64c       __acrt_stdio_free_buffer_nolock 000000018001d64c f   libucrt:_freebuf.obj
 0001:0001c68c       _isatty                    000000018001d68c f   libucrt:isatty.obj
 0001:0001c6ec       __acrt_locale_free_monetary 000000018001d6ec f   libucrt:initmon.obj
 0001:0001c7f8       __acrt_locale_free_numeric 000000018001d7f8 f   libucrt:initnum.obj
 0001:0001c8bc       __acrt_locale_free_time    000000018001d8bc f   libucrt:inittime.obj
 0001:0001c9c4       __acrt_GetStringTypeA      000000018001d9c4 f   libucrt:getstringtypea.obj
 0001:0001cb54       __acrt_lowio_create_handle_array 000000018001db54 f   libucrt:osfinfo.obj
 0001:0001cbfc       __acrt_lowio_destroy_handle_array 000000018001dbfc f   libucrt:osfinfo.obj
 0001:0001cc4c       __acrt_lowio_ensure_fh_exists 000000018001dc4c f   libucrt:osfinfo.obj
 0001:0001ccf4       __acrt_lowio_lock_fh       000000018001dcf4 f   libucrt:osfinfo.obj
 0001:0001cd1c       __acrt_lowio_unlock_fh     000000018001dd1c f   libucrt:osfinfo.obj
 0001:0001cd44       _free_osfhnd               000000018001dd44 f   libucrt:osfinfo.obj
 0001:0001ce00       _get_osfhandle             000000018001de00 f   libucrt:osfinfo.obj
 0001:0001ce80       qsort                      000000018001de80 f   libucrt:qsort.obj
 0001:0001d230       strncpy_s                  000000018001e230 f   libucrt:strncpy_s.obj
 0001:0001d3b0       strpbrk                    000000018001e3b0 f   libucrt:strpbrk.obj
 0001:0001d790       _mbsdec                    000000018001e790 f   libucrt:mbsdec.obj
 0001:0001d798       _mbsdec_l                  000000018001e798 f   libucrt:mbsdec.obj
 0001:0001db44       __acrt_LCMapStringA        000000018001eb44 f   libucrt:lcmapstringa.obj
 0001:0001dc80       _commit                    000000018001ec80 f   libucrt:commit.obj
 0001:0001e574       _write                     000000018001f574 f   libucrt:write.obj
 0001:0001e660       _write_nolock              000000018001f660 f   libucrt:write.obj
 0001:0001e93c       __acrt_GetStringTypeW      000000018001f93c f   libucrt:getstringtypew.obj
 0001:0001e944       __ascii_wcsnicmp           000000018001f944 f   libucrt:wcsnicmp.obj
 0001:0001e990       ?__mbrtoc32_utf8@__crt_mbstring@@YA_KPEA_UPEBD_KPEAU_Mbstatet@@@Z 000000018001f990 f   libucrt:mbrtoc32.obj
 0001:0001eb6c       fegetenv                   000000018001fb6c f   libucrt:fegetenv.obj
 0001:0001eb8c       fesetenv                   000000018001fb8c f   libucrt:fesetenv.obj
 0001:0001ebd8       feholdexcept               000000018001fbd8 f   libucrt:feholdexcept.obj
 0001:0001ec28       ceil                       000000018001fc28 f   libucrt:ceil.obj
 0001:0001ecf0       log10                      000000018001fcf0 f   libucrt:log10.obj
 0001:0001f338       _lseeki64_nolock           0000000180020338 f   libucrt:lseek.obj
 0001:0001f340       _fclose_nolock             0000000180020340 f   libucrt:fclose.obj
 0001:0001f3c4       fclose                     00000001800203c4 f   libucrt:fclose.obj
 0001:0001f428       _query_app_type            0000000180020428 f   libucrt:report_runtime_error.obj
 0001:0001f430       __strncnt                  0000000180020430 f   libucrt:strncnt.obj
 0001:0001f448       _putwch_nolock             0000000180020448 f   libucrt:putwch.obj
 0001:0001f484       __acrt_fenv_get_control    0000000180020484 f   libucrt:_fenvutils.obj
 0001:0001f578       __acrt_fenv_get_status     0000000180020578 f   libucrt:_fenvutils.obj
 0001:0001f5cc       __acrt_fenv_set_control    00000001800205cc f   libucrt:_fenvutils.obj
 0001:0001f714       __acrt_fenv_set_status     0000000180020714 f   libucrt:_fenvutils.obj
 0001:0001f798       _clearfp                   0000000180020798 f   libucrt:ieee.obj
 0001:0001f92c       _handle_error              000000018002092c f   libucrt:libm_error.obj
 0001:0001fa54       _handle_nan                0000000180020a54 f   libucrt:libm_error.obj
 0001:0001fa70       __acrt_initialize_fma3     0000000180020a70 f   libucrt:fma3_available.obj
 0001:0001fae0       _log10_special             0000000180020ae0 f   libucrt:log_special.obj
 0001:0001fc0c       _close                     0000000180020c0c f   libucrt:close.obj
 0001:0001fcb0       _close_nolock              0000000180020cb0 f   libucrt:close.obj
 0001:0001fd70       ?__acrt_stdio_free_stream@@YAXV__crt_stdio_stream@@@Z 0000000180020d70 f   libucrt:stream.obj
 0001:0001fd8c       __dcrt_lowio_ensure_console_output_initialized 0000000180020d8c f   libucrt:initcon.obj
 0001:0001fde0       __dcrt_terminate_console_output 0000000180020de0 f   libucrt:initcon.obj
 0001:0001fdfc       __dcrt_write_console       0000000180020dfc f   libucrt:initcon.obj
 0001:0001fed0       _get_fpsr                  0000000180020ed0 f   libucrt:fpsr.obj
 0001:0001fee0       _set_fpsr                  0000000180020ee0 f   libucrt:fpsr.obj
 0001:0001feea       _fclrf                     0000000180020eea f   libucrt:fpsr.obj
 0001:0001fefe       _frnd                      0000000180020efe f   libucrt:fpsr.obj
 0001:0001ff20       _raise_exc                 0000000180020f20 f   libucrt:fpexcept.obj
 0001:0001ff48       _raise_exc_ex              0000000180020f48 f   libucrt:fpexcept.obj
 0001:00020258       _set_errno_from_matherr    0000000180021258 f   libucrt:fpexcept.obj
 0001:00020288       _clrfp                     0000000180021288 f   libucrt:fpctrl.obj
 0001:000202a8       _ctrlfp                    00000001800212a8 f   libucrt:fpctrl.obj
 0001:00020324       _set_statfp                0000000180021324 f   libucrt:fpctrl.obj
 0001:00020344       _statfp                    0000000180021344 f   libucrt:fpctrl.obj
 0001:00020355       IsProcessorFeaturePresent  0000000180021355 f   kernel32:KERNEL32.dll
 0001:00020360       _FindPESection             0000000180021360 f   LIBCMT:pesect.obj
 0001:000203b0       _IsNonwritableInCurrentImage 00000001800213b0 f   LIBCMT:pesect.obj
 0001:00020400       _ValidateImageBase         0000000180021400 f   LIBCMT:pesect.obj
 0001:00020430       strrchr                    0000000180021430 f   libvcruntime:strrchr.obj
 0001:00020570       _guard_dispatch_icall_nop  0000000180021570 f   LIBCMT:guard_dispatch.obj
 0002:00000000       __imp_RegQueryValueExW     0000000180022000     advapi32:ADVAPI32.dll
 0002:00000008       __imp_RegSetValueExW       0000000180022008     advapi32:ADVAPI32.dll
 0002:00000010       __imp_RegQueryInfoKeyW     0000000180022010     advapi32:ADVAPI32.dll
 0002:00000018       __imp_RegOpenKeyExW        0000000180022018     advapi32:ADVAPI32.dll
 0002:00000020       __imp_RegEnumKeyExW        0000000180022020     advapi32:ADVAPI32.dll
 0002:00000028       __imp_RegDeleteValueW      0000000180022028     advapi32:ADVAPI32.dll
 0002:00000030       __imp_RegDeleteKeyW        0000000180022030     advapi32:ADVAPI32.dll
 0002:00000038       __imp_RegCreateKeyExW      0000000180022038     advapi32:ADVAPI32.dll
 0002:00000040       __imp_RegCloseKey          0000000180022040     advapi32:ADVAPI32.dll
 0002:00000048       \177ADVAPI32_NULL_THUNK_DATA 0000000180022048     advapi32:ADVAPI32.dll
 0002:00000050       __imp_GetObjectW           0000000180022050     gdi32:GDI32.dll
 0002:00000058       __imp_SelectObject         0000000180022058     gdi32:GDI32.dll
 0002:00000060       __imp_DeleteObject         0000000180022060     gdi32:GDI32.dll
 0002:00000068       __imp_CreateCompatibleDC   0000000180022068     gdi32:GDI32.dll
 0002:00000070       __imp_BitBlt               0000000180022070     gdi32:GDI32.dll
 0002:00000078       __imp_SetWindowOrgEx       0000000180022078     gdi32:GDI32.dll
 0002:00000080       __imp_SetWindowExtEx       0000000180022080     gdi32:GDI32.dll
 0002:00000088       __imp_SetViewportOrgEx     0000000180022088     gdi32:GDI32.dll
 0002:00000090       __imp_LPtoDP               0000000180022090     gdi32:GDI32.dll
 0002:00000098       __imp_SetMapMode           0000000180022098     gdi32:GDI32.dll
 0002:000000a0       __imp_SaveDC               00000001800220a0     gdi32:GDI32.dll
 0002:000000a8       __imp_RestoreDC            00000001800220a8     gdi32:GDI32.dll
 0002:000000b0       __imp_GetDeviceCaps        00000001800220b0     gdi32:GDI32.dll
 0002:000000b8       __imp_DeleteMetaFile       00000001800220b8     gdi32:GDI32.dll
 0002:000000c0       __imp_DeleteDC             00000001800220c0     gdi32:GDI32.dll
 0002:000000c8       __imp_CreateRectRgnIndirect 00000001800220c8     gdi32:GDI32.dll
 0002:000000d0       __imp_CreateMetaFileW      00000001800220d0     gdi32:GDI32.dll
 0002:000000d8       __imp_CreateDCW            00000001800220d8     gdi32:GDI32.dll
 0002:000000e0       __imp_CloseMetaFile        00000001800220e0     gdi32:GDI32.dll
 0002:000000e8       \177GDI32_NULL_THUNK_DATA  00000001800220e8     gdi32:GDI32.dll
 0002:000000f0       __imp_CloseHandle          00000001800220f0     kernel32:KERNEL32.dll
 0002:000000f8       __imp_SetEvent             00000001800220f8     kernel32:KERNEL32.dll
 0002:00000100       __imp_CreateMutexW         0000000180022100     kernel32:KERNEL32.dll
 0002:00000108       __imp_CreateEventW         0000000180022108     kernel32:KERNEL32.dll
 0002:00000110       __imp_GetCurrentProcessId  0000000180022110     kernel32:KERNEL32.dll
 0002:00000118       __imp_WriteConsoleW        0000000180022118     kernel32:KERNEL32.dll
 0002:00000120       __imp_CreateFileW          0000000180022120     kernel32:KERNEL32.dll
 0002:00000128       __imp_GetConsoleMode       0000000180022128     kernel32:KERNEL32.dll
 0002:00000130       __imp_GetConsoleCP         0000000180022130     kernel32:KERNEL32.dll
 0002:00000138       __imp_WriteFile            0000000180022138     kernel32:KERNEL32.dll
 0002:00000140       __imp_FlushFileBuffers     0000000180022140     kernel32:KERNEL32.dll
 0002:00000148       __imp_SetStdHandle         0000000180022148     kernel32:KERNEL32.dll
 0002:00000150       __imp_GetStringTypeW       0000000180022150     kernel32:KERNEL32.dll
 0002:00000158       __imp_SetFilePointerEx     0000000180022158     kernel32:KERNEL32.dll
 0002:00000160       __imp_FreeEnvironmentStringsW 0000000180022160     kernel32:KERNEL32.dll
 0002:00000168       __imp_lstrcmpiW            0000000180022168     kernel32:KERNEL32.dll
 0002:00000170       __imp_GetCommandLineW      0000000180022170     kernel32:KERNEL32.dll
 0002:00000178       __imp_GetCommandLineA      0000000180022178     kernel32:KERNEL32.dll
 0002:00000180       __imp_GetCPInfo            0000000180022180     kernel32:KERNEL32.dll
 0002:00000188       __imp_GetOEMCP             0000000180022188     kernel32:KERNEL32.dll
 0002:00000190       __imp_GetACP               0000000180022190     kernel32:KERNEL32.dll
 0002:00000198       __imp_IsValidCodePage      0000000180022198     kernel32:KERNEL32.dll
 0002:000001a0       __imp_FindNextFileW        00000001800221a0     kernel32:KERNEL32.dll
 0002:000001a8       __imp_FindFirstFileExW     00000001800221a8     kernel32:KERNEL32.dll
 0002:000001b0       __imp_FindClose            00000001800221b0     kernel32:KERNEL32.dll
 0002:000001b8       __imp_GetFileType          00000001800221b8     kernel32:KERNEL32.dll
 0002:000001c0       __imp_GetStdHandle         00000001800221c0     kernel32:KERNEL32.dll
 0002:000001c8       __imp_LCMapStringW         00000001800221c8     kernel32:KERNEL32.dll
 0002:000001d0       __imp_HeapReAlloc          00000001800221d0     kernel32:KERNEL32.dll
 0002:000001d8       __imp_HeapSize             00000001800221d8     kernel32:KERNEL32.dll
 0002:000001e0       __imp_MulDiv               00000001800221e0     kernel32:KERNEL32.dll
 0002:000001e8       __imp_GlobalLock           00000001800221e8     kernel32:KERNEL32.dll
 0002:000001f0       __imp_GlobalUnlock         00000001800221f0     kernel32:KERNEL32.dll
 0002:000001f8       __imp_GlobalAlloc          00000001800221f8     kernel32:KERNEL32.dll
 0002:00000200       __imp_FindResourceW        0000000180022200     kernel32:KERNEL32.dll
 0002:00000208       __imp_SizeofResource       0000000180022208     kernel32:KERNEL32.dll
 0002:00000210       __imp_LoadResource         0000000180022210     kernel32:KERNEL32.dll
 0002:00000218       __imp_LoadLibraryExW       0000000180022218     kernel32:KERNEL32.dll
 0002:00000220       __imp_GetProcAddress       0000000180022220     kernel32:KERNEL32.dll
 0002:00000228       __imp_GetModuleHandleW     0000000180022228     kernel32:KERNEL32.dll
 0002:00000230       __imp_GetModuleFileNameW   0000000180022230     kernel32:KERNEL32.dll
 0002:00000238       __imp_FreeLibrary          0000000180022238     kernel32:KERNEL32.dll
 0002:00000240       __imp_DisableThreadLibraryCalls 0000000180022240     kernel32:KERNEL32.dll
 0002:00000248       __imp_GetCurrentThreadId   0000000180022248     kernel32:KERNEL32.dll
 0002:00000250       __imp_Sleep                0000000180022250     kernel32:KERNEL32.dll
 0002:00000258       __imp_WaitForSingleObject  0000000180022258     kernel32:KERNEL32.dll
 0002:00000260       __imp_ReleaseMutex         0000000180022260     kernel32:KERNEL32.dll
 0002:00000268       __imp_ResetEvent           0000000180022268     kernel32:KERNEL32.dll
 0002:00000270       __imp_EnterCriticalSection 0000000180022270     kernel32:KERNEL32.dll
 0002:00000278       __imp_LeaveCriticalSection 0000000180022278     kernel32:KERNEL32.dll
 0002:00000280       __imp_SetLastError         0000000180022280     kernel32:KERNEL32.dll
 0002:00000288       __imp_EncodePointer        0000000180022288     kernel32:KERNEL32.dll
 0002:00000290       __imp_DeleteCriticalSection 0000000180022290     kernel32:KERNEL32.dll
 0002:00000298       __imp_InitializeCriticalSectionEx 0000000180022298     kernel32:KERNEL32.dll
 0002:000002a0       __imp_GetLastError         00000001800222a0     kernel32:KERNEL32.dll
 0002:000002a8       __imp_RaiseException       00000001800222a8     kernel32:KERNEL32.dll
 0002:000002b0       __imp_DecodePointer        00000001800222b0     kernel32:KERNEL32.dll
 0002:000002b8       __imp_WideCharToMultiByte  00000001800222b8     kernel32:KERNEL32.dll
 0002:000002c0       __imp_GetEnvironmentStringsW 00000001800222c0     kernel32:KERNEL32.dll
 0002:000002c8       __imp_MultiByteToWideChar  00000001800222c8     kernel32:KERNEL32.dll
 0002:000002d0       __imp_GetModuleHandleExW   00000001800222d0     kernel32:KERNEL32.dll
 0002:000002d8       __imp_ExitProcess          00000001800222d8     kernel32:KERNEL32.dll
 0002:000002e0       __imp_VirtualQuery         00000001800222e0     kernel32:KERNEL32.dll
 0002:000002e8       __imp_VirtualProtect       00000001800222e8     kernel32:KERNEL32.dll
 0002:000002f0       __imp_GetSystemInfo        00000001800222f0     kernel32:KERNEL32.dll
 0002:000002f8       __imp_TlsFree              00000001800222f8     kernel32:KERNEL32.dll
 0002:00000300       __imp_TlsSetValue          0000000180022300     kernel32:KERNEL32.dll
 0002:00000308       __imp_TlsGetValue          0000000180022308     kernel32:KERNEL32.dll
 0002:00000310       __imp_TlsAlloc             0000000180022310     kernel32:KERNEL32.dll
 0002:00000318       __imp_RtlPcToFileHeader    0000000180022318     kernel32:KERNEL32.dll
 0002:00000320       __imp_InterlockedFlushSList 0000000180022320     kernel32:KERNEL32.dll
 0002:00000328       __imp_RtlUnwindEx          0000000180022328     kernel32:KERNEL32.dll
 0002:00000330       __imp_LoadLibraryExA       0000000180022330     kernel32:KERNEL32.dll
 0002:00000338       __imp_VirtualFree          0000000180022338     kernel32:KERNEL32.dll
 0002:00000340       __imp_VirtualAlloc         0000000180022340     kernel32:KERNEL32.dll
 0002:00000348       __imp_FlushInstructionCache 0000000180022348     kernel32:KERNEL32.dll
 0002:00000350       __imp_InterlockedPushEntrySList 0000000180022350     kernel32:KERNEL32.dll
 0002:00000358       __imp_InterlockedPopEntrySList 0000000180022358     kernel32:KERNEL32.dll
 0002:00000360       __imp_GetProcessHeap       0000000180022360     kernel32:KERNEL32.dll
 0002:00000368       __imp_HeapFree             0000000180022368     kernel32:KERNEL32.dll
 0002:00000370       __imp_HeapAlloc            0000000180022370     kernel32:KERNEL32.dll
 0002:00000378       __imp_OutputDebugStringW   0000000180022378     kernel32:KERNEL32.dll
 0002:00000380       __imp_InitializeSListHead  0000000180022380     kernel32:KERNEL32.dll
 0002:00000388       __imp_GetSystemTimeAsFileTime 0000000180022388     kernel32:KERNEL32.dll
 0002:00000390       __imp_QueryPerformanceCounter 0000000180022390     kernel32:KERNEL32.dll
 0002:00000398       __imp_GetStartupInfoW      0000000180022398     kernel32:KERNEL32.dll
 0002:000003a0       __imp_IsDebuggerPresent    00000001800223a0     kernel32:KERNEL32.dll
 0002:000003a8       __imp_IsProcessorFeaturePresent 00000001800223a8     kernel32:KERNEL32.dll
 0002:000003b0       __imp_TerminateProcess     00000001800223b0     kernel32:KERNEL32.dll
 0002:000003b8       __imp_GetCurrentProcess    00000001800223b8     kernel32:KERNEL32.dll
 0002:000003c0       __imp_InitializeCriticalSectionAndSpinCount 00000001800223c0     kernel32:KERNEL32.dll
 0002:000003c8       __imp_WaitForSingleObjectEx 00000001800223c8     kernel32:KERNEL32.dll
 0002:000003d0       __imp_RtlCaptureContext    00000001800223d0     kernel32:KERNEL32.dll
 0002:000003d8       __imp_RtlLookupFunctionEntry 00000001800223d8     kernel32:KERNEL32.dll
 0002:000003e0       __imp_RtlVirtualUnwind     00000001800223e0     kernel32:KERNEL32.dll
 0002:000003e8       __imp_UnhandledExceptionFilter 00000001800223e8     kernel32:KERNEL32.dll
 0002:000003f0       __imp_SetUnhandledExceptionFilter 00000001800223f0     kernel32:KERNEL32.dll
 0002:000003f8       \177KERNEL32_NULL_THUNK_DATA 00000001800223f8     kernel32:KERNEL32.dll
 0002:00000400       __imp_OleCreatePropertyFrame 0000000180022400     oleaut32:OLEAUT32.dll
 0002:00000408       __imp_UnRegisterTypeLib    0000000180022408     oleaut32:OLEAUT32.dll
 0002:00000410       __imp_RegisterTypeLib      0000000180022410     oleaut32:OLEAUT32.dll
 0002:00000418       __imp_LoadRegTypeLib       0000000180022418     oleaut32:OLEAUT32.dll
 0002:00000420       __imp_LoadTypeLib          0000000180022420     oleaut32:OLEAUT32.dll
 0002:00000428       __imp_VarUI4FromStr        0000000180022428     oleaut32:OLEAUT32.dll
 0002:00000430       __imp_VariantInit          0000000180022430     oleaut32:OLEAUT32.dll
 0002:00000438       __imp_SysAllocStringByteLen 0000000180022438     oleaut32:OLEAUT32.dll
 0002:00000440       __imp_SysStringByteLen     0000000180022440     oleaut32:OLEAUT32.dll
 0002:00000448       __imp_VariantChangeType    0000000180022448     oleaut32:OLEAUT32.dll
 0002:00000450       __imp_VariantClear         0000000180022450     oleaut32:OLEAUT32.dll
 0002:00000458       __imp_SysStringLen         0000000180022458     oleaut32:OLEAUT32.dll
 0002:00000460       __imp_SysFreeString        0000000180022460     oleaut32:OLEAUT32.dll
 0002:00000468       __imp_SysAllocStringLen    0000000180022468     oleaut32:OLEAUT32.dll
 0002:00000470       __imp_SysAllocString       0000000180022470     oleaut32:OLEAUT32.dll
 0002:00000478       \177OLEAUT32_NULL_THUNK_DATA 0000000180022478     oleaut32:OLEAUT32.dll
 0002:00000480       __imp_UnregisterClassW     0000000180022480     user32:USER32.dll
 0002:00000488       __imp_PostMessageW         0000000180022488     user32:USER32.dll
 0002:00000490       __imp_DefWindowProcW       0000000180022490     user32:USER32.dll
 0002:00000498       __imp_CallWindowProcW      0000000180022498     user32:USER32.dll
 0002:000004a0       __imp_RegisterClassExW     00000001800224a0     user32:USER32.dll
 0002:000004a8       __imp_GetClassInfoExW      00000001800224a8     user32:USER32.dll
 0002:000004b0       __imp_CreateWindowExW      00000001800224b0     user32:USER32.dll
 0002:000004b8       __imp_IsWindow             00000001800224b8     user32:USER32.dll
 0002:000004c0       __imp_IsChild              00000001800224c0     user32:USER32.dll
 0002:000004c8       __imp_DestroyWindow        00000001800224c8     user32:USER32.dll
 0002:000004d0       __imp_ShowWindow           00000001800224d0     user32:USER32.dll
 0002:000004d8       __imp_SetWindowPos         00000001800224d8     user32:USER32.dll
 0002:000004e0       __imp_CharNextW            00000001800224e0     user32:USER32.dll
 0002:000004e8       __imp_SetFocus             00000001800224e8     user32:USER32.dll
 0002:000004f0       __imp_LoadBitmapW          00000001800224f0     user32:USER32.dll
 0002:000004f8       __imp_RegisterClassW       00000001800224f8     user32:USER32.dll
 0002:00000500       __imp_PeekMessageW         0000000180022500     user32:USER32.dll
 0002:00000508       __imp_LoadCursorW          0000000180022508     user32:USER32.dll
 0002:00000510       __imp_GetParent            0000000180022510     user32:USER32.dll
 0002:00000518       __imp_SetWindowLongPtrW    0000000180022518     user32:USER32.dll
 0002:00000520       __imp_GetWindowLongPtrW    0000000180022520     user32:USER32.dll
 0002:00000528       __imp_PtInRect             0000000180022528     user32:USER32.dll
 0002:00000530       __imp_EqualRect            0000000180022530     user32:USER32.dll
 0002:00000538       __imp_OffsetRect           0000000180022538     user32:USER32.dll
 0002:00000540       __imp_UnionRect            0000000180022540     user32:USER32.dll
 0002:00000548       __imp_IntersectRect        0000000180022548     user32:USER32.dll
 0002:00000550       __imp_GetClientRect        0000000180022550     user32:USER32.dll
 0002:00000558       __imp_InvalidateRect       0000000180022558     user32:USER32.dll
 0002:00000560       __imp_SetWindowRgn         0000000180022560     user32:USER32.dll
 0002:00000568       __imp_EndPaint             0000000180022568     user32:USER32.dll
 0002:00000570       __imp_BeginPaint           0000000180022570     user32:USER32.dll
 0002:00000578       __imp_ReleaseDC            0000000180022578     user32:USER32.dll
 0002:00000580       __imp_GetDC                0000000180022580     user32:USER32.dll
 0002:00000588       __imp_GetKeyState          0000000180022588     user32:USER32.dll
 0002:00000590       __imp_GetFocus             0000000180022590     user32:USER32.dll
 0002:00000598       \177USER32_NULL_THUNK_DATA 0000000180022598     user32:USER32.dll
 0002:000005a0       __imp_CoCreateInstance     00000001800225a0     ole32:ole32.dll
 0002:000005a8       __imp_StringFromGUID2      00000001800225a8     ole32:ole32.dll
 0002:000005b0       __imp_CoTaskMemAlloc       00000001800225b0     ole32:ole32.dll
 0002:000005b8       __imp_CoTaskMemFree        00000001800225b8     ole32:ole32.dll
 0002:000005c0       __imp_ReadClassStm         00000001800225c0     ole32:ole32.dll
 0002:000005c8       __imp_WriteClassStm        00000001800225c8     ole32:ole32.dll
 0002:000005d0       __imp_CreateDataAdviseHolder 00000001800225d0     ole32:ole32.dll
 0002:000005d8       __imp_OleSaveToStream      00000001800225d8     ole32:ole32.dll
 0002:000005e0       __imp_CreateOleAdviseHolder 00000001800225e0     ole32:ole32.dll
 0002:000005e8       __imp_OleRegGetUserType    00000001800225e8     ole32:ole32.dll
 0002:000005f0       __imp_OleRegGetMiscStatus  00000001800225f0     ole32:ole32.dll
 0002:000005f8       __imp_OleRegEnumVerbs      00000001800225f8     ole32:ole32.dll
 0002:00000600       __imp_CLSIDFromProgID      0000000180022600     ole32:ole32.dll
 0002:00000608       __imp_CoTaskMemRealloc     0000000180022608     ole32:ole32.dll
 0002:00000610       \177ole32_NULL_THUNK_DATA  0000000180022610     ole32:ole32.dll
 0002:00000618       __guard_check_icall_fptr   0000000180022618     LIBCMT:guard_support.obj
 0002:00000620       __guard_dispatch_icall_fptr 0000000180022620     LIBCMT:guard_support.obj
 0002:00000628       __xc_a                     0000000180022628     LIBCMT:initializers.obj
 0002:00000658       __xc_z                     0000000180022658     LIBCMT:initializers.obj
 0002:00000660       __xi_a                     0000000180022660     LIBCMT:initializers.obj
 0002:00000670       __acrt_stdio_initializer   0000000180022670     libucrt:stdio_initializer.obj
 0002:00000678       __acrt_multibyte_initializer 0000000180022678     libucrt:multibyte_initializer.obj
 0002:00000680       __acrt_tran_fma3_initializer 0000000180022680     libucrt:fma3_initializer.obj
 0002:00000688       __xi_z                     0000000180022688     LIBCMT:initializers.obj
 0002:00000690       __xl_a                     0000000180022690     LIBCMT:tlssup.obj
 0002:00000698       __xl_z                     0000000180022698     LIBCMT:tlssup.obj
 0002:000006a0       __xp_a                     00000001800226a0     LIBCMT:initializers.obj
 0002:000006a8       __acrt_locale_terminator   00000001800226a8     libucrt:locale_initializer.obj
 0002:000006b0       __dcrt_console_output_terminator 00000001800226b0     libucrt:console_output_initializer.obj
 0002:000006b8       __acrt_stdio_terminator    00000001800226b8     libucrt:stdio_initializer.obj
 0002:000006c0       __xp_z                     00000001800226c0     LIBCMT:initializers.obj
 0002:000006c8       __xt_a                     00000001800226c8     LIBCMT:initializers.obj
 0002:000006d0       __xt_z                     00000001800226d0     LIBCMT:initializers.obj
 0002:000006e0       ??_C@_13HADIAKP@?$AAS@     00000001800226e0     OposVariant.obj
 0002:000006e4       ??_C@_13LHMFKAAD@?$AAM@    00000001800226e4     OposVariant.obj
 0002:000006e8       ??_C@_13MKMNOPIJ@?$AAD@    00000001800226e8     OposVariant.obj
 0002:000006ec       ??_C@_13OPKGLAFF@?$AAB@    00000001800226ec     OposVariant.obj
 0002:000006f0       ??_C@_17LLMMEOJD@?$AAV?$AAa?$AAl@ 00000001800226f0     OposVariant.obj
 0002:000006f8       ??_C@_1BI@JFAIJMHL@?$AAF?$AAo?$AAr?$AAc?$AAe?$AAR?$AAe?$AAm?$AAo?$AAv?$AAe@ 00000001800226f8     OposVariant.obj
 0002:00000710       ??_C@_1BC@GCKHIPE@?$AAN?$AAo?$AAR?$AAe?$AAm?$AAo?$AAv?$AAe@ 0000000180022710     OposVariant.obj
 0002:00000728       ??_C@_1O@JDLOHAN@?$AAD?$AAe?$AAl?$AAe?$AAt?$AAe@ 0000000180022728     OposVariant.obj
 0002:00000738       ??_C@_11LOCGONAA@@         0000000180022738     OposVariant.obj
 0002:00000740       IID_IOPOSTotals_1_5        0000000180022740     Totals.obj
 0002:00000750       IID_IOPOSTotals_1_8        0000000180022750     Totals.obj
 0002:00000760       IID_IOPOSTotals_1_9        0000000180022760     Totals.obj
 0002:00000770       IID_IOPOSTotals            0000000180022770     Totals.obj
 0002:00000780       LIBID_OposTotals_CCO       0000000180022780     Totals.obj
 0002:00000790       DIID__IOPOSTotalsEvents    0000000180022790     Totals.obj
 0002:000007a0       CLSID_OPOSTotals           00000001800227a0     Totals.obj
 0002:000007b0       _GUID_00000114_0000_0000_c000_000000000046 00000001800227b0     Totals.obj
 0002:000007c0       ??_C@_1BK@BIGILECK@?$AAA?$AAd?$AAv?$AAa?$AAp?$AAi?$AA3?$AA2?$AA?4?$AAd?$AAl?$AAl@ 00000001800227c0     Totals.obj
 0002:000007e0       ??_C@_0BI@MNCFCPFK@RegCreateKeyTransactedW@ 00000001800227e0     Totals.obj
 0002:000007f8       _GUID_b196b287_bab4_101a_b69c_00aa00341d07 00000001800227f8     Totals.obj
 0002:00000808       _GUID_b196b285_bab4_101a_b69c_00aa00341d07 0000000180022808     Totals.obj
 0002:00000820       ?_entries@?1??_GetEntries@COPOSTotals@@SAPEBU_ATL_INTMAP_ENTRY@ATL@@XZ@4QBU34@B 0000000180022820     Totals.obj
 0002:00000a90       _GUID_a6bc3ac0_dbaa_11ce_9de3_00aa004bb851 0000000180022a90     Totals.obj
 0002:00000aa0       _GUID_0000010c_0000_0000_c000_000000000046 0000000180022aa0     Totals.obj
 0002:00000ab0       _GUID_cf51ed10_62fe_11cf_bf86_00a0c9034836 0000000180022ab0     Totals.obj
 0002:00000ac0       _GUID_0000010a_0000_0000_c000_000000000046 0000000180022ac0     Totals.obj
 0002:00000ad0       _GUID_b196b283_bab4_101a_b69c_00aa00341d07 0000000180022ad0     Totals.obj
 0002:00000ae0       _GUID_cb5bdc81_93c1_11cf_8f20_00805f2cd064 0000000180022ae0     Totals.obj
 0002:00000af0       ?pPropMap@?1??GetPropertyMap@COPOSTotals@@SAPEBUATL_PROPMAP_ENTRY@ATL@@XZ@4QBU34@B 0000000180022af0     Totals.obj
 0002:00000b98       ??_C@_17DGDADEHL@?$AA_?$AAc?$AAx@ 0000000180022b98     Totals.obj
 0002:00000ba0       ??_C@_17IOIMFDBO@?$AA_?$AAc?$AAy@ 0000000180022ba0     Totals.obj
 0002:00000ba8       _GUID_00000146_0000_0000_c000_000000000046 0000000180022ba8     Totals.obj
 0002:00000bb8       _GUID_922eada0_3424_11cf_b670_00aa004cd6d8 0000000180022bb8     Totals.obj
 0002:00000bc8       _GUID_9c2cad80_3424_11cf_b670_00aa004cd6d8 0000000180022bc8     Totals.obj
 0002:00000bd8       _GUID_00000119_0000_0000_c000_000000000046 0000000180022bd8     Totals.obj
 0002:00000be8       _GUID_b196b289_bab4_101a_b69c_00aa00341d07 0000000180022be8     Totals.obj
 0002:00000bf8       ??_7?$CComObjectCached@VCComClassFactory@ATL@@@ATL@@6B@ 0000000180022bf8     Totals.obj
 0002:00000c28       ??_C@_1CE@PGFMOFKI@?$AAS?$AAt?$AAa?$AAt?$AAu?$AAs?$AAU?$AAp?$AAd?$AAa?$AAt?$AAe?$AAE?$AAv?$AAe@ 0000000180022c28     Totals.obj
 0002:00000c50       ??_C@_1BM@CBGEBBBJ@?$AAD?$AAi?$AAr?$AAe?$AAc?$AAt?$AAI?$AAO?$AAE?$AAv?$AAe?$AAn?$AAt@ 0000000180022c50     Totals.obj
 0002:00000c70       _GUID_b196b286_bab4_101a_b69c_00aa00341d07 0000000180022c70     Totals.obj
 0002:00000c80       _GUID_00000117_0000_0000_c000_000000000046 0000000180022c80     Totals.obj
 0002:00000c90       ??_C@_1BC@ENICKDH@?$AAC?$AAo?$AAn?$AAt?$AAe?$AAn?$AAt?$AAs@ 0000000180022c90     Totals.obj
 0002:00000ca8       ??_7CComModule@ATL@@6B@    0000000180022ca8     Totals.obj
 0002:00000cf8       _GUID_00000000_0000_0000_c000_000000000046 0000000180022cf8     Totals.obj
 0002:00000d08       _GUID_00020400_0000_0000_c000_000000000046 0000000180022d08     Totals.obj
 0002:00000d18       ??_7?$CComObject@V?$CComEnum@UIEnumConnectionPoints@@$1?_GUID_b196b285_bab4_101a_b69c_00aa00341d07@@3U__s_GUID@@BPEAUIConnectionPoint@@V?$_CopyInterface@UIConnectionPoint@@@ATL@@VCComSingleThreadModel@6@@ATL@@@ATL@@6B@ 0000000180022d18     Totals.obj
 0002:00000d58       _GUID_0000010e_0000_0000_c000_000000000046 0000000180022d58     Totals.obj
 0002:00000d68       _GUID_b196b288_bab4_101a_b69c_00aa00341d07 0000000180022d68     Totals.obj
 0002:00000d78       ??_C@_1M@KANJNLFF@?$AAC?$AAL?$AAS?$AAI?$AAD@ 0000000180022d78     Totals.obj
 0002:00000d88       ??_C@_1M@EJNEECMJ@?$AAA?$AAp?$AAp?$AAI?$AAD@ 0000000180022d88     Totals.obj
 0002:00000d98       _GUID_00000113_0000_0000_c000_000000000046 0000000180022d98     Totals.obj
 0002:00000db0       ?rgszNeverDelete@CRegParser@ATL@@1QBQEB_WB 0000000180022db0     Totals.obj
 0002:00000e10       _GUID_1c2056cc_5ef4_101b_8bc8_00aa003e3b29 0000000180022e10     Totals.obj
 0002:00000e20       ??_7CRegObject@ATL@@6B@    0000000180022e20     Totals.obj
 0002:00000e50       _GUID_00000112_0000_0000_c000_000000000046 0000000180022e50     Totals.obj
 0002:00000e60       _GUID_3af24292_0c96_11ce_a0cf_00aa00600ab8 0000000180022e60     Totals.obj
 0002:00000e70       _GUID_00000127_0000_0000_c000_000000000046 0000000180022e70     Totals.obj
 0002:00000e80       _GUID_0000010d_0000_0000_c000_000000000046 0000000180022e80     Totals.obj
 0002:00000e90       ??_C@_1CK@OEKPKBNA@?$AAC?$AAo?$AAm?$AAp?$AAo?$AAn?$AAe?$AAn?$AAt?$AA?5?$AAC?$AAa?$AAt?$AAe?$AAg@ 0000000180022e90     Totals.obj
 0002:00000ec0       ??_C@_1BC@NKMMNMGL@?$AAF?$AAi?$AAl?$AAe?$AAT?$AAy?$AAp?$AAe@ 0000000180022ec0     Totals.obj
 0002:00000ed8       ??_C@_1BE@EKPAFMCP@?$AAI?$AAn?$AAt?$AAe?$AAr?$AAf?$AAa?$AAc?$AAe@ 0000000180022ed8     Totals.obj
 0002:00000ef0       ??_C@_1BC@MAICEHGI@?$AAH?$AAa?$AAr?$AAd?$AAw?$AAa?$AAr?$AAe@ 0000000180022ef0     Totals.obj
 0002:00000f08       ??_C@_19HLLLM@?$AAM?$AAi?$AAm?$AAe@ 0000000180022f08     Totals.obj
 0002:00000f18       ??_C@_17OMAOINJK@?$AAS?$AAA?$AAM@ 0000000180022f18     Totals.obj
 0002:00000f20       ??_C@_1BC@IBECJAAI@?$AAS?$AAE?$AAC?$AAU?$AAR?$AAI?$AAT?$AAY@ 0000000180022f20     Totals.obj
 0002:00000f38       ??_C@_1O@GBFINDKL@?$AAS?$AAY?$AAS?$AAT?$AAE?$AAM@ 0000000180022f38     Totals.obj
 0002:00000f48       ??_C@_1BC@EAHCMADO@?$AAS?$AAo?$AAf?$AAt?$AAw?$AAa?$AAr?$AAe@ 0000000180022f48     Totals.obj
 0002:00000f60       ??_C@_1BA@JIHHIEDE@?$AAT?$AAy?$AAp?$AAe?$AAL?$AAi?$AAb@ 0000000180022f60     Totals.obj
 0002:00000f70       ?map@?1??HKeyFromString@CRegParser@ATL@@KAPEAUHKEY__@@PEA_W@Z@4QBUkeymap@?1??123@KAPEAU4@0@Z@B 0000000180022f70     Totals.obj
 0002:00001050       ??_C@_1M@PPPPCDEP@?$AAA?$AAP?$AAP?$AAI?$AAD@ 0000000180023050     Totals.obj
 0002:00001060       ??_C@_19NCHLBIN@?$AAH?$AAK?$AAC?$AAR@ 0000000180023060     Totals.obj
 0002:00001070       ??_C@_19JAPAIJDE@?$AAH?$AAK?$AAC?$AAU@ 0000000180023070     Totals.obj
 0002:00001080       ??_C@_19PEALEEJB@?$AAH?$AAK?$AAL?$AAM@ 0000000180023080     Totals.obj
 0002:00001090       ??_C@_17PJOJPMPB@?$AAH?$AAK?$AAU@ 0000000180023090     Totals.obj
 0002:00001098       ??_C@_19PNBHMJPL@?$AAH?$AAK?$AAP?$AAD@ 0000000180023098     Totals.obj
 0002:000010a8       ??_C@_19GFFAIJHG@?$AAH?$AAK?$AAD?$AAD@ 00000001800230a8     Totals.obj
 0002:000010b8       ??_C@_19OFICIBHH@?$AAH?$AAK?$AAC?$AAC@ 00000001800230b8     Totals.obj
 0002:000010c8       ??_C@_1CE@PACHPJFI@?$AAH?$AAK?$AAE?$AAY?$AA_?$AAC?$AAL?$AAA?$AAS?$AAS?$AAE?$AAS?$AA_?$AAR?$AAO@ 00000001800230c8     Totals.obj
 0002:000010f0       ??_C@_1CE@HLHNCBPM@?$AAH?$AAK?$AAE?$AAY?$AA_?$AAC?$AAU?$AAR?$AAR?$AAE?$AAN?$AAT?$AA_?$AAU?$AAS@ 00000001800230f0     Totals.obj
 0002:00001118       ??_C@_1CG@GFBEANJL@?$AAH?$AAK?$AAE?$AAY?$AA_?$AAL?$AAO?$AAC?$AAA?$AAL?$AA_?$AAM?$AAA?$AAC?$AAH@ 0000000180023118     Totals.obj
 0002:00001140       ??_C@_1BG@BGODANIO@?$AAH?$AAK?$AAE?$AAY?$AA_?$AAU?$AAS?$AAE?$AAR?$AAS@ 0000000180023140     Totals.obj
 0002:00001158       ??_C@_1CM@KHNNAOIC@?$AAH?$AAK?$AAE?$AAY?$AA_?$AAP?$AAE?$AAR?$AAF?$AAO?$AAR?$AAM?$AAA?$AAN?$AAC@ 0000000180023158     Totals.obj
 0002:00001188       ??_C@_1BM@HAGMMHIA@?$AAH?$AAK?$AAE?$AAY?$AA_?$AAD?$AAY?$AAN?$AA_?$AAD?$AAA?$AAT?$AAA@ 0000000180023188     Totals.obj
 0002:000011a8       ??_C@_1CI@BBJOACGG@?$AAH?$AAK?$AAE?$AAY?$AA_?$AAC?$AAU?$AAR?$AAR?$AAE?$AAN?$AAT?$AA_?$AAC?$AAO@ 00000001800231a8     Totals.obj
 0002:000011d0       _GUID_00000109_0000_0000_c000_000000000046 00000001800231d0     Totals.obj
 0002:000011e0       _GUID_7fd52380_4e07_101b_ae2d_08002b2ec713 00000001800231e0     Totals.obj
 0002:000011f0       ??_C@_1EA@NHKLICFA@?$AAH?$AAK?$AAC?$AAU?$AA?$AN?$AA?6?$AA?$HL?$AA?7?$AAS?$AAo?$AAf?$AAt?$AAw?$AAa?$AAr@ 00000001800231f0     Totals.obj
 0002:00001230       ??_C@_1BE@LJOLIMEM@?$AA?$AN?$AA?6?$AA?7?$AA?$HN?$AA?$AN?$AA?6?$AA?$HN?$AA?$AN?$AA?6@ 0000000180023230     Totals.obj
 0002:00001248       ??_7?$CComContainedObject@VCOPOSTotals@@@ATL@@6B?$IDispatchImpl@UIOPOSTotals@@$1?IID_IOPOSTotals@@3U_GUID@@B$1?LIBID_OposTotals_CCO@@3U3@B$00$0A@VCComTypeInfoHolder@ATL@@@1@@ 0000000180023248     Totals.obj
 0002:00001488       ??_7?$CComContainedObject@VCOPOSTotals@@@ATL@@6BCComControlBase@1@@ 0000000180023488     Totals.obj
 0002:000014b0       ??_7?$CComContainedObject@VCOPOSTotals@@@ATL@@6B?$CWindowImpl@VCOPOSTotals@@VCWindow@ATL@@V?$CWinTraits@$0FGAAAAAA@$0A@@3@@1@@ 00000001800234b0     Totals.obj
 0002:000014d0       ??_7?$CComContainedObject@VCOPOSTotals@@@ATL@@6B?$IPersistStreamInitImpl@VCOPOSTotals@@@1@@ 00000001800234d0     Totals.obj
 0002:00001518       ??_7?$CComContainedObject@VCOPOSTotals@@@ATL@@6B?$IOleControlImpl@VCOPOSTotals@@@1@@ 0000000180023518     Totals.obj
 0002:00001550       ??_7?$CComContainedObject@VCOPOSTotals@@@ATL@@6B?$IOleObjectImpl@VCOPOSTotals@@@1@@ 0000000180023550     Totals.obj
 0002:00001610       ??_7?$CComContainedObject@VCOPOSTotals@@@ATL@@6B?$IOleInPlaceActiveObjectImpl@VCOPOSTotals@@@1@@ 0000000180023610     Totals.obj
 0002:00001660       ??_7?$CComContainedObject@VCOPOSTotals@@@ATL@@6B?$IViewObjectExImpl@VCOPOSTotals@@@1@@ 0000000180023660     Totals.obj
 0002:000016d8       ??_7?$CComContainedObject@VCOPOSTotals@@@ATL@@6B?$IOleInPlaceObjectWindowlessImpl@VCOPOSTotals@@@1@@ 00000001800236d8     Totals.obj
 0002:00001730       ??_7?$CComContainedObject@VCOPOSTotals@@@ATL@@6B?$IConnectionPointContainerImpl@VCOPOSTotals@@@1@@ 0000000180023730     Totals.obj
 0002:00001758       ??_7?$CComContainedObject@VCOPOSTotals@@@ATL@@6B?$IPersistStorageImpl@VCOPOSTotals@@@1@@ 0000000180023758     Totals.obj
 0002:000017a8       ??_7?$CComContainedObject@VCOPOSTotals@@@ATL@@6B?$ISpecifyPropertyPagesImpl@VCOPOSTotals@@@1@@ 00000001800237a8     Totals.obj
 0002:000017c8       ??_7?$CComContainedObject@VCOPOSTotals@@@ATL@@6B?$IQuickActivateImpl@VCOPOSTotals@@@1@@ 00000001800237c8     Totals.obj
 0002:000017f8       ??_7?$CComContainedObject@VCOPOSTotals@@@ATL@@6B?$IDataObjectImpl@VCOPOSTotals@@@1@@ 00000001800237f8     Totals.obj
 0002:00001858       ??_7?$CComContainedObject@VCOPOSTotals@@@ATL@@6B?$IProvideClassInfo2Impl@$1?CLSID_OPOSTotals@@3U_GUID@@B$1?DIID__IOPOSTotalsEvents@@3U2@B$1?LIBID_OposTotals_CCO@@3U2@B$00$0A@VCComTypeInfoHolder@ATL@@@1@@ 0000000180023858     Totals.obj
 0002:00001880       ??_7?$CComContainedObject@VCOPOSTotals@@@ATL@@6B?$IObjectSafetyImpl@VCOPOSTotals@@$02@1@@ 0000000180023880     Totals.obj
 0002:000018b0       ??_7?$CComContainedObject@VCOPOSTotals@@@ATL@@6B?$IPropertyNotifySinkCP@VCOPOSTotals@@VCComDynamicUnkArray@ATL@@@1@@ 00000001800238b0     Totals.obj
 0002:000018f0       ??_7?$CComContainedObject@VCOPOSTotals@@@ATL@@6B?$CProxy_IOPOSEvents@VCOPOSTotals@@@@@ 00000001800238f0     Totals.obj
 0002:00001930       ??_7?$CComAggObject@VCOPOSTotals@@@ATL@@6B@ 0000000180023930     Totals.obj
 0002:00001950       ??_7?$CComObject@VCOPOSTotals@@@ATL@@6B?$IDispatchImpl@UIOPOSTotals@@$1?IID_IOPOSTotals@@3U_GUID@@B$1?LIBID_OposTotals_CCO@@3U3@B$00$0A@VCComTypeInfoHolder@ATL@@@1@@ 0000000180023950     Totals.obj
 0002:00001b90       ??_7?$CComObject@VCOPOSTotals@@@ATL@@6BCComControlBase@1@@ 0000000180023b90     Totals.obj
 0002:00001bb8       ??_7?$CComObject@VCOPOSTotals@@@ATL@@6B?$CWindowImpl@VCOPOSTotals@@VCWindow@ATL@@V?$CWinTraits@$0FGAAAAAA@$0A@@3@@1@@ 0000000180023bb8     Totals.obj
 0002:00001bd8       ??_7?$CComObject@VCOPOSTotals@@@ATL@@6B?$IPersistStreamInitImpl@VCOPOSTotals@@@1@@ 0000000180023bd8     Totals.obj
 0002:00001c20       ??_7?$CComObject@VCOPOSTotals@@@ATL@@6B?$IOleControlImpl@VCOPOSTotals@@@1@@ 0000000180023c20     Totals.obj
 0002:00001c58       ??_7?$CComObject@VCOPOSTotals@@@ATL@@6B?$IOleObjectImpl@VCOPOSTotals@@@1@@ 0000000180023c58     Totals.obj
 0002:00001d18       ??_7?$CComObject@VCOPOSTotals@@@ATL@@6B?$IOleInPlaceActiveObjectImpl@VCOPOSTotals@@@1@@ 0000000180023d18     Totals.obj
 0002:00001d68       ??_7?$CComObject@VCOPOSTotals@@@ATL@@6B?$IViewObjectExImpl@VCOPOSTotals@@@1@@ 0000000180023d68     Totals.obj
 0002:00001de0       ??_7?$CComObject@VCOPOSTotals@@@ATL@@6B?$IOleInPlaceObjectWindowlessImpl@VCOPOSTotals@@@1@@ 0000000180023de0     Totals.obj
 0002:00001e38       ??_7?$CComObject@VCOPOSTotals@@@ATL@@6B?$IConnectionPointContainerImpl@VCOPOSTotals@@@1@@ 0000000180023e38     Totals.obj
 0002:00001e60       ??_7?$CComObject@VCOPOSTotals@@@ATL@@6B?$IPersistStorageImpl@VCOPOSTotals@@@1@@ 0000000180023e60     Totals.obj
 0002:00001eb0       ??_7?$CComObject@VCOPOSTotals@@@ATL@@6B?$ISpecifyPropertyPagesImpl@VCOPOSTotals@@@1@@ 0000000180023eb0     Totals.obj
 0002:00001ed0       ??_7?$CComObject@VCOPOSTotals@@@ATL@@6B?$IQuickActivateImpl@VCOPOSTotals@@@1@@ 0000000180023ed0     Totals.obj
 0002:00001f00       ??_7?$CComObject@VCOPOSTotals@@@ATL@@6B?$IDataObjectImpl@VCOPOSTotals@@@1@@ 0000000180023f00     Totals.obj
 0002:00001f60       ??_7?$CComObject@VCOPOSTotals@@@ATL@@6B?$IProvideClassInfo2Impl@$1?CLSID_OPOSTotals@@3U_GUID@@B$1?DIID__IOPOSTotalsEvents@@3U2@B$1?LIBID_OposTotals_CCO@@3U2@B$00$0A@VCComTypeInfoHolder@ATL@@@1@@ 0000000180023f60     Totals.obj
 0002:00001f88       ??_7?$CComObject@VCOPOSTotals@@@ATL@@6B?$IObjectSafetyImpl@VCOPOSTotals@@$02@1@@ 0000000180023f88     Totals.obj
 0002:00001fb8       ??_7?$CComObject@VCOPOSTotals@@@ATL@@6B?$IPropertyNotifySinkCP@VCOPOSTotals@@VCComDynamicUnkArray@ATL@@@1@@ 0000000180023fb8     Totals.obj
 0002:00001ff8       ??_7?$CComObject@VCOPOSTotals@@@ATL@@6B?$CProxy_IOPOSEvents@VCOPOSTotals@@@@@ 0000000180023ff8     Totals.obj
 0002:00002038       ??_C@_1O@MNLDABAF@?$AAM?$AAo?$AAd?$AAu?$AAl?$AAe@ 0000000180024038     Totals.obj
 0002:00002048       ??_C@_1BG@JBACFMF@?$AAM?$AAo?$AAd?$AAu?$AAl?$AAe?$AA_?$AAR?$AAa?$AAw@ 0000000180024048     Totals.obj
 0002:00002060       ??_C@_1BC@KAILKFFG@?$AAR?$AAE?$AAG?$AAI?$AAS?$AAT?$AAR?$AAY@ 0000000180024060     Totals.obj
 0002:00002078       ??_C@_1O@GBFKGNEO@?$AAA?$AAT?$AAL?$AA?3?$AA?$CF?$AAp@ 0000000180024078     Totals.obj
 0002:00002088       ??_C@_1BA@PICGEGJB@?$AAD?$AAI?$AAS?$AAP?$AAL?$AAA?$AAY@ 0000000180024088     Totals.obj
 0002:00002098       _GUID_9bfbbc02_eff1_101a_84ed_00aa00341d07 0000000180024098     Totals.obj
 0002:000020a8       ?_entries@?1??_GetEntries@?$CComEnum@UIEnumConnectionPoints@@$1?_GUID_b196b285_bab4_101a_b69c_00aa00341d07@@3U__s_GUID@@BPEAUIConnectionPoint@@V?$_CopyInterface@UIConnectionPoint@@@ATL@@VCComSingleThreadModel@6@@ATL@@SAPEBU_ATL_INTMAP_ENTRY@3@XZ@4QBU43@B 00000001800240a8     Totals.obj
 0002:000020d8       _GUID_00020412_0000_0000_c000_000000000046 00000001800240d8     Totals.obj
 0002:000020e8       _GUID_00020401_0000_0000_c000_000000000046 00000001800240e8     Totals.obj
 0002:000020f8       _GUID_b196b284_bab4_101a_b69c_00aa00341d07 00000001800240f8     Totals.obj
 0002:00002108       ??_7?$CComObject@V?$CComEnum@UIEnumConnections@@$1?_GUID_b196b287_bab4_101a_b69c_00aa00341d07@@3U__s_GUID@@BUtagCONNECTDATA@@V?$_Copy@UtagCONNECTDATA@@@ATL@@VCComSingleThreadModel@6@@ATL@@@ATL@@6B@ 0000000180024108     Totals.obj
 0002:00002148       _GUID_55980ba0_35aa_11cf_b671_00aa004cd6d8 0000000180024148     Totals.obj
 0002:00002158       _GUID_b196b28b_bab4_101a_b69c_00aa00341d07 0000000180024158     Totals.obj
 0002:00002168       ?_entries@?1??_GetEntries@?$CComEnum@UIEnumConnections@@$1?_GUID_b196b287_bab4_101a_b69c_00aa00341d07@@3U__s_GUID@@BUtagCONNECTDATA@@V?$_Copy@UtagCONNECTDATA@@@ATL@@VCComSingleThreadModel@6@@ATL@@SAPEBU_ATL_INTMAP_ENTRY@3@XZ@4QBU43@B 0000000180024168     Totals.obj
 0002:00002198       ??_7CComClassFactory@ATL@@6B@ 0000000180024198     Totals.obj
 0002:000021c8       ?_entries@?1??_GetEntries@CComClassFactory@ATL@@SAPEBU_ATL_INTMAP_ENTRY@3@XZ@4QBU43@B 00000001800241c8     Totals.obj
 0002:000021f8       _GUID_00000001_0000_0000_c000_000000000046 00000001800241f8     Totals.obj
 0002:00002208       ??_C@_0BG@EKFFMJIO@RegOpenKeyTransactedW@ 0000000180024208     Totals.obj
 0002:00002220       ??_C@_0BI@HAKLOOGP@RegDeleteKeyTransactedW@ 0000000180024220     Totals.obj
 0002:00002238       ??_C@_0BA@LILAPHGE@RegDeleteKeyExW@ 0000000180024238     Totals.obj
 0002:00002248       ??_C@_19ILOCMLCJ@?$AA?4?$AAt?$AAl?$AAb@ 0000000180024248     Totals.obj
 0002:00002258       _GUID_0002e012_0000_0000_c000_000000000046 0000000180024258     Totals.obj
 0002:00002268       ??_C@_1O@FHBGLCIO@?$AAC?$AAL?$AAS?$AAI?$AAD?$AA?2@ 0000000180024268     Totals.obj
 0002:00002278       ??_C@_1CK@IFBKBFAA@?$AA?2?$AAR?$AAe?$AAq?$AAu?$AAi?$AAr?$AAe?$AAd?$AA?5?$AAC?$AAa?$AAt?$AAe?$AAg@ 0000000180024278     Totals.obj
 0002:000022a8       ??_C@_1DA@BIHALFED@?$AA?2?$AAI?$AAm?$AAp?$AAl?$AAe?$AAm?$AAe?$AAn?$AAt?$AAe?$AAd?$AA?5?$AAC?$AAa@ 00000001800242a8     Totals.obj
 0002:000022d8       ??_C@_1BK@EDKOLFBJ@?$AAO?$AAL?$AAE?$AAA?$AAU?$AAT?$AA3?$AA2?$AA?4?$AAD?$AAL?$AAL@ 00000001800242d8     Totals.obj
 0002:000022f8       ??_C@_0BJ@CNLFOMHB@UnRegisterTypeLibForUser@ 00000001800242f8     Totals.obj
 0002:00002318       ??_C@_0BH@LBOMMKPJ@RegisterTypeLibForUser@ 0000000180024318     Totals.obj
 0002:00002330       ??_C@_0P@MMNMMLGK@COFreezeEvents@ 0000000180024330     TotalsImpl.obj
 0002:00002340       ??_C@_0BC@OGCGGIMP@GetPropertyNumber@ 0000000180024340     TotalsImpl.obj
 0002:00002358       ??_C@_0BC@MDCNODNB@SetPropertyNumber@ 0000000180024358     TotalsImpl.obj
 0002:00002370       ??_C@_0BC@CFCCMIMD@GetPropertyString@ 0000000180024370     TotalsImpl.obj
 0002:00002388       ??_C@_0BC@CJEDNN@SetPropertyString@ 0000000180024388     TotalsImpl.obj
 0002:000023a0       ??_C@_0M@LNPKKKDA@OpenService@ 00000001800243a0     TotalsImpl.obj
 0002:000023b0       ??_C@_0M@PCMCHHMH@CheckHealth@ 00000001800243b0     TotalsImpl.obj
 0002:000023c0       ??_C@_0M@JGMIDNEK@ClaimDevice@ 00000001800243c0     TotalsImpl.obj
 0002:000023d0       ??_C@_0N@DDFIIBMP@CloseService@ 00000001800243d0     TotalsImpl.obj
 0002:000023e0       ??_C@_08EEIHICPC@DirectIO@ 00000001800243e0     TotalsImpl.obj
 0002:000023f0       ??_C@_0O@BCPMENMJ@ReleaseDevice@ 00000001800243f0     TotalsImpl.obj
 0002:00002400       ??_C@_0L@NAHBOEHL@BeginTrans@ 0000000180024400     TotalsImpl.obj
 0002:00002410       ??_C@_09KNHAFEML@ClaimFile@ 0000000180024410     TotalsImpl.obj
 0002:00002420       ??_C@_0M@IPIBDNMC@CommitTrans@ 0000000180024420     TotalsImpl.obj
 0002:0000242c       ??_C@_06MIKANEJK@Create@   000000018002442c     TotalsImpl.obj
 0002:00002434       ??_C@_06JBKGCNBB@Delete@   0000000180024434     TotalsImpl.obj
 0002:0000243c       ??_C@_04OLJIFFAL@Find@     000000018002443c     TotalsImpl.obj
 0002:00002448       ??_C@_0M@LPOPDPNH@FindByIndex@ 0000000180024448     TotalsImpl.obj
 0002:00002454       ??_C@_04DPHCJMMM@Read@     0000000180024454     TotalsImpl.obj
 0002:00002460       ??_C@_0BK@IAKPCNCB@RecalculateValidationData@ 0000000180024460     TotalsImpl.obj
 0002:00002480       ??_C@_0M@PJOEKLNA@ReleaseFile@ 0000000180024480     TotalsImpl.obj
 0002:0000248c       ??_C@_06HDPNNICN@Rename@   000000018002448c     TotalsImpl.obj
 0002:00002498       ??_C@_08NDEJKKFI@Rollback@ 0000000180024498     TotalsImpl.obj
 0002:000024a4       ??_C@_06IPOICCPK@SetAll@   00000001800244a4     TotalsImpl.obj
 0002:000024b0       ??_C@_0N@MBAILECK@ValidateData@ 00000001800244b0     TotalsImpl.obj
 0002:000024c0       ??_C@_05NBPIDCFL@Write@    00000001800244c0     TotalsImpl.obj
 0002:000024c8       ??_C@_0BA@GFABKEEE@ResetStatistics@ 00000001800244c8     TotalsImpl.obj
 0002:000024d8       ??_C@_0BD@DPALHJGC@RetrieveStatistics@ 00000001800244d8     TotalsImpl.obj
 0002:000024f0       ??_C@_0BB@KOHIKNFC@UpdateStatistics@ 00000001800244f0     TotalsImpl.obj
 0002:00002508       ??_C@_0BH@PBKBNMGB@CompareFirmwareVersion@ 0000000180024508     TotalsImpl.obj
 0002:00002520       ??_C@_0P@FBPDPIPA@UpdateFirmware@ 0000000180024520     TotalsImpl.obj
 0002:00002530       ??_7?$CProxy_IOPOSEvents@VCOPOSTotals@@@@6B@ 0000000180024530     TotalsImpl.obj
 0002:00002570       ??_C@_1BA@IFHENID@?$AA?$FL?$AAE?$AAr?$AAr?$AAo?$AAr?$AA?$FN@ 0000000180024570     TotalsImpl.obj
 0002:00002580       ??_C@_0CN@CIBFDFMD@SOFTWARE?2OLEforRetail?2ServiceOP@ 0000000180024580     TotalsImpl.obj
 0002:000025b0       ??_C@_1M@IAIJHCCH@?$AAC?$AAl?$AAo?$AAs?$AAe@ 00000001800245b0     TotalsImpl.obj
 0002:000025c0       ??_C@_1M@PCPKGJAH@?$AAC?$AAl?$AAa?$AAi?$AAm@ 00000001800245c0     TotalsImpl.obj
 0002:000025d0       ??_C@_1BA@NDFKIOCP@?$AAR?$AAe?$AAl?$AAe?$AAa?$AAs?$AAe@ 00000001800245d0     TotalsImpl.obj
 0002:000025e0       ??_C@_0L@KIANCCNG@HardTotals@ 00000001800245e0     TotalsImpl.obj
 0002:000025f0       ??_C@_1BM@IJMNMBPK@?$AAG?$AAe?$AAt?$AAO?$AAp?$AAe?$AAn?$AAR?$AAe?$AAs?$AAu?$AAl?$AAt@ 00000001800245f0     TotalsImpl.obj
 0002:00002610       IID_IDispatch              0000000180024610     uuid:oaidl_i.obj
 0002:00002620       IID_IPropertyNotifySink    0000000180024620     uuid:ocidl_i.obj
 0002:00002630       GUID_NULL                  0000000180024630     uuid:cguid_i.obj
 0002:00002640       CLSID_StdGlobalInterfaceTable 0000000180024640     uuid:cguid_i.obj
 0002:00002650       CLSID_StdComponentCategoriesMgr 0000000180024650     uuid:ieguids.obj
 0002:00002660       IID_IUnknown               0000000180024660     uuid:unknwn_i.obj
 0002:00002670       __xmm@ffffffffffffffffffffffffffffffff 0000000180024670     LIBCMT:utility.obj
 0002:00002680       ??_C@_1EC@JIJBPKFM@?$AAa?$AAp?$AAi?$AA?9?$AAm?$AAs?$AA?9?$AAw?$AAi?$AAn?$AA?9?$AAc?$AAo?$AAr?$AAe@ 0000000180024680     LIBCMT:thread_safe_statics.obj
 0002:000026c8       ??_C@_1BK@MGMFAEKH@?$AAk?$AAe?$AAr?$AAn?$AAe?$AAl?$AA3?$AA2?$AA?4?$AAd?$AAl?$AAl@ 00000001800246c8     LIBCMT:thread_safe_statics.obj
 0002:000026e8       ??_C@_0BJ@JEBJOJFJ@SleepConditionVariableCS@ 00000001800246e8     LIBCMT:thread_safe_statics.obj
 0002:00002708       ??_C@_0BJ@PGPPEPCC@WakeAllConditionVariable@ 0000000180024708     LIBCMT:thread_safe_statics.obj
 0002:00002721       ?nothrow@std@@3Unothrow_t@1@B 0000000180024721     LIBCMT:std_nothrow.obj
 0002:00002760       _pDefaultRawDllMain        0000000180024760     LIBCMT:dll_dllmain.obj
 0002:00002760       _pRawDllMain               0000000180024760     LIBCMT:dll_dllmain.obj
 0002:00002770       ??_7exception@std@@6B@     0000000180024770     LIBCMT:throw_bad_alloc.obj
 0002:00002780       ??_C@_0BC@EOODALEL@Unknown?5exception@ 0000000180024780     LIBCMT:throw_bad_alloc.obj
 0002:000027a0       ??_7bad_alloc@std@@6B@     00000001800247a0     LIBCMT:throw_bad_alloc.obj
 0002:000027b0       ??_C@_0P@GHFPNOJB@bad?5allocation@ 00000001800247b0     LIBCMT:throw_bad_alloc.obj
 0002:000027c8       ??_7bad_array_new_length@std@@6B@ 00000001800247c8     LIBCMT:throw_bad_alloc.obj
 0002:000027d8       ??_C@_0BF@KINCDENJ@bad?5array?5new?5length@ 00000001800247d8     LIBCMT:throw_bad_alloc.obj
 0002:000027f8       ??_7type_info@@6B@         00000001800247f8     LIBCMT:std_type_info_static.obj
 0002:00002800       GUID_ATLVer110             0000000180024800     atls:atlbase.obj
 0002:00002810       ??_C@_1IC@ONKHOIDK@?$AAE?$AAR?$AAR?$AAO?$AAR?$AA?5?$AA?3?$AA?5?$AAU?$AAn?$AAa?$AAb?$AAl?$AAe?$AA?5@ 0000000180024810     atls:atlbase.obj
 0002:00002898       ??_C@_0N@FJEPLCIH@atlthunk?4dll@ 0000000180024898     atls:atlthunk.obj
 0002:000028a8       ??_C@_0BG@GAKFHCBM@AtlThunk_AllocateData@ 00000001800248a8     atls:atlthunk.obj
 0002:000028c0       ??_C@_0BC@JKONFIAH@AtlThunk_InitData@ 00000001800248c0     atls:atlthunk.obj
 0002:000028d8       ??_C@_0BE@IAOEELAK@AtlThunk_DataToCode@ 00000001800248d8     atls:atlthunk.obj
 0002:000028f0       ??_C@_0BC@GBGKAIPI@AtlThunk_FreeData@ 00000001800248f0     atls:atlthunk.obj
 0002:000029a8       _pDestructExceptionObject  00000001800249a8     libvcruntime:ehhelpers.obj
 0002:000029b8       ??_7bad_exception@std@@6B@ 00000001800249b8     libvcruntime:frame.obj
 0002:000029c8       ??_C@_0O@DPKOEFFH@bad?5exception@ 00000001800249c8     libvcruntime:frame.obj
 0002:000030e0       ??_C@_08EHJDFFNH@__based?$CI@ 00000001800250e0     libvcruntime:undname.obj
 0002:000030f0       ??_C@_07KOLFKCDI@__cdecl@  00000001800250f0     libvcruntime:undname.obj
 0002:000030f8       ??_C@_08GHMPAG@__pascal@   00000001800250f8     libvcruntime:undname.obj
 0002:00003108       ??_C@_09IFJBGAPI@__stdcall@ 0000000180025108     libvcruntime:undname.obj
 0002:00003118       ??_C@_0L@NPHFGOKO@__thiscall@ 0000000180025118     libvcruntime:undname.obj
 0002:00003128       ??_C@_0L@JMKHOMEK@__fastcall@ 0000000180025128     libvcruntime:undname.obj
 0002:00003138       ??_C@_0N@BCKKPABJ@__vectorcall@ 0000000180025138     libvcruntime:undname.obj
 0002:00003148       ??_C@_09HIJEGCPM@__clrcall@ 0000000180025148     libvcruntime:undname.obj
 0002:00003154       ??_C@_06GHPCKEAG@__eabi@   0000000180025154     libvcruntime:undname.obj
 0002:00003160       ??_C@_09IOPIDJLG@__swift_1@ 0000000180025160     libvcruntime:undname.obj
 0002:00003170       ??_C@_09KFNFGKHF@__swift_2@ 0000000180025170     libvcruntime:undname.obj
 0002:00003180       ??_C@_07JOMMBBKO@__ptr64@  0000000180025180     libvcruntime:undname.obj
 0002:00003188       ??_C@_0L@PILCLIHE@__restrict@ 0000000180025188     libvcruntime:undname.obj
 0002:00003198       ??_C@_0M@GFIIJFMG@__unaligned@ 0000000180025198     libvcruntime:undname.obj
 0002:000031a8       ??_C@_09DHDLOLLB@restrict?$CI@ 00000001800251a8     libvcruntime:undname.obj
 0002:000031b2       ??_C@_00CNPNBAHC@@         00000001800251b2     libvcruntime:undname.obj
 0002:000031b4       ??_C@_04NIHEBCM@?5new@     00000001800251b4     libvcruntime:undname.obj
 0002:000031c0       ??_C@_07FPCDHGMM@?5delete@ 00000001800251c0     libvcruntime:undname.obj
 0002:000031c8       ??_C@_01NEMOKFLO@?$DN@     00000001800251c8     libvcruntime:undname.obj
 0002:000031cc       ??_C@_02GPIOPFAK@?$DO?$DO@ 00000001800251cc     libvcruntime:undname.obj
 0002:000031d0       ??_C@_02FODMEDOG@?$DM?$DM@ 00000001800251d0     libvcruntime:undname.obj
 0002:000031d4       ??_C@_01DCLJPIOD@?$CB@     00000001800251d4     libvcruntime:undname.obj
 0002:000031d8       ??_C@_02EGOFBIJA@?$DN?$DN@ 00000001800251d8     libvcruntime:undname.obj
 0002:000031dc       ??_C@_02FDNJECIE@?$CB?$DN@ 00000001800251dc     libvcruntime:undname.obj
 0002:000031e0       ??_C@_02GPECMEKF@?$FL?$FN@ 00000001800251e0     libvcruntime:undname.obj
 0002:000031e8       ??_C@_08LHJFAFGD@operator@ 00000001800251e8     libvcruntime:undname.obj
 0002:000031f4       ??_C@_02HBOOOICD@?9?$DO@   00000001800251f4     libvcruntime:undname.obj
 0002:000031f8       ??_C@_01NBENCBCI@?$CK@     00000001800251f8     libvcruntime:undname.obj
 0002:000031fc       ??_C@_02ECNGHCIF@?$CL?$CL@ 00000001800251fc     libvcruntime:undname.obj
 0002:00003200       ??_C@_02BAABKJLB@?9?9@     0000000180025200     libvcruntime:undname.obj
 0002:00003204       ??_C@_01JOAMLHOP@?9@       0000000180025204     libvcruntime:undname.obj
 0002:00003208       ??_C@_01MIFGBAGJ@?$CL@     0000000180025208     libvcruntime:undname.obj
 0002:0000320c       ??_C@_01HNPIGOCE@?$CG@     000000018002520c     libvcruntime:undname.obj
 0002:00003210       ??_C@_03MNHNFDLC@?9?$DO?$CK@ 0000000180025210     libvcruntime:undname.obj
 0002:00003214       ??_C@_01KMDKNFGN@?1@       0000000180025214     libvcruntime:undname.obj
 0002:00003218       ??_C@_01FGNFDNOH@?$CF@     0000000180025218     libvcruntime:undname.obj
 0002:0000321c       ??_C@_01MNNFJEPP@?$DM@     000000018002521c     libvcruntime:undname.obj
 0002:00003220       ??_C@_02EHCHHCKH@?$DM?$DN@ 0000000180025220     libvcruntime:undname.obj
 0002:00003224       ??_C@_01PPODPGHN@?$DO@     0000000180025224     libvcruntime:undname.obj
 0002:00003228       ??_C@_02EEKDKGMJ@?$DO?$DN@ 0000000180025228     libvcruntime:undname.obj
 0002:0000322c       ??_C@_01IHBHIGKO@?0@       000000018002522c     libvcruntime:undname.obj
 0002:00003230       ??_C@_02HCKGKOFO@?$CI?$CJ@ 0000000180025230     libvcruntime:undname.obj
 0002:00003234       ??_C@_01PJKLJHI@?$HO@      0000000180025234     libvcruntime:undname.obj
 0002:00003238       ??_C@_01JKBOJNNK@?$FO@     0000000180025238     libvcruntime:undname.obj
 0002:0000323c       ??_C@_01DNKMNLPK@?$HM@     000000018002523c     libvcruntime:undname.obj
 0002:00003240       ??_C@_02PPKAJPJL@?$CG?$CG@ 0000000180025240     libvcruntime:undname.obj
 0002:00003244       ??_C@_02NONPIBCD@?$HM?$HM@ 0000000180025244     libvcruntime:undname.obj
 0002:00003248       ??_C@_02FPIMKNGF@?$CK?$DN@ 0000000180025248     libvcruntime:undname.obj
 0002:0000324c       ??_C@_02FOEOMHFC@?$CL?$DN@ 000000018002524c     libvcruntime:undname.obj
 0002:00003250       ??_C@_02FKMDLLOA@?9?$DN@   0000000180025250     libvcruntime:undname.obj
 0002:00003254       ??_C@_02FJEHGPIO@?1?$DN@   0000000180025254     libvcruntime:undname.obj
 0002:00003258       ??_C@_02FENAOKFI@?$CF?$DN@ 0000000180025258     libvcruntime:undname.obj
 0002:0000325c       ??_C@_03IKFCCPFF@?$DO?$DO?$DN@ 000000018002525c     libvcruntime:undname.obj
 0002:00003260       ??_C@_03CDNPDDLA@?$DM?$DM?$DN@ 0000000180025260     libvcruntime:undname.obj
 0002:00003264       ??_C@_02FGJGFEAB@?$CG?$DN@ 0000000180025264     libvcruntime:undname.obj
 0002:00003268       ??_C@_02DHLNPPGH@?$HM?$DN@ 0000000180025268     libvcruntime:undname.obj
 0002:0000326c       ??_C@_02MHEGNOJ@?$FO?$DN@  000000018002526c     libvcruntime:undname.obj
 0002:00003270       ??_C@_09IFPLHPGF@?$GAvftable?8@ 0000000180025270     libvcruntime:undname.obj
 0002:00003280       ??_C@_09BLBHBJP@?$GAvbtable?8@ 0000000180025280     libvcruntime:undname.obj
 0002:00003290       ??_C@_07FEEIOKP@?$GAvcall?8@ 0000000180025290     libvcruntime:undname.obj
 0002:00003298       ??_C@_08LLFFHHDJ@?$GAtypeof?8@ 0000000180025298     libvcruntime:undname.obj
 0002:000032a8       ??_C@_0BF@KDPPACIK@?$GAlocal?5static?5guard?8@ 00000001800252a8     libvcruntime:undname.obj
 0002:000032c0       ??_C@_08OBABFOLI@?$GAstring?8@ 00000001800252c0     libvcruntime:undname.obj
 0002:000032d0       ??_C@_0BD@JDLKDPAB@?$GAvbase?5destructor?8@ 00000001800252d0     libvcruntime:undname.obj
 0002:000032e8       ??_C@_0BN@DEGPLNFK@?$GAvector?5deleting?5destructor?8@ 00000001800252e8     libvcruntime:undname.obj
 0002:00003308       ??_C@_0BO@OBMKPJIG@?$GAdefault?5constructor?5closure?8@ 0000000180025308     libvcruntime:undname.obj
 0002:00003328       ??_C@_0BN@IMDCHIKM@?$GAscalar?5deleting?5destructor?8@ 0000000180025328     libvcruntime:undname.obj
 0002:00003348       ??_C@_0BO@PFGOCPJJ@?$GAvector?5constructor?5iterator?8@ 0000000180025348     libvcruntime:undname.obj
 0002:00003368       ??_C@_0BN@LFPFMEDL@?$GAvector?5destructor?5iterator?8@ 0000000180025368     libvcruntime:undname.obj
 0002:00003388       ??_C@_0CE@IKBNEHA@?$GAvector?5vbase?5constructor?5itera@ 0000000180025388     libvcruntime:undname.obj
 0002:000033b0       ??_C@_0BL@NILFHHPC@?$GAvirtual?5displacement?5map?8@ 00000001800253b0     libvcruntime:undname.obj
 0002:000033d0       ??_C@_0CB@JONCMFFK@?$GAeh?5vector?5constructor?5iterator@ 00000001800253d0     libvcruntime:undname.obj
 0002:000033f8       ??_C@_0CA@GCEOPDGL@?$GAeh?5vector?5destructor?5iterator?8@ 00000001800253f8     libvcruntime:undname.obj
 0002:00003418       ??_C@_0CH@OOJPLCPH@?$GAeh?5vector?5vbase?5constructor?5it@ 0000000180025418     libvcruntime:undname.obj
 0002:00003440       ??_C@_0BL@LLKPOHJI@?$GAcopy?5constructor?5closure?8@ 0000000180025440     libvcruntime:undname.obj
 0002:00003460       ??_C@_0BA@KBCDOMBN@?$GAudt?5returning?8@ 0000000180025460     libvcruntime:undname.obj
 0002:00003470       ??_C@_03KLGMFNMG@?$GAEH@   0000000180025470     libvcruntime:undname.obj
 0002:00003474       ??_C@_05KHLCHHI@?$GARTTI@  0000000180025474     libvcruntime:undname.obj
 0002:00003480       ??_C@_0BA@KKLDJDLB@?$GAlocal?5vftable?8@ 0000000180025480     libvcruntime:undname.obj
 0002:00003490       ??_C@_0CE@IIHCMGGL@?$GAlocal?5vftable?5constructor?5clos@ 0000000180025490     libvcruntime:undname.obj
 0002:000034b4       ??_C@_06FHBGPFGH@?5new?$FL?$FN@ 00000001800254b4     libvcruntime:undname.obj
 0002:000034c0       ??_C@_09LBNFPBCA@?5delete?$FL?$FN@ 00000001800254c0     libvcruntime:undname.obj
 0002:000034d0       ??_C@_0P@HJKNJFNN@?$GAomni?5callsig?8@ 00000001800254d0     libvcruntime:undname.obj
 0002:000034e0       ??_C@_0BL@CNOONJFP@?$GAplacement?5delete?5closure?8@ 00000001800254e0     libvcruntime:undname.obj
 0002:00003500       ??_C@_0BN@CKNJLHMB@?$GAplacement?5delete?$FL?$FN?5closure?8@ 0000000180025500     libvcruntime:undname.obj
 0002:00003520       ??_C@_0CG@CFDHKGGD@?$GAmanaged?5vector?5constructor?5ite@ 0000000180025520     libvcruntime:undname.obj
 0002:00003548       ??_C@_0CF@IMGKMJNO@?$GAmanaged?5vector?5destructor?5iter@ 0000000180025548     libvcruntime:undname.obj
 0002:00003570       ??_C@_0CG@HLDDJMAG@?$GAeh?5vector?5copy?5constructor?5ite@ 0000000180025570     libvcruntime:undname.obj
 0002:00003598       ??_C@_0CM@FCBBDIGB@?$GAeh?5vector?5vbase?5copy?5construct@ 0000000180025598     libvcruntime:undname.obj
 0002:000035c8       ??_C@_0BL@CLIPGLGB@?$GAdynamic?5initializer?5for?5?8@ 00000001800255c8     libvcruntime:undname.obj
 0002:000035e8       ??_C@_0CB@PDBIFEP@?$GAdynamic?5atexit?5destructor?5for?5@ 00000001800255e8     libvcruntime:undname.obj
 0002:00003610       ??_C@_0CD@CGAJBKEJ@?$GAvector?5copy?5constructor?5iterat@ 0000000180025610     libvcruntime:undname.obj
 0002:00003638       ??_C@_0CJ@GJELGAMM@?$GAvector?5vbase?5copy?5constructor?5@ 0000000180025638     libvcruntime:undname.obj
 0002:00003668       ??_C@_0CL@FGIJHLCE@?$GAmanaged?5vector?5copy?5constructo@ 0000000180025668     libvcruntime:undname.obj
 0002:00003698       ??_C@_0BM@PMGGMLDN@?$GAlocal?5static?5thread?5guard?8@ 0000000180025698     libvcruntime:undname.obj
 0002:000036b8       ??_C@_0N@BDNMDMOL@operator?5?$CC?$CC?5@ 00000001800256b8     libvcruntime:undname.obj
 0002:000036c8       ??_C@_0BC@GGEBGALA@operator?5co_await@ 00000001800256c8     libvcruntime:undname.obj
 0002:000036e0       ??_C@_0M@GAAIMMOH@operator?$DM?$DN?$DO@ 00000001800256e0     libvcruntime:undname.obj
 0002:000036f0       ??_C@_0BC@DAFEJGAK@?5Type?5Descriptor?8@ 00000001800256f0     libvcruntime:undname.obj
 0002:00003708       ??_C@_0BM@LDKODKLH@?5Base?5Class?5Descriptor?5at?5?$CI@ 0000000180025708     libvcruntime:undname.obj
 0002:00003728       ??_C@_0BD@LGICGFMM@?5Base?5Class?5Array?8@ 0000000180025728     libvcruntime:undname.obj
 0002:00003740       ??_C@_0BN@MECKDCOJ@?5Class?5Hierarchy?5Descriptor?8@ 0000000180025740     libvcruntime:undname.obj
 0002:00003760       ??_C@_0BK@CFCOFLF@?5Complete?5Object?5Locator?8@ 0000000180025760     libvcruntime:undname.obj
 0002:00003780       ??_C@_0BG@JNJLAMPM@?$GAanonymous?5namespace?8@ 0000000180025780     libvcruntime:undname.obj
 0002:000037b0       ??_C@_1DM@KHCHBNEB@?$AAa?$AAp?$AAi?$AA?9?$AAm?$AAs?$AA?9?$AAw?$AAi?$AAn?$AA?9?$AAc?$AAo?$AAr?$AAe@ 00000001800257b0     libvcruntime:winapi_downlevel.obj
 0002:000037f0       ??_C@_1DK@LPPGFMPP@?$AAa?$AAp?$AAi?$AA?9?$AAm?$AAs?$AA?9?$AAw?$AAi?$AAn?$AA?9?$AAc?$AAo?$AAr?$AAe@ 00000001800257f0     libvcruntime:winapi_downlevel.obj
 0002:00003830       ??_C@_1BC@GDMECMAK@?$AAk?$AAe?$AAr?$AAn?$AAe?$AAl?$AA3?$AA2@ 0000000180025830     libvcruntime:winapi_downlevel.obj
 0002:00003848       ??_C@_1BA@PFFKHIOG@?$AAa?$AAp?$AAi?$AA?9?$AAm?$AAs?$AA?9@ 0000000180025848     libvcruntime:winapi_downlevel.obj
 0002:00003860       ??_C@_08KNHFBNJ@FlsAlloc@  0000000180025860     libvcruntime:winapi_downlevel.obj
 0002:00003878       ??_C@_07PEJMOBNF@FlsFree@  0000000180025878     libvcruntime:winapi_downlevel.obj
 0002:00003888       ??_C@_0M@GDNOONDI@FlsGetValue@ 0000000180025888     libvcruntime:winapi_downlevel.obj
 0002:000038a0       ??_C@_0M@JCPCPOEF@FlsSetValue@ 00000001800258a0     libvcruntime:winapi_downlevel.obj
 0002:000038b8       ??_C@_0BM@HCFOFFN@InitializeCriticalSectionEx@ 00000001800258b8     libvcruntime:winapi_downlevel.obj
 0002:00003a50       format_validation_lookup_table 0000000180025a50     libucrt:output.obj
 0002:00003ab0       ??_C@_1O@CEDCILHN@?$AA?$CI?$AAn?$AAu?$AAl?$AAl?$AA?$CJ@ 0000000180025ab0     libucrt:output.obj
 0002:00003ac0       ??_C@_06OJHGLDPL@?$CInull?$CJ@ 0000000180025ac0     libucrt:output.obj
 0002:00003ad0       __acrt_exception_action_table 0000000180025ad0     libucrt:exception_filter.obj
 0002:00003b90       __acrt_signal_action_table_count 0000000180025b90     libucrt:exception_filter.obj
 0002:00003b98       __acrt_signal_action_first_fpe_index 0000000180025b98     libucrt:exception_filter.obj
 0002:00003ba0       __acrt_signal_action_fpe_count 0000000180025ba0     libucrt:exception_filter.obj
 0002:00003ba8       ??_C@_1BI@BGOHAHKC@?$AAm?$AAs?$AAc?$AAo?$AAr?$AAe?$AAe?$AA?4?$AAd?$AAl?$AAl@ 0000000180025ba8     libucrt:exit.obj
 0002:00003bc0       ??_C@_0P@MIGLKIOC@CorExitProcess@ 0000000180025bc0     libucrt:exit.obj
 0002:00003d70       ??_C@_1EA@JGEFHKEI@?$AAa?$AAp?$AAi?$AA?9?$AAm?$AAs?$AA?9?$AAw?$AAi?$AAn?$AA?9?$AAc?$AAo?$AAr?$AAe@ 0000000180025d70     libucrt:winapi_thunks.obj
 0002:00003db0       ??_C@_1DI@IJCEHOCB@?$AAa?$AAp?$AAi?$AA?9?$AAm?$AAs?$AA?9?$AAw?$AAi?$AAn?$AA?9?$AAc?$AAo?$AAr?$AAe@ 0000000180025db0     libucrt:winapi_thunks.obj
 0002:00003df0       ??_C@_1EI@MPIAOHOC@?$AAa?$AAp?$AAi?$AA?9?$AAm?$AAs?$AA?9?$AAw?$AAi?$AAn?$AA?9?$AAc?$AAo?$AAr?$AAe@ 0000000180025df0     libucrt:winapi_thunks.obj
 0002:00003e40       ??_C@_1FK@FPHCKFIE@?$AAa?$AAp?$AAi?$AA?9?$AAm?$AAs?$AA?9?$AAw?$AAi?$AAn?$AA?9?$AAc?$AAo?$AAr?$AAe@ 0000000180025e40     libucrt:winapi_thunks.obj
 0002:00003ea0       ??_C@_1EM@DILCGIIO@?$AAa?$AAp?$AAi?$AA?9?$AAm?$AAs?$AA?9?$AAw?$AAi?$AAn?$AA?9?$AAc?$AAo?$AAr?$AAe@ 0000000180025ea0     libucrt:winapi_thunks.obj
 0002:00003ef0       ??_C@_1DM@LNCGDDPN@?$AAa?$AAp?$AAi?$AA?9?$AAm?$AAs?$AA?9?$AAw?$AAi?$AAn?$AA?9?$AAc?$AAo?$AAr?$AAe@ 0000000180025ef0     libucrt:winapi_thunks.obj
 0002:00003f30       ??_C@_1DO@FPAPJEMD@?$AAa?$AAp?$AAi?$AA?9?$AAm?$AAs?$AA?9?$AAw?$AAi?$AAn?$AA?9?$AAc?$AAo?$AAr?$AAe@ 0000000180025f30     libucrt:winapi_thunks.obj
 0002:00003f70       ??_C@_1DK@NDHNAHIO@?$AAa?$AAp?$AAi?$AA?9?$AAm?$AAs?$AA?9?$AAw?$AAi?$AAn?$AA?9?$AAc?$AAo?$AAr?$AAe@ 0000000180025f70     libucrt:winapi_thunks.obj
 0002:00003fb0       ??_C@_1DM@KGHDGBCM@?$AAa?$AAp?$AAi?$AA?9?$AAm?$AAs?$AA?9?$AAw?$AAi?$AAn?$AA?9?$AAc?$AAo?$AAr?$AAe@ 0000000180025fb0     libucrt:winapi_thunks.obj
 0002:00003ff0       ??_C@_1EO@IJIOEFOH@?$AAa?$AAp?$AAi?$AA?9?$AAm?$AAs?$AA?9?$AAw?$AAi?$AAn?$AA?9?$AAr?$AAt?$AAc?$AAo@ 0000000180025ff0     libucrt:winapi_thunks.obj
 0002:00004040       ??_C@_1FG@HHGEKANL@?$AAa?$AAp?$AAi?$AA?9?$AAm?$AAs?$AA?9?$AAw?$AAi?$AAn?$AA?9?$AAs?$AAe?$AAc?$AAu@ 0000000180026040     libucrt:winapi_thunks.obj
 0002:000040a0       ??_C@_1EG@DBIOJECG@?$AAe?$AAx?$AAt?$AA?9?$AAm?$AAs?$AA?9?$AAw?$AAi?$AAn?$AA?9?$AAn?$AAt?$AAu?$AAs@ 00000001800260a0     libucrt:winapi_thunks.obj
 0002:000040f0       ??_C@_1EO@FIHMJCLF@?$AAe?$AAx?$AAt?$AA?9?$AAm?$AAs?$AA?9?$AAw?$AAi?$AAn?$AA?9?$AAn?$AAt?$AAu?$AAs@ 00000001800260f0     libucrt:winapi_thunks.obj
 0002:00004140       ??_C@_1BC@DNHGCMLG@?$AAa?$AAd?$AAv?$AAa?$AAp?$AAi?$AA3?$AA2@ 0000000180026140     libucrt:winapi_thunks.obj
 0002:00004158       ??_C@_1M@OAIMIKLP@?$AAn?$AAt?$AAd?$AAl?$AAl@ 0000000180026158     libucrt:winapi_thunks.obj
 0002:00004170       ??_C@_1EG@DPGNFKGC@?$AAa?$AAp?$AAi?$AA?9?$AAm?$AAs?$AA?9?$AAw?$AAi?$AAn?$AA?9?$AAa?$AAp?$AAp?$AAm@ 0000000180026170     libucrt:winapi_thunks.obj
 0002:000041b8       ??_C@_1O@BCCLBEOE@?$AAu?$AAs?$AAe?$AAr?$AA3?$AA2@ 00000001800261b8     libucrt:winapi_thunks.obj
 0002:000041c8       ??_C@_1BA@IAIFMGEF@?$AAe?$AAx?$AAt?$AA?9?$AAm?$AAs?$AA?9@ 00000001800261c8     libucrt:winapi_thunks.obj
 0002:000041e0       ??_C@_0BA@FHFNEAED@AreFileApisANSI@ 00000001800261e0     libucrt:winapi_thunks.obj
 0002:00004220       ??_C@_0O@KKBNKAPF@LCMapStringEx@ 0000000180026220     libucrt:winapi_thunks.obj
 0002:00004238       ??_C@_0BB@HBDEELFH@LocaleNameToLCID@ 0000000180026238     libucrt:winapi_thunks.obj
 0002:00004250       ??_C@_0CF@OJOFEIGO@AppPolicyGetProcessTerminationM@ 0000000180026250     libucrt:winapi_thunks.obj
 0002:00004280       ??_C@_0BI@BKLFFAPO@SetThreadStackGuarantee@ 0000000180026280     libucrt:winapi_thunks.obj
 0002:00004320       ??_C@_03OEIAHPBN@INF@      0000000180026320     libucrt:cvt.obj
 0002:00004324       ??_C@_03OJHLLCGB@inf@      0000000180026324     libucrt:cvt.obj
 0002:00004328       ??_C@_03LKNCIKJB@NAN@      0000000180026328     libucrt:cvt.obj
 0002:0000432c       ??_C@_03LHCJEHON@nan@      000000018002632c     libucrt:cvt.obj
 0002:00004330       ??_C@_09OFJJIMPC@NAN?$CISNAN?$CJ@ 0000000180026330     libucrt:cvt.obj
 0002:00004340       ??_C@_09IPFBKMDL@nan?$CIsnan?$CJ@ 0000000180026340     libucrt:cvt.obj
 0002:00004350       ??_C@_08IKHNHAJ@NAN?$CIIND?$CJ@ 0000000180026350     libucrt:cvt.obj
 0002:00004360       ??_C@_08OFCDMILK@nan?$CIind?$CJ@ 0000000180026360     libucrt:cvt.obj
 0002:0000436c       ??_C@_05KLBDPFGC@e?$CL000@ 000000018002636c     libucrt:cvt.obj
 0002:00004380       __lc_time_c                0000000180026380     libucrt:nlsdata.obj
 0002:00004640       ??_C@_03KOEHGMDN@Sun@      0000000180026640     libucrt:nlsdata.obj
 0002:00004644       ??_C@_03PDAGKDH@Mon@       0000000180026644     libucrt:nlsdata.obj
 0002:00004648       ??_C@_03NAGEINEP@Tue@      0000000180026648     libucrt:nlsdata.obj
 0002:0000464c       ??_C@_03MHOMLAJA@Wed@      000000018002664c     libucrt:nlsdata.obj
 0002:00004650       ??_C@_03IOFIKPDN@Thu@      0000000180026650     libucrt:nlsdata.obj
 0002:00004654       ??_C@_03IDIOELNC@Fri@      0000000180026654     libucrt:nlsdata.obj
 0002:00004658       ??_C@_03FEFJNEK@Sat@       0000000180026658     libucrt:nlsdata.obj
 0002:0000465c       ??_C@_06OOPIFAJ@Sunday@    000000018002665c     libucrt:nlsdata.obj
 0002:00004664       ??_C@_06JLEDEDGH@Monday@   0000000180026664     libucrt:nlsdata.obj
 0002:00004670       ??_C@_07BAAGCFCM@Tuesday@  0000000180026670     libucrt:nlsdata.obj
 0002:00004678       ??_C@_09DLIGFAKA@Wednesday@ 0000000180026678     libucrt:nlsdata.obj
 0002:00004688       ??_C@_08HACCIKIA@Thursday@ 0000000180026688     libucrt:nlsdata.obj
 0002:00004694       ??_C@_06JECMNKMI@Friday@   0000000180026694     libucrt:nlsdata.obj
 0002:000046a0       ??_C@_08INBOOONO@Saturday@ 00000001800266a0     libucrt:nlsdata.obj
 0002:000046ac       ??_C@_03JIHJHPIE@Jan@      00000001800266ac     libucrt:nlsdata.obj
 0002:000046b0       ??_C@_03HJBDCHOM@Feb@      00000001800266b0     libucrt:nlsdata.obj
 0002:000046b4       ??_C@_03ODNJBKGA@Mar@      00000001800266b4     libucrt:nlsdata.obj
 0002:000046b8       ??_C@_03LEOLGMJP@Apr@      00000001800266b8     libucrt:nlsdata.obj
 0002:000046bc       ??_C@_03CNMDKL@May@        00000001800266bc     libucrt:nlsdata.obj
 0002:000046c0       ??_C@_03IDFGHECI@Jun@      00000001800266c0     libucrt:nlsdata.obj
 0002:000046c4       ??_C@_03LBGABGKK@Jul@      00000001800266c4     libucrt:nlsdata.obj
 0002:000046c8       ??_C@_03IFJFEIGA@Aug@      00000001800266c8     libucrt:nlsdata.obj
 0002:000046cc       ??_C@_03GGCAPAJC@Sep@      00000001800266cc     libucrt:nlsdata.obj
 0002:000046d0       ??_C@_03BMAOKBAD@Oct@      00000001800266d0     libucrt:nlsdata.obj
 0002:000046d4       ??_C@_03JPJOFNIA@Nov@      00000001800266d4     libucrt:nlsdata.obj
 0002:000046d8       ??_C@_03MKABNOCG@Dec@      00000001800266d8     libucrt:nlsdata.obj
 0002:000046e0       ??_C@_07CGJPFGJA@January@  00000001800266e0     libucrt:nlsdata.obj
 0002:000046e8       ??_C@_08GNJGEPFN@February@ 00000001800266e8     libucrt:nlsdata.obj
 0002:000046f4       ??_C@_05HPCKOFNC@March@    00000001800266f4     libucrt:nlsdata.obj
 0002:000046fc       ??_C@_05DMJDNLEJ@April@    00000001800266fc     libucrt:nlsdata.obj
 0002:00004704       ??_C@_04CNLMGBGM@June@     0000000180026704     libucrt:nlsdata.obj
 0002:0000470c       ??_C@_04MIEPOIFP@July@     000000018002670c     libucrt:nlsdata.obj
 0002:00004714       ??_C@_06LBBHFDDG@August@   0000000180026714     libucrt:nlsdata.obj
 0002:00004720       ??_C@_09BHHEALKD@September@ 0000000180026720     libucrt:nlsdata.obj
 0002:00004730       ??_C@_07JJNFCEND@October@  0000000180026730     libucrt:nlsdata.obj
 0002:00004738       ??_C@_08HCHEGEOA@November@ 0000000180026738     libucrt:nlsdata.obj
 0002:00004748       ??_C@_08EDHMEBNP@December@ 0000000180026748     libucrt:nlsdata.obj
 0002:00004754       ??_C@_02DEDBPAFC@AM@       0000000180026754     libucrt:nlsdata.obj
 0002:00004758       ??_C@_02CJNFDJBF@PM@       0000000180026758     libucrt:nlsdata.obj
 0002:00004760       ??_C@_08BPBNCDIB@MM?1dd?1yy@ 0000000180026760     libucrt:nlsdata.obj
 0002:00004770       ??_C@_0BE@CKGJFCPC@dddd?0?5MMMM?5dd?0?5yyyy@ 0000000180026770     libucrt:nlsdata.obj
 0002:00004788       ??_C@_08JCCMCCIL@HH?3mm?3ss@ 0000000180026788     libucrt:nlsdata.obj
 0002:00004798       ??_C@_17MBGCMIPB@?$AAS?$AAu?$AAn@ 0000000180026798     libucrt:nlsdata.obj
 0002:000047a0       ??_C@_17KBOMKBF@?$AAM?$AAo?$AAn@ 00000001800267a0     libucrt:nlsdata.obj
 0002:000047a8       ??_C@_17BMKGEGOJ@?$AAT?$AAu?$AAe@ 00000001800267a8     libucrt:nlsdata.obj
 0002:000047b0       ??_C@_17CJEDCEPE@?$AAW?$AAe?$AAd@ 00000001800267b0     libucrt:nlsdata.obj
 0002:000047b8       ??_C@_17PDPHAADD@?$AAT?$AAh?$AAu@ 00000001800267b8     libucrt:nlsdata.obj
 0002:000047c0       ??_C@_17HFOLPPLP@?$AAF?$AAr?$AAi@ 00000001800267c0     libucrt:nlsdata.obj
 0002:000047c8       ??_C@_17GGIBDPIH@?$AAS?$AAa?$AAt@ 00000001800267c8     libucrt:nlsdata.obj
 0002:000047d0       ??_C@_1O@IHNHDHPB@?$AAS?$AAu?$AAn?$AAd?$AAa?$AAy@ 00000001800267d0     libucrt:nlsdata.obj
 0002:000047e0       ??_C@_1O@MMNBFLIA@?$AAM?$AAo?$AAn?$AAd?$AAa?$AAy@ 00000001800267e0     libucrt:nlsdata.obj
 0002:000047f0       ??_C@_1BA@ENFBFFEK@?$AAT?$AAu?$AAe?$AAs?$AAd?$AAa?$AAy@ 00000001800267f0     libucrt:nlsdata.obj
 0002:00004800       ??_C@_1BE@EBOGMDOH@?$AAW?$AAe?$AAd?$AAn?$AAe?$AAs?$AAd?$AAa?$AAy@ 0000000180026800     libucrt:nlsdata.obj
 0002:00004818       ??_C@_1BC@HHMNLIHE@?$AAT?$AAh?$AAu?$AAr?$AAs?$AAd?$AAa?$AAy@ 0000000180026818     libucrt:nlsdata.obj
 0002:00004830       ??_C@_1O@PDICJHAG@?$AAF?$AAr?$AAi?$AAd?$AAa?$AAy@ 0000000180026830     libucrt:nlsdata.obj
 0002:00004840       ??_C@_1BC@ENMNNPAJ@?$AAS?$AAa?$AAt?$AAu?$AAr?$AAd?$AAa?$AAy@ 0000000180026840     libucrt:nlsdata.obj
 0002:00004858       ??_C@_17DKNBKCHM@?$AAJ?$AAa?$AAn@ 0000000180026858     libucrt:nlsdata.obj
 0002:00004860       ??_C@_17LMDJEKJN@?$AAF?$AAe?$AAb@ 0000000180026860     libucrt:nlsdata.obj
 0002:00004868       ??_C@_17CKNLEDEC@?$AAM?$AAa?$AAr@ 0000000180026868     libucrt:nlsdata.obj
 0002:00004870       ??_C@_17LFPOIHDD@?$AAA?$AAp?$AAr@ 0000000180026870     libucrt:nlsdata.obj
 0002:00004878       ??_C@_17PNNKMEED@?$AAM?$AAa?$AAy@ 0000000180026878     libucrt:nlsdata.obj
 0002:00004880       ??_C@_17KCJGOCPB@?$AAJ?$AAu?$AAn@ 0000000180026880     libucrt:nlsdata.obj
 0002:00004888       ??_C@_17IJPCKHK@?$AAJ?$AAu?$AAl@ 0000000180026888     libucrt:nlsdata.obj
 0002:00004890       ??_C@_17ICPELBCN@?$AAA?$AAu?$AAg@ 0000000180026890     libucrt:nlsdata.obj
 0002:00004898       ??_C@_17HCHCOKMG@?$AAS?$AAe?$AAp@ 0000000180026898     libucrt:nlsdata.obj
 0002:000048a0       ??_C@_17FNLKOI@?$AAO?$AAc?$AAt@ 00000001800268a0     libucrt:nlsdata.obj
 0002:000048a8       ??_C@_17BBDMLCIG@?$AAN?$AAo?$AAv@ 00000001800268a8     libucrt:nlsdata.obj
 0002:000048b0       ??_C@_17EGKACKIF@?$AAD?$AAe?$AAc@ 00000001800268b0     libucrt:nlsdata.obj
 0002:000048b8       ??_C@_1BA@EFMEIEBA@?$AAJ?$AAa?$AAn?$AAu?$AAa?$AAr?$AAy@ 00000001800268b8     libucrt:nlsdata.obj
 0002:000048c8       ??_C@_1BC@JGDDFFAM@?$AAF?$AAe?$AAb?$AAr?$AAu?$AAa?$AAr?$AAy@ 00000001800268c8     libucrt:nlsdata.obj
 0002:000048e0       ??_C@_1M@IKEENEDF@?$AAM?$AAa?$AAr?$AAc?$AAh@ 00000001800268e0     libucrt:nlsdata.obj
 0002:000048f0       ??_C@_1M@GJNLMHFD@?$AAA?$AAp?$AAr?$AAi?$AAl@ 00000001800268f0     libucrt:nlsdata.obj
 0002:00004900       ??_C@_19EPFLPGAP@?$AAJ?$AAu?$AAn?$AAe@ 0000000180026900     libucrt:nlsdata.obj
 0002:00004910       ??_C@_19BIFMLPCD@?$AAJ?$AAu?$AAl?$AAy@ 0000000180026910     libucrt:nlsdata.obj
 0002:00004920       ??_C@_1O@PAHLKOAC@?$AAA?$AAu?$AAg?$AAu?$AAs?$AAt@ 0000000180026920     libucrt:nlsdata.obj
 0002:00004930       ??_C@_1BE@DKAAMBJL@?$AAS?$AAe?$AAp?$AAt?$AAe?$AAm?$AAb?$AAe?$AAr@ 0000000180026930     libucrt:nlsdata.obj
 0002:00004948       ??_C@_1BA@EPANDLNG@?$AAO?$AAc?$AAt?$AAo?$AAb?$AAe?$AAr@ 0000000180026948     libucrt:nlsdata.obj
 0002:00004958       ??_C@_1BC@BGLIFPF@?$AAN?$AAo?$AAv?$AAe?$AAm?$AAb?$AAe?$AAr@ 0000000180026958     libucrt:nlsdata.obj
 0002:00004970       ??_C@_1BC@FEMKIFH@?$AAD?$AAe?$AAc?$AAe?$AAm?$AAb?$AAe?$AAr@ 0000000180026970     libucrt:nlsdata.obj
 0002:00004984       ??_C@_15ODEHAHHF@?$AAA?$AAM@ 0000000180026984     libucrt:nlsdata.obj
 0002:0000498c       ??_C@_15CLMNNGEL@?$AAP?$AAM@ 000000018002698c     libucrt:nlsdata.obj
 0002:00004998       ??_C@_1BC@IEBCMHCM@?$AAM?$AAM?$AA?1?$AAd?$AAd?$AA?1?$AAy?$AAy@ 0000000180026998     libucrt:nlsdata.obj
 0002:000049b0       ??_C@_1CI@KNAKOEBC@?$AAd?$AAd?$AAd?$AAd?$AA?0?$AA?5?$AAM?$AAM?$AAM?$AAM?$AA?5?$AAd?$AAd?$AA?0?$AA?5@ 00000001800269b0     libucrt:nlsdata.obj
 0002:000049d8       ??_C@_1BC@GDGBMEMK@?$AAH?$AAH?$AA?3?$AAm?$AAm?$AA?3?$AAs?$AAs@ 00000001800269d8     libucrt:nlsdata.obj
 0002:000049f0       ??_C@_1M@BMHNFIME@?$AAe?$AAn?$AA?9?$AAU?$AAS@ 00000001800269f0     libucrt:nlsdata.obj
 0002:00004a20       ??_C@_1M@HPNHIDJI@?$AAj?$AAa?$AA?9?$AAJ?$AAP@ 0000000180026a20     libucrt:mbctype.obj
 0002:00004a30       ??_C@_1M@BIBDDEMK@?$AAz?$AAh?$AA?9?$AAC?$AAN@ 0000000180026a30     libucrt:mbctype.obj
 0002:00004a40       ??_C@_1M@JLOOOEGK@?$AAk?$AAo?$AA?9?$AAK?$AAR@ 0000000180026a40     libucrt:mbctype.obj
 0002:00004a50       ??_C@_1M@CLNBBOPM@?$AAz?$AAh?$AA?9?$AAT?$AAW@ 0000000180026a50     libucrt:mbctype.obj
 0002:00004a60       __newctype                 0000000180026a60     libucrt:ctype.obj
 0002:00004d60       __newclmap                 0000000180026d60     libucrt:ctype.obj
 0002:00004ee0       __newcumap                 0000000180026ee0     libucrt:ctype.obj
 0002:00005060       _wctype                    0000000180027060     libucrt:ctype.obj
 0002:000060b0       ??_C@_15EMKDOKLE@?$AAa?$AAr@ 00000001800280b0     libucrt:lcidtoname_downlevel.obj
 0002:000060b8       ??_C@_15KNPADPLH@?$AAb?$AAg@ 00000001800280b8     libucrt:lcidtoname_downlevel.obj
 0002:000060c0       ??_C@_15EDMHLDMO@?$AAc?$AAa@ 00000001800280c0     libucrt:lcidtoname_downlevel.obj
 0002:000060c8       ??_C@_1O@BPEAJADD@?$AAz?$AAh?$AA?9?$AAC?$AAH?$AAS@ 00000001800280c8     libucrt:lcidtoname_downlevel.obj
 0002:000060d8       ??_C@_15LJNHCMNK@?$AAc?$AAs@ 00000001800280d8     libucrt:lcidtoname_downlevel.obj
 0002:000060e0       ??_C@_15FOMCIDHG@?$AAd?$AAa@ 00000001800280e0     libucrt:lcidtoname_downlevel.obj
 0002:000060e8       ??_C@_15NBKABECB@?$AAd?$AAe@ 00000001800280e8     libucrt:lcidtoname_downlevel.obj
 0002:000060f0       ??_C@_15GHPEIIAO@?$AAe?$AAl@ 00000001800280f0     libucrt:lcidtoname_downlevel.obj
 0002:000060f8       ??_C@_15MNPNEAIF@?$AAe?$AAn@ 00000001800280f8     libucrt:lcidtoname_downlevel.obj
 0002:00006100       ??_C@_15GPIOMPMH@?$AAe?$AAs@ 0000000180028100     libucrt:lcidtoname_downlevel.obj
 0002:00006108       ??_C@_15NGLOAKJC@?$AAf?$AAi@ 0000000180028108     libucrt:lcidtoname_downlevel.obj
 0002:00006110       ??_C@_15FBKGNKAM@?$AAf?$AAr@ 0000000180028110     libucrt:lcidtoname_downlevel.obj
 0002:00006118       ??_C@_15KGGCNEFK@?$AAh?$AAe@ 0000000180028118     libucrt:lcidtoname_downlevel.obj
 0002:00006120       ??_C@_15PGHLIDMF@?$AAh?$AAu@ 0000000180028120     libucrt:lcidtoname_downlevel.obj
 0002:00006128       ??_C@_15BIEMAPLM@?$AAi?$AAs@ 0000000180028128     libucrt:lcidtoname_downlevel.obj
 0002:00006130       ??_C@_15IFJLDHAF@?$AAi?$AAt@ 0000000180028130     libucrt:lcidtoname_downlevel.obj
 0002:00006138       ??_C@_15GEMIOCAG@?$AAj?$AAa@ 0000000180028138     libucrt:lcidtoname_downlevel.obj
 0002:00006140       ??_C@_15EPELEGJA@?$AAk?$AAo@ 0000000180028140     libucrt:lcidtoname_downlevel.obj
 0002:00006148       ??_C@_15NDDHIMN@?$AAn?$AAl@ 0000000180028148     libucrt:lcidtoname_downlevel.obj
 0002:00006150       ??_C@_15BPIGNHCD@?$AAn?$AAo@ 0000000180028150     libucrt:lcidtoname_downlevel.obj
 0002:00006158       ??_C@_15DEOPBLCG@?$AAp?$AAl@ 0000000180028158     libucrt:lcidtoname_downlevel.obj
 0002:00006160       ??_C@_15KBECGEFG@?$AAp?$AAt@ 0000000180028160     libucrt:lcidtoname_downlevel.obj
 0002:00006168       ??_C@_15GLJCBFMD@?$AAr?$AAo@ 0000000180028168     libucrt:lcidtoname_downlevel.obj
 0002:00006170       ??_C@_15FEDGKCDI@?$AAr?$AAu@ 0000000180028170     libucrt:lcidtoname_downlevel.obj
 0002:00006178       ??_C@_15GLKMLLHM@?$AAh?$AAr@ 0000000180028178     libucrt:lcidtoname_downlevel.obj
 0002:00006180       ??_C@_15CPKMFBDB@?$AAs?$AAk@ 0000000180028180     libucrt:lcidtoname_downlevel.obj
 0002:00006188       ??_C@_15BAAIOGMK@?$AAs?$AAq@ 0000000180028188     libucrt:lcidtoname_downlevel.obj
 0002:00006190       ??_C@_15INNPNOHD@?$AAs?$AAv@ 0000000180028190     libucrt:lcidtoname_downlevel.obj
 0002:00006198       ??_C@_15CABMMOGH@?$AAt?$AAh@ 0000000180028198     libucrt:lcidtoname_downlevel.obj
 0002:000061a0       ??_C@_15BPLIHJJM@?$AAt?$AAr@ 00000001800281a0     libucrt:lcidtoname_downlevel.obj
 0002:000061a8       ??_C@_15NEOEKKDJ@?$AAu?$AAr@ 00000001800281a8     libucrt:lcidtoname_downlevel.obj
 0002:000061b0       ??_C@_15NFICGAJK@?$AAi?$AAd@ 00000001800281b0     libucrt:lcidtoname_downlevel.obj
 0002:000061b8       ??_C@_15PJPFLCCM@?$AAu?$AAk@ 00000001800281b8     libucrt:lcidtoname_downlevel.obj
 0002:000061c0       ??_C@_15HPJPHDM@?$AAb?$AAe@ 00000001800281c0     libucrt:lcidtoname_downlevel.obj
 0002:000061c8       ??_C@_15LCHLGJII@?$AAs?$AAl@ 00000001800281c8     libucrt:lcidtoname_downlevel.obj
 0002:000061d0       ??_C@_15PCFJPHHO@?$AAe?$AAt@ 00000001800281d0     libucrt:lcidtoname_downlevel.obj
 0002:000061d8       ??_C@_15HPFPGODN@?$AAl?$AAv@ 00000001800281d8     libucrt:lcidtoname_downlevel.obj
 0002:000061e0       ??_C@_15NFFGKGLG@?$AAl?$AAt@ 00000001800281e0     libucrt:lcidtoname_downlevel.obj
 0002:000061e8       ??_C@_15BDAKCCHN@?$AAf?$AAa@ 00000001800281e8     libucrt:lcidtoname_downlevel.obj
 0002:000061f0       ??_C@_15NFGIAIAJ@?$AAv?$AAi@ 00000001800281f0     libucrt:lcidtoname_downlevel.obj
 0002:000061f8       ??_C@_15LMKNDMHN@?$AAh?$AAy@ 00000001800281f8     libucrt:lcidtoname_downlevel.obj
 0002:00006200       ??_C@_15IJBHMCFL@?$AAa?$AAz@ 0000000180028200     libucrt:lcidtoname_downlevel.obj
 0002:00006208       ??_C@_15EKOFJABL@?$AAe?$AAu@ 0000000180028208     libucrt:lcidtoname_downlevel.obj
 0002:00006210       ??_C@_15BGHADCNK@?$AAm?$AAk@ 0000000180028210     libucrt:lcidtoname_downlevel.obj
 0002:00006218       ??_C@_15JDNICKHM@?$AAa?$AAf@ 0000000180028218     libucrt:lcidtoname_downlevel.obj
 0002:00006220       ??_C@_15KPJEDBKD@?$AAk?$AAa@ 0000000180028220     libucrt:lcidtoname_downlevel.obj
 0002:00006228       ??_C@_15PDNFFFEO@?$AAf?$AAo@ 0000000180028228     libucrt:lcidtoname_downlevel.obj
 0002:00006230       ??_C@_15OMLEGLOC@?$AAh?$AAi@ 0000000180028230     libucrt:lcidtoname_downlevel.obj
 0002:00006238       ??_C@_15IDNNENKK@?$AAm?$AAs@ 0000000180028238     libucrt:lcidtoname_downlevel.obj
 0002:00006240       ??_C@_15MACJNBMH@?$AAk?$AAk@ 0000000180028240     libucrt:lcidtoname_downlevel.obj
 0002:00006248       ??_C@_15DKDJEOND@?$AAk?$AAy@ 0000000180028248     libucrt:lcidtoname_downlevel.obj
 0002:00006250       ??_C@_15DFGDLJBG@?$AAs?$AAw@ 0000000180028250     libucrt:lcidtoname_downlevel.obj
 0002:00006258       ??_C@_15BBFAICNG@?$AAu?$AAz@ 0000000180028258     libucrt:lcidtoname_downlevel.obj
 0002:00006260       ??_C@_15DKNDCGEA@?$AAt?$AAt@ 0000000180028260     libucrt:lcidtoname_downlevel.obj
 0002:00006268       ??_C@_15MGIFMDPL@?$AAp?$AAa@ 0000000180028268     libucrt:lcidtoname_downlevel.obj
 0002:00006270       ??_C@_15HCNDBBA@?$AAg?$AAu@ 0000000180028270     libucrt:lcidtoname_downlevel.obj
 0002:00006278       ??_C@_15FNBEIBON@?$AAt?$AAa@ 0000000180028278     libucrt:lcidtoname_downlevel.obj
 0002:00006280       ??_C@_15NCHGBGLK@?$AAt?$AAe@ 0000000180028280     libucrt:lcidtoname_downlevel.obj
 0002:00006288       ??_C@_15PHPHCBPF@?$AAk?$AAn@ 0000000180028288     libucrt:lcidtoname_downlevel.obj
 0002:00006290       ??_C@_15DLGBCKMP@?$AAm?$AAr@ 0000000180028290     libucrt:lcidtoname_downlevel.obj
 0002:00006298       ??_C@_15EABBLBFF@?$AAs?$AAa@ 0000000180028298     libucrt:lcidtoname_downlevel.obj
 0002:000062a0       ??_C@_15CBKOMCOI@?$AAm?$AAn@ 00000001800282a0     libucrt:lcidtoname_downlevel.obj
 0002:000062a8       ??_C@_15CKDMCJAF@?$AAg?$AAl@ 00000001800282a8     libucrt:lcidtoname_downlevel.obj
 0002:000062b0       ??_C@_17CNJFBPG@?$AAk?$AAo?$AAk@ 00000001800282b0     libucrt:lcidtoname_downlevel.obj
 0002:000062b8       ??_C@_17FFBJICPL@?$AAs?$AAy?$AAr@ 00000001800282b8     libucrt:lcidtoname_downlevel.obj
 0002:000062c0       ??_C@_17KPNDCPAF@?$AAd?$AAi?$AAv@ 00000001800282c0     libucrt:lcidtoname_downlevel.obj
 0002:000062c8       ??_C@_1M@OKAHONE@?$AAa?$AAr?$AA?9?$AAS?$AAA@ 00000001800282c8     libucrt:lcidtoname_downlevel.obj
 0002:000062d8       ??_C@_1M@FFFIGIGK@?$AAb?$AAg?$AA?9?$AAB?$AAG@ 00000001800282d8     libucrt:lcidtoname_downlevel.obj
 0002:000062e8       ??_C@_1M@BJNKEDC@?$AAc?$AAa?$AA?9?$AAE?$AAS@ 00000001800282e8     libucrt:lcidtoname_downlevel.obj
 0002:000062f8       ??_C@_1M@IJJHFJHA@?$AAc?$AAs?$AA?9?$AAC?$AAZ@ 00000001800282f8     libucrt:lcidtoname_downlevel.obj
 0002:00006308       ??_C@_1M@CLPEOBGI@?$AAd?$AAa?$AA?9?$AAD?$AAK@ 0000000180028308     libucrt:lcidtoname_downlevel.obj
 0002:00006318       ??_C@_1M@MCMADGCB@?$AAd?$AAe?$AA?9?$AAD?$AAE@ 0000000180028318     libucrt:lcidtoname_downlevel.obj
 0002:00006328       ??_C@_1M@OOCKEMAM@?$AAe?$AAl?$AA?9?$AAG?$AAR@ 0000000180028328     libucrt:lcidtoname_downlevel.obj
 0002:00006338       ??_C@_1M@DDNJFGID@?$AAf?$AAi?$AA?9?$AAF?$AAI@ 0000000180028338     libucrt:lcidtoname_downlevel.obj
 0002:00006348       ??_C@_1M@GLIPPMAC@?$AAf?$AAr?$AA?9?$AAF?$AAR@ 0000000180028348     libucrt:lcidtoname_downlevel.obj
 0002:00006358       ??_C@_1M@GFMCHPE@?$AAh?$AAe?$AA?9?$AAI?$AAL@ 0000000180028358     libucrt:lcidtoname_downlevel.obj
 0002:00006368       ??_C@_1M@MHLPGNKM@?$AAh?$AAu?$AA?9?$AAH?$AAU@ 0000000180028368     libucrt:lcidtoname_downlevel.obj
 0002:00006378       ??_C@_1M@LPDDNNPN@?$AAi?$AAs?$AA?9?$AAI?$AAS@ 0000000180028378     libucrt:lcidtoname_downlevel.obj
 0002:00006388       ??_C@_1M@MADIPODN@?$AAi?$AAt?$AA?9?$AAI?$AAT@ 0000000180028388     libucrt:lcidtoname_downlevel.obj
 0002:00006398       ??_C@_1M@IHBJJGG@?$AAn?$AAl?$AA?9?$AAN?$AAL@ 0000000180028398     libucrt:lcidtoname_downlevel.obj
 0002:000063a8       ??_C@_1M@EANAGDL@?$AAn?$AAb?$AA?9?$AAN?$AAO@ 00000001800283a8     libucrt:lcidtoname_downlevel.obj
 0002:000063b8       ??_C@_1M@NEIEMEGP@?$AAp?$AAl?$AA?9?$AAP?$AAL@ 00000001800283b8     libucrt:lcidtoname_downlevel.obj
 0002:000063c8       ??_C@_1M@BOCFIGEP@?$AAp?$AAt?$AA?9?$AAB?$AAR@ 00000001800283c8     libucrt:lcidtoname_downlevel.obj
 0002:000063d8       ??_C@_1M@IMPFOPBG@?$AAr?$AAo?$AA?9?$AAR?$AAO@ 00000001800283d8     libucrt:lcidtoname_downlevel.obj
 0002:000063e8       ??_C@_1M@IDNNEJMM@?$AAr?$AAu?$AA?9?$AAR?$AAU@ 00000001800283e8     libucrt:lcidtoname_downlevel.obj
 0002:000063f8       ??_C@_1M@LILEEOGM@?$AAh?$AAr?$AA?9?$AAH?$AAR@ 00000001800283f8     libucrt:lcidtoname_downlevel.obj
 0002:00006408       ??_C@_1M@FKIFEHPB@?$AAs?$AAk?$AA?9?$AAS?$AAK@ 0000000180028408     libucrt:lcidtoname_downlevel.obj
 0002:00006418       ??_C@_1M@LJMAMNPJ@?$AAs?$AAq?$AA?9?$AAA?$AAL@ 0000000180028418     libucrt:lcidtoname_downlevel.obj
 0002:00006428       ??_C@_1M@GIAKDKJK@?$AAs?$AAv?$AA?9?$AAS?$AAE@ 0000000180028428     libucrt:lcidtoname_downlevel.obj
 0002:00006438       ??_C@_1M@MKJKIKCL@?$AAt?$AAh?$AA?9?$AAT?$AAH@ 0000000180028438     libucrt:lcidtoname_downlevel.obj
 0002:00006448       ??_C@_1M@MFLCCMPB@?$AAt?$AAr?$AA?9?$AAT?$AAR@ 0000000180028448     libucrt:lcidtoname_downlevel.obj
 0002:00006458       ??_C@_1M@OIJHDKJN@?$AAu?$AAr?$AA?9?$AAP?$AAK@ 0000000180028458     libucrt:lcidtoname_downlevel.obj
 0002:00006468       ??_C@_1M@LHIPCIEK@?$AAi?$AAd?$AA?9?$AAI?$AAD@ 0000000180028468     libucrt:lcidtoname_downlevel.obj
 0002:00006478       ??_C@_1M@MFMOBGI@?$AAu?$AAk?$AA?9?$AAU?$AAA@ 0000000180028478     libucrt:lcidtoname_downlevel.obj
 0002:00006488       ??_C@_1M@OBGLJIPL@?$AAb?$AAe?$AA?9?$AAB?$AAY@ 0000000180028488     libucrt:lcidtoname_downlevel.obj
 0002:00006498       ??_C@_1M@BCFAJEAD@?$AAs?$AAl?$AA?9?$AAS?$AAI@ 0000000180028498     libucrt:lcidtoname_downlevel.obj
 0002:000064a8       ??_C@_1M@FKFFEDDN@?$AAe?$AAt?$AA?9?$AAE?$AAE@ 00000001800284a8     libucrt:lcidtoname_downlevel.obj
 0002:000064b8       ??_C@_1M@KGKKAACI@?$AAl?$AAv?$AA?9?$AAL?$AAV@ 00000001800284b8     libucrt:lcidtoname_downlevel.obj
 0002:000064c8       ??_C@_1M@IFGBIJO@?$AAl?$AAt?$AA?9?$AAL?$AAT@ 00000001800284c8     libucrt:lcidtoname_downlevel.obj
 0002:000064d8       ??_C@_1M@FGEAHEDM@?$AAf?$AAa?$AA?9?$AAI?$AAR@ 00000001800284d8     libucrt:lcidtoname_downlevel.obj
 0002:000064e8       ??_C@_1M@KBMAIBFN@?$AAv?$AAi?$AA?9?$AAV?$AAN@ 00000001800284e8     libucrt:lcidtoname_downlevel.obj
 0002:000064f8       ??_C@_1M@GPCBKDJK@?$AAh?$AAy?$AA?9?$AAA?$AAM@ 00000001800284f8     libucrt:lcidtoname_downlevel.obj
 0002:00006508       ??_C@_1BG@BECMDDJB@?$AAa?$AAz?$AA?9?$AAA?$AAZ?$AA?9?$AAL?$AAa?$AAt?$AAn@ 0000000180028508     libucrt:lcidtoname_downlevel.obj
 0002:00006520       ??_C@_1M@MAOFCAEA@?$AAe?$AAu?$AA?9?$AAE?$AAS@ 0000000180028520     libucrt:lcidtoname_downlevel.obj
 0002:00006530       ??_C@_1M@IGHABKPI@?$AAm?$AAk?$AA?9?$AAM?$AAK@ 0000000180028530     libucrt:lcidtoname_downlevel.obj
 0002:00006540       ??_C@_1M@IAIGNEJG@?$AAt?$AAn?$AA?9?$AAZ?$AAA@ 0000000180028540     libucrt:lcidtoname_downlevel.obj
 0002:00006550       ??_C@_1M@IIJCOJFA@?$AAx?$AAh?$AA?9?$AAZ?$AAA@ 0000000180028550     libucrt:lcidtoname_downlevel.obj
 0002:00006560       ??_C@_1M@LGPJHNJH@?$AAz?$AAu?$AA?9?$AAZ?$AAA@ 0000000180028560     libucrt:lcidtoname_downlevel.obj
 0002:00006570       ??_C@_1M@HOKAOIO@?$AAa?$AAf?$AA?9?$AAZ?$AAA@ 0000000180028570     libucrt:lcidtoname_downlevel.obj
 0002:00006580       ??_C@_1M@DPCLHLIE@?$AAk?$AAa?$AA?9?$AAG?$AAE@ 0000000180028580     libucrt:lcidtoname_downlevel.obj
 0002:00006590       ??_C@_1M@BLKMHJBI@?$AAf?$AAo?$AA?9?$AAF?$AAO@ 0000000180028590     libucrt:lcidtoname_downlevel.obj
 0002:000065a0       ??_C@_1M@LGGJAPPB@?$AAh?$AAi?$AA?9?$AAI?$AAN@ 00000001800285a0     libucrt:lcidtoname_downlevel.obj
 0002:000065b0       ??_C@_1M@FIKPIHFE@?$AAm?$AAt?$AA?9?$AAM?$AAT@ 00000001800285b0     libucrt:lcidtoname_downlevel.obj
 0002:000065c0       ??_C@_1M@HEGGPBFA@?$AAs?$AAe?$AA?9?$AAN?$AAO@ 00000001800285c0     libucrt:lcidtoname_downlevel.obj
 0002:000065d0       ??_C@_1M@EIBJEEPA@?$AAm?$AAs?$AA?9?$AAM?$AAY@ 00000001800285d0     libucrt:lcidtoname_downlevel.obj
 0002:000065e0       ??_C@_1M@FHLBGMPP@?$AAk?$AAk?$AA?9?$AAK?$AAZ@ 00000001800285e0     libucrt:lcidtoname_downlevel.obj
 0002:000065f0       ??_C@_1M@NGJJLCGI@?$AAk?$AAy?$AA?9?$AAK?$AAG@ 00000001800285f0     libucrt:lcidtoname_downlevel.obj
 0002:00006600       ??_C@_1M@GIENNBFC@?$AAs?$AAw?$AA?9?$AAK?$AAE@ 0000000180028600     libucrt:lcidtoname_downlevel.obj
 0002:00006610       ??_C@_1BG@NDGMJIMJ@?$AAu?$AAz?$AA?9?$AAU?$AAZ?$AA?9?$AAL?$AAa?$AAt?$AAn@ 0000000180028610     libucrt:lcidtoname_downlevel.obj
 0002:00006628       ??_C@_1M@IDCCIHBC@?$AAt?$AAt?$AA?9?$AAR?$AAU@ 0000000180028628     libucrt:lcidtoname_downlevel.obj
 0002:00006638       ??_C@_1M@LOICPMOJ@?$AAb?$AAn?$AA?9?$AAI?$AAN@ 0000000180028638     libucrt:lcidtoname_downlevel.obj
 0002:00006648       ??_C@_1M@KPKKNEAH@?$AAp?$AAa?$AA?9?$AAI?$AAN@ 0000000180028648     libucrt:lcidtoname_downlevel.obj
 0002:00006658       ??_C@_1M@PJGPPBOG@?$AAg?$AAu?$AA?9?$AAI?$AAN@ 0000000180028658     libucrt:lcidtoname_downlevel.obj
 0002:00006668       ??_C@_1M@KMKMOPHI@?$AAt?$AAa?$AA?9?$AAI?$AAN@ 0000000180028668     libucrt:lcidtoname_downlevel.obj
 0002:00006678       ??_C@_1M@KFEHEPAC@?$AAt?$AAe?$AA?9?$AAI?$AAN@ 0000000180028678     libucrt:lcidtoname_downlevel.obj
 0002:00006688       ??_C@_1M@CDCLMGHI@?$AAk?$AAn?$AA?9?$AAI?$AAN@ 0000000180028688     libucrt:lcidtoname_downlevel.obj
 0002:00006698       ??_C@_1M@MIODLDKF@?$AAm?$AAl?$AA?9?$AAI?$AAN@ 0000000180028698     libucrt:lcidtoname_downlevel.obj
 0002:000066a8       ??_C@_1M@PBIEACPO@?$AAm?$AAr?$AA?9?$AAI?$AAN@ 00000001800286a8     libucrt:lcidtoname_downlevel.obj
 0002:000066b8       ??_C@_1M@NIDEAGPH@?$AAs?$AAa?$AA?9?$AAI?$AAN@ 00000001800286b8     libucrt:lcidtoname_downlevel.obj
 0002:000066c8       ??_C@_1M@FHIHCBIO@?$AAm?$AAn?$AA?9?$AAM?$AAN@ 00000001800286c8     libucrt:lcidtoname_downlevel.obj
 0002:000066d8       ??_C@_1M@JAIJPENP@?$AAc?$AAy?$AA?9?$AAG?$AAB@ 00000001800286d8     libucrt:lcidtoname_downlevel.obj
 0002:000066e8       ??_C@_1M@PHGFBEPN@?$AAg?$AAl?$AA?9?$AAE?$AAS@ 00000001800286e8     libucrt:lcidtoname_downlevel.obj
 0002:000066f8       ??_C@_1O@KPIPDNCP@?$AAk?$AAo?$AAk?$AA?9?$AAI?$AAN@ 00000001800286f8     libucrt:lcidtoname_downlevel.obj
 0002:00006708       ??_C@_1O@KNHJLDJA@?$AAs?$AAy?$AAr?$AA?9?$AAS?$AAY@ 0000000180028708     libucrt:lcidtoname_downlevel.obj
 0002:00006718       ??_C@_1O@MKEKBLAH@?$AAd?$AAi?$AAv?$AA?9?$AAM?$AAV@ 0000000180028718     libucrt:lcidtoname_downlevel.obj
 0002:00006728       ??_C@_1O@OHDCKDDF@?$AAq?$AAu?$AAz?$AA?9?$AAB?$AAO@ 0000000180028728     libucrt:lcidtoname_downlevel.obj
 0002:00006738       ??_C@_1M@LEPJNLFD@?$AAn?$AAs?$AA?9?$AAZ?$AAA@ 0000000180028738     libucrt:lcidtoname_downlevel.obj
 0002:00006748       ??_C@_1M@OMLEIIJB@?$AAm?$AAi?$AA?9?$AAN?$AAZ@ 0000000180028748     libucrt:lcidtoname_downlevel.obj
 0002:00006758       ??_C@_1M@PMPEAILG@?$AAa?$AAr?$AA?9?$AAI?$AAQ@ 0000000180028758     libucrt:lcidtoname_downlevel.obj
 0002:00006768       ??_C@_1M@CNKPNOEE@?$AAd?$AAe?$AA?9?$AAC?$AAH@ 0000000180028768     libucrt:lcidtoname_downlevel.obj
 0002:00006778       ??_C@_1M@LKMGMLKO@?$AAe?$AAn?$AA?9?$AAG?$AAB@ 0000000180028778     libucrt:lcidtoname_downlevel.obj
 0002:00006788       ??_C@_1M@PGKJFFGL@?$AAe?$AAs?$AA?9?$AAM?$AAX@ 0000000180028788     libucrt:lcidtoname_downlevel.obj
 0002:00006798       ??_C@_1M@DNNANBDC@?$AAf?$AAr?$AA?9?$AAB?$AAE@ 0000000180028798     libucrt:lcidtoname_downlevel.obj
 0002:000067a8       ??_C@_1M@HLGMDFHM@?$AAi?$AAt?$AA?9?$AAC?$AAH@ 00000001800287a8     libucrt:lcidtoname_downlevel.obj
 0002:000067b8       ??_C@_1M@CLLBGJH@?$AAn?$AAl?$AA?9?$AAB?$AAE@ 00000001800287b8     libucrt:lcidtoname_downlevel.obj
 0002:000067c8       ??_C@_1M@BODBOGLF@?$AAn?$AAn?$AA?9?$AAN?$AAO@ 00000001800287c8     libucrt:lcidtoname_downlevel.obj
 0002:000067d8       ??_C@_1M@HFFAHKAD@?$AAp?$AAt?$AA?9?$AAP?$AAT@ 00000001800287d8     libucrt:lcidtoname_downlevel.obj
 0002:000067e8       ??_C@_1BG@LNOAKHIE@?$AAs?$AAr?$AA?9?$AAS?$AAP?$AA?9?$AAL?$AAa?$AAt?$AAn@ 00000001800287e8     libucrt:lcidtoname_downlevel.obj
 0002:00006800       ??_C@_1M@HBMHBGAK@?$AAs?$AAv?$AA?9?$AAF?$AAI@ 0000000180028800     libucrt:lcidtoname_downlevel.obj
 0002:00006810       ??_C@_1BG@DGCJGJBE@?$AAa?$AAz?$AA?9?$AAA?$AAZ?$AA?9?$AAC?$AAy?$AAr?$AAl@ 0000000180028810     libucrt:lcidtoname_downlevel.obj
 0002:00006828       ??_C@_1M@KEJDAAHB@?$AAs?$AAe?$AA?9?$AAS?$AAE@ 0000000180028828     libucrt:lcidtoname_downlevel.obj
 0002:00006838       ??_C@_1M@HEIBJJAD@?$AAm?$AAs?$AA?9?$AAB?$AAN@ 0000000180028838     libucrt:lcidtoname_downlevel.obj
 0002:00006848       ??_C@_1BG@PBGJMCEM@?$AAu?$AAz?$AA?9?$AAU?$AAZ?$AA?9?$AAC?$AAy?$AAr?$AAl@ 0000000180028848     libucrt:lcidtoname_downlevel.obj
 0002:00006860       ??_C@_1O@LAOBCMDF@?$AAq?$AAu?$AAz?$AA?9?$AAE?$AAC@ 0000000180028860     libucrt:lcidtoname_downlevel.obj
 0002:00006870       ??_C@_1M@POEEMAIO@?$AAa?$AAr?$AA?9?$AAE?$AAG@ 0000000180028870     libucrt:lcidtoname_downlevel.obj
 0002:00006880       ??_C@_1M@EFAKDEDL@?$AAz?$AAh?$AA?9?$AAH?$AAK@ 0000000180028880     libucrt:lcidtoname_downlevel.obj
 0002:00006890       ??_C@_1M@HKKIJHGI@?$AAd?$AAe?$AA?9?$AAA?$AAT@ 0000000180028890     libucrt:lcidtoname_downlevel.obj
 0002:000068a0       ??_C@_1M@KBFBEHJF@?$AAe?$AAn?$AA?9?$AAA?$AAU@ 00000001800288a0     libucrt:lcidtoname_downlevel.obj
 0002:000068b0       ??_C@_1M@MNPLFAAH@?$AAe?$AAs?$AA?9?$AAE?$AAS@ 00000001800288b0     libucrt:lcidtoname_downlevel.obj
 0002:000068c0       ??_C@_1M@HJOOJFMA@?$AAf?$AAr?$AA?9?$AAC?$AAA@ 00000001800288c0     libucrt:lcidtoname_downlevel.obj
 0002:000068d0       ??_C@_1BG@JPOFPNAB@?$AAs?$AAr?$AA?9?$AAS?$AAP?$AA?9?$AAC?$AAy?$AAr?$AAl@ 00000001800288d0     libucrt:lcidtoname_downlevel.obj
 0002:000068e8       ??_C@_1M@LNFOCMOB@?$AAs?$AAe?$AA?9?$AAF?$AAI@ 00000001800288e8     libucrt:lcidtoname_downlevel.obj
 0002:000068f8       ??_C@_1O@MGJBOAMB@?$AAq?$AAu?$AAz?$AA?9?$AAP?$AAE@ 00000001800288f8     libucrt:lcidtoname_downlevel.obj
 0002:00006908       ??_C@_1M@GJINLBOK@?$AAa?$AAr?$AA?9?$AAL?$AAY@ 0000000180028908     libucrt:lcidtoname_downlevel.obj
 0002:00006918       ??_C@_1M@GGMNHJNL@?$AAz?$AAh?$AA?9?$AAS?$AAG@ 0000000180028918     libucrt:lcidtoname_downlevel.obj
 0002:00006928       ??_C@_1M@HOIKODND@?$AAd?$AAe?$AA?9?$AAL?$AAU@ 0000000180028928     libucrt:lcidtoname_downlevel.obj
 0002:00006938       ??_C@_1M@DDOCCGFG@?$AAe?$AAn?$AA?9?$AAC?$AAA@ 0000000180028938     libucrt:lcidtoname_downlevel.obj
 0002:00006948       ??_C@_1M@BNOEMJLF@?$AAe?$AAs?$AA?9?$AAG?$AAT@ 0000000180028948     libucrt:lcidtoname_downlevel.obj
 0002:00006958       ??_C@_1M@EOGNKEK@?$AAf?$AAr?$AA?9?$AAC?$AAH@ 0000000180028958     libucrt:lcidtoname_downlevel.obj
 0002:00006968       ??_C@_1M@FLIDJFHL@?$AAh?$AAr?$AA?9?$AAB?$AAA@ 0000000180028968     libucrt:lcidtoname_downlevel.obj
 0002:00006978       ??_C@_1O@FMCELNAJ@?$AAs?$AAm?$AAj?$AA?9?$AAN?$AAO@ 0000000180028978     libucrt:lcidtoname_downlevel.obj
 0002:00006988       ??_C@_1M@JHGLJMGJ@?$AAa?$AAr?$AA?9?$AAD?$AAZ@ 0000000180028988     libucrt:lcidtoname_downlevel.obj
 0002:00006998       ??_C@_1M@JKKFDCNP@?$AAz?$AAh?$AA?9?$AAM?$AAO@ 0000000180028998     libucrt:lcidtoname_downlevel.obj
 0002:000069a8       ??_C@_1M@GEEFALPE@?$AAd?$AAe?$AA?9?$AAL?$AAI@ 00000001800289a8     libucrt:lcidtoname_downlevel.obj
 0002:000069b8       ??_C@_1M@IGEOFBG@?$AAe?$AAn?$AA?9?$AAN?$AAZ@ 00000001800289b8     libucrt:lcidtoname_downlevel.obj
 0002:000069c8       ??_C@_1M@KDBONEHP@?$AAe?$AAs?$AA?9?$AAC?$AAR@ 00000001800289c8     libucrt:lcidtoname_downlevel.obj
 0002:000069d8       ??_C@_1M@FHMDOHNN@?$AAf?$AAr?$AA?9?$AAL?$AAU@ 00000001800289d8     libucrt:lcidtoname_downlevel.obj
 0002:000069e8       ??_C@_1BG@NFKKMAFG@?$AAb?$AAs?$AA?9?$AAB?$AAA?$AA?9?$AAL?$AAa?$AAt?$AAn@ 00000001800289e8     libucrt:lcidtoname_downlevel.obj
 0002:00006a00       ??_C@_1O@IMNBEMCI@?$AAs?$AAm?$AAj?$AA?9?$AAS?$AAE@ 0000000180028a00     libucrt:lcidtoname_downlevel.obj
 0002:00006a10       ??_C@_1M@DHHMBNDP@?$AAa?$AAr?$AA?9?$AAM?$AAA@ 0000000180028a10     libucrt:lcidtoname_downlevel.obj
 0002:00006a20       ??_C@_1M@BNBLJCGH@?$AAe?$AAn?$AA?9?$AAI?$AAE@ 0000000180028a20     libucrt:lcidtoname_downlevel.obj
 0002:00006a30       ??_C@_1M@GEPAFMDL@?$AAe?$AAs?$AA?9?$AAP?$AAA@ 0000000180028a30     libucrt:lcidtoname_downlevel.obj
 0002:00006a40       ??_C@_1M@OJONDMDL@?$AAf?$AAr?$AA?9?$AAM?$AAC@ 0000000180028a40     libucrt:lcidtoname_downlevel.obj
 0002:00006a50       ??_C@_1BG@OBCNFJB@?$AAs?$AAr?$AA?9?$AAB?$AAA?$AA?9?$AAL?$AAa?$AAt?$AAn@ 0000000180028a50     libucrt:lcidtoname_downlevel.obj
 0002:00006a68       ??_C@_1O@KEMEEGPO@?$AAs?$AAm?$AAa?$AA?9?$AAN?$AAO@ 0000000180028a68     libucrt:lcidtoname_downlevel.obj
 0002:00006a78       ??_C@_1M@ELMGFODK@?$AAa?$AAr?$AA?9?$AAT?$AAN@ 0000000180028a78     libucrt:lcidtoname_downlevel.obj
 0002:00006a88       ??_C@_1M@BHDLHFAF@?$AAe?$AAn?$AA?9?$AAZ?$AAA@ 0000000180028a88     libucrt:lcidtoname_downlevel.obj
 0002:00006a98       ??_C@_1M@BMGIGLIF@?$AAe?$AAs?$AA?9?$AAD?$AAO@ 0000000180028a98     libucrt:lcidtoname_downlevel.obj
 0002:00006aa8       ??_C@_1BG@CMBHIPBE@?$AAs?$AAr?$AA?9?$AAB?$AAA?$AA?9?$AAC?$AAy?$AAr?$AAl@ 0000000180028aa8     libucrt:lcidtoname_downlevel.obj
 0002:00006ac0       ??_C@_1O@HEDBLHNP@?$AAs?$AAm?$AAa?$AA?9?$AAS?$AAE@ 0000000180028ac0     libucrt:lcidtoname_downlevel.obj
 0002:00006ad0       ??_C@_1M@DAGCADIM@?$AAa?$AAr?$AA?9?$AAO?$AAM@ 0000000180028ad0     libucrt:lcidtoname_downlevel.obj
 0002:00006ae0       ??_C@_1M@FODLMICG@?$AAe?$AAn?$AA?9?$AAJ?$AAM@ 0000000180028ae0     libucrt:lcidtoname_downlevel.obj
 0002:00006af0       ??_C@_1M@DNMLCIHB@?$AAe?$AAs?$AA?9?$AAV?$AAE@ 0000000180028af0     libucrt:lcidtoname_downlevel.obj
 0002:00006b00       ??_C@_1O@EOKHMKJK@?$AAs?$AAm?$AAs?$AA?9?$AAF?$AAI@ 0000000180028b00     libucrt:lcidtoname_downlevel.obj
 0002:00006b10       ??_C@_1M@CAFJMKOF@?$AAa?$AAr?$AA?9?$AAY?$AAE@ 0000000180028b10     libucrt:lcidtoname_downlevel.obj
 0002:00006b20       ??_C@_1M@CBFHIJLI@?$AAe?$AAn?$AA?9?$AAC?$AAB@ 0000000180028b20     libucrt:lcidtoname_downlevel.obj
 0002:00006b30       ??_C@_1M@BGNFLDN@?$AAe?$AAs?$AA?9?$AAC?$AAO@ 0000000180028b30     libucrt:lcidtoname_downlevel.obj
 0002:00006b40       ??_C@_1O@JMPHMAMC@?$AAs?$AAm?$AAn?$AA?9?$AAF?$AAI@ 0000000180028b40     libucrt:lcidtoname_downlevel.obj
 0002:00006b50       ??_C@_1M@JLANABKE@?$AAa?$AAr?$AA?9?$AAS?$AAY@ 0000000180028b50     libucrt:lcidtoname_downlevel.obj
 0002:00006b60       ??_C@_1M@HPKGCFGN@?$AAe?$AAn?$AA?9?$AAB?$AAZ@ 0000000180028b60     libucrt:lcidtoname_downlevel.obj
 0002:00006b70       ??_C@_1M@OLJCMLGM@?$AAe?$AAs?$AA?9?$AAP?$AAE@ 0000000180028b70     libucrt:lcidtoname_downlevel.obj
 0002:00006b80       ??_C@_1M@MKKGFKLE@?$AAa?$AAr?$AA?9?$AAJ?$AAO@ 0000000180028b80     libucrt:lcidtoname_downlevel.obj
 0002:00006b90       ??_C@_1M@EKPGLDNI@?$AAe?$AAn?$AA?9?$AAT?$AAT@ 0000000180028b90     libucrt:lcidtoname_downlevel.obj
 0002:00006ba0       ??_C@_1M@OONGHFHE@?$AAe?$AAs?$AA?9?$AAA?$AAR@ 0000000180028ba0     libucrt:lcidtoname_downlevel.obj
 0002:00006bb0       ??_C@_1M@OOJFGBHE@?$AAa?$AAr?$AA?9?$AAL?$AAB@ 0000000180028bb0     libucrt:lcidtoname_downlevel.obj
 0002:00006bc0       ??_C@_1M@GCEJHNEG@?$AAe?$AAn?$AA?9?$AAZ?$AAW@ 0000000180028bc0     libucrt:lcidtoname_downlevel.obj
 0002:00006bd0       ??_C@_1M@JNOCAHJI@?$AAe?$AAs?$AA?9?$AAE?$AAC@ 0000000180028bd0     libucrt:lcidtoname_downlevel.obj
 0002:00006be0       ??_C@_1M@JEFHPGGB@?$AAa?$AAr?$AA?9?$AAK?$AAW@ 0000000180028be0     libucrt:lcidtoname_downlevel.obj
 0002:00006bf0       ??_C@_1M@MLKIBJOJ@?$AAe?$AAn?$AA?9?$AAP?$AAH@ 0000000180028bf0     libucrt:lcidtoname_downlevel.obj
 0002:00006c00       ??_C@_1M@BDNIPEND@?$AAe?$AAs?$AA?9?$AAC?$AAL@ 0000000180028c00     libucrt:lcidtoname_downlevel.obj
 0002:00006c10       ??_C@_1M@MPNMEKBD@?$AAa?$AAr?$AA?9?$AAA?$AAE@ 0000000180028c10     libucrt:lcidtoname_downlevel.obj
 0002:00006c20       ??_C@_1M@KBJALCPI@?$AAe?$AAs?$AA?9?$AAU?$AAY@ 0000000180028c20     libucrt:lcidtoname_downlevel.obj
 0002:00006c30       ??_C@_1M@LLCCOAGA@?$AAa?$AAr?$AA?9?$AAB?$AAH@ 0000000180028c30     libucrt:lcidtoname_downlevel.obj
 0002:00006c40       ??_C@_1M@PBFNCDEL@?$AAe?$AAs?$AA?9?$AAP?$AAY@ 0000000180028c40     libucrt:lcidtoname_downlevel.obj
 0002:00006c50       ??_C@_1M@EDGINPNP@?$AAa?$AAr?$AA?9?$AAQ?$AAA@ 0000000180028c50     libucrt:lcidtoname_downlevel.obj
 0002:00006c60       ??_C@_1M@MKDBIIJI@?$AAe?$AAs?$AA?9?$AAB?$AAO@ 0000000180028c60     libucrt:lcidtoname_downlevel.obj
 0002:00006c70       ??_C@_1M@CPKKEBLD@?$AAe?$AAs?$AA?9?$AAS?$AAV@ 0000000180028c70     libucrt:lcidtoname_downlevel.obj
 0002:00006c80       ??_C@_1M@NDBGMMJL@?$AAe?$AAs?$AA?9?$AAH?$AAN@ 0000000180028c80     libucrt:lcidtoname_downlevel.obj
 0002:00006c90       ??_C@_1M@JIJIBHDP@?$AAe?$AAs?$AA?9?$AAN?$AAI@ 0000000180028c90     libucrt:lcidtoname_downlevel.obj
 0002:00006ca0       ??_C@_1M@CGFMKEEK@?$AAe?$AAs?$AA?9?$AAP?$AAR@ 0000000180028ca0     libucrt:lcidtoname_downlevel.obj
 0002:00006cb0       ??_C@_1O@ICJHKIIK@?$AAz?$AAh?$AA?9?$AAC?$AAH?$AAT@ 0000000180028cb0     libucrt:lcidtoname_downlevel.obj
 0002:00006cc0       ??_C@_15CLNEJCE@?$AAs?$AAr@ 0000000180028cc0     libucrt:lcidtoname_downlevel.obj
 0002:00007b10       ??_C@_1M@KAHEKEIG@?$AAa?$AAf?$AA?9?$AAz?$AAa@ 0000000180029b10     libucrt:lcidtoname_downlevel.obj
 0002:00007b20       ??_C@_1M@GIECOABL@?$AAa?$AAr?$AA?9?$AAa?$AAe@ 0000000180029b20     libucrt:lcidtoname_downlevel.obj
 0002:00007b30       ??_C@_1M@BMLMEKGI@?$AAa?$AAr?$AA?9?$AAb?$AAh@ 0000000180029b30     libucrt:lcidtoname_downlevel.obj
 0002:00007b40       ??_C@_1M@DAPFDGGB@?$AAa?$AAr?$AA?9?$AAd?$AAz@ 0000000180029b40     libucrt:lcidtoname_downlevel.obj
 0002:00007b50       ??_C@_1M@FJNKGKIG@?$AAa?$AAr?$AA?9?$AAe?$AAg@ 0000000180029b50     libucrt:lcidtoname_downlevel.obj
 0002:00007b60       ??_C@_1M@FLGKKCLO@?$AAa?$AAr?$AA?9?$AAi?$AAq@ 0000000180029b60     libucrt:lcidtoname_downlevel.obj
 0002:00007b70       ??_C@_1M@GNDIPALM@?$AAa?$AAr?$AA?9?$AAj?$AAo@ 0000000180029b70     libucrt:lcidtoname_downlevel.obj
 0002:00007b80       ??_C@_1M@DDMJFMGJ@?$AAa?$AAr?$AA?9?$AAk?$AAw@ 0000000180029b80     libucrt:lcidtoname_downlevel.obj
 0002:00007b90       ??_C@_1M@EJALMLHM@?$AAa?$AAr?$AA?9?$AAl?$AAb@ 0000000180029b90     libucrt:lcidtoname_downlevel.obj
 0002:00007ba0       ??_C@_1M@MOBDBLOC@?$AAa?$AAr?$AA?9?$AAl?$AAy@ 0000000180029ba0     libucrt:lcidtoname_downlevel.obj
 0002:00007bb0       ??_C@_1M@JAOCLHDH@?$AAa?$AAr?$AA?9?$AAm?$AAa@ 0000000180029bb0     libucrt:lcidtoname_downlevel.obj
 0002:00007bc0       ??_C@_1M@JHPMKJIE@?$AAa?$AAr?$AA?9?$AAo?$AAm@ 0000000180029bc0     libucrt:lcidtoname_downlevel.obj
 0002:00007bd0       ??_C@_1M@OEPGHFNH@?$AAa?$AAr?$AA?9?$AAq?$AAa@ 0000000180029bd0     libucrt:lcidtoname_downlevel.obj
 0002:00007be0       ??_C@_1M@KJDONENM@?$AAa?$AAr?$AA?9?$AAs?$AAa@ 0000000180029be0     libucrt:lcidtoname_downlevel.obj
 0002:00007bf0       ??_C@_1M@DMJDKLKM@?$AAa?$AAr?$AA?9?$AAs?$AAy@ 0000000180029bf0     libucrt:lcidtoname_downlevel.obj
 0002:00007c00       ??_C@_1M@OMFIPEDC@?$AAa?$AAr?$AA?9?$AAt?$AAn@ 0000000180029c00     libucrt:lcidtoname_downlevel.obj
 0002:00007c10       ??_C@_1M@IHMHGAON@?$AAa?$AAr?$AA?9?$AAy?$AAe@ 0000000180029c10     libucrt:lcidtoname_downlevel.obj
 0002:00007c20       ??_C@_1BG@KDCPGJGB@?$AAa?$AAz?$AA?9?$AAa?$AAz?$AA?9?$AAc?$AAy?$AAr?$AAl@ 0000000180029c20     libucrt:lcidtoname_downlevel.obj
 0002:00007c38       ??_C@_1BG@IBCKDDOE@?$AAa?$AAz?$AA?9?$AAa?$AAz?$AA?9?$AAl?$AAa?$AAt?$AAn@ 0000000180029c38     libucrt:lcidtoname_downlevel.obj
 0002:00007c50       ??_C@_1M@EGPFDCPD@?$AAb?$AAe?$AA?9?$AAb?$AAy@ 0000000180029c50     libucrt:lcidtoname_downlevel.obj
 0002:00007c60       ??_C@_1M@PCMGMCGC@?$AAb?$AAg?$AA?9?$AAb?$AAg@ 0000000180029c60     libucrt:lcidtoname_downlevel.obj
 0002:00007c70       ??_C@_1M@BJBMFGOB@?$AAb?$AAn?$AA?9?$AAi?$AAn@ 0000000180029c70     libucrt:lcidtoname_downlevel.obj
 0002:00007c80       ??_C@_1BG@EAKMMACD@?$AAb?$AAs?$AA?9?$AAb?$AAa?$AA?9?$AAl?$AAa?$AAt?$AAn@ 0000000180029c80     libucrt:lcidtoname_downlevel.obj
 0002:00007c98       ??_C@_1M@KGADAODK@?$AAc?$AAa?$AA?9?$AAe?$AAs@ 0000000180029c98     libucrt:lcidtoname_downlevel.obj
 0002:00007ca8       ??_C@_1M@COAJPDHI@?$AAc?$AAs?$AA?9?$AAc?$AAz@ 0000000180029ca8     libucrt:lcidtoname_downlevel.obj
 0002:00007cb8       ??_C@_1M@DHBHFONH@?$AAc?$AAy?$AA?9?$AAg?$AAb@ 0000000180029cb8     libucrt:lcidtoname_downlevel.obj
 0002:00007cc8       ??_C@_1M@IMGKELGA@?$AAd?$AAa?$AA?9?$AAd?$AAk@ 0000000180029cc8     libucrt:lcidtoname_downlevel.obj
 0002:00007cd8       ??_C@_1M@NNDGDNGA@?$AAd?$AAe?$AA?9?$AAa?$AAt@ 0000000180029cd8     libucrt:lcidtoname_downlevel.obj
 0002:00007ce8       ??_C@_1M@IKDBHEEM@?$AAd?$AAe?$AA?9?$AAc?$AAh@ 0000000180029ce8     libucrt:lcidtoname_downlevel.obj
 0002:00007cf8       ??_C@_1M@GFFOJMCJ@?$AAd?$AAe?$AA?9?$AAd?$AAe@ 0000000180029cf8     libucrt:lcidtoname_downlevel.obj
 0002:00007d08       ??_C@_1M@MDNLKBPM@?$AAd?$AAe?$AA?9?$AAl?$AAi@ 0000000180029d08     libucrt:lcidtoname_downlevel.obj
 0002:00007d18       ??_C@_1M@NJBEEJNL@?$AAd?$AAe?$AA?9?$AAl?$AAu@ 0000000180029d18     libucrt:lcidtoname_downlevel.obj
 0002:00007d28       ??_C@_1O@GNNELBAP@?$AAd?$AAi?$AAv?$AA?9?$AAm?$AAv@ 0000000180029d28     libucrt:lcidtoname_downlevel.obj
 0002:00007d38       ??_C@_1M@EJLEOGAE@?$AAe?$AAl?$AA?9?$AAg?$AAr@ 0000000180029d38     libucrt:lcidtoname_downlevel.obj
 0002:00007d48       ??_C@_1M@GMPONJN@?$AAe?$AAn?$AA?9?$AAa?$AAu@ 0000000180029d48     libucrt:lcidtoname_downlevel.obj
 0002:00007d58       ??_C@_1M@NIDIIPGF@?$AAe?$AAn?$AA?9?$AAb?$AAz@ 0000000180029d58     libucrt:lcidtoname_downlevel.obj
 0002:00007d68       ??_C@_1M@JEHMIMFO@?$AAe?$AAn?$AA?9?$AAc?$AAa@ 0000000180029d68     libucrt:lcidtoname_downlevel.obj
 0002:00007d78       ??_C@_1M@IGMJCDLA@?$AAe?$AAn?$AA?9?$AAc?$AAb@ 0000000180029d78     libucrt:lcidtoname_downlevel.obj
 0002:00007d88       ??_C@_1M@BNFIGBKG@?$AAe?$AAn?$AA?9?$AAg?$AAb@ 0000000180029d88     libucrt:lcidtoname_downlevel.obj
 0002:00007d98       ??_C@_1M@LKIFDIGP@?$AAe?$AAn?$AA?9?$AAi?$AAe@ 0000000180029d98     libucrt:lcidtoname_downlevel.obj
 0002:00007da8       ??_C@_1M@PJKFGCCO@?$AAe?$AAn?$AA?9?$AAj?$AAm@ 0000000180029da8     libucrt:lcidtoname_downlevel.obj
 0002:00007db8       ??_C@_1M@KPPKEPBO@?$AAe?$AAn?$AA?9?$AAn?$AAz@ 0000000180029db8     libucrt:lcidtoname_downlevel.obj
 0002:00007dc8       ??_C@_1M@GMDGLDOB@?$AAe?$AAn?$AA?9?$AAp?$AAh@ 0000000180029dc8     libucrt:lcidtoname_downlevel.obj
 0002:00007dd8       ??_C@_1M@ONGIBJNA@?$AAe?$AAn?$AA?9?$AAt?$AAt@ 0000000180029dd8     libucrt:lcidtoname_downlevel.obj
 0002:00007de8       ??_C@_1M@LLODPCMM@?$AAe?$AAn?$AA?9?$AAu?$AAs@ 0000000180029de8     libucrt:lcidtoname_downlevel.obj
 0002:00007df8       ??_C@_1M@LAKFNPAN@?$AAe?$AAn?$AA?9?$AAz?$AAa@ 0000000180029df8     libucrt:lcidtoname_downlevel.obj
 0002:00007e08       ??_C@_1M@MFNHNHEO@?$AAe?$AAn?$AA?9?$AAz?$AAw@ 0000000180029e08     libucrt:lcidtoname_downlevel.obj
 0002:00007e18       ??_C@_1M@EJEINPHM@?$AAe?$AAs?$AA?9?$AAa?$AAr@ 0000000180029e18     libucrt:lcidtoname_downlevel.obj
 0002:00007e28       ??_C@_1M@GNKPCCJA@?$AAe?$AAs?$AA?9?$AAb?$AAo@ 0000000180029e28     libucrt:lcidtoname_downlevel.obj
 0002:00007e38       ??_C@_1M@LEEGFONL@?$AAe?$AAs?$AA?9?$AAc?$AAl@ 0000000180029e38     libucrt:lcidtoname_downlevel.obj
 0002:00007e48       ??_C@_1M@KGPDPBDF@?$AAe?$AAs?$AA?9?$AAc?$AAo@ 0000000180029e48     libucrt:lcidtoname_downlevel.obj
 0002:00007e58       ??_C@_1M@EIAHOHH@?$AAe?$AAs?$AA?9?$AAc?$AAr@ 0000000180029e58     libucrt:lcidtoname_downlevel.obj
 0002:00007e68       ??_C@_1M@LLPGMBIN@?$AAe?$AAs?$AA?9?$AAd?$AAo@ 0000000180029e68     libucrt:lcidtoname_downlevel.obj
 0002:00007e78       ??_C@_1M@DKHMKNJA@?$AAe?$AAs?$AA?9?$AAe?$AAc@ 0000000180029e78     libucrt:lcidtoname_downlevel.obj
 0002:00007e88       ??_C@_1M@GKGFPKAP@?$AAe?$AAs?$AA?9?$AAe?$AAs@ 0000000180029e88     libucrt:lcidtoname_downlevel.obj
 0002:00007e98       ??_C@_1M@LKHKGDLN@?$AAe?$AAs?$AA?9?$AAg?$AAt@ 0000000180029e98     libucrt:lcidtoname_downlevel.obj
 0002:00007ea8       ??_C@_1M@HEIIGGJD@?$AAe?$AAs?$AA?9?$AAh?$AAn@ 0000000180029ea8     libucrt:lcidtoname_downlevel.obj
 0002:00007eb8       ??_C@_1M@FBDHPPGD@?$AAe?$AAs?$AA?9?$AAm?$AAx@ 0000000180029eb8     libucrt:lcidtoname_downlevel.obj
 0002:00007ec8       ??_C@_1M@DPAGLNDH@?$AAe?$AAs?$AA?9?$AAn?$AAi@ 0000000180029ec8     libucrt:lcidtoname_downlevel.obj
 0002:00007ed8       ??_C@_1M@MDGOPGDD@?$AAe?$AAs?$AA?9?$AAp?$AAa@ 0000000180029ed8     libucrt:lcidtoname_downlevel.obj
 0002:00007ee8       ??_C@_1M@EMAMGBGE@?$AAe?$AAs?$AA?9?$AAp?$AAe@ 0000000180029ee8     libucrt:lcidtoname_downlevel.obj
 0002:00007ef8       ??_C@_1M@IBMCAOEC@?$AAe?$AAs?$AA?9?$AAp?$AAr@ 0000000180029ef8     libucrt:lcidtoname_downlevel.obj
 0002:00007f08       ??_C@_1M@FGMDIJED@?$AAe?$AAs?$AA?9?$AAp?$AAy@ 0000000180029f08     libucrt:lcidtoname_downlevel.obj
 0002:00007f18       ??_C@_1M@IIDEOLLL@?$AAe?$AAs?$AA?9?$AAs?$AAv@ 0000000180029f18     libucrt:lcidtoname_downlevel.obj
 0002:00007f28       ??_C@_1M@GAOBIPA@?$AAe?$AAs?$AA?9?$AAu?$AAy@ 0000000180029f28     libucrt:lcidtoname_downlevel.obj
 0002:00007f38       ??_C@_1M@JKFFICHJ@?$AAe?$AAs?$AA?9?$AAv?$AAe@ 0000000180029f38     libucrt:lcidtoname_downlevel.obj
 0002:00007f48       ??_C@_1M@PNMLOJDF@?$AAe?$AAt?$AA?9?$AAe?$AAe@ 0000000180029f48     libucrt:lcidtoname_downlevel.obj
 0002:00007f58       ??_C@_1M@GHHLIKEI@?$AAe?$AAu?$AA?9?$AAe?$AAs@ 0000000180029f58     libucrt:lcidtoname_downlevel.obj
 0002:00007f68       ??_C@_1M@PBNONODE@?$AAf?$AAa?$AA?9?$AAi?$AAr@ 0000000180029f68     libucrt:lcidtoname_downlevel.obj
 0002:00007f78       ??_C@_1M@JEEHPMIL@?$AAf?$AAi?$AA?9?$AAf?$AAi@ 0000000180029f78     libucrt:lcidtoname_downlevel.obj
 0002:00007f88       ??_C@_1M@LMDCNDBA@?$AAf?$AAo?$AA?9?$AAf?$AAo@ 0000000180029f88     libucrt:lcidtoname_downlevel.obj
 0002:00007f98       ??_C@_1M@JKEOHLDK@?$AAf?$AAr?$AA?9?$AAb?$AAe@ 0000000180029f98     libucrt:lcidtoname_downlevel.obj
 0002:00007fa8       ??_C@_1M@NOHADPMI@?$AAf?$AAr?$AA?9?$AAc?$AAa@ 0000000180029fa8     libucrt:lcidtoname_downlevel.obj
 0002:00007fb8       ??_C@_1M@KDHIHAEC@?$AAf?$AAr?$AA?9?$AAc?$AAh@ 0000000180029fb8     libucrt:lcidtoname_downlevel.obj
 0002:00007fc8       ??_C@_1M@MMBBFGAK@?$AAf?$AAr?$AA?9?$AAf?$AAr@ 0000000180029fc8     libucrt:lcidtoname_downlevel.obj
 0002:00007fd8       ??_C@_1M@PAFNENNF@?$AAf?$AAr?$AA?9?$AAl?$AAu@ 0000000180029fd8     libucrt:lcidtoname_downlevel.obj
 0002:00007fe8       ??_C@_1M@EOHDJGDD@?$AAf?$AAr?$AA?9?$AAm?$AAc@ 0000000180029fe8     libucrt:lcidtoname_downlevel.obj
 0002:00007ff8       ??_C@_1M@FAPLLOPF@?$AAg?$AAl?$AA?9?$AAe?$AAs@ 0000000180029ff8     libucrt:lcidtoname_downlevel.obj
 0002:00008008       ??_C@_1M@FOPBFLOO@?$AAg?$AAu?$AA?9?$AAi?$AAn@ 000000018002a008     libucrt:lcidtoname_downlevel.obj
 0002:00008018       ??_C@_1M@KBMCINPM@?$AAh?$AAe?$AA?9?$AAi?$AAl@ 000000018002a018     libucrt:lcidtoname_downlevel.obj
 0002:00008028       ??_C@_1M@BBPHKFPJ@?$AAh?$AAi?$AA?9?$AAi?$AAn@ 000000018002a028     libucrt:lcidtoname_downlevel.obj
 0002:00008038       ??_C@_1M@PMBNDPHD@?$AAh?$AAr?$AA?9?$AAb?$AAa@ 000000018002a038     libucrt:lcidtoname_downlevel.obj
 0002:00008048       ??_C@_1M@BPCKOEGE@?$AAh?$AAr?$AA?9?$AAh?$AAr@ 000000018002a048     libucrt:lcidtoname_downlevel.obj
 0002:00008058       ??_C@_1M@GACBMHKE@?$AAh?$AAu?$AA?9?$AAh?$AAu@ 000000018002a058     libucrt:lcidtoname_downlevel.obj
 0002:00008068       ??_C@_1M@MILPAJJC@?$AAh?$AAy?$AA?9?$AAa?$AAm@ 000000018002a068     libucrt:lcidtoname_downlevel.obj
 0002:00008078       ??_C@_1M@BABBICEC@?$AAi?$AAd?$AA?9?$AAi?$AAd@ 000000018002a078     libucrt:lcidtoname_downlevel.obj
 0002:00008088       ??_C@_1M@BIKNHHPF@?$AAi?$AAs?$AA?9?$AAi?$AAs@ 000000018002a088     libucrt:lcidtoname_downlevel.obj
 0002:00008098       ??_C@_1M@NMPCJPHE@?$AAi?$AAt?$AA?9?$AAc?$AAh@ 000000018002a098     libucrt:lcidtoname_downlevel.obj
 0002:000080a8       ??_C@_1M@GHKGFEDF@?$AAi?$AAt?$AA?9?$AAi?$AAt@ 000000018002a0a8     libucrt:lcidtoname_downlevel.obj
 0002:000080b8       ??_C@_1M@NIEJCJJA@?$AAj?$AAa?$AA?9?$AAj?$AAp@ 000000018002a0b8     libucrt:lcidtoname_downlevel.obj
 0002:000080c8       ??_C@_1M@JILFNBIM@?$AAk?$AAa?$AA?9?$AAg?$AAe@ 000000018002a0c8     libucrt:lcidtoname_downlevel.obj
 0002:000080d8       ??_C@_1M@PACPMGPH@?$AAk?$AAk?$AA?9?$AAk?$AAz@ 000000018002a0d8     libucrt:lcidtoname_downlevel.obj
 0002:000080e8       ??_C@_1M@IELFGMHA@?$AAk?$AAn?$AA?9?$AAi?$AAn@ 000000018002a0e8     libucrt:lcidtoname_downlevel.obj
 0002:000080f8       ??_C@_1O@IBBJHCH@?$AAk?$AAo?$AAk?$AA?9?$AAi?$AAn@ 000000018002a0f8     libucrt:lcidtoname_downlevel.obj
 0002:00008108       ??_C@_1M@DMHAEOGC@?$AAk?$AAo?$AA?9?$AAk?$AAr@ 000000018002a108     libucrt:lcidtoname_downlevel.obj
 0002:00008118       ??_C@_1M@HBAHBIGA@?$AAk?$AAy?$AA?9?$AAk?$AAg@ 000000018002a118     libucrt:lcidtoname_downlevel.obj
 0002:00008128       ??_C@_1M@KPMILCJG@?$AAl?$AAt?$AA?9?$AAl?$AAt@ 000000018002a128     libucrt:lcidtoname_downlevel.obj
 0002:00008138       ??_C@_1M@BDEKKCA@?$AAl?$AAv?$AA?9?$AAl?$AAv@ 000000018002a138     libucrt:lcidtoname_downlevel.obj
 0002:00008148       ??_C@_1M@ELCKCCJJ@?$AAm?$AAi?$AA?9?$AAn?$AAz@ 000000018002a148     libucrt:lcidtoname_downlevel.obj
 0002:00008158       ??_C@_1M@CBOOLAPA@?$AAm?$AAk?$AA?9?$AAm?$AAk@ 000000018002a158     libucrt:lcidtoname_downlevel.obj
 0002:00008168       ??_C@_1M@GPHNBJKN@?$AAm?$AAl?$AA?9?$AAi?$AAn@ 000000018002a168     libucrt:lcidtoname_downlevel.obj
 0002:00008178       ??_C@_1M@PABJILIG@?$AAm?$AAn?$AA?9?$AAm?$AAn@ 000000018002a178     libucrt:lcidtoname_downlevel.obj
 0002:00008188       ??_C@_1M@FGBKKIPG@?$AAm?$AAr?$AA?9?$AAi?$AAn@ 000000018002a188     libucrt:lcidtoname_downlevel.obj
 0002:00008198       ??_C@_1M@NDBPDDAL@?$AAm?$AAs?$AA?9?$AAb?$AAn@ 000000018002a198     libucrt:lcidtoname_downlevel.obj
 0002:000081a8       ??_C@_1M@OPIHOOPI@?$AAm?$AAs?$AA?9?$AAm?$AAy@ 000000018002a1a8     libucrt:lcidtoname_downlevel.obj
 0002:000081b8       ??_C@_1M@PPDBCNFM@?$AAm?$AAt?$AA?9?$AAm?$AAt@ 000000018002a1b8     libucrt:lcidtoname_downlevel.obj
 0002:000081c8       ??_C@_1M@KDJDKMDD@?$AAn?$AAb?$AA?9?$AAn?$AAo@ 000000018002a1c8     libucrt:lcidtoname_downlevel.obj
 0002:000081d8       ??_C@_1M@KFCFLMJP@?$AAn?$AAl?$AA?9?$AAb?$AAe@ 000000018002a1d8     libucrt:lcidtoname_downlevel.obj
 0002:000081e8       ??_C@_1M@KPOPDDGO@?$AAn?$AAl?$AA?9?$AAn?$AAl@ 000000018002a1e8     libucrt:lcidtoname_downlevel.obj
 0002:000081f8       ??_C@_1M@LJKPEMLN@?$AAn?$AAn?$AA?9?$AAn?$AAo@ 000000018002a1f8     libucrt:lcidtoname_downlevel.obj
 0002:00008208       ??_C@_1M@BDGHHBFL@?$AAn?$AAs?$AA?9?$AAz?$AAa@ 000000018002a208     libucrt:lcidtoname_downlevel.obj
 0002:00008218       ??_C@_1M@IDEHOAP@?$AAp?$AAa?$AA?9?$AAi?$AAn@ 000000018002a218     libucrt:lcidtoname_downlevel.obj
 0002:00008228       ??_C@_1M@HDBKGOGH@?$AAp?$AAl?$AA?9?$AAp?$AAl@ 000000018002a228     libucrt:lcidtoname_downlevel.obj
 0002:00008238       ??_C@_1M@LJLLCMEH@?$AAp?$AAt?$AA?9?$AAb?$AAr@ 000000018002a238     libucrt:lcidtoname_downlevel.obj
 0002:00008248       ??_C@_1M@NCMONAAL@?$AAp?$AAt?$AA?9?$AAp?$AAt@ 000000018002a248     libucrt:lcidtoname_downlevel.obj
 0002:00008258       ??_C@_1O@EAKMAJDN@?$AAq?$AAu?$AAz?$AA?9?$AAb?$AAo@ 000000018002a258     libucrt:lcidtoname_downlevel.obj
 0002:00008268       ??_C@_1O@BHHPIGDN@?$AAq?$AAu?$AAz?$AA?9?$AAe?$AAc@ 000000018002a268     libucrt:lcidtoname_downlevel.obj
 0002:00008278       ??_C@_1O@GBAPEKMJ@?$AAq?$AAu?$AAz?$AA?9?$AAp?$AAe@ 000000018002a278     libucrt:lcidtoname_downlevel.obj
 0002:00008288       ??_C@_1M@CLGLEFBO@?$AAr?$AAo?$AA?9?$AAr?$AAo@ 000000018002a288     libucrt:lcidtoname_downlevel.obj
 0002:00008298       ??_C@_1M@CEEDODME@?$AAr?$AAu?$AA?9?$AAr?$AAu@ 000000018002a298     libucrt:lcidtoname_downlevel.obj
 0002:000082a8       ??_C@_1M@HPKKKMPP@?$AAs?$AAa?$AA?9?$AAi?$AAn@ 000000018002a2a8     libucrt:lcidtoname_downlevel.obj
 0002:000082b8       ??_C@_1M@BKMAIGOJ@?$AAs?$AAe?$AA?9?$AAf?$AAi@ 000000018002a2b8     libucrt:lcidtoname_downlevel.obj
 0002:000082c8       ??_C@_1M@NDPIFLFI@?$AAs?$AAe?$AA?9?$AAn?$AAo@ 000000018002a2c8     libucrt:lcidtoname_downlevel.obj
 0002:000082d8       ??_C@_1M@DANKKHJ@?$AAs?$AAe?$AA?9?$AAs?$AAe@ 000000018002a2d8     libucrt:lcidtoname_downlevel.obj
 0002:000082e8       ??_C@_1M@PNBLONPJ@?$AAs?$AAk?$AA?9?$AAs?$AAk@ 000000018002a2e8     libucrt:lcidtoname_downlevel.obj
 0002:000082f8       ??_C@_1M@LFMODOAL@?$AAs?$AAl?$AA?9?$AAs?$AAi@ 000000018002a2f8     libucrt:lcidtoname_downlevel.obj
 0002:00008308       ??_C@_1O@DFKOMPG@?$AAs?$AAm?$AAa?$AA?9?$AAn?$AAo@ 000000018002a308     libucrt:lcidtoname_downlevel.obj
 0002:00008318       ??_C@_1O@NDKPBNNH@?$AAs?$AAm?$AAa?$AA?9?$AAs?$AAe@ 000000018002a318     libucrt:lcidtoname_downlevel.obj
 0002:00008328       ??_C@_1O@PLLKBHAB@?$AAs?$AAm?$AAj?$AA?9?$AAn?$AAo@ 000000018002a328     libucrt:lcidtoname_downlevel.obj
 0002:00008338       ??_C@_1O@CLEPOGCA@?$AAs?$AAm?$AAj?$AA?9?$AAs?$AAe@ 000000018002a338     libucrt:lcidtoname_downlevel.obj
 0002:00008348       ??_C@_1O@DLGJGKMK@?$AAs?$AAm?$AAn?$AA?9?$AAf?$AAi@ 000000018002a348     libucrt:lcidtoname_downlevel.obj
 0002:00008358       ??_C@_1O@OJDJGAJC@?$AAs?$AAm?$AAs?$AA?9?$AAf?$AAi@ 000000018002a358     libucrt:lcidtoname_downlevel.obj
 0002:00008368       ??_C@_1M@BOFOGHPB@?$AAs?$AAq?$AA?9?$AAa?$AAl@ 000000018002a368     libucrt:lcidtoname_downlevel.obj
 0002:00008378       ??_C@_1BG@LJBBIPGB@?$AAs?$AAr?$AA?9?$AAb?$AAa?$AA?9?$AAc?$AAy?$AAr?$AAl@ 000000018002a378     libucrt:lcidtoname_downlevel.obj
 0002:00008390       ??_C@_1BG@JLBENFOE@?$AAs?$AAr?$AA?9?$AAb?$AAa?$AA?9?$AAl?$AAa?$AAt?$AAn@ 000000018002a390     libucrt:lcidtoname_downlevel.obj
 0002:000083a8       ??_C@_1BG@KODPNHE@?$AAs?$AAr?$AA?9?$AAs?$AAp?$AA?9?$AAc?$AAy?$AAr?$AAl@ 000000018002a3a8     libucrt:lcidtoname_downlevel.obj
 0002:000083c0       ??_C@_1BG@CIOGKHPB@?$AAs?$AAr?$AA?9?$AAs?$AAp?$AA?9?$AAl?$AAa?$AAt?$AAn@ 000000018002a3c0     libucrt:lcidtoname_downlevel.obj
 0002:000083d8       ??_C@_1M@NGFJLMAC@?$AAs?$AAv?$AA?9?$AAf?$AAi@ 000000018002a3d8     libucrt:lcidtoname_downlevel.obj
 0002:000083e8       ??_C@_1M@MPJEJAJC@?$AAs?$AAv?$AA?9?$AAs?$AAe@ 000000018002a3e8     libucrt:lcidtoname_downlevel.obj
 0002:000083f8       ??_C@_1M@MPNDHLFK@?$AAs?$AAw?$AA?9?$AAk?$AAe@ 000000018002a3f8     libucrt:lcidtoname_downlevel.obj
 0002:00008408       ??_C@_1O@KOHBJJI@?$AAs?$AAy?$AAr?$AA?9?$AAs?$AAy@ 000000018002a408     libucrt:lcidtoname_downlevel.obj
 0002:00008418       ??_C@_1M@LDCEFHA@?$AAt?$AAa?$AA?9?$AAi?$AAn@ 000000018002a418     libucrt:lcidtoname_downlevel.obj
 0002:00008428       ??_C@_1M@CNJOFAK@?$AAt?$AAe?$AA?9?$AAi?$AAn@ 000000018002a428     libucrt:lcidtoname_downlevel.obj
 0002:00008438       ??_C@_1M@GNAECACD@?$AAt?$AAh?$AA?9?$AAt?$AAh@ 000000018002a438     libucrt:lcidtoname_downlevel.obj
 0002:00008448       ??_C@_1M@CHBIHOJO@?$AAt?$AAn?$AA?9?$AAz?$AAa@ 000000018002a448     libucrt:lcidtoname_downlevel.obj
 0002:00008458       ??_C@_1M@GCCMIGPJ@?$AAt?$AAr?$AA?9?$AAt?$AAr@ 000000018002a458     libucrt:lcidtoname_downlevel.obj
 0002:00008468       ??_C@_1M@CELMCNBK@?$AAt?$AAt?$AA?9?$AAr?$AAu@ 000000018002a468     libucrt:lcidtoname_downlevel.obj
 0002:00008478       ??_C@_1M@KLMCELGA@?$AAu?$AAk?$AA?9?$AAu?$AAa@ 000000018002a478     libucrt:lcidtoname_downlevel.obj
 0002:00008488       ??_C@_1M@EPAJJAJF@?$AAu?$AAr?$AA?9?$AAp?$AAk@ 000000018002a488     libucrt:lcidtoname_downlevel.obj
 0002:00008498       ??_C@_1BG@GEGPMCDJ@?$AAu?$AAz?$AA?9?$AAu?$AAz?$AA?9?$AAc?$AAy?$AAr?$AAl@ 000000018002a498     libucrt:lcidtoname_downlevel.obj
 0002:000084b0       ??_C@_1BG@EGGKJILM@?$AAu?$AAz?$AA?9?$AAu?$AAz?$AA?9?$AAl?$AAa?$AAt?$AAn@ 000000018002a4b0     libucrt:lcidtoname_downlevel.obj
 0002:000084c8       ??_C@_1M@GFOCLFF@?$AAv?$AAi?$AA?9?$AAv?$AAn@ 000000018002a4c8     libucrt:lcidtoname_downlevel.obj
 0002:000084d8       ??_C@_1M@CPAMEDFI@?$AAx?$AAh?$AA?9?$AAz?$AAa@ 000000018002a4d8     libucrt:lcidtoname_downlevel.obj
 0002:000084e8       ??_C@_1O@EBKIFIGN@?$AAz?$AAh?$AA?9?$AAc?$AAh?$AAs@ 000000018002a4e8     libucrt:lcidtoname_downlevel.obj
 0002:000084f8       ??_C@_1O@NMHPGANE@?$AAz?$AAh?$AA?9?$AAc?$AAh?$AAt@ 000000018002a4f8     libucrt:lcidtoname_downlevel.obj
 0002:00008508       ??_C@_1M@LPINJOMC@?$AAz?$AAh?$AA?9?$AAc?$AAn@ 000000018002a508     libucrt:lcidtoname_downlevel.obj
 0002:00008518       ??_C@_1M@OCJEJODD@?$AAz?$AAh?$AA?9?$AAh?$AAk@ 000000018002a518     libucrt:lcidtoname_downlevel.obj
 0002:00008528       ??_C@_1M@DNDLJINH@?$AAz?$AAh?$AA?9?$AAm?$AAo@ 000000018002a528     libucrt:lcidtoname_downlevel.obj
 0002:00008538       ??_C@_1M@MBFDNDND@?$AAz?$AAh?$AA?9?$AAs?$AAg@ 000000018002a538     libucrt:lcidtoname_downlevel.obj
 0002:00008548       ??_C@_1M@IMEPLEPE@?$AAz?$AAh?$AA?9?$AAt?$AAw@ 000000018002a548     libucrt:lcidtoname_downlevel.obj
 0002:00008558       ??_C@_1M@BBGHNHJP@?$AAz?$AAu?$AA?9?$AAz?$AAa@ 000000018002a558     libucrt:lcidtoname_downlevel.obj
 0002:00008570       ?large_power_data@?1??multiply_by_power_of_ten@__crt_strtox@@YA_NAEAUbig_integer@2@I@Z@4QBIB 000000018002a570     libucrt:cfout.obj
 0002:00008f18       ?small_powers_of_ten@?1??multiply_by_power_of_ten@__crt_strtox@@YA_NAEAUbig_integer@2@I@Z@4QBIB 000000018002af18     libucrt:cfout.obj
 0002:00008f3c       ??_C@_01GBGANLPD@0@        000000018002af3c     libucrt:cfout.obj
 0002:00008f40       ??_C@_05DNEBIAHO@1?$CDINF@ 000000018002af40     libucrt:cfout.obj
 0002:00008f48       ??_C@_06IMKFLFPG@1?$CDQNAN@ 000000018002af48     libucrt:cfout.obj
 0002:00008f50       ??_C@_06PGGFOGJG@1?$CDSNAN@ 000000018002af50     libucrt:cfout.obj
 0002:00008f58       ??_C@_05PHHOCPM@1?$CDIND@  000000018002af58     libucrt:cfout.obj
 0002:00008f60       __real@3ff0000000000000    000000018002af60     libucrt:ceil.obj
 0002:000091c0       __log10_256_lead           000000018002b1c0     libucrt:log10_256_lead_tail_table.obj
 0002:000099d0       __log10_256_tail           000000018002b9d0     libucrt:log10_256_lead_tail_table.obj
 0002:0000a1e0       __log_F_inv_qword          000000018002c1e0     libucrt:log_f_inv_qword_table.obj
 0002:0000a9f0       ??_C@_05HGHHAHAP@log10@    000000018002c9f0     libucrt:log_special.obj
 0002:0000a9f8       ??_C@_1BA@BALFACEM@?$AAC?$AAO?$AAN?$AAO?$AAU?$AAT?$AA$@ 000000018002c9f8     libucrt:initcon.obj
 0002:0000aa80       _load_config_used          000000018002ca80     LIBCMT:loadcfg.obj
 0002:0000ab88       _tls_used                  000000018002cb88     LIBCMT:tlssup.obj
 0002:0000abb0       ??_R4exception@std@@6B@    000000018002cbb0     LIBCMT:throw_bad_alloc.obj
 0002:0000abd8       ??_R3exception@std@@8      000000018002cbd8     LIBCMT:throw_bad_alloc.obj
 0002:0000abf0       ??_R2exception@std@@8      000000018002cbf0     LIBCMT:throw_bad_alloc.obj
 0002:0000ac00       ??_R1A@?0A@EA@exception@std@@8 000000018002cc00     LIBCMT:throw_bad_alloc.obj
 0002:0000ac28       ??_R4bad_alloc@std@@6B@    000000018002cc28     LIBCMT:throw_bad_alloc.obj
 0002:0000ac50       ??_R3bad_alloc@std@@8      000000018002cc50     LIBCMT:throw_bad_alloc.obj
 0002:0000ac68       ??_R2bad_alloc@std@@8      000000018002cc68     LIBCMT:throw_bad_alloc.obj
 0002:0000ac80       ??_R1A@?0A@EA@bad_alloc@std@@8 000000018002cc80     LIBCMT:throw_bad_alloc.obj
 0002:0000aca8       ??_R4bad_array_new_length@std@@6B@ 000000018002cca8     LIBCMT:throw_bad_alloc.obj
 0002:0000acd0       ??_R3bad_array_new_length@std@@8 000000018002ccd0     LIBCMT:throw_bad_alloc.obj
 0002:0000ace8       ??_R2bad_array_new_length@std@@8 000000018002cce8     LIBCMT:throw_bad_alloc.obj
 0002:0000ad08       ??_R1A@?0A@EA@bad_array_new_length@std@@8 000000018002cd08     LIBCMT:throw_bad_alloc.obj
 0002:0000ad30       ??_R4type_info@@6B@        000000018002cd30     LIBCMT:std_type_info_static.obj
 0002:0000ad58       ??_R3type_info@@8          000000018002cd58     LIBCMT:std_type_info_static.obj
 0002:0000ad70       ??_R2type_info@@8          000000018002cd70     LIBCMT:std_type_info_static.obj
 0002:0000ad80       ??_R1A@?0A@EA@type_info@@8 000000018002cd80     LIBCMT:std_type_info_static.obj
 0002:0000ada8       ??_R4bad_exception@std@@6B@ 000000018002cda8     libvcruntime:frame.obj
 0002:0000add0       ??_R3bad_exception@std@@8  000000018002cdd0     libvcruntime:frame.obj
 0002:0000ade8       ??_R2bad_exception@std@@8  000000018002cde8     libvcruntime:frame.obj
 0002:0000ae00       ??_R1A@?0A@EA@bad_exception@std@@8 000000018002ce00     libvcruntime:frame.obj
 0002:0000b228       __rtc_iaa                  000000018002d228     LIBCMT:initsect.obj
 0002:0000b230       __rtc_izz                  000000018002d230     LIBCMT:initsect.obj
 0002:0000b238       __rtc_taa                  000000018002d238     LIBCMT:initsect.obj
 0002:0000b240       __rtc_tzz                  000000018002d240     LIBCMT:initsect.obj
 0002:0000b248       _tls_start                 000000018002d248     LIBCMT:tlssup.obj
 0002:0000b24c       _Init_thread_epoch         000000018002d24c     LIBCMT:thread_safe_statics.obj
 0002:0000b250       _tls_end                   000000018002d250     LIBCMT:tlssup.obj
 0002:0000c8a8       _TI2?AVbad_alloc@std@@     000000018002e8a8     LIBCMT:throw_bad_alloc.obj
 0002:0000c8c8       _CTA2?AVbad_alloc@std@@    000000018002e8c8     LIBCMT:throw_bad_alloc.obj
 0002:0000c8e0       _CT??_R0?AVbad_alloc@std@@@8??0bad_alloc@std@@QEAA@AEBV01@@Z24 000000018002e8e0     LIBCMT:throw_bad_alloc.obj
 0002:0000c908       _CT??_R0?AVexception@std@@@8??0exception@std@@QEAA@AEBV01@@Z24 000000018002e908     LIBCMT:throw_bad_alloc.obj
 0002:0000c930       _TI3?AVbad_array_new_length@std@@ 000000018002e930     LIBCMT:throw_bad_alloc.obj
 0002:0000c950       _CTA3?AVbad_array_new_length@std@@ 000000018002e950     LIBCMT:throw_bad_alloc.obj
 0002:0000c970       _CT??_R0?AVbad_array_new_length@std@@@8??0bad_array_new_length@std@@QEAA@AEBV01@@Z24 000000018002e970     LIBCMT:throw_bad_alloc.obj
 0002:0000c998       _TI2?AVbad_exception@std@@ 000000018002e998     libvcruntime:frame.obj
 0002:0000c9b8       _CTA2?AVbad_exception@std@@ 000000018002e9b8     libvcruntime:frame.obj
 0002:0000c9d0       _CT??_R0?AVbad_exception@std@@@8??0bad_exception@std@@QEAA@AEBV01@@Z24 000000018002e9d0     libvcruntime:frame.obj
 0002:0000c9f8       __pobjMapEntryFirst        000000018002e9f8     OposVariant.obj
 0002:0000ca00       __pobjMapEntryLast         000000018002ea00     OposVariant.obj
 0002:0000cab8       __IMPORT_DESCRIPTOR_KERNEL32 000000018002eab8     kernel32:KERNEL32.dll
 0002:0000cacc       __IMPORT_DESCRIPTOR_USER32 000000018002eacc     user32:USER32.dll
 0002:0000cae0       __IMPORT_DESCRIPTOR_GDI32  000000018002eae0     gdi32:GDI32.dll
 0002:0000caf4       __IMPORT_DESCRIPTOR_ADVAPI32 000000018002eaf4     advapi32:ADVAPI32.dll
 0002:0000cb08       __IMPORT_DESCRIPTOR_ole32  000000018002eb08     ole32:ole32.dll
 0002:0000cb1c       __IMPORT_DESCRIPTOR_OLEAUT32 000000018002eb1c     oleaut32:OLEAUT32.dll
 0002:0000cb30       __NULL_IMPORT_DESCRIPTOR   000000018002eb30     kernel32:KERNEL32.dll
 0003:00000000       ?_tih@?$IDispatchImpl@UIOPOSTotals@@$1?IID_IOPOSTotals@@3U_GUID@@B$1?LIBID_OposTotals_CCO@@3U3@B$00$0A@VCComTypeInfoHolder@ATL@@@ATL@@1VCComTypeInfoHolder@2@A 0000000180030000     Totals.obj
 0003:00000038       ?_tih@?$IProvideClassInfo2Impl@$1?CLSID_OPOSTotals@@3U_GUID@@B$1?DIID__IOPOSTotalsEvents@@3U2@B$1?LIBID_OposTotals_CCO@@3U2@B$00$0A@VCComTypeInfoHolder@ATL@@@ATL@@1VCComTypeInfoHolder@2@A 0000000180030038     Totals.obj
 0003:00000070       ?vszContents@?6??Save@?$IPersistStorageImpl@VCOPOSTotals@@@ATL@@UEAAJPEAUIStorage@@H@Z@4PEB_WEB 0000000180030070     Totals.obj
 0003:00000080       ?wc@?1??GetWndClassInfo@?$CWindowImpl@VCOPOSTotals@@VCWindow@ATL@@V?$CWinTraits@$0FGAAAAAA@$0A@@3@@ATL@@SAAEAU_ATL_WNDCLASSINFOW@3@XZ@4U43@A 0000000180030080     Totals.obj
 0003:00000178       ?rcDefault@CWindow@ATL@@2UtagRECT@@A 0000000180030178     Totals.obj
 0003:00000188       ?s_Claim@?7??GetIDsOfNames@CComTypeInfoHolder@ATL@@QEAAJAEBU_GUID@@PEAPEA_WIKPEAJ@Z@4PA_WA 0000000180030188     Totals.obj
 0003:000001a0       ?s_Release@?7??GetIDsOfNames@CComTypeInfoHolder@ATL@@QEAAJAEBU_GUID@@PEAPEA_WIKPEAJ@Z@4PA_WA 00000001800301a0     Totals.obj
 0003:00000250       ?g_WindowName@@3PA_WA      0000000180030250     TotalsImpl.obj
 0003:0000026c       ?g_ControlVersion@@3JA     000000018003026c     TotalsImpl.obj
 0003:00000270       ?g_ControlDescription@@3PADA 0000000180030270     TotalsImpl.obj
 0003:000003e8       __scrt_native_dllmain_reason 00000001800303e8     LIBCMT:utility.obj
 0003:000003ec       _Init_global_epoch         00000001800303ec     LIBCMT:thread_safe_statics.obj
 0003:000003f0       __security_cookie_complement 00000001800303f0     LIBCMT:gs_cookie.obj
 0003:000003f8       __security_cookie          00000001800303f8     LIBCMT:gs_cookie.obj
 0003:00000400       __isa_available            0000000180030400     LIBCMT:cpu_disp.obj
 0003:00000404       __isa_enabled              0000000180030404     LIBCMT:cpu_disp.obj
 0003:00000408       __memcpy_nt_iters          0000000180030408     LIBCMT:cpu_disp.obj
 0003:00000410       __memset_nt_iters          0000000180030410     LIBCMT:cpu_disp.obj
 0003:00000438       __abort_behavior           0000000180030438     libucrt:abort.obj
 0003:00000450       _iob                       0000000180030450     libucrt:_file.obj
 0003:00000560       __acrt_initial_locale_data 0000000180030560     libucrt:nlsdata.obj
 0003:000006b8       __acrt_initial_locale_pointers 00000001800306b8     libucrt:nlsdata.obj
 0003:000006c8       __acrt_wide_c_locale_string 00000001800306c8     libucrt:nlsdata.obj
 0003:000006d0       __acrt_initial_multibyte_data 00000001800306d0     libucrt:mbctype.obj
 0003:00000c10       _pwctype                   0000000180030c10     libucrt:ctype.obj
 0003:00000c18       __globallocalestatus       0000000180030c18     libucrt:glstatus.obj
 0003:00000c20       __acrt_lconv_c             0000000180030c20     libucrt:localeconv.obj
 0003:00000cb8       __acrt_lconv_static_decimal 0000000180030cb8     libucrt:localeconv.obj
 0003:00000cbc       __acrt_lconv_static_W_decimal 0000000180030cbc     libucrt:localeconv.obj
 0003:00000cc0       _lookuptrailbytes          0000000180030cc0     libucrt:read.obj
 0003:00000dd4       _fltused                   0000000180030dd4     LIBCMT:fltused.obj
 0003:00000dd8       ??_R0?AVbad_alloc@std@@@8  0000000180030dd8     LIBCMT:throw_bad_alloc.obj
 0003:00000e00       ??_R0?AVexception@std@@@8  0000000180030e00     LIBCMT:throw_bad_alloc.obj
 0003:00000e28       ??_R0?AVbad_array_new_length@std@@@8 0000000180030e28     LIBCMT:throw_bad_alloc.obj
 0003:00000e58       ??_R0?AVtype_info@@@8      0000000180030e58     LIBCMT:std_type_info_static.obj
 0003:00000e78       ??_R0?AVbad_exception@std@@@8 0000000180030e78     libvcruntime:frame.obj
 0003:00000ea0       ?_pPerfRegFunc@ATL@@3P6AJPEAUHINSTANCE__@@@ZEA 0000000180030ea0     OposVariant.obj
 0003:00000ea8       ?_pPerfUnRegFunc@ATL@@3P6AJXZEA 0000000180030ea8     OposVariant.obj
 0003:00000eb0       ?_AtlRegisterPerUser@ATL@@3_NA 0000000180030eb0     OposVariant.obj
 0003:00000eb8       ?_pAtlModule@ATL@@3PEAVCAtlModule@1@EA 0000000180030eb8     OposVariant.obj
 0003:00000ec0       ?_pModule@ATL@@3PEAVCComModule@1@EA 0000000180030ec0     OposVariant.obj
 0003:00000ec8       ?m_bInitFailed@CAtlBaseModule@ATL@@2_NA 0000000180030ec8     OposVariant.obj
 0003:00000ed0       ?_AtlComModule@ATL@@3VCAtlComModule@1@A 0000000180030ed0     OposVariant.obj
 0003:00000f20       ?_AtlWinModule@ATL@@3VCAtlWinModule@1@A 0000000180030f20     OposVariant.obj
 0003:00000f68       ?m_libid@CAtlModule@ATL@@2U_GUID@@A 0000000180030f68     Totals.obj
 0003:00000f78       ?_entries@?1??GetConnMap@COPOSTotals@@SAPEBU_ATL_CONNMAP_ENTRY@ATL@@PEAH@Z@4QBU34@B 0000000180030f78     Totals.obj
 0003:00000f90       ?$TSS0@?1??GetConnMap@COPOSTotals@@SAPEBU_ATL_CONNMAP_ENTRY@ATL@@PEAH@Z@4HA 0000000180030f90     Totals.obj
 0003:00000f98       ?_OptionsStorage@?1??__local_stdio_printf_options@@9@4_KA 0000000180030f98     Totals.obj
 0003:00000fa0       ?pfnRegDeleteKeyEx@?1??DeleteSubKey@CRegKey@ATL@@QEAAJPEB_W@Z@4P6AJPEAUHKEY__@@0KK@ZEA 0000000180030fa0     Totals.obj
 0003:00000fa8       ?bInitialized@?1??DeleteSubKey@CRegKey@ATL@@QEAAJPEB_W@Z@4_NA 0000000180030fa8     Totals.obj
 0003:00000fb0       ?_Module@@3VCComModule@ATL@@A 0000000180030fb0     Totals.obj
 0003:00001000       ?pConnMap@?$IConnectionPointContainerImpl@VCOPOSTotals@@@ATL@@0PEBU_ATL_CONNMAP_ENTRY@2@EB 0000000180031000     Totals.obj
 0003:00001008       ?s_nInstances@COPOSTotals@@1HA 0000000180031008     TotalsImpl.obj
 0003:00001010       __scrt_current_native_startup_state 0000000180031010     LIBCMT:utility.obj
 0003:00001018       __scrt_native_startup_lock 0000000180031018     LIBCMT:utility.obj
 0003:00001610       _tls_index                 0000000180031610     LIBCMT:tlssup.obj
 0003:00001618       __favor                    0000000180031618     LIBCMT:cpu_disp.obj
 0003:0000161c       __scrt_debugger_hook_flag  000000018003161c     LIBCMT:utility_desktop.obj
 0003:00001620       ?__type_info_root_node@@3U__type_info_node@@A 0000000180031620     LIBCMT:tncleanup.obj
 0003:00001630       ?_OptionsStorage@?1??__local_stdio_scanf_options@@9@4_KA 0000000180031630     LIBCMT:default_local_stdio_options.obj
 0003:00001640       ?_AtlBaseModule@ATL@@3VCAtlBaseModule@1@A 0000000180031640     atls:atlbase.obj
 0003:000016a0       ?__AtlThunkPool@@3PEAT_SLIST_HEADER@@EA 00000001800316a0     atls:atlthunk.obj
 0003:000016cc       __@@_PchSym_@00@UztvmgUPdlipUFUhUrmgvinvwrzgvUexgllohUzgohOmzgrevkilqPBACIAJCBDBUlyqiUznwGEUhgwzucOlyq@4B2008FD98C1DD4 00000001800316cc     atls:stdafx.obj
 0003:000016d0       ?__WinRTOutOfMemoryExceptionCallback@@3P6APEAXXZEA 00000001800316d0     libvcruntime:ehhelpers.obj
 0003:000016d8       __pPurecall                00000001800316d8     libvcruntime:purevirt_data.obj
 0003:00001790       ?pArgList@UnDecorator@@0PEAVReplicator@@EA 0000000180031790     libvcruntime:undname.obj
 0003:00001798       ?pZNameList@UnDecorator@@0PEAVReplicator@@EA 0000000180031798     libvcruntime:undname.obj
 0003:000017a0       ?pTemplateArgList@UnDecorator@@0PEAVReplicator@@EA 00000001800317a0     libvcruntime:undname.obj
 0003:000017a8       ?gName@UnDecorator@@0PEBDEB 00000001800317a8     libvcruntime:undname.obj
 0003:000017b0       ?name@UnDecorator@@0PEBDEB 00000001800317b0     libvcruntime:undname.obj
 0003:000017b8       ?disableFlags@UnDecorator@@0KA 00000001800317b8     libvcruntime:undname.obj
 0003:000017bc       ?fExplicitTemplateParams@UnDecorator@@0_NA 00000001800317bc     libvcruntime:undname.obj
 0003:000017bd       ?fGetTemplateArgumentList@UnDecorator@@0_NA 00000001800317bd     libvcruntime:undname.obj
 0003:000017c0       ?m_pGetParameter@UnDecorator@@0P6APEADJ@ZEA 00000001800317c0     libvcruntime:undname.obj
 0003:000017c8       ?m_CHPENameOffset@UnDecorator@@0KA 00000001800317c8     libvcruntime:undname.obj
 0003:000017cc       ?m_recursionLevel@UnDecorator@@0KA 00000001800317cc     libvcruntime:undname.obj
 0003:00001850       ?c_exit_complete@?1???R<lambda_6e4b09c48022b2350581041d5f6b0c4c>@@QEBA@XZ@4_NA 0000000180031850     libucrt:exit.obj
 0003:00001968       _environ_table             0000000180031968     libucrt:environment_initialization.obj
 0003:00001970       _wenviron_table            0000000180031970     libucrt:environment_initialization.obj
 0003:00001978       __dcrt_initial_wide_environment 0000000180031978     libucrt:environment_initialization.obj
 0003:00001980       __dcrt_initial_narrow_environment 0000000180031980     libucrt:environment_initialization.obj
 0003:00001988       __acrt_atexit_table        0000000180031988     libucrt:onexit.obj
 0003:000019a0       __acrt_at_quick_exit_table 00000001800319a0     libucrt:onexit.obj
 0003:00001b78       _nstream                   0000000180031b78     libucrt:_file.obj
 0003:00001b80       __piob                     0000000180031b80     libucrt:_file.obj
 0003:00001b90       __acrt_stdout_buffer       0000000180031b90     libucrt:_sftbuf.obj
 0003:00001b98       __acrt_stderr_buffer       0000000180031b98     libucrt:_sftbuf.obj
 0003:00001ba0       __acrt_locale_changed_data 0000000180031ba0     libucrt:wsetlocale.obj
 0003:00001ba8       __acrt_current_locale_data 0000000180031ba8     libucrt:nlsdata.obj
 0003:00001bb0       __pioinfo                  0000000180031bb0     libucrt:ioinit.obj
 0003:00001fb0       _nhandle                   0000000180031fb0     libucrt:ioinit.obj
 0003:000021f8       _mbctype                   00000001800321f8     libucrt:mbctype.obj
 0003:00002200       _mbcasemap                 0000000180032200     libucrt:mbctype.obj
 0003:00002208       __acrt_current_multibyte_data 0000000180032208     libucrt:mbctype.obj
 0003:00002218       _pgmptr                    0000000180032218     libucrt:argv_data.obj
 0003:00002220       __argc                     0000000180032220     libucrt:argv_data.obj
 0003:00002228       __argv                     0000000180032228     libucrt:argv_data.obj
 0003:00002230       __wargv                    0000000180032230     libucrt:argv_data.obj
 0003:00002238       _acmdln                    0000000180032238     libucrt:argv_data.obj
 0003:00002240       _wcmdln                    0000000180032240     libucrt:argv_data.obj
 0003:00002248       __acrt_heap                0000000180032248     libucrt:heap_handle.obj
 0003:0000227c       __acrt_lconv_static_null   000000018003227c     libucrt:localeconv.obj
 0003:00002280       __acrt_lconv_static_W_null 0000000180032280     libucrt:localeconv.obj
 0003:00002294       __fma3_is_available        0000000180032294     libucrt:fma3_available.obj
 0003:00002298       __use_fma3_lib             0000000180032298     libucrt:fma3_available.obj
 0003:000022a0       __dyn_tls_init_callback    00000001800322a0     <common>
 0003:000022a8       __scrt_ucrt_dll_is_in_use  00000001800322a8     <common>

 entry point at        0001:0000f004

 Static symbols

 0000:fffc4000       .debug$S                   0000000180000000     OPOSTotals.exp
 0000:fffc4000       .debug$S                   0000000180000000     advapi32:ADVAPI32.dll
 0000:fffc4000       .debug$S                   0000000180000000     advapi32:ADVAPI32.dll
 0000:fffc4000       .debug$S                   0000000180000000     advapi32:ADVAPI32.dll
 0000:fffc4000       .debug$S                   0000000180000000     advapi32:ADVAPI32.dll
 0000:fffc4000       .debug$S                   0000000180000000     advapi32:ADVAPI32.dll
 0000:fffc4000       .debug$S                   0000000180000000     advapi32:ADVAPI32.dll
 0000:fffc4000       .debug$S                   0000000180000000     advapi32:ADVAPI32.dll
 0000:fffc4000       .debug$S                   0000000180000000     advapi32:ADVAPI32.dll
 0000:fffc4000       .debug$S                   0000000180000000     advapi32:ADVAPI32.dll
 0000:fffc4000       .debug$S                   0000000180000000     gdi32:GDI32.dll
 0000:fffc4000       .debug$S                   0000000180000000     gdi32:GDI32.dll
 0000:fffc4000       .debug$S                   0000000180000000     gdi32:GDI32.dll
 0000:fffc4000       .debug$S                   0000000180000000     gdi32:GDI32.dll
 0000:fffc4000       .debug$S                   0000000180000000     gdi32:GDI32.dll
 0000:fffc4000       .debug$S                   0000000180000000     gdi32:GDI32.dll
 0000:fffc4000       .debug$S                   0000000180000000     gdi32:GDI32.dll
 0000:fffc4000       .debug$S                   0000000180000000     gdi32:GDI32.dll
 0000:fffc4000       .debug$S                   0000000180000000     gdi32:GDI32.dll
 0000:fffc4000       .debug$S                   0000000180000000     gdi32:GDI32.dll
 0000:fffc4000       .debug$S                   0000000180000000     gdi32:GDI32.dll
 0000:fffc4000       .debug$S                   0000000180000000     gdi32:GDI32.dll
 0000:fffc4000       .debug$S                   0000000180000000     gdi32:GDI32.dll
 0000:fffc4000       .debug$S                   0000000180000000     gdi32:GDI32.dll
 0000:fffc4000       .debug$S                   0000000180000000     gdi32:GDI32.dll
 0000:fffc4000       .debug$S                   0000000180000000     gdi32:GDI32.dll
 0000:fffc4000       .debug$S                   0000000180000000     gdi32:GDI32.dll
 0000:fffc4000       .debug$S                   0000000180000000     gdi32:GDI32.dll
 0000:fffc4000       .debug$S                   0000000180000000     gdi32:GDI32.dll
 0000:fffc4000       .debug$S                   0000000180000000     kernel32:KERNEL32.dll
 0000:fffc4000       .debug$S                   0000000180000000     kernel32:KERNEL32.dll
 0000:fffc4000       .debug$S                   0000000180000000     kernel32:KERNEL32.dll
 0000:fffc4000       .debug$S                   0000000180000000     kernel32:KERNEL32.dll
 0000:fffc4000       .debug$S                   0000000180000000     kernel32:KERNEL32.dll
 0000:fffc4000       .debug$S                   0000000180000000     kernel32:KERNEL32.dll
 0000:fffc4000       .debug$S                   0000000180000000     kernel32:KERNEL32.dll
 0000:fffc4000       .debug$S                   0000000180000000     kernel32:KERNEL32.dll
 0000:fffc4000       .debug$S                   0000000180000000     kernel32:KERNEL32.dll
 0000:fffc4000       .debug$S                   0000000180000000     kernel32:KERNEL32.dll
 0000:fffc4000       .debug$S                   0000000180000000     kernel32:KERNEL32.dll
 0000:fffc4000       .debug$S                   0000000180000000     kernel32:KERNEL32.dll
 0000:fffc4000       .debug$S                   0000000180000000     kernel32:KERNEL32.dll
 0000:fffc4000       .debug$S                   0000000180000000     kernel32:KERNEL32.dll
 0000:fffc4000       .debug$S                   0000000180000000     kernel32:KERNEL32.dll
 0000:fffc4000       .debug$S                   0000000180000000     kernel32:KERNEL32.dll
 0000:fffc4000       .debug$S                   0000000180000000     kernel32:KERNEL32.dll
 0000:fffc4000       .debug$S                   0000000180000000     kernel32:KERNEL32.dll
 0000:fffc4000       .debug$S                   0000000180000000     kernel32:KERNEL32.dll
 0000:fffc4000       .debug$S                   0000000180000000     kernel32:KERNEL32.dll
 0000:fffc4000       .debug$S                   0000000180000000     kernel32:KERNEL32.dll
 0000:fffc4000       .debug$S                   0000000180000000     kernel32:KERNEL32.dll
 0000:fffc4000       .debug$S                   0000000180000000     kernel32:KERNEL32.dll
 0000:fffc4000       .debug$S                   0000000180000000     kernel32:KERNEL32.dll
 0000:fffc4000       .debug$S                   0000000180000000     kernel32:KERNEL32.dll
 0000:fffc4000       .debug$S                   0000000180000000     kernel32:KERNEL32.dll
 0000:fffc4000       .debug$S                   0000000180000000     kernel32:KERNEL32.dll
 0000:fffc4000       .debug$S                   0000000180000000     kernel32:KERNEL32.dll
 0000:fffc4000       .debug$S                   0000000180000000     kernel32:KERNEL32.dll
 0000:fffc4000       .debug$S                   0000000180000000     kernel32:KERNEL32.dll
 0000:fffc4000       .debug$S                   0000000180000000     kernel32:KERNEL32.dll
 0000:fffc4000       .debug$S                   0000000180000000     kernel32:KERNEL32.dll
 0000:fffc4000       .debug$S                   0000000180000000     kernel32:KERNEL32.dll
 0000:fffc4000       .debug$S                   0000000180000000     kernel32:KERNEL32.dll
 0000:fffc4000       .debug$S                   0000000180000000     kernel32:KERNEL32.dll
 0000:fffc4000       .debug$S                   0000000180000000     kernel32:KERNEL32.dll
 0000:fffc4000       .debug$S                   0000000180000000     kernel32:KERNEL32.dll
 0000:fffc4000       .debug$S                   0000000180000000     kernel32:KERNEL32.dll
 0000:fffc4000       .debug$S                   0000000180000000     kernel32:KERNEL32.dll
 0000:fffc4000       .debug$S                   0000000180000000     kernel32:KERNEL32.dll
 0000:fffc4000       .debug$S                   0000000180000000     kernel32:KERNEL32.dll
 0000:fffc4000       .debug$S                   0000000180000000     kernel32:KERNEL32.dll
 0000:fffc4000       .debug$S                   0000000180000000     kernel32:KERNEL32.dll
 0000:fffc4000       .debug$S                   0000000180000000     kernel32:KERNEL32.dll
 0000:fffc4000       .debug$S                   0000000180000000     kernel32:KERNEL32.dll
 0000:fffc4000       .debug$S                   0000000180000000     kernel32:KERNEL32.dll
 0000:fffc4000       .debug$S                   0000000180000000     kernel32:KERNEL32.dll
 0000:fffc4000       .debug$S                   0000000180000000     kernel32:KERNEL32.dll
 0000:fffc4000       .debug$S                   0000000180000000     kernel32:KERNEL32.dll
 0000:fffc4000       .debug$S                   0000000180000000     kernel32:KERNEL32.dll
 0000:fffc4000       .debug$S                   0000000180000000     kernel32:KERNEL32.dll
 0000:fffc4000       .debug$S                   0000000180000000     kernel32:KERNEL32.dll
 0000:fffc4000       .debug$S                   0000000180000000     kernel32:KERNEL32.dll
 0000:fffc4000       .debug$S                   0000000180000000     kernel32:KERNEL32.dll
 0000:fffc4000       .debug$S                   0000000180000000     kernel32:KERNEL32.dll
 0000:fffc4000       .debug$S                   0000000180000000     kernel32:KERNEL32.dll
 0000:fffc4000       .debug$S                   0000000180000000     kernel32:KERNEL32.dll
 0000:fffc4000       .debug$S                   0000000180000000     kernel32:KERNEL32.dll
 0000:fffc4000       .debug$S                   0000000180000000     kernel32:KERNEL32.dll
 0000:fffc4000       .debug$S                   0000000180000000     kernel32:KERNEL32.dll
 0000:fffc4000       .debug$S                   0000000180000000     kernel32:KERNEL32.dll
 0000:fffc4000       .debug$S                   0000000180000000     kernel32:KERNEL32.dll
 0000:fffc4000       .debug$S                   0000000180000000     kernel32:KERNEL32.dll
 0000:fffc4000       .debug$S                   0000000180000000     kernel32:KERNEL32.dll
 0000:fffc4000       .debug$S                   0000000180000000     kernel32:KERNEL32.dll
 0000:fffc4000       .debug$S                   0000000180000000     kernel32:KERNEL32.dll
 0000:fffc4000       .debug$S                   0000000180000000     kernel32:KERNEL32.dll
 0000:fffc4000       .debug$S                   0000000180000000     kernel32:KERNEL32.dll
 0000:fffc4000       .debug$S                   0000000180000000     kernel32:KERNEL32.dll
 0000:fffc4000       .debug$S                   0000000180000000     kernel32:KERNEL32.dll
 0000:fffc4000       .debug$S                   0000000180000000     kernel32:KERNEL32.dll
 0000:fffc4000       .debug$S                   0000000180000000     kernel32:KERNEL32.dll
 0000:fffc4000       .debug$S                   0000000180000000     kernel32:KERNEL32.dll
 0000:fffc4000       .debug$S                   0000000180000000     kernel32:KERNEL32.dll
 0000:fffc4000       .debug$S                   0000000180000000     kernel32:KERNEL32.dll
 0000:fffc4000       .debug$S                   0000000180000000     kernel32:KERNEL32.dll
 0000:fffc4000       .debug$S                   0000000180000000     kernel32:KERNEL32.dll
 0000:fffc4000       .debug$S                   0000000180000000     kernel32:KERNEL32.dll
 0000:fffc4000       .debug$S                   0000000180000000     kernel32:KERNEL32.dll
 0000:fffc4000       .debug$S                   0000000180000000     kernel32:KERNEL32.dll
 0000:fffc4000       .debug$S                   0000000180000000     kernel32:KERNEL32.dll
 0000:fffc4000       .debug$S                   0000000180000000     kernel32:KERNEL32.dll
 0000:fffc4000       .debug$S                   0000000180000000     kernel32:KERNEL32.dll
 0000:fffc4000       .debug$S                   0000000180000000     kernel32:KERNEL32.dll
 0000:fffc4000       .debug$S                   0000000180000000     kernel32:KERNEL32.dll
 0000:fffc4000       .debug$S                   0000000180000000     kernel32:KERNEL32.dll
 0000:fffc4000       .debug$S                   0000000180000000     kernel32:KERNEL32.dll
 0000:fffc4000       .debug$S                   0000000180000000     kernel32:KERNEL32.dll
 0000:fffc4000       .debug$S                   0000000180000000     kernel32:KERNEL32.dll
 0000:fffc4000       .debug$S                   0000000180000000     kernel32:KERNEL32.dll
 0000:fffc4000       .debug$S                   0000000180000000     kernel32:KERNEL32.dll
 0000:fffc4000       .debug$S                   0000000180000000     kernel32:KERNEL32.dll
 0000:fffc4000       .debug$S                   0000000180000000     kernel32:KERNEL32.dll
 0000:fffc4000       .debug$S                   0000000180000000     kernel32:KERNEL32.dll
 0000:fffc4000       .debug$S                   0000000180000000     kernel32:KERNEL32.dll
 0000:fffc4000       .debug$S                   0000000180000000     kernel32:KERNEL32.dll
 0000:fffc4000       .debug$S                   0000000180000000     kernel32:KERNEL32.dll
 0000:fffc4000       .debug$S                   0000000180000000     kernel32:KERNEL32.dll
 0000:fffc4000       .debug$S                   0000000180000000     kernel32:KERNEL32.dll
 0000:fffc4000       .debug$S                   0000000180000000     kernel32:KERNEL32.dll
 0000:fffc4000       .debug$S                   0000000180000000     kernel32:KERNEL32.dll
 0000:fffc4000       .debug$S                   0000000180000000     kernel32:KERNEL32.dll
 0000:fffc4000       .debug$S                   0000000180000000     kernel32:KERNEL32.dll
 0000:fffc4000       .debug$S                   0000000180000000     kernel32:KERNEL32.dll
 0000:fffc4000       .debug$S                   0000000180000000     kernel32:KERNEL32.dll
 0000:fffc4000       .debug$S                   0000000180000000     kernel32:KERNEL32.dll
 0000:fffc4000       .debug$S                   0000000180000000     kernel32:KERNEL32.dll
 0000:fffc4000       .debug$S                   0000000180000000     kernel32:KERNEL32.dll
 0000:fffc4000       .debug$S                   0000000180000000     kernel32:KERNEL32.dll
 0000:fffc4000       .debug$S                   0000000180000000     kernel32:KERNEL32.dll
 0000:fffc4000       .debug$S                   0000000180000000     kernel32:KERNEL32.dll
 0000:fffc4000       .debug$S                   0000000180000000     ole32:ole32.dll
 0000:fffc4000       .debug$S                   0000000180000000     ole32:ole32.dll
 0000:fffc4000       .debug$S                   0000000180000000     ole32:ole32.dll
 0000:fffc4000       .debug$S                   0000000180000000     ole32:ole32.dll
 0000:fffc4000       .debug$S                   0000000180000000     ole32:ole32.dll
 0000:fffc4000       .debug$S                   0000000180000000     ole32:ole32.dll
 0000:fffc4000       .debug$S                   0000000180000000     ole32:ole32.dll
 0000:fffc4000       .debug$S                   0000000180000000     ole32:ole32.dll
 0000:fffc4000       .debug$S                   0000000180000000     ole32:ole32.dll
 0000:fffc4000       .debug$S                   0000000180000000     ole32:ole32.dll
 0000:fffc4000       .debug$S                   0000000180000000     ole32:ole32.dll
 0000:fffc4000       .debug$S                   0000000180000000     ole32:ole32.dll
 0000:fffc4000       .debug$S                   0000000180000000     ole32:ole32.dll
 0000:fffc4000       .debug$S                   0000000180000000     ole32:ole32.dll
 0000:fffc4000       .debug$S                   0000000180000000     oleaut32:OLEAUT32.dll
 0000:fffc4000       .debug$S                   0000000180000000     oleaut32:OLEAUT32.dll
 0000:fffc4000       .debug$S                   0000000180000000     oleaut32:OLEAUT32.dll
 0000:fffc4000       .debug$S                   0000000180000000     oleaut32:OLEAUT32.dll
 0000:fffc4000       .debug$S                   0000000180000000     oleaut32:OLEAUT32.dll
 0000:fffc4000       .debug$S                   0000000180000000     oleaut32:OLEAUT32.dll
 0000:fffc4000       .debug$S                   0000000180000000     oleaut32:OLEAUT32.dll
 0000:fffc4000       .debug$S                   0000000180000000     oleaut32:OLEAUT32.dll
 0000:fffc4000       .debug$S                   0000000180000000     oleaut32:OLEAUT32.dll
 0000:fffc4000       .debug$S                   0000000180000000     oleaut32:OLEAUT32.dll
 0000:fffc4000       .debug$S                   0000000180000000     oleaut32:OLEAUT32.dll
 0000:fffc4000       .debug$S                   0000000180000000     oleaut32:OLEAUT32.dll
 0000:fffc4000       .debug$S                   0000000180000000     oleaut32:OLEAUT32.dll
 0000:fffc4000       .debug$S                   0000000180000000     oleaut32:OLEAUT32.dll
 0000:fffc4000       .debug$S                   0000000180000000     oleaut32:OLEAUT32.dll
 0000:fffc4000       .debug$S                   0000000180000000     oleaut32:OLEAUT32.dll
 0000:fffc4000       .debug$S                   0000000180000000     user32:USER32.dll
 0000:fffc4000       .debug$S                   0000000180000000     user32:USER32.dll
 0000:fffc4000       .debug$S                   0000000180000000     user32:USER32.dll
 0000:fffc4000       .debug$S                   0000000180000000     user32:USER32.dll
 0000:fffc4000       .debug$S                   0000000180000000     user32:USER32.dll
 0000:fffc4000       .debug$S                   0000000180000000     user32:USER32.dll
 0000:fffc4000       .debug$S                   0000000180000000     user32:USER32.dll
 0000:fffc4000       .debug$S                   0000000180000000     user32:USER32.dll
 0000:fffc4000       .debug$S                   0000000180000000     user32:USER32.dll
 0000:fffc4000       .debug$S                   0000000180000000     user32:USER32.dll
 0000:fffc4000       .debug$S                   0000000180000000     user32:USER32.dll
 0000:fffc4000       .debug$S                   0000000180000000     user32:USER32.dll
 0000:fffc4000       .debug$S                   0000000180000000     user32:USER32.dll
 0000:fffc4000       .debug$S                   0000000180000000     user32:USER32.dll
 0000:fffc4000       .debug$S                   0000000180000000     user32:USER32.dll
 0000:fffc4000       .debug$S                   0000000180000000     user32:USER32.dll
 0000:fffc4000       .debug$S                   0000000180000000     user32:USER32.dll
 0000:fffc4000       .debug$S                   0000000180000000     user32:USER32.dll
 0000:fffc4000       .debug$S                   0000000180000000     user32:USER32.dll
 0000:fffc4000       .debug$S                   0000000180000000     user32:USER32.dll
 0000:fffc4000       .debug$S                   0000000180000000     user32:USER32.dll
 0000:fffc4000       .debug$S                   0000000180000000     user32:USER32.dll
 0000:fffc4000       .debug$S                   0000000180000000     user32:USER32.dll
 0000:fffc4000       .debug$S                   0000000180000000     user32:USER32.dll
 0000:fffc4000       .debug$S                   0000000180000000     user32:USER32.dll
 0000:fffc4000       .debug$S                   0000000180000000     user32:USER32.dll
 0000:fffc4000       .debug$S                   0000000180000000     user32:USER32.dll
 0000:fffc4000       .debug$S                   0000000180000000     user32:USER32.dll
 0000:fffc4000       .debug$S                   0000000180000000     user32:USER32.dll
 0000:fffc4000       .debug$S                   0000000180000000     user32:USER32.dll
 0000:fffc4000       .debug$S                   0000000180000000     user32:USER32.dll
 0000:fffc4000       .debug$S                   0000000180000000     user32:USER32.dll
 0000:fffc4000       .debug$S                   0000000180000000     user32:USER32.dll
 0000:fffc4000       .debug$S                   0000000180000000     user32:USER32.dll
 0000:fffc4000       .debug$S                   0000000180000000     user32:USER32.dll
 0001:00000000       ??__E_AtlComModule@ATL@@YAXXZ 0000000180001000 f   OposVariant.obj
 0001:00000020       ??__E_AtlWinModule@ATL@@YAXXZ 0000000180001020 f   OposVariant.obj
 0001:00000040       ??__E?pConnMap@?$IConnectionPointContainerImpl@VCOPOSTotals@@@ATL@@0PEBU_ATL_CONNMAP_ENTRY@2@EB@@YAXXZ 0000000180001040 f   Totals.obj
 0001:00000058       ??__E_Module@@YAXXZ        0000000180001058 f   Totals.obj
 0001:00000094       ??__E_AtlBaseModule@ATL@@YAXXZ 0000000180001094 f   atls:atlbase.obj
 0001:0000e604       ?__scrt_initialize_thread_safe_statics@@YAHXZ 000000018000f604 f   LIBCMT:thread_safe_statics.obj
 0001:0000e6d4       ?__scrt_uninitialize_thread_safe_statics@@YAXXZ 000000018000f6d4 f   LIBCMT:thread_safe_statics.obj
 0001:0000ea24       capture_current_context    000000018000fa24 f   LIBCMT:gs_report.obj
 0001:0000ea94       capture_previous_context   000000018000fa94 f   LIBCMT:gs_report.obj
 0001:0000ec40       $$000000                   000000018000fc40     LIBCMT:chkstk.obj
 0001:0000ecb0       $$000000                   000000018000fcb0     LIBCMT:amdsecgs.obj
 0001:0000ece4       ?dllmain_crt_dispatch@@YAHQEAUHINSTANCE__@@KQEAX@Z 000000018000fce4 f   LIBCMT:dll_dllmain.obj
 0001:0000ed34       ?dllmain_crt_process_attach@@YAHQEAUHINSTANCE__@@QEAX@Z 000000018000fd34 f   LIBCMT:dll_dllmain.obj
 0001:0000ee4c       ?dllmain_crt_process_detach@@YAH_N@Z 000000018000fe4c f   LIBCMT:dll_dllmain.obj
 0001:0000eed0       ?dllmain_dispatch@@YAHQEAUHINSTANCE__@@KQEAX@Z 000000018000fed0 f   LIBCMT:dll_dllmain.obj
 0001:0000f798       ??$GetProcAddressAll@P6AP6A_JPEAUHWND__@@I_K_J@ZPEAUAtlThunkData_t@@@Z@@YAP6AP6A_JPEAUHWND__@@I_K_J@ZPEAUAtlThunkData_t@@@ZPEAP6AP6A_J0I12@Z3@Z@Z 0000000180010798 f   atls:atlthunk.obj
 0001:0000f798       ??$GetProcAddressAll@P6APEAUAtlThunkData_t@@XZ@@YAP6APEAUAtlThunkData_t@@XZPEAP6APEAU0@XZ@Z 0000000180010798 f   atls:atlthunk.obj
 0001:0000f798       ??$GetProcAddressAll@P6AXPEAUAtlThunkData_t@@@Z@@YAP6AXPEAUAtlThunkData_t@@@ZPEAP6AX0@Z@Z 0000000180010798 f   atls:atlthunk.obj
 0001:0000f798       ??$GetProcAddressAll@P6AXPEAUAtlThunkData_t@@PEAX_K@Z@@YAP6AXPEAUAtlThunkData_t@@PEAX_K@ZPEAP6AX012@Z@Z 0000000180010798 f   atls:atlthunk.obj
 0001:0000f970       ?__InitializeThunkPool@@YAHXZ 0000000180010970 f   atls:atlthunk.obj
 0001:0000fe10       $$000000                   0000000180010e10     libvcruntime:memcmp.obj
 0001:0000fef0       $$000000                   0000000180010ef0     libvcruntime:memcpy.obj
 0001:00010300       $$000000                   0000000180011300     libvcruntime:memset.obj
 0001:00011200       $$000000                   0000000180012200     libvcruntime:notify.obj
 0001:00011388       ??$BuildCatchObjectHelperInternal@V__FrameHandler3@@@@YAHPEAUEHExceptionRecord@@PEAXPEBU_s_HandlerType@@PEBU_s_CatchableType@@@Z 0000000180012388 f   libvcruntime:frame.obj
 0001:00011588       ??$BuildCatchObjectInternal@V__FrameHandler3@@@@YAXPEAUEHExceptionRecord@@PEAXPEBU_s_HandlerType@@PEBU_s_CatchableType@@@Z 0000000180012588 f   libvcruntime:frame.obj
 0001:00011648       ??$CatchIt@V__FrameHandler3@@@@YAXPEAUEHExceptionRecord@@PEA_KPEAU_CONTEXT@@PEAU_xDISPATCHER_CONTEXT@@PEBU_s_FuncInfo@@PEBU_s_HandlerType@@PEBU_s_CatchableType@@PEBU_s_TryBlockMapEntry@@H1EE@Z 0000000180012648 f   libvcruntime:frame.obj
 0001:0001171c       ??$FindHandler@V__FrameHandler3@@@@YAXPEAUEHExceptionRecord@@PEA_KPEAU_CONTEXT@@PEAU_xDISPATCHER_CONTEXT@@PEBU_s_FuncInfo@@EH1@Z 000000018001271c f   libvcruntime:frame.obj
 0001:00011c14       ??$FindHandlerForForeignException@V__FrameHandler3@@@@YAXPEAUEHExceptionRecord@@PEA_KPEAU_CONTEXT@@PEAU_xDISPATCHER_CONTEXT@@PEBU_s_FuncInfo@@HH1@Z 0000000180012c14 f   libvcruntime:frame.obj
 0001:000123fc       ?ExFilterRethrow@@YAHPEAU_EXCEPTION_POINTERS@@PEAUEHExceptionRecord@@PEAH@Z 00000001800133fc f   libvcruntime:frame.obj
 0001:000126a8       ?IsInExceptionSpec@@YAEPEAUEHExceptionRecord@@PEBU_s_ESTypeList@@@Z 00000001800136a8 f   libvcruntime:frame.obj
 0001:00012798       ?Is_bad_exception_allowed@@YAEPEBU_s_ESTypeList@@@Z 0000000180013798 f   libvcruntime:frame.obj
 0001:0001283c       ?try_get_function@@YAPEAXW4function_id@?A0x81a78551@@QEBDQEBW4module_id@2@2@Z 000000018001383c f   libvcruntime:winapi_downlevel.obj
 0001:00012b30       $$000000                   0000000180013b30     libvcruntime:handlers.obj
 0001:00013348       ??$common_vsprintf@Vformat_validation_base@__crt_stdio_output@@_W@@YAH_KQEA_W0QEB_WQEAU__crt_locale_pointers@@QEAD@Z 0000000180014348 f   libucrt:output.obj
 0001:00014b78       ??$?RV<lambda_d80eeec6fff315bfe5c115232f3240e3>@@AEAV<lambda_6e4b09c48022b2350581041d5f6b0c4c>@@V<lambda_2358e3775559c9db80273638284d5e45>@@@?$__crt_seh_guarded_call@X@@QEAAX$$QEAV<lambda_d80eeec6fff315bfe5c115232f3240e3>@@AEAV<lambda_6e4b09c48022b2350581041d5f6b0c4c>@@$$QEAV<lambda_2358e3775559c9db80273638284d5e45>@@@Z 0000000180015b78 f   libucrt:exit.obj
 0001:00014bb0       ??R<lambda_6e4b09c48022b2350581041d5f6b0c4c>@@QEBA@XZ 0000000180015bb0 f   libucrt:exit.obj
 0001:00014c74       ?atexit_exception_filter@@YAHK@Z 0000000180015c74 f   libucrt:exit.obj
 0001:00014c80       ?common_exit@@YAXHW4_crt_exit_cleanup_mode@@W4_crt_exit_return_mode@@@Z 0000000180015c80 f   libucrt:exit.obj
 0001:00014d3c       ?exit_or_terminate_process@@YAXI@Z 0000000180015d3c f   libucrt:exit.obj
 0001:00014d88       ?try_cor_exit_process@@YAXI@Z 0000000180015d88 f   libucrt:exit.obj
 0001:00014e10       ??$parse_command_line@D@@YAXPEADPEAPEAD0PEA_K2@Z 0000000180015e10 f   libucrt:argv_parsing.obj
 0001:000151bc       ??$common_initialize_environment_nolock@D@@YAHXZ 00000001800161bc f   libucrt:environment_initialization.obj
 0001:00015228       ??$create_environment@D@@YAQEAPEADQEAD@Z 0000000180016228 f   libucrt:environment_initialization.obj
 0001:00015330       ??$free_environment@D@@YAXQEAPEAD@Z 0000000180016330 f   libucrt:environment_initialization.obj
 0001:00015330       ??$free_environment@_W@@YAXQEAPEA_W@Z 0000000180016330 f   libucrt:environment_initialization.obj
 0001:00015374       ??$uninitialize_environment_internal@D@@YAXAEAPEAPEAD@Z 0000000180016374 f   libucrt:environment_initialization.obj
 0001:00015390       ??$uninitialize_environment_internal@_W@@YAXAEAPEAPEA_W@Z 0000000180016390 f   libucrt:environment_initialization.obj
 0001:000153ec       ??$?RV<lambda_638799b9deba96c50f710eeac98168cd>@@AEAV<lambda_22ebabd17bc4fa466a2aca6d8deb888d>@@V<lambda_a6f7d7db0129f75315ebf26d50c089f1>@@@?$__crt_seh_guarded_call@H@@QEAAH$$QEAV<lambda_638799b9deba96c50f710eeac98168cd>@@AEAV<lambda_22ebabd17bc4fa466a2aca6d8deb888d>@@$$QEAV<lambda_a6f7d7db0129f75315ebf26d50c089f1>@@@Z 00000001800163ec f   libucrt:onexit.obj
 0001:00015428       ??$?RV<lambda_7777bce6b2f8c936911f934f8298dc43>@@AEAV<lambda_f03950bc5685219e0bcd2087efbe011e>@@V<lambda_3883c3dff614d5e0c5f61bb1ac94921c>@@@?$__crt_seh_guarded_call@H@@QEAAH$$QEAV<lambda_7777bce6b2f8c936911f934f8298dc43>@@AEAV<lambda_f03950bc5685219e0bcd2087efbe011e>@@$$QEAV<lambda_3883c3dff614d5e0c5f61bb1ac94921c>@@@Z 0000000180016428 f   libucrt:onexit.obj
 0001:00015464       ??R<lambda_22ebabd17bc4fa466a2aca6d8deb888d>@@QEBAHXZ 0000000180016464 f   libucrt:onexit.obj
 0001:00015614       ??R<lambda_f03950bc5685219e0bcd2087efbe011e>@@QEBAHXZ 0000000180016614 f   libucrt:onexit.obj
 0001:000157e8       initialize_global_variables 00000001800167e8 f   libucrt:initialization.obj
 0001:000157fc       initialize_c               00000001800167fc f   libucrt:initialization.obj
 0001:00015820       initialize_environment     0000000180016820 f   libucrt:initialization.obj
 0001:00015820       initialize_global_state_isolation 0000000180016820 f   libucrt:initialization.obj
 0001:00015820       report_memory_leaks        0000000180016820 f   libucrt:initialization.obj
 0001:00015820       uninitialize_c             0000000180016820 f   libucrt:initialization.obj
 0001:00015820       uninitialize_global_state_isolation 0000000180016820 f   libucrt:initialization.obj
 0001:00015824       uninitialize_environment   0000000180016824 f   libucrt:initialization.obj
 0001:00015834       initialize_pointers        0000000180016834 f   libucrt:initialization.obj
 0001:00015874       uninitialize_vcruntime     0000000180016874 f   libucrt:initialization.obj
 0001:0001587c       uninitialize_allocated_memory 000000018001687c f   libucrt:initialization.obj
 0001:000158bc       uninitialize_allocated_io_buffers 00000001800168bc f   libucrt:initialization.obj
 0001:00016230       $$000000                   0000000180017230     libucrt:strncmp.obj
 0001:0001632c       ??$?RV<lambda_0ae27a3a962d80f24befdcbee591983d>@@AEAV<lambda_8d0ee55de4b1038c4002e0adecdf1839>@@V<lambda_dc504788e8f1664fe9b84e20bfb512f2>@@@?$__crt_seh_guarded_call@X@@QEAAX$$QEAV<lambda_0ae27a3a962d80f24befdcbee591983d>@@AEAV<lambda_8d0ee55de4b1038c4002e0adecdf1839>@@$$QEAV<lambda_dc504788e8f1664fe9b84e20bfb512f2>@@@Z 000000018001732c f   libucrt:per_thread_data.obj
 0001:0001636c       ??$?RV<lambda_2d41944a1d46af3157314b8a01080d33>@@AEAV<lambda_8f455de75cd7d7f24b4096f044d8b9e6>@@V<lambda_aa500f224e6afead328df44964fe2772>@@@?$__crt_seh_guarded_call@X@@QEAAX$$QEAV<lambda_2d41944a1d46af3157314b8a01080d33>@@AEAV<lambda_8f455de75cd7d7f24b4096f044d8b9e6>@@$$QEAV<lambda_aa500f224e6afead328df44964fe2772>@@@Z 000000018001736c f   libucrt:per_thread_data.obj
 0001:000163ac       ??$?RV<lambda_aa87e3671a710a21b5dc78c0bdf72e11>@@AEAV<lambda_92619d2358a28f41a33ba319515a20b9>@@V<lambda_6992ecaafeb10aed2b74cb1fae11a551>@@@?$__crt_seh_guarded_call@X@@QEAAX$$QEAV<lambda_aa87e3671a710a21b5dc78c0bdf72e11>@@AEAV<lambda_92619d2358a28f41a33ba319515a20b9>@@$$QEAV<lambda_6992ecaafeb10aed2b74cb1fae11a551>@@@Z 00000001800173ac f   libucrt:per_thread_data.obj
 0001:000163f4       ??$?RV<lambda_f2e299630e499de9f9a165e60fcd3db5>@@AEAV<lambda_2ae9d31cdba2644fcbeaf08da7c24588>@@V<lambda_40d01ff24d0e7b3814fdbdcee8eab3c7>@@@?$__crt_seh_guarded_call@X@@QEAAX$$QEAV<lambda_f2e299630e499de9f9a165e60fcd3db5>@@AEAV<lambda_2ae9d31cdba2644fcbeaf08da7c24588>@@$$QEAV<lambda_40d01ff24d0e7b3814fdbdcee8eab3c7>@@@Z 00000001800173f4 f   libucrt:per_thread_data.obj
 0001:00016454       ?construct_ptd_array@@YAXQEAU__acrt_ptd@@@Z 0000000180017454 f   libucrt:per_thread_data.obj
 0001:00016524       ?destroy_fls@@YAXPEAX@Z    0000000180017524 f   libucrt:per_thread_data.obj
 0001:00016544       ?destroy_ptd_array@@YAXQEAU__acrt_ptd@@@Z 0000000180017544 f   libucrt:per_thread_data.obj
 0001:0001663c       ?replace_current_thread_locale_nolock@@YAXQEAU__acrt_ptd@@QEAU__crt_locale_data@@@Z 000000018001763c f   libucrt:per_thread_data.obj
 0001:00016b20       ?try_get_function@@YAPEAXW4function_id@?A0x391cf84c@@QEBDQEBW4module_id@2@2@Z 0000000180017b20 f   libucrt:winapi_thunks.obj
 0001:000174f0       ?fp_format_a@@YAHQEBNPEAD_KQEAD2H_NIQEAU__crt_locale_pointers@@@Z 00000001800184f0 f   libucrt:cvt.obj
 0001:00017860       ?fp_format_e@@YAHQEBNQEAD_K12H_NIQEAU__crt_locale_pointers@@@Z 0000000180018860 f   libucrt:cvt.obj
 0001:0001793c       ?fp_format_e_internal@@YAHQEAD_KH_NIQEAU_strflt@@2QEAU__crt_locale_pointers@@@Z 000000018001893c f   libucrt:cvt.obj
 0001:00017b10       ?fp_format_f_internal@@YAHQEAD_KHQEAU_strflt@@_NQEAU__crt_locale_pointers@@@Z 0000000180018b10 f   libucrt:cvt.obj
 0001:00017c54       ?fp_format_g@@YAHQEBNQEAD_K12H_NIQEAU__crt_locale_pointers@@@Z 0000000180018c54 f   libucrt:cvt.obj
 0001:00018260       ??$?RV<lambda_410d79af7f07d98d83a3f525b3859a53>@@AEAV<lambda_3e16ef9562a7dcce91392c22ab16ea36>@@V<lambda_38119f0e861e05405d8a144b9b982f0a>@@@?$__crt_seh_guarded_call@X@@QEAAX$$QEAV<lambda_410d79af7f07d98d83a3f525b3859a53>@@AEAV<lambda_3e16ef9562a7dcce91392c22ab16ea36>@@$$QEAV<lambda_38119f0e861e05405d8a144b9b982f0a>@@@Z 0000000180019260 f   libucrt:wsetlocale.obj
 0001:0001830c       ?initialize_inherited_file_handles_nolock@@YAXXZ 000000018001930c f   libucrt:ioinit.obj
 0001:000183fc       ?initialize_stdio_handles_nolock@@YAXXZ 00000001800193fc f   libucrt:ioinit.obj
 0001:00018678       ?<lambda_invoker_cdecl>@<lambda_a1ce4c8ae42411fd470c77163914f50e>@@CAHPEBX0@Z 0000000180019678 f   libucrt:argv_wildcards.obj
 0001:00018990       ??$common_expand_argv_wildcards@D@@YAHQEAPEADQEAPEAPEAD@Z 0000000180019990 f   libucrt:argv_wildcards.obj
 0001:00018b9c       ??$copy_and_add_argument_to_buffer@D@@YAHQEBD0_KAEAV?$argument_list@D@?A0x5f5c8891@@@Z 0000000180019b9c f   libucrt:argv_wildcards.obj
 0001:00018d24       ??$expand_argument_wildcards@D@@YAHQEAD0AEAV?$argument_list@D@?A0x5f5c8891@@@Z 0000000180019d24 f   libucrt:argv_wildcards.obj
 0001:00019270       ??$?RV<lambda_efdfa57d1f175319df784efa44bb7b81>@@AEAV<lambda_5f0a4c1567f8adc6734073e5d1e1b35c>@@V<lambda_2e8a7d3640ea6ccb4c2413664c2db6fd>@@@?$__crt_seh_guarded_call@X@@QEAAX$$QEAV<lambda_efdfa57d1f175319df784efa44bb7b81>@@AEAV<lambda_5f0a4c1567f8adc6734073e5d1e1b35c>@@$$QEAV<lambda_2e8a7d3640ea6ccb4c2413664c2db6fd>@@@Z 000000018001a270 f   libucrt:mbctype.obj
 0001:0001942c       ?getSystemCP@@YAHH@Z       000000018001a42c f   libucrt:mbctype.obj
 0001:000194ac       ?setSBCS@@YAXPEAU__crt_multibyte_data@@@Z 000000018001a4ac f   libucrt:mbctype.obj
 0001:0001953c       ?setSBUpLow@@YAXPEAU__crt_multibyte_data@@@Z 000000018001a53c f   libucrt:mbctype.obj
 0001:00019720       ?setmbcp_internal@@YAHH_NQEAU__acrt_ptd@@QEAPEAU__crt_multibyte_data@@@Z 000000018001a720 f   libucrt:mbctype.obj
 0001:000198e4       ?update_thread_multibyte_data_internal@@YAPEAU__crt_multibyte_data@@QEAU__acrt_ptd@@QEAPEAU1@@Z 000000018001a8e4 f   libucrt:mbctype.obj
 0001:00019cd4       ?x_ismbbtype_l@@YAHPEAU__crt_locale_pointers@@IHH@Z 000000018001acd4 f   libucrt:ismbbyte.obj
 0001:0001a064       ??$?RV<lambda_450d765d439847d4c735a33c368b5fc0>@@AEAV<lambda_44731a7d0e6d81c3e6aa82d741081786>@@V<lambda_601a2a7da3b7a96e9554ac7215c4b07c>@@@?$__crt_seh_guarded_call@P6AXH@Z@@QEAAP6AXH@Z$$QEAV<lambda_450d765d439847d4c735a33c368b5fc0>@@AEAV<lambda_44731a7d0e6d81c3e6aa82d741081786>@@$$QEAV<lambda_601a2a7da3b7a96e9554ac7215c4b07c>@@@Z 000000018001b064 f   libucrt:signal.obj
 0001:0001a3c0       ??$?RV<lambda_842d9ff0dc9ef11c61343bbaebe7f885>@@AEAV<lambda_c5860995281e5c4ce005b3de8f5874ee>@@V<lambda_d90129c13df834fdcbf8d2b88dafcf2d>@@@?$__crt_seh_guarded_call@X@@QEAAX$$QEAV<lambda_842d9ff0dc9ef11c61343bbaebe7f885>@@AEAV<lambda_c5860995281e5c4ce005b3de8f5874ee>@@$$QEAV<lambda_d90129c13df834fdcbf8d2b88dafcf2d>@@@Z 000000018001b3c0 f   libucrt:fflush.obj
 0001:0001a45c       ??$?RV<lambda_886d6c58226a84441f68b9f2b8217b83>@@AEAV<lambda_ab61a845afdef5b7c387490eaf3616ee>@@V<lambda_f7f22ab5edc0698d5f6905b0d3f44752>@@@?$__crt_seh_guarded_call@X@@QEAAX$$QEAV<lambda_886d6c58226a84441f68b9f2b8217b83>@@AEAV<lambda_ab61a845afdef5b7c387490eaf3616ee>@@$$QEAV<lambda_f7f22ab5edc0698d5f6905b0d3f44752>@@@Z 000000018001b45c f   libucrt:fflush.obj
 0001:0001a53c       ?common_flush_all@@YAH_N@Z 000000018001b53c f   libucrt:fflush.obj
 0001:0001c510       memcpy_s                   000000018001d510 f   libucrt:cfout.obj
 0001:0001c864       ?free_crt_array_internal@@YAXQEAPEBX_K@Z 000000018001d864 f   libucrt:inittime.obj
 0001:0001d304       fallbackMethod             000000018001e304 f   libucrt:strpbrk.obj
 0001:0001d6d4       $LN78                      000000018001e6d4     libucrt:strpbrk.obj
 0001:0001d710       $LN77                      000000018001e710     libucrt:strpbrk.obj
 0001:0001d750       $LN76                      000000018001e750     libucrt:strpbrk.obj
 0001:0001d82c       ?__acrt_LCMapStringA_stat@@YAHPEAU__crt_locale_pointers@@PEB_WKPEBDHPEADHHH@Z 000000018001e82c f   libucrt:lcmapstringa.obj
 0001:0001dbdc       ?initialize_multibyte@@YAHXZ 000000018001ebdc f   libucrt:multibyte_initializer.obj
 0001:0001dbf4       ??$?RV<lambda_a37b2b86f63e897a80ea819b0eb08c01>@@AEAV<lambda_38ce7e780aa69e748d6df282ebc68efe>@@V<lambda_99fb1378e971ab6e7edea83e3a7a83a2>@@@?$__crt_seh_guarded_call@H@@QEAAH$$QEAV<lambda_a37b2b86f63e897a80ea819b0eb08c01>@@AEAV<lambda_38ce7e780aa69e748d6df282ebc68efe>@@$$QEAV<lambda_99fb1378e971ab6e7edea83e3a7a83a2>@@@Z 000000018001ebf4 f   libucrt:commit.obj
 0001:0001dd14       ?write_double_translated_ansi_nolock@@YA?AUwrite_result@?A0x17268360@@HQEBDI@Z 000000018001ed14 f   libucrt:write.obj
 0001:0001e1e4       ?write_text_ansi_nolock@@YA?AUwrite_result@?A0x17268360@@HQEBDI@Z 000000018001f1e4 f   libucrt:write.obj
 0001:0001e2e8       ?write_text_utf16le_nolock@@YA?AUwrite_result@?A0x17268360@@HQEBDI@Z 000000018001f2e8 f   libucrt:write.obj
 0001:0001e404       ?write_text_utf8_nolock@@YA?AUwrite_result@?A0x17268360@@HQEBDI@Z 000000018001f404 f   libucrt:write.obj
 0001:0001ecf0       $$000000                   000000018001fcf0     libucrt:log10.obj
 0001:0001f29c       ??$common_lseek_nolock@_J@@YA_JH_JH@Z 000000018002029c f   libucrt:lseek.obj
 0001:0001f808       _call_matherr              0000000180020808 f   libucrt:libm_error.obj
 0001:0001f870       _exception_enabled         0000000180020870 f   libucrt:libm_error.obj
 0001:0001fb00       _log_special_common        0000000180020b00 f   libucrt:log_special.obj
 0001:0001fb98       ??$?RV<lambda_751a882b2c74d4b022dec766aa51a29a>@@AEAV<lambda_628dfdc04ba53c8bfc02c9951375f3f5>@@V<lambda_f6c7be5f7998530c34de24c7437d6b54>@@@?$__crt_seh_guarded_call@H@@QEAAH$$QEAV<lambda_751a882b2c74d4b022dec766aa51a29a>@@AEAV<lambda_628dfdc04ba53c8bfc02c9951375f3f5>@@$$QEAV<lambda_f6c7be5f7998530c34de24c7437d6b54>@@@Z 0000000180020b98 f   libucrt:close.obj
 0001:0001fec0       $$000000                   0000000180020ec0     libucrt:fpsr.obj
 0001:00020560       $$000000                   0000000180021560     LIBCMT:guard_dispatch.obj
 0001:00020580       ?filt$0@?0??_AtlVerifyStackAvailable@_ATL_SAFE_ALLOCA_IMPL@ATL@@YA_N_K@Z@4HA 0000000180021580 f   Totals.obj
 0001:000205a1       __scrt_is_nonwritable_in_current_image$filt$0 00000001800215a1 f   LIBCMT:utility.obj
 0001:000205b9       ?catch$0@?0???2@YAPEAX_KAEBUnothrow_t@std@@@Z@4HA 00000001800215b9 f   LIBCMT:new_scalar_nothrow.obj
 0001:000205c6       __catch$??2@YAPEAX_KAEBUnothrow_t@std@@@Z$0 00000001800215c6 f   LIBCMT:new_scalar_nothrow.obj
 0001:000205d4       ?fin$0@?0??dllmain_crt_process_attach@@YAHQEAUHINSTANCE__@@QEAX@Z@4HA 00000001800215d4 f   LIBCMT:dll_dllmain.obj
 0001:000205eb       ?fin$0@?0??dllmain_crt_process_detach@@YAH_N@Z@4HA 00000001800215eb f   LIBCMT:dll_dllmain.obj
 0001:00020604       ?fin$1@?0??dllmain_crt_process_detach@@YAH_N@Z@4HA 0000000180021604 f   LIBCMT:dll_dllmain.obj
 0001:00020618       ?filt$0@?0??dllmain_dispatch@@YAHQEAUHINSTANCE__@@KQEAX@Z@4HA 0000000180021618 f   LIBCMT:dll_dllmain.obj
 0001:0002064e       ?filt$0@?0???$_CallSETranslator@V__FrameHandler3@@@@YAHPEAUEHExceptionRecord@@PEA_KPEAU_CONTEXT@@PEAU_xDISPATCHER_CONTEXT@@PEBU_s_FuncInfo@@K1@Z@4HA 000000018002164e f   libvcruntime:risctrnsctrl.obj
 0001:000206df       __DestructExceptionObject$filt$0 00000001800216df f   libvcruntime:ehhelpers.obj
 0001:00020775       ?filt$0@?0??CxxCallCatchBlock@__FrameHandler3@@SAPEAXPEAU_EXCEPTION_RECORD@@@Z@4HA 0000000180021775 f   libvcruntime:frame.obj
 0001:0002079a       ?fin$1@?0??CxxCallCatchBlock@__FrameHandler3@@SAPEAXPEAU_EXCEPTION_RECORD@@@Z@4HA 000000018002179a f   libvcruntime:frame.obj
 0001:00020812       ?filt$0@?0??FrameUnwindToState@__FrameHandler3@@SAXPEA_KPEAU_xDISPATCHER_CONTEXT@@PEBU_s_FuncInfo@@H@Z@4HA 0000000180021812 f   libvcruntime:frame.obj
 0001:00020828       ?fin$1@?0??FrameUnwindToState@__FrameHandler3@@SAXPEA_KPEAU_xDISPATCHER_CONTEXT@@PEBU_s_FuncInfo@@H@Z@4HA 0000000180021828 f   libvcruntime:frame.obj
 0001:0002084b       ?fin$0@?0???$?RV<lambda_0ae27a3a962d80f24befdcbee591983d>@@AEAV<lambda_8d0ee55de4b1038c4002e0adecdf1839>@@V<lambda_dc504788e8f1664fe9b84e20bfb512f2>@@@?$__crt_seh_guarded_call@X@@QEAAX$$QEAV<lambda_0ae27a3a962d80f24befdcbee591983d>@@AEAV<lambda_8d0ee55de4b1038c4002e0adecdf1839>@@$$QEAV<lambda_dc504788e8f1664fe9b84e20bfb512f2>@@@Z@4HA 000000018002184b f   libucrt:per_thread_data.obj
 0001:0002084b       ?fin$0@?0???$?RV<lambda_2d41944a1d46af3157314b8a01080d33>@@AEAV<lambda_8f455de75cd7d7f24b4096f044d8b9e6>@@V<lambda_aa500f224e6afead328df44964fe2772>@@@?$__crt_seh_guarded_call@X@@QEAAX$$QEAV<lambda_2d41944a1d46af3157314b8a01080d33>@@AEAV<lambda_8f455de75cd7d7f24b4096f044d8b9e6>@@$$QEAV<lambda_aa500f224e6afead328df44964fe2772>@@@Z@4HA 000000018002184b f   libucrt:per_thread_data.obj
 0001:0002084b       ?fin$0@?0???$?RV<lambda_aa87e3671a710a21b5dc78c0bdf72e11>@@AEAV<lambda_92619d2358a28f41a33ba319515a20b9>@@V<lambda_6992ecaafeb10aed2b74cb1fae11a551>@@@?$__crt_seh_guarded_call@X@@QEAAX$$QEAV<lambda_aa87e3671a710a21b5dc78c0bdf72e11>@@AEAV<lambda_92619d2358a28f41a33ba319515a20b9>@@$$QEAV<lambda_6992ecaafeb10aed2b74cb1fae11a551>@@@Z@4HA 000000018002184b f   libucrt:per_thread_data.obj
 0001:0002084b       ?fin$0@?0???$?RV<lambda_f2e299630e499de9f9a165e60fcd3db5>@@AEAV<lambda_2ae9d31cdba2644fcbeaf08da7c24588>@@V<lambda_40d01ff24d0e7b3814fdbdcee8eab3c7>@@@?$__crt_seh_guarded_call@X@@QEAAX$$QEAV<lambda_f2e299630e499de9f9a165e60fcd3db5>@@AEAV<lambda_2ae9d31cdba2644fcbeaf08da7c24588>@@$$QEAV<lambda_40d01ff24d0e7b3814fdbdcee8eab3c7>@@@Z@4HA 000000018002184b f   libucrt:per_thread_data.obj
 0001:0002084b       ?fin$0@?0???$?RV<lambda_efdfa57d1f175319df784efa44bb7b81>@@AEAV<lambda_5f0a4c1567f8adc6734073e5d1e1b35c>@@V<lambda_2e8a7d3640ea6ccb4c2413664c2db6fd>@@@?$__crt_seh_guarded_call@X@@QEAAX$$QEAV<lambda_efdfa57d1f175319df784efa44bb7b81>@@AEAV<lambda_5f0a4c1567f8adc6734073e5d1e1b35c>@@$$QEAV<lambda_2e8a7d3640ea6ccb4c2413664c2db6fd>@@@Z@4HA 000000018002184b f   libucrt:mbctype.obj
 0001:0002084b       ?fin$0@?0???$?RV<lambda_450d765d439847d4c735a33c368b5fc0>@@AEAV<lambda_44731a7d0e6d81c3e6aa82d741081786>@@V<lambda_601a2a7da3b7a96e9554ac7215c4b07c>@@@?$__crt_seh_guarded_call@P6AXH@Z@@QEAAP6AXH@Z$$QEAV<lambda_450d765d439847d4c735a33c368b5fc0>@@AEAV<lambda_44731a7d0e6d81c3e6aa82d741081786>@@$$QEAV<lambda_601a2a7da3b7a96e9554ac7215c4b07c>@@@Z@4HA 000000018002184b f   libucrt:signal.obj
 0001:0002084b       ?fin$0@?0???$?RV<lambda_d80eeec6fff315bfe5c115232f3240e3>@@AEAV<lambda_6e4b09c48022b2350581041d5f6b0c4c>@@V<lambda_2358e3775559c9db80273638284d5e45>@@@?$__crt_seh_guarded_call@X@@QEAAX$$QEAV<lambda_d80eeec6fff315bfe5c115232f3240e3>@@AEAV<lambda_6e4b09c48022b2350581041d5f6b0c4c>@@$$QEAV<lambda_2358e3775559c9db80273638284d5e45>@@@Z@4HA 000000018002184b f   libucrt:exit.obj
 0001:0002084b       ?fin$0@?0???$?RV<lambda_638799b9deba96c50f710eeac98168cd>@@AEAV<lambda_22ebabd17bc4fa466a2aca6d8deb888d>@@V<lambda_a6f7d7db0129f75315ebf26d50c089f1>@@@?$__crt_seh_guarded_call@H@@QEAAH$$QEAV<lambda_638799b9deba96c50f710eeac98168cd>@@AEAV<lambda_22ebabd17bc4fa466a2aca6d8deb888d>@@$$QEAV<lambda_a6f7d7db0129f75315ebf26d50c089f1>@@@Z@4HA 000000018002184b f   libucrt:onexit.obj
 0001:0002084b       ?fin$0@?0???$?RV<lambda_7777bce6b2f8c936911f934f8298dc43>@@AEAV<lambda_f03950bc5685219e0bcd2087efbe011e>@@V<lambda_3883c3dff614d5e0c5f61bb1ac94921c>@@@?$__crt_seh_guarded_call@H@@QEAAH$$QEAV<lambda_7777bce6b2f8c936911f934f8298dc43>@@AEAV<lambda_f03950bc5685219e0bcd2087efbe011e>@@$$QEAV<lambda_3883c3dff614d5e0c5f61bb1ac94921c>@@@Z@4HA 000000018002184b f   libucrt:onexit.obj
 0001:00020865       ?filt$0@?0???R<lambda_6e4b09c48022b2350581041d5f6b0c4c>@@QEBA@XZ@4HA 0000000180021865 f   libucrt:exit.obj
 0001:00020880       _query_new_handler$fin$0   0000000180021880 f   libucrt:new_handler.obj
 0001:00020896       ?fin$0@?0???$?RV<lambda_410d79af7f07d98d83a3f525b3859a53>@@AEAV<lambda_3e16ef9562a7dcce91392c22ab16ea36>@@V<lambda_38119f0e861e05405d8a144b9b982f0a>@@@?$__crt_seh_guarded_call@X@@QEAAX$$QEAV<lambda_410d79af7f07d98d83a3f525b3859a53>@@AEAV<lambda_3e16ef9562a7dcce91392c22ab16ea36>@@$$QEAV<lambda_38119f0e861e05405d8a144b9b982f0a>@@@Z@4HA 0000000180021896 f   libucrt:wsetlocale.obj
 0001:000208b0       __acrt_initialize_lowio$fin$0 00000001800218b0 f   libucrt:ioinit.obj
 0001:000208b0       __acrt_lowio_ensure_fh_exists$fin$0 00000001800218b0 f   libucrt:osfinfo.obj
 0001:000208c9       ?fin$0@?0??update_thread_multibyte_data_internal@@YAPEAU__crt_multibyte_data@@QEAU__acrt_ptd@@QEAPEAU1@@Z@4HA 00000001800218c9 f   libucrt:mbctype.obj
 0001:000208e2       raise$fin$0                00000001800218e2 f   libucrt:signal.obj
 0001:00020903       ?fin$0@?0???$?RV<lambda_842d9ff0dc9ef11c61343bbaebe7f885>@@AEAV<lambda_c5860995281e5c4ce005b3de8f5874ee>@@V<lambda_d90129c13df834fdcbf8d2b88dafcf2d>@@@?$__crt_seh_guarded_call@X@@QEAAX$$QEAV<lambda_842d9ff0dc9ef11c61343bbaebe7f885>@@AEAV<lambda_c5860995281e5c4ce005b3de8f5874ee>@@$$QEAV<lambda_d90129c13df834fdcbf8d2b88dafcf2d>@@@Z@4HA 0000000180021903 f   libucrt:fflush.obj
 0001:0002091e       ?fin$0@?0???$?RV<lambda_886d6c58226a84441f68b9f2b8217b83>@@AEAV<lambda_ab61a845afdef5b7c387490eaf3616ee>@@V<lambda_f7f22ab5edc0698d5f6905b0d3f44752>@@@?$__crt_seh_guarded_call@X@@QEAAX$$QEAV<lambda_886d6c58226a84441f68b9f2b8217b83>@@AEAV<lambda_ab61a845afdef5b7c387490eaf3616ee>@@$$QEAV<lambda_f7f22ab5edc0698d5f6905b0d3f44752>@@@Z@4HA 000000018002191e f   libucrt:fflush.obj
 0001:0002093b       __acrt_update_thread_locale_data$fin$0 000000018002193b f   libucrt:locale_refcounting.obj
 0001:00020954       _fcloseall$fin$0           0000000180021954 f   libucrt:closeall.obj
 0001:0002096d       ?fin$0@?0???$?RV<lambda_751a882b2c74d4b022dec766aa51a29a>@@AEAV<lambda_628dfdc04ba53c8bfc02c9951375f3f5>@@V<lambda_f6c7be5f7998530c34de24c7437d6b54>@@@?$__crt_seh_guarded_call@H@@QEAAH$$QEAV<lambda_751a882b2c74d4b022dec766aa51a29a>@@AEAV<lambda_628dfdc04ba53c8bfc02c9951375f3f5>@@$$QEAV<lambda_f6c7be5f7998530c34de24c7437d6b54>@@@Z@4HA 000000018002196d f   libucrt:close.obj
 0001:0002096d       ?fin$0@?0???$?RV<lambda_a37b2b86f63e897a80ea819b0eb08c01>@@AEAV<lambda_38ce7e780aa69e748d6df282ebc68efe>@@V<lambda_99fb1378e971ab6e7edea83e3a7a83a2>@@@?$__crt_seh_guarded_call@H@@QEAAH$$QEAV<lambda_a37b2b86f63e897a80ea819b0eb08c01>@@AEAV<lambda_38ce7e780aa69e748d6df282ebc68efe>@@$$QEAV<lambda_99fb1378e971ab6e7edea83e3a7a83a2>@@@Z@4HA 000000018002196d f   libucrt:commit.obj
 0001:00020987       _write$fin$0               0000000180021987 f   libucrt:write.obj
 0001:0002099e       fclose$fin$0               000000018002199e f   libucrt:fclose.obj
 0001:000209b6       _ctrlfp$filt$0             00000001800219b6 f   libucrt:fpctrl.obj
 0001:000209f0       _IsNonwritableInCurrentImage$filt$0 00000001800219f0 f   LIBCMT:pesect.obj
 0001:00020a10       ??__F_AtlComModule@ATL@@YAXXZ 0000000180021a10 f   OposVariant.obj
 0001:00020a1c       ??__F_AtlWinModule@ATL@@YAXXZ 0000000180021a1c f   OposVariant.obj
 0001:00020a60       ??__F_Module@@YAXXZ        0000000180021a60 f   Totals.obj
 0001:00020a7c       ??__F_AtlBaseModule@ATL@@YAXXZ 0000000180021a7c f   atls:atlbase.obj
 0002:00000630       ?_AtlBaseModule$initializer$@ATL@@3P6AXXZEA 0000000180022630     atls:atlbase.obj
 0002:00000638       ?_AtlComModule$initializer$@ATL@@3P6AXXZEA 0000000180022638     OposVariant.obj
 0002:00000640       ?_AtlWinModule$initializer$@ATL@@3P6AXXZEA 0000000180022640     OposVariant.obj
 0002:00000648       ?_Module$initializer$@@3P6AXXZEA 0000000180022648     Totals.obj
 0002:00000650       ??pConnMap$initializer$@?$IConnectionPointContainerImpl@VCOPOSTotals@@@ATL@@0P6AXXZEA@@3P6AXXZEA 0000000180022650     Totals.obj
 0002:00000668       ?__scrt_initialize_tss_var@@3P6AHXZEA 0000000180022668     LIBCMT:thread_safe_statics.obj
 0002:00002728       GS_ExceptionPointers       0000000180024728     LIBCMT:gs_report.obj
 0002:00002738       $cppxdata$??2@YAPEAX_KAEBUnothrow_t@std@@@Z 0000000180024738     LIBCMT:new_scalar_nothrow.obj
 0002:00002910       ?ExceptionTemplate@?1??UnwindNestedFrames@__FrameHandler3@@SAXPEA_KPEAUEHExceptionRecord@@PEAU_CONTEXT@@0PEAXPEBU_s_FuncInfo@@HHPEBU_s_HandlerType@@PEAU_xDISPATCHER_CONTEXT@@E@Z@4U_EXCEPTION_RECORD@@B 0000000180024910     libvcruntime:risctrnsctrl.obj
 0002:000029e0       ?tokenTable@@3QBUStringLiteral@@B 00000001800249e0     libvcruntime:undname.obj
 0002:00002ae0       ?nameTable@@3QBUStringLiteral@@B 0000000180024ae0     libvcruntime:undname.obj
 0002:00003010       ?rttiTable@@3QBUStringLiteral@@B 0000000180025010     libvcruntime:undname.obj
 0002:00003060       ?IndirectionName@@3QBUStringLiteral@@B 0000000180025060     libvcruntime:undname.obj
 0002:000030c0       ?PrefixName@@3QBUStringLiteral@@B 00000001800250c0     libvcruntime:undname.obj
 0002:00003798       ?module_names@?A0x81a78551@@3QBQEB_WB 0000000180025798     libvcruntime:winapi_downlevel.obj
 0002:00003858       ?candidate_modules@?1??try_get_FlsAlloc@@YAP6AKP6AXPEAX@Z@ZXZ@4QBW4module_id@?A0x81a78551@@B 0000000180025858     libvcruntime:winapi_downlevel.obj
 0002:00003870       ?candidate_modules@?1??try_get_FlsFree@@YAP6AHK@ZXZ@4QBW4module_id@?A0x81a78551@@B 0000000180025870     libvcruntime:winapi_downlevel.obj
 0002:00003880       ?candidate_modules@?1??try_get_FlsGetValue@@YAP6APEAXK@ZXZ@4QBW4module_id@?A0x81a78551@@B 0000000180025880     libvcruntime:winapi_downlevel.obj
 0002:00003898       ?candidate_modules@?1??try_get_FlsSetValue@@YAP6AHKPEAX@ZXZ@4QBW4module_id@?A0x81a78551@@B 0000000180025898     libvcruntime:winapi_downlevel.obj
 0002:000038b0       ?candidate_modules@?1??try_get_InitializeCriticalSectionEx@@YAP6AHPEAU_RTL_CRITICAL_SECTION@@KK@ZXZ@4QBW4module_id@?A0x81a78551@@B 00000001800258b0     libvcruntime:winapi_downlevel.obj
 0002:000038e0       ?errtable@@3QBUerrentry@?A0x31fdb9ec@@B 00000001800258e0     libucrt:errno.obj
 0002:00003bd0       __acrt_initializers        0000000180025bd0     libucrt:initialization.obj
 0002:00003cd0       ?module_names@?A0x391cf84c@@3QBQEB_WB 0000000180025cd0     libucrt:winapi_thunks.obj
 0002:000041d8       ?candidate_modules@?1??try_get_AreFileApisANSI@@YAP6AHXZXZ@4QBW4module_id@?A0x391cf84c@@B 00000001800261d8     libucrt:winapi_thunks.obj
 0002:000041f0       ?candidate_modules@?1??try_get_FlsAlloc@@YAP6AKP6AXPEAX@Z@ZXZ@4QBW4module_id@?A0x391cf84c@@B 00000001800261f0     libucrt:winapi_thunks.obj
 0002:000041f8       ?candidate_modules@?1??try_get_FlsFree@@YAP6AHK@ZXZ@4QBW4module_id@?A0x391cf84c@@B 00000001800261f8     libucrt:winapi_thunks.obj
 0002:00004200       ?candidate_modules@?1??try_get_FlsGetValue@@YAP6APEAXK@ZXZ@4QBW4module_id@?A0x391cf84c@@B 0000000180026200     libucrt:winapi_thunks.obj
 0002:00004208       ?candidate_modules@?1??try_get_FlsSetValue@@YAP6AHKPEAX@ZXZ@4QBW4module_id@?A0x391cf84c@@B 0000000180026208     libucrt:winapi_thunks.obj
 0002:00004210       ?candidate_modules@?1??try_get_InitializeCriticalSectionEx@@YAP6AHPEAU_RTL_CRITICAL_SECTION@@KK@ZXZ@4QBW4module_id@?A0x391cf84c@@B 0000000180026210     libucrt:winapi_thunks.obj
 0002:00004218       ?candidate_modules@?1??try_get_LCMapStringEx@@YAP6AHPEB_WK0HPEA_WHPEAU_nlsversioninfo@@PEAX_J@ZXZ@4QBW4module_id@?A0x391cf84c@@B 0000000180026218     libucrt:winapi_thunks.obj
 0002:00004230       ?candidate_modules@?1??try_get_LocaleNameToLCID@@YAP6AKPEB_WK@ZXZ@4QBW4module_id@?A0x391cf84c@@B 0000000180026230     libucrt:winapi_thunks.obj
 0002:0000424c       ?candidate_modules@?1??try_get_AppPolicyGetProcessTerminationMethod@@YAP6AJPEAXPEAW4AppPolicyProcessTerminationMethod@@@ZXZ@4QBW4module_id@?A0x391cf84c@@B 000000018002624c     libucrt:winapi_thunks.obj
 0002:00004278       ?candidate_modules@?1??try_get_SetThreadStackGuarantee@@YAP6AHPEAK@ZXZ@4QBW4module_id@?A0x391cf84c@@B 0000000180026278     libucrt:winapi_thunks.obj
 0002:000042a0       ?strings@?1??fp_format_nan_or_infinity@@YAHW4__acrt_fp_class@@_NPEAD_K1@Z@4QAY03QEBDA 00000001800262a0     libucrt:cvt.obj
 0002:00004a00       ?_mb_locale_names@@3QBQEB_WB 0000000180026a00     libucrt:mbctype.obj
 0002:00005270       ?LcidToLocaleNameTable@?A0x881e4c05@@3QBULcidToLocaleName@1@B 0000000180027270     libucrt:lcidtoname_downlevel.obj
 0002:00006cd0       ?LocaleNameToIndexTable@?A0x881e4c05@@3QBULocaleNameIndex@1@B 0000000180028cd0     libucrt:lcidtoname_downlevel.obj
 0002:00008e80       ?large_power_indices@?1??multiply_by_power_of_ten@__crt_strtox@@YA_NAEAUbig_integer@2@I@Z@4QBUunpack_index@?1??12@YA_N0I@Z@B 000000018002ae80     libucrt:cfout.obj
 0002:00008f70       __real_ninf                000000018002af70     libucrt:log10.obj
 0002:00008f80       __real_inf                 000000018002af80     libucrt:log10.obj
 0002:00008f90       __real_neg_qnan            000000018002af90     libucrt:log10.obj
 0002:00008fa0       __real_qnanbit             000000018002afa0     libucrt:log10.obj
 0002:00008fb0       __int_1023                 000000018002afb0     libucrt:log10.obj
 0002:00008fc0       __mask_001                 000000018002afc0     libucrt:log10.obj
 0002:00008fd0       __mask_mant                000000018002afd0     libucrt:log10.obj
 0002:00008fe0       __mask_mant_top8           000000018002afe0     libucrt:log10.obj
 0002:00008ff0       __mask_mant9               000000018002aff0     libucrt:log10.obj
 0002:00009000       __real_log10_e             000000018002b000     libucrt:log10.obj
 0002:00009010       __real_log10_e_lead        000000018002b010     libucrt:log10.obj
 0002:00009020       __real_log10_e_tail        000000018002b020     libucrt:log10.obj
 0002:00009030       __real_log10_2_lead        000000018002b030     libucrt:log10.obj
 0002:00009040       __real_log10_2_tail        000000018002b040     libucrt:log10.obj
 0002:00009050       __real_two                 000000018002b050     libucrt:log10.obj
 0002:00009060       __real_one                 000000018002b060     libucrt:log10.obj
 0002:00009070       __real_half                000000018002b070     libucrt:log10.obj
 0002:00009080       __mask_100                 000000018002b080     libucrt:log10.obj
 0002:00009090       __real_1_over_512          000000018002b090     libucrt:log10.obj
 0002:000090a0       __real_1_over_2            000000018002b0a0     libucrt:log10.obj
 0002:000090b0       __real_1_over_3            000000018002b0b0     libucrt:log10.obj
 0002:000090c0       __real_1_over_4            000000018002b0c0     libucrt:log10.obj
 0002:000090d0       __real_1_over_5            000000018002b0d0     libucrt:log10.obj
 0002:000090e0       __real_1_over_6            000000018002b0e0     libucrt:log10.obj
 0002:000090f0       __real_neg_1023            000000018002b0f0     libucrt:log10.obj
 0002:00009100       __mask_2045                000000018002b100     libucrt:log10.obj
 0002:00009110       __real_threshold           000000018002b110     libucrt:log10.obj
 0002:00009120       __real_near_one_lt         000000018002b120     libucrt:log10.obj
 0002:00009130       __real_near_one_gt         000000018002b130     libucrt:log10.obj
 0002:00009140       __real_min_norm            000000018002b140     libucrt:log10.obj
 0002:00009150       __real_notsign             000000018002b150     libucrt:log10.obj
 0002:00009160       __real_ca1                 000000018002b160     libucrt:log10.obj
 0002:00009170       __real_ca2                 000000018002b170     libucrt:log10.obj
 0002:00009180       __real_ca3                 000000018002b180     libucrt:log10.obj
 0002:00009190       __real_ca4                 000000018002b190     libucrt:log10.obj
 0002:000091a0       __mask_lower               000000018002b1a0     libucrt:log10.obj
 0002:000091b0       __flag_x_zero              000000018002b1b0     libucrt:log10.obj
 0002:000091b4       __flag_x_neg               000000018002b1b4     libucrt:log10.obj
 0002:000091b8       __flag_x_nan               000000018002b1b8     libucrt:log10.obj
 0002:0000aa10       __real@433fffffffffffff    000000018002ca10     libucrt:fpsr.obj
 0002:0000aa18       __real@c33fffffffffffff    000000018002ca18     libucrt:fpsr.obj
 0002:0000b258       $unwind$?cw_memcpy@@YAHPEA_WPEBDH@Z 000000018002d258     CWString.obj
 0002:0000b258       $unwind$?ProcessWindowMessage@?$CComControl@VCOPOSTotals@@V?$CWindowImpl@VCOPOSTotals@@VCWindow@ATL@@V?$CWinTraits@$0FGAAAAAA@$0A@@3@@ATL@@@ATL@@UEAAHPEAUHWND__@@I_K_JAEA_JK@Z 000000018002d258     Totals.obj
 0002:0000b258       $unwind$wcstol             000000018002d258     libucrt:strtox.obj
 0002:0000b258       $unwind$_invalid_parameter_noinfo 000000018002d258     libucrt:invalid_parameter.obj
 0002:0000b258       $unwind$_log10_special     000000018002d258     libucrt:log_special.obj
 0002:0000b260       $unwind$?cw_strcpy@@YAHPEA_WPEBD@Z 000000018002d260     CWString.obj
 0002:0000b260       $unwind$??1OposDispParms@@QEAA@XZ 000000018002d260     OposVariant.obj
 0002:0000b260       $unwind$??__E_AtlComModule@ATL@@YAXXZ 000000018002d260     OposVariant.obj
 0002:0000b260       $unwind$??__E_AtlWinModule@ATL@@YAXXZ 000000018002d260     OposVariant.obj
 0002:0000b260       $unwind$??__F_AtlWinModule@ATL@@YAXXZ 000000018002d260     OposVariant.obj
 0002:0000b260       $unwind$?GetLONG@OposVariant@@QEAAJXZ 000000018002d260     OposVariant.obj
 0002:0000b260       $unwind$??__E?pConnMap@?$IConnectionPointContainerImpl@VCOPOSTotals@@@ATL@@0PEBU_ATL_CONNMAP_ENTRY@2@EB@@YAXXZ 000000018002d260     Totals.obj
 0002:0000b260       $unwind$?AddReplacement@CRegObject@ATL@@UEAAJPEB_W0@Z 000000018002d260     Totals.obj
 0002:0000b260       $unwind$?AtlHresultFromLastError@ATL@@YAJXZ 000000018002d260     Totals.obj
 0002:0000b260       $unwind$?AtlThrowImpl@ATL@@YAXJ@Z 000000018002d260     Totals.obj
 0002:0000b260       $unwind$?CreateInstance@CComClassFactory@ATL@@UEAAJPEAUIUnknown@@AEBU_GUID@@PEAPEAX@Z 000000018002d260     Totals.obj
 0002:0000b260       $unwind$?DefaultReflectionHandler@?$CWindowImplRoot@VCWindow@ATL@@@ATL@@SAHPEAUHWND__@@I_K_JAEA_J@Z 000000018002d260     Totals.obj
 0002:0000b260       $unwind$?EnumAdvise@?$IOleObjectImpl@VCOPOSTotals@@@ATL@@UEAAJPEAPEAUIEnumSTATDATA@@@Z 000000018002d260     Totals.obj
 0002:0000b260       $unwind$?FireViewChange@CComControlBase@ATL@@QEAAJXZ 000000018002d260     Totals.obj
 0002:0000b260       $unwind$?GetAdvise@?$IViewObjectExImpl@VCOPOSTotals@@@ATL@@UEAAJPEAK0PEAPEAUIAdviseSink@@@Z 000000018002d260     Totals.obj
 0002:0000b260       $unwind$?LockServer@CComClassFactory@ATL@@UEAAJH@Z 000000018002d260     Totals.obj
 0002:0000b260       $unwind$?OnDocWindowActivate@?$IOleInPlaceActiveObjectImpl@VCOPOSTotals@@@ATL@@UEAAJH@Z 000000018002d260     Totals.obj
 0002:0000b260       $unwind$?Unadvise@?$IOleObjectImpl@VCOPOSTotals@@@ATL@@UEAAJK@Z 000000018002d260     Totals.obj
 0002:0000b260       $unwind$?_LocCPQueryInterface@?$IConnectionPointImpl@VCOPOSTotals@@$1?DIID__IOPOSTotalsEvents@@3U_GUID@@BVCComDynamicUnkArray@ATL@@@ATL@@UEAAJAEBU_GUID@@PEAPEAX@Z 000000018002d260     Totals.obj
 0002:0000b260       $unwind$?_LocCPQueryInterface@?$IConnectionPointImpl@VCOPOSTotals@@$1?IID_IPropertyNotifySink@@3U_GUID@@BVCComDynamicUnkArray@ATL@@@ATL@@UEAAJAEBU_GUID@@PEAPEAX@Z 000000018002d260     Totals.obj
 0002:0000b260       $unwind$?FinalConstruct@COPOSTotals@@QEAAJXZ 000000018002d260     TotalsImpl.obj
 0002:0000b260       $unwind$?get_ResultCode@COPOSTotals@@UEAAJPEAJ@Z 000000018002d260     TotalsImpl.obj
 0002:0000b260       $unwind$?get_State@COPOSTotals@@UEAAJPEAJ@Z 000000018002d260     TotalsImpl.obj
 0002:0000b260       $unwind$??__E_AtlBaseModule@ATL@@YAXXZ 000000018002d260     atls:atlbase.obj
 0002:0000b260       $unwind$__scrt_initialize_default_local_stdio_options 000000018002d260     LIBCMT:default_local_stdio_options.obj
 0002:0000b260       $unwind$?dllmain_crt_dispatch@@YAHQEAUHINSTANCE__@@KQEAX@Z 000000018002d260     LIBCMT:dll_dllmain.obj
 0002:0000b260       $unwind$__report_rangecheckfailure 000000018002d260     LIBCMT:gs_report.obj
 0002:0000b260       $unwind$__GSHandlerCheck   000000018002d260     LIBCMT:gshandler.obj
 0002:0000b260       $unwind$?__scrt_uninitialize_thread_safe_statics@@YAXXZ 000000018002d260     LIBCMT:thread_safe_statics.obj
 0002:0000b260       $unwind$_Init_thread_notify 000000018002d260     LIBCMT:thread_safe_statics.obj
 0002:0000b260       $unwind$__scrt_acquire_startup_lock 000000018002d260     LIBCMT:utility.obj
 0002:0000b260       $unwind$__scrt_dllmain_after_initialize_c 000000018002d260     LIBCMT:utility.obj
 0002:0000b260       $unwind$__scrt_dllmain_before_initialize_c 000000018002d260     LIBCMT:utility.obj
 0002:0000b260       $unwind$__scrt_dllmain_crt_thread_attach 000000018002d260     LIBCMT:utility.obj
 0002:0000b260       $unwind$__scrt_dllmain_crt_thread_detach 000000018002d260     LIBCMT:utility.obj
 0002:0000b260       $unwind$__scrt_dllmain_uninitialize_c 000000018002d260     LIBCMT:utility.obj
 0002:0000b260       $unwind$__scrt_dllmain_uninitialize_critical 000000018002d260     LIBCMT:utility.obj
 0002:0000b260       $unwind$atexit             000000018002d260     LIBCMT:utility.obj
 0002:0000b260       $unwind$?GetCurrentState@__FrameHandler3@@SAHPEA_KPEAU_xDISPATCHER_CONTEXT@@PEBU_s_FuncInfo@@@Z 000000018002d260     libvcruntime:ehstate.obj
 0002:0000b260       $unwind$__vcrt_initialize  000000018002d260     libvcruntime:initialization.obj
 0002:0000b260       $unwind$__vcrt_thread_attach 000000018002d260     libvcruntime:initialization.obj
 0002:0000b260       $unwind$__vcrt_thread_detach 000000018002d260     libvcruntime:initialization.obj
 0002:0000b260       $unwind$__vcrt_uninitialize 000000018002d260     libvcruntime:initialization.obj
 0002:0000b260       $unwind$__vcrt_uninitialize_critical 000000018002d260     libvcruntime:initialization.obj
 0002:0000b260       $unwind$__vcrt_initialize_locks 000000018002d260     libvcruntime:locks.obj
 0002:0000b260       $unwind$__vcrt_freefls     000000018002d260     libvcruntime:per_thread_data.obj
 0002:0000b260       $unwind$__vcrt_getptd      000000018002d260     libvcruntime:per_thread_data.obj
 0002:0000b260       $unwind$__vcrt_initialize_ptd 000000018002d260     libvcruntime:per_thread_data.obj
 0002:0000b260       $unwind$__vcrt_uninitialize_ptd 000000018002d260     libvcruntime:per_thread_data.obj
 0002:0000b260       $unwind$_purecall          000000018002d260     libvcruntime:purevirt.obj
 0002:0000b260       $unwind$_GetImageBase      000000018002d260     libvcruntime:risctrnsctrl.obj
 0002:0000b260       $unwind$_GetThrowImageBase 000000018002d260     libvcruntime:risctrnsctrl.obj
 0002:0000b260       $unwind$__dcrt_terminate_console_output 000000018002d260     libucrt:initcon.obj
 0002:0000b260       $unwind$??$uninitialize_environment_internal@D@@YAXAEAPEAPEAD@Z 000000018002d260     libucrt:environment_initialization.obj
 0002:0000b260       $unwind$??$uninitialize_environment_internal@_W@@YAXAEAPEAPEA_W@Z 000000018002d260     libucrt:environment_initialization.obj
 0002:0000b260       $unwind$__dcrt_uninitialize_environments_nolock 000000018002d260     libucrt:environment_initialization.obj
 0002:0000b260       $unwind$__acrt_initialize_heap 000000018002d260     libucrt:heap_handle.obj
 0002:0000b260       $unwind$_msize_base        000000018002d260     libucrt:msize.obj
 0002:0000b260       $unwind$?initialize_multibyte@@YAHXZ 000000018002d260     libucrt:multibyte_initializer.obj
 0002:0000b260       $unwind$__acrt_thread_attach 000000018002d260     libucrt:initialization.obj
 0002:0000b260       $unwind$__acrt_thread_detach 000000018002d260     libucrt:initialization.obj
 0002:0000b260       $unwind$__acrt_uninitialize 000000018002d260     libucrt:initialization.obj
 0002:0000b260       $unwind$__acrt_uninitialize_critical 000000018002d260     libucrt:initialization.obj
 0002:0000b260       $unwind$initialize_c       000000018002d260     libucrt:initialization.obj
 0002:0000b260       $unwind$uninitialize_allocated_io_buffers 000000018002d260     libucrt:initialization.obj
 0002:0000b260       $unwind$uninitialize_environment 000000018002d260     libucrt:initialization.obj
 0002:0000b260       $unwind$__acrt_initialize_ptd 000000018002d260     libucrt:per_thread_data.obj
 0002:0000b260       $unwind$__acrt_uninitialize_ptd 000000018002d260     libucrt:per_thread_data.obj
 0002:0000b260       $unwind$__acrt_AreFileApisANSI 000000018002d260     libucrt:winapi_thunks.obj
 0002:0000b260       $unwind$__pctype_func      000000018002d260     libucrt:ctype.obj
 0002:0000b260       $unwind$__acrt_release_locale_ref 000000018002d260     libucrt:locale_refcounting.obj
 0002:0000b260       $unwind$_isatty            000000018002d260     libucrt:isatty.obj
 0002:0000b260       $unwind$_get_osfhandle     000000018002d260     libucrt:osfinfo.obj
 0002:0000b260       $unwind$__acrt_initialize_multibyte 000000018002d260     libucrt:mbctype.obj
 0002:0000b260       $unwind$__acrt_update_thread_multibyte_data 000000018002d260     libucrt:mbctype.obj
 0002:0000b260       $unwind$__doserrno         000000018002d260     libucrt:errno.obj
 0002:0000b260       $unwind$_errno             000000018002d260     libucrt:errno.obj
 0002:0000b260       $unwind$_invoke_watson     000000018002d260     libucrt:invalid_parameter.obj
 0002:0000b260       $unwind$abort              000000018002d260     libucrt:abort.obj
 0002:0000b260       $unwind$__acrt_initialize_command_line 000000018002d260     libucrt:argv_data.obj
 0002:0000b260       $unwind$_fileno            000000018002d260     libucrt:fileno.obj
 0002:0000b260       $unwind$?state_case_size@?$output_processor@_WV?$string_output_adapter@_W@__crt_stdio_output@@V?$format_validation_base@_WV?$string_output_adapter@_W@__crt_stdio_output@@@2@@__crt_stdio_output@@AEAA_NXZ 000000018002d260     libucrt:output.obj
 0002:0000b260       $unwind$_statfp            000000018002d260     libucrt:fpctrl.obj
 0002:0000b260       $unwind$_set_errno_from_matherr 000000018002d260     libucrt:fpexcept.obj
 0002:0000b268       $unwind$?cw_dup@@YAXPEBDAEAHAEAPEA_W1@Z 000000018002d268     CWString.obj
 0002:0000b268       $unwind$?DAdvise@?$IDataObjectImpl@VCOPOSTotals@@@ATL@@UEAAJPEAUtagFORMATETC@@KPEAUIAdviseSink@@PEAK@Z 000000018002d268     Totals.obj
 0002:0000b268       $unwind$??$__acrt_mbs_to_wcs_cp@U__crt_win32_buffer_internal_dynamic_resizing@@@@YAHQEBDAEAV?$__crt_win32_buffer@_WU__crt_win32_buffer_internal_dynamic_resizing@@@@I@Z 000000018002d268     libucrt:argv_wildcards.obj
 0002:0000b280       $unwind$?DupWide@_CW@@AEAAXXZ 000000018002d280     CWString.obj
 0002:0000b280       $unwind$??0CAtlComModule@ATL@@QEAA@XZ 000000018002d280     OposVariant.obj
 0002:0000b280       $unwind$??0CAtlWinModule@ATL@@QEAA@XZ 000000018002d280     OposVariant.obj
 0002:0000b280       $unwind$?SetBSTR_OutPtr@OposVariant@@QEAA_NPEAPEA_WAEAJ@Z 000000018002d280     OposVariant.obj
 0002:0000b280       $unwind$??0?$CComObject@VCOPOSTotals@@@ATL@@QEAA@PEAX@Z 000000018002d280     Totals.obj
 0002:0000b280       $unwind$??0CAtlModule@ATL@@QEAA@XZ 000000018002d280     Totals.obj
 0002:0000b280       $unwind$??1?$CComObject@VCOPOSTotals@@@ATL@@UEAA@XZ 000000018002d280     Totals.obj
 0002:0000b280       $unwind$??__E_Module@@YAXXZ 000000018002d280     Totals.obj
 0002:0000b280       $unwind$?AddRef@?$CComObjectCached@VCComClassFactory@ATL@@@ATL@@UEAAKXZ 000000018002d280     Totals.obj
 0002:0000b280       $unwind$?AllocateHeap@?$CTempBuffer@E$0BAA@VCCRTAllocator@ATL@@@ATL@@AEAAX_K@Z 000000018002d280     Totals.obj
 0002:0000b280       $unwind$?AllocateHeap@?$CTempBuffer@_W$0BAA@VCCRTAllocator@ATL@@@ATL@@AEAAX_K@Z 000000018002d280     Totals.obj
 0002:0000b280       $unwind$?AllocateHeap@?$CTempBuffer@_W$0EAA@VCCRTAllocator@ATL@@@ATL@@AEAAX_K@Z 000000018002d280     Totals.obj
 0002:0000b280       $unwind$?GetClassInfoW@?$IProvideClassInfo2Impl@$1?CLSID_OPOSTotals@@3U_GUID@@B$1?DIID__IOPOSTotalsEvents@@3U2@B$1?LIBID_OposTotals_CCO@@3U2@B$00$0A@VCComTypeInfoHolder@ATL@@@ATL@@UEAAJPEAPEAUITypeInfo@@@Z 000000018002d280     Totals.obj
 0002:0000b280       $unwind$?GetClientSite@?$IOleObjectImpl@VCOPOSTotals@@@ATL@@UEAAJPEAPEAUIOleClientSite@@@Z 000000018002d280     Totals.obj
 0002:0000b280       $unwind$?GetConnMap@COPOSTotals@@SAPEBU_ATL_CONNMAP_ENTRY@ATL@@PEAH@Z 000000018002d280     Totals.obj
 0002:0000b280       $unwind$?GetTypeInfo@?$IDispatchImpl@UIOPOSTotals@@$1?IID_IOPOSTotals@@3U_GUID@@B$1?LIBID_OposTotals_CCO@@3U3@B$00$0A@VCComTypeInfoHolder@ATL@@@ATL@@UEAAJIKPEAPEAUITypeInfo@@@Z 000000018002d280     Totals.obj
 0002:0000b280       $unwind$?IOleInPlaceObject_InPlaceDeactivate@CComControlBase@ATL@@QEAAJXZ 000000018002d280     Totals.obj
 0002:0000b280       $unwind$?IOleObject_SetExtent@CComControlBase@ATL@@QEAAJKPEAUtagSIZE@@@Z 000000018002d280     Totals.obj
 0002:0000b280       $unwind$?IsEqualObject@?$CComPtrBase@UIOleClientSite@@@ATL@@QEAA_NPEAUIUnknown@@@Z 000000018002d280     Totals.obj
 0002:0000b280       $unwind$?QueryHitPoint@?$IViewObjectExImpl@VCOPOSTotals@@@ATL@@UEAAJKPEBUtagRECT@@UtagPOINT@@JPEAK@Z 000000018002d280     Totals.obj
 0002:0000b280       $unwind$?QueryInterface@?$CComAggObject@VCOPOSTotals@@@ATL@@UEAAJAEBU_GUID@@PEAPEAX@Z 000000018002d280     Totals.obj
 0002:0000b280       $unwind$?Release@?$CComObjectCached@VCComClassFactory@ATL@@@ATL@@UEAAKXZ 000000018002d280     Totals.obj
 0002:0000b280       $unwind$?Unadvise@?$IConnectionPointImpl@VCOPOSTotals@@$1?DIID__IOPOSTotalsEvents@@3U_GUID@@BVCComDynamicUnkArray@ATL@@@ATL@@UEAAJK@Z 000000018002d280     Totals.obj
 0002:0000b280       $unwind$?Unadvise@?$IConnectionPointImpl@VCOPOSTotals@@$1?IID_IPropertyNotifySink@@3U_GUID@@BVCComDynamicUnkArray@ATL@@@ATL@@UEAAJK@Z 000000018002d280     Totals.obj
 0002:0000b280       $unwind$??1CComControlBase@ATL@@UEAA@XZ 000000018002d280     TotalsImpl.obj
 0002:0000b280       $unwind$??1COPOSTotals@@UEAA@XZ 000000018002d280     TotalsImpl.obj
 0002:0000b280       $unwind$?EventUninit@COPOSTotals@@IEAAXXZ 000000018002d280     TotalsImpl.obj
 0002:0000b280       $unwind$?FreezeEvents@COPOSTotals@@MEAAJH@Z 000000018002d280     TotalsImpl.obj
 0002:0000b280       $unwind$?SOProcessID@COPOSTotals@@UEAAJPEAJ@Z 000000018002d280     TotalsImpl.obj
 0002:0000b280       $unwind$?get_CapCompareFirmwareVersion@COPOSTotals@@UEAAJPEAF@Z 000000018002d280     TotalsImpl.obj
 0002:0000b280       $unwind$?get_CapErrorDetection@COPOSTotals@@UEAAJPEAF@Z 000000018002d280     TotalsImpl.obj
 0002:0000b280       $unwind$?get_CapSingleFile@COPOSTotals@@UEAAJPEAF@Z 000000018002d280     TotalsImpl.obj
 0002:0000b280       $unwind$?get_CapStatisticsReporting@COPOSTotals@@UEAAJPEAF@Z 000000018002d280     TotalsImpl.obj
 0002:0000b280       $unwind$?get_CapTransactions@COPOSTotals@@UEAAJPEAF@Z 000000018002d280     TotalsImpl.obj
 0002:0000b280       $unwind$?get_CapUpdateFirmware@COPOSTotals@@UEAAJPEAF@Z 000000018002d280     TotalsImpl.obj
 0002:0000b280       $unwind$?get_CapUpdateStatistics@COPOSTotals@@UEAAJPEAF@Z 000000018002d280     TotalsImpl.obj
 0002:0000b280       $unwind$?get_Claimed@COPOSTotals@@UEAAJPEAF@Z 000000018002d280     TotalsImpl.obj
 0002:0000b280       $unwind$?get_DeviceEnabled@COPOSTotals@@UEAAJPEAF@Z 000000018002d280     TotalsImpl.obj
 0002:0000b280       $unwind$?get_FreezeEvents@COPOSTotals@@UEAAJPEAF@Z 000000018002d280     TotalsImpl.obj
 0002:0000b280       $unwind$?get_TransactionInProgress@COPOSTotals@@UEAAJPEAF@Z 000000018002d280     TotalsImpl.obj
 0002:0000b280       $unwind$?put_FreezeEvents@COPOSTotals@@UEAAJF@Z 000000018002d280     TotalsImpl.obj
 0002:0000b280       $unwind$??1CAtlBaseModule@ATL@@QEAA@XZ 000000018002d280     atls:atlbase.obj
 0002:0000b280       $unwind$AtlThunk_AllocateData 000000018002d280     atls:atlthunk.obj
 0002:0000b280       $unwind$__raise_securityfailure 000000018002d280     LIBCMT:gs_report.obj
 0002:0000b280       $unwind$??2@YAPEAX_K@Z     000000018002d280     LIBCMT:new_scalar.obj
 0002:0000b280       $unwind$??_Gtype_info@@UEAAPEAXI@Z 000000018002d280     LIBCMT:std_type_info_static.obj
 0002:0000b280       $unwind$_Init_thread_footer 000000018002d280     LIBCMT:thread_safe_statics.obj
 0002:0000b280       $unwind$_Init_thread_header 000000018002d280     LIBCMT:thread_safe_statics.obj
 0002:0000b280       $unwind$_Init_thread_wait  000000018002d280     LIBCMT:thread_safe_statics.obj
 0002:0000b280       $unwind$??0bad_alloc@std@@QEAA@AEBV01@@Z 000000018002d280     LIBCMT:throw_bad_alloc.obj
 0002:0000b280       $unwind$??0bad_array_new_length@std@@QEAA@AEBV01@@Z 000000018002d280     LIBCMT:throw_bad_alloc.obj
 0002:0000b280       $unwind$??0exception@std@@QEAA@AEBV01@@Z 000000018002d280     LIBCMT:throw_bad_alloc.obj
 0002:0000b280       $unwind$__scrt_initialize_crt 000000018002d280     LIBCMT:utility.obj
 0002:0000b280       $unwind$__scrt_initialize_onexit_tables 000000018002d280     LIBCMT:utility.obj
 0002:0000b280       $unwind$__scrt_release_startup_lock 000000018002d280     LIBCMT:utility.obj
 0002:0000b280       $unwind$__scrt_uninitialize_crt 000000018002d280     LIBCMT:utility.obj
 0002:0000b280       $unwind$_onexit            000000018002d280     LIBCMT:utility.obj
 0002:0000b280       $unwind$_IsExceptionObjectToBeDestroyed 000000018002d280     libvcruntime:ehhelpers.obj
 0002:0000b280       $unwind$?GetUnwindTryBlock@__FrameHandler3@@SAHPEA_KPEAU_xDISPATCHER_CONTEXT@@PEBU_s_FuncInfo@@@Z 000000018002d280     libvcruntime:ehstate.obj
 0002:0000b280       $unwind$?StateFromIp@__FrameHandler3@@SAHPEBU_s_FuncInfo@@PEAU_xDISPATCHER_CONTEXT@@_K@Z 000000018002d280     libvcruntime:ehstate.obj
 0002:0000b280       $unwind$??0bad_exception@std@@QEAA@AEBV01@@Z 000000018002d280     libvcruntime:frame.obj
 0002:0000b280       $unwind$?ExFilterRethrow@@YAHPEAU_EXCEPTION_POINTERS@@PEAUEHExceptionRecord@@PEAH@Z 000000018002d280     libvcruntime:frame.obj
 0002:0000b280       $unwind$__vcrt_uninitialize_locks 000000018002d280     libvcruntime:locks.obj
 0002:0000b280       $unwind$__vcrt_freeptd     000000018002d280     libvcruntime:per_thread_data.obj
 0002:0000b280       $unwind$?ExecutionInCatch@__FrameHandler3@@SA_NPEAU_xDISPATCHER_CONTEXT@@PEBU_s_FuncInfo@@@Z 000000018002d280     libvcruntime:risctrnsctrl.obj
 0002:0000b280       $unwind$_CreateFrameInfo   000000018002d280     libvcruntime:risctrnsctrl.obj
 0002:0000b280       $unwind$_SetImageBase      000000018002d280     libvcruntime:risctrnsctrl.obj
 0002:0000b280       $unwind$_SetThrowImageBase 000000018002d280     libvcruntime:risctrnsctrl.obj
 0002:0000b280       $unwind$__std_exception_destroy 000000018002d280     libvcruntime:std_exception.obj
 0002:0000b280       $unwind$__std_type_info_destroy_list 000000018002d280     libvcruntime:std_type_info.obj
 0002:0000b280       $unwind$__vcrt_FlsAlloc    000000018002d280     libvcruntime:winapi_downlevel.obj
 0002:0000b280       $unwind$__vcrt_FlsFree     000000018002d280     libvcruntime:winapi_downlevel.obj
 0002:0000b280       $unwind$__vcrt_FlsGetValue 000000018002d280     libvcruntime:winapi_downlevel.obj
 0002:0000b280       $unwind$_calloc_base       000000018002d280     libucrt:calloc_base.obj
 0002:0000b280       $unwind$_malloc_base       000000018002d280     libucrt:malloc_base.obj
 0002:0000b280       $unwind$_callnewh          000000018002d280     libucrt:new_handler.obj
 0002:0000b280       $unwind$initialize_pointers 000000018002d280     libucrt:initialization.obj
 0002:0000b280       $unwind$uninitialize_allocated_memory 000000018002d280     libucrt:initialization.obj
 0002:0000b280       $unwind$__acrt_initialize_locks 000000018002d280     libucrt:locks.obj
 0002:0000b280       $unwind$__acrt_uninitialize_locks 000000018002d280     libucrt:locks.obj
 0002:0000b280       $unwind$__acrt_freeptd     000000018002d280     libucrt:per_thread_data.obj
 0002:0000b280       $unwind$__acrt_getptd_head 000000018002d280     libucrt:per_thread_data.obj
 0002:0000b280       $unwind$__acrt_get_process_end_policy 000000018002d280     libucrt:win_policies.obj
 0002:0000b280       $unwind$__acrt_AppPolicyGetProcessTerminationMethodInternal 000000018002d280     libucrt:winapi_thunks.obj
 0002:0000b280       $unwind$__acrt_FlsAlloc    000000018002d280     libucrt:winapi_thunks.obj
 0002:0000b280       $unwind$__acrt_FlsFree     000000018002d280     libucrt:winapi_thunks.obj
 0002:0000b280       $unwind$__acrt_FlsGetValue 000000018002d280     libucrt:winapi_thunks.obj
 0002:0000b280       $unwind$__acrt_SetThreadStackGuarantee 000000018002d280     libucrt:winapi_thunks.obj
 0002:0000b280       $unwind$__acrt_uninitialize_winapi_thunks 000000018002d280     libucrt:winapi_thunks.obj
 0002:0000b280       $unwind$__acrt_update_locale_info 000000018002d280     libucrt:locale_update.obj
 0002:0000b280       $unwind$__acrt_update_multibyte_info 000000018002d280     libucrt:locale_update.obj
 0002:0000b280       $unwind$__acrt_allocate_buffer_for_argv 000000018002d280     libucrt:argv_parsing.obj
 0002:0000b280       $unwind$?exit_or_terminate_process@@YAXI@Z 000000018002d280     libucrt:exit.obj
 0002:0000b280       $unwind$?try_cor_exit_process@@YAXI@Z 000000018002d280     libucrt:exit.obj
 0002:0000b280       $unwind$__acrt_uninitialize_stdio 000000018002d280     libucrt:_file.obj
 0002:0000b280       $unwind$__acrt_stdio_free_buffer_nolock 000000018002d280     libucrt:_freebuf.obj
 0002:0000b280       $unwind$_fflush_nolock     000000018002d280     libucrt:fflush.obj
 0002:0000b280       $unwind$strcpy_s           000000018002d280     libucrt:strcpy_s.obj
 0002:0000b280       $unwind$wcscat_s           000000018002d280     libucrt:wcscat_s.obj
 0002:0000b280       $unwind$wcscpy_s           000000018002d280     libucrt:wcscpy_s.obj
 0002:0000b280       $unwind$_clrfp             000000018002d280     libucrt:fpctrl.obj
 0002:0000b280       $unwind$_set_statfp        000000018002d280     libucrt:fpctrl.obj
 0002:0000b280       $unwind$_clearfp           000000018002d280     libucrt:ieee.obj
 0002:0000b280       $unwind$fegetenv           000000018002d280     libucrt:fegetenv.obj
 0002:0000b280       $unwind$feholdexcept       000000018002d280     libucrt:feholdexcept.obj
 0002:0000b280       $unwind$fesetenv           000000018002d280     libucrt:fesetenv.obj
 0002:0000b288       $unwind$?AtlWinModuleTerm@ATL@@YAJPEAU_ATL_WIN_MODULE70@1@PEAUHINSTANCE__@@@Z 000000018002d288     OposVariant.obj
 0002:0000b288       $unwind$?AtlWinModuleExtractCreateWndData@ATL@@YAPEAXPEAU_ATL_WIN_MODULE70@1@@Z 000000018002d288     Totals.obj
 0002:0000b288       $unwind$?CreateInstance@?$CComCreator@V?$CComObject@VCOPOSTotals@@@ATL@@@ATL@@SAJPEAXAEBU_GUID@@PEAPEAX@Z 000000018002d288     Totals.obj
 0002:0000b288       $unwind$?DoEvent@COPOSTotals@@IEAAXI_K_J@Z 000000018002d288     Totals.obj
 0002:0000b288       $unwind$?DoVerb@?$IOleObjectImpl@VCOPOSTotals@@@ATL@@UEAAJJPEAUtagMSG@@PEAUIOleClientSite@@JPEAUHWND__@@PEBUtagRECT@@@Z 000000018002d288     Totals.obj
 0002:0000b288       $unwind$?HKeyFromString@CRegParser@ATL@@KAPEAUHKEY__@@PEA_W@Z 000000018002d288     Totals.obj
 0002:0000b288       $unwind$?Next@?$CComEnumImpl@UIEnumConnectionPoints@@$1?_GUID_b196b285_bab4_101a_b69c_00aa00341d07@@3U__s_GUID@@BPEAUIConnectionPoint@@V?$_CopyInterface@UIConnectionPoint@@@ATL@@@ATL@@UEAAJKPEAPEAUIConnectionPoint@@PEAK@Z 000000018002d288     Totals.obj
 0002:0000b288       $unwind$?Next@?$CComEnumImpl@UIEnumConnections@@$1?_GUID_b196b287_bab4_101a_b69c_00aa00341d07@@3U__s_GUID@@BUtagCONNECTDATA@@V?$_Copy@UtagCONNECTDATA@@@ATL@@@ATL@@UEAAJKPEAUtagCONNECTDATA@@PEAK@Z 000000018002d288     Totals.obj
 0002:0000b288       $unwind$?SODirectIO@COPOSTotals@@MEAAJJPEAJPEAPEA_W@Z 000000018002d288     Totals.obj
 0002:0000b288       $unwind$?SetControlFocus@CComControlBase@ATL@@QEAAHH@Z 000000018002d288     Totals.obj
 0002:0000b288       $unwind$?ocscpy_s@@YA_NPEA_W_KPEB_W@Z 000000018002d288     Totals.obj
 0002:0000b288       $unwind$?s_EventWindowProc@COPOSTotals@@KA_JPEAUHWND__@@I_K_J@Z 000000018002d288     TotalsImpl.obj
 0002:0000b288       $unwind$__scrt_dllmain_exception_filter 000000018002d288     LIBCMT:utility.obj
 0002:0000b288       $unwind$?GetHandlerSearchState@__FrameHandler3@@SAHPEA_KPEAU_xDISPATCHER_CONTEXT@@PEBU_s_FuncInfo@@@Z 000000018002d288     libvcruntime:frame.obj
 0002:0000b288       $unwind$?Is_bad_exception_allowed@@YAEPEBU_s_ESTypeList@@@Z 000000018002d288     libvcruntime:frame.obj
 0002:0000b288       $unwind$_recalloc_base     000000018002d288     libucrt:recalloc.obj
 0002:0000b288       $unwind$__acrt_free_locale 000000018002d288     libucrt:locale_refcounting.obj
 0002:0000b288       $unwind$__acrt_lowio_create_handle_array 000000018002d288     libucrt:osfinfo.obj
 0002:0000b288       $unwind$?setSBCS@@YAXPEAU__crt_multibyte_data@@@Z 000000018002d288     libucrt:mbctype.obj
 0002:0000b288       $unwind$_seh_filter_exe    000000018002d288     libucrt:exception_filter.obj
 0002:0000b288       $unwind$_initterm          000000018002d288     libucrt:initterm.obj
 0002:0000b288       $unwind$??$ensure_buffer_is_big_enough@D@formatting_buffer@__crt_stdio_output@@QEAA_N_K@Z 000000018002d288     libucrt:output.obj
 0002:0000b288       $unwind$??$ensure_buffer_is_big_enough@_W@formatting_buffer@__crt_stdio_output@@QEAA_N_K@Z 000000018002d288     libucrt:output.obj
 0002:0000b29c       $unwind$??0OposDispParms@@QEAA@PEAVOposVariant@@H@Z 000000018002d29c     OposVariant.obj
 0002:0000b29c       $unwind$?SetBSTR_Copy@OposVariant@@QEAAXPEA_WAEAJ@Z 000000018002d29c     OposVariant.obj
 0002:0000b29c       $unwind$?SetBSTR_InOutPtr@OposVariant@@QEAA_NPEAPEA_WAEAJ@Z 000000018002d29c     OposVariant.obj
 0002:0000b29c       $unwind$?SetDispatch_Ptr@OposVariant@@QEAAXPEAUIDispatch@@AEAJ@Z 000000018002d29c     OposVariant.obj
 0002:0000b29c       $unwind$?SetLONG_Ptr@OposVariant@@QEAAXPEAJAEAJ@Z 000000018002d29c     OposVariant.obj
 0002:0000b29c       $unwind$?SetString@OposVariant@@QEAAXPEB_WAEAJ@Z 000000018002d29c     OposVariant.obj
 0002:0000b29c       $unwind$?Term@CAtlComModule@ATL@@QEAAXXZ 000000018002d29c     OposVariant.obj
 0002:0000b29c       $unwind$??_GCRegObject@ATL@@UEAAPEAXI@Z 000000018002d29c     Totals.obj
 0002:0000b29c       $unwind$?Add@?$CSimpleArray@GV?$CSimpleArrayEqualHelper@G@ATL@@@ATL@@QEAAHAEBG@Z 000000018002d29c     Totals.obj
 0002:0000b29c       $unwind$?Add@?$CSimpleMap@PEA_WPEA_WVCExpansionVectorEqualHelper@ATL@@@ATL@@QEAAHAEBQEA_W0@Z 000000018002d29c     Totals.obj
 0002:0000b29c       $unwind$?Add@CComDynamicUnkArray@ATL@@QEAAKPEAUIUnknown@@@Z 000000018002d29c     Totals.obj
 0002:0000b29c       $unwind$?Advise@?$IOleObjectImpl@VCOPOSTotals@@@ATL@@UEAAJPEAUIAdviseSink@@PEAK@Z 000000018002d29c     Totals.obj
 0002:0000b29c       $unwind$?ClearReplacements@CExpansionVector@ATL@@QEAAJXZ 000000018002d29c     Totals.obj
 0002:0000b29c       $unwind$?RegisterServer@CComModule@ATL@@QEAAJHPEBU_GUID@@@Z 000000018002d29c     Totals.obj
 0002:0000b29c       $unwind$?Term@CAtlModule@ATL@@QEAAXXZ 000000018002d29c     Totals.obj
 0002:0000b29c       $unwind$?UnregisterServer@CComModule@ATL@@QEAAJHPEBU_GUID@@@Z 000000018002d29c     Totals.obj
 0002:0000b29c       $unwind$?VTFromRegType@CRegParser@ATL@@KAHPEB_WAEAG@Z 000000018002d29c     Totals.obj
 0002:0000b29c       $unwind$_DllMainCRTStartup 000000018002d29c     LIBCMT:dll_dllmain.obj
 0002:0000b29c       $unwind$__vcrt_getptd_noexit 000000018002d29c     libvcruntime:per_thread_data.obj
 0002:0000b29c       $unwind$?CatchTryBlock@__FrameHandler3@@SAPEBU_s_TryBlockMapEntry@@PEBU_s_FuncInfo@@H@Z 000000018002d29c     libvcruntime:risctrnsctrl.obj
 0002:0000b29c       $unwind$?FrameUnwindToEmptyState@__FrameHandler3@@SAXPEA_KPEAU_xDISPATCHER_CONTEXT@@PEBU_s_FuncInfo@@@Z 000000018002d29c     libvcruntime:risctrnsctrl.obj
 0002:0000b29c       $unwind$__vcrt_InitializeCriticalSectionEx 000000018002d29c     libvcruntime:winapi_downlevel.obj
 0002:0000b29c       $unwind$memcpy_s           000000018002d29c     libucrt:cfout.obj
 0002:0000b29c       $unwind$__acrt_getptd      000000018002d29c     libucrt:per_thread_data.obj
 0002:0000b29c       $unwind$__acrt_getptd_noexit 000000018002d29c     libucrt:per_thread_data.obj
 0002:0000b29c       $unwind$__acrt_execute_initializers 000000018002d29c     libucrt:shared_initialization.obj
 0002:0000b29c       $unwind$__acrt_InitializeCriticalSectionEx 000000018002d29c     libucrt:winapi_thunks.obj
 0002:0000b29c       $unwind$?free_crt_array_internal@@YAXQEAPEBX_K@Z 000000018002d29c     libucrt:inittime.obj
 0002:0000b29c       $unwind$??$common_lseek_nolock@_J@@YA_JH_JH@Z 000000018002d29c     libucrt:lseek.obj
 0002:0000b29c       $unwind$__acrt_stdio_flush_nolock 000000018002d29c     libucrt:fflush.obj
 0002:0000b29c       $unwind$??0_LocaleUpdate@@QEAA@QEAU__crt_locale_pointers@@@Z 000000018002d29c     libucrt:output.obj
 0002:0000b29c       $unwind$?type_case_Z@?$output_processor@_WV?$string_output_adapter@_W@__crt_stdio_output@@V?$format_validation_base@_WV?$string_output_adapter@_W@__crt_stdio_output@@@2@@__crt_stdio_output@@AEAA_NXZ 000000018002d29c     libucrt:output.obj
 0002:0000b29c       $unwind$?type_case_n@?$output_processor@_WV?$string_output_adapter@_W@__crt_stdio_output@@V?$format_validation_base@_WV?$string_output_adapter@_W@__crt_stdio_output@@@2@@__crt_stdio_output@@AEAA_NXZ 000000018002d29c     libucrt:output.obj
 0002:0000b29c       $unwind$?type_case_s@?$output_processor@_WV?$string_output_adapter@_W@__crt_stdio_output@@V?$format_validation_base@_WV?$string_output_adapter@_W@__crt_stdio_output@@@2@@__crt_stdio_output@@AEAA_NXZ 000000018002d29c     libucrt:output.obj
 0002:0000b29c       $unwind$_exception_enabled 000000018002d29c     libucrt:libm_error.obj
 0002:0000b2ac       $unwind$??_Estringdispid@CComTypeInfoHolder@ATL@@QEAAPEAXI@Z 000000018002d2ac     OposVariant.obj
 0002:0000b2ac       $unwind$?AddTermFunc@CAtlModule@ATL@@QEAAJP6AX_K@Z0@Z 000000018002d2ac     Totals.obj
 0002:0000b2ac       $unwind$?AtlComModuleRegisterServer@ATL@@YAJPEAU_ATL_COM_MODULE70@1@HPEBU_GUID@@@Z 000000018002d2ac     Totals.obj
 0002:0000b2ac       $unwind$?AtlComModuleUnregisterServer@ATL@@YAJPEAU_ATL_COM_MODULE70@1@HPEBU_GUID@@@Z 000000018002d2ac     Totals.obj
 0002:0000b2ac       $unwind$?CreateInstance@?$CComCreator@V?$CComAggObject@VCOPOSTotals@@@ATL@@@ATL@@SAJPEAXAEBU_GUID@@PEAPEAX@Z 000000018002d2ac     Totals.obj
 0002:0000b2ac       $unwind$?CreateInstance@?$CComCreator@V?$CComObjectCached@VCComClassFactory@ATL@@@ATL@@@ATL@@SAJPEAXAEBU_GUID@@PEAPEAX@Z 000000018002d2ac     Totals.obj
 0002:0000b2ac       $unwind$?GetPagesHelper@?$ISpecifyPropertyPagesImpl@VCOPOSTotals@@@ATL@@IEAAJPEAUtagCAUUID@@PEBUATL_PROPMAP_ENTRY@2@@Z 000000018002d2ac     Totals.obj
 0002:0000b2ac       $unwind$__GSHandlerCheck_SEH 000000018002d2ac     LIBCMT:gshandlerseh.obj
 0002:0000b2ac       $unwind$??$TypeMatchHelper@V__FrameHandler3@@@@YAHPEBU_s_HandlerType@@PEBU_s_CatchableType@@PEBU_s_ThrowInfo@@@Z 000000018002d2ac     libvcruntime:frame.obj
 0002:0000b2ac       $unwind$?initialize_stdio_handles_nolock@@YAXXZ 000000018002d2ac     libucrt:ioinit.obj
 0002:0000b2ac       $unwind$__acrt_initialize_stdio 000000018002d2ac     libucrt:_file.obj
 0002:0000b2c4       $unwind$?SetBSTR@OposVariant@@QEAAXPEA_WAEAJ@Z 000000018002d2c4     OposVariant.obj
 0002:0000b2c4       $unwind$?SetLONG@OposVariant@@QEAAXJ@Z 000000018002d2c4     OposVariant.obj
 0002:0000b2c4       $unwind$?SetVARIANT_BOOL@OposVariant@@QEAAXF@Z 000000018002d2c4     OposVariant.obj
 0002:0000b2c4       $unwind$??0?$CComContainedObject@VCOPOSTotals@@@ATL@@QEAA@PEAX@Z 000000018002d2c4     Totals.obj
 0002:0000b2c4       $unwind$??1?$CComEnumImpl@UIEnumConnectionPoints@@$1?_GUID_b196b285_bab4_101a_b69c_00aa00341d07@@3U__s_GUID@@BPEAUIConnectionPoint@@V?$_CopyInterface@UIConnectionPoint@@@ATL@@@ATL@@UEAA@XZ 000000018002d2c4     Totals.obj
 0002:0000b2c4       $unwind$??1?$CComEnumImpl@UIEnumConnections@@$1?_GUID_b196b287_bab4_101a_b69c_00aa00341d07@@3U__s_GUID@@BUtagCONNECTDATA@@V?$_Copy@UtagCONNECTDATA@@@ATL@@@ATL@@UEAA@XZ 000000018002d2c4     Totals.obj
 0002:0000b2c4       $unwind$??_G?$CComAggObject@VCOPOSTotals@@@ATL@@UEAAPEAXI@Z 000000018002d2c4     Totals.obj
 0002:0000b2c4       $unwind$??_G?$CComContainedObject@VCOPOSTotals@@@ATL@@UEAAPEAXI@Z 000000018002d2c4     Totals.obj
 0002:0000b2c4       $unwind$??_G?$CComObject@V?$CComEnum@UIEnumConnectionPoints@@$1?_GUID_b196b285_bab4_101a_b69c_00aa00341d07@@3U__s_GUID@@BPEAUIConnectionPoint@@V?$_CopyInterface@UIConnectionPoint@@@ATL@@VCComSingleThreadModel@6@@ATL@@@ATL@@UEAAPEAXI@Z 000000018002d2c4     Totals.obj
 0002:0000b2c4       $unwind$??_G?$CComObject@V?$CComEnum@UIEnumConnections@@$1?_GUID_b196b287_bab4_101a_b69c_00aa00341d07@@3U__s_GUID@@BUtagCONNECTDATA@@V?$_Copy@UtagCONNECTDATA@@@ATL@@VCComSingleThreadModel@6@@ATL@@@ATL@@UEAAPEAXI@Z 000000018002d2c4     Totals.obj
 0002:0000b2c4       $unwind$??_G?$CComObject@VCOPOSTotals@@@ATL@@UEAAPEAXI@Z 000000018002d2c4     Totals.obj
 0002:0000b2c4       $unwind$??_G?$CComObjectCached@VCComClassFactory@ATL@@@ATL@@UEAAPEAXI@Z 000000018002d2c4     Totals.obj
 0002:0000b2c4       $unwind$??_GCComClassFactory@ATL@@UEAAPEAXI@Z 000000018002d2c4     Totals.obj
 0002:0000b2c4       $unwind$??_GCComModule@ATL@@UEAAPEAXI@Z 000000018002d2c4     Totals.obj
 0002:0000b2c4       $unwind$?CreateInstance@?$CComObject@V?$CComEnum@UIEnumConnectionPoints@@$1?_GUID_b196b285_bab4_101a_b69c_00aa00341d07@@3U__s_GUID@@BPEAUIConnectionPoint@@V?$_CopyInterface@UIConnectionPoint@@@ATL@@VCComSingleThreadModel@6@@ATL@@@ATL@@SAJPEAPEAV12@@Z 000000018002d2c4     Totals.obj
 0002:0000b2c4       $unwind$?CreateInstance@?$CComObject@V?$CComEnum@UIEnumConnections@@$1?_GUID_b196b287_bab4_101a_b69c_00aa00341d07@@3U__s_GUID@@BUtagCONNECTDATA@@V?$_Copy@UtagCONNECTDATA@@@ATL@@VCComSingleThreadModel@6@@ATL@@@ATL@@SAJPEAPEAV12@@Z 000000018002d2c4     Totals.obj
 0002:0000b2c4       $unwind$?DeleteSubKey@CRegKey@ATL@@QEAAJPEB_W@Z 000000018002d2c4     Totals.obj
 0002:0000b2c4       $unwind$?IOleObject_SetClientSite@CComControlBase@ATL@@QEAAJPEAUIOleClientSite@@@Z 000000018002d2c4     Totals.obj
 0002:0000b2c4       $unwind$?InitNew@?$IPersistStorageImpl@VCOPOSTotals@@@ATL@@UEAAJPEAUIStorage@@@Z 000000018002d2c4     Totals.obj
 0002:0000b2c4       $unwind$?IsDirty@?$IPersistStorageImpl@VCOPOSTotals@@@ATL@@UEAAJXZ 000000018002d2c4     Totals.obj
 0002:0000b2c4       $unwind$?Release@?$CComAggObject@VCOPOSTotals@@@ATL@@UEAAKXZ 000000018002d2c4     Totals.obj
 0002:0000b2c4       $unwind$?Release@?$CComObject@V?$CComEnum@UIEnumConnectionPoints@@$1?_GUID_b196b285_bab4_101a_b69c_00aa00341d07@@3U__s_GUID@@BPEAUIConnectionPoint@@V?$_CopyInterface@UIConnectionPoint@@@ATL@@VCComSingleThreadModel@6@@ATL@@@ATL@@UEAAKXZ 000000018002d2c4     Totals.obj
 0002:0000b2c4       $unwind$?Release@?$CComObject@V?$CComEnum@UIEnumConnections@@$1?_GUID_b196b287_bab4_101a_b69c_00aa00341d07@@3U__s_GUID@@BUtagCONNECTDATA@@V?$_Copy@UtagCONNECTDATA@@@ATL@@VCComSingleThreadModel@6@@ATL@@@ATL@@UEAAKXZ 000000018002d2c4     Totals.obj
 0002:0000b2c4       $unwind$?Release@?$CComObject@VCOPOSTotals@@@ATL@@UEAAKXZ 000000018002d2c4     Totals.obj
 0002:0000b2c4       $unwind$?SOStatusUpdate@COPOSTotals@@MEAAJJ@Z 000000018002d2c4     Totals.obj
 0002:0000b2c4       $unwind$?SetAdvise@?$IViewObjectExImpl@VCOPOSTotals@@@ATL@@UEAAJKKPEAUIAdviseSink@@@Z 000000018002d2c4     Totals.obj
 0002:0000b2c4       $unwind$?Term@CComModule@ATL@@QEAAXXZ 000000018002d2c4     Totals.obj
 0002:0000b2c4       $unwind$DllMain            000000018002d2c4     Totals.obj
 0002:0000b2c4       $unwind$??1?$IConnectionPointImpl@VCOPOSTotals@@$1?DIID__IOPOSTotalsEvents@@3U_GUID@@BVCComDynamicUnkArray@ATL@@@ATL@@QEAA@XZ 000000018002d2c4     TotalsImpl.obj
 0002:0000b2c4       $unwind$??1?$IConnectionPointImpl@VCOPOSTotals@@$1?IID_IPropertyNotifySink@@3U_GUID@@BVCComDynamicUnkArray@ATL@@@ATL@@QEAA@XZ 000000018002d2c4     TotalsImpl.obj
 0002:0000b2c4       $unwind$??0CAtlBaseModule@ATL@@QEAA@XZ 000000018002d2c4     atls:atlbase.obj
 0002:0000b2c4       $unwind$??$GetProcAddressAll@P6AP6A_JPEAUHWND__@@I_K_J@ZPEAUAtlThunkData_t@@@Z@@YAP6AP6A_JPEAUHWND__@@I_K_J@ZPEAUAtlThunkData_t@@@ZPEAP6AP6A_J0I12@Z3@Z@Z 000000018002d2c4     atls:atlthunk.obj
 0002:0000b2c4       $unwind$??$GetProcAddressAll@P6APEAUAtlThunkData_t@@XZ@@YAP6APEAUAtlThunkData_t@@XZPEAP6APEAU0@XZ@Z 000000018002d2c4     atls:atlthunk.obj
 0002:0000b2c4       $unwind$??$GetProcAddressAll@P6AXPEAUAtlThunkData_t@@@Z@@YAP6AXPEAUAtlThunkData_t@@@ZPEAP6AX0@Z@Z 000000018002d2c4     atls:atlthunk.obj
 0002:0000b2c4       $unwind$??$GetProcAddressAll@P6AXPEAUAtlThunkData_t@@PEAX_K@Z@@YAP6AXPEAUAtlThunkData_t@@PEAX_K@ZPEAP6AX012@Z@Z 000000018002d2c4     atls:atlthunk.obj
 0002:0000b2c4       $unwind$?__AllocStdCallThunk_cmn@@YAPEAXXZ 000000018002d2c4     atls:atlthunk.obj
 0002:0000b2c4       $unwind$?__InitializeThunkPool@@YAHXZ 000000018002d2c4     atls:atlthunk.obj
 0002:0000b2c4       $unwind$AtlThunk_DataToCode 000000018002d2c4     atls:atlthunk.obj
 0002:0000b2c4       $unwind$_RTC_Initialize    000000018002d2c4     LIBCMT:initsect.obj
 0002:0000b2c4       $unwind$_RTC_Terminate     000000018002d2c4     LIBCMT:initsect.obj
 0002:0000b2c4       $unwind$?__scrt_initialize_thread_safe_statics@@YAHXZ 000000018002d2c4     LIBCMT:thread_safe_statics.obj
 0002:0000b2c4       $unwind$??_Gbad_alloc@std@@UEAAPEAXI@Z 000000018002d2c4     LIBCMT:throw_bad_alloc.obj
 0002:0000b2c4       $unwind$??_Gbad_array_new_length@std@@UEAAPEAXI@Z 000000018002d2c4     LIBCMT:throw_bad_alloc.obj
 0002:0000b2c4       $unwind$??_Gexception@std@@UEAAPEAXI@Z 000000018002d2c4     LIBCMT:throw_bad_alloc.obj
 0002:0000b2c4       $unwind$__FrameUnwindFilter 000000018002d2c4     libvcruntime:ehhelpers.obj
 0002:0000b2c4       $unwind$?SetUnwindTryBlock@__FrameHandler3@@SAXPEA_KPEAU_xDISPATCHER_CONTEXT@@PEBU_s_FuncInfo@@H@Z 000000018002d2c4     libvcruntime:ehstate.obj
 0002:0000b2c4       $unwind$??_Gbad_exception@std@@UEAAPEAXI@Z 000000018002d2c4     libvcruntime:frame.obj
 0002:0000b2c4       $unwind$_FindAndUnlinkFrame 000000018002d2c4     libvcruntime:risctrnsctrl.obj
 0002:0000b2c4       $unwind$__vcrt_FlsSetValue 000000018002d2c4     libvcruntime:winapi_downlevel.obj
 0002:0000b2c4       $unwind$??$common_initialize_environment_nolock@D@@YAHXZ 000000018002d2c4     libucrt:environment_initialization.obj
 0002:0000b2c4       $unwind$__acrt_fp_strflt_to_string 000000018002d2c4     libucrt:_fptostr.obj
 0002:0000b2c4       $unwind$_realloc_base      000000018002d2c4     libucrt:realloc_base.obj
 0002:0000b2c4       $unwind$?replace_current_thread_locale_nolock@@YAXQEAU__acrt_ptd@@QEAU__crt_locale_data@@@Z 000000018002d2c4     libucrt:per_thread_data.obj
 0002:0000b2c4       $unwind$__acrt_execute_uninitializers 000000018002d2c4     libucrt:shared_initialization.obj
 0002:0000b2c4       $unwind$__acrt_FlsSetValue 000000018002d2c4     libucrt:winapi_thunks.obj
 0002:0000b2c4       $unwind$__acrt_LocaleNameToLCID 000000018002d2c4     libucrt:winapi_thunks.obj
 0002:0000b2c4       $unwind$_updatetlocinfoEx_nolock 000000018002d2c4     libucrt:locale_refcounting.obj
 0002:0000b2c4       $unwind$_close_nolock      000000018002d2c4     libucrt:close.obj
 0002:0000b2c4       $unwind$__acrt_uninitialize_lowio 000000018002d2c4     libucrt:ioinit.obj
 0002:0000b2c4       $unwind$__acrt_errno_map_os_error 000000018002d2c4     libucrt:errno.obj
 0002:0000b2c4       $unwind$_initterm_e        000000018002d2c4     libucrt:initterm.obj
 0002:0000b2c4       $unwind$_fclose_nolock     000000018002d2c4     libucrt:fclose.obj
 0002:0000b2c4       $unwind$strncpy_s          000000018002d2c4     libucrt:strncpy_s.obj
 0002:0000b2c4       $unwind$wcsncpy_s          000000018002d2c4     libucrt:wcsncpy_s.obj
 0002:0000b2d0       $unwind$?ChangeBSTR@OposVariant@@QEAAXPEAPEA_WAEAJ@Z 000000018002d2d0     OposVariant.obj
 0002:0000b2d0       $unwind$?ChangeLONG@OposVariant@@QEAAXPEAJAEAJ@Z 000000018002d2d0     OposVariant.obj
 0002:0000b2d0       $unwind$?x_ismbbtype_l@@YAHPEAU__crt_locale_pointers@@IHH@Z 000000018002d2d0     libucrt:ismbbyte.obj
 0002:0000b2e0       $unwind$swprintf_s         000000018002d2e0     Totals.obj
 0002:0000b2f0       $unwind$?_AtlVerifyStackAvailable@_ATL_SAFE_ALLOCA_IMPL@ATL@@YA_N_K@Z 000000018002d2f0     Totals.obj
 0002:0000b31c       $unwind$?filt$0@?0??_AtlVerifyStackAvailable@_ATL_SAFE_ALLOCA_IMPL@ATL@@YA_N_K@Z@4HA 000000018002d31c     Totals.obj
 0002:0000b31c       $unwind$?fin$0@?0??dllmain_crt_process_attach@@YAHQEAUHINSTANCE__@@QEAX@Z@4HA 000000018002d31c     LIBCMT:dll_dllmain.obj
 0002:0000b31c       $unwind$?fin$0@?0??dllmain_crt_process_detach@@YAH_N@Z@4HA 000000018002d31c     LIBCMT:dll_dllmain.obj
 0002:0000b31c       $unwind$?fin$1@?0??dllmain_crt_process_detach@@YAH_N@Z@4HA 000000018002d31c     LIBCMT:dll_dllmain.obj
 0002:0000b31c       $unwind$_IsNonwritableInCurrentImage$filt$0 000000018002d31c     LIBCMT:pesect.obj
 0002:0000b31c       $unwind$?filt$0@?0??CxxCallCatchBlock@__FrameHandler3@@SAPEAXPEAU_EXCEPTION_RECORD@@@Z@4HA 000000018002d31c     libvcruntime:frame.obj
 0002:0000b31c       $unwind$?filt$0@?0??FrameUnwindToState@__FrameHandler3@@SAXPEA_KPEAU_xDISPATCHER_CONTEXT@@PEBU_s_FuncInfo@@H@Z@4HA 000000018002d31c     libvcruntime:frame.obj
 0002:0000b31c       $unwind$?fin$1@?0??FrameUnwindToState@__FrameHandler3@@SAXPEA_KPEAU_xDISPATCHER_CONTEXT@@PEBU_s_FuncInfo@@H@Z@4HA 000000018002d31c     libvcruntime:frame.obj
 0002:0000b31c       $unwind$_query_new_handler$fin$0 000000018002d31c     libucrt:new_handler.obj
 0002:0000b31c       $unwind$?fin$0@?0???$?RV<lambda_0ae27a3a962d80f24befdcbee591983d>@@AEAV<lambda_8d0ee55de4b1038c4002e0adecdf1839>@@V<lambda_dc504788e8f1664fe9b84e20bfb512f2>@@@?$__crt_seh_guarded_call@X@@QEAAX$$QEAV<lambda_0ae27a3a962d80f24befdcbee591983d>@@AEAV<lambda_8d0ee55de4b1038c4002e0adecdf1839>@@$$QEAV<lambda_dc504788e8f1664fe9b84e20bfb512f2>@@@Z@4HA 000000018002d31c     libucrt:per_thread_data.obj
 0002:0000b31c       $unwind$?fin$0@?0???$?RV<lambda_2d41944a1d46af3157314b8a01080d33>@@AEAV<lambda_8f455de75cd7d7f24b4096f044d8b9e6>@@V<lambda_aa500f224e6afead328df44964fe2772>@@@?$__crt_seh_guarded_call@X@@QEAAX$$QEAV<lambda_2d41944a1d46af3157314b8a01080d33>@@AEAV<lambda_8f455de75cd7d7f24b4096f044d8b9e6>@@$$QEAV<lambda_aa500f224e6afead328df44964fe2772>@@@Z@4HA 000000018002d31c     libucrt:per_thread_data.obj
 0002:0000b31c       $unwind$?fin$0@?0???$?RV<lambda_aa87e3671a710a21b5dc78c0bdf72e11>@@AEAV<lambda_92619d2358a28f41a33ba319515a20b9>@@V<lambda_6992ecaafeb10aed2b74cb1fae11a551>@@@?$__crt_seh_guarded_call@X@@QEAAX$$QEAV<lambda_aa87e3671a710a21b5dc78c0bdf72e11>@@AEAV<lambda_92619d2358a28f41a33ba319515a20b9>@@$$QEAV<lambda_6992ecaafeb10aed2b74cb1fae11a551>@@@Z@4HA 000000018002d31c     libucrt:per_thread_data.obj
 0002:0000b31c       $unwind$?fin$0@?0???$?RV<lambda_f2e299630e499de9f9a165e60fcd3db5>@@AEAV<lambda_2ae9d31cdba2644fcbeaf08da7c24588>@@V<lambda_40d01ff24d0e7b3814fdbdcee8eab3c7>@@@?$__crt_seh_guarded_call@X@@QEAAX$$QEAV<lambda_f2e299630e499de9f9a165e60fcd3db5>@@AEAV<lambda_2ae9d31cdba2644fcbeaf08da7c24588>@@$$QEAV<lambda_40d01ff24d0e7b3814fdbdcee8eab3c7>@@@Z@4HA 000000018002d31c     libucrt:per_thread_data.obj
 0002:0000b31c       $unwind$__acrt_update_thread_locale_data$fin$0 000000018002d31c     libucrt:locale_refcounting.obj
 0002:0000b31c       $unwind$?fin$0@?0???$?RV<lambda_410d79af7f07d98d83a3f525b3859a53>@@AEAV<lambda_3e16ef9562a7dcce91392c22ab16ea36>@@V<lambda_38119f0e861e05405d8a144b9b982f0a>@@@?$__crt_seh_guarded_call@X@@QEAAX$$QEAV<lambda_410d79af7f07d98d83a3f525b3859a53>@@AEAV<lambda_3e16ef9562a7dcce91392c22ab16ea36>@@$$QEAV<lambda_38119f0e861e05405d8a144b9b982f0a>@@@Z@4HA 000000018002d31c     libucrt:wsetlocale.obj
 0002:0000b31c       $unwind$?fin$0@?0???$?RV<lambda_751a882b2c74d4b022dec766aa51a29a>@@AEAV<lambda_628dfdc04ba53c8bfc02c9951375f3f5>@@V<lambda_f6c7be5f7998530c34de24c7437d6b54>@@@?$__crt_seh_guarded_call@H@@QEAAH$$QEAV<lambda_751a882b2c74d4b022dec766aa51a29a>@@AEAV<lambda_628dfdc04ba53c8bfc02c9951375f3f5>@@$$QEAV<lambda_f6c7be5f7998530c34de24c7437d6b54>@@@Z@4HA 000000018002d31c     libucrt:close.obj
 0002:0000b31c       $unwind$?fin$0@?0???$?RV<lambda_a37b2b86f63e897a80ea819b0eb08c01>@@AEAV<lambda_38ce7e780aa69e748d6df282ebc68efe>@@V<lambda_99fb1378e971ab6e7edea83e3a7a83a2>@@@?$__crt_seh_guarded_call@H@@QEAAH$$QEAV<lambda_a37b2b86f63e897a80ea819b0eb08c01>@@AEAV<lambda_38ce7e780aa69e748d6df282ebc68efe>@@$$QEAV<lambda_99fb1378e971ab6e7edea83e3a7a83a2>@@@Z@4HA 000000018002d31c     libucrt:commit.obj
 0002:0000b31c       $unwind$__acrt_initialize_lowio$fin$0 000000018002d31c     libucrt:ioinit.obj
 0002:0000b31c       $unwind$__acrt_lowio_ensure_fh_exists$fin$0 000000018002d31c     libucrt:osfinfo.obj
 0002:0000b31c       $unwind$_write$fin$0       000000018002d31c     libucrt:write.obj
 0002:0000b31c       $unwind$?fin$0@?0???$?RV<lambda_efdfa57d1f175319df784efa44bb7b81>@@AEAV<lambda_5f0a4c1567f8adc6734073e5d1e1b35c>@@V<lambda_2e8a7d3640ea6ccb4c2413664c2db6fd>@@@?$__crt_seh_guarded_call@X@@QEAAX$$QEAV<lambda_efdfa57d1f175319df784efa44bb7b81>@@AEAV<lambda_5f0a4c1567f8adc6734073e5d1e1b35c>@@$$QEAV<lambda_2e8a7d3640ea6ccb4c2413664c2db6fd>@@@Z@4HA 000000018002d31c     libucrt:mbctype.obj
 0002:0000b31c       $unwind$?fin$0@?0??update_thread_multibyte_data_internal@@YAPEAU__crt_multibyte_data@@QEAU__acrt_ptd@@QEAPEAU1@@Z@4HA 000000018002d31c     libucrt:mbctype.obj
 0002:0000b31c       $unwind$?fin$0@?0???$?RV<lambda_450d765d439847d4c735a33c368b5fc0>@@AEAV<lambda_44731a7d0e6d81c3e6aa82d741081786>@@V<lambda_601a2a7da3b7a96e9554ac7215c4b07c>@@@?$__crt_seh_guarded_call@P6AXH@Z@@QEAAP6AXH@Z$$QEAV<lambda_450d765d439847d4c735a33c368b5fc0>@@AEAV<lambda_44731a7d0e6d81c3e6aa82d741081786>@@$$QEAV<lambda_601a2a7da3b7a96e9554ac7215c4b07c>@@@Z@4HA 000000018002d31c     libucrt:signal.obj
 0002:0000b31c       $unwind$raise$fin$0        000000018002d31c     libucrt:signal.obj
 0002:0000b31c       $unwind$?filt$0@?0???R<lambda_6e4b09c48022b2350581041d5f6b0c4c>@@QEBA@XZ@4HA 000000018002d31c     libucrt:exit.obj
 0002:0000b31c       $unwind$?fin$0@?0???$?RV<lambda_d80eeec6fff315bfe5c115232f3240e3>@@AEAV<lambda_6e4b09c48022b2350581041d5f6b0c4c>@@V<lambda_2358e3775559c9db80273638284d5e45>@@@?$__crt_seh_guarded_call@X@@QEAAX$$QEAV<lambda_d80eeec6fff315bfe5c115232f3240e3>@@AEAV<lambda_6e4b09c48022b2350581041d5f6b0c4c>@@$$QEAV<lambda_2358e3775559c9db80273638284d5e45>@@@Z@4HA 000000018002d31c     libucrt:exit.obj
 0002:0000b31c       $unwind$?fin$0@?0???$?RV<lambda_638799b9deba96c50f710eeac98168cd>@@AEAV<lambda_22ebabd17bc4fa466a2aca6d8deb888d>@@V<lambda_a6f7d7db0129f75315ebf26d50c089f1>@@@?$__crt_seh_guarded_call@H@@QEAAH$$QEAV<lambda_638799b9deba96c50f710eeac98168cd>@@AEAV<lambda_22ebabd17bc4fa466a2aca6d8deb888d>@@$$QEAV<lambda_a6f7d7db0129f75315ebf26d50c089f1>@@@Z@4HA 000000018002d31c     libucrt:onexit.obj
 0002:0000b31c       $unwind$?fin$0@?0???$?RV<lambda_7777bce6b2f8c936911f934f8298dc43>@@AEAV<lambda_f03950bc5685219e0bcd2087efbe011e>@@V<lambda_3883c3dff614d5e0c5f61bb1ac94921c>@@@?$__crt_seh_guarded_call@H@@QEAAH$$QEAV<lambda_7777bce6b2f8c936911f934f8298dc43>@@AEAV<lambda_f03950bc5685219e0bcd2087efbe011e>@@$$QEAV<lambda_3883c3dff614d5e0c5f61bb1ac94921c>@@@Z@4HA 000000018002d31c     libucrt:onexit.obj
 0002:0000b31c       $unwind$_fcloseall$fin$0   000000018002d31c     libucrt:closeall.obj
 0002:0000b31c       $unwind$fclose$fin$0       000000018002d31c     libucrt:fclose.obj
 0002:0000b31c       $unwind$?fin$0@?0???$?RV<lambda_842d9ff0dc9ef11c61343bbaebe7f885>@@AEAV<lambda_c5860995281e5c4ce005b3de8f5874ee>@@V<lambda_d90129c13df834fdcbf8d2b88dafcf2d>@@@?$__crt_seh_guarded_call@X@@QEAAX$$QEAV<lambda_842d9ff0dc9ef11c61343bbaebe7f885>@@AEAV<lambda_c5860995281e5c4ce005b3de8f5874ee>@@$$QEAV<lambda_d90129c13df834fdcbf8d2b88dafcf2d>@@@Z@4HA 000000018002d31c     libucrt:fflush.obj
 0002:0000b31c       $unwind$?fin$0@?0???$?RV<lambda_886d6c58226a84441f68b9f2b8217b83>@@AEAV<lambda_ab61a845afdef5b7c387490eaf3616ee>@@V<lambda_f7f22ab5edc0698d5f6905b0d3f44752>@@@?$__crt_seh_guarded_call@X@@QEAAX$$QEAV<lambda_886d6c58226a84441f68b9f2b8217b83>@@AEAV<lambda_ab61a845afdef5b7c387490eaf3616ee>@@$$QEAV<lambda_f7f22ab5edc0698d5f6905b0d3f44752>@@@Z@4HA 000000018002d31c     libucrt:fflush.obj
 0002:0000b31c       $unwind$_ctrlfp$filt$0     000000018002d31c     libucrt:fpctrl.obj
 0002:0000b324       $unwind$?AtlInternalOleLoadFromStream@ATL@@YAJPEAUIStream@@AEBU_GUID@@PEAPEAXTClassesAllowedInStream@1@K@Z 000000018002d324     Totals.obj
 0002:0000b340       $unwind$?ReadFromStream@CComBSTR@ATL@@QEAAJPEAUIStream@@@Z 000000018002d340     Totals.obj
 0002:0000b340       $unwind$_configure_narrow_argv 000000018002d340     libucrt:argv_parsing.obj
 0002:0000b354       $unwind$?WriteToStream@CComVariant@ATL@@QEAAJPEAUIStream@@@Z 000000018002d354     Totals.obj
 0002:0000b368       $unwind$?RegOpenKeyExW@CAtlTransactionManager@ATL@@QEAAJPEAUHKEY__@@PEB_WKKPEAPEAU3@@Z 000000018002d368     Totals.obj
 0002:0000b368       $unwind$?WriteToStream@CComVariant@ATL@@QEAAJPEAUIStream@@G@Z 000000018002d368     Totals.obj
 0002:0000b368       $unwind$__dcrt_write_console 000000018002d368     libucrt:initcon.obj
 0002:0000b368       $unwind$??$__acrt_wcs_to_mbs_cp@U__crt_win32_buffer_no_resizing@@@@YAHQEB_WAEAV?$__crt_win32_buffer@DU__crt_win32_buffer_no_resizing@@@@I@Z 000000018002d368     libucrt:getmodulefilenamea.obj
 0002:0000b37c       $unwind$?ReadFromStream@CComVariant@ATL@@QEAAJPEAUIStream@@GTClassesAllowedInStream@2@K@Z 000000018002d37c     Totals.obj
 0002:0000b394       $unwind$?GetSizeMax@CComVariant@ATL@@QEBAJPEAT_ULARGE_INTEGER@@@Z 000000018002d394     Totals.obj
 0002:0000b3ac       $unwind$?RegCreateKeyExW@CAtlTransactionManager@ATL@@QEAAJPEAUHKEY__@@PEB_WKPEA_WKKQEAU_SECURITY_ATTRIBUTES@@PEAPEAU3@PEAK@Z 000000018002d3ac     Totals.obj
 0002:0000b3ac       $unwind$__acrt_fp_format   000000018002d3ac     libucrt:cvt.obj
 0002:0000b3c0       $unwind$?GetGITPtr@CAtlModule@ATL@@UEAAJPEAPEAUIGlobalInterfaceTable@@@Z 000000018002d3c0     Totals.obj
 0002:0000b3c0       $unwind$?RegDeleteKeyW@CAtlTransactionManager@ATL@@QEAAJPEAUHKEY__@@PEB_W@Z 000000018002d3c0     Totals.obj
 0002:0000b3c0       $unwind$strpbrk            000000018002d3c0     libucrt:strpbrk.obj
 0002:0000b3d0       $unwind$?AtlHiMetricToPixel@ATL@@YAXPEBUtagSIZE@@PEAU2@@Z 000000018002d3d0     Totals.obj
 0002:0000b3d0       $unwind$?AtlInternalQueryInterface@ATL@@YAJPEAXPEBU_ATL_INTMAP_ENTRY@1@AEBU_GUID@@PEAPEAX@Z 000000018002d3d0     Totals.obj
 0002:0000b3e8       $unwind$?Append@CParseBuffer@CRegParser@ATL@@QEAAHPEB_WH@Z 000000018002d3e8     Totals.obj
 0002:0000b3e8       $unwind$?AtlComModuleGetClassObject@ATL@@YAJPEAU_ATL_COM_MODULE70@1@AEBU_GUID@@1PEAPEAX@Z 000000018002d3e8     Totals.obj
 0002:0000b3e8       $unwind$?EnumConnections@?$IConnectionPointImpl@VCOPOSTotals@@$1?DIID__IOPOSTotalsEvents@@3U_GUID@@BVCComDynamicUnkArray@ATL@@@ATL@@UEAAJPEAPEAUIEnumConnections@@@Z 000000018002d3e8     Totals.obj
 0002:0000b3e8       $unwind$?EnumConnections@?$IConnectionPointImpl@VCOPOSTotals@@$1?IID_IPropertyNotifySink@@3U_GUID@@BVCComDynamicUnkArray@ATL@@@ATL@@UEAAJPEAPEAUIEnumConnections@@@Z 000000018002d3e8     Totals.obj
 0002:0000b3e8       $unwind$?GetClassObject@CComModule@ATL@@QEAAJAEBU_GUID@@0PEAPEAX@Z 000000018002d3e8     Totals.obj
 0002:0000b3e8       $unwind$?Init@?$CComEnumImpl@UIEnumConnectionPoints@@$1?_GUID_b196b285_bab4_101a_b69c_00aa00341d07@@3U__s_GUID@@BPEAUIConnectionPoint@@V?$_CopyInterface@UIConnectionPoint@@@ATL@@@ATL@@QEAAJPEAPEAUIConnectionPoint@@0PEAUIUnknown@@W4CComEnumFlags@2@@Z 000000018002d3e8     Totals.obj
 0002:0000b3e8       $unwind$?Init@?$CComEnumImpl@UIEnumConnections@@$1?_GUID_b196b287_bab4_101a_b69c_00aa00341d07@@3U__s_GUID@@BUtagCONNECTDATA@@V?$_Copy@UtagCONNECTDATA@@@ATL@@@ATL@@QEAAJPEAUtagCONNECTDATA@@0PEAUIUnknown@@W4CComEnumFlags@2@@Z 000000018002d3e8     Totals.obj
 0002:0000b3e8       $unwind$?NextToken@CRegParser@ATL@@IEAAJPEA_W@Z 000000018002d3e8     Totals.obj
 0002:0000b3e8       $unwind$__acrt_DownlevelLocaleNameToLCID 000000018002d3e8     libucrt:lcidtoname_downlevel.obj
 0002:0000b3e8       $unwind$??R<lambda_f03950bc5685219e0bcd2087efbe011e>@@QEBAHXZ 000000018002d3e8     libucrt:onexit.obj
 0002:0000b3e8       $unwind$?type_case_integer@?$output_processor@_WV?$string_output_adapter@_W@__crt_stdio_output@@V?$format_validation_base@_WV?$string_output_adapter@_W@__crt_stdio_output@@@2@@__crt_stdio_output@@AEAA_NI_N@Z 000000018002d3e8     libucrt:output.obj
 0002:0000b400       $unwind$?AtlRegisterClassCategoriesHelper@ATL@@YAJAEBU_GUID@@PEBU_ATL_CATMAP_ENTRY@1@H@Z 000000018002d400     Totals.obj
 0002:0000b424       $unwind$?AtlLoadTypeLib@ATL@@YAJPEAUHINSTANCE__@@PEB_WPEAPEA_WPEAPEAUITypeLib@@@Z 000000018002d424     Totals.obj
 0002:0000b444       $unwind$?AtlRegisterTypeLib@ATL@@YAJPEAUHINSTANCE__@@PEB_W@Z 000000018002d444     Totals.obj
 0002:0000b460       $unwind$?AtlUnRegisterTypeLib@ATL@@YAJPEAUHINSTANCE__@@PEB_W@Z 000000018002d460     Totals.obj
 0002:0000b468       $unwind$?GetTI@CComTypeInfoHolder@ATL@@QEAAJK@Z 000000018002d468     Totals.obj
 0002:0000b468       $unwind$?RecurseDeleteKey@CRegKey@ATL@@QEAAJPEB_W@Z 000000018002d468     Totals.obj
 0002:0000b488       $unwind$?UpdateRegistryFromResource@CAtlModule@ATL@@QEAAJIHPEAU_ATL_REGMAP_ENTRY@2@@Z 000000018002d488     Totals.obj
 0002:0000b488       $unwind$?UpdateRegistryFromResource@CAtlModule@ATL@@QEAAJPEB_WHPEAU_ATL_REGMAP_ENTRY@2@@Z 000000018002d488     Totals.obj
 0002:0000b4a8       $unwind$?Lookup@?$CSimpleMap@PEA_WPEA_WVCExpansionVectorEqualHelper@ATL@@@ATL@@QEBAPEA_WAEBQEA_W@Z 000000018002d4a8     Totals.obj
 0002:0000b4a8       $unwind$__std_exception_copy 000000018002d4a8     libvcruntime:std_exception.obj
 0002:0000b4a8       $unwind$_free_osfhnd       000000018002d4a8     libucrt:osfinfo.obj
 0002:0000b4bc       $unwind$?Add@CExpansionVector@ATL@@QEAAHPEB_W0@Z 000000018002d4bc     Totals.obj
 0002:0000b4d4       $unwind$?PreProcessBuffer@CRegParser@ATL@@QEAAJPEA_WPEAPEA_W@Z 000000018002d4d4     Totals.obj
 0002:0000b4f8       $unwind$?RegisterBuffer@CRegParser@ATL@@QEAAJPEA_WH@Z 000000018002d4f8     Totals.obj
 0002:0000b518       $unwind$?AddValue@CRegParser@ATL@@IEAAJAEAVCRegKey@2@PEB_WPEA_W@Z 000000018002d518     Totals.obj
 0002:0000b538       $unwind$?RegisterSubkeys@CRegParser@ATL@@IEAAJPEA_WPEAUHKEY__@@HH@Z 000000018002d538     Totals.obj
 0002:0000b558       $unwind$?SkipAssignment@CRegParser@ATL@@IEAAJPEA_W@Z 000000018002d558     Totals.obj
 0002:0000b570       $unwind$?RegisterFromResource@CRegObject@ATL@@IEAAJPEB_W00H@Z 000000018002d570     Totals.obj
 0002:0000b590       $unwind$?Cleanup@CComTypeInfoHolder@ATL@@SAX_K@Z 000000018002d590     Totals.obj
 0002:0000b590       $unwind$AtlThunk_FreeData  000000018002d590     atls:atlthunk.obj
 0002:0000b590       $unwind$_free_base         000000018002d590     libucrt:free_base.obj
 0002:0000b590       $unwind$?destroy_fls@@YAXPEAX@Z 000000018002d590     libucrt:per_thread_data.obj
 0002:0000b590       $unwind$__acrt_locale_free_numeric 000000018002d590     libucrt:initnum.obj
 0002:0000b590       $unwind$__acrt_locale_free_lc_time_if_unreferenced 000000018002d590     libucrt:locale_refcounting.obj
 0002:0000b598       $unwind$?GetIDsOfNames@CComTypeInfoHolder@ATL@@QEAAJAEBU_GUID@@PEAPEA_WIKPEAJ@Z 000000018002d598     Totals.obj
 0002:0000b5b4       $unwind$?LoadNameCache@CComTypeInfoHolder@ATL@@QEAAJPEAUITypeInfo@@@Z 000000018002d5b4     Totals.obj
 0002:0000b5c8       $unwind$?StartWindowProc@?$CWindowImplBaseT@VCWindow@ATL@@V?$CWinTraits@$0FGAAAAAA@$0A@@2@@ATL@@SA_JPEAUHWND__@@I_K_J@Z 000000018002d5c8     Totals.obj
 0002:0000b5c8       $unwind$??$parse_command_line@D@@YAXPEADPEAPEAD0PEA_K2@Z 000000018002d5c8     libucrt:argv_parsing.obj
 0002:0000b5e4       $unwind$?WindowProc@?$CWindowImplBaseT@VCWindow@ATL@@V?$CWinTraits@$0FGAAAAAA@$0A@@2@@ATL@@SA_JPEAUHWND__@@I_K_J@Z 000000018002d5e4     Totals.obj
 0002:0000b5fc       $unwind$?atlCreate@?$CWindowImplBaseT@VCWindow@ATL@@V?$CWinTraits@$0FGAAAAAA@$0A@@2@@ATL@@QEAAPEAUHWND__@@PEAU3@V_U_RECT@2@PEB_WKKV_U_MENUorID@2@GPEAX@Z 000000018002d5fc     Totals.obj
 0002:0000b614       $unwind$??$AtlModuleRegisterWndClassInfoT@VAtlModuleRegisterWndClassInfoParamW@ATL@@@ATL@@YAGPEAU_ATL_BASE_MODULE70@0@PEAU_ATL_WIN_MODULE70@0@PEAU_ATL_WNDCLASSINFOW@0@PEAP6A_JPEAUHWND__@@I_K_J@ZVAtlModuleRegisterWndClassInfoParamW@0@@Z 000000018002d614     Totals.obj
 0002:0000b634       $unwind$?GetZoomInfo@CComControlBase@ATL@@QEAAXAEAUATL_DRAWINFO@@@Z 000000018002d634     Totals.obj
 0002:0000b634       $unwind$?OnKillFocus@CComControlBase@ATL@@QEAA_JI_K_JAEAH@Z 000000018002d634     Totals.obj
 0002:0000b634       $unwind$iswctype           000000018002d634     libucrt:iswctype.obj
 0002:0000b640       $unwind$?SendOnDataChange@CComControlBase@ATL@@QEAAJK@Z 000000018002d640     Totals.obj
 0002:0000b650       $unwind$?OnSetFocus@CComControlBase@ATL@@QEAA_JI_K_JAEAH@Z 000000018002d650     Totals.obj
 0002:0000b660       $unwind$?OnMouseActivate@CComControlBase@ATL@@QEAA_JI_K_JAEAH@Z 000000018002d660     Totals.obj
 0002:0000b668       $unwind$?GetAmbientLocaleID@CComControlBase@ATL@@QEAAJAEAK@Z 000000018002d668     Totals.obj
 0002:0000b668       $unwind$?GetAmbientUserMode@CComControlBase@ATL@@QEAAJAEAH@Z 000000018002d668     Totals.obj
 0002:0000b678       $unwind$?IQuickActivate_QuickActivate@CComControlBase@ATL@@QEAAJPEAUtagQACONTAINER@@PEAUtagQACONTROL@@@Z 000000018002d678     Totals.obj
 0002:0000b690       $unwind$?DoVerbProperties@CComControlBase@ATL@@QEAAJPEBUtagRECT@@PEAUHWND__@@@Z 000000018002d690     Totals.obj
 0002:0000b6a8       $unwind$?InPlaceActivate@CComControlBase@ATL@@QEAAJJPEBUtagRECT@@@Z 000000018002d6a8     Totals.obj
 0002:0000b6c8       $unwind$?IOleObject_Close@CComControlBase@ATL@@QEAAJK@Z 000000018002d6c8     Totals.obj
 0002:0000b6c8       $unwind$?type_case_c_tchar@?$output_processor@_WV?$string_output_adapter@_W@__crt_stdio_output@@V?$format_validation_base@_WV?$string_output_adapter@_W@__crt_stdio_output@@@2@@__crt_stdio_output@@AEAA_N_W@Z 000000018002d6c8     libucrt:output.obj
 0002:0000b6d8       $unwind$?IOleInPlaceObject_UIDeactivate@CComControlBase@ATL@@QEAAJXZ 000000018002d6d8     Totals.obj
 0002:0000b6f0       $unwind$?IOleInPlaceObject_SetObjectRects@CComControlBase@ATL@@QEAAJPEBUtagRECT@@0@Z 000000018002d6f0     Totals.obj
 0002:0000b704       $unwind$?IViewObject_Draw@CComControlBase@ATL@@QEAAJKJPEAXPEAUtagDVTARGETDEVICE@@PEAUHDC__@@2PEBU_RECTL@@3@Z 000000018002d704     Totals.obj
 0002:0000b720       $unwind$?IDataObject_GetData@CComControlBase@ATL@@QEAAJPEAUtagFORMATETC@@PEAUtagSTGMEDIUM@@@Z 000000018002d720     Totals.obj
 0002:0000b740       $unwind$?OnPaint@CComControlBase@ATL@@QEAA_JI_K_JAEAH@Z 000000018002d740     Totals.obj
 0002:0000b75c       $unwind$?OnDrawAdvanced@CComControlBase@ATL@@UEAAJAEAUATL_DRAWINFO@@@Z 000000018002d75c     Totals.obj
 0002:0000b778       $unwind$?Invoke@?$IDispatchImpl@UIOPOSTotals@@$1?IID_IOPOSTotals@@3U_GUID@@B$1?LIBID_OposTotals_CCO@@3U3@B$00$0A@VCComTypeInfoHolder@ATL@@@ATL@@UEAAJJAEBU_GUID@@KGPEAUtagDISPPARAMS@@PEAUtagVARIANT@@PEAUtagEXCEPINFO@@PEAI@Z 000000018002d778     Totals.obj
 0002:0000b778       $unwind$_mbsdec_l          000000018002d778     libucrt:mbsdec.obj
 0002:0000b784       $unwind$?atlCreate@?$CWindowImpl@VCOPOSTotals@@VCWindow@ATL@@V?$CWinTraits@$0FGAAAAAA@$0A@@3@@ATL@@QEAAPEAUHWND__@@PEAU3@V_U_RECT@2@PEB_WKKV_U_MENUorID@2@PEAX@Z 000000018002d784     Totals.obj
 0002:0000b784       $unwind$?fp_format_e@@YAHQEBNQEAD_K12H_NIQEAU__crt_locale_pointers@@@Z 000000018002d784     libucrt:cvt.obj
 0002:0000b784       $unwind$_mbtowc_l          000000018002d784     libucrt:mbtowc.obj
 0002:0000b784       $unwind$__acrt_LCMapStringEx 000000018002d784     libucrt:winapi_thunks.obj
 0002:0000b798       $unwind$?CreateControlWindow@?$CComControl@VCOPOSTotals@@V?$CWindowImpl@VCOPOSTotals@@VCWindow@ATL@@V?$CWinTraits@$0FGAAAAAA@$0A@@3@@ATL@@@ATL@@UEAAPEAUHWND__@@PEAU3@AEAUtagRECT@@@Z 000000018002d798     Totals.obj
 0002:0000b798       $unwind$?BeginTrans@COPOSTotals@@UEAAJPEAJ@Z 000000018002d798     TotalsImpl.obj
 0002:0000b798       $unwind$?CommitTrans@COPOSTotals@@UEAAJPEAJ@Z 000000018002d798     TotalsImpl.obj
 0002:0000b798       $unwind$?ReleaseDevice@COPOSTotals@@UEAAJPEAJ@Z 000000018002d798     TotalsImpl.obj
 0002:0000b798       $unwind$?Rollback@COPOSTotals@@UEAAJPEAJ@Z 000000018002d798     TotalsImpl.obj
 0002:0000b798       $unwind$?__scrt_throw_std_bad_alloc@@YAXXZ 000000018002d798     LIBCMT:throw_bad_alloc.obj
 0002:0000b798       $unwind$?__scrt_throw_std_bad_array_new_length@@YAXXZ 000000018002d798     LIBCMT:throw_bad_alloc.obj
 0002:0000b798       $unwind$_raise_exc         000000018002d798     libucrt:fpexcept.obj
 0002:0000b7a0       $unwind$?GetSizeMax@?$IPersistStreamInitImpl@VCOPOSTotals@@@ATL@@UEAAJPEAT_ULARGE_INTEGER@@@Z 000000018002d7a0     Totals.obj
 0002:0000b7b8       $unwind$?IPersistStreamInit_Load@?$IPersistStreamInitImpl@VCOPOSTotals@@@ATL@@QEAAJPEAUIStream@@PEBUATL_PROPMAP_ENTRY@2@@Z 000000018002d7b8     Totals.obj
 0002:0000b7d4       $unwind$?IPersistStreamInit_Save@?$IPersistStreamInitImpl@VCOPOSTotals@@@ATL@@QEAAJPEAUIStream@@HPEBUATL_PROPMAP_ENTRY@2@@Z 000000018002d7d4     Totals.obj
 0002:0000b7f0       $unwind$?DoVerbPrimary@?$IOleObjectImpl@VCOPOSTotals@@@ATL@@QEAAJPEBUtagRECT@@PEAUHWND__@@@Z 000000018002d7f0     Totals.obj
 0002:0000b7f0       $unwind$?ClaimFile@COPOSTotals@@UEAAJJJPEAJ@Z 000000018002d7f0     TotalsImpl.obj
 0002:0000b7f0       $unwind$?SetAll@COPOSTotals@@UEAAJJJPEAJ@Z 000000018002d7f0     TotalsImpl.obj
 0002:0000b808       $unwind$?TranslateAcceleratorW@?$IOleInPlaceActiveObjectImpl@VCOPOSTotals@@@ATL@@UEAAJPEAUtagMSG@@@Z 000000018002d808     Totals.obj
 0002:0000b814       $unwind$?Draw@?$IViewObjectExImpl@VCOPOSTotals@@@ATL@@UEAAJKJPEAXPEAUtagDVTARGETDEVICE@@PEAUHDC__@@2PEBU_RECTL@@3P6AH_K@Z4@Z 000000018002d814     Totals.obj
 0002:0000b81c       $unwind$?QueryHitRect@?$IViewObjectExImpl@VCOPOSTotals@@@ATL@@UEAAJKPEBUtagRECT@@0JPEAK@Z 000000018002d81c     Totals.obj
 0002:0000b82c       $unwind$?OnWindowMessage@?$IOleInPlaceObjectWindowlessImpl@VCOPOSTotals@@@ATL@@UEAAJI_K_JPEA_J@Z 000000018002d82c     Totals.obj
 0002:0000b840       $unwind$?EnumConnectionPoints@?$IConnectionPointContainerImpl@VCOPOSTotals@@@ATL@@UEAAJPEAPEAUIEnumConnectionPoints@@@Z 000000018002d840     Totals.obj
 0002:0000b868       $unwind$?FindConnectionPoint@?$IConnectionPointContainerImpl@VCOPOSTotals@@@ATL@@UEAAJAEBU_GUID@@PEAPEAUIConnectionPoint@@@Z 000000018002d868     Totals.obj
 0002:0000b868       $unwind$?__mbrtoc32_utf8@__crt_mbstring@@YA_KPEA_UPEBD_KPEAU_Mbstatet@@@Z 000000018002d868     libucrt:mbrtoc32.obj
 0002:0000b884       $unwind$?Load@?$IPersistStorageImpl@VCOPOSTotals@@@ATL@@UEAAJPEAUIStorage@@@Z 000000018002d884     Totals.obj
 0002:0000b894       $unwind$?Save@?$IPersistStorageImpl@VCOPOSTotals@@@ATL@@UEAAJPEAUIStorage@@H@Z 000000018002d894     Totals.obj
 0002:0000b8a8       $unwind$?IPSI_GetIPersistStreamInit@?$IPersistStorageImpl@VCOPOSTotals@@@ATL@@AEAAPEAUIPersistStreamInit@@XZ 000000018002d8a8     Totals.obj
 0002:0000b8a8       $unwind$?parse_int_from_format_string@?$output_processor@_WV?$string_output_adapter@_W@__crt_stdio_output@@V?$format_validation_base@_WV?$string_output_adapter@_W@__crt_stdio_output@@@2@@__crt_stdio_output@@AEAA_NQEAH@Z 000000018002d8a8     libucrt:output.obj
 0002:0000b8bc       $unwind$?GetInterfaceSafetyOptions@?$IObjectSafetyImpl@VCOPOSTotals@@$02@ATL@@UEAAJAEBU_GUID@@PEAK1@Z 000000018002d8bc     Totals.obj
 0002:0000b8d0       $unwind$?SetInterfaceSafetyOptions@?$IObjectSafetyImpl@VCOPOSTotals@@$02@ATL@@UEAAJAEBU_GUID@@KK@Z 000000018002d8d0     Totals.obj
 0002:0000b8e4       $unwind$?Advise@?$IConnectionPointImpl@VCOPOSTotals@@$1?DIID__IOPOSTotalsEvents@@3U_GUID@@BVCComDynamicUnkArray@ATL@@@ATL@@UEAAJPEAUIUnknown@@PEAK@Z 000000018002d8e4     Totals.obj
 0002:0000b8e4       $unwind$?Advise@?$IConnectionPointImpl@VCOPOSTotals@@$1?IID_IPropertyNotifySink@@3U_GUID@@BVCComDynamicUnkArray@ATL@@@ATL@@UEAAJPEAUIUnknown@@PEAK@Z 000000018002d8e4     Totals.obj
 0002:0000b8f8       $unwind$?Fire_DirectIOEvent@?$CProxy_IOPOSEvents@VCOPOSTotals@@@@QEAAXJPEAJPEAPEA_W@Z 000000018002d8f8     Totals.obj
 0002:0000b918       $unwind$?Fire_StatusUpdateEvent@?$CProxy_IOPOSEvents@VCOPOSTotals@@@@QEAAXJ@Z 000000018002d918     Totals.obj
 0002:0000b918       $unwind$??$__InternalCxxFrameHandler@V__FrameHandler3@@@@YA?AW4_EXCEPTION_DISPOSITION@@PEAUEHExceptionRecord@@PEA_KPEAU_CONTEXT@@PEAU_xDISPATCHER_CONTEXT@@PEBU_s_FuncInfo@@H1E@Z 000000018002d918     libvcruntime:frame.obj
 0002:0000b930       $unwind$?FireTheEvent@?$CProxy_IOPOSEvents@VCOPOSTotals@@@@IEAAXPEAVOposVariant@@IAEAJPEB_WJ@Z 000000018002d930     Totals.obj
 0002:0000b940       $unwind$?ProcessWindowMessage@COPOSTotals@@UEAAHPEAUHWND__@@I_K_JAEA_JK@Z 000000018002d940     Totals.obj
 0002:0000b940       $unwind$__dcrt_get_narrow_environment_from_os 000000018002d940     libucrt:get_environment_from_os.obj
 0002:0000b940       $unwind$?fp_format_f_internal@@YAHQEAD_KHQEAU_strflt@@_NQEAU__crt_locale_pointers@@@Z 000000018002d940     libucrt:cvt.obj
 0002:0000b940       $unwind$??$__acrt_wcs_to_mbs_cp@U__crt_win32_buffer_internal_dynamic_resizing@@@@YAHQEB_WAEAV?$__crt_win32_buffer@DU__crt_win32_buffer_internal_dynamic_resizing@@@@I@Z 000000018002d940     libucrt:argv_wildcards.obj
 0002:0000b958       $unwind$?Clone@?$CComEnumImpl@UIEnumConnectionPoints@@$1?_GUID_b196b285_bab4_101a_b69c_00aa00341d07@@3U__s_GUID@@BPEAUIConnectionPoint@@V?$_CopyInterface@UIConnectionPoint@@@ATL@@@ATL@@UEAAJPEAPEAUIEnumConnectionPoints@@@Z 000000018002d958     Totals.obj
 0002:0000b958       $unwind$?Clone@?$CComEnumImpl@UIEnumConnections@@$1?_GUID_b196b287_bab4_101a_b69c_00aa00341d07@@3U__s_GUID@@BUtagCONNECTDATA@@V?$_Copy@UtagCONNECTDATA@@@ATL@@@ATL@@UEAAJPEAPEAUIEnumConnections@@@Z 000000018002d958     Totals.obj
 0002:0000b970       $unwind$?GetOposProp@COPOSTotals@@IEAAJJPEAJJ@Z 000000018002d970     TotalsImpl.obj
 0002:0000b970       $unwind$?GetOposProp@COPOSTotals@@IEAAJJPEAPEA_WJ@Z 000000018002d970     TotalsImpl.obj
 0002:0000b988       $unwind$?SetOposProp@COPOSTotals@@IEAAJJJJ@Z 000000018002d988     TotalsImpl.obj
 0002:0000b9a8       $unwind$?DoInvoke@COPOSTotals@@IEAAJJPEAVOposVariant@@IHPEAJ_N@Z 000000018002d9a8     TotalsImpl.obj
 0002:0000b9c0       $unwind$?SetCOFreezeEvents@COPOSTotals@@IEAAXF@Z 000000018002d9c0     TotalsImpl.obj
 0002:0000b9d4       $unwind$?OnDraw@COPOSTotals@@MEAAJAEAUATL_DRAWINFO@@@Z 000000018002d9d4     TotalsImpl.obj
 0002:0000b9ec       $unwind$?EventInit@COPOSTotals@@IEAAJXZ 000000018002d9ec     TotalsImpl.obj
 0002:0000ba00       $unwind$?EventWindowProc@COPOSTotals@@IEAA_JI_K_J@Z 000000018002da00     TotalsImpl.obj
 0002:0000ba14       $unwind$?get_ControlObjectDescription@COPOSTotals@@UEAAJPEAPEA_W@Z 000000018002da14     TotalsImpl.obj
 0002:0000ba14       $unwind$__dcrt_lowio_ensure_console_output_initialized 000000018002da14     libucrt:initcon.obj
 0002:0000ba14       $unwind$_isleadbyte_l      000000018002da14     libucrt:_wctype.obj
 0002:0000ba14       $unwind$?getSystemCP@@YAHH@Z 000000018002da14     libucrt:mbctype.obj
 0002:0000ba1c       $unwind$?CheckHealth@COPOSTotals@@UEAAJJPEAJ@Z 000000018002da1c     TotalsImpl.obj
 0002:0000ba1c       $unwind$?Delete@COPOSTotals@@UEAAJPEA_WPEAJ@Z 000000018002da1c     TotalsImpl.obj
 0002:0000ba1c       $unwind$?RecalculateValidationData@COPOSTotals@@UEAAJJPEAJ@Z 000000018002da1c     TotalsImpl.obj
 0002:0000ba1c       $unwind$?ReleaseFile@COPOSTotals@@UEAAJJPEAJ@Z 000000018002da1c     TotalsImpl.obj
 0002:0000ba1c       $unwind$?ResetStatistics@COPOSTotals@@UEAAJPEA_WPEAJ@Z 000000018002da1c     TotalsImpl.obj
 0002:0000ba1c       $unwind$?RetrieveStatistics@COPOSTotals@@UEAAJPEAPEA_WPEAJ@Z 000000018002da1c     TotalsImpl.obj
 0002:0000ba1c       $unwind$?UpdateFirmware@COPOSTotals@@UEAAJPEA_WPEAJ@Z 000000018002da1c     TotalsImpl.obj
 0002:0000ba1c       $unwind$?UpdateStatistics@COPOSTotals@@UEAAJPEA_WPEAJ@Z 000000018002da1c     TotalsImpl.obj
 0002:0000ba1c       $unwind$?ValidateData@COPOSTotals@@UEAAJJPEAJ@Z 000000018002da1c     TotalsImpl.obj
 0002:0000ba2c       $unwind$?ClaimDevice@COPOSTotals@@UEAAJJPEAJ@Z 000000018002da2c     TotalsImpl.obj
 0002:0000ba3c       $unwind$?Close@COPOSTotals@@UEAAJPEAJ@Z 000000018002da3c     TotalsImpl.obj
 0002:0000ba48       $unwind$?DirectIO@COPOSTotals@@UEAAJJPEAJPEAPEA_W0@Z 000000018002da48     TotalsImpl.obj
 0002:0000ba64       $unwind$?Open@COPOSTotals@@UEAAJPEA_WPEAJ@Z 000000018002da64     TotalsImpl.obj
 0002:0000ba88       $unwind$?Create@COPOSTotals@@UEAAJPEA_WPEAJJF1@Z 000000018002da88     TotalsImpl.obj
 0002:0000baa8       $unwind$?Find@COPOSTotals@@UEAAJPEA_WPEAJ11@Z 000000018002daa8     TotalsImpl.obj
 0002:0000bac8       $unwind$?CompareFirmwareVersion@COPOSTotals@@UEAAJPEA_WPEAJ1@Z 000000018002dac8     TotalsImpl.obj
 0002:0000bac8       $unwind$?FindByIndex@COPOSTotals@@UEAAJJPEAPEA_WPEAJ@Z 000000018002dac8     TotalsImpl.obj
 0002:0000bac8       $unwind$?Rename@COPOSTotals@@UEAAJJPEA_WPEAJ@Z 000000018002dac8     TotalsImpl.obj
 0002:0000bac8       $unwind$?initialize_inherited_file_handles_nolock@@YAXXZ 000000018002dac8     libucrt:ioinit.obj
 0002:0000bae4       $unwind$?Read@COPOSTotals@@UEAAJJPEAPEA_WJJPEAJ@Z 000000018002dae4     TotalsImpl.obj
 0002:0000bae4       $unwind$?Write@COPOSTotals@@UEAAJJPEA_WJJPEAJ@Z 000000018002dae4     TotalsImpl.obj
 0002:0000bb00       $unwind$__scrt_is_nonwritable_in_current_image 000000018002db00     LIBCMT:utility.obj
 0002:0000bb20       $unwind$__scrt_is_nonwritable_in_current_image$filt$0 000000018002db20     LIBCMT:utility.obj
 0002:0000bb28       $unwind$__report_securityfailure 000000018002db28     LIBCMT:gs_report.obj
 0002:0000bb30       $unwind$__report_gsfailure 000000018002db30     LIBCMT:gs_report.obj
 0002:0000bb38       $unwind$capture_current_context 000000018002db38     LIBCMT:gs_report.obj
 0002:0000bb44       $unwind$capture_previous_context 000000018002db44     LIBCMT:gs_report.obj
 0002:0000bb50       $unwind$??2@YAPEAX_KAEBUnothrow_t@std@@@Z 000000018002db50     LIBCMT:new_scalar_nothrow.obj
 0002:0000bb60       $stateUnwindMap$??2@YAPEAX_KAEBUnothrow_t@std@@@Z 000000018002db60     LIBCMT:new_scalar_nothrow.obj
 0002:0000bb70       $tryMap$??2@YAPEAX_KAEBUnothrow_t@std@@@Z 000000018002db70     LIBCMT:new_scalar_nothrow.obj
 0002:0000bb84       $handlerMap$0$??2@YAPEAX_KAEBUnothrow_t@std@@@Z 000000018002db84     LIBCMT:new_scalar_nothrow.obj
 0002:0000bb98       $ip2state$??2@YAPEAX_KAEBUnothrow_t@std@@@Z 000000018002db98     LIBCMT:new_scalar_nothrow.obj
 0002:0000bba0       $unwind$?catch$0@?0???2@YAPEAX_KAEBUnothrow_t@std@@@Z@4HA 000000018002dba0     LIBCMT:new_scalar_nothrow.obj
 0002:0000bbb0       $unwind$__GSHandlerCheckCommon 000000018002dbb0     LIBCMT:gshandler.obj
 0002:0000bbb0       $unwind$__acrt_WideCharToMultiByte 000000018002dbb0     libucrt:widechartomultibyte.obj
 0002:0000bbb8       $xdatasym                  000000018002dbb8     LIBCMT:chkstk.obj
 0002:0000bbc0       $xdatasym                  000000018002dbc0     LIBCMT:amdsecgs.obj
 0002:0000bbc4       $unwind$?dllmain_crt_process_attach@@YAHQEAUHINSTANCE__@@QEAX@Z 000000018002dbc4     LIBCMT:dll_dllmain.obj
 0002:0000bc00       $unwind$?dllmain_crt_process_detach@@YAH_N@Z 000000018002dc00     LIBCMT:dll_dllmain.obj
 0002:0000bc54       $unwind$?dllmain_dispatch@@YAHQEAUHINSTANCE__@@KQEAX@Z 000000018002dc54     LIBCMT:dll_dllmain.obj
 0002:0000bc7c       $unwind$?filt$0@?0??dllmain_dispatch@@YAHQEAUHINSTANCE__@@KQEAX@Z@4HA 000000018002dc7c     LIBCMT:dll_dllmain.obj
 0002:0000bc84       $unwind$__isa_available_init 000000018002dc84     LIBCMT:cpu_disp.obj
 0002:0000bc94       $unwind$__scrt_fastfail    000000018002dc94     LIBCMT:utility_desktop.obj
 0002:0000bca4       $unwind$__security_init_cookie 000000018002dca4     LIBCMT:gs_support.obj
 0002:0000bcb0       $xdatasym                  000000018002dcb0     LIBCMT:guard_dispatch.obj
 0002:0000bcb4       $unwind$AtlThunk_InitData  000000018002dcb4     atls:atlthunk.obj
 0002:0000bcc8       $unwind$wcsstr             000000018002dcc8     libvcruntime:wcsstr.obj
 0002:0000bce0       $xdatasym                  000000018002dce0     libvcruntime:memcmp.obj
 0002:0000bce8       $xdatasym                  000000018002dce8     libvcruntime:memcpy.obj
 0002:0000bcf8       $xdatasym                  000000018002dcf8     libvcruntime:memset.obj
 0002:0000bd08       $unwind$__C_specific_handler 000000018002dd08     libvcruntime:riscchandler.obj
 0002:0000bd24       $unwind$?GetEstablisherFrame@__FrameHandler3@@SAPEA_KPEA_KPEAU_xDISPATCHER_CONTEXT@@PEBU_s_FuncInfo@@0@Z 000000018002dd24     libvcruntime:risctrnsctrl.obj
 0002:0000bd3c       $unwind$?UnwindNestedFrames@__FrameHandler3@@SAXPEA_KPEAUEHExceptionRecord@@PEAU_CONTEXT@@0PEAXPEBU_s_FuncInfo@@HHPEBU_s_HandlerType@@PEAU_xDISPATCHER_CONTEXT@@E@Z 000000018002dd3c     libvcruntime:risctrnsctrl.obj
 0002:0000bd50       $unwind$?GetRangeOfTrysToCheck@__FrameHandler3@@SA?AU?$pair@Viterator@TryBlockMap@__FrameHandler3@@V123@@std@@AEAVTryBlockMap@1@HPEAU_xDISPATCHER_CONTEXT@@PEBU_s_FuncInfo@@H@Z 000000018002dd50     libvcruntime:risctrnsctrl.obj
 0002:0000bd68       $unwind$__CxxFrameHandler3 000000018002dd68     libvcruntime:risctrnsctrl.obj
 0002:0000bd7c       $unwind$??$_CallSETranslator@V__FrameHandler3@@@@YAHPEAUEHExceptionRecord@@PEA_KPEAU_CONTEXT@@PEAU_xDISPATCHER_CONTEXT@@PEBU_s_FuncInfo@@K1@Z 000000018002dd7c     libvcruntime:risctrnsctrl.obj
 0002:0000bd9c       $unwind$?filt$0@?0???$_CallSETranslator@V__FrameHandler3@@@@YAHPEAUEHExceptionRecord@@PEA_KPEAU_CONTEXT@@PEAU_xDISPATCHER_CONTEXT@@PEBU_s_FuncInfo@@K1@Z@4HA 000000018002dd9c     libvcruntime:risctrnsctrl.obj
 0002:0000bda8       $unwind$__DestructExceptionObject 000000018002dda8     libvcruntime:ehhelpers.obj
 0002:0000bdc8       $unwind$__DestructExceptionObject$filt$0 000000018002ddc8     libvcruntime:ehhelpers.obj
 0002:0000bdc8       $unwind$?fin$1@?0??CxxCallCatchBlock@__FrameHandler3@@SAPEAXPEAU_EXCEPTION_RECORD@@@Z@4HA 000000018002ddc8     libvcruntime:frame.obj
 0002:0000bdd4       $unwind$_CxxThrowException 000000018002ddd4     libvcruntime:throw.obj
 0002:0000bde8       $xdatasym                  000000018002dde8     libvcruntime:notify.obj
 0002:0000bdf4       $unwind$?FrameUnwindToState@__FrameHandler3@@SAXPEA_KPEAU_xDISPATCHER_CONTEXT@@PEBU_s_FuncInfo@@H@Z 000000018002ddf4     libvcruntime:frame.obj
 0002:0000be40       $unwind$?CxxCallCatchBlock@__FrameHandler3@@SAPEAXPEAU_EXCEPTION_RECORD@@@Z 000000018002de40     libvcruntime:frame.obj
 0002:0000be7c       $unwind$?IsInExceptionSpec@@YAEPEAUEHExceptionRecord@@PEBU_s_ESTypeList@@@Z 000000018002de7c     libvcruntime:frame.obj
 0002:0000be98       $unwind$??$BuildCatchObjectHelperInternal@V__FrameHandler3@@@@YAHPEAUEHExceptionRecord@@PEAXPEBU_s_HandlerType@@PEBU_s_CatchableType@@@Z 000000018002de98     libvcruntime:frame.obj
 0002:0000bed8       $unwind$??$BuildCatchObjectInternal@V__FrameHandler3@@@@YAXPEAUEHExceptionRecord@@PEAXPEBU_s_HandlerType@@PEBU_s_CatchableType@@@Z 000000018002ded8     libvcruntime:frame.obj
 0002:0000bf04       $unwind$??$FindHandler@V__FrameHandler3@@@@YAXPEAUEHExceptionRecord@@PEA_KPEAU_CONTEXT@@PEAU_xDISPATCHER_CONTEXT@@PEBU_s_FuncInfo@@EH1@Z 000000018002df04     libvcruntime:frame.obj
 0002:0000bf24       $unwind$??$CatchIt@V__FrameHandler3@@@@YAXPEAUEHExceptionRecord@@PEA_KPEAU_CONTEXT@@PEAU_xDISPATCHER_CONTEXT@@PEBU_s_FuncInfo@@PEBU_s_HandlerType@@PEBU_s_CatchableType@@PEBU_s_TryBlockMapEntry@@H1EE@Z 000000018002df24     libvcruntime:frame.obj
 0002:0000bf3c       $unwind$??$FindHandlerForForeignException@V__FrameHandler3@@@@YAXPEAUEHExceptionRecord@@PEA_KPEAU_CONTEXT@@PEAU_xDISPATCHER_CONTEXT@@PEBU_s_FuncInfo@@HH1@Z 000000018002df3c     libvcruntime:frame.obj
 0002:0000bf58       $unwind$?try_get_function@@YAPEAXW4function_id@?A0x81a78551@@QEBDQEBW4module_id@2@2@Z 000000018002df58     libvcruntime:winapi_downlevel.obj
 0002:0000bf58       $unwind$?try_get_function@@YAPEAXW4function_id@?A0x391cf84c@@QEBDQEBW4module_id@2@2@Z 000000018002df58     libucrt:winapi_thunks.obj
 0002:0000bf78       $xdatasym                  000000018002df78     libvcruntime:handlers.obj
 0002:0000bf98       $unwind$__acrt_call_reportfault 000000018002df98     libucrt:invalid_parameter.obj
 0002:0000bfb8       $unwind$_invalid_parameter 000000018002dfb8     libucrt:invalid_parameter.obj
 0002:0000bfcc       $unwind$_resetstkoflw      000000018002dfcc     libucrt:resetstk.obj
 0002:0000bff0       $unwind$__stdio_common_vswprintf_s 000000018002dff0     libucrt:output.obj
 0002:0000bffc       $unwind$?write_string@?$string_output_adapter@_W@__crt_stdio_output@@QEBAXQEB_WHQEAHAEAV__crt_deferred_errno_cache@@@Z 000000018002dffc     libucrt:output.obj
 0002:0000c014       $unwind$??$common_vsprintf@Vformat_validation_base@__crt_stdio_output@@_W@@YAH_KQEA_W0QEB_WQEAU__crt_locale_pointers@@QEAD@Z 000000018002e014     libucrt:output.obj
 0002:0000c034       $unwind$??$write_multiple_characters@V?$string_output_adapter@_W@__crt_stdio_output@@D@__crt_stdio_output@@YAXAEBV?$string_output_adapter@_W@0@DHQEAH@Z 000000018002e034     libucrt:output.obj
 0002:0000c040       $unwind$?process@?$output_processor@_WV?$string_output_adapter@_W@__crt_stdio_output@@V?$format_validation_base@_WV?$string_output_adapter@_W@__crt_stdio_output@@@2@@__crt_stdio_output@@QEAAHXZ 000000018002e040     libucrt:output.obj
 0002:0000c054       $unwind$?state_case_type@?$output_processor@_WV?$string_output_adapter@_W@__crt_stdio_output@@V?$format_validation_base@_WV?$string_output_adapter@_W@__crt_stdio_output@@@2@@__crt_stdio_output@@AEAA_NXZ 000000018002e054     libucrt:output.obj
 0002:0000c078       $unwind$?type_case_a@?$output_processor@_WV?$string_output_adapter@_W@__crt_stdio_output@@V?$format_validation_base@_WV?$string_output_adapter@_W@__crt_stdio_output@@@2@@__crt_stdio_output@@AEAA_NXZ 000000018002e078     libucrt:output.obj
 0002:0000c088       $unwind$?write_stored_string_tchar@?$output_processor@_WV?$string_output_adapter@_W@__crt_stdio_output@@V?$format_validation_base@_WV?$string_output_adapter@_W@__crt_stdio_output@@@2@@__crt_stdio_output@@AEAA_N_W@Z 000000018002e088     libucrt:output.obj
 0002:0000c09c       $unwind$??$type_case_integer_parse_into_buffer@I@?$output_processor@_WV?$string_output_adapter@_W@__crt_stdio_output@@V?$format_validation_base@_WV?$string_output_adapter@_W@__crt_stdio_output@@@2@@__crt_stdio_output@@AEAAXII_N@Z 000000018002e09c     libucrt:output.obj
 0002:0000c09c       $unwind$??$type_case_integer_parse_into_buffer@_K@?$output_processor@_WV?$string_output_adapter@_W@__crt_stdio_output@@V?$format_validation_base@_WV?$string_output_adapter@_W@__crt_stdio_output@@@2@@__crt_stdio_output@@AEAAX_KI_N@Z 000000018002e09c     libucrt:output.obj
 0002:0000c0a4       $unwind$?common_exit@@YAXHW4_crt_exit_cleanup_mode@@W4_crt_exit_return_mode@@@Z 000000018002e0a4     libucrt:exit.obj
 0002:0000c0b0       $unwind$??R<lambda_6e4b09c48022b2350581041d5f6b0c4c>@@QEBA@XZ 000000018002e0b0     libucrt:exit.obj
 0002:0000c0d0       $unwind$??$?RV<lambda_d80eeec6fff315bfe5c115232f3240e3>@@AEAV<lambda_6e4b09c48022b2350581041d5f6b0c4c>@@V<lambda_2358e3775559c9db80273638284d5e45>@@@?$__crt_seh_guarded_call@X@@QEAAX$$QEAV<lambda_d80eeec6fff315bfe5c115232f3240e3>@@AEAV<lambda_6e4b09c48022b2350581041d5f6b0c4c>@@$$QEAV<lambda_2358e3775559c9db80273638284d5e45>@@@Z 000000018002e0d0     libucrt:exit.obj
 0002:0000c0f4       $unwind$??$free_environment@D@@YAXQEAPEAD@Z 000000018002e0f4     libucrt:environment_initialization.obj
 0002:0000c0f4       $unwind$??$free_environment@_W@@YAXQEAPEA_W@Z 000000018002e0f4     libucrt:environment_initialization.obj
 0002:0000c100       $unwind$??$create_environment@D@@YAQEAPEADQEAD@Z 000000018002e100     libucrt:environment_initialization.obj
 0002:0000c118       $unwind$_register_onexit_function 000000018002e118     libucrt:onexit.obj
 0002:0000c120       $unwind$_execute_onexit_table 000000018002e120     libucrt:onexit.obj
 0002:0000c128       $unwind$??R<lambda_22ebabd17bc4fa466a2aca6d8deb888d>@@QEBAHXZ 000000018002e128     libucrt:onexit.obj
 0002:0000c140       $unwind$??$?RV<lambda_638799b9deba96c50f710eeac98168cd>@@AEAV<lambda_22ebabd17bc4fa466a2aca6d8deb888d>@@V<lambda_a6f7d7db0129f75315ebf26d50c089f1>@@@?$__crt_seh_guarded_call@H@@QEAAH$$QEAV<lambda_638799b9deba96c50f710eeac98168cd>@@AEAV<lambda_22ebabd17bc4fa466a2aca6d8deb888d>@@$$QEAV<lambda_a6f7d7db0129f75315ebf26d50c089f1>@@@Z 000000018002e140     libucrt:onexit.obj
 0002:0000c164       $unwind$??$?RV<lambda_7777bce6b2f8c936911f934f8298dc43>@@AEAV<lambda_f03950bc5685219e0bcd2087efbe011e>@@V<lambda_3883c3dff614d5e0c5f61bb1ac94921c>@@@?$__crt_seh_guarded_call@H@@QEAAH$$QEAV<lambda_7777bce6b2f8c936911f934f8298dc43>@@AEAV<lambda_f03950bc5685219e0bcd2087efbe011e>@@$$QEAV<lambda_3883c3dff614d5e0c5f61bb1ac94921c>@@@Z 000000018002e164     libucrt:onexit.obj
 0002:0000c188       $unwind$_query_new_handler 000000018002e188     libucrt:new_handler.obj
 0002:0000c1a8       $unwind$terminate          000000018002e1a8     libucrt:terminate.obj
 0002:0000c1c8       $unwind$??$parse_integer@KV?$c_string_character_source@_W@__crt_strtox@@@__crt_strtox@@YAKQEAU__crt_locale_pointers@@V?$c_string_character_source@_W@0@H_N@Z 000000018002e1c8     libucrt:atox.obj
 0002:0000c1e0       $xdatasym                  000000018002e1e0     libucrt:strncmp.obj
 0002:0000c1e4       $unwind$?construct_ptd_array@@YAXQEAU__acrt_ptd@@@Z 000000018002e1e4     libucrt:per_thread_data.obj
 0002:0000c1ec       $unwind$?destroy_ptd_array@@YAXQEAU__acrt_ptd@@@Z 000000018002e1ec     libucrt:per_thread_data.obj
 0002:0000c1f4       $unwind$??$?RV<lambda_0ae27a3a962d80f24befdcbee591983d>@@AEAV<lambda_8d0ee55de4b1038c4002e0adecdf1839>@@V<lambda_dc504788e8f1664fe9b84e20bfb512f2>@@@?$__crt_seh_guarded_call@X@@QEAAX$$QEAV<lambda_0ae27a3a962d80f24befdcbee591983d>@@AEAV<lambda_8d0ee55de4b1038c4002e0adecdf1839>@@$$QEAV<lambda_dc504788e8f1664fe9b84e20bfb512f2>@@@Z 000000018002e1f4     libucrt:per_thread_data.obj
 0002:0000c218       $unwind$??$?RV<lambda_aa87e3671a710a21b5dc78c0bdf72e11>@@AEAV<lambda_92619d2358a28f41a33ba319515a20b9>@@V<lambda_6992ecaafeb10aed2b74cb1fae11a551>@@@?$__crt_seh_guarded_call@X@@QEAAX$$QEAV<lambda_aa87e3671a710a21b5dc78c0bdf72e11>@@AEAV<lambda_92619d2358a28f41a33ba319515a20b9>@@$$QEAV<lambda_6992ecaafeb10aed2b74cb1fae11a551>@@@Z 000000018002e218     libucrt:per_thread_data.obj
 0002:0000c23c       $unwind$??$?RV<lambda_f2e299630e499de9f9a165e60fcd3db5>@@AEAV<lambda_2ae9d31cdba2644fcbeaf08da7c24588>@@V<lambda_40d01ff24d0e7b3814fdbdcee8eab3c7>@@@?$__crt_seh_guarded_call@X@@QEAAX$$QEAV<lambda_f2e299630e499de9f9a165e60fcd3db5>@@AEAV<lambda_2ae9d31cdba2644fcbeaf08da7c24588>@@$$QEAV<lambda_40d01ff24d0e7b3814fdbdcee8eab3c7>@@@Z 000000018002e23c     libucrt:per_thread_data.obj
 0002:0000c260       $unwind$??$?RV<lambda_2d41944a1d46af3157314b8a01080d33>@@AEAV<lambda_8f455de75cd7d7f24b4096f044d8b9e6>@@V<lambda_aa500f224e6afead328df44964fe2772>@@@?$__crt_seh_guarded_call@X@@QEAAX$$QEAV<lambda_2d41944a1d46af3157314b8a01080d33>@@AEAV<lambda_8f455de75cd7d7f24b4096f044d8b9e6>@@$$QEAV<lambda_aa500f224e6afead328df44964fe2772>@@@Z 000000018002e260     libucrt:per_thread_data.obj
 0002:0000c284       $unwind$__acrt_initialize_winapi_thunks 000000018002e284     libucrt:winapi_thunks.obj
 0002:0000c28c       $unwind$?fp_format_e_internal@@YAHQEAD_KH_NIQEAU_strflt@@2QEAU__crt_locale_pointers@@@Z 000000018002e28c     libucrt:cvt.obj
 0002:0000c2a4       $unwind$?fp_format_a@@YAHQEBNPEAD_KQEAD2H_NIQEAU__crt_locale_pointers@@@Z 000000018002e2a4     libucrt:cvt.obj
 0002:0000c2c0       $unwind$?fp_format_g@@YAHQEBNQEAD_K12H_NIQEAU__crt_locale_pointers@@@Z 000000018002e2c0     libucrt:cvt.obj
 0002:0000c2d4       $unwind$__acrt_uninitialize_locale 000000018002e2d4     libucrt:wsetlocale.obj
 0002:0000c2d4       $unwind$__acrt_get_sigabrt_handler 000000018002e2d4     libucrt:signal.obj
 0002:0000c2dc       $unwind$??$?RV<lambda_410d79af7f07d98d83a3f525b3859a53>@@AEAV<lambda_3e16ef9562a7dcce91392c22ab16ea36>@@V<lambda_38119f0e861e05405d8a144b9b982f0a>@@@?$__crt_seh_guarded_call@X@@QEAAX$$QEAV<lambda_410d79af7f07d98d83a3f525b3859a53>@@AEAV<lambda_3e16ef9562a7dcce91392c22ab16ea36>@@$$QEAV<lambda_38119f0e861e05405d8a144b9b982f0a>@@@Z 000000018002e2dc     libucrt:wsetlocale.obj
 0002:0000c304       $unwind$__acrt_initialize_lowio 000000018002e304     libucrt:ioinit.obj
 0002:0000c324       $unwind$??$common_expand_argv_wildcards@D@@YAHQEAPEADQEAPEAPEAD@Z 000000018002e324     libucrt:argv_wildcards.obj
 0002:0000c33c       $unwind$??$copy_and_add_argument_to_buffer@D@@YAHQEBD0_KAEAV?$argument_list@D@?A0x5f5c8891@@@Z 000000018002e33c     libucrt:argv_wildcards.obj
 0002:0000c358       $unwind$??$expand_argument_wildcards@D@@YAHQEAD0AEAV?$argument_list@D@?A0x5f5c8891@@@Z 000000018002e358     libucrt:argv_wildcards.obj
 0002:0000c37c       $unwind$__acrt_GetModuleFileNameA 000000018002e37c     libucrt:getmodulefilenamea.obj
 0002:0000c398       $unwind$_setmbcp_nolock    000000018002e398     libucrt:mbctype.obj
 0002:0000c3b8       $unwind$?update_thread_multibyte_data_internal@@YAPEAU__crt_multibyte_data@@QEAU__acrt_ptd@@QEAPEAU1@@Z 000000018002e3b8     libucrt:mbctype.obj
 0002:0000c3e0       $unwind$?setmbcp_internal@@YAHH_NQEAU__acrt_ptd@@QEAPEAU__crt_multibyte_data@@@Z 000000018002e3e0     libucrt:mbctype.obj
 0002:0000c3f0       $unwind$?setSBUpLow@@YAXPEAU__crt_multibyte_data@@@Z 000000018002e3f0     libucrt:mbctype.obj
 0002:0000c40c       $unwind$??$?RV<lambda_efdfa57d1f175319df784efa44bb7b81>@@AEAV<lambda_5f0a4c1567f8adc6734073e5d1e1b35c>@@V<lambda_2e8a7d3640ea6ccb4c2413664c2db6fd>@@@?$__crt_seh_guarded_call@X@@QEAAX$$QEAV<lambda_efdfa57d1f175319df784efa44bb7b81>@@AEAV<lambda_5f0a4c1567f8adc6734073e5d1e1b35c>@@$$QEAV<lambda_2e8a7d3640ea6ccb4c2413664c2db6fd>@@@Z 000000018002e40c     libucrt:mbctype.obj
 0002:0000c430       $unwind$raise              000000018002e430     libucrt:signal.obj
 0002:0000c46c       $unwind$??$?RV<lambda_450d765d439847d4c735a33c368b5fc0>@@AEAV<lambda_44731a7d0e6d81c3e6aa82d741081786>@@V<lambda_601a2a7da3b7a96e9554ac7215c4b07c>@@@?$__crt_seh_guarded_call@P6AXH@Z@@QEAAP6AXH@Z$$QEAV<lambda_450d765d439847d4c735a33c368b5fc0>@@AEAV<lambda_44731a7d0e6d81c3e6aa82d741081786>@@$$QEAV<lambda_601a2a7da3b7a96e9554ac7215c4b07c>@@@Z 000000018002e46c     libucrt:signal.obj
 0002:0000c490       $unwind$?common_flush_all@@YAH_N@Z 000000018002e490     libucrt:fflush.obj
 0002:0000c498       $unwind$??$?RV<lambda_842d9ff0dc9ef11c61343bbaebe7f885>@@AEAV<lambda_c5860995281e5c4ce005b3de8f5874ee>@@V<lambda_d90129c13df834fdcbf8d2b88dafcf2d>@@@?$__crt_seh_guarded_call@X@@QEAAX$$QEAV<lambda_842d9ff0dc9ef11c61343bbaebe7f885>@@AEAV<lambda_c5860995281e5c4ce005b3de8f5874ee>@@$$QEAV<lambda_d90129c13df834fdcbf8d2b88dafcf2d>@@@Z 000000018002e498     libucrt:fflush.obj
 0002:0000c4bc       $unwind$??$?RV<lambda_886d6c58226a84441f68b9f2b8217b83>@@AEAV<lambda_ab61a845afdef5b7c387490eaf3616ee>@@V<lambda_f7f22ab5edc0698d5f6905b0d3f44752>@@@?$__crt_seh_guarded_call@X@@QEAAX$$QEAV<lambda_886d6c58226a84441f68b9f2b8217b83>@@AEAV<lambda_ab61a845afdef5b7c387490eaf3616ee>@@$$QEAV<lambda_f7f22ab5edc0698d5f6905b0d3f44752>@@@Z 000000018002e4bc     libucrt:fflush.obj
 0002:0000c4e4       $unwind$__acrt_update_thread_locale_data 000000018002e4e4     libucrt:locale_refcounting.obj
 0002:0000c508       $unwind$?__mbrtowc_utf8@__crt_mbstring@@YA_KPEA_WPEBD_KPEAU_Mbstatet@@@Z 000000018002e508     libucrt:mbrtowc.obj
 0002:0000c510       $unwind$?__mbsrtowcs_utf8@__crt_mbstring@@YA_KPEA_WPEAPEBD_KPEAU_Mbstatet@@@Z 000000018002e510     libucrt:mbrtowc.obj
 0002:0000c528       $unwind$__acrt_fltout      000000018002e528     libucrt:cfout.obj
 0002:0000c548       $unwind$?divide@__crt_strtox@@YA_KAEAUbig_integer@1@AEBU21@@Z 000000018002e548     libucrt:cfout.obj
 0002:0000c560       $chain$0$?divide@__crt_strtox@@YA_KAEAUbig_integer@1@AEBU21@@Z 000000018002e560     libucrt:cfout.obj
 0002:0000c574       $chain$1$?divide@__crt_strtox@@YA_KAEAUbig_integer@1@AEBU21@@Z 000000018002e574     libucrt:cfout.obj
 0002:0000c584       $unwind$_fcloseall         000000018002e584     libucrt:closeall.obj
 0002:0000c5a8       $unwind$__acrt_locale_free_monetary 000000018002e5a8     libucrt:initmon.obj
 0002:0000c5b0       $unwind$__acrt_locale_free_time 000000018002e5b0     libucrt:inittime.obj
 0002:0000c5c0       $unwind$__acrt_GetStringTypeA 000000018002e5c0     libucrt:getstringtypea.obj
 0002:0000c5e8       $unwind$__acrt_lowio_destroy_handle_array 000000018002e5e8     libucrt:osfinfo.obj
 0002:0000c5f8       $unwind$__acrt_lowio_ensure_fh_exists 000000018002e5f8     libucrt:osfinfo.obj
 0002:0000c624       $unwind$qsort              000000018002e624     libucrt:qsort.obj
 0002:0000c63c       $chain$4$qsort             000000018002e63c     libucrt:qsort.obj
 0002:0000c660       $chain$5$qsort             000000018002e660     libucrt:qsort.obj
 0002:0000c670       $unwind$fallbackMethod     000000018002e670     libucrt:strpbrk.obj
 0002:0000c680       $unwind$__acrt_LCMapStringA 000000018002e680     libucrt:lcmapstringa.obj
 0002:0000c690       $unwind$?__acrt_LCMapStringA_stat@@YAHPEAU__crt_locale_pointers@@PEB_WKPEBDHPEADHHH@Z 000000018002e690     libucrt:lcmapstringa.obj
 0002:0000c6b8       $unwind$_close             000000018002e6b8     libucrt:close.obj
 0002:0000c6b8       $unwind$_commit            000000018002e6b8     libucrt:commit.obj
 0002:0000c6c0       $unwind$??$?RV<lambda_a37b2b86f63e897a80ea819b0eb08c01>@@AEAV<lambda_38ce7e780aa69e748d6df282ebc68efe>@@V<lambda_99fb1378e971ab6e7edea83e3a7a83a2>@@@?$__crt_seh_guarded_call@H@@QEAAH$$QEAV<lambda_a37b2b86f63e897a80ea819b0eb08c01>@@AEAV<lambda_38ce7e780aa69e748d6df282ebc68efe>@@$$QEAV<lambda_99fb1378e971ab6e7edea83e3a7a83a2>@@@Z 000000018002e6c0     libucrt:commit.obj
 0002:0000c6e4       $unwind$_write             000000018002e6e4     libucrt:write.obj
 0002:0000c714       $unwind$_write_nolock      000000018002e714     libucrt:write.obj
 0002:0000c72c       $unwind$?write_double_translated_ansi_nolock@@YA?AUwrite_result@?A0x17268360@@HQEBDI@Z 000000018002e72c     libucrt:write.obj
 0002:0000c750       $unwind$?write_text_ansi_nolock@@YA?AUwrite_result@?A0x17268360@@HQEBDI@Z 000000018002e750     libucrt:write.obj
 0002:0000c750       $unwind$?write_text_utf16le_nolock@@YA?AUwrite_result@?A0x17268360@@HQEBDI@Z 000000018002e750     libucrt:write.obj
 0002:0000c770       $unwind$?write_text_utf8_nolock@@YA?AUwrite_result@?A0x17268360@@HQEBDI@Z 000000018002e770     libucrt:write.obj
 0002:0000c798       $xdatasym                  000000018002e798     libucrt:log10.obj
 0002:0000c7a4       $unwind$fclose             000000018002e7a4     libucrt:fclose.obj
 0002:0000c7c8       $unwind$_putwch_nolock     000000018002e7c8     libucrt:putwch.obj
 0002:0000c7d0       $unwind$__acrt_fenv_set_control 000000018002e7d0     libucrt:_fenvutils.obj
 0002:0000c7e0       $unwind$_call_matherr      000000018002e7e0     libucrt:libm_error.obj
 0002:0000c7e8       $unwind$_handle_error      000000018002e7e8     libucrt:libm_error.obj
 0002:0000c808       $unwind$__acrt_initialize_fma3 000000018002e808     libucrt:fma3_available.obj
 0002:0000c810       $unwind$_log_special_common 000000018002e810     libucrt:log_special.obj
 0002:0000c81c       $unwind$??$?RV<lambda_751a882b2c74d4b022dec766aa51a29a>@@AEAV<lambda_628dfdc04ba53c8bfc02c9951375f3f5>@@V<lambda_f6c7be5f7998530c34de24c7437d6b54>@@@?$__crt_seh_guarded_call@H@@QEAAH$$QEAV<lambda_751a882b2c74d4b022dec766aa51a29a>@@AEAV<lambda_628dfdc04ba53c8bfc02c9951375f3f5>@@$$QEAV<lambda_f6c7be5f7998530c34de24c7437d6b54>@@@Z 000000018002e81c     libucrt:close.obj
 0002:0000c840       $xdatasym                  000000018002e840     libucrt:fpsr.obj
 0002:0000c848       $unwind$_raise_exc_ex      000000018002e848     libucrt:fpexcept.obj
 0002:0000c85c       $unwind$_ctrlfp            000000018002e85c     libucrt:fpctrl.obj
 0002:0000c884       $unwind$_IsNonwritableInCurrentImage 000000018002e884     LIBCMT:pesect.obj
 0002:0000ca10       .edata                     000000018002ea10     OPOSTotals.exp
 0002:0000ca38       rgpv                       000000018002ea38     OPOSTotals.exp
 0002:0000ca48       rgszName                   000000018002ea48     OPOSTotals.exp
 0002:0000ca58       rgwOrd                     000000018002ea58     OPOSTotals.exp
 0002:0000ca60       szName                     000000018002ea60     OPOSTotals.exp
 0002:0000ca6f       $N00001                    000000018002ea6f     OPOSTotals.exp
 0002:0000ca7f       $N00002                    000000018002ea7f     OPOSTotals.exp
 0002:0000ca91       $N00003                    000000018002ea91     OPOSTotals.exp
 0002:0000caa3       $N00004                    000000018002eaa3     OPOSTotals.exp
 0002:0000d3d2       .idata$6                   000000018002f3d2     kernel32:KERNEL32.dll
 0002:0000d5ea       .idata$6                   000000018002f5ea     user32:USER32.dll
 0002:0000d71e       .idata$6                   000000018002f71e     gdi32:GDI32.dll
 0002:0000d7c4       .idata$6                   000000018002f7c4     advapi32:ADVAPI32.dll
 0002:0000d8e0       .idata$6                   000000018002f8e0     ole32:ole32.dll
 0002:0000d8ea       .idata$6                   000000018002f8ea     oleaut32:OLEAUT32.dll
 0003:000001c0       ?ObjectMap@@3PAU_ATL_OBJMAP_ENTRY30@ATL@@A 00000001800301c0     Totals.obj
 0003:000002c0       ?s_SOMethodNames@@3PAPEADA 00000001800302c0     TotalsImpl.obj
 0003:000003c0       ?s_RequiredMethodsPerRelease@@3PAHA 00000001800303c0     TotalsImpl.obj
 0003:00000420       ?__vcrt_flsindex@@3KA      0000000180030420     libvcruntime:per_thread_data.obj
 0003:00000430       ?errno_no_memory@@3HA      0000000180030430     libucrt:errno.obj
 0003:00000434       ?doserrno_no_memory@@3KA   0000000180030434     libucrt:errno.obj
 0003:00000440       ?__acrt_flsindex@@3KA      0000000180030440     libucrt:per_thread_data.obj
 0003:00000900       _mbctypes                  0000000180030900     libucrt:mbctype.obj
 0003:00000a10       _mbcasemaps                0000000180030a10     libucrt:mbctype.obj
 0003:00000b10       ?__rgctypeflag@@3PADA      0000000180030b10     libucrt:mbctype.obj
 0003:00000b20       ?__rgcode_page_info@@3PAUcode_page_info@@A 0000000180030b20     libucrt:mbctype.obj
 0003:00000dc0       ?__dcrt_lowio_console_output_handle@@3PEAXEA 0000000180030dc0     libucrt:initcon.obj
 0003:00000dd0       ?dazSupported@?1??_ctrlfp@@9@9 0000000180030dd0     libucrt:fpctrl.obj
 0003:00001020       ?is_initialized_as_dll@@3_NA 0000000180031020     LIBCMT:utility.obj
 0003:00001021       ?module_local_atexit_table_initialized@@3_NA 0000000180031021     LIBCMT:utility.obj
 0003:00001028       ?module_local_atexit_table@@3U_onexit_table_t@@A 0000000180031028     LIBCMT:utility.obj
 0003:00001040       ?module_local_at_quick_exit_table@@3U_onexit_table_t@@A 0000000180031040     LIBCMT:utility.obj
 0003:00001058       ?g_tss_cv@@3U_RTL_CONDITION_VARIABLE@@A 0000000180031058     LIBCMT:thread_safe_statics.obj
 0003:00001060       ?g_tss_event@@3PEAXEA      0000000180031060     LIBCMT:thread_safe_statics.obj
 0003:00001068       ?g_tss_mutex@@3U_RTL_CRITICAL_SECTION@@A 0000000180031068     LIBCMT:thread_safe_statics.obj
 0003:00001090       ?g_sleep_condition_variable_cs@@3P6AHPEAU_RTL_CONDITION_VARIABLE@@PEAU_RTL_CRITICAL_SECTION@@K@ZEA 0000000180031090     LIBCMT:thread_safe_statics.obj
 0003:00001098       ?g_wake_all_condition_variable@@3P6AXPEAU_RTL_CONDITION_VARIABLE@@@ZEA 0000000180031098     LIBCMT:thread_safe_statics.obj
 0003:000010a0       GS_ExceptionRecord         00000001800310a0     LIBCMT:gs_report.obj
 0003:00001140       GS_ContextRecord           0000000180031140     LIBCMT:gs_report.obj
 0003:00001614       ?__proc_attached@@3HA      0000000180031614     LIBCMT:dll_dllmain.obj
 0003:000016a8       ?AllocateData@@3P6APEAUAtlThunkData_t@@XZEA 00000001800316a8     atls:atlthunk.obj
 0003:000016b0       ?InitData@@3P6AXPEAUAtlThunkData_t@@PEAX_K@ZEA 00000001800316b0     atls:atlthunk.obj
 0003:000016b8       ?DataToCode@@3P6AP6A_JPEAUHWND__@@I_K_J@ZPEAUAtlThunkData_t@@@ZEA 00000001800316b8     atls:atlthunk.obj
 0003:000016c0       ?FreeData@@3P6AXPEAUAtlThunkData_t@@@ZEA 00000001800316c0     atls:atlthunk.obj
 0003:000016c8       ?Initialized@@3_NA         00000001800316c8     atls:atlthunk.obj
 0003:000016e0       ?__vcrt_startup_thread_ptd@@3U__vcrt_ptd@@A 00000001800316e0     libvcruntime:per_thread_data.obj
 0003:00001760       __vcrt_lock_table          0000000180031760     libvcruntime:locks.obj
 0003:00001788       __vcrt_locks_initialized   0000000180031788     libvcruntime:locks.obj
 0003:000017d0       ?heap@@3V_HeapManager@@A   00000001800317d0     libvcruntime:undname.obj
 0003:000017f8       ?module_handles@@3PAPEAUHINSTANCE__@@A 00000001800317f8     libvcruntime:winapi_downlevel.obj
 0003:00001810       ?function_pointers@@3PAPEAXA 0000000180031810     libvcruntime:winapi_downlevel.obj
 0003:00001838       ?__acrt_invalid_parameter_handler@@3V?$dual_state_global@P6AXPEB_W00I_K@Z@__crt_state_management@@A 0000000180031838     libucrt:invalid_parameter.obj
 0003:00001840       ?c_termination_complete@@3JA 0000000180031840     libucrt:exit.obj
 0003:00001848       ?thread_local_exit_callback_func@@3P6AXPEAXK0@ZEA 0000000180031848     libucrt:exit.obj
 0003:00001860       ?program_name@?1???$common_configure_argv@D@@YAHW4_crt_argv_mode@@@Z@4PADA 0000000180031860     libucrt:argv_parsing.obj
 0003:000019b8       ?__acrt_new_handler@@3V?$dual_state_global@P6AH_K@Z@__crt_state_management@@A 00000001800319b8     libucrt:new_handler.obj
 0003:000019c0       ?module_handles@@3PAPEAUHINSTANCE__@@A 00000001800319c0     libucrt:winapi_thunks.obj
 0003:00001a60       ?encoded_function_pointers@@3PAPEAXA 0000000180031a60     libucrt:winapi_thunks.obj
 0003:00001b70       ?internal_state@?1??_mbtowc_l@@9@4U_Mbstatet@@A 0000000180031b70     libucrt:mbtowc.obj
 0003:00001b88       ?enable_percent_n@@3_KA    0000000180031b88     libucrt:printf_count_output.obj
 0003:00001fc0       ?__acrt_lock_table@@3PAU_RTL_CRITICAL_SECTION@@A 0000000180031fc0     libucrt:locks.obj
 0003:000021f0       ?__acrt_locks_initialized@@3IA 00000001800321f0     libucrt:locks.obj
 0003:00002210       ?fSystemSet@@3HA           0000000180032210     libucrt:mbctype.obj
 0003:00002214       ?initialized@?1??__acrt_initialize_multibyte@@9@4_NA 0000000180032214     libucrt:mbctype.obj
 0003:00002250       ?ctrlc_action@@3V?$dual_state_global@P6AXH@Z@__crt_state_management@@A 0000000180032250     libucrt:signal.obj
 0003:00002258       ?ctrlbreak_action@@3V?$dual_state_global@P6AXH@Z@__crt_state_management@@A 0000000180032258     libucrt:signal.obj
 0003:00002260       ?abort_action@@3V?$dual_state_global@P6AXH@Z@__crt_state_management@@A 0000000180032260     libucrt:signal.obj
 0003:00002268       ?term_action@@3V?$dual_state_global@P6AXH@Z@__crt_state_management@@A 0000000180032268     libucrt:signal.obj
 0003:00002270       ?user_matherr@@3V?$dual_state_global@P6AHPEAU_exception@@@Z@__crt_state_management@@A 0000000180032270     libucrt:matherr.obj
 0003:00002278       ?__acrt_global_new_mode@@3V?$dual_state_global@J@__crt_state_management@@A 0000000180032278     libucrt:new_mode.obj
 0003:00002288       ?internal_pst@?1??__mbrtoc32_utf8@__crt_mbstring@@YA_KPEA_UPEBD_KPEAU_Mbstatet@@@Z@4U3@A 0000000180032288     libucrt:mbrtoc32.obj
 0003:00002290       ?__acrt_app_type@@3W4_crt_app_type@@A 0000000180032290     libucrt:report_runtime_error.obj
 0004:00000000       $pdata$?cw_memcpy@@YAHPEA_WPEBDH@Z 0000000180033000     CWString.obj
 0004:0000000c       $pdata$?cw_strcpy@@YAHPEA_WPEBD@Z 000000018003300c     CWString.obj
 0004:00000018       $pdata$?cw_dup@@YAXPEBDAEAHAEAPEA_W1@Z 0000000180033018     CWString.obj
 0004:00000024       $pdata$?DupWide@_CW@@AEAAXXZ 0000000180033024     CWString.obj
 0004:00000030       $pdata$?AtlWinModuleTerm@ATL@@YAJPEAU_ATL_WIN_MODULE70@1@PEAUHINSTANCE__@@@Z 0000000180033030     OposVariant.obj
 0004:0000003c       $pdata$??0CAtlComModule@ATL@@QEAA@XZ 000000018003303c     OposVariant.obj
 0004:00000048       $pdata$?Term@CAtlComModule@ATL@@QEAAXXZ 0000000180033048     OposVariant.obj
 0004:00000054       $pdata$??__E_AtlComModule@ATL@@YAXXZ 0000000180033054     OposVariant.obj
 0004:00000060       $pdata$??0CAtlWinModule@ATL@@QEAA@XZ 0000000180033060     OposVariant.obj
 0004:0000006c       $pdata$??__E_AtlWinModule@ATL@@YAXXZ 000000018003306c     OposVariant.obj
 0004:00000078       $pdata$??__F_AtlWinModule@ATL@@YAXXZ 0000000180033078     OposVariant.obj
 0004:00000084       $pdata$??_Estringdispid@CComTypeInfoHolder@ATL@@QEAAPEAXI@Z 0000000180033084     OposVariant.obj
 0004:00000090       $pdata$?SetVARIANT_BOOL@OposVariant@@QEAAXF@Z 0000000180033090     OposVariant.obj
 0004:0000009c       $pdata$?GetLONG@OposVariant@@QEAAJXZ 000000018003309c     OposVariant.obj
 0004:000000a8       $pdata$?ChangeLONG@OposVariant@@QEAAXPEAJAEAJ@Z 00000001800330a8     OposVariant.obj
 0004:000000b4       $pdata$?SetLONG@OposVariant@@QEAAXJ@Z 00000001800330b4     OposVariant.obj
 0004:000000c0       $pdata$?SetLONG_Ptr@OposVariant@@QEAAXPEAJAEAJ@Z 00000001800330c0     OposVariant.obj
 0004:000000cc       $pdata$?ChangeBSTR@OposVariant@@QEAAXPEAPEA_WAEAJ@Z 00000001800330cc     OposVariant.obj
 0004:000000d8       $pdata$?SetBSTR@OposVariant@@QEAAXPEA_WAEAJ@Z 00000001800330d8     OposVariant.obj
 0004:000000e4       $pdata$?SetBSTR_Copy@OposVariant@@QEAAXPEA_WAEAJ@Z 00000001800330e4     OposVariant.obj
 0004:000000f0       $pdata$?SetBSTR_OutPtr@OposVariant@@QEAA_NPEAPEA_WAEAJ@Z 00000001800330f0     OposVariant.obj
 0004:000000fc       $pdata$?SetBSTR_InOutPtr@OposVariant@@QEAA_NPEAPEA_WAEAJ@Z 00000001800330fc     OposVariant.obj
 0004:00000108       $pdata$?SetString@OposVariant@@QEAAXPEB_WAEAJ@Z 0000000180033108     OposVariant.obj
 0004:00000114       $pdata$?SetDispatch_Ptr@OposVariant@@QEAAXPEAUIDispatch@@AEAJ@Z 0000000180033114     OposVariant.obj
 0004:00000120       $pdata$??0OposDispParms@@QEAA@PEAVOposVariant@@H@Z 0000000180033120     OposVariant.obj
 0004:0000012c       $pdata$??1OposDispParms@@QEAA@XZ 000000018003312c     OposVariant.obj
 0004:00000138       $pdata$?AtlThrowImpl@ATL@@YAXJ@Z 0000000180033138     Totals.obj
 0004:00000144       $pdata$swprintf_s          0000000180033144     Totals.obj
 0004:00000150       $pdata$?_AtlVerifyStackAvailable@_ATL_SAFE_ALLOCA_IMPL@ATL@@YA_N_K@Z 0000000180033150     Totals.obj
 0004:0000015c       $pdata$?filt$0@?0??_AtlVerifyStackAvailable@_ATL_SAFE_ALLOCA_IMPL@ATL@@YA_N_K@Z@4HA 000000018003315c     Totals.obj
 0004:00000168       $pdata$?ocscpy_s@@YA_NPEA_W_KPEB_W@Z 0000000180033168     Totals.obj
 0004:00000174       $pdata$?AtlHresultFromLastError@ATL@@YAJXZ 0000000180033174     Totals.obj
 0004:00000180       $pdata$?AtlInternalOleLoadFromStream@ATL@@YAJPEAUIStream@@AEBU_GUID@@PEAPEAXTClassesAllowedInStream@1@K@Z 0000000180033180     Totals.obj
 0004:0000018c       $pdata$?ReadFromStream@CComBSTR@ATL@@QEAAJPEAUIStream@@@Z 000000018003318c     Totals.obj
 0004:00000198       $pdata$?WriteToStream@CComVariant@ATL@@QEAAJPEAUIStream@@@Z 0000000180033198     Totals.obj
 0004:000001a4       $pdata$?WriteToStream@CComVariant@ATL@@QEAAJPEAUIStream@@G@Z 00000001800331a4     Totals.obj
 0004:000001b0       $pdata$?ReadFromStream@CComVariant@ATL@@QEAAJPEAUIStream@@GTClassesAllowedInStream@2@K@Z 00000001800331b0     Totals.obj
 0004:000001bc       $pdata$?GetSizeMax@CComVariant@ATL@@QEBAJPEAT_ULARGE_INTEGER@@@Z 00000001800331bc     Totals.obj
 0004:000001c8       $pdata$?RegCreateKeyExW@CAtlTransactionManager@ATL@@QEAAJPEAUHKEY__@@PEB_WKPEA_WKKQEAU_SECURITY_ATTRIBUTES@@PEAPEAU3@PEAK@Z 00000001800331c8     Totals.obj
 0004:000001d4       $pdata$?RegOpenKeyExW@CAtlTransactionManager@ATL@@QEAAJPEAUHKEY__@@PEB_WKKPEAPEAU3@@Z 00000001800331d4     Totals.obj
 0004:000001e0       $pdata$?RegDeleteKeyW@CAtlTransactionManager@ATL@@QEAAJPEAUHKEY__@@PEB_W@Z 00000001800331e0     Totals.obj
 0004:000001ec       $pdata$?Add@?$CSimpleArray@GV?$CSimpleArrayEqualHelper@G@ATL@@@ATL@@QEAAHAEBG@Z 00000001800331ec     Totals.obj
 0004:000001f8       $pdata$?AtlInternalQueryInterface@ATL@@YAJPEAXPEBU_ATL_INTMAP_ENTRY@1@AEBU_GUID@@PEAPEAX@Z 00000001800331f8     Totals.obj
 0004:00000204       $pdata$?AtlComModuleGetClassObject@ATL@@YAJPEAU_ATL_COM_MODULE70@1@AEBU_GUID@@1PEAPEAX@Z 0000000180033204     Totals.obj
 0004:00000210       $pdata$?AtlRegisterClassCategoriesHelper@ATL@@YAJAEBU_GUID@@PEBU_ATL_CATMAP_ENTRY@1@H@Z 0000000180033210     Totals.obj
 0004:0000021c       $pdata$?AtlLoadTypeLib@ATL@@YAJPEAUHINSTANCE__@@PEB_WPEAPEA_WPEAPEAUITypeLib@@@Z 000000018003321c     Totals.obj
 0004:00000228       $pdata$?AtlRegisterTypeLib@ATL@@YAJPEAUHINSTANCE__@@PEB_W@Z 0000000180033228     Totals.obj
 0004:00000234       $pdata$?AtlUnRegisterTypeLib@ATL@@YAJPEAUHINSTANCE__@@PEB_W@Z 0000000180033234     Totals.obj
 0004:00000240       $pdata$?AtlComModuleRegisterServer@ATL@@YAJPEAU_ATL_COM_MODULE70@1@HPEBU_GUID@@@Z 0000000180033240     Totals.obj
 0004:0000024c       $pdata$?AtlComModuleUnregisterServer@ATL@@YAJPEAU_ATL_COM_MODULE70@1@HPEBU_GUID@@@Z 000000018003324c     Totals.obj
 0004:00000258       $pdata$?AtlWinModuleExtractCreateWndData@ATL@@YAPEAXPEAU_ATL_WIN_MODULE70@1@@Z 0000000180033258     Totals.obj
 0004:00000264       $pdata$?DeleteSubKey@CRegKey@ATL@@QEAAJPEB_W@Z 0000000180033264     Totals.obj
 0004:00000270       $pdata$?RecurseDeleteKey@CRegKey@ATL@@QEAAJPEB_W@Z 0000000180033270     Totals.obj
 0004:0000027c       $pdata$??0CAtlModule@ATL@@QEAA@XZ 000000018003327c     Totals.obj
 0004:00000288       $pdata$?Term@CAtlModule@ATL@@QEAAXXZ 0000000180033288     Totals.obj
 0004:00000294       $pdata$?AddTermFunc@CAtlModule@ATL@@QEAAJP6AX_K@Z0@Z 0000000180033294     Totals.obj
 0004:000002a0       $pdata$?GetGITPtr@CAtlModule@ATL@@UEAAJPEAPEAUIGlobalInterfaceTable@@@Z 00000001800332a0     Totals.obj
 0004:000002ac       $pdata$?UpdateRegistryFromResource@CAtlModule@ATL@@QEAAJPEB_WHPEAU_ATL_REGMAP_ENTRY@2@@Z 00000001800332ac     Totals.obj
 0004:000002b8       $pdata$?UpdateRegistryFromResource@CAtlModule@ATL@@QEAAJIHPEAU_ATL_REGMAP_ENTRY@2@@Z 00000001800332b8     Totals.obj
 0004:000002c4       $pdata$?Term@CComModule@ATL@@QEAAXXZ 00000001800332c4     Totals.obj
 0004:000002d0       $pdata$?GetClassObject@CComModule@ATL@@QEAAJAEBU_GUID@@0PEAPEAX@Z 00000001800332d0     Totals.obj
 0004:000002dc       $pdata$?RegisterServer@CComModule@ATL@@QEAAJHPEBU_GUID@@@Z 00000001800332dc     Totals.obj
 0004:000002e8       $pdata$?UnregisterServer@CComModule@ATL@@QEAAJHPEBU_GUID@@@Z 00000001800332e8     Totals.obj
 0004:000002f4       $pdata$??_GCComModule@ATL@@UEAAPEAXI@Z 00000001800332f4     Totals.obj
 0004:00000300       $pdata$?Add@?$CSimpleMap@PEA_WPEA_WVCExpansionVectorEqualHelper@ATL@@@ATL@@QEAAHAEBQEA_W0@Z 0000000180033300     Totals.obj
 0004:0000030c       $pdata$?Lookup@?$CSimpleMap@PEA_WPEA_WVCExpansionVectorEqualHelper@ATL@@@ATL@@QEBAPEA_WAEBQEA_W@Z 000000018003330c     Totals.obj
 0004:00000318       $pdata$?Add@CExpansionVector@ATL@@QEAAHPEB_W0@Z 0000000180033318     Totals.obj
 0004:00000324       $pdata$?ClearReplacements@CExpansionVector@ATL@@QEAAJXZ 0000000180033324     Totals.obj
 0004:00000330       $pdata$?PreProcessBuffer@CRegParser@ATL@@QEAAJPEA_WPEAPEA_W@Z 0000000180033330     Totals.obj
 0004:0000033c       $pdata$?RegisterBuffer@CRegParser@ATL@@QEAAJPEA_WH@Z 000000018003333c     Totals.obj
 0004:00000348       $pdata$?NextToken@CRegParser@ATL@@IEAAJPEA_W@Z 0000000180033348     Totals.obj
 0004:00000354       $pdata$?AddValue@CRegParser@ATL@@IEAAJAEAVCRegKey@2@PEB_WPEA_W@Z 0000000180033354     Totals.obj
 0004:00000360       $pdata$?RegisterSubkeys@CRegParser@ATL@@IEAAJPEA_WPEAUHKEY__@@HH@Z 0000000180033360     Totals.obj
 0004:0000036c       $pdata$?SkipAssignment@CRegParser@ATL@@IEAAJPEA_W@Z 000000018003336c     Totals.obj
 0004:00000378       $pdata$?HKeyFromString@CRegParser@ATL@@KAPEAUHKEY__@@PEA_W@Z 0000000180033378     Totals.obj
 0004:00000384       $pdata$?VTFromRegType@CRegParser@ATL@@KAHPEB_WAEAG@Z 0000000180033384     Totals.obj
 0004:00000390       $pdata$?Append@CParseBuffer@CRegParser@ATL@@QEAAHPEB_WH@Z 0000000180033390     Totals.obj
 0004:0000039c       $pdata$?AddReplacement@CRegObject@ATL@@UEAAJPEB_W0@Z 000000018003339c     Totals.obj
 0004:000003a8       $pdata$?RegisterFromResource@CRegObject@ATL@@IEAAJPEB_W00H@Z 00000001800333a8     Totals.obj
 0004:000003b4       $pdata$??_GCRegObject@ATL@@UEAAPEAXI@Z 00000001800333b4     Totals.obj
 0004:000003c0       $pdata$?AllocateHeap@?$CTempBuffer@E$0BAA@VCCRTAllocator@ATL@@@ATL@@AEAAX_K@Z 00000001800333c0     Totals.obj
 0004:000003c0       $pdata$?AllocateHeap@?$CTempBuffer@_W$0BAA@VCCRTAllocator@ATL@@@ATL@@AEAAX_K@Z 00000001800333c0     Totals.obj
 0004:000003c0       $pdata$?AllocateHeap@?$CTempBuffer@_W$0EAA@VCCRTAllocator@ATL@@@ATL@@AEAAX_K@Z 00000001800333c0     Totals.obj
 0004:000003cc       $pdata$?CreateInstance@CComClassFactory@ATL@@UEAAJPEAUIUnknown@@AEBU_GUID@@PEAPEAX@Z 00000001800333cc     Totals.obj
 0004:000003d8       $pdata$?LockServer@CComClassFactory@ATL@@UEAAJH@Z 00000001800333d8     Totals.obj
 0004:000003e4       $pdata$??_GCComClassFactory@ATL@@UEAAPEAXI@Z 00000001800333e4     Totals.obj
 0004:000003f0       $pdata$?GetTI@CComTypeInfoHolder@ATL@@QEAAJK@Z 00000001800333f0     Totals.obj
 0004:000003fc       $pdata$?Cleanup@CComTypeInfoHolder@ATL@@SAX_K@Z 00000001800333fc     Totals.obj
 0004:00000408       $pdata$?GetIDsOfNames@CComTypeInfoHolder@ATL@@QEAAJAEBU_GUID@@PEAPEA_WIKPEAJ@Z 0000000180033408     Totals.obj
 0004:00000414       $pdata$?LoadNameCache@CComTypeInfoHolder@ATL@@QEAAJPEAUITypeInfo@@@Z 0000000180033414     Totals.obj
 0004:00000420       $pdata$?Add@CComDynamicUnkArray@ATL@@QEAAKPEAUIUnknown@@@Z 0000000180033420     Totals.obj
 0004:0000042c       $pdata$?AtlHiMetricToPixel@ATL@@YAXPEBUtagSIZE@@PEAU2@@Z 000000018003342c     Totals.obj
 0004:00000438       $pdata$?DefaultReflectionHandler@?$CWindowImplRoot@VCWindow@ATL@@@ATL@@SAHPEAUHWND__@@I_K_JAEA_J@Z 0000000180033438     Totals.obj
 0004:00000444       $pdata$?StartWindowProc@?$CWindowImplBaseT@VCWindow@ATL@@V?$CWinTraits@$0FGAAAAAA@$0A@@2@@ATL@@SA_JPEAUHWND__@@I_K_J@Z 0000000180033444     Totals.obj
 0004:00000450       $pdata$?WindowProc@?$CWindowImplBaseT@VCWindow@ATL@@V?$CWinTraits@$0FGAAAAAA@$0A@@2@@ATL@@SA_JPEAUHWND__@@I_K_J@Z 0000000180033450     Totals.obj
 0004:0000045c       $pdata$?atlCreate@?$CWindowImplBaseT@VCWindow@ATL@@V?$CWinTraits@$0FGAAAAAA@$0A@@2@@ATL@@QEAAPEAUHWND__@@PEAU3@V_U_RECT@2@PEB_WKKV_U_MENUorID@2@GPEAX@Z 000000018003345c     Totals.obj
 0004:00000468       $pdata$?IsEqualObject@?$CComPtrBase@UIOleClientSite@@@ATL@@QEAA_NPEAUIUnknown@@@Z 0000000180033468     Totals.obj
 0004:00000474       $pdata$??$AtlModuleRegisterWndClassInfoT@VAtlModuleRegisterWndClassInfoParamW@ATL@@@ATL@@YAGPEAU_ATL_BASE_MODULE70@0@PEAU_ATL_WIN_MODULE70@0@PEAU_ATL_WNDCLASSINFOW@0@PEAP6A_JPEAUHWND__@@I_K_J@ZVAtlModuleRegisterWndClassInfoParamW@0@@Z 0000000180033474     Totals.obj
 0004:00000480       $pdata$?GetZoomInfo@CComControlBase@ATL@@QEAAXAEAUATL_DRAWINFO@@@Z 0000000180033480     Totals.obj
 0004:0000048c       $pdata$?SendOnDataChange@CComControlBase@ATL@@QEAAJK@Z 000000018003348c     Totals.obj
 0004:00000498       $pdata$?OnSetFocus@CComControlBase@ATL@@QEAA_JI_K_JAEAH@Z 0000000180033498     Totals.obj
 0004:000004a4       $pdata$?OnKillFocus@CComControlBase@ATL@@QEAA_JI_K_JAEAH@Z 00000001800334a4     Totals.obj
 0004:000004b0       $pdata$?OnMouseActivate@CComControlBase@ATL@@QEAA_JI_K_JAEAH@Z 00000001800334b0     Totals.obj
 0004:000004bc       $pdata$?GetAmbientLocaleID@CComControlBase@ATL@@QEAAJAEAK@Z 00000001800334bc     Totals.obj
 0004:000004c8       $pdata$?GetAmbientUserMode@CComControlBase@ATL@@QEAAJAEAH@Z 00000001800334c8     Totals.obj
 0004:000004d4       $pdata$?SetControlFocus@CComControlBase@ATL@@QEAAHH@Z 00000001800334d4     Totals.obj
 0004:000004e0       $pdata$?IQuickActivate_QuickActivate@CComControlBase@ATL@@QEAAJPEAUtagQACONTAINER@@PEAUtagQACONTROL@@@Z 00000001800334e0     Totals.obj
 0004:000004ec       $pdata$?DoVerbProperties@CComControlBase@ATL@@QEAAJPEBUtagRECT@@PEAUHWND__@@@Z 00000001800334ec     Totals.obj
 0004:000004f8       $pdata$?InPlaceActivate@CComControlBase@ATL@@QEAAJJPEBUtagRECT@@@Z 00000001800334f8     Totals.obj
 0004:00000504       $pdata$?IOleObject_SetClientSite@CComControlBase@ATL@@QEAAJPEAUIOleClientSite@@@Z 0000000180033504     Totals.obj
 0004:00000510       $pdata$?IOleObject_Close@CComControlBase@ATL@@QEAAJK@Z 0000000180033510     Totals.obj
 0004:0000051c       $pdata$?IOleObject_SetExtent@CComControlBase@ATL@@QEAAJKPEAUtagSIZE@@@Z 000000018003351c     Totals.obj
 0004:00000528       $pdata$?IOleInPlaceObject_InPlaceDeactivate@CComControlBase@ATL@@QEAAJXZ 0000000180033528     Totals.obj
 0004:00000534       $pdata$?IOleInPlaceObject_UIDeactivate@CComControlBase@ATL@@QEAAJXZ 0000000180033534     Totals.obj
 0004:00000540       $pdata$?IOleInPlaceObject_SetObjectRects@CComControlBase@ATL@@QEAAJPEBUtagRECT@@0@Z 0000000180033540     Totals.obj
 0004:0000054c       $pdata$?IViewObject_Draw@CComControlBase@ATL@@QEAAJKJPEAXPEAUtagDVTARGETDEVICE@@PEAUHDC__@@2PEBU_RECTL@@3@Z 000000018003354c     Totals.obj
 0004:00000558       $pdata$?IDataObject_GetData@CComControlBase@ATL@@QEAAJPEAUtagFORMATETC@@PEAUtagSTGMEDIUM@@@Z 0000000180033558     Totals.obj
 0004:00000564       $pdata$?FireViewChange@CComControlBase@ATL@@QEAAJXZ 0000000180033564     Totals.obj
 0004:00000570       $pdata$?OnPaint@CComControlBase@ATL@@QEAA_JI_K_JAEAH@Z 0000000180033570     Totals.obj
 0004:0000057c       $pdata$?OnDrawAdvanced@CComControlBase@ATL@@UEAAJAEAUATL_DRAWINFO@@@Z 000000018003357c     Totals.obj
 0004:00000588       $pdata$?GetTypeInfo@?$IDispatchImpl@UIOPOSTotals@@$1?IID_IOPOSTotals@@3U_GUID@@B$1?LIBID_OposTotals_CCO@@3U3@B$00$0A@VCComTypeInfoHolder@ATL@@@ATL@@UEAAJIKPEAPEAUITypeInfo@@@Z 0000000180033588     Totals.obj
 0004:00000594       $pdata$?Invoke@?$IDispatchImpl@UIOPOSTotals@@$1?IID_IOPOSTotals@@3U_GUID@@B$1?LIBID_OposTotals_CCO@@3U3@B$00$0A@VCComTypeInfoHolder@ATL@@@ATL@@UEAAJJAEBU_GUID@@KGPEAUtagDISPPARAMS@@PEAUtagVARIANT@@PEAUtagEXCEPINFO@@PEAI@Z 0000000180033594     Totals.obj
 0004:000005a0       $pdata$?atlCreate@?$CWindowImpl@VCOPOSTotals@@VCWindow@ATL@@V?$CWinTraits@$0FGAAAAAA@$0A@@3@@ATL@@QEAAPEAUHWND__@@PEAU3@V_U_RECT@2@PEB_WKKV_U_MENUorID@2@PEAX@Z 00000001800335a0     Totals.obj
 0004:000005ac       $pdata$?CreateControlWindow@?$CComControl@VCOPOSTotals@@V?$CWindowImpl@VCOPOSTotals@@VCWindow@ATL@@V?$CWinTraits@$0FGAAAAAA@$0A@@3@@ATL@@@ATL@@UEAAPEAUHWND__@@PEAU3@AEAUtagRECT@@@Z 00000001800335ac     Totals.obj
 0004:000005b8       $pdata$?ProcessWindowMessage@?$CComControl@VCOPOSTotals@@V?$CWindowImpl@VCOPOSTotals@@VCWindow@ATL@@V?$CWinTraits@$0FGAAAAAA@$0A@@3@@ATL@@@ATL@@UEAAHPEAUHWND__@@I_K_JAEA_JK@Z 00000001800335b8     Totals.obj
 0004:000005c4       $pdata$?GetSizeMax@?$IPersistStreamInitImpl@VCOPOSTotals@@@ATL@@UEAAJPEAT_ULARGE_INTEGER@@@Z 00000001800335c4     Totals.obj
 0004:000005d0       $pdata$?IPersistStreamInit_Load@?$IPersistStreamInitImpl@VCOPOSTotals@@@ATL@@QEAAJPEAUIStream@@PEBUATL_PROPMAP_ENTRY@2@@Z 00000001800335d0     Totals.obj
 0004:000005dc       $pdata$?IPersistStreamInit_Save@?$IPersistStreamInitImpl@VCOPOSTotals@@@ATL@@QEAAJPEAUIStream@@HPEBUATL_PROPMAP_ENTRY@2@@Z 00000001800335dc     Totals.obj
 0004:000005e8       $pdata$?GetClientSite@?$IOleObjectImpl@VCOPOSTotals@@@ATL@@UEAAJPEAPEAUIOleClientSite@@@Z 00000001800335e8     Totals.obj
 0004:000005f4       $pdata$?DoVerbPrimary@?$IOleObjectImpl@VCOPOSTotals@@@ATL@@QEAAJPEBUtagRECT@@PEAUHWND__@@@Z 00000001800335f4     Totals.obj
 0004:00000600       $pdata$?DoVerb@?$IOleObjectImpl@VCOPOSTotals@@@ATL@@UEAAJJPEAUtagMSG@@PEAUIOleClientSite@@JPEAUHWND__@@PEBUtagRECT@@@Z 0000000180033600     Totals.obj
 0004:0000060c       $pdata$?Advise@?$IOleObjectImpl@VCOPOSTotals@@@ATL@@UEAAJPEAUIAdviseSink@@PEAK@Z 000000018003360c     Totals.obj
 0004:00000618       $pdata$?Unadvise@?$IOleObjectImpl@VCOPOSTotals@@@ATL@@UEAAJK@Z 0000000180033618     Totals.obj
 0004:00000624       $pdata$?EnumAdvise@?$IOleObjectImpl@VCOPOSTotals@@@ATL@@UEAAJPEAPEAUIEnumSTATDATA@@@Z 0000000180033624     Totals.obj
 0004:00000630       $pdata$?TranslateAcceleratorW@?$IOleInPlaceActiveObjectImpl@VCOPOSTotals@@@ATL@@UEAAJPEAUtagMSG@@@Z 0000000180033630     Totals.obj
 0004:0000063c       $pdata$?OnDocWindowActivate@?$IOleInPlaceActiveObjectImpl@VCOPOSTotals@@@ATL@@UEAAJH@Z 000000018003363c     Totals.obj
 0004:00000648       $pdata$?Draw@?$IViewObjectExImpl@VCOPOSTotals@@@ATL@@UEAAJKJPEAXPEAUtagDVTARGETDEVICE@@PEAUHDC__@@2PEBU_RECTL@@3P6AH_K@Z4@Z 0000000180033648     Totals.obj
 0004:00000654       $pdata$?SetAdvise@?$IViewObjectExImpl@VCOPOSTotals@@@ATL@@UEAAJKKPEAUIAdviseSink@@@Z 0000000180033654     Totals.obj
 0004:00000660       $pdata$?GetAdvise@?$IViewObjectExImpl@VCOPOSTotals@@@ATL@@UEAAJPEAK0PEAPEAUIAdviseSink@@@Z 0000000180033660     Totals.obj
 0004:0000066c       $pdata$?QueryHitPoint@?$IViewObjectExImpl@VCOPOSTotals@@@ATL@@UEAAJKPEBUtagRECT@@UtagPOINT@@JPEAK@Z 000000018003366c     Totals.obj
 0004:00000678       $pdata$?QueryHitRect@?$IViewObjectExImpl@VCOPOSTotals@@@ATL@@UEAAJKPEBUtagRECT@@0JPEAK@Z 0000000180033678     Totals.obj
 0004:00000684       $pdata$?OnWindowMessage@?$IOleInPlaceObjectWindowlessImpl@VCOPOSTotals@@@ATL@@UEAAJI_K_JPEA_J@Z 0000000180033684     Totals.obj
 0004:00000690       $pdata$?EnumConnectionPoints@?$IConnectionPointContainerImpl@VCOPOSTotals@@@ATL@@UEAAJPEAPEAUIEnumConnectionPoints@@@Z 0000000180033690     Totals.obj
 0004:0000069c       $pdata$?FindConnectionPoint@?$IConnectionPointContainerImpl@VCOPOSTotals@@@ATL@@UEAAJAEBU_GUID@@PEAPEAUIConnectionPoint@@@Z 000000018003369c     Totals.obj
 0004:000006a8       $pdata$?IsDirty@?$IPersistStorageImpl@VCOPOSTotals@@@ATL@@UEAAJXZ 00000001800336a8     Totals.obj
 0004:000006b4       $pdata$?InitNew@?$IPersistStorageImpl@VCOPOSTotals@@@ATL@@UEAAJPEAUIStorage@@@Z 00000001800336b4     Totals.obj
 0004:000006c0       $pdata$?Load@?$IPersistStorageImpl@VCOPOSTotals@@@ATL@@UEAAJPEAUIStorage@@@Z 00000001800336c0     Totals.obj
 0004:000006cc       $pdata$?Save@?$IPersistStorageImpl@VCOPOSTotals@@@ATL@@UEAAJPEAUIStorage@@H@Z 00000001800336cc     Totals.obj
 0004:000006d8       $pdata$?IPSI_GetIPersistStreamInit@?$IPersistStorageImpl@VCOPOSTotals@@@ATL@@AEAAPEAUIPersistStreamInit@@XZ 00000001800336d8     Totals.obj
 0004:000006e4       $pdata$?GetPagesHelper@?$ISpecifyPropertyPagesImpl@VCOPOSTotals@@@ATL@@IEAAJPEAUtagCAUUID@@PEBUATL_PROPMAP_ENTRY@2@@Z 00000001800336e4     Totals.obj
 0004:000006f0       $pdata$?DAdvise@?$IDataObjectImpl@VCOPOSTotals@@@ATL@@UEAAJPEAUtagFORMATETC@@KPEAUIAdviseSink@@PEAK@Z 00000001800336f0     Totals.obj
 0004:000006fc       $pdata$?GetClassInfoW@?$IProvideClassInfo2Impl@$1?CLSID_OPOSTotals@@3U_GUID@@B$1?DIID__IOPOSTotalsEvents@@3U2@B$1?LIBID_OposTotals_CCO@@3U2@B$00$0A@VCComTypeInfoHolder@ATL@@@ATL@@UEAAJPEAPEAUITypeInfo@@@Z 00000001800336fc     Totals.obj
 0004:00000708       $pdata$?GetInterfaceSafetyOptions@?$IObjectSafetyImpl@VCOPOSTotals@@$02@ATL@@UEAAJAEBU_GUID@@PEAK1@Z 0000000180033708     Totals.obj
 0004:00000714       $pdata$?SetInterfaceSafetyOptions@?$IObjectSafetyImpl@VCOPOSTotals@@$02@ATL@@UEAAJAEBU_GUID@@KK@Z 0000000180033714     Totals.obj
 0004:00000720       $pdata$?_LocCPQueryInterface@?$IConnectionPointImpl@VCOPOSTotals@@$1?DIID__IOPOSTotalsEvents@@3U_GUID@@BVCComDynamicUnkArray@ATL@@@ATL@@UEAAJAEBU_GUID@@PEAPEAX@Z 0000000180033720     Totals.obj
 0004:00000720       $pdata$?_LocCPQueryInterface@?$IConnectionPointImpl@VCOPOSTotals@@$1?IID_IPropertyNotifySink@@3U_GUID@@BVCComDynamicUnkArray@ATL@@@ATL@@UEAAJAEBU_GUID@@PEAPEAX@Z 0000000180033720     Totals.obj
 0004:0000072c       $pdata$?Advise@?$IConnectionPointImpl@VCOPOSTotals@@$1?DIID__IOPOSTotalsEvents@@3U_GUID@@BVCComDynamicUnkArray@ATL@@@ATL@@UEAAJPEAUIUnknown@@PEAK@Z 000000018003372c     Totals.obj
 0004:0000072c       $pdata$?Advise@?$IConnectionPointImpl@VCOPOSTotals@@$1?IID_IPropertyNotifySink@@3U_GUID@@BVCComDynamicUnkArray@ATL@@@ATL@@UEAAJPEAUIUnknown@@PEAK@Z 000000018003372c     Totals.obj
 0004:00000738       $pdata$?Unadvise@?$IConnectionPointImpl@VCOPOSTotals@@$1?DIID__IOPOSTotalsEvents@@3U_GUID@@BVCComDynamicUnkArray@ATL@@@ATL@@UEAAJK@Z 0000000180033738     Totals.obj
 0004:00000738       $pdata$?Unadvise@?$IConnectionPointImpl@VCOPOSTotals@@$1?IID_IPropertyNotifySink@@3U_GUID@@BVCComDynamicUnkArray@ATL@@@ATL@@UEAAJK@Z 0000000180033738     Totals.obj
 0004:00000744       $pdata$?EnumConnections@?$IConnectionPointImpl@VCOPOSTotals@@$1?DIID__IOPOSTotalsEvents@@3U_GUID@@BVCComDynamicUnkArray@ATL@@@ATL@@UEAAJPEAPEAUIEnumConnections@@@Z 0000000180033744     Totals.obj
 0004:00000744       $pdata$?EnumConnections@?$IConnectionPointImpl@VCOPOSTotals@@$1?IID_IPropertyNotifySink@@3U_GUID@@BVCComDynamicUnkArray@ATL@@@ATL@@UEAAJPEAPEAUIEnumConnections@@@Z 0000000180033744     Totals.obj
 0004:00000750       $pdata$?Fire_DirectIOEvent@?$CProxy_IOPOSEvents@VCOPOSTotals@@@@QEAAXJPEAJPEAPEA_W@Z 0000000180033750     Totals.obj
 0004:0000075c       $pdata$?Fire_StatusUpdateEvent@?$CProxy_IOPOSEvents@VCOPOSTotals@@@@QEAAXJ@Z 000000018003375c     Totals.obj
 0004:00000768       $pdata$?FireTheEvent@?$CProxy_IOPOSEvents@VCOPOSTotals@@@@IEAAXPEAVOposVariant@@IAEAJPEB_WJ@Z 0000000180033768     Totals.obj
 0004:00000774       $pdata$?GetConnMap@COPOSTotals@@SAPEBU_ATL_CONNMAP_ENTRY@ATL@@PEAH@Z 0000000180033774     Totals.obj
 0004:00000780       $pdata$?ProcessWindowMessage@COPOSTotals@@UEAAHPEAUHWND__@@I_K_JAEA_JK@Z 0000000180033780     Totals.obj
 0004:0000078c       $pdata$?SODirectIO@COPOSTotals@@MEAAJJPEAJPEAPEA_W@Z 000000018003378c     Totals.obj
 0004:00000798       $pdata$?SOStatusUpdate@COPOSTotals@@MEAAJJ@Z 0000000180033798     Totals.obj
 0004:000007a4       $pdata$?DoEvent@COPOSTotals@@IEAAXI_K_J@Z 00000001800337a4     Totals.obj
 0004:000007b0       $pdata$??__E_Module@@YAXXZ 00000001800337b0     Totals.obj
 0004:000007bc       $pdata$?CreateInstance@?$CComCreator@V?$CComObjectCached@VCComClassFactory@ATL@@@ATL@@@ATL@@SAJPEAXAEBU_GUID@@PEAPEAX@Z 00000001800337bc     Totals.obj
 0004:000007c8       $pdata$DllMain             00000001800337c8     Totals.obj
 0004:000007d4       $pdata$?CreateInstance@?$CComCreator@V?$CComObject@VCOPOSTotals@@@ATL@@@ATL@@SAJPEAXAEBU_GUID@@PEAPEAX@Z 00000001800337d4     Totals.obj
 0004:000007e0       $pdata$?CreateInstance@?$CComCreator@V?$CComAggObject@VCOPOSTotals@@@ATL@@@ATL@@SAJPEAXAEBU_GUID@@PEAPEAX@Z 00000001800337e0     Totals.obj
 0004:000007ec       $pdata$?AddRef@?$CComObjectCached@VCComClassFactory@ATL@@@ATL@@UEAAKXZ 00000001800337ec     Totals.obj
 0004:000007f8       $pdata$?Release@?$CComObjectCached@VCComClassFactory@ATL@@@ATL@@UEAAKXZ 00000001800337f8     Totals.obj
 0004:00000804       $pdata$??_G?$CComObjectCached@VCComClassFactory@ATL@@@ATL@@UEAAPEAXI@Z 0000000180033804     Totals.obj
 0004:00000810       $pdata$??1?$CComEnumImpl@UIEnumConnectionPoints@@$1?_GUID_b196b285_bab4_101a_b69c_00aa00341d07@@3U__s_GUID@@BPEAUIConnectionPoint@@V?$_CopyInterface@UIConnectionPoint@@@ATL@@@ATL@@UEAA@XZ 0000000180033810     Totals.obj
 0004:0000081c       $pdata$?Next@?$CComEnumImpl@UIEnumConnectionPoints@@$1?_GUID_b196b285_bab4_101a_b69c_00aa00341d07@@3U__s_GUID@@BPEAUIConnectionPoint@@V?$_CopyInterface@UIConnectionPoint@@@ATL@@@ATL@@UEAAJKPEAPEAUIConnectionPoint@@PEAK@Z 000000018003381c     Totals.obj
 0004:00000828       $pdata$?Clone@?$CComEnumImpl@UIEnumConnectionPoints@@$1?_GUID_b196b285_bab4_101a_b69c_00aa00341d07@@3U__s_GUID@@BPEAUIConnectionPoint@@V?$_CopyInterface@UIConnectionPoint@@@ATL@@@ATL@@UEAAJPEAPEAUIEnumConnectionPoints@@@Z 0000000180033828     Totals.obj
 0004:00000834       $pdata$?Init@?$CComEnumImpl@UIEnumConnectionPoints@@$1?_GUID_b196b285_bab4_101a_b69c_00aa00341d07@@3U__s_GUID@@BPEAUIConnectionPoint@@V?$_CopyInterface@UIConnectionPoint@@@ATL@@@ATL@@QEAAJPEAPEAUIConnectionPoint@@0PEAUIUnknown@@W4CComEnumFlags@2@@Z 0000000180033834     Totals.obj
 0004:00000840       $pdata$?Release@?$CComObject@V?$CComEnum@UIEnumConnectionPoints@@$1?_GUID_b196b285_bab4_101a_b69c_00aa00341d07@@3U__s_GUID@@BPEAUIConnectionPoint@@V?$_CopyInterface@UIConnectionPoint@@@ATL@@VCComSingleThreadModel@6@@ATL@@@ATL@@UEAAKXZ 0000000180033840     Totals.obj
 0004:00000840       $pdata$?Release@?$CComObject@V?$CComEnum@UIEnumConnections@@$1?_GUID_b196b287_bab4_101a_b69c_00aa00341d07@@3U__s_GUID@@BUtagCONNECTDATA@@V?$_Copy@UtagCONNECTDATA@@@ATL@@VCComSingleThreadModel@6@@ATL@@@ATL@@UEAAKXZ 0000000180033840     Totals.obj
 0004:0000084c       $pdata$?CreateInstance@?$CComObject@V?$CComEnum@UIEnumConnectionPoints@@$1?_GUID_b196b285_bab4_101a_b69c_00aa00341d07@@3U__s_GUID@@BPEAUIConnectionPoint@@V?$_CopyInterface@UIConnectionPoint@@@ATL@@VCComSingleThreadModel@6@@ATL@@@ATL@@SAJPEAPEAV12@@Z 000000018003384c     Totals.obj
 0004:00000858       $pdata$??_G?$CComObject@V?$CComEnum@UIEnumConnectionPoints@@$1?_GUID_b196b285_bab4_101a_b69c_00aa00341d07@@3U__s_GUID@@BPEAUIConnectionPoint@@V?$_CopyInterface@UIConnectionPoint@@@ATL@@VCComSingleThreadModel@6@@ATL@@@ATL@@UEAAPEAXI@Z 0000000180033858     Totals.obj
 0004:00000864       $pdata$?Release@?$CComAggObject@VCOPOSTotals@@@ATL@@UEAAKXZ 0000000180033864     Totals.obj
 0004:00000870       $pdata$?QueryInterface@?$CComAggObject@VCOPOSTotals@@@ATL@@UEAAJAEBU_GUID@@PEAPEAX@Z 0000000180033870     Totals.obj
 0004:0000087c       $pdata$??0?$CComContainedObject@VCOPOSTotals@@@ATL@@QEAA@PEAX@Z 000000018003387c     Totals.obj
 0004:00000888       $pdata$??_G?$CComContainedObject@VCOPOSTotals@@@ATL@@UEAAPEAXI@Z 0000000180033888     Totals.obj
 0004:00000894       $pdata$??_G?$CComAggObject@VCOPOSTotals@@@ATL@@UEAAPEAXI@Z 0000000180033894     Totals.obj
 0004:000008a0       $pdata$??0?$CComObject@VCOPOSTotals@@@ATL@@QEAA@PEAX@Z 00000001800338a0     Totals.obj
 0004:000008ac       $pdata$??1?$CComObject@VCOPOSTotals@@@ATL@@UEAA@XZ 00000001800338ac     Totals.obj
 0004:000008b8       $pdata$?Release@?$CComObject@VCOPOSTotals@@@ATL@@UEAAKXZ 00000001800338b8     Totals.obj
 0004:000008c4       $pdata$??_G?$CComObject@VCOPOSTotals@@@ATL@@UEAAPEAXI@Z 00000001800338c4     Totals.obj
 0004:000008d0       $pdata$??__E?pConnMap@?$IConnectionPointContainerImpl@VCOPOSTotals@@@ATL@@0PEBU_ATL_CONNMAP_ENTRY@2@EB@@YAXXZ 00000001800338d0     Totals.obj
 0004:000008dc       $pdata$??1?$CComEnumImpl@UIEnumConnections@@$1?_GUID_b196b287_bab4_101a_b69c_00aa00341d07@@3U__s_GUID@@BUtagCONNECTDATA@@V?$_Copy@UtagCONNECTDATA@@@ATL@@@ATL@@UEAA@XZ 00000001800338dc     Totals.obj
 0004:000008e8       $pdata$?Next@?$CComEnumImpl@UIEnumConnections@@$1?_GUID_b196b287_bab4_101a_b69c_00aa00341d07@@3U__s_GUID@@BUtagCONNECTDATA@@V?$_Copy@UtagCONNECTDATA@@@ATL@@@ATL@@UEAAJKPEAUtagCONNECTDATA@@PEAK@Z 00000001800338e8     Totals.obj
 0004:000008f4       $pdata$?Clone@?$CComEnumImpl@UIEnumConnections@@$1?_GUID_b196b287_bab4_101a_b69c_00aa00341d07@@3U__s_GUID@@BUtagCONNECTDATA@@V?$_Copy@UtagCONNECTDATA@@@ATL@@@ATL@@UEAAJPEAPEAUIEnumConnections@@@Z 00000001800338f4     Totals.obj
 0004:00000900       $pdata$?Init@?$CComEnumImpl@UIEnumConnections@@$1?_GUID_b196b287_bab4_101a_b69c_00aa00341d07@@3U__s_GUID@@BUtagCONNECTDATA@@V?$_Copy@UtagCONNECTDATA@@@ATL@@@ATL@@QEAAJPEAUtagCONNECTDATA@@0PEAUIUnknown@@W4CComEnumFlags@2@@Z 0000000180033900     Totals.obj
 0004:0000090c       $pdata$?CreateInstance@?$CComObject@V?$CComEnum@UIEnumConnections@@$1?_GUID_b196b287_bab4_101a_b69c_00aa00341d07@@3U__s_GUID@@BUtagCONNECTDATA@@V?$_Copy@UtagCONNECTDATA@@@ATL@@VCComSingleThreadModel@6@@ATL@@@ATL@@SAJPEAPEAV12@@Z 000000018003390c     Totals.obj
 0004:00000918       $pdata$??_G?$CComObject@V?$CComEnum@UIEnumConnections@@$1?_GUID_b196b287_bab4_101a_b69c_00aa00341d07@@3U__s_GUID@@BUtagCONNECTDATA@@V?$_Copy@UtagCONNECTDATA@@@ATL@@VCComSingleThreadModel@6@@ATL@@@ATL@@UEAAPEAXI@Z 0000000180033918     Totals.obj
 0004:00000924       $pdata$??1CComControlBase@ATL@@UEAA@XZ 0000000180033924     TotalsImpl.obj
 0004:00000930       $pdata$??1?$IConnectionPointImpl@VCOPOSTotals@@$1?DIID__IOPOSTotalsEvents@@3U_GUID@@BVCComDynamicUnkArray@ATL@@@ATL@@QEAA@XZ 0000000180033930     TotalsImpl.obj
 0004:00000930       $pdata$??1?$IConnectionPointImpl@VCOPOSTotals@@$1?IID_IPropertyNotifySink@@3U_GUID@@BVCComDynamicUnkArray@ATL@@@ATL@@QEAA@XZ 0000000180033930     TotalsImpl.obj
 0004:0000093c       $pdata$?FinalConstruct@COPOSTotals@@QEAAJXZ 000000018003393c     TotalsImpl.obj
 0004:00000948       $pdata$??1COPOSTotals@@UEAA@XZ 0000000180033948     TotalsImpl.obj
 0004:00000954       $pdata$?GetOposProp@COPOSTotals@@IEAAJJPEAJJ@Z 0000000180033954     TotalsImpl.obj
 0004:00000960       $pdata$?SetOposProp@COPOSTotals@@IEAAJJJJ@Z 0000000180033960     TotalsImpl.obj
 0004:0000096c       $pdata$?GetOposProp@COPOSTotals@@IEAAJJPEAPEA_WJ@Z 000000018003396c     TotalsImpl.obj
 0004:00000978       $pdata$?DoInvoke@COPOSTotals@@IEAAJJPEAVOposVariant@@IHPEAJ_N@Z 0000000180033978     TotalsImpl.obj
 0004:00000984       $pdata$?SetCOFreezeEvents@COPOSTotals@@IEAAXF@Z 0000000180033984     TotalsImpl.obj
 0004:00000990       $pdata$?FreezeEvents@COPOSTotals@@MEAAJH@Z 0000000180033990     TotalsImpl.obj
 0004:0000099c       $pdata$?OnDraw@COPOSTotals@@MEAAJAEAUATL_DRAWINFO@@@Z 000000018003399c     TotalsImpl.obj
 0004:000009a8       $pdata$?EventInit@COPOSTotals@@IEAAJXZ 00000001800339a8     TotalsImpl.obj
 0004:000009b4       $pdata$?EventUninit@COPOSTotals@@IEAAXXZ 00000001800339b4     TotalsImpl.obj
 0004:000009c0       $pdata$?s_EventWindowProc@COPOSTotals@@KA_JPEAUHWND__@@I_K_J@Z 00000001800339c0     TotalsImpl.obj
 0004:000009cc       $pdata$?EventWindowProc@COPOSTotals@@IEAA_JI_K_J@Z 00000001800339cc     TotalsImpl.obj
 0004:000009d8       $pdata$?SOProcessID@COPOSTotals@@UEAAJPEAJ@Z 00000001800339d8     TotalsImpl.obj
 0004:000009e4       $pdata$?get_Claimed@COPOSTotals@@UEAAJPEAF@Z 00000001800339e4     TotalsImpl.obj
 0004:000009f0       $pdata$?get_DeviceEnabled@COPOSTotals@@UEAAJPEAF@Z 00000001800339f0     TotalsImpl.obj
 0004:000009fc       $pdata$?get_FreezeEvents@COPOSTotals@@UEAAJPEAF@Z 00000001800339fc     TotalsImpl.obj
 0004:00000a08       $pdata$?put_FreezeEvents@COPOSTotals@@UEAAJF@Z 0000000180033a08     TotalsImpl.obj
 0004:00000a14       $pdata$?get_ResultCode@COPOSTotals@@UEAAJPEAJ@Z 0000000180033a14     TotalsImpl.obj
 0004:00000a20       $pdata$?get_State@COPOSTotals@@UEAAJPEAJ@Z 0000000180033a20     TotalsImpl.obj
 0004:00000a2c       $pdata$?get_ControlObjectDescription@COPOSTotals@@UEAAJPEAPEA_W@Z 0000000180033a2c     TotalsImpl.obj
 0004:00000a38       $pdata$?CheckHealth@COPOSTotals@@UEAAJJPEAJ@Z 0000000180033a38     TotalsImpl.obj
 0004:00000a44       $pdata$?ClaimDevice@COPOSTotals@@UEAAJJPEAJ@Z 0000000180033a44     TotalsImpl.obj
 0004:00000a50       $pdata$?Close@COPOSTotals@@UEAAJPEAJ@Z 0000000180033a50     TotalsImpl.obj
 0004:00000a5c       $pdata$?DirectIO@COPOSTotals@@UEAAJJPEAJPEAPEA_W0@Z 0000000180033a5c     TotalsImpl.obj
 0004:00000a68       $pdata$?Open@COPOSTotals@@UEAAJPEA_WPEAJ@Z 0000000180033a68     TotalsImpl.obj
 0004:00000a74       $pdata$?ReleaseDevice@COPOSTotals@@UEAAJPEAJ@Z 0000000180033a74     TotalsImpl.obj
 0004:00000a80       $pdata$?get_CapErrorDetection@COPOSTotals@@UEAAJPEAF@Z 0000000180033a80     TotalsImpl.obj
 0004:00000a8c       $pdata$?get_CapSingleFile@COPOSTotals@@UEAAJPEAF@Z 0000000180033a8c     TotalsImpl.obj
 0004:00000a98       $pdata$?get_CapTransactions@COPOSTotals@@UEAAJPEAF@Z 0000000180033a98     TotalsImpl.obj
 0004:00000aa4       $pdata$?get_TransactionInProgress@COPOSTotals@@UEAAJPEAF@Z 0000000180033aa4     TotalsImpl.obj
 0004:00000ab0       $pdata$?BeginTrans@COPOSTotals@@UEAAJPEAJ@Z 0000000180033ab0     TotalsImpl.obj
 0004:00000abc       $pdata$?ClaimFile@COPOSTotals@@UEAAJJJPEAJ@Z 0000000180033abc     TotalsImpl.obj
 0004:00000ac8       $pdata$?CommitTrans@COPOSTotals@@UEAAJPEAJ@Z 0000000180033ac8     TotalsImpl.obj
 0004:00000ad4       $pdata$?Create@COPOSTotals@@UEAAJPEA_WPEAJJF1@Z 0000000180033ad4     TotalsImpl.obj
 0004:00000ae0       $pdata$?Delete@COPOSTotals@@UEAAJPEA_WPEAJ@Z 0000000180033ae0     TotalsImpl.obj
 0004:00000aec       $pdata$?Find@COPOSTotals@@UEAAJPEA_WPEAJ11@Z 0000000180033aec     TotalsImpl.obj
 0004:00000af8       $pdata$?FindByIndex@COPOSTotals@@UEAAJJPEAPEA_WPEAJ@Z 0000000180033af8     TotalsImpl.obj
 0004:00000b04       $pdata$?Read@COPOSTotals@@UEAAJJPEAPEA_WJJPEAJ@Z 0000000180033b04     TotalsImpl.obj
 0004:00000b10       $pdata$?RecalculateValidationData@COPOSTotals@@UEAAJJPEAJ@Z 0000000180033b10     TotalsImpl.obj
 0004:00000b1c       $pdata$?ReleaseFile@COPOSTotals@@UEAAJJPEAJ@Z 0000000180033b1c     TotalsImpl.obj
 0004:00000b28       $pdata$?Rename@COPOSTotals@@UEAAJJPEA_WPEAJ@Z 0000000180033b28     TotalsImpl.obj
 0004:00000b34       $pdata$?Rollback@COPOSTotals@@UEAAJPEAJ@Z 0000000180033b34     TotalsImpl.obj
 0004:00000b40       $pdata$?SetAll@COPOSTotals@@UEAAJJJPEAJ@Z 0000000180033b40     TotalsImpl.obj
 0004:00000b4c       $pdata$?ValidateData@COPOSTotals@@UEAAJJPEAJ@Z 0000000180033b4c     TotalsImpl.obj
 0004:00000b58       $pdata$?Write@COPOSTotals@@UEAAJJPEA_WJJPEAJ@Z 0000000180033b58     TotalsImpl.obj
 0004:00000b64       $pdata$?get_CapStatisticsReporting@COPOSTotals@@UEAAJPEAF@Z 0000000180033b64     TotalsImpl.obj
 0004:00000b70       $pdata$?get_CapUpdateStatistics@COPOSTotals@@UEAAJPEAF@Z 0000000180033b70     TotalsImpl.obj
 0004:00000b7c       $pdata$?ResetStatistics@COPOSTotals@@UEAAJPEA_WPEAJ@Z 0000000180033b7c     TotalsImpl.obj
 0004:00000b88       $pdata$?RetrieveStatistics@COPOSTotals@@UEAAJPEAPEA_WPEAJ@Z 0000000180033b88     TotalsImpl.obj
 0004:00000b94       $pdata$?UpdateStatistics@COPOSTotals@@UEAAJPEA_WPEAJ@Z 0000000180033b94     TotalsImpl.obj
 0004:00000ba0       $pdata$?get_CapCompareFirmwareVersion@COPOSTotals@@UEAAJPEAF@Z 0000000180033ba0     TotalsImpl.obj
 0004:00000bac       $pdata$?get_CapUpdateFirmware@COPOSTotals@@UEAAJPEAF@Z 0000000180033bac     TotalsImpl.obj
 0004:00000bb8       $pdata$?CompareFirmwareVersion@COPOSTotals@@UEAAJPEA_WPEAJ1@Z 0000000180033bb8     TotalsImpl.obj
 0004:00000bc4       $pdata$?UpdateFirmware@COPOSTotals@@UEAAJPEA_WPEAJ@Z 0000000180033bc4     TotalsImpl.obj
 0004:00000bd0       $pdata$atexit              0000000180033bd0     LIBCMT:utility.obj
 0004:00000bdc       $pdata$_onexit             0000000180033bdc     LIBCMT:utility.obj
 0004:00000be8       $pdata$__scrt_is_nonwritable_in_current_image 0000000180033be8     LIBCMT:utility.obj
 0004:00000bf4       $pdata$__scrt_is_nonwritable_in_current_image$filt$0 0000000180033bf4     LIBCMT:utility.obj
 0004:00000c00       $pdata$__scrt_acquire_startup_lock 0000000180033c00     LIBCMT:utility.obj
 0004:00000c0c       $pdata$__scrt_release_startup_lock 0000000180033c0c     LIBCMT:utility.obj
 0004:00000c18       $pdata$__scrt_initialize_crt 0000000180033c18     LIBCMT:utility.obj
 0004:00000c24       $pdata$__scrt_uninitialize_crt 0000000180033c24     LIBCMT:utility.obj
 0004:00000c30       $pdata$__scrt_initialize_onexit_tables 0000000180033c30     LIBCMT:utility.obj
 0004:00000c3c       $pdata$__scrt_dllmain_exception_filter 0000000180033c3c     LIBCMT:utility.obj
 0004:00000c48       $pdata$__scrt_dllmain_before_initialize_c 0000000180033c48     LIBCMT:utility.obj
 0004:00000c54       $pdata$__scrt_dllmain_after_initialize_c 0000000180033c54     LIBCMT:utility.obj
 0004:00000c60       $pdata$__scrt_dllmain_uninitialize_c 0000000180033c60     LIBCMT:utility.obj
 0004:00000c6c       $pdata$__scrt_dllmain_uninitialize_critical 0000000180033c6c     LIBCMT:utility.obj
 0004:00000c78       $pdata$__scrt_dllmain_crt_thread_attach 0000000180033c78     LIBCMT:utility.obj
 0004:00000c84       $pdata$__scrt_dllmain_crt_thread_detach 0000000180033c84     LIBCMT:utility.obj
 0004:00000c90       $pdata$_Init_thread_header 0000000180033c90     LIBCMT:thread_safe_statics.obj
 0004:00000c9c       $pdata$_Init_thread_footer 0000000180033c9c     LIBCMT:thread_safe_statics.obj
 0004:00000ca8       $pdata$_Init_thread_wait   0000000180033ca8     LIBCMT:thread_safe_statics.obj
 0004:00000cb4       $pdata$_Init_thread_notify 0000000180033cb4     LIBCMT:thread_safe_statics.obj
 0004:00000cc0       $pdata$?__scrt_uninitialize_thread_safe_statics@@YAXXZ 0000000180033cc0     LIBCMT:thread_safe_statics.obj
 0004:00000ccc       $pdata$?__scrt_initialize_thread_safe_statics@@YAHXZ 0000000180033ccc     LIBCMT:thread_safe_statics.obj
 0004:00000cd8       $pdata$__report_securityfailure 0000000180033cd8     LIBCMT:gs_report.obj
 0004:00000ce4       $pdata$__report_rangecheckfailure 0000000180033ce4     LIBCMT:gs_report.obj
 0004:00000cf0       $pdata$__report_gsfailure  0000000180033cf0     LIBCMT:gs_report.obj
 0004:00000cfc       $pdata$capture_current_context 0000000180033cfc     LIBCMT:gs_report.obj
 0004:00000d08       $pdata$capture_previous_context 0000000180033d08     LIBCMT:gs_report.obj
 0004:00000d14       $pdata$__raise_securityfailure 0000000180033d14     LIBCMT:gs_report.obj
 0004:00000d20       $pdata$??2@YAPEAX_KAEBUnothrow_t@std@@@Z 0000000180033d20     LIBCMT:new_scalar_nothrow.obj
 0004:00000d2c       $pdata$?catch$0@?0???2@YAPEAX_KAEBUnothrow_t@std@@@Z@4HA 0000000180033d2c     LIBCMT:new_scalar_nothrow.obj
 0004:00000d38       $pdata$__GSHandlerCheckCommon 0000000180033d38     LIBCMT:gshandler.obj
 0004:00000d44       $pdata$__GSHandlerCheck    0000000180033d44     LIBCMT:gshandler.obj
 0004:00000d50       $pdata$__GSHandlerCheck_SEH 0000000180033d50     LIBCMT:gshandlerseh.obj
 0004:00000d74       $pdata$?dllmain_crt_process_attach@@YAHQEAUHINSTANCE__@@QEAX@Z 0000000180033d74     LIBCMT:dll_dllmain.obj
 0004:00000d80       $pdata$?fin$0@?0??dllmain_crt_process_attach@@YAHQEAUHINSTANCE__@@QEAX@Z@4HA 0000000180033d80     LIBCMT:dll_dllmain.obj
 0004:00000d8c       $pdata$?dllmain_crt_process_detach@@YAH_N@Z 0000000180033d8c     LIBCMT:dll_dllmain.obj
 0004:00000d98       $pdata$?fin$0@?0??dllmain_crt_process_detach@@YAH_N@Z@4HA 0000000180033d98     LIBCMT:dll_dllmain.obj
 0004:00000da4       $pdata$?fin$1@?0??dllmain_crt_process_detach@@YAH_N@Z@4HA 0000000180033da4     LIBCMT:dll_dllmain.obj
 0004:00000db0       $pdata$?dllmain_crt_dispatch@@YAHQEAUHINSTANCE__@@KQEAX@Z 0000000180033db0     LIBCMT:dll_dllmain.obj
 0004:00000dbc       $pdata$?dllmain_dispatch@@YAHQEAUHINSTANCE__@@KQEAX@Z 0000000180033dbc     LIBCMT:dll_dllmain.obj
 0004:00000dc8       $pdata$?filt$0@?0??dllmain_dispatch@@YAHQEAUHINSTANCE__@@KQEAX@Z@4HA 0000000180033dc8     LIBCMT:dll_dllmain.obj
 0004:00000dd4       $pdata$_DllMainCRTStartup  0000000180033dd4     LIBCMT:dll_dllmain.obj
 0004:00000de0       $pdata$??2@YAPEAX_K@Z      0000000180033de0     LIBCMT:new_scalar.obj
 0004:00000dec       $pdata$__isa_available_init 0000000180033dec     LIBCMT:cpu_disp.obj
 0004:00000df8       $pdata$__scrt_fastfail     0000000180033df8     LIBCMT:utility_desktop.obj
 0004:00000e04       $pdata$__security_init_cookie 0000000180033e04     LIBCMT:gs_support.obj
 0004:00000e10       $pdata$__scrt_initialize_default_local_stdio_options 0000000180033e10     LIBCMT:default_local_stdio_options.obj
 0004:00000e1c       $pdata$_RTC_Initialize     0000000180033e1c     LIBCMT:initsect.obj
 0004:00000e28       $pdata$_RTC_Terminate      0000000180033e28     LIBCMT:initsect.obj
 0004:00000e34       $pdata$??0exception@std@@QEAA@AEBV01@@Z 0000000180033e34     LIBCMT:throw_bad_alloc.obj
 0004:00000e40       $pdata$??_Gbad_alloc@std@@UEAAPEAXI@Z 0000000180033e40     LIBCMT:throw_bad_alloc.obj
 0004:00000e40       $pdata$??_Gbad_array_new_length@std@@UEAAPEAXI@Z 0000000180033e40     LIBCMT:throw_bad_alloc.obj
 0004:00000e40       $pdata$??_Gexception@std@@UEAAPEAXI@Z 0000000180033e40     LIBCMT:throw_bad_alloc.obj
 0004:00000e40       $pdata$??_Gbad_exception@std@@UEAAPEAXI@Z 0000000180033e40     libvcruntime:frame.obj
 0004:00000e4c       $pdata$??0bad_alloc@std@@QEAA@AEBV01@@Z 0000000180033e4c     LIBCMT:throw_bad_alloc.obj
 0004:00000e58       $pdata$??0bad_array_new_length@std@@QEAA@AEBV01@@Z 0000000180033e58     LIBCMT:throw_bad_alloc.obj
 0004:00000e64       $pdata$?__scrt_throw_std_bad_alloc@@YAXXZ 0000000180033e64     LIBCMT:throw_bad_alloc.obj
 0004:00000e70       $pdata$?__scrt_throw_std_bad_array_new_length@@YAXXZ 0000000180033e70     LIBCMT:throw_bad_alloc.obj
 0004:00000e88       $pdata$??_Gtype_info@@UEAAPEAXI@Z 0000000180033e88     LIBCMT:std_type_info_static.obj
 0004:00000e94       $pdata$??0CAtlBaseModule@ATL@@QEAA@XZ 0000000180033e94     atls:atlbase.obj
 0004:00000ea0       $pdata$??1CAtlBaseModule@ATL@@QEAA@XZ 0000000180033ea0     atls:atlbase.obj
 0004:00000eac       $pdata$??__E_AtlBaseModule@ATL@@YAXXZ 0000000180033eac     atls:atlbase.obj
 0004:00000eb8       $pdata$AtlThunk_AllocateData 0000000180033eb8     atls:atlthunk.obj
 0004:00000ec4       $pdata$AtlThunk_InitData   0000000180033ec4     atls:atlthunk.obj
 0004:00000ed0       $pdata$AtlThunk_DataToCode 0000000180033ed0     atls:atlthunk.obj
 0004:00000edc       $pdata$AtlThunk_FreeData   0000000180033edc     atls:atlthunk.obj
 0004:00000ee8       $pdata$?__InitializeThunkPool@@YAHXZ 0000000180033ee8     atls:atlthunk.obj
 0004:00000ef4       $pdata$?__AllocStdCallThunk_cmn@@YAPEAXXZ 0000000180033ef4     atls:atlthunk.obj
 0004:00000f00       $pdata$??$GetProcAddressAll@P6AP6A_JPEAUHWND__@@I_K_J@ZPEAUAtlThunkData_t@@@Z@@YAP6AP6A_JPEAUHWND__@@I_K_J@ZPEAUAtlThunkData_t@@@ZPEAP6AP6A_J0I12@Z3@Z@Z 0000000180033f00     atls:atlthunk.obj
 0004:00000f00       $pdata$??$GetProcAddressAll@P6APEAUAtlThunkData_t@@XZ@@YAP6APEAUAtlThunkData_t@@XZPEAP6APEAU0@XZ@Z 0000000180033f00     atls:atlthunk.obj
 0004:00000f00       $pdata$??$GetProcAddressAll@P6AXPEAUAtlThunkData_t@@@Z@@YAP6AXPEAUAtlThunkData_t@@@ZPEAP6AX0@Z@Z 0000000180033f00     atls:atlthunk.obj
 0004:00000f00       $pdata$??$GetProcAddressAll@P6AXPEAUAtlThunkData_t@@PEAX_K@Z@@YAP6AXPEAUAtlThunkData_t@@PEAX_K@ZPEAP6AX012@Z@Z 0000000180033f00     atls:atlthunk.obj
 0004:00000f0c       $pdata$_purecall           0000000180033f0c     libvcruntime:purevirt.obj
 0004:00000f18       $pdata$wcsstr              0000000180033f18     libvcruntime:wcsstr.obj
 0004:00000f60       $pdata$__vcrt_initialize   0000000180033f60     libvcruntime:initialization.obj
 0004:00000f6c       $pdata$__vcrt_uninitialize 0000000180033f6c     libvcruntime:initialization.obj
 0004:00000f78       $pdata$__vcrt_uninitialize_critical 0000000180033f78     libvcruntime:initialization.obj
 0004:00000f84       $pdata$__vcrt_thread_attach 0000000180033f84     libvcruntime:initialization.obj
 0004:00000f90       $pdata$__vcrt_thread_detach 0000000180033f90     libvcruntime:initialization.obj
 0004:00000f9c       $pdata$__C_specific_handler 0000000180033f9c     libvcruntime:riscchandler.obj
 0004:00000fa8       $pdata$?CatchTryBlock@__FrameHandler3@@SAPEBU_s_TryBlockMapEntry@@PEBU_s_FuncInfo@@H@Z 0000000180033fa8     libvcruntime:risctrnsctrl.obj
 0004:00000fb4       $pdata$?ExecutionInCatch@__FrameHandler3@@SA_NPEAU_xDISPATCHER_CONTEXT@@PEBU_s_FuncInfo@@@Z 0000000180033fb4     libvcruntime:risctrnsctrl.obj
 0004:00000fc0       $pdata$?FrameUnwindToEmptyState@__FrameHandler3@@SAXPEA_KPEAU_xDISPATCHER_CONTEXT@@PEBU_s_FuncInfo@@@Z 0000000180033fc0     libvcruntime:risctrnsctrl.obj
 0004:00000fcc       $pdata$?GetEstablisherFrame@__FrameHandler3@@SAPEA_KPEA_KPEAU_xDISPATCHER_CONTEXT@@PEBU_s_FuncInfo@@0@Z 0000000180033fcc     libvcruntime:risctrnsctrl.obj
 0004:00000fd8       $pdata$?UnwindNestedFrames@__FrameHandler3@@SAXPEA_KPEAUEHExceptionRecord@@PEAU_CONTEXT@@0PEAXPEBU_s_FuncInfo@@HHPEBU_s_HandlerType@@PEAU_xDISPATCHER_CONTEXT@@E@Z 0000000180033fd8     libvcruntime:risctrnsctrl.obj
 0004:00000fe4       $pdata$?GetRangeOfTrysToCheck@__FrameHandler3@@SA?AU?$pair@Viterator@TryBlockMap@__FrameHandler3@@V123@@std@@AEAVTryBlockMap@1@HPEAU_xDISPATCHER_CONTEXT@@PEBU_s_FuncInfo@@H@Z 0000000180033fe4     libvcruntime:risctrnsctrl.obj
 0004:00000ff0       $pdata$_GetImageBase       0000000180033ff0     libvcruntime:risctrnsctrl.obj
 0004:00000ffc       $pdata$_SetImageBase       0000000180033ffc     libvcruntime:risctrnsctrl.obj
 0004:00001008       $pdata$_GetThrowImageBase  0000000180034008     libvcruntime:risctrnsctrl.obj
 0004:00001014       $pdata$_SetThrowImageBase  0000000180034014     libvcruntime:risctrnsctrl.obj
 0004:00001020       $pdata$_CreateFrameInfo    0000000180034020     libvcruntime:risctrnsctrl.obj
 0004:0000102c       $pdata$_FindAndUnlinkFrame 000000018003402c     libvcruntime:risctrnsctrl.obj
 0004:00001038       $pdata$__CxxFrameHandler3  0000000180034038     libvcruntime:risctrnsctrl.obj
 0004:00001044       $pdata$??$_CallSETranslator@V__FrameHandler3@@@@YAHPEAUEHExceptionRecord@@PEA_KPEAU_CONTEXT@@PEAU_xDISPATCHER_CONTEXT@@PEBU_s_FuncInfo@@K1@Z 0000000180034044     libvcruntime:risctrnsctrl.obj
 0004:00001050       $pdata$?filt$0@?0???$_CallSETranslator@V__FrameHandler3@@@@YAHPEAUEHExceptionRecord@@PEA_KPEAU_CONTEXT@@PEAU_xDISPATCHER_CONTEXT@@PEBU_s_FuncInfo@@K1@Z@4HA 0000000180034050     libvcruntime:risctrnsctrl.obj
 0004:0000105c       $pdata$_IsExceptionObjectToBeDestroyed 000000018003405c     libvcruntime:ehhelpers.obj
 0004:00001068       $pdata$__FrameUnwindFilter 0000000180034068     libvcruntime:ehhelpers.obj
 0004:00001074       $pdata$__DestructExceptionObject 0000000180034074     libvcruntime:ehhelpers.obj
 0004:00001080       $pdata$__DestructExceptionObject$filt$0 0000000180034080     libvcruntime:ehhelpers.obj
 0004:0000108c       $pdata$__std_type_info_destroy_list 000000018003408c     libvcruntime:std_type_info.obj
 0004:00001098       $pdata$__std_exception_copy 0000000180034098     libvcruntime:std_exception.obj
 0004:000010a4       $pdata$__std_exception_destroy 00000001800340a4     libvcruntime:std_exception.obj
 0004:000010b0       $pdata$_CxxThrowException  00000001800340b0     libvcruntime:throw.obj
 0004:000010bc       $pdata$__vcrt_initialize_ptd 00000001800340bc     libvcruntime:per_thread_data.obj
 0004:000010c8       $pdata$__vcrt_uninitialize_ptd 00000001800340c8     libvcruntime:per_thread_data.obj
 0004:000010d4       $pdata$__vcrt_getptd       00000001800340d4     libvcruntime:per_thread_data.obj
 0004:000010e0       $pdata$__vcrt_getptd_noexit 00000001800340e0     libvcruntime:per_thread_data.obj
 0004:000010ec       $pdata$__vcrt_freeptd      00000001800340ec     libvcruntime:per_thread_data.obj
 0004:000010f8       $pdata$__vcrt_freefls      00000001800340f8     libvcruntime:per_thread_data.obj
 0004:00001104       $pdata$__vcrt_initialize_locks 0000000180034104     libvcruntime:locks.obj
 0004:00001110       $pdata$__vcrt_uninitialize_locks 0000000180034110     libvcruntime:locks.obj
 0004:00001140       $pdata$?StateFromIp@__FrameHandler3@@SAHPEBU_s_FuncInfo@@PEAU_xDISPATCHER_CONTEXT@@_K@Z 0000000180034140     libvcruntime:ehstate.obj
 0004:0000114c       $pdata$?GetCurrentState@__FrameHandler3@@SAHPEA_KPEAU_xDISPATCHER_CONTEXT@@PEBU_s_FuncInfo@@@Z 000000018003414c     libvcruntime:ehstate.obj
 0004:00001158       $pdata$?SetUnwindTryBlock@__FrameHandler3@@SAXPEA_KPEAU_xDISPATCHER_CONTEXT@@PEBU_s_FuncInfo@@H@Z 0000000180034158     libvcruntime:ehstate.obj
 0004:00001164       $pdata$?GetUnwindTryBlock@__FrameHandler3@@SAHPEA_KPEAU_xDISPATCHER_CONTEXT@@PEBU_s_FuncInfo@@@Z 0000000180034164     libvcruntime:ehstate.obj
 0004:00001170       $pdata$?FrameUnwindToState@__FrameHandler3@@SAXPEA_KPEAU_xDISPATCHER_CONTEXT@@PEBU_s_FuncInfo@@H@Z 0000000180034170     libvcruntime:frame.obj
 0004:0000117c       $pdata$?filt$0@?0??FrameUnwindToState@__FrameHandler3@@SAXPEA_KPEAU_xDISPATCHER_CONTEXT@@PEBU_s_FuncInfo@@H@Z@4HA 000000018003417c     libvcruntime:frame.obj
 0004:00001188       $pdata$?fin$1@?0??FrameUnwindToState@__FrameHandler3@@SAXPEA_KPEAU_xDISPATCHER_CONTEXT@@PEBU_s_FuncInfo@@H@Z@4HA 0000000180034188     libvcruntime:frame.obj
 0004:00001194       $pdata$?GetHandlerSearchState@__FrameHandler3@@SAHPEA_KPEAU_xDISPATCHER_CONTEXT@@PEBU_s_FuncInfo@@@Z 0000000180034194     libvcruntime:frame.obj
 0004:000011a0       $pdata$?CxxCallCatchBlock@__FrameHandler3@@SAPEAXPEAU_EXCEPTION_RECORD@@@Z 00000001800341a0     libvcruntime:frame.obj
 0004:000011ac       $pdata$?filt$0@?0??CxxCallCatchBlock@__FrameHandler3@@SAPEAXPEAU_EXCEPTION_RECORD@@@Z@4HA 00000001800341ac     libvcruntime:frame.obj
 0004:000011b8       $pdata$?fin$1@?0??CxxCallCatchBlock@__FrameHandler3@@SAPEAXPEAU_EXCEPTION_RECORD@@@Z@4HA 00000001800341b8     libvcruntime:frame.obj
 0004:000011c4       $pdata$??0bad_exception@std@@QEAA@AEBV01@@Z 00000001800341c4     libvcruntime:frame.obj
 0004:000011d0       $pdata$?ExFilterRethrow@@YAHPEAU_EXCEPTION_POINTERS@@PEAUEHExceptionRecord@@PEAH@Z 00000001800341d0     libvcruntime:frame.obj
 0004:000011dc       $pdata$?IsInExceptionSpec@@YAEPEAUEHExceptionRecord@@PEBU_s_ESTypeList@@@Z 00000001800341dc     libvcruntime:frame.obj
 0004:000011e8       $pdata$?Is_bad_exception_allowed@@YAEPEBU_s_ESTypeList@@@Z 00000001800341e8     libvcruntime:frame.obj
 0004:000011f4       $pdata$??$__InternalCxxFrameHandler@V__FrameHandler3@@@@YA?AW4_EXCEPTION_DISPOSITION@@PEAUEHExceptionRecord@@PEA_KPEAU_CONTEXT@@PEAU_xDISPATCHER_CONTEXT@@PEBU_s_FuncInfo@@H1E@Z 00000001800341f4     libvcruntime:frame.obj
 0004:00001200       $pdata$??$TypeMatchHelper@V__FrameHandler3@@@@YAHPEBU_s_HandlerType@@PEBU_s_CatchableType@@PEBU_s_ThrowInfo@@@Z 0000000180034200     libvcruntime:frame.obj
 0004:0000120c       $pdata$??$BuildCatchObjectHelperInternal@V__FrameHandler3@@@@YAHPEAUEHExceptionRecord@@PEAXPEBU_s_HandlerType@@PEBU_s_CatchableType@@@Z 000000018003420c     libvcruntime:frame.obj
 0004:00001218       $pdata$??$BuildCatchObjectInternal@V__FrameHandler3@@@@YAXPEAUEHExceptionRecord@@PEAXPEBU_s_HandlerType@@PEBU_s_CatchableType@@@Z 0000000180034218     libvcruntime:frame.obj
 0004:00001224       $pdata$??$FindHandler@V__FrameHandler3@@@@YAXPEAUEHExceptionRecord@@PEA_KPEAU_CONTEXT@@PEAU_xDISPATCHER_CONTEXT@@PEBU_s_FuncInfo@@EH1@Z 0000000180034224     libvcruntime:frame.obj
 0004:00001230       $pdata$??$CatchIt@V__FrameHandler3@@@@YAXPEAUEHExceptionRecord@@PEA_KPEAU_CONTEXT@@PEAU_xDISPATCHER_CONTEXT@@PEBU_s_FuncInfo@@PEBU_s_HandlerType@@PEBU_s_CatchableType@@PEBU_s_TryBlockMapEntry@@H1EE@Z 0000000180034230     libvcruntime:frame.obj
 0004:0000123c       $pdata$??$FindHandlerForForeignException@V__FrameHandler3@@@@YAXPEAUEHExceptionRecord@@PEA_KPEAU_CONTEXT@@PEAU_xDISPATCHER_CONTEXT@@PEBU_s_FuncInfo@@HH1@Z 000000018003423c     libvcruntime:frame.obj
 0004:00001248       $pdata$__vcrt_FlsAlloc     0000000180034248     libvcruntime:winapi_downlevel.obj
 0004:00001254       $pdata$__vcrt_FlsFree      0000000180034254     libvcruntime:winapi_downlevel.obj
 0004:00001260       $pdata$__vcrt_FlsGetValue  0000000180034260     libvcruntime:winapi_downlevel.obj
 0004:0000126c       $pdata$__vcrt_FlsSetValue  000000018003426c     libvcruntime:winapi_downlevel.obj
 0004:00001278       $pdata$__vcrt_InitializeCriticalSectionEx 0000000180034278     libvcruntime:winapi_downlevel.obj
 0004:00001284       $pdata$?try_get_function@@YAPEAXW4function_id@?A0x81a78551@@QEBDQEBW4module_id@2@2@Z 0000000180034284     libvcruntime:winapi_downlevel.obj
 0004:000012c0       $pdata$_invalid_parameter_noinfo 00000001800342c0     libucrt:invalid_parameter.obj
 0004:000012cc       $pdata$_invoke_watson      00000001800342cc     libucrt:invalid_parameter.obj
 0004:000012d8       $pdata$__acrt_call_reportfault 00000001800342d8     libucrt:invalid_parameter.obj
 0004:000012e4       $pdata$_invalid_parameter  00000001800342e4     libucrt:invalid_parameter.obj
 0004:000012f0       $pdata$_errno              00000001800342f0     libucrt:errno.obj
 0004:000012fc       $pdata$__doserrno          00000001800342fc     libucrt:errno.obj
 0004:00001308       $pdata$__acrt_errno_map_os_error 0000000180034308     libucrt:errno.obj
 0004:00001314       $pdata$_recalloc_base      0000000180034314     libucrt:recalloc.obj
 0004:00001320       $pdata$_resetstkoflw       0000000180034320     libucrt:resetstk.obj
 0004:0000132c       $pdata$wcscat_s            000000018003432c     libucrt:wcscat_s.obj
 0004:00001338       $pdata$wcscpy_s            0000000180034338     libucrt:wcscpy_s.obj
 0004:00001344       $pdata$wcsncpy_s           0000000180034344     libucrt:wcsncpy_s.obj
 0004:00001350       $pdata$??0_LocaleUpdate@@QEAA@QEAU__crt_locale_pointers@@@Z 0000000180034350     libucrt:output.obj
 0004:0000135c       $pdata$__stdio_common_vswprintf_s 000000018003435c     libucrt:output.obj
 0004:00001368       $pdata$?write_string@?$string_output_adapter@_W@__crt_stdio_output@@QEBAXQEB_WHQEAHAEAV__crt_deferred_errno_cache@@@Z 0000000180034368     libucrt:output.obj
 0004:00001374       $pdata$??$common_vsprintf@Vformat_validation_base@__crt_stdio_output@@_W@@YAH_KQEA_W0QEB_WQEAU__crt_locale_pointers@@QEAD@Z 0000000180034374     libucrt:output.obj
 0004:00001380       $pdata$??$write_multiple_characters@V?$string_output_adapter@_W@__crt_stdio_output@@D@__crt_stdio_output@@YAXAEBV?$string_output_adapter@_W@0@DHQEAH@Z 0000000180034380     libucrt:output.obj
 0004:0000138c       $pdata$??$ensure_buffer_is_big_enough@D@formatting_buffer@__crt_stdio_output@@QEAA_N_K@Z 000000018003438c     libucrt:output.obj
 0004:00001398       $pdata$??$ensure_buffer_is_big_enough@_W@formatting_buffer@__crt_stdio_output@@QEAA_N_K@Z 0000000180034398     libucrt:output.obj
 0004:000013a4       $pdata$?process@?$output_processor@_WV?$string_output_adapter@_W@__crt_stdio_output@@V?$format_validation_base@_WV?$string_output_adapter@_W@__crt_stdio_output@@@2@@__crt_stdio_output@@QEAAHXZ 00000001800343a4     libucrt:output.obj
 0004:000013b0       $pdata$?parse_int_from_format_string@?$output_processor@_WV?$string_output_adapter@_W@__crt_stdio_output@@V?$format_validation_base@_WV?$string_output_adapter@_W@__crt_stdio_output@@@2@@__crt_stdio_output@@AEAA_NQEAH@Z 00000001800343b0     libucrt:output.obj
 0004:000013bc       $pdata$?state_case_size@?$output_processor@_WV?$string_output_adapter@_W@__crt_stdio_output@@V?$format_validation_base@_WV?$string_output_adapter@_W@__crt_stdio_output@@@2@@__crt_stdio_output@@AEAA_NXZ 00000001800343bc     libucrt:output.obj
 0004:000013c8       $pdata$?state_case_type@?$output_processor@_WV?$string_output_adapter@_W@__crt_stdio_output@@V?$format_validation_base@_WV?$string_output_adapter@_W@__crt_stdio_output@@@2@@__crt_stdio_output@@AEAA_NXZ 00000001800343c8     libucrt:output.obj
 0004:000013d4       $pdata$?type_case_c_tchar@?$output_processor@_WV?$string_output_adapter@_W@__crt_stdio_output@@V?$format_validation_base@_WV?$string_output_adapter@_W@__crt_stdio_output@@@2@@__crt_stdio_output@@AEAA_N_W@Z 00000001800343d4     libucrt:output.obj
 0004:000013e0       $pdata$?type_case_Z@?$output_processor@_WV?$string_output_adapter@_W@__crt_stdio_output@@V?$format_validation_base@_WV?$string_output_adapter@_W@__crt_stdio_output@@@2@@__crt_stdio_output@@AEAA_NXZ 00000001800343e0     libucrt:output.obj
 0004:000013ec       $pdata$?type_case_s@?$output_processor@_WV?$string_output_adapter@_W@__crt_stdio_output@@V?$format_validation_base@_WV?$string_output_adapter@_W@__crt_stdio_output@@@2@@__crt_stdio_output@@AEAA_NXZ 00000001800343ec     libucrt:output.obj
 0004:000013f8       $pdata$?type_case_a@?$output_processor@_WV?$string_output_adapter@_W@__crt_stdio_output@@V?$format_validation_base@_WV?$string_output_adapter@_W@__crt_stdio_output@@@2@@__crt_stdio_output@@AEAA_NXZ 00000001800343f8     libucrt:output.obj
 0004:00001404       $pdata$?type_case_integer@?$output_processor@_WV?$string_output_adapter@_W@__crt_stdio_output@@V?$format_validation_base@_WV?$string_output_adapter@_W@__crt_stdio_output@@@2@@__crt_stdio_output@@AEAA_NI_N@Z 0000000180034404     libucrt:output.obj
 0004:00001410       $pdata$?type_case_n@?$output_processor@_WV?$string_output_adapter@_W@__crt_stdio_output@@V?$format_validation_base@_WV?$string_output_adapter@_W@__crt_stdio_output@@@2@@__crt_stdio_output@@AEAA_NXZ 0000000180034410     libucrt:output.obj
 0004:0000141c       $pdata$?write_stored_string_tchar@?$output_processor@_WV?$string_output_adapter@_W@__crt_stdio_output@@V?$format_validation_base@_WV?$string_output_adapter@_W@__crt_stdio_output@@@2@@__crt_stdio_output@@AEAA_N_W@Z 000000018003441c     libucrt:output.obj
 0004:00001428       $pdata$??$type_case_integer_parse_into_buffer@_K@?$output_processor@_WV?$string_output_adapter@_W@__crt_stdio_output@@V?$format_validation_base@_WV?$string_output_adapter@_W@__crt_stdio_output@@@2@@__crt_stdio_output@@AEAAX_KI_N@Z 0000000180034428     libucrt:output.obj
 0004:00001434       $pdata$??$type_case_integer_parse_into_buffer@I@?$output_processor@_WV?$string_output_adapter@_W@__crt_stdio_output@@V?$format_validation_base@_WV?$string_output_adapter@_W@__crt_stdio_output@@@2@@__crt_stdio_output@@AEAAXII_N@Z 0000000180034434     libucrt:output.obj
 0004:00001440       $pdata$_seh_filter_exe     0000000180034440     libucrt:exception_filter.obj
 0004:0000144c       $pdata$?try_cor_exit_process@@YAXI@Z 000000018003444c     libucrt:exit.obj
 0004:00001458       $pdata$?exit_or_terminate_process@@YAXI@Z 0000000180034458     libucrt:exit.obj
 0004:00001464       $pdata$?common_exit@@YAXHW4_crt_exit_cleanup_mode@@W4_crt_exit_return_mode@@@Z 0000000180034464     libucrt:exit.obj
 0004:00001470       $pdata$??R<lambda_6e4b09c48022b2350581041d5f6b0c4c>@@QEBA@XZ 0000000180034470     libucrt:exit.obj
 0004:0000147c       $pdata$?filt$0@?0???R<lambda_6e4b09c48022b2350581041d5f6b0c4c>@@QEBA@XZ@4HA 000000018003447c     libucrt:exit.obj
 0004:00001488       $pdata$??$?RV<lambda_d80eeec6fff315bfe5c115232f3240e3>@@AEAV<lambda_6e4b09c48022b2350581041d5f6b0c4c>@@V<lambda_2358e3775559c9db80273638284d5e45>@@@?$__crt_seh_guarded_call@X@@QEAAX$$QEAV<lambda_d80eeec6fff315bfe5c115232f3240e3>@@AEAV<lambda_6e4b09c48022b2350581041d5f6b0c4c>@@$$QEAV<lambda_2358e3775559c9db80273638284d5e45>@@@Z 0000000180034488     libucrt:exit.obj
 0004:00001494       $pdata$?fin$0@?0???$?RV<lambda_0ae27a3a962d80f24befdcbee591983d>@@AEAV<lambda_8d0ee55de4b1038c4002e0adecdf1839>@@V<lambda_dc504788e8f1664fe9b84e20bfb512f2>@@@?$__crt_seh_guarded_call@X@@QEAAX$$QEAV<lambda_0ae27a3a962d80f24befdcbee591983d>@@AEAV<lambda_8d0ee55de4b1038c4002e0adecdf1839>@@$$QEAV<lambda_dc504788e8f1664fe9b84e20bfb512f2>@@@Z@4HA 0000000180034494     libucrt:per_thread_data.obj
 0004:00001494       $pdata$?fin$0@?0???$?RV<lambda_2d41944a1d46af3157314b8a01080d33>@@AEAV<lambda_8f455de75cd7d7f24b4096f044d8b9e6>@@V<lambda_aa500f224e6afead328df44964fe2772>@@@?$__crt_seh_guarded_call@X@@QEAAX$$QEAV<lambda_2d41944a1d46af3157314b8a01080d33>@@AEAV<lambda_8f455de75cd7d7f24b4096f044d8b9e6>@@$$QEAV<lambda_aa500f224e6afead328df44964fe2772>@@@Z@4HA 0000000180034494     libucrt:per_thread_data.obj
 0004:00001494       $pdata$?fin$0@?0???$?RV<lambda_aa87e3671a710a21b5dc78c0bdf72e11>@@AEAV<lambda_92619d2358a28f41a33ba319515a20b9>@@V<lambda_6992ecaafeb10aed2b74cb1fae11a551>@@@?$__crt_seh_guarded_call@X@@QEAAX$$QEAV<lambda_aa87e3671a710a21b5dc78c0bdf72e11>@@AEAV<lambda_92619d2358a28f41a33ba319515a20b9>@@$$QEAV<lambda_6992ecaafeb10aed2b74cb1fae11a551>@@@Z@4HA 0000000180034494     libucrt:per_thread_data.obj
 0004:00001494       $pdata$?fin$0@?0???$?RV<lambda_f2e299630e499de9f9a165e60fcd3db5>@@AEAV<lambda_2ae9d31cdba2644fcbeaf08da7c24588>@@V<lambda_40d01ff24d0e7b3814fdbdcee8eab3c7>@@@?$__crt_seh_guarded_call@X@@QEAAX$$QEAV<lambda_f2e299630e499de9f9a165e60fcd3db5>@@AEAV<lambda_2ae9d31cdba2644fcbeaf08da7c24588>@@$$QEAV<lambda_40d01ff24d0e7b3814fdbdcee8eab3c7>@@@Z@4HA 0000000180034494     libucrt:per_thread_data.obj
 0004:00001494       $pdata$?fin$0@?0???$?RV<lambda_efdfa57d1f175319df784efa44bb7b81>@@AEAV<lambda_5f0a4c1567f8adc6734073e5d1e1b35c>@@V<lambda_2e8a7d3640ea6ccb4c2413664c2db6fd>@@@?$__crt_seh_guarded_call@X@@QEAAX$$QEAV<lambda_efdfa57d1f175319df784efa44bb7b81>@@AEAV<lambda_5f0a4c1567f8adc6734073e5d1e1b35c>@@$$QEAV<lambda_2e8a7d3640ea6ccb4c2413664c2db6fd>@@@Z@4HA 0000000180034494     libucrt:mbctype.obj
 0004:00001494       $pdata$?fin$0@?0???$?RV<lambda_450d765d439847d4c735a33c368b5fc0>@@AEAV<lambda_44731a7d0e6d81c3e6aa82d741081786>@@V<lambda_601a2a7da3b7a96e9554ac7215c4b07c>@@@?$__crt_seh_guarded_call@P6AXH@Z@@QEAAP6AXH@Z$$QEAV<lambda_450d765d439847d4c735a33c368b5fc0>@@AEAV<lambda_44731a7d0e6d81c3e6aa82d741081786>@@$$QEAV<lambda_601a2a7da3b7a96e9554ac7215c4b07c>@@@Z@4HA 0000000180034494     libucrt:signal.obj
 0004:00001494       $pdata$?fin$0@?0???$?RV<lambda_d80eeec6fff315bfe5c115232f3240e3>@@AEAV<lambda_6e4b09c48022b2350581041d5f6b0c4c>@@V<lambda_2358e3775559c9db80273638284d5e45>@@@?$__crt_seh_guarded_call@X@@QEAAX$$QEAV<lambda_d80eeec6fff315bfe5c115232f3240e3>@@AEAV<lambda_6e4b09c48022b2350581041d5f6b0c4c>@@$$QEAV<lambda_2358e3775559c9db80273638284d5e45>@@@Z@4HA 0000000180034494     libucrt:exit.obj
 0004:00001494       $pdata$?fin$0@?0???$?RV<lambda_638799b9deba96c50f710eeac98168cd>@@AEAV<lambda_22ebabd17bc4fa466a2aca6d8deb888d>@@V<lambda_a6f7d7db0129f75315ebf26d50c089f1>@@@?$__crt_seh_guarded_call@H@@QEAAH$$QEAV<lambda_638799b9deba96c50f710eeac98168cd>@@AEAV<lambda_22ebabd17bc4fa466a2aca6d8deb888d>@@$$QEAV<lambda_a6f7d7db0129f75315ebf26d50c089f1>@@@Z@4HA 0000000180034494     libucrt:onexit.obj
 0004:00001494       $pdata$?fin$0@?0???$?RV<lambda_7777bce6b2f8c936911f934f8298dc43>@@AEAV<lambda_f03950bc5685219e0bcd2087efbe011e>@@V<lambda_3883c3dff614d5e0c5f61bb1ac94921c>@@@?$__crt_seh_guarded_call@H@@QEAAH$$QEAV<lambda_7777bce6b2f8c936911f934f8298dc43>@@AEAV<lambda_f03950bc5685219e0bcd2087efbe011e>@@$$QEAV<lambda_3883c3dff614d5e0c5f61bb1ac94921c>@@@Z@4HA 0000000180034494     libucrt:onexit.obj
 0004:000014a0       $pdata$_configure_narrow_argv 00000001800344a0     libucrt:argv_parsing.obj
 0004:000014ac       $pdata$__acrt_allocate_buffer_for_argv 00000001800344ac     libucrt:argv_parsing.obj
 0004:000014b8       $pdata$??$parse_command_line@D@@YAXPEADPEAPEAD0PEA_K2@Z 00000001800344b8     libucrt:argv_parsing.obj
 0004:000014c4       $pdata$__dcrt_uninitialize_environments_nolock 00000001800344c4     libucrt:environment_initialization.obj
 0004:000014d0       $pdata$??$common_initialize_environment_nolock@D@@YAHXZ 00000001800344d0     libucrt:environment_initialization.obj
 0004:000014dc       $pdata$??$uninitialize_environment_internal@D@@YAXAEAPEAPEAD@Z 00000001800344dc     libucrt:environment_initialization.obj
 0004:000014e8       $pdata$??$uninitialize_environment_internal@_W@@YAXAEAPEAPEA_W@Z 00000001800344e8     libucrt:environment_initialization.obj
 0004:000014f4       $pdata$??$free_environment@D@@YAXQEAPEAD@Z 00000001800344f4     libucrt:environment_initialization.obj
 0004:000014f4       $pdata$??$free_environment@_W@@YAXQEAPEA_W@Z 00000001800344f4     libucrt:environment_initialization.obj
 0004:00001500       $pdata$??$create_environment@D@@YAQEAPEADQEAD@Z 0000000180034500     libucrt:environment_initialization.obj
 0004:0000150c       $pdata$_register_onexit_function 000000018003450c     libucrt:onexit.obj
 0004:00001518       $pdata$_execute_onexit_table 0000000180034518     libucrt:onexit.obj
 0004:00001524       $pdata$??R<lambda_22ebabd17bc4fa466a2aca6d8deb888d>@@QEBAHXZ 0000000180034524     libucrt:onexit.obj
 0004:00001530       $pdata$??R<lambda_f03950bc5685219e0bcd2087efbe011e>@@QEBAHXZ 0000000180034530     libucrt:onexit.obj
 0004:0000153c       $pdata$??$?RV<lambda_638799b9deba96c50f710eeac98168cd>@@AEAV<lambda_22ebabd17bc4fa466a2aca6d8deb888d>@@V<lambda_a6f7d7db0129f75315ebf26d50c089f1>@@@?$__crt_seh_guarded_call@H@@QEAAH$$QEAV<lambda_638799b9deba96c50f710eeac98168cd>@@AEAV<lambda_22ebabd17bc4fa466a2aca6d8deb888d>@@$$QEAV<lambda_a6f7d7db0129f75315ebf26d50c089f1>@@@Z 000000018003453c     libucrt:onexit.obj
 0004:00001548       $pdata$??$?RV<lambda_7777bce6b2f8c936911f934f8298dc43>@@AEAV<lambda_f03950bc5685219e0bcd2087efbe011e>@@V<lambda_3883c3dff614d5e0c5f61bb1ac94921c>@@@?$__crt_seh_guarded_call@H@@QEAAH$$QEAV<lambda_7777bce6b2f8c936911f934f8298dc43>@@AEAV<lambda_f03950bc5685219e0bcd2087efbe011e>@@$$QEAV<lambda_3883c3dff614d5e0c5f61bb1ac94921c>@@@Z 0000000180034548     libucrt:onexit.obj
 0004:00001554       $pdata$__acrt_uninitialize 0000000180034554     libucrt:initialization.obj
 0004:00001560       $pdata$__acrt_uninitialize_critical 0000000180034560     libucrt:initialization.obj
 0004:0000156c       $pdata$__acrt_thread_attach 000000018003456c     libucrt:initialization.obj
 0004:00001578       $pdata$__acrt_thread_detach 0000000180034578     libucrt:initialization.obj
 0004:00001584       $pdata$initialize_c        0000000180034584     libucrt:initialization.obj
 0004:00001590       $pdata$uninitialize_environment 0000000180034590     libucrt:initialization.obj
 0004:0000159c       $pdata$initialize_pointers 000000018003459c     libucrt:initialization.obj
 0004:000015a8       $pdata$uninitialize_allocated_memory 00000001800345a8     libucrt:initialization.obj
 0004:000015b4       $pdata$uninitialize_allocated_io_buffers 00000001800345b4     libucrt:initialization.obj
 0004:000015c0       $pdata$_initterm           00000001800345c0     libucrt:initterm.obj
 0004:000015cc       $pdata$_initterm_e         00000001800345cc     libucrt:initterm.obj
 0004:000015d8       $pdata$_callnewh           00000001800345d8     libucrt:new_handler.obj
 0004:000015e4       $pdata$_query_new_handler  00000001800345e4     libucrt:new_handler.obj
 0004:000015f0       $pdata$_query_new_handler$fin$0 00000001800345f0     libucrt:new_handler.obj
 0004:000015fc       $pdata$terminate           00000001800345fc     libucrt:terminate.obj
 0004:00001608       $pdata$abort               0000000180034608     libucrt:abort.obj
 0004:00001614       $pdata$strcpy_s            0000000180034614     libucrt:strcpy_s.obj
 0004:00001620       $pdata$??$parse_integer@KV?$c_string_character_source@_W@__crt_strtox@@@__crt_strtox@@YAKQEAU__crt_locale_pointers@@V?$c_string_character_source@_W@0@H_N@Z 0000000180034620     libucrt:atox.obj
 0004:00001638       $pdata$_free_base          0000000180034638     libucrt:free_base.obj
 0004:00001644       $pdata$__acrt_initialize_ptd 0000000180034644     libucrt:per_thread_data.obj
 0004:00001650       $pdata$__acrt_uninitialize_ptd 0000000180034650     libucrt:per_thread_data.obj
 0004:0000165c       $pdata$__acrt_getptd       000000018003465c     libucrt:per_thread_data.obj
 0004:00001668       $pdata$__acrt_getptd_head  0000000180034668     libucrt:per_thread_data.obj
 0004:00001674       $pdata$__acrt_getptd_noexit 0000000180034674     libucrt:per_thread_data.obj
 0004:00001680       $pdata$__acrt_freeptd      0000000180034680     libucrt:per_thread_data.obj
 0004:0000168c       $pdata$?destroy_fls@@YAXPEAX@Z 000000018003468c     libucrt:per_thread_data.obj
 0004:00001698       $pdata$?replace_current_thread_locale_nolock@@YAXQEAU__acrt_ptd@@QEAU__crt_locale_data@@@Z 0000000180034698     libucrt:per_thread_data.obj
 0004:000016a4       $pdata$?construct_ptd_array@@YAXQEAU__acrt_ptd@@@Z 00000001800346a4     libucrt:per_thread_data.obj
 0004:000016b0       $pdata$?destroy_ptd_array@@YAXQEAU__acrt_ptd@@@Z 00000001800346b0     libucrt:per_thread_data.obj
 0004:000016bc       $pdata$??$?RV<lambda_0ae27a3a962d80f24befdcbee591983d>@@AEAV<lambda_8d0ee55de4b1038c4002e0adecdf1839>@@V<lambda_dc504788e8f1664fe9b84e20bfb512f2>@@@?$__crt_seh_guarded_call@X@@QEAAX$$QEAV<lambda_0ae27a3a962d80f24befdcbee591983d>@@AEAV<lambda_8d0ee55de4b1038c4002e0adecdf1839>@@$$QEAV<lambda_dc504788e8f1664fe9b84e20bfb512f2>@@@Z 00000001800346bc     libucrt:per_thread_data.obj
 0004:000016c8       $pdata$??$?RV<lambda_aa87e3671a710a21b5dc78c0bdf72e11>@@AEAV<lambda_92619d2358a28f41a33ba319515a20b9>@@V<lambda_6992ecaafeb10aed2b74cb1fae11a551>@@@?$__crt_seh_guarded_call@X@@QEAAX$$QEAV<lambda_aa87e3671a710a21b5dc78c0bdf72e11>@@AEAV<lambda_92619d2358a28f41a33ba319515a20b9>@@$$QEAV<lambda_6992ecaafeb10aed2b74cb1fae11a551>@@@Z 00000001800346c8     libucrt:per_thread_data.obj
 0004:000016d4       $pdata$??$?RV<lambda_f2e299630e499de9f9a165e60fcd3db5>@@AEAV<lambda_2ae9d31cdba2644fcbeaf08da7c24588>@@V<lambda_40d01ff24d0e7b3814fdbdcee8eab3c7>@@@?$__crt_seh_guarded_call@X@@QEAAX$$QEAV<lambda_f2e299630e499de9f9a165e60fcd3db5>@@AEAV<lambda_2ae9d31cdba2644fcbeaf08da7c24588>@@$$QEAV<lambda_40d01ff24d0e7b3814fdbdcee8eab3c7>@@@Z 00000001800346d4     libucrt:per_thread_data.obj
 0004:000016e0       $pdata$??$?RV<lambda_2d41944a1d46af3157314b8a01080d33>@@AEAV<lambda_8f455de75cd7d7f24b4096f044d8b9e6>@@V<lambda_aa500f224e6afead328df44964fe2772>@@@?$__crt_seh_guarded_call@X@@QEAAX$$QEAV<lambda_2d41944a1d46af3157314b8a01080d33>@@AEAV<lambda_8f455de75cd7d7f24b4096f044d8b9e6>@@$$QEAV<lambda_aa500f224e6afead328df44964fe2772>@@@Z 00000001800346e0     libucrt:per_thread_data.obj
 0004:000016ec       $pdata$_calloc_base        00000001800346ec     libucrt:calloc_base.obj
 0004:000016f8       $pdata$_malloc_base        00000001800346f8     libucrt:malloc_base.obj
 0004:00001704       $pdata$_msize_base         0000000180034704     libucrt:msize.obj
 0004:00001710       $pdata$_realloc_base       0000000180034710     libucrt:realloc_base.obj
 0004:0000171c       $pdata$__acrt_initialize_winapi_thunks 000000018003471c     libucrt:winapi_thunks.obj
 0004:00001728       $pdata$__acrt_uninitialize_winapi_thunks 0000000180034728     libucrt:winapi_thunks.obj
 0004:00001734       $pdata$__acrt_AreFileApisANSI 0000000180034734     libucrt:winapi_thunks.obj
 0004:00001740       $pdata$__acrt_FlsAlloc     0000000180034740     libucrt:winapi_thunks.obj
 0004:0000174c       $pdata$__acrt_FlsFree      000000018003474c     libucrt:winapi_thunks.obj
 0004:00001758       $pdata$__acrt_FlsGetValue  0000000180034758     libucrt:winapi_thunks.obj
 0004:00001764       $pdata$__acrt_FlsSetValue  0000000180034764     libucrt:winapi_thunks.obj
 0004:00001770       $pdata$__acrt_InitializeCriticalSectionEx 0000000180034770     libucrt:winapi_thunks.obj
 0004:0000177c       $pdata$__acrt_LCMapStringEx 000000018003477c     libucrt:winapi_thunks.obj
 0004:00001788       $pdata$__acrt_LocaleNameToLCID 0000000180034788     libucrt:winapi_thunks.obj
 0004:00001794       $pdata$__acrt_AppPolicyGetProcessTerminationMethodInternal 0000000180034794     libucrt:winapi_thunks.obj
 0004:000017a0       $pdata$__acrt_SetThreadStackGuarantee 00000001800347a0     libucrt:winapi_thunks.obj
 0004:000017ac       $pdata$?try_get_function@@YAPEAXW4function_id@?A0x391cf84c@@QEBDQEBW4module_id@2@2@Z 00000001800347ac     libucrt:winapi_thunks.obj
 0004:000017b8       $pdata$wcstol              00000001800347b8     libucrt:strtox.obj
 0004:000017c4       $pdata$_mbtowc_l           00000001800347c4     libucrt:mbtowc.obj
 0004:000017d0       $pdata$__acrt_update_locale_info 00000001800347d0     libucrt:locale_update.obj
 0004:000017dc       $pdata$__acrt_update_multibyte_info 00000001800347dc     libucrt:locale_update.obj
 0004:000017e8       $pdata$__acrt_fp_format    00000001800347e8     libucrt:cvt.obj
 0004:000017f4       $pdata$?fp_format_e_internal@@YAHQEAD_KH_NIQEAU_strflt@@2QEAU__crt_locale_pointers@@@Z 00000001800347f4     libucrt:cvt.obj
 0004:00001800       $pdata$?fp_format_e@@YAHQEBNQEAD_K12H_NIQEAU__crt_locale_pointers@@@Z 0000000180034800     libucrt:cvt.obj
 0004:0000180c       $pdata$?fp_format_a@@YAHQEBNPEAD_KQEAD2H_NIQEAU__crt_locale_pointers@@@Z 000000018003480c     libucrt:cvt.obj
 0004:00001818       $pdata$?fp_format_f_internal@@YAHQEAD_KHQEAU_strflt@@_NQEAU__crt_locale_pointers@@@Z 0000000180034818     libucrt:cvt.obj
 0004:00001824       $pdata$?fp_format_g@@YAHQEBNQEAD_K12H_NIQEAU__crt_locale_pointers@@@Z 0000000180034824     libucrt:cvt.obj
 0004:00001830       $pdata$_fileno             0000000180034830     libucrt:fileno.obj
 0004:0000183c       $pdata$__acrt_initialize_stdio 000000018003483c     libucrt:_file.obj
 0004:00001848       $pdata$__acrt_uninitialize_stdio 0000000180034848     libucrt:_file.obj
 0004:00001854       $pdata$__acrt_uninitialize_locale 0000000180034854     libucrt:wsetlocale.obj
 0004:00001860       $pdata$??$?RV<lambda_410d79af7f07d98d83a3f525b3859a53>@@AEAV<lambda_3e16ef9562a7dcce91392c22ab16ea36>@@V<lambda_38119f0e861e05405d8a144b9b982f0a>@@@?$__crt_seh_guarded_call@X@@QEAAX$$QEAV<lambda_410d79af7f07d98d83a3f525b3859a53>@@AEAV<lambda_3e16ef9562a7dcce91392c22ab16ea36>@@$$QEAV<lambda_38119f0e861e05405d8a144b9b982f0a>@@@Z 0000000180034860     libucrt:wsetlocale.obj
 0004:0000186c       $pdata$?fin$0@?0???$?RV<lambda_410d79af7f07d98d83a3f525b3859a53>@@AEAV<lambda_3e16ef9562a7dcce91392c22ab16ea36>@@V<lambda_38119f0e861e05405d8a144b9b982f0a>@@@?$__crt_seh_guarded_call@X@@QEAAX$$QEAV<lambda_410d79af7f07d98d83a3f525b3859a53>@@AEAV<lambda_3e16ef9562a7dcce91392c22ab16ea36>@@$$QEAV<lambda_38119f0e861e05405d8a144b9b982f0a>@@@Z@4HA 000000018003486c     libucrt:wsetlocale.obj
 0004:00001878       $pdata$__acrt_initialize_lowio 0000000180034878     libucrt:ioinit.obj
 0004:00001884       $pdata$__acrt_initialize_lowio$fin$0 0000000180034884     libucrt:ioinit.obj
 0004:00001884       $pdata$__acrt_lowio_ensure_fh_exists$fin$0 0000000180034884     libucrt:osfinfo.obj
 0004:00001890       $pdata$__acrt_uninitialize_lowio 0000000180034890     libucrt:ioinit.obj
 0004:0000189c       $pdata$?initialize_inherited_file_handles_nolock@@YAXXZ 000000018003489c     libucrt:ioinit.obj
 0004:000018a8       $pdata$?initialize_stdio_handles_nolock@@YAXXZ 00000001800348a8     libucrt:ioinit.obj
 0004:000018b4       $pdata$__acrt_initialize_locks 00000001800348b4     libucrt:locks.obj
 0004:000018c0       $pdata$__acrt_uninitialize_locks 00000001800348c0     libucrt:locks.obj
 0004:000018cc       $pdata$__acrt_get_process_end_policy 00000001800348cc     libucrt:win_policies.obj
 0004:000018d8       $pdata$??$__acrt_mbs_to_wcs_cp@U__crt_win32_buffer_internal_dynamic_resizing@@@@YAHQEBDAEAV?$__crt_win32_buffer@_WU__crt_win32_buffer_internal_dynamic_resizing@@@@I@Z 00000001800348d8     libucrt:argv_wildcards.obj
 0004:000018e4       $pdata$??$__acrt_wcs_to_mbs_cp@U__crt_win32_buffer_internal_dynamic_resizing@@@@YAHQEB_WAEAV?$__crt_win32_buffer@DU__crt_win32_buffer_internal_dynamic_resizing@@@@I@Z 00000001800348e4     libucrt:argv_wildcards.obj
 0004:000018f0       $pdata$??$common_expand_argv_wildcards@D@@YAHQEAPEADQEAPEAPEAD@Z 00000001800348f0     libucrt:argv_wildcards.obj
 0004:000018fc       $pdata$??$copy_and_add_argument_to_buffer@D@@YAHQEBD0_KAEAV?$argument_list@D@?A0x5f5c8891@@@Z 00000001800348fc     libucrt:argv_wildcards.obj
 0004:00001908       $pdata$??$expand_argument_wildcards@D@@YAHQEAD0AEAV?$argument_list@D@?A0x5f5c8891@@@Z 0000000180034908     libucrt:argv_wildcards.obj
 0004:00001914       $pdata$__acrt_GetModuleFileNameA 0000000180034914     libucrt:getmodulefilenamea.obj
 0004:00001920       $pdata$??$__acrt_wcs_to_mbs_cp@U__crt_win32_buffer_no_resizing@@@@YAHQEB_WAEAV?$__crt_win32_buffer@DU__crt_win32_buffer_no_resizing@@@@I@Z 0000000180034920     libucrt:getmodulefilenamea.obj
 0004:0000192c       $pdata$__acrt_update_thread_multibyte_data 000000018003492c     libucrt:mbctype.obj
 0004:00001938       $pdata$__acrt_initialize_multibyte 0000000180034938     libucrt:mbctype.obj
 0004:00001944       $pdata$_setmbcp_nolock     0000000180034944     libucrt:mbctype.obj
 0004:00001950       $pdata$?getSystemCP@@YAHH@Z 0000000180034950     libucrt:mbctype.obj
 0004:0000195c       $pdata$?setSBCS@@YAXPEAU__crt_multibyte_data@@@Z 000000018003495c     libucrt:mbctype.obj
 0004:00001968       $pdata$?update_thread_multibyte_data_internal@@YAPEAU__crt_multibyte_data@@QEAU__acrt_ptd@@QEAPEAU1@@Z 0000000180034968     libucrt:mbctype.obj
 0004:00001974       $pdata$?fin$0@?0??update_thread_multibyte_data_internal@@YAPEAU__crt_multibyte_data@@QEAU__acrt_ptd@@QEAPEAU1@@Z@4HA 0000000180034974     libucrt:mbctype.obj
 0004:00001980       $pdata$?setmbcp_internal@@YAHH_NQEAU__acrt_ptd@@QEAPEAU__crt_multibyte_data@@@Z 0000000180034980     libucrt:mbctype.obj
 0004:0000198c       $pdata$?setSBUpLow@@YAXPEAU__crt_multibyte_data@@@Z 000000018003498c     libucrt:mbctype.obj
 0004:00001998       $pdata$??$?RV<lambda_efdfa57d1f175319df784efa44bb7b81>@@AEAV<lambda_5f0a4c1567f8adc6734073e5d1e1b35c>@@V<lambda_2e8a7d3640ea6ccb4c2413664c2db6fd>@@@?$__crt_seh_guarded_call@X@@QEAAX$$QEAV<lambda_efdfa57d1f175319df784efa44bb7b81>@@AEAV<lambda_5f0a4c1567f8adc6734073e5d1e1b35c>@@$$QEAV<lambda_2e8a7d3640ea6ccb4c2413664c2db6fd>@@@Z 0000000180034998     libucrt:mbctype.obj
 0004:000019a4       $pdata$?x_ismbbtype_l@@YAHPEAU__crt_locale_pointers@@IHH@Z 00000001800349a4     libucrt:ismbbyte.obj
 0004:000019b0       $pdata$__acrt_initialize_command_line 00000001800349b0     libucrt:argv_data.obj
 0004:000019bc       $pdata$__acrt_WideCharToMultiByte 00000001800349bc     libucrt:widechartomultibyte.obj
 0004:000019c8       $pdata$__dcrt_get_narrow_environment_from_os 00000001800349c8     libucrt:get_environment_from_os.obj
 0004:000019d4       $pdata$__acrt_initialize_heap 00000001800349d4     libucrt:heap_handle.obj
 0004:000019e0       $pdata$__acrt_execute_initializers 00000001800349e0     libucrt:shared_initialization.obj
 0004:000019ec       $pdata$__acrt_execute_uninitializers 00000001800349ec     libucrt:shared_initialization.obj
 0004:000019f8       $pdata$__acrt_get_sigabrt_handler 00000001800349f8     libucrt:signal.obj
 0004:00001a04       $pdata$raise               0000000180034a04     libucrt:signal.obj
 0004:00001a10       $pdata$raise$fin$0         0000000180034a10     libucrt:signal.obj
 0004:00001a1c       $pdata$??$?RV<lambda_450d765d439847d4c735a33c368b5fc0>@@AEAV<lambda_44731a7d0e6d81c3e6aa82d741081786>@@V<lambda_601a2a7da3b7a96e9554ac7215c4b07c>@@@?$__crt_seh_guarded_call@P6AXH@Z@@QEAAP6AXH@Z$$QEAV<lambda_450d765d439847d4c735a33c368b5fc0>@@AEAV<lambda_44731a7d0e6d81c3e6aa82d741081786>@@$$QEAV<lambda_601a2a7da3b7a96e9554ac7215c4b07c>@@@Z 0000000180034a1c     libucrt:signal.obj
 0004:00001a28       $pdata$_fflush_nolock      0000000180034a28     libucrt:fflush.obj
 0004:00001a34       $pdata$__acrt_stdio_flush_nolock 0000000180034a34     libucrt:fflush.obj
 0004:00001a40       $pdata$?common_flush_all@@YAH_N@Z 0000000180034a40     libucrt:fflush.obj
 0004:00001a4c       $pdata$??$?RV<lambda_842d9ff0dc9ef11c61343bbaebe7f885>@@AEAV<lambda_c5860995281e5c4ce005b3de8f5874ee>@@V<lambda_d90129c13df834fdcbf8d2b88dafcf2d>@@@?$__crt_seh_guarded_call@X@@QEAAX$$QEAV<lambda_842d9ff0dc9ef11c61343bbaebe7f885>@@AEAV<lambda_c5860995281e5c4ce005b3de8f5874ee>@@$$QEAV<lambda_d90129c13df834fdcbf8d2b88dafcf2d>@@@Z 0000000180034a4c     libucrt:fflush.obj
 0004:00001a58       $pdata$?fin$0@?0???$?RV<lambda_842d9ff0dc9ef11c61343bbaebe7f885>@@AEAV<lambda_c5860995281e5c4ce005b3de8f5874ee>@@V<lambda_d90129c13df834fdcbf8d2b88dafcf2d>@@@?$__crt_seh_guarded_call@X@@QEAAX$$QEAV<lambda_842d9ff0dc9ef11c61343bbaebe7f885>@@AEAV<lambda_c5860995281e5c4ce005b3de8f5874ee>@@$$QEAV<lambda_d90129c13df834fdcbf8d2b88dafcf2d>@@@Z@4HA 0000000180034a58     libucrt:fflush.obj
 0004:00001a64       $pdata$??$?RV<lambda_886d6c58226a84441f68b9f2b8217b83>@@AEAV<lambda_ab61a845afdef5b7c387490eaf3616ee>@@V<lambda_f7f22ab5edc0698d5f6905b0d3f44752>@@@?$__crt_seh_guarded_call@X@@QEAAX$$QEAV<lambda_886d6c58226a84441f68b9f2b8217b83>@@AEAV<lambda_ab61a845afdef5b7c387490eaf3616ee>@@$$QEAV<lambda_f7f22ab5edc0698d5f6905b0d3f44752>@@@Z 0000000180034a64     libucrt:fflush.obj
 0004:00001a70       $pdata$?fin$0@?0???$?RV<lambda_886d6c58226a84441f68b9f2b8217b83>@@AEAV<lambda_ab61a845afdef5b7c387490eaf3616ee>@@V<lambda_f7f22ab5edc0698d5f6905b0d3f44752>@@@?$__crt_seh_guarded_call@X@@QEAAX$$QEAV<lambda_886d6c58226a84441f68b9f2b8217b83>@@AEAV<lambda_ab61a845afdef5b7c387490eaf3616ee>@@$$QEAV<lambda_f7f22ab5edc0698d5f6905b0d3f44752>@@@Z@4HA 0000000180034a70     libucrt:fflush.obj
 0004:00001a7c       $pdata$__pctype_func       0000000180034a7c     libucrt:ctype.obj
 0004:00001a88       $pdata$iswctype            0000000180034a88     libucrt:iswctype.obj
 0004:00001a94       $pdata$__acrt_release_locale_ref 0000000180034a94     libucrt:locale_refcounting.obj
 0004:00001aa0       $pdata$__acrt_free_locale  0000000180034aa0     libucrt:locale_refcounting.obj
 0004:00001aac       $pdata$__acrt_locale_free_lc_time_if_unreferenced 0000000180034aac     libucrt:locale_refcounting.obj
 0004:00001ab8       $pdata$__acrt_update_thread_locale_data 0000000180034ab8     libucrt:locale_refcounting.obj
 0004:00001ac4       $pdata$__acrt_update_thread_locale_data$fin$0 0000000180034ac4     libucrt:locale_refcounting.obj
 0004:00001ad0       $pdata$_updatetlocinfoEx_nolock 0000000180034ad0     libucrt:locale_refcounting.obj
 0004:00001adc       $pdata$__acrt_DownlevelLocaleNameToLCID 0000000180034adc     libucrt:lcidtoname_downlevel.obj
 0004:00001ae8       $pdata$_isleadbyte_l       0000000180034ae8     libucrt:_wctype.obj
 0004:00001af4       $pdata$?__mbrtowc_utf8@__crt_mbstring@@YA_KPEA_WPEBD_KPEAU_Mbstatet@@@Z 0000000180034af4     libucrt:mbrtowc.obj
 0004:00001b00       $pdata$?__mbsrtowcs_utf8@__crt_mbstring@@YA_KPEA_WPEAPEBD_KPEAU_Mbstatet@@@Z 0000000180034b00     libucrt:mbrtowc.obj
 0004:00001b0c       $pdata$__acrt_fp_strflt_to_string 0000000180034b0c     libucrt:_fptostr.obj
 0004:00001b18       $pdata$memcpy_s            0000000180034b18     libucrt:cfout.obj
 0004:00001b24       $pdata$__acrt_fltout       0000000180034b24     libucrt:cfout.obj
 0004:00001b30       $pdata$?divide@__crt_strtox@@YA_KAEAUbig_integer@1@AEBU21@@Z 0000000180034b30     libucrt:cfout.obj
 0004:00001b3c       $pdata$0$?divide@__crt_strtox@@YA_KAEAUbig_integer@1@AEBU21@@Z 0000000180034b3c     libucrt:cfout.obj
 0004:00001b48       $pdata$1$?divide@__crt_strtox@@YA_KAEAUbig_integer@1@AEBU21@@Z 0000000180034b48     libucrt:cfout.obj
 0004:00001b54       $pdata$_fcloseall          0000000180034b54     libucrt:closeall.obj
 0004:00001b60       $pdata$_fcloseall$fin$0    0000000180034b60     libucrt:closeall.obj
 0004:00001b6c       $pdata$__acrt_stdio_free_buffer_nolock 0000000180034b6c     libucrt:_freebuf.obj
 0004:00001b78       $pdata$_isatty             0000000180034b78     libucrt:isatty.obj
 0004:00001b84       $pdata$__acrt_locale_free_monetary 0000000180034b84     libucrt:initmon.obj
 0004:00001b90       $pdata$__acrt_locale_free_numeric 0000000180034b90     libucrt:initnum.obj
 0004:00001b9c       $pdata$__acrt_locale_free_time 0000000180034b9c     libucrt:inittime.obj
 0004:00001ba8       $pdata$?free_crt_array_internal@@YAXQEAPEBX_K@Z 0000000180034ba8     libucrt:inittime.obj
 0004:00001bb4       $pdata$__acrt_GetStringTypeA 0000000180034bb4     libucrt:getstringtypea.obj
 0004:00001bc0       $pdata$_get_osfhandle      0000000180034bc0     libucrt:osfinfo.obj
 0004:00001bcc       $pdata$_free_osfhnd        0000000180034bcc     libucrt:osfinfo.obj
 0004:00001bd8       $pdata$__acrt_lowio_create_handle_array 0000000180034bd8     libucrt:osfinfo.obj
 0004:00001be4       $pdata$__acrt_lowio_destroy_handle_array 0000000180034be4     libucrt:osfinfo.obj
 0004:00001bf0       $pdata$__acrt_lowio_ensure_fh_exists 0000000180034bf0     libucrt:osfinfo.obj
 0004:00001bfc       $pdata$qsort               0000000180034bfc     libucrt:qsort.obj
 0004:00001c08       $pdata$4$qsort             0000000180034c08     libucrt:qsort.obj
 0004:00001c14       $pdata$5$qsort             0000000180034c14     libucrt:qsort.obj
 0004:00001c20       $pdata$strncpy_s           0000000180034c20     libucrt:strncpy_s.obj
 0004:00001c2c       $pdata$strpbrk             0000000180034c2c     libucrt:strpbrk.obj
 0004:00001c38       $pdata$fallbackMethod      0000000180034c38     libucrt:strpbrk.obj
 0004:00001c44       $pdata$_mbsdec_l           0000000180034c44     libucrt:mbsdec.obj
 0004:00001c50       $pdata$__acrt_LCMapStringA 0000000180034c50     libucrt:lcmapstringa.obj
 0004:00001c5c       $pdata$?__acrt_LCMapStringA_stat@@YAHPEAU__crt_locale_pointers@@PEB_WKPEBDHPEADHHH@Z 0000000180034c5c     libucrt:lcmapstringa.obj
 0004:00001c68       $pdata$?initialize_multibyte@@YAHXZ 0000000180034c68     libucrt:multibyte_initializer.obj
 0004:00001c74       $pdata$_commit             0000000180034c74     libucrt:commit.obj
 0004:00001c80       $pdata$??$?RV<lambda_a37b2b86f63e897a80ea819b0eb08c01>@@AEAV<lambda_38ce7e780aa69e748d6df282ebc68efe>@@V<lambda_99fb1378e971ab6e7edea83e3a7a83a2>@@@?$__crt_seh_guarded_call@H@@QEAAH$$QEAV<lambda_a37b2b86f63e897a80ea819b0eb08c01>@@AEAV<lambda_38ce7e780aa69e748d6df282ebc68efe>@@$$QEAV<lambda_99fb1378e971ab6e7edea83e3a7a83a2>@@@Z 0000000180034c80     libucrt:commit.obj
 0004:00001c8c       $pdata$?fin$0@?0???$?RV<lambda_751a882b2c74d4b022dec766aa51a29a>@@AEAV<lambda_628dfdc04ba53c8bfc02c9951375f3f5>@@V<lambda_f6c7be5f7998530c34de24c7437d6b54>@@@?$__crt_seh_guarded_call@H@@QEAAH$$QEAV<lambda_751a882b2c74d4b022dec766aa51a29a>@@AEAV<lambda_628dfdc04ba53c8bfc02c9951375f3f5>@@$$QEAV<lambda_f6c7be5f7998530c34de24c7437d6b54>@@@Z@4HA 0000000180034c8c     libucrt:close.obj
 0004:00001c8c       $pdata$?fin$0@?0???$?RV<lambda_a37b2b86f63e897a80ea819b0eb08c01>@@AEAV<lambda_38ce7e780aa69e748d6df282ebc68efe>@@V<lambda_99fb1378e971ab6e7edea83e3a7a83a2>@@@?$__crt_seh_guarded_call@H@@QEAAH$$QEAV<lambda_a37b2b86f63e897a80ea819b0eb08c01>@@AEAV<lambda_38ce7e780aa69e748d6df282ebc68efe>@@$$QEAV<lambda_99fb1378e971ab6e7edea83e3a7a83a2>@@@Z@4HA 0000000180034c8c     libucrt:commit.obj
 0004:00001c98       $pdata$_write              0000000180034c98     libucrt:write.obj
 0004:00001ca4       $pdata$_write$fin$0        0000000180034ca4     libucrt:write.obj
 0004:00001cb0       $pdata$_write_nolock       0000000180034cb0     libucrt:write.obj
 0004:00001cbc       $pdata$?write_double_translated_ansi_nolock@@YA?AUwrite_result@?A0x17268360@@HQEBDI@Z 0000000180034cbc     libucrt:write.obj
 0004:00001cc8       $pdata$?write_text_ansi_nolock@@YA?AUwrite_result@?A0x17268360@@HQEBDI@Z 0000000180034cc8     libucrt:write.obj
 0004:00001cd4       $pdata$?write_text_utf16le_nolock@@YA?AUwrite_result@?A0x17268360@@HQEBDI@Z 0000000180034cd4     libucrt:write.obj
 0004:00001ce0       $pdata$?write_text_utf8_nolock@@YA?AUwrite_result@?A0x17268360@@HQEBDI@Z 0000000180034ce0     libucrt:write.obj
 0004:00001cec       $pdata$?__mbrtoc32_utf8@__crt_mbstring@@YA_KPEA_UPEBD_KPEAU_Mbstatet@@@Z 0000000180034cec     libucrt:mbrtoc32.obj
 0004:00001cf8       $pdata$fegetenv            0000000180034cf8     libucrt:fegetenv.obj
 0004:00001d04       $pdata$fesetenv            0000000180034d04     libucrt:fesetenv.obj
 0004:00001d10       $pdata$feholdexcept        0000000180034d10     libucrt:feholdexcept.obj
 0004:00001d28       $pdata$??$common_lseek_nolock@_J@@YA_JH_JH@Z 0000000180034d28     libucrt:lseek.obj
 0004:00001d34       $pdata$fclose              0000000180034d34     libucrt:fclose.obj
 0004:00001d40       $pdata$fclose$fin$0        0000000180034d40     libucrt:fclose.obj
 0004:00001d4c       $pdata$_fclose_nolock      0000000180034d4c     libucrt:fclose.obj
 0004:00001d58       $pdata$_putwch_nolock      0000000180034d58     libucrt:putwch.obj
 0004:00001d64       $pdata$__acrt_fenv_set_control 0000000180034d64     libucrt:_fenvutils.obj
 0004:00001d70       $pdata$_clearfp            0000000180034d70     libucrt:ieee.obj
 0004:00001d7c       $pdata$_call_matherr       0000000180034d7c     libucrt:libm_error.obj
 0004:00001d88       $pdata$_exception_enabled  0000000180034d88     libucrt:libm_error.obj
 0004:00001d94       $pdata$_handle_error       0000000180034d94     libucrt:libm_error.obj
 0004:00001da0       $pdata$__acrt_initialize_fma3 0000000180034da0     libucrt:fma3_available.obj
 0004:00001dac       $pdata$_log_special_common 0000000180034dac     libucrt:log_special.obj
 0004:00001db8       $pdata$_log10_special      0000000180034db8     libucrt:log_special.obj
 0004:00001dc4       $pdata$_close              0000000180034dc4     libucrt:close.obj
 0004:00001dd0       $pdata$_close_nolock       0000000180034dd0     libucrt:close.obj
 0004:00001ddc       $pdata$??$?RV<lambda_751a882b2c74d4b022dec766aa51a29a>@@AEAV<lambda_628dfdc04ba53c8bfc02c9951375f3f5>@@V<lambda_f6c7be5f7998530c34de24c7437d6b54>@@@?$__crt_seh_guarded_call@H@@QEAAH$$QEAV<lambda_751a882b2c74d4b022dec766aa51a29a>@@AEAV<lambda_628dfdc04ba53c8bfc02c9951375f3f5>@@$$QEAV<lambda_f6c7be5f7998530c34de24c7437d6b54>@@@Z 0000000180034ddc     libucrt:close.obj
 0004:00001de8       $pdata$__dcrt_lowio_ensure_console_output_initialized 0000000180034de8     libucrt:initcon.obj
 0004:00001df4       $pdata$__dcrt_write_console 0000000180034df4     libucrt:initcon.obj
 0004:00001e00       $pdata$__dcrt_terminate_console_output 0000000180034e00     libucrt:initcon.obj
 0004:00001e18       $pdata$_set_errno_from_matherr 0000000180034e18     libucrt:fpexcept.obj
 0004:00001e24       $pdata$_raise_exc          0000000180034e24     libucrt:fpexcept.obj
 0004:00001e30       $pdata$_raise_exc_ex       0000000180034e30     libucrt:fpexcept.obj
 0004:00001e3c       $pdata$_clrfp              0000000180034e3c     libucrt:fpctrl.obj
 0004:00001e48       $pdata$_ctrlfp             0000000180034e48     libucrt:fpctrl.obj
 0004:00001e54       $pdata$_ctrlfp$filt$0      0000000180034e54     libucrt:fpctrl.obj
 0004:00001e60       $pdata$_statfp             0000000180034e60     libucrt:fpctrl.obj
 0004:00001e6c       $pdata$_set_statfp         0000000180034e6c     libucrt:fpctrl.obj
 0004:00001e78       $pdata$_IsNonwritableInCurrentImage 0000000180034e78     LIBCMT:pesect.obj
 0004:00001e84       $pdata$_IsNonwritableInCurrentImage$filt$0 0000000180034e84     LIBCMT:pesect.obj
 0005:00000000       MoveSmall                  0000000180035000     libvcruntime:memcpy.obj
 0005:00000050       MsetTab                    0000000180035050     libvcruntime:memset.obj
 0006:00000220       $R000000                   0000000180036220     Totals.res
 0006:00000ba0       $R000980                   0000000180036ba0     Totals.res
 0006:00000c88       $R000A68                   0000000180036c88     Totals.res
 0006:00000ef0       $R000CD0                   0000000180036ef0     Totals.res
 0006:00001438       $R001218                   0000000180037438     Totals.res
 0006:00004160       $R003F40                   000000018003a160     Totals.res
 0006:00004190       $R003F70                   000000018003a190     Totals.res
