 OPOSMICR

 Timestamp is 5ed458b6 (Mon Jun  1 10:24:06 2020)

 Preferred load address is 0000000180000000

 Start         Length     Name                   Class
 0001:00000000 000000c0H .text$di                CODE
 0001:000000c0 00021100H .text$mn                CODE
 0001:000211c0 00000040H .text$mn$00             CODE
 0001:00021200 000004b0H .text$x                 CODE
 0001:000216b0 00000078H .text$yd                CODE
 0002:00000000 00000618H .idata$5                DATA
 0002:00000618 00000028H .00cfg                  DATA
 0002:00000640 00000008H .CRT$XCA                DATA
 0002:00000648 00000008H .CRT$XCL                DATA
 0002:00000650 00000020H .CRT$XCU                DATA
 0002:00000670 00000008H .CRT$XCZ                DATA
 0002:00000678 00000008H .CRT$XIA                DATA
 0002:00000680 00000020H .CRT$XIC                DATA
 0002:000006a0 00000008H .CRT$XIZ                DATA
 0002:000006a8 00000008H .CRT$XLA                DATA
 0002:000006b0 00000008H .CRT$XLZ                DATA
 0002:000006b8 00000008H .CRT$XPA                DATA
 0002:000006c0 00000010H .CRT$XPX                DATA
 0002:000006d0 00000008H .CRT$XPXA               DATA
 0002:000006d8 00000008H .CRT$XPZ                DATA
 0002:000006e0 00000008H .CRT$XTA                DATA
 0002:000006e8 00000008H .CRT$XTZ                DATA
 0002:000006f0 00000000H .gfids$y                DATA
 0002:000006f0 0000a850H .rdata                  DATA
 0002:0000af40 00000028H .rdata$T                DATA
 0002:0000af68 00000274H .rdata$r                DATA
 0002:0000b1dc 00000404H .rdata$zzzdbg           DATA
 0002:0000b5e0 00000008H .rtc$IAA                DATA
 0002:0000b5e8 00000008H .rtc$IZZ                DATA
 0002:0000b5f0 00000008H .rtc$TAA                DATA
 0002:0000b5f8 00000008H .rtc$TZZ                DATA
 0002:0000b600 00000004H .tls                    DATA
 0002:0000b604 00000004H .tls$                   DATA
 0002:0000b608 00000008H .tls$ZZZ                DATA
 0002:0000b610 000016b0H .xdata                  DATA
 0002:0000ccc0 00000150H .xdata$x                DATA
 0002:0000ce10 00000008H ATL$__a                 DATA
 0002:0000ce18 00000008H ATL$__z                 DATA
 0002:0000ce20 000000a8H .edata                  DATA
 0002:0000cec8 00000078H .idata$2                DATA
 0002:0000cf40 00000018H .idata$3                DATA
 0002:0000cf58 00000618H .idata$4                DATA
 0002:0000d570 00000c2aH .idata$6                DATA
 0003:00000000 00000da8H .data                   DATA
 0003:00000da8 000000c8H .data$r                 DATA
 0003:00000e70 0000140cH .bss                    DATA
 0004:00000000 00001e6cH .pdata                  DATA
 0005:00000000 00000094H _RDATA                  DATA
 0006:00000000 00000220H .rsrc$01                DATA
 0006:00000220 00004038H .rsrc$02                DATA

  Address         Publics by Value              Rva+Base               Lib:Object

 0000:00000000       __guard_fids_count         0000000000000000     <absolute>
 0000:00000000       __x64_code_ranges_to_entry_points 0000000000000000     <absolute>
 0000:00000000       __guard_longjmp_count      0000000000000000     <absolute>
 0000:00000000       __guard_longjmp_table      0000000000000000     <absolute>
 0000:00000000       __hybrid_code_map          0000000000000000     <absolute>
 0000:00000000       __arm64x_redirection_metadata 0000000000000000     <absolute>
 0000:00000000       __guard_iat_count          0000000000000000     <absolute>
 0000:00000000       __guard_eh_cont_count      0000000000000000     <absolute>
 0000:00000000       __arm64x_native_entrypoint 0000000000000000     <absolute>
 0000:00000000       __guard_iat_table          0000000000000000     <absolute>
 0000:00000000       __volatile_metadata        0000000000000000     <absolute>
 0000:00000000       __hybrid_code_map_count    0000000000000000     <absolute>
 0000:00000000       __guard_eh_cont_table      0000000000000000     <absolute>
 0000:00000000       __enclave_config           0000000000000000     <absolute>
 0000:00000000       ___safe_se_handler_count   0000000000000000     <absolute>
 0000:00000000       __AbsoluteZero             0000000000000000     <absolute>
 0000:00000000       ___safe_se_handler_table   0000000000000000     <absolute>
 0000:00000000       __dynamic_value_reloc_table 0000000000000000     <absolute>
 0000:00000000       __guard_fids_table         0000000000000000     <absolute>
 0000:00000000       __hybrid_auxiliary_iat     0000000000000000     <absolute>
 0000:00000100       __guard_flags              0000000000000100     <absolute>
 0000:00000000       __ImageBase                0000000180000000     <linker-defined>
 0001:000000c0       ?DupWide@_CW@@AEAAXXZ      00000001800010c0 f   CWString.obj
 0001:000000e8       ?cw_dup@@YAXPEBDAEAHAEAPEA_W1@Z 00000001800010e8 f   CWString.obj
 0001:000001c8       ?cw_memcpy@@YAHPEA_WPEBDH@Z 00000001800011c8 f   CWString.obj
 0001:00000214       ?cw_strcpy@@YAHPEA_WPEBD@Z 0000000180001214 f   CWString.obj
 0001:00000228       ??0CAtlComModule@ATL@@QEAA@XZ 0000000180001228 f i OposVariant.obj
 0001:000002a8       ??0CAtlWinModule@ATL@@QEAA@XZ 00000001800012a8 f i OposVariant.obj
 0001:00000314       ??0OposDispParms@@QEAA@PEAVOposVariant@@H@Z 0000000180001314 f   OposVariant.obj
 0001:000003bc       ??1OposDispParms@@QEAA@XZ  00000001800013bc f   OposVariant.obj
 0001:000003d4       ??_Estringdispid@CComTypeInfoHolder@ATL@@QEAAPEAXI@Z 00000001800013d4 f i OposVariant.obj
 0001:00000478       ?AtlWinModuleTerm@ATL@@YAJPEAU_ATL_WIN_MODULE70@1@PEAUHINSTANCE__@@@Z 0000000180001478 f i OposVariant.obj
 0001:00000528       ?ChangeBSTR@OposVariant@@QEAAXPEAPEA_WAEAJ@Z 0000000180001528 f   OposVariant.obj
 0001:00000588       ?ChangeLONG@OposVariant@@QEAAXPEAJAEAJ@Z 0000000180001588 f   OposVariant.obj
 0001:000005e4       ?GetLONG@OposVariant@@QEAAJXZ 00000001800015e4 f   OposVariant.obj
 0001:00000608       ?SetBSTR@OposVariant@@QEAAXPEA_WAEAJ@Z 0000000180001608 f   OposVariant.obj
 0001:00000648       ?SetBSTR_Copy@OposVariant@@QEAAXPEA_WAEAJ@Z 0000000180001648 f   OposVariant.obj
 0001:000006b8       ?SetBSTR_InOutPtr@OposVariant@@QEAA_NPEAPEA_WAEAJ@Z 00000001800016b8 f   OposVariant.obj
 0001:00000708       ?SetDispatch_Ptr@OposVariant@@QEAAXPEAUIDispatch@@AEAJ@Z 0000000180001708 f   OposVariant.obj
 0001:00000760       ?SetLONG@OposVariant@@QEAAXJ@Z 0000000180001760 f   OposVariant.obj
 0001:00000790       ?SetLONG_Ptr@OposVariant@@QEAAXPEAJAEAJ@Z 0000000180001790 f   OposVariant.obj
 0001:000007dc       ?SetString@OposVariant@@QEAAXPEB_WAEAJ@Z 00000001800017dc f   OposVariant.obj
 0001:00000840       ?SetVARIANT_BOOL@OposVariant@@QEAAXF@Z 0000000180001840 f   OposVariant.obj
 0001:00000878       ?Term@CAtlComModule@ATL@@QEAAXXZ 0000000180001878 f i OposVariant.obj
 0001:000008e8       ?_AtlInitializeCriticalSectionEx@ATL@@YAHPEAU_RTL_CRITICAL_SECTION@@KK@Z 00000001800018e8 f i OposVariant.obj
 0001:000008f0       ?_AtlRaiseException@ATL@@YAXKK@Z 00000001800018f0 f i OposVariant.obj
 0001:00000900       ?GetWindowProc@?$CWindowImplBaseT@VCWindow@ATL@@V?$CWinTraits@$0FGAAAAAA@$0A@@2@@ATL@@UEAAP6A_JPEAUHWND__@@I_K_J@ZXZ 0000000180001900 f i MICR.obj
 0001:00000908       ?StartWindowProc@?$CWindowImplBaseT@VCWindow@ATL@@V?$CWinTraits@$0FGAAAAAA@$0A@@2@@ATL@@SA_JPEAUHWND__@@I_K_J@Z 0000000180001908 f i MICR.obj
 0001:000009cc       _guard_check_icall_nop     00000001800019cc f i LIBCMT:guard_support.obj
 0001:000009cc       ?OnFinalMessage@?$CWindowImplBaseT@VCWindow@ATL@@V?$CWinTraits@$0FGAAAAAA@$0A@@2@@ATL@@UEAAXPEAUHWND__@@@Z 00000001800019cc f i MICR.obj
 0001:000009cc       ?ObjectMain@CComObjectRootBase@ATL@@SAX_N@Z 00000001800019cc f i MICR.obj
 0001:000009d0       ?GetTypeInfoCount@?$IDispatchImpl@UIOPOSMICR@@$1?IID_IOPOSMICR@@3U_GUID@@B$1?LIBID_OposMICR_CCO@@3U3@B$00$0A@VCComTypeInfoHolder@ATL@@@ATL@@UEAAJPEAI@Z 00000001800019d0 f i MICR.obj
 0001:000009e4       ?GetTypeInfo@?$IDispatchImpl@UIOPOSMICR@@$1?IID_IOPOSMICR@@3U_GUID@@B$1?LIBID_OposMICR_CCO@@3U3@B$00$0A@VCComTypeInfoHolder@ATL@@@ATL@@UEAAJIKPEAPEAUITypeInfo@@@Z 00000001800019e4 f i MICR.obj
 0001:00000a48       ?GetIDsOfNames@?$IDispatchImpl@UIOPOSMICR@@$1?IID_IOPOSMICR@@3U_GUID@@B$1?LIBID_OposMICR_CCO@@3U3@B$00$0A@VCComTypeInfoHolder@ATL@@@ATL@@UEAAJAEBU_GUID@@PEAPEA_WIKPEAJ@Z 0000000180001a48 f i MICR.obj
 0001:00000a54       ?Invoke@?$IDispatchImpl@UIOPOSMICR@@$1?IID_IOPOSMICR@@3U_GUID@@B$1?LIBID_OposMICR_CCO@@3U3@B$00$0A@VCComTypeInfoHolder@ATL@@@ATL@@UEAAJJAEBU_GUID@@KGPEAUtagDISPPARAMS@@PEAUtagVARIANT@@PEAUtagEXCEPINFO@@PEAI@Z 0000000180001a54 f i MICR.obj
 0001:00000ae4       ?CreateControlWindow@?$CComControl@VCOPOSMICR@@V?$CWindowImpl@VCOPOSMICR@@VCWindow@ATL@@V?$CWinTraits@$0FGAAAAAA@$0A@@3@@ATL@@@ATL@@UEAAPEAUHWND__@@PEAU3@AEAUtagRECT@@@Z 0000000180001ae4 f i MICR.obj
 0001:00000b1c       ?ControlQueryInterface@?$CComControl@VCOPOSMICR@@V?$CWindowImpl@VCOPOSMICR@@VCWindow@ATL@@V?$CWinTraits@$0FGAAAAAA@$0A@@3@@ATL@@@ATL@@UEAAJAEBU_GUID@@PEAPEAX@Z 0000000180001b1c f i MICR.obj
 0001:00000b30       ?GetClassID@?$IPersistStorageImpl@VCOPOSMICR@@@ATL@@UEAAJPEAU_GUID@@@Z 0000000180001b30 f i MICR.obj
 0001:00000b30       ?GetClassID@?$IPersistStreamInitImpl@VCOPOSMICR@@@ATL@@UEAAJPEAU_GUID@@@Z 0000000180001b30 f i MICR.obj
 0001:00000b30       ?GetUserClassID@?$IOleObjectImpl@VCOPOSMICR@@@ATL@@UEAAJPEAU_GUID@@@Z 0000000180001b30 f i MICR.obj
 0001:00000b4c       ?IsDirty@?$IPersistStreamInitImpl@VCOPOSMICR@@@ATL@@UEAAJXZ 0000000180001b4c f i MICR.obj
 0001:00000b68       ?Load@?$IPersistStreamInitImpl@VCOPOSMICR@@@ATL@@UEAAJPEAUIStream@@@Z 0000000180001b68 f i MICR.obj
 0001:00000b80       ?Save@?$IPersistStreamInitImpl@VCOPOSMICR@@@ATL@@UEAAJPEAUIStream@@H@Z 0000000180001b80 f i MICR.obj
 0001:00000b98       ?GetSizeMax@?$IPersistStreamInitImpl@VCOPOSMICR@@@ATL@@UEAAJPEAT_ULARGE_INTEGER@@@Z 0000000180001b98 f i MICR.obj
 0001:00000dc4       ?InitNew@?$IPersistStreamInitImpl@VCOPOSMICR@@@ATL@@UEAAJXZ 0000000180001dc4 f i MICR.obj
 0001:00000ddc       ?GetClipboardData@?$IOleObjectImpl@VCOPOSMICR@@@ATL@@UEAAJKPEAPEAUIDataObject@@@Z 0000000180001ddc f i MICR.obj
 0001:00000ddc       ?EnumFormatEtc@?$IDataObjectImpl@VCOPOSMICR@@@ATL@@UEAAJKPEAPEAUIEnumFORMATETC@@@Z 0000000180001ddc f i MICR.obj
 0001:00000ddc       ?GetRect@?$IViewObjectExImpl@VCOPOSMICR@@@ATL@@UEAAJKPEAU_RECTL@@@Z 0000000180001ddc f i MICR.obj
 0001:00000ddc       ?GetDataHere@?$IDataObjectImpl@VCOPOSMICR@@@ATL@@UEAAJPEAUtagFORMATETC@@PEAUtagSTGMEDIUM@@@Z 0000000180001ddc f i MICR.obj
 0001:00000ddc       ?QueryInterface@CRegObject@ATL@@UEAAJAEBU_GUID@@PEAPEAX@Z 0000000180001ddc f i MICR.obj
 0001:00000ddc       ?GetDropTarget@?$IOleInPlaceObjectWindowlessImpl@VCOPOSMICR@@@ATL@@UEAAJPEAPEAUIDropTarget@@@Z 0000000180001ddc f i MICR.obj
 0001:00000ddc       ?QueryGetData@?$IDataObjectImpl@VCOPOSMICR@@@ATL@@UEAAJPEAUtagFORMATETC@@@Z 0000000180001ddc f i MICR.obj
 0001:00000ddc       ?SetData@?$IDataObjectImpl@VCOPOSMICR@@@ATL@@UEAAJPEAUtagFORMATETC@@PEAUtagSTGMEDIUM@@H@Z 0000000180001ddc f i MICR.obj
 0001:00000ddc       ?ContextSensitiveHelp@?$IOleInPlaceActiveObjectImpl@VCOPOSMICR@@@ATL@@UEAAJH@Z 0000000180001ddc f i MICR.obj
 0001:00000ddc       ?SetMoniker@?$IOleObjectImpl@VCOPOSMICR@@@ATL@@UEAAJKPEAUIMoniker@@@Z 0000000180001ddc f i MICR.obj
 0001:00000ddc       ?GetCanonicalFormatEtc@?$IDataObjectImpl@VCOPOSMICR@@@ATL@@UEAAJPEAUtagFORMATETC@@0@Z 0000000180001ddc f i MICR.obj
 0001:00000ddc       ?SetColorScheme@?$IOleObjectImpl@VCOPOSMICR@@@ATL@@UEAAJPEAUtagLOGPALETTE@@@Z 0000000180001ddc f i MICR.obj
 0001:00000ddc       ?SOOutputCompleteDummy@COPOSMICR@@MEAAJJ@Z 0000000180001ddc f i MICR.obj
 0001:00000ddc       ?OnMnemonic@?$IOleControlImpl@VCOPOSMICR@@@ATL@@UEAAJPEAUtagMSG@@@Z 0000000180001ddc f i MICR.obj
 0001:00000ddc       ?InitFromData@?$IOleObjectImpl@VCOPOSMICR@@@ATL@@UEAAJPEAUIDataObject@@HK@Z 0000000180001ddc f i MICR.obj
 0001:00000ddc       ?GetControlInfo@?$IOleControlImpl@VCOPOSMICR@@@ATL@@UEAAJPEAUtagCONTROLINFO@@@Z 0000000180001ddc f i MICR.obj
 0001:00000ddc       ?Freeze@?$IViewObjectExImpl@VCOPOSMICR@@@ATL@@UEAAJKJPEAXPEAK@Z 0000000180001ddc f i MICR.obj
 0001:00000ddc       ?GetMoniker@?$IOleObjectImpl@VCOPOSMICR@@@ATL@@UEAAJKKPEAPEAUIMoniker@@@Z 0000000180001ddc f i MICR.obj
 0001:00000ddc       ?ReactivateAndUndo@?$IOleInPlaceObjectWindowlessImpl@VCOPOSMICR@@@ATL@@UEAAJXZ 0000000180001ddc f i MICR.obj
 0001:00000ddc       ?Unfreeze@?$IViewObjectExImpl@VCOPOSMICR@@@ATL@@UEAAJK@Z 0000000180001ddc f i MICR.obj
 0001:00000ddc       ?ContextSensitiveHelp@?$IOleInPlaceObjectWindowlessImpl@VCOPOSMICR@@@ATL@@UEAAJH@Z 0000000180001ddc f i MICR.obj
 0001:00000ddc       ?GetColorSet@?$IViewObjectExImpl@VCOPOSMICR@@@ATL@@UEAAJKJPEAXPEAUtagDVTARGETDEVICE@@PEAUHDC__@@PEAPEAUtagLOGPALETTE@@@Z 0000000180001ddc f i MICR.obj
 0001:00000de4       ?GetObjectDescription@?$CComCoClass@VCOPOSMICR@@$1?CLSID_OPOSMICR@@3U_GUID@@B@ATL@@SAPEB_WXZ 0000000180001de4 f i MICR.obj
 0001:00000de4       ?IsUpToDate@?$IOleObjectImpl@VCOPOSMICR@@@ATL@@UEAAJXZ 0000000180001de4 f i MICR.obj
 0001:00000de4       ?Update@?$IOleObjectImpl@VCOPOSMICR@@@ATL@@UEAAJXZ 0000000180001de4 f i MICR.obj
 0001:00000de4       ?OnAmbientPropertyChange@?$IOleControlImpl@VCOPOSMICR@@@ATL@@UEAAJJ@Z 0000000180001de4 f i MICR.obj
 0001:00000de4       ?HandsOffStorage@?$IPersistStorageImpl@VCOPOSMICR@@@ATL@@UEAAJXZ 0000000180001de4 f i MICR.obj
 0001:00000de4       ?GetCategoryMap@CComObjectRootBase@ATL@@SAPEBU_ATL_CATMAP_ENTRY@2@XZ 0000000180001de4 f i MICR.obj
 0001:00000de4       ?SaveCompleted@?$IPersistStorageImpl@VCOPOSMICR@@@ATL@@UEAAJPEAUIStorage@@@Z 0000000180001de4 f i MICR.obj
 0001:00000de4       ?EnableModeless@?$IOleInPlaceActiveObjectImpl@VCOPOSMICR@@@ATL@@UEAAJH@Z 0000000180001de4 f i MICR.obj
 0001:00000de4       ?ResizeBorder@?$IOleInPlaceActiveObjectImpl@VCOPOSMICR@@@ATL@@UEAAJPEBUtagRECT@@PEAUIOleInPlaceUIWindow@@H@Z 0000000180001de4 f i MICR.obj
 0001:00000de4       ?OnFrameWindowActivate@?$IOleInPlaceActiveObjectImpl@VCOPOSMICR@@@ATL@@UEAAJH@Z 0000000180001de4 f i MICR.obj
 0001:00000de4       ?Release@CRegObject@ATL@@UEAAKXZ 0000000180001de4 f i MICR.obj
 0001:00000de4       ?SetHostNames@?$IOleObjectImpl@VCOPOSMICR@@@ATL@@UEAAJPEB_W0@Z 0000000180001de4 f i MICR.obj
 0001:00000de8       ?SetClientSite@?$IOleObjectImpl@VCOPOSMICR@@@ATL@@UEAAJPEAUIOleClientSite@@@Z 0000000180001de8 f i MICR.obj
 0001:00000e04       ?GetClientSite@?$IOleObjectImpl@VCOPOSMICR@@@ATL@@UEAAJPEAPEAUIOleClientSite@@@Z 0000000180001e04 f i MICR.obj
 0001:00000e4c       ?Close@?$IOleObjectImpl@VCOPOSMICR@@@ATL@@UEAAJK@Z 0000000180001e4c f i MICR.obj
 0001:00000e68       ?DoVerb@?$IOleObjectImpl@VCOPOSMICR@@@ATL@@UEAAJJPEAUtagMSG@@PEAUIOleClientSite@@JPEAUHWND__@@PEBUtagRECT@@@Z 0000000180001e68 f i MICR.obj
 0001:0000100c       ?EnumVerbs@?$IOleObjectImpl@VCOPOSMICR@@@ATL@@UEAAJPEAPEAUIEnumOLEVERB@@@Z 000000018000200c f i MICR.obj
 0001:00001028       ?GetUserType@?$IOleObjectImpl@VCOPOSMICR@@@ATL@@UEAAJKPEAPEA_W@Z 0000000180002028 f i MICR.obj
 0001:00001038       ?SetExtent@?$IOleObjectImpl@VCOPOSMICR@@@ATL@@UEAAJKPEAUtagSIZE@@@Z 0000000180002038 f i MICR.obj
 0001:00001054       ?GetExtent@?$IOleObjectImpl@VCOPOSMICR@@@ATL@@UEAAJKPEAUtagSIZE@@@Z 0000000180002054 f i MICR.obj
 0001:00001084       ?Advise@?$IOleObjectImpl@VCOPOSMICR@@@ATL@@UEAAJPEAUIAdviseSink@@PEAK@Z 0000000180002084 f i MICR.obj
 0001:000010e0       ?Unadvise@?$IOleObjectImpl@VCOPOSMICR@@@ATL@@UEAAJK@Z 00000001800020e0 f i MICR.obj
 0001:00001118       ?EnumAdvise@?$IOleObjectImpl@VCOPOSMICR@@@ATL@@UEAAJPEAPEAUIEnumSTATDATA@@@Z 0000000180002118 f i MICR.obj
 0001:00001160       ?GetMiscStatus@?$IOleObjectImpl@VCOPOSMICR@@@ATL@@UEAAJKPEAK@Z 0000000180002160 f i MICR.obj
 0001:00001170       ?GetWindow@?$IOleInPlaceActiveObjectImpl@VCOPOSMICR@@@ATL@@UEAAJPEAPEAUHWND__@@@Z 0000000180002170 f i MICR.obj
 0001:000011c4       ?TranslateAcceleratorW@?$IOleInPlaceActiveObjectImpl@VCOPOSMICR@@@ATL@@UEAAJPEAUtagMSG@@@Z 00000001800021c4 f i MICR.obj
 0001:000012b8       ?OnDocWindowActivate@?$IOleInPlaceActiveObjectImpl@VCOPOSMICR@@@ATL@@UEAAJH@Z 00000001800022b8 f i MICR.obj
 0001:000012e4       ?Draw@?$IViewObjectExImpl@VCOPOSMICR@@@ATL@@UEAAJKJPEAXPEAUtagDVTARGETDEVICE@@PEAUHDC__@@2PEBU_RECTL@@3P6AH_K@Z4@Z 00000001800022e4 f i MICR.obj
 0001:00001348       ?SetAdvise@?$IViewObjectExImpl@VCOPOSMICR@@@ATL@@UEAAJKKPEAUIAdviseSink@@@Z 0000000180002348 f i MICR.obj
 0001:0000139c       ?GetAdvise@?$IViewObjectExImpl@VCOPOSMICR@@@ATL@@UEAAJPEAK0PEAPEAUIAdviseSink@@@Z 000000018000239c f i MICR.obj
 0001:000013d8       ?GetExtent@?$IViewObjectExImpl@VCOPOSMICR@@@ATL@@UEAAJKJPEAUtagDVTARGETDEVICE@@PEAUtagSIZE@@@Z 00000001800023d8 f i MICR.obj
 0001:00001408       ?GetViewStatus@?$IViewObjectExImpl@VCOPOSMICR@@@ATL@@UEAAJPEAK@Z 0000000180002408 f i MICR.obj
 0001:0000141c       ?QueryHitPoint@?$IViewObjectExImpl@VCOPOSMICR@@@ATL@@UEAAJKPEBUtagRECT@@UtagPOINT@@JPEAK@Z 000000018000241c f i MICR.obj
 0001:00001460       ?QueryHitRect@?$IViewObjectExImpl@VCOPOSMICR@@@ATL@@UEAAJKPEBUtagRECT@@0JPEAK@Z 0000000180002460 f i MICR.obj
 0001:000014c8       ?GetNaturalExtent@?$IViewObjectExImpl@VCOPOSMICR@@@ATL@@UEAAJKJPEAUtagDVTARGETDEVICE@@PEAUHDC__@@PEAUtagExtentInfo@@PEAUtagSIZE@@@Z 00000001800024c8 f i MICR.obj
 0001:00001510       ?GetWindow@?$IOleInPlaceObjectWindowlessImpl@VCOPOSMICR@@@ATL@@UEAAJPEAPEAUHWND__@@@Z 0000000180002510 f i MICR.obj
 0001:00001564       ?InPlaceDeactivate@?$IOleInPlaceObjectWindowlessImpl@VCOPOSMICR@@@ATL@@UEAAJXZ 0000000180002564 f i MICR.obj
 0001:00001580       ?UIDeactivate@?$IOleInPlaceObjectWindowlessImpl@VCOPOSMICR@@@ATL@@UEAAJXZ 0000000180002580 f i MICR.obj
 0001:0000159c       ?SetObjectRects@?$IOleInPlaceObjectWindowlessImpl@VCOPOSMICR@@@ATL@@UEAAJPEBUtagRECT@@0@Z 000000018000259c f i MICR.obj
 0001:000015b8       ?OnWindowMessage@?$IOleInPlaceObjectWindowlessImpl@VCOPOSMICR@@@ATL@@UEAAJI_K_JPEA_J@Z 00000001800025b8 f i MICR.obj
 0001:00001680       ?EnumConnectionPoints@?$IConnectionPointContainerImpl@VCOPOSMICR@@@ATL@@UEAAJPEAPEAUIEnumConnectionPoints@@@Z 0000000180002680 f i MICR.obj
 0001:000018cc       ?FindConnectionPoint@?$IConnectionPointContainerImpl@VCOPOSMICR@@@ATL@@UEAAJAEBU_GUID@@PEAPEAUIConnectionPoint@@@Z 00000001800028cc f i MICR.obj
 0001:0000199c       ?IsDirty@?$IPersistStorageImpl@VCOPOSMICR@@@ATL@@UEAAJXZ 000000018000299c f i MICR.obj
 0001:000019dc       ?InitNew@?$IPersistStorageImpl@VCOPOSMICR@@@ATL@@UEAAJPEAUIStorage@@@Z 00000001800029dc f i MICR.obj
 0001:00001a1c       ?Load@?$IPersistStorageImpl@VCOPOSMICR@@@ATL@@UEAAJPEAUIStorage@@@Z 0000000180002a1c f i MICR.obj
 0001:00001abc       ?Save@?$IPersistStorageImpl@VCOPOSMICR@@@ATL@@UEAAJPEAUIStorage@@H@Z 0000000180002abc f i MICR.obj
 0001:00001b6c       ?GetPages@?$ISpecifyPropertyPagesImpl@VCOPOSMICR@@@ATL@@UEAAJPEAUtagCAUUID@@@Z 0000000180002b6c f i MICR.obj
 0001:00001b78       ?QuickActivate@?$IQuickActivateImpl@VCOPOSMICR@@@ATL@@UEAAJPEAUtagQACONTAINER@@PEAUtagQACONTROL@@@Z 0000000180002b78 f i MICR.obj
 0001:00001b94       ?SetContentExtent@?$IQuickActivateImpl@VCOPOSMICR@@@ATL@@UEAAJPEAUtagSIZE@@@Z 0000000180002b94 f i MICR.obj
 0001:00001bc8       ?GetContentExtent@?$IQuickActivateImpl@VCOPOSMICR@@@ATL@@UEAAJPEAUtagSIZE@@@Z 0000000180002bc8 f i MICR.obj
 0001:00001c00       ?GetData@?$IDataObjectImpl@VCOPOSMICR@@@ATL@@UEAAJPEAUtagFORMATETC@@PEAUtagSTGMEDIUM@@@Z 0000000180002c00 f i MICR.obj
 0001:00001c1c       ?DAdvise@?$IDataObjectImpl@VCOPOSMICR@@@ATL@@UEAAJPEAUtagFORMATETC@@KPEAUIAdviseSink@@PEAK@Z 0000000180002c1c f i MICR.obj
 0001:00001ca4       ?DUnadvise@?$IDataObjectImpl@VCOPOSMICR@@@ATL@@UEAAJK@Z 0000000180002ca4 f i MICR.obj
 0001:00001cd0       ?EnumDAdvise@?$IDataObjectImpl@VCOPOSMICR@@@ATL@@UEAAJPEAPEAUIEnumSTATDATA@@@Z 0000000180002cd0 f i MICR.obj
 0001:00001d0c       ?GetClassInfoW@?$IProvideClassInfo2Impl@$1?CLSID_OPOSMICR@@3U_GUID@@B$1?DIID__IOPOSMICREvents@@3U2@B$1?LIBID_OposMICR_CCO@@3U2@B$00$0A@VCComTypeInfoHolder@ATL@@@ATL@@UEAAJPEAPEAUITypeInfo@@@Z 0000000180002d0c f i MICR.obj
 0001:00001d64       ?GetGUID@?$IProvideClassInfo2Impl@$1?CLSID_OPOSMICR@@3U_GUID@@B$1?DIID__IOPOSMICREvents@@3U2@B$1?LIBID_OposMICR_CCO@@3U2@B$00$0A@VCComTypeInfoHolder@ATL@@@ATL@@UEAAJKPEAU_GUID@@@Z 0000000180002d64 f i MICR.obj
 0001:00001d98       _get_startup_argv_mode     0000000180002d98 f i LIBCMT:argv_mode.obj
 0001:00001d98       ?AddRef@CRegObject@ATL@@UEAAKXZ 0000000180002d98 f i MICR.obj
 0001:00001d98       ?FAccessAllowed@?$IObjectSafetyImpl@VCOPOSMICR@@$02@ATL@@MEAAHXZ 0000000180002d98 f i MICR.obj
 0001:00001da0       ?GetInterfaceSafetyOptions@?$IObjectSafetyImpl@VCOPOSMICR@@$02@ATL@@UEAAJAEBU_GUID@@PEAK1@Z 0000000180002da0 f i MICR.obj
 0001:00001e34       ?SetInterfaceSafetyOptions@?$IObjectSafetyImpl@VCOPOSMICR@@$02@ATL@@UEAAJAEBU_GUID@@KK@Z 0000000180002e34 f i MICR.obj
 0001:00001ed8       ?_LocCPQueryInterface@?$IConnectionPointImpl@VCOPOSMICR@@$1?IID_IPropertyNotifySink@@3U_GUID@@BVCComDynamicUnkArray@ATL@@@ATL@@UEAAJAEBU_GUID@@PEAPEAX@Z 0000000180002ed8 f i MICR.obj
 0001:00001ed8       ?_LocCPQueryInterface@?$IConnectionPointImpl@VCOPOSMICR@@$1?DIID__IOPOSMICREvents@@3U_GUID@@BVCComDynamicUnkArray@ATL@@@ATL@@UEAAJAEBU_GUID@@PEAPEAX@Z 0000000180002ed8 f i MICR.obj
 0001:00001f48       ?GetConnectionInterface@?$IConnectionPointImpl@VCOPOSMICR@@$1?IID_IPropertyNotifySink@@3U_GUID@@BVCComDynamicUnkArray@ATL@@@ATL@@UEAAJPEAU_GUID@@@Z 0000000180002f48 f i MICR.obj
 0001:00001f64       ?GetConnectionPointContainer@?$IConnectionPointImpl@VCOPOSMICR@@$1?IID_IPropertyNotifySink@@3U_GUID@@BVCComDynamicUnkArray@ATL@@@ATL@@UEAAJPEAPEAUIConnectionPointContainer@@@Z 0000000180002f64 f i MICR.obj
 0001:00001f84       ?Advise@?$IConnectionPointImpl@VCOPOSMICR@@$1?DIID__IOPOSMICREvents@@3U_GUID@@BVCComDynamicUnkArray@ATL@@@ATL@@UEAAJPEAUIUnknown@@PEAK@Z 0000000180002f84 f i MICR.obj
 0001:00001f84       ?Advise@?$IConnectionPointImpl@VCOPOSMICR@@$1?IID_IPropertyNotifySink@@3U_GUID@@BVCComDynamicUnkArray@ATL@@@ATL@@UEAAJPEAUIUnknown@@PEAK@Z 0000000180002f84 f i MICR.obj
 0001:00002040       ?Unadvise@?$IConnectionPointImpl@VCOPOSMICR@@$1?IID_IPropertyNotifySink@@3U_GUID@@BVCComDynamicUnkArray@ATL@@@ATL@@UEAAJK@Z 0000000180003040 f i MICR.obj
 0001:00002040       ?Unadvise@?$IConnectionPointImpl@VCOPOSMICR@@$1?DIID__IOPOSMICREvents@@3U_GUID@@BVCComDynamicUnkArray@ATL@@@ATL@@UEAAJK@Z 0000000180003040 f i MICR.obj
 0001:000020a8       ?EnumConnections@?$IConnectionPointImpl@VCOPOSMICR@@$1?DIID__IOPOSMICREvents@@3U_GUID@@BVCComDynamicUnkArray@ATL@@@ATL@@UEAAJPEAPEAUIEnumConnections@@@Z 00000001800030a8 f i MICR.obj
 0001:000020a8       ?EnumConnections@?$IConnectionPointImpl@VCOPOSMICR@@$1?IID_IPropertyNotifySink@@3U_GUID@@BVCComDynamicUnkArray@ATL@@@ATL@@UEAAJPEAPEAUIEnumConnections@@@Z 00000001800030a8 f i MICR.obj
 0001:00002254       ?GetConnectionInterface@?$IConnectionPointImpl@VCOPOSMICR@@$1?DIID__IOPOSMICREvents@@3U_GUID@@BVCComDynamicUnkArray@ATL@@@ATL@@UEAAJPEAU_GUID@@@Z 0000000180003254 f i MICR.obj
 0001:00002270       ?GetConnectionPointContainer@?$IConnectionPointImpl@VCOPOSMICR@@$1?DIID__IOPOSMICREvents@@3U_GUID@@BVCComDynamicUnkArray@ATL@@@ATL@@UEAAJPEAPEAUIConnectionPointContainer@@@Z 0000000180003270 f i MICR.obj
 0001:00002290       ?UpdateRegistry@COPOSMICR@@SAJH@Z 0000000180003290 f i MICR.obj
 0001:000022a8       ?ProcessWindowMessage@COPOSMICR@@UEAAHPEAUHWND__@@I_K_JAEA_JK@Z 00000001800032a8 f i MICR.obj
 0001:00002330       ?SOData@COPOSMICR@@MEAAJJ@Z 0000000180003330 f i MICR.obj
 0001:00002380       ?SODirectIO@COPOSMICR@@MEAAJJPEAJPEAPEA_W@Z 0000000180003380 f i MICR.obj
 0001:000023f8       ?SOError@COPOSMICR@@MEAAJJJJPEAJ@Z 00000001800033f8 f i MICR.obj
 0001:00002480       ?SOStatusUpdate@COPOSMICR@@MEAAJJ@Z 0000000180003480 f i MICR.obj
 0001:000024d0       ?Lock@CAtlModule@ATL@@UEAAJXZ 00000001800034d0 f i MICR.obj
 0001:000024e0       ?Unlock@CAtlModule@ATL@@UEAAJXZ 00000001800034e0 f i MICR.obj
 0001:000024ec       ?GetLockCount@CAtlModule@ATL@@UEAAJXZ 00000001800034ec f i MICR.obj
 0001:000024f0       ?GetGITPtr@CAtlModule@ATL@@UEAAJPEAPEAUIGlobalInterfaceTable@@@Z 00000001800034f0 f i MICR.obj
 0001:00002560       ?CreateInstance@?$CComCreator@V?$CComObjectCached@VCComClassFactory@ATL@@@ATL@@@ATL@@SAJPEAXAEBU_GUID@@PEAPEAX@Z 0000000180003560 f i MICR.obj
 0001:00002684       ?CreateInstance@?$CComCreator2@V?$CComCreator@V?$CComObject@VCOPOSMICR@@@ATL@@@ATL@@V?$CComCreator@V?$CComAggObject@VCOPOSMICR@@@ATL@@@2@@ATL@@SAJPEAXAEBU_GUID@@PEAPEAX@Z 0000000180003684 f i MICR.obj
 0001:00002694       ?AddCommonRGSReplacements@?$CAtlModuleT@VCComModule@ATL@@@ATL@@UEAAJPEAUIRegistrarBase@@@Z 0000000180003694 f i MICR.obj
 0001:000026ac       ?AddRef@?$CComObjectCached@VCComClassFactory@ATL@@@ATL@@UEAAKXZ 00000001800036ac f i MICR.obj
 0001:000026d8       ?Release@?$CComObjectCached@VCComClassFactory@ATL@@@ATL@@UEAAKXZ 00000001800036d8 f i MICR.obj
 0001:00002718       ?QueryInterface@?$CComObjectCached@VCComClassFactory@ATL@@@ATL@@UEAAJAEBU_GUID@@PEAPEAX@Z 0000000180003718 f i MICR.obj
 0001:0000272c       ??_E?$CComObjectCached@VCComClassFactory@ATL@@@ATL@@UEAAPEAXI@Z 000000018000372c f i MICR.obj
 0001:0000272c       ??_G?$CComObjectCached@VCComClassFactory@ATL@@@ATL@@UEAAPEAXI@Z 000000018000372c f i MICR.obj
 0001:00002784       ?UpdateRegistryFromResourceD@CComModule@ATL@@UEAAJPEB_WHPEAU_ATL_REGMAP_ENTRY@2@@Z 0000000180003784 f i MICR.obj
 0001:00002784       ?UpdateRegistryFromResourceD@CComModule@ATL@@UEAAJIHPEAU_ATL_REGMAP_ENTRY@2@@Z 0000000180003784 f i MICR.obj
 0001:0000278c       ?UpdateRegistryFromResource@CComModule@ATL@@UEAAJPEB_WHPEAU_ATL_REGMAP_ENTRY@2@@Z 000000018000378c f i MICR.obj
 0001:00002794       ?UpdateRegistryFromResource@CComModule@ATL@@UEAAJIHPEAU_ATL_REGMAP_ENTRY@2@@Z 0000000180003794 f i MICR.obj
 0001:0000279c       ??_GCComModule@ATL@@UEAAPEAXI@Z 000000018000379c f i MICR.obj
 0001:0000279c       ??_ECComModule@ATL@@UEAAPEAXI@Z 000000018000379c f i MICR.obj
 0001:000027dc       ?Next@?$CComEnumImpl@UIEnumConnectionPoints@@$1?_GUID_b196b285_bab4_101a_b69c_00aa00341d07@@3U__s_GUID@@BPEAUIConnectionPoint@@V?$_CopyInterface@UIConnectionPoint@@@ATL@@@ATL@@UEAAJKPEAPEAUIConnectionPoint@@PEAK@Z 00000001800037dc f i MICR.obj
 0001:000028a8       ?Skip@?$CComEnumImpl@UIEnumConnectionPoints@@$1?_GUID_b196b285_bab4_101a_b69c_00aa00341d07@@3U__s_GUID@@BPEAUIConnectionPoint@@V?$_CopyInterface@UIConnectionPoint@@@ATL@@@ATL@@UEAAJK@Z 00000001800038a8 f i MICR.obj
 0001:000028d4       ?Reset@?$CComEnumImpl@UIEnumConnectionPoints@@$1?_GUID_b196b285_bab4_101a_b69c_00aa00341d07@@3U__s_GUID@@BPEAUIConnectionPoint@@V?$_CopyInterface@UIConnectionPoint@@@ATL@@@ATL@@UEAAJXZ 00000001800038d4 f i MICR.obj
 0001:000028d4       ?Reset@?$CComEnumImpl@UIEnumConnections@@$1?_GUID_b196b287_bab4_101a_b69c_00aa00341d07@@3U__s_GUID@@BUtagCONNECTDATA@@V?$_Copy@UtagCONNECTDATA@@@ATL@@@ATL@@UEAAJXZ 00000001800038d4 f i MICR.obj
 0001:000028e0       ?Clone@?$CComEnumImpl@UIEnumConnectionPoints@@$1?_GUID_b196b285_bab4_101a_b69c_00aa00341d07@@3U__s_GUID@@BPEAUIConnectionPoint@@V?$_CopyInterface@UIConnectionPoint@@@ATL@@@ATL@@UEAAJPEAPEAUIEnumConnectionPoints@@@Z 00000001800038e0 f i MICR.obj
 0001:00002a0c       ?AddRef@?$CComObject@V?$CComEnum@UIEnumConnections@@$1?_GUID_b196b287_bab4_101a_b69c_00aa00341d07@@3U__s_GUID@@BUtagCONNECTDATA@@V?$_Copy@UtagCONNECTDATA@@@ATL@@VCComSingleThreadModel@6@@ATL@@@ATL@@UEAAKXZ 0000000180003a0c f i MICR.obj
 0001:00002a0c       ?AddRef@?$CComObject@V?$CComEnum@UIEnumConnectionPoints@@$1?_GUID_b196b285_bab4_101a_b69c_00aa00341d07@@3U__s_GUID@@BPEAUIConnectionPoint@@V?$_CopyInterface@UIConnectionPoint@@@ATL@@VCComSingleThreadModel@6@@ATL@@@ATL@@UEAAKXZ 0000000180003a0c f i MICR.obj
 0001:00002a18       ?Release@?$CComObject@V?$CComEnum@UIEnumConnectionPoints@@$1?_GUID_b196b285_bab4_101a_b69c_00aa00341d07@@3U__s_GUID@@BPEAUIConnectionPoint@@V?$_CopyInterface@UIConnectionPoint@@@ATL@@VCComSingleThreadModel@6@@ATL@@@ATL@@UEAAKXZ 0000000180003a18 f i MICR.obj
 0001:00002a18       ?Release@?$CComObject@V?$CComEnum@UIEnumConnections@@$1?_GUID_b196b287_bab4_101a_b69c_00aa00341d07@@3U__s_GUID@@BUtagCONNECTDATA@@V?$_Copy@UtagCONNECTDATA@@@ATL@@VCComSingleThreadModel@6@@ATL@@@ATL@@UEAAKXZ 0000000180003a18 f i MICR.obj
 0001:00002a6c       ?QueryInterface@?$CComObject@V?$CComEnum@UIEnumConnectionPoints@@$1?_GUID_b196b285_bab4_101a_b69c_00aa00341d07@@3U__s_GUID@@BPEAUIConnectionPoint@@V?$_CopyInterface@UIConnectionPoint@@@ATL@@VCComSingleThreadModel@6@@ATL@@@ATL@@UEAAJAEBU_GUID@@PEAPEAX@Z 0000000180003a6c f i MICR.obj
 0001:00002a80       ??_E?$CComObject@V?$CComEnum@UIEnumConnectionPoints@@$1?_GUID_b196b285_bab4_101a_b69c_00aa00341d07@@3U__s_GUID@@BPEAUIConnectionPoint@@V?$_CopyInterface@UIConnectionPoint@@@ATL@@VCComSingleThreadModel@6@@ATL@@@ATL@@UEAAPEAXI@Z 0000000180003a80 f i MICR.obj
 0001:00002a80       ??_G?$CComObject@V?$CComEnum@UIEnumConnectionPoints@@$1?_GUID_b196b285_bab4_101a_b69c_00aa00341d07@@3U__s_GUID@@BPEAUIConnectionPoint@@V?$_CopyInterface@UIConnectionPoint@@@ATL@@VCComSingleThreadModel@6@@ATL@@@ATL@@UEAAPEAXI@Z 0000000180003a80 f i MICR.obj
 0001:00002ad8       ?AddReplacement@CRegObject@ATL@@UEAAJPEB_W0@Z 0000000180003ad8 f i MICR.obj
 0001:00002b08       ?ClearReplacements@CRegObject@ATL@@UEAAJXZ 0000000180003b08 f i MICR.obj
 0001:00002b14       ??_GCRegObject@ATL@@UEAAPEAXI@Z 0000000180003b14 f i MICR.obj
 0001:00002b14       ??_ECRegObject@ATL@@UEAAPEAXI@Z 0000000180003b14 f i MICR.obj
 0001:00002b94       ?AddRef@?$CComAggObject@VCOPOSMICR@@@ATL@@UEAAKXZ 0000000180003b94 f i MICR.obj
 0001:00002ba0       ?Release@?$CComAggObject@VCOPOSMICR@@@ATL@@UEAAKXZ 0000000180003ba0 f i MICR.obj
 0001:00002bf4       ?QueryInterface@?$CComAggObject@VCOPOSMICR@@@ATL@@UEAAJAEBU_GUID@@PEAPEAX@Z 0000000180003bf4 f i MICR.obj
 0001:00002c54       ?AddRef@?$CComContainedObject@VCOPOSMICR@@@ATL@@UEAAKXZ 0000000180003c54 f i MICR.obj
 0001:00002c64       ?Release@?$CComContainedObject@VCOPOSMICR@@@ATL@@UEAAKXZ 0000000180003c64 f i MICR.obj
 0001:00002c74       ?QueryInterface@?$CComContainedObject@VCOPOSMICR@@@ATL@@UEAAJAEBU_GUID@@PEAPEAX@Z 0000000180003c74 f i MICR.obj
 0001:00002c84       ??_G?$CComAggObject@VCOPOSMICR@@@ATL@@UEAAPEAXI@Z 0000000180003c84 f i MICR.obj
 0001:00002c84       ??_E?$CComAggObject@VCOPOSMICR@@@ATL@@UEAAPEAXI@Z 0000000180003c84 f i MICR.obj
 0001:00002cdc       ?AddRef@?$CComObject@VCOPOSMICR@@@ATL@@UEAAKXZ 0000000180003cdc f i MICR.obj
 0001:00002cec       ?Release@?$CComObject@VCOPOSMICR@@@ATL@@UEAAKXZ 0000000180003cec f i MICR.obj
 0001:00002d44       ?QueryInterface@?$CComObject@VCOPOSMICR@@@ATL@@UEAAJAEBU_GUID@@PEAPEAX@Z 0000000180003d44 f i MICR.obj
 0001:00002d58       ?OnDrawAdvanced@CComControlBase@ATL@@UEAAJAEAUATL_DRAWINFO@@@Z 0000000180003d58 f i MICR.obj
 0001:00002ee4       ?Next@?$CComEnumImpl@UIEnumConnections@@$1?_GUID_b196b287_bab4_101a_b69c_00aa00341d07@@3U__s_GUID@@BUtagCONNECTDATA@@V?$_Copy@UtagCONNECTDATA@@@ATL@@@ATL@@UEAAJKPEAUtagCONNECTDATA@@PEAK@Z 0000000180003ee4 f i MICR.obj
 0001:00002fb8       ?Skip@?$CComEnumImpl@UIEnumConnections@@$1?_GUID_b196b287_bab4_101a_b69c_00aa00341d07@@3U__s_GUID@@BUtagCONNECTDATA@@V?$_Copy@UtagCONNECTDATA@@@ATL@@@ATL@@UEAAJK@Z 0000000180003fb8 f i MICR.obj
 0001:00002fe4       ?Clone@?$CComEnumImpl@UIEnumConnections@@$1?_GUID_b196b287_bab4_101a_b69c_00aa00341d07@@3U__s_GUID@@BUtagCONNECTDATA@@V?$_Copy@UtagCONNECTDATA@@@ATL@@@ATL@@UEAAJPEAPEAUIEnumConnections@@@Z 0000000180003fe4 f i MICR.obj
 0001:00003110       ?QueryInterface@?$CComObject@V?$CComEnum@UIEnumConnections@@$1?_GUID_b196b287_bab4_101a_b69c_00aa00341d07@@3U__s_GUID@@BUtagCONNECTDATA@@V?$_Copy@UtagCONNECTDATA@@@ATL@@VCComSingleThreadModel@6@@ATL@@@ATL@@UEAAJAEBU_GUID@@PEAPEAX@Z 0000000180004110 f i MICR.obj
 0001:00003124       ??_E?$CComObject@V?$CComEnum@UIEnumConnections@@$1?_GUID_b196b287_bab4_101a_b69c_00aa00341d07@@3U__s_GUID@@BUtagCONNECTDATA@@V?$_Copy@UtagCONNECTDATA@@@ATL@@VCComSingleThreadModel@6@@ATL@@@ATL@@UEAAPEAXI@Z 0000000180004124 f i MICR.obj
 0001:00003124       ??_G?$CComObject@V?$CComEnum@UIEnumConnections@@$1?_GUID_b196b287_bab4_101a_b69c_00aa00341d07@@3U__s_GUID@@BUtagCONNECTDATA@@V?$_Copy@UtagCONNECTDATA@@@ATL@@VCComSingleThreadModel@6@@ATL@@@ATL@@UEAAPEAXI@Z 0000000180004124 f i MICR.obj
 0001:0000317c       ??_E?$CComObject@VCOPOSMICR@@@ATL@@W7EAAPEAXI@Z 000000018000417c f i MICR.obj
 0001:00003188       ??_E?$CComObject@VCOPOSMICR@@@ATL@@WHA@EAAPEAXI@Z 0000000180004188 f i MICR.obj
 0001:00003194       ?QueryInterface@?$CComObject@VCOPOSMICR@@@ATL@@WLI@EAAJAEBU_GUID@@PEAPEAX@Z 0000000180004194 f i MICR.obj
 0001:000031a0       ?AddRef@?$CComObject@VCOPOSMICR@@@ATL@@WLI@EAAKXZ 00000001800041a0 f i MICR.obj
 0001:000031ac       ?Release@?$CComObject@VCOPOSMICR@@@ATL@@WLI@EAAKXZ 00000001800041ac f i MICR.obj
 0001:000031b8       ?QueryInterface@?$CComObject@VCOPOSMICR@@@ATL@@WMA@EAAJAEBU_GUID@@PEAPEAX@Z 00000001800041b8 f i MICR.obj
 0001:000031c4       ?AddRef@?$CComObject@VCOPOSMICR@@@ATL@@WMA@EAAKXZ 00000001800041c4 f i MICR.obj
 0001:000031d0       ?Release@?$CComObject@VCOPOSMICR@@@ATL@@WMA@EAAKXZ 00000001800041d0 f i MICR.obj
 0001:000031dc       ?QueryInterface@?$CComObject@VCOPOSMICR@@@ATL@@WMI@EAAJAEBU_GUID@@PEAPEAX@Z 00000001800041dc f i MICR.obj
 0001:000031e8       ?AddRef@?$CComObject@VCOPOSMICR@@@ATL@@WMI@EAAKXZ 00000001800041e8 f i MICR.obj
 0001:000031f4       ?Release@?$CComObject@VCOPOSMICR@@@ATL@@WMI@EAAKXZ 00000001800041f4 f i MICR.obj
 0001:00003200       ?QueryInterface@?$CComObject@VCOPOSMICR@@@ATL@@WNA@EAAJAEBU_GUID@@PEAPEAX@Z 0000000180004200 f i MICR.obj
 0001:0000320c       ?AddRef@?$CComObject@VCOPOSMICR@@@ATL@@WNA@EAAKXZ 000000018000420c f i MICR.obj
 0001:00003218       ?Release@?$CComObject@VCOPOSMICR@@@ATL@@WNA@EAAKXZ 0000000180004218 f i MICR.obj
 0001:00003224       ?QueryInterface@?$CComObject@VCOPOSMICR@@@ATL@@WNI@EAAJAEBU_GUID@@PEAPEAX@Z 0000000180004224 f i MICR.obj
 0001:00003230       ?AddRef@?$CComObject@VCOPOSMICR@@@ATL@@WNI@EAAKXZ 0000000180004230 f i MICR.obj
 0001:0000323c       ?Release@?$CComObject@VCOPOSMICR@@@ATL@@WNI@EAAKXZ 000000018000423c f i MICR.obj
 0001:00003248       ?QueryInterface@?$CComObject@VCOPOSMICR@@@ATL@@WOA@EAAJAEBU_GUID@@PEAPEAX@Z 0000000180004248 f i MICR.obj
 0001:00003254       ?AddRef@?$CComObject@VCOPOSMICR@@@ATL@@WOA@EAAKXZ 0000000180004254 f i MICR.obj
 0001:00003260       ?Release@?$CComObject@VCOPOSMICR@@@ATL@@WOA@EAAKXZ 0000000180004260 f i MICR.obj
 0001:0000326c       ?QueryInterface@?$CComObject@VCOPOSMICR@@@ATL@@WOI@EAAJAEBU_GUID@@PEAPEAX@Z 000000018000426c f i MICR.obj
 0001:00003278       ?AddRef@?$CComObject@VCOPOSMICR@@@ATL@@WOI@EAAKXZ 0000000180004278 f i MICR.obj
 0001:00003284       ?Release@?$CComObject@VCOPOSMICR@@@ATL@@WOI@EAAKXZ 0000000180004284 f i MICR.obj
 0001:00003290       ?QueryInterface@?$CComObject@VCOPOSMICR@@@ATL@@WPA@EAAJAEBU_GUID@@PEAPEAX@Z 0000000180004290 f i MICR.obj
 0001:0000329c       ?AddRef@?$CComObject@VCOPOSMICR@@@ATL@@WPA@EAAKXZ 000000018000429c f i MICR.obj
 0001:000032a8       ?Release@?$CComObject@VCOPOSMICR@@@ATL@@WPA@EAAKXZ 00000001800042a8 f i MICR.obj
 0001:000032b4       ?QueryInterface@?$CComObject@VCOPOSMICR@@@ATL@@WPI@EAAJAEBU_GUID@@PEAPEAX@Z 00000001800042b4 f i MICR.obj
 0001:000032c0       ?AddRef@?$CComObject@VCOPOSMICR@@@ATL@@WPI@EAAKXZ 00000001800042c0 f i MICR.obj
 0001:000032cc       ?Release@?$CComObject@VCOPOSMICR@@@ATL@@WPI@EAAKXZ 00000001800042cc f i MICR.obj
 0001:000032d8       ?QueryInterface@?$CComObject@VCOPOSMICR@@@ATL@@WBAA@EAAJAEBU_GUID@@PEAPEAX@Z 00000001800042d8 f i MICR.obj
 0001:000032e4       ?AddRef@?$CComObject@VCOPOSMICR@@@ATL@@WBAA@EAAKXZ 00000001800042e4 f i MICR.obj
 0001:000032f0       ?Release@?$CComObject@VCOPOSMICR@@@ATL@@WBAA@EAAKXZ 00000001800042f0 f i MICR.obj
 0001:000032fc       ?QueryInterface@?$CComObject@VCOPOSMICR@@@ATL@@WBAI@EAAJAEBU_GUID@@PEAPEAX@Z 00000001800042fc f i MICR.obj
 0001:00003308       ?AddRef@?$CComObject@VCOPOSMICR@@@ATL@@WBAI@EAAKXZ 0000000180004308 f i MICR.obj
 0001:00003314       ?Release@?$CComObject@VCOPOSMICR@@@ATL@@WBAI@EAAKXZ 0000000180004314 f i MICR.obj
 0001:00003320       ?QueryInterface@?$CComObject@VCOPOSMICR@@@ATL@@WBBA@EAAJAEBU_GUID@@PEAPEAX@Z 0000000180004320 f i MICR.obj
 0001:0000332c       ?AddRef@?$CComObject@VCOPOSMICR@@@ATL@@WBBA@EAAKXZ 000000018000432c f i MICR.obj
 0001:00003338       ?Release@?$CComObject@VCOPOSMICR@@@ATL@@WBBA@EAAKXZ 0000000180004338 f i MICR.obj
 0001:00003344       ?QueryInterface@?$CComObject@VCOPOSMICR@@@ATL@@WBBI@EAAJAEBU_GUID@@PEAPEAX@Z 0000000180004344 f i MICR.obj
 0001:00003350       ?AddRef@?$CComObject@VCOPOSMICR@@@ATL@@WBBI@EAAKXZ 0000000180004350 f i MICR.obj
 0001:0000335c       ?Release@?$CComObject@VCOPOSMICR@@@ATL@@WBBI@EAAKXZ 000000018000435c f i MICR.obj
 0001:00003368       ?AddRef@?$CComObject@VCOPOSMICR@@@ATL@@WBCI@EAAKXZ 0000000180004368 f i MICR.obj
 0001:00003374       ?Release@?$CComObject@VCOPOSMICR@@@ATL@@WBCI@EAAKXZ 0000000180004374 f i MICR.obj
 0001:00003380       ?AddRef@?$CComObject@VCOPOSMICR@@@ATL@@WBEA@EAAKXZ 0000000180004380 f i MICR.obj
 0001:0000338c       ?Release@?$CComObject@VCOPOSMICR@@@ATL@@WBEA@EAAKXZ 000000018000438c f i MICR.obj
 0001:00003398       ??_E?$CComContainedObject@VCOPOSMICR@@@ATL@@W7EAAPEAXI@Z 0000000180004398 f i MICR.obj
 0001:000033a4       ??_E?$CComContainedObject@VCOPOSMICR@@@ATL@@WHA@EAAPEAXI@Z 00000001800043a4 f i MICR.obj
 0001:000033b0       ?QueryInterface@?$CComContainedObject@VCOPOSMICR@@@ATL@@WLI@EAAJAEBU_GUID@@PEAPEAX@Z 00000001800043b0 f i MICR.obj
 0001:000033bc       ?AddRef@?$CComContainedObject@VCOPOSMICR@@@ATL@@WLI@EAAKXZ 00000001800043bc f i MICR.obj
 0001:000033c8       ?Release@?$CComContainedObject@VCOPOSMICR@@@ATL@@WLI@EAAKXZ 00000001800043c8 f i MICR.obj
 0001:000033d4       ?QueryInterface@?$CComContainedObject@VCOPOSMICR@@@ATL@@WMA@EAAJAEBU_GUID@@PEAPEAX@Z 00000001800043d4 f i MICR.obj
 0001:000033e0       ?AddRef@?$CComContainedObject@VCOPOSMICR@@@ATL@@WMA@EAAKXZ 00000001800043e0 f i MICR.obj
 0001:000033ec       ?Release@?$CComContainedObject@VCOPOSMICR@@@ATL@@WMA@EAAKXZ 00000001800043ec f i MICR.obj
 0001:000033f8       ?QueryInterface@?$CComContainedObject@VCOPOSMICR@@@ATL@@WMI@EAAJAEBU_GUID@@PEAPEAX@Z 00000001800043f8 f i MICR.obj
 0001:00003404       ?AddRef@?$CComContainedObject@VCOPOSMICR@@@ATL@@WMI@EAAKXZ 0000000180004404 f i MICR.obj
 0001:00003410       ?Release@?$CComContainedObject@VCOPOSMICR@@@ATL@@WMI@EAAKXZ 0000000180004410 f i MICR.obj
 0001:0000341c       ?QueryInterface@?$CComContainedObject@VCOPOSMICR@@@ATL@@WNA@EAAJAEBU_GUID@@PEAPEAX@Z 000000018000441c f i MICR.obj
 0001:00003428       ?AddRef@?$CComContainedObject@VCOPOSMICR@@@ATL@@WNA@EAAKXZ 0000000180004428 f i MICR.obj
 0001:00003434       ?Release@?$CComContainedObject@VCOPOSMICR@@@ATL@@WNA@EAAKXZ 0000000180004434 f i MICR.obj
 0001:00003440       ?QueryInterface@?$CComContainedObject@VCOPOSMICR@@@ATL@@WNI@EAAJAEBU_GUID@@PEAPEAX@Z 0000000180004440 f i MICR.obj
 0001:0000344c       ?AddRef@?$CComContainedObject@VCOPOSMICR@@@ATL@@WNI@EAAKXZ 000000018000444c f i MICR.obj
 0001:00003458       ?Release@?$CComContainedObject@VCOPOSMICR@@@ATL@@WNI@EAAKXZ 0000000180004458 f i MICR.obj
 0001:00003464       ?QueryInterface@?$CComContainedObject@VCOPOSMICR@@@ATL@@WOA@EAAJAEBU_GUID@@PEAPEAX@Z 0000000180004464 f i MICR.obj
 0001:00003470       ?AddRef@?$CComContainedObject@VCOPOSMICR@@@ATL@@WOA@EAAKXZ 0000000180004470 f i MICR.obj
 0001:0000347c       ?Release@?$CComContainedObject@VCOPOSMICR@@@ATL@@WOA@EAAKXZ 000000018000447c f i MICR.obj
 0001:00003488       ?QueryInterface@?$CComContainedObject@VCOPOSMICR@@@ATL@@WOI@EAAJAEBU_GUID@@PEAPEAX@Z 0000000180004488 f i MICR.obj
 0001:00003494       ?AddRef@?$CComContainedObject@VCOPOSMICR@@@ATL@@WOI@EAAKXZ 0000000180004494 f i MICR.obj
 0001:000034a0       ?Release@?$CComContainedObject@VCOPOSMICR@@@ATL@@WOI@EAAKXZ 00000001800044a0 f i MICR.obj
 0001:000034ac       ?QueryInterface@?$CComContainedObject@VCOPOSMICR@@@ATL@@WPA@EAAJAEBU_GUID@@PEAPEAX@Z 00000001800044ac f i MICR.obj
 0001:000034b8       ?AddRef@?$CComContainedObject@VCOPOSMICR@@@ATL@@WPA@EAAKXZ 00000001800044b8 f i MICR.obj
 0001:000034c4       ?Release@?$CComContainedObject@VCOPOSMICR@@@ATL@@WPA@EAAKXZ 00000001800044c4 f i MICR.obj
 0001:000034d0       ?QueryInterface@?$CComContainedObject@VCOPOSMICR@@@ATL@@WPI@EAAJAEBU_GUID@@PEAPEAX@Z 00000001800044d0 f i MICR.obj
 0001:000034dc       ?AddRef@?$CComContainedObject@VCOPOSMICR@@@ATL@@WPI@EAAKXZ 00000001800044dc f i MICR.obj
 0001:000034e8       ?Release@?$CComContainedObject@VCOPOSMICR@@@ATL@@WPI@EAAKXZ 00000001800044e8 f i MICR.obj
 0001:000034f4       ?QueryInterface@?$CComContainedObject@VCOPOSMICR@@@ATL@@WBAA@EAAJAEBU_GUID@@PEAPEAX@Z 00000001800044f4 f i MICR.obj
 0001:00003500       ?AddRef@?$CComContainedObject@VCOPOSMICR@@@ATL@@WBAA@EAAKXZ 0000000180004500 f i MICR.obj
 0001:0000350c       ?Release@?$CComContainedObject@VCOPOSMICR@@@ATL@@WBAA@EAAKXZ 000000018000450c f i MICR.obj
 0001:00003518       ?QueryInterface@?$CComContainedObject@VCOPOSMICR@@@ATL@@WBAI@EAAJAEBU_GUID@@PEAPEAX@Z 0000000180004518 f i MICR.obj
 0001:00003524       ?AddRef@?$CComContainedObject@VCOPOSMICR@@@ATL@@WBAI@EAAKXZ 0000000180004524 f i MICR.obj
 0001:00003530       ?Release@?$CComContainedObject@VCOPOSMICR@@@ATL@@WBAI@EAAKXZ 0000000180004530 f i MICR.obj
 0001:0000353c       ?QueryInterface@?$CComContainedObject@VCOPOSMICR@@@ATL@@WBBA@EAAJAEBU_GUID@@PEAPEAX@Z 000000018000453c f i MICR.obj
 0001:00003548       ?AddRef@?$CComContainedObject@VCOPOSMICR@@@ATL@@WBBA@EAAKXZ 0000000180004548 f i MICR.obj
 0001:00003554       ?Release@?$CComContainedObject@VCOPOSMICR@@@ATL@@WBBA@EAAKXZ 0000000180004554 f i MICR.obj
 0001:00003560       ?QueryInterface@?$CComContainedObject@VCOPOSMICR@@@ATL@@WBBI@EAAJAEBU_GUID@@PEAPEAX@Z 0000000180004560 f i MICR.obj
 0001:0000356c       ?AddRef@?$CComContainedObject@VCOPOSMICR@@@ATL@@WBBI@EAAKXZ 000000018000456c f i MICR.obj
 0001:00003578       ?Release@?$CComContainedObject@VCOPOSMICR@@@ATL@@WBBI@EAAKXZ 0000000180004578 f i MICR.obj
 0001:00003584       ?AddRef@?$CComContainedObject@VCOPOSMICR@@@ATL@@WBCI@EAAKXZ 0000000180004584 f i MICR.obj
 0001:00003590       ?Release@?$CComContainedObject@VCOPOSMICR@@@ATL@@WBCI@EAAKXZ 0000000180004590 f i MICR.obj
 0001:0000359c       ?AddRef@?$CComContainedObject@VCOPOSMICR@@@ATL@@WBEA@EAAKXZ 000000018000459c f i MICR.obj
 0001:000035a8       ?Release@?$CComContainedObject@VCOPOSMICR@@@ATL@@WBEA@EAAKXZ 00000001800045a8 f i MICR.obj
 0001:000035b4       ?CreateInstance@CComClassFactory@ATL@@UEAAJPEAUIUnknown@@AEBU_GUID@@PEAPEAX@Z 00000001800045b4 f i MICR.obj
 0001:00003614       ?LockServer@CComClassFactory@ATL@@UEAAJH@Z 0000000180004614 f i MICR.obj
 0001:00003638       ??_GCComClassFactory@ATL@@UEAAPEAXI@Z 0000000180004638 f i MICR.obj
 0001:00003638       ??_ECComClassFactory@ATL@@UEAAPEAXI@Z 0000000180004638 f i MICR.obj
 0001:00003688       ??$AtlModuleRegisterWndClassInfoT@VAtlModuleRegisterWndClassInfoParamW@ATL@@@ATL@@YAGPEAU_ATL_BASE_MODULE70@0@PEAU_ATL_WIN_MODULE70@0@PEAU_ATL_WNDCLASSINFOW@0@PEAP6A_JPEAUHWND__@@I_K_J@ZVAtlModuleRegisterWndClassInfoParamW@0@@Z 0000000180004688 f i MICR.obj
 0001:00003888       ??0?$CComContainedObject@VCOPOSMICR@@@ATL@@QEAA@PEAX@Z 0000000180004888 f i MICR.obj
 0001:000039a4       ??0?$CComObject@VCOPOSMICR@@@ATL@@QEAA@PEAX@Z 00000001800049a4 f i MICR.obj
 0001:00003abc       ??0CAtlModule@ATL@@QEAA@XZ 0000000180004abc f i MICR.obj
 0001:00003b30       ??1?$CComEnumImpl@UIEnumConnectionPoints@@$1?_GUID_b196b285_bab4_101a_b69c_00aa00341d07@@3U__s_GUID@@BPEAUIConnectionPoint@@V?$_CopyInterface@UIConnectionPoint@@@ATL@@@ATL@@UEAA@XZ 0000000180004b30 f i MICR.obj
 0001:00003b8c       ??1?$CComEnumImpl@UIEnumConnections@@$1?_GUID_b196b287_bab4_101a_b69c_00aa00341d07@@3U__s_GUID@@BUtagCONNECTDATA@@V?$_Copy@UtagCONNECTDATA@@@ATL@@@ATL@@UEAA@XZ 0000000180004b8c f i MICR.obj
 0001:00003be8       ??1?$CComObject@VCOPOSMICR@@@ATL@@UEAA@XZ 0000000180004be8 f i MICR.obj
 0001:00003d08       ??_G?$CComContainedObject@VCOPOSMICR@@@ATL@@UEAAPEAXI@Z 0000000180004d08 f i MICR.obj
 0001:00003d08       ??_E?$CComContainedObject@VCOPOSMICR@@@ATL@@UEAAPEAXI@Z 0000000180004d08 f i MICR.obj
 0001:00003d3c       ??_G?$CComObject@VCOPOSMICR@@@ATL@@UEAAPEAXI@Z 0000000180004d3c f i MICR.obj
 0001:00003d3c       ??_E?$CComObject@VCOPOSMICR@@@ATL@@UEAAPEAXI@Z 0000000180004d3c f i MICR.obj
 0001:00003d70       ?Add@?$CSimpleArray@GV?$CSimpleArrayEqualHelper@G@ATL@@@ATL@@QEAAHAEBG@Z 0000000180004d70 f i MICR.obj
 0001:00003e24       ?Add@?$CSimpleMap@PEA_WPEA_WVCExpansionVectorEqualHelper@ATL@@@ATL@@QEAAHAEBQEA_W0@Z 0000000180004e24 f i MICR.obj
 0001:00003ec4       ?Add@CComDynamicUnkArray@ATL@@QEAAKPEAUIUnknown@@@Z 0000000180004ec4 f i MICR.obj
 0001:00003fb0       ?Add@CExpansionVector@ATL@@QEAAHPEB_W0@Z 0000000180004fb0 f i MICR.obj
 0001:000040e4       ?AddTermFunc@CAtlModule@ATL@@QEAAJP6AX_K@Z0@Z 00000001800050e4 f i MICR.obj
 0001:00004180       ?AddValue@CRegParser@ATL@@IEAAJAEAVCRegKey@2@PEB_WPEA_W@Z 0000000180005180 f i MICR.obj
 0001:000045c8       ?AllocateHeap@?$CTempBuffer@_W$0EAA@VCCRTAllocator@ATL@@@ATL@@AEAAX_K@Z 00000001800055c8 f i MICR.obj
 0001:000045c8       ?AllocateHeap@?$CTempBuffer@_W$0BAA@VCCRTAllocator@ATL@@@ATL@@AEAAX_K@Z 00000001800055c8 f i MICR.obj
 0001:000045c8       ?AllocateHeap@?$CTempBuffer@E$0BAA@VCCRTAllocator@ATL@@@ATL@@AEAAX_K@Z 00000001800055c8 f i MICR.obj
 0001:000045f4       ?Append@CParseBuffer@CRegParser@ATL@@QEAAHPEB_WH@Z 00000001800055f4 f i MICR.obj
 0001:0000473c       ?AtlComModuleGetClassObject@ATL@@YAJPEAU_ATL_COM_MODULE70@1@AEBU_GUID@@1PEAPEAX@Z 000000018000573c f i MICR.obj
 0001:0000487c       ?AtlComModuleRegisterServer@ATL@@YAJPEAU_ATL_COM_MODULE70@1@HPEBU_GUID@@@Z 000000018000587c f i MICR.obj
 0001:0000493c       ?AtlComModuleUnregisterServer@ATL@@YAJPEAU_ATL_COM_MODULE70@1@HPEBU_GUID@@@Z 000000018000593c f i MICR.obj
 0001:000049f8       ?AtlHiMetricToPixel@ATL@@YAXPEBUtagSIZE@@PEAU2@@Z 00000001800059f8 f i MICR.obj
 0001:00004aa8       ?AtlHresultFromLastError@ATL@@YAJXZ 0000000180005aa8 f i MICR.obj
 0001:00004ac8       ?AtlHresultFromWin32@ATL@@YAJK@Z 0000000180005ac8 f i MICR.obj
 0001:00004ad8       ?AtlInternalOleLoadFromStream@ATL@@YAJPEAUIStream@@AEBU_GUID@@PEAPEAXTClassesAllowedInStream@1@K@Z 0000000180005ad8 f i MICR.obj
 0001:00004c1c       ?AtlInternalQueryInterface@ATL@@YAJPEAXPEBU_ATL_INTMAP_ENTRY@1@AEBU_GUID@@PEAPEAX@Z 0000000180005c1c f i MICR.obj
 0001:00004d24       ?AtlLoadTypeLib@ATL@@YAJPEAUHINSTANCE__@@PEB_WPEAPEA_WPEAPEAUITypeLib@@@Z 0000000180005d24 f i MICR.obj
 0001:00004f80       ?AtlRegisterClassCategoriesHelper@ATL@@YAJAEBU_GUID@@PEBU_ATL_CATMAP_ENTRY@1@H@Z 0000000180005f80 f i MICR.obj
 0001:00005404       ?AtlRegisterTypeLib@ATL@@YAJPEAUHINSTANCE__@@PEB_W@Z 0000000180006404 f i MICR.obj
 0001:00005600       ?AtlThrowImpl@ATL@@YAXJ@Z  0000000180006600 f i MICR.obj
 0001:00005624       ?AtlUnRegisterTypeLib@ATL@@YAJPEAUHINSTANCE__@@PEB_W@Z 0000000180006624 f i MICR.obj
 0001:000056ec       ?AtlWinModuleExtractCreateWndData@ATL@@YAPEAXPEAU_ATL_WIN_MODULE70@1@@Z 00000001800066ec f i MICR.obj
 0001:00005778       ?Cleanup@CComTypeInfoHolder@ATL@@SAX_K@Z 0000000180006778 f i MICR.obj
 0001:000057b8       ?ClearReplacements@CExpansionVector@ATL@@QEAAJXZ 00000001800067b8 f i MICR.obj
 0001:00005854       ?CreateInstance@?$CComCreator@V?$CComAggObject@VCOPOSMICR@@@ATL@@@ATL@@SAJPEAXAEBU_GUID@@PEAPEAX@Z 0000000180006854 f i MICR.obj
 0001:00005938       ?CreateInstance@?$CComCreator@V?$CComObject@VCOPOSMICR@@@ATL@@@ATL@@SAJPEAXAEBU_GUID@@PEAPEAX@Z 0000000180006938 f i MICR.obj
 0001:000059ec       ?CreateInstance@?$CComObject@V?$CComEnum@UIEnumConnectionPoints@@$1?_GUID_b196b285_bab4_101a_b69c_00aa00341d07@@3U__s_GUID@@BPEAUIConnectionPoint@@V?$_CopyInterface@UIConnectionPoint@@@ATL@@VCComSingleThreadModel@6@@ATL@@@ATL@@SAJPEAPEAV12@@Z 00000001800069ec f i MICR.obj
 0001:00005a7c       ?CreateInstance@?$CComObject@V?$CComEnum@UIEnumConnections@@$1?_GUID_b196b287_bab4_101a_b69c_00aa00341d07@@3U__s_GUID@@BUtagCONNECTDATA@@V?$_Copy@UtagCONNECTDATA@@@ATL@@VCComSingleThreadModel@6@@ATL@@@ATL@@SAJPEAPEAV12@@Z 0000000180006a7c f i MICR.obj
 0001:00005b0c       ?DefaultReflectionHandler@?$CWindowImplRoot@VCWindow@ATL@@@ATL@@SAHPEAUHWND__@@I_K_JAEA_J@Z 0000000180006b0c f i MICR.obj
 0001:00005b70       ?DeleteSubKey@CRegKey@ATL@@QEAAJPEB_W@Z 0000000180006b70 f i MICR.obj
 0001:00005c08       ?DoEvent@COPOSMICR@@IEAAXI_K_J@Z 0000000180006c08 f i MICR.obj
 0001:00005cbc       ?DoVerbPrimary@?$IOleObjectImpl@VCOPOSMICR@@@ATL@@QEAAJPEBUtagRECT@@PEAUHWND__@@@Z 0000000180006cbc f i MICR.obj
 0001:00005de8       ?DoVerbProperties@CComControlBase@ATL@@QEAAJPEBUtagRECT@@PEAUHWND__@@@Z 0000000180006de8 f i MICR.obj
 0001:00006010       ?FireTheEvent@?$CProxy_IOPOSEvents@VCOPOSMICR@@@@IEAAXPEAVOposVariant@@IAEAJPEB_WJ@Z 0000000180007010 f i MICR.obj
 0001:000060fc       ?FireViewChange@CComControlBase@ATL@@QEAAJXZ 00000001800070fc f i MICR.obj
 0001:00006160       ?Fire_DataEvent@?$CProxy_IOPOSEvents@VCOPOSMICR@@@@QEAAXJ@Z 0000000180007160 f i MICR.obj
 0001:0000624c       ?Fire_DirectIOEvent@?$CProxy_IOPOSEvents@VCOPOSMICR@@@@QEAAXJPEAJPEAPEA_W@Z 000000018000724c f i MICR.obj
 0001:000063ac       ?Fire_ErrorEvent@?$CProxy_IOPOSEvents@VCOPOSMICR@@@@QEAAXJJJPEAJ@Z 00000001800073ac f i MICR.obj
 0001:00006520       ?Fire_StatusUpdateEvent@?$CProxy_IOPOSEvents@VCOPOSMICR@@@@QEAAXJ@Z 0000000180007520 f i MICR.obj
 0001:0000660c       ?FreeHeap@?$CTempBuffer@_W$0BAA@VCCRTAllocator@ATL@@@ATL@@AEAAXXZ 000000018000760c f i MICR.obj
 0001:0000660c       ?FreeHeap@?$CTempBuffer@E$0BAA@VCCRTAllocator@ATL@@@ATL@@AEAAXXZ 000000018000760c f i MICR.obj
 0001:0000660c       ?FreeHeap@?$CTempBuffer@_W$0EAA@VCCRTAllocator@ATL@@@ATL@@AEAAXXZ 000000018000760c f i MICR.obj
 0001:00006614       ?GetAmbientLocaleID@CComControlBase@ATL@@QEAAJAEAK@Z 0000000180007614 f i MICR.obj
 0001:000066d4       ?GetAmbientUserMode@CComControlBase@ATL@@QEAAJAEAH@Z 00000001800076d4 f i MICR.obj
 0001:000067a4       ?GetClassObject@CComModule@ATL@@QEAAJAEBU_GUID@@0PEAPEAX@Z 00000001800077a4 f i MICR.obj
 0001:00006898       ?GetConnMap@COPOSMICR@@SAPEBU_ATL_CONNMAP_ENTRY@ATL@@PEAH@Z 0000000180007898 f i MICR.obj
 0001:00006920       ?GetIDsOfNames@CComTypeInfoHolder@ATL@@QEAAJAEBU_GUID@@PEAPEA_WIKPEAJ@Z 0000000180007920 f i MICR.obj
 0001:00006a98       ?GetPagesHelper@?$ISpecifyPropertyPagesImpl@VCOPOSMICR@@@ATL@@IEAAJPEAUtagCAUUID@@PEBUATL_PROPMAP_ENTRY@2@@Z 0000000180007a98 f i MICR.obj
 0001:00006c38       ?GetSizeMax@CComVariant@ATL@@QEBAJPEAT_ULARGE_INTEGER@@@Z 0000000180007c38 f i MICR.obj
 0001:00006e68       ?GetTI@CComTypeInfoHolder@ATL@@QEAAJK@Z 0000000180007e68 f i MICR.obj
 0001:00007150       ?GetZoomInfo@CComControlBase@ATL@@QEAAXAEAUATL_DRAWINFO@@@Z 0000000180008150 f i MICR.obj
 0001:000071f4       ?HKeyFromString@CRegParser@ATL@@KAPEAUHKEY__@@PEA_W@Z 00000001800081f4 f i MICR.obj
 0001:00007258       ?IDataObject_GetData@CComControlBase@ATL@@QEAAJPEAUtagFORMATETC@@PEAUtagSTGMEDIUM@@@Z 0000000180008258 f i MICR.obj
 0001:0000744c       ?IOleInPlaceObject_InPlaceDeactivate@CComControlBase@ATL@@QEAAJXZ 000000018000844c f i MICR.obj
 0001:000074ec       ?IOleInPlaceObject_SetObjectRects@CComControlBase@ATL@@QEAAJPEBUtagRECT@@0@Z 00000001800084ec f i MICR.obj
 0001:000075dc       ?IOleInPlaceObject_UIDeactivate@CComControlBase@ATL@@QEAAJXZ 00000001800085dc f i MICR.obj
 0001:000076e8       ?IOleObject_Close@CComControlBase@ATL@@QEAAJK@Z 00000001800086e8 f i MICR.obj
 0001:00007800       ?IOleObject_SetClientSite@CComControlBase@ATL@@QEAAJPEAUIOleClientSite@@@Z 0000000180008800 f i MICR.obj
 0001:00007878       ?IOleObject_SetExtent@CComControlBase@ATL@@QEAAJKPEAUtagSIZE@@@Z 0000000180008878 f i MICR.obj
 0001:00007910       ?IPSI_GetIPersistStreamInit@?$IPersistStorageImpl@VCOPOSMICR@@@ATL@@AEAAPEAUIPersistStreamInit@@XZ 0000000180008910 f i MICR.obj
 0001:000079f8       ?IPersistStreamInit_Load@?$IPersistStreamInitImpl@VCOPOSMICR@@@ATL@@QEAAJPEAUIStream@@PEBUATL_PROPMAP_ENTRY@2@@Z 00000001800089f8 f i MICR.obj
 0001:00007d24       ?IPersistStreamInit_Save@?$IPersistStreamInitImpl@VCOPOSMICR@@@ATL@@QEAAJPEAUIStream@@HPEBUATL_PROPMAP_ENTRY@2@@Z 0000000180008d24 f i MICR.obj
 0001:00007fc4       ?IQuickActivate_QuickActivate@CComControlBase@ATL@@QEAAJPEAUtagQACONTAINER@@PEAUtagQACONTROL@@@Z 0000000180008fc4 f i MICR.obj
 0001:00008288       ?IViewObject_Draw@CComControlBase@ATL@@QEAAJKJPEAXPEAUtagDVTARGETDEVICE@@PEAUHDC__@@2PEBU_RECTL@@3@Z 0000000180009288 f i MICR.obj
 0001:0000839c       ?InPlaceActivate@CComControlBase@ATL@@QEAAJJPEBUtagRECT@@@Z 000000018000939c f i MICR.obj
 0001:000086d0       ?Init@?$CComEnumImpl@UIEnumConnectionPoints@@$1?_GUID_b196b285_bab4_101a_b69c_00aa00341d07@@3U__s_GUID@@BPEAUIConnectionPoint@@V?$_CopyInterface@UIConnectionPoint@@@ATL@@@ATL@@QEAAJPEAPEAUIConnectionPoint@@0PEAUIUnknown@@W4CComEnumFlags@2@@Z 00000001800096d0 f i MICR.obj
 0001:000087f0       ?Init@?$CComEnumImpl@UIEnumConnections@@$1?_GUID_b196b287_bab4_101a_b69c_00aa00341d07@@3U__s_GUID@@BUtagCONNECTDATA@@V?$_Copy@UtagCONNECTDATA@@@ATL@@@ATL@@QEAAJPEAUtagCONNECTDATA@@0PEAUIUnknown@@W4CComEnumFlags@2@@Z 00000001800097f0 f i MICR.obj
 0001:00008914       ?IsEqualObject@?$CComPtrBase@UIOleClientSite@@@ATL@@QEAA_NPEAUIUnknown@@@Z 0000000180009914 f i MICR.obj
 0001:000089a0       ?LoadNameCache@CComTypeInfoHolder@ATL@@QEAAJPEAUITypeInfo@@@Z 00000001800099a0 f i MICR.obj
 0001:00008b20       ?Lookup@?$CSimpleMap@PEA_WPEA_WVCExpansionVectorEqualHelper@ATL@@@ATL@@QEBAPEA_WAEBQEA_W@Z 0000000180009b20 f i MICR.obj
 0001:00008ba8       ?NextToken@CRegParser@ATL@@IEAAJPEA_W@Z 0000000180009ba8 f i MICR.obj
 0001:00008d60       ?OnKillFocus@CComControlBase@ATL@@QEAA_JI_K_JAEAH@Z 0000000180009d60 f i MICR.obj
 0001:00008dfc       ?OnMouseActivate@CComControlBase@ATL@@QEAA_JI_K_JAEAH@Z 0000000180009dfc f i MICR.obj
 0001:00008e9c       ?OnPaint@CComControlBase@ATL@@QEAA_JI_K_JAEAH@Z 0000000180009e9c f i MICR.obj
 0001:00008f88       ?OnSetFocus@CComControlBase@ATL@@QEAA_JI_K_JAEAH@Z 0000000180009f88 f i MICR.obj
 0001:00009084       ?PreProcessBuffer@CRegParser@ATL@@QEAAJPEA_WPEAPEA_W@Z 000000018000a084 f i MICR.obj
 0001:00009410       ?ProcessWindowMessage@?$CComControl@VCOPOSMICR@@V?$CWindowImpl@VCOPOSMICR@@VCWindow@ATL@@V?$CWinTraits@$0FGAAAAAA@$0A@@3@@ATL@@@ATL@@UEAAHPEAUHWND__@@I_K_JAEA_JK@Z 000000018000a410 f i MICR.obj
 0001:000094f4       ?ReadFromStream@CComBSTR@ATL@@QEAAJPEAUIStream@@@Z 000000018000a4f4 f i MICR.obj
 0001:00009644       ?ReadFromStream@CComVariant@ATL@@QEAAJPEAUIStream@@GTClassesAllowedInStream@2@K@Z 000000018000a644 f i MICR.obj
 0001:00009868       ?RecurseDeleteKey@CRegKey@ATL@@QEAAJPEB_W@Z 000000018000a868 f i MICR.obj
 0001:000099c0       ?RegCreateKeyExW@CAtlTransactionManager@ATL@@QEAAJPEAUHKEY__@@PEB_WKPEA_WKKQEAU_SECURITY_ATTRIBUTES@@PEAPEAU3@PEAK@Z 000000018000a9c0 f i MICR.obj
 0001:00009af4       ?RegDeleteKeyW@CAtlTransactionManager@ATL@@QEAAJPEAUHKEY__@@PEB_W@Z 000000018000aaf4 f i MICR.obj
 0001:00009b80       ?RegOpenKeyExW@CAtlTransactionManager@ATL@@QEAAJPEAUHKEY__@@PEB_WKKPEAPEAU3@@Z 000000018000ab80 f i MICR.obj
 0001:00009c38       ?RegisterBuffer@CRegParser@ATL@@QEAAJPEA_WH@Z 000000018000ac38 f i MICR.obj
 0001:00009da0       ?RegisterFromResource@CRegObject@ATL@@IEAAJPEB_W00H@Z 000000018000ada0 f i MICR.obj
 0001:00009f5c       ?RegisterServer@CComModule@ATL@@QEAAJHPEBU_GUID@@@Z 000000018000af5c f i MICR.obj
 0001:0000a01c       ?RegisterSubkeys@CRegParser@ATL@@IEAAJPEA_WPEAUHKEY__@@HH@Z 000000018000b01c f i MICR.obj
 0001:0000a888       ?SendOnDataChange@CComControlBase@ATL@@QEAAJK@Z 000000018000b888 f i MICR.obj
 0001:0000a8f8       ?SetControlFocus@CComControlBase@ATL@@QEAAHH@Z 000000018000b8f8 f i MICR.obj
 0001:0000a9d4       ?SkipAssignment@CRegParser@ATL@@IEAAJPEA_W@Z 000000018000b9d4 f i MICR.obj
 0001:0000aa78       ?Term@CAtlModule@ATL@@QEAAXXZ 000000018000ba78 f i MICR.obj
 0001:0000aaf8       ?Term@CComModule@ATL@@QEAAXXZ 000000018000baf8 f i MICR.obj
 0001:0000ab74       ?UnregisterServer@CComModule@ATL@@QEAAJHPEBU_GUID@@@Z 000000018000bb74 f i MICR.obj
 0001:0000ac24       ?UpdateRegistryFromResource@CAtlModule@ATL@@QEAAJIHPEAU_ATL_REGMAP_ENTRY@2@@Z 000000018000bc24 f i MICR.obj
 0001:0000af30       ?UpdateRegistryFromResource@CAtlModule@ATL@@QEAAJPEB_WHPEAU_ATL_REGMAP_ENTRY@2@@Z 000000018000bf30 f i MICR.obj
 0001:0000b254       ?VTFromRegType@CRegParser@ATL@@KAHPEB_WAEAG@Z 000000018000c254 f i MICR.obj
 0001:0000b2f0       ?WindowProc@?$CWindowImplBaseT@VCWindow@ATL@@V?$CWinTraits@$0FGAAAAAA@$0A@@2@@ATL@@SA_JPEAUHWND__@@I_K_J@Z 000000018000c2f0 f i MICR.obj
 0001:0000b45c       ?WriteToStream@CComVariant@ATL@@QEAAJPEAUIStream@@@Z 000000018000c45c f i MICR.obj
 0001:0000b6d8       ?WriteToStream@CComVariant@ATL@@QEAAJPEAUIStream@@G@Z 000000018000c6d8 f i MICR.obj
 0001:0000b770       ?_AtlVerifyStackAvailable@_ATL_SAFE_ALLOCA_IMPL@ATL@@YA_N_K@Z 000000018000c770 f i MICR.obj
 0001:0000b7f4       ?atlCreate@?$CWindowImpl@VCOPOSMICR@@VCWindow@ATL@@V?$CWinTraits@$0FGAAAAAA@$0A@@3@@ATL@@QEAAPEAUHWND__@@PEAU3@V_U_RECT@2@PEB_WKKV_U_MENUorID@2@PEAX@Z 000000018000c7f4 f i MICR.obj
 0001:0000b8a4       ?atlCreate@?$CWindowImplBaseT@VCWindow@ATL@@V?$CWinTraits@$0FGAAAAAA@$0A@@2@@ATL@@QEAAPEAUHWND__@@PEAU3@V_U_RECT@2@PEB_WKKV_U_MENUorID@2@GPEAX@Z 000000018000c8a4 f i MICR.obj
 0001:0000ba14       ?ocscpy_s@@YA_NPEA_W_KPEB_W@Z 000000018000ca14 f i MICR.obj
 0001:0000bac4       DllCanUnloadNow            000000018000cac4 f   MICR.obj
 0001:0000bad0       DllGetClassObject          000000018000cad0 f   MICR.obj
 0001:0000bae8       DllMain                    000000018000cae8 f   MICR.obj
 0001:0000bb90       DllRegisterServer          000000018000cb90 f   MICR.obj
 0001:0000bba4       DllUnregisterServer        000000018000cba4 f   MICR.obj
 0001:0000bbb8       __local_stdio_printf_options 000000018000cbb8 f i MICR.obj
 0001:0000bbc0       swprintf_s                 000000018000cbc0 f i MICR.obj
 0001:0000bc14       ??0COPOSMICR@@QEAA@XZ      000000018000cc14 f   MICRImpl.obj
 0001:0000bcdc       ??1?$IConnectionPointImpl@VCOPOSMICR@@$1?DIID__IOPOSMICREvents@@3U_GUID@@BVCComDynamicUnkArray@ATL@@@ATL@@QEAA@XZ 000000018000ccdc f i MICRImpl.obj
 0001:0000bcdc       ??1?$IConnectionPointImpl@VCOPOSMICR@@$1?IID_IPropertyNotifySink@@3U_GUID@@BVCComDynamicUnkArray@ATL@@@ATL@@QEAA@XZ 000000018000ccdc f i MICRImpl.obj
 0001:0000bd38       ??1CComControlBase@ATL@@UEAA@XZ 000000018000cd38 f i MICRImpl.obj
 0001:0000bdb4       ??1COPOSMICR@@UEAA@XZ      000000018000cdb4 f   MICRImpl.obj
 0001:0000be18       ?BeginInsertion@COPOSMICR@@UEAAJJPEAJ@Z 000000018000ce18 f   MICRImpl.obj
 0001:0000be94       ?BeginRemoval@COPOSMICR@@UEAAJJPEAJ@Z 000000018000ce94 f   MICRImpl.obj
 0001:0000bf10       ?CheckHealth@COPOSMICR@@UEAAJJPEAJ@Z 000000018000cf10 f   MICRImpl.obj
 0001:0000bf8c       ?ClaimDevice@COPOSMICR@@UEAAJJPEAJ@Z 000000018000cf8c f   MICRImpl.obj
 0001:0000c02c       ?ClearInput@COPOSMICR@@UEAAJPEAJ@Z 000000018000d02c f   MICRImpl.obj
 0001:0000c054       ?ClearInputProperties@COPOSMICR@@UEAAJPEAJ@Z 000000018000d054 f   MICRImpl.obj
 0001:0000c07c       ?Close@COPOSMICR@@UEAAJPEAJ@Z 000000018000d07c f   MICRImpl.obj
 0001:0000c134       ?CompareFirmwareVersion@COPOSMICR@@UEAAJPEA_WPEAJ1@Z 000000018000d134 f   MICRImpl.obj
 0001:0000c210       ?DirectIO@COPOSMICR@@UEAAJJPEAJPEAPEA_W0@Z 000000018000d210 f   MICRImpl.obj
 0001:0000c30c       ?DoInvoke@COPOSMICR@@IEAAJJPEAVOposVariant@@IHPEAJ_N@Z 000000018000d30c f   MICRImpl.obj
 0001:0000c440       ?EndInsertion@COPOSMICR@@UEAAJPEAJ@Z 000000018000d440 f   MICRImpl.obj
 0001:0000c468       ?EndRemoval@COPOSMICR@@UEAAJPEAJ@Z 000000018000d468 f   MICRImpl.obj
 0001:0000c490       ?EventInit@COPOSMICR@@IEAAJXZ 000000018000d490 f i MICRImpl.obj
 0001:0000c5d8       ?EventUninit@COPOSMICR@@IEAAXXZ 000000018000d5d8 f i MICRImpl.obj
 0001:0000c63c       ?EventWindowProc@COPOSMICR@@IEAA_JI_K_J@Z 000000018000d63c f i MICRImpl.obj
 0001:0000c7b4       ?FinalConstruct@COPOSMICR@@QEAAJXZ 000000018000d7b4 f   MICRImpl.obj
 0001:0000c7f0       ?FreezeEvents@COPOSMICR@@MEAAJH@Z 000000018000d7f0 f   MICRImpl.obj
 0001:0000c864       ?GetOposProp@COPOSMICR@@IEAAJJPEAJJ@Z 000000018000d864 f   MICRImpl.obj
 0001:0000c980       ?GetOposProp@COPOSMICR@@IEAAJJPEAPEA_WJ@Z 000000018000d980 f   MICRImpl.obj
 0001:0000caac       ?OnDraw@COPOSMICR@@MEAAJAEAUATL_DRAWINFO@@@Z 000000018000daac f   MICRImpl.obj
 0001:0000cb98       ?Open@COPOSMICR@@UEAAJPEA_WPEAJ@Z 000000018000db98 f   MICRImpl.obj
 0001:0000d420       ?ReleaseDevice@COPOSMICR@@UEAAJPEAJ@Z 000000018000e420 f   MICRImpl.obj
 0001:0000d48c       ?ResetStatistics@COPOSMICR@@UEAAJPEA_WPEAJ@Z 000000018000e48c f   MICRImpl.obj
 0001:0000d514       ?RetrieveStatistics@COPOSMICR@@UEAAJPEAPEA_WPEAJ@Z 000000018000e514 f   MICRImpl.obj
 0001:0000d59c       ?SOProcessID@COPOSMICR@@UEAAJPEAJ@Z 000000018000e59c f   MICRImpl.obj
 0001:0000d5b8       ?SetCOFreezeEvents@COPOSMICR@@IEAAXF@Z 000000018000e5b8 f   MICRImpl.obj
 0001:0000d69c       ?SetOposProp@COPOSMICR@@IEAAJJJJ@Z 000000018000e69c f   MICRImpl.obj
 0001:0000d7fc       ?UpdateFirmware@COPOSMICR@@UEAAJPEA_WPEAJ@Z 000000018000e7fc f   MICRImpl.obj
 0001:0000d884       ?UpdateStatistics@COPOSMICR@@UEAAJPEA_WPEAJ@Z 000000018000e884 f   MICRImpl.obj
 0001:0000d90c       ?get_AccountNumber@COPOSMICR@@UEAAJPEAPEA_W@Z 000000018000e90c f   MICRImpl.obj
 0001:0000d91c       ?get_Amount@COPOSMICR@@UEAAJPEAPEA_W@Z 000000018000e91c f   MICRImpl.obj
 0001:0000d92c       ?get_AutoDisable@COPOSMICR@@UEAAJPEAF@Z 000000018000e92c f   MICRImpl.obj
 0001:0000d960       ?get_BankNumber@COPOSMICR@@UEAAJPEAPEA_W@Z 000000018000e960 f   MICRImpl.obj
 0001:0000d970       ?get_BinaryConversion@COPOSMICR@@UEAAJPEAJ@Z 000000018000e970 f   MICRImpl.obj
 0001:0000d984       ?get_CapCompareFirmwareVersion@COPOSMICR@@UEAAJPEAF@Z 000000018000e984 f   MICRImpl.obj
 0001:0000d9b8       ?get_CapPowerReporting@COPOSMICR@@UEAAJPEAJ@Z 000000018000e9b8 f   MICRImpl.obj
 0001:0000d9cc       ?get_CapStatisticsReporting@COPOSMICR@@UEAAJPEAF@Z 000000018000e9cc f   MICRImpl.obj
 0001:0000da00       ?get_CapUpdateFirmware@COPOSMICR@@UEAAJPEAF@Z 000000018000ea00 f   MICRImpl.obj
 0001:0000da34       ?get_CapUpdateStatistics@COPOSMICR@@UEAAJPEAF@Z 000000018000ea34 f   MICRImpl.obj
 0001:0000da68       ?get_CapValidationDevice@COPOSMICR@@UEAAJPEAF@Z 000000018000ea68 f   MICRImpl.obj
 0001:0000da98       ?get_CheckHealthText@COPOSMICR@@UEAAJPEAPEA_W@Z 000000018000ea98 f   MICRImpl.obj
 0001:0000daa8       ?get_CheckType@COPOSMICR@@UEAAJPEAJ@Z 000000018000eaa8 f   MICRImpl.obj
 0001:0000dab8       ?get_Claimed@COPOSMICR@@UEAAJPEAF@Z 000000018000eab8 f   MICRImpl.obj
 0001:0000dae8       ?get_ControlObjectDescription@COPOSMICR@@UEAAJPEAPEA_W@Z 000000018000eae8 f   MICRImpl.obj
 0001:0000db4c       ?get_ControlObjectVersion@COPOSMICR@@UEAAJPEAJ@Z 000000018000eb4c f   MICRImpl.obj
 0001:0000db58       ?get_CountryCode@COPOSMICR@@UEAAJPEAJ@Z 000000018000eb58 f   MICRImpl.obj
 0001:0000db68       ?get_DataCount@COPOSMICR@@UEAAJPEAJ@Z 000000018000eb68 f   MICRImpl.obj
 0001:0000db7c       ?get_DataEventEnabled@COPOSMICR@@UEAAJPEAF@Z 000000018000eb7c f   MICRImpl.obj
 0001:0000dbac       ?get_DeviceDescription@COPOSMICR@@UEAAJPEAPEA_W@Z 000000018000ebac f   MICRImpl.obj
 0001:0000dbbc       ?get_DeviceEnabled@COPOSMICR@@UEAAJPEAF@Z 000000018000ebbc f   MICRImpl.obj
 0001:0000dbec       ?get_DeviceName@COPOSMICR@@UEAAJPEAPEA_W@Z 000000018000ebec f   MICRImpl.obj
 0001:0000dbfc       ?get_EPC@COPOSMICR@@UEAAJPEAPEA_W@Z 000000018000ebfc f   MICRImpl.obj
 0001:0000dc0c       ?get_FreezeEvents@COPOSMICR@@UEAAJPEAF@Z 000000018000ec0c f   MICRImpl.obj
 0001:0000dc3c       ?get_OpenResult@COPOSMICR@@UEAAJPEAJ@Z 000000018000ec3c f   MICRImpl.obj
 0001:0000dc48       ?get_PowerNotify@COPOSMICR@@UEAAJPEAJ@Z 000000018000ec48 f   MICRImpl.obj
 0001:0000dc5c       ?get_PowerState@COPOSMICR@@UEAAJPEAJ@Z 000000018000ec5c f   MICRImpl.obj
 0001:0000dc70       ?get_RawData@COPOSMICR@@UEAAJPEAPEA_W@Z 000000018000ec70 f   MICRImpl.obj
 0001:0000dc80       ?get_ResultCode@COPOSMICR@@UEAAJPEAJ@Z 000000018000ec80 f   MICRImpl.obj
 0001:0000dcbc       ?get_ResultCodeExtended@COPOSMICR@@UEAAJPEAJ@Z 000000018000ecbc f   MICRImpl.obj
 0001:0000dccc       ?get_SerialNumber@COPOSMICR@@UEAAJPEAPEA_W@Z 000000018000eccc f   MICRImpl.obj
 0001:0000dcdc       ?get_ServiceObjectDescription@COPOSMICR@@UEAAJPEAPEA_W@Z 000000018000ecdc f   MICRImpl.obj
 0001:0000dcec       ?get_ServiceObjectVersion@COPOSMICR@@UEAAJPEAJ@Z 000000018000ecec f   MICRImpl.obj
 0001:0000dcfc       ?get_State@COPOSMICR@@UEAAJPEAJ@Z 000000018000ecfc f   MICRImpl.obj
 0001:0000dd28       ?get_TransitNumber@COPOSMICR@@UEAAJPEAPEA_W@Z 000000018000ed28 f   MICRImpl.obj
 0001:0000dd38       ?put_AutoDisable@COPOSMICR@@UEAAJF@Z 000000018000ed38 f   MICRImpl.obj
 0001:0000dd50       ?put_BinaryConversion@COPOSMICR@@UEAAJJ@Z 000000018000ed50 f   MICRImpl.obj
 0001:0000dd64       ?put_DataEventEnabled@COPOSMICR@@UEAAJF@Z 000000018000ed64 f   MICRImpl.obj
 0001:0000dd7c       ?put_DeviceEnabled@COPOSMICR@@UEAAJF@Z 000000018000ed7c f   MICRImpl.obj
 0001:0000dd94       ?put_FreezeEvents@COPOSMICR@@UEAAJF@Z 000000018000ed94 f   MICRImpl.obj
 0001:0000dde4       ?put_PowerNotify@COPOSMICR@@UEAAJJ@Z 000000018000ede4 f   MICRImpl.obj
 0001:0000ddf8       ?s_EventWindowProc@COPOSMICR@@KA_JPEAUHWND__@@I_K_J@Z 000000018000edf8 f i MICRImpl.obj
 0001:0000de74       ??_U@YAPEAX_K@Z            000000018000ee74 f   LIBCMT:new_array.obj
 0001:0000de7c       ??_V@YAXPEAX@Z             000000018000ee7c f   LIBCMT:delete_array.obj
 0001:0000de7c       ??3@YAXPEAX_K@Z            000000018000ee7c f   LIBCMT:delete_scalar_size.obj
 0001:0000de84       ??_V@YAXPEAX_K@Z           000000018000ee84 f   LIBCMT:delete_array_size.obj
 0001:0000de8c       __scrt_acquire_startup_lock 000000018000ee8c f   LIBCMT:utility.obj
 0001:0000dec8       __scrt_dllmain_after_initialize_c 000000018000eec8 f   LIBCMT:utility.obj
 0001:0000defc       __scrt_dllmain_before_initialize_c 000000018000eefc f   LIBCMT:utility.obj
 0001:0000df14       __scrt_dllmain_crt_thread_attach 000000018000ef14 f   LIBCMT:utility.obj
 0001:0000df3c       __scrt_dllmain_crt_thread_detach 000000018000ef3c f   LIBCMT:utility.obj
 0001:0000df54       __scrt_dllmain_exception_filter 000000018000ef54 f   LIBCMT:utility.obj
 0001:0000dfb4       __scrt_dllmain_uninitialize_c 000000018000efb4 f   LIBCMT:utility.obj
 0001:0000dfe4       __scrt_dllmain_uninitialize_critical 000000018000efe4 f   LIBCMT:utility.obj
 0001:0000dff8       __scrt_initialize_crt      000000018000eff8 f   LIBCMT:utility.obj
 0001:0000e044       __scrt_initialize_onexit_tables 000000018000f044 f   LIBCMT:utility.obj
 0001:0000e0d0       __scrt_is_nonwritable_in_current_image 000000018000f0d0 f   LIBCMT:utility.obj
 0001:0000e168       __scrt_release_startup_lock 000000018000f168 f   LIBCMT:utility.obj
 0001:0000e18c       __scrt_uninitialize_crt    000000018000f18c f   LIBCMT:utility.obj
 0001:0000e1b8       _onexit                    000000018000f1b8 f   LIBCMT:utility.obj
 0001:0000e1f4       atexit                     000000018000f1f4 f   LIBCMT:utility.obj
 0001:0000e20c       ??3@YAXPEAX@Z              000000018000f20c f   LIBCMT:delete_scalar.obj
 0001:0000e30c       _Init_thread_footer        000000018000f30c f   LIBCMT:thread_safe_statics.obj
 0001:0000e36c       _Init_thread_header        000000018000f36c f   LIBCMT:thread_safe_statics.obj
 0001:0000e3d4       _Init_thread_notify        000000018000f3d4 f   LIBCMT:thread_safe_statics.obj
 0001:0000e418       _Init_thread_wait          000000018000f418 f   LIBCMT:thread_safe_statics.obj
 0001:0000e47c       __raise_securityfailure    000000018000f47c f   LIBCMT:gs_report.obj
 0001:0000e4b0       __report_gsfailure         000000018000f4b0 f   LIBCMT:gs_report.obj
 0001:0000e584       __report_rangecheckfailure 000000018000f584 f   LIBCMT:gs_report.obj
 0001:0000e598       __report_securityfailure   000000018000f598 f   LIBCMT:gs_report.obj
 0001:0000e718       ??2@YAPEAX_KAEBUnothrow_t@std@@@Z 000000018000f718 f   LIBCMT:new_scalar_nothrow.obj
 0001:0000e72c       ??_U@YAPEAX_KAEBUnothrow_t@std@@@Z 000000018000f72c f   LIBCMT:new_array_nothrow.obj
 0001:0000e734       __GSHandlerCheck           000000018000f734 f   LIBCMT:gshandler.obj
 0001:0000e754       __GSHandlerCheckCommon     000000018000f754 f   LIBCMT:gshandler.obj
 0001:0000e7b0       __GSHandlerCheck_SEH       000000018000f7b0 f   LIBCMT:gshandlerseh.obj
 0001:0000e850       __chkstk                   000000018000f850 f   LIBCMT:chkstk.obj
 0001:0000e850       _alloca_probe              000000018000f850 f   LIBCMT:chkstk.obj
 0001:0000e8c0       __security_check_cookie    000000018000f8c0 f   LIBCMT:amdsecgs.obj
 0001:0000ec04       _DllMainCRTStartup         000000018000fc04 f   LIBCMT:dll_dllmain.obj
 0001:0000ec44       ??2@YAPEAX_K@Z             000000018000fc44 f   LIBCMT:new_scalar.obj
 0001:0000ec80       __isa_available_init       000000018000fc80 f   LIBCMT:cpu_disp.obj
 0001:0000ee24       __scrt_is_ucrt_dll_in_use  000000018000fe24 f   LIBCMT:ucrt_detection.obj
 0001:0000ee30       __crt_debugger_hook        000000018000fe30 f   LIBCMT:utility_desktop.obj
 0001:0000ee38       __scrt_fastfail            000000018000fe38 f   LIBCMT:utility_desktop.obj
 0001:0000ef84       __security_init_cookie     000000018000ff84 f   LIBCMT:gs_support.obj
 0001:0000f030       ?__scrt_initialize_type_info@@YAXXZ 0000000180010030 f   LIBCMT:tncleanup.obj
 0001:0000f040       ?__scrt_uninitialize_type_info@@YAXXZ 0000000180010040 f   LIBCMT:tncleanup.obj
 0001:0000f04c       __local_stdio_scanf_options 000000018001004c f i LIBCMT:default_local_stdio_options.obj
 0001:0000f054       __scrt_initialize_default_local_stdio_options 0000000180010054 f   LIBCMT:default_local_stdio_options.obj
 0001:0000f070       __scrt_get_dyn_tls_init_callback 0000000180010070 f   LIBCMT:dyn_tls_init.obj
 0001:0000f078       _RTC_Initialize            0000000180010078 f   LIBCMT:initsect.obj
 0001:0000f0b4       _RTC_Terminate             00000001800100b4 f   LIBCMT:initsect.obj
 0001:0000f0f0       ??0bad_alloc@std@@QEAA@AEBV01@@Z 00000001800100f0 f i LIBCMT:throw_bad_alloc.obj
 0001:0000f12c       ??0bad_alloc@std@@QEAA@XZ  000000018001012c f i LIBCMT:throw_bad_alloc.obj
 0001:0000f14c       ??0bad_array_new_length@std@@QEAA@AEBV01@@Z 000000018001014c f i LIBCMT:throw_bad_alloc.obj
 0001:0000f188       ??0bad_array_new_length@std@@QEAA@XZ 0000000180010188 f i LIBCMT:throw_bad_alloc.obj
 0001:0000f1a8       ??0exception@std@@QEAA@AEBV01@@Z 00000001800101a8 f i LIBCMT:throw_bad_alloc.obj
 0001:0000f1dc       ??1bad_alloc@std@@UEAA@XZ  00000001800101dc f i LIBCMT:throw_bad_alloc.obj
 0001:0000f1dc       ??1bad_exception@std@@UEAA@XZ 00000001800101dc f i libvcruntime:frame.obj
 0001:0000f1dc       ??1bad_array_new_length@std@@UEAA@XZ 00000001800101dc f i LIBCMT:throw_bad_alloc.obj
 0001:0000f1f0       ??_Gbad_array_new_length@std@@UEAAPEAXI@Z 00000001800101f0 f i LIBCMT:throw_bad_alloc.obj
 0001:0000f1f0       ??_Eexception@std@@UEAAPEAXI@Z 00000001800101f0 f i LIBCMT:throw_bad_alloc.obj
 0001:0000f1f0       ??_Ebad_alloc@std@@UEAAPEAXI@Z 00000001800101f0 f i LIBCMT:throw_bad_alloc.obj
 0001:0000f1f0       ??_Gbad_alloc@std@@UEAAPEAXI@Z 00000001800101f0 f i LIBCMT:throw_bad_alloc.obj
 0001:0000f1f0       ??_Ebad_exception@std@@UEAAPEAXI@Z 00000001800101f0 f i libvcruntime:frame.obj
 0001:0000f1f0       ??_Gbad_exception@std@@UEAAPEAXI@Z 00000001800101f0 f i libvcruntime:frame.obj
 0001:0000f1f0       ??_Ebad_array_new_length@std@@UEAAPEAXI@Z 00000001800101f0 f i LIBCMT:throw_bad_alloc.obj
 0001:0000f1f0       ??_Gexception@std@@UEAAPEAXI@Z 00000001800101f0 f i LIBCMT:throw_bad_alloc.obj
 0001:0000f234       ?__scrt_throw_std_bad_alloc@@YAXXZ 0000000180010234 f   LIBCMT:throw_bad_alloc.obj
 0001:0000f254       ?__scrt_throw_std_bad_array_new_length@@YAXXZ 0000000180010254 f   LIBCMT:throw_bad_alloc.obj
 0001:0000f274       ?what@exception@std@@UEBAPEBDXZ 0000000180010274 f i LIBCMT:throw_bad_alloc.obj
 0001:0000f290       ??_Etype_info@@UEAAPEAXI@Z 0000000180010290 f i LIBCMT:std_type_info_static.obj
 0001:0000f290       ??_Gtype_info@@UEAAPEAXI@Z 0000000180010290 f i LIBCMT:std_type_info_static.obj
 0001:0000f2bc       ??0CAtlBaseModule@ATL@@QEAA@XZ 00000001800102bc f   atls:atlbase.obj
 0001:0000f364       ??1CAtlBaseModule@ATL@@QEAA@XZ 0000000180010364 f   atls:atlbase.obj
 0001:0000f498       ?__AllocStdCallThunk_cmn@@YAPEAXXZ 0000000180010498 f   atls:atlthunk.obj
 0001:0000f5f0       AtlThunk_AllocateData      00000001800105f0 f   atls:atlthunk.obj
 0001:0000f66c       AtlThunk_DataToCode        000000018001066c f   atls:atlthunk.obj
 0001:0000f6c0       AtlThunk_FreeData          00000001800106c0 f   atls:atlthunk.obj
 0001:0000f720       AtlThunk_InitData          0000000180010720 f   atls:atlthunk.obj
 0001:0000f7c8       _get_purecall_handler      00000001800107c8 f   libvcruntime:purevirt.obj
 0001:0000f7d0       _purecall                  00000001800107d0 f   libvcruntime:purevirt.obj
 0001:0000f7ec       wcsstr                     00000001800107ec f   libvcruntime:wcsstr.obj
 0001:0000fa20       memcmp                     0000000180010a20 f   libvcruntime:memcmp.obj
 0001:0000fb00       memcpy_repmovs             0000000180010b00 f   libvcruntime:memcpy.obj
 0001:0000fb20       memmove                    0000000180010b20 f   libvcruntime:memcpy.obj
 0001:0000fb20       memcpy                     0000000180010b20 f   libvcruntime:memcpy.obj
 0001:0000ff10       memset_repmovs             0000000180010f10 f   libvcruntime:memset.obj
 0001:0000ff30       memset                     0000000180010f30 f   libvcruntime:memset.obj
 0001:000100c0       __vcrt_initialize          00000001800110c0 f   libvcruntime:initialization.obj
 0001:000100e8       __vcrt_thread_attach       00000001800110e8 f   libvcruntime:initialization.obj
 0001:000100fc       __vcrt_thread_detach       00000001800110fc f   libvcruntime:initialization.obj
 0001:00010110       __vcrt_uninitialize        0000000180011110 f   libvcruntime:initialization.obj
 0001:0001012c       __vcrt_uninitialize_critical 000000018001112c f   libvcruntime:initialization.obj
 0001:0001013c       __C_specific_handler       000000018001113c f   libvcruntime:riscchandler.obj
 0001:00010348       ??$_CallSETranslator@V__FrameHandler4@@@@YAHPEAUEHExceptionRecord@@PEA_KPEAU_CONTEXT@@PEAU_xDISPATCHER_CONTEXT@@PEAUFuncInfo4@FH4@@K1H@Z 0000000180011348 f i libvcruntime:risctrnsctrl.obj
 0001:0001039c       ?DecompFuncInfo@FH4@@YA_JPEAEAEAUFuncInfo4@1@_KH_N@Z 000000018001139c f i libvcruntime:risctrnsctrl.obj
 0001:000104c0       ?ExecutionInCatch@__FrameHandler4@@SA_NPEAU_xDISPATCHER_CONTEXT@@PEAUFuncInfo4@FH4@@@Z 00000001800114c0 f   libvcruntime:risctrnsctrl.obj
 0001:000104c8       ?FrameUnwindToEmptyState@__FrameHandler4@@SAXPEA_KPEAU_xDISPATCHER_CONTEXT@@PEAUFuncInfo4@FH4@@@Z 00000001800114c8 f   libvcruntime:risctrnsctrl.obj
 0001:000104fc       ?GetEstablisherFrame@__FrameHandler4@@SAPEA_KPEA_KPEAU_xDISPATCHER_CONTEXT@@PEAUFuncInfo4@FH4@@0@Z 00000001800114fc f   libvcruntime:risctrnsctrl.obj
 0001:00010520       ?GetRangeOfTrysToCheck@__FrameHandler4@@SA?AU?$pair@Viterator@TryBlockMap4@FH4@@V123@@std@@AEAVTryBlockMap4@FH4@@HPEAU_xDISPATCHER_CONTEXT@@PEAUFuncInfo4@5@H@Z 0000000180011520 f   libvcruntime:risctrnsctrl.obj
 0001:0001067c       ?UnwindNestedFrames@__FrameHandler4@@SAXPEA_KPEAUEHExceptionRecord@@PEAU_CONTEXT@@0PEAXPEAUFuncInfo4@FH4@@HHPEAUHandlerType4@5@PEAU_xDISPATCHER_CONTEXT@@E@Z 000000018001167c f   libvcruntime:risctrnsctrl.obj
 0001:0001079c       ?setBuffer@TryBlockMap4@FH4@@QEAAXViterator@12@@Z 000000018001179c f i libvcruntime:risctrnsctrl.obj
 0001:00010960       _CreateFrameInfo           0000000180011960 f   libvcruntime:risctrnsctrl.obj
 0001:0001099c       _FindAndUnlinkFrame        000000018001199c f   libvcruntime:risctrnsctrl.obj
 0001:000109f0       _GetImageBase              00000001800119f0 f   libvcruntime:risctrnsctrl.obj
 0001:00010a04       _GetThrowImageBase         0000000180011a04 f   libvcruntime:risctrnsctrl.obj
 0001:00010a18       _SetImageBase              0000000180011a18 f   libvcruntime:risctrnsctrl.obj
 0001:00010a30       _SetThrowImageBase         0000000180011a30 f   libvcruntime:risctrnsctrl.obj
 0001:00010a48       __CxxFrameHandler4         0000000180011a48 f   libvcruntime:risctrnsctrl.obj
 0001:00010b08       __DestructExceptionObject  0000000180011b08 f   libvcruntime:ehhelpers.obj
 0001:00010b78       ?_CallMemberFunction0@@YAXQEAX0@Z 0000000180011b78 f i libvcruntime:ehhelpers.obj
 0001:00010b7c       _IsExceptionObjectToBeDestroyed 0000000180011b7c f   libvcruntime:ehhelpers.obj
 0001:00010bac       __AdjustPointer            0000000180011bac f   libvcruntime:ehhelpers.obj
 0001:00010bd0       __FrameUnwindFilter        0000000180011bd0 f   libvcruntime:ehhelpers.obj
 0001:00010c38       __std_type_info_compare    0000000180011c38 f   libvcruntime:std_type_info.obj
 0001:00010c60       __std_type_info_destroy_list 0000000180011c60 f   libvcruntime:std_type_info.obj
 0001:00010c8c       __std_exception_copy       0000000180011c8c f   libvcruntime:std_exception.obj
 0001:00010d1c       __std_exception_destroy    0000000180011d1c f   libvcruntime:std_exception.obj
 0001:00010d44       _CxxThrowException         0000000180011d44 f   libvcruntime:throw.obj
 0001:00010de4       __vcrt_freefls             0000000180011de4 f   libvcruntime:per_thread_data.obj
 0001:00010e04       __vcrt_freeptd             0000000180011e04 f   libvcruntime:per_thread_data.obj
 0001:00010e54       __vcrt_getptd              0000000180011e54 f   libvcruntime:per_thread_data.obj
 0001:00010e70       __vcrt_getptd_noexit       0000000180011e70 f   libvcruntime:per_thread_data.obj
 0001:00010f30       __vcrt_initialize_ptd      0000000180011f30 f   libvcruntime:per_thread_data.obj
 0001:00010f78       __vcrt_uninitialize_ptd    0000000180011f78 f   libvcruntime:per_thread_data.obj
 0001:00010f9c       __vcrt_initialize_locks    0000000180011f9c f   libvcruntime:locks.obj
 0001:00010fd0       __vcrt_uninitialize_locks  0000000180011fd0 f   libvcruntime:locks.obj
 0001:00011020       _NLG_Notify                0000000180012020 f   libvcruntime:notify.obj
 0001:00011040       __NLG_Dispatch2            0000000180012040 f   libvcruntime:notify.obj
 0001:00011050       __NLG_Return2              0000000180012050 f   libvcruntime:notify.obj
 0001:00011054       __except_validate_context_record 0000000180012054 f   libvcruntime:jbcxrval.obj
 0001:0001108c       ?StateFromControlPc@__FrameHandler4@@SAHPEAUFuncInfo4@FH4@@PEAU_xDISPATCHER_CONTEXT@@@Z 000000018001208c f   libvcruntime:ehstate.obj
 0001:00011094       ?StateFromIp@__FrameHandler4@@SAHPEAUFuncInfo4@FH4@@PEAU_xDISPATCHER_CONTEXT@@_K@Z 0000000180012094 f   libvcruntime:ehstate.obj
 0001:00011d18       ??$TypeMatchHelper@V__FrameHandler3@@@@YAHPEBU_s_HandlerType@@PEBU_s_CatchableType@@PEBU_s_ThrowInfo@@@Z 0000000180012d18 f i libvcruntime:frame.obj
 0001:00011e58       ??$TypeMatchHelper@V__FrameHandler4@@@@YAHPEAUHandlerType4@FH4@@PEBU_s_CatchableType@@PEBU_s_ThrowInfo@@@Z 0000000180012e58 f i libvcruntime:frame.obj
 0001:00011f9c       ??$__InternalCxxFrameHandler@V__FrameHandler4@@@@YA?AW4_EXCEPTION_DISPOSITION@@PEAUEHExceptionRecord@@PEA_KPEAU_CONTEXT@@PEAU_xDISPATCHER_CONTEXT@@PEAUFuncInfo4@FH4@@H1E@Z 0000000180012f9c f i libvcruntime:frame.obj
 0001:00012230       ??0HandlerMap4@FH4@@QEAA@PEBUTryBlockMapEntry4@1@_KH@Z 0000000180013230 f i libvcruntime:frame.obj
 0001:000122ac       ??0TryBlockMap4@FH4@@QEAA@PEBUFuncInfo4@1@_K@Z 00000001800132ac f i libvcruntime:frame.obj
 0001:00012384       ??0bad_exception@std@@QEAA@AEBV01@@Z 0000000180013384 f i libvcruntime:frame.obj
 0001:000123c0       ??0bad_exception@std@@QEAA@XZ 00000001800133c0 f i libvcruntime:frame.obj
 0001:000123e0       ?CxxCallCatchBlock@__FrameHandler4@@SAPEAXPEAU_EXCEPTION_RECORD@@@Z 00000001800133e0 f   libvcruntime:frame.obj
 0001:00012630       ?DecompHandler@HandlerMap4@FH4@@AEAAXXZ 0000000180013630 f i libvcruntime:frame.obj
 0001:00012870       ?FrameUnwindToState@__FrameHandler4@@SAXPEA_KPEAU_xDISPATCHER_CONTEXT@@PEAUFuncInfo4@FH4@@H@Z 0000000180013870 f   libvcruntime:frame.obj
 0001:00012ccc       ?ReadEntry@UWMap4@FH4@@AEAAXPEAPEAE@Z 0000000180013ccc f i libvcruntime:frame.obj
 0001:00012d6c       ?_CallMemberFunction1@@YAXQEAX00@Z 0000000180013d6c f i libvcruntime:frame.obj
 0001:00012d78       ?_CallMemberFunction2@@YAXQEAX00H@Z 0000000180013d78 f i libvcruntime:frame.obj
 0001:00012d88       ?getStartStop@UWMap4@FH4@@QEAAXHHAEAViterator@12@0@Z 0000000180013d88 f i libvcruntime:frame.obj
 0001:00012e58       ?getStateFromIterators@UWMap4@FH4@@SAHAEBViterator@12@H0H0@Z 0000000180013e58 f i libvcruntime:frame.obj
 0001:0001306c       __vcrt_FlsAlloc            000000018001406c f   libvcruntime:winapi_downlevel.obj
 0001:000130b4       __vcrt_FlsFree             00000001800140b4 f   libvcruntime:winapi_downlevel.obj
 0001:000130fc       __vcrt_FlsGetValue         00000001800140fc f   libvcruntime:winapi_downlevel.obj
 0001:00013144       __vcrt_FlsSetValue         0000000180014144 f   libvcruntime:winapi_downlevel.obj
 0001:00013198       __vcrt_InitializeCriticalSectionEx 0000000180014198 f   libvcruntime:winapi_downlevel.obj
 0001:00013210       _CallSettingFrame          0000000180014210 f   libvcruntime:handlers.obj
 0001:00013260       _CallSettingFrame_LookupContinuationIndex 0000000180014260 f   libvcruntime:handlers.obj
 0001:00013290       _CallSettingFrame_NotifyContinuationAddr 0000000180014290 f   libvcruntime:handlers.obj
 0001:000132c0       _CallSettingFrameEncoded   00000001800142c0 f   libvcruntime:handlers.obj
 0001:00013308       free                       0000000180014308 f   libucrt:free.obj
 0001:0001331c       __acrt_call_reportfault    000000018001431c f   libucrt:invalid_parameter.obj
 0001:00013478       __acrt_initialize_invalid_parameter_handler 0000000180014478 f   libucrt:invalid_parameter.obj
 0001:00013480       _invalid_parameter         0000000180014480 f   libucrt:invalid_parameter.obj
 0001:00013530       _invalid_parameter_noinfo  0000000180014530 f   libucrt:invalid_parameter.obj
 0001:00013550       _invoke_watson             0000000180014550 f   libucrt:invalid_parameter.obj
 0001:00013598       __acrt_errno_from_os_error 0000000180014598 f   libucrt:errno.obj
 0001:000135e0       __acrt_errno_map_os_error  00000001800145e0 f   libucrt:errno.obj
 0001:00013630       __doserrno                 0000000180014630 f   libucrt:errno.obj
 0001:00013650       _errno                     0000000180014650 f   libucrt:errno.obj
 0001:00013670       calloc                     0000000180014670 f   libucrt:calloc.obj
 0001:00013678       malloc                     0000000180014678 f   libucrt:malloc.obj
 0001:00013680       _recalloc                  0000000180014680 f   libucrt:recalloc.obj
 0001:00013688       _recalloc_base             0000000180014688 f   libucrt:recalloc.obj
 0001:00013720       _resetstkoflw              0000000180014720 f   libucrt:resetstk.obj
 0001:0001384c       wcscat_s                   000000018001484c f   libucrt:wcscat_s.obj
 0001:000138cc       wcscpy_s                   00000001800148cc f   libucrt:wcscpy_s.obj
 0001:00013934       wcsncpy_s                  0000000180014934 f   libucrt:wcsncpy_s.obj
 0001:00013bec       ??$ensure_buffer_is_big_enough@D@formatting_buffer@__crt_stdio_output@@QEAA_N_K@Z 0000000180014bec f i libucrt:output.obj
 0001:00013c94       ??$ensure_buffer_is_big_enough@_W@formatting_buffer@__crt_stdio_output@@QEAA_N_K@Z 0000000180014c94 f i libucrt:output.obj
 0001:00013d40       ??$is_wide_character_specifier@_W@__crt_stdio_output@@YA_N_K_WW4length_modifier@0@@Z 0000000180014d40 f i libucrt:output.obj
 0001:00013d80       ??$type_case_integer_parse_into_buffer@I@?$output_processor@_WV?$string_output_adapter@_W@__crt_stdio_output@@V?$format_validation_base@_WV?$string_output_adapter@_W@__crt_stdio_output@@@2@@__crt_stdio_output@@AEAAXII_N@Z 0000000180014d80 f i libucrt:output.obj
 0001:00013e24       ??$type_case_integer_parse_into_buffer@_K@?$output_processor@_WV?$string_output_adapter@_W@__crt_stdio_output@@V?$format_validation_base@_WV?$string_output_adapter@_W@__crt_stdio_output@@@2@@__crt_stdio_output@@AEAAX_KI_N@Z 0000000180014e24 f i libucrt:output.obj
 0001:00013ec8       ??$write_multiple_characters@V?$string_output_adapter@_W@__crt_stdio_output@@D@__crt_stdio_output@@YAXAEBV?$string_output_adapter@_W@0@DHQEAH@Z 0000000180014ec8 f i libucrt:output.obj
 0001:00013f40       ??0_LocaleUpdate@@QEAA@QEAU__crt_locale_pointers@@@Z 0000000180014f40 f i libucrt:output.obj
 0001:00013fe0       ?crop_zeroes@__crt_stdio_output@@YAXPEADQEAU__crt_locale_pointers@@@Z 0000000180014fe0 f i libucrt:output.obj
 0001:00014080       ?force_decimal_point@__crt_stdio_output@@YAXPEADQEAU__crt_locale_pointers@@@Z 0000000180015080 f i libucrt:output.obj
 0001:000140f8       ?parse_int_from_format_string@?$output_processor@_WV?$string_output_adapter@_W@__crt_stdio_output@@V?$format_validation_base@_WV?$string_output_adapter@_W@__crt_stdio_output@@@2@@__crt_stdio_output@@AEAA_NQEAH@Z 00000001800150f8 f i libucrt:output.obj
 0001:0001419c       ?process@?$output_processor@_WV?$string_output_adapter@_W@__crt_stdio_output@@V?$format_validation_base@_WV?$string_output_adapter@_W@__crt_stdio_output@@@2@@__crt_stdio_output@@QEAAHXZ 000000018001519c f i libucrt:output.obj
 0001:00014414       ?state_case_size@?$output_processor@_WV?$string_output_adapter@_W@__crt_stdio_output@@V?$format_validation_base@_WV?$string_output_adapter@_W@__crt_stdio_output@@@2@@__crt_stdio_output@@AEAA_NXZ 0000000180015414 f i libucrt:output.obj
 0001:000145a8       ?state_case_type@?$output_processor@_WV?$string_output_adapter@_W@__crt_stdio_output@@V?$format_validation_base@_WV?$string_output_adapter@_W@__crt_stdio_output@@@2@@__crt_stdio_output@@AEAA_NXZ 00000001800155a8 f i libucrt:output.obj
 0001:00014880       ?to_integer_size@__crt_stdio_output@@YA_KW4length_modifier@1@@Z 0000000180015880 f i libucrt:output.obj
 0001:000148e8       ?type_case_Z@?$output_processor@_WV?$string_output_adapter@_W@__crt_stdio_output@@V?$format_validation_base@_WV?$string_output_adapter@_W@__crt_stdio_output@@@2@@__crt_stdio_output@@AEAA_NXZ 00000001800158e8 f i libucrt:output.obj
 0001:00014964       ?type_case_a@?$output_processor@_WV?$string_output_adapter@_W@__crt_stdio_output@@V?$format_validation_base@_WV?$string_output_adapter@_W@__crt_stdio_output@@@2@@__crt_stdio_output@@AEAA_NXZ 0000000180015964 f i libucrt:output.obj
 0001:00014b44       ?type_case_c_tchar@?$output_processor@_WV?$string_output_adapter@_W@__crt_stdio_output@@V?$format_validation_base@_WV?$string_output_adapter@_W@__crt_stdio_output@@@2@@__crt_stdio_output@@AEAA_N_W@Z 0000000180015b44 f i libucrt:output.obj
 0001:00014bec       ?type_case_integer@?$output_processor@_WV?$string_output_adapter@_W@__crt_stdio_output@@V?$format_validation_base@_WV?$string_output_adapter@_W@__crt_stdio_output@@@2@@__crt_stdio_output@@AEAA_NI_N@Z 0000000180015bec f i libucrt:output.obj
 0001:00014d74       ?type_case_n@?$output_processor@_WV?$string_output_adapter@_W@__crt_stdio_output@@V?$format_validation_base@_WV?$string_output_adapter@_W@__crt_stdio_output@@@2@@__crt_stdio_output@@AEAA_NXZ 0000000180015d74 f i libucrt:output.obj
 0001:00014dfc       ?type_case_s@?$output_processor@_WV?$string_output_adapter@_W@__crt_stdio_output@@V?$format_validation_base@_WV?$string_output_adapter@_W@__crt_stdio_output@@@2@@__crt_stdio_output@@AEAA_NXZ 0000000180015dfc f i libucrt:output.obj
 0001:00014ec4       ?write_stored_string_tchar@?$output_processor@_WV?$string_output_adapter@_W@__crt_stdio_output@@V?$format_validation_base@_WV?$string_output_adapter@_W@__crt_stdio_output@@@2@@__crt_stdio_output@@AEAA_N_W@Z 0000000180015ec4 f i libucrt:output.obj
 0001:00014fac       ?write_string@?$string_output_adapter@_W@__crt_stdio_output@@QEBAXQEB_WHQEAHAEAV__crt_deferred_errno_cache@@@Z 0000000180015fac f i libucrt:output.obj
 0001:00015054       __stdio_common_vswprintf_s 0000000180016054 f   libucrt:output.obj
 0001:000150c4       _seh_filter_dll            00000001800160c4 f   libucrt:exception_filter.obj
 0001:000150d8       _seh_filter_exe            00000001800160d8 f   libucrt:exception_filter.obj
 0001:000154c8       __acrt_initialize_thread_local_exit_callback 00000001800164c8 f   libucrt:exit.obj
 0001:000154d0       _cexit                     00000001800164d0 f   libucrt:exit.obj
 0001:000154e0       _exit                      00000001800164e0 f   libucrt:exit.obj
 0001:000154ec       _is_c_termination_complete 00000001800164ec f   libucrt:exit.obj
 0001:000156b4       __acrt_allocate_buffer_for_argv 00000001800166b4 f   libucrt:argv_parsing.obj
 0001:00015714       _configure_narrow_argv     0000000180016714 f   libucrt:argv_parsing.obj
 0001:00015a8c       __dcrt_uninitialize_environments_nolock 0000000180016a8c f   libucrt:environment_initialization.obj
 0001:00015ac4       _initialize_narrow_environment 0000000180016ac4 f   libucrt:environment_initialization.obj
 0001:00015e0c       _crt_atexit                0000000180016e0c f   libucrt:onexit.obj
 0001:00015e1c       _execute_onexit_table      0000000180016e1c f   libucrt:onexit.obj
 0001:00015e58       _initialize_onexit_table   0000000180016e58 f   libucrt:onexit.obj
 0001:00015e80       _register_onexit_function  0000000180016e80 f   libucrt:onexit.obj
 0001:00015f00       __acrt_uninitialize_command_line 0000000180016f00 f   libucrt:argv_data.obj
 0001:00015ff8       __acrt_initialize          0000000180016ff8 f   libucrt:initialization.obj
 0001:0001600c       __acrt_thread_attach       000000018001700c f   libucrt:initialization.obj
 0001:00016020       __acrt_thread_detach       0000000180017020 f   libucrt:initialization.obj
 0001:00016030       __acrt_uninitialize        0000000180017030 f   libucrt:initialization.obj
 0001:00016068       __acrt_uninitialize_critical 0000000180017068 f   libucrt:initialization.obj
 0001:00016078       _initterm                  0000000180017078 f   libucrt:initterm.obj
 0001:000160dc       _initterm_e                00000001800170dc f   libucrt:initterm.obj
 0001:0001611c       __acrt_initialize_new_handler 000000018001711c f   libucrt:new_handler.obj
 0001:00016124       _callnewh                  0000000180017124 f   libucrt:new_handler.obj
 0001:00016154       _query_new_handler         0000000180017154 f   libucrt:new_handler.obj
 0001:00016188       terminate                  0000000180017188 f   libucrt:terminate.obj
 0001:000161a8       abort                      00000001800171a8 f   libucrt:abort.obj
 0001:00016200       strcpy_s                   0000000180017200 f   libucrt:strcpy_s.obj
 0001:00016260       ??$parse_integer@KV?$c_string_character_source@_W@__crt_strtox@@@__crt_strtox@@YAKQEAU__crt_locale_pointers@@V?$c_string_character_source@_W@0@H_N@Z 0000000180017260 f i libucrt:atox.obj
 0001:00016920       strncmp                    0000000180017920 f   libucrt:strncmp.obj
 0001:000169a0       wcsncmp                    00000001800179a0 f   libucrt:wcsncmp.obj
 0001:000169cc       _free_base                 00000001800179cc f   libucrt:free_base.obj
 0001:00016d84       __acrt_freeptd             0000000180017d84 f   libucrt:per_thread_data.obj
 0001:00016dc8       __acrt_getptd              0000000180017dc8 f   libucrt:per_thread_data.obj
 0001:00016e9c       __acrt_getptd_head         0000000180017e9c f   libucrt:per_thread_data.obj
 0001:00016f44       __acrt_getptd_noexit       0000000180017f44 f   libucrt:per_thread_data.obj
 0001:00017010       __acrt_initialize_ptd      0000000180018010 f   libucrt:per_thread_data.obj
 0001:0001704c       __acrt_uninitialize_ptd    000000018001804c f   libucrt:per_thread_data.obj
 0001:00017070       _calloc_base               0000000180018070 f   libucrt:calloc_base.obj
 0001:000170e8       _malloc_base               00000001800180e8 f   libucrt:malloc_base.obj
 0001:00017148       _msize_base                0000000180018148 f   libucrt:msize.obj
 0001:00017184       _realloc_base              0000000180018184 f   libucrt:realloc_base.obj
 0001:000173d8       __acrt_AppPolicyGetProcessTerminationMethodInternal 00000001800183d8 f   libucrt:winapi_thunks.obj
 0001:00017428       __acrt_AreFileApisANSI     0000000180018428 f   libucrt:winapi_thunks.obj
 0001:00017464       __acrt_FlsAlloc            0000000180018464 f   libucrt:winapi_thunks.obj
 0001:000174ac       __acrt_FlsFree             00000001800184ac f   libucrt:winapi_thunks.obj
 0001:000174f4       __acrt_FlsGetValue         00000001800184f4 f   libucrt:winapi_thunks.obj
 0001:0001753c       __acrt_FlsSetValue         000000018001853c f   libucrt:winapi_thunks.obj
 0001:00017590       __acrt_InitializeCriticalSectionEx 0000000180018590 f   libucrt:winapi_thunks.obj
 0001:000175f4       __acrt_LCMapStringEx       00000001800185f4 f   libucrt:winapi_thunks.obj
 0001:000176d0       __acrt_LocaleNameToLCID    00000001800186d0 f   libucrt:winapi_thunks.obj
 0001:00017720       __acrt_SetThreadStackGuarantee 0000000180018720 f   libucrt:winapi_thunks.obj
 0001:00017764       __acrt_initialize_winapi_thunks 0000000180018764 f   libucrt:winapi_thunks.obj
 0001:00017798       __acrt_uninitialize_winapi_thunks 0000000180018798 f   libucrt:winapi_thunks.obj
 0001:000177dc       wcstol                     00000001800187dc f   libucrt:strtox.obj
 0001:00017808       _mbtowc_l                  0000000180018808 f   libucrt:mbtowc.obj
 0001:00017988       mbtowc                     0000000180018988 f   libucrt:mbtowc.obj
 0001:00017990       wcsnlen                    0000000180018990 f   libucrt:strnlen.obj
 0001:00017b68       __acrt_update_locale_info  0000000180018b68 f   libucrt:locale_update.obj
 0001:00017b9c       __acrt_update_multibyte_info 0000000180018b9c f   libucrt:locale_update.obj
 0001:000185d4       __acrt_fp_format           00000001800195d4 f   libucrt:cvt.obj
 0001:0001890c       _fileno                    000000018001990c f   libucrt:fileno.obj
 0001:00018934       __acrt_initialize_stdio    0000000180019934 f   libucrt:_file.obj
 0001:00018a54       __acrt_uninitialize_stdio  0000000180019a54 f   libucrt:_file.obj
 0001:00018ab0       _lock_file                 0000000180019ab0 f   libucrt:_file.obj
 0001:00018abc       _unlock_file               0000000180019abc f   libucrt:_file.obj
 0001:00018ac8       _get_printf_count_output   0000000180019ac8 f   libucrt:printf_count_output.obj
 0001:00018b50       __acrt_set_locale_changed  0000000180019b50 f   libucrt:wsetlocale.obj
 0001:00018b5c       __acrt_uninitialize_locale 0000000180019b5c f   libucrt:wsetlocale.obj
 0001:00018d88       __acrt_initialize_lowio    0000000180019d88 f   libucrt:ioinit.obj
 0001:00018dc4       __acrt_uninitialize_lowio  0000000180019dc4 f   libucrt:ioinit.obj
 0001:00018e04       __acrt_initialize_locks    0000000180019e04 f   libucrt:locks.obj
 0001:00018e4c       __acrt_lock                0000000180019e4c f   libucrt:locks.obj
 0001:00018e68       __acrt_uninitialize_locks  0000000180019e68 f   libucrt:locks.obj
 0001:00018ea0       __acrt_unlock              0000000180019ea0 f   libucrt:locks.obj
 0001:00018ebc       __acrt_get_process_end_policy 0000000180019ebc f   libucrt:win_policies.obj
 0001:00018f0c       ??$__acrt_mbs_to_wcs_cp@U__crt_win32_buffer_internal_dynamic_resizing@@@@YAHQEBDAEAV?$__crt_win32_buffer@_WU__crt_win32_buffer_internal_dynamic_resizing@@@@I@Z 0000000180019f0c f i libucrt:argv_wildcards.obj
 0001:00019084       ??$__acrt_wcs_to_mbs_cp@U__crt_win32_buffer_internal_dynamic_resizing@@@@YAHQEB_WAEAV?$__crt_win32_buffer@DU__crt_win32_buffer_internal_dynamic_resizing@@@@I@Z 000000018001a084 f i libucrt:argv_wildcards.obj
 0001:000198b4       __acrt_expand_narrow_argv_wildcards 000000018001a8b4 f   libucrt:argv_wildcards.obj
 0001:000198bc       ??$__acrt_wcs_to_mbs_cp@U__crt_win32_buffer_no_resizing@@@@YAHQEB_WAEAV?$__crt_win32_buffer@DU__crt_win32_buffer_no_resizing@@@@I@Z 000000018001a8bc f i libucrt:getmodulefilenamea.obj
 0001:000199d0       __acrt_GetModuleFileNameA  000000018001a9d0 f   libucrt:getmodulefilenamea.obj
 0001:0001a218       __acrt_initialize_multibyte 000000018001b218 f   libucrt:mbctype.obj
 0001:0001a278       __acrt_update_thread_multibyte_data 000000018001b278 f   libucrt:mbctype.obj
 0001:0001a294       _setmbcp_nolock            000000018001b294 f   libucrt:mbctype.obj
 0001:0001a5c8       _ismbblead                 000000018001b5c8 f   libucrt:ismbbyte.obj
 0001:0001a5dc       __acrt_initialize_command_line 000000018001b5dc f   libucrt:argv_data.obj
 0001:0001a604       __acrt_MultiByteToWideChar 000000018001b604 f   libucrt:multibytetowidechar.obj
 0001:0001a660       __acrt_WideCharToMultiByte 000000018001b660 f   libucrt:widechartomultibyte.obj
 0001:0001a710       __dcrt_get_narrow_environment_from_os 000000018001b710 f   libucrt:get_environment_from_os.obj
 0001:0001a814       __acrt_initialize_heap     000000018001b814 f   libucrt:heap_handle.obj
 0001:0001a830       __acrt_uninitialize_heap   000000018001b830 f   libucrt:heap_handle.obj
 0001:0001a83c       __acrt_execute_initializers 000000018001b83c f   libucrt:shared_initialization.obj
 0001:0001a8bc       __acrt_execute_uninitializers 000000018001b8bc f   libucrt:shared_initialization.obj
 0001:0001a940       __acrt_get_sigabrt_handler 000000018001b940 f   libucrt:signal.obj
 0001:0001a970       __acrt_initialize_signal_handlers 000000018001b970 f   libucrt:signal.obj
 0001:0001a990       raise                      000000018001b990 f   libucrt:signal.obj
 0001:0001abfc       __acrt_has_user_matherr    000000018001bbfc f   libucrt:matherr.obj
 0001:0001ac1c       __acrt_initialize_user_matherr 000000018001bc1c f   libucrt:matherr.obj
 0001:0001ac24       __acrt_invoke_user_matherr 000000018001bc24 f   libucrt:matherr.obj
 0001:0001ae30       __acrt_stdio_flush_nolock  000000018001be30 f   libucrt:fflush.obj
 0001:0001aeac       _fflush_nolock             000000018001beac f   libucrt:fflush.obj
 0001:0001aef8       _flushall                  000000018001bef8 f   libucrt:fflush.obj
 0001:0001af00       __pctype_func              000000018001bf00 f   libucrt:ctype.obj
 0001:0001af30       iswctype                   000000018001bf30 f   libucrt:iswctype.obj
 0001:0001af9c       __acrt_add_locale_ref      000000018001bf9c f   libucrt:locale_refcounting.obj
 0001:0001b028       __acrt_free_locale         000000018001c028 f   libucrt:locale_refcounting.obj
 0001:0001b1a0       __acrt_locale_add_lc_time_reference 000000018001c1a0 f   libucrt:locale_refcounting.obj
 0001:0001b1c8       __acrt_locale_free_lc_time_if_unreferenced 000000018001c1c8 f   libucrt:locale_refcounting.obj
 0001:0001b200       __acrt_locale_release_lc_time_reference 000000018001c200 f   libucrt:locale_refcounting.obj
 0001:0001b228       __acrt_release_locale_ref  000000018001c228 f   libucrt:locale_refcounting.obj
 0001:0001b2d0       __acrt_update_thread_locale_data 000000018001c2d0 f   libucrt:locale_refcounting.obj
 0001:0001b340       _updatetlocinfoEx_nolock   000000018001c340 f   libucrt:locale_refcounting.obj
 0001:0001b3a8       _query_new_mode            000000018001c3a8 f   libucrt:new_mode.obj
 0001:0001b3b0       __acrt_DownlevelLocaleNameToLCID 000000018001c3b0 f   libucrt:lcidtoname_downlevel.obj
 0001:0001b460       _isleadbyte_l              000000018001c460 f i libucrt:_wctype.obj
 0001:0001b4ac       ?__mbrtowc_utf8@__crt_mbstring@@YA_KPEA_WPEBD_KPEAU_Mbstatet@@@Z 000000018001c4ac f   libucrt:mbrtowc.obj
 0001:0001b4e8       ?__mbsrtowcs_utf8@__crt_mbstring@@YA_KPEA_WPEAPEBD_KPEAU_Mbstatet@@@Z 000000018001c4e8 f   libucrt:mbrtowc.obj
 0001:0001b660       __acrt_fp_strflt_to_string 000000018001c660 f   libucrt:_fptostr.obj
 0001:0001b7b0       ?divide@__crt_strtox@@YA_KAEAUbig_integer@1@AEBU21@@Z 000000018001c7b0 f i libucrt:cfout.obj
 0001:0001bbdc       __acrt_fltout              000000018001cbdc f   libucrt:cfout.obj
 0001:0001cea8       fegetround                 000000018001dea8 f   libucrt:fegetround.obj
 0001:0001cebc       _fcloseall                 000000018001debc f   libucrt:closeall.obj
 0001:0001cf70       __acrt_stdio_free_buffer_nolock 000000018001df70 f   libucrt:_freebuf.obj
 0001:0001cfb0       _isatty                    000000018001dfb0 f   libucrt:isatty.obj
 0001:0001d010       __acrt_locale_free_monetary 000000018001e010 f   libucrt:initmon.obj
 0001:0001d11c       __acrt_locale_free_numeric 000000018001e11c f   libucrt:initnum.obj
 0001:0001d1e0       __acrt_locale_free_time    000000018001e1e0 f   libucrt:inittime.obj
 0001:0001d2e8       __acrt_GetStringTypeA      000000018001e2e8 f   libucrt:getstringtypea.obj
 0001:0001d478       __acrt_lowio_create_handle_array 000000018001e478 f   libucrt:osfinfo.obj
 0001:0001d520       __acrt_lowio_destroy_handle_array 000000018001e520 f   libucrt:osfinfo.obj
 0001:0001d570       __acrt_lowio_ensure_fh_exists 000000018001e570 f   libucrt:osfinfo.obj
 0001:0001d618       __acrt_lowio_lock_fh       000000018001e618 f   libucrt:osfinfo.obj
 0001:0001d640       __acrt_lowio_unlock_fh     000000018001e640 f   libucrt:osfinfo.obj
 0001:0001d668       _free_osfhnd               000000018001e668 f   libucrt:osfinfo.obj
 0001:0001d724       _get_osfhandle             000000018001e724 f   libucrt:osfinfo.obj
 0001:0001d7a0       qsort                      000000018001e7a0 f   libucrt:qsort.obj
 0001:0001db40       strncpy_s                  000000018001eb40 f   libucrt:strncpy_s.obj
 0001:0001dcc0       strpbrk                    000000018001ecc0 f   libucrt:strpbrk.obj
 0001:0001e088       _mbsdec                    000000018001f088 f   libucrt:mbsdec.obj
 0001:0001e090       _mbsdec_l                  000000018001f090 f   libucrt:mbsdec.obj
 0001:0001e43c       __acrt_LCMapStringA        000000018001f43c f   libucrt:lcmapstringa.obj
 0001:0001e578       _commit                    000000018001f578 f   libucrt:commit.obj
 0001:0001ee88       _write                     000000018001fe88 f   libucrt:write.obj
 0001:0001ef74       _write_nolock              000000018001ff74 f   libucrt:write.obj
 0001:0001f258       __acrt_GetStringTypeW      0000000180020258 f   libucrt:getstringtypew.obj
 0001:0001f260       __ascii_wcsnicmp           0000000180020260 f   libucrt:wcsnicmp.obj
 0001:0001f2ac       ?__mbrtoc32_utf8@__crt_mbstring@@YA_KPEA_UPEBD_KPEAU_Mbstatet@@@Z 00000001800202ac f   libucrt:mbrtoc32.obj
 0001:0001f484       _controlfp_s               0000000180020484 f   libucrt:contrlfp.obj
 0001:0001f4e8       fegetenv                   00000001800204e8 f   libucrt:fegetenv.obj
 0001:0001f508       fesetenv                   0000000180020508 f   libucrt:fesetenv.obj
 0001:0001f554       feholdexcept               0000000180020554 f   libucrt:feholdexcept.obj
 0001:0001f5a4       ceil                       00000001800205a4 f   libucrt:ceil.obj
 0001:0001f670       log10                      0000000180020670 f   libucrt:log10.obj
 0001:0001fc1c       __acrt_fenv_get_common_round_control 0000000180020c1c f   libucrt:_fenvutils.obj
 0001:0001fc28       __acrt_fenv_get_control    0000000180020c28 f   libucrt:_fenvutils.obj
 0001:0001fd1c       __acrt_fenv_get_status     0000000180020d1c f   libucrt:_fenvutils.obj
 0001:0001fd70       __acrt_fenv_set_control    0000000180020d70 f   libucrt:_fenvutils.obj
 0001:0001feb8       __acrt_fenv_set_status     0000000180020eb8 f   libucrt:_fenvutils.obj
 0001:0001ffd8       _lseeki64_nolock           0000000180020fd8 f   libucrt:lseek.obj
 0001:0001ffe0       _fclose_nolock             0000000180020fe0 f   libucrt:fclose.obj
 0001:00020064       fclose                     0000000180021064 f   libucrt:fclose.obj
 0001:000200c8       _query_app_type            00000001800210c8 f   libucrt:report_runtime_error.obj
 0001:000200d0       __strncnt                  00000001800210d0 f   libucrt:strncnt.obj
 0001:000200e8       _putwch_nolock             00000001800210e8 f   libucrt:putwch.obj
 0001:00020124       _clearfp                   0000000180021124 f   libucrt:ieee.obj
 0001:00020194       _control87                 0000000180021194 f   libucrt:ieee.obj
 0001:00020580       _handle_error              0000000180021580 f   libucrt:libm_error.obj
 0001:000206a8       _handle_nan                00000001800216a8 f   libucrt:libm_error.obj
 0001:000206d0       __acrt_initialize_fma3     00000001800216d0 f   libucrt:fma3_available.obj
 0001:00020740       _log10_special             0000000180021740 f   libucrt:log_special.obj
 0001:0002086c       _close                     000000018002186c f   libucrt:close.obj
 0001:00020910       _close_nolock              0000000180021910 f   libucrt:close.obj
 0001:000209d0       ?__acrt_stdio_free_stream@@YAXV__crt_stdio_stream@@@Z 00000001800219d0 f   libucrt:stream.obj
 0001:000209ec       __dcrt_lowio_ensure_console_output_initialized 00000001800219ec f   libucrt:initcon.obj
 0001:00020a40       __dcrt_terminate_console_output 0000000180021a40 f   libucrt:initcon.obj
 0001:00020a5c       __dcrt_write_console       0000000180021a5c f   libucrt:initcon.obj
 0001:00020b30       _get_fpsr                  0000000180021b30 f   libucrt:fpsr.obj
 0001:00020b40       _set_fpsr                  0000000180021b40 f   libucrt:fpsr.obj
 0001:00020b4a       _fclrf                     0000000180021b4a f   libucrt:fpsr.obj
 0001:00020b5e       _frnd                      0000000180021b5e f   libucrt:fpsr.obj
 0001:00020b80       _raise_exc                 0000000180021b80 f   libucrt:fpexcept.obj
 0001:00020ba8       _raise_exc_ex              0000000180021ba8 f   libucrt:fpexcept.obj
 0001:00020eb8       _set_errno_from_matherr    0000000180021eb8 f   libucrt:fpexcept.obj
 0001:00020ee8       _clrfp                     0000000180021ee8 f   libucrt:fpctrl.obj
 0001:00020f08       _ctrlfp                    0000000180021f08 f   libucrt:fpctrl.obj
 0001:00020f84       _set_statfp                0000000180021f84 f   libucrt:fpctrl.obj
 0001:00020fa4       _statfp                    0000000180021fa4 f   libucrt:fpctrl.obj
 0001:00020fb5       IsProcessorFeaturePresent  0000000180021fb5 f   kernel32:KERNEL32.dll
 0001:00020fc0       _FindPESection             0000000180021fc0 f   LIBCMT:pesect.obj
 0001:00021010       _IsNonwritableInCurrentImage 0000000180022010 f   LIBCMT:pesect.obj
 0001:00021060       _ValidateImageBase         0000000180022060 f   LIBCMT:pesect.obj
 0001:00021090       strrchr                    0000000180022090 f   libvcruntime:strrchr.obj
 0001:000211d0       _guard_dispatch_icall_nop  00000001800221d0 f   LIBCMT:guard_dispatch.obj
 0001:000211f0       _guard_xfg_dispatch_icall_nop 00000001800221f0 f   LIBCMT:guard_xfg_dispatch.obj
 0002:00000000       __imp_RegQueryValueExW     0000000180023000     advapi32:ADVAPI32.dll
 0002:00000008       __imp_RegSetValueExW       0000000180023008     advapi32:ADVAPI32.dll
 0002:00000010       __imp_RegQueryInfoKeyW     0000000180023010     advapi32:ADVAPI32.dll
 0002:00000018       __imp_RegOpenKeyExW        0000000180023018     advapi32:ADVAPI32.dll
 0002:00000020       __imp_RegEnumKeyExW        0000000180023020     advapi32:ADVAPI32.dll
 0002:00000028       __imp_RegDeleteValueW      0000000180023028     advapi32:ADVAPI32.dll
 0002:00000030       __imp_RegDeleteKeyW        0000000180023030     advapi32:ADVAPI32.dll
 0002:00000038       __imp_RegCreateKeyExW      0000000180023038     advapi32:ADVAPI32.dll
 0002:00000040       __imp_RegCloseKey          0000000180023040     advapi32:ADVAPI32.dll
 0002:00000048       \177ADVAPI32_NULL_THUNK_DATA 0000000180023048     advapi32:ADVAPI32.dll
 0002:00000050       __imp_GetObjectW           0000000180023050     gdi32:GDI32.dll
 0002:00000058       __imp_SelectObject         0000000180023058     gdi32:GDI32.dll
 0002:00000060       __imp_DeleteObject         0000000180023060     gdi32:GDI32.dll
 0002:00000068       __imp_CreateCompatibleDC   0000000180023068     gdi32:GDI32.dll
 0002:00000070       __imp_BitBlt               0000000180023070     gdi32:GDI32.dll
 0002:00000078       __imp_SetWindowOrgEx       0000000180023078     gdi32:GDI32.dll
 0002:00000080       __imp_SetWindowExtEx       0000000180023080     gdi32:GDI32.dll
 0002:00000088       __imp_SetViewportOrgEx     0000000180023088     gdi32:GDI32.dll
 0002:00000090       __imp_LPtoDP               0000000180023090     gdi32:GDI32.dll
 0002:00000098       __imp_SetMapMode           0000000180023098     gdi32:GDI32.dll
 0002:000000a0       __imp_SaveDC               00000001800230a0     gdi32:GDI32.dll
 0002:000000a8       __imp_RestoreDC            00000001800230a8     gdi32:GDI32.dll
 0002:000000b0       __imp_GetDeviceCaps        00000001800230b0     gdi32:GDI32.dll
 0002:000000b8       __imp_DeleteMetaFile       00000001800230b8     gdi32:GDI32.dll
 0002:000000c0       __imp_DeleteDC             00000001800230c0     gdi32:GDI32.dll
 0002:000000c8       __imp_CreateRectRgnIndirect 00000001800230c8     gdi32:GDI32.dll
 0002:000000d0       __imp_CreateMetaFileW      00000001800230d0     gdi32:GDI32.dll
 0002:000000d8       __imp_CreateDCW            00000001800230d8     gdi32:GDI32.dll
 0002:000000e0       __imp_CloseMetaFile        00000001800230e0     gdi32:GDI32.dll
 0002:000000e8       \177GDI32_NULL_THUNK_DATA  00000001800230e8     gdi32:GDI32.dll
 0002:000000f0       __imp_CloseHandle          00000001800230f0     kernel32:KERNEL32.dll
 0002:000000f8       __imp_SetEvent             00000001800230f8     kernel32:KERNEL32.dll
 0002:00000100       __imp_CreateMutexW         0000000180023100     kernel32:KERNEL32.dll
 0002:00000108       __imp_CreateEventW         0000000180023108     kernel32:KERNEL32.dll
 0002:00000110       __imp_GetCurrentProcessId  0000000180023110     kernel32:KERNEL32.dll
 0002:00000118       __imp_WriteConsoleW        0000000180023118     kernel32:KERNEL32.dll
 0002:00000120       __imp_CreateFileW          0000000180023120     kernel32:KERNEL32.dll
 0002:00000128       __imp_GetConsoleMode       0000000180023128     kernel32:KERNEL32.dll
 0002:00000130       __imp_GetConsoleOutputCP   0000000180023130     kernel32:KERNEL32.dll
 0002:00000138       __imp_WriteFile            0000000180023138     kernel32:KERNEL32.dll
 0002:00000140       __imp_FlushFileBuffers     0000000180023140     kernel32:KERNEL32.dll
 0002:00000148       __imp_SetStdHandle         0000000180023148     kernel32:KERNEL32.dll
 0002:00000150       __imp_GetStringTypeW       0000000180023150     kernel32:KERNEL32.dll
 0002:00000158       __imp_SetFilePointerEx     0000000180023158     kernel32:KERNEL32.dll
 0002:00000160       __imp_FreeEnvironmentStringsW 0000000180023160     kernel32:KERNEL32.dll
 0002:00000168       __imp_lstrcmpiW            0000000180023168     kernel32:KERNEL32.dll
 0002:00000170       __imp_GetCommandLineW      0000000180023170     kernel32:KERNEL32.dll
 0002:00000178       __imp_GetCommandLineA      0000000180023178     kernel32:KERNEL32.dll
 0002:00000180       __imp_GetCPInfo            0000000180023180     kernel32:KERNEL32.dll
 0002:00000188       __imp_GetOEMCP             0000000180023188     kernel32:KERNEL32.dll
 0002:00000190       __imp_GetACP               0000000180023190     kernel32:KERNEL32.dll
 0002:00000198       __imp_IsValidCodePage      0000000180023198     kernel32:KERNEL32.dll
 0002:000001a0       __imp_FindNextFileW        00000001800231a0     kernel32:KERNEL32.dll
 0002:000001a8       __imp_FindFirstFileExW     00000001800231a8     kernel32:KERNEL32.dll
 0002:000001b0       __imp_FindClose            00000001800231b0     kernel32:KERNEL32.dll
 0002:000001b8       __imp_GetFileType          00000001800231b8     kernel32:KERNEL32.dll
 0002:000001c0       __imp_GetStdHandle         00000001800231c0     kernel32:KERNEL32.dll
 0002:000001c8       __imp_LCMapStringW         00000001800231c8     kernel32:KERNEL32.dll
 0002:000001d0       __imp_HeapReAlloc          00000001800231d0     kernel32:KERNEL32.dll
 0002:000001d8       __imp_HeapSize             00000001800231d8     kernel32:KERNEL32.dll
 0002:000001e0       __imp_MulDiv               00000001800231e0     kernel32:KERNEL32.dll
 0002:000001e8       __imp_GlobalLock           00000001800231e8     kernel32:KERNEL32.dll
 0002:000001f0       __imp_GlobalUnlock         00000001800231f0     kernel32:KERNEL32.dll
 0002:000001f8       __imp_GlobalAlloc          00000001800231f8     kernel32:KERNEL32.dll
 0002:00000200       __imp_FindResourceW        0000000180023200     kernel32:KERNEL32.dll
 0002:00000208       __imp_SizeofResource       0000000180023208     kernel32:KERNEL32.dll
 0002:00000210       __imp_LoadResource         0000000180023210     kernel32:KERNEL32.dll
 0002:00000218       __imp_LoadLibraryExW       0000000180023218     kernel32:KERNEL32.dll
 0002:00000220       __imp_GetProcAddress       0000000180023220     kernel32:KERNEL32.dll
 0002:00000228       __imp_GetModuleHandleW     0000000180023228     kernel32:KERNEL32.dll
 0002:00000230       __imp_GetModuleFileNameW   0000000180023230     kernel32:KERNEL32.dll
 0002:00000238       __imp_FreeLibrary          0000000180023238     kernel32:KERNEL32.dll
 0002:00000240       __imp_DisableThreadLibraryCalls 0000000180023240     kernel32:KERNEL32.dll
 0002:00000248       __imp_GetCurrentThreadId   0000000180023248     kernel32:KERNEL32.dll
 0002:00000250       __imp_Sleep                0000000180023250     kernel32:KERNEL32.dll
 0002:00000258       __imp_WaitForSingleObject  0000000180023258     kernel32:KERNEL32.dll
 0002:00000260       __imp_ReleaseMutex         0000000180023260     kernel32:KERNEL32.dll
 0002:00000268       __imp_ResetEvent           0000000180023268     kernel32:KERNEL32.dll
 0002:00000270       __imp_EnterCriticalSection 0000000180023270     kernel32:KERNEL32.dll
 0002:00000278       __imp_LeaveCriticalSection 0000000180023278     kernel32:KERNEL32.dll
 0002:00000280       __imp_SetLastError         0000000180023280     kernel32:KERNEL32.dll
 0002:00000288       __imp_EncodePointer        0000000180023288     kernel32:KERNEL32.dll
 0002:00000290       __imp_DeleteCriticalSection 0000000180023290     kernel32:KERNEL32.dll
 0002:00000298       __imp_InitializeCriticalSectionEx 0000000180023298     kernel32:KERNEL32.dll
 0002:000002a0       __imp_GetLastError         00000001800232a0     kernel32:KERNEL32.dll
 0002:000002a8       __imp_RaiseException       00000001800232a8     kernel32:KERNEL32.dll
 0002:000002b0       __imp_DecodePointer        00000001800232b0     kernel32:KERNEL32.dll
 0002:000002b8       __imp_WideCharToMultiByte  00000001800232b8     kernel32:KERNEL32.dll
 0002:000002c0       __imp_GetEnvironmentStringsW 00000001800232c0     kernel32:KERNEL32.dll
 0002:000002c8       __imp_MultiByteToWideChar  00000001800232c8     kernel32:KERNEL32.dll
 0002:000002d0       __imp_GetModuleHandleExW   00000001800232d0     kernel32:KERNEL32.dll
 0002:000002d8       __imp_ExitProcess          00000001800232d8     kernel32:KERNEL32.dll
 0002:000002e0       __imp_VirtualQuery         00000001800232e0     kernel32:KERNEL32.dll
 0002:000002e8       __imp_VirtualProtect       00000001800232e8     kernel32:KERNEL32.dll
 0002:000002f0       __imp_GetSystemInfo        00000001800232f0     kernel32:KERNEL32.dll
 0002:000002f8       __imp_TlsFree              00000001800232f8     kernel32:KERNEL32.dll
 0002:00000300       __imp_TlsSetValue          0000000180023300     kernel32:KERNEL32.dll
 0002:00000308       __imp_TlsGetValue          0000000180023308     kernel32:KERNEL32.dll
 0002:00000310       __imp_TlsAlloc             0000000180023310     kernel32:KERNEL32.dll
 0002:00000318       __imp_RtlPcToFileHeader    0000000180023318     kernel32:KERNEL32.dll
 0002:00000320       __imp_InterlockedFlushSList 0000000180023320     kernel32:KERNEL32.dll
 0002:00000328       __imp_RtlUnwindEx          0000000180023328     kernel32:KERNEL32.dll
 0002:00000330       __imp_LoadLibraryExA       0000000180023330     kernel32:KERNEL32.dll
 0002:00000338       __imp_VirtualFree          0000000180023338     kernel32:KERNEL32.dll
 0002:00000340       __imp_VirtualAlloc         0000000180023340     kernel32:KERNEL32.dll
 0002:00000348       __imp_FlushInstructionCache 0000000180023348     kernel32:KERNEL32.dll
 0002:00000350       __imp_InterlockedPushEntrySList 0000000180023350     kernel32:KERNEL32.dll
 0002:00000358       __imp_InterlockedPopEntrySList 0000000180023358     kernel32:KERNEL32.dll
 0002:00000360       __imp_GetProcessHeap       0000000180023360     kernel32:KERNEL32.dll
 0002:00000368       __imp_HeapFree             0000000180023368     kernel32:KERNEL32.dll
 0002:00000370       __imp_HeapAlloc            0000000180023370     kernel32:KERNEL32.dll
 0002:00000378       __imp_OutputDebugStringW   0000000180023378     kernel32:KERNEL32.dll
 0002:00000380       __imp_InitializeSListHead  0000000180023380     kernel32:KERNEL32.dll
 0002:00000388       __imp_GetSystemTimeAsFileTime 0000000180023388     kernel32:KERNEL32.dll
 0002:00000390       __imp_QueryPerformanceCounter 0000000180023390     kernel32:KERNEL32.dll
 0002:00000398       __imp_GetStartupInfoW      0000000180023398     kernel32:KERNEL32.dll
 0002:000003a0       __imp_IsDebuggerPresent    00000001800233a0     kernel32:KERNEL32.dll
 0002:000003a8       __imp_IsProcessorFeaturePresent 00000001800233a8     kernel32:KERNEL32.dll
 0002:000003b0       __imp_TerminateProcess     00000001800233b0     kernel32:KERNEL32.dll
 0002:000003b8       __imp_GetCurrentProcess    00000001800233b8     kernel32:KERNEL32.dll
 0002:000003c0       __imp_InitializeCriticalSectionAndSpinCount 00000001800233c0     kernel32:KERNEL32.dll
 0002:000003c8       __imp_WaitForSingleObjectEx 00000001800233c8     kernel32:KERNEL32.dll
 0002:000003d0       __imp_RtlCaptureContext    00000001800233d0     kernel32:KERNEL32.dll
 0002:000003d8       __imp_RtlLookupFunctionEntry 00000001800233d8     kernel32:KERNEL32.dll
 0002:000003e0       __imp_RtlVirtualUnwind     00000001800233e0     kernel32:KERNEL32.dll
 0002:000003e8       __imp_UnhandledExceptionFilter 00000001800233e8     kernel32:KERNEL32.dll
 0002:000003f0       __imp_SetUnhandledExceptionFilter 00000001800233f0     kernel32:KERNEL32.dll
 0002:000003f8       \177KERNEL32_NULL_THUNK_DATA 00000001800233f8     kernel32:KERNEL32.dll
 0002:00000400       __imp_OleCreatePropertyFrame 0000000180023400     oleaut32:OLEAUT32.dll
 0002:00000408       __imp_UnRegisterTypeLib    0000000180023408     oleaut32:OLEAUT32.dll
 0002:00000410       __imp_RegisterTypeLib      0000000180023410     oleaut32:OLEAUT32.dll
 0002:00000418       __imp_LoadRegTypeLib       0000000180023418     oleaut32:OLEAUT32.dll
 0002:00000420       __imp_LoadTypeLib          0000000180023420     oleaut32:OLEAUT32.dll
 0002:00000428       __imp_VarUI4FromStr        0000000180023428     oleaut32:OLEAUT32.dll
 0002:00000430       __imp_VariantInit          0000000180023430     oleaut32:OLEAUT32.dll
 0002:00000438       __imp_SysAllocStringByteLen 0000000180023438     oleaut32:OLEAUT32.dll
 0002:00000440       __imp_SysStringByteLen     0000000180023440     oleaut32:OLEAUT32.dll
 0002:00000448       __imp_VariantChangeType    0000000180023448     oleaut32:OLEAUT32.dll
 0002:00000450       __imp_VariantClear         0000000180023450     oleaut32:OLEAUT32.dll
 0002:00000458       __imp_SysStringLen         0000000180023458     oleaut32:OLEAUT32.dll
 0002:00000460       __imp_SysFreeString        0000000180023460     oleaut32:OLEAUT32.dll
 0002:00000468       __imp_SysAllocStringLen    0000000180023468     oleaut32:OLEAUT32.dll
 0002:00000470       __imp_SysAllocString       0000000180023470     oleaut32:OLEAUT32.dll
 0002:00000478       \177OLEAUT32_NULL_THUNK_DATA 0000000180023478     oleaut32:OLEAUT32.dll
 0002:00000480       __imp_UnregisterClassW     0000000180023480     user32:USER32.dll
 0002:00000488       __imp_PostMessageW         0000000180023488     user32:USER32.dll
 0002:00000490       __imp_DefWindowProcW       0000000180023490     user32:USER32.dll
 0002:00000498       __imp_CallWindowProcW      0000000180023498     user32:USER32.dll
 0002:000004a0       __imp_RegisterClassExW     00000001800234a0     user32:USER32.dll
 0002:000004a8       __imp_GetClassInfoExW      00000001800234a8     user32:USER32.dll
 0002:000004b0       __imp_CreateWindowExW      00000001800234b0     user32:USER32.dll
 0002:000004b8       __imp_IsWindow             00000001800234b8     user32:USER32.dll
 0002:000004c0       __imp_IsChild              00000001800234c0     user32:USER32.dll
 0002:000004c8       __imp_DestroyWindow        00000001800234c8     user32:USER32.dll
 0002:000004d0       __imp_ShowWindow           00000001800234d0     user32:USER32.dll
 0002:000004d8       __imp_SetWindowPos         00000001800234d8     user32:USER32.dll
 0002:000004e0       __imp_CharNextW            00000001800234e0     user32:USER32.dll
 0002:000004e8       __imp_SetFocus             00000001800234e8     user32:USER32.dll
 0002:000004f0       __imp_LoadBitmapW          00000001800234f0     user32:USER32.dll
 0002:000004f8       __imp_RegisterClassW       00000001800234f8     user32:USER32.dll
 0002:00000500       __imp_PeekMessageW         0000000180023500     user32:USER32.dll
 0002:00000508       __imp_LoadCursorW          0000000180023508     user32:USER32.dll
 0002:00000510       __imp_GetParent            0000000180023510     user32:USER32.dll
 0002:00000518       __imp_SetWindowLongPtrW    0000000180023518     user32:USER32.dll
 0002:00000520       __imp_GetWindowLongPtrW    0000000180023520     user32:USER32.dll
 0002:00000528       __imp_PtInRect             0000000180023528     user32:USER32.dll
 0002:00000530       __imp_EqualRect            0000000180023530     user32:USER32.dll
 0002:00000538       __imp_OffsetRect           0000000180023538     user32:USER32.dll
 0002:00000540       __imp_UnionRect            0000000180023540     user32:USER32.dll
 0002:00000548       __imp_IntersectRect        0000000180023548     user32:USER32.dll
 0002:00000550       __imp_GetClientRect        0000000180023550     user32:USER32.dll
 0002:00000558       __imp_InvalidateRect       0000000180023558     user32:USER32.dll
 0002:00000560       __imp_SetWindowRgn         0000000180023560     user32:USER32.dll
 0002:00000568       __imp_EndPaint             0000000180023568     user32:USER32.dll
 0002:00000570       __imp_BeginPaint           0000000180023570     user32:USER32.dll
 0002:00000578       __imp_ReleaseDC            0000000180023578     user32:USER32.dll
 0002:00000580       __imp_GetDC                0000000180023580     user32:USER32.dll
 0002:00000588       __imp_GetKeyState          0000000180023588     user32:USER32.dll
 0002:00000590       __imp_GetFocus             0000000180023590     user32:USER32.dll
 0002:00000598       \177USER32_NULL_THUNK_DATA 0000000180023598     user32:USER32.dll
 0002:000005a0       __imp_CoCreateInstance     00000001800235a0     ole32:ole32.dll
 0002:000005a8       __imp_StringFromGUID2      00000001800235a8     ole32:ole32.dll
 0002:000005b0       __imp_CoTaskMemAlloc       00000001800235b0     ole32:ole32.dll
 0002:000005b8       __imp_CoTaskMemFree        00000001800235b8     ole32:ole32.dll
 0002:000005c0       __imp_ReadClassStm         00000001800235c0     ole32:ole32.dll
 0002:000005c8       __imp_WriteClassStm        00000001800235c8     ole32:ole32.dll
 0002:000005d0       __imp_CreateDataAdviseHolder 00000001800235d0     ole32:ole32.dll
 0002:000005d8       __imp_OleSaveToStream      00000001800235d8     ole32:ole32.dll
 0002:000005e0       __imp_CreateOleAdviseHolder 00000001800235e0     ole32:ole32.dll
 0002:000005e8       __imp_OleRegGetUserType    00000001800235e8     ole32:ole32.dll
 0002:000005f0       __imp_OleRegGetMiscStatus  00000001800235f0     ole32:ole32.dll
 0002:000005f8       __imp_OleRegEnumVerbs      00000001800235f8     ole32:ole32.dll
 0002:00000600       __imp_CLSIDFromProgID      0000000180023600     ole32:ole32.dll
 0002:00000608       __imp_CoTaskMemRealloc     0000000180023608     ole32:ole32.dll
 0002:00000610       \177ole32_NULL_THUNK_DATA  0000000180023610     ole32:ole32.dll
 0002:00000618       __guard_check_icall_fptr   0000000180023618     LIBCMT:guard_support.obj
 0002:00000620       __guard_xfg_check_icall_fptr 0000000180023620     LIBCMT:guard_support.obj
 0002:00000628       __guard_dispatch_icall_fptr 0000000180023628     LIBCMT:guard_support.obj
 0002:00000630       __guard_xfg_dispatch_icall_fptr 0000000180023630     LIBCMT:guard_support.obj
 0002:00000638       __guard_xfg_table_dispatch_icall_fptr 0000000180023638     LIBCMT:guard_support.obj
 0002:00000640       __xc_a                     0000000180023640     LIBCMT:initializers.obj
 0002:00000670       __xc_z                     0000000180023670     LIBCMT:initializers.obj
 0002:00000678       __xi_a                     0000000180023678     LIBCMT:initializers.obj
 0002:00000688       __acrt_stdio_initializer   0000000180023688     libucrt:stdio_initializer.obj
 0002:00000690       __acrt_multibyte_initializer 0000000180023690     libucrt:multibyte_initializer.obj
 0002:00000698       __acrt_tran_fma3_initializer 0000000180023698     libucrt:fma3_initializer.obj
 0002:000006a0       __xi_z                     00000001800236a0     LIBCMT:initializers.obj
 0002:000006a8       __xl_a                     00000001800236a8     LIBCMT:tlssup.obj
 0002:000006b0       __xl_z                     00000001800236b0     LIBCMT:tlssup.obj
 0002:000006b8       __xp_a                     00000001800236b8     LIBCMT:initializers.obj
 0002:000006c0       __acrt_locale_terminator   00000001800236c0     libucrt:locale_initializer.obj
 0002:000006c8       __dcrt_console_output_terminator 00000001800236c8     libucrt:console_output_initializer.obj
 0002:000006d0       __acrt_stdio_terminator    00000001800236d0     libucrt:stdio_initializer.obj
 0002:000006d8       __xp_z                     00000001800236d8     LIBCMT:initializers.obj
 0002:000006e0       __xt_a                     00000001800236e0     LIBCMT:initializers.obj
 0002:000006e8       __xt_z                     00000001800236e8     LIBCMT:initializers.obj
 0002:000006f0       ??_C@_13HADIAKP@?$AAS@     00000001800236f0     OposVariant.obj
 0002:000006f4       ??_C@_13LHMFKAAD@?$AAM@    00000001800236f4     OposVariant.obj
 0002:000006f8       ??_C@_13MKMNOPIJ@?$AAD@    00000001800236f8     OposVariant.obj
 0002:000006fc       ??_C@_13OPKGLAFF@?$AAB@    00000001800236fc     OposVariant.obj
 0002:00000700       ??_C@_17LLMMEOJD@?$AAV?$AAa?$AAl@ 0000000180023700     OposVariant.obj
 0002:00000708       ??_C@_1BI@JFAIJMHL@?$AAF?$AAo?$AAr?$AAc?$AAe?$AAR?$AAe?$AAm?$AAo?$AAv?$AAe@ 0000000180023708     OposVariant.obj
 0002:00000720       ??_C@_1BC@GCKHIPE@?$AAN?$AAo?$AAR?$AAe?$AAm?$AAo?$AAv?$AAe@ 0000000180023720     OposVariant.obj
 0002:00000738       ??_C@_1O@JDLOHAN@?$AAD?$AAe?$AAl?$AAe?$AAt?$AAe@ 0000000180023738     OposVariant.obj
 0002:00000748       ??_C@_11LOCGONAA@@         0000000180023748     OposVariant.obj
 0002:00000750       IID_IOPOSMICR_1_5          0000000180023750     MICR.obj
 0002:00000760       IID_IOPOSMICR_1_8          0000000180023760     MICR.obj
 0002:00000770       IID_IOPOSMICR_1_9          0000000180023770     MICR.obj
 0002:00000780       IID_IOPOSMICR_1_10         0000000180023780     MICR.obj
 0002:00000790       IID_IOPOSMICR              0000000180023790     MICR.obj
 0002:000007a0       LIBID_OposMICR_CCO         00000001800237a0     MICR.obj
 0002:000007b0       DIID__IOPOSMICREvents      00000001800237b0     MICR.obj
 0002:000007c0       CLSID_OPOSMICR             00000001800237c0     MICR.obj
 0002:000007d0       _GUID_00000114_0000_0000_c000_000000000046 00000001800237d0     MICR.obj
 0002:000007e0       ??_C@_1BK@BIGILECK@?$AAA?$AAd?$AAv?$AAa?$AAp?$AAi?$AA3?$AA2?$AA?4?$AAd?$AAl?$AAl@ 00000001800237e0     MICR.obj
 0002:00000800       ??_C@_0BI@MNCFCPFK@RegCreateKeyTransactedW@ 0000000180023800     MICR.obj
 0002:00000818       _GUID_b196b287_bab4_101a_b69c_00aa00341d07 0000000180023818     MICR.obj
 0002:00000828       _GUID_b196b285_bab4_101a_b69c_00aa00341d07 0000000180023828     MICR.obj
 0002:00000838       _GUID_a6bc3ac0_dbaa_11ce_9de3_00aa004bb851 0000000180023838     MICR.obj
 0002:00000850       ?_entries@?1??_GetEntries@COPOSMICR@@SAPEBU_ATL_INTMAP_ENTRY@ATL@@XZ@4QBU34@B 0000000180023850     MICR.obj
 0002:00000ad8       _GUID_0000010c_0000_0000_c000_000000000046 0000000180023ad8     MICR.obj
 0002:00000ae8       _GUID_cf51ed10_62fe_11cf_bf86_00a0c9034836 0000000180023ae8     MICR.obj
 0002:00000af8       _GUID_0000010a_0000_0000_c000_000000000046 0000000180023af8     MICR.obj
 0002:00000b08       _GUID_b196b283_bab4_101a_b69c_00aa00341d07 0000000180023b08     MICR.obj
 0002:00000b18       _GUID_cb5bdc81_93c1_11cf_8f20_00805f2cd064 0000000180023b18     MICR.obj
 0002:00000b30       ?pPropMap@?1??GetPropertyMap@COPOSMICR@@SAPEBUATL_PROPMAP_ENTRY@ATL@@XZ@4QBU34@B 0000000180023b30     MICR.obj
 0002:00000bd8       ??_C@_17DGDADEHL@?$AA_?$AAc?$AAx@ 0000000180023bd8     MICR.obj
 0002:00000be0       ??_C@_17IOIMFDBO@?$AA_?$AAc?$AAy@ 0000000180023be0     MICR.obj
 0002:00000be8       _GUID_00000146_0000_0000_c000_000000000046 0000000180023be8     MICR.obj
 0002:00000bf8       _GUID_922eada0_3424_11cf_b670_00aa004cd6d8 0000000180023bf8     MICR.obj
 0002:00000c08       _GUID_9c2cad80_3424_11cf_b670_00aa004cd6d8 0000000180023c08     MICR.obj
 0002:00000c18       _GUID_00000119_0000_0000_c000_000000000046 0000000180023c18     MICR.obj
 0002:00000c28       _GUID_b196b289_bab4_101a_b69c_00aa00341d07 0000000180023c28     MICR.obj
 0002:00000c38       ??_7?$CComObjectCached@VCComClassFactory@ATL@@@ATL@@6B@ 0000000180023c38     MICR.obj
 0002:00000c68       ??_C@_1CE@PGFMOFKI@?$AAS?$AAt?$AAa?$AAt?$AAu?$AAs?$AAU?$AAp?$AAd?$AAa?$AAt?$AAe?$AAE?$AAv?$AAe@ 0000000180023c68     MICR.obj
 0002:00000c90       ??_C@_1BG@LODEBHDD@?$AAE?$AAr?$AAr?$AAo?$AAr?$AAE?$AAv?$AAe?$AAn?$AAt@ 0000000180023c90     MICR.obj
 0002:00000ca8       ??_C@_1BM@CBGEBBBJ@?$AAD?$AAi?$AAr?$AAe?$AAc?$AAt?$AAI?$AAO?$AAE?$AAv?$AAe?$AAn?$AAt@ 0000000180023ca8     MICR.obj
 0002:00000cc8       ??_C@_1BE@IEBMACEM@?$AAD?$AAa?$AAt?$AAa?$AAE?$AAv?$AAe?$AAn?$AAt@ 0000000180023cc8     MICR.obj
 0002:00000ce0       _GUID_b196b286_bab4_101a_b69c_00aa00341d07 0000000180023ce0     MICR.obj
 0002:00000cf0       _GUID_00000117_0000_0000_c000_000000000046 0000000180023cf0     MICR.obj
 0002:00000d00       ??_7CComModule@ATL@@6B@    0000000180023d00     MICR.obj
 0002:00000d50       ??_C@_1BC@ENICKDH@?$AAC?$AAo?$AAn?$AAt?$AAe?$AAn?$AAt?$AAs@ 0000000180023d50     MICR.obj
 0002:00000d68       _GUID_00000000_0000_0000_c000_000000000046 0000000180023d68     MICR.obj
 0002:00000d78       _GUID_00020400_0000_0000_c000_000000000046 0000000180023d78     MICR.obj
 0002:00000d88       ??_7?$CComObject@V?$CComEnum@UIEnumConnectionPoints@@$1?_GUID_b196b285_bab4_101a_b69c_00aa00341d07@@3U__s_GUID@@BPEAUIConnectionPoint@@V?$_CopyInterface@UIConnectionPoint@@@ATL@@VCComSingleThreadModel@6@@ATL@@@ATL@@6B@ 0000000180023d88     MICR.obj
 0002:00000dc8       _GUID_0000010e_0000_0000_c000_000000000046 0000000180023dc8     MICR.obj
 0002:00000dd8       _GUID_b196b288_bab4_101a_b69c_00aa00341d07 0000000180023dd8     MICR.obj
 0002:00000de8       ??_C@_1M@KANJNLFF@?$AAC?$AAL?$AAS?$AAI?$AAD@ 0000000180023de8     MICR.obj
 0002:00000df8       ??_C@_1M@EJNEECMJ@?$AAA?$AAp?$AAp?$AAI?$AAD@ 0000000180023df8     MICR.obj
 0002:00000e08       _GUID_00000113_0000_0000_c000_000000000046 0000000180023e08     MICR.obj
 0002:00000e20       ?rgszNeverDelete@CRegParser@ATL@@1QBQEB_WB 0000000180023e20     MICR.obj
 0002:00000e80       _GUID_1c2056cc_5ef4_101b_8bc8_00aa003e3b29 0000000180023e80     MICR.obj
 0002:00000e90       ??_7CRegObject@ATL@@6B@    0000000180023e90     MICR.obj
 0002:00000ec0       _GUID_00000112_0000_0000_c000_000000000046 0000000180023ec0     MICR.obj
 0002:00000ed0       _GUID_3af24292_0c96_11ce_a0cf_00aa00600ab8 0000000180023ed0     MICR.obj
 0002:00000ee0       _GUID_00000127_0000_0000_c000_000000000046 0000000180023ee0     MICR.obj
 0002:00000ef0       _GUID_0000010d_0000_0000_c000_000000000046 0000000180023ef0     MICR.obj
 0002:00000f00       ??_C@_1CK@OEKPKBNA@?$AAC?$AAo?$AAm?$AAp?$AAo?$AAn?$AAe?$AAn?$AAt?$AA?5?$AAC?$AAa?$AAt?$AAe?$AAg@ 0000000180023f00     MICR.obj
 0002:00000f30       ??_C@_1BC@NKMMNMGL@?$AAF?$AAi?$AAl?$AAe?$AAT?$AAy?$AAp?$AAe@ 0000000180023f30     MICR.obj
 0002:00000f48       ??_C@_1BE@EKPAFMCP@?$AAI?$AAn?$AAt?$AAe?$AAr?$AAf?$AAa?$AAc?$AAe@ 0000000180023f48     MICR.obj
 0002:00000f60       ??_C@_1BC@MAICEHGI@?$AAH?$AAa?$AAr?$AAd?$AAw?$AAa?$AAr?$AAe@ 0000000180023f60     MICR.obj
 0002:00000f78       ??_C@_19HLLLM@?$AAM?$AAi?$AAm?$AAe@ 0000000180023f78     MICR.obj
 0002:00000f88       ??_C@_17OMAOINJK@?$AAS?$AAA?$AAM@ 0000000180023f88     MICR.obj
 0002:00000f90       ??_C@_1BC@IBECJAAI@?$AAS?$AAE?$AAC?$AAU?$AAR?$AAI?$AAT?$AAY@ 0000000180023f90     MICR.obj
 0002:00000fa8       ??_C@_1O@GBFINDKL@?$AAS?$AAY?$AAS?$AAT?$AAE?$AAM@ 0000000180023fa8     MICR.obj
 0002:00000fb8       ??_C@_1BC@EAHCMADO@?$AAS?$AAo?$AAf?$AAt?$AAw?$AAa?$AAr?$AAe@ 0000000180023fb8     MICR.obj
 0002:00000fd0       ??_C@_1BA@JIHHIEDE@?$AAT?$AAy?$AAp?$AAe?$AAL?$AAi?$AAb@ 0000000180023fd0     MICR.obj
 0002:00000fe0       ?map@?1??HKeyFromString@CRegParser@ATL@@KAPEAUHKEY__@@PEA_W@Z@4QBUkeymap@?1??123@KAPEAU4@0@Z@B 0000000180023fe0     MICR.obj
 0002:000010c0       ??_C@_19NCHLBIN@?$AAH?$AAK?$AAC?$AAR@ 00000001800240c0     MICR.obj
 0002:000010d0       ??_C@_19JAPAIJDE@?$AAH?$AAK?$AAC?$AAU@ 00000001800240d0     MICR.obj
 0002:000010e0       ??_C@_19PEALEEJB@?$AAH?$AAK?$AAL?$AAM@ 00000001800240e0     MICR.obj
 0002:000010f0       ??_C@_17PJOJPMPB@?$AAH?$AAK?$AAU@ 00000001800240f0     MICR.obj
 0002:000010f8       ??_C@_19PNBHMJPL@?$AAH?$AAK?$AAP?$AAD@ 00000001800240f8     MICR.obj
 0002:00001108       ??_C@_19GFFAIJHG@?$AAH?$AAK?$AAD?$AAD@ 0000000180024108     MICR.obj
 0002:00001118       ??_C@_19OFICIBHH@?$AAH?$AAK?$AAC?$AAC@ 0000000180024118     MICR.obj
 0002:00001128       ??_C@_1CE@PACHPJFI@?$AAH?$AAK?$AAE?$AAY?$AA_?$AAC?$AAL?$AAA?$AAS?$AAS?$AAE?$AAS?$AA_?$AAR?$AAO@ 0000000180024128     MICR.obj
 0002:00001150       ??_C@_1CE@HLHNCBPM@?$AAH?$AAK?$AAE?$AAY?$AA_?$AAC?$AAU?$AAR?$AAR?$AAE?$AAN?$AAT?$AA_?$AAU?$AAS@ 0000000180024150     MICR.obj
 0002:00001178       ??_C@_1CG@GFBEANJL@?$AAH?$AAK?$AAE?$AAY?$AA_?$AAL?$AAO?$AAC?$AAA?$AAL?$AA_?$AAM?$AAA?$AAC?$AAH@ 0000000180024178     MICR.obj
 0002:000011a0       ??_C@_1BG@BGODANIO@?$AAH?$AAK?$AAE?$AAY?$AA_?$AAU?$AAS?$AAE?$AAR?$AAS@ 00000001800241a0     MICR.obj
 0002:000011b8       ??_C@_1CM@KHNNAOIC@?$AAH?$AAK?$AAE?$AAY?$AA_?$AAP?$AAE?$AAR?$AAF?$AAO?$AAR?$AAM?$AAA?$AAN?$AAC@ 00000001800241b8     MICR.obj
 0002:000011e8       ??_C@_1BM@HAGMMHIA@?$AAH?$AAK?$AAE?$AAY?$AA_?$AAD?$AAY?$AAN?$AA_?$AAD?$AAA?$AAT?$AAA@ 00000001800241e8     MICR.obj
 0002:00001208       ??_C@_1CI@BBJOACGG@?$AAH?$AAK?$AAE?$AAY?$AA_?$AAC?$AAU?$AAR?$AAR?$AAE?$AAN?$AAT?$AA_?$AAC?$AAO@ 0000000180024208     MICR.obj
 0002:00001230       ??_C@_1M@PPPPCDEP@?$AAA?$AAP?$AAP?$AAI?$AAD@ 0000000180024230     MICR.obj
 0002:00001240       _GUID_00000109_0000_0000_c000_000000000046 0000000180024240     MICR.obj
 0002:00001250       _GUID_7fd52380_4e07_101b_ae2d_08002b2ec713 0000000180024250     MICR.obj
 0002:00001260       ??_C@_1EA@NHKLICFA@?$AAH?$AAK?$AAC?$AAU?$AA?$AN?$AA?6?$AA?$HL?$AA?7?$AAS?$AAo?$AAf?$AAt?$AAw?$AAa?$AAr@ 0000000180024260     MICR.obj
 0002:000012a0       ??_C@_1BE@LJOLIMEM@?$AA?$AN?$AA?6?$AA?7?$AA?$HN?$AA?$AN?$AA?6?$AA?$HN?$AA?$AN?$AA?6@ 00000001800242a0     MICR.obj
 0002:000012b8       ??_7?$CComContainedObject@VCOPOSMICR@@@ATL@@6B?$IDispatchImpl@UIOPOSMICR@@$1?IID_IOPOSMICR@@3U_GUID@@B$1?LIBID_OposMICR_CCO@@3U3@B$00$0A@VCComTypeInfoHolder@ATL@@@1@@ 00000001800242b8     MICR.obj
 0002:000014f0       ??_7?$CComContainedObject@VCOPOSMICR@@@ATL@@6BCComControlBase@1@@ 00000001800244f0     MICR.obj
 0002:00001518       ??_7?$CComContainedObject@VCOPOSMICR@@@ATL@@6B?$CWindowImpl@VCOPOSMICR@@VCWindow@ATL@@V?$CWinTraits@$0FGAAAAAA@$0A@@3@@1@@ 0000000180024518     MICR.obj
 0002:00001538       ??_7?$CComContainedObject@VCOPOSMICR@@@ATL@@6B?$IPersistStreamInitImpl@VCOPOSMICR@@@1@@ 0000000180024538     MICR.obj
 0002:00001580       ??_7?$CComContainedObject@VCOPOSMICR@@@ATL@@6B?$IOleControlImpl@VCOPOSMICR@@@1@@ 0000000180024580     MICR.obj
 0002:000015b8       ??_7?$CComContainedObject@VCOPOSMICR@@@ATL@@6B?$IOleObjectImpl@VCOPOSMICR@@@1@@ 00000001800245b8     MICR.obj
 0002:00001678       ??_7?$CComContainedObject@VCOPOSMICR@@@ATL@@6B?$IOleInPlaceActiveObjectImpl@VCOPOSMICR@@@1@@ 0000000180024678     MICR.obj
 0002:000016c8       ??_7?$CComContainedObject@VCOPOSMICR@@@ATL@@6B?$IViewObjectExImpl@VCOPOSMICR@@@1@@ 00000001800246c8     MICR.obj
 0002:00001740       ??_7?$CComContainedObject@VCOPOSMICR@@@ATL@@6B?$IOleInPlaceObjectWindowlessImpl@VCOPOSMICR@@@1@@ 0000000180024740     MICR.obj
 0002:00001798       ??_7?$CComContainedObject@VCOPOSMICR@@@ATL@@6B?$IConnectionPointContainerImpl@VCOPOSMICR@@@1@@ 0000000180024798     MICR.obj
 0002:000017c0       ??_7?$CComContainedObject@VCOPOSMICR@@@ATL@@6B?$IPersistStorageImpl@VCOPOSMICR@@@1@@ 00000001800247c0     MICR.obj
 0002:00001810       ??_7?$CComContainedObject@VCOPOSMICR@@@ATL@@6B?$ISpecifyPropertyPagesImpl@VCOPOSMICR@@@1@@ 0000000180024810     MICR.obj
 0002:00001830       ??_7?$CComContainedObject@VCOPOSMICR@@@ATL@@6B?$IQuickActivateImpl@VCOPOSMICR@@@1@@ 0000000180024830     MICR.obj
 0002:00001860       ??_7?$CComContainedObject@VCOPOSMICR@@@ATL@@6B?$IDataObjectImpl@VCOPOSMICR@@@1@@ 0000000180024860     MICR.obj
 0002:000018c0       ??_7?$CComContainedObject@VCOPOSMICR@@@ATL@@6B?$IProvideClassInfo2Impl@$1?CLSID_OPOSMICR@@3U_GUID@@B$1?DIID__IOPOSMICREvents@@3U2@B$1?LIBID_OposMICR_CCO@@3U2@B$00$0A@VCComTypeInfoHolder@ATL@@@1@@ 00000001800248c0     MICR.obj
 0002:000018e8       ??_7?$CComContainedObject@VCOPOSMICR@@@ATL@@6B?$IObjectSafetyImpl@VCOPOSMICR@@$02@1@@ 00000001800248e8     MICR.obj
 0002:00001918       ??_7?$CComContainedObject@VCOPOSMICR@@@ATL@@6B?$IPropertyNotifySinkCP@VCOPOSMICR@@VCComDynamicUnkArray@ATL@@@1@@ 0000000180024918     MICR.obj
 0002:00001958       ??_7?$CComContainedObject@VCOPOSMICR@@@ATL@@6B?$CProxy_IOPOSEvents@VCOPOSMICR@@@@@ 0000000180024958     MICR.obj
 0002:00001998       ??_7?$CComAggObject@VCOPOSMICR@@@ATL@@6B@ 0000000180024998     MICR.obj
 0002:000019b8       ??_7?$CComObject@VCOPOSMICR@@@ATL@@6B?$IDispatchImpl@UIOPOSMICR@@$1?IID_IOPOSMICR@@3U_GUID@@B$1?LIBID_OposMICR_CCO@@3U3@B$00$0A@VCComTypeInfoHolder@ATL@@@1@@ 00000001800249b8     MICR.obj
 0002:00001bf0       ??_7?$CComObject@VCOPOSMICR@@@ATL@@6BCComControlBase@1@@ 0000000180024bf0     MICR.obj
 0002:00001c18       ??_7?$CComObject@VCOPOSMICR@@@ATL@@6B?$CWindowImpl@VCOPOSMICR@@VCWindow@ATL@@V?$CWinTraits@$0FGAAAAAA@$0A@@3@@1@@ 0000000180024c18     MICR.obj
 0002:00001c38       ??_7?$CComObject@VCOPOSMICR@@@ATL@@6B?$IPersistStreamInitImpl@VCOPOSMICR@@@1@@ 0000000180024c38     MICR.obj
 0002:00001c80       ??_C@_1O@MNLDABAF@?$AAM?$AAo?$AAd?$AAu?$AAl?$AAe@ 0000000180024c80     MICR.obj
 0002:00001c90       ??_7?$CComObject@VCOPOSMICR@@@ATL@@6B?$IOleControlImpl@VCOPOSMICR@@@1@@ 0000000180024c90     MICR.obj
 0002:00001cc8       ??_7?$CComObject@VCOPOSMICR@@@ATL@@6B?$IOleObjectImpl@VCOPOSMICR@@@1@@ 0000000180024cc8     MICR.obj
 0002:00001d88       ??_C@_1BG@JBACFMF@?$AAM?$AAo?$AAd?$AAu?$AAl?$AAe?$AA_?$AAR?$AAa?$AAw@ 0000000180024d88     MICR.obj
 0002:00001da0       ??_7?$CComObject@VCOPOSMICR@@@ATL@@6B?$IOleInPlaceActiveObjectImpl@VCOPOSMICR@@@1@@ 0000000180024da0     MICR.obj
 0002:00001df0       ??_C@_1BC@KAILKFFG@?$AAR?$AAE?$AAG?$AAI?$AAS?$AAT?$AAR?$AAY@ 0000000180024df0     MICR.obj
 0002:00001e08       ??_7?$CComObject@VCOPOSMICR@@@ATL@@6B?$IViewObjectExImpl@VCOPOSMICR@@@1@@ 0000000180024e08     MICR.obj
 0002:00001e80       ??_7?$CComObject@VCOPOSMICR@@@ATL@@6B?$IOleInPlaceObjectWindowlessImpl@VCOPOSMICR@@@1@@ 0000000180024e80     MICR.obj
 0002:00001ed8       ??_7?$CComObject@VCOPOSMICR@@@ATL@@6B?$IConnectionPointContainerImpl@VCOPOSMICR@@@1@@ 0000000180024ed8     MICR.obj
 0002:00001f00       ??_7?$CComObject@VCOPOSMICR@@@ATL@@6B?$IPersistStorageImpl@VCOPOSMICR@@@1@@ 0000000180024f00     MICR.obj
 0002:00001f50       ??_7?$CComObject@VCOPOSMICR@@@ATL@@6B?$ISpecifyPropertyPagesImpl@VCOPOSMICR@@@1@@ 0000000180024f50     MICR.obj
 0002:00001f70       ??_7?$CComObject@VCOPOSMICR@@@ATL@@6B?$IQuickActivateImpl@VCOPOSMICR@@@1@@ 0000000180024f70     MICR.obj
 0002:00001fa0       ??_7?$CComObject@VCOPOSMICR@@@ATL@@6B?$IDataObjectImpl@VCOPOSMICR@@@1@@ 0000000180024fa0     MICR.obj
 0002:00002000       ??_7?$CComObject@VCOPOSMICR@@@ATL@@6B?$IProvideClassInfo2Impl@$1?CLSID_OPOSMICR@@3U_GUID@@B$1?DIID__IOPOSMICREvents@@3U2@B$1?LIBID_OposMICR_CCO@@3U2@B$00$0A@VCComTypeInfoHolder@ATL@@@1@@ 0000000180025000     MICR.obj
 0002:00002028       ??_7?$CComObject@VCOPOSMICR@@@ATL@@6B?$IObjectSafetyImpl@VCOPOSMICR@@$02@1@@ 0000000180025028     MICR.obj
 0002:00002058       ??_7?$CComObject@VCOPOSMICR@@@ATL@@6B?$IPropertyNotifySinkCP@VCOPOSMICR@@VCComDynamicUnkArray@ATL@@@1@@ 0000000180025058     MICR.obj
 0002:00002098       ??_7?$CComObject@VCOPOSMICR@@@ATL@@6B?$CProxy_IOPOSEvents@VCOPOSMICR@@@@@ 0000000180025098     MICR.obj
 0002:000020d8       ??_C@_1O@GBFKGNEO@?$AAA?$AAT?$AAL?$AA?3?$AA?$CF?$AAp@ 00000001800250d8     MICR.obj
 0002:000020e8       ??_C@_1BA@PICGEGJB@?$AAD?$AAI?$AAS?$AAP?$AAL?$AAA?$AAY@ 00000001800250e8     MICR.obj
 0002:000020f8       _GUID_9bfbbc02_eff1_101a_84ed_00aa00341d07 00000001800250f8     MICR.obj
 0002:00002108       ?_entries@?1??_GetEntries@?$CComEnum@UIEnumConnectionPoints@@$1?_GUID_b196b285_bab4_101a_b69c_00aa00341d07@@3U__s_GUID@@BPEAUIConnectionPoint@@V?$_CopyInterface@UIConnectionPoint@@@ATL@@VCComSingleThreadModel@6@@ATL@@SAPEBU_ATL_INTMAP_ENTRY@3@XZ@4QBU43@B 0000000180025108     MICR.obj
 0002:00002138       _GUID_b196b284_bab4_101a_b69c_00aa00341d07 0000000180025138     MICR.obj
 0002:00002148       _GUID_00020412_0000_0000_c000_000000000046 0000000180025148     MICR.obj
 0002:00002158       _GUID_00020401_0000_0000_c000_000000000046 0000000180025158     MICR.obj
 0002:00002168       ??_7?$CComObject@V?$CComEnum@UIEnumConnections@@$1?_GUID_b196b287_bab4_101a_b69c_00aa00341d07@@3U__s_GUID@@BUtagCONNECTDATA@@V?$_Copy@UtagCONNECTDATA@@@ATL@@VCComSingleThreadModel@6@@ATL@@@ATL@@6B@ 0000000180025168     MICR.obj
 0002:000021a8       _GUID_55980ba0_35aa_11cf_b671_00aa004cd6d8 00000001800251a8     MICR.obj
 0002:000021b8       _GUID_b196b28b_bab4_101a_b69c_00aa00341d07 00000001800251b8     MICR.obj
 0002:000021c8       ?_entries@?1??_GetEntries@?$CComEnum@UIEnumConnections@@$1?_GUID_b196b287_bab4_101a_b69c_00aa00341d07@@3U__s_GUID@@BUtagCONNECTDATA@@V?$_Copy@UtagCONNECTDATA@@@ATL@@VCComSingleThreadModel@6@@ATL@@SAPEBU_ATL_INTMAP_ENTRY@3@XZ@4QBU43@B 00000001800251c8     MICR.obj
 0002:000021f8       ??_7CComClassFactory@ATL@@6B@ 00000001800251f8     MICR.obj
 0002:00002228       ?_entries@?1??_GetEntries@CComClassFactory@ATL@@SAPEBU_ATL_INTMAP_ENTRY@3@XZ@4QBU43@B 0000000180025228     MICR.obj
 0002:00002258       _GUID_00000001_0000_0000_c000_000000000046 0000000180025258     MICR.obj
 0002:00002268       ??_C@_0BG@EKFFMJIO@RegOpenKeyTransactedW@ 0000000180025268     MICR.obj
 0002:00002280       ??_C@_0BI@HAKLOOGP@RegDeleteKeyTransactedW@ 0000000180025280     MICR.obj
 0002:00002298       ??_C@_0BA@LILAPHGE@RegDeleteKeyExW@ 0000000180025298     MICR.obj
 0002:000022a8       ??_C@_19ILOCMLCJ@?$AA?4?$AAt?$AAl?$AAb@ 00000001800252a8     MICR.obj
 0002:000022b8       _GUID_0002e012_0000_0000_c000_000000000046 00000001800252b8     MICR.obj
 0002:000022c8       ??_C@_1O@FHBGLCIO@?$AAC?$AAL?$AAS?$AAI?$AAD?$AA?2@ 00000001800252c8     MICR.obj
 0002:000022d8       ??_C@_1CK@IFBKBFAA@?$AA?2?$AAR?$AAe?$AAq?$AAu?$AAi?$AAr?$AAe?$AAd?$AA?5?$AAC?$AAa?$AAt?$AAe?$AAg@ 00000001800252d8     MICR.obj
 0002:00002308       ??_C@_1DA@BIHALFED@?$AA?2?$AAI?$AAm?$AAp?$AAl?$AAe?$AAm?$AAe?$AAn?$AAt?$AAe?$AAd?$AA?5?$AAC?$AAa@ 0000000180025308     MICR.obj
 0002:00002338       ??_C@_1BK@EDKOLFBJ@?$AAO?$AAL?$AAE?$AAA?$AAU?$AAT?$AA3?$AA2?$AA?4?$AAD?$AAL?$AAL@ 0000000180025338     MICR.obj
 0002:00002358       ??_C@_0BJ@CNLFOMHB@UnRegisterTypeLibForUser@ 0000000180025358     MICR.obj
 0002:00002378       ??_C@_0BH@LBOMMKPJ@RegisterTypeLibForUser@ 0000000180025378     MICR.obj
 0002:00002390       ??_C@_0P@MMNMMLGK@COFreezeEvents@ 0000000180025390     MICRImpl.obj
 0002:000023a0       ??_C@_0BC@OGCGGIMP@GetPropertyNumber@ 00000001800253a0     MICRImpl.obj
 0002:000023b8       ??_C@_0BC@MDCNODNB@SetPropertyNumber@ 00000001800253b8     MICRImpl.obj
 0002:000023d0       ??_C@_0BC@CFCCMIMD@GetPropertyString@ 00000001800253d0     MICRImpl.obj
 0002:000023e8       ??_C@_0BC@CJEDNN@SetPropertyString@ 00000001800253e8     MICRImpl.obj
 0002:00002400       ??_C@_0M@LNPKKKDA@OpenService@ 0000000180025400     MICRImpl.obj
 0002:00002410       ??_C@_0M@PCMCHHMH@CheckHealth@ 0000000180025410     MICRImpl.obj
 0002:00002420       ??_C@_0M@JGMIDNEK@ClaimDevice@ 0000000180025420     MICRImpl.obj
 0002:00002430       ??_C@_0L@BNEIFEJC@ClearInput@ 0000000180025430     MICRImpl.obj
 0002:00002440       ??_C@_0N@DDFIIBMP@CloseService@ 0000000180025440     MICRImpl.obj
 0002:00002450       ??_C@_08EEIHICPC@DirectIO@ 0000000180025450     MICRImpl.obj
 0002:00002460       ??_C@_0O@BCPMENMJ@ReleaseDevice@ 0000000180025460     MICRImpl.obj
 0002:00002470       ??_C@_0P@DPMKPLAE@BeginInsertion@ 0000000180025470     MICRImpl.obj
 0002:00002480       ??_C@_0N@PCJLGBKP@BeginRemoval@ 0000000180025480     MICRImpl.obj
 0002:00002490       ??_C@_0N@MIHLNKHM@EndInsertion@ 0000000180025490     MICRImpl.obj
 0002:000024a0       ??_C@_0L@FCEKAOMI@EndRemoval@ 00000001800254a0     MICRImpl.obj
 0002:000024b0       ??_C@_0BA@GFABKEEE@ResetStatistics@ 00000001800254b0     MICRImpl.obj
 0002:000024c0       ??_C@_0BD@DPALHJGC@RetrieveStatistics@ 00000001800254c0     MICRImpl.obj
 0002:000024d8       ??_C@_0BB@KOHIKNFC@UpdateStatistics@ 00000001800254d8     MICRImpl.obj
 0002:000024f0       ??_C@_0BH@PBKBNMGB@CompareFirmwareVersion@ 00000001800254f0     MICRImpl.obj
 0002:00002508       ??_C@_0P@FBPDPIPA@UpdateFirmware@ 0000000180025508     MICRImpl.obj
 0002:00002518       ??_C@_0BF@CMAPCJGM@ClearInputProperties@ 0000000180025518     MICRImpl.obj
 0002:00002530       ??_7?$CProxy_IOPOSEvents@VCOPOSMICR@@@@6B@ 0000000180025530     MICRImpl.obj
 0002:00002570       ??_C@_1BA@IFHENID@?$AA?$FL?$AAE?$AAr?$AAr?$AAo?$AAr?$AA?$FN@ 0000000180025570     MICRImpl.obj
 0002:00002580       ??_C@_0CH@BMFKNIPD@SOFTWARE?2OLEforRetail?2ServiceOP@ 0000000180025580     MICRImpl.obj
 0002:000025a8       ??_C@_1M@IAIJHCCH@?$AAC?$AAl?$AAo?$AAs?$AAe@ 00000001800255a8     MICRImpl.obj
 0002:000025b8       ??_C@_1M@PCPKGJAH@?$AAC?$AAl?$AAa?$AAi?$AAm@ 00000001800255b8     MICRImpl.obj
 0002:000025c8       ??_C@_1BA@NDFKIOCP@?$AAR?$AAe?$AAl?$AAe?$AAa?$AAs?$AAe@ 00000001800255c8     MICRImpl.obj
 0002:000025d8       ??_C@_04IFPDIPOC@MICR@     00000001800255d8     MICRImpl.obj
 0002:000025e0       ??_C@_1BM@IJMNMBPK@?$AAG?$AAe?$AAt?$AAO?$AAp?$AAe?$AAn?$AAR?$AAe?$AAs?$AAu?$AAl?$AAt@ 00000001800255e0     MICRImpl.obj
 0002:00002600       IID_IDispatch              0000000180025600     uuid:oaidl_i.obj
 0002:00002610       IID_IPropertyNotifySink    0000000180025610     uuid:ocidl_i.obj
 0002:00002620       GUID_NULL                  0000000180025620     uuid:cguid_i.obj
 0002:00002630       CLSID_StdGlobalInterfaceTable 0000000180025630     uuid:cguid_i.obj
 0002:00002640       CLSID_StdComponentCategoriesMgr 0000000180025640     uuid:ieguids.obj
 0002:00002650       IID_IUnknown               0000000180025650     uuid:unknwn_i.obj
 0002:00002660       __xmm@ffffffffffffffffffffffffffffffff 0000000180025660     LIBCMT:utility.obj
 0002:00002670       ??_C@_1EC@JIJBPKFM@?$AAa?$AAp?$AAi?$AA?9?$AAm?$AAs?$AA?9?$AAw?$AAi?$AAn?$AA?9?$AAc?$AAo?$AAr?$AAe@ 0000000180025670     LIBCMT:thread_safe_statics.obj
 0002:000026b8       ??_C@_1BK@MGMFAEKH@?$AAk?$AAe?$AAr?$AAn?$AAe?$AAl?$AA3?$AA2?$AA?4?$AAd?$AAl?$AAl@ 00000001800256b8     LIBCMT:thread_safe_statics.obj
 0002:000026d8       ??_C@_0BJ@JEBJOJFJ@SleepConditionVariableCS@ 00000001800256d8     LIBCMT:thread_safe_statics.obj
 0002:000026f8       ??_C@_0BJ@PGPPEPCC@WakeAllConditionVariable@ 00000001800256f8     LIBCMT:thread_safe_statics.obj
 0002:00002711       ?nothrow@std@@3Unothrow_t@1@B 0000000180025711     LIBCMT:std_nothrow.obj
 0002:00002728       _pRawDllMain               0000000180025728     LIBCMT:dll_dllmain.obj
 0002:00002728       _pDefaultRawDllMain        0000000180025728     LIBCMT:dll_dllmain.obj
 0002:00002738       ??_7exception@std@@6B@     0000000180025738     LIBCMT:throw_bad_alloc.obj
 0002:00002748       ??_C@_0BC@EOODALEL@Unknown?5exception@ 0000000180025748     LIBCMT:throw_bad_alloc.obj
 0002:00002768       ??_7bad_alloc@std@@6B@     0000000180025768     LIBCMT:throw_bad_alloc.obj
 0002:00002778       ??_C@_0P@GHFPNOJB@bad?5allocation@ 0000000180025778     LIBCMT:throw_bad_alloc.obj
 0002:00002790       ??_7bad_array_new_length@std@@6B@ 0000000180025790     LIBCMT:throw_bad_alloc.obj
 0002:000027a0       ??_C@_0BF@KINCDENJ@bad?5array?5new?5length@ 00000001800257a0     LIBCMT:throw_bad_alloc.obj
 0002:000027c0       ??_7type_info@@6B@         00000001800257c0     LIBCMT:std_type_info_static.obj
 0002:000027c8       GUID_ATLVer110             00000001800257c8     atls:atlbase.obj
 0002:000027e0       ??_C@_1IC@ONKHOIDK@?$AAE?$AAR?$AAR?$AAO?$AAR?$AA?5?$AA?3?$AA?5?$AAU?$AAn?$AAa?$AAb?$AAl?$AAe?$AA?5@ 00000001800257e0     atls:atlbase.obj
 0002:00002868       ??_C@_0N@FJEPLCIH@atlthunk?4dll@ 0000000180025868     atls:atlthunk.obj
 0002:00002878       ??_C@_0BG@GAKFHCBM@AtlThunk_AllocateData@ 0000000180025878     atls:atlthunk.obj
 0002:00002890       ??_C@_0BC@JKONFIAH@AtlThunk_InitData@ 0000000180025890     atls:atlthunk.obj
 0002:000028a8       ??_C@_0BE@IAOEELAK@AtlThunk_DataToCode@ 00000001800258a8     atls:atlthunk.obj
 0002:000028c0       ??_C@_0BC@GBGKAIPI@AtlThunk_FreeData@ 00000001800258c0     atls:atlthunk.obj
 0002:000028d8       ?s_negLengthTab@FH4@@3QBCB 00000001800258d8     libvcruntime:risctrnsctrl.obj
 0002:000028e8       ?s_shiftTab@FH4@@3QBEB     00000001800258e8     libvcruntime:risctrnsctrl.obj
 0002:00002998       _pDestructExceptionObject  0000000180025998     libvcruntime:ehhelpers.obj
 0002:000029a8       ??_7bad_exception@std@@6B@ 00000001800259a8     libvcruntime:frame.obj
 0002:000029b8       ??_C@_0O@DPKOEFFH@bad?5exception@ 00000001800259b8     libvcruntime:frame.obj
 0002:000030d0       ??_C@_08EHJDFFNH@__based?$CI@ 00000001800260d0     libvcruntime:undname.obj
 0002:000030e0       ??_C@_07KOLFKCDI@__cdecl@  00000001800260e0     libvcruntime:undname.obj
 0002:000030e8       ??_C@_08GHMPAG@__pascal@   00000001800260e8     libvcruntime:undname.obj
 0002:000030f8       ??_C@_09IFJBGAPI@__stdcall@ 00000001800260f8     libvcruntime:undname.obj
 0002:00003108       ??_C@_0L@NPHFGOKO@__thiscall@ 0000000180026108     libvcruntime:undname.obj
 0002:00003118       ??_C@_0L@JMKHOMEK@__fastcall@ 0000000180026118     libvcruntime:undname.obj
 0002:00003128       ??_C@_0N@BCKKPABJ@__vectorcall@ 0000000180026128     libvcruntime:undname.obj
 0002:00003138       ??_C@_09HIJEGCPM@__clrcall@ 0000000180026138     libvcruntime:undname.obj
 0002:00003144       ??_C@_06GHPCKEAG@__eabi@   0000000180026144     libvcruntime:undname.obj
 0002:00003150       ??_C@_09IOPIDJLG@__swift_1@ 0000000180026150     libvcruntime:undname.obj
 0002:00003160       ??_C@_09KFNFGKHF@__swift_2@ 0000000180026160     libvcruntime:undname.obj
 0002:00003170       ??_C@_07JOMMBBKO@__ptr64@  0000000180026170     libvcruntime:undname.obj
 0002:00003178       ??_C@_0L@PILCLIHE@__restrict@ 0000000180026178     libvcruntime:undname.obj
 0002:00003188       ??_C@_0M@GFIIJFMG@__unaligned@ 0000000180026188     libvcruntime:undname.obj
 0002:00003198       ??_C@_09DHDLOLLB@restrict?$CI@ 0000000180026198     libvcruntime:undname.obj
 0002:000031a2       ??_C@_00CNPNBAHC@@         00000001800261a2     libvcruntime:undname.obj
 0002:000031a4       ??_C@_04NIHEBCM@?5new@     00000001800261a4     libvcruntime:undname.obj
 0002:000031b0       ??_C@_07FPCDHGMM@?5delete@ 00000001800261b0     libvcruntime:undname.obj
 0002:000031b8       ??_C@_01NEMOKFLO@?$DN@     00000001800261b8     libvcruntime:undname.obj
 0002:000031bc       ??_C@_02GPIOPFAK@?$DO?$DO@ 00000001800261bc     libvcruntime:undname.obj
 0002:000031c0       ??_C@_02FODMEDOG@?$DM?$DM@ 00000001800261c0     libvcruntime:undname.obj
 0002:000031c4       ??_C@_01DCLJPIOD@?$CB@     00000001800261c4     libvcruntime:undname.obj
 0002:000031c8       ??_C@_02EGOFBIJA@?$DN?$DN@ 00000001800261c8     libvcruntime:undname.obj
 0002:000031cc       ??_C@_02FDNJECIE@?$CB?$DN@ 00000001800261cc     libvcruntime:undname.obj
 0002:000031d0       ??_C@_02GPECMEKF@?$FL?$FN@ 00000001800261d0     libvcruntime:undname.obj
 0002:000031d8       ??_C@_08LHJFAFGD@operator@ 00000001800261d8     libvcruntime:undname.obj
 0002:000031e4       ??_C@_02HBOOOICD@?9?$DO@   00000001800261e4     libvcruntime:undname.obj
 0002:000031e8       ??_C@_01NBENCBCI@?$CK@     00000001800261e8     libvcruntime:undname.obj
 0002:000031ec       ??_C@_02ECNGHCIF@?$CL?$CL@ 00000001800261ec     libvcruntime:undname.obj
 0002:000031f0       ??_C@_02BAABKJLB@?9?9@     00000001800261f0     libvcruntime:undname.obj
 0002:000031f4       ??_C@_01JOAMLHOP@?9@       00000001800261f4     libvcruntime:undname.obj
 0002:000031f8       ??_C@_01MIFGBAGJ@?$CL@     00000001800261f8     libvcruntime:undname.obj
 0002:000031fc       ??_C@_01HNPIGOCE@?$CG@     00000001800261fc     libvcruntime:undname.obj
 0002:00003200       ??_C@_03MNHNFDLC@?9?$DO?$CK@ 0000000180026200     libvcruntime:undname.obj
 0002:00003204       ??_C@_01KMDKNFGN@?1@       0000000180026204     libvcruntime:undname.obj
 0002:00003208       ??_C@_01FGNFDNOH@?$CF@     0000000180026208     libvcruntime:undname.obj
 0002:0000320c       ??_C@_01MNNFJEPP@?$DM@     000000018002620c     libvcruntime:undname.obj
 0002:00003210       ??_C@_02EHCHHCKH@?$DM?$DN@ 0000000180026210     libvcruntime:undname.obj
 0002:00003214       ??_C@_01PPODPGHN@?$DO@     0000000180026214     libvcruntime:undname.obj
 0002:00003218       ??_C@_02EEKDKGMJ@?$DO?$DN@ 0000000180026218     libvcruntime:undname.obj
 0002:0000321c       ??_C@_01IHBHIGKO@?0@       000000018002621c     libvcruntime:undname.obj
 0002:00003220       ??_C@_02HCKGKOFO@?$CI?$CJ@ 0000000180026220     libvcruntime:undname.obj
 0002:00003224       ??_C@_01PJKLJHI@?$HO@      0000000180026224     libvcruntime:undname.obj
 0002:00003228       ??_C@_01JKBOJNNK@?$FO@     0000000180026228     libvcruntime:undname.obj
 0002:0000322c       ??_C@_01DNKMNLPK@?$HM@     000000018002622c     libvcruntime:undname.obj
 0002:00003230       ??_C@_02PPKAJPJL@?$CG?$CG@ 0000000180026230     libvcruntime:undname.obj
 0002:00003234       ??_C@_02NONPIBCD@?$HM?$HM@ 0000000180026234     libvcruntime:undname.obj
 0002:00003238       ??_C@_02FPIMKNGF@?$CK?$DN@ 0000000180026238     libvcruntime:undname.obj
 0002:0000323c       ??_C@_02FOEOMHFC@?$CL?$DN@ 000000018002623c     libvcruntime:undname.obj
 0002:00003240       ??_C@_02FKMDLLOA@?9?$DN@   0000000180026240     libvcruntime:undname.obj
 0002:00003244       ??_C@_02FJEHGPIO@?1?$DN@   0000000180026244     libvcruntime:undname.obj
 0002:00003248       ??_C@_02FENAOKFI@?$CF?$DN@ 0000000180026248     libvcruntime:undname.obj
 0002:0000324c       ??_C@_03IKFCCPFF@?$DO?$DO?$DN@ 000000018002624c     libvcruntime:undname.obj
 0002:00003250       ??_C@_03CDNPDDLA@?$DM?$DM?$DN@ 0000000180026250     libvcruntime:undname.obj
 0002:00003254       ??_C@_02FGJGFEAB@?$CG?$DN@ 0000000180026254     libvcruntime:undname.obj
 0002:00003258       ??_C@_02DHLNPPGH@?$HM?$DN@ 0000000180026258     libvcruntime:undname.obj
 0002:0000325c       ??_C@_02MHEGNOJ@?$FO?$DN@  000000018002625c     libvcruntime:undname.obj
 0002:00003260       ??_C@_09IFPLHPGF@?$GAvftable?8@ 0000000180026260     libvcruntime:undname.obj
 0002:00003270       ??_C@_09BLBHBJP@?$GAvbtable?8@ 0000000180026270     libvcruntime:undname.obj
 0002:00003280       ??_C@_07FEEIOKP@?$GAvcall?8@ 0000000180026280     libvcruntime:undname.obj
 0002:00003288       ??_C@_08LLFFHHDJ@?$GAtypeof?8@ 0000000180026288     libvcruntime:undname.obj
 0002:00003298       ??_C@_0BF@KDPPACIK@?$GAlocal?5static?5guard?8@ 0000000180026298     libvcruntime:undname.obj
 0002:000032b0       ??_C@_08OBABFOLI@?$GAstring?8@ 00000001800262b0     libvcruntime:undname.obj
 0002:000032c0       ??_C@_0BD@JDLKDPAB@?$GAvbase?5destructor?8@ 00000001800262c0     libvcruntime:undname.obj
 0002:000032d8       ??_C@_0BN@DEGPLNFK@?$GAvector?5deleting?5destructor?8@ 00000001800262d8     libvcruntime:undname.obj
 0002:000032f8       ??_C@_0BO@OBMKPJIG@?$GAdefault?5constructor?5closure?8@ 00000001800262f8     libvcruntime:undname.obj
 0002:00003318       ??_C@_0BN@IMDCHIKM@?$GAscalar?5deleting?5destructor?8@ 0000000180026318     libvcruntime:undname.obj
 0002:00003338       ??_C@_0BO@PFGOCPJJ@?$GAvector?5constructor?5iterator?8@ 0000000180026338     libvcruntime:undname.obj
 0002:00003358       ??_C@_0BN@LFPFMEDL@?$GAvector?5destructor?5iterator?8@ 0000000180026358     libvcruntime:undname.obj
 0002:00003378       ??_C@_0CE@IKBNEHA@?$GAvector?5vbase?5constructor?5itera@ 0000000180026378     libvcruntime:undname.obj
 0002:000033a0       ??_C@_0BL@NILFHHPC@?$GAvirtual?5displacement?5map?8@ 00000001800263a0     libvcruntime:undname.obj
 0002:000033c0       ??_C@_0CB@JONCMFFK@?$GAeh?5vector?5constructor?5iterator@ 00000001800263c0     libvcruntime:undname.obj
 0002:000033e8       ??_C@_0CA@GCEOPDGL@?$GAeh?5vector?5destructor?5iterator?8@ 00000001800263e8     libvcruntime:undname.obj
 0002:00003408       ??_C@_0CH@OOJPLCPH@?$GAeh?5vector?5vbase?5constructor?5it@ 0000000180026408     libvcruntime:undname.obj
 0002:00003430       ??_C@_0BL@LLKPOHJI@?$GAcopy?5constructor?5closure?8@ 0000000180026430     libvcruntime:undname.obj
 0002:00003450       ??_C@_0BA@KBCDOMBN@?$GAudt?5returning?8@ 0000000180026450     libvcruntime:undname.obj
 0002:00003460       ??_C@_03KLGMFNMG@?$GAEH@   0000000180026460     libvcruntime:undname.obj
 0002:00003464       ??_C@_05KHLCHHI@?$GARTTI@  0000000180026464     libvcruntime:undname.obj
 0002:00003470       ??_C@_0BA@KKLDJDLB@?$GAlocal?5vftable?8@ 0000000180026470     libvcruntime:undname.obj
 0002:00003480       ??_C@_0CE@IIHCMGGL@?$GAlocal?5vftable?5constructor?5clos@ 0000000180026480     libvcruntime:undname.obj
 0002:000034a4       ??_C@_06FHBGPFGH@?5new?$FL?$FN@ 00000001800264a4     libvcruntime:undname.obj
 0002:000034b0       ??_C@_09LBNFPBCA@?5delete?$FL?$FN@ 00000001800264b0     libvcruntime:undname.obj
 0002:000034c0       ??_C@_0P@HJKNJFNN@?$GAomni?5callsig?8@ 00000001800264c0     libvcruntime:undname.obj
 0002:000034d0       ??_C@_0BL@CNOONJFP@?$GAplacement?5delete?5closure?8@ 00000001800264d0     libvcruntime:undname.obj
 0002:000034f0       ??_C@_0BN@CKNJLHMB@?$GAplacement?5delete?$FL?$FN?5closure?8@ 00000001800264f0     libvcruntime:undname.obj
 0002:00003510       ??_C@_0CG@CFDHKGGD@?$GAmanaged?5vector?5constructor?5ite@ 0000000180026510     libvcruntime:undname.obj
 0002:00003538       ??_C@_0CF@IMGKMJNO@?$GAmanaged?5vector?5destructor?5iter@ 0000000180026538     libvcruntime:undname.obj
 0002:00003560       ??_C@_0CG@HLDDJMAG@?$GAeh?5vector?5copy?5constructor?5ite@ 0000000180026560     libvcruntime:undname.obj
 0002:00003588       ??_C@_0CM@FCBBDIGB@?$GAeh?5vector?5vbase?5copy?5construct@ 0000000180026588     libvcruntime:undname.obj
 0002:000035b8       ??_C@_0BL@CLIPGLGB@?$GAdynamic?5initializer?5for?5?8@ 00000001800265b8     libvcruntime:undname.obj
 0002:000035d8       ??_C@_0CB@PDBIFEP@?$GAdynamic?5atexit?5destructor?5for?5@ 00000001800265d8     libvcruntime:undname.obj
 0002:00003600       ??_C@_0CD@CGAJBKEJ@?$GAvector?5copy?5constructor?5iterat@ 0000000180026600     libvcruntime:undname.obj
 0002:00003628       ??_C@_0CJ@GJELGAMM@?$GAvector?5vbase?5copy?5constructor?5@ 0000000180026628     libvcruntime:undname.obj
 0002:00003658       ??_C@_0CL@FGIJHLCE@?$GAmanaged?5vector?5copy?5constructo@ 0000000180026658     libvcruntime:undname.obj
 0002:00003688       ??_C@_0BM@PMGGMLDN@?$GAlocal?5static?5thread?5guard?8@ 0000000180026688     libvcruntime:undname.obj
 0002:000036a8       ??_C@_0N@BDNMDMOL@operator?5?$CC?$CC?5@ 00000001800266a8     libvcruntime:undname.obj
 0002:000036b8       ??_C@_0BC@GGEBGALA@operator?5co_await@ 00000001800266b8     libvcruntime:undname.obj
 0002:000036d0       ??_C@_0M@GAAIMMOH@operator?$DM?$DN?$DO@ 00000001800266d0     libvcruntime:undname.obj
 0002:000036e0       ??_C@_0BC@DAFEJGAK@?5Type?5Descriptor?8@ 00000001800266e0     libvcruntime:undname.obj
 0002:000036f8       ??_C@_0BM@LDKODKLH@?5Base?5Class?5Descriptor?5at?5?$CI@ 00000001800266f8     libvcruntime:undname.obj
 0002:00003718       ??_C@_0BD@LGICGFMM@?5Base?5Class?5Array?8@ 0000000180026718     libvcruntime:undname.obj
 0002:00003730       ??_C@_0BN@MECKDCOJ@?5Class?5Hierarchy?5Descriptor?8@ 0000000180026730     libvcruntime:undname.obj
 0002:00003750       ??_C@_0BK@CFCOFLF@?5Complete?5Object?5Locator?8@ 0000000180026750     libvcruntime:undname.obj
 0002:00003770       ??_C@_0BG@JNJLAMPM@?$GAanonymous?5namespace?8@ 0000000180026770     libvcruntime:undname.obj
 0002:000037a0       ??_C@_1DM@KHCHBNEB@?$AAa?$AAp?$AAi?$AA?9?$AAm?$AAs?$AA?9?$AAw?$AAi?$AAn?$AA?9?$AAc?$AAo?$AAr?$AAe@ 00000001800267a0     libvcruntime:winapi_downlevel.obj
 0002:000037e0       ??_C@_1DK@LPPGFMPP@?$AAa?$AAp?$AAi?$AA?9?$AAm?$AAs?$AA?9?$AAw?$AAi?$AAn?$AA?9?$AAc?$AAo?$AAr?$AAe@ 00000001800267e0     libvcruntime:winapi_downlevel.obj
 0002:00003820       ??_C@_1BC@GDMECMAK@?$AAk?$AAe?$AAr?$AAn?$AAe?$AAl?$AA3?$AA2@ 0000000180026820     libvcruntime:winapi_downlevel.obj
 0002:00003838       ??_C@_1BA@PFFKHIOG@?$AAa?$AAp?$AAi?$AA?9?$AAm?$AAs?$AA?9@ 0000000180026838     libvcruntime:winapi_downlevel.obj
 0002:00003850       ??_C@_08KNHFBNJ@FlsAlloc@  0000000180026850     libvcruntime:winapi_downlevel.obj
 0002:00003868       ??_C@_07PEJMOBNF@FlsFree@  0000000180026868     libvcruntime:winapi_downlevel.obj
 0002:00003878       ??_C@_0M@GDNOONDI@FlsGetValue@ 0000000180026878     libvcruntime:winapi_downlevel.obj
 0002:00003890       ??_C@_0M@JCPCPOEF@FlsSetValue@ 0000000180026890     libvcruntime:winapi_downlevel.obj
 0002:000038a8       ??_C@_0BM@HCFOFFN@InitializeCriticalSectionEx@ 00000001800268a8     libvcruntime:winapi_downlevel.obj
 0002:00003a40       ?format_validation_lookup_table_spectre@__crt_stdio_output@@3V?$spectre_mitigated_lookup_table@Ustate_transition_pair@__crt_stdio_output@@$0IA@@1@B 0000000180026a40     libucrt:output.obj
 0002:00003e40       ??_C@_1O@CEDCILHN@?$AA?$CI?$AAn?$AAu?$AAl?$AAl?$AA?$CJ@ 0000000180026e40     libucrt:output.obj
 0002:00003e50       ??_C@_06OJHGLDPL@?$CInull?$CJ@ 0000000180026e50     libucrt:output.obj
 0002:00003e60       __acrt_exception_action_table 0000000180026e60     libucrt:exception_filter.obj
 0002:00003f20       __acrt_signal_action_table_count 0000000180026f20     libucrt:exception_filter.obj
 0002:00003f28       __acrt_signal_action_first_fpe_index 0000000180026f28     libucrt:exception_filter.obj
 0002:00003f30       __acrt_signal_action_fpe_count 0000000180026f30     libucrt:exception_filter.obj
 0002:00003f38       ??_C@_1BI@BGOHAHKC@?$AAm?$AAs?$AAc?$AAo?$AAr?$AAe?$AAe?$AA?4?$AAd?$AAl?$AAl@ 0000000180026f38     libucrt:exit.obj
 0002:00003f50       ??_C@_0P@MIGLKIOC@CorExitProcess@ 0000000180026f50     libucrt:exit.obj
 0002:00004100       ??_C@_1EA@JGEFHKEI@?$AAa?$AAp?$AAi?$AA?9?$AAm?$AAs?$AA?9?$AAw?$AAi?$AAn?$AA?9?$AAc?$AAo?$AAr?$AAe@ 0000000180027100     libucrt:winapi_thunks.obj
 0002:00004140       ??_C@_1DI@IJCEHOCB@?$AAa?$AAp?$AAi?$AA?9?$AAm?$AAs?$AA?9?$AAw?$AAi?$AAn?$AA?9?$AAc?$AAo?$AAr?$AAe@ 0000000180027140     libucrt:winapi_thunks.obj
 0002:00004180       ??_C@_1EI@MPIAOHOC@?$AAa?$AAp?$AAi?$AA?9?$AAm?$AAs?$AA?9?$AAw?$AAi?$AAn?$AA?9?$AAc?$AAo?$AAr?$AAe@ 0000000180027180     libucrt:winapi_thunks.obj
 0002:000041d0       ??_C@_1FK@FPHCKFIE@?$AAa?$AAp?$AAi?$AA?9?$AAm?$AAs?$AA?9?$AAw?$AAi?$AAn?$AA?9?$AAc?$AAo?$AAr?$AAe@ 00000001800271d0     libucrt:winapi_thunks.obj
 0002:00004230       ??_C@_1EM@DILCGIIO@?$AAa?$AAp?$AAi?$AA?9?$AAm?$AAs?$AA?9?$AAw?$AAi?$AAn?$AA?9?$AAc?$AAo?$AAr?$AAe@ 0000000180027230     libucrt:winapi_thunks.obj
 0002:00004280       ??_C@_1DM@LNCGDDPN@?$AAa?$AAp?$AAi?$AA?9?$AAm?$AAs?$AA?9?$AAw?$AAi?$AAn?$AA?9?$AAc?$AAo?$AAr?$AAe@ 0000000180027280     libucrt:winapi_thunks.obj
 0002:000042c0       ??_C@_1DO@FPAPJEMD@?$AAa?$AAp?$AAi?$AA?9?$AAm?$AAs?$AA?9?$AAw?$AAi?$AAn?$AA?9?$AAc?$AAo?$AAr?$AAe@ 00000001800272c0     libucrt:winapi_thunks.obj
 0002:00004300       ??_C@_1DK@NDHNAHIO@?$AAa?$AAp?$AAi?$AA?9?$AAm?$AAs?$AA?9?$AAw?$AAi?$AAn?$AA?9?$AAc?$AAo?$AAr?$AAe@ 0000000180027300     libucrt:winapi_thunks.obj
 0002:00004340       ??_C@_1DM@KGHDGBCM@?$AAa?$AAp?$AAi?$AA?9?$AAm?$AAs?$AA?9?$AAw?$AAi?$AAn?$AA?9?$AAc?$AAo?$AAr?$AAe@ 0000000180027340     libucrt:winapi_thunks.obj
 0002:00004380       ??_C@_1EO@IJIOEFOH@?$AAa?$AAp?$AAi?$AA?9?$AAm?$AAs?$AA?9?$AAw?$AAi?$AAn?$AA?9?$AAr?$AAt?$AAc?$AAo@ 0000000180027380     libucrt:winapi_thunks.obj
 0002:000043d0       ??_C@_1FG@HHGEKANL@?$AAa?$AAp?$AAi?$AA?9?$AAm?$AAs?$AA?9?$AAw?$AAi?$AAn?$AA?9?$AAs?$AAe?$AAc?$AAu@ 00000001800273d0     libucrt:winapi_thunks.obj
 0002:00004430       ??_C@_1EG@DBIOJECG@?$AAe?$AAx?$AAt?$AA?9?$AAm?$AAs?$AA?9?$AAw?$AAi?$AAn?$AA?9?$AAn?$AAt?$AAu?$AAs@ 0000000180027430     libucrt:winapi_thunks.obj
 0002:00004480       ??_C@_1EO@FIHMJCLF@?$AAe?$AAx?$AAt?$AA?9?$AAm?$AAs?$AA?9?$AAw?$AAi?$AAn?$AA?9?$AAn?$AAt?$AAu?$AAs@ 0000000180027480     libucrt:winapi_thunks.obj
 0002:000044d0       ??_C@_1BC@DNHGCMLG@?$AAa?$AAd?$AAv?$AAa?$AAp?$AAi?$AA3?$AA2@ 00000001800274d0     libucrt:winapi_thunks.obj
 0002:000044e8       ??_C@_1M@OAIMIKLP@?$AAn?$AAt?$AAd?$AAl?$AAl@ 00000001800274e8     libucrt:winapi_thunks.obj
 0002:00004500       ??_C@_1EG@DPGNFKGC@?$AAa?$AAp?$AAi?$AA?9?$AAm?$AAs?$AA?9?$AAw?$AAi?$AAn?$AA?9?$AAa?$AAp?$AAp?$AAm@ 0000000180027500     libucrt:winapi_thunks.obj
 0002:00004548       ??_C@_1O@BCCLBEOE@?$AAu?$AAs?$AAe?$AAr?$AA3?$AA2@ 0000000180027548     libucrt:winapi_thunks.obj
 0002:00004558       ??_C@_1BA@IAIFMGEF@?$AAe?$AAx?$AAt?$AA?9?$AAm?$AAs?$AA?9@ 0000000180027558     libucrt:winapi_thunks.obj
 0002:00004570       ??_C@_0BA@FHFNEAED@AreFileApisANSI@ 0000000180027570     libucrt:winapi_thunks.obj
 0002:000045b0       ??_C@_0O@KKBNKAPF@LCMapStringEx@ 00000001800275b0     libucrt:winapi_thunks.obj
 0002:000045c8       ??_C@_0BB@HBDEELFH@LocaleNameToLCID@ 00000001800275c8     libucrt:winapi_thunks.obj
 0002:000045e0       ??_C@_0CF@OJOFEIGO@AppPolicyGetProcessTerminationM@ 00000001800275e0     libucrt:winapi_thunks.obj
 0002:00004610       ??_C@_0BI@BKLFFAPO@SetThreadStackGuarantee@ 0000000180027610     libucrt:winapi_thunks.obj
 0002:000046b0       ??_C@_03OEIAHPBN@INF@      00000001800276b0     libucrt:cvt.obj
 0002:000046b4       ??_C@_03OJHLLCGB@inf@      00000001800276b4     libucrt:cvt.obj
 0002:000046b8       ??_C@_03LKNCIKJB@NAN@      00000001800276b8     libucrt:cvt.obj
 0002:000046bc       ??_C@_03LHCJEHON@nan@      00000001800276bc     libucrt:cvt.obj
 0002:000046c0       ??_C@_09OFJJIMPC@NAN?$CISNAN?$CJ@ 00000001800276c0     libucrt:cvt.obj
 0002:000046d0       ??_C@_09IPFBKMDL@nan?$CIsnan?$CJ@ 00000001800276d0     libucrt:cvt.obj
 0002:000046e0       ??_C@_08IKHNHAJ@NAN?$CIIND?$CJ@ 00000001800276e0     libucrt:cvt.obj
 0002:000046f0       ??_C@_08OFCDMILK@nan?$CIind?$CJ@ 00000001800276f0     libucrt:cvt.obj
 0002:000046fc       ??_C@_05KLBDPFGC@e?$CL000@ 00000001800276fc     libucrt:cvt.obj
 0002:00004710       __lc_time_c                0000000180027710     libucrt:nlsdata.obj
 0002:000049d0       ??_C@_03KOEHGMDN@Sun@      00000001800279d0     libucrt:nlsdata.obj
 0002:000049d4       ??_C@_03PDAGKDH@Mon@       00000001800279d4     libucrt:nlsdata.obj
 0002:000049d8       ??_C@_03NAGEINEP@Tue@      00000001800279d8     libucrt:nlsdata.obj
 0002:000049dc       ??_C@_03MHOMLAJA@Wed@      00000001800279dc     libucrt:nlsdata.obj
 0002:000049e0       ??_C@_03IOFIKPDN@Thu@      00000001800279e0     libucrt:nlsdata.obj
 0002:000049e4       ??_C@_03IDIOELNC@Fri@      00000001800279e4     libucrt:nlsdata.obj
 0002:000049e8       ??_C@_03FEFJNEK@Sat@       00000001800279e8     libucrt:nlsdata.obj
 0002:000049ec       ??_C@_06OOPIFAJ@Sunday@    00000001800279ec     libucrt:nlsdata.obj
 0002:000049f4       ??_C@_06JLEDEDGH@Monday@   00000001800279f4     libucrt:nlsdata.obj
 0002:00004a00       ??_C@_07BAAGCFCM@Tuesday@  0000000180027a00     libucrt:nlsdata.obj
 0002:00004a08       ??_C@_09DLIGFAKA@Wednesday@ 0000000180027a08     libucrt:nlsdata.obj
 0002:00004a18       ??_C@_08HACCIKIA@Thursday@ 0000000180027a18     libucrt:nlsdata.obj
 0002:00004a24       ??_C@_06JECMNKMI@Friday@   0000000180027a24     libucrt:nlsdata.obj
 0002:00004a30       ??_C@_08INBOOONO@Saturday@ 0000000180027a30     libucrt:nlsdata.obj
 0002:00004a3c       ??_C@_03JIHJHPIE@Jan@      0000000180027a3c     libucrt:nlsdata.obj
 0002:00004a40       ??_C@_03HJBDCHOM@Feb@      0000000180027a40     libucrt:nlsdata.obj
 0002:00004a44       ??_C@_03ODNJBKGA@Mar@      0000000180027a44     libucrt:nlsdata.obj
 0002:00004a48       ??_C@_03LEOLGMJP@Apr@      0000000180027a48     libucrt:nlsdata.obj
 0002:00004a4c       ??_C@_03CNMDKL@May@        0000000180027a4c     libucrt:nlsdata.obj
 0002:00004a50       ??_C@_03IDFGHECI@Jun@      0000000180027a50     libucrt:nlsdata.obj
 0002:00004a54       ??_C@_03LBGABGKK@Jul@      0000000180027a54     libucrt:nlsdata.obj
 0002:00004a58       ??_C@_03IFJFEIGA@Aug@      0000000180027a58     libucrt:nlsdata.obj
 0002:00004a5c       ??_C@_03GGCAPAJC@Sep@      0000000180027a5c     libucrt:nlsdata.obj
 0002:00004a60       ??_C@_03BMAOKBAD@Oct@      0000000180027a60     libucrt:nlsdata.obj
 0002:00004a64       ??_C@_03JPJOFNIA@Nov@      0000000180027a64     libucrt:nlsdata.obj
 0002:00004a68       ??_C@_03MKABNOCG@Dec@      0000000180027a68     libucrt:nlsdata.obj
 0002:00004a70       ??_C@_07CGJPFGJA@January@  0000000180027a70     libucrt:nlsdata.obj
 0002:00004a78       ??_C@_08GNJGEPFN@February@ 0000000180027a78     libucrt:nlsdata.obj
 0002:00004a84       ??_C@_05HPCKOFNC@March@    0000000180027a84     libucrt:nlsdata.obj
 0002:00004a8c       ??_C@_05DMJDNLEJ@April@    0000000180027a8c     libucrt:nlsdata.obj
 0002:00004a94       ??_C@_04CNLMGBGM@June@     0000000180027a94     libucrt:nlsdata.obj
 0002:00004a9c       ??_C@_04MIEPOIFP@July@     0000000180027a9c     libucrt:nlsdata.obj
 0002:00004aa4       ??_C@_06LBBHFDDG@August@   0000000180027aa4     libucrt:nlsdata.obj
 0002:00004ab0       ??_C@_09BHHEALKD@September@ 0000000180027ab0     libucrt:nlsdata.obj
 0002:00004ac0       ??_C@_07JJNFCEND@October@  0000000180027ac0     libucrt:nlsdata.obj
 0002:00004ac8       ??_C@_08HCHEGEOA@November@ 0000000180027ac8     libucrt:nlsdata.obj
 0002:00004ad8       ??_C@_08EDHMEBNP@December@ 0000000180027ad8     libucrt:nlsdata.obj
 0002:00004ae4       ??_C@_02DEDBPAFC@AM@       0000000180027ae4     libucrt:nlsdata.obj
 0002:00004ae8       ??_C@_02CJNFDJBF@PM@       0000000180027ae8     libucrt:nlsdata.obj
 0002:00004af0       ??_C@_08BPBNCDIB@MM?1dd?1yy@ 0000000180027af0     libucrt:nlsdata.obj
 0002:00004b00       ??_C@_0BE@CKGJFCPC@dddd?0?5MMMM?5dd?0?5yyyy@ 0000000180027b00     libucrt:nlsdata.obj
 0002:00004b18       ??_C@_08JCCMCCIL@HH?3mm?3ss@ 0000000180027b18     libucrt:nlsdata.obj
 0002:00004b28       ??_C@_17MBGCMIPB@?$AAS?$AAu?$AAn@ 0000000180027b28     libucrt:nlsdata.obj
 0002:00004b30       ??_C@_17KBOMKBF@?$AAM?$AAo?$AAn@ 0000000180027b30     libucrt:nlsdata.obj
 0002:00004b38       ??_C@_17BMKGEGOJ@?$AAT?$AAu?$AAe@ 0000000180027b38     libucrt:nlsdata.obj
 0002:00004b40       ??_C@_17CJEDCEPE@?$AAW?$AAe?$AAd@ 0000000180027b40     libucrt:nlsdata.obj
 0002:00004b48       ??_C@_17PDPHAADD@?$AAT?$AAh?$AAu@ 0000000180027b48     libucrt:nlsdata.obj
 0002:00004b50       ??_C@_17HFOLPPLP@?$AAF?$AAr?$AAi@ 0000000180027b50     libucrt:nlsdata.obj
 0002:00004b58       ??_C@_17GGIBDPIH@?$AAS?$AAa?$AAt@ 0000000180027b58     libucrt:nlsdata.obj
 0002:00004b60       ??_C@_1O@IHNHDHPB@?$AAS?$AAu?$AAn?$AAd?$AAa?$AAy@ 0000000180027b60     libucrt:nlsdata.obj
 0002:00004b70       ??_C@_1O@MMNBFLIA@?$AAM?$AAo?$AAn?$AAd?$AAa?$AAy@ 0000000180027b70     libucrt:nlsdata.obj
 0002:00004b80       ??_C@_1BA@ENFBFFEK@?$AAT?$AAu?$AAe?$AAs?$AAd?$AAa?$AAy@ 0000000180027b80     libucrt:nlsdata.obj
 0002:00004b90       ??_C@_1BE@EBOGMDOH@?$AAW?$AAe?$AAd?$AAn?$AAe?$AAs?$AAd?$AAa?$AAy@ 0000000180027b90     libucrt:nlsdata.obj
 0002:00004ba8       ??_C@_1BC@HHMNLIHE@?$AAT?$AAh?$AAu?$AAr?$AAs?$AAd?$AAa?$AAy@ 0000000180027ba8     libucrt:nlsdata.obj
 0002:00004bc0       ??_C@_1O@PDICJHAG@?$AAF?$AAr?$AAi?$AAd?$AAa?$AAy@ 0000000180027bc0     libucrt:nlsdata.obj
 0002:00004bd0       ??_C@_1BC@ENMNNPAJ@?$AAS?$AAa?$AAt?$AAu?$AAr?$AAd?$AAa?$AAy@ 0000000180027bd0     libucrt:nlsdata.obj
 0002:00004be8       ??_C@_17DKNBKCHM@?$AAJ?$AAa?$AAn@ 0000000180027be8     libucrt:nlsdata.obj
 0002:00004bf0       ??_C@_17LMDJEKJN@?$AAF?$AAe?$AAb@ 0000000180027bf0     libucrt:nlsdata.obj
 0002:00004bf8       ??_C@_17CKNLEDEC@?$AAM?$AAa?$AAr@ 0000000180027bf8     libucrt:nlsdata.obj
 0002:00004c00       ??_C@_17LFPOIHDD@?$AAA?$AAp?$AAr@ 0000000180027c00     libucrt:nlsdata.obj
 0002:00004c08       ??_C@_17PNNKMEED@?$AAM?$AAa?$AAy@ 0000000180027c08     libucrt:nlsdata.obj
 0002:00004c10       ??_C@_17KCJGOCPB@?$AAJ?$AAu?$AAn@ 0000000180027c10     libucrt:nlsdata.obj
 0002:00004c18       ??_C@_17IJPCKHK@?$AAJ?$AAu?$AAl@ 0000000180027c18     libucrt:nlsdata.obj
 0002:00004c20       ??_C@_17ICPELBCN@?$AAA?$AAu?$AAg@ 0000000180027c20     libucrt:nlsdata.obj
 0002:00004c28       ??_C@_17HCHCOKMG@?$AAS?$AAe?$AAp@ 0000000180027c28     libucrt:nlsdata.obj
 0002:00004c30       ??_C@_17FNLKOI@?$AAO?$AAc?$AAt@ 0000000180027c30     libucrt:nlsdata.obj
 0002:00004c38       ??_C@_17BBDMLCIG@?$AAN?$AAo?$AAv@ 0000000180027c38     libucrt:nlsdata.obj
 0002:00004c40       ??_C@_17EGKACKIF@?$AAD?$AAe?$AAc@ 0000000180027c40     libucrt:nlsdata.obj
 0002:00004c48       ??_C@_1BA@EFMEIEBA@?$AAJ?$AAa?$AAn?$AAu?$AAa?$AAr?$AAy@ 0000000180027c48     libucrt:nlsdata.obj
 0002:00004c58       ??_C@_1BC@JGDDFFAM@?$AAF?$AAe?$AAb?$AAr?$AAu?$AAa?$AAr?$AAy@ 0000000180027c58     libucrt:nlsdata.obj
 0002:00004c70       ??_C@_1M@IKEENEDF@?$AAM?$AAa?$AAr?$AAc?$AAh@ 0000000180027c70     libucrt:nlsdata.obj
 0002:00004c80       ??_C@_1M@GJNLMHFD@?$AAA?$AAp?$AAr?$AAi?$AAl@ 0000000180027c80     libucrt:nlsdata.obj
 0002:00004c90       ??_C@_19EPFLPGAP@?$AAJ?$AAu?$AAn?$AAe@ 0000000180027c90     libucrt:nlsdata.obj
 0002:00004ca0       ??_C@_19BIFMLPCD@?$AAJ?$AAu?$AAl?$AAy@ 0000000180027ca0     libucrt:nlsdata.obj
 0002:00004cb0       ??_C@_1O@PAHLKOAC@?$AAA?$AAu?$AAg?$AAu?$AAs?$AAt@ 0000000180027cb0     libucrt:nlsdata.obj
 0002:00004cc0       ??_C@_1BE@DKAAMBJL@?$AAS?$AAe?$AAp?$AAt?$AAe?$AAm?$AAb?$AAe?$AAr@ 0000000180027cc0     libucrt:nlsdata.obj
 0002:00004cd8       ??_C@_1BA@EPANDLNG@?$AAO?$AAc?$AAt?$AAo?$AAb?$AAe?$AAr@ 0000000180027cd8     libucrt:nlsdata.obj
 0002:00004ce8       ??_C@_1BC@BGLIFPF@?$AAN?$AAo?$AAv?$AAe?$AAm?$AAb?$AAe?$AAr@ 0000000180027ce8     libucrt:nlsdata.obj
 0002:00004d00       ??_C@_1BC@FEMKIFH@?$AAD?$AAe?$AAc?$AAe?$AAm?$AAb?$AAe?$AAr@ 0000000180027d00     libucrt:nlsdata.obj
 0002:00004d14       ??_C@_15ODEHAHHF@?$AAA?$AAM@ 0000000180027d14     libucrt:nlsdata.obj
 0002:00004d1c       ??_C@_15CLMNNGEL@?$AAP?$AAM@ 0000000180027d1c     libucrt:nlsdata.obj
 0002:00004d28       ??_C@_1BC@IEBCMHCM@?$AAM?$AAM?$AA?1?$AAd?$AAd?$AA?1?$AAy?$AAy@ 0000000180027d28     libucrt:nlsdata.obj
 0002:00004d40       ??_C@_1CI@KNAKOEBC@?$AAd?$AAd?$AAd?$AAd?$AA?0?$AA?5?$AAM?$AAM?$AAM?$AAM?$AA?5?$AAd?$AAd?$AA?0?$AA?5@ 0000000180027d40     libucrt:nlsdata.obj
 0002:00004d68       ??_C@_1BC@GDGBMEMK@?$AAH?$AAH?$AA?3?$AAm?$AAm?$AA?3?$AAs?$AAs@ 0000000180027d68     libucrt:nlsdata.obj
 0002:00004d80       ??_C@_1M@BMHNFIME@?$AAe?$AAn?$AA?9?$AAU?$AAS@ 0000000180027d80     libucrt:nlsdata.obj
 0002:00004db0       ??_C@_1M@HPNHIDJI@?$AAj?$AAa?$AA?9?$AAJ?$AAP@ 0000000180027db0     libucrt:mbctype.obj
 0002:00004dc0       ??_C@_1M@BIBDDEMK@?$AAz?$AAh?$AA?9?$AAC?$AAN@ 0000000180027dc0     libucrt:mbctype.obj
 0002:00004dd0       ??_C@_1M@JLOOOEGK@?$AAk?$AAo?$AA?9?$AAK?$AAR@ 0000000180027dd0     libucrt:mbctype.obj
 0002:00004de0       ??_C@_1M@CLNBBOPM@?$AAz?$AAh?$AA?9?$AAT?$AAW@ 0000000180027de0     libucrt:mbctype.obj
 0002:00004df0       __newctype                 0000000180027df0     libucrt:ctype.obj
 0002:000050f0       __newclmap                 00000001800280f0     libucrt:ctype.obj
 0002:00005270       __newcumap                 0000000180028270     libucrt:ctype.obj
 0002:000053f0       _wctype                    00000001800283f0     libucrt:ctype.obj
 0002:00006440       ??_C@_15EMKDOKLE@?$AAa?$AAr@ 0000000180029440     libucrt:lcidtoname_downlevel.obj
 0002:00006448       ??_C@_15KNPADPLH@?$AAb?$AAg@ 0000000180029448     libucrt:lcidtoname_downlevel.obj
 0002:00006450       ??_C@_15EDMHLDMO@?$AAc?$AAa@ 0000000180029450     libucrt:lcidtoname_downlevel.obj
 0002:00006458       ??_C@_1O@BPEAJADD@?$AAz?$AAh?$AA?9?$AAC?$AAH?$AAS@ 0000000180029458     libucrt:lcidtoname_downlevel.obj
 0002:00006468       ??_C@_15LJNHCMNK@?$AAc?$AAs@ 0000000180029468     libucrt:lcidtoname_downlevel.obj
 0002:00006470       ??_C@_15FOMCIDHG@?$AAd?$AAa@ 0000000180029470     libucrt:lcidtoname_downlevel.obj
 0002:00006478       ??_C@_15NBKABECB@?$AAd?$AAe@ 0000000180029478     libucrt:lcidtoname_downlevel.obj
 0002:00006480       ??_C@_15GHPEIIAO@?$AAe?$AAl@ 0000000180029480     libucrt:lcidtoname_downlevel.obj
 0002:00006488       ??_C@_15MNPNEAIF@?$AAe?$AAn@ 0000000180029488     libucrt:lcidtoname_downlevel.obj
 0002:00006490       ??_C@_15GPIOMPMH@?$AAe?$AAs@ 0000000180029490     libucrt:lcidtoname_downlevel.obj
 0002:00006498       ??_C@_15NGLOAKJC@?$AAf?$AAi@ 0000000180029498     libucrt:lcidtoname_downlevel.obj
 0002:000064a0       ??_C@_15FBKGNKAM@?$AAf?$AAr@ 00000001800294a0     libucrt:lcidtoname_downlevel.obj
 0002:000064a8       ??_C@_15KGGCNEFK@?$AAh?$AAe@ 00000001800294a8     libucrt:lcidtoname_downlevel.obj
 0002:000064b0       ??_C@_15PGHLIDMF@?$AAh?$AAu@ 00000001800294b0     libucrt:lcidtoname_downlevel.obj
 0002:000064b8       ??_C@_15BIEMAPLM@?$AAi?$AAs@ 00000001800294b8     libucrt:lcidtoname_downlevel.obj
 0002:000064c0       ??_C@_15IFJLDHAF@?$AAi?$AAt@ 00000001800294c0     libucrt:lcidtoname_downlevel.obj
 0002:000064c8       ??_C@_15GEMIOCAG@?$AAj?$AAa@ 00000001800294c8     libucrt:lcidtoname_downlevel.obj
 0002:000064d0       ??_C@_15EPELEGJA@?$AAk?$AAo@ 00000001800294d0     libucrt:lcidtoname_downlevel.obj
 0002:000064d8       ??_C@_15NDDHIMN@?$AAn?$AAl@ 00000001800294d8     libucrt:lcidtoname_downlevel.obj
 0002:000064e0       ??_C@_15BPIGNHCD@?$AAn?$AAo@ 00000001800294e0     libucrt:lcidtoname_downlevel.obj
 0002:000064e8       ??_C@_15DEOPBLCG@?$AAp?$AAl@ 00000001800294e8     libucrt:lcidtoname_downlevel.obj
 0002:000064f0       ??_C@_15KBECGEFG@?$AAp?$AAt@ 00000001800294f0     libucrt:lcidtoname_downlevel.obj
 0002:000064f8       ??_C@_15GLJCBFMD@?$AAr?$AAo@ 00000001800294f8     libucrt:lcidtoname_downlevel.obj
 0002:00006500       ??_C@_15FEDGKCDI@?$AAr?$AAu@ 0000000180029500     libucrt:lcidtoname_downlevel.obj
 0002:00006508       ??_C@_15GLKMLLHM@?$AAh?$AAr@ 0000000180029508     libucrt:lcidtoname_downlevel.obj
 0002:00006510       ??_C@_15CPKMFBDB@?$AAs?$AAk@ 0000000180029510     libucrt:lcidtoname_downlevel.obj
 0002:00006518       ??_C@_15BAAIOGMK@?$AAs?$AAq@ 0000000180029518     libucrt:lcidtoname_downlevel.obj
 0002:00006520       ??_C@_15INNPNOHD@?$AAs?$AAv@ 0000000180029520     libucrt:lcidtoname_downlevel.obj
 0002:00006528       ??_C@_15CABMMOGH@?$AAt?$AAh@ 0000000180029528     libucrt:lcidtoname_downlevel.obj
 0002:00006530       ??_C@_15BPLIHJJM@?$AAt?$AAr@ 0000000180029530     libucrt:lcidtoname_downlevel.obj
 0002:00006538       ??_C@_15NEOEKKDJ@?$AAu?$AAr@ 0000000180029538     libucrt:lcidtoname_downlevel.obj
 0002:00006540       ??_C@_15NFICGAJK@?$AAi?$AAd@ 0000000180029540     libucrt:lcidtoname_downlevel.obj
 0002:00006548       ??_C@_15PJPFLCCM@?$AAu?$AAk@ 0000000180029548     libucrt:lcidtoname_downlevel.obj
 0002:00006550       ??_C@_15HPJPHDM@?$AAb?$AAe@ 0000000180029550     libucrt:lcidtoname_downlevel.obj
 0002:00006558       ??_C@_15LCHLGJII@?$AAs?$AAl@ 0000000180029558     libucrt:lcidtoname_downlevel.obj
 0002:00006560       ??_C@_15PCFJPHHO@?$AAe?$AAt@ 0000000180029560     libucrt:lcidtoname_downlevel.obj
 0002:00006568       ??_C@_15HPFPGODN@?$AAl?$AAv@ 0000000180029568     libucrt:lcidtoname_downlevel.obj
 0002:00006570       ??_C@_15NFFGKGLG@?$AAl?$AAt@ 0000000180029570     libucrt:lcidtoname_downlevel.obj
 0002:00006578       ??_C@_15BDAKCCHN@?$AAf?$AAa@ 0000000180029578     libucrt:lcidtoname_downlevel.obj
 0002:00006580       ??_C@_15NFGIAIAJ@?$AAv?$AAi@ 0000000180029580     libucrt:lcidtoname_downlevel.obj
 0002:00006588       ??_C@_15LMKNDMHN@?$AAh?$AAy@ 0000000180029588     libucrt:lcidtoname_downlevel.obj
 0002:00006590       ??_C@_15IJBHMCFL@?$AAa?$AAz@ 0000000180029590     libucrt:lcidtoname_downlevel.obj
 0002:00006598       ??_C@_15EKOFJABL@?$AAe?$AAu@ 0000000180029598     libucrt:lcidtoname_downlevel.obj
 0002:000065a0       ??_C@_15BGHADCNK@?$AAm?$AAk@ 00000001800295a0     libucrt:lcidtoname_downlevel.obj
 0002:000065a8       ??_C@_15JDNICKHM@?$AAa?$AAf@ 00000001800295a8     libucrt:lcidtoname_downlevel.obj
 0002:000065b0       ??_C@_15KPJEDBKD@?$AAk?$AAa@ 00000001800295b0     libucrt:lcidtoname_downlevel.obj
 0002:000065b8       ??_C@_15PDNFFFEO@?$AAf?$AAo@ 00000001800295b8     libucrt:lcidtoname_downlevel.obj
 0002:000065c0       ??_C@_15OMLEGLOC@?$AAh?$AAi@ 00000001800295c0     libucrt:lcidtoname_downlevel.obj
 0002:000065c8       ??_C@_15IDNNENKK@?$AAm?$AAs@ 00000001800295c8     libucrt:lcidtoname_downlevel.obj
 0002:000065d0       ??_C@_15MACJNBMH@?$AAk?$AAk@ 00000001800295d0     libucrt:lcidtoname_downlevel.obj
 0002:000065d8       ??_C@_15DKDJEOND@?$AAk?$AAy@ 00000001800295d8     libucrt:lcidtoname_downlevel.obj
 0002:000065e0       ??_C@_15DFGDLJBG@?$AAs?$AAw@ 00000001800295e0     libucrt:lcidtoname_downlevel.obj
 0002:000065e8       ??_C@_15BBFAICNG@?$AAu?$AAz@ 00000001800295e8     libucrt:lcidtoname_downlevel.obj
 0002:000065f0       ??_C@_15DKNDCGEA@?$AAt?$AAt@ 00000001800295f0     libucrt:lcidtoname_downlevel.obj
 0002:000065f8       ??_C@_15MGIFMDPL@?$AAp?$AAa@ 00000001800295f8     libucrt:lcidtoname_downlevel.obj
 0002:00006600       ??_C@_15HCNDBBA@?$AAg?$AAu@ 0000000180029600     libucrt:lcidtoname_downlevel.obj
 0002:00006608       ??_C@_15FNBEIBON@?$AAt?$AAa@ 0000000180029608     libucrt:lcidtoname_downlevel.obj
 0002:00006610       ??_C@_15NCHGBGLK@?$AAt?$AAe@ 0000000180029610     libucrt:lcidtoname_downlevel.obj
 0002:00006618       ??_C@_15PHPHCBPF@?$AAk?$AAn@ 0000000180029618     libucrt:lcidtoname_downlevel.obj
 0002:00006620       ??_C@_15DLGBCKMP@?$AAm?$AAr@ 0000000180029620     libucrt:lcidtoname_downlevel.obj
 0002:00006628       ??_C@_15EABBLBFF@?$AAs?$AAa@ 0000000180029628     libucrt:lcidtoname_downlevel.obj
 0002:00006630       ??_C@_15CBKOMCOI@?$AAm?$AAn@ 0000000180029630     libucrt:lcidtoname_downlevel.obj
 0002:00006638       ??_C@_15CKDMCJAF@?$AAg?$AAl@ 0000000180029638     libucrt:lcidtoname_downlevel.obj
 0002:00006640       ??_C@_17CNJFBPG@?$AAk?$AAo?$AAk@ 0000000180029640     libucrt:lcidtoname_downlevel.obj
 0002:00006648       ??_C@_17FFBJICPL@?$AAs?$AAy?$AAr@ 0000000180029648     libucrt:lcidtoname_downlevel.obj
 0002:00006650       ??_C@_17KPNDCPAF@?$AAd?$AAi?$AAv@ 0000000180029650     libucrt:lcidtoname_downlevel.obj
 0002:00006658       ??_C@_1M@OKAHONE@?$AAa?$AAr?$AA?9?$AAS?$AAA@ 0000000180029658     libucrt:lcidtoname_downlevel.obj
 0002:00006668       ??_C@_1M@FFFIGIGK@?$AAb?$AAg?$AA?9?$AAB?$AAG@ 0000000180029668     libucrt:lcidtoname_downlevel.obj
 0002:00006678       ??_C@_1M@BJNKEDC@?$AAc?$AAa?$AA?9?$AAE?$AAS@ 0000000180029678     libucrt:lcidtoname_downlevel.obj
 0002:00006688       ??_C@_1M@IJJHFJHA@?$AAc?$AAs?$AA?9?$AAC?$AAZ@ 0000000180029688     libucrt:lcidtoname_downlevel.obj
 0002:00006698       ??_C@_1M@CLPEOBGI@?$AAd?$AAa?$AA?9?$AAD?$AAK@ 0000000180029698     libucrt:lcidtoname_downlevel.obj
 0002:000066a8       ??_C@_1M@MCMADGCB@?$AAd?$AAe?$AA?9?$AAD?$AAE@ 00000001800296a8     libucrt:lcidtoname_downlevel.obj
 0002:000066b8       ??_C@_1M@OOCKEMAM@?$AAe?$AAl?$AA?9?$AAG?$AAR@ 00000001800296b8     libucrt:lcidtoname_downlevel.obj
 0002:000066c8       ??_C@_1M@DDNJFGID@?$AAf?$AAi?$AA?9?$AAF?$AAI@ 00000001800296c8     libucrt:lcidtoname_downlevel.obj
 0002:000066d8       ??_C@_1M@GLIPPMAC@?$AAf?$AAr?$AA?9?$AAF?$AAR@ 00000001800296d8     libucrt:lcidtoname_downlevel.obj
 0002:000066e8       ??_C@_1M@GFMCHPE@?$AAh?$AAe?$AA?9?$AAI?$AAL@ 00000001800296e8     libucrt:lcidtoname_downlevel.obj
 0002:000066f8       ??_C@_1M@MHLPGNKM@?$AAh?$AAu?$AA?9?$AAH?$AAU@ 00000001800296f8     libucrt:lcidtoname_downlevel.obj
 0002:00006708       ??_C@_1M@LPDDNNPN@?$AAi?$AAs?$AA?9?$AAI?$AAS@ 0000000180029708     libucrt:lcidtoname_downlevel.obj
 0002:00006718       ??_C@_1M@MADIPODN@?$AAi?$AAt?$AA?9?$AAI?$AAT@ 0000000180029718     libucrt:lcidtoname_downlevel.obj
 0002:00006728       ??_C@_1M@IHBJJGG@?$AAn?$AAl?$AA?9?$AAN?$AAL@ 0000000180029728     libucrt:lcidtoname_downlevel.obj
 0002:00006738       ??_C@_1M@EANAGDL@?$AAn?$AAb?$AA?9?$AAN?$AAO@ 0000000180029738     libucrt:lcidtoname_downlevel.obj
 0002:00006748       ??_C@_1M@NEIEMEGP@?$AAp?$AAl?$AA?9?$AAP?$AAL@ 0000000180029748     libucrt:lcidtoname_downlevel.obj
 0002:00006758       ??_C@_1M@BOCFIGEP@?$AAp?$AAt?$AA?9?$AAB?$AAR@ 0000000180029758     libucrt:lcidtoname_downlevel.obj
 0002:00006768       ??_C@_1M@IMPFOPBG@?$AAr?$AAo?$AA?9?$AAR?$AAO@ 0000000180029768     libucrt:lcidtoname_downlevel.obj
 0002:00006778       ??_C@_1M@IDNNEJMM@?$AAr?$AAu?$AA?9?$AAR?$AAU@ 0000000180029778     libucrt:lcidtoname_downlevel.obj
 0002:00006788       ??_C@_1M@LILEEOGM@?$AAh?$AAr?$AA?9?$AAH?$AAR@ 0000000180029788     libucrt:lcidtoname_downlevel.obj
 0002:00006798       ??_C@_1M@FKIFEHPB@?$AAs?$AAk?$AA?9?$AAS?$AAK@ 0000000180029798     libucrt:lcidtoname_downlevel.obj
 0002:000067a8       ??_C@_1M@LJMAMNPJ@?$AAs?$AAq?$AA?9?$AAA?$AAL@ 00000001800297a8     libucrt:lcidtoname_downlevel.obj
 0002:000067b8       ??_C@_1M@GIAKDKJK@?$AAs?$AAv?$AA?9?$AAS?$AAE@ 00000001800297b8     libucrt:lcidtoname_downlevel.obj
 0002:000067c8       ??_C@_1M@MKJKIKCL@?$AAt?$AAh?$AA?9?$AAT?$AAH@ 00000001800297c8     libucrt:lcidtoname_downlevel.obj
 0002:000067d8       ??_C@_1M@MFLCCMPB@?$AAt?$AAr?$AA?9?$AAT?$AAR@ 00000001800297d8     libucrt:lcidtoname_downlevel.obj
 0002:000067e8       ??_C@_1M@OIJHDKJN@?$AAu?$AAr?$AA?9?$AAP?$AAK@ 00000001800297e8     libucrt:lcidtoname_downlevel.obj
 0002:000067f8       ??_C@_1M@LHIPCIEK@?$AAi?$AAd?$AA?9?$AAI?$AAD@ 00000001800297f8     libucrt:lcidtoname_downlevel.obj
 0002:00006808       ??_C@_1M@MFMOBGI@?$AAu?$AAk?$AA?9?$AAU?$AAA@ 0000000180029808     libucrt:lcidtoname_downlevel.obj
 0002:00006818       ??_C@_1M@OBGLJIPL@?$AAb?$AAe?$AA?9?$AAB?$AAY@ 0000000180029818     libucrt:lcidtoname_downlevel.obj
 0002:00006828       ??_C@_1M@BCFAJEAD@?$AAs?$AAl?$AA?9?$AAS?$AAI@ 0000000180029828     libucrt:lcidtoname_downlevel.obj
 0002:00006838       ??_C@_1M@FKFFEDDN@?$AAe?$AAt?$AA?9?$AAE?$AAE@ 0000000180029838     libucrt:lcidtoname_downlevel.obj
 0002:00006848       ??_C@_1M@KGKKAACI@?$AAl?$AAv?$AA?9?$AAL?$AAV@ 0000000180029848     libucrt:lcidtoname_downlevel.obj
 0002:00006858       ??_C@_1M@IFGBIJO@?$AAl?$AAt?$AA?9?$AAL?$AAT@ 0000000180029858     libucrt:lcidtoname_downlevel.obj
 0002:00006868       ??_C@_1M@FGEAHEDM@?$AAf?$AAa?$AA?9?$AAI?$AAR@ 0000000180029868     libucrt:lcidtoname_downlevel.obj
 0002:00006878       ??_C@_1M@KBMAIBFN@?$AAv?$AAi?$AA?9?$AAV?$AAN@ 0000000180029878     libucrt:lcidtoname_downlevel.obj
 0002:00006888       ??_C@_1M@GPCBKDJK@?$AAh?$AAy?$AA?9?$AAA?$AAM@ 0000000180029888     libucrt:lcidtoname_downlevel.obj
 0002:00006898       ??_C@_1BG@BECMDDJB@?$AAa?$AAz?$AA?9?$AAA?$AAZ?$AA?9?$AAL?$AAa?$AAt?$AAn@ 0000000180029898     libucrt:lcidtoname_downlevel.obj
 0002:000068b0       ??_C@_1M@MAOFCAEA@?$AAe?$AAu?$AA?9?$AAE?$AAS@ 00000001800298b0     libucrt:lcidtoname_downlevel.obj
 0002:000068c0       ??_C@_1M@IGHABKPI@?$AAm?$AAk?$AA?9?$AAM?$AAK@ 00000001800298c0     libucrt:lcidtoname_downlevel.obj
 0002:000068d0       ??_C@_1M@IAIGNEJG@?$AAt?$AAn?$AA?9?$AAZ?$AAA@ 00000001800298d0     libucrt:lcidtoname_downlevel.obj
 0002:000068e0       ??_C@_1M@IIJCOJFA@?$AAx?$AAh?$AA?9?$AAZ?$AAA@ 00000001800298e0     libucrt:lcidtoname_downlevel.obj
 0002:000068f0       ??_C@_1M@LGPJHNJH@?$AAz?$AAu?$AA?9?$AAZ?$AAA@ 00000001800298f0     libucrt:lcidtoname_downlevel.obj
 0002:00006900       ??_C@_1M@HOKAOIO@?$AAa?$AAf?$AA?9?$AAZ?$AAA@ 0000000180029900     libucrt:lcidtoname_downlevel.obj
 0002:00006910       ??_C@_1M@DPCLHLIE@?$AAk?$AAa?$AA?9?$AAG?$AAE@ 0000000180029910     libucrt:lcidtoname_downlevel.obj
 0002:00006920       ??_C@_1M@BLKMHJBI@?$AAf?$AAo?$AA?9?$AAF?$AAO@ 0000000180029920     libucrt:lcidtoname_downlevel.obj
 0002:00006930       ??_C@_1M@LGGJAPPB@?$AAh?$AAi?$AA?9?$AAI?$AAN@ 0000000180029930     libucrt:lcidtoname_downlevel.obj
 0002:00006940       ??_C@_1M@FIKPIHFE@?$AAm?$AAt?$AA?9?$AAM?$AAT@ 0000000180029940     libucrt:lcidtoname_downlevel.obj
 0002:00006950       ??_C@_1M@HEGGPBFA@?$AAs?$AAe?$AA?9?$AAN?$AAO@ 0000000180029950     libucrt:lcidtoname_downlevel.obj
 0002:00006960       ??_C@_1M@EIBJEEPA@?$AAm?$AAs?$AA?9?$AAM?$AAY@ 0000000180029960     libucrt:lcidtoname_downlevel.obj
 0002:00006970       ??_C@_1M@FHLBGMPP@?$AAk?$AAk?$AA?9?$AAK?$AAZ@ 0000000180029970     libucrt:lcidtoname_downlevel.obj
 0002:00006980       ??_C@_1M@NGJJLCGI@?$AAk?$AAy?$AA?9?$AAK?$AAG@ 0000000180029980     libucrt:lcidtoname_downlevel.obj
 0002:00006990       ??_C@_1M@GIENNBFC@?$AAs?$AAw?$AA?9?$AAK?$AAE@ 0000000180029990     libucrt:lcidtoname_downlevel.obj
 0002:000069a0       ??_C@_1BG@NDGMJIMJ@?$AAu?$AAz?$AA?9?$AAU?$AAZ?$AA?9?$AAL?$AAa?$AAt?$AAn@ 00000001800299a0     libucrt:lcidtoname_downlevel.obj
 0002:000069b8       ??_C@_1M@IDCCIHBC@?$AAt?$AAt?$AA?9?$AAR?$AAU@ 00000001800299b8     libucrt:lcidtoname_downlevel.obj
 0002:000069c8       ??_C@_1M@LOICPMOJ@?$AAb?$AAn?$AA?9?$AAI?$AAN@ 00000001800299c8     libucrt:lcidtoname_downlevel.obj
 0002:000069d8       ??_C@_1M@KPKKNEAH@?$AAp?$AAa?$AA?9?$AAI?$AAN@ 00000001800299d8     libucrt:lcidtoname_downlevel.obj
 0002:000069e8       ??_C@_1M@PJGPPBOG@?$AAg?$AAu?$AA?9?$AAI?$AAN@ 00000001800299e8     libucrt:lcidtoname_downlevel.obj
 0002:000069f8       ??_C@_1M@KMKMOPHI@?$AAt?$AAa?$AA?9?$AAI?$AAN@ 00000001800299f8     libucrt:lcidtoname_downlevel.obj
 0002:00006a08       ??_C@_1M@KFEHEPAC@?$AAt?$AAe?$AA?9?$AAI?$AAN@ 0000000180029a08     libucrt:lcidtoname_downlevel.obj
 0002:00006a18       ??_C@_1M@CDCLMGHI@?$AAk?$AAn?$AA?9?$AAI?$AAN@ 0000000180029a18     libucrt:lcidtoname_downlevel.obj
 0002:00006a28       ??_C@_1M@MIODLDKF@?$AAm?$AAl?$AA?9?$AAI?$AAN@ 0000000180029a28     libucrt:lcidtoname_downlevel.obj
 0002:00006a38       ??_C@_1M@PBIEACPO@?$AAm?$AAr?$AA?9?$AAI?$AAN@ 0000000180029a38     libucrt:lcidtoname_downlevel.obj
 0002:00006a48       ??_C@_1M@NIDEAGPH@?$AAs?$AAa?$AA?9?$AAI?$AAN@ 0000000180029a48     libucrt:lcidtoname_downlevel.obj
 0002:00006a58       ??_C@_1M@FHIHCBIO@?$AAm?$AAn?$AA?9?$AAM?$AAN@ 0000000180029a58     libucrt:lcidtoname_downlevel.obj
 0002:00006a68       ??_C@_1M@JAIJPENP@?$AAc?$AAy?$AA?9?$AAG?$AAB@ 0000000180029a68     libucrt:lcidtoname_downlevel.obj
 0002:00006a78       ??_C@_1M@PHGFBEPN@?$AAg?$AAl?$AA?9?$AAE?$AAS@ 0000000180029a78     libucrt:lcidtoname_downlevel.obj
 0002:00006a88       ??_C@_1O@KPIPDNCP@?$AAk?$AAo?$AAk?$AA?9?$AAI?$AAN@ 0000000180029a88     libucrt:lcidtoname_downlevel.obj
 0002:00006a98       ??_C@_1O@KNHJLDJA@?$AAs?$AAy?$AAr?$AA?9?$AAS?$AAY@ 0000000180029a98     libucrt:lcidtoname_downlevel.obj
 0002:00006aa8       ??_C@_1O@MKEKBLAH@?$AAd?$AAi?$AAv?$AA?9?$AAM?$AAV@ 0000000180029aa8     libucrt:lcidtoname_downlevel.obj
 0002:00006ab8       ??_C@_1O@OHDCKDDF@?$AAq?$AAu?$AAz?$AA?9?$AAB?$AAO@ 0000000180029ab8     libucrt:lcidtoname_downlevel.obj
 0002:00006ac8       ??_C@_1M@LEPJNLFD@?$AAn?$AAs?$AA?9?$AAZ?$AAA@ 0000000180029ac8     libucrt:lcidtoname_downlevel.obj
 0002:00006ad8       ??_C@_1M@OMLEIIJB@?$AAm?$AAi?$AA?9?$AAN?$AAZ@ 0000000180029ad8     libucrt:lcidtoname_downlevel.obj
 0002:00006ae8       ??_C@_1M@PMPEAILG@?$AAa?$AAr?$AA?9?$AAI?$AAQ@ 0000000180029ae8     libucrt:lcidtoname_downlevel.obj
 0002:00006af8       ??_C@_1M@CNKPNOEE@?$AAd?$AAe?$AA?9?$AAC?$AAH@ 0000000180029af8     libucrt:lcidtoname_downlevel.obj
 0002:00006b08       ??_C@_1M@LKMGMLKO@?$AAe?$AAn?$AA?9?$AAG?$AAB@ 0000000180029b08     libucrt:lcidtoname_downlevel.obj
 0002:00006b18       ??_C@_1M@PGKJFFGL@?$AAe?$AAs?$AA?9?$AAM?$AAX@ 0000000180029b18     libucrt:lcidtoname_downlevel.obj
 0002:00006b28       ??_C@_1M@DNNANBDC@?$AAf?$AAr?$AA?9?$AAB?$AAE@ 0000000180029b28     libucrt:lcidtoname_downlevel.obj
 0002:00006b38       ??_C@_1M@HLGMDFHM@?$AAi?$AAt?$AA?9?$AAC?$AAH@ 0000000180029b38     libucrt:lcidtoname_downlevel.obj
 0002:00006b48       ??_C@_1M@CLLBGJH@?$AAn?$AAl?$AA?9?$AAB?$AAE@ 0000000180029b48     libucrt:lcidtoname_downlevel.obj
 0002:00006b58       ??_C@_1M@BODBOGLF@?$AAn?$AAn?$AA?9?$AAN?$AAO@ 0000000180029b58     libucrt:lcidtoname_downlevel.obj
 0002:00006b68       ??_C@_1M@HFFAHKAD@?$AAp?$AAt?$AA?9?$AAP?$AAT@ 0000000180029b68     libucrt:lcidtoname_downlevel.obj
 0002:00006b78       ??_C@_1BG@LNOAKHIE@?$AAs?$AAr?$AA?9?$AAS?$AAP?$AA?9?$AAL?$AAa?$AAt?$AAn@ 0000000180029b78     libucrt:lcidtoname_downlevel.obj
 0002:00006b90       ??_C@_1M@HBMHBGAK@?$AAs?$AAv?$AA?9?$AAF?$AAI@ 0000000180029b90     libucrt:lcidtoname_downlevel.obj
 0002:00006ba0       ??_C@_1BG@DGCJGJBE@?$AAa?$AAz?$AA?9?$AAA?$AAZ?$AA?9?$AAC?$AAy?$AAr?$AAl@ 0000000180029ba0     libucrt:lcidtoname_downlevel.obj
 0002:00006bb8       ??_C@_1M@KEJDAAHB@?$AAs?$AAe?$AA?9?$AAS?$AAE@ 0000000180029bb8     libucrt:lcidtoname_downlevel.obj
 0002:00006bc8       ??_C@_1M@HEIBJJAD@?$AAm?$AAs?$AA?9?$AAB?$AAN@ 0000000180029bc8     libucrt:lcidtoname_downlevel.obj
 0002:00006bd8       ??_C@_1BG@PBGJMCEM@?$AAu?$AAz?$AA?9?$AAU?$AAZ?$AA?9?$AAC?$AAy?$AAr?$AAl@ 0000000180029bd8     libucrt:lcidtoname_downlevel.obj
 0002:00006bf0       ??_C@_1O@LAOBCMDF@?$AAq?$AAu?$AAz?$AA?9?$AAE?$AAC@ 0000000180029bf0     libucrt:lcidtoname_downlevel.obj
 0002:00006c00       ??_C@_1M@POEEMAIO@?$AAa?$AAr?$AA?9?$AAE?$AAG@ 0000000180029c00     libucrt:lcidtoname_downlevel.obj
 0002:00006c10       ??_C@_1M@EFAKDEDL@?$AAz?$AAh?$AA?9?$AAH?$AAK@ 0000000180029c10     libucrt:lcidtoname_downlevel.obj
 0002:00006c20       ??_C@_1M@HKKIJHGI@?$AAd?$AAe?$AA?9?$AAA?$AAT@ 0000000180029c20     libucrt:lcidtoname_downlevel.obj
 0002:00006c30       ??_C@_1M@KBFBEHJF@?$AAe?$AAn?$AA?9?$AAA?$AAU@ 0000000180029c30     libucrt:lcidtoname_downlevel.obj
 0002:00006c40       ??_C@_1M@MNPLFAAH@?$AAe?$AAs?$AA?9?$AAE?$AAS@ 0000000180029c40     libucrt:lcidtoname_downlevel.obj
 0002:00006c50       ??_C@_1M@HJOOJFMA@?$AAf?$AAr?$AA?9?$AAC?$AAA@ 0000000180029c50     libucrt:lcidtoname_downlevel.obj
 0002:00006c60       ??_C@_1BG@JPOFPNAB@?$AAs?$AAr?$AA?9?$AAS?$AAP?$AA?9?$AAC?$AAy?$AAr?$AAl@ 0000000180029c60     libucrt:lcidtoname_downlevel.obj
 0002:00006c78       ??_C@_1M@LNFOCMOB@?$AAs?$AAe?$AA?9?$AAF?$AAI@ 0000000180029c78     libucrt:lcidtoname_downlevel.obj
 0002:00006c88       ??_C@_1O@MGJBOAMB@?$AAq?$AAu?$AAz?$AA?9?$AAP?$AAE@ 0000000180029c88     libucrt:lcidtoname_downlevel.obj
 0002:00006c98       ??_C@_1M@GJINLBOK@?$AAa?$AAr?$AA?9?$AAL?$AAY@ 0000000180029c98     libucrt:lcidtoname_downlevel.obj
 0002:00006ca8       ??_C@_1M@GGMNHJNL@?$AAz?$AAh?$AA?9?$AAS?$AAG@ 0000000180029ca8     libucrt:lcidtoname_downlevel.obj
 0002:00006cb8       ??_C@_1M@HOIKODND@?$AAd?$AAe?$AA?9?$AAL?$AAU@ 0000000180029cb8     libucrt:lcidtoname_downlevel.obj
 0002:00006cc8       ??_C@_1M@DDOCCGFG@?$AAe?$AAn?$AA?9?$AAC?$AAA@ 0000000180029cc8     libucrt:lcidtoname_downlevel.obj
 0002:00006cd8       ??_C@_1M@BNOEMJLF@?$AAe?$AAs?$AA?9?$AAG?$AAT@ 0000000180029cd8     libucrt:lcidtoname_downlevel.obj
 0002:00006ce8       ??_C@_1M@EOGNKEK@?$AAf?$AAr?$AA?9?$AAC?$AAH@ 0000000180029ce8     libucrt:lcidtoname_downlevel.obj
 0002:00006cf8       ??_C@_1M@FLIDJFHL@?$AAh?$AAr?$AA?9?$AAB?$AAA@ 0000000180029cf8     libucrt:lcidtoname_downlevel.obj
 0002:00006d08       ??_C@_1O@FMCELNAJ@?$AAs?$AAm?$AAj?$AA?9?$AAN?$AAO@ 0000000180029d08     libucrt:lcidtoname_downlevel.obj
 0002:00006d18       ??_C@_1M@JHGLJMGJ@?$AAa?$AAr?$AA?9?$AAD?$AAZ@ 0000000180029d18     libucrt:lcidtoname_downlevel.obj
 0002:00006d28       ??_C@_1M@JKKFDCNP@?$AAz?$AAh?$AA?9?$AAM?$AAO@ 0000000180029d28     libucrt:lcidtoname_downlevel.obj
 0002:00006d38       ??_C@_1M@GEEFALPE@?$AAd?$AAe?$AA?9?$AAL?$AAI@ 0000000180029d38     libucrt:lcidtoname_downlevel.obj
 0002:00006d48       ??_C@_1M@IGEOFBG@?$AAe?$AAn?$AA?9?$AAN?$AAZ@ 0000000180029d48     libucrt:lcidtoname_downlevel.obj
 0002:00006d58       ??_C@_1M@KDBONEHP@?$AAe?$AAs?$AA?9?$AAC?$AAR@ 0000000180029d58     libucrt:lcidtoname_downlevel.obj
 0002:00006d68       ??_C@_1M@FHMDOHNN@?$AAf?$AAr?$AA?9?$AAL?$AAU@ 0000000180029d68     libucrt:lcidtoname_downlevel.obj
 0002:00006d78       ??_C@_1BG@NFKKMAFG@?$AAb?$AAs?$AA?9?$AAB?$AAA?$AA?9?$AAL?$AAa?$AAt?$AAn@ 0000000180029d78     libucrt:lcidtoname_downlevel.obj
 0002:00006d90       ??_C@_1O@IMNBEMCI@?$AAs?$AAm?$AAj?$AA?9?$AAS?$AAE@ 0000000180029d90     libucrt:lcidtoname_downlevel.obj
 0002:00006da0       ??_C@_1M@DHHMBNDP@?$AAa?$AAr?$AA?9?$AAM?$AAA@ 0000000180029da0     libucrt:lcidtoname_downlevel.obj
 0002:00006db0       ??_C@_1M@BNBLJCGH@?$AAe?$AAn?$AA?9?$AAI?$AAE@ 0000000180029db0     libucrt:lcidtoname_downlevel.obj
 0002:00006dc0       ??_C@_1M@GEPAFMDL@?$AAe?$AAs?$AA?9?$AAP?$AAA@ 0000000180029dc0     libucrt:lcidtoname_downlevel.obj
 0002:00006dd0       ??_C@_1M@OJONDMDL@?$AAf?$AAr?$AA?9?$AAM?$AAC@ 0000000180029dd0     libucrt:lcidtoname_downlevel.obj
 0002:00006de0       ??_C@_1BG@OBCNFJB@?$AAs?$AAr?$AA?9?$AAB?$AAA?$AA?9?$AAL?$AAa?$AAt?$AAn@ 0000000180029de0     libucrt:lcidtoname_downlevel.obj
 0002:00006df8       ??_C@_1O@KEMEEGPO@?$AAs?$AAm?$AAa?$AA?9?$AAN?$AAO@ 0000000180029df8     libucrt:lcidtoname_downlevel.obj
 0002:00006e08       ??_C@_1M@ELMGFODK@?$AAa?$AAr?$AA?9?$AAT?$AAN@ 0000000180029e08     libucrt:lcidtoname_downlevel.obj
 0002:00006e18       ??_C@_1M@BHDLHFAF@?$AAe?$AAn?$AA?9?$AAZ?$AAA@ 0000000180029e18     libucrt:lcidtoname_downlevel.obj
 0002:00006e28       ??_C@_1M@BMGIGLIF@?$AAe?$AAs?$AA?9?$AAD?$AAO@ 0000000180029e28     libucrt:lcidtoname_downlevel.obj
 0002:00006e38       ??_C@_1BG@CMBHIPBE@?$AAs?$AAr?$AA?9?$AAB?$AAA?$AA?9?$AAC?$AAy?$AAr?$AAl@ 0000000180029e38     libucrt:lcidtoname_downlevel.obj
 0002:00006e50       ??_C@_1O@HEDBLHNP@?$AAs?$AAm?$AAa?$AA?9?$AAS?$AAE@ 0000000180029e50     libucrt:lcidtoname_downlevel.obj
 0002:00006e60       ??_C@_1M@DAGCADIM@?$AAa?$AAr?$AA?9?$AAO?$AAM@ 0000000180029e60     libucrt:lcidtoname_downlevel.obj
 0002:00006e70       ??_C@_1M@FODLMICG@?$AAe?$AAn?$AA?9?$AAJ?$AAM@ 0000000180029e70     libucrt:lcidtoname_downlevel.obj
 0002:00006e80       ??_C@_1M@DNMLCIHB@?$AAe?$AAs?$AA?9?$AAV?$AAE@ 0000000180029e80     libucrt:lcidtoname_downlevel.obj
 0002:00006e90       ??_C@_1O@EOKHMKJK@?$AAs?$AAm?$AAs?$AA?9?$AAF?$AAI@ 0000000180029e90     libucrt:lcidtoname_downlevel.obj
 0002:00006ea0       ??_C@_1M@CAFJMKOF@?$AAa?$AAr?$AA?9?$AAY?$AAE@ 0000000180029ea0     libucrt:lcidtoname_downlevel.obj
 0002:00006eb0       ??_C@_1M@CBFHIJLI@?$AAe?$AAn?$AA?9?$AAC?$AAB@ 0000000180029eb0     libucrt:lcidtoname_downlevel.obj
 0002:00006ec0       ??_C@_1M@BGNFLDN@?$AAe?$AAs?$AA?9?$AAC?$AAO@ 0000000180029ec0     libucrt:lcidtoname_downlevel.obj
 0002:00006ed0       ??_C@_1O@JMPHMAMC@?$AAs?$AAm?$AAn?$AA?9?$AAF?$AAI@ 0000000180029ed0     libucrt:lcidtoname_downlevel.obj
 0002:00006ee0       ??_C@_1M@JLANABKE@?$AAa?$AAr?$AA?9?$AAS?$AAY@ 0000000180029ee0     libucrt:lcidtoname_downlevel.obj
 0002:00006ef0       ??_C@_1M@HPKGCFGN@?$AAe?$AAn?$AA?9?$AAB?$AAZ@ 0000000180029ef0     libucrt:lcidtoname_downlevel.obj
 0002:00006f00       ??_C@_1M@OLJCMLGM@?$AAe?$AAs?$AA?9?$AAP?$AAE@ 0000000180029f00     libucrt:lcidtoname_downlevel.obj
 0002:00006f10       ??_C@_1M@MKKGFKLE@?$AAa?$AAr?$AA?9?$AAJ?$AAO@ 0000000180029f10     libucrt:lcidtoname_downlevel.obj
 0002:00006f20       ??_C@_1M@EKPGLDNI@?$AAe?$AAn?$AA?9?$AAT?$AAT@ 0000000180029f20     libucrt:lcidtoname_downlevel.obj
 0002:00006f30       ??_C@_1M@OONGHFHE@?$AAe?$AAs?$AA?9?$AAA?$AAR@ 0000000180029f30     libucrt:lcidtoname_downlevel.obj
 0002:00006f40       ??_C@_1M@OOJFGBHE@?$AAa?$AAr?$AA?9?$AAL?$AAB@ 0000000180029f40     libucrt:lcidtoname_downlevel.obj
 0002:00006f50       ??_C@_1M@GCEJHNEG@?$AAe?$AAn?$AA?9?$AAZ?$AAW@ 0000000180029f50     libucrt:lcidtoname_downlevel.obj
 0002:00006f60       ??_C@_1M@JNOCAHJI@?$AAe?$AAs?$AA?9?$AAE?$AAC@ 0000000180029f60     libucrt:lcidtoname_downlevel.obj
 0002:00006f70       ??_C@_1M@JEFHPGGB@?$AAa?$AAr?$AA?9?$AAK?$AAW@ 0000000180029f70     libucrt:lcidtoname_downlevel.obj
 0002:00006f80       ??_C@_1M@MLKIBJOJ@?$AAe?$AAn?$AA?9?$AAP?$AAH@ 0000000180029f80     libucrt:lcidtoname_downlevel.obj
 0002:00006f90       ??_C@_1M@BDNIPEND@?$AAe?$AAs?$AA?9?$AAC?$AAL@ 0000000180029f90     libucrt:lcidtoname_downlevel.obj
 0002:00006fa0       ??_C@_1M@MPNMEKBD@?$AAa?$AAr?$AA?9?$AAA?$AAE@ 0000000180029fa0     libucrt:lcidtoname_downlevel.obj
 0002:00006fb0       ??_C@_1M@KBJALCPI@?$AAe?$AAs?$AA?9?$AAU?$AAY@ 0000000180029fb0     libucrt:lcidtoname_downlevel.obj
 0002:00006fc0       ??_C@_1M@LLCCOAGA@?$AAa?$AAr?$AA?9?$AAB?$AAH@ 0000000180029fc0     libucrt:lcidtoname_downlevel.obj
 0002:00006fd0       ??_C@_1M@PBFNCDEL@?$AAe?$AAs?$AA?9?$AAP?$AAY@ 0000000180029fd0     libucrt:lcidtoname_downlevel.obj
 0002:00006fe0       ??_C@_1M@EDGINPNP@?$AAa?$AAr?$AA?9?$AAQ?$AAA@ 0000000180029fe0     libucrt:lcidtoname_downlevel.obj
 0002:00006ff0       ??_C@_1M@MKDBIIJI@?$AAe?$AAs?$AA?9?$AAB?$AAO@ 0000000180029ff0     libucrt:lcidtoname_downlevel.obj
 0002:00007000       ??_C@_1M@CPKKEBLD@?$AAe?$AAs?$AA?9?$AAS?$AAV@ 000000018002a000     libucrt:lcidtoname_downlevel.obj
 0002:00007010       ??_C@_1M@NDBGMMJL@?$AAe?$AAs?$AA?9?$AAH?$AAN@ 000000018002a010     libucrt:lcidtoname_downlevel.obj
 0002:00007020       ??_C@_1M@JIJIBHDP@?$AAe?$AAs?$AA?9?$AAN?$AAI@ 000000018002a020     libucrt:lcidtoname_downlevel.obj
 0002:00007030       ??_C@_1M@CGFMKEEK@?$AAe?$AAs?$AA?9?$AAP?$AAR@ 000000018002a030     libucrt:lcidtoname_downlevel.obj
 0002:00007040       ??_C@_1O@ICJHKIIK@?$AAz?$AAh?$AA?9?$AAC?$AAH?$AAT@ 000000018002a040     libucrt:lcidtoname_downlevel.obj
 0002:00007050       ??_C@_15CLNEJCE@?$AAs?$AAr@ 000000018002a050     libucrt:lcidtoname_downlevel.obj
 0002:00007ea0       ??_C@_1M@KAHEKEIG@?$AAa?$AAf?$AA?9?$AAz?$AAa@ 000000018002aea0     libucrt:lcidtoname_downlevel.obj
 0002:00007eb0       ??_C@_1M@GIECOABL@?$AAa?$AAr?$AA?9?$AAa?$AAe@ 000000018002aeb0     libucrt:lcidtoname_downlevel.obj
 0002:00007ec0       ??_C@_1M@BMLMEKGI@?$AAa?$AAr?$AA?9?$AAb?$AAh@ 000000018002aec0     libucrt:lcidtoname_downlevel.obj
 0002:00007ed0       ??_C@_1M@DAPFDGGB@?$AAa?$AAr?$AA?9?$AAd?$AAz@ 000000018002aed0     libucrt:lcidtoname_downlevel.obj
 0002:00007ee0       ??_C@_1M@FJNKGKIG@?$AAa?$AAr?$AA?9?$AAe?$AAg@ 000000018002aee0     libucrt:lcidtoname_downlevel.obj
 0002:00007ef0       ??_C@_1M@FLGKKCLO@?$AAa?$AAr?$AA?9?$AAi?$AAq@ 000000018002aef0     libucrt:lcidtoname_downlevel.obj
 0002:00007f00       ??_C@_1M@GNDIPALM@?$AAa?$AAr?$AA?9?$AAj?$AAo@ 000000018002af00     libucrt:lcidtoname_downlevel.obj
 0002:00007f10       ??_C@_1M@DDMJFMGJ@?$AAa?$AAr?$AA?9?$AAk?$AAw@ 000000018002af10     libucrt:lcidtoname_downlevel.obj
 0002:00007f20       ??_C@_1M@EJALMLHM@?$AAa?$AAr?$AA?9?$AAl?$AAb@ 000000018002af20     libucrt:lcidtoname_downlevel.obj
 0002:00007f30       ??_C@_1M@MOBDBLOC@?$AAa?$AAr?$AA?9?$AAl?$AAy@ 000000018002af30     libucrt:lcidtoname_downlevel.obj
 0002:00007f40       ??_C@_1M@JAOCLHDH@?$AAa?$AAr?$AA?9?$AAm?$AAa@ 000000018002af40     libucrt:lcidtoname_downlevel.obj
 0002:00007f50       ??_C@_1M@JHPMKJIE@?$AAa?$AAr?$AA?9?$AAo?$AAm@ 000000018002af50     libucrt:lcidtoname_downlevel.obj
 0002:00007f60       ??_C@_1M@OEPGHFNH@?$AAa?$AAr?$AA?9?$AAq?$AAa@ 000000018002af60     libucrt:lcidtoname_downlevel.obj
 0002:00007f70       ??_C@_1M@KJDONENM@?$AAa?$AAr?$AA?9?$AAs?$AAa@ 000000018002af70     libucrt:lcidtoname_downlevel.obj
 0002:00007f80       ??_C@_1M@DMJDKLKM@?$AAa?$AAr?$AA?9?$AAs?$AAy@ 000000018002af80     libucrt:lcidtoname_downlevel.obj
 0002:00007f90       ??_C@_1M@OMFIPEDC@?$AAa?$AAr?$AA?9?$AAt?$AAn@ 000000018002af90     libucrt:lcidtoname_downlevel.obj
 0002:00007fa0       ??_C@_1M@IHMHGAON@?$AAa?$AAr?$AA?9?$AAy?$AAe@ 000000018002afa0     libucrt:lcidtoname_downlevel.obj
 0002:00007fb0       ??_C@_1BG@KDCPGJGB@?$AAa?$AAz?$AA?9?$AAa?$AAz?$AA?9?$AAc?$AAy?$AAr?$AAl@ 000000018002afb0     libucrt:lcidtoname_downlevel.obj
 0002:00007fc8       ??_C@_1BG@IBCKDDOE@?$AAa?$AAz?$AA?9?$AAa?$AAz?$AA?9?$AAl?$AAa?$AAt?$AAn@ 000000018002afc8     libucrt:lcidtoname_downlevel.obj
 0002:00007fe0       ??_C@_1M@EGPFDCPD@?$AAb?$AAe?$AA?9?$AAb?$AAy@ 000000018002afe0     libucrt:lcidtoname_downlevel.obj
 0002:00007ff0       ??_C@_1M@PCMGMCGC@?$AAb?$AAg?$AA?9?$AAb?$AAg@ 000000018002aff0     libucrt:lcidtoname_downlevel.obj
 0002:00008000       ??_C@_1M@BJBMFGOB@?$AAb?$AAn?$AA?9?$AAi?$AAn@ 000000018002b000     libucrt:lcidtoname_downlevel.obj
 0002:00008010       ??_C@_1BG@EAKMMACD@?$AAb?$AAs?$AA?9?$AAb?$AAa?$AA?9?$AAl?$AAa?$AAt?$AAn@ 000000018002b010     libucrt:lcidtoname_downlevel.obj
 0002:00008028       ??_C@_1M@KGADAODK@?$AAc?$AAa?$AA?9?$AAe?$AAs@ 000000018002b028     libucrt:lcidtoname_downlevel.obj
 0002:00008038       ??_C@_1M@COAJPDHI@?$AAc?$AAs?$AA?9?$AAc?$AAz@ 000000018002b038     libucrt:lcidtoname_downlevel.obj
 0002:00008048       ??_C@_1M@DHBHFONH@?$AAc?$AAy?$AA?9?$AAg?$AAb@ 000000018002b048     libucrt:lcidtoname_downlevel.obj
 0002:00008058       ??_C@_1M@IMGKELGA@?$AAd?$AAa?$AA?9?$AAd?$AAk@ 000000018002b058     libucrt:lcidtoname_downlevel.obj
 0002:00008068       ??_C@_1M@NNDGDNGA@?$AAd?$AAe?$AA?9?$AAa?$AAt@ 000000018002b068     libucrt:lcidtoname_downlevel.obj
 0002:00008078       ??_C@_1M@IKDBHEEM@?$AAd?$AAe?$AA?9?$AAc?$AAh@ 000000018002b078     libucrt:lcidtoname_downlevel.obj
 0002:00008088       ??_C@_1M@GFFOJMCJ@?$AAd?$AAe?$AA?9?$AAd?$AAe@ 000000018002b088     libucrt:lcidtoname_downlevel.obj
 0002:00008098       ??_C@_1M@MDNLKBPM@?$AAd?$AAe?$AA?9?$AAl?$AAi@ 000000018002b098     libucrt:lcidtoname_downlevel.obj
 0002:000080a8       ??_C@_1M@NJBEEJNL@?$AAd?$AAe?$AA?9?$AAl?$AAu@ 000000018002b0a8     libucrt:lcidtoname_downlevel.obj
 0002:000080b8       ??_C@_1O@GNNELBAP@?$AAd?$AAi?$AAv?$AA?9?$AAm?$AAv@ 000000018002b0b8     libucrt:lcidtoname_downlevel.obj
 0002:000080c8       ??_C@_1M@EJLEOGAE@?$AAe?$AAl?$AA?9?$AAg?$AAr@ 000000018002b0c8     libucrt:lcidtoname_downlevel.obj
 0002:000080d8       ??_C@_1M@GMPONJN@?$AAe?$AAn?$AA?9?$AAa?$AAu@ 000000018002b0d8     libucrt:lcidtoname_downlevel.obj
 0002:000080e8       ??_C@_1M@NIDIIPGF@?$AAe?$AAn?$AA?9?$AAb?$AAz@ 000000018002b0e8     libucrt:lcidtoname_downlevel.obj
 0002:000080f8       ??_C@_1M@JEHMIMFO@?$AAe?$AAn?$AA?9?$AAc?$AAa@ 000000018002b0f8     libucrt:lcidtoname_downlevel.obj
 0002:00008108       ??_C@_1M@IGMJCDLA@?$AAe?$AAn?$AA?9?$AAc?$AAb@ 000000018002b108     libucrt:lcidtoname_downlevel.obj
 0002:00008118       ??_C@_1M@BNFIGBKG@?$AAe?$AAn?$AA?9?$AAg?$AAb@ 000000018002b118     libucrt:lcidtoname_downlevel.obj
 0002:00008128       ??_C@_1M@LKIFDIGP@?$AAe?$AAn?$AA?9?$AAi?$AAe@ 000000018002b128     libucrt:lcidtoname_downlevel.obj
 0002:00008138       ??_C@_1M@PJKFGCCO@?$AAe?$AAn?$AA?9?$AAj?$AAm@ 000000018002b138     libucrt:lcidtoname_downlevel.obj
 0002:00008148       ??_C@_1M@KPPKEPBO@?$AAe?$AAn?$AA?9?$AAn?$AAz@ 000000018002b148     libucrt:lcidtoname_downlevel.obj
 0002:00008158       ??_C@_1M@GMDGLDOB@?$AAe?$AAn?$AA?9?$AAp?$AAh@ 000000018002b158     libucrt:lcidtoname_downlevel.obj
 0002:00008168       ??_C@_1M@ONGIBJNA@?$AAe?$AAn?$AA?9?$AAt?$AAt@ 000000018002b168     libucrt:lcidtoname_downlevel.obj
 0002:00008178       ??_C@_1M@LLODPCMM@?$AAe?$AAn?$AA?9?$AAu?$AAs@ 000000018002b178     libucrt:lcidtoname_downlevel.obj
 0002:00008188       ??_C@_1M@LAKFNPAN@?$AAe?$AAn?$AA?9?$AAz?$AAa@ 000000018002b188     libucrt:lcidtoname_downlevel.obj
 0002:00008198       ??_C@_1M@MFNHNHEO@?$AAe?$AAn?$AA?9?$AAz?$AAw@ 000000018002b198     libucrt:lcidtoname_downlevel.obj
 0002:000081a8       ??_C@_1M@EJEINPHM@?$AAe?$AAs?$AA?9?$AAa?$AAr@ 000000018002b1a8     libucrt:lcidtoname_downlevel.obj
 0002:000081b8       ??_C@_1M@GNKPCCJA@?$AAe?$AAs?$AA?9?$AAb?$AAo@ 000000018002b1b8     libucrt:lcidtoname_downlevel.obj
 0002:000081c8       ??_C@_1M@LEEGFONL@?$AAe?$AAs?$AA?9?$AAc?$AAl@ 000000018002b1c8     libucrt:lcidtoname_downlevel.obj
 0002:000081d8       ??_C@_1M@KGPDPBDF@?$AAe?$AAs?$AA?9?$AAc?$AAo@ 000000018002b1d8     libucrt:lcidtoname_downlevel.obj
 0002:000081e8       ??_C@_1M@EIAHOHH@?$AAe?$AAs?$AA?9?$AAc?$AAr@ 000000018002b1e8     libucrt:lcidtoname_downlevel.obj
 0002:000081f8       ??_C@_1M@LLPGMBIN@?$AAe?$AAs?$AA?9?$AAd?$AAo@ 000000018002b1f8     libucrt:lcidtoname_downlevel.obj
 0002:00008208       ??_C@_1M@DKHMKNJA@?$AAe?$AAs?$AA?9?$AAe?$AAc@ 000000018002b208     libucrt:lcidtoname_downlevel.obj
 0002:00008218       ??_C@_1M@GKGFPKAP@?$AAe?$AAs?$AA?9?$AAe?$AAs@ 000000018002b218     libucrt:lcidtoname_downlevel.obj
 0002:00008228       ??_C@_1M@LKHKGDLN@?$AAe?$AAs?$AA?9?$AAg?$AAt@ 000000018002b228     libucrt:lcidtoname_downlevel.obj
 0002:00008238       ??_C@_1M@HEIIGGJD@?$AAe?$AAs?$AA?9?$AAh?$AAn@ 000000018002b238     libucrt:lcidtoname_downlevel.obj
 0002:00008248       ??_C@_1M@FBDHPPGD@?$AAe?$AAs?$AA?9?$AAm?$AAx@ 000000018002b248     libucrt:lcidtoname_downlevel.obj
 0002:00008258       ??_C@_1M@DPAGLNDH@?$AAe?$AAs?$AA?9?$AAn?$AAi@ 000000018002b258     libucrt:lcidtoname_downlevel.obj
 0002:00008268       ??_C@_1M@MDGOPGDD@?$AAe?$AAs?$AA?9?$AAp?$AAa@ 000000018002b268     libucrt:lcidtoname_downlevel.obj
 0002:00008278       ??_C@_1M@EMAMGBGE@?$AAe?$AAs?$AA?9?$AAp?$AAe@ 000000018002b278     libucrt:lcidtoname_downlevel.obj
 0002:00008288       ??_C@_1M@IBMCAOEC@?$AAe?$AAs?$AA?9?$AAp?$AAr@ 000000018002b288     libucrt:lcidtoname_downlevel.obj
 0002:00008298       ??_C@_1M@FGMDIJED@?$AAe?$AAs?$AA?9?$AAp?$AAy@ 000000018002b298     libucrt:lcidtoname_downlevel.obj
 0002:000082a8       ??_C@_1M@IIDEOLLL@?$AAe?$AAs?$AA?9?$AAs?$AAv@ 000000018002b2a8     libucrt:lcidtoname_downlevel.obj
 0002:000082b8       ??_C@_1M@GAOBIPA@?$AAe?$AAs?$AA?9?$AAu?$AAy@ 000000018002b2b8     libucrt:lcidtoname_downlevel.obj
 0002:000082c8       ??_C@_1M@JKFFICHJ@?$AAe?$AAs?$AA?9?$AAv?$AAe@ 000000018002b2c8     libucrt:lcidtoname_downlevel.obj
 0002:000082d8       ??_C@_1M@PNMLOJDF@?$AAe?$AAt?$AA?9?$AAe?$AAe@ 000000018002b2d8     libucrt:lcidtoname_downlevel.obj
 0002:000082e8       ??_C@_1M@GHHLIKEI@?$AAe?$AAu?$AA?9?$AAe?$AAs@ 000000018002b2e8     libucrt:lcidtoname_downlevel.obj
 0002:000082f8       ??_C@_1M@PBNONODE@?$AAf?$AAa?$AA?9?$AAi?$AAr@ 000000018002b2f8     libucrt:lcidtoname_downlevel.obj
 0002:00008308       ??_C@_1M@JEEHPMIL@?$AAf?$AAi?$AA?9?$AAf?$AAi@ 000000018002b308     libucrt:lcidtoname_downlevel.obj
 0002:00008318       ??_C@_1M@LMDCNDBA@?$AAf?$AAo?$AA?9?$AAf?$AAo@ 000000018002b318     libucrt:lcidtoname_downlevel.obj
 0002:00008328       ??_C@_1M@JKEOHLDK@?$AAf?$AAr?$AA?9?$AAb?$AAe@ 000000018002b328     libucrt:lcidtoname_downlevel.obj
 0002:00008338       ??_C@_1M@NOHADPMI@?$AAf?$AAr?$AA?9?$AAc?$AAa@ 000000018002b338     libucrt:lcidtoname_downlevel.obj
 0002:00008348       ??_C@_1M@KDHIHAEC@?$AAf?$AAr?$AA?9?$AAc?$AAh@ 000000018002b348     libucrt:lcidtoname_downlevel.obj
 0002:00008358       ??_C@_1M@MMBBFGAK@?$AAf?$AAr?$AA?9?$AAf?$AAr@ 000000018002b358     libucrt:lcidtoname_downlevel.obj
 0002:00008368       ??_C@_1M@PAFNENNF@?$AAf?$AAr?$AA?9?$AAl?$AAu@ 000000018002b368     libucrt:lcidtoname_downlevel.obj
 0002:00008378       ??_C@_1M@EOHDJGDD@?$AAf?$AAr?$AA?9?$AAm?$AAc@ 000000018002b378     libucrt:lcidtoname_downlevel.obj
 0002:00008388       ??_C@_1M@FAPLLOPF@?$AAg?$AAl?$AA?9?$AAe?$AAs@ 000000018002b388     libucrt:lcidtoname_downlevel.obj
 0002:00008398       ??_C@_1M@FOPBFLOO@?$AAg?$AAu?$AA?9?$AAi?$AAn@ 000000018002b398     libucrt:lcidtoname_downlevel.obj
 0002:000083a8       ??_C@_1M@KBMCINPM@?$AAh?$AAe?$AA?9?$AAi?$AAl@ 000000018002b3a8     libucrt:lcidtoname_downlevel.obj
 0002:000083b8       ??_C@_1M@BBPHKFPJ@?$AAh?$AAi?$AA?9?$AAi?$AAn@ 000000018002b3b8     libucrt:lcidtoname_downlevel.obj
 0002:000083c8       ??_C@_1M@PMBNDPHD@?$AAh?$AAr?$AA?9?$AAb?$AAa@ 000000018002b3c8     libucrt:lcidtoname_downlevel.obj
 0002:000083d8       ??_C@_1M@BPCKOEGE@?$AAh?$AAr?$AA?9?$AAh?$AAr@ 000000018002b3d8     libucrt:lcidtoname_downlevel.obj
 0002:000083e8       ??_C@_1M@GACBMHKE@?$AAh?$AAu?$AA?9?$AAh?$AAu@ 000000018002b3e8     libucrt:lcidtoname_downlevel.obj
 0002:000083f8       ??_C@_1M@MILPAJJC@?$AAh?$AAy?$AA?9?$AAa?$AAm@ 000000018002b3f8     libucrt:lcidtoname_downlevel.obj
 0002:00008408       ??_C@_1M@BABBICEC@?$AAi?$AAd?$AA?9?$AAi?$AAd@ 000000018002b408     libucrt:lcidtoname_downlevel.obj
 0002:00008418       ??_C@_1M@BIKNHHPF@?$AAi?$AAs?$AA?9?$AAi?$AAs@ 000000018002b418     libucrt:lcidtoname_downlevel.obj
 0002:00008428       ??_C@_1M@NMPCJPHE@?$AAi?$AAt?$AA?9?$AAc?$AAh@ 000000018002b428     libucrt:lcidtoname_downlevel.obj
 0002:00008438       ??_C@_1M@GHKGFEDF@?$AAi?$AAt?$AA?9?$AAi?$AAt@ 000000018002b438     libucrt:lcidtoname_downlevel.obj
 0002:00008448       ??_C@_1M@NIEJCJJA@?$AAj?$AAa?$AA?9?$AAj?$AAp@ 000000018002b448     libucrt:lcidtoname_downlevel.obj
 0002:00008458       ??_C@_1M@JILFNBIM@?$AAk?$AAa?$AA?9?$AAg?$AAe@ 000000018002b458     libucrt:lcidtoname_downlevel.obj
 0002:00008468       ??_C@_1M@PACPMGPH@?$AAk?$AAk?$AA?9?$AAk?$AAz@ 000000018002b468     libucrt:lcidtoname_downlevel.obj
 0002:00008478       ??_C@_1M@IELFGMHA@?$AAk?$AAn?$AA?9?$AAi?$AAn@ 000000018002b478     libucrt:lcidtoname_downlevel.obj
 0002:00008488       ??_C@_1O@IBBJHCH@?$AAk?$AAo?$AAk?$AA?9?$AAi?$AAn@ 000000018002b488     libucrt:lcidtoname_downlevel.obj
 0002:00008498       ??_C@_1M@DMHAEOGC@?$AAk?$AAo?$AA?9?$AAk?$AAr@ 000000018002b498     libucrt:lcidtoname_downlevel.obj
 0002:000084a8       ??_C@_1M@HBAHBIGA@?$AAk?$AAy?$AA?9?$AAk?$AAg@ 000000018002b4a8     libucrt:lcidtoname_downlevel.obj
 0002:000084b8       ??_C@_1M@KPMILCJG@?$AAl?$AAt?$AA?9?$AAl?$AAt@ 000000018002b4b8     libucrt:lcidtoname_downlevel.obj
 0002:000084c8       ??_C@_1M@BDEKKCA@?$AAl?$AAv?$AA?9?$AAl?$AAv@ 000000018002b4c8     libucrt:lcidtoname_downlevel.obj
 0002:000084d8       ??_C@_1M@ELCKCCJJ@?$AAm?$AAi?$AA?9?$AAn?$AAz@ 000000018002b4d8     libucrt:lcidtoname_downlevel.obj
 0002:000084e8       ??_C@_1M@CBOOLAPA@?$AAm?$AAk?$AA?9?$AAm?$AAk@ 000000018002b4e8     libucrt:lcidtoname_downlevel.obj
 0002:000084f8       ??_C@_1M@GPHNBJKN@?$AAm?$AAl?$AA?9?$AAi?$AAn@ 000000018002b4f8     libucrt:lcidtoname_downlevel.obj
 0002:00008508       ??_C@_1M@PABJILIG@?$AAm?$AAn?$AA?9?$AAm?$AAn@ 000000018002b508     libucrt:lcidtoname_downlevel.obj
 0002:00008518       ??_C@_1M@FGBKKIPG@?$AAm?$AAr?$AA?9?$AAi?$AAn@ 000000018002b518     libucrt:lcidtoname_downlevel.obj
 0002:00008528       ??_C@_1M@NDBPDDAL@?$AAm?$AAs?$AA?9?$AAb?$AAn@ 000000018002b528     libucrt:lcidtoname_downlevel.obj
 0002:00008538       ??_C@_1M@OPIHOOPI@?$AAm?$AAs?$AA?9?$AAm?$AAy@ 000000018002b538     libucrt:lcidtoname_downlevel.obj
 0002:00008548       ??_C@_1M@PPDBCNFM@?$AAm?$AAt?$AA?9?$AAm?$AAt@ 000000018002b548     libucrt:lcidtoname_downlevel.obj
 0002:00008558       ??_C@_1M@KDJDKMDD@?$AAn?$AAb?$AA?9?$AAn?$AAo@ 000000018002b558     libucrt:lcidtoname_downlevel.obj
 0002:00008568       ??_C@_1M@KFCFLMJP@?$AAn?$AAl?$AA?9?$AAb?$AAe@ 000000018002b568     libucrt:lcidtoname_downlevel.obj
 0002:00008578       ??_C@_1M@KPOPDDGO@?$AAn?$AAl?$AA?9?$AAn?$AAl@ 000000018002b578     libucrt:lcidtoname_downlevel.obj
 0002:00008588       ??_C@_1M@LJKPEMLN@?$AAn?$AAn?$AA?9?$AAn?$AAo@ 000000018002b588     libucrt:lcidtoname_downlevel.obj
 0002:00008598       ??_C@_1M@BDGHHBFL@?$AAn?$AAs?$AA?9?$AAz?$AAa@ 000000018002b598     libucrt:lcidtoname_downlevel.obj
 0002:000085a8       ??_C@_1M@IDEHOAP@?$AAp?$AAa?$AA?9?$AAi?$AAn@ 000000018002b5a8     libucrt:lcidtoname_downlevel.obj
 0002:000085b8       ??_C@_1M@HDBKGOGH@?$AAp?$AAl?$AA?9?$AAp?$AAl@ 000000018002b5b8     libucrt:lcidtoname_downlevel.obj
 0002:000085c8       ??_C@_1M@LJLLCMEH@?$AAp?$AAt?$AA?9?$AAb?$AAr@ 000000018002b5c8     libucrt:lcidtoname_downlevel.obj
 0002:000085d8       ??_C@_1M@NCMONAAL@?$AAp?$AAt?$AA?9?$AAp?$AAt@ 000000018002b5d8     libucrt:lcidtoname_downlevel.obj
 0002:000085e8       ??_C@_1O@EAKMAJDN@?$AAq?$AAu?$AAz?$AA?9?$AAb?$AAo@ 000000018002b5e8     libucrt:lcidtoname_downlevel.obj
 0002:000085f8       ??_C@_1O@BHHPIGDN@?$AAq?$AAu?$AAz?$AA?9?$AAe?$AAc@ 000000018002b5f8     libucrt:lcidtoname_downlevel.obj
 0002:00008608       ??_C@_1O@GBAPEKMJ@?$AAq?$AAu?$AAz?$AA?9?$AAp?$AAe@ 000000018002b608     libucrt:lcidtoname_downlevel.obj
 0002:00008618       ??_C@_1M@CLGLEFBO@?$AAr?$AAo?$AA?9?$AAr?$AAo@ 000000018002b618     libucrt:lcidtoname_downlevel.obj
 0002:00008628       ??_C@_1M@CEEDODME@?$AAr?$AAu?$AA?9?$AAr?$AAu@ 000000018002b628     libucrt:lcidtoname_downlevel.obj
 0002:00008638       ??_C@_1M@HPKKKMPP@?$AAs?$AAa?$AA?9?$AAi?$AAn@ 000000018002b638     libucrt:lcidtoname_downlevel.obj
 0002:00008648       ??_C@_1M@BKMAIGOJ@?$AAs?$AAe?$AA?9?$AAf?$AAi@ 000000018002b648     libucrt:lcidtoname_downlevel.obj
 0002:00008658       ??_C@_1M@NDPIFLFI@?$AAs?$AAe?$AA?9?$AAn?$AAo@ 000000018002b658     libucrt:lcidtoname_downlevel.obj
 0002:00008668       ??_C@_1M@DANKKHJ@?$AAs?$AAe?$AA?9?$AAs?$AAe@ 000000018002b668     libucrt:lcidtoname_downlevel.obj
 0002:00008678       ??_C@_1M@PNBLONPJ@?$AAs?$AAk?$AA?9?$AAs?$AAk@ 000000018002b678     libucrt:lcidtoname_downlevel.obj
 0002:00008688       ??_C@_1M@LFMODOAL@?$AAs?$AAl?$AA?9?$AAs?$AAi@ 000000018002b688     libucrt:lcidtoname_downlevel.obj
 0002:00008698       ??_C@_1O@DFKOMPG@?$AAs?$AAm?$AAa?$AA?9?$AAn?$AAo@ 000000018002b698     libucrt:lcidtoname_downlevel.obj
 0002:000086a8       ??_C@_1O@NDKPBNNH@?$AAs?$AAm?$AAa?$AA?9?$AAs?$AAe@ 000000018002b6a8     libucrt:lcidtoname_downlevel.obj
 0002:000086b8       ??_C@_1O@PLLKBHAB@?$AAs?$AAm?$AAj?$AA?9?$AAn?$AAo@ 000000018002b6b8     libucrt:lcidtoname_downlevel.obj
 0002:000086c8       ??_C@_1O@CLEPOGCA@?$AAs?$AAm?$AAj?$AA?9?$AAs?$AAe@ 000000018002b6c8     libucrt:lcidtoname_downlevel.obj
 0002:000086d8       ??_C@_1O@DLGJGKMK@?$AAs?$AAm?$AAn?$AA?9?$AAf?$AAi@ 000000018002b6d8     libucrt:lcidtoname_downlevel.obj
 0002:000086e8       ??_C@_1O@OJDJGAJC@?$AAs?$AAm?$AAs?$AA?9?$AAf?$AAi@ 000000018002b6e8     libucrt:lcidtoname_downlevel.obj
 0002:000086f8       ??_C@_1M@BOFOGHPB@?$AAs?$AAq?$AA?9?$AAa?$AAl@ 000000018002b6f8     libucrt:lcidtoname_downlevel.obj
 0002:00008708       ??_C@_1BG@LJBBIPGB@?$AAs?$AAr?$AA?9?$AAb?$AAa?$AA?9?$AAc?$AAy?$AAr?$AAl@ 000000018002b708     libucrt:lcidtoname_downlevel.obj
 0002:00008720       ??_C@_1BG@JLBENFOE@?$AAs?$AAr?$AA?9?$AAb?$AAa?$AA?9?$AAl?$AAa?$AAt?$AAn@ 000000018002b720     libucrt:lcidtoname_downlevel.obj
 0002:00008738       ??_C@_1BG@KODPNHE@?$AAs?$AAr?$AA?9?$AAs?$AAp?$AA?9?$AAc?$AAy?$AAr?$AAl@ 000000018002b738     libucrt:lcidtoname_downlevel.obj
 0002:00008750       ??_C@_1BG@CIOGKHPB@?$AAs?$AAr?$AA?9?$AAs?$AAp?$AA?9?$AAl?$AAa?$AAt?$AAn@ 000000018002b750     libucrt:lcidtoname_downlevel.obj
 0002:00008768       ??_C@_1M@NGFJLMAC@?$AAs?$AAv?$AA?9?$AAf?$AAi@ 000000018002b768     libucrt:lcidtoname_downlevel.obj
 0002:00008778       ??_C@_1M@MPJEJAJC@?$AAs?$AAv?$AA?9?$AAs?$AAe@ 000000018002b778     libucrt:lcidtoname_downlevel.obj
 0002:00008788       ??_C@_1M@MPNDHLFK@?$AAs?$AAw?$AA?9?$AAk?$AAe@ 000000018002b788     libucrt:lcidtoname_downlevel.obj
 0002:00008798       ??_C@_1O@KOHBJJI@?$AAs?$AAy?$AAr?$AA?9?$AAs?$AAy@ 000000018002b798     libucrt:lcidtoname_downlevel.obj
 0002:000087a8       ??_C@_1M@LDCEFHA@?$AAt?$AAa?$AA?9?$AAi?$AAn@ 000000018002b7a8     libucrt:lcidtoname_downlevel.obj
 0002:000087b8       ??_C@_1M@CNJOFAK@?$AAt?$AAe?$AA?9?$AAi?$AAn@ 000000018002b7b8     libucrt:lcidtoname_downlevel.obj
 0002:000087c8       ??_C@_1M@GNAECACD@?$AAt?$AAh?$AA?9?$AAt?$AAh@ 000000018002b7c8     libucrt:lcidtoname_downlevel.obj
 0002:000087d8       ??_C@_1M@CHBIHOJO@?$AAt?$AAn?$AA?9?$AAz?$AAa@ 000000018002b7d8     libucrt:lcidtoname_downlevel.obj
 0002:000087e8       ??_C@_1M@GCCMIGPJ@?$AAt?$AAr?$AA?9?$AAt?$AAr@ 000000018002b7e8     libucrt:lcidtoname_downlevel.obj
 0002:000087f8       ??_C@_1M@CELMCNBK@?$AAt?$AAt?$AA?9?$AAr?$AAu@ 000000018002b7f8     libucrt:lcidtoname_downlevel.obj
 0002:00008808       ??_C@_1M@KLMCELGA@?$AAu?$AAk?$AA?9?$AAu?$AAa@ 000000018002b808     libucrt:lcidtoname_downlevel.obj
 0002:00008818       ??_C@_1M@EPAJJAJF@?$AAu?$AAr?$AA?9?$AAp?$AAk@ 000000018002b818     libucrt:lcidtoname_downlevel.obj
 0002:00008828       ??_C@_1BG@GEGPMCDJ@?$AAu?$AAz?$AA?9?$AAu?$AAz?$AA?9?$AAc?$AAy?$AAr?$AAl@ 000000018002b828     libucrt:lcidtoname_downlevel.obj
 0002:00008840       ??_C@_1BG@EGGKJILM@?$AAu?$AAz?$AA?9?$AAu?$AAz?$AA?9?$AAl?$AAa?$AAt?$AAn@ 000000018002b840     libucrt:lcidtoname_downlevel.obj
 0002:00008858       ??_C@_1M@GFOCLFF@?$AAv?$AAi?$AA?9?$AAv?$AAn@ 000000018002b858     libucrt:lcidtoname_downlevel.obj
 0002:00008868       ??_C@_1M@CPAMEDFI@?$AAx?$AAh?$AA?9?$AAz?$AAa@ 000000018002b868     libucrt:lcidtoname_downlevel.obj
 0002:00008878       ??_C@_1O@EBKIFIGN@?$AAz?$AAh?$AA?9?$AAc?$AAh?$AAs@ 000000018002b878     libucrt:lcidtoname_downlevel.obj
 0002:00008888       ??_C@_1O@NMHPGANE@?$AAz?$AAh?$AA?9?$AAc?$AAh?$AAt@ 000000018002b888     libucrt:lcidtoname_downlevel.obj
 0002:00008898       ??_C@_1M@LPINJOMC@?$AAz?$AAh?$AA?9?$AAc?$AAn@ 000000018002b898     libucrt:lcidtoname_downlevel.obj
 0002:000088a8       ??_C@_1M@OCJEJODD@?$AAz?$AAh?$AA?9?$AAh?$AAk@ 000000018002b8a8     libucrt:lcidtoname_downlevel.obj
 0002:000088b8       ??_C@_1M@DNDLJINH@?$AAz?$AAh?$AA?9?$AAm?$AAo@ 000000018002b8b8     libucrt:lcidtoname_downlevel.obj
 0002:000088c8       ??_C@_1M@MBFDNDND@?$AAz?$AAh?$AA?9?$AAs?$AAg@ 000000018002b8c8     libucrt:lcidtoname_downlevel.obj
 0002:000088d8       ??_C@_1M@IMEPLEPE@?$AAz?$AAh?$AA?9?$AAt?$AAw@ 000000018002b8d8     libucrt:lcidtoname_downlevel.obj
 0002:000088e8       ??_C@_1M@BBGHNHJP@?$AAz?$AAu?$AA?9?$AAz?$AAa@ 000000018002b8e8     libucrt:lcidtoname_downlevel.obj
 0002:00008900       ?large_power_data@?1??multiply_by_power_of_ten@__crt_strtox@@YA_NAEAUbig_integer@2@I@Z@4QBIB 000000018002b900     libucrt:cfout.obj
 0002:00009210       ?large_power_indices@?1??multiply_by_power_of_ten@__crt_strtox@@YA_NAEAUbig_integer@2@I@Z@4QBUunpack_index@?1??12@YA_N0I@Z@B 000000018002c210     libucrt:cfout.obj
 0002:000092a8       ?small_powers_of_ten@?1??multiply_by_power_of_ten@__crt_strtox@@YA_NAEAUbig_integer@2@I@Z@4QBIB 000000018002c2a8     libucrt:cfout.obj
 0002:000092cc       ??_C@_01GBGANLPD@0@        000000018002c2cc     libucrt:cfout.obj
 0002:000092d0       ??_C@_05DNEBIAHO@1?$CDINF@ 000000018002c2d0     libucrt:cfout.obj
 0002:000092d8       ??_C@_06IMKFLFPG@1?$CDQNAN@ 000000018002c2d8     libucrt:cfout.obj
 0002:000092e0       ??_C@_06PGGFOGJG@1?$CDSNAN@ 000000018002c2e0     libucrt:cfout.obj
 0002:000092e8       ??_C@_05PHHOCPM@1?$CDIND@  000000018002c2e8     libucrt:cfout.obj
 0002:000092f0       __real@3ff0000000000000    000000018002c2f0     libucrt:ceil.obj
 0002:00009550       __log10_256_lead           000000018002c550     libucrt:log10_256_lead_tail_table.obj
 0002:00009d60       __log10_256_tail           000000018002cd60     libucrt:log10_256_lead_tail_table.obj
 0002:0000a570       __log_F_inv_qword          000000018002d570     libucrt:log_f_inv_qword_table.obj
 0002:0000ad80       ??_C@_05HGHHAHAP@log10@    000000018002dd80     libucrt:log_special.obj
 0002:0000ad88       ??_C@_1BA@BALFACEM@?$AAC?$AAO?$AAN?$AAO?$AAU?$AAT?$AA$@ 000000018002dd88     libucrt:initcon.obj
 0002:0000ae10       _load_config_used          000000018002de10     LIBCMT:loadcfg.obj
 0002:0000af40       _tls_used                  000000018002df40     LIBCMT:tlssup.obj
 0002:0000af68       ??_R4exception@std@@6B@    000000018002df68     LIBCMT:throw_bad_alloc.obj
 0002:0000af90       ??_R3exception@std@@8      000000018002df90     LIBCMT:throw_bad_alloc.obj
 0002:0000afa8       ??_R2exception@std@@8      000000018002dfa8     LIBCMT:throw_bad_alloc.obj
 0002:0000afb8       ??_R1A@?0A@EA@exception@std@@8 000000018002dfb8     LIBCMT:throw_bad_alloc.obj
 0002:0000afe0       ??_R4bad_alloc@std@@6B@    000000018002dfe0     LIBCMT:throw_bad_alloc.obj
 0002:0000b008       ??_R3bad_alloc@std@@8      000000018002e008     LIBCMT:throw_bad_alloc.obj
 0002:0000b020       ??_R2bad_alloc@std@@8      000000018002e020     LIBCMT:throw_bad_alloc.obj
 0002:0000b038       ??_R1A@?0A@EA@bad_alloc@std@@8 000000018002e038     LIBCMT:throw_bad_alloc.obj
 0002:0000b060       ??_R4bad_array_new_length@std@@6B@ 000000018002e060     LIBCMT:throw_bad_alloc.obj
 0002:0000b088       ??_R3bad_array_new_length@std@@8 000000018002e088     LIBCMT:throw_bad_alloc.obj
 0002:0000b0a0       ??_R2bad_array_new_length@std@@8 000000018002e0a0     LIBCMT:throw_bad_alloc.obj
 0002:0000b0c0       ??_R1A@?0A@EA@bad_array_new_length@std@@8 000000018002e0c0     LIBCMT:throw_bad_alloc.obj
 0002:0000b0e8       ??_R4type_info@@6B@        000000018002e0e8     LIBCMT:std_type_info_static.obj
 0002:0000b110       ??_R3type_info@@8          000000018002e110     LIBCMT:std_type_info_static.obj
 0002:0000b128       ??_R2type_info@@8          000000018002e128     LIBCMT:std_type_info_static.obj
 0002:0000b138       ??_R1A@?0A@EA@type_info@@8 000000018002e138     LIBCMT:std_type_info_static.obj
 0002:0000b160       ??_R4bad_exception@std@@6B@ 000000018002e160     libvcruntime:frame.obj
 0002:0000b188       ??_R3bad_exception@std@@8  000000018002e188     libvcruntime:frame.obj
 0002:0000b1a0       ??_R2bad_exception@std@@8  000000018002e1a0     libvcruntime:frame.obj
 0002:0000b1b8       ??_R1A@?0A@EA@bad_exception@std@@8 000000018002e1b8     libvcruntime:frame.obj
 0002:0000b5e0       __rtc_iaa                  000000018002e5e0     LIBCMT:initsect.obj
 0002:0000b5e8       __rtc_izz                  000000018002e5e8     LIBCMT:initsect.obj
 0002:0000b5f0       __rtc_taa                  000000018002e5f0     LIBCMT:initsect.obj
 0002:0000b5f8       __rtc_tzz                  000000018002e5f8     LIBCMT:initsect.obj
 0002:0000b600       _tls_start                 000000018002e600     LIBCMT:tlssup.obj
 0002:0000b604       _Init_thread_epoch         000000018002e604     LIBCMT:thread_safe_statics.obj
 0002:0000b608       _tls_end                   000000018002e608     LIBCMT:tlssup.obj
 0002:0000ccc0       _TI2?AVbad_alloc@std@@     000000018002fcc0     LIBCMT:throw_bad_alloc.obj
 0002:0000cce0       _CTA2?AVbad_alloc@std@@    000000018002fce0     LIBCMT:throw_bad_alloc.obj
 0002:0000ccf8       _CT??_R0?AVbad_alloc@std@@@8??0bad_alloc@std@@QEAA@AEBV01@@Z24 000000018002fcf8     LIBCMT:throw_bad_alloc.obj
 0002:0000cd20       _CT??_R0?AVexception@std@@@8??0exception@std@@QEAA@AEBV01@@Z24 000000018002fd20     LIBCMT:throw_bad_alloc.obj
 0002:0000cd48       _TI3?AVbad_array_new_length@std@@ 000000018002fd48     LIBCMT:throw_bad_alloc.obj
 0002:0000cd68       _CTA3?AVbad_array_new_length@std@@ 000000018002fd68     LIBCMT:throw_bad_alloc.obj
 0002:0000cd88       _CT??_R0?AVbad_array_new_length@std@@@8??0bad_array_new_length@std@@QEAA@AEBV01@@Z24 000000018002fd88     LIBCMT:throw_bad_alloc.obj
 0002:0000cdb0       _TI2?AVbad_exception@std@@ 000000018002fdb0     libvcruntime:frame.obj
 0002:0000cdd0       _CTA2?AVbad_exception@std@@ 000000018002fdd0     libvcruntime:frame.obj
 0002:0000cde8       _CT??_R0?AVbad_exception@std@@@8??0bad_exception@std@@QEAA@AEBV01@@Z24 000000018002fde8     libvcruntime:frame.obj
 0002:0000ce10       __pobjMapEntryFirst        000000018002fe10     OposVariant.obj
 0002:0000ce18       __pobjMapEntryLast         000000018002fe18     OposVariant.obj
 0002:0000cec8       __IMPORT_DESCRIPTOR_KERNEL32 000000018002fec8     kernel32:KERNEL32.dll
 0002:0000cedc       __IMPORT_DESCRIPTOR_USER32 000000018002fedc     user32:USER32.dll
 0002:0000cef0       __IMPORT_DESCRIPTOR_GDI32  000000018002fef0     gdi32:GDI32.dll
 0002:0000cf04       __IMPORT_DESCRIPTOR_ADVAPI32 000000018002ff04     advapi32:ADVAPI32.dll
 0002:0000cf18       __IMPORT_DESCRIPTOR_ole32  000000018002ff18     ole32:ole32.dll
 0002:0000cf2c       __IMPORT_DESCRIPTOR_OLEAUT32 000000018002ff2c     oleaut32:OLEAUT32.dll
 0002:0000cf40       __NULL_IMPORT_DESCRIPTOR   000000018002ff40     kernel32:KERNEL32.dll
 0003:00000000       ?s_Claim@?7??GetIDsOfNames@CComTypeInfoHolder@ATL@@QEAAJAEBU_GUID@@PEAPEA_WIKPEAJ@Z@4PA_WA 0000000180032000     MICR.obj
 0003:00000018       ?s_Release@?7??GetIDsOfNames@CComTypeInfoHolder@ATL@@QEAAJAEBU_GUID@@PEAPEA_WIKPEAJ@Z@4PA_WA 0000000180032018     MICR.obj
 0003:00000038       ?_tih@?$IDispatchImpl@UIOPOSMICR@@$1?IID_IOPOSMICR@@3U_GUID@@B$1?LIBID_OposMICR_CCO@@3U3@B$00$0A@VCComTypeInfoHolder@ATL@@@ATL@@1VCComTypeInfoHolder@2@A 0000000180032038     MICR.obj
 0003:00000070       ?_tih@?$IProvideClassInfo2Impl@$1?CLSID_OPOSMICR@@3U_GUID@@B$1?DIID__IOPOSMICREvents@@3U2@B$1?LIBID_OposMICR_CCO@@3U2@B$00$0A@VCComTypeInfoHolder@ATL@@@ATL@@1VCComTypeInfoHolder@2@A 0000000180032070     MICR.obj
 0003:000000a8       ?vszContents@?6??Save@?$IPersistStorageImpl@VCOPOSMICR@@@ATL@@UEAAJPEAUIStorage@@H@Z@4PEB_WEB 00000001800320a8     MICR.obj
 0003:000000b0       ?wc@?1??GetWndClassInfo@?$CWindowImpl@VCOPOSMICR@@VCWindow@ATL@@V?$CWinTraits@$0FGAAAAAA@$0A@@3@@ATL@@SAAEAU_ATL_WNDCLASSINFOW@3@XZ@4U43@A 00000001800320b0     MICR.obj
 0003:000001a8       ?rcDefault@CWindow@ATL@@2UtagRECT@@A 00000001800321a8     MICR.obj
 0003:00000250       ?g_WindowName@@3PA_WA      0000000180032250     MICRImpl.obj
 0003:00000268       ?g_ControlVersion@@3JA     0000000180032268     MICRImpl.obj
 0003:00000270       ?g_ControlDescription@@3PADA 0000000180032270     MICRImpl.obj
 0003:000003a4       __scrt_native_dllmain_reason 00000001800323a4     LIBCMT:utility.obj
 0003:000003a8       _Init_global_epoch         00000001800323a8     LIBCMT:thread_safe_statics.obj
 0003:000003b0       __security_cookie_complement 00000001800323b0     LIBCMT:gs_cookie.obj
 0003:000003b8       __security_cookie          00000001800323b8     LIBCMT:gs_cookie.obj
 0003:000003c0       __isa_available            00000001800323c0     LIBCMT:cpu_disp.obj
 0003:000003c4       __isa_enabled              00000001800323c4     LIBCMT:cpu_disp.obj
 0003:000003c8       __memcpy_nt_iters          00000001800323c8     LIBCMT:cpu_disp.obj
 0003:000003d0       __memset_nt_iters          00000001800323d0     LIBCMT:cpu_disp.obj
 0003:000003f8       __abort_behavior           00000001800323f8     libucrt:abort.obj
 0003:00000410       _iob                       0000000180032410     libucrt:_file.obj
 0003:00000520       __acrt_initial_locale_data 0000000180032520     libucrt:nlsdata.obj
 0003:00000678       __acrt_initial_locale_pointers 0000000180032678     libucrt:nlsdata.obj
 0003:00000688       __acrt_wide_c_locale_string 0000000180032688     libucrt:nlsdata.obj
 0003:00000690       __acrt_initial_multibyte_data 0000000180032690     libucrt:mbctype.obj
 0003:00000bd0       _pwctype                   0000000180032bd0     libucrt:ctype.obj
 0003:00000bd8       __globallocalestatus       0000000180032bd8     libucrt:glstatus.obj
 0003:00000be0       __acrt_lconv_c             0000000180032be0     libucrt:localeconv.obj
 0003:00000c78       __acrt_lconv_static_decimal 0000000180032c78     libucrt:localeconv.obj
 0003:00000c7c       __acrt_lconv_static_W_decimal 0000000180032c7c     libucrt:localeconv.obj
 0003:00000c80       _lookuptrailbytes          0000000180032c80     libucrt:read.obj
 0003:00000da4       _fltused                   0000000180032da4     LIBCMT:fltused.obj
 0003:00000da8       ??_R0?AVbad_alloc@std@@@8  0000000180032da8     LIBCMT:throw_bad_alloc.obj
 0003:00000dd0       ??_R0?AVexception@std@@@8  0000000180032dd0     LIBCMT:throw_bad_alloc.obj
 0003:00000df8       ??_R0?AVbad_array_new_length@std@@@8 0000000180032df8     LIBCMT:throw_bad_alloc.obj
 0003:00000e28       ??_R0?AVtype_info@@@8      0000000180032e28     LIBCMT:std_type_info_static.obj
 0003:00000e48       ??_R0?AVbad_exception@std@@@8 0000000180032e48     libvcruntime:frame.obj
 0003:00000e70       ?_pPerfRegFunc@ATL@@3P6AJPEAUHINSTANCE__@@@ZEA 0000000180032e70     OposVariant.obj
 0003:00000e78       ?_pPerfUnRegFunc@ATL@@3P6AJXZEA 0000000180032e78     OposVariant.obj
 0003:00000e80       ?_AtlRegisterPerUser@ATL@@3_NA 0000000180032e80     OposVariant.obj
 0003:00000e88       ?_pAtlModule@ATL@@3PEAVCAtlModule@1@EA 0000000180032e88     OposVariant.obj
 0003:00000e90       ?_pModule@ATL@@3PEAVCComModule@1@EA 0000000180032e90     OposVariant.obj
 0003:00000e98       ?m_bInitFailed@CAtlBaseModule@ATL@@2_NA 0000000180032e98     OposVariant.obj
 0003:00000ea0       ?_AtlComModule@ATL@@3VCAtlComModule@1@A 0000000180032ea0     OposVariant.obj
 0003:00000ef0       ?_AtlWinModule@ATL@@3VCAtlWinModule@1@A 0000000180032ef0     OposVariant.obj
 0003:00000f38       ?m_libid@CAtlModule@ATL@@2U_GUID@@A 0000000180032f38     MICR.obj
 0003:00000f48       ?_entries@?1??GetConnMap@COPOSMICR@@SAPEBU_ATL_CONNMAP_ENTRY@ATL@@PEAH@Z@4QBU34@B 0000000180032f48     MICR.obj
 0003:00000f60       ?$TSS0@?1??GetConnMap@COPOSMICR@@SAPEBU_ATL_CONNMAP_ENTRY@ATL@@PEAH@Z@4HA 0000000180032f60     MICR.obj
 0003:00000f68       ?_OptionsStorage@?1??__local_stdio_printf_options@@9@4_KA 0000000180032f68     MICR.obj
 0003:00000f70       ?pfnRegDeleteKeyEx@?1??DeleteSubKey@CRegKey@ATL@@QEAAJPEB_W@Z@4P6AJPEAUHKEY__@@0KK@ZEA 0000000180032f70     MICR.obj
 0003:00000f78       ?bInitialized@?1??DeleteSubKey@CRegKey@ATL@@QEAAJPEB_W@Z@4_NA 0000000180032f78     MICR.obj
 0003:00000f80       ?_Module@@3VCComModule@ATL@@A 0000000180032f80     MICR.obj
 0003:00000fd0       ?pConnMap@?$IConnectionPointContainerImpl@VCOPOSMICR@@@ATL@@0PEBU_ATL_CONNMAP_ENTRY@2@EB 0000000180032fd0     MICR.obj
 0003:00000fd8       ?s_nInstances@COPOSMICR@@1HA 0000000180032fd8     MICRImpl.obj
 0003:00000fe0       __scrt_current_native_startup_state 0000000180032fe0     LIBCMT:utility.obj
 0003:00000fe8       __scrt_native_startup_lock 0000000180032fe8     LIBCMT:utility.obj
 0003:000015e0       _tls_index                 00000001800335e0     LIBCMT:tlssup.obj
 0003:000015e8       __favor                    00000001800335e8     LIBCMT:cpu_disp.obj
 0003:000015ec       __scrt_debugger_hook_flag  00000001800335ec     LIBCMT:utility_desktop.obj
 0003:000015f0       ?__type_info_root_node@@3U__type_info_node@@A 00000001800335f0     LIBCMT:tncleanup.obj
 0003:00001600       ?_OptionsStorage@?1??__local_stdio_scanf_options@@9@4_KA 0000000180033600     LIBCMT:default_local_stdio_options.obj
 0003:00001610       ?_AtlBaseModule@ATL@@3VCAtlBaseModule@1@A 0000000180033610     atls:atlbase.obj
 0003:00001670       ?__AtlThunkPool@@3PEAT_SLIST_HEADER@@EA 0000000180033670     atls:atlthunk.obj
 0003:0000169c       __@@_PchSym_@00@UzABUPdlipUGUhUrmgvinvwrzgvUexgllohUzgohOmzgrevkilqPBACIAJCBDBUlyqiUznwGEUhgwzucOlyq@4B2008FD98C1DD4 000000018003369c     atls:stdafx.obj
 0003:000016a0       ?__WinRTOutOfMemoryExceptionCallback@@3P6APEAXXZEA 00000001800336a0     libvcruntime:ehhelpers.obj
 0003:000016a8       __pPurecall                00000001800336a8     libvcruntime:purevirt_data.obj
 0003:00001760       ?pArgList@UnDecorator@@0PEAVReplicator@@EA 0000000180033760     libvcruntime:undname.obj
 0003:00001768       ?pZNameList@UnDecorator@@0PEAVReplicator@@EA 0000000180033768     libvcruntime:undname.obj
 0003:00001770       ?pTemplateArgList@UnDecorator@@0PEAVReplicator@@EA 0000000180033770     libvcruntime:undname.obj
 0003:00001778       ?gName@UnDecorator@@0PEBDEB 0000000180033778     libvcruntime:undname.obj
 0003:00001780       ?name@UnDecorator@@0PEBDEB 0000000180033780     libvcruntime:undname.obj
 0003:00001788       ?disableFlags@UnDecorator@@0KA 0000000180033788     libvcruntime:undname.obj
 0003:0000178c       ?fExplicitTemplateParams@UnDecorator@@0_NA 000000018003378c     libvcruntime:undname.obj
 0003:0000178d       ?fGetTemplateArgumentList@UnDecorator@@0_NA 000000018003378d     libvcruntime:undname.obj
 0003:00001790       ?m_pGetParameter@UnDecorator@@0P6APEADJ@ZEA 0000000180033790     libvcruntime:undname.obj
 0003:00001798       ?m_CHPENameOffset@UnDecorator@@0KA 0000000180033798     libvcruntime:undname.obj
 0003:0000179c       ?m_recursionLevel@UnDecorator@@0KA 000000018003379c     libvcruntime:undname.obj
 0003:00001820       ?c_exit_complete@?1???R<lambda_6e4b09c48022b2350581041d5f6b0c4c>@@QEBA@XZ@4_NA 0000000180033820     libucrt:exit.obj
 0003:00001938       _environ_table             0000000180033938     libucrt:environment_initialization.obj
 0003:00001940       _wenviron_table            0000000180033940     libucrt:environment_initialization.obj
 0003:00001948       __dcrt_initial_wide_environment 0000000180033948     libucrt:environment_initialization.obj
 0003:00001950       __dcrt_initial_narrow_environment 0000000180033950     libucrt:environment_initialization.obj
 0003:00001958       __acrt_atexit_table        0000000180033958     libucrt:onexit.obj
 0003:00001970       __acrt_at_quick_exit_table 0000000180033970     libucrt:onexit.obj
 0003:00001b48       _nstream                   0000000180033b48     libucrt:_file.obj
 0003:00001b50       __piob                     0000000180033b50     libucrt:_file.obj
 0003:00001b60       __acrt_stdout_buffer       0000000180033b60     libucrt:_sftbuf.obj
 0003:00001b68       __acrt_stderr_buffer       0000000180033b68     libucrt:_sftbuf.obj
 0003:00001b70       __acrt_locale_changed_data 0000000180033b70     libucrt:wsetlocale.obj
 0003:00001b78       __acrt_current_locale_data 0000000180033b78     libucrt:nlsdata.obj
 0003:00001b80       __pioinfo                  0000000180033b80     libucrt:ioinit.obj
 0003:00001f80       _nhandle                   0000000180033f80     libucrt:ioinit.obj
 0003:000021c8       _mbctype                   00000001800341c8     libucrt:mbctype.obj
 0003:000021d0       _mbcasemap                 00000001800341d0     libucrt:mbctype.obj
 0003:000021d8       __acrt_current_multibyte_data 00000001800341d8     libucrt:mbctype.obj
 0003:000021e8       _pgmptr                    00000001800341e8     libucrt:argv_data.obj
 0003:000021f0       __argc                     00000001800341f0     libucrt:argv_data.obj
 0003:000021f8       __argv                     00000001800341f8     libucrt:argv_data.obj
 0003:00002200       __wargv                    0000000180034200     libucrt:argv_data.obj
 0003:00002208       _acmdln                    0000000180034208     libucrt:argv_data.obj
 0003:00002210       _wcmdln                    0000000180034210     libucrt:argv_data.obj
 0003:00002218       __acrt_heap                0000000180034218     libucrt:heap_handle.obj
 0003:0000224c       __acrt_lconv_static_null   000000018003424c     libucrt:localeconv.obj
 0003:00002250       __acrt_lconv_static_W_null 0000000180034250     libucrt:localeconv.obj
 0003:00002264       __fma3_is_available        0000000180034264     libucrt:fma3_available.obj
 0003:00002268       __use_fma3_lib             0000000180034268     libucrt:fma3_available.obj
 0003:00002270       __dyn_tls_init_callback    0000000180034270     <common>
 0003:00002278       __scrt_ucrt_dll_is_in_use  0000000180034278     <common>

 entry point at        0001:0000ec04

 Static symbols

 0000:fffc2000       .debug$S                   0000000180000000     OPOSMICR.exp
 0000:fffc2000       .debug$S                   0000000180000000     advapi32:ADVAPI32.dll
 0000:fffc2000       .debug$S                   0000000180000000     advapi32:ADVAPI32.dll
 0000:fffc2000       .debug$S                   0000000180000000     advapi32:ADVAPI32.dll
 0000:fffc2000       .debug$S                   0000000180000000     advapi32:ADVAPI32.dll
 0000:fffc2000       .debug$S                   0000000180000000     advapi32:ADVAPI32.dll
 0000:fffc2000       .debug$S                   0000000180000000     advapi32:ADVAPI32.dll
 0000:fffc2000       .debug$S                   0000000180000000     advapi32:ADVAPI32.dll
 0000:fffc2000       .debug$S                   0000000180000000     advapi32:ADVAPI32.dll
 0000:fffc2000       .debug$S                   0000000180000000     advapi32:ADVAPI32.dll
 0000:fffc2000       .debug$S                   0000000180000000     gdi32:GDI32.dll
 0000:fffc2000       .debug$S                   0000000180000000     gdi32:GDI32.dll
 0000:fffc2000       .debug$S                   0000000180000000     gdi32:GDI32.dll
 0000:fffc2000       .debug$S                   0000000180000000     gdi32:GDI32.dll
 0000:fffc2000       .debug$S                   0000000180000000     gdi32:GDI32.dll
 0000:fffc2000       .debug$S                   0000000180000000     gdi32:GDI32.dll
 0000:fffc2000       .debug$S                   0000000180000000     gdi32:GDI32.dll
 0000:fffc2000       .debug$S                   0000000180000000     gdi32:GDI32.dll
 0000:fffc2000       .debug$S                   0000000180000000     gdi32:GDI32.dll
 0000:fffc2000       .debug$S                   0000000180000000     gdi32:GDI32.dll
 0000:fffc2000       .debug$S                   0000000180000000     gdi32:GDI32.dll
 0000:fffc2000       .debug$S                   0000000180000000     gdi32:GDI32.dll
 0000:fffc2000       .debug$S                   0000000180000000     gdi32:GDI32.dll
 0000:fffc2000       .debug$S                   0000000180000000     gdi32:GDI32.dll
 0000:fffc2000       .debug$S                   0000000180000000     gdi32:GDI32.dll
 0000:fffc2000       .debug$S                   0000000180000000     gdi32:GDI32.dll
 0000:fffc2000       .debug$S                   0000000180000000     gdi32:GDI32.dll
 0000:fffc2000       .debug$S                   0000000180000000     gdi32:GDI32.dll
 0000:fffc2000       .debug$S                   0000000180000000     gdi32:GDI32.dll
 0000:fffc2000       .debug$S                   0000000180000000     kernel32:KERNEL32.dll
 0000:fffc2000       .debug$S                   0000000180000000     kernel32:KERNEL32.dll
 0000:fffc2000       .debug$S                   0000000180000000     kernel32:KERNEL32.dll
 0000:fffc2000       .debug$S                   0000000180000000     kernel32:KERNEL32.dll
 0000:fffc2000       .debug$S                   0000000180000000     kernel32:KERNEL32.dll
 0000:fffc2000       .debug$S                   0000000180000000     kernel32:KERNEL32.dll
 0000:fffc2000       .debug$S                   0000000180000000     kernel32:KERNEL32.dll
 0000:fffc2000       .debug$S                   0000000180000000     kernel32:KERNEL32.dll
 0000:fffc2000       .debug$S                   0000000180000000     kernel32:KERNEL32.dll
 0000:fffc2000       .debug$S                   0000000180000000     kernel32:KERNEL32.dll
 0000:fffc2000       .debug$S                   0000000180000000     kernel32:KERNEL32.dll
 0000:fffc2000       .debug$S                   0000000180000000     kernel32:KERNEL32.dll
 0000:fffc2000       .debug$S                   0000000180000000     kernel32:KERNEL32.dll
 0000:fffc2000       .debug$S                   0000000180000000     kernel32:KERNEL32.dll
 0000:fffc2000       .debug$S                   0000000180000000     kernel32:KERNEL32.dll
 0000:fffc2000       .debug$S                   0000000180000000     kernel32:KERNEL32.dll
 0000:fffc2000       .debug$S                   0000000180000000     kernel32:KERNEL32.dll
 0000:fffc2000       .debug$S                   0000000180000000     kernel32:KERNEL32.dll
 0000:fffc2000       .debug$S                   0000000180000000     kernel32:KERNEL32.dll
 0000:fffc2000       .debug$S                   0000000180000000     kernel32:KERNEL32.dll
 0000:fffc2000       .debug$S                   0000000180000000     kernel32:KERNEL32.dll
 0000:fffc2000       .debug$S                   0000000180000000     kernel32:KERNEL32.dll
 0000:fffc2000       .debug$S                   0000000180000000     kernel32:KERNEL32.dll
 0000:fffc2000       .debug$S                   0000000180000000     kernel32:KERNEL32.dll
 0000:fffc2000       .debug$S                   0000000180000000     kernel32:KERNEL32.dll
 0000:fffc2000       .debug$S                   0000000180000000     kernel32:KERNEL32.dll
 0000:fffc2000       .debug$S                   0000000180000000     kernel32:KERNEL32.dll
 0000:fffc2000       .debug$S                   0000000180000000     kernel32:KERNEL32.dll
 0000:fffc2000       .debug$S                   0000000180000000     kernel32:KERNEL32.dll
 0000:fffc2000       .debug$S                   0000000180000000     kernel32:KERNEL32.dll
 0000:fffc2000       .debug$S                   0000000180000000     kernel32:KERNEL32.dll
 0000:fffc2000       .debug$S                   0000000180000000     kernel32:KERNEL32.dll
 0000:fffc2000       .debug$S                   0000000180000000     kernel32:KERNEL32.dll
 0000:fffc2000       .debug$S                   0000000180000000     kernel32:KERNEL32.dll
 0000:fffc2000       .debug$S                   0000000180000000     kernel32:KERNEL32.dll
 0000:fffc2000       .debug$S                   0000000180000000     kernel32:KERNEL32.dll
 0000:fffc2000       .debug$S                   0000000180000000     kernel32:KERNEL32.dll
 0000:fffc2000       .debug$S                   0000000180000000     kernel32:KERNEL32.dll
 0000:fffc2000       .debug$S                   0000000180000000     kernel32:KERNEL32.dll
 0000:fffc2000       .debug$S                   0000000180000000     kernel32:KERNEL32.dll
 0000:fffc2000       .debug$S                   0000000180000000     kernel32:KERNEL32.dll
 0000:fffc2000       .debug$S                   0000000180000000     kernel32:KERNEL32.dll
 0000:fffc2000       .debug$S                   0000000180000000     kernel32:KERNEL32.dll
 0000:fffc2000       .debug$S                   0000000180000000     kernel32:KERNEL32.dll
 0000:fffc2000       .debug$S                   0000000180000000     kernel32:KERNEL32.dll
 0000:fffc2000       .debug$S                   0000000180000000     kernel32:KERNEL32.dll
 0000:fffc2000       .debug$S                   0000000180000000     kernel32:KERNEL32.dll
 0000:fffc2000       .debug$S                   0000000180000000     kernel32:KERNEL32.dll
 0000:fffc2000       .debug$S                   0000000180000000     kernel32:KERNEL32.dll
 0000:fffc2000       .debug$S                   0000000180000000     kernel32:KERNEL32.dll
 0000:fffc2000       .debug$S                   0000000180000000     kernel32:KERNEL32.dll
 0000:fffc2000       .debug$S                   0000000180000000     kernel32:KERNEL32.dll
 0000:fffc2000       .debug$S                   0000000180000000     kernel32:KERNEL32.dll
 0000:fffc2000       .debug$S                   0000000180000000     kernel32:KERNEL32.dll
 0000:fffc2000       .debug$S                   0000000180000000     kernel32:KERNEL32.dll
 0000:fffc2000       .debug$S                   0000000180000000     kernel32:KERNEL32.dll
 0000:fffc2000       .debug$S                   0000000180000000     kernel32:KERNEL32.dll
 0000:fffc2000       .debug$S                   0000000180000000     kernel32:KERNEL32.dll
 0000:fffc2000       .debug$S                   0000000180000000     kernel32:KERNEL32.dll
 0000:fffc2000       .debug$S                   0000000180000000     kernel32:KERNEL32.dll
 0000:fffc2000       .debug$S                   0000000180000000     kernel32:KERNEL32.dll
 0000:fffc2000       .debug$S                   0000000180000000     kernel32:KERNEL32.dll
 0000:fffc2000       .debug$S                   0000000180000000     kernel32:KERNEL32.dll
 0000:fffc2000       .debug$S                   0000000180000000     kernel32:KERNEL32.dll
 0000:fffc2000       .debug$S                   0000000180000000     kernel32:KERNEL32.dll
 0000:fffc2000       .debug$S                   0000000180000000     kernel32:KERNEL32.dll
 0000:fffc2000       .debug$S                   0000000180000000     kernel32:KERNEL32.dll
 0000:fffc2000       .debug$S                   0000000180000000     kernel32:KERNEL32.dll
 0000:fffc2000       .debug$S                   0000000180000000     kernel32:KERNEL32.dll
 0000:fffc2000       .debug$S                   0000000180000000     kernel32:KERNEL32.dll
 0000:fffc2000       .debug$S                   0000000180000000     kernel32:KERNEL32.dll
 0000:fffc2000       .debug$S                   0000000180000000     kernel32:KERNEL32.dll
 0000:fffc2000       .debug$S                   0000000180000000     kernel32:KERNEL32.dll
 0000:fffc2000       .debug$S                   0000000180000000     kernel32:KERNEL32.dll
 0000:fffc2000       .debug$S                   0000000180000000     kernel32:KERNEL32.dll
 0000:fffc2000       .debug$S                   0000000180000000     kernel32:KERNEL32.dll
 0000:fffc2000       .debug$S                   0000000180000000     kernel32:KERNEL32.dll
 0000:fffc2000       .debug$S                   0000000180000000     kernel32:KERNEL32.dll
 0000:fffc2000       .debug$S                   0000000180000000     kernel32:KERNEL32.dll
 0000:fffc2000       .debug$S                   0000000180000000     kernel32:KERNEL32.dll
 0000:fffc2000       .debug$S                   0000000180000000     kernel32:KERNEL32.dll
 0000:fffc2000       .debug$S                   0000000180000000     kernel32:KERNEL32.dll
 0000:fffc2000       .debug$S                   0000000180000000     kernel32:KERNEL32.dll
 0000:fffc2000       .debug$S                   0000000180000000     kernel32:KERNEL32.dll
 0000:fffc2000       .debug$S                   0000000180000000     kernel32:KERNEL32.dll
 0000:fffc2000       .debug$S                   0000000180000000     kernel32:KERNEL32.dll
 0000:fffc2000       .debug$S                   0000000180000000     kernel32:KERNEL32.dll
 0000:fffc2000       .debug$S                   0000000180000000     kernel32:KERNEL32.dll
 0000:fffc2000       .debug$S                   0000000180000000     kernel32:KERNEL32.dll
 0000:fffc2000       .debug$S                   0000000180000000     kernel32:KERNEL32.dll
 0000:fffc2000       .debug$S                   0000000180000000     kernel32:KERNEL32.dll
 0000:fffc2000       .debug$S                   0000000180000000     kernel32:KERNEL32.dll
 0000:fffc2000       .debug$S                   0000000180000000     kernel32:KERNEL32.dll
 0000:fffc2000       .debug$S                   0000000180000000     kernel32:KERNEL32.dll
 0000:fffc2000       .debug$S                   0000000180000000     kernel32:KERNEL32.dll
 0000:fffc2000       .debug$S                   0000000180000000     kernel32:KERNEL32.dll
 0000:fffc2000       .debug$S                   0000000180000000     kernel32:KERNEL32.dll
 0000:fffc2000       .debug$S                   0000000180000000     kernel32:KERNEL32.dll
 0000:fffc2000       .debug$S                   0000000180000000     kernel32:KERNEL32.dll
 0000:fffc2000       .debug$S                   0000000180000000     kernel32:KERNEL32.dll
 0000:fffc2000       .debug$S                   0000000180000000     kernel32:KERNEL32.dll
 0000:fffc2000       .debug$S                   0000000180000000     kernel32:KERNEL32.dll
 0000:fffc2000       .debug$S                   0000000180000000     kernel32:KERNEL32.dll
 0000:fffc2000       .debug$S                   0000000180000000     kernel32:KERNEL32.dll
 0000:fffc2000       .debug$S                   0000000180000000     kernel32:KERNEL32.dll
 0000:fffc2000       .debug$S                   0000000180000000     kernel32:KERNEL32.dll
 0000:fffc2000       .debug$S                   0000000180000000     kernel32:KERNEL32.dll
 0000:fffc2000       .debug$S                   0000000180000000     kernel32:KERNEL32.dll
 0000:fffc2000       .debug$S                   0000000180000000     kernel32:KERNEL32.dll
 0000:fffc2000       .debug$S                   0000000180000000     kernel32:KERNEL32.dll
 0000:fffc2000       .debug$S                   0000000180000000     kernel32:KERNEL32.dll
 0000:fffc2000       .debug$S                   0000000180000000     ole32:ole32.dll
 0000:fffc2000       .debug$S                   0000000180000000     ole32:ole32.dll
 0000:fffc2000       .debug$S                   0000000180000000     ole32:ole32.dll
 0000:fffc2000       .debug$S                   0000000180000000     ole32:ole32.dll
 0000:fffc2000       .debug$S                   0000000180000000     ole32:ole32.dll
 0000:fffc2000       .debug$S                   0000000180000000     ole32:ole32.dll
 0000:fffc2000       .debug$S                   0000000180000000     ole32:ole32.dll
 0000:fffc2000       .debug$S                   0000000180000000     ole32:ole32.dll
 0000:fffc2000       .debug$S                   0000000180000000     ole32:ole32.dll
 0000:fffc2000       .debug$S                   0000000180000000     ole32:ole32.dll
 0000:fffc2000       .debug$S                   0000000180000000     ole32:ole32.dll
 0000:fffc2000       .debug$S                   0000000180000000     ole32:ole32.dll
 0000:fffc2000       .debug$S                   0000000180000000     ole32:ole32.dll
 0000:fffc2000       .debug$S                   0000000180000000     ole32:ole32.dll
 0000:fffc2000       .debug$S                   0000000180000000     oleaut32:OLEAUT32.dll
 0000:fffc2000       .debug$S                   0000000180000000     oleaut32:OLEAUT32.dll
 0000:fffc2000       .debug$S                   0000000180000000     oleaut32:OLEAUT32.dll
 0000:fffc2000       .debug$S                   0000000180000000     oleaut32:OLEAUT32.dll
 0000:fffc2000       .debug$S                   0000000180000000     oleaut32:OLEAUT32.dll
 0000:fffc2000       .debug$S                   0000000180000000     oleaut32:OLEAUT32.dll
 0000:fffc2000       .debug$S                   0000000180000000     oleaut32:OLEAUT32.dll
 0000:fffc2000       .debug$S                   0000000180000000     oleaut32:OLEAUT32.dll
 0000:fffc2000       .debug$S                   0000000180000000     oleaut32:OLEAUT32.dll
 0000:fffc2000       .debug$S                   0000000180000000     oleaut32:OLEAUT32.dll
 0000:fffc2000       .debug$S                   0000000180000000     oleaut32:OLEAUT32.dll
 0000:fffc2000       .debug$S                   0000000180000000     oleaut32:OLEAUT32.dll
 0000:fffc2000       .debug$S                   0000000180000000     oleaut32:OLEAUT32.dll
 0000:fffc2000       .debug$S                   0000000180000000     oleaut32:OLEAUT32.dll
 0000:fffc2000       .debug$S                   0000000180000000     oleaut32:OLEAUT32.dll
 0000:fffc2000       .debug$S                   0000000180000000     oleaut32:OLEAUT32.dll
 0000:fffc2000       .debug$S                   0000000180000000     user32:USER32.dll
 0000:fffc2000       .debug$S                   0000000180000000     user32:USER32.dll
 0000:fffc2000       .debug$S                   0000000180000000     user32:USER32.dll
 0000:fffc2000       .debug$S                   0000000180000000     user32:USER32.dll
 0000:fffc2000       .debug$S                   0000000180000000     user32:USER32.dll
 0000:fffc2000       .debug$S                   0000000180000000     user32:USER32.dll
 0000:fffc2000       .debug$S                   0000000180000000     user32:USER32.dll
 0000:fffc2000       .debug$S                   0000000180000000     user32:USER32.dll
 0000:fffc2000       .debug$S                   0000000180000000     user32:USER32.dll
 0000:fffc2000       .debug$S                   0000000180000000     user32:USER32.dll
 0000:fffc2000       .debug$S                   0000000180000000     user32:USER32.dll
 0000:fffc2000       .debug$S                   0000000180000000     user32:USER32.dll
 0000:fffc2000       .debug$S                   0000000180000000     user32:USER32.dll
 0000:fffc2000       .debug$S                   0000000180000000     user32:USER32.dll
 0000:fffc2000       .debug$S                   0000000180000000     user32:USER32.dll
 0000:fffc2000       .debug$S                   0000000180000000     user32:USER32.dll
 0000:fffc2000       .debug$S                   0000000180000000     user32:USER32.dll
 0000:fffc2000       .debug$S                   0000000180000000     user32:USER32.dll
 0000:fffc2000       .debug$S                   0000000180000000     user32:USER32.dll
 0000:fffc2000       .debug$S                   0000000180000000     user32:USER32.dll
 0000:fffc2000       .debug$S                   0000000180000000     user32:USER32.dll
 0000:fffc2000       .debug$S                   0000000180000000     user32:USER32.dll
 0000:fffc2000       .debug$S                   0000000180000000     user32:USER32.dll
 0000:fffc2000       .debug$S                   0000000180000000     user32:USER32.dll
 0000:fffc2000       .debug$S                   0000000180000000     user32:USER32.dll
 0000:fffc2000       .debug$S                   0000000180000000     user32:USER32.dll
 0000:fffc2000       .debug$S                   0000000180000000     user32:USER32.dll
 0000:fffc2000       .debug$S                   0000000180000000     user32:USER32.dll
 0000:fffc2000       .debug$S                   0000000180000000     user32:USER32.dll
 0000:fffc2000       .debug$S                   0000000180000000     user32:USER32.dll
 0000:fffc2000       .debug$S                   0000000180000000     user32:USER32.dll
 0000:fffc2000       .debug$S                   0000000180000000     user32:USER32.dll
 0000:fffc2000       .debug$S                   0000000180000000     user32:USER32.dll
 0000:fffc2000       .debug$S                   0000000180000000     user32:USER32.dll
 0000:fffc2000       .debug$S                   0000000180000000     user32:USER32.dll
 0001:00000000       ??__E_AtlComModule@ATL@@YAXXZ 0000000180001000 f   OposVariant.obj
 0001:00000020       ??__E_AtlWinModule@ATL@@YAXXZ 0000000180001020 f   OposVariant.obj
 0001:00000040       ??__E?pConnMap@?$IConnectionPointContainerImpl@VCOPOSMICR@@@ATL@@0PEBU_ATL_CONNMAP_ENTRY@2@EB@@YAXXZ 0000000180001040 f   MICR.obj
 0001:00000058       ??__E_Module@@YAXXZ        0000000180001058 f   MICR.obj
 0001:00000094       ??__E_AtlBaseModule@ATL@@YAXXZ 0000000180001094 f   atls:atlbase.obj
 0001:0000e214       ?__scrt_initialize_thread_safe_statics@@YAHXZ 000000018000f214 f   LIBCMT:thread_safe_statics.obj
 0001:0000e2e4       ?__scrt_uninitialize_thread_safe_statics@@YAXXZ 000000018000f2e4 f   LIBCMT:thread_safe_statics.obj
 0001:0000e634       capture_current_context    000000018000f634 f   LIBCMT:gs_report.obj
 0001:0000e6a4       capture_previous_context   000000018000f6a4 f   LIBCMT:gs_report.obj
 0001:0000e840       $$000000                   000000018000f840     LIBCMT:chkstk.obj
 0001:0000e8b0       $$000000                   000000018000f8b0     LIBCMT:amdsecgs.obj
 0001:0000e8e4       ?dllmain_crt_dispatch@@YAHQEAUHINSTANCE__@@KQEAX@Z 000000018000f8e4 f   LIBCMT:dll_dllmain.obj
 0001:0000e934       ?dllmain_crt_process_attach@@YAHQEAUHINSTANCE__@@QEAX@Z 000000018000f934 f   LIBCMT:dll_dllmain.obj
 0001:0000ea4c       ?dllmain_crt_process_detach@@YAH_N@Z 000000018000fa4c f   LIBCMT:dll_dllmain.obj
 0001:0000ead0       ?dllmain_dispatch@@YAHQEAUHINSTANCE__@@KQEAX@Z 000000018000fad0 f   LIBCMT:dll_dllmain.obj
 0001:0000f398       ??$GetProcAddressAll@P6AP6A_JPEAUHWND__@@I_K_J@ZPEAUAtlThunkData_t@@@Z@@YAP6AP6A_JPEAUHWND__@@I_K_J@ZPEAUAtlThunkData_t@@@ZPEAP6AP6A_J0I12@Z3@Z@Z 0000000180010398 f   atls:atlthunk.obj
 0001:0000f398       ??$GetProcAddressAll@P6APEAUAtlThunkData_t@@XZ@@YAP6APEAUAtlThunkData_t@@XZPEAP6APEAU0@XZ@Z 0000000180010398 f   atls:atlthunk.obj
 0001:0000f398       ??$GetProcAddressAll@P6AXPEAUAtlThunkData_t@@@Z@@YAP6AXPEAUAtlThunkData_t@@@ZPEAP6AX0@Z@Z 0000000180010398 f   atls:atlthunk.obj
 0001:0000f398       ??$GetProcAddressAll@P6AXPEAUAtlThunkData_t@@PEAX_K@Z@@YAP6AXPEAUAtlThunkData_t@@PEAX_K@ZPEAP6AX012@Z@Z 0000000180010398 f   atls:atlthunk.obj
 0001:0000f570       ?__InitializeThunkPool@@YAHXZ 0000000180010570 f   atls:atlthunk.obj
 0001:0000fa10       $$000000                   0000000180010a10     libvcruntime:memcmp.obj
 0001:0000faf0       $$000000                   0000000180010af0     libvcruntime:memcpy.obj
 0001:0000ff00       $$000000                   0000000180010f00     libvcruntime:memset.obj
 0001:00011010       $$000000                   0000000180012010     libvcruntime:notify.obj
 0001:0001117c       ??$BuildCatchObjectHelperInternal@V__FrameHandler4@@@@YAHPEAUEHExceptionRecord@@PEAXPEAUHandlerType4@FH4@@PEBU_s_CatchableType@@@Z 000000018001217c f   libvcruntime:frame.obj
 0001:00011380       ??$BuildCatchObjectInternal@V__FrameHandler4@@@@YAXPEAUEHExceptionRecord@@PEAXPEAUHandlerType4@FH4@@PEBU_s_CatchableType@@@Z 0000000180012380 f   libvcruntime:frame.obj
 0001:00011444       ??$CatchIt@V__FrameHandler4@@@@YAXPEAUEHExceptionRecord@@PEA_KPEAU_CONTEXT@@PEAU_xDISPATCHER_CONTEXT@@PEAUFuncInfo4@FH4@@PEAUHandlerType4@4@PEBU_s_CatchableType@@PEAUTryBlockMapEntry4@4@H1EE@Z 0000000180012444 f   libvcruntime:frame.obj
 0001:00011518       ??$FindHandler@V__FrameHandler4@@@@YAXPEAUEHExceptionRecord@@PEA_KPEAU_CONTEXT@@PEAU_xDISPATCHER_CONTEXT@@PEAUFuncInfo4@FH4@@EH1@Z 0000000180012518 f   libvcruntime:frame.obj
 0001:00011a28       ??$FindHandlerForForeignException@V__FrameHandler4@@@@YAXPEAUEHExceptionRecord@@PEA_KPEAU_CONTEXT@@PEAU_xDISPATCHER_CONTEXT@@PEAUFuncInfo4@FH4@@HH1@Z 0000000180012a28 f   libvcruntime:frame.obj
 0001:000127b8       ?ExFilterRethrow@@YAHPEAU_EXCEPTION_POINTERS@@PEAUEHExceptionRecord@@PEAH@Z 00000001800137b8 f   libvcruntime:frame.obj
 0001:00012840       ?ExFilterRethrowFH4@@YAHPEAU_EXCEPTION_POINTERS@@PEAUEHExceptionRecord@@HPEAH@Z 0000000180013840 f   libvcruntime:frame.obj
 0001:00012b58       ?IsInExceptionSpec@@YAEPEAUEHExceptionRecord@@PEBU_s_ESTypeList@@@Z 0000000180013b58 f   libvcruntime:frame.obj
 0001:00012c44       ?Is_bad_exception_allowed@@YAEPEBU_s_ESTypeList@@@Z 0000000180013c44 f   libvcruntime:frame.obj
 0001:00012f20       ?try_get_function@@YAPEAXW4function_id@?A0x5302d918@@QEBDQEBW4module_id@2@2@Z 0000000180013f20 f   libvcruntime:winapi_downlevel.obj
 0001:00013200       $$000000                   0000000180014200     libvcruntime:handlers.obj
 0001:00013a18       ??$common_vsprintf@Vformat_validation_base@__crt_stdio_output@@_W@@YAH_KQEA_W0QEB_WQEAU__crt_locale_pointers@@QEAD@Z 0000000180014a18 f   libucrt:output.obj
 0001:000148b8       $LN17                      00000001800158b8     libucrt:output.obj
 0001:0001525c       ??$?RV<lambda_d80eeec6fff315bfe5c115232f3240e3>@@AEAV<lambda_6e4b09c48022b2350581041d5f6b0c4c>@@V<lambda_2358e3775559c9db80273638284d5e45>@@@?$__crt_seh_guarded_call@X@@QEAAX$$QEAV<lambda_d80eeec6fff315bfe5c115232f3240e3>@@AEAV<lambda_6e4b09c48022b2350581041d5f6b0c4c>@@$$QEAV<lambda_2358e3775559c9db80273638284d5e45>@@@Z 000000018001625c f   libucrt:exit.obj
 0001:00015294       ??R<lambda_6e4b09c48022b2350581041d5f6b0c4c>@@QEBA@XZ 0000000180016294 f   libucrt:exit.obj
 0001:00015358       ?atexit_exception_filter@@YAHK@Z 0000000180016358 f   libucrt:exit.obj
 0001:00015364       ?common_exit@@YAXHW4_crt_exit_cleanup_mode@@W4_crt_exit_return_mode@@@Z 0000000180016364 f   libucrt:exit.obj
 0001:00015420       ?exit_or_terminate_process@@YAXI@Z 0000000180016420 f   libucrt:exit.obj
 0001:0001546c       ?try_cor_exit_process@@YAXI@Z 000000018001646c f   libucrt:exit.obj
 0001:000154f4       ??$parse_command_line@D@@YAXPEADPEAPEAD0PEA_K2@Z 00000001800164f4 f   libucrt:argv_parsing.obj
 0001:0001589c       ??$common_initialize_environment_nolock@D@@YAHXZ 000000018001689c f   libucrt:environment_initialization.obj
 0001:00015908       ??$create_environment@D@@YAQEAPEADQEAD@Z 0000000180016908 f   libucrt:environment_initialization.obj
 0001:00015a10       ??$free_environment@D@@YAXQEAPEAD@Z 0000000180016a10 f   libucrt:environment_initialization.obj
 0001:00015a10       ??$free_environment@_W@@YAXQEAPEA_W@Z 0000000180016a10 f   libucrt:environment_initialization.obj
 0001:00015a54       ??$uninitialize_environment_internal@D@@YAXAEAPEAPEAD@Z 0000000180016a54 f   libucrt:environment_initialization.obj
 0001:00015a70       ??$uninitialize_environment_internal@_W@@YAXAEAPEAPEA_W@Z 0000000180016a70 f   libucrt:environment_initialization.obj
 0001:00015acc       ??$?RV<lambda_638799b9deba96c50f710eeac98168cd>@@AEAV<lambda_22ebabd17bc4fa466a2aca6d8deb888d>@@V<lambda_a6f7d7db0129f75315ebf26d50c089f1>@@@?$__crt_seh_guarded_call@H@@QEAAH$$QEAV<lambda_638799b9deba96c50f710eeac98168cd>@@AEAV<lambda_22ebabd17bc4fa466a2aca6d8deb888d>@@$$QEAV<lambda_a6f7d7db0129f75315ebf26d50c089f1>@@@Z 0000000180016acc f   libucrt:onexit.obj
 0001:00015b08       ??$?RV<lambda_7777bce6b2f8c936911f934f8298dc43>@@AEAV<lambda_f03950bc5685219e0bcd2087efbe011e>@@V<lambda_3883c3dff614d5e0c5f61bb1ac94921c>@@@?$__crt_seh_guarded_call@H@@QEAAH$$QEAV<lambda_7777bce6b2f8c936911f934f8298dc43>@@AEAV<lambda_f03950bc5685219e0bcd2087efbe011e>@@$$QEAV<lambda_3883c3dff614d5e0c5f61bb1ac94921c>@@@Z 0000000180016b08 f   libucrt:onexit.obj
 0001:00015b44       ??R<lambda_22ebabd17bc4fa466a2aca6d8deb888d>@@QEBAHXZ 0000000180016b44 f   libucrt:onexit.obj
 0001:00015cf4       ??R<lambda_f03950bc5685219e0bcd2087efbe011e>@@QEBAHXZ 0000000180016cf4 f   libucrt:onexit.obj
 0001:00015ec8       initialize_global_variables 0000000180016ec8 f   libucrt:initialization.obj
 0001:00015edc       initialize_c               0000000180016edc f   libucrt:initialization.obj
 0001:00015f00       initialize_environment     0000000180016f00 f   libucrt:initialization.obj
 0001:00015f00       initialize_global_state_isolation 0000000180016f00 f   libucrt:initialization.obj
 0001:00015f00       report_memory_leaks        0000000180016f00 f   libucrt:initialization.obj
 0001:00015f00       uninitialize_c             0000000180016f00 f   libucrt:initialization.obj
 0001:00015f00       uninitialize_global_state_isolation 0000000180016f00 f   libucrt:initialization.obj
 0001:00015f04       uninitialize_environment   0000000180016f04 f   libucrt:initialization.obj
 0001:00015f14       initialize_pointers        0000000180016f14 f   libucrt:initialization.obj
 0001:00015f54       uninitialize_vcruntime     0000000180016f54 f   libucrt:initialization.obj
 0001:00015f5c       uninitialize_allocated_memory 0000000180016f5c f   libucrt:initialization.obj
 0001:00015f9c       uninitialize_allocated_io_buffers 0000000180016f9c f   libucrt:initialization.obj
 0001:00016910       $$000000                   0000000180017910     libucrt:strncmp.obj
 0001:00016a0c       ??$?RV<lambda_0ae27a3a962d80f24befdcbee591983d>@@AEAV<lambda_8d0ee55de4b1038c4002e0adecdf1839>@@V<lambda_dc504788e8f1664fe9b84e20bfb512f2>@@@?$__crt_seh_guarded_call@X@@QEAAX$$QEAV<lambda_0ae27a3a962d80f24befdcbee591983d>@@AEAV<lambda_8d0ee55de4b1038c4002e0adecdf1839>@@$$QEAV<lambda_dc504788e8f1664fe9b84e20bfb512f2>@@@Z 0000000180017a0c f   libucrt:per_thread_data.obj
 0001:00016a4c       ??$?RV<lambda_2d41944a1d46af3157314b8a01080d33>@@AEAV<lambda_8f455de75cd7d7f24b4096f044d8b9e6>@@V<lambda_aa500f224e6afead328df44964fe2772>@@@?$__crt_seh_guarded_call@X@@QEAAX$$QEAV<lambda_2d41944a1d46af3157314b8a01080d33>@@AEAV<lambda_8f455de75cd7d7f24b4096f044d8b9e6>@@$$QEAV<lambda_aa500f224e6afead328df44964fe2772>@@@Z 0000000180017a4c f   libucrt:per_thread_data.obj
 0001:00016a8c       ??$?RV<lambda_aa87e3671a710a21b5dc78c0bdf72e11>@@AEAV<lambda_92619d2358a28f41a33ba319515a20b9>@@V<lambda_6992ecaafeb10aed2b74cb1fae11a551>@@@?$__crt_seh_guarded_call@X@@QEAAX$$QEAV<lambda_aa87e3671a710a21b5dc78c0bdf72e11>@@AEAV<lambda_92619d2358a28f41a33ba319515a20b9>@@$$QEAV<lambda_6992ecaafeb10aed2b74cb1fae11a551>@@@Z 0000000180017a8c f   libucrt:per_thread_data.obj
 0001:00016ad4       ??$?RV<lambda_f2e299630e499de9f9a165e60fcd3db5>@@AEAV<lambda_2ae9d31cdba2644fcbeaf08da7c24588>@@V<lambda_40d01ff24d0e7b3814fdbdcee8eab3c7>@@@?$__crt_seh_guarded_call@X@@QEAAX$$QEAV<lambda_f2e299630e499de9f9a165e60fcd3db5>@@AEAV<lambda_2ae9d31cdba2644fcbeaf08da7c24588>@@$$QEAV<lambda_40d01ff24d0e7b3814fdbdcee8eab3c7>@@@Z 0000000180017ad4 f   libucrt:per_thread_data.obj
 0001:00016b34       ?construct_ptd_array@@YAXQEAU__acrt_ptd@@@Z 0000000180017b34 f   libucrt:per_thread_data.obj
 0001:00016c04       ?destroy_fls@@YAXPEAX@Z    0000000180017c04 f   libucrt:per_thread_data.obj
 0001:00016c24       ?destroy_ptd_array@@YAXQEAU__acrt_ptd@@@Z 0000000180017c24 f   libucrt:per_thread_data.obj
 0001:00016d1c       ?replace_current_thread_locale_nolock@@YAXQEAU__acrt_ptd@@QEAU__crt_locale_data@@@Z 0000000180017d1c f   libucrt:per_thread_data.obj
 0001:00017200       ?try_get_function@@YAPEAXW4function_id@?A0x391cf84c@@QEBDQEBW4module_id@2@2@Z 0000000180018200 f   libucrt:winapi_thunks.obj
 0001:00017bd0       ?fp_format_a@@YAHQEBNPEAD_KQEAD2H_NIQEAU__crt_locale_pointers@@W4__acrt_rounding_mode@@@Z 0000000180018bd0 f   libucrt:cvt.obj
 0001:00017f50       ?fp_format_e@@YAHQEBNQEAD_K12H_NIQEAU__crt_locale_pointers@@W4__acrt_rounding_mode@@@Z 0000000180018f50 f   libucrt:cvt.obj
 0001:00018040       ?fp_format_e_internal@@YAHQEAD_KH_NIQEAU_strflt@@2QEAU__crt_locale_pointers@@@Z 0000000180019040 f   libucrt:cvt.obj
 0001:00018214       ?fp_format_f_internal@@YAHQEAD_KHQEAU_strflt@@_NQEAU__crt_locale_pointers@@@Z 0000000180019214 f   libucrt:cvt.obj
 0001:0001837c       ?fp_format_g@@YAHQEBNQEAD_K12H_NIQEAU__crt_locale_pointers@@@Z 000000018001937c f   libucrt:cvt.obj
 0001:000184bc       ?should_round_up@@YA_NQEBN_KFW4__acrt_rounding_mode@@@Z 00000001800194bc f   libucrt:cvt.obj
 0001:00018ae0       ??$?RV<lambda_410d79af7f07d98d83a3f525b3859a53>@@AEAV<lambda_3e16ef9562a7dcce91392c22ab16ea36>@@V<lambda_38119f0e861e05405d8a144b9b982f0a>@@@?$__crt_seh_guarded_call@X@@QEAAX$$QEAV<lambda_410d79af7f07d98d83a3f525b3859a53>@@AEAV<lambda_3e16ef9562a7dcce91392c22ab16ea36>@@$$QEAV<lambda_38119f0e861e05405d8a144b9b982f0a>@@@Z 0000000180019ae0 f   libucrt:wsetlocale.obj
 0001:00018b8c       ?initialize_inherited_file_handles_nolock@@YAXXZ 0000000180019b8c f   libucrt:ioinit.obj
 0001:00018c7c       ?initialize_stdio_handles_nolock@@YAXXZ 0000000180019c7c f   libucrt:ioinit.obj
 0001:00018ef8       ?<lambda_invoker_cdecl>@<lambda_a1ce4c8ae42411fd470c77163914f50e>@@CAHPEBX0@Z 0000000180019ef8 f   libucrt:argv_wildcards.obj
 0001:00019210       ??$common_expand_argv_wildcards@D@@YAHQEAPEADQEAPEAPEAD@Z 000000018001a210 f   libucrt:argv_wildcards.obj
 0001:0001941c       ??$copy_and_add_argument_to_buffer@D@@YAHQEBD0_KAEAV?$argument_list@D@?A0x5f5c8891@@@Z 000000018001a41c f   libucrt:argv_wildcards.obj
 0001:000195a4       ??$expand_argument_wildcards@D@@YAHQEAD0AEAV?$argument_list@D@?A0x5f5c8891@@@Z 000000018001a5a4 f   libucrt:argv_wildcards.obj
 0001:00019af0       ??$?RV<lambda_efdfa57d1f175319df784efa44bb7b81>@@AEAV<lambda_5f0a4c1567f8adc6734073e5d1e1b35c>@@V<lambda_2e8a7d3640ea6ccb4c2413664c2db6fd>@@@?$__crt_seh_guarded_call@X@@QEAAX$$QEAV<lambda_efdfa57d1f175319df784efa44bb7b81>@@AEAV<lambda_5f0a4c1567f8adc6734073e5d1e1b35c>@@$$QEAV<lambda_2e8a7d3640ea6ccb4c2413664c2db6fd>@@@Z 000000018001aaf0 f   libucrt:mbctype.obj
 0001:00019cac       ?getSystemCP@@YAHH@Z       000000018001acac f   libucrt:mbctype.obj
 0001:00019d2c       ?setSBCS@@YAXPEAU__crt_multibyte_data@@@Z 000000018001ad2c f   libucrt:mbctype.obj
 0001:00019dbc       ?setSBUpLow@@YAXPEAU__crt_multibyte_data@@@Z 000000018001adbc f   libucrt:mbctype.obj
 0001:00019fa0       ?setmbcp_internal@@YAHH_NQEAU__acrt_ptd@@QEAPEAU__crt_multibyte_data@@@Z 000000018001afa0 f   libucrt:mbctype.obj
 0001:0001a160       ?update_thread_multibyte_data_internal@@YAPEAU__crt_multibyte_data@@QEAU__acrt_ptd@@QEAPEAU1@@Z 000000018001b160 f   libucrt:mbctype.obj
 0001:0001a550       ?x_ismbbtype_l@@YAHPEAU__crt_locale_pointers@@IHH@Z 000000018001b550 f   libucrt:ismbbyte.obj
 0001:0001a8f8       ??$?RV<lambda_450d765d439847d4c735a33c368b5fc0>@@AEAV<lambda_44731a7d0e6d81c3e6aa82d741081786>@@V<lambda_601a2a7da3b7a96e9554ac7215c4b07c>@@@?$__crt_seh_guarded_call@P6AXH@Z@@QEAAP6AXH@Z$$QEAV<lambda_450d765d439847d4c735a33c368b5fc0>@@AEAV<lambda_44731a7d0e6d81c3e6aa82d741081786>@@$$QEAV<lambda_601a2a7da3b7a96e9554ac7215c4b07c>@@@Z 000000018001b8f8 f   libucrt:signal.obj
 0001:0001ac54       ??$?RV<lambda_842d9ff0dc9ef11c61343bbaebe7f885>@@AEAV<lambda_c5860995281e5c4ce005b3de8f5874ee>@@V<lambda_d90129c13df834fdcbf8d2b88dafcf2d>@@@?$__crt_seh_guarded_call@X@@QEAAX$$QEAV<lambda_842d9ff0dc9ef11c61343bbaebe7f885>@@AEAV<lambda_c5860995281e5c4ce005b3de8f5874ee>@@$$QEAV<lambda_d90129c13df834fdcbf8d2b88dafcf2d>@@@Z 000000018001bc54 f   libucrt:fflush.obj
 0001:0001acf0       ??$?RV<lambda_886d6c58226a84441f68b9f2b8217b83>@@AEAV<lambda_ab61a845afdef5b7c387490eaf3616ee>@@V<lambda_f7f22ab5edc0698d5f6905b0d3f44752>@@@?$__crt_seh_guarded_call@X@@QEAAX$$QEAV<lambda_886d6c58226a84441f68b9f2b8217b83>@@AEAV<lambda_ab61a845afdef5b7c387490eaf3616ee>@@$$QEAV<lambda_f7f22ab5edc0698d5f6905b0d3f44752>@@@Z 000000018001bcf0 f   libucrt:fflush.obj
 0001:0001add0       ?common_flush_all@@YAH_N@Z 000000018001bdd0 f   libucrt:fflush.obj
 0001:0001ce20       memcpy_s                   000000018001de20 f   libucrt:cfout.obj
 0001:0001d188       ?free_crt_array_internal@@YAXQEAPEBX_K@Z 000000018001e188 f   libucrt:inittime.obj
 0001:0001dc14       fallbackMethod             000000018001ec14 f   libucrt:strpbrk.obj
 0001:0001dfcc       $LN78                      000000018001efcc     libucrt:strpbrk.obj
 0001:0001e008       $LN77                      000000018001f008     libucrt:strpbrk.obj
 0001:0001e048       $LN76                      000000018001f048     libucrt:strpbrk.obj
 0001:0001e124       ?__acrt_LCMapStringA_stat@@YAHPEAU__crt_locale_pointers@@PEB_WKPEBDHPEADHHH@Z 000000018001f124 f   libucrt:lcmapstringa.obj
 0001:0001e4d4       ?initialize_multibyte@@YAHXZ 000000018001f4d4 f   libucrt:multibyte_initializer.obj
 0001:0001e4ec       ??$?RV<lambda_a37b2b86f63e897a80ea819b0eb08c01>@@AEAV<lambda_38ce7e780aa69e748d6df282ebc68efe>@@V<lambda_99fb1378e971ab6e7edea83e3a7a83a2>@@@?$__crt_seh_guarded_call@H@@QEAAH$$QEAV<lambda_a37b2b86f63e897a80ea819b0eb08c01>@@AEAV<lambda_38ce7e780aa69e748d6df282ebc68efe>@@$$QEAV<lambda_99fb1378e971ab6e7edea83e3a7a83a2>@@@Z 000000018001f4ec f   libucrt:commit.obj
 0001:0001e60c       ?write_double_translated_ansi_nolock@@YA?AUwrite_result@?A0x17268360@@HQEBDI@Z 000000018001f60c f   libucrt:write.obj
 0001:0001eaf8       ?write_text_ansi_nolock@@YA?AUwrite_result@?A0x17268360@@HQEBDI@Z 000000018001faf8 f   libucrt:write.obj
 0001:0001ebfc       ?write_text_utf16le_nolock@@YA?AUwrite_result@?A0x17268360@@HQEBDI@Z 000000018001fbfc f   libucrt:write.obj
 0001:0001ed18       ?write_text_utf8_nolock@@YA?AUwrite_result@?A0x17268360@@HQEBDI@Z 000000018001fd18 f   libucrt:write.obj
 0001:0001f670       $$000000                   0000000180020670     libucrt:log10.obj
 0001:0001ff3c       ??$common_lseek_nolock@_J@@YA_JH_JH@Z 0000000180020f3c f   libucrt:lseek.obj
 0001:0002019c       common_control87           000000018002119c f   libucrt:ieee.obj
 0001:0002045c       _call_matherr              000000018002145c f   libucrt:libm_error.obj
 0001:000204c4       _exception_enabled         00000001800214c4 f   libucrt:libm_error.obj
 0001:00020760       _log_special_common        0000000180021760 f   libucrt:log_special.obj
 0001:000207f8       ??$?RV<lambda_751a882b2c74d4b022dec766aa51a29a>@@AEAV<lambda_628dfdc04ba53c8bfc02c9951375f3f5>@@V<lambda_f6c7be5f7998530c34de24c7437d6b54>@@@?$__crt_seh_guarded_call@H@@QEAAH$$QEAV<lambda_751a882b2c74d4b022dec766aa51a29a>@@AEAV<lambda_628dfdc04ba53c8bfc02c9951375f3f5>@@$$QEAV<lambda_f6c7be5f7998530c34de24c7437d6b54>@@@Z 00000001800217f8 f   libucrt:close.obj
 0001:00020b20       $$000000                   0000000180021b20     libucrt:fpsr.obj
 0001:000211c0       $$000000                   00000001800221c0     LIBCMT:guard_dispatch.obj
 0001:000211e0       $$000000                   00000001800221e0     LIBCMT:guard_xfg_dispatch.obj
 0001:00021200       ?filt$0@?0??_AtlVerifyStackAvailable@_ATL_SAFE_ALLOCA_IMPL@ATL@@YA_N_K@Z@4HA 0000000180022200 f   MICR.obj
 0001:00021221       __scrt_is_nonwritable_in_current_image$filt$0 0000000180022221 f   LIBCMT:utility.obj
 0001:00021239       ?catch$0@?0???2@YAPEAX_KAEBUnothrow_t@std@@@Z@4HA 0000000180022239 f   LIBCMT:new_scalar_nothrow.obj
 0001:00021246       __catch$??2@YAPEAX_KAEBUnothrow_t@std@@@Z$0 0000000180022246 f   LIBCMT:new_scalar_nothrow.obj
 0001:00021257       ?fin$0@?0??dllmain_crt_process_attach@@YAHQEAUHINSTANCE__@@QEAX@Z@4HA 0000000180022257 f   LIBCMT:dll_dllmain.obj
 0001:0002126e       ?fin$0@?0??dllmain_crt_process_detach@@YAH_N@Z@4HA 000000018002226e f   LIBCMT:dll_dllmain.obj
 0001:00021287       ?fin$1@?0??dllmain_crt_process_detach@@YAH_N@Z@4HA 0000000180022287 f   LIBCMT:dll_dllmain.obj
 0001:0002129b       ?filt$0@?0??dllmain_dispatch@@YAHQEAUHINSTANCE__@@KQEAX@Z@4HA 000000018002229b f   LIBCMT:dll_dllmain.obj
 0001:000212d1       ?filt$0@?0???$_CallSETranslator@V__FrameHandler4@@@@YAHPEAUEHExceptionRecord@@PEA_KPEAU_CONTEXT@@PEAU_xDISPATCHER_CONTEXT@@PEAUFuncInfo4@FH4@@K1H@Z@4HA 00000001800222d1 f   libvcruntime:risctrnsctrl.obj
 0001:00021370       __DestructExceptionObject$filt$0 0000000180022370 f   libvcruntime:ehhelpers.obj
 0001:00021406       ?filt$0@?0??CxxCallCatchBlock@__FrameHandler4@@SAPEAXPEAU_EXCEPTION_RECORD@@@Z@4HA 0000000180022406 f   libvcruntime:frame.obj
 0001:00021435       ?fin$1@?0??CxxCallCatchBlock@__FrameHandler4@@SAPEAXPEAU_EXCEPTION_RECORD@@@Z@4HA 0000000180022435 f   libvcruntime:frame.obj
 0001:000214b8       ?filt$0@?0??FrameUnwindToState@__FrameHandler4@@SAXPEA_KPEAU_xDISPATCHER_CONTEXT@@PEAUFuncInfo4@FH4@@H@Z@4HA 00000001800224b8 f   libvcruntime:frame.obj
 0001:000214ce       ?fin$1@?0??FrameUnwindToState@__FrameHandler4@@SAXPEA_KPEAU_xDISPATCHER_CONTEXT@@PEAUFuncInfo4@FH4@@H@Z@4HA 00000001800224ce f   libvcruntime:frame.obj
 0001:000214f1       ?fin$0@?0???$?RV<lambda_0ae27a3a962d80f24befdcbee591983d>@@AEAV<lambda_8d0ee55de4b1038c4002e0adecdf1839>@@V<lambda_dc504788e8f1664fe9b84e20bfb512f2>@@@?$__crt_seh_guarded_call@X@@QEAAX$$QEAV<lambda_0ae27a3a962d80f24befdcbee591983d>@@AEAV<lambda_8d0ee55de4b1038c4002e0adecdf1839>@@$$QEAV<lambda_dc504788e8f1664fe9b84e20bfb512f2>@@@Z@4HA 00000001800224f1 f   libucrt:per_thread_data.obj
 0001:000214f1       ?fin$0@?0???$?RV<lambda_2d41944a1d46af3157314b8a01080d33>@@AEAV<lambda_8f455de75cd7d7f24b4096f044d8b9e6>@@V<lambda_aa500f224e6afead328df44964fe2772>@@@?$__crt_seh_guarded_call@X@@QEAAX$$QEAV<lambda_2d41944a1d46af3157314b8a01080d33>@@AEAV<lambda_8f455de75cd7d7f24b4096f044d8b9e6>@@$$QEAV<lambda_aa500f224e6afead328df44964fe2772>@@@Z@4HA 00000001800224f1 f   libucrt:per_thread_data.obj
 0001:000214f1       ?fin$0@?0???$?RV<lambda_aa87e3671a710a21b5dc78c0bdf72e11>@@AEAV<lambda_92619d2358a28f41a33ba319515a20b9>@@V<lambda_6992ecaafeb10aed2b74cb1fae11a551>@@@?$__crt_seh_guarded_call@X@@QEAAX$$QEAV<lambda_aa87e3671a710a21b5dc78c0bdf72e11>@@AEAV<lambda_92619d2358a28f41a33ba319515a20b9>@@$$QEAV<lambda_6992ecaafeb10aed2b74cb1fae11a551>@@@Z@4HA 00000001800224f1 f   libucrt:per_thread_data.obj
 0001:000214f1       ?fin$0@?0???$?RV<lambda_f2e299630e499de9f9a165e60fcd3db5>@@AEAV<lambda_2ae9d31cdba2644fcbeaf08da7c24588>@@V<lambda_40d01ff24d0e7b3814fdbdcee8eab3c7>@@@?$__crt_seh_guarded_call@X@@QEAAX$$QEAV<lambda_f2e299630e499de9f9a165e60fcd3db5>@@AEAV<lambda_2ae9d31cdba2644fcbeaf08da7c24588>@@$$QEAV<lambda_40d01ff24d0e7b3814fdbdcee8eab3c7>@@@Z@4HA 00000001800224f1 f   libucrt:per_thread_data.obj
 0001:000214f1       ?fin$0@?0???$?RV<lambda_efdfa57d1f175319df784efa44bb7b81>@@AEAV<lambda_5f0a4c1567f8adc6734073e5d1e1b35c>@@V<lambda_2e8a7d3640ea6ccb4c2413664c2db6fd>@@@?$__crt_seh_guarded_call@X@@QEAAX$$QEAV<lambda_efdfa57d1f175319df784efa44bb7b81>@@AEAV<lambda_5f0a4c1567f8adc6734073e5d1e1b35c>@@$$QEAV<lambda_2e8a7d3640ea6ccb4c2413664c2db6fd>@@@Z@4HA 00000001800224f1 f   libucrt:mbctype.obj
 0001:000214f1       ?fin$0@?0???$?RV<lambda_450d765d439847d4c735a33c368b5fc0>@@AEAV<lambda_44731a7d0e6d81c3e6aa82d741081786>@@V<lambda_601a2a7da3b7a96e9554ac7215c4b07c>@@@?$__crt_seh_guarded_call@P6AXH@Z@@QEAAP6AXH@Z$$QEAV<lambda_450d765d439847d4c735a33c368b5fc0>@@AEAV<lambda_44731a7d0e6d81c3e6aa82d741081786>@@$$QEAV<lambda_601a2a7da3b7a96e9554ac7215c4b07c>@@@Z@4HA 00000001800224f1 f   libucrt:signal.obj
 0001:000214f1       ?fin$0@?0???$?RV<lambda_d80eeec6fff315bfe5c115232f3240e3>@@AEAV<lambda_6e4b09c48022b2350581041d5f6b0c4c>@@V<lambda_2358e3775559c9db80273638284d5e45>@@@?$__crt_seh_guarded_call@X@@QEAAX$$QEAV<lambda_d80eeec6fff315bfe5c115232f3240e3>@@AEAV<lambda_6e4b09c48022b2350581041d5f6b0c4c>@@$$QEAV<lambda_2358e3775559c9db80273638284d5e45>@@@Z@4HA 00000001800224f1 f   libucrt:exit.obj
 0001:000214f1       ?fin$0@?0???$?RV<lambda_638799b9deba96c50f710eeac98168cd>@@AEAV<lambda_22ebabd17bc4fa466a2aca6d8deb888d>@@V<lambda_a6f7d7db0129f75315ebf26d50c089f1>@@@?$__crt_seh_guarded_call@H@@QEAAH$$QEAV<lambda_638799b9deba96c50f710eeac98168cd>@@AEAV<lambda_22ebabd17bc4fa466a2aca6d8deb888d>@@$$QEAV<lambda_a6f7d7db0129f75315ebf26d50c089f1>@@@Z@4HA 00000001800224f1 f   libucrt:onexit.obj
 0001:000214f1       ?fin$0@?0???$?RV<lambda_7777bce6b2f8c936911f934f8298dc43>@@AEAV<lambda_f03950bc5685219e0bcd2087efbe011e>@@V<lambda_3883c3dff614d5e0c5f61bb1ac94921c>@@@?$__crt_seh_guarded_call@H@@QEAAH$$QEAV<lambda_7777bce6b2f8c936911f934f8298dc43>@@AEAV<lambda_f03950bc5685219e0bcd2087efbe011e>@@$$QEAV<lambda_3883c3dff614d5e0c5f61bb1ac94921c>@@@Z@4HA 00000001800224f1 f   libucrt:onexit.obj
 0001:0002150b       ?filt$0@?0???R<lambda_6e4b09c48022b2350581041d5f6b0c4c>@@QEBA@XZ@4HA 000000018002250b f   libucrt:exit.obj
 0001:00021526       _query_new_handler$fin$0   0000000180022526 f   libucrt:new_handler.obj
 0001:0002153c       ?fin$0@?0???$?RV<lambda_410d79af7f07d98d83a3f525b3859a53>@@AEAV<lambda_3e16ef9562a7dcce91392c22ab16ea36>@@V<lambda_38119f0e861e05405d8a144b9b982f0a>@@@?$__crt_seh_guarded_call@X@@QEAAX$$QEAV<lambda_410d79af7f07d98d83a3f525b3859a53>@@AEAV<lambda_3e16ef9562a7dcce91392c22ab16ea36>@@$$QEAV<lambda_38119f0e861e05405d8a144b9b982f0a>@@@Z@4HA 000000018002253c f   libucrt:wsetlocale.obj
 0001:00021556       __acrt_initialize_lowio$fin$0 0000000180022556 f   libucrt:ioinit.obj
 0001:00021556       __acrt_lowio_ensure_fh_exists$fin$0 0000000180022556 f   libucrt:osfinfo.obj
 0001:0002156f       ?fin$0@?0??update_thread_multibyte_data_internal@@YAPEAU__crt_multibyte_data@@QEAU__acrt_ptd@@QEAPEAU1@@Z@4HA 000000018002256f f   libucrt:mbctype.obj
 0001:00021588       raise$fin$0                0000000180022588 f   libucrt:signal.obj
 0001:000215a9       ?fin$0@?0???$?RV<lambda_842d9ff0dc9ef11c61343bbaebe7f885>@@AEAV<lambda_c5860995281e5c4ce005b3de8f5874ee>@@V<lambda_d90129c13df834fdcbf8d2b88dafcf2d>@@@?$__crt_seh_guarded_call@X@@QEAAX$$QEAV<lambda_842d9ff0dc9ef11c61343bbaebe7f885>@@AEAV<lambda_c5860995281e5c4ce005b3de8f5874ee>@@$$QEAV<lambda_d90129c13df834fdcbf8d2b88dafcf2d>@@@Z@4HA 00000001800225a9 f   libucrt:fflush.obj
 0001:000215c4       ?fin$0@?0???$?RV<lambda_886d6c58226a84441f68b9f2b8217b83>@@AEAV<lambda_ab61a845afdef5b7c387490eaf3616ee>@@V<lambda_f7f22ab5edc0698d5f6905b0d3f44752>@@@?$__crt_seh_guarded_call@X@@QEAAX$$QEAV<lambda_886d6c58226a84441f68b9f2b8217b83>@@AEAV<lambda_ab61a845afdef5b7c387490eaf3616ee>@@$$QEAV<lambda_f7f22ab5edc0698d5f6905b0d3f44752>@@@Z@4HA 00000001800225c4 f   libucrt:fflush.obj
 0001:000215e1       __acrt_update_thread_locale_data$fin$0 00000001800225e1 f   libucrt:locale_refcounting.obj
 0001:000215fa       _fcloseall$fin$0           00000001800225fa f   libucrt:closeall.obj
 0001:00021613       ?fin$0@?0???$?RV<lambda_751a882b2c74d4b022dec766aa51a29a>@@AEAV<lambda_628dfdc04ba53c8bfc02c9951375f3f5>@@V<lambda_f6c7be5f7998530c34de24c7437d6b54>@@@?$__crt_seh_guarded_call@H@@QEAAH$$QEAV<lambda_751a882b2c74d4b022dec766aa51a29a>@@AEAV<lambda_628dfdc04ba53c8bfc02c9951375f3f5>@@$$QEAV<lambda_f6c7be5f7998530c34de24c7437d6b54>@@@Z@4HA 0000000180022613 f   libucrt:close.obj
 0001:00021613       ?fin$0@?0???$?RV<lambda_a37b2b86f63e897a80ea819b0eb08c01>@@AEAV<lambda_38ce7e780aa69e748d6df282ebc68efe>@@V<lambda_99fb1378e971ab6e7edea83e3a7a83a2>@@@?$__crt_seh_guarded_call@H@@QEAAH$$QEAV<lambda_a37b2b86f63e897a80ea819b0eb08c01>@@AEAV<lambda_38ce7e780aa69e748d6df282ebc68efe>@@$$QEAV<lambda_99fb1378e971ab6e7edea83e3a7a83a2>@@@Z@4HA 0000000180022613 f   libucrt:commit.obj
 0001:0002162d       _write$fin$0               000000018002262d f   libucrt:write.obj
 0001:00021644       fclose$fin$0               0000000180022644 f   libucrt:fclose.obj
 0001:0002165c       _ctrlfp$filt$0             000000018002265c f   libucrt:fpctrl.obj
 0001:0002165c       common_control87$filt$0    000000018002265c f   libucrt:ieee.obj
 0001:00021690       _IsNonwritableInCurrentImage$filt$0 0000000180022690 f   LIBCMT:pesect.obj
 0001:000216b0       ??__F_AtlComModule@ATL@@YAXXZ 00000001800226b0 f   OposVariant.obj
 0001:000216bc       ??__F_AtlWinModule@ATL@@YAXXZ 00000001800226bc f   OposVariant.obj
 0001:00021700       ??__F_Module@@YAXXZ        0000000180022700 f   MICR.obj
 0001:0002171c       ??__F_AtlBaseModule@ATL@@YAXXZ 000000018002271c f   atls:atlbase.obj
 0002:00000648       ?_AtlBaseModule$initializer$@ATL@@3P6AXXZEA 0000000180023648     atls:atlbase.obj
 0002:00000650       ?_AtlComModule$initializer$@ATL@@3P6AXXZEA 0000000180023650     OposVariant.obj
 0002:00000658       ?_AtlWinModule$initializer$@ATL@@3P6AXXZEA 0000000180023658     OposVariant.obj
 0002:00000660       ?_Module$initializer$@@3P6AXXZEA 0000000180023660     MICR.obj
 0002:00000668       ??pConnMap$initializer$@?$IConnectionPointContainerImpl@VCOPOSMICR@@@ATL@@0P6AXXZEA@@3P6AXXZEA 0000000180023668     MICR.obj
 0002:00000680       ?__scrt_initialize_tss_var@@3P6AHXZEA 0000000180023680     LIBCMT:thread_safe_statics.obj
 0002:00002718       GS_ExceptionPointers       0000000180025718     LIBCMT:gs_report.obj
 0002:00002900       ?ExceptionTemplate@?1??UnwindNestedFrames@__FrameHandler4@@SAXPEA_KPEAUEHExceptionRecord@@PEAU_CONTEXT@@0PEAXPEAUFuncInfo4@FH4@@HHPEAUHandlerType4@6@PEAU_xDISPATCHER_CONTEXT@@E@Z@4U_EXCEPTION_RECORD@@B 0000000180025900     libvcruntime:risctrnsctrl.obj
 0002:000029d0       ?tokenTable@@3QBUStringLiteral@@B 00000001800259d0     libvcruntime:undname.obj
 0002:00002ad0       ?nameTable@@3QBUStringLiteral@@B 0000000180025ad0     libvcruntime:undname.obj
 0002:00003000       ?rttiTable@@3QBUStringLiteral@@B 0000000180026000     libvcruntime:undname.obj
 0002:00003050       ?IndirectionName@@3QBUStringLiteral@@B 0000000180026050     libvcruntime:undname.obj
 0002:000030b0       ?PrefixName@@3QBUStringLiteral@@B 00000001800260b0     libvcruntime:undname.obj
 0002:00003788       ?module_names@?A0x5302d918@@3QBQEB_WB 0000000180026788     libvcruntime:winapi_downlevel.obj
 0002:00003848       ?candidate_modules@?1??try_get_FlsAlloc@@YAP6AKP6AXPEAX@Z@ZXZ@4QBW4module_id@?A0x5302d918@@B 0000000180026848     libvcruntime:winapi_downlevel.obj
 0002:00003860       ?candidate_modules@?1??try_get_FlsFree@@YAP6AHK@ZXZ@4QBW4module_id@?A0x5302d918@@B 0000000180026860     libvcruntime:winapi_downlevel.obj
 0002:00003870       ?candidate_modules@?1??try_get_FlsGetValue@@YAP6APEAXK@ZXZ@4QBW4module_id@?A0x5302d918@@B 0000000180026870     libvcruntime:winapi_downlevel.obj
 0002:00003888       ?candidate_modules@?1??try_get_FlsSetValue@@YAP6AHKPEAX@ZXZ@4QBW4module_id@?A0x5302d918@@B 0000000180026888     libvcruntime:winapi_downlevel.obj
 0002:000038a0       ?candidate_modules@?1??try_get_InitializeCriticalSectionEx@@YAP6AHPEAU_RTL_CRITICAL_SECTION@@KK@ZXZ@4QBW4module_id@?A0x5302d918@@B 00000001800268a0     libvcruntime:winapi_downlevel.obj
 0002:000038d0       ?errtable@@3QBUerrentry@?A0x31fdb9ec@@B 00000001800268d0     libucrt:errno.obj
 0002:00003f60       __acrt_initializers        0000000180026f60     libucrt:initialization.obj
 0002:00004060       ?module_names@?A0x391cf84c@@3QBQEB_WB 0000000180027060     libucrt:winapi_thunks.obj
 0002:00004568       ?candidate_modules@?1??try_get_AreFileApisANSI@@YAP6AHXZXZ@4QBW4module_id@?A0x391cf84c@@B 0000000180027568     libucrt:winapi_thunks.obj
 0002:00004580       ?candidate_modules@?1??try_get_FlsAlloc@@YAP6AKP6AXPEAX@Z@ZXZ@4QBW4module_id@?A0x391cf84c@@B 0000000180027580     libucrt:winapi_thunks.obj
 0002:00004588       ?candidate_modules@?1??try_get_FlsFree@@YAP6AHK@ZXZ@4QBW4module_id@?A0x391cf84c@@B 0000000180027588     libucrt:winapi_thunks.obj
 0002:00004590       ?candidate_modules@?1??try_get_FlsGetValue@@YAP6APEAXK@ZXZ@4QBW4module_id@?A0x391cf84c@@B 0000000180027590     libucrt:winapi_thunks.obj
 0002:00004598       ?candidate_modules@?1??try_get_FlsSetValue@@YAP6AHKPEAX@ZXZ@4QBW4module_id@?A0x391cf84c@@B 0000000180027598     libucrt:winapi_thunks.obj
 0002:000045a0       ?candidate_modules@?1??try_get_InitializeCriticalSectionEx@@YAP6AHPEAU_RTL_CRITICAL_SECTION@@KK@ZXZ@4QBW4module_id@?A0x391cf84c@@B 00000001800275a0     libucrt:winapi_thunks.obj
 0002:000045a8       ?candidate_modules@?1??try_get_LCMapStringEx@@YAP6AHPEB_WK0HPEA_WHPEAU_nlsversioninfo@@PEAX_J@ZXZ@4QBW4module_id@?A0x391cf84c@@B 00000001800275a8     libucrt:winapi_thunks.obj
 0002:000045c0       ?candidate_modules@?1??try_get_LocaleNameToLCID@@YAP6AKPEB_WK@ZXZ@4QBW4module_id@?A0x391cf84c@@B 00000001800275c0     libucrt:winapi_thunks.obj
 0002:000045dc       ?candidate_modules@?1??try_get_AppPolicyGetProcessTerminationMethod@@YAP6AJPEAXPEAW4AppPolicyProcessTerminationMethod@@@ZXZ@4QBW4module_id@?A0x391cf84c@@B 00000001800275dc     libucrt:winapi_thunks.obj
 0002:00004608       ?candidate_modules@?1??try_get_SetThreadStackGuarantee@@YAP6AHPEAK@ZXZ@4QBW4module_id@?A0x391cf84c@@B 0000000180027608     libucrt:winapi_thunks.obj
 0002:00004630       ?strings@?1??fp_format_nan_or_infinity@@YAHW4__acrt_fp_class@@_NPEAD_K1@Z@4QAY03QEBDA 0000000180027630     libucrt:cvt.obj
 0002:00004d90       ?_mb_locale_names@@3QBQEB_WB 0000000180027d90     libucrt:mbctype.obj
 0002:00005600       ?LcidToLocaleNameTable@?A0x881e4c05@@3QBULcidToLocaleName@1@B 0000000180028600     libucrt:lcidtoname_downlevel.obj
 0002:00007060       ?LocaleNameToIndexTable@?A0x881e4c05@@3QBULocaleNameIndex@1@B 000000018002a060     libucrt:lcidtoname_downlevel.obj
 0002:00009300       __real_ninf                000000018002c300     libucrt:log10.obj
 0002:00009310       __real_inf                 000000018002c310     libucrt:log10.obj
 0002:00009320       __real_neg_qnan            000000018002c320     libucrt:log10.obj
 0002:00009330       __real_qnanbit             000000018002c330     libucrt:log10.obj
 0002:00009340       __int_1023                 000000018002c340     libucrt:log10.obj
 0002:00009350       __mask_001                 000000018002c350     libucrt:log10.obj
 0002:00009360       __mask_mant                000000018002c360     libucrt:log10.obj
 0002:00009370       __mask_mant_top8           000000018002c370     libucrt:log10.obj
 0002:00009380       __mask_mant9               000000018002c380     libucrt:log10.obj
 0002:00009390       __real_log10_e             000000018002c390     libucrt:log10.obj
 0002:000093a0       __real_log10_e_lead        000000018002c3a0     libucrt:log10.obj
 0002:000093b0       __real_log10_e_tail        000000018002c3b0     libucrt:log10.obj
 0002:000093c0       __real_log10_2_lead        000000018002c3c0     libucrt:log10.obj
 0002:000093d0       __real_log10_2_tail        000000018002c3d0     libucrt:log10.obj
 0002:000093e0       __real_two                 000000018002c3e0     libucrt:log10.obj
 0002:000093f0       __real_one                 000000018002c3f0     libucrt:log10.obj
 0002:00009400       __real_half                000000018002c400     libucrt:log10.obj
 0002:00009410       __mask_100                 000000018002c410     libucrt:log10.obj
 0002:00009420       __real_1_over_512          000000018002c420     libucrt:log10.obj
 0002:00009430       __real_1_over_2            000000018002c430     libucrt:log10.obj
 0002:00009440       __real_1_over_3            000000018002c440     libucrt:log10.obj
 0002:00009450       __real_1_over_4            000000018002c450     libucrt:log10.obj
 0002:00009460       __real_1_over_5            000000018002c460     libucrt:log10.obj
 0002:00009470       __real_1_over_6            000000018002c470     libucrt:log10.obj
 0002:00009480       __real_neg_1023            000000018002c480     libucrt:log10.obj
 0002:00009490       __mask_2045                000000018002c490     libucrt:log10.obj
 0002:000094a0       __real_threshold           000000018002c4a0     libucrt:log10.obj
 0002:000094b0       __real_near_one_lt         000000018002c4b0     libucrt:log10.obj
 0002:000094c0       __real_near_one_gt         000000018002c4c0     libucrt:log10.obj
 0002:000094d0       __real_min_norm            000000018002c4d0     libucrt:log10.obj
 0002:000094e0       __real_notsign             000000018002c4e0     libucrt:log10.obj
 0002:000094f0       __real_ca1                 000000018002c4f0     libucrt:log10.obj
 0002:00009500       __real_ca2                 000000018002c500     libucrt:log10.obj
 0002:00009510       __real_ca3                 000000018002c510     libucrt:log10.obj
 0002:00009520       __real_ca4                 000000018002c520     libucrt:log10.obj
 0002:00009530       __mask_lower               000000018002c530     libucrt:log10.obj
 0002:00009540       __flag_x_zero              000000018002c540     libucrt:log10.obj
 0002:00009544       __flag_x_neg               000000018002c544     libucrt:log10.obj
 0002:00009548       __flag_x_nan               000000018002c548     libucrt:log10.obj
 0002:0000ada0       __real@433fffffffffffff    000000018002dda0     libucrt:fpsr.obj
 0002:0000ada8       __real@c33fffffffffffff    000000018002dda8     libucrt:fpsr.obj
 0002:0000b610       $unwind$?cw_memcpy@@YAHPEA_WPEBDH@Z 000000018002e610     CWString.obj
 0002:0000b610       $unwind$?ProcessWindowMessage@?$CComControl@VCOPOSMICR@@V?$CWindowImpl@VCOPOSMICR@@VCWindow@ATL@@V?$CWinTraits@$0FGAAAAAA@$0A@@3@@ATL@@@ATL@@UEAAHPEAUHWND__@@I_K_JAEA_JK@Z 000000018002e610     MICR.obj
 0002:0000b610       $unwind$wcstol             000000018002e610     libucrt:strtox.obj
 0002:0000b610       $unwind$_invalid_parameter_noinfo 000000018002e610     libucrt:invalid_parameter.obj
 0002:0000b610       $unwind$_log10_special     000000018002e610     libucrt:log_special.obj
 0002:0000b618       $unwind$?cw_strcpy@@YAHPEA_WPEBD@Z 000000018002e618     CWString.obj
 0002:0000b618       $unwind$??__E?pConnMap@?$IConnectionPointContainerImpl@VCOPOSMICR@@@ATL@@0PEBU_ATL_CONNMAP_ENTRY@2@EB@@YAXXZ 000000018002e618     MICR.obj
 0002:0000b618       $unwind$?AddReplacement@CRegObject@ATL@@UEAAJPEB_W0@Z 000000018002e618     MICR.obj
 0002:0000b618       $unwind$?AtlHresultFromLastError@ATL@@YAJXZ 000000018002e618     MICR.obj
 0002:0000b618       $unwind$?AtlThrowImpl@ATL@@YAXJ@Z 000000018002e618     MICR.obj
 0002:0000b618       $unwind$?CreateInstance@CComClassFactory@ATL@@UEAAJPEAUIUnknown@@AEBU_GUID@@PEAPEAX@Z 000000018002e618     MICR.obj
 0002:0000b618       $unwind$?DefaultReflectionHandler@?$CWindowImplRoot@VCWindow@ATL@@@ATL@@SAHPEAUHWND__@@I_K_JAEA_J@Z 000000018002e618     MICR.obj
 0002:0000b618       $unwind$?EnumAdvise@?$IOleObjectImpl@VCOPOSMICR@@@ATL@@UEAAJPEAPEAUIEnumSTATDATA@@@Z 000000018002e618     MICR.obj
 0002:0000b618       $unwind$?FireViewChange@CComControlBase@ATL@@QEAAJXZ 000000018002e618     MICR.obj
 0002:0000b618       $unwind$?GetAdvise@?$IViewObjectExImpl@VCOPOSMICR@@@ATL@@UEAAJPEAK0PEAPEAUIAdviseSink@@@Z 000000018002e618     MICR.obj
 0002:0000b618       $unwind$?LockServer@CComClassFactory@ATL@@UEAAJH@Z 000000018002e618     MICR.obj
 0002:0000b618       $unwind$?OnDocWindowActivate@?$IOleInPlaceActiveObjectImpl@VCOPOSMICR@@@ATL@@UEAAJH@Z 000000018002e618     MICR.obj
 0002:0000b618       $unwind$?Unadvise@?$IOleObjectImpl@VCOPOSMICR@@@ATL@@UEAAJK@Z 000000018002e618     MICR.obj
 0002:0000b618       $unwind$?_LocCPQueryInterface@?$IConnectionPointImpl@VCOPOSMICR@@$1?DIID__IOPOSMICREvents@@3U_GUID@@BVCComDynamicUnkArray@ATL@@@ATL@@UEAAJAEBU_GUID@@PEAPEAX@Z 000000018002e618     MICR.obj
 0002:0000b618       $unwind$?_LocCPQueryInterface@?$IConnectionPointImpl@VCOPOSMICR@@$1?IID_IPropertyNotifySink@@3U_GUID@@BVCComDynamicUnkArray@ATL@@@ATL@@UEAAJAEBU_GUID@@PEAPEAX@Z 000000018002e618     MICR.obj
 0002:0000b618       $unwind$?FinalConstruct@COPOSMICR@@QEAAJXZ 000000018002e618     MICRImpl.obj
 0002:0000b618       $unwind$?get_ResultCode@COPOSMICR@@UEAAJPEAJ@Z 000000018002e618     MICRImpl.obj
 0002:0000b618       $unwind$?get_State@COPOSMICR@@UEAAJPEAJ@Z 000000018002e618     MICRImpl.obj
 0002:0000b618       $unwind$??1OposDispParms@@QEAA@XZ 000000018002e618     OposVariant.obj
 0002:0000b618       $unwind$??__E_AtlComModule@ATL@@YAXXZ 000000018002e618     OposVariant.obj
 0002:0000b618       $unwind$??__E_AtlWinModule@ATL@@YAXXZ 000000018002e618     OposVariant.obj
 0002:0000b618       $unwind$??__F_AtlWinModule@ATL@@YAXXZ 000000018002e618     OposVariant.obj
 0002:0000b618       $unwind$?GetLONG@OposVariant@@QEAAJXZ 000000018002e618     OposVariant.obj
 0002:0000b618       $unwind$??__E_AtlBaseModule@ATL@@YAXXZ 000000018002e618     atls:atlbase.obj
 0002:0000b618       $unwind$__scrt_initialize_default_local_stdio_options 000000018002e618     LIBCMT:default_local_stdio_options.obj
 0002:0000b618       $unwind$?dllmain_crt_dispatch@@YAHQEAUHINSTANCE__@@KQEAX@Z 000000018002e618     LIBCMT:dll_dllmain.obj
 0002:0000b618       $unwind$__report_rangecheckfailure 000000018002e618     LIBCMT:gs_report.obj
 0002:0000b618       $unwind$__GSHandlerCheck   000000018002e618     LIBCMT:gshandler.obj
 0002:0000b618       $unwind$?__scrt_uninitialize_thread_safe_statics@@YAXXZ 000000018002e618     LIBCMT:thread_safe_statics.obj
 0002:0000b618       $unwind$_Init_thread_notify 000000018002e618     LIBCMT:thread_safe_statics.obj
 0002:0000b618       $unwind$__scrt_acquire_startup_lock 000000018002e618     LIBCMT:utility.obj
 0002:0000b618       $unwind$__scrt_dllmain_after_initialize_c 000000018002e618     LIBCMT:utility.obj
 0002:0000b618       $unwind$__scrt_dllmain_before_initialize_c 000000018002e618     LIBCMT:utility.obj
 0002:0000b618       $unwind$__scrt_dllmain_crt_thread_attach 000000018002e618     LIBCMT:utility.obj
 0002:0000b618       $unwind$__scrt_dllmain_crt_thread_detach 000000018002e618     LIBCMT:utility.obj
 0002:0000b618       $unwind$__scrt_dllmain_uninitialize_c 000000018002e618     LIBCMT:utility.obj
 0002:0000b618       $unwind$__scrt_dllmain_uninitialize_critical 000000018002e618     LIBCMT:utility.obj
 0002:0000b618       $unwind$atexit             000000018002e618     LIBCMT:utility.obj
 0002:0000b618       $unwind$__vcrt_initialize  000000018002e618     libvcruntime:initialization.obj
 0002:0000b618       $unwind$__vcrt_thread_attach 000000018002e618     libvcruntime:initialization.obj
 0002:0000b618       $unwind$__vcrt_thread_detach 000000018002e618     libvcruntime:initialization.obj
 0002:0000b618       $unwind$__vcrt_uninitialize 000000018002e618     libvcruntime:initialization.obj
 0002:0000b618       $unwind$__vcrt_uninitialize_critical 000000018002e618     libvcruntime:initialization.obj
 0002:0000b618       $unwind$__vcrt_initialize_locks 000000018002e618     libvcruntime:locks.obj
 0002:0000b618       $unwind$__vcrt_freefls     000000018002e618     libvcruntime:per_thread_data.obj
 0002:0000b618       $unwind$__vcrt_getptd      000000018002e618     libvcruntime:per_thread_data.obj
 0002:0000b618       $unwind$__vcrt_initialize_ptd 000000018002e618     libvcruntime:per_thread_data.obj
 0002:0000b618       $unwind$__vcrt_uninitialize_ptd 000000018002e618     libvcruntime:per_thread_data.obj
 0002:0000b618       $unwind$_purecall          000000018002e618     libvcruntime:purevirt.obj
 0002:0000b618       $unwind$?FrameUnwindToEmptyState@__FrameHandler4@@SAXPEA_KPEAU_xDISPATCHER_CONTEXT@@PEAUFuncInfo4@FH4@@@Z 000000018002e618     libvcruntime:risctrnsctrl.obj
 0002:0000b618       $unwind$_GetImageBase      000000018002e618     libvcruntime:risctrnsctrl.obj
 0002:0000b618       $unwind$_GetThrowImageBase 000000018002e618     libvcruntime:risctrnsctrl.obj
 0002:0000b618       $unwind$__dcrt_terminate_console_output 000000018002e618     libucrt:initcon.obj
 0002:0000b618       $unwind$??$uninitialize_environment_internal@D@@YAXAEAPEAPEAD@Z 000000018002e618     libucrt:environment_initialization.obj
 0002:0000b618       $unwind$??$uninitialize_environment_internal@_W@@YAXAEAPEAPEA_W@Z 000000018002e618     libucrt:environment_initialization.obj
 0002:0000b618       $unwind$__dcrt_uninitialize_environments_nolock 000000018002e618     libucrt:environment_initialization.obj
 0002:0000b618       $unwind$__acrt_initialize_heap 000000018002e618     libucrt:heap_handle.obj
 0002:0000b618       $unwind$_msize_base        000000018002e618     libucrt:msize.obj
 0002:0000b618       $unwind$?initialize_multibyte@@YAHXZ 000000018002e618     libucrt:multibyte_initializer.obj
 0002:0000b618       $unwind$__acrt_thread_attach 000000018002e618     libucrt:initialization.obj
 0002:0000b618       $unwind$__acrt_thread_detach 000000018002e618     libucrt:initialization.obj
 0002:0000b618       $unwind$__acrt_uninitialize 000000018002e618     libucrt:initialization.obj
 0002:0000b618       $unwind$__acrt_uninitialize_critical 000000018002e618     libucrt:initialization.obj
 0002:0000b618       $unwind$initialize_c       000000018002e618     libucrt:initialization.obj
 0002:0000b618       $unwind$uninitialize_allocated_io_buffers 000000018002e618     libucrt:initialization.obj
 0002:0000b618       $unwind$uninitialize_environment 000000018002e618     libucrt:initialization.obj
 0002:0000b618       $unwind$__acrt_initialize_ptd 000000018002e618     libucrt:per_thread_data.obj
 0002:0000b618       $unwind$__acrt_uninitialize_ptd 000000018002e618     libucrt:per_thread_data.obj
 0002:0000b618       $unwind$__acrt_AreFileApisANSI 000000018002e618     libucrt:winapi_thunks.obj
 0002:0000b618       $unwind$__pctype_func      000000018002e618     libucrt:ctype.obj
 0002:0000b618       $unwind$__acrt_release_locale_ref 000000018002e618     libucrt:locale_refcounting.obj
 0002:0000b618       $unwind$_isatty            000000018002e618     libucrt:isatty.obj
 0002:0000b618       $unwind$_get_osfhandle     000000018002e618     libucrt:osfinfo.obj
 0002:0000b618       $unwind$__acrt_initialize_multibyte 000000018002e618     libucrt:mbctype.obj
 0002:0000b618       $unwind$__acrt_update_thread_multibyte_data 000000018002e618     libucrt:mbctype.obj
 0002:0000b618       $unwind$__doserrno         000000018002e618     libucrt:errno.obj
 0002:0000b618       $unwind$_errno             000000018002e618     libucrt:errno.obj
 0002:0000b618       $unwind$_invoke_watson     000000018002e618     libucrt:invalid_parameter.obj
 0002:0000b618       $unwind$abort              000000018002e618     libucrt:abort.obj
 0002:0000b618       $unwind$__acrt_initialize_command_line 000000018002e618     libucrt:argv_data.obj
 0002:0000b618       $unwind$_fileno            000000018002e618     libucrt:fileno.obj
 0002:0000b618       $unwind$?state_case_size@?$output_processor@_WV?$string_output_adapter@_W@__crt_stdio_output@@V?$format_validation_base@_WV?$string_output_adapter@_W@__crt_stdio_output@@@2@@__crt_stdio_output@@AEAA_NXZ 000000018002e618     libucrt:output.obj
 0002:0000b618       $unwind$_statfp            000000018002e618     libucrt:fpctrl.obj
 0002:0000b618       $unwind$fegetround         000000018002e618     libucrt:fegetround.obj
 0002:0000b618       $unwind$_set_errno_from_matherr 000000018002e618     libucrt:fpexcept.obj
 0002:0000b620       $unwind$?cw_dup@@YAXPEBDAEAHAEAPEA_W1@Z 000000018002e620     CWString.obj
 0002:0000b620       $unwind$?DAdvise@?$IDataObjectImpl@VCOPOSMICR@@@ATL@@UEAAJPEAUtagFORMATETC@@KPEAUIAdviseSink@@PEAK@Z 000000018002e620     MICR.obj
 0002:0000b620       $unwind$??$__acrt_mbs_to_wcs_cp@U__crt_win32_buffer_internal_dynamic_resizing@@@@YAHQEBDAEAV?$__crt_win32_buffer@_WU__crt_win32_buffer_internal_dynamic_resizing@@@@I@Z 000000018002e620     libucrt:argv_wildcards.obj
 0002:0000b638       $unwind$?DupWide@_CW@@AEAAXXZ 000000018002e638     CWString.obj
 0002:0000b638       $unwind$??0?$CComObject@VCOPOSMICR@@@ATL@@QEAA@PEAX@Z 000000018002e638     MICR.obj
 0002:0000b638       $unwind$??0CAtlModule@ATL@@QEAA@XZ 000000018002e638     MICR.obj
 0002:0000b638       $unwind$??1?$CComObject@VCOPOSMICR@@@ATL@@UEAA@XZ 000000018002e638     MICR.obj
 0002:0000b638       $unwind$??__E_Module@@YAXXZ 000000018002e638     MICR.obj
 0002:0000b638       $unwind$?AddRef@?$CComObjectCached@VCComClassFactory@ATL@@@ATL@@UEAAKXZ 000000018002e638     MICR.obj
 0002:0000b638       $unwind$?AllocateHeap@?$CTempBuffer@E$0BAA@VCCRTAllocator@ATL@@@ATL@@AEAAX_K@Z 000000018002e638     MICR.obj
 0002:0000b638       $unwind$?AllocateHeap@?$CTempBuffer@_W$0BAA@VCCRTAllocator@ATL@@@ATL@@AEAAX_K@Z 000000018002e638     MICR.obj
 0002:0000b638       $unwind$?AllocateHeap@?$CTempBuffer@_W$0EAA@VCCRTAllocator@ATL@@@ATL@@AEAAX_K@Z 000000018002e638     MICR.obj
 0002:0000b638       $unwind$?GetClassInfoW@?$IProvideClassInfo2Impl@$1?CLSID_OPOSMICR@@3U_GUID@@B$1?DIID__IOPOSMICREvents@@3U2@B$1?LIBID_OposMICR_CCO@@3U2@B$00$0A@VCComTypeInfoHolder@ATL@@@ATL@@UEAAJPEAPEAUITypeInfo@@@Z 000000018002e638     MICR.obj
 0002:0000b638       $unwind$?GetClientSite@?$IOleObjectImpl@VCOPOSMICR@@@ATL@@UEAAJPEAPEAUIOleClientSite@@@Z 000000018002e638     MICR.obj
 0002:0000b638       $unwind$?GetConnMap@COPOSMICR@@SAPEBU_ATL_CONNMAP_ENTRY@ATL@@PEAH@Z 000000018002e638     MICR.obj
 0002:0000b638       $unwind$?GetTypeInfo@?$IDispatchImpl@UIOPOSMICR@@$1?IID_IOPOSMICR@@3U_GUID@@B$1?LIBID_OposMICR_CCO@@3U3@B$00$0A@VCComTypeInfoHolder@ATL@@@ATL@@UEAAJIKPEAPEAUITypeInfo@@@Z 000000018002e638     MICR.obj
 0002:0000b638       $unwind$?IOleInPlaceObject_InPlaceDeactivate@CComControlBase@ATL@@QEAAJXZ 000000018002e638     MICR.obj
 0002:0000b638       $unwind$?IOleObject_SetExtent@CComControlBase@ATL@@QEAAJKPEAUtagSIZE@@@Z 000000018002e638     MICR.obj
 0002:0000b638       $unwind$?IsEqualObject@?$CComPtrBase@UIOleClientSite@@@ATL@@QEAA_NPEAUIUnknown@@@Z 000000018002e638     MICR.obj
 0002:0000b638       $unwind$?QueryHitPoint@?$IViewObjectExImpl@VCOPOSMICR@@@ATL@@UEAAJKPEBUtagRECT@@UtagPOINT@@JPEAK@Z 000000018002e638     MICR.obj
 0002:0000b638       $unwind$?QueryInterface@?$CComAggObject@VCOPOSMICR@@@ATL@@UEAAJAEBU_GUID@@PEAPEAX@Z 000000018002e638     MICR.obj
 0002:0000b638       $unwind$?Release@?$CComObjectCached@VCComClassFactory@ATL@@@ATL@@UEAAKXZ 000000018002e638     MICR.obj
 0002:0000b638       $unwind$?Unadvise@?$IConnectionPointImpl@VCOPOSMICR@@$1?DIID__IOPOSMICREvents@@3U_GUID@@BVCComDynamicUnkArray@ATL@@@ATL@@UEAAJK@Z 000000018002e638     MICR.obj
 0002:0000b638       $unwind$?Unadvise@?$IConnectionPointImpl@VCOPOSMICR@@$1?IID_IPropertyNotifySink@@3U_GUID@@BVCComDynamicUnkArray@ATL@@@ATL@@UEAAJK@Z 000000018002e638     MICR.obj
 0002:0000b638       $unwind$??1CComControlBase@ATL@@UEAA@XZ 000000018002e638     MICRImpl.obj
 0002:0000b638       $unwind$??1COPOSMICR@@UEAA@XZ 000000018002e638     MICRImpl.obj
 0002:0000b638       $unwind$?EventUninit@COPOSMICR@@IEAAXXZ 000000018002e638     MICRImpl.obj
 0002:0000b638       $unwind$?FreezeEvents@COPOSMICR@@MEAAJH@Z 000000018002e638     MICRImpl.obj
 0002:0000b638       $unwind$?SOProcessID@COPOSMICR@@UEAAJPEAJ@Z 000000018002e638     MICRImpl.obj
 0002:0000b638       $unwind$?get_AutoDisable@COPOSMICR@@UEAAJPEAF@Z 000000018002e638     MICRImpl.obj
 0002:0000b638       $unwind$?get_CapCompareFirmwareVersion@COPOSMICR@@UEAAJPEAF@Z 000000018002e638     MICRImpl.obj
 0002:0000b638       $unwind$?get_CapStatisticsReporting@COPOSMICR@@UEAAJPEAF@Z 000000018002e638     MICRImpl.obj
 0002:0000b638       $unwind$?get_CapUpdateFirmware@COPOSMICR@@UEAAJPEAF@Z 000000018002e638     MICRImpl.obj
 0002:0000b638       $unwind$?get_CapUpdateStatistics@COPOSMICR@@UEAAJPEAF@Z 000000018002e638     MICRImpl.obj
 0002:0000b638       $unwind$?get_CapValidationDevice@COPOSMICR@@UEAAJPEAF@Z 000000018002e638     MICRImpl.obj
 0002:0000b638       $unwind$?get_Claimed@COPOSMICR@@UEAAJPEAF@Z 000000018002e638     MICRImpl.obj
 0002:0000b638       $unwind$?get_DataEventEnabled@COPOSMICR@@UEAAJPEAF@Z 000000018002e638     MICRImpl.obj
 0002:0000b638       $unwind$?get_DeviceEnabled@COPOSMICR@@UEAAJPEAF@Z 000000018002e638     MICRImpl.obj
 0002:0000b638       $unwind$?get_FreezeEvents@COPOSMICR@@UEAAJPEAF@Z 000000018002e638     MICRImpl.obj
 0002:0000b638       $unwind$?put_FreezeEvents@COPOSMICR@@UEAAJF@Z 000000018002e638     MICRImpl.obj
 0002:0000b638       $unwind$??0CAtlComModule@ATL@@QEAA@XZ 000000018002e638     OposVariant.obj
 0002:0000b638       $unwind$??0CAtlWinModule@ATL@@QEAA@XZ 000000018002e638     OposVariant.obj
 0002:0000b638       $unwind$??1CAtlBaseModule@ATL@@QEAA@XZ 000000018002e638     atls:atlbase.obj
 0002:0000b638       $unwind$AtlThunk_AllocateData 000000018002e638     atls:atlthunk.obj
 0002:0000b638       $unwind$__raise_securityfailure 000000018002e638     LIBCMT:gs_report.obj
 0002:0000b638       $unwind$??2@YAPEAX_K@Z     000000018002e638     LIBCMT:new_scalar.obj
 0002:0000b638       $unwind$??_Gtype_info@@UEAAPEAXI@Z 000000018002e638     LIBCMT:std_type_info_static.obj
 0002:0000b638       $unwind$_Init_thread_footer 000000018002e638     LIBCMT:thread_safe_statics.obj
 0002:0000b638       $unwind$_Init_thread_header 000000018002e638     LIBCMT:thread_safe_statics.obj
 0002:0000b638       $unwind$_Init_thread_wait  000000018002e638     LIBCMT:thread_safe_statics.obj
 0002:0000b638       $unwind$??0bad_alloc@std@@QEAA@AEBV01@@Z 000000018002e638     LIBCMT:throw_bad_alloc.obj
 0002:0000b638       $unwind$??0bad_array_new_length@std@@QEAA@AEBV01@@Z 000000018002e638     LIBCMT:throw_bad_alloc.obj
 0002:0000b638       $unwind$??0exception@std@@QEAA@AEBV01@@Z 000000018002e638     LIBCMT:throw_bad_alloc.obj
 0002:0000b638       $unwind$__scrt_initialize_crt 000000018002e638     LIBCMT:utility.obj
 0002:0000b638       $unwind$__scrt_initialize_onexit_tables 000000018002e638     LIBCMT:utility.obj
 0002:0000b638       $unwind$__scrt_release_startup_lock 000000018002e638     LIBCMT:utility.obj
 0002:0000b638       $unwind$__scrt_uninitialize_crt 000000018002e638     LIBCMT:utility.obj
 0002:0000b638       $unwind$_onexit            000000018002e638     LIBCMT:utility.obj
 0002:0000b638       $unwind$_IsExceptionObjectToBeDestroyed 000000018002e638     libvcruntime:ehhelpers.obj
 0002:0000b638       $unwind$??0HandlerMap4@FH4@@QEAA@PEBUTryBlockMapEntry4@1@_KH@Z 000000018002e638     libvcruntime:frame.obj
 0002:0000b638       $unwind$??0bad_exception@std@@QEAA@AEBV01@@Z 000000018002e638     libvcruntime:frame.obj
 0002:0000b638       $unwind$?ExFilterRethrow@@YAHPEAU_EXCEPTION_POINTERS@@PEAUEHExceptionRecord@@PEAH@Z 000000018002e638     libvcruntime:frame.obj
 0002:0000b638       $unwind$__vcrt_uninitialize_locks 000000018002e638     libvcruntime:locks.obj
 0002:0000b638       $unwind$__vcrt_freeptd     000000018002e638     libvcruntime:per_thread_data.obj
 0002:0000b638       $unwind$_CreateFrameInfo   000000018002e638     libvcruntime:risctrnsctrl.obj
 0002:0000b638       $unwind$_SetImageBase      000000018002e638     libvcruntime:risctrnsctrl.obj
 0002:0000b638       $unwind$_SetThrowImageBase 000000018002e638     libvcruntime:risctrnsctrl.obj
 0002:0000b638       $unwind$__std_exception_destroy 000000018002e638     libvcruntime:std_exception.obj
 0002:0000b638       $unwind$__std_type_info_destroy_list 000000018002e638     libvcruntime:std_type_info.obj
 0002:0000b638       $unwind$__vcrt_FlsAlloc    000000018002e638     libvcruntime:winapi_downlevel.obj
 0002:0000b638       $unwind$__vcrt_FlsFree     000000018002e638     libvcruntime:winapi_downlevel.obj
 0002:0000b638       $unwind$__vcrt_FlsGetValue 000000018002e638     libvcruntime:winapi_downlevel.obj
 0002:0000b638       $unwind$_calloc_base       000000018002e638     libucrt:calloc_base.obj
 0002:0000b638       $unwind$_malloc_base       000000018002e638     libucrt:malloc_base.obj
 0002:0000b638       $unwind$_callnewh          000000018002e638     libucrt:new_handler.obj
 0002:0000b638       $unwind$initialize_pointers 000000018002e638     libucrt:initialization.obj
 0002:0000b638       $unwind$uninitialize_allocated_memory 000000018002e638     libucrt:initialization.obj
 0002:0000b638       $unwind$__acrt_initialize_locks 000000018002e638     libucrt:locks.obj
 0002:0000b638       $unwind$__acrt_uninitialize_locks 000000018002e638     libucrt:locks.obj
 0002:0000b638       $unwind$__acrt_freeptd     000000018002e638     libucrt:per_thread_data.obj
 0002:0000b638       $unwind$__acrt_getptd_head 000000018002e638     libucrt:per_thread_data.obj
 0002:0000b638       $unwind$__acrt_get_process_end_policy 000000018002e638     libucrt:win_policies.obj
 0002:0000b638       $unwind$__acrt_AppPolicyGetProcessTerminationMethodInternal 000000018002e638     libucrt:winapi_thunks.obj
 0002:0000b638       $unwind$__acrt_FlsAlloc    000000018002e638     libucrt:winapi_thunks.obj
 0002:0000b638       $unwind$__acrt_FlsFree     000000018002e638     libucrt:winapi_thunks.obj
 0002:0000b638       $unwind$__acrt_FlsGetValue 000000018002e638     libucrt:winapi_thunks.obj
 0002:0000b638       $unwind$__acrt_SetThreadStackGuarantee 000000018002e638     libucrt:winapi_thunks.obj
 0002:0000b638       $unwind$__acrt_uninitialize_winapi_thunks 000000018002e638     libucrt:winapi_thunks.obj
 0002:0000b638       $unwind$__acrt_update_locale_info 000000018002e638     libucrt:locale_update.obj
 0002:0000b638       $unwind$__acrt_update_multibyte_info 000000018002e638     libucrt:locale_update.obj
 0002:0000b638       $unwind$__acrt_allocate_buffer_for_argv 000000018002e638     libucrt:argv_parsing.obj
 0002:0000b638       $unwind$?exit_or_terminate_process@@YAXI@Z 000000018002e638     libucrt:exit.obj
 0002:0000b638       $unwind$?try_cor_exit_process@@YAXI@Z 000000018002e638     libucrt:exit.obj
 0002:0000b638       $unwind$__acrt_uninitialize_stdio 000000018002e638     libucrt:_file.obj
 0002:0000b638       $unwind$__acrt_stdio_free_buffer_nolock 000000018002e638     libucrt:_freebuf.obj
 0002:0000b638       $unwind$_fflush_nolock     000000018002e638     libucrt:fflush.obj
 0002:0000b638       $unwind$strcpy_s           000000018002e638     libucrt:strcpy_s.obj
 0002:0000b638       $unwind$wcscat_s           000000018002e638     libucrt:wcscat_s.obj
 0002:0000b638       $unwind$wcscpy_s           000000018002e638     libucrt:wcscpy_s.obj
 0002:0000b638       $unwind$_clrfp             000000018002e638     libucrt:fpctrl.obj
 0002:0000b638       $unwind$_set_statfp        000000018002e638     libucrt:fpctrl.obj
 0002:0000b638       $unwind$_clearfp           000000018002e638     libucrt:ieee.obj
 0002:0000b638       $unwind$_controlfp_s       000000018002e638     libucrt:contrlfp.obj
 0002:0000b638       $unwind$fegetenv           000000018002e638     libucrt:fegetenv.obj
 0002:0000b638       $unwind$feholdexcept       000000018002e638     libucrt:feholdexcept.obj
 0002:0000b638       $unwind$fesetenv           000000018002e638     libucrt:fesetenv.obj
 0002:0000b640       $unwind$?AtlWinModuleExtractCreateWndData@ATL@@YAPEAXPEAU_ATL_WIN_MODULE70@1@@Z 000000018002e640     MICR.obj
 0002:0000b640       $unwind$?CreateInstance@?$CComCreator@V?$CComObject@VCOPOSMICR@@@ATL@@@ATL@@SAJPEAXAEBU_GUID@@PEAPEAX@Z 000000018002e640     MICR.obj
 0002:0000b640       $unwind$?DoEvent@COPOSMICR@@IEAAXI_K_J@Z 000000018002e640     MICR.obj
 0002:0000b640       $unwind$?DoVerb@?$IOleObjectImpl@VCOPOSMICR@@@ATL@@UEAAJJPEAUtagMSG@@PEAUIOleClientSite@@JPEAUHWND__@@PEBUtagRECT@@@Z 000000018002e640     MICR.obj
 0002:0000b640       $unwind$?HKeyFromString@CRegParser@ATL@@KAPEAUHKEY__@@PEA_W@Z 000000018002e640     MICR.obj
 0002:0000b640       $unwind$?Next@?$CComEnumImpl@UIEnumConnectionPoints@@$1?_GUID_b196b285_bab4_101a_b69c_00aa00341d07@@3U__s_GUID@@BPEAUIConnectionPoint@@V?$_CopyInterface@UIConnectionPoint@@@ATL@@@ATL@@UEAAJKPEAPEAUIConnectionPoint@@PEAK@Z 000000018002e640     MICR.obj
 0002:0000b640       $unwind$?Next@?$CComEnumImpl@UIEnumConnections@@$1?_GUID_b196b287_bab4_101a_b69c_00aa00341d07@@3U__s_GUID@@BUtagCONNECTDATA@@V?$_Copy@UtagCONNECTDATA@@@ATL@@@ATL@@UEAAJKPEAUtagCONNECTDATA@@PEAK@Z 000000018002e640     MICR.obj
 0002:0000b640       $unwind$?SODirectIO@COPOSMICR@@MEAAJJPEAJPEAPEA_W@Z 000000018002e640     MICR.obj
 0002:0000b640       $unwind$?SetControlFocus@CComControlBase@ATL@@QEAAHH@Z 000000018002e640     MICR.obj
 0002:0000b640       $unwind$?ocscpy_s@@YA_NPEA_W_KPEB_W@Z 000000018002e640     MICR.obj
 0002:0000b640       $unwind$?s_EventWindowProc@COPOSMICR@@KA_JPEAUHWND__@@I_K_J@Z 000000018002e640     MICRImpl.obj
 0002:0000b640       $unwind$?AtlWinModuleTerm@ATL@@YAJPEAU_ATL_WIN_MODULE70@1@PEAUHINSTANCE__@@@Z 000000018002e640     OposVariant.obj
 0002:0000b640       $unwind$__scrt_dllmain_exception_filter 000000018002e640     LIBCMT:utility.obj
 0002:0000b640       $unwind$?Is_bad_exception_allowed@@YAEPEBU_s_ESTypeList@@@Z 000000018002e640     libvcruntime:frame.obj
 0002:0000b640       $unwind$_recalloc_base     000000018002e640     libucrt:recalloc.obj
 0002:0000b640       $unwind$__acrt_free_locale 000000018002e640     libucrt:locale_refcounting.obj
 0002:0000b640       $unwind$__acrt_lowio_create_handle_array 000000018002e640     libucrt:osfinfo.obj
 0002:0000b640       $unwind$?setSBCS@@YAXPEAU__crt_multibyte_data@@@Z 000000018002e640     libucrt:mbctype.obj
 0002:0000b640       $unwind$_seh_filter_exe    000000018002e640     libucrt:exception_filter.obj
 0002:0000b640       $unwind$_initterm          000000018002e640     libucrt:initterm.obj
 0002:0000b640       $unwind$??$ensure_buffer_is_big_enough@D@formatting_buffer@__crt_stdio_output@@QEAA_N_K@Z 000000018002e640     libucrt:output.obj
 0002:0000b640       $unwind$??$ensure_buffer_is_big_enough@_W@formatting_buffer@__crt_stdio_output@@QEAA_N_K@Z 000000018002e640     libucrt:output.obj
 0002:0000b654       $unwind$??_GCRegObject@ATL@@UEAAPEAXI@Z 000000018002e654     MICR.obj
 0002:0000b654       $unwind$?Add@?$CSimpleArray@GV?$CSimpleArrayEqualHelper@G@ATL@@@ATL@@QEAAHAEBG@Z 000000018002e654     MICR.obj
 0002:0000b654       $unwind$?Add@?$CSimpleMap@PEA_WPEA_WVCExpansionVectorEqualHelper@ATL@@@ATL@@QEAAHAEBQEA_W0@Z 000000018002e654     MICR.obj
 0002:0000b654       $unwind$?Add@CComDynamicUnkArray@ATL@@QEAAKPEAUIUnknown@@@Z 000000018002e654     MICR.obj
 0002:0000b654       $unwind$?Advise@?$IOleObjectImpl@VCOPOSMICR@@@ATL@@UEAAJPEAUIAdviseSink@@PEAK@Z 000000018002e654     MICR.obj
 0002:0000b654       $unwind$?ClearReplacements@CExpansionVector@ATL@@QEAAJXZ 000000018002e654     MICR.obj
 0002:0000b654       $unwind$?CreateInstance@?$CComObject@V?$CComEnum@UIEnumConnectionPoints@@$1?_GUID_b196b285_bab4_101a_b69c_00aa00341d07@@3U__s_GUID@@BPEAUIConnectionPoint@@V?$_CopyInterface@UIConnectionPoint@@@ATL@@VCComSingleThreadModel@6@@ATL@@@ATL@@SAJPEAPEAV12@@Z 000000018002e654     MICR.obj
 0002:0000b654       $unwind$?CreateInstance@?$CComObject@V?$CComEnum@UIEnumConnections@@$1?_GUID_b196b287_bab4_101a_b69c_00aa00341d07@@3U__s_GUID@@BUtagCONNECTDATA@@V?$_Copy@UtagCONNECTDATA@@@ATL@@VCComSingleThreadModel@6@@ATL@@@ATL@@SAJPEAPEAV12@@Z 000000018002e654     MICR.obj
 0002:0000b654       $unwind$?RegisterServer@CComModule@ATL@@QEAAJHPEBU_GUID@@@Z 000000018002e654     MICR.obj
 0002:0000b654       $unwind$?Term@CAtlModule@ATL@@QEAAXXZ 000000018002e654     MICR.obj
 0002:0000b654       $unwind$?UnregisterServer@CComModule@ATL@@QEAAJHPEBU_GUID@@@Z 000000018002e654     MICR.obj
 0002:0000b654       $unwind$?VTFromRegType@CRegParser@ATL@@KAHPEB_WAEAG@Z 000000018002e654     MICR.obj
 0002:0000b654       $unwind$??0OposDispParms@@QEAA@PEAVOposVariant@@H@Z 000000018002e654     OposVariant.obj
 0002:0000b654       $unwind$?SetBSTR_Copy@OposVariant@@QEAAXPEA_WAEAJ@Z 000000018002e654     OposVariant.obj
 0002:0000b654       $unwind$?SetBSTR_InOutPtr@OposVariant@@QEAA_NPEAPEA_WAEAJ@Z 000000018002e654     OposVariant.obj
 0002:0000b654       $unwind$?SetDispatch_Ptr@OposVariant@@QEAAXPEAUIDispatch@@AEAJ@Z 000000018002e654     OposVariant.obj
 0002:0000b654       $unwind$?SetLONG_Ptr@OposVariant@@QEAAXPEAJAEAJ@Z 000000018002e654     OposVariant.obj
 0002:0000b654       $unwind$?SetString@OposVariant@@QEAAXPEB_WAEAJ@Z 000000018002e654     OposVariant.obj
 0002:0000b654       $unwind$?Term@CAtlComModule@ATL@@QEAAXXZ 000000018002e654     OposVariant.obj
 0002:0000b654       $unwind$_DllMainCRTStartup 000000018002e654     LIBCMT:dll_dllmain.obj
 0002:0000b654       $unwind$__vcrt_getptd_noexit 000000018002e654     libvcruntime:per_thread_data.obj
 0002:0000b654       $unwind$__vcrt_InitializeCriticalSectionEx 000000018002e654     libvcruntime:winapi_downlevel.obj
 0002:0000b654       $unwind$memcpy_s           000000018002e654     libucrt:cfout.obj
 0002:0000b654       $unwind$__acrt_getptd      000000018002e654     libucrt:per_thread_data.obj
 0002:0000b654       $unwind$__acrt_getptd_noexit 000000018002e654     libucrt:per_thread_data.obj
 0002:0000b654       $unwind$__acrt_execute_initializers 000000018002e654     libucrt:shared_initialization.obj
 0002:0000b654       $unwind$__acrt_InitializeCriticalSectionEx 000000018002e654     libucrt:winapi_thunks.obj
 0002:0000b654       $unwind$?free_crt_array_internal@@YAXQEAPEBX_K@Z 000000018002e654     libucrt:inittime.obj
 0002:0000b654       $unwind$??$common_lseek_nolock@_J@@YA_JH_JH@Z 000000018002e654     libucrt:lseek.obj
 0002:0000b654       $unwind$__acrt_stdio_flush_nolock 000000018002e654     libucrt:fflush.obj
 0002:0000b654       $unwind$??0_LocaleUpdate@@QEAA@QEAU__crt_locale_pointers@@@Z 000000018002e654     libucrt:output.obj
 0002:0000b654       $unwind$?type_case_Z@?$output_processor@_WV?$string_output_adapter@_W@__crt_stdio_output@@V?$format_validation_base@_WV?$string_output_adapter@_W@__crt_stdio_output@@@2@@__crt_stdio_output@@AEAA_NXZ 000000018002e654     libucrt:output.obj
 0002:0000b654       $unwind$?type_case_s@?$output_processor@_WV?$string_output_adapter@_W@__crt_stdio_output@@V?$format_validation_base@_WV?$string_output_adapter@_W@__crt_stdio_output@@@2@@__crt_stdio_output@@AEAA_NXZ 000000018002e654     libucrt:output.obj
 0002:0000b654       $unwind$_exception_enabled 000000018002e654     libucrt:libm_error.obj
 0002:0000b664       $unwind$?AddTermFunc@CAtlModule@ATL@@QEAAJP6AX_K@Z0@Z 000000018002e664     MICR.obj
 0002:0000b664       $unwind$?AtlComModuleRegisterServer@ATL@@YAJPEAU_ATL_COM_MODULE70@1@HPEBU_GUID@@@Z 000000018002e664     MICR.obj
 0002:0000b664       $unwind$?AtlComModuleUnregisterServer@ATL@@YAJPEAU_ATL_COM_MODULE70@1@HPEBU_GUID@@@Z 000000018002e664     MICR.obj
 0002:0000b664       $unwind$?CreateInstance@?$CComCreator@V?$CComAggObject@VCOPOSMICR@@@ATL@@@ATL@@SAJPEAXAEBU_GUID@@PEAPEAX@Z 000000018002e664     MICR.obj
 0002:0000b664       $unwind$?CreateInstance@?$CComCreator@V?$CComObjectCached@VCComClassFactory@ATL@@@ATL@@@ATL@@SAJPEAXAEBU_GUID@@PEAPEAX@Z 000000018002e664     MICR.obj
 0002:0000b664       $unwind$?GetPagesHelper@?$ISpecifyPropertyPagesImpl@VCOPOSMICR@@@ATL@@IEAAJPEAUtagCAUUID@@PEBUATL_PROPMAP_ENTRY@2@@Z 000000018002e664     MICR.obj
 0002:0000b664       $unwind$??_Estringdispid@CComTypeInfoHolder@ATL@@QEAAPEAXI@Z 000000018002e664     OposVariant.obj
 0002:0000b664       $unwind$__GSHandlerCheck_SEH 000000018002e664     LIBCMT:gshandlerseh.obj
 0002:0000b664       $unwind$??$TypeMatchHelper@V__FrameHandler3@@@@YAHPEBU_s_HandlerType@@PEBU_s_CatchableType@@PEBU_s_ThrowInfo@@@Z 000000018002e664     libvcruntime:frame.obj
 0002:0000b664       $unwind$??$TypeMatchHelper@V__FrameHandler4@@@@YAHPEAUHandlerType4@FH4@@PEBU_s_CatchableType@@PEBU_s_ThrowInfo@@@Z 000000018002e664     libvcruntime:frame.obj
 0002:0000b664       $unwind$?initialize_stdio_handles_nolock@@YAXXZ 000000018002e664     libucrt:ioinit.obj
 0002:0000b664       $unwind$__acrt_initialize_stdio 000000018002e664     libucrt:_file.obj
 0002:0000b664       $unwind$?process@?$output_processor@_WV?$string_output_adapter@_W@__crt_stdio_output@@V?$format_validation_base@_WV?$string_output_adapter@_W@__crt_stdio_output@@@2@@__crt_stdio_output@@QEAAHXZ 000000018002e664     libucrt:output.obj
 0002:0000b664       $unwind$?type_case_integer@?$output_processor@_WV?$string_output_adapter@_W@__crt_stdio_output@@V?$format_validation_base@_WV?$string_output_adapter@_W@__crt_stdio_output@@@2@@__crt_stdio_output@@AEAA_NI_N@Z 000000018002e664     libucrt:output.obj
 0002:0000b67c       $unwind$??0?$CComContainedObject@VCOPOSMICR@@@ATL@@QEAA@PEAX@Z 000000018002e67c     MICR.obj
 0002:0000b67c       $unwind$??1?$CComEnumImpl@UIEnumConnectionPoints@@$1?_GUID_b196b285_bab4_101a_b69c_00aa00341d07@@3U__s_GUID@@BPEAUIConnectionPoint@@V?$_CopyInterface@UIConnectionPoint@@@ATL@@@ATL@@UEAA@XZ 000000018002e67c     MICR.obj
 0002:0000b67c       $unwind$??1?$CComEnumImpl@UIEnumConnections@@$1?_GUID_b196b287_bab4_101a_b69c_00aa00341d07@@3U__s_GUID@@BUtagCONNECTDATA@@V?$_Copy@UtagCONNECTDATA@@@ATL@@@ATL@@UEAA@XZ 000000018002e67c     MICR.obj
 0002:0000b67c       $unwind$??_G?$CComAggObject@VCOPOSMICR@@@ATL@@UEAAPEAXI@Z 000000018002e67c     MICR.obj
 0002:0000b67c       $unwind$??_G?$CComContainedObject@VCOPOSMICR@@@ATL@@UEAAPEAXI@Z 000000018002e67c     MICR.obj
 0002:0000b67c       $unwind$??_G?$CComObject@V?$CComEnum@UIEnumConnectionPoints@@$1?_GUID_b196b285_bab4_101a_b69c_00aa00341d07@@3U__s_GUID@@BPEAUIConnectionPoint@@V?$_CopyInterface@UIConnectionPoint@@@ATL@@VCComSingleThreadModel@6@@ATL@@@ATL@@UEAAPEAXI@Z 000000018002e67c     MICR.obj
 0002:0000b67c       $unwind$??_G?$CComObject@V?$CComEnum@UIEnumConnections@@$1?_GUID_b196b287_bab4_101a_b69c_00aa00341d07@@3U__s_GUID@@BUtagCONNECTDATA@@V?$_Copy@UtagCONNECTDATA@@@ATL@@VCComSingleThreadModel@6@@ATL@@@ATL@@UEAAPEAXI@Z 000000018002e67c     MICR.obj
 0002:0000b67c       $unwind$??_G?$CComObject@VCOPOSMICR@@@ATL@@UEAAPEAXI@Z 000000018002e67c     MICR.obj
 0002:0000b67c       $unwind$??_G?$CComObjectCached@VCComClassFactory@ATL@@@ATL@@UEAAPEAXI@Z 000000018002e67c     MICR.obj
 0002:0000b67c       $unwind$??_GCComClassFactory@ATL@@UEAAPEAXI@Z 000000018002e67c     MICR.obj
 0002:0000b67c       $unwind$??_GCComModule@ATL@@UEAAPEAXI@Z 000000018002e67c     MICR.obj
 0002:0000b67c       $unwind$?DeleteSubKey@CRegKey@ATL@@QEAAJPEB_W@Z 000000018002e67c     MICR.obj
 0002:0000b67c       $unwind$?IOleObject_SetClientSite@CComControlBase@ATL@@QEAAJPEAUIOleClientSite@@@Z 000000018002e67c     MICR.obj
 0002:0000b67c       $unwind$?InitNew@?$IPersistStorageImpl@VCOPOSMICR@@@ATL@@UEAAJPEAUIStorage@@@Z 000000018002e67c     MICR.obj
 0002:0000b67c       $unwind$?IsDirty@?$IPersistStorageImpl@VCOPOSMICR@@@ATL@@UEAAJXZ 000000018002e67c     MICR.obj
 0002:0000b67c       $unwind$?Release@?$CComAggObject@VCOPOSMICR@@@ATL@@UEAAKXZ 000000018002e67c     MICR.obj
 0002:0000b67c       $unwind$?Release@?$CComObject@V?$CComEnum@UIEnumConnectionPoints@@$1?_GUID_b196b285_bab4_101a_b69c_00aa00341d07@@3U__s_GUID@@BPEAUIConnectionPoint@@V?$_CopyInterface@UIConnectionPoint@@@ATL@@VCComSingleThreadModel@6@@ATL@@@ATL@@UEAAKXZ 000000018002e67c     MICR.obj
 0002:0000b67c       $unwind$?Release@?$CComObject@V?$CComEnum@UIEnumConnections@@$1?_GUID_b196b287_bab4_101a_b69c_00aa00341d07@@3U__s_GUID@@BUtagCONNECTDATA@@V?$_Copy@UtagCONNECTDATA@@@ATL@@VCComSingleThreadModel@6@@ATL@@@ATL@@UEAAKXZ 000000018002e67c     MICR.obj
 0002:0000b67c       $unwind$?Release@?$CComObject@VCOPOSMICR@@@ATL@@UEAAKXZ 000000018002e67c     MICR.obj
 0002:0000b67c       $unwind$?SOData@COPOSMICR@@MEAAJJ@Z 000000018002e67c     MICR.obj
 0002:0000b67c       $unwind$?SOStatusUpdate@COPOSMICR@@MEAAJJ@Z 000000018002e67c     MICR.obj
 0002:0000b67c       $unwind$?SetAdvise@?$IViewObjectExImpl@VCOPOSMICR@@@ATL@@UEAAJKKPEAUIAdviseSink@@@Z 000000018002e67c     MICR.obj
 0002:0000b67c       $unwind$?Term@CComModule@ATL@@QEAAXXZ 000000018002e67c     MICR.obj
 0002:0000b67c       $unwind$DllMain            000000018002e67c     MICR.obj
 0002:0000b67c       $unwind$??1?$IConnectionPointImpl@VCOPOSMICR@@$1?DIID__IOPOSMICREvents@@3U_GUID@@BVCComDynamicUnkArray@ATL@@@ATL@@QEAA@XZ 000000018002e67c     MICRImpl.obj
 0002:0000b67c       $unwind$??1?$IConnectionPointImpl@VCOPOSMICR@@$1?IID_IPropertyNotifySink@@3U_GUID@@BVCComDynamicUnkArray@ATL@@@ATL@@QEAA@XZ 000000018002e67c     MICRImpl.obj
 0002:0000b67c       $unwind$?SetBSTR@OposVariant@@QEAAXPEA_WAEAJ@Z 000000018002e67c     OposVariant.obj
 0002:0000b67c       $unwind$?SetLONG@OposVariant@@QEAAXJ@Z 000000018002e67c     OposVariant.obj
 0002:0000b67c       $unwind$?SetVARIANT_BOOL@OposVariant@@QEAAXF@Z 000000018002e67c     OposVariant.obj
 0002:0000b67c       $unwind$??0CAtlBaseModule@ATL@@QEAA@XZ 000000018002e67c     atls:atlbase.obj
 0002:0000b67c       $unwind$??$GetProcAddressAll@P6AP6A_JPEAUHWND__@@I_K_J@ZPEAUAtlThunkData_t@@@Z@@YAP6AP6A_JPEAUHWND__@@I_K_J@ZPEAUAtlThunkData_t@@@ZPEAP6AP6A_J0I12@Z3@Z@Z 000000018002e67c     atls:atlthunk.obj
 0002:0000b67c       $unwind$??$GetProcAddressAll@P6APEAUAtlThunkData_t@@XZ@@YAP6APEAUAtlThunkData_t@@XZPEAP6APEAU0@XZ@Z 000000018002e67c     atls:atlthunk.obj
 0002:0000b67c       $unwind$??$GetProcAddressAll@P6AXPEAUAtlThunkData_t@@@Z@@YAP6AXPEAUAtlThunkData_t@@@ZPEAP6AX0@Z@Z 000000018002e67c     atls:atlthunk.obj
 0002:0000b67c       $unwind$??$GetProcAddressAll@P6AXPEAUAtlThunkData_t@@PEAX_K@Z@@YAP6AXPEAUAtlThunkData_t@@PEAX_K@ZPEAP6AX012@Z@Z 000000018002e67c     atls:atlthunk.obj
 0002:0000b67c       $unwind$?__AllocStdCallThunk_cmn@@YAPEAXXZ 000000018002e67c     atls:atlthunk.obj
 0002:0000b67c       $unwind$?__InitializeThunkPool@@YAHXZ 000000018002e67c     atls:atlthunk.obj
 0002:0000b67c       $unwind$AtlThunk_DataToCode 000000018002e67c     atls:atlthunk.obj
 0002:0000b67c       $unwind$_RTC_Initialize    000000018002e67c     LIBCMT:initsect.obj
 0002:0000b67c       $unwind$_RTC_Terminate     000000018002e67c     LIBCMT:initsect.obj
 0002:0000b67c       $unwind$?__scrt_initialize_thread_safe_statics@@YAHXZ 000000018002e67c     LIBCMT:thread_safe_statics.obj
 0002:0000b67c       $unwind$??_Gbad_alloc@std@@UEAAPEAXI@Z 000000018002e67c     LIBCMT:throw_bad_alloc.obj
 0002:0000b67c       $unwind$??_Gbad_array_new_length@std@@UEAAPEAXI@Z 000000018002e67c     LIBCMT:throw_bad_alloc.obj
 0002:0000b67c       $unwind$??_Gexception@std@@UEAAPEAXI@Z 000000018002e67c     LIBCMT:throw_bad_alloc.obj
 0002:0000b67c       $unwind$__FrameUnwindFilter 000000018002e67c     libvcruntime:ehhelpers.obj
 0002:0000b67c       $unwind$??_Gbad_exception@std@@UEAAPEAXI@Z 000000018002e67c     libvcruntime:frame.obj
 0002:0000b67c       $unwind$?ExFilterRethrowFH4@@YAHPEAU_EXCEPTION_POINTERS@@PEAUEHExceptionRecord@@HPEAH@Z 000000018002e67c     libvcruntime:frame.obj
 0002:0000b67c       $unwind$_FindAndUnlinkFrame 000000018002e67c     libvcruntime:risctrnsctrl.obj
 0002:0000b67c       $unwind$__vcrt_FlsSetValue 000000018002e67c     libvcruntime:winapi_downlevel.obj
 0002:0000b67c       $unwind$??$common_initialize_environment_nolock@D@@YAHXZ 000000018002e67c     libucrt:environment_initialization.obj
 0002:0000b67c       $unwind$_realloc_base      000000018002e67c     libucrt:realloc_base.obj
 0002:0000b67c       $unwind$?replace_current_thread_locale_nolock@@YAXQEAU__acrt_ptd@@QEAU__crt_locale_data@@@Z 000000018002e67c     libucrt:per_thread_data.obj
 0002:0000b67c       $unwind$__acrt_execute_uninitializers 000000018002e67c     libucrt:shared_initialization.obj
 0002:0000b67c       $unwind$__acrt_FlsSetValue 000000018002e67c     libucrt:winapi_thunks.obj
 0002:0000b67c       $unwind$__acrt_LocaleNameToLCID 000000018002e67c     libucrt:winapi_thunks.obj
 0002:0000b67c       $unwind$_updatetlocinfoEx_nolock 000000018002e67c     libucrt:locale_refcounting.obj
 0002:0000b67c       $unwind$_close_nolock      000000018002e67c     libucrt:close.obj
 0002:0000b67c       $unwind$__acrt_uninitialize_lowio 000000018002e67c     libucrt:ioinit.obj
 0002:0000b67c       $unwind$__acrt_errno_map_os_error 000000018002e67c     libucrt:errno.obj
 0002:0000b67c       $unwind$_initterm_e        000000018002e67c     libucrt:initterm.obj
 0002:0000b67c       $unwind$_fclose_nolock     000000018002e67c     libucrt:fclose.obj
 0002:0000b67c       $unwind$?type_case_n@?$output_processor@_WV?$string_output_adapter@_W@__crt_stdio_output@@V?$format_validation_base@_WV?$string_output_adapter@_W@__crt_stdio_output@@@2@@__crt_stdio_output@@AEAA_NXZ 000000018002e67c     libucrt:output.obj
 0002:0000b67c       $unwind$strncpy_s          000000018002e67c     libucrt:strncpy_s.obj
 0002:0000b67c       $unwind$wcsncpy_s          000000018002e67c     libucrt:wcsncpy_s.obj
 0002:0000b688       $unwind$?ChangeBSTR@OposVariant@@QEAAXPEAPEA_WAEAJ@Z 000000018002e688     OposVariant.obj
 0002:0000b688       $unwind$?ChangeLONG@OposVariant@@QEAAXPEAJAEAJ@Z 000000018002e688     OposVariant.obj
 0002:0000b688       $unwind$?x_ismbbtype_l@@YAHPEAU__crt_locale_pointers@@IHH@Z 000000018002e688     libucrt:ismbbyte.obj
 0002:0000b698       $unwind$swprintf_s         000000018002e698     MICR.obj
 0002:0000b6a8       $unwind$?_AtlVerifyStackAvailable@_ATL_SAFE_ALLOCA_IMPL@ATL@@YA_N_K@Z 000000018002e6a8     MICR.obj
 0002:0000b6d4       $unwind$?filt$0@?0??_AtlVerifyStackAvailable@_ATL_SAFE_ALLOCA_IMPL@ATL@@YA_N_K@Z@4HA 000000018002e6d4     MICR.obj
 0002:0000b6d4       $unwind$?fin$0@?0??dllmain_crt_process_attach@@YAHQEAUHINSTANCE__@@QEAX@Z@4HA 000000018002e6d4     LIBCMT:dll_dllmain.obj
 0002:0000b6d4       $unwind$?fin$0@?0??dllmain_crt_process_detach@@YAH_N@Z@4HA 000000018002e6d4     LIBCMT:dll_dllmain.obj
 0002:0000b6d4       $unwind$?fin$1@?0??dllmain_crt_process_detach@@YAH_N@Z@4HA 000000018002e6d4     LIBCMT:dll_dllmain.obj
 0002:0000b6d4       $unwind$_IsNonwritableInCurrentImage$filt$0 000000018002e6d4     LIBCMT:pesect.obj
 0002:0000b6d4       $unwind$?filt$0@?0??CxxCallCatchBlock@__FrameHandler4@@SAPEAXPEAU_EXCEPTION_RECORD@@@Z@4HA 000000018002e6d4     libvcruntime:frame.obj
 0002:0000b6d4       $unwind$_query_new_handler$fin$0 000000018002e6d4     libucrt:new_handler.obj
 0002:0000b6d4       $unwind$?fin$0@?0???$?RV<lambda_0ae27a3a962d80f24befdcbee591983d>@@AEAV<lambda_8d0ee55de4b1038c4002e0adecdf1839>@@V<lambda_dc504788e8f1664fe9b84e20bfb512f2>@@@?$__crt_seh_guarded_call@X@@QEAAX$$QEAV<lambda_0ae27a3a962d80f24befdcbee591983d>@@AEAV<lambda_8d0ee55de4b1038c4002e0adecdf1839>@@$$QEAV<lambda_dc504788e8f1664fe9b84e20bfb512f2>@@@Z@4HA 000000018002e6d4     libucrt:per_thread_data.obj
 0002:0000b6d4       $unwind$?fin$0@?0???$?RV<lambda_2d41944a1d46af3157314b8a01080d33>@@AEAV<lambda_8f455de75cd7d7f24b4096f044d8b9e6>@@V<lambda_aa500f224e6afead328df44964fe2772>@@@?$__crt_seh_guarded_call@X@@QEAAX$$QEAV<lambda_2d41944a1d46af3157314b8a01080d33>@@AEAV<lambda_8f455de75cd7d7f24b4096f044d8b9e6>@@$$QEAV<lambda_aa500f224e6afead328df44964fe2772>@@@Z@4HA 000000018002e6d4     libucrt:per_thread_data.obj
 0002:0000b6d4       $unwind$?fin$0@?0???$?RV<lambda_aa87e3671a710a21b5dc78c0bdf72e11>@@AEAV<lambda_92619d2358a28f41a33ba319515a20b9>@@V<lambda_6992ecaafeb10aed2b74cb1fae11a551>@@@?$__crt_seh_guarded_call@X@@QEAAX$$QEAV<lambda_aa87e3671a710a21b5dc78c0bdf72e11>@@AEAV<lambda_92619d2358a28f41a33ba319515a20b9>@@$$QEAV<lambda_6992ecaafeb10aed2b74cb1fae11a551>@@@Z@4HA 000000018002e6d4     libucrt:per_thread_data.obj
 0002:0000b6d4       $unwind$?fin$0@?0???$?RV<lambda_f2e299630e499de9f9a165e60fcd3db5>@@AEAV<lambda_2ae9d31cdba2644fcbeaf08da7c24588>@@V<lambda_40d01ff24d0e7b3814fdbdcee8eab3c7>@@@?$__crt_seh_guarded_call@X@@QEAAX$$QEAV<lambda_f2e299630e499de9f9a165e60fcd3db5>@@AEAV<lambda_2ae9d31cdba2644fcbeaf08da7c24588>@@$$QEAV<lambda_40d01ff24d0e7b3814fdbdcee8eab3c7>@@@Z@4HA 000000018002e6d4     libucrt:per_thread_data.obj
 0002:0000b6d4       $unwind$__acrt_update_thread_locale_data$fin$0 000000018002e6d4     libucrt:locale_refcounting.obj
 0002:0000b6d4       $unwind$?fin$0@?0???$?RV<lambda_410d79af7f07d98d83a3f525b3859a53>@@AEAV<lambda_3e16ef9562a7dcce91392c22ab16ea36>@@V<lambda_38119f0e861e05405d8a144b9b982f0a>@@@?$__crt_seh_guarded_call@X@@QEAAX$$QEAV<lambda_410d79af7f07d98d83a3f525b3859a53>@@AEAV<lambda_3e16ef9562a7dcce91392c22ab16ea36>@@$$QEAV<lambda_38119f0e861e05405d8a144b9b982f0a>@@@Z@4HA 000000018002e6d4     libucrt:wsetlocale.obj
 0002:0000b6d4       $unwind$?fin$0@?0???$?RV<lambda_751a882b2c74d4b022dec766aa51a29a>@@AEAV<lambda_628dfdc04ba53c8bfc02c9951375f3f5>@@V<lambda_f6c7be5f7998530c34de24c7437d6b54>@@@?$__crt_seh_guarded_call@H@@QEAAH$$QEAV<lambda_751a882b2c74d4b022dec766aa51a29a>@@AEAV<lambda_628dfdc04ba53c8bfc02c9951375f3f5>@@$$QEAV<lambda_f6c7be5f7998530c34de24c7437d6b54>@@@Z@4HA 000000018002e6d4     libucrt:close.obj
 0002:0000b6d4       $unwind$?fin$0@?0???$?RV<lambda_a37b2b86f63e897a80ea819b0eb08c01>@@AEAV<lambda_38ce7e780aa69e748d6df282ebc68efe>@@V<lambda_99fb1378e971ab6e7edea83e3a7a83a2>@@@?$__crt_seh_guarded_call@H@@QEAAH$$QEAV<lambda_a37b2b86f63e897a80ea819b0eb08c01>@@AEAV<lambda_38ce7e780aa69e748d6df282ebc68efe>@@$$QEAV<lambda_99fb1378e971ab6e7edea83e3a7a83a2>@@@Z@4HA 000000018002e6d4     libucrt:commit.obj
 0002:0000b6d4       $unwind$__acrt_initialize_lowio$fin$0 000000018002e6d4     libucrt:ioinit.obj
 0002:0000b6d4       $unwind$__acrt_lowio_ensure_fh_exists$fin$0 000000018002e6d4     libucrt:osfinfo.obj
 0002:0000b6d4       $unwind$_write$fin$0       000000018002e6d4     libucrt:write.obj
 0002:0000b6d4       $unwind$?fin$0@?0???$?RV<lambda_efdfa57d1f175319df784efa44bb7b81>@@AEAV<lambda_5f0a4c1567f8adc6734073e5d1e1b35c>@@V<lambda_2e8a7d3640ea6ccb4c2413664c2db6fd>@@@?$__crt_seh_guarded_call@X@@QEAAX$$QEAV<lambda_efdfa57d1f175319df784efa44bb7b81>@@AEAV<lambda_5f0a4c1567f8adc6734073e5d1e1b35c>@@$$QEAV<lambda_2e8a7d3640ea6ccb4c2413664c2db6fd>@@@Z@4HA 000000018002e6d4     libucrt:mbctype.obj
 0002:0000b6d4       $unwind$?fin$0@?0??update_thread_multibyte_data_internal@@YAPEAU__crt_multibyte_data@@QEAU__acrt_ptd@@QEAPEAU1@@Z@4HA 000000018002e6d4     libucrt:mbctype.obj
 0002:0000b6d4       $unwind$?fin$0@?0???$?RV<lambda_450d765d439847d4c735a33c368b5fc0>@@AEAV<lambda_44731a7d0e6d81c3e6aa82d741081786>@@V<lambda_601a2a7da3b7a96e9554ac7215c4b07c>@@@?$__crt_seh_guarded_call@P6AXH@Z@@QEAAP6AXH@Z$$QEAV<lambda_450d765d439847d4c735a33c368b5fc0>@@AEAV<lambda_44731a7d0e6d81c3e6aa82d741081786>@@$$QEAV<lambda_601a2a7da3b7a96e9554ac7215c4b07c>@@@Z@4HA 000000018002e6d4     libucrt:signal.obj
 0002:0000b6d4       $unwind$raise$fin$0        000000018002e6d4     libucrt:signal.obj
 0002:0000b6d4       $unwind$?filt$0@?0???R<lambda_6e4b09c48022b2350581041d5f6b0c4c>@@QEBA@XZ@4HA 000000018002e6d4     libucrt:exit.obj
 0002:0000b6d4       $unwind$?fin$0@?0???$?RV<lambda_d80eeec6fff315bfe5c115232f3240e3>@@AEAV<lambda_6e4b09c48022b2350581041d5f6b0c4c>@@V<lambda_2358e3775559c9db80273638284d5e45>@@@?$__crt_seh_guarded_call@X@@QEAAX$$QEAV<lambda_d80eeec6fff315bfe5c115232f3240e3>@@AEAV<lambda_6e4b09c48022b2350581041d5f6b0c4c>@@$$QEAV<lambda_2358e3775559c9db80273638284d5e45>@@@Z@4HA 000000018002e6d4     libucrt:exit.obj
 0002:0000b6d4       $unwind$?fin$0@?0???$?RV<lambda_638799b9deba96c50f710eeac98168cd>@@AEAV<lambda_22ebabd17bc4fa466a2aca6d8deb888d>@@V<lambda_a6f7d7db0129f75315ebf26d50c089f1>@@@?$__crt_seh_guarded_call@H@@QEAAH$$QEAV<lambda_638799b9deba96c50f710eeac98168cd>@@AEAV<lambda_22ebabd17bc4fa466a2aca6d8deb888d>@@$$QEAV<lambda_a6f7d7db0129f75315ebf26d50c089f1>@@@Z@4HA 000000018002e6d4     libucrt:onexit.obj
 0002:0000b6d4       $unwind$?fin$0@?0???$?RV<lambda_7777bce6b2f8c936911f934f8298dc43>@@AEAV<lambda_f03950bc5685219e0bcd2087efbe011e>@@V<lambda_3883c3dff614d5e0c5f61bb1ac94921c>@@@?$__crt_seh_guarded_call@H@@QEAAH$$QEAV<lambda_7777bce6b2f8c936911f934f8298dc43>@@AEAV<lambda_f03950bc5685219e0bcd2087efbe011e>@@$$QEAV<lambda_3883c3dff614d5e0c5f61bb1ac94921c>@@@Z@4HA 000000018002e6d4     libucrt:onexit.obj
 0002:0000b6d4       $unwind$_fcloseall$fin$0   000000018002e6d4     libucrt:closeall.obj
 0002:0000b6d4       $unwind$fclose$fin$0       000000018002e6d4     libucrt:fclose.obj
 0002:0000b6d4       $unwind$?fin$0@?0???$?RV<lambda_842d9ff0dc9ef11c61343bbaebe7f885>@@AEAV<lambda_c5860995281e5c4ce005b3de8f5874ee>@@V<lambda_d90129c13df834fdcbf8d2b88dafcf2d>@@@?$__crt_seh_guarded_call@X@@QEAAX$$QEAV<lambda_842d9ff0dc9ef11c61343bbaebe7f885>@@AEAV<lambda_c5860995281e5c4ce005b3de8f5874ee>@@$$QEAV<lambda_d90129c13df834fdcbf8d2b88dafcf2d>@@@Z@4HA 000000018002e6d4     libucrt:fflush.obj
 0002:0000b6d4       $unwind$?fin$0@?0???$?RV<lambda_886d6c58226a84441f68b9f2b8217b83>@@AEAV<lambda_ab61a845afdef5b7c387490eaf3616ee>@@V<lambda_f7f22ab5edc0698d5f6905b0d3f44752>@@@?$__crt_seh_guarded_call@X@@QEAAX$$QEAV<lambda_886d6c58226a84441f68b9f2b8217b83>@@AEAV<lambda_ab61a845afdef5b7c387490eaf3616ee>@@$$QEAV<lambda_f7f22ab5edc0698d5f6905b0d3f44752>@@@Z@4HA 000000018002e6d4     libucrt:fflush.obj
 0002:0000b6d4       $unwind$_ctrlfp$filt$0     000000018002e6d4     libucrt:fpctrl.obj
 0002:0000b6d4       $unwind$common_control87$filt$0 000000018002e6d4     libucrt:ieee.obj
 0002:0000b6dc       $unwind$?AtlInternalOleLoadFromStream@ATL@@YAJPEAUIStream@@AEBU_GUID@@PEAPEAXTClassesAllowedInStream@1@K@Z 000000018002e6dc     MICR.obj
 0002:0000b6f8       $unwind$?ReadFromStream@CComBSTR@ATL@@QEAAJPEAUIStream@@@Z 000000018002e6f8     MICR.obj
 0002:0000b6f8       $unwind$_configure_narrow_argv 000000018002e6f8     libucrt:argv_parsing.obj
 0002:0000b70c       $unwind$?WriteToStream@CComVariant@ATL@@QEAAJPEAUIStream@@@Z 000000018002e70c     MICR.obj
 0002:0000b720       $unwind$?RegOpenKeyExW@CAtlTransactionManager@ATL@@QEAAJPEAUHKEY__@@PEB_WKKPEAPEAU3@@Z 000000018002e720     MICR.obj
 0002:0000b720       $unwind$?WriteToStream@CComVariant@ATL@@QEAAJPEAUIStream@@G@Z 000000018002e720     MICR.obj
 0002:0000b720       $unwind$__dcrt_write_console 000000018002e720     libucrt:initcon.obj
 0002:0000b720       $unwind$??$__acrt_wcs_to_mbs_cp@U__crt_win32_buffer_no_resizing@@@@YAHQEB_WAEAV?$__crt_win32_buffer@DU__crt_win32_buffer_no_resizing@@@@I@Z 000000018002e720     libucrt:getmodulefilenamea.obj
 0002:0000b734       $unwind$?ReadFromStream@CComVariant@ATL@@QEAAJPEAUIStream@@GTClassesAllowedInStream@2@K@Z 000000018002e734     MICR.obj
 0002:0000b74c       $unwind$?GetSizeMax@CComVariant@ATL@@QEBAJPEAT_ULARGE_INTEGER@@@Z 000000018002e74c     MICR.obj
 0002:0000b764       $unwind$?RegCreateKeyExW@CAtlTransactionManager@ATL@@QEAAJPEAUHKEY__@@PEB_WKPEA_WKKQEAU_SECURITY_ATTRIBUTES@@PEAPEAU3@PEAK@Z 000000018002e764     MICR.obj
 0002:0000b778       $unwind$?GetGITPtr@CAtlModule@ATL@@UEAAJPEAPEAUIGlobalInterfaceTable@@@Z 000000018002e778     MICR.obj
 0002:0000b778       $unwind$?RegDeleteKeyW@CAtlTransactionManager@ATL@@QEAAJPEAUHKEY__@@PEB_W@Z 000000018002e778     MICR.obj
 0002:0000b778       $unwind$?getStateFromIterators@UWMap4@FH4@@SAHAEBViterator@12@H0H0@Z 000000018002e778     libvcruntime:frame.obj
 0002:0000b788       $unwind$?AtlHiMetricToPixel@ATL@@YAXPEBUtagSIZE@@PEAU2@@Z 000000018002e788     MICR.obj
 0002:0000b788       $unwind$?AtlInternalQueryInterface@ATL@@YAJPEAXPEBU_ATL_INTMAP_ENTRY@1@AEBU_GUID@@PEAPEAX@Z 000000018002e788     MICR.obj
 0002:0000b7a0       $unwind$?Append@CParseBuffer@CRegParser@ATL@@QEAAHPEB_WH@Z 000000018002e7a0     MICR.obj
 0002:0000b7a0       $unwind$?AtlComModuleGetClassObject@ATL@@YAJPEAU_ATL_COM_MODULE70@1@AEBU_GUID@@1PEAPEAX@Z 000000018002e7a0     MICR.obj
 0002:0000b7a0       $unwind$?EnumConnections@?$IConnectionPointImpl@VCOPOSMICR@@$1?DIID__IOPOSMICREvents@@3U_GUID@@BVCComDynamicUnkArray@ATL@@@ATL@@UEAAJPEAPEAUIEnumConnections@@@Z 000000018002e7a0     MICR.obj
 0002:0000b7a0       $unwind$?EnumConnections@?$IConnectionPointImpl@VCOPOSMICR@@$1?IID_IPropertyNotifySink@@3U_GUID@@BVCComDynamicUnkArray@ATL@@@ATL@@UEAAJPEAPEAUIEnumConnections@@@Z 000000018002e7a0     MICR.obj
 0002:0000b7a0       $unwind$?GetClassObject@CComModule@ATL@@QEAAJAEBU_GUID@@0PEAPEAX@Z 000000018002e7a0     MICR.obj
 0002:0000b7a0       $unwind$?Init@?$CComEnumImpl@UIEnumConnectionPoints@@$1?_GUID_b196b285_bab4_101a_b69c_00aa00341d07@@3U__s_GUID@@BPEAUIConnectionPoint@@V?$_CopyInterface@UIConnectionPoint@@@ATL@@@ATL@@QEAAJPEAPEAUIConnectionPoint@@0PEAUIUnknown@@W4CComEnumFlags@2@@Z 000000018002e7a0     MICR.obj
 0002:0000b7a0       $unwind$?Init@?$CComEnumImpl@UIEnumConnections@@$1?_GUID_b196b287_bab4_101a_b69c_00aa00341d07@@3U__s_GUID@@BUtagCONNECTDATA@@V?$_Copy@UtagCONNECTDATA@@@ATL@@@ATL@@QEAAJPEAUtagCONNECTDATA@@0PEAUIUnknown@@W4CComEnumFlags@2@@Z 000000018002e7a0     MICR.obj
 0002:0000b7a0       $unwind$?NextToken@CRegParser@ATL@@IEAAJPEA_W@Z 000000018002e7a0     MICR.obj
 0002:0000b7a0       $unwind$__acrt_fp_strflt_to_string 000000018002e7a0     libucrt:_fptostr.obj
 0002:0000b7a0       $unwind$__acrt_DownlevelLocaleNameToLCID 000000018002e7a0     libucrt:lcidtoname_downlevel.obj
 0002:0000b7a0       $unwind$??R<lambda_f03950bc5685219e0bcd2087efbe011e>@@QEBAHXZ 000000018002e7a0     libucrt:onexit.obj
 0002:0000b7b8       $unwind$?AtlRegisterClassCategoriesHelper@ATL@@YAJAEBU_GUID@@PEBU_ATL_CATMAP_ENTRY@1@H@Z 000000018002e7b8     MICR.obj
 0002:0000b7dc       $unwind$?AtlLoadTypeLib@ATL@@YAJPEAUHINSTANCE__@@PEB_WPEAPEA_WPEAPEAUITypeLib@@@Z 000000018002e7dc     MICR.obj
 0002:0000b7fc       $unwind$?AtlRegisterTypeLib@ATL@@YAJPEAUHINSTANCE__@@PEB_W@Z 000000018002e7fc     MICR.obj
 0002:0000b818       $unwind$?AtlUnRegisterTypeLib@ATL@@YAJPEAUHINSTANCE__@@PEB_W@Z 000000018002e818     MICR.obj
 0002:0000b820       $unwind$?GetTI@CComTypeInfoHolder@ATL@@QEAAJK@Z 000000018002e820     MICR.obj
 0002:0000b820       $unwind$?RecurseDeleteKey@CRegKey@ATL@@QEAAJPEB_W@Z 000000018002e820     MICR.obj
 0002:0000b840       $unwind$?UpdateRegistryFromResource@CAtlModule@ATL@@QEAAJIHPEAU_ATL_REGMAP_ENTRY@2@@Z 000000018002e840     MICR.obj
 0002:0000b840       $unwind$?UpdateRegistryFromResource@CAtlModule@ATL@@QEAAJPEB_WHPEAU_ATL_REGMAP_ENTRY@2@@Z 000000018002e840     MICR.obj
 0002:0000b860       $unwind$?Lookup@?$CSimpleMap@PEA_WPEA_WVCExpansionVectorEqualHelper@ATL@@@ATL@@QEBAPEA_WAEBQEA_W@Z 000000018002e860     MICR.obj
 0002:0000b860       $unwind$__std_exception_copy 000000018002e860     libvcruntime:std_exception.obj
 0002:0000b860       $unwind$_free_osfhnd       000000018002e860     libucrt:osfinfo.obj
 0002:0000b874       $unwind$?Add@CExpansionVector@ATL@@QEAAHPEB_W0@Z 000000018002e874     MICR.obj
 0002:0000b88c       $unwind$?PreProcessBuffer@CRegParser@ATL@@QEAAJPEA_WPEAPEA_W@Z 000000018002e88c     MICR.obj
 0002:0000b8b0       $unwind$?RegisterBuffer@CRegParser@ATL@@QEAAJPEA_WH@Z 000000018002e8b0     MICR.obj
 0002:0000b8d0       $unwind$?AddValue@CRegParser@ATL@@IEAAJAEAVCRegKey@2@PEB_WPEA_W@Z 000000018002e8d0     MICR.obj
 0002:0000b8f0       $unwind$?RegisterSubkeys@CRegParser@ATL@@IEAAJPEA_WPEAUHKEY__@@HH@Z 000000018002e8f0     MICR.obj
 0002:0000b910       $unwind$?SkipAssignment@CRegParser@ATL@@IEAAJPEA_W@Z 000000018002e910     MICR.obj
 0002:0000b928       $unwind$?RegisterFromResource@CRegObject@ATL@@IEAAJPEB_W00H@Z 000000018002e928     MICR.obj
 0002:0000b948       $unwind$?Cleanup@CComTypeInfoHolder@ATL@@SAX_K@Z 000000018002e948     MICR.obj
 0002:0000b948       $unwind$AtlThunk_FreeData  000000018002e948     atls:atlthunk.obj
 0002:0000b948       $unwind$_free_base         000000018002e948     libucrt:free_base.obj
 0002:0000b948       $unwind$?destroy_fls@@YAXPEAX@Z 000000018002e948     libucrt:per_thread_data.obj
 0002:0000b948       $unwind$__acrt_locale_free_numeric 000000018002e948     libucrt:initnum.obj
 0002:0000b948       $unwind$__acrt_locale_free_lc_time_if_unreferenced 000000018002e948     libucrt:locale_refcounting.obj
 0002:0000b950       $unwind$?GetIDsOfNames@CComTypeInfoHolder@ATL@@QEAAJAEBU_GUID@@PEAPEA_WIKPEAJ@Z 000000018002e950     MICR.obj
 0002:0000b96c       $unwind$?LoadNameCache@CComTypeInfoHolder@ATL@@QEAAJPEAUITypeInfo@@@Z 000000018002e96c     MICR.obj
 0002:0000b980       $unwind$?StartWindowProc@?$CWindowImplBaseT@VCWindow@ATL@@V?$CWinTraits@$0FGAAAAAA@$0A@@2@@ATL@@SA_JPEAUHWND__@@I_K_J@Z 000000018002e980     MICR.obj
 0002:0000b980       $unwind$?should_round_up@@YA_NQEBN_KFW4__acrt_rounding_mode@@@Z 000000018002e980     libucrt:cvt.obj
 0002:0000b980       $unwind$??$parse_command_line@D@@YAXPEADPEAPEAD0PEA_K2@Z 000000018002e980     libucrt:argv_parsing.obj
 0002:0000b99c       $unwind$?WindowProc@?$CWindowImplBaseT@VCWindow@ATL@@V?$CWinTraits@$0FGAAAAAA@$0A@@2@@ATL@@SA_JPEAUHWND__@@I_K_J@Z 000000018002e99c     MICR.obj
 0002:0000b9b4       $unwind$?atlCreate@?$CWindowImplBaseT@VCWindow@ATL@@V?$CWinTraits@$0FGAAAAAA@$0A@@2@@ATL@@QEAAPEAUHWND__@@PEAU3@V_U_RECT@2@PEB_WKKV_U_MENUorID@2@GPEAX@Z 000000018002e9b4     MICR.obj
 0002:0000b9cc       $unwind$??$AtlModuleRegisterWndClassInfoT@VAtlModuleRegisterWndClassInfoParamW@ATL@@@ATL@@YAGPEAU_ATL_BASE_MODULE70@0@PEAU_ATL_WIN_MODULE70@0@PEAU_ATL_WNDCLASSINFOW@0@PEAP6A_JPEAUHWND__@@I_K_J@ZVAtlModuleRegisterWndClassInfoParamW@0@@Z 000000018002e9cc     MICR.obj
 0002:0000b9ec       $unwind$?GetZoomInfo@CComControlBase@ATL@@QEAAXAEAUATL_DRAWINFO@@@Z 000000018002e9ec     MICR.obj
 0002:0000b9ec       $unwind$?OnKillFocus@CComControlBase@ATL@@QEAA_JI_K_JAEAH@Z 000000018002e9ec     MICR.obj
 0002:0000b9ec       $unwind$iswctype           000000018002e9ec     libucrt:iswctype.obj
 0002:0000b9f8       $unwind$?SendOnDataChange@CComControlBase@ATL@@QEAAJK@Z 000000018002e9f8     MICR.obj
 0002:0000ba08       $unwind$?OnSetFocus@CComControlBase@ATL@@QEAA_JI_K_JAEAH@Z 000000018002ea08     MICR.obj
 0002:0000ba18       $unwind$?OnMouseActivate@CComControlBase@ATL@@QEAA_JI_K_JAEAH@Z 000000018002ea18     MICR.obj
 0002:0000ba20       $unwind$?GetAmbientLocaleID@CComControlBase@ATL@@QEAAJAEAK@Z 000000018002ea20     MICR.obj
 0002:0000ba20       $unwind$?GetAmbientUserMode@CComControlBase@ATL@@QEAAJAEAH@Z 000000018002ea20     MICR.obj
 0002:0000ba30       $unwind$?IQuickActivate_QuickActivate@CComControlBase@ATL@@QEAAJPEAUtagQACONTAINER@@PEAUtagQACONTROL@@@Z 000000018002ea30     MICR.obj
 0002:0000ba48       $unwind$?DoVerbProperties@CComControlBase@ATL@@QEAAJPEBUtagRECT@@PEAUHWND__@@@Z 000000018002ea48     MICR.obj
 0002:0000ba60       $unwind$?InPlaceActivate@CComControlBase@ATL@@QEAAJJPEBUtagRECT@@@Z 000000018002ea60     MICR.obj
 0002:0000ba80       $unwind$?IOleObject_Close@CComControlBase@ATL@@QEAAJK@Z 000000018002ea80     MICR.obj
 0002:0000ba80       $unwind$?type_case_c_tchar@?$output_processor@_WV?$string_output_adapter@_W@__crt_stdio_output@@V?$format_validation_base@_WV?$string_output_adapter@_W@__crt_stdio_output@@@2@@__crt_stdio_output@@AEAA_N_W@Z 000000018002ea80     libucrt:output.obj
 0002:0000ba90       $unwind$?IOleInPlaceObject_UIDeactivate@CComControlBase@ATL@@QEAAJXZ 000000018002ea90     MICR.obj
 0002:0000baa8       $unwind$?IOleInPlaceObject_SetObjectRects@CComControlBase@ATL@@QEAAJPEBUtagRECT@@0@Z 000000018002eaa8     MICR.obj
 0002:0000babc       $unwind$?IViewObject_Draw@CComControlBase@ATL@@QEAAJKJPEAXPEAUtagDVTARGETDEVICE@@PEAUHDC__@@2PEBU_RECTL@@3@Z 000000018002eabc     MICR.obj
 0002:0000bad8       $unwind$?IDataObject_GetData@CComControlBase@ATL@@QEAAJPEAUtagFORMATETC@@PEAUtagSTGMEDIUM@@@Z 000000018002ead8     MICR.obj
 0002:0000baf8       $unwind$?OnPaint@CComControlBase@ATL@@QEAA_JI_K_JAEAH@Z 000000018002eaf8     MICR.obj
 0002:0000bb14       $unwind$?OnDrawAdvanced@CComControlBase@ATL@@UEAAJAEAUATL_DRAWINFO@@@Z 000000018002eb14     MICR.obj
 0002:0000bb30       $unwind$?Invoke@?$IDispatchImpl@UIOPOSMICR@@$1?IID_IOPOSMICR@@3U_GUID@@B$1?LIBID_OposMICR_CCO@@3U3@B$00$0A@VCComTypeInfoHolder@ATL@@@ATL@@UEAAJJAEBU_GUID@@KGPEAUtagDISPPARAMS@@PEAUtagVARIANT@@PEAUtagEXCEPINFO@@PEAI@Z 000000018002eb30     MICR.obj
 0002:0000bb30       $unwind$?ReleaseDevice@COPOSMICR@@UEAAJPEAJ@Z 000000018002eb30     MICRImpl.obj
 0002:0000bb30       $unwind$_mbsdec_l          000000018002eb30     libucrt:mbsdec.obj
 0002:0000bb3c       $unwind$?atlCreate@?$CWindowImpl@VCOPOSMICR@@VCWindow@ATL@@V?$CWinTraits@$0FGAAAAAA@$0A@@3@@ATL@@QEAAPEAUHWND__@@PEAU3@V_U_RECT@2@PEB_WKKV_U_MENUorID@2@PEAX@Z 000000018002eb3c     MICR.obj
 0002:0000bb3c       $unwind$?fp_format_e@@YAHQEBNQEAD_K12H_NIQEAU__crt_locale_pointers@@W4__acrt_rounding_mode@@@Z 000000018002eb3c     libucrt:cvt.obj
 0002:0000bb3c       $unwind$_mbtowc_l          000000018002eb3c     libucrt:mbtowc.obj
 0002:0000bb3c       $unwind$__acrt_LCMapStringEx 000000018002eb3c     libucrt:winapi_thunks.obj
 0002:0000bb50       $unwind$?CreateControlWindow@?$CComControl@VCOPOSMICR@@V?$CWindowImpl@VCOPOSMICR@@VCWindow@ATL@@V?$CWinTraits@$0FGAAAAAA@$0A@@3@@ATL@@@ATL@@UEAAPEAUHWND__@@PEAU3@AEAUtagRECT@@@Z 000000018002eb50     MICR.obj
 0002:0000bb50       $unwind$?ClearInput@COPOSMICR@@UEAAJPEAJ@Z 000000018002eb50     MICRImpl.obj
 0002:0000bb50       $unwind$?ClearInputProperties@COPOSMICR@@UEAAJPEAJ@Z 000000018002eb50     MICRImpl.obj
 0002:0000bb50       $unwind$?EndInsertion@COPOSMICR@@UEAAJPEAJ@Z 000000018002eb50     MICRImpl.obj
 0002:0000bb50       $unwind$?EndRemoval@COPOSMICR@@UEAAJPEAJ@Z 000000018002eb50     MICRImpl.obj
 0002:0000bb50       $unwind$?__scrt_throw_std_bad_alloc@@YAXXZ 000000018002eb50     LIBCMT:throw_bad_alloc.obj
 0002:0000bb50       $unwind$?__scrt_throw_std_bad_array_new_length@@YAXXZ 000000018002eb50     LIBCMT:throw_bad_alloc.obj
 0002:0000bb50       $unwind$_raise_exc         000000018002eb50     libucrt:fpexcept.obj
 0002:0000bb58       $unwind$?GetSizeMax@?$IPersistStreamInitImpl@VCOPOSMICR@@@ATL@@UEAAJPEAT_ULARGE_INTEGER@@@Z 000000018002eb58     MICR.obj
 0002:0000bb70       $unwind$?IPersistStreamInit_Load@?$IPersistStreamInitImpl@VCOPOSMICR@@@ATL@@QEAAJPEAUIStream@@PEBUATL_PROPMAP_ENTRY@2@@Z 000000018002eb70     MICR.obj
 0002:0000bb8c       $unwind$?IPersistStreamInit_Save@?$IPersistStreamInitImpl@VCOPOSMICR@@@ATL@@QEAAJPEAUIStream@@HPEBUATL_PROPMAP_ENTRY@2@@Z 000000018002eb8c     MICR.obj
 0002:0000bba8       $unwind$?DoVerbPrimary@?$IOleObjectImpl@VCOPOSMICR@@@ATL@@QEAAJPEBUtagRECT@@PEAUHWND__@@@Z 000000018002eba8     MICR.obj
 0002:0000bbc0       $unwind$?TranslateAcceleratorW@?$IOleInPlaceActiveObjectImpl@VCOPOSMICR@@@ATL@@UEAAJPEAUtagMSG@@@Z 000000018002ebc0     MICR.obj
 0002:0000bbcc       $unwind$?Draw@?$IViewObjectExImpl@VCOPOSMICR@@@ATL@@UEAAJKJPEAXPEAUtagDVTARGETDEVICE@@PEAUHDC__@@2PEBU_RECTL@@3P6AH_K@Z4@Z 000000018002ebcc     MICR.obj
 0002:0000bbd4       $unwind$?QueryHitRect@?$IViewObjectExImpl@VCOPOSMICR@@@ATL@@UEAAJKPEBUtagRECT@@0JPEAK@Z 000000018002ebd4     MICR.obj
 0002:0000bbe4       $unwind$?OnWindowMessage@?$IOleInPlaceObjectWindowlessImpl@VCOPOSMICR@@@ATL@@UEAAJI_K_JPEA_J@Z 000000018002ebe4     MICR.obj
 0002:0000bbf8       $unwind$?EnumConnectionPoints@?$IConnectionPointContainerImpl@VCOPOSMICR@@@ATL@@UEAAJPEAPEAUIEnumConnectionPoints@@@Z 000000018002ebf8     MICR.obj
 0002:0000bc20       $unwind$?FindConnectionPoint@?$IConnectionPointContainerImpl@VCOPOSMICR@@@ATL@@UEAAJAEBU_GUID@@PEAPEAUIConnectionPoint@@@Z 000000018002ec20     MICR.obj
 0002:0000bc20       $unwind$?__mbrtoc32_utf8@__crt_mbstring@@YA_KPEA_UPEBD_KPEAU_Mbstatet@@@Z 000000018002ec20     libucrt:mbrtoc32.obj
 0002:0000bc3c       $unwind$?Load@?$IPersistStorageImpl@VCOPOSMICR@@@ATL@@UEAAJPEAUIStorage@@@Z 000000018002ec3c     MICR.obj
 0002:0000bc4c       $unwind$?Save@?$IPersistStorageImpl@VCOPOSMICR@@@ATL@@UEAAJPEAUIStorage@@H@Z 000000018002ec4c     MICR.obj
 0002:0000bc60       $unwind$?IPSI_GetIPersistStreamInit@?$IPersistStorageImpl@VCOPOSMICR@@@ATL@@AEAAPEAUIPersistStreamInit@@XZ 000000018002ec60     MICR.obj
 0002:0000bc60       $unwind$?parse_int_from_format_string@?$output_processor@_WV?$string_output_adapter@_W@__crt_stdio_output@@V?$format_validation_base@_WV?$string_output_adapter@_W@__crt_stdio_output@@@2@@__crt_stdio_output@@AEAA_NQEAH@Z 000000018002ec60     libucrt:output.obj
 0002:0000bc74       $unwind$?GetInterfaceSafetyOptions@?$IObjectSafetyImpl@VCOPOSMICR@@$02@ATL@@UEAAJAEBU_GUID@@PEAK1@Z 000000018002ec74     MICR.obj
 0002:0000bc88       $unwind$?SetInterfaceSafetyOptions@?$IObjectSafetyImpl@VCOPOSMICR@@$02@ATL@@UEAAJAEBU_GUID@@KK@Z 000000018002ec88     MICR.obj
 0002:0000bc9c       $unwind$?Advise@?$IConnectionPointImpl@VCOPOSMICR@@$1?DIID__IOPOSMICREvents@@3U_GUID@@BVCComDynamicUnkArray@ATL@@@ATL@@UEAAJPEAUIUnknown@@PEAK@Z 000000018002ec9c     MICR.obj
 0002:0000bc9c       $unwind$?Advise@?$IConnectionPointImpl@VCOPOSMICR@@$1?IID_IPropertyNotifySink@@3U_GUID@@BVCComDynamicUnkArray@ATL@@@ATL@@UEAAJPEAUIUnknown@@PEAK@Z 000000018002ec9c     MICR.obj
 0002:0000bcb0       $unwind$?Fire_DataEvent@?$CProxy_IOPOSEvents@VCOPOSMICR@@@@QEAAXJ@Z 000000018002ecb0     MICR.obj
 0002:0000bcb0       $unwind$?Fire_StatusUpdateEvent@?$CProxy_IOPOSEvents@VCOPOSMICR@@@@QEAAXJ@Z 000000018002ecb0     MICR.obj
 0002:0000bcc8       $unwind$?Fire_DirectIOEvent@?$CProxy_IOPOSEvents@VCOPOSMICR@@@@QEAAXJPEAJPEAPEA_W@Z 000000018002ecc8     MICR.obj
 0002:0000bce8       $unwind$?Fire_ErrorEvent@?$CProxy_IOPOSEvents@VCOPOSMICR@@@@QEAAXJJJPEAJ@Z 000000018002ece8     MICR.obj
 0002:0000bd08       $unwind$?FireTheEvent@?$CProxy_IOPOSEvents@VCOPOSMICR@@@@IEAAXPEAVOposVariant@@IAEAJPEB_WJ@Z 000000018002ed08     MICR.obj
 0002:0000bd18       $unwind$?ProcessWindowMessage@COPOSMICR@@UEAAHPEAUHWND__@@I_K_JAEA_JK@Z 000000018002ed18     MICR.obj
 0002:0000bd18       $unwind$__dcrt_get_narrow_environment_from_os 000000018002ed18     libucrt:get_environment_from_os.obj
 0002:0000bd18       $unwind$?fp_format_f_internal@@YAHQEAD_KHQEAU_strflt@@_NQEAU__crt_locale_pointers@@@Z 000000018002ed18     libucrt:cvt.obj
 0002:0000bd18       $unwind$??$__acrt_wcs_to_mbs_cp@U__crt_win32_buffer_internal_dynamic_resizing@@@@YAHQEB_WAEAV?$__crt_win32_buffer@DU__crt_win32_buffer_internal_dynamic_resizing@@@@I@Z 000000018002ed18     libucrt:argv_wildcards.obj
 0002:0000bd30       $unwind$?SOError@COPOSMICR@@MEAAJJJJPEAJ@Z 000000018002ed30     MICR.obj
 0002:0000bd30       $unwind$_invalid_parameter 000000018002ed30     libucrt:invalid_parameter.obj
 0002:0000bd44       $unwind$?Clone@?$CComEnumImpl@UIEnumConnectionPoints@@$1?_GUID_b196b285_bab4_101a_b69c_00aa00341d07@@3U__s_GUID@@BPEAUIConnectionPoint@@V?$_CopyInterface@UIConnectionPoint@@@ATL@@@ATL@@UEAAJPEAPEAUIEnumConnectionPoints@@@Z 000000018002ed44     MICR.obj
 0002:0000bd44       $unwind$?Clone@?$CComEnumImpl@UIEnumConnections@@$1?_GUID_b196b287_bab4_101a_b69c_00aa00341d07@@3U__s_GUID@@BUtagCONNECTDATA@@V?$_Copy@UtagCONNECTDATA@@@ATL@@@ATL@@UEAAJPEAPEAUIEnumConnections@@@Z 000000018002ed44     MICR.obj
 0002:0000bd5c       $unwind$?GetOposProp@COPOSMICR@@IEAAJJPEAJJ@Z 000000018002ed5c     MICRImpl.obj
 0002:0000bd5c       $unwind$?GetOposProp@COPOSMICR@@IEAAJJPEAPEA_WJ@Z 000000018002ed5c     MICRImpl.obj
 0002:0000bd74       $unwind$?SetOposProp@COPOSMICR@@IEAAJJJJ@Z 000000018002ed74     MICRImpl.obj
 0002:0000bd94       $unwind$?DoInvoke@COPOSMICR@@IEAAJJPEAVOposVariant@@IHPEAJ_N@Z 000000018002ed94     MICRImpl.obj
 0002:0000bdac       $unwind$?SetCOFreezeEvents@COPOSMICR@@IEAAXF@Z 000000018002edac     MICRImpl.obj
 0002:0000bdc0       $unwind$?OnDraw@COPOSMICR@@MEAAJAEAUATL_DRAWINFO@@@Z 000000018002edc0     MICRImpl.obj
 0002:0000bdd8       $unwind$?EventInit@COPOSMICR@@IEAAJXZ 000000018002edd8     MICRImpl.obj
 0002:0000bdec       $unwind$?EventWindowProc@COPOSMICR@@IEAA_JI_K_J@Z 000000018002edec     MICRImpl.obj
 0002:0000bdec       $unwind$__stdio_common_vswprintf_s 000000018002edec     libucrt:output.obj
 0002:0000bdf8       $unwind$?get_ControlObjectDescription@COPOSMICR@@UEAAJPEAPEA_W@Z 000000018002edf8     MICRImpl.obj
 0002:0000bdf8       $unwind$__dcrt_lowio_ensure_console_output_initialized 000000018002edf8     libucrt:initcon.obj
 0002:0000bdf8       $unwind$_isleadbyte_l      000000018002edf8     libucrt:_wctype.obj
 0002:0000bdf8       $unwind$?getSystemCP@@YAHH@Z 000000018002edf8     libucrt:mbctype.obj
 0002:0000be00       $unwind$?BeginInsertion@COPOSMICR@@UEAAJJPEAJ@Z 000000018002ee00     MICRImpl.obj
 0002:0000be00       $unwind$?BeginRemoval@COPOSMICR@@UEAAJJPEAJ@Z 000000018002ee00     MICRImpl.obj
 0002:0000be00       $unwind$?CheckHealth@COPOSMICR@@UEAAJJPEAJ@Z 000000018002ee00     MICRImpl.obj
 0002:0000be00       $unwind$?ResetStatistics@COPOSMICR@@UEAAJPEA_WPEAJ@Z 000000018002ee00     MICRImpl.obj
 0002:0000be00       $unwind$?RetrieveStatistics@COPOSMICR@@UEAAJPEAPEA_WPEAJ@Z 000000018002ee00     MICRImpl.obj
 0002:0000be00       $unwind$?UpdateFirmware@COPOSMICR@@UEAAJPEA_WPEAJ@Z 000000018002ee00     MICRImpl.obj
 0002:0000be00       $unwind$?UpdateStatistics@COPOSMICR@@UEAAJPEA_WPEAJ@Z 000000018002ee00     MICRImpl.obj
 0002:0000be10       $unwind$?ClaimDevice@COPOSMICR@@UEAAJJPEAJ@Z 000000018002ee10     MICRImpl.obj
 0002:0000be20       $unwind$?Close@COPOSMICR@@UEAAJPEAJ@Z 000000018002ee20     MICRImpl.obj
 0002:0000be2c       $unwind$?DirectIO@COPOSMICR@@UEAAJJPEAJPEAPEA_W0@Z 000000018002ee2c     MICRImpl.obj
 0002:0000be48       $unwind$?Open@COPOSMICR@@UEAAJPEA_WPEAJ@Z 000000018002ee48     MICRImpl.obj
 0002:0000be6c       $unwind$?CompareFirmwareVersion@COPOSMICR@@UEAAJPEA_WPEAJ1@Z 000000018002ee6c     MICRImpl.obj
 0002:0000be6c       $unwind$?initialize_inherited_file_handles_nolock@@YAXXZ 000000018002ee6c     libucrt:ioinit.obj
 0002:0000be88       $unwind$__scrt_is_nonwritable_in_current_image 000000018002ee88     LIBCMT:utility.obj
 0002:0000bea8       $unwind$__scrt_is_nonwritable_in_current_image$filt$0 000000018002eea8     LIBCMT:utility.obj
 0002:0000beb0       $unwind$__report_securityfailure 000000018002eeb0     LIBCMT:gs_report.obj
 0002:0000beb8       $unwind$__report_gsfailure 000000018002eeb8     LIBCMT:gs_report.obj
 0002:0000bec0       $unwind$capture_current_context 000000018002eec0     LIBCMT:gs_report.obj
 0002:0000becc       $unwind$capture_previous_context 000000018002eecc     LIBCMT:gs_report.obj
 0002:0000bed8       $unwind$??2@YAPEAX_KAEBUnothrow_t@std@@@Z 000000018002eed8     LIBCMT:new_scalar_nothrow.obj
 0002:0000bee8       $cppxdata$??2@YAPEAX_KAEBUnothrow_t@std@@@Z 000000018002eee8     LIBCMT:new_scalar_nothrow.obj
 0002:0000bef5       $stateUnwindMap$??2@YAPEAX_KAEBUnothrow_t@std@@@Z 000000018002eef5     LIBCMT:new_scalar_nothrow.obj
 0002:0000bef8       $tryMap$??2@YAPEAX_KAEBUnothrow_t@std@@@Z 000000018002eef8     LIBCMT:new_scalar_nothrow.obj
 0002:0000bf00       $handlerMap$??2@YAPEAX_KAEBUnothrow_t@std@@@Z 000000018002ef00     LIBCMT:new_scalar_nothrow.obj
 0002:0000bf08       $ip2state$??2@YAPEAX_KAEBUnothrow_t@std@@@Z 000000018002ef08     LIBCMT:new_scalar_nothrow.obj
 0002:0000bf0c       $unwind$?catch$0@?0???2@YAPEAX_KAEBUnothrow_t@std@@@Z@4HA 000000018002ef0c     LIBCMT:new_scalar_nothrow.obj
 0002:0000bf1c       $cppxdata$?catch$0@?0???2@YAPEAX_KAEBUnothrow_t@std@@@Z@4HA 000000018002ef1c     LIBCMT:new_scalar_nothrow.obj
 0002:0000bf26       $stateUnwindMap$?catch$0@?0???2@YAPEAX_KAEBUnothrow_t@std@@@Z@4HA 000000018002ef26     LIBCMT:new_scalar_nothrow.obj
 0002:0000bf28       $ip2state$?catch$0@?0???2@YAPEAX_KAEBUnothrow_t@std@@@Z@4HA 000000018002ef28     LIBCMT:new_scalar_nothrow.obj
 0002:0000bf2c       $unwind$__GSHandlerCheckCommon 000000018002ef2c     LIBCMT:gshandler.obj
 0002:0000bf38       $xdatasym                  000000018002ef38     LIBCMT:chkstk.obj
 0002:0000bf40       $xdatasym                  000000018002ef40     LIBCMT:amdsecgs.obj
 0002:0000bf44       $unwind$?dllmain_crt_process_attach@@YAHQEAUHINSTANCE__@@QEAX@Z 000000018002ef44     LIBCMT:dll_dllmain.obj
 0002:0000bf80       $unwind$?dllmain_crt_process_detach@@YAH_N@Z 000000018002ef80     LIBCMT:dll_dllmain.obj
 0002:0000bfd4       $unwind$?dllmain_dispatch@@YAHQEAUHINSTANCE__@@KQEAX@Z 000000018002efd4     LIBCMT:dll_dllmain.obj
 0002:0000bffc       $unwind$?filt$0@?0??dllmain_dispatch@@YAHQEAUHINSTANCE__@@KQEAX@Z@4HA 000000018002effc     LIBCMT:dll_dllmain.obj
 0002:0000bffc       $unwind$?filt$0@?0??FrameUnwindToState@__FrameHandler4@@SAXPEA_KPEAU_xDISPATCHER_CONTEXT@@PEAUFuncInfo4@FH4@@H@Z@4HA 000000018002effc     libvcruntime:frame.obj
 0002:0000bffc       $unwind$?fin$1@?0??FrameUnwindToState@__FrameHandler4@@SAXPEA_KPEAU_xDISPATCHER_CONTEXT@@PEAUFuncInfo4@FH4@@H@Z@4HA 000000018002effc     libvcruntime:frame.obj
 0002:0000c004       $unwind$__isa_available_init 000000018002f004     LIBCMT:cpu_disp.obj
 0002:0000c014       $unwind$__scrt_fastfail    000000018002f014     LIBCMT:utility_desktop.obj
 0002:0000c024       $unwind$__security_init_cookie 000000018002f024     LIBCMT:gs_support.obj
 0002:0000c030       $xdatasym                  000000018002f030     LIBCMT:guard_dispatch.obj
 0002:0000c038       $xdatasym                  000000018002f038     LIBCMT:guard_xfg_dispatch.obj
 0002:0000c03c       $unwind$AtlThunk_InitData  000000018002f03c     atls:atlthunk.obj
 0002:0000c050       $unwind$wcsstr             000000018002f050     libvcruntime:wcsstr.obj
 0002:0000c068       $xdatasym                  000000018002f068     libvcruntime:memcmp.obj
 0002:0000c070       $xdatasym                  000000018002f070     libvcruntime:memcpy.obj
 0002:0000c080       $xdatasym                  000000018002f080     libvcruntime:memset.obj
 0002:0000c090       $unwind$__C_specific_handler 000000018002f090     libvcruntime:riscchandler.obj
 0002:0000c0ac       $unwind$?DecompFuncInfo@FH4@@YA_JPEAEAEAUFuncInfo4@1@_KH_N@Z 000000018002f0ac     libvcruntime:risctrnsctrl.obj
 0002:0000c0c4       $unwind$?UnwindNestedFrames@__FrameHandler4@@SAXPEA_KPEAUEHExceptionRecord@@PEAU_CONTEXT@@0PEAXPEAUFuncInfo4@FH4@@HHPEAUHandlerType4@5@PEAU_xDISPATCHER_CONTEXT@@E@Z 000000018002f0c4     libvcruntime:risctrnsctrl.obj
 0002:0000c0d8       $unwind$?GetRangeOfTrysToCheck@__FrameHandler4@@SA?AU?$pair@Viterator@TryBlockMap4@FH4@@V123@@std@@AEAVTryBlockMap4@FH4@@HPEAU_xDISPATCHER_CONTEXT@@PEAUFuncInfo4@5@H@Z 000000018002f0d8     libvcruntime:risctrnsctrl.obj
 0002:0000c0f4       $unwind$__CxxFrameHandler4 000000018002f0f4     libvcruntime:risctrnsctrl.obj
 0002:0000c108       $unwind$??$_CallSETranslator@V__FrameHandler4@@@@YAHPEAUEHExceptionRecord@@PEA_KPEAU_CONTEXT@@PEAU_xDISPATCHER_CONTEXT@@PEAUFuncInfo4@FH4@@K1H@Z 000000018002f108     libvcruntime:risctrnsctrl.obj
 0002:0000c128       $unwind$?filt$0@?0???$_CallSETranslator@V__FrameHandler4@@@@YAHPEAUEHExceptionRecord@@PEA_KPEAU_CONTEXT@@PEAU_xDISPATCHER_CONTEXT@@PEAUFuncInfo4@FH4@@K1H@Z@4HA 000000018002f128     libvcruntime:risctrnsctrl.obj
 0002:0000c134       $unwind$__DestructExceptionObject 000000018002f134     libvcruntime:ehhelpers.obj
 0002:0000c154       $unwind$__DestructExceptionObject$filt$0 000000018002f154     libvcruntime:ehhelpers.obj
 0002:0000c154       $unwind$?fin$1@?0??CxxCallCatchBlock@__FrameHandler4@@SAPEAXPEAU_EXCEPTION_RECORD@@@Z@4HA 000000018002f154     libvcruntime:frame.obj
 0002:0000c160       $unwind$_CxxThrowException 000000018002f160     libvcruntime:throw.obj
 0002:0000c170       $xdatasym                  000000018002f170     libvcruntime:notify.obj
 0002:0000c17c       $unwind$?StateFromIp@__FrameHandler4@@SAHPEAUFuncInfo4@FH4@@PEAU_xDISPATCHER_CONTEXT@@_K@Z 000000018002f17c     libvcruntime:ehstate.obj
 0002:0000c190       $unwind$?getStartStop@UWMap4@FH4@@QEAAXHHAEAViterator@12@0@Z 000000018002f190     libvcruntime:frame.obj
 0002:0000c1a8       $unwind$?FrameUnwindToState@__FrameHandler4@@SAXPEA_KPEAU_xDISPATCHER_CONTEXT@@PEAUFuncInfo4@FH4@@H@Z 000000018002f1a8     libvcruntime:frame.obj
 0002:0000c1f0       $unwind$?CxxCallCatchBlock@__FrameHandler4@@SAPEAXPEAU_EXCEPTION_RECORD@@@Z 000000018002f1f0     libvcruntime:frame.obj
 0002:0000c24c       $unwind$?IsInExceptionSpec@@YAEPEAUEHExceptionRecord@@PEBU_s_ESTypeList@@@Z 000000018002f24c     libvcruntime:frame.obj
 0002:0000c268       $unwind$??$__InternalCxxFrameHandler@V__FrameHandler4@@@@YA?AW4_EXCEPTION_DISPOSITION@@PEAUEHExceptionRecord@@PEA_KPEAU_CONTEXT@@PEAU_xDISPATCHER_CONTEXT@@PEAUFuncInfo4@FH4@@H1E@Z 000000018002f268     libvcruntime:frame.obj
 0002:0000c280       $unwind$??$BuildCatchObjectHelperInternal@V__FrameHandler4@@@@YAHPEAUEHExceptionRecord@@PEAXPEAUHandlerType4@FH4@@PEBU_s_CatchableType@@@Z 000000018002f280     libvcruntime:frame.obj
 0002:0000c2c0       $unwind$??$BuildCatchObjectInternal@V__FrameHandler4@@@@YAXPEAUEHExceptionRecord@@PEAXPEAUHandlerType4@FH4@@PEBU_s_CatchableType@@@Z 000000018002f2c0     libvcruntime:frame.obj
 0002:0000c2ec       $unwind$??$FindHandler@V__FrameHandler4@@@@YAXPEAUEHExceptionRecord@@PEA_KPEAU_CONTEXT@@PEAU_xDISPATCHER_CONTEXT@@PEAUFuncInfo4@FH4@@EH1@Z 000000018002f2ec     libvcruntime:frame.obj
 0002:0000c30c       $unwind$??$CatchIt@V__FrameHandler4@@@@YAXPEAUEHExceptionRecord@@PEA_KPEAU_CONTEXT@@PEAU_xDISPATCHER_CONTEXT@@PEAUFuncInfo4@FH4@@PEAUHandlerType4@4@PEBU_s_CatchableType@@PEAUTryBlockMapEntry4@4@H1EE@Z 000000018002f30c     libvcruntime:frame.obj
 0002:0000c324       $unwind$??$FindHandlerForForeignException@V__FrameHandler4@@@@YAXPEAUEHExceptionRecord@@PEA_KPEAU_CONTEXT@@PEAU_xDISPATCHER_CONTEXT@@PEAUFuncInfo4@FH4@@HH1@Z 000000018002f324     libvcruntime:frame.obj
 0002:0000c344       $unwind$?try_get_function@@YAPEAXW4function_id@?A0x5302d918@@QEBDQEBW4module_id@2@2@Z 000000018002f344     libvcruntime:winapi_downlevel.obj
 0002:0000c344       $unwind$?try_get_function@@YAPEAXW4function_id@?A0x391cf84c@@QEBDQEBW4module_id@2@2@Z 000000018002f344     libucrt:winapi_thunks.obj
 0002:0000c360       $xdatasym                  000000018002f360     libvcruntime:handlers.obj
 0002:0000c380       $unwind$__acrt_call_reportfault 000000018002f380     libucrt:invalid_parameter.obj
 0002:0000c3a0       $unwind$_resetstkoflw      000000018002f3a0     libucrt:resetstk.obj
 0002:0000c3c4       $unwind$?write_string@?$string_output_adapter@_W@__crt_stdio_output@@QEBAXQEB_WHQEAHAEAV__crt_deferred_errno_cache@@@Z 000000018002f3c4     libucrt:output.obj
 0002:0000c3dc       $unwind$??$common_vsprintf@Vformat_validation_base@__crt_stdio_output@@_W@@YAH_KQEA_W0QEB_WQEAU__crt_locale_pointers@@QEAD@Z 000000018002f3dc     libucrt:output.obj
 0002:0000c3fc       $unwind$??$write_multiple_characters@V?$string_output_adapter@_W@__crt_stdio_output@@D@__crt_stdio_output@@YAXAEBV?$string_output_adapter@_W@0@DHQEAH@Z 000000018002f3fc     libucrt:output.obj
 0002:0000c408       $unwind$?state_case_type@?$output_processor@_WV?$string_output_adapter@_W@__crt_stdio_output@@V?$format_validation_base@_WV?$string_output_adapter@_W@__crt_stdio_output@@@2@@__crt_stdio_output@@AEAA_NXZ 000000018002f408     libucrt:output.obj
 0002:0000c42c       $unwind$?type_case_a@?$output_processor@_WV?$string_output_adapter@_W@__crt_stdio_output@@V?$format_validation_base@_WV?$string_output_adapter@_W@__crt_stdio_output@@@2@@__crt_stdio_output@@AEAA_NXZ 000000018002f42c     libucrt:output.obj
 0002:0000c43c       $unwind$?write_stored_string_tchar@?$output_processor@_WV?$string_output_adapter@_W@__crt_stdio_output@@V?$format_validation_base@_WV?$string_output_adapter@_W@__crt_stdio_output@@@2@@__crt_stdio_output@@AEAA_N_W@Z 000000018002f43c     libucrt:output.obj
 0002:0000c450       $unwind$??$type_case_integer_parse_into_buffer@I@?$output_processor@_WV?$string_output_adapter@_W@__crt_stdio_output@@V?$format_validation_base@_WV?$string_output_adapter@_W@__crt_stdio_output@@@2@@__crt_stdio_output@@AEAAXII_N@Z 000000018002f450     libucrt:output.obj
 0002:0000c450       $unwind$??$type_case_integer_parse_into_buffer@_K@?$output_processor@_WV?$string_output_adapter@_W@__crt_stdio_output@@V?$format_validation_base@_WV?$string_output_adapter@_W@__crt_stdio_output@@@2@@__crt_stdio_output@@AEAAX_KI_N@Z 000000018002f450     libucrt:output.obj
 0002:0000c458       $unwind$?common_exit@@YAXHW4_crt_exit_cleanup_mode@@W4_crt_exit_return_mode@@@Z 000000018002f458     libucrt:exit.obj
 0002:0000c464       $unwind$??R<lambda_6e4b09c48022b2350581041d5f6b0c4c>@@QEBA@XZ 000000018002f464     libucrt:exit.obj
 0002:0000c484       $unwind$??$?RV<lambda_d80eeec6fff315bfe5c115232f3240e3>@@AEAV<lambda_6e4b09c48022b2350581041d5f6b0c4c>@@V<lambda_2358e3775559c9db80273638284d5e45>@@@?$__crt_seh_guarded_call@X@@QEAAX$$QEAV<lambda_d80eeec6fff315bfe5c115232f3240e3>@@AEAV<lambda_6e4b09c48022b2350581041d5f6b0c4c>@@$$QEAV<lambda_2358e3775559c9db80273638284d5e45>@@@Z 000000018002f484     libucrt:exit.obj
 0002:0000c4a8       $unwind$??$free_environment@D@@YAXQEAPEAD@Z 000000018002f4a8     libucrt:environment_initialization.obj
 0002:0000c4a8       $unwind$??$free_environment@_W@@YAXQEAPEA_W@Z 000000018002f4a8     libucrt:environment_initialization.obj
 0002:0000c4b4       $unwind$??$create_environment@D@@YAQEAPEADQEAD@Z 000000018002f4b4     libucrt:environment_initialization.obj
 0002:0000c4cc       $unwind$_register_onexit_function 000000018002f4cc     libucrt:onexit.obj
 0002:0000c4d4       $unwind$_execute_onexit_table 000000018002f4d4     libucrt:onexit.obj
 0002:0000c4dc       $unwind$??R<lambda_22ebabd17bc4fa466a2aca6d8deb888d>@@QEBAHXZ 000000018002f4dc     libucrt:onexit.obj
 0002:0000c4f4       $unwind$??$?RV<lambda_638799b9deba96c50f710eeac98168cd>@@AEAV<lambda_22ebabd17bc4fa466a2aca6d8deb888d>@@V<lambda_a6f7d7db0129f75315ebf26d50c089f1>@@@?$__crt_seh_guarded_call@H@@QEAAH$$QEAV<lambda_638799b9deba96c50f710eeac98168cd>@@AEAV<lambda_22ebabd17bc4fa466a2aca6d8deb888d>@@$$QEAV<lambda_a6f7d7db0129f75315ebf26d50c089f1>@@@Z 000000018002f4f4     libucrt:onexit.obj
 0002:0000c518       $unwind$??$?RV<lambda_7777bce6b2f8c936911f934f8298dc43>@@AEAV<lambda_f03950bc5685219e0bcd2087efbe011e>@@V<lambda_3883c3dff614d5e0c5f61bb1ac94921c>@@@?$__crt_seh_guarded_call@H@@QEAAH$$QEAV<lambda_7777bce6b2f8c936911f934f8298dc43>@@AEAV<lambda_f03950bc5685219e0bcd2087efbe011e>@@$$QEAV<lambda_3883c3dff614d5e0c5f61bb1ac94921c>@@@Z 000000018002f518     libucrt:onexit.obj
 0002:0000c53c       $unwind$_query_new_handler 000000018002f53c     libucrt:new_handler.obj
 0002:0000c55c       $unwind$terminate          000000018002f55c     libucrt:terminate.obj
 0002:0000c57c       $unwind$??$parse_integer@KV?$c_string_character_source@_W@__crt_strtox@@@__crt_strtox@@YAKQEAU__crt_locale_pointers@@V?$c_string_character_source@_W@0@H_N@Z 000000018002f57c     libucrt:atox.obj
 0002:0000c598       $xdatasym                  000000018002f598     libucrt:strncmp.obj
 0002:0000c59c       $unwind$?construct_ptd_array@@YAXQEAU__acrt_ptd@@@Z 000000018002f59c     libucrt:per_thread_data.obj
 0002:0000c5a4       $unwind$?destroy_ptd_array@@YAXQEAU__acrt_ptd@@@Z 000000018002f5a4     libucrt:per_thread_data.obj
 0002:0000c5ac       $unwind$??$?RV<lambda_0ae27a3a962d80f24befdcbee591983d>@@AEAV<lambda_8d0ee55de4b1038c4002e0adecdf1839>@@V<lambda_dc504788e8f1664fe9b84e20bfb512f2>@@@?$__crt_seh_guarded_call@X@@QEAAX$$QEAV<lambda_0ae27a3a962d80f24befdcbee591983d>@@AEAV<lambda_8d0ee55de4b1038c4002e0adecdf1839>@@$$QEAV<lambda_dc504788e8f1664fe9b84e20bfb512f2>@@@Z 000000018002f5ac     libucrt:per_thread_data.obj
 0002:0000c5d0       $unwind$??$?RV<lambda_aa87e3671a710a21b5dc78c0bdf72e11>@@AEAV<lambda_92619d2358a28f41a33ba319515a20b9>@@V<lambda_6992ecaafeb10aed2b74cb1fae11a551>@@@?$__crt_seh_guarded_call@X@@QEAAX$$QEAV<lambda_aa87e3671a710a21b5dc78c0bdf72e11>@@AEAV<lambda_92619d2358a28f41a33ba319515a20b9>@@$$QEAV<lambda_6992ecaafeb10aed2b74cb1fae11a551>@@@Z 000000018002f5d0     libucrt:per_thread_data.obj
 0002:0000c5f4       $unwind$??$?RV<lambda_f2e299630e499de9f9a165e60fcd3db5>@@AEAV<lambda_2ae9d31cdba2644fcbeaf08da7c24588>@@V<lambda_40d01ff24d0e7b3814fdbdcee8eab3c7>@@@?$__crt_seh_guarded_call@X@@QEAAX$$QEAV<lambda_f2e299630e499de9f9a165e60fcd3db5>@@AEAV<lambda_2ae9d31cdba2644fcbeaf08da7c24588>@@$$QEAV<lambda_40d01ff24d0e7b3814fdbdcee8eab3c7>@@@Z 000000018002f5f4     libucrt:per_thread_data.obj
 0002:0000c618       $unwind$??$?RV<lambda_2d41944a1d46af3157314b8a01080d33>@@AEAV<lambda_8f455de75cd7d7f24b4096f044d8b9e6>@@V<lambda_aa500f224e6afead328df44964fe2772>@@@?$__crt_seh_guarded_call@X@@QEAAX$$QEAV<lambda_2d41944a1d46af3157314b8a01080d33>@@AEAV<lambda_8f455de75cd7d7f24b4096f044d8b9e6>@@$$QEAV<lambda_aa500f224e6afead328df44964fe2772>@@@Z 000000018002f618     libucrt:per_thread_data.obj
 0002:0000c63c       $unwind$__acrt_initialize_winapi_thunks 000000018002f63c     libucrt:winapi_thunks.obj
 0002:0000c644       $unwind$__acrt_fp_format   000000018002f644     libucrt:cvt.obj
 0002:0000c65c       $unwind$?fp_format_e_internal@@YAHQEAD_KH_NIQEAU_strflt@@2QEAU__crt_locale_pointers@@@Z 000000018002f65c     libucrt:cvt.obj
 0002:0000c674       $unwind$?fp_format_a@@YAHQEBNPEAD_KQEAD2H_NIQEAU__crt_locale_pointers@@W4__acrt_rounding_mode@@@Z 000000018002f674     libucrt:cvt.obj
 0002:0000c690       $unwind$?fp_format_g@@YAHQEBNQEAD_K12H_NIQEAU__crt_locale_pointers@@@Z 000000018002f690     libucrt:cvt.obj
 0002:0000c6a4       $unwind$__acrt_uninitialize_locale 000000018002f6a4     libucrt:wsetlocale.obj
 0002:0000c6a4       $unwind$__acrt_get_sigabrt_handler 000000018002f6a4     libucrt:signal.obj
 0002:0000c6ac       $unwind$??$?RV<lambda_410d79af7f07d98d83a3f525b3859a53>@@AEAV<lambda_3e16ef9562a7dcce91392c22ab16ea36>@@V<lambda_38119f0e861e05405d8a144b9b982f0a>@@@?$__crt_seh_guarded_call@X@@QEAAX$$QEAV<lambda_410d79af7f07d98d83a3f525b3859a53>@@AEAV<lambda_3e16ef9562a7dcce91392c22ab16ea36>@@$$QEAV<lambda_38119f0e861e05405d8a144b9b982f0a>@@@Z 000000018002f6ac     libucrt:wsetlocale.obj
 0002:0000c6d4       $unwind$__acrt_initialize_lowio 000000018002f6d4     libucrt:ioinit.obj
 0002:0000c6f4       $unwind$??$common_expand_argv_wildcards@D@@YAHQEAPEADQEAPEAPEAD@Z 000000018002f6f4     libucrt:argv_wildcards.obj
 0002:0000c70c       $unwind$??$copy_and_add_argument_to_buffer@D@@YAHQEBD0_KAEAV?$argument_list@D@?A0x5f5c8891@@@Z 000000018002f70c     libucrt:argv_wildcards.obj
 0002:0000c728       $unwind$??$expand_argument_wildcards@D@@YAHQEAD0AEAV?$argument_list@D@?A0x5f5c8891@@@Z 000000018002f728     libucrt:argv_wildcards.obj
 0002:0000c74c       $unwind$__acrt_GetModuleFileNameA 000000018002f74c     libucrt:getmodulefilenamea.obj
 0002:0000c768       $unwind$_setmbcp_nolock    000000018002f768     libucrt:mbctype.obj
 0002:0000c788       $unwind$?update_thread_multibyte_data_internal@@YAPEAU__crt_multibyte_data@@QEAU__acrt_ptd@@QEAPEAU1@@Z 000000018002f788     libucrt:mbctype.obj
 0002:0000c7b0       $unwind$?setmbcp_internal@@YAHH_NQEAU__acrt_ptd@@QEAPEAU__crt_multibyte_data@@@Z 000000018002f7b0     libucrt:mbctype.obj
 0002:0000c7c0       $unwind$?setSBUpLow@@YAXPEAU__crt_multibyte_data@@@Z 000000018002f7c0     libucrt:mbctype.obj
 0002:0000c7dc       $unwind$??$?RV<lambda_efdfa57d1f175319df784efa44bb7b81>@@AEAV<lambda_5f0a4c1567f8adc6734073e5d1e1b35c>@@V<lambda_2e8a7d3640ea6ccb4c2413664c2db6fd>@@@?$__crt_seh_guarded_call@X@@QEAAX$$QEAV<lambda_efdfa57d1f175319df784efa44bb7b81>@@AEAV<lambda_5f0a4c1567f8adc6734073e5d1e1b35c>@@$$QEAV<lambda_2e8a7d3640ea6ccb4c2413664c2db6fd>@@@Z 000000018002f7dc     libucrt:mbctype.obj
 0002:0000c800       $unwind$__acrt_WideCharToMultiByte 000000018002f800     libucrt:widechartomultibyte.obj
 0002:0000c80c       $unwind$raise              000000018002f80c     libucrt:signal.obj
 0002:0000c848       $unwind$??$?RV<lambda_450d765d439847d4c735a33c368b5fc0>@@AEAV<lambda_44731a7d0e6d81c3e6aa82d741081786>@@V<lambda_601a2a7da3b7a96e9554ac7215c4b07c>@@@?$__crt_seh_guarded_call@P6AXH@Z@@QEAAP6AXH@Z$$QEAV<lambda_450d765d439847d4c735a33c368b5fc0>@@AEAV<lambda_44731a7d0e6d81c3e6aa82d741081786>@@$$QEAV<lambda_601a2a7da3b7a96e9554ac7215c4b07c>@@@Z 000000018002f848     libucrt:signal.obj
 0002:0000c86c       $unwind$?common_flush_all@@YAH_N@Z 000000018002f86c     libucrt:fflush.obj
 0002:0000c874       $unwind$??$?RV<lambda_842d9ff0dc9ef11c61343bbaebe7f885>@@AEAV<lambda_c5860995281e5c4ce005b3de8f5874ee>@@V<lambda_d90129c13df834fdcbf8d2b88dafcf2d>@@@?$__crt_seh_guarded_call@X@@QEAAX$$QEAV<lambda_842d9ff0dc9ef11c61343bbaebe7f885>@@AEAV<lambda_c5860995281e5c4ce005b3de8f5874ee>@@$$QEAV<lambda_d90129c13df834fdcbf8d2b88dafcf2d>@@@Z 000000018002f874     libucrt:fflush.obj
 0002:0000c898       $unwind$??$?RV<lambda_886d6c58226a84441f68b9f2b8217b83>@@AEAV<lambda_ab61a845afdef5b7c387490eaf3616ee>@@V<lambda_f7f22ab5edc0698d5f6905b0d3f44752>@@@?$__crt_seh_guarded_call@X@@QEAAX$$QEAV<lambda_886d6c58226a84441f68b9f2b8217b83>@@AEAV<lambda_ab61a845afdef5b7c387490eaf3616ee>@@$$QEAV<lambda_f7f22ab5edc0698d5f6905b0d3f44752>@@@Z 000000018002f898     libucrt:fflush.obj
 0002:0000c8c0       $unwind$__acrt_update_thread_locale_data 000000018002f8c0     libucrt:locale_refcounting.obj
 0002:0000c8e4       $unwind$?__mbrtowc_utf8@__crt_mbstring@@YA_KPEA_WPEBD_KPEAU_Mbstatet@@@Z 000000018002f8e4     libucrt:mbrtowc.obj
 0002:0000c8ec       $unwind$?__mbsrtowcs_utf8@__crt_mbstring@@YA_KPEA_WPEAPEBD_KPEAU_Mbstatet@@@Z 000000018002f8ec     libucrt:mbrtowc.obj
 0002:0000c904       $unwind$__acrt_fltout      000000018002f904     libucrt:cfout.obj
 0002:0000c924       $unwind$?divide@__crt_strtox@@YA_KAEAUbig_integer@1@AEBU21@@Z 000000018002f924     libucrt:cfout.obj
 0002:0000c93c       $chain$0$?divide@__crt_strtox@@YA_KAEAUbig_integer@1@AEBU21@@Z 000000018002f93c     libucrt:cfout.obj
 0002:0000c950       $chain$1$?divide@__crt_strtox@@YA_KAEAUbig_integer@1@AEBU21@@Z 000000018002f950     libucrt:cfout.obj
 0002:0000c960       $unwind$_fcloseall         000000018002f960     libucrt:closeall.obj
 0002:0000c984       $unwind$__acrt_locale_free_monetary 000000018002f984     libucrt:initmon.obj
 0002:0000c98c       $unwind$__acrt_locale_free_time 000000018002f98c     libucrt:inittime.obj
 0002:0000c99c       $unwind$__acrt_GetStringTypeA 000000018002f99c     libucrt:getstringtypea.obj
 0002:0000c9c4       $unwind$__acrt_lowio_destroy_handle_array 000000018002f9c4     libucrt:osfinfo.obj
 0002:0000c9d4       $unwind$__acrt_lowio_ensure_fh_exists 000000018002f9d4     libucrt:osfinfo.obj
 0002:0000ca00       $unwind$qsort              000000018002fa00     libucrt:qsort.obj
 0002:0000ca18       $chain$4$qsort             000000018002fa18     libucrt:qsort.obj
 0002:0000ca3c       $chain$5$qsort             000000018002fa3c     libucrt:qsort.obj
 0002:0000ca4c       $unwind$strpbrk            000000018002fa4c     libucrt:strpbrk.obj
 0002:0000ca5c       $unwind$fallbackMethod     000000018002fa5c     libucrt:strpbrk.obj
 0002:0000ca6c       $unwind$__acrt_LCMapStringA 000000018002fa6c     libucrt:lcmapstringa.obj
 0002:0000ca7c       $unwind$?__acrt_LCMapStringA_stat@@YAHPEAU__crt_locale_pointers@@PEB_WKPEBDHPEADHHH@Z 000000018002fa7c     libucrt:lcmapstringa.obj
 0002:0000caa4       $unwind$_close             000000018002faa4     libucrt:close.obj
 0002:0000caa4       $unwind$_commit            000000018002faa4     libucrt:commit.obj
 0002:0000caac       $unwind$??$?RV<lambda_a37b2b86f63e897a80ea819b0eb08c01>@@AEAV<lambda_38ce7e780aa69e748d6df282ebc68efe>@@V<lambda_99fb1378e971ab6e7edea83e3a7a83a2>@@@?$__crt_seh_guarded_call@H@@QEAAH$$QEAV<lambda_a37b2b86f63e897a80ea819b0eb08c01>@@AEAV<lambda_38ce7e780aa69e748d6df282ebc68efe>@@$$QEAV<lambda_99fb1378e971ab6e7edea83e3a7a83a2>@@@Z 000000018002faac     libucrt:commit.obj
 0002:0000cad0       $unwind$_write             000000018002fad0     libucrt:write.obj
 0002:0000cb00       $unwind$_write_nolock      000000018002fb00     libucrt:write.obj
 0002:0000cb18       $unwind$?write_double_translated_ansi_nolock@@YA?AUwrite_result@?A0x17268360@@HQEBDI@Z 000000018002fb18     libucrt:write.obj
 0002:0000cb3c       $unwind$?write_text_ansi_nolock@@YA?AUwrite_result@?A0x17268360@@HQEBDI@Z 000000018002fb3c     libucrt:write.obj
 0002:0000cb3c       $unwind$?write_text_utf16le_nolock@@YA?AUwrite_result@?A0x17268360@@HQEBDI@Z 000000018002fb3c     libucrt:write.obj
 0002:0000cb5c       $unwind$?write_text_utf8_nolock@@YA?AUwrite_result@?A0x17268360@@HQEBDI@Z 000000018002fb5c     libucrt:write.obj
 0002:0000cb80       $xdatasym                  000000018002fb80     libucrt:log10.obj
 0002:0000cb8c       $unwind$__acrt_fenv_set_control 000000018002fb8c     libucrt:_fenvutils.obj
 0002:0000cb9c       $unwind$fclose             000000018002fb9c     libucrt:fclose.obj
 0002:0000cbc0       $unwind$_putwch_nolock     000000018002fbc0     libucrt:putwch.obj
 0002:0000cbc8       $unwind$common_control87   000000018002fbc8     libucrt:ieee.obj
 0002:0000cbf4       $unwind$_call_matherr      000000018002fbf4     libucrt:libm_error.obj
 0002:0000cbfc       $unwind$_handle_error      000000018002fbfc     libucrt:libm_error.obj
 0002:0000cc1c       $unwind$__acrt_initialize_fma3 000000018002fc1c     libucrt:fma3_available.obj
 0002:0000cc24       $unwind$_log_special_common 000000018002fc24     libucrt:log_special.obj
 0002:0000cc30       $unwind$??$?RV<lambda_751a882b2c74d4b022dec766aa51a29a>@@AEAV<lambda_628dfdc04ba53c8bfc02c9951375f3f5>@@V<lambda_f6c7be5f7998530c34de24c7437d6b54>@@@?$__crt_seh_guarded_call@H@@QEAAH$$QEAV<lambda_751a882b2c74d4b022dec766aa51a29a>@@AEAV<lambda_628dfdc04ba53c8bfc02c9951375f3f5>@@$$QEAV<lambda_f6c7be5f7998530c34de24c7437d6b54>@@@Z 000000018002fc30     libucrt:close.obj
 0002:0000cc58       $xdatasym                  000000018002fc58     libucrt:fpsr.obj
 0002:0000cc60       $unwind$_raise_exc_ex      000000018002fc60     libucrt:fpexcept.obj
 0002:0000cc74       $unwind$_ctrlfp            000000018002fc74     libucrt:fpctrl.obj
 0002:0000cc9c       $unwind$_IsNonwritableInCurrentImage 000000018002fc9c     LIBCMT:pesect.obj
 0002:0000ce20       .edata                     000000018002fe20     OPOSMICR.exp
 0002:0000ce48       rgpv                       000000018002fe48     OPOSMICR.exp
 0002:0000ce58       rgszName                   000000018002fe58     OPOSMICR.exp
 0002:0000ce68       rgwOrd                     000000018002fe68     OPOSMICR.exp
 0002:0000ce70       szName                     000000018002fe70     OPOSMICR.exp
 0002:0000ce7d       $N00001                    000000018002fe7d     OPOSMICR.exp
 0002:0000ce8d       $N00002                    000000018002fe8d     OPOSMICR.exp
 0002:0000ce9f       $N00003                    000000018002fe9f     OPOSMICR.exp
 0002:0000ceb1       $N00004                    000000018002feb1     OPOSMICR.exp
 0002:0000d7e2       .idata$6                   00000001800307e2     kernel32:KERNEL32.dll
 0002:0000d9fa       .idata$6                   00000001800309fa     user32:USER32.dll
 0002:0000db2e       .idata$6                   0000000180030b2e     gdi32:GDI32.dll
 0002:0000dbd4       .idata$6                   0000000180030bd4     advapi32:ADVAPI32.dll
 0002:0000dcf0       .idata$6                   0000000180030cf0     ole32:ole32.dll
 0002:0000dcfa       .idata$6                   0000000180030cfa     oleaut32:OLEAUT32.dll
 0003:000001c0       ?ObjectMap@@3PAU_ATL_OBJMAP_ENTRY30@ATL@@A 00000001800321c0     MICR.obj
 0003:000002c0       ?s_SOMethodNames@@3PAPEADA 00000001800322c0     MICRImpl.obj
 0003:00000378       ?s_RequiredMethodsPerRelease@@3PAHA 0000000180032378     MICRImpl.obj
 0003:000003e0       ?__vcrt_flsindex@@3KA      00000001800323e0     libvcruntime:per_thread_data.obj
 0003:000003f0       ?errno_no_memory@@3HA      00000001800323f0     libucrt:errno.obj
 0003:000003f4       ?doserrno_no_memory@@3KA   00000001800323f4     libucrt:errno.obj
 0003:00000400       ?__acrt_flsindex@@3KA      0000000180032400     libucrt:per_thread_data.obj
 0003:000008c0       _mbctypes                  00000001800328c0     libucrt:mbctype.obj
 0003:000009d0       _mbcasemaps                00000001800329d0     libucrt:mbctype.obj
 0003:00000ad0       ?__rgctypeflag@@3PADA      0000000180032ad0     libucrt:mbctype.obj
 0003:00000ae0       ?__rgcode_page_info@@3PAUcode_page_info@@A 0000000180032ae0     libucrt:mbctype.obj
 0003:00000d80       ?dazSupported@?1??common_control87@@9@9 0000000180032d80     libucrt:ieee.obj
 0003:00000d90       ?__dcrt_lowio_console_output_handle@@3PEAXEA 0000000180032d90     libucrt:initcon.obj
 0003:00000da0       ?dazSupported@?1??_ctrlfp@@9@9 0000000180032da0     libucrt:fpctrl.obj
 0003:00000ff0       ?is_initialized_as_dll@@3_NA 0000000180032ff0     LIBCMT:utility.obj
 0003:00000ff1       ?module_local_atexit_table_initialized@@3_NA 0000000180032ff1     LIBCMT:utility.obj
 0003:00000ff8       ?module_local_atexit_table@@3U_onexit_table_t@@A 0000000180032ff8     LIBCMT:utility.obj
 0003:00001010       ?module_local_at_quick_exit_table@@3U_onexit_table_t@@A 0000000180033010     LIBCMT:utility.obj
 0003:00001028       ?g_tss_cv@@3U_RTL_CONDITION_VARIABLE@@A 0000000180033028     LIBCMT:thread_safe_statics.obj
 0003:00001030       ?g_tss_event@@3PEAXEA      0000000180033030     LIBCMT:thread_safe_statics.obj
 0003:00001038       ?g_tss_mutex@@3U_RTL_CRITICAL_SECTION@@A 0000000180033038     LIBCMT:thread_safe_statics.obj
 0003:00001060       ?g_sleep_condition_variable_cs@@3P6AHPEAU_RTL_CONDITION_VARIABLE@@PEAU_RTL_CRITICAL_SECTION@@K@ZEA 0000000180033060     LIBCMT:thread_safe_statics.obj
 0003:00001068       ?g_wake_all_condition_variable@@3P6AXPEAU_RTL_CONDITION_VARIABLE@@@ZEA 0000000180033068     LIBCMT:thread_safe_statics.obj
 0003:00001070       GS_ExceptionRecord         0000000180033070     LIBCMT:gs_report.obj
 0003:00001110       GS_ContextRecord           0000000180033110     LIBCMT:gs_report.obj
 0003:000015e4       ?__proc_attached@@3HA      00000001800335e4     LIBCMT:dll_dllmain.obj
 0003:00001678       ?AllocateData@@3P6APEAUAtlThunkData_t@@XZEA 0000000180033678     atls:atlthunk.obj
 0003:00001680       ?InitData@@3P6AXPEAUAtlThunkData_t@@PEAX_K@ZEA 0000000180033680     atls:atlthunk.obj
 0003:00001688       ?DataToCode@@3P6AP6A_JPEAUHWND__@@I_K_J@ZPEAUAtlThunkData_t@@@ZEA 0000000180033688     atls:atlthunk.obj
 0003:00001690       ?FreeData@@3P6AXPEAUAtlThunkData_t@@@ZEA 0000000180033690     atls:atlthunk.obj
 0003:00001698       ?Initialized@@3_NA         0000000180033698     atls:atlthunk.obj
 0003:000016b0       ?__vcrt_startup_thread_ptd@@3U__vcrt_ptd@@A 00000001800336b0     libvcruntime:per_thread_data.obj
 0003:00001730       __vcrt_lock_table          0000000180033730     libvcruntime:locks.obj
 0003:00001758       __vcrt_locks_initialized   0000000180033758     libvcruntime:locks.obj
 0003:000017a0       ?heap@@3V_HeapManager@@A   00000001800337a0     libvcruntime:undname.obj
 0003:000017c8       ?module_handles@@3PAPEAUHINSTANCE__@@A 00000001800337c8     libvcruntime:winapi_downlevel.obj
 0003:000017e0       ?function_pointers@@3PAPEAXA 00000001800337e0     libvcruntime:winapi_downlevel.obj
 0003:00001808       ?__acrt_invalid_parameter_handler@@3V?$dual_state_global@P6AXPEB_W00I_K@Z@__crt_state_management@@A 0000000180033808     libucrt:invalid_parameter.obj
 0003:00001810       ?c_termination_complete@@3JA 0000000180033810     libucrt:exit.obj
 0003:00001818       ?thread_local_exit_callback_func@@3P6AXPEAXK0@ZEA 0000000180033818     libucrt:exit.obj
 0003:00001830       ?program_name@?1???$common_configure_argv@D@@YAHW4_crt_argv_mode@@@Z@4PADA 0000000180033830     libucrt:argv_parsing.obj
 0003:00001988       ?__acrt_new_handler@@3V?$dual_state_global@P6AH_K@Z@__crt_state_management@@A 0000000180033988     libucrt:new_handler.obj
 0003:00001990       ?module_handles@@3PAPEAUHINSTANCE__@@A 0000000180033990     libucrt:winapi_thunks.obj
 0003:00001a30       ?encoded_function_pointers@@3PAPEAXA 0000000180033a30     libucrt:winapi_thunks.obj
 0003:00001b40       ?internal_state@?1??_mbtowc_l@@9@4U_Mbstatet@@A 0000000180033b40     libucrt:mbtowc.obj
 0003:00001b58       ?enable_percent_n@@3_KA    0000000180033b58     libucrt:printf_count_output.obj
 0003:00001f90       ?__acrt_lock_table@@3PAU_RTL_CRITICAL_SECTION@@A 0000000180033f90     libucrt:locks.obj
 0003:000021c0       ?__acrt_locks_initialized@@3IA 00000001800341c0     libucrt:locks.obj
 0003:000021e0       ?fSystemSet@@3HA           00000001800341e0     libucrt:mbctype.obj
 0003:000021e4       ?initialized@?1??__acrt_initialize_multibyte@@9@4_NA 00000001800341e4     libucrt:mbctype.obj
 0003:00002220       ?ctrlc_action@@3V?$dual_state_global@P6AXH@Z@__crt_state_management@@A 0000000180034220     libucrt:signal.obj
 0003:00002228       ?ctrlbreak_action@@3V?$dual_state_global@P6AXH@Z@__crt_state_management@@A 0000000180034228     libucrt:signal.obj
 0003:00002230       ?abort_action@@3V?$dual_state_global@P6AXH@Z@__crt_state_management@@A 0000000180034230     libucrt:signal.obj
 0003:00002238       ?term_action@@3V?$dual_state_global@P6AXH@Z@__crt_state_management@@A 0000000180034238     libucrt:signal.obj
 0003:00002240       ?user_matherr@@3V?$dual_state_global@P6AHPEAU_exception@@@Z@__crt_state_management@@A 0000000180034240     libucrt:matherr.obj
 0003:00002248       ?__acrt_global_new_mode@@3V?$dual_state_global@J@__crt_state_management@@A 0000000180034248     libucrt:new_mode.obj
 0003:00002258       ?internal_pst@?1??__mbrtoc32_utf8@__crt_mbstring@@YA_KPEA_UPEBD_KPEAU_Mbstatet@@@Z@4U3@A 0000000180034258     libucrt:mbrtoc32.obj
 0003:00002260       ?__acrt_app_type@@3W4_crt_app_type@@A 0000000180034260     libucrt:report_runtime_error.obj
 0004:00000000       $pdata$?cw_memcpy@@YAHPEA_WPEBDH@Z 0000000180035000     CWString.obj
 0004:0000000c       $pdata$?cw_strcpy@@YAHPEA_WPEBD@Z 000000018003500c     CWString.obj
 0004:00000018       $pdata$?cw_dup@@YAXPEBDAEAHAEAPEA_W1@Z 0000000180035018     CWString.obj
 0004:00000024       $pdata$?DupWide@_CW@@AEAAXXZ 0000000180035024     CWString.obj
 0004:00000030       $pdata$?AtlWinModuleTerm@ATL@@YAJPEAU_ATL_WIN_MODULE70@1@PEAUHINSTANCE__@@@Z 0000000180035030     OposVariant.obj
 0004:0000003c       $pdata$??0CAtlComModule@ATL@@QEAA@XZ 000000018003503c     OposVariant.obj
 0004:00000048       $pdata$?Term@CAtlComModule@ATL@@QEAAXXZ 0000000180035048     OposVariant.obj
 0004:00000054       $pdata$??__E_AtlComModule@ATL@@YAXXZ 0000000180035054     OposVariant.obj
 0004:00000060       $pdata$??0CAtlWinModule@ATL@@QEAA@XZ 0000000180035060     OposVariant.obj
 0004:0000006c       $pdata$??__E_AtlWinModule@ATL@@YAXXZ 000000018003506c     OposVariant.obj
 0004:00000078       $pdata$??__F_AtlWinModule@ATL@@YAXXZ 0000000180035078     OposVariant.obj
 0004:00000084       $pdata$??_Estringdispid@CComTypeInfoHolder@ATL@@QEAAPEAXI@Z 0000000180035084     OposVariant.obj
 0004:00000090       $pdata$?SetVARIANT_BOOL@OposVariant@@QEAAXF@Z 0000000180035090     OposVariant.obj
 0004:0000009c       $pdata$?GetLONG@OposVariant@@QEAAJXZ 000000018003509c     OposVariant.obj
 0004:000000a8       $pdata$?ChangeLONG@OposVariant@@QEAAXPEAJAEAJ@Z 00000001800350a8     OposVariant.obj
 0004:000000b4       $pdata$?SetLONG@OposVariant@@QEAAXJ@Z 00000001800350b4     OposVariant.obj
 0004:000000c0       $pdata$?SetLONG_Ptr@OposVariant@@QEAAXPEAJAEAJ@Z 00000001800350c0     OposVariant.obj
 0004:000000cc       $pdata$?ChangeBSTR@OposVariant@@QEAAXPEAPEA_WAEAJ@Z 00000001800350cc     OposVariant.obj
 0004:000000d8       $pdata$?SetBSTR@OposVariant@@QEAAXPEA_WAEAJ@Z 00000001800350d8     OposVariant.obj
 0004:000000e4       $pdata$?SetBSTR_Copy@OposVariant@@QEAAXPEA_WAEAJ@Z 00000001800350e4     OposVariant.obj
 0004:000000f0       $pdata$?SetBSTR_InOutPtr@OposVariant@@QEAA_NPEAPEA_WAEAJ@Z 00000001800350f0     OposVariant.obj
 0004:000000fc       $pdata$?SetString@OposVariant@@QEAAXPEB_WAEAJ@Z 00000001800350fc     OposVariant.obj
 0004:00000108       $pdata$?SetDispatch_Ptr@OposVariant@@QEAAXPEAUIDispatch@@AEAJ@Z 0000000180035108     OposVariant.obj
 0004:00000114       $pdata$??0OposDispParms@@QEAA@PEAVOposVariant@@H@Z 0000000180035114     OposVariant.obj
 0004:00000120       $pdata$??1OposDispParms@@QEAA@XZ 0000000180035120     OposVariant.obj
 0004:0000012c       $pdata$?AtlThrowImpl@ATL@@YAXJ@Z 000000018003512c     MICR.obj
 0004:00000138       $pdata$swprintf_s          0000000180035138     MICR.obj
 0004:00000144       $pdata$?_AtlVerifyStackAvailable@_ATL_SAFE_ALLOCA_IMPL@ATL@@YA_N_K@Z 0000000180035144     MICR.obj
 0004:00000150       $pdata$?filt$0@?0??_AtlVerifyStackAvailable@_ATL_SAFE_ALLOCA_IMPL@ATL@@YA_N_K@Z@4HA 0000000180035150     MICR.obj
 0004:0000015c       $pdata$?ocscpy_s@@YA_NPEA_W_KPEB_W@Z 000000018003515c     MICR.obj
 0004:00000168       $pdata$?AtlHresultFromLastError@ATL@@YAJXZ 0000000180035168     MICR.obj
 0004:00000174       $pdata$?AtlInternalOleLoadFromStream@ATL@@YAJPEAUIStream@@AEBU_GUID@@PEAPEAXTClassesAllowedInStream@1@K@Z 0000000180035174     MICR.obj
 0004:00000180       $pdata$?ReadFromStream@CComBSTR@ATL@@QEAAJPEAUIStream@@@Z 0000000180035180     MICR.obj
 0004:0000018c       $pdata$?WriteToStream@CComVariant@ATL@@QEAAJPEAUIStream@@@Z 000000018003518c     MICR.obj
 0004:00000198       $pdata$?WriteToStream@CComVariant@ATL@@QEAAJPEAUIStream@@G@Z 0000000180035198     MICR.obj
 0004:000001a4       $pdata$?ReadFromStream@CComVariant@ATL@@QEAAJPEAUIStream@@GTClassesAllowedInStream@2@K@Z 00000001800351a4     MICR.obj
 0004:000001b0       $pdata$?GetSizeMax@CComVariant@ATL@@QEBAJPEAT_ULARGE_INTEGER@@@Z 00000001800351b0     MICR.obj
 0004:000001bc       $pdata$?RegCreateKeyExW@CAtlTransactionManager@ATL@@QEAAJPEAUHKEY__@@PEB_WKPEA_WKKQEAU_SECURITY_ATTRIBUTES@@PEAPEAU3@PEAK@Z 00000001800351bc     MICR.obj
 0004:000001c8       $pdata$?RegOpenKeyExW@CAtlTransactionManager@ATL@@QEAAJPEAUHKEY__@@PEB_WKKPEAPEAU3@@Z 00000001800351c8     MICR.obj
 0004:000001d4       $pdata$?RegDeleteKeyW@CAtlTransactionManager@ATL@@QEAAJPEAUHKEY__@@PEB_W@Z 00000001800351d4     MICR.obj
 0004:000001e0       $pdata$?Add@?$CSimpleArray@GV?$CSimpleArrayEqualHelper@G@ATL@@@ATL@@QEAAHAEBG@Z 00000001800351e0     MICR.obj
 0004:000001ec       $pdata$?AtlInternalQueryInterface@ATL@@YAJPEAXPEBU_ATL_INTMAP_ENTRY@1@AEBU_GUID@@PEAPEAX@Z 00000001800351ec     MICR.obj
 0004:000001f8       $pdata$?AtlComModuleGetClassObject@ATL@@YAJPEAU_ATL_COM_MODULE70@1@AEBU_GUID@@1PEAPEAX@Z 00000001800351f8     MICR.obj
 0004:00000204       $pdata$?AtlRegisterClassCategoriesHelper@ATL@@YAJAEBU_GUID@@PEBU_ATL_CATMAP_ENTRY@1@H@Z 0000000180035204     MICR.obj
 0004:00000210       $pdata$?AtlLoadTypeLib@ATL@@YAJPEAUHINSTANCE__@@PEB_WPEAPEA_WPEAPEAUITypeLib@@@Z 0000000180035210     MICR.obj
 0004:0000021c       $pdata$?AtlRegisterTypeLib@ATL@@YAJPEAUHINSTANCE__@@PEB_W@Z 000000018003521c     MICR.obj
 0004:00000228       $pdata$?AtlUnRegisterTypeLib@ATL@@YAJPEAUHINSTANCE__@@PEB_W@Z 0000000180035228     MICR.obj
 0004:00000234       $pdata$?AtlComModuleRegisterServer@ATL@@YAJPEAU_ATL_COM_MODULE70@1@HPEBU_GUID@@@Z 0000000180035234     MICR.obj
 0004:00000240       $pdata$?AtlComModuleUnregisterServer@ATL@@YAJPEAU_ATL_COM_MODULE70@1@HPEBU_GUID@@@Z 0000000180035240     MICR.obj
 0004:0000024c       $pdata$?AtlWinModuleExtractCreateWndData@ATL@@YAPEAXPEAU_ATL_WIN_MODULE70@1@@Z 000000018003524c     MICR.obj
 0004:00000258       $pdata$?DeleteSubKey@CRegKey@ATL@@QEAAJPEB_W@Z 0000000180035258     MICR.obj
 0004:00000264       $pdata$?RecurseDeleteKey@CRegKey@ATL@@QEAAJPEB_W@Z 0000000180035264     MICR.obj
 0004:00000270       $pdata$??0CAtlModule@ATL@@QEAA@XZ 0000000180035270     MICR.obj
 0004:0000027c       $pdata$?Term@CAtlModule@ATL@@QEAAXXZ 000000018003527c     MICR.obj
 0004:00000288       $pdata$?AddTermFunc@CAtlModule@ATL@@QEAAJP6AX_K@Z0@Z 0000000180035288     MICR.obj
 0004:00000294       $pdata$?GetGITPtr@CAtlModule@ATL@@UEAAJPEAPEAUIGlobalInterfaceTable@@@Z 0000000180035294     MICR.obj
 0004:000002a0       $pdata$?UpdateRegistryFromResource@CAtlModule@ATL@@QEAAJPEB_WHPEAU_ATL_REGMAP_ENTRY@2@@Z 00000001800352a0     MICR.obj
 0004:000002ac       $pdata$?UpdateRegistryFromResource@CAtlModule@ATL@@QEAAJIHPEAU_ATL_REGMAP_ENTRY@2@@Z 00000001800352ac     MICR.obj
 0004:000002b8       $pdata$?Term@CComModule@ATL@@QEAAXXZ 00000001800352b8     MICR.obj
 0004:000002c4       $pdata$?GetClassObject@CComModule@ATL@@QEAAJAEBU_GUID@@0PEAPEAX@Z 00000001800352c4     MICR.obj
 0004:000002d0       $pdata$?RegisterServer@CComModule@ATL@@QEAAJHPEBU_GUID@@@Z 00000001800352d0     MICR.obj
 0004:000002dc       $pdata$?UnregisterServer@CComModule@ATL@@QEAAJHPEBU_GUID@@@Z 00000001800352dc     MICR.obj
 0004:000002e8       $pdata$??_GCComModule@ATL@@UEAAPEAXI@Z 00000001800352e8     MICR.obj
 0004:000002f4       $pdata$?Add@?$CSimpleMap@PEA_WPEA_WVCExpansionVectorEqualHelper@ATL@@@ATL@@QEAAHAEBQEA_W0@Z 00000001800352f4     MICR.obj
 0004:00000300       $pdata$?Lookup@?$CSimpleMap@PEA_WPEA_WVCExpansionVectorEqualHelper@ATL@@@ATL@@QEBAPEA_WAEBQEA_W@Z 0000000180035300     MICR.obj
 0004:0000030c       $pdata$?Add@CExpansionVector@ATL@@QEAAHPEB_W0@Z 000000018003530c     MICR.obj
 0004:00000318       $pdata$?ClearReplacements@CExpansionVector@ATL@@QEAAJXZ 0000000180035318     MICR.obj
 0004:00000324       $pdata$?PreProcessBuffer@CRegParser@ATL@@QEAAJPEA_WPEAPEA_W@Z 0000000180035324     MICR.obj
 0004:00000330       $pdata$?RegisterBuffer@CRegParser@ATL@@QEAAJPEA_WH@Z 0000000180035330     MICR.obj
 0004:0000033c       $pdata$?NextToken@CRegParser@ATL@@IEAAJPEA_W@Z 000000018003533c     MICR.obj
 0004:00000348       $pdata$?AddValue@CRegParser@ATL@@IEAAJAEAVCRegKey@2@PEB_WPEA_W@Z 0000000180035348     MICR.obj
 0004:00000354       $pdata$?RegisterSubkeys@CRegParser@ATL@@IEAAJPEA_WPEAUHKEY__@@HH@Z 0000000180035354     MICR.obj
 0004:00000360       $pdata$?SkipAssignment@CRegParser@ATL@@IEAAJPEA_W@Z 0000000180035360     MICR.obj
 0004:0000036c       $pdata$?HKeyFromString@CRegParser@ATL@@KAPEAUHKEY__@@PEA_W@Z 000000018003536c     MICR.obj
 0004:00000378       $pdata$?VTFromRegType@CRegParser@ATL@@KAHPEB_WAEAG@Z 0000000180035378     MICR.obj
 0004:00000384       $pdata$?Append@CParseBuffer@CRegParser@ATL@@QEAAHPEB_WH@Z 0000000180035384     MICR.obj
 0004:00000390       $pdata$?AddReplacement@CRegObject@ATL@@UEAAJPEB_W0@Z 0000000180035390     MICR.obj
 0004:0000039c       $pdata$?RegisterFromResource@CRegObject@ATL@@IEAAJPEB_W00H@Z 000000018003539c     MICR.obj
 0004:000003a8       $pdata$??_GCRegObject@ATL@@UEAAPEAXI@Z 00000001800353a8     MICR.obj
 0004:000003b4       $pdata$?AllocateHeap@?$CTempBuffer@E$0BAA@VCCRTAllocator@ATL@@@ATL@@AEAAX_K@Z 00000001800353b4     MICR.obj
 0004:000003b4       $pdata$?AllocateHeap@?$CTempBuffer@_W$0BAA@VCCRTAllocator@ATL@@@ATL@@AEAAX_K@Z 00000001800353b4     MICR.obj
 0004:000003b4       $pdata$?AllocateHeap@?$CTempBuffer@_W$0EAA@VCCRTAllocator@ATL@@@ATL@@AEAAX_K@Z 00000001800353b4     MICR.obj
 0004:000003c0       $pdata$?CreateInstance@CComClassFactory@ATL@@UEAAJPEAUIUnknown@@AEBU_GUID@@PEAPEAX@Z 00000001800353c0     MICR.obj
 0004:000003cc       $pdata$?LockServer@CComClassFactory@ATL@@UEAAJH@Z 00000001800353cc     MICR.obj
 0004:000003d8       $pdata$??_GCComClassFactory@ATL@@UEAAPEAXI@Z 00000001800353d8     MICR.obj
 0004:000003e4       $pdata$?GetTI@CComTypeInfoHolder@ATL@@QEAAJK@Z 00000001800353e4     MICR.obj
 0004:000003f0       $pdata$?Cleanup@CComTypeInfoHolder@ATL@@SAX_K@Z 00000001800353f0     MICR.obj
 0004:000003fc       $pdata$?GetIDsOfNames@CComTypeInfoHolder@ATL@@QEAAJAEBU_GUID@@PEAPEA_WIKPEAJ@Z 00000001800353fc     MICR.obj
 0004:00000408       $pdata$?LoadNameCache@CComTypeInfoHolder@ATL@@QEAAJPEAUITypeInfo@@@Z 0000000180035408     MICR.obj
 0004:00000414       $pdata$?Add@CComDynamicUnkArray@ATL@@QEAAKPEAUIUnknown@@@Z 0000000180035414     MICR.obj
 0004:00000420       $pdata$?AtlHiMetricToPixel@ATL@@YAXPEBUtagSIZE@@PEAU2@@Z 0000000180035420     MICR.obj
 0004:0000042c       $pdata$?DefaultReflectionHandler@?$CWindowImplRoot@VCWindow@ATL@@@ATL@@SAHPEAUHWND__@@I_K_JAEA_J@Z 000000018003542c     MICR.obj
 0004:00000438       $pdata$?StartWindowProc@?$CWindowImplBaseT@VCWindow@ATL@@V?$CWinTraits@$0FGAAAAAA@$0A@@2@@ATL@@SA_JPEAUHWND__@@I_K_J@Z 0000000180035438     MICR.obj
 0004:00000444       $pdata$?WindowProc@?$CWindowImplBaseT@VCWindow@ATL@@V?$CWinTraits@$0FGAAAAAA@$0A@@2@@ATL@@SA_JPEAUHWND__@@I_K_J@Z 0000000180035444     MICR.obj
 0004:00000450       $pdata$?atlCreate@?$CWindowImplBaseT@VCWindow@ATL@@V?$CWinTraits@$0FGAAAAAA@$0A@@2@@ATL@@QEAAPEAUHWND__@@PEAU3@V_U_RECT@2@PEB_WKKV_U_MENUorID@2@GPEAX@Z 0000000180035450     MICR.obj
 0004:0000045c       $pdata$?IsEqualObject@?$CComPtrBase@UIOleClientSite@@@ATL@@QEAA_NPEAUIUnknown@@@Z 000000018003545c     MICR.obj
 0004:00000468       $pdata$??$AtlModuleRegisterWndClassInfoT@VAtlModuleRegisterWndClassInfoParamW@ATL@@@ATL@@YAGPEAU_ATL_BASE_MODULE70@0@PEAU_ATL_WIN_MODULE70@0@PEAU_ATL_WNDCLASSINFOW@0@PEAP6A_JPEAUHWND__@@I_K_J@ZVAtlModuleRegisterWndClassInfoParamW@0@@Z 0000000180035468     MICR.obj
 0004:00000474       $pdata$?GetZoomInfo@CComControlBase@ATL@@QEAAXAEAUATL_DRAWINFO@@@Z 0000000180035474     MICR.obj
 0004:00000480       $pdata$?SendOnDataChange@CComControlBase@ATL@@QEAAJK@Z 0000000180035480     MICR.obj
 0004:0000048c       $pdata$?OnSetFocus@CComControlBase@ATL@@QEAA_JI_K_JAEAH@Z 000000018003548c     MICR.obj
 0004:00000498       $pdata$?OnKillFocus@CComControlBase@ATL@@QEAA_JI_K_JAEAH@Z 0000000180035498     MICR.obj
 0004:000004a4       $pdata$?OnMouseActivate@CComControlBase@ATL@@QEAA_JI_K_JAEAH@Z 00000001800354a4     MICR.obj
 0004:000004b0       $pdata$?GetAmbientLocaleID@CComControlBase@ATL@@QEAAJAEAK@Z 00000001800354b0     MICR.obj
 0004:000004bc       $pdata$?GetAmbientUserMode@CComControlBase@ATL@@QEAAJAEAH@Z 00000001800354bc     MICR.obj
 0004:000004c8       $pdata$?SetControlFocus@CComControlBase@ATL@@QEAAHH@Z 00000001800354c8     MICR.obj
 0004:000004d4       $pdata$?IQuickActivate_QuickActivate@CComControlBase@ATL@@QEAAJPEAUtagQACONTAINER@@PEAUtagQACONTROL@@@Z 00000001800354d4     MICR.obj
 0004:000004e0       $pdata$?DoVerbProperties@CComControlBase@ATL@@QEAAJPEBUtagRECT@@PEAUHWND__@@@Z 00000001800354e0     MICR.obj
 0004:000004ec       $pdata$?InPlaceActivate@CComControlBase@ATL@@QEAAJJPEBUtagRECT@@@Z 00000001800354ec     MICR.obj
 0004:000004f8       $pdata$?IOleObject_SetClientSite@CComControlBase@ATL@@QEAAJPEAUIOleClientSite@@@Z 00000001800354f8     MICR.obj
 0004:00000504       $pdata$?IOleObject_Close@CComControlBase@ATL@@QEAAJK@Z 0000000180035504     MICR.obj
 0004:00000510       $pdata$?IOleObject_SetExtent@CComControlBase@ATL@@QEAAJKPEAUtagSIZE@@@Z 0000000180035510     MICR.obj
 0004:0000051c       $pdata$?IOleInPlaceObject_InPlaceDeactivate@CComControlBase@ATL@@QEAAJXZ 000000018003551c     MICR.obj
 0004:00000528       $pdata$?IOleInPlaceObject_UIDeactivate@CComControlBase@ATL@@QEAAJXZ 0000000180035528     MICR.obj
 0004:00000534       $pdata$?IOleInPlaceObject_SetObjectRects@CComControlBase@ATL@@QEAAJPEBUtagRECT@@0@Z 0000000180035534     MICR.obj
 0004:00000540       $pdata$?IViewObject_Draw@CComControlBase@ATL@@QEAAJKJPEAXPEAUtagDVTARGETDEVICE@@PEAUHDC__@@2PEBU_RECTL@@3@Z 0000000180035540     MICR.obj
 0004:0000054c       $pdata$?IDataObject_GetData@CComControlBase@ATL@@QEAAJPEAUtagFORMATETC@@PEAUtagSTGMEDIUM@@@Z 000000018003554c     MICR.obj
 0004:00000558       $pdata$?FireViewChange@CComControlBase@ATL@@QEAAJXZ 0000000180035558     MICR.obj
 0004:00000564       $pdata$?OnPaint@CComControlBase@ATL@@QEAA_JI_K_JAEAH@Z 0000000180035564     MICR.obj
 0004:00000570       $pdata$?OnDrawAdvanced@CComControlBase@ATL@@UEAAJAEAUATL_DRAWINFO@@@Z 0000000180035570     MICR.obj
 0004:0000057c       $pdata$?GetTypeInfo@?$IDispatchImpl@UIOPOSMICR@@$1?IID_IOPOSMICR@@3U_GUID@@B$1?LIBID_OposMICR_CCO@@3U3@B$00$0A@VCComTypeInfoHolder@ATL@@@ATL@@UEAAJIKPEAPEAUITypeInfo@@@Z 000000018003557c     MICR.obj
 0004:00000588       $pdata$?Invoke@?$IDispatchImpl@UIOPOSMICR@@$1?IID_IOPOSMICR@@3U_GUID@@B$1?LIBID_OposMICR_CCO@@3U3@B$00$0A@VCComTypeInfoHolder@ATL@@@ATL@@UEAAJJAEBU_GUID@@KGPEAUtagDISPPARAMS@@PEAUtagVARIANT@@PEAUtagEXCEPINFO@@PEAI@Z 0000000180035588     MICR.obj
 0004:00000594       $pdata$?atlCreate@?$CWindowImpl@VCOPOSMICR@@VCWindow@ATL@@V?$CWinTraits@$0FGAAAAAA@$0A@@3@@ATL@@QEAAPEAUHWND__@@PEAU3@V_U_RECT@2@PEB_WKKV_U_MENUorID@2@PEAX@Z 0000000180035594     MICR.obj
 0004:000005a0       $pdata$?CreateControlWindow@?$CComControl@VCOPOSMICR@@V?$CWindowImpl@VCOPOSMICR@@VCWindow@ATL@@V?$CWinTraits@$0FGAAAAAA@$0A@@3@@ATL@@@ATL@@UEAAPEAUHWND__@@PEAU3@AEAUtagRECT@@@Z 00000001800355a0     MICR.obj
 0004:000005ac       $pdata$?ProcessWindowMessage@?$CComControl@VCOPOSMICR@@V?$CWindowImpl@VCOPOSMICR@@VCWindow@ATL@@V?$CWinTraits@$0FGAAAAAA@$0A@@3@@ATL@@@ATL@@UEAAHPEAUHWND__@@I_K_JAEA_JK@Z 00000001800355ac     MICR.obj
 0004:000005b8       $pdata$?GetSizeMax@?$IPersistStreamInitImpl@VCOPOSMICR@@@ATL@@UEAAJPEAT_ULARGE_INTEGER@@@Z 00000001800355b8     MICR.obj
 0004:000005c4       $pdata$?IPersistStreamInit_Load@?$IPersistStreamInitImpl@VCOPOSMICR@@@ATL@@QEAAJPEAUIStream@@PEBUATL_PROPMAP_ENTRY@2@@Z 00000001800355c4     MICR.obj
 0004:000005d0       $pdata$?IPersistStreamInit_Save@?$IPersistStreamInitImpl@VCOPOSMICR@@@ATL@@QEAAJPEAUIStream@@HPEBUATL_PROPMAP_ENTRY@2@@Z 00000001800355d0     MICR.obj
 0004:000005dc       $pdata$?GetClientSite@?$IOleObjectImpl@VCOPOSMICR@@@ATL@@UEAAJPEAPEAUIOleClientSite@@@Z 00000001800355dc     MICR.obj
 0004:000005e8       $pdata$?DoVerbPrimary@?$IOleObjectImpl@VCOPOSMICR@@@ATL@@QEAAJPEBUtagRECT@@PEAUHWND__@@@Z 00000001800355e8     MICR.obj
 0004:000005f4       $pdata$?DoVerb@?$IOleObjectImpl@VCOPOSMICR@@@ATL@@UEAAJJPEAUtagMSG@@PEAUIOleClientSite@@JPEAUHWND__@@PEBUtagRECT@@@Z 00000001800355f4     MICR.obj
 0004:00000600       $pdata$?Advise@?$IOleObjectImpl@VCOPOSMICR@@@ATL@@UEAAJPEAUIAdviseSink@@PEAK@Z 0000000180035600     MICR.obj
 0004:0000060c       $pdata$?Unadvise@?$IOleObjectImpl@VCOPOSMICR@@@ATL@@UEAAJK@Z 000000018003560c     MICR.obj
 0004:00000618       $pdata$?EnumAdvise@?$IOleObjectImpl@VCOPOSMICR@@@ATL@@UEAAJPEAPEAUIEnumSTATDATA@@@Z 0000000180035618     MICR.obj
 0004:00000624       $pdata$?TranslateAcceleratorW@?$IOleInPlaceActiveObjectImpl@VCOPOSMICR@@@ATL@@UEAAJPEAUtagMSG@@@Z 0000000180035624     MICR.obj
 0004:00000630       $pdata$?OnDocWindowActivate@?$IOleInPlaceActiveObjectImpl@VCOPOSMICR@@@ATL@@UEAAJH@Z 0000000180035630     MICR.obj
 0004:0000063c       $pdata$?Draw@?$IViewObjectExImpl@VCOPOSMICR@@@ATL@@UEAAJKJPEAXPEAUtagDVTARGETDEVICE@@PEAUHDC__@@2PEBU_RECTL@@3P6AH_K@Z4@Z 000000018003563c     MICR.obj
 0004:00000648       $pdata$?SetAdvise@?$IViewObjectExImpl@VCOPOSMICR@@@ATL@@UEAAJKKPEAUIAdviseSink@@@Z 0000000180035648     MICR.obj
 0004:00000654       $pdata$?GetAdvise@?$IViewObjectExImpl@VCOPOSMICR@@@ATL@@UEAAJPEAK0PEAPEAUIAdviseSink@@@Z 0000000180035654     MICR.obj
 0004:00000660       $pdata$?QueryHitPoint@?$IViewObjectExImpl@VCOPOSMICR@@@ATL@@UEAAJKPEBUtagRECT@@UtagPOINT@@JPEAK@Z 0000000180035660     MICR.obj
 0004:0000066c       $pdata$?QueryHitRect@?$IViewObjectExImpl@VCOPOSMICR@@@ATL@@UEAAJKPEBUtagRECT@@0JPEAK@Z 000000018003566c     MICR.obj
 0004:00000678       $pdata$?OnWindowMessage@?$IOleInPlaceObjectWindowlessImpl@VCOPOSMICR@@@ATL@@UEAAJI_K_JPEA_J@Z 0000000180035678     MICR.obj
 0004:00000684       $pdata$?EnumConnectionPoints@?$IConnectionPointContainerImpl@VCOPOSMICR@@@ATL@@UEAAJPEAPEAUIEnumConnectionPoints@@@Z 0000000180035684     MICR.obj
 0004:00000690       $pdata$?FindConnectionPoint@?$IConnectionPointContainerImpl@VCOPOSMICR@@@ATL@@UEAAJAEBU_GUID@@PEAPEAUIConnectionPoint@@@Z 0000000180035690     MICR.obj
 0004:0000069c       $pdata$?IsDirty@?$IPersistStorageImpl@VCOPOSMICR@@@ATL@@UEAAJXZ 000000018003569c     MICR.obj
 0004:000006a8       $pdata$?InitNew@?$IPersistStorageImpl@VCOPOSMICR@@@ATL@@UEAAJPEAUIStorage@@@Z 00000001800356a8     MICR.obj
 0004:000006b4       $pdata$?Load@?$IPersistStorageImpl@VCOPOSMICR@@@ATL@@UEAAJPEAUIStorage@@@Z 00000001800356b4     MICR.obj
 0004:000006c0       $pdata$?Save@?$IPersistStorageImpl@VCOPOSMICR@@@ATL@@UEAAJPEAUIStorage@@H@Z 00000001800356c0     MICR.obj
 0004:000006cc       $pdata$?IPSI_GetIPersistStreamInit@?$IPersistStorageImpl@VCOPOSMICR@@@ATL@@AEAAPEAUIPersistStreamInit@@XZ 00000001800356cc     MICR.obj
 0004:000006d8       $pdata$?GetPagesHelper@?$ISpecifyPropertyPagesImpl@VCOPOSMICR@@@ATL@@IEAAJPEAUtagCAUUID@@PEBUATL_PROPMAP_ENTRY@2@@Z 00000001800356d8     MICR.obj
 0004:000006e4       $pdata$?DAdvise@?$IDataObjectImpl@VCOPOSMICR@@@ATL@@UEAAJPEAUtagFORMATETC@@KPEAUIAdviseSink@@PEAK@Z 00000001800356e4     MICR.obj
 0004:000006f0       $pdata$?GetClassInfoW@?$IProvideClassInfo2Impl@$1?CLSID_OPOSMICR@@3U_GUID@@B$1?DIID__IOPOSMICREvents@@3U2@B$1?LIBID_OposMICR_CCO@@3U2@B$00$0A@VCComTypeInfoHolder@ATL@@@ATL@@UEAAJPEAPEAUITypeInfo@@@Z 00000001800356f0     MICR.obj
 0004:000006fc       $pdata$?GetInterfaceSafetyOptions@?$IObjectSafetyImpl@VCOPOSMICR@@$02@ATL@@UEAAJAEBU_GUID@@PEAK1@Z 00000001800356fc     MICR.obj
 0004:00000708       $pdata$?SetInterfaceSafetyOptions@?$IObjectSafetyImpl@VCOPOSMICR@@$02@ATL@@UEAAJAEBU_GUID@@KK@Z 0000000180035708     MICR.obj
 0004:00000714       $pdata$?_LocCPQueryInterface@?$IConnectionPointImpl@VCOPOSMICR@@$1?DIID__IOPOSMICREvents@@3U_GUID@@BVCComDynamicUnkArray@ATL@@@ATL@@UEAAJAEBU_GUID@@PEAPEAX@Z 0000000180035714     MICR.obj
 0004:00000714       $pdata$?_LocCPQueryInterface@?$IConnectionPointImpl@VCOPOSMICR@@$1?IID_IPropertyNotifySink@@3U_GUID@@BVCComDynamicUnkArray@ATL@@@ATL@@UEAAJAEBU_GUID@@PEAPEAX@Z 0000000180035714     MICR.obj
 0004:00000720       $pdata$?Advise@?$IConnectionPointImpl@VCOPOSMICR@@$1?DIID__IOPOSMICREvents@@3U_GUID@@BVCComDynamicUnkArray@ATL@@@ATL@@UEAAJPEAUIUnknown@@PEAK@Z 0000000180035720     MICR.obj
 0004:00000720       $pdata$?Advise@?$IConnectionPointImpl@VCOPOSMICR@@$1?IID_IPropertyNotifySink@@3U_GUID@@BVCComDynamicUnkArray@ATL@@@ATL@@UEAAJPEAUIUnknown@@PEAK@Z 0000000180035720     MICR.obj
 0004:0000072c       $pdata$?Unadvise@?$IConnectionPointImpl@VCOPOSMICR@@$1?DIID__IOPOSMICREvents@@3U_GUID@@BVCComDynamicUnkArray@ATL@@@ATL@@UEAAJK@Z 000000018003572c     MICR.obj
 0004:0000072c       $pdata$?Unadvise@?$IConnectionPointImpl@VCOPOSMICR@@$1?IID_IPropertyNotifySink@@3U_GUID@@BVCComDynamicUnkArray@ATL@@@ATL@@UEAAJK@Z 000000018003572c     MICR.obj
 0004:00000738       $pdata$?EnumConnections@?$IConnectionPointImpl@VCOPOSMICR@@$1?DIID__IOPOSMICREvents@@3U_GUID@@BVCComDynamicUnkArray@ATL@@@ATL@@UEAAJPEAPEAUIEnumConnections@@@Z 0000000180035738     MICR.obj
 0004:00000738       $pdata$?EnumConnections@?$IConnectionPointImpl@VCOPOSMICR@@$1?IID_IPropertyNotifySink@@3U_GUID@@BVCComDynamicUnkArray@ATL@@@ATL@@UEAAJPEAPEAUIEnumConnections@@@Z 0000000180035738     MICR.obj
 0004:00000744       $pdata$?Fire_DataEvent@?$CProxy_IOPOSEvents@VCOPOSMICR@@@@QEAAXJ@Z 0000000180035744     MICR.obj
 0004:00000750       $pdata$?Fire_DirectIOEvent@?$CProxy_IOPOSEvents@VCOPOSMICR@@@@QEAAXJPEAJPEAPEA_W@Z 0000000180035750     MICR.obj
 0004:0000075c       $pdata$?Fire_ErrorEvent@?$CProxy_IOPOSEvents@VCOPOSMICR@@@@QEAAXJJJPEAJ@Z 000000018003575c     MICR.obj
 0004:00000768       $pdata$?Fire_StatusUpdateEvent@?$CProxy_IOPOSEvents@VCOPOSMICR@@@@QEAAXJ@Z 0000000180035768     MICR.obj
 0004:00000774       $pdata$?FireTheEvent@?$CProxy_IOPOSEvents@VCOPOSMICR@@@@IEAAXPEAVOposVariant@@IAEAJPEB_WJ@Z 0000000180035774     MICR.obj
 0004:00000780       $pdata$?GetConnMap@COPOSMICR@@SAPEBU_ATL_CONNMAP_ENTRY@ATL@@PEAH@Z 0000000180035780     MICR.obj
 0004:0000078c       $pdata$?ProcessWindowMessage@COPOSMICR@@UEAAHPEAUHWND__@@I_K_JAEA_JK@Z 000000018003578c     MICR.obj
 0004:00000798       $pdata$?SOData@COPOSMICR@@MEAAJJ@Z 0000000180035798     MICR.obj
 0004:000007a4       $pdata$?SODirectIO@COPOSMICR@@MEAAJJPEAJPEAPEA_W@Z 00000001800357a4     MICR.obj
 0004:000007b0       $pdata$?SOError@COPOSMICR@@MEAAJJJJPEAJ@Z 00000001800357b0     MICR.obj
 0004:000007bc       $pdata$?SOStatusUpdate@COPOSMICR@@MEAAJJ@Z 00000001800357bc     MICR.obj
 0004:000007c8       $pdata$?DoEvent@COPOSMICR@@IEAAXI_K_J@Z 00000001800357c8     MICR.obj
 0004:000007d4       $pdata$??__E_Module@@YAXXZ 00000001800357d4     MICR.obj
 0004:000007e0       $pdata$?CreateInstance@?$CComCreator@V?$CComObjectCached@VCComClassFactory@ATL@@@ATL@@@ATL@@SAJPEAXAEBU_GUID@@PEAPEAX@Z 00000001800357e0     MICR.obj
 0004:000007ec       $pdata$DllMain             00000001800357ec     MICR.obj
 0004:000007f8       $pdata$?CreateInstance@?$CComCreator@V?$CComObject@VCOPOSMICR@@@ATL@@@ATL@@SAJPEAXAEBU_GUID@@PEAPEAX@Z 00000001800357f8     MICR.obj
 0004:00000804       $pdata$?CreateInstance@?$CComCreator@V?$CComAggObject@VCOPOSMICR@@@ATL@@@ATL@@SAJPEAXAEBU_GUID@@PEAPEAX@Z 0000000180035804     MICR.obj
 0004:00000810       $pdata$?AddRef@?$CComObjectCached@VCComClassFactory@ATL@@@ATL@@UEAAKXZ 0000000180035810     MICR.obj
 0004:0000081c       $pdata$?Release@?$CComObjectCached@VCComClassFactory@ATL@@@ATL@@UEAAKXZ 000000018003581c     MICR.obj
 0004:00000828       $pdata$??_G?$CComObjectCached@VCComClassFactory@ATL@@@ATL@@UEAAPEAXI@Z 0000000180035828     MICR.obj
 0004:00000834       $pdata$??1?$CComEnumImpl@UIEnumConnectionPoints@@$1?_GUID_b196b285_bab4_101a_b69c_00aa00341d07@@3U__s_GUID@@BPEAUIConnectionPoint@@V?$_CopyInterface@UIConnectionPoint@@@ATL@@@ATL@@UEAA@XZ 0000000180035834     MICR.obj
 0004:00000840       $pdata$?Next@?$CComEnumImpl@UIEnumConnectionPoints@@$1?_GUID_b196b285_bab4_101a_b69c_00aa00341d07@@3U__s_GUID@@BPEAUIConnectionPoint@@V?$_CopyInterface@UIConnectionPoint@@@ATL@@@ATL@@UEAAJKPEAPEAUIConnectionPoint@@PEAK@Z 0000000180035840     MICR.obj
 0004:0000084c       $pdata$?Clone@?$CComEnumImpl@UIEnumConnectionPoints@@$1?_GUID_b196b285_bab4_101a_b69c_00aa00341d07@@3U__s_GUID@@BPEAUIConnectionPoint@@V?$_CopyInterface@UIConnectionPoint@@@ATL@@@ATL@@UEAAJPEAPEAUIEnumConnectionPoints@@@Z 000000018003584c     MICR.obj
 0004:00000858       $pdata$?Init@?$CComEnumImpl@UIEnumConnectionPoints@@$1?_GUID_b196b285_bab4_101a_b69c_00aa00341d07@@3U__s_GUID@@BPEAUIConnectionPoint@@V?$_CopyInterface@UIConnectionPoint@@@ATL@@@ATL@@QEAAJPEAPEAUIConnectionPoint@@0PEAUIUnknown@@W4CComEnumFlags@2@@Z 0000000180035858     MICR.obj
 0004:00000864       $pdata$?Release@?$CComObject@V?$CComEnum@UIEnumConnectionPoints@@$1?_GUID_b196b285_bab4_101a_b69c_00aa00341d07@@3U__s_GUID@@BPEAUIConnectionPoint@@V?$_CopyInterface@UIConnectionPoint@@@ATL@@VCComSingleThreadModel@6@@ATL@@@ATL@@UEAAKXZ 0000000180035864     MICR.obj
 0004:00000864       $pdata$?Release@?$CComObject@V?$CComEnum@UIEnumConnections@@$1?_GUID_b196b287_bab4_101a_b69c_00aa00341d07@@3U__s_GUID@@BUtagCONNECTDATA@@V?$_Copy@UtagCONNECTDATA@@@ATL@@VCComSingleThreadModel@6@@ATL@@@ATL@@UEAAKXZ 0000000180035864     MICR.obj
 0004:00000870       $pdata$?CreateInstance@?$CComObject@V?$CComEnum@UIEnumConnectionPoints@@$1?_GUID_b196b285_bab4_101a_b69c_00aa00341d07@@3U__s_GUID@@BPEAUIConnectionPoint@@V?$_CopyInterface@UIConnectionPoint@@@ATL@@VCComSingleThreadModel@6@@ATL@@@ATL@@SAJPEAPEAV12@@Z 0000000180035870     MICR.obj
 0004:0000087c       $pdata$??_G?$CComObject@V?$CComEnum@UIEnumConnectionPoints@@$1?_GUID_b196b285_bab4_101a_b69c_00aa00341d07@@3U__s_GUID@@BPEAUIConnectionPoint@@V?$_CopyInterface@UIConnectionPoint@@@ATL@@VCComSingleThreadModel@6@@ATL@@@ATL@@UEAAPEAXI@Z 000000018003587c     MICR.obj
 0004:00000888       $pdata$?Release@?$CComAggObject@VCOPOSMICR@@@ATL@@UEAAKXZ 0000000180035888     MICR.obj
 0004:00000894       $pdata$?QueryInterface@?$CComAggObject@VCOPOSMICR@@@ATL@@UEAAJAEBU_GUID@@PEAPEAX@Z 0000000180035894     MICR.obj
 0004:000008a0       $pdata$??0?$CComContainedObject@VCOPOSMICR@@@ATL@@QEAA@PEAX@Z 00000001800358a0     MICR.obj
 0004:000008ac       $pdata$??_G?$CComContainedObject@VCOPOSMICR@@@ATL@@UEAAPEAXI@Z 00000001800358ac     MICR.obj
 0004:000008b8       $pdata$??_G?$CComAggObject@VCOPOSMICR@@@ATL@@UEAAPEAXI@Z 00000001800358b8     MICR.obj
 0004:000008c4       $pdata$??0?$CComObject@VCOPOSMICR@@@ATL@@QEAA@PEAX@Z 00000001800358c4     MICR.obj
 0004:000008d0       $pdata$??1?$CComObject@VCOPOSMICR@@@ATL@@UEAA@XZ 00000001800358d0     MICR.obj
 0004:000008dc       $pdata$?Release@?$CComObject@VCOPOSMICR@@@ATL@@UEAAKXZ 00000001800358dc     MICR.obj
 0004:000008e8       $pdata$??_G?$CComObject@VCOPOSMICR@@@ATL@@UEAAPEAXI@Z 00000001800358e8     MICR.obj
 0004:000008f4       $pdata$??__E?pConnMap@?$IConnectionPointContainerImpl@VCOPOSMICR@@@ATL@@0PEBU_ATL_CONNMAP_ENTRY@2@EB@@YAXXZ 00000001800358f4     MICR.obj
 0004:00000900       $pdata$??1?$CComEnumImpl@UIEnumConnections@@$1?_GUID_b196b287_bab4_101a_b69c_00aa00341d07@@3U__s_GUID@@BUtagCONNECTDATA@@V?$_Copy@UtagCONNECTDATA@@@ATL@@@ATL@@UEAA@XZ 0000000180035900     MICR.obj
 0004:0000090c       $pdata$?Next@?$CComEnumImpl@UIEnumConnections@@$1?_GUID_b196b287_bab4_101a_b69c_00aa00341d07@@3U__s_GUID@@BUtagCONNECTDATA@@V?$_Copy@UtagCONNECTDATA@@@ATL@@@ATL@@UEAAJKPEAUtagCONNECTDATA@@PEAK@Z 000000018003590c     MICR.obj
 0004:00000918       $pdata$?Clone@?$CComEnumImpl@UIEnumConnections@@$1?_GUID_b196b287_bab4_101a_b69c_00aa00341d07@@3U__s_GUID@@BUtagCONNECTDATA@@V?$_Copy@UtagCONNECTDATA@@@ATL@@@ATL@@UEAAJPEAPEAUIEnumConnections@@@Z 0000000180035918     MICR.obj
 0004:00000924       $pdata$?Init@?$CComEnumImpl@UIEnumConnections@@$1?_GUID_b196b287_bab4_101a_b69c_00aa00341d07@@3U__s_GUID@@BUtagCONNECTDATA@@V?$_Copy@UtagCONNECTDATA@@@ATL@@@ATL@@QEAAJPEAUtagCONNECTDATA@@0PEAUIUnknown@@W4CComEnumFlags@2@@Z 0000000180035924     MICR.obj
 0004:00000930       $pdata$?CreateInstance@?$CComObject@V?$CComEnum@UIEnumConnections@@$1?_GUID_b196b287_bab4_101a_b69c_00aa00341d07@@3U__s_GUID@@BUtagCONNECTDATA@@V?$_Copy@UtagCONNECTDATA@@@ATL@@VCComSingleThreadModel@6@@ATL@@@ATL@@SAJPEAPEAV12@@Z 0000000180035930     MICR.obj
 0004:0000093c       $pdata$??_G?$CComObject@V?$CComEnum@UIEnumConnections@@$1?_GUID_b196b287_bab4_101a_b69c_00aa00341d07@@3U__s_GUID@@BUtagCONNECTDATA@@V?$_Copy@UtagCONNECTDATA@@@ATL@@VCComSingleThreadModel@6@@ATL@@@ATL@@UEAAPEAXI@Z 000000018003593c     MICR.obj
 0004:00000948       $pdata$??1CComControlBase@ATL@@UEAA@XZ 0000000180035948     MICRImpl.obj
 0004:00000954       $pdata$??1?$IConnectionPointImpl@VCOPOSMICR@@$1?DIID__IOPOSMICREvents@@3U_GUID@@BVCComDynamicUnkArray@ATL@@@ATL@@QEAA@XZ 0000000180035954     MICRImpl.obj
 0004:00000954       $pdata$??1?$IConnectionPointImpl@VCOPOSMICR@@$1?IID_IPropertyNotifySink@@3U_GUID@@BVCComDynamicUnkArray@ATL@@@ATL@@QEAA@XZ 0000000180035954     MICRImpl.obj
 0004:00000960       $pdata$?FinalConstruct@COPOSMICR@@QEAAJXZ 0000000180035960     MICRImpl.obj
 0004:0000096c       $pdata$??1COPOSMICR@@UEAA@XZ 000000018003596c     MICRImpl.obj
 0004:00000978       $pdata$?GetOposProp@COPOSMICR@@IEAAJJPEAJJ@Z 0000000180035978     MICRImpl.obj
 0004:00000984       $pdata$?SetOposProp@COPOSMICR@@IEAAJJJJ@Z 0000000180035984     MICRImpl.obj
 0004:00000990       $pdata$?GetOposProp@COPOSMICR@@IEAAJJPEAPEA_WJ@Z 0000000180035990     MICRImpl.obj
 0004:0000099c       $pdata$?DoInvoke@COPOSMICR@@IEAAJJPEAVOposVariant@@IHPEAJ_N@Z 000000018003599c     MICRImpl.obj
 0004:000009a8       $pdata$?SetCOFreezeEvents@COPOSMICR@@IEAAXF@Z 00000001800359a8     MICRImpl.obj
 0004:000009b4       $pdata$?FreezeEvents@COPOSMICR@@MEAAJH@Z 00000001800359b4     MICRImpl.obj
 0004:000009c0       $pdata$?OnDraw@COPOSMICR@@MEAAJAEAUATL_DRAWINFO@@@Z 00000001800359c0     MICRImpl.obj
 0004:000009cc       $pdata$?EventInit@COPOSMICR@@IEAAJXZ 00000001800359cc     MICRImpl.obj
 0004:000009d8       $pdata$?EventUninit@COPOSMICR@@IEAAXXZ 00000001800359d8     MICRImpl.obj
 0004:000009e4       $pdata$?s_EventWindowProc@COPOSMICR@@KA_JPEAUHWND__@@I_K_J@Z 00000001800359e4     MICRImpl.obj
 0004:000009f0       $pdata$?EventWindowProc@COPOSMICR@@IEAA_JI_K_J@Z 00000001800359f0     MICRImpl.obj
 0004:000009fc       $pdata$?SOProcessID@COPOSMICR@@UEAAJPEAJ@Z 00000001800359fc     MICRImpl.obj
 0004:00000a08       $pdata$?get_Claimed@COPOSMICR@@UEAAJPEAF@Z 0000000180035a08     MICRImpl.obj
 0004:00000a14       $pdata$?get_DataEventEnabled@COPOSMICR@@UEAAJPEAF@Z 0000000180035a14     MICRImpl.obj
 0004:00000a20       $pdata$?get_DeviceEnabled@COPOSMICR@@UEAAJPEAF@Z 0000000180035a20     MICRImpl.obj
 0004:00000a2c       $pdata$?get_FreezeEvents@COPOSMICR@@UEAAJPEAF@Z 0000000180035a2c     MICRImpl.obj
 0004:00000a38       $pdata$?put_FreezeEvents@COPOSMICR@@UEAAJF@Z 0000000180035a38     MICRImpl.obj
 0004:00000a44       $pdata$?get_ResultCode@COPOSMICR@@UEAAJPEAJ@Z 0000000180035a44     MICRImpl.obj
 0004:00000a50       $pdata$?get_State@COPOSMICR@@UEAAJPEAJ@Z 0000000180035a50     MICRImpl.obj
 0004:00000a5c       $pdata$?get_ControlObjectDescription@COPOSMICR@@UEAAJPEAPEA_W@Z 0000000180035a5c     MICRImpl.obj
 0004:00000a68       $pdata$?CheckHealth@COPOSMICR@@UEAAJJPEAJ@Z 0000000180035a68     MICRImpl.obj
 0004:00000a74       $pdata$?ClaimDevice@COPOSMICR@@UEAAJJPEAJ@Z 0000000180035a74     MICRImpl.obj
 0004:00000a80       $pdata$?ClearInput@COPOSMICR@@UEAAJPEAJ@Z 0000000180035a80     MICRImpl.obj
 0004:00000a8c       $pdata$?Close@COPOSMICR@@UEAAJPEAJ@Z 0000000180035a8c     MICRImpl.obj
 0004:00000a98       $pdata$?DirectIO@COPOSMICR@@UEAAJJPEAJPEAPEA_W0@Z 0000000180035a98     MICRImpl.obj
 0004:00000aa4       $pdata$?Open@COPOSMICR@@UEAAJPEA_WPEAJ@Z 0000000180035aa4     MICRImpl.obj
 0004:00000ab0       $pdata$?ReleaseDevice@COPOSMICR@@UEAAJPEAJ@Z 0000000180035ab0     MICRImpl.obj
 0004:00000abc       $pdata$?get_CapValidationDevice@COPOSMICR@@UEAAJPEAF@Z 0000000180035abc     MICRImpl.obj
 0004:00000ac8       $pdata$?BeginInsertion@COPOSMICR@@UEAAJJPEAJ@Z 0000000180035ac8     MICRImpl.obj
 0004:00000ad4       $pdata$?BeginRemoval@COPOSMICR@@UEAAJJPEAJ@Z 0000000180035ad4     MICRImpl.obj
 0004:00000ae0       $pdata$?EndInsertion@COPOSMICR@@UEAAJPEAJ@Z 0000000180035ae0     MICRImpl.obj
 0004:00000aec       $pdata$?EndRemoval@COPOSMICR@@UEAAJPEAJ@Z 0000000180035aec     MICRImpl.obj
 0004:00000af8       $pdata$?get_AutoDisable@COPOSMICR@@UEAAJPEAF@Z 0000000180035af8     MICRImpl.obj
 0004:00000b04       $pdata$?get_CapStatisticsReporting@COPOSMICR@@UEAAJPEAF@Z 0000000180035b04     MICRImpl.obj
 0004:00000b10       $pdata$?get_CapUpdateStatistics@COPOSMICR@@UEAAJPEAF@Z 0000000180035b10     MICRImpl.obj
 0004:00000b1c       $pdata$?ResetStatistics@COPOSMICR@@UEAAJPEA_WPEAJ@Z 0000000180035b1c     MICRImpl.obj
 0004:00000b28       $pdata$?RetrieveStatistics@COPOSMICR@@UEAAJPEAPEA_WPEAJ@Z 0000000180035b28     MICRImpl.obj
 0004:00000b34       $pdata$?UpdateStatistics@COPOSMICR@@UEAAJPEA_WPEAJ@Z 0000000180035b34     MICRImpl.obj
 0004:00000b40       $pdata$?get_CapCompareFirmwareVersion@COPOSMICR@@UEAAJPEAF@Z 0000000180035b40     MICRImpl.obj
 0004:00000b4c       $pdata$?get_CapUpdateFirmware@COPOSMICR@@UEAAJPEAF@Z 0000000180035b4c     MICRImpl.obj
 0004:00000b58       $pdata$?CompareFirmwareVersion@COPOSMICR@@UEAAJPEA_WPEAJ1@Z 0000000180035b58     MICRImpl.obj
 0004:00000b64       $pdata$?UpdateFirmware@COPOSMICR@@UEAAJPEA_WPEAJ@Z 0000000180035b64     MICRImpl.obj
 0004:00000b70       $pdata$?ClearInputProperties@COPOSMICR@@UEAAJPEAJ@Z 0000000180035b70     MICRImpl.obj
 0004:00000b7c       $pdata$atexit              0000000180035b7c     LIBCMT:utility.obj
 0004:00000b88       $pdata$_onexit             0000000180035b88     LIBCMT:utility.obj
 0004:00000b94       $pdata$__scrt_is_nonwritable_in_current_image 0000000180035b94     LIBCMT:utility.obj
 0004:00000ba0       $pdata$__scrt_is_nonwritable_in_current_image$filt$0 0000000180035ba0     LIBCMT:utility.obj
 0004:00000bac       $pdata$__scrt_acquire_startup_lock 0000000180035bac     LIBCMT:utility.obj
 0004:00000bb8       $pdata$__scrt_release_startup_lock 0000000180035bb8     LIBCMT:utility.obj
 0004:00000bc4       $pdata$__scrt_initialize_crt 0000000180035bc4     LIBCMT:utility.obj
 0004:00000bd0       $pdata$__scrt_uninitialize_crt 0000000180035bd0     LIBCMT:utility.obj
 0004:00000bdc       $pdata$__scrt_initialize_onexit_tables 0000000180035bdc     LIBCMT:utility.obj
 0004:00000be8       $pdata$__scrt_dllmain_exception_filter 0000000180035be8     LIBCMT:utility.obj
 0004:00000bf4       $pdata$__scrt_dllmain_before_initialize_c 0000000180035bf4     LIBCMT:utility.obj
 0004:00000c00       $pdata$__scrt_dllmain_after_initialize_c 0000000180035c00     LIBCMT:utility.obj
 0004:00000c0c       $pdata$__scrt_dllmain_uninitialize_c 0000000180035c0c     LIBCMT:utility.obj
 0004:00000c18       $pdata$__scrt_dllmain_uninitialize_critical 0000000180035c18     LIBCMT:utility.obj
 0004:00000c24       $pdata$__scrt_dllmain_crt_thread_attach 0000000180035c24     LIBCMT:utility.obj
 0004:00000c30       $pdata$__scrt_dllmain_crt_thread_detach 0000000180035c30     LIBCMT:utility.obj
 0004:00000c3c       $pdata$_Init_thread_header 0000000180035c3c     LIBCMT:thread_safe_statics.obj
 0004:00000c48       $pdata$_Init_thread_footer 0000000180035c48     LIBCMT:thread_safe_statics.obj
 0004:00000c54       $pdata$_Init_thread_wait   0000000180035c54     LIBCMT:thread_safe_statics.obj
 0004:00000c60       $pdata$_Init_thread_notify 0000000180035c60     LIBCMT:thread_safe_statics.obj
 0004:00000c6c       $pdata$?__scrt_uninitialize_thread_safe_statics@@YAXXZ 0000000180035c6c     LIBCMT:thread_safe_statics.obj
 0004:00000c78       $pdata$?__scrt_initialize_thread_safe_statics@@YAHXZ 0000000180035c78     LIBCMT:thread_safe_statics.obj
 0004:00000c84       $pdata$__report_securityfailure 0000000180035c84     LIBCMT:gs_report.obj
 0004:00000c90       $pdata$__report_rangecheckfailure 0000000180035c90     LIBCMT:gs_report.obj
 0004:00000c9c       $pdata$__report_gsfailure  0000000180035c9c     LIBCMT:gs_report.obj
 0004:00000ca8       $pdata$capture_current_context 0000000180035ca8     LIBCMT:gs_report.obj
 0004:00000cb4       $pdata$capture_previous_context 0000000180035cb4     LIBCMT:gs_report.obj
 0004:00000cc0       $pdata$__raise_securityfailure 0000000180035cc0     LIBCMT:gs_report.obj
 0004:00000ccc       $pdata$??2@YAPEAX_KAEBUnothrow_t@std@@@Z 0000000180035ccc     LIBCMT:new_scalar_nothrow.obj
 0004:00000cd8       $pdata$?catch$0@?0???2@YAPEAX_KAEBUnothrow_t@std@@@Z@4HA 0000000180035cd8     LIBCMT:new_scalar_nothrow.obj
 0004:00000ce4       $pdata$__GSHandlerCheckCommon 0000000180035ce4     LIBCMT:gshandler.obj
 0004:00000cf0       $pdata$__GSHandlerCheck    0000000180035cf0     LIBCMT:gshandler.obj
 0004:00000cfc       $pdata$__GSHandlerCheck_SEH 0000000180035cfc     LIBCMT:gshandlerseh.obj
 0004:00000d20       $pdata$?dllmain_crt_process_attach@@YAHQEAUHINSTANCE__@@QEAX@Z 0000000180035d20     LIBCMT:dll_dllmain.obj
 0004:00000d2c       $pdata$?fin$0@?0??dllmain_crt_process_attach@@YAHQEAUHINSTANCE__@@QEAX@Z@4HA 0000000180035d2c     LIBCMT:dll_dllmain.obj
 0004:00000d38       $pdata$?dllmain_crt_process_detach@@YAH_N@Z 0000000180035d38     LIBCMT:dll_dllmain.obj
 0004:00000d44       $pdata$?fin$0@?0??dllmain_crt_process_detach@@YAH_N@Z@4HA 0000000180035d44     LIBCMT:dll_dllmain.obj
 0004:00000d50       $pdata$?fin$1@?0??dllmain_crt_process_detach@@YAH_N@Z@4HA 0000000180035d50     LIBCMT:dll_dllmain.obj
 0004:00000d5c       $pdata$?dllmain_crt_dispatch@@YAHQEAUHINSTANCE__@@KQEAX@Z 0000000180035d5c     LIBCMT:dll_dllmain.obj
 0004:00000d68       $pdata$?dllmain_dispatch@@YAHQEAUHINSTANCE__@@KQEAX@Z 0000000180035d68     LIBCMT:dll_dllmain.obj
 0004:00000d74       $pdata$?filt$0@?0??dllmain_dispatch@@YAHQEAUHINSTANCE__@@KQEAX@Z@4HA 0000000180035d74     LIBCMT:dll_dllmain.obj
 0004:00000d80       $pdata$_DllMainCRTStartup  0000000180035d80     LIBCMT:dll_dllmain.obj
 0004:00000d8c       $pdata$??2@YAPEAX_K@Z      0000000180035d8c     LIBCMT:new_scalar.obj
 0004:00000d98       $pdata$__isa_available_init 0000000180035d98     LIBCMT:cpu_disp.obj
 0004:00000da4       $pdata$__scrt_fastfail     0000000180035da4     LIBCMT:utility_desktop.obj
 0004:00000db0       $pdata$__security_init_cookie 0000000180035db0     LIBCMT:gs_support.obj
 0004:00000dbc       $pdata$__scrt_initialize_default_local_stdio_options 0000000180035dbc     LIBCMT:default_local_stdio_options.obj
 0004:00000dc8       $pdata$_RTC_Initialize     0000000180035dc8     LIBCMT:initsect.obj
 0004:00000dd4       $pdata$_RTC_Terminate      0000000180035dd4     LIBCMT:initsect.obj
 0004:00000de0       $pdata$??0exception@std@@QEAA@AEBV01@@Z 0000000180035de0     LIBCMT:throw_bad_alloc.obj
 0004:00000dec       $pdata$??_Gbad_alloc@std@@UEAAPEAXI@Z 0000000180035dec     LIBCMT:throw_bad_alloc.obj
 0004:00000dec       $pdata$??_Gbad_array_new_length@std@@UEAAPEAXI@Z 0000000180035dec     LIBCMT:throw_bad_alloc.obj
 0004:00000dec       $pdata$??_Gexception@std@@UEAAPEAXI@Z 0000000180035dec     LIBCMT:throw_bad_alloc.obj
 0004:00000dec       $pdata$??_Gbad_exception@std@@UEAAPEAXI@Z 0000000180035dec     libvcruntime:frame.obj
 0004:00000df8       $pdata$??0bad_alloc@std@@QEAA@AEBV01@@Z 0000000180035df8     LIBCMT:throw_bad_alloc.obj
 0004:00000e04       $pdata$??0bad_array_new_length@std@@QEAA@AEBV01@@Z 0000000180035e04     LIBCMT:throw_bad_alloc.obj
 0004:00000e10       $pdata$?__scrt_throw_std_bad_alloc@@YAXXZ 0000000180035e10     LIBCMT:throw_bad_alloc.obj
 0004:00000e1c       $pdata$?__scrt_throw_std_bad_array_new_length@@YAXXZ 0000000180035e1c     LIBCMT:throw_bad_alloc.obj
 0004:00000e40       $pdata$??_Gtype_info@@UEAAPEAXI@Z 0000000180035e40     LIBCMT:std_type_info_static.obj
 0004:00000e4c       $pdata$??0CAtlBaseModule@ATL@@QEAA@XZ 0000000180035e4c     atls:atlbase.obj
 0004:00000e58       $pdata$??1CAtlBaseModule@ATL@@QEAA@XZ 0000000180035e58     atls:atlbase.obj
 0004:00000e64       $pdata$??__E_AtlBaseModule@ATL@@YAXXZ 0000000180035e64     atls:atlbase.obj
 0004:00000e70       $pdata$AtlThunk_AllocateData 0000000180035e70     atls:atlthunk.obj
 0004:00000e7c       $pdata$AtlThunk_InitData   0000000180035e7c     atls:atlthunk.obj
 0004:00000e88       $pdata$AtlThunk_DataToCode 0000000180035e88     atls:atlthunk.obj
 0004:00000e94       $pdata$AtlThunk_FreeData   0000000180035e94     atls:atlthunk.obj
 0004:00000ea0       $pdata$?__InitializeThunkPool@@YAHXZ 0000000180035ea0     atls:atlthunk.obj
 0004:00000eac       $pdata$?__AllocStdCallThunk_cmn@@YAPEAXXZ 0000000180035eac     atls:atlthunk.obj
 0004:00000eb8       $pdata$??$GetProcAddressAll@P6AP6A_JPEAUHWND__@@I_K_J@ZPEAUAtlThunkData_t@@@Z@@YAP6AP6A_JPEAUHWND__@@I_K_J@ZPEAUAtlThunkData_t@@@ZPEAP6AP6A_J0I12@Z3@Z@Z 0000000180035eb8     atls:atlthunk.obj
 0004:00000eb8       $pdata$??$GetProcAddressAll@P6APEAUAtlThunkData_t@@XZ@@YAP6APEAUAtlThunkData_t@@XZPEAP6APEAU0@XZ@Z 0000000180035eb8     atls:atlthunk.obj
 0004:00000eb8       $pdata$??$GetProcAddressAll@P6AXPEAUAtlThunkData_t@@@Z@@YAP6AXPEAUAtlThunkData_t@@@ZPEAP6AX0@Z@Z 0000000180035eb8     atls:atlthunk.obj
 0004:00000eb8       $pdata$??$GetProcAddressAll@P6AXPEAUAtlThunkData_t@@PEAX_K@Z@@YAP6AXPEAUAtlThunkData_t@@PEAX_K@ZPEAP6AX012@Z@Z 0000000180035eb8     atls:atlthunk.obj
 0004:00000ec4       $pdata$_purecall           0000000180035ec4     libvcruntime:purevirt.obj
 0004:00000ed0       $pdata$wcsstr              0000000180035ed0     libvcruntime:wcsstr.obj
 0004:00000f18       $pdata$__vcrt_initialize   0000000180035f18     libvcruntime:initialization.obj
 0004:00000f24       $pdata$__vcrt_uninitialize 0000000180035f24     libvcruntime:initialization.obj
 0004:00000f30       $pdata$__vcrt_uninitialize_critical 0000000180035f30     libvcruntime:initialization.obj
 0004:00000f3c       $pdata$__vcrt_thread_attach 0000000180035f3c     libvcruntime:initialization.obj
 0004:00000f48       $pdata$__vcrt_thread_detach 0000000180035f48     libvcruntime:initialization.obj
 0004:00000f54       $pdata$__C_specific_handler 0000000180035f54     libvcruntime:riscchandler.obj
 0004:00000f60       $pdata$?DecompFuncInfo@FH4@@YA_JPEAEAEAUFuncInfo4@1@_KH_N@Z 0000000180035f60     libvcruntime:risctrnsctrl.obj
 0004:00000f6c       $pdata$?FrameUnwindToEmptyState@__FrameHandler4@@SAXPEA_KPEAU_xDISPATCHER_CONTEXT@@PEAUFuncInfo4@FH4@@@Z 0000000180035f6c     libvcruntime:risctrnsctrl.obj
 0004:00000f78       $pdata$?UnwindNestedFrames@__FrameHandler4@@SAXPEA_KPEAUEHExceptionRecord@@PEAU_CONTEXT@@0PEAXPEAUFuncInfo4@FH4@@HHPEAUHandlerType4@5@PEAU_xDISPATCHER_CONTEXT@@E@Z 0000000180035f78     libvcruntime:risctrnsctrl.obj
 0004:00000f84       $pdata$?GetRangeOfTrysToCheck@__FrameHandler4@@SA?AU?$pair@Viterator@TryBlockMap4@FH4@@V123@@std@@AEAVTryBlockMap4@FH4@@HPEAU_xDISPATCHER_CONTEXT@@PEAUFuncInfo4@5@H@Z 0000000180035f84     libvcruntime:risctrnsctrl.obj
 0004:00000f90       $pdata$_GetImageBase       0000000180035f90     libvcruntime:risctrnsctrl.obj
 0004:00000f9c       $pdata$_SetImageBase       0000000180035f9c     libvcruntime:risctrnsctrl.obj
 0004:00000fa8       $pdata$_GetThrowImageBase  0000000180035fa8     libvcruntime:risctrnsctrl.obj
 0004:00000fb4       $pdata$_SetThrowImageBase  0000000180035fb4     libvcruntime:risctrnsctrl.obj
 0004:00000fc0       $pdata$_CreateFrameInfo    0000000180035fc0     libvcruntime:risctrnsctrl.obj
 0004:00000fcc       $pdata$_FindAndUnlinkFrame 0000000180035fcc     libvcruntime:risctrnsctrl.obj
 0004:00000fd8       $pdata$__CxxFrameHandler4  0000000180035fd8     libvcruntime:risctrnsctrl.obj
 0004:00000fe4       $pdata$??$_CallSETranslator@V__FrameHandler4@@@@YAHPEAUEHExceptionRecord@@PEA_KPEAU_CONTEXT@@PEAU_xDISPATCHER_CONTEXT@@PEAUFuncInfo4@FH4@@K1H@Z 0000000180035fe4     libvcruntime:risctrnsctrl.obj
 0004:00000ff0       $pdata$?filt$0@?0???$_CallSETranslator@V__FrameHandler4@@@@YAHPEAUEHExceptionRecord@@PEA_KPEAU_CONTEXT@@PEAU_xDISPATCHER_CONTEXT@@PEAUFuncInfo4@FH4@@K1H@Z@4HA 0000000180035ff0     libvcruntime:risctrnsctrl.obj
 0004:00000ffc       $pdata$_IsExceptionObjectToBeDestroyed 0000000180035ffc     libvcruntime:ehhelpers.obj
 0004:00001008       $pdata$__FrameUnwindFilter 0000000180036008     libvcruntime:ehhelpers.obj
 0004:00001014       $pdata$__DestructExceptionObject 0000000180036014     libvcruntime:ehhelpers.obj
 0004:00001020       $pdata$__DestructExceptionObject$filt$0 0000000180036020     libvcruntime:ehhelpers.obj
 0004:0000102c       $pdata$__std_type_info_destroy_list 000000018003602c     libvcruntime:std_type_info.obj
 0004:00001038       $pdata$__std_exception_copy 0000000180036038     libvcruntime:std_exception.obj
 0004:00001044       $pdata$__std_exception_destroy 0000000180036044     libvcruntime:std_exception.obj
 0004:00001050       $pdata$_CxxThrowException  0000000180036050     libvcruntime:throw.obj
 0004:0000105c       $pdata$__vcrt_initialize_ptd 000000018003605c     libvcruntime:per_thread_data.obj
 0004:00001068       $pdata$__vcrt_uninitialize_ptd 0000000180036068     libvcruntime:per_thread_data.obj
 0004:00001074       $pdata$__vcrt_getptd       0000000180036074     libvcruntime:per_thread_data.obj
 0004:00001080       $pdata$__vcrt_getptd_noexit 0000000180036080     libvcruntime:per_thread_data.obj
 0004:0000108c       $pdata$__vcrt_freeptd      000000018003608c     libvcruntime:per_thread_data.obj
 0004:00001098       $pdata$__vcrt_freefls      0000000180036098     libvcruntime:per_thread_data.obj
 0004:000010a4       $pdata$__vcrt_initialize_locks 00000001800360a4     libvcruntime:locks.obj
 0004:000010b0       $pdata$__vcrt_uninitialize_locks 00000001800360b0     libvcruntime:locks.obj
 0004:000010e0       $pdata$?StateFromIp@__FrameHandler4@@SAHPEAUFuncInfo4@FH4@@PEAU_xDISPATCHER_CONTEXT@@_K@Z 00000001800360e0     libvcruntime:ehstate.obj
 0004:000010ec       $pdata$?getStartStop@UWMap4@FH4@@QEAAXHHAEAViterator@12@0@Z 00000001800360ec     libvcruntime:frame.obj
 0004:000010f8       $pdata$?getStateFromIterators@UWMap4@FH4@@SAHAEBViterator@12@H0H0@Z 00000001800360f8     libvcruntime:frame.obj
 0004:00001104       $pdata$??0HandlerMap4@FH4@@QEAA@PEBUTryBlockMapEntry4@1@_KH@Z 0000000180036104     libvcruntime:frame.obj
 0004:00001110       $pdata$?FrameUnwindToState@__FrameHandler4@@SAXPEA_KPEAU_xDISPATCHER_CONTEXT@@PEAUFuncInfo4@FH4@@H@Z 0000000180036110     libvcruntime:frame.obj
 0004:0000111c       $pdata$?filt$0@?0??FrameUnwindToState@__FrameHandler4@@SAXPEA_KPEAU_xDISPATCHER_CONTEXT@@PEAUFuncInfo4@FH4@@H@Z@4HA 000000018003611c     libvcruntime:frame.obj
 0004:00001128       $pdata$?fin$1@?0??FrameUnwindToState@__FrameHandler4@@SAXPEA_KPEAU_xDISPATCHER_CONTEXT@@PEAUFuncInfo4@FH4@@H@Z@4HA 0000000180036128     libvcruntime:frame.obj
 0004:00001134       $pdata$?CxxCallCatchBlock@__FrameHandler4@@SAPEAXPEAU_EXCEPTION_RECORD@@@Z 0000000180036134     libvcruntime:frame.obj
 0004:00001140       $pdata$?filt$0@?0??CxxCallCatchBlock@__FrameHandler4@@SAPEAXPEAU_EXCEPTION_RECORD@@@Z@4HA 0000000180036140     libvcruntime:frame.obj
 0004:0000114c       $pdata$?fin$1@?0??CxxCallCatchBlock@__FrameHandler4@@SAPEAXPEAU_EXCEPTION_RECORD@@@Z@4HA 000000018003614c     libvcruntime:frame.obj
 0004:00001158       $pdata$??0bad_exception@std@@QEAA@AEBV01@@Z 0000000180036158     libvcruntime:frame.obj
 0004:00001164       $pdata$?ExFilterRethrow@@YAHPEAU_EXCEPTION_POINTERS@@PEAUEHExceptionRecord@@PEAH@Z 0000000180036164     libvcruntime:frame.obj
 0004:00001170       $pdata$?ExFilterRethrowFH4@@YAHPEAU_EXCEPTION_POINTERS@@PEAUEHExceptionRecord@@HPEAH@Z 0000000180036170     libvcruntime:frame.obj
 0004:0000117c       $pdata$?IsInExceptionSpec@@YAEPEAUEHExceptionRecord@@PEBU_s_ESTypeList@@@Z 000000018003617c     libvcruntime:frame.obj
 0004:00001188       $pdata$?Is_bad_exception_allowed@@YAEPEBU_s_ESTypeList@@@Z 0000000180036188     libvcruntime:frame.obj
 0004:00001194       $pdata$??$__InternalCxxFrameHandler@V__FrameHandler4@@@@YA?AW4_EXCEPTION_DISPOSITION@@PEAUEHExceptionRecord@@PEA_KPEAU_CONTEXT@@PEAU_xDISPATCHER_CONTEXT@@PEAUFuncInfo4@FH4@@H1E@Z 0000000180036194     libvcruntime:frame.obj
 0004:000011a0       $pdata$??$TypeMatchHelper@V__FrameHandler3@@@@YAHPEBU_s_HandlerType@@PEBU_s_CatchableType@@PEBU_s_ThrowInfo@@@Z 00000001800361a0     libvcruntime:frame.obj
 0004:000011ac       $pdata$??$TypeMatchHelper@V__FrameHandler4@@@@YAHPEAUHandlerType4@FH4@@PEBU_s_CatchableType@@PEBU_s_ThrowInfo@@@Z 00000001800361ac     libvcruntime:frame.obj
 0004:000011b8       $pdata$??$BuildCatchObjectHelperInternal@V__FrameHandler4@@@@YAHPEAUEHExceptionRecord@@PEAXPEAUHandlerType4@FH4@@PEBU_s_CatchableType@@@Z 00000001800361b8     libvcruntime:frame.obj
 0004:000011c4       $pdata$??$BuildCatchObjectInternal@V__FrameHandler4@@@@YAXPEAUEHExceptionRecord@@PEAXPEAUHandlerType4@FH4@@PEBU_s_CatchableType@@@Z 00000001800361c4     libvcruntime:frame.obj
 0004:000011d0       $pdata$??$FindHandler@V__FrameHandler4@@@@YAXPEAUEHExceptionRecord@@PEA_KPEAU_CONTEXT@@PEAU_xDISPATCHER_CONTEXT@@PEAUFuncInfo4@FH4@@EH1@Z 00000001800361d0     libvcruntime:frame.obj
 0004:000011dc       $pdata$??$CatchIt@V__FrameHandler4@@@@YAXPEAUEHExceptionRecord@@PEA_KPEAU_CONTEXT@@PEAU_xDISPATCHER_CONTEXT@@PEAUFuncInfo4@FH4@@PEAUHandlerType4@4@PEBU_s_CatchableType@@PEAUTryBlockMapEntry4@4@H1EE@Z 00000001800361dc     libvcruntime:frame.obj
 0004:000011e8       $pdata$??$FindHandlerForForeignException@V__FrameHandler4@@@@YAXPEAUEHExceptionRecord@@PEA_KPEAU_CONTEXT@@PEAU_xDISPATCHER_CONTEXT@@PEAUFuncInfo4@FH4@@HH1@Z 00000001800361e8     libvcruntime:frame.obj
 0004:000011f4       $pdata$__vcrt_FlsAlloc     00000001800361f4     libvcruntime:winapi_downlevel.obj
 0004:00001200       $pdata$__vcrt_FlsFree      0000000180036200     libvcruntime:winapi_downlevel.obj
 0004:0000120c       $pdata$__vcrt_FlsGetValue  000000018003620c     libvcruntime:winapi_downlevel.obj
 0004:00001218       $pdata$__vcrt_FlsSetValue  0000000180036218     libvcruntime:winapi_downlevel.obj
 0004:00001224       $pdata$__vcrt_InitializeCriticalSectionEx 0000000180036224     libvcruntime:winapi_downlevel.obj
 0004:00001230       $pdata$?try_get_function@@YAPEAXW4function_id@?A0x5302d918@@QEBDQEBW4module_id@2@2@Z 0000000180036230     libvcruntime:winapi_downlevel.obj
 0004:0000126c       $pdata$_invalid_parameter_noinfo 000000018003626c     libucrt:invalid_parameter.obj
 0004:00001278       $pdata$_invoke_watson      0000000180036278     libucrt:invalid_parameter.obj
 0004:00001284       $pdata$__acrt_call_reportfault 0000000180036284     libucrt:invalid_parameter.obj
 0004:00001290       $pdata$_invalid_parameter  0000000180036290     libucrt:invalid_parameter.obj
 0004:0000129c       $pdata$_errno              000000018003629c     libucrt:errno.obj
 0004:000012a8       $pdata$__doserrno          00000001800362a8     libucrt:errno.obj
 0004:000012b4       $pdata$__acrt_errno_map_os_error 00000001800362b4     libucrt:errno.obj
 0004:000012c0       $pdata$_recalloc_base      00000001800362c0     libucrt:recalloc.obj
 0004:000012cc       $pdata$_resetstkoflw       00000001800362cc     libucrt:resetstk.obj
 0004:000012d8       $pdata$wcscat_s            00000001800362d8     libucrt:wcscat_s.obj
 0004:000012e4       $pdata$wcscpy_s            00000001800362e4     libucrt:wcscpy_s.obj
 0004:000012f0       $pdata$wcsncpy_s           00000001800362f0     libucrt:wcsncpy_s.obj
 0004:000012fc       $pdata$??0_LocaleUpdate@@QEAA@QEAU__crt_locale_pointers@@@Z 00000001800362fc     libucrt:output.obj
 0004:00001308       $pdata$__stdio_common_vswprintf_s 0000000180036308     libucrt:output.obj
 0004:00001314       $pdata$?write_string@?$string_output_adapter@_W@__crt_stdio_output@@QEBAXQEB_WHQEAHAEAV__crt_deferred_errno_cache@@@Z 0000000180036314     libucrt:output.obj
 0004:00001320       $pdata$??$common_vsprintf@Vformat_validation_base@__crt_stdio_output@@_W@@YAH_KQEA_W0QEB_WQEAU__crt_locale_pointers@@QEAD@Z 0000000180036320     libucrt:output.obj
 0004:0000132c       $pdata$??$write_multiple_characters@V?$string_output_adapter@_W@__crt_stdio_output@@D@__crt_stdio_output@@YAXAEBV?$string_output_adapter@_W@0@DHQEAH@Z 000000018003632c     libucrt:output.obj
 0004:00001338       $pdata$??$ensure_buffer_is_big_enough@D@formatting_buffer@__crt_stdio_output@@QEAA_N_K@Z 0000000180036338     libucrt:output.obj
 0004:00001344       $pdata$??$ensure_buffer_is_big_enough@_W@formatting_buffer@__crt_stdio_output@@QEAA_N_K@Z 0000000180036344     libucrt:output.obj
 0004:00001350       $pdata$?process@?$output_processor@_WV?$string_output_adapter@_W@__crt_stdio_output@@V?$format_validation_base@_WV?$string_output_adapter@_W@__crt_stdio_output@@@2@@__crt_stdio_output@@QEAAHXZ 0000000180036350     libucrt:output.obj
 0004:0000135c       $pdata$?parse_int_from_format_string@?$output_processor@_WV?$string_output_adapter@_W@__crt_stdio_output@@V?$format_validation_base@_WV?$string_output_adapter@_W@__crt_stdio_output@@@2@@__crt_stdio_output@@AEAA_NQEAH@Z 000000018003635c     libucrt:output.obj
 0004:00001368       $pdata$?state_case_size@?$output_processor@_WV?$string_output_adapter@_W@__crt_stdio_output@@V?$format_validation_base@_WV?$string_output_adapter@_W@__crt_stdio_output@@@2@@__crt_stdio_output@@AEAA_NXZ 0000000180036368     libucrt:output.obj
 0004:00001374       $pdata$?state_case_type@?$output_processor@_WV?$string_output_adapter@_W@__crt_stdio_output@@V?$format_validation_base@_WV?$string_output_adapter@_W@__crt_stdio_output@@@2@@__crt_stdio_output@@AEAA_NXZ 0000000180036374     libucrt:output.obj
 0004:00001380       $pdata$?type_case_c_tchar@?$output_processor@_WV?$string_output_adapter@_W@__crt_stdio_output@@V?$format_validation_base@_WV?$string_output_adapter@_W@__crt_stdio_output@@@2@@__crt_stdio_output@@AEAA_N_W@Z 0000000180036380     libucrt:output.obj
 0004:0000138c       $pdata$?type_case_Z@?$output_processor@_WV?$string_output_adapter@_W@__crt_stdio_output@@V?$format_validation_base@_WV?$string_output_adapter@_W@__crt_stdio_output@@@2@@__crt_stdio_output@@AEAA_NXZ 000000018003638c     libucrt:output.obj
 0004:00001398       $pdata$?type_case_s@?$output_processor@_WV?$string_output_adapter@_W@__crt_stdio_output@@V?$format_validation_base@_WV?$string_output_adapter@_W@__crt_stdio_output@@@2@@__crt_stdio_output@@AEAA_NXZ 0000000180036398     libucrt:output.obj
 0004:000013a4       $pdata$?type_case_a@?$output_processor@_WV?$string_output_adapter@_W@__crt_stdio_output@@V?$format_validation_base@_WV?$string_output_adapter@_W@__crt_stdio_output@@@2@@__crt_stdio_output@@AEAA_NXZ 00000001800363a4     libucrt:output.obj
 0004:000013b0       $pdata$?type_case_integer@?$output_processor@_WV?$string_output_adapter@_W@__crt_stdio_output@@V?$format_validation_base@_WV?$string_output_adapter@_W@__crt_stdio_output@@@2@@__crt_stdio_output@@AEAA_NI_N@Z 00000001800363b0     libucrt:output.obj
 0004:000013bc       $pdata$?type_case_n@?$output_processor@_WV?$string_output_adapter@_W@__crt_stdio_output@@V?$format_validation_base@_WV?$string_output_adapter@_W@__crt_stdio_output@@@2@@__crt_stdio_output@@AEAA_NXZ 00000001800363bc     libucrt:output.obj
 0004:000013c8       $pdata$?write_stored_string_tchar@?$output_processor@_WV?$string_output_adapter@_W@__crt_stdio_output@@V?$format_validation_base@_WV?$string_output_adapter@_W@__crt_stdio_output@@@2@@__crt_stdio_output@@AEAA_N_W@Z 00000001800363c8     libucrt:output.obj
 0004:000013d4       $pdata$??$type_case_integer_parse_into_buffer@_K@?$output_processor@_WV?$string_output_adapter@_W@__crt_stdio_output@@V?$format_validation_base@_WV?$string_output_adapter@_W@__crt_stdio_output@@@2@@__crt_stdio_output@@AEAAX_KI_N@Z 00000001800363d4     libucrt:output.obj
 0004:000013e0       $pdata$??$type_case_integer_parse_into_buffer@I@?$output_processor@_WV?$string_output_adapter@_W@__crt_stdio_output@@V?$format_validation_base@_WV?$string_output_adapter@_W@__crt_stdio_output@@@2@@__crt_stdio_output@@AEAAXII_N@Z 00000001800363e0     libucrt:output.obj
 0004:000013ec       $pdata$_seh_filter_exe     00000001800363ec     libucrt:exception_filter.obj
 0004:000013f8       $pdata$?try_cor_exit_process@@YAXI@Z 00000001800363f8     libucrt:exit.obj
 0004:00001404       $pdata$?exit_or_terminate_process@@YAXI@Z 0000000180036404     libucrt:exit.obj
 0004:00001410       $pdata$?common_exit@@YAXHW4_crt_exit_cleanup_mode@@W4_crt_exit_return_mode@@@Z 0000000180036410     libucrt:exit.obj
 0004:0000141c       $pdata$??R<lambda_6e4b09c48022b2350581041d5f6b0c4c>@@QEBA@XZ 000000018003641c     libucrt:exit.obj
 0004:00001428       $pdata$?filt$0@?0???R<lambda_6e4b09c48022b2350581041d5f6b0c4c>@@QEBA@XZ@4HA 0000000180036428     libucrt:exit.obj
 0004:00001434       $pdata$??$?RV<lambda_d80eeec6fff315bfe5c115232f3240e3>@@AEAV<lambda_6e4b09c48022b2350581041d5f6b0c4c>@@V<lambda_2358e3775559c9db80273638284d5e45>@@@?$__crt_seh_guarded_call@X@@QEAAX$$QEAV<lambda_d80eeec6fff315bfe5c115232f3240e3>@@AEAV<lambda_6e4b09c48022b2350581041d5f6b0c4c>@@$$QEAV<lambda_2358e3775559c9db80273638284d5e45>@@@Z 0000000180036434     libucrt:exit.obj
 0004:00001440       $pdata$?fin$0@?0???$?RV<lambda_0ae27a3a962d80f24befdcbee591983d>@@AEAV<lambda_8d0ee55de4b1038c4002e0adecdf1839>@@V<lambda_dc504788e8f1664fe9b84e20bfb512f2>@@@?$__crt_seh_guarded_call@X@@QEAAX$$QEAV<lambda_0ae27a3a962d80f24befdcbee591983d>@@AEAV<lambda_8d0ee55de4b1038c4002e0adecdf1839>@@$$QEAV<lambda_dc504788e8f1664fe9b84e20bfb512f2>@@@Z@4HA 0000000180036440     libucrt:per_thread_data.obj
 0004:00001440       $pdata$?fin$0@?0???$?RV<lambda_2d41944a1d46af3157314b8a01080d33>@@AEAV<lambda_8f455de75cd7d7f24b4096f044d8b9e6>@@V<lambda_aa500f224e6afead328df44964fe2772>@@@?$__crt_seh_guarded_call@X@@QEAAX$$QEAV<lambda_2d41944a1d46af3157314b8a01080d33>@@AEAV<lambda_8f455de75cd7d7f24b4096f044d8b9e6>@@$$QEAV<lambda_aa500f224e6afead328df44964fe2772>@@@Z@4HA 0000000180036440     libucrt:per_thread_data.obj
 0004:00001440       $pdata$?fin$0@?0???$?RV<lambda_aa87e3671a710a21b5dc78c0bdf72e11>@@AEAV<lambda_92619d2358a28f41a33ba319515a20b9>@@V<lambda_6992ecaafeb10aed2b74cb1fae11a551>@@@?$__crt_seh_guarded_call@X@@QEAAX$$QEAV<lambda_aa87e3671a710a21b5dc78c0bdf72e11>@@AEAV<lambda_92619d2358a28f41a33ba319515a20b9>@@$$QEAV<lambda_6992ecaafeb10aed2b74cb1fae11a551>@@@Z@4HA 0000000180036440     libucrt:per_thread_data.obj
 0004:00001440       $pdata$?fin$0@?0???$?RV<lambda_f2e299630e499de9f9a165e60fcd3db5>@@AEAV<lambda_2ae9d31cdba2644fcbeaf08da7c24588>@@V<lambda_40d01ff24d0e7b3814fdbdcee8eab3c7>@@@?$__crt_seh_guarded_call@X@@QEAAX$$QEAV<lambda_f2e299630e499de9f9a165e60fcd3db5>@@AEAV<lambda_2ae9d31cdba2644fcbeaf08da7c24588>@@$$QEAV<lambda_40d01ff24d0e7b3814fdbdcee8eab3c7>@@@Z@4HA 0000000180036440     libucrt:per_thread_data.obj
 0004:00001440       $pdata$?fin$0@?0???$?RV<lambda_efdfa57d1f175319df784efa44bb7b81>@@AEAV<lambda_5f0a4c1567f8adc6734073e5d1e1b35c>@@V<lambda_2e8a7d3640ea6ccb4c2413664c2db6fd>@@@?$__crt_seh_guarded_call@X@@QEAAX$$QEAV<lambda_efdfa57d1f175319df784efa44bb7b81>@@AEAV<lambda_5f0a4c1567f8adc6734073e5d1e1b35c>@@$$QEAV<lambda_2e8a7d3640ea6ccb4c2413664c2db6fd>@@@Z@4HA 0000000180036440     libucrt:mbctype.obj
 0004:00001440       $pdata$?fin$0@?0???$?RV<lambda_450d765d439847d4c735a33c368b5fc0>@@AEAV<lambda_44731a7d0e6d81c3e6aa82d741081786>@@V<lambda_601a2a7da3b7a96e9554ac7215c4b07c>@@@?$__crt_seh_guarded_call@P6AXH@Z@@QEAAP6AXH@Z$$QEAV<lambda_450d765d439847d4c735a33c368b5fc0>@@AEAV<lambda_44731a7d0e6d81c3e6aa82d741081786>@@$$QEAV<lambda_601a2a7da3b7a96e9554ac7215c4b07c>@@@Z@4HA 0000000180036440     libucrt:signal.obj
 0004:00001440       $pdata$?fin$0@?0???$?RV<lambda_d80eeec6fff315bfe5c115232f3240e3>@@AEAV<lambda_6e4b09c48022b2350581041d5f6b0c4c>@@V<lambda_2358e3775559c9db80273638284d5e45>@@@?$__crt_seh_guarded_call@X@@QEAAX$$QEAV<lambda_d80eeec6fff315bfe5c115232f3240e3>@@AEAV<lambda_6e4b09c48022b2350581041d5f6b0c4c>@@$$QEAV<lambda_2358e3775559c9db80273638284d5e45>@@@Z@4HA 0000000180036440     libucrt:exit.obj
 0004:00001440       $pdata$?fin$0@?0???$?RV<lambda_638799b9deba96c50f710eeac98168cd>@@AEAV<lambda_22ebabd17bc4fa466a2aca6d8deb888d>@@V<lambda_a6f7d7db0129f75315ebf26d50c089f1>@@@?$__crt_seh_guarded_call@H@@QEAAH$$QEAV<lambda_638799b9deba96c50f710eeac98168cd>@@AEAV<lambda_22ebabd17bc4fa466a2aca6d8deb888d>@@$$QEAV<lambda_a6f7d7db0129f75315ebf26d50c089f1>@@@Z@4HA 0000000180036440     libucrt:onexit.obj
 0004:00001440       $pdata$?fin$0@?0???$?RV<lambda_7777bce6b2f8c936911f934f8298dc43>@@AEAV<lambda_f03950bc5685219e0bcd2087efbe011e>@@V<lambda_3883c3dff614d5e0c5f61bb1ac94921c>@@@?$__crt_seh_guarded_call@H@@QEAAH$$QEAV<lambda_7777bce6b2f8c936911f934f8298dc43>@@AEAV<lambda_f03950bc5685219e0bcd2087efbe011e>@@$$QEAV<lambda_3883c3dff614d5e0c5f61bb1ac94921c>@@@Z@4HA 0000000180036440     libucrt:onexit.obj
 0004:0000144c       $pdata$_configure_narrow_argv 000000018003644c     libucrt:argv_parsing.obj
 0004:00001458       $pdata$__acrt_allocate_buffer_for_argv 0000000180036458     libucrt:argv_parsing.obj
 0004:00001464       $pdata$??$parse_command_line@D@@YAXPEADPEAPEAD0PEA_K2@Z 0000000180036464     libucrt:argv_parsing.obj
 0004:00001470       $pdata$__dcrt_uninitialize_environments_nolock 0000000180036470     libucrt:environment_initialization.obj
 0004:0000147c       $pdata$??$common_initialize_environment_nolock@D@@YAHXZ 000000018003647c     libucrt:environment_initialization.obj
 0004:00001488       $pdata$??$uninitialize_environment_internal@D@@YAXAEAPEAPEAD@Z 0000000180036488     libucrt:environment_initialization.obj
 0004:00001494       $pdata$??$uninitialize_environment_internal@_W@@YAXAEAPEAPEA_W@Z 0000000180036494     libucrt:environment_initialization.obj
 0004:000014a0       $pdata$??$free_environment@D@@YAXQEAPEAD@Z 00000001800364a0     libucrt:environment_initialization.obj
 0004:000014a0       $pdata$??$free_environment@_W@@YAXQEAPEA_W@Z 00000001800364a0     libucrt:environment_initialization.obj
 0004:000014ac       $pdata$??$create_environment@D@@YAQEAPEADQEAD@Z 00000001800364ac     libucrt:environment_initialization.obj
 0004:000014b8       $pdata$_register_onexit_function 00000001800364b8     libucrt:onexit.obj
 0004:000014c4       $pdata$_execute_onexit_table 00000001800364c4     libucrt:onexit.obj
 0004:000014d0       $pdata$??R<lambda_22ebabd17bc4fa466a2aca6d8deb888d>@@QEBAHXZ 00000001800364d0     libucrt:onexit.obj
 0004:000014dc       $pdata$??R<lambda_f03950bc5685219e0bcd2087efbe011e>@@QEBAHXZ 00000001800364dc     libucrt:onexit.obj
 0004:000014e8       $pdata$??$?RV<lambda_638799b9deba96c50f710eeac98168cd>@@AEAV<lambda_22ebabd17bc4fa466a2aca6d8deb888d>@@V<lambda_a6f7d7db0129f75315ebf26d50c089f1>@@@?$__crt_seh_guarded_call@H@@QEAAH$$QEAV<lambda_638799b9deba96c50f710eeac98168cd>@@AEAV<lambda_22ebabd17bc4fa466a2aca6d8deb888d>@@$$QEAV<lambda_a6f7d7db0129f75315ebf26d50c089f1>@@@Z 00000001800364e8     libucrt:onexit.obj
 0004:000014f4       $pdata$??$?RV<lambda_7777bce6b2f8c936911f934f8298dc43>@@AEAV<lambda_f03950bc5685219e0bcd2087efbe011e>@@V<lambda_3883c3dff614d5e0c5f61bb1ac94921c>@@@?$__crt_seh_guarded_call@H@@QEAAH$$QEAV<lambda_7777bce6b2f8c936911f934f8298dc43>@@AEAV<lambda_f03950bc5685219e0bcd2087efbe011e>@@$$QEAV<lambda_3883c3dff614d5e0c5f61bb1ac94921c>@@@Z 00000001800364f4     libucrt:onexit.obj
 0004:00001500       $pdata$__acrt_uninitialize 0000000180036500     libucrt:initialization.obj
 0004:0000150c       $pdata$__acrt_uninitialize_critical 000000018003650c     libucrt:initialization.obj
 0004:00001518       $pdata$__acrt_thread_attach 0000000180036518     libucrt:initialization.obj
 0004:00001524       $pdata$__acrt_thread_detach 0000000180036524     libucrt:initialization.obj
 0004:00001530       $pdata$initialize_c        0000000180036530     libucrt:initialization.obj
 0004:0000153c       $pdata$uninitialize_environment 000000018003653c     libucrt:initialization.obj
 0004:00001548       $pdata$initialize_pointers 0000000180036548     libucrt:initialization.obj
 0004:00001554       $pdata$uninitialize_allocated_memory 0000000180036554     libucrt:initialization.obj
 0004:00001560       $pdata$uninitialize_allocated_io_buffers 0000000180036560     libucrt:initialization.obj
 0004:0000156c       $pdata$_initterm           000000018003656c     libucrt:initterm.obj
 0004:00001578       $pdata$_initterm_e         0000000180036578     libucrt:initterm.obj
 0004:00001584       $pdata$_callnewh           0000000180036584     libucrt:new_handler.obj
 0004:00001590       $pdata$_query_new_handler  0000000180036590     libucrt:new_handler.obj
 0004:0000159c       $pdata$_query_new_handler$fin$0 000000018003659c     libucrt:new_handler.obj
 0004:000015a8       $pdata$terminate           00000001800365a8     libucrt:terminate.obj
 0004:000015b4       $pdata$abort               00000001800365b4     libucrt:abort.obj
 0004:000015c0       $pdata$strcpy_s            00000001800365c0     libucrt:strcpy_s.obj
 0004:000015cc       $pdata$??$parse_integer@KV?$c_string_character_source@_W@__crt_strtox@@@__crt_strtox@@YAKQEAU__crt_locale_pointers@@V?$c_string_character_source@_W@0@H_N@Z 00000001800365cc     libucrt:atox.obj
 0004:000015e4       $pdata$_free_base          00000001800365e4     libucrt:free_base.obj
 0004:000015f0       $pdata$__acrt_initialize_ptd 00000001800365f0     libucrt:per_thread_data.obj
 0004:000015fc       $pdata$__acrt_uninitialize_ptd 00000001800365fc     libucrt:per_thread_data.obj
 0004:00001608       $pdata$__acrt_getptd       0000000180036608     libucrt:per_thread_data.obj
 0004:00001614       $pdata$__acrt_getptd_head  0000000180036614     libucrt:per_thread_data.obj
 0004:00001620       $pdata$__acrt_getptd_noexit 0000000180036620     libucrt:per_thread_data.obj
 0004:0000162c       $pdata$__acrt_freeptd      000000018003662c     libucrt:per_thread_data.obj
 0004:00001638       $pdata$?destroy_fls@@YAXPEAX@Z 0000000180036638     libucrt:per_thread_data.obj
 0004:00001644       $pdata$?replace_current_thread_locale_nolock@@YAXQEAU__acrt_ptd@@QEAU__crt_locale_data@@@Z 0000000180036644     libucrt:per_thread_data.obj
 0004:00001650       $pdata$?construct_ptd_array@@YAXQEAU__acrt_ptd@@@Z 0000000180036650     libucrt:per_thread_data.obj
 0004:0000165c       $pdata$?destroy_ptd_array@@YAXQEAU__acrt_ptd@@@Z 000000018003665c     libucrt:per_thread_data.obj
 0004:00001668       $pdata$??$?RV<lambda_0ae27a3a962d80f24befdcbee591983d>@@AEAV<lambda_8d0ee55de4b1038c4002e0adecdf1839>@@V<lambda_dc504788e8f1664fe9b84e20bfb512f2>@@@?$__crt_seh_guarded_call@X@@QEAAX$$QEAV<lambda_0ae27a3a962d80f24befdcbee591983d>@@AEAV<lambda_8d0ee55de4b1038c4002e0adecdf1839>@@$$QEAV<lambda_dc504788e8f1664fe9b84e20bfb512f2>@@@Z 0000000180036668     libucrt:per_thread_data.obj
 0004:00001674       $pdata$??$?RV<lambda_aa87e3671a710a21b5dc78c0bdf72e11>@@AEAV<lambda_92619d2358a28f41a33ba319515a20b9>@@V<lambda_6992ecaafeb10aed2b74cb1fae11a551>@@@?$__crt_seh_guarded_call@X@@QEAAX$$QEAV<lambda_aa87e3671a710a21b5dc78c0bdf72e11>@@AEAV<lambda_92619d2358a28f41a33ba319515a20b9>@@$$QEAV<lambda_6992ecaafeb10aed2b74cb1fae11a551>@@@Z 0000000180036674     libucrt:per_thread_data.obj
 0004:00001680       $pdata$??$?RV<lambda_f2e299630e499de9f9a165e60fcd3db5>@@AEAV<lambda_2ae9d31cdba2644fcbeaf08da7c24588>@@V<lambda_40d01ff24d0e7b3814fdbdcee8eab3c7>@@@?$__crt_seh_guarded_call@X@@QEAAX$$QEAV<lambda_f2e299630e499de9f9a165e60fcd3db5>@@AEAV<lambda_2ae9d31cdba2644fcbeaf08da7c24588>@@$$QEAV<lambda_40d01ff24d0e7b3814fdbdcee8eab3c7>@@@Z 0000000180036680     libucrt:per_thread_data.obj
 0004:0000168c       $pdata$??$?RV<lambda_2d41944a1d46af3157314b8a01080d33>@@AEAV<lambda_8f455de75cd7d7f24b4096f044d8b9e6>@@V<lambda_aa500f224e6afead328df44964fe2772>@@@?$__crt_seh_guarded_call@X@@QEAAX$$QEAV<lambda_2d41944a1d46af3157314b8a01080d33>@@AEAV<lambda_8f455de75cd7d7f24b4096f044d8b9e6>@@$$QEAV<lambda_aa500f224e6afead328df44964fe2772>@@@Z 000000018003668c     libucrt:per_thread_data.obj
 0004:00001698       $pdata$_calloc_base        0000000180036698     libucrt:calloc_base.obj
 0004:000016a4       $pdata$_malloc_base        00000001800366a4     libucrt:malloc_base.obj
 0004:000016b0       $pdata$_msize_base         00000001800366b0     libucrt:msize.obj
 0004:000016bc       $pdata$_realloc_base       00000001800366bc     libucrt:realloc_base.obj
 0004:000016c8       $pdata$__acrt_initialize_winapi_thunks 00000001800366c8     libucrt:winapi_thunks.obj
 0004:000016d4       $pdata$__acrt_uninitialize_winapi_thunks 00000001800366d4     libucrt:winapi_thunks.obj
 0004:000016e0       $pdata$__acrt_AreFileApisANSI 00000001800366e0     libucrt:winapi_thunks.obj
 0004:000016ec       $pdata$__acrt_FlsAlloc     00000001800366ec     libucrt:winapi_thunks.obj
 0004:000016f8       $pdata$__acrt_FlsFree      00000001800366f8     libucrt:winapi_thunks.obj
 0004:00001704       $pdata$__acrt_FlsGetValue  0000000180036704     libucrt:winapi_thunks.obj
 0004:00001710       $pdata$__acrt_FlsSetValue  0000000180036710     libucrt:winapi_thunks.obj
 0004:0000171c       $pdata$__acrt_InitializeCriticalSectionEx 000000018003671c     libucrt:winapi_thunks.obj
 0004:00001728       $pdata$__acrt_LCMapStringEx 0000000180036728     libucrt:winapi_thunks.obj
 0004:00001734       $pdata$__acrt_LocaleNameToLCID 0000000180036734     libucrt:winapi_thunks.obj
 0004:00001740       $pdata$__acrt_AppPolicyGetProcessTerminationMethodInternal 0000000180036740     libucrt:winapi_thunks.obj
 0004:0000174c       $pdata$__acrt_SetThreadStackGuarantee 000000018003674c     libucrt:winapi_thunks.obj
 0004:00001758       $pdata$?try_get_function@@YAPEAXW4function_id@?A0x391cf84c@@QEBDQEBW4module_id@2@2@Z 0000000180036758     libucrt:winapi_thunks.obj
 0004:00001764       $pdata$wcstol              0000000180036764     libucrt:strtox.obj
 0004:00001770       $pdata$_mbtowc_l           0000000180036770     libucrt:mbtowc.obj
 0004:0000177c       $pdata$__acrt_update_locale_info 000000018003677c     libucrt:locale_update.obj
 0004:00001788       $pdata$__acrt_update_multibyte_info 0000000180036788     libucrt:locale_update.obj
 0004:00001794       $pdata$__acrt_fp_format    0000000180036794     libucrt:cvt.obj
 0004:000017a0       $pdata$?fp_format_e_internal@@YAHQEAD_KH_NIQEAU_strflt@@2QEAU__crt_locale_pointers@@@Z 00000001800367a0     libucrt:cvt.obj
 0004:000017ac       $pdata$?fp_format_e@@YAHQEBNQEAD_K12H_NIQEAU__crt_locale_pointers@@W4__acrt_rounding_mode@@@Z 00000001800367ac     libucrt:cvt.obj
 0004:000017b8       $pdata$?should_round_up@@YA_NQEBN_KFW4__acrt_rounding_mode@@@Z 00000001800367b8     libucrt:cvt.obj
 0004:000017c4       $pdata$?fp_format_a@@YAHQEBNPEAD_KQEAD2H_NIQEAU__crt_locale_pointers@@W4__acrt_rounding_mode@@@Z 00000001800367c4     libucrt:cvt.obj
 0004:000017d0       $pdata$?fp_format_f_internal@@YAHQEAD_KHQEAU_strflt@@_NQEAU__crt_locale_pointers@@@Z 00000001800367d0     libucrt:cvt.obj
 0004:000017dc       $pdata$?fp_format_g@@YAHQEBNQEAD_K12H_NIQEAU__crt_locale_pointers@@@Z 00000001800367dc     libucrt:cvt.obj
 0004:000017e8       $pdata$_fileno             00000001800367e8     libucrt:fileno.obj
 0004:000017f4       $pdata$__acrt_initialize_stdio 00000001800367f4     libucrt:_file.obj
 0004:00001800       $pdata$__acrt_uninitialize_stdio 0000000180036800     libucrt:_file.obj
 0004:0000180c       $pdata$__acrt_uninitialize_locale 000000018003680c     libucrt:wsetlocale.obj
 0004:00001818       $pdata$??$?RV<lambda_410d79af7f07d98d83a3f525b3859a53>@@AEAV<lambda_3e16ef9562a7dcce91392c22ab16ea36>@@V<lambda_38119f0e861e05405d8a144b9b982f0a>@@@?$__crt_seh_guarded_call@X@@QEAAX$$QEAV<lambda_410d79af7f07d98d83a3f525b3859a53>@@AEAV<lambda_3e16ef9562a7dcce91392c22ab16ea36>@@$$QEAV<lambda_38119f0e861e05405d8a144b9b982f0a>@@@Z 0000000180036818     libucrt:wsetlocale.obj
 0004:00001824       $pdata$?fin$0@?0???$?RV<lambda_410d79af7f07d98d83a3f525b3859a53>@@AEAV<lambda_3e16ef9562a7dcce91392c22ab16ea36>@@V<lambda_38119f0e861e05405d8a144b9b982f0a>@@@?$__crt_seh_guarded_call@X@@QEAAX$$QEAV<lambda_410d79af7f07d98d83a3f525b3859a53>@@AEAV<lambda_3e16ef9562a7dcce91392c22ab16ea36>@@$$QEAV<lambda_38119f0e861e05405d8a144b9b982f0a>@@@Z@4HA 0000000180036824     libucrt:wsetlocale.obj
 0004:00001830       $pdata$__acrt_initialize_lowio 0000000180036830     libucrt:ioinit.obj
 0004:0000183c       $pdata$__acrt_initialize_lowio$fin$0 000000018003683c     libucrt:ioinit.obj
 0004:0000183c       $pdata$__acrt_lowio_ensure_fh_exists$fin$0 000000018003683c     libucrt:osfinfo.obj
 0004:00001848       $pdata$__acrt_uninitialize_lowio 0000000180036848     libucrt:ioinit.obj
 0004:00001854       $pdata$?initialize_inherited_file_handles_nolock@@YAXXZ 0000000180036854     libucrt:ioinit.obj
 0004:00001860       $pdata$?initialize_stdio_handles_nolock@@YAXXZ 0000000180036860     libucrt:ioinit.obj
 0004:0000186c       $pdata$__acrt_initialize_locks 000000018003686c     libucrt:locks.obj
 0004:00001878       $pdata$__acrt_uninitialize_locks 0000000180036878     libucrt:locks.obj
 0004:00001884       $pdata$__acrt_get_process_end_policy 0000000180036884     libucrt:win_policies.obj
 0004:00001890       $pdata$??$__acrt_mbs_to_wcs_cp@U__crt_win32_buffer_internal_dynamic_resizing@@@@YAHQEBDAEAV?$__crt_win32_buffer@_WU__crt_win32_buffer_internal_dynamic_resizing@@@@I@Z 0000000180036890     libucrt:argv_wildcards.obj
 0004:0000189c       $pdata$??$__acrt_wcs_to_mbs_cp@U__crt_win32_buffer_internal_dynamic_resizing@@@@YAHQEB_WAEAV?$__crt_win32_buffer@DU__crt_win32_buffer_internal_dynamic_resizing@@@@I@Z 000000018003689c     libucrt:argv_wildcards.obj
 0004:000018a8       $pdata$??$common_expand_argv_wildcards@D@@YAHQEAPEADQEAPEAPEAD@Z 00000001800368a8     libucrt:argv_wildcards.obj
 0004:000018b4       $pdata$??$copy_and_add_argument_to_buffer@D@@YAHQEBD0_KAEAV?$argument_list@D@?A0x5f5c8891@@@Z 00000001800368b4     libucrt:argv_wildcards.obj
 0004:000018c0       $pdata$??$expand_argument_wildcards@D@@YAHQEAD0AEAV?$argument_list@D@?A0x5f5c8891@@@Z 00000001800368c0     libucrt:argv_wildcards.obj
 0004:000018cc       $pdata$__acrt_GetModuleFileNameA 00000001800368cc     libucrt:getmodulefilenamea.obj
 0004:000018d8       $pdata$??$__acrt_wcs_to_mbs_cp@U__crt_win32_buffer_no_resizing@@@@YAHQEB_WAEAV?$__crt_win32_buffer@DU__crt_win32_buffer_no_resizing@@@@I@Z 00000001800368d8     libucrt:getmodulefilenamea.obj
 0004:000018e4       $pdata$__acrt_update_thread_multibyte_data 00000001800368e4     libucrt:mbctype.obj
 0004:000018f0       $pdata$__acrt_initialize_multibyte 00000001800368f0     libucrt:mbctype.obj
 0004:000018fc       $pdata$_setmbcp_nolock     00000001800368fc     libucrt:mbctype.obj
 0004:00001908       $pdata$?getSystemCP@@YAHH@Z 0000000180036908     libucrt:mbctype.obj
 0004:00001914       $pdata$?setSBCS@@YAXPEAU__crt_multibyte_data@@@Z 0000000180036914     libucrt:mbctype.obj
 0004:00001920       $pdata$?update_thread_multibyte_data_internal@@YAPEAU__crt_multibyte_data@@QEAU__acrt_ptd@@QEAPEAU1@@Z 0000000180036920     libucrt:mbctype.obj
 0004:0000192c       $pdata$?fin$0@?0??update_thread_multibyte_data_internal@@YAPEAU__crt_multibyte_data@@QEAU__acrt_ptd@@QEAPEAU1@@Z@4HA 000000018003692c     libucrt:mbctype.obj
 0004:00001938       $pdata$?setmbcp_internal@@YAHH_NQEAU__acrt_ptd@@QEAPEAU__crt_multibyte_data@@@Z 0000000180036938     libucrt:mbctype.obj
 0004:00001944       $pdata$?setSBUpLow@@YAXPEAU__crt_multibyte_data@@@Z 0000000180036944     libucrt:mbctype.obj
 0004:00001950       $pdata$??$?RV<lambda_efdfa57d1f175319df784efa44bb7b81>@@AEAV<lambda_5f0a4c1567f8adc6734073e5d1e1b35c>@@V<lambda_2e8a7d3640ea6ccb4c2413664c2db6fd>@@@?$__crt_seh_guarded_call@X@@QEAAX$$QEAV<lambda_efdfa57d1f175319df784efa44bb7b81>@@AEAV<lambda_5f0a4c1567f8adc6734073e5d1e1b35c>@@$$QEAV<lambda_2e8a7d3640ea6ccb4c2413664c2db6fd>@@@Z 0000000180036950     libucrt:mbctype.obj
 0004:0000195c       $pdata$?x_ismbbtype_l@@YAHPEAU__crt_locale_pointers@@IHH@Z 000000018003695c     libucrt:ismbbyte.obj
 0004:00001968       $pdata$__acrt_initialize_command_line 0000000180036968     libucrt:argv_data.obj
 0004:00001974       $pdata$__acrt_WideCharToMultiByte 0000000180036974     libucrt:widechartomultibyte.obj
 0004:00001980       $pdata$__dcrt_get_narrow_environment_from_os 0000000180036980     libucrt:get_environment_from_os.obj
 0004:0000198c       $pdata$__acrt_initialize_heap 000000018003698c     libucrt:heap_handle.obj
 0004:00001998       $pdata$__acrt_execute_initializers 0000000180036998     libucrt:shared_initialization.obj
 0004:000019a4       $pdata$__acrt_execute_uninitializers 00000001800369a4     libucrt:shared_initialization.obj
 0004:000019b0       $pdata$__acrt_get_sigabrt_handler 00000001800369b0     libucrt:signal.obj
 0004:000019bc       $pdata$raise               00000001800369bc     libucrt:signal.obj
 0004:000019c8       $pdata$raise$fin$0         00000001800369c8     libucrt:signal.obj
 0004:000019d4       $pdata$??$?RV<lambda_450d765d439847d4c735a33c368b5fc0>@@AEAV<lambda_44731a7d0e6d81c3e6aa82d741081786>@@V<lambda_601a2a7da3b7a96e9554ac7215c4b07c>@@@?$__crt_seh_guarded_call@P6AXH@Z@@QEAAP6AXH@Z$$QEAV<lambda_450d765d439847d4c735a33c368b5fc0>@@AEAV<lambda_44731a7d0e6d81c3e6aa82d741081786>@@$$QEAV<lambda_601a2a7da3b7a96e9554ac7215c4b07c>@@@Z 00000001800369d4     libucrt:signal.obj
 0004:000019e0       $pdata$_fflush_nolock      00000001800369e0     libucrt:fflush.obj
 0004:000019ec       $pdata$__acrt_stdio_flush_nolock 00000001800369ec     libucrt:fflush.obj
 0004:000019f8       $pdata$?common_flush_all@@YAH_N@Z 00000001800369f8     libucrt:fflush.obj
 0004:00001a04       $pdata$??$?RV<lambda_842d9ff0dc9ef11c61343bbaebe7f885>@@AEAV<lambda_c5860995281e5c4ce005b3de8f5874ee>@@V<lambda_d90129c13df834fdcbf8d2b88dafcf2d>@@@?$__crt_seh_guarded_call@X@@QEAAX$$QEAV<lambda_842d9ff0dc9ef11c61343bbaebe7f885>@@AEAV<lambda_c5860995281e5c4ce005b3de8f5874ee>@@$$QEAV<lambda_d90129c13df834fdcbf8d2b88dafcf2d>@@@Z 0000000180036a04     libucrt:fflush.obj
 0004:00001a10       $pdata$?fin$0@?0???$?RV<lambda_842d9ff0dc9ef11c61343bbaebe7f885>@@AEAV<lambda_c5860995281e5c4ce005b3de8f5874ee>@@V<lambda_d90129c13df834fdcbf8d2b88dafcf2d>@@@?$__crt_seh_guarded_call@X@@QEAAX$$QEAV<lambda_842d9ff0dc9ef11c61343bbaebe7f885>@@AEAV<lambda_c5860995281e5c4ce005b3de8f5874ee>@@$$QEAV<lambda_d90129c13df834fdcbf8d2b88dafcf2d>@@@Z@4HA 0000000180036a10     libucrt:fflush.obj
 0004:00001a1c       $pdata$??$?RV<lambda_886d6c58226a84441f68b9f2b8217b83>@@AEAV<lambda_ab61a845afdef5b7c387490eaf3616ee>@@V<lambda_f7f22ab5edc0698d5f6905b0d3f44752>@@@?$__crt_seh_guarded_call@X@@QEAAX$$QEAV<lambda_886d6c58226a84441f68b9f2b8217b83>@@AEAV<lambda_ab61a845afdef5b7c387490eaf3616ee>@@$$QEAV<lambda_f7f22ab5edc0698d5f6905b0d3f44752>@@@Z 0000000180036a1c     libucrt:fflush.obj
 0004:00001a28       $pdata$?fin$0@?0???$?RV<lambda_886d6c58226a84441f68b9f2b8217b83>@@AEAV<lambda_ab61a845afdef5b7c387490eaf3616ee>@@V<lambda_f7f22ab5edc0698d5f6905b0d3f44752>@@@?$__crt_seh_guarded_call@X@@QEAAX$$QEAV<lambda_886d6c58226a84441f68b9f2b8217b83>@@AEAV<lambda_ab61a845afdef5b7c387490eaf3616ee>@@$$QEAV<lambda_f7f22ab5edc0698d5f6905b0d3f44752>@@@Z@4HA 0000000180036a28     libucrt:fflush.obj
 0004:00001a34       $pdata$__pctype_func       0000000180036a34     libucrt:ctype.obj
 0004:00001a40       $pdata$iswctype            0000000180036a40     libucrt:iswctype.obj
 0004:00001a4c       $pdata$__acrt_release_locale_ref 0000000180036a4c     libucrt:locale_refcounting.obj
 0004:00001a58       $pdata$__acrt_free_locale  0000000180036a58     libucrt:locale_refcounting.obj
 0004:00001a64       $pdata$__acrt_locale_free_lc_time_if_unreferenced 0000000180036a64     libucrt:locale_refcounting.obj
 0004:00001a70       $pdata$__acrt_update_thread_locale_data 0000000180036a70     libucrt:locale_refcounting.obj
 0004:00001a7c       $pdata$__acrt_update_thread_locale_data$fin$0 0000000180036a7c     libucrt:locale_refcounting.obj
 0004:00001a88       $pdata$_updatetlocinfoEx_nolock 0000000180036a88     libucrt:locale_refcounting.obj
 0004:00001a94       $pdata$__acrt_DownlevelLocaleNameToLCID 0000000180036a94     libucrt:lcidtoname_downlevel.obj
 0004:00001aa0       $pdata$_isleadbyte_l       0000000180036aa0     libucrt:_wctype.obj
 0004:00001aac       $pdata$?__mbrtowc_utf8@__crt_mbstring@@YA_KPEA_WPEBD_KPEAU_Mbstatet@@@Z 0000000180036aac     libucrt:mbrtowc.obj
 0004:00001ab8       $pdata$?__mbsrtowcs_utf8@__crt_mbstring@@YA_KPEA_WPEAPEBD_KPEAU_Mbstatet@@@Z 0000000180036ab8     libucrt:mbrtowc.obj
 0004:00001ac4       $pdata$__acrt_fp_strflt_to_string 0000000180036ac4     libucrt:_fptostr.obj
 0004:00001ad0       $pdata$memcpy_s            0000000180036ad0     libucrt:cfout.obj
 0004:00001adc       $pdata$__acrt_fltout       0000000180036adc     libucrt:cfout.obj
 0004:00001ae8       $pdata$?divide@__crt_strtox@@YA_KAEAUbig_integer@1@AEBU21@@Z 0000000180036ae8     libucrt:cfout.obj
 0004:00001af4       $pdata$0$?divide@__crt_strtox@@YA_KAEAUbig_integer@1@AEBU21@@Z 0000000180036af4     libucrt:cfout.obj
 0004:00001b00       $pdata$1$?divide@__crt_strtox@@YA_KAEAUbig_integer@1@AEBU21@@Z 0000000180036b00     libucrt:cfout.obj
 0004:00001b0c       $pdata$fegetround          0000000180036b0c     libucrt:fegetround.obj
 0004:00001b18       $pdata$_fcloseall          0000000180036b18     libucrt:closeall.obj
 0004:00001b24       $pdata$_fcloseall$fin$0    0000000180036b24     libucrt:closeall.obj
 0004:00001b30       $pdata$__acrt_stdio_free_buffer_nolock 0000000180036b30     libucrt:_freebuf.obj
 0004:00001b3c       $pdata$_isatty             0000000180036b3c     libucrt:isatty.obj
 0004:00001b48       $pdata$__acrt_locale_free_monetary 0000000180036b48     libucrt:initmon.obj
 0004:00001b54       $pdata$__acrt_locale_free_numeric 0000000180036b54     libucrt:initnum.obj
 0004:00001b60       $pdata$__acrt_locale_free_time 0000000180036b60     libucrt:inittime.obj
 0004:00001b6c       $pdata$?free_crt_array_internal@@YAXQEAPEBX_K@Z 0000000180036b6c     libucrt:inittime.obj
 0004:00001b78       $pdata$__acrt_GetStringTypeA 0000000180036b78     libucrt:getstringtypea.obj
 0004:00001b84       $pdata$_get_osfhandle      0000000180036b84     libucrt:osfinfo.obj
 0004:00001b90       $pdata$_free_osfhnd        0000000180036b90     libucrt:osfinfo.obj
 0004:00001b9c       $pdata$__acrt_lowio_create_handle_array 0000000180036b9c     libucrt:osfinfo.obj
 0004:00001ba8       $pdata$__acrt_lowio_destroy_handle_array 0000000180036ba8     libucrt:osfinfo.obj
 0004:00001bb4       $pdata$__acrt_lowio_ensure_fh_exists 0000000180036bb4     libucrt:osfinfo.obj
 0004:00001bc0       $pdata$qsort               0000000180036bc0     libucrt:qsort.obj
 0004:00001bcc       $pdata$4$qsort             0000000180036bcc     libucrt:qsort.obj
 0004:00001bd8       $pdata$5$qsort             0000000180036bd8     libucrt:qsort.obj
 0004:00001be4       $pdata$strncpy_s           0000000180036be4     libucrt:strncpy_s.obj
 0004:00001bf0       $pdata$strpbrk             0000000180036bf0     libucrt:strpbrk.obj
 0004:00001bfc       $pdata$fallbackMethod      0000000180036bfc     libucrt:strpbrk.obj
 0004:00001c08       $pdata$_mbsdec_l           0000000180036c08     libucrt:mbsdec.obj
 0004:00001c14       $pdata$__acrt_LCMapStringA 0000000180036c14     libucrt:lcmapstringa.obj
 0004:00001c20       $pdata$?__acrt_LCMapStringA_stat@@YAHPEAU__crt_locale_pointers@@PEB_WKPEBDHPEADHHH@Z 0000000180036c20     libucrt:lcmapstringa.obj
 0004:00001c2c       $pdata$?initialize_multibyte@@YAHXZ 0000000180036c2c     libucrt:multibyte_initializer.obj
 0004:00001c38       $pdata$_commit             0000000180036c38     libucrt:commit.obj
 0004:00001c44       $pdata$??$?RV<lambda_a37b2b86f63e897a80ea819b0eb08c01>@@AEAV<lambda_38ce7e780aa69e748d6df282ebc68efe>@@V<lambda_99fb1378e971ab6e7edea83e3a7a83a2>@@@?$__crt_seh_guarded_call@H@@QEAAH$$QEAV<lambda_a37b2b86f63e897a80ea819b0eb08c01>@@AEAV<lambda_38ce7e780aa69e748d6df282ebc68efe>@@$$QEAV<lambda_99fb1378e971ab6e7edea83e3a7a83a2>@@@Z 0000000180036c44     libucrt:commit.obj
 0004:00001c50       $pdata$?fin$0@?0???$?RV<lambda_751a882b2c74d4b022dec766aa51a29a>@@AEAV<lambda_628dfdc04ba53c8bfc02c9951375f3f5>@@V<lambda_f6c7be5f7998530c34de24c7437d6b54>@@@?$__crt_seh_guarded_call@H@@QEAAH$$QEAV<lambda_751a882b2c74d4b022dec766aa51a29a>@@AEAV<lambda_628dfdc04ba53c8bfc02c9951375f3f5>@@$$QEAV<lambda_f6c7be5f7998530c34de24c7437d6b54>@@@Z@4HA 0000000180036c50     libucrt:close.obj
 0004:00001c50       $pdata$?fin$0@?0???$?RV<lambda_a37b2b86f63e897a80ea819b0eb08c01>@@AEAV<lambda_38ce7e780aa69e748d6df282ebc68efe>@@V<lambda_99fb1378e971ab6e7edea83e3a7a83a2>@@@?$__crt_seh_guarded_call@H@@QEAAH$$QEAV<lambda_a37b2b86f63e897a80ea819b0eb08c01>@@AEAV<lambda_38ce7e780aa69e748d6df282ebc68efe>@@$$QEAV<lambda_99fb1378e971ab6e7edea83e3a7a83a2>@@@Z@4HA 0000000180036c50     libucrt:commit.obj
 0004:00001c5c       $pdata$_write              0000000180036c5c     libucrt:write.obj
 0004:00001c68       $pdata$_write$fin$0        0000000180036c68     libucrt:write.obj
 0004:00001c74       $pdata$_write_nolock       0000000180036c74     libucrt:write.obj
 0004:00001c80       $pdata$?write_double_translated_ansi_nolock@@YA?AUwrite_result@?A0x17268360@@HQEBDI@Z 0000000180036c80     libucrt:write.obj
 0004:00001c8c       $pdata$?write_text_ansi_nolock@@YA?AUwrite_result@?A0x17268360@@HQEBDI@Z 0000000180036c8c     libucrt:write.obj
 0004:00001c98       $pdata$?write_text_utf16le_nolock@@YA?AUwrite_result@?A0x17268360@@HQEBDI@Z 0000000180036c98     libucrt:write.obj
 0004:00001ca4       $pdata$?write_text_utf8_nolock@@YA?AUwrite_result@?A0x17268360@@HQEBDI@Z 0000000180036ca4     libucrt:write.obj
 0004:00001cb0       $pdata$?__mbrtoc32_utf8@__crt_mbstring@@YA_KPEA_UPEBD_KPEAU_Mbstatet@@@Z 0000000180036cb0     libucrt:mbrtoc32.obj
 0004:00001cbc       $pdata$_controlfp_s        0000000180036cbc     libucrt:contrlfp.obj
 0004:00001cc8       $pdata$fegetenv            0000000180036cc8     libucrt:fegetenv.obj
 0004:00001cd4       $pdata$fesetenv            0000000180036cd4     libucrt:fesetenv.obj
 0004:00001ce0       $pdata$feholdexcept        0000000180036ce0     libucrt:feholdexcept.obj
 0004:00001cf8       $pdata$__acrt_fenv_set_control 0000000180036cf8     libucrt:_fenvutils.obj
 0004:00001d04       $pdata$??$common_lseek_nolock@_J@@YA_JH_JH@Z 0000000180036d04     libucrt:lseek.obj
 0004:00001d10       $pdata$fclose              0000000180036d10     libucrt:fclose.obj
 0004:00001d1c       $pdata$fclose$fin$0        0000000180036d1c     libucrt:fclose.obj
 0004:00001d28       $pdata$_fclose_nolock      0000000180036d28     libucrt:fclose.obj
 0004:00001d34       $pdata$_putwch_nolock      0000000180036d34     libucrt:putwch.obj
 0004:00001d40       $pdata$_clearfp            0000000180036d40     libucrt:ieee.obj
 0004:00001d4c       $pdata$common_control87    0000000180036d4c     libucrt:ieee.obj
 0004:00001d58       $pdata$_ctrlfp$filt$0      0000000180036d58     libucrt:fpctrl.obj
 0004:00001d58       $pdata$common_control87$filt$0 0000000180036d58     libucrt:ieee.obj
 0004:00001d64       $pdata$_call_matherr       0000000180036d64     libucrt:libm_error.obj
 0004:00001d70       $pdata$_exception_enabled  0000000180036d70     libucrt:libm_error.obj
 0004:00001d7c       $pdata$_handle_error       0000000180036d7c     libucrt:libm_error.obj
 0004:00001d88       $pdata$__acrt_initialize_fma3 0000000180036d88     libucrt:fma3_available.obj
 0004:00001d94       $pdata$_log_special_common 0000000180036d94     libucrt:log_special.obj
 0004:00001da0       $pdata$_log10_special      0000000180036da0     libucrt:log_special.obj
 0004:00001dac       $pdata$_close              0000000180036dac     libucrt:close.obj
 0004:00001db8       $pdata$_close_nolock       0000000180036db8     libucrt:close.obj
 0004:00001dc4       $pdata$??$?RV<lambda_751a882b2c74d4b022dec766aa51a29a>@@AEAV<lambda_628dfdc04ba53c8bfc02c9951375f3f5>@@V<lambda_f6c7be5f7998530c34de24c7437d6b54>@@@?$__crt_seh_guarded_call@H@@QEAAH$$QEAV<lambda_751a882b2c74d4b022dec766aa51a29a>@@AEAV<lambda_628dfdc04ba53c8bfc02c9951375f3f5>@@$$QEAV<lambda_f6c7be5f7998530c34de24c7437d6b54>@@@Z 0000000180036dc4     libucrt:close.obj
 0004:00001dd0       $pdata$__dcrt_lowio_ensure_console_output_initialized 0000000180036dd0     libucrt:initcon.obj
 0004:00001ddc       $pdata$__dcrt_write_console 0000000180036ddc     libucrt:initcon.obj
 0004:00001de8       $pdata$__dcrt_terminate_console_output 0000000180036de8     libucrt:initcon.obj
 0004:00001e00       $pdata$_set_errno_from_matherr 0000000180036e00     libucrt:fpexcept.obj
 0004:00001e0c       $pdata$_raise_exc          0000000180036e0c     libucrt:fpexcept.obj
 0004:00001e18       $pdata$_raise_exc_ex       0000000180036e18     libucrt:fpexcept.obj
 0004:00001e24       $pdata$_clrfp              0000000180036e24     libucrt:fpctrl.obj
 0004:00001e30       $pdata$_ctrlfp             0000000180036e30     libucrt:fpctrl.obj
 0004:00001e3c       $pdata$_statfp             0000000180036e3c     libucrt:fpctrl.obj
 0004:00001e48       $pdata$_set_statfp         0000000180036e48     libucrt:fpctrl.obj
 0004:00001e54       $pdata$_IsNonwritableInCurrentImage 0000000180036e54     LIBCMT:pesect.obj
 0004:00001e60       $pdata$_IsNonwritableInCurrentImage$filt$0 0000000180036e60     LIBCMT:pesect.obj
 0005:00000000       MoveSmall                  0000000180037000     libvcruntime:memcpy.obj
 0005:00000050       MsetTab                    0000000180037050     libvcruntime:memset.obj
 0006:00000220       $R000000                   0000000180038220     MICR.res
 0006:00000b98       $R000978                   0000000180038b98     MICR.res
 0006:00000c80       $R000A60                   0000000180038c80     MICR.res
 0006:00000ee8       $R000CC8                   0000000180038ee8     MICR.res
 0006:00001420       $R001200                   0000000180039420     MICR.res
 0006:000040b0       $R003E90                   000000018003c0b0     MICR.res
 0006:000040d8       $R003EB8                   000000018003c0d8     MICR.res
