 OPOSBillAcceptor

 Timestamp is 5ed456dd (Mon Jun  1 10:16:13 2020)

 Preferred load address is 0000000180000000

 Start         Length     Name                   Class
 0001:00000000 000000c0H .text$di                CODE
 0001:000000c0 000212d0H .text$mn                CODE
 0001:00021390 00000040H .text$mn$00             CODE
 0001:000213d0 000004b0H .text$x                 CODE
 0001:00021880 00000078H .text$yd                CODE
 0002:00000000 00000618H .idata$5                DATA
 0002:00000618 00000028H .00cfg                  DATA
 0002:00000640 00000008H .CRT$XCA                DATA
 0002:00000648 00000008H .CRT$XCL                DATA
 0002:00000650 00000020H .CRT$XCU                DATA
 0002:00000670 00000008H .CRT$XCZ                DATA
 0002:00000678 00000008H .CRT$XIA                DATA
 0002:00000680 00000020H .CRT$XIC                DATA
 0002:000006a0 00000008H .CRT$XIZ                DATA
 0002:000006a8 00000008H .CRT$XLA                DATA
 0002:000006b0 00000008H .CRT$XLZ                DATA
 0002:000006b8 00000008H .CRT$XPA                DATA
 0002:000006c0 00000010H .CRT$XPX                DATA
 0002:000006d0 00000008H .CRT$XPXA               DATA
 0002:000006d8 00000008H .CRT$XPZ                DATA
 0002:000006e0 00000008H .CRT$XTA                DATA
 0002:000006e8 00000008H .CRT$XTZ                DATA
 0002:000006f0 00000000H .gfids$y                DATA
 0002:000006f0 0000a820H .rdata                  DATA
 0002:0000af10 00000028H .rdata$T                DATA
 0002:0000af38 00000274H .rdata$r                DATA
 0002:0000b1ac 0000040cH .rdata$zzzdbg           DATA
 0002:0000b5b8 00000008H .rtc$IAA                DATA
 0002:0000b5c0 00000008H .rtc$IZZ                DATA
 0002:0000b5c8 00000008H .rtc$TAA                DATA
 0002:0000b5d0 00000008H .rtc$TZZ                DATA
 0002:0000b5d8 00000004H .tls                    DATA
 0002:0000b5dc 00000004H .tls$                   DATA
 0002:0000b5e0 00000008H .tls$ZZZ                DATA
 0002:0000b5e8 000016a8H .xdata                  DATA
 0002:0000cc90 00000150H .xdata$x                DATA
 0002:0000cde0 00000008H ATL$__a                 DATA
 0002:0000cde8 00000008H ATL$__z                 DATA
 0002:0000cdf0 000000b0H .edata                  DATA
 0002:0000cea0 00000078H .idata$2                DATA
 0002:0000cf18 00000018H .idata$3                DATA
 0002:0000cf30 00000618H .idata$4                DATA
 0002:0000d548 00000c2aH .idata$6                DATA
 0003:00000000 00000d98H .data                   DATA
 0003:00000d98 000000c8H .data$r                 DATA
 0003:00000e60 0000140cH .bss                    DATA
 0004:00000000 00001ec0H .pdata                  DATA
 0005:00000000 00000094H _RDATA                  DATA
 0006:00000000 00000220H .rsrc$01                DATA
 0006:00000220 00004100H .rsrc$02                DATA

  Address         Publics by Value              Rva+Base               Lib:Object

 0000:00000000       __guard_fids_count         0000000000000000     <absolute>
 0000:00000000       __x64_code_ranges_to_entry_points 0000000000000000     <absolute>
 0000:00000000       __guard_longjmp_count      0000000000000000     <absolute>
 0000:00000000       __guard_longjmp_table      0000000000000000     <absolute>
 0000:00000000       __hybrid_code_map          0000000000000000     <absolute>
 0000:00000000       __guard_iat_count          0000000000000000     <absolute>
 0000:00000000       __arm64x_redirection_metadata 0000000000000000     <absolute>
 0000:00000000       __guard_eh_cont_count      0000000000000000     <absolute>
 0000:00000000       __arm64x_native_entrypoint 0000000000000000     <absolute>
 0000:00000000       __guard_iat_table          0000000000000000     <absolute>
 0000:00000000       __volatile_metadata        0000000000000000     <absolute>
 0000:00000000       __hybrid_code_map_count    0000000000000000     <absolute>
 0000:00000000       __guard_eh_cont_table      0000000000000000     <absolute>
 0000:00000000       __enclave_config           0000000000000000     <absolute>
 0000:00000000       ___safe_se_handler_count   0000000000000000     <absolute>
 0000:00000000       __AbsoluteZero             0000000000000000     <absolute>
 0000:00000000       ___safe_se_handler_table   0000000000000000     <absolute>
 0000:00000000       __guard_fids_table         0000000000000000     <absolute>
 0000:00000000       __dynamic_value_reloc_table 0000000000000000     <absolute>
 0000:00000000       __hybrid_auxiliary_iat     0000000000000000     <absolute>
 0000:00000100       __guard_flags              0000000000000100     <absolute>
 0000:00000000       __ImageBase                0000000180000000     <linker-defined>
 0001:000000c0       ?DupWide@_CW@@AEAAXXZ      00000001800010c0 f   CWString.obj
 0001:000000e8       ?cw_dup@@YAXPEBDAEAHAEAPEA_W1@Z 00000001800010e8 f   CWString.obj
 0001:000001c8       ?cw_memcpy@@YAHPEA_WPEBDH@Z 00000001800011c8 f   CWString.obj
 0001:00000214       ?cw_strcpy@@YAHPEA_WPEBD@Z 0000000180001214 f   CWString.obj
 0001:00000228       ??0CAtlComModule@ATL@@QEAA@XZ 0000000180001228 f i OposVariant.obj
 0001:000002a8       ??0CAtlWinModule@ATL@@QEAA@XZ 00000001800012a8 f i OposVariant.obj
 0001:00000314       ??0OposDispParms@@QEAA@PEAVOposVariant@@H@Z 0000000180001314 f   OposVariant.obj
 0001:000003bc       ??1OposDispParms@@QEAA@XZ  00000001800013bc f   OposVariant.obj
 0001:000003d4       ??_Estringdispid@CComTypeInfoHolder@ATL@@QEAAPEAXI@Z 00000001800013d4 f i OposVariant.obj
 0001:00000478       ?AtlWinModuleTerm@ATL@@YAJPEAU_ATL_WIN_MODULE70@1@PEAUHINSTANCE__@@@Z 0000000180001478 f i OposVariant.obj
 0001:00000528       ?ChangeBSTR@OposVariant@@QEAAXPEAPEA_WAEAJ@Z 0000000180001528 f   OposVariant.obj
 0001:00000588       ?ChangeLONG@OposVariant@@QEAAXPEAJAEAJ@Z 0000000180001588 f   OposVariant.obj
 0001:000005e4       ?GetLONG@OposVariant@@QEAAJXZ 00000001800015e4 f   OposVariant.obj
 0001:00000608       ?SetBSTR@OposVariant@@QEAAXPEA_WAEAJ@Z 0000000180001608 f   OposVariant.obj
 0001:00000648       ?SetBSTR_Copy@OposVariant@@QEAAXPEA_WAEAJ@Z 0000000180001648 f   OposVariant.obj
 0001:000006b8       ?SetBSTR_InOutPtr@OposVariant@@QEAA_NPEAPEA_WAEAJ@Z 00000001800016b8 f   OposVariant.obj
 0001:00000708       ?SetBSTR_OutPtr@OposVariant@@QEAA_NPEAPEA_WAEAJ@Z 0000000180001708 f   OposVariant.obj
 0001:00000724       ?SetDispatch_Ptr@OposVariant@@QEAAXPEAUIDispatch@@AEAJ@Z 0000000180001724 f   OposVariant.obj
 0001:0000077c       ?SetLONG@OposVariant@@QEAAXJ@Z 000000018000177c f   OposVariant.obj
 0001:000007ac       ?SetLONG_Ptr@OposVariant@@QEAAXPEAJAEAJ@Z 00000001800017ac f   OposVariant.obj
 0001:000007f8       ?SetString@OposVariant@@QEAAXPEB_WAEAJ@Z 00000001800017f8 f   OposVariant.obj
 0001:0000085c       ?SetVARIANT_BOOL@OposVariant@@QEAAXF@Z 000000018000185c f   OposVariant.obj
 0001:00000894       ?SetVARIANT_BOOL_Ptr@OposVariant@@QEAAXPEAFAEAJ@Z 0000000180001894 f   OposVariant.obj
 0001:000008e0       ?Term@CAtlComModule@ATL@@QEAAXXZ 00000001800018e0 f i OposVariant.obj
 0001:00000950       ?_AtlInitializeCriticalSectionEx@ATL@@YAHPEAU_RTL_CRITICAL_SECTION@@KK@Z 0000000180001950 f i OposVariant.obj
 0001:00000958       ?_AtlRaiseException@ATL@@YAXKK@Z 0000000180001958 f i OposVariant.obj
 0001:00000968       ?GetWindowProc@?$CWindowImplBaseT@VCWindow@ATL@@V?$CWinTraits@$0FGAAAAAA@$0A@@2@@ATL@@UEAAP6A_JPEAUHWND__@@I_K_J@ZXZ 0000000180001968 f i BillAcceptor.obj
 0001:00000970       ?StartWindowProc@?$CWindowImplBaseT@VCWindow@ATL@@V?$CWinTraits@$0FGAAAAAA@$0A@@2@@ATL@@SA_JPEAUHWND__@@I_K_J@Z 0000000180001970 f i BillAcceptor.obj
 0001:00000a34       _guard_check_icall_nop     0000000180001a34 f i LIBCMT:guard_support.obj
 0001:00000a34       ?OnFinalMessage@?$CWindowImplBaseT@VCWindow@ATL@@V?$CWinTraits@$0FGAAAAAA@$0A@@2@@ATL@@UEAAXPEAUHWND__@@@Z 0000000180001a34 f i BillAcceptor.obj
 0001:00000a34       ?ObjectMain@CComObjectRootBase@ATL@@SAX_N@Z 0000000180001a34 f i BillAcceptor.obj
 0001:00000a38       ?GetTypeInfoCount@?$IDispatchImpl@UIOPOSBillAcceptor@@$1?IID_IOPOSBillAcceptor@@3U_GUID@@B$1?LIBID_OposBillAcceptor_CCO@@3U3@B$00$0A@VCComTypeInfoHolder@ATL@@@ATL@@UEAAJPEAI@Z 0000000180001a38 f i BillAcceptor.obj
 0001:00000a4c       ?GetTypeInfo@?$IDispatchImpl@UIOPOSBillAcceptor@@$1?IID_IOPOSBillAcceptor@@3U_GUID@@B$1?LIBID_OposBillAcceptor_CCO@@3U3@B$00$0A@VCComTypeInfoHolder@ATL@@@ATL@@UEAAJIKPEAPEAUITypeInfo@@@Z 0000000180001a4c f i BillAcceptor.obj
 0001:00000ab0       ?GetIDsOfNames@?$IDispatchImpl@UIOPOSBillAcceptor@@$1?IID_IOPOSBillAcceptor@@3U_GUID@@B$1?LIBID_OposBillAcceptor_CCO@@3U3@B$00$0A@VCComTypeInfoHolder@ATL@@@ATL@@UEAAJAEBU_GUID@@PEAPEA_WIKPEAJ@Z 0000000180001ab0 f i BillAcceptor.obj
 0001:00000abc       ?Invoke@?$IDispatchImpl@UIOPOSBillAcceptor@@$1?IID_IOPOSBillAcceptor@@3U_GUID@@B$1?LIBID_OposBillAcceptor_CCO@@3U3@B$00$0A@VCComTypeInfoHolder@ATL@@@ATL@@UEAAJJAEBU_GUID@@KGPEAUtagDISPPARAMS@@PEAUtagVARIANT@@PEAUtagEXCEPINFO@@PEAI@Z 0000000180001abc f i BillAcceptor.obj
 0001:00000b4c       ?CreateControlWindow@?$CComControl@VCOPOSBillAcceptor@@V?$CWindowImpl@VCOPOSBillAcceptor@@VCWindow@ATL@@V?$CWinTraits@$0FGAAAAAA@$0A@@3@@ATL@@@ATL@@UEAAPEAUHWND__@@PEAU3@AEAUtagRECT@@@Z 0000000180001b4c f i BillAcceptor.obj
 0001:00000b84       ?ControlQueryInterface@?$CComControl@VCOPOSBillAcceptor@@V?$CWindowImpl@VCOPOSBillAcceptor@@VCWindow@ATL@@V?$CWinTraits@$0FGAAAAAA@$0A@@3@@ATL@@@ATL@@UEAAJAEBU_GUID@@PEAPEAX@Z 0000000180001b84 f i BillAcceptor.obj
 0001:00000b98       ?GetUserClassID@?$IOleObjectImpl@VCOPOSBillAcceptor@@@ATL@@UEAAJPEAU_GUID@@@Z 0000000180001b98 f i BillAcceptor.obj
 0001:00000b98       ?GetClassID@?$IPersistStreamInitImpl@VCOPOSBillAcceptor@@@ATL@@UEAAJPEAU_GUID@@@Z 0000000180001b98 f i BillAcceptor.obj
 0001:00000b98       ?GetClassID@?$IPersistStorageImpl@VCOPOSBillAcceptor@@@ATL@@UEAAJPEAU_GUID@@@Z 0000000180001b98 f i BillAcceptor.obj
 0001:00000bb4       ?IsDirty@?$IPersistStreamInitImpl@VCOPOSBillAcceptor@@@ATL@@UEAAJXZ 0000000180001bb4 f i BillAcceptor.obj
 0001:00000bd0       ?Load@?$IPersistStreamInitImpl@VCOPOSBillAcceptor@@@ATL@@UEAAJPEAUIStream@@@Z 0000000180001bd0 f i BillAcceptor.obj
 0001:00000be8       ?Save@?$IPersistStreamInitImpl@VCOPOSBillAcceptor@@@ATL@@UEAAJPEAUIStream@@H@Z 0000000180001be8 f i BillAcceptor.obj
 0001:00000c00       ?GetSizeMax@?$IPersistStreamInitImpl@VCOPOSBillAcceptor@@@ATL@@UEAAJPEAT_ULARGE_INTEGER@@@Z 0000000180001c00 f i BillAcceptor.obj
 0001:00000e2c       ?InitNew@?$IPersistStreamInitImpl@VCOPOSBillAcceptor@@@ATL@@UEAAJXZ 0000000180001e2c f i BillAcceptor.obj
 0001:00000e44       ?GetRect@?$IViewObjectExImpl@VCOPOSBillAcceptor@@@ATL@@UEAAJKPEAU_RECTL@@@Z 0000000180001e44 f i BillAcceptor.obj
 0001:00000e44       ?SetData@?$IDataObjectImpl@VCOPOSBillAcceptor@@@ATL@@UEAAJPEAUtagFORMATETC@@PEAUtagSTGMEDIUM@@H@Z 0000000180001e44 f i BillAcceptor.obj
 0001:00000e44       ?Freeze@?$IViewObjectExImpl@VCOPOSBillAcceptor@@@ATL@@UEAAJKJPEAXPEAK@Z 0000000180001e44 f i BillAcceptor.obj
 0001:00000e44       ?GetCanonicalFormatEtc@?$IDataObjectImpl@VCOPOSBillAcceptor@@@ATL@@UEAAJPEAUtagFORMATETC@@0@Z 0000000180001e44 f i BillAcceptor.obj
 0001:00000e44       ?SOOutputCompleteDummy@COPOSBillAcceptor@@MEAAJJ@Z 0000000180001e44 f i BillAcceptor.obj
 0001:00000e44       ?GetDataHere@?$IDataObjectImpl@VCOPOSBillAcceptor@@@ATL@@UEAAJPEAUtagFORMATETC@@PEAUtagSTGMEDIUM@@@Z 0000000180001e44 f i BillAcceptor.obj
 0001:00000e44       ?ReactivateAndUndo@?$IOleInPlaceObjectWindowlessImpl@VCOPOSBillAcceptor@@@ATL@@UEAAJXZ 0000000180001e44 f i BillAcceptor.obj
 0001:00000e44       ?GetDropTarget@?$IOleInPlaceObjectWindowlessImpl@VCOPOSBillAcceptor@@@ATL@@UEAAJPEAPEAUIDropTarget@@@Z 0000000180001e44 f i BillAcceptor.obj
 0001:00000e44       ?OnMnemonic@?$IOleControlImpl@VCOPOSBillAcceptor@@@ATL@@UEAAJPEAUtagMSG@@@Z 0000000180001e44 f i BillAcceptor.obj
 0001:00000e44       ?GetColorSet@?$IViewObjectExImpl@VCOPOSBillAcceptor@@@ATL@@UEAAJKJPEAXPEAUtagDVTARGETDEVICE@@PEAUHDC__@@PEAPEAUtagLOGPALETTE@@@Z 0000000180001e44 f i BillAcceptor.obj
 0001:00000e44       ?InitFromData@?$IOleObjectImpl@VCOPOSBillAcceptor@@@ATL@@UEAAJPEAUIDataObject@@HK@Z 0000000180001e44 f i BillAcceptor.obj
 0001:00000e44       ?ContextSensitiveHelp@?$IOleInPlaceObjectWindowlessImpl@VCOPOSBillAcceptor@@@ATL@@UEAAJH@Z 0000000180001e44 f i BillAcceptor.obj
 0001:00000e44       ?SOErrorDummy@COPOSBillAcceptor@@MEAAJJJJPEAJ@Z 0000000180001e44 f i BillAcceptor.obj
 0001:00000e44       ?QueryGetData@?$IDataObjectImpl@VCOPOSBillAcceptor@@@ATL@@UEAAJPEAUtagFORMATETC@@@Z 0000000180001e44 f i BillAcceptor.obj
 0001:00000e44       ?GetControlInfo@?$IOleControlImpl@VCOPOSBillAcceptor@@@ATL@@UEAAJPEAUtagCONTROLINFO@@@Z 0000000180001e44 f i BillAcceptor.obj
 0001:00000e44       ?QueryInterface@CRegObject@ATL@@UEAAJAEBU_GUID@@PEAPEAX@Z 0000000180001e44 f i BillAcceptor.obj
 0001:00000e44       ?SetColorScheme@?$IOleObjectImpl@VCOPOSBillAcceptor@@@ATL@@UEAAJPEAUtagLOGPALETTE@@@Z 0000000180001e44 f i BillAcceptor.obj
 0001:00000e44       ?ContextSensitiveHelp@?$IOleInPlaceActiveObjectImpl@VCOPOSBillAcceptor@@@ATL@@UEAAJH@Z 0000000180001e44 f i BillAcceptor.obj
 0001:00000e44       ?Unfreeze@?$IViewObjectExImpl@VCOPOSBillAcceptor@@@ATL@@UEAAJK@Z 0000000180001e44 f i BillAcceptor.obj
 0001:00000e44       ?GetClipboardData@?$IOleObjectImpl@VCOPOSBillAcceptor@@@ATL@@UEAAJKPEAPEAUIDataObject@@@Z 0000000180001e44 f i BillAcceptor.obj
 0001:00000e44       ?SetMoniker@?$IOleObjectImpl@VCOPOSBillAcceptor@@@ATL@@UEAAJKPEAUIMoniker@@@Z 0000000180001e44 f i BillAcceptor.obj
 0001:00000e44       ?GetMoniker@?$IOleObjectImpl@VCOPOSBillAcceptor@@@ATL@@UEAAJKKPEAPEAUIMoniker@@@Z 0000000180001e44 f i BillAcceptor.obj
 0001:00000e44       ?EnumFormatEtc@?$IDataObjectImpl@VCOPOSBillAcceptor@@@ATL@@UEAAJKPEAPEAUIEnumFORMATETC@@@Z 0000000180001e44 f i BillAcceptor.obj
 0001:00000e4c       ?Release@CRegObject@ATL@@UEAAKXZ 0000000180001e4c f i BillAcceptor.obj
 0001:00000e4c       ?GetObjectDescription@?$CComCoClass@VCOPOSBillAcceptor@@$1?CLSID_OPOSBillAcceptor@@3U_GUID@@B@ATL@@SAPEB_WXZ 0000000180001e4c f i BillAcceptor.obj
 0001:00000e4c       ?SaveCompleted@?$IPersistStorageImpl@VCOPOSBillAcceptor@@@ATL@@UEAAJPEAUIStorage@@@Z 0000000180001e4c f i BillAcceptor.obj
 0001:00000e4c       ?HandsOffStorage@?$IPersistStorageImpl@VCOPOSBillAcceptor@@@ATL@@UEAAJXZ 0000000180001e4c f i BillAcceptor.obj
 0001:00000e4c       ?OnAmbientPropertyChange@?$IOleControlImpl@VCOPOSBillAcceptor@@@ATL@@UEAAJJ@Z 0000000180001e4c f i BillAcceptor.obj
 0001:00000e4c       ?ResizeBorder@?$IOleInPlaceActiveObjectImpl@VCOPOSBillAcceptor@@@ATL@@UEAAJPEBUtagRECT@@PEAUIOleInPlaceUIWindow@@H@Z 0000000180001e4c f i BillAcceptor.obj
 0001:00000e4c       ?Update@?$IOleObjectImpl@VCOPOSBillAcceptor@@@ATL@@UEAAJXZ 0000000180001e4c f i BillAcceptor.obj
 0001:00000e4c       ?GetCategoryMap@CComObjectRootBase@ATL@@SAPEBU_ATL_CATMAP_ENTRY@2@XZ 0000000180001e4c f i BillAcceptor.obj
 0001:00000e4c       ?IsUpToDate@?$IOleObjectImpl@VCOPOSBillAcceptor@@@ATL@@UEAAJXZ 0000000180001e4c f i BillAcceptor.obj
 0001:00000e4c       ?EnableModeless@?$IOleInPlaceActiveObjectImpl@VCOPOSBillAcceptor@@@ATL@@UEAAJH@Z 0000000180001e4c f i BillAcceptor.obj
 0001:00000e4c       ?OnFrameWindowActivate@?$IOleInPlaceActiveObjectImpl@VCOPOSBillAcceptor@@@ATL@@UEAAJH@Z 0000000180001e4c f i BillAcceptor.obj
 0001:00000e4c       ?SetHostNames@?$IOleObjectImpl@VCOPOSBillAcceptor@@@ATL@@UEAAJPEB_W0@Z 0000000180001e4c f i BillAcceptor.obj
 0001:00000e50       ?SetClientSite@?$IOleObjectImpl@VCOPOSBillAcceptor@@@ATL@@UEAAJPEAUIOleClientSite@@@Z 0000000180001e50 f i BillAcceptor.obj
 0001:00000e6c       ?GetClientSite@?$IOleObjectImpl@VCOPOSBillAcceptor@@@ATL@@UEAAJPEAPEAUIOleClientSite@@@Z 0000000180001e6c f i BillAcceptor.obj
 0001:00000eb4       ?Close@?$IOleObjectImpl@VCOPOSBillAcceptor@@@ATL@@UEAAJK@Z 0000000180001eb4 f i BillAcceptor.obj
 0001:00000ed0       ?DoVerb@?$IOleObjectImpl@VCOPOSBillAcceptor@@@ATL@@UEAAJJPEAUtagMSG@@PEAUIOleClientSite@@JPEAUHWND__@@PEBUtagRECT@@@Z 0000000180001ed0 f i BillAcceptor.obj
 0001:00001074       ?EnumVerbs@?$IOleObjectImpl@VCOPOSBillAcceptor@@@ATL@@UEAAJPEAPEAUIEnumOLEVERB@@@Z 0000000180002074 f i BillAcceptor.obj
 0001:00001090       ?GetUserType@?$IOleObjectImpl@VCOPOSBillAcceptor@@@ATL@@UEAAJKPEAPEA_W@Z 0000000180002090 f i BillAcceptor.obj
 0001:000010a0       ?SetExtent@?$IOleObjectImpl@VCOPOSBillAcceptor@@@ATL@@UEAAJKPEAUtagSIZE@@@Z 00000001800020a0 f i BillAcceptor.obj
 0001:000010bc       ?GetExtent@?$IOleObjectImpl@VCOPOSBillAcceptor@@@ATL@@UEAAJKPEAUtagSIZE@@@Z 00000001800020bc f i BillAcceptor.obj
 0001:000010ec       ?Advise@?$IOleObjectImpl@VCOPOSBillAcceptor@@@ATL@@UEAAJPEAUIAdviseSink@@PEAK@Z 00000001800020ec f i BillAcceptor.obj
 0001:00001148       ?Unadvise@?$IOleObjectImpl@VCOPOSBillAcceptor@@@ATL@@UEAAJK@Z 0000000180002148 f i BillAcceptor.obj
 0001:00001180       ?EnumAdvise@?$IOleObjectImpl@VCOPOSBillAcceptor@@@ATL@@UEAAJPEAPEAUIEnumSTATDATA@@@Z 0000000180002180 f i BillAcceptor.obj
 0001:000011c8       ?GetMiscStatus@?$IOleObjectImpl@VCOPOSBillAcceptor@@@ATL@@UEAAJKPEAK@Z 00000001800021c8 f i BillAcceptor.obj
 0001:000011d8       ?GetWindow@?$IOleInPlaceActiveObjectImpl@VCOPOSBillAcceptor@@@ATL@@UEAAJPEAPEAUHWND__@@@Z 00000001800021d8 f i BillAcceptor.obj
 0001:0000122c       ?TranslateAcceleratorW@?$IOleInPlaceActiveObjectImpl@VCOPOSBillAcceptor@@@ATL@@UEAAJPEAUtagMSG@@@Z 000000018000222c f i BillAcceptor.obj
 0001:00001320       ?OnDocWindowActivate@?$IOleInPlaceActiveObjectImpl@VCOPOSBillAcceptor@@@ATL@@UEAAJH@Z 0000000180002320 f i BillAcceptor.obj
 0001:0000134c       ?Draw@?$IViewObjectExImpl@VCOPOSBillAcceptor@@@ATL@@UEAAJKJPEAXPEAUtagDVTARGETDEVICE@@PEAUHDC__@@2PEBU_RECTL@@3P6AH_K@Z4@Z 000000018000234c f i BillAcceptor.obj
 0001:000013b0       ?SetAdvise@?$IViewObjectExImpl@VCOPOSBillAcceptor@@@ATL@@UEAAJKKPEAUIAdviseSink@@@Z 00000001800023b0 f i BillAcceptor.obj
 0001:00001404       ?GetAdvise@?$IViewObjectExImpl@VCOPOSBillAcceptor@@@ATL@@UEAAJPEAK0PEAPEAUIAdviseSink@@@Z 0000000180002404 f i BillAcceptor.obj
 0001:00001440       ?GetExtent@?$IViewObjectExImpl@VCOPOSBillAcceptor@@@ATL@@UEAAJKJPEAUtagDVTARGETDEVICE@@PEAUtagSIZE@@@Z 0000000180002440 f i BillAcceptor.obj
 0001:00001470       ?GetViewStatus@?$IViewObjectExImpl@VCOPOSBillAcceptor@@@ATL@@UEAAJPEAK@Z 0000000180002470 f i BillAcceptor.obj
 0001:00001484       ?QueryHitPoint@?$IViewObjectExImpl@VCOPOSBillAcceptor@@@ATL@@UEAAJKPEBUtagRECT@@UtagPOINT@@JPEAK@Z 0000000180002484 f i BillAcceptor.obj
 0001:000014c8       ?QueryHitRect@?$IViewObjectExImpl@VCOPOSBillAcceptor@@@ATL@@UEAAJKPEBUtagRECT@@0JPEAK@Z 00000001800024c8 f i BillAcceptor.obj
 0001:00001530       ?GetNaturalExtent@?$IViewObjectExImpl@VCOPOSBillAcceptor@@@ATL@@UEAAJKJPEAUtagDVTARGETDEVICE@@PEAUHDC__@@PEAUtagExtentInfo@@PEAUtagSIZE@@@Z 0000000180002530 f i BillAcceptor.obj
 0001:00001578       ?GetWindow@?$IOleInPlaceObjectWindowlessImpl@VCOPOSBillAcceptor@@@ATL@@UEAAJPEAPEAUHWND__@@@Z 0000000180002578 f i BillAcceptor.obj
 0001:000015cc       ?InPlaceDeactivate@?$IOleInPlaceObjectWindowlessImpl@VCOPOSBillAcceptor@@@ATL@@UEAAJXZ 00000001800025cc f i BillAcceptor.obj
 0001:000015e8       ?UIDeactivate@?$IOleInPlaceObjectWindowlessImpl@VCOPOSBillAcceptor@@@ATL@@UEAAJXZ 00000001800025e8 f i BillAcceptor.obj
 0001:00001604       ?SetObjectRects@?$IOleInPlaceObjectWindowlessImpl@VCOPOSBillAcceptor@@@ATL@@UEAAJPEBUtagRECT@@0@Z 0000000180002604 f i BillAcceptor.obj
 0001:00001620       ?OnWindowMessage@?$IOleInPlaceObjectWindowlessImpl@VCOPOSBillAcceptor@@@ATL@@UEAAJI_K_JPEA_J@Z 0000000180002620 f i BillAcceptor.obj
 0001:000016e8       ?EnumConnectionPoints@?$IConnectionPointContainerImpl@VCOPOSBillAcceptor@@@ATL@@UEAAJPEAPEAUIEnumConnectionPoints@@@Z 00000001800026e8 f i BillAcceptor.obj
 0001:00001934       ?FindConnectionPoint@?$IConnectionPointContainerImpl@VCOPOSBillAcceptor@@@ATL@@UEAAJAEBU_GUID@@PEAPEAUIConnectionPoint@@@Z 0000000180002934 f i BillAcceptor.obj
 0001:00001a04       ?IsDirty@?$IPersistStorageImpl@VCOPOSBillAcceptor@@@ATL@@UEAAJXZ 0000000180002a04 f i BillAcceptor.obj
 0001:00001a44       ?InitNew@?$IPersistStorageImpl@VCOPOSBillAcceptor@@@ATL@@UEAAJPEAUIStorage@@@Z 0000000180002a44 f i BillAcceptor.obj
 0001:00001a84       ?Load@?$IPersistStorageImpl@VCOPOSBillAcceptor@@@ATL@@UEAAJPEAUIStorage@@@Z 0000000180002a84 f i BillAcceptor.obj
 0001:00001b24       ?Save@?$IPersistStorageImpl@VCOPOSBillAcceptor@@@ATL@@UEAAJPEAUIStorage@@H@Z 0000000180002b24 f i BillAcceptor.obj
 0001:00001bd4       ?GetPages@?$ISpecifyPropertyPagesImpl@VCOPOSBillAcceptor@@@ATL@@UEAAJPEAUtagCAUUID@@@Z 0000000180002bd4 f i BillAcceptor.obj
 0001:00001be0       ?QuickActivate@?$IQuickActivateImpl@VCOPOSBillAcceptor@@@ATL@@UEAAJPEAUtagQACONTAINER@@PEAUtagQACONTROL@@@Z 0000000180002be0 f i BillAcceptor.obj
 0001:00001bfc       ?SetContentExtent@?$IQuickActivateImpl@VCOPOSBillAcceptor@@@ATL@@UEAAJPEAUtagSIZE@@@Z 0000000180002bfc f i BillAcceptor.obj
 0001:00001c30       ?GetContentExtent@?$IQuickActivateImpl@VCOPOSBillAcceptor@@@ATL@@UEAAJPEAUtagSIZE@@@Z 0000000180002c30 f i BillAcceptor.obj
 0001:00001c68       ?GetData@?$IDataObjectImpl@VCOPOSBillAcceptor@@@ATL@@UEAAJPEAUtagFORMATETC@@PEAUtagSTGMEDIUM@@@Z 0000000180002c68 f i BillAcceptor.obj
 0001:00001c84       ?DAdvise@?$IDataObjectImpl@VCOPOSBillAcceptor@@@ATL@@UEAAJPEAUtagFORMATETC@@KPEAUIAdviseSink@@PEAK@Z 0000000180002c84 f i BillAcceptor.obj
 0001:00001d0c       ?DUnadvise@?$IDataObjectImpl@VCOPOSBillAcceptor@@@ATL@@UEAAJK@Z 0000000180002d0c f i BillAcceptor.obj
 0001:00001d38       ?EnumDAdvise@?$IDataObjectImpl@VCOPOSBillAcceptor@@@ATL@@UEAAJPEAPEAUIEnumSTATDATA@@@Z 0000000180002d38 f i BillAcceptor.obj
 0001:00001d74       ?GetClassInfoW@?$IProvideClassInfo2Impl@$1?CLSID_OPOSBillAcceptor@@3U_GUID@@B$1?DIID__IOPOSBillAcceptorEvents@@3U2@B$1?LIBID_OposBillAcceptor_CCO@@3U2@B$00$0A@VCComTypeInfoHolder@ATL@@@ATL@@UEAAJPEAPEAUITypeInfo@@@Z 0000000180002d74 f i BillAcceptor.obj
 0001:00001dcc       ?GetGUID@?$IProvideClassInfo2Impl@$1?CLSID_OPOSBillAcceptor@@3U_GUID@@B$1?DIID__IOPOSBillAcceptorEvents@@3U2@B$1?LIBID_OposBillAcceptor_CCO@@3U2@B$00$0A@VCComTypeInfoHolder@ATL@@@ATL@@UEAAJKPEAU_GUID@@@Z 0000000180002dcc f i BillAcceptor.obj
 0001:00001e00       ?AddRef@CRegObject@ATL@@UEAAKXZ 0000000180002e00 f i BillAcceptor.obj
 0001:00001e00       _get_startup_argv_mode     0000000180002e00 f i LIBCMT:argv_mode.obj
 0001:00001e00       ?FAccessAllowed@?$IObjectSafetyImpl@VCOPOSBillAcceptor@@$02@ATL@@MEAAHXZ 0000000180002e00 f i BillAcceptor.obj
 0001:00001e08       ?GetInterfaceSafetyOptions@?$IObjectSafetyImpl@VCOPOSBillAcceptor@@$02@ATL@@UEAAJAEBU_GUID@@PEAK1@Z 0000000180002e08 f i BillAcceptor.obj
 0001:00001e9c       ?SetInterfaceSafetyOptions@?$IObjectSafetyImpl@VCOPOSBillAcceptor@@$02@ATL@@UEAAJAEBU_GUID@@KK@Z 0000000180002e9c f i BillAcceptor.obj
 0001:00001f40       ?_LocCPQueryInterface@?$IConnectionPointImpl@VCOPOSBillAcceptor@@$1?IID_IPropertyNotifySink@@3U_GUID@@BVCComDynamicUnkArray@ATL@@@ATL@@UEAAJAEBU_GUID@@PEAPEAX@Z 0000000180002f40 f i BillAcceptor.obj
 0001:00001f40       ?_LocCPQueryInterface@?$IConnectionPointImpl@VCOPOSBillAcceptor@@$1?DIID__IOPOSBillAcceptorEvents@@3U_GUID@@BVCComDynamicUnkArray@ATL@@@ATL@@UEAAJAEBU_GUID@@PEAPEAX@Z 0000000180002f40 f i BillAcceptor.obj
 0001:00001fb0       ?GetConnectionInterface@?$IConnectionPointImpl@VCOPOSBillAcceptor@@$1?IID_IPropertyNotifySink@@3U_GUID@@BVCComDynamicUnkArray@ATL@@@ATL@@UEAAJPEAU_GUID@@@Z 0000000180002fb0 f i BillAcceptor.obj
 0001:00001fcc       ?GetConnectionPointContainer@?$IConnectionPointImpl@VCOPOSBillAcceptor@@$1?IID_IPropertyNotifySink@@3U_GUID@@BVCComDynamicUnkArray@ATL@@@ATL@@UEAAJPEAPEAUIConnectionPointContainer@@@Z 0000000180002fcc f i BillAcceptor.obj
 0001:00001fec       ?Advise@?$IConnectionPointImpl@VCOPOSBillAcceptor@@$1?DIID__IOPOSBillAcceptorEvents@@3U_GUID@@BVCComDynamicUnkArray@ATL@@@ATL@@UEAAJPEAUIUnknown@@PEAK@Z 0000000180002fec f i BillAcceptor.obj
 0001:00001fec       ?Advise@?$IConnectionPointImpl@VCOPOSBillAcceptor@@$1?IID_IPropertyNotifySink@@3U_GUID@@BVCComDynamicUnkArray@ATL@@@ATL@@UEAAJPEAUIUnknown@@PEAK@Z 0000000180002fec f i BillAcceptor.obj
 0001:000020a8       ?Unadvise@?$IConnectionPointImpl@VCOPOSBillAcceptor@@$1?DIID__IOPOSBillAcceptorEvents@@3U_GUID@@BVCComDynamicUnkArray@ATL@@@ATL@@UEAAJK@Z 00000001800030a8 f i BillAcceptor.obj
 0001:000020a8       ?Unadvise@?$IConnectionPointImpl@VCOPOSBillAcceptor@@$1?IID_IPropertyNotifySink@@3U_GUID@@BVCComDynamicUnkArray@ATL@@@ATL@@UEAAJK@Z 00000001800030a8 f i BillAcceptor.obj
 0001:00002110       ?EnumConnections@?$IConnectionPointImpl@VCOPOSBillAcceptor@@$1?DIID__IOPOSBillAcceptorEvents@@3U_GUID@@BVCComDynamicUnkArray@ATL@@@ATL@@UEAAJPEAPEAUIEnumConnections@@@Z 0000000180003110 f i BillAcceptor.obj
 0001:00002110       ?EnumConnections@?$IConnectionPointImpl@VCOPOSBillAcceptor@@$1?IID_IPropertyNotifySink@@3U_GUID@@BVCComDynamicUnkArray@ATL@@@ATL@@UEAAJPEAPEAUIEnumConnections@@@Z 0000000180003110 f i BillAcceptor.obj
 0001:000022bc       ?GetConnectionInterface@?$IConnectionPointImpl@VCOPOSBillAcceptor@@$1?DIID__IOPOSBillAcceptorEvents@@3U_GUID@@BVCComDynamicUnkArray@ATL@@@ATL@@UEAAJPEAU_GUID@@@Z 00000001800032bc f i BillAcceptor.obj
 0001:000022d8       ?GetConnectionPointContainer@?$IConnectionPointImpl@VCOPOSBillAcceptor@@$1?DIID__IOPOSBillAcceptorEvents@@3U_GUID@@BVCComDynamicUnkArray@ATL@@@ATL@@UEAAJPEAPEAUIConnectionPointContainer@@@Z 00000001800032d8 f i BillAcceptor.obj
 0001:000022f8       ?UpdateRegistry@COPOSBillAcceptor@@SAJH@Z 00000001800032f8 f i BillAcceptor.obj
 0001:00002310       ?ProcessWindowMessage@COPOSBillAcceptor@@UEAAHPEAUHWND__@@I_K_JAEA_JK@Z 0000000180003310 f i BillAcceptor.obj
 0001:00002398       ?SOData@COPOSBillAcceptor@@MEAAJJ@Z 0000000180003398 f i BillAcceptor.obj
 0001:000023e8       ?SODirectIO@COPOSBillAcceptor@@MEAAJJPEAJPEAPEA_W@Z 00000001800033e8 f i BillAcceptor.obj
 0001:00002460       ?SOStatusUpdate@COPOSBillAcceptor@@MEAAJJ@Z 0000000180003460 f i BillAcceptor.obj
 0001:000024b0       ?Lock@CAtlModule@ATL@@UEAAJXZ 00000001800034b0 f i BillAcceptor.obj
 0001:000024c0       ?Unlock@CAtlModule@ATL@@UEAAJXZ 00000001800034c0 f i BillAcceptor.obj
 0001:000024cc       ?GetLockCount@CAtlModule@ATL@@UEAAJXZ 00000001800034cc f i BillAcceptor.obj
 0001:000024d0       ?GetGITPtr@CAtlModule@ATL@@UEAAJPEAPEAUIGlobalInterfaceTable@@@Z 00000001800034d0 f i BillAcceptor.obj
 0001:00002540       ?CreateInstance@?$CComCreator@V?$CComObjectCached@VCComClassFactory@ATL@@@ATL@@@ATL@@SAJPEAXAEBU_GUID@@PEAPEAX@Z 0000000180003540 f i BillAcceptor.obj
 0001:00002664       ?CreateInstance@?$CComCreator2@V?$CComCreator@V?$CComObject@VCOPOSBillAcceptor@@@ATL@@@ATL@@V?$CComCreator@V?$CComAggObject@VCOPOSBillAcceptor@@@ATL@@@2@@ATL@@SAJPEAXAEBU_GUID@@PEAPEAX@Z 0000000180003664 f i BillAcceptor.obj
 0001:00002674       ?AddRef@?$CComObjectCached@VCComClassFactory@ATL@@@ATL@@UEAAKXZ 0000000180003674 f i BillAcceptor.obj
 0001:000026a0       ?Release@?$CComObjectCached@VCComClassFactory@ATL@@@ATL@@UEAAKXZ 00000001800036a0 f i BillAcceptor.obj
 0001:000026e0       ?QueryInterface@?$CComObjectCached@VCComClassFactory@ATL@@@ATL@@UEAAJAEBU_GUID@@PEAPEAX@Z 00000001800036e0 f i BillAcceptor.obj
 0001:000026f4       ??_G?$CComObjectCached@VCComClassFactory@ATL@@@ATL@@UEAAPEAXI@Z 00000001800036f4 f i BillAcceptor.obj
 0001:000026f4       ??_E?$CComObjectCached@VCComClassFactory@ATL@@@ATL@@UEAAPEAXI@Z 00000001800036f4 f i BillAcceptor.obj
 0001:0000274c       ?AddCommonRGSReplacements@?$CAtlModuleT@VCComModule@ATL@@@ATL@@UEAAJPEAUIRegistrarBase@@@Z 000000018000374c f i BillAcceptor.obj
 0001:00002764       ?UpdateRegistryFromResourceD@CComModule@ATL@@UEAAJIHPEAU_ATL_REGMAP_ENTRY@2@@Z 0000000180003764 f i BillAcceptor.obj
 0001:00002764       ?UpdateRegistryFromResourceD@CComModule@ATL@@UEAAJPEB_WHPEAU_ATL_REGMAP_ENTRY@2@@Z 0000000180003764 f i BillAcceptor.obj
 0001:0000276c       ?UpdateRegistryFromResource@CComModule@ATL@@UEAAJPEB_WHPEAU_ATL_REGMAP_ENTRY@2@@Z 000000018000376c f i BillAcceptor.obj
 0001:00002774       ?UpdateRegistryFromResource@CComModule@ATL@@UEAAJIHPEAU_ATL_REGMAP_ENTRY@2@@Z 0000000180003774 f i BillAcceptor.obj
 0001:0000277c       ??_ECComModule@ATL@@UEAAPEAXI@Z 000000018000377c f i BillAcceptor.obj
 0001:0000277c       ??_GCComModule@ATL@@UEAAPEAXI@Z 000000018000377c f i BillAcceptor.obj
 0001:000027bc       ?Next@?$CComEnumImpl@UIEnumConnectionPoints@@$1?_GUID_b196b285_bab4_101a_b69c_00aa00341d07@@3U__s_GUID@@BPEAUIConnectionPoint@@V?$_CopyInterface@UIConnectionPoint@@@ATL@@@ATL@@UEAAJKPEAPEAUIConnectionPoint@@PEAK@Z 00000001800037bc f i BillAcceptor.obj
 0001:00002888       ?Skip@?$CComEnumImpl@UIEnumConnectionPoints@@$1?_GUID_b196b285_bab4_101a_b69c_00aa00341d07@@3U__s_GUID@@BPEAUIConnectionPoint@@V?$_CopyInterface@UIConnectionPoint@@@ATL@@@ATL@@UEAAJK@Z 0000000180003888 f i BillAcceptor.obj
 0001:000028b4       ?Reset@?$CComEnumImpl@UIEnumConnectionPoints@@$1?_GUID_b196b285_bab4_101a_b69c_00aa00341d07@@3U__s_GUID@@BPEAUIConnectionPoint@@V?$_CopyInterface@UIConnectionPoint@@@ATL@@@ATL@@UEAAJXZ 00000001800038b4 f i BillAcceptor.obj
 0001:000028b4       ?Reset@?$CComEnumImpl@UIEnumConnections@@$1?_GUID_b196b287_bab4_101a_b69c_00aa00341d07@@3U__s_GUID@@BUtagCONNECTDATA@@V?$_Copy@UtagCONNECTDATA@@@ATL@@@ATL@@UEAAJXZ 00000001800038b4 f i BillAcceptor.obj
 0001:000028c0       ?Clone@?$CComEnumImpl@UIEnumConnectionPoints@@$1?_GUID_b196b285_bab4_101a_b69c_00aa00341d07@@3U__s_GUID@@BPEAUIConnectionPoint@@V?$_CopyInterface@UIConnectionPoint@@@ATL@@@ATL@@UEAAJPEAPEAUIEnumConnectionPoints@@@Z 00000001800038c0 f i BillAcceptor.obj
 0001:000029ec       ?AddRef@?$CComObject@V?$CComEnum@UIEnumConnections@@$1?_GUID_b196b287_bab4_101a_b69c_00aa00341d07@@3U__s_GUID@@BUtagCONNECTDATA@@V?$_Copy@UtagCONNECTDATA@@@ATL@@VCComSingleThreadModel@6@@ATL@@@ATL@@UEAAKXZ 00000001800039ec f i BillAcceptor.obj
 0001:000029ec       ?AddRef@?$CComObject@V?$CComEnum@UIEnumConnectionPoints@@$1?_GUID_b196b285_bab4_101a_b69c_00aa00341d07@@3U__s_GUID@@BPEAUIConnectionPoint@@V?$_CopyInterface@UIConnectionPoint@@@ATL@@VCComSingleThreadModel@6@@ATL@@@ATL@@UEAAKXZ 00000001800039ec f i BillAcceptor.obj
 0001:000029f8       ?Release@?$CComObject@V?$CComEnum@UIEnumConnectionPoints@@$1?_GUID_b196b285_bab4_101a_b69c_00aa00341d07@@3U__s_GUID@@BPEAUIConnectionPoint@@V?$_CopyInterface@UIConnectionPoint@@@ATL@@VCComSingleThreadModel@6@@ATL@@@ATL@@UEAAKXZ 00000001800039f8 f i BillAcceptor.obj
 0001:000029f8       ?Release@?$CComObject@V?$CComEnum@UIEnumConnections@@$1?_GUID_b196b287_bab4_101a_b69c_00aa00341d07@@3U__s_GUID@@BUtagCONNECTDATA@@V?$_Copy@UtagCONNECTDATA@@@ATL@@VCComSingleThreadModel@6@@ATL@@@ATL@@UEAAKXZ 00000001800039f8 f i BillAcceptor.obj
 0001:00002a4c       ?QueryInterface@?$CComObject@V?$CComEnum@UIEnumConnectionPoints@@$1?_GUID_b196b285_bab4_101a_b69c_00aa00341d07@@3U__s_GUID@@BPEAUIConnectionPoint@@V?$_CopyInterface@UIConnectionPoint@@@ATL@@VCComSingleThreadModel@6@@ATL@@@ATL@@UEAAJAEBU_GUID@@PEAPEAX@Z 0000000180003a4c f i BillAcceptor.obj
 0001:00002a60       ??_E?$CComObject@V?$CComEnum@UIEnumConnectionPoints@@$1?_GUID_b196b285_bab4_101a_b69c_00aa00341d07@@3U__s_GUID@@BPEAUIConnectionPoint@@V?$_CopyInterface@UIConnectionPoint@@@ATL@@VCComSingleThreadModel@6@@ATL@@@ATL@@UEAAPEAXI@Z 0000000180003a60 f i BillAcceptor.obj
 0001:00002a60       ??_G?$CComObject@V?$CComEnum@UIEnumConnectionPoints@@$1?_GUID_b196b285_bab4_101a_b69c_00aa00341d07@@3U__s_GUID@@BPEAUIConnectionPoint@@V?$_CopyInterface@UIConnectionPoint@@@ATL@@VCComSingleThreadModel@6@@ATL@@@ATL@@UEAAPEAXI@Z 0000000180003a60 f i BillAcceptor.obj
 0001:00002ab8       ?AddReplacement@CRegObject@ATL@@UEAAJPEB_W0@Z 0000000180003ab8 f i BillAcceptor.obj
 0001:00002ae8       ?ClearReplacements@CRegObject@ATL@@UEAAJXZ 0000000180003ae8 f i BillAcceptor.obj
 0001:00002af4       ??_GCRegObject@ATL@@UEAAPEAXI@Z 0000000180003af4 f i BillAcceptor.obj
 0001:00002af4       ??_ECRegObject@ATL@@UEAAPEAXI@Z 0000000180003af4 f i BillAcceptor.obj
 0001:00002b74       ?AddRef@?$CComAggObject@VCOPOSBillAcceptor@@@ATL@@UEAAKXZ 0000000180003b74 f i BillAcceptor.obj
 0001:00002b80       ?Release@?$CComAggObject@VCOPOSBillAcceptor@@@ATL@@UEAAKXZ 0000000180003b80 f i BillAcceptor.obj
 0001:00002bd4       ?QueryInterface@?$CComAggObject@VCOPOSBillAcceptor@@@ATL@@UEAAJAEBU_GUID@@PEAPEAX@Z 0000000180003bd4 f i BillAcceptor.obj
 0001:00002c34       ?AddRef@?$CComContainedObject@VCOPOSBillAcceptor@@@ATL@@UEAAKXZ 0000000180003c34 f i BillAcceptor.obj
 0001:00002c44       ?Release@?$CComContainedObject@VCOPOSBillAcceptor@@@ATL@@UEAAKXZ 0000000180003c44 f i BillAcceptor.obj
 0001:00002c54       ?QueryInterface@?$CComContainedObject@VCOPOSBillAcceptor@@@ATL@@UEAAJAEBU_GUID@@PEAPEAX@Z 0000000180003c54 f i BillAcceptor.obj
 0001:00002c64       ??_G?$CComAggObject@VCOPOSBillAcceptor@@@ATL@@UEAAPEAXI@Z 0000000180003c64 f i BillAcceptor.obj
 0001:00002c64       ??_E?$CComAggObject@VCOPOSBillAcceptor@@@ATL@@UEAAPEAXI@Z 0000000180003c64 f i BillAcceptor.obj
 0001:00002cbc       ?AddRef@?$CComObject@VCOPOSBillAcceptor@@@ATL@@UEAAKXZ 0000000180003cbc f i BillAcceptor.obj
 0001:00002ccc       ?Release@?$CComObject@VCOPOSBillAcceptor@@@ATL@@UEAAKXZ 0000000180003ccc f i BillAcceptor.obj
 0001:00002d24       ?QueryInterface@?$CComObject@VCOPOSBillAcceptor@@@ATL@@UEAAJAEBU_GUID@@PEAPEAX@Z 0000000180003d24 f i BillAcceptor.obj
 0001:00002d38       ?OnDrawAdvanced@CComControlBase@ATL@@UEAAJAEAUATL_DRAWINFO@@@Z 0000000180003d38 f i BillAcceptor.obj
 0001:00002ec4       ?Next@?$CComEnumImpl@UIEnumConnections@@$1?_GUID_b196b287_bab4_101a_b69c_00aa00341d07@@3U__s_GUID@@BUtagCONNECTDATA@@V?$_Copy@UtagCONNECTDATA@@@ATL@@@ATL@@UEAAJKPEAUtagCONNECTDATA@@PEAK@Z 0000000180003ec4 f i BillAcceptor.obj
 0001:00002f98       ?Skip@?$CComEnumImpl@UIEnumConnections@@$1?_GUID_b196b287_bab4_101a_b69c_00aa00341d07@@3U__s_GUID@@BUtagCONNECTDATA@@V?$_Copy@UtagCONNECTDATA@@@ATL@@@ATL@@UEAAJK@Z 0000000180003f98 f i BillAcceptor.obj
 0001:00002fc4       ?Clone@?$CComEnumImpl@UIEnumConnections@@$1?_GUID_b196b287_bab4_101a_b69c_00aa00341d07@@3U__s_GUID@@BUtagCONNECTDATA@@V?$_Copy@UtagCONNECTDATA@@@ATL@@@ATL@@UEAAJPEAPEAUIEnumConnections@@@Z 0000000180003fc4 f i BillAcceptor.obj
 0001:000030f0       ?QueryInterface@?$CComObject@V?$CComEnum@UIEnumConnections@@$1?_GUID_b196b287_bab4_101a_b69c_00aa00341d07@@3U__s_GUID@@BUtagCONNECTDATA@@V?$_Copy@UtagCONNECTDATA@@@ATL@@VCComSingleThreadModel@6@@ATL@@@ATL@@UEAAJAEBU_GUID@@PEAPEAX@Z 00000001800040f0 f i BillAcceptor.obj
 0001:00003104       ??_E?$CComObject@V?$CComEnum@UIEnumConnections@@$1?_GUID_b196b287_bab4_101a_b69c_00aa00341d07@@3U__s_GUID@@BUtagCONNECTDATA@@V?$_Copy@UtagCONNECTDATA@@@ATL@@VCComSingleThreadModel@6@@ATL@@@ATL@@UEAAPEAXI@Z 0000000180004104 f i BillAcceptor.obj
 0001:00003104       ??_G?$CComObject@V?$CComEnum@UIEnumConnections@@$1?_GUID_b196b287_bab4_101a_b69c_00aa00341d07@@3U__s_GUID@@BUtagCONNECTDATA@@V?$_Copy@UtagCONNECTDATA@@@ATL@@VCComSingleThreadModel@6@@ATL@@@ATL@@UEAAPEAXI@Z 0000000180004104 f i BillAcceptor.obj
 0001:0000315c       ??_E?$CComObject@VCOPOSBillAcceptor@@@ATL@@W7EAAPEAXI@Z 000000018000415c f i BillAcceptor.obj
 0001:00003168       ??_E?$CComObject@VCOPOSBillAcceptor@@@ATL@@WHA@EAAPEAXI@Z 0000000180004168 f i BillAcceptor.obj
 0001:00003174       ?QueryInterface@?$CComObject@VCOPOSBillAcceptor@@@ATL@@WLI@EAAJAEBU_GUID@@PEAPEAX@Z 0000000180004174 f i BillAcceptor.obj
 0001:00003180       ?AddRef@?$CComObject@VCOPOSBillAcceptor@@@ATL@@WLI@EAAKXZ 0000000180004180 f i BillAcceptor.obj
 0001:0000318c       ?Release@?$CComObject@VCOPOSBillAcceptor@@@ATL@@WLI@EAAKXZ 000000018000418c f i BillAcceptor.obj
 0001:00003198       ?QueryInterface@?$CComObject@VCOPOSBillAcceptor@@@ATL@@WMA@EAAJAEBU_GUID@@PEAPEAX@Z 0000000180004198 f i BillAcceptor.obj
 0001:000031a4       ?AddRef@?$CComObject@VCOPOSBillAcceptor@@@ATL@@WMA@EAAKXZ 00000001800041a4 f i BillAcceptor.obj
 0001:000031b0       ?Release@?$CComObject@VCOPOSBillAcceptor@@@ATL@@WMA@EAAKXZ 00000001800041b0 f i BillAcceptor.obj
 0001:000031bc       ?QueryInterface@?$CComObject@VCOPOSBillAcceptor@@@ATL@@WMI@EAAJAEBU_GUID@@PEAPEAX@Z 00000001800041bc f i BillAcceptor.obj
 0001:000031c8       ?AddRef@?$CComObject@VCOPOSBillAcceptor@@@ATL@@WMI@EAAKXZ 00000001800041c8 f i BillAcceptor.obj
 0001:000031d4       ?Release@?$CComObject@VCOPOSBillAcceptor@@@ATL@@WMI@EAAKXZ 00000001800041d4 f i BillAcceptor.obj
 0001:000031e0       ?QueryInterface@?$CComObject@VCOPOSBillAcceptor@@@ATL@@WNA@EAAJAEBU_GUID@@PEAPEAX@Z 00000001800041e0 f i BillAcceptor.obj
 0001:000031ec       ?AddRef@?$CComObject@VCOPOSBillAcceptor@@@ATL@@WNA@EAAKXZ 00000001800041ec f i BillAcceptor.obj
 0001:000031f8       ?Release@?$CComObject@VCOPOSBillAcceptor@@@ATL@@WNA@EAAKXZ 00000001800041f8 f i BillAcceptor.obj
 0001:00003204       ?QueryInterface@?$CComObject@VCOPOSBillAcceptor@@@ATL@@WNI@EAAJAEBU_GUID@@PEAPEAX@Z 0000000180004204 f i BillAcceptor.obj
 0001:00003210       ?AddRef@?$CComObject@VCOPOSBillAcceptor@@@ATL@@WNI@EAAKXZ 0000000180004210 f i BillAcceptor.obj
 0001:0000321c       ?Release@?$CComObject@VCOPOSBillAcceptor@@@ATL@@WNI@EAAKXZ 000000018000421c f i BillAcceptor.obj
 0001:00003228       ?QueryInterface@?$CComObject@VCOPOSBillAcceptor@@@ATL@@WOA@EAAJAEBU_GUID@@PEAPEAX@Z 0000000180004228 f i BillAcceptor.obj
 0001:00003234       ?AddRef@?$CComObject@VCOPOSBillAcceptor@@@ATL@@WOA@EAAKXZ 0000000180004234 f i BillAcceptor.obj
 0001:00003240       ?Release@?$CComObject@VCOPOSBillAcceptor@@@ATL@@WOA@EAAKXZ 0000000180004240 f i BillAcceptor.obj
 0001:0000324c       ?QueryInterface@?$CComObject@VCOPOSBillAcceptor@@@ATL@@WOI@EAAJAEBU_GUID@@PEAPEAX@Z 000000018000424c f i BillAcceptor.obj
 0001:00003258       ?AddRef@?$CComObject@VCOPOSBillAcceptor@@@ATL@@WOI@EAAKXZ 0000000180004258 f i BillAcceptor.obj
 0001:00003264       ?Release@?$CComObject@VCOPOSBillAcceptor@@@ATL@@WOI@EAAKXZ 0000000180004264 f i BillAcceptor.obj
 0001:00003270       ?QueryInterface@?$CComObject@VCOPOSBillAcceptor@@@ATL@@WPA@EAAJAEBU_GUID@@PEAPEAX@Z 0000000180004270 f i BillAcceptor.obj
 0001:0000327c       ?AddRef@?$CComObject@VCOPOSBillAcceptor@@@ATL@@WPA@EAAKXZ 000000018000427c f i BillAcceptor.obj
 0001:00003288       ?Release@?$CComObject@VCOPOSBillAcceptor@@@ATL@@WPA@EAAKXZ 0000000180004288 f i BillAcceptor.obj
 0001:00003294       ?QueryInterface@?$CComObject@VCOPOSBillAcceptor@@@ATL@@WPI@EAAJAEBU_GUID@@PEAPEAX@Z 0000000180004294 f i BillAcceptor.obj
 0001:000032a0       ?AddRef@?$CComObject@VCOPOSBillAcceptor@@@ATL@@WPI@EAAKXZ 00000001800042a0 f i BillAcceptor.obj
 0001:000032ac       ?Release@?$CComObject@VCOPOSBillAcceptor@@@ATL@@WPI@EAAKXZ 00000001800042ac f i BillAcceptor.obj
 0001:000032b8       ?QueryInterface@?$CComObject@VCOPOSBillAcceptor@@@ATL@@WBAA@EAAJAEBU_GUID@@PEAPEAX@Z 00000001800042b8 f i BillAcceptor.obj
 0001:000032c4       ?AddRef@?$CComObject@VCOPOSBillAcceptor@@@ATL@@WBAA@EAAKXZ 00000001800042c4 f i BillAcceptor.obj
 0001:000032d0       ?Release@?$CComObject@VCOPOSBillAcceptor@@@ATL@@WBAA@EAAKXZ 00000001800042d0 f i BillAcceptor.obj
 0001:000032dc       ?QueryInterface@?$CComObject@VCOPOSBillAcceptor@@@ATL@@WBAI@EAAJAEBU_GUID@@PEAPEAX@Z 00000001800042dc f i BillAcceptor.obj
 0001:000032e8       ?AddRef@?$CComObject@VCOPOSBillAcceptor@@@ATL@@WBAI@EAAKXZ 00000001800042e8 f i BillAcceptor.obj
 0001:000032f4       ?Release@?$CComObject@VCOPOSBillAcceptor@@@ATL@@WBAI@EAAKXZ 00000001800042f4 f i BillAcceptor.obj
 0001:00003300       ?QueryInterface@?$CComObject@VCOPOSBillAcceptor@@@ATL@@WBBA@EAAJAEBU_GUID@@PEAPEAX@Z 0000000180004300 f i BillAcceptor.obj
 0001:0000330c       ?AddRef@?$CComObject@VCOPOSBillAcceptor@@@ATL@@WBBA@EAAKXZ 000000018000430c f i BillAcceptor.obj
 0001:00003318       ?Release@?$CComObject@VCOPOSBillAcceptor@@@ATL@@WBBA@EAAKXZ 0000000180004318 f i BillAcceptor.obj
 0001:00003324       ?QueryInterface@?$CComObject@VCOPOSBillAcceptor@@@ATL@@WBBI@EAAJAEBU_GUID@@PEAPEAX@Z 0000000180004324 f i BillAcceptor.obj
 0001:00003330       ?AddRef@?$CComObject@VCOPOSBillAcceptor@@@ATL@@WBBI@EAAKXZ 0000000180004330 f i BillAcceptor.obj
 0001:0000333c       ?Release@?$CComObject@VCOPOSBillAcceptor@@@ATL@@WBBI@EAAKXZ 000000018000433c f i BillAcceptor.obj
 0001:00003348       ?AddRef@?$CComObject@VCOPOSBillAcceptor@@@ATL@@WBCI@EAAKXZ 0000000180004348 f i BillAcceptor.obj
 0001:00003354       ?Release@?$CComObject@VCOPOSBillAcceptor@@@ATL@@WBCI@EAAKXZ 0000000180004354 f i BillAcceptor.obj
 0001:00003360       ?AddRef@?$CComObject@VCOPOSBillAcceptor@@@ATL@@WBEA@EAAKXZ 0000000180004360 f i BillAcceptor.obj
 0001:0000336c       ?Release@?$CComObject@VCOPOSBillAcceptor@@@ATL@@WBEA@EAAKXZ 000000018000436c f i BillAcceptor.obj
 0001:00003378       ??_E?$CComContainedObject@VCOPOSBillAcceptor@@@ATL@@W7EAAPEAXI@Z 0000000180004378 f i BillAcceptor.obj
 0001:00003384       ??_E?$CComContainedObject@VCOPOSBillAcceptor@@@ATL@@WHA@EAAPEAXI@Z 0000000180004384 f i BillAcceptor.obj
 0001:00003390       ?QueryInterface@?$CComContainedObject@VCOPOSBillAcceptor@@@ATL@@WLI@EAAJAEBU_GUID@@PEAPEAX@Z 0000000180004390 f i BillAcceptor.obj
 0001:0000339c       ?AddRef@?$CComContainedObject@VCOPOSBillAcceptor@@@ATL@@WLI@EAAKXZ 000000018000439c f i BillAcceptor.obj
 0001:000033a8       ?Release@?$CComContainedObject@VCOPOSBillAcceptor@@@ATL@@WLI@EAAKXZ 00000001800043a8 f i BillAcceptor.obj
 0001:000033b4       ?QueryInterface@?$CComContainedObject@VCOPOSBillAcceptor@@@ATL@@WMA@EAAJAEBU_GUID@@PEAPEAX@Z 00000001800043b4 f i BillAcceptor.obj
 0001:000033c0       ?AddRef@?$CComContainedObject@VCOPOSBillAcceptor@@@ATL@@WMA@EAAKXZ 00000001800043c0 f i BillAcceptor.obj
 0001:000033cc       ?Release@?$CComContainedObject@VCOPOSBillAcceptor@@@ATL@@WMA@EAAKXZ 00000001800043cc f i BillAcceptor.obj
 0001:000033d8       ?QueryInterface@?$CComContainedObject@VCOPOSBillAcceptor@@@ATL@@WMI@EAAJAEBU_GUID@@PEAPEAX@Z 00000001800043d8 f i BillAcceptor.obj
 0001:000033e4       ?AddRef@?$CComContainedObject@VCOPOSBillAcceptor@@@ATL@@WMI@EAAKXZ 00000001800043e4 f i BillAcceptor.obj
 0001:000033f0       ?Release@?$CComContainedObject@VCOPOSBillAcceptor@@@ATL@@WMI@EAAKXZ 00000001800043f0 f i BillAcceptor.obj
 0001:000033fc       ?QueryInterface@?$CComContainedObject@VCOPOSBillAcceptor@@@ATL@@WNA@EAAJAEBU_GUID@@PEAPEAX@Z 00000001800043fc f i BillAcceptor.obj
 0001:00003408       ?AddRef@?$CComContainedObject@VCOPOSBillAcceptor@@@ATL@@WNA@EAAKXZ 0000000180004408 f i BillAcceptor.obj
 0001:00003414       ?Release@?$CComContainedObject@VCOPOSBillAcceptor@@@ATL@@WNA@EAAKXZ 0000000180004414 f i BillAcceptor.obj
 0001:00003420       ?QueryInterface@?$CComContainedObject@VCOPOSBillAcceptor@@@ATL@@WNI@EAAJAEBU_GUID@@PEAPEAX@Z 0000000180004420 f i BillAcceptor.obj
 0001:0000342c       ?AddRef@?$CComContainedObject@VCOPOSBillAcceptor@@@ATL@@WNI@EAAKXZ 000000018000442c f i BillAcceptor.obj
 0001:00003438       ?Release@?$CComContainedObject@VCOPOSBillAcceptor@@@ATL@@WNI@EAAKXZ 0000000180004438 f i BillAcceptor.obj
 0001:00003444       ?QueryInterface@?$CComContainedObject@VCOPOSBillAcceptor@@@ATL@@WOA@EAAJAEBU_GUID@@PEAPEAX@Z 0000000180004444 f i BillAcceptor.obj
 0001:00003450       ?AddRef@?$CComContainedObject@VCOPOSBillAcceptor@@@ATL@@WOA@EAAKXZ 0000000180004450 f i BillAcceptor.obj
 0001:0000345c       ?Release@?$CComContainedObject@VCOPOSBillAcceptor@@@ATL@@WOA@EAAKXZ 000000018000445c f i BillAcceptor.obj
 0001:00003468       ?QueryInterface@?$CComContainedObject@VCOPOSBillAcceptor@@@ATL@@WOI@EAAJAEBU_GUID@@PEAPEAX@Z 0000000180004468 f i BillAcceptor.obj
 0001:00003474       ?AddRef@?$CComContainedObject@VCOPOSBillAcceptor@@@ATL@@WOI@EAAKXZ 0000000180004474 f i BillAcceptor.obj
 0001:00003480       ?Release@?$CComContainedObject@VCOPOSBillAcceptor@@@ATL@@WOI@EAAKXZ 0000000180004480 f i BillAcceptor.obj
 0001:0000348c       ?QueryInterface@?$CComContainedObject@VCOPOSBillAcceptor@@@ATL@@WPA@EAAJAEBU_GUID@@PEAPEAX@Z 000000018000448c f i BillAcceptor.obj
 0001:00003498       ?AddRef@?$CComContainedObject@VCOPOSBillAcceptor@@@ATL@@WPA@EAAKXZ 0000000180004498 f i BillAcceptor.obj
 0001:000034a4       ?Release@?$CComContainedObject@VCOPOSBillAcceptor@@@ATL@@WPA@EAAKXZ 00000001800044a4 f i BillAcceptor.obj
 0001:000034b0       ?QueryInterface@?$CComContainedObject@VCOPOSBillAcceptor@@@ATL@@WPI@EAAJAEBU_GUID@@PEAPEAX@Z 00000001800044b0 f i BillAcceptor.obj
 0001:000034bc       ?AddRef@?$CComContainedObject@VCOPOSBillAcceptor@@@ATL@@WPI@EAAKXZ 00000001800044bc f i BillAcceptor.obj
 0001:000034c8       ?Release@?$CComContainedObject@VCOPOSBillAcceptor@@@ATL@@WPI@EAAKXZ 00000001800044c8 f i BillAcceptor.obj
 0001:000034d4       ?QueryInterface@?$CComContainedObject@VCOPOSBillAcceptor@@@ATL@@WBAA@EAAJAEBU_GUID@@PEAPEAX@Z 00000001800044d4 f i BillAcceptor.obj
 0001:000034e0       ?AddRef@?$CComContainedObject@VCOPOSBillAcceptor@@@ATL@@WBAA@EAAKXZ 00000001800044e0 f i BillAcceptor.obj
 0001:000034ec       ?Release@?$CComContainedObject@VCOPOSBillAcceptor@@@ATL@@WBAA@EAAKXZ 00000001800044ec f i BillAcceptor.obj
 0001:000034f8       ?QueryInterface@?$CComContainedObject@VCOPOSBillAcceptor@@@ATL@@WBAI@EAAJAEBU_GUID@@PEAPEAX@Z 00000001800044f8 f i BillAcceptor.obj
 0001:00003504       ?AddRef@?$CComContainedObject@VCOPOSBillAcceptor@@@ATL@@WBAI@EAAKXZ 0000000180004504 f i BillAcceptor.obj
 0001:00003510       ?Release@?$CComContainedObject@VCOPOSBillAcceptor@@@ATL@@WBAI@EAAKXZ 0000000180004510 f i BillAcceptor.obj
 0001:0000351c       ?QueryInterface@?$CComContainedObject@VCOPOSBillAcceptor@@@ATL@@WBBA@EAAJAEBU_GUID@@PEAPEAX@Z 000000018000451c f i BillAcceptor.obj
 0001:00003528       ?AddRef@?$CComContainedObject@VCOPOSBillAcceptor@@@ATL@@WBBA@EAAKXZ 0000000180004528 f i BillAcceptor.obj
 0001:00003534       ?Release@?$CComContainedObject@VCOPOSBillAcceptor@@@ATL@@WBBA@EAAKXZ 0000000180004534 f i BillAcceptor.obj
 0001:00003540       ?QueryInterface@?$CComContainedObject@VCOPOSBillAcceptor@@@ATL@@WBBI@EAAJAEBU_GUID@@PEAPEAX@Z 0000000180004540 f i BillAcceptor.obj
 0001:0000354c       ?AddRef@?$CComContainedObject@VCOPOSBillAcceptor@@@ATL@@WBBI@EAAKXZ 000000018000454c f i BillAcceptor.obj
 0001:00003558       ?Release@?$CComContainedObject@VCOPOSBillAcceptor@@@ATL@@WBBI@EAAKXZ 0000000180004558 f i BillAcceptor.obj
 0001:00003564       ?AddRef@?$CComContainedObject@VCOPOSBillAcceptor@@@ATL@@WBCI@EAAKXZ 0000000180004564 f i BillAcceptor.obj
 0001:00003570       ?Release@?$CComContainedObject@VCOPOSBillAcceptor@@@ATL@@WBCI@EAAKXZ 0000000180004570 f i BillAcceptor.obj
 0001:0000357c       ?AddRef@?$CComContainedObject@VCOPOSBillAcceptor@@@ATL@@WBEA@EAAKXZ 000000018000457c f i BillAcceptor.obj
 0001:00003588       ?Release@?$CComContainedObject@VCOPOSBillAcceptor@@@ATL@@WBEA@EAAKXZ 0000000180004588 f i BillAcceptor.obj
 0001:00003594       ?CreateInstance@CComClassFactory@ATL@@UEAAJPEAUIUnknown@@AEBU_GUID@@PEAPEAX@Z 0000000180004594 f i BillAcceptor.obj
 0001:000035f4       ?LockServer@CComClassFactory@ATL@@UEAAJH@Z 00000001800045f4 f i BillAcceptor.obj
 0001:00003618       ??_GCComClassFactory@ATL@@UEAAPEAXI@Z 0000000180004618 f i BillAcceptor.obj
 0001:00003618       ??_ECComClassFactory@ATL@@UEAAPEAXI@Z 0000000180004618 f i BillAcceptor.obj
 0001:00003668       ??$AtlModuleRegisterWndClassInfoT@VAtlModuleRegisterWndClassInfoParamW@ATL@@@ATL@@YAGPEAU_ATL_BASE_MODULE70@0@PEAU_ATL_WIN_MODULE70@0@PEAU_ATL_WNDCLASSINFOW@0@PEAP6A_JPEAUHWND__@@I_K_J@ZVAtlModuleRegisterWndClassInfoParamW@0@@Z 0000000180004668 f i BillAcceptor.obj
 0001:00003868       ??0?$CComContainedObject@VCOPOSBillAcceptor@@@ATL@@QEAA@PEAX@Z 0000000180004868 f i BillAcceptor.obj
 0001:00003984       ??0?$CComObject@VCOPOSBillAcceptor@@@ATL@@QEAA@PEAX@Z 0000000180004984 f i BillAcceptor.obj
 0001:00003a9c       ??0CAtlModule@ATL@@QEAA@XZ 0000000180004a9c f i BillAcceptor.obj
 0001:00003b10       ??1?$CComEnumImpl@UIEnumConnectionPoints@@$1?_GUID_b196b285_bab4_101a_b69c_00aa00341d07@@3U__s_GUID@@BPEAUIConnectionPoint@@V?$_CopyInterface@UIConnectionPoint@@@ATL@@@ATL@@UEAA@XZ 0000000180004b10 f i BillAcceptor.obj
 0001:00003b6c       ??1?$CComEnumImpl@UIEnumConnections@@$1?_GUID_b196b287_bab4_101a_b69c_00aa00341d07@@3U__s_GUID@@BUtagCONNECTDATA@@V?$_Copy@UtagCONNECTDATA@@@ATL@@@ATL@@UEAA@XZ 0000000180004b6c f i BillAcceptor.obj
 0001:00003bc8       ??1?$CComObject@VCOPOSBillAcceptor@@@ATL@@UEAA@XZ 0000000180004bc8 f i BillAcceptor.obj
 0001:00003ce8       ??_G?$CComContainedObject@VCOPOSBillAcceptor@@@ATL@@UEAAPEAXI@Z 0000000180004ce8 f i BillAcceptor.obj
 0001:00003ce8       ??_E?$CComContainedObject@VCOPOSBillAcceptor@@@ATL@@UEAAPEAXI@Z 0000000180004ce8 f i BillAcceptor.obj
 0001:00003d1c       ??_E?$CComObject@VCOPOSBillAcceptor@@@ATL@@UEAAPEAXI@Z 0000000180004d1c f i BillAcceptor.obj
 0001:00003d1c       ??_G?$CComObject@VCOPOSBillAcceptor@@@ATL@@UEAAPEAXI@Z 0000000180004d1c f i BillAcceptor.obj
 0001:00003d50       ?Add@?$CSimpleArray@GV?$CSimpleArrayEqualHelper@G@ATL@@@ATL@@QEAAHAEBG@Z 0000000180004d50 f i BillAcceptor.obj
 0001:00003e04       ?Add@?$CSimpleMap@PEA_WPEA_WVCExpansionVectorEqualHelper@ATL@@@ATL@@QEAAHAEBQEA_W0@Z 0000000180004e04 f i BillAcceptor.obj
 0001:00003ea4       ?Add@CComDynamicUnkArray@ATL@@QEAAKPEAUIUnknown@@@Z 0000000180004ea4 f i BillAcceptor.obj
 0001:00003f90       ?Add@CExpansionVector@ATL@@QEAAHPEB_W0@Z 0000000180004f90 f i BillAcceptor.obj
 0001:000040c4       ?AddTermFunc@CAtlModule@ATL@@QEAAJP6AX_K@Z0@Z 00000001800050c4 f i BillAcceptor.obj
 0001:00004160       ?AddValue@CRegParser@ATL@@IEAAJAEAVCRegKey@2@PEB_WPEA_W@Z 0000000180005160 f i BillAcceptor.obj
 0001:000045a8       ?AllocateHeap@?$CTempBuffer@_W$0BAA@VCCRTAllocator@ATL@@@ATL@@AEAAX_K@Z 00000001800055a8 f i BillAcceptor.obj
 0001:000045a8       ?AllocateHeap@?$CTempBuffer@_W$0EAA@VCCRTAllocator@ATL@@@ATL@@AEAAX_K@Z 00000001800055a8 f i BillAcceptor.obj
 0001:000045a8       ?AllocateHeap@?$CTempBuffer@E$0BAA@VCCRTAllocator@ATL@@@ATL@@AEAAX_K@Z 00000001800055a8 f i BillAcceptor.obj
 0001:000045d4       ?Append@CParseBuffer@CRegParser@ATL@@QEAAHPEB_WH@Z 00000001800055d4 f i BillAcceptor.obj
 0001:0000471c       ?AtlComModuleGetClassObject@ATL@@YAJPEAU_ATL_COM_MODULE70@1@AEBU_GUID@@1PEAPEAX@Z 000000018000571c f i BillAcceptor.obj
 0001:0000485c       ?AtlComModuleRegisterServer@ATL@@YAJPEAU_ATL_COM_MODULE70@1@HPEBU_GUID@@@Z 000000018000585c f i BillAcceptor.obj
 0001:0000491c       ?AtlComModuleUnregisterServer@ATL@@YAJPEAU_ATL_COM_MODULE70@1@HPEBU_GUID@@@Z 000000018000591c f i BillAcceptor.obj
 0001:000049d8       ?AtlHiMetricToPixel@ATL@@YAXPEBUtagSIZE@@PEAU2@@Z 00000001800059d8 f i BillAcceptor.obj
 0001:00004a88       ?AtlHresultFromLastError@ATL@@YAJXZ 0000000180005a88 f i BillAcceptor.obj
 0001:00004aa8       ?AtlHresultFromWin32@ATL@@YAJK@Z 0000000180005aa8 f i BillAcceptor.obj
 0001:00004ab8       ?AtlInternalOleLoadFromStream@ATL@@YAJPEAUIStream@@AEBU_GUID@@PEAPEAXTClassesAllowedInStream@1@K@Z 0000000180005ab8 f i BillAcceptor.obj
 0001:00004bfc       ?AtlInternalQueryInterface@ATL@@YAJPEAXPEBU_ATL_INTMAP_ENTRY@1@AEBU_GUID@@PEAPEAX@Z 0000000180005bfc f i BillAcceptor.obj
 0001:00004d04       ?AtlLoadTypeLib@ATL@@YAJPEAUHINSTANCE__@@PEB_WPEAPEA_WPEAPEAUITypeLib@@@Z 0000000180005d04 f i BillAcceptor.obj
 0001:00004f60       ?AtlRegisterClassCategoriesHelper@ATL@@YAJAEBU_GUID@@PEBU_ATL_CATMAP_ENTRY@1@H@Z 0000000180005f60 f i BillAcceptor.obj
 0001:000053e4       ?AtlRegisterTypeLib@ATL@@YAJPEAUHINSTANCE__@@PEB_W@Z 00000001800063e4 f i BillAcceptor.obj
 0001:000055e0       ?AtlThrowImpl@ATL@@YAXJ@Z  00000001800065e0 f i BillAcceptor.obj
 0001:00005604       ?AtlUnRegisterTypeLib@ATL@@YAJPEAUHINSTANCE__@@PEB_W@Z 0000000180006604 f i BillAcceptor.obj
 0001:000056cc       ?AtlWinModuleExtractCreateWndData@ATL@@YAPEAXPEAU_ATL_WIN_MODULE70@1@@Z 00000001800066cc f i BillAcceptor.obj
 0001:00005758       ?Cleanup@CComTypeInfoHolder@ATL@@SAX_K@Z 0000000180006758 f i BillAcceptor.obj
 0001:00005798       ?ClearReplacements@CExpansionVector@ATL@@QEAAJXZ 0000000180006798 f i BillAcceptor.obj
 0001:00005834       ?CreateInstance@?$CComCreator@V?$CComAggObject@VCOPOSBillAcceptor@@@ATL@@@ATL@@SAJPEAXAEBU_GUID@@PEAPEAX@Z 0000000180006834 f i BillAcceptor.obj
 0001:00005918       ?CreateInstance@?$CComCreator@V?$CComObject@VCOPOSBillAcceptor@@@ATL@@@ATL@@SAJPEAXAEBU_GUID@@PEAPEAX@Z 0000000180006918 f i BillAcceptor.obj
 0001:000059cc       ?CreateInstance@?$CComObject@V?$CComEnum@UIEnumConnectionPoints@@$1?_GUID_b196b285_bab4_101a_b69c_00aa00341d07@@3U__s_GUID@@BPEAUIConnectionPoint@@V?$_CopyInterface@UIConnectionPoint@@@ATL@@VCComSingleThreadModel@6@@ATL@@@ATL@@SAJPEAPEAV12@@Z 00000001800069cc f i BillAcceptor.obj
 0001:00005a5c       ?CreateInstance@?$CComObject@V?$CComEnum@UIEnumConnections@@$1?_GUID_b196b287_bab4_101a_b69c_00aa00341d07@@3U__s_GUID@@BUtagCONNECTDATA@@V?$_Copy@UtagCONNECTDATA@@@ATL@@VCComSingleThreadModel@6@@ATL@@@ATL@@SAJPEAPEAV12@@Z 0000000180006a5c f i BillAcceptor.obj
 0001:00005aec       ?DefaultReflectionHandler@?$CWindowImplRoot@VCWindow@ATL@@@ATL@@SAHPEAUHWND__@@I_K_JAEA_J@Z 0000000180006aec f i BillAcceptor.obj
 0001:00005b50       ?DeleteSubKey@CRegKey@ATL@@QEAAJPEB_W@Z 0000000180006b50 f i BillAcceptor.obj
 0001:00005be8       ?DoEvent@COPOSBillAcceptor@@IEAAXI_K_J@Z 0000000180006be8 f i BillAcceptor.obj
 0001:00005c9c       ?DoVerbPrimary@?$IOleObjectImpl@VCOPOSBillAcceptor@@@ATL@@QEAAJPEBUtagRECT@@PEAUHWND__@@@Z 0000000180006c9c f i BillAcceptor.obj
 0001:00005dc8       ?DoVerbProperties@CComControlBase@ATL@@QEAAJPEBUtagRECT@@PEAUHWND__@@@Z 0000000180006dc8 f i BillAcceptor.obj
 0001:00005ff0       ?FireTheEvent@?$CProxy_IOPOSEvents@VCOPOSBillAcceptor@@@@IEAAXPEAVOposVariant@@IAEAJPEB_WJ@Z 0000000180006ff0 f i BillAcceptor.obj
 0001:000060dc       ?FireViewChange@CComControlBase@ATL@@QEAAJXZ 00000001800070dc f i BillAcceptor.obj
 0001:00006140       ?Fire_DataEvent@?$CProxy_IOPOSEvents@VCOPOSBillAcceptor@@@@QEAAXJ@Z 0000000180007140 f i BillAcceptor.obj
 0001:0000622c       ?Fire_DirectIOEvent@?$CProxy_IOPOSEvents@VCOPOSBillAcceptor@@@@QEAAXJPEAJPEAPEA_W@Z 000000018000722c f i BillAcceptor.obj
 0001:0000638c       ?Fire_StatusUpdateEvent@?$CProxy_IOPOSEvents@VCOPOSBillAcceptor@@@@QEAAXJ@Z 000000018000738c f i BillAcceptor.obj
 0001:00006478       ?FreeHeap@?$CTempBuffer@_W$0EAA@VCCRTAllocator@ATL@@@ATL@@AEAAXXZ 0000000180007478 f i BillAcceptor.obj
 0001:00006478       ?FreeHeap@?$CTempBuffer@E$0BAA@VCCRTAllocator@ATL@@@ATL@@AEAAXXZ 0000000180007478 f i BillAcceptor.obj
 0001:00006478       ?FreeHeap@?$CTempBuffer@_W$0BAA@VCCRTAllocator@ATL@@@ATL@@AEAAXXZ 0000000180007478 f i BillAcceptor.obj
 0001:00006480       ?GetAmbientLocaleID@CComControlBase@ATL@@QEAAJAEAK@Z 0000000180007480 f i BillAcceptor.obj
 0001:00006540       ?GetAmbientUserMode@CComControlBase@ATL@@QEAAJAEAH@Z 0000000180007540 f i BillAcceptor.obj
 0001:00006610       ?GetClassObject@CComModule@ATL@@QEAAJAEBU_GUID@@0PEAPEAX@Z 0000000180007610 f i BillAcceptor.obj
 0001:00006704       ?GetConnMap@COPOSBillAcceptor@@SAPEBU_ATL_CONNMAP_ENTRY@ATL@@PEAH@Z 0000000180007704 f i BillAcceptor.obj
 0001:0000678c       ?GetIDsOfNames@CComTypeInfoHolder@ATL@@QEAAJAEBU_GUID@@PEAPEA_WIKPEAJ@Z 000000018000778c f i BillAcceptor.obj
 0001:00006904       ?GetPagesHelper@?$ISpecifyPropertyPagesImpl@VCOPOSBillAcceptor@@@ATL@@IEAAJPEAUtagCAUUID@@PEBUATL_PROPMAP_ENTRY@2@@Z 0000000180007904 f i BillAcceptor.obj
 0001:00006aa4       ?GetSizeMax@CComVariant@ATL@@QEBAJPEAT_ULARGE_INTEGER@@@Z 0000000180007aa4 f i BillAcceptor.obj
 0001:00006cd4       ?GetTI@CComTypeInfoHolder@ATL@@QEAAJK@Z 0000000180007cd4 f i BillAcceptor.obj
 0001:00006fbc       ?GetZoomInfo@CComControlBase@ATL@@QEAAXAEAUATL_DRAWINFO@@@Z 0000000180007fbc f i BillAcceptor.obj
 0001:00007060       ?HKeyFromString@CRegParser@ATL@@KAPEAUHKEY__@@PEA_W@Z 0000000180008060 f i BillAcceptor.obj
 0001:000070c4       ?IDataObject_GetData@CComControlBase@ATL@@QEAAJPEAUtagFORMATETC@@PEAUtagSTGMEDIUM@@@Z 00000001800080c4 f i BillAcceptor.obj
 0001:000072b8       ?IOleInPlaceObject_InPlaceDeactivate@CComControlBase@ATL@@QEAAJXZ 00000001800082b8 f i BillAcceptor.obj
 0001:00007358       ?IOleInPlaceObject_SetObjectRects@CComControlBase@ATL@@QEAAJPEBUtagRECT@@0@Z 0000000180008358 f i BillAcceptor.obj
 0001:00007448       ?IOleInPlaceObject_UIDeactivate@CComControlBase@ATL@@QEAAJXZ 0000000180008448 f i BillAcceptor.obj
 0001:00007554       ?IOleObject_Close@CComControlBase@ATL@@QEAAJK@Z 0000000180008554 f i BillAcceptor.obj
 0001:0000766c       ?IOleObject_SetClientSite@CComControlBase@ATL@@QEAAJPEAUIOleClientSite@@@Z 000000018000866c f i BillAcceptor.obj
 0001:000076e4       ?IOleObject_SetExtent@CComControlBase@ATL@@QEAAJKPEAUtagSIZE@@@Z 00000001800086e4 f i BillAcceptor.obj
 0001:0000777c       ?IPSI_GetIPersistStreamInit@?$IPersistStorageImpl@VCOPOSBillAcceptor@@@ATL@@AEAAPEAUIPersistStreamInit@@XZ 000000018000877c f i BillAcceptor.obj
 0001:00007864       ?IPersistStreamInit_Load@?$IPersistStreamInitImpl@VCOPOSBillAcceptor@@@ATL@@QEAAJPEAUIStream@@PEBUATL_PROPMAP_ENTRY@2@@Z 0000000180008864 f i BillAcceptor.obj
 0001:00007b90       ?IPersistStreamInit_Save@?$IPersistStreamInitImpl@VCOPOSBillAcceptor@@@ATL@@QEAAJPEAUIStream@@HPEBUATL_PROPMAP_ENTRY@2@@Z 0000000180008b90 f i BillAcceptor.obj
 0001:00007e30       ?IQuickActivate_QuickActivate@CComControlBase@ATL@@QEAAJPEAUtagQACONTAINER@@PEAUtagQACONTROL@@@Z 0000000180008e30 f i BillAcceptor.obj
 0001:000080f4       ?IViewObject_Draw@CComControlBase@ATL@@QEAAJKJPEAXPEAUtagDVTARGETDEVICE@@PEAUHDC__@@2PEBU_RECTL@@3@Z 00000001800090f4 f i BillAcceptor.obj
 0001:00008208       ?InPlaceActivate@CComControlBase@ATL@@QEAAJJPEBUtagRECT@@@Z 0000000180009208 f i BillAcceptor.obj
 0001:0000853c       ?Init@?$CComEnumImpl@UIEnumConnectionPoints@@$1?_GUID_b196b285_bab4_101a_b69c_00aa00341d07@@3U__s_GUID@@BPEAUIConnectionPoint@@V?$_CopyInterface@UIConnectionPoint@@@ATL@@@ATL@@QEAAJPEAPEAUIConnectionPoint@@0PEAUIUnknown@@W4CComEnumFlags@2@@Z 000000018000953c f i BillAcceptor.obj
 0001:0000865c       ?Init@?$CComEnumImpl@UIEnumConnections@@$1?_GUID_b196b287_bab4_101a_b69c_00aa00341d07@@3U__s_GUID@@BUtagCONNECTDATA@@V?$_Copy@UtagCONNECTDATA@@@ATL@@@ATL@@QEAAJPEAUtagCONNECTDATA@@0PEAUIUnknown@@W4CComEnumFlags@2@@Z 000000018000965c f i BillAcceptor.obj
 0001:00008780       ?IsEqualObject@?$CComPtrBase@UIOleClientSite@@@ATL@@QEAA_NPEAUIUnknown@@@Z 0000000180009780 f i BillAcceptor.obj
 0001:0000880c       ?LoadNameCache@CComTypeInfoHolder@ATL@@QEAAJPEAUITypeInfo@@@Z 000000018000980c f i BillAcceptor.obj
 0001:0000898c       ?Lookup@?$CSimpleMap@PEA_WPEA_WVCExpansionVectorEqualHelper@ATL@@@ATL@@QEBAPEA_WAEBQEA_W@Z 000000018000998c f i BillAcceptor.obj
 0001:00008a14       ?NextToken@CRegParser@ATL@@IEAAJPEA_W@Z 0000000180009a14 f i BillAcceptor.obj
 0001:00008bcc       ?OnKillFocus@CComControlBase@ATL@@QEAA_JI_K_JAEAH@Z 0000000180009bcc f i BillAcceptor.obj
 0001:00008c68       ?OnMouseActivate@CComControlBase@ATL@@QEAA_JI_K_JAEAH@Z 0000000180009c68 f i BillAcceptor.obj
 0001:00008d08       ?OnPaint@CComControlBase@ATL@@QEAA_JI_K_JAEAH@Z 0000000180009d08 f i BillAcceptor.obj
 0001:00008df4       ?OnSetFocus@CComControlBase@ATL@@QEAA_JI_K_JAEAH@Z 0000000180009df4 f i BillAcceptor.obj
 0001:00008ef0       ?PreProcessBuffer@CRegParser@ATL@@QEAAJPEA_WPEAPEA_W@Z 0000000180009ef0 f i BillAcceptor.obj
 0001:0000927c       ?ProcessWindowMessage@?$CComControl@VCOPOSBillAcceptor@@V?$CWindowImpl@VCOPOSBillAcceptor@@VCWindow@ATL@@V?$CWinTraits@$0FGAAAAAA@$0A@@3@@ATL@@@ATL@@UEAAHPEAUHWND__@@I_K_JAEA_JK@Z 000000018000a27c f i BillAcceptor.obj
 0001:00009360       ?ReadFromStream@CComBSTR@ATL@@QEAAJPEAUIStream@@@Z 000000018000a360 f i BillAcceptor.obj
 0001:000094b0       ?ReadFromStream@CComVariant@ATL@@QEAAJPEAUIStream@@GTClassesAllowedInStream@2@K@Z 000000018000a4b0 f i BillAcceptor.obj
 0001:000096d4       ?RecurseDeleteKey@CRegKey@ATL@@QEAAJPEB_W@Z 000000018000a6d4 f i BillAcceptor.obj
 0001:0000982c       ?RegCreateKeyExW@CAtlTransactionManager@ATL@@QEAAJPEAUHKEY__@@PEB_WKPEA_WKKQEAU_SECURITY_ATTRIBUTES@@PEAPEAU3@PEAK@Z 000000018000a82c f i BillAcceptor.obj
 0001:00009960       ?RegDeleteKeyW@CAtlTransactionManager@ATL@@QEAAJPEAUHKEY__@@PEB_W@Z 000000018000a960 f i BillAcceptor.obj
 0001:000099ec       ?RegOpenKeyExW@CAtlTransactionManager@ATL@@QEAAJPEAUHKEY__@@PEB_WKKPEAPEAU3@@Z 000000018000a9ec f i BillAcceptor.obj
 0001:00009aa4       ?RegisterBuffer@CRegParser@ATL@@QEAAJPEA_WH@Z 000000018000aaa4 f i BillAcceptor.obj
 0001:00009c0c       ?RegisterFromResource@CRegObject@ATL@@IEAAJPEB_W00H@Z 000000018000ac0c f i BillAcceptor.obj
 0001:00009dc8       ?RegisterServer@CComModule@ATL@@QEAAJHPEBU_GUID@@@Z 000000018000adc8 f i BillAcceptor.obj
 0001:00009e88       ?RegisterSubkeys@CRegParser@ATL@@IEAAJPEA_WPEAUHKEY__@@HH@Z 000000018000ae88 f i BillAcceptor.obj
 0001:0000a6f4       ?SendOnDataChange@CComControlBase@ATL@@QEAAJK@Z 000000018000b6f4 f i BillAcceptor.obj
 0001:0000a764       ?SetControlFocus@CComControlBase@ATL@@QEAAHH@Z 000000018000b764 f i BillAcceptor.obj
 0001:0000a840       ?SkipAssignment@CRegParser@ATL@@IEAAJPEA_W@Z 000000018000b840 f i BillAcceptor.obj
 0001:0000a8e4       ?Term@CAtlModule@ATL@@QEAAXXZ 000000018000b8e4 f i BillAcceptor.obj
 0001:0000a964       ?Term@CComModule@ATL@@QEAAXXZ 000000018000b964 f i BillAcceptor.obj
 0001:0000a9e0       ?UnregisterServer@CComModule@ATL@@QEAAJHPEBU_GUID@@@Z 000000018000b9e0 f i BillAcceptor.obj
 0001:0000aa90       ?UpdateRegistryFromResource@CAtlModule@ATL@@QEAAJIHPEAU_ATL_REGMAP_ENTRY@2@@Z 000000018000ba90 f i BillAcceptor.obj
 0001:0000ad9c       ?UpdateRegistryFromResource@CAtlModule@ATL@@QEAAJPEB_WHPEAU_ATL_REGMAP_ENTRY@2@@Z 000000018000bd9c f i BillAcceptor.obj
 0001:0000b0c0       ?VTFromRegType@CRegParser@ATL@@KAHPEB_WAEAG@Z 000000018000c0c0 f i BillAcceptor.obj
 0001:0000b15c       ?WindowProc@?$CWindowImplBaseT@VCWindow@ATL@@V?$CWinTraits@$0FGAAAAAA@$0A@@2@@ATL@@SA_JPEAUHWND__@@I_K_J@Z 000000018000c15c f i BillAcceptor.obj
 0001:0000b2c8       ?WriteToStream@CComVariant@ATL@@QEAAJPEAUIStream@@@Z 000000018000c2c8 f i BillAcceptor.obj
 0001:0000b544       ?WriteToStream@CComVariant@ATL@@QEAAJPEAUIStream@@G@Z 000000018000c544 f i BillAcceptor.obj
 0001:0000b5dc       ?_AtlVerifyStackAvailable@_ATL_SAFE_ALLOCA_IMPL@ATL@@YA_N_K@Z 000000018000c5dc f i BillAcceptor.obj
 0001:0000b660       ?atlCreate@?$CWindowImpl@VCOPOSBillAcceptor@@VCWindow@ATL@@V?$CWinTraits@$0FGAAAAAA@$0A@@3@@ATL@@QEAAPEAUHWND__@@PEAU3@V_U_RECT@2@PEB_WKKV_U_MENUorID@2@PEAX@Z 000000018000c660 f i BillAcceptor.obj
 0001:0000b710       ?atlCreate@?$CWindowImplBaseT@VCWindow@ATL@@V?$CWinTraits@$0FGAAAAAA@$0A@@2@@ATL@@QEAAPEAUHWND__@@PEAU3@V_U_RECT@2@PEB_WKKV_U_MENUorID@2@GPEAX@Z 000000018000c710 f i BillAcceptor.obj
 0001:0000b880       ?ocscpy_s@@YA_NPEA_W_KPEB_W@Z 000000018000c880 f i BillAcceptor.obj
 0001:0000b930       DllCanUnloadNow            000000018000c930 f   BillAcceptor.obj
 0001:0000b93c       DllGetClassObject          000000018000c93c f   BillAcceptor.obj
 0001:0000b954       DllMain                    000000018000c954 f   BillAcceptor.obj
 0001:0000b9fc       DllRegisterServer          000000018000c9fc f   BillAcceptor.obj
 0001:0000ba10       DllUnregisterServer        000000018000ca10 f   BillAcceptor.obj
 0001:0000ba24       __local_stdio_printf_options 000000018000ca24 f i BillAcceptor.obj
 0001:0000ba2c       swprintf_s                 000000018000ca2c f i BillAcceptor.obj
 0001:0000ba80       ??0COPOSBillAcceptor@@QEAA@XZ 000000018000ca80 f   BillAcceptorImpl.obj
 0001:0000bb44       ??1?$IConnectionPointImpl@VCOPOSBillAcceptor@@$1?DIID__IOPOSBillAcceptorEvents@@3U_GUID@@BVCComDynamicUnkArray@ATL@@@ATL@@QEAA@XZ 000000018000cb44 f i BillAcceptorImpl.obj
 0001:0000bb44       ??1?$IConnectionPointImpl@VCOPOSBillAcceptor@@$1?IID_IPropertyNotifySink@@3U_GUID@@BVCComDynamicUnkArray@ATL@@@ATL@@QEAA@XZ 000000018000cb44 f i BillAcceptorImpl.obj
 0001:0000bba0       ??1CComControlBase@ATL@@UEAA@XZ 000000018000cba0 f i BillAcceptorImpl.obj
 0001:0000bc1c       ??1COPOSBillAcceptor@@UEAA@XZ 000000018000cc1c f   BillAcceptorImpl.obj
 0001:0000bc80       ?AdjustCashCounts@COPOSBillAcceptor@@UEAAJPEA_WPEAJ@Z 000000018000cc80 f   BillAcceptorImpl.obj
 0001:0000bd08       ?BeginDeposit@COPOSBillAcceptor@@UEAAJPEAJ@Z 000000018000cd08 f   BillAcceptorImpl.obj
 0001:0000bd30       ?CheckHealth@COPOSBillAcceptor@@UEAAJJPEAJ@Z 000000018000cd30 f   BillAcceptorImpl.obj
 0001:0000bdac       ?ClaimDevice@COPOSBillAcceptor@@UEAAJJPEAJ@Z 000000018000cdac f   BillAcceptorImpl.obj
 0001:0000be4c       ?ClearInput@COPOSBillAcceptor@@UEAAJPEAJ@Z 000000018000ce4c f   BillAcceptorImpl.obj
 0001:0000be74       ?Close@COPOSBillAcceptor@@UEAAJPEAJ@Z 000000018000ce74 f   BillAcceptorImpl.obj
 0001:0000bf2c       ?CompareFirmwareVersion@COPOSBillAcceptor@@UEAAJPEA_WPEAJ1@Z 000000018000cf2c f   BillAcceptorImpl.obj
 0001:0000c008       ?DirectIO@COPOSBillAcceptor@@UEAAJJPEAJPEAPEA_W0@Z 000000018000d008 f   BillAcceptorImpl.obj
 0001:0000c104       ?DoInvoke@COPOSBillAcceptor@@IEAAJJPEAVOposVariant@@IHPEAJ_N@Z 000000018000d104 f   BillAcceptorImpl.obj
 0001:0000c238       ?EndDeposit@COPOSBillAcceptor@@UEAAJJPEAJ@Z 000000018000d238 f   BillAcceptorImpl.obj
 0001:0000c2b4       ?EventInit@COPOSBillAcceptor@@IEAAJXZ 000000018000d2b4 f i BillAcceptorImpl.obj
 0001:0000c3fc       ?EventUninit@COPOSBillAcceptor@@IEAAXXZ 000000018000d3fc f i BillAcceptorImpl.obj
 0001:0000c460       ?EventWindowProc@COPOSBillAcceptor@@IEAA_JI_K_J@Z 000000018000d460 f i BillAcceptorImpl.obj
 0001:0000c570       ?FinalConstruct@COPOSBillAcceptor@@QEAAJXZ 000000018000d570 f   BillAcceptorImpl.obj
 0001:0000c5ac       ?FixDeposit@COPOSBillAcceptor@@UEAAJPEAJ@Z 000000018000d5ac f   BillAcceptorImpl.obj
 0001:0000c5d4       ?FreezeEvents@COPOSBillAcceptor@@MEAAJH@Z 000000018000d5d4 f   BillAcceptorImpl.obj
 0001:0000c648       ?GetOposProp@COPOSBillAcceptor@@IEAAJJPEAJJ@Z 000000018000d648 f   BillAcceptorImpl.obj
 0001:0000c764       ?GetOposProp@COPOSBillAcceptor@@IEAAJJPEAPEA_WJ@Z 000000018000d764 f   BillAcceptorImpl.obj
 0001:0000c890       ?OnDraw@COPOSBillAcceptor@@MEAAJAEAUATL_DRAWINFO@@@Z 000000018000d890 f   BillAcceptorImpl.obj
 0001:0000c97c       ?Open@COPOSBillAcceptor@@UEAAJPEA_WPEAJ@Z 000000018000d97c f   BillAcceptorImpl.obj
 0001:0000d204       ?PauseDeposit@COPOSBillAcceptor@@UEAAJJPEAJ@Z 000000018000e204 f   BillAcceptorImpl.obj
 0001:0000d280       ?ReadCashCounts@COPOSBillAcceptor@@UEAAJPEAPEA_WPEAFPEAJ@Z 000000018000e280 f   BillAcceptorImpl.obj
 0001:0000d35c       ?ReleaseDevice@COPOSBillAcceptor@@UEAAJPEAJ@Z 000000018000e35c f   BillAcceptorImpl.obj
 0001:0000d3c8       ?ResetStatistics@COPOSBillAcceptor@@UEAAJPEA_WPEAJ@Z 000000018000e3c8 f   BillAcceptorImpl.obj
 0001:0000d450       ?RetrieveStatistics@COPOSBillAcceptor@@UEAAJPEAPEA_WPEAJ@Z 000000018000e450 f   BillAcceptorImpl.obj
 0001:0000d4d8       ?SOProcessID@COPOSBillAcceptor@@UEAAJPEAJ@Z 000000018000e4d8 f   BillAcceptorImpl.obj
 0001:0000d4f4       ?SetCOFreezeEvents@COPOSBillAcceptor@@IEAAXF@Z 000000018000e4f4 f   BillAcceptorImpl.obj
 0001:0000d5d8       ?SetOposProp@COPOSBillAcceptor@@IEAAJJJJ@Z 000000018000e5d8 f   BillAcceptorImpl.obj
 0001:0000d738       ?SetOposProp@COPOSBillAcceptor@@IEAAJJPEA_WJ@Z 000000018000e738 f   BillAcceptorImpl.obj
 0001:0000d890       ?UpdateFirmware@COPOSBillAcceptor@@UEAAJPEA_WPEAJ@Z 000000018000e890 f   BillAcceptorImpl.obj
 0001:0000d918       ?UpdateStatistics@COPOSBillAcceptor@@UEAAJPEA_WPEAJ@Z 000000018000e918 f   BillAcceptorImpl.obj
 0001:0000d9a0       ?get_BinaryConversion@COPOSBillAcceptor@@UEAAJPEAJ@Z 000000018000e9a0 f   BillAcceptorImpl.obj
 0001:0000d9b4       ?get_CapCompareFirmwareVersion@COPOSBillAcceptor@@UEAAJPEAF@Z 000000018000e9b4 f   BillAcceptorImpl.obj
 0001:0000d9e8       ?get_CapDiscrepancy@COPOSBillAcceptor@@UEAAJPEAF@Z 000000018000e9e8 f   BillAcceptorImpl.obj
 0001:0000da1c       ?get_CapFullSensor@COPOSBillAcceptor@@UEAAJPEAF@Z 000000018000ea1c f   BillAcceptorImpl.obj
 0001:0000da50       ?get_CapJamSensor@COPOSBillAcceptor@@UEAAJPEAF@Z 000000018000ea50 f   BillAcceptorImpl.obj
 0001:0000da84       ?get_CapNearFullSensor@COPOSBillAcceptor@@UEAAJPEAF@Z 000000018000ea84 f   BillAcceptorImpl.obj
 0001:0000dab8       ?get_CapPauseDeposit@COPOSBillAcceptor@@UEAAJPEAF@Z 000000018000eab8 f   BillAcceptorImpl.obj
 0001:0000daec       ?get_CapPowerReporting@COPOSBillAcceptor@@UEAAJPEAJ@Z 000000018000eaec f   BillAcceptorImpl.obj
 0001:0000db00       ?get_CapRealTimeData@COPOSBillAcceptor@@UEAAJPEAF@Z 000000018000eb00 f   BillAcceptorImpl.obj
 0001:0000db34       ?get_CapStatisticsReporting@COPOSBillAcceptor@@UEAAJPEAF@Z 000000018000eb34 f   BillAcceptorImpl.obj
 0001:0000db68       ?get_CapUpdateFirmware@COPOSBillAcceptor@@UEAAJPEAF@Z 000000018000eb68 f   BillAcceptorImpl.obj
 0001:0000db9c       ?get_CapUpdateStatistics@COPOSBillAcceptor@@UEAAJPEAF@Z 000000018000eb9c f   BillAcceptorImpl.obj
 0001:0000dbd0       ?get_CheckHealthText@COPOSBillAcceptor@@UEAAJPEAPEA_W@Z 000000018000ebd0 f   BillAcceptorImpl.obj
 0001:0000dbe4       ?get_Claimed@COPOSBillAcceptor@@UEAAJPEAF@Z 000000018000ebe4 f   BillAcceptorImpl.obj
 0001:0000dc18       ?get_ControlObjectDescription@COPOSBillAcceptor@@UEAAJPEAPEA_W@Z 000000018000ec18 f   BillAcceptorImpl.obj
 0001:0000dc7c       ?get_ControlObjectVersion@COPOSBillAcceptor@@UEAAJPEAJ@Z 000000018000ec7c f   BillAcceptorImpl.obj
 0001:0000dc88       ?get_CurrencyCode@COPOSBillAcceptor@@UEAAJPEAPEA_W@Z 000000018000ec88 f   BillAcceptorImpl.obj
 0001:0000dc9c       ?get_DataCount@COPOSBillAcceptor@@UEAAJPEAJ@Z 000000018000ec9c f   BillAcceptorImpl.obj
 0001:0000dcb0       ?get_DataEventEnabled@COPOSBillAcceptor@@UEAAJPEAF@Z 000000018000ecb0 f   BillAcceptorImpl.obj
 0001:0000dce4       ?get_DepositAmount@COPOSBillAcceptor@@UEAAJPEAJ@Z 000000018000ece4 f   BillAcceptorImpl.obj
 0001:0000dcf8       ?get_DepositCashList@COPOSBillAcceptor@@UEAAJPEAPEA_W@Z 000000018000ecf8 f   BillAcceptorImpl.obj
 0001:0000dd0c       ?get_DepositCodeList@COPOSBillAcceptor@@UEAAJPEAPEA_W@Z 000000018000ed0c f   BillAcceptorImpl.obj
 0001:0000dd20       ?get_DepositCounts@COPOSBillAcceptor@@UEAAJPEAPEA_W@Z 000000018000ed20 f   BillAcceptorImpl.obj
 0001:0000dd34       ?get_DepositStatus@COPOSBillAcceptor@@UEAAJPEAJ@Z 000000018000ed34 f   BillAcceptorImpl.obj
 0001:0000dd48       ?get_DeviceDescription@COPOSBillAcceptor@@UEAAJPEAPEA_W@Z 000000018000ed48 f   BillAcceptorImpl.obj
 0001:0000dd5c       ?get_DeviceEnabled@COPOSBillAcceptor@@UEAAJPEAF@Z 000000018000ed5c f   BillAcceptorImpl.obj
 0001:0000dd90       ?get_DeviceName@COPOSBillAcceptor@@UEAAJPEAPEA_W@Z 000000018000ed90 f   BillAcceptorImpl.obj
 0001:0000dda4       ?get_FreezeEvents@COPOSBillAcceptor@@UEAAJPEAF@Z 000000018000eda4 f   BillAcceptorImpl.obj
 0001:0000ddd4       ?get_FullStatus@COPOSBillAcceptor@@UEAAJPEAJ@Z 000000018000edd4 f   BillAcceptorImpl.obj
 0001:0000dde8       ?get_OpenResult@COPOSBillAcceptor@@UEAAJPEAJ@Z 000000018000ede8 f   BillAcceptorImpl.obj
 0001:0000ddf4       ?get_PowerNotify@COPOSBillAcceptor@@UEAAJPEAJ@Z 000000018000edf4 f   BillAcceptorImpl.obj
 0001:0000de08       ?get_PowerState@COPOSBillAcceptor@@UEAAJPEAJ@Z 000000018000ee08 f   BillAcceptorImpl.obj
 0001:0000de1c       ?get_RealTimeDataEnabled@COPOSBillAcceptor@@UEAAJPEAF@Z 000000018000ee1c f   BillAcceptorImpl.obj
 0001:0000de50       ?get_ResultCode@COPOSBillAcceptor@@UEAAJPEAJ@Z 000000018000ee50 f   BillAcceptorImpl.obj
 0001:0000de8c       ?get_ResultCodeExtended@COPOSBillAcceptor@@UEAAJPEAJ@Z 000000018000ee8c f   BillAcceptorImpl.obj
 0001:0000dea0       ?get_ServiceObjectDescription@COPOSBillAcceptor@@UEAAJPEAPEA_W@Z 000000018000eea0 f   BillAcceptorImpl.obj
 0001:0000deb4       ?get_ServiceObjectVersion@COPOSBillAcceptor@@UEAAJPEAJ@Z 000000018000eeb4 f   BillAcceptorImpl.obj
 0001:0000dec8       ?get_State@COPOSBillAcceptor@@UEAAJPEAJ@Z 000000018000eec8 f   BillAcceptorImpl.obj
 0001:0000def4       ?put_BinaryConversion@COPOSBillAcceptor@@UEAAJJ@Z 000000018000eef4 f   BillAcceptorImpl.obj
 0001:0000df08       ?put_CurrencyCode@COPOSBillAcceptor@@UEAAJPEA_W@Z 000000018000ef08 f   BillAcceptorImpl.obj
 0001:0000df1c       ?put_DataEventEnabled@COPOSBillAcceptor@@UEAAJF@Z 000000018000ef1c f   BillAcceptorImpl.obj
 0001:0000df34       ?put_DeviceEnabled@COPOSBillAcceptor@@UEAAJF@Z 000000018000ef34 f   BillAcceptorImpl.obj
 0001:0000df4c       ?put_FreezeEvents@COPOSBillAcceptor@@UEAAJF@Z 000000018000ef4c f   BillAcceptorImpl.obj
 0001:0000df9c       ?put_PowerNotify@COPOSBillAcceptor@@UEAAJJ@Z 000000018000ef9c f   BillAcceptorImpl.obj
 0001:0000dfb0       ?put_RealTimeDataEnabled@COPOSBillAcceptor@@UEAAJF@Z 000000018000efb0 f   BillAcceptorImpl.obj
 0001:0000dfcc       ?s_EventWindowProc@COPOSBillAcceptor@@KA_JPEAUHWND__@@I_K_J@Z 000000018000efcc f i BillAcceptorImpl.obj
 0001:0000e048       ??_U@YAPEAX_K@Z            000000018000f048 f   LIBCMT:new_array.obj
 0001:0000e050       ??_V@YAXPEAX@Z             000000018000f050 f   LIBCMT:delete_array.obj
 0001:0000e050       ??3@YAXPEAX_K@Z            000000018000f050 f   LIBCMT:delete_scalar_size.obj
 0001:0000e058       ??_V@YAXPEAX_K@Z           000000018000f058 f   LIBCMT:delete_array_size.obj
 0001:0000e060       __scrt_acquire_startup_lock 000000018000f060 f   LIBCMT:utility.obj
 0001:0000e09c       __scrt_dllmain_after_initialize_c 000000018000f09c f   LIBCMT:utility.obj
 0001:0000e0d0       __scrt_dllmain_before_initialize_c 000000018000f0d0 f   LIBCMT:utility.obj
 0001:0000e0e8       __scrt_dllmain_crt_thread_attach 000000018000f0e8 f   LIBCMT:utility.obj
 0001:0000e110       __scrt_dllmain_crt_thread_detach 000000018000f110 f   LIBCMT:utility.obj
 0001:0000e128       __scrt_dllmain_exception_filter 000000018000f128 f   LIBCMT:utility.obj
 0001:0000e188       __scrt_dllmain_uninitialize_c 000000018000f188 f   LIBCMT:utility.obj
 0001:0000e1b8       __scrt_dllmain_uninitialize_critical 000000018000f1b8 f   LIBCMT:utility.obj
 0001:0000e1cc       __scrt_initialize_crt      000000018000f1cc f   LIBCMT:utility.obj
 0001:0000e218       __scrt_initialize_onexit_tables 000000018000f218 f   LIBCMT:utility.obj
 0001:0000e2a4       __scrt_is_nonwritable_in_current_image 000000018000f2a4 f   LIBCMT:utility.obj
 0001:0000e33c       __scrt_release_startup_lock 000000018000f33c f   LIBCMT:utility.obj
 0001:0000e360       __scrt_uninitialize_crt    000000018000f360 f   LIBCMT:utility.obj
 0001:0000e38c       _onexit                    000000018000f38c f   LIBCMT:utility.obj
 0001:0000e3c8       atexit                     000000018000f3c8 f   LIBCMT:utility.obj
 0001:0000e3e0       ??3@YAXPEAX@Z              000000018000f3e0 f   LIBCMT:delete_scalar.obj
 0001:0000e4e0       _Init_thread_footer        000000018000f4e0 f   LIBCMT:thread_safe_statics.obj
 0001:0000e540       _Init_thread_header        000000018000f540 f   LIBCMT:thread_safe_statics.obj
 0001:0000e5a8       _Init_thread_notify        000000018000f5a8 f   LIBCMT:thread_safe_statics.obj
 0001:0000e5ec       _Init_thread_wait          000000018000f5ec f   LIBCMT:thread_safe_statics.obj
 0001:0000e650       __raise_securityfailure    000000018000f650 f   LIBCMT:gs_report.obj
 0001:0000e684       __report_gsfailure         000000018000f684 f   LIBCMT:gs_report.obj
 0001:0000e758       __report_rangecheckfailure 000000018000f758 f   LIBCMT:gs_report.obj
 0001:0000e76c       __report_securityfailure   000000018000f76c f   LIBCMT:gs_report.obj
 0001:0000e8ec       ??2@YAPEAX_KAEBUnothrow_t@std@@@Z 000000018000f8ec f   LIBCMT:new_scalar_nothrow.obj
 0001:0000e900       ??_U@YAPEAX_KAEBUnothrow_t@std@@@Z 000000018000f900 f   LIBCMT:new_array_nothrow.obj
 0001:0000e908       __GSHandlerCheck           000000018000f908 f   LIBCMT:gshandler.obj
 0001:0000e928       __GSHandlerCheckCommon     000000018000f928 f   LIBCMT:gshandler.obj
 0001:0000e984       __GSHandlerCheck_SEH       000000018000f984 f   LIBCMT:gshandlerseh.obj
 0001:0000ea20       __chkstk                   000000018000fa20 f   LIBCMT:chkstk.obj
 0001:0000ea20       _alloca_probe              000000018000fa20 f   LIBCMT:chkstk.obj
 0001:0000ea90       __security_check_cookie    000000018000fa90 f   LIBCMT:amdsecgs.obj
 0001:0000edd4       _DllMainCRTStartup         000000018000fdd4 f   LIBCMT:dll_dllmain.obj
 0001:0000ee14       ??2@YAPEAX_K@Z             000000018000fe14 f   LIBCMT:new_scalar.obj
 0001:0000ee50       __isa_available_init       000000018000fe50 f   LIBCMT:cpu_disp.obj
 0001:0000eff4       __scrt_is_ucrt_dll_in_use  000000018000fff4 f   LIBCMT:ucrt_detection.obj
 0001:0000f000       __crt_debugger_hook        0000000180010000 f   LIBCMT:utility_desktop.obj
 0001:0000f008       __scrt_fastfail            0000000180010008 f   LIBCMT:utility_desktop.obj
 0001:0000f154       __security_init_cookie     0000000180010154 f   LIBCMT:gs_support.obj
 0001:0000f200       ?__scrt_initialize_type_info@@YAXXZ 0000000180010200 f   LIBCMT:tncleanup.obj
 0001:0000f210       ?__scrt_uninitialize_type_info@@YAXXZ 0000000180010210 f   LIBCMT:tncleanup.obj
 0001:0000f21c       __local_stdio_scanf_options 000000018001021c f i LIBCMT:default_local_stdio_options.obj
 0001:0000f224       __scrt_initialize_default_local_stdio_options 0000000180010224 f   LIBCMT:default_local_stdio_options.obj
 0001:0000f240       __scrt_get_dyn_tls_init_callback 0000000180010240 f   LIBCMT:dyn_tls_init.obj
 0001:0000f248       _RTC_Initialize            0000000180010248 f   LIBCMT:initsect.obj
 0001:0000f284       _RTC_Terminate             0000000180010284 f   LIBCMT:initsect.obj
 0001:0000f2c0       ??0bad_alloc@std@@QEAA@AEBV01@@Z 00000001800102c0 f i LIBCMT:throw_bad_alloc.obj
 0001:0000f2fc       ??0bad_alloc@std@@QEAA@XZ  00000001800102fc f i LIBCMT:throw_bad_alloc.obj
 0001:0000f31c       ??0bad_array_new_length@std@@QEAA@AEBV01@@Z 000000018001031c f i LIBCMT:throw_bad_alloc.obj
 0001:0000f358       ??0bad_array_new_length@std@@QEAA@XZ 0000000180010358 f i LIBCMT:throw_bad_alloc.obj
 0001:0000f378       ??0exception@std@@QEAA@AEBV01@@Z 0000000180010378 f i LIBCMT:throw_bad_alloc.obj
 0001:0000f3ac       ??1bad_array_new_length@std@@UEAA@XZ 00000001800103ac f i LIBCMT:throw_bad_alloc.obj
 0001:0000f3ac       ??1bad_alloc@std@@UEAA@XZ  00000001800103ac f i LIBCMT:throw_bad_alloc.obj
 0001:0000f3ac       ??1bad_exception@std@@UEAA@XZ 00000001800103ac f i libvcruntime:frame.obj
 0001:0000f3c0       ??_Ebad_alloc@std@@UEAAPEAXI@Z 00000001800103c0 f i LIBCMT:throw_bad_alloc.obj
 0001:0000f3c0       ??_Gbad_array_new_length@std@@UEAAPEAXI@Z 00000001800103c0 f i LIBCMT:throw_bad_alloc.obj
 0001:0000f3c0       ??_Gexception@std@@UEAAPEAXI@Z 00000001800103c0 f i LIBCMT:throw_bad_alloc.obj
 0001:0000f3c0       ??_Gbad_exception@std@@UEAAPEAXI@Z 00000001800103c0 f i libvcruntime:frame.obj
 0001:0000f3c0       ??_Ebad_array_new_length@std@@UEAAPEAXI@Z 00000001800103c0 f i LIBCMT:throw_bad_alloc.obj
 0001:0000f3c0       ??_Ebad_exception@std@@UEAAPEAXI@Z 00000001800103c0 f i libvcruntime:frame.obj
 0001:0000f3c0       ??_Gbad_alloc@std@@UEAAPEAXI@Z 00000001800103c0 f i LIBCMT:throw_bad_alloc.obj
 0001:0000f3c0       ??_Eexception@std@@UEAAPEAXI@Z 00000001800103c0 f i LIBCMT:throw_bad_alloc.obj
 0001:0000f404       ?__scrt_throw_std_bad_alloc@@YAXXZ 0000000180010404 f   LIBCMT:throw_bad_alloc.obj
 0001:0000f424       ?__scrt_throw_std_bad_array_new_length@@YAXXZ 0000000180010424 f   LIBCMT:throw_bad_alloc.obj
 0001:0000f444       ?what@exception@std@@UEBAPEBDXZ 0000000180010444 f i LIBCMT:throw_bad_alloc.obj
 0001:0000f460       ??_Gtype_info@@UEAAPEAXI@Z 0000000180010460 f i LIBCMT:std_type_info_static.obj
 0001:0000f460       ??_Etype_info@@UEAAPEAXI@Z 0000000180010460 f i LIBCMT:std_type_info_static.obj
 0001:0000f48c       ??0CAtlBaseModule@ATL@@QEAA@XZ 000000018001048c f   atls:atlbase.obj
 0001:0000f534       ??1CAtlBaseModule@ATL@@QEAA@XZ 0000000180010534 f   atls:atlbase.obj
 0001:0000f668       ?__AllocStdCallThunk_cmn@@YAPEAXXZ 0000000180010668 f   atls:atlthunk.obj
 0001:0000f7c0       AtlThunk_AllocateData      00000001800107c0 f   atls:atlthunk.obj
 0001:0000f83c       AtlThunk_DataToCode        000000018001083c f   atls:atlthunk.obj
 0001:0000f890       AtlThunk_FreeData          0000000180010890 f   atls:atlthunk.obj
 0001:0000f8f0       AtlThunk_InitData          00000001800108f0 f   atls:atlthunk.obj
 0001:0000f998       _get_purecall_handler      0000000180010998 f   libvcruntime:purevirt.obj
 0001:0000f9a0       _purecall                  00000001800109a0 f   libvcruntime:purevirt.obj
 0001:0000f9bc       wcsstr                     00000001800109bc f   libvcruntime:wcsstr.obj
 0001:0000fbf0       memcmp                     0000000180010bf0 f   libvcruntime:memcmp.obj
 0001:0000fcd0       memcpy_repmovs             0000000180010cd0 f   libvcruntime:memcpy.obj
 0001:0000fcf0       memmove                    0000000180010cf0 f   libvcruntime:memcpy.obj
 0001:0000fcf0       memcpy                     0000000180010cf0 f   libvcruntime:memcpy.obj
 0001:000100e0       memset_repmovs             00000001800110e0 f   libvcruntime:memset.obj
 0001:00010100       memset                     0000000180011100 f   libvcruntime:memset.obj
 0001:00010290       __vcrt_initialize          0000000180011290 f   libvcruntime:initialization.obj
 0001:000102b8       __vcrt_thread_attach       00000001800112b8 f   libvcruntime:initialization.obj
 0001:000102cc       __vcrt_thread_detach       00000001800112cc f   libvcruntime:initialization.obj
 0001:000102e0       __vcrt_uninitialize        00000001800112e0 f   libvcruntime:initialization.obj
 0001:000102fc       __vcrt_uninitialize_critical 00000001800112fc f   libvcruntime:initialization.obj
 0001:0001030c       __C_specific_handler       000000018001130c f   libvcruntime:riscchandler.obj
 0001:00010518       ??$_CallSETranslator@V__FrameHandler4@@@@YAHPEAUEHExceptionRecord@@PEA_KPEAU_CONTEXT@@PEAU_xDISPATCHER_CONTEXT@@PEAUFuncInfo4@FH4@@K1H@Z 0000000180011518 f i libvcruntime:risctrnsctrl.obj
 0001:0001056c       ?DecompFuncInfo@FH4@@YA_JPEAEAEAUFuncInfo4@1@_KH_N@Z 000000018001156c f i libvcruntime:risctrnsctrl.obj
 0001:00010690       ?ExecutionInCatch@__FrameHandler4@@SA_NPEAU_xDISPATCHER_CONTEXT@@PEAUFuncInfo4@FH4@@@Z 0000000180011690 f   libvcruntime:risctrnsctrl.obj
 0001:00010698       ?FrameUnwindToEmptyState@__FrameHandler4@@SAXPEA_KPEAU_xDISPATCHER_CONTEXT@@PEAUFuncInfo4@FH4@@@Z 0000000180011698 f   libvcruntime:risctrnsctrl.obj
 0001:000106cc       ?GetEstablisherFrame@__FrameHandler4@@SAPEA_KPEA_KPEAU_xDISPATCHER_CONTEXT@@PEAUFuncInfo4@FH4@@0@Z 00000001800116cc f   libvcruntime:risctrnsctrl.obj
 0001:000106f0       ?GetRangeOfTrysToCheck@__FrameHandler4@@SA?AU?$pair@Viterator@TryBlockMap4@FH4@@V123@@std@@AEAVTryBlockMap4@FH4@@HPEAU_xDISPATCHER_CONTEXT@@PEAUFuncInfo4@5@H@Z 00000001800116f0 f   libvcruntime:risctrnsctrl.obj
 0001:0001084c       ?UnwindNestedFrames@__FrameHandler4@@SAXPEA_KPEAUEHExceptionRecord@@PEAU_CONTEXT@@0PEAXPEAUFuncInfo4@FH4@@HHPEAUHandlerType4@5@PEAU_xDISPATCHER_CONTEXT@@E@Z 000000018001184c f   libvcruntime:risctrnsctrl.obj
 0001:0001096c       ?setBuffer@TryBlockMap4@FH4@@QEAAXViterator@12@@Z 000000018001196c f i libvcruntime:risctrnsctrl.obj
 0001:00010b30       _CreateFrameInfo           0000000180011b30 f   libvcruntime:risctrnsctrl.obj
 0001:00010b6c       _FindAndUnlinkFrame        0000000180011b6c f   libvcruntime:risctrnsctrl.obj
 0001:00010bc0       _GetImageBase              0000000180011bc0 f   libvcruntime:risctrnsctrl.obj
 0001:00010bd4       _GetThrowImageBase         0000000180011bd4 f   libvcruntime:risctrnsctrl.obj
 0001:00010be8       _SetImageBase              0000000180011be8 f   libvcruntime:risctrnsctrl.obj
 0001:00010c00       _SetThrowImageBase         0000000180011c00 f   libvcruntime:risctrnsctrl.obj
 0001:00010c18       __CxxFrameHandler4         0000000180011c18 f   libvcruntime:risctrnsctrl.obj
 0001:00010cd8       __DestructExceptionObject  0000000180011cd8 f   libvcruntime:ehhelpers.obj
 0001:00010d48       ?_CallMemberFunction0@@YAXQEAX0@Z 0000000180011d48 f i libvcruntime:ehhelpers.obj
 0001:00010d4c       _IsExceptionObjectToBeDestroyed 0000000180011d4c f   libvcruntime:ehhelpers.obj
 0001:00010d7c       __AdjustPointer            0000000180011d7c f   libvcruntime:ehhelpers.obj
 0001:00010da0       __FrameUnwindFilter        0000000180011da0 f   libvcruntime:ehhelpers.obj
 0001:00010e08       __std_type_info_compare    0000000180011e08 f   libvcruntime:std_type_info.obj
 0001:00010e30       __std_type_info_destroy_list 0000000180011e30 f   libvcruntime:std_type_info.obj
 0001:00010e5c       __std_exception_copy       0000000180011e5c f   libvcruntime:std_exception.obj
 0001:00010eec       __std_exception_destroy    0000000180011eec f   libvcruntime:std_exception.obj
 0001:00010f14       _CxxThrowException         0000000180011f14 f   libvcruntime:throw.obj
 0001:00010fb4       __vcrt_freefls             0000000180011fb4 f   libvcruntime:per_thread_data.obj
 0001:00010fd4       __vcrt_freeptd             0000000180011fd4 f   libvcruntime:per_thread_data.obj
 0001:00011024       __vcrt_getptd              0000000180012024 f   libvcruntime:per_thread_data.obj
 0001:00011040       __vcrt_getptd_noexit       0000000180012040 f   libvcruntime:per_thread_data.obj
 0001:00011100       __vcrt_initialize_ptd      0000000180012100 f   libvcruntime:per_thread_data.obj
 0001:00011148       __vcrt_uninitialize_ptd    0000000180012148 f   libvcruntime:per_thread_data.obj
 0001:0001116c       __vcrt_initialize_locks    000000018001216c f   libvcruntime:locks.obj
 0001:000111a0       __vcrt_uninitialize_locks  00000001800121a0 f   libvcruntime:locks.obj
 0001:000111f0       _NLG_Notify                00000001800121f0 f   libvcruntime:notify.obj
 0001:00011210       __NLG_Dispatch2            0000000180012210 f   libvcruntime:notify.obj
 0001:00011220       __NLG_Return2              0000000180012220 f   libvcruntime:notify.obj
 0001:00011224       __except_validate_context_record 0000000180012224 f   libvcruntime:jbcxrval.obj
 0001:0001125c       ?StateFromControlPc@__FrameHandler4@@SAHPEAUFuncInfo4@FH4@@PEAU_xDISPATCHER_CONTEXT@@@Z 000000018001225c f   libvcruntime:ehstate.obj
 0001:00011264       ?StateFromIp@__FrameHandler4@@SAHPEAUFuncInfo4@FH4@@PEAU_xDISPATCHER_CONTEXT@@_K@Z 0000000180012264 f   libvcruntime:ehstate.obj
 0001:00011ee8       ??$TypeMatchHelper@V__FrameHandler3@@@@YAHPEBU_s_HandlerType@@PEBU_s_CatchableType@@PEBU_s_ThrowInfo@@@Z 0000000180012ee8 f i libvcruntime:frame.obj
 0001:00012028       ??$TypeMatchHelper@V__FrameHandler4@@@@YAHPEAUHandlerType4@FH4@@PEBU_s_CatchableType@@PEBU_s_ThrowInfo@@@Z 0000000180013028 f i libvcruntime:frame.obj
 0001:0001216c       ??$__InternalCxxFrameHandler@V__FrameHandler4@@@@YA?AW4_EXCEPTION_DISPOSITION@@PEAUEHExceptionRecord@@PEA_KPEAU_CONTEXT@@PEAU_xDISPATCHER_CONTEXT@@PEAUFuncInfo4@FH4@@H1E@Z 000000018001316c f i libvcruntime:frame.obj
 0001:00012400       ??0HandlerMap4@FH4@@QEAA@PEBUTryBlockMapEntry4@1@_KH@Z 0000000180013400 f i libvcruntime:frame.obj
 0001:0001247c       ??0TryBlockMap4@FH4@@QEAA@PEBUFuncInfo4@1@_K@Z 000000018001347c f i libvcruntime:frame.obj
 0001:00012554       ??0bad_exception@std@@QEAA@AEBV01@@Z 0000000180013554 f i libvcruntime:frame.obj
 0001:00012590       ??0bad_exception@std@@QEAA@XZ 0000000180013590 f i libvcruntime:frame.obj
 0001:000125b0       ?CxxCallCatchBlock@__FrameHandler4@@SAPEAXPEAU_EXCEPTION_RECORD@@@Z 00000001800135b0 f   libvcruntime:frame.obj
 0001:00012800       ?DecompHandler@HandlerMap4@FH4@@AEAAXXZ 0000000180013800 f i libvcruntime:frame.obj
 0001:00012a40       ?FrameUnwindToState@__FrameHandler4@@SAXPEA_KPEAU_xDISPATCHER_CONTEXT@@PEAUFuncInfo4@FH4@@H@Z 0000000180013a40 f   libvcruntime:frame.obj
 0001:00012e9c       ?ReadEntry@UWMap4@FH4@@AEAAXPEAPEAE@Z 0000000180013e9c f i libvcruntime:frame.obj
 0001:00012f3c       ?_CallMemberFunction1@@YAXQEAX00@Z 0000000180013f3c f i libvcruntime:frame.obj
 0001:00012f48       ?_CallMemberFunction2@@YAXQEAX00H@Z 0000000180013f48 f i libvcruntime:frame.obj
 0001:00012f58       ?getStartStop@UWMap4@FH4@@QEAAXHHAEAViterator@12@0@Z 0000000180013f58 f i libvcruntime:frame.obj
 0001:00013028       ?getStateFromIterators@UWMap4@FH4@@SAHAEBViterator@12@H0H0@Z 0000000180014028 f i libvcruntime:frame.obj
 0001:0001323c       __vcrt_FlsAlloc            000000018001423c f   libvcruntime:winapi_downlevel.obj
 0001:00013284       __vcrt_FlsFree             0000000180014284 f   libvcruntime:winapi_downlevel.obj
 0001:000132cc       __vcrt_FlsGetValue         00000001800142cc f   libvcruntime:winapi_downlevel.obj
 0001:00013314       __vcrt_FlsSetValue         0000000180014314 f   libvcruntime:winapi_downlevel.obj
 0001:00013368       __vcrt_InitializeCriticalSectionEx 0000000180014368 f   libvcruntime:winapi_downlevel.obj
 0001:000133e0       _CallSettingFrame          00000001800143e0 f   libvcruntime:handlers.obj
 0001:00013430       _CallSettingFrame_LookupContinuationIndex 0000000180014430 f   libvcruntime:handlers.obj
 0001:00013460       _CallSettingFrame_NotifyContinuationAddr 0000000180014460 f   libvcruntime:handlers.obj
 0001:00013490       _CallSettingFrameEncoded   0000000180014490 f   libvcruntime:handlers.obj
 0001:000134d8       free                       00000001800144d8 f   libucrt:free.obj
 0001:000134ec       __acrt_call_reportfault    00000001800144ec f   libucrt:invalid_parameter.obj
 0001:00013648       __acrt_initialize_invalid_parameter_handler 0000000180014648 f   libucrt:invalid_parameter.obj
 0001:00013650       _invalid_parameter         0000000180014650 f   libucrt:invalid_parameter.obj
 0001:00013700       _invalid_parameter_noinfo  0000000180014700 f   libucrt:invalid_parameter.obj
 0001:00013720       _invoke_watson             0000000180014720 f   libucrt:invalid_parameter.obj
 0001:00013768       __acrt_errno_from_os_error 0000000180014768 f   libucrt:errno.obj
 0001:000137b0       __acrt_errno_map_os_error  00000001800147b0 f   libucrt:errno.obj
 0001:00013800       __doserrno                 0000000180014800 f   libucrt:errno.obj
 0001:00013820       _errno                     0000000180014820 f   libucrt:errno.obj
 0001:00013840       calloc                     0000000180014840 f   libucrt:calloc.obj
 0001:00013848       malloc                     0000000180014848 f   libucrt:malloc.obj
 0001:00013850       _recalloc                  0000000180014850 f   libucrt:recalloc.obj
 0001:00013858       _recalloc_base             0000000180014858 f   libucrt:recalloc.obj
 0001:000138f0       _resetstkoflw              00000001800148f0 f   libucrt:resetstk.obj
 0001:00013a1c       wcscat_s                   0000000180014a1c f   libucrt:wcscat_s.obj
 0001:00013a9c       wcscpy_s                   0000000180014a9c f   libucrt:wcscpy_s.obj
 0001:00013b04       wcsncpy_s                  0000000180014b04 f   libucrt:wcsncpy_s.obj
 0001:00013dbc       ??$ensure_buffer_is_big_enough@D@formatting_buffer@__crt_stdio_output@@QEAA_N_K@Z 0000000180014dbc f i libucrt:output.obj
 0001:00013e64       ??$ensure_buffer_is_big_enough@_W@formatting_buffer@__crt_stdio_output@@QEAA_N_K@Z 0000000180014e64 f i libucrt:output.obj
 0001:00013f10       ??$is_wide_character_specifier@_W@__crt_stdio_output@@YA_N_K_WW4length_modifier@0@@Z 0000000180014f10 f i libucrt:output.obj
 0001:00013f50       ??$type_case_integer_parse_into_buffer@I@?$output_processor@_WV?$string_output_adapter@_W@__crt_stdio_output@@V?$format_validation_base@_WV?$string_output_adapter@_W@__crt_stdio_output@@@2@@__crt_stdio_output@@AEAAXII_N@Z 0000000180014f50 f i libucrt:output.obj
 0001:00013ff4       ??$type_case_integer_parse_into_buffer@_K@?$output_processor@_WV?$string_output_adapter@_W@__crt_stdio_output@@V?$format_validation_base@_WV?$string_output_adapter@_W@__crt_stdio_output@@@2@@__crt_stdio_output@@AEAAX_KI_N@Z 0000000180014ff4 f i libucrt:output.obj
 0001:00014098       ??$write_multiple_characters@V?$string_output_adapter@_W@__crt_stdio_output@@D@__crt_stdio_output@@YAXAEBV?$string_output_adapter@_W@0@DHQEAH@Z 0000000180015098 f i libucrt:output.obj
 0001:00014110       ??0_LocaleUpdate@@QEAA@QEAU__crt_locale_pointers@@@Z 0000000180015110 f i libucrt:output.obj
 0001:000141b0       ?crop_zeroes@__crt_stdio_output@@YAXPEADQEAU__crt_locale_pointers@@@Z 00000001800151b0 f i libucrt:output.obj
 0001:00014250       ?force_decimal_point@__crt_stdio_output@@YAXPEADQEAU__crt_locale_pointers@@@Z 0000000180015250 f i libucrt:output.obj
 0001:000142c8       ?parse_int_from_format_string@?$output_processor@_WV?$string_output_adapter@_W@__crt_stdio_output@@V?$format_validation_base@_WV?$string_output_adapter@_W@__crt_stdio_output@@@2@@__crt_stdio_output@@AEAA_NQEAH@Z 00000001800152c8 f i libucrt:output.obj
 0001:0001436c       ?process@?$output_processor@_WV?$string_output_adapter@_W@__crt_stdio_output@@V?$format_validation_base@_WV?$string_output_adapter@_W@__crt_stdio_output@@@2@@__crt_stdio_output@@QEAAHXZ 000000018001536c f i libucrt:output.obj
 0001:000145e4       ?state_case_size@?$output_processor@_WV?$string_output_adapter@_W@__crt_stdio_output@@V?$format_validation_base@_WV?$string_output_adapter@_W@__crt_stdio_output@@@2@@__crt_stdio_output@@AEAA_NXZ 00000001800155e4 f i libucrt:output.obj
 0001:00014778       ?state_case_type@?$output_processor@_WV?$string_output_adapter@_W@__crt_stdio_output@@V?$format_validation_base@_WV?$string_output_adapter@_W@__crt_stdio_output@@@2@@__crt_stdio_output@@AEAA_NXZ 0000000180015778 f i libucrt:output.obj
 0001:00014a50       ?to_integer_size@__crt_stdio_output@@YA_KW4length_modifier@1@@Z 0000000180015a50 f i libucrt:output.obj
 0001:00014ab8       ?type_case_Z@?$output_processor@_WV?$string_output_adapter@_W@__crt_stdio_output@@V?$format_validation_base@_WV?$string_output_adapter@_W@__crt_stdio_output@@@2@@__crt_stdio_output@@AEAA_NXZ 0000000180015ab8 f i libucrt:output.obj
 0001:00014b34       ?type_case_a@?$output_processor@_WV?$string_output_adapter@_W@__crt_stdio_output@@V?$format_validation_base@_WV?$string_output_adapter@_W@__crt_stdio_output@@@2@@__crt_stdio_output@@AEAA_NXZ 0000000180015b34 f i libucrt:output.obj
 0001:00014d14       ?type_case_c_tchar@?$output_processor@_WV?$string_output_adapter@_W@__crt_stdio_output@@V?$format_validation_base@_WV?$string_output_adapter@_W@__crt_stdio_output@@@2@@__crt_stdio_output@@AEAA_N_W@Z 0000000180015d14 f i libucrt:output.obj
 0001:00014dbc       ?type_case_integer@?$output_processor@_WV?$string_output_adapter@_W@__crt_stdio_output@@V?$format_validation_base@_WV?$string_output_adapter@_W@__crt_stdio_output@@@2@@__crt_stdio_output@@AEAA_NI_N@Z 0000000180015dbc f i libucrt:output.obj
 0001:00014f44       ?type_case_n@?$output_processor@_WV?$string_output_adapter@_W@__crt_stdio_output@@V?$format_validation_base@_WV?$string_output_adapter@_W@__crt_stdio_output@@@2@@__crt_stdio_output@@AEAA_NXZ 0000000180015f44 f i libucrt:output.obj
 0001:00014fcc       ?type_case_s@?$output_processor@_WV?$string_output_adapter@_W@__crt_stdio_output@@V?$format_validation_base@_WV?$string_output_adapter@_W@__crt_stdio_output@@@2@@__crt_stdio_output@@AEAA_NXZ 0000000180015fcc f i libucrt:output.obj
 0001:00015094       ?write_stored_string_tchar@?$output_processor@_WV?$string_output_adapter@_W@__crt_stdio_output@@V?$format_validation_base@_WV?$string_output_adapter@_W@__crt_stdio_output@@@2@@__crt_stdio_output@@AEAA_N_W@Z 0000000180016094 f i libucrt:output.obj
 0001:0001517c       ?write_string@?$string_output_adapter@_W@__crt_stdio_output@@QEBAXQEB_WHQEAHAEAV__crt_deferred_errno_cache@@@Z 000000018001617c f i libucrt:output.obj
 0001:00015224       __stdio_common_vswprintf_s 0000000180016224 f   libucrt:output.obj
 0001:00015294       _seh_filter_dll            0000000180016294 f   libucrt:exception_filter.obj
 0001:000152a8       _seh_filter_exe            00000001800162a8 f   libucrt:exception_filter.obj
 0001:00015698       __acrt_initialize_thread_local_exit_callback 0000000180016698 f   libucrt:exit.obj
 0001:000156a0       _cexit                     00000001800166a0 f   libucrt:exit.obj
 0001:000156b0       _exit                      00000001800166b0 f   libucrt:exit.obj
 0001:000156bc       _is_c_termination_complete 00000001800166bc f   libucrt:exit.obj
 0001:00015884       __acrt_allocate_buffer_for_argv 0000000180016884 f   libucrt:argv_parsing.obj
 0001:000158e4       _configure_narrow_argv     00000001800168e4 f   libucrt:argv_parsing.obj
 0001:00015c5c       __dcrt_uninitialize_environments_nolock 0000000180016c5c f   libucrt:environment_initialization.obj
 0001:00015c94       _initialize_narrow_environment 0000000180016c94 f   libucrt:environment_initialization.obj
 0001:00015fdc       _crt_atexit                0000000180016fdc f   libucrt:onexit.obj
 0001:00015fec       _execute_onexit_table      0000000180016fec f   libucrt:onexit.obj
 0001:00016028       _initialize_onexit_table   0000000180017028 f   libucrt:onexit.obj
 0001:00016050       _register_onexit_function  0000000180017050 f   libucrt:onexit.obj
 0001:000160d0       __acrt_uninitialize_command_line 00000001800170d0 f   libucrt:argv_data.obj
 0001:000161c8       __acrt_initialize          00000001800171c8 f   libucrt:initialization.obj
 0001:000161dc       __acrt_thread_attach       00000001800171dc f   libucrt:initialization.obj
 0001:000161f0       __acrt_thread_detach       00000001800171f0 f   libucrt:initialization.obj
 0001:00016200       __acrt_uninitialize        0000000180017200 f   libucrt:initialization.obj
 0001:00016238       __acrt_uninitialize_critical 0000000180017238 f   libucrt:initialization.obj
 0001:00016248       _initterm                  0000000180017248 f   libucrt:initterm.obj
 0001:000162ac       _initterm_e                00000001800172ac f   libucrt:initterm.obj
 0001:000162ec       __acrt_initialize_new_handler 00000001800172ec f   libucrt:new_handler.obj
 0001:000162f4       _callnewh                  00000001800172f4 f   libucrt:new_handler.obj
 0001:00016324       _query_new_handler         0000000180017324 f   libucrt:new_handler.obj
 0001:00016358       terminate                  0000000180017358 f   libucrt:terminate.obj
 0001:00016378       abort                      0000000180017378 f   libucrt:abort.obj
 0001:000163d0       strcpy_s                   00000001800173d0 f   libucrt:strcpy_s.obj
 0001:00016430       ??$parse_integer@KV?$c_string_character_source@_W@__crt_strtox@@@__crt_strtox@@YAKQEAU__crt_locale_pointers@@V?$c_string_character_source@_W@0@H_N@Z 0000000180017430 f i libucrt:atox.obj
 0001:00016af0       strncmp                    0000000180017af0 f   libucrt:strncmp.obj
 0001:00016b70       wcsncmp                    0000000180017b70 f   libucrt:wcsncmp.obj
 0001:00016b9c       _free_base                 0000000180017b9c f   libucrt:free_base.obj
 0001:00016f54       __acrt_freeptd             0000000180017f54 f   libucrt:per_thread_data.obj
 0001:00016f98       __acrt_getptd              0000000180017f98 f   libucrt:per_thread_data.obj
 0001:0001706c       __acrt_getptd_head         000000018001806c f   libucrt:per_thread_data.obj
 0001:00017114       __acrt_getptd_noexit       0000000180018114 f   libucrt:per_thread_data.obj
 0001:000171e0       __acrt_initialize_ptd      00000001800181e0 f   libucrt:per_thread_data.obj
 0001:0001721c       __acrt_uninitialize_ptd    000000018001821c f   libucrt:per_thread_data.obj
 0001:00017240       _calloc_base               0000000180018240 f   libucrt:calloc_base.obj
 0001:000172b8       _malloc_base               00000001800182b8 f   libucrt:malloc_base.obj
 0001:00017318       _msize_base                0000000180018318 f   libucrt:msize.obj
 0001:00017354       _realloc_base              0000000180018354 f   libucrt:realloc_base.obj
 0001:000175a8       __acrt_AppPolicyGetProcessTerminationMethodInternal 00000001800185a8 f   libucrt:winapi_thunks.obj
 0001:000175f8       __acrt_AreFileApisANSI     00000001800185f8 f   libucrt:winapi_thunks.obj
 0001:00017634       __acrt_FlsAlloc            0000000180018634 f   libucrt:winapi_thunks.obj
 0001:0001767c       __acrt_FlsFree             000000018001867c f   libucrt:winapi_thunks.obj
 0001:000176c4       __acrt_FlsGetValue         00000001800186c4 f   libucrt:winapi_thunks.obj
 0001:0001770c       __acrt_FlsSetValue         000000018001870c f   libucrt:winapi_thunks.obj
 0001:00017760       __acrt_InitializeCriticalSectionEx 0000000180018760 f   libucrt:winapi_thunks.obj
 0001:000177c4       __acrt_LCMapStringEx       00000001800187c4 f   libucrt:winapi_thunks.obj
 0001:000178a0       __acrt_LocaleNameToLCID    00000001800188a0 f   libucrt:winapi_thunks.obj
 0001:000178f0       __acrt_SetThreadStackGuarantee 00000001800188f0 f   libucrt:winapi_thunks.obj
 0001:00017934       __acrt_initialize_winapi_thunks 0000000180018934 f   libucrt:winapi_thunks.obj
 0001:00017968       __acrt_uninitialize_winapi_thunks 0000000180018968 f   libucrt:winapi_thunks.obj
 0001:000179ac       wcstol                     00000001800189ac f   libucrt:strtox.obj
 0001:000179d8       _mbtowc_l                  00000001800189d8 f   libucrt:mbtowc.obj
 0001:00017b58       mbtowc                     0000000180018b58 f   libucrt:mbtowc.obj
 0001:00017b60       wcsnlen                    0000000180018b60 f   libucrt:strnlen.obj
 0001:00017d38       __acrt_update_locale_info  0000000180018d38 f   libucrt:locale_update.obj
 0001:00017d6c       __acrt_update_multibyte_info 0000000180018d6c f   libucrt:locale_update.obj
 0001:000187a4       __acrt_fp_format           00000001800197a4 f   libucrt:cvt.obj
 0001:00018adc       _fileno                    0000000180019adc f   libucrt:fileno.obj
 0001:00018b04       __acrt_initialize_stdio    0000000180019b04 f   libucrt:_file.obj
 0001:00018c24       __acrt_uninitialize_stdio  0000000180019c24 f   libucrt:_file.obj
 0001:00018c80       _lock_file                 0000000180019c80 f   libucrt:_file.obj
 0001:00018c8c       _unlock_file               0000000180019c8c f   libucrt:_file.obj
 0001:00018c98       _get_printf_count_output   0000000180019c98 f   libucrt:printf_count_output.obj
 0001:00018d20       __acrt_set_locale_changed  0000000180019d20 f   libucrt:wsetlocale.obj
 0001:00018d2c       __acrt_uninitialize_locale 0000000180019d2c f   libucrt:wsetlocale.obj
 0001:00018f58       __acrt_initialize_lowio    0000000180019f58 f   libucrt:ioinit.obj
 0001:00018f94       __acrt_uninitialize_lowio  0000000180019f94 f   libucrt:ioinit.obj
 0001:00018fd4       __acrt_initialize_locks    0000000180019fd4 f   libucrt:locks.obj
 0001:0001901c       __acrt_lock                000000018001a01c f   libucrt:locks.obj
 0001:00019038       __acrt_uninitialize_locks  000000018001a038 f   libucrt:locks.obj
 0001:00019070       __acrt_unlock              000000018001a070 f   libucrt:locks.obj
 0001:0001908c       __acrt_get_process_end_policy 000000018001a08c f   libucrt:win_policies.obj
 0001:000190dc       ??$__acrt_mbs_to_wcs_cp@U__crt_win32_buffer_internal_dynamic_resizing@@@@YAHQEBDAEAV?$__crt_win32_buffer@_WU__crt_win32_buffer_internal_dynamic_resizing@@@@I@Z 000000018001a0dc f i libucrt:argv_wildcards.obj
 0001:00019254       ??$__acrt_wcs_to_mbs_cp@U__crt_win32_buffer_internal_dynamic_resizing@@@@YAHQEB_WAEAV?$__crt_win32_buffer@DU__crt_win32_buffer_internal_dynamic_resizing@@@@I@Z 000000018001a254 f i libucrt:argv_wildcards.obj
 0001:00019a84       __acrt_expand_narrow_argv_wildcards 000000018001aa84 f   libucrt:argv_wildcards.obj
 0001:00019a8c       ??$__acrt_wcs_to_mbs_cp@U__crt_win32_buffer_no_resizing@@@@YAHQEB_WAEAV?$__crt_win32_buffer@DU__crt_win32_buffer_no_resizing@@@@I@Z 000000018001aa8c f i libucrt:getmodulefilenamea.obj
 0001:00019ba0       __acrt_GetModuleFileNameA  000000018001aba0 f   libucrt:getmodulefilenamea.obj
 0001:0001a3e8       __acrt_initialize_multibyte 000000018001b3e8 f   libucrt:mbctype.obj
 0001:0001a448       __acrt_update_thread_multibyte_data 000000018001b448 f   libucrt:mbctype.obj
 0001:0001a464       _setmbcp_nolock            000000018001b464 f   libucrt:mbctype.obj
 0001:0001a798       _ismbblead                 000000018001b798 f   libucrt:ismbbyte.obj
 0001:0001a7ac       __acrt_initialize_command_line 000000018001b7ac f   libucrt:argv_data.obj
 0001:0001a7d4       __acrt_MultiByteToWideChar 000000018001b7d4 f   libucrt:multibytetowidechar.obj
 0001:0001a830       __acrt_WideCharToMultiByte 000000018001b830 f   libucrt:widechartomultibyte.obj
 0001:0001a8e0       __dcrt_get_narrow_environment_from_os 000000018001b8e0 f   libucrt:get_environment_from_os.obj
 0001:0001a9e4       __acrt_initialize_heap     000000018001b9e4 f   libucrt:heap_handle.obj
 0001:0001aa00       __acrt_uninitialize_heap   000000018001ba00 f   libucrt:heap_handle.obj
 0001:0001aa0c       __acrt_execute_initializers 000000018001ba0c f   libucrt:shared_initialization.obj
 0001:0001aa8c       __acrt_execute_uninitializers 000000018001ba8c f   libucrt:shared_initialization.obj
 0001:0001ab10       __acrt_get_sigabrt_handler 000000018001bb10 f   libucrt:signal.obj
 0001:0001ab40       __acrt_initialize_signal_handlers 000000018001bb40 f   libucrt:signal.obj
 0001:0001ab60       raise                      000000018001bb60 f   libucrt:signal.obj
 0001:0001adcc       __acrt_has_user_matherr    000000018001bdcc f   libucrt:matherr.obj
 0001:0001adec       __acrt_initialize_user_matherr 000000018001bdec f   libucrt:matherr.obj
 0001:0001adf4       __acrt_invoke_user_matherr 000000018001bdf4 f   libucrt:matherr.obj
 0001:0001b000       __acrt_stdio_flush_nolock  000000018001c000 f   libucrt:fflush.obj
 0001:0001b07c       _fflush_nolock             000000018001c07c f   libucrt:fflush.obj
 0001:0001b0c8       _flushall                  000000018001c0c8 f   libucrt:fflush.obj
 0001:0001b0d0       __pctype_func              000000018001c0d0 f   libucrt:ctype.obj
 0001:0001b100       iswctype                   000000018001c100 f   libucrt:iswctype.obj
 0001:0001b16c       __acrt_add_locale_ref      000000018001c16c f   libucrt:locale_refcounting.obj
 0001:0001b1f8       __acrt_free_locale         000000018001c1f8 f   libucrt:locale_refcounting.obj
 0001:0001b370       __acrt_locale_add_lc_time_reference 000000018001c370 f   libucrt:locale_refcounting.obj
 0001:0001b398       __acrt_locale_free_lc_time_if_unreferenced 000000018001c398 f   libucrt:locale_refcounting.obj
 0001:0001b3d0       __acrt_locale_release_lc_time_reference 000000018001c3d0 f   libucrt:locale_refcounting.obj
 0001:0001b3f8       __acrt_release_locale_ref  000000018001c3f8 f   libucrt:locale_refcounting.obj
 0001:0001b4a0       __acrt_update_thread_locale_data 000000018001c4a0 f   libucrt:locale_refcounting.obj
 0001:0001b510       _updatetlocinfoEx_nolock   000000018001c510 f   libucrt:locale_refcounting.obj
 0001:0001b578       _query_new_mode            000000018001c578 f   libucrt:new_mode.obj
 0001:0001b580       __acrt_DownlevelLocaleNameToLCID 000000018001c580 f   libucrt:lcidtoname_downlevel.obj
 0001:0001b630       _isleadbyte_l              000000018001c630 f i libucrt:_wctype.obj
 0001:0001b67c       ?__mbrtowc_utf8@__crt_mbstring@@YA_KPEA_WPEBD_KPEAU_Mbstatet@@@Z 000000018001c67c f   libucrt:mbrtowc.obj
 0001:0001b6b8       ?__mbsrtowcs_utf8@__crt_mbstring@@YA_KPEA_WPEAPEBD_KPEAU_Mbstatet@@@Z 000000018001c6b8 f   libucrt:mbrtowc.obj
 0001:0001b830       __acrt_fp_strflt_to_string 000000018001c830 f   libucrt:_fptostr.obj
 0001:0001b980       ?divide@__crt_strtox@@YA_KAEAUbig_integer@1@AEBU21@@Z 000000018001c980 f i libucrt:cfout.obj
 0001:0001bdac       __acrt_fltout              000000018001cdac f   libucrt:cfout.obj
 0001:0001d078       fegetround                 000000018001e078 f   libucrt:fegetround.obj
 0001:0001d08c       _fcloseall                 000000018001e08c f   libucrt:closeall.obj
 0001:0001d140       __acrt_stdio_free_buffer_nolock 000000018001e140 f   libucrt:_freebuf.obj
 0001:0001d180       _isatty                    000000018001e180 f   libucrt:isatty.obj
 0001:0001d1e0       __acrt_locale_free_monetary 000000018001e1e0 f   libucrt:initmon.obj
 0001:0001d2ec       __acrt_locale_free_numeric 000000018001e2ec f   libucrt:initnum.obj
 0001:0001d3b0       __acrt_locale_free_time    000000018001e3b0 f   libucrt:inittime.obj
 0001:0001d4b8       __acrt_GetStringTypeA      000000018001e4b8 f   libucrt:getstringtypea.obj
 0001:0001d648       __acrt_lowio_create_handle_array 000000018001e648 f   libucrt:osfinfo.obj
 0001:0001d6f0       __acrt_lowio_destroy_handle_array 000000018001e6f0 f   libucrt:osfinfo.obj
 0001:0001d740       __acrt_lowio_ensure_fh_exists 000000018001e740 f   libucrt:osfinfo.obj
 0001:0001d7e8       __acrt_lowio_lock_fh       000000018001e7e8 f   libucrt:osfinfo.obj
 0001:0001d810       __acrt_lowio_unlock_fh     000000018001e810 f   libucrt:osfinfo.obj
 0001:0001d838       _free_osfhnd               000000018001e838 f   libucrt:osfinfo.obj
 0001:0001d8f4       _get_osfhandle             000000018001e8f4 f   libucrt:osfinfo.obj
 0001:0001d970       qsort                      000000018001e970 f   libucrt:qsort.obj
 0001:0001dd10       strncpy_s                  000000018001ed10 f   libucrt:strncpy_s.obj
 0001:0001de90       strpbrk                    000000018001ee90 f   libucrt:strpbrk.obj
 0001:0001e258       _mbsdec                    000000018001f258 f   libucrt:mbsdec.obj
 0001:0001e260       _mbsdec_l                  000000018001f260 f   libucrt:mbsdec.obj
 0001:0001e60c       __acrt_LCMapStringA        000000018001f60c f   libucrt:lcmapstringa.obj
 0001:0001e748       _commit                    000000018001f748 f   libucrt:commit.obj
 0001:0001f058       _write                     0000000180020058 f   libucrt:write.obj
 0001:0001f144       _write_nolock              0000000180020144 f   libucrt:write.obj
 0001:0001f428       __acrt_GetStringTypeW      0000000180020428 f   libucrt:getstringtypew.obj
 0001:0001f430       __ascii_wcsnicmp           0000000180020430 f   libucrt:wcsnicmp.obj
 0001:0001f47c       ?__mbrtoc32_utf8@__crt_mbstring@@YA_KPEA_UPEBD_KPEAU_Mbstatet@@@Z 000000018002047c f   libucrt:mbrtoc32.obj
 0001:0001f654       _controlfp_s               0000000180020654 f   libucrt:contrlfp.obj
 0001:0001f6b8       fegetenv                   00000001800206b8 f   libucrt:fegetenv.obj
 0001:0001f6d8       fesetenv                   00000001800206d8 f   libucrt:fesetenv.obj
 0001:0001f724       feholdexcept               0000000180020724 f   libucrt:feholdexcept.obj
 0001:0001f774       ceil                       0000000180020774 f   libucrt:ceil.obj
 0001:0001f840       log10                      0000000180020840 f   libucrt:log10.obj
 0001:0001fdec       __acrt_fenv_get_common_round_control 0000000180020dec f   libucrt:_fenvutils.obj
 0001:0001fdf8       __acrt_fenv_get_control    0000000180020df8 f   libucrt:_fenvutils.obj
 0001:0001feec       __acrt_fenv_get_status     0000000180020eec f   libucrt:_fenvutils.obj
 0001:0001ff40       __acrt_fenv_set_control    0000000180020f40 f   libucrt:_fenvutils.obj
 0001:00020088       __acrt_fenv_set_status     0000000180021088 f   libucrt:_fenvutils.obj
 0001:000201a8       _lseeki64_nolock           00000001800211a8 f   libucrt:lseek.obj
 0001:000201b0       _fclose_nolock             00000001800211b0 f   libucrt:fclose.obj
 0001:00020234       fclose                     0000000180021234 f   libucrt:fclose.obj
 0001:00020298       _query_app_type            0000000180021298 f   libucrt:report_runtime_error.obj
 0001:000202a0       __strncnt                  00000001800212a0 f   libucrt:strncnt.obj
 0001:000202b8       _putwch_nolock             00000001800212b8 f   libucrt:putwch.obj
 0001:000202f4       _clearfp                   00000001800212f4 f   libucrt:ieee.obj
 0001:00020364       _control87                 0000000180021364 f   libucrt:ieee.obj
 0001:00020750       _handle_error              0000000180021750 f   libucrt:libm_error.obj
 0001:00020878       _handle_nan                0000000180021878 f   libucrt:libm_error.obj
 0001:000208a0       __acrt_initialize_fma3     00000001800218a0 f   libucrt:fma3_available.obj
 0001:00020910       _log10_special             0000000180021910 f   libucrt:log_special.obj
 0001:00020a3c       _close                     0000000180021a3c f   libucrt:close.obj
 0001:00020ae0       _close_nolock              0000000180021ae0 f   libucrt:close.obj
 0001:00020ba0       ?__acrt_stdio_free_stream@@YAXV__crt_stdio_stream@@@Z 0000000180021ba0 f   libucrt:stream.obj
 0001:00020bbc       __dcrt_lowio_ensure_console_output_initialized 0000000180021bbc f   libucrt:initcon.obj
 0001:00020c10       __dcrt_terminate_console_output 0000000180021c10 f   libucrt:initcon.obj
 0001:00020c2c       __dcrt_write_console       0000000180021c2c f   libucrt:initcon.obj
 0001:00020d00       _get_fpsr                  0000000180021d00 f   libucrt:fpsr.obj
 0001:00020d10       _set_fpsr                  0000000180021d10 f   libucrt:fpsr.obj
 0001:00020d1a       _fclrf                     0000000180021d1a f   libucrt:fpsr.obj
 0001:00020d2e       _frnd                      0000000180021d2e f   libucrt:fpsr.obj
 0001:00020d50       _raise_exc                 0000000180021d50 f   libucrt:fpexcept.obj
 0001:00020d78       _raise_exc_ex              0000000180021d78 f   libucrt:fpexcept.obj
 0001:00021088       _set_errno_from_matherr    0000000180022088 f   libucrt:fpexcept.obj
 0001:000210b8       _clrfp                     00000001800220b8 f   libucrt:fpctrl.obj
 0001:000210d8       _ctrlfp                    00000001800220d8 f   libucrt:fpctrl.obj
 0001:00021154       _set_statfp                0000000180022154 f   libucrt:fpctrl.obj
 0001:00021174       _statfp                    0000000180022174 f   libucrt:fpctrl.obj
 0001:00021185       IsProcessorFeaturePresent  0000000180022185 f   kernel32:KERNEL32.dll
 0001:00021190       _FindPESection             0000000180022190 f   LIBCMT:pesect.obj
 0001:000211e0       _IsNonwritableInCurrentImage 00000001800221e0 f   LIBCMT:pesect.obj
 0001:00021230       _ValidateImageBase         0000000180022230 f   LIBCMT:pesect.obj
 0001:00021260       strrchr                    0000000180022260 f   libvcruntime:strrchr.obj
 0001:000213a0       _guard_dispatch_icall_nop  00000001800223a0 f   LIBCMT:guard_dispatch.obj
 0001:000213c0       _guard_xfg_dispatch_icall_nop 00000001800223c0 f   LIBCMT:guard_xfg_dispatch.obj
 0002:00000000       __imp_RegQueryValueExW     0000000180023000     advapi32:ADVAPI32.dll
 0002:00000008       __imp_RegSetValueExW       0000000180023008     advapi32:ADVAPI32.dll
 0002:00000010       __imp_RegQueryInfoKeyW     0000000180023010     advapi32:ADVAPI32.dll
 0002:00000018       __imp_RegOpenKeyExW        0000000180023018     advapi32:ADVAPI32.dll
 0002:00000020       __imp_RegEnumKeyExW        0000000180023020     advapi32:ADVAPI32.dll
 0002:00000028       __imp_RegDeleteValueW      0000000180023028     advapi32:ADVAPI32.dll
 0002:00000030       __imp_RegDeleteKeyW        0000000180023030     advapi32:ADVAPI32.dll
 0002:00000038       __imp_RegCreateKeyExW      0000000180023038     advapi32:ADVAPI32.dll
 0002:00000040       __imp_RegCloseKey          0000000180023040     advapi32:ADVAPI32.dll
 0002:00000048       \177ADVAPI32_NULL_THUNK_DATA 0000000180023048     advapi32:ADVAPI32.dll
 0002:00000050       __imp_GetObjectW           0000000180023050     gdi32:GDI32.dll
 0002:00000058       __imp_SelectObject         0000000180023058     gdi32:GDI32.dll
 0002:00000060       __imp_DeleteObject         0000000180023060     gdi32:GDI32.dll
 0002:00000068       __imp_CreateCompatibleDC   0000000180023068     gdi32:GDI32.dll
 0002:00000070       __imp_BitBlt               0000000180023070     gdi32:GDI32.dll
 0002:00000078       __imp_SetWindowOrgEx       0000000180023078     gdi32:GDI32.dll
 0002:00000080       __imp_SetWindowExtEx       0000000180023080     gdi32:GDI32.dll
 0002:00000088       __imp_SetViewportOrgEx     0000000180023088     gdi32:GDI32.dll
 0002:00000090       __imp_LPtoDP               0000000180023090     gdi32:GDI32.dll
 0002:00000098       __imp_SetMapMode           0000000180023098     gdi32:GDI32.dll
 0002:000000a0       __imp_SaveDC               00000001800230a0     gdi32:GDI32.dll
 0002:000000a8       __imp_RestoreDC            00000001800230a8     gdi32:GDI32.dll
 0002:000000b0       __imp_GetDeviceCaps        00000001800230b0     gdi32:GDI32.dll
 0002:000000b8       __imp_DeleteMetaFile       00000001800230b8     gdi32:GDI32.dll
 0002:000000c0       __imp_DeleteDC             00000001800230c0     gdi32:GDI32.dll
 0002:000000c8       __imp_CreateRectRgnIndirect 00000001800230c8     gdi32:GDI32.dll
 0002:000000d0       __imp_CreateMetaFileW      00000001800230d0     gdi32:GDI32.dll
 0002:000000d8       __imp_CreateDCW            00000001800230d8     gdi32:GDI32.dll
 0002:000000e0       __imp_CloseMetaFile        00000001800230e0     gdi32:GDI32.dll
 0002:000000e8       \177GDI32_NULL_THUNK_DATA  00000001800230e8     gdi32:GDI32.dll
 0002:000000f0       __imp_CloseHandle          00000001800230f0     kernel32:KERNEL32.dll
 0002:000000f8       __imp_SetEvent             00000001800230f8     kernel32:KERNEL32.dll
 0002:00000100       __imp_CreateMutexW         0000000180023100     kernel32:KERNEL32.dll
 0002:00000108       __imp_CreateEventW         0000000180023108     kernel32:KERNEL32.dll
 0002:00000110       __imp_GetCurrentProcessId  0000000180023110     kernel32:KERNEL32.dll
 0002:00000118       __imp_WriteConsoleW        0000000180023118     kernel32:KERNEL32.dll
 0002:00000120       __imp_CreateFileW          0000000180023120     kernel32:KERNEL32.dll
 0002:00000128       __imp_GetConsoleMode       0000000180023128     kernel32:KERNEL32.dll
 0002:00000130       __imp_GetConsoleOutputCP   0000000180023130     kernel32:KERNEL32.dll
 0002:00000138       __imp_WriteFile            0000000180023138     kernel32:KERNEL32.dll
 0002:00000140       __imp_FlushFileBuffers     0000000180023140     kernel32:KERNEL32.dll
 0002:00000148       __imp_SetStdHandle         0000000180023148     kernel32:KERNEL32.dll
 0002:00000150       __imp_GetStringTypeW       0000000180023150     kernel32:KERNEL32.dll
 0002:00000158       __imp_SetFilePointerEx     0000000180023158     kernel32:KERNEL32.dll
 0002:00000160       __imp_FreeEnvironmentStringsW 0000000180023160     kernel32:KERNEL32.dll
 0002:00000168       __imp_lstrcmpiW            0000000180023168     kernel32:KERNEL32.dll
 0002:00000170       __imp_GetCommandLineW      0000000180023170     kernel32:KERNEL32.dll
 0002:00000178       __imp_GetCommandLineA      0000000180023178     kernel32:KERNEL32.dll
 0002:00000180       __imp_GetCPInfo            0000000180023180     kernel32:KERNEL32.dll
 0002:00000188       __imp_GetOEMCP             0000000180023188     kernel32:KERNEL32.dll
 0002:00000190       __imp_GetACP               0000000180023190     kernel32:KERNEL32.dll
 0002:00000198       __imp_IsValidCodePage      0000000180023198     kernel32:KERNEL32.dll
 0002:000001a0       __imp_FindNextFileW        00000001800231a0     kernel32:KERNEL32.dll
 0002:000001a8       __imp_FindFirstFileExW     00000001800231a8     kernel32:KERNEL32.dll
 0002:000001b0       __imp_FindClose            00000001800231b0     kernel32:KERNEL32.dll
 0002:000001b8       __imp_GetFileType          00000001800231b8     kernel32:KERNEL32.dll
 0002:000001c0       __imp_GetStdHandle         00000001800231c0     kernel32:KERNEL32.dll
 0002:000001c8       __imp_LCMapStringW         00000001800231c8     kernel32:KERNEL32.dll
 0002:000001d0       __imp_HeapReAlloc          00000001800231d0     kernel32:KERNEL32.dll
 0002:000001d8       __imp_HeapSize             00000001800231d8     kernel32:KERNEL32.dll
 0002:000001e0       __imp_MulDiv               00000001800231e0     kernel32:KERNEL32.dll
 0002:000001e8       __imp_GlobalLock           00000001800231e8     kernel32:KERNEL32.dll
 0002:000001f0       __imp_GlobalUnlock         00000001800231f0     kernel32:KERNEL32.dll
 0002:000001f8       __imp_GlobalAlloc          00000001800231f8     kernel32:KERNEL32.dll
 0002:00000200       __imp_FindResourceW        0000000180023200     kernel32:KERNEL32.dll
 0002:00000208       __imp_SizeofResource       0000000180023208     kernel32:KERNEL32.dll
 0002:00000210       __imp_LoadResource         0000000180023210     kernel32:KERNEL32.dll
 0002:00000218       __imp_LoadLibraryExW       0000000180023218     kernel32:KERNEL32.dll
 0002:00000220       __imp_GetProcAddress       0000000180023220     kernel32:KERNEL32.dll
 0002:00000228       __imp_GetModuleHandleW     0000000180023228     kernel32:KERNEL32.dll
 0002:00000230       __imp_GetModuleFileNameW   0000000180023230     kernel32:KERNEL32.dll
 0002:00000238       __imp_FreeLibrary          0000000180023238     kernel32:KERNEL32.dll
 0002:00000240       __imp_DisableThreadLibraryCalls 0000000180023240     kernel32:KERNEL32.dll
 0002:00000248       __imp_GetCurrentThreadId   0000000180023248     kernel32:KERNEL32.dll
 0002:00000250       __imp_Sleep                0000000180023250     kernel32:KERNEL32.dll
 0002:00000258       __imp_WaitForSingleObject  0000000180023258     kernel32:KERNEL32.dll
 0002:00000260       __imp_ReleaseMutex         0000000180023260     kernel32:KERNEL32.dll
 0002:00000268       __imp_ResetEvent           0000000180023268     kernel32:KERNEL32.dll
 0002:00000270       __imp_EnterCriticalSection 0000000180023270     kernel32:KERNEL32.dll
 0002:00000278       __imp_LeaveCriticalSection 0000000180023278     kernel32:KERNEL32.dll
 0002:00000280       __imp_SetLastError         0000000180023280     kernel32:KERNEL32.dll
 0002:00000288       __imp_EncodePointer        0000000180023288     kernel32:KERNEL32.dll
 0002:00000290       __imp_DeleteCriticalSection 0000000180023290     kernel32:KERNEL32.dll
 0002:00000298       __imp_InitializeCriticalSectionEx 0000000180023298     kernel32:KERNEL32.dll
 0002:000002a0       __imp_GetLastError         00000001800232a0     kernel32:KERNEL32.dll
 0002:000002a8       __imp_RaiseException       00000001800232a8     kernel32:KERNEL32.dll
 0002:000002b0       __imp_DecodePointer        00000001800232b0     kernel32:KERNEL32.dll
 0002:000002b8       __imp_WideCharToMultiByte  00000001800232b8     kernel32:KERNEL32.dll
 0002:000002c0       __imp_GetEnvironmentStringsW 00000001800232c0     kernel32:KERNEL32.dll
 0002:000002c8       __imp_MultiByteToWideChar  00000001800232c8     kernel32:KERNEL32.dll
 0002:000002d0       __imp_GetModuleHandleExW   00000001800232d0     kernel32:KERNEL32.dll
 0002:000002d8       __imp_ExitProcess          00000001800232d8     kernel32:KERNEL32.dll
 0002:000002e0       __imp_VirtualQuery         00000001800232e0     kernel32:KERNEL32.dll
 0002:000002e8       __imp_VirtualProtect       00000001800232e8     kernel32:KERNEL32.dll
 0002:000002f0       __imp_GetSystemInfo        00000001800232f0     kernel32:KERNEL32.dll
 0002:000002f8       __imp_TlsFree              00000001800232f8     kernel32:KERNEL32.dll
 0002:00000300       __imp_TlsSetValue          0000000180023300     kernel32:KERNEL32.dll
 0002:00000308       __imp_TlsGetValue          0000000180023308     kernel32:KERNEL32.dll
 0002:00000310       __imp_TlsAlloc             0000000180023310     kernel32:KERNEL32.dll
 0002:00000318       __imp_RtlPcToFileHeader    0000000180023318     kernel32:KERNEL32.dll
 0002:00000320       __imp_InterlockedFlushSList 0000000180023320     kernel32:KERNEL32.dll
 0002:00000328       __imp_RtlUnwindEx          0000000180023328     kernel32:KERNEL32.dll
 0002:00000330       __imp_LoadLibraryExA       0000000180023330     kernel32:KERNEL32.dll
 0002:00000338       __imp_VirtualFree          0000000180023338     kernel32:KERNEL32.dll
 0002:00000340       __imp_VirtualAlloc         0000000180023340     kernel32:KERNEL32.dll
 0002:00000348       __imp_FlushInstructionCache 0000000180023348     kernel32:KERNEL32.dll
 0002:00000350       __imp_InterlockedPushEntrySList 0000000180023350     kernel32:KERNEL32.dll
 0002:00000358       __imp_InterlockedPopEntrySList 0000000180023358     kernel32:KERNEL32.dll
 0002:00000360       __imp_GetProcessHeap       0000000180023360     kernel32:KERNEL32.dll
 0002:00000368       __imp_HeapFree             0000000180023368     kernel32:KERNEL32.dll
 0002:00000370       __imp_HeapAlloc            0000000180023370     kernel32:KERNEL32.dll
 0002:00000378       __imp_OutputDebugStringW   0000000180023378     kernel32:KERNEL32.dll
 0002:00000380       __imp_InitializeSListHead  0000000180023380     kernel32:KERNEL32.dll
 0002:00000388       __imp_GetSystemTimeAsFileTime 0000000180023388     kernel32:KERNEL32.dll
 0002:00000390       __imp_QueryPerformanceCounter 0000000180023390     kernel32:KERNEL32.dll
 0002:00000398       __imp_GetStartupInfoW      0000000180023398     kernel32:KERNEL32.dll
 0002:000003a0       __imp_IsDebuggerPresent    00000001800233a0     kernel32:KERNEL32.dll
 0002:000003a8       __imp_IsProcessorFeaturePresent 00000001800233a8     kernel32:KERNEL32.dll
 0002:000003b0       __imp_TerminateProcess     00000001800233b0     kernel32:KERNEL32.dll
 0002:000003b8       __imp_GetCurrentProcess    00000001800233b8     kernel32:KERNEL32.dll
 0002:000003c0       __imp_InitializeCriticalSectionAndSpinCount 00000001800233c0     kernel32:KERNEL32.dll
 0002:000003c8       __imp_WaitForSingleObjectEx 00000001800233c8     kernel32:KERNEL32.dll
 0002:000003d0       __imp_RtlCaptureContext    00000001800233d0     kernel32:KERNEL32.dll
 0002:000003d8       __imp_RtlLookupFunctionEntry 00000001800233d8     kernel32:KERNEL32.dll
 0002:000003e0       __imp_RtlVirtualUnwind     00000001800233e0     kernel32:KERNEL32.dll
 0002:000003e8       __imp_UnhandledExceptionFilter 00000001800233e8     kernel32:KERNEL32.dll
 0002:000003f0       __imp_SetUnhandledExceptionFilter 00000001800233f0     kernel32:KERNEL32.dll
 0002:000003f8       \177KERNEL32_NULL_THUNK_DATA 00000001800233f8     kernel32:KERNEL32.dll
 0002:00000400       __imp_OleCreatePropertyFrame 0000000180023400     oleaut32:OLEAUT32.dll
 0002:00000408       __imp_UnRegisterTypeLib    0000000180023408     oleaut32:OLEAUT32.dll
 0002:00000410       __imp_RegisterTypeLib      0000000180023410     oleaut32:OLEAUT32.dll
 0002:00000418       __imp_LoadRegTypeLib       0000000180023418     oleaut32:OLEAUT32.dll
 0002:00000420       __imp_LoadTypeLib          0000000180023420     oleaut32:OLEAUT32.dll
 0002:00000428       __imp_VarUI4FromStr        0000000180023428     oleaut32:OLEAUT32.dll
 0002:00000430       __imp_VariantInit          0000000180023430     oleaut32:OLEAUT32.dll
 0002:00000438       __imp_SysAllocStringByteLen 0000000180023438     oleaut32:OLEAUT32.dll
 0002:00000440       __imp_SysStringByteLen     0000000180023440     oleaut32:OLEAUT32.dll
 0002:00000448       __imp_VariantChangeType    0000000180023448     oleaut32:OLEAUT32.dll
 0002:00000450       __imp_VariantClear         0000000180023450     oleaut32:OLEAUT32.dll
 0002:00000458       __imp_SysStringLen         0000000180023458     oleaut32:OLEAUT32.dll
 0002:00000460       __imp_SysFreeString        0000000180023460     oleaut32:OLEAUT32.dll
 0002:00000468       __imp_SysAllocStringLen    0000000180023468     oleaut32:OLEAUT32.dll
 0002:00000470       __imp_SysAllocString       0000000180023470     oleaut32:OLEAUT32.dll
 0002:00000478       \177OLEAUT32_NULL_THUNK_DATA 0000000180023478     oleaut32:OLEAUT32.dll
 0002:00000480       __imp_UnregisterClassW     0000000180023480     user32:USER32.dll
 0002:00000488       __imp_PostMessageW         0000000180023488     user32:USER32.dll
 0002:00000490       __imp_DefWindowProcW       0000000180023490     user32:USER32.dll
 0002:00000498       __imp_CallWindowProcW      0000000180023498     user32:USER32.dll
 0002:000004a0       __imp_RegisterClassExW     00000001800234a0     user32:USER32.dll
 0002:000004a8       __imp_GetClassInfoExW      00000001800234a8     user32:USER32.dll
 0002:000004b0       __imp_CreateWindowExW      00000001800234b0     user32:USER32.dll
 0002:000004b8       __imp_IsWindow             00000001800234b8     user32:USER32.dll
 0002:000004c0       __imp_IsChild              00000001800234c0     user32:USER32.dll
 0002:000004c8       __imp_DestroyWindow        00000001800234c8     user32:USER32.dll
 0002:000004d0       __imp_ShowWindow           00000001800234d0     user32:USER32.dll
 0002:000004d8       __imp_SetWindowPos         00000001800234d8     user32:USER32.dll
 0002:000004e0       __imp_CharNextW            00000001800234e0     user32:USER32.dll
 0002:000004e8       __imp_SetFocus             00000001800234e8     user32:USER32.dll
 0002:000004f0       __imp_LoadBitmapW          00000001800234f0     user32:USER32.dll
 0002:000004f8       __imp_RegisterClassW       00000001800234f8     user32:USER32.dll
 0002:00000500       __imp_PeekMessageW         0000000180023500     user32:USER32.dll
 0002:00000508       __imp_LoadCursorW          0000000180023508     user32:USER32.dll
 0002:00000510       __imp_GetParent            0000000180023510     user32:USER32.dll
 0002:00000518       __imp_SetWindowLongPtrW    0000000180023518     user32:USER32.dll
 0002:00000520       __imp_GetWindowLongPtrW    0000000180023520     user32:USER32.dll
 0002:00000528       __imp_PtInRect             0000000180023528     user32:USER32.dll
 0002:00000530       __imp_EqualRect            0000000180023530     user32:USER32.dll
 0002:00000538       __imp_OffsetRect           0000000180023538     user32:USER32.dll
 0002:00000540       __imp_UnionRect            0000000180023540     user32:USER32.dll
 0002:00000548       __imp_IntersectRect        0000000180023548     user32:USER32.dll
 0002:00000550       __imp_GetClientRect        0000000180023550     user32:USER32.dll
 0002:00000558       __imp_InvalidateRect       0000000180023558     user32:USER32.dll
 0002:00000560       __imp_SetWindowRgn         0000000180023560     user32:USER32.dll
 0002:00000568       __imp_EndPaint             0000000180023568     user32:USER32.dll
 0002:00000570       __imp_BeginPaint           0000000180023570     user32:USER32.dll
 0002:00000578       __imp_ReleaseDC            0000000180023578     user32:USER32.dll
 0002:00000580       __imp_GetDC                0000000180023580     user32:USER32.dll
 0002:00000588       __imp_GetKeyState          0000000180023588     user32:USER32.dll
 0002:00000590       __imp_GetFocus             0000000180023590     user32:USER32.dll
 0002:00000598       \177USER32_NULL_THUNK_DATA 0000000180023598     user32:USER32.dll
 0002:000005a0       __imp_CoCreateInstance     00000001800235a0     ole32:ole32.dll
 0002:000005a8       __imp_StringFromGUID2      00000001800235a8     ole32:ole32.dll
 0002:000005b0       __imp_CoTaskMemAlloc       00000001800235b0     ole32:ole32.dll
 0002:000005b8       __imp_CoTaskMemFree        00000001800235b8     ole32:ole32.dll
 0002:000005c0       __imp_ReadClassStm         00000001800235c0     ole32:ole32.dll
 0002:000005c8       __imp_WriteClassStm        00000001800235c8     ole32:ole32.dll
 0002:000005d0       __imp_CreateDataAdviseHolder 00000001800235d0     ole32:ole32.dll
 0002:000005d8       __imp_OleSaveToStream      00000001800235d8     ole32:ole32.dll
 0002:000005e0       __imp_CreateOleAdviseHolder 00000001800235e0     ole32:ole32.dll
 0002:000005e8       __imp_OleRegGetUserType    00000001800235e8     ole32:ole32.dll
 0002:000005f0       __imp_OleRegGetMiscStatus  00000001800235f0     ole32:ole32.dll
 0002:000005f8       __imp_OleRegEnumVerbs      00000001800235f8     ole32:ole32.dll
 0002:00000600       __imp_CLSIDFromProgID      0000000180023600     ole32:ole32.dll
 0002:00000608       __imp_CoTaskMemRealloc     0000000180023608     ole32:ole32.dll
 0002:00000610       \177ole32_NULL_THUNK_DATA  0000000180023610     ole32:ole32.dll
 0002:00000618       __guard_check_icall_fptr   0000000180023618     LIBCMT:guard_support.obj
 0002:00000620       __guard_xfg_check_icall_fptr 0000000180023620     LIBCMT:guard_support.obj
 0002:00000628       __guard_dispatch_icall_fptr 0000000180023628     LIBCMT:guard_support.obj
 0002:00000630       __guard_xfg_dispatch_icall_fptr 0000000180023630     LIBCMT:guard_support.obj
 0002:00000638       __guard_xfg_table_dispatch_icall_fptr 0000000180023638     LIBCMT:guard_support.obj
 0002:00000640       __xc_a                     0000000180023640     LIBCMT:initializers.obj
 0002:00000670       __xc_z                     0000000180023670     LIBCMT:initializers.obj
 0002:00000678       __xi_a                     0000000180023678     LIBCMT:initializers.obj
 0002:00000688       __acrt_stdio_initializer   0000000180023688     libucrt:stdio_initializer.obj
 0002:00000690       __acrt_multibyte_initializer 0000000180023690     libucrt:multibyte_initializer.obj
 0002:00000698       __acrt_tran_fma3_initializer 0000000180023698     libucrt:fma3_initializer.obj
 0002:000006a0       __xi_z                     00000001800236a0     LIBCMT:initializers.obj
 0002:000006a8       __xl_a                     00000001800236a8     LIBCMT:tlssup.obj
 0002:000006b0       __xl_z                     00000001800236b0     LIBCMT:tlssup.obj
 0002:000006b8       __xp_a                     00000001800236b8     LIBCMT:initializers.obj
 0002:000006c0       __acrt_locale_terminator   00000001800236c0     libucrt:locale_initializer.obj
 0002:000006c8       __dcrt_console_output_terminator 00000001800236c8     libucrt:console_output_initializer.obj
 0002:000006d0       __acrt_stdio_terminator    00000001800236d0     libucrt:stdio_initializer.obj
 0002:000006d8       __xp_z                     00000001800236d8     LIBCMT:initializers.obj
 0002:000006e0       __xt_a                     00000001800236e0     LIBCMT:initializers.obj
 0002:000006e8       __xt_z                     00000001800236e8     LIBCMT:initializers.obj
 0002:000006f0       ??_C@_13HADIAKP@?$AAS@     00000001800236f0     OposVariant.obj
 0002:000006f4       ??_C@_13LHMFKAAD@?$AAM@    00000001800236f4     OposVariant.obj
 0002:000006f8       ??_C@_13MKMNOPIJ@?$AAD@    00000001800236f8     OposVariant.obj
 0002:000006fc       ??_C@_13OPKGLAFF@?$AAB@    00000001800236fc     OposVariant.obj
 0002:00000700       ??_C@_17LLMMEOJD@?$AAV?$AAa?$AAl@ 0000000180023700     OposVariant.obj
 0002:00000708       ??_C@_1BI@JFAIJMHL@?$AAF?$AAo?$AAr?$AAc?$AAe?$AAR?$AAe?$AAm?$AAo?$AAv?$AAe@ 0000000180023708     OposVariant.obj
 0002:00000720       ??_C@_1BC@GCKHIPE@?$AAN?$AAo?$AAR?$AAe?$AAm?$AAo?$AAv?$AAe@ 0000000180023720     OposVariant.obj
 0002:00000738       ??_C@_1O@JDLOHAN@?$AAD?$AAe?$AAl?$AAe?$AAt?$AAe@ 0000000180023738     OposVariant.obj
 0002:00000748       ??_C@_11LOCGONAA@@         0000000180023748     OposVariant.obj
 0002:00000750       IID_IOPOSBillAcceptor_1_11 0000000180023750     BillAcceptor.obj
 0002:00000760       IID_IOPOSBillAcceptor      0000000180023760     BillAcceptor.obj
 0002:00000770       LIBID_OposBillAcceptor_CCO 0000000180023770     BillAcceptor.obj
 0002:00000780       DIID__IOPOSBillAcceptorEvents 0000000180023780     BillAcceptor.obj
 0002:00000790       CLSID_OPOSBillAcceptor     0000000180023790     BillAcceptor.obj
 0002:000007a0       _GUID_00000114_0000_0000_c000_000000000046 00000001800237a0     BillAcceptor.obj
 0002:000007b0       ??_C@_1BK@BIGILECK@?$AAA?$AAd?$AAv?$AAa?$AAp?$AAi?$AA3?$AA2?$AA?4?$AAd?$AAl?$AAl@ 00000001800237b0     BillAcceptor.obj
 0002:000007d0       ??_C@_0BI@MNCFCPFK@RegCreateKeyTransactedW@ 00000001800237d0     BillAcceptor.obj
 0002:000007e8       _GUID_b196b287_bab4_101a_b69c_00aa00341d07 00000001800237e8     BillAcceptor.obj
 0002:000007f8       _GUID_b196b285_bab4_101a_b69c_00aa00341d07 00000001800237f8     BillAcceptor.obj
 0002:00000808       _GUID_a6bc3ac0_dbaa_11ce_9de3_00aa004bb851 0000000180023808     BillAcceptor.obj
 0002:00000820       ?_entries@?1??_GetEntries@COPOSBillAcceptor@@SAPEBU_ATL_INTMAP_ENTRY@ATL@@XZ@4QBU34@B 0000000180023820     BillAcceptor.obj
 0002:00000a60       _GUID_0000010c_0000_0000_c000_000000000046 0000000180023a60     BillAcceptor.obj
 0002:00000a70       _GUID_cf51ed10_62fe_11cf_bf86_00a0c9034836 0000000180023a70     BillAcceptor.obj
 0002:00000a80       _GUID_0000010a_0000_0000_c000_000000000046 0000000180023a80     BillAcceptor.obj
 0002:00000a90       _GUID_b196b283_bab4_101a_b69c_00aa00341d07 0000000180023a90     BillAcceptor.obj
 0002:00000aa0       _GUID_cb5bdc81_93c1_11cf_8f20_00805f2cd064 0000000180023aa0     BillAcceptor.obj
 0002:00000ab0       ?pPropMap@?1??GetPropertyMap@COPOSBillAcceptor@@SAPEBUATL_PROPMAP_ENTRY@ATL@@XZ@4QBU34@B 0000000180023ab0     BillAcceptor.obj
 0002:00000b58       ??_C@_17DGDADEHL@?$AA_?$AAc?$AAx@ 0000000180023b58     BillAcceptor.obj
 0002:00000b60       ??_C@_17IOIMFDBO@?$AA_?$AAc?$AAy@ 0000000180023b60     BillAcceptor.obj
 0002:00000b68       _GUID_00000146_0000_0000_c000_000000000046 0000000180023b68     BillAcceptor.obj
 0002:00000b78       _GUID_922eada0_3424_11cf_b670_00aa004cd6d8 0000000180023b78     BillAcceptor.obj
 0002:00000b88       _GUID_9c2cad80_3424_11cf_b670_00aa004cd6d8 0000000180023b88     BillAcceptor.obj
 0002:00000b98       _GUID_00000119_0000_0000_c000_000000000046 0000000180023b98     BillAcceptor.obj
 0002:00000ba8       _GUID_b196b289_bab4_101a_b69c_00aa00341d07 0000000180023ba8     BillAcceptor.obj
 0002:00000bb8       ??_7?$CComObjectCached@VCComClassFactory@ATL@@@ATL@@6B@ 0000000180023bb8     BillAcceptor.obj
 0002:00000be8       ??_C@_1CE@PGFMOFKI@?$AAS?$AAt?$AAa?$AAt?$AAu?$AAs?$AAU?$AAp?$AAd?$AAa?$AAt?$AAe?$AAE?$AAv?$AAe@ 0000000180023be8     BillAcceptor.obj
 0002:00000c10       ??_C@_1BM@CBGEBBBJ@?$AAD?$AAi?$AAr?$AAe?$AAc?$AAt?$AAI?$AAO?$AAE?$AAv?$AAe?$AAn?$AAt@ 0000000180023c10     BillAcceptor.obj
 0002:00000c30       ??_C@_1BE@IEBMACEM@?$AAD?$AAa?$AAt?$AAa?$AAE?$AAv?$AAe?$AAn?$AAt@ 0000000180023c30     BillAcceptor.obj
 0002:00000c48       _GUID_b196b286_bab4_101a_b69c_00aa00341d07 0000000180023c48     BillAcceptor.obj
 0002:00000c58       _GUID_00000117_0000_0000_c000_000000000046 0000000180023c58     BillAcceptor.obj
 0002:00000c68       ??_7CComModule@ATL@@6B@    0000000180023c68     BillAcceptor.obj
 0002:00000cb8       ??_C@_1BC@ENICKDH@?$AAC?$AAo?$AAn?$AAt?$AAe?$AAn?$AAt?$AAs@ 0000000180023cb8     BillAcceptor.obj
 0002:00000cd0       _GUID_00000000_0000_0000_c000_000000000046 0000000180023cd0     BillAcceptor.obj
 0002:00000ce0       _GUID_00020400_0000_0000_c000_000000000046 0000000180023ce0     BillAcceptor.obj
 0002:00000cf0       ??_7?$CComObject@V?$CComEnum@UIEnumConnectionPoints@@$1?_GUID_b196b285_bab4_101a_b69c_00aa00341d07@@3U__s_GUID@@BPEAUIConnectionPoint@@V?$_CopyInterface@UIConnectionPoint@@@ATL@@VCComSingleThreadModel@6@@ATL@@@ATL@@6B@ 0000000180023cf0     BillAcceptor.obj
 0002:00000d30       _GUID_0000010e_0000_0000_c000_000000000046 0000000180023d30     BillAcceptor.obj
 0002:00000d40       _GUID_b196b288_bab4_101a_b69c_00aa00341d07 0000000180023d40     BillAcceptor.obj
 0002:00000d50       ??_C@_1M@KANJNLFF@?$AAC?$AAL?$AAS?$AAI?$AAD@ 0000000180023d50     BillAcceptor.obj
 0002:00000d60       ??_C@_1M@EJNEECMJ@?$AAA?$AAp?$AAp?$AAI?$AAD@ 0000000180023d60     BillAcceptor.obj
 0002:00000d70       _GUID_00000113_0000_0000_c000_000000000046 0000000180023d70     BillAcceptor.obj
 0002:00000d80       ?rgszNeverDelete@CRegParser@ATL@@1QBQEB_WB 0000000180023d80     BillAcceptor.obj
 0002:00000de0       _GUID_1c2056cc_5ef4_101b_8bc8_00aa003e3b29 0000000180023de0     BillAcceptor.obj
 0002:00000df0       ??_7CRegObject@ATL@@6B@    0000000180023df0     BillAcceptor.obj
 0002:00000e20       _GUID_00000112_0000_0000_c000_000000000046 0000000180023e20     BillAcceptor.obj
 0002:00000e30       _GUID_3af24292_0c96_11ce_a0cf_00aa00600ab8 0000000180023e30     BillAcceptor.obj
 0002:00000e40       _GUID_00000127_0000_0000_c000_000000000046 0000000180023e40     BillAcceptor.obj
 0002:00000e50       _GUID_0000010d_0000_0000_c000_000000000046 0000000180023e50     BillAcceptor.obj
 0002:00000e60       ??_C@_1CK@OEKPKBNA@?$AAC?$AAo?$AAm?$AAp?$AAo?$AAn?$AAe?$AAn?$AAt?$AA?5?$AAC?$AAa?$AAt?$AAe?$AAg@ 0000000180023e60     BillAcceptor.obj
 0002:00000e90       ??_C@_1BC@NKMMNMGL@?$AAF?$AAi?$AAl?$AAe?$AAT?$AAy?$AAp?$AAe@ 0000000180023e90     BillAcceptor.obj
 0002:00000ea8       ??_C@_1BE@EKPAFMCP@?$AAI?$AAn?$AAt?$AAe?$AAr?$AAf?$AAa?$AAc?$AAe@ 0000000180023ea8     BillAcceptor.obj
 0002:00000ec0       ??_C@_1BC@MAICEHGI@?$AAH?$AAa?$AAr?$AAd?$AAw?$AAa?$AAr?$AAe@ 0000000180023ec0     BillAcceptor.obj
 0002:00000ed8       ??_C@_19HLLLM@?$AAM?$AAi?$AAm?$AAe@ 0000000180023ed8     BillAcceptor.obj
 0002:00000ee8       ??_C@_17OMAOINJK@?$AAS?$AAA?$AAM@ 0000000180023ee8     BillAcceptor.obj
 0002:00000ef0       ??_C@_1BC@IBECJAAI@?$AAS?$AAE?$AAC?$AAU?$AAR?$AAI?$AAT?$AAY@ 0000000180023ef0     BillAcceptor.obj
 0002:00000f08       ??_C@_1O@GBFINDKL@?$AAS?$AAY?$AAS?$AAT?$AAE?$AAM@ 0000000180023f08     BillAcceptor.obj
 0002:00000f18       ??_C@_1BC@EAHCMADO@?$AAS?$AAo?$AAf?$AAt?$AAw?$AAa?$AAr?$AAe@ 0000000180023f18     BillAcceptor.obj
 0002:00000f30       ??_C@_1BA@JIHHIEDE@?$AAT?$AAy?$AAp?$AAe?$AAL?$AAi?$AAb@ 0000000180023f30     BillAcceptor.obj
 0002:00000f40       ?map@?1??HKeyFromString@CRegParser@ATL@@KAPEAUHKEY__@@PEA_W@Z@4QBUkeymap@?1??123@KAPEAU4@0@Z@B 0000000180023f40     BillAcceptor.obj
 0002:00001020       ??_C@_19NCHLBIN@?$AAH?$AAK?$AAC?$AAR@ 0000000180024020     BillAcceptor.obj
 0002:00001030       ??_C@_19JAPAIJDE@?$AAH?$AAK?$AAC?$AAU@ 0000000180024030     BillAcceptor.obj
 0002:00001040       ??_C@_19PEALEEJB@?$AAH?$AAK?$AAL?$AAM@ 0000000180024040     BillAcceptor.obj
 0002:00001050       ??_C@_17PJOJPMPB@?$AAH?$AAK?$AAU@ 0000000180024050     BillAcceptor.obj
 0002:00001058       ??_C@_19PNBHMJPL@?$AAH?$AAK?$AAP?$AAD@ 0000000180024058     BillAcceptor.obj
 0002:00001068       ??_C@_19GFFAIJHG@?$AAH?$AAK?$AAD?$AAD@ 0000000180024068     BillAcceptor.obj
 0002:00001078       ??_C@_19OFICIBHH@?$AAH?$AAK?$AAC?$AAC@ 0000000180024078     BillAcceptor.obj
 0002:00001088       ??_C@_1CE@PACHPJFI@?$AAH?$AAK?$AAE?$AAY?$AA_?$AAC?$AAL?$AAA?$AAS?$AAS?$AAE?$AAS?$AA_?$AAR?$AAO@ 0000000180024088     BillAcceptor.obj
 0002:000010b0       ??_C@_1CE@HLHNCBPM@?$AAH?$AAK?$AAE?$AAY?$AA_?$AAC?$AAU?$AAR?$AAR?$AAE?$AAN?$AAT?$AA_?$AAU?$AAS@ 00000001800240b0     BillAcceptor.obj
 0002:000010d8       ??_C@_1CG@GFBEANJL@?$AAH?$AAK?$AAE?$AAY?$AA_?$AAL?$AAO?$AAC?$AAA?$AAL?$AA_?$AAM?$AAA?$AAC?$AAH@ 00000001800240d8     BillAcceptor.obj
 0002:00001100       ??_C@_1M@PPPPCDEP@?$AAA?$AAP?$AAP?$AAI?$AAD@ 0000000180024100     BillAcceptor.obj
 0002:00001110       ??_C@_1BG@BGODANIO@?$AAH?$AAK?$AAE?$AAY?$AA_?$AAU?$AAS?$AAE?$AAR?$AAS@ 0000000180024110     BillAcceptor.obj
 0002:00001128       ??_C@_1CM@KHNNAOIC@?$AAH?$AAK?$AAE?$AAY?$AA_?$AAP?$AAE?$AAR?$AAF?$AAO?$AAR?$AAM?$AAA?$AAN?$AAC@ 0000000180024128     BillAcceptor.obj
 0002:00001158       ??_C@_1BM@HAGMMHIA@?$AAH?$AAK?$AAE?$AAY?$AA_?$AAD?$AAY?$AAN?$AA_?$AAD?$AAA?$AAT?$AAA@ 0000000180024158     BillAcceptor.obj
 0002:00001178       ??_C@_1CI@BBJOACGG@?$AAH?$AAK?$AAE?$AAY?$AA_?$AAC?$AAU?$AAR?$AAR?$AAE?$AAN?$AAT?$AA_?$AAC?$AAO@ 0000000180024178     BillAcceptor.obj
 0002:000011a0       _GUID_00000109_0000_0000_c000_000000000046 00000001800241a0     BillAcceptor.obj
 0002:000011b0       _GUID_7fd52380_4e07_101b_ae2d_08002b2ec713 00000001800241b0     BillAcceptor.obj
 0002:000011c0       ??_C@_1EA@NHKLICFA@?$AAH?$AAK?$AAC?$AAU?$AA?$AN?$AA?6?$AA?$HL?$AA?7?$AAS?$AAo?$AAf?$AAt?$AAw?$AAa?$AAr@ 00000001800241c0     BillAcceptor.obj
 0002:00001200       ??_C@_1BE@LJOLIMEM@?$AA?$AN?$AA?6?$AA?7?$AA?$HN?$AA?$AN?$AA?6?$AA?$HN?$AA?$AN?$AA?6@ 0000000180024200     BillAcceptor.obj
 0002:00001218       ??_7?$CComContainedObject@VCOPOSBillAcceptor@@@ATL@@6B?$IDispatchImpl@UIOPOSBillAcceptor@@$1?IID_IOPOSBillAcceptor@@3U_GUID@@B$1?LIBID_OposBillAcceptor_CCO@@3U3@B$00$0A@VCComTypeInfoHolder@ATL@@@1@@ 0000000180024218     BillAcceptor.obj
 0002:00001478       ??_7?$CComContainedObject@VCOPOSBillAcceptor@@@ATL@@6BCComControlBase@1@@ 0000000180024478     BillAcceptor.obj
 0002:000014a0       ??_7?$CComContainedObject@VCOPOSBillAcceptor@@@ATL@@6B?$CWindowImpl@VCOPOSBillAcceptor@@VCWindow@ATL@@V?$CWinTraits@$0FGAAAAAA@$0A@@3@@1@@ 00000001800244a0     BillAcceptor.obj
 0002:000014c0       ??_7?$CComContainedObject@VCOPOSBillAcceptor@@@ATL@@6B?$IPersistStreamInitImpl@VCOPOSBillAcceptor@@@1@@ 00000001800244c0     BillAcceptor.obj
 0002:00001508       ??_7?$CComContainedObject@VCOPOSBillAcceptor@@@ATL@@6B?$IOleControlImpl@VCOPOSBillAcceptor@@@1@@ 0000000180024508     BillAcceptor.obj
 0002:00001540       ??_7?$CComContainedObject@VCOPOSBillAcceptor@@@ATL@@6B?$IOleObjectImpl@VCOPOSBillAcceptor@@@1@@ 0000000180024540     BillAcceptor.obj
 0002:00001600       ??_7?$CComContainedObject@VCOPOSBillAcceptor@@@ATL@@6B?$IOleInPlaceActiveObjectImpl@VCOPOSBillAcceptor@@@1@@ 0000000180024600     BillAcceptor.obj
 0002:00001650       ??_7?$CComContainedObject@VCOPOSBillAcceptor@@@ATL@@6B?$IViewObjectExImpl@VCOPOSBillAcceptor@@@1@@ 0000000180024650     BillAcceptor.obj
 0002:000016c8       ??_7?$CComContainedObject@VCOPOSBillAcceptor@@@ATL@@6B?$IOleInPlaceObjectWindowlessImpl@VCOPOSBillAcceptor@@@1@@ 00000001800246c8     BillAcceptor.obj
 0002:00001720       ??_7?$CComContainedObject@VCOPOSBillAcceptor@@@ATL@@6B?$IConnectionPointContainerImpl@VCOPOSBillAcceptor@@@1@@ 0000000180024720     BillAcceptor.obj
 0002:00001748       ??_7?$CComContainedObject@VCOPOSBillAcceptor@@@ATL@@6B?$IPersistStorageImpl@VCOPOSBillAcceptor@@@1@@ 0000000180024748     BillAcceptor.obj
 0002:00001798       ??_7?$CComContainedObject@VCOPOSBillAcceptor@@@ATL@@6B?$ISpecifyPropertyPagesImpl@VCOPOSBillAcceptor@@@1@@ 0000000180024798     BillAcceptor.obj
 0002:000017b8       ??_7?$CComContainedObject@VCOPOSBillAcceptor@@@ATL@@6B?$IQuickActivateImpl@VCOPOSBillAcceptor@@@1@@ 00000001800247b8     BillAcceptor.obj
 0002:000017e8       ??_7?$CComContainedObject@VCOPOSBillAcceptor@@@ATL@@6B?$IDataObjectImpl@VCOPOSBillAcceptor@@@1@@ 00000001800247e8     BillAcceptor.obj
 0002:00001848       ??_7?$CComContainedObject@VCOPOSBillAcceptor@@@ATL@@6B?$IProvideClassInfo2Impl@$1?CLSID_OPOSBillAcceptor@@3U_GUID@@B$1?DIID__IOPOSBillAcceptorEvents@@3U2@B$1?LIBID_OposBillAcceptor_CCO@@3U2@B$00$0A@VCComTypeInfoHolder@ATL@@@1@@ 0000000180024848     BillAcceptor.obj
 0002:00001870       ??_7?$CComContainedObject@VCOPOSBillAcceptor@@@ATL@@6B?$IObjectSafetyImpl@VCOPOSBillAcceptor@@$02@1@@ 0000000180024870     BillAcceptor.obj
 0002:000018a0       ??_7?$CComContainedObject@VCOPOSBillAcceptor@@@ATL@@6B?$IPropertyNotifySinkCP@VCOPOSBillAcceptor@@VCComDynamicUnkArray@ATL@@@1@@ 00000001800248a0     BillAcceptor.obj
 0002:000018e0       ??_7?$CComContainedObject@VCOPOSBillAcceptor@@@ATL@@6B?$CProxy_IOPOSEvents@VCOPOSBillAcceptor@@@@@ 00000001800248e0     BillAcceptor.obj
 0002:00001920       ??_7?$CComAggObject@VCOPOSBillAcceptor@@@ATL@@6B@ 0000000180024920     BillAcceptor.obj
 0002:00001940       ??_7?$CComObject@VCOPOSBillAcceptor@@@ATL@@6B?$IDispatchImpl@UIOPOSBillAcceptor@@$1?IID_IOPOSBillAcceptor@@3U_GUID@@B$1?LIBID_OposBillAcceptor_CCO@@3U3@B$00$0A@VCComTypeInfoHolder@ATL@@@1@@ 0000000180024940     BillAcceptor.obj
 0002:00001ba0       ??_7?$CComObject@VCOPOSBillAcceptor@@@ATL@@6BCComControlBase@1@@ 0000000180024ba0     BillAcceptor.obj
 0002:00001bc8       ??_7?$CComObject@VCOPOSBillAcceptor@@@ATL@@6B?$CWindowImpl@VCOPOSBillAcceptor@@VCWindow@ATL@@V?$CWinTraits@$0FGAAAAAA@$0A@@3@@1@@ 0000000180024bc8     BillAcceptor.obj
 0002:00001be8       ??_7?$CComObject@VCOPOSBillAcceptor@@@ATL@@6B?$IPersistStreamInitImpl@VCOPOSBillAcceptor@@@1@@ 0000000180024be8     BillAcceptor.obj
 0002:00001c30       ??_7?$CComObject@VCOPOSBillAcceptor@@@ATL@@6B?$IOleControlImpl@VCOPOSBillAcceptor@@@1@@ 0000000180024c30     BillAcceptor.obj
 0002:00001c68       ??_7?$CComObject@VCOPOSBillAcceptor@@@ATL@@6B?$IOleObjectImpl@VCOPOSBillAcceptor@@@1@@ 0000000180024c68     BillAcceptor.obj
 0002:00001d28       ??_7?$CComObject@VCOPOSBillAcceptor@@@ATL@@6B?$IOleInPlaceActiveObjectImpl@VCOPOSBillAcceptor@@@1@@ 0000000180024d28     BillAcceptor.obj
 0002:00001d78       ??_7?$CComObject@VCOPOSBillAcceptor@@@ATL@@6B?$IViewObjectExImpl@VCOPOSBillAcceptor@@@1@@ 0000000180024d78     BillAcceptor.obj
 0002:00001df0       ??_7?$CComObject@VCOPOSBillAcceptor@@@ATL@@6B?$IOleInPlaceObjectWindowlessImpl@VCOPOSBillAcceptor@@@1@@ 0000000180024df0     BillAcceptor.obj
 0002:00001e48       ??_7?$CComObject@VCOPOSBillAcceptor@@@ATL@@6B?$IConnectionPointContainerImpl@VCOPOSBillAcceptor@@@1@@ 0000000180024e48     BillAcceptor.obj
 0002:00001e70       ??_7?$CComObject@VCOPOSBillAcceptor@@@ATL@@6B?$IPersistStorageImpl@VCOPOSBillAcceptor@@@1@@ 0000000180024e70     BillAcceptor.obj
 0002:00001ec0       ??_7?$CComObject@VCOPOSBillAcceptor@@@ATL@@6B?$ISpecifyPropertyPagesImpl@VCOPOSBillAcceptor@@@1@@ 0000000180024ec0     BillAcceptor.obj
 0002:00001ee0       ??_7?$CComObject@VCOPOSBillAcceptor@@@ATL@@6B?$IQuickActivateImpl@VCOPOSBillAcceptor@@@1@@ 0000000180024ee0     BillAcceptor.obj
 0002:00001f10       ??_7?$CComObject@VCOPOSBillAcceptor@@@ATL@@6B?$IDataObjectImpl@VCOPOSBillAcceptor@@@1@@ 0000000180024f10     BillAcceptor.obj
 0002:00001f70       ??_7?$CComObject@VCOPOSBillAcceptor@@@ATL@@6B?$IProvideClassInfo2Impl@$1?CLSID_OPOSBillAcceptor@@3U_GUID@@B$1?DIID__IOPOSBillAcceptorEvents@@3U2@B$1?LIBID_OposBillAcceptor_CCO@@3U2@B$00$0A@VCComTypeInfoHolder@ATL@@@1@@ 0000000180024f70     BillAcceptor.obj
 0002:00001f98       ??_7?$CComObject@VCOPOSBillAcceptor@@@ATL@@6B?$IObjectSafetyImpl@VCOPOSBillAcceptor@@$02@1@@ 0000000180024f98     BillAcceptor.obj
 0002:00001fc8       ??_7?$CComObject@VCOPOSBillAcceptor@@@ATL@@6B?$IPropertyNotifySinkCP@VCOPOSBillAcceptor@@VCComDynamicUnkArray@ATL@@@1@@ 0000000180024fc8     BillAcceptor.obj
 0002:00002008       ??_7?$CComObject@VCOPOSBillAcceptor@@@ATL@@6B?$CProxy_IOPOSEvents@VCOPOSBillAcceptor@@@@@ 0000000180025008     BillAcceptor.obj
 0002:00002048       ??_C@_1O@MNLDABAF@?$AAM?$AAo?$AAd?$AAu?$AAl?$AAe@ 0000000180025048     BillAcceptor.obj
 0002:00002058       ??_C@_1BG@JBACFMF@?$AAM?$AAo?$AAd?$AAu?$AAl?$AAe?$AA_?$AAR?$AAa?$AAw@ 0000000180025058     BillAcceptor.obj
 0002:00002070       ??_C@_1BC@KAILKFFG@?$AAR?$AAE?$AAG?$AAI?$AAS?$AAT?$AAR?$AAY@ 0000000180025070     BillAcceptor.obj
 0002:00002088       ??_C@_1O@GBFKGNEO@?$AAA?$AAT?$AAL?$AA?3?$AA?$CF?$AAp@ 0000000180025088     BillAcceptor.obj
 0002:00002098       ??_C@_1BA@PICGEGJB@?$AAD?$AAI?$AAS?$AAP?$AAL?$AAA?$AAY@ 0000000180025098     BillAcceptor.obj
 0002:000020a8       _GUID_9bfbbc02_eff1_101a_84ed_00aa00341d07 00000001800250a8     BillAcceptor.obj
 0002:000020b8       ?_entries@?1??_GetEntries@?$CComEnum@UIEnumConnectionPoints@@$1?_GUID_b196b285_bab4_101a_b69c_00aa00341d07@@3U__s_GUID@@BPEAUIConnectionPoint@@V?$_CopyInterface@UIConnectionPoint@@@ATL@@VCComSingleThreadModel@6@@ATL@@SAPEBU_ATL_INTMAP_ENTRY@3@XZ@4QBU43@B 00000001800250b8     BillAcceptor.obj
 0002:000020e8       _GUID_00020412_0000_0000_c000_000000000046 00000001800250e8     BillAcceptor.obj
 0002:000020f8       _GUID_00020401_0000_0000_c000_000000000046 00000001800250f8     BillAcceptor.obj
 0002:00002108       _GUID_b196b284_bab4_101a_b69c_00aa00341d07 0000000180025108     BillAcceptor.obj
 0002:00002118       ??_7?$CComObject@V?$CComEnum@UIEnumConnections@@$1?_GUID_b196b287_bab4_101a_b69c_00aa00341d07@@3U__s_GUID@@BUtagCONNECTDATA@@V?$_Copy@UtagCONNECTDATA@@@ATL@@VCComSingleThreadModel@6@@ATL@@@ATL@@6B@ 0000000180025118     BillAcceptor.obj
 0002:00002158       _GUID_55980ba0_35aa_11cf_b671_00aa004cd6d8 0000000180025158     BillAcceptor.obj
 0002:00002168       _GUID_b196b28b_bab4_101a_b69c_00aa00341d07 0000000180025168     BillAcceptor.obj
 0002:00002178       ?_entries@?1??_GetEntries@?$CComEnum@UIEnumConnections@@$1?_GUID_b196b287_bab4_101a_b69c_00aa00341d07@@3U__s_GUID@@BUtagCONNECTDATA@@V?$_Copy@UtagCONNECTDATA@@@ATL@@VCComSingleThreadModel@6@@ATL@@SAPEBU_ATL_INTMAP_ENTRY@3@XZ@4QBU43@B 0000000180025178     BillAcceptor.obj
 0002:000021a8       ??_7CComClassFactory@ATL@@6B@ 00000001800251a8     BillAcceptor.obj
 0002:000021d8       ?_entries@?1??_GetEntries@CComClassFactory@ATL@@SAPEBU_ATL_INTMAP_ENTRY@3@XZ@4QBU43@B 00000001800251d8     BillAcceptor.obj
 0002:00002208       _GUID_00000001_0000_0000_c000_000000000046 0000000180025208     BillAcceptor.obj
 0002:00002218       ??_C@_0BG@EKFFMJIO@RegOpenKeyTransactedW@ 0000000180025218     BillAcceptor.obj
 0002:00002230       ??_C@_0BI@HAKLOOGP@RegDeleteKeyTransactedW@ 0000000180025230     BillAcceptor.obj
 0002:00002248       ??_C@_0BA@LILAPHGE@RegDeleteKeyExW@ 0000000180025248     BillAcceptor.obj
 0002:00002258       ??_C@_19ILOCMLCJ@?$AA?4?$AAt?$AAl?$AAb@ 0000000180025258     BillAcceptor.obj
 0002:00002268       _GUID_0002e012_0000_0000_c000_000000000046 0000000180025268     BillAcceptor.obj
 0002:00002278       ??_C@_1O@FHBGLCIO@?$AAC?$AAL?$AAS?$AAI?$AAD?$AA?2@ 0000000180025278     BillAcceptor.obj
 0002:00002288       ??_C@_1CK@IFBKBFAA@?$AA?2?$AAR?$AAe?$AAq?$AAu?$AAi?$AAr?$AAe?$AAd?$AA?5?$AAC?$AAa?$AAt?$AAe?$AAg@ 0000000180025288     BillAcceptor.obj
 0002:000022b8       ??_C@_1DA@BIHALFED@?$AA?2?$AAI?$AAm?$AAp?$AAl?$AAe?$AAm?$AAe?$AAn?$AAt?$AAe?$AAd?$AA?5?$AAC?$AAa@ 00000001800252b8     BillAcceptor.obj
 0002:000022e8       ??_C@_1BK@EDKOLFBJ@?$AAO?$AAL?$AAE?$AAA?$AAU?$AAT?$AA3?$AA2?$AA?4?$AAD?$AAL?$AAL@ 00000001800252e8     BillAcceptor.obj
 0002:00002308       ??_C@_0BJ@CNLFOMHB@UnRegisterTypeLibForUser@ 0000000180025308     BillAcceptor.obj
 0002:00002328       ??_C@_0BH@LBOMMKPJ@RegisterTypeLibForUser@ 0000000180025328     BillAcceptor.obj
 0002:00002340       ??_C@_0P@MMNMMLGK@COFreezeEvents@ 0000000180025340     BillAcceptorImpl.obj
 0002:00002350       ??_C@_0BC@OGCGGIMP@GetPropertyNumber@ 0000000180025350     BillAcceptorImpl.obj
 0002:00002368       ??_C@_0BC@MDCNODNB@SetPropertyNumber@ 0000000180025368     BillAcceptorImpl.obj
 0002:00002380       ??_C@_0BC@CFCCMIMD@GetPropertyString@ 0000000180025380     BillAcceptorImpl.obj
 0002:00002398       ??_C@_0BC@CJEDNN@SetPropertyString@ 0000000180025398     BillAcceptorImpl.obj
 0002:000023b0       ??_C@_0M@LNPKKKDA@OpenService@ 00000001800253b0     BillAcceptorImpl.obj
 0002:000023c0       ??_C@_0M@PCMCHHMH@CheckHealth@ 00000001800253c0     BillAcceptorImpl.obj
 0002:000023d0       ??_C@_0M@JGMIDNEK@ClaimDevice@ 00000001800253d0     BillAcceptorImpl.obj
 0002:000023e0       ??_C@_0L@BNEIFEJC@ClearInput@ 00000001800253e0     BillAcceptorImpl.obj
 0002:000023f0       ??_C@_0N@DDFIIBMP@CloseService@ 00000001800253f0     BillAcceptorImpl.obj
 0002:00002400       ??_C@_08EEIHICPC@DirectIO@ 0000000180025400     BillAcceptorImpl.obj
 0002:00002410       ??_C@_0O@BCPMENMJ@ReleaseDevice@ 0000000180025410     BillAcceptorImpl.obj
 0002:00002420       ??_C@_0BA@GFABKEEE@ResetStatistics@ 0000000180025420     BillAcceptorImpl.obj
 0002:00002430       ??_C@_0BD@DPALHJGC@RetrieveStatistics@ 0000000180025430     BillAcceptorImpl.obj
 0002:00002448       ??_C@_0BB@KOHIKNFC@UpdateStatistics@ 0000000180025448     BillAcceptorImpl.obj
 0002:00002460       ??_C@_0BH@PBKBNMGB@CompareFirmwareVersion@ 0000000180025460     BillAcceptorImpl.obj
 0002:00002478       ??_C@_0P@FBPDPIPA@UpdateFirmware@ 0000000180025478     BillAcceptorImpl.obj
 0002:00002488       ??_C@_0BB@OAMAKNAK@AdjustCashCounts@ 0000000180025488     BillAcceptorImpl.obj
 0002:000024a0       ??_C@_0N@EMNBHBJF@BeginDeposit@ 00000001800254a0     BillAcceptorImpl.obj
 0002:000024b0       ??_C@_0L@OMAABOPC@EndDeposit@ 00000001800254b0     BillAcceptorImpl.obj
 0002:000024c0       ??_C@_0L@NNMKNCOP@FixDeposit@ 00000001800254c0     BillAcceptorImpl.obj
 0002:000024d0       ??_C@_0N@NPMPKLIN@PauseDeposit@ 00000001800254d0     BillAcceptorImpl.obj
 0002:000024e0       ??_C@_0P@HELDJPLA@ReadCashCounts@ 00000001800254e0     BillAcceptorImpl.obj
 0002:000024f0       ??_7?$CProxy_IOPOSEvents@VCOPOSBillAcceptor@@@@6B@ 00000001800254f0     BillAcceptorImpl.obj
 0002:00002530       ??_C@_1BA@IFHENID@?$AA?$FL?$AAE?$AAr?$AAr?$AAo?$AAr?$AA?$FN@ 0000000180025530     BillAcceptorImpl.obj
 0002:00002540       ??_C@_0CP@ILDFPACO@SOFTWARE?2OLEforRetail?2ServiceOP@ 0000000180025540     BillAcceptorImpl.obj
 0002:00002570       ??_C@_1M@IAIJHCCH@?$AAC?$AAl?$AAo?$AAs?$AAe@ 0000000180025570     BillAcceptorImpl.obj
 0002:00002580       ??_C@_1M@PCPKGJAH@?$AAC?$AAl?$AAa?$AAi?$AAm@ 0000000180025580     BillAcceptorImpl.obj
 0002:00002590       ??_C@_1BA@NDFKIOCP@?$AAR?$AAe?$AAl?$AAe?$AAa?$AAs?$AAe@ 0000000180025590     BillAcceptorImpl.obj
 0002:000025a0       ??_C@_0N@DPFDBDOF@BillAcceptor@ 00000001800255a0     BillAcceptorImpl.obj
 0002:000025b0       ??_C@_1BM@IJMNMBPK@?$AAG?$AAe?$AAt?$AAO?$AAp?$AAe?$AAn?$AAR?$AAe?$AAs?$AAu?$AAl?$AAt@ 00000001800255b0     BillAcceptorImpl.obj
 0002:000025d0       IID_IDispatch              00000001800255d0     uuid:oaidl_i.obj
 0002:000025e0       IID_IPropertyNotifySink    00000001800255e0     uuid:ocidl_i.obj
 0002:000025f0       GUID_NULL                  00000001800255f0     uuid:cguid_i.obj
 0002:00002600       CLSID_StdGlobalInterfaceTable 0000000180025600     uuid:cguid_i.obj
 0002:00002610       CLSID_StdComponentCategoriesMgr 0000000180025610     uuid:ieguids.obj
 0002:00002620       IID_IUnknown               0000000180025620     uuid:unknwn_i.obj
 0002:00002630       __xmm@ffffffffffffffffffffffffffffffff 0000000180025630     LIBCMT:utility.obj
 0002:00002640       ??_C@_1EC@JIJBPKFM@?$AAa?$AAp?$AAi?$AA?9?$AAm?$AAs?$AA?9?$AAw?$AAi?$AAn?$AA?9?$AAc?$AAo?$AAr?$AAe@ 0000000180025640     LIBCMT:thread_safe_statics.obj
 0002:00002688       ??_C@_1BK@MGMFAEKH@?$AAk?$AAe?$AAr?$AAn?$AAe?$AAl?$AA3?$AA2?$AA?4?$AAd?$AAl?$AAl@ 0000000180025688     LIBCMT:thread_safe_statics.obj
 0002:000026a8       ??_C@_0BJ@JEBJOJFJ@SleepConditionVariableCS@ 00000001800256a8     LIBCMT:thread_safe_statics.obj
 0002:000026c8       ??_C@_0BJ@PGPPEPCC@WakeAllConditionVariable@ 00000001800256c8     LIBCMT:thread_safe_statics.obj
 0002:000026e1       ?nothrow@std@@3Unothrow_t@1@B 00000001800256e1     LIBCMT:std_nothrow.obj
 0002:000026f8       _pRawDllMain               00000001800256f8     LIBCMT:dll_dllmain.obj
 0002:000026f8       _pDefaultRawDllMain        00000001800256f8     LIBCMT:dll_dllmain.obj
 0002:00002708       ??_7exception@std@@6B@     0000000180025708     LIBCMT:throw_bad_alloc.obj
 0002:00002718       ??_C@_0BC@EOODALEL@Unknown?5exception@ 0000000180025718     LIBCMT:throw_bad_alloc.obj
 0002:00002738       ??_7bad_alloc@std@@6B@     0000000180025738     LIBCMT:throw_bad_alloc.obj
 0002:00002748       ??_C@_0P@GHFPNOJB@bad?5allocation@ 0000000180025748     LIBCMT:throw_bad_alloc.obj
 0002:00002760       ??_7bad_array_new_length@std@@6B@ 0000000180025760     LIBCMT:throw_bad_alloc.obj
 0002:00002770       ??_C@_0BF@KINCDENJ@bad?5array?5new?5length@ 0000000180025770     LIBCMT:throw_bad_alloc.obj
 0002:00002790       ??_7type_info@@6B@         0000000180025790     LIBCMT:std_type_info_static.obj
 0002:00002798       GUID_ATLVer110             0000000180025798     atls:atlbase.obj
 0002:000027b0       ??_C@_1IC@ONKHOIDK@?$AAE?$AAR?$AAR?$AAO?$AAR?$AA?5?$AA?3?$AA?5?$AAU?$AAn?$AAa?$AAb?$AAl?$AAe?$AA?5@ 00000001800257b0     atls:atlbase.obj
 0002:00002838       ??_C@_0N@FJEPLCIH@atlthunk?4dll@ 0000000180025838     atls:atlthunk.obj
 0002:00002848       ??_C@_0BG@GAKFHCBM@AtlThunk_AllocateData@ 0000000180025848     atls:atlthunk.obj
 0002:00002860       ??_C@_0BC@JKONFIAH@AtlThunk_InitData@ 0000000180025860     atls:atlthunk.obj
 0002:00002878       ??_C@_0BE@IAOEELAK@AtlThunk_DataToCode@ 0000000180025878     atls:atlthunk.obj
 0002:00002890       ??_C@_0BC@GBGKAIPI@AtlThunk_FreeData@ 0000000180025890     atls:atlthunk.obj
 0002:000028a8       ?s_negLengthTab@FH4@@3QBCB 00000001800258a8     libvcruntime:risctrnsctrl.obj
 0002:000028b8       ?s_shiftTab@FH4@@3QBEB     00000001800258b8     libvcruntime:risctrnsctrl.obj
 0002:00002968       _pDestructExceptionObject  0000000180025968     libvcruntime:ehhelpers.obj
 0002:00002978       ??_7bad_exception@std@@6B@ 0000000180025978     libvcruntime:frame.obj
 0002:00002988       ??_C@_0O@DPKOEFFH@bad?5exception@ 0000000180025988     libvcruntime:frame.obj
 0002:000030a0       ??_C@_08EHJDFFNH@__based?$CI@ 00000001800260a0     libvcruntime:undname.obj
 0002:000030b0       ??_C@_07KOLFKCDI@__cdecl@  00000001800260b0     libvcruntime:undname.obj
 0002:000030b8       ??_C@_08GHMPAG@__pascal@   00000001800260b8     libvcruntime:undname.obj
 0002:000030c8       ??_C@_09IFJBGAPI@__stdcall@ 00000001800260c8     libvcruntime:undname.obj
 0002:000030d8       ??_C@_0L@NPHFGOKO@__thiscall@ 00000001800260d8     libvcruntime:undname.obj
 0002:000030e8       ??_C@_0L@JMKHOMEK@__fastcall@ 00000001800260e8     libvcruntime:undname.obj
 0002:000030f8       ??_C@_0N@BCKKPABJ@__vectorcall@ 00000001800260f8     libvcruntime:undname.obj
 0002:00003108       ??_C@_09HIJEGCPM@__clrcall@ 0000000180026108     libvcruntime:undname.obj
 0002:00003114       ??_C@_06GHPCKEAG@__eabi@   0000000180026114     libvcruntime:undname.obj
 0002:00003120       ??_C@_09IOPIDJLG@__swift_1@ 0000000180026120     libvcruntime:undname.obj
 0002:00003130       ??_C@_09KFNFGKHF@__swift_2@ 0000000180026130     libvcruntime:undname.obj
 0002:00003140       ??_C@_07JOMMBBKO@__ptr64@  0000000180026140     libvcruntime:undname.obj
 0002:00003148       ??_C@_0L@PILCLIHE@__restrict@ 0000000180026148     libvcruntime:undname.obj
 0002:00003158       ??_C@_0M@GFIIJFMG@__unaligned@ 0000000180026158     libvcruntime:undname.obj
 0002:00003168       ??_C@_09DHDLOLLB@restrict?$CI@ 0000000180026168     libvcruntime:undname.obj
 0002:00003172       ??_C@_00CNPNBAHC@@         0000000180026172     libvcruntime:undname.obj
 0002:00003174       ??_C@_04NIHEBCM@?5new@     0000000180026174     libvcruntime:undname.obj
 0002:00003180       ??_C@_07FPCDHGMM@?5delete@ 0000000180026180     libvcruntime:undname.obj
 0002:00003188       ??_C@_01NEMOKFLO@?$DN@     0000000180026188     libvcruntime:undname.obj
 0002:0000318c       ??_C@_02GPIOPFAK@?$DO?$DO@ 000000018002618c     libvcruntime:undname.obj
 0002:00003190       ??_C@_02FODMEDOG@?$DM?$DM@ 0000000180026190     libvcruntime:undname.obj
 0002:00003194       ??_C@_01DCLJPIOD@?$CB@     0000000180026194     libvcruntime:undname.obj
 0002:00003198       ??_C@_02EGOFBIJA@?$DN?$DN@ 0000000180026198     libvcruntime:undname.obj
 0002:0000319c       ??_C@_02FDNJECIE@?$CB?$DN@ 000000018002619c     libvcruntime:undname.obj
 0002:000031a0       ??_C@_02GPECMEKF@?$FL?$FN@ 00000001800261a0     libvcruntime:undname.obj
 0002:000031a8       ??_C@_08LHJFAFGD@operator@ 00000001800261a8     libvcruntime:undname.obj
 0002:000031b4       ??_C@_02HBOOOICD@?9?$DO@   00000001800261b4     libvcruntime:undname.obj
 0002:000031b8       ??_C@_01NBENCBCI@?$CK@     00000001800261b8     libvcruntime:undname.obj
 0002:000031bc       ??_C@_02ECNGHCIF@?$CL?$CL@ 00000001800261bc     libvcruntime:undname.obj
 0002:000031c0       ??_C@_02BAABKJLB@?9?9@     00000001800261c0     libvcruntime:undname.obj
 0002:000031c4       ??_C@_01JOAMLHOP@?9@       00000001800261c4     libvcruntime:undname.obj
 0002:000031c8       ??_C@_01MIFGBAGJ@?$CL@     00000001800261c8     libvcruntime:undname.obj
 0002:000031cc       ??_C@_01HNPIGOCE@?$CG@     00000001800261cc     libvcruntime:undname.obj
 0002:000031d0       ??_C@_03MNHNFDLC@?9?$DO?$CK@ 00000001800261d0     libvcruntime:undname.obj
 0002:000031d4       ??_C@_01KMDKNFGN@?1@       00000001800261d4     libvcruntime:undname.obj
 0002:000031d8       ??_C@_01FGNFDNOH@?$CF@     00000001800261d8     libvcruntime:undname.obj
 0002:000031dc       ??_C@_01MNNFJEPP@?$DM@     00000001800261dc     libvcruntime:undname.obj
 0002:000031e0       ??_C@_02EHCHHCKH@?$DM?$DN@ 00000001800261e0     libvcruntime:undname.obj
 0002:000031e4       ??_C@_01PPODPGHN@?$DO@     00000001800261e4     libvcruntime:undname.obj
 0002:000031e8       ??_C@_02EEKDKGMJ@?$DO?$DN@ 00000001800261e8     libvcruntime:undname.obj
 0002:000031ec       ??_C@_01IHBHIGKO@?0@       00000001800261ec     libvcruntime:undname.obj
 0002:000031f0       ??_C@_02HCKGKOFO@?$CI?$CJ@ 00000001800261f0     libvcruntime:undname.obj
 0002:000031f4       ??_C@_01PJKLJHI@?$HO@      00000001800261f4     libvcruntime:undname.obj
 0002:000031f8       ??_C@_01JKBOJNNK@?$FO@     00000001800261f8     libvcruntime:undname.obj
 0002:000031fc       ??_C@_01DNKMNLPK@?$HM@     00000001800261fc     libvcruntime:undname.obj
 0002:00003200       ??_C@_02PPKAJPJL@?$CG?$CG@ 0000000180026200     libvcruntime:undname.obj
 0002:00003204       ??_C@_02NONPIBCD@?$HM?$HM@ 0000000180026204     libvcruntime:undname.obj
 0002:00003208       ??_C@_02FPIMKNGF@?$CK?$DN@ 0000000180026208     libvcruntime:undname.obj
 0002:0000320c       ??_C@_02FOEOMHFC@?$CL?$DN@ 000000018002620c     libvcruntime:undname.obj
 0002:00003210       ??_C@_02FKMDLLOA@?9?$DN@   0000000180026210     libvcruntime:undname.obj
 0002:00003214       ??_C@_02FJEHGPIO@?1?$DN@   0000000180026214     libvcruntime:undname.obj
 0002:00003218       ??_C@_02FENAOKFI@?$CF?$DN@ 0000000180026218     libvcruntime:undname.obj
 0002:0000321c       ??_C@_03IKFCCPFF@?$DO?$DO?$DN@ 000000018002621c     libvcruntime:undname.obj
 0002:00003220       ??_C@_03CDNPDDLA@?$DM?$DM?$DN@ 0000000180026220     libvcruntime:undname.obj
 0002:00003224       ??_C@_02FGJGFEAB@?$CG?$DN@ 0000000180026224     libvcruntime:undname.obj
 0002:00003228       ??_C@_02DHLNPPGH@?$HM?$DN@ 0000000180026228     libvcruntime:undname.obj
 0002:0000322c       ??_C@_02MHEGNOJ@?$FO?$DN@  000000018002622c     libvcruntime:undname.obj
 0002:00003230       ??_C@_09IFPLHPGF@?$GAvftable?8@ 0000000180026230     libvcruntime:undname.obj
 0002:00003240       ??_C@_09BLBHBJP@?$GAvbtable?8@ 0000000180026240     libvcruntime:undname.obj
 0002:00003250       ??_C@_07FEEIOKP@?$GAvcall?8@ 0000000180026250     libvcruntime:undname.obj
 0002:00003258       ??_C@_08LLFFHHDJ@?$GAtypeof?8@ 0000000180026258     libvcruntime:undname.obj
 0002:00003268       ??_C@_0BF@KDPPACIK@?$GAlocal?5static?5guard?8@ 0000000180026268     libvcruntime:undname.obj
 0002:00003280       ??_C@_08OBABFOLI@?$GAstring?8@ 0000000180026280     libvcruntime:undname.obj
 0002:00003290       ??_C@_0BD@JDLKDPAB@?$GAvbase?5destructor?8@ 0000000180026290     libvcruntime:undname.obj
 0002:000032a8       ??_C@_0BN@DEGPLNFK@?$GAvector?5deleting?5destructor?8@ 00000001800262a8     libvcruntime:undname.obj
 0002:000032c8       ??_C@_0BO@OBMKPJIG@?$GAdefault?5constructor?5closure?8@ 00000001800262c8     libvcruntime:undname.obj
 0002:000032e8       ??_C@_0BN@IMDCHIKM@?$GAscalar?5deleting?5destructor?8@ 00000001800262e8     libvcruntime:undname.obj
 0002:00003308       ??_C@_0BO@PFGOCPJJ@?$GAvector?5constructor?5iterator?8@ 0000000180026308     libvcruntime:undname.obj
 0002:00003328       ??_C@_0BN@LFPFMEDL@?$GAvector?5destructor?5iterator?8@ 0000000180026328     libvcruntime:undname.obj
 0002:00003348       ??_C@_0CE@IKBNEHA@?$GAvector?5vbase?5constructor?5itera@ 0000000180026348     libvcruntime:undname.obj
 0002:00003370       ??_C@_0BL@NILFHHPC@?$GAvirtual?5displacement?5map?8@ 0000000180026370     libvcruntime:undname.obj
 0002:00003390       ??_C@_0CB@JONCMFFK@?$GAeh?5vector?5constructor?5iterator@ 0000000180026390     libvcruntime:undname.obj
 0002:000033b8       ??_C@_0CA@GCEOPDGL@?$GAeh?5vector?5destructor?5iterator?8@ 00000001800263b8     libvcruntime:undname.obj
 0002:000033d8       ??_C@_0CH@OOJPLCPH@?$GAeh?5vector?5vbase?5constructor?5it@ 00000001800263d8     libvcruntime:undname.obj
 0002:00003400       ??_C@_0BL@LLKPOHJI@?$GAcopy?5constructor?5closure?8@ 0000000180026400     libvcruntime:undname.obj
 0002:00003420       ??_C@_0BA@KBCDOMBN@?$GAudt?5returning?8@ 0000000180026420     libvcruntime:undname.obj
 0002:00003430       ??_C@_03KLGMFNMG@?$GAEH@   0000000180026430     libvcruntime:undname.obj
 0002:00003434       ??_C@_05KHLCHHI@?$GARTTI@  0000000180026434     libvcruntime:undname.obj
 0002:00003440       ??_C@_0BA@KKLDJDLB@?$GAlocal?5vftable?8@ 0000000180026440     libvcruntime:undname.obj
 0002:00003450       ??_C@_0CE@IIHCMGGL@?$GAlocal?5vftable?5constructor?5clos@ 0000000180026450     libvcruntime:undname.obj
 0002:00003474       ??_C@_06FHBGPFGH@?5new?$FL?$FN@ 0000000180026474     libvcruntime:undname.obj
 0002:00003480       ??_C@_09LBNFPBCA@?5delete?$FL?$FN@ 0000000180026480     libvcruntime:undname.obj
 0002:00003490       ??_C@_0P@HJKNJFNN@?$GAomni?5callsig?8@ 0000000180026490     libvcruntime:undname.obj
 0002:000034a0       ??_C@_0BL@CNOONJFP@?$GAplacement?5delete?5closure?8@ 00000001800264a0     libvcruntime:undname.obj
 0002:000034c0       ??_C@_0BN@CKNJLHMB@?$GAplacement?5delete?$FL?$FN?5closure?8@ 00000001800264c0     libvcruntime:undname.obj
 0002:000034e0       ??_C@_0CG@CFDHKGGD@?$GAmanaged?5vector?5constructor?5ite@ 00000001800264e0     libvcruntime:undname.obj
 0002:00003508       ??_C@_0CF@IMGKMJNO@?$GAmanaged?5vector?5destructor?5iter@ 0000000180026508     libvcruntime:undname.obj
 0002:00003530       ??_C@_0CG@HLDDJMAG@?$GAeh?5vector?5copy?5constructor?5ite@ 0000000180026530     libvcruntime:undname.obj
 0002:00003558       ??_C@_0CM@FCBBDIGB@?$GAeh?5vector?5vbase?5copy?5construct@ 0000000180026558     libvcruntime:undname.obj
 0002:00003588       ??_C@_0BL@CLIPGLGB@?$GAdynamic?5initializer?5for?5?8@ 0000000180026588     libvcruntime:undname.obj
 0002:000035a8       ??_C@_0CB@PDBIFEP@?$GAdynamic?5atexit?5destructor?5for?5@ 00000001800265a8     libvcruntime:undname.obj
 0002:000035d0       ??_C@_0CD@CGAJBKEJ@?$GAvector?5copy?5constructor?5iterat@ 00000001800265d0     libvcruntime:undname.obj
 0002:000035f8       ??_C@_0CJ@GJELGAMM@?$GAvector?5vbase?5copy?5constructor?5@ 00000001800265f8     libvcruntime:undname.obj
 0002:00003628       ??_C@_0CL@FGIJHLCE@?$GAmanaged?5vector?5copy?5constructo@ 0000000180026628     libvcruntime:undname.obj
 0002:00003658       ??_C@_0BM@PMGGMLDN@?$GAlocal?5static?5thread?5guard?8@ 0000000180026658     libvcruntime:undname.obj
 0002:00003678       ??_C@_0N@BDNMDMOL@operator?5?$CC?$CC?5@ 0000000180026678     libvcruntime:undname.obj
 0002:00003688       ??_C@_0BC@GGEBGALA@operator?5co_await@ 0000000180026688     libvcruntime:undname.obj
 0002:000036a0       ??_C@_0M@GAAIMMOH@operator?$DM?$DN?$DO@ 00000001800266a0     libvcruntime:undname.obj
 0002:000036b0       ??_C@_0BC@DAFEJGAK@?5Type?5Descriptor?8@ 00000001800266b0     libvcruntime:undname.obj
 0002:000036c8       ??_C@_0BM@LDKODKLH@?5Base?5Class?5Descriptor?5at?5?$CI@ 00000001800266c8     libvcruntime:undname.obj
 0002:000036e8       ??_C@_0BD@LGICGFMM@?5Base?5Class?5Array?8@ 00000001800266e8     libvcruntime:undname.obj
 0002:00003700       ??_C@_0BN@MECKDCOJ@?5Class?5Hierarchy?5Descriptor?8@ 0000000180026700     libvcruntime:undname.obj
 0002:00003720       ??_C@_0BK@CFCOFLF@?5Complete?5Object?5Locator?8@ 0000000180026720     libvcruntime:undname.obj
 0002:00003740       ??_C@_0BG@JNJLAMPM@?$GAanonymous?5namespace?8@ 0000000180026740     libvcruntime:undname.obj
 0002:00003770       ??_C@_1DM@KHCHBNEB@?$AAa?$AAp?$AAi?$AA?9?$AAm?$AAs?$AA?9?$AAw?$AAi?$AAn?$AA?9?$AAc?$AAo?$AAr?$AAe@ 0000000180026770     libvcruntime:winapi_downlevel.obj
 0002:000037b0       ??_C@_1DK@LPPGFMPP@?$AAa?$AAp?$AAi?$AA?9?$AAm?$AAs?$AA?9?$AAw?$AAi?$AAn?$AA?9?$AAc?$AAo?$AAr?$AAe@ 00000001800267b0     libvcruntime:winapi_downlevel.obj
 0002:000037f0       ??_C@_1BC@GDMECMAK@?$AAk?$AAe?$AAr?$AAn?$AAe?$AAl?$AA3?$AA2@ 00000001800267f0     libvcruntime:winapi_downlevel.obj
 0002:00003808       ??_C@_1BA@PFFKHIOG@?$AAa?$AAp?$AAi?$AA?9?$AAm?$AAs?$AA?9@ 0000000180026808     libvcruntime:winapi_downlevel.obj
 0002:00003820       ??_C@_08KNHFBNJ@FlsAlloc@  0000000180026820     libvcruntime:winapi_downlevel.obj
 0002:00003838       ??_C@_07PEJMOBNF@FlsFree@  0000000180026838     libvcruntime:winapi_downlevel.obj
 0002:00003848       ??_C@_0M@GDNOONDI@FlsGetValue@ 0000000180026848     libvcruntime:winapi_downlevel.obj
 0002:00003860       ??_C@_0M@JCPCPOEF@FlsSetValue@ 0000000180026860     libvcruntime:winapi_downlevel.obj
 0002:00003878       ??_C@_0BM@HCFOFFN@InitializeCriticalSectionEx@ 0000000180026878     libvcruntime:winapi_downlevel.obj
 0002:00003a10       ?format_validation_lookup_table_spectre@__crt_stdio_output@@3V?$spectre_mitigated_lookup_table@Ustate_transition_pair@__crt_stdio_output@@$0IA@@1@B 0000000180026a10     libucrt:output.obj
 0002:00003e10       ??_C@_1O@CEDCILHN@?$AA?$CI?$AAn?$AAu?$AAl?$AAl?$AA?$CJ@ 0000000180026e10     libucrt:output.obj
 0002:00003e20       ??_C@_06OJHGLDPL@?$CInull?$CJ@ 0000000180026e20     libucrt:output.obj
 0002:00003e30       __acrt_exception_action_table 0000000180026e30     libucrt:exception_filter.obj
 0002:00003ef0       __acrt_signal_action_table_count 0000000180026ef0     libucrt:exception_filter.obj
 0002:00003ef8       __acrt_signal_action_first_fpe_index 0000000180026ef8     libucrt:exception_filter.obj
 0002:00003f00       __acrt_signal_action_fpe_count 0000000180026f00     libucrt:exception_filter.obj
 0002:00003f08       ??_C@_1BI@BGOHAHKC@?$AAm?$AAs?$AAc?$AAo?$AAr?$AAe?$AAe?$AA?4?$AAd?$AAl?$AAl@ 0000000180026f08     libucrt:exit.obj
 0002:00003f20       ??_C@_0P@MIGLKIOC@CorExitProcess@ 0000000180026f20     libucrt:exit.obj
 0002:000040d0       ??_C@_1EA@JGEFHKEI@?$AAa?$AAp?$AAi?$AA?9?$AAm?$AAs?$AA?9?$AAw?$AAi?$AAn?$AA?9?$AAc?$AAo?$AAr?$AAe@ 00000001800270d0     libucrt:winapi_thunks.obj
 0002:00004110       ??_C@_1DI@IJCEHOCB@?$AAa?$AAp?$AAi?$AA?9?$AAm?$AAs?$AA?9?$AAw?$AAi?$AAn?$AA?9?$AAc?$AAo?$AAr?$AAe@ 0000000180027110     libucrt:winapi_thunks.obj
 0002:00004150       ??_C@_1EI@MPIAOHOC@?$AAa?$AAp?$AAi?$AA?9?$AAm?$AAs?$AA?9?$AAw?$AAi?$AAn?$AA?9?$AAc?$AAo?$AAr?$AAe@ 0000000180027150     libucrt:winapi_thunks.obj
 0002:000041a0       ??_C@_1FK@FPHCKFIE@?$AAa?$AAp?$AAi?$AA?9?$AAm?$AAs?$AA?9?$AAw?$AAi?$AAn?$AA?9?$AAc?$AAo?$AAr?$AAe@ 00000001800271a0     libucrt:winapi_thunks.obj
 0002:00004200       ??_C@_1EM@DILCGIIO@?$AAa?$AAp?$AAi?$AA?9?$AAm?$AAs?$AA?9?$AAw?$AAi?$AAn?$AA?9?$AAc?$AAo?$AAr?$AAe@ 0000000180027200     libucrt:winapi_thunks.obj
 0002:00004250       ??_C@_1DM@LNCGDDPN@?$AAa?$AAp?$AAi?$AA?9?$AAm?$AAs?$AA?9?$AAw?$AAi?$AAn?$AA?9?$AAc?$AAo?$AAr?$AAe@ 0000000180027250     libucrt:winapi_thunks.obj
 0002:00004290       ??_C@_1DO@FPAPJEMD@?$AAa?$AAp?$AAi?$AA?9?$AAm?$AAs?$AA?9?$AAw?$AAi?$AAn?$AA?9?$AAc?$AAo?$AAr?$AAe@ 0000000180027290     libucrt:winapi_thunks.obj
 0002:000042d0       ??_C@_1DK@NDHNAHIO@?$AAa?$AAp?$AAi?$AA?9?$AAm?$AAs?$AA?9?$AAw?$AAi?$AAn?$AA?9?$AAc?$AAo?$AAr?$AAe@ 00000001800272d0     libucrt:winapi_thunks.obj
 0002:00004310       ??_C@_1DM@KGHDGBCM@?$AAa?$AAp?$AAi?$AA?9?$AAm?$AAs?$AA?9?$AAw?$AAi?$AAn?$AA?9?$AAc?$AAo?$AAr?$AAe@ 0000000180027310     libucrt:winapi_thunks.obj
 0002:00004350       ??_C@_1EO@IJIOEFOH@?$AAa?$AAp?$AAi?$AA?9?$AAm?$AAs?$AA?9?$AAw?$AAi?$AAn?$AA?9?$AAr?$AAt?$AAc?$AAo@ 0000000180027350     libucrt:winapi_thunks.obj
 0002:000043a0       ??_C@_1FG@HHGEKANL@?$AAa?$AAp?$AAi?$AA?9?$AAm?$AAs?$AA?9?$AAw?$AAi?$AAn?$AA?9?$AAs?$AAe?$AAc?$AAu@ 00000001800273a0     libucrt:winapi_thunks.obj
 0002:00004400       ??_C@_1EG@DBIOJECG@?$AAe?$AAx?$AAt?$AA?9?$AAm?$AAs?$AA?9?$AAw?$AAi?$AAn?$AA?9?$AAn?$AAt?$AAu?$AAs@ 0000000180027400     libucrt:winapi_thunks.obj
 0002:00004450       ??_C@_1EO@FIHMJCLF@?$AAe?$AAx?$AAt?$AA?9?$AAm?$AAs?$AA?9?$AAw?$AAi?$AAn?$AA?9?$AAn?$AAt?$AAu?$AAs@ 0000000180027450     libucrt:winapi_thunks.obj
 0002:000044a0       ??_C@_1BC@DNHGCMLG@?$AAa?$AAd?$AAv?$AAa?$AAp?$AAi?$AA3?$AA2@ 00000001800274a0     libucrt:winapi_thunks.obj
 0002:000044b8       ??_C@_1M@OAIMIKLP@?$AAn?$AAt?$AAd?$AAl?$AAl@ 00000001800274b8     libucrt:winapi_thunks.obj
 0002:000044d0       ??_C@_1EG@DPGNFKGC@?$AAa?$AAp?$AAi?$AA?9?$AAm?$AAs?$AA?9?$AAw?$AAi?$AAn?$AA?9?$AAa?$AAp?$AAp?$AAm@ 00000001800274d0     libucrt:winapi_thunks.obj
 0002:00004518       ??_C@_1O@BCCLBEOE@?$AAu?$AAs?$AAe?$AAr?$AA3?$AA2@ 0000000180027518     libucrt:winapi_thunks.obj
 0002:00004528       ??_C@_1BA@IAIFMGEF@?$AAe?$AAx?$AAt?$AA?9?$AAm?$AAs?$AA?9@ 0000000180027528     libucrt:winapi_thunks.obj
 0002:00004540       ??_C@_0BA@FHFNEAED@AreFileApisANSI@ 0000000180027540     libucrt:winapi_thunks.obj
 0002:00004580       ??_C@_0O@KKBNKAPF@LCMapStringEx@ 0000000180027580     libucrt:winapi_thunks.obj
 0002:00004598       ??_C@_0BB@HBDEELFH@LocaleNameToLCID@ 0000000180027598     libucrt:winapi_thunks.obj
 0002:000045b0       ??_C@_0CF@OJOFEIGO@AppPolicyGetProcessTerminationM@ 00000001800275b0     libucrt:winapi_thunks.obj
 0002:000045e0       ??_C@_0BI@BKLFFAPO@SetThreadStackGuarantee@ 00000001800275e0     libucrt:winapi_thunks.obj
 0002:00004680       ??_C@_03OEIAHPBN@INF@      0000000180027680     libucrt:cvt.obj
 0002:00004684       ??_C@_03OJHLLCGB@inf@      0000000180027684     libucrt:cvt.obj
 0002:00004688       ??_C@_03LKNCIKJB@NAN@      0000000180027688     libucrt:cvt.obj
 0002:0000468c       ??_C@_03LHCJEHON@nan@      000000018002768c     libucrt:cvt.obj
 0002:00004690       ??_C@_09OFJJIMPC@NAN?$CISNAN?$CJ@ 0000000180027690     libucrt:cvt.obj
 0002:000046a0       ??_C@_09IPFBKMDL@nan?$CIsnan?$CJ@ 00000001800276a0     libucrt:cvt.obj
 0002:000046b0       ??_C@_08IKHNHAJ@NAN?$CIIND?$CJ@ 00000001800276b0     libucrt:cvt.obj
 0002:000046c0       ??_C@_08OFCDMILK@nan?$CIind?$CJ@ 00000001800276c0     libucrt:cvt.obj
 0002:000046cc       ??_C@_05KLBDPFGC@e?$CL000@ 00000001800276cc     libucrt:cvt.obj
 0002:000046e0       __lc_time_c                00000001800276e0     libucrt:nlsdata.obj
 0002:000049a0       ??_C@_03KOEHGMDN@Sun@      00000001800279a0     libucrt:nlsdata.obj
 0002:000049a4       ??_C@_03PDAGKDH@Mon@       00000001800279a4     libucrt:nlsdata.obj
 0002:000049a8       ??_C@_03NAGEINEP@Tue@      00000001800279a8     libucrt:nlsdata.obj
 0002:000049ac       ??_C@_03MHOMLAJA@Wed@      00000001800279ac     libucrt:nlsdata.obj
 0002:000049b0       ??_C@_03IOFIKPDN@Thu@      00000001800279b0     libucrt:nlsdata.obj
 0002:000049b4       ??_C@_03IDIOELNC@Fri@      00000001800279b4     libucrt:nlsdata.obj
 0002:000049b8       ??_C@_03FEFJNEK@Sat@       00000001800279b8     libucrt:nlsdata.obj
 0002:000049bc       ??_C@_06OOPIFAJ@Sunday@    00000001800279bc     libucrt:nlsdata.obj
 0002:000049c4       ??_C@_06JLEDEDGH@Monday@   00000001800279c4     libucrt:nlsdata.obj
 0002:000049d0       ??_C@_07BAAGCFCM@Tuesday@  00000001800279d0     libucrt:nlsdata.obj
 0002:000049d8       ??_C@_09DLIGFAKA@Wednesday@ 00000001800279d8     libucrt:nlsdata.obj
 0002:000049e8       ??_C@_08HACCIKIA@Thursday@ 00000001800279e8     libucrt:nlsdata.obj
 0002:000049f4       ??_C@_06JECMNKMI@Friday@   00000001800279f4     libucrt:nlsdata.obj
 0002:00004a00       ??_C@_08INBOOONO@Saturday@ 0000000180027a00     libucrt:nlsdata.obj
 0002:00004a0c       ??_C@_03JIHJHPIE@Jan@      0000000180027a0c     libucrt:nlsdata.obj
 0002:00004a10       ??_C@_03HJBDCHOM@Feb@      0000000180027a10     libucrt:nlsdata.obj
 0002:00004a14       ??_C@_03ODNJBKGA@Mar@      0000000180027a14     libucrt:nlsdata.obj
 0002:00004a18       ??_C@_03LEOLGMJP@Apr@      0000000180027a18     libucrt:nlsdata.obj
 0002:00004a1c       ??_C@_03CNMDKL@May@        0000000180027a1c     libucrt:nlsdata.obj
 0002:00004a20       ??_C@_03IDFGHECI@Jun@      0000000180027a20     libucrt:nlsdata.obj
 0002:00004a24       ??_C@_03LBGABGKK@Jul@      0000000180027a24     libucrt:nlsdata.obj
 0002:00004a28       ??_C@_03IFJFEIGA@Aug@      0000000180027a28     libucrt:nlsdata.obj
 0002:00004a2c       ??_C@_03GGCAPAJC@Sep@      0000000180027a2c     libucrt:nlsdata.obj
 0002:00004a30       ??_C@_03BMAOKBAD@Oct@      0000000180027a30     libucrt:nlsdata.obj
 0002:00004a34       ??_C@_03JPJOFNIA@Nov@      0000000180027a34     libucrt:nlsdata.obj
 0002:00004a38       ??_C@_03MKABNOCG@Dec@      0000000180027a38     libucrt:nlsdata.obj
 0002:00004a40       ??_C@_07CGJPFGJA@January@  0000000180027a40     libucrt:nlsdata.obj
 0002:00004a48       ??_C@_08GNJGEPFN@February@ 0000000180027a48     libucrt:nlsdata.obj
 0002:00004a54       ??_C@_05HPCKOFNC@March@    0000000180027a54     libucrt:nlsdata.obj
 0002:00004a5c       ??_C@_05DMJDNLEJ@April@    0000000180027a5c     libucrt:nlsdata.obj
 0002:00004a64       ??_C@_04CNLMGBGM@June@     0000000180027a64     libucrt:nlsdata.obj
 0002:00004a6c       ??_C@_04MIEPOIFP@July@     0000000180027a6c     libucrt:nlsdata.obj
 0002:00004a74       ??_C@_06LBBHFDDG@August@   0000000180027a74     libucrt:nlsdata.obj
 0002:00004a80       ??_C@_09BHHEALKD@September@ 0000000180027a80     libucrt:nlsdata.obj
 0002:00004a90       ??_C@_07JJNFCEND@October@  0000000180027a90     libucrt:nlsdata.obj
 0002:00004a98       ??_C@_08HCHEGEOA@November@ 0000000180027a98     libucrt:nlsdata.obj
 0002:00004aa8       ??_C@_08EDHMEBNP@December@ 0000000180027aa8     libucrt:nlsdata.obj
 0002:00004ab4       ??_C@_02DEDBPAFC@AM@       0000000180027ab4     libucrt:nlsdata.obj
 0002:00004ab8       ??_C@_02CJNFDJBF@PM@       0000000180027ab8     libucrt:nlsdata.obj
 0002:00004ac0       ??_C@_08BPBNCDIB@MM?1dd?1yy@ 0000000180027ac0     libucrt:nlsdata.obj
 0002:00004ad0       ??_C@_0BE@CKGJFCPC@dddd?0?5MMMM?5dd?0?5yyyy@ 0000000180027ad0     libucrt:nlsdata.obj
 0002:00004ae8       ??_C@_08JCCMCCIL@HH?3mm?3ss@ 0000000180027ae8     libucrt:nlsdata.obj
 0002:00004af8       ??_C@_17MBGCMIPB@?$AAS?$AAu?$AAn@ 0000000180027af8     libucrt:nlsdata.obj
 0002:00004b00       ??_C@_17KBOMKBF@?$AAM?$AAo?$AAn@ 0000000180027b00     libucrt:nlsdata.obj
 0002:00004b08       ??_C@_17BMKGEGOJ@?$AAT?$AAu?$AAe@ 0000000180027b08     libucrt:nlsdata.obj
 0002:00004b10       ??_C@_17CJEDCEPE@?$AAW?$AAe?$AAd@ 0000000180027b10     libucrt:nlsdata.obj
 0002:00004b18       ??_C@_17PDPHAADD@?$AAT?$AAh?$AAu@ 0000000180027b18     libucrt:nlsdata.obj
 0002:00004b20       ??_C@_17HFOLPPLP@?$AAF?$AAr?$AAi@ 0000000180027b20     libucrt:nlsdata.obj
 0002:00004b28       ??_C@_17GGIBDPIH@?$AAS?$AAa?$AAt@ 0000000180027b28     libucrt:nlsdata.obj
 0002:00004b30       ??_C@_1O@IHNHDHPB@?$AAS?$AAu?$AAn?$AAd?$AAa?$AAy@ 0000000180027b30     libucrt:nlsdata.obj
 0002:00004b40       ??_C@_1O@MMNBFLIA@?$AAM?$AAo?$AAn?$AAd?$AAa?$AAy@ 0000000180027b40     libucrt:nlsdata.obj
 0002:00004b50       ??_C@_1BA@ENFBFFEK@?$AAT?$AAu?$AAe?$AAs?$AAd?$AAa?$AAy@ 0000000180027b50     libucrt:nlsdata.obj
 0002:00004b60       ??_C@_1BE@EBOGMDOH@?$AAW?$AAe?$AAd?$AAn?$AAe?$AAs?$AAd?$AAa?$AAy@ 0000000180027b60     libucrt:nlsdata.obj
 0002:00004b78       ??_C@_1BC@HHMNLIHE@?$AAT?$AAh?$AAu?$AAr?$AAs?$AAd?$AAa?$AAy@ 0000000180027b78     libucrt:nlsdata.obj
 0002:00004b90       ??_C@_1O@PDICJHAG@?$AAF?$AAr?$AAi?$AAd?$AAa?$AAy@ 0000000180027b90     libucrt:nlsdata.obj
 0002:00004ba0       ??_C@_1BC@ENMNNPAJ@?$AAS?$AAa?$AAt?$AAu?$AAr?$AAd?$AAa?$AAy@ 0000000180027ba0     libucrt:nlsdata.obj
 0002:00004bb8       ??_C@_17DKNBKCHM@?$AAJ?$AAa?$AAn@ 0000000180027bb8     libucrt:nlsdata.obj
 0002:00004bc0       ??_C@_17LMDJEKJN@?$AAF?$AAe?$AAb@ 0000000180027bc0     libucrt:nlsdata.obj
 0002:00004bc8       ??_C@_17CKNLEDEC@?$AAM?$AAa?$AAr@ 0000000180027bc8     libucrt:nlsdata.obj
 0002:00004bd0       ??_C@_17LFPOIHDD@?$AAA?$AAp?$AAr@ 0000000180027bd0     libucrt:nlsdata.obj
 0002:00004bd8       ??_C@_17PNNKMEED@?$AAM?$AAa?$AAy@ 0000000180027bd8     libucrt:nlsdata.obj
 0002:00004be0       ??_C@_17KCJGOCPB@?$AAJ?$AAu?$AAn@ 0000000180027be0     libucrt:nlsdata.obj
 0002:00004be8       ??_C@_17IJPCKHK@?$AAJ?$AAu?$AAl@ 0000000180027be8     libucrt:nlsdata.obj
 0002:00004bf0       ??_C@_17ICPELBCN@?$AAA?$AAu?$AAg@ 0000000180027bf0     libucrt:nlsdata.obj
 0002:00004bf8       ??_C@_17HCHCOKMG@?$AAS?$AAe?$AAp@ 0000000180027bf8     libucrt:nlsdata.obj
 0002:00004c00       ??_C@_17FNLKOI@?$AAO?$AAc?$AAt@ 0000000180027c00     libucrt:nlsdata.obj
 0002:00004c08       ??_C@_17BBDMLCIG@?$AAN?$AAo?$AAv@ 0000000180027c08     libucrt:nlsdata.obj
 0002:00004c10       ??_C@_17EGKACKIF@?$AAD?$AAe?$AAc@ 0000000180027c10     libucrt:nlsdata.obj
 0002:00004c18       ??_C@_1BA@EFMEIEBA@?$AAJ?$AAa?$AAn?$AAu?$AAa?$AAr?$AAy@ 0000000180027c18     libucrt:nlsdata.obj
 0002:00004c28       ??_C@_1BC@JGDDFFAM@?$AAF?$AAe?$AAb?$AAr?$AAu?$AAa?$AAr?$AAy@ 0000000180027c28     libucrt:nlsdata.obj
 0002:00004c40       ??_C@_1M@IKEENEDF@?$AAM?$AAa?$AAr?$AAc?$AAh@ 0000000180027c40     libucrt:nlsdata.obj
 0002:00004c50       ??_C@_1M@GJNLMHFD@?$AAA?$AAp?$AAr?$AAi?$AAl@ 0000000180027c50     libucrt:nlsdata.obj
 0002:00004c60       ??_C@_19EPFLPGAP@?$AAJ?$AAu?$AAn?$AAe@ 0000000180027c60     libucrt:nlsdata.obj
 0002:00004c70       ??_C@_19BIFMLPCD@?$AAJ?$AAu?$AAl?$AAy@ 0000000180027c70     libucrt:nlsdata.obj
 0002:00004c80       ??_C@_1O@PAHLKOAC@?$AAA?$AAu?$AAg?$AAu?$AAs?$AAt@ 0000000180027c80     libucrt:nlsdata.obj
 0002:00004c90       ??_C@_1BE@DKAAMBJL@?$AAS?$AAe?$AAp?$AAt?$AAe?$AAm?$AAb?$AAe?$AAr@ 0000000180027c90     libucrt:nlsdata.obj
 0002:00004ca8       ??_C@_1BA@EPANDLNG@?$AAO?$AAc?$AAt?$AAo?$AAb?$AAe?$AAr@ 0000000180027ca8     libucrt:nlsdata.obj
 0002:00004cb8       ??_C@_1BC@BGLIFPF@?$AAN?$AAo?$AAv?$AAe?$AAm?$AAb?$AAe?$AAr@ 0000000180027cb8     libucrt:nlsdata.obj
 0002:00004cd0       ??_C@_1BC@FEMKIFH@?$AAD?$AAe?$AAc?$AAe?$AAm?$AAb?$AAe?$AAr@ 0000000180027cd0     libucrt:nlsdata.obj
 0002:00004ce4       ??_C@_15ODEHAHHF@?$AAA?$AAM@ 0000000180027ce4     libucrt:nlsdata.obj
 0002:00004cec       ??_C@_15CLMNNGEL@?$AAP?$AAM@ 0000000180027cec     libucrt:nlsdata.obj
 0002:00004cf8       ??_C@_1BC@IEBCMHCM@?$AAM?$AAM?$AA?1?$AAd?$AAd?$AA?1?$AAy?$AAy@ 0000000180027cf8     libucrt:nlsdata.obj
 0002:00004d10       ??_C@_1CI@KNAKOEBC@?$AAd?$AAd?$AAd?$AAd?$AA?0?$AA?5?$AAM?$AAM?$AAM?$AAM?$AA?5?$AAd?$AAd?$AA?0?$AA?5@ 0000000180027d10     libucrt:nlsdata.obj
 0002:00004d38       ??_C@_1BC@GDGBMEMK@?$AAH?$AAH?$AA?3?$AAm?$AAm?$AA?3?$AAs?$AAs@ 0000000180027d38     libucrt:nlsdata.obj
 0002:00004d50       ??_C@_1M@BMHNFIME@?$AAe?$AAn?$AA?9?$AAU?$AAS@ 0000000180027d50     libucrt:nlsdata.obj
 0002:00004d80       ??_C@_1M@HPNHIDJI@?$AAj?$AAa?$AA?9?$AAJ?$AAP@ 0000000180027d80     libucrt:mbctype.obj
 0002:00004d90       ??_C@_1M@BIBDDEMK@?$AAz?$AAh?$AA?9?$AAC?$AAN@ 0000000180027d90     libucrt:mbctype.obj
 0002:00004da0       ??_C@_1M@JLOOOEGK@?$AAk?$AAo?$AA?9?$AAK?$AAR@ 0000000180027da0     libucrt:mbctype.obj
 0002:00004db0       ??_C@_1M@CLNBBOPM@?$AAz?$AAh?$AA?9?$AAT?$AAW@ 0000000180027db0     libucrt:mbctype.obj
 0002:00004dc0       __newctype                 0000000180027dc0     libucrt:ctype.obj
 0002:000050c0       __newclmap                 00000001800280c0     libucrt:ctype.obj
 0002:00005240       __newcumap                 0000000180028240     libucrt:ctype.obj
 0002:000053c0       _wctype                    00000001800283c0     libucrt:ctype.obj
 0002:00006410       ??_C@_15EMKDOKLE@?$AAa?$AAr@ 0000000180029410     libucrt:lcidtoname_downlevel.obj
 0002:00006418       ??_C@_15KNPADPLH@?$AAb?$AAg@ 0000000180029418     libucrt:lcidtoname_downlevel.obj
 0002:00006420       ??_C@_15EDMHLDMO@?$AAc?$AAa@ 0000000180029420     libucrt:lcidtoname_downlevel.obj
 0002:00006428       ??_C@_1O@BPEAJADD@?$AAz?$AAh?$AA?9?$AAC?$AAH?$AAS@ 0000000180029428     libucrt:lcidtoname_downlevel.obj
 0002:00006438       ??_C@_15LJNHCMNK@?$AAc?$AAs@ 0000000180029438     libucrt:lcidtoname_downlevel.obj
 0002:00006440       ??_C@_15FOMCIDHG@?$AAd?$AAa@ 0000000180029440     libucrt:lcidtoname_downlevel.obj
 0002:00006448       ??_C@_15NBKABECB@?$AAd?$AAe@ 0000000180029448     libucrt:lcidtoname_downlevel.obj
 0002:00006450       ??_C@_15GHPEIIAO@?$AAe?$AAl@ 0000000180029450     libucrt:lcidtoname_downlevel.obj
 0002:00006458       ??_C@_15MNPNEAIF@?$AAe?$AAn@ 0000000180029458     libucrt:lcidtoname_downlevel.obj
 0002:00006460       ??_C@_15GPIOMPMH@?$AAe?$AAs@ 0000000180029460     libucrt:lcidtoname_downlevel.obj
 0002:00006468       ??_C@_15NGLOAKJC@?$AAf?$AAi@ 0000000180029468     libucrt:lcidtoname_downlevel.obj
 0002:00006470       ??_C@_15FBKGNKAM@?$AAf?$AAr@ 0000000180029470     libucrt:lcidtoname_downlevel.obj
 0002:00006478       ??_C@_15KGGCNEFK@?$AAh?$AAe@ 0000000180029478     libucrt:lcidtoname_downlevel.obj
 0002:00006480       ??_C@_15PGHLIDMF@?$AAh?$AAu@ 0000000180029480     libucrt:lcidtoname_downlevel.obj
 0002:00006488       ??_C@_15BIEMAPLM@?$AAi?$AAs@ 0000000180029488     libucrt:lcidtoname_downlevel.obj
 0002:00006490       ??_C@_15IFJLDHAF@?$AAi?$AAt@ 0000000180029490     libucrt:lcidtoname_downlevel.obj
 0002:00006498       ??_C@_15GEMIOCAG@?$AAj?$AAa@ 0000000180029498     libucrt:lcidtoname_downlevel.obj
 0002:000064a0       ??_C@_15EPELEGJA@?$AAk?$AAo@ 00000001800294a0     libucrt:lcidtoname_downlevel.obj
 0002:000064a8       ??_C@_15NDDHIMN@?$AAn?$AAl@ 00000001800294a8     libucrt:lcidtoname_downlevel.obj
 0002:000064b0       ??_C@_15BPIGNHCD@?$AAn?$AAo@ 00000001800294b0     libucrt:lcidtoname_downlevel.obj
 0002:000064b8       ??_C@_15DEOPBLCG@?$AAp?$AAl@ 00000001800294b8     libucrt:lcidtoname_downlevel.obj
 0002:000064c0       ??_C@_15KBECGEFG@?$AAp?$AAt@ 00000001800294c0     libucrt:lcidtoname_downlevel.obj
 0002:000064c8       ??_C@_15GLJCBFMD@?$AAr?$AAo@ 00000001800294c8     libucrt:lcidtoname_downlevel.obj
 0002:000064d0       ??_C@_15FEDGKCDI@?$AAr?$AAu@ 00000001800294d0     libucrt:lcidtoname_downlevel.obj
 0002:000064d8       ??_C@_15GLKMLLHM@?$AAh?$AAr@ 00000001800294d8     libucrt:lcidtoname_downlevel.obj
 0002:000064e0       ??_C@_15CPKMFBDB@?$AAs?$AAk@ 00000001800294e0     libucrt:lcidtoname_downlevel.obj
 0002:000064e8       ??_C@_15BAAIOGMK@?$AAs?$AAq@ 00000001800294e8     libucrt:lcidtoname_downlevel.obj
 0002:000064f0       ??_C@_15INNPNOHD@?$AAs?$AAv@ 00000001800294f0     libucrt:lcidtoname_downlevel.obj
 0002:000064f8       ??_C@_15CABMMOGH@?$AAt?$AAh@ 00000001800294f8     libucrt:lcidtoname_downlevel.obj
 0002:00006500       ??_C@_15BPLIHJJM@?$AAt?$AAr@ 0000000180029500     libucrt:lcidtoname_downlevel.obj
 0002:00006508       ??_C@_15NEOEKKDJ@?$AAu?$AAr@ 0000000180029508     libucrt:lcidtoname_downlevel.obj
 0002:00006510       ??_C@_15NFICGAJK@?$AAi?$AAd@ 0000000180029510     libucrt:lcidtoname_downlevel.obj
 0002:00006518       ??_C@_15PJPFLCCM@?$AAu?$AAk@ 0000000180029518     libucrt:lcidtoname_downlevel.obj
 0002:00006520       ??_C@_15HPJPHDM@?$AAb?$AAe@ 0000000180029520     libucrt:lcidtoname_downlevel.obj
 0002:00006528       ??_C@_15LCHLGJII@?$AAs?$AAl@ 0000000180029528     libucrt:lcidtoname_downlevel.obj
 0002:00006530       ??_C@_15PCFJPHHO@?$AAe?$AAt@ 0000000180029530     libucrt:lcidtoname_downlevel.obj
 0002:00006538       ??_C@_15HPFPGODN@?$AAl?$AAv@ 0000000180029538     libucrt:lcidtoname_downlevel.obj
 0002:00006540       ??_C@_15NFFGKGLG@?$AAl?$AAt@ 0000000180029540     libucrt:lcidtoname_downlevel.obj
 0002:00006548       ??_C@_15BDAKCCHN@?$AAf?$AAa@ 0000000180029548     libucrt:lcidtoname_downlevel.obj
 0002:00006550       ??_C@_15NFGIAIAJ@?$AAv?$AAi@ 0000000180029550     libucrt:lcidtoname_downlevel.obj
 0002:00006558       ??_C@_15LMKNDMHN@?$AAh?$AAy@ 0000000180029558     libucrt:lcidtoname_downlevel.obj
 0002:00006560       ??_C@_15IJBHMCFL@?$AAa?$AAz@ 0000000180029560     libucrt:lcidtoname_downlevel.obj
 0002:00006568       ??_C@_15EKOFJABL@?$AAe?$AAu@ 0000000180029568     libucrt:lcidtoname_downlevel.obj
 0002:00006570       ??_C@_15BGHADCNK@?$AAm?$AAk@ 0000000180029570     libucrt:lcidtoname_downlevel.obj
 0002:00006578       ??_C@_15JDNICKHM@?$AAa?$AAf@ 0000000180029578     libucrt:lcidtoname_downlevel.obj
 0002:00006580       ??_C@_15KPJEDBKD@?$AAk?$AAa@ 0000000180029580     libucrt:lcidtoname_downlevel.obj
 0002:00006588       ??_C@_15PDNFFFEO@?$AAf?$AAo@ 0000000180029588     libucrt:lcidtoname_downlevel.obj
 0002:00006590       ??_C@_15OMLEGLOC@?$AAh?$AAi@ 0000000180029590     libucrt:lcidtoname_downlevel.obj
 0002:00006598       ??_C@_15IDNNENKK@?$AAm?$AAs@ 0000000180029598     libucrt:lcidtoname_downlevel.obj
 0002:000065a0       ??_C@_15MACJNBMH@?$AAk?$AAk@ 00000001800295a0     libucrt:lcidtoname_downlevel.obj
 0002:000065a8       ??_C@_15DKDJEOND@?$AAk?$AAy@ 00000001800295a8     libucrt:lcidtoname_downlevel.obj
 0002:000065b0       ??_C@_15DFGDLJBG@?$AAs?$AAw@ 00000001800295b0     libucrt:lcidtoname_downlevel.obj
 0002:000065b8       ??_C@_15BBFAICNG@?$AAu?$AAz@ 00000001800295b8     libucrt:lcidtoname_downlevel.obj
 0002:000065c0       ??_C@_15DKNDCGEA@?$AAt?$AAt@ 00000001800295c0     libucrt:lcidtoname_downlevel.obj
 0002:000065c8       ??_C@_15MGIFMDPL@?$AAp?$AAa@ 00000001800295c8     libucrt:lcidtoname_downlevel.obj
 0002:000065d0       ??_C@_15HCNDBBA@?$AAg?$AAu@ 00000001800295d0     libucrt:lcidtoname_downlevel.obj
 0002:000065d8       ??_C@_15FNBEIBON@?$AAt?$AAa@ 00000001800295d8     libucrt:lcidtoname_downlevel.obj
 0002:000065e0       ??_C@_15NCHGBGLK@?$AAt?$AAe@ 00000001800295e0     libucrt:lcidtoname_downlevel.obj
 0002:000065e8       ??_C@_15PHPHCBPF@?$AAk?$AAn@ 00000001800295e8     libucrt:lcidtoname_downlevel.obj
 0002:000065f0       ??_C@_15DLGBCKMP@?$AAm?$AAr@ 00000001800295f0     libucrt:lcidtoname_downlevel.obj
 0002:000065f8       ??_C@_15EABBLBFF@?$AAs?$AAa@ 00000001800295f8     libucrt:lcidtoname_downlevel.obj
 0002:00006600       ??_C@_15CBKOMCOI@?$AAm?$AAn@ 0000000180029600     libucrt:lcidtoname_downlevel.obj
 0002:00006608       ??_C@_15CKDMCJAF@?$AAg?$AAl@ 0000000180029608     libucrt:lcidtoname_downlevel.obj
 0002:00006610       ??_C@_17CNJFBPG@?$AAk?$AAo?$AAk@ 0000000180029610     libucrt:lcidtoname_downlevel.obj
 0002:00006618       ??_C@_17FFBJICPL@?$AAs?$AAy?$AAr@ 0000000180029618     libucrt:lcidtoname_downlevel.obj
 0002:00006620       ??_C@_17KPNDCPAF@?$AAd?$AAi?$AAv@ 0000000180029620     libucrt:lcidtoname_downlevel.obj
 0002:00006628       ??_C@_1M@OKAHONE@?$AAa?$AAr?$AA?9?$AAS?$AAA@ 0000000180029628     libucrt:lcidtoname_downlevel.obj
 0002:00006638       ??_C@_1M@FFFIGIGK@?$AAb?$AAg?$AA?9?$AAB?$AAG@ 0000000180029638     libucrt:lcidtoname_downlevel.obj
 0002:00006648       ??_C@_1M@BJNKEDC@?$AAc?$AAa?$AA?9?$AAE?$AAS@ 0000000180029648     libucrt:lcidtoname_downlevel.obj
 0002:00006658       ??_C@_1M@IJJHFJHA@?$AAc?$AAs?$AA?9?$AAC?$AAZ@ 0000000180029658     libucrt:lcidtoname_downlevel.obj
 0002:00006668       ??_C@_1M@CLPEOBGI@?$AAd?$AAa?$AA?9?$AAD?$AAK@ 0000000180029668     libucrt:lcidtoname_downlevel.obj
 0002:00006678       ??_C@_1M@MCMADGCB@?$AAd?$AAe?$AA?9?$AAD?$AAE@ 0000000180029678     libucrt:lcidtoname_downlevel.obj
 0002:00006688       ??_C@_1M@OOCKEMAM@?$AAe?$AAl?$AA?9?$AAG?$AAR@ 0000000180029688     libucrt:lcidtoname_downlevel.obj
 0002:00006698       ??_C@_1M@DDNJFGID@?$AAf?$AAi?$AA?9?$AAF?$AAI@ 0000000180029698     libucrt:lcidtoname_downlevel.obj
 0002:000066a8       ??_C@_1M@GLIPPMAC@?$AAf?$AAr?$AA?9?$AAF?$AAR@ 00000001800296a8     libucrt:lcidtoname_downlevel.obj
 0002:000066b8       ??_C@_1M@GFMCHPE@?$AAh?$AAe?$AA?9?$AAI?$AAL@ 00000001800296b8     libucrt:lcidtoname_downlevel.obj
 0002:000066c8       ??_C@_1M@MHLPGNKM@?$AAh?$AAu?$AA?9?$AAH?$AAU@ 00000001800296c8     libucrt:lcidtoname_downlevel.obj
 0002:000066d8       ??_C@_1M@LPDDNNPN@?$AAi?$AAs?$AA?9?$AAI?$AAS@ 00000001800296d8     libucrt:lcidtoname_downlevel.obj
 0002:000066e8       ??_C@_1M@MADIPODN@?$AAi?$AAt?$AA?9?$AAI?$AAT@ 00000001800296e8     libucrt:lcidtoname_downlevel.obj
 0002:000066f8       ??_C@_1M@IHBJJGG@?$AAn?$AAl?$AA?9?$AAN?$AAL@ 00000001800296f8     libucrt:lcidtoname_downlevel.obj
 0002:00006708       ??_C@_1M@EANAGDL@?$AAn?$AAb?$AA?9?$AAN?$AAO@ 0000000180029708     libucrt:lcidtoname_downlevel.obj
 0002:00006718       ??_C@_1M@NEIEMEGP@?$AAp?$AAl?$AA?9?$AAP?$AAL@ 0000000180029718     libucrt:lcidtoname_downlevel.obj
 0002:00006728       ??_C@_1M@BOCFIGEP@?$AAp?$AAt?$AA?9?$AAB?$AAR@ 0000000180029728     libucrt:lcidtoname_downlevel.obj
 0002:00006738       ??_C@_1M@IMPFOPBG@?$AAr?$AAo?$AA?9?$AAR?$AAO@ 0000000180029738     libucrt:lcidtoname_downlevel.obj
 0002:00006748       ??_C@_1M@IDNNEJMM@?$AAr?$AAu?$AA?9?$AAR?$AAU@ 0000000180029748     libucrt:lcidtoname_downlevel.obj
 0002:00006758       ??_C@_1M@LILEEOGM@?$AAh?$AAr?$AA?9?$AAH?$AAR@ 0000000180029758     libucrt:lcidtoname_downlevel.obj
 0002:00006768       ??_C@_1M@FKIFEHPB@?$AAs?$AAk?$AA?9?$AAS?$AAK@ 0000000180029768     libucrt:lcidtoname_downlevel.obj
 0002:00006778       ??_C@_1M@LJMAMNPJ@?$AAs?$AAq?$AA?9?$AAA?$AAL@ 0000000180029778     libucrt:lcidtoname_downlevel.obj
 0002:00006788       ??_C@_1M@GIAKDKJK@?$AAs?$AAv?$AA?9?$AAS?$AAE@ 0000000180029788     libucrt:lcidtoname_downlevel.obj
 0002:00006798       ??_C@_1M@MKJKIKCL@?$AAt?$AAh?$AA?9?$AAT?$AAH@ 0000000180029798     libucrt:lcidtoname_downlevel.obj
 0002:000067a8       ??_C@_1M@MFLCCMPB@?$AAt?$AAr?$AA?9?$AAT?$AAR@ 00000001800297a8     libucrt:lcidtoname_downlevel.obj
 0002:000067b8       ??_C@_1M@OIJHDKJN@?$AAu?$AAr?$AA?9?$AAP?$AAK@ 00000001800297b8     libucrt:lcidtoname_downlevel.obj
 0002:000067c8       ??_C@_1M@LHIPCIEK@?$AAi?$AAd?$AA?9?$AAI?$AAD@ 00000001800297c8     libucrt:lcidtoname_downlevel.obj
 0002:000067d8       ??_C@_1M@MFMOBGI@?$AAu?$AAk?$AA?9?$AAU?$AAA@ 00000001800297d8     libucrt:lcidtoname_downlevel.obj
 0002:000067e8       ??_C@_1M@OBGLJIPL@?$AAb?$AAe?$AA?9?$AAB?$AAY@ 00000001800297e8     libucrt:lcidtoname_downlevel.obj
 0002:000067f8       ??_C@_1M@BCFAJEAD@?$AAs?$AAl?$AA?9?$AAS?$AAI@ 00000001800297f8     libucrt:lcidtoname_downlevel.obj
 0002:00006808       ??_C@_1M@FKFFEDDN@?$AAe?$AAt?$AA?9?$AAE?$AAE@ 0000000180029808     libucrt:lcidtoname_downlevel.obj
 0002:00006818       ??_C@_1M@KGKKAACI@?$AAl?$AAv?$AA?9?$AAL?$AAV@ 0000000180029818     libucrt:lcidtoname_downlevel.obj
 0002:00006828       ??_C@_1M@IFGBIJO@?$AAl?$AAt?$AA?9?$AAL?$AAT@ 0000000180029828     libucrt:lcidtoname_downlevel.obj
 0002:00006838       ??_C@_1M@FGEAHEDM@?$AAf?$AAa?$AA?9?$AAI?$AAR@ 0000000180029838     libucrt:lcidtoname_downlevel.obj
 0002:00006848       ??_C@_1M@KBMAIBFN@?$AAv?$AAi?$AA?9?$AAV?$AAN@ 0000000180029848     libucrt:lcidtoname_downlevel.obj
 0002:00006858       ??_C@_1M@GPCBKDJK@?$AAh?$AAy?$AA?9?$AAA?$AAM@ 0000000180029858     libucrt:lcidtoname_downlevel.obj
 0002:00006868       ??_C@_1BG@BECMDDJB@?$AAa?$AAz?$AA?9?$AAA?$AAZ?$AA?9?$AAL?$AAa?$AAt?$AAn@ 0000000180029868     libucrt:lcidtoname_downlevel.obj
 0002:00006880       ??_C@_1M@MAOFCAEA@?$AAe?$AAu?$AA?9?$AAE?$AAS@ 0000000180029880     libucrt:lcidtoname_downlevel.obj
 0002:00006890       ??_C@_1M@IGHABKPI@?$AAm?$AAk?$AA?9?$AAM?$AAK@ 0000000180029890     libucrt:lcidtoname_downlevel.obj
 0002:000068a0       ??_C@_1M@IAIGNEJG@?$AAt?$AAn?$AA?9?$AAZ?$AAA@ 00000001800298a0     libucrt:lcidtoname_downlevel.obj
 0002:000068b0       ??_C@_1M@IIJCOJFA@?$AAx?$AAh?$AA?9?$AAZ?$AAA@ 00000001800298b0     libucrt:lcidtoname_downlevel.obj
 0002:000068c0       ??_C@_1M@LGPJHNJH@?$AAz?$AAu?$AA?9?$AAZ?$AAA@ 00000001800298c0     libucrt:lcidtoname_downlevel.obj
 0002:000068d0       ??_C@_1M@HOKAOIO@?$AAa?$AAf?$AA?9?$AAZ?$AAA@ 00000001800298d0     libucrt:lcidtoname_downlevel.obj
 0002:000068e0       ??_C@_1M@DPCLHLIE@?$AAk?$AAa?$AA?9?$AAG?$AAE@ 00000001800298e0     libucrt:lcidtoname_downlevel.obj
 0002:000068f0       ??_C@_1M@BLKMHJBI@?$AAf?$AAo?$AA?9?$AAF?$AAO@ 00000001800298f0     libucrt:lcidtoname_downlevel.obj
 0002:00006900       ??_C@_1M@LGGJAPPB@?$AAh?$AAi?$AA?9?$AAI?$AAN@ 0000000180029900     libucrt:lcidtoname_downlevel.obj
 0002:00006910       ??_C@_1M@FIKPIHFE@?$AAm?$AAt?$AA?9?$AAM?$AAT@ 0000000180029910     libucrt:lcidtoname_downlevel.obj
 0002:00006920       ??_C@_1M@HEGGPBFA@?$AAs?$AAe?$AA?9?$AAN?$AAO@ 0000000180029920     libucrt:lcidtoname_downlevel.obj
 0002:00006930       ??_C@_1M@EIBJEEPA@?$AAm?$AAs?$AA?9?$AAM?$AAY@ 0000000180029930     libucrt:lcidtoname_downlevel.obj
 0002:00006940       ??_C@_1M@FHLBGMPP@?$AAk?$AAk?$AA?9?$AAK?$AAZ@ 0000000180029940     libucrt:lcidtoname_downlevel.obj
 0002:00006950       ??_C@_1M@NGJJLCGI@?$AAk?$AAy?$AA?9?$AAK?$AAG@ 0000000180029950     libucrt:lcidtoname_downlevel.obj
 0002:00006960       ??_C@_1M@GIENNBFC@?$AAs?$AAw?$AA?9?$AAK?$AAE@ 0000000180029960     libucrt:lcidtoname_downlevel.obj
 0002:00006970       ??_C@_1BG@NDGMJIMJ@?$AAu?$AAz?$AA?9?$AAU?$AAZ?$AA?9?$AAL?$AAa?$AAt?$AAn@ 0000000180029970     libucrt:lcidtoname_downlevel.obj
 0002:00006988       ??_C@_1M@IDCCIHBC@?$AAt?$AAt?$AA?9?$AAR?$AAU@ 0000000180029988     libucrt:lcidtoname_downlevel.obj
 0002:00006998       ??_C@_1M@LOICPMOJ@?$AAb?$AAn?$AA?9?$AAI?$AAN@ 0000000180029998     libucrt:lcidtoname_downlevel.obj
 0002:000069a8       ??_C@_1M@KPKKNEAH@?$AAp?$AAa?$AA?9?$AAI?$AAN@ 00000001800299a8     libucrt:lcidtoname_downlevel.obj
 0002:000069b8       ??_C@_1M@PJGPPBOG@?$AAg?$AAu?$AA?9?$AAI?$AAN@ 00000001800299b8     libucrt:lcidtoname_downlevel.obj
 0002:000069c8       ??_C@_1M@KMKMOPHI@?$AAt?$AAa?$AA?9?$AAI?$AAN@ 00000001800299c8     libucrt:lcidtoname_downlevel.obj
 0002:000069d8       ??_C@_1M@KFEHEPAC@?$AAt?$AAe?$AA?9?$AAI?$AAN@ 00000001800299d8     libucrt:lcidtoname_downlevel.obj
 0002:000069e8       ??_C@_1M@CDCLMGHI@?$AAk?$AAn?$AA?9?$AAI?$AAN@ 00000001800299e8     libucrt:lcidtoname_downlevel.obj
 0002:000069f8       ??_C@_1M@MIODLDKF@?$AAm?$AAl?$AA?9?$AAI?$AAN@ 00000001800299f8     libucrt:lcidtoname_downlevel.obj
 0002:00006a08       ??_C@_1M@PBIEACPO@?$AAm?$AAr?$AA?9?$AAI?$AAN@ 0000000180029a08     libucrt:lcidtoname_downlevel.obj
 0002:00006a18       ??_C@_1M@NIDEAGPH@?$AAs?$AAa?$AA?9?$AAI?$AAN@ 0000000180029a18     libucrt:lcidtoname_downlevel.obj
 0002:00006a28       ??_C@_1M@FHIHCBIO@?$AAm?$AAn?$AA?9?$AAM?$AAN@ 0000000180029a28     libucrt:lcidtoname_downlevel.obj
 0002:00006a38       ??_C@_1M@JAIJPENP@?$AAc?$AAy?$AA?9?$AAG?$AAB@ 0000000180029a38     libucrt:lcidtoname_downlevel.obj
 0002:00006a48       ??_C@_1M@PHGFBEPN@?$AAg?$AAl?$AA?9?$AAE?$AAS@ 0000000180029a48     libucrt:lcidtoname_downlevel.obj
 0002:00006a58       ??_C@_1O@KPIPDNCP@?$AAk?$AAo?$AAk?$AA?9?$AAI?$AAN@ 0000000180029a58     libucrt:lcidtoname_downlevel.obj
 0002:00006a68       ??_C@_1O@KNHJLDJA@?$AAs?$AAy?$AAr?$AA?9?$AAS?$AAY@ 0000000180029a68     libucrt:lcidtoname_downlevel.obj
 0002:00006a78       ??_C@_1O@MKEKBLAH@?$AAd?$AAi?$AAv?$AA?9?$AAM?$AAV@ 0000000180029a78     libucrt:lcidtoname_downlevel.obj
 0002:00006a88       ??_C@_1O@OHDCKDDF@?$AAq?$AAu?$AAz?$AA?9?$AAB?$AAO@ 0000000180029a88     libucrt:lcidtoname_downlevel.obj
 0002:00006a98       ??_C@_1M@LEPJNLFD@?$AAn?$AAs?$AA?9?$AAZ?$AAA@ 0000000180029a98     libucrt:lcidtoname_downlevel.obj
 0002:00006aa8       ??_C@_1M@OMLEIIJB@?$AAm?$AAi?$AA?9?$AAN?$AAZ@ 0000000180029aa8     libucrt:lcidtoname_downlevel.obj
 0002:00006ab8       ??_C@_1M@PMPEAILG@?$AAa?$AAr?$AA?9?$AAI?$AAQ@ 0000000180029ab8     libucrt:lcidtoname_downlevel.obj
 0002:00006ac8       ??_C@_1M@CNKPNOEE@?$AAd?$AAe?$AA?9?$AAC?$AAH@ 0000000180029ac8     libucrt:lcidtoname_downlevel.obj
 0002:00006ad8       ??_C@_1M@LKMGMLKO@?$AAe?$AAn?$AA?9?$AAG?$AAB@ 0000000180029ad8     libucrt:lcidtoname_downlevel.obj
 0002:00006ae8       ??_C@_1M@PGKJFFGL@?$AAe?$AAs?$AA?9?$AAM?$AAX@ 0000000180029ae8     libucrt:lcidtoname_downlevel.obj
 0002:00006af8       ??_C@_1M@DNNANBDC@?$AAf?$AAr?$AA?9?$AAB?$AAE@ 0000000180029af8     libucrt:lcidtoname_downlevel.obj
 0002:00006b08       ??_C@_1M@HLGMDFHM@?$AAi?$AAt?$AA?9?$AAC?$AAH@ 0000000180029b08     libucrt:lcidtoname_downlevel.obj
 0002:00006b18       ??_C@_1M@CLLBGJH@?$AAn?$AAl?$AA?9?$AAB?$AAE@ 0000000180029b18     libucrt:lcidtoname_downlevel.obj
 0002:00006b28       ??_C@_1M@BODBOGLF@?$AAn?$AAn?$AA?9?$AAN?$AAO@ 0000000180029b28     libucrt:lcidtoname_downlevel.obj
 0002:00006b38       ??_C@_1M@HFFAHKAD@?$AAp?$AAt?$AA?9?$AAP?$AAT@ 0000000180029b38     libucrt:lcidtoname_downlevel.obj
 0002:00006b48       ??_C@_1BG@LNOAKHIE@?$AAs?$AAr?$AA?9?$AAS?$AAP?$AA?9?$AAL?$AAa?$AAt?$AAn@ 0000000180029b48     libucrt:lcidtoname_downlevel.obj
 0002:00006b60       ??_C@_1M@HBMHBGAK@?$AAs?$AAv?$AA?9?$AAF?$AAI@ 0000000180029b60     libucrt:lcidtoname_downlevel.obj
 0002:00006b70       ??_C@_1BG@DGCJGJBE@?$AAa?$AAz?$AA?9?$AAA?$AAZ?$AA?9?$AAC?$AAy?$AAr?$AAl@ 0000000180029b70     libucrt:lcidtoname_downlevel.obj
 0002:00006b88       ??_C@_1M@KEJDAAHB@?$AAs?$AAe?$AA?9?$AAS?$AAE@ 0000000180029b88     libucrt:lcidtoname_downlevel.obj
 0002:00006b98       ??_C@_1M@HEIBJJAD@?$AAm?$AAs?$AA?9?$AAB?$AAN@ 0000000180029b98     libucrt:lcidtoname_downlevel.obj
 0002:00006ba8       ??_C@_1BG@PBGJMCEM@?$AAu?$AAz?$AA?9?$AAU?$AAZ?$AA?9?$AAC?$AAy?$AAr?$AAl@ 0000000180029ba8     libucrt:lcidtoname_downlevel.obj
 0002:00006bc0       ??_C@_1O@LAOBCMDF@?$AAq?$AAu?$AAz?$AA?9?$AAE?$AAC@ 0000000180029bc0     libucrt:lcidtoname_downlevel.obj
 0002:00006bd0       ??_C@_1M@POEEMAIO@?$AAa?$AAr?$AA?9?$AAE?$AAG@ 0000000180029bd0     libucrt:lcidtoname_downlevel.obj
 0002:00006be0       ??_C@_1M@EFAKDEDL@?$AAz?$AAh?$AA?9?$AAH?$AAK@ 0000000180029be0     libucrt:lcidtoname_downlevel.obj
 0002:00006bf0       ??_C@_1M@HKKIJHGI@?$AAd?$AAe?$AA?9?$AAA?$AAT@ 0000000180029bf0     libucrt:lcidtoname_downlevel.obj
 0002:00006c00       ??_C@_1M@KBFBEHJF@?$AAe?$AAn?$AA?9?$AAA?$AAU@ 0000000180029c00     libucrt:lcidtoname_downlevel.obj
 0002:00006c10       ??_C@_1M@MNPLFAAH@?$AAe?$AAs?$AA?9?$AAE?$AAS@ 0000000180029c10     libucrt:lcidtoname_downlevel.obj
 0002:00006c20       ??_C@_1M@HJOOJFMA@?$AAf?$AAr?$AA?9?$AAC?$AAA@ 0000000180029c20     libucrt:lcidtoname_downlevel.obj
 0002:00006c30       ??_C@_1BG@JPOFPNAB@?$AAs?$AAr?$AA?9?$AAS?$AAP?$AA?9?$AAC?$AAy?$AAr?$AAl@ 0000000180029c30     libucrt:lcidtoname_downlevel.obj
 0002:00006c48       ??_C@_1M@LNFOCMOB@?$AAs?$AAe?$AA?9?$AAF?$AAI@ 0000000180029c48     libucrt:lcidtoname_downlevel.obj
 0002:00006c58       ??_C@_1O@MGJBOAMB@?$AAq?$AAu?$AAz?$AA?9?$AAP?$AAE@ 0000000180029c58     libucrt:lcidtoname_downlevel.obj
 0002:00006c68       ??_C@_1M@GJINLBOK@?$AAa?$AAr?$AA?9?$AAL?$AAY@ 0000000180029c68     libucrt:lcidtoname_downlevel.obj
 0002:00006c78       ??_C@_1M@GGMNHJNL@?$AAz?$AAh?$AA?9?$AAS?$AAG@ 0000000180029c78     libucrt:lcidtoname_downlevel.obj
 0002:00006c88       ??_C@_1M@HOIKODND@?$AAd?$AAe?$AA?9?$AAL?$AAU@ 0000000180029c88     libucrt:lcidtoname_downlevel.obj
 0002:00006c98       ??_C@_1M@DDOCCGFG@?$AAe?$AAn?$AA?9?$AAC?$AAA@ 0000000180029c98     libucrt:lcidtoname_downlevel.obj
 0002:00006ca8       ??_C@_1M@BNOEMJLF@?$AAe?$AAs?$AA?9?$AAG?$AAT@ 0000000180029ca8     libucrt:lcidtoname_downlevel.obj
 0002:00006cb8       ??_C@_1M@EOGNKEK@?$AAf?$AAr?$AA?9?$AAC?$AAH@ 0000000180029cb8     libucrt:lcidtoname_downlevel.obj
 0002:00006cc8       ??_C@_1M@FLIDJFHL@?$AAh?$AAr?$AA?9?$AAB?$AAA@ 0000000180029cc8     libucrt:lcidtoname_downlevel.obj
 0002:00006cd8       ??_C@_1O@FMCELNAJ@?$AAs?$AAm?$AAj?$AA?9?$AAN?$AAO@ 0000000180029cd8     libucrt:lcidtoname_downlevel.obj
 0002:00006ce8       ??_C@_1M@JHGLJMGJ@?$AAa?$AAr?$AA?9?$AAD?$AAZ@ 0000000180029ce8     libucrt:lcidtoname_downlevel.obj
 0002:00006cf8       ??_C@_1M@JKKFDCNP@?$AAz?$AAh?$AA?9?$AAM?$AAO@ 0000000180029cf8     libucrt:lcidtoname_downlevel.obj
 0002:00006d08       ??_C@_1M@GEEFALPE@?$AAd?$AAe?$AA?9?$AAL?$AAI@ 0000000180029d08     libucrt:lcidtoname_downlevel.obj
 0002:00006d18       ??_C@_1M@IGEOFBG@?$AAe?$AAn?$AA?9?$AAN?$AAZ@ 0000000180029d18     libucrt:lcidtoname_downlevel.obj
 0002:00006d28       ??_C@_1M@KDBONEHP@?$AAe?$AAs?$AA?9?$AAC?$AAR@ 0000000180029d28     libucrt:lcidtoname_downlevel.obj
 0002:00006d38       ??_C@_1M@FHMDOHNN@?$AAf?$AAr?$AA?9?$AAL?$AAU@ 0000000180029d38     libucrt:lcidtoname_downlevel.obj
 0002:00006d48       ??_C@_1BG@NFKKMAFG@?$AAb?$AAs?$AA?9?$AAB?$AAA?$AA?9?$AAL?$AAa?$AAt?$AAn@ 0000000180029d48     libucrt:lcidtoname_downlevel.obj
 0002:00006d60       ??_C@_1O@IMNBEMCI@?$AAs?$AAm?$AAj?$AA?9?$AAS?$AAE@ 0000000180029d60     libucrt:lcidtoname_downlevel.obj
 0002:00006d70       ??_C@_1M@DHHMBNDP@?$AAa?$AAr?$AA?9?$AAM?$AAA@ 0000000180029d70     libucrt:lcidtoname_downlevel.obj
 0002:00006d80       ??_C@_1M@BNBLJCGH@?$AAe?$AAn?$AA?9?$AAI?$AAE@ 0000000180029d80     libucrt:lcidtoname_downlevel.obj
 0002:00006d90       ??_C@_1M@GEPAFMDL@?$AAe?$AAs?$AA?9?$AAP?$AAA@ 0000000180029d90     libucrt:lcidtoname_downlevel.obj
 0002:00006da0       ??_C@_1M@OJONDMDL@?$AAf?$AAr?$AA?9?$AAM?$AAC@ 0000000180029da0     libucrt:lcidtoname_downlevel.obj
 0002:00006db0       ??_C@_1BG@OBCNFJB@?$AAs?$AAr?$AA?9?$AAB?$AAA?$AA?9?$AAL?$AAa?$AAt?$AAn@ 0000000180029db0     libucrt:lcidtoname_downlevel.obj
 0002:00006dc8       ??_C@_1O@KEMEEGPO@?$AAs?$AAm?$AAa?$AA?9?$AAN?$AAO@ 0000000180029dc8     libucrt:lcidtoname_downlevel.obj
 0002:00006dd8       ??_C@_1M@ELMGFODK@?$AAa?$AAr?$AA?9?$AAT?$AAN@ 0000000180029dd8     libucrt:lcidtoname_downlevel.obj
 0002:00006de8       ??_C@_1M@BHDLHFAF@?$AAe?$AAn?$AA?9?$AAZ?$AAA@ 0000000180029de8     libucrt:lcidtoname_downlevel.obj
 0002:00006df8       ??_C@_1M@BMGIGLIF@?$AAe?$AAs?$AA?9?$AAD?$AAO@ 0000000180029df8     libucrt:lcidtoname_downlevel.obj
 0002:00006e08       ??_C@_1BG@CMBHIPBE@?$AAs?$AAr?$AA?9?$AAB?$AAA?$AA?9?$AAC?$AAy?$AAr?$AAl@ 0000000180029e08     libucrt:lcidtoname_downlevel.obj
 0002:00006e20       ??_C@_1O@HEDBLHNP@?$AAs?$AAm?$AAa?$AA?9?$AAS?$AAE@ 0000000180029e20     libucrt:lcidtoname_downlevel.obj
 0002:00006e30       ??_C@_1M@DAGCADIM@?$AAa?$AAr?$AA?9?$AAO?$AAM@ 0000000180029e30     libucrt:lcidtoname_downlevel.obj
 0002:00006e40       ??_C@_1M@FODLMICG@?$AAe?$AAn?$AA?9?$AAJ?$AAM@ 0000000180029e40     libucrt:lcidtoname_downlevel.obj
 0002:00006e50       ??_C@_1M@DNMLCIHB@?$AAe?$AAs?$AA?9?$AAV?$AAE@ 0000000180029e50     libucrt:lcidtoname_downlevel.obj
 0002:00006e60       ??_C@_1O@EOKHMKJK@?$AAs?$AAm?$AAs?$AA?9?$AAF?$AAI@ 0000000180029e60     libucrt:lcidtoname_downlevel.obj
 0002:00006e70       ??_C@_1M@CAFJMKOF@?$AAa?$AAr?$AA?9?$AAY?$AAE@ 0000000180029e70     libucrt:lcidtoname_downlevel.obj
 0002:00006e80       ??_C@_1M@CBFHIJLI@?$AAe?$AAn?$AA?9?$AAC?$AAB@ 0000000180029e80     libucrt:lcidtoname_downlevel.obj
 0002:00006e90       ??_C@_1M@BGNFLDN@?$AAe?$AAs?$AA?9?$AAC?$AAO@ 0000000180029e90     libucrt:lcidtoname_downlevel.obj
 0002:00006ea0       ??_C@_1O@JMPHMAMC@?$AAs?$AAm?$AAn?$AA?9?$AAF?$AAI@ 0000000180029ea0     libucrt:lcidtoname_downlevel.obj
 0002:00006eb0       ??_C@_1M@JLANABKE@?$AAa?$AAr?$AA?9?$AAS?$AAY@ 0000000180029eb0     libucrt:lcidtoname_downlevel.obj
 0002:00006ec0       ??_C@_1M@HPKGCFGN@?$AAe?$AAn?$AA?9?$AAB?$AAZ@ 0000000180029ec0     libucrt:lcidtoname_downlevel.obj
 0002:00006ed0       ??_C@_1M@OLJCMLGM@?$AAe?$AAs?$AA?9?$AAP?$AAE@ 0000000180029ed0     libucrt:lcidtoname_downlevel.obj
 0002:00006ee0       ??_C@_1M@MKKGFKLE@?$AAa?$AAr?$AA?9?$AAJ?$AAO@ 0000000180029ee0     libucrt:lcidtoname_downlevel.obj
 0002:00006ef0       ??_C@_1M@EKPGLDNI@?$AAe?$AAn?$AA?9?$AAT?$AAT@ 0000000180029ef0     libucrt:lcidtoname_downlevel.obj
 0002:00006f00       ??_C@_1M@OONGHFHE@?$AAe?$AAs?$AA?9?$AAA?$AAR@ 0000000180029f00     libucrt:lcidtoname_downlevel.obj
 0002:00006f10       ??_C@_1M@OOJFGBHE@?$AAa?$AAr?$AA?9?$AAL?$AAB@ 0000000180029f10     libucrt:lcidtoname_downlevel.obj
 0002:00006f20       ??_C@_1M@GCEJHNEG@?$AAe?$AAn?$AA?9?$AAZ?$AAW@ 0000000180029f20     libucrt:lcidtoname_downlevel.obj
 0002:00006f30       ??_C@_1M@JNOCAHJI@?$AAe?$AAs?$AA?9?$AAE?$AAC@ 0000000180029f30     libucrt:lcidtoname_downlevel.obj
 0002:00006f40       ??_C@_1M@JEFHPGGB@?$AAa?$AAr?$AA?9?$AAK?$AAW@ 0000000180029f40     libucrt:lcidtoname_downlevel.obj
 0002:00006f50       ??_C@_1M@MLKIBJOJ@?$AAe?$AAn?$AA?9?$AAP?$AAH@ 0000000180029f50     libucrt:lcidtoname_downlevel.obj
 0002:00006f60       ??_C@_1M@BDNIPEND@?$AAe?$AAs?$AA?9?$AAC?$AAL@ 0000000180029f60     libucrt:lcidtoname_downlevel.obj
 0002:00006f70       ??_C@_1M@MPNMEKBD@?$AAa?$AAr?$AA?9?$AAA?$AAE@ 0000000180029f70     libucrt:lcidtoname_downlevel.obj
 0002:00006f80       ??_C@_1M@KBJALCPI@?$AAe?$AAs?$AA?9?$AAU?$AAY@ 0000000180029f80     libucrt:lcidtoname_downlevel.obj
 0002:00006f90       ??_C@_1M@LLCCOAGA@?$AAa?$AAr?$AA?9?$AAB?$AAH@ 0000000180029f90     libucrt:lcidtoname_downlevel.obj
 0002:00006fa0       ??_C@_1M@PBFNCDEL@?$AAe?$AAs?$AA?9?$AAP?$AAY@ 0000000180029fa0     libucrt:lcidtoname_downlevel.obj
 0002:00006fb0       ??_C@_1M@EDGINPNP@?$AAa?$AAr?$AA?9?$AAQ?$AAA@ 0000000180029fb0     libucrt:lcidtoname_downlevel.obj
 0002:00006fc0       ??_C@_1M@MKDBIIJI@?$AAe?$AAs?$AA?9?$AAB?$AAO@ 0000000180029fc0     libucrt:lcidtoname_downlevel.obj
 0002:00006fd0       ??_C@_1M@CPKKEBLD@?$AAe?$AAs?$AA?9?$AAS?$AAV@ 0000000180029fd0     libucrt:lcidtoname_downlevel.obj
 0002:00006fe0       ??_C@_1M@NDBGMMJL@?$AAe?$AAs?$AA?9?$AAH?$AAN@ 0000000180029fe0     libucrt:lcidtoname_downlevel.obj
 0002:00006ff0       ??_C@_1M@JIJIBHDP@?$AAe?$AAs?$AA?9?$AAN?$AAI@ 0000000180029ff0     libucrt:lcidtoname_downlevel.obj
 0002:00007000       ??_C@_1M@CGFMKEEK@?$AAe?$AAs?$AA?9?$AAP?$AAR@ 000000018002a000     libucrt:lcidtoname_downlevel.obj
 0002:00007010       ??_C@_1O@ICJHKIIK@?$AAz?$AAh?$AA?9?$AAC?$AAH?$AAT@ 000000018002a010     libucrt:lcidtoname_downlevel.obj
 0002:00007020       ??_C@_15CLNEJCE@?$AAs?$AAr@ 000000018002a020     libucrt:lcidtoname_downlevel.obj
 0002:00007e70       ??_C@_1M@KAHEKEIG@?$AAa?$AAf?$AA?9?$AAz?$AAa@ 000000018002ae70     libucrt:lcidtoname_downlevel.obj
 0002:00007e80       ??_C@_1M@GIECOABL@?$AAa?$AAr?$AA?9?$AAa?$AAe@ 000000018002ae80     libucrt:lcidtoname_downlevel.obj
 0002:00007e90       ??_C@_1M@BMLMEKGI@?$AAa?$AAr?$AA?9?$AAb?$AAh@ 000000018002ae90     libucrt:lcidtoname_downlevel.obj
 0002:00007ea0       ??_C@_1M@DAPFDGGB@?$AAa?$AAr?$AA?9?$AAd?$AAz@ 000000018002aea0     libucrt:lcidtoname_downlevel.obj
 0002:00007eb0       ??_C@_1M@FJNKGKIG@?$AAa?$AAr?$AA?9?$AAe?$AAg@ 000000018002aeb0     libucrt:lcidtoname_downlevel.obj
 0002:00007ec0       ??_C@_1M@FLGKKCLO@?$AAa?$AAr?$AA?9?$AAi?$AAq@ 000000018002aec0     libucrt:lcidtoname_downlevel.obj
 0002:00007ed0       ??_C@_1M@GNDIPALM@?$AAa?$AAr?$AA?9?$AAj?$AAo@ 000000018002aed0     libucrt:lcidtoname_downlevel.obj
 0002:00007ee0       ??_C@_1M@DDMJFMGJ@?$AAa?$AAr?$AA?9?$AAk?$AAw@ 000000018002aee0     libucrt:lcidtoname_downlevel.obj
 0002:00007ef0       ??_C@_1M@EJALMLHM@?$AAa?$AAr?$AA?9?$AAl?$AAb@ 000000018002aef0     libucrt:lcidtoname_downlevel.obj
 0002:00007f00       ??_C@_1M@MOBDBLOC@?$AAa?$AAr?$AA?9?$AAl?$AAy@ 000000018002af00     libucrt:lcidtoname_downlevel.obj
 0002:00007f10       ??_C@_1M@JAOCLHDH@?$AAa?$AAr?$AA?9?$AAm?$AAa@ 000000018002af10     libucrt:lcidtoname_downlevel.obj
 0002:00007f20       ??_C@_1M@JHPMKJIE@?$AAa?$AAr?$AA?9?$AAo?$AAm@ 000000018002af20     libucrt:lcidtoname_downlevel.obj
 0002:00007f30       ??_C@_1M@OEPGHFNH@?$AAa?$AAr?$AA?9?$AAq?$AAa@ 000000018002af30     libucrt:lcidtoname_downlevel.obj
 0002:00007f40       ??_C@_1M@KJDONENM@?$AAa?$AAr?$AA?9?$AAs?$AAa@ 000000018002af40     libucrt:lcidtoname_downlevel.obj
 0002:00007f50       ??_C@_1M@DMJDKLKM@?$AAa?$AAr?$AA?9?$AAs?$AAy@ 000000018002af50     libucrt:lcidtoname_downlevel.obj
 0002:00007f60       ??_C@_1M@OMFIPEDC@?$AAa?$AAr?$AA?9?$AAt?$AAn@ 000000018002af60     libucrt:lcidtoname_downlevel.obj
 0002:00007f70       ??_C@_1M@IHMHGAON@?$AAa?$AAr?$AA?9?$AAy?$AAe@ 000000018002af70     libucrt:lcidtoname_downlevel.obj
 0002:00007f80       ??_C@_1BG@KDCPGJGB@?$AAa?$AAz?$AA?9?$AAa?$AAz?$AA?9?$AAc?$AAy?$AAr?$AAl@ 000000018002af80     libucrt:lcidtoname_downlevel.obj
 0002:00007f98       ??_C@_1BG@IBCKDDOE@?$AAa?$AAz?$AA?9?$AAa?$AAz?$AA?9?$AAl?$AAa?$AAt?$AAn@ 000000018002af98     libucrt:lcidtoname_downlevel.obj
 0002:00007fb0       ??_C@_1M@EGPFDCPD@?$AAb?$AAe?$AA?9?$AAb?$AAy@ 000000018002afb0     libucrt:lcidtoname_downlevel.obj
 0002:00007fc0       ??_C@_1M@PCMGMCGC@?$AAb?$AAg?$AA?9?$AAb?$AAg@ 000000018002afc0     libucrt:lcidtoname_downlevel.obj
 0002:00007fd0       ??_C@_1M@BJBMFGOB@?$AAb?$AAn?$AA?9?$AAi?$AAn@ 000000018002afd0     libucrt:lcidtoname_downlevel.obj
 0002:00007fe0       ??_C@_1BG@EAKMMACD@?$AAb?$AAs?$AA?9?$AAb?$AAa?$AA?9?$AAl?$AAa?$AAt?$AAn@ 000000018002afe0     libucrt:lcidtoname_downlevel.obj
 0002:00007ff8       ??_C@_1M@KGADAODK@?$AAc?$AAa?$AA?9?$AAe?$AAs@ 000000018002aff8     libucrt:lcidtoname_downlevel.obj
 0002:00008008       ??_C@_1M@COAJPDHI@?$AAc?$AAs?$AA?9?$AAc?$AAz@ 000000018002b008     libucrt:lcidtoname_downlevel.obj
 0002:00008018       ??_C@_1M@DHBHFONH@?$AAc?$AAy?$AA?9?$AAg?$AAb@ 000000018002b018     libucrt:lcidtoname_downlevel.obj
 0002:00008028       ??_C@_1M@IMGKELGA@?$AAd?$AAa?$AA?9?$AAd?$AAk@ 000000018002b028     libucrt:lcidtoname_downlevel.obj
 0002:00008038       ??_C@_1M@NNDGDNGA@?$AAd?$AAe?$AA?9?$AAa?$AAt@ 000000018002b038     libucrt:lcidtoname_downlevel.obj
 0002:00008048       ??_C@_1M@IKDBHEEM@?$AAd?$AAe?$AA?9?$AAc?$AAh@ 000000018002b048     libucrt:lcidtoname_downlevel.obj
 0002:00008058       ??_C@_1M@GFFOJMCJ@?$AAd?$AAe?$AA?9?$AAd?$AAe@ 000000018002b058     libucrt:lcidtoname_downlevel.obj
 0002:00008068       ??_C@_1M@MDNLKBPM@?$AAd?$AAe?$AA?9?$AAl?$AAi@ 000000018002b068     libucrt:lcidtoname_downlevel.obj
 0002:00008078       ??_C@_1M@NJBEEJNL@?$AAd?$AAe?$AA?9?$AAl?$AAu@ 000000018002b078     libucrt:lcidtoname_downlevel.obj
 0002:00008088       ??_C@_1O@GNNELBAP@?$AAd?$AAi?$AAv?$AA?9?$AAm?$AAv@ 000000018002b088     libucrt:lcidtoname_downlevel.obj
 0002:00008098       ??_C@_1M@EJLEOGAE@?$AAe?$AAl?$AA?9?$AAg?$AAr@ 000000018002b098     libucrt:lcidtoname_downlevel.obj
 0002:000080a8       ??_C@_1M@GMPONJN@?$AAe?$AAn?$AA?9?$AAa?$AAu@ 000000018002b0a8     libucrt:lcidtoname_downlevel.obj
 0002:000080b8       ??_C@_1M@NIDIIPGF@?$AAe?$AAn?$AA?9?$AAb?$AAz@ 000000018002b0b8     libucrt:lcidtoname_downlevel.obj
 0002:000080c8       ??_C@_1M@JEHMIMFO@?$AAe?$AAn?$AA?9?$AAc?$AAa@ 000000018002b0c8     libucrt:lcidtoname_downlevel.obj
 0002:000080d8       ??_C@_1M@IGMJCDLA@?$AAe?$AAn?$AA?9?$AAc?$AAb@ 000000018002b0d8     libucrt:lcidtoname_downlevel.obj
 0002:000080e8       ??_C@_1M@BNFIGBKG@?$AAe?$AAn?$AA?9?$AAg?$AAb@ 000000018002b0e8     libucrt:lcidtoname_downlevel.obj
 0002:000080f8       ??_C@_1M@LKIFDIGP@?$AAe?$AAn?$AA?9?$AAi?$AAe@ 000000018002b0f8     libucrt:lcidtoname_downlevel.obj
 0002:00008108       ??_C@_1M@PJKFGCCO@?$AAe?$AAn?$AA?9?$AAj?$AAm@ 000000018002b108     libucrt:lcidtoname_downlevel.obj
 0002:00008118       ??_C@_1M@KPPKEPBO@?$AAe?$AAn?$AA?9?$AAn?$AAz@ 000000018002b118     libucrt:lcidtoname_downlevel.obj
 0002:00008128       ??_C@_1M@GMDGLDOB@?$AAe?$AAn?$AA?9?$AAp?$AAh@ 000000018002b128     libucrt:lcidtoname_downlevel.obj
 0002:00008138       ??_C@_1M@ONGIBJNA@?$AAe?$AAn?$AA?9?$AAt?$AAt@ 000000018002b138     libucrt:lcidtoname_downlevel.obj
 0002:00008148       ??_C@_1M@LLODPCMM@?$AAe?$AAn?$AA?9?$AAu?$AAs@ 000000018002b148     libucrt:lcidtoname_downlevel.obj
 0002:00008158       ??_C@_1M@LAKFNPAN@?$AAe?$AAn?$AA?9?$AAz?$AAa@ 000000018002b158     libucrt:lcidtoname_downlevel.obj
 0002:00008168       ??_C@_1M@MFNHNHEO@?$AAe?$AAn?$AA?9?$AAz?$AAw@ 000000018002b168     libucrt:lcidtoname_downlevel.obj
 0002:00008178       ??_C@_1M@EJEINPHM@?$AAe?$AAs?$AA?9?$AAa?$AAr@ 000000018002b178     libucrt:lcidtoname_downlevel.obj
 0002:00008188       ??_C@_1M@GNKPCCJA@?$AAe?$AAs?$AA?9?$AAb?$AAo@ 000000018002b188     libucrt:lcidtoname_downlevel.obj
 0002:00008198       ??_C@_1M@LEEGFONL@?$AAe?$AAs?$AA?9?$AAc?$AAl@ 000000018002b198     libucrt:lcidtoname_downlevel.obj
 0002:000081a8       ??_C@_1M@KGPDPBDF@?$AAe?$AAs?$AA?9?$AAc?$AAo@ 000000018002b1a8     libucrt:lcidtoname_downlevel.obj
 0002:000081b8       ??_C@_1M@EIAHOHH@?$AAe?$AAs?$AA?9?$AAc?$AAr@ 000000018002b1b8     libucrt:lcidtoname_downlevel.obj
 0002:000081c8       ??_C@_1M@LLPGMBIN@?$AAe?$AAs?$AA?9?$AAd?$AAo@ 000000018002b1c8     libucrt:lcidtoname_downlevel.obj
 0002:000081d8       ??_C@_1M@DKHMKNJA@?$AAe?$AAs?$AA?9?$AAe?$AAc@ 000000018002b1d8     libucrt:lcidtoname_downlevel.obj
 0002:000081e8       ??_C@_1M@GKGFPKAP@?$AAe?$AAs?$AA?9?$AAe?$AAs@ 000000018002b1e8     libucrt:lcidtoname_downlevel.obj
 0002:000081f8       ??_C@_1M@LKHKGDLN@?$AAe?$AAs?$AA?9?$AAg?$AAt@ 000000018002b1f8     libucrt:lcidtoname_downlevel.obj
 0002:00008208       ??_C@_1M@HEIIGGJD@?$AAe?$AAs?$AA?9?$AAh?$AAn@ 000000018002b208     libucrt:lcidtoname_downlevel.obj
 0002:00008218       ??_C@_1M@FBDHPPGD@?$AAe?$AAs?$AA?9?$AAm?$AAx@ 000000018002b218     libucrt:lcidtoname_downlevel.obj
 0002:00008228       ??_C@_1M@DPAGLNDH@?$AAe?$AAs?$AA?9?$AAn?$AAi@ 000000018002b228     libucrt:lcidtoname_downlevel.obj
 0002:00008238       ??_C@_1M@MDGOPGDD@?$AAe?$AAs?$AA?9?$AAp?$AAa@ 000000018002b238     libucrt:lcidtoname_downlevel.obj
 0002:00008248       ??_C@_1M@EMAMGBGE@?$AAe?$AAs?$AA?9?$AAp?$AAe@ 000000018002b248     libucrt:lcidtoname_downlevel.obj
 0002:00008258       ??_C@_1M@IBMCAOEC@?$AAe?$AAs?$AA?9?$AAp?$AAr@ 000000018002b258     libucrt:lcidtoname_downlevel.obj
 0002:00008268       ??_C@_1M@FGMDIJED@?$AAe?$AAs?$AA?9?$AAp?$AAy@ 000000018002b268     libucrt:lcidtoname_downlevel.obj
 0002:00008278       ??_C@_1M@IIDEOLLL@?$AAe?$AAs?$AA?9?$AAs?$AAv@ 000000018002b278     libucrt:lcidtoname_downlevel.obj
 0002:00008288       ??_C@_1M@GAOBIPA@?$AAe?$AAs?$AA?9?$AAu?$AAy@ 000000018002b288     libucrt:lcidtoname_downlevel.obj
 0002:00008298       ??_C@_1M@JKFFICHJ@?$AAe?$AAs?$AA?9?$AAv?$AAe@ 000000018002b298     libucrt:lcidtoname_downlevel.obj
 0002:000082a8       ??_C@_1M@PNMLOJDF@?$AAe?$AAt?$AA?9?$AAe?$AAe@ 000000018002b2a8     libucrt:lcidtoname_downlevel.obj
 0002:000082b8       ??_C@_1M@GHHLIKEI@?$AAe?$AAu?$AA?9?$AAe?$AAs@ 000000018002b2b8     libucrt:lcidtoname_downlevel.obj
 0002:000082c8       ??_C@_1M@PBNONODE@?$AAf?$AAa?$AA?9?$AAi?$AAr@ 000000018002b2c8     libucrt:lcidtoname_downlevel.obj
 0002:000082d8       ??_C@_1M@JEEHPMIL@?$AAf?$AAi?$AA?9?$AAf?$AAi@ 000000018002b2d8     libucrt:lcidtoname_downlevel.obj
 0002:000082e8       ??_C@_1M@LMDCNDBA@?$AAf?$AAo?$AA?9?$AAf?$AAo@ 000000018002b2e8     libucrt:lcidtoname_downlevel.obj
 0002:000082f8       ??_C@_1M@JKEOHLDK@?$AAf?$AAr?$AA?9?$AAb?$AAe@ 000000018002b2f8     libucrt:lcidtoname_downlevel.obj
 0002:00008308       ??_C@_1M@NOHADPMI@?$AAf?$AAr?$AA?9?$AAc?$AAa@ 000000018002b308     libucrt:lcidtoname_downlevel.obj
 0002:00008318       ??_C@_1M@KDHIHAEC@?$AAf?$AAr?$AA?9?$AAc?$AAh@ 000000018002b318     libucrt:lcidtoname_downlevel.obj
 0002:00008328       ??_C@_1M@MMBBFGAK@?$AAf?$AAr?$AA?9?$AAf?$AAr@ 000000018002b328     libucrt:lcidtoname_downlevel.obj
 0002:00008338       ??_C@_1M@PAFNENNF@?$AAf?$AAr?$AA?9?$AAl?$AAu@ 000000018002b338     libucrt:lcidtoname_downlevel.obj
 0002:00008348       ??_C@_1M@EOHDJGDD@?$AAf?$AAr?$AA?9?$AAm?$AAc@ 000000018002b348     libucrt:lcidtoname_downlevel.obj
 0002:00008358       ??_C@_1M@FAPLLOPF@?$AAg?$AAl?$AA?9?$AAe?$AAs@ 000000018002b358     libucrt:lcidtoname_downlevel.obj
 0002:00008368       ??_C@_1M@FOPBFLOO@?$AAg?$AAu?$AA?9?$AAi?$AAn@ 000000018002b368     libucrt:lcidtoname_downlevel.obj
 0002:00008378       ??_C@_1M@KBMCINPM@?$AAh?$AAe?$AA?9?$AAi?$AAl@ 000000018002b378     libucrt:lcidtoname_downlevel.obj
 0002:00008388       ??_C@_1M@BBPHKFPJ@?$AAh?$AAi?$AA?9?$AAi?$AAn@ 000000018002b388     libucrt:lcidtoname_downlevel.obj
 0002:00008398       ??_C@_1M@PMBNDPHD@?$AAh?$AAr?$AA?9?$AAb?$AAa@ 000000018002b398     libucrt:lcidtoname_downlevel.obj
 0002:000083a8       ??_C@_1M@BPCKOEGE@?$AAh?$AAr?$AA?9?$AAh?$AAr@ 000000018002b3a8     libucrt:lcidtoname_downlevel.obj
 0002:000083b8       ??_C@_1M@GACBMHKE@?$AAh?$AAu?$AA?9?$AAh?$AAu@ 000000018002b3b8     libucrt:lcidtoname_downlevel.obj
 0002:000083c8       ??_C@_1M@MILPAJJC@?$AAh?$AAy?$AA?9?$AAa?$AAm@ 000000018002b3c8     libucrt:lcidtoname_downlevel.obj
 0002:000083d8       ??_C@_1M@BABBICEC@?$AAi?$AAd?$AA?9?$AAi?$AAd@ 000000018002b3d8     libucrt:lcidtoname_downlevel.obj
 0002:000083e8       ??_C@_1M@BIKNHHPF@?$AAi?$AAs?$AA?9?$AAi?$AAs@ 000000018002b3e8     libucrt:lcidtoname_downlevel.obj
 0002:000083f8       ??_C@_1M@NMPCJPHE@?$AAi?$AAt?$AA?9?$AAc?$AAh@ 000000018002b3f8     libucrt:lcidtoname_downlevel.obj
 0002:00008408       ??_C@_1M@GHKGFEDF@?$AAi?$AAt?$AA?9?$AAi?$AAt@ 000000018002b408     libucrt:lcidtoname_downlevel.obj
 0002:00008418       ??_C@_1M@NIEJCJJA@?$AAj?$AAa?$AA?9?$AAj?$AAp@ 000000018002b418     libucrt:lcidtoname_downlevel.obj
 0002:00008428       ??_C@_1M@JILFNBIM@?$AAk?$AAa?$AA?9?$AAg?$AAe@ 000000018002b428     libucrt:lcidtoname_downlevel.obj
 0002:00008438       ??_C@_1M@PACPMGPH@?$AAk?$AAk?$AA?9?$AAk?$AAz@ 000000018002b438     libucrt:lcidtoname_downlevel.obj
 0002:00008448       ??_C@_1M@IELFGMHA@?$AAk?$AAn?$AA?9?$AAi?$AAn@ 000000018002b448     libucrt:lcidtoname_downlevel.obj
 0002:00008458       ??_C@_1O@IBBJHCH@?$AAk?$AAo?$AAk?$AA?9?$AAi?$AAn@ 000000018002b458     libucrt:lcidtoname_downlevel.obj
 0002:00008468       ??_C@_1M@DMHAEOGC@?$AAk?$AAo?$AA?9?$AAk?$AAr@ 000000018002b468     libucrt:lcidtoname_downlevel.obj
 0002:00008478       ??_C@_1M@HBAHBIGA@?$AAk?$AAy?$AA?9?$AAk?$AAg@ 000000018002b478     libucrt:lcidtoname_downlevel.obj
 0002:00008488       ??_C@_1M@KPMILCJG@?$AAl?$AAt?$AA?9?$AAl?$AAt@ 000000018002b488     libucrt:lcidtoname_downlevel.obj
 0002:00008498       ??_C@_1M@BDEKKCA@?$AAl?$AAv?$AA?9?$AAl?$AAv@ 000000018002b498     libucrt:lcidtoname_downlevel.obj
 0002:000084a8       ??_C@_1M@ELCKCCJJ@?$AAm?$AAi?$AA?9?$AAn?$AAz@ 000000018002b4a8     libucrt:lcidtoname_downlevel.obj
 0002:000084b8       ??_C@_1M@CBOOLAPA@?$AAm?$AAk?$AA?9?$AAm?$AAk@ 000000018002b4b8     libucrt:lcidtoname_downlevel.obj
 0002:000084c8       ??_C@_1M@GPHNBJKN@?$AAm?$AAl?$AA?9?$AAi?$AAn@ 000000018002b4c8     libucrt:lcidtoname_downlevel.obj
 0002:000084d8       ??_C@_1M@PABJILIG@?$AAm?$AAn?$AA?9?$AAm?$AAn@ 000000018002b4d8     libucrt:lcidtoname_downlevel.obj
 0002:000084e8       ??_C@_1M@FGBKKIPG@?$AAm?$AAr?$AA?9?$AAi?$AAn@ 000000018002b4e8     libucrt:lcidtoname_downlevel.obj
 0002:000084f8       ??_C@_1M@NDBPDDAL@?$AAm?$AAs?$AA?9?$AAb?$AAn@ 000000018002b4f8     libucrt:lcidtoname_downlevel.obj
 0002:00008508       ??_C@_1M@OPIHOOPI@?$AAm?$AAs?$AA?9?$AAm?$AAy@ 000000018002b508     libucrt:lcidtoname_downlevel.obj
 0002:00008518       ??_C@_1M@PPDBCNFM@?$AAm?$AAt?$AA?9?$AAm?$AAt@ 000000018002b518     libucrt:lcidtoname_downlevel.obj
 0002:00008528       ??_C@_1M@KDJDKMDD@?$AAn?$AAb?$AA?9?$AAn?$AAo@ 000000018002b528     libucrt:lcidtoname_downlevel.obj
 0002:00008538       ??_C@_1M@KFCFLMJP@?$AAn?$AAl?$AA?9?$AAb?$AAe@ 000000018002b538     libucrt:lcidtoname_downlevel.obj
 0002:00008548       ??_C@_1M@KPOPDDGO@?$AAn?$AAl?$AA?9?$AAn?$AAl@ 000000018002b548     libucrt:lcidtoname_downlevel.obj
 0002:00008558       ??_C@_1M@LJKPEMLN@?$AAn?$AAn?$AA?9?$AAn?$AAo@ 000000018002b558     libucrt:lcidtoname_downlevel.obj
 0002:00008568       ??_C@_1M@BDGHHBFL@?$AAn?$AAs?$AA?9?$AAz?$AAa@ 000000018002b568     libucrt:lcidtoname_downlevel.obj
 0002:00008578       ??_C@_1M@IDEHOAP@?$AAp?$AAa?$AA?9?$AAi?$AAn@ 000000018002b578     libucrt:lcidtoname_downlevel.obj
 0002:00008588       ??_C@_1M@HDBKGOGH@?$AAp?$AAl?$AA?9?$AAp?$AAl@ 000000018002b588     libucrt:lcidtoname_downlevel.obj
 0002:00008598       ??_C@_1M@LJLLCMEH@?$AAp?$AAt?$AA?9?$AAb?$AAr@ 000000018002b598     libucrt:lcidtoname_downlevel.obj
 0002:000085a8       ??_C@_1M@NCMONAAL@?$AAp?$AAt?$AA?9?$AAp?$AAt@ 000000018002b5a8     libucrt:lcidtoname_downlevel.obj
 0002:000085b8       ??_C@_1O@EAKMAJDN@?$AAq?$AAu?$AAz?$AA?9?$AAb?$AAo@ 000000018002b5b8     libucrt:lcidtoname_downlevel.obj
 0002:000085c8       ??_C@_1O@BHHPIGDN@?$AAq?$AAu?$AAz?$AA?9?$AAe?$AAc@ 000000018002b5c8     libucrt:lcidtoname_downlevel.obj
 0002:000085d8       ??_C@_1O@GBAPEKMJ@?$AAq?$AAu?$AAz?$AA?9?$AAp?$AAe@ 000000018002b5d8     libucrt:lcidtoname_downlevel.obj
 0002:000085e8       ??_C@_1M@CLGLEFBO@?$AAr?$AAo?$AA?9?$AAr?$AAo@ 000000018002b5e8     libucrt:lcidtoname_downlevel.obj
 0002:000085f8       ??_C@_1M@CEEDODME@?$AAr?$AAu?$AA?9?$AAr?$AAu@ 000000018002b5f8     libucrt:lcidtoname_downlevel.obj
 0002:00008608       ??_C@_1M@HPKKKMPP@?$AAs?$AAa?$AA?9?$AAi?$AAn@ 000000018002b608     libucrt:lcidtoname_downlevel.obj
 0002:00008618       ??_C@_1M@BKMAIGOJ@?$AAs?$AAe?$AA?9?$AAf?$AAi@ 000000018002b618     libucrt:lcidtoname_downlevel.obj
 0002:00008628       ??_C@_1M@NDPIFLFI@?$AAs?$AAe?$AA?9?$AAn?$AAo@ 000000018002b628     libucrt:lcidtoname_downlevel.obj
 0002:00008638       ??_C@_1M@DANKKHJ@?$AAs?$AAe?$AA?9?$AAs?$AAe@ 000000018002b638     libucrt:lcidtoname_downlevel.obj
 0002:00008648       ??_C@_1M@PNBLONPJ@?$AAs?$AAk?$AA?9?$AAs?$AAk@ 000000018002b648     libucrt:lcidtoname_downlevel.obj
 0002:00008658       ??_C@_1M@LFMODOAL@?$AAs?$AAl?$AA?9?$AAs?$AAi@ 000000018002b658     libucrt:lcidtoname_downlevel.obj
 0002:00008668       ??_C@_1O@DFKOMPG@?$AAs?$AAm?$AAa?$AA?9?$AAn?$AAo@ 000000018002b668     libucrt:lcidtoname_downlevel.obj
 0002:00008678       ??_C@_1O@NDKPBNNH@?$AAs?$AAm?$AAa?$AA?9?$AAs?$AAe@ 000000018002b678     libucrt:lcidtoname_downlevel.obj
 0002:00008688       ??_C@_1O@PLLKBHAB@?$AAs?$AAm?$AAj?$AA?9?$AAn?$AAo@ 000000018002b688     libucrt:lcidtoname_downlevel.obj
 0002:00008698       ??_C@_1O@CLEPOGCA@?$AAs?$AAm?$AAj?$AA?9?$AAs?$AAe@ 000000018002b698     libucrt:lcidtoname_downlevel.obj
 0002:000086a8       ??_C@_1O@DLGJGKMK@?$AAs?$AAm?$AAn?$AA?9?$AAf?$AAi@ 000000018002b6a8     libucrt:lcidtoname_downlevel.obj
 0002:000086b8       ??_C@_1O@OJDJGAJC@?$AAs?$AAm?$AAs?$AA?9?$AAf?$AAi@ 000000018002b6b8     libucrt:lcidtoname_downlevel.obj
 0002:000086c8       ??_C@_1M@BOFOGHPB@?$AAs?$AAq?$AA?9?$AAa?$AAl@ 000000018002b6c8     libucrt:lcidtoname_downlevel.obj
 0002:000086d8       ??_C@_1BG@LJBBIPGB@?$AAs?$AAr?$AA?9?$AAb?$AAa?$AA?9?$AAc?$AAy?$AAr?$AAl@ 000000018002b6d8     libucrt:lcidtoname_downlevel.obj
 0002:000086f0       ??_C@_1BG@JLBENFOE@?$AAs?$AAr?$AA?9?$AAb?$AAa?$AA?9?$AAl?$AAa?$AAt?$AAn@ 000000018002b6f0     libucrt:lcidtoname_downlevel.obj
 0002:00008708       ??_C@_1BG@KODPNHE@?$AAs?$AAr?$AA?9?$AAs?$AAp?$AA?9?$AAc?$AAy?$AAr?$AAl@ 000000018002b708     libucrt:lcidtoname_downlevel.obj
 0002:00008720       ??_C@_1BG@CIOGKHPB@?$AAs?$AAr?$AA?9?$AAs?$AAp?$AA?9?$AAl?$AAa?$AAt?$AAn@ 000000018002b720     libucrt:lcidtoname_downlevel.obj
 0002:00008738       ??_C@_1M@NGFJLMAC@?$AAs?$AAv?$AA?9?$AAf?$AAi@ 000000018002b738     libucrt:lcidtoname_downlevel.obj
 0002:00008748       ??_C@_1M@MPJEJAJC@?$AAs?$AAv?$AA?9?$AAs?$AAe@ 000000018002b748     libucrt:lcidtoname_downlevel.obj
 0002:00008758       ??_C@_1M@MPNDHLFK@?$AAs?$AAw?$AA?9?$AAk?$AAe@ 000000018002b758     libucrt:lcidtoname_downlevel.obj
 0002:00008768       ??_C@_1O@KOHBJJI@?$AAs?$AAy?$AAr?$AA?9?$AAs?$AAy@ 000000018002b768     libucrt:lcidtoname_downlevel.obj
 0002:00008778       ??_C@_1M@LDCEFHA@?$AAt?$AAa?$AA?9?$AAi?$AAn@ 000000018002b778     libucrt:lcidtoname_downlevel.obj
 0002:00008788       ??_C@_1M@CNJOFAK@?$AAt?$AAe?$AA?9?$AAi?$AAn@ 000000018002b788     libucrt:lcidtoname_downlevel.obj
 0002:00008798       ??_C@_1M@GNAECACD@?$AAt?$AAh?$AA?9?$AAt?$AAh@ 000000018002b798     libucrt:lcidtoname_downlevel.obj
 0002:000087a8       ??_C@_1M@CHBIHOJO@?$AAt?$AAn?$AA?9?$AAz?$AAa@ 000000018002b7a8     libucrt:lcidtoname_downlevel.obj
 0002:000087b8       ??_C@_1M@GCCMIGPJ@?$AAt?$AAr?$AA?9?$AAt?$AAr@ 000000018002b7b8     libucrt:lcidtoname_downlevel.obj
 0002:000087c8       ??_C@_1M@CELMCNBK@?$AAt?$AAt?$AA?9?$AAr?$AAu@ 000000018002b7c8     libucrt:lcidtoname_downlevel.obj
 0002:000087d8       ??_C@_1M@KLMCELGA@?$AAu?$AAk?$AA?9?$AAu?$AAa@ 000000018002b7d8     libucrt:lcidtoname_downlevel.obj
 0002:000087e8       ??_C@_1M@EPAJJAJF@?$AAu?$AAr?$AA?9?$AAp?$AAk@ 000000018002b7e8     libucrt:lcidtoname_downlevel.obj
 0002:000087f8       ??_C@_1BG@GEGPMCDJ@?$AAu?$AAz?$AA?9?$AAu?$AAz?$AA?9?$AAc?$AAy?$AAr?$AAl@ 000000018002b7f8     libucrt:lcidtoname_downlevel.obj
 0002:00008810       ??_C@_1BG@EGGKJILM@?$AAu?$AAz?$AA?9?$AAu?$AAz?$AA?9?$AAl?$AAa?$AAt?$AAn@ 000000018002b810     libucrt:lcidtoname_downlevel.obj
 0002:00008828       ??_C@_1M@GFOCLFF@?$AAv?$AAi?$AA?9?$AAv?$AAn@ 000000018002b828     libucrt:lcidtoname_downlevel.obj
 0002:00008838       ??_C@_1M@CPAMEDFI@?$AAx?$AAh?$AA?9?$AAz?$AAa@ 000000018002b838     libucrt:lcidtoname_downlevel.obj
 0002:00008848       ??_C@_1O@EBKIFIGN@?$AAz?$AAh?$AA?9?$AAc?$AAh?$AAs@ 000000018002b848     libucrt:lcidtoname_downlevel.obj
 0002:00008858       ??_C@_1O@NMHPGANE@?$AAz?$AAh?$AA?9?$AAc?$AAh?$AAt@ 000000018002b858     libucrt:lcidtoname_downlevel.obj
 0002:00008868       ??_C@_1M@LPINJOMC@?$AAz?$AAh?$AA?9?$AAc?$AAn@ 000000018002b868     libucrt:lcidtoname_downlevel.obj
 0002:00008878       ??_C@_1M@OCJEJODD@?$AAz?$AAh?$AA?9?$AAh?$AAk@ 000000018002b878     libucrt:lcidtoname_downlevel.obj
 0002:00008888       ??_C@_1M@DNDLJINH@?$AAz?$AAh?$AA?9?$AAm?$AAo@ 000000018002b888     libucrt:lcidtoname_downlevel.obj
 0002:00008898       ??_C@_1M@MBFDNDND@?$AAz?$AAh?$AA?9?$AAs?$AAg@ 000000018002b898     libucrt:lcidtoname_downlevel.obj
 0002:000088a8       ??_C@_1M@IMEPLEPE@?$AAz?$AAh?$AA?9?$AAt?$AAw@ 000000018002b8a8     libucrt:lcidtoname_downlevel.obj
 0002:000088b8       ??_C@_1M@BBGHNHJP@?$AAz?$AAu?$AA?9?$AAz?$AAa@ 000000018002b8b8     libucrt:lcidtoname_downlevel.obj
 0002:000088d0       ?large_power_data@?1??multiply_by_power_of_ten@__crt_strtox@@YA_NAEAUbig_integer@2@I@Z@4QBIB 000000018002b8d0     libucrt:cfout.obj
 0002:000091e0       ?large_power_indices@?1??multiply_by_power_of_ten@__crt_strtox@@YA_NAEAUbig_integer@2@I@Z@4QBUunpack_index@?1??12@YA_N0I@Z@B 000000018002c1e0     libucrt:cfout.obj
 0002:00009278       ?small_powers_of_ten@?1??multiply_by_power_of_ten@__crt_strtox@@YA_NAEAUbig_integer@2@I@Z@4QBIB 000000018002c278     libucrt:cfout.obj
 0002:0000929c       ??_C@_01GBGANLPD@0@        000000018002c29c     libucrt:cfout.obj
 0002:000092a0       ??_C@_05DNEBIAHO@1?$CDINF@ 000000018002c2a0     libucrt:cfout.obj
 0002:000092a8       ??_C@_06IMKFLFPG@1?$CDQNAN@ 000000018002c2a8     libucrt:cfout.obj
 0002:000092b0       ??_C@_06PGGFOGJG@1?$CDSNAN@ 000000018002c2b0     libucrt:cfout.obj
 0002:000092b8       ??_C@_05PHHOCPM@1?$CDIND@  000000018002c2b8     libucrt:cfout.obj
 0002:000092c0       __real@3ff0000000000000    000000018002c2c0     libucrt:ceil.obj
 0002:00009520       __log10_256_lead           000000018002c520     libucrt:log10_256_lead_tail_table.obj
 0002:00009d30       __log10_256_tail           000000018002cd30     libucrt:log10_256_lead_tail_table.obj
 0002:0000a540       __log_F_inv_qword          000000018002d540     libucrt:log_f_inv_qword_table.obj
 0002:0000ad50       ??_C@_05HGHHAHAP@log10@    000000018002dd50     libucrt:log_special.obj
 0002:0000ad58       ??_C@_1BA@BALFACEM@?$AAC?$AAO?$AAN?$AAO?$AAU?$AAT?$AA$@ 000000018002dd58     libucrt:initcon.obj
 0002:0000ade0       _load_config_used          000000018002dde0     LIBCMT:loadcfg.obj
 0002:0000af10       _tls_used                  000000018002df10     LIBCMT:tlssup.obj
 0002:0000af38       ??_R4exception@std@@6B@    000000018002df38     LIBCMT:throw_bad_alloc.obj
 0002:0000af60       ??_R3exception@std@@8      000000018002df60     LIBCMT:throw_bad_alloc.obj
 0002:0000af78       ??_R2exception@std@@8      000000018002df78     LIBCMT:throw_bad_alloc.obj
 0002:0000af88       ??_R1A@?0A@EA@exception@std@@8 000000018002df88     LIBCMT:throw_bad_alloc.obj
 0002:0000afb0       ??_R4bad_alloc@std@@6B@    000000018002dfb0     LIBCMT:throw_bad_alloc.obj
 0002:0000afd8       ??_R3bad_alloc@std@@8      000000018002dfd8     LIBCMT:throw_bad_alloc.obj
 0002:0000aff0       ??_R2bad_alloc@std@@8      000000018002dff0     LIBCMT:throw_bad_alloc.obj
 0002:0000b008       ??_R1A@?0A@EA@bad_alloc@std@@8 000000018002e008     LIBCMT:throw_bad_alloc.obj
 0002:0000b030       ??_R4bad_array_new_length@std@@6B@ 000000018002e030     LIBCMT:throw_bad_alloc.obj
 0002:0000b058       ??_R3bad_array_new_length@std@@8 000000018002e058     LIBCMT:throw_bad_alloc.obj
 0002:0000b070       ??_R2bad_array_new_length@std@@8 000000018002e070     LIBCMT:throw_bad_alloc.obj
 0002:0000b090       ??_R1A@?0A@EA@bad_array_new_length@std@@8 000000018002e090     LIBCMT:throw_bad_alloc.obj
 0002:0000b0b8       ??_R4type_info@@6B@        000000018002e0b8     LIBCMT:std_type_info_static.obj
 0002:0000b0e0       ??_R3type_info@@8          000000018002e0e0     LIBCMT:std_type_info_static.obj
 0002:0000b0f8       ??_R2type_info@@8          000000018002e0f8     LIBCMT:std_type_info_static.obj
 0002:0000b108       ??_R1A@?0A@EA@type_info@@8 000000018002e108     LIBCMT:std_type_info_static.obj
 0002:0000b130       ??_R4bad_exception@std@@6B@ 000000018002e130     libvcruntime:frame.obj
 0002:0000b158       ??_R3bad_exception@std@@8  000000018002e158     libvcruntime:frame.obj
 0002:0000b170       ??_R2bad_exception@std@@8  000000018002e170     libvcruntime:frame.obj
 0002:0000b188       ??_R1A@?0A@EA@bad_exception@std@@8 000000018002e188     libvcruntime:frame.obj
 0002:0000b5b8       __rtc_iaa                  000000018002e5b8     LIBCMT:initsect.obj
 0002:0000b5c0       __rtc_izz                  000000018002e5c0     LIBCMT:initsect.obj
 0002:0000b5c8       __rtc_taa                  000000018002e5c8     LIBCMT:initsect.obj
 0002:0000b5d0       __rtc_tzz                  000000018002e5d0     LIBCMT:initsect.obj
 0002:0000b5d8       _tls_start                 000000018002e5d8     LIBCMT:tlssup.obj
 0002:0000b5dc       _Init_thread_epoch         000000018002e5dc     LIBCMT:thread_safe_statics.obj
 0002:0000b5e0       _tls_end                   000000018002e5e0     LIBCMT:tlssup.obj
 0002:0000cc90       _TI2?AVbad_alloc@std@@     000000018002fc90     LIBCMT:throw_bad_alloc.obj
 0002:0000ccb0       _CTA2?AVbad_alloc@std@@    000000018002fcb0     LIBCMT:throw_bad_alloc.obj
 0002:0000ccc8       _CT??_R0?AVbad_alloc@std@@@8??0bad_alloc@std@@QEAA@AEBV01@@Z24 000000018002fcc8     LIBCMT:throw_bad_alloc.obj
 0002:0000ccf0       _CT??_R0?AVexception@std@@@8??0exception@std@@QEAA@AEBV01@@Z24 000000018002fcf0     LIBCMT:throw_bad_alloc.obj
 0002:0000cd18       _TI3?AVbad_array_new_length@std@@ 000000018002fd18     LIBCMT:throw_bad_alloc.obj
 0002:0000cd38       _CTA3?AVbad_array_new_length@std@@ 000000018002fd38     LIBCMT:throw_bad_alloc.obj
 0002:0000cd58       _CT??_R0?AVbad_array_new_length@std@@@8??0bad_array_new_length@std@@QEAA@AEBV01@@Z24 000000018002fd58     LIBCMT:throw_bad_alloc.obj
 0002:0000cd80       _TI2?AVbad_exception@std@@ 000000018002fd80     libvcruntime:frame.obj
 0002:0000cda0       _CTA2?AVbad_exception@std@@ 000000018002fda0     libvcruntime:frame.obj
 0002:0000cdb8       _CT??_R0?AVbad_exception@std@@@8??0bad_exception@std@@QEAA@AEBV01@@Z24 000000018002fdb8     libvcruntime:frame.obj
 0002:0000cde0       __pobjMapEntryFirst        000000018002fde0     OposVariant.obj
 0002:0000cde8       __pobjMapEntryLast         000000018002fde8     OposVariant.obj
 0002:0000cea0       __IMPORT_DESCRIPTOR_KERNEL32 000000018002fea0     kernel32:KERNEL32.dll
 0002:0000ceb4       __IMPORT_DESCRIPTOR_USER32 000000018002feb4     user32:USER32.dll
 0002:0000cec8       __IMPORT_DESCRIPTOR_GDI32  000000018002fec8     gdi32:GDI32.dll
 0002:0000cedc       __IMPORT_DESCRIPTOR_ADVAPI32 000000018002fedc     advapi32:ADVAPI32.dll
 0002:0000cef0       __IMPORT_DESCRIPTOR_ole32  000000018002fef0     ole32:ole32.dll
 0002:0000cf04       __IMPORT_DESCRIPTOR_OLEAUT32 000000018002ff04     oleaut32:OLEAUT32.dll
 0002:0000cf18       __NULL_IMPORT_DESCRIPTOR   000000018002ff18     kernel32:KERNEL32.dll
 0003:00000000       ?s_Claim@?7??GetIDsOfNames@CComTypeInfoHolder@ATL@@QEAAJAEBU_GUID@@PEAPEA_WIKPEAJ@Z@4PA_WA 0000000180032000     BillAcceptor.obj
 0003:00000018       ?s_Release@?7??GetIDsOfNames@CComTypeInfoHolder@ATL@@QEAAJAEBU_GUID@@PEAPEA_WIKPEAJ@Z@4PA_WA 0000000180032018     BillAcceptor.obj
 0003:00000038       ?_tih@?$IDispatchImpl@UIOPOSBillAcceptor@@$1?IID_IOPOSBillAcceptor@@3U_GUID@@B$1?LIBID_OposBillAcceptor_CCO@@3U3@B$00$0A@VCComTypeInfoHolder@ATL@@@ATL@@1VCComTypeInfoHolder@2@A 0000000180032038     BillAcceptor.obj
 0003:00000070       ?_tih@?$IProvideClassInfo2Impl@$1?CLSID_OPOSBillAcceptor@@3U_GUID@@B$1?DIID__IOPOSBillAcceptorEvents@@3U2@B$1?LIBID_OposBillAcceptor_CCO@@3U2@B$00$0A@VCComTypeInfoHolder@ATL@@@ATL@@1VCComTypeInfoHolder@2@A 0000000180032070     BillAcceptor.obj
 0003:000000a8       ?vszContents@?6??Save@?$IPersistStorageImpl@VCOPOSBillAcceptor@@@ATL@@UEAAJPEAUIStorage@@H@Z@4PEB_WEB 00000001800320a8     BillAcceptor.obj
 0003:000000b0       ?wc@?1??GetWndClassInfo@?$CWindowImpl@VCOPOSBillAcceptor@@VCWindow@ATL@@V?$CWinTraits@$0FGAAAAAA@$0A@@3@@ATL@@SAAEAU_ATL_WNDCLASSINFOW@3@XZ@4U43@A 00000001800320b0     BillAcceptor.obj
 0003:000001a8       ?rcDefault@CWindow@ATL@@2UtagRECT@@A 00000001800321a8     BillAcceptor.obj
 0003:00000250       ?g_WindowName@@3PA_WA      0000000180032250     BillAcceptorImpl.obj
 0003:00000278       ?g_ControlVersion@@3JA     0000000180032278     BillAcceptorImpl.obj
 0003:00000280       ?g_ControlDescription@@3PADA 0000000180032280     BillAcceptorImpl.obj
 0003:00000390       __scrt_native_dllmain_reason 0000000180032390     LIBCMT:utility.obj
 0003:00000394       _Init_global_epoch         0000000180032394     LIBCMT:thread_safe_statics.obj
 0003:000003a0       __security_cookie_complement 00000001800323a0     LIBCMT:gs_cookie.obj
 0003:000003a8       __security_cookie          00000001800323a8     LIBCMT:gs_cookie.obj
 0003:000003b0       __isa_available            00000001800323b0     LIBCMT:cpu_disp.obj
 0003:000003b4       __isa_enabled              00000001800323b4     LIBCMT:cpu_disp.obj
 0003:000003b8       __memcpy_nt_iters          00000001800323b8     LIBCMT:cpu_disp.obj
 0003:000003c0       __memset_nt_iters          00000001800323c0     LIBCMT:cpu_disp.obj
 0003:000003e8       __abort_behavior           00000001800323e8     libucrt:abort.obj
 0003:00000400       _iob                       0000000180032400     libucrt:_file.obj
 0003:00000510       __acrt_initial_locale_data 0000000180032510     libucrt:nlsdata.obj
 0003:00000668       __acrt_initial_locale_pointers 0000000180032668     libucrt:nlsdata.obj
 0003:00000678       __acrt_wide_c_locale_string 0000000180032678     libucrt:nlsdata.obj
 0003:00000680       __acrt_initial_multibyte_data 0000000180032680     libucrt:mbctype.obj
 0003:00000bc0       _pwctype                   0000000180032bc0     libucrt:ctype.obj
 0003:00000bc8       __globallocalestatus       0000000180032bc8     libucrt:glstatus.obj
 0003:00000bd0       __acrt_lconv_c             0000000180032bd0     libucrt:localeconv.obj
 0003:00000c68       __acrt_lconv_static_decimal 0000000180032c68     libucrt:localeconv.obj
 0003:00000c6c       __acrt_lconv_static_W_decimal 0000000180032c6c     libucrt:localeconv.obj
 0003:00000c70       _lookuptrailbytes          0000000180032c70     libucrt:read.obj
 0003:00000d94       _fltused                   0000000180032d94     LIBCMT:fltused.obj
 0003:00000d98       ??_R0?AVbad_alloc@std@@@8  0000000180032d98     LIBCMT:throw_bad_alloc.obj
 0003:00000dc0       ??_R0?AVexception@std@@@8  0000000180032dc0     LIBCMT:throw_bad_alloc.obj
 0003:00000de8       ??_R0?AVbad_array_new_length@std@@@8 0000000180032de8     LIBCMT:throw_bad_alloc.obj
 0003:00000e18       ??_R0?AVtype_info@@@8      0000000180032e18     LIBCMT:std_type_info_static.obj
 0003:00000e38       ??_R0?AVbad_exception@std@@@8 0000000180032e38     libvcruntime:frame.obj
 0003:00000e60       ?_pPerfRegFunc@ATL@@3P6AJPEAUHINSTANCE__@@@ZEA 0000000180032e60     OposVariant.obj
 0003:00000e68       ?_pPerfUnRegFunc@ATL@@3P6AJXZEA 0000000180032e68     OposVariant.obj
 0003:00000e70       ?_AtlRegisterPerUser@ATL@@3_NA 0000000180032e70     OposVariant.obj
 0003:00000e78       ?_pAtlModule@ATL@@3PEAVCAtlModule@1@EA 0000000180032e78     OposVariant.obj
 0003:00000e80       ?_pModule@ATL@@3PEAVCComModule@1@EA 0000000180032e80     OposVariant.obj
 0003:00000e88       ?m_bInitFailed@CAtlBaseModule@ATL@@2_NA 0000000180032e88     OposVariant.obj
 0003:00000e90       ?_AtlComModule@ATL@@3VCAtlComModule@1@A 0000000180032e90     OposVariant.obj
 0003:00000ee0       ?_AtlWinModule@ATL@@3VCAtlWinModule@1@A 0000000180032ee0     OposVariant.obj
 0003:00000f28       ?m_libid@CAtlModule@ATL@@2U_GUID@@A 0000000180032f28     BillAcceptor.obj
 0003:00000f38       ?_entries@?1??GetConnMap@COPOSBillAcceptor@@SAPEBU_ATL_CONNMAP_ENTRY@ATL@@PEAH@Z@4QBU34@B 0000000180032f38     BillAcceptor.obj
 0003:00000f50       ?$TSS0@?1??GetConnMap@COPOSBillAcceptor@@SAPEBU_ATL_CONNMAP_ENTRY@ATL@@PEAH@Z@4HA 0000000180032f50     BillAcceptor.obj
 0003:00000f58       ?_OptionsStorage@?1??__local_stdio_printf_options@@9@4_KA 0000000180032f58     BillAcceptor.obj
 0003:00000f60       ?pfnRegDeleteKeyEx@?1??DeleteSubKey@CRegKey@ATL@@QEAAJPEB_W@Z@4P6AJPEAUHKEY__@@0KK@ZEA 0000000180032f60     BillAcceptor.obj
 0003:00000f68       ?bInitialized@?1??DeleteSubKey@CRegKey@ATL@@QEAAJPEB_W@Z@4_NA 0000000180032f68     BillAcceptor.obj
 0003:00000f70       ?_Module@@3VCComModule@ATL@@A 0000000180032f70     BillAcceptor.obj
 0003:00000fc0       ?pConnMap@?$IConnectionPointContainerImpl@VCOPOSBillAcceptor@@@ATL@@0PEBU_ATL_CONNMAP_ENTRY@2@EB 0000000180032fc0     BillAcceptor.obj
 0003:00000fc8       ?s_nInstances@COPOSBillAcceptor@@1HA 0000000180032fc8     BillAcceptorImpl.obj
 0003:00000fd0       __scrt_current_native_startup_state 0000000180032fd0     LIBCMT:utility.obj
 0003:00000fd8       __scrt_native_startup_lock 0000000180032fd8     LIBCMT:utility.obj
 0003:000015d0       _tls_index                 00000001800335d0     LIBCMT:tlssup.obj
 0003:000015d8       __favor                    00000001800335d8     LIBCMT:cpu_disp.obj
 0003:000015dc       __scrt_debugger_hook_flag  00000001800335dc     LIBCMT:utility_desktop.obj
 0003:000015e0       ?__type_info_root_node@@3U__type_info_node@@A 00000001800335e0     LIBCMT:tncleanup.obj
 0003:000015f0       ?_OptionsStorage@?1??__local_stdio_scanf_options@@9@4_KA 00000001800335f0     LIBCMT:default_local_stdio_options.obj
 0003:00001600       ?_AtlBaseModule@ATL@@3VCAtlBaseModule@1@A 0000000180033600     atls:atlbase.obj
 0003:00001660       ?__AtlThunkPool@@3PEAT_SLIST_HEADER@@EA 0000000180033660     atls:atlthunk.obj
 0003:0000168c       __@@_PchSym_@00@UzABUPdlipUGUhUrmgvinvwrzgvUexgllohUzgohOmzgrevkilqPBACIAJCBDBUlyqiUznwGEUhgwzucOlyq@4B2008FD98C1DD4 000000018003368c     atls:stdafx.obj
 0003:00001690       ?__WinRTOutOfMemoryExceptionCallback@@3P6APEAXXZEA 0000000180033690     libvcruntime:ehhelpers.obj
 0003:00001698       __pPurecall                0000000180033698     libvcruntime:purevirt_data.obj
 0003:00001750       ?pArgList@UnDecorator@@0PEAVReplicator@@EA 0000000180033750     libvcruntime:undname.obj
 0003:00001758       ?pZNameList@UnDecorator@@0PEAVReplicator@@EA 0000000180033758     libvcruntime:undname.obj
 0003:00001760       ?pTemplateArgList@UnDecorator@@0PEAVReplicator@@EA 0000000180033760     libvcruntime:undname.obj
 0003:00001768       ?gName@UnDecorator@@0PEBDEB 0000000180033768     libvcruntime:undname.obj
 0003:00001770       ?name@UnDecorator@@0PEBDEB 0000000180033770     libvcruntime:undname.obj
 0003:00001778       ?disableFlags@UnDecorator@@0KA 0000000180033778     libvcruntime:undname.obj
 0003:0000177c       ?fExplicitTemplateParams@UnDecorator@@0_NA 000000018003377c     libvcruntime:undname.obj
 0003:0000177d       ?fGetTemplateArgumentList@UnDecorator@@0_NA 000000018003377d     libvcruntime:undname.obj
 0003:00001780       ?m_pGetParameter@UnDecorator@@0P6APEADJ@ZEA 0000000180033780     libvcruntime:undname.obj
 0003:00001788       ?m_CHPENameOffset@UnDecorator@@0KA 0000000180033788     libvcruntime:undname.obj
 0003:0000178c       ?m_recursionLevel@UnDecorator@@0KA 000000018003378c     libvcruntime:undname.obj
 0003:00001810       ?c_exit_complete@?1???R<lambda_6e4b09c48022b2350581041d5f6b0c4c>@@QEBA@XZ@4_NA 0000000180033810     libucrt:exit.obj
 0003:00001928       _environ_table             0000000180033928     libucrt:environment_initialization.obj
 0003:00001930       _wenviron_table            0000000180033930     libucrt:environment_initialization.obj
 0003:00001938       __dcrt_initial_wide_environment 0000000180033938     libucrt:environment_initialization.obj
 0003:00001940       __dcrt_initial_narrow_environment 0000000180033940     libucrt:environment_initialization.obj
 0003:00001948       __acrt_atexit_table        0000000180033948     libucrt:onexit.obj
 0003:00001960       __acrt_at_quick_exit_table 0000000180033960     libucrt:onexit.obj
 0003:00001b38       _nstream                   0000000180033b38     libucrt:_file.obj
 0003:00001b40       __piob                     0000000180033b40     libucrt:_file.obj
 0003:00001b50       __acrt_stdout_buffer       0000000180033b50     libucrt:_sftbuf.obj
 0003:00001b58       __acrt_stderr_buffer       0000000180033b58     libucrt:_sftbuf.obj
 0003:00001b60       __acrt_locale_changed_data 0000000180033b60     libucrt:wsetlocale.obj
 0003:00001b68       __acrt_current_locale_data 0000000180033b68     libucrt:nlsdata.obj
 0003:00001b70       __pioinfo                  0000000180033b70     libucrt:ioinit.obj
 0003:00001f70       _nhandle                   0000000180033f70     libucrt:ioinit.obj
 0003:000021b8       _mbctype                   00000001800341b8     libucrt:mbctype.obj
 0003:000021c0       _mbcasemap                 00000001800341c0     libucrt:mbctype.obj
 0003:000021c8       __acrt_current_multibyte_data 00000001800341c8     libucrt:mbctype.obj
 0003:000021d8       _pgmptr                    00000001800341d8     libucrt:argv_data.obj
 0003:000021e0       __argc                     00000001800341e0     libucrt:argv_data.obj
 0003:000021e8       __argv                     00000001800341e8     libucrt:argv_data.obj
 0003:000021f0       __wargv                    00000001800341f0     libucrt:argv_data.obj
 0003:000021f8       _acmdln                    00000001800341f8     libucrt:argv_data.obj
 0003:00002200       _wcmdln                    0000000180034200     libucrt:argv_data.obj
 0003:00002208       __acrt_heap                0000000180034208     libucrt:heap_handle.obj
 0003:0000223c       __acrt_lconv_static_null   000000018003423c     libucrt:localeconv.obj
 0003:00002240       __acrt_lconv_static_W_null 0000000180034240     libucrt:localeconv.obj
 0003:00002254       __fma3_is_available        0000000180034254     libucrt:fma3_available.obj
 0003:00002258       __use_fma3_lib             0000000180034258     libucrt:fma3_available.obj
 0003:00002260       __dyn_tls_init_callback    0000000180034260     <common>
 0003:00002268       __scrt_ucrt_dll_is_in_use  0000000180034268     <common>

 entry point at        0001:0000edd4

 Static symbols

 0000:fffc2000       .debug$S                   0000000180000000     OPOSBillAcceptor.exp
 0000:fffc2000       .debug$S                   0000000180000000     advapi32:ADVAPI32.dll
 0000:fffc2000       .debug$S                   0000000180000000     advapi32:ADVAPI32.dll
 0000:fffc2000       .debug$S                   0000000180000000     advapi32:ADVAPI32.dll
 0000:fffc2000       .debug$S                   0000000180000000     advapi32:ADVAPI32.dll
 0000:fffc2000       .debug$S                   0000000180000000     advapi32:ADVAPI32.dll
 0000:fffc2000       .debug$S                   0000000180000000     advapi32:ADVAPI32.dll
 0000:fffc2000       .debug$S                   0000000180000000     advapi32:ADVAPI32.dll
 0000:fffc2000       .debug$S                   0000000180000000     advapi32:ADVAPI32.dll
 0000:fffc2000       .debug$S                   0000000180000000     advapi32:ADVAPI32.dll
 0000:fffc2000       .debug$S                   0000000180000000     gdi32:GDI32.dll
 0000:fffc2000       .debug$S                   0000000180000000     gdi32:GDI32.dll
 0000:fffc2000       .debug$S                   0000000180000000     gdi32:GDI32.dll
 0000:fffc2000       .debug$S                   0000000180000000     gdi32:GDI32.dll
 0000:fffc2000       .debug$S                   0000000180000000     gdi32:GDI32.dll
 0000:fffc2000       .debug$S                   0000000180000000     gdi32:GDI32.dll
 0000:fffc2000       .debug$S                   0000000180000000     gdi32:GDI32.dll
 0000:fffc2000       .debug$S                   0000000180000000     gdi32:GDI32.dll
 0000:fffc2000       .debug$S                   0000000180000000     gdi32:GDI32.dll
 0000:fffc2000       .debug$S                   0000000180000000     gdi32:GDI32.dll
 0000:fffc2000       .debug$S                   0000000180000000     gdi32:GDI32.dll
 0000:fffc2000       .debug$S                   0000000180000000     gdi32:GDI32.dll
 0000:fffc2000       .debug$S                   0000000180000000     gdi32:GDI32.dll
 0000:fffc2000       .debug$S                   0000000180000000     gdi32:GDI32.dll
 0000:fffc2000       .debug$S                   0000000180000000     gdi32:GDI32.dll
 0000:fffc2000       .debug$S                   0000000180000000     gdi32:GDI32.dll
 0000:fffc2000       .debug$S                   0000000180000000     gdi32:GDI32.dll
 0000:fffc2000       .debug$S                   0000000180000000     gdi32:GDI32.dll
 0000:fffc2000       .debug$S                   0000000180000000     gdi32:GDI32.dll
 0000:fffc2000       .debug$S                   0000000180000000     kernel32:KERNEL32.dll
 0000:fffc2000       .debug$S                   0000000180000000     kernel32:KERNEL32.dll
 0000:fffc2000       .debug$S                   0000000180000000     kernel32:KERNEL32.dll
 0000:fffc2000       .debug$S                   0000000180000000     kernel32:KERNEL32.dll
 0000:fffc2000       .debug$S                   0000000180000000     kernel32:KERNEL32.dll
 0000:fffc2000       .debug$S                   0000000180000000     kernel32:KERNEL32.dll
 0000:fffc2000       .debug$S                   0000000180000000     kernel32:KERNEL32.dll
 0000:fffc2000       .debug$S                   0000000180000000     kernel32:KERNEL32.dll
 0000:fffc2000       .debug$S                   0000000180000000     kernel32:KERNEL32.dll
 0000:fffc2000       .debug$S                   0000000180000000     kernel32:KERNEL32.dll
 0000:fffc2000       .debug$S                   0000000180000000     kernel32:KERNEL32.dll
 0000:fffc2000       .debug$S                   0000000180000000     kernel32:KERNEL32.dll
 0000:fffc2000       .debug$S                   0000000180000000     kernel32:KERNEL32.dll
 0000:fffc2000       .debug$S                   0000000180000000     kernel32:KERNEL32.dll
 0000:fffc2000       .debug$S                   0000000180000000     kernel32:KERNEL32.dll
 0000:fffc2000       .debug$S                   0000000180000000     kernel32:KERNEL32.dll
 0000:fffc2000       .debug$S                   0000000180000000     kernel32:KERNEL32.dll
 0000:fffc2000       .debug$S                   0000000180000000     kernel32:KERNEL32.dll
 0000:fffc2000       .debug$S                   0000000180000000     kernel32:KERNEL32.dll
 0000:fffc2000       .debug$S                   0000000180000000     kernel32:KERNEL32.dll
 0000:fffc2000       .debug$S                   0000000180000000     kernel32:KERNEL32.dll
 0000:fffc2000       .debug$S                   0000000180000000     kernel32:KERNEL32.dll
 0000:fffc2000       .debug$S                   0000000180000000     kernel32:KERNEL32.dll
 0000:fffc2000       .debug$S                   0000000180000000     kernel32:KERNEL32.dll
 0000:fffc2000       .debug$S                   0000000180000000     kernel32:KERNEL32.dll
 0000:fffc2000       .debug$S                   0000000180000000     kernel32:KERNEL32.dll
 0000:fffc2000       .debug$S                   0000000180000000     kernel32:KERNEL32.dll
 0000:fffc2000       .debug$S                   0000000180000000     kernel32:KERNEL32.dll
 0000:fffc2000       .debug$S                   0000000180000000     kernel32:KERNEL32.dll
 0000:fffc2000       .debug$S                   0000000180000000     kernel32:KERNEL32.dll
 0000:fffc2000       .debug$S                   0000000180000000     kernel32:KERNEL32.dll
 0000:fffc2000       .debug$S                   0000000180000000     kernel32:KERNEL32.dll
 0000:fffc2000       .debug$S                   0000000180000000     kernel32:KERNEL32.dll
 0000:fffc2000       .debug$S                   0000000180000000     kernel32:KERNEL32.dll
 0000:fffc2000       .debug$S                   0000000180000000     kernel32:KERNEL32.dll
 0000:fffc2000       .debug$S                   0000000180000000     kernel32:KERNEL32.dll
 0000:fffc2000       .debug$S                   0000000180000000     kernel32:KERNEL32.dll
 0000:fffc2000       .debug$S                   0000000180000000     kernel32:KERNEL32.dll
 0000:fffc2000       .debug$S                   0000000180000000     kernel32:KERNEL32.dll
 0000:fffc2000       .debug$S                   0000000180000000     kernel32:KERNEL32.dll
 0000:fffc2000       .debug$S                   0000000180000000     kernel32:KERNEL32.dll
 0000:fffc2000       .debug$S                   0000000180000000     kernel32:KERNEL32.dll
 0000:fffc2000       .debug$S                   0000000180000000     kernel32:KERNEL32.dll
 0000:fffc2000       .debug$S                   0000000180000000     kernel32:KERNEL32.dll
 0000:fffc2000       .debug$S                   0000000180000000     kernel32:KERNEL32.dll
 0000:fffc2000       .debug$S                   0000000180000000     kernel32:KERNEL32.dll
 0000:fffc2000       .debug$S                   0000000180000000     kernel32:KERNEL32.dll
 0000:fffc2000       .debug$S                   0000000180000000     kernel32:KERNEL32.dll
 0000:fffc2000       .debug$S                   0000000180000000     kernel32:KERNEL32.dll
 0000:fffc2000       .debug$S                   0000000180000000     kernel32:KERNEL32.dll
 0000:fffc2000       .debug$S                   0000000180000000     kernel32:KERNEL32.dll
 0000:fffc2000       .debug$S                   0000000180000000     kernel32:KERNEL32.dll
 0000:fffc2000       .debug$S                   0000000180000000     kernel32:KERNEL32.dll
 0000:fffc2000       .debug$S                   0000000180000000     kernel32:KERNEL32.dll
 0000:fffc2000       .debug$S                   0000000180000000     kernel32:KERNEL32.dll
 0000:fffc2000       .debug$S                   0000000180000000     kernel32:KERNEL32.dll
 0000:fffc2000       .debug$S                   0000000180000000     kernel32:KERNEL32.dll
 0000:fffc2000       .debug$S                   0000000180000000     kernel32:KERNEL32.dll
 0000:fffc2000       .debug$S                   0000000180000000     kernel32:KERNEL32.dll
 0000:fffc2000       .debug$S                   0000000180000000     kernel32:KERNEL32.dll
 0000:fffc2000       .debug$S                   0000000180000000     kernel32:KERNEL32.dll
 0000:fffc2000       .debug$S                   0000000180000000     kernel32:KERNEL32.dll
 0000:fffc2000       .debug$S                   0000000180000000     kernel32:KERNEL32.dll
 0000:fffc2000       .debug$S                   0000000180000000     kernel32:KERNEL32.dll
 0000:fffc2000       .debug$S                   0000000180000000     kernel32:KERNEL32.dll
 0000:fffc2000       .debug$S                   0000000180000000     kernel32:KERNEL32.dll
 0000:fffc2000       .debug$S                   0000000180000000     kernel32:KERNEL32.dll
 0000:fffc2000       .debug$S                   0000000180000000     kernel32:KERNEL32.dll
 0000:fffc2000       .debug$S                   0000000180000000     kernel32:KERNEL32.dll
 0000:fffc2000       .debug$S                   0000000180000000     kernel32:KERNEL32.dll
 0000:fffc2000       .debug$S                   0000000180000000     kernel32:KERNEL32.dll
 0000:fffc2000       .debug$S                   0000000180000000     kernel32:KERNEL32.dll
 0000:fffc2000       .debug$S                   0000000180000000     kernel32:KERNEL32.dll
 0000:fffc2000       .debug$S                   0000000180000000     kernel32:KERNEL32.dll
 0000:fffc2000       .debug$S                   0000000180000000     kernel32:KERNEL32.dll
 0000:fffc2000       .debug$S                   0000000180000000     kernel32:KERNEL32.dll
 0000:fffc2000       .debug$S                   0000000180000000     kernel32:KERNEL32.dll
 0000:fffc2000       .debug$S                   0000000180000000     kernel32:KERNEL32.dll
 0000:fffc2000       .debug$S                   0000000180000000     kernel32:KERNEL32.dll
 0000:fffc2000       .debug$S                   0000000180000000     kernel32:KERNEL32.dll
 0000:fffc2000       .debug$S                   0000000180000000     kernel32:KERNEL32.dll
 0000:fffc2000       .debug$S                   0000000180000000     kernel32:KERNEL32.dll
 0000:fffc2000       .debug$S                   0000000180000000     kernel32:KERNEL32.dll
 0000:fffc2000       .debug$S                   0000000180000000     kernel32:KERNEL32.dll
 0000:fffc2000       .debug$S                   0000000180000000     kernel32:KERNEL32.dll
 0000:fffc2000       .debug$S                   0000000180000000     kernel32:KERNEL32.dll
 0000:fffc2000       .debug$S                   0000000180000000     kernel32:KERNEL32.dll
 0000:fffc2000       .debug$S                   0000000180000000     kernel32:KERNEL32.dll
 0000:fffc2000       .debug$S                   0000000180000000     kernel32:KERNEL32.dll
 0000:fffc2000       .debug$S                   0000000180000000     kernel32:KERNEL32.dll
 0000:fffc2000       .debug$S                   0000000180000000     kernel32:KERNEL32.dll
 0000:fffc2000       .debug$S                   0000000180000000     kernel32:KERNEL32.dll
 0000:fffc2000       .debug$S                   0000000180000000     kernel32:KERNEL32.dll
 0000:fffc2000       .debug$S                   0000000180000000     kernel32:KERNEL32.dll
 0000:fffc2000       .debug$S                   0000000180000000     kernel32:KERNEL32.dll
 0000:fffc2000       .debug$S                   0000000180000000     kernel32:KERNEL32.dll
 0000:fffc2000       .debug$S                   0000000180000000     kernel32:KERNEL32.dll
 0000:fffc2000       .debug$S                   0000000180000000     kernel32:KERNEL32.dll
 0000:fffc2000       .debug$S                   0000000180000000     kernel32:KERNEL32.dll
 0000:fffc2000       .debug$S                   0000000180000000     kernel32:KERNEL32.dll
 0000:fffc2000       .debug$S                   0000000180000000     kernel32:KERNEL32.dll
 0000:fffc2000       .debug$S                   0000000180000000     kernel32:KERNEL32.dll
 0000:fffc2000       .debug$S                   0000000180000000     kernel32:KERNEL32.dll
 0000:fffc2000       .debug$S                   0000000180000000     kernel32:KERNEL32.dll
 0000:fffc2000       .debug$S                   0000000180000000     kernel32:KERNEL32.dll
 0000:fffc2000       .debug$S                   0000000180000000     kernel32:KERNEL32.dll
 0000:fffc2000       .debug$S                   0000000180000000     kernel32:KERNEL32.dll
 0000:fffc2000       .debug$S                   0000000180000000     kernel32:KERNEL32.dll
 0000:fffc2000       .debug$S                   0000000180000000     kernel32:KERNEL32.dll
 0000:fffc2000       .debug$S                   0000000180000000     kernel32:KERNEL32.dll
 0000:fffc2000       .debug$S                   0000000180000000     kernel32:KERNEL32.dll
 0000:fffc2000       .debug$S                   0000000180000000     ole32:ole32.dll
 0000:fffc2000       .debug$S                   0000000180000000     ole32:ole32.dll
 0000:fffc2000       .debug$S                   0000000180000000     ole32:ole32.dll
 0000:fffc2000       .debug$S                   0000000180000000     ole32:ole32.dll
 0000:fffc2000       .debug$S                   0000000180000000     ole32:ole32.dll
 0000:fffc2000       .debug$S                   0000000180000000     ole32:ole32.dll
 0000:fffc2000       .debug$S                   0000000180000000     ole32:ole32.dll
 0000:fffc2000       .debug$S                   0000000180000000     ole32:ole32.dll
 0000:fffc2000       .debug$S                   0000000180000000     ole32:ole32.dll
 0000:fffc2000       .debug$S                   0000000180000000     ole32:ole32.dll
 0000:fffc2000       .debug$S                   0000000180000000     ole32:ole32.dll
 0000:fffc2000       .debug$S                   0000000180000000     ole32:ole32.dll
 0000:fffc2000       .debug$S                   0000000180000000     ole32:ole32.dll
 0000:fffc2000       .debug$S                   0000000180000000     ole32:ole32.dll
 0000:fffc2000       .debug$S                   0000000180000000     oleaut32:OLEAUT32.dll
 0000:fffc2000       .debug$S                   0000000180000000     oleaut32:OLEAUT32.dll
 0000:fffc2000       .debug$S                   0000000180000000     oleaut32:OLEAUT32.dll
 0000:fffc2000       .debug$S                   0000000180000000     oleaut32:OLEAUT32.dll
 0000:fffc2000       .debug$S                   0000000180000000     oleaut32:OLEAUT32.dll
 0000:fffc2000       .debug$S                   0000000180000000     oleaut32:OLEAUT32.dll
 0000:fffc2000       .debug$S                   0000000180000000     oleaut32:OLEAUT32.dll
 0000:fffc2000       .debug$S                   0000000180000000     oleaut32:OLEAUT32.dll
 0000:fffc2000       .debug$S                   0000000180000000     oleaut32:OLEAUT32.dll
 0000:fffc2000       .debug$S                   0000000180000000     oleaut32:OLEAUT32.dll
 0000:fffc2000       .debug$S                   0000000180000000     oleaut32:OLEAUT32.dll
 0000:fffc2000       .debug$S                   0000000180000000     oleaut32:OLEAUT32.dll
 0000:fffc2000       .debug$S                   0000000180000000     oleaut32:OLEAUT32.dll
 0000:fffc2000       .debug$S                   0000000180000000     oleaut32:OLEAUT32.dll
 0000:fffc2000       .debug$S                   0000000180000000     oleaut32:OLEAUT32.dll
 0000:fffc2000       .debug$S                   0000000180000000     oleaut32:OLEAUT32.dll
 0000:fffc2000       .debug$S                   0000000180000000     user32:USER32.dll
 0000:fffc2000       .debug$S                   0000000180000000     user32:USER32.dll
 0000:fffc2000       .debug$S                   0000000180000000     user32:USER32.dll
 0000:fffc2000       .debug$S                   0000000180000000     user32:USER32.dll
 0000:fffc2000       .debug$S                   0000000180000000     user32:USER32.dll
 0000:fffc2000       .debug$S                   0000000180000000     user32:USER32.dll
 0000:fffc2000       .debug$S                   0000000180000000     user32:USER32.dll
 0000:fffc2000       .debug$S                   0000000180000000     user32:USER32.dll
 0000:fffc2000       .debug$S                   0000000180000000     user32:USER32.dll
 0000:fffc2000       .debug$S                   0000000180000000     user32:USER32.dll
 0000:fffc2000       .debug$S                   0000000180000000     user32:USER32.dll
 0000:fffc2000       .debug$S                   0000000180000000     user32:USER32.dll
 0000:fffc2000       .debug$S                   0000000180000000     user32:USER32.dll
 0000:fffc2000       .debug$S                   0000000180000000     user32:USER32.dll
 0000:fffc2000       .debug$S                   0000000180000000     user32:USER32.dll
 0000:fffc2000       .debug$S                   0000000180000000     user32:USER32.dll
 0000:fffc2000       .debug$S                   0000000180000000     user32:USER32.dll
 0000:fffc2000       .debug$S                   0000000180000000     user32:USER32.dll
 0000:fffc2000       .debug$S                   0000000180000000     user32:USER32.dll
 0000:fffc2000       .debug$S                   0000000180000000     user32:USER32.dll
 0000:fffc2000       .debug$S                   0000000180000000     user32:USER32.dll
 0000:fffc2000       .debug$S                   0000000180000000     user32:USER32.dll
 0000:fffc2000       .debug$S                   0000000180000000     user32:USER32.dll
 0000:fffc2000       .debug$S                   0000000180000000     user32:USER32.dll
 0000:fffc2000       .debug$S                   0000000180000000     user32:USER32.dll
 0000:fffc2000       .debug$S                   0000000180000000     user32:USER32.dll
 0000:fffc2000       .debug$S                   0000000180000000     user32:USER32.dll
 0000:fffc2000       .debug$S                   0000000180000000     user32:USER32.dll
 0000:fffc2000       .debug$S                   0000000180000000     user32:USER32.dll
 0000:fffc2000       .debug$S                   0000000180000000     user32:USER32.dll
 0000:fffc2000       .debug$S                   0000000180000000     user32:USER32.dll
 0000:fffc2000       .debug$S                   0000000180000000     user32:USER32.dll
 0000:fffc2000       .debug$S                   0000000180000000     user32:USER32.dll
 0000:fffc2000       .debug$S                   0000000180000000     user32:USER32.dll
 0000:fffc2000       .debug$S                   0000000180000000     user32:USER32.dll
 0001:00000000       ??__E_AtlComModule@ATL@@YAXXZ 0000000180001000 f   OposVariant.obj
 0001:00000020       ??__E_AtlWinModule@ATL@@YAXXZ 0000000180001020 f   OposVariant.obj
 0001:00000040       ??__E?pConnMap@?$IConnectionPointContainerImpl@VCOPOSBillAcceptor@@@ATL@@0PEBU_ATL_CONNMAP_ENTRY@2@EB@@YAXXZ 0000000180001040 f   BillAcceptor.obj
 0001:00000058       ??__E_Module@@YAXXZ        0000000180001058 f   BillAcceptor.obj
 0001:00000094       ??__E_AtlBaseModule@ATL@@YAXXZ 0000000180001094 f   atls:atlbase.obj
 0001:0000e3e8       ?__scrt_initialize_thread_safe_statics@@YAHXZ 000000018000f3e8 f   LIBCMT:thread_safe_statics.obj
 0001:0000e4b8       ?__scrt_uninitialize_thread_safe_statics@@YAXXZ 000000018000f4b8 f   LIBCMT:thread_safe_statics.obj
 0001:0000e808       capture_current_context    000000018000f808 f   LIBCMT:gs_report.obj
 0001:0000e878       capture_previous_context   000000018000f878 f   LIBCMT:gs_report.obj
 0001:0000ea10       $$000000                   000000018000fa10     LIBCMT:chkstk.obj
 0001:0000ea80       $$000000                   000000018000fa80     LIBCMT:amdsecgs.obj
 0001:0000eab4       ?dllmain_crt_dispatch@@YAHQEAUHINSTANCE__@@KQEAX@Z 000000018000fab4 f   LIBCMT:dll_dllmain.obj
 0001:0000eb04       ?dllmain_crt_process_attach@@YAHQEAUHINSTANCE__@@QEAX@Z 000000018000fb04 f   LIBCMT:dll_dllmain.obj
 0001:0000ec1c       ?dllmain_crt_process_detach@@YAH_N@Z 000000018000fc1c f   LIBCMT:dll_dllmain.obj
 0001:0000eca0       ?dllmain_dispatch@@YAHQEAUHINSTANCE__@@KQEAX@Z 000000018000fca0 f   LIBCMT:dll_dllmain.obj
 0001:0000f568       ??$GetProcAddressAll@P6AP6A_JPEAUHWND__@@I_K_J@ZPEAUAtlThunkData_t@@@Z@@YAP6AP6A_JPEAUHWND__@@I_K_J@ZPEAUAtlThunkData_t@@@ZPEAP6AP6A_J0I12@Z3@Z@Z 0000000180010568 f   atls:atlthunk.obj
 0001:0000f568       ??$GetProcAddressAll@P6APEAUAtlThunkData_t@@XZ@@YAP6APEAUAtlThunkData_t@@XZPEAP6APEAU0@XZ@Z 0000000180010568 f   atls:atlthunk.obj
 0001:0000f568       ??$GetProcAddressAll@P6AXPEAUAtlThunkData_t@@@Z@@YAP6AXPEAUAtlThunkData_t@@@ZPEAP6AX0@Z@Z 0000000180010568 f   atls:atlthunk.obj
 0001:0000f568       ??$GetProcAddressAll@P6AXPEAUAtlThunkData_t@@PEAX_K@Z@@YAP6AXPEAUAtlThunkData_t@@PEAX_K@ZPEAP6AX012@Z@Z 0000000180010568 f   atls:atlthunk.obj
 0001:0000f740       ?__InitializeThunkPool@@YAHXZ 0000000180010740 f   atls:atlthunk.obj
 0001:0000fbe0       $$000000                   0000000180010be0     libvcruntime:memcmp.obj
 0001:0000fcc0       $$000000                   0000000180010cc0     libvcruntime:memcpy.obj
 0001:000100d0       $$000000                   00000001800110d0     libvcruntime:memset.obj
 0001:000111e0       $$000000                   00000001800121e0     libvcruntime:notify.obj
 0001:0001134c       ??$BuildCatchObjectHelperInternal@V__FrameHandler4@@@@YAHPEAUEHExceptionRecord@@PEAXPEAUHandlerType4@FH4@@PEBU_s_CatchableType@@@Z 000000018001234c f   libvcruntime:frame.obj
 0001:00011550       ??$BuildCatchObjectInternal@V__FrameHandler4@@@@YAXPEAUEHExceptionRecord@@PEAXPEAUHandlerType4@FH4@@PEBU_s_CatchableType@@@Z 0000000180012550 f   libvcruntime:frame.obj
 0001:00011614       ??$CatchIt@V__FrameHandler4@@@@YAXPEAUEHExceptionRecord@@PEA_KPEAU_CONTEXT@@PEAU_xDISPATCHER_CONTEXT@@PEAUFuncInfo4@FH4@@PEAUHandlerType4@4@PEBU_s_CatchableType@@PEAUTryBlockMapEntry4@4@H1EE@Z 0000000180012614 f   libvcruntime:frame.obj
 0001:000116e8       ??$FindHandler@V__FrameHandler4@@@@YAXPEAUEHExceptionRecord@@PEA_KPEAU_CONTEXT@@PEAU_xDISPATCHER_CONTEXT@@PEAUFuncInfo4@FH4@@EH1@Z 00000001800126e8 f   libvcruntime:frame.obj
 0001:00011bf8       ??$FindHandlerForForeignException@V__FrameHandler4@@@@YAXPEAUEHExceptionRecord@@PEA_KPEAU_CONTEXT@@PEAU_xDISPATCHER_CONTEXT@@PEAUFuncInfo4@FH4@@HH1@Z 0000000180012bf8 f   libvcruntime:frame.obj
 0001:00012988       ?ExFilterRethrow@@YAHPEAU_EXCEPTION_POINTERS@@PEAUEHExceptionRecord@@PEAH@Z 0000000180013988 f   libvcruntime:frame.obj
 0001:00012a10       ?ExFilterRethrowFH4@@YAHPEAU_EXCEPTION_POINTERS@@PEAUEHExceptionRecord@@HPEAH@Z 0000000180013a10 f   libvcruntime:frame.obj
 0001:00012d28       ?IsInExceptionSpec@@YAEPEAUEHExceptionRecord@@PEBU_s_ESTypeList@@@Z 0000000180013d28 f   libvcruntime:frame.obj
 0001:00012e14       ?Is_bad_exception_allowed@@YAEPEBU_s_ESTypeList@@@Z 0000000180013e14 f   libvcruntime:frame.obj
 0001:000130f0       ?try_get_function@@YAPEAXW4function_id@?A0x5302d918@@QEBDQEBW4module_id@2@2@Z 00000001800140f0 f   libvcruntime:winapi_downlevel.obj
 0001:000133d0       $$000000                   00000001800143d0     libvcruntime:handlers.obj
 0001:00013be8       ??$common_vsprintf@Vformat_validation_base@__crt_stdio_output@@_W@@YAH_KQEA_W0QEB_WQEAU__crt_locale_pointers@@QEAD@Z 0000000180014be8 f   libucrt:output.obj
 0001:00014a88       $LN17                      0000000180015a88     libucrt:output.obj
 0001:0001542c       ??$?RV<lambda_d80eeec6fff315bfe5c115232f3240e3>@@AEAV<lambda_6e4b09c48022b2350581041d5f6b0c4c>@@V<lambda_2358e3775559c9db80273638284d5e45>@@@?$__crt_seh_guarded_call@X@@QEAAX$$QEAV<lambda_d80eeec6fff315bfe5c115232f3240e3>@@AEAV<lambda_6e4b09c48022b2350581041d5f6b0c4c>@@$$QEAV<lambda_2358e3775559c9db80273638284d5e45>@@@Z 000000018001642c f   libucrt:exit.obj
 0001:00015464       ??R<lambda_6e4b09c48022b2350581041d5f6b0c4c>@@QEBA@XZ 0000000180016464 f   libucrt:exit.obj
 0001:00015528       ?atexit_exception_filter@@YAHK@Z 0000000180016528 f   libucrt:exit.obj
 0001:00015534       ?common_exit@@YAXHW4_crt_exit_cleanup_mode@@W4_crt_exit_return_mode@@@Z 0000000180016534 f   libucrt:exit.obj
 0001:000155f0       ?exit_or_terminate_process@@YAXI@Z 00000001800165f0 f   libucrt:exit.obj
 0001:0001563c       ?try_cor_exit_process@@YAXI@Z 000000018001663c f   libucrt:exit.obj
 0001:000156c4       ??$parse_command_line@D@@YAXPEADPEAPEAD0PEA_K2@Z 00000001800166c4 f   libucrt:argv_parsing.obj
 0001:00015a6c       ??$common_initialize_environment_nolock@D@@YAHXZ 0000000180016a6c f   libucrt:environment_initialization.obj
 0001:00015ad8       ??$create_environment@D@@YAQEAPEADQEAD@Z 0000000180016ad8 f   libucrt:environment_initialization.obj
 0001:00015be0       ??$free_environment@D@@YAXQEAPEAD@Z 0000000180016be0 f   libucrt:environment_initialization.obj
 0001:00015be0       ??$free_environment@_W@@YAXQEAPEA_W@Z 0000000180016be0 f   libucrt:environment_initialization.obj
 0001:00015c24       ??$uninitialize_environment_internal@D@@YAXAEAPEAPEAD@Z 0000000180016c24 f   libucrt:environment_initialization.obj
 0001:00015c40       ??$uninitialize_environment_internal@_W@@YAXAEAPEAPEA_W@Z 0000000180016c40 f   libucrt:environment_initialization.obj
 0001:00015c9c       ??$?RV<lambda_638799b9deba96c50f710eeac98168cd>@@AEAV<lambda_22ebabd17bc4fa466a2aca6d8deb888d>@@V<lambda_a6f7d7db0129f75315ebf26d50c089f1>@@@?$__crt_seh_guarded_call@H@@QEAAH$$QEAV<lambda_638799b9deba96c50f710eeac98168cd>@@AEAV<lambda_22ebabd17bc4fa466a2aca6d8deb888d>@@$$QEAV<lambda_a6f7d7db0129f75315ebf26d50c089f1>@@@Z 0000000180016c9c f   libucrt:onexit.obj
 0001:00015cd8       ??$?RV<lambda_7777bce6b2f8c936911f934f8298dc43>@@AEAV<lambda_f03950bc5685219e0bcd2087efbe011e>@@V<lambda_3883c3dff614d5e0c5f61bb1ac94921c>@@@?$__crt_seh_guarded_call@H@@QEAAH$$QEAV<lambda_7777bce6b2f8c936911f934f8298dc43>@@AEAV<lambda_f03950bc5685219e0bcd2087efbe011e>@@$$QEAV<lambda_3883c3dff614d5e0c5f61bb1ac94921c>@@@Z 0000000180016cd8 f   libucrt:onexit.obj
 0001:00015d14       ??R<lambda_22ebabd17bc4fa466a2aca6d8deb888d>@@QEBAHXZ 0000000180016d14 f   libucrt:onexit.obj
 0001:00015ec4       ??R<lambda_f03950bc5685219e0bcd2087efbe011e>@@QEBAHXZ 0000000180016ec4 f   libucrt:onexit.obj
 0001:00016098       initialize_global_variables 0000000180017098 f   libucrt:initialization.obj
 0001:000160ac       initialize_c               00000001800170ac f   libucrt:initialization.obj
 0001:000160d0       initialize_environment     00000001800170d0 f   libucrt:initialization.obj
 0001:000160d0       initialize_global_state_isolation 00000001800170d0 f   libucrt:initialization.obj
 0001:000160d0       report_memory_leaks        00000001800170d0 f   libucrt:initialization.obj
 0001:000160d0       uninitialize_c             00000001800170d0 f   libucrt:initialization.obj
 0001:000160d0       uninitialize_global_state_isolation 00000001800170d0 f   libucrt:initialization.obj
 0001:000160d4       uninitialize_environment   00000001800170d4 f   libucrt:initialization.obj
 0001:000160e4       initialize_pointers        00000001800170e4 f   libucrt:initialization.obj
 0001:00016124       uninitialize_vcruntime     0000000180017124 f   libucrt:initialization.obj
 0001:0001612c       uninitialize_allocated_memory 000000018001712c f   libucrt:initialization.obj
 0001:0001616c       uninitialize_allocated_io_buffers 000000018001716c f   libucrt:initialization.obj
 0001:00016ae0       $$000000                   0000000180017ae0     libucrt:strncmp.obj
 0001:00016bdc       ??$?RV<lambda_0ae27a3a962d80f24befdcbee591983d>@@AEAV<lambda_8d0ee55de4b1038c4002e0adecdf1839>@@V<lambda_dc504788e8f1664fe9b84e20bfb512f2>@@@?$__crt_seh_guarded_call@X@@QEAAX$$QEAV<lambda_0ae27a3a962d80f24befdcbee591983d>@@AEAV<lambda_8d0ee55de4b1038c4002e0adecdf1839>@@$$QEAV<lambda_dc504788e8f1664fe9b84e20bfb512f2>@@@Z 0000000180017bdc f   libucrt:per_thread_data.obj
 0001:00016c1c       ??$?RV<lambda_2d41944a1d46af3157314b8a01080d33>@@AEAV<lambda_8f455de75cd7d7f24b4096f044d8b9e6>@@V<lambda_aa500f224e6afead328df44964fe2772>@@@?$__crt_seh_guarded_call@X@@QEAAX$$QEAV<lambda_2d41944a1d46af3157314b8a01080d33>@@AEAV<lambda_8f455de75cd7d7f24b4096f044d8b9e6>@@$$QEAV<lambda_aa500f224e6afead328df44964fe2772>@@@Z 0000000180017c1c f   libucrt:per_thread_data.obj
 0001:00016c5c       ??$?RV<lambda_aa87e3671a710a21b5dc78c0bdf72e11>@@AEAV<lambda_92619d2358a28f41a33ba319515a20b9>@@V<lambda_6992ecaafeb10aed2b74cb1fae11a551>@@@?$__crt_seh_guarded_call@X@@QEAAX$$QEAV<lambda_aa87e3671a710a21b5dc78c0bdf72e11>@@AEAV<lambda_92619d2358a28f41a33ba319515a20b9>@@$$QEAV<lambda_6992ecaafeb10aed2b74cb1fae11a551>@@@Z 0000000180017c5c f   libucrt:per_thread_data.obj
 0001:00016ca4       ??$?RV<lambda_f2e299630e499de9f9a165e60fcd3db5>@@AEAV<lambda_2ae9d31cdba2644fcbeaf08da7c24588>@@V<lambda_40d01ff24d0e7b3814fdbdcee8eab3c7>@@@?$__crt_seh_guarded_call@X@@QEAAX$$QEAV<lambda_f2e299630e499de9f9a165e60fcd3db5>@@AEAV<lambda_2ae9d31cdba2644fcbeaf08da7c24588>@@$$QEAV<lambda_40d01ff24d0e7b3814fdbdcee8eab3c7>@@@Z 0000000180017ca4 f   libucrt:per_thread_data.obj
 0001:00016d04       ?construct_ptd_array@@YAXQEAU__acrt_ptd@@@Z 0000000180017d04 f   libucrt:per_thread_data.obj
 0001:00016dd4       ?destroy_fls@@YAXPEAX@Z    0000000180017dd4 f   libucrt:per_thread_data.obj
 0001:00016df4       ?destroy_ptd_array@@YAXQEAU__acrt_ptd@@@Z 0000000180017df4 f   libucrt:per_thread_data.obj
 0001:00016eec       ?replace_current_thread_locale_nolock@@YAXQEAU__acrt_ptd@@QEAU__crt_locale_data@@@Z 0000000180017eec f   libucrt:per_thread_data.obj
 0001:000173d0       ?try_get_function@@YAPEAXW4function_id@?A0x391cf84c@@QEBDQEBW4module_id@2@2@Z 00000001800183d0 f   libucrt:winapi_thunks.obj
 0001:00017da0       ?fp_format_a@@YAHQEBNPEAD_KQEAD2H_NIQEAU__crt_locale_pointers@@W4__acrt_rounding_mode@@@Z 0000000180018da0 f   libucrt:cvt.obj
 0001:00018120       ?fp_format_e@@YAHQEBNQEAD_K12H_NIQEAU__crt_locale_pointers@@W4__acrt_rounding_mode@@@Z 0000000180019120 f   libucrt:cvt.obj
 0001:00018210       ?fp_format_e_internal@@YAHQEAD_KH_NIQEAU_strflt@@2QEAU__crt_locale_pointers@@@Z 0000000180019210 f   libucrt:cvt.obj
 0001:000183e4       ?fp_format_f_internal@@YAHQEAD_KHQEAU_strflt@@_NQEAU__crt_locale_pointers@@@Z 00000001800193e4 f   libucrt:cvt.obj
 0001:0001854c       ?fp_format_g@@YAHQEBNQEAD_K12H_NIQEAU__crt_locale_pointers@@@Z 000000018001954c f   libucrt:cvt.obj
 0001:0001868c       ?should_round_up@@YA_NQEBN_KFW4__acrt_rounding_mode@@@Z 000000018001968c f   libucrt:cvt.obj
 0001:00018cb0       ??$?RV<lambda_410d79af7f07d98d83a3f525b3859a53>@@AEAV<lambda_3e16ef9562a7dcce91392c22ab16ea36>@@V<lambda_38119f0e861e05405d8a144b9b982f0a>@@@?$__crt_seh_guarded_call@X@@QEAAX$$QEAV<lambda_410d79af7f07d98d83a3f525b3859a53>@@AEAV<lambda_3e16ef9562a7dcce91392c22ab16ea36>@@$$QEAV<lambda_38119f0e861e05405d8a144b9b982f0a>@@@Z 0000000180019cb0 f   libucrt:wsetlocale.obj
 0001:00018d5c       ?initialize_inherited_file_handles_nolock@@YAXXZ 0000000180019d5c f   libucrt:ioinit.obj
 0001:00018e4c       ?initialize_stdio_handles_nolock@@YAXXZ 0000000180019e4c f   libucrt:ioinit.obj
 0001:000190c8       ?<lambda_invoker_cdecl>@<lambda_a1ce4c8ae42411fd470c77163914f50e>@@CAHPEBX0@Z 000000018001a0c8 f   libucrt:argv_wildcards.obj
 0001:000193e0       ??$common_expand_argv_wildcards@D@@YAHQEAPEADQEAPEAPEAD@Z 000000018001a3e0 f   libucrt:argv_wildcards.obj
 0001:000195ec       ??$copy_and_add_argument_to_buffer@D@@YAHQEBD0_KAEAV?$argument_list@D@?A0x5f5c8891@@@Z 000000018001a5ec f   libucrt:argv_wildcards.obj
 0001:00019774       ??$expand_argument_wildcards@D@@YAHQEAD0AEAV?$argument_list@D@?A0x5f5c8891@@@Z 000000018001a774 f   libucrt:argv_wildcards.obj
 0001:00019cc0       ??$?RV<lambda_efdfa57d1f175319df784efa44bb7b81>@@AEAV<lambda_5f0a4c1567f8adc6734073e5d1e1b35c>@@V<lambda_2e8a7d3640ea6ccb4c2413664c2db6fd>@@@?$__crt_seh_guarded_call@X@@QEAAX$$QEAV<lambda_efdfa57d1f175319df784efa44bb7b81>@@AEAV<lambda_5f0a4c1567f8adc6734073e5d1e1b35c>@@$$QEAV<lambda_2e8a7d3640ea6ccb4c2413664c2db6fd>@@@Z 000000018001acc0 f   libucrt:mbctype.obj
 0001:00019e7c       ?getSystemCP@@YAHH@Z       000000018001ae7c f   libucrt:mbctype.obj
 0001:00019efc       ?setSBCS@@YAXPEAU__crt_multibyte_data@@@Z 000000018001aefc f   libucrt:mbctype.obj
 0001:00019f8c       ?setSBUpLow@@YAXPEAU__crt_multibyte_data@@@Z 000000018001af8c f   libucrt:mbctype.obj
 0001:0001a170       ?setmbcp_internal@@YAHH_NQEAU__acrt_ptd@@QEAPEAU__crt_multibyte_data@@@Z 000000018001b170 f   libucrt:mbctype.obj
 0001:0001a330       ?update_thread_multibyte_data_internal@@YAPEAU__crt_multibyte_data@@QEAU__acrt_ptd@@QEAPEAU1@@Z 000000018001b330 f   libucrt:mbctype.obj
 0001:0001a720       ?x_ismbbtype_l@@YAHPEAU__crt_locale_pointers@@IHH@Z 000000018001b720 f   libucrt:ismbbyte.obj
 0001:0001aac8       ??$?RV<lambda_450d765d439847d4c735a33c368b5fc0>@@AEAV<lambda_44731a7d0e6d81c3e6aa82d741081786>@@V<lambda_601a2a7da3b7a96e9554ac7215c4b07c>@@@?$__crt_seh_guarded_call@P6AXH@Z@@QEAAP6AXH@Z$$QEAV<lambda_450d765d439847d4c735a33c368b5fc0>@@AEAV<lambda_44731a7d0e6d81c3e6aa82d741081786>@@$$QEAV<lambda_601a2a7da3b7a96e9554ac7215c4b07c>@@@Z 000000018001bac8 f   libucrt:signal.obj
 0001:0001ae24       ??$?RV<lambda_842d9ff0dc9ef11c61343bbaebe7f885>@@AEAV<lambda_c5860995281e5c4ce005b3de8f5874ee>@@V<lambda_d90129c13df834fdcbf8d2b88dafcf2d>@@@?$__crt_seh_guarded_call@X@@QEAAX$$QEAV<lambda_842d9ff0dc9ef11c61343bbaebe7f885>@@AEAV<lambda_c5860995281e5c4ce005b3de8f5874ee>@@$$QEAV<lambda_d90129c13df834fdcbf8d2b88dafcf2d>@@@Z 000000018001be24 f   libucrt:fflush.obj
 0001:0001aec0       ??$?RV<lambda_886d6c58226a84441f68b9f2b8217b83>@@AEAV<lambda_ab61a845afdef5b7c387490eaf3616ee>@@V<lambda_f7f22ab5edc0698d5f6905b0d3f44752>@@@?$__crt_seh_guarded_call@X@@QEAAX$$QEAV<lambda_886d6c58226a84441f68b9f2b8217b83>@@AEAV<lambda_ab61a845afdef5b7c387490eaf3616ee>@@$$QEAV<lambda_f7f22ab5edc0698d5f6905b0d3f44752>@@@Z 000000018001bec0 f   libucrt:fflush.obj
 0001:0001afa0       ?common_flush_all@@YAH_N@Z 000000018001bfa0 f   libucrt:fflush.obj
 0001:0001cff0       memcpy_s                   000000018001dff0 f   libucrt:cfout.obj
 0001:0001d358       ?free_crt_array_internal@@YAXQEAPEBX_K@Z 000000018001e358 f   libucrt:inittime.obj
 0001:0001dde4       fallbackMethod             000000018001ede4 f   libucrt:strpbrk.obj
 0001:0001e19c       $LN78                      000000018001f19c     libucrt:strpbrk.obj
 0001:0001e1d8       $LN77                      000000018001f1d8     libucrt:strpbrk.obj
 0001:0001e218       $LN76                      000000018001f218     libucrt:strpbrk.obj
 0001:0001e2f4       ?__acrt_LCMapStringA_stat@@YAHPEAU__crt_locale_pointers@@PEB_WKPEBDHPEADHHH@Z 000000018001f2f4 f   libucrt:lcmapstringa.obj
 0001:0001e6a4       ?initialize_multibyte@@YAHXZ 000000018001f6a4 f   libucrt:multibyte_initializer.obj
 0001:0001e6bc       ??$?RV<lambda_a37b2b86f63e897a80ea819b0eb08c01>@@AEAV<lambda_38ce7e780aa69e748d6df282ebc68efe>@@V<lambda_99fb1378e971ab6e7edea83e3a7a83a2>@@@?$__crt_seh_guarded_call@H@@QEAAH$$QEAV<lambda_a37b2b86f63e897a80ea819b0eb08c01>@@AEAV<lambda_38ce7e780aa69e748d6df282ebc68efe>@@$$QEAV<lambda_99fb1378e971ab6e7edea83e3a7a83a2>@@@Z 000000018001f6bc f   libucrt:commit.obj
 0001:0001e7dc       ?write_double_translated_ansi_nolock@@YA?AUwrite_result@?A0x17268360@@HQEBDI@Z 000000018001f7dc f   libucrt:write.obj
 0001:0001ecc8       ?write_text_ansi_nolock@@YA?AUwrite_result@?A0x17268360@@HQEBDI@Z 000000018001fcc8 f   libucrt:write.obj
 0001:0001edcc       ?write_text_utf16le_nolock@@YA?AUwrite_result@?A0x17268360@@HQEBDI@Z 000000018001fdcc f   libucrt:write.obj
 0001:0001eee8       ?write_text_utf8_nolock@@YA?AUwrite_result@?A0x17268360@@HQEBDI@Z 000000018001fee8 f   libucrt:write.obj
 0001:0001f840       $$000000                   0000000180020840     libucrt:log10.obj
 0001:0002010c       ??$common_lseek_nolock@_J@@YA_JH_JH@Z 000000018002110c f   libucrt:lseek.obj
 0001:0002036c       common_control87           000000018002136c f   libucrt:ieee.obj
 0001:0002062c       _call_matherr              000000018002162c f   libucrt:libm_error.obj
 0001:00020694       _exception_enabled         0000000180021694 f   libucrt:libm_error.obj
 0001:00020930       _log_special_common        0000000180021930 f   libucrt:log_special.obj
 0001:000209c8       ??$?RV<lambda_751a882b2c74d4b022dec766aa51a29a>@@AEAV<lambda_628dfdc04ba53c8bfc02c9951375f3f5>@@V<lambda_f6c7be5f7998530c34de24c7437d6b54>@@@?$__crt_seh_guarded_call@H@@QEAAH$$QEAV<lambda_751a882b2c74d4b022dec766aa51a29a>@@AEAV<lambda_628dfdc04ba53c8bfc02c9951375f3f5>@@$$QEAV<lambda_f6c7be5f7998530c34de24c7437d6b54>@@@Z 00000001800219c8 f   libucrt:close.obj
 0001:00020cf0       $$000000                   0000000180021cf0     libucrt:fpsr.obj
 0001:00021390       $$000000                   0000000180022390     LIBCMT:guard_dispatch.obj
 0001:000213b0       $$000000                   00000001800223b0     LIBCMT:guard_xfg_dispatch.obj
 0001:000213d0       ?filt$0@?0??_AtlVerifyStackAvailable@_ATL_SAFE_ALLOCA_IMPL@ATL@@YA_N_K@Z@4HA 00000001800223d0 f   BillAcceptor.obj
 0001:000213f1       __scrt_is_nonwritable_in_current_image$filt$0 00000001800223f1 f   LIBCMT:utility.obj
 0001:00021409       ?catch$0@?0???2@YAPEAX_KAEBUnothrow_t@std@@@Z@4HA 0000000180022409 f   LIBCMT:new_scalar_nothrow.obj
 0001:00021416       __catch$??2@YAPEAX_KAEBUnothrow_t@std@@@Z$0 0000000180022416 f   LIBCMT:new_scalar_nothrow.obj
 0001:00021427       ?fin$0@?0??dllmain_crt_process_attach@@YAHQEAUHINSTANCE__@@QEAX@Z@4HA 0000000180022427 f   LIBCMT:dll_dllmain.obj
 0001:0002143e       ?fin$0@?0??dllmain_crt_process_detach@@YAH_N@Z@4HA 000000018002243e f   LIBCMT:dll_dllmain.obj
 0001:00021457       ?fin$1@?0??dllmain_crt_process_detach@@YAH_N@Z@4HA 0000000180022457 f   LIBCMT:dll_dllmain.obj
 0001:0002146b       ?filt$0@?0??dllmain_dispatch@@YAHQEAUHINSTANCE__@@KQEAX@Z@4HA 000000018002246b f   LIBCMT:dll_dllmain.obj
 0001:000214a1       ?filt$0@?0???$_CallSETranslator@V__FrameHandler4@@@@YAHPEAUEHExceptionRecord@@PEA_KPEAU_CONTEXT@@PEAU_xDISPATCHER_CONTEXT@@PEAUFuncInfo4@FH4@@K1H@Z@4HA 00000001800224a1 f   libvcruntime:risctrnsctrl.obj
 0001:00021540       __DestructExceptionObject$filt$0 0000000180022540 f   libvcruntime:ehhelpers.obj
 0001:000215d6       ?filt$0@?0??CxxCallCatchBlock@__FrameHandler4@@SAPEAXPEAU_EXCEPTION_RECORD@@@Z@4HA 00000001800225d6 f   libvcruntime:frame.obj
 0001:00021605       ?fin$1@?0??CxxCallCatchBlock@__FrameHandler4@@SAPEAXPEAU_EXCEPTION_RECORD@@@Z@4HA 0000000180022605 f   libvcruntime:frame.obj
 0001:00021688       ?filt$0@?0??FrameUnwindToState@__FrameHandler4@@SAXPEA_KPEAU_xDISPATCHER_CONTEXT@@PEAUFuncInfo4@FH4@@H@Z@4HA 0000000180022688 f   libvcruntime:frame.obj
 0001:0002169e       ?fin$1@?0??FrameUnwindToState@__FrameHandler4@@SAXPEA_KPEAU_xDISPATCHER_CONTEXT@@PEAUFuncInfo4@FH4@@H@Z@4HA 000000018002269e f   libvcruntime:frame.obj
 0001:000216c1       ?fin$0@?0???$?RV<lambda_0ae27a3a962d80f24befdcbee591983d>@@AEAV<lambda_8d0ee55de4b1038c4002e0adecdf1839>@@V<lambda_dc504788e8f1664fe9b84e20bfb512f2>@@@?$__crt_seh_guarded_call@X@@QEAAX$$QEAV<lambda_0ae27a3a962d80f24befdcbee591983d>@@AEAV<lambda_8d0ee55de4b1038c4002e0adecdf1839>@@$$QEAV<lambda_dc504788e8f1664fe9b84e20bfb512f2>@@@Z@4HA 00000001800226c1 f   libucrt:per_thread_data.obj
 0001:000216c1       ?fin$0@?0???$?RV<lambda_2d41944a1d46af3157314b8a01080d33>@@AEAV<lambda_8f455de75cd7d7f24b4096f044d8b9e6>@@V<lambda_aa500f224e6afead328df44964fe2772>@@@?$__crt_seh_guarded_call@X@@QEAAX$$QEAV<lambda_2d41944a1d46af3157314b8a01080d33>@@AEAV<lambda_8f455de75cd7d7f24b4096f044d8b9e6>@@$$QEAV<lambda_aa500f224e6afead328df44964fe2772>@@@Z@4HA 00000001800226c1 f   libucrt:per_thread_data.obj
 0001:000216c1       ?fin$0@?0???$?RV<lambda_aa87e3671a710a21b5dc78c0bdf72e11>@@AEAV<lambda_92619d2358a28f41a33ba319515a20b9>@@V<lambda_6992ecaafeb10aed2b74cb1fae11a551>@@@?$__crt_seh_guarded_call@X@@QEAAX$$QEAV<lambda_aa87e3671a710a21b5dc78c0bdf72e11>@@AEAV<lambda_92619d2358a28f41a33ba319515a20b9>@@$$QEAV<lambda_6992ecaafeb10aed2b74cb1fae11a551>@@@Z@4HA 00000001800226c1 f   libucrt:per_thread_data.obj
 0001:000216c1       ?fin$0@?0???$?RV<lambda_f2e299630e499de9f9a165e60fcd3db5>@@AEAV<lambda_2ae9d31cdba2644fcbeaf08da7c24588>@@V<lambda_40d01ff24d0e7b3814fdbdcee8eab3c7>@@@?$__crt_seh_guarded_call@X@@QEAAX$$QEAV<lambda_f2e299630e499de9f9a165e60fcd3db5>@@AEAV<lambda_2ae9d31cdba2644fcbeaf08da7c24588>@@$$QEAV<lambda_40d01ff24d0e7b3814fdbdcee8eab3c7>@@@Z@4HA 00000001800226c1 f   libucrt:per_thread_data.obj
 0001:000216c1       ?fin$0@?0???$?RV<lambda_efdfa57d1f175319df784efa44bb7b81>@@AEAV<lambda_5f0a4c1567f8adc6734073e5d1e1b35c>@@V<lambda_2e8a7d3640ea6ccb4c2413664c2db6fd>@@@?$__crt_seh_guarded_call@X@@QEAAX$$QEAV<lambda_efdfa57d1f175319df784efa44bb7b81>@@AEAV<lambda_5f0a4c1567f8adc6734073e5d1e1b35c>@@$$QEAV<lambda_2e8a7d3640ea6ccb4c2413664c2db6fd>@@@Z@4HA 00000001800226c1 f   libucrt:mbctype.obj
 0001:000216c1       ?fin$0@?0???$?RV<lambda_450d765d439847d4c735a33c368b5fc0>@@AEAV<lambda_44731a7d0e6d81c3e6aa82d741081786>@@V<lambda_601a2a7da3b7a96e9554ac7215c4b07c>@@@?$__crt_seh_guarded_call@P6AXH@Z@@QEAAP6AXH@Z$$QEAV<lambda_450d765d439847d4c735a33c368b5fc0>@@AEAV<lambda_44731a7d0e6d81c3e6aa82d741081786>@@$$QEAV<lambda_601a2a7da3b7a96e9554ac7215c4b07c>@@@Z@4HA 00000001800226c1 f   libucrt:signal.obj
 0001:000216c1       ?fin$0@?0???$?RV<lambda_d80eeec6fff315bfe5c115232f3240e3>@@AEAV<lambda_6e4b09c48022b2350581041d5f6b0c4c>@@V<lambda_2358e3775559c9db80273638284d5e45>@@@?$__crt_seh_guarded_call@X@@QEAAX$$QEAV<lambda_d80eeec6fff315bfe5c115232f3240e3>@@AEAV<lambda_6e4b09c48022b2350581041d5f6b0c4c>@@$$QEAV<lambda_2358e3775559c9db80273638284d5e45>@@@Z@4HA 00000001800226c1 f   libucrt:exit.obj
 0001:000216c1       ?fin$0@?0???$?RV<lambda_638799b9deba96c50f710eeac98168cd>@@AEAV<lambda_22ebabd17bc4fa466a2aca6d8deb888d>@@V<lambda_a6f7d7db0129f75315ebf26d50c089f1>@@@?$__crt_seh_guarded_call@H@@QEAAH$$QEAV<lambda_638799b9deba96c50f710eeac98168cd>@@AEAV<lambda_22ebabd17bc4fa466a2aca6d8deb888d>@@$$QEAV<lambda_a6f7d7db0129f75315ebf26d50c089f1>@@@Z@4HA 00000001800226c1 f   libucrt:onexit.obj
 0001:000216c1       ?fin$0@?0???$?RV<lambda_7777bce6b2f8c936911f934f8298dc43>@@AEAV<lambda_f03950bc5685219e0bcd2087efbe011e>@@V<lambda_3883c3dff614d5e0c5f61bb1ac94921c>@@@?$__crt_seh_guarded_call@H@@QEAAH$$QEAV<lambda_7777bce6b2f8c936911f934f8298dc43>@@AEAV<lambda_f03950bc5685219e0bcd2087efbe011e>@@$$QEAV<lambda_3883c3dff614d5e0c5f61bb1ac94921c>@@@Z@4HA 00000001800226c1 f   libucrt:onexit.obj
 0001:000216db       ?filt$0@?0???R<lambda_6e4b09c48022b2350581041d5f6b0c4c>@@QEBA@XZ@4HA 00000001800226db f   libucrt:exit.obj
 0001:000216f6       _query_new_handler$fin$0   00000001800226f6 f   libucrt:new_handler.obj
 0001:0002170c       ?fin$0@?0???$?RV<lambda_410d79af7f07d98d83a3f525b3859a53>@@AEAV<lambda_3e16ef9562a7dcce91392c22ab16ea36>@@V<lambda_38119f0e861e05405d8a144b9b982f0a>@@@?$__crt_seh_guarded_call@X@@QEAAX$$QEAV<lambda_410d79af7f07d98d83a3f525b3859a53>@@AEAV<lambda_3e16ef9562a7dcce91392c22ab16ea36>@@$$QEAV<lambda_38119f0e861e05405d8a144b9b982f0a>@@@Z@4HA 000000018002270c f   libucrt:wsetlocale.obj
 0001:00021726       __acrt_initialize_lowio$fin$0 0000000180022726 f   libucrt:ioinit.obj
 0001:00021726       __acrt_lowio_ensure_fh_exists$fin$0 0000000180022726 f   libucrt:osfinfo.obj
 0001:0002173f       ?fin$0@?0??update_thread_multibyte_data_internal@@YAPEAU__crt_multibyte_data@@QEAU__acrt_ptd@@QEAPEAU1@@Z@4HA 000000018002273f f   libucrt:mbctype.obj
 0001:00021758       raise$fin$0                0000000180022758 f   libucrt:signal.obj
 0001:00021779       ?fin$0@?0???$?RV<lambda_842d9ff0dc9ef11c61343bbaebe7f885>@@AEAV<lambda_c5860995281e5c4ce005b3de8f5874ee>@@V<lambda_d90129c13df834fdcbf8d2b88dafcf2d>@@@?$__crt_seh_guarded_call@X@@QEAAX$$QEAV<lambda_842d9ff0dc9ef11c61343bbaebe7f885>@@AEAV<lambda_c5860995281e5c4ce005b3de8f5874ee>@@$$QEAV<lambda_d90129c13df834fdcbf8d2b88dafcf2d>@@@Z@4HA 0000000180022779 f   libucrt:fflush.obj
 0001:00021794       ?fin$0@?0???$?RV<lambda_886d6c58226a84441f68b9f2b8217b83>@@AEAV<lambda_ab61a845afdef5b7c387490eaf3616ee>@@V<lambda_f7f22ab5edc0698d5f6905b0d3f44752>@@@?$__crt_seh_guarded_call@X@@QEAAX$$QEAV<lambda_886d6c58226a84441f68b9f2b8217b83>@@AEAV<lambda_ab61a845afdef5b7c387490eaf3616ee>@@$$QEAV<lambda_f7f22ab5edc0698d5f6905b0d3f44752>@@@Z@4HA 0000000180022794 f   libucrt:fflush.obj
 0001:000217b1       __acrt_update_thread_locale_data$fin$0 00000001800227b1 f   libucrt:locale_refcounting.obj
 0001:000217ca       _fcloseall$fin$0           00000001800227ca f   libucrt:closeall.obj
 0001:000217e3       ?fin$0@?0???$?RV<lambda_751a882b2c74d4b022dec766aa51a29a>@@AEAV<lambda_628dfdc04ba53c8bfc02c9951375f3f5>@@V<lambda_f6c7be5f7998530c34de24c7437d6b54>@@@?$__crt_seh_guarded_call@H@@QEAAH$$QEAV<lambda_751a882b2c74d4b022dec766aa51a29a>@@AEAV<lambda_628dfdc04ba53c8bfc02c9951375f3f5>@@$$QEAV<lambda_f6c7be5f7998530c34de24c7437d6b54>@@@Z@4HA 00000001800227e3 f   libucrt:close.obj
 0001:000217e3       ?fin$0@?0???$?RV<lambda_a37b2b86f63e897a80ea819b0eb08c01>@@AEAV<lambda_38ce7e780aa69e748d6df282ebc68efe>@@V<lambda_99fb1378e971ab6e7edea83e3a7a83a2>@@@?$__crt_seh_guarded_call@H@@QEAAH$$QEAV<lambda_a37b2b86f63e897a80ea819b0eb08c01>@@AEAV<lambda_38ce7e780aa69e748d6df282ebc68efe>@@$$QEAV<lambda_99fb1378e971ab6e7edea83e3a7a83a2>@@@Z@4HA 00000001800227e3 f   libucrt:commit.obj
 0001:000217fd       _write$fin$0               00000001800227fd f   libucrt:write.obj
 0001:00021814       fclose$fin$0               0000000180022814 f   libucrt:fclose.obj
 0001:0002182c       _ctrlfp$filt$0             000000018002282c f   libucrt:fpctrl.obj
 0001:0002182c       common_control87$filt$0    000000018002282c f   libucrt:ieee.obj
 0001:00021860       _IsNonwritableInCurrentImage$filt$0 0000000180022860 f   LIBCMT:pesect.obj
 0001:00021880       ??__F_AtlComModule@ATL@@YAXXZ 0000000180022880 f   OposVariant.obj
 0001:0002188c       ??__F_AtlWinModule@ATL@@YAXXZ 000000018002288c f   OposVariant.obj
 0001:000218d0       ??__F_Module@@YAXXZ        00000001800228d0 f   BillAcceptor.obj
 0001:000218ec       ??__F_AtlBaseModule@ATL@@YAXXZ 00000001800228ec f   atls:atlbase.obj
 0002:00000648       ?_AtlBaseModule$initializer$@ATL@@3P6AXXZEA 0000000180023648     atls:atlbase.obj
 0002:00000650       ?_AtlComModule$initializer$@ATL@@3P6AXXZEA 0000000180023650     OposVariant.obj
 0002:00000658       ?_AtlWinModule$initializer$@ATL@@3P6AXXZEA 0000000180023658     OposVariant.obj
 0002:00000660       ?_Module$initializer$@@3P6AXXZEA 0000000180023660     BillAcceptor.obj
 0002:00000668       ??pConnMap$initializer$@?$IConnectionPointContainerImpl@VCOPOSBillAcceptor@@@ATL@@0P6AXXZEA@@3P6AXXZEA 0000000180023668     BillAcceptor.obj
 0002:00000680       ?__scrt_initialize_tss_var@@3P6AHXZEA 0000000180023680     LIBCMT:thread_safe_statics.obj
 0002:000026e8       GS_ExceptionPointers       00000001800256e8     LIBCMT:gs_report.obj
 0002:000028d0       ?ExceptionTemplate@?1??UnwindNestedFrames@__FrameHandler4@@SAXPEA_KPEAUEHExceptionRecord@@PEAU_CONTEXT@@0PEAXPEAUFuncInfo4@FH4@@HHPEAUHandlerType4@6@PEAU_xDISPATCHER_CONTEXT@@E@Z@4U_EXCEPTION_RECORD@@B 00000001800258d0     libvcruntime:risctrnsctrl.obj
 0002:000029a0       ?tokenTable@@3QBUStringLiteral@@B 00000001800259a0     libvcruntime:undname.obj
 0002:00002aa0       ?nameTable@@3QBUStringLiteral@@B 0000000180025aa0     libvcruntime:undname.obj
 0002:00002fd0       ?rttiTable@@3QBUStringLiteral@@B 0000000180025fd0     libvcruntime:undname.obj
 0002:00003020       ?IndirectionName@@3QBUStringLiteral@@B 0000000180026020     libvcruntime:undname.obj
 0002:00003080       ?PrefixName@@3QBUStringLiteral@@B 0000000180026080     libvcruntime:undname.obj
 0002:00003758       ?module_names@?A0x5302d918@@3QBQEB_WB 0000000180026758     libvcruntime:winapi_downlevel.obj
 0002:00003818       ?candidate_modules@?1??try_get_FlsAlloc@@YAP6AKP6AXPEAX@Z@ZXZ@4QBW4module_id@?A0x5302d918@@B 0000000180026818     libvcruntime:winapi_downlevel.obj
 0002:00003830       ?candidate_modules@?1??try_get_FlsFree@@YAP6AHK@ZXZ@4QBW4module_id@?A0x5302d918@@B 0000000180026830     libvcruntime:winapi_downlevel.obj
 0002:00003840       ?candidate_modules@?1??try_get_FlsGetValue@@YAP6APEAXK@ZXZ@4QBW4module_id@?A0x5302d918@@B 0000000180026840     libvcruntime:winapi_downlevel.obj
 0002:00003858       ?candidate_modules@?1??try_get_FlsSetValue@@YAP6AHKPEAX@ZXZ@4QBW4module_id@?A0x5302d918@@B 0000000180026858     libvcruntime:winapi_downlevel.obj
 0002:00003870       ?candidate_modules@?1??try_get_InitializeCriticalSectionEx@@YAP6AHPEAU_RTL_CRITICAL_SECTION@@KK@ZXZ@4QBW4module_id@?A0x5302d918@@B 0000000180026870     libvcruntime:winapi_downlevel.obj
 0002:000038a0       ?errtable@@3QBUerrentry@?A0x31fdb9ec@@B 00000001800268a0     libucrt:errno.obj
 0002:00003f30       __acrt_initializers        0000000180026f30     libucrt:initialization.obj
 0002:00004030       ?module_names@?A0x391cf84c@@3QBQEB_WB 0000000180027030     libucrt:winapi_thunks.obj
 0002:00004538       ?candidate_modules@?1??try_get_AreFileApisANSI@@YAP6AHXZXZ@4QBW4module_id@?A0x391cf84c@@B 0000000180027538     libucrt:winapi_thunks.obj
 0002:00004550       ?candidate_modules@?1??try_get_FlsAlloc@@YAP6AKP6AXPEAX@Z@ZXZ@4QBW4module_id@?A0x391cf84c@@B 0000000180027550     libucrt:winapi_thunks.obj
 0002:00004558       ?candidate_modules@?1??try_get_FlsFree@@YAP6AHK@ZXZ@4QBW4module_id@?A0x391cf84c@@B 0000000180027558     libucrt:winapi_thunks.obj
 0002:00004560       ?candidate_modules@?1??try_get_FlsGetValue@@YAP6APEAXK@ZXZ@4QBW4module_id@?A0x391cf84c@@B 0000000180027560     libucrt:winapi_thunks.obj
 0002:00004568       ?candidate_modules@?1??try_get_FlsSetValue@@YAP6AHKPEAX@ZXZ@4QBW4module_id@?A0x391cf84c@@B 0000000180027568     libucrt:winapi_thunks.obj
 0002:00004570       ?candidate_modules@?1??try_get_InitializeCriticalSectionEx@@YAP6AHPEAU_RTL_CRITICAL_SECTION@@KK@ZXZ@4QBW4module_id@?A0x391cf84c@@B 0000000180027570     libucrt:winapi_thunks.obj
 0002:00004578       ?candidate_modules@?1??try_get_LCMapStringEx@@YAP6AHPEB_WK0HPEA_WHPEAU_nlsversioninfo@@PEAX_J@ZXZ@4QBW4module_id@?A0x391cf84c@@B 0000000180027578     libucrt:winapi_thunks.obj
 0002:00004590       ?candidate_modules@?1??try_get_LocaleNameToLCID@@YAP6AKPEB_WK@ZXZ@4QBW4module_id@?A0x391cf84c@@B 0000000180027590     libucrt:winapi_thunks.obj
 0002:000045ac       ?candidate_modules@?1??try_get_AppPolicyGetProcessTerminationMethod@@YAP6AJPEAXPEAW4AppPolicyProcessTerminationMethod@@@ZXZ@4QBW4module_id@?A0x391cf84c@@B 00000001800275ac     libucrt:winapi_thunks.obj
 0002:000045d8       ?candidate_modules@?1??try_get_SetThreadStackGuarantee@@YAP6AHPEAK@ZXZ@4QBW4module_id@?A0x391cf84c@@B 00000001800275d8     libucrt:winapi_thunks.obj
 0002:00004600       ?strings@?1??fp_format_nan_or_infinity@@YAHW4__acrt_fp_class@@_NPEAD_K1@Z@4QAY03QEBDA 0000000180027600     libucrt:cvt.obj
 0002:00004d60       ?_mb_locale_names@@3QBQEB_WB 0000000180027d60     libucrt:mbctype.obj
 0002:000055d0       ?LcidToLocaleNameTable@?A0x881e4c05@@3QBULcidToLocaleName@1@B 00000001800285d0     libucrt:lcidtoname_downlevel.obj
 0002:00007030       ?LocaleNameToIndexTable@?A0x881e4c05@@3QBULocaleNameIndex@1@B 000000018002a030     libucrt:lcidtoname_downlevel.obj
 0002:000092d0       __real_ninf                000000018002c2d0     libucrt:log10.obj
 0002:000092e0       __real_inf                 000000018002c2e0     libucrt:log10.obj
 0002:000092f0       __real_neg_qnan            000000018002c2f0     libucrt:log10.obj
 0002:00009300       __real_qnanbit             000000018002c300     libucrt:log10.obj
 0002:00009310       __int_1023                 000000018002c310     libucrt:log10.obj
 0002:00009320       __mask_001                 000000018002c320     libucrt:log10.obj
 0002:00009330       __mask_mant                000000018002c330     libucrt:log10.obj
 0002:00009340       __mask_mant_top8           000000018002c340     libucrt:log10.obj
 0002:00009350       __mask_mant9               000000018002c350     libucrt:log10.obj
 0002:00009360       __real_log10_e             000000018002c360     libucrt:log10.obj
 0002:00009370       __real_log10_e_lead        000000018002c370     libucrt:log10.obj
 0002:00009380       __real_log10_e_tail        000000018002c380     libucrt:log10.obj
 0002:00009390       __real_log10_2_lead        000000018002c390     libucrt:log10.obj
 0002:000093a0       __real_log10_2_tail        000000018002c3a0     libucrt:log10.obj
 0002:000093b0       __real_two                 000000018002c3b0     libucrt:log10.obj
 0002:000093c0       __real_one                 000000018002c3c0     libucrt:log10.obj
 0002:000093d0       __real_half                000000018002c3d0     libucrt:log10.obj
 0002:000093e0       __mask_100                 000000018002c3e0     libucrt:log10.obj
 0002:000093f0       __real_1_over_512          000000018002c3f0     libucrt:log10.obj
 0002:00009400       __real_1_over_2            000000018002c400     libucrt:log10.obj
 0002:00009410       __real_1_over_3            000000018002c410     libucrt:log10.obj
 0002:00009420       __real_1_over_4            000000018002c420     libucrt:log10.obj
 0002:00009430       __real_1_over_5            000000018002c430     libucrt:log10.obj
 0002:00009440       __real_1_over_6            000000018002c440     libucrt:log10.obj
 0002:00009450       __real_neg_1023            000000018002c450     libucrt:log10.obj
 0002:00009460       __mask_2045                000000018002c460     libucrt:log10.obj
 0002:00009470       __real_threshold           000000018002c470     libucrt:log10.obj
 0002:00009480       __real_near_one_lt         000000018002c480     libucrt:log10.obj
 0002:00009490       __real_near_one_gt         000000018002c490     libucrt:log10.obj
 0002:000094a0       __real_min_norm            000000018002c4a0     libucrt:log10.obj
 0002:000094b0       __real_notsign             000000018002c4b0     libucrt:log10.obj
 0002:000094c0       __real_ca1                 000000018002c4c0     libucrt:log10.obj
 0002:000094d0       __real_ca2                 000000018002c4d0     libucrt:log10.obj
 0002:000094e0       __real_ca3                 000000018002c4e0     libucrt:log10.obj
 0002:000094f0       __real_ca4                 000000018002c4f0     libucrt:log10.obj
 0002:00009500       __mask_lower               000000018002c500     libucrt:log10.obj
 0002:00009510       __flag_x_zero              000000018002c510     libucrt:log10.obj
 0002:00009514       __flag_x_neg               000000018002c514     libucrt:log10.obj
 0002:00009518       __flag_x_nan               000000018002c518     libucrt:log10.obj
 0002:0000ad70       __real@433fffffffffffff    000000018002dd70     libucrt:fpsr.obj
 0002:0000ad78       __real@c33fffffffffffff    000000018002dd78     libucrt:fpsr.obj
 0002:0000b5e8       $unwind$?ProcessWindowMessage@?$CComControl@VCOPOSBillAcceptor@@V?$CWindowImpl@VCOPOSBillAcceptor@@VCWindow@ATL@@V?$CWinTraits@$0FGAAAAAA@$0A@@3@@ATL@@@ATL@@UEAAHPEAUHWND__@@I_K_JAEA_JK@Z 000000018002e5e8     BillAcceptor.obj
 0002:0000b5e8       $unwind$?cw_memcpy@@YAHPEA_WPEBDH@Z 000000018002e5e8     CWString.obj
 0002:0000b5e8       $unwind$wcstol             000000018002e5e8     libucrt:strtox.obj
 0002:0000b5e8       $unwind$_invalid_parameter_noinfo 000000018002e5e8     libucrt:invalid_parameter.obj
 0002:0000b5e8       $unwind$_log10_special     000000018002e5e8     libucrt:log_special.obj
 0002:0000b5f0       $unwind$??__E?pConnMap@?$IConnectionPointContainerImpl@VCOPOSBillAcceptor@@@ATL@@0PEBU_ATL_CONNMAP_ENTRY@2@EB@@YAXXZ 000000018002e5f0     BillAcceptor.obj
 0002:0000b5f0       $unwind$?AddReplacement@CRegObject@ATL@@UEAAJPEB_W0@Z 000000018002e5f0     BillAcceptor.obj
 0002:0000b5f0       $unwind$?AtlHresultFromLastError@ATL@@YAJXZ 000000018002e5f0     BillAcceptor.obj
 0002:0000b5f0       $unwind$?AtlThrowImpl@ATL@@YAXJ@Z 000000018002e5f0     BillAcceptor.obj
 0002:0000b5f0       $unwind$?CreateInstance@CComClassFactory@ATL@@UEAAJPEAUIUnknown@@AEBU_GUID@@PEAPEAX@Z 000000018002e5f0     BillAcceptor.obj
 0002:0000b5f0       $unwind$?DefaultReflectionHandler@?$CWindowImplRoot@VCWindow@ATL@@@ATL@@SAHPEAUHWND__@@I_K_JAEA_J@Z 000000018002e5f0     BillAcceptor.obj
 0002:0000b5f0       $unwind$?EnumAdvise@?$IOleObjectImpl@VCOPOSBillAcceptor@@@ATL@@UEAAJPEAPEAUIEnumSTATDATA@@@Z 000000018002e5f0     BillAcceptor.obj
 0002:0000b5f0       $unwind$?FireViewChange@CComControlBase@ATL@@QEAAJXZ 000000018002e5f0     BillAcceptor.obj
 0002:0000b5f0       $unwind$?GetAdvise@?$IViewObjectExImpl@VCOPOSBillAcceptor@@@ATL@@UEAAJPEAK0PEAPEAUIAdviseSink@@@Z 000000018002e5f0     BillAcceptor.obj
 0002:0000b5f0       $unwind$?LockServer@CComClassFactory@ATL@@UEAAJH@Z 000000018002e5f0     BillAcceptor.obj
 0002:0000b5f0       $unwind$?OnDocWindowActivate@?$IOleInPlaceActiveObjectImpl@VCOPOSBillAcceptor@@@ATL@@UEAAJH@Z 000000018002e5f0     BillAcceptor.obj
 0002:0000b5f0       $unwind$?Unadvise@?$IOleObjectImpl@VCOPOSBillAcceptor@@@ATL@@UEAAJK@Z 000000018002e5f0     BillAcceptor.obj
 0002:0000b5f0       $unwind$?_LocCPQueryInterface@?$IConnectionPointImpl@VCOPOSBillAcceptor@@$1?DIID__IOPOSBillAcceptorEvents@@3U_GUID@@BVCComDynamicUnkArray@ATL@@@ATL@@UEAAJAEBU_GUID@@PEAPEAX@Z 000000018002e5f0     BillAcceptor.obj
 0002:0000b5f0       $unwind$?_LocCPQueryInterface@?$IConnectionPointImpl@VCOPOSBillAcceptor@@$1?IID_IPropertyNotifySink@@3U_GUID@@BVCComDynamicUnkArray@ATL@@@ATL@@UEAAJAEBU_GUID@@PEAPEAX@Z 000000018002e5f0     BillAcceptor.obj
 0002:0000b5f0       $unwind$?FinalConstruct@COPOSBillAcceptor@@QEAAJXZ 000000018002e5f0     BillAcceptorImpl.obj
 0002:0000b5f0       $unwind$?get_ResultCode@COPOSBillAcceptor@@UEAAJPEAJ@Z 000000018002e5f0     BillAcceptorImpl.obj
 0002:0000b5f0       $unwind$?get_State@COPOSBillAcceptor@@UEAAJPEAJ@Z 000000018002e5f0     BillAcceptorImpl.obj
 0002:0000b5f0       $unwind$?cw_strcpy@@YAHPEA_WPEBD@Z 000000018002e5f0     CWString.obj
 0002:0000b5f0       $unwind$??1OposDispParms@@QEAA@XZ 000000018002e5f0     OposVariant.obj
 0002:0000b5f0       $unwind$??__E_AtlComModule@ATL@@YAXXZ 000000018002e5f0     OposVariant.obj
 0002:0000b5f0       $unwind$??__E_AtlWinModule@ATL@@YAXXZ 000000018002e5f0     OposVariant.obj
 0002:0000b5f0       $unwind$??__F_AtlWinModule@ATL@@YAXXZ 000000018002e5f0     OposVariant.obj
 0002:0000b5f0       $unwind$?GetLONG@OposVariant@@QEAAJXZ 000000018002e5f0     OposVariant.obj
 0002:0000b5f0       $unwind$??__E_AtlBaseModule@ATL@@YAXXZ 000000018002e5f0     atls:atlbase.obj
 0002:0000b5f0       $unwind$__scrt_initialize_default_local_stdio_options 000000018002e5f0     LIBCMT:default_local_stdio_options.obj
 0002:0000b5f0       $unwind$?dllmain_crt_dispatch@@YAHQEAUHINSTANCE__@@KQEAX@Z 000000018002e5f0     LIBCMT:dll_dllmain.obj
 0002:0000b5f0       $unwind$__report_rangecheckfailure 000000018002e5f0     LIBCMT:gs_report.obj
 0002:0000b5f0       $unwind$__GSHandlerCheck   000000018002e5f0     LIBCMT:gshandler.obj
 0002:0000b5f0       $unwind$?__scrt_uninitialize_thread_safe_statics@@YAXXZ 000000018002e5f0     LIBCMT:thread_safe_statics.obj
 0002:0000b5f0       $unwind$_Init_thread_notify 000000018002e5f0     LIBCMT:thread_safe_statics.obj
 0002:0000b5f0       $unwind$__scrt_acquire_startup_lock 000000018002e5f0     LIBCMT:utility.obj
 0002:0000b5f0       $unwind$__scrt_dllmain_after_initialize_c 000000018002e5f0     LIBCMT:utility.obj
 0002:0000b5f0       $unwind$__scrt_dllmain_before_initialize_c 000000018002e5f0     LIBCMT:utility.obj
 0002:0000b5f0       $unwind$__scrt_dllmain_crt_thread_attach 000000018002e5f0     LIBCMT:utility.obj
 0002:0000b5f0       $unwind$__scrt_dllmain_crt_thread_detach 000000018002e5f0     LIBCMT:utility.obj
 0002:0000b5f0       $unwind$__scrt_dllmain_uninitialize_c 000000018002e5f0     LIBCMT:utility.obj
 0002:0000b5f0       $unwind$__scrt_dllmain_uninitialize_critical 000000018002e5f0     LIBCMT:utility.obj
 0002:0000b5f0       $unwind$atexit             000000018002e5f0     LIBCMT:utility.obj
 0002:0000b5f0       $unwind$__vcrt_initialize  000000018002e5f0     libvcruntime:initialization.obj
 0002:0000b5f0       $unwind$__vcrt_thread_attach 000000018002e5f0     libvcruntime:initialization.obj
 0002:0000b5f0       $unwind$__vcrt_thread_detach 000000018002e5f0     libvcruntime:initialization.obj
 0002:0000b5f0       $unwind$__vcrt_uninitialize 000000018002e5f0     libvcruntime:initialization.obj
 0002:0000b5f0       $unwind$__vcrt_uninitialize_critical 000000018002e5f0     libvcruntime:initialization.obj
 0002:0000b5f0       $unwind$__vcrt_initialize_locks 000000018002e5f0     libvcruntime:locks.obj
 0002:0000b5f0       $unwind$__vcrt_freefls     000000018002e5f0     libvcruntime:per_thread_data.obj
 0002:0000b5f0       $unwind$__vcrt_getptd      000000018002e5f0     libvcruntime:per_thread_data.obj
 0002:0000b5f0       $unwind$__vcrt_initialize_ptd 000000018002e5f0     libvcruntime:per_thread_data.obj
 0002:0000b5f0       $unwind$__vcrt_uninitialize_ptd 000000018002e5f0     libvcruntime:per_thread_data.obj
 0002:0000b5f0       $unwind$_purecall          000000018002e5f0     libvcruntime:purevirt.obj
 0002:0000b5f0       $unwind$?FrameUnwindToEmptyState@__FrameHandler4@@SAXPEA_KPEAU_xDISPATCHER_CONTEXT@@PEAUFuncInfo4@FH4@@@Z 000000018002e5f0     libvcruntime:risctrnsctrl.obj
 0002:0000b5f0       $unwind$_GetImageBase      000000018002e5f0     libvcruntime:risctrnsctrl.obj
 0002:0000b5f0       $unwind$_GetThrowImageBase 000000018002e5f0     libvcruntime:risctrnsctrl.obj
 0002:0000b5f0       $unwind$__dcrt_terminate_console_output 000000018002e5f0     libucrt:initcon.obj
 0002:0000b5f0       $unwind$??$uninitialize_environment_internal@D@@YAXAEAPEAPEAD@Z 000000018002e5f0     libucrt:environment_initialization.obj
 0002:0000b5f0       $unwind$??$uninitialize_environment_internal@_W@@YAXAEAPEAPEA_W@Z 000000018002e5f0     libucrt:environment_initialization.obj
 0002:0000b5f0       $unwind$__dcrt_uninitialize_environments_nolock 000000018002e5f0     libucrt:environment_initialization.obj
 0002:0000b5f0       $unwind$__acrt_initialize_heap 000000018002e5f0     libucrt:heap_handle.obj
 0002:0000b5f0       $unwind$_msize_base        000000018002e5f0     libucrt:msize.obj
 0002:0000b5f0       $unwind$?initialize_multibyte@@YAHXZ 000000018002e5f0     libucrt:multibyte_initializer.obj
 0002:0000b5f0       $unwind$__acrt_thread_attach 000000018002e5f0     libucrt:initialization.obj
 0002:0000b5f0       $unwind$__acrt_thread_detach 000000018002e5f0     libucrt:initialization.obj
 0002:0000b5f0       $unwind$__acrt_uninitialize 000000018002e5f0     libucrt:initialization.obj
 0002:0000b5f0       $unwind$__acrt_uninitialize_critical 000000018002e5f0     libucrt:initialization.obj
 0002:0000b5f0       $unwind$initialize_c       000000018002e5f0     libucrt:initialization.obj
 0002:0000b5f0       $unwind$uninitialize_allocated_io_buffers 000000018002e5f0     libucrt:initialization.obj
 0002:0000b5f0       $unwind$uninitialize_environment 000000018002e5f0     libucrt:initialization.obj
 0002:0000b5f0       $unwind$__acrt_initialize_ptd 000000018002e5f0     libucrt:per_thread_data.obj
 0002:0000b5f0       $unwind$__acrt_uninitialize_ptd 000000018002e5f0     libucrt:per_thread_data.obj
 0002:0000b5f0       $unwind$__acrt_AreFileApisANSI 000000018002e5f0     libucrt:winapi_thunks.obj
 0002:0000b5f0       $unwind$__pctype_func      000000018002e5f0     libucrt:ctype.obj
 0002:0000b5f0       $unwind$__acrt_release_locale_ref 000000018002e5f0     libucrt:locale_refcounting.obj
 0002:0000b5f0       $unwind$_isatty            000000018002e5f0     libucrt:isatty.obj
 0002:0000b5f0       $unwind$_get_osfhandle     000000018002e5f0     libucrt:osfinfo.obj
 0002:0000b5f0       $unwind$__acrt_initialize_multibyte 000000018002e5f0     libucrt:mbctype.obj
 0002:0000b5f0       $unwind$__acrt_update_thread_multibyte_data 000000018002e5f0     libucrt:mbctype.obj
 0002:0000b5f0       $unwind$__doserrno         000000018002e5f0     libucrt:errno.obj
 0002:0000b5f0       $unwind$_errno             000000018002e5f0     libucrt:errno.obj
 0002:0000b5f0       $unwind$_invoke_watson     000000018002e5f0     libucrt:invalid_parameter.obj
 0002:0000b5f0       $unwind$abort              000000018002e5f0     libucrt:abort.obj
 0002:0000b5f0       $unwind$__acrt_initialize_command_line 000000018002e5f0     libucrt:argv_data.obj
 0002:0000b5f0       $unwind$_fileno            000000018002e5f0     libucrt:fileno.obj
 0002:0000b5f0       $unwind$?state_case_size@?$output_processor@_WV?$string_output_adapter@_W@__crt_stdio_output@@V?$format_validation_base@_WV?$string_output_adapter@_W@__crt_stdio_output@@@2@@__crt_stdio_output@@AEAA_NXZ 000000018002e5f0     libucrt:output.obj
 0002:0000b5f0       $unwind$_statfp            000000018002e5f0     libucrt:fpctrl.obj
 0002:0000b5f0       $unwind$fegetround         000000018002e5f0     libucrt:fegetround.obj
 0002:0000b5f0       $unwind$_set_errno_from_matherr 000000018002e5f0     libucrt:fpexcept.obj
 0002:0000b5f8       $unwind$?DAdvise@?$IDataObjectImpl@VCOPOSBillAcceptor@@@ATL@@UEAAJPEAUtagFORMATETC@@KPEAUIAdviseSink@@PEAK@Z 000000018002e5f8     BillAcceptor.obj
 0002:0000b5f8       $unwind$?cw_dup@@YAXPEBDAEAHAEAPEA_W1@Z 000000018002e5f8     CWString.obj
 0002:0000b5f8       $unwind$??$__acrt_mbs_to_wcs_cp@U__crt_win32_buffer_internal_dynamic_resizing@@@@YAHQEBDAEAV?$__crt_win32_buffer@_WU__crt_win32_buffer_internal_dynamic_resizing@@@@I@Z 000000018002e5f8     libucrt:argv_wildcards.obj
 0002:0000b610       $unwind$??0?$CComObject@VCOPOSBillAcceptor@@@ATL@@QEAA@PEAX@Z 000000018002e610     BillAcceptor.obj
 0002:0000b610       $unwind$??0CAtlModule@ATL@@QEAA@XZ 000000018002e610     BillAcceptor.obj
 0002:0000b610       $unwind$??1?$CComObject@VCOPOSBillAcceptor@@@ATL@@UEAA@XZ 000000018002e610     BillAcceptor.obj
 0002:0000b610       $unwind$??__E_Module@@YAXXZ 000000018002e610     BillAcceptor.obj
 0002:0000b610       $unwind$?AddRef@?$CComObjectCached@VCComClassFactory@ATL@@@ATL@@UEAAKXZ 000000018002e610     BillAcceptor.obj
 0002:0000b610       $unwind$?AllocateHeap@?$CTempBuffer@E$0BAA@VCCRTAllocator@ATL@@@ATL@@AEAAX_K@Z 000000018002e610     BillAcceptor.obj
 0002:0000b610       $unwind$?AllocateHeap@?$CTempBuffer@_W$0BAA@VCCRTAllocator@ATL@@@ATL@@AEAAX_K@Z 000000018002e610     BillAcceptor.obj
 0002:0000b610       $unwind$?AllocateHeap@?$CTempBuffer@_W$0EAA@VCCRTAllocator@ATL@@@ATL@@AEAAX_K@Z 000000018002e610     BillAcceptor.obj
 0002:0000b610       $unwind$?GetClassInfoW@?$IProvideClassInfo2Impl@$1?CLSID_OPOSBillAcceptor@@3U_GUID@@B$1?DIID__IOPOSBillAcceptorEvents@@3U2@B$1?LIBID_OposBillAcceptor_CCO@@3U2@B$00$0A@VCComTypeInfoHolder@ATL@@@ATL@@UEAAJPEAPEAUITypeInfo@@@Z 000000018002e610     BillAcceptor.obj
 0002:0000b610       $unwind$?GetClientSite@?$IOleObjectImpl@VCOPOSBillAcceptor@@@ATL@@UEAAJPEAPEAUIOleClientSite@@@Z 000000018002e610     BillAcceptor.obj
 0002:0000b610       $unwind$?GetConnMap@COPOSBillAcceptor@@SAPEBU_ATL_CONNMAP_ENTRY@ATL@@PEAH@Z 000000018002e610     BillAcceptor.obj
 0002:0000b610       $unwind$?GetTypeInfo@?$IDispatchImpl@UIOPOSBillAcceptor@@$1?IID_IOPOSBillAcceptor@@3U_GUID@@B$1?LIBID_OposBillAcceptor_CCO@@3U3@B$00$0A@VCComTypeInfoHolder@ATL@@@ATL@@UEAAJIKPEAPEAUITypeInfo@@@Z 000000018002e610     BillAcceptor.obj
 0002:0000b610       $unwind$?IOleInPlaceObject_InPlaceDeactivate@CComControlBase@ATL@@QEAAJXZ 000000018002e610     BillAcceptor.obj
 0002:0000b610       $unwind$?IOleObject_SetExtent@CComControlBase@ATL@@QEAAJKPEAUtagSIZE@@@Z 000000018002e610     BillAcceptor.obj
 0002:0000b610       $unwind$?IsEqualObject@?$CComPtrBase@UIOleClientSite@@@ATL@@QEAA_NPEAUIUnknown@@@Z 000000018002e610     BillAcceptor.obj
 0002:0000b610       $unwind$?QueryHitPoint@?$IViewObjectExImpl@VCOPOSBillAcceptor@@@ATL@@UEAAJKPEBUtagRECT@@UtagPOINT@@JPEAK@Z 000000018002e610     BillAcceptor.obj
 0002:0000b610       $unwind$?QueryInterface@?$CComAggObject@VCOPOSBillAcceptor@@@ATL@@UEAAJAEBU_GUID@@PEAPEAX@Z 000000018002e610     BillAcceptor.obj
 0002:0000b610       $unwind$?Release@?$CComObjectCached@VCComClassFactory@ATL@@@ATL@@UEAAKXZ 000000018002e610     BillAcceptor.obj
 0002:0000b610       $unwind$?Unadvise@?$IConnectionPointImpl@VCOPOSBillAcceptor@@$1?DIID__IOPOSBillAcceptorEvents@@3U_GUID@@BVCComDynamicUnkArray@ATL@@@ATL@@UEAAJK@Z 000000018002e610     BillAcceptor.obj
 0002:0000b610       $unwind$?Unadvise@?$IConnectionPointImpl@VCOPOSBillAcceptor@@$1?IID_IPropertyNotifySink@@3U_GUID@@BVCComDynamicUnkArray@ATL@@@ATL@@UEAAJK@Z 000000018002e610     BillAcceptor.obj
 0002:0000b610       $unwind$??1CComControlBase@ATL@@UEAA@XZ 000000018002e610     BillAcceptorImpl.obj
 0002:0000b610       $unwind$??1COPOSBillAcceptor@@UEAA@XZ 000000018002e610     BillAcceptorImpl.obj
 0002:0000b610       $unwind$?EventUninit@COPOSBillAcceptor@@IEAAXXZ 000000018002e610     BillAcceptorImpl.obj
 0002:0000b610       $unwind$?FreezeEvents@COPOSBillAcceptor@@MEAAJH@Z 000000018002e610     BillAcceptorImpl.obj
 0002:0000b610       $unwind$?SOProcessID@COPOSBillAcceptor@@UEAAJPEAJ@Z 000000018002e610     BillAcceptorImpl.obj
 0002:0000b610       $unwind$?get_CapCompareFirmwareVersion@COPOSBillAcceptor@@UEAAJPEAF@Z 000000018002e610     BillAcceptorImpl.obj
 0002:0000b610       $unwind$?get_CapDiscrepancy@COPOSBillAcceptor@@UEAAJPEAF@Z 000000018002e610     BillAcceptorImpl.obj
 0002:0000b610       $unwind$?get_CapFullSensor@COPOSBillAcceptor@@UEAAJPEAF@Z 000000018002e610     BillAcceptorImpl.obj
 0002:0000b610       $unwind$?get_CapJamSensor@COPOSBillAcceptor@@UEAAJPEAF@Z 000000018002e610     BillAcceptorImpl.obj
 0002:0000b610       $unwind$?get_CapNearFullSensor@COPOSBillAcceptor@@UEAAJPEAF@Z 000000018002e610     BillAcceptorImpl.obj
 0002:0000b610       $unwind$?get_CapPauseDeposit@COPOSBillAcceptor@@UEAAJPEAF@Z 000000018002e610     BillAcceptorImpl.obj
 0002:0000b610       $unwind$?get_CapRealTimeData@COPOSBillAcceptor@@UEAAJPEAF@Z 000000018002e610     BillAcceptorImpl.obj
 0002:0000b610       $unwind$?get_CapStatisticsReporting@COPOSBillAcceptor@@UEAAJPEAF@Z 000000018002e610     BillAcceptorImpl.obj
 0002:0000b610       $unwind$?get_CapUpdateFirmware@COPOSBillAcceptor@@UEAAJPEAF@Z 000000018002e610     BillAcceptorImpl.obj
 0002:0000b610       $unwind$?get_CapUpdateStatistics@COPOSBillAcceptor@@UEAAJPEAF@Z 000000018002e610     BillAcceptorImpl.obj
 0002:0000b610       $unwind$?get_Claimed@COPOSBillAcceptor@@UEAAJPEAF@Z 000000018002e610     BillAcceptorImpl.obj
 0002:0000b610       $unwind$?get_DataEventEnabled@COPOSBillAcceptor@@UEAAJPEAF@Z 000000018002e610     BillAcceptorImpl.obj
 0002:0000b610       $unwind$?get_DeviceEnabled@COPOSBillAcceptor@@UEAAJPEAF@Z 000000018002e610     BillAcceptorImpl.obj
 0002:0000b610       $unwind$?get_FreezeEvents@COPOSBillAcceptor@@UEAAJPEAF@Z 000000018002e610     BillAcceptorImpl.obj
 0002:0000b610       $unwind$?get_RealTimeDataEnabled@COPOSBillAcceptor@@UEAAJPEAF@Z 000000018002e610     BillAcceptorImpl.obj
 0002:0000b610       $unwind$?put_FreezeEvents@COPOSBillAcceptor@@UEAAJF@Z 000000018002e610     BillAcceptorImpl.obj
 0002:0000b610       $unwind$?DupWide@_CW@@AEAAXXZ 000000018002e610     CWString.obj
 0002:0000b610       $unwind$??0CAtlComModule@ATL@@QEAA@XZ 000000018002e610     OposVariant.obj
 0002:0000b610       $unwind$??0CAtlWinModule@ATL@@QEAA@XZ 000000018002e610     OposVariant.obj
 0002:0000b610       $unwind$?SetBSTR_OutPtr@OposVariant@@QEAA_NPEAPEA_WAEAJ@Z 000000018002e610     OposVariant.obj
 0002:0000b610       $unwind$??1CAtlBaseModule@ATL@@QEAA@XZ 000000018002e610     atls:atlbase.obj
 0002:0000b610       $unwind$AtlThunk_AllocateData 000000018002e610     atls:atlthunk.obj
 0002:0000b610       $unwind$__raise_securityfailure 000000018002e610     LIBCMT:gs_report.obj
 0002:0000b610       $unwind$??2@YAPEAX_K@Z     000000018002e610     LIBCMT:new_scalar.obj
 0002:0000b610       $unwind$??_Gtype_info@@UEAAPEAXI@Z 000000018002e610     LIBCMT:std_type_info_static.obj
 0002:0000b610       $unwind$_Init_thread_footer 000000018002e610     LIBCMT:thread_safe_statics.obj
 0002:0000b610       $unwind$_Init_thread_header 000000018002e610     LIBCMT:thread_safe_statics.obj
 0002:0000b610       $unwind$_Init_thread_wait  000000018002e610     LIBCMT:thread_safe_statics.obj
 0002:0000b610       $unwind$??0bad_alloc@std@@QEAA@AEBV01@@Z 000000018002e610     LIBCMT:throw_bad_alloc.obj
 0002:0000b610       $unwind$??0bad_array_new_length@std@@QEAA@AEBV01@@Z 000000018002e610     LIBCMT:throw_bad_alloc.obj
 0002:0000b610       $unwind$??0exception@std@@QEAA@AEBV01@@Z 000000018002e610     LIBCMT:throw_bad_alloc.obj
 0002:0000b610       $unwind$__scrt_initialize_crt 000000018002e610     LIBCMT:utility.obj
 0002:0000b610       $unwind$__scrt_initialize_onexit_tables 000000018002e610     LIBCMT:utility.obj
 0002:0000b610       $unwind$__scrt_release_startup_lock 000000018002e610     LIBCMT:utility.obj
 0002:0000b610       $unwind$__scrt_uninitialize_crt 000000018002e610     LIBCMT:utility.obj
 0002:0000b610       $unwind$_onexit            000000018002e610     LIBCMT:utility.obj
 0002:0000b610       $unwind$_IsExceptionObjectToBeDestroyed 000000018002e610     libvcruntime:ehhelpers.obj
 0002:0000b610       $unwind$??0HandlerMap4@FH4@@QEAA@PEBUTryBlockMapEntry4@1@_KH@Z 000000018002e610     libvcruntime:frame.obj
 0002:0000b610       $unwind$??0bad_exception@std@@QEAA@AEBV01@@Z 000000018002e610     libvcruntime:frame.obj
 0002:0000b610       $unwind$?ExFilterRethrow@@YAHPEAU_EXCEPTION_POINTERS@@PEAUEHExceptionRecord@@PEAH@Z 000000018002e610     libvcruntime:frame.obj
 0002:0000b610       $unwind$__vcrt_uninitialize_locks 000000018002e610     libvcruntime:locks.obj
 0002:0000b610       $unwind$__vcrt_freeptd     000000018002e610     libvcruntime:per_thread_data.obj
 0002:0000b610       $unwind$_CreateFrameInfo   000000018002e610     libvcruntime:risctrnsctrl.obj
 0002:0000b610       $unwind$_SetImageBase      000000018002e610     libvcruntime:risctrnsctrl.obj
 0002:0000b610       $unwind$_SetThrowImageBase 000000018002e610     libvcruntime:risctrnsctrl.obj
 0002:0000b610       $unwind$__std_exception_destroy 000000018002e610     libvcruntime:std_exception.obj
 0002:0000b610       $unwind$__std_type_info_destroy_list 000000018002e610     libvcruntime:std_type_info.obj
 0002:0000b610       $unwind$__vcrt_FlsAlloc    000000018002e610     libvcruntime:winapi_downlevel.obj
 0002:0000b610       $unwind$__vcrt_FlsFree     000000018002e610     libvcruntime:winapi_downlevel.obj
 0002:0000b610       $unwind$__vcrt_FlsGetValue 000000018002e610     libvcruntime:winapi_downlevel.obj
 0002:0000b610       $unwind$_calloc_base       000000018002e610     libucrt:calloc_base.obj
 0002:0000b610       $unwind$_malloc_base       000000018002e610     libucrt:malloc_base.obj
 0002:0000b610       $unwind$_callnewh          000000018002e610     libucrt:new_handler.obj
 0002:0000b610       $unwind$initialize_pointers 000000018002e610     libucrt:initialization.obj
 0002:0000b610       $unwind$uninitialize_allocated_memory 000000018002e610     libucrt:initialization.obj
 0002:0000b610       $unwind$__acrt_initialize_locks 000000018002e610     libucrt:locks.obj
 0002:0000b610       $unwind$__acrt_uninitialize_locks 000000018002e610     libucrt:locks.obj
 0002:0000b610       $unwind$__acrt_freeptd     000000018002e610     libucrt:per_thread_data.obj
 0002:0000b610       $unwind$__acrt_getptd_head 000000018002e610     libucrt:per_thread_data.obj
 0002:0000b610       $unwind$__acrt_get_process_end_policy 000000018002e610     libucrt:win_policies.obj
 0002:0000b610       $unwind$__acrt_AppPolicyGetProcessTerminationMethodInternal 000000018002e610     libucrt:winapi_thunks.obj
 0002:0000b610       $unwind$__acrt_FlsAlloc    000000018002e610     libucrt:winapi_thunks.obj
 0002:0000b610       $unwind$__acrt_FlsFree     000000018002e610     libucrt:winapi_thunks.obj
 0002:0000b610       $unwind$__acrt_FlsGetValue 000000018002e610     libucrt:winapi_thunks.obj
 0002:0000b610       $unwind$__acrt_SetThreadStackGuarantee 000000018002e610     libucrt:winapi_thunks.obj
 0002:0000b610       $unwind$__acrt_uninitialize_winapi_thunks 000000018002e610     libucrt:winapi_thunks.obj
 0002:0000b610       $unwind$__acrt_update_locale_info 000000018002e610     libucrt:locale_update.obj
 0002:0000b610       $unwind$__acrt_update_multibyte_info 000000018002e610     libucrt:locale_update.obj
 0002:0000b610       $unwind$__acrt_allocate_buffer_for_argv 000000018002e610     libucrt:argv_parsing.obj
 0002:0000b610       $unwind$?exit_or_terminate_process@@YAXI@Z 000000018002e610     libucrt:exit.obj
 0002:0000b610       $unwind$?try_cor_exit_process@@YAXI@Z 000000018002e610     libucrt:exit.obj
 0002:0000b610       $unwind$__acrt_uninitialize_stdio 000000018002e610     libucrt:_file.obj
 0002:0000b610       $unwind$__acrt_stdio_free_buffer_nolock 000000018002e610     libucrt:_freebuf.obj
 0002:0000b610       $unwind$_fflush_nolock     000000018002e610     libucrt:fflush.obj
 0002:0000b610       $unwind$strcpy_s           000000018002e610     libucrt:strcpy_s.obj
 0002:0000b610       $unwind$wcscat_s           000000018002e610     libucrt:wcscat_s.obj
 0002:0000b610       $unwind$wcscpy_s           000000018002e610     libucrt:wcscpy_s.obj
 0002:0000b610       $unwind$_clrfp             000000018002e610     libucrt:fpctrl.obj
 0002:0000b610       $unwind$_set_statfp        000000018002e610     libucrt:fpctrl.obj
 0002:0000b610       $unwind$_clearfp           000000018002e610     libucrt:ieee.obj
 0002:0000b610       $unwind$_controlfp_s       000000018002e610     libucrt:contrlfp.obj
 0002:0000b610       $unwind$fegetenv           000000018002e610     libucrt:fegetenv.obj
 0002:0000b610       $unwind$feholdexcept       000000018002e610     libucrt:feholdexcept.obj
 0002:0000b610       $unwind$fesetenv           000000018002e610     libucrt:fesetenv.obj
 0002:0000b618       $unwind$?AtlWinModuleExtractCreateWndData@ATL@@YAPEAXPEAU_ATL_WIN_MODULE70@1@@Z 000000018002e618     BillAcceptor.obj
 0002:0000b618       $unwind$?CreateInstance@?$CComCreator@V?$CComObject@VCOPOSBillAcceptor@@@ATL@@@ATL@@SAJPEAXAEBU_GUID@@PEAPEAX@Z 000000018002e618     BillAcceptor.obj
 0002:0000b618       $unwind$?DoEvent@COPOSBillAcceptor@@IEAAXI_K_J@Z 000000018002e618     BillAcceptor.obj
 0002:0000b618       $unwind$?DoVerb@?$IOleObjectImpl@VCOPOSBillAcceptor@@@ATL@@UEAAJJPEAUtagMSG@@PEAUIOleClientSite@@JPEAUHWND__@@PEBUtagRECT@@@Z 000000018002e618     BillAcceptor.obj
 0002:0000b618       $unwind$?HKeyFromString@CRegParser@ATL@@KAPEAUHKEY__@@PEA_W@Z 000000018002e618     BillAcceptor.obj
 0002:0000b618       $unwind$?Next@?$CComEnumImpl@UIEnumConnectionPoints@@$1?_GUID_b196b285_bab4_101a_b69c_00aa00341d07@@3U__s_GUID@@BPEAUIConnectionPoint@@V?$_CopyInterface@UIConnectionPoint@@@ATL@@@ATL@@UEAAJKPEAPEAUIConnectionPoint@@PEAK@Z 000000018002e618     BillAcceptor.obj
 0002:0000b618       $unwind$?Next@?$CComEnumImpl@UIEnumConnections@@$1?_GUID_b196b287_bab4_101a_b69c_00aa00341d07@@3U__s_GUID@@BUtagCONNECTDATA@@V?$_Copy@UtagCONNECTDATA@@@ATL@@@ATL@@UEAAJKPEAUtagCONNECTDATA@@PEAK@Z 000000018002e618     BillAcceptor.obj
 0002:0000b618       $unwind$?SODirectIO@COPOSBillAcceptor@@MEAAJJPEAJPEAPEA_W@Z 000000018002e618     BillAcceptor.obj
 0002:0000b618       $unwind$?SetControlFocus@CComControlBase@ATL@@QEAAHH@Z 000000018002e618     BillAcceptor.obj
 0002:0000b618       $unwind$?ocscpy_s@@YA_NPEA_W_KPEB_W@Z 000000018002e618     BillAcceptor.obj
 0002:0000b618       $unwind$?s_EventWindowProc@COPOSBillAcceptor@@KA_JPEAUHWND__@@I_K_J@Z 000000018002e618     BillAcceptorImpl.obj
 0002:0000b618       $unwind$?AtlWinModuleTerm@ATL@@YAJPEAU_ATL_WIN_MODULE70@1@PEAUHINSTANCE__@@@Z 000000018002e618     OposVariant.obj
 0002:0000b618       $unwind$__scrt_dllmain_exception_filter 000000018002e618     LIBCMT:utility.obj
 0002:0000b618       $unwind$?Is_bad_exception_allowed@@YAEPEBU_s_ESTypeList@@@Z 000000018002e618     libvcruntime:frame.obj
 0002:0000b618       $unwind$_recalloc_base     000000018002e618     libucrt:recalloc.obj
 0002:0000b618       $unwind$__acrt_free_locale 000000018002e618     libucrt:locale_refcounting.obj
 0002:0000b618       $unwind$__acrt_lowio_create_handle_array 000000018002e618     libucrt:osfinfo.obj
 0002:0000b618       $unwind$?setSBCS@@YAXPEAU__crt_multibyte_data@@@Z 000000018002e618     libucrt:mbctype.obj
 0002:0000b618       $unwind$_seh_filter_exe    000000018002e618     libucrt:exception_filter.obj
 0002:0000b618       $unwind$_initterm          000000018002e618     libucrt:initterm.obj
 0002:0000b618       $unwind$??$ensure_buffer_is_big_enough@D@formatting_buffer@__crt_stdio_output@@QEAA_N_K@Z 000000018002e618     libucrt:output.obj
 0002:0000b618       $unwind$??$ensure_buffer_is_big_enough@_W@formatting_buffer@__crt_stdio_output@@QEAA_N_K@Z 000000018002e618     libucrt:output.obj
 0002:0000b62c       $unwind$??_GCRegObject@ATL@@UEAAPEAXI@Z 000000018002e62c     BillAcceptor.obj
 0002:0000b62c       $unwind$?Add@?$CSimpleArray@GV?$CSimpleArrayEqualHelper@G@ATL@@@ATL@@QEAAHAEBG@Z 000000018002e62c     BillAcceptor.obj
 0002:0000b62c       $unwind$?Add@?$CSimpleMap@PEA_WPEA_WVCExpansionVectorEqualHelper@ATL@@@ATL@@QEAAHAEBQEA_W0@Z 000000018002e62c     BillAcceptor.obj
 0002:0000b62c       $unwind$?Add@CComDynamicUnkArray@ATL@@QEAAKPEAUIUnknown@@@Z 000000018002e62c     BillAcceptor.obj
 0002:0000b62c       $unwind$?Advise@?$IOleObjectImpl@VCOPOSBillAcceptor@@@ATL@@UEAAJPEAUIAdviseSink@@PEAK@Z 000000018002e62c     BillAcceptor.obj
 0002:0000b62c       $unwind$?ClearReplacements@CExpansionVector@ATL@@QEAAJXZ 000000018002e62c     BillAcceptor.obj
 0002:0000b62c       $unwind$?CreateInstance@?$CComObject@V?$CComEnum@UIEnumConnectionPoints@@$1?_GUID_b196b285_bab4_101a_b69c_00aa00341d07@@3U__s_GUID@@BPEAUIConnectionPoint@@V?$_CopyInterface@UIConnectionPoint@@@ATL@@VCComSingleThreadModel@6@@ATL@@@ATL@@SAJPEAPEAV12@@Z 000000018002e62c     BillAcceptor.obj
 0002:0000b62c       $unwind$?CreateInstance@?$CComObject@V?$CComEnum@UIEnumConnections@@$1?_GUID_b196b287_bab4_101a_b69c_00aa00341d07@@3U__s_GUID@@BUtagCONNECTDATA@@V?$_Copy@UtagCONNECTDATA@@@ATL@@VCComSingleThreadModel@6@@ATL@@@ATL@@SAJPEAPEAV12@@Z 000000018002e62c     BillAcceptor.obj
 0002:0000b62c       $unwind$?RegisterServer@CComModule@ATL@@QEAAJHPEBU_GUID@@@Z 000000018002e62c     BillAcceptor.obj
 0002:0000b62c       $unwind$?Term@CAtlModule@ATL@@QEAAXXZ 000000018002e62c     BillAcceptor.obj
 0002:0000b62c       $unwind$?UnregisterServer@CComModule@ATL@@QEAAJHPEBU_GUID@@@Z 000000018002e62c     BillAcceptor.obj
 0002:0000b62c       $unwind$?VTFromRegType@CRegParser@ATL@@KAHPEB_WAEAG@Z 000000018002e62c     BillAcceptor.obj
 0002:0000b62c       $unwind$??0OposDispParms@@QEAA@PEAVOposVariant@@H@Z 000000018002e62c     OposVariant.obj
 0002:0000b62c       $unwind$?SetBSTR_Copy@OposVariant@@QEAAXPEA_WAEAJ@Z 000000018002e62c     OposVariant.obj
 0002:0000b62c       $unwind$?SetBSTR_InOutPtr@OposVariant@@QEAA_NPEAPEA_WAEAJ@Z 000000018002e62c     OposVariant.obj
 0002:0000b62c       $unwind$?SetDispatch_Ptr@OposVariant@@QEAAXPEAUIDispatch@@AEAJ@Z 000000018002e62c     OposVariant.obj
 0002:0000b62c       $unwind$?SetLONG_Ptr@OposVariant@@QEAAXPEAJAEAJ@Z 000000018002e62c     OposVariant.obj
 0002:0000b62c       $unwind$?SetString@OposVariant@@QEAAXPEB_WAEAJ@Z 000000018002e62c     OposVariant.obj
 0002:0000b62c       $unwind$?SetVARIANT_BOOL_Ptr@OposVariant@@QEAAXPEAFAEAJ@Z 000000018002e62c     OposVariant.obj
 0002:0000b62c       $unwind$?Term@CAtlComModule@ATL@@QEAAXXZ 000000018002e62c     OposVariant.obj
 0002:0000b62c       $unwind$_DllMainCRTStartup 000000018002e62c     LIBCMT:dll_dllmain.obj
 0002:0000b62c       $unwind$__vcrt_getptd_noexit 000000018002e62c     libvcruntime:per_thread_data.obj
 0002:0000b62c       $unwind$__vcrt_InitializeCriticalSectionEx 000000018002e62c     libvcruntime:winapi_downlevel.obj
 0002:0000b62c       $unwind$memcpy_s           000000018002e62c     libucrt:cfout.obj
 0002:0000b62c       $unwind$__acrt_getptd      000000018002e62c     libucrt:per_thread_data.obj
 0002:0000b62c       $unwind$__acrt_getptd_noexit 000000018002e62c     libucrt:per_thread_data.obj
 0002:0000b62c       $unwind$__acrt_execute_initializers 000000018002e62c     libucrt:shared_initialization.obj
 0002:0000b62c       $unwind$__acrt_InitializeCriticalSectionEx 000000018002e62c     libucrt:winapi_thunks.obj
 0002:0000b62c       $unwind$?free_crt_array_internal@@YAXQEAPEBX_K@Z 000000018002e62c     libucrt:inittime.obj
 0002:0000b62c       $unwind$??$common_lseek_nolock@_J@@YA_JH_JH@Z 000000018002e62c     libucrt:lseek.obj
 0002:0000b62c       $unwind$__acrt_stdio_flush_nolock 000000018002e62c     libucrt:fflush.obj
 0002:0000b62c       $unwind$??0_LocaleUpdate@@QEAA@QEAU__crt_locale_pointers@@@Z 000000018002e62c     libucrt:output.obj
 0002:0000b62c       $unwind$?type_case_Z@?$output_processor@_WV?$string_output_adapter@_W@__crt_stdio_output@@V?$format_validation_base@_WV?$string_output_adapter@_W@__crt_stdio_output@@@2@@__crt_stdio_output@@AEAA_NXZ 000000018002e62c     libucrt:output.obj
 0002:0000b62c       $unwind$?type_case_s@?$output_processor@_WV?$string_output_adapter@_W@__crt_stdio_output@@V?$format_validation_base@_WV?$string_output_adapter@_W@__crt_stdio_output@@@2@@__crt_stdio_output@@AEAA_NXZ 000000018002e62c     libucrt:output.obj
 0002:0000b62c       $unwind$_exception_enabled 000000018002e62c     libucrt:libm_error.obj
 0002:0000b63c       $unwind$?AddTermFunc@CAtlModule@ATL@@QEAAJP6AX_K@Z0@Z 000000018002e63c     BillAcceptor.obj
 0002:0000b63c       $unwind$?AtlComModuleRegisterServer@ATL@@YAJPEAU_ATL_COM_MODULE70@1@HPEBU_GUID@@@Z 000000018002e63c     BillAcceptor.obj
 0002:0000b63c       $unwind$?AtlComModuleUnregisterServer@ATL@@YAJPEAU_ATL_COM_MODULE70@1@HPEBU_GUID@@@Z 000000018002e63c     BillAcceptor.obj
 0002:0000b63c       $unwind$?CreateInstance@?$CComCreator@V?$CComAggObject@VCOPOSBillAcceptor@@@ATL@@@ATL@@SAJPEAXAEBU_GUID@@PEAPEAX@Z 000000018002e63c     BillAcceptor.obj
 0002:0000b63c       $unwind$?CreateInstance@?$CComCreator@V?$CComObjectCached@VCComClassFactory@ATL@@@ATL@@@ATL@@SAJPEAXAEBU_GUID@@PEAPEAX@Z 000000018002e63c     BillAcceptor.obj
 0002:0000b63c       $unwind$?GetPagesHelper@?$ISpecifyPropertyPagesImpl@VCOPOSBillAcceptor@@@ATL@@IEAAJPEAUtagCAUUID@@PEBUATL_PROPMAP_ENTRY@2@@Z 000000018002e63c     BillAcceptor.obj
 0002:0000b63c       $unwind$??_Estringdispid@CComTypeInfoHolder@ATL@@QEAAPEAXI@Z 000000018002e63c     OposVariant.obj
 0002:0000b63c       $unwind$__GSHandlerCheck_SEH 000000018002e63c     LIBCMT:gshandlerseh.obj
 0002:0000b63c       $unwind$??$TypeMatchHelper@V__FrameHandler3@@@@YAHPEBU_s_HandlerType@@PEBU_s_CatchableType@@PEBU_s_ThrowInfo@@@Z 000000018002e63c     libvcruntime:frame.obj
 0002:0000b63c       $unwind$??$TypeMatchHelper@V__FrameHandler4@@@@YAHPEAUHandlerType4@FH4@@PEBU_s_CatchableType@@PEBU_s_ThrowInfo@@@Z 000000018002e63c     libvcruntime:frame.obj
 0002:0000b63c       $unwind$?initialize_stdio_handles_nolock@@YAXXZ 000000018002e63c     libucrt:ioinit.obj
 0002:0000b63c       $unwind$__acrt_initialize_stdio 000000018002e63c     libucrt:_file.obj
 0002:0000b63c       $unwind$?process@?$output_processor@_WV?$string_output_adapter@_W@__crt_stdio_output@@V?$format_validation_base@_WV?$string_output_adapter@_W@__crt_stdio_output@@@2@@__crt_stdio_output@@QEAAHXZ 000000018002e63c     libucrt:output.obj
 0002:0000b63c       $unwind$?type_case_integer@?$output_processor@_WV?$string_output_adapter@_W@__crt_stdio_output@@V?$format_validation_base@_WV?$string_output_adapter@_W@__crt_stdio_output@@@2@@__crt_stdio_output@@AEAA_NI_N@Z 000000018002e63c     libucrt:output.obj
 0002:0000b654       $unwind$??0?$CComContainedObject@VCOPOSBillAcceptor@@@ATL@@QEAA@PEAX@Z 000000018002e654     BillAcceptor.obj
 0002:0000b654       $unwind$??1?$CComEnumImpl@UIEnumConnectionPoints@@$1?_GUID_b196b285_bab4_101a_b69c_00aa00341d07@@3U__s_GUID@@BPEAUIConnectionPoint@@V?$_CopyInterface@UIConnectionPoint@@@ATL@@@ATL@@UEAA@XZ 000000018002e654     BillAcceptor.obj
 0002:0000b654       $unwind$??1?$CComEnumImpl@UIEnumConnections@@$1?_GUID_b196b287_bab4_101a_b69c_00aa00341d07@@3U__s_GUID@@BUtagCONNECTDATA@@V?$_Copy@UtagCONNECTDATA@@@ATL@@@ATL@@UEAA@XZ 000000018002e654     BillAcceptor.obj
 0002:0000b654       $unwind$??_G?$CComAggObject@VCOPOSBillAcceptor@@@ATL@@UEAAPEAXI@Z 000000018002e654     BillAcceptor.obj
 0002:0000b654       $unwind$??_G?$CComContainedObject@VCOPOSBillAcceptor@@@ATL@@UEAAPEAXI@Z 000000018002e654     BillAcceptor.obj
 0002:0000b654       $unwind$??_G?$CComObject@V?$CComEnum@UIEnumConnectionPoints@@$1?_GUID_b196b285_bab4_101a_b69c_00aa00341d07@@3U__s_GUID@@BPEAUIConnectionPoint@@V?$_CopyInterface@UIConnectionPoint@@@ATL@@VCComSingleThreadModel@6@@ATL@@@ATL@@UEAAPEAXI@Z 000000018002e654     BillAcceptor.obj
 0002:0000b654       $unwind$??_G?$CComObject@V?$CComEnum@UIEnumConnections@@$1?_GUID_b196b287_bab4_101a_b69c_00aa00341d07@@3U__s_GUID@@BUtagCONNECTDATA@@V?$_Copy@UtagCONNECTDATA@@@ATL@@VCComSingleThreadModel@6@@ATL@@@ATL@@UEAAPEAXI@Z 000000018002e654     BillAcceptor.obj
 0002:0000b654       $unwind$??_G?$CComObject@VCOPOSBillAcceptor@@@ATL@@UEAAPEAXI@Z 000000018002e654     BillAcceptor.obj
 0002:0000b654       $unwind$??_G?$CComObjectCached@VCComClassFactory@ATL@@@ATL@@UEAAPEAXI@Z 000000018002e654     BillAcceptor.obj
 0002:0000b654       $unwind$??_GCComClassFactory@ATL@@UEAAPEAXI@Z 000000018002e654     BillAcceptor.obj
 0002:0000b654       $unwind$??_GCComModule@ATL@@UEAAPEAXI@Z 000000018002e654     BillAcceptor.obj
 0002:0000b654       $unwind$?DeleteSubKey@CRegKey@ATL@@QEAAJPEB_W@Z 000000018002e654     BillAcceptor.obj
 0002:0000b654       $unwind$?IOleObject_SetClientSite@CComControlBase@ATL@@QEAAJPEAUIOleClientSite@@@Z 000000018002e654     BillAcceptor.obj
 0002:0000b654       $unwind$?InitNew@?$IPersistStorageImpl@VCOPOSBillAcceptor@@@ATL@@UEAAJPEAUIStorage@@@Z 000000018002e654     BillAcceptor.obj
 0002:0000b654       $unwind$?IsDirty@?$IPersistStorageImpl@VCOPOSBillAcceptor@@@ATL@@UEAAJXZ 000000018002e654     BillAcceptor.obj
 0002:0000b654       $unwind$?Release@?$CComAggObject@VCOPOSBillAcceptor@@@ATL@@UEAAKXZ 000000018002e654     BillAcceptor.obj
 0002:0000b654       $unwind$?Release@?$CComObject@V?$CComEnum@UIEnumConnectionPoints@@$1?_GUID_b196b285_bab4_101a_b69c_00aa00341d07@@3U__s_GUID@@BPEAUIConnectionPoint@@V?$_CopyInterface@UIConnectionPoint@@@ATL@@VCComSingleThreadModel@6@@ATL@@@ATL@@UEAAKXZ 000000018002e654     BillAcceptor.obj
 0002:0000b654       $unwind$?Release@?$CComObject@V?$CComEnum@UIEnumConnections@@$1?_GUID_b196b287_bab4_101a_b69c_00aa00341d07@@3U__s_GUID@@BUtagCONNECTDATA@@V?$_Copy@UtagCONNECTDATA@@@ATL@@VCComSingleThreadModel@6@@ATL@@@ATL@@UEAAKXZ 000000018002e654     BillAcceptor.obj
 0002:0000b654       $unwind$?Release@?$CComObject@VCOPOSBillAcceptor@@@ATL@@UEAAKXZ 000000018002e654     BillAcceptor.obj
 0002:0000b654       $unwind$?SOData@COPOSBillAcceptor@@MEAAJJ@Z 000000018002e654     BillAcceptor.obj
 0002:0000b654       $unwind$?SOStatusUpdate@COPOSBillAcceptor@@MEAAJJ@Z 000000018002e654     BillAcceptor.obj
 0002:0000b654       $unwind$?SetAdvise@?$IViewObjectExImpl@VCOPOSBillAcceptor@@@ATL@@UEAAJKKPEAUIAdviseSink@@@Z 000000018002e654     BillAcceptor.obj
 0002:0000b654       $unwind$?Term@CComModule@ATL@@QEAAXXZ 000000018002e654     BillAcceptor.obj
 0002:0000b654       $unwind$DllMain            000000018002e654     BillAcceptor.obj
 0002:0000b654       $unwind$??1?$IConnectionPointImpl@VCOPOSBillAcceptor@@$1?DIID__IOPOSBillAcceptorEvents@@3U_GUID@@BVCComDynamicUnkArray@ATL@@@ATL@@QEAA@XZ 000000018002e654     BillAcceptorImpl.obj
 0002:0000b654       $unwind$??1?$IConnectionPointImpl@VCOPOSBillAcceptor@@$1?IID_IPropertyNotifySink@@3U_GUID@@BVCComDynamicUnkArray@ATL@@@ATL@@QEAA@XZ 000000018002e654     BillAcceptorImpl.obj
 0002:0000b654       $unwind$?EventWindowProc@COPOSBillAcceptor@@IEAA_JI_K_J@Z 000000018002e654     BillAcceptorImpl.obj
 0002:0000b654       $unwind$?SetBSTR@OposVariant@@QEAAXPEA_WAEAJ@Z 000000018002e654     OposVariant.obj
 0002:0000b654       $unwind$?SetLONG@OposVariant@@QEAAXJ@Z 000000018002e654     OposVariant.obj
 0002:0000b654       $unwind$?SetVARIANT_BOOL@OposVariant@@QEAAXF@Z 000000018002e654     OposVariant.obj
 0002:0000b654       $unwind$??0CAtlBaseModule@ATL@@QEAA@XZ 000000018002e654     atls:atlbase.obj
 0002:0000b654       $unwind$??$GetProcAddressAll@P6AP6A_JPEAUHWND__@@I_K_J@ZPEAUAtlThunkData_t@@@Z@@YAP6AP6A_JPEAUHWND__@@I_K_J@ZPEAUAtlThunkData_t@@@ZPEAP6AP6A_J0I12@Z3@Z@Z 000000018002e654     atls:atlthunk.obj
 0002:0000b654       $unwind$??$GetProcAddressAll@P6APEAUAtlThunkData_t@@XZ@@YAP6APEAUAtlThunkData_t@@XZPEAP6APEAU0@XZ@Z 000000018002e654     atls:atlthunk.obj
 0002:0000b654       $unwind$??$GetProcAddressAll@P6AXPEAUAtlThunkData_t@@@Z@@YAP6AXPEAUAtlThunkData_t@@@ZPEAP6AX0@Z@Z 000000018002e654     atls:atlthunk.obj
 0002:0000b654       $unwind$??$GetProcAddressAll@P6AXPEAUAtlThunkData_t@@PEAX_K@Z@@YAP6AXPEAUAtlThunkData_t@@PEAX_K@ZPEAP6AX012@Z@Z 000000018002e654     atls:atlthunk.obj
 0002:0000b654       $unwind$?__AllocStdCallThunk_cmn@@YAPEAXXZ 000000018002e654     atls:atlthunk.obj
 0002:0000b654       $unwind$?__InitializeThunkPool@@YAHXZ 000000018002e654     atls:atlthunk.obj
 0002:0000b654       $unwind$AtlThunk_DataToCode 000000018002e654     atls:atlthunk.obj
 0002:0000b654       $unwind$_RTC_Initialize    000000018002e654     LIBCMT:initsect.obj
 0002:0000b654       $unwind$_RTC_Terminate     000000018002e654     LIBCMT:initsect.obj
 0002:0000b654       $unwind$?__scrt_initialize_thread_safe_statics@@YAHXZ 000000018002e654     LIBCMT:thread_safe_statics.obj
 0002:0000b654       $unwind$??_Gbad_alloc@std@@UEAAPEAXI@Z 000000018002e654     LIBCMT:throw_bad_alloc.obj
 0002:0000b654       $unwind$??_Gbad_array_new_length@std@@UEAAPEAXI@Z 000000018002e654     LIBCMT:throw_bad_alloc.obj
 0002:0000b654       $unwind$??_Gexception@std@@UEAAPEAXI@Z 000000018002e654     LIBCMT:throw_bad_alloc.obj
 0002:0000b654       $unwind$__FrameUnwindFilter 000000018002e654     libvcruntime:ehhelpers.obj
 0002:0000b654       $unwind$??_Gbad_exception@std@@UEAAPEAXI@Z 000000018002e654     libvcruntime:frame.obj
 0002:0000b654       $unwind$?ExFilterRethrowFH4@@YAHPEAU_EXCEPTION_POINTERS@@PEAUEHExceptionRecord@@HPEAH@Z 000000018002e654     libvcruntime:frame.obj
 0002:0000b654       $unwind$_FindAndUnlinkFrame 000000018002e654     libvcruntime:risctrnsctrl.obj
 0002:0000b654       $unwind$__vcrt_FlsSetValue 000000018002e654     libvcruntime:winapi_downlevel.obj
 0002:0000b654       $unwind$??$common_initialize_environment_nolock@D@@YAHXZ 000000018002e654     libucrt:environment_initialization.obj
 0002:0000b654       $unwind$_realloc_base      000000018002e654     libucrt:realloc_base.obj
 0002:0000b654       $unwind$?replace_current_thread_locale_nolock@@YAXQEAU__acrt_ptd@@QEAU__crt_locale_data@@@Z 000000018002e654     libucrt:per_thread_data.obj
 0002:0000b654       $unwind$__acrt_execute_uninitializers 000000018002e654     libucrt:shared_initialization.obj
 0002:0000b654       $unwind$__acrt_FlsSetValue 000000018002e654     libucrt:winapi_thunks.obj
 0002:0000b654       $unwind$__acrt_LocaleNameToLCID 000000018002e654     libucrt:winapi_thunks.obj
 0002:0000b654       $unwind$_updatetlocinfoEx_nolock 000000018002e654     libucrt:locale_refcounting.obj
 0002:0000b654       $unwind$_close_nolock      000000018002e654     libucrt:close.obj
 0002:0000b654       $unwind$__acrt_uninitialize_lowio 000000018002e654     libucrt:ioinit.obj
 0002:0000b654       $unwind$__acrt_errno_map_os_error 000000018002e654     libucrt:errno.obj
 0002:0000b654       $unwind$_initterm_e        000000018002e654     libucrt:initterm.obj
 0002:0000b654       $unwind$_fclose_nolock     000000018002e654     libucrt:fclose.obj
 0002:0000b654       $unwind$?type_case_n@?$output_processor@_WV?$string_output_adapter@_W@__crt_stdio_output@@V?$format_validation_base@_WV?$string_output_adapter@_W@__crt_stdio_output@@@2@@__crt_stdio_output@@AEAA_NXZ 000000018002e654     libucrt:output.obj
 0002:0000b654       $unwind$strncpy_s          000000018002e654     libucrt:strncpy_s.obj
 0002:0000b654       $unwind$wcsncpy_s          000000018002e654     libucrt:wcsncpy_s.obj
 0002:0000b660       $unwind$?ChangeBSTR@OposVariant@@QEAAXPEAPEA_WAEAJ@Z 000000018002e660     OposVariant.obj
 0002:0000b660       $unwind$?ChangeLONG@OposVariant@@QEAAXPEAJAEAJ@Z 000000018002e660     OposVariant.obj
 0002:0000b660       $unwind$?x_ismbbtype_l@@YAHPEAU__crt_locale_pointers@@IHH@Z 000000018002e660     libucrt:ismbbyte.obj
 0002:0000b670       $unwind$swprintf_s         000000018002e670     BillAcceptor.obj
 0002:0000b680       $unwind$?_AtlVerifyStackAvailable@_ATL_SAFE_ALLOCA_IMPL@ATL@@YA_N_K@Z 000000018002e680     BillAcceptor.obj
 0002:0000b6ac       $unwind$?filt$0@?0??_AtlVerifyStackAvailable@_ATL_SAFE_ALLOCA_IMPL@ATL@@YA_N_K@Z@4HA 000000018002e6ac     BillAcceptor.obj
 0002:0000b6ac       $unwind$?fin$0@?0??dllmain_crt_process_attach@@YAHQEAUHINSTANCE__@@QEAX@Z@4HA 000000018002e6ac     LIBCMT:dll_dllmain.obj
 0002:0000b6ac       $unwind$?fin$0@?0??dllmain_crt_process_detach@@YAH_N@Z@4HA 000000018002e6ac     LIBCMT:dll_dllmain.obj
 0002:0000b6ac       $unwind$?fin$1@?0??dllmain_crt_process_detach@@YAH_N@Z@4HA 000000018002e6ac     LIBCMT:dll_dllmain.obj
 0002:0000b6ac       $unwind$_IsNonwritableInCurrentImage$filt$0 000000018002e6ac     LIBCMT:pesect.obj
 0002:0000b6ac       $unwind$?filt$0@?0??CxxCallCatchBlock@__FrameHandler4@@SAPEAXPEAU_EXCEPTION_RECORD@@@Z@4HA 000000018002e6ac     libvcruntime:frame.obj
 0002:0000b6ac       $unwind$_query_new_handler$fin$0 000000018002e6ac     libucrt:new_handler.obj
 0002:0000b6ac       $unwind$?fin$0@?0???$?RV<lambda_0ae27a3a962d80f24befdcbee591983d>@@AEAV<lambda_8d0ee55de4b1038c4002e0adecdf1839>@@V<lambda_dc504788e8f1664fe9b84e20bfb512f2>@@@?$__crt_seh_guarded_call@X@@QEAAX$$QEAV<lambda_0ae27a3a962d80f24befdcbee591983d>@@AEAV<lambda_8d0ee55de4b1038c4002e0adecdf1839>@@$$QEAV<lambda_dc504788e8f1664fe9b84e20bfb512f2>@@@Z@4HA 000000018002e6ac     libucrt:per_thread_data.obj
 0002:0000b6ac       $unwind$?fin$0@?0???$?RV<lambda_2d41944a1d46af3157314b8a01080d33>@@AEAV<lambda_8f455de75cd7d7f24b4096f044d8b9e6>@@V<lambda_aa500f224e6afead328df44964fe2772>@@@?$__crt_seh_guarded_call@X@@QEAAX$$QEAV<lambda_2d41944a1d46af3157314b8a01080d33>@@AEAV<lambda_8f455de75cd7d7f24b4096f044d8b9e6>@@$$QEAV<lambda_aa500f224e6afead328df44964fe2772>@@@Z@4HA 000000018002e6ac     libucrt:per_thread_data.obj
 0002:0000b6ac       $unwind$?fin$0@?0???$?RV<lambda_aa87e3671a710a21b5dc78c0bdf72e11>@@AEAV<lambda_92619d2358a28f41a33ba319515a20b9>@@V<lambda_6992ecaafeb10aed2b74cb1fae11a551>@@@?$__crt_seh_guarded_call@X@@QEAAX$$QEAV<lambda_aa87e3671a710a21b5dc78c0bdf72e11>@@AEAV<lambda_92619d2358a28f41a33ba319515a20b9>@@$$QEAV<lambda_6992ecaafeb10aed2b74cb1fae11a551>@@@Z@4HA 000000018002e6ac     libucrt:per_thread_data.obj
 0002:0000b6ac       $unwind$?fin$0@?0???$?RV<lambda_f2e299630e499de9f9a165e60fcd3db5>@@AEAV<lambda_2ae9d31cdba2644fcbeaf08da7c24588>@@V<lambda_40d01ff24d0e7b3814fdbdcee8eab3c7>@@@?$__crt_seh_guarded_call@X@@QEAAX$$QEAV<lambda_f2e299630e499de9f9a165e60fcd3db5>@@AEAV<lambda_2ae9d31cdba2644fcbeaf08da7c24588>@@$$QEAV<lambda_40d01ff24d0e7b3814fdbdcee8eab3c7>@@@Z@4HA 000000018002e6ac     libucrt:per_thread_data.obj
 0002:0000b6ac       $unwind$__acrt_update_thread_locale_data$fin$0 000000018002e6ac     libucrt:locale_refcounting.obj
 0002:0000b6ac       $unwind$?fin$0@?0???$?RV<lambda_410d79af7f07d98d83a3f525b3859a53>@@AEAV<lambda_3e16ef9562a7dcce91392c22ab16ea36>@@V<lambda_38119f0e861e05405d8a144b9b982f0a>@@@?$__crt_seh_guarded_call@X@@QEAAX$$QEAV<lambda_410d79af7f07d98d83a3f525b3859a53>@@AEAV<lambda_3e16ef9562a7dcce91392c22ab16ea36>@@$$QEAV<lambda_38119f0e861e05405d8a144b9b982f0a>@@@Z@4HA 000000018002e6ac     libucrt:wsetlocale.obj
 0002:0000b6ac       $unwind$?fin$0@?0???$?RV<lambda_751a882b2c74d4b022dec766aa51a29a>@@AEAV<lambda_628dfdc04ba53c8bfc02c9951375f3f5>@@V<lambda_f6c7be5f7998530c34de24c7437d6b54>@@@?$__crt_seh_guarded_call@H@@QEAAH$$QEAV<lambda_751a882b2c74d4b022dec766aa51a29a>@@AEAV<lambda_628dfdc04ba53c8bfc02c9951375f3f5>@@$$QEAV<lambda_f6c7be5f7998530c34de24c7437d6b54>@@@Z@4HA 000000018002e6ac     libucrt:close.obj
 0002:0000b6ac       $unwind$?fin$0@?0???$?RV<lambda_a37b2b86f63e897a80ea819b0eb08c01>@@AEAV<lambda_38ce7e780aa69e748d6df282ebc68efe>@@V<lambda_99fb1378e971ab6e7edea83e3a7a83a2>@@@?$__crt_seh_guarded_call@H@@QEAAH$$QEAV<lambda_a37b2b86f63e897a80ea819b0eb08c01>@@AEAV<lambda_38ce7e780aa69e748d6df282ebc68efe>@@$$QEAV<lambda_99fb1378e971ab6e7edea83e3a7a83a2>@@@Z@4HA 000000018002e6ac     libucrt:commit.obj
 0002:0000b6ac       $unwind$__acrt_initialize_lowio$fin$0 000000018002e6ac     libucrt:ioinit.obj
 0002:0000b6ac       $unwind$__acrt_lowio_ensure_fh_exists$fin$0 000000018002e6ac     libucrt:osfinfo.obj
 0002:0000b6ac       $unwind$_write$fin$0       000000018002e6ac     libucrt:write.obj
 0002:0000b6ac       $unwind$?fin$0@?0???$?RV<lambda_efdfa57d1f175319df784efa44bb7b81>@@AEAV<lambda_5f0a4c1567f8adc6734073e5d1e1b35c>@@V<lambda_2e8a7d3640ea6ccb4c2413664c2db6fd>@@@?$__crt_seh_guarded_call@X@@QEAAX$$QEAV<lambda_efdfa57d1f175319df784efa44bb7b81>@@AEAV<lambda_5f0a4c1567f8adc6734073e5d1e1b35c>@@$$QEAV<lambda_2e8a7d3640ea6ccb4c2413664c2db6fd>@@@Z@4HA 000000018002e6ac     libucrt:mbctype.obj
 0002:0000b6ac       $unwind$?fin$0@?0??update_thread_multibyte_data_internal@@YAPEAU__crt_multibyte_data@@QEAU__acrt_ptd@@QEAPEAU1@@Z@4HA 000000018002e6ac     libucrt:mbctype.obj
 0002:0000b6ac       $unwind$?fin$0@?0???$?RV<lambda_450d765d439847d4c735a33c368b5fc0>@@AEAV<lambda_44731a7d0e6d81c3e6aa82d741081786>@@V<lambda_601a2a7da3b7a96e9554ac7215c4b07c>@@@?$__crt_seh_guarded_call@P6AXH@Z@@QEAAP6AXH@Z$$QEAV<lambda_450d765d439847d4c735a33c368b5fc0>@@AEAV<lambda_44731a7d0e6d81c3e6aa82d741081786>@@$$QEAV<lambda_601a2a7da3b7a96e9554ac7215c4b07c>@@@Z@4HA 000000018002e6ac     libucrt:signal.obj
 0002:0000b6ac       $unwind$raise$fin$0        000000018002e6ac     libucrt:signal.obj
 0002:0000b6ac       $unwind$?filt$0@?0???R<lambda_6e4b09c48022b2350581041d5f6b0c4c>@@QEBA@XZ@4HA 000000018002e6ac     libucrt:exit.obj
 0002:0000b6ac       $unwind$?fin$0@?0???$?RV<lambda_d80eeec6fff315bfe5c115232f3240e3>@@AEAV<lambda_6e4b09c48022b2350581041d5f6b0c4c>@@V<lambda_2358e3775559c9db80273638284d5e45>@@@?$__crt_seh_guarded_call@X@@QEAAX$$QEAV<lambda_d80eeec6fff315bfe5c115232f3240e3>@@AEAV<lambda_6e4b09c48022b2350581041d5f6b0c4c>@@$$QEAV<lambda_2358e3775559c9db80273638284d5e45>@@@Z@4HA 000000018002e6ac     libucrt:exit.obj
 0002:0000b6ac       $unwind$?fin$0@?0???$?RV<lambda_638799b9deba96c50f710eeac98168cd>@@AEAV<lambda_22ebabd17bc4fa466a2aca6d8deb888d>@@V<lambda_a6f7d7db0129f75315ebf26d50c089f1>@@@?$__crt_seh_guarded_call@H@@QEAAH$$QEAV<lambda_638799b9deba96c50f710eeac98168cd>@@AEAV<lambda_22ebabd17bc4fa466a2aca6d8deb888d>@@$$QEAV<lambda_a6f7d7db0129f75315ebf26d50c089f1>@@@Z@4HA 000000018002e6ac     libucrt:onexit.obj
 0002:0000b6ac       $unwind$?fin$0@?0???$?RV<lambda_7777bce6b2f8c936911f934f8298dc43>@@AEAV<lambda_f03950bc5685219e0bcd2087efbe011e>@@V<lambda_3883c3dff614d5e0c5f61bb1ac94921c>@@@?$__crt_seh_guarded_call@H@@QEAAH$$QEAV<lambda_7777bce6b2f8c936911f934f8298dc43>@@AEAV<lambda_f03950bc5685219e0bcd2087efbe011e>@@$$QEAV<lambda_3883c3dff614d5e0c5f61bb1ac94921c>@@@Z@4HA 000000018002e6ac     libucrt:onexit.obj
 0002:0000b6ac       $unwind$_fcloseall$fin$0   000000018002e6ac     libucrt:closeall.obj
 0002:0000b6ac       $unwind$fclose$fin$0       000000018002e6ac     libucrt:fclose.obj
 0002:0000b6ac       $unwind$?fin$0@?0???$?RV<lambda_842d9ff0dc9ef11c61343bbaebe7f885>@@AEAV<lambda_c5860995281e5c4ce005b3de8f5874ee>@@V<lambda_d90129c13df834fdcbf8d2b88dafcf2d>@@@?$__crt_seh_guarded_call@X@@QEAAX$$QEAV<lambda_842d9ff0dc9ef11c61343bbaebe7f885>@@AEAV<lambda_c5860995281e5c4ce005b3de8f5874ee>@@$$QEAV<lambda_d90129c13df834fdcbf8d2b88dafcf2d>@@@Z@4HA 000000018002e6ac     libucrt:fflush.obj
 0002:0000b6ac       $unwind$?fin$0@?0???$?RV<lambda_886d6c58226a84441f68b9f2b8217b83>@@AEAV<lambda_ab61a845afdef5b7c387490eaf3616ee>@@V<lambda_f7f22ab5edc0698d5f6905b0d3f44752>@@@?$__crt_seh_guarded_call@X@@QEAAX$$QEAV<lambda_886d6c58226a84441f68b9f2b8217b83>@@AEAV<lambda_ab61a845afdef5b7c387490eaf3616ee>@@$$QEAV<lambda_f7f22ab5edc0698d5f6905b0d3f44752>@@@Z@4HA 000000018002e6ac     libucrt:fflush.obj
 0002:0000b6ac       $unwind$_ctrlfp$filt$0     000000018002e6ac     libucrt:fpctrl.obj
 0002:0000b6ac       $unwind$common_control87$filt$0 000000018002e6ac     libucrt:ieee.obj
 0002:0000b6b4       $unwind$?AtlInternalOleLoadFromStream@ATL@@YAJPEAUIStream@@AEBU_GUID@@PEAPEAXTClassesAllowedInStream@1@K@Z 000000018002e6b4     BillAcceptor.obj
 0002:0000b6d0       $unwind$?ReadFromStream@CComBSTR@ATL@@QEAAJPEAUIStream@@@Z 000000018002e6d0     BillAcceptor.obj
 0002:0000b6d0       $unwind$_configure_narrow_argv 000000018002e6d0     libucrt:argv_parsing.obj
 0002:0000b6e4       $unwind$?WriteToStream@CComVariant@ATL@@QEAAJPEAUIStream@@@Z 000000018002e6e4     BillAcceptor.obj
 0002:0000b6f8       $unwind$?RegOpenKeyExW@CAtlTransactionManager@ATL@@QEAAJPEAUHKEY__@@PEB_WKKPEAPEAU3@@Z 000000018002e6f8     BillAcceptor.obj
 0002:0000b6f8       $unwind$?WriteToStream@CComVariant@ATL@@QEAAJPEAUIStream@@G@Z 000000018002e6f8     BillAcceptor.obj
 0002:0000b6f8       $unwind$__dcrt_write_console 000000018002e6f8     libucrt:initcon.obj
 0002:0000b6f8       $unwind$??$__acrt_wcs_to_mbs_cp@U__crt_win32_buffer_no_resizing@@@@YAHQEB_WAEAV?$__crt_win32_buffer@DU__crt_win32_buffer_no_resizing@@@@I@Z 000000018002e6f8     libucrt:getmodulefilenamea.obj
 0002:0000b70c       $unwind$?ReadFromStream@CComVariant@ATL@@QEAAJPEAUIStream@@GTClassesAllowedInStream@2@K@Z 000000018002e70c     BillAcceptor.obj
 0002:0000b724       $unwind$?GetSizeMax@CComVariant@ATL@@QEBAJPEAT_ULARGE_INTEGER@@@Z 000000018002e724     BillAcceptor.obj
 0002:0000b73c       $unwind$?RegCreateKeyExW@CAtlTransactionManager@ATL@@QEAAJPEAUHKEY__@@PEB_WKPEA_WKKQEAU_SECURITY_ATTRIBUTES@@PEAPEAU3@PEAK@Z 000000018002e73c     BillAcceptor.obj
 0002:0000b750       $unwind$?GetGITPtr@CAtlModule@ATL@@UEAAJPEAPEAUIGlobalInterfaceTable@@@Z 000000018002e750     BillAcceptor.obj
 0002:0000b750       $unwind$?RegDeleteKeyW@CAtlTransactionManager@ATL@@QEAAJPEAUHKEY__@@PEB_W@Z 000000018002e750     BillAcceptor.obj
 0002:0000b750       $unwind$?getStateFromIterators@UWMap4@FH4@@SAHAEBViterator@12@H0H0@Z 000000018002e750     libvcruntime:frame.obj
 0002:0000b760       $unwind$?AtlHiMetricToPixel@ATL@@YAXPEBUtagSIZE@@PEAU2@@Z 000000018002e760     BillAcceptor.obj
 0002:0000b760       $unwind$?AtlInternalQueryInterface@ATL@@YAJPEAXPEBU_ATL_INTMAP_ENTRY@1@AEBU_GUID@@PEAPEAX@Z 000000018002e760     BillAcceptor.obj
 0002:0000b778       $unwind$?Append@CParseBuffer@CRegParser@ATL@@QEAAHPEB_WH@Z 000000018002e778     BillAcceptor.obj
 0002:0000b778       $unwind$?AtlComModuleGetClassObject@ATL@@YAJPEAU_ATL_COM_MODULE70@1@AEBU_GUID@@1PEAPEAX@Z 000000018002e778     BillAcceptor.obj
 0002:0000b778       $unwind$?EnumConnections@?$IConnectionPointImpl@VCOPOSBillAcceptor@@$1?DIID__IOPOSBillAcceptorEvents@@3U_GUID@@BVCComDynamicUnkArray@ATL@@@ATL@@UEAAJPEAPEAUIEnumConnections@@@Z 000000018002e778     BillAcceptor.obj
 0002:0000b778       $unwind$?EnumConnections@?$IConnectionPointImpl@VCOPOSBillAcceptor@@$1?IID_IPropertyNotifySink@@3U_GUID@@BVCComDynamicUnkArray@ATL@@@ATL@@UEAAJPEAPEAUIEnumConnections@@@Z 000000018002e778     BillAcceptor.obj
 0002:0000b778       $unwind$?GetClassObject@CComModule@ATL@@QEAAJAEBU_GUID@@0PEAPEAX@Z 000000018002e778     BillAcceptor.obj
 0002:0000b778       $unwind$?Init@?$CComEnumImpl@UIEnumConnectionPoints@@$1?_GUID_b196b285_bab4_101a_b69c_00aa00341d07@@3U__s_GUID@@BPEAUIConnectionPoint@@V?$_CopyInterface@UIConnectionPoint@@@ATL@@@ATL@@QEAAJPEAPEAUIConnectionPoint@@0PEAUIUnknown@@W4CComEnumFlags@2@@Z 000000018002e778     BillAcceptor.obj
 0002:0000b778       $unwind$?Init@?$CComEnumImpl@UIEnumConnections@@$1?_GUID_b196b287_bab4_101a_b69c_00aa00341d07@@3U__s_GUID@@BUtagCONNECTDATA@@V?$_Copy@UtagCONNECTDATA@@@ATL@@@ATL@@QEAAJPEAUtagCONNECTDATA@@0PEAUIUnknown@@W4CComEnumFlags@2@@Z 000000018002e778     BillAcceptor.obj
 0002:0000b778       $unwind$?NextToken@CRegParser@ATL@@IEAAJPEA_W@Z 000000018002e778     BillAcceptor.obj
 0002:0000b778       $unwind$__acrt_fp_strflt_to_string 000000018002e778     libucrt:_fptostr.obj
 0002:0000b778       $unwind$__acrt_DownlevelLocaleNameToLCID 000000018002e778     libucrt:lcidtoname_downlevel.obj
 0002:0000b778       $unwind$??R<lambda_f03950bc5685219e0bcd2087efbe011e>@@QEBAHXZ 000000018002e778     libucrt:onexit.obj
 0002:0000b790       $unwind$?AtlRegisterClassCategoriesHelper@ATL@@YAJAEBU_GUID@@PEBU_ATL_CATMAP_ENTRY@1@H@Z 000000018002e790     BillAcceptor.obj
 0002:0000b7b4       $unwind$?AtlLoadTypeLib@ATL@@YAJPEAUHINSTANCE__@@PEB_WPEAPEA_WPEAPEAUITypeLib@@@Z 000000018002e7b4     BillAcceptor.obj
 0002:0000b7d4       $unwind$?AtlRegisterTypeLib@ATL@@YAJPEAUHINSTANCE__@@PEB_W@Z 000000018002e7d4     BillAcceptor.obj
 0002:0000b7f0       $unwind$?AtlUnRegisterTypeLib@ATL@@YAJPEAUHINSTANCE__@@PEB_W@Z 000000018002e7f0     BillAcceptor.obj
 0002:0000b7f8       $unwind$?GetTI@CComTypeInfoHolder@ATL@@QEAAJK@Z 000000018002e7f8     BillAcceptor.obj
 0002:0000b7f8       $unwind$?RecurseDeleteKey@CRegKey@ATL@@QEAAJPEB_W@Z 000000018002e7f8     BillAcceptor.obj
 0002:0000b818       $unwind$?UpdateRegistryFromResource@CAtlModule@ATL@@QEAAJIHPEAU_ATL_REGMAP_ENTRY@2@@Z 000000018002e818     BillAcceptor.obj
 0002:0000b818       $unwind$?UpdateRegistryFromResource@CAtlModule@ATL@@QEAAJPEB_WHPEAU_ATL_REGMAP_ENTRY@2@@Z 000000018002e818     BillAcceptor.obj
 0002:0000b838       $unwind$?Lookup@?$CSimpleMap@PEA_WPEA_WVCExpansionVectorEqualHelper@ATL@@@ATL@@QEBAPEA_WAEBQEA_W@Z 000000018002e838     BillAcceptor.obj
 0002:0000b838       $unwind$__std_exception_copy 000000018002e838     libvcruntime:std_exception.obj
 0002:0000b838       $unwind$_free_osfhnd       000000018002e838     libucrt:osfinfo.obj
 0002:0000b84c       $unwind$?Add@CExpansionVector@ATL@@QEAAHPEB_W0@Z 000000018002e84c     BillAcceptor.obj
 0002:0000b864       $unwind$?PreProcessBuffer@CRegParser@ATL@@QEAAJPEA_WPEAPEA_W@Z 000000018002e864     BillAcceptor.obj
 0002:0000b888       $unwind$?RegisterBuffer@CRegParser@ATL@@QEAAJPEA_WH@Z 000000018002e888     BillAcceptor.obj
 0002:0000b8a8       $unwind$?AddValue@CRegParser@ATL@@IEAAJAEAVCRegKey@2@PEB_WPEA_W@Z 000000018002e8a8     BillAcceptor.obj
 0002:0000b8c8       $unwind$?RegisterSubkeys@CRegParser@ATL@@IEAAJPEA_WPEAUHKEY__@@HH@Z 000000018002e8c8     BillAcceptor.obj
 0002:0000b8e8       $unwind$?SkipAssignment@CRegParser@ATL@@IEAAJPEA_W@Z 000000018002e8e8     BillAcceptor.obj
 0002:0000b900       $unwind$?RegisterFromResource@CRegObject@ATL@@IEAAJPEB_W00H@Z 000000018002e900     BillAcceptor.obj
 0002:0000b920       $unwind$?Cleanup@CComTypeInfoHolder@ATL@@SAX_K@Z 000000018002e920     BillAcceptor.obj
 0002:0000b920       $unwind$AtlThunk_FreeData  000000018002e920     atls:atlthunk.obj
 0002:0000b920       $unwind$_free_base         000000018002e920     libucrt:free_base.obj
 0002:0000b920       $unwind$?destroy_fls@@YAXPEAX@Z 000000018002e920     libucrt:per_thread_data.obj
 0002:0000b920       $unwind$__acrt_locale_free_numeric 000000018002e920     libucrt:initnum.obj
 0002:0000b920       $unwind$__acrt_locale_free_lc_time_if_unreferenced 000000018002e920     libucrt:locale_refcounting.obj
 0002:0000b928       $unwind$?GetIDsOfNames@CComTypeInfoHolder@ATL@@QEAAJAEBU_GUID@@PEAPEA_WIKPEAJ@Z 000000018002e928     BillAcceptor.obj
 0002:0000b944       $unwind$?LoadNameCache@CComTypeInfoHolder@ATL@@QEAAJPEAUITypeInfo@@@Z 000000018002e944     BillAcceptor.obj
 0002:0000b958       $unwind$?StartWindowProc@?$CWindowImplBaseT@VCWindow@ATL@@V?$CWinTraits@$0FGAAAAAA@$0A@@2@@ATL@@SA_JPEAUHWND__@@I_K_J@Z 000000018002e958     BillAcceptor.obj
 0002:0000b958       $unwind$?should_round_up@@YA_NQEBN_KFW4__acrt_rounding_mode@@@Z 000000018002e958     libucrt:cvt.obj
 0002:0000b958       $unwind$??$parse_command_line@D@@YAXPEADPEAPEAD0PEA_K2@Z 000000018002e958     libucrt:argv_parsing.obj
 0002:0000b974       $unwind$?WindowProc@?$CWindowImplBaseT@VCWindow@ATL@@V?$CWinTraits@$0FGAAAAAA@$0A@@2@@ATL@@SA_JPEAUHWND__@@I_K_J@Z 000000018002e974     BillAcceptor.obj
 0002:0000b98c       $unwind$?atlCreate@?$CWindowImplBaseT@VCWindow@ATL@@V?$CWinTraits@$0FGAAAAAA@$0A@@2@@ATL@@QEAAPEAUHWND__@@PEAU3@V_U_RECT@2@PEB_WKKV_U_MENUorID@2@GPEAX@Z 000000018002e98c     BillAcceptor.obj
 0002:0000b9a4       $unwind$??$AtlModuleRegisterWndClassInfoT@VAtlModuleRegisterWndClassInfoParamW@ATL@@@ATL@@YAGPEAU_ATL_BASE_MODULE70@0@PEAU_ATL_WIN_MODULE70@0@PEAU_ATL_WNDCLASSINFOW@0@PEAP6A_JPEAUHWND__@@I_K_J@ZVAtlModuleRegisterWndClassInfoParamW@0@@Z 000000018002e9a4     BillAcceptor.obj
 0002:0000b9c4       $unwind$?GetZoomInfo@CComControlBase@ATL@@QEAAXAEAUATL_DRAWINFO@@@Z 000000018002e9c4     BillAcceptor.obj
 0002:0000b9c4       $unwind$?OnKillFocus@CComControlBase@ATL@@QEAA_JI_K_JAEAH@Z 000000018002e9c4     BillAcceptor.obj
 0002:0000b9c4       $unwind$iswctype           000000018002e9c4     libucrt:iswctype.obj
 0002:0000b9d0       $unwind$?SendOnDataChange@CComControlBase@ATL@@QEAAJK@Z 000000018002e9d0     BillAcceptor.obj
 0002:0000b9e0       $unwind$?OnSetFocus@CComControlBase@ATL@@QEAA_JI_K_JAEAH@Z 000000018002e9e0     BillAcceptor.obj
 0002:0000b9f0       $unwind$?OnMouseActivate@CComControlBase@ATL@@QEAA_JI_K_JAEAH@Z 000000018002e9f0     BillAcceptor.obj
 0002:0000b9f8       $unwind$?GetAmbientLocaleID@CComControlBase@ATL@@QEAAJAEAK@Z 000000018002e9f8     BillAcceptor.obj
 0002:0000b9f8       $unwind$?GetAmbientUserMode@CComControlBase@ATL@@QEAAJAEAH@Z 000000018002e9f8     BillAcceptor.obj
 0002:0000ba08       $unwind$?IQuickActivate_QuickActivate@CComControlBase@ATL@@QEAAJPEAUtagQACONTAINER@@PEAUtagQACONTROL@@@Z 000000018002ea08     BillAcceptor.obj
 0002:0000ba20       $unwind$?DoVerbProperties@CComControlBase@ATL@@QEAAJPEBUtagRECT@@PEAUHWND__@@@Z 000000018002ea20     BillAcceptor.obj
 0002:0000ba38       $unwind$?InPlaceActivate@CComControlBase@ATL@@QEAAJJPEBUtagRECT@@@Z 000000018002ea38     BillAcceptor.obj
 0002:0000ba58       $unwind$?IOleObject_Close@CComControlBase@ATL@@QEAAJK@Z 000000018002ea58     BillAcceptor.obj
 0002:0000ba58       $unwind$?type_case_c_tchar@?$output_processor@_WV?$string_output_adapter@_W@__crt_stdio_output@@V?$format_validation_base@_WV?$string_output_adapter@_W@__crt_stdio_output@@@2@@__crt_stdio_output@@AEAA_N_W@Z 000000018002ea58     libucrt:output.obj
 0002:0000ba68       $unwind$?IOleInPlaceObject_UIDeactivate@CComControlBase@ATL@@QEAAJXZ 000000018002ea68     BillAcceptor.obj
 0002:0000ba80       $unwind$?IOleInPlaceObject_SetObjectRects@CComControlBase@ATL@@QEAAJPEBUtagRECT@@0@Z 000000018002ea80     BillAcceptor.obj
 0002:0000ba94       $unwind$?IViewObject_Draw@CComControlBase@ATL@@QEAAJKJPEAXPEAUtagDVTARGETDEVICE@@PEAUHDC__@@2PEBU_RECTL@@3@Z 000000018002ea94     BillAcceptor.obj
 0002:0000bab0       $unwind$?IDataObject_GetData@CComControlBase@ATL@@QEAAJPEAUtagFORMATETC@@PEAUtagSTGMEDIUM@@@Z 000000018002eab0     BillAcceptor.obj
 0002:0000bad0       $unwind$?OnPaint@CComControlBase@ATL@@QEAA_JI_K_JAEAH@Z 000000018002ead0     BillAcceptor.obj
 0002:0000baec       $unwind$?OnDrawAdvanced@CComControlBase@ATL@@UEAAJAEAUATL_DRAWINFO@@@Z 000000018002eaec     BillAcceptor.obj
 0002:0000bb08       $unwind$?Invoke@?$IDispatchImpl@UIOPOSBillAcceptor@@$1?IID_IOPOSBillAcceptor@@3U_GUID@@B$1?LIBID_OposBillAcceptor_CCO@@3U3@B$00$0A@VCComTypeInfoHolder@ATL@@@ATL@@UEAAJJAEBU_GUID@@KGPEAUtagDISPPARAMS@@PEAUtagVARIANT@@PEAUtagEXCEPINFO@@PEAI@Z 000000018002eb08     BillAcceptor.obj
 0002:0000bb08       $unwind$?ReleaseDevice@COPOSBillAcceptor@@UEAAJPEAJ@Z 000000018002eb08     BillAcceptorImpl.obj
 0002:0000bb08       $unwind$_mbsdec_l          000000018002eb08     libucrt:mbsdec.obj
 0002:0000bb14       $unwind$?atlCreate@?$CWindowImpl@VCOPOSBillAcceptor@@VCWindow@ATL@@V?$CWinTraits@$0FGAAAAAA@$0A@@3@@ATL@@QEAAPEAUHWND__@@PEAU3@V_U_RECT@2@PEB_WKKV_U_MENUorID@2@PEAX@Z 000000018002eb14     BillAcceptor.obj
 0002:0000bb14       $unwind$?fp_format_e@@YAHQEBNQEAD_K12H_NIQEAU__crt_locale_pointers@@W4__acrt_rounding_mode@@@Z 000000018002eb14     libucrt:cvt.obj
 0002:0000bb14       $unwind$_mbtowc_l          000000018002eb14     libucrt:mbtowc.obj
 0002:0000bb14       $unwind$__acrt_LCMapStringEx 000000018002eb14     libucrt:winapi_thunks.obj
 0002:0000bb28       $unwind$?CreateControlWindow@?$CComControl@VCOPOSBillAcceptor@@V?$CWindowImpl@VCOPOSBillAcceptor@@VCWindow@ATL@@V?$CWinTraits@$0FGAAAAAA@$0A@@3@@ATL@@@ATL@@UEAAPEAUHWND__@@PEAU3@AEAUtagRECT@@@Z 000000018002eb28     BillAcceptor.obj
 0002:0000bb28       $unwind$?BeginDeposit@COPOSBillAcceptor@@UEAAJPEAJ@Z 000000018002eb28     BillAcceptorImpl.obj
 0002:0000bb28       $unwind$?ClearInput@COPOSBillAcceptor@@UEAAJPEAJ@Z 000000018002eb28     BillAcceptorImpl.obj
 0002:0000bb28       $unwind$?FixDeposit@COPOSBillAcceptor@@UEAAJPEAJ@Z 000000018002eb28     BillAcceptorImpl.obj
 0002:0000bb28       $unwind$?__scrt_throw_std_bad_alloc@@YAXXZ 000000018002eb28     LIBCMT:throw_bad_alloc.obj
 0002:0000bb28       $unwind$?__scrt_throw_std_bad_array_new_length@@YAXXZ 000000018002eb28     LIBCMT:throw_bad_alloc.obj
 0002:0000bb28       $unwind$_raise_exc         000000018002eb28     libucrt:fpexcept.obj
 0002:0000bb30       $unwind$?GetSizeMax@?$IPersistStreamInitImpl@VCOPOSBillAcceptor@@@ATL@@UEAAJPEAT_ULARGE_INTEGER@@@Z 000000018002eb30     BillAcceptor.obj
 0002:0000bb48       $unwind$?IPersistStreamInit_Load@?$IPersistStreamInitImpl@VCOPOSBillAcceptor@@@ATL@@QEAAJPEAUIStream@@PEBUATL_PROPMAP_ENTRY@2@@Z 000000018002eb48     BillAcceptor.obj
 0002:0000bb64       $unwind$?IPersistStreamInit_Save@?$IPersistStreamInitImpl@VCOPOSBillAcceptor@@@ATL@@QEAAJPEAUIStream@@HPEBUATL_PROPMAP_ENTRY@2@@Z 000000018002eb64     BillAcceptor.obj
 0002:0000bb80       $unwind$?DoVerbPrimary@?$IOleObjectImpl@VCOPOSBillAcceptor@@@ATL@@QEAAJPEBUtagRECT@@PEAUHWND__@@@Z 000000018002eb80     BillAcceptor.obj
 0002:0000bb98       $unwind$?TranslateAcceleratorW@?$IOleInPlaceActiveObjectImpl@VCOPOSBillAcceptor@@@ATL@@UEAAJPEAUtagMSG@@@Z 000000018002eb98     BillAcceptor.obj
 0002:0000bba4       $unwind$?Draw@?$IViewObjectExImpl@VCOPOSBillAcceptor@@@ATL@@UEAAJKJPEAXPEAUtagDVTARGETDEVICE@@PEAUHDC__@@2PEBU_RECTL@@3P6AH_K@Z4@Z 000000018002eba4     BillAcceptor.obj
 0002:0000bbac       $unwind$?QueryHitRect@?$IViewObjectExImpl@VCOPOSBillAcceptor@@@ATL@@UEAAJKPEBUtagRECT@@0JPEAK@Z 000000018002ebac     BillAcceptor.obj
 0002:0000bbbc       $unwind$?OnWindowMessage@?$IOleInPlaceObjectWindowlessImpl@VCOPOSBillAcceptor@@@ATL@@UEAAJI_K_JPEA_J@Z 000000018002ebbc     BillAcceptor.obj
 0002:0000bbd0       $unwind$?EnumConnectionPoints@?$IConnectionPointContainerImpl@VCOPOSBillAcceptor@@@ATL@@UEAAJPEAPEAUIEnumConnectionPoints@@@Z 000000018002ebd0     BillAcceptor.obj
 0002:0000bbf8       $unwind$?FindConnectionPoint@?$IConnectionPointContainerImpl@VCOPOSBillAcceptor@@@ATL@@UEAAJAEBU_GUID@@PEAPEAUIConnectionPoint@@@Z 000000018002ebf8     BillAcceptor.obj
 0002:0000bbf8       $unwind$?__mbrtoc32_utf8@__crt_mbstring@@YA_KPEA_UPEBD_KPEAU_Mbstatet@@@Z 000000018002ebf8     libucrt:mbrtoc32.obj
 0002:0000bc14       $unwind$?Load@?$IPersistStorageImpl@VCOPOSBillAcceptor@@@ATL@@UEAAJPEAUIStorage@@@Z 000000018002ec14     BillAcceptor.obj
 0002:0000bc24       $unwind$?Save@?$IPersistStorageImpl@VCOPOSBillAcceptor@@@ATL@@UEAAJPEAUIStorage@@H@Z 000000018002ec24     BillAcceptor.obj
 0002:0000bc38       $unwind$?IPSI_GetIPersistStreamInit@?$IPersistStorageImpl@VCOPOSBillAcceptor@@@ATL@@AEAAPEAUIPersistStreamInit@@XZ 000000018002ec38     BillAcceptor.obj
 0002:0000bc38       $unwind$?parse_int_from_format_string@?$output_processor@_WV?$string_output_adapter@_W@__crt_stdio_output@@V?$format_validation_base@_WV?$string_output_adapter@_W@__crt_stdio_output@@@2@@__crt_stdio_output@@AEAA_NQEAH@Z 000000018002ec38     libucrt:output.obj
 0002:0000bc4c       $unwind$?GetInterfaceSafetyOptions@?$IObjectSafetyImpl@VCOPOSBillAcceptor@@$02@ATL@@UEAAJAEBU_GUID@@PEAK1@Z 000000018002ec4c     BillAcceptor.obj
 0002:0000bc60       $unwind$?SetInterfaceSafetyOptions@?$IObjectSafetyImpl@VCOPOSBillAcceptor@@$02@ATL@@UEAAJAEBU_GUID@@KK@Z 000000018002ec60     BillAcceptor.obj
 0002:0000bc74       $unwind$?Advise@?$IConnectionPointImpl@VCOPOSBillAcceptor@@$1?DIID__IOPOSBillAcceptorEvents@@3U_GUID@@BVCComDynamicUnkArray@ATL@@@ATL@@UEAAJPEAUIUnknown@@PEAK@Z 000000018002ec74     BillAcceptor.obj
 0002:0000bc74       $unwind$?Advise@?$IConnectionPointImpl@VCOPOSBillAcceptor@@$1?IID_IPropertyNotifySink@@3U_GUID@@BVCComDynamicUnkArray@ATL@@@ATL@@UEAAJPEAUIUnknown@@PEAK@Z 000000018002ec74     BillAcceptor.obj
 0002:0000bc88       $unwind$?Fire_DataEvent@?$CProxy_IOPOSEvents@VCOPOSBillAcceptor@@@@QEAAXJ@Z 000000018002ec88     BillAcceptor.obj
 0002:0000bc88       $unwind$?Fire_StatusUpdateEvent@?$CProxy_IOPOSEvents@VCOPOSBillAcceptor@@@@QEAAXJ@Z 000000018002ec88     BillAcceptor.obj
 0002:0000bca0       $unwind$?Fire_DirectIOEvent@?$CProxy_IOPOSEvents@VCOPOSBillAcceptor@@@@QEAAXJPEAJPEAPEA_W@Z 000000018002eca0     BillAcceptor.obj
 0002:0000bcc0       $unwind$?FireTheEvent@?$CProxy_IOPOSEvents@VCOPOSBillAcceptor@@@@IEAAXPEAVOposVariant@@IAEAJPEB_WJ@Z 000000018002ecc0     BillAcceptor.obj
 0002:0000bcd0       $unwind$?ProcessWindowMessage@COPOSBillAcceptor@@UEAAHPEAUHWND__@@I_K_JAEA_JK@Z 000000018002ecd0     BillAcceptor.obj
 0002:0000bcd0       $unwind$__dcrt_get_narrow_environment_from_os 000000018002ecd0     libucrt:get_environment_from_os.obj
 0002:0000bcd0       $unwind$?fp_format_f_internal@@YAHQEAD_KHQEAU_strflt@@_NQEAU__crt_locale_pointers@@@Z 000000018002ecd0     libucrt:cvt.obj
 0002:0000bcd0       $unwind$??$__acrt_wcs_to_mbs_cp@U__crt_win32_buffer_internal_dynamic_resizing@@@@YAHQEB_WAEAV?$__crt_win32_buffer@DU__crt_win32_buffer_internal_dynamic_resizing@@@@I@Z 000000018002ecd0     libucrt:argv_wildcards.obj
 0002:0000bce8       $unwind$?Clone@?$CComEnumImpl@UIEnumConnectionPoints@@$1?_GUID_b196b285_bab4_101a_b69c_00aa00341d07@@3U__s_GUID@@BPEAUIConnectionPoint@@V?$_CopyInterface@UIConnectionPoint@@@ATL@@@ATL@@UEAAJPEAPEAUIEnumConnectionPoints@@@Z 000000018002ece8     BillAcceptor.obj
 0002:0000bce8       $unwind$?Clone@?$CComEnumImpl@UIEnumConnections@@$1?_GUID_b196b287_bab4_101a_b69c_00aa00341d07@@3U__s_GUID@@BUtagCONNECTDATA@@V?$_Copy@UtagCONNECTDATA@@@ATL@@@ATL@@UEAAJPEAPEAUIEnumConnections@@@Z 000000018002ece8     BillAcceptor.obj
 0002:0000bd00       $unwind$?GetOposProp@COPOSBillAcceptor@@IEAAJJPEAJJ@Z 000000018002ed00     BillAcceptorImpl.obj
 0002:0000bd00       $unwind$?GetOposProp@COPOSBillAcceptor@@IEAAJJPEAPEA_WJ@Z 000000018002ed00     BillAcceptorImpl.obj
 0002:0000bd18       $unwind$?SetOposProp@COPOSBillAcceptor@@IEAAJJJJ@Z 000000018002ed18     BillAcceptorImpl.obj
 0002:0000bd38       $unwind$?SetOposProp@COPOSBillAcceptor@@IEAAJJPEA_WJ@Z 000000018002ed38     BillAcceptorImpl.obj
 0002:0000bd54       $unwind$?DoInvoke@COPOSBillAcceptor@@IEAAJJPEAVOposVariant@@IHPEAJ_N@Z 000000018002ed54     BillAcceptorImpl.obj
 0002:0000bd6c       $unwind$?SetCOFreezeEvents@COPOSBillAcceptor@@IEAAXF@Z 000000018002ed6c     BillAcceptorImpl.obj
 0002:0000bd80       $unwind$?OnDraw@COPOSBillAcceptor@@MEAAJAEAUATL_DRAWINFO@@@Z 000000018002ed80     BillAcceptorImpl.obj
 0002:0000bd98       $unwind$?EventInit@COPOSBillAcceptor@@IEAAJXZ 000000018002ed98     BillAcceptorImpl.obj
 0002:0000bdac       $unwind$?get_ControlObjectDescription@COPOSBillAcceptor@@UEAAJPEAPEA_W@Z 000000018002edac     BillAcceptorImpl.obj
 0002:0000bdac       $unwind$__dcrt_lowio_ensure_console_output_initialized 000000018002edac     libucrt:initcon.obj
 0002:0000bdac       $unwind$_isleadbyte_l      000000018002edac     libucrt:_wctype.obj
 0002:0000bdac       $unwind$?getSystemCP@@YAHH@Z 000000018002edac     libucrt:mbctype.obj
 0002:0000bdb4       $unwind$?AdjustCashCounts@COPOSBillAcceptor@@UEAAJPEA_WPEAJ@Z 000000018002edb4     BillAcceptorImpl.obj
 0002:0000bdb4       $unwind$?CheckHealth@COPOSBillAcceptor@@UEAAJJPEAJ@Z 000000018002edb4     BillAcceptorImpl.obj
 0002:0000bdb4       $unwind$?EndDeposit@COPOSBillAcceptor@@UEAAJJPEAJ@Z 000000018002edb4     BillAcceptorImpl.obj
 0002:0000bdb4       $unwind$?PauseDeposit@COPOSBillAcceptor@@UEAAJJPEAJ@Z 000000018002edb4     BillAcceptorImpl.obj
 0002:0000bdb4       $unwind$?ResetStatistics@COPOSBillAcceptor@@UEAAJPEA_WPEAJ@Z 000000018002edb4     BillAcceptorImpl.obj
 0002:0000bdb4       $unwind$?RetrieveStatistics@COPOSBillAcceptor@@UEAAJPEAPEA_WPEAJ@Z 000000018002edb4     BillAcceptorImpl.obj
 0002:0000bdb4       $unwind$?UpdateFirmware@COPOSBillAcceptor@@UEAAJPEA_WPEAJ@Z 000000018002edb4     BillAcceptorImpl.obj
 0002:0000bdb4       $unwind$?UpdateStatistics@COPOSBillAcceptor@@UEAAJPEA_WPEAJ@Z 000000018002edb4     BillAcceptorImpl.obj
 0002:0000bdc4       $unwind$?ClaimDevice@COPOSBillAcceptor@@UEAAJJPEAJ@Z 000000018002edc4     BillAcceptorImpl.obj
 0002:0000bdd4       $unwind$?Close@COPOSBillAcceptor@@UEAAJPEAJ@Z 000000018002edd4     BillAcceptorImpl.obj
 0002:0000bde0       $unwind$?DirectIO@COPOSBillAcceptor@@UEAAJJPEAJPEAPEA_W0@Z 000000018002ede0     BillAcceptorImpl.obj
 0002:0000bdfc       $unwind$?Open@COPOSBillAcceptor@@UEAAJPEA_WPEAJ@Z 000000018002edfc     BillAcceptorImpl.obj
 0002:0000be20       $unwind$?CompareFirmwareVersion@COPOSBillAcceptor@@UEAAJPEA_WPEAJ1@Z 000000018002ee20     BillAcceptorImpl.obj
 0002:0000be20       $unwind$?ReadCashCounts@COPOSBillAcceptor@@UEAAJPEAPEA_WPEAFPEAJ@Z 000000018002ee20     BillAcceptorImpl.obj
 0002:0000be20       $unwind$?initialize_inherited_file_handles_nolock@@YAXXZ 000000018002ee20     libucrt:ioinit.obj
 0002:0000be3c       $unwind$__scrt_is_nonwritable_in_current_image 000000018002ee3c     LIBCMT:utility.obj
 0002:0000be5c       $unwind$__scrt_is_nonwritable_in_current_image$filt$0 000000018002ee5c     LIBCMT:utility.obj
 0002:0000be64       $unwind$__report_securityfailure 000000018002ee64     LIBCMT:gs_report.obj
 0002:0000be6c       $unwind$__report_gsfailure 000000018002ee6c     LIBCMT:gs_report.obj
 0002:0000be74       $unwind$capture_current_context 000000018002ee74     LIBCMT:gs_report.obj
 0002:0000be80       $unwind$capture_previous_context 000000018002ee80     LIBCMT:gs_report.obj
 0002:0000be8c       $unwind$??2@YAPEAX_KAEBUnothrow_t@std@@@Z 000000018002ee8c     LIBCMT:new_scalar_nothrow.obj
 0002:0000be9c       $cppxdata$??2@YAPEAX_KAEBUnothrow_t@std@@@Z 000000018002ee9c     LIBCMT:new_scalar_nothrow.obj
 0002:0000bea9       $stateUnwindMap$??2@YAPEAX_KAEBUnothrow_t@std@@@Z 000000018002eea9     LIBCMT:new_scalar_nothrow.obj
 0002:0000beac       $tryMap$??2@YAPEAX_KAEBUnothrow_t@std@@@Z 000000018002eeac     LIBCMT:new_scalar_nothrow.obj
 0002:0000beb4       $handlerMap$??2@YAPEAX_KAEBUnothrow_t@std@@@Z 000000018002eeb4     LIBCMT:new_scalar_nothrow.obj
 0002:0000bebc       $ip2state$??2@YAPEAX_KAEBUnothrow_t@std@@@Z 000000018002eebc     LIBCMT:new_scalar_nothrow.obj
 0002:0000bec0       $unwind$?catch$0@?0???2@YAPEAX_KAEBUnothrow_t@std@@@Z@4HA 000000018002eec0     LIBCMT:new_scalar_nothrow.obj
 0002:0000bed0       $cppxdata$?catch$0@?0???2@YAPEAX_KAEBUnothrow_t@std@@@Z@4HA 000000018002eed0     LIBCMT:new_scalar_nothrow.obj
 0002:0000beda       $stateUnwindMap$?catch$0@?0???2@YAPEAX_KAEBUnothrow_t@std@@@Z@4HA 000000018002eeda     LIBCMT:new_scalar_nothrow.obj
 0002:0000bedc       $ip2state$?catch$0@?0???2@YAPEAX_KAEBUnothrow_t@std@@@Z@4HA 000000018002eedc     LIBCMT:new_scalar_nothrow.obj
 0002:0000bee0       $unwind$__GSHandlerCheckCommon 000000018002eee0     LIBCMT:gshandler.obj
 0002:0000bee8       $xdatasym                  000000018002eee8     LIBCMT:chkstk.obj
 0002:0000bef0       $xdatasym                  000000018002eef0     LIBCMT:amdsecgs.obj
 0002:0000bef4       $unwind$?dllmain_crt_process_attach@@YAHQEAUHINSTANCE__@@QEAX@Z 000000018002eef4     LIBCMT:dll_dllmain.obj
 0002:0000bf30       $unwind$?dllmain_crt_process_detach@@YAH_N@Z 000000018002ef30     LIBCMT:dll_dllmain.obj
 0002:0000bf84       $unwind$?dllmain_dispatch@@YAHQEAUHINSTANCE__@@KQEAX@Z 000000018002ef84     LIBCMT:dll_dllmain.obj
 0002:0000bfac       $unwind$?filt$0@?0??dllmain_dispatch@@YAHQEAUHINSTANCE__@@KQEAX@Z@4HA 000000018002efac     LIBCMT:dll_dllmain.obj
 0002:0000bfac       $unwind$?filt$0@?0??FrameUnwindToState@__FrameHandler4@@SAXPEA_KPEAU_xDISPATCHER_CONTEXT@@PEAUFuncInfo4@FH4@@H@Z@4HA 000000018002efac     libvcruntime:frame.obj
 0002:0000bfac       $unwind$?fin$1@?0??FrameUnwindToState@__FrameHandler4@@SAXPEA_KPEAU_xDISPATCHER_CONTEXT@@PEAUFuncInfo4@FH4@@H@Z@4HA 000000018002efac     libvcruntime:frame.obj
 0002:0000bfb4       $unwind$__isa_available_init 000000018002efb4     LIBCMT:cpu_disp.obj
 0002:0000bfc4       $unwind$__scrt_fastfail    000000018002efc4     LIBCMT:utility_desktop.obj
 0002:0000bfd4       $unwind$__security_init_cookie 000000018002efd4     LIBCMT:gs_support.obj
 0002:0000bfe0       $xdatasym                  000000018002efe0     LIBCMT:guard_dispatch.obj
 0002:0000bfe8       $xdatasym                  000000018002efe8     LIBCMT:guard_xfg_dispatch.obj
 0002:0000bfec       $unwind$AtlThunk_InitData  000000018002efec     atls:atlthunk.obj
 0002:0000c000       $unwind$wcsstr             000000018002f000     libvcruntime:wcsstr.obj
 0002:0000c018       $xdatasym                  000000018002f018     libvcruntime:memcmp.obj
 0002:0000c020       $xdatasym                  000000018002f020     libvcruntime:memcpy.obj
 0002:0000c030       $xdatasym                  000000018002f030     libvcruntime:memset.obj
 0002:0000c040       $unwind$__C_specific_handler 000000018002f040     libvcruntime:riscchandler.obj
 0002:0000c05c       $unwind$?DecompFuncInfo@FH4@@YA_JPEAEAEAUFuncInfo4@1@_KH_N@Z 000000018002f05c     libvcruntime:risctrnsctrl.obj
 0002:0000c074       $unwind$?UnwindNestedFrames@__FrameHandler4@@SAXPEA_KPEAUEHExceptionRecord@@PEAU_CONTEXT@@0PEAXPEAUFuncInfo4@FH4@@HHPEAUHandlerType4@5@PEAU_xDISPATCHER_CONTEXT@@E@Z 000000018002f074     libvcruntime:risctrnsctrl.obj
 0002:0000c088       $unwind$?GetRangeOfTrysToCheck@__FrameHandler4@@SA?AU?$pair@Viterator@TryBlockMap4@FH4@@V123@@std@@AEAVTryBlockMap4@FH4@@HPEAU_xDISPATCHER_CONTEXT@@PEAUFuncInfo4@5@H@Z 000000018002f088     libvcruntime:risctrnsctrl.obj
 0002:0000c0a4       $unwind$__CxxFrameHandler4 000000018002f0a4     libvcruntime:risctrnsctrl.obj
 0002:0000c0b8       $unwind$??$_CallSETranslator@V__FrameHandler4@@@@YAHPEAUEHExceptionRecord@@PEA_KPEAU_CONTEXT@@PEAU_xDISPATCHER_CONTEXT@@PEAUFuncInfo4@FH4@@K1H@Z 000000018002f0b8     libvcruntime:risctrnsctrl.obj
 0002:0000c0d8       $unwind$?filt$0@?0???$_CallSETranslator@V__FrameHandler4@@@@YAHPEAUEHExceptionRecord@@PEA_KPEAU_CONTEXT@@PEAU_xDISPATCHER_CONTEXT@@PEAUFuncInfo4@FH4@@K1H@Z@4HA 000000018002f0d8     libvcruntime:risctrnsctrl.obj
 0002:0000c0e4       $unwind$__DestructExceptionObject 000000018002f0e4     libvcruntime:ehhelpers.obj
 0002:0000c104       $unwind$__DestructExceptionObject$filt$0 000000018002f104     libvcruntime:ehhelpers.obj
 0002:0000c104       $unwind$?fin$1@?0??CxxCallCatchBlock@__FrameHandler4@@SAPEAXPEAU_EXCEPTION_RECORD@@@Z@4HA 000000018002f104     libvcruntime:frame.obj
 0002:0000c110       $unwind$_CxxThrowException 000000018002f110     libvcruntime:throw.obj
 0002:0000c120       $xdatasym                  000000018002f120     libvcruntime:notify.obj
 0002:0000c12c       $unwind$?StateFromIp@__FrameHandler4@@SAHPEAUFuncInfo4@FH4@@PEAU_xDISPATCHER_CONTEXT@@_K@Z 000000018002f12c     libvcruntime:ehstate.obj
 0002:0000c140       $unwind$?getStartStop@UWMap4@FH4@@QEAAXHHAEAViterator@12@0@Z 000000018002f140     libvcruntime:frame.obj
 0002:0000c158       $unwind$?FrameUnwindToState@__FrameHandler4@@SAXPEA_KPEAU_xDISPATCHER_CONTEXT@@PEAUFuncInfo4@FH4@@H@Z 000000018002f158     libvcruntime:frame.obj
 0002:0000c1a0       $unwind$?CxxCallCatchBlock@__FrameHandler4@@SAPEAXPEAU_EXCEPTION_RECORD@@@Z 000000018002f1a0     libvcruntime:frame.obj
 0002:0000c1fc       $unwind$?IsInExceptionSpec@@YAEPEAUEHExceptionRecord@@PEBU_s_ESTypeList@@@Z 000000018002f1fc     libvcruntime:frame.obj
 0002:0000c218       $unwind$??$__InternalCxxFrameHandler@V__FrameHandler4@@@@YA?AW4_EXCEPTION_DISPOSITION@@PEAUEHExceptionRecord@@PEA_KPEAU_CONTEXT@@PEAU_xDISPATCHER_CONTEXT@@PEAUFuncInfo4@FH4@@H1E@Z 000000018002f218     libvcruntime:frame.obj
 0002:0000c230       $unwind$??$BuildCatchObjectHelperInternal@V__FrameHandler4@@@@YAHPEAUEHExceptionRecord@@PEAXPEAUHandlerType4@FH4@@PEBU_s_CatchableType@@@Z 000000018002f230     libvcruntime:frame.obj
 0002:0000c270       $unwind$??$BuildCatchObjectInternal@V__FrameHandler4@@@@YAXPEAUEHExceptionRecord@@PEAXPEAUHandlerType4@FH4@@PEBU_s_CatchableType@@@Z 000000018002f270     libvcruntime:frame.obj
 0002:0000c29c       $unwind$??$FindHandler@V__FrameHandler4@@@@YAXPEAUEHExceptionRecord@@PEA_KPEAU_CONTEXT@@PEAU_xDISPATCHER_CONTEXT@@PEAUFuncInfo4@FH4@@EH1@Z 000000018002f29c     libvcruntime:frame.obj
 0002:0000c2bc       $unwind$??$CatchIt@V__FrameHandler4@@@@YAXPEAUEHExceptionRecord@@PEA_KPEAU_CONTEXT@@PEAU_xDISPATCHER_CONTEXT@@PEAUFuncInfo4@FH4@@PEAUHandlerType4@4@PEBU_s_CatchableType@@PEAUTryBlockMapEntry4@4@H1EE@Z 000000018002f2bc     libvcruntime:frame.obj
 0002:0000c2d4       $unwind$??$FindHandlerForForeignException@V__FrameHandler4@@@@YAXPEAUEHExceptionRecord@@PEA_KPEAU_CONTEXT@@PEAU_xDISPATCHER_CONTEXT@@PEAUFuncInfo4@FH4@@HH1@Z 000000018002f2d4     libvcruntime:frame.obj
 0002:0000c2f4       $unwind$?try_get_function@@YAPEAXW4function_id@?A0x5302d918@@QEBDQEBW4module_id@2@2@Z 000000018002f2f4     libvcruntime:winapi_downlevel.obj
 0002:0000c2f4       $unwind$?try_get_function@@YAPEAXW4function_id@?A0x391cf84c@@QEBDQEBW4module_id@2@2@Z 000000018002f2f4     libucrt:winapi_thunks.obj
 0002:0000c310       $xdatasym                  000000018002f310     libvcruntime:handlers.obj
 0002:0000c330       $unwind$__acrt_call_reportfault 000000018002f330     libucrt:invalid_parameter.obj
 0002:0000c350       $unwind$_invalid_parameter 000000018002f350     libucrt:invalid_parameter.obj
 0002:0000c364       $unwind$_resetstkoflw      000000018002f364     libucrt:resetstk.obj
 0002:0000c388       $unwind$__stdio_common_vswprintf_s 000000018002f388     libucrt:output.obj
 0002:0000c394       $unwind$?write_string@?$string_output_adapter@_W@__crt_stdio_output@@QEBAXQEB_WHQEAHAEAV__crt_deferred_errno_cache@@@Z 000000018002f394     libucrt:output.obj
 0002:0000c3ac       $unwind$??$common_vsprintf@Vformat_validation_base@__crt_stdio_output@@_W@@YAH_KQEA_W0QEB_WQEAU__crt_locale_pointers@@QEAD@Z 000000018002f3ac     libucrt:output.obj
 0002:0000c3cc       $unwind$??$write_multiple_characters@V?$string_output_adapter@_W@__crt_stdio_output@@D@__crt_stdio_output@@YAXAEBV?$string_output_adapter@_W@0@DHQEAH@Z 000000018002f3cc     libucrt:output.obj
 0002:0000c3d8       $unwind$?state_case_type@?$output_processor@_WV?$string_output_adapter@_W@__crt_stdio_output@@V?$format_validation_base@_WV?$string_output_adapter@_W@__crt_stdio_output@@@2@@__crt_stdio_output@@AEAA_NXZ 000000018002f3d8     libucrt:output.obj
 0002:0000c3fc       $unwind$?type_case_a@?$output_processor@_WV?$string_output_adapter@_W@__crt_stdio_output@@V?$format_validation_base@_WV?$string_output_adapter@_W@__crt_stdio_output@@@2@@__crt_stdio_output@@AEAA_NXZ 000000018002f3fc     libucrt:output.obj
 0002:0000c40c       $unwind$?write_stored_string_tchar@?$output_processor@_WV?$string_output_adapter@_W@__crt_stdio_output@@V?$format_validation_base@_WV?$string_output_adapter@_W@__crt_stdio_output@@@2@@__crt_stdio_output@@AEAA_N_W@Z 000000018002f40c     libucrt:output.obj
 0002:0000c420       $unwind$??$type_case_integer_parse_into_buffer@I@?$output_processor@_WV?$string_output_adapter@_W@__crt_stdio_output@@V?$format_validation_base@_WV?$string_output_adapter@_W@__crt_stdio_output@@@2@@__crt_stdio_output@@AEAAXII_N@Z 000000018002f420     libucrt:output.obj
 0002:0000c420       $unwind$??$type_case_integer_parse_into_buffer@_K@?$output_processor@_WV?$string_output_adapter@_W@__crt_stdio_output@@V?$format_validation_base@_WV?$string_output_adapter@_W@__crt_stdio_output@@@2@@__crt_stdio_output@@AEAAX_KI_N@Z 000000018002f420     libucrt:output.obj
 0002:0000c428       $unwind$?common_exit@@YAXHW4_crt_exit_cleanup_mode@@W4_crt_exit_return_mode@@@Z 000000018002f428     libucrt:exit.obj
 0002:0000c434       $unwind$??R<lambda_6e4b09c48022b2350581041d5f6b0c4c>@@QEBA@XZ 000000018002f434     libucrt:exit.obj
 0002:0000c454       $unwind$??$?RV<lambda_d80eeec6fff315bfe5c115232f3240e3>@@AEAV<lambda_6e4b09c48022b2350581041d5f6b0c4c>@@V<lambda_2358e3775559c9db80273638284d5e45>@@@?$__crt_seh_guarded_call@X@@QEAAX$$QEAV<lambda_d80eeec6fff315bfe5c115232f3240e3>@@AEAV<lambda_6e4b09c48022b2350581041d5f6b0c4c>@@$$QEAV<lambda_2358e3775559c9db80273638284d5e45>@@@Z 000000018002f454     libucrt:exit.obj
 0002:0000c478       $unwind$??$free_environment@D@@YAXQEAPEAD@Z 000000018002f478     libucrt:environment_initialization.obj
 0002:0000c478       $unwind$??$free_environment@_W@@YAXQEAPEA_W@Z 000000018002f478     libucrt:environment_initialization.obj
 0002:0000c484       $unwind$??$create_environment@D@@YAQEAPEADQEAD@Z 000000018002f484     libucrt:environment_initialization.obj
 0002:0000c49c       $unwind$_register_onexit_function 000000018002f49c     libucrt:onexit.obj
 0002:0000c4a4       $unwind$_execute_onexit_table 000000018002f4a4     libucrt:onexit.obj
 0002:0000c4ac       $unwind$??R<lambda_22ebabd17bc4fa466a2aca6d8deb888d>@@QEBAHXZ 000000018002f4ac     libucrt:onexit.obj
 0002:0000c4c4       $unwind$??$?RV<lambda_638799b9deba96c50f710eeac98168cd>@@AEAV<lambda_22ebabd17bc4fa466a2aca6d8deb888d>@@V<lambda_a6f7d7db0129f75315ebf26d50c089f1>@@@?$__crt_seh_guarded_call@H@@QEAAH$$QEAV<lambda_638799b9deba96c50f710eeac98168cd>@@AEAV<lambda_22ebabd17bc4fa466a2aca6d8deb888d>@@$$QEAV<lambda_a6f7d7db0129f75315ebf26d50c089f1>@@@Z 000000018002f4c4     libucrt:onexit.obj
 0002:0000c4e8       $unwind$??$?RV<lambda_7777bce6b2f8c936911f934f8298dc43>@@AEAV<lambda_f03950bc5685219e0bcd2087efbe011e>@@V<lambda_3883c3dff614d5e0c5f61bb1ac94921c>@@@?$__crt_seh_guarded_call@H@@QEAAH$$QEAV<lambda_7777bce6b2f8c936911f934f8298dc43>@@AEAV<lambda_f03950bc5685219e0bcd2087efbe011e>@@$$QEAV<lambda_3883c3dff614d5e0c5f61bb1ac94921c>@@@Z 000000018002f4e8     libucrt:onexit.obj
 0002:0000c50c       $unwind$_query_new_handler 000000018002f50c     libucrt:new_handler.obj
 0002:0000c52c       $unwind$terminate          000000018002f52c     libucrt:terminate.obj
 0002:0000c54c       $unwind$??$parse_integer@KV?$c_string_character_source@_W@__crt_strtox@@@__crt_strtox@@YAKQEAU__crt_locale_pointers@@V?$c_string_character_source@_W@0@H_N@Z 000000018002f54c     libucrt:atox.obj
 0002:0000c568       $xdatasym                  000000018002f568     libucrt:strncmp.obj
 0002:0000c56c       $unwind$?construct_ptd_array@@YAXQEAU__acrt_ptd@@@Z 000000018002f56c     libucrt:per_thread_data.obj
 0002:0000c574       $unwind$?destroy_ptd_array@@YAXQEAU__acrt_ptd@@@Z 000000018002f574     libucrt:per_thread_data.obj
 0002:0000c57c       $unwind$??$?RV<lambda_0ae27a3a962d80f24befdcbee591983d>@@AEAV<lambda_8d0ee55de4b1038c4002e0adecdf1839>@@V<lambda_dc504788e8f1664fe9b84e20bfb512f2>@@@?$__crt_seh_guarded_call@X@@QEAAX$$QEAV<lambda_0ae27a3a962d80f24befdcbee591983d>@@AEAV<lambda_8d0ee55de4b1038c4002e0adecdf1839>@@$$QEAV<lambda_dc504788e8f1664fe9b84e20bfb512f2>@@@Z 000000018002f57c     libucrt:per_thread_data.obj
 0002:0000c5a0       $unwind$??$?RV<lambda_aa87e3671a710a21b5dc78c0bdf72e11>@@AEAV<lambda_92619d2358a28f41a33ba319515a20b9>@@V<lambda_6992ecaafeb10aed2b74cb1fae11a551>@@@?$__crt_seh_guarded_call@X@@QEAAX$$QEAV<lambda_aa87e3671a710a21b5dc78c0bdf72e11>@@AEAV<lambda_92619d2358a28f41a33ba319515a20b9>@@$$QEAV<lambda_6992ecaafeb10aed2b74cb1fae11a551>@@@Z 000000018002f5a0     libucrt:per_thread_data.obj
 0002:0000c5c4       $unwind$??$?RV<lambda_f2e299630e499de9f9a165e60fcd3db5>@@AEAV<lambda_2ae9d31cdba2644fcbeaf08da7c24588>@@V<lambda_40d01ff24d0e7b3814fdbdcee8eab3c7>@@@?$__crt_seh_guarded_call@X@@QEAAX$$QEAV<lambda_f2e299630e499de9f9a165e60fcd3db5>@@AEAV<lambda_2ae9d31cdba2644fcbeaf08da7c24588>@@$$QEAV<lambda_40d01ff24d0e7b3814fdbdcee8eab3c7>@@@Z 000000018002f5c4     libucrt:per_thread_data.obj
 0002:0000c5e8       $unwind$??$?RV<lambda_2d41944a1d46af3157314b8a01080d33>@@AEAV<lambda_8f455de75cd7d7f24b4096f044d8b9e6>@@V<lambda_aa500f224e6afead328df44964fe2772>@@@?$__crt_seh_guarded_call@X@@QEAAX$$QEAV<lambda_2d41944a1d46af3157314b8a01080d33>@@AEAV<lambda_8f455de75cd7d7f24b4096f044d8b9e6>@@$$QEAV<lambda_aa500f224e6afead328df44964fe2772>@@@Z 000000018002f5e8     libucrt:per_thread_data.obj
 0002:0000c60c       $unwind$__acrt_initialize_winapi_thunks 000000018002f60c     libucrt:winapi_thunks.obj
 0002:0000c614       $unwind$__acrt_fp_format   000000018002f614     libucrt:cvt.obj
 0002:0000c62c       $unwind$?fp_format_e_internal@@YAHQEAD_KH_NIQEAU_strflt@@2QEAU__crt_locale_pointers@@@Z 000000018002f62c     libucrt:cvt.obj
 0002:0000c644       $unwind$?fp_format_a@@YAHQEBNPEAD_KQEAD2H_NIQEAU__crt_locale_pointers@@W4__acrt_rounding_mode@@@Z 000000018002f644     libucrt:cvt.obj
 0002:0000c660       $unwind$?fp_format_g@@YAHQEBNQEAD_K12H_NIQEAU__crt_locale_pointers@@@Z 000000018002f660     libucrt:cvt.obj
 0002:0000c674       $unwind$__acrt_uninitialize_locale 000000018002f674     libucrt:wsetlocale.obj
 0002:0000c674       $unwind$__acrt_get_sigabrt_handler 000000018002f674     libucrt:signal.obj
 0002:0000c67c       $unwind$??$?RV<lambda_410d79af7f07d98d83a3f525b3859a53>@@AEAV<lambda_3e16ef9562a7dcce91392c22ab16ea36>@@V<lambda_38119f0e861e05405d8a144b9b982f0a>@@@?$__crt_seh_guarded_call@X@@QEAAX$$QEAV<lambda_410d79af7f07d98d83a3f525b3859a53>@@AEAV<lambda_3e16ef9562a7dcce91392c22ab16ea36>@@$$QEAV<lambda_38119f0e861e05405d8a144b9b982f0a>@@@Z 000000018002f67c     libucrt:wsetlocale.obj
 0002:0000c6a4       $unwind$__acrt_initialize_lowio 000000018002f6a4     libucrt:ioinit.obj
 0002:0000c6c4       $unwind$??$common_expand_argv_wildcards@D@@YAHQEAPEADQEAPEAPEAD@Z 000000018002f6c4     libucrt:argv_wildcards.obj
 0002:0000c6dc       $unwind$??$copy_and_add_argument_to_buffer@D@@YAHQEBD0_KAEAV?$argument_list@D@?A0x5f5c8891@@@Z 000000018002f6dc     libucrt:argv_wildcards.obj
 0002:0000c6f8       $unwind$??$expand_argument_wildcards@D@@YAHQEAD0AEAV?$argument_list@D@?A0x5f5c8891@@@Z 000000018002f6f8     libucrt:argv_wildcards.obj
 0002:0000c71c       $unwind$__acrt_GetModuleFileNameA 000000018002f71c     libucrt:getmodulefilenamea.obj
 0002:0000c738       $unwind$_setmbcp_nolock    000000018002f738     libucrt:mbctype.obj
 0002:0000c758       $unwind$?update_thread_multibyte_data_internal@@YAPEAU__crt_multibyte_data@@QEAU__acrt_ptd@@QEAPEAU1@@Z 000000018002f758     libucrt:mbctype.obj
 0002:0000c780       $unwind$?setmbcp_internal@@YAHH_NQEAU__acrt_ptd@@QEAPEAU__crt_multibyte_data@@@Z 000000018002f780     libucrt:mbctype.obj
 0002:0000c790       $unwind$?setSBUpLow@@YAXPEAU__crt_multibyte_data@@@Z 000000018002f790     libucrt:mbctype.obj
 0002:0000c7ac       $unwind$??$?RV<lambda_efdfa57d1f175319df784efa44bb7b81>@@AEAV<lambda_5f0a4c1567f8adc6734073e5d1e1b35c>@@V<lambda_2e8a7d3640ea6ccb4c2413664c2db6fd>@@@?$__crt_seh_guarded_call@X@@QEAAX$$QEAV<lambda_efdfa57d1f175319df784efa44bb7b81>@@AEAV<lambda_5f0a4c1567f8adc6734073e5d1e1b35c>@@$$QEAV<lambda_2e8a7d3640ea6ccb4c2413664c2db6fd>@@@Z 000000018002f7ac     libucrt:mbctype.obj
 0002:0000c7d0       $unwind$__acrt_WideCharToMultiByte 000000018002f7d0     libucrt:widechartomultibyte.obj
 0002:0000c7dc       $unwind$raise              000000018002f7dc     libucrt:signal.obj
 0002:0000c818       $unwind$??$?RV<lambda_450d765d439847d4c735a33c368b5fc0>@@AEAV<lambda_44731a7d0e6d81c3e6aa82d741081786>@@V<lambda_601a2a7da3b7a96e9554ac7215c4b07c>@@@?$__crt_seh_guarded_call@P6AXH@Z@@QEAAP6AXH@Z$$QEAV<lambda_450d765d439847d4c735a33c368b5fc0>@@AEAV<lambda_44731a7d0e6d81c3e6aa82d741081786>@@$$QEAV<lambda_601a2a7da3b7a96e9554ac7215c4b07c>@@@Z 000000018002f818     libucrt:signal.obj
 0002:0000c83c       $unwind$?common_flush_all@@YAH_N@Z 000000018002f83c     libucrt:fflush.obj
 0002:0000c844       $unwind$??$?RV<lambda_842d9ff0dc9ef11c61343bbaebe7f885>@@AEAV<lambda_c5860995281e5c4ce005b3de8f5874ee>@@V<lambda_d90129c13df834fdcbf8d2b88dafcf2d>@@@?$__crt_seh_guarded_call@X@@QEAAX$$QEAV<lambda_842d9ff0dc9ef11c61343bbaebe7f885>@@AEAV<lambda_c5860995281e5c4ce005b3de8f5874ee>@@$$QEAV<lambda_d90129c13df834fdcbf8d2b88dafcf2d>@@@Z 000000018002f844     libucrt:fflush.obj
 0002:0000c868       $unwind$??$?RV<lambda_886d6c58226a84441f68b9f2b8217b83>@@AEAV<lambda_ab61a845afdef5b7c387490eaf3616ee>@@V<lambda_f7f22ab5edc0698d5f6905b0d3f44752>@@@?$__crt_seh_guarded_call@X@@QEAAX$$QEAV<lambda_886d6c58226a84441f68b9f2b8217b83>@@AEAV<lambda_ab61a845afdef5b7c387490eaf3616ee>@@$$QEAV<lambda_f7f22ab5edc0698d5f6905b0d3f44752>@@@Z 000000018002f868     libucrt:fflush.obj
 0002:0000c890       $unwind$__acrt_update_thread_locale_data 000000018002f890     libucrt:locale_refcounting.obj
 0002:0000c8b4       $unwind$?__mbrtowc_utf8@__crt_mbstring@@YA_KPEA_WPEBD_KPEAU_Mbstatet@@@Z 000000018002f8b4     libucrt:mbrtowc.obj
 0002:0000c8bc       $unwind$?__mbsrtowcs_utf8@__crt_mbstring@@YA_KPEA_WPEAPEBD_KPEAU_Mbstatet@@@Z 000000018002f8bc     libucrt:mbrtowc.obj
 0002:0000c8d4       $unwind$__acrt_fltout      000000018002f8d4     libucrt:cfout.obj
 0002:0000c8f4       $unwind$?divide@__crt_strtox@@YA_KAEAUbig_integer@1@AEBU21@@Z 000000018002f8f4     libucrt:cfout.obj
 0002:0000c90c       $chain$0$?divide@__crt_strtox@@YA_KAEAUbig_integer@1@AEBU21@@Z 000000018002f90c     libucrt:cfout.obj
 0002:0000c920       $chain$1$?divide@__crt_strtox@@YA_KAEAUbig_integer@1@AEBU21@@Z 000000018002f920     libucrt:cfout.obj
 0002:0000c930       $unwind$_fcloseall         000000018002f930     libucrt:closeall.obj
 0002:0000c954       $unwind$__acrt_locale_free_monetary 000000018002f954     libucrt:initmon.obj
 0002:0000c95c       $unwind$__acrt_locale_free_time 000000018002f95c     libucrt:inittime.obj
 0002:0000c96c       $unwind$__acrt_GetStringTypeA 000000018002f96c     libucrt:getstringtypea.obj
 0002:0000c994       $unwind$__acrt_lowio_destroy_handle_array 000000018002f994     libucrt:osfinfo.obj
 0002:0000c9a4       $unwind$__acrt_lowio_ensure_fh_exists 000000018002f9a4     libucrt:osfinfo.obj
 0002:0000c9d0       $unwind$qsort              000000018002f9d0     libucrt:qsort.obj
 0002:0000c9e8       $chain$4$qsort             000000018002f9e8     libucrt:qsort.obj
 0002:0000ca0c       $chain$5$qsort             000000018002fa0c     libucrt:qsort.obj
 0002:0000ca1c       $unwind$strpbrk            000000018002fa1c     libucrt:strpbrk.obj
 0002:0000ca2c       $unwind$fallbackMethod     000000018002fa2c     libucrt:strpbrk.obj
 0002:0000ca3c       $unwind$__acrt_LCMapStringA 000000018002fa3c     libucrt:lcmapstringa.obj
 0002:0000ca4c       $unwind$?__acrt_LCMapStringA_stat@@YAHPEAU__crt_locale_pointers@@PEB_WKPEBDHPEADHHH@Z 000000018002fa4c     libucrt:lcmapstringa.obj
 0002:0000ca74       $unwind$_close             000000018002fa74     libucrt:close.obj
 0002:0000ca74       $unwind$_commit            000000018002fa74     libucrt:commit.obj
 0002:0000ca7c       $unwind$??$?RV<lambda_a37b2b86f63e897a80ea819b0eb08c01>@@AEAV<lambda_38ce7e780aa69e748d6df282ebc68efe>@@V<lambda_99fb1378e971ab6e7edea83e3a7a83a2>@@@?$__crt_seh_guarded_call@H@@QEAAH$$QEAV<lambda_a37b2b86f63e897a80ea819b0eb08c01>@@AEAV<lambda_38ce7e780aa69e748d6df282ebc68efe>@@$$QEAV<lambda_99fb1378e971ab6e7edea83e3a7a83a2>@@@Z 000000018002fa7c     libucrt:commit.obj
 0002:0000caa0       $unwind$_write             000000018002faa0     libucrt:write.obj
 0002:0000cad0       $unwind$_write_nolock      000000018002fad0     libucrt:write.obj
 0002:0000cae8       $unwind$?write_double_translated_ansi_nolock@@YA?AUwrite_result@?A0x17268360@@HQEBDI@Z 000000018002fae8     libucrt:write.obj
 0002:0000cb0c       $unwind$?write_text_ansi_nolock@@YA?AUwrite_result@?A0x17268360@@HQEBDI@Z 000000018002fb0c     libucrt:write.obj
 0002:0000cb0c       $unwind$?write_text_utf16le_nolock@@YA?AUwrite_result@?A0x17268360@@HQEBDI@Z 000000018002fb0c     libucrt:write.obj
 0002:0000cb2c       $unwind$?write_text_utf8_nolock@@YA?AUwrite_result@?A0x17268360@@HQEBDI@Z 000000018002fb2c     libucrt:write.obj
 0002:0000cb50       $xdatasym                  000000018002fb50     libucrt:log10.obj
 0002:0000cb5c       $unwind$__acrt_fenv_set_control 000000018002fb5c     libucrt:_fenvutils.obj
 0002:0000cb6c       $unwind$fclose             000000018002fb6c     libucrt:fclose.obj
 0002:0000cb90       $unwind$_putwch_nolock     000000018002fb90     libucrt:putwch.obj
 0002:0000cb98       $unwind$common_control87   000000018002fb98     libucrt:ieee.obj
 0002:0000cbc4       $unwind$_call_matherr      000000018002fbc4     libucrt:libm_error.obj
 0002:0000cbcc       $unwind$_handle_error      000000018002fbcc     libucrt:libm_error.obj
 0002:0000cbec       $unwind$__acrt_initialize_fma3 000000018002fbec     libucrt:fma3_available.obj
 0002:0000cbf4       $unwind$_log_special_common 000000018002fbf4     libucrt:log_special.obj
 0002:0000cc00       $unwind$??$?RV<lambda_751a882b2c74d4b022dec766aa51a29a>@@AEAV<lambda_628dfdc04ba53c8bfc02c9951375f3f5>@@V<lambda_f6c7be5f7998530c34de24c7437d6b54>@@@?$__crt_seh_guarded_call@H@@QEAAH$$QEAV<lambda_751a882b2c74d4b022dec766aa51a29a>@@AEAV<lambda_628dfdc04ba53c8bfc02c9951375f3f5>@@$$QEAV<lambda_f6c7be5f7998530c34de24c7437d6b54>@@@Z 000000018002fc00     libucrt:close.obj
 0002:0000cc28       $xdatasym                  000000018002fc28     libucrt:fpsr.obj
 0002:0000cc30       $unwind$_raise_exc_ex      000000018002fc30     libucrt:fpexcept.obj
 0002:0000cc44       $unwind$_ctrlfp            000000018002fc44     libucrt:fpctrl.obj
 0002:0000cc6c       $unwind$_IsNonwritableInCurrentImage 000000018002fc6c     LIBCMT:pesect.obj
 0002:0000cdf0       .edata                     000000018002fdf0     OPOSBillAcceptor.exp
 0002:0000ce18       rgpv                       000000018002fe18     OPOSBillAcceptor.exp
 0002:0000ce28       rgszName                   000000018002fe28     OPOSBillAcceptor.exp
 0002:0000ce38       rgwOrd                     000000018002fe38     OPOSBillAcceptor.exp
 0002:0000ce40       szName                     000000018002fe40     OPOSBillAcceptor.exp
 0002:0000ce55       $N00001                    000000018002fe55     OPOSBillAcceptor.exp
 0002:0000ce65       $N00002                    000000018002fe65     OPOSBillAcceptor.exp
 0002:0000ce77       $N00003                    000000018002fe77     OPOSBillAcceptor.exp
 0002:0000ce89       $N00004                    000000018002fe89     OPOSBillAcceptor.exp
 0002:0000d7ba       .idata$6                   00000001800307ba     kernel32:KERNEL32.dll
 0002:0000d9d2       .idata$6                   00000001800309d2     user32:USER32.dll
 0002:0000db06       .idata$6                   0000000180030b06     gdi32:GDI32.dll
 0002:0000dbac       .idata$6                   0000000180030bac     advapi32:ADVAPI32.dll
 0002:0000dcc8       .idata$6                   0000000180030cc8     ole32:ole32.dll
 0002:0000dcd2       .idata$6                   0000000180030cd2     oleaut32:OLEAUT32.dll
 0003:000001c0       ?ObjectMap@@3PAU_ATL_OBJMAP_ENTRY30@ATL@@A 00000001800321c0     BillAcceptor.obj
 0003:000002cc       ?s_RequiredMethodsPerRelease@@3PAHA 00000001800322cc     BillAcceptorImpl.obj
 0003:000002d0       ?s_SOMethodNames@@3PAPEADA 00000001800322d0     BillAcceptorImpl.obj
 0003:000003d0       ?__vcrt_flsindex@@3KA      00000001800323d0     libvcruntime:per_thread_data.obj
 0003:000003e0       ?errno_no_memory@@3HA      00000001800323e0     libucrt:errno.obj
 0003:000003e4       ?doserrno_no_memory@@3KA   00000001800323e4     libucrt:errno.obj
 0003:000003f0       ?__acrt_flsindex@@3KA      00000001800323f0     libucrt:per_thread_data.obj
 0003:000008b0       _mbctypes                  00000001800328b0     libucrt:mbctype.obj
 0003:000009c0       _mbcasemaps                00000001800329c0     libucrt:mbctype.obj
 0003:00000ac0       ?__rgctypeflag@@3PADA      0000000180032ac0     libucrt:mbctype.obj
 0003:00000ad0       ?__rgcode_page_info@@3PAUcode_page_info@@A 0000000180032ad0     libucrt:mbctype.obj
 0003:00000d70       ?dazSupported@?1??common_control87@@9@9 0000000180032d70     libucrt:ieee.obj
 0003:00000d80       ?__dcrt_lowio_console_output_handle@@3PEAXEA 0000000180032d80     libucrt:initcon.obj
 0003:00000d90       ?dazSupported@?1??_ctrlfp@@9@9 0000000180032d90     libucrt:fpctrl.obj
 0003:00000fe0       ?is_initialized_as_dll@@3_NA 0000000180032fe0     LIBCMT:utility.obj
 0003:00000fe1       ?module_local_atexit_table_initialized@@3_NA 0000000180032fe1     LIBCMT:utility.obj
 0003:00000fe8       ?module_local_atexit_table@@3U_onexit_table_t@@A 0000000180032fe8     LIBCMT:utility.obj
 0003:00001000       ?module_local_at_quick_exit_table@@3U_onexit_table_t@@A 0000000180033000     LIBCMT:utility.obj
 0003:00001018       ?g_tss_cv@@3U_RTL_CONDITION_VARIABLE@@A 0000000180033018     LIBCMT:thread_safe_statics.obj
 0003:00001020       ?g_tss_event@@3PEAXEA      0000000180033020     LIBCMT:thread_safe_statics.obj
 0003:00001028       ?g_tss_mutex@@3U_RTL_CRITICAL_SECTION@@A 0000000180033028     LIBCMT:thread_safe_statics.obj
 0003:00001050       ?g_sleep_condition_variable_cs@@3P6AHPEAU_RTL_CONDITION_VARIABLE@@PEAU_RTL_CRITICAL_SECTION@@K@ZEA 0000000180033050     LIBCMT:thread_safe_statics.obj
 0003:00001058       ?g_wake_all_condition_variable@@3P6AXPEAU_RTL_CONDITION_VARIABLE@@@ZEA 0000000180033058     LIBCMT:thread_safe_statics.obj
 0003:00001060       GS_ExceptionRecord         0000000180033060     LIBCMT:gs_report.obj
 0003:00001100       GS_ContextRecord           0000000180033100     LIBCMT:gs_report.obj
 0003:000015d4       ?__proc_attached@@3HA      00000001800335d4     LIBCMT:dll_dllmain.obj
 0003:00001668       ?AllocateData@@3P6APEAUAtlThunkData_t@@XZEA 0000000180033668     atls:atlthunk.obj
 0003:00001670       ?InitData@@3P6AXPEAUAtlThunkData_t@@PEAX_K@ZEA 0000000180033670     atls:atlthunk.obj
 0003:00001678       ?DataToCode@@3P6AP6A_JPEAUHWND__@@I_K_J@ZPEAUAtlThunkData_t@@@ZEA 0000000180033678     atls:atlthunk.obj
 0003:00001680       ?FreeData@@3P6AXPEAUAtlThunkData_t@@@ZEA 0000000180033680     atls:atlthunk.obj
 0003:00001688       ?Initialized@@3_NA         0000000180033688     atls:atlthunk.obj
 0003:000016a0       ?__vcrt_startup_thread_ptd@@3U__vcrt_ptd@@A 00000001800336a0     libvcruntime:per_thread_data.obj
 0003:00001720       __vcrt_lock_table          0000000180033720     libvcruntime:locks.obj
 0003:00001748       __vcrt_locks_initialized   0000000180033748     libvcruntime:locks.obj
 0003:00001790       ?heap@@3V_HeapManager@@A   0000000180033790     libvcruntime:undname.obj
 0003:000017b8       ?module_handles@@3PAPEAUHINSTANCE__@@A 00000001800337b8     libvcruntime:winapi_downlevel.obj
 0003:000017d0       ?function_pointers@@3PAPEAXA 00000001800337d0     libvcruntime:winapi_downlevel.obj
 0003:000017f8       ?__acrt_invalid_parameter_handler@@3V?$dual_state_global@P6AXPEB_W00I_K@Z@__crt_state_management@@A 00000001800337f8     libucrt:invalid_parameter.obj
 0003:00001800       ?c_termination_complete@@3JA 0000000180033800     libucrt:exit.obj
 0003:00001808       ?thread_local_exit_callback_func@@3P6AXPEAXK0@ZEA 0000000180033808     libucrt:exit.obj
 0003:00001820       ?program_name@?1???$common_configure_argv@D@@YAHW4_crt_argv_mode@@@Z@4PADA 0000000180033820     libucrt:argv_parsing.obj
 0003:00001978       ?__acrt_new_handler@@3V?$dual_state_global@P6AH_K@Z@__crt_state_management@@A 0000000180033978     libucrt:new_handler.obj
 0003:00001980       ?module_handles@@3PAPEAUHINSTANCE__@@A 0000000180033980     libucrt:winapi_thunks.obj
 0003:00001a20       ?encoded_function_pointers@@3PAPEAXA 0000000180033a20     libucrt:winapi_thunks.obj
 0003:00001b30       ?internal_state@?1??_mbtowc_l@@9@4U_Mbstatet@@A 0000000180033b30     libucrt:mbtowc.obj
 0003:00001b48       ?enable_percent_n@@3_KA    0000000180033b48     libucrt:printf_count_output.obj
 0003:00001f80       ?__acrt_lock_table@@3PAU_RTL_CRITICAL_SECTION@@A 0000000180033f80     libucrt:locks.obj
 0003:000021b0       ?__acrt_locks_initialized@@3IA 00000001800341b0     libucrt:locks.obj
 0003:000021d0       ?fSystemSet@@3HA           00000001800341d0     libucrt:mbctype.obj
 0003:000021d4       ?initialized@?1??__acrt_initialize_multibyte@@9@4_NA 00000001800341d4     libucrt:mbctype.obj
 0003:00002210       ?ctrlc_action@@3V?$dual_state_global@P6AXH@Z@__crt_state_management@@A 0000000180034210     libucrt:signal.obj
 0003:00002218       ?ctrlbreak_action@@3V?$dual_state_global@P6AXH@Z@__crt_state_management@@A 0000000180034218     libucrt:signal.obj
 0003:00002220       ?abort_action@@3V?$dual_state_global@P6AXH@Z@__crt_state_management@@A 0000000180034220     libucrt:signal.obj
 0003:00002228       ?term_action@@3V?$dual_state_global@P6AXH@Z@__crt_state_management@@A 0000000180034228     libucrt:signal.obj
 0003:00002230       ?user_matherr@@3V?$dual_state_global@P6AHPEAU_exception@@@Z@__crt_state_management@@A 0000000180034230     libucrt:matherr.obj
 0003:00002238       ?__acrt_global_new_mode@@3V?$dual_state_global@J@__crt_state_management@@A 0000000180034238     libucrt:new_mode.obj
 0003:00002248       ?internal_pst@?1??__mbrtoc32_utf8@__crt_mbstring@@YA_KPEA_UPEBD_KPEAU_Mbstatet@@@Z@4U3@A 0000000180034248     libucrt:mbrtoc32.obj
 0003:00002250       ?__acrt_app_type@@3W4_crt_app_type@@A 0000000180034250     libucrt:report_runtime_error.obj
 0004:00000000       $pdata$?cw_memcpy@@YAHPEA_WPEBDH@Z 0000000180035000     CWString.obj
 0004:0000000c       $pdata$?cw_strcpy@@YAHPEA_WPEBD@Z 000000018003500c     CWString.obj
 0004:00000018       $pdata$?cw_dup@@YAXPEBDAEAHAEAPEA_W1@Z 0000000180035018     CWString.obj
 0004:00000024       $pdata$?DupWide@_CW@@AEAAXXZ 0000000180035024     CWString.obj
 0004:00000030       $pdata$?AtlWinModuleTerm@ATL@@YAJPEAU_ATL_WIN_MODULE70@1@PEAUHINSTANCE__@@@Z 0000000180035030     OposVariant.obj
 0004:0000003c       $pdata$??0CAtlComModule@ATL@@QEAA@XZ 000000018003503c     OposVariant.obj
 0004:00000048       $pdata$?Term@CAtlComModule@ATL@@QEAAXXZ 0000000180035048     OposVariant.obj
 0004:00000054       $pdata$??__E_AtlComModule@ATL@@YAXXZ 0000000180035054     OposVariant.obj
 0004:00000060       $pdata$??0CAtlWinModule@ATL@@QEAA@XZ 0000000180035060     OposVariant.obj
 0004:0000006c       $pdata$??__E_AtlWinModule@ATL@@YAXXZ 000000018003506c     OposVariant.obj
 0004:00000078       $pdata$??__F_AtlWinModule@ATL@@YAXXZ 0000000180035078     OposVariant.obj
 0004:00000084       $pdata$??_Estringdispid@CComTypeInfoHolder@ATL@@QEAAPEAXI@Z 0000000180035084     OposVariant.obj
 0004:00000090       $pdata$?SetVARIANT_BOOL@OposVariant@@QEAAXF@Z 0000000180035090     OposVariant.obj
 0004:0000009c       $pdata$?SetVARIANT_BOOL_Ptr@OposVariant@@QEAAXPEAFAEAJ@Z 000000018003509c     OposVariant.obj
 0004:000000a8       $pdata$?GetLONG@OposVariant@@QEAAJXZ 00000001800350a8     OposVariant.obj
 0004:000000b4       $pdata$?ChangeLONG@OposVariant@@QEAAXPEAJAEAJ@Z 00000001800350b4     OposVariant.obj
 0004:000000c0       $pdata$?SetLONG@OposVariant@@QEAAXJ@Z 00000001800350c0     OposVariant.obj
 0004:000000cc       $pdata$?SetLONG_Ptr@OposVariant@@QEAAXPEAJAEAJ@Z 00000001800350cc     OposVariant.obj
 0004:000000d8       $pdata$?ChangeBSTR@OposVariant@@QEAAXPEAPEA_WAEAJ@Z 00000001800350d8     OposVariant.obj
 0004:000000e4       $pdata$?SetBSTR@OposVariant@@QEAAXPEA_WAEAJ@Z 00000001800350e4     OposVariant.obj
 0004:000000f0       $pdata$?SetBSTR_Copy@OposVariant@@QEAAXPEA_WAEAJ@Z 00000001800350f0     OposVariant.obj
 0004:000000fc       $pdata$?SetBSTR_OutPtr@OposVariant@@QEAA_NPEAPEA_WAEAJ@Z 00000001800350fc     OposVariant.obj
 0004:00000108       $pdata$?SetBSTR_InOutPtr@OposVariant@@QEAA_NPEAPEA_WAEAJ@Z 0000000180035108     OposVariant.obj
 0004:00000114       $pdata$?SetString@OposVariant@@QEAAXPEB_WAEAJ@Z 0000000180035114     OposVariant.obj
 0004:00000120       $pdata$?SetDispatch_Ptr@OposVariant@@QEAAXPEAUIDispatch@@AEAJ@Z 0000000180035120     OposVariant.obj
 0004:0000012c       $pdata$??0OposDispParms@@QEAA@PEAVOposVariant@@H@Z 000000018003512c     OposVariant.obj
 0004:00000138       $pdata$??1OposDispParms@@QEAA@XZ 0000000180035138     OposVariant.obj
 0004:00000144       $pdata$?AtlThrowImpl@ATL@@YAXJ@Z 0000000180035144     BillAcceptor.obj
 0004:00000150       $pdata$swprintf_s          0000000180035150     BillAcceptor.obj
 0004:0000015c       $pdata$?_AtlVerifyStackAvailable@_ATL_SAFE_ALLOCA_IMPL@ATL@@YA_N_K@Z 000000018003515c     BillAcceptor.obj
 0004:00000168       $pdata$?filt$0@?0??_AtlVerifyStackAvailable@_ATL_SAFE_ALLOCA_IMPL@ATL@@YA_N_K@Z@4HA 0000000180035168     BillAcceptor.obj
 0004:00000174       $pdata$?ocscpy_s@@YA_NPEA_W_KPEB_W@Z 0000000180035174     BillAcceptor.obj
 0004:00000180       $pdata$?AtlHresultFromLastError@ATL@@YAJXZ 0000000180035180     BillAcceptor.obj
 0004:0000018c       $pdata$?AtlInternalOleLoadFromStream@ATL@@YAJPEAUIStream@@AEBU_GUID@@PEAPEAXTClassesAllowedInStream@1@K@Z 000000018003518c     BillAcceptor.obj
 0004:00000198       $pdata$?ReadFromStream@CComBSTR@ATL@@QEAAJPEAUIStream@@@Z 0000000180035198     BillAcceptor.obj
 0004:000001a4       $pdata$?WriteToStream@CComVariant@ATL@@QEAAJPEAUIStream@@@Z 00000001800351a4     BillAcceptor.obj
 0004:000001b0       $pdata$?WriteToStream@CComVariant@ATL@@QEAAJPEAUIStream@@G@Z 00000001800351b0     BillAcceptor.obj
 0004:000001bc       $pdata$?ReadFromStream@CComVariant@ATL@@QEAAJPEAUIStream@@GTClassesAllowedInStream@2@K@Z 00000001800351bc     BillAcceptor.obj
 0004:000001c8       $pdata$?GetSizeMax@CComVariant@ATL@@QEBAJPEAT_ULARGE_INTEGER@@@Z 00000001800351c8     BillAcceptor.obj
 0004:000001d4       $pdata$?RegCreateKeyExW@CAtlTransactionManager@ATL@@QEAAJPEAUHKEY__@@PEB_WKPEA_WKKQEAU_SECURITY_ATTRIBUTES@@PEAPEAU3@PEAK@Z 00000001800351d4     BillAcceptor.obj
 0004:000001e0       $pdata$?RegOpenKeyExW@CAtlTransactionManager@ATL@@QEAAJPEAUHKEY__@@PEB_WKKPEAPEAU3@@Z 00000001800351e0     BillAcceptor.obj
 0004:000001ec       $pdata$?RegDeleteKeyW@CAtlTransactionManager@ATL@@QEAAJPEAUHKEY__@@PEB_W@Z 00000001800351ec     BillAcceptor.obj
 0004:000001f8       $pdata$?Add@?$CSimpleArray@GV?$CSimpleArrayEqualHelper@G@ATL@@@ATL@@QEAAHAEBG@Z 00000001800351f8     BillAcceptor.obj
 0004:00000204       $pdata$?AtlInternalQueryInterface@ATL@@YAJPEAXPEBU_ATL_INTMAP_ENTRY@1@AEBU_GUID@@PEAPEAX@Z 0000000180035204     BillAcceptor.obj
 0004:00000210       $pdata$?AtlComModuleGetClassObject@ATL@@YAJPEAU_ATL_COM_MODULE70@1@AEBU_GUID@@1PEAPEAX@Z 0000000180035210     BillAcceptor.obj
 0004:0000021c       $pdata$?AtlRegisterClassCategoriesHelper@ATL@@YAJAEBU_GUID@@PEBU_ATL_CATMAP_ENTRY@1@H@Z 000000018003521c     BillAcceptor.obj
 0004:00000228       $pdata$?AtlLoadTypeLib@ATL@@YAJPEAUHINSTANCE__@@PEB_WPEAPEA_WPEAPEAUITypeLib@@@Z 0000000180035228     BillAcceptor.obj
 0004:00000234       $pdata$?AtlRegisterTypeLib@ATL@@YAJPEAUHINSTANCE__@@PEB_W@Z 0000000180035234     BillAcceptor.obj
 0004:00000240       $pdata$?AtlUnRegisterTypeLib@ATL@@YAJPEAUHINSTANCE__@@PEB_W@Z 0000000180035240     BillAcceptor.obj
 0004:0000024c       $pdata$?AtlComModuleRegisterServer@ATL@@YAJPEAU_ATL_COM_MODULE70@1@HPEBU_GUID@@@Z 000000018003524c     BillAcceptor.obj
 0004:00000258       $pdata$?AtlComModuleUnregisterServer@ATL@@YAJPEAU_ATL_COM_MODULE70@1@HPEBU_GUID@@@Z 0000000180035258     BillAcceptor.obj
 0004:00000264       $pdata$?AtlWinModuleExtractCreateWndData@ATL@@YAPEAXPEAU_ATL_WIN_MODULE70@1@@Z 0000000180035264     BillAcceptor.obj
 0004:00000270       $pdata$?DeleteSubKey@CRegKey@ATL@@QEAAJPEB_W@Z 0000000180035270     BillAcceptor.obj
 0004:0000027c       $pdata$?RecurseDeleteKey@CRegKey@ATL@@QEAAJPEB_W@Z 000000018003527c     BillAcceptor.obj
 0004:00000288       $pdata$??0CAtlModule@ATL@@QEAA@XZ 0000000180035288     BillAcceptor.obj
 0004:00000294       $pdata$?Term@CAtlModule@ATL@@QEAAXXZ 0000000180035294     BillAcceptor.obj
 0004:000002a0       $pdata$?AddTermFunc@CAtlModule@ATL@@QEAAJP6AX_K@Z0@Z 00000001800352a0     BillAcceptor.obj
 0004:000002ac       $pdata$?GetGITPtr@CAtlModule@ATL@@UEAAJPEAPEAUIGlobalInterfaceTable@@@Z 00000001800352ac     BillAcceptor.obj
 0004:000002b8       $pdata$?UpdateRegistryFromResource@CAtlModule@ATL@@QEAAJPEB_WHPEAU_ATL_REGMAP_ENTRY@2@@Z 00000001800352b8     BillAcceptor.obj
 0004:000002c4       $pdata$?UpdateRegistryFromResource@CAtlModule@ATL@@QEAAJIHPEAU_ATL_REGMAP_ENTRY@2@@Z 00000001800352c4     BillAcceptor.obj
 0004:000002d0       $pdata$?Term@CComModule@ATL@@QEAAXXZ 00000001800352d0     BillAcceptor.obj
 0004:000002dc       $pdata$?GetClassObject@CComModule@ATL@@QEAAJAEBU_GUID@@0PEAPEAX@Z 00000001800352dc     BillAcceptor.obj
 0004:000002e8       $pdata$?RegisterServer@CComModule@ATL@@QEAAJHPEBU_GUID@@@Z 00000001800352e8     BillAcceptor.obj
 0004:000002f4       $pdata$?UnregisterServer@CComModule@ATL@@QEAAJHPEBU_GUID@@@Z 00000001800352f4     BillAcceptor.obj
 0004:00000300       $pdata$??_GCComModule@ATL@@UEAAPEAXI@Z 0000000180035300     BillAcceptor.obj
 0004:0000030c       $pdata$?Add@?$CSimpleMap@PEA_WPEA_WVCExpansionVectorEqualHelper@ATL@@@ATL@@QEAAHAEBQEA_W0@Z 000000018003530c     BillAcceptor.obj
 0004:00000318       $pdata$?Lookup@?$CSimpleMap@PEA_WPEA_WVCExpansionVectorEqualHelper@ATL@@@ATL@@QEBAPEA_WAEBQEA_W@Z 0000000180035318     BillAcceptor.obj
 0004:00000324       $pdata$?Add@CExpansionVector@ATL@@QEAAHPEB_W0@Z 0000000180035324     BillAcceptor.obj
 0004:00000330       $pdata$?ClearReplacements@CExpansionVector@ATL@@QEAAJXZ 0000000180035330     BillAcceptor.obj
 0004:0000033c       $pdata$?PreProcessBuffer@CRegParser@ATL@@QEAAJPEA_WPEAPEA_W@Z 000000018003533c     BillAcceptor.obj
 0004:00000348       $pdata$?RegisterBuffer@CRegParser@ATL@@QEAAJPEA_WH@Z 0000000180035348     BillAcceptor.obj
 0004:00000354       $pdata$?NextToken@CRegParser@ATL@@IEAAJPEA_W@Z 0000000180035354     BillAcceptor.obj
 0004:00000360       $pdata$?AddValue@CRegParser@ATL@@IEAAJAEAVCRegKey@2@PEB_WPEA_W@Z 0000000180035360     BillAcceptor.obj
 0004:0000036c       $pdata$?RegisterSubkeys@CRegParser@ATL@@IEAAJPEA_WPEAUHKEY__@@HH@Z 000000018003536c     BillAcceptor.obj
 0004:00000378       $pdata$?SkipAssignment@CRegParser@ATL@@IEAAJPEA_W@Z 0000000180035378     BillAcceptor.obj
 0004:00000384       $pdata$?HKeyFromString@CRegParser@ATL@@KAPEAUHKEY__@@PEA_W@Z 0000000180035384     BillAcceptor.obj
 0004:00000390       $pdata$?VTFromRegType@CRegParser@ATL@@KAHPEB_WAEAG@Z 0000000180035390     BillAcceptor.obj
 0004:0000039c       $pdata$?Append@CParseBuffer@CRegParser@ATL@@QEAAHPEB_WH@Z 000000018003539c     BillAcceptor.obj
 0004:000003a8       $pdata$?AddReplacement@CRegObject@ATL@@UEAAJPEB_W0@Z 00000001800353a8     BillAcceptor.obj
 0004:000003b4       $pdata$?RegisterFromResource@CRegObject@ATL@@IEAAJPEB_W00H@Z 00000001800353b4     BillAcceptor.obj
 0004:000003c0       $pdata$??_GCRegObject@ATL@@UEAAPEAXI@Z 00000001800353c0     BillAcceptor.obj
 0004:000003cc       $pdata$?AllocateHeap@?$CTempBuffer@E$0BAA@VCCRTAllocator@ATL@@@ATL@@AEAAX_K@Z 00000001800353cc     BillAcceptor.obj
 0004:000003cc       $pdata$?AllocateHeap@?$CTempBuffer@_W$0BAA@VCCRTAllocator@ATL@@@ATL@@AEAAX_K@Z 00000001800353cc     BillAcceptor.obj
 0004:000003cc       $pdata$?AllocateHeap@?$CTempBuffer@_W$0EAA@VCCRTAllocator@ATL@@@ATL@@AEAAX_K@Z 00000001800353cc     BillAcceptor.obj
 0004:000003d8       $pdata$?CreateInstance@CComClassFactory@ATL@@UEAAJPEAUIUnknown@@AEBU_GUID@@PEAPEAX@Z 00000001800353d8     BillAcceptor.obj
 0004:000003e4       $pdata$?LockServer@CComClassFactory@ATL@@UEAAJH@Z 00000001800353e4     BillAcceptor.obj
 0004:000003f0       $pdata$??_GCComClassFactory@ATL@@UEAAPEAXI@Z 00000001800353f0     BillAcceptor.obj
 0004:000003fc       $pdata$?GetTI@CComTypeInfoHolder@ATL@@QEAAJK@Z 00000001800353fc     BillAcceptor.obj
 0004:00000408       $pdata$?Cleanup@CComTypeInfoHolder@ATL@@SAX_K@Z 0000000180035408     BillAcceptor.obj
 0004:00000414       $pdata$?GetIDsOfNames@CComTypeInfoHolder@ATL@@QEAAJAEBU_GUID@@PEAPEA_WIKPEAJ@Z 0000000180035414     BillAcceptor.obj
 0004:00000420       $pdata$?LoadNameCache@CComTypeInfoHolder@ATL@@QEAAJPEAUITypeInfo@@@Z 0000000180035420     BillAcceptor.obj
 0004:0000042c       $pdata$?Add@CComDynamicUnkArray@ATL@@QEAAKPEAUIUnknown@@@Z 000000018003542c     BillAcceptor.obj
 0004:00000438       $pdata$?AtlHiMetricToPixel@ATL@@YAXPEBUtagSIZE@@PEAU2@@Z 0000000180035438     BillAcceptor.obj
 0004:00000444       $pdata$?DefaultReflectionHandler@?$CWindowImplRoot@VCWindow@ATL@@@ATL@@SAHPEAUHWND__@@I_K_JAEA_J@Z 0000000180035444     BillAcceptor.obj
 0004:00000450       $pdata$?StartWindowProc@?$CWindowImplBaseT@VCWindow@ATL@@V?$CWinTraits@$0FGAAAAAA@$0A@@2@@ATL@@SA_JPEAUHWND__@@I_K_J@Z 0000000180035450     BillAcceptor.obj
 0004:0000045c       $pdata$?WindowProc@?$CWindowImplBaseT@VCWindow@ATL@@V?$CWinTraits@$0FGAAAAAA@$0A@@2@@ATL@@SA_JPEAUHWND__@@I_K_J@Z 000000018003545c     BillAcceptor.obj
 0004:00000468       $pdata$?atlCreate@?$CWindowImplBaseT@VCWindow@ATL@@V?$CWinTraits@$0FGAAAAAA@$0A@@2@@ATL@@QEAAPEAUHWND__@@PEAU3@V_U_RECT@2@PEB_WKKV_U_MENUorID@2@GPEAX@Z 0000000180035468     BillAcceptor.obj
 0004:00000474       $pdata$?IsEqualObject@?$CComPtrBase@UIOleClientSite@@@ATL@@QEAA_NPEAUIUnknown@@@Z 0000000180035474     BillAcceptor.obj
 0004:00000480       $pdata$??$AtlModuleRegisterWndClassInfoT@VAtlModuleRegisterWndClassInfoParamW@ATL@@@ATL@@YAGPEAU_ATL_BASE_MODULE70@0@PEAU_ATL_WIN_MODULE70@0@PEAU_ATL_WNDCLASSINFOW@0@PEAP6A_JPEAUHWND__@@I_K_J@ZVAtlModuleRegisterWndClassInfoParamW@0@@Z 0000000180035480     BillAcceptor.obj
 0004:0000048c       $pdata$?GetZoomInfo@CComControlBase@ATL@@QEAAXAEAUATL_DRAWINFO@@@Z 000000018003548c     BillAcceptor.obj
 0004:00000498       $pdata$?SendOnDataChange@CComControlBase@ATL@@QEAAJK@Z 0000000180035498     BillAcceptor.obj
 0004:000004a4       $pdata$?OnSetFocus@CComControlBase@ATL@@QEAA_JI_K_JAEAH@Z 00000001800354a4     BillAcceptor.obj
 0004:000004b0       $pdata$?OnKillFocus@CComControlBase@ATL@@QEAA_JI_K_JAEAH@Z 00000001800354b0     BillAcceptor.obj
 0004:000004bc       $pdata$?OnMouseActivate@CComControlBase@ATL@@QEAA_JI_K_JAEAH@Z 00000001800354bc     BillAcceptor.obj
 0004:000004c8       $pdata$?GetAmbientLocaleID@CComControlBase@ATL@@QEAAJAEAK@Z 00000001800354c8     BillAcceptor.obj
 0004:000004d4       $pdata$?GetAmbientUserMode@CComControlBase@ATL@@QEAAJAEAH@Z 00000001800354d4     BillAcceptor.obj
 0004:000004e0       $pdata$?SetControlFocus@CComControlBase@ATL@@QEAAHH@Z 00000001800354e0     BillAcceptor.obj
 0004:000004ec       $pdata$?IQuickActivate_QuickActivate@CComControlBase@ATL@@QEAAJPEAUtagQACONTAINER@@PEAUtagQACONTROL@@@Z 00000001800354ec     BillAcceptor.obj
 0004:000004f8       $pdata$?DoVerbProperties@CComControlBase@ATL@@QEAAJPEBUtagRECT@@PEAUHWND__@@@Z 00000001800354f8     BillAcceptor.obj
 0004:00000504       $pdata$?InPlaceActivate@CComControlBase@ATL@@QEAAJJPEBUtagRECT@@@Z 0000000180035504     BillAcceptor.obj
 0004:00000510       $pdata$?IOleObject_SetClientSite@CComControlBase@ATL@@QEAAJPEAUIOleClientSite@@@Z 0000000180035510     BillAcceptor.obj
 0004:0000051c       $pdata$?IOleObject_Close@CComControlBase@ATL@@QEAAJK@Z 000000018003551c     BillAcceptor.obj
 0004:00000528       $pdata$?IOleObject_SetExtent@CComControlBase@ATL@@QEAAJKPEAUtagSIZE@@@Z 0000000180035528     BillAcceptor.obj
 0004:00000534       $pdata$?IOleInPlaceObject_InPlaceDeactivate@CComControlBase@ATL@@QEAAJXZ 0000000180035534     BillAcceptor.obj
 0004:00000540       $pdata$?IOleInPlaceObject_UIDeactivate@CComControlBase@ATL@@QEAAJXZ 0000000180035540     BillAcceptor.obj
 0004:0000054c       $pdata$?IOleInPlaceObject_SetObjectRects@CComControlBase@ATL@@QEAAJPEBUtagRECT@@0@Z 000000018003554c     BillAcceptor.obj
 0004:00000558       $pdata$?IViewObject_Draw@CComControlBase@ATL@@QEAAJKJPEAXPEAUtagDVTARGETDEVICE@@PEAUHDC__@@2PEBU_RECTL@@3@Z 0000000180035558     BillAcceptor.obj
 0004:00000564       $pdata$?IDataObject_GetData@CComControlBase@ATL@@QEAAJPEAUtagFORMATETC@@PEAUtagSTGMEDIUM@@@Z 0000000180035564     BillAcceptor.obj
 0004:00000570       $pdata$?FireViewChange@CComControlBase@ATL@@QEAAJXZ 0000000180035570     BillAcceptor.obj
 0004:0000057c       $pdata$?OnPaint@CComControlBase@ATL@@QEAA_JI_K_JAEAH@Z 000000018003557c     BillAcceptor.obj
 0004:00000588       $pdata$?OnDrawAdvanced@CComControlBase@ATL@@UEAAJAEAUATL_DRAWINFO@@@Z 0000000180035588     BillAcceptor.obj
 0004:00000594       $pdata$?GetTypeInfo@?$IDispatchImpl@UIOPOSBillAcceptor@@$1?IID_IOPOSBillAcceptor@@3U_GUID@@B$1?LIBID_OposBillAcceptor_CCO@@3U3@B$00$0A@VCComTypeInfoHolder@ATL@@@ATL@@UEAAJIKPEAPEAUITypeInfo@@@Z 0000000180035594     BillAcceptor.obj
 0004:000005a0       $pdata$?Invoke@?$IDispatchImpl@UIOPOSBillAcceptor@@$1?IID_IOPOSBillAcceptor@@3U_GUID@@B$1?LIBID_OposBillAcceptor_CCO@@3U3@B$00$0A@VCComTypeInfoHolder@ATL@@@ATL@@UEAAJJAEBU_GUID@@KGPEAUtagDISPPARAMS@@PEAUtagVARIANT@@PEAUtagEXCEPINFO@@PEAI@Z 00000001800355a0     BillAcceptor.obj
 0004:000005ac       $pdata$?atlCreate@?$CWindowImpl@VCOPOSBillAcceptor@@VCWindow@ATL@@V?$CWinTraits@$0FGAAAAAA@$0A@@3@@ATL@@QEAAPEAUHWND__@@PEAU3@V_U_RECT@2@PEB_WKKV_U_MENUorID@2@PEAX@Z 00000001800355ac     BillAcceptor.obj
 0004:000005b8       $pdata$?CreateControlWindow@?$CComControl@VCOPOSBillAcceptor@@V?$CWindowImpl@VCOPOSBillAcceptor@@VCWindow@ATL@@V?$CWinTraits@$0FGAAAAAA@$0A@@3@@ATL@@@ATL@@UEAAPEAUHWND__@@PEAU3@AEAUtagRECT@@@Z 00000001800355b8     BillAcceptor.obj
 0004:000005c4       $pdata$?ProcessWindowMessage@?$CComControl@VCOPOSBillAcceptor@@V?$CWindowImpl@VCOPOSBillAcceptor@@VCWindow@ATL@@V?$CWinTraits@$0FGAAAAAA@$0A@@3@@ATL@@@ATL@@UEAAHPEAUHWND__@@I_K_JAEA_JK@Z 00000001800355c4     BillAcceptor.obj
 0004:000005d0       $pdata$?GetSizeMax@?$IPersistStreamInitImpl@VCOPOSBillAcceptor@@@ATL@@UEAAJPEAT_ULARGE_INTEGER@@@Z 00000001800355d0     BillAcceptor.obj
 0004:000005dc       $pdata$?IPersistStreamInit_Load@?$IPersistStreamInitImpl@VCOPOSBillAcceptor@@@ATL@@QEAAJPEAUIStream@@PEBUATL_PROPMAP_ENTRY@2@@Z 00000001800355dc     BillAcceptor.obj
 0004:000005e8       $pdata$?IPersistStreamInit_Save@?$IPersistStreamInitImpl@VCOPOSBillAcceptor@@@ATL@@QEAAJPEAUIStream@@HPEBUATL_PROPMAP_ENTRY@2@@Z 00000001800355e8     BillAcceptor.obj
 0004:000005f4       $pdata$?GetClientSite@?$IOleObjectImpl@VCOPOSBillAcceptor@@@ATL@@UEAAJPEAPEAUIOleClientSite@@@Z 00000001800355f4     BillAcceptor.obj
 0004:00000600       $pdata$?DoVerbPrimary@?$IOleObjectImpl@VCOPOSBillAcceptor@@@ATL@@QEAAJPEBUtagRECT@@PEAUHWND__@@@Z 0000000180035600     BillAcceptor.obj
 0004:0000060c       $pdata$?DoVerb@?$IOleObjectImpl@VCOPOSBillAcceptor@@@ATL@@UEAAJJPEAUtagMSG@@PEAUIOleClientSite@@JPEAUHWND__@@PEBUtagRECT@@@Z 000000018003560c     BillAcceptor.obj
 0004:00000618       $pdata$?Advise@?$IOleObjectImpl@VCOPOSBillAcceptor@@@ATL@@UEAAJPEAUIAdviseSink@@PEAK@Z 0000000180035618     BillAcceptor.obj
 0004:00000624       $pdata$?Unadvise@?$IOleObjectImpl@VCOPOSBillAcceptor@@@ATL@@UEAAJK@Z 0000000180035624     BillAcceptor.obj
 0004:00000630       $pdata$?EnumAdvise@?$IOleObjectImpl@VCOPOSBillAcceptor@@@ATL@@UEAAJPEAPEAUIEnumSTATDATA@@@Z 0000000180035630     BillAcceptor.obj
 0004:0000063c       $pdata$?TranslateAcceleratorW@?$IOleInPlaceActiveObjectImpl@VCOPOSBillAcceptor@@@ATL@@UEAAJPEAUtagMSG@@@Z 000000018003563c     BillAcceptor.obj
 0004:00000648       $pdata$?OnDocWindowActivate@?$IOleInPlaceActiveObjectImpl@VCOPOSBillAcceptor@@@ATL@@UEAAJH@Z 0000000180035648     BillAcceptor.obj
 0004:00000654       $pdata$?Draw@?$IViewObjectExImpl@VCOPOSBillAcceptor@@@ATL@@UEAAJKJPEAXPEAUtagDVTARGETDEVICE@@PEAUHDC__@@2PEBU_RECTL@@3P6AH_K@Z4@Z 0000000180035654     BillAcceptor.obj
 0004:00000660       $pdata$?SetAdvise@?$IViewObjectExImpl@VCOPOSBillAcceptor@@@ATL@@UEAAJKKPEAUIAdviseSink@@@Z 0000000180035660     BillAcceptor.obj
 0004:0000066c       $pdata$?GetAdvise@?$IViewObjectExImpl@VCOPOSBillAcceptor@@@ATL@@UEAAJPEAK0PEAPEAUIAdviseSink@@@Z 000000018003566c     BillAcceptor.obj
 0004:00000678       $pdata$?QueryHitPoint@?$IViewObjectExImpl@VCOPOSBillAcceptor@@@ATL@@UEAAJKPEBUtagRECT@@UtagPOINT@@JPEAK@Z 0000000180035678     BillAcceptor.obj
 0004:00000684       $pdata$?QueryHitRect@?$IViewObjectExImpl@VCOPOSBillAcceptor@@@ATL@@UEAAJKPEBUtagRECT@@0JPEAK@Z 0000000180035684     BillAcceptor.obj
 0004:00000690       $pdata$?OnWindowMessage@?$IOleInPlaceObjectWindowlessImpl@VCOPOSBillAcceptor@@@ATL@@UEAAJI_K_JPEA_J@Z 0000000180035690     BillAcceptor.obj
 0004:0000069c       $pdata$?EnumConnectionPoints@?$IConnectionPointContainerImpl@VCOPOSBillAcceptor@@@ATL@@UEAAJPEAPEAUIEnumConnectionPoints@@@Z 000000018003569c     BillAcceptor.obj
 0004:000006a8       $pdata$?FindConnectionPoint@?$IConnectionPointContainerImpl@VCOPOSBillAcceptor@@@ATL@@UEAAJAEBU_GUID@@PEAPEAUIConnectionPoint@@@Z 00000001800356a8     BillAcceptor.obj
 0004:000006b4       $pdata$?IsDirty@?$IPersistStorageImpl@VCOPOSBillAcceptor@@@ATL@@UEAAJXZ 00000001800356b4     BillAcceptor.obj
 0004:000006c0       $pdata$?InitNew@?$IPersistStorageImpl@VCOPOSBillAcceptor@@@ATL@@UEAAJPEAUIStorage@@@Z 00000001800356c0     BillAcceptor.obj
 0004:000006cc       $pdata$?Load@?$IPersistStorageImpl@VCOPOSBillAcceptor@@@ATL@@UEAAJPEAUIStorage@@@Z 00000001800356cc     BillAcceptor.obj
 0004:000006d8       $pdata$?Save@?$IPersistStorageImpl@VCOPOSBillAcceptor@@@ATL@@UEAAJPEAUIStorage@@H@Z 00000001800356d8     BillAcceptor.obj
 0004:000006e4       $pdata$?IPSI_GetIPersistStreamInit@?$IPersistStorageImpl@VCOPOSBillAcceptor@@@ATL@@AEAAPEAUIPersistStreamInit@@XZ 00000001800356e4     BillAcceptor.obj
 0004:000006f0       $pdata$?GetPagesHelper@?$ISpecifyPropertyPagesImpl@VCOPOSBillAcceptor@@@ATL@@IEAAJPEAUtagCAUUID@@PEBUATL_PROPMAP_ENTRY@2@@Z 00000001800356f0     BillAcceptor.obj
 0004:000006fc       $pdata$?DAdvise@?$IDataObjectImpl@VCOPOSBillAcceptor@@@ATL@@UEAAJPEAUtagFORMATETC@@KPEAUIAdviseSink@@PEAK@Z 00000001800356fc     BillAcceptor.obj
 0004:00000708       $pdata$?GetClassInfoW@?$IProvideClassInfo2Impl@$1?CLSID_OPOSBillAcceptor@@3U_GUID@@B$1?DIID__IOPOSBillAcceptorEvents@@3U2@B$1?LIBID_OposBillAcceptor_CCO@@3U2@B$00$0A@VCComTypeInfoHolder@ATL@@@ATL@@UEAAJPEAPEAUITypeInfo@@@Z 0000000180035708     BillAcceptor.obj
 0004:00000714       $pdata$?GetInterfaceSafetyOptions@?$IObjectSafetyImpl@VCOPOSBillAcceptor@@$02@ATL@@UEAAJAEBU_GUID@@PEAK1@Z 0000000180035714     BillAcceptor.obj
 0004:00000720       $pdata$?SetInterfaceSafetyOptions@?$IObjectSafetyImpl@VCOPOSBillAcceptor@@$02@ATL@@UEAAJAEBU_GUID@@KK@Z 0000000180035720     BillAcceptor.obj
 0004:0000072c       $pdata$?_LocCPQueryInterface@?$IConnectionPointImpl@VCOPOSBillAcceptor@@$1?DIID__IOPOSBillAcceptorEvents@@3U_GUID@@BVCComDynamicUnkArray@ATL@@@ATL@@UEAAJAEBU_GUID@@PEAPEAX@Z 000000018003572c     BillAcceptor.obj
 0004:0000072c       $pdata$?_LocCPQueryInterface@?$IConnectionPointImpl@VCOPOSBillAcceptor@@$1?IID_IPropertyNotifySink@@3U_GUID@@BVCComDynamicUnkArray@ATL@@@ATL@@UEAAJAEBU_GUID@@PEAPEAX@Z 000000018003572c     BillAcceptor.obj
 0004:00000738       $pdata$?Advise@?$IConnectionPointImpl@VCOPOSBillAcceptor@@$1?DIID__IOPOSBillAcceptorEvents@@3U_GUID@@BVCComDynamicUnkArray@ATL@@@ATL@@UEAAJPEAUIUnknown@@PEAK@Z 0000000180035738     BillAcceptor.obj
 0004:00000738       $pdata$?Advise@?$IConnectionPointImpl@VCOPOSBillAcceptor@@$1?IID_IPropertyNotifySink@@3U_GUID@@BVCComDynamicUnkArray@ATL@@@ATL@@UEAAJPEAUIUnknown@@PEAK@Z 0000000180035738     BillAcceptor.obj
 0004:00000744       $pdata$?Unadvise@?$IConnectionPointImpl@VCOPOSBillAcceptor@@$1?DIID__IOPOSBillAcceptorEvents@@3U_GUID@@BVCComDynamicUnkArray@ATL@@@ATL@@UEAAJK@Z 0000000180035744     BillAcceptor.obj
 0004:00000744       $pdata$?Unadvise@?$IConnectionPointImpl@VCOPOSBillAcceptor@@$1?IID_IPropertyNotifySink@@3U_GUID@@BVCComDynamicUnkArray@ATL@@@ATL@@UEAAJK@Z 0000000180035744     BillAcceptor.obj
 0004:00000750       $pdata$?EnumConnections@?$IConnectionPointImpl@VCOPOSBillAcceptor@@$1?DIID__IOPOSBillAcceptorEvents@@3U_GUID@@BVCComDynamicUnkArray@ATL@@@ATL@@UEAAJPEAPEAUIEnumConnections@@@Z 0000000180035750     BillAcceptor.obj
 0004:00000750       $pdata$?EnumConnections@?$IConnectionPointImpl@VCOPOSBillAcceptor@@$1?IID_IPropertyNotifySink@@3U_GUID@@BVCComDynamicUnkArray@ATL@@@ATL@@UEAAJPEAPEAUIEnumConnections@@@Z 0000000180035750     BillAcceptor.obj
 0004:0000075c       $pdata$?Fire_DataEvent@?$CProxy_IOPOSEvents@VCOPOSBillAcceptor@@@@QEAAXJ@Z 000000018003575c     BillAcceptor.obj
 0004:00000768       $pdata$?Fire_DirectIOEvent@?$CProxy_IOPOSEvents@VCOPOSBillAcceptor@@@@QEAAXJPEAJPEAPEA_W@Z 0000000180035768     BillAcceptor.obj
 0004:00000774       $pdata$?Fire_StatusUpdateEvent@?$CProxy_IOPOSEvents@VCOPOSBillAcceptor@@@@QEAAXJ@Z 0000000180035774     BillAcceptor.obj
 0004:00000780       $pdata$?FireTheEvent@?$CProxy_IOPOSEvents@VCOPOSBillAcceptor@@@@IEAAXPEAVOposVariant@@IAEAJPEB_WJ@Z 0000000180035780     BillAcceptor.obj
 0004:0000078c       $pdata$?GetConnMap@COPOSBillAcceptor@@SAPEBU_ATL_CONNMAP_ENTRY@ATL@@PEAH@Z 000000018003578c     BillAcceptor.obj
 0004:00000798       $pdata$?ProcessWindowMessage@COPOSBillAcceptor@@UEAAHPEAUHWND__@@I_K_JAEA_JK@Z 0000000180035798     BillAcceptor.obj
 0004:000007a4       $pdata$?SOData@COPOSBillAcceptor@@MEAAJJ@Z 00000001800357a4     BillAcceptor.obj
 0004:000007b0       $pdata$?SODirectIO@COPOSBillAcceptor@@MEAAJJPEAJPEAPEA_W@Z 00000001800357b0     BillAcceptor.obj
 0004:000007bc       $pdata$?SOStatusUpdate@COPOSBillAcceptor@@MEAAJJ@Z 00000001800357bc     BillAcceptor.obj
 0004:000007c8       $pdata$?DoEvent@COPOSBillAcceptor@@IEAAXI_K_J@Z 00000001800357c8     BillAcceptor.obj
 0004:000007d4       $pdata$??__E_Module@@YAXXZ 00000001800357d4     BillAcceptor.obj
 0004:000007e0       $pdata$?CreateInstance@?$CComCreator@V?$CComObjectCached@VCComClassFactory@ATL@@@ATL@@@ATL@@SAJPEAXAEBU_GUID@@PEAPEAX@Z 00000001800357e0     BillAcceptor.obj
 0004:000007ec       $pdata$DllMain             00000001800357ec     BillAcceptor.obj
 0004:000007f8       $pdata$?CreateInstance@?$CComCreator@V?$CComObject@VCOPOSBillAcceptor@@@ATL@@@ATL@@SAJPEAXAEBU_GUID@@PEAPEAX@Z 00000001800357f8     BillAcceptor.obj
 0004:00000804       $pdata$?CreateInstance@?$CComCreator@V?$CComAggObject@VCOPOSBillAcceptor@@@ATL@@@ATL@@SAJPEAXAEBU_GUID@@PEAPEAX@Z 0000000180035804     BillAcceptor.obj
 0004:00000810       $pdata$?AddRef@?$CComObjectCached@VCComClassFactory@ATL@@@ATL@@UEAAKXZ 0000000180035810     BillAcceptor.obj
 0004:0000081c       $pdata$?Release@?$CComObjectCached@VCComClassFactory@ATL@@@ATL@@UEAAKXZ 000000018003581c     BillAcceptor.obj
 0004:00000828       $pdata$??_G?$CComObjectCached@VCComClassFactory@ATL@@@ATL@@UEAAPEAXI@Z 0000000180035828     BillAcceptor.obj
 0004:00000834       $pdata$??1?$CComEnumImpl@UIEnumConnectionPoints@@$1?_GUID_b196b285_bab4_101a_b69c_00aa00341d07@@3U__s_GUID@@BPEAUIConnectionPoint@@V?$_CopyInterface@UIConnectionPoint@@@ATL@@@ATL@@UEAA@XZ 0000000180035834     BillAcceptor.obj
 0004:00000840       $pdata$?Next@?$CComEnumImpl@UIEnumConnectionPoints@@$1?_GUID_b196b285_bab4_101a_b69c_00aa00341d07@@3U__s_GUID@@BPEAUIConnectionPoint@@V?$_CopyInterface@UIConnectionPoint@@@ATL@@@ATL@@UEAAJKPEAPEAUIConnectionPoint@@PEAK@Z 0000000180035840     BillAcceptor.obj
 0004:0000084c       $pdata$?Clone@?$CComEnumImpl@UIEnumConnectionPoints@@$1?_GUID_b196b285_bab4_101a_b69c_00aa00341d07@@3U__s_GUID@@BPEAUIConnectionPoint@@V?$_CopyInterface@UIConnectionPoint@@@ATL@@@ATL@@UEAAJPEAPEAUIEnumConnectionPoints@@@Z 000000018003584c     BillAcceptor.obj
 0004:00000858       $pdata$?Init@?$CComEnumImpl@UIEnumConnectionPoints@@$1?_GUID_b196b285_bab4_101a_b69c_00aa00341d07@@3U__s_GUID@@BPEAUIConnectionPoint@@V?$_CopyInterface@UIConnectionPoint@@@ATL@@@ATL@@QEAAJPEAPEAUIConnectionPoint@@0PEAUIUnknown@@W4CComEnumFlags@2@@Z 0000000180035858     BillAcceptor.obj
 0004:00000864       $pdata$?Release@?$CComObject@V?$CComEnum@UIEnumConnectionPoints@@$1?_GUID_b196b285_bab4_101a_b69c_00aa00341d07@@3U__s_GUID@@BPEAUIConnectionPoint@@V?$_CopyInterface@UIConnectionPoint@@@ATL@@VCComSingleThreadModel@6@@ATL@@@ATL@@UEAAKXZ 0000000180035864     BillAcceptor.obj
 0004:00000864       $pdata$?Release@?$CComObject@V?$CComEnum@UIEnumConnections@@$1?_GUID_b196b287_bab4_101a_b69c_00aa00341d07@@3U__s_GUID@@BUtagCONNECTDATA@@V?$_Copy@UtagCONNECTDATA@@@ATL@@VCComSingleThreadModel@6@@ATL@@@ATL@@UEAAKXZ 0000000180035864     BillAcceptor.obj
 0004:00000870       $pdata$?CreateInstance@?$CComObject@V?$CComEnum@UIEnumConnectionPoints@@$1?_GUID_b196b285_bab4_101a_b69c_00aa00341d07@@3U__s_GUID@@BPEAUIConnectionPoint@@V?$_CopyInterface@UIConnectionPoint@@@ATL@@VCComSingleThreadModel@6@@ATL@@@ATL@@SAJPEAPEAV12@@Z 0000000180035870     BillAcceptor.obj
 0004:0000087c       $pdata$??_G?$CComObject@V?$CComEnum@UIEnumConnectionPoints@@$1?_GUID_b196b285_bab4_101a_b69c_00aa00341d07@@3U__s_GUID@@BPEAUIConnectionPoint@@V?$_CopyInterface@UIConnectionPoint@@@ATL@@VCComSingleThreadModel@6@@ATL@@@ATL@@UEAAPEAXI@Z 000000018003587c     BillAcceptor.obj
 0004:00000888       $pdata$?Release@?$CComAggObject@VCOPOSBillAcceptor@@@ATL@@UEAAKXZ 0000000180035888     BillAcceptor.obj
 0004:00000894       $pdata$?QueryInterface@?$CComAggObject@VCOPOSBillAcceptor@@@ATL@@UEAAJAEBU_GUID@@PEAPEAX@Z 0000000180035894     BillAcceptor.obj
 0004:000008a0       $pdata$??0?$CComContainedObject@VCOPOSBillAcceptor@@@ATL@@QEAA@PEAX@Z 00000001800358a0     BillAcceptor.obj
 0004:000008ac       $pdata$??_G?$CComContainedObject@VCOPOSBillAcceptor@@@ATL@@UEAAPEAXI@Z 00000001800358ac     BillAcceptor.obj
 0004:000008b8       $pdata$??_G?$CComAggObject@VCOPOSBillAcceptor@@@ATL@@UEAAPEAXI@Z 00000001800358b8     BillAcceptor.obj
 0004:000008c4       $pdata$??0?$CComObject@VCOPOSBillAcceptor@@@ATL@@QEAA@PEAX@Z 00000001800358c4     BillAcceptor.obj
 0004:000008d0       $pdata$??1?$CComObject@VCOPOSBillAcceptor@@@ATL@@UEAA@XZ 00000001800358d0     BillAcceptor.obj
 0004:000008dc       $pdata$?Release@?$CComObject@VCOPOSBillAcceptor@@@ATL@@UEAAKXZ 00000001800358dc     BillAcceptor.obj
 0004:000008e8       $pdata$??_G?$CComObject@VCOPOSBillAcceptor@@@ATL@@UEAAPEAXI@Z 00000001800358e8     BillAcceptor.obj
 0004:000008f4       $pdata$??__E?pConnMap@?$IConnectionPointContainerImpl@VCOPOSBillAcceptor@@@ATL@@0PEBU_ATL_CONNMAP_ENTRY@2@EB@@YAXXZ 00000001800358f4     BillAcceptor.obj
 0004:00000900       $pdata$??1?$CComEnumImpl@UIEnumConnections@@$1?_GUID_b196b287_bab4_101a_b69c_00aa00341d07@@3U__s_GUID@@BUtagCONNECTDATA@@V?$_Copy@UtagCONNECTDATA@@@ATL@@@ATL@@UEAA@XZ 0000000180035900     BillAcceptor.obj
 0004:0000090c       $pdata$?Next@?$CComEnumImpl@UIEnumConnections@@$1?_GUID_b196b287_bab4_101a_b69c_00aa00341d07@@3U__s_GUID@@BUtagCONNECTDATA@@V?$_Copy@UtagCONNECTDATA@@@ATL@@@ATL@@UEAAJKPEAUtagCONNECTDATA@@PEAK@Z 000000018003590c     BillAcceptor.obj
 0004:00000918       $pdata$?Clone@?$CComEnumImpl@UIEnumConnections@@$1?_GUID_b196b287_bab4_101a_b69c_00aa00341d07@@3U__s_GUID@@BUtagCONNECTDATA@@V?$_Copy@UtagCONNECTDATA@@@ATL@@@ATL@@UEAAJPEAPEAUIEnumConnections@@@Z 0000000180035918     BillAcceptor.obj
 0004:00000924       $pdata$?Init@?$CComEnumImpl@UIEnumConnections@@$1?_GUID_b196b287_bab4_101a_b69c_00aa00341d07@@3U__s_GUID@@BUtagCONNECTDATA@@V?$_Copy@UtagCONNECTDATA@@@ATL@@@ATL@@QEAAJPEAUtagCONNECTDATA@@0PEAUIUnknown@@W4CComEnumFlags@2@@Z 0000000180035924     BillAcceptor.obj
 0004:00000930       $pdata$?CreateInstance@?$CComObject@V?$CComEnum@UIEnumConnections@@$1?_GUID_b196b287_bab4_101a_b69c_00aa00341d07@@3U__s_GUID@@BUtagCONNECTDATA@@V?$_Copy@UtagCONNECTDATA@@@ATL@@VCComSingleThreadModel@6@@ATL@@@ATL@@SAJPEAPEAV12@@Z 0000000180035930     BillAcceptor.obj
 0004:0000093c       $pdata$??_G?$CComObject@V?$CComEnum@UIEnumConnections@@$1?_GUID_b196b287_bab4_101a_b69c_00aa00341d07@@3U__s_GUID@@BUtagCONNECTDATA@@V?$_Copy@UtagCONNECTDATA@@@ATL@@VCComSingleThreadModel@6@@ATL@@@ATL@@UEAAPEAXI@Z 000000018003593c     BillAcceptor.obj
 0004:00000948       $pdata$??1CComControlBase@ATL@@UEAA@XZ 0000000180035948     BillAcceptorImpl.obj
 0004:00000954       $pdata$??1?$IConnectionPointImpl@VCOPOSBillAcceptor@@$1?DIID__IOPOSBillAcceptorEvents@@3U_GUID@@BVCComDynamicUnkArray@ATL@@@ATL@@QEAA@XZ 0000000180035954     BillAcceptorImpl.obj
 0004:00000954       $pdata$??1?$IConnectionPointImpl@VCOPOSBillAcceptor@@$1?IID_IPropertyNotifySink@@3U_GUID@@BVCComDynamicUnkArray@ATL@@@ATL@@QEAA@XZ 0000000180035954     BillAcceptorImpl.obj
 0004:00000960       $pdata$?FinalConstruct@COPOSBillAcceptor@@QEAAJXZ 0000000180035960     BillAcceptorImpl.obj
 0004:0000096c       $pdata$??1COPOSBillAcceptor@@UEAA@XZ 000000018003596c     BillAcceptorImpl.obj
 0004:00000978       $pdata$?GetOposProp@COPOSBillAcceptor@@IEAAJJPEAJJ@Z 0000000180035978     BillAcceptorImpl.obj
 0004:00000984       $pdata$?SetOposProp@COPOSBillAcceptor@@IEAAJJJJ@Z 0000000180035984     BillAcceptorImpl.obj
 0004:00000990       $pdata$?GetOposProp@COPOSBillAcceptor@@IEAAJJPEAPEA_WJ@Z 0000000180035990     BillAcceptorImpl.obj
 0004:0000099c       $pdata$?SetOposProp@COPOSBillAcceptor@@IEAAJJPEA_WJ@Z 000000018003599c     BillAcceptorImpl.obj
 0004:000009a8       $pdata$?DoInvoke@COPOSBillAcceptor@@IEAAJJPEAVOposVariant@@IHPEAJ_N@Z 00000001800359a8     BillAcceptorImpl.obj
 0004:000009b4       $pdata$?SetCOFreezeEvents@COPOSBillAcceptor@@IEAAXF@Z 00000001800359b4     BillAcceptorImpl.obj
 0004:000009c0       $pdata$?FreezeEvents@COPOSBillAcceptor@@MEAAJH@Z 00000001800359c0     BillAcceptorImpl.obj
 0004:000009cc       $pdata$?OnDraw@COPOSBillAcceptor@@MEAAJAEAUATL_DRAWINFO@@@Z 00000001800359cc     BillAcceptorImpl.obj
 0004:000009d8       $pdata$?EventInit@COPOSBillAcceptor@@IEAAJXZ 00000001800359d8     BillAcceptorImpl.obj
 0004:000009e4       $pdata$?EventUninit@COPOSBillAcceptor@@IEAAXXZ 00000001800359e4     BillAcceptorImpl.obj
 0004:000009f0       $pdata$?s_EventWindowProc@COPOSBillAcceptor@@KA_JPEAUHWND__@@I_K_J@Z 00000001800359f0     BillAcceptorImpl.obj
 0004:000009fc       $pdata$?EventWindowProc@COPOSBillAcceptor@@IEAA_JI_K_J@Z 00000001800359fc     BillAcceptorImpl.obj
 0004:00000a08       $pdata$?SOProcessID@COPOSBillAcceptor@@UEAAJPEAJ@Z 0000000180035a08     BillAcceptorImpl.obj
 0004:00000a14       $pdata$?get_Claimed@COPOSBillAcceptor@@UEAAJPEAF@Z 0000000180035a14     BillAcceptorImpl.obj
 0004:00000a20       $pdata$?get_DataEventEnabled@COPOSBillAcceptor@@UEAAJPEAF@Z 0000000180035a20     BillAcceptorImpl.obj
 0004:00000a2c       $pdata$?get_DeviceEnabled@COPOSBillAcceptor@@UEAAJPEAF@Z 0000000180035a2c     BillAcceptorImpl.obj
 0004:00000a38       $pdata$?get_FreezeEvents@COPOSBillAcceptor@@UEAAJPEAF@Z 0000000180035a38     BillAcceptorImpl.obj
 0004:00000a44       $pdata$?put_FreezeEvents@COPOSBillAcceptor@@UEAAJF@Z 0000000180035a44     BillAcceptorImpl.obj
 0004:00000a50       $pdata$?get_ResultCode@COPOSBillAcceptor@@UEAAJPEAJ@Z 0000000180035a50     BillAcceptorImpl.obj
 0004:00000a5c       $pdata$?get_State@COPOSBillAcceptor@@UEAAJPEAJ@Z 0000000180035a5c     BillAcceptorImpl.obj
 0004:00000a68       $pdata$?get_ControlObjectDescription@COPOSBillAcceptor@@UEAAJPEAPEA_W@Z 0000000180035a68     BillAcceptorImpl.obj
 0004:00000a74       $pdata$?get_CapStatisticsReporting@COPOSBillAcceptor@@UEAAJPEAF@Z 0000000180035a74     BillAcceptorImpl.obj
 0004:00000a80       $pdata$?get_CapUpdateStatistics@COPOSBillAcceptor@@UEAAJPEAF@Z 0000000180035a80     BillAcceptorImpl.obj
 0004:00000a8c       $pdata$?get_CapCompareFirmwareVersion@COPOSBillAcceptor@@UEAAJPEAF@Z 0000000180035a8c     BillAcceptorImpl.obj
 0004:00000a98       $pdata$?get_CapUpdateFirmware@COPOSBillAcceptor@@UEAAJPEAF@Z 0000000180035a98     BillAcceptorImpl.obj
 0004:00000aa4       $pdata$?CheckHealth@COPOSBillAcceptor@@UEAAJJPEAJ@Z 0000000180035aa4     BillAcceptorImpl.obj
 0004:00000ab0       $pdata$?ClaimDevice@COPOSBillAcceptor@@UEAAJJPEAJ@Z 0000000180035ab0     BillAcceptorImpl.obj
 0004:00000abc       $pdata$?ClearInput@COPOSBillAcceptor@@UEAAJPEAJ@Z 0000000180035abc     BillAcceptorImpl.obj
 0004:00000ac8       $pdata$?Close@COPOSBillAcceptor@@UEAAJPEAJ@Z 0000000180035ac8     BillAcceptorImpl.obj
 0004:00000ad4       $pdata$?DirectIO@COPOSBillAcceptor@@UEAAJJPEAJPEAPEA_W0@Z 0000000180035ad4     BillAcceptorImpl.obj
 0004:00000ae0       $pdata$?Open@COPOSBillAcceptor@@UEAAJPEA_WPEAJ@Z 0000000180035ae0     BillAcceptorImpl.obj
 0004:00000aec       $pdata$?ReleaseDevice@COPOSBillAcceptor@@UEAAJPEAJ@Z 0000000180035aec     BillAcceptorImpl.obj
 0004:00000af8       $pdata$?ResetStatistics@COPOSBillAcceptor@@UEAAJPEA_WPEAJ@Z 0000000180035af8     BillAcceptorImpl.obj
 0004:00000b04       $pdata$?RetrieveStatistics@COPOSBillAcceptor@@UEAAJPEAPEA_WPEAJ@Z 0000000180035b04     BillAcceptorImpl.obj
 0004:00000b10       $pdata$?UpdateStatistics@COPOSBillAcceptor@@UEAAJPEA_WPEAJ@Z 0000000180035b10     BillAcceptorImpl.obj
 0004:00000b1c       $pdata$?CompareFirmwareVersion@COPOSBillAcceptor@@UEAAJPEA_WPEAJ1@Z 0000000180035b1c     BillAcceptorImpl.obj
 0004:00000b28       $pdata$?UpdateFirmware@COPOSBillAcceptor@@UEAAJPEA_WPEAJ@Z 0000000180035b28     BillAcceptorImpl.obj
 0004:00000b34       $pdata$?get_CapDiscrepancy@COPOSBillAcceptor@@UEAAJPEAF@Z 0000000180035b34     BillAcceptorImpl.obj
 0004:00000b40       $pdata$?get_CapFullSensor@COPOSBillAcceptor@@UEAAJPEAF@Z 0000000180035b40     BillAcceptorImpl.obj
 0004:00000b4c       $pdata$?get_CapJamSensor@COPOSBillAcceptor@@UEAAJPEAF@Z 0000000180035b4c     BillAcceptorImpl.obj
 0004:00000b58       $pdata$?get_CapNearFullSensor@COPOSBillAcceptor@@UEAAJPEAF@Z 0000000180035b58     BillAcceptorImpl.obj
 0004:00000b64       $pdata$?get_CapPauseDeposit@COPOSBillAcceptor@@UEAAJPEAF@Z 0000000180035b64     BillAcceptorImpl.obj
 0004:00000b70       $pdata$?get_CapRealTimeData@COPOSBillAcceptor@@UEAAJPEAF@Z 0000000180035b70     BillAcceptorImpl.obj
 0004:00000b7c       $pdata$?get_RealTimeDataEnabled@COPOSBillAcceptor@@UEAAJPEAF@Z 0000000180035b7c     BillAcceptorImpl.obj
 0004:00000b88       $pdata$?AdjustCashCounts@COPOSBillAcceptor@@UEAAJPEA_WPEAJ@Z 0000000180035b88     BillAcceptorImpl.obj
 0004:00000b94       $pdata$?BeginDeposit@COPOSBillAcceptor@@UEAAJPEAJ@Z 0000000180035b94     BillAcceptorImpl.obj
 0004:00000ba0       $pdata$?EndDeposit@COPOSBillAcceptor@@UEAAJJPEAJ@Z 0000000180035ba0     BillAcceptorImpl.obj
 0004:00000bac       $pdata$?FixDeposit@COPOSBillAcceptor@@UEAAJPEAJ@Z 0000000180035bac     BillAcceptorImpl.obj
 0004:00000bb8       $pdata$?PauseDeposit@COPOSBillAcceptor@@UEAAJJPEAJ@Z 0000000180035bb8     BillAcceptorImpl.obj
 0004:00000bc4       $pdata$?ReadCashCounts@COPOSBillAcceptor@@UEAAJPEAPEA_WPEAFPEAJ@Z 0000000180035bc4     BillAcceptorImpl.obj
 0004:00000bd0       $pdata$atexit              0000000180035bd0     LIBCMT:utility.obj
 0004:00000bdc       $pdata$_onexit             0000000180035bdc     LIBCMT:utility.obj
 0004:00000be8       $pdata$__scrt_is_nonwritable_in_current_image 0000000180035be8     LIBCMT:utility.obj
 0004:00000bf4       $pdata$__scrt_is_nonwritable_in_current_image$filt$0 0000000180035bf4     LIBCMT:utility.obj
 0004:00000c00       $pdata$__scrt_acquire_startup_lock 0000000180035c00     LIBCMT:utility.obj
 0004:00000c0c       $pdata$__scrt_release_startup_lock 0000000180035c0c     LIBCMT:utility.obj
 0004:00000c18       $pdata$__scrt_initialize_crt 0000000180035c18     LIBCMT:utility.obj
 0004:00000c24       $pdata$__scrt_uninitialize_crt 0000000180035c24     LIBCMT:utility.obj
 0004:00000c30       $pdata$__scrt_initialize_onexit_tables 0000000180035c30     LIBCMT:utility.obj
 0004:00000c3c       $pdata$__scrt_dllmain_exception_filter 0000000180035c3c     LIBCMT:utility.obj
 0004:00000c48       $pdata$__scrt_dllmain_before_initialize_c 0000000180035c48     LIBCMT:utility.obj
 0004:00000c54       $pdata$__scrt_dllmain_after_initialize_c 0000000180035c54     LIBCMT:utility.obj
 0004:00000c60       $pdata$__scrt_dllmain_uninitialize_c 0000000180035c60     LIBCMT:utility.obj
 0004:00000c6c       $pdata$__scrt_dllmain_uninitialize_critical 0000000180035c6c     LIBCMT:utility.obj
 0004:00000c78       $pdata$__scrt_dllmain_crt_thread_attach 0000000180035c78     LIBCMT:utility.obj
 0004:00000c84       $pdata$__scrt_dllmain_crt_thread_detach 0000000180035c84     LIBCMT:utility.obj
 0004:00000c90       $pdata$_Init_thread_header 0000000180035c90     LIBCMT:thread_safe_statics.obj
 0004:00000c9c       $pdata$_Init_thread_footer 0000000180035c9c     LIBCMT:thread_safe_statics.obj
 0004:00000ca8       $pdata$_Init_thread_wait   0000000180035ca8     LIBCMT:thread_safe_statics.obj
 0004:00000cb4       $pdata$_Init_thread_notify 0000000180035cb4     LIBCMT:thread_safe_statics.obj
 0004:00000cc0       $pdata$?__scrt_uninitialize_thread_safe_statics@@YAXXZ 0000000180035cc0     LIBCMT:thread_safe_statics.obj
 0004:00000ccc       $pdata$?__scrt_initialize_thread_safe_statics@@YAHXZ 0000000180035ccc     LIBCMT:thread_safe_statics.obj
 0004:00000cd8       $pdata$__report_securityfailure 0000000180035cd8     LIBCMT:gs_report.obj
 0004:00000ce4       $pdata$__report_rangecheckfailure 0000000180035ce4     LIBCMT:gs_report.obj
 0004:00000cf0       $pdata$__report_gsfailure  0000000180035cf0     LIBCMT:gs_report.obj
 0004:00000cfc       $pdata$capture_current_context 0000000180035cfc     LIBCMT:gs_report.obj
 0004:00000d08       $pdata$capture_previous_context 0000000180035d08     LIBCMT:gs_report.obj
 0004:00000d14       $pdata$__raise_securityfailure 0000000180035d14     LIBCMT:gs_report.obj
 0004:00000d20       $pdata$??2@YAPEAX_KAEBUnothrow_t@std@@@Z 0000000180035d20     LIBCMT:new_scalar_nothrow.obj
 0004:00000d2c       $pdata$?catch$0@?0???2@YAPEAX_KAEBUnothrow_t@std@@@Z@4HA 0000000180035d2c     LIBCMT:new_scalar_nothrow.obj
 0004:00000d38       $pdata$__GSHandlerCheckCommon 0000000180035d38     LIBCMT:gshandler.obj
 0004:00000d44       $pdata$__GSHandlerCheck    0000000180035d44     LIBCMT:gshandler.obj
 0004:00000d50       $pdata$__GSHandlerCheck_SEH 0000000180035d50     LIBCMT:gshandlerseh.obj
 0004:00000d74       $pdata$?dllmain_crt_process_attach@@YAHQEAUHINSTANCE__@@QEAX@Z 0000000180035d74     LIBCMT:dll_dllmain.obj
 0004:00000d80       $pdata$?fin$0@?0??dllmain_crt_process_attach@@YAHQEAUHINSTANCE__@@QEAX@Z@4HA 0000000180035d80     LIBCMT:dll_dllmain.obj
 0004:00000d8c       $pdata$?dllmain_crt_process_detach@@YAH_N@Z 0000000180035d8c     LIBCMT:dll_dllmain.obj
 0004:00000d98       $pdata$?fin$0@?0??dllmain_crt_process_detach@@YAH_N@Z@4HA 0000000180035d98     LIBCMT:dll_dllmain.obj
 0004:00000da4       $pdata$?fin$1@?0??dllmain_crt_process_detach@@YAH_N@Z@4HA 0000000180035da4     LIBCMT:dll_dllmain.obj
 0004:00000db0       $pdata$?dllmain_crt_dispatch@@YAHQEAUHINSTANCE__@@KQEAX@Z 0000000180035db0     LIBCMT:dll_dllmain.obj
 0004:00000dbc       $pdata$?dllmain_dispatch@@YAHQEAUHINSTANCE__@@KQEAX@Z 0000000180035dbc     LIBCMT:dll_dllmain.obj
 0004:00000dc8       $pdata$?filt$0@?0??dllmain_dispatch@@YAHQEAUHINSTANCE__@@KQEAX@Z@4HA 0000000180035dc8     LIBCMT:dll_dllmain.obj
 0004:00000dd4       $pdata$_DllMainCRTStartup  0000000180035dd4     LIBCMT:dll_dllmain.obj
 0004:00000de0       $pdata$??2@YAPEAX_K@Z      0000000180035de0     LIBCMT:new_scalar.obj
 0004:00000dec       $pdata$__isa_available_init 0000000180035dec     LIBCMT:cpu_disp.obj
 0004:00000df8       $pdata$__scrt_fastfail     0000000180035df8     LIBCMT:utility_desktop.obj
 0004:00000e04       $pdata$__security_init_cookie 0000000180035e04     LIBCMT:gs_support.obj
 0004:00000e10       $pdata$__scrt_initialize_default_local_stdio_options 0000000180035e10     LIBCMT:default_local_stdio_options.obj
 0004:00000e1c       $pdata$_RTC_Initialize     0000000180035e1c     LIBCMT:initsect.obj
 0004:00000e28       $pdata$_RTC_Terminate      0000000180035e28     LIBCMT:initsect.obj
 0004:00000e34       $pdata$??0exception@std@@QEAA@AEBV01@@Z 0000000180035e34     LIBCMT:throw_bad_alloc.obj
 0004:00000e40       $pdata$??_Gbad_alloc@std@@UEAAPEAXI@Z 0000000180035e40     LIBCMT:throw_bad_alloc.obj
 0004:00000e40       $pdata$??_Gbad_array_new_length@std@@UEAAPEAXI@Z 0000000180035e40     LIBCMT:throw_bad_alloc.obj
 0004:00000e40       $pdata$??_Gexception@std@@UEAAPEAXI@Z 0000000180035e40     LIBCMT:throw_bad_alloc.obj
 0004:00000e40       $pdata$??_Gbad_exception@std@@UEAAPEAXI@Z 0000000180035e40     libvcruntime:frame.obj
 0004:00000e4c       $pdata$??0bad_alloc@std@@QEAA@AEBV01@@Z 0000000180035e4c     LIBCMT:throw_bad_alloc.obj
 0004:00000e58       $pdata$??0bad_array_new_length@std@@QEAA@AEBV01@@Z 0000000180035e58     LIBCMT:throw_bad_alloc.obj
 0004:00000e64       $pdata$?__scrt_throw_std_bad_alloc@@YAXXZ 0000000180035e64     LIBCMT:throw_bad_alloc.obj
 0004:00000e70       $pdata$?__scrt_throw_std_bad_array_new_length@@YAXXZ 0000000180035e70     LIBCMT:throw_bad_alloc.obj
 0004:00000e94       $pdata$??_Gtype_info@@UEAAPEAXI@Z 0000000180035e94     LIBCMT:std_type_info_static.obj
 0004:00000ea0       $pdata$??0CAtlBaseModule@ATL@@QEAA@XZ 0000000180035ea0     atls:atlbase.obj
 0004:00000eac       $pdata$??1CAtlBaseModule@ATL@@QEAA@XZ 0000000180035eac     atls:atlbase.obj
 0004:00000eb8       $pdata$??__E_AtlBaseModule@ATL@@YAXXZ 0000000180035eb8     atls:atlbase.obj
 0004:00000ec4       $pdata$AtlThunk_AllocateData 0000000180035ec4     atls:atlthunk.obj
 0004:00000ed0       $pdata$AtlThunk_InitData   0000000180035ed0     atls:atlthunk.obj
 0004:00000edc       $pdata$AtlThunk_DataToCode 0000000180035edc     atls:atlthunk.obj
 0004:00000ee8       $pdata$AtlThunk_FreeData   0000000180035ee8     atls:atlthunk.obj
 0004:00000ef4       $pdata$?__InitializeThunkPool@@YAHXZ 0000000180035ef4     atls:atlthunk.obj
 0004:00000f00       $pdata$?__AllocStdCallThunk_cmn@@YAPEAXXZ 0000000180035f00     atls:atlthunk.obj
 0004:00000f0c       $pdata$??$GetProcAddressAll@P6AP6A_JPEAUHWND__@@I_K_J@ZPEAUAtlThunkData_t@@@Z@@YAP6AP6A_JPEAUHWND__@@I_K_J@ZPEAUAtlThunkData_t@@@ZPEAP6AP6A_J0I12@Z3@Z@Z 0000000180035f0c     atls:atlthunk.obj
 0004:00000f0c       $pdata$??$GetProcAddressAll@P6APEAUAtlThunkData_t@@XZ@@YAP6APEAUAtlThunkData_t@@XZPEAP6APEAU0@XZ@Z 0000000180035f0c     atls:atlthunk.obj
 0004:00000f0c       $pdata$??$GetProcAddressAll@P6AXPEAUAtlThunkData_t@@@Z@@YAP6AXPEAUAtlThunkData_t@@@ZPEAP6AX0@Z@Z 0000000180035f0c     atls:atlthunk.obj
 0004:00000f0c       $pdata$??$GetProcAddressAll@P6AXPEAUAtlThunkData_t@@PEAX_K@Z@@YAP6AXPEAUAtlThunkData_t@@PEAX_K@ZPEAP6AX012@Z@Z 0000000180035f0c     atls:atlthunk.obj
 0004:00000f18       $pdata$_purecall           0000000180035f18     libvcruntime:purevirt.obj
 0004:00000f24       $pdata$wcsstr              0000000180035f24     libvcruntime:wcsstr.obj
 0004:00000f6c       $pdata$__vcrt_initialize   0000000180035f6c     libvcruntime:initialization.obj
 0004:00000f78       $pdata$__vcrt_uninitialize 0000000180035f78     libvcruntime:initialization.obj
 0004:00000f84       $pdata$__vcrt_uninitialize_critical 0000000180035f84     libvcruntime:initialization.obj
 0004:00000f90       $pdata$__vcrt_thread_attach 0000000180035f90     libvcruntime:initialization.obj
 0004:00000f9c       $pdata$__vcrt_thread_detach 0000000180035f9c     libvcruntime:initialization.obj
 0004:00000fa8       $pdata$__C_specific_handler 0000000180035fa8     libvcruntime:riscchandler.obj
 0004:00000fb4       $pdata$?DecompFuncInfo@FH4@@YA_JPEAEAEAUFuncInfo4@1@_KH_N@Z 0000000180035fb4     libvcruntime:risctrnsctrl.obj
 0004:00000fc0       $pdata$?FrameUnwindToEmptyState@__FrameHandler4@@SAXPEA_KPEAU_xDISPATCHER_CONTEXT@@PEAUFuncInfo4@FH4@@@Z 0000000180035fc0     libvcruntime:risctrnsctrl.obj
 0004:00000fcc       $pdata$?UnwindNestedFrames@__FrameHandler4@@SAXPEA_KPEAUEHExceptionRecord@@PEAU_CONTEXT@@0PEAXPEAUFuncInfo4@FH4@@HHPEAUHandlerType4@5@PEAU_xDISPATCHER_CONTEXT@@E@Z 0000000180035fcc     libvcruntime:risctrnsctrl.obj
 0004:00000fd8       $pdata$?GetRangeOfTrysToCheck@__FrameHandler4@@SA?AU?$pair@Viterator@TryBlockMap4@FH4@@V123@@std@@AEAVTryBlockMap4@FH4@@HPEAU_xDISPATCHER_CONTEXT@@PEAUFuncInfo4@5@H@Z 0000000180035fd8     libvcruntime:risctrnsctrl.obj
 0004:00000fe4       $pdata$_GetImageBase       0000000180035fe4     libvcruntime:risctrnsctrl.obj
 0004:00000ff0       $pdata$_SetImageBase       0000000180035ff0     libvcruntime:risctrnsctrl.obj
 0004:00000ffc       $pdata$_GetThrowImageBase  0000000180035ffc     libvcruntime:risctrnsctrl.obj
 0004:00001008       $pdata$_SetThrowImageBase  0000000180036008     libvcruntime:risctrnsctrl.obj
 0004:00001014       $pdata$_CreateFrameInfo    0000000180036014     libvcruntime:risctrnsctrl.obj
 0004:00001020       $pdata$_FindAndUnlinkFrame 0000000180036020     libvcruntime:risctrnsctrl.obj
 0004:0000102c       $pdata$__CxxFrameHandler4  000000018003602c     libvcruntime:risctrnsctrl.obj
 0004:00001038       $pdata$??$_CallSETranslator@V__FrameHandler4@@@@YAHPEAUEHExceptionRecord@@PEA_KPEAU_CONTEXT@@PEAU_xDISPATCHER_CONTEXT@@PEAUFuncInfo4@FH4@@K1H@Z 0000000180036038     libvcruntime:risctrnsctrl.obj
 0004:00001044       $pdata$?filt$0@?0???$_CallSETranslator@V__FrameHandler4@@@@YAHPEAUEHExceptionRecord@@PEA_KPEAU_CONTEXT@@PEAU_xDISPATCHER_CONTEXT@@PEAUFuncInfo4@FH4@@K1H@Z@4HA 0000000180036044     libvcruntime:risctrnsctrl.obj
 0004:00001050       $pdata$_IsExceptionObjectToBeDestroyed 0000000180036050     libvcruntime:ehhelpers.obj
 0004:0000105c       $pdata$__FrameUnwindFilter 000000018003605c     libvcruntime:ehhelpers.obj
 0004:00001068       $pdata$__DestructExceptionObject 0000000180036068     libvcruntime:ehhelpers.obj
 0004:00001074       $pdata$__DestructExceptionObject$filt$0 0000000180036074     libvcruntime:ehhelpers.obj
 0004:00001080       $pdata$__std_type_info_destroy_list 0000000180036080     libvcruntime:std_type_info.obj
 0004:0000108c       $pdata$__std_exception_copy 000000018003608c     libvcruntime:std_exception.obj
 0004:00001098       $pdata$__std_exception_destroy 0000000180036098     libvcruntime:std_exception.obj
 0004:000010a4       $pdata$_CxxThrowException  00000001800360a4     libvcruntime:throw.obj
 0004:000010b0       $pdata$__vcrt_initialize_ptd 00000001800360b0     libvcruntime:per_thread_data.obj
 0004:000010bc       $pdata$__vcrt_uninitialize_ptd 00000001800360bc     libvcruntime:per_thread_data.obj
 0004:000010c8       $pdata$__vcrt_getptd       00000001800360c8     libvcruntime:per_thread_data.obj
 0004:000010d4       $pdata$__vcrt_getptd_noexit 00000001800360d4     libvcruntime:per_thread_data.obj
 0004:000010e0       $pdata$__vcrt_freeptd      00000001800360e0     libvcruntime:per_thread_data.obj
 0004:000010ec       $pdata$__vcrt_freefls      00000001800360ec     libvcruntime:per_thread_data.obj
 0004:000010f8       $pdata$__vcrt_initialize_locks 00000001800360f8     libvcruntime:locks.obj
 0004:00001104       $pdata$__vcrt_uninitialize_locks 0000000180036104     libvcruntime:locks.obj
 0004:00001134       $pdata$?StateFromIp@__FrameHandler4@@SAHPEAUFuncInfo4@FH4@@PEAU_xDISPATCHER_CONTEXT@@_K@Z 0000000180036134     libvcruntime:ehstate.obj
 0004:00001140       $pdata$?getStartStop@UWMap4@FH4@@QEAAXHHAEAViterator@12@0@Z 0000000180036140     libvcruntime:frame.obj
 0004:0000114c       $pdata$?getStateFromIterators@UWMap4@FH4@@SAHAEBViterator@12@H0H0@Z 000000018003614c     libvcruntime:frame.obj
 0004:00001158       $pdata$??0HandlerMap4@FH4@@QEAA@PEBUTryBlockMapEntry4@1@_KH@Z 0000000180036158     libvcruntime:frame.obj
 0004:00001164       $pdata$?FrameUnwindToState@__FrameHandler4@@SAXPEA_KPEAU_xDISPATCHER_CONTEXT@@PEAUFuncInfo4@FH4@@H@Z 0000000180036164     libvcruntime:frame.obj
 0004:00001170       $pdata$?filt$0@?0??FrameUnwindToState@__FrameHandler4@@SAXPEA_KPEAU_xDISPATCHER_CONTEXT@@PEAUFuncInfo4@FH4@@H@Z@4HA 0000000180036170     libvcruntime:frame.obj
 0004:0000117c       $pdata$?fin$1@?0??FrameUnwindToState@__FrameHandler4@@SAXPEA_KPEAU_xDISPATCHER_CONTEXT@@PEAUFuncInfo4@FH4@@H@Z@4HA 000000018003617c     libvcruntime:frame.obj
 0004:00001188       $pdata$?CxxCallCatchBlock@__FrameHandler4@@SAPEAXPEAU_EXCEPTION_RECORD@@@Z 0000000180036188     libvcruntime:frame.obj
 0004:00001194       $pdata$?filt$0@?0??CxxCallCatchBlock@__FrameHandler4@@SAPEAXPEAU_EXCEPTION_RECORD@@@Z@4HA 0000000180036194     libvcruntime:frame.obj
 0004:000011a0       $pdata$?fin$1@?0??CxxCallCatchBlock@__FrameHandler4@@SAPEAXPEAU_EXCEPTION_RECORD@@@Z@4HA 00000001800361a0     libvcruntime:frame.obj
 0004:000011ac       $pdata$??0bad_exception@std@@QEAA@AEBV01@@Z 00000001800361ac     libvcruntime:frame.obj
 0004:000011b8       $pdata$?ExFilterRethrow@@YAHPEAU_EXCEPTION_POINTERS@@PEAUEHExceptionRecord@@PEAH@Z 00000001800361b8     libvcruntime:frame.obj
 0004:000011c4       $pdata$?ExFilterRethrowFH4@@YAHPEAU_EXCEPTION_POINTERS@@PEAUEHExceptionRecord@@HPEAH@Z 00000001800361c4     libvcruntime:frame.obj
 0004:000011d0       $pdata$?IsInExceptionSpec@@YAEPEAUEHExceptionRecord@@PEBU_s_ESTypeList@@@Z 00000001800361d0     libvcruntime:frame.obj
 0004:000011dc       $pdata$?Is_bad_exception_allowed@@YAEPEBU_s_ESTypeList@@@Z 00000001800361dc     libvcruntime:frame.obj
 0004:000011e8       $pdata$??$__InternalCxxFrameHandler@V__FrameHandler4@@@@YA?AW4_EXCEPTION_DISPOSITION@@PEAUEHExceptionRecord@@PEA_KPEAU_CONTEXT@@PEAU_xDISPATCHER_CONTEXT@@PEAUFuncInfo4@FH4@@H1E@Z 00000001800361e8     libvcruntime:frame.obj
 0004:000011f4       $pdata$??$TypeMatchHelper@V__FrameHandler3@@@@YAHPEBU_s_HandlerType@@PEBU_s_CatchableType@@PEBU_s_ThrowInfo@@@Z 00000001800361f4     libvcruntime:frame.obj
 0004:00001200       $pdata$??$TypeMatchHelper@V__FrameHandler4@@@@YAHPEAUHandlerType4@FH4@@PEBU_s_CatchableType@@PEBU_s_ThrowInfo@@@Z 0000000180036200     libvcruntime:frame.obj
 0004:0000120c       $pdata$??$BuildCatchObjectHelperInternal@V__FrameHandler4@@@@YAHPEAUEHExceptionRecord@@PEAXPEAUHandlerType4@FH4@@PEBU_s_CatchableType@@@Z 000000018003620c     libvcruntime:frame.obj
 0004:00001218       $pdata$??$BuildCatchObjectInternal@V__FrameHandler4@@@@YAXPEAUEHExceptionRecord@@PEAXPEAUHandlerType4@FH4@@PEBU_s_CatchableType@@@Z 0000000180036218     libvcruntime:frame.obj
 0004:00001224       $pdata$??$FindHandler@V__FrameHandler4@@@@YAXPEAUEHExceptionRecord@@PEA_KPEAU_CONTEXT@@PEAU_xDISPATCHER_CONTEXT@@PEAUFuncInfo4@FH4@@EH1@Z 0000000180036224     libvcruntime:frame.obj
 0004:00001230       $pdata$??$CatchIt@V__FrameHandler4@@@@YAXPEAUEHExceptionRecord@@PEA_KPEAU_CONTEXT@@PEAU_xDISPATCHER_CONTEXT@@PEAUFuncInfo4@FH4@@PEAUHandlerType4@4@PEBU_s_CatchableType@@PEAUTryBlockMapEntry4@4@H1EE@Z 0000000180036230     libvcruntime:frame.obj
 0004:0000123c       $pdata$??$FindHandlerForForeignException@V__FrameHandler4@@@@YAXPEAUEHExceptionRecord@@PEA_KPEAU_CONTEXT@@PEAU_xDISPATCHER_CONTEXT@@PEAUFuncInfo4@FH4@@HH1@Z 000000018003623c     libvcruntime:frame.obj
 0004:00001248       $pdata$__vcrt_FlsAlloc     0000000180036248     libvcruntime:winapi_downlevel.obj
 0004:00001254       $pdata$__vcrt_FlsFree      0000000180036254     libvcruntime:winapi_downlevel.obj
 0004:00001260       $pdata$__vcrt_FlsGetValue  0000000180036260     libvcruntime:winapi_downlevel.obj
 0004:0000126c       $pdata$__vcrt_FlsSetValue  000000018003626c     libvcruntime:winapi_downlevel.obj
 0004:00001278       $pdata$__vcrt_InitializeCriticalSectionEx 0000000180036278     libvcruntime:winapi_downlevel.obj
 0004:00001284       $pdata$?try_get_function@@YAPEAXW4function_id@?A0x5302d918@@QEBDQEBW4module_id@2@2@Z 0000000180036284     libvcruntime:winapi_downlevel.obj
 0004:000012c0       $pdata$_invalid_parameter_noinfo 00000001800362c0     libucrt:invalid_parameter.obj
 0004:000012cc       $pdata$_invoke_watson      00000001800362cc     libucrt:invalid_parameter.obj
 0004:000012d8       $pdata$__acrt_call_reportfault 00000001800362d8     libucrt:invalid_parameter.obj
 0004:000012e4       $pdata$_invalid_parameter  00000001800362e4     libucrt:invalid_parameter.obj
 0004:000012f0       $pdata$_errno              00000001800362f0     libucrt:errno.obj
 0004:000012fc       $pdata$__doserrno          00000001800362fc     libucrt:errno.obj
 0004:00001308       $pdata$__acrt_errno_map_os_error 0000000180036308     libucrt:errno.obj
 0004:00001314       $pdata$_recalloc_base      0000000180036314     libucrt:recalloc.obj
 0004:00001320       $pdata$_resetstkoflw       0000000180036320     libucrt:resetstk.obj
 0004:0000132c       $pdata$wcscat_s            000000018003632c     libucrt:wcscat_s.obj
 0004:00001338       $pdata$wcscpy_s            0000000180036338     libucrt:wcscpy_s.obj
 0004:00001344       $pdata$wcsncpy_s           0000000180036344     libucrt:wcsncpy_s.obj
 0004:00001350       $pdata$??0_LocaleUpdate@@QEAA@QEAU__crt_locale_pointers@@@Z 0000000180036350     libucrt:output.obj
 0004:0000135c       $pdata$__stdio_common_vswprintf_s 000000018003635c     libucrt:output.obj
 0004:00001368       $pdata$?write_string@?$string_output_adapter@_W@__crt_stdio_output@@QEBAXQEB_WHQEAHAEAV__crt_deferred_errno_cache@@@Z 0000000180036368     libucrt:output.obj
 0004:00001374       $pdata$??$common_vsprintf@Vformat_validation_base@__crt_stdio_output@@_W@@YAH_KQEA_W0QEB_WQEAU__crt_locale_pointers@@QEAD@Z 0000000180036374     libucrt:output.obj
 0004:00001380       $pdata$??$write_multiple_characters@V?$string_output_adapter@_W@__crt_stdio_output@@D@__crt_stdio_output@@YAXAEBV?$string_output_adapter@_W@0@DHQEAH@Z 0000000180036380     libucrt:output.obj
 0004:0000138c       $pdata$??$ensure_buffer_is_big_enough@D@formatting_buffer@__crt_stdio_output@@QEAA_N_K@Z 000000018003638c     libucrt:output.obj
 0004:00001398       $pdata$??$ensure_buffer_is_big_enough@_W@formatting_buffer@__crt_stdio_output@@QEAA_N_K@Z 0000000180036398     libucrt:output.obj
 0004:000013a4       $pdata$?process@?$output_processor@_WV?$string_output_adapter@_W@__crt_stdio_output@@V?$format_validation_base@_WV?$string_output_adapter@_W@__crt_stdio_output@@@2@@__crt_stdio_output@@QEAAHXZ 00000001800363a4     libucrt:output.obj
 0004:000013b0       $pdata$?parse_int_from_format_string@?$output_processor@_WV?$string_output_adapter@_W@__crt_stdio_output@@V?$format_validation_base@_WV?$string_output_adapter@_W@__crt_stdio_output@@@2@@__crt_stdio_output@@AEAA_NQEAH@Z 00000001800363b0     libucrt:output.obj
 0004:000013bc       $pdata$?state_case_size@?$output_processor@_WV?$string_output_adapter@_W@__crt_stdio_output@@V?$format_validation_base@_WV?$string_output_adapter@_W@__crt_stdio_output@@@2@@__crt_stdio_output@@AEAA_NXZ 00000001800363bc     libucrt:output.obj
 0004:000013c8       $pdata$?state_case_type@?$output_processor@_WV?$string_output_adapter@_W@__crt_stdio_output@@V?$format_validation_base@_WV?$string_output_adapter@_W@__crt_stdio_output@@@2@@__crt_stdio_output@@AEAA_NXZ 00000001800363c8     libucrt:output.obj
 0004:000013d4       $pdata$?type_case_c_tchar@?$output_processor@_WV?$string_output_adapter@_W@__crt_stdio_output@@V?$format_validation_base@_WV?$string_output_adapter@_W@__crt_stdio_output@@@2@@__crt_stdio_output@@AEAA_N_W@Z 00000001800363d4     libucrt:output.obj
 0004:000013e0       $pdata$?type_case_Z@?$output_processor@_WV?$string_output_adapter@_W@__crt_stdio_output@@V?$format_validation_base@_WV?$string_output_adapter@_W@__crt_stdio_output@@@2@@__crt_stdio_output@@AEAA_NXZ 00000001800363e0     libucrt:output.obj
 0004:000013ec       $pdata$?type_case_s@?$output_processor@_WV?$string_output_adapter@_W@__crt_stdio_output@@V?$format_validation_base@_WV?$string_output_adapter@_W@__crt_stdio_output@@@2@@__crt_stdio_output@@AEAA_NXZ 00000001800363ec     libucrt:output.obj
 0004:000013f8       $pdata$?type_case_a@?$output_processor@_WV?$string_output_adapter@_W@__crt_stdio_output@@V?$format_validation_base@_WV?$string_output_adapter@_W@__crt_stdio_output@@@2@@__crt_stdio_output@@AEAA_NXZ 00000001800363f8     libucrt:output.obj
 0004:00001404       $pdata$?type_case_integer@?$output_processor@_WV?$string_output_adapter@_W@__crt_stdio_output@@V?$format_validation_base@_WV?$string_output_adapter@_W@__crt_stdio_output@@@2@@__crt_stdio_output@@AEAA_NI_N@Z 0000000180036404     libucrt:output.obj
 0004:00001410       $pdata$?type_case_n@?$output_processor@_WV?$string_output_adapter@_W@__crt_stdio_output@@V?$format_validation_base@_WV?$string_output_adapter@_W@__crt_stdio_output@@@2@@__crt_stdio_output@@AEAA_NXZ 0000000180036410     libucrt:output.obj
 0004:0000141c       $pdata$?write_stored_string_tchar@?$output_processor@_WV?$string_output_adapter@_W@__crt_stdio_output@@V?$format_validation_base@_WV?$string_output_adapter@_W@__crt_stdio_output@@@2@@__crt_stdio_output@@AEAA_N_W@Z 000000018003641c     libucrt:output.obj
 0004:00001428       $pdata$??$type_case_integer_parse_into_buffer@_K@?$output_processor@_WV?$string_output_adapter@_W@__crt_stdio_output@@V?$format_validation_base@_WV?$string_output_adapter@_W@__crt_stdio_output@@@2@@__crt_stdio_output@@AEAAX_KI_N@Z 0000000180036428     libucrt:output.obj
 0004:00001434       $pdata$??$type_case_integer_parse_into_buffer@I@?$output_processor@_WV?$string_output_adapter@_W@__crt_stdio_output@@V?$format_validation_base@_WV?$string_output_adapter@_W@__crt_stdio_output@@@2@@__crt_stdio_output@@AEAAXII_N@Z 0000000180036434     libucrt:output.obj
 0004:00001440       $pdata$_seh_filter_exe     0000000180036440     libucrt:exception_filter.obj
 0004:0000144c       $pdata$?try_cor_exit_process@@YAXI@Z 000000018003644c     libucrt:exit.obj
 0004:00001458       $pdata$?exit_or_terminate_process@@YAXI@Z 0000000180036458     libucrt:exit.obj
 0004:00001464       $pdata$?common_exit@@YAXHW4_crt_exit_cleanup_mode@@W4_crt_exit_return_mode@@@Z 0000000180036464     libucrt:exit.obj
 0004:00001470       $pdata$??R<lambda_6e4b09c48022b2350581041d5f6b0c4c>@@QEBA@XZ 0000000180036470     libucrt:exit.obj
 0004:0000147c       $pdata$?filt$0@?0???R<lambda_6e4b09c48022b2350581041d5f6b0c4c>@@QEBA@XZ@4HA 000000018003647c     libucrt:exit.obj
 0004:00001488       $pdata$??$?RV<lambda_d80eeec6fff315bfe5c115232f3240e3>@@AEAV<lambda_6e4b09c48022b2350581041d5f6b0c4c>@@V<lambda_2358e3775559c9db80273638284d5e45>@@@?$__crt_seh_guarded_call@X@@QEAAX$$QEAV<lambda_d80eeec6fff315bfe5c115232f3240e3>@@AEAV<lambda_6e4b09c48022b2350581041d5f6b0c4c>@@$$QEAV<lambda_2358e3775559c9db80273638284d5e45>@@@Z 0000000180036488     libucrt:exit.obj
 0004:00001494       $pdata$?fin$0@?0???$?RV<lambda_0ae27a3a962d80f24befdcbee591983d>@@AEAV<lambda_8d0ee55de4b1038c4002e0adecdf1839>@@V<lambda_dc504788e8f1664fe9b84e20bfb512f2>@@@?$__crt_seh_guarded_call@X@@QEAAX$$QEAV<lambda_0ae27a3a962d80f24befdcbee591983d>@@AEAV<lambda_8d0ee55de4b1038c4002e0adecdf1839>@@$$QEAV<lambda_dc504788e8f1664fe9b84e20bfb512f2>@@@Z@4HA 0000000180036494     libucrt:per_thread_data.obj
 0004:00001494       $pdata$?fin$0@?0???$?RV<lambda_2d41944a1d46af3157314b8a01080d33>@@AEAV<lambda_8f455de75cd7d7f24b4096f044d8b9e6>@@V<lambda_aa500f224e6afead328df44964fe2772>@@@?$__crt_seh_guarded_call@X@@QEAAX$$QEAV<lambda_2d41944a1d46af3157314b8a01080d33>@@AEAV<lambda_8f455de75cd7d7f24b4096f044d8b9e6>@@$$QEAV<lambda_aa500f224e6afead328df44964fe2772>@@@Z@4HA 0000000180036494     libucrt:per_thread_data.obj
 0004:00001494       $pdata$?fin$0@?0???$?RV<lambda_aa87e3671a710a21b5dc78c0bdf72e11>@@AEAV<lambda_92619d2358a28f41a33ba319515a20b9>@@V<lambda_6992ecaafeb10aed2b74cb1fae11a551>@@@?$__crt_seh_guarded_call@X@@QEAAX$$QEAV<lambda_aa87e3671a710a21b5dc78c0bdf72e11>@@AEAV<lambda_92619d2358a28f41a33ba319515a20b9>@@$$QEAV<lambda_6992ecaafeb10aed2b74cb1fae11a551>@@@Z@4HA 0000000180036494     libucrt:per_thread_data.obj
 0004:00001494       $pdata$?fin$0@?0???$?RV<lambda_f2e299630e499de9f9a165e60fcd3db5>@@AEAV<lambda_2ae9d31cdba2644fcbeaf08da7c24588>@@V<lambda_40d01ff24d0e7b3814fdbdcee8eab3c7>@@@?$__crt_seh_guarded_call@X@@QEAAX$$QEAV<lambda_f2e299630e499de9f9a165e60fcd3db5>@@AEAV<lambda_2ae9d31cdba2644fcbeaf08da7c24588>@@$$QEAV<lambda_40d01ff24d0e7b3814fdbdcee8eab3c7>@@@Z@4HA 0000000180036494     libucrt:per_thread_data.obj
 0004:00001494       $pdata$?fin$0@?0???$?RV<lambda_efdfa57d1f175319df784efa44bb7b81>@@AEAV<lambda_5f0a4c1567f8adc6734073e5d1e1b35c>@@V<lambda_2e8a7d3640ea6ccb4c2413664c2db6fd>@@@?$__crt_seh_guarded_call@X@@QEAAX$$QEAV<lambda_efdfa57d1f175319df784efa44bb7b81>@@AEAV<lambda_5f0a4c1567f8adc6734073e5d1e1b35c>@@$$QEAV<lambda_2e8a7d3640ea6ccb4c2413664c2db6fd>@@@Z@4HA 0000000180036494     libucrt:mbctype.obj
 0004:00001494       $pdata$?fin$0@?0???$?RV<lambda_450d765d439847d4c735a33c368b5fc0>@@AEAV<lambda_44731a7d0e6d81c3e6aa82d741081786>@@V<lambda_601a2a7da3b7a96e9554ac7215c4b07c>@@@?$__crt_seh_guarded_call@P6AXH@Z@@QEAAP6AXH@Z$$QEAV<lambda_450d765d439847d4c735a33c368b5fc0>@@AEAV<lambda_44731a7d0e6d81c3e6aa82d741081786>@@$$QEAV<lambda_601a2a7da3b7a96e9554ac7215c4b07c>@@@Z@4HA 0000000180036494     libucrt:signal.obj
 0004:00001494       $pdata$?fin$0@?0???$?RV<lambda_d80eeec6fff315bfe5c115232f3240e3>@@AEAV<lambda_6e4b09c48022b2350581041d5f6b0c4c>@@V<lambda_2358e3775559c9db80273638284d5e45>@@@?$__crt_seh_guarded_call@X@@QEAAX$$QEAV<lambda_d80eeec6fff315bfe5c115232f3240e3>@@AEAV<lambda_6e4b09c48022b2350581041d5f6b0c4c>@@$$QEAV<lambda_2358e3775559c9db80273638284d5e45>@@@Z@4HA 0000000180036494     libucrt:exit.obj
 0004:00001494       $pdata$?fin$0@?0???$?RV<lambda_638799b9deba96c50f710eeac98168cd>@@AEAV<lambda_22ebabd17bc4fa466a2aca6d8deb888d>@@V<lambda_a6f7d7db0129f75315ebf26d50c089f1>@@@?$__crt_seh_guarded_call@H@@QEAAH$$QEAV<lambda_638799b9deba96c50f710eeac98168cd>@@AEAV<lambda_22ebabd17bc4fa466a2aca6d8deb888d>@@$$QEAV<lambda_a6f7d7db0129f75315ebf26d50c089f1>@@@Z@4HA 0000000180036494     libucrt:onexit.obj
 0004:00001494       $pdata$?fin$0@?0???$?RV<lambda_7777bce6b2f8c936911f934f8298dc43>@@AEAV<lambda_f03950bc5685219e0bcd2087efbe011e>@@V<lambda_3883c3dff614d5e0c5f61bb1ac94921c>@@@?$__crt_seh_guarded_call@H@@QEAAH$$QEAV<lambda_7777bce6b2f8c936911f934f8298dc43>@@AEAV<lambda_f03950bc5685219e0bcd2087efbe011e>@@$$QEAV<lambda_3883c3dff614d5e0c5f61bb1ac94921c>@@@Z@4HA 0000000180036494     libucrt:onexit.obj
 0004:000014a0       $pdata$_configure_narrow_argv 00000001800364a0     libucrt:argv_parsing.obj
 0004:000014ac       $pdata$__acrt_allocate_buffer_for_argv 00000001800364ac     libucrt:argv_parsing.obj
 0004:000014b8       $pdata$??$parse_command_line@D@@YAXPEADPEAPEAD0PEA_K2@Z 00000001800364b8     libucrt:argv_parsing.obj
 0004:000014c4       $pdata$__dcrt_uninitialize_environments_nolock 00000001800364c4     libucrt:environment_initialization.obj
 0004:000014d0       $pdata$??$common_initialize_environment_nolock@D@@YAHXZ 00000001800364d0     libucrt:environment_initialization.obj
 0004:000014dc       $pdata$??$uninitialize_environment_internal@D@@YAXAEAPEAPEAD@Z 00000001800364dc     libucrt:environment_initialization.obj
 0004:000014e8       $pdata$??$uninitialize_environment_internal@_W@@YAXAEAPEAPEA_W@Z 00000001800364e8     libucrt:environment_initialization.obj
 0004:000014f4       $pdata$??$free_environment@D@@YAXQEAPEAD@Z 00000001800364f4     libucrt:environment_initialization.obj
 0004:000014f4       $pdata$??$free_environment@_W@@YAXQEAPEA_W@Z 00000001800364f4     libucrt:environment_initialization.obj
 0004:00001500       $pdata$??$create_environment@D@@YAQEAPEADQEAD@Z 0000000180036500     libucrt:environment_initialization.obj
 0004:0000150c       $pdata$_register_onexit_function 000000018003650c     libucrt:onexit.obj
 0004:00001518       $pdata$_execute_onexit_table 0000000180036518     libucrt:onexit.obj
 0004:00001524       $pdata$??R<lambda_22ebabd17bc4fa466a2aca6d8deb888d>@@QEBAHXZ 0000000180036524     libucrt:onexit.obj
 0004:00001530       $pdata$??R<lambda_f03950bc5685219e0bcd2087efbe011e>@@QEBAHXZ 0000000180036530     libucrt:onexit.obj
 0004:0000153c       $pdata$??$?RV<lambda_638799b9deba96c50f710eeac98168cd>@@AEAV<lambda_22ebabd17bc4fa466a2aca6d8deb888d>@@V<lambda_a6f7d7db0129f75315ebf26d50c089f1>@@@?$__crt_seh_guarded_call@H@@QEAAH$$QEAV<lambda_638799b9deba96c50f710eeac98168cd>@@AEAV<lambda_22ebabd17bc4fa466a2aca6d8deb888d>@@$$QEAV<lambda_a6f7d7db0129f75315ebf26d50c089f1>@@@Z 000000018003653c     libucrt:onexit.obj
 0004:00001548       $pdata$??$?RV<lambda_7777bce6b2f8c936911f934f8298dc43>@@AEAV<lambda_f03950bc5685219e0bcd2087efbe011e>@@V<lambda_3883c3dff614d5e0c5f61bb1ac94921c>@@@?$__crt_seh_guarded_call@H@@QEAAH$$QEAV<lambda_7777bce6b2f8c936911f934f8298dc43>@@AEAV<lambda_f03950bc5685219e0bcd2087efbe011e>@@$$QEAV<lambda_3883c3dff614d5e0c5f61bb1ac94921c>@@@Z 0000000180036548     libucrt:onexit.obj
 0004:00001554       $pdata$__acrt_uninitialize 0000000180036554     libucrt:initialization.obj
 0004:00001560       $pdata$__acrt_uninitialize_critical 0000000180036560     libucrt:initialization.obj
 0004:0000156c       $pdata$__acrt_thread_attach 000000018003656c     libucrt:initialization.obj
 0004:00001578       $pdata$__acrt_thread_detach 0000000180036578     libucrt:initialization.obj
 0004:00001584       $pdata$initialize_c        0000000180036584     libucrt:initialization.obj
 0004:00001590       $pdata$uninitialize_environment 0000000180036590     libucrt:initialization.obj
 0004:0000159c       $pdata$initialize_pointers 000000018003659c     libucrt:initialization.obj
 0004:000015a8       $pdata$uninitialize_allocated_memory 00000001800365a8     libucrt:initialization.obj
 0004:000015b4       $pdata$uninitialize_allocated_io_buffers 00000001800365b4     libucrt:initialization.obj
 0004:000015c0       $pdata$_initterm           00000001800365c0     libucrt:initterm.obj
 0004:000015cc       $pdata$_initterm_e         00000001800365cc     libucrt:initterm.obj
 0004:000015d8       $pdata$_callnewh           00000001800365d8     libucrt:new_handler.obj
 0004:000015e4       $pdata$_query_new_handler  00000001800365e4     libucrt:new_handler.obj
 0004:000015f0       $pdata$_query_new_handler$fin$0 00000001800365f0     libucrt:new_handler.obj
 0004:000015fc       $pdata$terminate           00000001800365fc     libucrt:terminate.obj
 0004:00001608       $pdata$abort               0000000180036608     libucrt:abort.obj
 0004:00001614       $pdata$strcpy_s            0000000180036614     libucrt:strcpy_s.obj
 0004:00001620       $pdata$??$parse_integer@KV?$c_string_character_source@_W@__crt_strtox@@@__crt_strtox@@YAKQEAU__crt_locale_pointers@@V?$c_string_character_source@_W@0@H_N@Z 0000000180036620     libucrt:atox.obj
 0004:00001638       $pdata$_free_base          0000000180036638     libucrt:free_base.obj
 0004:00001644       $pdata$__acrt_initialize_ptd 0000000180036644     libucrt:per_thread_data.obj
 0004:00001650       $pdata$__acrt_uninitialize_ptd 0000000180036650     libucrt:per_thread_data.obj
 0004:0000165c       $pdata$__acrt_getptd       000000018003665c     libucrt:per_thread_data.obj
 0004:00001668       $pdata$__acrt_getptd_head  0000000180036668     libucrt:per_thread_data.obj
 0004:00001674       $pdata$__acrt_getptd_noexit 0000000180036674     libucrt:per_thread_data.obj
 0004:00001680       $pdata$__acrt_freeptd      0000000180036680     libucrt:per_thread_data.obj
 0004:0000168c       $pdata$?destroy_fls@@YAXPEAX@Z 000000018003668c     libucrt:per_thread_data.obj
 0004:00001698       $pdata$?replace_current_thread_locale_nolock@@YAXQEAU__acrt_ptd@@QEAU__crt_locale_data@@@Z 0000000180036698     libucrt:per_thread_data.obj
 0004:000016a4       $pdata$?construct_ptd_array@@YAXQEAU__acrt_ptd@@@Z 00000001800366a4     libucrt:per_thread_data.obj
 0004:000016b0       $pdata$?destroy_ptd_array@@YAXQEAU__acrt_ptd@@@Z 00000001800366b0     libucrt:per_thread_data.obj
 0004:000016bc       $pdata$??$?RV<lambda_0ae27a3a962d80f24befdcbee591983d>@@AEAV<lambda_8d0ee55de4b1038c4002e0adecdf1839>@@V<lambda_dc504788e8f1664fe9b84e20bfb512f2>@@@?$__crt_seh_guarded_call@X@@QEAAX$$QEAV<lambda_0ae27a3a962d80f24befdcbee591983d>@@AEAV<lambda_8d0ee55de4b1038c4002e0adecdf1839>@@$$QEAV<lambda_dc504788e8f1664fe9b84e20bfb512f2>@@@Z 00000001800366bc     libucrt:per_thread_data.obj
 0004:000016c8       $pdata$??$?RV<lambda_aa87e3671a710a21b5dc78c0bdf72e11>@@AEAV<lambda_92619d2358a28f41a33ba319515a20b9>@@V<lambda_6992ecaafeb10aed2b74cb1fae11a551>@@@?$__crt_seh_guarded_call@X@@QEAAX$$QEAV<lambda_aa87e3671a710a21b5dc78c0bdf72e11>@@AEAV<lambda_92619d2358a28f41a33ba319515a20b9>@@$$QEAV<lambda_6992ecaafeb10aed2b74cb1fae11a551>@@@Z 00000001800366c8     libucrt:per_thread_data.obj
 0004:000016d4       $pdata$??$?RV<lambda_f2e299630e499de9f9a165e60fcd3db5>@@AEAV<lambda_2ae9d31cdba2644fcbeaf08da7c24588>@@V<lambda_40d01ff24d0e7b3814fdbdcee8eab3c7>@@@?$__crt_seh_guarded_call@X@@QEAAX$$QEAV<lambda_f2e299630e499de9f9a165e60fcd3db5>@@AEAV<lambda_2ae9d31cdba2644fcbeaf08da7c24588>@@$$QEAV<lambda_40d01ff24d0e7b3814fdbdcee8eab3c7>@@@Z 00000001800366d4     libucrt:per_thread_data.obj
 0004:000016e0       $pdata$??$?RV<lambda_2d41944a1d46af3157314b8a01080d33>@@AEAV<lambda_8f455de75cd7d7f24b4096f044d8b9e6>@@V<lambda_aa500f224e6afead328df44964fe2772>@@@?$__crt_seh_guarded_call@X@@QEAAX$$QEAV<lambda_2d41944a1d46af3157314b8a01080d33>@@AEAV<lambda_8f455de75cd7d7f24b4096f044d8b9e6>@@$$QEAV<lambda_aa500f224e6afead328df44964fe2772>@@@Z 00000001800366e0     libucrt:per_thread_data.obj
 0004:000016ec       $pdata$_calloc_base        00000001800366ec     libucrt:calloc_base.obj
 0004:000016f8       $pdata$_malloc_base        00000001800366f8     libucrt:malloc_base.obj
 0004:00001704       $pdata$_msize_base         0000000180036704     libucrt:msize.obj
 0004:00001710       $pdata$_realloc_base       0000000180036710     libucrt:realloc_base.obj
 0004:0000171c       $pdata$__acrt_initialize_winapi_thunks 000000018003671c     libucrt:winapi_thunks.obj
 0004:00001728       $pdata$__acrt_uninitialize_winapi_thunks 0000000180036728     libucrt:winapi_thunks.obj
 0004:00001734       $pdata$__acrt_AreFileApisANSI 0000000180036734     libucrt:winapi_thunks.obj
 0004:00001740       $pdata$__acrt_FlsAlloc     0000000180036740     libucrt:winapi_thunks.obj
 0004:0000174c       $pdata$__acrt_FlsFree      000000018003674c     libucrt:winapi_thunks.obj
 0004:00001758       $pdata$__acrt_FlsGetValue  0000000180036758     libucrt:winapi_thunks.obj
 0004:00001764       $pdata$__acrt_FlsSetValue  0000000180036764     libucrt:winapi_thunks.obj
 0004:00001770       $pdata$__acrt_InitializeCriticalSectionEx 0000000180036770     libucrt:winapi_thunks.obj
 0004:0000177c       $pdata$__acrt_LCMapStringEx 000000018003677c     libucrt:winapi_thunks.obj
 0004:00001788       $pdata$__acrt_LocaleNameToLCID 0000000180036788     libucrt:winapi_thunks.obj
 0004:00001794       $pdata$__acrt_AppPolicyGetProcessTerminationMethodInternal 0000000180036794     libucrt:winapi_thunks.obj
 0004:000017a0       $pdata$__acrt_SetThreadStackGuarantee 00000001800367a0     libucrt:winapi_thunks.obj
 0004:000017ac       $pdata$?try_get_function@@YAPEAXW4function_id@?A0x391cf84c@@QEBDQEBW4module_id@2@2@Z 00000001800367ac     libucrt:winapi_thunks.obj
 0004:000017b8       $pdata$wcstol              00000001800367b8     libucrt:strtox.obj
 0004:000017c4       $pdata$_mbtowc_l           00000001800367c4     libucrt:mbtowc.obj
 0004:000017d0       $pdata$__acrt_update_locale_info 00000001800367d0     libucrt:locale_update.obj
 0004:000017dc       $pdata$__acrt_update_multibyte_info 00000001800367dc     libucrt:locale_update.obj
 0004:000017e8       $pdata$__acrt_fp_format    00000001800367e8     libucrt:cvt.obj
 0004:000017f4       $pdata$?fp_format_e_internal@@YAHQEAD_KH_NIQEAU_strflt@@2QEAU__crt_locale_pointers@@@Z 00000001800367f4     libucrt:cvt.obj
 0004:00001800       $pdata$?fp_format_e@@YAHQEBNQEAD_K12H_NIQEAU__crt_locale_pointers@@W4__acrt_rounding_mode@@@Z 0000000180036800     libucrt:cvt.obj
 0004:0000180c       $pdata$?should_round_up@@YA_NQEBN_KFW4__acrt_rounding_mode@@@Z 000000018003680c     libucrt:cvt.obj
 0004:00001818       $pdata$?fp_format_a@@YAHQEBNPEAD_KQEAD2H_NIQEAU__crt_locale_pointers@@W4__acrt_rounding_mode@@@Z 0000000180036818     libucrt:cvt.obj
 0004:00001824       $pdata$?fp_format_f_internal@@YAHQEAD_KHQEAU_strflt@@_NQEAU__crt_locale_pointers@@@Z 0000000180036824     libucrt:cvt.obj
 0004:00001830       $pdata$?fp_format_g@@YAHQEBNQEAD_K12H_NIQEAU__crt_locale_pointers@@@Z 0000000180036830     libucrt:cvt.obj
 0004:0000183c       $pdata$_fileno             000000018003683c     libucrt:fileno.obj
 0004:00001848       $pdata$__acrt_initialize_stdio 0000000180036848     libucrt:_file.obj
 0004:00001854       $pdata$__acrt_uninitialize_stdio 0000000180036854     libucrt:_file.obj
 0004:00001860       $pdata$__acrt_uninitialize_locale 0000000180036860     libucrt:wsetlocale.obj
 0004:0000186c       $pdata$??$?RV<lambda_410d79af7f07d98d83a3f525b3859a53>@@AEAV<lambda_3e16ef9562a7dcce91392c22ab16ea36>@@V<lambda_38119f0e861e05405d8a144b9b982f0a>@@@?$__crt_seh_guarded_call@X@@QEAAX$$QEAV<lambda_410d79af7f07d98d83a3f525b3859a53>@@AEAV<lambda_3e16ef9562a7dcce91392c22ab16ea36>@@$$QEAV<lambda_38119f0e861e05405d8a144b9b982f0a>@@@Z 000000018003686c     libucrt:wsetlocale.obj
 0004:00001878       $pdata$?fin$0@?0???$?RV<lambda_410d79af7f07d98d83a3f525b3859a53>@@AEAV<lambda_3e16ef9562a7dcce91392c22ab16ea36>@@V<lambda_38119f0e861e05405d8a144b9b982f0a>@@@?$__crt_seh_guarded_call@X@@QEAAX$$QEAV<lambda_410d79af7f07d98d83a3f525b3859a53>@@AEAV<lambda_3e16ef9562a7dcce91392c22ab16ea36>@@$$QEAV<lambda_38119f0e861e05405d8a144b9b982f0a>@@@Z@4HA 0000000180036878     libucrt:wsetlocale.obj
 0004:00001884       $pdata$__acrt_initialize_lowio 0000000180036884     libucrt:ioinit.obj
 0004:00001890       $pdata$__acrt_initialize_lowio$fin$0 0000000180036890     libucrt:ioinit.obj
 0004:00001890       $pdata$__acrt_lowio_ensure_fh_exists$fin$0 0000000180036890     libucrt:osfinfo.obj
 0004:0000189c       $pdata$__acrt_uninitialize_lowio 000000018003689c     libucrt:ioinit.obj
 0004:000018a8       $pdata$?initialize_inherited_file_handles_nolock@@YAXXZ 00000001800368a8     libucrt:ioinit.obj
 0004:000018b4       $pdata$?initialize_stdio_handles_nolock@@YAXXZ 00000001800368b4     libucrt:ioinit.obj
 0004:000018c0       $pdata$__acrt_initialize_locks 00000001800368c0     libucrt:locks.obj
 0004:000018cc       $pdata$__acrt_uninitialize_locks 00000001800368cc     libucrt:locks.obj
 0004:000018d8       $pdata$__acrt_get_process_end_policy 00000001800368d8     libucrt:win_policies.obj
 0004:000018e4       $pdata$??$__acrt_mbs_to_wcs_cp@U__crt_win32_buffer_internal_dynamic_resizing@@@@YAHQEBDAEAV?$__crt_win32_buffer@_WU__crt_win32_buffer_internal_dynamic_resizing@@@@I@Z 00000001800368e4     libucrt:argv_wildcards.obj
 0004:000018f0       $pdata$??$__acrt_wcs_to_mbs_cp@U__crt_win32_buffer_internal_dynamic_resizing@@@@YAHQEB_WAEAV?$__crt_win32_buffer@DU__crt_win32_buffer_internal_dynamic_resizing@@@@I@Z 00000001800368f0     libucrt:argv_wildcards.obj
 0004:000018fc       $pdata$??$common_expand_argv_wildcards@D@@YAHQEAPEADQEAPEAPEAD@Z 00000001800368fc     libucrt:argv_wildcards.obj
 0004:00001908       $pdata$??$copy_and_add_argument_to_buffer@D@@YAHQEBD0_KAEAV?$argument_list@D@?A0x5f5c8891@@@Z 0000000180036908     libucrt:argv_wildcards.obj
 0004:00001914       $pdata$??$expand_argument_wildcards@D@@YAHQEAD0AEAV?$argument_list@D@?A0x5f5c8891@@@Z 0000000180036914     libucrt:argv_wildcards.obj
 0004:00001920       $pdata$__acrt_GetModuleFileNameA 0000000180036920     libucrt:getmodulefilenamea.obj
 0004:0000192c       $pdata$??$__acrt_wcs_to_mbs_cp@U__crt_win32_buffer_no_resizing@@@@YAHQEB_WAEAV?$__crt_win32_buffer@DU__crt_win32_buffer_no_resizing@@@@I@Z 000000018003692c     libucrt:getmodulefilenamea.obj
 0004:00001938       $pdata$__acrt_update_thread_multibyte_data 0000000180036938     libucrt:mbctype.obj
 0004:00001944       $pdata$__acrt_initialize_multibyte 0000000180036944     libucrt:mbctype.obj
 0004:00001950       $pdata$_setmbcp_nolock     0000000180036950     libucrt:mbctype.obj
 0004:0000195c       $pdata$?getSystemCP@@YAHH@Z 000000018003695c     libucrt:mbctype.obj
 0004:00001968       $pdata$?setSBCS@@YAXPEAU__crt_multibyte_data@@@Z 0000000180036968     libucrt:mbctype.obj
 0004:00001974       $pdata$?update_thread_multibyte_data_internal@@YAPEAU__crt_multibyte_data@@QEAU__acrt_ptd@@QEAPEAU1@@Z 0000000180036974     libucrt:mbctype.obj
 0004:00001980       $pdata$?fin$0@?0??update_thread_multibyte_data_internal@@YAPEAU__crt_multibyte_data@@QEAU__acrt_ptd@@QEAPEAU1@@Z@4HA 0000000180036980     libucrt:mbctype.obj
 0004:0000198c       $pdata$?setmbcp_internal@@YAHH_NQEAU__acrt_ptd@@QEAPEAU__crt_multibyte_data@@@Z 000000018003698c     libucrt:mbctype.obj
 0004:00001998       $pdata$?setSBUpLow@@YAXPEAU__crt_multibyte_data@@@Z 0000000180036998     libucrt:mbctype.obj
 0004:000019a4       $pdata$??$?RV<lambda_efdfa57d1f175319df784efa44bb7b81>@@AEAV<lambda_5f0a4c1567f8adc6734073e5d1e1b35c>@@V<lambda_2e8a7d3640ea6ccb4c2413664c2db6fd>@@@?$__crt_seh_guarded_call@X@@QEAAX$$QEAV<lambda_efdfa57d1f175319df784efa44bb7b81>@@AEAV<lambda_5f0a4c1567f8adc6734073e5d1e1b35c>@@$$QEAV<lambda_2e8a7d3640ea6ccb4c2413664c2db6fd>@@@Z 00000001800369a4     libucrt:mbctype.obj
 0004:000019b0       $pdata$?x_ismbbtype_l@@YAHPEAU__crt_locale_pointers@@IHH@Z 00000001800369b0     libucrt:ismbbyte.obj
 0004:000019bc       $pdata$__acrt_initialize_command_line 00000001800369bc     libucrt:argv_data.obj
 0004:000019c8       $pdata$__acrt_WideCharToMultiByte 00000001800369c8     libucrt:widechartomultibyte.obj
 0004:000019d4       $pdata$__dcrt_get_narrow_environment_from_os 00000001800369d4     libucrt:get_environment_from_os.obj
 0004:000019e0       $pdata$__acrt_initialize_heap 00000001800369e0     libucrt:heap_handle.obj
 0004:000019ec       $pdata$__acrt_execute_initializers 00000001800369ec     libucrt:shared_initialization.obj
 0004:000019f8       $pdata$__acrt_execute_uninitializers 00000001800369f8     libucrt:shared_initialization.obj
 0004:00001a04       $pdata$__acrt_get_sigabrt_handler 0000000180036a04     libucrt:signal.obj
 0004:00001a10       $pdata$raise               0000000180036a10     libucrt:signal.obj
 0004:00001a1c       $pdata$raise$fin$0         0000000180036a1c     libucrt:signal.obj
 0004:00001a28       $pdata$??$?RV<lambda_450d765d439847d4c735a33c368b5fc0>@@AEAV<lambda_44731a7d0e6d81c3e6aa82d741081786>@@V<lambda_601a2a7da3b7a96e9554ac7215c4b07c>@@@?$__crt_seh_guarded_call@P6AXH@Z@@QEAAP6AXH@Z$$QEAV<lambda_450d765d439847d4c735a33c368b5fc0>@@AEAV<lambda_44731a7d0e6d81c3e6aa82d741081786>@@$$QEAV<lambda_601a2a7da3b7a96e9554ac7215c4b07c>@@@Z 0000000180036a28     libucrt:signal.obj
 0004:00001a34       $pdata$_fflush_nolock      0000000180036a34     libucrt:fflush.obj
 0004:00001a40       $pdata$__acrt_stdio_flush_nolock 0000000180036a40     libucrt:fflush.obj
 0004:00001a4c       $pdata$?common_flush_all@@YAH_N@Z 0000000180036a4c     libucrt:fflush.obj
 0004:00001a58       $pdata$??$?RV<lambda_842d9ff0dc9ef11c61343bbaebe7f885>@@AEAV<lambda_c5860995281e5c4ce005b3de8f5874ee>@@V<lambda_d90129c13df834fdcbf8d2b88dafcf2d>@@@?$__crt_seh_guarded_call@X@@QEAAX$$QEAV<lambda_842d9ff0dc9ef11c61343bbaebe7f885>@@AEAV<lambda_c5860995281e5c4ce005b3de8f5874ee>@@$$QEAV<lambda_d90129c13df834fdcbf8d2b88dafcf2d>@@@Z 0000000180036a58     libucrt:fflush.obj
 0004:00001a64       $pdata$?fin$0@?0???$?RV<lambda_842d9ff0dc9ef11c61343bbaebe7f885>@@AEAV<lambda_c5860995281e5c4ce005b3de8f5874ee>@@V<lambda_d90129c13df834fdcbf8d2b88dafcf2d>@@@?$__crt_seh_guarded_call@X@@QEAAX$$QEAV<lambda_842d9ff0dc9ef11c61343bbaebe7f885>@@AEAV<lambda_c5860995281e5c4ce005b3de8f5874ee>@@$$QEAV<lambda_d90129c13df834fdcbf8d2b88dafcf2d>@@@Z@4HA 0000000180036a64     libucrt:fflush.obj
 0004:00001a70       $pdata$??$?RV<lambda_886d6c58226a84441f68b9f2b8217b83>@@AEAV<lambda_ab61a845afdef5b7c387490eaf3616ee>@@V<lambda_f7f22ab5edc0698d5f6905b0d3f44752>@@@?$__crt_seh_guarded_call@X@@QEAAX$$QEAV<lambda_886d6c58226a84441f68b9f2b8217b83>@@AEAV<lambda_ab61a845afdef5b7c387490eaf3616ee>@@$$QEAV<lambda_f7f22ab5edc0698d5f6905b0d3f44752>@@@Z 0000000180036a70     libucrt:fflush.obj
 0004:00001a7c       $pdata$?fin$0@?0???$?RV<lambda_886d6c58226a84441f68b9f2b8217b83>@@AEAV<lambda_ab61a845afdef5b7c387490eaf3616ee>@@V<lambda_f7f22ab5edc0698d5f6905b0d3f44752>@@@?$__crt_seh_guarded_call@X@@QEAAX$$QEAV<lambda_886d6c58226a84441f68b9f2b8217b83>@@AEAV<lambda_ab61a845afdef5b7c387490eaf3616ee>@@$$QEAV<lambda_f7f22ab5edc0698d5f6905b0d3f44752>@@@Z@4HA 0000000180036a7c     libucrt:fflush.obj
 0004:00001a88       $pdata$__pctype_func       0000000180036a88     libucrt:ctype.obj
 0004:00001a94       $pdata$iswctype            0000000180036a94     libucrt:iswctype.obj
 0004:00001aa0       $pdata$__acrt_release_locale_ref 0000000180036aa0     libucrt:locale_refcounting.obj
 0004:00001aac       $pdata$__acrt_free_locale  0000000180036aac     libucrt:locale_refcounting.obj
 0004:00001ab8       $pdata$__acrt_locale_free_lc_time_if_unreferenced 0000000180036ab8     libucrt:locale_refcounting.obj
 0004:00001ac4       $pdata$__acrt_update_thread_locale_data 0000000180036ac4     libucrt:locale_refcounting.obj
 0004:00001ad0       $pdata$__acrt_update_thread_locale_data$fin$0 0000000180036ad0     libucrt:locale_refcounting.obj
 0004:00001adc       $pdata$_updatetlocinfoEx_nolock 0000000180036adc     libucrt:locale_refcounting.obj
 0004:00001ae8       $pdata$__acrt_DownlevelLocaleNameToLCID 0000000180036ae8     libucrt:lcidtoname_downlevel.obj
 0004:00001af4       $pdata$_isleadbyte_l       0000000180036af4     libucrt:_wctype.obj
 0004:00001b00       $pdata$?__mbrtowc_utf8@__crt_mbstring@@YA_KPEA_WPEBD_KPEAU_Mbstatet@@@Z 0000000180036b00     libucrt:mbrtowc.obj
 0004:00001b0c       $pdata$?__mbsrtowcs_utf8@__crt_mbstring@@YA_KPEA_WPEAPEBD_KPEAU_Mbstatet@@@Z 0000000180036b0c     libucrt:mbrtowc.obj
 0004:00001b18       $pdata$__acrt_fp_strflt_to_string 0000000180036b18     libucrt:_fptostr.obj
 0004:00001b24       $pdata$memcpy_s            0000000180036b24     libucrt:cfout.obj
 0004:00001b30       $pdata$__acrt_fltout       0000000180036b30     libucrt:cfout.obj
 0004:00001b3c       $pdata$?divide@__crt_strtox@@YA_KAEAUbig_integer@1@AEBU21@@Z 0000000180036b3c     libucrt:cfout.obj
 0004:00001b48       $pdata$0$?divide@__crt_strtox@@YA_KAEAUbig_integer@1@AEBU21@@Z 0000000180036b48     libucrt:cfout.obj
 0004:00001b54       $pdata$1$?divide@__crt_strtox@@YA_KAEAUbig_integer@1@AEBU21@@Z 0000000180036b54     libucrt:cfout.obj
 0004:00001b60       $pdata$fegetround          0000000180036b60     libucrt:fegetround.obj
 0004:00001b6c       $pdata$_fcloseall          0000000180036b6c     libucrt:closeall.obj
 0004:00001b78       $pdata$_fcloseall$fin$0    0000000180036b78     libucrt:closeall.obj
 0004:00001b84       $pdata$__acrt_stdio_free_buffer_nolock 0000000180036b84     libucrt:_freebuf.obj
 0004:00001b90       $pdata$_isatty             0000000180036b90     libucrt:isatty.obj
 0004:00001b9c       $pdata$__acrt_locale_free_monetary 0000000180036b9c     libucrt:initmon.obj
 0004:00001ba8       $pdata$__acrt_locale_free_numeric 0000000180036ba8     libucrt:initnum.obj
 0004:00001bb4       $pdata$__acrt_locale_free_time 0000000180036bb4     libucrt:inittime.obj
 0004:00001bc0       $pdata$?free_crt_array_internal@@YAXQEAPEBX_K@Z 0000000180036bc0     libucrt:inittime.obj
 0004:00001bcc       $pdata$__acrt_GetStringTypeA 0000000180036bcc     libucrt:getstringtypea.obj
 0004:00001bd8       $pdata$_get_osfhandle      0000000180036bd8     libucrt:osfinfo.obj
 0004:00001be4       $pdata$_free_osfhnd        0000000180036be4     libucrt:osfinfo.obj
 0004:00001bf0       $pdata$__acrt_lowio_create_handle_array 0000000180036bf0     libucrt:osfinfo.obj
 0004:00001bfc       $pdata$__acrt_lowio_destroy_handle_array 0000000180036bfc     libucrt:osfinfo.obj
 0004:00001c08       $pdata$__acrt_lowio_ensure_fh_exists 0000000180036c08     libucrt:osfinfo.obj
 0004:00001c14       $pdata$qsort               0000000180036c14     libucrt:qsort.obj
 0004:00001c20       $pdata$4$qsort             0000000180036c20     libucrt:qsort.obj
 0004:00001c2c       $pdata$5$qsort             0000000180036c2c     libucrt:qsort.obj
 0004:00001c38       $pdata$strncpy_s           0000000180036c38     libucrt:strncpy_s.obj
 0004:00001c44       $pdata$strpbrk             0000000180036c44     libucrt:strpbrk.obj
 0004:00001c50       $pdata$fallbackMethod      0000000180036c50     libucrt:strpbrk.obj
 0004:00001c5c       $pdata$_mbsdec_l           0000000180036c5c     libucrt:mbsdec.obj
 0004:00001c68       $pdata$__acrt_LCMapStringA 0000000180036c68     libucrt:lcmapstringa.obj
 0004:00001c74       $pdata$?__acrt_LCMapStringA_stat@@YAHPEAU__crt_locale_pointers@@PEB_WKPEBDHPEADHHH@Z 0000000180036c74     libucrt:lcmapstringa.obj
 0004:00001c80       $pdata$?initialize_multibyte@@YAHXZ 0000000180036c80     libucrt:multibyte_initializer.obj
 0004:00001c8c       $pdata$_commit             0000000180036c8c     libucrt:commit.obj
 0004:00001c98       $pdata$??$?RV<lambda_a37b2b86f63e897a80ea819b0eb08c01>@@AEAV<lambda_38ce7e780aa69e748d6df282ebc68efe>@@V<lambda_99fb1378e971ab6e7edea83e3a7a83a2>@@@?$__crt_seh_guarded_call@H@@QEAAH$$QEAV<lambda_a37b2b86f63e897a80ea819b0eb08c01>@@AEAV<lambda_38ce7e780aa69e748d6df282ebc68efe>@@$$QEAV<lambda_99fb1378e971ab6e7edea83e3a7a83a2>@@@Z 0000000180036c98     libucrt:commit.obj
 0004:00001ca4       $pdata$?fin$0@?0???$?RV<lambda_751a882b2c74d4b022dec766aa51a29a>@@AEAV<lambda_628dfdc04ba53c8bfc02c9951375f3f5>@@V<lambda_f6c7be5f7998530c34de24c7437d6b54>@@@?$__crt_seh_guarded_call@H@@QEAAH$$QEAV<lambda_751a882b2c74d4b022dec766aa51a29a>@@AEAV<lambda_628dfdc04ba53c8bfc02c9951375f3f5>@@$$QEAV<lambda_f6c7be5f7998530c34de24c7437d6b54>@@@Z@4HA 0000000180036ca4     libucrt:close.obj
 0004:00001ca4       $pdata$?fin$0@?0???$?RV<lambda_a37b2b86f63e897a80ea819b0eb08c01>@@AEAV<lambda_38ce7e780aa69e748d6df282ebc68efe>@@V<lambda_99fb1378e971ab6e7edea83e3a7a83a2>@@@?$__crt_seh_guarded_call@H@@QEAAH$$QEAV<lambda_a37b2b86f63e897a80ea819b0eb08c01>@@AEAV<lambda_38ce7e780aa69e748d6df282ebc68efe>@@$$QEAV<lambda_99fb1378e971ab6e7edea83e3a7a83a2>@@@Z@4HA 0000000180036ca4     libucrt:commit.obj
 0004:00001cb0       $pdata$_write              0000000180036cb0     libucrt:write.obj
 0004:00001cbc       $pdata$_write$fin$0        0000000180036cbc     libucrt:write.obj
 0004:00001cc8       $pdata$_write_nolock       0000000180036cc8     libucrt:write.obj
 0004:00001cd4       $pdata$?write_double_translated_ansi_nolock@@YA?AUwrite_result@?A0x17268360@@HQEBDI@Z 0000000180036cd4     libucrt:write.obj
 0004:00001ce0       $pdata$?write_text_ansi_nolock@@YA?AUwrite_result@?A0x17268360@@HQEBDI@Z 0000000180036ce0     libucrt:write.obj
 0004:00001cec       $pdata$?write_text_utf16le_nolock@@YA?AUwrite_result@?A0x17268360@@HQEBDI@Z 0000000180036cec     libucrt:write.obj
 0004:00001cf8       $pdata$?write_text_utf8_nolock@@YA?AUwrite_result@?A0x17268360@@HQEBDI@Z 0000000180036cf8     libucrt:write.obj
 0004:00001d04       $pdata$?__mbrtoc32_utf8@__crt_mbstring@@YA_KPEA_UPEBD_KPEAU_Mbstatet@@@Z 0000000180036d04     libucrt:mbrtoc32.obj
 0004:00001d10       $pdata$_controlfp_s        0000000180036d10     libucrt:contrlfp.obj
 0004:00001d1c       $pdata$fegetenv            0000000180036d1c     libucrt:fegetenv.obj
 0004:00001d28       $pdata$fesetenv            0000000180036d28     libucrt:fesetenv.obj
 0004:00001d34       $pdata$feholdexcept        0000000180036d34     libucrt:feholdexcept.obj
 0004:00001d4c       $pdata$__acrt_fenv_set_control 0000000180036d4c     libucrt:_fenvutils.obj
 0004:00001d58       $pdata$??$common_lseek_nolock@_J@@YA_JH_JH@Z 0000000180036d58     libucrt:lseek.obj
 0004:00001d64       $pdata$fclose              0000000180036d64     libucrt:fclose.obj
 0004:00001d70       $pdata$fclose$fin$0        0000000180036d70     libucrt:fclose.obj
 0004:00001d7c       $pdata$_fclose_nolock      0000000180036d7c     libucrt:fclose.obj
 0004:00001d88       $pdata$_putwch_nolock      0000000180036d88     libucrt:putwch.obj
 0004:00001d94       $pdata$_clearfp            0000000180036d94     libucrt:ieee.obj
 0004:00001da0       $pdata$common_control87    0000000180036da0     libucrt:ieee.obj
 0004:00001dac       $pdata$_ctrlfp$filt$0      0000000180036dac     libucrt:fpctrl.obj
 0004:00001dac       $pdata$common_control87$filt$0 0000000180036dac     libucrt:ieee.obj
 0004:00001db8       $pdata$_call_matherr       0000000180036db8     libucrt:libm_error.obj
 0004:00001dc4       $pdata$_exception_enabled  0000000180036dc4     libucrt:libm_error.obj
 0004:00001dd0       $pdata$_handle_error       0000000180036dd0     libucrt:libm_error.obj
 0004:00001ddc       $pdata$__acrt_initialize_fma3 0000000180036ddc     libucrt:fma3_available.obj
 0004:00001de8       $pdata$_log_special_common 0000000180036de8     libucrt:log_special.obj
 0004:00001df4       $pdata$_log10_special      0000000180036df4     libucrt:log_special.obj
 0004:00001e00       $pdata$_close              0000000180036e00     libucrt:close.obj
 0004:00001e0c       $pdata$_close_nolock       0000000180036e0c     libucrt:close.obj
 0004:00001e18       $pdata$??$?RV<lambda_751a882b2c74d4b022dec766aa51a29a>@@AEAV<lambda_628dfdc04ba53c8bfc02c9951375f3f5>@@V<lambda_f6c7be5f7998530c34de24c7437d6b54>@@@?$__crt_seh_guarded_call@H@@QEAAH$$QEAV<lambda_751a882b2c74d4b022dec766aa51a29a>@@AEAV<lambda_628dfdc04ba53c8bfc02c9951375f3f5>@@$$QEAV<lambda_f6c7be5f7998530c34de24c7437d6b54>@@@Z 0000000180036e18     libucrt:close.obj
 0004:00001e24       $pdata$__dcrt_lowio_ensure_console_output_initialized 0000000180036e24     libucrt:initcon.obj
 0004:00001e30       $pdata$__dcrt_write_console 0000000180036e30     libucrt:initcon.obj
 0004:00001e3c       $pdata$__dcrt_terminate_console_output 0000000180036e3c     libucrt:initcon.obj
 0004:00001e54       $pdata$_set_errno_from_matherr 0000000180036e54     libucrt:fpexcept.obj
 0004:00001e60       $pdata$_raise_exc          0000000180036e60     libucrt:fpexcept.obj
 0004:00001e6c       $pdata$_raise_exc_ex       0000000180036e6c     libucrt:fpexcept.obj
 0004:00001e78       $pdata$_clrfp              0000000180036e78     libucrt:fpctrl.obj
 0004:00001e84       $pdata$_ctrlfp             0000000180036e84     libucrt:fpctrl.obj
 0004:00001e90       $pdata$_statfp             0000000180036e90     libucrt:fpctrl.obj
 0004:00001e9c       $pdata$_set_statfp         0000000180036e9c     libucrt:fpctrl.obj
 0004:00001ea8       $pdata$_IsNonwritableInCurrentImage 0000000180036ea8     LIBCMT:pesect.obj
 0004:00001eb4       $pdata$_IsNonwritableInCurrentImage$filt$0 0000000180036eb4     LIBCMT:pesect.obj
