 OPOSMSR

 Timestamp is 5c44390d (Sun Jan 20 18:02:05 2019)

 Preferred load address is 0000000180000000

 Start         Length     Name                   Class
 0001:00000000 000000c0H .text$di                CODE
 0001:000000c0 0001ff10H .text$mn                CODE
 0001:0001ffd0 00000020H .text$mn$00             CODE
 0001:0001fff0 00000410H .text$x                 CODE
 0001:00020400 000000c0H .text$yd                CODE
 0002:00000000 00000628H .idata$5                DATA
 0002:00000628 00000010H .00cfg                  DATA
 0002:00000638 00000008H .CRT$XCA                DATA
 0002:00000640 00000008H .CRT$XCL                DATA
 0002:00000648 00000020H .CRT$XCU                DATA
 0002:00000668 00000008H .CRT$XCZ                DATA
 0002:00000670 00000008H .CRT$XIA                DATA
 0002:00000678 00000020H .CRT$XIC                DATA
 0002:00000698 00000008H .CRT$XIZ                DATA
 0002:000006a0 00000008H .CRT$XLA                DATA
 0002:000006a8 00000008H .CRT$XLZ                DATA
 0002:000006b0 00000008H .CRT$XPA                DATA
 0002:000006b8 00000010H .CRT$XPX                DATA
 0002:000006c8 00000008H .CRT$XPXA               DATA
 0002:000006d0 00000008H .CRT$XPZ                DATA
 0002:000006d8 00000008H .CRT$XTA                DATA
 0002:000006e0 00000010H .CRT$XTZ                DATA
 0002:000006e8 00000000H .gfids$x                DATA
 0002:000006e8 00000000H .gfids$y                DATA
 0002:000006f0 0000a510H .rdata                  DATA
 0002:0000ac00 00000028H .rdata$T                DATA
 0002:0000ac28 00000274H .rdata$r                DATA
 0002:0000ae9c 000003f4H .rdata$zzzdbg           DATA
 0002:0000b290 00000008H .rtc$IAA                DATA
 0002:0000b298 00000008H .rtc$IZZ                DATA
 0002:0000b2a0 00000008H .rtc$TAA                DATA
 0002:0000b2a8 00000008H .rtc$TZZ                DATA
 0002:0000b2b0 00000004H .tls                    DATA
 0002:0000b2b4 00000004H .tls$                   DATA
 0002:0000b2b8 00000008H .tls$ZZZ                DATA
 0002:0000b2c0 00001668H .xdata                  DATA
 0002:0000c928 00000150H .xdata$x                DATA
 0002:0000ca78 00000008H ATL$__a                 DATA
 0002:0000ca80 00000010H ATL$__z                 DATA
 0002:0000ca90 000000a4H .edata                  DATA
 0002:0000cb34 00000078H .idata$2                DATA
 0002:0000cbac 00000014H .idata$3                DATA
 0002:0000cbc0 00000628H .idata$4                DATA
 0002:0000d1e8 00000c3aH .idata$6                DATA
 0003:00000000 00000c98H .data                   DATA
 0003:00000c98 000000c8H .data$r                 DATA
 0003:00000d60 000013d4H .bss                    DATA
 0004:00000000 00001f20H .pdata                  DATA
 0005:00000000 00000220H .rsrc$01                DATA
 0005:00000220 00005b08H .rsrc$02                DATA

  Address         Publics by Value              Rva+Base               Lib:Object

 0000:00000000       __volatile_metadata        0000000000000000     <absolute>
 0000:00000000       __guard_longjmp_count      0000000000000000     <absolute>
 0000:00000000       __guard_longjmp_table      0000000000000000     <absolute>
 0000:00000000       __hybrid_code_map_count    0000000000000000     <absolute>
 0000:00000000       __guard_iat_table          0000000000000000     <absolute>
 0000:00000000       __guard_iat_count          0000000000000000     <absolute>
 0000:00000000       __guard_fids_count         0000000000000000     <absolute>
 0000:00000000       __hybrid_code_map          0000000000000000     <absolute>
 0000:00000000       ___safe_se_handler_count   0000000000000000     <absolute>
 0000:00000000       __enclave_config           0000000000000000     <absolute>
 0000:00000000       ___safe_se_handler_table   0000000000000000     <absolute>
 0000:00000000       __guard_fids_table         0000000000000000     <absolute>
 0000:00000000       __hybrid_auxiliary_iat     0000000000000000     <absolute>
 0000:00000000       __dynamic_value_reloc_table 0000000000000000     <absolute>
 0000:00000100       __guard_flags              0000000000000100     <absolute>
 0000:00000000       __ImageBase                0000000180000000     <linker-defined>
 0001:000000c0       ?DupWide@_CW@@AEAAXXZ      00000001800010c0 f   CWString.obj
 0001:000000e8       ?cw_dup@@YAXPEBDAEAHAEAPEA_W1@Z 00000001800010e8 f   CWString.obj
 0001:00000194       ?cw_memcpy@@YAHPEA_WPEBDH@Z 0000000180001194 f   CWString.obj
 0001:000001e0       ?cw_strcpy@@YAHPEA_WPEBD@Z 00000001800011e0 f   CWString.obj
 0001:000001f4       ??0CAtlComModule@ATL@@QEAA@XZ 00000001800011f4 f i OposVariant.obj
 0001:0000027c       ??0CAtlWinModule@ATL@@QEAA@XZ 000000018000127c f i OposVariant.obj
 0001:000002f4       ??0OposDispParms@@QEAA@PEAVOposVariant@@H@Z 00000001800012f4 f   OposVariant.obj
 0001:0000039c       ??1OposDispParms@@QEAA@XZ  000000018000139c f   OposVariant.obj
 0001:000003b4       ??_Estringdispid@CComTypeInfoHolder@ATL@@QEAAPEAXI@Z 00000001800013b4 f i OposVariant.obj
 0001:00000458       ?AtlWinModuleTerm@ATL@@YAJPEAU_ATL_WIN_MODULE70@1@PEAUHINSTANCE__@@@Z 0000000180001458 f i OposVariant.obj
 0001:00000508       ?ChangeBSTR@OposVariant@@QEAAXPEAPEA_WAEAJ@Z 0000000180001508 f   OposVariant.obj
 0001:00000568       ?ChangeLONG@OposVariant@@QEAAXPEAJAEAJ@Z 0000000180001568 f   OposVariant.obj
 0001:000005c4       ?GetLONG@OposVariant@@QEAAJXZ 00000001800015c4 f   OposVariant.obj
 0001:000005e8       ?SetBSTR@OposVariant@@QEAAXPEA_WAEAJ@Z 00000001800015e8 f   OposVariant.obj
 0001:00000628       ?SetBSTR_Copy@OposVariant@@QEAAXPEA_WAEAJ@Z 0000000180001628 f   OposVariant.obj
 0001:00000698       ?SetBSTR_InOutPtr@OposVariant@@QEAA_NPEAPEA_WAEAJ@Z 0000000180001698 f   OposVariant.obj
 0001:000006e8       ?SetBSTR_OutPtr@OposVariant@@QEAA_NPEAPEA_WAEAJ@Z 00000001800016e8 f   OposVariant.obj
 0001:00000704       ?SetDispatch_Ptr@OposVariant@@QEAAXPEAUIDispatch@@AEAJ@Z 0000000180001704 f   OposVariant.obj
 0001:0000075c       ?SetLONG@OposVariant@@QEAAXJ@Z 000000018000175c f   OposVariant.obj
 0001:0000078c       ?SetLONG_Ptr@OposVariant@@QEAAXPEAJAEAJ@Z 000000018000178c f   OposVariant.obj
 0001:000007d8       ?SetString@OposVariant@@QEAAXPEB_WAEAJ@Z 00000001800017d8 f   OposVariant.obj
 0001:0000083c       ?SetVARIANT@OposVariant@@QEAAXAEAUtagVARIANT@@GAEAJ@Z 000000018000183c f   OposVariant.obj
 0001:000008ac       ?SetVARIANT_BOOL@OposVariant@@QEAAXF@Z 00000001800018ac f   OposVariant.obj
 0001:000008e4       ?Term@CAtlComModule@ATL@@QEAAXXZ 00000001800018e4 f i OposVariant.obj
 0001:00000954       ?_AtlInitializeCriticalSectionEx@ATL@@YAHPEAU_RTL_CRITICAL_SECTION@@KK@Z 0000000180001954 f i OposVariant.obj
 0001:0000095c       ?_AtlRaiseException@ATL@@YAXKK@Z 000000018000195c f i OposVariant.obj
 0001:0000096c       ?AddRef@?$CComObjectCached@VCComClassFactory@ATL@@@ATL@@UEAAKXZ 000000018000196c f i MSR.obj
 0001:00000998       ?Release@?$CComObjectCached@VCComClassFactory@ATL@@@ATL@@UEAAKXZ 0000000180001998 f i MSR.obj
 0001:000009d8       ?QueryInterface@?$CComObjectCached@VCComClassFactory@ATL@@@ATL@@UEAAJAEBU_GUID@@PEAPEAX@Z 00000001800019d8 f i MSR.obj
 0001:000009ec       ??_G?$CComObjectCached@VCComClassFactory@ATL@@@ATL@@UEAAPEAXI@Z 00000001800019ec f i MSR.obj
 0001:000009ec       ??_E?$CComObjectCached@VCComClassFactory@ATL@@@ATL@@UEAAPEAXI@Z 00000001800019ec f i MSR.obj
 0001:00000a44       ?AddRef@?$CComAggObject@VCOPOSMSR@@@ATL@@UEAAKXZ 0000000180001a44 f i MSR.obj
 0001:00000a50       ?Release@?$CComAggObject@VCOPOSMSR@@@ATL@@UEAAKXZ 0000000180001a50 f i MSR.obj
 0001:00000aa4       ?QueryInterface@?$CComAggObject@VCOPOSMSR@@@ATL@@UEAAJAEBU_GUID@@PEAPEAX@Z 0000000180001aa4 f i MSR.obj
 0001:00000b04       ?AddRef@?$CComContainedObject@VCOPOSMSR@@@ATL@@UEAAKXZ 0000000180001b04 f i MSR.obj
 0001:00000b14       ?Release@?$CComContainedObject@VCOPOSMSR@@@ATL@@UEAAKXZ 0000000180001b14 f i MSR.obj
 0001:00000b24       ?QueryInterface@?$CComContainedObject@VCOPOSMSR@@@ATL@@UEAAJAEBU_GUID@@PEAPEAX@Z 0000000180001b24 f i MSR.obj
 0001:00000b34       ??_G?$CComAggObject@VCOPOSMSR@@@ATL@@UEAAPEAXI@Z 0000000180001b34 f i MSR.obj
 0001:00000b34       ??_E?$CComAggObject@VCOPOSMSR@@@ATL@@UEAAPEAXI@Z 0000000180001b34 f i MSR.obj
 0001:00000b8c       ?AddRef@?$CComObject@VCOPOSMSR@@@ATL@@UEAAKXZ 0000000180001b8c f i MSR.obj
 0001:00000b9c       ?Release@?$CComObject@VCOPOSMSR@@@ATL@@UEAAKXZ 0000000180001b9c f i MSR.obj
 0001:00000bf4       ?QueryInterface@?$CComObject@VCOPOSMSR@@@ATL@@UEAAJAEBU_GUID@@PEAPEAX@Z 0000000180001bf4 f i MSR.obj
 0001:00000c08       ?OnFinalMessage@?$CWindowImplBaseT@VCWindow@ATL@@V?$CWinTraits@$0FGAAAAAA@$0A@@2@@ATL@@UEAAXPEAUHWND__@@@Z 0000000180001c08 f i MSR.obj
 0001:00000c08       _guard_check_icall_nop     0000000180001c08 f i LIBCMT:guard_support.obj
 0001:00000c08       ?ObjectMain@CComObjectRootBase@ATL@@SAX_N@Z 0000000180001c08 f i MSR.obj
 0001:00000c0c       ?IsUpToDate@?$IOleObjectImpl@VCOPOSMSR@@@ATL@@UEAAJXZ 0000000180001c0c f i MSR.obj
 0001:00000c0c       ?GetObjectDescription@?$CComCoClass@VCOPOSMSR@@$1?CLSID_OPOSMSR@@3U_GUID@@B@ATL@@SAPEB_WXZ 0000000180001c0c f i MSR.obj
 0001:00000c0c       ?Release@CRegObject@ATL@@UEAAKXZ 0000000180001c0c f i MSR.obj
 0001:00000c0c       ?SaveCompleted@?$IPersistStorageImpl@VCOPOSMSR@@@ATL@@UEAAJPEAUIStorage@@@Z 0000000180001c0c f i MSR.obj
 0001:00000c0c       ?EnableModeless@?$IOleInPlaceActiveObjectImpl@VCOPOSMSR@@@ATL@@UEAAJH@Z 0000000180001c0c f i MSR.obj
 0001:00000c0c       ?Update@?$IOleObjectImpl@VCOPOSMSR@@@ATL@@UEAAJXZ 0000000180001c0c f i MSR.obj
 0001:00000c0c       ?HandsOffStorage@?$IPersistStorageImpl@VCOPOSMSR@@@ATL@@UEAAJXZ 0000000180001c0c f i MSR.obj
 0001:00000c0c       ?ResizeBorder@?$IOleInPlaceActiveObjectImpl@VCOPOSMSR@@@ATL@@UEAAJPEBUtagRECT@@PEAUIOleInPlaceUIWindow@@H@Z 0000000180001c0c f i MSR.obj
 0001:00000c0c       ?OnFrameWindowActivate@?$IOleInPlaceActiveObjectImpl@VCOPOSMSR@@@ATL@@UEAAJH@Z 0000000180001c0c f i MSR.obj
 0001:00000c0c       ?GetCategoryMap@CComObjectRootBase@ATL@@SAPEBU_ATL_CATMAP_ENTRY@2@XZ 0000000180001c0c f i MSR.obj
 0001:00000c0c       ?OnAmbientPropertyChange@?$IOleControlImpl@VCOPOSMSR@@@ATL@@UEAAJJ@Z 0000000180001c0c f i MSR.obj
 0001:00000c0c       ?SetHostNames@?$IOleObjectImpl@VCOPOSMSR@@@ATL@@UEAAJPEB_W0@Z 0000000180001c0c f i MSR.obj
 0001:00000c10       ?OnDrawAdvanced@CComControlBase@ATL@@UEAAJAEAUATL_DRAWINFO@@@Z 0000000180001c10 f i MSR.obj
 0001:00000d30       ?CreateInstance@CComClassFactory@ATL@@UEAAJPEAUIUnknown@@AEBU_GUID@@PEAPEAX@Z 0000000180001d30 f i MSR.obj
 0001:00000d90       ?LockServer@CComClassFactory@ATL@@UEAAJH@Z 0000000180001d90 f i MSR.obj
 0001:00000db4       ??_ECComClassFactory@ATL@@UEAAPEAXI@Z 0000000180001db4 f i MSR.obj
 0001:00000db4       ??_GCComClassFactory@ATL@@UEAAPEAXI@Z 0000000180001db4 f i MSR.obj
 0001:00000e04       ?Next@?$CComEnumImpl@UIEnumConnections@@$1?_GUID_b196b287_bab4_101a_b69c_00aa00341d07@@3U__s_GUID@@BUtagCONNECTDATA@@V?$_Copy@UtagCONNECTDATA@@@ATL@@@ATL@@UEAAJKPEAUtagCONNECTDATA@@PEAK@Z 0000000180001e04 f i MSR.obj
 0001:00000ed8       ?Skip@?$CComEnumImpl@UIEnumConnections@@$1?_GUID_b196b287_bab4_101a_b69c_00aa00341d07@@3U__s_GUID@@BUtagCONNECTDATA@@V?$_Copy@UtagCONNECTDATA@@@ATL@@@ATL@@UEAAJK@Z 0000000180001ed8 f i MSR.obj
 0001:00000f04       ?Reset@?$CComEnumImpl@UIEnumConnections@@$1?_GUID_b196b287_bab4_101a_b69c_00aa00341d07@@3U__s_GUID@@BUtagCONNECTDATA@@V?$_Copy@UtagCONNECTDATA@@@ATL@@@ATL@@UEAAJXZ 0000000180001f04 f i MSR.obj
 0001:00000f04       ?Reset@?$CComEnumImpl@UIEnumConnectionPoints@@$1?_GUID_b196b285_bab4_101a_b69c_00aa00341d07@@3U__s_GUID@@BPEAUIConnectionPoint@@V?$_CopyInterface@UIConnectionPoint@@@ATL@@@ATL@@UEAAJXZ 0000000180001f04 f i MSR.obj
 0001:00000f10       ?Clone@?$CComEnumImpl@UIEnumConnections@@$1?_GUID_b196b287_bab4_101a_b69c_00aa00341d07@@3U__s_GUID@@BUtagCONNECTDATA@@V?$_Copy@UtagCONNECTDATA@@@ATL@@@ATL@@UEAAJPEAPEAUIEnumConnections@@@Z 0000000180001f10 f i MSR.obj
 0001:00001038       ?AddRef@?$CComObject@V?$CComEnum@UIEnumConnectionPoints@@$1?_GUID_b196b285_bab4_101a_b69c_00aa00341d07@@3U__s_GUID@@BPEAUIConnectionPoint@@V?$_CopyInterface@UIConnectionPoint@@@ATL@@VCComSingleThreadModel@6@@ATL@@@ATL@@UEAAKXZ 0000000180002038 f i MSR.obj
 0001:00001038       ?AddRef@?$CComObject@V?$CComEnum@UIEnumConnections@@$1?_GUID_b196b287_bab4_101a_b69c_00aa00341d07@@3U__s_GUID@@BUtagCONNECTDATA@@V?$_Copy@UtagCONNECTDATA@@@ATL@@VCComSingleThreadModel@6@@ATL@@@ATL@@UEAAKXZ 0000000180002038 f i MSR.obj
 0001:00001044       ?Release@?$CComObject@V?$CComEnum@UIEnumConnections@@$1?_GUID_b196b287_bab4_101a_b69c_00aa00341d07@@3U__s_GUID@@BUtagCONNECTDATA@@V?$_Copy@UtagCONNECTDATA@@@ATL@@VCComSingleThreadModel@6@@ATL@@@ATL@@UEAAKXZ 0000000180002044 f i MSR.obj
 0001:00001044       ?Release@?$CComObject@V?$CComEnum@UIEnumConnectionPoints@@$1?_GUID_b196b285_bab4_101a_b69c_00aa00341d07@@3U__s_GUID@@BPEAUIConnectionPoint@@V?$_CopyInterface@UIConnectionPoint@@@ATL@@VCComSingleThreadModel@6@@ATL@@@ATL@@UEAAKXZ 0000000180002044 f i MSR.obj
 0001:00001098       ?QueryInterface@?$CComObject@V?$CComEnum@UIEnumConnections@@$1?_GUID_b196b287_bab4_101a_b69c_00aa00341d07@@3U__s_GUID@@BUtagCONNECTDATA@@V?$_Copy@UtagCONNECTDATA@@@ATL@@VCComSingleThreadModel@6@@ATL@@@ATL@@UEAAJAEBU_GUID@@PEAPEAX@Z 0000000180002098 f i MSR.obj
 0001:000010ac       ??_E?$CComObject@V?$CComEnum@UIEnumConnections@@$1?_GUID_b196b287_bab4_101a_b69c_00aa00341d07@@3U__s_GUID@@BUtagCONNECTDATA@@V?$_Copy@UtagCONNECTDATA@@@ATL@@VCComSingleThreadModel@6@@ATL@@@ATL@@UEAAPEAXI@Z 00000001800020ac f i MSR.obj
 0001:000010ac       ??_G?$CComObject@V?$CComEnum@UIEnumConnections@@$1?_GUID_b196b287_bab4_101a_b69c_00aa00341d07@@3U__s_GUID@@BUtagCONNECTDATA@@V?$_Copy@UtagCONNECTDATA@@@ATL@@VCComSingleThreadModel@6@@ATL@@@ATL@@UEAAPEAXI@Z 00000001800020ac f i MSR.obj
 0001:00001104       ??_E?$CComObject@VCOPOSMSR@@@ATL@@W7EAAPEAXI@Z 0000000180002104 f i MSR.obj
 0001:00001110       ??_E?$CComObject@VCOPOSMSR@@@ATL@@WHA@EAAPEAXI@Z 0000000180002110 f i MSR.obj
 0001:0000111c       ?QueryInterface@?$CComObject@VCOPOSMSR@@@ATL@@WLI@EAAJAEBU_GUID@@PEAPEAX@Z 000000018000211c f i MSR.obj
 0001:00001128       ?AddRef@?$CComObject@VCOPOSMSR@@@ATL@@WLI@EAAKXZ 0000000180002128 f i MSR.obj
 0001:00001134       ?Release@?$CComObject@VCOPOSMSR@@@ATL@@WLI@EAAKXZ 0000000180002134 f i MSR.obj
 0001:00001140       ?QueryInterface@?$CComObject@VCOPOSMSR@@@ATL@@WMA@EAAJAEBU_GUID@@PEAPEAX@Z 0000000180002140 f i MSR.obj
 0001:0000114c       ?AddRef@?$CComObject@VCOPOSMSR@@@ATL@@WMA@EAAKXZ 000000018000214c f i MSR.obj
 0001:00001158       ?Release@?$CComObject@VCOPOSMSR@@@ATL@@WMA@EAAKXZ 0000000180002158 f i MSR.obj
 0001:00001164       ?QueryInterface@?$CComObject@VCOPOSMSR@@@ATL@@WMI@EAAJAEBU_GUID@@PEAPEAX@Z 0000000180002164 f i MSR.obj
 0001:00001170       ?AddRef@?$CComObject@VCOPOSMSR@@@ATL@@WMI@EAAKXZ 0000000180002170 f i MSR.obj
 0001:0000117c       ?Release@?$CComObject@VCOPOSMSR@@@ATL@@WMI@EAAKXZ 000000018000217c f i MSR.obj
 0001:00001188       ?QueryInterface@?$CComObject@VCOPOSMSR@@@ATL@@WNA@EAAJAEBU_GUID@@PEAPEAX@Z 0000000180002188 f i MSR.obj
 0001:00001194       ?AddRef@?$CComObject@VCOPOSMSR@@@ATL@@WNA@EAAKXZ 0000000180002194 f i MSR.obj
 0001:000011a0       ?Release@?$CComObject@VCOPOSMSR@@@ATL@@WNA@EAAKXZ 00000001800021a0 f i MSR.obj
 0001:000011ac       ?QueryInterface@?$CComObject@VCOPOSMSR@@@ATL@@WNI@EAAJAEBU_GUID@@PEAPEAX@Z 00000001800021ac f i MSR.obj
 0001:000011b8       ?AddRef@?$CComObject@VCOPOSMSR@@@ATL@@WNI@EAAKXZ 00000001800021b8 f i MSR.obj
 0001:000011c4       ?Release@?$CComObject@VCOPOSMSR@@@ATL@@WNI@EAAKXZ 00000001800021c4 f i MSR.obj
 0001:000011d0       ?QueryInterface@?$CComObject@VCOPOSMSR@@@ATL@@WOA@EAAJAEBU_GUID@@PEAPEAX@Z 00000001800021d0 f i MSR.obj
 0001:000011dc       ?AddRef@?$CComObject@VCOPOSMSR@@@ATL@@WOA@EAAKXZ 00000001800021dc f i MSR.obj
 0001:000011e8       ?Release@?$CComObject@VCOPOSMSR@@@ATL@@WOA@EAAKXZ 00000001800021e8 f i MSR.obj
 0001:000011f4       ?QueryInterface@?$CComObject@VCOPOSMSR@@@ATL@@WOI@EAAJAEBU_GUID@@PEAPEAX@Z 00000001800021f4 f i MSR.obj
 0001:00001200       ?AddRef@?$CComObject@VCOPOSMSR@@@ATL@@WOI@EAAKXZ 0000000180002200 f i MSR.obj
 0001:0000120c       ?Release@?$CComObject@VCOPOSMSR@@@ATL@@WOI@EAAKXZ 000000018000220c f i MSR.obj
 0001:00001218       ?QueryInterface@?$CComObject@VCOPOSMSR@@@ATL@@WPA@EAAJAEBU_GUID@@PEAPEAX@Z 0000000180002218 f i MSR.obj
 0001:00001224       ?AddRef@?$CComObject@VCOPOSMSR@@@ATL@@WPA@EAAKXZ 0000000180002224 f i MSR.obj
 0001:00001230       ?Release@?$CComObject@VCOPOSMSR@@@ATL@@WPA@EAAKXZ 0000000180002230 f i MSR.obj
 0001:0000123c       ?QueryInterface@?$CComObject@VCOPOSMSR@@@ATL@@WPI@EAAJAEBU_GUID@@PEAPEAX@Z 000000018000223c f i MSR.obj
 0001:00001248       ?AddRef@?$CComObject@VCOPOSMSR@@@ATL@@WPI@EAAKXZ 0000000180002248 f i MSR.obj
 0001:00001254       ?Release@?$CComObject@VCOPOSMSR@@@ATL@@WPI@EAAKXZ 0000000180002254 f i MSR.obj
 0001:00001260       ?QueryInterface@?$CComObject@VCOPOSMSR@@@ATL@@WBAA@EAAJAEBU_GUID@@PEAPEAX@Z 0000000180002260 f i MSR.obj
 0001:0000126c       ?AddRef@?$CComObject@VCOPOSMSR@@@ATL@@WBAA@EAAKXZ 000000018000226c f i MSR.obj
 0001:00001278       ?Release@?$CComObject@VCOPOSMSR@@@ATL@@WBAA@EAAKXZ 0000000180002278 f i MSR.obj
 0001:00001284       ?QueryInterface@?$CComObject@VCOPOSMSR@@@ATL@@WBAI@EAAJAEBU_GUID@@PEAPEAX@Z 0000000180002284 f i MSR.obj
 0001:00001290       ?AddRef@?$CComObject@VCOPOSMSR@@@ATL@@WBAI@EAAKXZ 0000000180002290 f i MSR.obj
 0001:0000129c       ?Release@?$CComObject@VCOPOSMSR@@@ATL@@WBAI@EAAKXZ 000000018000229c f i MSR.obj
 0001:000012a8       ?QueryInterface@?$CComObject@VCOPOSMSR@@@ATL@@WBBA@EAAJAEBU_GUID@@PEAPEAX@Z 00000001800022a8 f i MSR.obj
 0001:000012b4       ?AddRef@?$CComObject@VCOPOSMSR@@@ATL@@WBBA@EAAKXZ 00000001800022b4 f i MSR.obj
 0001:000012c0       ?Release@?$CComObject@VCOPOSMSR@@@ATL@@WBBA@EAAKXZ 00000001800022c0 f i MSR.obj
 0001:000012cc       ?QueryInterface@?$CComObject@VCOPOSMSR@@@ATL@@WBBI@EAAJAEBU_GUID@@PEAPEAX@Z 00000001800022cc f i MSR.obj
 0001:000012d8       ?AddRef@?$CComObject@VCOPOSMSR@@@ATL@@WBBI@EAAKXZ 00000001800022d8 f i MSR.obj
 0001:000012e4       ?Release@?$CComObject@VCOPOSMSR@@@ATL@@WBBI@EAAKXZ 00000001800022e4 f i MSR.obj
 0001:000012f0       ?AddRef@?$CComObject@VCOPOSMSR@@@ATL@@WBCI@EAAKXZ 00000001800022f0 f i MSR.obj
 0001:000012fc       ?Release@?$CComObject@VCOPOSMSR@@@ATL@@WBCI@EAAKXZ 00000001800022fc f i MSR.obj
 0001:00001308       ?AddRef@?$CComObject@VCOPOSMSR@@@ATL@@WBEA@EAAKXZ 0000000180002308 f i MSR.obj
 0001:00001314       ?Release@?$CComObject@VCOPOSMSR@@@ATL@@WBEA@EAAKXZ 0000000180002314 f i MSR.obj
 0001:00001320       ??_E?$CComContainedObject@VCOPOSMSR@@@ATL@@W7EAAPEAXI@Z 0000000180002320 f i MSR.obj
 0001:0000132c       ??_E?$CComContainedObject@VCOPOSMSR@@@ATL@@WHA@EAAPEAXI@Z 000000018000232c f i MSR.obj
 0001:00001338       ?QueryInterface@?$CComContainedObject@VCOPOSMSR@@@ATL@@WLI@EAAJAEBU_GUID@@PEAPEAX@Z 0000000180002338 f i MSR.obj
 0001:00001344       ?AddRef@?$CComContainedObject@VCOPOSMSR@@@ATL@@WLI@EAAKXZ 0000000180002344 f i MSR.obj
 0001:00001350       ?Release@?$CComContainedObject@VCOPOSMSR@@@ATL@@WLI@EAAKXZ 0000000180002350 f i MSR.obj
 0001:0000135c       ?QueryInterface@?$CComContainedObject@VCOPOSMSR@@@ATL@@WMA@EAAJAEBU_GUID@@PEAPEAX@Z 000000018000235c f i MSR.obj
 0001:00001368       ?AddRef@?$CComContainedObject@VCOPOSMSR@@@ATL@@WMA@EAAKXZ 0000000180002368 f i MSR.obj
 0001:00001374       ?Release@?$CComContainedObject@VCOPOSMSR@@@ATL@@WMA@EAAKXZ 0000000180002374 f i MSR.obj
 0001:00001380       ?QueryInterface@?$CComContainedObject@VCOPOSMSR@@@ATL@@WMI@EAAJAEBU_GUID@@PEAPEAX@Z 0000000180002380 f i MSR.obj
 0001:0000138c       ?AddRef@?$CComContainedObject@VCOPOSMSR@@@ATL@@WMI@EAAKXZ 000000018000238c f i MSR.obj
 0001:00001398       ?Release@?$CComContainedObject@VCOPOSMSR@@@ATL@@WMI@EAAKXZ 0000000180002398 f i MSR.obj
 0001:000013a4       ?QueryInterface@?$CComContainedObject@VCOPOSMSR@@@ATL@@WNA@EAAJAEBU_GUID@@PEAPEAX@Z 00000001800023a4 f i MSR.obj
 0001:000013b0       ?AddRef@?$CComContainedObject@VCOPOSMSR@@@ATL@@WNA@EAAKXZ 00000001800023b0 f i MSR.obj
 0001:000013bc       ?Release@?$CComContainedObject@VCOPOSMSR@@@ATL@@WNA@EAAKXZ 00000001800023bc f i MSR.obj
 0001:000013c8       ?QueryInterface@?$CComContainedObject@VCOPOSMSR@@@ATL@@WNI@EAAJAEBU_GUID@@PEAPEAX@Z 00000001800023c8 f i MSR.obj
 0001:000013d4       ?AddRef@?$CComContainedObject@VCOPOSMSR@@@ATL@@WNI@EAAKXZ 00000001800023d4 f i MSR.obj
 0001:000013e0       ?Release@?$CComContainedObject@VCOPOSMSR@@@ATL@@WNI@EAAKXZ 00000001800023e0 f i MSR.obj
 0001:000013ec       ?QueryInterface@?$CComContainedObject@VCOPOSMSR@@@ATL@@WOA@EAAJAEBU_GUID@@PEAPEAX@Z 00000001800023ec f i MSR.obj
 0001:000013f8       ?AddRef@?$CComContainedObject@VCOPOSMSR@@@ATL@@WOA@EAAKXZ 00000001800023f8 f i MSR.obj
 0001:00001404       ?Release@?$CComContainedObject@VCOPOSMSR@@@ATL@@WOA@EAAKXZ 0000000180002404 f i MSR.obj
 0001:00001410       ?QueryInterface@?$CComContainedObject@VCOPOSMSR@@@ATL@@WOI@EAAJAEBU_GUID@@PEAPEAX@Z 0000000180002410 f i MSR.obj
 0001:0000141c       ?AddRef@?$CComContainedObject@VCOPOSMSR@@@ATL@@WOI@EAAKXZ 000000018000241c f i MSR.obj
 0001:00001428       ?Release@?$CComContainedObject@VCOPOSMSR@@@ATL@@WOI@EAAKXZ 0000000180002428 f i MSR.obj
 0001:00001434       ?QueryInterface@?$CComContainedObject@VCOPOSMSR@@@ATL@@WPA@EAAJAEBU_GUID@@PEAPEAX@Z 0000000180002434 f i MSR.obj
 0001:00001440       ?AddRef@?$CComContainedObject@VCOPOSMSR@@@ATL@@WPA@EAAKXZ 0000000180002440 f i MSR.obj
 0001:0000144c       ?Release@?$CComContainedObject@VCOPOSMSR@@@ATL@@WPA@EAAKXZ 000000018000244c f i MSR.obj
 0001:00001458       ?QueryInterface@?$CComContainedObject@VCOPOSMSR@@@ATL@@WPI@EAAJAEBU_GUID@@PEAPEAX@Z 0000000180002458 f i MSR.obj
 0001:00001464       ?AddRef@?$CComContainedObject@VCOPOSMSR@@@ATL@@WPI@EAAKXZ 0000000180002464 f i MSR.obj
 0001:00001470       ?Release@?$CComContainedObject@VCOPOSMSR@@@ATL@@WPI@EAAKXZ 0000000180002470 f i MSR.obj
 0001:0000147c       ?QueryInterface@?$CComContainedObject@VCOPOSMSR@@@ATL@@WBAA@EAAJAEBU_GUID@@PEAPEAX@Z 000000018000247c f i MSR.obj
 0001:00001488       ?AddRef@?$CComContainedObject@VCOPOSMSR@@@ATL@@WBAA@EAAKXZ 0000000180002488 f i MSR.obj
 0001:00001494       ?Release@?$CComContainedObject@VCOPOSMSR@@@ATL@@WBAA@EAAKXZ 0000000180002494 f i MSR.obj
 0001:000014a0       ?QueryInterface@?$CComContainedObject@VCOPOSMSR@@@ATL@@WBAI@EAAJAEBU_GUID@@PEAPEAX@Z 00000001800024a0 f i MSR.obj
 0001:000014ac       ?AddRef@?$CComContainedObject@VCOPOSMSR@@@ATL@@WBAI@EAAKXZ 00000001800024ac f i MSR.obj
 0001:000014b8       ?Release@?$CComContainedObject@VCOPOSMSR@@@ATL@@WBAI@EAAKXZ 00000001800024b8 f i MSR.obj
 0001:000014c4       ?QueryInterface@?$CComContainedObject@VCOPOSMSR@@@ATL@@WBBA@EAAJAEBU_GUID@@PEAPEAX@Z 00000001800024c4 f i MSR.obj
 0001:000014d0       ?AddRef@?$CComContainedObject@VCOPOSMSR@@@ATL@@WBBA@EAAKXZ 00000001800024d0 f i MSR.obj
 0001:000014dc       ?Release@?$CComContainedObject@VCOPOSMSR@@@ATL@@WBBA@EAAKXZ 00000001800024dc f i MSR.obj
 0001:000014e8       ?QueryInterface@?$CComContainedObject@VCOPOSMSR@@@ATL@@WBBI@EAAJAEBU_GUID@@PEAPEAX@Z 00000001800024e8 f i MSR.obj
 0001:000014f4       ?AddRef@?$CComContainedObject@VCOPOSMSR@@@ATL@@WBBI@EAAKXZ 00000001800024f4 f i MSR.obj
 0001:00001500       ?Release@?$CComContainedObject@VCOPOSMSR@@@ATL@@WBBI@EAAKXZ 0000000180002500 f i MSR.obj
 0001:0000150c       ?AddRef@?$CComContainedObject@VCOPOSMSR@@@ATL@@WBCI@EAAKXZ 000000018000250c f i MSR.obj
 0001:00001518       ?Release@?$CComContainedObject@VCOPOSMSR@@@ATL@@WBCI@EAAKXZ 0000000180002518 f i MSR.obj
 0001:00001524       ?AddRef@?$CComContainedObject@VCOPOSMSR@@@ATL@@WBEA@EAAKXZ 0000000180002524 f i MSR.obj
 0001:00001530       ?Release@?$CComContainedObject@VCOPOSMSR@@@ATL@@WBEA@EAAKXZ 0000000180002530 f i MSR.obj
 0001:0000153c       ?Lock@CAtlModule@ATL@@UEAAJXZ 000000018000253c f i MSR.obj
 0001:0000154c       ?Unlock@CAtlModule@ATL@@UEAAJXZ 000000018000254c f i MSR.obj
 0001:00001558       ?GetLockCount@CAtlModule@ATL@@UEAAJXZ 0000000180002558 f i MSR.obj
 0001:0000155c       ?GetGITPtr@CAtlModule@ATL@@UEAAJPEAPEAUIGlobalInterfaceTable@@@Z 000000018000255c f i MSR.obj
 0001:000015cc       ?AddCommonRGSReplacements@?$CAtlModuleT@VCComModule@ATL@@@ATL@@UEAAJPEAUIRegistrarBase@@@Z 00000001800025cc f i MSR.obj
 0001:000015e4       ?GetWindowProc@?$CWindowImplBaseT@VCWindow@ATL@@V?$CWinTraits@$0FGAAAAAA@$0A@@2@@ATL@@UEAAP6A_JPEAUHWND__@@I_K_J@ZXZ 00000001800025e4 f i MSR.obj
 0001:000015ec       ?StartWindowProc@?$CWindowImplBaseT@VCWindow@ATL@@V?$CWinTraits@$0FGAAAAAA@$0A@@2@@ATL@@SA_JPEAUHWND__@@I_K_J@Z 00000001800025ec f i MSR.obj
 0001:000016b0       ?UpdateRegistryFromResourceD@CComModule@ATL@@UEAAJPEB_WHPEAU_ATL_REGMAP_ENTRY@2@@Z 00000001800026b0 f i MSR.obj
 0001:000016b0       ?UpdateRegistryFromResourceD@CComModule@ATL@@UEAAJIHPEAU_ATL_REGMAP_ENTRY@2@@Z 00000001800026b0 f i MSR.obj
 0001:000016b8       ?UpdateRegistryFromResource@CComModule@ATL@@UEAAJPEB_WHPEAU_ATL_REGMAP_ENTRY@2@@Z 00000001800026b8 f i MSR.obj
 0001:000016c0       ?UpdateRegistryFromResource@CComModule@ATL@@UEAAJIHPEAU_ATL_REGMAP_ENTRY@2@@Z 00000001800026c0 f i MSR.obj
 0001:000016c8       ??_GCComModule@ATL@@UEAAPEAXI@Z 00000001800026c8 f i MSR.obj
 0001:000016c8       ??_ECComModule@ATL@@UEAAPEAXI@Z 00000001800026c8 f i MSR.obj
 0001:00001748       ?GetTypeInfoCount@?$IDispatchImpl@UIOPOSMSR@@$1?IID_IOPOSMSR@@3U_GUID@@B$1?LIBID_OposMSR_CCO@@3U3@B$00$0A@VCComTypeInfoHolder@ATL@@@ATL@@UEAAJPEAI@Z 0000000180002748 f i MSR.obj
 0001:0000175c       ?GetTypeInfo@?$IDispatchImpl@UIOPOSMSR@@$1?IID_IOPOSMSR@@3U_GUID@@B$1?LIBID_OposMSR_CCO@@3U3@B$00$0A@VCComTypeInfoHolder@ATL@@@ATL@@UEAAJIKPEAPEAUITypeInfo@@@Z 000000018000275c f i MSR.obj
 0001:000017c0       ?GetIDsOfNames@?$IDispatchImpl@UIOPOSMSR@@$1?IID_IOPOSMSR@@3U_GUID@@B$1?LIBID_OposMSR_CCO@@3U3@B$00$0A@VCComTypeInfoHolder@ATL@@@ATL@@UEAAJAEBU_GUID@@PEAPEA_WIKPEAJ@Z 00000001800027c0 f i MSR.obj
 0001:000017cc       ?Invoke@?$IDispatchImpl@UIOPOSMSR@@$1?IID_IOPOSMSR@@3U_GUID@@B$1?LIBID_OposMSR_CCO@@3U3@B$00$0A@VCComTypeInfoHolder@ATL@@@ATL@@UEAAJJAEBU_GUID@@KGPEAUtagDISPPARAMS@@PEAUtagVARIANT@@PEAUtagEXCEPINFO@@PEAI@Z 00000001800027cc f i MSR.obj
 0001:0000185c       ?CreateControlWindow@?$CComControl@VCOPOSMSR@@V?$CWindowImpl@VCOPOSMSR@@VCWindow@ATL@@V?$CWinTraits@$0FGAAAAAA@$0A@@3@@ATL@@@ATL@@UEAAPEAUHWND__@@PEAU3@AEAUtagRECT@@@Z 000000018000285c f i MSR.obj
 0001:00001894       ?ControlQueryInterface@?$CComControl@VCOPOSMSR@@V?$CWindowImpl@VCOPOSMSR@@VCWindow@ATL@@V?$CWinTraits@$0FGAAAAAA@$0A@@3@@ATL@@@ATL@@UEAAJAEBU_GUID@@PEAPEAX@Z 0000000180002894 f i MSR.obj
 0001:000018a8       ?GetClassID@?$IPersistStreamInitImpl@VCOPOSMSR@@@ATL@@UEAAJPEAU_GUID@@@Z 00000001800028a8 f i MSR.obj
 0001:000018a8       ?GetClassID@?$IPersistStorageImpl@VCOPOSMSR@@@ATL@@UEAAJPEAU_GUID@@@Z 00000001800028a8 f i MSR.obj
 0001:000018a8       ?GetUserClassID@?$IOleObjectImpl@VCOPOSMSR@@@ATL@@UEAAJPEAU_GUID@@@Z 00000001800028a8 f i MSR.obj
 0001:000018c4       ?IsDirty@?$IPersistStreamInitImpl@VCOPOSMSR@@@ATL@@UEAAJXZ 00000001800028c4 f i MSR.obj
 0001:000018e0       ?Load@?$IPersistStreamInitImpl@VCOPOSMSR@@@ATL@@UEAAJPEAUIStream@@@Z 00000001800028e0 f i MSR.obj
 0001:00001930       ?Save@?$IPersistStreamInitImpl@VCOPOSMSR@@@ATL@@UEAAJPEAUIStream@@H@Z 0000000180002930 f i MSR.obj
 0001:00001994       ?GetSizeMax@?$IPersistStreamInitImpl@VCOPOSMSR@@@ATL@@UEAAJPEAT_ULARGE_INTEGER@@@Z 0000000180002994 f i MSR.obj
 0001:00001bc0       ?InitNew@?$IPersistStreamInitImpl@VCOPOSMSR@@@ATL@@UEAAJXZ 0000000180002bc0 f i MSR.obj
 0001:00001bd8       ?GetRect@?$IViewObjectExImpl@VCOPOSMSR@@@ATL@@UEAAJKPEAU_RECTL@@@Z 0000000180002bd8 f i MSR.obj
 0001:00001bd8       ?SetData@?$IDataObjectImpl@VCOPOSMSR@@@ATL@@UEAAJPEAUtagFORMATETC@@PEAUtagSTGMEDIUM@@H@Z 0000000180002bd8 f i MSR.obj
 0001:00001bd8       ?GetColorSet@?$IViewObjectExImpl@VCOPOSMSR@@@ATL@@UEAAJKJPEAXPEAUtagDVTARGETDEVICE@@PEAUHDC__@@PEAPEAUtagLOGPALETTE@@@Z 0000000180002bd8 f i MSR.obj
 0001:00001bd8       ?GetMoniker@?$IOleObjectImpl@VCOPOSMSR@@@ATL@@UEAAJKKPEAPEAUIMoniker@@@Z 0000000180002bd8 f i MSR.obj
 0001:00001bd8       ?GetClipboardData@?$IOleObjectImpl@VCOPOSMSR@@@ATL@@UEAAJKPEAPEAUIDataObject@@@Z 0000000180002bd8 f i MSR.obj
 0001:00001bd8       ?Freeze@?$IViewObjectExImpl@VCOPOSMSR@@@ATL@@UEAAJKJPEAXPEAK@Z 0000000180002bd8 f i MSR.obj
 0001:00001bd8       ?InitFromData@?$IOleObjectImpl@VCOPOSMSR@@@ATL@@UEAAJPEAUIDataObject@@HK@Z 0000000180002bd8 f i MSR.obj
 0001:00001bd8       ?OnMnemonic@?$IOleControlImpl@VCOPOSMSR@@@ATL@@UEAAJPEAUtagMSG@@@Z 0000000180002bd8 f i MSR.obj
 0001:00001bd8       ?ReactivateAndUndo@?$IOleInPlaceObjectWindowlessImpl@VCOPOSMSR@@@ATL@@UEAAJXZ 0000000180002bd8 f i MSR.obj
 0001:00001bd8       ?GetCanonicalFormatEtc@?$IDataObjectImpl@VCOPOSMSR@@@ATL@@UEAAJPEAUtagFORMATETC@@0@Z 0000000180002bd8 f i MSR.obj
 0001:00001bd8       ?GetDataHere@?$IDataObjectImpl@VCOPOSMSR@@@ATL@@UEAAJPEAUtagFORMATETC@@PEAUtagSTGMEDIUM@@@Z 0000000180002bd8 f i MSR.obj
 0001:00001bd8       ?SetMoniker@?$IOleObjectImpl@VCOPOSMSR@@@ATL@@UEAAJKPEAUIMoniker@@@Z 0000000180002bd8 f i MSR.obj
 0001:00001bd8       ?ContextSensitiveHelp@?$IOleInPlaceActiveObjectImpl@VCOPOSMSR@@@ATL@@UEAAJH@Z 0000000180002bd8 f i MSR.obj
 0001:00001bd8       ?ContextSensitiveHelp@?$IOleInPlaceObjectWindowlessImpl@VCOPOSMSR@@@ATL@@UEAAJH@Z 0000000180002bd8 f i MSR.obj
 0001:00001bd8       ?SetColorScheme@?$IOleObjectImpl@VCOPOSMSR@@@ATL@@UEAAJPEAUtagLOGPALETTE@@@Z 0000000180002bd8 f i MSR.obj
 0001:00001bd8       ?Unfreeze@?$IViewObjectExImpl@VCOPOSMSR@@@ATL@@UEAAJK@Z 0000000180002bd8 f i MSR.obj
 0001:00001bd8       ?GetControlInfo@?$IOleControlImpl@VCOPOSMSR@@@ATL@@UEAAJPEAUtagCONTROLINFO@@@Z 0000000180002bd8 f i MSR.obj
 0001:00001bd8       ?SOOutputCompleteDummy@COPOSMSR@@MEAAJJ@Z 0000000180002bd8 f i MSR.obj
 0001:00001bd8       ?GetDropTarget@?$IOleInPlaceObjectWindowlessImpl@VCOPOSMSR@@@ATL@@UEAAJPEAPEAUIDropTarget@@@Z 0000000180002bd8 f i MSR.obj
 0001:00001bd8       ?QueryInterface@CRegObject@ATL@@UEAAJAEBU_GUID@@PEAPEAX@Z 0000000180002bd8 f i MSR.obj
 0001:00001bd8       ?QueryGetData@?$IDataObjectImpl@VCOPOSMSR@@@ATL@@UEAAJPEAUtagFORMATETC@@@Z 0000000180002bd8 f i MSR.obj
 0001:00001bd8       ?EnumFormatEtc@?$IDataObjectImpl@VCOPOSMSR@@@ATL@@UEAAJKPEAPEAUIEnumFORMATETC@@@Z 0000000180002bd8 f i MSR.obj
 0001:00001be0       ?SetClientSite@?$IOleObjectImpl@VCOPOSMSR@@@ATL@@UEAAJPEAUIOleClientSite@@@Z 0000000180002be0 f i MSR.obj
 0001:00001bfc       ?GetClientSite@?$IOleObjectImpl@VCOPOSMSR@@@ATL@@UEAAJPEAPEAUIOleClientSite@@@Z 0000000180002bfc f i MSR.obj
 0001:00001c44       ?Close@?$IOleObjectImpl@VCOPOSMSR@@@ATL@@UEAAJK@Z 0000000180002c44 f i MSR.obj
 0001:00001c60       ?DoVerb@?$IOleObjectImpl@VCOPOSMSR@@@ATL@@UEAAJJPEAUtagMSG@@PEAUIOleClientSite@@JPEAUHWND__@@PEBUtagRECT@@@Z 0000000180002c60 f i MSR.obj
 0001:00001e04       ?EnumVerbs@?$IOleObjectImpl@VCOPOSMSR@@@ATL@@UEAAJPEAPEAUIEnumOLEVERB@@@Z 0000000180002e04 f i MSR.obj
 0001:00001e20       ?GetUserType@?$IOleObjectImpl@VCOPOSMSR@@@ATL@@UEAAJKPEAPEA_W@Z 0000000180002e20 f i MSR.obj
 0001:00001e30       ?SetExtent@?$IOleObjectImpl@VCOPOSMSR@@@ATL@@UEAAJKPEAUtagSIZE@@@Z 0000000180002e30 f i MSR.obj
 0001:00001e4c       ?GetExtent@?$IOleObjectImpl@VCOPOSMSR@@@ATL@@UEAAJKPEAUtagSIZE@@@Z 0000000180002e4c f i MSR.obj
 0001:00001e7c       ?Advise@?$IOleObjectImpl@VCOPOSMSR@@@ATL@@UEAAJPEAUIAdviseSink@@PEAK@Z 0000000180002e7c f i MSR.obj
 0001:00001ed8       ?Unadvise@?$IOleObjectImpl@VCOPOSMSR@@@ATL@@UEAAJK@Z 0000000180002ed8 f i MSR.obj
 0001:00001f10       ?EnumAdvise@?$IOleObjectImpl@VCOPOSMSR@@@ATL@@UEAAJPEAPEAUIEnumSTATDATA@@@Z 0000000180002f10 f i MSR.obj
 0001:00001f58       ?GetMiscStatus@?$IOleObjectImpl@VCOPOSMSR@@@ATL@@UEAAJKPEAK@Z 0000000180002f58 f i MSR.obj
 0001:00001f68       ?GetWindow@?$IOleInPlaceActiveObjectImpl@VCOPOSMSR@@@ATL@@UEAAJPEAPEAUHWND__@@@Z 0000000180002f68 f i MSR.obj
 0001:00001fbc       ?TranslateAcceleratorW@?$IOleInPlaceActiveObjectImpl@VCOPOSMSR@@@ATL@@UEAAJPEAUtagMSG@@@Z 0000000180002fbc f i MSR.obj
 0001:000020b0       ?OnDocWindowActivate@?$IOleInPlaceActiveObjectImpl@VCOPOSMSR@@@ATL@@UEAAJH@Z 00000001800030b0 f i MSR.obj
 0001:000020dc       ?Draw@?$IViewObjectExImpl@VCOPOSMSR@@@ATL@@UEAAJKJPEAXPEAUtagDVTARGETDEVICE@@PEAUHDC__@@2PEBU_RECTL@@3P6AH_K@Z4@Z 00000001800030dc f i MSR.obj
 0001:00002140       ?SetAdvise@?$IViewObjectExImpl@VCOPOSMSR@@@ATL@@UEAAJKKPEAUIAdviseSink@@@Z 0000000180003140 f i MSR.obj
 0001:00002194       ?GetAdvise@?$IViewObjectExImpl@VCOPOSMSR@@@ATL@@UEAAJPEAK0PEAPEAUIAdviseSink@@@Z 0000000180003194 f i MSR.obj
 0001:000021d0       ?GetExtent@?$IViewObjectExImpl@VCOPOSMSR@@@ATL@@UEAAJKJPEAUtagDVTARGETDEVICE@@PEAUtagSIZE@@@Z 00000001800031d0 f i MSR.obj
 0001:00002200       ?GetViewStatus@?$IViewObjectExImpl@VCOPOSMSR@@@ATL@@UEAAJPEAK@Z 0000000180003200 f i MSR.obj
 0001:00002214       ?QueryHitPoint@?$IViewObjectExImpl@VCOPOSMSR@@@ATL@@UEAAJKPEBUtagRECT@@UtagPOINT@@JPEAK@Z 0000000180003214 f i MSR.obj
 0001:00002258       ?QueryHitRect@?$IViewObjectExImpl@VCOPOSMSR@@@ATL@@UEAAJKPEBUtagRECT@@0JPEAK@Z 0000000180003258 f i MSR.obj
 0001:000022c0       ?GetNaturalExtent@?$IViewObjectExImpl@VCOPOSMSR@@@ATL@@UEAAJKJPEAUtagDVTARGETDEVICE@@PEAUHDC__@@PEAUtagExtentInfo@@PEAUtagSIZE@@@Z 00000001800032c0 f i MSR.obj
 0001:00002308       ?GetWindow@?$IOleInPlaceObjectWindowlessImpl@VCOPOSMSR@@@ATL@@UEAAJPEAPEAUHWND__@@@Z 0000000180003308 f i MSR.obj
 0001:0000235c       ?InPlaceDeactivate@?$IOleInPlaceObjectWindowlessImpl@VCOPOSMSR@@@ATL@@UEAAJXZ 000000018000335c f i MSR.obj
 0001:00002378       ?UIDeactivate@?$IOleInPlaceObjectWindowlessImpl@VCOPOSMSR@@@ATL@@UEAAJXZ 0000000180003378 f i MSR.obj
 0001:00002394       ?SetObjectRects@?$IOleInPlaceObjectWindowlessImpl@VCOPOSMSR@@@ATL@@UEAAJPEBUtagRECT@@0@Z 0000000180003394 f i MSR.obj
 0001:000023b0       ?OnWindowMessage@?$IOleInPlaceObjectWindowlessImpl@VCOPOSMSR@@@ATL@@UEAAJI_K_JPEA_J@Z 00000001800033b0 f i MSR.obj
 0001:00002478       ?EnumConnectionPoints@?$IConnectionPointContainerImpl@VCOPOSMSR@@@ATL@@UEAAJPEAPEAUIEnumConnectionPoints@@@Z 0000000180003478 f i MSR.obj
 0001:000026c0       ?FindConnectionPoint@?$IConnectionPointContainerImpl@VCOPOSMSR@@@ATL@@UEAAJAEBU_GUID@@PEAPEAUIConnectionPoint@@@Z 00000001800036c0 f i MSR.obj
 0001:00002790       ?IsDirty@?$IPersistStorageImpl@VCOPOSMSR@@@ATL@@UEAAJXZ 0000000180003790 f i MSR.obj
 0001:000027d4       ?InitNew@?$IPersistStorageImpl@VCOPOSMSR@@@ATL@@UEAAJPEAUIStorage@@@Z 00000001800037d4 f i MSR.obj
 0001:00002818       ?Load@?$IPersistStorageImpl@VCOPOSMSR@@@ATL@@UEAAJPEAUIStorage@@@Z 0000000180003818 f i MSR.obj
 0001:000028b8       ?Save@?$IPersistStorageImpl@VCOPOSMSR@@@ATL@@UEAAJPEAUIStorage@@H@Z 00000001800038b8 f i MSR.obj
 0001:00002968       ?GetPages@?$ISpecifyPropertyPagesImpl@VCOPOSMSR@@@ATL@@UEAAJPEAUtagCAUUID@@@Z 0000000180003968 f i MSR.obj
 0001:00002974       ?QuickActivate@?$IQuickActivateImpl@VCOPOSMSR@@@ATL@@UEAAJPEAUtagQACONTAINER@@PEAUtagQACONTROL@@@Z 0000000180003974 f i MSR.obj
 0001:00002990       ?SetContentExtent@?$IQuickActivateImpl@VCOPOSMSR@@@ATL@@UEAAJPEAUtagSIZE@@@Z 0000000180003990 f i MSR.obj
 0001:000029c4       ?GetContentExtent@?$IQuickActivateImpl@VCOPOSMSR@@@ATL@@UEAAJPEAUtagSIZE@@@Z 00000001800039c4 f i MSR.obj
 0001:000029fc       ?GetData@?$IDataObjectImpl@VCOPOSMSR@@@ATL@@UEAAJPEAUtagFORMATETC@@PEAUtagSTGMEDIUM@@@Z 00000001800039fc f i MSR.obj
 0001:00002a18       ?DAdvise@?$IDataObjectImpl@VCOPOSMSR@@@ATL@@UEAAJPEAUtagFORMATETC@@KPEAUIAdviseSink@@PEAK@Z 0000000180003a18 f i MSR.obj
 0001:00002aa0       ?DUnadvise@?$IDataObjectImpl@VCOPOSMSR@@@ATL@@UEAAJK@Z 0000000180003aa0 f i MSR.obj
 0001:00002acc       ?EnumDAdvise@?$IDataObjectImpl@VCOPOSMSR@@@ATL@@UEAAJPEAPEAUIEnumSTATDATA@@@Z 0000000180003acc f i MSR.obj
 0001:00002b08       ?GetClassInfoW@?$IProvideClassInfo2Impl@$1?CLSID_OPOSMSR@@3U_GUID@@B$1?DIID__IOPOSMSREvents@@3U2@B$1?LIBID_OposMSR_CCO@@3U2@B$00$0A@VCComTypeInfoHolder@ATL@@@ATL@@UEAAJPEAPEAUITypeInfo@@@Z 0000000180003b08 f i MSR.obj
 0001:00002b60       ?GetGUID@?$IProvideClassInfo2Impl@$1?CLSID_OPOSMSR@@3U_GUID@@B$1?DIID__IOPOSMSREvents@@3U2@B$1?LIBID_OposMSR_CCO@@3U2@B$00$0A@VCComTypeInfoHolder@ATL@@@ATL@@UEAAJKPEAU_GUID@@@Z 0000000180003b60 f i MSR.obj
 0001:00002b94       _get_startup_argv_mode     0000000180003b94 f i LIBCMT:argv_mode.obj
 0001:00002b94       ?FAccessAllowed@?$IObjectSafetyImpl@VCOPOSMSR@@$02@ATL@@MEAAHXZ 0000000180003b94 f i MSR.obj
 0001:00002b94       ?AddRef@CRegObject@ATL@@UEAAKXZ 0000000180003b94 f i MSR.obj
 0001:00002b9c       ?GetInterfaceSafetyOptions@?$IObjectSafetyImpl@VCOPOSMSR@@$02@ATL@@UEAAJAEBU_GUID@@PEAK1@Z 0000000180003b9c f i MSR.obj
 0001:00002c30       ?SetInterfaceSafetyOptions@?$IObjectSafetyImpl@VCOPOSMSR@@$02@ATL@@UEAAJAEBU_GUID@@KK@Z 0000000180003c30 f i MSR.obj
 0001:00002cd4       ?_LocCPQueryInterface@?$IConnectionPointImpl@VCOPOSMSR@@$1?IID_IPropertyNotifySink@@3U_GUID@@BVCComDynamicUnkArray@ATL@@@ATL@@UEAAJAEBU_GUID@@PEAPEAX@Z 0000000180003cd4 f i MSR.obj
 0001:00002cd4       ?_LocCPQueryInterface@?$IConnectionPointImpl@VCOPOSMSR@@$1?DIID__IOPOSMSREvents@@3U_GUID@@BVCComDynamicUnkArray@ATL@@@ATL@@UEAAJAEBU_GUID@@PEAPEAX@Z 0000000180003cd4 f i MSR.obj
 0001:00002d48       ?GetConnectionInterface@?$IConnectionPointImpl@VCOPOSMSR@@$1?IID_IPropertyNotifySink@@3U_GUID@@BVCComDynamicUnkArray@ATL@@@ATL@@UEAAJPEAU_GUID@@@Z 0000000180003d48 f i MSR.obj
 0001:00002d64       ?GetConnectionPointContainer@?$IConnectionPointImpl@VCOPOSMSR@@$1?IID_IPropertyNotifySink@@3U_GUID@@BVCComDynamicUnkArray@ATL@@@ATL@@UEAAJPEAPEAUIConnectionPointContainer@@@Z 0000000180003d64 f i MSR.obj
 0001:00002d84       ?Advise@?$IConnectionPointImpl@VCOPOSMSR@@$1?IID_IPropertyNotifySink@@3U_GUID@@BVCComDynamicUnkArray@ATL@@@ATL@@UEAAJPEAUIUnknown@@PEAK@Z 0000000180003d84 f i MSR.obj
 0001:00002d84       ?Advise@?$IConnectionPointImpl@VCOPOSMSR@@$1?DIID__IOPOSMSREvents@@3U_GUID@@BVCComDynamicUnkArray@ATL@@@ATL@@UEAAJPEAUIUnknown@@PEAK@Z 0000000180003d84 f i MSR.obj
 0001:00002e44       ?Unadvise@?$IConnectionPointImpl@VCOPOSMSR@@$1?IID_IPropertyNotifySink@@3U_GUID@@BVCComDynamicUnkArray@ATL@@@ATL@@UEAAJK@Z 0000000180003e44 f i MSR.obj
 0001:00002e44       ?Unadvise@?$IConnectionPointImpl@VCOPOSMSR@@$1?DIID__IOPOSMSREvents@@3U_GUID@@BVCComDynamicUnkArray@ATL@@@ATL@@UEAAJK@Z 0000000180003e44 f i MSR.obj
 0001:00002ec0       ?EnumConnections@?$IConnectionPointImpl@VCOPOSMSR@@$1?DIID__IOPOSMSREvents@@3U_GUID@@BVCComDynamicUnkArray@ATL@@@ATL@@UEAAJPEAPEAUIEnumConnections@@@Z 0000000180003ec0 f i MSR.obj
 0001:00002ec0       ?EnumConnections@?$IConnectionPointImpl@VCOPOSMSR@@$1?IID_IPropertyNotifySink@@3U_GUID@@BVCComDynamicUnkArray@ATL@@@ATL@@UEAAJPEAPEAUIEnumConnections@@@Z 0000000180003ec0 f i MSR.obj
 0001:00003068       ?GetConnectionInterface@?$IConnectionPointImpl@VCOPOSMSR@@$1?DIID__IOPOSMSREvents@@3U_GUID@@BVCComDynamicUnkArray@ATL@@@ATL@@UEAAJPEAU_GUID@@@Z 0000000180004068 f i MSR.obj
 0001:00003084       ?GetConnectionPointContainer@?$IConnectionPointImpl@VCOPOSMSR@@$1?DIID__IOPOSMSREvents@@3U_GUID@@BVCComDynamicUnkArray@ATL@@@ATL@@UEAAJPEAPEAUIConnectionPointContainer@@@Z 0000000180004084 f i MSR.obj
 0001:000030a4       ?UpdateRegistry@COPOSMSR@@SAJH@Z 00000001800040a4 f i MSR.obj
 0001:000030bc       ?ProcessWindowMessage@COPOSMSR@@UEAAHPEAUHWND__@@I_K_JAEA_JK@Z 00000001800040bc f i MSR.obj
 0001:00003144       ?SOData@COPOSMSR@@MEAAJJ@Z 0000000180004144 f i MSR.obj
 0001:00003194       ?SODirectIO@COPOSMSR@@MEAAJJPEAJPEAPEA_W@Z 0000000180004194 f i MSR.obj
 0001:0000320c       ?SOError@COPOSMSR@@MEAAJJJJPEAJ@Z 000000018000420c f i MSR.obj
 0001:00003294       ?SOStatusUpdate@COPOSMSR@@MEAAJJ@Z 0000000180004294 f i MSR.obj
 0001:000032e4       ?AddReplacement@CRegObject@ATL@@UEAAJPEB_W0@Z 00000001800042e4 f i MSR.obj
 0001:00003314       ?ClearReplacements@CRegObject@ATL@@UEAAJXZ 0000000180004314 f i MSR.obj
 0001:00003320       ??_GCRegObject@ATL@@UEAAPEAXI@Z 0000000180004320 f i MSR.obj
 0001:00003320       ??_ECRegObject@ATL@@UEAAPEAXI@Z 0000000180004320 f i MSR.obj
 0001:000033a0       ?CreateInstance@?$CComCreator@V?$CComObjectCached@VCComClassFactory@ATL@@@ATL@@@ATL@@SAJPEAXAEBU_GUID@@PEAPEAX@Z 00000001800043a0 f i MSR.obj
 0001:000034a4       ?CreateInstance@?$CComCreator2@V?$CComCreator@V?$CComObject@VCOPOSMSR@@@ATL@@@ATL@@V?$CComCreator@V?$CComAggObject@VCOPOSMSR@@@ATL@@@2@@ATL@@SAJPEAXAEBU_GUID@@PEAPEAX@Z 00000001800044a4 f i MSR.obj
 0001:000034b4       ?Next@?$CComEnumImpl@UIEnumConnectionPoints@@$1?_GUID_b196b285_bab4_101a_b69c_00aa00341d07@@3U__s_GUID@@BPEAUIConnectionPoint@@V?$_CopyInterface@UIConnectionPoint@@@ATL@@@ATL@@UEAAJKPEAPEAUIConnectionPoint@@PEAK@Z 00000001800044b4 f i MSR.obj
 0001:00003580       ?Skip@?$CComEnumImpl@UIEnumConnectionPoints@@$1?_GUID_b196b285_bab4_101a_b69c_00aa00341d07@@3U__s_GUID@@BPEAUIConnectionPoint@@V?$_CopyInterface@UIConnectionPoint@@@ATL@@@ATL@@UEAAJK@Z 0000000180004580 f i MSR.obj
 0001:000035ac       ?Clone@?$CComEnumImpl@UIEnumConnectionPoints@@$1?_GUID_b196b285_bab4_101a_b69c_00aa00341d07@@3U__s_GUID@@BPEAUIConnectionPoint@@V?$_CopyInterface@UIConnectionPoint@@@ATL@@@ATL@@UEAAJPEAPEAUIEnumConnectionPoints@@@Z 00000001800045ac f i MSR.obj
 0001:000036d4       ?QueryInterface@?$CComObject@V?$CComEnum@UIEnumConnectionPoints@@$1?_GUID_b196b285_bab4_101a_b69c_00aa00341d07@@3U__s_GUID@@BPEAUIConnectionPoint@@V?$_CopyInterface@UIConnectionPoint@@@ATL@@VCComSingleThreadModel@6@@ATL@@@ATL@@UEAAJAEBU_GUID@@PEAPEAX@Z 00000001800046d4 f i MSR.obj
 0001:000036e8       ??_E?$CComObject@V?$CComEnum@UIEnumConnectionPoints@@$1?_GUID_b196b285_bab4_101a_b69c_00aa00341d07@@3U__s_GUID@@BPEAUIConnectionPoint@@V?$_CopyInterface@UIConnectionPoint@@@ATL@@VCComSingleThreadModel@6@@ATL@@@ATL@@UEAAPEAXI@Z 00000001800046e8 f i MSR.obj
 0001:000036e8       ??_G?$CComObject@V?$CComEnum@UIEnumConnectionPoints@@$1?_GUID_b196b285_bab4_101a_b69c_00aa00341d07@@3U__s_GUID@@BPEAUIConnectionPoint@@V?$_CopyInterface@UIConnectionPoint@@@ATL@@VCComSingleThreadModel@6@@ATL@@@ATL@@UEAAPEAXI@Z 00000001800046e8 f i MSR.obj
 0001:00003740       ??$AtlModuleRegisterWndClassInfoT@VAtlModuleRegisterWndClassInfoParamW@ATL@@@ATL@@YAGPEAU_ATL_BASE_MODULE70@0@PEAU_ATL_WIN_MODULE70@0@PEAU_ATL_WNDCLASSINFOW@0@PEAP6A_JPEAUHWND__@@I_K_J@ZVAtlModuleRegisterWndClassInfoParamW@0@@Z 0000000180004740 f i MSR.obj
 0001:00003940       ??0?$CComContainedObject@VCOPOSMSR@@@ATL@@QEAA@PEAX@Z 0000000180004940 f i MSR.obj
 0001:00003a5c       ??0?$CComObject@VCOPOSMSR@@@ATL@@QEAA@PEAX@Z 0000000180004a5c f i MSR.obj
 0001:00003b74       ??0CAtlModule@ATL@@QEAA@XZ 0000000180004b74 f i MSR.obj
 0001:00003bf4       ??1?$CComEnumImpl@UIEnumConnectionPoints@@$1?_GUID_b196b285_bab4_101a_b69c_00aa00341d07@@3U__s_GUID@@BPEAUIConnectionPoint@@V?$_CopyInterface@UIConnectionPoint@@@ATL@@@ATL@@UEAA@XZ 0000000180004bf4 f i MSR.obj
 0001:00003c50       ??1?$CComEnumImpl@UIEnumConnections@@$1?_GUID_b196b287_bab4_101a_b69c_00aa00341d07@@3U__s_GUID@@BUtagCONNECTDATA@@V?$_Copy@UtagCONNECTDATA@@@ATL@@@ATL@@UEAA@XZ 0000000180004c50 f i MSR.obj
 0001:00003cac       ??1?$CComObject@VCOPOSMSR@@@ATL@@UEAA@XZ 0000000180004cac f i MSR.obj
 0001:00003dcc       ??_E?$CComContainedObject@VCOPOSMSR@@@ATL@@UEAAPEAXI@Z 0000000180004dcc f i MSR.obj
 0001:00003dcc       ??_G?$CComContainedObject@VCOPOSMSR@@@ATL@@UEAAPEAXI@Z 0000000180004dcc f i MSR.obj
 0001:00003e00       ??_E?$CComObject@VCOPOSMSR@@@ATL@@UEAAPEAXI@Z 0000000180004e00 f i MSR.obj
 0001:00003e00       ??_G?$CComObject@VCOPOSMSR@@@ATL@@UEAAPEAXI@Z 0000000180004e00 f i MSR.obj
 0001:00003e34       ?Add@?$CSimpleArray@GV?$CSimpleArrayEqualHelper@G@ATL@@@ATL@@QEAAHAEBG@Z 0000000180004e34 f i MSR.obj
 0001:00003ee8       ?Add@?$CSimpleMap@PEA_WPEA_WVCExpansionVectorEqualHelper@ATL@@@ATL@@QEAAHAEBQEA_W0@Z 0000000180004ee8 f i MSR.obj
 0001:00003f88       ?Add@CComDynamicUnkArray@ATL@@QEAAKPEAUIUnknown@@@Z 0000000180004f88 f i MSR.obj
 0001:00004080       ?Add@CExpansionVector@ATL@@QEAAHPEB_W0@Z 0000000180005080 f i MSR.obj
 0001:00004210       ?AddValue@CRegParser@ATL@@IEAAJAEAVCRegKey@2@PEB_WPEA_W@Z 0000000180005210 f i MSR.obj
 0001:00004658       ?AllocateHeap@?$CTempBuffer@_W$0BAA@VCCRTAllocator@ATL@@@ATL@@AEAAX_K@Z 0000000180005658 f i MSR.obj
 0001:00004658       ?AllocateHeap@?$CTempBuffer@_W$0EAA@VCCRTAllocator@ATL@@@ATL@@AEAAX_K@Z 0000000180005658 f i MSR.obj
 0001:00004658       ?AllocateHeap@?$CTempBuffer@E$0BAA@VCCRTAllocator@ATL@@@ATL@@AEAAX_K@Z 0000000180005658 f i MSR.obj
 0001:00004684       ?Append@CParseBuffer@CRegParser@ATL@@QEAAHPEB_WH@Z 0000000180005684 f i MSR.obj
 0001:0000479c       ?AtlCallTermFunc@ATL@@YAXPEAU_ATL_MODULE70@1@@Z 000000018000579c f i MSR.obj
 0001:00004800       ?AtlComModuleGetClassObject@ATL@@YAJPEAU_ATL_COM_MODULE70@1@AEBU_GUID@@1PEAPEAX@Z 0000000180005800 f i MSR.obj
 0001:00004940       ?AtlComModuleRegisterServer@ATL@@YAJPEAU_ATL_COM_MODULE70@1@HPEBU_GUID@@@Z 0000000180005940 f i MSR.obj
 0001:00004a00       ?AtlComModuleUnregisterServer@ATL@@YAJPEAU_ATL_COM_MODULE70@1@HPEBU_GUID@@@Z 0000000180005a00 f i MSR.obj
 0001:00004abc       ?AtlCreateTargetDC@ATL@@YAPEAUHDC__@@PEAU2@PEAUtagDVTARGETDEVICE@@@Z 0000000180005abc f i MSR.obj
 0001:00004b30       ?AtlHiMetricToPixel@ATL@@YAXPEBUtagSIZE@@PEAU2@@Z 0000000180005b30 f i MSR.obj
 0001:00004be0       ?AtlHresultFromLastError@ATL@@YAJXZ 0000000180005be0 f i MSR.obj
 0001:00004c00       ?AtlHresultFromWin32@ATL@@YAJK@Z 0000000180005c00 f i MSR.obj
 0001:00004c10       ?AtlIPersistStreamInit_Load@ATL@@YAJPEAUIStream@@PEBUATL_PROPMAP_ENTRY@1@PEAXPEAUIUnknown@@@Z 0000000180005c10 f i MSR.obj
 0001:00004e48       ?AtlIPersistStreamInit_Save@ATL@@YAJPEAUIStream@@HPEBUATL_PROPMAP_ENTRY@1@PEAXPEAUIUnknown@@@Z 0000000180005e48 f i MSR.obj
 0001:00005084       ?AtlInternalOleLoadFromStream@ATL@@YAJPEAUIStream@@AEBU_GUID@@PEAPEAXTClassesAllowedInStream@1@K@Z 0000000180006084 f i MSR.obj
 0001:000051c8       ?AtlInternalQueryInterface@ATL@@YAJPEAXPEBU_ATL_INTMAP_ENTRY@1@AEBU_GUID@@PEAPEAX@Z 00000001800061c8 f i MSR.obj
 0001:000052d0       ?AtlLoadTypeLib@ATL@@YAJPEAUHINSTANCE__@@PEB_WPEAPEA_WPEAPEAUITypeLib@@@Z 00000001800062d0 f i MSR.obj
 0001:0000552c       ?AtlModuleAddTermFunc@ATL@@YAJPEAU_ATL_MODULE70@1@P6AX_K@Z1@Z 000000018000652c f i MSR.obj
 0001:000055c0       ?AtlRegisterClassCategoriesHelper@ATL@@YAJAEBU_GUID@@PEBU_ATL_CATMAP_ENTRY@1@H@Z 00000001800065c0 f i MSR.obj
 0001:00005a28       ?AtlRegisterTypeLib@ATL@@YAJPEAUHINSTANCE__@@PEB_W@Z 0000000180006a28 f i MSR.obj
 0001:00005c24       ?AtlThrowImpl@ATL@@YAXJ@Z  0000000180006c24 f i MSR.obj
 0001:00005c48       ?AtlUnRegisterTypeLib@ATL@@YAJPEAUHINSTANCE__@@PEB_W@Z 0000000180006c48 f i MSR.obj
 0001:00005d10       ?AtlWinModuleExtractCreateWndData@ATL@@YAPEAXPEAU_ATL_WIN_MODULE70@1@@Z 0000000180006d10 f i MSR.obj
 0001:00005d9c       ?Cleanup@CComTypeInfoHolder@ATL@@SAX_K@Z 0000000180006d9c f i MSR.obj
 0001:00005ddc       ?ClearReplacements@CExpansionVector@ATL@@QEAAJXZ 0000000180006ddc f i MSR.obj
 0001:00005e78       ?CreateInstance@?$CComCreator@V?$CComAggObject@VCOPOSMSR@@@ATL@@@ATL@@SAJPEAXAEBU_GUID@@PEAPEAX@Z 0000000180006e78 f i MSR.obj
 0001:00005f50       ?CreateInstance@?$CComCreator@V?$CComObject@VCOPOSMSR@@@ATL@@@ATL@@SAJPEAXAEBU_GUID@@PEAPEAX@Z 0000000180006f50 f i MSR.obj
 0001:00006008       ?CreateInstance@?$CComObject@V?$CComEnum@UIEnumConnectionPoints@@$1?_GUID_b196b285_bab4_101a_b69c_00aa00341d07@@3U__s_GUID@@BPEAUIConnectionPoint@@V?$_CopyInterface@UIConnectionPoint@@@ATL@@VCComSingleThreadModel@6@@ATL@@@ATL@@SAJPEAPEAV12@@Z 0000000180007008 f i MSR.obj
 0001:00006094       ?CreateInstance@?$CComObject@V?$CComEnum@UIEnumConnections@@$1?_GUID_b196b287_bab4_101a_b69c_00aa00341d07@@3U__s_GUID@@BUtagCONNECTDATA@@V?$_Copy@UtagCONNECTDATA@@@ATL@@VCComSingleThreadModel@6@@ATL@@@ATL@@SAJPEAPEAV12@@Z 0000000180007094 f i MSR.obj
 0001:00006120       ?DefaultReflectionHandler@?$CWindowImplRoot@VCWindow@ATL@@@ATL@@SAHPEAUHWND__@@I_K_JAEA_J@Z 0000000180007120 f i MSR.obj
 0001:00006184       ?DeleteSubKey@CRegKey@ATL@@QEAAJPEB_W@Z 0000000180007184 f i MSR.obj
 0001:0000621c       ?DoEvent@COPOSMSR@@IEAAXI_K_J@Z 000000018000721c f i MSR.obj
 0001:000062d0       ?DoVerbPrimary@?$IOleObjectImpl@VCOPOSMSR@@@ATL@@QEAAJPEBUtagRECT@@PEAUHWND__@@@Z 00000001800072d0 f i MSR.obj
 0001:000063f8       ?DoVerbProperties@CComControlBase@ATL@@QEAAJPEBUtagRECT@@PEAUHWND__@@@Z 00000001800073f8 f i MSR.obj
 0001:00006620       ?FireTheEvent@?$CProxy_IOPOSEvents@VCOPOSMSR@@@@IEAAXPEAVOposVariant@@IAEAJPEB_WJ@Z 0000000180007620 f i MSR.obj
 0001:0000670c       ?FireViewChange@CComControlBase@ATL@@QEAAJXZ 000000018000770c f i MSR.obj
 0001:00006770       ?Fire_DataEvent@?$CProxy_IOPOSEvents@VCOPOSMSR@@@@QEAAXJ@Z 0000000180007770 f i MSR.obj
 0001:0000685c       ?Fire_DirectIOEvent@?$CProxy_IOPOSEvents@VCOPOSMSR@@@@QEAAXJPEAJPEAPEA_W@Z 000000018000785c f i MSR.obj
 0001:000069b4       ?Fire_ErrorEvent@?$CProxy_IOPOSEvents@VCOPOSMSR@@@@QEAAXJJJPEAJ@Z 00000001800079b4 f i MSR.obj
 0001:00006b1c       ?Fire_StatusUpdateEvent@?$CProxy_IOPOSEvents@VCOPOSMSR@@@@QEAAXJ@Z 0000000180007b1c f i MSR.obj
 0001:00006c08       ?FreeHeap@?$CTempBuffer@_W$0BAA@VCCRTAllocator@ATL@@@ATL@@AEAAXXZ 0000000180007c08 f i MSR.obj
 0001:00006c08       ?FreeHeap@?$CTempBuffer@E$0BAA@VCCRTAllocator@ATL@@@ATL@@AEAAXXZ 0000000180007c08 f i MSR.obj
 0001:00006c08       ?FreeHeap@?$CTempBuffer@_W$0EAA@VCCRTAllocator@ATL@@@ATL@@AEAAXXZ 0000000180007c08 f i MSR.obj
 0001:00006c10       ?GetAmbientLocaleID@CComControlBase@ATL@@QEAAJAEAK@Z 0000000180007c10 f i MSR.obj
 0001:00006cd0       ?GetAmbientUserMode@CComControlBase@ATL@@QEAAJAEAH@Z 0000000180007cd0 f i MSR.obj
 0001:00006da4       ?GetClassObject@CComModule@ATL@@QEAAJAEBU_GUID@@0PEAPEAX@Z 0000000180007da4 f i MSR.obj
 0001:00006e98       ?GetConnMap@COPOSMSR@@SAPEBU_ATL_CONNMAP_ENTRY@ATL@@PEAH@Z 0000000180007e98 f i MSR.obj
 0001:00006f20       ?GetIDsOfNames@CComTypeInfoHolder@ATL@@QEAAJAEBU_GUID@@PEAPEA_WIKPEAJ@Z 0000000180007f20 f i MSR.obj
 0001:00007098       ?GetPagesHelper@?$ISpecifyPropertyPagesImpl@VCOPOSMSR@@@ATL@@IEAAJPEAUtagCAUUID@@PEBUATL_PROPMAP_ENTRY@2@@Z 0000000180008098 f i MSR.obj
 0001:00007238       ?GetSizeMax@CComVariant@ATL@@QEBAJPEAT_ULARGE_INTEGER@@@Z 0000000180008238 f i MSR.obj
 0001:0000746c       ?GetTI@CComTypeInfoHolder@ATL@@QEAAJK@Z 000000018000846c f i MSR.obj
 0001:000076e4       ?GetZoomInfo@CComControlBase@ATL@@QEAAXAEAUATL_DRAWINFO@@@Z 00000001800086e4 f i MSR.obj
 0001:00007788       ?HKeyFromString@CRegParser@ATL@@KAPEAUHKEY__@@PEA_W@Z 0000000180008788 f i MSR.obj
 0001:000077ec       ?IDataObject_GetData@CComControlBase@ATL@@QEAAJPEAUtagFORMATETC@@PEAUtagSTGMEDIUM@@@Z 00000001800087ec f i MSR.obj
 0001:000079e0       ?IOleInPlaceObject_InPlaceDeactivate@CComControlBase@ATL@@QEAAJXZ 00000001800089e0 f i MSR.obj
 0001:00007a80       ?IOleInPlaceObject_SetObjectRects@CComControlBase@ATL@@QEAAJPEBUtagRECT@@0@Z 0000000180008a80 f i MSR.obj
 0001:00007b70       ?IOleInPlaceObject_UIDeactivate@CComControlBase@ATL@@QEAAJXZ 0000000180008b70 f i MSR.obj
 0001:00007c7c       ?IOleObject_Close@CComControlBase@ATL@@QEAAJK@Z 0000000180008c7c f i MSR.obj
 0001:00007d94       ?IOleObject_SetClientSite@CComControlBase@ATL@@QEAAJPEAUIOleClientSite@@@Z 0000000180008d94 f i MSR.obj
 0001:00007e0c       ?IOleObject_SetExtent@CComControlBase@ATL@@QEAAJKPEAUtagSIZE@@@Z 0000000180008e0c f i MSR.obj
 0001:00007ea4       ?IPSI_GetIPersistStreamInit@?$IPersistStorageImpl@VCOPOSMSR@@@ATL@@AEAAPEAUIPersistStreamInit@@XZ 0000000180008ea4 f i MSR.obj
 0001:00007f00       ?IQuickActivate_QuickActivate@CComControlBase@ATL@@QEAAJPEAUtagQACONTAINER@@PEAUtagQACONTROL@@@Z 0000000180008f00 f i MSR.obj
 0001:000081c4       ?IViewObject_Draw@CComControlBase@ATL@@QEAAJKJPEAXPEAUtagDVTARGETDEVICE@@PEAUHDC__@@2PEBU_RECTL@@3@Z 00000001800091c4 f i MSR.obj
 0001:000082d8       ?InPlaceActivate@CComControlBase@ATL@@QEAAJJPEBUtagRECT@@@Z 00000001800092d8 f i MSR.obj
 0001:00008610       ?Init@?$CComEnumImpl@UIEnumConnectionPoints@@$1?_GUID_b196b285_bab4_101a_b69c_00aa00341d07@@3U__s_GUID@@BPEAUIConnectionPoint@@V?$_CopyInterface@UIConnectionPoint@@@ATL@@@ATL@@QEAAJPEAPEAUIConnectionPoint@@0PEAUIUnknown@@W4CComEnumFlags@2@@Z 0000000180009610 f i MSR.obj
 0001:00008730       ?Init@?$CComEnumImpl@UIEnumConnections@@$1?_GUID_b196b287_bab4_101a_b69c_00aa00341d07@@3U__s_GUID@@BUtagCONNECTDATA@@V?$_Copy@UtagCONNECTDATA@@@ATL@@@ATL@@QEAAJPEAUtagCONNECTDATA@@0PEAUIUnknown@@W4CComEnumFlags@2@@Z 0000000180009730 f i MSR.obj
 0001:00008854       ?IsEqualObject@?$CComPtrBase@UIOleClientSite@@@ATL@@QEAA_NPEAUIUnknown@@@Z 0000000180009854 f i MSR.obj
 0001:00008854       ?IsEqualObject@?$CComPtrBase@UITypeInfo@@@ATL@@QEAA_NPEAUIUnknown@@@Z 0000000180009854 f i MSR.obj
 0001:000088e0       ?LoadNameCache@CComTypeInfoHolder@ATL@@QEAAJPEAUITypeInfo@@@Z 00000001800098e0 f i MSR.obj
 0001:00008a64       ?Lookup@?$CSimpleMap@PEA_WPEA_WVCExpansionVectorEqualHelper@ATL@@@ATL@@QEBAPEA_WAEBQEA_W@Z 0000000180009a64 f i MSR.obj
 0001:00008af0       ?NextToken@CRegParser@ATL@@IEAAJPEA_W@Z 0000000180009af0 f i MSR.obj
 0001:00008ca8       ?OnKillFocus@CComControlBase@ATL@@QEAA_JI_K_JAEAH@Z 0000000180009ca8 f i MSR.obj
 0001:00008d44       ?OnMouseActivate@CComControlBase@ATL@@QEAA_JI_K_JAEAH@Z 0000000180009d44 f i MSR.obj
 0001:00008de4       ?OnPaint@CComControlBase@ATL@@QEAA_JI_K_JAEAH@Z 0000000180009de4 f i MSR.obj
 0001:00008ed0       ?OnSetFocus@CComControlBase@ATL@@QEAA_JI_K_JAEAH@Z 0000000180009ed0 f i MSR.obj
 0001:00008fcc       ?Open@CRegKey@ATL@@QEAAJPEAUHKEY__@@PEB_WK@Z 0000000180009fcc f i MSR.obj
 0001:00009058       ?PreProcessBuffer@CRegParser@ATL@@QEAAJPEA_WPEAPEA_W@Z 000000018000a058 f i MSR.obj
 0001:000093dc       ?ProcessWindowMessage@?$CComControl@VCOPOSMSR@@V?$CWindowImpl@VCOPOSMSR@@VCWindow@ATL@@V?$CWinTraits@$0FGAAAAAA@$0A@@3@@ATL@@@ATL@@UEAAHPEAUHWND__@@I_K_JAEA_JK@Z 000000018000a3dc f i MSR.obj
 0001:000094c0       ?PutProperty@?$CComPtr@UIDispatch@@@ATL@@SAJPEAUIDispatch@@JPEAUtagVARIANT@@@Z 000000018000a4c0 f i MSR.obj
 0001:000095c4       ?ReadFromStream@CComBSTR@ATL@@QEAAJPEAUIStream@@@Z 000000018000a5c4 f i MSR.obj
 0001:00009720       ?ReadFromStream@CComVariant@ATL@@QEAAJPEAUIStream@@GTClassesAllowedInStream@2@K@Z 000000018000a720 f i MSR.obj
 0001:00009930       ?RecurseDeleteKey@CRegKey@ATL@@QEAAJPEB_W@Z 000000018000a930 f i MSR.obj
 0001:00009a3c       ?RegCreateKeyExW@CAtlTransactionManager@ATL@@QEAAJPEAUHKEY__@@PEB_WKPEA_WKKQEAU_SECURITY_ATTRIBUTES@@PEAPEAU3@PEAK@Z 000000018000aa3c f i MSR.obj
 0001:00009b70       ?RegDeleteKeyW@CAtlTransactionManager@ATL@@QEAAJPEAUHKEY__@@PEB_W@Z 000000018000ab70 f i MSR.obj
 0001:00009bfc       ?RegOpenKeyExW@CAtlTransactionManager@ATL@@QEAAJPEAUHKEY__@@PEB_WKKPEAPEAU3@@Z 000000018000abfc f i MSR.obj
 0001:00009cb4       ?RegisterBuffer@CRegParser@ATL@@QEAAJPEA_WH@Z 000000018000acb4 f i MSR.obj
 0001:00009e1c       ?RegisterFromResource@CRegObject@ATL@@IEAAJPEB_W00H@Z 000000018000ae1c f i MSR.obj
 0001:00009fd8       ?RegisterServer@CComModule@ATL@@QEAAJHPEBU_GUID@@@Z 000000018000afd8 f i MSR.obj
 0001:0000a098       ?RegisterSubkeys@CRegParser@ATL@@IEAAJPEA_WPEAUHKEY__@@HH@Z 000000018000b098 f i MSR.obj
 0001:0000a794       ?SendOnDataChange@CComControlBase@ATL@@QEAAJK@Z 000000018000b794 f i MSR.obj
 0001:0000a804       ?SetControlFocus@CComControlBase@ATL@@QEAAHH@Z 000000018000b804 f i MSR.obj
 0001:0000a8e0       ?SkipAssignment@CRegParser@ATL@@IEAAJPEA_W@Z 000000018000b8e0 f i MSR.obj
 0001:0000a984       ?Term@CComModule@ATL@@QEAAXXZ 000000018000b984 f i MSR.obj
 0001:0000aa30       ?UnregisterServer@CComModule@ATL@@QEAAJHPEBU_GUID@@@Z 000000018000ba30 f i MSR.obj
 0001:0000aae0       ?UpdateRegistryFromResource@CAtlModule@ATL@@QEAAJIHPEAU_ATL_REGMAP_ENTRY@2@@Z 000000018000bae0 f i MSR.obj
 0001:0000ae18       ?UpdateRegistryFromResource@CAtlModule@ATL@@QEAAJPEB_WHPEAU_ATL_REGMAP_ENTRY@2@@Z 000000018000be18 f i MSR.obj
 0001:0000b170       ?VTFromRegType@CRegParser@ATL@@KAHPEB_WAEAG@Z 000000018000c170 f i MSR.obj
 0001:0000b20c       ?WindowProc@?$CWindowImplBaseT@VCWindow@ATL@@V?$CWinTraits@$0FGAAAAAA@$0A@@2@@ATL@@SA_JPEAUHWND__@@I_K_J@Z 000000018000c20c f i MSR.obj
 0001:0000b378       ?WriteToStream@CComBSTR@ATL@@QEAAJPEAUIStream@@@Z 000000018000c378 f i MSR.obj
 0001:0000b3f8       ?WriteToStream@CComVariant@ATL@@QEAAJPEAUIStream@@@Z 000000018000c3f8 f i MSR.obj
 0001:0000b60c       ?WriteToStream@CComVariant@ATL@@QEAAJPEAUIStream@@G@Z 000000018000c60c f i MSR.obj
 0001:0000b6a4       ?_AtlVerifyStackAvailable@_ATL_SAFE_ALLOCA_IMPL@ATL@@YA_N_K@Z 000000018000c6a4 f i MSR.obj
 0001:0000b728       ?atlCreate@?$CWindowImpl@VCOPOSMSR@@VCWindow@ATL@@V?$CWinTraits@$0FGAAAAAA@$0A@@3@@ATL@@QEAAPEAUHWND__@@PEAU3@V_U_RECT@2@PEB_WKKV_U_MENUorID@2@PEAX@Z 000000018000c728 f i MSR.obj
 0001:0000b7d8       ?atlCreate@?$CWindowImplBaseT@VCWindow@ATL@@V?$CWinTraits@$0FGAAAAAA@$0A@@2@@ATL@@QEAAPEAUHWND__@@PEAU3@V_U_RECT@2@PEB_WKKV_U_MENUorID@2@GPEAX@Z 000000018000c7d8 f i MSR.obj
 0001:0000b948       ?atlCreate@CRegKey@ATL@@QEAAJPEAUHKEY__@@PEB_WPEA_WKKPEAU_SECURITY_ATTRIBUTES@@PEAK@Z 000000018000c948 f i MSR.obj
 0001:0000ba34       DllCanUnloadNow            000000018000ca34 f   MSR.obj
 0001:0000ba40       DllGetClassObject          000000018000ca40 f   MSR.obj
 0001:0000ba58       DllMain                    000000018000ca58 f   MSR.obj
 0001:0000bb00       DllRegisterServer          000000018000cb00 f   MSR.obj
 0001:0000bb14       DllUnregisterServer        000000018000cb14 f   MSR.obj
 0001:0000bb28       __local_stdio_printf_options 000000018000cb28 f i MSR.obj
 0001:0000bbb8       swprintf_s                 000000018000cbb8 f i MSR.obj
 0001:0000bc0c       ??0COPOSMSR@@QEAA@XZ       000000018000cc0c f   MSRImpl.obj
 0001:0000bcd4       ??1?$IConnectionPointImpl@VCOPOSMSR@@$1?DIID__IOPOSMSREvents@@3U_GUID@@BVCComDynamicUnkArray@ATL@@@ATL@@QEAA@XZ 000000018000ccd4 f i MSRImpl.obj
 0001:0000bcd4       ??1?$IConnectionPointImpl@VCOPOSMSR@@$1?IID_IPropertyNotifySink@@3U_GUID@@BVCComDynamicUnkArray@ATL@@@ATL@@QEAA@XZ 000000018000ccd4 f i MSRImpl.obj
 0001:0000bd30       ??1CComControlBase@ATL@@UEAA@XZ 000000018000cd30 f i MSRImpl.obj
 0001:0000bdac       ??1COPOSMSR@@UEAA@XZ       000000018000cdac f   MSRImpl.obj
 0001:0000be10       ?AuthenticateDevice@COPOSMSR@@UEAAJPEA_WPEAJ@Z 000000018000ce10 f   MSRImpl.obj
 0001:0000be98       ?CheckHealth@COPOSMSR@@UEAAJJPEAJ@Z 000000018000ce98 f   MSRImpl.obj
 0001:0000bf14       ?ClaimDevice@COPOSMSR@@UEAAJJPEAJ@Z 000000018000cf14 f   MSRImpl.obj
 0001:0000bfb4       ?ClearInput@COPOSMSR@@UEAAJPEAJ@Z 000000018000cfb4 f   MSRImpl.obj
 0001:0000bfdc       ?ClearInputProperties@COPOSMSR@@UEAAJPEAJ@Z 000000018000cfdc f   MSRImpl.obj
 0001:0000c004       ?Close@COPOSMSR@@UEAAJPEAJ@Z 000000018000d004 f   MSRImpl.obj
 0001:0000c0bc       ?CompareFirmwareVersion@COPOSMSR@@UEAAJPEA_WPEAJ1@Z 000000018000d0bc f   MSRImpl.obj
 0001:0000c198       ?DeauthenticateDevice@COPOSMSR@@UEAAJPEA_WPEAJ@Z 000000018000d198 f   MSRImpl.obj
 0001:0000c220       ?DirectIO@COPOSMSR@@UEAAJJPEAJPEAPEA_W0@Z 000000018000d220 f   MSRImpl.obj
 0001:0000c31c       ?DoInvoke@COPOSMSR@@IEAAJJPEAVOposVariant@@IHPEAJ_N@Z 000000018000d31c f   MSRImpl.obj
 0001:0000c450       ?EventInit@COPOSMSR@@IEAAJXZ 000000018000d450 f i MSRImpl.obj
 0001:0000c598       ?EventUninit@COPOSMSR@@IEAAXXZ 000000018000d598 f i MSRImpl.obj
 0001:0000c5fc       ?EventWindowProc@COPOSMSR@@IEAA_JI_K_J@Z 000000018000d5fc f i MSRImpl.obj
 0001:0000c788       ?FinalConstruct@COPOSMSR@@QEAAJXZ 000000018000d788 f   MSRImpl.obj
 0001:0000c7c4       ?FreezeEvents@COPOSMSR@@MEAAJH@Z 000000018000d7c4 f   MSRImpl.obj
 0001:0000c838       ?GetOposProp@COPOSMSR@@IEAAJJPEAJJ@Z 000000018000d838 f   MSRImpl.obj
 0001:0000c954       ?GetOposProp@COPOSMSR@@IEAAJJPEAPEA_WJ@Z 000000018000d954 f   MSRImpl.obj
 0001:0000ca80       ?OnDraw@COPOSMSR@@MEAAJAEAUATL_DRAWINFO@@@Z 000000018000da80 f   MSRImpl.obj
 0001:0000cb6c       ?Open@COPOSMSR@@UEAAJPEA_WPEAJ@Z 000000018000db6c f   MSRImpl.obj
 0001:0000d3f4       ?ReleaseDevice@COPOSMSR@@UEAAJPEAJ@Z 000000018000e3f4 f   MSRImpl.obj
 0001:0000d460       ?ResetStatistics@COPOSMSR@@UEAAJPEA_WPEAJ@Z 000000018000e460 f   MSRImpl.obj
 0001:0000d4e8       ?RetrieveCardProperty@COPOSMSR@@UEAAJPEA_WPEAPEA_WPEAJ@Z 000000018000e4e8 f   MSRImpl.obj
 0001:0000d5c4       ?RetrieveDeviceAuthenticationData@COPOSMSR@@UEAAJPEAPEA_WPEAJ@Z 000000018000e5c4 f   MSRImpl.obj
 0001:0000d64c       ?RetrieveStatistics@COPOSMSR@@UEAAJPEAPEA_WPEAJ@Z 000000018000e64c f   MSRImpl.obj
 0001:0000d6d4       ?SOProcessID@COPOSMSR@@UEAAJPEAJ@Z 000000018000e6d4 f   MSRImpl.obj
 0001:0000d6f0       ?SetCOFreezeEvents@COPOSMSR@@IEAAXF@Z 000000018000e6f0 f   MSRImpl.obj
 0001:0000d7d4       ?SetOposProp@COPOSMSR@@IEAAJJJJ@Z 000000018000e7d4 f   MSRImpl.obj
 0001:0000d934       ?SetOposProp@COPOSMSR@@IEAAJJPEA_WJ@Z 000000018000e934 f   MSRImpl.obj
 0001:0000da8c       ?UpdateFirmware@COPOSMSR@@UEAAJPEA_WPEAJ@Z 000000018000ea8c f   MSRImpl.obj
 0001:0000db14       ?UpdateKey@COPOSMSR@@UEAAJPEA_W0PEAJ@Z 000000018000eb14 f   MSRImpl.obj
 0001:0000dbf0       ?UpdateStatistics@COPOSMSR@@UEAAJPEA_WPEAJ@Z 000000018000ebf0 f   MSRImpl.obj
 0001:0000dc78       ?WriteTracks@COPOSMSR@@UEAAJUtagVARIANT@@JPEAJ@Z 000000018000ec78 f   MSRImpl.obj
 0001:0000dd54       ?get_AccountNumber@COPOSMSR@@UEAAJPEAPEA_W@Z 000000018000ed54 f   MSRImpl.obj
 0001:0000dd64       ?get_AdditionalSecurityInformation@COPOSMSR@@UEAAJPEAPEA_W@Z 000000018000ed64 f   MSRImpl.obj
 0001:0000dd78       ?get_AutoDisable@COPOSMSR@@UEAAJPEAF@Z 000000018000ed78 f   MSRImpl.obj
 0001:0000ddac       ?get_BinaryConversion@COPOSMSR@@UEAAJPEAJ@Z 000000018000edac f   MSRImpl.obj
 0001:0000ddc0       ?get_CapCardAuthentication@COPOSMSR@@UEAAJPEAPEA_W@Z 000000018000edc0 f   MSRImpl.obj
 0001:0000ddd4       ?get_CapCompareFirmwareVersion@COPOSMSR@@UEAAJPEAF@Z 000000018000edd4 f   MSRImpl.obj
 0001:0000de08       ?get_CapDataEncryption@COPOSMSR@@UEAAJPEAJ@Z 000000018000ee08 f   MSRImpl.obj
 0001:0000de1c       ?get_CapDeviceAuthentication@COPOSMSR@@UEAAJPEAJ@Z 000000018000ee1c f   MSRImpl.obj
 0001:0000de30       ?get_CapISO@COPOSMSR@@UEAAJPEAF@Z 000000018000ee30 f   MSRImpl.obj
 0001:0000de60       ?get_CapJISOne@COPOSMSR@@UEAAJPEAF@Z 000000018000ee60 f   MSRImpl.obj
 0001:0000de90       ?get_CapJISTwo@COPOSMSR@@UEAAJPEAF@Z 000000018000ee90 f   MSRImpl.obj
 0001:0000dec0       ?get_CapPowerReporting@COPOSMSR@@UEAAJPEAJ@Z 000000018000eec0 f   MSRImpl.obj
 0001:0000ded4       ?get_CapStatisticsReporting@COPOSMSR@@UEAAJPEAF@Z 000000018000eed4 f   MSRImpl.obj
 0001:0000df08       ?get_CapTrackDataMasking@COPOSMSR@@UEAAJPEAF@Z 000000018000ef08 f   MSRImpl.obj
 0001:0000df3c       ?get_CapTransmitSentinels@COPOSMSR@@UEAAJPEAF@Z 000000018000ef3c f   MSRImpl.obj
 0001:0000df70       ?get_CapUpdateFirmware@COPOSMSR@@UEAAJPEAF@Z 000000018000ef70 f   MSRImpl.obj
 0001:0000dfa4       ?get_CapUpdateStatistics@COPOSMSR@@UEAAJPEAF@Z 000000018000efa4 f   MSRImpl.obj
 0001:0000dfd8       ?get_CapWritableTracks@COPOSMSR@@UEAAJPEAJ@Z 000000018000efd8 f   MSRImpl.obj
 0001:0000dfec       ?get_CardAuthenticationData@COPOSMSR@@UEAAJPEAPEA_W@Z 000000018000efec f   MSRImpl.obj
 0001:0000e000       ?get_CardAuthenticationDataLength@COPOSMSR@@UEAAJPEAJ@Z 000000018000f000 f   MSRImpl.obj
 0001:0000e014       ?get_CardPropertyList@COPOSMSR@@UEAAJPEAPEA_W@Z 000000018000f014 f   MSRImpl.obj
 0001:0000e028       ?get_CardType@COPOSMSR@@UEAAJPEAPEA_W@Z 000000018000f028 f   MSRImpl.obj
 0001:0000e03c       ?get_CardTypeList@COPOSMSR@@UEAAJPEAPEA_W@Z 000000018000f03c f   MSRImpl.obj
 0001:0000e050       ?get_CheckHealthText@COPOSMSR@@UEAAJPEAPEA_W@Z 000000018000f050 f   MSRImpl.obj
 0001:0000e060       ?get_Claimed@COPOSMSR@@UEAAJPEAF@Z 000000018000f060 f   MSRImpl.obj
 0001:0000e090       ?get_ControlObjectDescription@COPOSMSR@@UEAAJPEAPEA_W@Z 000000018000f090 f   MSRImpl.obj
 0001:0000e0f4       ?get_ControlObjectVersion@COPOSMSR@@UEAAJPEAJ@Z 000000018000f0f4 f   MSRImpl.obj
 0001:0000e100       ?get_DataCount@COPOSMSR@@UEAAJPEAJ@Z 000000018000f100 f   MSRImpl.obj
 0001:0000e114       ?get_DataEncryptionAlgorithm@COPOSMSR@@UEAAJPEAJ@Z 000000018000f114 f   MSRImpl.obj
 0001:0000e128       ?get_DataEventEnabled@COPOSMSR@@UEAAJPEAF@Z 000000018000f128 f   MSRImpl.obj
 0001:0000e158       ?get_DecodeData@COPOSMSR@@UEAAJPEAF@Z 000000018000f158 f   MSRImpl.obj
 0001:0000e188       ?get_DeviceAuthenticated@COPOSMSR@@UEAAJPEAF@Z 000000018000f188 f   MSRImpl.obj
 0001:0000e1bc       ?get_DeviceAuthenticationProtocol@COPOSMSR@@UEAAJPEAJ@Z 000000018000f1bc f   MSRImpl.obj
 0001:0000e1d0       ?get_DeviceDescription@COPOSMSR@@UEAAJPEAPEA_W@Z 000000018000f1d0 f   MSRImpl.obj
 0001:0000e1e0       ?get_DeviceEnabled@COPOSMSR@@UEAAJPEAF@Z 000000018000f1e0 f   MSRImpl.obj
 0001:0000e210       ?get_DeviceName@COPOSMSR@@UEAAJPEAPEA_W@Z 000000018000f210 f   MSRImpl.obj
 0001:0000e220       ?get_EncodingMaxLength@COPOSMSR@@UEAAJPEAJ@Z 000000018000f220 f   MSRImpl.obj
 0001:0000e234       ?get_ErrorReportingType@COPOSMSR@@UEAAJPEAJ@Z 000000018000f234 f   MSRImpl.obj
 0001:0000e248       ?get_ExpirationDate@COPOSMSR@@UEAAJPEAPEA_W@Z 000000018000f248 f   MSRImpl.obj
 0001:0000e258       ?get_FirstName@COPOSMSR@@UEAAJPEAPEA_W@Z 000000018000f258 f   MSRImpl.obj
 0001:0000e268       ?get_FreezeEvents@COPOSMSR@@UEAAJPEAF@Z 000000018000f268 f   MSRImpl.obj
 0001:0000e298       ?get_MiddleInitial@COPOSMSR@@UEAAJPEAPEA_W@Z 000000018000f298 f   MSRImpl.obj
 0001:0000e2a8       ?get_OpenResult@COPOSMSR@@UEAAJPEAJ@Z 000000018000f2a8 f   MSRImpl.obj
 0001:0000e2b4       ?get_ParseDecodeData@COPOSMSR@@UEAAJPEAF@Z 000000018000f2b4 f   MSRImpl.obj
 0001:0000e2b4       ?get_ParseDecodedData@COPOSMSR@@UEAAJPEAF@Z 000000018000f2b4 f   MSRImpl.obj
 0001:0000e2e4       ?get_PowerNotify@COPOSMSR@@UEAAJPEAJ@Z 000000018000f2e4 f   MSRImpl.obj
 0001:0000e2f8       ?get_PowerState@COPOSMSR@@UEAAJPEAJ@Z 000000018000f2f8 f   MSRImpl.obj
 0001:0000e30c       ?get_ResultCode@COPOSMSR@@UEAAJPEAJ@Z 000000018000f30c f   MSRImpl.obj
 0001:0000e348       ?get_ResultCodeExtended@COPOSMSR@@UEAAJPEAJ@Z 000000018000f348 f   MSRImpl.obj
 0001:0000e358       ?get_ServiceCode@COPOSMSR@@UEAAJPEAPEA_W@Z 000000018000f358 f   MSRImpl.obj
 0001:0000e368       ?get_ServiceObjectDescription@COPOSMSR@@UEAAJPEAPEA_W@Z 000000018000f368 f   MSRImpl.obj
 0001:0000e378       ?get_ServiceObjectVersion@COPOSMSR@@UEAAJPEAJ@Z 000000018000f378 f   MSRImpl.obj
 0001:0000e388       ?get_State@COPOSMSR@@UEAAJPEAJ@Z 000000018000f388 f   MSRImpl.obj
 0001:0000e3b4       ?get_Suffix@COPOSMSR@@UEAAJPEAPEA_W@Z 000000018000f3b4 f   MSRImpl.obj
 0001:0000e3c4       ?get_Surname@COPOSMSR@@UEAAJPEAPEA_W@Z 000000018000f3c4 f   MSRImpl.obj
 0001:0000e3d4       ?get_Title@COPOSMSR@@UEAAJPEAPEA_W@Z 000000018000f3d4 f   MSRImpl.obj
 0001:0000e3e4       ?get_Track1Data@COPOSMSR@@UEAAJPEAPEA_W@Z 000000018000f3e4 f   MSRImpl.obj
 0001:0000e3f4       ?get_Track1DiscretionaryData@COPOSMSR@@UEAAJPEAPEA_W@Z 000000018000f3f4 f   MSRImpl.obj
 0001:0000e404       ?get_Track1EncryptedData@COPOSMSR@@UEAAJPEAPEA_W@Z 000000018000f404 f   MSRImpl.obj
 0001:0000e418       ?get_Track1EncryptedDataLength@COPOSMSR@@UEAAJPEAJ@Z 000000018000f418 f   MSRImpl.obj
 0001:0000e42c       ?get_Track2Data@COPOSMSR@@UEAAJPEAPEA_W@Z 000000018000f42c f   MSRImpl.obj
 0001:0000e43c       ?get_Track2DiscretionaryData@COPOSMSR@@UEAAJPEAPEA_W@Z 000000018000f43c f   MSRImpl.obj
 0001:0000e44c       ?get_Track2EncryptedData@COPOSMSR@@UEAAJPEAPEA_W@Z 000000018000f44c f   MSRImpl.obj
 0001:0000e460       ?get_Track2EncryptedDataLength@COPOSMSR@@UEAAJPEAJ@Z 000000018000f460 f   MSRImpl.obj
 0001:0000e474       ?get_Track3Data@COPOSMSR@@UEAAJPEAPEA_W@Z 000000018000f474 f   MSRImpl.obj
 0001:0000e484       ?get_Track3EncryptedData@COPOSMSR@@UEAAJPEAPEA_W@Z 000000018000f484 f   MSRImpl.obj
 0001:0000e498       ?get_Track3EncryptedDataLength@COPOSMSR@@UEAAJPEAJ@Z 000000018000f498 f   MSRImpl.obj
 0001:0000e4ac       ?get_Track4Data@COPOSMSR@@UEAAJPEAPEA_W@Z 000000018000f4ac f   MSRImpl.obj
 0001:0000e4c0       ?get_Track4EncryptedData@COPOSMSR@@UEAAJPEAPEA_W@Z 000000018000f4c0 f   MSRImpl.obj
 0001:0000e4d4       ?get_Track4EncryptedDataLength@COPOSMSR@@UEAAJPEAJ@Z 000000018000f4d4 f   MSRImpl.obj
 0001:0000e4e8       ?get_TracksToRead@COPOSMSR@@UEAAJPEAJ@Z 000000018000f4e8 f   MSRImpl.obj
 0001:0000e4f8       ?get_TracksToWrite@COPOSMSR@@UEAAJPEAJ@Z 000000018000f4f8 f   MSRImpl.obj
 0001:0000e50c       ?get_TransmitSentinels@COPOSMSR@@UEAAJPEAF@Z 000000018000f50c f   MSRImpl.obj
 0001:0000e540       ?get_WriteCardType@COPOSMSR@@UEAAJPEAPEA_W@Z 000000018000f540 f   MSRImpl.obj
 0001:0000e554       ?put_AutoDisable@COPOSMSR@@UEAAJF@Z 000000018000f554 f   MSRImpl.obj
 0001:0000e56c       ?put_BinaryConversion@COPOSMSR@@UEAAJJ@Z 000000018000f56c f   MSRImpl.obj
 0001:0000e580       ?put_DataEncryptionAlgorithm@COPOSMSR@@UEAAJJ@Z 000000018000f580 f   MSRImpl.obj
 0001:0000e594       ?put_DataEventEnabled@COPOSMSR@@UEAAJF@Z 000000018000f594 f   MSRImpl.obj
 0001:0000e5ac       ?put_DecodeData@COPOSMSR@@UEAAJF@Z 000000018000f5ac f   MSRImpl.obj
 0001:0000e5c4       ?put_DeviceEnabled@COPOSMSR@@UEAAJF@Z 000000018000f5c4 f   MSRImpl.obj
 0001:0000e5dc       ?put_ErrorReportingType@COPOSMSR@@UEAAJJ@Z 000000018000f5dc f   MSRImpl.obj
 0001:0000e5f0       ?put_FreezeEvents@COPOSMSR@@UEAAJF@Z 000000018000f5f0 f   MSRImpl.obj
 0001:0000e640       ?put_ParseDecodeData@COPOSMSR@@UEAAJF@Z 000000018000f640 f   MSRImpl.obj
 0001:0000e640       ?put_ParseDecodedData@COPOSMSR@@UEAAJF@Z 000000018000f640 f   MSRImpl.obj
 0001:0000e658       ?put_PowerNotify@COPOSMSR@@UEAAJJ@Z 000000018000f658 f   MSRImpl.obj
 0001:0000e66c       ?put_TracksToRead@COPOSMSR@@UEAAJJ@Z 000000018000f66c f   MSRImpl.obj
 0001:0000e67c       ?put_TracksToWrite@COPOSMSR@@UEAAJJ@Z 000000018000f67c f   MSRImpl.obj
 0001:0000e690       ?put_TransmitSentinels@COPOSMSR@@UEAAJF@Z 000000018000f690 f   MSRImpl.obj
 0001:0000e6ac       ?put_WriteCardType@COPOSMSR@@UEAAJPEA_W@Z 000000018000f6ac f   MSRImpl.obj
 0001:0000e6c0       ?s_EventWindowProc@COPOSMSR@@KA_JPEAUHWND__@@I_K_J@Z 000000018000f6c0 f i MSRImpl.obj
 0001:0000e73c       ??_U@YAPEAX_K@Z            000000018000f73c f   LIBCMT:new_array.obj
 0001:0000e744       ??_V@YAXPEAX@Z             000000018000f744 f   LIBCMT:delete_array.obj
 0001:0000e744       ??3@YAXPEAX_K@Z            000000018000f744 f   LIBCMT:delete_scalar_size.obj
 0001:0000e74c       ??_V@YAXPEAX_K@Z           000000018000f74c f   LIBCMT:delete_array_size.obj
 0001:0000e754       __scrt_acquire_startup_lock 000000018000f754 f   LIBCMT:utility.obj
 0001:0000e790       __scrt_dllmain_after_initialize_c 000000018000f790 f   LIBCMT:utility.obj
 0001:0000e7c4       __scrt_dllmain_before_initialize_c 000000018000f7c4 f   LIBCMT:utility.obj
 0001:0000e7dc       __scrt_dllmain_crt_thread_attach 000000018000f7dc f   LIBCMT:utility.obj
 0001:0000e804       __scrt_dllmain_crt_thread_detach 000000018000f804 f   LIBCMT:utility.obj
 0001:0000e81c       __scrt_dllmain_exception_filter 000000018000f81c f   LIBCMT:utility.obj
 0001:0000e87c       __scrt_dllmain_uninitialize_c 000000018000f87c f   LIBCMT:utility.obj
 0001:0000e8ac       __scrt_dllmain_uninitialize_critical 000000018000f8ac f   LIBCMT:utility.obj
 0001:0000e8c0       __scrt_initialize_crt      000000018000f8c0 f   LIBCMT:utility.obj
 0001:0000e90c       __scrt_initialize_onexit_tables 000000018000f90c f   LIBCMT:utility.obj
 0001:0000e9e4       __scrt_is_nonwritable_in_current_image 000000018000f9e4 f   LIBCMT:utility.obj
 0001:0000ea80       __scrt_release_startup_lock 000000018000fa80 f   LIBCMT:utility.obj
 0001:0000eaa4       __scrt_uninitialize_crt    000000018000faa4 f   LIBCMT:utility.obj
 0001:0000ead0       _onexit                    000000018000fad0 f   LIBCMT:utility.obj
 0001:0000eb20       atexit                     000000018000fb20 f   LIBCMT:utility.obj
 0001:0000eb38       ??3@YAXPEAX@Z              000000018000fb38 f   LIBCMT:delete_scalar.obj
 0001:0000ecc8       _Init_thread_footer        000000018000fcc8 f   LIBCMT:thread_safe_statics.obj
 0001:0000ed28       _Init_thread_header        000000018000fd28 f   LIBCMT:thread_safe_statics.obj
 0001:0000ed90       _Init_thread_notify        000000018000fd90 f   LIBCMT:thread_safe_statics.obj
 0001:0000ede0       _Init_thread_wait          000000018000fde0 f   LIBCMT:thread_safe_statics.obj
 0001:0000ee58       __raise_securityfailure    000000018000fe58 f   LIBCMT:gs_report.obj
 0001:0000ee8c       __report_gsfailure         000000018000fe8c f   LIBCMT:gs_report.obj
 0001:0000ef60       __report_rangecheckfailure 000000018000ff60 f   LIBCMT:gs_report.obj
 0001:0000ef74       __report_securityfailure   000000018000ff74 f   LIBCMT:gs_report.obj
 0001:0000f0f4       ??2@YAPEAX_KAEBUnothrow_t@std@@@Z 00000001800100f4 f   LIBCMT:new_scalar_nothrow.obj
 0001:0000f114       ??_U@YAPEAX_KAEBUnothrow_t@std@@@Z 0000000180010114 f   LIBCMT:new_array_nothrow.obj
 0001:0000f11c       __GSHandlerCheck           000000018001011c f   LIBCMT:gshandler.obj
 0001:0000f13c       __GSHandlerCheckCommon     000000018001013c f   LIBCMT:gshandler.obj
 0001:0000f198       __GSHandlerCheck_SEH       0000000180010198 f   LIBCMT:gshandlerseh.obj
 0001:0000f230       __chkstk                   0000000180010230 f   LIBCMT:chkstk.obj
 0001:0000f230       _alloca_probe              0000000180010230 f   LIBCMT:chkstk.obj
 0001:0000f2a0       __security_check_cookie    00000001800102a0 f   LIBCMT:amdsecgs.obj
 0001:0000f5f4       _DllMainCRTStartup         00000001800105f4 f   LIBCMT:dll_dllmain.obj
 0001:0000f634       ??2@YAPEAX_K@Z             0000000180010634 f   LIBCMT:new_scalar.obj
 0001:0000f670       __isa_available_init       0000000180010670 f   LIBCMT:cpu_disp.obj
 0001:0000f82c       __scrt_is_ucrt_dll_in_use  000000018001082c f   LIBCMT:ucrt_detection.obj
 0001:0000f838       __crt_debugger_hook        0000000180010838 f   LIBCMT:utility_desktop.obj
 0001:0000f840       __scrt_fastfail            0000000180010840 f   LIBCMT:utility_desktop.obj
 0001:0000f98c       __security_init_cookie     000000018001098c f   LIBCMT:gs_support.obj
 0001:0000fa38       ?__scrt_initialize_type_info@@YAXXZ 0000000180010a38 f   LIBCMT:tncleanup.obj
 0001:0000fa48       ?__scrt_uninitialize_type_info@@YAXXZ 0000000180010a48 f   LIBCMT:tncleanup.obj
 0001:0000fa54       __local_stdio_scanf_options 0000000180010a54 f i LIBCMT:default_local_stdio_options.obj
 0001:0000fa5c       __scrt_initialize_default_local_stdio_options 0000000180010a5c f   LIBCMT:default_local_stdio_options.obj
 0001:0000fa78       __scrt_get_dyn_tls_init_callback 0000000180010a78 f   LIBCMT:dyn_tls_init.obj
 0001:0000fa80       _RTC_Initialize            0000000180010a80 f   LIBCMT:initsect.obj
 0001:0000fabc       _RTC_Terminate             0000000180010abc f   LIBCMT:initsect.obj
 0001:0000faf8       ??0bad_alloc@std@@QEAA@AEBV01@@Z 0000000180010af8 f i LIBCMT:throw_bad_alloc.obj
 0001:0000fb38       ??0bad_alloc@std@@QEAA@XZ  0000000180010b38 f i LIBCMT:throw_bad_alloc.obj
 0001:0000fb58       ??0bad_array_new_length@std@@QEAA@AEBV01@@Z 0000000180010b58 f i LIBCMT:throw_bad_alloc.obj
 0001:0000fb98       ??0bad_array_new_length@std@@QEAA@XZ 0000000180010b98 f i LIBCMT:throw_bad_alloc.obj
 0001:0000fbb8       ??0exception@std@@QEAA@AEBV01@@Z 0000000180010bb8 f i LIBCMT:throw_bad_alloc.obj
 0001:0000fbf0       ??1bad_alloc@std@@UEAA@XZ  0000000180010bf0 f i LIBCMT:throw_bad_alloc.obj
 0001:0000fbf0       ??1bad_exception@std@@UEAA@XZ 0000000180010bf0 f i libvcruntime:frame.obj
 0001:0000fbf0       ??1bad_array_new_length@std@@UEAA@XZ 0000000180010bf0 f i LIBCMT:throw_bad_alloc.obj
 0001:0000fc04       ??_Gbad_exception@std@@UEAAPEAXI@Z 0000000180010c04 f i libvcruntime:frame.obj
 0001:0000fc04       ??_Ebad_array_new_length@std@@UEAAPEAXI@Z 0000000180010c04 f i LIBCMT:throw_bad_alloc.obj
 0001:0000fc04       ??_Gbad_alloc@std@@UEAAPEAXI@Z 0000000180010c04 f i LIBCMT:throw_bad_alloc.obj
 0001:0000fc04       ??_Gexception@std@@UEAAPEAXI@Z 0000000180010c04 f i LIBCMT:throw_bad_alloc.obj
 0001:0000fc04       ??_Ebad_exception@std@@UEAAPEAXI@Z 0000000180010c04 f i libvcruntime:frame.obj
 0001:0000fc04       ??_Ebad_alloc@std@@UEAAPEAXI@Z 0000000180010c04 f i LIBCMT:throw_bad_alloc.obj
 0001:0000fc04       ??_Eexception@std@@UEAAPEAXI@Z 0000000180010c04 f i LIBCMT:throw_bad_alloc.obj
 0001:0000fc04       ??_Gbad_array_new_length@std@@UEAAPEAXI@Z 0000000180010c04 f i LIBCMT:throw_bad_alloc.obj
 0001:0000fc48       ?__scrt_throw_std_bad_alloc@@YAXXZ 0000000180010c48 f   LIBCMT:throw_bad_alloc.obj
 0001:0000fc68       ?__scrt_throw_std_bad_array_new_length@@YAXXZ 0000000180010c68 f   LIBCMT:throw_bad_alloc.obj
 0001:0000fc88       ?what@exception@std@@UEBAPEBDXZ 0000000180010c88 f i LIBCMT:throw_bad_alloc.obj
 0001:0000fca0       ??_Gtype_info@@UEAAPEAXI@Z 0000000180010ca0 f i LIBCMT:std_type_info_static.obj
 0001:0000fca0       ??_Etype_info@@UEAAPEAXI@Z 0000000180010ca0 f i LIBCMT:std_type_info_static.obj
 0001:0000fccc       ??0CAtlBaseModule@ATL@@QEAA@XZ 0000000180010ccc f   atls:atlbase.obj
 0001:0000fd74       ??1CAtlBaseModule@ATL@@QEAA@XZ 0000000180010d74 f   atls:atlbase.obj
 0001:0000fea8       ?__AllocStdCallThunk_cmn@@YAPEAXXZ 0000000180010ea8 f   atls:atlthunk.obj
 0001:00010000       AtlThunk_AllocateData      0000000180011000 f   atls:atlthunk.obj
 0001:0001007c       AtlThunk_DataToCode        000000018001107c f   atls:atlthunk.obj
 0001:000100d0       AtlThunk_FreeData          00000001800110d0 f   atls:atlthunk.obj
 0001:00010130       AtlThunk_InitData          0000000180011130 f   atls:atlthunk.obj
 0001:000101f0       memset_repmovs             00000001800111f0 f   libvcruntime:memset.obj
 0001:00010210       memset                     0000000180011210 f   libvcruntime:memset.obj
 0001:000103a0       _purecall                  00000001800113a0 f   libvcruntime:purevirt.obj
 0001:000103d0       wcsstr                     00000001800113d0 f   libvcruntime:wcsstr.obj
 0001:00010600       memcmp                     0000000180011600 f   libvcruntime:memcmp.obj
 0001:000106e0       memcpy_repmovs             00000001800116e0 f   libvcruntime:memcpy.obj
 0001:00010700       memcpy                     0000000180011700 f   libvcruntime:memcpy.obj
 0001:00010700       memmove                    0000000180011700 f   libvcruntime:memcpy.obj
 0001:00010b38       __vcrt_initialize          0000000180011b38 f   libvcruntime:initialization.obj
 0001:00010b6c       __vcrt_thread_attach       0000000180011b6c f   libvcruntime:initialization.obj
 0001:00010b80       __vcrt_thread_detach       0000000180011b80 f   libvcruntime:initialization.obj
 0001:00010b94       __vcrt_uninitialize        0000000180011b94 f   libvcruntime:initialization.obj
 0001:00010bb4       __vcrt_uninitialize_critical 0000000180011bb4 f   libvcruntime:initialization.obj
 0001:00010bc4       __C_specific_handler       0000000180011bc4 f   libvcruntime:riscchandler.obj
 0001:00010dd0       __DestructExceptionObject  0000000180011dd0 f   libvcruntime:ehhelpers.obj
 0001:00010e44       ?_CallMemberFunction0@@YAXQEAX0@Z 0000000180011e44 f i libvcruntime:ehhelpers.obj
 0001:00010e48       _IsExceptionObjectToBeDestroyed 0000000180011e48 f   libvcruntime:ehhelpers.obj
 0001:00010e78       __AdjustPointer            0000000180011e78 f   libvcruntime:ehhelpers.obj
 0001:00010e9c       __FrameUnwindFilter        0000000180011e9c f   libvcruntime:ehhelpers.obj
 0001:00010ee8       __std_terminate            0000000180011ee8 f   libvcruntime:ehhelpers.obj
 0001:00010ef4       ??$_CallSETranslator@V__FrameHandler3@@@@YAHPEAUEHExceptionRecord@@PEA_KPEAU_CONTEXT@@PEAU_xDISPATCHER_CONTEXT@@PEBU_s_FuncInfo@@K1@Z 0000000180011ef4 f i libvcruntime:risctrnsctrl.obj
 0001:00010f48       ?CatchTryBlock@__FrameHandler3@@SAPEBU_s_TryBlockMapEntry@@PEBU_s_FuncInfo@@H@Z 0000000180011f48 f   libvcruntime:risctrnsctrl.obj
 0001:00010fa0       ?ExecutionInCatch@__FrameHandler3@@SA_NPEAU_xDISPATCHER_CONTEXT@@PEBU_s_FuncInfo@@@Z 0000000180011fa0 f   libvcruntime:risctrnsctrl.obj
 0001:00010fcc       ?FrameUnwindToEmptyState@__FrameHandler3@@SAXPEA_KPEAU_xDISPATCHER_CONTEXT@@PEBU_s_FuncInfo@@@Z 0000000180011fcc f   libvcruntime:risctrnsctrl.obj
 0001:00011030       ?GetEstablisherFrame@__FrameHandler3@@SAPEA_KPEA_KPEAU_xDISPATCHER_CONTEXT@@PEBU_s_FuncInfo@@0@Z 0000000180012030 f   libvcruntime:risctrnsctrl.obj
 0001:000110fc       ?GetRangeOfTrysToCheck@__FrameHandler3@@SA?AU?$pair@Viterator@TryBlockMap@__FrameHandler3@@V123@@std@@AEAVTryBlockMap@1@HH@Z 00000001800120fc f   libvcruntime:risctrnsctrl.obj
 0001:00011258       ?UnwindNestedFrames@__FrameHandler3@@SAXPEA_KPEAUEHExceptionRecord@@PEAU_CONTEXT@@0PEAXPEBU_s_FuncInfo@@HHPEBU_s_HandlerType@@PEAU_xDISPATCHER_CONTEXT@@E@Z 0000000180012258 f   libvcruntime:risctrnsctrl.obj
 0001:0001137c       _CreateFrameInfo           000000018001237c f   libvcruntime:risctrnsctrl.obj
 0001:000113b8       _FindAndUnlinkFrame        00000001800123b8 f   libvcruntime:risctrnsctrl.obj
 0001:0001140c       _GetImageBase              000000018001240c f   libvcruntime:risctrnsctrl.obj
 0001:00011420       _GetThrowImageBase         0000000180012420 f   libvcruntime:risctrnsctrl.obj
 0001:00011434       _SetImageBase              0000000180012434 f   libvcruntime:risctrnsctrl.obj
 0001:0001144c       _SetThrowImageBase         000000018001244c f   libvcruntime:risctrnsctrl.obj
 0001:00011464       __CxxFrameHandler3         0000000180012464 f   libvcruntime:risctrnsctrl.obj
 0001:000114e4       __std_type_info_compare    00000001800124e4 f   libvcruntime:std_type_info.obj
 0001:0001150c       __std_type_info_destroy_list 000000018001250c f   libvcruntime:std_type_info.obj
 0001:00011538       __std_exception_copy       0000000180012538 f   libvcruntime:std_exception.obj
 0001:000115c8       __std_exception_destroy    00000001800125c8 f   libvcruntime:std_exception.obj
 0001:000115f0       _CxxThrowException         00000001800125f0 f   libvcruntime:throw.obj
 0001:000116b0       __vcrt_initialize_pure_virtual_call_handler 00000001800126b0 f   libvcruntime:purevirt_data.obj
 0001:000116c0       __vcrt_freefls             00000001800126c0 f   libvcruntime:per_thread_data.obj
 0001:000116e0       __vcrt_freeptd             00000001800126e0 f   libvcruntime:per_thread_data.obj
 0001:00011730       __vcrt_getptd              0000000180012730 f   libvcruntime:per_thread_data.obj
 0001:0001174c       __vcrt_getptd_noexit       000000018001274c f   libvcruntime:per_thread_data.obj
 0001:00011818       __vcrt_initialize_ptd      0000000180012818 f   libvcruntime:per_thread_data.obj
 0001:0001186c       __vcrt_uninitialize_ptd    000000018001286c f   libvcruntime:per_thread_data.obj
 0001:00011890       __vcrt_initialize_locks    0000000180012890 f   libvcruntime:locks.obj
 0001:000118d8       __vcrt_uninitialize_locks  00000001800128d8 f   libvcruntime:locks.obj
 0001:00011ae8       __vcrt_FlsAlloc            0000000180012ae8 f   libvcruntime:winapi_downlevel.obj
 0001:00011b30       __vcrt_FlsFree             0000000180012b30 f   libvcruntime:winapi_downlevel.obj
 0001:00011b78       __vcrt_FlsGetValue         0000000180012b78 f   libvcruntime:winapi_downlevel.obj
 0001:00011bc0       __vcrt_FlsSetValue         0000000180012bc0 f   libvcruntime:winapi_downlevel.obj
 0001:00011c14       __vcrt_InitializeCriticalSectionEx 0000000180012c14 f   libvcruntime:winapi_downlevel.obj
 0001:00011c78       __vcrt_initialize_winapi_thunks 0000000180012c78 f   libvcruntime:winapi_downlevel.obj
 0001:00011ca8       __vcrt_uninitialize_winapi_thunks 0000000180012ca8 f   libvcruntime:winapi_downlevel.obj
 0001:00011d00       _NLG_Notify                0000000180012d00 f   libvcruntime:notify.obj
 0001:00011d20       __NLG_Dispatch2            0000000180012d20 f   libvcruntime:notify.obj
 0001:00011d30       __NLG_Return2              0000000180012d30 f   libvcruntime:notify.obj
 0001:00011d34       __except_validate_context_record 0000000180012d34 f   libvcruntime:jbcxrval.obj
 0001:00011d6c       ?GetCurrentState@__FrameHandler3@@SAHPEA_KPEAU_xDISPATCHER_CONTEXT@@PEBU_s_FuncInfo@@@Z 0000000180012d6c f   libvcruntime:ehstate.obj
 0001:00011d94       ?GetUnwindTryBlock@__FrameHandler3@@SAHPEA_KPEAU_xDISPATCHER_CONTEXT@@PEBU_s_FuncInfo@@@Z 0000000180012d94 f   libvcruntime:ehstate.obj
 0001:00011dc0       ?SetState@__FrameHandler3@@SAXPEA_KPEBU_s_FuncInfo@@H@Z 0000000180012dc0 f   libvcruntime:ehstate.obj
 0001:00011dcc       ?SetUnwindTryBlock@__FrameHandler3@@SAXPEA_KPEAU_xDISPATCHER_CONTEXT@@PEBU_s_FuncInfo@@H@Z 0000000180012dcc f   libvcruntime:ehstate.obj
 0001:00011e08       ?StateFromControlPc@__FrameHandler3@@SAHPEBU_s_FuncInfo@@PEAU_xDISPATCHER_CONTEXT@@@Z 0000000180012e08 f   libvcruntime:ehstate.obj
 0001:00011e10       ?StateFromIp@__FrameHandler3@@SAHPEBU_s_FuncInfo@@PEAU_xDISPATCHER_CONTEXT@@_K@Z 0000000180012e10 f   libvcruntime:ehstate.obj
 0001:0001289c       ??$TypeMatchHelper@V__FrameHandler3@@@@YAHPEBU_s_HandlerType@@PEBU_s_CatchableType@@PEBU_s_ThrowInfo@@@Z 000000018001389c f i libvcruntime:frame.obj
 0001:000129e0       ??$__InternalCxxFrameHandler@V__FrameHandler3@@@@YA?AW4_EXCEPTION_DISPOSITION@@PEAUEHExceptionRecord@@PEA_KPEAU_CONTEXT@@PEAU_xDISPATCHER_CONTEXT@@PEBU_s_FuncInfo@@H1E@Z 00000001800139e0 f i libvcruntime:frame.obj
 0001:00012c28       ??0bad_exception@std@@QEAA@AEBV01@@Z 0000000180013c28 f i libvcruntime:frame.obj
 0001:00012c68       ??0bad_exception@std@@QEAA@XZ 0000000180013c68 f i libvcruntime:frame.obj
 0001:00012c88       ?CxxCallCatchBlock@__FrameHandler3@@SAPEAXPEAU_EXCEPTION_RECORD@@@Z 0000000180013c88 f   libvcruntime:frame.obj
 0001:00012efc       ?FrameUnwindToState@__FrameHandler3@@SAXPEA_KPEAU_xDISPATCHER_CONTEXT@@PEBU_s_FuncInfo@@H@Z 0000000180013efc f   libvcruntime:frame.obj
 0001:00013090       ?GetHandlerSearchState@__FrameHandler3@@SAHPEA_KPEAU_xDISPATCHER_CONTEXT@@PEBU_s_FuncInfo@@@Z 0000000180014090 f i libvcruntime:frame.obj
 0001:00013294       ?_CallMemberFunction1@@YAXQEAX00@Z 0000000180014294 f i libvcruntime:frame.obj
 0001:000132a0       ?_CallMemberFunction2@@YAXQEAX00H@Z 00000001800142a0 f i libvcruntime:frame.obj
 0001:000132c0       _CallSettingFrame          00000001800142c0 f   libvcruntime:handlers.obj
 0001:00013310       _CallSettingFrameEncoded   0000000180014310 f   libvcruntime:handlers.obj
 0001:00013358       free                       0000000180014358 f   libucrt:free.obj
 0001:00013360       __acrt_call_reportfault    0000000180014360 f   libucrt:invalid_parameter.obj
 0001:000134bc       __acrt_initialize_invalid_parameter_handler 00000001800144bc f   libucrt:invalid_parameter.obj
 0001:000134c4       _invalid_parameter         00000001800144c4 f   libucrt:invalid_parameter.obj
 0001:0001356c       _invalid_parameter_noinfo  000000018001456c f   libucrt:invalid_parameter.obj
 0001:0001358c       _invoke_watson             000000018001458c f   libucrt:invalid_parameter.obj
 0001:000135d4       __acrt_errno_from_os_error 00000001800145d4 f   libucrt:errno.obj
 0001:0001361c       __acrt_errno_map_os_error  000000018001461c f   libucrt:errno.obj
 0001:0001366c       __doserrno                 000000018001466c f   libucrt:errno.obj
 0001:0001368c       _errno                     000000018001468c f   libucrt:errno.obj
 0001:000136ac       calloc                     00000001800146ac f   libucrt:calloc.obj
 0001:000136b4       malloc                     00000001800146b4 f   libucrt:malloc.obj
 0001:000136bc       _recalloc                  00000001800146bc f   libucrt:recalloc.obj
 0001:000136c4       _recalloc_base             00000001800146c4 f   libucrt:recalloc.obj
 0001:0001375c       _resetstkoflw              000000018001475c f   libucrt:resetstk.obj
 0001:00013880       wcscat_s                   0000000180014880 f   libucrt:wcscat_s.obj
 0001:00013900       wcscpy_s                   0000000180014900 f   libucrt:wcscpy_s.obj
 0001:00013968       wcsncpy_s                  0000000180014968 f   libucrt:wcsncpy_s.obj
 0001:00013c00       ??$ensure_buffer_is_big_enough@D@formatting_buffer@__crt_stdio_output@@QEAA_N_K@Z 0000000180014c00 f i libucrt:output.obj
 0001:00013cac       ??$is_wide_character_specifier@_W@__crt_stdio_output@@YA_N_K_WW4length_modifier@0@@Z 0000000180014cac f i libucrt:output.obj
 0001:00013cf0       ??$type_case_integer_parse_into_buffer@I@?$output_processor@_WV?$string_output_adapter@_W@__crt_stdio_output@@V?$format_validation_base@_WV?$string_output_adapter@_W@__crt_stdio_output@@@2@@__crt_stdio_output@@AEAAXII_N@Z 0000000180014cf0 f i libucrt:output.obj
 0001:00013d8c       ??$type_case_integer_parse_into_buffer@_K@?$output_processor@_WV?$string_output_adapter@_W@__crt_stdio_output@@V?$format_validation_base@_WV?$string_output_adapter@_W@__crt_stdio_output@@@2@@__crt_stdio_output@@AEAAX_KI_N@Z 0000000180014d8c f i libucrt:output.obj
 0001:00013e28       ??$write_multiple_characters@V?$string_output_adapter@_W@__crt_stdio_output@@D@__crt_stdio_output@@YAXAEBV?$string_output_adapter@_W@0@DHQEAH@Z 0000000180014e28 f i libucrt:output.obj
 0001:00013e98       ??0?$output_processor@_WV?$string_output_adapter@_W@__crt_stdio_output@@V?$format_validation_base@_WV?$string_output_adapter@_W@__crt_stdio_output@@@2@@__crt_stdio_output@@QEAA@AEBV?$string_output_adapter@_W@1@_KQEB_WQEAU__crt_locale_pointers@@QEAD@Z 0000000180014e98 f i libucrt:output.obj
 0001:00013f18       ??0_LocaleUpdate@@QEAA@QEAU__crt_locale_pointers@@@Z 0000000180014f18 f i libucrt:output.obj
 0001:00013fa8       ?force_decimal_point@__crt_stdio_output@@YAXPEADQEAU__crt_locale_pointers@@@Z 0000000180014fa8 f i libucrt:output.obj
 0001:00014018       ?parse_int_from_format_string@?$output_processor@_WV?$string_output_adapter@_W@__crt_stdio_output@@V?$format_validation_base@_WV?$string_output_adapter@_W@__crt_stdio_output@@@2@@__crt_stdio_output@@AEAA_NQEAH@Z 0000000180015018 f i libucrt:output.obj
 0001:00014098       ?process@?$output_processor@_WV?$string_output_adapter@_W@__crt_stdio_output@@V?$format_validation_base@_WV?$string_output_adapter@_W@__crt_stdio_output@@@2@@__crt_stdio_output@@QEAAHXZ 0000000180015098 f i libucrt:output.obj
 0001:00014320       ?state_case_size@?$output_processor@_WV?$string_output_adapter@_W@__crt_stdio_output@@V?$format_validation_base@_WV?$string_output_adapter@_W@__crt_stdio_output@@@2@@__crt_stdio_output@@AEAA_NXZ 0000000180015320 f i libucrt:output.obj
 0001:000144c4       ?state_case_type@?$output_processor@_WV?$string_output_adapter@_W@__crt_stdio_output@@V?$format_validation_base@_WV?$string_output_adapter@_W@__crt_stdio_output@@@2@@__crt_stdio_output@@AEAA_NXZ 00000001800154c4 f i libucrt:output.obj
 0001:00014790       ?type_case_Z@?$output_processor@_WV?$string_output_adapter@_W@__crt_stdio_output@@V?$format_validation_base@_WV?$string_output_adapter@_W@__crt_stdio_output@@@2@@__crt_stdio_output@@AEAA_NXZ 0000000180015790 f i libucrt:output.obj
 0001:00014810       ?type_case_a@?$output_processor@_WV?$string_output_adapter@_W@__crt_stdio_output@@V?$format_validation_base@_WV?$string_output_adapter@_W@__crt_stdio_output@@@2@@__crt_stdio_output@@AEAA_NXZ 0000000180015810 f i libucrt:output.obj
 0001:00014a54       ?type_case_c_tchar@?$output_processor@_WV?$string_output_adapter@_W@__crt_stdio_output@@V?$format_validation_base@_WV?$string_output_adapter@_W@__crt_stdio_output@@@2@@__crt_stdio_output@@AEAA_N_W@Z 0000000180015a54 f i libucrt:output.obj
 0001:00014afc       ?type_case_integer@?$output_processor@_WV?$string_output_adapter@_W@__crt_stdio_output@@V?$format_validation_base@_WV?$string_output_adapter@_W@__crt_stdio_output@@@2@@__crt_stdio_output@@AEAA_NI_N@Z 0000000180015afc f i libucrt:output.obj
 0001:00014c9c       ?type_case_n@?$output_processor@_WV?$string_output_adapter@_W@__crt_stdio_output@@V?$format_validation_base@_WV?$string_output_adapter@_W@__crt_stdio_output@@@2@@__crt_stdio_output@@AEAA_NXZ 0000000180015c9c f i libucrt:output.obj
 0001:00014d78       ?type_case_s@?$output_processor@_WV?$string_output_adapter@_W@__crt_stdio_output@@V?$format_validation_base@_WV?$string_output_adapter@_W@__crt_stdio_output@@@2@@__crt_stdio_output@@AEAA_NXZ 0000000180015d78 f i libucrt:output.obj
 0001:00014e40       ?write_stored_string_tchar@?$output_processor@_WV?$string_output_adapter@_W@__crt_stdio_output@@V?$format_validation_base@_WV?$string_output_adapter@_W@__crt_stdio_output@@@2@@__crt_stdio_output@@AEAA_N_W@Z 0000000180015e40 f i libucrt:output.obj
 0001:00014f30       ?write_string@?$string_output_adapter@_W@__crt_stdio_output@@QEBAXQEB_WHQEAH1@Z 0000000180015f30 f i libucrt:output.obj
 0001:00014ff0       __stdio_common_vswprintf_s 0000000180015ff0 f   libucrt:output.obj
 0001:00015060       _seh_filter_dll            0000000180016060 f   libucrt:exception_filter.obj
 0001:00015074       _seh_filter_exe            0000000180016074 f   libucrt:exception_filter.obj
 0001:00015434       __acrt_initialize_thread_local_exit_callback 0000000180016434 f   libucrt:exit.obj
 0001:0001543c       _cexit                     000000018001643c f   libucrt:exit.obj
 0001:0001544c       _exit                      000000018001644c f   libucrt:exit.obj
 0001:00015458       _is_c_termination_complete 0000000180016458 f   libucrt:exit.obj
 0001:0001561c       __acrt_allocate_buffer_for_argv 000000018001661c f   libucrt:argv_parsing.obj
 0001:00015680       _configure_narrow_argv     0000000180016680 f   libucrt:argv_parsing.obj
 0001:000159dc       __dcrt_uninitialize_environments_nolock 00000001800169dc f   libucrt:environment_initialization.obj
 0001:00015a14       _initialize_narrow_environment 0000000180016a14 f   libucrt:environment_initialization.obj
 0001:00015a1c       ??$?RV<lambda_b8c45f8f788dd370798f47cfe8ac3a86>@@AEAV<lambda_4e60a939b0d047cfe11ddc22648dfba9>@@V<lambda_332c3edc96d0294ec56c57d38c1cdfd5>@@@?$__crt_seh_guarded_call@H@@QEAAH$$QEAV<lambda_b8c45f8f788dd370798f47cfe8ac3a86>@@AEAV<lambda_4e60a939b0d047cfe11ddc22648dfba9>@@$$QEAV<lambda_332c3edc96d0294ec56c57d38c1cdfd5>@@@Z 0000000180016a1c f i libucrt:onexit.obj
 0001:00015a58       ??$?RV<lambda_e24bbb7b643b32fcea6fa61b31d4c984>@@AEAV<lambda_275893d493268fdec8709772e3fcec0e>@@V<lambda_9d71df4d7cf3f480f8d633942495c3b0>@@@?$__crt_seh_guarded_call@H@@QEAAH$$QEAV<lambda_e24bbb7b643b32fcea6fa61b31d4c984>@@AEAV<lambda_275893d493268fdec8709772e3fcec0e>@@$$QEAV<lambda_9d71df4d7cf3f480f8d633942495c3b0>@@@Z 0000000180016a58 f i libucrt:onexit.obj
 0001:00015dd4       _crt_atexit                0000000180016dd4 f   libucrt:onexit.obj
 0001:00015de4       _execute_onexit_table      0000000180016de4 f   libucrt:onexit.obj
 0001:00015e20       _initialize_onexit_table   0000000180016e20 f   libucrt:onexit.obj
 0001:00015e60       _register_onexit_function  0000000180016e60 f   libucrt:onexit.obj
 0001:00015ee0       __acrt_uninitialize_command_line 0000000180016ee0 f   libucrt:argv_data.obj
 0001:00015fe0       __acrt_initialize          0000000180016fe0 f   libucrt:initialization.obj
 0001:00015ff4       __acrt_thread_attach       0000000180016ff4 f   libucrt:initialization.obj
 0001:00016008       __acrt_thread_detach       0000000180017008 f   libucrt:initialization.obj
 0001:00016018       __acrt_uninitialize        0000000180017018 f   libucrt:initialization.obj
 0001:0001602c       __acrt_uninitialize_critical 000000018001702c f   libucrt:initialization.obj
 0001:0001603c       _initterm                  000000018001703c f   libucrt:initterm.obj
 0001:000160b4       _initterm_e                00000001800170b4 f   libucrt:initterm.obj
 0001:00016100       __acrt_initialize_new_handler 0000000180017100 f   libucrt:new_handler.obj
 0001:00016108       _callnewh                  0000000180017108 f   libucrt:new_handler.obj
 0001:00016148       _query_new_handler         0000000180017148 f   libucrt:new_handler.obj
 0001:0001617c       terminate                  000000018001717c f   libucrt:terminate.obj
 0001:000161a4       abort                      00000001800171a4 f   libucrt:abort.obj
 0001:000161fc       strcpy_s                   00000001800171fc f   libucrt:strcpy_s.obj
 0001:0001625c       wcsncmp                    000000018001725c f   libucrt:wcsncmp.obj
 0001:00016288       ??$is_overflow_condition@K@__crt_strtox@@YA_NIK@Z 0000000180017288 f i libucrt:atox.obj
 0001:000162b4       ??$parse_integer@KV?$c_string_character_source@_W@__crt_strtox@@@__crt_strtox@@YAKQEAU__crt_locale_pointers@@V?$c_string_character_source@_W@0@H_N@Z 00000001800172b4 f i libucrt:atox.obj
 0001:000169a0       strncmp                    00000001800179a0 f   libucrt:strncmp.obj
 0001:00016a20       _free_base                 0000000180017a20 f   libucrt:free_base.obj
 0001:00016a60       ??$?RV<lambda_46352004c1216016012b18bd6f87e700>@@AEAV<lambda_3bd07e1a1191394380780325891bf33f>@@V<lambda_334532d3f185bcaa59b5be82d7d22bff>@@@?$__crt_seh_guarded_call@X@@QEAAX$$QEAV<lambda_46352004c1216016012b18bd6f87e700>@@AEAV<lambda_3bd07e1a1191394380780325891bf33f>@@$$QEAV<lambda_334532d3f185bcaa59b5be82d7d22bff>@@@Z 0000000180017a60 f i libucrt:per_thread_data.obj
 0001:00016ac0       ??$?RV<lambda_5e887d1dcbef67a5eb4283622ba103bf>@@AEAV<lambda_4466841279450cc726390878d4a41900>@@V<lambda_341c25c0346d94847f1f3c463c57e077>@@@?$__crt_seh_guarded_call@X@@QEAAX$$QEAV<lambda_5e887d1dcbef67a5eb4283622ba103bf>@@AEAV<lambda_4466841279450cc726390878d4a41900>@@$$QEAV<lambda_341c25c0346d94847f1f3c463c57e077>@@@Z 0000000180017ac0 f i libucrt:per_thread_data.obj
 0001:00016b08       ??$?RV<lambda_72d1df2b273a38828b1ce30cbf4cdab5>@@AEAV<lambda_876a65b173b8412d3a47c70a915b0cf4>@@V<lambda_41932305e351933ebe8f8be3ed8bb5dc>@@@?$__crt_seh_guarded_call@X@@QEAAX$$QEAV<lambda_72d1df2b273a38828b1ce30cbf4cdab5>@@AEAV<lambda_876a65b173b8412d3a47c70a915b0cf4>@@$$QEAV<lambda_41932305e351933ebe8f8be3ed8bb5dc>@@@Z 0000000180017b08 f i libucrt:per_thread_data.obj
 0001:00016b48       ??$?RV<lambda_fb3a7dec4e47f37f22dae91bb15c9095>@@AEAV<lambda_698284760c8add0bfb0756c19673e34b>@@V<lambda_dfb8eca1e75fef3034a8fb18dd509707>@@@?$__crt_seh_guarded_call@X@@QEAAX$$QEAV<lambda_fb3a7dec4e47f37f22dae91bb15c9095>@@AEAV<lambda_698284760c8add0bfb0756c19673e34b>@@$$QEAV<lambda_dfb8eca1e75fef3034a8fb18dd509707>@@@Z 0000000180017b48 f i libucrt:per_thread_data.obj
 0001:00016dd8       __acrt_freeptd             0000000180017dd8 f   libucrt:per_thread_data.obj
 0001:00016e1c       __acrt_getptd              0000000180017e1c f   libucrt:per_thread_data.obj
 0001:00016eb0       __acrt_getptd_noexit       0000000180017eb0 f   libucrt:per_thread_data.obj
 0001:00016f50       __acrt_initialize_ptd      0000000180017f50 f   libucrt:per_thread_data.obj
 0001:00016f8c       __acrt_uninitialize_ptd    0000000180017f8c f   libucrt:per_thread_data.obj
 0001:00016fb0       _calloc_base               0000000180017fb0 f   libucrt:calloc_base.obj
 0001:00017028       _malloc_base               0000000180018028 f   libucrt:malloc_base.obj
 0001:00017088       _msize                     0000000180018088 f   libucrt:msize.obj
 0001:000170c4       _realloc_base              00000001800180c4 f   libucrt:realloc_base.obj
 0001:000172e8       __acrt_FlsAlloc            00000001800182e8 f   libucrt:winapi_thunks.obj
 0001:00017340       __acrt_FlsFree             0000000180018340 f   libucrt:winapi_thunks.obj
 0001:00017398       __acrt_FlsGetValue         0000000180018398 f   libucrt:winapi_thunks.obj
 0001:000173f0       __acrt_FlsSetValue         00000001800183f0 f   libucrt:winapi_thunks.obj
 0001:00017458       __acrt_InitializeCriticalSectionEx 0000000180018458 f   libucrt:winapi_thunks.obj
 0001:000174d0       __acrt_LCMapStringEx       00000001800184d0 f   libucrt:winapi_thunks.obj
 0001:000175c0       __acrt_LocaleNameToLCID    00000001800185c0 f   libucrt:winapi_thunks.obj
 0001:00017628       __acrt_SetThreadStackGuarantee 0000000180018628 f   libucrt:winapi_thunks.obj
 0001:00017678       __acrt_initialize_winapi_thunks 0000000180018678 f   libucrt:winapi_thunks.obj
 0001:000176b0       __acrt_is_packaged_app     00000001800186b0 f   libucrt:winapi_thunks.obj
 0001:00017738       __acrt_uninitialize_winapi_thunks 0000000180018738 f   libucrt:winapi_thunks.obj
 0001:0001777c       isdigit                    000000018001877c f i libucrt:_ctype.obj
 0001:00017840       _tolower_l                 0000000180018840 f   libucrt:tolower_toupper.obj
 0001:00017980       tolower                    0000000180018980 f   libucrt:tolower_toupper.obj
 0001:000179ac       ??$make_c_string_character_source@_WPEAPEA_W@__crt_strtox@@YA?AV?$c_string_character_source@_W@0@QEB_WQEAPEA_W@Z 00000001800189ac f i libucrt:strtox.obj
 0001:000179c0       wcstol                     00000001800189c0 f   libucrt:strtox.obj
 0001:000179f0       _mbtowc_l                  00000001800189f0 f   libucrt:mbtowc.obj
 0001:00017b38       mbtowc                     0000000180018b38 f   libucrt:mbtowc.obj
 0001:00017b40       wcsnlen                    0000000180018b40 f   libucrt:strnlen.obj
 0001:00017d30       __acrt_update_locale_info  0000000180018d30 f   libucrt:locale_update.obj
 0001:00017d64       __acrt_update_multibyte_info 0000000180018d64 f   libucrt:locale_update.obj
 0001:00017d98       ?__acrt_fp_classify@@YA?AW4__acrt_fp_class@@AEBN@Z 0000000180018d98 f i libucrt:cvt.obj
 0001:000187d0       __acrt_fp_format           00000001800197d0 f   libucrt:cvt.obj
 0001:00018a14       _fileno                    0000000180019a14 f   libucrt:fileno.obj
 0001:00018a3c       __acrt_initialize_stdio    0000000180019a3c f   libucrt:_file.obj
 0001:00018b5c       __acrt_uninitialize_stdio  0000000180019b5c f   libucrt:_file.obj
 0001:00018bb8       _lock_file                 0000000180019bb8 f   libucrt:_file.obj
 0001:00018bc4       _unlock_file               0000000180019bc4 f   libucrt:_file.obj
 0001:00018bd0       _get_printf_count_output   0000000180019bd0 f   libucrt:printf_count_output.obj
 0001:00018be8       __acrt_set_locale_changed  0000000180019be8 f   libucrt:wsetlocale.obj
 0001:00018bf4       __acrt_uninitialize_locale 0000000180019bf4 f   libucrt:wsetlocale.obj
 0001:00018e24       __acrt_initialize_lowio    0000000180019e24 f   libucrt:ioinit.obj
 0001:00018e60       __acrt_uninitialize_lowio  0000000180019e60 f   libucrt:ioinit.obj
 0001:00018ea0       __acrt_initialize_locks    0000000180019ea0 f   libucrt:locks.obj
 0001:00018ee8       __acrt_lock                0000000180019ee8 f   libucrt:locks.obj
 0001:00018f04       __acrt_uninitialize_locks  0000000180019f04 f   libucrt:locks.obj
 0001:00018f3c       __acrt_unlock              0000000180019f3c f   libucrt:locks.obj
 0001:00019434       ?expand_if_necessary@?$argument_list@D@?A0xca0879c4@@AEAAHXZ 000000018001a434 f i libucrt:argv_wildcards.obj
 0001:000194fc       __acrt_expand_narrow_argv_wildcards 000000018001a4fc f   libucrt:argv_wildcards.obj
 0001:00019504       ??$?RV<lambda_99476a1ad63dd22509b5d3e65b0ffc95>@@AEAV<lambda_ad1ced32f4ac17aa236e5ef05d6b3b7c>@@V<lambda_f7424dd8d45958661754dc4f2697e9c3>@@@?$__crt_seh_guarded_call@X@@QEAAX$$QEAV<lambda_99476a1ad63dd22509b5d3e65b0ffc95>@@AEAV<lambda_ad1ced32f4ac17aa236e5ef05d6b3b7c>@@$$QEAV<lambda_f7424dd8d45958661754dc4f2697e9c3>@@@Z 000000018001a504 f i libucrt:mbctype.obj
 0001:00019c00       __acrt_initialize_multibyte 000000018001ac00 f   libucrt:mbctype.obj
 0001:00019c28       __acrt_update_thread_multibyte_data 000000018001ac28 f   libucrt:mbctype.obj
 0001:00019ce8       _setmbcp_nolock            000000018001ace8 f   libucrt:mbctype.obj
 0001:0001a008       _ismbblead                 000000018001b008 f   libucrt:ismbbyte.obj
 0001:0001a01c       __acrt_initialize_command_line 000000018001b01c f   libucrt:argv_data.obj
 0001:0001a044       __dcrt_get_narrow_environment_from_os 000000018001b044 f   libucrt:get_environment_from_os.obj
 0001:0001a148       __acrt_initialize_heap     000000018001b148 f   libucrt:heap_handle.obj
 0001:0001a164       __acrt_uninitialize_heap   000000018001b164 f   libucrt:heap_handle.obj
 0001:0001a170       __acrt_execute_initializers 000000018001b170 f   libucrt:shared_initialization.obj
 0001:0001a204       __acrt_execute_uninitializers 000000018001b204 f   libucrt:shared_initialization.obj
 0001:0001a254       ??$?RV<lambda_c36588078e9f5dfd39652860aa6b3aaf>@@AEAV<lambda_ec61778202f4f5fc7e7711acc23c3bca>@@V<lambda_dc9d2797ccde5d239b4a0efae8ebd7db>@@@?$__crt_seh_guarded_call@P6AXH@Z@@QEAAP6AXH@Z$$QEAV<lambda_c36588078e9f5dfd39652860aa6b3aaf>@@AEAV<lambda_ec61778202f4f5fc7e7711acc23c3bca>@@$$QEAV<lambda_dc9d2797ccde5d239b4a0efae8ebd7db>@@@Z 000000018001b254 f i libucrt:signal.obj
 0001:0001a29c       __acrt_get_sigabrt_handler 000000018001b29c f   libucrt:signal.obj
 0001:0001a2cc       __acrt_initialize_signal_handlers 000000018001b2cc f   libucrt:signal.obj
 0001:0001a2ec       raise                      000000018001b2ec f   libucrt:signal.obj
 0001:0001a588       __acrt_has_user_matherr    000000018001b588 f   libucrt:matherr.obj
 0001:0001a5a8       __acrt_initialize_user_matherr 000000018001b5a8 f   libucrt:matherr.obj
 0001:0001a5b0       __acrt_invoke_user_matherr 000000018001b5b0 f   libucrt:matherr.obj
 0001:0001a5f8       __pctype_func              000000018001b5f8 f   libucrt:ctype.obj
 0001:0001a628       iswctype                   000000018001b628 f   libucrt:iswctype.obj
 0001:0001a698       _isctype_l                 000000018001b698 f   libucrt:isctype.obj
 0001:0001a7a8       __acrt_add_locale_ref      000000018001b7a8 f   libucrt:locale_refcounting.obj
 0001:0001a834       __acrt_free_locale         000000018001b834 f   libucrt:locale_refcounting.obj
 0001:0001a9ac       __acrt_locale_add_lc_time_reference 000000018001b9ac f   libucrt:locale_refcounting.obj
 0001:0001a9d4       __acrt_locale_free_lc_time_if_unreferenced 000000018001b9d4 f   libucrt:locale_refcounting.obj
 0001:0001aa0c       __acrt_locale_release_lc_time_reference 000000018001ba0c f   libucrt:locale_refcounting.obj
 0001:0001aa34       __acrt_release_locale_ref  000000018001ba34 f   libucrt:locale_refcounting.obj
 0001:0001aadc       __acrt_update_thread_locale_data 000000018001badc f   libucrt:locale_refcounting.obj
 0001:0001ab4c       _updatetlocinfoEx_nolock   000000018001bb4c f   libucrt:locale_refcounting.obj
 0001:0001abb4       _query_new_mode            000000018001bbb4 f   libucrt:new_mode.obj
 0001:0001ac84       __acrt_DownlevelLocaleNameToLCID 000000018001bc84 f   libucrt:lcidtoname_downlevel.obj
 0001:0001acb8       _isleadbyte_l              000000018001bcb8 f i libucrt:_wctype.obj
 0001:0001b054       __acrt_LCMapStringA        000000018001c054 f   libucrt:lcmapstringa.obj
 0001:0001b0ec       __acrt_fp_strflt_to_string 000000018001c0ec f   libucrt:_fptostr.obj
 0001:0001b1b0       ?divide@__crt_strtox@@YA_KAEAUbig_integer@1@AEBU21@@Z 000000018001c1b0 f i libucrt:cfout.obj
 0001:0001b680       __acrt_fltout              000000018001c680 f   libucrt:cfout.obj
 0001:0001ca74       _fcloseall                 000000018001da74 f   libucrt:closeall.obj
 0001:0001cb28       __acrt_stdio_flush_nolock  000000018001db28 f   libucrt:fflush.obj
 0001:0001cba0       _fflush_nolock             000000018001dba0 f   libucrt:fflush.obj
 0001:0001cbec       _flushall                  000000018001dbec f   libucrt:fflush.obj
 0001:0001ccdc       __acrt_stdio_free_buffer_nolock 000000018001dcdc f   libucrt:_freebuf.obj
 0001:0001cd1c       _isatty                    000000018001dd1c f   libucrt:isatty.obj
 0001:0001cd7c       __acrt_locale_free_monetary 000000018001dd7c f   libucrt:initmon.obj
 0001:0001ce88       __acrt_locale_free_numeric 000000018001de88 f   libucrt:initnum.obj
 0001:0001cf4c       __acrt_locale_free_time    000000018001df4c f   libucrt:inittime.obj
 0001:0001d054       __acrt_GetStringTypeA      000000018001e054 f   libucrt:getstringtypea.obj
 0001:0001d208       __acrt_lowio_create_handle_array 000000018001e208 f   libucrt:osfinfo.obj
 0001:0001d2a0       __acrt_lowio_destroy_handle_array 000000018001e2a0 f   libucrt:osfinfo.obj
 0001:0001d2f0       __acrt_lowio_ensure_fh_exists 000000018001e2f0 f   libucrt:osfinfo.obj
 0001:0001d3a8       __acrt_lowio_lock_fh       000000018001e3a8 f   libucrt:osfinfo.obj
 0001:0001d3cc       __acrt_lowio_unlock_fh     000000018001e3cc f   libucrt:osfinfo.obj
 0001:0001d3f0       _free_osfhnd               000000018001e3f0 f   libucrt:osfinfo.obj
 0001:0001d4ac       _get_osfhandle             000000018001e4ac f   libucrt:osfinfo.obj
 0001:0001d600       qsort                      000000018001e600 f   libucrt:qsort.obj
 0001:0001d934       strncpy_s                  000000018001e934 f   libucrt:strncpy_s.obj
 0001:0001da08       strpbrk                    000000018001ea08 f   libucrt:strpbrk.obj
 0001:0001daa8       _mbsdec                    000000018001eaa8 f   libucrt:mbsdec.obj
 0001:0001dab0       _mbsdec_l                  000000018001eab0 f   libucrt:mbsdec.obj
 0001:0001db60       __strncnt                  000000018001eb60 f   libucrt:strncnt.obj
 0001:0001db78       fegetenv                   000000018001eb78 f   libucrt:fegetenv.obj
 0001:0001db98       fesetenv                   000000018001eb98 f   libucrt:fesetenv.obj
 0001:0001dbe4       feholdexcept               000000018001ebe4 f   libucrt:feholdexcept.obj
 0001:0001dc34       ceil                       000000018001ec34 f   libucrt:ceil.obj
 0001:0001dd00       log10                      000000018001ed00 f   libucrt:log10.obj
 0001:0001e84c       _write                     000000018001f84c f   libucrt:write.obj
 0001:0001e938       _write_nolock              000000018001f938 f   libucrt:write.obj
 0001:0001ecb8       _lseeki64_nolock           000000018001fcb8 f   libucrt:lseek.obj
 0001:0001ecc0       _fclose_nolock             000000018001fcc0 f   libucrt:fclose.obj
 0001:0001ed44       fclose                     000000018001fd44 f   libucrt:fclose.obj
 0001:0001edb0       ??$?RV<lambda_b521505b218e5242e90febf6bfebc422>@@AEAV<lambda_6978c1fb23f02e42e1d9e99668cc68aa>@@V<lambda_314360699dd331753a4119843814e9a7>@@@?$__crt_seh_guarded_call@H@@QEAAH$$QEAV<lambda_b521505b218e5242e90febf6bfebc422>@@AEAV<lambda_6978c1fb23f02e42e1d9e99668cc68aa>@@$$QEAV<lambda_314360699dd331753a4119843814e9a7>@@@Z 000000018001fdb0 f i libucrt:commit.obj
 0001:0001ee3c       _commit                    000000018001fe3c f   libucrt:commit.obj
 0001:0001eed0       _query_app_type            000000018001fed0 f   libucrt:report_runtime_error.obj
 0001:0001eed8       _getfpcontrolword          000000018001fed8 f   libucrt:_fenvutils.obj
 0001:0001eef0       _getfpstatusword           000000018001fef0 f   libucrt:_fenvutils.obj
 0001:0001ef04       _setfpcontrolword          000000018001ff04 f   libucrt:_fenvutils.obj
 0001:0001ef10       _setfpstatusword           000000018001ff10 f   libucrt:_fenvutils.obj
 0001:0001ef60       _clearfp                   000000018001ff60 f   libucrt:ieee.obj
 0001:0001efb4       _controlfp                 000000018001ffb4 f   libucrt:ieee.obj
 0001:0001efc0       _statusfp                  000000018001ffc0 f   libucrt:ieee.obj
 0001:0001f3c4       _handle_error              00000001800203c4 f   libucrt:libm_error.obj
 0001:0001f4ec       _handle_nan                00000001800204ec f   libucrt:libm_error.obj
 0001:0001f510       __acrt_initialize_fma3     0000000180020510 f   libucrt:fma3_available.obj
 0001:0001f580       _log10_special             0000000180020580 f   libucrt:log_special.obj
 0001:0001f638       _putwch_nolock             0000000180020638 f   libucrt:putwch.obj
 0001:0001f694       ??$?RV<lambda_bfedae4ebbf01fab1bb6dcc6a9e276e0>@@AEAV<lambda_2fe9b910cf3cbf4a0ab98a02ba45b3ec>@@V<lambda_237c231691f317818eb88cc1d5d642d6>@@@?$__crt_seh_guarded_call@H@@QEAAH$$QEAV<lambda_bfedae4ebbf01fab1bb6dcc6a9e276e0>@@AEAV<lambda_2fe9b910cf3cbf4a0ab98a02ba45b3ec>@@$$QEAV<lambda_237c231691f317818eb88cc1d5d642d6>@@@Z 0000000180020694 f i libucrt:close.obj
 0001:0001f708       _close                     0000000180020708 f   libucrt:close.obj
 0001:0001f7ac       _close_nolock              00000001800207ac f   libucrt:close.obj
 0001:0001f868       ?__acrt_stdio_free_stream@@YAXV__crt_stdio_stream@@@Z 0000000180020868 f   libucrt:stream.obj
 0001:0001f8c0       _get_fpsr                  00000001800208c0 f   libucrt:fpsr.obj
 0001:0001f8d0       _set_fpsr                  00000001800208d0 f   libucrt:fpsr.obj
 0001:0001f8da       _fclrf                     00000001800208da f   libucrt:fpsr.obj
 0001:0001f8ee       _frnd                      00000001800208ee f   libucrt:fpsr.obj
 0001:0001f910       _raise_exc                 0000000180020910 f   libucrt:fpexcept.obj
 0001:0001f938       _raise_exc_ex              0000000180020938 f   libucrt:fpexcept.obj
 0001:0001fc40       _set_errno_from_matherr    0000000180020c40 f   libucrt:fpexcept.obj
 0001:0001fc70       _clrfp                     0000000180020c70 f   libucrt:fpctrl.obj
 0001:0001fc90       _ctrlfp                    0000000180020c90 f   libucrt:fpctrl.obj
 0001:0001fd0c       _set_statfp                0000000180020d0c f   libucrt:fpctrl.obj
 0001:0001fd2c       _statfp                    0000000180020d2c f   libucrt:fpctrl.obj
 0001:0001fd40       __dcrt_lowio_initialize_console_output 0000000180020d40 f   libucrt:initcon.obj
 0001:0001fd7c       __dcrt_terminate_console_output 0000000180020d7c f   libucrt:initcon.obj
 0001:0001fd9c       IsProcessorFeaturePresent  0000000180020d9c f   kernel32:KERNEL32.dll
 0001:0001fdb0       _FindPESection             0000000180020db0 f   LIBCMT:pesect.obj
 0001:0001fe00       _IsNonwritableInCurrentImage 0000000180020e00 f   LIBCMT:pesect.obj
 0001:0001fe50       _ValidateImageBase         0000000180020e50 f   LIBCMT:pesect.obj
 0001:0001fe80       strrchr                    0000000180020e80 f   libvcruntime:strrchr.obj
 0001:0001ffe0       _guard_dispatch_icall_nop  0000000180020fe0 f   LIBCMT:guard_dispatch.obj
 0002:00000000       __imp_RegQueryValueExW     0000000180022000     advapi32:ADVAPI32.dll
 0002:00000008       __imp_RegSetValueExW       0000000180022008     advapi32:ADVAPI32.dll
 0002:00000010       __imp_RegQueryInfoKeyW     0000000180022010     advapi32:ADVAPI32.dll
 0002:00000018       __imp_RegOpenKeyExW        0000000180022018     advapi32:ADVAPI32.dll
 0002:00000020       __imp_RegEnumKeyExW        0000000180022020     advapi32:ADVAPI32.dll
 0002:00000028       __imp_RegDeleteValueW      0000000180022028     advapi32:ADVAPI32.dll
 0002:00000030       __imp_RegDeleteKeyW        0000000180022030     advapi32:ADVAPI32.dll
 0002:00000038       __imp_RegCreateKeyExW      0000000180022038     advapi32:ADVAPI32.dll
 0002:00000040       __imp_RegCloseKey          0000000180022040     advapi32:ADVAPI32.dll
 0002:00000048       \177ADVAPI32_NULL_THUNK_DATA 0000000180022048     advapi32:ADVAPI32.dll
 0002:00000050       __imp_GetObjectW           0000000180022050     gdi32:GDI32.dll
 0002:00000058       __imp_SelectObject         0000000180022058     gdi32:GDI32.dll
 0002:00000060       __imp_DeleteObject         0000000180022060     gdi32:GDI32.dll
 0002:00000068       __imp_CreateCompatibleDC   0000000180022068     gdi32:GDI32.dll
 0002:00000070       __imp_BitBlt               0000000180022070     gdi32:GDI32.dll
 0002:00000078       __imp_SetWindowOrgEx       0000000180022078     gdi32:GDI32.dll
 0002:00000080       __imp_SetWindowExtEx       0000000180022080     gdi32:GDI32.dll
 0002:00000088       __imp_SetViewportOrgEx     0000000180022088     gdi32:GDI32.dll
 0002:00000090       __imp_LPtoDP               0000000180022090     gdi32:GDI32.dll
 0002:00000098       __imp_SetMapMode           0000000180022098     gdi32:GDI32.dll
 0002:000000a0       __imp_SaveDC               00000001800220a0     gdi32:GDI32.dll
 0002:000000a8       __imp_RestoreDC            00000001800220a8     gdi32:GDI32.dll
 0002:000000b0       __imp_GetDeviceCaps        00000001800220b0     gdi32:GDI32.dll
 0002:000000b8       __imp_DeleteMetaFile       00000001800220b8     gdi32:GDI32.dll
 0002:000000c0       __imp_DeleteDC             00000001800220c0     gdi32:GDI32.dll
 0002:000000c8       __imp_CreateRectRgnIndirect 00000001800220c8     gdi32:GDI32.dll
 0002:000000d0       __imp_CreateMetaFileW      00000001800220d0     gdi32:GDI32.dll
 0002:000000d8       __imp_CreateDCW            00000001800220d8     gdi32:GDI32.dll
 0002:000000e0       __imp_CloseMetaFile        00000001800220e0     gdi32:GDI32.dll
 0002:000000e8       \177GDI32_NULL_THUNK_DATA  00000001800220e8     gdi32:GDI32.dll
 0002:000000f0       __imp_CloseHandle          00000001800220f0     kernel32:KERNEL32.dll
 0002:000000f8       __imp_SetEvent             00000001800220f8     kernel32:KERNEL32.dll
 0002:00000100       __imp_CreateMutexW         0000000180022100     kernel32:KERNEL32.dll
 0002:00000108       __imp_CreateEventW         0000000180022108     kernel32:KERNEL32.dll
 0002:00000110       __imp_GetCurrentProcessId  0000000180022110     kernel32:KERNEL32.dll
 0002:00000118       __imp_CreateFileW          0000000180022118     kernel32:KERNEL32.dll
 0002:00000120       __imp_WriteConsoleW        0000000180022120     kernel32:KERNEL32.dll
 0002:00000128       __imp_FlushFileBuffers     0000000180022128     kernel32:KERNEL32.dll
 0002:00000130       __imp_SetFilePointerEx     0000000180022130     kernel32:KERNEL32.dll
 0002:00000138       __imp_GetConsoleMode       0000000180022138     kernel32:KERNEL32.dll
 0002:00000140       __imp_GetConsoleCP         0000000180022140     kernel32:KERNEL32.dll
 0002:00000148       __imp_WriteFile            0000000180022148     kernel32:KERNEL32.dll
 0002:00000150       __imp_SetStdHandle         0000000180022150     kernel32:KERNEL32.dll
 0002:00000158       __imp_GetStringTypeW       0000000180022158     kernel32:KERNEL32.dll
 0002:00000160       __imp_FreeEnvironmentStringsW 0000000180022160     kernel32:KERNEL32.dll
 0002:00000168       __imp_FindResourceW        0000000180022168     kernel32:KERNEL32.dll
 0002:00000170       __imp_GetCommandLineW      0000000180022170     kernel32:KERNEL32.dll
 0002:00000178       __imp_GetCommandLineA      0000000180022178     kernel32:KERNEL32.dll
 0002:00000180       __imp_GetCPInfo            0000000180022180     kernel32:KERNEL32.dll
 0002:00000188       __imp_GetOEMCP             0000000180022188     kernel32:KERNEL32.dll
 0002:00000190       __imp_IsValidCodePage      0000000180022190     kernel32:KERNEL32.dll
 0002:00000198       __imp_FindNextFileA        0000000180022198     kernel32:KERNEL32.dll
 0002:000001a0       __imp_FindFirstFileExA     00000001800221a0     kernel32:KERNEL32.dll
 0002:000001a8       __imp_FindClose            00000001800221a8     kernel32:KERNEL32.dll
 0002:000001b0       __imp_GetFileType          00000001800221b0     kernel32:KERNEL32.dll
 0002:000001b8       __imp_GetStdHandle         00000001800221b8     kernel32:KERNEL32.dll
 0002:000001c0       __imp_GetACP               00000001800221c0     kernel32:KERNEL32.dll
 0002:000001c8       __imp_LCMapStringW         00000001800221c8     kernel32:KERNEL32.dll
 0002:000001d0       __imp_lstrcmpiW            00000001800221d0     kernel32:KERNEL32.dll
 0002:000001d8       __imp_MulDiv               00000001800221d8     kernel32:KERNEL32.dll
 0002:000001e0       __imp_GlobalUnlock         00000001800221e0     kernel32:KERNEL32.dll
 0002:000001e8       __imp_GlobalLock           00000001800221e8     kernel32:KERNEL32.dll
 0002:000001f0       __imp_GlobalAlloc          00000001800221f0     kernel32:KERNEL32.dll
 0002:000001f8       __imp_SizeofResource       00000001800221f8     kernel32:KERNEL32.dll
 0002:00000200       __imp_LoadResource         0000000180022200     kernel32:KERNEL32.dll
 0002:00000208       __imp_LoadLibraryExW       0000000180022208     kernel32:KERNEL32.dll
 0002:00000210       __imp_GetProcAddress       0000000180022210     kernel32:KERNEL32.dll
 0002:00000218       __imp_GetModuleHandleW     0000000180022218     kernel32:KERNEL32.dll
 0002:00000220       __imp_GetModuleFileNameW   0000000180022220     kernel32:KERNEL32.dll
 0002:00000228       __imp_FreeLibrary          0000000180022228     kernel32:KERNEL32.dll
 0002:00000230       __imp_DisableThreadLibraryCalls 0000000180022230     kernel32:KERNEL32.dll
 0002:00000238       __imp_GetCurrentThreadId   0000000180022238     kernel32:KERNEL32.dll
 0002:00000240       __imp_Sleep                0000000180022240     kernel32:KERNEL32.dll
 0002:00000248       __imp_WaitForSingleObject  0000000180022248     kernel32:KERNEL32.dll
 0002:00000250       __imp_ReleaseMutex         0000000180022250     kernel32:KERNEL32.dll
 0002:00000258       __imp_ResetEvent           0000000180022258     kernel32:KERNEL32.dll
 0002:00000260       __imp_EnterCriticalSection 0000000180022260     kernel32:KERNEL32.dll
 0002:00000268       __imp_LeaveCriticalSection 0000000180022268     kernel32:KERNEL32.dll
 0002:00000270       __imp_SetLastError         0000000180022270     kernel32:KERNEL32.dll
 0002:00000278       __imp_EncodePointer        0000000180022278     kernel32:KERNEL32.dll
 0002:00000280       __imp_DeleteCriticalSection 0000000180022280     kernel32:KERNEL32.dll
 0002:00000288       __imp_InitializeCriticalSectionEx 0000000180022288     kernel32:KERNEL32.dll
 0002:00000290       __imp_GetLastError         0000000180022290     kernel32:KERNEL32.dll
 0002:00000298       __imp_RaiseException       0000000180022298     kernel32:KERNEL32.dll
 0002:000002a0       __imp_DecodePointer        00000001800222a0     kernel32:KERNEL32.dll
 0002:000002a8       __imp_WideCharToMultiByte  00000001800222a8     kernel32:KERNEL32.dll
 0002:000002b0       __imp_GetEnvironmentStringsW 00000001800222b0     kernel32:KERNEL32.dll
 0002:000002b8       __imp_MultiByteToWideChar  00000001800222b8     kernel32:KERNEL32.dll
 0002:000002c0       __imp_HeapReAlloc          00000001800222c0     kernel32:KERNEL32.dll
 0002:000002c8       __imp_HeapSize             00000001800222c8     kernel32:KERNEL32.dll
 0002:000002d0       __imp_GetModuleFileNameA   00000001800222d0     kernel32:KERNEL32.dll
 0002:000002d8       __imp_GetModuleHandleExW   00000001800222d8     kernel32:KERNEL32.dll
 0002:000002e0       __imp_ExitProcess          00000001800222e0     kernel32:KERNEL32.dll
 0002:000002e8       __imp_VirtualQuery         00000001800222e8     kernel32:KERNEL32.dll
 0002:000002f0       __imp_VirtualProtect       00000001800222f0     kernel32:KERNEL32.dll
 0002:000002f8       __imp_GetSystemInfo        00000001800222f8     kernel32:KERNEL32.dll
 0002:00000300       __imp_TlsFree              0000000180022300     kernel32:KERNEL32.dll
 0002:00000308       __imp_TlsSetValue          0000000180022308     kernel32:KERNEL32.dll
 0002:00000310       __imp_TlsGetValue          0000000180022310     kernel32:KERNEL32.dll
 0002:00000318       __imp_TlsAlloc             0000000180022318     kernel32:KERNEL32.dll
 0002:00000320       __imp_RtlPcToFileHeader    0000000180022320     kernel32:KERNEL32.dll
 0002:00000328       __imp_InterlockedFlushSList 0000000180022328     kernel32:KERNEL32.dll
 0002:00000330       __imp_RtlUnwindEx          0000000180022330     kernel32:KERNEL32.dll
 0002:00000338       __imp_LoadLibraryExA       0000000180022338     kernel32:KERNEL32.dll
 0002:00000340       __imp_VirtualFree          0000000180022340     kernel32:KERNEL32.dll
 0002:00000348       __imp_VirtualAlloc         0000000180022348     kernel32:KERNEL32.dll
 0002:00000350       __imp_FlushInstructionCache 0000000180022350     kernel32:KERNEL32.dll
 0002:00000358       __imp_InterlockedPushEntrySList 0000000180022358     kernel32:KERNEL32.dll
 0002:00000360       __imp_InterlockedPopEntrySList 0000000180022360     kernel32:KERNEL32.dll
 0002:00000368       __imp_GetProcessHeap       0000000180022368     kernel32:KERNEL32.dll
 0002:00000370       __imp_HeapFree             0000000180022370     kernel32:KERNEL32.dll
 0002:00000378       __imp_HeapAlloc            0000000180022378     kernel32:KERNEL32.dll
 0002:00000380       __imp_OutputDebugStringW   0000000180022380     kernel32:KERNEL32.dll
 0002:00000388       __imp_InitializeSListHead  0000000180022388     kernel32:KERNEL32.dll
 0002:00000390       __imp_GetSystemTimeAsFileTime 0000000180022390     kernel32:KERNEL32.dll
 0002:00000398       __imp_QueryPerformanceCounter 0000000180022398     kernel32:KERNEL32.dll
 0002:000003a0       __imp_GetStartupInfoW      00000001800223a0     kernel32:KERNEL32.dll
 0002:000003a8       __imp_IsDebuggerPresent    00000001800223a8     kernel32:KERNEL32.dll
 0002:000003b0       __imp_InitializeCriticalSectionAndSpinCount 00000001800223b0     kernel32:KERNEL32.dll
 0002:000003b8       __imp_WaitForSingleObjectEx 00000001800223b8     kernel32:KERNEL32.dll
 0002:000003c0       __imp_RtlCaptureContext    00000001800223c0     kernel32:KERNEL32.dll
 0002:000003c8       __imp_RtlLookupFunctionEntry 00000001800223c8     kernel32:KERNEL32.dll
 0002:000003d0       __imp_RtlVirtualUnwind     00000001800223d0     kernel32:KERNEL32.dll
 0002:000003d8       __imp_UnhandledExceptionFilter 00000001800223d8     kernel32:KERNEL32.dll
 0002:000003e0       __imp_SetUnhandledExceptionFilter 00000001800223e0     kernel32:KERNEL32.dll
 0002:000003e8       __imp_GetCurrentProcess    00000001800223e8     kernel32:KERNEL32.dll
 0002:000003f0       __imp_TerminateProcess     00000001800223f0     kernel32:KERNEL32.dll
 0002:000003f8       __imp_IsProcessorFeaturePresent 00000001800223f8     kernel32:KERNEL32.dll
 0002:00000400       \177KERNEL32_NULL_THUNK_DATA 0000000180022400     kernel32:KERNEL32.dll
 0002:00000408       __imp_OleCreatePropertyFrame 0000000180022408     oleaut32:OLEAUT32.dll
 0002:00000410       __imp_UnRegisterTypeLib    0000000180022410     oleaut32:OLEAUT32.dll
 0002:00000418       __imp_RegisterTypeLib      0000000180022418     oleaut32:OLEAUT32.dll
 0002:00000420       __imp_LoadRegTypeLib       0000000180022420     oleaut32:OLEAUT32.dll
 0002:00000428       __imp_LoadTypeLib          0000000180022428     oleaut32:OLEAUT32.dll
 0002:00000430       __imp_VarUI4FromStr        0000000180022430     oleaut32:OLEAUT32.dll
 0002:00000438       __imp_VariantInit          0000000180022438     oleaut32:OLEAUT32.dll
 0002:00000440       __imp_SysAllocStringByteLen 0000000180022440     oleaut32:OLEAUT32.dll
 0002:00000448       __imp_SysStringByteLen     0000000180022448     oleaut32:OLEAUT32.dll
 0002:00000450       __imp_VariantChangeType    0000000180022450     oleaut32:OLEAUT32.dll
 0002:00000458       __imp_VariantCopyInd       0000000180022458     oleaut32:OLEAUT32.dll
 0002:00000460       __imp_VariantClear         0000000180022460     oleaut32:OLEAUT32.dll
 0002:00000468       __imp_SysStringLen         0000000180022468     oleaut32:OLEAUT32.dll
 0002:00000470       __imp_SysFreeString        0000000180022470     oleaut32:OLEAUT32.dll
 0002:00000478       __imp_SysAllocStringLen    0000000180022478     oleaut32:OLEAUT32.dll
 0002:00000480       __imp_SysAllocString       0000000180022480     oleaut32:OLEAUT32.dll
 0002:00000488       \177OLEAUT32_NULL_THUNK_DATA 0000000180022488     oleaut32:OLEAUT32.dll
 0002:00000490       __imp_UnregisterClassW     0000000180022490     user32:USER32.dll
 0002:00000498       __imp_PostMessageW         0000000180022498     user32:USER32.dll
 0002:000004a0       __imp_DefWindowProcW       00000001800224a0     user32:USER32.dll
 0002:000004a8       __imp_CallWindowProcW      00000001800224a8     user32:USER32.dll
 0002:000004b0       __imp_RegisterClassExW     00000001800224b0     user32:USER32.dll
 0002:000004b8       __imp_GetClassInfoExW      00000001800224b8     user32:USER32.dll
 0002:000004c0       __imp_CreateWindowExW      00000001800224c0     user32:USER32.dll
 0002:000004c8       __imp_IsWindow             00000001800224c8     user32:USER32.dll
 0002:000004d0       __imp_IsChild              00000001800224d0     user32:USER32.dll
 0002:000004d8       __imp_DestroyWindow        00000001800224d8     user32:USER32.dll
 0002:000004e0       __imp_ShowWindow           00000001800224e0     user32:USER32.dll
 0002:000004e8       __imp_SetWindowPos         00000001800224e8     user32:USER32.dll
 0002:000004f0       __imp_CharNextW            00000001800224f0     user32:USER32.dll
 0002:000004f8       __imp_SetFocus             00000001800224f8     user32:USER32.dll
 0002:00000500       __imp_LoadBitmapW          0000000180022500     user32:USER32.dll
 0002:00000508       __imp_RegisterClassW       0000000180022508     user32:USER32.dll
 0002:00000510       __imp_PeekMessageW         0000000180022510     user32:USER32.dll
 0002:00000518       __imp_LoadCursorW          0000000180022518     user32:USER32.dll
 0002:00000520       __imp_GetParent            0000000180022520     user32:USER32.dll
 0002:00000528       __imp_SetWindowLongPtrW    0000000180022528     user32:USER32.dll
 0002:00000530       __imp_GetWindowLongPtrW    0000000180022530     user32:USER32.dll
 0002:00000538       __imp_PtInRect             0000000180022538     user32:USER32.dll
 0002:00000540       __imp_EqualRect            0000000180022540     user32:USER32.dll
 0002:00000548       __imp_OffsetRect           0000000180022548     user32:USER32.dll
 0002:00000550       __imp_UnionRect            0000000180022550     user32:USER32.dll
 0002:00000558       __imp_IntersectRect        0000000180022558     user32:USER32.dll
 0002:00000560       __imp_GetClientRect        0000000180022560     user32:USER32.dll
 0002:00000568       __imp_InvalidateRect       0000000180022568     user32:USER32.dll
 0002:00000570       __imp_SetWindowRgn         0000000180022570     user32:USER32.dll
 0002:00000578       __imp_EndPaint             0000000180022578     user32:USER32.dll
 0002:00000580       __imp_BeginPaint           0000000180022580     user32:USER32.dll
 0002:00000588       __imp_ReleaseDC            0000000180022588     user32:USER32.dll
 0002:00000590       __imp_GetDC                0000000180022590     user32:USER32.dll
 0002:00000598       __imp_GetKeyState          0000000180022598     user32:USER32.dll
 0002:000005a0       __imp_GetFocus             00000001800225a0     user32:USER32.dll
 0002:000005a8       \177USER32_NULL_THUNK_DATA 00000001800225a8     user32:USER32.dll
 0002:000005b0       __imp_CoCreateInstance     00000001800225b0     ole32:ole32.dll
 0002:000005b8       __imp_StringFromGUID2      00000001800225b8     ole32:ole32.dll
 0002:000005c0       __imp_CoTaskMemAlloc       00000001800225c0     ole32:ole32.dll
 0002:000005c8       __imp_CoTaskMemRealloc     00000001800225c8     ole32:ole32.dll
 0002:000005d0       __imp_CreateDataAdviseHolder 00000001800225d0     ole32:ole32.dll
 0002:000005d8       __imp_ReadClassStm         00000001800225d8     ole32:ole32.dll
 0002:000005e0       __imp_WriteClassStm        00000001800225e0     ole32:ole32.dll
 0002:000005e8       __imp_OleSaveToStream      00000001800225e8     ole32:ole32.dll
 0002:000005f0       __imp_CreateOleAdviseHolder 00000001800225f0     ole32:ole32.dll
 0002:000005f8       __imp_OleRegGetUserType    00000001800225f8     ole32:ole32.dll
 0002:00000600       __imp_OleRegGetMiscStatus  0000000180022600     ole32:ole32.dll
 0002:00000608       __imp_OleRegEnumVerbs      0000000180022608     ole32:ole32.dll
 0002:00000610       __imp_CLSIDFromProgID      0000000180022610     ole32:ole32.dll
 0002:00000618       __imp_CoTaskMemFree        0000000180022618     ole32:ole32.dll
 0002:00000620       \177ole32_NULL_THUNK_DATA  0000000180022620     ole32:ole32.dll
 0002:00000628       __guard_check_icall_fptr   0000000180022628     LIBCMT:guard_support.obj
 0002:00000630       __guard_dispatch_icall_fptr 0000000180022630     LIBCMT:guard_support.obj
 0002:00000638       __xc_a                     0000000180022638     LIBCMT:initializers.obj
 0002:00000668       __xc_z                     0000000180022668     LIBCMT:initializers.obj
 0002:00000670       __xi_a                     0000000180022670     LIBCMT:initializers.obj
 0002:00000680       __acrt_stdio_initializer   0000000180022680     libucrt:stdio_initializer.obj
 0002:00000688       __acrt_multibyte_initializer 0000000180022688     libucrt:multibyte_initializer.obj
 0002:00000690       __acrt_tran_fma3_initializer 0000000180022690     libucrt:fma3_initializer.obj
 0002:00000698       __xi_z                     0000000180022698     LIBCMT:initializers.obj
 0002:000006a0       __xl_a                     00000001800226a0     LIBCMT:tlssup.obj
 0002:000006a8       __xl_z                     00000001800226a8     LIBCMT:tlssup.obj
 0002:000006b0       __xp_a                     00000001800226b0     LIBCMT:initializers.obj
 0002:000006b8       __acrt_locale_terminator   00000001800226b8     libucrt:locale_initializer.obj
 0002:000006c0       __dcrt_console_output_terminator 00000001800226c0     libucrt:console_output_initializer.obj
 0002:000006c8       __acrt_stdio_terminator    00000001800226c8     libucrt:stdio_initializer.obj
 0002:000006d0       __xp_z                     00000001800226d0     LIBCMT:initializers.obj
 0002:000006d8       __xt_a                     00000001800226d8     LIBCMT:initializers.obj
 0002:000006e0       __xt_z                     00000001800226e0     LIBCMT:initializers.obj
 0002:000006f0       ??_C@_13HADIAKP@?$AAS@     00000001800226f0     OposVariant.obj
 0002:000006f4       ??_C@_13LHMFKAAD@?$AAM@    00000001800226f4     OposVariant.obj
 0002:000006f8       ??_C@_13MKMNOPIJ@?$AAD@    00000001800226f8     OposVariant.obj
 0002:000006fc       ??_C@_13OPKGLAFF@?$AAB@    00000001800226fc     OposVariant.obj
 0002:00000700       ??_C@_17LLMMEOJD@?$AAV?$AAa?$AAl@ 0000000180022700     OposVariant.obj
 0002:00000708       ??_C@_1BI@JFAIJMHL@?$AAF?$AAo?$AAr?$AAc?$AAe?$AAR?$AAe?$AAm?$AAo?$AAv?$AAe@ 0000000180022708     OposVariant.obj
 0002:00000720       ??_C@_1BC@GCKHIPE@?$AAN?$AAo?$AAR?$AAe?$AAm?$AAo?$AAv?$AAe@ 0000000180022720     OposVariant.obj
 0002:00000738       ??_C@_1O@JDLOHAN@?$AAD?$AAe?$AAl?$AAe?$AAt?$AAe@ 0000000180022738     OposVariant.obj
 0002:00000748       ??_C@_11LOCGONAA@@         0000000180022748     OposVariant.obj
 0002:00000750       ??_7?$CComObjectCached@VCComClassFactory@ATL@@@ATL@@6B@ 0000000180022750     MSR.obj
 0002:00000780       ??_C@_1M@PPPPCDEP@?$AAA?$AAP?$AAP?$AAI?$AAD@ 0000000180022780     MSR.obj
 0002:00000790       ??_7?$CComContainedObject@VCOPOSMSR@@@ATL@@6B?$IDispatchImpl@UIOPOSMSR@@$1?IID_IOPOSMSR@@3U_GUID@@B$1?LIBID_OposMSR_CCO@@3U3@B$00$0A@VCComTypeInfoHolder@ATL@@@1@@ 0000000180022790     MSR.obj
 0002:00000b58       ??_7?$CComContainedObject@VCOPOSMSR@@@ATL@@6BCComControlBase@1@@ 0000000180022b58     MSR.obj
 0002:00000b80       ??_7?$CComContainedObject@VCOPOSMSR@@@ATL@@6B?$CWindowImpl@VCOPOSMSR@@VCWindow@ATL@@V?$CWinTraits@$0FGAAAAAA@$0A@@3@@1@@ 0000000180022b80     MSR.obj
 0002:00000ba0       ??_7?$CComContainedObject@VCOPOSMSR@@@ATL@@6B?$IPersistStreamInitImpl@VCOPOSMSR@@@1@@ 0000000180022ba0     MSR.obj
 0002:00000be8       ??_7?$CComContainedObject@VCOPOSMSR@@@ATL@@6B?$IOleControlImpl@VCOPOSMSR@@@1@@ 0000000180022be8     MSR.obj
 0002:00000c20       ??_7?$CComContainedObject@VCOPOSMSR@@@ATL@@6B?$IOleObjectImpl@VCOPOSMSR@@@1@@ 0000000180022c20     MSR.obj
 0002:00000ce0       ??_7?$CComContainedObject@VCOPOSMSR@@@ATL@@6B?$IOleInPlaceActiveObjectImpl@VCOPOSMSR@@@1@@ 0000000180022ce0     MSR.obj
 0002:00000d30       ??_7?$CComContainedObject@VCOPOSMSR@@@ATL@@6B?$IViewObjectExImpl@VCOPOSMSR@@@1@@ 0000000180022d30     MSR.obj
 0002:00000da8       ??_7?$CComContainedObject@VCOPOSMSR@@@ATL@@6B?$IOleInPlaceObjectWindowlessImpl@VCOPOSMSR@@@1@@ 0000000180022da8     MSR.obj
 0002:00000e00       ??_7?$CComContainedObject@VCOPOSMSR@@@ATL@@6B?$IConnectionPointContainerImpl@VCOPOSMSR@@@1@@ 0000000180022e00     MSR.obj
 0002:00000e28       ??_7?$CComContainedObject@VCOPOSMSR@@@ATL@@6B?$IPersistStorageImpl@VCOPOSMSR@@@1@@ 0000000180022e28     MSR.obj
 0002:00000e78       ??_7?$CComContainedObject@VCOPOSMSR@@@ATL@@6B?$ISpecifyPropertyPagesImpl@VCOPOSMSR@@@1@@ 0000000180022e78     MSR.obj
 0002:00000e98       ??_7?$CComContainedObject@VCOPOSMSR@@@ATL@@6B?$IQuickActivateImpl@VCOPOSMSR@@@1@@ 0000000180022e98     MSR.obj
 0002:00000ec8       ??_7?$CComContainedObject@VCOPOSMSR@@@ATL@@6B?$IDataObjectImpl@VCOPOSMSR@@@1@@ 0000000180022ec8     MSR.obj
 0002:00000f28       ??_7?$CComContainedObject@VCOPOSMSR@@@ATL@@6B?$IProvideClassInfo2Impl@$1?CLSID_OPOSMSR@@3U_GUID@@B$1?DIID__IOPOSMSREvents@@3U2@B$1?LIBID_OposMSR_CCO@@3U2@B$00$0A@VCComTypeInfoHolder@ATL@@@1@@ 0000000180022f28     MSR.obj
 0002:00000f50       ??_7?$CComContainedObject@VCOPOSMSR@@@ATL@@6B?$IObjectSafetyImpl@VCOPOSMSR@@$02@1@@ 0000000180022f50     MSR.obj
 0002:00000f80       ??_7?$CComContainedObject@VCOPOSMSR@@@ATL@@6B?$IPropertyNotifySinkCP@VCOPOSMSR@@VCComDynamicUnkArray@ATL@@@1@@ 0000000180022f80     MSR.obj
 0002:00000fc0       ??_7?$CComContainedObject@VCOPOSMSR@@@ATL@@6B?$CProxy_IOPOSEvents@VCOPOSMSR@@@@@ 0000000180022fc0     MSR.obj
 0002:00001000       ??_7?$CComAggObject@VCOPOSMSR@@@ATL@@6B@ 0000000180023000     MSR.obj
 0002:00001020       ??_7?$CComObject@VCOPOSMSR@@@ATL@@6B?$IDispatchImpl@UIOPOSMSR@@$1?IID_IOPOSMSR@@3U_GUID@@B$1?LIBID_OposMSR_CCO@@3U3@B$00$0A@VCComTypeInfoHolder@ATL@@@1@@ 0000000180023020     MSR.obj
 0002:000013e8       ??_7?$CComObject@VCOPOSMSR@@@ATL@@6BCComControlBase@1@@ 00000001800233e8     MSR.obj
 0002:00001410       ??_7?$CComObject@VCOPOSMSR@@@ATL@@6B?$CWindowImpl@VCOPOSMSR@@VCWindow@ATL@@V?$CWinTraits@$0FGAAAAAA@$0A@@3@@1@@ 0000000180023410     MSR.obj
 0002:00001430       ??_7?$CComObject@VCOPOSMSR@@@ATL@@6B?$IPersistStreamInitImpl@VCOPOSMSR@@@1@@ 0000000180023430     MSR.obj
 0002:00001478       ??_7?$CComObject@VCOPOSMSR@@@ATL@@6B?$IOleControlImpl@VCOPOSMSR@@@1@@ 0000000180023478     MSR.obj
 0002:000014b0       ??_7?$CComObject@VCOPOSMSR@@@ATL@@6B?$IOleObjectImpl@VCOPOSMSR@@@1@@ 00000001800234b0     MSR.obj
 0002:00001570       ??_7?$CComObject@VCOPOSMSR@@@ATL@@6B?$IOleInPlaceActiveObjectImpl@VCOPOSMSR@@@1@@ 0000000180023570     MSR.obj
 0002:000015c0       ??_7?$CComObject@VCOPOSMSR@@@ATL@@6B?$IViewObjectExImpl@VCOPOSMSR@@@1@@ 00000001800235c0     MSR.obj
 0002:00001638       ??_7?$CComObject@VCOPOSMSR@@@ATL@@6B?$IOleInPlaceObjectWindowlessImpl@VCOPOSMSR@@@1@@ 0000000180023638     MSR.obj
 0002:00001690       ??_7?$CComObject@VCOPOSMSR@@@ATL@@6B?$IConnectionPointContainerImpl@VCOPOSMSR@@@1@@ 0000000180023690     MSR.obj
 0002:000016b8       ??_7?$CComObject@VCOPOSMSR@@@ATL@@6B?$IPersistStorageImpl@VCOPOSMSR@@@1@@ 00000001800236b8     MSR.obj
 0002:00001708       ??_7?$CComObject@VCOPOSMSR@@@ATL@@6B?$ISpecifyPropertyPagesImpl@VCOPOSMSR@@@1@@ 0000000180023708     MSR.obj
 0002:00001728       ??_7?$CComObject@VCOPOSMSR@@@ATL@@6B?$IQuickActivateImpl@VCOPOSMSR@@@1@@ 0000000180023728     MSR.obj
 0002:00001758       ??_7?$CComObject@VCOPOSMSR@@@ATL@@6B?$IDataObjectImpl@VCOPOSMSR@@@1@@ 0000000180023758     MSR.obj
 0002:000017b8       ??_7?$CComObject@VCOPOSMSR@@@ATL@@6B?$IProvideClassInfo2Impl@$1?CLSID_OPOSMSR@@3U_GUID@@B$1?DIID__IOPOSMSREvents@@3U2@B$1?LIBID_OposMSR_CCO@@3U2@B$00$0A@VCComTypeInfoHolder@ATL@@@1@@ 00000001800237b8     MSR.obj
 0002:000017e0       ??_7?$CComObject@VCOPOSMSR@@@ATL@@6B?$IObjectSafetyImpl@VCOPOSMSR@@$02@1@@ 00000001800237e0     MSR.obj
 0002:00001810       ??_7?$CComObject@VCOPOSMSR@@@ATL@@6B?$IPropertyNotifySinkCP@VCOPOSMSR@@VCComDynamicUnkArray@ATL@@@1@@ 0000000180023810     MSR.obj
 0002:00001850       ??_7?$CComObject@VCOPOSMSR@@@ATL@@6B?$CProxy_IOPOSEvents@VCOPOSMSR@@@@@ 0000000180023850     MSR.obj
 0002:00001890       ??_C@_1O@GBFKGNEO@?$AAA?$AAT?$AAL?$AA?3?$AA?$CF?$AAp@ 0000000180023890     MSR.obj
 0002:000018a0       ??_C@_1BA@PICGEGJB@?$AAD?$AAI?$AAS?$AAP?$AAL?$AAA?$AAY@ 00000001800238a0     MSR.obj
 0002:000018b0       _GUID_9bfbbc02_eff1_101a_84ed_00aa00341d07 00000001800238b0     MSR.obj
 0002:000018c0       ?_entries@?1??_GetEntries@?$CComEnum@UIEnumConnectionPoints@@$1?_GUID_b196b285_bab4_101a_b69c_00aa00341d07@@3U__s_GUID@@BPEAUIConnectionPoint@@V?$_CopyInterface@UIConnectionPoint@@@ATL@@VCComSingleThreadModel@6@@ATL@@SAPEBU_ATL_INTMAP_ENTRY@3@XZ@4QBU43@B 00000001800238c0     MSR.obj
 0002:000018f0       ??_7CComClassFactory@ATL@@6B@ 00000001800238f0     MSR.obj
 0002:00001920       ?_entries@?1??_GetEntries@CComClassFactory@ATL@@SAPEBU_ATL_INTMAP_ENTRY@3@XZ@4QBU43@B 0000000180023920     MSR.obj
 0002:00001950       _GUID_00000001_0000_0000_c000_000000000046 0000000180023950     MSR.obj
 0002:00001960       _GUID_00020412_0000_0000_c000_000000000046 0000000180023960     MSR.obj
 0002:00001970       _GUID_00020401_0000_0000_c000_000000000046 0000000180023970     MSR.obj
 0002:00001980       _GUID_55980ba0_35aa_11cf_b671_00aa004cd6d8 0000000180023980     MSR.obj
 0002:00001990       _GUID_b196b28b_bab4_101a_b69c_00aa00341d07 0000000180023990     MSR.obj
 0002:000019a0       ??_7?$CComObject@V?$CComEnum@UIEnumConnections@@$1?_GUID_b196b287_bab4_101a_b69c_00aa00341d07@@3U__s_GUID@@BUtagCONNECTDATA@@V?$_Copy@UtagCONNECTDATA@@@ATL@@VCComSingleThreadModel@6@@ATL@@@ATL@@6B@ 00000001800239a0     MSR.obj
 0002:000019e0       ??_C@_1BK@BIGILECK@?$AAA?$AAd?$AAv?$AAa?$AAp?$AAi?$AA3?$AA2?$AA?4?$AAd?$AAl?$AAl@ 00000001800239e0     MSR.obj
 0002:00001a00       ??_C@_0BI@MNCFCPFK@RegCreateKeyTransactedW@ 0000000180023a00     MSR.obj
 0002:00001a18       ?_entries@?1??_GetEntries@?$CComEnum@UIEnumConnections@@$1?_GUID_b196b287_bab4_101a_b69c_00aa00341d07@@3U__s_GUID@@BUtagCONNECTDATA@@V?$_Copy@UtagCONNECTDATA@@@ATL@@VCComSingleThreadModel@6@@ATL@@SAPEBU_ATL_INTMAP_ENTRY@3@XZ@4QBU43@B 0000000180023a18     MSR.obj
 0002:00001a48       _GUID_b196b287_bab4_101a_b69c_00aa00341d07 0000000180023a48     MSR.obj
 0002:00001a58       _GUID_b196b285_bab4_101a_b69c_00aa00341d07 0000000180023a58     MSR.obj
 0002:00001a68       _GUID_a6bc3ac0_dbaa_11ce_9de3_00aa004bb851 0000000180023a68     MSR.obj
 0002:00001a78       _GUID_0000010c_0000_0000_c000_000000000046 0000000180023a78     MSR.obj
 0002:00001a88       _GUID_00000146_0000_0000_c000_000000000046 0000000180023a88     MSR.obj
 0002:00001a98       IID_IOPOSMSR_1_5           0000000180023a98     MSR.obj
 0002:00001aa8       IID_IOPOSMSR_1_8           0000000180023aa8     MSR.obj
 0002:00001ab8       IID_IOPOSMSR_1_9           0000000180023ab8     MSR.obj
 0002:00001ac8       IID_IOPOSMSR_1_10          0000000180023ac8     MSR.obj
 0002:00001ad8       IID_IOPOSMSR_1_12          0000000180023ad8     MSR.obj
 0002:00001ae8       IID_IOPOSMSR               0000000180023ae8     MSR.obj
 0002:00001af8       LIBID_OposMSR_CCO          0000000180023af8     MSR.obj
 0002:00001b08       DIID__IOPOSMSREvents       0000000180023b08     MSR.obj
 0002:00001b18       CLSID_OPOSMSR              0000000180023b18     MSR.obj
 0002:00001b28       ??_7CComModule@ATL@@6B@    0000000180023b28     MSR.obj
 0002:00001b78       _GUID_00000114_0000_0000_c000_000000000046 0000000180023b78     MSR.obj
 0002:00001b88       _GUID_00000000_0000_0000_c000_000000000046 0000000180023b88     MSR.obj
 0002:00001b98       _GUID_00020400_0000_0000_c000_000000000046 0000000180023b98     MSR.obj
 0002:00001ba8       ??_C@_1M@KANJNLFF@?$AAC?$AAL?$AAS?$AAI?$AAD@ 0000000180023ba8     MSR.obj
 0002:00001bb8       ??_C@_1M@EJNEECMJ@?$AAA?$AAp?$AAp?$AAI?$AAD@ 0000000180023bb8     MSR.obj
 0002:00001bd0       ?rgszNeverDelete@CRegParser@ATL@@1QBQEB_WB 0000000180023bd0     MSR.obj
 0002:00001c30       ??_7CRegObject@ATL@@6B@    0000000180023c30     MSR.obj
 0002:00001c60       ?_entries@?1??_GetEntries@COPOSMSR@@SAPEBU_ATL_INTMAP_ENTRY@ATL@@XZ@4QBU34@B 0000000180023c60     MSR.obj
 0002:00001f00       ??_C@_1CK@OEKPKBNA@?$AAC?$AAo?$AAm?$AAp?$AAo?$AAn?$AAe?$AAn?$AAt?$AA?5?$AAC?$AAa?$AAt?$AAe?$AAg@ 0000000180023f00     MSR.obj
 0002:00001f30       ??_C@_1BC@NKMMNMGL@?$AAF?$AAi?$AAl?$AAe?$AAT?$AAy?$AAp?$AAe@ 0000000180023f30     MSR.obj
 0002:00001f48       ??_C@_1BE@EKPAFMCP@?$AAI?$AAn?$AAt?$AAe?$AAr?$AAf?$AAa?$AAc?$AAe@ 0000000180023f48     MSR.obj
 0002:00001f60       ??_C@_1BC@MAICEHGI@?$AAH?$AAa?$AAr?$AAd?$AAw?$AAa?$AAr?$AAe@ 0000000180023f60     MSR.obj
 0002:00001f78       _GUID_922eada0_3424_11cf_b670_00aa004cd6d8 0000000180023f78     MSR.obj
 0002:00001f88       ??_C@_19HLLLM@?$AAM?$AAi?$AAm?$AAe@ 0000000180023f88     MSR.obj
 0002:00001f98       ??_C@_17OMAOINJK@?$AAS?$AAA?$AAM@ 0000000180023f98     MSR.obj
 0002:00001fa0       ??_C@_1BC@IBECJAAI@?$AAS?$AAE?$AAC?$AAU?$AAR?$AAI?$AAT?$AAY@ 0000000180023fa0     MSR.obj
 0002:00001fb8       ??_C@_1O@GBFINDKL@?$AAS?$AAY?$AAS?$AAT?$AAE?$AAM@ 0000000180023fb8     MSR.obj
 0002:00001fc8       ??_C@_1BC@EAHCMADO@?$AAS?$AAo?$AAf?$AAt?$AAw?$AAa?$AAr?$AAe@ 0000000180023fc8     MSR.obj
 0002:00001fe0       _GUID_9c2cad80_3424_11cf_b670_00aa004cd6d8 0000000180023fe0     MSR.obj
 0002:00001ff0       ??_C@_1BA@JIHHIEDE@?$AAT?$AAy?$AAp?$AAe?$AAL?$AAi?$AAb@ 0000000180023ff0     MSR.obj
 0002:00002000       _GUID_00000119_0000_0000_c000_000000000046 0000000180024000     MSR.obj
 0002:00002010       _GUID_b196b289_bab4_101a_b69c_00aa00341d07 0000000180024010     MSR.obj
 0002:00002020       ?map@?1??HKeyFromString@CRegParser@ATL@@KAPEAUHKEY__@@PEA_W@Z@4QBUkeymap@?1??123@KAPEAU4@0@Z@B 0000000180024020     MSR.obj
 0002:00002100       _GUID_cf51ed10_62fe_11cf_bf86_00a0c9034836 0000000180024100     MSR.obj
 0002:00002110       _GUID_0000010a_0000_0000_c000_000000000046 0000000180024110     MSR.obj
 0002:00002120       _GUID_b196b283_bab4_101a_b69c_00aa00341d07 0000000180024120     MSR.obj
 0002:00002130       _GUID_cb5bdc81_93c1_11cf_8f20_00805f2cd064 0000000180024130     MSR.obj
 0002:00002140       ?pPropMap@?1??GetPropertyMap@COPOSMSR@@SAPEBUATL_PROPMAP_ENTRY@ATL@@XZ@4QBU34@B 0000000180024140     MSR.obj
 0002:000021e8       ??_C@_19NCHLBIN@?$AAH?$AAK?$AAC?$AAR@ 00000001800241e8     MSR.obj
 0002:000021f8       ??_C@_19JAPAIJDE@?$AAH?$AAK?$AAC?$AAU@ 00000001800241f8     MSR.obj
 0002:00002208       ??_C@_17DGDADEHL@?$AA_?$AAc?$AAx@ 0000000180024208     MSR.obj
 0002:00002210       ??_C@_19PEALEEJB@?$AAH?$AAK?$AAL?$AAM@ 0000000180024210     MSR.obj
 0002:00002220       ??_C@_17IOIMFDBO@?$AA_?$AAc?$AAy@ 0000000180024220     MSR.obj
 0002:00002228       ??_C@_17PJOJPMPB@?$AAH?$AAK?$AAU@ 0000000180024228     MSR.obj
 0002:00002230       ??_C@_19PNBHMJPL@?$AAH?$AAK?$AAP?$AAD@ 0000000180024230     MSR.obj
 0002:00002240       ??_C@_19GFFAIJHG@?$AAH?$AAK?$AAD?$AAD@ 0000000180024240     MSR.obj
 0002:00002250       ??_C@_19OFICIBHH@?$AAH?$AAK?$AAC?$AAC@ 0000000180024250     MSR.obj
 0002:00002260       ??_C@_1CE@PACHPJFI@?$AAH?$AAK?$AAE?$AAY?$AA_?$AAC?$AAL?$AAA?$AAS?$AAS?$AAE?$AAS?$AA_?$AAR?$AAO@ 0000000180024260     MSR.obj
 0002:00002288       ??_C@_1CE@HLHNCBPM@?$AAH?$AAK?$AAE?$AAY?$AA_?$AAC?$AAU?$AAR?$AAR?$AAE?$AAN?$AAT?$AA_?$AAU?$AAS@ 0000000180024288     MSR.obj
 0002:000022b0       ??_C@_1CG@GFBEANJL@?$AAH?$AAK?$AAE?$AAY?$AA_?$AAL?$AAO?$AAC?$AAA?$AAL?$AA_?$AAM?$AAA?$AAC?$AAH@ 00000001800242b0     MSR.obj
 0002:000022d8       ??_C@_1BG@BGODANIO@?$AAH?$AAK?$AAE?$AAY?$AA_?$AAU?$AAS?$AAE?$AAR?$AAS@ 00000001800242d8     MSR.obj
 0002:000022f0       ??_C@_1CM@KHNNAOIC@?$AAH?$AAK?$AAE?$AAY?$AA_?$AAP?$AAE?$AAR?$AAF?$AAO?$AAR?$AAM?$AAA?$AAN?$AAC@ 00000001800242f0     MSR.obj
 0002:00002320       ??_C@_1BM@HAGMMHIA@?$AAH?$AAK?$AAE?$AAY?$AA_?$AAD?$AAY?$AAN?$AA_?$AAD?$AAA?$AAT?$AAA@ 0000000180024320     MSR.obj
 0002:00002340       ??_C@_1CI@BBJOACGG@?$AAH?$AAK?$AAE?$AAY?$AA_?$AAC?$AAU?$AAR?$AAR?$AAE?$AAN?$AAT?$AA_?$AAC?$AAO@ 0000000180024340     MSR.obj
 0002:00002368       _GUID_00000117_0000_0000_c000_000000000046 0000000180024368     MSR.obj
 0002:00002378       _GUID_00000109_0000_0000_c000_000000000046 0000000180024378     MSR.obj
 0002:00002388       _GUID_7fd52380_4e07_101b_ae2d_08002b2ec713 0000000180024388     MSR.obj
 0002:00002398       _GUID_b196b286_bab4_101a_b69c_00aa00341d07 0000000180024398     MSR.obj
 0002:000023a8       ??_C@_1CE@PGFMOFKI@?$AAS?$AAt?$AAa?$AAt?$AAu?$AAs?$AAU?$AAp?$AAd?$AAa?$AAt?$AAe?$AAE?$AAv?$AAe@ 00000001800243a8     MSR.obj
 0002:000023d0       ??_C@_1BG@LODEBHDD@?$AAE?$AAr?$AAr?$AAo?$AAr?$AAE?$AAv?$AAe?$AAn?$AAt@ 00000001800243d0     MSR.obj
 0002:000023e8       ??_C@_1BM@CBGEBBBJ@?$AAD?$AAi?$AAr?$AAe?$AAc?$AAt?$AAI?$AAO?$AAE?$AAv?$AAe?$AAn?$AAt@ 00000001800243e8     MSR.obj
 0002:00002408       ??_C@_1BE@IEBMACEM@?$AAD?$AAa?$AAt?$AAa?$AAE?$AAv?$AAe?$AAn?$AAt@ 0000000180024408     MSR.obj
 0002:00002420       ??_C@_1EA@NHKLICFA@?$AAH?$AAK?$AAC?$AAU?$AA?$AN?$AA?6?$AA?$HL?$AA?7?$AAS?$AAo?$AAf?$AAt?$AAw?$AAa?$AAr@ 0000000180024420     MSR.obj
 0002:00002460       ??_C@_1BE@LJOLIMEM@?$AA?$AN?$AA?6?$AA?7?$AA?$HN?$AA?$AN?$AA?6?$AA?$HN?$AA?$AN?$AA?6@ 0000000180024460     MSR.obj
 0002:00002478       ??_C@_1BC@ENICKDH@?$AAC?$AAo?$AAn?$AAt?$AAe?$AAn?$AAt?$AAs@ 0000000180024478     MSR.obj
 0002:00002490       ??_C@_1O@MNLDABAF@?$AAM?$AAo?$AAd?$AAu?$AAl?$AAe@ 0000000180024490     MSR.obj
 0002:000024a0       ??_C@_1BG@JBACFMF@?$AAM?$AAo?$AAd?$AAu?$AAl?$AAe?$AA_?$AAR?$AAa?$AAw@ 00000001800244a0     MSR.obj
 0002:000024b8       ??_C@_1BC@KAILKFFG@?$AAR?$AAE?$AAG?$AAI?$AAS?$AAT?$AAR?$AAY@ 00000001800244b8     MSR.obj
 0002:000024d0       ??_7?$CComObject@V?$CComEnum@UIEnumConnectionPoints@@$1?_GUID_b196b285_bab4_101a_b69c_00aa00341d07@@3U__s_GUID@@BPEAUIConnectionPoint@@V?$_CopyInterface@UIConnectionPoint@@@ATL@@VCComSingleThreadModel@6@@ATL@@@ATL@@6B@ 00000001800244d0     MSR.obj
 0002:00002510       _GUID_0000010e_0000_0000_c000_000000000046 0000000180024510     MSR.obj
 0002:00002520       _GUID_b196b288_bab4_101a_b69c_00aa00341d07 0000000180024520     MSR.obj
 0002:00002530       _GUID_00000113_0000_0000_c000_000000000046 0000000180024530     MSR.obj
 0002:00002540       _GUID_1c2056cc_5ef4_101b_8bc8_00aa003e3b29 0000000180024540     MSR.obj
 0002:00002550       _GUID_b196b284_bab4_101a_b69c_00aa00341d07 0000000180024550     MSR.obj
 0002:00002560       _GUID_00000112_0000_0000_c000_000000000046 0000000180024560     MSR.obj
 0002:00002570       _GUID_3af24292_0c96_11ce_a0cf_00aa00600ab8 0000000180024570     MSR.obj
 0002:00002580       _GUID_00000127_0000_0000_c000_000000000046 0000000180024580     MSR.obj
 0002:00002590       _GUID_0000010d_0000_0000_c000_000000000046 0000000180024590     MSR.obj
 0002:000025a0       ??_C@_0BG@EKFFMJIO@RegOpenKeyTransactedW@ 00000001800245a0     MSR.obj
 0002:000025b8       ??_C@_0BI@HAKLOOGP@RegDeleteKeyTransactedW@ 00000001800245b8     MSR.obj
 0002:000025d0       ??_C@_0BA@LILAPHGE@RegDeleteKeyExW@ 00000001800245d0     MSR.obj
 0002:000025e0       ??_C@_19ILOCMLCJ@?$AA?4?$AAt?$AAl?$AAb@ 00000001800245e0     MSR.obj
 0002:000025f0       _GUID_0002e012_0000_0000_c000_000000000046 00000001800245f0     MSR.obj
 0002:00002600       ??_C@_1O@FHBGLCIO@?$AAC?$AAL?$AAS?$AAI?$AAD?$AA?2@ 0000000180024600     MSR.obj
 0002:00002610       ??_C@_1CK@IFBKBFAA@?$AA?2?$AAR?$AAe?$AAq?$AAu?$AAi?$AAr?$AAe?$AAd?$AA?5?$AAC?$AAa?$AAt?$AAe?$AAg@ 0000000180024610     MSR.obj
 0002:00002640       ??_C@_1DA@BIHALFED@?$AA?2?$AAI?$AAm?$AAp?$AAl?$AAe?$AAm?$AAe?$AAn?$AAt?$AAe?$AAd?$AA?5?$AAC?$AAa@ 0000000180024640     MSR.obj
 0002:00002670       ??_C@_1BK@EDKOLFBJ@?$AAO?$AAL?$AAE?$AAA?$AAU?$AAT?$AA3?$AA2?$AA?4?$AAD?$AAL?$AAL@ 0000000180024670     MSR.obj
 0002:00002690       ??_C@_0BJ@CNLFOMHB@UnRegisterTypeLibForUser@ 0000000180024690     MSR.obj
 0002:000026b0       ??_C@_0BH@LBOMMKPJ@RegisterTypeLibForUser@ 00000001800246b0     MSR.obj
 0002:000026c8       ??_C@_0P@MMNMMLGK@COFreezeEvents@ 00000001800246c8     MSRImpl.obj
 0002:000026d8       ??_C@_0BC@OGCGGIMP@GetPropertyNumber@ 00000001800246d8     MSRImpl.obj
 0002:000026f0       ??_C@_0BC@MDCNODNB@SetPropertyNumber@ 00000001800246f0     MSRImpl.obj
 0002:00002708       ??_C@_0BC@CFCCMIMD@GetPropertyString@ 0000000180024708     MSRImpl.obj
 0002:00002720       ??_C@_0BC@CJEDNN@SetPropertyString@ 0000000180024720     MSRImpl.obj
 0002:00002738       ??_C@_0M@LNPKKKDA@OpenService@ 0000000180024738     MSRImpl.obj
 0002:00002748       ??_C@_0M@PCMCHHMH@CheckHealth@ 0000000180024748     MSRImpl.obj
 0002:00002758       ??_C@_0M@JGMIDNEK@ClaimDevice@ 0000000180024758     MSRImpl.obj
 0002:00002768       ??_C@_0L@BNEIFEJC@ClearInput@ 0000000180024768     MSRImpl.obj
 0002:00002778       ??_C@_0N@DDFIIBMP@CloseService@ 0000000180024778     MSRImpl.obj
 0002:00002788       ??_C@_08EEIHICPC@DirectIO@ 0000000180024788     MSRImpl.obj
 0002:00002798       ??_C@_0O@BCPMENMJ@ReleaseDevice@ 0000000180024798     MSRImpl.obj
 0002:000027a8       ??_C@_0BA@GFABKEEE@ResetStatistics@ 00000001800247a8     MSRImpl.obj
 0002:000027b8       ??_C@_0BD@DPALHJGC@RetrieveStatistics@ 00000001800247b8     MSRImpl.obj
 0002:000027d0       ??_C@_0BB@KOHIKNFC@UpdateStatistics@ 00000001800247d0     MSRImpl.obj
 0002:000027e8       ??_C@_0BH@PBKBNMGB@CompareFirmwareVersion@ 00000001800247e8     MSRImpl.obj
 0002:00002800       ??_C@_0P@FBPDPIPA@UpdateFirmware@ 0000000180024800     MSRImpl.obj
 0002:00002810       ??_C@_0BF@CMAPCJGM@ClearInputProperties@ 0000000180024810     MSRImpl.obj
 0002:00002828       ??_C@_0M@COBABLBH@WriteTracks@ 0000000180024828     MSRImpl.obj
 0002:00002838       ??_C@_0BD@HOKFBOPO@AuthenticateDevice@ 0000000180024838     MSRImpl.obj
 0002:00002850       ??_C@_0BF@CBLLANEG@DeauthenticateDevice@ 0000000180024850     MSRImpl.obj
 0002:00002868       ??_C@_0BF@NLNFJNCE@RetrieveCardProperty@ 0000000180024868     MSRImpl.obj
 0002:00002880       ??_C@_0CB@OLJBDIAM@RetrieveDeviceAuthenticationDat@ 0000000180024880     MSRImpl.obj
 0002:000028a8       ??_C@_09PHBOFDOC@UpdateKey@ 00000001800248a8     MSRImpl.obj
 0002:000028b8       ??_7?$CProxy_IOPOSEvents@VCOPOSMSR@@@@6B@ 00000001800248b8     MSRImpl.obj
 0002:000028f8       ??_C@_1BA@IFHENID@?$AA?$FL?$AAE?$AAr?$AAr?$AAo?$AAr?$AA?$FN@ 00000001800248f8     MSRImpl.obj
 0002:00002908       ??_C@_0CG@PBLEKEDP@SOFTWARE?2OLEforRetail?2ServiceOP@ 0000000180024908     MSRImpl.obj
 0002:00002930       ??_C@_1M@IAIJHCCH@?$AAC?$AAl?$AAo?$AAs?$AAe@ 0000000180024930     MSRImpl.obj
 0002:00002940       ??_C@_1M@PCPKGJAH@?$AAC?$AAl?$AAa?$AAi?$AAm@ 0000000180024940     MSRImpl.obj
 0002:00002950       ??_C@_1BA@NDFKIOCP@?$AAR?$AAe?$AAl?$AAe?$AAa?$AAs?$AAe@ 0000000180024950     MSRImpl.obj
 0002:00002960       ??_C@_03FBLCAPDM@MSR@      0000000180024960     MSRImpl.obj
 0002:00002968       ??_C@_1BM@IJMNMBPK@?$AAG?$AAe?$AAt?$AAO?$AAp?$AAe?$AAn?$AAR?$AAe?$AAs?$AAu?$AAl?$AAt@ 0000000180024968     MSRImpl.obj
 0002:00002988       IID_IPropertyNotifySink    0000000180024988     uuid:ocidl_i.obj
 0002:00002998       IID_IDispatch              0000000180024998     uuid:oaidl_i.obj
 0002:000029a8       GUID_NULL                  00000001800249a8     uuid:cguid_i.obj
 0002:000029b8       CLSID_StdGlobalInterfaceTable 00000001800249b8     uuid:cguid_i.obj
 0002:000029c8       CLSID_StdComponentCategoriesMgr 00000001800249c8     uuid:ieguids.obj
 0002:000029d8       IID_IUnknown               00000001800249d8     uuid:unknwn_i.obj
 0002:00002a10       ??_C@_1EC@JIJBPKFM@?$AAa?$AAp?$AAi?$AA?9?$AAm?$AAs?$AA?9?$AAw?$AAi?$AAn?$AA?9?$AAc?$AAo?$AAr?$AAe@ 0000000180024a10     LIBCMT:thread_safe_statics.obj
 0002:00002a58       ??_C@_1BK@MGMFAEKH@?$AAk?$AAe?$AAr?$AAn?$AAe?$AAl?$AA3?$AA2?$AA?4?$AAd?$AAl?$AAl@ 0000000180024a58     LIBCMT:thread_safe_statics.obj
 0002:00002a78       ??_C@_0BM@HLJJNPAH@InitializeConditionVariable@ 0000000180024a78     LIBCMT:thread_safe_statics.obj
 0002:00002a98       ??_C@_0BJ@JEBJOJFJ@SleepConditionVariableCS@ 0000000180024a98     LIBCMT:thread_safe_statics.obj
 0002:00002ab8       ??_C@_0BJ@PGPPEPCC@WakeAllConditionVariable@ 0000000180024ab8     LIBCMT:thread_safe_statics.obj
 0002:00002ad1       ?nothrow@std@@3Unothrow_t@1@B 0000000180024ad1     LIBCMT:std_nothrow.obj
 0002:00002b10       _pDefaultRawDllMain        0000000180024b10     LIBCMT:dll_dllmain.obj
 0002:00002b10       _pRawDllMain               0000000180024b10     LIBCMT:dll_dllmain.obj
 0002:00002b20       ??_7exception@std@@6B@     0000000180024b20     LIBCMT:throw_bad_alloc.obj
 0002:00002b30       ??_C@_0BC@EOODALEL@Unknown?5exception@ 0000000180024b30     LIBCMT:throw_bad_alloc.obj
 0002:00002b50       ??_7bad_alloc@std@@6B@     0000000180024b50     LIBCMT:throw_bad_alloc.obj
 0002:00002b60       ??_C@_0P@GHFPNOJB@bad?5allocation@ 0000000180024b60     LIBCMT:throw_bad_alloc.obj
 0002:00002b78       ??_7bad_array_new_length@std@@6B@ 0000000180024b78     LIBCMT:throw_bad_alloc.obj
 0002:00002b88       ??_C@_0BF@KINCDENJ@bad?5array?5new?5length@ 0000000180024b88     LIBCMT:throw_bad_alloc.obj
 0002:00002ba8       ??_7type_info@@6B@         0000000180024ba8     LIBCMT:std_type_info_static.obj
 0002:00002bb0       GUID_ATLVer110             0000000180024bb0     atls:atlbase.obj
 0002:00002bc0       ??_C@_1IC@ONKHOIDK@?$AAE?$AAR?$AAR?$AAO?$AAR?$AA?5?$AA?3?$AA?5?$AAU?$AAn?$AAa?$AAb?$AAl?$AAe?$AA?5@ 0000000180024bc0     atls:atlbase.obj
 0002:00002c48       ??_C@_0N@FJEPLCIH@atlthunk?4dll@ 0000000180024c48     atls:atlthunk.obj
 0002:00002c58       ??_C@_0BG@GAKFHCBM@AtlThunk_AllocateData@ 0000000180024c58     atls:atlthunk.obj
 0002:00002c70       ??_C@_0BC@JKONFIAH@AtlThunk_InitData@ 0000000180024c70     atls:atlthunk.obj
 0002:00002c88       ??_C@_0BE@IAOEELAK@AtlThunk_DataToCode@ 0000000180024c88     atls:atlthunk.obj
 0002:00002ca0       ??_C@_0BC@GBGKAIPI@AtlThunk_FreeData@ 0000000180024ca0     atls:atlthunk.obj
 0002:00002cb8       _pDestructExceptionObject  0000000180024cb8     libvcruntime:ehhelpers.obj
 0002:00002db8       ??_C@_1DM@KHCHBNEB@?$AAa?$AAp?$AAi?$AA?9?$AAm?$AAs?$AA?9?$AAw?$AAi?$AAn?$AA?9?$AAc?$AAo?$AAr?$AAe@ 0000000180024db8     libvcruntime:winapi_downlevel.obj
 0002:00002df8       ??_C@_1DK@LPPGFMPP@?$AAa?$AAp?$AAi?$AA?9?$AAm?$AAs?$AA?9?$AAw?$AAi?$AAn?$AA?9?$AAc?$AAo?$AAr?$AAe@ 0000000180024df8     libvcruntime:winapi_downlevel.obj
 0002:00002e38       ??_C@_1BC@GDMECMAK@?$AAk?$AAe?$AAr?$AAn?$AAe?$AAl?$AA3?$AA2@ 0000000180024e38     libvcruntime:winapi_downlevel.obj
 0002:00002e50       ??_C@_1BA@PFFKHIOG@?$AAa?$AAp?$AAi?$AA?9?$AAm?$AAs?$AA?9@ 0000000180024e50     libvcruntime:winapi_downlevel.obj
 0002:00002e60       ??_C@_1BA@IAIFMGEF@?$AAe?$AAx?$AAt?$AA?9?$AAm?$AAs?$AA?9@ 0000000180024e60     libvcruntime:winapi_downlevel.obj
 0002:00002e78       ??_C@_08KNHFBNJ@FlsAlloc@  0000000180024e78     libvcruntime:winapi_downlevel.obj
 0002:00002e90       ??_C@_07PEJMOBNF@FlsFree@  0000000180024e90     libvcruntime:winapi_downlevel.obj
 0002:00002ea0       ??_C@_0M@GDNOONDI@FlsGetValue@ 0000000180024ea0     libvcruntime:winapi_downlevel.obj
 0002:00002eb8       ??_C@_0M@JCPCPOEF@FlsSetValue@ 0000000180024eb8     libvcruntime:winapi_downlevel.obj
 0002:00002ed0       ??_C@_0BM@HCFOFFN@InitializeCriticalSectionEx@ 0000000180024ed0     libvcruntime:winapi_downlevel.obj
 0002:00002ef8       ??_7bad_exception@std@@6B@ 0000000180024ef8     libvcruntime:frame.obj
 0002:00002f08       ??_C@_0O@DPKOEFFH@bad?5exception@ 0000000180024f08     libvcruntime:frame.obj
 0002:00003258       ??_C@_08EHJDFFNH@__based?$CI@ 0000000180025258     libvcruntime:undname.obj
 0002:00003268       ??_C@_07KOLFKCDI@__cdecl@  0000000180025268     libvcruntime:undname.obj
 0002:00003270       ??_C@_08GHMPAG@__pascal@   0000000180025270     libvcruntime:undname.obj
 0002:00003280       ??_C@_09IFJBGAPI@__stdcall@ 0000000180025280     libvcruntime:undname.obj
 0002:00003290       ??_C@_0L@NPHFGOKO@__thiscall@ 0000000180025290     libvcruntime:undname.obj
 0002:000032a0       ??_C@_0L@JMKHOMEK@__fastcall@ 00000001800252a0     libvcruntime:undname.obj
 0002:000032b0       ??_C@_0N@BCKKPABJ@__vectorcall@ 00000001800252b0     libvcruntime:undname.obj
 0002:000032c0       ??_C@_09HIJEGCPM@__clrcall@ 00000001800252c0     libvcruntime:undname.obj
 0002:000032cc       ??_C@_06GHPCKEAG@__eabi@   00000001800252cc     libvcruntime:undname.obj
 0002:000032d8       ??_C@_09IOPIDJLG@__swift_1@ 00000001800252d8     libvcruntime:undname.obj
 0002:000032e8       ??_C@_09KFNFGKHF@__swift_2@ 00000001800252e8     libvcruntime:undname.obj
 0002:000032f8       ??_C@_07JOMMBBKO@__ptr64@  00000001800252f8     libvcruntime:undname.obj
 0002:00003300       ??_C@_0L@PILCLIHE@__restrict@ 0000000180025300     libvcruntime:undname.obj
 0002:00003310       ??_C@_0M@GFIIJFMG@__unaligned@ 0000000180025310     libvcruntime:undname.obj
 0002:00003320       ??_C@_09DHDLOLLB@restrict?$CI@ 0000000180025320     libvcruntime:undname.obj
 0002:0000332a       ??_C@_00CNPNBAHC@@         000000018002532a     libvcruntime:undname.obj
 0002:0000332c       ??_C@_04NIHEBCM@?5new@     000000018002532c     libvcruntime:undname.obj
 0002:00003338       ??_C@_07FPCDHGMM@?5delete@ 0000000180025338     libvcruntime:undname.obj
 0002:00003340       ??_C@_01NEMOKFLO@?$DN@     0000000180025340     libvcruntime:undname.obj
 0002:00003344       ??_C@_02GPIOPFAK@?$DO?$DO@ 0000000180025344     libvcruntime:undname.obj
 0002:00003348       ??_C@_02FODMEDOG@?$DM?$DM@ 0000000180025348     libvcruntime:undname.obj
 0002:0000334c       ??_C@_01DCLJPIOD@?$CB@     000000018002534c     libvcruntime:undname.obj
 0002:00003350       ??_C@_02EGOFBIJA@?$DN?$DN@ 0000000180025350     libvcruntime:undname.obj
 0002:00003354       ??_C@_02FDNJECIE@?$CB?$DN@ 0000000180025354     libvcruntime:undname.obj
 0002:00003358       ??_C@_02GPECMEKF@?$FL?$FN@ 0000000180025358     libvcruntime:undname.obj
 0002:00003360       ??_C@_08LHJFAFGD@operator@ 0000000180025360     libvcruntime:undname.obj
 0002:0000336c       ??_C@_02HBOOOICD@?9?$DO@   000000018002536c     libvcruntime:undname.obj
 0002:00003370       ??_C@_01NBENCBCI@?$CK@     0000000180025370     libvcruntime:undname.obj
 0002:00003374       ??_C@_02ECNGHCIF@?$CL?$CL@ 0000000180025374     libvcruntime:undname.obj
 0002:00003378       ??_C@_02BAABKJLB@?9?9@     0000000180025378     libvcruntime:undname.obj
 0002:0000337c       ??_C@_01JOAMLHOP@?9@       000000018002537c     libvcruntime:undname.obj
 0002:00003380       ??_C@_01MIFGBAGJ@?$CL@     0000000180025380     libvcruntime:undname.obj
 0002:00003384       ??_C@_01HNPIGOCE@?$CG@     0000000180025384     libvcruntime:undname.obj
 0002:00003388       ??_C@_03MNHNFDLC@?9?$DO?$CK@ 0000000180025388     libvcruntime:undname.obj
 0002:0000338c       ??_C@_01KMDKNFGN@?1@       000000018002538c     libvcruntime:undname.obj
 0002:00003390       ??_C@_01FGNFDNOH@?$CF@     0000000180025390     libvcruntime:undname.obj
 0002:00003394       ??_C@_01MNNFJEPP@?$DM@     0000000180025394     libvcruntime:undname.obj
 0002:00003398       ??_C@_02EHCHHCKH@?$DM?$DN@ 0000000180025398     libvcruntime:undname.obj
 0002:0000339c       ??_C@_01PPODPGHN@?$DO@     000000018002539c     libvcruntime:undname.obj
 0002:000033a0       ??_C@_02EEKDKGMJ@?$DO?$DN@ 00000001800253a0     libvcruntime:undname.obj
 0002:000033a4       ??_C@_01IHBHIGKO@?0@       00000001800253a4     libvcruntime:undname.obj
 0002:000033a8       ??_C@_02HCKGKOFO@?$CI?$CJ@ 00000001800253a8     libvcruntime:undname.obj
 0002:000033ac       ??_C@_01PJKLJHI@?$HO@      00000001800253ac     libvcruntime:undname.obj
 0002:000033b0       ??_C@_01JKBOJNNK@?$FO@     00000001800253b0     libvcruntime:undname.obj
 0002:000033b4       ??_C@_01DNKMNLPK@?$HM@     00000001800253b4     libvcruntime:undname.obj
 0002:000033b8       ??_C@_02PPKAJPJL@?$CG?$CG@ 00000001800253b8     libvcruntime:undname.obj
 0002:000033bc       ??_C@_02NONPIBCD@?$HM?$HM@ 00000001800253bc     libvcruntime:undname.obj
 0002:000033c0       ??_C@_02FPIMKNGF@?$CK?$DN@ 00000001800253c0     libvcruntime:undname.obj
 0002:000033c4       ??_C@_02FOEOMHFC@?$CL?$DN@ 00000001800253c4     libvcruntime:undname.obj
 0002:000033c8       ??_C@_02FKMDLLOA@?9?$DN@   00000001800253c8     libvcruntime:undname.obj
 0002:000033cc       ??_C@_02FJEHGPIO@?1?$DN@   00000001800253cc     libvcruntime:undname.obj
 0002:000033d0       ??_C@_02FENAOKFI@?$CF?$DN@ 00000001800253d0     libvcruntime:undname.obj
 0002:000033d4       ??_C@_03IKFCCPFF@?$DO?$DO?$DN@ 00000001800253d4     libvcruntime:undname.obj
 0002:000033d8       ??_C@_03CDNPDDLA@?$DM?$DM?$DN@ 00000001800253d8     libvcruntime:undname.obj
 0002:000033dc       ??_C@_02FGJGFEAB@?$CG?$DN@ 00000001800253dc     libvcruntime:undname.obj
 0002:000033e0       ??_C@_02DHLNPPGH@?$HM?$DN@ 00000001800253e0     libvcruntime:undname.obj
 0002:000033e4       ??_C@_02MHEGNOJ@?$FO?$DN@  00000001800253e4     libvcruntime:undname.obj
 0002:000033e8       ??_C@_09IFPLHPGF@?$GAvftable?8@ 00000001800253e8     libvcruntime:undname.obj
 0002:000033f8       ??_C@_09BLBHBJP@?$GAvbtable?8@ 00000001800253f8     libvcruntime:undname.obj
 0002:00003408       ??_C@_07FEEIOKP@?$GAvcall?8@ 0000000180025408     libvcruntime:undname.obj
 0002:00003410       ??_C@_08LLFFHHDJ@?$GAtypeof?8@ 0000000180025410     libvcruntime:undname.obj
 0002:00003420       ??_C@_0BF@KDPPACIK@?$GAlocal?5static?5guard?8@ 0000000180025420     libvcruntime:undname.obj
 0002:00003438       ??_C@_08OBABFOLI@?$GAstring?8@ 0000000180025438     libvcruntime:undname.obj
 0002:00003448       ??_C@_0BD@JDLKDPAB@?$GAvbase?5destructor?8@ 0000000180025448     libvcruntime:undname.obj
 0002:00003460       ??_C@_0BN@DEGPLNFK@?$GAvector?5deleting?5destructor?8@ 0000000180025460     libvcruntime:undname.obj
 0002:00003480       ??_C@_0BO@OBMKPJIG@?$GAdefault?5constructor?5closure?8@ 0000000180025480     libvcruntime:undname.obj
 0002:000034a0       ??_C@_0BN@IMDCHIKM@?$GAscalar?5deleting?5destructor?8@ 00000001800254a0     libvcruntime:undname.obj
 0002:000034c0       ??_C@_0BO@PFGOCPJJ@?$GAvector?5constructor?5iterator?8@ 00000001800254c0     libvcruntime:undname.obj
 0002:000034e0       ??_C@_0BN@LFPFMEDL@?$GAvector?5destructor?5iterator?8@ 00000001800254e0     libvcruntime:undname.obj
 0002:00003500       ??_C@_0CE@IKBNEHA@?$GAvector?5vbase?5constructor?5itera@ 0000000180025500     libvcruntime:undname.obj
 0002:00003528       ??_C@_0BL@NILFHHPC@?$GAvirtual?5displacement?5map?8@ 0000000180025528     libvcruntime:undname.obj
 0002:00003548       ??_C@_0CB@JONCMFFK@?$GAeh?5vector?5constructor?5iterator@ 0000000180025548     libvcruntime:undname.obj
 0002:00003570       ??_C@_0CA@GCEOPDGL@?$GAeh?5vector?5destructor?5iterator?8@ 0000000180025570     libvcruntime:undname.obj
 0002:00003590       ??_C@_0CH@OOJPLCPH@?$GAeh?5vector?5vbase?5constructor?5it@ 0000000180025590     libvcruntime:undname.obj
 0002:000035b8       ??_C@_0BL@LLKPOHJI@?$GAcopy?5constructor?5closure?8@ 00000001800255b8     libvcruntime:undname.obj
 0002:000035d8       ??_C@_0BA@KBCDOMBN@?$GAudt?5returning?8@ 00000001800255d8     libvcruntime:undname.obj
 0002:000035e8       ??_C@_03KLGMFNMG@?$GAEH@   00000001800255e8     libvcruntime:undname.obj
 0002:000035ec       ??_C@_05KHLCHHI@?$GARTTI@  00000001800255ec     libvcruntime:undname.obj
 0002:000035f8       ??_C@_0BA@KKLDJDLB@?$GAlocal?5vftable?8@ 00000001800255f8     libvcruntime:undname.obj
 0002:00003608       ??_C@_0CE@IIHCMGGL@?$GAlocal?5vftable?5constructor?5clos@ 0000000180025608     libvcruntime:undname.obj
 0002:0000362c       ??_C@_06FHBGPFGH@?5new?$FL?$FN@ 000000018002562c     libvcruntime:undname.obj
 0002:00003638       ??_C@_09LBNFPBCA@?5delete?$FL?$FN@ 0000000180025638     libvcruntime:undname.obj
 0002:00003648       ??_C@_0P@HJKNJFNN@?$GAomni?5callsig?8@ 0000000180025648     libvcruntime:undname.obj
 0002:00003658       ??_C@_0BL@CNOONJFP@?$GAplacement?5delete?5closure?8@ 0000000180025658     libvcruntime:undname.obj
 0002:00003678       ??_C@_0BN@CKNJLHMB@?$GAplacement?5delete?$FL?$FN?5closure?8@ 0000000180025678     libvcruntime:undname.obj
 0002:00003698       ??_C@_0CG@CFDHKGGD@?$GAmanaged?5vector?5constructor?5ite@ 0000000180025698     libvcruntime:undname.obj
 0002:000036c0       ??_C@_0CF@IMGKMJNO@?$GAmanaged?5vector?5destructor?5iter@ 00000001800256c0     libvcruntime:undname.obj
 0002:000036e8       ??_C@_0CG@HLDDJMAG@?$GAeh?5vector?5copy?5constructor?5ite@ 00000001800256e8     libvcruntime:undname.obj
 0002:00003710       ??_C@_0CM@FCBBDIGB@?$GAeh?5vector?5vbase?5copy?5construct@ 0000000180025710     libvcruntime:undname.obj
 0002:00003740       ??_C@_0BL@CLIPGLGB@?$GAdynamic?5initializer?5for?5?8@ 0000000180025740     libvcruntime:undname.obj
 0002:00003760       ??_C@_0CB@PDBIFEP@?$GAdynamic?5atexit?5destructor?5for?5@ 0000000180025760     libvcruntime:undname.obj
 0002:00003788       ??_C@_0CD@CGAJBKEJ@?$GAvector?5copy?5constructor?5iterat@ 0000000180025788     libvcruntime:undname.obj
 0002:000037b0       ??_C@_0CJ@GJELGAMM@?$GAvector?5vbase?5copy?5constructor?5@ 00000001800257b0     libvcruntime:undname.obj
 0002:000037e0       ??_C@_0CL@FGIJHLCE@?$GAmanaged?5vector?5copy?5constructo@ 00000001800257e0     libvcruntime:undname.obj
 0002:00003810       ??_C@_0BM@PMGGMLDN@?$GAlocal?5static?5thread?5guard?8@ 0000000180025810     libvcruntime:undname.obj
 0002:00003830       ??_C@_0N@BDNMDMOL@operator?5?$CC?$CC?5@ 0000000180025830     libvcruntime:undname.obj
 0002:00003840       ??_C@_0BC@GGEBGALA@operator?5co_await@ 0000000180025840     libvcruntime:undname.obj
 0002:00003858       ??_C@_0BC@DAFEJGAK@?5Type?5Descriptor?8@ 0000000180025858     libvcruntime:undname.obj
 0002:00003870       ??_C@_0BM@LDKODKLH@?5Base?5Class?5Descriptor?5at?5?$CI@ 0000000180025870     libvcruntime:undname.obj
 0002:00003890       ??_C@_0BD@LGICGFMM@?5Base?5Class?5Array?8@ 0000000180025890     libvcruntime:undname.obj
 0002:000038a8       ??_C@_0BN@MECKDCOJ@?5Class?5Hierarchy?5Descriptor?8@ 00000001800258a8     libvcruntime:undname.obj
 0002:000038c8       ??_C@_0BK@CFCOFLF@?5Complete?5Object?5Locator?8@ 00000001800258c8     libvcruntime:undname.obj
 0002:00003a60       format_validation_lookup_table 0000000180025a60     libucrt:output.obj
 0002:00003abc       ??_C@_06OJHGLDPL@?$CInull?$CJ?$AA@ 0000000180025abc     libucrt:output.obj
 0002:00003ac8       ??_C@_1O@CEDCILHN@?$AA?$CI?$AAn?$AAu?$AAl?$AAl?$AA?$CJ?$AA?$AA@ 0000000180025ac8     libucrt:output.obj
 0002:00003ae0       __acrt_exception_action_table 0000000180025ae0     libucrt:exception_filter.obj
 0002:00003ba0       __acrt_signal_action_table_count 0000000180025ba0     libucrt:exception_filter.obj
 0002:00003ba8       __acrt_signal_action_first_fpe_index 0000000180025ba8     libucrt:exception_filter.obj
 0002:00003bb0       __acrt_signal_action_fpe_count 0000000180025bb0     libucrt:exception_filter.obj
 0002:00003bb8       ??_C@_1BI@BGOHAHKC@?$AAm?$AAs?$AAc?$AAo?$AAr?$AAe?$AAe?$AA?4?$AAd?$AAl?$AAl?$AA?$AA@ 0000000180025bb8     libucrt:exit.obj
 0002:00003bd0       ??_C@_0P@MIGLKIOC@CorExitProcess?$AA@ 0000000180025bd0     libucrt:exit.obj
 0002:00003d70       ??_C@_1EG@CNNIPFIM@?$AAa?$AAp?$AAi?$AA?9?$AAm?$AAs?$AA?9?$AAw?$AAi?$AAn?$AA?9?$AAa?$AAp?$AAp?$AAm?$AAo?$AAd?$AAe?$AAl?$AA?9?$AAr?$AAu?$AAn?$AAt?$AAi?$AAm?$AAe?$AA?9?$AAl?$AA1?$AA?9?$AA1@ 0000000180025d70     libucrt:winapi_thunks.obj
 0002:00003dc0       ??_C@_1EA@JGEFHKEI@?$AAa?$AAp?$AAi?$AA?9?$AAm?$AAs?$AA?9?$AAw?$AAi?$AAn?$AA?9?$AAc?$AAo?$AAr?$AAe?$AA?9?$AAd?$AAa?$AAt?$AAe?$AAt?$AAi?$AAm?$AAe?$AA?9?$AAl?$AA1?$AA?9?$AA1?$AA?9?$AA1?$AA?$AA@ 0000000180025dc0     libucrt:winapi_thunks.obj
 0002:00003e00       ??_C@_1DM@KHCHBNEB@?$AAa?$AAp?$AAi?$AA?9?$AAm?$AAs?$AA?9?$AAw?$AAi?$AAn?$AA?9?$AAc?$AAo?$AAr?$AAe?$AA?9?$AAf?$AAi?$AAb?$AAe?$AAr?$AAs?$AA?9?$AAl?$AA1?$AA?9?$AA1?$AA?9?$AA1?$AA?$AA@ 0000000180025e00     libucrt:winapi_thunks.obj
 0002:00003e40       ??_C@_1DI@GCIAAENM@?$AAa?$AAp?$AAi?$AA?9?$AAm?$AAs?$AA?9?$AAw?$AAi?$AAn?$AA?9?$AAc?$AAo?$AAr?$AAe?$AA?9?$AAf?$AAi?$AAl?$AAe?$AA?9?$AAl?$AA2?$AA?9?$AA1?$AA?9?$AA1?$AA?$AA@ 0000000180025e40     libucrt:winapi_thunks.obj
 0002:00003e80       ??_C@_1EI@MPIAOHOC@?$AAa?$AAp?$AAi?$AA?9?$AAm?$AAs?$AA?9?$AAw?$AAi?$AAn?$AA?9?$AAc?$AAo?$AAr?$AAe?$AA?9?$AAl?$AAo?$AAc?$AAa?$AAl?$AAi?$AAz?$AAa?$AAt?$AAi?$AAo?$AAn?$AA?9?$AAl?$AA1?$AA?9@ 0000000180025e80     libucrt:winapi_thunks.obj
 0002:00003ed0       ??_C@_1FK@FPHCKFIE@?$AAa?$AAp?$AAi?$AA?9?$AAm?$AAs?$AA?9?$AAw?$AAi?$AAn?$AA?9?$AAc?$AAo?$AAr?$AAe?$AA?9?$AAl?$AAo?$AAc?$AAa?$AAl?$AAi?$AAz?$AAa?$AAt?$AAi?$AAo?$AAn?$AA?9?$AAo?$AAb?$AAs@ 0000000180025ed0     libucrt:winapi_thunks.obj
 0002:00003f30       ??_C@_1EM@DILCGIIO@?$AAa?$AAp?$AAi?$AA?9?$AAm?$AAs?$AA?9?$AAw?$AAi?$AAn?$AA?9?$AAc?$AAo?$AAr?$AAe?$AA?9?$AAp?$AAr?$AAo?$AAc?$AAe?$AAs?$AAs?$AAt?$AAh?$AAr?$AAe?$AAa?$AAd?$AAs?$AA?9?$AAl@ 0000000180025f30     libucrt:winapi_thunks.obj
 0002:00003f80       ??_C@_1DM@LNCGDDPN@?$AAa?$AAp?$AAi?$AA?9?$AAm?$AAs?$AA?9?$AAw?$AAi?$AAn?$AA?9?$AAc?$AAo?$AAr?$AAe?$AA?9?$AAs?$AAt?$AAr?$AAi?$AAn?$AAg?$AA?9?$AAl?$AA1?$AA?9?$AA1?$AA?9?$AA0?$AA?$AA@ 0000000180025f80     libucrt:winapi_thunks.obj
 0002:00003fc0       ??_C@_1DK@LPPGFMPP@?$AAa?$AAp?$AAi?$AA?9?$AAm?$AAs?$AA?9?$AAw?$AAi?$AAn?$AA?9?$AAc?$AAo?$AAr?$AAe?$AA?9?$AAs?$AAy?$AAn?$AAc?$AAh?$AA?9?$AAl?$AA1?$AA?9?$AA2?$AA?9?$AA0?$AA?$AA@ 0000000180025fc0     libucrt:winapi_thunks.obj
 0002:00004000       ??_C@_1DO@FPAPJEMD@?$AAa?$AAp?$AAi?$AA?9?$AAm?$AAs?$AA?9?$AAw?$AAi?$AAn?$AA?9?$AAc?$AAo?$AAr?$AAe?$AA?9?$AAs?$AAy?$AAs?$AAi?$AAn?$AAf?$AAo?$AA?9?$AAl?$AA1?$AA?9?$AA2?$AA?9?$AA1?$AA?$AA@ 0000000180026000     libucrt:winapi_thunks.obj
 0002:00004040       ??_C@_1DK@NDHNAHIO@?$AAa?$AAp?$AAi?$AA?9?$AAm?$AAs?$AA?9?$AAw?$AAi?$AAn?$AA?9?$AAc?$AAo?$AAr?$AAe?$AA?9?$AAw?$AAi?$AAn?$AAr?$AAt?$AA?9?$AAl?$AA1?$AA?9?$AA1?$AA?9?$AA0?$AA?$AA@ 0000000180026040     libucrt:winapi_thunks.obj
 0002:00004080       ??_C@_1DM@KGHDGBCM@?$AAa?$AAp?$AAi?$AA?9?$AAm?$AAs?$AA?9?$AAw?$AAi?$AAn?$AA?9?$AAc?$AAo?$AAr?$AAe?$AA?9?$AAx?$AAs?$AAt?$AAa?$AAt?$AAe?$AA?9?$AAl?$AA2?$AA?9?$AA1?$AA?9?$AA0?$AA?$AA@ 0000000180026080     libucrt:winapi_thunks.obj
 0002:000040c0       ??_C@_1EO@IJIOEFOH@?$AAa?$AAp?$AAi?$AA?9?$AAm?$AAs?$AA?9?$AAw?$AAi?$AAn?$AA?9?$AAr?$AAt?$AAc?$AAo?$AAr?$AAe?$AA?9?$AAn?$AAt?$AAu?$AAs?$AAe?$AAr?$AA?9?$AAw?$AAi?$AAn?$AAd?$AAo?$AAw?$AA?9@ 00000001800260c0     libucrt:winapi_thunks.obj
 0002:00004110       ??_C@_1FG@HHGEKANL@?$AAa?$AAp?$AAi?$AA?9?$AAm?$AAs?$AA?9?$AAw?$AAi?$AAn?$AA?9?$AAs?$AAe?$AAc?$AAu?$AAr?$AAi?$AAt?$AAy?$AA?9?$AAs?$AAy?$AAs?$AAt?$AAe?$AAm?$AAf?$AAu?$AAn?$AAc?$AAt?$AAi@ 0000000180026110     libucrt:winapi_thunks.obj
 0002:00004170       ??_C@_1FG@NCKKOLKO@?$AAe?$AAx?$AAt?$AA?9?$AAm?$AAs?$AA?9?$AAw?$AAi?$AAn?$AA?9?$AAk?$AAe?$AAr?$AAn?$AAe?$AAl?$AA3?$AA2?$AA?9?$AAp?$AAa?$AAc?$AAk?$AAa?$AAg?$AAe?$AA?9?$AAc?$AAu?$AAr?$AAr@ 0000000180026170     libucrt:winapi_thunks.obj
 0002:000041d0       ??_C@_1EG@DBIOJECG@?$AAe?$AAx?$AAt?$AA?9?$AAm?$AAs?$AA?9?$AAw?$AAi?$AAn?$AA?9?$AAn?$AAt?$AAu?$AAs?$AAe?$AAr?$AA?9?$AAd?$AAi?$AAa?$AAl?$AAo?$AAg?$AAb?$AAo?$AAx?$AA?9?$AAl?$AA1?$AA?9?$AA1@ 00000001800261d0     libucrt:winapi_thunks.obj
 0002:00004220       ??_C@_1EO@FIHMJCLF@?$AAe?$AAx?$AAt?$AA?9?$AAm?$AAs?$AA?9?$AAw?$AAi?$AAn?$AA?9?$AAn?$AAt?$AAu?$AAs?$AAe?$AAr?$AA?9?$AAw?$AAi?$AAn?$AAd?$AAo?$AAw?$AAs?$AAt?$AAa?$AAt?$AAi?$AAo?$AAn?$AA?9@ 0000000180026220     libucrt:winapi_thunks.obj
 0002:00004270       ??_C@_1BC@DNHGCMLG@?$AAa?$AAd?$AAv?$AAa?$AAp?$AAi?$AA3?$AA2?$AA?$AA@ 0000000180026270     libucrt:winapi_thunks.obj
 0002:00004288       ??_C@_1BC@GDMECMAK@?$AAk?$AAe?$AAr?$AAn?$AAe?$AAl?$AA3?$AA2?$AA?$AA@ 0000000180026288     libucrt:winapi_thunks.obj
 0002:000042a0       ??_C@_1O@BCCLBEOE@?$AAu?$AAs?$AAe?$AAr?$AA3?$AA2?$AA?$AA@ 00000001800262a0     libucrt:winapi_thunks.obj
 0002:000042b8       ??_C@_08KNHFBNJ@FlsAlloc?$AA@ 00000001800262b8     libucrt:winapi_thunks.obj
 0002:000042d0       ??_C@_07PEJMOBNF@FlsFree?$AA@ 00000001800262d0     libucrt:winapi_thunks.obj
 0002:000042e0       ??_C@_0M@GDNOONDI@FlsGetValue?$AA@ 00000001800262e0     libucrt:winapi_thunks.obj
 0002:000042f8       ??_C@_0M@JCPCPOEF@FlsSetValue?$AA@ 00000001800262f8     libucrt:winapi_thunks.obj
 0002:00004310       ??_C@_0BE@JOGNEJCI@GetCurrentPackageId?$AA@ 0000000180026310     libucrt:winapi_thunks.obj
 0002:00004330       ??_C@_0BM@HCFOFFN@InitializeCriticalSectionEx?$AA@ 0000000180026330     libucrt:winapi_thunks.obj
 0002:00004358       ??_C@_0O@KKBNKAPF@LCMapStringEx?$AA@ 0000000180026358     libucrt:winapi_thunks.obj
 0002:00004370       ??_C@_0BB@HBDEELFH@LocaleNameToLCID?$AA@ 0000000180026370     libucrt:winapi_thunks.obj
 0002:00004390       ??_C@_0BI@BKLFFAPO@SetThreadStackGuarantee?$AA@ 0000000180026390     libucrt:winapi_thunks.obj
 0002:000043a8       ??_C@_03OEIAHPBN@INF?$AA@  00000001800263a8     libucrt:cvt.obj
 0002:000043ac       ??_C@_03OJHLLCGB@inf?$AA@  00000001800263ac     libucrt:cvt.obj
 0002:000043b0       ??_C@_03LKNCIKJB@NAN?$AA@  00000001800263b0     libucrt:cvt.obj
 0002:000043b4       ??_C@_03LHCJEHON@nan?$AA@  00000001800263b4     libucrt:cvt.obj
 0002:000043b8       ??_C@_09OFJJIMPC@NAN?$CISNAN?$CJ?$AA@ 00000001800263b8     libucrt:cvt.obj
 0002:000043c8       ??_C@_09IPFBKMDL@nan?$CIsnan?$CJ?$AA@ 00000001800263c8     libucrt:cvt.obj
 0002:000043d8       ??_C@_08IKHNHAJ@NAN?$CIIND?$CJ?$AA@ 00000001800263d8     libucrt:cvt.obj
 0002:000043e8       ??_C@_08OFCDMILK@nan?$CIind?$CJ?$AA@ 00000001800263e8     libucrt:cvt.obj
 0002:000043f4       ??_C@_05KLBDPFGC@e?$CL000?$AA@ 00000001800263f4     libucrt:cvt.obj
 0002:00004400       __lc_time_c                0000000180026400     libucrt:nlsdata.obj
 0002:000046c0       ??_C@_03KOEHGMDN@Sun?$AA@  00000001800266c0     libucrt:nlsdata.obj
 0002:000046c4       ??_C@_03PDAGKDH@Mon?$AA@   00000001800266c4     libucrt:nlsdata.obj
 0002:000046c8       ??_C@_03NAGEINEP@Tue?$AA@  00000001800266c8     libucrt:nlsdata.obj
 0002:000046cc       ??_C@_03MHOMLAJA@Wed?$AA@  00000001800266cc     libucrt:nlsdata.obj
 0002:000046d0       ??_C@_03IOFIKPDN@Thu?$AA@  00000001800266d0     libucrt:nlsdata.obj
 0002:000046d4       ??_C@_03IDIOELNC@Fri?$AA@  00000001800266d4     libucrt:nlsdata.obj
 0002:000046d8       ??_C@_03FEFJNEK@Sat?$AA@   00000001800266d8     libucrt:nlsdata.obj
 0002:000046dc       ??_C@_06OOPIFAJ@Sunday?$AA@ 00000001800266dc     libucrt:nlsdata.obj
 0002:000046e4       ??_C@_06JLEDEDGH@Monday?$AA@ 00000001800266e4     libucrt:nlsdata.obj
 0002:000046f0       ??_C@_07BAAGCFCM@Tuesday?$AA@ 00000001800266f0     libucrt:nlsdata.obj
 0002:000046f8       ??_C@_09DLIGFAKA@Wednesday?$AA@ 00000001800266f8     libucrt:nlsdata.obj
 0002:00004708       ??_C@_08HACCIKIA@Thursday?$AA@ 0000000180026708     libucrt:nlsdata.obj
 0002:00004714       ??_C@_06JECMNKMI@Friday?$AA@ 0000000180026714     libucrt:nlsdata.obj
 0002:00004720       ??_C@_08INBOOONO@Saturday?$AA@ 0000000180026720     libucrt:nlsdata.obj
 0002:0000472c       ??_C@_03JIHJHPIE@Jan?$AA@  000000018002672c     libucrt:nlsdata.obj
 0002:00004730       ??_C@_03HJBDCHOM@Feb?$AA@  0000000180026730     libucrt:nlsdata.obj
 0002:00004734       ??_C@_03ODNJBKGA@Mar?$AA@  0000000180026734     libucrt:nlsdata.obj
 0002:00004738       ??_C@_03LEOLGMJP@Apr?$AA@  0000000180026738     libucrt:nlsdata.obj
 0002:0000473c       ??_C@_03CNMDKL@May?$AA@    000000018002673c     libucrt:nlsdata.obj
 0002:00004740       ??_C@_03IDFGHECI@Jun?$AA@  0000000180026740     libucrt:nlsdata.obj
 0002:00004744       ??_C@_03LBGABGKK@Jul?$AA@  0000000180026744     libucrt:nlsdata.obj
 0002:00004748       ??_C@_03IFJFEIGA@Aug?$AA@  0000000180026748     libucrt:nlsdata.obj
 0002:0000474c       ??_C@_03GGCAPAJC@Sep?$AA@  000000018002674c     libucrt:nlsdata.obj
 0002:00004750       ??_C@_03BMAOKBAD@Oct?$AA@  0000000180026750     libucrt:nlsdata.obj
 0002:00004754       ??_C@_03JPJOFNIA@Nov?$AA@  0000000180026754     libucrt:nlsdata.obj
 0002:00004758       ??_C@_03MKABNOCG@Dec?$AA@  0000000180026758     libucrt:nlsdata.obj
 0002:00004760       ??_C@_07CGJPFGJA@January?$AA@ 0000000180026760     libucrt:nlsdata.obj
 0002:00004768       ??_C@_08GNJGEPFN@February?$AA@ 0000000180026768     libucrt:nlsdata.obj
 0002:00004774       ??_C@_05HPCKOFNC@March?$AA@ 0000000180026774     libucrt:nlsdata.obj
 0002:0000477c       ??_C@_05DMJDNLEJ@April?$AA@ 000000018002677c     libucrt:nlsdata.obj
 0002:00004784       ??_C@_04CNLMGBGM@June?$AA@ 0000000180026784     libucrt:nlsdata.obj
 0002:0000478c       ??_C@_04MIEPOIFP@July?$AA@ 000000018002678c     libucrt:nlsdata.obj
 0002:00004794       ??_C@_06LBBHFDDG@August?$AA@ 0000000180026794     libucrt:nlsdata.obj
 0002:000047a0       ??_C@_09BHHEALKD@September?$AA@ 00000001800267a0     libucrt:nlsdata.obj
 0002:000047b0       ??_C@_07JJNFCEND@October?$AA@ 00000001800267b0     libucrt:nlsdata.obj
 0002:000047b8       ??_C@_08HCHEGEOA@November?$AA@ 00000001800267b8     libucrt:nlsdata.obj
 0002:000047c8       ??_C@_08EDHMEBNP@December?$AA@ 00000001800267c8     libucrt:nlsdata.obj
 0002:000047d4       ??_C@_02DEDBPAFC@AM?$AA@   00000001800267d4     libucrt:nlsdata.obj
 0002:000047d8       ??_C@_02CJNFDJBF@PM?$AA@   00000001800267d8     libucrt:nlsdata.obj
 0002:000047e0       ??_C@_08BPBNCDIB@MM?1dd?1yy?$AA@ 00000001800267e0     libucrt:nlsdata.obj
 0002:000047f0       ??_C@_0BE@CKGJFCPC@dddd?0?5MMMM?5dd?0?5yyyy?$AA@ 00000001800267f0     libucrt:nlsdata.obj
 0002:00004808       ??_C@_08JCCMCCIL@HH?3mm?3ss?$AA@ 0000000180026808     libucrt:nlsdata.obj
 0002:00004818       ??_C@_17MBGCMIPB@?$AAS?$AAu?$AAn?$AA?$AA@ 0000000180026818     libucrt:nlsdata.obj
 0002:00004820       ??_C@_17KBOMKBF@?$AAM?$AAo?$AAn?$AA?$AA@ 0000000180026820     libucrt:nlsdata.obj
 0002:00004828       ??_C@_17BMKGEGOJ@?$AAT?$AAu?$AAe?$AA?$AA@ 0000000180026828     libucrt:nlsdata.obj
 0002:00004830       ??_C@_17CJEDCEPE@?$AAW?$AAe?$AAd?$AA?$AA@ 0000000180026830     libucrt:nlsdata.obj
 0002:00004838       ??_C@_17PDPHAADD@?$AAT?$AAh?$AAu?$AA?$AA@ 0000000180026838     libucrt:nlsdata.obj
 0002:00004840       ??_C@_17HFOLPPLP@?$AAF?$AAr?$AAi?$AA?$AA@ 0000000180026840     libucrt:nlsdata.obj
 0002:00004848       ??_C@_17GGIBDPIH@?$AAS?$AAa?$AAt?$AA?$AA@ 0000000180026848     libucrt:nlsdata.obj
 0002:00004850       ??_C@_1O@IHNHDHPB@?$AAS?$AAu?$AAn?$AAd?$AAa?$AAy?$AA?$AA@ 0000000180026850     libucrt:nlsdata.obj
 0002:00004860       ??_C@_1O@MMNBFLIA@?$AAM?$AAo?$AAn?$AAd?$AAa?$AAy?$AA?$AA@ 0000000180026860     libucrt:nlsdata.obj
 0002:00004870       ??_C@_1BA@ENFBFFEK@?$AAT?$AAu?$AAe?$AAs?$AAd?$AAa?$AAy?$AA?$AA@ 0000000180026870     libucrt:nlsdata.obj
 0002:00004880       ??_C@_1BE@EBOGMDOH@?$AAW?$AAe?$AAd?$AAn?$AAe?$AAs?$AAd?$AAa?$AAy?$AA?$AA@ 0000000180026880     libucrt:nlsdata.obj
 0002:00004898       ??_C@_1BC@HHMNLIHE@?$AAT?$AAh?$AAu?$AAr?$AAs?$AAd?$AAa?$AAy?$AA?$AA@ 0000000180026898     libucrt:nlsdata.obj
 0002:000048b0       ??_C@_1O@PDICJHAG@?$AAF?$AAr?$AAi?$AAd?$AAa?$AAy?$AA?$AA@ 00000001800268b0     libucrt:nlsdata.obj
 0002:000048c0       ??_C@_1BC@ENMNNPAJ@?$AAS?$AAa?$AAt?$AAu?$AAr?$AAd?$AAa?$AAy?$AA?$AA@ 00000001800268c0     libucrt:nlsdata.obj
 0002:000048d8       ??_C@_17DKNBKCHM@?$AAJ?$AAa?$AAn?$AA?$AA@ 00000001800268d8     libucrt:nlsdata.obj
 0002:000048e0       ??_C@_17LMDJEKJN@?$AAF?$AAe?$AAb?$AA?$AA@ 00000001800268e0     libucrt:nlsdata.obj
 0002:000048e8       ??_C@_17CKNLEDEC@?$AAM?$AAa?$AAr?$AA?$AA@ 00000001800268e8     libucrt:nlsdata.obj
 0002:000048f0       ??_C@_17LFPOIHDD@?$AAA?$AAp?$AAr?$AA?$AA@ 00000001800268f0     libucrt:nlsdata.obj
 0002:000048f8       ??_C@_17PNNKMEED@?$AAM?$AAa?$AAy?$AA?$AA@ 00000001800268f8     libucrt:nlsdata.obj
 0002:00004900       ??_C@_17KCJGOCPB@?$AAJ?$AAu?$AAn?$AA?$AA@ 0000000180026900     libucrt:nlsdata.obj
 0002:00004908       ??_C@_17IJPCKHK@?$AAJ?$AAu?$AAl?$AA?$AA@ 0000000180026908     libucrt:nlsdata.obj
 0002:00004910       ??_C@_17ICPELBCN@?$AAA?$AAu?$AAg?$AA?$AA@ 0000000180026910     libucrt:nlsdata.obj
 0002:00004918       ??_C@_17HCHCOKMG@?$AAS?$AAe?$AAp?$AA?$AA@ 0000000180026918     libucrt:nlsdata.obj
 0002:00004920       ??_C@_17FNLKOI@?$AAO?$AAc?$AAt?$AA?$AA@ 0000000180026920     libucrt:nlsdata.obj
 0002:00004928       ??_C@_17BBDMLCIG@?$AAN?$AAo?$AAv?$AA?$AA@ 0000000180026928     libucrt:nlsdata.obj
 0002:00004930       ??_C@_17EGKACKIF@?$AAD?$AAe?$AAc?$AA?$AA@ 0000000180026930     libucrt:nlsdata.obj
 0002:00004938       ??_C@_1BA@EFMEIEBA@?$AAJ?$AAa?$AAn?$AAu?$AAa?$AAr?$AAy?$AA?$AA@ 0000000180026938     libucrt:nlsdata.obj
 0002:00004948       ??_C@_1BC@JGDDFFAM@?$AAF?$AAe?$AAb?$AAr?$AAu?$AAa?$AAr?$AAy?$AA?$AA@ 0000000180026948     libucrt:nlsdata.obj
 0002:00004960       ??_C@_1M@IKEENEDF@?$AAM?$AAa?$AAr?$AAc?$AAh?$AA?$AA@ 0000000180026960     libucrt:nlsdata.obj
 0002:00004970       ??_C@_1M@GJNLMHFD@?$AAA?$AAp?$AAr?$AAi?$AAl?$AA?$AA@ 0000000180026970     libucrt:nlsdata.obj
 0002:00004980       ??_C@_19EPFLPGAP@?$AAJ?$AAu?$AAn?$AAe?$AA?$AA@ 0000000180026980     libucrt:nlsdata.obj
 0002:00004990       ??_C@_19BIFMLPCD@?$AAJ?$AAu?$AAl?$AAy?$AA?$AA@ 0000000180026990     libucrt:nlsdata.obj
 0002:000049a0       ??_C@_1O@PAHLKOAC@?$AAA?$AAu?$AAg?$AAu?$AAs?$AAt?$AA?$AA@ 00000001800269a0     libucrt:nlsdata.obj
 0002:000049b0       ??_C@_1BE@DKAAMBJL@?$AAS?$AAe?$AAp?$AAt?$AAe?$AAm?$AAb?$AAe?$AAr?$AA?$AA@ 00000001800269b0     libucrt:nlsdata.obj
 0002:000049c8       ??_C@_1BA@EPANDLNG@?$AAO?$AAc?$AAt?$AAo?$AAb?$AAe?$AAr?$AA?$AA@ 00000001800269c8     libucrt:nlsdata.obj
 0002:000049d8       ??_C@_1BC@BGLIFPF@?$AAN?$AAo?$AAv?$AAe?$AAm?$AAb?$AAe?$AAr?$AA?$AA@ 00000001800269d8     libucrt:nlsdata.obj
 0002:000049f0       ??_C@_1BC@FEMKIFH@?$AAD?$AAe?$AAc?$AAe?$AAm?$AAb?$AAe?$AAr?$AA?$AA@ 00000001800269f0     libucrt:nlsdata.obj
 0002:00004a04       ??_C@_15ODEHAHHF@?$AAA?$AAM?$AA?$AA@ 0000000180026a04     libucrt:nlsdata.obj
 0002:00004a0c       ??_C@_15CLMNNGEL@?$AAP?$AAM?$AA?$AA@ 0000000180026a0c     libucrt:nlsdata.obj
 0002:00004a18       ??_C@_1BC@IEBCMHCM@?$AAM?$AAM?$AA?1?$AAd?$AAd?$AA?1?$AAy?$AAy?$AA?$AA@ 0000000180026a18     libucrt:nlsdata.obj
 0002:00004a30       ??_C@_1CI@KNAKOEBC@?$AAd?$AAd?$AAd?$AAd?$AA?0?$AA?5?$AAM?$AAM?$AAM?$AAM?$AA?5?$AAd?$AAd?$AA?0?$AA?5?$AAy?$AAy?$AAy?$AAy?$AA?$AA@ 0000000180026a30     libucrt:nlsdata.obj
 0002:00004a58       ??_C@_1BC@GDGBMEMK@?$AAH?$AAH?$AA?3?$AAm?$AAm?$AA?3?$AAs?$AAs?$AA?$AA@ 0000000180026a58     libucrt:nlsdata.obj
 0002:00004a70       ??_C@_1M@BMHNFIME@?$AAe?$AAn?$AA?9?$AAU?$AAS?$AA?$AA@ 0000000180026a70     libucrt:nlsdata.obj
 0002:00004aa0       ??_C@_1M@HPNHIDJI@?$AAj?$AAa?$AA?9?$AAJ?$AAP?$AA?$AA@ 0000000180026aa0     libucrt:mbctype.obj
 0002:00004ab0       ??_C@_1M@BIBDDEMK@?$AAz?$AAh?$AA?9?$AAC?$AAN?$AA?$AA@ 0000000180026ab0     libucrt:mbctype.obj
 0002:00004ac0       ??_C@_1M@JLOOOEGK@?$AAk?$AAo?$AA?9?$AAK?$AAR?$AA?$AA@ 0000000180026ac0     libucrt:mbctype.obj
 0002:00004ad0       ??_C@_1M@CLNBBOPM@?$AAz?$AAh?$AA?9?$AAT?$AAW?$AA?$AA@ 0000000180026ad0     libucrt:mbctype.obj
 0002:00004ae0       __newctype                 0000000180026ae0     libucrt:ctype.obj
 0002:00004de0       __newclmap                 0000000180026de0     libucrt:ctype.obj
 0002:00004f60       __newcumap                 0000000180026f60     libucrt:ctype.obj
 0002:000050e0       _wctype                    00000001800270e0     libucrt:ctype.obj
 0002:00006130       ??_C@_15EMKDOKLE@?$AAa?$AAr?$AA?$AA@ 0000000180028130     libucrt:lcidtoname_downlevel.obj
 0002:00006138       ??_C@_15KNPADPLH@?$AAb?$AAg?$AA?$AA@ 0000000180028138     libucrt:lcidtoname_downlevel.obj
 0002:00006140       ??_C@_15EDMHLDMO@?$AAc?$AAa?$AA?$AA@ 0000000180028140     libucrt:lcidtoname_downlevel.obj
 0002:00006148       ??_C@_1O@BPEAJADD@?$AAz?$AAh?$AA?9?$AAC?$AAH?$AAS?$AA?$AA@ 0000000180028148     libucrt:lcidtoname_downlevel.obj
 0002:00006158       ??_C@_15LJNHCMNK@?$AAc?$AAs?$AA?$AA@ 0000000180028158     libucrt:lcidtoname_downlevel.obj
 0002:00006160       ??_C@_15FOMCIDHG@?$AAd?$AAa?$AA?$AA@ 0000000180028160     libucrt:lcidtoname_downlevel.obj
 0002:00006168       ??_C@_15NBKABECB@?$AAd?$AAe?$AA?$AA@ 0000000180028168     libucrt:lcidtoname_downlevel.obj
 0002:00006170       ??_C@_15GHPEIIAO@?$AAe?$AAl?$AA?$AA@ 0000000180028170     libucrt:lcidtoname_downlevel.obj
 0002:00006178       ??_C@_15MNPNEAIF@?$AAe?$AAn?$AA?$AA@ 0000000180028178     libucrt:lcidtoname_downlevel.obj
 0002:00006180       ??_C@_15GPIOMPMH@?$AAe?$AAs?$AA?$AA@ 0000000180028180     libucrt:lcidtoname_downlevel.obj
 0002:00006188       ??_C@_15NGLOAKJC@?$AAf?$AAi?$AA?$AA@ 0000000180028188     libucrt:lcidtoname_downlevel.obj
 0002:00006190       ??_C@_15FBKGNKAM@?$AAf?$AAr?$AA?$AA@ 0000000180028190     libucrt:lcidtoname_downlevel.obj
 0002:00006198       ??_C@_15KGGCNEFK@?$AAh?$AAe?$AA?$AA@ 0000000180028198     libucrt:lcidtoname_downlevel.obj
 0002:000061a0       ??_C@_15PGHLIDMF@?$AAh?$AAu?$AA?$AA@ 00000001800281a0     libucrt:lcidtoname_downlevel.obj
 0002:000061a8       ??_C@_15BIEMAPLM@?$AAi?$AAs?$AA?$AA@ 00000001800281a8     libucrt:lcidtoname_downlevel.obj
 0002:000061b0       ??_C@_15IFJLDHAF@?$AAi?$AAt?$AA?$AA@ 00000001800281b0     libucrt:lcidtoname_downlevel.obj
 0002:000061b8       ??_C@_15GEMIOCAG@?$AAj?$AAa?$AA?$AA@ 00000001800281b8     libucrt:lcidtoname_downlevel.obj
 0002:000061c0       ??_C@_15EPELEGJA@?$AAk?$AAo?$AA?$AA@ 00000001800281c0     libucrt:lcidtoname_downlevel.obj
 0002:000061c8       ??_C@_15NDDHIMN@?$AAn?$AAl?$AA?$AA@ 00000001800281c8     libucrt:lcidtoname_downlevel.obj
 0002:000061d0       ??_C@_15BPIGNHCD@?$AAn?$AAo?$AA?$AA@ 00000001800281d0     libucrt:lcidtoname_downlevel.obj
 0002:000061d8       ??_C@_15DEOPBLCG@?$AAp?$AAl?$AA?$AA@ 00000001800281d8     libucrt:lcidtoname_downlevel.obj
 0002:000061e0       ??_C@_15KBECGEFG@?$AAp?$AAt?$AA?$AA@ 00000001800281e0     libucrt:lcidtoname_downlevel.obj
 0002:000061e8       ??_C@_15GLJCBFMD@?$AAr?$AAo?$AA?$AA@ 00000001800281e8     libucrt:lcidtoname_downlevel.obj
 0002:000061f0       ??_C@_15FEDGKCDI@?$AAr?$AAu?$AA?$AA@ 00000001800281f0     libucrt:lcidtoname_downlevel.obj
 0002:000061f8       ??_C@_15GLKMLLHM@?$AAh?$AAr?$AA?$AA@ 00000001800281f8     libucrt:lcidtoname_downlevel.obj
 0002:00006200       ??_C@_15CPKMFBDB@?$AAs?$AAk?$AA?$AA@ 0000000180028200     libucrt:lcidtoname_downlevel.obj
 0002:00006208       ??_C@_15BAAIOGMK@?$AAs?$AAq?$AA?$AA@ 0000000180028208     libucrt:lcidtoname_downlevel.obj
 0002:00006210       ??_C@_15INNPNOHD@?$AAs?$AAv?$AA?$AA@ 0000000180028210     libucrt:lcidtoname_downlevel.obj
 0002:00006218       ??_C@_15CABMMOGH@?$AAt?$AAh?$AA?$AA@ 0000000180028218     libucrt:lcidtoname_downlevel.obj
 0002:00006220       ??_C@_15BPLIHJJM@?$AAt?$AAr?$AA?$AA@ 0000000180028220     libucrt:lcidtoname_downlevel.obj
 0002:00006228       ??_C@_15NEOEKKDJ@?$AAu?$AAr?$AA?$AA@ 0000000180028228     libucrt:lcidtoname_downlevel.obj
 0002:00006230       ??_C@_15NFICGAJK@?$AAi?$AAd?$AA?$AA@ 0000000180028230     libucrt:lcidtoname_downlevel.obj
 0002:00006238       ??_C@_15PJPFLCCM@?$AAu?$AAk?$AA?$AA@ 0000000180028238     libucrt:lcidtoname_downlevel.obj
 0002:00006240       ??_C@_15HPJPHDM@?$AAb?$AAe?$AA?$AA@ 0000000180028240     libucrt:lcidtoname_downlevel.obj
 0002:00006248       ??_C@_15LCHLGJII@?$AAs?$AAl?$AA?$AA@ 0000000180028248     libucrt:lcidtoname_downlevel.obj
 0002:00006250       ??_C@_15PCFJPHHO@?$AAe?$AAt?$AA?$AA@ 0000000180028250     libucrt:lcidtoname_downlevel.obj
 0002:00006258       ??_C@_15HPFPGODN@?$AAl?$AAv?$AA?$AA@ 0000000180028258     libucrt:lcidtoname_downlevel.obj
 0002:00006260       ??_C@_15NFFGKGLG@?$AAl?$AAt?$AA?$AA@ 0000000180028260     libucrt:lcidtoname_downlevel.obj
 0002:00006268       ??_C@_15BDAKCCHN@?$AAf?$AAa?$AA?$AA@ 0000000180028268     libucrt:lcidtoname_downlevel.obj
 0002:00006270       ??_C@_15NFGIAIAJ@?$AAv?$AAi?$AA?$AA@ 0000000180028270     libucrt:lcidtoname_downlevel.obj
 0002:00006278       ??_C@_15LMKNDMHN@?$AAh?$AAy?$AA?$AA@ 0000000180028278     libucrt:lcidtoname_downlevel.obj
 0002:00006280       ??_C@_15IJBHMCFL@?$AAa?$AAz?$AA?$AA@ 0000000180028280     libucrt:lcidtoname_downlevel.obj
 0002:00006288       ??_C@_15EKOFJABL@?$AAe?$AAu?$AA?$AA@ 0000000180028288     libucrt:lcidtoname_downlevel.obj
 0002:00006290       ??_C@_15BGHADCNK@?$AAm?$AAk?$AA?$AA@ 0000000180028290     libucrt:lcidtoname_downlevel.obj
 0002:00006298       ??_C@_15JDNICKHM@?$AAa?$AAf?$AA?$AA@ 0000000180028298     libucrt:lcidtoname_downlevel.obj
 0002:000062a0       ??_C@_15KPJEDBKD@?$AAk?$AAa?$AA?$AA@ 00000001800282a0     libucrt:lcidtoname_downlevel.obj
 0002:000062a8       ??_C@_15PDNFFFEO@?$AAf?$AAo?$AA?$AA@ 00000001800282a8     libucrt:lcidtoname_downlevel.obj
 0002:000062b0       ??_C@_15OMLEGLOC@?$AAh?$AAi?$AA?$AA@ 00000001800282b0     libucrt:lcidtoname_downlevel.obj
 0002:000062b8       ??_C@_15IDNNENKK@?$AAm?$AAs?$AA?$AA@ 00000001800282b8     libucrt:lcidtoname_downlevel.obj
 0002:000062c0       ??_C@_15MACJNBMH@?$AAk?$AAk?$AA?$AA@ 00000001800282c0     libucrt:lcidtoname_downlevel.obj
 0002:000062c8       ??_C@_15DKDJEOND@?$AAk?$AAy?$AA?$AA@ 00000001800282c8     libucrt:lcidtoname_downlevel.obj
 0002:000062d0       ??_C@_15DFGDLJBG@?$AAs?$AAw?$AA?$AA@ 00000001800282d0     libucrt:lcidtoname_downlevel.obj
 0002:000062d8       ??_C@_15BBFAICNG@?$AAu?$AAz?$AA?$AA@ 00000001800282d8     libucrt:lcidtoname_downlevel.obj
 0002:000062e0       ??_C@_15DKNDCGEA@?$AAt?$AAt?$AA?$AA@ 00000001800282e0     libucrt:lcidtoname_downlevel.obj
 0002:000062e8       ??_C@_15MGIFMDPL@?$AAp?$AAa?$AA?$AA@ 00000001800282e8     libucrt:lcidtoname_downlevel.obj
 0002:000062f0       ??_C@_15HCNDBBA@?$AAg?$AAu?$AA?$AA@ 00000001800282f0     libucrt:lcidtoname_downlevel.obj
 0002:000062f8       ??_C@_15FNBEIBON@?$AAt?$AAa?$AA?$AA@ 00000001800282f8     libucrt:lcidtoname_downlevel.obj
 0002:00006300       ??_C@_15NCHGBGLK@?$AAt?$AAe?$AA?$AA@ 0000000180028300     libucrt:lcidtoname_downlevel.obj
 0002:00006308       ??_C@_15PHPHCBPF@?$AAk?$AAn?$AA?$AA@ 0000000180028308     libucrt:lcidtoname_downlevel.obj
 0002:00006310       ??_C@_15DLGBCKMP@?$AAm?$AAr?$AA?$AA@ 0000000180028310     libucrt:lcidtoname_downlevel.obj
 0002:00006318       ??_C@_15EABBLBFF@?$AAs?$AAa?$AA?$AA@ 0000000180028318     libucrt:lcidtoname_downlevel.obj
 0002:00006320       ??_C@_15CBKOMCOI@?$AAm?$AAn?$AA?$AA@ 0000000180028320     libucrt:lcidtoname_downlevel.obj
 0002:00006328       ??_C@_15CKDMCJAF@?$AAg?$AAl?$AA?$AA@ 0000000180028328     libucrt:lcidtoname_downlevel.obj
 0002:00006330       ??_C@_17CNJFBPG@?$AAk?$AAo?$AAk?$AA?$AA@ 0000000180028330     libucrt:lcidtoname_downlevel.obj
 0002:00006338       ??_C@_17FFBJICPL@?$AAs?$AAy?$AAr?$AA?$AA@ 0000000180028338     libucrt:lcidtoname_downlevel.obj
 0002:00006340       ??_C@_17KPNDCPAF@?$AAd?$AAi?$AAv?$AA?$AA@ 0000000180028340     libucrt:lcidtoname_downlevel.obj
 0002:00006348       ??_C@_11LOCGONAA@?$AA?$AA@ 0000000180028348     libucrt:lcidtoname_downlevel.obj
 0002:00006350       ??_C@_1M@OKAHONE@?$AAa?$AAr?$AA?9?$AAS?$AAA?$AA?$AA@ 0000000180028350     libucrt:lcidtoname_downlevel.obj
 0002:00006360       ??_C@_1M@FFFIGIGK@?$AAb?$AAg?$AA?9?$AAB?$AAG?$AA?$AA@ 0000000180028360     libucrt:lcidtoname_downlevel.obj
 0002:00006370       ??_C@_1M@BJNKEDC@?$AAc?$AAa?$AA?9?$AAE?$AAS?$AA?$AA@ 0000000180028370     libucrt:lcidtoname_downlevel.obj
 0002:00006380       ??_C@_1M@IJJHFJHA@?$AAc?$AAs?$AA?9?$AAC?$AAZ?$AA?$AA@ 0000000180028380     libucrt:lcidtoname_downlevel.obj
 0002:00006390       ??_C@_1M@CLPEOBGI@?$AAd?$AAa?$AA?9?$AAD?$AAK?$AA?$AA@ 0000000180028390     libucrt:lcidtoname_downlevel.obj
 0002:000063a0       ??_C@_1M@MCMADGCB@?$AAd?$AAe?$AA?9?$AAD?$AAE?$AA?$AA@ 00000001800283a0     libucrt:lcidtoname_downlevel.obj
 0002:000063b0       ??_C@_1M@OOCKEMAM@?$AAe?$AAl?$AA?9?$AAG?$AAR?$AA?$AA@ 00000001800283b0     libucrt:lcidtoname_downlevel.obj
 0002:000063c0       ??_C@_1M@DDNJFGID@?$AAf?$AAi?$AA?9?$AAF?$AAI?$AA?$AA@ 00000001800283c0     libucrt:lcidtoname_downlevel.obj
 0002:000063d0       ??_C@_1M@GLIPPMAC@?$AAf?$AAr?$AA?9?$AAF?$AAR?$AA?$AA@ 00000001800283d0     libucrt:lcidtoname_downlevel.obj
 0002:000063e0       ??_C@_1M@GFMCHPE@?$AAh?$AAe?$AA?9?$AAI?$AAL?$AA?$AA@ 00000001800283e0     libucrt:lcidtoname_downlevel.obj
 0002:000063f0       ??_C@_1M@MHLPGNKM@?$AAh?$AAu?$AA?9?$AAH?$AAU?$AA?$AA@ 00000001800283f0     libucrt:lcidtoname_downlevel.obj
 0002:00006400       ??_C@_1M@LPDDNNPN@?$AAi?$AAs?$AA?9?$AAI?$AAS?$AA?$AA@ 0000000180028400     libucrt:lcidtoname_downlevel.obj
 0002:00006410       ??_C@_1M@MADIPODN@?$AAi?$AAt?$AA?9?$AAI?$AAT?$AA?$AA@ 0000000180028410     libucrt:lcidtoname_downlevel.obj
 0002:00006420       ??_C@_1M@IHBJJGG@?$AAn?$AAl?$AA?9?$AAN?$AAL?$AA?$AA@ 0000000180028420     libucrt:lcidtoname_downlevel.obj
 0002:00006430       ??_C@_1M@EANAGDL@?$AAn?$AAb?$AA?9?$AAN?$AAO?$AA?$AA@ 0000000180028430     libucrt:lcidtoname_downlevel.obj
 0002:00006440       ??_C@_1M@NEIEMEGP@?$AAp?$AAl?$AA?9?$AAP?$AAL?$AA?$AA@ 0000000180028440     libucrt:lcidtoname_downlevel.obj
 0002:00006450       ??_C@_1M@BOCFIGEP@?$AAp?$AAt?$AA?9?$AAB?$AAR?$AA?$AA@ 0000000180028450     libucrt:lcidtoname_downlevel.obj
 0002:00006460       ??_C@_1M@IMPFOPBG@?$AAr?$AAo?$AA?9?$AAR?$AAO?$AA?$AA@ 0000000180028460     libucrt:lcidtoname_downlevel.obj
 0002:00006470       ??_C@_1M@IDNNEJMM@?$AAr?$AAu?$AA?9?$AAR?$AAU?$AA?$AA@ 0000000180028470     libucrt:lcidtoname_downlevel.obj
 0002:00006480       ??_C@_1M@LILEEOGM@?$AAh?$AAr?$AA?9?$AAH?$AAR?$AA?$AA@ 0000000180028480     libucrt:lcidtoname_downlevel.obj
 0002:00006490       ??_C@_1M@FKIFEHPB@?$AAs?$AAk?$AA?9?$AAS?$AAK?$AA?$AA@ 0000000180028490     libucrt:lcidtoname_downlevel.obj
 0002:000064a0       ??_C@_1M@LJMAMNPJ@?$AAs?$AAq?$AA?9?$AAA?$AAL?$AA?$AA@ 00000001800284a0     libucrt:lcidtoname_downlevel.obj
 0002:000064b0       ??_C@_1M@GIAKDKJK@?$AAs?$AAv?$AA?9?$AAS?$AAE?$AA?$AA@ 00000001800284b0     libucrt:lcidtoname_downlevel.obj
 0002:000064c0       ??_C@_1M@MKJKIKCL@?$AAt?$AAh?$AA?9?$AAT?$AAH?$AA?$AA@ 00000001800284c0     libucrt:lcidtoname_downlevel.obj
 0002:000064d0       ??_C@_1M@MFLCCMPB@?$AAt?$AAr?$AA?9?$AAT?$AAR?$AA?$AA@ 00000001800284d0     libucrt:lcidtoname_downlevel.obj
 0002:000064e0       ??_C@_1M@OIJHDKJN@?$AAu?$AAr?$AA?9?$AAP?$AAK?$AA?$AA@ 00000001800284e0     libucrt:lcidtoname_downlevel.obj
 0002:000064f0       ??_C@_1M@LHIPCIEK@?$AAi?$AAd?$AA?9?$AAI?$AAD?$AA?$AA@ 00000001800284f0     libucrt:lcidtoname_downlevel.obj
 0002:00006500       ??_C@_1M@MFMOBGI@?$AAu?$AAk?$AA?9?$AAU?$AAA?$AA?$AA@ 0000000180028500     libucrt:lcidtoname_downlevel.obj
 0002:00006510       ??_C@_1M@OBGLJIPL@?$AAb?$AAe?$AA?9?$AAB?$AAY?$AA?$AA@ 0000000180028510     libucrt:lcidtoname_downlevel.obj
 0002:00006520       ??_C@_1M@BCFAJEAD@?$AAs?$AAl?$AA?9?$AAS?$AAI?$AA?$AA@ 0000000180028520     libucrt:lcidtoname_downlevel.obj
 0002:00006530       ??_C@_1M@FKFFEDDN@?$AAe?$AAt?$AA?9?$AAE?$AAE?$AA?$AA@ 0000000180028530     libucrt:lcidtoname_downlevel.obj
 0002:00006540       ??_C@_1M@KGKKAACI@?$AAl?$AAv?$AA?9?$AAL?$AAV?$AA?$AA@ 0000000180028540     libucrt:lcidtoname_downlevel.obj
 0002:00006550       ??_C@_1M@IFGBIJO@?$AAl?$AAt?$AA?9?$AAL?$AAT?$AA?$AA@ 0000000180028550     libucrt:lcidtoname_downlevel.obj
 0002:00006560       ??_C@_1M@FGEAHEDM@?$AAf?$AAa?$AA?9?$AAI?$AAR?$AA?$AA@ 0000000180028560     libucrt:lcidtoname_downlevel.obj
 0002:00006570       ??_C@_1M@KBMAIBFN@?$AAv?$AAi?$AA?9?$AAV?$AAN?$AA?$AA@ 0000000180028570     libucrt:lcidtoname_downlevel.obj
 0002:00006580       ??_C@_1M@GPCBKDJK@?$AAh?$AAy?$AA?9?$AAA?$AAM?$AA?$AA@ 0000000180028580     libucrt:lcidtoname_downlevel.obj
 0002:00006590       ??_C@_1BG@BECMDDJB@?$AAa?$AAz?$AA?9?$AAA?$AAZ?$AA?9?$AAL?$AAa?$AAt?$AAn?$AA?$AA@ 0000000180028590     libucrt:lcidtoname_downlevel.obj
 0002:000065a8       ??_C@_1M@MAOFCAEA@?$AAe?$AAu?$AA?9?$AAE?$AAS?$AA?$AA@ 00000001800285a8     libucrt:lcidtoname_downlevel.obj
 0002:000065b8       ??_C@_1M@IGHABKPI@?$AAm?$AAk?$AA?9?$AAM?$AAK?$AA?$AA@ 00000001800285b8     libucrt:lcidtoname_downlevel.obj
 0002:000065c8       ??_C@_1M@IAIGNEJG@?$AAt?$AAn?$AA?9?$AAZ?$AAA?$AA?$AA@ 00000001800285c8     libucrt:lcidtoname_downlevel.obj
 0002:000065d8       ??_C@_1M@IIJCOJFA@?$AAx?$AAh?$AA?9?$AAZ?$AAA?$AA?$AA@ 00000001800285d8     libucrt:lcidtoname_downlevel.obj
 0002:000065e8       ??_C@_1M@LGPJHNJH@?$AAz?$AAu?$AA?9?$AAZ?$AAA?$AA?$AA@ 00000001800285e8     libucrt:lcidtoname_downlevel.obj
 0002:000065f8       ??_C@_1M@HOKAOIO@?$AAa?$AAf?$AA?9?$AAZ?$AAA?$AA?$AA@ 00000001800285f8     libucrt:lcidtoname_downlevel.obj
 0002:00006608       ??_C@_1M@DPCLHLIE@?$AAk?$AAa?$AA?9?$AAG?$AAE?$AA?$AA@ 0000000180028608     libucrt:lcidtoname_downlevel.obj
 0002:00006618       ??_C@_1M@BLKMHJBI@?$AAf?$AAo?$AA?9?$AAF?$AAO?$AA?$AA@ 0000000180028618     libucrt:lcidtoname_downlevel.obj
 0002:00006628       ??_C@_1M@LGGJAPPB@?$AAh?$AAi?$AA?9?$AAI?$AAN?$AA?$AA@ 0000000180028628     libucrt:lcidtoname_downlevel.obj
 0002:00006638       ??_C@_1M@FIKPIHFE@?$AAm?$AAt?$AA?9?$AAM?$AAT?$AA?$AA@ 0000000180028638     libucrt:lcidtoname_downlevel.obj
 0002:00006648       ??_C@_1M@HEGGPBFA@?$AAs?$AAe?$AA?9?$AAN?$AAO?$AA?$AA@ 0000000180028648     libucrt:lcidtoname_downlevel.obj
 0002:00006658       ??_C@_1M@EIBJEEPA@?$AAm?$AAs?$AA?9?$AAM?$AAY?$AA?$AA@ 0000000180028658     libucrt:lcidtoname_downlevel.obj
 0002:00006668       ??_C@_1M@FHLBGMPP@?$AAk?$AAk?$AA?9?$AAK?$AAZ?$AA?$AA@ 0000000180028668     libucrt:lcidtoname_downlevel.obj
 0002:00006678       ??_C@_1M@NGJJLCGI@?$AAk?$AAy?$AA?9?$AAK?$AAG?$AA?$AA@ 0000000180028678     libucrt:lcidtoname_downlevel.obj
 0002:00006688       ??_C@_1M@GIENNBFC@?$AAs?$AAw?$AA?9?$AAK?$AAE?$AA?$AA@ 0000000180028688     libucrt:lcidtoname_downlevel.obj
 0002:00006698       ??_C@_1BG@NDGMJIMJ@?$AAu?$AAz?$AA?9?$AAU?$AAZ?$AA?9?$AAL?$AAa?$AAt?$AAn?$AA?$AA@ 0000000180028698     libucrt:lcidtoname_downlevel.obj
 0002:000066b0       ??_C@_1M@IDCCIHBC@?$AAt?$AAt?$AA?9?$AAR?$AAU?$AA?$AA@ 00000001800286b0     libucrt:lcidtoname_downlevel.obj
 0002:000066c0       ??_C@_1M@LOICPMOJ@?$AAb?$AAn?$AA?9?$AAI?$AAN?$AA?$AA@ 00000001800286c0     libucrt:lcidtoname_downlevel.obj
 0002:000066d0       ??_C@_1M@KPKKNEAH@?$AAp?$AAa?$AA?9?$AAI?$AAN?$AA?$AA@ 00000001800286d0     libucrt:lcidtoname_downlevel.obj
 0002:000066e0       ??_C@_1M@PJGPPBOG@?$AAg?$AAu?$AA?9?$AAI?$AAN?$AA?$AA@ 00000001800286e0     libucrt:lcidtoname_downlevel.obj
 0002:000066f0       ??_C@_1M@KMKMOPHI@?$AAt?$AAa?$AA?9?$AAI?$AAN?$AA?$AA@ 00000001800286f0     libucrt:lcidtoname_downlevel.obj
 0002:00006700       ??_C@_1M@KFEHEPAC@?$AAt?$AAe?$AA?9?$AAI?$AAN?$AA?$AA@ 0000000180028700     libucrt:lcidtoname_downlevel.obj
 0002:00006710       ??_C@_1M@CDCLMGHI@?$AAk?$AAn?$AA?9?$AAI?$AAN?$AA?$AA@ 0000000180028710     libucrt:lcidtoname_downlevel.obj
 0002:00006720       ??_C@_1M@MIODLDKF@?$AAm?$AAl?$AA?9?$AAI?$AAN?$AA?$AA@ 0000000180028720     libucrt:lcidtoname_downlevel.obj
 0002:00006730       ??_C@_1M@PBIEACPO@?$AAm?$AAr?$AA?9?$AAI?$AAN?$AA?$AA@ 0000000180028730     libucrt:lcidtoname_downlevel.obj
 0002:00006740       ??_C@_1M@NIDEAGPH@?$AAs?$AAa?$AA?9?$AAI?$AAN?$AA?$AA@ 0000000180028740     libucrt:lcidtoname_downlevel.obj
 0002:00006750       ??_C@_1M@FHIHCBIO@?$AAm?$AAn?$AA?9?$AAM?$AAN?$AA?$AA@ 0000000180028750     libucrt:lcidtoname_downlevel.obj
 0002:00006760       ??_C@_1M@JAIJPENP@?$AAc?$AAy?$AA?9?$AAG?$AAB?$AA?$AA@ 0000000180028760     libucrt:lcidtoname_downlevel.obj
 0002:00006770       ??_C@_1M@PHGFBEPN@?$AAg?$AAl?$AA?9?$AAE?$AAS?$AA?$AA@ 0000000180028770     libucrt:lcidtoname_downlevel.obj
 0002:00006780       ??_C@_1O@KPIPDNCP@?$AAk?$AAo?$AAk?$AA?9?$AAI?$AAN?$AA?$AA@ 0000000180028780     libucrt:lcidtoname_downlevel.obj
 0002:00006790       ??_C@_1O@KNHJLDJA@?$AAs?$AAy?$AAr?$AA?9?$AAS?$AAY?$AA?$AA@ 0000000180028790     libucrt:lcidtoname_downlevel.obj
 0002:000067a0       ??_C@_1O@MKEKBLAH@?$AAd?$AAi?$AAv?$AA?9?$AAM?$AAV?$AA?$AA@ 00000001800287a0     libucrt:lcidtoname_downlevel.obj
 0002:000067b0       ??_C@_1O@OHDCKDDF@?$AAq?$AAu?$AAz?$AA?9?$AAB?$AAO?$AA?$AA@ 00000001800287b0     libucrt:lcidtoname_downlevel.obj
 0002:000067c0       ??_C@_1M@LEPJNLFD@?$AAn?$AAs?$AA?9?$AAZ?$AAA?$AA?$AA@ 00000001800287c0     libucrt:lcidtoname_downlevel.obj
 0002:000067d0       ??_C@_1M@OMLEIIJB@?$AAm?$AAi?$AA?9?$AAN?$AAZ?$AA?$AA@ 00000001800287d0     libucrt:lcidtoname_downlevel.obj
 0002:000067e0       ??_C@_1M@PMPEAILG@?$AAa?$AAr?$AA?9?$AAI?$AAQ?$AA?$AA@ 00000001800287e0     libucrt:lcidtoname_downlevel.obj
 0002:000067f0       ??_C@_1M@CNKPNOEE@?$AAd?$AAe?$AA?9?$AAC?$AAH?$AA?$AA@ 00000001800287f0     libucrt:lcidtoname_downlevel.obj
 0002:00006800       ??_C@_1M@LKMGMLKO@?$AAe?$AAn?$AA?9?$AAG?$AAB?$AA?$AA@ 0000000180028800     libucrt:lcidtoname_downlevel.obj
 0002:00006810       ??_C@_1M@PGKJFFGL@?$AAe?$AAs?$AA?9?$AAM?$AAX?$AA?$AA@ 0000000180028810     libucrt:lcidtoname_downlevel.obj
 0002:00006820       ??_C@_1M@DNNANBDC@?$AAf?$AAr?$AA?9?$AAB?$AAE?$AA?$AA@ 0000000180028820     libucrt:lcidtoname_downlevel.obj
 0002:00006830       ??_C@_1M@HLGMDFHM@?$AAi?$AAt?$AA?9?$AAC?$AAH?$AA?$AA@ 0000000180028830     libucrt:lcidtoname_downlevel.obj
 0002:00006840       ??_C@_1M@CLLBGJH@?$AAn?$AAl?$AA?9?$AAB?$AAE?$AA?$AA@ 0000000180028840     libucrt:lcidtoname_downlevel.obj
 0002:00006850       ??_C@_1M@BODBOGLF@?$AAn?$AAn?$AA?9?$AAN?$AAO?$AA?$AA@ 0000000180028850     libucrt:lcidtoname_downlevel.obj
 0002:00006860       ??_C@_1M@HFFAHKAD@?$AAp?$AAt?$AA?9?$AAP?$AAT?$AA?$AA@ 0000000180028860     libucrt:lcidtoname_downlevel.obj
 0002:00006870       ??_C@_1BG@LNOAKHIE@?$AAs?$AAr?$AA?9?$AAS?$AAP?$AA?9?$AAL?$AAa?$AAt?$AAn?$AA?$AA@ 0000000180028870     libucrt:lcidtoname_downlevel.obj
 0002:00006888       ??_C@_1M@HBMHBGAK@?$AAs?$AAv?$AA?9?$AAF?$AAI?$AA?$AA@ 0000000180028888     libucrt:lcidtoname_downlevel.obj
 0002:00006898       ??_C@_1BG@DGCJGJBE@?$AAa?$AAz?$AA?9?$AAA?$AAZ?$AA?9?$AAC?$AAy?$AAr?$AAl?$AA?$AA@ 0000000180028898     libucrt:lcidtoname_downlevel.obj
 0002:000068b0       ??_C@_1M@KEJDAAHB@?$AAs?$AAe?$AA?9?$AAS?$AAE?$AA?$AA@ 00000001800288b0     libucrt:lcidtoname_downlevel.obj
 0002:000068c0       ??_C@_1M@HEIBJJAD@?$AAm?$AAs?$AA?9?$AAB?$AAN?$AA?$AA@ 00000001800288c0     libucrt:lcidtoname_downlevel.obj
 0002:000068d0       ??_C@_1BG@PBGJMCEM@?$AAu?$AAz?$AA?9?$AAU?$AAZ?$AA?9?$AAC?$AAy?$AAr?$AAl?$AA?$AA@ 00000001800288d0     libucrt:lcidtoname_downlevel.obj
 0002:000068e8       ??_C@_1O@LAOBCMDF@?$AAq?$AAu?$AAz?$AA?9?$AAE?$AAC?$AA?$AA@ 00000001800288e8     libucrt:lcidtoname_downlevel.obj
 0002:000068f8       ??_C@_1M@POEEMAIO@?$AAa?$AAr?$AA?9?$AAE?$AAG?$AA?$AA@ 00000001800288f8     libucrt:lcidtoname_downlevel.obj
 0002:00006908       ??_C@_1M@EFAKDEDL@?$AAz?$AAh?$AA?9?$AAH?$AAK?$AA?$AA@ 0000000180028908     libucrt:lcidtoname_downlevel.obj
 0002:00006918       ??_C@_1M@HKKIJHGI@?$AAd?$AAe?$AA?9?$AAA?$AAT?$AA?$AA@ 0000000180028918     libucrt:lcidtoname_downlevel.obj
 0002:00006928       ??_C@_1M@KBFBEHJF@?$AAe?$AAn?$AA?9?$AAA?$AAU?$AA?$AA@ 0000000180028928     libucrt:lcidtoname_downlevel.obj
 0002:00006938       ??_C@_1M@MNPLFAAH@?$AAe?$AAs?$AA?9?$AAE?$AAS?$AA?$AA@ 0000000180028938     libucrt:lcidtoname_downlevel.obj
 0002:00006948       ??_C@_1M@HJOOJFMA@?$AAf?$AAr?$AA?9?$AAC?$AAA?$AA?$AA@ 0000000180028948     libucrt:lcidtoname_downlevel.obj
 0002:00006958       ??_C@_1BG@JPOFPNAB@?$AAs?$AAr?$AA?9?$AAS?$AAP?$AA?9?$AAC?$AAy?$AAr?$AAl?$AA?$AA@ 0000000180028958     libucrt:lcidtoname_downlevel.obj
 0002:00006970       ??_C@_1M@LNFOCMOB@?$AAs?$AAe?$AA?9?$AAF?$AAI?$AA?$AA@ 0000000180028970     libucrt:lcidtoname_downlevel.obj
 0002:00006980       ??_C@_1O@MGJBOAMB@?$AAq?$AAu?$AAz?$AA?9?$AAP?$AAE?$AA?$AA@ 0000000180028980     libucrt:lcidtoname_downlevel.obj
 0002:00006990       ??_C@_1M@GJINLBOK@?$AAa?$AAr?$AA?9?$AAL?$AAY?$AA?$AA@ 0000000180028990     libucrt:lcidtoname_downlevel.obj
 0002:000069a0       ??_C@_1M@GGMNHJNL@?$AAz?$AAh?$AA?9?$AAS?$AAG?$AA?$AA@ 00000001800289a0     libucrt:lcidtoname_downlevel.obj
 0002:000069b0       ??_C@_1M@HOIKODND@?$AAd?$AAe?$AA?9?$AAL?$AAU?$AA?$AA@ 00000001800289b0     libucrt:lcidtoname_downlevel.obj
 0002:000069c0       ??_C@_1M@DDOCCGFG@?$AAe?$AAn?$AA?9?$AAC?$AAA?$AA?$AA@ 00000001800289c0     libucrt:lcidtoname_downlevel.obj
 0002:000069d0       ??_C@_1M@BNOEMJLF@?$AAe?$AAs?$AA?9?$AAG?$AAT?$AA?$AA@ 00000001800289d0     libucrt:lcidtoname_downlevel.obj
 0002:000069e0       ??_C@_1M@EOGNKEK@?$AAf?$AAr?$AA?9?$AAC?$AAH?$AA?$AA@ 00000001800289e0     libucrt:lcidtoname_downlevel.obj
 0002:000069f0       ??_C@_1M@FLIDJFHL@?$AAh?$AAr?$AA?9?$AAB?$AAA?$AA?$AA@ 00000001800289f0     libucrt:lcidtoname_downlevel.obj
 0002:00006a00       ??_C@_1O@FMCELNAJ@?$AAs?$AAm?$AAj?$AA?9?$AAN?$AAO?$AA?$AA@ 0000000180028a00     libucrt:lcidtoname_downlevel.obj
 0002:00006a10       ??_C@_1M@JHGLJMGJ@?$AAa?$AAr?$AA?9?$AAD?$AAZ?$AA?$AA@ 0000000180028a10     libucrt:lcidtoname_downlevel.obj
 0002:00006a20       ??_C@_1M@JKKFDCNP@?$AAz?$AAh?$AA?9?$AAM?$AAO?$AA?$AA@ 0000000180028a20     libucrt:lcidtoname_downlevel.obj
 0002:00006a30       ??_C@_1M@GEEFALPE@?$AAd?$AAe?$AA?9?$AAL?$AAI?$AA?$AA@ 0000000180028a30     libucrt:lcidtoname_downlevel.obj
 0002:00006a40       ??_C@_1M@IGEOFBG@?$AAe?$AAn?$AA?9?$AAN?$AAZ?$AA?$AA@ 0000000180028a40     libucrt:lcidtoname_downlevel.obj
 0002:00006a50       ??_C@_1M@KDBONEHP@?$AAe?$AAs?$AA?9?$AAC?$AAR?$AA?$AA@ 0000000180028a50     libucrt:lcidtoname_downlevel.obj
 0002:00006a60       ??_C@_1M@FHMDOHNN@?$AAf?$AAr?$AA?9?$AAL?$AAU?$AA?$AA@ 0000000180028a60     libucrt:lcidtoname_downlevel.obj
 0002:00006a70       ??_C@_1BG@NFKKMAFG@?$AAb?$AAs?$AA?9?$AAB?$AAA?$AA?9?$AAL?$AAa?$AAt?$AAn?$AA?$AA@ 0000000180028a70     libucrt:lcidtoname_downlevel.obj
 0002:00006a88       ??_C@_1O@IMNBEMCI@?$AAs?$AAm?$AAj?$AA?9?$AAS?$AAE?$AA?$AA@ 0000000180028a88     libucrt:lcidtoname_downlevel.obj
 0002:00006a98       ??_C@_1M@DHHMBNDP@?$AAa?$AAr?$AA?9?$AAM?$AAA?$AA?$AA@ 0000000180028a98     libucrt:lcidtoname_downlevel.obj
 0002:00006aa8       ??_C@_1M@BNBLJCGH@?$AAe?$AAn?$AA?9?$AAI?$AAE?$AA?$AA@ 0000000180028aa8     libucrt:lcidtoname_downlevel.obj
 0002:00006ab8       ??_C@_1M@GEPAFMDL@?$AAe?$AAs?$AA?9?$AAP?$AAA?$AA?$AA@ 0000000180028ab8     libucrt:lcidtoname_downlevel.obj
 0002:00006ac8       ??_C@_1M@OJONDMDL@?$AAf?$AAr?$AA?9?$AAM?$AAC?$AA?$AA@ 0000000180028ac8     libucrt:lcidtoname_downlevel.obj
 0002:00006ad8       ??_C@_1BG@OBCNFJB@?$AAs?$AAr?$AA?9?$AAB?$AAA?$AA?9?$AAL?$AAa?$AAt?$AAn?$AA?$AA@ 0000000180028ad8     libucrt:lcidtoname_downlevel.obj
 0002:00006af0       ??_C@_1O@KEMEEGPO@?$AAs?$AAm?$AAa?$AA?9?$AAN?$AAO?$AA?$AA@ 0000000180028af0     libucrt:lcidtoname_downlevel.obj
 0002:00006b00       ??_C@_1M@ELMGFODK@?$AAa?$AAr?$AA?9?$AAT?$AAN?$AA?$AA@ 0000000180028b00     libucrt:lcidtoname_downlevel.obj
 0002:00006b10       ??_C@_1M@BHDLHFAF@?$AAe?$AAn?$AA?9?$AAZ?$AAA?$AA?$AA@ 0000000180028b10     libucrt:lcidtoname_downlevel.obj
 0002:00006b20       ??_C@_1M@BMGIGLIF@?$AAe?$AAs?$AA?9?$AAD?$AAO?$AA?$AA@ 0000000180028b20     libucrt:lcidtoname_downlevel.obj
 0002:00006b30       ??_C@_1BG@CMBHIPBE@?$AAs?$AAr?$AA?9?$AAB?$AAA?$AA?9?$AAC?$AAy?$AAr?$AAl?$AA?$AA@ 0000000180028b30     libucrt:lcidtoname_downlevel.obj
 0002:00006b48       ??_C@_1O@HEDBLHNP@?$AAs?$AAm?$AAa?$AA?9?$AAS?$AAE?$AA?$AA@ 0000000180028b48     libucrt:lcidtoname_downlevel.obj
 0002:00006b58       ??_C@_1M@DAGCADIM@?$AAa?$AAr?$AA?9?$AAO?$AAM?$AA?$AA@ 0000000180028b58     libucrt:lcidtoname_downlevel.obj
 0002:00006b68       ??_C@_1M@FODLMICG@?$AAe?$AAn?$AA?9?$AAJ?$AAM?$AA?$AA@ 0000000180028b68     libucrt:lcidtoname_downlevel.obj
 0002:00006b78       ??_C@_1M@DNMLCIHB@?$AAe?$AAs?$AA?9?$AAV?$AAE?$AA?$AA@ 0000000180028b78     libucrt:lcidtoname_downlevel.obj
 0002:00006b88       ??_C@_1O@EOKHMKJK@?$AAs?$AAm?$AAs?$AA?9?$AAF?$AAI?$AA?$AA@ 0000000180028b88     libucrt:lcidtoname_downlevel.obj
 0002:00006b98       ??_C@_1M@CAFJMKOF@?$AAa?$AAr?$AA?9?$AAY?$AAE?$AA?$AA@ 0000000180028b98     libucrt:lcidtoname_downlevel.obj
 0002:00006ba8       ??_C@_1M@CBFHIJLI@?$AAe?$AAn?$AA?9?$AAC?$AAB?$AA?$AA@ 0000000180028ba8     libucrt:lcidtoname_downlevel.obj
 0002:00006bb8       ??_C@_1M@BGNFLDN@?$AAe?$AAs?$AA?9?$AAC?$AAO?$AA?$AA@ 0000000180028bb8     libucrt:lcidtoname_downlevel.obj
 0002:00006bc8       ??_C@_1O@JMPHMAMC@?$AAs?$AAm?$AAn?$AA?9?$AAF?$AAI?$AA?$AA@ 0000000180028bc8     libucrt:lcidtoname_downlevel.obj
 0002:00006bd8       ??_C@_1M@JLANABKE@?$AAa?$AAr?$AA?9?$AAS?$AAY?$AA?$AA@ 0000000180028bd8     libucrt:lcidtoname_downlevel.obj
 0002:00006be8       ??_C@_1M@HPKGCFGN@?$AAe?$AAn?$AA?9?$AAB?$AAZ?$AA?$AA@ 0000000180028be8     libucrt:lcidtoname_downlevel.obj
 0002:00006bf8       ??_C@_1M@OLJCMLGM@?$AAe?$AAs?$AA?9?$AAP?$AAE?$AA?$AA@ 0000000180028bf8     libucrt:lcidtoname_downlevel.obj
 0002:00006c08       ??_C@_1M@MKKGFKLE@?$AAa?$AAr?$AA?9?$AAJ?$AAO?$AA?$AA@ 0000000180028c08     libucrt:lcidtoname_downlevel.obj
 0002:00006c18       ??_C@_1M@EKPGLDNI@?$AAe?$AAn?$AA?9?$AAT?$AAT?$AA?$AA@ 0000000180028c18     libucrt:lcidtoname_downlevel.obj
 0002:00006c28       ??_C@_1M@OONGHFHE@?$AAe?$AAs?$AA?9?$AAA?$AAR?$AA?$AA@ 0000000180028c28     libucrt:lcidtoname_downlevel.obj
 0002:00006c38       ??_C@_1M@OOJFGBHE@?$AAa?$AAr?$AA?9?$AAL?$AAB?$AA?$AA@ 0000000180028c38     libucrt:lcidtoname_downlevel.obj
 0002:00006c48       ??_C@_1M@GCEJHNEG@?$AAe?$AAn?$AA?9?$AAZ?$AAW?$AA?$AA@ 0000000180028c48     libucrt:lcidtoname_downlevel.obj
 0002:00006c58       ??_C@_1M@JNOCAHJI@?$AAe?$AAs?$AA?9?$AAE?$AAC?$AA?$AA@ 0000000180028c58     libucrt:lcidtoname_downlevel.obj
 0002:00006c68       ??_C@_1M@JEFHPGGB@?$AAa?$AAr?$AA?9?$AAK?$AAW?$AA?$AA@ 0000000180028c68     libucrt:lcidtoname_downlevel.obj
 0002:00006c78       ??_C@_1M@MLKIBJOJ@?$AAe?$AAn?$AA?9?$AAP?$AAH?$AA?$AA@ 0000000180028c78     libucrt:lcidtoname_downlevel.obj
 0002:00006c88       ??_C@_1M@BDNIPEND@?$AAe?$AAs?$AA?9?$AAC?$AAL?$AA?$AA@ 0000000180028c88     libucrt:lcidtoname_downlevel.obj
 0002:00006c98       ??_C@_1M@MPNMEKBD@?$AAa?$AAr?$AA?9?$AAA?$AAE?$AA?$AA@ 0000000180028c98     libucrt:lcidtoname_downlevel.obj
 0002:00006ca8       ??_C@_1M@KBJALCPI@?$AAe?$AAs?$AA?9?$AAU?$AAY?$AA?$AA@ 0000000180028ca8     libucrt:lcidtoname_downlevel.obj
 0002:00006cb8       ??_C@_1M@LLCCOAGA@?$AAa?$AAr?$AA?9?$AAB?$AAH?$AA?$AA@ 0000000180028cb8     libucrt:lcidtoname_downlevel.obj
 0002:00006cc8       ??_C@_1M@PBFNCDEL@?$AAe?$AAs?$AA?9?$AAP?$AAY?$AA?$AA@ 0000000180028cc8     libucrt:lcidtoname_downlevel.obj
 0002:00006cd8       ??_C@_1M@EDGINPNP@?$AAa?$AAr?$AA?9?$AAQ?$AAA?$AA?$AA@ 0000000180028cd8     libucrt:lcidtoname_downlevel.obj
 0002:00006ce8       ??_C@_1M@MKDBIIJI@?$AAe?$AAs?$AA?9?$AAB?$AAO?$AA?$AA@ 0000000180028ce8     libucrt:lcidtoname_downlevel.obj
 0002:00006cf8       ??_C@_1M@CPKKEBLD@?$AAe?$AAs?$AA?9?$AAS?$AAV?$AA?$AA@ 0000000180028cf8     libucrt:lcidtoname_downlevel.obj
 0002:00006d08       ??_C@_1M@NDBGMMJL@?$AAe?$AAs?$AA?9?$AAH?$AAN?$AA?$AA@ 0000000180028d08     libucrt:lcidtoname_downlevel.obj
 0002:00006d18       ??_C@_1M@JIJIBHDP@?$AAe?$AAs?$AA?9?$AAN?$AAI?$AA?$AA@ 0000000180028d18     libucrt:lcidtoname_downlevel.obj
 0002:00006d28       ??_C@_1M@CGFMKEEK@?$AAe?$AAs?$AA?9?$AAP?$AAR?$AA?$AA@ 0000000180028d28     libucrt:lcidtoname_downlevel.obj
 0002:00006d38       ??_C@_1O@ICJHKIIK@?$AAz?$AAh?$AA?9?$AAC?$AAH?$AAT?$AA?$AA@ 0000000180028d38     libucrt:lcidtoname_downlevel.obj
 0002:00006d48       ??_C@_15CLNEJCE@?$AAs?$AAr?$AA?$AA@ 0000000180028d48     libucrt:lcidtoname_downlevel.obj
 0002:00007b90       ??_C@_1M@KAHEKEIG@?$AAa?$AAf?$AA?9?$AAz?$AAa?$AA?$AA@ 0000000180029b90     libucrt:lcidtoname_downlevel.obj
 0002:00007ba0       ??_C@_1M@GIECOABL@?$AAa?$AAr?$AA?9?$AAa?$AAe?$AA?$AA@ 0000000180029ba0     libucrt:lcidtoname_downlevel.obj
 0002:00007bb0       ??_C@_1M@BMLMEKGI@?$AAa?$AAr?$AA?9?$AAb?$AAh?$AA?$AA@ 0000000180029bb0     libucrt:lcidtoname_downlevel.obj
 0002:00007bc0       ??_C@_1M@DAPFDGGB@?$AAa?$AAr?$AA?9?$AAd?$AAz?$AA?$AA@ 0000000180029bc0     libucrt:lcidtoname_downlevel.obj
 0002:00007bd0       ??_C@_1M@FJNKGKIG@?$AAa?$AAr?$AA?9?$AAe?$AAg?$AA?$AA@ 0000000180029bd0     libucrt:lcidtoname_downlevel.obj
 0002:00007be0       ??_C@_1M@FLGKKCLO@?$AAa?$AAr?$AA?9?$AAi?$AAq?$AA?$AA@ 0000000180029be0     libucrt:lcidtoname_downlevel.obj
 0002:00007bf0       ??_C@_1M@GNDIPALM@?$AAa?$AAr?$AA?9?$AAj?$AAo?$AA?$AA@ 0000000180029bf0     libucrt:lcidtoname_downlevel.obj
 0002:00007c00       ??_C@_1M@DDMJFMGJ@?$AAa?$AAr?$AA?9?$AAk?$AAw?$AA?$AA@ 0000000180029c00     libucrt:lcidtoname_downlevel.obj
 0002:00007c10       ??_C@_1M@EJALMLHM@?$AAa?$AAr?$AA?9?$AAl?$AAb?$AA?$AA@ 0000000180029c10     libucrt:lcidtoname_downlevel.obj
 0002:00007c20       ??_C@_1M@MOBDBLOC@?$AAa?$AAr?$AA?9?$AAl?$AAy?$AA?$AA@ 0000000180029c20     libucrt:lcidtoname_downlevel.obj
 0002:00007c30       ??_C@_1M@JAOCLHDH@?$AAa?$AAr?$AA?9?$AAm?$AAa?$AA?$AA@ 0000000180029c30     libucrt:lcidtoname_downlevel.obj
 0002:00007c40       ??_C@_1M@JHPMKJIE@?$AAa?$AAr?$AA?9?$AAo?$AAm?$AA?$AA@ 0000000180029c40     libucrt:lcidtoname_downlevel.obj
 0002:00007c50       ??_C@_1M@OEPGHFNH@?$AAa?$AAr?$AA?9?$AAq?$AAa?$AA?$AA@ 0000000180029c50     libucrt:lcidtoname_downlevel.obj
 0002:00007c60       ??_C@_1M@KJDONENM@?$AAa?$AAr?$AA?9?$AAs?$AAa?$AA?$AA@ 0000000180029c60     libucrt:lcidtoname_downlevel.obj
 0002:00007c70       ??_C@_1M@DMJDKLKM@?$AAa?$AAr?$AA?9?$AAs?$AAy?$AA?$AA@ 0000000180029c70     libucrt:lcidtoname_downlevel.obj
 0002:00007c80       ??_C@_1M@OMFIPEDC@?$AAa?$AAr?$AA?9?$AAt?$AAn?$AA?$AA@ 0000000180029c80     libucrt:lcidtoname_downlevel.obj
 0002:00007c90       ??_C@_1M@IHMHGAON@?$AAa?$AAr?$AA?9?$AAy?$AAe?$AA?$AA@ 0000000180029c90     libucrt:lcidtoname_downlevel.obj
 0002:00007ca0       ??_C@_1BG@KDCPGJGB@?$AAa?$AAz?$AA?9?$AAa?$AAz?$AA?9?$AAc?$AAy?$AAr?$AAl?$AA?$AA@ 0000000180029ca0     libucrt:lcidtoname_downlevel.obj
 0002:00007cb8       ??_C@_1BG@IBCKDDOE@?$AAa?$AAz?$AA?9?$AAa?$AAz?$AA?9?$AAl?$AAa?$AAt?$AAn?$AA?$AA@ 0000000180029cb8     libucrt:lcidtoname_downlevel.obj
 0002:00007cd0       ??_C@_1M@EGPFDCPD@?$AAb?$AAe?$AA?9?$AAb?$AAy?$AA?$AA@ 0000000180029cd0     libucrt:lcidtoname_downlevel.obj
 0002:00007ce0       ??_C@_1M@PCMGMCGC@?$AAb?$AAg?$AA?9?$AAb?$AAg?$AA?$AA@ 0000000180029ce0     libucrt:lcidtoname_downlevel.obj
 0002:00007cf0       ??_C@_1M@BJBMFGOB@?$AAb?$AAn?$AA?9?$AAi?$AAn?$AA?$AA@ 0000000180029cf0     libucrt:lcidtoname_downlevel.obj
 0002:00007d00       ??_C@_1BG@EAKMMACD@?$AAb?$AAs?$AA?9?$AAb?$AAa?$AA?9?$AAl?$AAa?$AAt?$AAn?$AA?$AA@ 0000000180029d00     libucrt:lcidtoname_downlevel.obj
 0002:00007d18       ??_C@_1M@KGADAODK@?$AAc?$AAa?$AA?9?$AAe?$AAs?$AA?$AA@ 0000000180029d18     libucrt:lcidtoname_downlevel.obj
 0002:00007d28       ??_C@_1M@COAJPDHI@?$AAc?$AAs?$AA?9?$AAc?$AAz?$AA?$AA@ 0000000180029d28     libucrt:lcidtoname_downlevel.obj
 0002:00007d38       ??_C@_1M@DHBHFONH@?$AAc?$AAy?$AA?9?$AAg?$AAb?$AA?$AA@ 0000000180029d38     libucrt:lcidtoname_downlevel.obj
 0002:00007d48       ??_C@_1M@IMGKELGA@?$AAd?$AAa?$AA?9?$AAd?$AAk?$AA?$AA@ 0000000180029d48     libucrt:lcidtoname_downlevel.obj
 0002:00007d58       ??_C@_1M@NNDGDNGA@?$AAd?$AAe?$AA?9?$AAa?$AAt?$AA?$AA@ 0000000180029d58     libucrt:lcidtoname_downlevel.obj
 0002:00007d68       ??_C@_1M@IKDBHEEM@?$AAd?$AAe?$AA?9?$AAc?$AAh?$AA?$AA@ 0000000180029d68     libucrt:lcidtoname_downlevel.obj
 0002:00007d78       ??_C@_1M@GFFOJMCJ@?$AAd?$AAe?$AA?9?$AAd?$AAe?$AA?$AA@ 0000000180029d78     libucrt:lcidtoname_downlevel.obj
 0002:00007d88       ??_C@_1M@MDNLKBPM@?$AAd?$AAe?$AA?9?$AAl?$AAi?$AA?$AA@ 0000000180029d88     libucrt:lcidtoname_downlevel.obj
 0002:00007d98       ??_C@_1M@NJBEEJNL@?$AAd?$AAe?$AA?9?$AAl?$AAu?$AA?$AA@ 0000000180029d98     libucrt:lcidtoname_downlevel.obj
 0002:00007da8       ??_C@_1O@GNNELBAP@?$AAd?$AAi?$AAv?$AA?9?$AAm?$AAv?$AA?$AA@ 0000000180029da8     libucrt:lcidtoname_downlevel.obj
 0002:00007db8       ??_C@_1M@EJLEOGAE@?$AAe?$AAl?$AA?9?$AAg?$AAr?$AA?$AA@ 0000000180029db8     libucrt:lcidtoname_downlevel.obj
 0002:00007dc8       ??_C@_1M@GMPONJN@?$AAe?$AAn?$AA?9?$AAa?$AAu?$AA?$AA@ 0000000180029dc8     libucrt:lcidtoname_downlevel.obj
 0002:00007dd8       ??_C@_1M@NIDIIPGF@?$AAe?$AAn?$AA?9?$AAb?$AAz?$AA?$AA@ 0000000180029dd8     libucrt:lcidtoname_downlevel.obj
 0002:00007de8       ??_C@_1M@JEHMIMFO@?$AAe?$AAn?$AA?9?$AAc?$AAa?$AA?$AA@ 0000000180029de8     libucrt:lcidtoname_downlevel.obj
 0002:00007df8       ??_C@_1M@IGMJCDLA@?$AAe?$AAn?$AA?9?$AAc?$AAb?$AA?$AA@ 0000000180029df8     libucrt:lcidtoname_downlevel.obj
 0002:00007e08       ??_C@_1M@BNFIGBKG@?$AAe?$AAn?$AA?9?$AAg?$AAb?$AA?$AA@ 0000000180029e08     libucrt:lcidtoname_downlevel.obj
 0002:00007e18       ??_C@_1M@LKIFDIGP@?$AAe?$AAn?$AA?9?$AAi?$AAe?$AA?$AA@ 0000000180029e18     libucrt:lcidtoname_downlevel.obj
 0002:00007e28       ??_C@_1M@PJKFGCCO@?$AAe?$AAn?$AA?9?$AAj?$AAm?$AA?$AA@ 0000000180029e28     libucrt:lcidtoname_downlevel.obj
 0002:00007e38       ??_C@_1M@KPPKEPBO@?$AAe?$AAn?$AA?9?$AAn?$AAz?$AA?$AA@ 0000000180029e38     libucrt:lcidtoname_downlevel.obj
 0002:00007e48       ??_C@_1M@GMDGLDOB@?$AAe?$AAn?$AA?9?$AAp?$AAh?$AA?$AA@ 0000000180029e48     libucrt:lcidtoname_downlevel.obj
 0002:00007e58       ??_C@_1M@ONGIBJNA@?$AAe?$AAn?$AA?9?$AAt?$AAt?$AA?$AA@ 0000000180029e58     libucrt:lcidtoname_downlevel.obj
 0002:00007e68       ??_C@_1M@LLODPCMM@?$AAe?$AAn?$AA?9?$AAu?$AAs?$AA?$AA@ 0000000180029e68     libucrt:lcidtoname_downlevel.obj
 0002:00007e78       ??_C@_1M@LAKFNPAN@?$AAe?$AAn?$AA?9?$AAz?$AAa?$AA?$AA@ 0000000180029e78     libucrt:lcidtoname_downlevel.obj
 0002:00007e88       ??_C@_1M@MFNHNHEO@?$AAe?$AAn?$AA?9?$AAz?$AAw?$AA?$AA@ 0000000180029e88     libucrt:lcidtoname_downlevel.obj
 0002:00007e98       ??_C@_1M@EJEINPHM@?$AAe?$AAs?$AA?9?$AAa?$AAr?$AA?$AA@ 0000000180029e98     libucrt:lcidtoname_downlevel.obj
 0002:00007ea8       ??_C@_1M@GNKPCCJA@?$AAe?$AAs?$AA?9?$AAb?$AAo?$AA?$AA@ 0000000180029ea8     libucrt:lcidtoname_downlevel.obj
 0002:00007eb8       ??_C@_1M@LEEGFONL@?$AAe?$AAs?$AA?9?$AAc?$AAl?$AA?$AA@ 0000000180029eb8     libucrt:lcidtoname_downlevel.obj
 0002:00007ec8       ??_C@_1M@KGPDPBDF@?$AAe?$AAs?$AA?9?$AAc?$AAo?$AA?$AA@ 0000000180029ec8     libucrt:lcidtoname_downlevel.obj
 0002:00007ed8       ??_C@_1M@EIAHOHH@?$AAe?$AAs?$AA?9?$AAc?$AAr?$AA?$AA@ 0000000180029ed8     libucrt:lcidtoname_downlevel.obj
 0002:00007ee8       ??_C@_1M@LLPGMBIN@?$AAe?$AAs?$AA?9?$AAd?$AAo?$AA?$AA@ 0000000180029ee8     libucrt:lcidtoname_downlevel.obj
 0002:00007ef8       ??_C@_1M@DKHMKNJA@?$AAe?$AAs?$AA?9?$AAe?$AAc?$AA?$AA@ 0000000180029ef8     libucrt:lcidtoname_downlevel.obj
 0002:00007f08       ??_C@_1M@GKGFPKAP@?$AAe?$AAs?$AA?9?$AAe?$AAs?$AA?$AA@ 0000000180029f08     libucrt:lcidtoname_downlevel.obj
 0002:00007f18       ??_C@_1M@LKHKGDLN@?$AAe?$AAs?$AA?9?$AAg?$AAt?$AA?$AA@ 0000000180029f18     libucrt:lcidtoname_downlevel.obj
 0002:00007f28       ??_C@_1M@HEIIGGJD@?$AAe?$AAs?$AA?9?$AAh?$AAn?$AA?$AA@ 0000000180029f28     libucrt:lcidtoname_downlevel.obj
 0002:00007f38       ??_C@_1M@FBDHPPGD@?$AAe?$AAs?$AA?9?$AAm?$AAx?$AA?$AA@ 0000000180029f38     libucrt:lcidtoname_downlevel.obj
 0002:00007f48       ??_C@_1M@DPAGLNDH@?$AAe?$AAs?$AA?9?$AAn?$AAi?$AA?$AA@ 0000000180029f48     libucrt:lcidtoname_downlevel.obj
 0002:00007f58       ??_C@_1M@MDGOPGDD@?$AAe?$AAs?$AA?9?$AAp?$AAa?$AA?$AA@ 0000000180029f58     libucrt:lcidtoname_downlevel.obj
 0002:00007f68       ??_C@_1M@EMAMGBGE@?$AAe?$AAs?$AA?9?$AAp?$AAe?$AA?$AA@ 0000000180029f68     libucrt:lcidtoname_downlevel.obj
 0002:00007f78       ??_C@_1M@IBMCAOEC@?$AAe?$AAs?$AA?9?$AAp?$AAr?$AA?$AA@ 0000000180029f78     libucrt:lcidtoname_downlevel.obj
 0002:00007f88       ??_C@_1M@FGMDIJED@?$AAe?$AAs?$AA?9?$AAp?$AAy?$AA?$AA@ 0000000180029f88     libucrt:lcidtoname_downlevel.obj
 0002:00007f98       ??_C@_1M@IIDEOLLL@?$AAe?$AAs?$AA?9?$AAs?$AAv?$AA?$AA@ 0000000180029f98     libucrt:lcidtoname_downlevel.obj
 0002:00007fa8       ??_C@_1M@GAOBIPA@?$AAe?$AAs?$AA?9?$AAu?$AAy?$AA?$AA@ 0000000180029fa8     libucrt:lcidtoname_downlevel.obj
 0002:00007fb8       ??_C@_1M@JKFFICHJ@?$AAe?$AAs?$AA?9?$AAv?$AAe?$AA?$AA@ 0000000180029fb8     libucrt:lcidtoname_downlevel.obj
 0002:00007fc8       ??_C@_1M@PNMLOJDF@?$AAe?$AAt?$AA?9?$AAe?$AAe?$AA?$AA@ 0000000180029fc8     libucrt:lcidtoname_downlevel.obj
 0002:00007fd8       ??_C@_1M@GHHLIKEI@?$AAe?$AAu?$AA?9?$AAe?$AAs?$AA?$AA@ 0000000180029fd8     libucrt:lcidtoname_downlevel.obj
 0002:00007fe8       ??_C@_1M@PBNONODE@?$AAf?$AAa?$AA?9?$AAi?$AAr?$AA?$AA@ 0000000180029fe8     libucrt:lcidtoname_downlevel.obj
 0002:00007ff8       ??_C@_1M@JEEHPMIL@?$AAf?$AAi?$AA?9?$AAf?$AAi?$AA?$AA@ 0000000180029ff8     libucrt:lcidtoname_downlevel.obj
 0002:00008008       ??_C@_1M@LMDCNDBA@?$AAf?$AAo?$AA?9?$AAf?$AAo?$AA?$AA@ 000000018002a008     libucrt:lcidtoname_downlevel.obj
 0002:00008018       ??_C@_1M@JKEOHLDK@?$AAf?$AAr?$AA?9?$AAb?$AAe?$AA?$AA@ 000000018002a018     libucrt:lcidtoname_downlevel.obj
 0002:00008028       ??_C@_1M@NOHADPMI@?$AAf?$AAr?$AA?9?$AAc?$AAa?$AA?$AA@ 000000018002a028     libucrt:lcidtoname_downlevel.obj
 0002:00008038       ??_C@_1M@KDHIHAEC@?$AAf?$AAr?$AA?9?$AAc?$AAh?$AA?$AA@ 000000018002a038     libucrt:lcidtoname_downlevel.obj
 0002:00008048       ??_C@_1M@MMBBFGAK@?$AAf?$AAr?$AA?9?$AAf?$AAr?$AA?$AA@ 000000018002a048     libucrt:lcidtoname_downlevel.obj
 0002:00008058       ??_C@_1M@PAFNENNF@?$AAf?$AAr?$AA?9?$AAl?$AAu?$AA?$AA@ 000000018002a058     libucrt:lcidtoname_downlevel.obj
 0002:00008068       ??_C@_1M@EOHDJGDD@?$AAf?$AAr?$AA?9?$AAm?$AAc?$AA?$AA@ 000000018002a068     libucrt:lcidtoname_downlevel.obj
 0002:00008078       ??_C@_1M@FAPLLOPF@?$AAg?$AAl?$AA?9?$AAe?$AAs?$AA?$AA@ 000000018002a078     libucrt:lcidtoname_downlevel.obj
 0002:00008088       ??_C@_1M@FOPBFLOO@?$AAg?$AAu?$AA?9?$AAi?$AAn?$AA?$AA@ 000000018002a088     libucrt:lcidtoname_downlevel.obj
 0002:00008098       ??_C@_1M@KBMCINPM@?$AAh?$AAe?$AA?9?$AAi?$AAl?$AA?$AA@ 000000018002a098     libucrt:lcidtoname_downlevel.obj
 0002:000080a8       ??_C@_1M@BBPHKFPJ@?$AAh?$AAi?$AA?9?$AAi?$AAn?$AA?$AA@ 000000018002a0a8     libucrt:lcidtoname_downlevel.obj
 0002:000080b8       ??_C@_1M@PMBNDPHD@?$AAh?$AAr?$AA?9?$AAb?$AAa?$AA?$AA@ 000000018002a0b8     libucrt:lcidtoname_downlevel.obj
 0002:000080c8       ??_C@_1M@BPCKOEGE@?$AAh?$AAr?$AA?9?$AAh?$AAr?$AA?$AA@ 000000018002a0c8     libucrt:lcidtoname_downlevel.obj
 0002:000080d8       ??_C@_1M@GACBMHKE@?$AAh?$AAu?$AA?9?$AAh?$AAu?$AA?$AA@ 000000018002a0d8     libucrt:lcidtoname_downlevel.obj
 0002:000080e8       ??_C@_1M@MILPAJJC@?$AAh?$AAy?$AA?9?$AAa?$AAm?$AA?$AA@ 000000018002a0e8     libucrt:lcidtoname_downlevel.obj
 0002:000080f8       ??_C@_1M@BABBICEC@?$AAi?$AAd?$AA?9?$AAi?$AAd?$AA?$AA@ 000000018002a0f8     libucrt:lcidtoname_downlevel.obj
 0002:00008108       ??_C@_1M@BIKNHHPF@?$AAi?$AAs?$AA?9?$AAi?$AAs?$AA?$AA@ 000000018002a108     libucrt:lcidtoname_downlevel.obj
 0002:00008118       ??_C@_1M@NMPCJPHE@?$AAi?$AAt?$AA?9?$AAc?$AAh?$AA?$AA@ 000000018002a118     libucrt:lcidtoname_downlevel.obj
 0002:00008128       ??_C@_1M@GHKGFEDF@?$AAi?$AAt?$AA?9?$AAi?$AAt?$AA?$AA@ 000000018002a128     libucrt:lcidtoname_downlevel.obj
 0002:00008138       ??_C@_1M@NIEJCJJA@?$AAj?$AAa?$AA?9?$AAj?$AAp?$AA?$AA@ 000000018002a138     libucrt:lcidtoname_downlevel.obj
 0002:00008148       ??_C@_1M@JILFNBIM@?$AAk?$AAa?$AA?9?$AAg?$AAe?$AA?$AA@ 000000018002a148     libucrt:lcidtoname_downlevel.obj
 0002:00008158       ??_C@_1M@PACPMGPH@?$AAk?$AAk?$AA?9?$AAk?$AAz?$AA?$AA@ 000000018002a158     libucrt:lcidtoname_downlevel.obj
 0002:00008168       ??_C@_1M@IELFGMHA@?$AAk?$AAn?$AA?9?$AAi?$AAn?$AA?$AA@ 000000018002a168     libucrt:lcidtoname_downlevel.obj
 0002:00008178       ??_C@_1O@IBBJHCH@?$AAk?$AAo?$AAk?$AA?9?$AAi?$AAn?$AA?$AA@ 000000018002a178     libucrt:lcidtoname_downlevel.obj
 0002:00008188       ??_C@_1M@DMHAEOGC@?$AAk?$AAo?$AA?9?$AAk?$AAr?$AA?$AA@ 000000018002a188     libucrt:lcidtoname_downlevel.obj
 0002:00008198       ??_C@_1M@HBAHBIGA@?$AAk?$AAy?$AA?9?$AAk?$AAg?$AA?$AA@ 000000018002a198     libucrt:lcidtoname_downlevel.obj
 0002:000081a8       ??_C@_1M@KPMILCJG@?$AAl?$AAt?$AA?9?$AAl?$AAt?$AA?$AA@ 000000018002a1a8     libucrt:lcidtoname_downlevel.obj
 0002:000081b8       ??_C@_1M@BDEKKCA@?$AAl?$AAv?$AA?9?$AAl?$AAv?$AA?$AA@ 000000018002a1b8     libucrt:lcidtoname_downlevel.obj
 0002:000081c8       ??_C@_1M@ELCKCCJJ@?$AAm?$AAi?$AA?9?$AAn?$AAz?$AA?$AA@ 000000018002a1c8     libucrt:lcidtoname_downlevel.obj
 0002:000081d8       ??_C@_1M@CBOOLAPA@?$AAm?$AAk?$AA?9?$AAm?$AAk?$AA?$AA@ 000000018002a1d8     libucrt:lcidtoname_downlevel.obj
 0002:000081e8       ??_C@_1M@GPHNBJKN@?$AAm?$AAl?$AA?9?$AAi?$AAn?$AA?$AA@ 000000018002a1e8     libucrt:lcidtoname_downlevel.obj
 0002:000081f8       ??_C@_1M@PABJILIG@?$AAm?$AAn?$AA?9?$AAm?$AAn?$AA?$AA@ 000000018002a1f8     libucrt:lcidtoname_downlevel.obj
 0002:00008208       ??_C@_1M@FGBKKIPG@?$AAm?$AAr?$AA?9?$AAi?$AAn?$AA?$AA@ 000000018002a208     libucrt:lcidtoname_downlevel.obj
 0002:00008218       ??_C@_1M@NDBPDDAL@?$AAm?$AAs?$AA?9?$AAb?$AAn?$AA?$AA@ 000000018002a218     libucrt:lcidtoname_downlevel.obj
 0002:00008228       ??_C@_1M@OPIHOOPI@?$AAm?$AAs?$AA?9?$AAm?$AAy?$AA?$AA@ 000000018002a228     libucrt:lcidtoname_downlevel.obj
 0002:00008238       ??_C@_1M@PPDBCNFM@?$AAm?$AAt?$AA?9?$AAm?$AAt?$AA?$AA@ 000000018002a238     libucrt:lcidtoname_downlevel.obj
 0002:00008248       ??_C@_1M@KDJDKMDD@?$AAn?$AAb?$AA?9?$AAn?$AAo?$AA?$AA@ 000000018002a248     libucrt:lcidtoname_downlevel.obj
 0002:00008258       ??_C@_1M@KFCFLMJP@?$AAn?$AAl?$AA?9?$AAb?$AAe?$AA?$AA@ 000000018002a258     libucrt:lcidtoname_downlevel.obj
 0002:00008268       ??_C@_1M@KPOPDDGO@?$AAn?$AAl?$AA?9?$AAn?$AAl?$AA?$AA@ 000000018002a268     libucrt:lcidtoname_downlevel.obj
 0002:00008278       ??_C@_1M@LJKPEMLN@?$AAn?$AAn?$AA?9?$AAn?$AAo?$AA?$AA@ 000000018002a278     libucrt:lcidtoname_downlevel.obj
 0002:00008288       ??_C@_1M@BDGHHBFL@?$AAn?$AAs?$AA?9?$AAz?$AAa?$AA?$AA@ 000000018002a288     libucrt:lcidtoname_downlevel.obj
 0002:00008298       ??_C@_1M@IDEHOAP@?$AAp?$AAa?$AA?9?$AAi?$AAn?$AA?$AA@ 000000018002a298     libucrt:lcidtoname_downlevel.obj
 0002:000082a8       ??_C@_1M@HDBKGOGH@?$AAp?$AAl?$AA?9?$AAp?$AAl?$AA?$AA@ 000000018002a2a8     libucrt:lcidtoname_downlevel.obj
 0002:000082b8       ??_C@_1M@LJLLCMEH@?$AAp?$AAt?$AA?9?$AAb?$AAr?$AA?$AA@ 000000018002a2b8     libucrt:lcidtoname_downlevel.obj
 0002:000082c8       ??_C@_1M@NCMONAAL@?$AAp?$AAt?$AA?9?$AAp?$AAt?$AA?$AA@ 000000018002a2c8     libucrt:lcidtoname_downlevel.obj
 0002:000082d8       ??_C@_1O@EAKMAJDN@?$AAq?$AAu?$AAz?$AA?9?$AAb?$AAo?$AA?$AA@ 000000018002a2d8     libucrt:lcidtoname_downlevel.obj
 0002:000082e8       ??_C@_1O@BHHPIGDN@?$AAq?$AAu?$AAz?$AA?9?$AAe?$AAc?$AA?$AA@ 000000018002a2e8     libucrt:lcidtoname_downlevel.obj
 0002:000082f8       ??_C@_1O@GBAPEKMJ@?$AAq?$AAu?$AAz?$AA?9?$AAp?$AAe?$AA?$AA@ 000000018002a2f8     libucrt:lcidtoname_downlevel.obj
 0002:00008308       ??_C@_1M@CLGLEFBO@?$AAr?$AAo?$AA?9?$AAr?$AAo?$AA?$AA@ 000000018002a308     libucrt:lcidtoname_downlevel.obj
 0002:00008318       ??_C@_1M@CEEDODME@?$AAr?$AAu?$AA?9?$AAr?$AAu?$AA?$AA@ 000000018002a318     libucrt:lcidtoname_downlevel.obj
 0002:00008328       ??_C@_1M@HPKKKMPP@?$AAs?$AAa?$AA?9?$AAi?$AAn?$AA?$AA@ 000000018002a328     libucrt:lcidtoname_downlevel.obj
 0002:00008338       ??_C@_1M@BKMAIGOJ@?$AAs?$AAe?$AA?9?$AAf?$AAi?$AA?$AA@ 000000018002a338     libucrt:lcidtoname_downlevel.obj
 0002:00008348       ??_C@_1M@NDPIFLFI@?$AAs?$AAe?$AA?9?$AAn?$AAo?$AA?$AA@ 000000018002a348     libucrt:lcidtoname_downlevel.obj
 0002:00008358       ??_C@_1M@DANKKHJ@?$AAs?$AAe?$AA?9?$AAs?$AAe?$AA?$AA@ 000000018002a358     libucrt:lcidtoname_downlevel.obj
 0002:00008368       ??_C@_1M@PNBLONPJ@?$AAs?$AAk?$AA?9?$AAs?$AAk?$AA?$AA@ 000000018002a368     libucrt:lcidtoname_downlevel.obj
 0002:00008378       ??_C@_1M@LFMODOAL@?$AAs?$AAl?$AA?9?$AAs?$AAi?$AA?$AA@ 000000018002a378     libucrt:lcidtoname_downlevel.obj
 0002:00008388       ??_C@_1O@DFKOMPG@?$AAs?$AAm?$AAa?$AA?9?$AAn?$AAo?$AA?$AA@ 000000018002a388     libucrt:lcidtoname_downlevel.obj
 0002:00008398       ??_C@_1O@NDKPBNNH@?$AAs?$AAm?$AAa?$AA?9?$AAs?$AAe?$AA?$AA@ 000000018002a398     libucrt:lcidtoname_downlevel.obj
 0002:000083a8       ??_C@_1O@PLLKBHAB@?$AAs?$AAm?$AAj?$AA?9?$AAn?$AAo?$AA?$AA@ 000000018002a3a8     libucrt:lcidtoname_downlevel.obj
 0002:000083b8       ??_C@_1O@CLEPOGCA@?$AAs?$AAm?$AAj?$AA?9?$AAs?$AAe?$AA?$AA@ 000000018002a3b8     libucrt:lcidtoname_downlevel.obj
 0002:000083c8       ??_C@_1O@DLGJGKMK@?$AAs?$AAm?$AAn?$AA?9?$AAf?$AAi?$AA?$AA@ 000000018002a3c8     libucrt:lcidtoname_downlevel.obj
 0002:000083d8       ??_C@_1O@OJDJGAJC@?$AAs?$AAm?$AAs?$AA?9?$AAf?$AAi?$AA?$AA@ 000000018002a3d8     libucrt:lcidtoname_downlevel.obj
 0002:000083e8       ??_C@_1M@BOFOGHPB@?$AAs?$AAq?$AA?9?$AAa?$AAl?$AA?$AA@ 000000018002a3e8     libucrt:lcidtoname_downlevel.obj
 0002:000083f8       ??_C@_1BG@LJBBIPGB@?$AAs?$AAr?$AA?9?$AAb?$AAa?$AA?9?$AAc?$AAy?$AAr?$AAl?$AA?$AA@ 000000018002a3f8     libucrt:lcidtoname_downlevel.obj
 0002:00008410       ??_C@_1BG@JLBENFOE@?$AAs?$AAr?$AA?9?$AAb?$AAa?$AA?9?$AAl?$AAa?$AAt?$AAn?$AA?$AA@ 000000018002a410     libucrt:lcidtoname_downlevel.obj
 0002:00008428       ??_C@_1BG@KODPNHE@?$AAs?$AAr?$AA?9?$AAs?$AAp?$AA?9?$AAc?$AAy?$AAr?$AAl?$AA?$AA@ 000000018002a428     libucrt:lcidtoname_downlevel.obj
 0002:00008440       ??_C@_1BG@CIOGKHPB@?$AAs?$AAr?$AA?9?$AAs?$AAp?$AA?9?$AAl?$AAa?$AAt?$AAn?$AA?$AA@ 000000018002a440     libucrt:lcidtoname_downlevel.obj
 0002:00008458       ??_C@_1M@NGFJLMAC@?$AAs?$AAv?$AA?9?$AAf?$AAi?$AA?$AA@ 000000018002a458     libucrt:lcidtoname_downlevel.obj
 0002:00008468       ??_C@_1M@MPJEJAJC@?$AAs?$AAv?$AA?9?$AAs?$AAe?$AA?$AA@ 000000018002a468     libucrt:lcidtoname_downlevel.obj
 0002:00008478       ??_C@_1M@MPNDHLFK@?$AAs?$AAw?$AA?9?$AAk?$AAe?$AA?$AA@ 000000018002a478     libucrt:lcidtoname_downlevel.obj
 0002:00008488       ??_C@_1O@KOHBJJI@?$AAs?$AAy?$AAr?$AA?9?$AAs?$AAy?$AA?$AA@ 000000018002a488     libucrt:lcidtoname_downlevel.obj
 0002:00008498       ??_C@_1M@LDCEFHA@?$AAt?$AAa?$AA?9?$AAi?$AAn?$AA?$AA@ 000000018002a498     libucrt:lcidtoname_downlevel.obj
 0002:000084a8       ??_C@_1M@CNJOFAK@?$AAt?$AAe?$AA?9?$AAi?$AAn?$AA?$AA@ 000000018002a4a8     libucrt:lcidtoname_downlevel.obj
 0002:000084b8       ??_C@_1M@GNAECACD@?$AAt?$AAh?$AA?9?$AAt?$AAh?$AA?$AA@ 000000018002a4b8     libucrt:lcidtoname_downlevel.obj
 0002:000084c8       ??_C@_1M@CHBIHOJO@?$AAt?$AAn?$AA?9?$AAz?$AAa?$AA?$AA@ 000000018002a4c8     libucrt:lcidtoname_downlevel.obj
 0002:000084d8       ??_C@_1M@GCCMIGPJ@?$AAt?$AAr?$AA?9?$AAt?$AAr?$AA?$AA@ 000000018002a4d8     libucrt:lcidtoname_downlevel.obj
 0002:000084e8       ??_C@_1M@CELMCNBK@?$AAt?$AAt?$AA?9?$AAr?$AAu?$AA?$AA@ 000000018002a4e8     libucrt:lcidtoname_downlevel.obj
 0002:000084f8       ??_C@_1M@KLMCELGA@?$AAu?$AAk?$AA?9?$AAu?$AAa?$AA?$AA@ 000000018002a4f8     libucrt:lcidtoname_downlevel.obj
 0002:00008508       ??_C@_1M@EPAJJAJF@?$AAu?$AAr?$AA?9?$AAp?$AAk?$AA?$AA@ 000000018002a508     libucrt:lcidtoname_downlevel.obj
 0002:00008518       ??_C@_1BG@GEGPMCDJ@?$AAu?$AAz?$AA?9?$AAu?$AAz?$AA?9?$AAc?$AAy?$AAr?$AAl?$AA?$AA@ 000000018002a518     libucrt:lcidtoname_downlevel.obj
 0002:00008530       ??_C@_1BG@EGGKJILM@?$AAu?$AAz?$AA?9?$AAu?$AAz?$AA?9?$AAl?$AAa?$AAt?$AAn?$AA?$AA@ 000000018002a530     libucrt:lcidtoname_downlevel.obj
 0002:00008548       ??_C@_1M@GFOCLFF@?$AAv?$AAi?$AA?9?$AAv?$AAn?$AA?$AA@ 000000018002a548     libucrt:lcidtoname_downlevel.obj
 0002:00008558       ??_C@_1M@CPAMEDFI@?$AAx?$AAh?$AA?9?$AAz?$AAa?$AA?$AA@ 000000018002a558     libucrt:lcidtoname_downlevel.obj
 0002:00008568       ??_C@_1O@EBKIFIGN@?$AAz?$AAh?$AA?9?$AAc?$AAh?$AAs?$AA?$AA@ 000000018002a568     libucrt:lcidtoname_downlevel.obj
 0002:00008578       ??_C@_1O@NMHPGANE@?$AAz?$AAh?$AA?9?$AAc?$AAh?$AAt?$AA?$AA@ 000000018002a578     libucrt:lcidtoname_downlevel.obj
 0002:00008588       ??_C@_1M@LPINJOMC@?$AAz?$AAh?$AA?9?$AAc?$AAn?$AA?$AA@ 000000018002a588     libucrt:lcidtoname_downlevel.obj
 0002:00008598       ??_C@_1M@OCJEJODD@?$AAz?$AAh?$AA?9?$AAh?$AAk?$AA?$AA@ 000000018002a598     libucrt:lcidtoname_downlevel.obj
 0002:000085a8       ??_C@_1M@DNDLJINH@?$AAz?$AAh?$AA?9?$AAm?$AAo?$AA?$AA@ 000000018002a5a8     libucrt:lcidtoname_downlevel.obj
 0002:000085b8       ??_C@_1M@MBFDNDND@?$AAz?$AAh?$AA?9?$AAs?$AAg?$AA?$AA@ 000000018002a5b8     libucrt:lcidtoname_downlevel.obj
 0002:000085c8       ??_C@_1M@IMEPLEPE@?$AAz?$AAh?$AA?9?$AAt?$AAw?$AA?$AA@ 000000018002a5c8     libucrt:lcidtoname_downlevel.obj
 0002:000085d8       ??_C@_1M@BBGHNHJP@?$AAz?$AAu?$AA?9?$AAz?$AAa?$AA?$AA@ 000000018002a5d8     libucrt:lcidtoname_downlevel.obj
 0002:000085f0       ?large_power_data@?1??multiply_by_power_of_ten@__crt_strtox@@YA_NAEAUbig_integer@2@I@Z@4QBIB 000000018002a5f0     libucrt:cfout.obj
 0002:00008f00       ?large_power_indices@?1??multiply_by_power_of_ten@__crt_strtox@@YA_NAEAUbig_integer@2@I@Z@4QBUunpack_index@?1??12@YA_N0I@Z@B 000000018002af00     libucrt:cfout.obj
 0002:00008f98       ?small_powers_of_ten@?6??multiply_by_power_of_ten@__crt_strtox@@YA_NAEAUbig_integer@2@I@Z@4QBIB 000000018002af98     libucrt:cfout.obj
 0002:00008fbc       ??_C@_01GBGANLPD@0?$AA@    000000018002afbc     libucrt:cfout.obj
 0002:00008fc0       ??_C@_05DNEBIAHO@1?$CDINF?$AA@ 000000018002afc0     libucrt:cfout.obj
 0002:00008fc8       ??_C@_06IMKFLFPG@1?$CDQNAN?$AA@ 000000018002afc8     libucrt:cfout.obj
 0002:00008fd0       ??_C@_06PGGFOGJG@1?$CDSNAN?$AA@ 000000018002afd0     libucrt:cfout.obj
 0002:00008fd8       ??_C@_05PHHOCPM@1?$CDIND?$AA@ 000000018002afd8     libucrt:cfout.obj
 0002:00008fe0       __real@3ff0000000000000    000000018002afe0     libucrt:ceil.obj
 0002:00009240       __log10_256_lead           000000018002b240     libucrt:log10_256_lead_tail_table.obj
 0002:00009a50       __log10_256_tail           000000018002ba50     libucrt:log10_256_lead_tail_table.obj
 0002:0000a260       __log_F_inv_qword          000000018002c260     libucrt:log_f_inv_qword_table.obj
 0002:0000aa70       ??_C@_05HGHHAHAP@log10?$AA@ 000000018002ca70     libucrt:log_special.obj
 0002:0000aa90       ??_C@_1BA@BALFACEM@?$AAC?$AAO?$AAN?$AAO?$AAU?$AAT?$AA$?$AA?$AA@ 000000018002ca90     libucrt:initcon.obj
 0002:0000ab00       _load_config_used          000000018002cb00     LIBCMT:loadcfg.obj
 0002:0000ac00       _tls_used                  000000018002cc00     LIBCMT:tlssup.obj
 0002:0000ac28       ??_R4exception@std@@6B@    000000018002cc28     LIBCMT:throw_bad_alloc.obj
 0002:0000ac50       ??_R3exception@std@@8      000000018002cc50     LIBCMT:throw_bad_alloc.obj
 0002:0000ac68       ??_R2exception@std@@8      000000018002cc68     LIBCMT:throw_bad_alloc.obj
 0002:0000ac78       ??_R1A@?0A@EA@exception@std@@8 000000018002cc78     LIBCMT:throw_bad_alloc.obj
 0002:0000aca0       ??_R4bad_alloc@std@@6B@    000000018002cca0     LIBCMT:throw_bad_alloc.obj
 0002:0000acc8       ??_R3bad_alloc@std@@8      000000018002ccc8     LIBCMT:throw_bad_alloc.obj
 0002:0000ace0       ??_R2bad_alloc@std@@8      000000018002cce0     LIBCMT:throw_bad_alloc.obj
 0002:0000acf8       ??_R1A@?0A@EA@bad_alloc@std@@8 000000018002ccf8     LIBCMT:throw_bad_alloc.obj
 0002:0000ad20       ??_R4bad_array_new_length@std@@6B@ 000000018002cd20     LIBCMT:throw_bad_alloc.obj
 0002:0000ad48       ??_R3bad_array_new_length@std@@8 000000018002cd48     LIBCMT:throw_bad_alloc.obj
 0002:0000ad60       ??_R2bad_array_new_length@std@@8 000000018002cd60     LIBCMT:throw_bad_alloc.obj
 0002:0000ad80       ??_R1A@?0A@EA@bad_array_new_length@std@@8 000000018002cd80     LIBCMT:throw_bad_alloc.obj
 0002:0000ada8       ??_R4type_info@@6B@        000000018002cda8     LIBCMT:std_type_info_static.obj
 0002:0000add0       ??_R3type_info@@8          000000018002cdd0     LIBCMT:std_type_info_static.obj
 0002:0000ade8       ??_R2type_info@@8          000000018002cde8     LIBCMT:std_type_info_static.obj
 0002:0000adf8       ??_R1A@?0A@EA@type_info@@8 000000018002cdf8     LIBCMT:std_type_info_static.obj
 0002:0000ae20       ??_R4bad_exception@std@@6B@ 000000018002ce20     libvcruntime:frame.obj
 0002:0000ae48       ??_R3bad_exception@std@@8  000000018002ce48     libvcruntime:frame.obj
 0002:0000ae60       ??_R2bad_exception@std@@8  000000018002ce60     libvcruntime:frame.obj
 0002:0000ae78       ??_R1A@?0A@EA@bad_exception@std@@8 000000018002ce78     libvcruntime:frame.obj
 0002:0000b290       __rtc_iaa                  000000018002d290     LIBCMT:initsect.obj
 0002:0000b298       __rtc_izz                  000000018002d298     LIBCMT:initsect.obj
 0002:0000b2a0       __rtc_taa                  000000018002d2a0     LIBCMT:initsect.obj
 0002:0000b2a8       __rtc_tzz                  000000018002d2a8     LIBCMT:initsect.obj
 0002:0000b2b0       _tls_start                 000000018002d2b0     LIBCMT:tlssup.obj
 0002:0000b2b4       _Init_thread_epoch         000000018002d2b4     LIBCMT:thread_safe_statics.obj
 0002:0000b2b8       _tls_end                   000000018002d2b8     LIBCMT:tlssup.obj
 0002:0000c928       _TI2?AVbad_alloc@std@@     000000018002e928     LIBCMT:throw_bad_alloc.obj
 0002:0000c948       _CTA2?AVbad_alloc@std@@    000000018002e948     LIBCMT:throw_bad_alloc.obj
 0002:0000c960       _CT??_R0?AVbad_alloc@std@@@8??0bad_alloc@std@@QEAA@AEBV01@@Z24 000000018002e960     LIBCMT:throw_bad_alloc.obj
 0002:0000c988       _CT??_R0?AVexception@std@@@8??0exception@std@@QEAA@AEBV01@@Z24 000000018002e988     LIBCMT:throw_bad_alloc.obj
 0002:0000c9b0       _TI3?AVbad_array_new_length@std@@ 000000018002e9b0     LIBCMT:throw_bad_alloc.obj
 0002:0000c9d0       _CTA3?AVbad_array_new_length@std@@ 000000018002e9d0     LIBCMT:throw_bad_alloc.obj
 0002:0000c9f0       _CT??_R0?AVbad_array_new_length@std@@@8??0bad_array_new_length@std@@QEAA@AEBV01@@Z24 000000018002e9f0     LIBCMT:throw_bad_alloc.obj
 0002:0000ca18       _TI2?AVbad_exception@std@@ 000000018002ea18     libvcruntime:frame.obj
 0002:0000ca38       _CTA2?AVbad_exception@std@@ 000000018002ea38     libvcruntime:frame.obj
 0002:0000ca50       _CT??_R0?AVbad_exception@std@@@8??0bad_exception@std@@QEAA@AEBV01@@Z24 000000018002ea50     libvcruntime:frame.obj
 0002:0000ca78       __pobjMapEntryFirst        000000018002ea78     OposVariant.obj
 0002:0000ca80       __pobjMapEntryLast         000000018002ea80     OposVariant.obj
 0002:0000cb34       __IMPORT_DESCRIPTOR_KERNEL32 000000018002eb34     kernel32:KERNEL32.dll
 0002:0000cb48       __IMPORT_DESCRIPTOR_USER32 000000018002eb48     user32:USER32.dll
 0002:0000cb5c       __IMPORT_DESCRIPTOR_GDI32  000000018002eb5c     gdi32:GDI32.dll
 0002:0000cb70       __IMPORT_DESCRIPTOR_ADVAPI32 000000018002eb70     advapi32:ADVAPI32.dll
 0002:0000cb84       __IMPORT_DESCRIPTOR_ole32  000000018002eb84     ole32:ole32.dll
 0002:0000cb98       __IMPORT_DESCRIPTOR_OLEAUT32 000000018002eb98     oleaut32:OLEAUT32.dll
 0002:0000cbac       __NULL_IMPORT_DESCRIPTOR   000000018002ebac     kernel32:KERNEL32.dll
 0003:00000000       ?wc@?1??GetWndClassInfo@?$CWindowImpl@VCOPOSMSR@@VCWindow@ATL@@V?$CWinTraits@$0FGAAAAAA@$0A@@3@@ATL@@SAAEAU_ATL_WNDCLASSINFOW@3@XZ@4U43@A 0000000180030000     MSR.obj
 0003:000000f8       ?s_Claim@?7??GetIDsOfNames@CComTypeInfoHolder@ATL@@QEAAJAEBU_GUID@@PEAPEA_WIKPEAJ@Z@4PA_WA 00000001800300f8     MSR.obj
 0003:00000110       ?s_Release@?7??GetIDsOfNames@CComTypeInfoHolder@ATL@@QEAAJAEBU_GUID@@PEAPEA_WIKPEAJ@Z@4PA_WA 0000000180030110     MSR.obj
 0003:00000130       ?rcDefault@CWindow@ATL@@2UtagRECT@@A 0000000180030130     MSR.obj
 0003:00000140       ?_tih@?$IDispatchImpl@UIOPOSMSR@@$1?IID_IOPOSMSR@@3U_GUID@@B$1?LIBID_OposMSR_CCO@@3U3@B$00$0A@VCComTypeInfoHolder@ATL@@@ATL@@1VCComTypeInfoHolder@2@A 0000000180030140     MSR.obj
 0003:00000178       ?_tih@?$IProvideClassInfo2Impl@$1?CLSID_OPOSMSR@@3U_GUID@@B$1?DIID__IOPOSMSREvents@@3U2@B$1?LIBID_OposMSR_CCO@@3U2@B$00$0A@VCComTypeInfoHolder@ATL@@@ATL@@1VCComTypeInfoHolder@2@A 0000000180030178     MSR.obj
 0003:000001b0       ?vszContents@?6??Save@?$IPersistStorageImpl@VCOPOSMSR@@@ATL@@UEAAJPEAUIStorage@@H@Z@4PEB_WEB 00000001800301b0     MSR.obj
 0003:00000250       ?g_WindowName@@3PA_WA      0000000180030250     MSRImpl.obj
 0003:00000268       ?g_ControlDescription@@3PADA 0000000180030268     MSRImpl.obj
 0003:00000298       ?g_ControlVersion@@3JA     0000000180030298     MSRImpl.obj
 0003:0000039c       __scrt_native_dllmain_reason 000000018003039c     LIBCMT:utility.obj
 0003:000003a0       _Init_global_epoch         00000001800303a0     LIBCMT:thread_safe_statics.obj
 0003:000003b0       __security_cookie_complement 00000001800303b0     LIBCMT:gs_cookie.obj
 0003:000003b8       __security_cookie          00000001800303b8     LIBCMT:gs_cookie.obj
 0003:000003c0       __isa_available            00000001800303c0     LIBCMT:cpu_disp.obj
 0003:000003c4       __isa_enabled              00000001800303c4     LIBCMT:cpu_disp.obj
 0003:000003c8       __memcpy_nt_iters          00000001800303c8     LIBCMT:cpu_disp.obj
 0003:000003e8       __abort_behavior           00000001800303e8     libucrt:abort.obj
 0003:00000400       _iob                       0000000180030400     libucrt:_file.obj
 0003:00000510       __acrt_initial_locale_data 0000000180030510     libucrt:nlsdata.obj
 0003:00000668       __acrt_initial_locale_pointers 0000000180030668     libucrt:nlsdata.obj
 0003:00000678       __acrt_wide_c_locale_string 0000000180030678     libucrt:nlsdata.obj
 0003:00000680       __acrt_initial_multibyte_data 0000000180030680     libucrt:mbctype.obj
 0003:000008a8       __acrt_current_multibyte_data 00000001800308a8     libucrt:mbctype.obj
 0003:000009b0       _mbctype                   00000001800309b0     libucrt:mbctype.obj
 0003:00000ac0       _mbcasemap                 0000000180030ac0     libucrt:mbctype.obj
 0003:00000bc0       _pwctype                   0000000180030bc0     libucrt:ctype.obj
 0003:00000bc8       __globallocalestatus       0000000180030bc8     libucrt:glstatus.obj
 0003:00000bd0       __acrt_lconv_c             0000000180030bd0     libucrt:localeconv.obj
 0003:00000c68       __acrt_lconv_static_decimal 0000000180030c68     libucrt:localeconv.obj
 0003:00000c6c       __acrt_lconv_static_W_decimal 0000000180030c6c     libucrt:localeconv.obj
 0003:00000c88       __dcrt_lowio_console_output_handle 0000000180030c88     libucrt:initcon.obj
 0003:00000c90       _fltused                   0000000180030c90     LIBCMT:fltused.obj
 0003:00000c98       ??_R0?AVbad_alloc@std@@@8  0000000180030c98     LIBCMT:throw_bad_alloc.obj
 0003:00000cc0       ??_R0?AVexception@std@@@8  0000000180030cc0     LIBCMT:throw_bad_alloc.obj
 0003:00000ce8       ??_R0?AVbad_array_new_length@std@@@8 0000000180030ce8     LIBCMT:throw_bad_alloc.obj
 0003:00000d18       ??_R0?AVtype_info@@@8      0000000180030d18     LIBCMT:std_type_info_static.obj
 0003:00000d38       ??_R0?AVbad_exception@std@@@8 0000000180030d38     libvcruntime:frame.obj
 0003:00000d60       ?m_bInitFailed@CAtlBaseModule@ATL@@2_NA 0000000180030d60     OposVariant.obj
 0003:00000d68       ?_pPerfRegFunc@ATL@@3P6AJPEAUHINSTANCE__@@@ZEA 0000000180030d68     OposVariant.obj
 0003:00000d70       ?_pPerfUnRegFunc@ATL@@3P6AJXZEA 0000000180030d70     OposVariant.obj
 0003:00000d78       ?_AtlRegisterPerUser@ATL@@3_NA 0000000180030d78     OposVariant.obj
 0003:00000d80       ?_pAtlModule@ATL@@3PEAVCAtlModule@1@EA 0000000180030d80     OposVariant.obj
 0003:00000d88       ?_pModule@ATL@@3PEAVCComModule@1@EA 0000000180030d88     OposVariant.obj
 0003:00000d90       ?_AtlComModule@ATL@@3VCAtlComModule@1@A 0000000180030d90     OposVariant.obj
 0003:00000de0       ?_AtlWinModule@ATL@@3VCAtlWinModule@1@A 0000000180030de0     OposVariant.obj
 0003:00000e28       ?m_libid@CAtlModule@ATL@@2U_GUID@@A 0000000180030e28     MSR.obj
 0003:00000e38       ?_entries@?1??GetConnMap@COPOSMSR@@SAPEBU_ATL_CONNMAP_ENTRY@ATL@@PEAH@Z@4QBU34@B 0000000180030e38     MSR.obj
 0003:00000e50       ?$TSS0@?1??GetConnMap@COPOSMSR@@SAPEBU_ATL_CONNMAP_ENTRY@ATL@@PEAH@Z@4HA 0000000180030e50     MSR.obj
 0003:00000e58       ?_OptionsStorage@?1??__local_stdio_printf_options@@9@4_KA 0000000180030e58     MSR.obj
 0003:00000e60       ?pfnRegDeleteKeyEx@?1??DeleteSubKey@CRegKey@ATL@@QEAAJPEB_W@Z@4P6AJPEAUHKEY__@@0KK@ZEA 0000000180030e60     MSR.obj
 0003:00000e68       ?bInitialized@?1??DeleteSubKey@CRegKey@ATL@@QEAAJPEB_W@Z@4_NA 0000000180030e68     MSR.obj
 0003:00000e70       ?_Module@@3VCComModule@ATL@@A 0000000180030e70     MSR.obj
 0003:00000ec0       ?pConnMap@?$IConnectionPointContainerImpl@VCOPOSMSR@@@ATL@@0PEBU_ATL_CONNMAP_ENTRY@2@EB 0000000180030ec0     MSR.obj
 0003:00000ec8       ?s_nInstances@COPOSMSR@@1HA 0000000180030ec8     MSRImpl.obj
 0003:00000ed0       __scrt_current_native_startup_state 0000000180030ed0     LIBCMT:utility.obj
 0003:00000ed8       __scrt_native_startup_lock 0000000180030ed8     LIBCMT:utility.obj
 0003:000014d0       _tls_index                 00000001800314d0     LIBCMT:tlssup.obj
 0003:000014d8       __favor                    00000001800314d8     LIBCMT:cpu_disp.obj
 0003:000014dc       __scrt_debugger_hook_flag  00000001800314dc     LIBCMT:utility_desktop.obj
 0003:000014e0       ?__type_info_root_node@@3U__type_info_node@@A 00000001800314e0     LIBCMT:tncleanup.obj
 0003:000014f0       ?_OptionsStorage@?1??__local_stdio_scanf_options@@9@4_KA 00000001800314f0     LIBCMT:default_local_stdio_options.obj
 0003:00001500       ?_AtlBaseModule@ATL@@3VCAtlBaseModule@1@A 0000000180031500     atls:atlbase.obj
 0003:00001560       ?__AtlThunkPool@@3PEAT_SLIST_HEADER@@EA 0000000180031560     atls:atlthunk.obj
 0003:0000158c       __@@_PchSym_@00@UztvmgUPdlipUCUhUrmgvinvwrzgvUexgllohUzgohOmzgrevkilqPBACIAJCBDBUlyqiUznwGEUhgwzucOlyq@4B2008FD98C1DD4 000000018003158c     atls:stdafx.obj
 0003:00001590       ?__WinRTOutOfMemoryExceptionCallback@@3P6APEAXXZEA 0000000180031590     libvcruntime:ehhelpers.obj
 0003:00001598       __pPurecall                0000000180031598     libvcruntime:purevirt_data.obj
 0003:000016a0       ?pArgList@UnDecorator@@0PEAVReplicator@@EA 00000001800316a0     libvcruntime:undname.obj
 0003:000016a8       ?pZNameList@UnDecorator@@0PEAVReplicator@@EA 00000001800316a8     libvcruntime:undname.obj
 0003:000016b0       ?pTemplateArgList@UnDecorator@@0PEAVReplicator@@EA 00000001800316b0     libvcruntime:undname.obj
 0003:000016b8       ?gName@UnDecorator@@0PEBDEB 00000001800316b8     libvcruntime:undname.obj
 0003:000016c0       ?name@UnDecorator@@0PEBDEB 00000001800316c0     libvcruntime:undname.obj
 0003:000016c8       ?disableFlags@UnDecorator@@0KA 00000001800316c8     libvcruntime:undname.obj
 0003:000016cc       ?fExplicitTemplateParams@UnDecorator@@0_NA 00000001800316cc     libvcruntime:undname.obj
 0003:000016cd       ?fGetTemplateArgumentList@UnDecorator@@0_NA 00000001800316cd     libvcruntime:undname.obj
 0003:000016d0       ?m_pGetParameter@UnDecorator@@0P6APEADJ@ZEA 00000001800316d0     libvcruntime:undname.obj
 0003:000016d8       ?m_CHPENameOffset@UnDecorator@@0KA 00000001800316d8     libvcruntime:undname.obj
 0003:000016dc       ?m_recursionLevel@UnDecorator@@0KA 00000001800316dc     libvcruntime:undname.obj
 0003:00001838       _environ_table             0000000180031838     libucrt:environment_initialization.obj
 0003:00001840       _wenviron_table            0000000180031840     libucrt:environment_initialization.obj
 0003:00001848       __dcrt_initial_wide_environment 0000000180031848     libucrt:environment_initialization.obj
 0003:00001850       __dcrt_initial_narrow_environment 0000000180031850     libucrt:environment_initialization.obj
 0003:00001858       __acrt_atexit_table        0000000180031858     libucrt:onexit.obj
 0003:00001870       __acrt_at_quick_exit_table 0000000180031870     libucrt:onexit.obj
 0003:00001a38       _nstream                   0000000180031a38     libucrt:_file.obj
 0003:00001a40       __piob                     0000000180031a40     libucrt:_file.obj
 0003:00001a50       __acrt_stdout_buffer       0000000180031a50     libucrt:_sftbuf.obj
 0003:00001a58       __acrt_stderr_buffer       0000000180031a58     libucrt:_sftbuf.obj
 0003:00001a60       __acrt_locale_changed_data 0000000180031a60     libucrt:wsetlocale.obj
 0003:00001a68       __acrt_current_locale_data 0000000180031a68     libucrt:nlsdata.obj
 0003:00001a70       __pioinfo                  0000000180031a70     libucrt:ioinit.obj
 0003:00001e70       _nhandle                   0000000180031e70     libucrt:ioinit.obj
 0003:0000208c       __mbcodepage               000000018003208c     libucrt:mbctype.obj
 0003:00002090       __ismbcodepage             0000000180032090     libucrt:mbctype.obj
 0003:00002098       __mbulinfo                 0000000180032098     libucrt:mbctype.obj
 0003:000020a8       __mblocalename             00000001800320a8     libucrt:mbctype.obj
 0003:000020b4       __argc                     00000001800320b4     libucrt:argv_data.obj
 0003:000020b8       __argv                     00000001800320b8     libucrt:argv_data.obj
 0003:000020c0       __wargv                    00000001800320c0     libucrt:argv_data.obj
 0003:000020c8       _acmdln                    00000001800320c8     libucrt:argv_data.obj
 0003:000020d0       _wcmdln                    00000001800320d0     libucrt:argv_data.obj
 0003:000020d8       _pgmptr                    00000001800320d8     libucrt:argv_data.obj
 0003:000020e0       __acrt_heap                00000001800320e0     libucrt:heap_handle.obj
 0003:00002114       __acrt_lconv_static_null   0000000180032114     libucrt:localeconv.obj
 0003:00002118       __acrt_lconv_static_W_null 0000000180032118     libucrt:localeconv.obj
 0003:00002120       __fma3_is_available        0000000180032120     libucrt:fma3_available.obj
 0003:00002124       __use_fma3_lib             0000000180032124     libucrt:fma3_available.obj
 0003:00002128       __dyn_tls_init_callback    0000000180032128     <common>
 0003:00002130       __scrt_ucrt_dll_is_in_use  0000000180032130     <common>

 entry point at        0001:0000f5f4

 Static symbols

 0000:fffc4000       .debug$S                   0000000180000000     kernel32:KERNEL32.dll
 0000:fffc4000       .debug$S                   0000000180000000     advapi32:ADVAPI32.dll
 0000:fffc4000       .debug$S                   0000000180000000     advapi32:ADVAPI32.dll
 0000:fffc4000       .debug$S                   0000000180000000     advapi32:ADVAPI32.dll
 0000:fffc4000       .debug$S                   0000000180000000     advapi32:ADVAPI32.dll
 0000:fffc4000       .debug$S                   0000000180000000     advapi32:ADVAPI32.dll
 0000:fffc4000       .debug$S                   0000000180000000     advapi32:ADVAPI32.dll
 0000:fffc4000       .debug$S                   0000000180000000     advapi32:ADVAPI32.dll
 0000:fffc4000       .debug$S                   0000000180000000     advapi32:ADVAPI32.dll
 0000:fffc4000       .debug$S                   0000000180000000     gdi32:GDI32.dll
 0000:fffc4000       .debug$S                   0000000180000000     gdi32:GDI32.dll
 0000:fffc4000       .debug$S                   0000000180000000     gdi32:GDI32.dll
 0000:fffc4000       .debug$S                   0000000180000000     gdi32:GDI32.dll
 0000:fffc4000       .debug$S                   0000000180000000     ole32:ole32.dll
 0000:fffc4000       .debug$S                   0000000180000000     gdi32:GDI32.dll
 0000:fffc4000       .debug$S                   0000000180000000     OPOSMSR.exp
 0000:fffc4000       .debug$S                   0000000180000000     gdi32:GDI32.dll
 0000:fffc4000       .debug$S                   0000000180000000     kernel32:KERNEL32.dll
 0000:fffc4000       .debug$S                   0000000180000000     gdi32:GDI32.dll
 0000:fffc4000       .debug$S                   0000000180000000     gdi32:GDI32.dll
 0000:fffc4000       .debug$S                   0000000180000000     gdi32:GDI32.dll
 0000:fffc4000       .debug$S                   0000000180000000     gdi32:GDI32.dll
 0000:fffc4000       .debug$S                   0000000180000000     gdi32:GDI32.dll
 0000:fffc4000       .debug$S                   0000000180000000     gdi32:GDI32.dll
 0000:fffc4000       .debug$S                   0000000180000000     gdi32:GDI32.dll
 0000:fffc4000       .debug$S                   0000000180000000     kernel32:KERNEL32.dll
 0000:fffc4000       .debug$S                   0000000180000000     kernel32:KERNEL32.dll
 0000:fffc4000       .debug$S                   0000000180000000     kernel32:KERNEL32.dll
 0000:fffc4000       .debug$S                   0000000180000000     kernel32:KERNEL32.dll
 0000:fffc4000       .debug$S                   0000000180000000     kernel32:KERNEL32.dll
 0000:fffc4000       .debug$S                   0000000180000000     kernel32:KERNEL32.dll
 0000:fffc4000       .debug$S                   0000000180000000     kernel32:KERNEL32.dll
 0000:fffc4000       .debug$S                   0000000180000000     kernel32:KERNEL32.dll
 0000:fffc4000       .debug$S                   0000000180000000     kernel32:KERNEL32.dll
 0000:fffc4000       .debug$S                   0000000180000000     kernel32:KERNEL32.dll
 0000:fffc4000       .debug$S                   0000000180000000     kernel32:KERNEL32.dll
 0000:fffc4000       .debug$S                   0000000180000000     kernel32:KERNEL32.dll
 0000:fffc4000       .debug$S                   0000000180000000     kernel32:KERNEL32.dll
 0000:fffc4000       .debug$S                   0000000180000000     kernel32:KERNEL32.dll
 0000:fffc4000       .debug$S                   0000000180000000     kernel32:KERNEL32.dll
 0000:fffc4000       .debug$S                   0000000180000000     kernel32:KERNEL32.dll
 0000:fffc4000       .debug$S                   0000000180000000     kernel32:KERNEL32.dll
 0000:fffc4000       .debug$S                   0000000180000000     kernel32:KERNEL32.dll
 0000:fffc4000       .debug$S                   0000000180000000     kernel32:KERNEL32.dll
 0000:fffc4000       .debug$S                   0000000180000000     kernel32:KERNEL32.dll
 0000:fffc4000       .debug$S                   0000000180000000     kernel32:KERNEL32.dll
 0000:fffc4000       .debug$S                   0000000180000000     kernel32:KERNEL32.dll
 0000:fffc4000       .debug$S                   0000000180000000     kernel32:KERNEL32.dll
 0000:fffc4000       .debug$S                   0000000180000000     kernel32:KERNEL32.dll
 0000:fffc4000       .debug$S                   0000000180000000     kernel32:KERNEL32.dll
 0000:fffc4000       .debug$S                   0000000180000000     kernel32:KERNEL32.dll
 0000:fffc4000       .debug$S                   0000000180000000     kernel32:KERNEL32.dll
 0000:fffc4000       .debug$S                   0000000180000000     kernel32:KERNEL32.dll
 0000:fffc4000       .debug$S                   0000000180000000     kernel32:KERNEL32.dll
 0000:fffc4000       .debug$S                   0000000180000000     kernel32:KERNEL32.dll
 0000:fffc4000       .debug$S                   0000000180000000     kernel32:KERNEL32.dll
 0000:fffc4000       .debug$S                   0000000180000000     kernel32:KERNEL32.dll
 0000:fffc4000       .debug$S                   0000000180000000     kernel32:KERNEL32.dll
 0000:fffc4000       .debug$S                   0000000180000000     kernel32:KERNEL32.dll
 0000:fffc4000       .debug$S                   0000000180000000     kernel32:KERNEL32.dll
 0000:fffc4000       .debug$S                   0000000180000000     kernel32:KERNEL32.dll
 0000:fffc4000       .debug$S                   0000000180000000     kernel32:KERNEL32.dll
 0000:fffc4000       .debug$S                   0000000180000000     kernel32:KERNEL32.dll
 0000:fffc4000       .debug$S                   0000000180000000     kernel32:KERNEL32.dll
 0000:fffc4000       .debug$S                   0000000180000000     kernel32:KERNEL32.dll
 0000:fffc4000       .debug$S                   0000000180000000     kernel32:KERNEL32.dll
 0000:fffc4000       .debug$S                   0000000180000000     kernel32:KERNEL32.dll
 0000:fffc4000       .debug$S                   0000000180000000     kernel32:KERNEL32.dll
 0000:fffc4000       .debug$S                   0000000180000000     kernel32:KERNEL32.dll
 0000:fffc4000       .debug$S                   0000000180000000     kernel32:KERNEL32.dll
 0000:fffc4000       .debug$S                   0000000180000000     kernel32:KERNEL32.dll
 0000:fffc4000       .debug$S                   0000000180000000     kernel32:KERNEL32.dll
 0000:fffc4000       .debug$S                   0000000180000000     kernel32:KERNEL32.dll
 0000:fffc4000       .debug$S                   0000000180000000     kernel32:KERNEL32.dll
 0000:fffc4000       .debug$S                   0000000180000000     kernel32:KERNEL32.dll
 0000:fffc4000       .debug$S                   0000000180000000     kernel32:KERNEL32.dll
 0000:fffc4000       .debug$S                   0000000180000000     kernel32:KERNEL32.dll
 0000:fffc4000       .debug$S                   0000000180000000     kernel32:KERNEL32.dll
 0000:fffc4000       .debug$S                   0000000180000000     kernel32:KERNEL32.dll
 0000:fffc4000       .debug$S                   0000000180000000     kernel32:KERNEL32.dll
 0000:fffc4000       .debug$S                   0000000180000000     kernel32:KERNEL32.dll
 0000:fffc4000       .debug$S                   0000000180000000     kernel32:KERNEL32.dll
 0000:fffc4000       .debug$S                   0000000180000000     kernel32:KERNEL32.dll
 0000:fffc4000       .debug$S                   0000000180000000     kernel32:KERNEL32.dll
 0000:fffc4000       .debug$S                   0000000180000000     kernel32:KERNEL32.dll
 0000:fffc4000       .debug$S                   0000000180000000     kernel32:KERNEL32.dll
 0000:fffc4000       .debug$S                   0000000180000000     kernel32:KERNEL32.dll
 0000:fffc4000       .debug$S                   0000000180000000     kernel32:KERNEL32.dll
 0000:fffc4000       .debug$S                   0000000180000000     kernel32:KERNEL32.dll
 0000:fffc4000       .debug$S                   0000000180000000     kernel32:KERNEL32.dll
 0000:fffc4000       .debug$S                   0000000180000000     kernel32:KERNEL32.dll
 0000:fffc4000       .debug$S                   0000000180000000     kernel32:KERNEL32.dll
 0000:fffc4000       .debug$S                   0000000180000000     kernel32:KERNEL32.dll
 0000:fffc4000       .debug$S                   0000000180000000     kernel32:KERNEL32.dll
 0000:fffc4000       .debug$S                   0000000180000000     kernel32:KERNEL32.dll
 0000:fffc4000       .debug$S                   0000000180000000     kernel32:KERNEL32.dll
 0000:fffc4000       .debug$S                   0000000180000000     kernel32:KERNEL32.dll
 0000:fffc4000       .debug$S                   0000000180000000     kernel32:KERNEL32.dll
 0000:fffc4000       .debug$S                   0000000180000000     kernel32:KERNEL32.dll
 0000:fffc4000       .debug$S                   0000000180000000     kernel32:KERNEL32.dll
 0000:fffc4000       .debug$S                   0000000180000000     kernel32:KERNEL32.dll
 0000:fffc4000       .debug$S                   0000000180000000     kernel32:KERNEL32.dll
 0000:fffc4000       .debug$S                   0000000180000000     kernel32:KERNEL32.dll
 0000:fffc4000       .debug$S                   0000000180000000     gdi32:GDI32.dll
 0000:fffc4000       .debug$S                   0000000180000000     gdi32:GDI32.dll
 0000:fffc4000       .debug$S                   0000000180000000     gdi32:GDI32.dll
 0000:fffc4000       .debug$S                   0000000180000000     gdi32:GDI32.dll
 0000:fffc4000       .debug$S                   0000000180000000     gdi32:GDI32.dll
 0000:fffc4000       .debug$S                   0000000180000000     gdi32:GDI32.dll
 0000:fffc4000       .debug$S                   0000000180000000     user32:USER32.dll
 0000:fffc4000       .debug$S                   0000000180000000     user32:USER32.dll
 0000:fffc4000       .debug$S                   0000000180000000     ole32:ole32.dll
 0000:fffc4000       .debug$S                   0000000180000000     ole32:ole32.dll
 0000:fffc4000       .debug$S                   0000000180000000     ole32:ole32.dll
 0000:fffc4000       .debug$S                   0000000180000000     user32:USER32.dll
 0000:fffc4000       .debug$S                   0000000180000000     user32:USER32.dll
 0000:fffc4000       .debug$S                   0000000180000000     user32:USER32.dll
 0000:fffc4000       .debug$S                   0000000180000000     user32:USER32.dll
 0000:fffc4000       .debug$S                   0000000180000000     user32:USER32.dll
 0000:fffc4000       .debug$S                   0000000180000000     user32:USER32.dll
 0000:fffc4000       .debug$S                   0000000180000000     user32:USER32.dll
 0000:fffc4000       .debug$S                   0000000180000000     user32:USER32.dll
 0000:fffc4000       .debug$S                   0000000180000000     user32:USER32.dll
 0000:fffc4000       .debug$S                   0000000180000000     user32:USER32.dll
 0000:fffc4000       .debug$S                   0000000180000000     user32:USER32.dll
 0000:fffc4000       .debug$S                   0000000180000000     user32:USER32.dll
 0000:fffc4000       .debug$S                   0000000180000000     user32:USER32.dll
 0000:fffc4000       .debug$S                   0000000180000000     user32:USER32.dll
 0000:fffc4000       .debug$S                   0000000180000000     user32:USER32.dll
 0000:fffc4000       .debug$S                   0000000180000000     user32:USER32.dll
 0000:fffc4000       .debug$S                   0000000180000000     user32:USER32.dll
 0000:fffc4000       .debug$S                   0000000180000000     user32:USER32.dll
 0000:fffc4000       .debug$S                   0000000180000000     user32:USER32.dll
 0000:fffc4000       .debug$S                   0000000180000000     user32:USER32.dll
 0000:fffc4000       .debug$S                   0000000180000000     user32:USER32.dll
 0000:fffc4000       .debug$S                   0000000180000000     user32:USER32.dll
 0000:fffc4000       .debug$S                   0000000180000000     user32:USER32.dll
 0000:fffc4000       .debug$S                   0000000180000000     user32:USER32.dll
 0000:fffc4000       .debug$S                   0000000180000000     user32:USER32.dll
 0000:fffc4000       .debug$S                   0000000180000000     user32:USER32.dll
 0000:fffc4000       .debug$S                   0000000180000000     user32:USER32.dll
 0000:fffc4000       .debug$S                   0000000180000000     user32:USER32.dll
 0000:fffc4000       .debug$S                   0000000180000000     user32:USER32.dll
 0000:fffc4000       .debug$S                   0000000180000000     user32:USER32.dll
 0000:fffc4000       .debug$S                   0000000180000000     user32:USER32.dll
 0000:fffc4000       .debug$S                   0000000180000000     user32:USER32.dll
 0000:fffc4000       .debug$S                   0000000180000000     user32:USER32.dll
 0000:fffc4000       .debug$S                   0000000180000000     ole32:ole32.dll
 0000:fffc4000       .debug$S                   0000000180000000     kernel32:KERNEL32.dll
 0000:fffc4000       .debug$S                   0000000180000000     kernel32:KERNEL32.dll
 0000:fffc4000       .debug$S                   0000000180000000     kernel32:KERNEL32.dll
 0000:fffc4000       .debug$S                   0000000180000000     kernel32:KERNEL32.dll
 0000:fffc4000       .debug$S                   0000000180000000     kernel32:KERNEL32.dll
 0000:fffc4000       .debug$S                   0000000180000000     kernel32:KERNEL32.dll
 0000:fffc4000       .debug$S                   0000000180000000     kernel32:KERNEL32.dll
 0000:fffc4000       .debug$S                   0000000180000000     kernel32:KERNEL32.dll
 0000:fffc4000       .debug$S                   0000000180000000     kernel32:KERNEL32.dll
 0000:fffc4000       .debug$S                   0000000180000000     kernel32:KERNEL32.dll
 0000:fffc4000       .debug$S                   0000000180000000     ole32:ole32.dll
 0000:fffc4000       .debug$S                   0000000180000000     kernel32:KERNEL32.dll
 0000:fffc4000       .debug$S                   0000000180000000     kernel32:KERNEL32.dll
 0000:fffc4000       .debug$S                   0000000180000000     kernel32:KERNEL32.dll
 0000:fffc4000       .debug$S                   0000000180000000     ole32:ole32.dll
 0000:fffc4000       .debug$S                   0000000180000000     kernel32:KERNEL32.dll
 0000:fffc4000       .debug$S                   0000000180000000     kernel32:KERNEL32.dll
 0000:fffc4000       .debug$S                   0000000180000000     kernel32:KERNEL32.dll
 0000:fffc4000       .debug$S                   0000000180000000     kernel32:KERNEL32.dll
 0000:fffc4000       .debug$S                   0000000180000000     kernel32:KERNEL32.dll
 0000:fffc4000       .debug$S                   0000000180000000     kernel32:KERNEL32.dll
 0000:fffc4000       .debug$S                   0000000180000000     kernel32:KERNEL32.dll
 0000:fffc4000       .debug$S                   0000000180000000     kernel32:KERNEL32.dll
 0000:fffc4000       .debug$S                   0000000180000000     kernel32:KERNEL32.dll
 0000:fffc4000       .debug$S                   0000000180000000     kernel32:KERNEL32.dll
 0000:fffc4000       .debug$S                   0000000180000000     kernel32:KERNEL32.dll
 0000:fffc4000       .debug$S                   0000000180000000     kernel32:KERNEL32.dll
 0000:fffc4000       .debug$S                   0000000180000000     ole32:ole32.dll
 0000:fffc4000       .debug$S                   0000000180000000     kernel32:KERNEL32.dll
 0000:fffc4000       .debug$S                   0000000180000000     kernel32:KERNEL32.dll
 0000:fffc4000       .debug$S                   0000000180000000     kernel32:KERNEL32.dll
 0000:fffc4000       .debug$S                   0000000180000000     ole32:ole32.dll
 0000:fffc4000       .debug$S                   0000000180000000     kernel32:KERNEL32.dll
 0000:fffc4000       .debug$S                   0000000180000000     kernel32:KERNEL32.dll
 0000:fffc4000       .debug$S                   0000000180000000     ole32:ole32.dll
 0000:fffc4000       .debug$S                   0000000180000000     kernel32:KERNEL32.dll
 0000:fffc4000       .debug$S                   0000000180000000     ole32:ole32.dll
 0000:fffc4000       .debug$S                   0000000180000000     ole32:ole32.dll
 0000:fffc4000       .debug$S                   0000000180000000     ole32:ole32.dll
 0000:fffc4000       .debug$S                   0000000180000000     ole32:ole32.dll
 0000:fffc4000       .debug$S                   0000000180000000     oleaut32:OLEAUT32.dll
 0000:fffc4000       .debug$S                   0000000180000000     oleaut32:OLEAUT32.dll
 0000:fffc4000       .debug$S                   0000000180000000     oleaut32:OLEAUT32.dll
 0000:fffc4000       .debug$S                   0000000180000000     oleaut32:OLEAUT32.dll
 0000:fffc4000       .debug$S                   0000000180000000     advapi32:ADVAPI32.dll
 0000:fffc4000       .debug$S                   0000000180000000     oleaut32:OLEAUT32.dll
 0000:fffc4000       .debug$S                   0000000180000000     oleaut32:OLEAUT32.dll
 0000:fffc4000       .debug$S                   0000000180000000     oleaut32:OLEAUT32.dll
 0000:fffc4000       .debug$S                   0000000180000000     oleaut32:OLEAUT32.dll
 0000:fffc4000       .debug$S                   0000000180000000     oleaut32:OLEAUT32.dll
 0000:fffc4000       .debug$S                   0000000180000000     oleaut32:OLEAUT32.dll
 0000:fffc4000       .debug$S                   0000000180000000     oleaut32:OLEAUT32.dll
 0000:fffc4000       .debug$S                   0000000180000000     kernel32:KERNEL32.dll
 0000:fffc4000       .debug$S                   0000000180000000     kernel32:KERNEL32.dll
 0000:fffc4000       .debug$S                   0000000180000000     oleaut32:OLEAUT32.dll
 0000:fffc4000       .debug$S                   0000000180000000     oleaut32:OLEAUT32.dll
 0000:fffc4000       .debug$S                   0000000180000000     oleaut32:OLEAUT32.dll
 0000:fffc4000       .debug$S                   0000000180000000     oleaut32:OLEAUT32.dll
 0000:fffc4000       .debug$S                   0000000180000000     oleaut32:OLEAUT32.dll
 0000:fffc4000       .debug$S                   0000000180000000     kernel32:KERNEL32.dll
 0001:00000000       ??__E_AtlComModule@ATL@@YAXXZ 0000000180001000 f   OposVariant.obj
 0001:00000020       ??__E_AtlWinModule@ATL@@YAXXZ 0000000180001020 f   OposVariant.obj
 0001:00000040       ??__E?pConnMap@?$IConnectionPointContainerImpl@VCOPOSMSR@@@ATL@@0PEBU_ATL_CONNMAP_ENTRY@2@EB@@YAXXZ 0000000180001040 f   MSR.obj
 0001:00000058       ??__E_Module@@YAXXZ        0000000180001058 f   MSR.obj
 0001:00000094       ??__E_AtlBaseModule@ATL@@YAXXZ 0000000180001094 f   atls:atlbase.obj
 0001:0000bb30       memcpy_s                   000000018000cb30 f   MSR.obj
 0001:0000eb40       ?__scrt_initialize_thread_safe_statics@@YAHXZ 000000018000fb40 f   LIBCMT:thread_safe_statics.obj
 0001:0000eca0       ?__scrt_uninitialize_thread_safe_statics@@YAXXZ 000000018000fca0 f   LIBCMT:thread_safe_statics.obj
 0001:0000f010       capture_current_context    0000000180010010 f   LIBCMT:gs_report.obj
 0001:0000f080       capture_previous_context   0000000180010080 f   LIBCMT:gs_report.obj
 0001:0000f220       $$000000                   0000000180010220     LIBCMT:chkstk.obj
 0001:0000f290       $$000000                   0000000180010290     LIBCMT:amdsecgs.obj
 0001:0000f2c4       ?dllmain_crt_dispatch@@YAHQEAUHINSTANCE__@@KQEAX@Z 00000001800102c4 f   LIBCMT:dll_dllmain.obj
 0001:0000f314       ?dllmain_crt_process_attach@@YAHQEAUHINSTANCE__@@QEAX@Z 0000000180010314 f   LIBCMT:dll_dllmain.obj
 0001:0000f430       ?dllmain_crt_process_detach@@YAH_N@Z 0000000180010430 f   LIBCMT:dll_dllmain.obj
 0001:0000f4c0       ?dllmain_dispatch@@YAHQEAUHINSTANCE__@@KQEAX@Z 00000001800104c0 f   LIBCMT:dll_dllmain.obj
 0001:0000fda8       ??$GetProcAddressAll@P6AXPEAUAtlThunkData_t@@PEAX_K@Z@@YAP6AXPEAUAtlThunkData_t@@PEAX_K@ZPEAP6AX012@Z@Z 0000000180010da8 f   atls:atlthunk.obj
 0001:0000fda8       ??$GetProcAddressAll@P6APEAUAtlThunkData_t@@XZ@@YAP6APEAUAtlThunkData_t@@XZPEAP6APEAU0@XZ@Z 0000000180010da8 f   atls:atlthunk.obj
 0001:0000fda8       ??$GetProcAddressAll@P6AXPEAUAtlThunkData_t@@@Z@@YAP6AXPEAUAtlThunkData_t@@@ZPEAP6AX0@Z@Z 0000000180010da8 f   atls:atlthunk.obj
 0001:0000fda8       ??$GetProcAddressAll@P6AP6A_JPEAUHWND__@@I_K_J@ZPEAUAtlThunkData_t@@@Z@@YAP6AP6A_JPEAUHWND__@@I_K_J@ZPEAUAtlThunkData_t@@@ZPEAP6AP6A_J0I12@Z3@Z@Z 0000000180010da8 f   atls:atlthunk.obj
 0001:0000ff80       ?__InitializeThunkPool@@YAHXZ 0000000180010f80 f   atls:atlthunk.obj
 0001:000101e0       $$000000                   00000001800111e0     libvcruntime:memset.obj
 0001:000102dc       MsetTab                    00000001800112dc     libvcruntime:memset.obj
 0001:000105f0       $$000000                   00000001800115f0     libvcruntime:memcmp.obj
 0001:000106d0       $$000000                   00000001800116d0     libvcruntime:memcpy.obj
 0001:00010787       MoveSmall                  0000000180011787     libvcruntime:memcpy.obj
 0001:00011910       ?try_get_function@@YAPEAXW4function_id@?A0xbfd18cd1@@QEBDQEBW4module_id@2@2@Z 0000000180012910 f   libvcruntime:winapi_downlevel.obj
 0001:00011cf0       $$000000                   0000000180012cf0     libvcruntime:notify.obj
 0001:00011e78       ??$BuildCatchObjectHelperInternal@V__FrameHandler3@@@@YAHPEAUEHExceptionRecord@@PEAXPEBU_s_HandlerType@@PEBU_s_CatchableType@@@Z 0000000180012e78 f   libvcruntime:frame.obj
 0001:00012078       ??$BuildCatchObjectInternal@V__FrameHandler3@@@@YAXPEAUEHExceptionRecord@@PEAXPEBU_s_HandlerType@@PEBU_s_CatchableType@@@Z 0000000180013078 f   libvcruntime:frame.obj
 0001:00012138       ??$CatchIt@V__FrameHandler3@@@@YAXPEAUEHExceptionRecord@@PEA_KPEAU_CONTEXT@@PEAU_xDISPATCHER_CONTEXT@@PEBU_s_FuncInfo@@PEBU_s_HandlerType@@PEBU_s_CatchableType@@PEBU_s_TryBlockMapEntry@@H1EE@Z 0000000180013138 f   libvcruntime:frame.obj
 0001:00012208       ??$FindHandler@V__FrameHandler3@@@@YAXPEAUEHExceptionRecord@@PEA_KPEAU_CONTEXT@@PEAU_xDISPATCHER_CONTEXT@@PEBU_s_FuncInfo@@EH1@Z 0000000180013208 f   libvcruntime:frame.obj
 0001:0001266c       ??$FindHandlerForForeignException@V__FrameHandler3@@@@YAXPEAUEHExceptionRecord@@PEA_KPEAU_CONTEXT@@PEAU_xDISPATCHER_CONTEXT@@PEBU_s_FuncInfo@@HH1@Z 000000018001366c f   libvcruntime:frame.obj
 0001:00012e74       ?ExFilterRethrow@@YAHPEAU_EXCEPTION_POINTERS@@PEAUEHExceptionRecord@@PEAH@Z 0000000180013e74 f   libvcruntime:frame.obj
 0001:00013128       ?IsInExceptionSpec@@YAEPEAUEHExceptionRecord@@PEBU_s_ESTypeList@@@Z 0000000180014128 f   libvcruntime:frame.obj
 0001:00013200       ?Is_bad_exception_allowed@@YAEPEBU_s_ESTypeList@@@Z 0000000180014200 f   libvcruntime:frame.obj
 0001:000132b0       $$000000                   00000001800142b0     libvcruntime:handlers.obj
 0001:00013a4c       ??$common_vsprintf@Vformat_validation_base@__crt_stdio_output@@_W@@YAH_KQEA_W0QEB_WQEAU__crt_locale_pointers@@QEAD@Z 0000000180014a4c f   libucrt:output.obj
 0001:00015204       ?atexit_exception_filter@@YAHK@Z 0000000180016204 f   libucrt:exit.obj
 0001:00015210       ?common_exit@@YAXHW4_crt_exit_cleanup_mode@@W4_crt_exit_return_mode@@@Z 0000000180016210 f   libucrt:exit.obj
 0001:0001537c       ?exit_or_terminate_process@@YAXI@Z 000000018001637c f   libucrt:exit.obj
 0001:000153c8       ?try_cor_exit_process@@YAXI@Z 00000001800163c8 f   libucrt:exit.obj
 0001:00015460       ??$parse_command_line@D@@YAXPEADPEAPEAD0PEA_K2@Z 0000000180016460 f   libucrt:argv_parsing.obj
 0001:000157f8       ??$common_initialize_environment_nolock@D@@YAHXZ 00000001800167f8 f   libucrt:environment_initialization.obj
 0001:00015864       ??$create_environment@D@@YAQEAPEADQEAD@Z 0000000180016864 f   libucrt:environment_initialization.obj
 0001:00015960       ??$free_environment@_W@@YAXQEAPEA_W@Z 0000000180016960 f   libucrt:environment_initialization.obj
 0001:00015960       ??$free_environment@D@@YAXQEAPEAD@Z 0000000180016960 f   libucrt:environment_initialization.obj
 0001:000159a4       ??$uninitialize_environment_internal@D@@YAXAEAPEAPEAD@Z 00000001800169a4 f   libucrt:environment_initialization.obj
 0001:000159c0       ??$uninitialize_environment_internal@_W@@YAXAEAPEAPEA_W@Z 00000001800169c0 f   libucrt:environment_initialization.obj
 0001:00015bf8       ??R<lambda_4e60a939b0d047cfe11ddc22648dfba9>@@QEBAHXZ 0000000180016bf8 f   libucrt:onexit.obj
 0001:00015ea8       initialize_global_variables 0000000180016ea8 f   libucrt:initialization.obj
 0001:00015ebc       initialize_c               0000000180016ebc f   libucrt:initialization.obj
 0001:00015ee0       uninitialize_c             0000000180016ee0 f   libucrt:initialization.obj
 0001:00015ee0       initialize_global_state_isolation 0000000180016ee0 f   libucrt:initialization.obj
 0001:00015ee0       report_memory_leaks        0000000180016ee0 f   libucrt:initialization.obj
 0001:00015ee0       initialize_environment     0000000180016ee0 f   libucrt:initialization.obj
 0001:00015ee0       uninitialize_global_state_isolation 0000000180016ee0 f   libucrt:initialization.obj
 0001:00015ee4       uninitialize_environment   0000000180016ee4 f   libucrt:initialization.obj
 0001:00015ef4       initialize_pointers        0000000180016ef4 f   libucrt:initialization.obj
 0001:00015f48       uninitialize_vcruntime     0000000180016f48 f   libucrt:initialization.obj
 0001:00015f50       uninitialize_allocated_memory 0000000180016f50 f   libucrt:initialization.obj
 0001:00016990       $$000000                   0000000180017990     libucrt:strncmp.obj
 0001:00016b88       ?construct_ptd_array@@YAXQEAU__acrt_ptd@@@Z 0000000180017b88 f   libucrt:per_thread_data.obj
 0001:00016c58       ?destroy_fls@@YAXPEAX@Z    0000000180017c58 f   libucrt:per_thread_data.obj
 0001:00016c78       ?destroy_ptd_array@@YAXQEAU__acrt_ptd@@@Z 0000000180017c78 f   libucrt:per_thread_data.obj
 0001:00016d70       ?replace_current_thread_locale_nolock@@YAXQEAU__acrt_ptd@@QEAU__crt_locale_data@@@Z 0000000180017d70 f   libucrt:per_thread_data.obj
 0001:00017148       ?try_get_function@@YAPEAXW4function_id@?A0x63058377@@QEBDQEBW4module_id@2@2@Z 0000000180018148 f   libucrt:winapi_thunks.obj
 0001:000177f0       ?internal_isupper_l@@YA_NHQEAU__crt_locale_pointers@@@Z 00000001800187f0 f   libucrt:tolower_toupper.obj
 0001:00017e00       ?fp_format_a@@YAHQEBNPEAD_KQEAD2H_NIQEAU__crt_locale_pointers@@@Z 0000000180018e00 f   libucrt:cvt.obj
 0001:00018160       ?fp_format_e@@YAHQEBNQEAD_K12H_NIQEAU__crt_locale_pointers@@@Z 0000000180019160 f   libucrt:cvt.obj
 0001:00018230       ?fp_format_e_internal@@YAHQEAD_KH_NIQEAU_strflt@@2QEAU__crt_locale_pointers@@@Z 0000000180019230 f   libucrt:cvt.obj
 0001:0001840c       ?fp_format_f_internal@@YAHQEAD_KHQEAU_strflt@@_NQEAU__crt_locale_pointers@@@Z 000000018001940c f   libucrt:cvt.obj
 0001:00018554       ?fp_format_g@@YAHQEBNQEAD_K12H_NIQEAU__crt_locale_pointers@@@Z 0000000180019554 f   libucrt:cvt.obj
 0001:0001868c       ?fp_format_nan_or_infinity@@YAHW4__acrt_fp_class@@_NPEAD_K1@Z 000000018001968c f   libucrt:cvt.obj
 0001:00018c3c       ?initialize_inherited_file_handles_nolock@@YAXXZ 0000000180019c3c f   libucrt:ioinit.obj
 0001:00018d28       ?initialize_stdio_handles_nolock@@YAXXZ 0000000180019d28 f   libucrt:ioinit.obj
 0001:00018f58       ?<helper_func_cdecl>@<lambda_2feae5270eb4d0d5532525f423405775>@@CAHPEBX0@Z 0000000180019f58 f   libucrt:argv_wildcards.obj
 0001:00018f6c       ??$common_expand_argv_wildcards@D@@YAHQEAPEADQEAPEAPEAD@Z 0000000180019f6c f   libucrt:argv_wildcards.obj
 0001:00019178       ??$copy_and_add_argument_to_buffer@D@@YAHQEBD0_KAEAV?$argument_list@D@?A0xca0879c4@@@Z 000000018001a178 f   libucrt:argv_wildcards.obj
 0001:00019288       ??$expand_argument_wildcards@D@@YAHQEAD0AEAV?$argument_list@D@?A0xca0879c4@@@Z 000000018001a288 f   libucrt:argv_wildcards.obj
 0001:0001953c       ??R<lambda_ad1ced32f4ac17aa236e5ef05d6b3b7c>@@QEBAXXZ 000000018001a53c f   libucrt:mbctype.obj
 0001:00019754       ?getSystemCP@@YAHH@Z       000000018001a754 f   libucrt:mbctype.obj
 0001:000197d4       ?setSBCS@@YAXPEAU__crt_multibyte_data@@@Z 000000018001a7d4 f   libucrt:mbctype.obj
 0001:00019864       ?setSBUpLow@@YAXPEAU__crt_multibyte_data@@@Z 000000018001a864 f   libucrt:mbctype.obj
 0001:00019a48       ?setmbcp_internal@@YAHH_N@Z 000000018001aa48 f   libucrt:mbctype.obj
 0001:00019f90       ?x_ismbbtype_l@@YAHPEAU__crt_locale_pointers@@IHH@Z 000000018001af90 f   libucrt:ismbbyte.obj
 0001:0001abbc       ?GetTableIndexFromLocaleName@@YAHPEB_W@Z 000000018001bbbc f   libucrt:lcidtoname_downlevel.obj
 0001:0001acf8       ?__acrt_LCMapStringA_stat@@YAHPEAU__crt_locale_pointers@@PEB_WKPEBDHPEADHHH@Z 000000018001bcf8 f   libucrt:lcmapstringa.obj
 0001:0001c9ec       memcpy_s                   000000018001d9ec f   libucrt:cfout.obj
 0001:0001cbf8       common_flush_all           000000018001dbf8 f   libucrt:fflush.obj
 0001:0001cef4       ?free_crt_array_internal@@YAXQEAPEBX_K@Z 000000018001def4 f   libucrt:inittime.obj
 0001:0001d530       ?shortsort@@YAXPEAD0_KP6AHPEBX2@Z@Z 000000018001e530 f   libucrt:qsort.obj
 0001:0001db48       ?initialize_multibyte@@YAHXZ 000000018001eb48 f   libucrt:multibyte_initializer.obj
 0001:0001dd00       $$000000                   000000018001ed00     libucrt:log10.obj
 0001:0001e2ac       ?write_double_translated_ansi_nolock@@YA?AUwrite_result@?A0x9c548279@@HQEBDI@Z 000000018001f2ac f   libucrt:write.obj
 0001:0001e4b4       ?write_text_ansi_nolock@@YA?AUwrite_result@?A0x9c548279@@HQEBDI@Z 000000018001f4b4 f   libucrt:write.obj
 0001:0001e5bc       ?write_text_utf16le_nolock@@YA?AUwrite_result@?A0x9c548279@@HQEBDI@Z 000000018001f5bc f   libucrt:write.obj
 0001:0001e6d8       ?write_text_utf8_nolock@@YA?AUwrite_result@?A0x9c548279@@HQEBDI@Z 000000018001f6d8 f   libucrt:write.obj
 0001:0001ec1c       ??$common_lseek_nolock@_J@@YA_JH_JH@Z 000000018001fc1c f   libucrt:lseek.obj
 0001:0001f008       common_control87           0000000180020008 f   libucrt:ieee.obj
 0001:0001f2a0       _call_matherr              00000001800202a0 f   libucrt:libm_error.obj
 0001:0001f308       _exception_enabled         0000000180020308 f   libucrt:libm_error.obj
 0001:0001f5a0       _log_special_common        00000001800205a0 f   libucrt:log_special.obj
 0001:0001f8b0       $$000000                   00000001800208b0     libucrt:fpsr.obj
 0001:0001ffd0       $$000000                   0000000180020fd0     LIBCMT:guard_dispatch.obj
 0001:0001fff0       ?filt$0@?0??_AtlVerifyStackAvailable@_ATL_SAFE_ALLOCA_IMPL@ATL@@YA_N_K@Z@4HA 0000000180020ff0 f   MSR.obj
 0001:00020011       __scrt_is_nonwritable_in_current_image$filt$0 0000000180021011 f   LIBCMT:utility.obj
 0001:00020029       ?catch$0@?0???2@YAPEAX_KAEBUnothrow_t@std@@@Z@4HA 0000000180021029 f   LIBCMT:new_scalar_nothrow.obj
 0001:00020036       __catch$??2@YAPEAX_KAEBUnothrow_t@std@@@Z$0 0000000180021036 f   LIBCMT:new_scalar_nothrow.obj
 0001:00020044       ?fin$0@?0??dllmain_crt_process_attach@@YAHQEAUHINSTANCE__@@QEAX@Z@4HA 0000000180021044 f   LIBCMT:dll_dllmain.obj
 0001:0002005b       ?fin$0@?0??dllmain_crt_process_detach@@YAH_N@Z@4HA 000000018002105b f   LIBCMT:dll_dllmain.obj
 0001:00020077       ?filt$0@?0??dllmain_dispatch@@YAHQEAUHINSTANCE__@@KQEAX@Z@4HA 0000000180021077 f   LIBCMT:dll_dllmain.obj
 0001:000200ad       __DestructExceptionObject$filt$0 00000001800210ad f   libvcruntime:ehhelpers.obj
 0001:000200c5       ?filt$0@?0???$_CallSETranslator@V__FrameHandler3@@@@YAHPEAUEHExceptionRecord@@PEA_KPEAU_CONTEXT@@PEAU_xDISPATCHER_CONTEXT@@PEBU_s_FuncInfo@@K1@Z@4HA 00000001800210c5 f   libvcruntime:risctrnsctrl.obj
 0001:00020156       ?filt$0@?0??CxxCallCatchBlock@__FrameHandler3@@SAPEAXPEAU_EXCEPTION_RECORD@@@Z@4HA 0000000180021156 f   libvcruntime:frame.obj
 0001:0002017b       ?fin$1@?0??CxxCallCatchBlock@__FrameHandler3@@SAPEAXPEAU_EXCEPTION_RECORD@@@Z@4HA 000000018002117b f   libvcruntime:frame.obj
 0001:000201f3       ?filt$0@?0??FrameUnwindToState@__FrameHandler3@@SAXPEA_KPEAU_xDISPATCHER_CONTEXT@@PEBU_s_FuncInfo@@H@Z@4HA 00000001800211f3 f   libvcruntime:frame.obj
 0001:00020209       ?fin$1@?0??FrameUnwindToState@__FrameHandler3@@SAXPEA_KPEAU_xDISPATCHER_CONTEXT@@PEBU_s_FuncInfo@@H@Z@4HA 0000000180021209 f   libvcruntime:frame.obj
 0001:0002022c       ?filt$0@?0??common_exit@@YAXHW4_crt_exit_cleanup_mode@@W4_crt_exit_return_mode@@@Z@4HA 000000018002122c f   libucrt:exit.obj
 0001:00020247       ?fin$1@?0??common_exit@@YAXHW4_crt_exit_cleanup_mode@@W4_crt_exit_return_mode@@@Z@4HA 0000000180021247 f   libucrt:exit.obj
 0001:00020260       ?fin$0@?0???$?RV<lambda_46352004c1216016012b18bd6f87e700>@@AEAV<lambda_3bd07e1a1191394380780325891bf33f>@@V<lambda_334532d3f185bcaa59b5be82d7d22bff>@@@?$__crt_seh_guarded_call@X@@QEAAX$$QEAV<lambda_46352004c1216016012b18bd6f87e700>@@AEAV<lambda_3bd07e1a1191394380780325891bf33f>@@$$QEAV<lambda_334532d3f185bcaa59b5be82d7d22bff>@@@Z@4HA 0000000180021260 f   libucrt:per_thread_data.obj
 0001:00020260       ?fin$0@?0???$?RV<lambda_b8c45f8f788dd370798f47cfe8ac3a86>@@AEAV<lambda_4e60a939b0d047cfe11ddc22648dfba9>@@V<lambda_332c3edc96d0294ec56c57d38c1cdfd5>@@@?$__crt_seh_guarded_call@H@@QEAAH$$QEAV<lambda_b8c45f8f788dd370798f47cfe8ac3a86>@@AEAV<lambda_4e60a939b0d047cfe11ddc22648dfba9>@@$$QEAV<lambda_332c3edc96d0294ec56c57d38c1cdfd5>@@@Z@4HA 0000000180021260 f   libucrt:onexit.obj
 0001:00020260       ?fin$0@?0???$?RV<lambda_72d1df2b273a38828b1ce30cbf4cdab5>@@AEAV<lambda_876a65b173b8412d3a47c70a915b0cf4>@@V<lambda_41932305e351933ebe8f8be3ed8bb5dc>@@@?$__crt_seh_guarded_call@X@@QEAAX$$QEAV<lambda_72d1df2b273a38828b1ce30cbf4cdab5>@@AEAV<lambda_876a65b173b8412d3a47c70a915b0cf4>@@$$QEAV<lambda_41932305e351933ebe8f8be3ed8bb5dc>@@@Z@4HA 0000000180021260 f   libucrt:per_thread_data.obj
 0001:00020260       ?fin$0@?0???$?RV<lambda_fb3a7dec4e47f37f22dae91bb15c9095>@@AEAV<lambda_698284760c8add0bfb0756c19673e34b>@@V<lambda_dfb8eca1e75fef3034a8fb18dd509707>@@@?$__crt_seh_guarded_call@X@@QEAAX$$QEAV<lambda_fb3a7dec4e47f37f22dae91bb15c9095>@@AEAV<lambda_698284760c8add0bfb0756c19673e34b>@@$$QEAV<lambda_dfb8eca1e75fef3034a8fb18dd509707>@@@Z@4HA 0000000180021260 f   libucrt:per_thread_data.obj
 0001:00020260       ?fin$0@?0???$?RV<lambda_99476a1ad63dd22509b5d3e65b0ffc95>@@AEAV<lambda_ad1ced32f4ac17aa236e5ef05d6b3b7c>@@V<lambda_f7424dd8d45958661754dc4f2697e9c3>@@@?$__crt_seh_guarded_call@X@@QEAAX$$QEAV<lambda_99476a1ad63dd22509b5d3e65b0ffc95>@@AEAV<lambda_ad1ced32f4ac17aa236e5ef05d6b3b7c>@@$$QEAV<lambda_f7424dd8d45958661754dc4f2697e9c3>@@@Z@4HA 0000000180021260 f   libucrt:mbctype.obj
 0001:00020260       ?fin$0@?0???$?RV<lambda_c36588078e9f5dfd39652860aa6b3aaf>@@AEAV<lambda_ec61778202f4f5fc7e7711acc23c3bca>@@V<lambda_dc9d2797ccde5d239b4a0efae8ebd7db>@@@?$__crt_seh_guarded_call@P6AXH@Z@@QEAAP6AXH@Z$$QEAV<lambda_c36588078e9f5dfd39652860aa6b3aaf>@@AEAV<lambda_ec61778202f4f5fc7e7711acc23c3bca>@@$$QEAV<lambda_dc9d2797ccde5d239b4a0efae8ebd7db>@@@Z@4HA 0000000180021260 f   libucrt:signal.obj
 0001:00020260       ?fin$0@?0???$?RV<lambda_5e887d1dcbef67a5eb4283622ba103bf>@@AEAV<lambda_4466841279450cc726390878d4a41900>@@V<lambda_341c25c0346d94847f1f3c463c57e077>@@@?$__crt_seh_guarded_call@X@@QEAAX$$QEAV<lambda_5e887d1dcbef67a5eb4283622ba103bf>@@AEAV<lambda_4466841279450cc726390878d4a41900>@@$$QEAV<lambda_341c25c0346d94847f1f3c463c57e077>@@@Z@4HA 0000000180021260 f   libucrt:per_thread_data.obj
 0001:0002027a       ?fin$0@?0???$?RV<lambda_e24bbb7b643b32fcea6fa61b31d4c984>@@AEAV<lambda_275893d493268fdec8709772e3fcec0e>@@V<lambda_9d71df4d7cf3f480f8d633942495c3b0>@@@?$__crt_seh_guarded_call@H@@QEAAH$$QEAV<lambda_e24bbb7b643b32fcea6fa61b31d4c984>@@AEAV<lambda_275893d493268fdec8709772e3fcec0e>@@$$QEAV<lambda_9d71df4d7cf3f480f8d633942495c3b0>@@@Z@4HA 000000018002127a f   libucrt:onexit.obj
 0001:00020297       _query_new_handler$fin$0   0000000180021297 f   libucrt:new_handler.obj
 0001:000202ad       __acrt_update_thread_locale_data$fin$0 00000001800212ad f   libucrt:locale_refcounting.obj
 0001:000202ad       __acrt_uninitialize_locale$fin$0 00000001800212ad f   libucrt:wsetlocale.obj
 0001:000202c6       __acrt_initialize_lowio$fin$0 00000001800212c6 f   libucrt:ioinit.obj
 0001:000202c6       __acrt_lowio_ensure_fh_exists$fin$0 00000001800212c6 f   libucrt:osfinfo.obj
 0001:000202df       __acrt_update_thread_multibyte_data$fin$0 00000001800212df f   libucrt:mbctype.obj
 0001:000202f8       raise$fin$0                00000001800212f8 f   libucrt:signal.obj
 0001:0002031c       _fcloseall$fin$0           000000018002131c f   libucrt:closeall.obj
 0001:00020335       common_flush_all$fin$0     0000000180021335 f   libucrt:fflush.obj
 0001:0002034f       common_flush_all$fin$1     000000018002134f f   libucrt:fflush.obj
 0001:00020368       _write$fin$0               0000000180021368 f   libucrt:write.obj
 0001:0002037f       fclose$fin$0               000000018002137f f   libucrt:fclose.obj
 0001:00020397       ?fin$0@?0???$?RV<lambda_b521505b218e5242e90febf6bfebc422>@@AEAV<lambda_6978c1fb23f02e42e1d9e99668cc68aa>@@V<lambda_314360699dd331753a4119843814e9a7>@@@?$__crt_seh_guarded_call@H@@QEAAH$$QEAV<lambda_b521505b218e5242e90febf6bfebc422>@@AEAV<lambda_6978c1fb23f02e42e1d9e99668cc68aa>@@$$QEAV<lambda_314360699dd331753a4119843814e9a7>@@@Z@4HA 0000000180021397 f   libucrt:commit.obj
 0001:00020397       ?fin$0@?0???$?RV<lambda_bfedae4ebbf01fab1bb6dcc6a9e276e0>@@AEAV<lambda_2fe9b910cf3cbf4a0ab98a02ba45b3ec>@@V<lambda_237c231691f317818eb88cc1d5d642d6>@@@?$__crt_seh_guarded_call@H@@QEAAH$$QEAV<lambda_bfedae4ebbf01fab1bb6dcc6a9e276e0>@@AEAV<lambda_2fe9b910cf3cbf4a0ab98a02ba45b3ec>@@$$QEAV<lambda_237c231691f317818eb88cc1d5d642d6>@@@Z@4HA 0000000180021397 f   libucrt:close.obj
 0001:000203b1       _ctrlfp$filt$0             00000001800213b1 f   libucrt:fpctrl.obj
 0001:000203b1       common_control87$filt$0    00000001800213b1 f   libucrt:ieee.obj
 0001:000203e0       _IsNonwritableInCurrentImage$filt$0 00000001800213e0 f   LIBCMT:pesect.obj
 0001:00020400       ??__F_AtlComModule@ATL@@YAXXZ 0000000180021400 f   OposVariant.obj
 0001:0002040c       ??__F_AtlWinModule@ATL@@YAXXZ 000000018002140c f   OposVariant.obj
 0001:00020450       ??__F_Module@@YAXXZ        0000000180021450 f   MSR.obj
 0001:000204b4       ??__F_AtlBaseModule@ATL@@YAXXZ 00000001800214b4 f   atls:atlbase.obj
 0002:00000640       ?_AtlBaseModule$initializer$@ATL@@3P6AXXZEA 0000000180022640     atls:atlbase.obj
 0002:00000648       ?_AtlComModule$initializer$@ATL@@3P6AXXZEA 0000000180022648     OposVariant.obj
 0002:00000650       ?_AtlWinModule$initializer$@ATL@@3P6AXXZEA 0000000180022650     OposVariant.obj
 0002:00000658       ?_Module$initializer$@@3P6AXXZEA 0000000180022658     MSR.obj
 0002:00000660       ??pConnMap$initializer$@?$IConnectionPointContainerImpl@VCOPOSMSR@@@ATL@@0P6AXXZEA@@3P6AXXZEA 0000000180022660     MSR.obj
 0002:00000678       ?__scrt_initialize_tss_var@@3P6AHXZEA 0000000180022678     LIBCMT:thread_safe_statics.obj
 0002:000029e8       $cppxdata$?__scrt_initialize_thread_safe_statics@@YAHXZ 00000001800249e8     LIBCMT:thread_safe_statics.obj
 0002:00002ad8       GS_ExceptionPointers       0000000180024ad8     LIBCMT:gs_report.obj
 0002:00002ae8       $cppxdata$??2@YAPEAX_KAEBUnothrow_t@std@@@Z 0000000180024ae8     LIBCMT:new_scalar_nothrow.obj
 0002:00002cc0       ?ExceptionTemplate@?1??UnwindNestedFrames@__FrameHandler3@@SAXPEA_KPEAUEHExceptionRecord@@PEAU_CONTEXT@@0PEAXPEBU_s_FuncInfo@@HHPEBU_s_HandlerType@@PEAU_xDISPATCHER_CONTEXT@@E@Z@4U_EXCEPTION_RECORD@@B 0000000180024cc0     libvcruntime:risctrnsctrl.obj
 0002:00002d60       ?ExceptionTemplate@?1??_CxxThrowException@@9@4UEHExceptionRecord@@B 0000000180024d60     libvcruntime:throw.obj
 0002:00002da0       ?module_names@?A0xbfd18cd1@@3QBQEB_WB 0000000180024da0     libvcruntime:winapi_downlevel.obj
 0002:00002e70       ?candidate_modules@?1??try_get_FlsAlloc@@YAP6AKP6AXPEAX@Z@ZXZ@4QBW4module_id@?A0xbfd18cd1@@B 0000000180024e70     libvcruntime:winapi_downlevel.obj
 0002:00002e88       ?candidate_modules@?1??try_get_FlsFree@@YAP6AHK@ZXZ@4QBW4module_id@?A0xbfd18cd1@@B 0000000180024e88     libvcruntime:winapi_downlevel.obj
 0002:00002e98       ?candidate_modules@?1??try_get_FlsGetValue@@YAP6APEAXK@ZXZ@4QBW4module_id@?A0xbfd18cd1@@B 0000000180024e98     libvcruntime:winapi_downlevel.obj
 0002:00002eb0       ?candidate_modules@?1??try_get_FlsSetValue@@YAP6AHKPEAX@ZXZ@4QBW4module_id@?A0xbfd18cd1@@B 0000000180024eb0     libvcruntime:winapi_downlevel.obj
 0002:00002ec8       ?candidate_modules@?1??try_get_InitializeCriticalSectionEx@@YAP6AHPEAU_RTL_CRITICAL_SECTION@@KK@ZXZ@4QBW4module_id@?A0xbfd18cd1@@B 0000000180024ec8     libvcruntime:winapi_downlevel.obj
 0002:00002f20       ?tokenTable@@3QBQEBDB      0000000180024f20     libvcruntime:undname.obj
 0002:00002fa0       ?nameTable@@3QBQEBDB       0000000180024fa0     libvcruntime:undname.obj
 0002:00003230       ?rttiTable@@3QBQEBDB       0000000180025230     libvcruntime:undname.obj
 0002:000038f0       errtable                   00000001800258f0     libucrt:errno.obj
 0002:00003be0       __acrt_initializers        0000000180025be0     libucrt:initialization.obj
 0002:00003cd0       module_names               0000000180025cd0     libucrt:winapi_thunks.obj
 0002:000042b0       ?candidate_modules@?1??try_get_FlsAlloc@@YAP6AKP6AXPEAX@Z@ZXZ@4QBW4module_id@?A0x63058377@@B 00000001800262b0     libucrt:winapi_thunks.obj
 0002:000042c8       ?candidate_modules@?1??try_get_FlsFree@@YAP6AHK@ZXZ@4QBW4module_id@?A0x63058377@@B 00000001800262c8     libucrt:winapi_thunks.obj
 0002:000042d8       ?candidate_modules@?1??try_get_FlsGetValue@@YAP6APEAXK@ZXZ@4QBW4module_id@?A0x63058377@@B 00000001800262d8     libucrt:winapi_thunks.obj
 0002:000042f0       ?candidate_modules@?1??try_get_FlsSetValue@@YAP6AHKPEAX@ZXZ@4QBW4module_id@?A0x63058377@@B 00000001800262f0     libucrt:winapi_thunks.obj
 0002:00004308       ?candidate_modules@?1??try_get_GetCurrentPackageId@@YAP6AJPEAIPEAE@ZXZ@4QBW4module_id@?A0x63058377@@B 0000000180026308     libucrt:winapi_thunks.obj
 0002:00004328       ?candidate_modules@?1??try_get_InitializeCriticalSectionEx@@YAP6AHPEAU_RTL_CRITICAL_SECTION@@KK@ZXZ@4QBW4module_id@?A0x63058377@@B 0000000180026328     libucrt:winapi_thunks.obj
 0002:00004350       ?candidate_modules@?1??try_get_LCMapStringEx@@YAP6AHPEB_WK0HPEA_WHPEAU_nlsversioninfo@@PEAX_J@ZXZ@4QBW4module_id@?A0x63058377@@B 0000000180026350     libucrt:winapi_thunks.obj
 0002:00004368       ?candidate_modules@?1??try_get_LocaleNameToLCID@@YAP6AKPEB_WK@ZXZ@4QBW4module_id@?A0x63058377@@B 0000000180026368     libucrt:winapi_thunks.obj
 0002:00004388       ?candidate_modules@?1??try_get_SetThreadStackGuarantee@@YAP6AHPEAK@ZXZ@4QBW4module_id@?A0x63058377@@B 0000000180026388     libucrt:winapi_thunks.obj
 0002:00004a80       _mb_locale_names           0000000180026a80     libucrt:mbctype.obj
 0002:000052f0       LcidToLocaleNameTable      00000001800272f0     libucrt:lcidtoname_downlevel.obj
 0002:00006d50       LocaleNameToIndexTable     0000000180028d50     libucrt:lcidtoname_downlevel.obj
 0002:00008ff0       __real_ninf                000000018002aff0     libucrt:log10.obj
 0002:00009000       __real_inf                 000000018002b000     libucrt:log10.obj
 0002:00009010       __real_neg_qnan            000000018002b010     libucrt:log10.obj
 0002:00009020       __real_qnanbit             000000018002b020     libucrt:log10.obj
 0002:00009030       __int_1023                 000000018002b030     libucrt:log10.obj
 0002:00009040       __mask_001                 000000018002b040     libucrt:log10.obj
 0002:00009050       __mask_mant                000000018002b050     libucrt:log10.obj
 0002:00009060       __mask_mant_top8           000000018002b060     libucrt:log10.obj
 0002:00009070       __mask_mant9               000000018002b070     libucrt:log10.obj
 0002:00009080       __real_log10_e             000000018002b080     libucrt:log10.obj
 0002:00009090       __real_log10_e_lead        000000018002b090     libucrt:log10.obj
 0002:000090a0       __real_log10_e_tail        000000018002b0a0     libucrt:log10.obj
 0002:000090b0       __real_log10_2_lead        000000018002b0b0     libucrt:log10.obj
 0002:000090c0       __real_log10_2_tail        000000018002b0c0     libucrt:log10.obj
 0002:000090d0       __real_two                 000000018002b0d0     libucrt:log10.obj
 0002:000090e0       __real_one                 000000018002b0e0     libucrt:log10.obj
 0002:000090f0       __real_half                000000018002b0f0     libucrt:log10.obj
 0002:00009100       __mask_100                 000000018002b100     libucrt:log10.obj
 0002:00009110       __real_1_over_512          000000018002b110     libucrt:log10.obj
 0002:00009120       __real_1_over_2            000000018002b120     libucrt:log10.obj
 0002:00009130       __real_1_over_3            000000018002b130     libucrt:log10.obj
 0002:00009140       __real_1_over_4            000000018002b140     libucrt:log10.obj
 0002:00009150       __real_1_over_5            000000018002b150     libucrt:log10.obj
 0002:00009160       __real_1_over_6            000000018002b160     libucrt:log10.obj
 0002:00009170       __real_neg_1023            000000018002b170     libucrt:log10.obj
 0002:00009180       __mask_2045                000000018002b180     libucrt:log10.obj
 0002:00009190       __real_threshold           000000018002b190     libucrt:log10.obj
 0002:000091a0       __real_near_one_lt         000000018002b1a0     libucrt:log10.obj
 0002:000091b0       __real_near_one_gt         000000018002b1b0     libucrt:log10.obj
 0002:000091c0       __real_min_norm            000000018002b1c0     libucrt:log10.obj
 0002:000091d0       __real_notsign             000000018002b1d0     libucrt:log10.obj
 0002:000091e0       __real_ca1                 000000018002b1e0     libucrt:log10.obj
 0002:000091f0       __real_ca2                 000000018002b1f0     libucrt:log10.obj
 0002:00009200       __real_ca3                 000000018002b200     libucrt:log10.obj
 0002:00009210       __real_ca4                 000000018002b210     libucrt:log10.obj
 0002:00009220       __mask_lower               000000018002b220     libucrt:log10.obj
 0002:00009230       __flag_x_zero              000000018002b230     libucrt:log10.obj
 0002:00009234       __flag_x_neg               000000018002b234     libucrt:log10.obj
 0002:00009238       __flag_x_nan               000000018002b238     libucrt:log10.obj
 0002:0000aa80       __real@433fffffffffffff    000000018002ca80     libucrt:fpsr.obj
 0002:0000aa88       __real@c33fffffffffffff    000000018002ca88     libucrt:fpsr.obj
 0002:0000b2c0       $unwind$_invalid_parameter_noinfo 000000018002d2c0     libucrt:invalid_parameter.obj
 0002:0000b2c0       $unwind$_log10_special     000000018002d2c0     libucrt:log_special.obj
 0002:0000b2c0       $unwind$?cw_memcpy@@YAHPEA_WPEBDH@Z 000000018002d2c0     CWString.obj
 0002:0000b2c0       $unwind$?ProcessWindowMessage@?$CComControl@VCOPOSMSR@@V?$CWindowImpl@VCOPOSMSR@@VCWindow@ATL@@V?$CWinTraits@$0FGAAAAAA@$0A@@3@@ATL@@@ATL@@UEAAHPEAUHWND__@@I_K_JAEA_JK@Z 000000018002d2c0     MSR.obj
 0002:0000b2c8       $unwind$atexit             000000018002d2c8     LIBCMT:utility.obj
 0002:0000b2c8       $unwind$__std_terminate    000000018002d2c8     libvcruntime:ehhelpers.obj
 0002:0000b2c8       $unwind$__scrt_acquire_startup_lock 000000018002d2c8     LIBCMT:utility.obj
 0002:0000b2c8       $unwind$__FrameUnwindFilter 000000018002d2c8     libvcruntime:ehhelpers.obj
 0002:0000b2c8       $unwind$__vcrt_thread_detach 000000018002d2c8     libvcruntime:initialization.obj
 0002:0000b2c8       $unwind$__vcrt_thread_attach 000000018002d2c8     libvcruntime:initialization.obj
 0002:0000b2c8       $unwind$__acrt_initialize_multibyte 000000018002d2c8     libucrt:mbctype.obj
 0002:0000b2c8       $unwind$_GetImageBase      000000018002d2c8     libvcruntime:risctrnsctrl.obj
 0002:0000b2c8       $unwind$_GetThrowImageBase 000000018002d2c8     libvcruntime:risctrnsctrl.obj
 0002:0000b2c8       $unwind$?CreateInstance@CComClassFactory@ATL@@UEAAJPEAUIUnknown@@AEBU_GUID@@PEAPEAX@Z 000000018002d2c8     MSR.obj
 0002:0000b2c8       $unwind$__vcrt_uninitialize_critical 000000018002d2c8     libvcruntime:initialization.obj
 0002:0000b2c8       $unwind$__vcrt_uninitialize 000000018002d2c8     libvcruntime:initialization.obj
 0002:0000b2c8       $unwind$__vcrt_initialize  000000018002d2c8     libvcruntime:initialization.obj
 0002:0000b2c8       $unwind$?GetAdvise@?$IViewObjectExImpl@VCOPOSMSR@@@ATL@@UEAAJPEAK0PEAPEAUIAdviseSink@@@Z 000000018002d2c8     MSR.obj
 0002:0000b2c8       $unwind$__scrt_dllmain_before_initialize_c 000000018002d2c8     LIBCMT:utility.obj
 0002:0000b2c8       $unwind$?initialize_multibyte@@YAHXZ 000000018002d2c8     libucrt:multibyte_initializer.obj
 0002:0000b2c8       $unwind$??1OposDispParms@@QEAA@XZ 000000018002d2c8     OposVariant.obj
 0002:0000b2c8       $unwind$__scrt_dllmain_uninitialize_c 000000018002d2c8     LIBCMT:utility.obj
 0002:0000b2c8       $unwind$__scrt_dllmain_uninitialize_critical 000000018002d2c8     LIBCMT:utility.obj
 0002:0000b2c8       $unwind$__scrt_dllmain_crt_thread_attach 000000018002d2c8     LIBCMT:utility.obj
 0002:0000b2c8       $unwind$__scrt_dllmain_crt_thread_detach 000000018002d2c8     LIBCMT:utility.obj
 0002:0000b2c8       $unwind$__acrt_uninitialize_ptd 000000018002d2c8     libucrt:per_thread_data.obj
 0002:0000b2c8       $unwind$__acrt_initialize_command_line 000000018002d2c8     libucrt:argv_data.obj
 0002:0000b2c8       $unwind$?AtlThrowImpl@ATL@@YAXJ@Z 000000018002d2c8     MSR.obj
 0002:0000b2c8       $unwind$__vcrt_initialize_ptd 000000018002d2c8     libvcruntime:per_thread_data.obj
 0002:0000b2c8       $unwind$_purecall          000000018002d2c8     libvcruntime:purevirt.obj
 0002:0000b2c8       $unwind$?LockServer@CComClassFactory@ATL@@UEAAJH@Z 000000018002d2c8     MSR.obj
 0002:0000b2c8       $unwind$abort              000000018002d2c8     libucrt:abort.obj
 0002:0000b2c8       $unwind$__vcrt_uninitialize_ptd 000000018002d2c8     libvcruntime:per_thread_data.obj
 0002:0000b2c8       $unwind$?AddReplacement@CRegObject@ATL@@UEAAJPEB_W0@Z 000000018002d2c8     MSR.obj
 0002:0000b2c8       $unwind$__vcrt_getptd      000000018002d2c8     libvcruntime:per_thread_data.obj
 0002:0000b2c8       $unwind$_msize             000000018002d2c8     libucrt:msize.obj
 0002:0000b2c8       $unwind$_Init_thread_notify 000000018002d2c8     LIBCMT:thread_safe_statics.obj
 0002:0000b2c8       $unwind$?OnDocWindowActivate@?$IOleInPlaceActiveObjectImpl@VCOPOSMSR@@@ATL@@UEAAJH@Z 000000018002d2c8     MSR.obj
 0002:0000b2c8       $unwind$?__scrt_uninitialize_thread_safe_statics@@YAXXZ 000000018002d2c8     LIBCMT:thread_safe_statics.obj
 0002:0000b2c8       $unwind$__vcrt_freefls     000000018002d2c8     libvcruntime:per_thread_data.obj
 0002:0000b2c8       $unwind$?EnumAdvise@?$IOleObjectImpl@VCOPOSMSR@@@ATL@@UEAAJPEAPEAUIEnumSTATDATA@@@Z 000000018002d2c8     MSR.obj
 0002:0000b2c8       $unwind$?Unadvise@?$IOleObjectImpl@VCOPOSMSR@@@ATL@@UEAAJK@Z 000000018002d2c8     MSR.obj
 0002:0000b2c8       $unwind$uninitialize_environment 000000018002d2c8     libucrt:initialization.obj
 0002:0000b2c8       $unwind$initialize_c       000000018002d2c8     libucrt:initialization.obj
 0002:0000b2c8       $unwind$_fileno            000000018002d2c8     libucrt:fileno.obj
 0002:0000b2c8       $unwind$__acrt_thread_detach 000000018002d2c8     libucrt:initialization.obj
 0002:0000b2c8       $unwind$__report_rangecheckfailure 000000018002d2c8     LIBCMT:gs_report.obj
 0002:0000b2c8       $unwind$__acrt_thread_attach 000000018002d2c8     libucrt:initialization.obj
 0002:0000b2c8       $unwind$?get_State@COPOSMSR@@UEAAJPEAJ@Z 000000018002d2c8     MSRImpl.obj
 0002:0000b2c8       $unwind$__acrt_uninitialize_critical 000000018002d2c8     libucrt:initialization.obj
 0002:0000b2c8       $unwind$?get_ResultCode@COPOSMSR@@UEAAJPEAJ@Z 000000018002d2c8     MSRImpl.obj
 0002:0000b2c8       $unwind$__GSHandlerCheck   000000018002d2c8     LIBCMT:gshandler.obj
 0002:0000b2c8       $unwind$_getfpcontrolword  000000018002d2c8     libucrt:_fenvutils.obj
 0002:0000b2c8       $unwind$_getfpstatusword   000000018002d2c8     libucrt:_fenvutils.obj
 0002:0000b2c8       $unwind$?FinalConstruct@COPOSMSR@@QEAAJXZ 000000018002d2c8     MSRImpl.obj
 0002:0000b2c8       $unwind$?GetLONG@OposVariant@@QEAAJXZ 000000018002d2c8     OposVariant.obj
 0002:0000b2c8       $unwind$?DefaultReflectionHandler@?$CWindowImplRoot@VCWindow@ATL@@@ATL@@SAHPEAUHWND__@@I_K_JAEA_J@Z 000000018002d2c8     MSR.obj
 0002:0000b2c8       $unwind$?GetCurrentState@__FrameHandler3@@SAHPEA_KPEAU_xDISPATCHER_CONTEXT@@PEBU_s_FuncInfo@@@Z 000000018002d2c8     libvcruntime:ehstate.obj
 0002:0000b2c8       $unwind$_get_osfhandle     000000018002d2c8     libucrt:osfinfo.obj
 0002:0000b2c8       $unwind$??__E?pConnMap@?$IConnectionPointContainerImpl@VCOPOSMSR@@@ATL@@0PEBU_ATL_CONNMAP_ENTRY@2@EB@@YAXXZ 000000018002d2c8     MSR.obj
 0002:0000b2c8       $unwind$??__F_AtlWinModule@ATL@@YAXXZ 000000018002d2c8     OposVariant.obj
 0002:0000b2c8       $unwind$??__E_AtlWinModule@ATL@@YAXXZ 000000018002d2c8     OposVariant.obj
 0002:0000b2c8       $unwind$??$uninitialize_environment_internal@_W@@YAXAEAPEAPEA_W@Z 000000018002d2c8     libucrt:environment_initialization.obj
 0002:0000b2c8       $unwind$?AtlHresultFromLastError@ATL@@YAJXZ 000000018002d2c8     MSR.obj
 0002:0000b2c8       $unwind$__acrt_initialize_heap 000000018002d2c8     libucrt:heap_handle.obj
 0002:0000b2c8       $unwind$_set_errno_from_matherr 000000018002d2c8     libucrt:fpexcept.obj
 0002:0000b2c8       $unwind$??$uninitialize_environment_internal@D@@YAXAEAPEAPEAD@Z 000000018002d2c8     libucrt:environment_initialization.obj
 0002:0000b2c8       $unwind$??__E_AtlComModule@ATL@@YAXXZ 000000018002d2c8     OposVariant.obj
 0002:0000b2c8       $unwind$__dcrt_uninitialize_environments_nolock 000000018002d2c8     libucrt:environment_initialization.obj
 0002:0000b2c8       $unwind$_statfp            000000018002d2c8     libucrt:fpctrl.obj
 0002:0000b2c8       $unwind$?dllmain_crt_dispatch@@YAHQEAUHINSTANCE__@@KQEAX@Z 000000018002d2c8     LIBCMT:dll_dllmain.obj
 0002:0000b2c8       $unwind$_isatty            000000018002d2c8     libucrt:isatty.obj
 0002:0000b2c8       $unwind$__scrt_initialize_default_local_stdio_options 000000018002d2c8     LIBCMT:default_local_stdio_options.obj
 0002:0000b2c8       $unwind$__dcrt_terminate_console_output 000000018002d2c8     libucrt:initcon.obj
 0002:0000b2c8       $unwind$??__F_Module@@YAXXZ 000000018002d2c8     MSR.obj
 0002:0000b2c8       $unwind$??__E_AtlBaseModule@ATL@@YAXXZ 000000018002d2c8     atls:atlbase.obj
 0002:0000b2c8       $unwind$__acrt_initialize_ptd 000000018002d2c8     libucrt:per_thread_data.obj
 0002:0000b2c8       $unwind$?_LocCPQueryInterface@?$IConnectionPointImpl@VCOPOSMSR@@$1?DIID__IOPOSMSREvents@@3U_GUID@@BVCComDynamicUnkArray@ATL@@@ATL@@UEAAJAEBU_GUID@@PEAPEAX@Z 000000018002d2c8     MSR.obj
 0002:0000b2c8       $unwind$_invoke_watson     000000018002d2c8     libucrt:invalid_parameter.obj
 0002:0000b2c8       $unwind$?_LocCPQueryInterface@?$IConnectionPointImpl@VCOPOSMSR@@$1?IID_IPropertyNotifySink@@3U_GUID@@BVCComDynamicUnkArray@ATL@@@ATL@@UEAAJAEBU_GUID@@PEAPEAX@Z 000000018002d2c8     MSR.obj
 0002:0000b2c8       $unwind$tolower            000000018002d2c8     libucrt:tolower_toupper.obj
 0002:0000b2c8       $unwind$?FireViewChange@CComControlBase@ATL@@QEAAJXZ 000000018002d2c8     MSR.obj
 0002:0000b2c8       $unwind$_errno             000000018002d2c8     libucrt:errno.obj
 0002:0000b2c8       $unwind$__doserrno         000000018002d2c8     libucrt:errno.obj
 0002:0000b2c8       $unwind$?cw_strcpy@@YAHPEA_WPEBD@Z 000000018002d2c8     CWString.obj
 0002:0000b2c8       $unwind$__acrt_DownlevelLocaleNameToLCID 000000018002d2c8     libucrt:lcidtoname_downlevel.obj
 0002:0000b2c8       $unwind$__acrt_release_locale_ref 000000018002d2c8     libucrt:locale_refcounting.obj
 0002:0000b2c8       $unwind$__pctype_func      000000018002d2c8     libucrt:ctype.obj
 0002:0000b2c8       $unwind$__scrt_dllmain_after_initialize_c 000000018002d2c8     LIBCMT:utility.obj
 0002:0000b2c8       $unwind$?state_case_size@?$output_processor@_WV?$string_output_adapter@_W@__crt_stdio_output@@V?$format_validation_base@_WV?$string_output_adapter@_W@__crt_stdio_output@@@2@@__crt_stdio_output@@AEAA_NXZ 000000018002d2c8     libucrt:output.obj
 0002:0000b2d0       $unwind$?process@?$output_processor@_WV?$string_output_adapter@_W@__crt_stdio_output@@V?$format_validation_base@_WV?$string_output_adapter@_W@__crt_stdio_output@@@2@@__crt_stdio_output@@QEAAHXZ 000000018002d2d0     libucrt:output.obj
 0002:0000b2d0       $unwind$?AtlComModuleRegisterServer@ATL@@YAJPEAU_ATL_COM_MODULE70@1@HPEBU_GUID@@@Z 000000018002d2d0     MSR.obj
 0002:0000b2d0       $unwind$?AtlComModuleUnregisterServer@ATL@@YAJPEAU_ATL_COM_MODULE70@1@HPEBU_GUID@@@Z 000000018002d2d0     MSR.obj
 0002:0000b2d0       $unwind$??_Estringdispid@CComTypeInfoHolder@ATL@@QEAAPEAXI@Z 000000018002d2d0     OposVariant.obj
 0002:0000b2d0       $unwind$?AtlModuleAddTermFunc@ATL@@YAJPEAU_ATL_MODULE70@1@P6AX_K@Z1@Z 000000018002d2d0     MSR.obj
 0002:0000b2d0       $unwind$_initterm          000000018002d2d0     libucrt:initterm.obj
 0002:0000b2d0       $unwind$??$TypeMatchHelper@V__FrameHandler3@@@@YAHPEBU_s_HandlerType@@PEBU_s_CatchableType@@PEBU_s_ThrowInfo@@@Z 000000018002d2d0     libvcruntime:frame.obj
 0002:0000b2d0       $unwind$__acrt_initialize_stdio 000000018002d2d0     libucrt:_file.obj
 0002:0000b2d0       $unwind$?CreateInstance@?$CComCreator@V?$CComAggObject@VCOPOSMSR@@@ATL@@@ATL@@SAJPEAXAEBU_GUID@@PEAPEAX@Z 000000018002d2d0     MSR.obj
 0002:0000b2d0       $unwind$?cw_dup@@YAXPEBDAEAHAEAPEA_W1@Z 000000018002d2d0     CWString.obj
 0002:0000b2d0       $unwind$?GetPagesHelper@?$ISpecifyPropertyPagesImpl@VCOPOSMSR@@@ATL@@IEAAJPEAUtagCAUUID@@PEBUATL_PROPMAP_ENTRY@2@@Z 000000018002d2d0     MSR.obj
 0002:0000b2d0       $unwind$__GSHandlerCheck_SEH 000000018002d2d0     LIBCMT:gshandlerseh.obj
 0002:0000b2e8       $unwind$wcscat_s           000000018002d2e8     libucrt:wcscat_s.obj
 0002:0000b2e8       $unwind$??2@YAPEAX_K@Z     000000018002d2e8     LIBCMT:new_scalar.obj
 0002:0000b2e8       $unwind$__acrt_update_locale_info 000000018002d2e8     libucrt:locale_update.obj
 0002:0000b2e8       $unwind$__acrt_update_multibyte_info 000000018002d2e8     libucrt:locale_update.obj
 0002:0000b2e8       $unwind$wcscpy_s           000000018002d2e8     libucrt:wcscpy_s.obj
 0002:0000b2e8       $unwind$?type_case_integer@?$output_processor@_WV?$string_output_adapter@_W@__crt_stdio_output@@V?$format_validation_base@_WV?$string_output_adapter@_W@__crt_stdio_output@@@2@@__crt_stdio_output@@AEAA_NI_N@Z 000000018002d2e8     libucrt:output.obj
 0002:0000b2e8       $unwind$AtlThunk_AllocateData 000000018002d2e8     atls:atlthunk.obj
 0002:0000b2e8       $unwind$__acrt_uninitialize_winapi_thunks 000000018002d2e8     libucrt:winapi_thunks.obj
 0002:0000b2e8       $unwind$??0exception@std@@QEAA@AEBV01@@Z 000000018002d2e8     LIBCMT:throw_bad_alloc.obj
 0002:0000b2e8       $unwind$?GetClassInfoW@?$IProvideClassInfo2Impl@$1?CLSID_OPOSMSR@@3U_GUID@@B$1?DIID__IOPOSMSREvents@@3U2@B$1?LIBID_OposMSR_CCO@@3U2@B$00$0A@VCComTypeInfoHolder@ATL@@@ATL@@UEAAJPEAPEAUITypeInfo@@@Z 000000018002d2e8     MSR.obj
 0002:0000b2e8       $unwind$?DupWide@_CW@@AEAAXXZ 000000018002d2e8     CWString.obj
 0002:0000b2e8       $unwind$?Unadvise@?$IConnectionPointImpl@VCOPOSMSR@@$1?IID_IPropertyNotifySink@@3U_GUID@@BVCComDynamicUnkArray@ATL@@@ATL@@UEAAJK@Z 000000018002d2e8     MSR.obj
 0002:0000b2e8       $unwind$?Unadvise@?$IConnectionPointImpl@VCOPOSMSR@@$1?DIID__IOPOSMSREvents@@3U_GUID@@BVCComDynamicUnkArray@ATL@@@ATL@@UEAAJK@Z 000000018002d2e8     MSR.obj
 0002:0000b2e8       $unwind$?GetConnMap@COPOSMSR@@SAPEBU_ATL_CONNMAP_ENTRY@ATL@@PEAH@Z 000000018002d2e8     MSR.obj
 0002:0000b2e8       $unwind$??__E_Module@@YAXXZ 000000018002d2e8     MSR.obj
 0002:0000b2e8       $unwind$?exit_or_terminate_process@@YAXI@Z 000000018002d2e8     libucrt:exit.obj
 0002:0000b2e8       $unwind$??1CAtlBaseModule@ATL@@QEAA@XZ 000000018002d2e8     atls:atlbase.obj
 0002:0000b2e8       $unwind$?GetTypeInfo@?$IDispatchImpl@UIOPOSMSR@@$1?IID_IOPOSMSR@@3U_GUID@@B$1?LIBID_OposMSR_CCO@@3U3@B$00$0A@VCComTypeInfoHolder@ATL@@@ATL@@UEAAJIKPEAPEAUITypeInfo@@@Z 000000018002d2e8     MSR.obj
 0002:0000b2e8       $unwind$__raise_securityfailure 000000018002d2e8     LIBCMT:gs_report.obj
 0002:0000b2e8       $unwind$?IOleInPlaceObject_InPlaceDeactivate@CComControlBase@ATL@@QEAAJXZ 000000018002d2e8     MSR.obj
 0002:0000b2e8       $unwind$?IPSI_GetIPersistStreamInit@?$IPersistStorageImpl@VCOPOSMSR@@@ATL@@AEAAPEAUIPersistStreamInit@@XZ 000000018002d2e8     MSR.obj
 0002:0000b2e8       $unwind$?ExFilterRethrow@@YAHPEAU_EXCEPTION_POINTERS@@PEAUEHExceptionRecord@@PEAH@Z 000000018002d2e8     libvcruntime:frame.obj
 0002:0000b2e8       $unwind$__acrt_uninitialize_stdio 000000018002d2e8     libucrt:_file.obj
 0002:0000b2e8       $unwind$_set_statfp        000000018002d2e8     libucrt:fpctrl.obj
 0002:0000b2e8       $unwind$??0bad_exception@std@@QEAA@AEBV01@@Z 000000018002d2e8     libvcruntime:frame.obj
 0002:0000b2e8       $unwind$_malloc_base       000000018002d2e8     libucrt:malloc_base.obj
 0002:0000b2e8       $unwind$_Init_thread_wait  000000018002d2e8     LIBCMT:thread_safe_statics.obj
 0002:0000b2e8       $unwind$_calloc_base       000000018002d2e8     libucrt:calloc_base.obj
 0002:0000b2e8       $unwind$_Init_thread_footer 000000018002d2e8     LIBCMT:thread_safe_statics.obj
 0002:0000b2e8       $unwind$_Init_thread_header 000000018002d2e8     LIBCMT:thread_safe_statics.obj
 0002:0000b2e8       $unwind$__acrt_allocate_buffer_for_argv 000000018002d2e8     libucrt:argv_parsing.obj
 0002:0000b2e8       $unwind$__acrt_initialize_locks 000000018002d2e8     libucrt:locks.obj
 0002:0000b2e8       $unwind$__acrt_uninitialize_locks 000000018002d2e8     libucrt:locks.obj
 0002:0000b2e8       $unwind$?Load@?$IPersistStreamInitImpl@VCOPOSMSR@@@ATL@@UEAAJPEAUIStream@@@Z 000000018002d2e8     MSR.obj
 0002:0000b2e8       $unwind$_clrfp             000000018002d2e8     libucrt:fpctrl.obj
 0002:0000b2e8       $unwind$__scrt_uninitialize_crt 000000018002d2e8     LIBCMT:utility.obj
 0002:0000b2e8       $unwind$__scrt_initialize_crt 000000018002d2e8     LIBCMT:utility.obj
 0002:0000b2e8       $unwind$__scrt_release_startup_lock 000000018002d2e8     LIBCMT:utility.obj
 0002:0000b2e8       $unwind$?AddRef@?$CComObjectCached@VCComClassFactory@ATL@@@ATL@@UEAAKXZ 000000018002d2e8     MSR.obj
 0002:0000b2e8       $unwind$_onexit            000000018002d2e8     LIBCMT:utility.obj
 0002:0000b2e8       $unwind$?AllocateHeap@?$CTempBuffer@_W$0EAA@VCCRTAllocator@ATL@@@ATL@@AEAAX_K@Z 000000018002d2e8     MSR.obj
 0002:0000b2e8       $unwind$?IOleObject_SetExtent@CComControlBase@ATL@@QEAAJKPEAUtagSIZE@@@Z 000000018002d2e8     MSR.obj
 0002:0000b2e8       $unwind$?Release@?$CComObjectCached@VCComClassFactory@ATL@@@ATL@@UEAAKXZ 000000018002d2e8     MSR.obj
 0002:0000b2e8       $unwind$?IsEqualObject@?$CComPtrBase@UIOleClientSite@@@ATL@@QEAA_NPEAUIUnknown@@@Z 000000018002d2e8     MSR.obj
 0002:0000b2e8       $unwind$?AllocateHeap@?$CTempBuffer@_W$0BAA@VCCRTAllocator@ATL@@@ATL@@AEAAX_K@Z 000000018002d2e8     MSR.obj
 0002:0000b2e8       $unwind$?ExecutionInCatch@__FrameHandler3@@SA_NPEAU_xDISPATCHER_CONTEXT@@PEBU_s_FuncInfo@@@Z 000000018002d2e8     libvcruntime:risctrnsctrl.obj
 0002:0000b2e8       $unwind$?QueryInterface@?$CComAggObject@VCOPOSMSR@@@ATL@@UEAAJAEBU_GUID@@PEAPEAX@Z 000000018002d2e8     MSR.obj
 0002:0000b2e8       $unwind$??0?$CComObject@VCOPOSMSR@@@ATL@@QEAA@PEAX@Z 000000018002d2e8     MSR.obj
 0002:0000b2e8       $unwind$?AllocateHeap@?$CTempBuffer@E$0BAA@VCCRTAllocator@ATL@@@ATL@@AEAAX_K@Z 000000018002d2e8     MSR.obj
 0002:0000b2e8       $unwind$??1?$CComObject@VCOPOSMSR@@@ATL@@UEAA@XZ 000000018002d2e8     MSR.obj
 0002:0000b2e8       $unwind$_SetImageBase      000000018002d2e8     libvcruntime:risctrnsctrl.obj
 0002:0000b2e8       $unwind$??_Gtype_info@@UEAAPEAXI@Z 000000018002d2e8     LIBCMT:std_type_info_static.obj
 0002:0000b2e8       $unwind$?IsEqualObject@?$CComPtrBase@UITypeInfo@@@ATL@@QEAA_NPEAUIUnknown@@@Z 000000018002d2e8     MSR.obj
 0002:0000b2e8       $unwind$__acrt_freeptd     000000018002d2e8     libucrt:per_thread_data.obj
 0002:0000b2e8       $unwind$_SetThrowImageBase 000000018002d2e8     libvcruntime:risctrnsctrl.obj
 0002:0000b2e8       $unwind$_CreateFrameInfo   000000018002d2e8     libvcruntime:risctrnsctrl.obj
 0002:0000b2e8       $unwind$??0bad_alloc@std@@QEAA@AEBV01@@Z 000000018002d2e8     LIBCMT:throw_bad_alloc.obj
 0002:0000b2e8       $unwind$?GetUnwindTryBlock@__FrameHandler3@@SAHPEA_KPEAU_xDISPATCHER_CONTEXT@@PEBU_s_FuncInfo@@@Z 000000018002d2e8     libvcruntime:ehstate.obj
 0002:0000b2e8       $unwind$?QueryHitPoint@?$IViewObjectExImpl@VCOPOSMSR@@@ATL@@UEAAJKPEBUtagRECT@@UtagPOINT@@JPEAK@Z 000000018002d2e8     MSR.obj
 0002:0000b2e8       $unwind$??0?$output_processor@_WV?$string_output_adapter@_W@__crt_stdio_output@@V?$format_validation_base@_WV?$string_output_adapter@_W@__crt_stdio_output@@@2@@__crt_stdio_output@@QEAA@AEBV?$string_output_adapter@_W@1@_KQEB_WQEAU__crt_locale_pointers@@QEAD@Z 000000018002d2e8     libucrt:output.obj
 0002:0000b2e8       $unwind$??0bad_array_new_length@std@@QEAA@AEBV01@@Z 000000018002d2e8     LIBCMT:throw_bad_alloc.obj
 0002:0000b2e8       $unwind$?GetClientSite@?$IOleObjectImpl@VCOPOSMSR@@@ATL@@UEAAJPEAPEAUIOleClientSite@@@Z 000000018002d2e8     MSR.obj
 0002:0000b2e8       $unwind$?StateFromIp@__FrameHandler3@@SAHPEBU_s_FuncInfo@@PEAU_xDISPATCHER_CONTEXT@@_K@Z 000000018002d2e8     libvcruntime:ehstate.obj
 0002:0000b2e8       $unwind$??1CComControlBase@ATL@@UEAA@XZ 000000018002d2e8     MSRImpl.obj
 0002:0000b2e8       $unwind$__acrt_fp_strflt_to_string 000000018002d2e8     libucrt:_fptostr.obj
 0002:0000b2e8       $unwind$_fflush_nolock     000000018002d2e8     libucrt:fflush.obj
 0002:0000b2e8       $unwind$??1COPOSMSR@@UEAA@XZ 000000018002d2e8     MSRImpl.obj
 0002:0000b2e8       $unwind$__acrt_stdio_free_buffer_nolock 000000018002d2e8     libucrt:_freebuf.obj
 0002:0000b2e8       $unwind$_clearfp           000000018002d2e8     libucrt:ieee.obj
 0002:0000b2e8       $unwind$?AtlCreateTargetDC@ATL@@YAPEAUHDC__@@PEAU2@PEAUtagDVTARGETDEVICE@@@Z 000000018002d2e8     MSR.obj
 0002:0000b2e8       $unwind$__std_type_info_destroy_list 000000018002d2e8     libvcruntime:std_type_info.obj
 0002:0000b2e8       $unwind$fegetenv           000000018002d2e8     libucrt:fegetenv.obj
 0002:0000b2e8       $unwind$__std_exception_destroy 000000018002d2e8     libvcruntime:std_exception.obj
 0002:0000b2e8       $unwind$fesetenv           000000018002d2e8     libucrt:fesetenv.obj
 0002:0000b2e8       $unwind$?FreezeEvents@COPOSMSR@@MEAAJH@Z 000000018002d2e8     MSRImpl.obj
 0002:0000b2e8       $unwind$feholdexcept       000000018002d2e8     libucrt:feholdexcept.obj
 0002:0000b2e8       $unwind$?get_DeviceAuthenticated@COPOSMSR@@UEAAJPEAF@Z 000000018002d2e8     MSRImpl.obj
 0002:0000b2e8       $unwind$?get_CapTrackDataMasking@COPOSMSR@@UEAAJPEAF@Z 000000018002d2e8     MSRImpl.obj
 0002:0000b2e8       $unwind$strcpy_s           000000018002d2e8     libucrt:strcpy_s.obj
 0002:0000b2e8       $unwind$?get_CapUpdateFirmware@COPOSMSR@@UEAAJPEAF@Z 000000018002d2e8     MSRImpl.obj
 0002:0000b2e8       $unwind$?EventUninit@COPOSMSR@@IEAAXXZ 000000018002d2e8     MSRImpl.obj
 0002:0000b2e8       $unwind$?get_CapCompareFirmwareVersion@COPOSMSR@@UEAAJPEAF@Z 000000018002d2e8     MSRImpl.obj
 0002:0000b2e8       $unwind$?get_CapUpdateStatistics@COPOSMSR@@UEAAJPEAF@Z 000000018002d2e8     MSRImpl.obj
 0002:0000b2e8       $unwind$?get_CapStatisticsReporting@COPOSMSR@@UEAAJPEAF@Z 000000018002d2e8     MSRImpl.obj
 0002:0000b2e8       $unwind$_setfpstatusword   000000018002d2e8     libucrt:_fenvutils.obj
 0002:0000b2e8       $unwind$__vcrt_freeptd     000000018002d2e8     libvcruntime:per_thread_data.obj
 0002:0000b2e8       $unwind$?get_TransmitSentinels@COPOSMSR@@UEAAJPEAF@Z 000000018002d2e8     MSRImpl.obj
 0002:0000b2e8       $unwind$__vcrt_initialize_locks 000000018002d2e8     libvcruntime:locks.obj
 0002:0000b2e8       $unwind$__vcrt_uninitialize_locks 000000018002d2e8     libvcruntime:locks.obj
 0002:0000b2e8       $unwind$?SOProcessID@COPOSMSR@@UEAAJPEAJ@Z 000000018002d2e8     MSRImpl.obj
 0002:0000b2e8       $unwind$?get_CapTransmitSentinels@COPOSMSR@@UEAAJPEAF@Z 000000018002d2e8     MSRImpl.obj
 0002:0000b2e8       $unwind$?get_AutoDisable@COPOSMSR@@UEAAJPEAF@Z 000000018002d2e8     MSRImpl.obj
 0002:0000b2e8       $unwind$?get_ParseDecodedData@COPOSMSR@@UEAAJPEAF@Z 000000018002d2e8     MSRImpl.obj
 0002:0000b2e8       $unwind$?SetBSTR_OutPtr@OposVariant@@QEAA_NPEAPEA_WAEAJ@Z 000000018002d2e8     OposVariant.obj
 0002:0000b2e8       $unwind$_IsExceptionObjectToBeDestroyed 000000018002d2e8     libvcruntime:ehhelpers.obj
 0002:0000b2e8       $unwind$__vcrt_FlsAlloc    000000018002d2e8     libvcruntime:winapi_downlevel.obj
 0002:0000b2e8       $unwind$uninitialize_allocated_memory 000000018002d2e8     libucrt:initialization.obj
 0002:0000b2e8       $unwind$__vcrt_FlsFree     000000018002d2e8     libvcruntime:winapi_downlevel.obj
 0002:0000b2e8       $unwind$?get_Claimed@COPOSMSR@@UEAAJPEAF@Z 000000018002d2e8     MSRImpl.obj
 0002:0000b2e8       $unwind$?get_ParseDecodeData@COPOSMSR@@UEAAJPEAF@Z 000000018002d2e8     MSRImpl.obj
 0002:0000b2e8       $unwind$?get_DecodeData@COPOSMSR@@UEAAJPEAF@Z 000000018002d2e8     MSRImpl.obj
 0002:0000b2e8       $unwind$__vcrt_FlsGetValue 000000018002d2e8     libvcruntime:winapi_downlevel.obj
 0002:0000b2e8       $unwind$?get_CapJISTwo@COPOSMSR@@UEAAJPEAF@Z 000000018002d2e8     MSRImpl.obj
 0002:0000b2e8       $unwind$?get_DataEventEnabled@COPOSMSR@@UEAAJPEAF@Z 000000018002d2e8     MSRImpl.obj
 0002:0000b2e8       $unwind$?get_CapJISOne@COPOSMSR@@UEAAJPEAF@Z 000000018002d2e8     MSRImpl.obj
 0002:0000b2e8       $unwind$?get_DeviceEnabled@COPOSMSR@@UEAAJPEAF@Z 000000018002d2e8     MSRImpl.obj
 0002:0000b2e8       $unwind$?get_CapISO@COPOSMSR@@UEAAJPEAF@Z 000000018002d2e8     MSRImpl.obj
 0002:0000b2e8       $unwind$?get_FreezeEvents@COPOSMSR@@UEAAJPEAF@Z 000000018002d2e8     MSRImpl.obj
 0002:0000b2e8       $unwind$?put_FreezeEvents@COPOSMSR@@UEAAJF@Z 000000018002d2e8     MSRImpl.obj
 0002:0000b2e8       $unwind$initialize_pointers 000000018002d2e8     libucrt:initialization.obj
 0002:0000b2f0       $unwind$??$ensure_buffer_is_big_enough@D@formatting_buffer@__crt_stdio_output@@QEAA_N_K@Z 000000018002d2f0     libucrt:output.obj
 0002:0000b2f0       $unwind$?DoVerb@?$IOleObjectImpl@VCOPOSMSR@@@ATL@@UEAAJJPEAUtagMSG@@PEAUIOleClientSite@@JPEAUHWND__@@PEBUtagRECT@@@Z 000000018002d2f0     MSR.obj
 0002:0000b2f0       $unwind$?Add@CComDynamicUnkArray@ATL@@QEAAKPEAUIUnknown@@@Z 000000018002d2f0     MSR.obj
 0002:0000b2f0       $unwind$?SetControlFocus@CComControlBase@ATL@@QEAAHH@Z 000000018002d2f0     MSR.obj
 0002:0000b2f0       $unwind$_recalloc_base     000000018002d2f0     libucrt:recalloc.obj
 0002:0000b2f0       $unwind$__acrt_InitializeCriticalSectionEx 000000018002d2f0     libucrt:winapi_thunks.obj
 0002:0000b2f0       $unwind$_seh_filter_exe    000000018002d2f0     libucrt:exception_filter.obj
 0002:0000b2f0       $unwind$?s_EventWindowProc@COPOSMSR@@KA_JPEAUHWND__@@I_K_J@Z 000000018002d2f0     MSRImpl.obj
 0002:0000b2f0       $unwind$?SetVARIANT@OposVariant@@QEAAXAEAUtagVARIANT@@GAEAJ@Z 000000018002d2f0     OposVariant.obj
 0002:0000b2f0       $unwind$?SODirectIO@COPOSMSR@@MEAAJJPEAJPEAPEA_W@Z 000000018002d2f0     MSR.obj
 0002:0000b2f0       $unwind$?DoEvent@COPOSMSR@@IEAAXI_K_J@Z 000000018002d2f0     MSR.obj
 0002:0000b2f0       $unwind$?HKeyFromString@CRegParser@ATL@@KAPEAUHKEY__@@PEA_W@Z 000000018002d2f0     MSR.obj
 0002:0000b2f0       $unwind$__acrt_lowio_create_handle_array 000000018002d2f0     libucrt:osfinfo.obj
 0002:0000b2f0       $unwind$?CreateInstance@?$CComCreator@V?$CComObject@VCOPOSMSR@@@ATL@@@ATL@@SAJPEAXAEBU_GUID@@PEAPEAX@Z 000000018002d2f0     MSR.obj
 0002:0000b2f0       $unwind$?AtlWinModuleTerm@ATL@@YAJPEAU_ATL_WIN_MODULE70@1@PEAUHINSTANCE__@@@Z 000000018002d2f0     OposVariant.obj
 0002:0000b2f0       $unwind$?Is_bad_exception_allowed@@YAEPEBU_s_ESTypeList@@@Z 000000018002d2f0     libvcruntime:frame.obj
 0002:0000b2f0       $unwind$?Append@CParseBuffer@CRegParser@ATL@@QEAAHPEB_WH@Z 000000018002d2f0     MSR.obj
 0002:0000b2f0       $unwind$?GetHandlerSearchState@__FrameHandler3@@SAHPEA_KPEAU_xDISPATCHER_CONTEXT@@PEBU_s_FuncInfo@@@Z 000000018002d2f0     libvcruntime:frame.obj
 0002:0000b2f0       $unwind$__acrt_free_locale 000000018002d2f0     libucrt:locale_refcounting.obj
 0002:0000b2f0       $unwind$?Next@?$CComEnumImpl@UIEnumConnectionPoints@@$1?_GUID_b196b285_bab4_101a_b69c_00aa00341d07@@3U__s_GUID@@BPEAUIConnectionPoint@@V?$_CopyInterface@UIConnectionPoint@@@ATL@@@ATL@@UEAAJKPEAPEAUIConnectionPoint@@PEAK@Z 000000018002d2f0     MSR.obj
 0002:0000b2f0       $unwind$__scrt_dllmain_exception_filter 000000018002d2f0     LIBCMT:utility.obj
 0002:0000b2f0       $unwind$__acrt_execute_initializers 000000018002d2f0     libucrt:shared_initialization.obj
 0002:0000b2f0       $unwind$?expand_if_necessary@?$argument_list@D@?A0xca0879c4@@AEAAHXZ 000000018002d2f0     libucrt:argv_wildcards.obj
 0002:0000b2f0       $unwind$?setSBCS@@YAXPEAU__crt_multibyte_data@@@Z 000000018002d2f0     libucrt:mbctype.obj
 0002:0000b2f0       $unwind$?AtlWinModuleExtractCreateWndData@ATL@@YAPEAXPEAU_ATL_WIN_MODULE70@1@@Z 000000018002d2f0     MSR.obj
 0002:0000b2f0       $unwind$?Next@?$CComEnumImpl@UIEnumConnections@@$1?_GUID_b196b287_bab4_101a_b69c_00aa00341d07@@3U__s_GUID@@BUtagCONNECTDATA@@V?$_Copy@UtagCONNECTDATA@@@ATL@@@ATL@@UEAAJKPEAUtagCONNECTDATA@@PEAK@Z 000000018002d2f0     MSR.obj
 0002:0000b304       $unwind$??1?$CComEnumImpl@UIEnumConnections@@$1?_GUID_b196b287_bab4_101a_b69c_00aa00341d07@@3U__s_GUID@@BUtagCONNECTDATA@@V?$_Copy@UtagCONNECTDATA@@@ATL@@@ATL@@UEAA@XZ 000000018002d304     MSR.obj
 0002:0000b304       $unwind$_FindAndUnlinkFrame 000000018002d304     libvcruntime:risctrnsctrl.obj
 0002:0000b304       $unwind$??_G?$CComObject@VCOPOSMSR@@@ATL@@UEAAPEAXI@Z 000000018002d304     MSR.obj
 0002:0000b304       $unwind$?Release@?$CComObject@VCOPOSMSR@@@ATL@@UEAAKXZ 000000018002d304     MSR.obj
 0002:0000b304       $unwind$?replace_current_thread_locale_nolock@@YAXQEAU__acrt_ptd@@QEAU__crt_locale_data@@@Z 000000018002d304     libucrt:per_thread_data.obj
 0002:0000b304       $unwind$_close_nolock      000000018002d304     libucrt:close.obj
 0002:0000b304       $unwind$?Release@?$CComObject@V?$CComEnum@UIEnumConnections@@$1?_GUID_b196b287_bab4_101a_b69c_00aa00341d07@@3U__s_GUID@@BUtagCONNECTDATA@@V?$_Copy@UtagCONNECTDATA@@@ATL@@VCComSingleThreadModel@6@@ATL@@@ATL@@UEAAKXZ 000000018002d304     MSR.obj
 0002:0000b304       $unwind$??_G?$CComAggObject@VCOPOSMSR@@@ATL@@UEAAPEAXI@Z 000000018002d304     MSR.obj
 0002:0000b304       $unwind$??_G?$CComContainedObject@VCOPOSMSR@@@ATL@@UEAAPEAXI@Z 000000018002d304     MSR.obj
 0002:0000b304       $unwind$??0CAtlWinModule@ATL@@QEAA@XZ 000000018002d304     OposVariant.obj
 0002:0000b304       $unwind$??0?$CComContainedObject@VCOPOSMSR@@@ATL@@QEAA@PEAX@Z 000000018002d304     MSR.obj
 0002:0000b304       $unwind$?IsDirty@?$IPersistStorageImpl@VCOPOSMSR@@@ATL@@UEAAJXZ 000000018002d304     MSR.obj
 0002:0000b304       $unwind$__acrt_getptd      000000018002d304     libucrt:per_thread_data.obj
 0002:0000b304       $unwind$??$common_initialize_environment_nolock@D@@YAHXZ 000000018002d304     libucrt:environment_initialization.obj
 0002:0000b304       $unwind$?Release@?$CComAggObject@VCOPOSMSR@@@ATL@@UEAAKXZ 000000018002d304     MSR.obj
 0002:0000b304       $unwind$??_G?$CComObjectCached@VCComClassFactory@ATL@@@ATL@@UEAAPEAXI@Z 000000018002d304     MSR.obj
 0002:0000b304       $unwind$?DeleteSubKey@CRegKey@ATL@@QEAAJPEB_W@Z 000000018002d304     MSR.obj
 0002:0000b304       $unwind$?SetUnwindTryBlock@__FrameHandler3@@SAXPEA_KPEAU_xDISPATCHER_CONTEXT@@PEBU_s_FuncInfo@@H@Z 000000018002d304     libvcruntime:ehstate.obj
 0002:0000b304       $unwind$?SetVARIANT_BOOL@OposVariant@@QEAAXF@Z 000000018002d304     OposVariant.obj
 0002:0000b304       $unwind$??_G?$CComObject@V?$CComEnum@UIEnumConnectionPoints@@$1?_GUID_b196b285_bab4_101a_b69c_00aa00341d07@@3U__s_GUID@@BPEAUIConnectionPoint@@V?$_CopyInterface@UIConnectionPoint@@@ATL@@VCComSingleThreadModel@6@@ATL@@@ATL@@UEAAPEAXI@Z 000000018002d304     MSR.obj
 0002:0000b304       $unwind$?CreateInstance@?$CComObject@V?$CComEnum@UIEnumConnectionPoints@@$1?_GUID_b196b285_bab4_101a_b69c_00aa00341d07@@3U__s_GUID@@BPEAUIConnectionPoint@@V?$_CopyInterface@UIConnectionPoint@@@ATL@@VCComSingleThreadModel@6@@ATL@@@ATL@@SAJPEAPEAV12@@Z 000000018002d304     MSR.obj
 0002:0000b304       $unwind$?Release@?$CComObject@V?$CComEnum@UIEnumConnectionPoints@@$1?_GUID_b196b285_bab4_101a_b69c_00aa00341d07@@3U__s_GUID@@BPEAUIConnectionPoint@@V?$_CopyInterface@UIConnectionPoint@@@ATL@@VCComSingleThreadModel@6@@ATL@@@ATL@@UEAAKXZ 000000018002d304     MSR.obj
 0002:0000b304       $unwind$?CreateInstance@?$CComObject@V?$CComEnum@UIEnumConnections@@$1?_GUID_b196b287_bab4_101a_b69c_00aa00341d07@@3U__s_GUID@@BUtagCONNECTDATA@@V?$_Copy@UtagCONNECTDATA@@@ATL@@VCComSingleThreadModel@6@@ATL@@@ATL@@SAJPEAPEAV12@@Z 000000018002d304     MSR.obj
 0002:0000b304       $unwind$??0CAtlComModule@ATL@@QEAA@XZ 000000018002d304     OposVariant.obj
 0002:0000b304       $unwind$??_G?$CComObject@V?$CComEnum@UIEnumConnections@@$1?_GUID_b196b287_bab4_101a_b69c_00aa00341d07@@3U__s_GUID@@BUtagCONNECTDATA@@V?$_Copy@UtagCONNECTDATA@@@ATL@@VCComSingleThreadModel@6@@ATL@@@ATL@@UEAAPEAXI@Z 000000018002d304     MSR.obj
 0002:0000b304       $unwind$??0CAtlModule@ATL@@QEAA@XZ 000000018002d304     MSR.obj
 0002:0000b304       $unwind$__acrt_uninitialize_lowio 000000018002d304     libucrt:ioinit.obj
 0002:0000b304       $unwind$??1?$CComEnumImpl@UIEnumConnectionPoints@@$1?_GUID_b196b285_bab4_101a_b69c_00aa00341d07@@3U__s_GUID@@BPEAUIConnectionPoint@@V?$_CopyInterface@UIConnectionPoint@@@ATL@@@ATL@@UEAA@XZ 000000018002d304     MSR.obj
 0002:0000b304       $unwind$_updatetlocinfoEx_nolock 000000018002d304     libucrt:locale_refcounting.obj
 0002:0000b304       $unwind$?Term@CComModule@ATL@@QEAAXXZ 000000018002d304     MSR.obj
 0002:0000b304       $unwind$??_Gbad_exception@std@@UEAAPEAXI@Z 000000018002d304     libvcruntime:frame.obj
 0002:0000b304       $unwind$_realloc_base      000000018002d304     libucrt:realloc_base.obj
 0002:0000b304       $unwind$??1?$IConnectionPointImpl@VCOPOSMSR@@$1?IID_IPropertyNotifySink@@3U_GUID@@BVCComDynamicUnkArray@ATL@@@ATL@@QEAA@XZ 000000018002d304     MSRImpl.obj
 0002:0000b304       $unwind$??$GetProcAddressAll@P6AXPEAUAtlThunkData_t@@@Z@@YAP6AXPEAUAtlThunkData_t@@@ZPEAP6AX0@Z@Z 000000018002d304     atls:atlthunk.obj
 0002:0000b304       $unwind$__acrt_FlsAlloc    000000018002d304     libucrt:winapi_thunks.obj
 0002:0000b304       $unwind$??1?$IConnectionPointImpl@VCOPOSMSR@@$1?DIID__IOPOSMSREvents@@3U_GUID@@BVCComDynamicUnkArray@ATL@@@ATL@@QEAA@XZ 000000018002d304     MSRImpl.obj
 0002:0000b304       $unwind$??$GetProcAddressAll@P6AXPEAUAtlThunkData_t@@PEAX_K@Z@@YAP6AXPEAUAtlThunkData_t@@PEAX_K@ZPEAP6AX012@Z@Z 000000018002d304     atls:atlthunk.obj
 0002:0000b304       $unwind$?WriteToStream@CComBSTR@ATL@@QEAAJPEAUIStream@@@Z 000000018002d304     MSR.obj
 0002:0000b304       $unwind$DllMain            000000018002d304     MSR.obj
 0002:0000b304       $unwind$__acrt_FlsFree     000000018002d304     libucrt:winapi_thunks.obj
 0002:0000b304       $unwind$strncpy_s          000000018002d304     libucrt:strncpy_s.obj
 0002:0000b304       $unwind$?try_cor_exit_process@@YAXI@Z 000000018002d304     libucrt:exit.obj
 0002:0000b304       $unwind$?SetAdvise@?$IViewObjectExImpl@VCOPOSMSR@@@ATL@@UEAAJKKPEAUIAdviseSink@@@Z 000000018002d304     MSR.obj
 0002:0000b304       $unwind$?SOStatusUpdate@COPOSMSR@@MEAAJJ@Z 000000018002d304     MSR.obj
 0002:0000b304       $unwind$?SetLONG@OposVariant@@QEAAXJ@Z 000000018002d304     OposVariant.obj
 0002:0000b304       $unwind$?SOData@COPOSMSR@@MEAAJJ@Z 000000018002d304     MSR.obj
 0002:0000b304       $unwind$__acrt_FlsGetValue 000000018002d304     libucrt:winapi_thunks.obj
 0002:0000b304       $unwind$??$GetProcAddressAll@P6APEAUAtlThunkData_t@@XZ@@YAP6APEAUAtlThunkData_t@@XZPEAP6APEAU0@XZ@Z 000000018002d304     atls:atlthunk.obj
 0002:0000b304       $unwind$??$GetProcAddressAll@P6AP6A_JPEAUHWND__@@I_K_J@ZPEAUAtlThunkData_t@@@Z@@YAP6AP6A_JPEAUHWND__@@I_K_J@ZPEAUAtlThunkData_t@@@ZPEAP6AP6A_J0I12@Z3@Z@Z 000000018002d304     atls:atlthunk.obj
 0002:0000b304       $unwind$?__AllocStdCallThunk_cmn@@YAPEAXXZ 000000018002d304     atls:atlthunk.obj
 0002:0000b304       $unwind$??_GCComClassFactory@ATL@@UEAAPEAXI@Z 000000018002d304     MSR.obj
 0002:0000b304       $unwind$?__InitializeThunkPool@@YAHXZ 000000018002d304     atls:atlthunk.obj
 0002:0000b304       $unwind$AtlThunk_DataToCode 000000018002d304     atls:atlthunk.obj
 0002:0000b304       $unwind$?InitNew@?$IPersistStorageImpl@VCOPOSMSR@@@ATL@@UEAAJPEAUIStorage@@@Z 000000018002d304     MSR.obj
 0002:0000b304       $unwind$_callnewh          000000018002d304     libucrt:new_handler.obj
 0002:0000b304       $unwind$__acrt_errno_map_os_error 000000018002d304     libucrt:errno.obj
 0002:0000b304       $unwind$??_Gbad_array_new_length@std@@UEAAPEAXI@Z 000000018002d304     LIBCMT:throw_bad_alloc.obj
 0002:0000b304       $unwind$_RTC_Initialize    000000018002d304     LIBCMT:initsect.obj
 0002:0000b304       $unwind$__acrt_SetThreadStackGuarantee 000000018002d304     libucrt:winapi_thunks.obj
 0002:0000b304       $unwind$wcsncpy_s          000000018002d304     libucrt:wcsncpy_s.obj
 0002:0000b304       $unwind$_RTC_Terminate     000000018002d304     LIBCMT:initsect.obj
 0002:0000b304       $unwind$??0CAtlBaseModule@ATL@@QEAA@XZ 000000018002d304     atls:atlbase.obj
 0002:0000b304       $unwind$?internal_isupper_l@@YA_NHQEAU__crt_locale_pointers@@@Z 000000018002d304     libucrt:tolower_toupper.obj
 0002:0000b304       $unwind$??0_LocaleUpdate@@QEAA@QEAU__crt_locale_pointers@@@Z 000000018002d304     libucrt:output.obj
 0002:0000b304       $unwind$??_Gexception@std@@UEAAPEAXI@Z 000000018002d304     LIBCMT:throw_bad_alloc.obj
 0002:0000b304       $unwind$__vcrt_FlsSetValue 000000018002d304     libvcruntime:winapi_downlevel.obj
 0002:0000b304       $unwind$?force_decimal_point@__crt_stdio_output@@YAXPEADQEAU__crt_locale_pointers@@@Z 000000018002d304     libucrt:output.obj
 0002:0000b304       $unwind$?IOleObject_SetClientSite@CComControlBase@ATL@@QEAAJPEAUIOleClientSite@@@Z 000000018002d304     MSR.obj
 0002:0000b304       $unwind$_fclose_nolock     000000018002d304     libucrt:fclose.obj
 0002:0000b304       $unwind$??_Gbad_alloc@std@@UEAAPEAXI@Z 000000018002d304     LIBCMT:throw_bad_alloc.obj
 0002:0000b304       $unwind$?SetBSTR@OposVariant@@QEAAXPEA_WAEAJ@Z 000000018002d304     OposVariant.obj
 0002:0000b304       $unwind$__acrt_invoke_user_matherr 000000018002d304     libucrt:matherr.obj
 0002:0000b310       $unwind$?CatchTryBlock@__FrameHandler3@@SAPEBU_s_TryBlockMapEntry@@PEBU_s_FuncInfo@@H@Z 000000018002d310     libvcruntime:risctrnsctrl.obj
 0002:0000b310       $unwind$__acrt_execute_uninitializers 000000018002d310     libucrt:shared_initialization.obj
 0002:0000b310       $unwind$?Term@CAtlComModule@ATL@@QEAAXXZ 000000018002d310     OposVariant.obj
 0002:0000b310       $unwind$??_GCRegObject@ATL@@UEAAPEAXI@Z 000000018002d310     MSR.obj
 0002:0000b310       $unwind$?SetDispatch_Ptr@OposVariant@@QEAAXPEAUIDispatch@@AEAJ@Z 000000018002d310     OposVariant.obj
 0002:0000b310       $unwind$?FrameUnwindToEmptyState@__FrameHandler3@@SAXPEA_KPEAU_xDISPATCHER_CONTEXT@@PEBU_s_FuncInfo@@@Z 000000018002d310     libvcruntime:risctrnsctrl.obj
 0002:0000b310       $unwind$__acrt_stdio_flush_nolock 000000018002d310     libucrt:fflush.obj
 0002:0000b310       $unwind$?VTFromRegType@CRegParser@ATL@@KAHPEB_WAEAG@Z 000000018002d310     MSR.obj
 0002:0000b310       $unwind$??R<lambda_ad1ced32f4ac17aa236e5ef05d6b3b7c>@@QEBAXXZ 000000018002d310     libucrt:mbctype.obj
 0002:0000b310       $unwind$?AtlCallTermFunc@ATL@@YAXPEAU_ATL_MODULE70@1@@Z 000000018002d310     MSR.obj
 0002:0000b310       $unwind$memcpy_s           000000018002d310     MSR.obj
 0002:0000b310       $unwind$__acrt_getptd_noexit 000000018002d310     libucrt:per_thread_data.obj
 0002:0000b310       $unwind$?SetBSTR_InOutPtr@OposVariant@@QEAA_NPEAPEA_WAEAJ@Z 000000018002d310     OposVariant.obj
 0002:0000b310       $unwind$__acrt_FlsSetValue 000000018002d310     libucrt:winapi_thunks.obj
 0002:0000b310       $unwind$__vcrt_InitializeCriticalSectionEx 000000018002d310     libvcruntime:winapi_downlevel.obj
 0002:0000b310       $unwind$?Advise@?$IOleObjectImpl@VCOPOSMSR@@@ATL@@UEAAJPEAUIAdviseSink@@PEAK@Z 000000018002d310     MSR.obj
 0002:0000b310       $unwind$?type_case_Z@?$output_processor@_WV?$string_output_adapter@_W@__crt_stdio_output@@V?$format_validation_base@_WV?$string_output_adapter@_W@__crt_stdio_output@@@2@@__crt_stdio_output@@AEAA_NXZ 000000018002d310     libucrt:output.obj
 0002:0000b310       $unwind$?type_case_s@?$output_processor@_WV?$string_output_adapter@_W@__crt_stdio_output@@V?$format_validation_base@_WV?$string_output_adapter@_W@__crt_stdio_output@@@2@@__crt_stdio_output@@AEAA_NXZ 000000018002d310     libucrt:output.obj
 0002:0000b310       $unwind$??$common_lseek_nolock@_J@@YA_JH_JH@Z 000000018002d310     libucrt:lseek.obj
 0002:0000b310       $unwind$?Add@?$CSimpleArray@GV?$CSimpleArrayEqualHelper@G@ATL@@@ATL@@QEAAHAEBG@Z 000000018002d310     MSR.obj
 0002:0000b310       $unwind$__acrt_LocaleNameToLCID 000000018002d310     libucrt:winapi_thunks.obj
 0002:0000b310       $unwind$?SetBSTR_Copy@OposVariant@@QEAAXPEA_WAEAJ@Z 000000018002d310     OposVariant.obj
 0002:0000b310       $unwind$?free_crt_array_internal@@YAXQEAPEBX_K@Z 000000018002d310     libucrt:inittime.obj
 0002:0000b310       $unwind$_exception_enabled 000000018002d310     libucrt:libm_error.obj
 0002:0000b310       $unwind$_DllMainCRTStartup 000000018002d310     LIBCMT:dll_dllmain.obj
 0002:0000b310       $unwind$?type_case_n@?$output_processor@_WV?$string_output_adapter@_W@__crt_stdio_output@@V?$format_validation_base@_WV?$string_output_adapter@_W@__crt_stdio_output@@@2@@__crt_stdio_output@@AEAA_NXZ 000000018002d310     libucrt:output.obj
 0002:0000b310       $unwind$??0OposDispParms@@QEAA@PEAVOposVariant@@H@Z 000000018002d310     OposVariant.obj
 0002:0000b310       $unwind$__vcrt_getptd_noexit 000000018002d310     libvcruntime:per_thread_data.obj
 0002:0000b310       $unwind$?SetString@OposVariant@@QEAAXPEB_WAEAJ@Z 000000018002d310     OposVariant.obj
 0002:0000b310       $unwind$?RegisterServer@CComModule@ATL@@QEAAJHPEBU_GUID@@@Z 000000018002d310     MSR.obj
 0002:0000b310       $unwind$_initterm_e        000000018002d310     libucrt:initterm.obj
 0002:0000b310       $unwind$?ClearReplacements@CExpansionVector@ATL@@QEAAJXZ 000000018002d310     MSR.obj
 0002:0000b310       $unwind$?UnregisterServer@CComModule@ATL@@QEAAJHPEBU_GUID@@@Z 000000018002d310     MSR.obj
 0002:0000b310       $unwind$?Add@?$CSimpleMap@PEA_WPEA_WVCExpansionVectorEqualHelper@ATL@@@ATL@@QEAAHAEBQEA_W0@Z 000000018002d310     MSR.obj
 0002:0000b310       $unwind$memcpy_s           000000018002d310     libucrt:cfout.obj
 0002:0000b310       $unwind$??_GCComModule@ATL@@UEAAPEAXI@Z 000000018002d310     MSR.obj
 0002:0000b310       $unwind$?SetLONG_Ptr@OposVariant@@QEAAXPEAJAEAJ@Z 000000018002d310     OposVariant.obj
 0002:0000b320       $unwind$?ChangeLONG@OposVariant@@QEAAXPEAJAEAJ@Z 000000018002d320     OposVariant.obj
 0002:0000b320       $unwind$?x_ismbbtype_l@@YAHPEAU__crt_locale_pointers@@IHH@Z 000000018002d320     libucrt:ismbbyte.obj
 0002:0000b320       $unwind$?ChangeBSTR@OposVariant@@QEAAXPEAPEA_WAEAJ@Z 000000018002d320     OposVariant.obj
 0002:0000b330       $unwind$swprintf_s         000000018002d330     MSR.obj
 0002:0000b340       $unwind$?_AtlVerifyStackAvailable@_ATL_SAFE_ALLOCA_IMPL@ATL@@YA_N_K@Z 000000018002d340     MSR.obj
 0002:0000b36c       $unwind$?fin$0@?0??dllmain_crt_process_detach@@YAH_N@Z@4HA 000000018002d36c     LIBCMT:dll_dllmain.obj
 0002:0000b36c       $unwind$?fin$0@?0??dllmain_crt_process_attach@@YAHQEAUHINSTANCE__@@QEAX@Z@4HA 000000018002d36c     LIBCMT:dll_dllmain.obj
 0002:0000b36c       $unwind$_query_new_handler$fin$0 000000018002d36c     libucrt:new_handler.obj
 0002:0000b36c       $unwind$?fin$0@?0???$?RV<lambda_b521505b218e5242e90febf6bfebc422>@@AEAV<lambda_6978c1fb23f02e42e1d9e99668cc68aa>@@V<lambda_314360699dd331753a4119843814e9a7>@@@?$__crt_seh_guarded_call@H@@QEAAH$$QEAV<lambda_b521505b218e5242e90febf6bfebc422>@@AEAV<lambda_6978c1fb23f02e42e1d9e99668cc68aa>@@$$QEAV<lambda_314360699dd331753a4119843814e9a7>@@@Z@4HA 000000018002d36c     libucrt:commit.obj
 0002:0000b36c       $unwind$?fin$1@?0??FrameUnwindToState@__FrameHandler3@@SAXPEA_KPEAU_xDISPATCHER_CONTEXT@@PEBU_s_FuncInfo@@H@Z@4HA 000000018002d36c     libvcruntime:frame.obj
 0002:0000b36c       $unwind$__acrt_update_thread_locale_data$fin$0 000000018002d36c     libucrt:locale_refcounting.obj
 0002:0000b36c       $unwind$common_control87$filt$0 000000018002d36c     libucrt:ieee.obj
 0002:0000b36c       $unwind$?filt$0@?0??FrameUnwindToState@__FrameHandler3@@SAXPEA_KPEAU_xDISPATCHER_CONTEXT@@PEBU_s_FuncInfo@@H@Z@4HA 000000018002d36c     libvcruntime:frame.obj
 0002:0000b36c       $unwind$__acrt_lowio_ensure_fh_exists$fin$0 000000018002d36c     libucrt:osfinfo.obj
 0002:0000b36c       $unwind$fclose$fin$0       000000018002d36c     libucrt:fclose.obj
 0002:0000b36c       $unwind$__acrt_uninitialize_locale$fin$0 000000018002d36c     libucrt:wsetlocale.obj
 0002:0000b36c       $unwind$?filt$0@?0??_AtlVerifyStackAvailable@_ATL_SAFE_ALLOCA_IMPL@ATL@@YA_N_K@Z@4HA 000000018002d36c     MSR.obj
 0002:0000b36c       $unwind$__acrt_initialize_lowio$fin$0 000000018002d36c     libucrt:ioinit.obj
 0002:0000b36c       $unwind$?filt$0@?0??common_exit@@YAXHW4_crt_exit_cleanup_mode@@W4_crt_exit_return_mode@@@Z@4HA 000000018002d36c     libucrt:exit.obj
 0002:0000b36c       $unwind$?filt$0@?0??CxxCallCatchBlock@__FrameHandler3@@SAPEAXPEAU_EXCEPTION_RECORD@@@Z@4HA 000000018002d36c     libvcruntime:frame.obj
 0002:0000b36c       $unwind$?fin$0@?0???$?RV<lambda_e24bbb7b643b32fcea6fa61b31d4c984>@@AEAV<lambda_275893d493268fdec8709772e3fcec0e>@@V<lambda_9d71df4d7cf3f480f8d633942495c3b0>@@@?$__crt_seh_guarded_call@H@@QEAAH$$QEAV<lambda_e24bbb7b643b32fcea6fa61b31d4c984>@@AEAV<lambda_275893d493268fdec8709772e3fcec0e>@@$$QEAV<lambda_9d71df4d7cf3f480f8d633942495c3b0>@@@Z@4HA 000000018002d36c     libucrt:onexit.obj
 0002:0000b36c       $unwind$__acrt_update_thread_multibyte_data$fin$0 000000018002d36c     libucrt:mbctype.obj
 0002:0000b36c       $unwind$?fin$0@?0???$?RV<lambda_bfedae4ebbf01fab1bb6dcc6a9e276e0>@@AEAV<lambda_2fe9b910cf3cbf4a0ab98a02ba45b3ec>@@V<lambda_237c231691f317818eb88cc1d5d642d6>@@@?$__crt_seh_guarded_call@H@@QEAAH$$QEAV<lambda_bfedae4ebbf01fab1bb6dcc6a9e276e0>@@AEAV<lambda_2fe9b910cf3cbf4a0ab98a02ba45b3ec>@@$$QEAV<lambda_237c231691f317818eb88cc1d5d642d6>@@@Z@4HA 000000018002d36c     libucrt:close.obj
 0002:0000b36c       $unwind$_write$fin$0       000000018002d36c     libucrt:write.obj
 0002:0000b36c       $unwind$_fcloseall$fin$0   000000018002d36c     libucrt:closeall.obj
 0002:0000b36c       $unwind$?fin$0@?0???$?RV<lambda_c36588078e9f5dfd39652860aa6b3aaf>@@AEAV<lambda_ec61778202f4f5fc7e7711acc23c3bca>@@V<lambda_dc9d2797ccde5d239b4a0efae8ebd7db>@@@?$__crt_seh_guarded_call@P6AXH@Z@@QEAAP6AXH@Z$$QEAV<lambda_c36588078e9f5dfd39652860aa6b3aaf>@@AEAV<lambda_ec61778202f4f5fc7e7711acc23c3bca>@@$$QEAV<lambda_dc9d2797ccde5d239b4a0efae8ebd7db>@@@Z@4HA 000000018002d36c     libucrt:signal.obj
 0002:0000b36c       $unwind$?fin$0@?0???$?RV<lambda_99476a1ad63dd22509b5d3e65b0ffc95>@@AEAV<lambda_ad1ced32f4ac17aa236e5ef05d6b3b7c>@@V<lambda_f7424dd8d45958661754dc4f2697e9c3>@@@?$__crt_seh_guarded_call@X@@QEAAX$$QEAV<lambda_99476a1ad63dd22509b5d3e65b0ffc95>@@AEAV<lambda_ad1ced32f4ac17aa236e5ef05d6b3b7c>@@$$QEAV<lambda_f7424dd8d45958661754dc4f2697e9c3>@@@Z@4HA 000000018002d36c     libucrt:mbctype.obj
 0002:0000b36c       $unwind$?fin$0@?0???$?RV<lambda_46352004c1216016012b18bd6f87e700>@@AEAV<lambda_3bd07e1a1191394380780325891bf33f>@@V<lambda_334532d3f185bcaa59b5be82d7d22bff>@@@?$__crt_seh_guarded_call@X@@QEAAX$$QEAV<lambda_46352004c1216016012b18bd6f87e700>@@AEAV<lambda_3bd07e1a1191394380780325891bf33f>@@$$QEAV<lambda_334532d3f185bcaa59b5be82d7d22bff>@@@Z@4HA 000000018002d36c     libucrt:per_thread_data.obj
 0002:0000b36c       $unwind$_IsNonwritableInCurrentImage$filt$0 000000018002d36c     LIBCMT:pesect.obj
 0002:0000b36c       $unwind$?fin$0@?0???$?RV<lambda_b8c45f8f788dd370798f47cfe8ac3a86>@@AEAV<lambda_4e60a939b0d047cfe11ddc22648dfba9>@@V<lambda_332c3edc96d0294ec56c57d38c1cdfd5>@@@?$__crt_seh_guarded_call@H@@QEAAH$$QEAV<lambda_b8c45f8f788dd370798f47cfe8ac3a86>@@AEAV<lambda_4e60a939b0d047cfe11ddc22648dfba9>@@$$QEAV<lambda_332c3edc96d0294ec56c57d38c1cdfd5>@@@Z@4HA 000000018002d36c     libucrt:onexit.obj
 0002:0000b36c       $unwind$?fin$1@?0??common_exit@@YAXHW4_crt_exit_cleanup_mode@@W4_crt_exit_return_mode@@@Z@4HA 000000018002d36c     libucrt:exit.obj
 0002:0000b36c       $unwind$raise$fin$0        000000018002d36c     libucrt:signal.obj
 0002:0000b36c       $unwind$?fin$0@?0???$?RV<lambda_5e887d1dcbef67a5eb4283622ba103bf>@@AEAV<lambda_4466841279450cc726390878d4a41900>@@V<lambda_341c25c0346d94847f1f3c463c57e077>@@@?$__crt_seh_guarded_call@X@@QEAAX$$QEAV<lambda_5e887d1dcbef67a5eb4283622ba103bf>@@AEAV<lambda_4466841279450cc726390878d4a41900>@@$$QEAV<lambda_341c25c0346d94847f1f3c463c57e077>@@@Z@4HA 000000018002d36c     libucrt:per_thread_data.obj
 0002:0000b36c       $unwind$common_flush_all$fin$0 000000018002d36c     libucrt:fflush.obj
 0002:0000b36c       $unwind$?fin$0@?0???$?RV<lambda_fb3a7dec4e47f37f22dae91bb15c9095>@@AEAV<lambda_698284760c8add0bfb0756c19673e34b>@@V<lambda_dfb8eca1e75fef3034a8fb18dd509707>@@@?$__crt_seh_guarded_call@X@@QEAAX$$QEAV<lambda_fb3a7dec4e47f37f22dae91bb15c9095>@@AEAV<lambda_698284760c8add0bfb0756c19673e34b>@@$$QEAV<lambda_dfb8eca1e75fef3034a8fb18dd509707>@@@Z@4HA 000000018002d36c     libucrt:per_thread_data.obj
 0002:0000b36c       $unwind$?fin$0@?0???$?RV<lambda_72d1df2b273a38828b1ce30cbf4cdab5>@@AEAV<lambda_876a65b173b8412d3a47c70a915b0cf4>@@V<lambda_41932305e351933ebe8f8be3ed8bb5dc>@@@?$__crt_seh_guarded_call@X@@QEAAX$$QEAV<lambda_72d1df2b273a38828b1ce30cbf4cdab5>@@AEAV<lambda_876a65b173b8412d3a47c70a915b0cf4>@@$$QEAV<lambda_41932305e351933ebe8f8be3ed8bb5dc>@@@Z@4HA 000000018002d36c     libucrt:per_thread_data.obj
 0002:0000b36c       $unwind$common_flush_all$fin$1 000000018002d36c     libucrt:fflush.obj
 0002:0000b36c       $unwind$_ctrlfp$filt$0     000000018002d36c     libucrt:fpctrl.obj
 0002:0000b36c       $unwind$__DestructExceptionObject$filt$0 000000018002d36c     libvcruntime:ehhelpers.obj
 0002:0000b374       $unwind$?AtlInternalOleLoadFromStream@ATL@@YAJPEAUIStream@@AEBU_GUID@@PEAPEAXTClassesAllowedInStream@1@K@Z 000000018002d374     MSR.obj
 0002:0000b390       $unwind$?Close@COPOSMSR@@UEAAJPEAJ@Z 000000018002d390     MSRImpl.obj
 0002:0000b390       $unwind$?PutProperty@?$CComPtr@UIDispatch@@@ATL@@SAJPEAUIDispatch@@JPEAUtagVARIANT@@@Z 000000018002d390     MSR.obj
 0002:0000b39c       $unwind$?ReadFromStream@CComBSTR@ATL@@QEAAJPEAUIStream@@@Z 000000018002d39c     MSR.obj
 0002:0000b39c       $unwind$_configure_narrow_argv 000000018002d39c     libucrt:argv_parsing.obj
 0002:0000b3b0       $unwind$?WriteToStream@CComVariant@ATL@@QEAAJPEAUIStream@@@Z 000000018002d3b0     MSR.obj
 0002:0000b3c4       $unwind$?WriteToStream@CComVariant@ATL@@QEAAJPEAUIStream@@G@Z 000000018002d3c4     MSR.obj
 0002:0000b3c4       $unwind$?RegOpenKeyExW@CAtlTransactionManager@ATL@@QEAAJPEAUHKEY__@@PEB_WKKPEAPEAU3@@Z 000000018002d3c4     MSR.obj
 0002:0000b3d8       $unwind$?ReadFromStream@CComVariant@ATL@@QEAAJPEAUIStream@@GTClassesAllowedInStream@2@K@Z 000000018002d3d8     MSR.obj
 0002:0000b3f0       $unwind$?GetSizeMax@CComVariant@ATL@@QEBAJPEAT_ULARGE_INTEGER@@@Z 000000018002d3f0     MSR.obj
 0002:0000b408       $unwind$?RegCreateKeyExW@CAtlTransactionManager@ATL@@QEAAJPEAUHKEY__@@PEB_WKPEA_WKKQEAU_SECURITY_ATTRIBUTES@@PEAPEAU3@PEAK@Z 000000018002d408     MSR.obj
 0002:0000b41c       $unwind$?GetGITPtr@CAtlModule@ATL@@UEAAJPEAPEAUIGlobalInterfaceTable@@@Z 000000018002d41c     MSR.obj
 0002:0000b41c       $unwind$?RegDeleteKeyW@CAtlTransactionManager@ATL@@QEAAJPEAUHKEY__@@PEB_W@Z 000000018002d41c     MSR.obj
 0002:0000b42c       $unwind$?AtlHiMetricToPixel@ATL@@YAXPEBUtagSIZE@@PEAU2@@Z 000000018002d42c     MSR.obj
 0002:0000b42c       $unwind$?AtlInternalQueryInterface@ATL@@YAJPEAXPEBU_ATL_INTMAP_ENTRY@1@AEBU_GUID@@PEAPEAX@Z 000000018002d42c     MSR.obj
 0002:0000b444       $unwind$?GetClassObject@CComModule@ATL@@QEAAJAEBU_GUID@@0PEAPEAX@Z 000000018002d444     MSR.obj
 0002:0000b444       $unwind$?Init@?$CComEnumImpl@UIEnumConnections@@$1?_GUID_b196b287_bab4_101a_b69c_00aa00341d07@@3U__s_GUID@@BUtagCONNECTDATA@@V?$_Copy@UtagCONNECTDATA@@@ATL@@@ATL@@QEAAJPEAUtagCONNECTDATA@@0PEAUIUnknown@@W4CComEnumFlags@2@@Z 000000018002d444     MSR.obj
 0002:0000b444       $unwind$?CreateInstance@?$CComCreator@V?$CComObjectCached@VCComClassFactory@ATL@@@ATL@@@ATL@@SAJPEAXAEBU_GUID@@PEAPEAX@Z 000000018002d444     MSR.obj
 0002:0000b444       $unwind$?NextToken@CRegParser@ATL@@IEAAJPEA_W@Z 000000018002d444     MSR.obj
 0002:0000b444       $unwind$?AtlComModuleGetClassObject@ATL@@YAJPEAU_ATL_COM_MODULE70@1@AEBU_GUID@@1PEAPEAX@Z 000000018002d444     MSR.obj
 0002:0000b444       $unwind$?Init@?$CComEnumImpl@UIEnumConnectionPoints@@$1?_GUID_b196b285_bab4_101a_b69c_00aa00341d07@@3U__s_GUID@@BPEAUIConnectionPoint@@V?$_CopyInterface@UIConnectionPoint@@@ATL@@@ATL@@QEAAJPEAPEAUIConnectionPoint@@0PEAUIUnknown@@W4CComEnumFlags@2@@Z 000000018002d444     MSR.obj
 0002:0000b45c       $unwind$?AtlRegisterClassCategoriesHelper@ATL@@YAJAEBU_GUID@@PEBU_ATL_CATMAP_ENTRY@1@H@Z 000000018002d45c     MSR.obj
 0002:0000b480       $unwind$?AtlLoadTypeLib@ATL@@YAJPEAUHINSTANCE__@@PEB_WPEAPEA_WPEAPEAUITypeLib@@@Z 000000018002d480     MSR.obj
 0002:0000b4a0       $unwind$?AtlRegisterTypeLib@ATL@@YAJPEAUHINSTANCE__@@PEB_W@Z 000000018002d4a0     MSR.obj
 0002:0000b4bc       $unwind$?AtlUnRegisterTypeLib@ATL@@YAJPEAUHINSTANCE__@@PEB_W@Z 000000018002d4bc     MSR.obj
 0002:0000b4c4       $unwind$?atlCreate@CRegKey@ATL@@QEAAJPEAUHKEY__@@PEB_WPEA_WKKPEAU_SECURITY_ATTRIBUTES@@PEAK@Z 000000018002d4c4     MSR.obj
 0002:0000b4d0       $unwind$?Open@CRegKey@ATL@@QEAAJPEAUHKEY__@@PEB_WK@Z 000000018002d4d0     MSR.obj
 0002:0000b4dc       $unwind$?RecurseDeleteKey@CRegKey@ATL@@QEAAJPEB_W@Z 000000018002d4dc     MSR.obj
 0002:0000b4f8       $unwind$?UpdateRegistryFromResource@CAtlModule@ATL@@QEAAJIHPEAU_ATL_REGMAP_ENTRY@2@@Z 000000018002d4f8     MSR.obj
 0002:0000b4f8       $unwind$?UpdateRegistryFromResource@CAtlModule@ATL@@QEAAJPEB_WHPEAU_ATL_REGMAP_ENTRY@2@@Z 000000018002d4f8     MSR.obj
 0002:0000b518       $unwind$?Lookup@?$CSimpleMap@PEA_WPEA_WVCExpansionVectorEqualHelper@ATL@@@ATL@@QEBAPEA_WAEBQEA_W@Z 000000018002d518     MSR.obj
 0002:0000b518       $unwind$__std_exception_copy 000000018002d518     libvcruntime:std_exception.obj
 0002:0000b518       $unwind$_free_osfhnd       000000018002d518     libucrt:osfinfo.obj
 0002:0000b518       $unwind$?initialize_stdio_handles_nolock@@YAXXZ 000000018002d518     libucrt:ioinit.obj
 0002:0000b52c       $unwind$?Add@CExpansionVector@ATL@@QEAAHPEB_W0@Z 000000018002d52c     MSR.obj
 0002:0000b544       $unwind$?PreProcessBuffer@CRegParser@ATL@@QEAAJPEA_WPEAPEA_W@Z 000000018002d544     MSR.obj
 0002:0000b568       $unwind$?RegisterBuffer@CRegParser@ATL@@QEAAJPEA_WH@Z 000000018002d568     MSR.obj
 0002:0000b588       $unwind$?AddValue@CRegParser@ATL@@IEAAJAEAVCRegKey@2@PEB_WPEA_W@Z 000000018002d588     MSR.obj
 0002:0000b5a8       $unwind$?RegisterSubkeys@CRegParser@ATL@@IEAAJPEA_WPEAUHKEY__@@HH@Z 000000018002d5a8     MSR.obj
 0002:0000b5c8       $unwind$?SkipAssignment@CRegParser@ATL@@IEAAJPEA_W@Z 000000018002d5c8     MSR.obj
 0002:0000b5e0       $unwind$?RegisterFromResource@CRegObject@ATL@@IEAAJPEB_W00H@Z 000000018002d5e0     MSR.obj
 0002:0000b600       $unwind$?AtlIPersistStreamInit_Load@ATL@@YAJPEAUIStream@@PEBUATL_PROPMAP_ENTRY@1@PEAXPEAUIUnknown@@@Z 000000018002d600     MSR.obj
 0002:0000b618       $unwind$?AtlIPersistStreamInit_Save@ATL@@YAJPEAUIStream@@HPEBUATL_PROPMAP_ENTRY@1@PEAXPEAUIUnknown@@@Z 000000018002d618     MSR.obj
 0002:0000b634       $unwind$?GetTI@CComTypeInfoHolder@ATL@@QEAAJK@Z 000000018002d634     MSR.obj
 0002:0000b654       $unwind$__acrt_locale_free_lc_time_if_unreferenced 000000018002d654     libucrt:locale_refcounting.obj
 0002:0000b654       $unwind$?Cleanup@CComTypeInfoHolder@ATL@@SAX_K@Z 000000018002d654     MSR.obj
 0002:0000b654       $unwind$?destroy_fls@@YAXPEAX@Z 000000018002d654     libucrt:per_thread_data.obj
 0002:0000b654       $unwind$AtlThunk_FreeData  000000018002d654     atls:atlthunk.obj
 0002:0000b654       $unwind$_free_base         000000018002d654     libucrt:free_base.obj
 0002:0000b654       $unwind$__acrt_locale_free_numeric 000000018002d654     libucrt:initnum.obj
 0002:0000b65c       $unwind$?GetIDsOfNames@CComTypeInfoHolder@ATL@@QEAAJAEBU_GUID@@PEAPEA_WIKPEAJ@Z 000000018002d65c     MSR.obj
 0002:0000b678       $unwind$?LoadNameCache@CComTypeInfoHolder@ATL@@QEAAJPEAUITypeInfo@@@Z 000000018002d678     MSR.obj
 0002:0000b68c       $unwind$??R<lambda_4e60a939b0d047cfe11ddc22648dfba9>@@QEBAHXZ 000000018002d68c     libucrt:onexit.obj
 0002:0000b68c       $unwind$?StartWindowProc@?$CWindowImplBaseT@VCWindow@ATL@@V?$CWinTraits@$0FGAAAAAA@$0A@@2@@ATL@@SA_JPEAUHWND__@@I_K_J@Z 000000018002d68c     MSR.obj
 0002:0000b68c       $unwind$??$parse_command_line@D@@YAXPEADPEAPEAD0PEA_K2@Z 000000018002d68c     libucrt:argv_parsing.obj
 0002:0000b6a8       $unwind$?WindowProc@?$CWindowImplBaseT@VCWindow@ATL@@V?$CWinTraits@$0FGAAAAAA@$0A@@2@@ATL@@SA_JPEAUHWND__@@I_K_J@Z 000000018002d6a8     MSR.obj
 0002:0000b6c0       $unwind$?atlCreate@?$CWindowImplBaseT@VCWindow@ATL@@V?$CWinTraits@$0FGAAAAAA@$0A@@2@@ATL@@QEAAPEAUHWND__@@PEAU3@V_U_RECT@2@PEB_WKKV_U_MENUorID@2@GPEAX@Z 000000018002d6c0     MSR.obj
 0002:0000b6d8       $unwind$??$AtlModuleRegisterWndClassInfoT@VAtlModuleRegisterWndClassInfoParamW@ATL@@@ATL@@YAGPEAU_ATL_BASE_MODULE70@0@PEAU_ATL_WIN_MODULE70@0@PEAU_ATL_WNDCLASSINFOW@0@PEAP6A_JPEAUHWND__@@I_K_J@ZVAtlModuleRegisterWndClassInfoParamW@0@@Z 000000018002d6d8     MSR.obj
 0002:0000b6f8       $unwind$iswctype           000000018002d6f8     libucrt:iswctype.obj
 0002:0000b6f8       $unwind$?OnKillFocus@CComControlBase@ATL@@QEAA_JI_K_JAEAH@Z 000000018002d6f8     MSR.obj
 0002:0000b6f8       $unwind$?GetZoomInfo@CComControlBase@ATL@@QEAAXAEAUATL_DRAWINFO@@@Z 000000018002d6f8     MSR.obj
 0002:0000b6f8       $unwind$__acrt_is_packaged_app 000000018002d6f8     libucrt:winapi_thunks.obj
 0002:0000b704       $unwind$?SendOnDataChange@CComControlBase@ATL@@QEAAJK@Z 000000018002d704     MSR.obj
 0002:0000b714       $unwind$?OnSetFocus@CComControlBase@ATL@@QEAA_JI_K_JAEAH@Z 000000018002d714     MSR.obj
 0002:0000b724       $unwind$?OnMouseActivate@CComControlBase@ATL@@QEAA_JI_K_JAEAH@Z 000000018002d724     MSR.obj
 0002:0000b72c       $unwind$?GetAmbientLocaleID@CComControlBase@ATL@@QEAAJAEAK@Z 000000018002d72c     MSR.obj
 0002:0000b73c       $unwind$?GetAmbientUserMode@CComControlBase@ATL@@QEAAJAEAH@Z 000000018002d73c     MSR.obj
 0002:0000b750       $unwind$?IQuickActivate_QuickActivate@CComControlBase@ATL@@QEAAJPEAUtagQACONTAINER@@PEAUtagQACONTROL@@@Z 000000018002d750     MSR.obj
 0002:0000b768       $unwind$?DoVerbProperties@CComControlBase@ATL@@QEAAJPEBUtagRECT@@PEAUHWND__@@@Z 000000018002d768     MSR.obj
 0002:0000b780       $unwind$?InPlaceActivate@CComControlBase@ATL@@QEAAJJPEBUtagRECT@@@Z 000000018002d780     MSR.obj
 0002:0000b7a0       $unwind$?type_case_c_tchar@?$output_processor@_WV?$string_output_adapter@_W@__crt_stdio_output@@V?$format_validation_base@_WV?$string_output_adapter@_W@__crt_stdio_output@@@2@@__crt_stdio_output@@AEAA_N_W@Z 000000018002d7a0     libucrt:output.obj
 0002:0000b7a0       $unwind$?IOleObject_Close@CComControlBase@ATL@@QEAAJK@Z 000000018002d7a0     MSR.obj
 0002:0000b7b0       $unwind$?IOleInPlaceObject_UIDeactivate@CComControlBase@ATL@@QEAAJXZ 000000018002d7b0     MSR.obj
 0002:0000b7c8       $unwind$?IOleInPlaceObject_SetObjectRects@CComControlBase@ATL@@QEAAJPEBUtagRECT@@0@Z 000000018002d7c8     MSR.obj
 0002:0000b7dc       $unwind$?IViewObject_Draw@CComControlBase@ATL@@QEAAJKJPEAXPEAUtagDVTARGETDEVICE@@PEAUHDC__@@2PEBU_RECTL@@3@Z 000000018002d7dc     MSR.obj
 0002:0000b7f8       $unwind$?IDataObject_GetData@CComControlBase@ATL@@QEAAJPEAUtagFORMATETC@@PEAUtagSTGMEDIUM@@@Z 000000018002d7f8     MSR.obj
 0002:0000b818       $unwind$?OnPaint@CComControlBase@ATL@@QEAA_JI_K_JAEAH@Z 000000018002d818     MSR.obj
 0002:0000b834       $unwind$?OnDrawAdvanced@CComControlBase@ATL@@UEAAJAEAUATL_DRAWINFO@@@Z 000000018002d834     MSR.obj
 0002:0000b84c       $unwind$?ReleaseDevice@COPOSMSR@@UEAAJPEAJ@Z 000000018002d84c     MSRImpl.obj
 0002:0000b84c       $unwind$?Invoke@?$IDispatchImpl@UIOPOSMSR@@$1?IID_IOPOSMSR@@3U_GUID@@B$1?LIBID_OposMSR_CCO@@3U3@B$00$0A@VCComTypeInfoHolder@ATL@@@ATL@@UEAAJJAEBU_GUID@@KGPEAUtagDISPPARAMS@@PEAUtagVARIANT@@PEAUtagEXCEPINFO@@PEAI@Z 000000018002d84c     MSR.obj
 0002:0000b84c       $unwind$_mbsdec_l          000000018002d84c     libucrt:mbsdec.obj
 0002:0000b858       $unwind$?fp_format_e@@YAHQEBNQEAD_K12H_NIQEAU__crt_locale_pointers@@@Z 000000018002d858     libucrt:cvt.obj
 0002:0000b858       $unwind$?atlCreate@?$CWindowImpl@VCOPOSMSR@@VCWindow@ATL@@V?$CWinTraits@$0FGAAAAAA@$0A@@3@@ATL@@QEAAPEAUHWND__@@PEAU3@V_U_RECT@2@PEB_WKKV_U_MENUorID@2@PEAX@Z 000000018002d858     MSR.obj
 0002:0000b86c       $unwind$_raise_exc         000000018002d86c     libucrt:fpexcept.obj
 0002:0000b86c       $unwind$?CreateControlWindow@?$CComControl@VCOPOSMSR@@V?$CWindowImpl@VCOPOSMSR@@VCWindow@ATL@@V?$CWinTraits@$0FGAAAAAA@$0A@@3@@ATL@@@ATL@@UEAAPEAUHWND__@@PEAU3@AEAUtagRECT@@@Z 000000018002d86c     MSR.obj
 0002:0000b86c       $unwind$?ClearInputProperties@COPOSMSR@@UEAAJPEAJ@Z 000000018002d86c     MSRImpl.obj
 0002:0000b86c       $unwind$?ClearInput@COPOSMSR@@UEAAJPEAJ@Z 000000018002d86c     MSRImpl.obj
 0002:0000b86c       $unwind$?__scrt_throw_std_bad_alloc@@YAXXZ 000000018002d86c     LIBCMT:throw_bad_alloc.obj
 0002:0000b86c       $unwind$?__scrt_throw_std_bad_array_new_length@@YAXXZ 000000018002d86c     LIBCMT:throw_bad_alloc.obj
 0002:0000b86c       $unwind$__dcrt_lowio_initialize_console_output 000000018002d86c     libucrt:initcon.obj
 0002:0000b874       $unwind$__stdio_common_vswprintf_s 000000018002d874     libucrt:output.obj
 0002:0000b874       $unwind$?Save@?$IPersistStreamInitImpl@VCOPOSMSR@@@ATL@@UEAAJPEAUIStream@@H@Z 000000018002d874     MSR.obj
 0002:0000b880       $unwind$?GetSizeMax@?$IPersistStreamInitImpl@VCOPOSMSR@@@ATL@@UEAAJPEAT_ULARGE_INTEGER@@@Z 000000018002d880     MSR.obj
 0002:0000b898       $unwind$?DoVerbPrimary@?$IOleObjectImpl@VCOPOSMSR@@@ATL@@QEAAJPEBUtagRECT@@PEAUHWND__@@@Z 000000018002d898     MSR.obj
 0002:0000b8b0       $unwind$?TranslateAcceleratorW@?$IOleInPlaceActiveObjectImpl@VCOPOSMSR@@@ATL@@UEAAJPEAUtagMSG@@@Z 000000018002d8b0     MSR.obj
 0002:0000b8bc       $unwind$?Draw@?$IViewObjectExImpl@VCOPOSMSR@@@ATL@@UEAAJKJPEAXPEAUtagDVTARGETDEVICE@@PEAUHDC__@@2PEBU_RECTL@@3P6AH_K@Z4@Z 000000018002d8bc     MSR.obj
 0002:0000b8c4       $unwind$?QueryHitRect@?$IViewObjectExImpl@VCOPOSMSR@@@ATL@@UEAAJKPEBUtagRECT@@0JPEAK@Z 000000018002d8c4     MSR.obj
 0002:0000b8d4       $unwind$?OnWindowMessage@?$IOleInPlaceObjectWindowlessImpl@VCOPOSMSR@@@ATL@@UEAAJI_K_JPEA_J@Z 000000018002d8d4     MSR.obj
 0002:0000b8e8       $unwind$?EnumConnectionPoints@?$IConnectionPointContainerImpl@VCOPOSMSR@@@ATL@@UEAAJPEAPEAUIEnumConnectionPoints@@@Z 000000018002d8e8     MSR.obj
 0002:0000b910       $unwind$?FindConnectionPoint@?$IConnectionPointContainerImpl@VCOPOSMSR@@@ATL@@UEAAJAEBU_GUID@@PEAPEAUIConnectionPoint@@@Z 000000018002d910     MSR.obj
 0002:0000b92c       $unwind$?Load@?$IPersistStorageImpl@VCOPOSMSR@@@ATL@@UEAAJPEAUIStorage@@@Z 000000018002d92c     MSR.obj
 0002:0000b93c       $unwind$?Save@?$IPersistStorageImpl@VCOPOSMSR@@@ATL@@UEAAJPEAUIStorage@@H@Z 000000018002d93c     MSR.obj
 0002:0000b950       $unwind$?DAdvise@?$IDataObjectImpl@VCOPOSMSR@@@ATL@@UEAAJPEAUtagFORMATETC@@KPEAUIAdviseSink@@PEAK@Z 000000018002d950     MSR.obj
 0002:0000b950       $unwind$_invalid_parameter 000000018002d950     libucrt:invalid_parameter.obj
 0002:0000b968       $unwind$?GetInterfaceSafetyOptions@?$IObjectSafetyImpl@VCOPOSMSR@@$02@ATL@@UEAAJAEBU_GUID@@PEAK1@Z 000000018002d968     MSR.obj
 0002:0000b97c       $unwind$?parse_int_from_format_string@?$output_processor@_WV?$string_output_adapter@_W@__crt_stdio_output@@V?$format_validation_base@_WV?$string_output_adapter@_W@__crt_stdio_output@@@2@@__crt_stdio_output@@AEAA_NQEAH@Z 000000018002d97c     libucrt:output.obj
 0002:0000b97c       $unwind$?SetInterfaceSafetyOptions@?$IObjectSafetyImpl@VCOPOSMSR@@$02@ATL@@UEAAJAEBU_GUID@@KK@Z 000000018002d97c     MSR.obj
 0002:0000b990       $unwind$?Advise@?$IConnectionPointImpl@VCOPOSMSR@@$1?DIID__IOPOSMSREvents@@3U_GUID@@BVCComDynamicUnkArray@ATL@@@ATL@@UEAAJPEAUIUnknown@@PEAK@Z 000000018002d990     MSR.obj
 0002:0000b990       $unwind$?Advise@?$IConnectionPointImpl@VCOPOSMSR@@$1?IID_IPropertyNotifySink@@3U_GUID@@BVCComDynamicUnkArray@ATL@@@ATL@@UEAAJPEAUIUnknown@@PEAK@Z 000000018002d990     MSR.obj
 0002:0000b9a4       $unwind$?EnumConnections@?$IConnectionPointImpl@VCOPOSMSR@@$1?IID_IPropertyNotifySink@@3U_GUID@@BVCComDynamicUnkArray@ATL@@@ATL@@UEAAJPEAPEAUIEnumConnections@@@Z 000000018002d9a4     MSR.obj
 0002:0000b9a4       $unwind$??$create_environment@D@@YAQEAPEADQEAD@Z 000000018002d9a4     libucrt:environment_initialization.obj
 0002:0000b9a4       $unwind$?EnumConnections@?$IConnectionPointImpl@VCOPOSMSR@@$1?DIID__IOPOSMSREvents@@3U_GUID@@BVCComDynamicUnkArray@ATL@@@ATL@@UEAAJPEAPEAUIEnumConnections@@@Z 000000018002d9a4     MSR.obj
 0002:0000b9bc       $unwind$?Fire_StatusUpdateEvent@?$CProxy_IOPOSEvents@VCOPOSMSR@@@@QEAAXJ@Z 000000018002d9bc     MSR.obj
 0002:0000b9bc       $unwind$_mbtowc_l          000000018002d9bc     libucrt:mbtowc.obj
 0002:0000b9bc       $unwind$__acrt_LCMapStringEx 000000018002d9bc     libucrt:winapi_thunks.obj
 0002:0000b9bc       $unwind$??$__InternalCxxFrameHandler@V__FrameHandler3@@@@YA?AW4_EXCEPTION_DISPOSITION@@PEAUEHExceptionRecord@@PEA_KPEAU_CONTEXT@@PEAU_xDISPATCHER_CONTEXT@@PEBU_s_FuncInfo@@H1E@Z 000000018002d9bc     libvcruntime:frame.obj
 0002:0000b9bc       $unwind$?Fire_DataEvent@?$CProxy_IOPOSEvents@VCOPOSMSR@@@@QEAAXJ@Z 000000018002d9bc     MSR.obj
 0002:0000b9d4       $unwind$?Fire_DirectIOEvent@?$CProxy_IOPOSEvents@VCOPOSMSR@@@@QEAAXJPEAJPEAPEA_W@Z 000000018002d9d4     MSR.obj
 0002:0000b9f4       $unwind$?Fire_ErrorEvent@?$CProxy_IOPOSEvents@VCOPOSMSR@@@@QEAAXJJJPEAJ@Z 000000018002d9f4     MSR.obj
 0002:0000ba14       $unwind$?FireTheEvent@?$CProxy_IOPOSEvents@VCOPOSMSR@@@@IEAAXPEAVOposVariant@@IAEAJPEB_WJ@Z 000000018002da14     MSR.obj
 0002:0000ba24       $unwind$__dcrt_get_narrow_environment_from_os 000000018002da24     libucrt:get_environment_from_os.obj
 0002:0000ba24       $unwind$?ProcessWindowMessage@COPOSMSR@@UEAAHPEAUHWND__@@I_K_JAEA_JK@Z 000000018002da24     MSR.obj
 0002:0000ba24       $unwind$?fp_format_f_internal@@YAHQEAD_KHQEAU_strflt@@_NQEAU__crt_locale_pointers@@@Z 000000018002da24     libucrt:cvt.obj
 0002:0000ba3c       $unwind$?SOError@COPOSMSR@@MEAAJJJJPEAJ@Z 000000018002da3c     MSR.obj
 0002:0000ba50       $unwind$?Clone@?$CComEnumImpl@UIEnumConnectionPoints@@$1?_GUID_b196b285_bab4_101a_b69c_00aa00341d07@@3U__s_GUID@@BPEAUIConnectionPoint@@V?$_CopyInterface@UIConnectionPoint@@@ATL@@@ATL@@UEAAJPEAPEAUIEnumConnectionPoints@@@Z 000000018002da50     MSR.obj
 0002:0000ba50       $unwind$?Clone@?$CComEnumImpl@UIEnumConnections@@$1?_GUID_b196b287_bab4_101a_b69c_00aa00341d07@@3U__s_GUID@@BUtagCONNECTDATA@@V?$_Copy@UtagCONNECTDATA@@@ATL@@@ATL@@UEAAJPEAPEAUIEnumConnections@@@Z 000000018002da50     MSR.obj
 0002:0000ba68       $unwind$?GetOposProp@COPOSMSR@@IEAAJJPEAPEA_WJ@Z 000000018002da68     MSRImpl.obj
 0002:0000ba68       $unwind$?GetOposProp@COPOSMSR@@IEAAJJPEAJJ@Z 000000018002da68     MSRImpl.obj
 0002:0000ba80       $unwind$?SetOposProp@COPOSMSR@@IEAAJJJJ@Z 000000018002da80     MSRImpl.obj
 0002:0000baa0       $unwind$?SetOposProp@COPOSMSR@@IEAAJJPEA_WJ@Z 000000018002daa0     MSRImpl.obj
 0002:0000babc       $unwind$?DoInvoke@COPOSMSR@@IEAAJJPEAVOposVariant@@IHPEAJ_N@Z 000000018002dabc     MSRImpl.obj
 0002:0000bad4       $unwind$?SetCOFreezeEvents@COPOSMSR@@IEAAXF@Z 000000018002dad4     MSRImpl.obj
 0002:0000bae8       $unwind$?OnDraw@COPOSMSR@@MEAAJAEAUATL_DRAWINFO@@@Z 000000018002dae8     MSRImpl.obj
 0002:0000bb00       $unwind$?EventInit@COPOSMSR@@IEAAJXZ 000000018002db00     MSRImpl.obj
 0002:0000bb14       $unwind$?EventWindowProc@COPOSMSR@@IEAA_JI_K_J@Z 000000018002db14     MSRImpl.obj
 0002:0000bb24       $unwind$__scrt_initialize_onexit_tables 000000018002db24     LIBCMT:utility.obj
 0002:0000bb24       $unwind$_isleadbyte_l      000000018002db24     libucrt:_wctype.obj
 0002:0000bb24       $unwind$isdigit            000000018002db24     libucrt:_ctype.obj
 0002:0000bb24       $unwind$?getSystemCP@@YAHH@Z 000000018002db24     libucrt:mbctype.obj
 0002:0000bb24       $unwind$?get_ControlObjectDescription@COPOSMSR@@UEAAJPEAPEA_W@Z 000000018002db24     MSRImpl.obj
 0002:0000bb2c       $unwind$?CheckHealth@COPOSMSR@@UEAAJJPEAJ@Z 000000018002db2c     MSRImpl.obj
 0002:0000bb2c       $unwind$?RetrieveDeviceAuthenticationData@COPOSMSR@@UEAAJPEAPEA_WPEAJ@Z 000000018002db2c     MSRImpl.obj
 0002:0000bb2c       $unwind$?RetrieveStatistics@COPOSMSR@@UEAAJPEAPEA_WPEAJ@Z 000000018002db2c     MSRImpl.obj
 0002:0000bb2c       $unwind$?DeauthenticateDevice@COPOSMSR@@UEAAJPEA_WPEAJ@Z 000000018002db2c     MSRImpl.obj
 0002:0000bb2c       $unwind$?AuthenticateDevice@COPOSMSR@@UEAAJPEA_WPEAJ@Z 000000018002db2c     MSRImpl.obj
 0002:0000bb2c       $unwind$?UpdateStatistics@COPOSMSR@@UEAAJPEA_WPEAJ@Z 000000018002db2c     MSRImpl.obj
 0002:0000bb2c       $unwind$?UpdateFirmware@COPOSMSR@@UEAAJPEA_WPEAJ@Z 000000018002db2c     MSRImpl.obj
 0002:0000bb2c       $unwind$?ResetStatistics@COPOSMSR@@UEAAJPEA_WPEAJ@Z 000000018002db2c     MSRImpl.obj
 0002:0000bb3c       $unwind$?ClaimDevice@COPOSMSR@@UEAAJJPEAJ@Z 000000018002db3c     MSRImpl.obj
 0002:0000bb4c       $unwind$?DirectIO@COPOSMSR@@UEAAJJPEAJPEAPEA_W0@Z 000000018002db4c     MSRImpl.obj
 0002:0000bb68       $unwind$?Open@COPOSMSR@@UEAAJPEA_WPEAJ@Z 000000018002db68     MSRImpl.obj
 0002:0000bb8c       $unwind$?WriteTracks@COPOSMSR@@UEAAJUtagVARIANT@@JPEAJ@Z 000000018002db8c     MSRImpl.obj
 0002:0000bb8c       $unwind$?CompareFirmwareVersion@COPOSMSR@@UEAAJPEA_WPEAJ1@Z 000000018002db8c     MSRImpl.obj
 0002:0000bb8c       $unwind$?RetrieveCardProperty@COPOSMSR@@UEAAJPEA_WPEAPEA_WPEAJ@Z 000000018002db8c     MSRImpl.obj
 0002:0000bb8c       $unwind$?initialize_inherited_file_handles_nolock@@YAXXZ 000000018002db8c     libucrt:ioinit.obj
 0002:0000bb8c       $unwind$?UpdateKey@COPOSMSR@@UEAAJPEA_W0PEAJ@Z 000000018002db8c     MSRImpl.obj
 0002:0000bba8       $unwind$__scrt_is_nonwritable_in_current_image 000000018002dba8     LIBCMT:utility.obj
 0002:0000bbc8       $unwind$__scrt_is_nonwritable_in_current_image$filt$0 000000018002dbc8     LIBCMT:utility.obj
 0002:0000bbd0       $unwind$?__scrt_initialize_thread_safe_statics@@YAHXZ 000000018002dbd0     LIBCMT:thread_safe_statics.obj
 0002:0000bbe8       $stateUnwindMap$?__scrt_initialize_thread_safe_statics@@YAHXZ 000000018002dbe8     LIBCMT:thread_safe_statics.obj
 0002:0000bbf0       $ip2state$?__scrt_initialize_thread_safe_statics@@YAHXZ 000000018002dbf0     LIBCMT:thread_safe_statics.obj
 0002:0000bbf8       $unwind$__report_securityfailure 000000018002dbf8     LIBCMT:gs_report.obj
 0002:0000bc00       $unwind$__report_gsfailure 000000018002dc00     LIBCMT:gs_report.obj
 0002:0000bc00       $unwind$_putwch_nolock     000000018002dc00     libucrt:putwch.obj
 0002:0000bc08       $unwind$capture_current_context 000000018002dc08     LIBCMT:gs_report.obj
 0002:0000bc14       $unwind$capture_previous_context 000000018002dc14     LIBCMT:gs_report.obj
 0002:0000bc20       $unwind$??2@YAPEAX_KAEBUnothrow_t@std@@@Z 000000018002dc20     LIBCMT:new_scalar_nothrow.obj
 0002:0000bc30       $stateUnwindMap$??2@YAPEAX_KAEBUnothrow_t@std@@@Z 000000018002dc30     LIBCMT:new_scalar_nothrow.obj
 0002:0000bc40       $tryMap$??2@YAPEAX_KAEBUnothrow_t@std@@@Z 000000018002dc40     LIBCMT:new_scalar_nothrow.obj
 0002:0000bc54       $handlerMap$0$??2@YAPEAX_KAEBUnothrow_t@std@@@Z 000000018002dc54     LIBCMT:new_scalar_nothrow.obj
 0002:0000bc68       $ip2state$??2@YAPEAX_KAEBUnothrow_t@std@@@Z 000000018002dc68     LIBCMT:new_scalar_nothrow.obj
 0002:0000bc70       $unwind$?catch$0@?0???2@YAPEAX_KAEBUnothrow_t@std@@@Z@4HA 000000018002dc70     LIBCMT:new_scalar_nothrow.obj
 0002:0000bc80       $unwind$__GSHandlerCheckCommon 000000018002dc80     LIBCMT:gshandler.obj
 0002:0000bc88       $xdatasym                  000000018002dc88     LIBCMT:chkstk.obj
 0002:0000bc90       $xdatasym                  000000018002dc90     LIBCMT:amdsecgs.obj
 0002:0000bc94       $unwind$?dllmain_crt_process_attach@@YAHQEAUHINSTANCE__@@QEAX@Z 000000018002dc94     LIBCMT:dll_dllmain.obj
 0002:0000bcd0       $unwind$?dllmain_crt_process_detach@@YAH_N@Z 000000018002dcd0     LIBCMT:dll_dllmain.obj
 0002:0000bd08       $unwind$?dllmain_dispatch@@YAHQEAUHINSTANCE__@@KQEAX@Z 000000018002dd08     LIBCMT:dll_dllmain.obj
 0002:0000bd30       $unwind$?filt$0@?0??dllmain_dispatch@@YAHQEAUHINSTANCE__@@KQEAX@Z@4HA 000000018002dd30     LIBCMT:dll_dllmain.obj
 0002:0000bd38       $unwind$__isa_available_init 000000018002dd38     LIBCMT:cpu_disp.obj
 0002:0000bd4c       $unwind$__scrt_fastfail    000000018002dd4c     LIBCMT:utility_desktop.obj
 0002:0000bd5c       $unwind$__security_init_cookie 000000018002dd5c     LIBCMT:gs_support.obj
 0002:0000bd68       $xdatasym                  000000018002dd68     LIBCMT:guard_dispatch.obj
 0002:0000bd6c       $unwind$AtlThunk_InitData  000000018002dd6c     atls:atlthunk.obj
 0002:0000bd80       $xdatasym                  000000018002dd80     libvcruntime:memset.obj
 0002:0000bd90       $unwind$wcsstr             000000018002dd90     libvcruntime:wcsstr.obj
 0002:0000bda8       $xdatasym                  000000018002dda8     libvcruntime:memcmp.obj
 0002:0000bdb0       $xdatasym                  000000018002ddb0     libvcruntime:memcpy.obj
 0002:0000bdc0       $unwind$__C_specific_handler 000000018002ddc0     libvcruntime:riscchandler.obj
 0002:0000bddc       $unwind$__DestructExceptionObject 000000018002dddc     libvcruntime:ehhelpers.obj
 0002:0000bdfc       $unwind$?GetEstablisherFrame@__FrameHandler3@@SAPEA_KPEA_KPEAU_xDISPATCHER_CONTEXT@@PEBU_s_FuncInfo@@0@Z 000000018002ddfc     libvcruntime:risctrnsctrl.obj
 0002:0000be14       $unwind$?UnwindNestedFrames@__FrameHandler3@@SAXPEA_KPEAUEHExceptionRecord@@PEAU_CONTEXT@@0PEAXPEBU_s_FuncInfo@@HHPEBU_s_HandlerType@@PEAU_xDISPATCHER_CONTEXT@@E@Z 000000018002de14     libvcruntime:risctrnsctrl.obj
 0002:0000be28       $unwind$?GetRangeOfTrysToCheck@__FrameHandler3@@SA?AU?$pair@Viterator@TryBlockMap@__FrameHandler3@@V123@@std@@AEAVTryBlockMap@1@HH@Z 000000018002de28     libvcruntime:risctrnsctrl.obj
 0002:0000be40       $unwind$__CxxFrameHandler3 000000018002de40     libvcruntime:risctrnsctrl.obj
 0002:0000be50       $unwind$??$_CallSETranslator@V__FrameHandler3@@@@YAHPEAUEHExceptionRecord@@PEA_KPEAU_CONTEXT@@PEAU_xDISPATCHER_CONTEXT@@PEBU_s_FuncInfo@@K1@Z 000000018002de50     libvcruntime:risctrnsctrl.obj
 0002:0000be70       $unwind$?filt$0@?0???$_CallSETranslator@V__FrameHandler3@@@@YAHPEAUEHExceptionRecord@@PEA_KPEAU_CONTEXT@@PEAU_xDISPATCHER_CONTEXT@@PEBU_s_FuncInfo@@K1@Z@4HA 000000018002de70     libvcruntime:risctrnsctrl.obj
 0002:0000be7c       $unwind$_CxxThrowException 000000018002de7c     libvcruntime:throw.obj
 0002:0000be8c       $unwind$__vcrt_initialize_winapi_thunks 000000018002de8c     libvcruntime:winapi_downlevel.obj
 0002:0000be8c       $unwind$__acrt_initialize_winapi_thunks 000000018002de8c     libucrt:winapi_thunks.obj
 0002:0000be94       $unwind$__vcrt_uninitialize_winapi_thunks 000000018002de94     libvcruntime:winapi_downlevel.obj
 0002:0000be9c       $unwind$?try_get_function@@YAPEAXW4function_id@?A0xbfd18cd1@@QEBDQEBW4module_id@2@2@Z 000000018002de9c     libvcruntime:winapi_downlevel.obj
 0002:0000be9c       $unwind$?write_string@?$string_output_adapter@_W@__crt_stdio_output@@QEBAXQEB_WHQEAH1@Z 000000018002de9c     libucrt:output.obj
 0002:0000be9c       $unwind$?try_get_function@@YAPEAXW4function_id@?A0x63058377@@QEBDQEBW4module_id@2@2@Z 000000018002de9c     libucrt:winapi_thunks.obj
 0002:0000be9c       $unwind$?IsInExceptionSpec@@YAEPEAUEHExceptionRecord@@PEBU_s_ESTypeList@@@Z 000000018002de9c     libvcruntime:frame.obj
 0002:0000beb8       $xdatasym                  000000018002deb8     libvcruntime:notify.obj
 0002:0000bec4       $unwind$?FrameUnwindToState@__FrameHandler3@@SAXPEA_KPEAU_xDISPATCHER_CONTEXT@@PEBU_s_FuncInfo@@H@Z 000000018002dec4     libvcruntime:frame.obj
 0002:0000bf10       $unwind$?CxxCallCatchBlock@__FrameHandler3@@SAPEAXPEAU_EXCEPTION_RECORD@@@Z 000000018002df10     libvcruntime:frame.obj
 0002:0000bf4c       $unwind$?fin$1@?0??CxxCallCatchBlock@__FrameHandler3@@SAPEAXPEAU_EXCEPTION_RECORD@@@Z@4HA 000000018002df4c     libvcruntime:frame.obj
 0002:0000bf58       $unwind$??$BuildCatchObjectHelperInternal@V__FrameHandler3@@@@YAHPEAUEHExceptionRecord@@PEAXPEBU_s_HandlerType@@PEBU_s_CatchableType@@@Z 000000018002df58     libvcruntime:frame.obj
 0002:0000bf98       $unwind$??$BuildCatchObjectInternal@V__FrameHandler3@@@@YAXPEAUEHExceptionRecord@@PEAXPEBU_s_HandlerType@@PEBU_s_CatchableType@@@Z 000000018002df98     libvcruntime:frame.obj
 0002:0000bfc4       $unwind$??$FindHandler@V__FrameHandler3@@@@YAXPEAUEHExceptionRecord@@PEA_KPEAU_CONTEXT@@PEAU_xDISPATCHER_CONTEXT@@PEBU_s_FuncInfo@@EH1@Z 000000018002dfc4     libvcruntime:frame.obj
 0002:0000bfe0       $unwind$??$CatchIt@V__FrameHandler3@@@@YAXPEAUEHExceptionRecord@@PEA_KPEAU_CONTEXT@@PEAU_xDISPATCHER_CONTEXT@@PEBU_s_FuncInfo@@PEBU_s_HandlerType@@PEBU_s_CatchableType@@PEBU_s_TryBlockMapEntry@@H1EE@Z 000000018002dfe0     libvcruntime:frame.obj
 0002:0000bff8       $unwind$??$FindHandlerForForeignException@V__FrameHandler3@@@@YAXPEAUEHExceptionRecord@@PEA_KPEAU_CONTEXT@@PEAU_xDISPATCHER_CONTEXT@@PEBU_s_FuncInfo@@HH1@Z 000000018002dff8     libvcruntime:frame.obj
 0002:0000c018       $xdatasym                  000000018002e018     libvcruntime:handlers.obj
 0002:0000c028       $unwind$__acrt_call_reportfault 000000018002e028     libucrt:invalid_parameter.obj
 0002:0000c048       $unwind$_resetstkoflw      000000018002e048     libucrt:resetstk.obj
 0002:0000c06c       $unwind$??$common_vsprintf@Vformat_validation_base@__crt_stdio_output@@_W@@YAH_KQEA_W0QEB_WQEAU__crt_locale_pointers@@QEAD@Z 000000018002e06c     libucrt:output.obj
 0002:0000c090       $unwind$??$write_multiple_characters@V?$string_output_adapter@_W@__crt_stdio_output@@D@__crt_stdio_output@@YAXAEBV?$string_output_adapter@_W@0@DHQEAH@Z 000000018002e090     libucrt:output.obj
 0002:0000c09c       $unwind$?state_case_type@?$output_processor@_WV?$string_output_adapter@_W@__crt_stdio_output@@V?$format_validation_base@_WV?$string_output_adapter@_W@__crt_stdio_output@@@2@@__crt_stdio_output@@AEAA_NXZ 000000018002e09c     libucrt:output.obj
 0002:0000c0c0       $unwind$?type_case_a@?$output_processor@_WV?$string_output_adapter@_W@__crt_stdio_output@@V?$format_validation_base@_WV?$string_output_adapter@_W@__crt_stdio_output@@@2@@__crt_stdio_output@@AEAA_NXZ 000000018002e0c0     libucrt:output.obj
 0002:0000c0d0       $unwind$?write_stored_string_tchar@?$output_processor@_WV?$string_output_adapter@_W@__crt_stdio_output@@V?$format_validation_base@_WV?$string_output_adapter@_W@__crt_stdio_output@@@2@@__crt_stdio_output@@AEAA_N_W@Z 000000018002e0d0     libucrt:output.obj
 0002:0000c0e4       $unwind$??$type_case_integer_parse_into_buffer@I@?$output_processor@_WV?$string_output_adapter@_W@__crt_stdio_output@@V?$format_validation_base@_WV?$string_output_adapter@_W@__crt_stdio_output@@@2@@__crt_stdio_output@@AEAAXII_N@Z 000000018002e0e4     libucrt:output.obj
 0002:0000c0e4       $unwind$??$type_case_integer_parse_into_buffer@_K@?$output_processor@_WV?$string_output_adapter@_W@__crt_stdio_output@@V?$format_validation_base@_WV?$string_output_adapter@_W@__crt_stdio_output@@@2@@__crt_stdio_output@@AEAAX_KI_N@Z 000000018002e0e4     libucrt:output.obj
 0002:0000c0ec       $unwind$?common_exit@@YAXHW4_crt_exit_cleanup_mode@@W4_crt_exit_return_mode@@@Z 000000018002e0ec     libucrt:exit.obj
 0002:0000c12c       $unwind$??$free_environment@_W@@YAXQEAPEA_W@Z 000000018002e12c     libucrt:environment_initialization.obj
 0002:0000c12c       $unwind$??$free_environment@D@@YAXQEAPEAD@Z 000000018002e12c     libucrt:environment_initialization.obj
 0002:0000c138       $unwind$_register_onexit_function 000000018002e138     libucrt:onexit.obj
 0002:0000c140       $unwind$_execute_onexit_table 000000018002e140     libucrt:onexit.obj
 0002:0000c148       $unwind$??$?RV<lambda_b8c45f8f788dd370798f47cfe8ac3a86>@@AEAV<lambda_4e60a939b0d047cfe11ddc22648dfba9>@@V<lambda_332c3edc96d0294ec56c57d38c1cdfd5>@@@?$__crt_seh_guarded_call@H@@QEAAH$$QEAV<lambda_b8c45f8f788dd370798f47cfe8ac3a86>@@AEAV<lambda_4e60a939b0d047cfe11ddc22648dfba9>@@$$QEAV<lambda_332c3edc96d0294ec56c57d38c1cdfd5>@@@Z 000000018002e148     libucrt:onexit.obj
 0002:0000c16c       $unwind$??$?RV<lambda_e24bbb7b643b32fcea6fa61b31d4c984>@@AEAV<lambda_275893d493268fdec8709772e3fcec0e>@@V<lambda_9d71df4d7cf3f480f8d633942495c3b0>@@@?$__crt_seh_guarded_call@H@@QEAAH$$QEAV<lambda_e24bbb7b643b32fcea6fa61b31d4c984>@@AEAV<lambda_275893d493268fdec8709772e3fcec0e>@@$$QEAV<lambda_9d71df4d7cf3f480f8d633942495c3b0>@@@Z 000000018002e16c     libucrt:onexit.obj
 0002:0000c19c       $unwind$_query_new_handler 000000018002e19c     libucrt:new_handler.obj
 0002:0000c1bc       $unwind$terminate          000000018002e1bc     libucrt:terminate.obj
 0002:0000c1dc       $unwind$??$parse_integer@KV?$c_string_character_source@_W@__crt_strtox@@@__crt_strtox@@YAKQEAU__crt_locale_pointers@@V?$c_string_character_source@_W@0@H_N@Z 000000018002e1dc     libucrt:atox.obj
 0002:0000c1f8       $xdatasym                  000000018002e1f8     libucrt:strncmp.obj
 0002:0000c1fc       $unwind$?construct_ptd_array@@YAXQEAU__acrt_ptd@@@Z 000000018002e1fc     libucrt:per_thread_data.obj
 0002:0000c204       $unwind$?destroy_ptd_array@@YAXQEAU__acrt_ptd@@@Z 000000018002e204     libucrt:per_thread_data.obj
 0002:0000c20c       $unwind$??$?RV<lambda_72d1df2b273a38828b1ce30cbf4cdab5>@@AEAV<lambda_876a65b173b8412d3a47c70a915b0cf4>@@V<lambda_41932305e351933ebe8f8be3ed8bb5dc>@@@?$__crt_seh_guarded_call@X@@QEAAX$$QEAV<lambda_72d1df2b273a38828b1ce30cbf4cdab5>@@AEAV<lambda_876a65b173b8412d3a47c70a915b0cf4>@@$$QEAV<lambda_41932305e351933ebe8f8be3ed8bb5dc>@@@Z 000000018002e20c     libucrt:per_thread_data.obj
 0002:0000c230       $unwind$??$?RV<lambda_5e887d1dcbef67a5eb4283622ba103bf>@@AEAV<lambda_4466841279450cc726390878d4a41900>@@V<lambda_341c25c0346d94847f1f3c463c57e077>@@@?$__crt_seh_guarded_call@X@@QEAAX$$QEAV<lambda_5e887d1dcbef67a5eb4283622ba103bf>@@AEAV<lambda_4466841279450cc726390878d4a41900>@@$$QEAV<lambda_341c25c0346d94847f1f3c463c57e077>@@@Z 000000018002e230     libucrt:per_thread_data.obj
 0002:0000c254       $unwind$??$?RV<lambda_46352004c1216016012b18bd6f87e700>@@AEAV<lambda_3bd07e1a1191394380780325891bf33f>@@V<lambda_334532d3f185bcaa59b5be82d7d22bff>@@@?$__crt_seh_guarded_call@X@@QEAAX$$QEAV<lambda_46352004c1216016012b18bd6f87e700>@@AEAV<lambda_3bd07e1a1191394380780325891bf33f>@@$$QEAV<lambda_334532d3f185bcaa59b5be82d7d22bff>@@@Z 000000018002e254     libucrt:per_thread_data.obj
 0002:0000c278       $unwind$??$?RV<lambda_fb3a7dec4e47f37f22dae91bb15c9095>@@AEAV<lambda_698284760c8add0bfb0756c19673e34b>@@V<lambda_dfb8eca1e75fef3034a8fb18dd509707>@@@?$__crt_seh_guarded_call@X@@QEAAX$$QEAV<lambda_fb3a7dec4e47f37f22dae91bb15c9095>@@AEAV<lambda_698284760c8add0bfb0756c19673e34b>@@$$QEAV<lambda_dfb8eca1e75fef3034a8fb18dd509707>@@@Z 000000018002e278     libucrt:per_thread_data.obj
 0002:0000c29c       $unwind$_tolower_l         000000018002e29c     libucrt:tolower_toupper.obj
 0002:0000c2ac       $unwind$wcstol             000000018002e2ac     libucrt:strtox.obj
 0002:0000c2b4       $unwind$wcsnlen            000000018002e2b4     libucrt:strnlen.obj
 0002:0000c2bc       $unwind$__acrt_fp_format   000000018002e2bc     libucrt:cvt.obj
 0002:0000c2d8       $unwind$?fp_format_nan_or_infinity@@YAHW4__acrt_fp_class@@_NPEAD_K1@Z 000000018002e2d8     libucrt:cvt.obj
 0002:0000c2ec       $unwind$?fp_format_e_internal@@YAHQEAD_KH_NIQEAU_strflt@@2QEAU__crt_locale_pointers@@@Z 000000018002e2ec     libucrt:cvt.obj
 0002:0000c304       $unwind$?fp_format_a@@YAHQEBNPEAD_KQEAD2H_NIQEAU__crt_locale_pointers@@@Z 000000018002e304     libucrt:cvt.obj
 0002:0000c320       $unwind$?fp_format_g@@YAHQEBNQEAD_K12H_NIQEAU__crt_locale_pointers@@@Z 000000018002e320     libucrt:cvt.obj
 0002:0000c334       $unwind$__acrt_uninitialize_locale 000000018002e334     libucrt:wsetlocale.obj
 0002:0000c354       $unwind$__acrt_initialize_lowio 000000018002e354     libucrt:ioinit.obj
 0002:0000c374       $unwind$??$common_expand_argv_wildcards@D@@YAHQEAPEADQEAPEAPEAD@Z 000000018002e374     libucrt:argv_wildcards.obj
 0002:0000c38c       $unwind$??$copy_and_add_argument_to_buffer@D@@YAHQEBD0_KAEAV?$argument_list@D@?A0xca0879c4@@@Z 000000018002e38c     libucrt:argv_wildcards.obj
 0002:0000c3a8       $unwind$??$expand_argument_wildcards@D@@YAHQEAD0AEAV?$argument_list@D@?A0xca0879c4@@@Z 000000018002e3a8     libucrt:argv_wildcards.obj
 0002:0000c3c8       $unwind$__acrt_update_thread_multibyte_data 000000018002e3c8     libucrt:mbctype.obj
 0002:0000c3ec       $unwind$_setmbcp_nolock    000000018002e3ec     libucrt:mbctype.obj
 0002:0000c40c       $unwind$?setSBUpLow@@YAXPEAU__crt_multibyte_data@@@Z 000000018002e40c     libucrt:mbctype.obj
 0002:0000c428       $unwind$?setmbcp_internal@@YAHH_N@Z 000000018002e428     libucrt:mbctype.obj
 0002:0000c438       $unwind$??$?RV<lambda_99476a1ad63dd22509b5d3e65b0ffc95>@@AEAV<lambda_ad1ced32f4ac17aa236e5ef05d6b3b7c>@@V<lambda_f7424dd8d45958661754dc4f2697e9c3>@@@?$__crt_seh_guarded_call@X@@QEAAX$$QEAV<lambda_99476a1ad63dd22509b5d3e65b0ffc95>@@AEAV<lambda_ad1ced32f4ac17aa236e5ef05d6b3b7c>@@$$QEAV<lambda_f7424dd8d45958661754dc4f2697e9c3>@@@Z 000000018002e438     libucrt:mbctype.obj
 0002:0000c45c       $unwind$__acrt_get_sigabrt_handler 000000018002e45c     libucrt:signal.obj
 0002:0000c464       $unwind$raise              000000018002e464     libucrt:signal.obj
 0002:0000c490       $unwind$??$?RV<lambda_c36588078e9f5dfd39652860aa6b3aaf>@@AEAV<lambda_ec61778202f4f5fc7e7711acc23c3bca>@@V<lambda_dc9d2797ccde5d239b4a0efae8ebd7db>@@@?$__crt_seh_guarded_call@P6AXH@Z@@QEAAP6AXH@Z$$QEAV<lambda_c36588078e9f5dfd39652860aa6b3aaf>@@AEAV<lambda_ec61778202f4f5fc7e7711acc23c3bca>@@$$QEAV<lambda_dc9d2797ccde5d239b4a0efae8ebd7db>@@@Z 000000018002e490     libucrt:signal.obj
 0002:0000c4b4       $unwind$_isctype_l         000000018002e4b4     libucrt:isctype.obj
 0002:0000c4d0       $unwind$__acrt_update_thread_locale_data 000000018002e4d0     libucrt:locale_refcounting.obj
 0002:0000c4f4       $unwind$?GetTableIndexFromLocaleName@@YAHPEB_W@Z 000000018002e4f4     libucrt:lcidtoname_downlevel.obj
 0002:0000c50c       $unwind$__acrt_LCMapStringA 000000018002e50c     libucrt:lcmapstringa.obj
 0002:0000c51c       $unwind$?__acrt_LCMapStringA_stat@@YAHPEAU__crt_locale_pointers@@PEB_WKPEBDHPEADHHH@Z 000000018002e51c     libucrt:lcmapstringa.obj
 0002:0000c544       $unwind$__acrt_fltout      000000018002e544     libucrt:cfout.obj
 0002:0000c564       $unwind$?divide@__crt_strtox@@YA_KAEAUbig_integer@1@AEBU21@@Z 000000018002e564     libucrt:cfout.obj
 0002:0000c584       $chain$5$?divide@__crt_strtox@@YA_KAEAUbig_integer@1@AEBU21@@Z 000000018002e584     libucrt:cfout.obj
 0002:0000c598       $chain$6$?divide@__crt_strtox@@YA_KAEAUbig_integer@1@AEBU21@@Z 000000018002e598     libucrt:cfout.obj
 0002:0000c5a8       $unwind$_fcloseall         000000018002e5a8     libucrt:closeall.obj
 0002:0000c5cc       $unwind$common_flush_all   000000018002e5cc     libucrt:fflush.obj
 0002:0000c608       $unwind$__acrt_locale_free_monetary 000000018002e608     libucrt:initmon.obj
 0002:0000c610       $unwind$__acrt_locale_free_time 000000018002e610     libucrt:inittime.obj
 0002:0000c620       $unwind$__acrt_GetStringTypeA 000000018002e620     libucrt:getstringtypea.obj
 0002:0000c648       $unwind$__acrt_lowio_destroy_handle_array 000000018002e648     libucrt:osfinfo.obj
 0002:0000c658       $unwind$__acrt_lowio_ensure_fh_exists 000000018002e658     libucrt:osfinfo.obj
 0002:0000c684       $unwind$qsort              000000018002e684     libucrt:qsort.obj
 0002:0000c69c       $chain$4$qsort             000000018002e69c     libucrt:qsort.obj
 0002:0000c6c0       $chain$5$qsort             000000018002e6c0     libucrt:qsort.obj
 0002:0000c6d0       $unwind$?shortsort@@YAXPEAD0_KP6AHPEBX2@Z@Z 000000018002e6d0     libucrt:qsort.obj
 0002:0000c6e0       $chain$2$?shortsort@@YAXPEAD0_KP6AHPEBX2@Z@Z 000000018002e6e0     libucrt:qsort.obj
 0002:0000c6fc       $chain$3$?shortsort@@YAXPEAD0_KP6AHPEBX2@Z@Z 000000018002e6fc     libucrt:qsort.obj
 0002:0000c70c       $unwind$strpbrk            000000018002e70c     libucrt:strpbrk.obj
 0002:0000c720       $xdatasym                  000000018002e720     libucrt:log10.obj
 0002:0000c72c       $unwind$_write             000000018002e72c     libucrt:write.obj
 0002:0000c75c       $unwind$_write_nolock      000000018002e75c     libucrt:write.obj
 0002:0000c774       $unwind$?write_double_translated_ansi_nolock@@YA?AUwrite_result@?A0x9c548279@@HQEBDI@Z 000000018002e774     libucrt:write.obj
 0002:0000c794       $unwind$?write_text_ansi_nolock@@YA?AUwrite_result@?A0x9c548279@@HQEBDI@Z 000000018002e794     libucrt:write.obj
 0002:0000c794       $unwind$?write_text_utf16le_nolock@@YA?AUwrite_result@?A0x9c548279@@HQEBDI@Z 000000018002e794     libucrt:write.obj
 0002:0000c7b4       $unwind$?write_text_utf8_nolock@@YA?AUwrite_result@?A0x9c548279@@HQEBDI@Z 000000018002e7b4     libucrt:write.obj
 0002:0000c7d8       $unwind$fclose             000000018002e7d8     libucrt:fclose.obj
 0002:0000c7fc       $unwind$_commit            000000018002e7fc     libucrt:commit.obj
 0002:0000c7fc       $unwind$_close             000000018002e7fc     libucrt:close.obj
 0002:0000c804       $unwind$??$?RV<lambda_b521505b218e5242e90febf6bfebc422>@@AEAV<lambda_6978c1fb23f02e42e1d9e99668cc68aa>@@V<lambda_314360699dd331753a4119843814e9a7>@@@?$__crt_seh_guarded_call@H@@QEAAH$$QEAV<lambda_b521505b218e5242e90febf6bfebc422>@@AEAV<lambda_6978c1fb23f02e42e1d9e99668cc68aa>@@$$QEAV<lambda_314360699dd331753a4119843814e9a7>@@@Z 000000018002e804     libucrt:commit.obj
 0002:0000c828       $unwind$common_control87   000000018002e828     libucrt:ieee.obj
 0002:0000c858       $unwind$_call_matherr      000000018002e858     libucrt:libm_error.obj
 0002:0000c860       $unwind$_handle_error      000000018002e860     libucrt:libm_error.obj
 0002:0000c880       $unwind$__acrt_initialize_fma3 000000018002e880     libucrt:fma3_available.obj
 0002:0000c888       $unwind$_log_special_common 000000018002e888     libucrt:log_special.obj
 0002:0000c894       $unwind$??$?RV<lambda_bfedae4ebbf01fab1bb6dcc6a9e276e0>@@AEAV<lambda_2fe9b910cf3cbf4a0ab98a02ba45b3ec>@@V<lambda_237c231691f317818eb88cc1d5d642d6>@@@?$__crt_seh_guarded_call@H@@QEAAH$$QEAV<lambda_bfedae4ebbf01fab1bb6dcc6a9e276e0>@@AEAV<lambda_2fe9b910cf3cbf4a0ab98a02ba45b3ec>@@$$QEAV<lambda_237c231691f317818eb88cc1d5d642d6>@@@Z 000000018002e894     libucrt:close.obj
 0002:0000c8b8       $xdatasym                  000000018002e8b8     libucrt:fpsr.obj
 0002:0000c8c0       $unwind$_raise_exc_ex      000000018002e8c0     libucrt:fpexcept.obj
 0002:0000c8d4       $unwind$_ctrlfp            000000018002e8d4     libucrt:fpctrl.obj
 0002:0000c8fc       $unwind$_IsNonwritableInCurrentImage 000000018002e8fc     LIBCMT:pesect.obj
 0002:0000c920       $unwind$strrchr            000000018002e920     libvcruntime:strrchr.obj
 0002:0000ca90       .edata                     000000018002ea90     OPOSMSR.exp
 0002:0000cab8       rgpv                       000000018002eab8     OPOSMSR.exp
 0002:0000cac8       rgszName                   000000018002eac8     OPOSMSR.exp
 0002:0000cad8       rgwOrd                     000000018002ead8     OPOSMSR.exp
 0002:0000cae0       szName                     000000018002eae0     OPOSMSR.exp
 0002:0000caec       $N00001                    000000018002eaec     OPOSMSR.exp
 0002:0000cafc       $N00002                    000000018002eafc     OPOSMSR.exp
 0002:0000cb0e       $N00003                    000000018002eb0e     OPOSMSR.exp
 0002:0000cb20       $N00004                    000000018002eb20     OPOSMSR.exp
 0002:0000d45a       .idata$6                   000000018002f45a     kernel32:KERNEL32.dll
 0002:0000d672       .idata$6                   000000018002f672     user32:USER32.dll
 0002:0000d7a6       .idata$6                   000000018002f7a6     gdi32:GDI32.dll
 0002:0000d84c       .idata$6                   000000018002f84c     advapi32:ADVAPI32.dll
 0002:0000d968       .idata$6                   000000018002f968     ole32:ole32.dll
 0002:0000d972       .idata$6                   000000018002f972     oleaut32:OLEAUT32.dll
 0003:000001c0       ?ObjectMap@@3PAU_ATL_OBJMAP_ENTRY30@ATL@@A 00000001800301c0     MSR.obj
 0003:000002a0       ?s_SOMethodNames@@3PAPEADA 00000001800302a0     MSRImpl.obj
 0003:00000368       ?s_RequiredMethodsPerRelease@@3PAHA 0000000180030368     MSRImpl.obj
 0003:000003d0       ?__vcrt_flsindex@@3KA      00000001800303d0     libvcruntime:per_thread_data.obj
 0003:000003e0       errno_no_memory            00000001800303e0     libucrt:errno.obj
 0003:000003e4       doserrno_no_memory         00000001800303e4     libucrt:errno.obj
 0003:000003f0       __acrt_flsindex            00000001800303f0     libucrt:per_thread_data.obj
 0003:000008b0       __rgctypeflag              00000001800308b0     libucrt:mbctype.obj
 0003:000008c0       __rgcode_page_info         00000001800308c0     libucrt:mbctype.obj
 0003:00000c70       ?dazSupported@?1??common_control87@@9@9 0000000180030c70     libucrt:ieee.obj
 0003:00000c80       ?dazSupported@?1??_ctrlfp@@9@9 0000000180030c80     libucrt:fpctrl.obj
 0003:00000ee0       ?is_initialized_as_dll@@3_NA 0000000180030ee0     LIBCMT:utility.obj
 0003:00000ee1       ?module_local_atexit_table_initialized@@3_NA 0000000180030ee1     LIBCMT:utility.obj
 0003:00000ee8       ?module_local_atexit_table@@3U_onexit_table_t@@A 0000000180030ee8     LIBCMT:utility.obj
 0003:00000f00       ?module_local_at_quick_exit_table@@3U_onexit_table_t@@A 0000000180030f00     LIBCMT:utility.obj
 0003:00000f18       ?_Tss_mutex@@3U_RTL_CRITICAL_SECTION@@A 0000000180030f18     LIBCMT:thread_safe_statics.obj
 0003:00000f40       ?_Tss_cv@@3U_RTL_CONDITION_VARIABLE@@A 0000000180030f40     LIBCMT:thread_safe_statics.obj
 0003:00000f48       ?_Tss_event@@3PEAXEA       0000000180030f48     LIBCMT:thread_safe_statics.obj
 0003:00000f50       ?encoded_sleep_condition_variable_cs@@3P6AHPEAU_RTL_CONDITION_VARIABLE@@PEAU_RTL_CRITICAL_SECTION@@K@ZEA 0000000180030f50     LIBCMT:thread_safe_statics.obj
 0003:00000f58       ?encoded_wake_all_condition_variable@@3P6AXPEAU_RTL_CONDITION_VARIABLE@@@ZEA 0000000180030f58     LIBCMT:thread_safe_statics.obj
 0003:00000f60       GS_ExceptionRecord         0000000180030f60     LIBCMT:gs_report.obj
 0003:00001000       GS_ContextRecord           0000000180031000     LIBCMT:gs_report.obj
 0003:000014d4       ?__proc_attached@@3HA      00000001800314d4     LIBCMT:dll_dllmain.obj
 0003:00001568       ?AllocateData@@3P6APEAUAtlThunkData_t@@XZEA 0000000180031568     atls:atlthunk.obj
 0003:00001570       ?InitData@@3P6AXPEAUAtlThunkData_t@@PEAX_K@ZEA 0000000180031570     atls:atlthunk.obj
 0003:00001578       ?DataToCode@@3P6AP6A_JPEAUHWND__@@I_K_J@ZPEAUAtlThunkData_t@@@ZEA 0000000180031578     atls:atlthunk.obj
 0003:00001580       ?FreeData@@3P6AXPEAUAtlThunkData_t@@@ZEA 0000000180031580     atls:atlthunk.obj
 0003:00001588       ?Initialized@@3_NA         0000000180031588     atls:atlthunk.obj
 0003:000015a0       ?__vcrt_startup_thread_ptd@@3U__vcrt_ptd@@A 00000001800315a0     libvcruntime:per_thread_data.obj
 0003:00001630       __vcrt_lock_table          0000000180031630     libvcruntime:locks.obj
 0003:00001658       __vcrt_locks_initialized   0000000180031658     libvcruntime:locks.obj
 0003:00001660       ?module_handles@@3PAPEAUHINSTANCE__@@A 0000000180031660     libvcruntime:winapi_downlevel.obj
 0003:00001678       ?encoded_function_pointers@@3PAPEAXA 0000000180031678     libvcruntime:winapi_downlevel.obj
 0003:000016e0       ?heap@@3V_HeapManager@@A   00000001800316e0     libvcruntime:undname.obj
 0003:00001708       __acrt_invalid_parameter_handler 0000000180031708     libucrt:invalid_parameter.obj
 0003:00001710       c_termination_complete     0000000180031710     libucrt:exit.obj
 0003:00001718       thread_local_exit_callback_func 0000000180031718     libucrt:exit.obj
 0003:00001720       ?c_exit_complete@?5??common_exit@@YAXHW4_crt_exit_cleanup_mode@@W4_crt_exit_return_mode@@@Z@4_NA 0000000180031720     libucrt:exit.obj
 0003:00001730       ?program_name@?5???$common_configure_argv@D@@YAHW4_crt_argv_mode@@@Z@4PADA 0000000180031730     libucrt:argv_parsing.obj
 0003:00001888       __acrt_new_handler         0000000180031888     libucrt:new_handler.obj
 0003:00001890       module_handles             0000000180031890     libucrt:winapi_thunks.obj
 0003:00001930       encoded_function_pointers  0000000180031930     libucrt:winapi_thunks.obj
 0003:00001a30       ?state_cache@?1??__acrt_is_packaged_app@@9@4JA 0000000180031a30     libucrt:winapi_thunks.obj
 0003:00001a48       enable_percent_n           0000000180031a48     libucrt:printf_count_output.obj
 0003:00001e80       __acrt_lock_table          0000000180031e80     libucrt:locks.obj
 0003:00002088       __acrt_locks_initialized   0000000180032088     libucrt:locks.obj
 0003:000020a4       fSystemSet                 00000001800320a4     libucrt:mbctype.obj
 0003:000020b0       ?initialized@?1??__acrt_initialize_multibyte@@9@4_NA 00000001800320b0     libucrt:mbctype.obj
 0003:000020e8       ctrlc_action               00000001800320e8     libucrt:signal.obj
 0003:000020f0       ctrlbreak_action           00000001800320f0     libucrt:signal.obj
 0003:000020f8       abort_action               00000001800320f8     libucrt:signal.obj
 0003:00002100       term_action                0000000180032100     libucrt:signal.obj
 0003:00002108       user_matherr               0000000180032108     libucrt:matherr.obj
 0003:00002110       __acrt_global_new_mode     0000000180032110     libucrt:new_mode.obj
 0003:0000211c       __acrt_app_type            000000018003211c     libucrt:report_runtime_error.obj
 0004:00000000       $pdata$?cw_memcpy@@YAHPEA_WPEBDH@Z 0000000180033000     CWString.obj
 0004:0000000c       $pdata$?cw_strcpy@@YAHPEA_WPEBD@Z 000000018003300c     CWString.obj
 0004:00000018       $pdata$?cw_dup@@YAXPEBDAEAHAEAPEA_W1@Z 0000000180033018     CWString.obj
 0004:00000024       $pdata$?DupWide@_CW@@AEAAXXZ 0000000180033024     CWString.obj
 0004:00000030       $pdata$?AtlWinModuleTerm@ATL@@YAJPEAU_ATL_WIN_MODULE70@1@PEAUHINSTANCE__@@@Z 0000000180033030     OposVariant.obj
 0004:0000003c       $pdata$??0CAtlComModule@ATL@@QEAA@XZ 000000018003303c     OposVariant.obj
 0004:00000048       $pdata$?Term@CAtlComModule@ATL@@QEAAXXZ 0000000180033048     OposVariant.obj
 0004:00000054       $pdata$??__E_AtlComModule@ATL@@YAXXZ 0000000180033054     OposVariant.obj
 0004:00000060       $pdata$??0CAtlWinModule@ATL@@QEAA@XZ 0000000180033060     OposVariant.obj
 0004:0000006c       $pdata$??__E_AtlWinModule@ATL@@YAXXZ 000000018003306c     OposVariant.obj
 0004:00000078       $pdata$??__F_AtlWinModule@ATL@@YAXXZ 0000000180033078     OposVariant.obj
 0004:00000084       $pdata$??_Estringdispid@CComTypeInfoHolder@ATL@@QEAAPEAXI@Z 0000000180033084     OposVariant.obj
 0004:00000090       $pdata$?SetVARIANT_BOOL@OposVariant@@QEAAXF@Z 0000000180033090     OposVariant.obj
 0004:0000009c       $pdata$?GetLONG@OposVariant@@QEAAJXZ 000000018003309c     OposVariant.obj
 0004:000000a8       $pdata$?ChangeLONG@OposVariant@@QEAAXPEAJAEAJ@Z 00000001800330a8     OposVariant.obj
 0004:000000b4       $pdata$?SetLONG@OposVariant@@QEAAXJ@Z 00000001800330b4     OposVariant.obj
 0004:000000c0       $pdata$?SetLONG_Ptr@OposVariant@@QEAAXPEAJAEAJ@Z 00000001800330c0     OposVariant.obj
 0004:000000cc       $pdata$?ChangeBSTR@OposVariant@@QEAAXPEAPEA_WAEAJ@Z 00000001800330cc     OposVariant.obj
 0004:000000d8       $pdata$?SetBSTR@OposVariant@@QEAAXPEA_WAEAJ@Z 00000001800330d8     OposVariant.obj
 0004:000000e4       $pdata$?SetBSTR_Copy@OposVariant@@QEAAXPEA_WAEAJ@Z 00000001800330e4     OposVariant.obj
 0004:000000f0       $pdata$?SetBSTR_OutPtr@OposVariant@@QEAA_NPEAPEA_WAEAJ@Z 00000001800330f0     OposVariant.obj
 0004:000000fc       $pdata$?SetBSTR_InOutPtr@OposVariant@@QEAA_NPEAPEA_WAEAJ@Z 00000001800330fc     OposVariant.obj
 0004:00000108       $pdata$?SetVARIANT@OposVariant@@QEAAXAEAUtagVARIANT@@GAEAJ@Z 0000000180033108     OposVariant.obj
 0004:00000114       $pdata$?SetString@OposVariant@@QEAAXPEB_WAEAJ@Z 0000000180033114     OposVariant.obj
 0004:00000120       $pdata$?SetDispatch_Ptr@OposVariant@@QEAAXPEAUIDispatch@@AEAJ@Z 0000000180033120     OposVariant.obj
 0004:0000012c       $pdata$??0OposDispParms@@QEAA@PEAVOposVariant@@H@Z 000000018003312c     OposVariant.obj
 0004:00000138       $pdata$??1OposDispParms@@QEAA@XZ 0000000180033138     OposVariant.obj
 0004:00000144       $pdata$memcpy_s            0000000180033144     MSR.obj
 0004:00000150       $pdata$?AtlThrowImpl@ATL@@YAXJ@Z 0000000180033150     MSR.obj
 0004:0000015c       $pdata$swprintf_s          000000018003315c     MSR.obj
 0004:00000168       $pdata$?_AtlVerifyStackAvailable@_ATL_SAFE_ALLOCA_IMPL@ATL@@YA_N_K@Z 0000000180033168     MSR.obj
 0004:00000174       $pdata$?filt$0@?0??_AtlVerifyStackAvailable@_ATL_SAFE_ALLOCA_IMPL@ATL@@YA_N_K@Z@4HA 0000000180033174     MSR.obj
 0004:00000180       $pdata$?AtlHresultFromLastError@ATL@@YAJXZ 0000000180033180     MSR.obj
 0004:0000018c       $pdata$?AtlInternalOleLoadFromStream@ATL@@YAJPEAUIStream@@AEBU_GUID@@PEAPEAXTClassesAllowedInStream@1@K@Z 000000018003318c     MSR.obj
 0004:00000198       $pdata$?PutProperty@?$CComPtr@UIDispatch@@@ATL@@SAJPEAUIDispatch@@JPEAUtagVARIANT@@@Z 0000000180033198     MSR.obj
 0004:000001a4       $pdata$?WriteToStream@CComBSTR@ATL@@QEAAJPEAUIStream@@@Z 00000001800331a4     MSR.obj
 0004:000001b0       $pdata$?ReadFromStream@CComBSTR@ATL@@QEAAJPEAUIStream@@@Z 00000001800331b0     MSR.obj
 0004:000001bc       $pdata$?WriteToStream@CComVariant@ATL@@QEAAJPEAUIStream@@@Z 00000001800331bc     MSR.obj
 0004:000001c8       $pdata$?WriteToStream@CComVariant@ATL@@QEAAJPEAUIStream@@G@Z 00000001800331c8     MSR.obj
 0004:000001d4       $pdata$?ReadFromStream@CComVariant@ATL@@QEAAJPEAUIStream@@GTClassesAllowedInStream@2@K@Z 00000001800331d4     MSR.obj
 0004:000001e0       $pdata$?GetSizeMax@CComVariant@ATL@@QEBAJPEAT_ULARGE_INTEGER@@@Z 00000001800331e0     MSR.obj
 0004:000001ec       $pdata$?RegCreateKeyExW@CAtlTransactionManager@ATL@@QEAAJPEAUHKEY__@@PEB_WKPEA_WKKQEAU_SECURITY_ATTRIBUTES@@PEAPEAU3@PEAK@Z 00000001800331ec     MSR.obj
 0004:000001f8       $pdata$?RegOpenKeyExW@CAtlTransactionManager@ATL@@QEAAJPEAUHKEY__@@PEB_WKKPEAPEAU3@@Z 00000001800331f8     MSR.obj
 0004:00000204       $pdata$?RegDeleteKeyW@CAtlTransactionManager@ATL@@QEAAJPEAUHKEY__@@PEB_W@Z 0000000180033204     MSR.obj
 0004:00000210       $pdata$?Add@?$CSimpleArray@GV?$CSimpleArrayEqualHelper@G@ATL@@@ATL@@QEAAHAEBG@Z 0000000180033210     MSR.obj
 0004:0000021c       $pdata$?AtlInternalQueryInterface@ATL@@YAJPEAXPEBU_ATL_INTMAP_ENTRY@1@AEBU_GUID@@PEAPEAX@Z 000000018003321c     MSR.obj
 0004:00000228       $pdata$?AtlComModuleGetClassObject@ATL@@YAJPEAU_ATL_COM_MODULE70@1@AEBU_GUID@@1PEAPEAX@Z 0000000180033228     MSR.obj
 0004:00000234       $pdata$?AtlRegisterClassCategoriesHelper@ATL@@YAJAEBU_GUID@@PEBU_ATL_CATMAP_ENTRY@1@H@Z 0000000180033234     MSR.obj
 0004:00000240       $pdata$?AtlLoadTypeLib@ATL@@YAJPEAUHINSTANCE__@@PEB_WPEAPEA_WPEAPEAUITypeLib@@@Z 0000000180033240     MSR.obj
 0004:0000024c       $pdata$?AtlRegisterTypeLib@ATL@@YAJPEAUHINSTANCE__@@PEB_W@Z 000000018003324c     MSR.obj
 0004:00000258       $pdata$?AtlUnRegisterTypeLib@ATL@@YAJPEAUHINSTANCE__@@PEB_W@Z 0000000180033258     MSR.obj
 0004:00000264       $pdata$?AtlComModuleRegisterServer@ATL@@YAJPEAU_ATL_COM_MODULE70@1@HPEBU_GUID@@@Z 0000000180033264     MSR.obj
 0004:00000270       $pdata$?AtlComModuleUnregisterServer@ATL@@YAJPEAU_ATL_COM_MODULE70@1@HPEBU_GUID@@@Z 0000000180033270     MSR.obj
 0004:0000027c       $pdata$?AtlModuleAddTermFunc@ATL@@YAJPEAU_ATL_MODULE70@1@P6AX_K@Z1@Z 000000018003327c     MSR.obj
 0004:00000288       $pdata$?AtlCallTermFunc@ATL@@YAXPEAU_ATL_MODULE70@1@@Z 0000000180033288     MSR.obj
 0004:00000294       $pdata$?AtlWinModuleExtractCreateWndData@ATL@@YAPEAXPEAU_ATL_WIN_MODULE70@1@@Z 0000000180033294     MSR.obj
 0004:000002a0       $pdata$?atlCreate@CRegKey@ATL@@QEAAJPEAUHKEY__@@PEB_WPEA_WKKPEAU_SECURITY_ATTRIBUTES@@PEAK@Z 00000001800332a0     MSR.obj
 0004:000002ac       $pdata$?Open@CRegKey@ATL@@QEAAJPEAUHKEY__@@PEB_WK@Z 00000001800332ac     MSR.obj
 0004:000002b8       $pdata$?DeleteSubKey@CRegKey@ATL@@QEAAJPEB_W@Z 00000001800332b8     MSR.obj
 0004:000002c4       $pdata$?RecurseDeleteKey@CRegKey@ATL@@QEAAJPEB_W@Z 00000001800332c4     MSR.obj
 0004:000002d0       $pdata$??0CAtlModule@ATL@@QEAA@XZ 00000001800332d0     MSR.obj
 0004:000002dc       $pdata$?GetGITPtr@CAtlModule@ATL@@UEAAJPEAPEAUIGlobalInterfaceTable@@@Z 00000001800332dc     MSR.obj
 0004:000002e8       $pdata$?UpdateRegistryFromResource@CAtlModule@ATL@@QEAAJPEB_WHPEAU_ATL_REGMAP_ENTRY@2@@Z 00000001800332e8     MSR.obj
 0004:000002f4       $pdata$?UpdateRegistryFromResource@CAtlModule@ATL@@QEAAJIHPEAU_ATL_REGMAP_ENTRY@2@@Z 00000001800332f4     MSR.obj
 0004:00000300       $pdata$?Term@CComModule@ATL@@QEAAXXZ 0000000180033300     MSR.obj
 0004:0000030c       $pdata$?GetClassObject@CComModule@ATL@@QEAAJAEBU_GUID@@0PEAPEAX@Z 000000018003330c     MSR.obj
 0004:00000318       $pdata$?RegisterServer@CComModule@ATL@@QEAAJHPEBU_GUID@@@Z 0000000180033318     MSR.obj
 0004:00000324       $pdata$?UnregisterServer@CComModule@ATL@@QEAAJHPEBU_GUID@@@Z 0000000180033324     MSR.obj
 0004:00000330       $pdata$??_GCComModule@ATL@@UEAAPEAXI@Z 0000000180033330     MSR.obj
 0004:0000033c       $pdata$?Add@?$CSimpleMap@PEA_WPEA_WVCExpansionVectorEqualHelper@ATL@@@ATL@@QEAAHAEBQEA_W0@Z 000000018003333c     MSR.obj
 0004:00000348       $pdata$?Lookup@?$CSimpleMap@PEA_WPEA_WVCExpansionVectorEqualHelper@ATL@@@ATL@@QEBAPEA_WAEBQEA_W@Z 0000000180033348     MSR.obj
 0004:00000354       $pdata$?Add@CExpansionVector@ATL@@QEAAHPEB_W0@Z 0000000180033354     MSR.obj
 0004:00000360       $pdata$?ClearReplacements@CExpansionVector@ATL@@QEAAJXZ 0000000180033360     MSR.obj
 0004:0000036c       $pdata$?PreProcessBuffer@CRegParser@ATL@@QEAAJPEA_WPEAPEA_W@Z 000000018003336c     MSR.obj
 0004:00000378       $pdata$?RegisterBuffer@CRegParser@ATL@@QEAAJPEA_WH@Z 0000000180033378     MSR.obj
 0004:00000384       $pdata$?NextToken@CRegParser@ATL@@IEAAJPEA_W@Z 0000000180033384     MSR.obj
 0004:00000390       $pdata$?AddValue@CRegParser@ATL@@IEAAJAEAVCRegKey@2@PEB_WPEA_W@Z 0000000180033390     MSR.obj
 0004:0000039c       $pdata$?RegisterSubkeys@CRegParser@ATL@@IEAAJPEA_WPEAUHKEY__@@HH@Z 000000018003339c     MSR.obj
 0004:000003a8       $pdata$?SkipAssignment@CRegParser@ATL@@IEAAJPEA_W@Z 00000001800333a8     MSR.obj
 0004:000003b4       $pdata$?HKeyFromString@CRegParser@ATL@@KAPEAUHKEY__@@PEA_W@Z 00000001800333b4     MSR.obj
 0004:000003c0       $pdata$?VTFromRegType@CRegParser@ATL@@KAHPEB_WAEAG@Z 00000001800333c0     MSR.obj
 0004:000003cc       $pdata$?Append@CParseBuffer@CRegParser@ATL@@QEAAHPEB_WH@Z 00000001800333cc     MSR.obj
 0004:000003d8       $pdata$?AddReplacement@CRegObject@ATL@@UEAAJPEB_W0@Z 00000001800333d8     MSR.obj
 0004:000003e4       $pdata$?RegisterFromResource@CRegObject@ATL@@IEAAJPEB_W00H@Z 00000001800333e4     MSR.obj
 0004:000003f0       $pdata$??_GCRegObject@ATL@@UEAAPEAXI@Z 00000001800333f0     MSR.obj
 0004:000003fc       $pdata$?AllocateHeap@?$CTempBuffer@_W$0BAA@VCCRTAllocator@ATL@@@ATL@@AEAAX_K@Z 00000001800333fc     MSR.obj
 0004:000003fc       $pdata$?AllocateHeap@?$CTempBuffer@_W$0EAA@VCCRTAllocator@ATL@@@ATL@@AEAAX_K@Z 00000001800333fc     MSR.obj
 0004:000003fc       $pdata$?AllocateHeap@?$CTempBuffer@E$0BAA@VCCRTAllocator@ATL@@@ATL@@AEAAX_K@Z 00000001800333fc     MSR.obj
 0004:00000408       $pdata$?IsEqualObject@?$CComPtrBase@UIOleClientSite@@@ATL@@QEAA_NPEAUIUnknown@@@Z 0000000180033408     MSR.obj
 0004:00000408       $pdata$?IsEqualObject@?$CComPtrBase@UITypeInfo@@@ATL@@QEAA_NPEAUIUnknown@@@Z 0000000180033408     MSR.obj
 0004:00000414       $pdata$?AtlIPersistStreamInit_Load@ATL@@YAJPEAUIStream@@PEBUATL_PROPMAP_ENTRY@1@PEAXPEAUIUnknown@@@Z 0000000180033414     MSR.obj
 0004:00000420       $pdata$?AtlIPersistStreamInit_Save@ATL@@YAJPEAUIStream@@HPEBUATL_PROPMAP_ENTRY@1@PEAXPEAUIUnknown@@@Z 0000000180033420     MSR.obj
 0004:0000042c       $pdata$?CreateInstance@CComClassFactory@ATL@@UEAAJPEAUIUnknown@@AEBU_GUID@@PEAPEAX@Z 000000018003342c     MSR.obj
 0004:00000438       $pdata$?LockServer@CComClassFactory@ATL@@UEAAJH@Z 0000000180033438     MSR.obj
 0004:00000444       $pdata$??_GCComClassFactory@ATL@@UEAAPEAXI@Z 0000000180033444     MSR.obj
 0004:00000450       $pdata$?GetTI@CComTypeInfoHolder@ATL@@QEAAJK@Z 0000000180033450     MSR.obj
 0004:0000045c       $pdata$?Cleanup@CComTypeInfoHolder@ATL@@SAX_K@Z 000000018003345c     MSR.obj
 0004:00000468       $pdata$?GetIDsOfNames@CComTypeInfoHolder@ATL@@QEAAJAEBU_GUID@@PEAPEA_WIKPEAJ@Z 0000000180033468     MSR.obj
 0004:00000474       $pdata$?LoadNameCache@CComTypeInfoHolder@ATL@@QEAAJPEAUITypeInfo@@@Z 0000000180033474     MSR.obj
 0004:00000480       $pdata$?Add@CComDynamicUnkArray@ATL@@QEAAKPEAUIUnknown@@@Z 0000000180033480     MSR.obj
 0004:0000048c       $pdata$?AtlCreateTargetDC@ATL@@YAPEAUHDC__@@PEAU2@PEAUtagDVTARGETDEVICE@@@Z 000000018003348c     MSR.obj
 0004:00000498       $pdata$?AtlHiMetricToPixel@ATL@@YAXPEBUtagSIZE@@PEAU2@@Z 0000000180033498     MSR.obj
 0004:000004a4       $pdata$?DefaultReflectionHandler@?$CWindowImplRoot@VCWindow@ATL@@@ATL@@SAHPEAUHWND__@@I_K_JAEA_J@Z 00000001800334a4     MSR.obj
 0004:000004b0       $pdata$?StartWindowProc@?$CWindowImplBaseT@VCWindow@ATL@@V?$CWinTraits@$0FGAAAAAA@$0A@@2@@ATL@@SA_JPEAUHWND__@@I_K_J@Z 00000001800334b0     MSR.obj
 0004:000004bc       $pdata$?WindowProc@?$CWindowImplBaseT@VCWindow@ATL@@V?$CWinTraits@$0FGAAAAAA@$0A@@2@@ATL@@SA_JPEAUHWND__@@I_K_J@Z 00000001800334bc     MSR.obj
 0004:000004c8       $pdata$?atlCreate@?$CWindowImplBaseT@VCWindow@ATL@@V?$CWinTraits@$0FGAAAAAA@$0A@@2@@ATL@@QEAAPEAUHWND__@@PEAU3@V_U_RECT@2@PEB_WKKV_U_MENUorID@2@GPEAX@Z 00000001800334c8     MSR.obj
 0004:000004d4       $pdata$??$AtlModuleRegisterWndClassInfoT@VAtlModuleRegisterWndClassInfoParamW@ATL@@@ATL@@YAGPEAU_ATL_BASE_MODULE70@0@PEAU_ATL_WIN_MODULE70@0@PEAU_ATL_WNDCLASSINFOW@0@PEAP6A_JPEAUHWND__@@I_K_J@ZVAtlModuleRegisterWndClassInfoParamW@0@@Z 00000001800334d4     MSR.obj
 0004:000004e0       $pdata$?GetZoomInfo@CComControlBase@ATL@@QEAAXAEAUATL_DRAWINFO@@@Z 00000001800334e0     MSR.obj
 0004:000004ec       $pdata$?SendOnDataChange@CComControlBase@ATL@@QEAAJK@Z 00000001800334ec     MSR.obj
 0004:000004f8       $pdata$?OnSetFocus@CComControlBase@ATL@@QEAA_JI_K_JAEAH@Z 00000001800334f8     MSR.obj
 0004:00000504       $pdata$?OnKillFocus@CComControlBase@ATL@@QEAA_JI_K_JAEAH@Z 0000000180033504     MSR.obj
 0004:00000510       $pdata$?OnMouseActivate@CComControlBase@ATL@@QEAA_JI_K_JAEAH@Z 0000000180033510     MSR.obj
 0004:0000051c       $pdata$?GetAmbientLocaleID@CComControlBase@ATL@@QEAAJAEAK@Z 000000018003351c     MSR.obj
 0004:00000528       $pdata$?GetAmbientUserMode@CComControlBase@ATL@@QEAAJAEAH@Z 0000000180033528     MSR.obj
 0004:00000534       $pdata$?SetControlFocus@CComControlBase@ATL@@QEAAHH@Z 0000000180033534     MSR.obj
 0004:00000540       $pdata$?IQuickActivate_QuickActivate@CComControlBase@ATL@@QEAAJPEAUtagQACONTAINER@@PEAUtagQACONTROL@@@Z 0000000180033540     MSR.obj
 0004:0000054c       $pdata$?DoVerbProperties@CComControlBase@ATL@@QEAAJPEBUtagRECT@@PEAUHWND__@@@Z 000000018003354c     MSR.obj
 0004:00000558       $pdata$?InPlaceActivate@CComControlBase@ATL@@QEAAJJPEBUtagRECT@@@Z 0000000180033558     MSR.obj
 0004:00000564       $pdata$?IOleObject_SetClientSite@CComControlBase@ATL@@QEAAJPEAUIOleClientSite@@@Z 0000000180033564     MSR.obj
 0004:00000570       $pdata$?IOleObject_Close@CComControlBase@ATL@@QEAAJK@Z 0000000180033570     MSR.obj
 0004:0000057c       $pdata$?IOleObject_SetExtent@CComControlBase@ATL@@QEAAJKPEAUtagSIZE@@@Z 000000018003357c     MSR.obj
 0004:00000588       $pdata$?IOleInPlaceObject_InPlaceDeactivate@CComControlBase@ATL@@QEAAJXZ 0000000180033588     MSR.obj
 0004:00000594       $pdata$?IOleInPlaceObject_UIDeactivate@CComControlBase@ATL@@QEAAJXZ 0000000180033594     MSR.obj
 0004:000005a0       $pdata$?IOleInPlaceObject_SetObjectRects@CComControlBase@ATL@@QEAAJPEBUtagRECT@@0@Z 00000001800335a0     MSR.obj
 0004:000005ac       $pdata$?IViewObject_Draw@CComControlBase@ATL@@QEAAJKJPEAXPEAUtagDVTARGETDEVICE@@PEAUHDC__@@2PEBU_RECTL@@3@Z 00000001800335ac     MSR.obj
 0004:000005b8       $pdata$?IDataObject_GetData@CComControlBase@ATL@@QEAAJPEAUtagFORMATETC@@PEAUtagSTGMEDIUM@@@Z 00000001800335b8     MSR.obj
 0004:000005c4       $pdata$?FireViewChange@CComControlBase@ATL@@QEAAJXZ 00000001800335c4     MSR.obj
 0004:000005d0       $pdata$?OnPaint@CComControlBase@ATL@@QEAA_JI_K_JAEAH@Z 00000001800335d0     MSR.obj
 0004:000005dc       $pdata$?OnDrawAdvanced@CComControlBase@ATL@@UEAAJAEAUATL_DRAWINFO@@@Z 00000001800335dc     MSR.obj
 0004:000005e8       $pdata$?GetTypeInfo@?$IDispatchImpl@UIOPOSMSR@@$1?IID_IOPOSMSR@@3U_GUID@@B$1?LIBID_OposMSR_CCO@@3U3@B$00$0A@VCComTypeInfoHolder@ATL@@@ATL@@UEAAJIKPEAPEAUITypeInfo@@@Z 00000001800335e8     MSR.obj
 0004:000005f4       $pdata$?Invoke@?$IDispatchImpl@UIOPOSMSR@@$1?IID_IOPOSMSR@@3U_GUID@@B$1?LIBID_OposMSR_CCO@@3U3@B$00$0A@VCComTypeInfoHolder@ATL@@@ATL@@UEAAJJAEBU_GUID@@KGPEAUtagDISPPARAMS@@PEAUtagVARIANT@@PEAUtagEXCEPINFO@@PEAI@Z 00000001800335f4     MSR.obj
 0004:00000600       $pdata$?atlCreate@?$CWindowImpl@VCOPOSMSR@@VCWindow@ATL@@V?$CWinTraits@$0FGAAAAAA@$0A@@3@@ATL@@QEAAPEAUHWND__@@PEAU3@V_U_RECT@2@PEB_WKKV_U_MENUorID@2@PEAX@Z 0000000180033600     MSR.obj
 0004:0000060c       $pdata$?CreateControlWindow@?$CComControl@VCOPOSMSR@@V?$CWindowImpl@VCOPOSMSR@@VCWindow@ATL@@V?$CWinTraits@$0FGAAAAAA@$0A@@3@@ATL@@@ATL@@UEAAPEAUHWND__@@PEAU3@AEAUtagRECT@@@Z 000000018003360c     MSR.obj
 0004:00000618       $pdata$?ProcessWindowMessage@?$CComControl@VCOPOSMSR@@V?$CWindowImpl@VCOPOSMSR@@VCWindow@ATL@@V?$CWinTraits@$0FGAAAAAA@$0A@@3@@ATL@@@ATL@@UEAAHPEAUHWND__@@I_K_JAEA_JK@Z 0000000180033618     MSR.obj
 0004:00000624       $pdata$?Load@?$IPersistStreamInitImpl@VCOPOSMSR@@@ATL@@UEAAJPEAUIStream@@@Z 0000000180033624     MSR.obj
 0004:00000630       $pdata$?Save@?$IPersistStreamInitImpl@VCOPOSMSR@@@ATL@@UEAAJPEAUIStream@@H@Z 0000000180033630     MSR.obj
 0004:0000063c       $pdata$?GetSizeMax@?$IPersistStreamInitImpl@VCOPOSMSR@@@ATL@@UEAAJPEAT_ULARGE_INTEGER@@@Z 000000018003363c     MSR.obj
 0004:00000648       $pdata$?GetClientSite@?$IOleObjectImpl@VCOPOSMSR@@@ATL@@UEAAJPEAPEAUIOleClientSite@@@Z 0000000180033648     MSR.obj
 0004:00000654       $pdata$?DoVerbPrimary@?$IOleObjectImpl@VCOPOSMSR@@@ATL@@QEAAJPEBUtagRECT@@PEAUHWND__@@@Z 0000000180033654     MSR.obj
 0004:00000660       $pdata$?DoVerb@?$IOleObjectImpl@VCOPOSMSR@@@ATL@@UEAAJJPEAUtagMSG@@PEAUIOleClientSite@@JPEAUHWND__@@PEBUtagRECT@@@Z 0000000180033660     MSR.obj
 0004:0000066c       $pdata$?Advise@?$IOleObjectImpl@VCOPOSMSR@@@ATL@@UEAAJPEAUIAdviseSink@@PEAK@Z 000000018003366c     MSR.obj
 0004:00000678       $pdata$?Unadvise@?$IOleObjectImpl@VCOPOSMSR@@@ATL@@UEAAJK@Z 0000000180033678     MSR.obj
 0004:00000684       $pdata$?EnumAdvise@?$IOleObjectImpl@VCOPOSMSR@@@ATL@@UEAAJPEAPEAUIEnumSTATDATA@@@Z 0000000180033684     MSR.obj
 0004:00000690       $pdata$?TranslateAcceleratorW@?$IOleInPlaceActiveObjectImpl@VCOPOSMSR@@@ATL@@UEAAJPEAUtagMSG@@@Z 0000000180033690     MSR.obj
 0004:0000069c       $pdata$?OnDocWindowActivate@?$IOleInPlaceActiveObjectImpl@VCOPOSMSR@@@ATL@@UEAAJH@Z 000000018003369c     MSR.obj
 0004:000006a8       $pdata$?Draw@?$IViewObjectExImpl@VCOPOSMSR@@@ATL@@UEAAJKJPEAXPEAUtagDVTARGETDEVICE@@PEAUHDC__@@2PEBU_RECTL@@3P6AH_K@Z4@Z 00000001800336a8     MSR.obj
 0004:000006b4       $pdata$?SetAdvise@?$IViewObjectExImpl@VCOPOSMSR@@@ATL@@UEAAJKKPEAUIAdviseSink@@@Z 00000001800336b4     MSR.obj
 0004:000006c0       $pdata$?GetAdvise@?$IViewObjectExImpl@VCOPOSMSR@@@ATL@@UEAAJPEAK0PEAPEAUIAdviseSink@@@Z 00000001800336c0     MSR.obj
 0004:000006cc       $pdata$?QueryHitPoint@?$IViewObjectExImpl@VCOPOSMSR@@@ATL@@UEAAJKPEBUtagRECT@@UtagPOINT@@JPEAK@Z 00000001800336cc     MSR.obj
 0004:000006d8       $pdata$?QueryHitRect@?$IViewObjectExImpl@VCOPOSMSR@@@ATL@@UEAAJKPEBUtagRECT@@0JPEAK@Z 00000001800336d8     MSR.obj
 0004:000006e4       $pdata$?OnWindowMessage@?$IOleInPlaceObjectWindowlessImpl@VCOPOSMSR@@@ATL@@UEAAJI_K_JPEA_J@Z 00000001800336e4     MSR.obj
 0004:000006f0       $pdata$?EnumConnectionPoints@?$IConnectionPointContainerImpl@VCOPOSMSR@@@ATL@@UEAAJPEAPEAUIEnumConnectionPoints@@@Z 00000001800336f0     MSR.obj
 0004:000006fc       $pdata$?FindConnectionPoint@?$IConnectionPointContainerImpl@VCOPOSMSR@@@ATL@@UEAAJAEBU_GUID@@PEAPEAUIConnectionPoint@@@Z 00000001800336fc     MSR.obj
 0004:00000708       $pdata$?IsDirty@?$IPersistStorageImpl@VCOPOSMSR@@@ATL@@UEAAJXZ 0000000180033708     MSR.obj
 0004:00000714       $pdata$?InitNew@?$IPersistStorageImpl@VCOPOSMSR@@@ATL@@UEAAJPEAUIStorage@@@Z 0000000180033714     MSR.obj
 0004:00000720       $pdata$?Load@?$IPersistStorageImpl@VCOPOSMSR@@@ATL@@UEAAJPEAUIStorage@@@Z 0000000180033720     MSR.obj
 0004:0000072c       $pdata$?Save@?$IPersistStorageImpl@VCOPOSMSR@@@ATL@@UEAAJPEAUIStorage@@H@Z 000000018003372c     MSR.obj
 0004:00000738       $pdata$?IPSI_GetIPersistStreamInit@?$IPersistStorageImpl@VCOPOSMSR@@@ATL@@AEAAPEAUIPersistStreamInit@@XZ 0000000180033738     MSR.obj
 0004:00000744       $pdata$?GetPagesHelper@?$ISpecifyPropertyPagesImpl@VCOPOSMSR@@@ATL@@IEAAJPEAUtagCAUUID@@PEBUATL_PROPMAP_ENTRY@2@@Z 0000000180033744     MSR.obj
 0004:00000750       $pdata$?DAdvise@?$IDataObjectImpl@VCOPOSMSR@@@ATL@@UEAAJPEAUtagFORMATETC@@KPEAUIAdviseSink@@PEAK@Z 0000000180033750     MSR.obj
 0004:0000075c       $pdata$?GetClassInfoW@?$IProvideClassInfo2Impl@$1?CLSID_OPOSMSR@@3U_GUID@@B$1?DIID__IOPOSMSREvents@@3U2@B$1?LIBID_OposMSR_CCO@@3U2@B$00$0A@VCComTypeInfoHolder@ATL@@@ATL@@UEAAJPEAPEAUITypeInfo@@@Z 000000018003375c     MSR.obj
 0004:00000768       $pdata$?GetInterfaceSafetyOptions@?$IObjectSafetyImpl@VCOPOSMSR@@$02@ATL@@UEAAJAEBU_GUID@@PEAK1@Z 0000000180033768     MSR.obj
 0004:00000774       $pdata$?SetInterfaceSafetyOptions@?$IObjectSafetyImpl@VCOPOSMSR@@$02@ATL@@UEAAJAEBU_GUID@@KK@Z 0000000180033774     MSR.obj
 0004:00000780       $pdata$?_LocCPQueryInterface@?$IConnectionPointImpl@VCOPOSMSR@@$1?IID_IPropertyNotifySink@@3U_GUID@@BVCComDynamicUnkArray@ATL@@@ATL@@UEAAJAEBU_GUID@@PEAPEAX@Z 0000000180033780     MSR.obj
 0004:00000780       $pdata$?_LocCPQueryInterface@?$IConnectionPointImpl@VCOPOSMSR@@$1?DIID__IOPOSMSREvents@@3U_GUID@@BVCComDynamicUnkArray@ATL@@@ATL@@UEAAJAEBU_GUID@@PEAPEAX@Z 0000000180033780     MSR.obj
 0004:0000078c       $pdata$?Advise@?$IConnectionPointImpl@VCOPOSMSR@@$1?IID_IPropertyNotifySink@@3U_GUID@@BVCComDynamicUnkArray@ATL@@@ATL@@UEAAJPEAUIUnknown@@PEAK@Z 000000018003378c     MSR.obj
 0004:0000078c       $pdata$?Advise@?$IConnectionPointImpl@VCOPOSMSR@@$1?DIID__IOPOSMSREvents@@3U_GUID@@BVCComDynamicUnkArray@ATL@@@ATL@@UEAAJPEAUIUnknown@@PEAK@Z 000000018003378c     MSR.obj
 0004:00000798       $pdata$?Unadvise@?$IConnectionPointImpl@VCOPOSMSR@@$1?IID_IPropertyNotifySink@@3U_GUID@@BVCComDynamicUnkArray@ATL@@@ATL@@UEAAJK@Z 0000000180033798     MSR.obj
 0004:00000798       $pdata$?Unadvise@?$IConnectionPointImpl@VCOPOSMSR@@$1?DIID__IOPOSMSREvents@@3U_GUID@@BVCComDynamicUnkArray@ATL@@@ATL@@UEAAJK@Z 0000000180033798     MSR.obj
 0004:000007a4       $pdata$?EnumConnections@?$IConnectionPointImpl@VCOPOSMSR@@$1?IID_IPropertyNotifySink@@3U_GUID@@BVCComDynamicUnkArray@ATL@@@ATL@@UEAAJPEAPEAUIEnumConnections@@@Z 00000001800337a4     MSR.obj
 0004:000007a4       $pdata$?EnumConnections@?$IConnectionPointImpl@VCOPOSMSR@@$1?DIID__IOPOSMSREvents@@3U_GUID@@BVCComDynamicUnkArray@ATL@@@ATL@@UEAAJPEAPEAUIEnumConnections@@@Z 00000001800337a4     MSR.obj
 0004:000007b0       $pdata$?Fire_DataEvent@?$CProxy_IOPOSEvents@VCOPOSMSR@@@@QEAAXJ@Z 00000001800337b0     MSR.obj
 0004:000007bc       $pdata$?Fire_DirectIOEvent@?$CProxy_IOPOSEvents@VCOPOSMSR@@@@QEAAXJPEAJPEAPEA_W@Z 00000001800337bc     MSR.obj
 0004:000007c8       $pdata$?Fire_ErrorEvent@?$CProxy_IOPOSEvents@VCOPOSMSR@@@@QEAAXJJJPEAJ@Z 00000001800337c8     MSR.obj
 0004:000007d4       $pdata$?Fire_StatusUpdateEvent@?$CProxy_IOPOSEvents@VCOPOSMSR@@@@QEAAXJ@Z 00000001800337d4     MSR.obj
 0004:000007e0       $pdata$?FireTheEvent@?$CProxy_IOPOSEvents@VCOPOSMSR@@@@IEAAXPEAVOposVariant@@IAEAJPEB_WJ@Z 00000001800337e0     MSR.obj
 0004:000007ec       $pdata$?GetConnMap@COPOSMSR@@SAPEBU_ATL_CONNMAP_ENTRY@ATL@@PEAH@Z 00000001800337ec     MSR.obj
 0004:000007f8       $pdata$?ProcessWindowMessage@COPOSMSR@@UEAAHPEAUHWND__@@I_K_JAEA_JK@Z 00000001800337f8     MSR.obj
 0004:00000804       $pdata$?SOData@COPOSMSR@@MEAAJJ@Z 0000000180033804     MSR.obj
 0004:00000810       $pdata$?SODirectIO@COPOSMSR@@MEAAJJPEAJPEAPEA_W@Z 0000000180033810     MSR.obj
 0004:0000081c       $pdata$?SOError@COPOSMSR@@MEAAJJJJPEAJ@Z 000000018003381c     MSR.obj
 0004:00000828       $pdata$?SOStatusUpdate@COPOSMSR@@MEAAJJ@Z 0000000180033828     MSR.obj
 0004:00000834       $pdata$?DoEvent@COPOSMSR@@IEAAXI_K_J@Z 0000000180033834     MSR.obj
 0004:00000840       $pdata$??__E_Module@@YAXXZ 0000000180033840     MSR.obj
 0004:0000084c       $pdata$??__F_Module@@YAXXZ 000000018003384c     MSR.obj
 0004:00000858       $pdata$?CreateInstance@?$CComCreator@V?$CComObjectCached@VCComClassFactory@ATL@@@ATL@@@ATL@@SAJPEAXAEBU_GUID@@PEAPEAX@Z 0000000180033858     MSR.obj
 0004:00000864       $pdata$DllMain             0000000180033864     MSR.obj
 0004:00000870       $pdata$?CreateInstance@?$CComCreator@V?$CComObject@VCOPOSMSR@@@ATL@@@ATL@@SAJPEAXAEBU_GUID@@PEAPEAX@Z 0000000180033870     MSR.obj
 0004:0000087c       $pdata$?CreateInstance@?$CComCreator@V?$CComAggObject@VCOPOSMSR@@@ATL@@@ATL@@SAJPEAXAEBU_GUID@@PEAPEAX@Z 000000018003387c     MSR.obj
 0004:00000888       $pdata$??1?$CComEnumImpl@UIEnumConnectionPoints@@$1?_GUID_b196b285_bab4_101a_b69c_00aa00341d07@@3U__s_GUID@@BPEAUIConnectionPoint@@V?$_CopyInterface@UIConnectionPoint@@@ATL@@@ATL@@UEAA@XZ 0000000180033888     MSR.obj
 0004:00000894       $pdata$?Next@?$CComEnumImpl@UIEnumConnectionPoints@@$1?_GUID_b196b285_bab4_101a_b69c_00aa00341d07@@3U__s_GUID@@BPEAUIConnectionPoint@@V?$_CopyInterface@UIConnectionPoint@@@ATL@@@ATL@@UEAAJKPEAPEAUIConnectionPoint@@PEAK@Z 0000000180033894     MSR.obj
 0004:000008a0       $pdata$?Clone@?$CComEnumImpl@UIEnumConnectionPoints@@$1?_GUID_b196b285_bab4_101a_b69c_00aa00341d07@@3U__s_GUID@@BPEAUIConnectionPoint@@V?$_CopyInterface@UIConnectionPoint@@@ATL@@@ATL@@UEAAJPEAPEAUIEnumConnectionPoints@@@Z 00000001800338a0     MSR.obj
 0004:000008ac       $pdata$?Init@?$CComEnumImpl@UIEnumConnectionPoints@@$1?_GUID_b196b285_bab4_101a_b69c_00aa00341d07@@3U__s_GUID@@BPEAUIConnectionPoint@@V?$_CopyInterface@UIConnectionPoint@@@ATL@@@ATL@@QEAAJPEAPEAUIConnectionPoint@@0PEAUIUnknown@@W4CComEnumFlags@2@@Z 00000001800338ac     MSR.obj
 0004:000008b8       $pdata$?Release@?$CComObject@V?$CComEnum@UIEnumConnections@@$1?_GUID_b196b287_bab4_101a_b69c_00aa00341d07@@3U__s_GUID@@BUtagCONNECTDATA@@V?$_Copy@UtagCONNECTDATA@@@ATL@@VCComSingleThreadModel@6@@ATL@@@ATL@@UEAAKXZ 00000001800338b8     MSR.obj
 0004:000008b8       $pdata$?Release@?$CComObject@V?$CComEnum@UIEnumConnectionPoints@@$1?_GUID_b196b285_bab4_101a_b69c_00aa00341d07@@3U__s_GUID@@BPEAUIConnectionPoint@@V?$_CopyInterface@UIConnectionPoint@@@ATL@@VCComSingleThreadModel@6@@ATL@@@ATL@@UEAAKXZ 00000001800338b8     MSR.obj
 0004:000008c4       $pdata$?CreateInstance@?$CComObject@V?$CComEnum@UIEnumConnectionPoints@@$1?_GUID_b196b285_bab4_101a_b69c_00aa00341d07@@3U__s_GUID@@BPEAUIConnectionPoint@@V?$_CopyInterface@UIConnectionPoint@@@ATL@@VCComSingleThreadModel@6@@ATL@@@ATL@@SAJPEAPEAV12@@Z 00000001800338c4     MSR.obj
 0004:000008d0       $pdata$??_G?$CComObject@V?$CComEnum@UIEnumConnectionPoints@@$1?_GUID_b196b285_bab4_101a_b69c_00aa00341d07@@3U__s_GUID@@BPEAUIConnectionPoint@@V?$_CopyInterface@UIConnectionPoint@@@ATL@@VCComSingleThreadModel@6@@ATL@@@ATL@@UEAAPEAXI@Z 00000001800338d0     MSR.obj
 0004:000008dc       $pdata$?AddRef@?$CComObjectCached@VCComClassFactory@ATL@@@ATL@@UEAAKXZ 00000001800338dc     MSR.obj
 0004:000008e8       $pdata$?Release@?$CComObjectCached@VCComClassFactory@ATL@@@ATL@@UEAAKXZ 00000001800338e8     MSR.obj
 0004:000008f4       $pdata$??_G?$CComObjectCached@VCComClassFactory@ATL@@@ATL@@UEAAPEAXI@Z 00000001800338f4     MSR.obj
 0004:00000900       $pdata$?Release@?$CComAggObject@VCOPOSMSR@@@ATL@@UEAAKXZ 0000000180033900     MSR.obj
 0004:0000090c       $pdata$?QueryInterface@?$CComAggObject@VCOPOSMSR@@@ATL@@UEAAJAEBU_GUID@@PEAPEAX@Z 000000018003390c     MSR.obj
 0004:00000918       $pdata$??0?$CComContainedObject@VCOPOSMSR@@@ATL@@QEAA@PEAX@Z 0000000180033918     MSR.obj
 0004:00000924       $pdata$??_G?$CComContainedObject@VCOPOSMSR@@@ATL@@UEAAPEAXI@Z 0000000180033924     MSR.obj
 0004:00000930       $pdata$??_G?$CComAggObject@VCOPOSMSR@@@ATL@@UEAAPEAXI@Z 0000000180033930     MSR.obj
 0004:0000093c       $pdata$??0?$CComObject@VCOPOSMSR@@@ATL@@QEAA@PEAX@Z 000000018003393c     MSR.obj
 0004:00000948       $pdata$??1?$CComObject@VCOPOSMSR@@@ATL@@UEAA@XZ 0000000180033948     MSR.obj
 0004:00000954       $pdata$?Release@?$CComObject@VCOPOSMSR@@@ATL@@UEAAKXZ 0000000180033954     MSR.obj
 0004:00000960       $pdata$??_G?$CComObject@VCOPOSMSR@@@ATL@@UEAAPEAXI@Z 0000000180033960     MSR.obj
 0004:0000096c       $pdata$??__E?pConnMap@?$IConnectionPointContainerImpl@VCOPOSMSR@@@ATL@@0PEBU_ATL_CONNMAP_ENTRY@2@EB@@YAXXZ 000000018003396c     MSR.obj
 0004:00000978       $pdata$??1?$CComEnumImpl@UIEnumConnections@@$1?_GUID_b196b287_bab4_101a_b69c_00aa00341d07@@3U__s_GUID@@BUtagCONNECTDATA@@V?$_Copy@UtagCONNECTDATA@@@ATL@@@ATL@@UEAA@XZ 0000000180033978     MSR.obj
 0004:00000984       $pdata$?Next@?$CComEnumImpl@UIEnumConnections@@$1?_GUID_b196b287_bab4_101a_b69c_00aa00341d07@@3U__s_GUID@@BUtagCONNECTDATA@@V?$_Copy@UtagCONNECTDATA@@@ATL@@@ATL@@UEAAJKPEAUtagCONNECTDATA@@PEAK@Z 0000000180033984     MSR.obj
 0004:00000990       $pdata$?Clone@?$CComEnumImpl@UIEnumConnections@@$1?_GUID_b196b287_bab4_101a_b69c_00aa00341d07@@3U__s_GUID@@BUtagCONNECTDATA@@V?$_Copy@UtagCONNECTDATA@@@ATL@@@ATL@@UEAAJPEAPEAUIEnumConnections@@@Z 0000000180033990     MSR.obj
 0004:0000099c       $pdata$?Init@?$CComEnumImpl@UIEnumConnections@@$1?_GUID_b196b287_bab4_101a_b69c_00aa00341d07@@3U__s_GUID@@BUtagCONNECTDATA@@V?$_Copy@UtagCONNECTDATA@@@ATL@@@ATL@@QEAAJPEAUtagCONNECTDATA@@0PEAUIUnknown@@W4CComEnumFlags@2@@Z 000000018003399c     MSR.obj
 0004:000009a8       $pdata$?CreateInstance@?$CComObject@V?$CComEnum@UIEnumConnections@@$1?_GUID_b196b287_bab4_101a_b69c_00aa00341d07@@3U__s_GUID@@BUtagCONNECTDATA@@V?$_Copy@UtagCONNECTDATA@@@ATL@@VCComSingleThreadModel@6@@ATL@@@ATL@@SAJPEAPEAV12@@Z 00000001800339a8     MSR.obj
 0004:000009b4       $pdata$??_G?$CComObject@V?$CComEnum@UIEnumConnections@@$1?_GUID_b196b287_bab4_101a_b69c_00aa00341d07@@3U__s_GUID@@BUtagCONNECTDATA@@V?$_Copy@UtagCONNECTDATA@@@ATL@@VCComSingleThreadModel@6@@ATL@@@ATL@@UEAAPEAXI@Z 00000001800339b4     MSR.obj
 0004:000009c0       $pdata$??1CComControlBase@ATL@@UEAA@XZ 00000001800339c0     MSRImpl.obj
 0004:000009cc       $pdata$??1?$IConnectionPointImpl@VCOPOSMSR@@$1?IID_IPropertyNotifySink@@3U_GUID@@BVCComDynamicUnkArray@ATL@@@ATL@@QEAA@XZ 00000001800339cc     MSRImpl.obj
 0004:000009cc       $pdata$??1?$IConnectionPointImpl@VCOPOSMSR@@$1?DIID__IOPOSMSREvents@@3U_GUID@@BVCComDynamicUnkArray@ATL@@@ATL@@QEAA@XZ 00000001800339cc     MSRImpl.obj
 0004:000009d8       $pdata$?FinalConstruct@COPOSMSR@@QEAAJXZ 00000001800339d8     MSRImpl.obj
 0004:000009e4       $pdata$??1COPOSMSR@@UEAA@XZ 00000001800339e4     MSRImpl.obj
 0004:000009f0       $pdata$?GetOposProp@COPOSMSR@@IEAAJJPEAJJ@Z 00000001800339f0     MSRImpl.obj
 0004:000009fc       $pdata$?SetOposProp@COPOSMSR@@IEAAJJJJ@Z 00000001800339fc     MSRImpl.obj
 0004:00000a08       $pdata$?GetOposProp@COPOSMSR@@IEAAJJPEAPEA_WJ@Z 0000000180033a08     MSRImpl.obj
 0004:00000a14       $pdata$?SetOposProp@COPOSMSR@@IEAAJJPEA_WJ@Z 0000000180033a14     MSRImpl.obj
 0004:00000a20       $pdata$?DoInvoke@COPOSMSR@@IEAAJJPEAVOposVariant@@IHPEAJ_N@Z 0000000180033a20     MSRImpl.obj
 0004:00000a2c       $pdata$?SetCOFreezeEvents@COPOSMSR@@IEAAXF@Z 0000000180033a2c     MSRImpl.obj
 0004:00000a38       $pdata$?FreezeEvents@COPOSMSR@@MEAAJH@Z 0000000180033a38     MSRImpl.obj
 0004:00000a44       $pdata$?OnDraw@COPOSMSR@@MEAAJAEAUATL_DRAWINFO@@@Z 0000000180033a44     MSRImpl.obj
 0004:00000a50       $pdata$?EventInit@COPOSMSR@@IEAAJXZ 0000000180033a50     MSRImpl.obj
 0004:00000a5c       $pdata$?EventUninit@COPOSMSR@@IEAAXXZ 0000000180033a5c     MSRImpl.obj
 0004:00000a68       $pdata$?s_EventWindowProc@COPOSMSR@@KA_JPEAUHWND__@@I_K_J@Z 0000000180033a68     MSRImpl.obj
 0004:00000a74       $pdata$?EventWindowProc@COPOSMSR@@IEAA_JI_K_J@Z 0000000180033a74     MSRImpl.obj
 0004:00000a80       $pdata$?SOProcessID@COPOSMSR@@UEAAJPEAJ@Z 0000000180033a80     MSRImpl.obj
 0004:00000a8c       $pdata$?get_Claimed@COPOSMSR@@UEAAJPEAF@Z 0000000180033a8c     MSRImpl.obj
 0004:00000a98       $pdata$?get_DataEventEnabled@COPOSMSR@@UEAAJPEAF@Z 0000000180033a98     MSRImpl.obj
 0004:00000aa4       $pdata$?get_DeviceEnabled@COPOSMSR@@UEAAJPEAF@Z 0000000180033aa4     MSRImpl.obj
 0004:00000ab0       $pdata$?get_FreezeEvents@COPOSMSR@@UEAAJPEAF@Z 0000000180033ab0     MSRImpl.obj
 0004:00000abc       $pdata$?put_FreezeEvents@COPOSMSR@@UEAAJF@Z 0000000180033abc     MSRImpl.obj
 0004:00000ac8       $pdata$?get_ResultCode@COPOSMSR@@UEAAJPEAJ@Z 0000000180033ac8     MSRImpl.obj
 0004:00000ad4       $pdata$?get_State@COPOSMSR@@UEAAJPEAJ@Z 0000000180033ad4     MSRImpl.obj
 0004:00000ae0       $pdata$?get_ControlObjectDescription@COPOSMSR@@UEAAJPEAPEA_W@Z 0000000180033ae0     MSRImpl.obj
 0004:00000aec       $pdata$?CheckHealth@COPOSMSR@@UEAAJJPEAJ@Z 0000000180033aec     MSRImpl.obj
 0004:00000af8       $pdata$?ClaimDevice@COPOSMSR@@UEAAJJPEAJ@Z 0000000180033af8     MSRImpl.obj
 0004:00000b04       $pdata$?ClearInput@COPOSMSR@@UEAAJPEAJ@Z 0000000180033b04     MSRImpl.obj
 0004:00000b10       $pdata$?Close@COPOSMSR@@UEAAJPEAJ@Z 0000000180033b10     MSRImpl.obj
 0004:00000b1c       $pdata$?DirectIO@COPOSMSR@@UEAAJJPEAJPEAPEA_W0@Z 0000000180033b1c     MSRImpl.obj
 0004:00000b28       $pdata$?Open@COPOSMSR@@UEAAJPEA_WPEAJ@Z 0000000180033b28     MSRImpl.obj
 0004:00000b34       $pdata$?ReleaseDevice@COPOSMSR@@UEAAJPEAJ@Z 0000000180033b34     MSRImpl.obj
 0004:00000b40       $pdata$?get_CapISO@COPOSMSR@@UEAAJPEAF@Z 0000000180033b40     MSRImpl.obj
 0004:00000b4c       $pdata$?get_CapJISOne@COPOSMSR@@UEAAJPEAF@Z 0000000180033b4c     MSRImpl.obj
 0004:00000b58       $pdata$?get_CapJISTwo@COPOSMSR@@UEAAJPEAF@Z 0000000180033b58     MSRImpl.obj
 0004:00000b64       $pdata$?get_DecodeData@COPOSMSR@@UEAAJPEAF@Z 0000000180033b64     MSRImpl.obj
 0004:00000b70       $pdata$?get_ParseDecodeData@COPOSMSR@@UEAAJPEAF@Z 0000000180033b70     MSRImpl.obj
 0004:00000b70       $pdata$?get_ParseDecodedData@COPOSMSR@@UEAAJPEAF@Z 0000000180033b70     MSRImpl.obj
 0004:00000b7c       $pdata$?get_AutoDisable@COPOSMSR@@UEAAJPEAF@Z 0000000180033b7c     MSRImpl.obj
 0004:00000b88       $pdata$?get_CapTransmitSentinels@COPOSMSR@@UEAAJPEAF@Z 0000000180033b88     MSRImpl.obj
 0004:00000b94       $pdata$?get_TransmitSentinels@COPOSMSR@@UEAAJPEAF@Z 0000000180033b94     MSRImpl.obj
 0004:00000ba0       $pdata$?get_CapStatisticsReporting@COPOSMSR@@UEAAJPEAF@Z 0000000180033ba0     MSRImpl.obj
 0004:00000bac       $pdata$?get_CapUpdateStatistics@COPOSMSR@@UEAAJPEAF@Z 0000000180033bac     MSRImpl.obj
 0004:00000bb8       $pdata$?ResetStatistics@COPOSMSR@@UEAAJPEA_WPEAJ@Z 0000000180033bb8     MSRImpl.obj
 0004:00000bc4       $pdata$?RetrieveStatistics@COPOSMSR@@UEAAJPEAPEA_WPEAJ@Z 0000000180033bc4     MSRImpl.obj
 0004:00000bd0       $pdata$?UpdateStatistics@COPOSMSR@@UEAAJPEA_WPEAJ@Z 0000000180033bd0     MSRImpl.obj
 0004:00000bdc       $pdata$?get_CapCompareFirmwareVersion@COPOSMSR@@UEAAJPEAF@Z 0000000180033bdc     MSRImpl.obj
 0004:00000be8       $pdata$?get_CapUpdateFirmware@COPOSMSR@@UEAAJPEAF@Z 0000000180033be8     MSRImpl.obj
 0004:00000bf4       $pdata$?CompareFirmwareVersion@COPOSMSR@@UEAAJPEA_WPEAJ1@Z 0000000180033bf4     MSRImpl.obj
 0004:00000c00       $pdata$?UpdateFirmware@COPOSMSR@@UEAAJPEA_WPEAJ@Z 0000000180033c00     MSRImpl.obj
 0004:00000c0c       $pdata$?ClearInputProperties@COPOSMSR@@UEAAJPEAJ@Z 0000000180033c0c     MSRImpl.obj
 0004:00000c18       $pdata$?WriteTracks@COPOSMSR@@UEAAJUtagVARIANT@@JPEAJ@Z 0000000180033c18     MSRImpl.obj
 0004:00000c24       $pdata$?get_CapTrackDataMasking@COPOSMSR@@UEAAJPEAF@Z 0000000180033c24     MSRImpl.obj
 0004:00000c30       $pdata$?get_DeviceAuthenticated@COPOSMSR@@UEAAJPEAF@Z 0000000180033c30     MSRImpl.obj
 0004:00000c3c       $pdata$?AuthenticateDevice@COPOSMSR@@UEAAJPEA_WPEAJ@Z 0000000180033c3c     MSRImpl.obj
 0004:00000c48       $pdata$?DeauthenticateDevice@COPOSMSR@@UEAAJPEA_WPEAJ@Z 0000000180033c48     MSRImpl.obj
 0004:00000c54       $pdata$?RetrieveCardProperty@COPOSMSR@@UEAAJPEA_WPEAPEA_WPEAJ@Z 0000000180033c54     MSRImpl.obj
 0004:00000c60       $pdata$?RetrieveDeviceAuthenticationData@COPOSMSR@@UEAAJPEAPEA_WPEAJ@Z 0000000180033c60     MSRImpl.obj
 0004:00000c6c       $pdata$?UpdateKey@COPOSMSR@@UEAAJPEA_W0PEAJ@Z 0000000180033c6c     MSRImpl.obj
 0004:00000c78       $pdata$atexit              0000000180033c78     LIBCMT:utility.obj
 0004:00000c84       $pdata$_onexit             0000000180033c84     LIBCMT:utility.obj
 0004:00000c90       $pdata$__scrt_is_nonwritable_in_current_image 0000000180033c90     LIBCMT:utility.obj
 0004:00000c9c       $pdata$__scrt_is_nonwritable_in_current_image$filt$0 0000000180033c9c     LIBCMT:utility.obj
 0004:00000ca8       $pdata$__scrt_acquire_startup_lock 0000000180033ca8     LIBCMT:utility.obj
 0004:00000cb4       $pdata$__scrt_release_startup_lock 0000000180033cb4     LIBCMT:utility.obj
 0004:00000cc0       $pdata$__scrt_initialize_crt 0000000180033cc0     LIBCMT:utility.obj
 0004:00000ccc       $pdata$__scrt_uninitialize_crt 0000000180033ccc     LIBCMT:utility.obj
 0004:00000cd8       $pdata$__scrt_initialize_onexit_tables 0000000180033cd8     LIBCMT:utility.obj
 0004:00000ce4       $pdata$__scrt_dllmain_exception_filter 0000000180033ce4     LIBCMT:utility.obj
 0004:00000cf0       $pdata$__scrt_dllmain_before_initialize_c 0000000180033cf0     LIBCMT:utility.obj
 0004:00000cfc       $pdata$__scrt_dllmain_after_initialize_c 0000000180033cfc     LIBCMT:utility.obj
 0004:00000d08       $pdata$__scrt_dllmain_uninitialize_c 0000000180033d08     LIBCMT:utility.obj
 0004:00000d14       $pdata$__scrt_dllmain_uninitialize_critical 0000000180033d14     LIBCMT:utility.obj
 0004:00000d20       $pdata$__scrt_dllmain_crt_thread_attach 0000000180033d20     LIBCMT:utility.obj
 0004:00000d2c       $pdata$__scrt_dllmain_crt_thread_detach 0000000180033d2c     LIBCMT:utility.obj
 0004:00000d38       $pdata$_Init_thread_header 0000000180033d38     LIBCMT:thread_safe_statics.obj
 0004:00000d44       $pdata$_Init_thread_footer 0000000180033d44     LIBCMT:thread_safe_statics.obj
 0004:00000d50       $pdata$_Init_thread_wait   0000000180033d50     LIBCMT:thread_safe_statics.obj
 0004:00000d5c       $pdata$_Init_thread_notify 0000000180033d5c     LIBCMT:thread_safe_statics.obj
 0004:00000d68       $pdata$?__scrt_uninitialize_thread_safe_statics@@YAXXZ 0000000180033d68     LIBCMT:thread_safe_statics.obj
 0004:00000d74       $pdata$?__scrt_initialize_thread_safe_statics@@YAHXZ 0000000180033d74     LIBCMT:thread_safe_statics.obj
 0004:00000d80       $pdata$__report_securityfailure 0000000180033d80     LIBCMT:gs_report.obj
 0004:00000d8c       $pdata$__report_rangecheckfailure 0000000180033d8c     LIBCMT:gs_report.obj
 0004:00000d98       $pdata$__report_gsfailure  0000000180033d98     LIBCMT:gs_report.obj
 0004:00000da4       $pdata$capture_current_context 0000000180033da4     LIBCMT:gs_report.obj
 0004:00000db0       $pdata$capture_previous_context 0000000180033db0     LIBCMT:gs_report.obj
 0004:00000dbc       $pdata$__raise_securityfailure 0000000180033dbc     LIBCMT:gs_report.obj
 0004:00000dc8       $pdata$??2@YAPEAX_KAEBUnothrow_t@std@@@Z 0000000180033dc8     LIBCMT:new_scalar_nothrow.obj
 0004:00000dd4       $pdata$?catch$0@?0???2@YAPEAX_KAEBUnothrow_t@std@@@Z@4HA 0000000180033dd4     LIBCMT:new_scalar_nothrow.obj
 0004:00000de0       $pdata$__GSHandlerCheckCommon 0000000180033de0     LIBCMT:gshandler.obj
 0004:00000dec       $pdata$__GSHandlerCheck    0000000180033dec     LIBCMT:gshandler.obj
 0004:00000df8       $pdata$__GSHandlerCheck_SEH 0000000180033df8     LIBCMT:gshandlerseh.obj
 0004:00000e1c       $pdata$?dllmain_crt_process_attach@@YAHQEAUHINSTANCE__@@QEAX@Z 0000000180033e1c     LIBCMT:dll_dllmain.obj
 0004:00000e28       $pdata$?fin$0@?0??dllmain_crt_process_attach@@YAHQEAUHINSTANCE__@@QEAX@Z@4HA 0000000180033e28     LIBCMT:dll_dllmain.obj
 0004:00000e34       $pdata$?dllmain_crt_process_detach@@YAH_N@Z 0000000180033e34     LIBCMT:dll_dllmain.obj
 0004:00000e40       $pdata$?fin$0@?0??dllmain_crt_process_detach@@YAH_N@Z@4HA 0000000180033e40     LIBCMT:dll_dllmain.obj
 0004:00000e4c       $pdata$?dllmain_crt_dispatch@@YAHQEAUHINSTANCE__@@KQEAX@Z 0000000180033e4c     LIBCMT:dll_dllmain.obj
 0004:00000e58       $pdata$?dllmain_dispatch@@YAHQEAUHINSTANCE__@@KQEAX@Z 0000000180033e58     LIBCMT:dll_dllmain.obj
 0004:00000e64       $pdata$?filt$0@?0??dllmain_dispatch@@YAHQEAUHINSTANCE__@@KQEAX@Z@4HA 0000000180033e64     LIBCMT:dll_dllmain.obj
 0004:00000e70       $pdata$_DllMainCRTStartup  0000000180033e70     LIBCMT:dll_dllmain.obj
 0004:00000e7c       $pdata$??2@YAPEAX_K@Z      0000000180033e7c     LIBCMT:new_scalar.obj
 0004:00000e88       $pdata$__isa_available_init 0000000180033e88     LIBCMT:cpu_disp.obj
 0004:00000e94       $pdata$__scrt_fastfail     0000000180033e94     LIBCMT:utility_desktop.obj
 0004:00000ea0       $pdata$__security_init_cookie 0000000180033ea0     LIBCMT:gs_support.obj
 0004:00000eac       $pdata$__scrt_initialize_default_local_stdio_options 0000000180033eac     LIBCMT:default_local_stdio_options.obj
 0004:00000eb8       $pdata$_RTC_Initialize     0000000180033eb8     LIBCMT:initsect.obj
 0004:00000ec4       $pdata$_RTC_Terminate      0000000180033ec4     LIBCMT:initsect.obj
 0004:00000ed0       $pdata$??0exception@std@@QEAA@AEBV01@@Z 0000000180033ed0     LIBCMT:throw_bad_alloc.obj
 0004:00000edc       $pdata$??_Gbad_exception@std@@UEAAPEAXI@Z 0000000180033edc     libvcruntime:frame.obj
 0004:00000edc       $pdata$??_Gexception@std@@UEAAPEAXI@Z 0000000180033edc     LIBCMT:throw_bad_alloc.obj
 0004:00000edc       $pdata$??_Gbad_array_new_length@std@@UEAAPEAXI@Z 0000000180033edc     LIBCMT:throw_bad_alloc.obj
 0004:00000edc       $pdata$??_Gbad_alloc@std@@UEAAPEAXI@Z 0000000180033edc     LIBCMT:throw_bad_alloc.obj
 0004:00000ee8       $pdata$??0bad_alloc@std@@QEAA@AEBV01@@Z 0000000180033ee8     LIBCMT:throw_bad_alloc.obj
 0004:00000ef4       $pdata$??0bad_array_new_length@std@@QEAA@AEBV01@@Z 0000000180033ef4     LIBCMT:throw_bad_alloc.obj
 0004:00000f00       $pdata$?__scrt_throw_std_bad_alloc@@YAXXZ 0000000180033f00     LIBCMT:throw_bad_alloc.obj
 0004:00000f0c       $pdata$?__scrt_throw_std_bad_array_new_length@@YAXXZ 0000000180033f0c     LIBCMT:throw_bad_alloc.obj
 0004:00000f24       $pdata$??_Gtype_info@@UEAAPEAXI@Z 0000000180033f24     LIBCMT:std_type_info_static.obj
 0004:00000f30       $pdata$??0CAtlBaseModule@ATL@@QEAA@XZ 0000000180033f30     atls:atlbase.obj
 0004:00000f3c       $pdata$??1CAtlBaseModule@ATL@@QEAA@XZ 0000000180033f3c     atls:atlbase.obj
 0004:00000f48       $pdata$??__E_AtlBaseModule@ATL@@YAXXZ 0000000180033f48     atls:atlbase.obj
 0004:00000f54       $pdata$AtlThunk_AllocateData 0000000180033f54     atls:atlthunk.obj
 0004:00000f60       $pdata$AtlThunk_InitData   0000000180033f60     atls:atlthunk.obj
 0004:00000f6c       $pdata$AtlThunk_DataToCode 0000000180033f6c     atls:atlthunk.obj
 0004:00000f78       $pdata$AtlThunk_FreeData   0000000180033f78     atls:atlthunk.obj
 0004:00000f84       $pdata$?__InitializeThunkPool@@YAHXZ 0000000180033f84     atls:atlthunk.obj
 0004:00000f90       $pdata$?__AllocStdCallThunk_cmn@@YAPEAXXZ 0000000180033f90     atls:atlthunk.obj
 0004:00000f9c       $pdata$??$GetProcAddressAll@P6APEAUAtlThunkData_t@@XZ@@YAP6APEAUAtlThunkData_t@@XZPEAP6APEAU0@XZ@Z 0000000180033f9c     atls:atlthunk.obj
 0004:00000f9c       $pdata$??$GetProcAddressAll@P6AXPEAUAtlThunkData_t@@PEAX_K@Z@@YAP6AXPEAUAtlThunkData_t@@PEAX_K@ZPEAP6AX012@Z@Z 0000000180033f9c     atls:atlthunk.obj
 0004:00000f9c       $pdata$??$GetProcAddressAll@P6AXPEAUAtlThunkData_t@@@Z@@YAP6AXPEAUAtlThunkData_t@@@ZPEAP6AX0@Z@Z 0000000180033f9c     atls:atlthunk.obj
 0004:00000f9c       $pdata$??$GetProcAddressAll@P6AP6A_JPEAUHWND__@@I_K_J@ZPEAUAtlThunkData_t@@@Z@@YAP6AP6A_JPEAUHWND__@@I_K_J@ZPEAUAtlThunkData_t@@@ZPEAP6AP6A_J0I12@Z3@Z@Z 0000000180033f9c     atls:atlthunk.obj
 0004:00000fc0       $pdata$_purecall           0000000180033fc0     libvcruntime:purevirt.obj
 0004:00000fcc       $pdata$wcsstr              0000000180033fcc     libvcruntime:wcsstr.obj
 0004:00000ffc       $pdata$__vcrt_initialize   0000000180033ffc     libvcruntime:initialization.obj
 0004:00001008       $pdata$__vcrt_uninitialize 0000000180034008     libvcruntime:initialization.obj
 0004:00001014       $pdata$__vcrt_uninitialize_critical 0000000180034014     libvcruntime:initialization.obj
 0004:00001020       $pdata$__vcrt_thread_attach 0000000180034020     libvcruntime:initialization.obj
 0004:0000102c       $pdata$__vcrt_thread_detach 000000018003402c     libvcruntime:initialization.obj
 0004:00001038       $pdata$__C_specific_handler 0000000180034038     libvcruntime:riscchandler.obj
 0004:00001044       $pdata$__std_terminate     0000000180034044     libvcruntime:ehhelpers.obj
 0004:00001050       $pdata$_IsExceptionObjectToBeDestroyed 0000000180034050     libvcruntime:ehhelpers.obj
 0004:0000105c       $pdata$__FrameUnwindFilter 000000018003405c     libvcruntime:ehhelpers.obj
 0004:00001068       $pdata$__DestructExceptionObject 0000000180034068     libvcruntime:ehhelpers.obj
 0004:00001074       $pdata$__DestructExceptionObject$filt$0 0000000180034074     libvcruntime:ehhelpers.obj
 0004:00001080       $pdata$?CatchTryBlock@__FrameHandler3@@SAPEBU_s_TryBlockMapEntry@@PEBU_s_FuncInfo@@H@Z 0000000180034080     libvcruntime:risctrnsctrl.obj
 0004:0000108c       $pdata$?ExecutionInCatch@__FrameHandler3@@SA_NPEAU_xDISPATCHER_CONTEXT@@PEBU_s_FuncInfo@@@Z 000000018003408c     libvcruntime:risctrnsctrl.obj
 0004:00001098       $pdata$?FrameUnwindToEmptyState@__FrameHandler3@@SAXPEA_KPEAU_xDISPATCHER_CONTEXT@@PEBU_s_FuncInfo@@@Z 0000000180034098     libvcruntime:risctrnsctrl.obj
 0004:000010a4       $pdata$?GetEstablisherFrame@__FrameHandler3@@SAPEA_KPEA_KPEAU_xDISPATCHER_CONTEXT@@PEBU_s_FuncInfo@@0@Z 00000001800340a4     libvcruntime:risctrnsctrl.obj
 0004:000010b0       $pdata$?UnwindNestedFrames@__FrameHandler3@@SAXPEA_KPEAUEHExceptionRecord@@PEAU_CONTEXT@@0PEAXPEBU_s_FuncInfo@@HHPEBU_s_HandlerType@@PEAU_xDISPATCHER_CONTEXT@@E@Z 00000001800340b0     libvcruntime:risctrnsctrl.obj
 0004:000010bc       $pdata$?GetRangeOfTrysToCheck@__FrameHandler3@@SA?AU?$pair@Viterator@TryBlockMap@__FrameHandler3@@V123@@std@@AEAVTryBlockMap@1@HH@Z 00000001800340bc     libvcruntime:risctrnsctrl.obj
 0004:000010c8       $pdata$_GetImageBase       00000001800340c8     libvcruntime:risctrnsctrl.obj
 0004:000010d4       $pdata$_SetImageBase       00000001800340d4     libvcruntime:risctrnsctrl.obj
 0004:000010e0       $pdata$_GetThrowImageBase  00000001800340e0     libvcruntime:risctrnsctrl.obj
 0004:000010ec       $pdata$_SetThrowImageBase  00000001800340ec     libvcruntime:risctrnsctrl.obj
 0004:000010f8       $pdata$_CreateFrameInfo    00000001800340f8     libvcruntime:risctrnsctrl.obj
 0004:00001104       $pdata$_FindAndUnlinkFrame 0000000180034104     libvcruntime:risctrnsctrl.obj
 0004:00001110       $pdata$__CxxFrameHandler3  0000000180034110     libvcruntime:risctrnsctrl.obj
 0004:0000111c       $pdata$??$_CallSETranslator@V__FrameHandler3@@@@YAHPEAUEHExceptionRecord@@PEA_KPEAU_CONTEXT@@PEAU_xDISPATCHER_CONTEXT@@PEBU_s_FuncInfo@@K1@Z 000000018003411c     libvcruntime:risctrnsctrl.obj
 0004:00001128       $pdata$?filt$0@?0???$_CallSETranslator@V__FrameHandler3@@@@YAHPEAUEHExceptionRecord@@PEA_KPEAU_CONTEXT@@PEAU_xDISPATCHER_CONTEXT@@PEBU_s_FuncInfo@@K1@Z@4HA 0000000180034128     libvcruntime:risctrnsctrl.obj
 0004:00001134       $pdata$__std_type_info_destroy_list 0000000180034134     libvcruntime:std_type_info.obj
 0004:00001140       $pdata$__std_exception_copy 0000000180034140     libvcruntime:std_exception.obj
 0004:0000114c       $pdata$__std_exception_destroy 000000018003414c     libvcruntime:std_exception.obj
 0004:00001158       $pdata$_CxxThrowException  0000000180034158     libvcruntime:throw.obj
 0004:00001164       $pdata$__vcrt_initialize_ptd 0000000180034164     libvcruntime:per_thread_data.obj
 0004:00001170       $pdata$__vcrt_uninitialize_ptd 0000000180034170     libvcruntime:per_thread_data.obj
 0004:0000117c       $pdata$__vcrt_getptd       000000018003417c     libvcruntime:per_thread_data.obj
 0004:00001188       $pdata$__vcrt_getptd_noexit 0000000180034188     libvcruntime:per_thread_data.obj
 0004:00001194       $pdata$__vcrt_freeptd      0000000180034194     libvcruntime:per_thread_data.obj
 0004:000011a0       $pdata$__vcrt_freefls      00000001800341a0     libvcruntime:per_thread_data.obj
 0004:000011ac       $pdata$__vcrt_initialize_locks 00000001800341ac     libvcruntime:locks.obj
 0004:000011b8       $pdata$__vcrt_uninitialize_locks 00000001800341b8     libvcruntime:locks.obj
 0004:000011c4       $pdata$__vcrt_FlsAlloc     00000001800341c4     libvcruntime:winapi_downlevel.obj
 0004:000011d0       $pdata$__vcrt_FlsFree      00000001800341d0     libvcruntime:winapi_downlevel.obj
 0004:000011dc       $pdata$__vcrt_FlsGetValue  00000001800341dc     libvcruntime:winapi_downlevel.obj
 0004:000011e8       $pdata$__vcrt_FlsSetValue  00000001800341e8     libvcruntime:winapi_downlevel.obj
 0004:000011f4       $pdata$__vcrt_InitializeCriticalSectionEx 00000001800341f4     libvcruntime:winapi_downlevel.obj
 0004:00001200       $pdata$__vcrt_initialize_winapi_thunks 0000000180034200     libvcruntime:winapi_downlevel.obj
 0004:0000120c       $pdata$__vcrt_uninitialize_winapi_thunks 000000018003420c     libvcruntime:winapi_downlevel.obj
 0004:00001218       $pdata$?try_get_function@@YAPEAXW4function_id@?A0xbfd18cd1@@QEBDQEBW4module_id@2@2@Z 0000000180034218     libvcruntime:winapi_downlevel.obj
 0004:00001248       $pdata$?StateFromIp@__FrameHandler3@@SAHPEBU_s_FuncInfo@@PEAU_xDISPATCHER_CONTEXT@@_K@Z 0000000180034248     libvcruntime:ehstate.obj
 0004:00001254       $pdata$?GetCurrentState@__FrameHandler3@@SAHPEA_KPEAU_xDISPATCHER_CONTEXT@@PEBU_s_FuncInfo@@@Z 0000000180034254     libvcruntime:ehstate.obj
 0004:00001260       $pdata$?SetUnwindTryBlock@__FrameHandler3@@SAXPEA_KPEAU_xDISPATCHER_CONTEXT@@PEBU_s_FuncInfo@@H@Z 0000000180034260     libvcruntime:ehstate.obj
 0004:0000126c       $pdata$?GetUnwindTryBlock@__FrameHandler3@@SAHPEA_KPEAU_xDISPATCHER_CONTEXT@@PEBU_s_FuncInfo@@@Z 000000018003426c     libvcruntime:ehstate.obj
 0004:00001278       $pdata$?FrameUnwindToState@__FrameHandler3@@SAXPEA_KPEAU_xDISPATCHER_CONTEXT@@PEBU_s_FuncInfo@@H@Z 0000000180034278     libvcruntime:frame.obj
 0004:00001284       $pdata$?filt$0@?0??FrameUnwindToState@__FrameHandler3@@SAXPEA_KPEAU_xDISPATCHER_CONTEXT@@PEBU_s_FuncInfo@@H@Z@4HA 0000000180034284     libvcruntime:frame.obj
 0004:00001290       $pdata$?fin$1@?0??FrameUnwindToState@__FrameHandler3@@SAXPEA_KPEAU_xDISPATCHER_CONTEXT@@PEBU_s_FuncInfo@@H@Z@4HA 0000000180034290     libvcruntime:frame.obj
 0004:0000129c       $pdata$?GetHandlerSearchState@__FrameHandler3@@SAHPEA_KPEAU_xDISPATCHER_CONTEXT@@PEBU_s_FuncInfo@@@Z 000000018003429c     libvcruntime:frame.obj
 0004:000012a8       $pdata$?CxxCallCatchBlock@__FrameHandler3@@SAPEAXPEAU_EXCEPTION_RECORD@@@Z 00000001800342a8     libvcruntime:frame.obj
 0004:000012b4       $pdata$?filt$0@?0??CxxCallCatchBlock@__FrameHandler3@@SAPEAXPEAU_EXCEPTION_RECORD@@@Z@4HA 00000001800342b4     libvcruntime:frame.obj
 0004:000012c0       $pdata$?fin$1@?0??CxxCallCatchBlock@__FrameHandler3@@SAPEAXPEAU_EXCEPTION_RECORD@@@Z@4HA 00000001800342c0     libvcruntime:frame.obj
 0004:000012cc       $pdata$??0bad_exception@std@@QEAA@AEBV01@@Z 00000001800342cc     libvcruntime:frame.obj
 0004:000012d8       $pdata$?ExFilterRethrow@@YAHPEAU_EXCEPTION_POINTERS@@PEAUEHExceptionRecord@@PEAH@Z 00000001800342d8     libvcruntime:frame.obj
 0004:000012e4       $pdata$?IsInExceptionSpec@@YAEPEAUEHExceptionRecord@@PEBU_s_ESTypeList@@@Z 00000001800342e4     libvcruntime:frame.obj
 0004:000012f0       $pdata$?Is_bad_exception_allowed@@YAEPEBU_s_ESTypeList@@@Z 00000001800342f0     libvcruntime:frame.obj
 0004:000012fc       $pdata$??$__InternalCxxFrameHandler@V__FrameHandler3@@@@YA?AW4_EXCEPTION_DISPOSITION@@PEAUEHExceptionRecord@@PEA_KPEAU_CONTEXT@@PEAU_xDISPATCHER_CONTEXT@@PEBU_s_FuncInfo@@H1E@Z 00000001800342fc     libvcruntime:frame.obj
 0004:00001308       $pdata$??$TypeMatchHelper@V__FrameHandler3@@@@YAHPEBU_s_HandlerType@@PEBU_s_CatchableType@@PEBU_s_ThrowInfo@@@Z 0000000180034308     libvcruntime:frame.obj
 0004:00001314       $pdata$??$BuildCatchObjectHelperInternal@V__FrameHandler3@@@@YAHPEAUEHExceptionRecord@@PEAXPEBU_s_HandlerType@@PEBU_s_CatchableType@@@Z 0000000180034314     libvcruntime:frame.obj
 0004:00001320       $pdata$??$BuildCatchObjectInternal@V__FrameHandler3@@@@YAXPEAUEHExceptionRecord@@PEAXPEBU_s_HandlerType@@PEBU_s_CatchableType@@@Z 0000000180034320     libvcruntime:frame.obj
 0004:0000132c       $pdata$??$FindHandler@V__FrameHandler3@@@@YAXPEAUEHExceptionRecord@@PEA_KPEAU_CONTEXT@@PEAU_xDISPATCHER_CONTEXT@@PEBU_s_FuncInfo@@EH1@Z 000000018003432c     libvcruntime:frame.obj
 0004:00001338       $pdata$??$CatchIt@V__FrameHandler3@@@@YAXPEAUEHExceptionRecord@@PEA_KPEAU_CONTEXT@@PEAU_xDISPATCHER_CONTEXT@@PEBU_s_FuncInfo@@PEBU_s_HandlerType@@PEBU_s_CatchableType@@PEBU_s_TryBlockMapEntry@@H1EE@Z 0000000180034338     libvcruntime:frame.obj
 0004:00001344       $pdata$??$FindHandlerForForeignException@V__FrameHandler3@@@@YAXPEAUEHExceptionRecord@@PEA_KPEAU_CONTEXT@@PEAU_xDISPATCHER_CONTEXT@@PEBU_s_FuncInfo@@HH1@Z 0000000180034344     libvcruntime:frame.obj
 0004:00001368       $pdata$_invalid_parameter_noinfo 0000000180034368     libucrt:invalid_parameter.obj
 0004:00001374       $pdata$_invoke_watson      0000000180034374     libucrt:invalid_parameter.obj
 0004:00001380       $pdata$__acrt_call_reportfault 0000000180034380     libucrt:invalid_parameter.obj
 0004:0000138c       $pdata$_invalid_parameter  000000018003438c     libucrt:invalid_parameter.obj
 0004:00001398       $pdata$_errno              0000000180034398     libucrt:errno.obj
 0004:000013a4       $pdata$__doserrno          00000001800343a4     libucrt:errno.obj
 0004:000013b0       $pdata$__acrt_errno_map_os_error 00000001800343b0     libucrt:errno.obj
 0004:000013bc       $pdata$_recalloc_base      00000001800343bc     libucrt:recalloc.obj
 0004:000013c8       $pdata$_resetstkoflw       00000001800343c8     libucrt:resetstk.obj
 0004:000013d4       $pdata$wcscat_s            00000001800343d4     libucrt:wcscat_s.obj
 0004:000013e0       $pdata$wcscpy_s            00000001800343e0     libucrt:wcscpy_s.obj
 0004:000013ec       $pdata$wcsncpy_s           00000001800343ec     libucrt:wcsncpy_s.obj
 0004:000013f8       $pdata$??0_LocaleUpdate@@QEAA@QEAU__crt_locale_pointers@@@Z 00000001800343f8     libucrt:output.obj
 0004:00001404       $pdata$__stdio_common_vswprintf_s 0000000180034404     libucrt:output.obj
 0004:00001410       $pdata$?force_decimal_point@__crt_stdio_output@@YAXPEADQEAU__crt_locale_pointers@@@Z 0000000180034410     libucrt:output.obj
 0004:0000141c       $pdata$?write_string@?$string_output_adapter@_W@__crt_stdio_output@@QEBAXQEB_WHQEAH1@Z 000000018003441c     libucrt:output.obj
 0004:00001428       $pdata$??$common_vsprintf@Vformat_validation_base@__crt_stdio_output@@_W@@YAH_KQEA_W0QEB_WQEAU__crt_locale_pointers@@QEAD@Z 0000000180034428     libucrt:output.obj
 0004:00001434       $pdata$??$write_multiple_characters@V?$string_output_adapter@_W@__crt_stdio_output@@D@__crt_stdio_output@@YAXAEBV?$string_output_adapter@_W@0@DHQEAH@Z 0000000180034434     libucrt:output.obj
 0004:00001440       $pdata$??$ensure_buffer_is_big_enough@D@formatting_buffer@__crt_stdio_output@@QEAA_N_K@Z 0000000180034440     libucrt:output.obj
 0004:0000144c       $pdata$??0?$output_processor@_WV?$string_output_adapter@_W@__crt_stdio_output@@V?$format_validation_base@_WV?$string_output_adapter@_W@__crt_stdio_output@@@2@@__crt_stdio_output@@QEAA@AEBV?$string_output_adapter@_W@1@_KQEB_WQEAU__crt_locale_pointers@@QEAD@Z 000000018003444c     libucrt:output.obj
 0004:00001458       $pdata$?process@?$output_processor@_WV?$string_output_adapter@_W@__crt_stdio_output@@V?$format_validation_base@_WV?$string_output_adapter@_W@__crt_stdio_output@@@2@@__crt_stdio_output@@QEAAHXZ 0000000180034458     libucrt:output.obj
 0004:00001464       $pdata$?parse_int_from_format_string@?$output_processor@_WV?$string_output_adapter@_W@__crt_stdio_output@@V?$format_validation_base@_WV?$string_output_adapter@_W@__crt_stdio_output@@@2@@__crt_stdio_output@@AEAA_NQEAH@Z 0000000180034464     libucrt:output.obj
 0004:00001470       $pdata$?state_case_size@?$output_processor@_WV?$string_output_adapter@_W@__crt_stdio_output@@V?$format_validation_base@_WV?$string_output_adapter@_W@__crt_stdio_output@@@2@@__crt_stdio_output@@AEAA_NXZ 0000000180034470     libucrt:output.obj
 0004:0000147c       $pdata$?state_case_type@?$output_processor@_WV?$string_output_adapter@_W@__crt_stdio_output@@V?$format_validation_base@_WV?$string_output_adapter@_W@__crt_stdio_output@@@2@@__crt_stdio_output@@AEAA_NXZ 000000018003447c     libucrt:output.obj
 0004:00001488       $pdata$?type_case_c_tchar@?$output_processor@_WV?$string_output_adapter@_W@__crt_stdio_output@@V?$format_validation_base@_WV?$string_output_adapter@_W@__crt_stdio_output@@@2@@__crt_stdio_output@@AEAA_N_W@Z 0000000180034488     libucrt:output.obj
 0004:00001494       $pdata$?type_case_Z@?$output_processor@_WV?$string_output_adapter@_W@__crt_stdio_output@@V?$format_validation_base@_WV?$string_output_adapter@_W@__crt_stdio_output@@@2@@__crt_stdio_output@@AEAA_NXZ 0000000180034494     libucrt:output.obj
 0004:000014a0       $pdata$?type_case_s@?$output_processor@_WV?$string_output_adapter@_W@__crt_stdio_output@@V?$format_validation_base@_WV?$string_output_adapter@_W@__crt_stdio_output@@@2@@__crt_stdio_output@@AEAA_NXZ 00000001800344a0     libucrt:output.obj
 0004:000014ac       $pdata$?type_case_a@?$output_processor@_WV?$string_output_adapter@_W@__crt_stdio_output@@V?$format_validation_base@_WV?$string_output_adapter@_W@__crt_stdio_output@@@2@@__crt_stdio_output@@AEAA_NXZ 00000001800344ac     libucrt:output.obj
 0004:000014b8       $pdata$?type_case_integer@?$output_processor@_WV?$string_output_adapter@_W@__crt_stdio_output@@V?$format_validation_base@_WV?$string_output_adapter@_W@__crt_stdio_output@@@2@@__crt_stdio_output@@AEAA_NI_N@Z 00000001800344b8     libucrt:output.obj
 0004:000014c4       $pdata$?type_case_n@?$output_processor@_WV?$string_output_adapter@_W@__crt_stdio_output@@V?$format_validation_base@_WV?$string_output_adapter@_W@__crt_stdio_output@@@2@@__crt_stdio_output@@AEAA_NXZ 00000001800344c4     libucrt:output.obj
 0004:000014d0       $pdata$?write_stored_string_tchar@?$output_processor@_WV?$string_output_adapter@_W@__crt_stdio_output@@V?$format_validation_base@_WV?$string_output_adapter@_W@__crt_stdio_output@@@2@@__crt_stdio_output@@AEAA_N_W@Z 00000001800344d0     libucrt:output.obj
 0004:000014dc       $pdata$??$type_case_integer_parse_into_buffer@_K@?$output_processor@_WV?$string_output_adapter@_W@__crt_stdio_output@@V?$format_validation_base@_WV?$string_output_adapter@_W@__crt_stdio_output@@@2@@__crt_stdio_output@@AEAAX_KI_N@Z 00000001800344dc     libucrt:output.obj
 0004:000014e8       $pdata$??$type_case_integer_parse_into_buffer@I@?$output_processor@_WV?$string_output_adapter@_W@__crt_stdio_output@@V?$format_validation_base@_WV?$string_output_adapter@_W@__crt_stdio_output@@@2@@__crt_stdio_output@@AEAAXII_N@Z 00000001800344e8     libucrt:output.obj
 0004:000014f4       $pdata$_seh_filter_exe     00000001800344f4     libucrt:exception_filter.obj
 0004:00001500       $pdata$?try_cor_exit_process@@YAXI@Z 0000000180034500     libucrt:exit.obj
 0004:0000150c       $pdata$?exit_or_terminate_process@@YAXI@Z 000000018003450c     libucrt:exit.obj
 0004:00001518       $pdata$?common_exit@@YAXHW4_crt_exit_cleanup_mode@@W4_crt_exit_return_mode@@@Z 0000000180034518     libucrt:exit.obj
 0004:00001524       $pdata$?filt$0@?0??common_exit@@YAXHW4_crt_exit_cleanup_mode@@W4_crt_exit_return_mode@@@Z@4HA 0000000180034524     libucrt:exit.obj
 0004:00001530       $pdata$?fin$1@?0??common_exit@@YAXHW4_crt_exit_cleanup_mode@@W4_crt_exit_return_mode@@@Z@4HA 0000000180034530     libucrt:exit.obj
 0004:0000153c       $pdata$_configure_narrow_argv 000000018003453c     libucrt:argv_parsing.obj
 0004:00001548       $pdata$__acrt_allocate_buffer_for_argv 0000000180034548     libucrt:argv_parsing.obj
 0004:00001554       $pdata$??$parse_command_line@D@@YAXPEADPEAPEAD0PEA_K2@Z 0000000180034554     libucrt:argv_parsing.obj
 0004:00001560       $pdata$__dcrt_uninitialize_environments_nolock 0000000180034560     libucrt:environment_initialization.obj
 0004:0000156c       $pdata$??$common_initialize_environment_nolock@D@@YAHXZ 000000018003456c     libucrt:environment_initialization.obj
 0004:00001578       $pdata$??$uninitialize_environment_internal@D@@YAXAEAPEAPEAD@Z 0000000180034578     libucrt:environment_initialization.obj
 0004:00001584       $pdata$??$uninitialize_environment_internal@_W@@YAXAEAPEAPEA_W@Z 0000000180034584     libucrt:environment_initialization.obj
 0004:00001590       $pdata$??$free_environment@D@@YAXQEAPEAD@Z 0000000180034590     libucrt:environment_initialization.obj
 0004:00001590       $pdata$??$free_environment@_W@@YAXQEAPEA_W@Z 0000000180034590     libucrt:environment_initialization.obj
 0004:0000159c       $pdata$??$create_environment@D@@YAQEAPEADQEAD@Z 000000018003459c     libucrt:environment_initialization.obj
 0004:000015a8       $pdata$_register_onexit_function 00000001800345a8     libucrt:onexit.obj
 0004:000015b4       $pdata$_execute_onexit_table 00000001800345b4     libucrt:onexit.obj
 0004:000015c0       $pdata$??R<lambda_4e60a939b0d047cfe11ddc22648dfba9>@@QEBAHXZ 00000001800345c0     libucrt:onexit.obj
 0004:000015cc       $pdata$??$?RV<lambda_b8c45f8f788dd370798f47cfe8ac3a86>@@AEAV<lambda_4e60a939b0d047cfe11ddc22648dfba9>@@V<lambda_332c3edc96d0294ec56c57d38c1cdfd5>@@@?$__crt_seh_guarded_call@H@@QEAAH$$QEAV<lambda_b8c45f8f788dd370798f47cfe8ac3a86>@@AEAV<lambda_4e60a939b0d047cfe11ddc22648dfba9>@@$$QEAV<lambda_332c3edc96d0294ec56c57d38c1cdfd5>@@@Z 00000001800345cc     libucrt:onexit.obj
 0004:000015d8       $pdata$?fin$0@?0???$?RV<lambda_b8c45f8f788dd370798f47cfe8ac3a86>@@AEAV<lambda_4e60a939b0d047cfe11ddc22648dfba9>@@V<lambda_332c3edc96d0294ec56c57d38c1cdfd5>@@@?$__crt_seh_guarded_call@H@@QEAAH$$QEAV<lambda_b8c45f8f788dd370798f47cfe8ac3a86>@@AEAV<lambda_4e60a939b0d047cfe11ddc22648dfba9>@@$$QEAV<lambda_332c3edc96d0294ec56c57d38c1cdfd5>@@@Z@4HA 00000001800345d8     libucrt:onexit.obj
 0004:000015d8       $pdata$?fin$0@?0???$?RV<lambda_c36588078e9f5dfd39652860aa6b3aaf>@@AEAV<lambda_ec61778202f4f5fc7e7711acc23c3bca>@@V<lambda_dc9d2797ccde5d239b4a0efae8ebd7db>@@@?$__crt_seh_guarded_call@P6AXH@Z@@QEAAP6AXH@Z$$QEAV<lambda_c36588078e9f5dfd39652860aa6b3aaf>@@AEAV<lambda_ec61778202f4f5fc7e7711acc23c3bca>@@$$QEAV<lambda_dc9d2797ccde5d239b4a0efae8ebd7db>@@@Z@4HA 00000001800345d8     libucrt:signal.obj
 0004:000015d8       $pdata$?fin$0@?0???$?RV<lambda_fb3a7dec4e47f37f22dae91bb15c9095>@@AEAV<lambda_698284760c8add0bfb0756c19673e34b>@@V<lambda_dfb8eca1e75fef3034a8fb18dd509707>@@@?$__crt_seh_guarded_call@X@@QEAAX$$QEAV<lambda_fb3a7dec4e47f37f22dae91bb15c9095>@@AEAV<lambda_698284760c8add0bfb0756c19673e34b>@@$$QEAV<lambda_dfb8eca1e75fef3034a8fb18dd509707>@@@Z@4HA 00000001800345d8     libucrt:per_thread_data.obj
 0004:000015d8       $pdata$?fin$0@?0???$?RV<lambda_46352004c1216016012b18bd6f87e700>@@AEAV<lambda_3bd07e1a1191394380780325891bf33f>@@V<lambda_334532d3f185bcaa59b5be82d7d22bff>@@@?$__crt_seh_guarded_call@X@@QEAAX$$QEAV<lambda_46352004c1216016012b18bd6f87e700>@@AEAV<lambda_3bd07e1a1191394380780325891bf33f>@@$$QEAV<lambda_334532d3f185bcaa59b5be82d7d22bff>@@@Z@4HA 00000001800345d8     libucrt:per_thread_data.obj
 0004:000015d8       $pdata$?fin$0@?0???$?RV<lambda_5e887d1dcbef67a5eb4283622ba103bf>@@AEAV<lambda_4466841279450cc726390878d4a41900>@@V<lambda_341c25c0346d94847f1f3c463c57e077>@@@?$__crt_seh_guarded_call@X@@QEAAX$$QEAV<lambda_5e887d1dcbef67a5eb4283622ba103bf>@@AEAV<lambda_4466841279450cc726390878d4a41900>@@$$QEAV<lambda_341c25c0346d94847f1f3c463c57e077>@@@Z@4HA 00000001800345d8     libucrt:per_thread_data.obj
 0004:000015d8       $pdata$?fin$0@?0???$?RV<lambda_72d1df2b273a38828b1ce30cbf4cdab5>@@AEAV<lambda_876a65b173b8412d3a47c70a915b0cf4>@@V<lambda_41932305e351933ebe8f8be3ed8bb5dc>@@@?$__crt_seh_guarded_call@X@@QEAAX$$QEAV<lambda_72d1df2b273a38828b1ce30cbf4cdab5>@@AEAV<lambda_876a65b173b8412d3a47c70a915b0cf4>@@$$QEAV<lambda_41932305e351933ebe8f8be3ed8bb5dc>@@@Z@4HA 00000001800345d8     libucrt:per_thread_data.obj
 0004:000015d8       $pdata$?fin$0@?0???$?RV<lambda_99476a1ad63dd22509b5d3e65b0ffc95>@@AEAV<lambda_ad1ced32f4ac17aa236e5ef05d6b3b7c>@@V<lambda_f7424dd8d45958661754dc4f2697e9c3>@@@?$__crt_seh_guarded_call@X@@QEAAX$$QEAV<lambda_99476a1ad63dd22509b5d3e65b0ffc95>@@AEAV<lambda_ad1ced32f4ac17aa236e5ef05d6b3b7c>@@$$QEAV<lambda_f7424dd8d45958661754dc4f2697e9c3>@@@Z@4HA 00000001800345d8     libucrt:mbctype.obj
 0004:000015e4       $pdata$??$?RV<lambda_e24bbb7b643b32fcea6fa61b31d4c984>@@AEAV<lambda_275893d493268fdec8709772e3fcec0e>@@V<lambda_9d71df4d7cf3f480f8d633942495c3b0>@@@?$__crt_seh_guarded_call@H@@QEAAH$$QEAV<lambda_e24bbb7b643b32fcea6fa61b31d4c984>@@AEAV<lambda_275893d493268fdec8709772e3fcec0e>@@$$QEAV<lambda_9d71df4d7cf3f480f8d633942495c3b0>@@@Z 00000001800345e4     libucrt:onexit.obj
 0004:000015f0       $pdata$?fin$0@?0???$?RV<lambda_e24bbb7b643b32fcea6fa61b31d4c984>@@AEAV<lambda_275893d493268fdec8709772e3fcec0e>@@V<lambda_9d71df4d7cf3f480f8d633942495c3b0>@@@?$__crt_seh_guarded_call@H@@QEAAH$$QEAV<lambda_e24bbb7b643b32fcea6fa61b31d4c984>@@AEAV<lambda_275893d493268fdec8709772e3fcec0e>@@$$QEAV<lambda_9d71df4d7cf3f480f8d633942495c3b0>@@@Z@4HA 00000001800345f0     libucrt:onexit.obj
 0004:000015fc       $pdata$__acrt_uninitialize_critical 00000001800345fc     libucrt:initialization.obj
 0004:00001608       $pdata$__acrt_thread_attach 0000000180034608     libucrt:initialization.obj
 0004:00001614       $pdata$__acrt_thread_detach 0000000180034614     libucrt:initialization.obj
 0004:00001620       $pdata$initialize_c        0000000180034620     libucrt:initialization.obj
 0004:0000162c       $pdata$uninitialize_environment 000000018003462c     libucrt:initialization.obj
 0004:00001638       $pdata$initialize_pointers 0000000180034638     libucrt:initialization.obj
 0004:00001644       $pdata$uninitialize_allocated_memory 0000000180034644     libucrt:initialization.obj
 0004:00001650       $pdata$_initterm           0000000180034650     libucrt:initterm.obj
 0004:0000165c       $pdata$_initterm_e         000000018003465c     libucrt:initterm.obj
 0004:00001668       $pdata$_callnewh           0000000180034668     libucrt:new_handler.obj
 0004:00001674       $pdata$_query_new_handler  0000000180034674     libucrt:new_handler.obj
 0004:00001680       $pdata$_query_new_handler$fin$0 0000000180034680     libucrt:new_handler.obj
 0004:0000168c       $pdata$terminate           000000018003468c     libucrt:terminate.obj
 0004:00001698       $pdata$abort               0000000180034698     libucrt:abort.obj
 0004:000016a4       $pdata$strcpy_s            00000001800346a4     libucrt:strcpy_s.obj
 0004:000016b0       $pdata$??$parse_integer@KV?$c_string_character_source@_W@__crt_strtox@@@__crt_strtox@@YAKQEAU__crt_locale_pointers@@V?$c_string_character_source@_W@0@H_N@Z 00000001800346b0     libucrt:atox.obj
 0004:000016c8       $pdata$_free_base          00000001800346c8     libucrt:free_base.obj
 0004:000016d4       $pdata$__acrt_initialize_ptd 00000001800346d4     libucrt:per_thread_data.obj
 0004:000016e0       $pdata$__acrt_uninitialize_ptd 00000001800346e0     libucrt:per_thread_data.obj
 0004:000016ec       $pdata$__acrt_getptd       00000001800346ec     libucrt:per_thread_data.obj
 0004:000016f8       $pdata$__acrt_getptd_noexit 00000001800346f8     libucrt:per_thread_data.obj
 0004:00001704       $pdata$__acrt_freeptd      0000000180034704     libucrt:per_thread_data.obj
 0004:00001710       $pdata$?destroy_fls@@YAXPEAX@Z 0000000180034710     libucrt:per_thread_data.obj
 0004:0000171c       $pdata$?replace_current_thread_locale_nolock@@YAXQEAU__acrt_ptd@@QEAU__crt_locale_data@@@Z 000000018003471c     libucrt:per_thread_data.obj
 0004:00001728       $pdata$?construct_ptd_array@@YAXQEAU__acrt_ptd@@@Z 0000000180034728     libucrt:per_thread_data.obj
 0004:00001734       $pdata$?destroy_ptd_array@@YAXQEAU__acrt_ptd@@@Z 0000000180034734     libucrt:per_thread_data.obj
 0004:00001740       $pdata$??$?RV<lambda_72d1df2b273a38828b1ce30cbf4cdab5>@@AEAV<lambda_876a65b173b8412d3a47c70a915b0cf4>@@V<lambda_41932305e351933ebe8f8be3ed8bb5dc>@@@?$__crt_seh_guarded_call@X@@QEAAX$$QEAV<lambda_72d1df2b273a38828b1ce30cbf4cdab5>@@AEAV<lambda_876a65b173b8412d3a47c70a915b0cf4>@@$$QEAV<lambda_41932305e351933ebe8f8be3ed8bb5dc>@@@Z 0000000180034740     libucrt:per_thread_data.obj
 0004:0000174c       $pdata$??$?RV<lambda_5e887d1dcbef67a5eb4283622ba103bf>@@AEAV<lambda_4466841279450cc726390878d4a41900>@@V<lambda_341c25c0346d94847f1f3c463c57e077>@@@?$__crt_seh_guarded_call@X@@QEAAX$$QEAV<lambda_5e887d1dcbef67a5eb4283622ba103bf>@@AEAV<lambda_4466841279450cc726390878d4a41900>@@$$QEAV<lambda_341c25c0346d94847f1f3c463c57e077>@@@Z 000000018003474c     libucrt:per_thread_data.obj
 0004:00001758       $pdata$??$?RV<lambda_46352004c1216016012b18bd6f87e700>@@AEAV<lambda_3bd07e1a1191394380780325891bf33f>@@V<lambda_334532d3f185bcaa59b5be82d7d22bff>@@@?$__crt_seh_guarded_call@X@@QEAAX$$QEAV<lambda_46352004c1216016012b18bd6f87e700>@@AEAV<lambda_3bd07e1a1191394380780325891bf33f>@@$$QEAV<lambda_334532d3f185bcaa59b5be82d7d22bff>@@@Z 0000000180034758     libucrt:per_thread_data.obj
 0004:00001764       $pdata$??$?RV<lambda_fb3a7dec4e47f37f22dae91bb15c9095>@@AEAV<lambda_698284760c8add0bfb0756c19673e34b>@@V<lambda_dfb8eca1e75fef3034a8fb18dd509707>@@@?$__crt_seh_guarded_call@X@@QEAAX$$QEAV<lambda_fb3a7dec4e47f37f22dae91bb15c9095>@@AEAV<lambda_698284760c8add0bfb0756c19673e34b>@@$$QEAV<lambda_dfb8eca1e75fef3034a8fb18dd509707>@@@Z 0000000180034764     libucrt:per_thread_data.obj
 0004:00001770       $pdata$_calloc_base        0000000180034770     libucrt:calloc_base.obj
 0004:0000177c       $pdata$_malloc_base        000000018003477c     libucrt:malloc_base.obj
 0004:00001788       $pdata$_msize              0000000180034788     libucrt:msize.obj
 0004:00001794       $pdata$_realloc_base       0000000180034794     libucrt:realloc_base.obj
 0004:000017a0       $pdata$__acrt_FlsAlloc     00000001800347a0     libucrt:winapi_thunks.obj
 0004:000017ac       $pdata$__acrt_FlsFree      00000001800347ac     libucrt:winapi_thunks.obj
 0004:000017b8       $pdata$__acrt_FlsGetValue  00000001800347b8     libucrt:winapi_thunks.obj
 0004:000017c4       $pdata$__acrt_FlsSetValue  00000001800347c4     libucrt:winapi_thunks.obj
 0004:000017d0       $pdata$__acrt_initialize_winapi_thunks 00000001800347d0     libucrt:winapi_thunks.obj
 0004:000017dc       $pdata$__acrt_uninitialize_winapi_thunks 00000001800347dc     libucrt:winapi_thunks.obj
 0004:000017e8       $pdata$__acrt_InitializeCriticalSectionEx 00000001800347e8     libucrt:winapi_thunks.obj
 0004:000017f4       $pdata$__acrt_LCMapStringEx 00000001800347f4     libucrt:winapi_thunks.obj
 0004:00001800       $pdata$__acrt_LocaleNameToLCID 0000000180034800     libucrt:winapi_thunks.obj
 0004:0000180c       $pdata$__acrt_SetThreadStackGuarantee 000000018003480c     libucrt:winapi_thunks.obj
 0004:00001818       $pdata$__acrt_is_packaged_app 0000000180034818     libucrt:winapi_thunks.obj
 0004:00001824       $pdata$?try_get_function@@YAPEAXW4function_id@?A0x63058377@@QEBDQEBW4module_id@2@2@Z 0000000180034824     libucrt:winapi_thunks.obj
 0004:00001830       $pdata$isdigit             0000000180034830     libucrt:_ctype.obj
 0004:0000183c       $pdata$tolower             000000018003483c     libucrt:tolower_toupper.obj
 0004:00001848       $pdata$_tolower_l          0000000180034848     libucrt:tolower_toupper.obj
 0004:00001854       $pdata$?internal_isupper_l@@YA_NHQEAU__crt_locale_pointers@@@Z 0000000180034854     libucrt:tolower_toupper.obj
 0004:00001860       $pdata$wcstol              0000000180034860     libucrt:strtox.obj
 0004:0000186c       $pdata$_mbtowc_l           000000018003486c     libucrt:mbtowc.obj
 0004:00001878       $pdata$wcsnlen             0000000180034878     libucrt:strnlen.obj
 0004:00001884       $pdata$__acrt_update_locale_info 0000000180034884     libucrt:locale_update.obj
 0004:00001890       $pdata$__acrt_update_multibyte_info 0000000180034890     libucrt:locale_update.obj
 0004:0000189c       $pdata$__acrt_fp_format    000000018003489c     libucrt:cvt.obj
 0004:000018a8       $pdata$?fp_format_nan_or_infinity@@YAHW4__acrt_fp_class@@_NPEAD_K1@Z 00000001800348a8     libucrt:cvt.obj
 0004:000018b4       $pdata$?fp_format_e_internal@@YAHQEAD_KH_NIQEAU_strflt@@2QEAU__crt_locale_pointers@@@Z 00000001800348b4     libucrt:cvt.obj
 0004:000018c0       $pdata$?fp_format_e@@YAHQEBNQEAD_K12H_NIQEAU__crt_locale_pointers@@@Z 00000001800348c0     libucrt:cvt.obj
 0004:000018cc       $pdata$?fp_format_a@@YAHQEBNPEAD_KQEAD2H_NIQEAU__crt_locale_pointers@@@Z 00000001800348cc     libucrt:cvt.obj
 0004:000018d8       $pdata$?fp_format_f_internal@@YAHQEAD_KHQEAU_strflt@@_NQEAU__crt_locale_pointers@@@Z 00000001800348d8     libucrt:cvt.obj
 0004:000018e4       $pdata$?fp_format_g@@YAHQEBNQEAD_K12H_NIQEAU__crt_locale_pointers@@@Z 00000001800348e4     libucrt:cvt.obj
 0004:000018f0       $pdata$_fileno             00000001800348f0     libucrt:fileno.obj
 0004:000018fc       $pdata$__acrt_initialize_stdio 00000001800348fc     libucrt:_file.obj
 0004:00001908       $pdata$__acrt_uninitialize_stdio 0000000180034908     libucrt:_file.obj
 0004:00001914       $pdata$__acrt_uninitialize_locale 0000000180034914     libucrt:wsetlocale.obj
 0004:00001920       $pdata$__acrt_update_thread_locale_data$fin$0 0000000180034920     libucrt:locale_refcounting.obj
 0004:00001920       $pdata$__acrt_uninitialize_locale$fin$0 0000000180034920     libucrt:wsetlocale.obj
 0004:0000192c       $pdata$__acrt_initialize_lowio 000000018003492c     libucrt:ioinit.obj
 0004:00001938       $pdata$__acrt_lowio_ensure_fh_exists$fin$0 0000000180034938     libucrt:osfinfo.obj
 0004:00001938       $pdata$__acrt_initialize_lowio$fin$0 0000000180034938     libucrt:ioinit.obj
 0004:00001944       $pdata$__acrt_uninitialize_lowio 0000000180034944     libucrt:ioinit.obj
 0004:00001950       $pdata$?initialize_inherited_file_handles_nolock@@YAXXZ 0000000180034950     libucrt:ioinit.obj
 0004:0000195c       $pdata$?initialize_stdio_handles_nolock@@YAXXZ 000000018003495c     libucrt:ioinit.obj
 0004:00001968       $pdata$__acrt_initialize_locks 0000000180034968     libucrt:locks.obj
 0004:00001974       $pdata$__acrt_uninitialize_locks 0000000180034974     libucrt:locks.obj
 0004:00001980       $pdata$??$common_expand_argv_wildcards@D@@YAHQEAPEADQEAPEAPEAD@Z 0000000180034980     libucrt:argv_wildcards.obj
 0004:0000198c       $pdata$?expand_if_necessary@?$argument_list@D@?A0xca0879c4@@AEAAHXZ 000000018003498c     libucrt:argv_wildcards.obj
 0004:00001998       $pdata$??$copy_and_add_argument_to_buffer@D@@YAHQEBD0_KAEAV?$argument_list@D@?A0xca0879c4@@@Z 0000000180034998     libucrt:argv_wildcards.obj
 0004:000019a4       $pdata$??$expand_argument_wildcards@D@@YAHQEAD0AEAV?$argument_list@D@?A0xca0879c4@@@Z 00000001800349a4     libucrt:argv_wildcards.obj
 0004:000019b0       $pdata$__acrt_update_thread_multibyte_data 00000001800349b0     libucrt:mbctype.obj
 0004:000019bc       $pdata$__acrt_update_thread_multibyte_data$fin$0 00000001800349bc     libucrt:mbctype.obj
 0004:000019c8       $pdata$__acrt_initialize_multibyte 00000001800349c8     libucrt:mbctype.obj
 0004:000019d4       $pdata$_setmbcp_nolock     00000001800349d4     libucrt:mbctype.obj
 0004:000019e0       $pdata$?getSystemCP@@YAHH@Z 00000001800349e0     libucrt:mbctype.obj
 0004:000019ec       $pdata$?setSBCS@@YAXPEAU__crt_multibyte_data@@@Z 00000001800349ec     libucrt:mbctype.obj
 0004:000019f8       $pdata$?setSBUpLow@@YAXPEAU__crt_multibyte_data@@@Z 00000001800349f8     libucrt:mbctype.obj
 0004:00001a04       $pdata$?setmbcp_internal@@YAHH_N@Z 0000000180034a04     libucrt:mbctype.obj
 0004:00001a10       $pdata$??R<lambda_ad1ced32f4ac17aa236e5ef05d6b3b7c>@@QEBAXXZ 0000000180034a10     libucrt:mbctype.obj
 0004:00001a1c       $pdata$??$?RV<lambda_99476a1ad63dd22509b5d3e65b0ffc95>@@AEAV<lambda_ad1ced32f4ac17aa236e5ef05d6b3b7c>@@V<lambda_f7424dd8d45958661754dc4f2697e9c3>@@@?$__crt_seh_guarded_call@X@@QEAAX$$QEAV<lambda_99476a1ad63dd22509b5d3e65b0ffc95>@@AEAV<lambda_ad1ced32f4ac17aa236e5ef05d6b3b7c>@@$$QEAV<lambda_f7424dd8d45958661754dc4f2697e9c3>@@@Z 0000000180034a1c     libucrt:mbctype.obj
 0004:00001a28       $pdata$?x_ismbbtype_l@@YAHPEAU__crt_locale_pointers@@IHH@Z 0000000180034a28     libucrt:ismbbyte.obj
 0004:00001a34       $pdata$__acrt_initialize_command_line 0000000180034a34     libucrt:argv_data.obj
 0004:00001a40       $pdata$__dcrt_get_narrow_environment_from_os 0000000180034a40     libucrt:get_environment_from_os.obj
 0004:00001a4c       $pdata$__acrt_initialize_heap 0000000180034a4c     libucrt:heap_handle.obj
 0004:00001a58       $pdata$__acrt_execute_initializers 0000000180034a58     libucrt:shared_initialization.obj
 0004:00001a64       $pdata$__acrt_execute_uninitializers 0000000180034a64     libucrt:shared_initialization.obj
 0004:00001a70       $pdata$__acrt_get_sigabrt_handler 0000000180034a70     libucrt:signal.obj
 0004:00001a7c       $pdata$raise               0000000180034a7c     libucrt:signal.obj
 0004:00001a88       $pdata$raise$fin$0         0000000180034a88     libucrt:signal.obj
 0004:00001a94       $pdata$??$?RV<lambda_c36588078e9f5dfd39652860aa6b3aaf>@@AEAV<lambda_ec61778202f4f5fc7e7711acc23c3bca>@@V<lambda_dc9d2797ccde5d239b4a0efae8ebd7db>@@@?$__crt_seh_guarded_call@P6AXH@Z@@QEAAP6AXH@Z$$QEAV<lambda_c36588078e9f5dfd39652860aa6b3aaf>@@AEAV<lambda_ec61778202f4f5fc7e7711acc23c3bca>@@$$QEAV<lambda_dc9d2797ccde5d239b4a0efae8ebd7db>@@@Z 0000000180034a94     libucrt:signal.obj
 0004:00001aa0       $pdata$__acrt_invoke_user_matherr 0000000180034aa0     libucrt:matherr.obj
 0004:00001aac       $pdata$__pctype_func       0000000180034aac     libucrt:ctype.obj
 0004:00001ab8       $pdata$iswctype            0000000180034ab8     libucrt:iswctype.obj
 0004:00001ac4       $pdata$_isctype_l          0000000180034ac4     libucrt:isctype.obj
 0004:00001ad0       $pdata$__acrt_release_locale_ref 0000000180034ad0     libucrt:locale_refcounting.obj
 0004:00001adc       $pdata$__acrt_free_locale  0000000180034adc     libucrt:locale_refcounting.obj
 0004:00001ae8       $pdata$__acrt_locale_free_lc_time_if_unreferenced 0000000180034ae8     libucrt:locale_refcounting.obj
 0004:00001af4       $pdata$__acrt_update_thread_locale_data 0000000180034af4     libucrt:locale_refcounting.obj
 0004:00001b00       $pdata$_updatetlocinfoEx_nolock 0000000180034b00     libucrt:locale_refcounting.obj
 0004:00001b0c       $pdata$__acrt_DownlevelLocaleNameToLCID 0000000180034b0c     libucrt:lcidtoname_downlevel.obj
 0004:00001b18       $pdata$?GetTableIndexFromLocaleName@@YAHPEB_W@Z 0000000180034b18     libucrt:lcidtoname_downlevel.obj
 0004:00001b24       $pdata$_isleadbyte_l       0000000180034b24     libucrt:_wctype.obj
 0004:00001b30       $pdata$__acrt_LCMapStringA 0000000180034b30     libucrt:lcmapstringa.obj
 0004:00001b3c       $pdata$?__acrt_LCMapStringA_stat@@YAHPEAU__crt_locale_pointers@@PEB_WKPEBDHPEADHHH@Z 0000000180034b3c     libucrt:lcmapstringa.obj
 0004:00001b48       $pdata$__acrt_fp_strflt_to_string 0000000180034b48     libucrt:_fptostr.obj
 0004:00001b54       $pdata$memcpy_s            0000000180034b54     libucrt:cfout.obj
 0004:00001b60       $pdata$__acrt_fltout       0000000180034b60     libucrt:cfout.obj
 0004:00001b6c       $pdata$?divide@__crt_strtox@@YA_KAEAUbig_integer@1@AEBU21@@Z 0000000180034b6c     libucrt:cfout.obj
 0004:00001b78       $pdata$5$?divide@__crt_strtox@@YA_KAEAUbig_integer@1@AEBU21@@Z 0000000180034b78     libucrt:cfout.obj
 0004:00001b84       $pdata$6$?divide@__crt_strtox@@YA_KAEAUbig_integer@1@AEBU21@@Z 0000000180034b84     libucrt:cfout.obj
 0004:00001b90       $pdata$_fcloseall          0000000180034b90     libucrt:closeall.obj
 0004:00001b9c       $pdata$_fcloseall$fin$0    0000000180034b9c     libucrt:closeall.obj
 0004:00001ba8       $pdata$_fflush_nolock      0000000180034ba8     libucrt:fflush.obj
 0004:00001bb4       $pdata$__acrt_stdio_flush_nolock 0000000180034bb4     libucrt:fflush.obj
 0004:00001bc0       $pdata$common_flush_all    0000000180034bc0     libucrt:fflush.obj
 0004:00001bcc       $pdata$common_flush_all$fin$0 0000000180034bcc     libucrt:fflush.obj
 0004:00001bd8       $pdata$common_flush_all$fin$1 0000000180034bd8     libucrt:fflush.obj
 0004:00001be4       $pdata$__acrt_stdio_free_buffer_nolock 0000000180034be4     libucrt:_freebuf.obj
 0004:00001bf0       $pdata$_isatty             0000000180034bf0     libucrt:isatty.obj
 0004:00001bfc       $pdata$__acrt_locale_free_monetary 0000000180034bfc     libucrt:initmon.obj
 0004:00001c08       $pdata$__acrt_locale_free_numeric 0000000180034c08     libucrt:initnum.obj
 0004:00001c14       $pdata$__acrt_locale_free_time 0000000180034c14     libucrt:inittime.obj
 0004:00001c20       $pdata$?free_crt_array_internal@@YAXQEAPEBX_K@Z 0000000180034c20     libucrt:inittime.obj
 0004:00001c2c       $pdata$__acrt_GetStringTypeA 0000000180034c2c     libucrt:getstringtypea.obj
 0004:00001c38       $pdata$_get_osfhandle      0000000180034c38     libucrt:osfinfo.obj
 0004:00001c44       $pdata$_free_osfhnd        0000000180034c44     libucrt:osfinfo.obj
 0004:00001c50       $pdata$__acrt_lowio_create_handle_array 0000000180034c50     libucrt:osfinfo.obj
 0004:00001c5c       $pdata$__acrt_lowio_destroy_handle_array 0000000180034c5c     libucrt:osfinfo.obj
 0004:00001c68       $pdata$__acrt_lowio_ensure_fh_exists 0000000180034c68     libucrt:osfinfo.obj
 0004:00001c74       $pdata$qsort               0000000180034c74     libucrt:qsort.obj
 0004:00001c80       $pdata$4$qsort             0000000180034c80     libucrt:qsort.obj
 0004:00001c8c       $pdata$5$qsort             0000000180034c8c     libucrt:qsort.obj
 0004:00001c98       $pdata$?shortsort@@YAXPEAD0_KP6AHPEBX2@Z@Z 0000000180034c98     libucrt:qsort.obj
 0004:00001ca4       $pdata$2$?shortsort@@YAXPEAD0_KP6AHPEBX2@Z@Z 0000000180034ca4     libucrt:qsort.obj
 0004:00001cb0       $pdata$3$?shortsort@@YAXPEAD0_KP6AHPEBX2@Z@Z 0000000180034cb0     libucrt:qsort.obj
 0004:00001cbc       $pdata$strncpy_s           0000000180034cbc     libucrt:strncpy_s.obj
 0004:00001cc8       $pdata$strpbrk             0000000180034cc8     libucrt:strpbrk.obj
 0004:00001cd4       $pdata$_mbsdec_l           0000000180034cd4     libucrt:mbsdec.obj
 0004:00001ce0       $pdata$?initialize_multibyte@@YAHXZ 0000000180034ce0     libucrt:multibyte_initializer.obj
 0004:00001cec       $pdata$fegetenv            0000000180034cec     libucrt:fegetenv.obj
 0004:00001cf8       $pdata$fesetenv            0000000180034cf8     libucrt:fesetenv.obj
 0004:00001d04       $pdata$feholdexcept        0000000180034d04     libucrt:feholdexcept.obj
 0004:00001d1c       $pdata$_write              0000000180034d1c     libucrt:write.obj
 0004:00001d28       $pdata$_write$fin$0        0000000180034d28     libucrt:write.obj
 0004:00001d34       $pdata$_write_nolock       0000000180034d34     libucrt:write.obj
 0004:00001d40       $pdata$?write_double_translated_ansi_nolock@@YA?AUwrite_result@?A0x9c548279@@HQEBDI@Z 0000000180034d40     libucrt:write.obj
 0004:00001d4c       $pdata$?write_text_ansi_nolock@@YA?AUwrite_result@?A0x9c548279@@HQEBDI@Z 0000000180034d4c     libucrt:write.obj
 0004:00001d58       $pdata$?write_text_utf16le_nolock@@YA?AUwrite_result@?A0x9c548279@@HQEBDI@Z 0000000180034d58     libucrt:write.obj
 0004:00001d64       $pdata$?write_text_utf8_nolock@@YA?AUwrite_result@?A0x9c548279@@HQEBDI@Z 0000000180034d64     libucrt:write.obj
 0004:00001d70       $pdata$??$common_lseek_nolock@_J@@YA_JH_JH@Z 0000000180034d70     libucrt:lseek.obj
 0004:00001d7c       $pdata$fclose              0000000180034d7c     libucrt:fclose.obj
 0004:00001d88       $pdata$fclose$fin$0        0000000180034d88     libucrt:fclose.obj
 0004:00001d94       $pdata$_fclose_nolock      0000000180034d94     libucrt:fclose.obj
 0004:00001da0       $pdata$_commit             0000000180034da0     libucrt:commit.obj
 0004:00001dac       $pdata$??$?RV<lambda_b521505b218e5242e90febf6bfebc422>@@AEAV<lambda_6978c1fb23f02e42e1d9e99668cc68aa>@@V<lambda_314360699dd331753a4119843814e9a7>@@@?$__crt_seh_guarded_call@H@@QEAAH$$QEAV<lambda_b521505b218e5242e90febf6bfebc422>@@AEAV<lambda_6978c1fb23f02e42e1d9e99668cc68aa>@@$$QEAV<lambda_314360699dd331753a4119843814e9a7>@@@Z 0000000180034dac     libucrt:commit.obj
 0004:00001db8       $pdata$?fin$0@?0???$?RV<lambda_bfedae4ebbf01fab1bb6dcc6a9e276e0>@@AEAV<lambda_2fe9b910cf3cbf4a0ab98a02ba45b3ec>@@V<lambda_237c231691f317818eb88cc1d5d642d6>@@@?$__crt_seh_guarded_call@H@@QEAAH$$QEAV<lambda_bfedae4ebbf01fab1bb6dcc6a9e276e0>@@AEAV<lambda_2fe9b910cf3cbf4a0ab98a02ba45b3ec>@@$$QEAV<lambda_237c231691f317818eb88cc1d5d642d6>@@@Z@4HA 0000000180034db8     libucrt:close.obj
 0004:00001db8       $pdata$?fin$0@?0???$?RV<lambda_b521505b218e5242e90febf6bfebc422>@@AEAV<lambda_6978c1fb23f02e42e1d9e99668cc68aa>@@V<lambda_314360699dd331753a4119843814e9a7>@@@?$__crt_seh_guarded_call@H@@QEAAH$$QEAV<lambda_b521505b218e5242e90febf6bfebc422>@@AEAV<lambda_6978c1fb23f02e42e1d9e99668cc68aa>@@$$QEAV<lambda_314360699dd331753a4119843814e9a7>@@@Z@4HA 0000000180034db8     libucrt:commit.obj
 0004:00001dc4       $pdata$_setfpstatusword    0000000180034dc4     libucrt:_fenvutils.obj
 0004:00001dd0       $pdata$_getfpcontrolword   0000000180034dd0     libucrt:_fenvutils.obj
 0004:00001ddc       $pdata$_getfpstatusword    0000000180034ddc     libucrt:_fenvutils.obj
 0004:00001de8       $pdata$_clearfp            0000000180034de8     libucrt:ieee.obj
 0004:00001df4       $pdata$common_control87    0000000180034df4     libucrt:ieee.obj
 0004:00001e00       $pdata$common_control87$filt$0 0000000180034e00     libucrt:ieee.obj
 0004:00001e00       $pdata$_ctrlfp$filt$0      0000000180034e00     libucrt:fpctrl.obj
 0004:00001e0c       $pdata$_call_matherr       0000000180034e0c     libucrt:libm_error.obj
 0004:00001e18       $pdata$_exception_enabled  0000000180034e18     libucrt:libm_error.obj
 0004:00001e24       $pdata$_handle_error       0000000180034e24     libucrt:libm_error.obj
 0004:00001e30       $pdata$__acrt_initialize_fma3 0000000180034e30     libucrt:fma3_available.obj
 0004:00001e3c       $pdata$_log_special_common 0000000180034e3c     libucrt:log_special.obj
 0004:00001e48       $pdata$_log10_special      0000000180034e48     libucrt:log_special.obj
 0004:00001e54       $pdata$_putwch_nolock      0000000180034e54     libucrt:putwch.obj
 0004:00001e60       $pdata$_close              0000000180034e60     libucrt:close.obj
 0004:00001e6c       $pdata$_close_nolock       0000000180034e6c     libucrt:close.obj
 0004:00001e78       $pdata$??$?RV<lambda_bfedae4ebbf01fab1bb6dcc6a9e276e0>@@AEAV<lambda_2fe9b910cf3cbf4a0ab98a02ba45b3ec>@@V<lambda_237c231691f317818eb88cc1d5d642d6>@@@?$__crt_seh_guarded_call@H@@QEAAH$$QEAV<lambda_bfedae4ebbf01fab1bb6dcc6a9e276e0>@@AEAV<lambda_2fe9b910cf3cbf4a0ab98a02ba45b3ec>@@$$QEAV<lambda_237c231691f317818eb88cc1d5d642d6>@@@Z 0000000180034e78     libucrt:close.obj
 0004:00001e90       $pdata$_set_errno_from_matherr 0000000180034e90     libucrt:fpexcept.obj
 0004:00001e9c       $pdata$_raise_exc          0000000180034e9c     libucrt:fpexcept.obj
 0004:00001ea8       $pdata$_raise_exc_ex       0000000180034ea8     libucrt:fpexcept.obj
 0004:00001eb4       $pdata$_clrfp              0000000180034eb4     libucrt:fpctrl.obj
 0004:00001ec0       $pdata$_ctrlfp             0000000180034ec0     libucrt:fpctrl.obj
 0004:00001ecc       $pdata$_statfp             0000000180034ecc     libucrt:fpctrl.obj
 0004:00001ed8       $pdata$_set_statfp         0000000180034ed8     libucrt:fpctrl.obj
 0004:00001ee4       $pdata$__dcrt_lowio_initialize_console_output 0000000180034ee4     libucrt:initcon.obj
 0004:00001ef0       $pdata$__dcrt_terminate_console_output 0000000180034ef0     libucrt:initcon.obj
 0004:00001efc       $pdata$_IsNonwritableInCurrentImage 0000000180034efc     LIBCMT:pesect.obj
 0004:00001f08       $pdata$_IsNonwritableInCurrentImage$filt$0 0000000180034f08     LIBCMT:pesect.obj
 0004:00001f14       $pdata$strrchr             0000000180034f14     libvcruntime:strrchr.obj
 0005:00000220       $R000000                   0000000180035220     MSR.res
 0005:00000b68       $R000948                   0000000180035b68     MSR.res
 0005:00000c50       $R000A30                   0000000180035c50     MSR.res
 0005:00000eb8       $R000C98                   0000000180035eb8     MSR.res
 0005:000013a8       $R001188                   00000001800363a8     MSR.res
 0005:00005b80       $R005960                   000000018003ab80     MSR.res
 0005:00005ba8       $R005988                   000000018003aba8     MSR.res
