 OPOSFiscalPrinter

 Timestamp is 600f786d (Tue Jan 26 11:03:25 2021)

 Preferred load address is 0000000180000000

 Start         Length     Name                   Class
 0001:00000000 000000c0H .text$di                CODE
 0001:000000c0 000249d0H .text$mn                CODE
 0001:00024a90 00000040H .text$mn$00             CODE
 0001:00024ad0 000004b0H .text$x                 CODE
 0001:00024f80 00000078H .text$yd                CODE
 0002:00000000 00000618H .idata$5                DATA
 0002:00000618 00000028H .00cfg                  DATA
 0002:00000640 00000008H .CRT$XCA                DATA
 0002:00000648 00000008H .CRT$XCL                DATA
 0002:00000650 00000020H .CRT$XCU                DATA
 0002:00000670 00000008H .CRT$XCZ                DATA
 0002:00000678 00000008H .CRT$XIA                DATA
 0002:00000680 00000020H .CRT$XIC                DATA
 0002:000006a0 00000008H .CRT$XIZ                DATA
 0002:000006a8 00000008H .CRT$XLA                DATA
 0002:000006b0 00000008H .CRT$XLZ                DATA
 0002:000006b8 00000008H .CRT$XPA                DATA
 0002:000006c0 00000010H .CRT$XPX                DATA
 0002:000006d0 00000008H .CRT$XPXA               DATA
 0002:000006d8 00000008H .CRT$XPZ                DATA
 0002:000006e0 00000008H .CRT$XTA                DATA
 0002:000006e8 00000008H .CRT$XTZ                DATA
 0002:000006f0 00000000H .gehcont$y              DATA
 0002:000006f0 00000000H .gfids$y                DATA
 0002:000006f0 0000b710H .rdata                  DATA
 0002:0000be00 00000000H .rdata$CastGuardVftablesA DATA
 0002:0000be00 00000000H .rdata$CastGuardVftablesC DATA
 0002:0000be00 00000028H .rdata$T                DATA
 0002:0000be28 00000274H .rdata$r                DATA
 0002:0000c09c 0000040cH .rdata$zzzdbg           DATA
 0002:0000c4a8 00000008H .rtc$IAA                DATA
 0002:0000c4b0 00000008H .rtc$IZZ                DATA
 0002:0000c4b8 00000008H .rtc$TAA                DATA
 0002:0000c4c0 00000008H .rtc$TZZ                DATA
 0002:0000c4c8 00000004H .tls                    DATA
 0002:0000c4cc 00000004H .tls$                   DATA
 0002:0000c4d0 00000008H .tls$ZZZ                DATA
 0002:0000c4d8 00001748H .xdata                  DATA
 0002:0000dc20 00000150H .xdata$x                DATA
 0002:0000dd70 00000008H ATL$__a                 DATA
 0002:0000dd78 00000008H ATL$__z                 DATA
 0002:0000dd80 000000b0H .edata                  DATA
 0002:0000de30 00000078H .idata$2                DATA
 0002:0000dea8 00000018H .idata$3                DATA
 0002:0000dec0 00000618H .idata$4                DATA
 0002:0000e4d8 00000c2aH .idata$6                DATA
 0003:00000000 00000f88H .data                   DATA
 0003:00000f88 000000c8H .data$r                 DATA
 0003:00001050 0000141cH .bss                    DATA
 0004:00000000 00002454H .pdata                  DATA
 0005:00000000 00000094H _RDATA                  DATA
 0006:00000000 00000220H .rsrc$01                DATA
 0006:00000220 00009878H .rsrc$02                DATA

  Address         Publics by Value              Rva+Base               Lib:Object

 0000:00000000       ___safe_se_handler_table   0000000000000000     <absolute>
 0000:00000000       __arm64x_redirection_metadata 0000000000000000     <absolute>
 0000:00000000       __guard_longjmp_table      0000000000000000     <absolute>
 0000:00000000       __guard_iat_table          0000000000000000     <absolute>
 0000:00000000       __x64_code_ranges_to_entry_points 0000000000000000     <absolute>
 0000:00000000       __guard_fids_count         0000000000000000     <absolute>
 0000:00000000       __guard_iat_count          0000000000000000     <absolute>
 0000:00000000       __guard_longjmp_count      0000000000000000     <absolute>
 0000:00000000       __arm64x_extra_rfe_table   0000000000000000     <absolute>
 0000:00000000       __dynamic_value_reloc_table 0000000000000000     <absolute>
 0000:00000000       __x64_code_ranges_to_entry_points_count 0000000000000000     <absolute>
 0000:00000000       __hybrid_auxiliary_iat     0000000000000000     <absolute>
 0000:00000000       __hybrid_code_map          0000000000000000     <absolute>
 0000:00000000       __volatile_metadata        0000000000000000     <absolute>
 0000:00000000       __arm64x_extra_rfe_table_size 0000000000000000     <absolute>
 0000:00000000       ___safe_se_handler_count   0000000000000000     <absolute>
 0000:00000000       __AbsoluteZero             0000000000000000     <absolute>
 0000:00000000       __guard_fids_table         0000000000000000     <absolute>
 0000:00000000       __guard_eh_cont_count      0000000000000000     <absolute>
 0000:00000000       __arm64x_redirection_metadata_count 0000000000000000     <absolute>
 0000:00000000       __enclave_config           0000000000000000     <absolute>
 0000:00000000       __guard_eh_cont_table      0000000000000000     <absolute>
 0000:00000000       __arm64x_native_entrypoint 0000000000000000     <absolute>
 0000:00000000       __hybrid_code_map_count    0000000000000000     <absolute>
 0000:00000100       __guard_flags              0000000000000100     <absolute>
 0000:00000000       __ImageBase                0000000180000000     <linker-defined>
 0001:000000c0       ?DupWide@_CW@@AEAAXXZ      00000001800010c0 f   CWString.obj
 0001:000000e8       ?cw_dup@@YAXPEBDAEAHAEAPEA_W1@Z 00000001800010e8 f   CWString.obj
 0001:000001c8       ?cw_memcpy@@YAHPEA_WPEBDH@Z 00000001800011c8 f   CWString.obj
 0001:00000214       ?cw_strcpy@@YAHPEA_WPEBD@Z 0000000180001214 f   CWString.obj
 0001:00000228       ??0CAtlComModule@ATL@@QEAA@XZ 0000000180001228 f i OposVariant.obj
 0001:000002a8       ??0CAtlWinModule@ATL@@QEAA@XZ 00000001800012a8 f i OposVariant.obj
 0001:00000314       ??0OposDispParms@@QEAA@PEAVOposVariant@@H@Z 0000000180001314 f   OposVariant.obj
 0001:000003bc       ??1OposDispParms@@QEAA@XZ  00000001800013bc f   OposVariant.obj
 0001:000003d4       ??_Estringdispid@CComTypeInfoHolder@ATL@@QEAAPEAXI@Z 00000001800013d4 f i OposVariant.obj
 0001:00000478       ?AtlWinModuleTerm@ATL@@YAJPEAU_ATL_WIN_MODULE70@1@PEAUHINSTANCE__@@@Z 0000000180001478 f i OposVariant.obj
 0001:00000528       ?ChangeBSTR@OposVariant@@QEAAXPEAPEA_WAEAJ@Z 0000000180001528 f   OposVariant.obj
 0001:00000588       ?ChangeLONG@OposVariant@@QEAAXPEAJAEAJ@Z 0000000180001588 f   OposVariant.obj
 0001:000005e4       ?GetLONG@OposVariant@@QEAAJXZ 00000001800015e4 f   OposVariant.obj
 0001:00000608       ?SetBSTR@OposVariant@@QEAAXPEA_WAEAJ@Z 0000000180001608 f   OposVariant.obj
 0001:00000648       ?SetBSTR_Copy@OposVariant@@QEAAXPEA_WAEAJ@Z 0000000180001648 f   OposVariant.obj
 0001:000006b8       ?SetBSTR_InOutPtr@OposVariant@@QEAA_NPEAPEA_WAEAJ@Z 00000001800016b8 f   OposVariant.obj
 0001:00000708       ?SetBSTR_OutPtr@OposVariant@@QEAA_NPEAPEA_WAEAJ@Z 0000000180001708 f   OposVariant.obj
 0001:00000724       ?SetCURRENCY@OposVariant@@QEAAXTtagCY@@@Z 0000000180001724 f   OposVariant.obj
 0001:00000758       ?SetDispatch_Ptr@OposVariant@@QEAAXPEAUIDispatch@@AEAJ@Z 0000000180001758 f   OposVariant.obj
 0001:000007b0       ?SetLONG@OposVariant@@QEAAXJ@Z 00000001800017b0 f   OposVariant.obj
 0001:000007e0       ?SetLONG_Ptr@OposVariant@@QEAAXPEAJAEAJ@Z 00000001800017e0 f   OposVariant.obj
 0001:0000082c       ?SetString@OposVariant@@QEAAXPEB_WAEAJ@Z 000000018000182c f   OposVariant.obj
 0001:00000890       ?SetVARIANT_BOOL@OposVariant@@QEAAXF@Z 0000000180001890 f   OposVariant.obj
 0001:000008c8       ?Term@CAtlComModule@ATL@@QEAAXXZ 00000001800018c8 f i OposVariant.obj
 0001:00000938       ?_AtlInitializeCriticalSectionEx@ATL@@YAHPEAU_RTL_CRITICAL_SECTION@@KK@Z 0000000180001938 f i OposVariant.obj
 0001:00000940       ?_AtlRaiseException@ATL@@YAXKK@Z 0000000180001940 f i OposVariant.obj
 0001:00000950       ?Next@?$CComEnumImpl@UIEnumConnections@@$1?_GUID_b196b287_bab4_101a_b69c_00aa00341d07@@3U__s_GUID@@BUtagCONNECTDATA@@V?$_Copy@UtagCONNECTDATA@@@ATL@@@ATL@@UEAAJKPEAUtagCONNECTDATA@@PEAK@Z 0000000180001950 f i FiscalPrinter.obj
 0001:00000a24       ?Skip@?$CComEnumImpl@UIEnumConnections@@$1?_GUID_b196b287_bab4_101a_b69c_00aa00341d07@@3U__s_GUID@@BUtagCONNECTDATA@@V?$_Copy@UtagCONNECTDATA@@@ATL@@@ATL@@UEAAJK@Z 0000000180001a24 f i FiscalPrinter.obj
 0001:00000a50       ?Reset@?$CComEnumImpl@UIEnumConnections@@$1?_GUID_b196b287_bab4_101a_b69c_00aa00341d07@@3U__s_GUID@@BUtagCONNECTDATA@@V?$_Copy@UtagCONNECTDATA@@@ATL@@@ATL@@UEAAJXZ 0000000180001a50 f i FiscalPrinter.obj
 0001:00000a50       ?Reset@?$CComEnumImpl@UIEnumConnectionPoints@@$1?_GUID_b196b285_bab4_101a_b69c_00aa00341d07@@3U__s_GUID@@BPEAUIConnectionPoint@@V?$_CopyInterface@UIConnectionPoint@@@ATL@@@ATL@@UEAAJXZ 0000000180001a50 f i FiscalPrinter.obj
 0001:00000a5c       ?Clone@?$CComEnumImpl@UIEnumConnections@@$1?_GUID_b196b287_bab4_101a_b69c_00aa00341d07@@3U__s_GUID@@BUtagCONNECTDATA@@V?$_Copy@UtagCONNECTDATA@@@ATL@@@ATL@@UEAAJPEAPEAUIEnumConnections@@@Z 0000000180001a5c f i FiscalPrinter.obj
 0001:00000b88       ?AddRef@?$CComObject@V?$CComEnum@UIEnumConnectionPoints@@$1?_GUID_b196b285_bab4_101a_b69c_00aa00341d07@@3U__s_GUID@@BPEAUIConnectionPoint@@V?$_CopyInterface@UIConnectionPoint@@@ATL@@VCComSingleThreadModel@6@@ATL@@@ATL@@UEAAKXZ 0000000180001b88 f i FiscalPrinter.obj
 0001:00000b88       ?AddRef@?$CComObject@V?$CComEnum@UIEnumConnections@@$1?_GUID_b196b287_bab4_101a_b69c_00aa00341d07@@3U__s_GUID@@BUtagCONNECTDATA@@V?$_Copy@UtagCONNECTDATA@@@ATL@@VCComSingleThreadModel@6@@ATL@@@ATL@@UEAAKXZ 0000000180001b88 f i FiscalPrinter.obj
 0001:00000b94       ?Release@?$CComObject@V?$CComEnum@UIEnumConnectionPoints@@$1?_GUID_b196b285_bab4_101a_b69c_00aa00341d07@@3U__s_GUID@@BPEAUIConnectionPoint@@V?$_CopyInterface@UIConnectionPoint@@@ATL@@VCComSingleThreadModel@6@@ATL@@@ATL@@UEAAKXZ 0000000180001b94 f i FiscalPrinter.obj
 0001:00000b94       ?Release@?$CComObject@V?$CComEnum@UIEnumConnections@@$1?_GUID_b196b287_bab4_101a_b69c_00aa00341d07@@3U__s_GUID@@BUtagCONNECTDATA@@V?$_Copy@UtagCONNECTDATA@@@ATL@@VCComSingleThreadModel@6@@ATL@@@ATL@@UEAAKXZ 0000000180001b94 f i FiscalPrinter.obj
 0001:00000be8       ?QueryInterface@?$CComObject@V?$CComEnum@UIEnumConnections@@$1?_GUID_b196b287_bab4_101a_b69c_00aa00341d07@@3U__s_GUID@@BUtagCONNECTDATA@@V?$_Copy@UtagCONNECTDATA@@@ATL@@VCComSingleThreadModel@6@@ATL@@@ATL@@UEAAJAEBU_GUID@@PEAPEAX@Z 0000000180001be8 f i FiscalPrinter.obj
 0001:00000bfc       ??_G?$CComObject@V?$CComEnum@UIEnumConnections@@$1?_GUID_b196b287_bab4_101a_b69c_00aa00341d07@@3U__s_GUID@@BUtagCONNECTDATA@@V?$_Copy@UtagCONNECTDATA@@@ATL@@VCComSingleThreadModel@6@@ATL@@@ATL@@UEAAPEAXI@Z 0000000180001bfc f i FiscalPrinter.obj
 0001:00000bfc       ??_E?$CComObject@V?$CComEnum@UIEnumConnections@@$1?_GUID_b196b287_bab4_101a_b69c_00aa00341d07@@3U__s_GUID@@BUtagCONNECTDATA@@V?$_Copy@UtagCONNECTDATA@@@ATL@@VCComSingleThreadModel@6@@ATL@@@ATL@@UEAAPEAXI@Z 0000000180001bfc f i FiscalPrinter.obj
 0001:00000c54       ?GetWindowProc@?$CWindowImplBaseT@VCWindow@ATL@@V?$CWinTraits@$0FGAAAAAA@$0A@@2@@ATL@@UEAAP6A_JPEAUHWND__@@I_K_J@ZXZ 0000000180001c54 f i FiscalPrinter.obj
 0001:00000c5c       ?StartWindowProc@?$CWindowImplBaseT@VCWindow@ATL@@V?$CWinTraits@$0FGAAAAAA@$0A@@2@@ATL@@SA_JPEAUHWND__@@I_K_J@Z 0000000180001c5c f i FiscalPrinter.obj
 0001:00000d20       ?OnFinalMessage@?$CWindowImplBaseT@VCWindow@ATL@@V?$CWinTraits@$0FGAAAAAA@$0A@@2@@ATL@@UEAAXPEAUHWND__@@@Z 0000000180001d20 f i FiscalPrinter.obj
 0001:00000d20       _guard_check_icall_nop     0000000180001d20 f i LIBCMT:guard_support.obj
 0001:00000d20       ?ObjectMain@CComObjectRootBase@ATL@@SAX_N@Z 0000000180001d20 f i FiscalPrinter.obj
 0001:00000d24       ??_E?$CComObject@VCOPOSFiscalPrinter@@@ATL@@W7EAAPEAXI@Z 0000000180001d24 f i FiscalPrinter.obj
 0001:00000d30       ??_E?$CComObject@VCOPOSFiscalPrinter@@@ATL@@WHA@EAAPEAXI@Z 0000000180001d30 f i FiscalPrinter.obj
 0001:00000d3c       ?QueryInterface@?$CComObject@VCOPOSFiscalPrinter@@@ATL@@WLI@EAAJAEBU_GUID@@PEAPEAX@Z 0000000180001d3c f i FiscalPrinter.obj
 0001:00000d48       ?AddRef@?$CComObject@VCOPOSFiscalPrinter@@@ATL@@WLI@EAAKXZ 0000000180001d48 f i FiscalPrinter.obj
 0001:00000d54       ?Release@?$CComObject@VCOPOSFiscalPrinter@@@ATL@@WLI@EAAKXZ 0000000180001d54 f i FiscalPrinter.obj
 0001:00000d60       ?QueryInterface@?$CComObject@VCOPOSFiscalPrinter@@@ATL@@WMA@EAAJAEBU_GUID@@PEAPEAX@Z 0000000180001d60 f i FiscalPrinter.obj
 0001:00000d6c       ?AddRef@?$CComObject@VCOPOSFiscalPrinter@@@ATL@@WMA@EAAKXZ 0000000180001d6c f i FiscalPrinter.obj
 0001:00000d78       ?Release@?$CComObject@VCOPOSFiscalPrinter@@@ATL@@WMA@EAAKXZ 0000000180001d78 f i FiscalPrinter.obj
 0001:00000d84       ?QueryInterface@?$CComObject@VCOPOSFiscalPrinter@@@ATL@@WMI@EAAJAEBU_GUID@@PEAPEAX@Z 0000000180001d84 f i FiscalPrinter.obj
 0001:00000d90       ?AddRef@?$CComObject@VCOPOSFiscalPrinter@@@ATL@@WMI@EAAKXZ 0000000180001d90 f i FiscalPrinter.obj
 0001:00000d9c       ?Release@?$CComObject@VCOPOSFiscalPrinter@@@ATL@@WMI@EAAKXZ 0000000180001d9c f i FiscalPrinter.obj
 0001:00000da8       ?QueryInterface@?$CComObject@VCOPOSFiscalPrinter@@@ATL@@WNA@EAAJAEBU_GUID@@PEAPEAX@Z 0000000180001da8 f i FiscalPrinter.obj
 0001:00000db4       ?AddRef@?$CComObject@VCOPOSFiscalPrinter@@@ATL@@WNA@EAAKXZ 0000000180001db4 f i FiscalPrinter.obj
 0001:00000dc0       ?Release@?$CComObject@VCOPOSFiscalPrinter@@@ATL@@WNA@EAAKXZ 0000000180001dc0 f i FiscalPrinter.obj
 0001:00000dcc       ?QueryInterface@?$CComObject@VCOPOSFiscalPrinter@@@ATL@@WNI@EAAJAEBU_GUID@@PEAPEAX@Z 0000000180001dcc f i FiscalPrinter.obj
 0001:00000dd8       ?AddRef@?$CComObject@VCOPOSFiscalPrinter@@@ATL@@WNI@EAAKXZ 0000000180001dd8 f i FiscalPrinter.obj
 0001:00000de4       ?Release@?$CComObject@VCOPOSFiscalPrinter@@@ATL@@WNI@EAAKXZ 0000000180001de4 f i FiscalPrinter.obj
 0001:00000df0       ?QueryInterface@?$CComObject@VCOPOSFiscalPrinter@@@ATL@@WOA@EAAJAEBU_GUID@@PEAPEAX@Z 0000000180001df0 f i FiscalPrinter.obj
 0001:00000dfc       ?AddRef@?$CComObject@VCOPOSFiscalPrinter@@@ATL@@WOA@EAAKXZ 0000000180001dfc f i FiscalPrinter.obj
 0001:00000e08       ?Release@?$CComObject@VCOPOSFiscalPrinter@@@ATL@@WOA@EAAKXZ 0000000180001e08 f i FiscalPrinter.obj
 0001:00000e14       ?QueryInterface@?$CComObject@VCOPOSFiscalPrinter@@@ATL@@WOI@EAAJAEBU_GUID@@PEAPEAX@Z 0000000180001e14 f i FiscalPrinter.obj
 0001:00000e20       ?AddRef@?$CComObject@VCOPOSFiscalPrinter@@@ATL@@WOI@EAAKXZ 0000000180001e20 f i FiscalPrinter.obj
 0001:00000e2c       ?Release@?$CComObject@VCOPOSFiscalPrinter@@@ATL@@WOI@EAAKXZ 0000000180001e2c f i FiscalPrinter.obj
 0001:00000e38       ?QueryInterface@?$CComObject@VCOPOSFiscalPrinter@@@ATL@@WPA@EAAJAEBU_GUID@@PEAPEAX@Z 0000000180001e38 f i FiscalPrinter.obj
 0001:00000e44       ?AddRef@?$CComObject@VCOPOSFiscalPrinter@@@ATL@@WPA@EAAKXZ 0000000180001e44 f i FiscalPrinter.obj
 0001:00000e50       ?Release@?$CComObject@VCOPOSFiscalPrinter@@@ATL@@WPA@EAAKXZ 0000000180001e50 f i FiscalPrinter.obj
 0001:00000e5c       ?QueryInterface@?$CComObject@VCOPOSFiscalPrinter@@@ATL@@WPI@EAAJAEBU_GUID@@PEAPEAX@Z 0000000180001e5c f i FiscalPrinter.obj
 0001:00000e68       ?AddRef@?$CComObject@VCOPOSFiscalPrinter@@@ATL@@WPI@EAAKXZ 0000000180001e68 f i FiscalPrinter.obj
 0001:00000e74       ?Release@?$CComObject@VCOPOSFiscalPrinter@@@ATL@@WPI@EAAKXZ 0000000180001e74 f i FiscalPrinter.obj
 0001:00000e80       ?QueryInterface@?$CComObject@VCOPOSFiscalPrinter@@@ATL@@WBAA@EAAJAEBU_GUID@@PEAPEAX@Z 0000000180001e80 f i FiscalPrinter.obj
 0001:00000e8c       ?AddRef@?$CComObject@VCOPOSFiscalPrinter@@@ATL@@WBAA@EAAKXZ 0000000180001e8c f i FiscalPrinter.obj
 0001:00000e98       ?Release@?$CComObject@VCOPOSFiscalPrinter@@@ATL@@WBAA@EAAKXZ 0000000180001e98 f i FiscalPrinter.obj
 0001:00000ea4       ?QueryInterface@?$CComObject@VCOPOSFiscalPrinter@@@ATL@@WBAI@EAAJAEBU_GUID@@PEAPEAX@Z 0000000180001ea4 f i FiscalPrinter.obj
 0001:00000eb0       ?AddRef@?$CComObject@VCOPOSFiscalPrinter@@@ATL@@WBAI@EAAKXZ 0000000180001eb0 f i FiscalPrinter.obj
 0001:00000ebc       ?Release@?$CComObject@VCOPOSFiscalPrinter@@@ATL@@WBAI@EAAKXZ 0000000180001ebc f i FiscalPrinter.obj
 0001:00000ec8       ?QueryInterface@?$CComObject@VCOPOSFiscalPrinter@@@ATL@@WBBA@EAAJAEBU_GUID@@PEAPEAX@Z 0000000180001ec8 f i FiscalPrinter.obj
 0001:00000ed4       ?AddRef@?$CComObject@VCOPOSFiscalPrinter@@@ATL@@WBBA@EAAKXZ 0000000180001ed4 f i FiscalPrinter.obj
 0001:00000ee0       ?Release@?$CComObject@VCOPOSFiscalPrinter@@@ATL@@WBBA@EAAKXZ 0000000180001ee0 f i FiscalPrinter.obj
 0001:00000eec       ?QueryInterface@?$CComObject@VCOPOSFiscalPrinter@@@ATL@@WBBI@EAAJAEBU_GUID@@PEAPEAX@Z 0000000180001eec f i FiscalPrinter.obj
 0001:00000ef8       ?AddRef@?$CComObject@VCOPOSFiscalPrinter@@@ATL@@WBBI@EAAKXZ 0000000180001ef8 f i FiscalPrinter.obj
 0001:00000f04       ?Release@?$CComObject@VCOPOSFiscalPrinter@@@ATL@@WBBI@EAAKXZ 0000000180001f04 f i FiscalPrinter.obj
 0001:00000f10       ?AddRef@?$CComObject@VCOPOSFiscalPrinter@@@ATL@@WBCI@EAAKXZ 0000000180001f10 f i FiscalPrinter.obj
 0001:00000f1c       ?Release@?$CComObject@VCOPOSFiscalPrinter@@@ATL@@WBCI@EAAKXZ 0000000180001f1c f i FiscalPrinter.obj
 0001:00000f28       ?AddRef@?$CComObject@VCOPOSFiscalPrinter@@@ATL@@WBEA@EAAKXZ 0000000180001f28 f i FiscalPrinter.obj
 0001:00000f34       ?Release@?$CComObject@VCOPOSFiscalPrinter@@@ATL@@WBEA@EAAKXZ 0000000180001f34 f i FiscalPrinter.obj
 0001:00000f40       ??_E?$CComContainedObject@VCOPOSFiscalPrinter@@@ATL@@W7EAAPEAXI@Z 0000000180001f40 f i FiscalPrinter.obj
 0001:00000f4c       ??_E?$CComContainedObject@VCOPOSFiscalPrinter@@@ATL@@WHA@EAAPEAXI@Z 0000000180001f4c f i FiscalPrinter.obj
 0001:00000f58       ?QueryInterface@?$CComContainedObject@VCOPOSFiscalPrinter@@@ATL@@WLI@EAAJAEBU_GUID@@PEAPEAX@Z 0000000180001f58 f i FiscalPrinter.obj
 0001:00000f64       ?AddRef@?$CComContainedObject@VCOPOSFiscalPrinter@@@ATL@@WLI@EAAKXZ 0000000180001f64 f i FiscalPrinter.obj
 0001:00000f70       ?Release@?$CComContainedObject@VCOPOSFiscalPrinter@@@ATL@@WLI@EAAKXZ 0000000180001f70 f i FiscalPrinter.obj
 0001:00000f7c       ?QueryInterface@?$CComContainedObject@VCOPOSFiscalPrinter@@@ATL@@WMA@EAAJAEBU_GUID@@PEAPEAX@Z 0000000180001f7c f i FiscalPrinter.obj
 0001:00000f88       ?AddRef@?$CComContainedObject@VCOPOSFiscalPrinter@@@ATL@@WMA@EAAKXZ 0000000180001f88 f i FiscalPrinter.obj
 0001:00000f94       ?Release@?$CComContainedObject@VCOPOSFiscalPrinter@@@ATL@@WMA@EAAKXZ 0000000180001f94 f i FiscalPrinter.obj
 0001:00000fa0       ?QueryInterface@?$CComContainedObject@VCOPOSFiscalPrinter@@@ATL@@WMI@EAAJAEBU_GUID@@PEAPEAX@Z 0000000180001fa0 f i FiscalPrinter.obj
 0001:00000fac       ?AddRef@?$CComContainedObject@VCOPOSFiscalPrinter@@@ATL@@WMI@EAAKXZ 0000000180001fac f i FiscalPrinter.obj
 0001:00000fb8       ?Release@?$CComContainedObject@VCOPOSFiscalPrinter@@@ATL@@WMI@EAAKXZ 0000000180001fb8 f i FiscalPrinter.obj
 0001:00000fc4       ?QueryInterface@?$CComContainedObject@VCOPOSFiscalPrinter@@@ATL@@WNA@EAAJAEBU_GUID@@PEAPEAX@Z 0000000180001fc4 f i FiscalPrinter.obj
 0001:00000fd0       ?AddRef@?$CComContainedObject@VCOPOSFiscalPrinter@@@ATL@@WNA@EAAKXZ 0000000180001fd0 f i FiscalPrinter.obj
 0001:00000fdc       ?Release@?$CComContainedObject@VCOPOSFiscalPrinter@@@ATL@@WNA@EAAKXZ 0000000180001fdc f i FiscalPrinter.obj
 0001:00000fe8       ?QueryInterface@?$CComContainedObject@VCOPOSFiscalPrinter@@@ATL@@WNI@EAAJAEBU_GUID@@PEAPEAX@Z 0000000180001fe8 f i FiscalPrinter.obj
 0001:00000ff4       ?AddRef@?$CComContainedObject@VCOPOSFiscalPrinter@@@ATL@@WNI@EAAKXZ 0000000180001ff4 f i FiscalPrinter.obj
 0001:00001000       ?Release@?$CComContainedObject@VCOPOSFiscalPrinter@@@ATL@@WNI@EAAKXZ 0000000180002000 f i FiscalPrinter.obj
 0001:0000100c       ?QueryInterface@?$CComContainedObject@VCOPOSFiscalPrinter@@@ATL@@WOA@EAAJAEBU_GUID@@PEAPEAX@Z 000000018000200c f i FiscalPrinter.obj
 0001:00001018       ?AddRef@?$CComContainedObject@VCOPOSFiscalPrinter@@@ATL@@WOA@EAAKXZ 0000000180002018 f i FiscalPrinter.obj
 0001:00001024       ?Release@?$CComContainedObject@VCOPOSFiscalPrinter@@@ATL@@WOA@EAAKXZ 0000000180002024 f i FiscalPrinter.obj
 0001:00001030       ?QueryInterface@?$CComContainedObject@VCOPOSFiscalPrinter@@@ATL@@WOI@EAAJAEBU_GUID@@PEAPEAX@Z 0000000180002030 f i FiscalPrinter.obj
 0001:0000103c       ?AddRef@?$CComContainedObject@VCOPOSFiscalPrinter@@@ATL@@WOI@EAAKXZ 000000018000203c f i FiscalPrinter.obj
 0001:00001048       ?Release@?$CComContainedObject@VCOPOSFiscalPrinter@@@ATL@@WOI@EAAKXZ 0000000180002048 f i FiscalPrinter.obj
 0001:00001054       ?QueryInterface@?$CComContainedObject@VCOPOSFiscalPrinter@@@ATL@@WPA@EAAJAEBU_GUID@@PEAPEAX@Z 0000000180002054 f i FiscalPrinter.obj
 0001:00001060       ?AddRef@?$CComContainedObject@VCOPOSFiscalPrinter@@@ATL@@WPA@EAAKXZ 0000000180002060 f i FiscalPrinter.obj
 0001:0000106c       ?Release@?$CComContainedObject@VCOPOSFiscalPrinter@@@ATL@@WPA@EAAKXZ 000000018000206c f i FiscalPrinter.obj
 0001:00001078       ?QueryInterface@?$CComContainedObject@VCOPOSFiscalPrinter@@@ATL@@WPI@EAAJAEBU_GUID@@PEAPEAX@Z 0000000180002078 f i FiscalPrinter.obj
 0001:00001084       ?AddRef@?$CComContainedObject@VCOPOSFiscalPrinter@@@ATL@@WPI@EAAKXZ 0000000180002084 f i FiscalPrinter.obj
 0001:00001090       ?Release@?$CComContainedObject@VCOPOSFiscalPrinter@@@ATL@@WPI@EAAKXZ 0000000180002090 f i FiscalPrinter.obj
 0001:0000109c       ?QueryInterface@?$CComContainedObject@VCOPOSFiscalPrinter@@@ATL@@WBAA@EAAJAEBU_GUID@@PEAPEAX@Z 000000018000209c f i FiscalPrinter.obj
 0001:000010a8       ?AddRef@?$CComContainedObject@VCOPOSFiscalPrinter@@@ATL@@WBAA@EAAKXZ 00000001800020a8 f i FiscalPrinter.obj
 0001:000010b4       ?Release@?$CComContainedObject@VCOPOSFiscalPrinter@@@ATL@@WBAA@EAAKXZ 00000001800020b4 f i FiscalPrinter.obj
 0001:000010c0       ?QueryInterface@?$CComContainedObject@VCOPOSFiscalPrinter@@@ATL@@WBAI@EAAJAEBU_GUID@@PEAPEAX@Z 00000001800020c0 f i FiscalPrinter.obj
 0001:000010cc       ?AddRef@?$CComContainedObject@VCOPOSFiscalPrinter@@@ATL@@WBAI@EAAKXZ 00000001800020cc f i FiscalPrinter.obj
 0001:000010d8       ?Release@?$CComContainedObject@VCOPOSFiscalPrinter@@@ATL@@WBAI@EAAKXZ 00000001800020d8 f i FiscalPrinter.obj
 0001:000010e4       ?QueryInterface@?$CComContainedObject@VCOPOSFiscalPrinter@@@ATL@@WBBA@EAAJAEBU_GUID@@PEAPEAX@Z 00000001800020e4 f i FiscalPrinter.obj
 0001:000010f0       ?AddRef@?$CComContainedObject@VCOPOSFiscalPrinter@@@ATL@@WBBA@EAAKXZ 00000001800020f0 f i FiscalPrinter.obj
 0001:000010fc       ?Release@?$CComContainedObject@VCOPOSFiscalPrinter@@@ATL@@WBBA@EAAKXZ 00000001800020fc f i FiscalPrinter.obj
 0001:00001108       ?QueryInterface@?$CComContainedObject@VCOPOSFiscalPrinter@@@ATL@@WBBI@EAAJAEBU_GUID@@PEAPEAX@Z 0000000180002108 f i FiscalPrinter.obj
 0001:00001114       ?AddRef@?$CComContainedObject@VCOPOSFiscalPrinter@@@ATL@@WBBI@EAAKXZ 0000000180002114 f i FiscalPrinter.obj
 0001:00001120       ?Release@?$CComContainedObject@VCOPOSFiscalPrinter@@@ATL@@WBBI@EAAKXZ 0000000180002120 f i FiscalPrinter.obj
 0001:0000112c       ?AddRef@?$CComContainedObject@VCOPOSFiscalPrinter@@@ATL@@WBCI@EAAKXZ 000000018000212c f i FiscalPrinter.obj
 0001:00001138       ?Release@?$CComContainedObject@VCOPOSFiscalPrinter@@@ATL@@WBCI@EAAKXZ 0000000180002138 f i FiscalPrinter.obj
 0001:00001144       ?AddRef@?$CComContainedObject@VCOPOSFiscalPrinter@@@ATL@@WBEA@EAAKXZ 0000000180002144 f i FiscalPrinter.obj
 0001:00001150       ?Release@?$CComContainedObject@VCOPOSFiscalPrinter@@@ATL@@WBEA@EAAKXZ 0000000180002150 f i FiscalPrinter.obj
 0001:0000115c       ?Lock@CAtlModule@ATL@@UEAAJXZ 000000018000215c f i FiscalPrinter.obj
 0001:0000116c       ?Unlock@CAtlModule@ATL@@UEAAJXZ 000000018000216c f i FiscalPrinter.obj
 0001:00001178       ?GetLockCount@CAtlModule@ATL@@UEAAJXZ 0000000180002178 f i FiscalPrinter.obj
 0001:0000117c       ?GetGITPtr@CAtlModule@ATL@@UEAAJPEAPEAUIGlobalInterfaceTable@@@Z 000000018000217c f i FiscalPrinter.obj
 0001:000011ec       ?GetTypeInfoCount@?$IDispatchImpl@UIOPOSFiscalPrinter@@$1?IID_IOPOSFiscalPrinter@@3U_GUID@@B$1?LIBID_OposFiscalPrinter_CCO@@3U3@B$00$0A@VCComTypeInfoHolder@ATL@@@ATL@@UEAAJPEAI@Z 00000001800021ec f i FiscalPrinter.obj
 0001:00001200       ?GetTypeInfo@?$IDispatchImpl@UIOPOSFiscalPrinter@@$1?IID_IOPOSFiscalPrinter@@3U_GUID@@B$1?LIBID_OposFiscalPrinter_CCO@@3U3@B$00$0A@VCComTypeInfoHolder@ATL@@@ATL@@UEAAJIKPEAPEAUITypeInfo@@@Z 0000000180002200 f i FiscalPrinter.obj
 0001:00001264       ?GetIDsOfNames@?$IDispatchImpl@UIOPOSFiscalPrinter@@$1?IID_IOPOSFiscalPrinter@@3U_GUID@@B$1?LIBID_OposFiscalPrinter_CCO@@3U3@B$00$0A@VCComTypeInfoHolder@ATL@@@ATL@@UEAAJAEBU_GUID@@PEAPEA_WIKPEAJ@Z 0000000180002264 f i FiscalPrinter.obj
 0001:00001270       ?Invoke@?$IDispatchImpl@UIOPOSFiscalPrinter@@$1?IID_IOPOSFiscalPrinter@@3U_GUID@@B$1?LIBID_OposFiscalPrinter_CCO@@3U3@B$00$0A@VCComTypeInfoHolder@ATL@@@ATL@@UEAAJJAEBU_GUID@@KGPEAUtagDISPPARAMS@@PEAUtagVARIANT@@PEAUtagEXCEPINFO@@PEAI@Z 0000000180002270 f i FiscalPrinter.obj
 0001:00001300       ?AddCommonRGSReplacements@?$CAtlModuleT@VCComModule@ATL@@@ATL@@UEAAJPEAUIRegistrarBase@@@Z 0000000180002300 f i FiscalPrinter.obj
 0001:00001318       ?CreateControlWindow@?$CComControl@VCOPOSFiscalPrinter@@V?$CWindowImpl@VCOPOSFiscalPrinter@@VCWindow@ATL@@V?$CWinTraits@$0FGAAAAAA@$0A@@3@@ATL@@@ATL@@UEAAPEAUHWND__@@PEAU3@AEAUtagRECT@@@Z 0000000180002318 f i FiscalPrinter.obj
 0001:00001350       ?ControlQueryInterface@?$CComControl@VCOPOSFiscalPrinter@@V?$CWindowImpl@VCOPOSFiscalPrinter@@VCWindow@ATL@@V?$CWinTraits@$0FGAAAAAA@$0A@@3@@ATL@@@ATL@@UEAAJAEBU_GUID@@PEAPEAX@Z 0000000180002350 f i FiscalPrinter.obj
 0001:00001364       ?GetClassID@?$IPersistStorageImpl@VCOPOSFiscalPrinter@@@ATL@@UEAAJPEAU_GUID@@@Z 0000000180002364 f i FiscalPrinter.obj
 0001:00001364       ?GetClassID@?$IPersistStreamInitImpl@VCOPOSFiscalPrinter@@@ATL@@UEAAJPEAU_GUID@@@Z 0000000180002364 f i FiscalPrinter.obj
 0001:00001364       ?GetUserClassID@?$IOleObjectImpl@VCOPOSFiscalPrinter@@@ATL@@UEAAJPEAU_GUID@@@Z 0000000180002364 f i FiscalPrinter.obj
 0001:00001380       ?IsDirty@?$IPersistStreamInitImpl@VCOPOSFiscalPrinter@@@ATL@@UEAAJXZ 0000000180002380 f i FiscalPrinter.obj
 0001:0000139c       ?Load@?$IPersistStreamInitImpl@VCOPOSFiscalPrinter@@@ATL@@UEAAJPEAUIStream@@@Z 000000018000239c f i FiscalPrinter.obj
 0001:000013b4       ?Save@?$IPersistStreamInitImpl@VCOPOSFiscalPrinter@@@ATL@@UEAAJPEAUIStream@@H@Z 00000001800023b4 f i FiscalPrinter.obj
 0001:000013cc       ?GetSizeMax@?$IPersistStreamInitImpl@VCOPOSFiscalPrinter@@@ATL@@UEAAJPEAT_ULARGE_INTEGER@@@Z 00000001800023cc f i FiscalPrinter.obj
 0001:000015f8       ?InitNew@?$IPersistStreamInitImpl@VCOPOSFiscalPrinter@@@ATL@@UEAAJXZ 00000001800025f8 f i FiscalPrinter.obj
 0001:00001610       ?SetMoniker@?$IOleObjectImpl@VCOPOSFiscalPrinter@@@ATL@@UEAAJKPEAUIMoniker@@@Z 0000000180002610 f i FiscalPrinter.obj
 0001:00001610       ?ContextSensitiveHelp@?$IOleInPlaceObjectWindowlessImpl@VCOPOSFiscalPrinter@@@ATL@@UEAAJH@Z 0000000180002610 f i FiscalPrinter.obj
 0001:00001610       ?OnMnemonic@?$IOleControlImpl@VCOPOSFiscalPrinter@@@ATL@@UEAAJPEAUtagMSG@@@Z 0000000180002610 f i FiscalPrinter.obj
 0001:00001610       ?QueryInterface@CRegObject@ATL@@UEAAJAEBU_GUID@@PEAPEAX@Z 0000000180002610 f i FiscalPrinter.obj
 0001:00001610       ?GetRect@?$IViewObjectExImpl@VCOPOSFiscalPrinter@@@ATL@@UEAAJKPEAU_RECTL@@@Z 0000000180002610 f i FiscalPrinter.obj
 0001:00001610       ?GetColorSet@?$IViewObjectExImpl@VCOPOSFiscalPrinter@@@ATL@@UEAAJKJPEAXPEAUtagDVTARGETDEVICE@@PEAUHDC__@@PEAPEAUtagLOGPALETTE@@@Z 0000000180002610 f i FiscalPrinter.obj
 0001:00001610       ?QueryGetData@?$IDataObjectImpl@VCOPOSFiscalPrinter@@@ATL@@UEAAJPEAUtagFORMATETC@@@Z 0000000180002610 f i FiscalPrinter.obj
 0001:00001610       ?Freeze@?$IViewObjectExImpl@VCOPOSFiscalPrinter@@@ATL@@UEAAJKJPEAXPEAK@Z 0000000180002610 f i FiscalPrinter.obj
 0001:00001610       ?GetDataHere@?$IDataObjectImpl@VCOPOSFiscalPrinter@@@ATL@@UEAAJPEAUtagFORMATETC@@PEAUtagSTGMEDIUM@@@Z 0000000180002610 f i FiscalPrinter.obj
 0001:00001610       ?ContextSensitiveHelp@?$IOleInPlaceActiveObjectImpl@VCOPOSFiscalPrinter@@@ATL@@UEAAJH@Z 0000000180002610 f i FiscalPrinter.obj
 0001:00001610       ?GetClipboardData@?$IOleObjectImpl@VCOPOSFiscalPrinter@@@ATL@@UEAAJKPEAPEAUIDataObject@@@Z 0000000180002610 f i FiscalPrinter.obj
 0001:00001610       ?SODataDummy@COPOSFiscalPrinter@@MEAAJJ@Z 0000000180002610 f i FiscalPrinter.obj
 0001:00001610       ?ReactivateAndUndo@?$IOleInPlaceObjectWindowlessImpl@VCOPOSFiscalPrinter@@@ATL@@UEAAJXZ 0000000180002610 f i FiscalPrinter.obj
 0001:00001610       ?EnumFormatEtc@?$IDataObjectImpl@VCOPOSFiscalPrinter@@@ATL@@UEAAJKPEAPEAUIEnumFORMATETC@@@Z 0000000180002610 f i FiscalPrinter.obj
 0001:00001610       ?InitFromData@?$IOleObjectImpl@VCOPOSFiscalPrinter@@@ATL@@UEAAJPEAUIDataObject@@HK@Z 0000000180002610 f i FiscalPrinter.obj
 0001:00001610       ?GetDropTarget@?$IOleInPlaceObjectWindowlessImpl@VCOPOSFiscalPrinter@@@ATL@@UEAAJPEAPEAUIDropTarget@@@Z 0000000180002610 f i FiscalPrinter.obj
 0001:00001610       ?GetControlInfo@?$IOleControlImpl@VCOPOSFiscalPrinter@@@ATL@@UEAAJPEAUtagCONTROLINFO@@@Z 0000000180002610 f i FiscalPrinter.obj
 0001:00001610       ?GetCanonicalFormatEtc@?$IDataObjectImpl@VCOPOSFiscalPrinter@@@ATL@@UEAAJPEAUtagFORMATETC@@0@Z 0000000180002610 f i FiscalPrinter.obj
 0001:00001610       ?Unfreeze@?$IViewObjectExImpl@VCOPOSFiscalPrinter@@@ATL@@UEAAJK@Z 0000000180002610 f i FiscalPrinter.obj
 0001:00001610       ?GetMoniker@?$IOleObjectImpl@VCOPOSFiscalPrinter@@@ATL@@UEAAJKKPEAPEAUIMoniker@@@Z 0000000180002610 f i FiscalPrinter.obj
 0001:00001610       ?SetColorScheme@?$IOleObjectImpl@VCOPOSFiscalPrinter@@@ATL@@UEAAJPEAUtagLOGPALETTE@@@Z 0000000180002610 f i FiscalPrinter.obj
 0001:00001610       ?SetData@?$IDataObjectImpl@VCOPOSFiscalPrinter@@@ATL@@UEAAJPEAUtagFORMATETC@@PEAUtagSTGMEDIUM@@H@Z 0000000180002610 f i FiscalPrinter.obj
 0001:00001618       ?IsUpToDate@?$IOleObjectImpl@VCOPOSFiscalPrinter@@@ATL@@UEAAJXZ 0000000180002618 f i FiscalPrinter.obj
 0001:00001618       ?SetHostNames@?$IOleObjectImpl@VCOPOSFiscalPrinter@@@ATL@@UEAAJPEB_W0@Z 0000000180002618 f i FiscalPrinter.obj
 0001:00001618       ?HandsOffStorage@?$IPersistStorageImpl@VCOPOSFiscalPrinter@@@ATL@@UEAAJXZ 0000000180002618 f i FiscalPrinter.obj
 0001:00001618       ?Release@CRegObject@ATL@@UEAAKXZ 0000000180002618 f i FiscalPrinter.obj
 0001:00001618       ?OnFrameWindowActivate@?$IOleInPlaceActiveObjectImpl@VCOPOSFiscalPrinter@@@ATL@@UEAAJH@Z 0000000180002618 f i FiscalPrinter.obj
 0001:00001618       ?SaveCompleted@?$IPersistStorageImpl@VCOPOSFiscalPrinter@@@ATL@@UEAAJPEAUIStorage@@@Z 0000000180002618 f i FiscalPrinter.obj
 0001:00001618       ?GetObjectDescription@?$CComCoClass@VCOPOSFiscalPrinter@@$1?CLSID_OPOSFiscalPrinter@@3U_GUID@@B@ATL@@SAPEB_WXZ 0000000180002618 f i FiscalPrinter.obj
 0001:00001618       ?Update@?$IOleObjectImpl@VCOPOSFiscalPrinter@@@ATL@@UEAAJXZ 0000000180002618 f i FiscalPrinter.obj
 0001:00001618       ?GetCategoryMap@CComObjectRootBase@ATL@@SAPEBU_ATL_CATMAP_ENTRY@2@XZ 0000000180002618 f i FiscalPrinter.obj
 0001:00001618       ?ResizeBorder@?$IOleInPlaceActiveObjectImpl@VCOPOSFiscalPrinter@@@ATL@@UEAAJPEBUtagRECT@@PEAUIOleInPlaceUIWindow@@H@Z 0000000180002618 f i FiscalPrinter.obj
 0001:00001618       ?EnableModeless@?$IOleInPlaceActiveObjectImpl@VCOPOSFiscalPrinter@@@ATL@@UEAAJH@Z 0000000180002618 f i FiscalPrinter.obj
 0001:00001618       ?OnAmbientPropertyChange@?$IOleControlImpl@VCOPOSFiscalPrinter@@@ATL@@UEAAJJ@Z 0000000180002618 f i FiscalPrinter.obj
 0001:0000161c       ?UpdateRegistryFromResourceD@CComModule@ATL@@UEAAJIHPEAU_ATL_REGMAP_ENTRY@2@@Z 000000018000261c f i FiscalPrinter.obj
 0001:0000161c       ?UpdateRegistryFromResourceD@CComModule@ATL@@UEAAJPEB_WHPEAU_ATL_REGMAP_ENTRY@2@@Z 000000018000261c f i FiscalPrinter.obj
 0001:00001624       ?UpdateRegistryFromResource@CComModule@ATL@@UEAAJPEB_WHPEAU_ATL_REGMAP_ENTRY@2@@Z 0000000180002624 f i FiscalPrinter.obj
 0001:0000162c       ?UpdateRegistryFromResource@CComModule@ATL@@UEAAJIHPEAU_ATL_REGMAP_ENTRY@2@@Z 000000018000262c f i FiscalPrinter.obj
 0001:00001634       ?SetClientSite@?$IOleObjectImpl@VCOPOSFiscalPrinter@@@ATL@@UEAAJPEAUIOleClientSite@@@Z 0000000180002634 f i FiscalPrinter.obj
 0001:00001650       ?GetClientSite@?$IOleObjectImpl@VCOPOSFiscalPrinter@@@ATL@@UEAAJPEAPEAUIOleClientSite@@@Z 0000000180002650 f i FiscalPrinter.obj
 0001:00001698       ?Close@?$IOleObjectImpl@VCOPOSFiscalPrinter@@@ATL@@UEAAJK@Z 0000000180002698 f i FiscalPrinter.obj
 0001:000016b4       ?DoVerb@?$IOleObjectImpl@VCOPOSFiscalPrinter@@@ATL@@UEAAJJPEAUtagMSG@@PEAUIOleClientSite@@JPEAUHWND__@@PEBUtagRECT@@@Z 00000001800026b4 f i FiscalPrinter.obj
 0001:00001858       ?EnumVerbs@?$IOleObjectImpl@VCOPOSFiscalPrinter@@@ATL@@UEAAJPEAPEAUIEnumOLEVERB@@@Z 0000000180002858 f i FiscalPrinter.obj
 0001:00001874       ?GetUserType@?$IOleObjectImpl@VCOPOSFiscalPrinter@@@ATL@@UEAAJKPEAPEA_W@Z 0000000180002874 f i FiscalPrinter.obj
 0001:00001884       ?SetExtent@?$IOleObjectImpl@VCOPOSFiscalPrinter@@@ATL@@UEAAJKPEAUtagSIZE@@@Z 0000000180002884 f i FiscalPrinter.obj
 0001:000018a0       ?GetExtent@?$IOleObjectImpl@VCOPOSFiscalPrinter@@@ATL@@UEAAJKPEAUtagSIZE@@@Z 00000001800028a0 f i FiscalPrinter.obj
 0001:000018d0       ?Advise@?$IOleObjectImpl@VCOPOSFiscalPrinter@@@ATL@@UEAAJPEAUIAdviseSink@@PEAK@Z 00000001800028d0 f i FiscalPrinter.obj
 0001:0000192c       ?Unadvise@?$IOleObjectImpl@VCOPOSFiscalPrinter@@@ATL@@UEAAJK@Z 000000018000292c f i FiscalPrinter.obj
 0001:00001964       ?EnumAdvise@?$IOleObjectImpl@VCOPOSFiscalPrinter@@@ATL@@UEAAJPEAPEAUIEnumSTATDATA@@@Z 0000000180002964 f i FiscalPrinter.obj
 0001:000019ac       ?GetMiscStatus@?$IOleObjectImpl@VCOPOSFiscalPrinter@@@ATL@@UEAAJKPEAK@Z 00000001800029ac f i FiscalPrinter.obj
 0001:000019bc       ??_GCComModule@ATL@@UEAAPEAXI@Z 00000001800029bc f i FiscalPrinter.obj
 0001:000019bc       ??_ECComModule@ATL@@UEAAPEAXI@Z 00000001800029bc f i FiscalPrinter.obj
 0001:000019fc       ?GetWindow@?$IOleInPlaceActiveObjectImpl@VCOPOSFiscalPrinter@@@ATL@@UEAAJPEAPEAUHWND__@@@Z 00000001800029fc f i FiscalPrinter.obj
 0001:00001a50       ?TranslateAcceleratorW@?$IOleInPlaceActiveObjectImpl@VCOPOSFiscalPrinter@@@ATL@@UEAAJPEAUtagMSG@@@Z 0000000180002a50 f i FiscalPrinter.obj
 0001:00001b44       ?OnDocWindowActivate@?$IOleInPlaceActiveObjectImpl@VCOPOSFiscalPrinter@@@ATL@@UEAAJH@Z 0000000180002b44 f i FiscalPrinter.obj
 0001:00001b70       ?Draw@?$IViewObjectExImpl@VCOPOSFiscalPrinter@@@ATL@@UEAAJKJPEAXPEAUtagDVTARGETDEVICE@@PEAUHDC__@@2PEBU_RECTL@@3P6AH_K@Z4@Z 0000000180002b70 f i FiscalPrinter.obj
 0001:00001bd4       ?SetAdvise@?$IViewObjectExImpl@VCOPOSFiscalPrinter@@@ATL@@UEAAJKKPEAUIAdviseSink@@@Z 0000000180002bd4 f i FiscalPrinter.obj
 0001:00001c28       ?GetAdvise@?$IViewObjectExImpl@VCOPOSFiscalPrinter@@@ATL@@UEAAJPEAK0PEAPEAUIAdviseSink@@@Z 0000000180002c28 f i FiscalPrinter.obj
 0001:00001c64       ?GetExtent@?$IViewObjectExImpl@VCOPOSFiscalPrinter@@@ATL@@UEAAJKJPEAUtagDVTARGETDEVICE@@PEAUtagSIZE@@@Z 0000000180002c64 f i FiscalPrinter.obj
 0001:00001c94       ?GetViewStatus@?$IViewObjectExImpl@VCOPOSFiscalPrinter@@@ATL@@UEAAJPEAK@Z 0000000180002c94 f i FiscalPrinter.obj
 0001:00001ca8       ?QueryHitPoint@?$IViewObjectExImpl@VCOPOSFiscalPrinter@@@ATL@@UEAAJKPEBUtagRECT@@UtagPOINT@@JPEAK@Z 0000000180002ca8 f i FiscalPrinter.obj
 0001:00001cec       ?QueryHitRect@?$IViewObjectExImpl@VCOPOSFiscalPrinter@@@ATL@@UEAAJKPEBUtagRECT@@0JPEAK@Z 0000000180002cec f i FiscalPrinter.obj
 0001:00001d54       ?GetNaturalExtent@?$IViewObjectExImpl@VCOPOSFiscalPrinter@@@ATL@@UEAAJKJPEAUtagDVTARGETDEVICE@@PEAUHDC__@@PEAUtagExtentInfo@@PEAUtagSIZE@@@Z 0000000180002d54 f i FiscalPrinter.obj
 0001:00001d9c       ?GetWindow@?$IOleInPlaceObjectWindowlessImpl@VCOPOSFiscalPrinter@@@ATL@@UEAAJPEAPEAUHWND__@@@Z 0000000180002d9c f i FiscalPrinter.obj
 0001:00001df0       ?InPlaceDeactivate@?$IOleInPlaceObjectWindowlessImpl@VCOPOSFiscalPrinter@@@ATL@@UEAAJXZ 0000000180002df0 f i FiscalPrinter.obj
 0001:00001e0c       ?UIDeactivate@?$IOleInPlaceObjectWindowlessImpl@VCOPOSFiscalPrinter@@@ATL@@UEAAJXZ 0000000180002e0c f i FiscalPrinter.obj
 0001:00001e28       ?SetObjectRects@?$IOleInPlaceObjectWindowlessImpl@VCOPOSFiscalPrinter@@@ATL@@UEAAJPEBUtagRECT@@0@Z 0000000180002e28 f i FiscalPrinter.obj
 0001:00001e44       ?OnWindowMessage@?$IOleInPlaceObjectWindowlessImpl@VCOPOSFiscalPrinter@@@ATL@@UEAAJI_K_JPEA_J@Z 0000000180002e44 f i FiscalPrinter.obj
 0001:00001f0c       ?EnumConnectionPoints@?$IConnectionPointContainerImpl@VCOPOSFiscalPrinter@@@ATL@@UEAAJPEAPEAUIEnumConnectionPoints@@@Z 0000000180002f0c f i FiscalPrinter.obj
 0001:00002158       ?FindConnectionPoint@?$IConnectionPointContainerImpl@VCOPOSFiscalPrinter@@@ATL@@UEAAJAEBU_GUID@@PEAPEAUIConnectionPoint@@@Z 0000000180003158 f i FiscalPrinter.obj
 0001:00002228       ?IsDirty@?$IPersistStorageImpl@VCOPOSFiscalPrinter@@@ATL@@UEAAJXZ 0000000180003228 f i FiscalPrinter.obj
 0001:00002268       ?InitNew@?$IPersistStorageImpl@VCOPOSFiscalPrinter@@@ATL@@UEAAJPEAUIStorage@@@Z 0000000180003268 f i FiscalPrinter.obj
 0001:000022a8       ?Load@?$IPersistStorageImpl@VCOPOSFiscalPrinter@@@ATL@@UEAAJPEAUIStorage@@@Z 00000001800032a8 f i FiscalPrinter.obj
 0001:00002348       ?Save@?$IPersistStorageImpl@VCOPOSFiscalPrinter@@@ATL@@UEAAJPEAUIStorage@@H@Z 0000000180003348 f i FiscalPrinter.obj
 0001:000023f8       ?GetPages@?$ISpecifyPropertyPagesImpl@VCOPOSFiscalPrinter@@@ATL@@UEAAJPEAUtagCAUUID@@@Z 00000001800033f8 f i FiscalPrinter.obj
 0001:00002404       ?QuickActivate@?$IQuickActivateImpl@VCOPOSFiscalPrinter@@@ATL@@UEAAJPEAUtagQACONTAINER@@PEAUtagQACONTROL@@@Z 0000000180003404 f i FiscalPrinter.obj
 0001:00002420       ?SetContentExtent@?$IQuickActivateImpl@VCOPOSFiscalPrinter@@@ATL@@UEAAJPEAUtagSIZE@@@Z 0000000180003420 f i FiscalPrinter.obj
 0001:00002454       ?GetContentExtent@?$IQuickActivateImpl@VCOPOSFiscalPrinter@@@ATL@@UEAAJPEAUtagSIZE@@@Z 0000000180003454 f i FiscalPrinter.obj
 0001:0000248c       ?GetData@?$IDataObjectImpl@VCOPOSFiscalPrinter@@@ATL@@UEAAJPEAUtagFORMATETC@@PEAUtagSTGMEDIUM@@@Z 000000018000348c f i FiscalPrinter.obj
 0001:000024a8       ?DAdvise@?$IDataObjectImpl@VCOPOSFiscalPrinter@@@ATL@@UEAAJPEAUtagFORMATETC@@KPEAUIAdviseSink@@PEAK@Z 00000001800034a8 f i FiscalPrinter.obj
 0001:00002530       ?DUnadvise@?$IDataObjectImpl@VCOPOSFiscalPrinter@@@ATL@@UEAAJK@Z 0000000180003530 f i FiscalPrinter.obj
 0001:0000255c       ?EnumDAdvise@?$IDataObjectImpl@VCOPOSFiscalPrinter@@@ATL@@UEAAJPEAPEAUIEnumSTATDATA@@@Z 000000018000355c f i FiscalPrinter.obj
 0001:00002598       ?GetClassInfoW@?$IProvideClassInfo2Impl@$1?CLSID_OPOSFiscalPrinter@@3U_GUID@@B$1?DIID__IOPOSFiscalPrinterEvents@@3U2@B$1?LIBID_OposFiscalPrinter_CCO@@3U2@B$00$0A@VCComTypeInfoHolder@ATL@@@ATL@@UEAAJPEAPEAUITypeInfo@@@Z 0000000180003598 f i FiscalPrinter.obj
 0001:000025f0       ?GetGUID@?$IProvideClassInfo2Impl@$1?CLSID_OPOSFiscalPrinter@@3U_GUID@@B$1?DIID__IOPOSFiscalPrinterEvents@@3U2@B$1?LIBID_OposFiscalPrinter_CCO@@3U2@B$00$0A@VCComTypeInfoHolder@ATL@@@ATL@@UEAAJKPEAU_GUID@@@Z 00000001800035f0 f i FiscalPrinter.obj
 0001:00002624       ?AddRef@CRegObject@ATL@@UEAAKXZ 0000000180003624 f i FiscalPrinter.obj
 0001:00002624       ?FAccessAllowed@?$IObjectSafetyImpl@VCOPOSFiscalPrinter@@$02@ATL@@MEAAHXZ 0000000180003624 f i FiscalPrinter.obj
 0001:00002624       _get_startup_argv_mode     0000000180003624 f i LIBCMT:argv_mode.obj
 0001:0000262c       ?GetInterfaceSafetyOptions@?$IObjectSafetyImpl@VCOPOSFiscalPrinter@@$02@ATL@@UEAAJAEBU_GUID@@PEAK1@Z 000000018000362c f i FiscalPrinter.obj
 0001:000026c0       ?SetInterfaceSafetyOptions@?$IObjectSafetyImpl@VCOPOSFiscalPrinter@@$02@ATL@@UEAAJAEBU_GUID@@KK@Z 00000001800036c0 f i FiscalPrinter.obj
 0001:00002764       ?_LocCPQueryInterface@?$IConnectionPointImpl@VCOPOSFiscalPrinter@@$1?IID_IPropertyNotifySink@@3U_GUID@@BVCComDynamicUnkArray@ATL@@@ATL@@UEAAJAEBU_GUID@@PEAPEAX@Z 0000000180003764 f i FiscalPrinter.obj
 0001:00002764       ?_LocCPQueryInterface@?$IConnectionPointImpl@VCOPOSFiscalPrinter@@$1?DIID__IOPOSFiscalPrinterEvents@@3U_GUID@@BVCComDynamicUnkArray@ATL@@@ATL@@UEAAJAEBU_GUID@@PEAPEAX@Z 0000000180003764 f i FiscalPrinter.obj
 0001:000027d4       ?GetConnectionInterface@?$IConnectionPointImpl@VCOPOSFiscalPrinter@@$1?IID_IPropertyNotifySink@@3U_GUID@@BVCComDynamicUnkArray@ATL@@@ATL@@UEAAJPEAU_GUID@@@Z 00000001800037d4 f i FiscalPrinter.obj
 0001:000027f0       ?GetConnectionPointContainer@?$IConnectionPointImpl@VCOPOSFiscalPrinter@@$1?IID_IPropertyNotifySink@@3U_GUID@@BVCComDynamicUnkArray@ATL@@@ATL@@UEAAJPEAPEAUIConnectionPointContainer@@@Z 00000001800037f0 f i FiscalPrinter.obj
 0001:00002810       ?Advise@?$IConnectionPointImpl@VCOPOSFiscalPrinter@@$1?IID_IPropertyNotifySink@@3U_GUID@@BVCComDynamicUnkArray@ATL@@@ATL@@UEAAJPEAUIUnknown@@PEAK@Z 0000000180003810 f i FiscalPrinter.obj
 0001:00002810       ?Advise@?$IConnectionPointImpl@VCOPOSFiscalPrinter@@$1?DIID__IOPOSFiscalPrinterEvents@@3U_GUID@@BVCComDynamicUnkArray@ATL@@@ATL@@UEAAJPEAUIUnknown@@PEAK@Z 0000000180003810 f i FiscalPrinter.obj
 0001:000028cc       ?Unadvise@?$IConnectionPointImpl@VCOPOSFiscalPrinter@@$1?IID_IPropertyNotifySink@@3U_GUID@@BVCComDynamicUnkArray@ATL@@@ATL@@UEAAJK@Z 00000001800038cc f i FiscalPrinter.obj
 0001:000028cc       ?Unadvise@?$IConnectionPointImpl@VCOPOSFiscalPrinter@@$1?DIID__IOPOSFiscalPrinterEvents@@3U_GUID@@BVCComDynamicUnkArray@ATL@@@ATL@@UEAAJK@Z 00000001800038cc f i FiscalPrinter.obj
 0001:00002934       ?EnumConnections@?$IConnectionPointImpl@VCOPOSFiscalPrinter@@$1?IID_IPropertyNotifySink@@3U_GUID@@BVCComDynamicUnkArray@ATL@@@ATL@@UEAAJPEAPEAUIEnumConnections@@@Z 0000000180003934 f i FiscalPrinter.obj
 0001:00002934       ?EnumConnections@?$IConnectionPointImpl@VCOPOSFiscalPrinter@@$1?DIID__IOPOSFiscalPrinterEvents@@3U_GUID@@BVCComDynamicUnkArray@ATL@@@ATL@@UEAAJPEAPEAUIEnumConnections@@@Z 0000000180003934 f i FiscalPrinter.obj
 0001:00002ae0       ?GetConnectionInterface@?$IConnectionPointImpl@VCOPOSFiscalPrinter@@$1?DIID__IOPOSFiscalPrinterEvents@@3U_GUID@@BVCComDynamicUnkArray@ATL@@@ATL@@UEAAJPEAU_GUID@@@Z 0000000180003ae0 f i FiscalPrinter.obj
 0001:00002afc       ?GetConnectionPointContainer@?$IConnectionPointImpl@VCOPOSFiscalPrinter@@$1?DIID__IOPOSFiscalPrinterEvents@@3U_GUID@@BVCComDynamicUnkArray@ATL@@@ATL@@UEAAJPEAPEAUIConnectionPointContainer@@@Z 0000000180003afc f i FiscalPrinter.obj
 0001:00002b1c       ?UpdateRegistry@COPOSFiscalPrinter@@SAJH@Z 0000000180003b1c f i FiscalPrinter.obj
 0001:00002b34       ?ProcessWindowMessage@COPOSFiscalPrinter@@UEAAHPEAUHWND__@@I_K_JAEA_JK@Z 0000000180003b34 f i FiscalPrinter.obj
 0001:00002bbc       ?SODirectIO@COPOSFiscalPrinter@@MEAAJJPEAJPEAPEA_W@Z 0000000180003bbc f i FiscalPrinter.obj
 0001:00002c34       ?SOError@COPOSFiscalPrinter@@MEAAJJJJPEAJ@Z 0000000180003c34 f i FiscalPrinter.obj
 0001:00002cbc       ?SOOutputComplete@COPOSFiscalPrinter@@MEAAJJ@Z 0000000180003cbc f i FiscalPrinter.obj
 0001:00002d0c       ?SOStatusUpdate@COPOSFiscalPrinter@@MEAAJJ@Z 0000000180003d0c f i FiscalPrinter.obj
 0001:00002d5c       ?AddReplacement@CRegObject@ATL@@UEAAJPEB_W0@Z 0000000180003d5c f i FiscalPrinter.obj
 0001:00002d8c       ?ClearReplacements@CRegObject@ATL@@UEAAJXZ 0000000180003d8c f i FiscalPrinter.obj
 0001:00002d98       ??_GCRegObject@ATL@@UEAAPEAXI@Z 0000000180003d98 f i FiscalPrinter.obj
 0001:00002d98       ??_ECRegObject@ATL@@UEAAPEAXI@Z 0000000180003d98 f i FiscalPrinter.obj
 0001:00002e18       ?CreateInstance@?$CComCreator@V?$CComObjectCached@VCComClassFactory@ATL@@@ATL@@@ATL@@SAJPEAXAEBU_GUID@@PEAPEAX@Z 0000000180003e18 f i FiscalPrinter.obj
 0001:00002f3c       ?CreateInstance@?$CComCreator2@V?$CComCreator@V?$CComObject@VCOPOSFiscalPrinter@@@ATL@@@ATL@@V?$CComCreator@V?$CComAggObject@VCOPOSFiscalPrinter@@@ATL@@@2@@ATL@@SAJPEAXAEBU_GUID@@PEAPEAX@Z 0000000180003f3c f i FiscalPrinter.obj
 0001:00002f4c       ?AddRef@?$CComObjectCached@VCComClassFactory@ATL@@@ATL@@UEAAKXZ 0000000180003f4c f i FiscalPrinter.obj
 0001:00002f78       ?Release@?$CComObjectCached@VCComClassFactory@ATL@@@ATL@@UEAAKXZ 0000000180003f78 f i FiscalPrinter.obj
 0001:00002fb8       ?QueryInterface@?$CComObjectCached@VCComClassFactory@ATL@@@ATL@@UEAAJAEBU_GUID@@PEAPEAX@Z 0000000180003fb8 f i FiscalPrinter.obj
 0001:00002fcc       ??_E?$CComObjectCached@VCComClassFactory@ATL@@@ATL@@UEAAPEAXI@Z 0000000180003fcc f i FiscalPrinter.obj
 0001:00002fcc       ??_G?$CComObjectCached@VCComClassFactory@ATL@@@ATL@@UEAAPEAXI@Z 0000000180003fcc f i FiscalPrinter.obj
 0001:00003024       ?Next@?$CComEnumImpl@UIEnumConnectionPoints@@$1?_GUID_b196b285_bab4_101a_b69c_00aa00341d07@@3U__s_GUID@@BPEAUIConnectionPoint@@V?$_CopyInterface@UIConnectionPoint@@@ATL@@@ATL@@UEAAJKPEAPEAUIConnectionPoint@@PEAK@Z 0000000180004024 f i FiscalPrinter.obj
 0001:000030f0       ?Skip@?$CComEnumImpl@UIEnumConnectionPoints@@$1?_GUID_b196b285_bab4_101a_b69c_00aa00341d07@@3U__s_GUID@@BPEAUIConnectionPoint@@V?$_CopyInterface@UIConnectionPoint@@@ATL@@@ATL@@UEAAJK@Z 00000001800040f0 f i FiscalPrinter.obj
 0001:0000311c       ?Clone@?$CComEnumImpl@UIEnumConnectionPoints@@$1?_GUID_b196b285_bab4_101a_b69c_00aa00341d07@@3U__s_GUID@@BPEAUIConnectionPoint@@V?$_CopyInterface@UIConnectionPoint@@@ATL@@@ATL@@UEAAJPEAPEAUIEnumConnectionPoints@@@Z 000000018000411c f i FiscalPrinter.obj
 0001:00003248       ?QueryInterface@?$CComObject@V?$CComEnum@UIEnumConnectionPoints@@$1?_GUID_b196b285_bab4_101a_b69c_00aa00341d07@@3U__s_GUID@@BPEAUIConnectionPoint@@V?$_CopyInterface@UIConnectionPoint@@@ATL@@VCComSingleThreadModel@6@@ATL@@@ATL@@UEAAJAEBU_GUID@@PEAPEAX@Z 0000000180004248 f i FiscalPrinter.obj
 0001:0000325c       ??_E?$CComObject@V?$CComEnum@UIEnumConnectionPoints@@$1?_GUID_b196b285_bab4_101a_b69c_00aa00341d07@@3U__s_GUID@@BPEAUIConnectionPoint@@V?$_CopyInterface@UIConnectionPoint@@@ATL@@VCComSingleThreadModel@6@@ATL@@@ATL@@UEAAPEAXI@Z 000000018000425c f i FiscalPrinter.obj
 0001:0000325c       ??_G?$CComObject@V?$CComEnum@UIEnumConnectionPoints@@$1?_GUID_b196b285_bab4_101a_b69c_00aa00341d07@@3U__s_GUID@@BPEAUIConnectionPoint@@V?$_CopyInterface@UIConnectionPoint@@@ATL@@VCComSingleThreadModel@6@@ATL@@@ATL@@UEAAPEAXI@Z 000000018000425c f i FiscalPrinter.obj
 0001:000032b4       ?OnDrawAdvanced@CComControlBase@ATL@@UEAAJAEAUATL_DRAWINFO@@@Z 00000001800042b4 f i FiscalPrinter.obj
 0001:00003440       ?AddRef@?$CComAggObject@VCOPOSFiscalPrinter@@@ATL@@UEAAKXZ 0000000180004440 f i FiscalPrinter.obj
 0001:0000344c       ?Release@?$CComAggObject@VCOPOSFiscalPrinter@@@ATL@@UEAAKXZ 000000018000444c f i FiscalPrinter.obj
 0001:000034a0       ?QueryInterface@?$CComAggObject@VCOPOSFiscalPrinter@@@ATL@@UEAAJAEBU_GUID@@PEAPEAX@Z 00000001800044a0 f i FiscalPrinter.obj
 0001:00003500       ?AddRef@?$CComContainedObject@VCOPOSFiscalPrinter@@@ATL@@UEAAKXZ 0000000180004500 f i FiscalPrinter.obj
 0001:00003510       ?Release@?$CComContainedObject@VCOPOSFiscalPrinter@@@ATL@@UEAAKXZ 0000000180004510 f i FiscalPrinter.obj
 0001:00003520       ?QueryInterface@?$CComContainedObject@VCOPOSFiscalPrinter@@@ATL@@UEAAJAEBU_GUID@@PEAPEAX@Z 0000000180004520 f i FiscalPrinter.obj
 0001:00003530       ??_E?$CComAggObject@VCOPOSFiscalPrinter@@@ATL@@UEAAPEAXI@Z 0000000180004530 f i FiscalPrinter.obj
 0001:00003530       ??_G?$CComAggObject@VCOPOSFiscalPrinter@@@ATL@@UEAAPEAXI@Z 0000000180004530 f i FiscalPrinter.obj
 0001:00003588       ?AddRef@?$CComObject@VCOPOSFiscalPrinter@@@ATL@@UEAAKXZ 0000000180004588 f i FiscalPrinter.obj
 0001:00003598       ?Release@?$CComObject@VCOPOSFiscalPrinter@@@ATL@@UEAAKXZ 0000000180004598 f i FiscalPrinter.obj
 0001:000035f0       ?QueryInterface@?$CComObject@VCOPOSFiscalPrinter@@@ATL@@UEAAJAEBU_GUID@@PEAPEAX@Z 00000001800045f0 f i FiscalPrinter.obj
 0001:00003604       ?CreateInstance@CComClassFactory@ATL@@UEAAJPEAUIUnknown@@AEBU_GUID@@PEAPEAX@Z 0000000180004604 f i FiscalPrinter.obj
 0001:00003664       ?LockServer@CComClassFactory@ATL@@UEAAJH@Z 0000000180004664 f i FiscalPrinter.obj
 0001:00003688       ??_GCComClassFactory@ATL@@UEAAPEAXI@Z 0000000180004688 f i FiscalPrinter.obj
 0001:00003688       ??_ECComClassFactory@ATL@@UEAAPEAXI@Z 0000000180004688 f i FiscalPrinter.obj
 0001:000036d8       ??$AtlModuleRegisterWndClassInfoT@VAtlModuleRegisterWndClassInfoParamW@ATL@@@ATL@@YAGPEAU_ATL_BASE_MODULE70@0@PEAU_ATL_WIN_MODULE70@0@PEAU_ATL_WNDCLASSINFOW@0@PEAP6A_JPEAUHWND__@@I_K_J@ZVAtlModuleRegisterWndClassInfoParamW@0@@Z 00000001800046d8 f i FiscalPrinter.obj
 0001:000038d8       ??0?$CComContainedObject@VCOPOSFiscalPrinter@@@ATL@@QEAA@PEAX@Z 00000001800048d8 f i FiscalPrinter.obj
 0001:000039f4       ??0?$CComObject@VCOPOSFiscalPrinter@@@ATL@@QEAA@PEAX@Z 00000001800049f4 f i FiscalPrinter.obj
 0001:00003b0c       ??0CAtlModule@ATL@@QEAA@XZ 0000000180004b0c f i FiscalPrinter.obj
 0001:00003b80       ??1?$CComEnumImpl@UIEnumConnectionPoints@@$1?_GUID_b196b285_bab4_101a_b69c_00aa00341d07@@3U__s_GUID@@BPEAUIConnectionPoint@@V?$_CopyInterface@UIConnectionPoint@@@ATL@@@ATL@@UEAA@XZ 0000000180004b80 f i FiscalPrinter.obj
 0001:00003bdc       ??1?$CComEnumImpl@UIEnumConnections@@$1?_GUID_b196b287_bab4_101a_b69c_00aa00341d07@@3U__s_GUID@@BUtagCONNECTDATA@@V?$_Copy@UtagCONNECTDATA@@@ATL@@@ATL@@UEAA@XZ 0000000180004bdc f i FiscalPrinter.obj
 0001:00003c38       ??1?$CComObject@VCOPOSFiscalPrinter@@@ATL@@UEAA@XZ 0000000180004c38 f i FiscalPrinter.obj
 0001:00003d58       ??_G?$CComContainedObject@VCOPOSFiscalPrinter@@@ATL@@UEAAPEAXI@Z 0000000180004d58 f i FiscalPrinter.obj
 0001:00003d58       ??_E?$CComContainedObject@VCOPOSFiscalPrinter@@@ATL@@UEAAPEAXI@Z 0000000180004d58 f i FiscalPrinter.obj
 0001:00003d8c       ??_G?$CComObject@VCOPOSFiscalPrinter@@@ATL@@UEAAPEAXI@Z 0000000180004d8c f i FiscalPrinter.obj
 0001:00003d8c       ??_E?$CComObject@VCOPOSFiscalPrinter@@@ATL@@UEAAPEAXI@Z 0000000180004d8c f i FiscalPrinter.obj
 0001:00003dc0       ?Add@?$CSimpleArray@GV?$CSimpleArrayEqualHelper@G@ATL@@@ATL@@QEAAHAEBG@Z 0000000180004dc0 f i FiscalPrinter.obj
 0001:00003e74       ?Add@?$CSimpleMap@PEA_WPEA_WVCExpansionVectorEqualHelper@ATL@@@ATL@@QEAAHAEBQEA_W0@Z 0000000180004e74 f i FiscalPrinter.obj
 0001:00003f14       ?Add@CComDynamicUnkArray@ATL@@QEAAKPEAUIUnknown@@@Z 0000000180004f14 f i FiscalPrinter.obj
 0001:00004000       ?Add@CExpansionVector@ATL@@QEAAHPEB_W0@Z 0000000180005000 f i FiscalPrinter.obj
 0001:00004134       ?AddTermFunc@CAtlModule@ATL@@QEAAJP6AX_K@Z0@Z 0000000180005134 f i FiscalPrinter.obj
 0001:000041d0       ?AddValue@CRegParser@ATL@@IEAAJAEAVCRegKey@2@PEB_WPEA_W@Z 00000001800051d0 f i FiscalPrinter.obj
 0001:00004618       ?AllocateHeap@?$CTempBuffer@_W$0EAA@VCCRTAllocator@ATL@@@ATL@@AEAAX_K@Z 0000000180005618 f i FiscalPrinter.obj
 0001:00004618       ?AllocateHeap@?$CTempBuffer@E$0BAA@VCCRTAllocator@ATL@@@ATL@@AEAAX_K@Z 0000000180005618 f i FiscalPrinter.obj
 0001:00004618       ?AllocateHeap@?$CTempBuffer@_W$0BAA@VCCRTAllocator@ATL@@@ATL@@AEAAX_K@Z 0000000180005618 f i FiscalPrinter.obj
 0001:00004644       ?Append@CParseBuffer@CRegParser@ATL@@QEAAHPEB_WH@Z 0000000180005644 f i FiscalPrinter.obj
 0001:0000478c       ?AtlComModuleGetClassObject@ATL@@YAJPEAU_ATL_COM_MODULE70@1@AEBU_GUID@@1PEAPEAX@Z 000000018000578c f i FiscalPrinter.obj
 0001:000048cc       ?AtlComModuleRegisterServer@ATL@@YAJPEAU_ATL_COM_MODULE70@1@HPEBU_GUID@@@Z 00000001800058cc f i FiscalPrinter.obj
 0001:0000498c       ?AtlComModuleUnregisterServer@ATL@@YAJPEAU_ATL_COM_MODULE70@1@HPEBU_GUID@@@Z 000000018000598c f i FiscalPrinter.obj
 0001:00004a48       ?AtlHiMetricToPixel@ATL@@YAXPEBUtagSIZE@@PEAU2@@Z 0000000180005a48 f i FiscalPrinter.obj
 0001:00004af8       ?AtlHresultFromLastError@ATL@@YAJXZ 0000000180005af8 f i FiscalPrinter.obj
 0001:00004b18       ?AtlHresultFromWin32@ATL@@YAJK@Z 0000000180005b18 f i FiscalPrinter.obj
 0001:00004b28       ?AtlInternalOleLoadFromStream@ATL@@YAJPEAUIStream@@AEBU_GUID@@PEAPEAXTClassesAllowedInStream@1@K@Z 0000000180005b28 f i FiscalPrinter.obj
 0001:00004c6c       ?AtlInternalQueryInterface@ATL@@YAJPEAXPEBU_ATL_INTMAP_ENTRY@1@AEBU_GUID@@PEAPEAX@Z 0000000180005c6c f i FiscalPrinter.obj
 0001:00004d74       ?AtlLoadTypeLib@ATL@@YAJPEAUHINSTANCE__@@PEB_WPEAPEA_WPEAPEAUITypeLib@@@Z 0000000180005d74 f i FiscalPrinter.obj
 0001:00004fd0       ?AtlRegisterClassCategoriesHelper@ATL@@YAJAEBU_GUID@@PEBU_ATL_CATMAP_ENTRY@1@H@Z 0000000180005fd0 f i FiscalPrinter.obj
 0001:00005454       ?AtlRegisterTypeLib@ATL@@YAJPEAUHINSTANCE__@@PEB_W@Z 0000000180006454 f i FiscalPrinter.obj
 0001:00005650       ?AtlThrowImpl@ATL@@YAXJ@Z  0000000180006650 f i FiscalPrinter.obj
 0001:00005674       ?AtlUnRegisterTypeLib@ATL@@YAJPEAUHINSTANCE__@@PEB_W@Z 0000000180006674 f i FiscalPrinter.obj
 0001:0000573c       ?AtlWinModuleExtractCreateWndData@ATL@@YAPEAXPEAU_ATL_WIN_MODULE70@1@@Z 000000018000673c f i FiscalPrinter.obj
 0001:000057c8       ?Cleanup@CComTypeInfoHolder@ATL@@SAX_K@Z 00000001800067c8 f i FiscalPrinter.obj
 0001:00005808       ?ClearReplacements@CExpansionVector@ATL@@QEAAJXZ 0000000180006808 f i FiscalPrinter.obj
 0001:000058a4       ?CreateInstance@?$CComCreator@V?$CComAggObject@VCOPOSFiscalPrinter@@@ATL@@@ATL@@SAJPEAXAEBU_GUID@@PEAPEAX@Z 00000001800068a4 f i FiscalPrinter.obj
 0001:00005988       ?CreateInstance@?$CComCreator@V?$CComObject@VCOPOSFiscalPrinter@@@ATL@@@ATL@@SAJPEAXAEBU_GUID@@PEAPEAX@Z 0000000180006988 f i FiscalPrinter.obj
 0001:00005a3c       ?CreateInstance@?$CComObject@V?$CComEnum@UIEnumConnectionPoints@@$1?_GUID_b196b285_bab4_101a_b69c_00aa00341d07@@3U__s_GUID@@BPEAUIConnectionPoint@@V?$_CopyInterface@UIConnectionPoint@@@ATL@@VCComSingleThreadModel@6@@ATL@@@ATL@@SAJPEAPEAV12@@Z 0000000180006a3c f i FiscalPrinter.obj
 0001:00005acc       ?CreateInstance@?$CComObject@V?$CComEnum@UIEnumConnections@@$1?_GUID_b196b287_bab4_101a_b69c_00aa00341d07@@3U__s_GUID@@BUtagCONNECTDATA@@V?$_Copy@UtagCONNECTDATA@@@ATL@@VCComSingleThreadModel@6@@ATL@@@ATL@@SAJPEAPEAV12@@Z 0000000180006acc f i FiscalPrinter.obj
 0001:00005b5c       ?DefaultReflectionHandler@?$CWindowImplRoot@VCWindow@ATL@@@ATL@@SAHPEAUHWND__@@I_K_JAEA_J@Z 0000000180006b5c f i FiscalPrinter.obj
 0001:00005bc0       ?DeleteSubKey@CRegKey@ATL@@QEAAJPEB_W@Z 0000000180006bc0 f i FiscalPrinter.obj
 0001:00005c58       ?DoEvent@COPOSFiscalPrinter@@IEAAXI_K_J@Z 0000000180006c58 f i FiscalPrinter.obj
 0001:00005d0c       ?DoVerbPrimary@?$IOleObjectImpl@VCOPOSFiscalPrinter@@@ATL@@QEAAJPEBUtagRECT@@PEAUHWND__@@@Z 0000000180006d0c f i FiscalPrinter.obj
 0001:00005e38       ?DoVerbProperties@CComControlBase@ATL@@QEAAJPEBUtagRECT@@PEAUHWND__@@@Z 0000000180006e38 f i FiscalPrinter.obj
 0001:00006060       ?FireTheEvent@?$CProxy_IOPOSEvents@VCOPOSFiscalPrinter@@@@IEAAXPEAVOposVariant@@IAEAJPEB_WJ@Z 0000000180007060 f i FiscalPrinter.obj
 0001:0000614c       ?FireViewChange@CComControlBase@ATL@@QEAAJXZ 000000018000714c f i FiscalPrinter.obj
 0001:000061b0       ?Fire_DirectIOEvent@?$CProxy_IOPOSEvents@VCOPOSFiscalPrinter@@@@QEAAXJPEAJPEAPEA_W@Z 00000001800071b0 f i FiscalPrinter.obj
 0001:00006310       ?Fire_ErrorEvent@?$CProxy_IOPOSEvents@VCOPOSFiscalPrinter@@@@QEAAXJJJPEAJ@Z 0000000180007310 f i FiscalPrinter.obj
 0001:00006484       ?Fire_OutputCompleteEvent@?$CProxy_IOPOSEvents@VCOPOSFiscalPrinter@@@@QEAAXJ@Z 0000000180007484 f i FiscalPrinter.obj
 0001:00006570       ?Fire_StatusUpdateEvent@?$CProxy_IOPOSEvents@VCOPOSFiscalPrinter@@@@QEAAXJ@Z 0000000180007570 f i FiscalPrinter.obj
 0001:0000665c       ?FreeHeap@?$CTempBuffer@E$0BAA@VCCRTAllocator@ATL@@@ATL@@AEAAXXZ 000000018000765c f i FiscalPrinter.obj
 0001:0000665c       ?FreeHeap@?$CTempBuffer@_W$0EAA@VCCRTAllocator@ATL@@@ATL@@AEAAXXZ 000000018000765c f i FiscalPrinter.obj
 0001:0000665c       ?FreeHeap@?$CTempBuffer@_W$0BAA@VCCRTAllocator@ATL@@@ATL@@AEAAXXZ 000000018000765c f i FiscalPrinter.obj
 0001:00006664       ?GetAmbientLocaleID@CComControlBase@ATL@@QEAAJAEAK@Z 0000000180007664 f i FiscalPrinter.obj
 0001:00006724       ?GetAmbientUserMode@CComControlBase@ATL@@QEAAJAEAH@Z 0000000180007724 f i FiscalPrinter.obj
 0001:000067f4       ?GetClassObject@CComModule@ATL@@QEAAJAEBU_GUID@@0PEAPEAX@Z 00000001800077f4 f i FiscalPrinter.obj
 0001:000068e8       ?GetConnMap@COPOSFiscalPrinter@@SAPEBU_ATL_CONNMAP_ENTRY@ATL@@PEAH@Z 00000001800078e8 f i FiscalPrinter.obj
 0001:00006970       ?GetIDsOfNames@CComTypeInfoHolder@ATL@@QEAAJAEBU_GUID@@PEAPEA_WIKPEAJ@Z 0000000180007970 f i FiscalPrinter.obj
 0001:00006ae8       ?GetPagesHelper@?$ISpecifyPropertyPagesImpl@VCOPOSFiscalPrinter@@@ATL@@IEAAJPEAUtagCAUUID@@PEBUATL_PROPMAP_ENTRY@2@@Z 0000000180007ae8 f i FiscalPrinter.obj
 0001:00006c88       ?GetSizeMax@CComVariant@ATL@@QEBAJPEAT_ULARGE_INTEGER@@@Z 0000000180007c88 f i FiscalPrinter.obj
 0001:00006eb8       ?GetTI@CComTypeInfoHolder@ATL@@QEAAJK@Z 0000000180007eb8 f i FiscalPrinter.obj
 0001:000071a0       ?GetZoomInfo@CComControlBase@ATL@@QEAAXAEAUATL_DRAWINFO@@@Z 00000001800081a0 f i FiscalPrinter.obj
 0001:00007244       ?HKeyFromString@CRegParser@ATL@@KAPEAUHKEY__@@PEA_W@Z 0000000180008244 f i FiscalPrinter.obj
 0001:000072a8       ?IDataObject_GetData@CComControlBase@ATL@@QEAAJPEAUtagFORMATETC@@PEAUtagSTGMEDIUM@@@Z 00000001800082a8 f i FiscalPrinter.obj
 0001:0000749c       ?IOleInPlaceObject_InPlaceDeactivate@CComControlBase@ATL@@QEAAJXZ 000000018000849c f i FiscalPrinter.obj
 0001:0000753c       ?IOleInPlaceObject_SetObjectRects@CComControlBase@ATL@@QEAAJPEBUtagRECT@@0@Z 000000018000853c f i FiscalPrinter.obj
 0001:0000762c       ?IOleInPlaceObject_UIDeactivate@CComControlBase@ATL@@QEAAJXZ 000000018000862c f i FiscalPrinter.obj
 0001:00007738       ?IOleObject_Close@CComControlBase@ATL@@QEAAJK@Z 0000000180008738 f i FiscalPrinter.obj
 0001:00007850       ?IOleObject_SetClientSite@CComControlBase@ATL@@QEAAJPEAUIOleClientSite@@@Z 0000000180008850 f i FiscalPrinter.obj
 0001:000078c8       ?IOleObject_SetExtent@CComControlBase@ATL@@QEAAJKPEAUtagSIZE@@@Z 00000001800088c8 f i FiscalPrinter.obj
 0001:00007960       ?IPSI_GetIPersistStreamInit@?$IPersistStorageImpl@VCOPOSFiscalPrinter@@@ATL@@AEAAPEAUIPersistStreamInit@@XZ 0000000180008960 f i FiscalPrinter.obj
 0001:00007a48       ?IPersistStreamInit_Load@?$IPersistStreamInitImpl@VCOPOSFiscalPrinter@@@ATL@@QEAAJPEAUIStream@@PEBUATL_PROPMAP_ENTRY@2@@Z 0000000180008a48 f i FiscalPrinter.obj
 0001:00007d74       ?IPersistStreamInit_Save@?$IPersistStreamInitImpl@VCOPOSFiscalPrinter@@@ATL@@QEAAJPEAUIStream@@HPEBUATL_PROPMAP_ENTRY@2@@Z 0000000180008d74 f i FiscalPrinter.obj
 0001:00008014       ?IQuickActivate_QuickActivate@CComControlBase@ATL@@QEAAJPEAUtagQACONTAINER@@PEAUtagQACONTROL@@@Z 0000000180009014 f i FiscalPrinter.obj
 0001:000082d8       ?IViewObject_Draw@CComControlBase@ATL@@QEAAJKJPEAXPEAUtagDVTARGETDEVICE@@PEAUHDC__@@2PEBU_RECTL@@3@Z 00000001800092d8 f i FiscalPrinter.obj
 0001:000083ec       ?InPlaceActivate@CComControlBase@ATL@@QEAAJJPEBUtagRECT@@@Z 00000001800093ec f i FiscalPrinter.obj
 0001:00008720       ?Init@?$CComEnumImpl@UIEnumConnectionPoints@@$1?_GUID_b196b285_bab4_101a_b69c_00aa00341d07@@3U__s_GUID@@BPEAUIConnectionPoint@@V?$_CopyInterface@UIConnectionPoint@@@ATL@@@ATL@@QEAAJPEAPEAUIConnectionPoint@@0PEAUIUnknown@@W4CComEnumFlags@2@@Z 0000000180009720 f i FiscalPrinter.obj
 0001:00008840       ?Init@?$CComEnumImpl@UIEnumConnections@@$1?_GUID_b196b287_bab4_101a_b69c_00aa00341d07@@3U__s_GUID@@BUtagCONNECTDATA@@V?$_Copy@UtagCONNECTDATA@@@ATL@@@ATL@@QEAAJPEAUtagCONNECTDATA@@0PEAUIUnknown@@W4CComEnumFlags@2@@Z 0000000180009840 f i FiscalPrinter.obj
 0001:00008964       ?IsEqualObject@?$CComPtrBase@UIOleClientSite@@@ATL@@QEAA_NPEAUIUnknown@@@Z 0000000180009964 f i FiscalPrinter.obj
 0001:000089f0       ?LoadNameCache@CComTypeInfoHolder@ATL@@QEAAJPEAUITypeInfo@@@Z 00000001800099f0 f i FiscalPrinter.obj
 0001:00008b70       ?Lookup@?$CSimpleMap@PEA_WPEA_WVCExpansionVectorEqualHelper@ATL@@@ATL@@QEBAPEA_WAEBQEA_W@Z 0000000180009b70 f i FiscalPrinter.obj
 0001:00008bf8       ?NextToken@CRegParser@ATL@@IEAAJPEA_W@Z 0000000180009bf8 f i FiscalPrinter.obj
 0001:00008db0       ?OnKillFocus@CComControlBase@ATL@@QEAA_JI_K_JAEAH@Z 0000000180009db0 f i FiscalPrinter.obj
 0001:00008e4c       ?OnMouseActivate@CComControlBase@ATL@@QEAA_JI_K_JAEAH@Z 0000000180009e4c f i FiscalPrinter.obj
 0001:00008eec       ?OnPaint@CComControlBase@ATL@@QEAA_JI_K_JAEAH@Z 0000000180009eec f i FiscalPrinter.obj
 0001:00008fd8       ?OnSetFocus@CComControlBase@ATL@@QEAA_JI_K_JAEAH@Z 0000000180009fd8 f i FiscalPrinter.obj
 0001:000090d4       ?PreProcessBuffer@CRegParser@ATL@@QEAAJPEA_WPEAPEA_W@Z 000000018000a0d4 f i FiscalPrinter.obj
 0001:00009460       ?ProcessWindowMessage@?$CComControl@VCOPOSFiscalPrinter@@V?$CWindowImpl@VCOPOSFiscalPrinter@@VCWindow@ATL@@V?$CWinTraits@$0FGAAAAAA@$0A@@3@@ATL@@@ATL@@UEAAHPEAUHWND__@@I_K_JAEA_JK@Z 000000018000a460 f i FiscalPrinter.obj
 0001:00009544       ?ReadFromStream@CComBSTR@ATL@@QEAAJPEAUIStream@@@Z 000000018000a544 f i FiscalPrinter.obj
 0001:00009694       ?ReadFromStream@CComVariant@ATL@@QEAAJPEAUIStream@@GTClassesAllowedInStream@2@K@Z 000000018000a694 f i FiscalPrinter.obj
 0001:000098b8       ?RecurseDeleteKey@CRegKey@ATL@@QEAAJPEB_W@Z 000000018000a8b8 f i FiscalPrinter.obj
 0001:00009a10       ?RegCreateKeyExW@CAtlTransactionManager@ATL@@QEAAJPEAUHKEY__@@PEB_WKPEA_WKKQEAU_SECURITY_ATTRIBUTES@@PEAPEAU3@PEAK@Z 000000018000aa10 f i FiscalPrinter.obj
 0001:00009b44       ?RegDeleteKeyW@CAtlTransactionManager@ATL@@QEAAJPEAUHKEY__@@PEB_W@Z 000000018000ab44 f i FiscalPrinter.obj
 0001:00009bd0       ?RegOpenKeyExW@CAtlTransactionManager@ATL@@QEAAJPEAUHKEY__@@PEB_WKKPEAPEAU3@@Z 000000018000abd0 f i FiscalPrinter.obj
 0001:00009c88       ?RegisterBuffer@CRegParser@ATL@@QEAAJPEA_WH@Z 000000018000ac88 f i FiscalPrinter.obj
 0001:00009df0       ?RegisterFromResource@CRegObject@ATL@@IEAAJPEB_W00H@Z 000000018000adf0 f i FiscalPrinter.obj
 0001:00009fac       ?RegisterServer@CComModule@ATL@@QEAAJHPEBU_GUID@@@Z 000000018000afac f i FiscalPrinter.obj
 0001:0000a06c       ?RegisterSubkeys@CRegParser@ATL@@IEAAJPEA_WPEAUHKEY__@@HH@Z 000000018000b06c f i FiscalPrinter.obj
 0001:0000a8d8       ?SendOnDataChange@CComControlBase@ATL@@QEAAJK@Z 000000018000b8d8 f i FiscalPrinter.obj
 0001:0000a948       ?SetControlFocus@CComControlBase@ATL@@QEAAHH@Z 000000018000b948 f i FiscalPrinter.obj
 0001:0000aa24       ?SkipAssignment@CRegParser@ATL@@IEAAJPEA_W@Z 000000018000ba24 f i FiscalPrinter.obj
 0001:0000aac8       ?Term@CAtlModule@ATL@@QEAAXXZ 000000018000bac8 f i FiscalPrinter.obj
 0001:0000ab48       ?Term@CComModule@ATL@@QEAAXXZ 000000018000bb48 f i FiscalPrinter.obj
 0001:0000abc4       ?UnregisterServer@CComModule@ATL@@QEAAJHPEBU_GUID@@@Z 000000018000bbc4 f i FiscalPrinter.obj
 0001:0000ac74       ?UpdateRegistryFromResource@CAtlModule@ATL@@QEAAJIHPEAU_ATL_REGMAP_ENTRY@2@@Z 000000018000bc74 f i FiscalPrinter.obj
 0001:0000af80       ?UpdateRegistryFromResource@CAtlModule@ATL@@QEAAJPEB_WHPEAU_ATL_REGMAP_ENTRY@2@@Z 000000018000bf80 f i FiscalPrinter.obj
 0001:0000b2a4       ?VTFromRegType@CRegParser@ATL@@KAHPEB_WAEAG@Z 000000018000c2a4 f i FiscalPrinter.obj
 0001:0000b340       ?WindowProc@?$CWindowImplBaseT@VCWindow@ATL@@V?$CWinTraits@$0FGAAAAAA@$0A@@2@@ATL@@SA_JPEAUHWND__@@I_K_J@Z 000000018000c340 f i FiscalPrinter.obj
 0001:0000b4ac       ?WriteToStream@CComVariant@ATL@@QEAAJPEAUIStream@@@Z 000000018000c4ac f i FiscalPrinter.obj
 0001:0000b728       ?WriteToStream@CComVariant@ATL@@QEAAJPEAUIStream@@G@Z 000000018000c728 f i FiscalPrinter.obj
 0001:0000b7c0       ?_AtlVerifyStackAvailable@_ATL_SAFE_ALLOCA_IMPL@ATL@@YA_N_K@Z 000000018000c7c0 f i FiscalPrinter.obj
 0001:0000b844       ?atlCreate@?$CWindowImpl@VCOPOSFiscalPrinter@@VCWindow@ATL@@V?$CWinTraits@$0FGAAAAAA@$0A@@3@@ATL@@QEAAPEAUHWND__@@PEAU3@V_U_RECT@2@PEB_WKKV_U_MENUorID@2@PEAX@Z 000000018000c844 f i FiscalPrinter.obj
 0001:0000b8f8       ?atlCreate@?$CWindowImplBaseT@VCWindow@ATL@@V?$CWinTraits@$0FGAAAAAA@$0A@@2@@ATL@@QEAAPEAUHWND__@@PEAU3@V_U_RECT@2@PEB_WKKV_U_MENUorID@2@GPEAX@Z 000000018000c8f8 f i FiscalPrinter.obj
 0001:0000ba68       ?ocscpy_s@@YA_NPEA_W_KPEB_W@Z 000000018000ca68 f i FiscalPrinter.obj
 0001:0000bb18       DllCanUnloadNow            000000018000cb18 f   FiscalPrinter.obj
 0001:0000bb24       DllGetClassObject          000000018000cb24 f   FiscalPrinter.obj
 0001:0000bb3c       DllMain                    000000018000cb3c f   FiscalPrinter.obj
 0001:0000bbe4       DllRegisterServer          000000018000cbe4 f   FiscalPrinter.obj
 0001:0000bbf8       DllUnregisterServer        000000018000cbf8 f   FiscalPrinter.obj
 0001:0000bc0c       __local_stdio_printf_options 000000018000cc0c f i FiscalPrinter.obj
 0001:0000bc14       swprintf_s                 000000018000cc14 f i FiscalPrinter.obj
 0001:0000bc68       ??0COPOSFiscalPrinter@@QEAA@XZ 000000018000cc68 f   FiscalPrinterImpl.obj
 0001:0000bd30       ??1?$IConnectionPointImpl@VCOPOSFiscalPrinter@@$1?IID_IPropertyNotifySink@@3U_GUID@@BVCComDynamicUnkArray@ATL@@@ATL@@QEAA@XZ 000000018000cd30 f i FiscalPrinterImpl.obj
 0001:0000bd30       ??1?$IConnectionPointImpl@VCOPOSFiscalPrinter@@$1?DIID__IOPOSFiscalPrinterEvents@@3U_GUID@@BVCComDynamicUnkArray@ATL@@@ATL@@QEAA@XZ 000000018000cd30 f i FiscalPrinterImpl.obj
 0001:0000bd8c       ??1CComControlBase@ATL@@UEAA@XZ 000000018000cd8c f i FiscalPrinterImpl.obj
 0001:0000be08       ??1COPOSFiscalPrinter@@UEAA@XZ 000000018000ce08 f   FiscalPrinterImpl.obj
 0001:0000be6c       ?BeginFiscalDocument@COPOSFiscalPrinter@@UEAAJJPEAJ@Z 000000018000ce6c f   FiscalPrinterImpl.obj
 0001:0000bee8       ?BeginFiscalReceipt@COPOSFiscalPrinter@@UEAAJFPEAJ@Z 000000018000cee8 f   FiscalPrinterImpl.obj
 0001:0000bf64       ?BeginFixedOutput@COPOSFiscalPrinter@@UEAAJJJPEAJ@Z 000000018000cf64 f   FiscalPrinterImpl.obj
 0001:0000c030       ?BeginInsertion@COPOSFiscalPrinter@@UEAAJJPEAJ@Z 000000018000d030 f   FiscalPrinterImpl.obj
 0001:0000c0ac       ?BeginItemList@COPOSFiscalPrinter@@UEAAJJPEAJ@Z 000000018000d0ac f   FiscalPrinterImpl.obj
 0001:0000c128       ?BeginNonFiscal@COPOSFiscalPrinter@@UEAAJPEAJ@Z 000000018000d128 f   FiscalPrinterImpl.obj
 0001:0000c150       ?BeginRemoval@COPOSFiscalPrinter@@UEAAJJPEAJ@Z 000000018000d150 f   FiscalPrinterImpl.obj
 0001:0000c1cc       ?BeginTraining@COPOSFiscalPrinter@@UEAAJPEAJ@Z 000000018000d1cc f   FiscalPrinterImpl.obj
 0001:0000c1f4       ?CheckHealth@COPOSFiscalPrinter@@UEAAJJPEAJ@Z 000000018000d1f4 f   FiscalPrinterImpl.obj
 0001:0000c270       ?ClaimDevice@COPOSFiscalPrinter@@UEAAJJPEAJ@Z 000000018000d270 f   FiscalPrinterImpl.obj
 0001:0000c310       ?ClearError@COPOSFiscalPrinter@@UEAAJPEAJ@Z 000000018000d310 f   FiscalPrinterImpl.obj
 0001:0000c338       ?ClearOutput@COPOSFiscalPrinter@@UEAAJPEAJ@Z 000000018000d338 f   FiscalPrinterImpl.obj
 0001:0000c360       ?Close@COPOSFiscalPrinter@@UEAAJPEAJ@Z 000000018000d360 f   FiscalPrinterImpl.obj
 0001:0000c418       ?CompareFirmwareVersion@COPOSFiscalPrinter@@UEAAJPEA_WPEAJ1@Z 000000018000d418 f   FiscalPrinterImpl.obj
 0001:0000c4f4       ?DirectIO@COPOSFiscalPrinter@@UEAAJJPEAJPEAPEA_W0@Z 000000018000d4f4 f   FiscalPrinterImpl.obj
 0001:0000c5f0       ?DoInvoke@COPOSFiscalPrinter@@IEAAJJPEAVOposVariant@@IHPEAJ_N@Z 000000018000d5f0 f   FiscalPrinterImpl.obj
 0001:0000c724       ?EndFiscalDocument@COPOSFiscalPrinter@@UEAAJPEAJ@Z 000000018000d724 f   FiscalPrinterImpl.obj
 0001:0000c74c       ?EndFiscalReceipt@COPOSFiscalPrinter@@UEAAJFPEAJ@Z 000000018000d74c f   FiscalPrinterImpl.obj
 0001:0000c7c8       ?EndFixedOutput@COPOSFiscalPrinter@@UEAAJPEAJ@Z 000000018000d7c8 f   FiscalPrinterImpl.obj
 0001:0000c7f0       ?EndInsertion@COPOSFiscalPrinter@@UEAAJPEAJ@Z 000000018000d7f0 f   FiscalPrinterImpl.obj
 0001:0000c818       ?EndItemList@COPOSFiscalPrinter@@UEAAJPEAJ@Z 000000018000d818 f   FiscalPrinterImpl.obj
 0001:0000c840       ?EndNonFiscal@COPOSFiscalPrinter@@UEAAJPEAJ@Z 000000018000d840 f   FiscalPrinterImpl.obj
 0001:0000c868       ?EndRemoval@COPOSFiscalPrinter@@UEAAJPEAJ@Z 000000018000d868 f   FiscalPrinterImpl.obj
 0001:0000c890       ?EndTraining@COPOSFiscalPrinter@@UEAAJPEAJ@Z 000000018000d890 f   FiscalPrinterImpl.obj
 0001:0000c8b8       ?EventInit@COPOSFiscalPrinter@@IEAAJXZ 000000018000d8b8 f i FiscalPrinterImpl.obj
 0001:0000ca00       ?EventUninit@COPOSFiscalPrinter@@IEAAXXZ 000000018000da00 f i FiscalPrinterImpl.obj
 0001:0000ca64       ?EventWindowProc@COPOSFiscalPrinter@@IEAA_JI_K_J@Z 000000018000da64 f i FiscalPrinterImpl.obj
 0001:0000cbe0       ?FinalConstruct@COPOSFiscalPrinter@@QEAAJXZ 000000018000dbe0 f   FiscalPrinterImpl.obj
 0001:0000cc1c       ?FreezeEvents@COPOSFiscalPrinter@@MEAAJH@Z 000000018000dc1c f   FiscalPrinterImpl.obj
 0001:0000cc90       ?GetData@COPOSFiscalPrinter@@UEAAJJPEAJPEAPEA_W0@Z 000000018000dc90 f   FiscalPrinterImpl.obj
 0001:0000cd8c       ?GetDate@COPOSFiscalPrinter@@UEAAJPEAPEA_WPEAJ@Z 000000018000dd8c f   FiscalPrinterImpl.obj
 0001:0000ce14       ?GetOposProp@COPOSFiscalPrinter@@IEAAJJPEAJJ@Z 000000018000de14 f   FiscalPrinterImpl.obj
 0001:0000cf30       ?GetOposProp@COPOSFiscalPrinter@@IEAAJJPEAPEA_WJ@Z 000000018000df30 f   FiscalPrinterImpl.obj
 0001:0000d05c       ?GetTotalizer@COPOSFiscalPrinter@@UEAAJJJPEAPEA_WPEAJ@Z 000000018000e05c f   FiscalPrinterImpl.obj
 0001:0000d154       ?GetVatEntry@COPOSFiscalPrinter@@UEAAJJJPEAJ0@Z 000000018000e154 f   FiscalPrinterImpl.obj
 0001:0000d24c       ?OnDraw@COPOSFiscalPrinter@@MEAAJAEAUATL_DRAWINFO@@@Z 000000018000e24c f   FiscalPrinterImpl.obj
 0001:0000d338       ?Open@COPOSFiscalPrinter@@UEAAJPEA_WPEAJ@Z 000000018000e338 f   FiscalPrinterImpl.obj
 0001:0000dbb4       ?PrintDuplicateReceipt@COPOSFiscalPrinter@@UEAAJPEAJ@Z 000000018000ebb4 f   FiscalPrinterImpl.obj
 0001:0000dbdc       ?PrintFiscalDocumentLine@COPOSFiscalPrinter@@UEAAJPEA_WPEAJ@Z 000000018000ebdc f   FiscalPrinterImpl.obj
 0001:0000dc64       ?PrintFixedOutput@COPOSFiscalPrinter@@UEAAJJJPEA_WPEAJ@Z 000000018000ec64 f   FiscalPrinterImpl.obj
 0001:0000dd5c       ?PrintNormal@COPOSFiscalPrinter@@UEAAJJPEA_WPEAJ@Z 000000018000ed5c f   FiscalPrinterImpl.obj
 0001:0000de34       ?PrintPeriodicTotalsReport@COPOSFiscalPrinter@@UEAAJPEA_W0PEAJ@Z 000000018000ee34 f   FiscalPrinterImpl.obj
 0001:0000df10       ?PrintPowerLossReport@COPOSFiscalPrinter@@UEAAJPEAJ@Z 000000018000ef10 f   FiscalPrinterImpl.obj
 0001:0000df38       ?PrintRecCash@COPOSFiscalPrinter@@UEAAJTtagCY@@PEAJ@Z 000000018000ef38 f   FiscalPrinterImpl.obj
 0001:0000dfb4       ?PrintRecItem@COPOSFiscalPrinter@@UEAAJPEA_WTtagCY@@JJ10PEAJ@Z 000000018000efb4 f   FiscalPrinterImpl.obj
 0001:0000e0e0       ?PrintRecItemAdjustment@COPOSFiscalPrinter@@UEAAJJPEA_WTtagCY@@JPEAJ@Z 000000018000f0e0 f   FiscalPrinterImpl.obj
 0001:0000e1ec       ?PrintRecItemAdjustmentVoid@COPOSFiscalPrinter@@UEAAJJPEA_WTtagCY@@JPEAJ@Z 000000018000f1ec f   FiscalPrinterImpl.obj
 0001:0000e2f8       ?PrintRecItemFuel@COPOSFiscalPrinter@@UEAAJPEA_WTtagCY@@JJ1010PEAJ@Z 000000018000f2f8 f   FiscalPrinterImpl.obj
 0001:0000e44c       ?PrintRecItemFuelVoid@COPOSFiscalPrinter@@UEAAJPEA_WTtagCY@@J1PEAJ@Z 000000018000f44c f   FiscalPrinterImpl.obj
 0001:0000e558       ?PrintRecItemRefund@COPOSFiscalPrinter@@UEAAJPEA_WTtagCY@@JJ10PEAJ@Z 000000018000f558 f   FiscalPrinterImpl.obj
 0001:0000e684       ?PrintRecItemRefundVoid@COPOSFiscalPrinter@@UEAAJPEA_WTtagCY@@JJ10PEAJ@Z 000000018000f684 f   FiscalPrinterImpl.obj
 0001:0000e7b0       ?PrintRecItemVoid@COPOSFiscalPrinter@@UEAAJPEA_WTtagCY@@JJ10PEAJ@Z 000000018000f7b0 f   FiscalPrinterImpl.obj
 0001:0000e8dc       ?PrintRecMessage@COPOSFiscalPrinter@@UEAAJPEA_WPEAJ@Z 000000018000f8dc f   FiscalPrinterImpl.obj
 0001:0000e964       ?PrintRecNotPaid@COPOSFiscalPrinter@@UEAAJPEA_WTtagCY@@PEAJ@Z 000000018000f964 f   FiscalPrinterImpl.obj
 0001:0000ea3c       ?PrintRecPackageAdjustVoid@COPOSFiscalPrinter@@UEAAJJPEA_WPEAJ@Z 000000018000fa3c f   FiscalPrinterImpl.obj
 0001:0000eb14       ?PrintRecPackageAdjustment@COPOSFiscalPrinter@@UEAAJJPEA_W0PEAJ@Z 000000018000fb14 f   FiscalPrinterImpl.obj
 0001:0000ec10       ?PrintRecRefund@COPOSFiscalPrinter@@UEAAJPEA_WTtagCY@@JPEAJ@Z 000000018000fc10 f   FiscalPrinterImpl.obj
 0001:0000ed08       ?PrintRecRefundVoid@COPOSFiscalPrinter@@UEAAJPEA_WTtagCY@@JPEAJ@Z 000000018000fd08 f   FiscalPrinterImpl.obj
 0001:0000ee00       ?PrintRecSubtotal@COPOSFiscalPrinter@@UEAAJTtagCY@@PEAJ@Z 000000018000fe00 f   FiscalPrinterImpl.obj
 0001:0000ee7c       ?PrintRecSubtotalAdjustVoid@COPOSFiscalPrinter@@UEAAJJTtagCY@@PEAJ@Z 000000018000fe7c f   FiscalPrinterImpl.obj
 0001:0000ef48       ?PrintRecSubtotalAdjustment@COPOSFiscalPrinter@@UEAAJJPEA_WTtagCY@@PEAJ@Z 000000018000ff48 f   FiscalPrinterImpl.obj
 0001:0000f040       ?PrintRecTaxID@COPOSFiscalPrinter@@UEAAJPEA_WPEAJ@Z 0000000180010040 f   FiscalPrinterImpl.obj
 0001:0000f0c8       ?PrintRecTotal@COPOSFiscalPrinter@@UEAAJTtagCY@@0PEA_WPEAJ@Z 00000001800100c8 f   FiscalPrinterImpl.obj
 0001:0000f1c0       ?PrintRecVoid@COPOSFiscalPrinter@@UEAAJPEA_WPEAJ@Z 00000001800101c0 f   FiscalPrinterImpl.obj
 0001:0000f248       ?PrintRecVoidItem@COPOSFiscalPrinter@@UEAAJPEA_WTtagCY@@JJ1JPEAJ@Z 0000000180010248 f   FiscalPrinterImpl.obj
 0001:0000f364       ?PrintReport@COPOSFiscalPrinter@@UEAAJJPEA_W0PEAJ@Z 0000000180010364 f   FiscalPrinterImpl.obj
 0001:0000f460       ?PrintXReport@COPOSFiscalPrinter@@UEAAJPEAJ@Z 0000000180010460 f   FiscalPrinterImpl.obj
 0001:0000f488       ?PrintZReport@COPOSFiscalPrinter@@UEAAJPEAJ@Z 0000000180010488 f   FiscalPrinterImpl.obj
 0001:0000f4b0       ?ReleaseDevice@COPOSFiscalPrinter@@UEAAJPEAJ@Z 00000001800104b0 f   FiscalPrinterImpl.obj
 0001:0000f51c       ?ResetPrinterW@COPOSFiscalPrinter@@UEAAJPEAJ@Z 000000018001051c f   FiscalPrinterImpl.obj
 0001:0000f544       ?ResetStatistics@COPOSFiscalPrinter@@UEAAJPEA_WPEAJ@Z 0000000180010544 f   FiscalPrinterImpl.obj
 0001:0000f5cc       ?RetrieveStatistics@COPOSFiscalPrinter@@UEAAJPEAPEA_WPEAJ@Z 00000001800105cc f   FiscalPrinterImpl.obj
 0001:0000f654       ?SOProcessID@COPOSFiscalPrinter@@UEAAJPEAJ@Z 0000000180010654 f   FiscalPrinterImpl.obj
 0001:0000f670       ?SetCOFreezeEvents@COPOSFiscalPrinter@@IEAAXF@Z 0000000180010670 f   FiscalPrinterImpl.obj
 0001:0000f754       ?SetCurrency@COPOSFiscalPrinter@@UEAAJJPEAJ@Z 0000000180010754 f   FiscalPrinterImpl.obj
 0001:0000f7d0       ?SetDate@COPOSFiscalPrinter@@UEAAJPEA_WPEAJ@Z 00000001800107d0 f   FiscalPrinterImpl.obj
 0001:0000f858       ?SetHeaderLine@COPOSFiscalPrinter@@UEAAJJPEA_WFPEAJ@Z 0000000180010858 f   FiscalPrinterImpl.obj
 0001:0000f950       ?SetOposProp@COPOSFiscalPrinter@@IEAAJJJJ@Z 0000000180010950 f   FiscalPrinterImpl.obj
 0001:0000fab0       ?SetOposProp@COPOSFiscalPrinter@@IEAAJJPEA_WJ@Z 0000000180010ab0 f   FiscalPrinterImpl.obj
 0001:0000fc08       ?SetPOSID@COPOSFiscalPrinter@@UEAAJPEA_W0PEAJ@Z 0000000180010c08 f   FiscalPrinterImpl.obj
 0001:0000fce4       ?SetStoreFiscalID@COPOSFiscalPrinter@@UEAAJPEA_WPEAJ@Z 0000000180010ce4 f   FiscalPrinterImpl.obj
 0001:0000fd6c       ?SetTrailerLine@COPOSFiscalPrinter@@UEAAJJPEA_WFPEAJ@Z 0000000180010d6c f   FiscalPrinterImpl.obj
 0001:0000fe64       ?SetVatTable@COPOSFiscalPrinter@@UEAAJPEAJ@Z 0000000180010e64 f   FiscalPrinterImpl.obj
 0001:0000fe8c       ?SetVatValue@COPOSFiscalPrinter@@UEAAJJPEA_WPEAJ@Z 0000000180010e8c f   FiscalPrinterImpl.obj
 0001:0000ff64       ?UpdateFirmware@COPOSFiscalPrinter@@UEAAJPEA_WPEAJ@Z 0000000180010f64 f   FiscalPrinterImpl.obj
 0001:0000ffec       ?UpdateStatistics@COPOSFiscalPrinter@@UEAAJPEA_WPEAJ@Z 0000000180010fec f   FiscalPrinterImpl.obj
 0001:00010074       ?VerifyItem@COPOSFiscalPrinter@@UEAAJPEA_WJPEAJ@Z 0000000180011074 f   FiscalPrinterImpl.obj
 0001:0001014c       ?get_ActualCurrency@COPOSFiscalPrinter@@UEAAJPEAJ@Z 000000018001114c f   FiscalPrinterImpl.obj
 0001:00010160       ?get_AdditionalHeader@COPOSFiscalPrinter@@UEAAJPEAPEA_W@Z 0000000180011160 f   FiscalPrinterImpl.obj
 0001:00010174       ?get_AdditionalTrailer@COPOSFiscalPrinter@@UEAAJPEAPEA_W@Z 0000000180011174 f   FiscalPrinterImpl.obj
 0001:00010188       ?get_AmountDecimalPlaces@COPOSFiscalPrinter@@UEAAJPEAJ@Z 0000000180011188 f   FiscalPrinterImpl.obj
 0001:0001019c       ?get_AsyncMode@COPOSFiscalPrinter@@UEAAJPEAF@Z 000000018001119c f   FiscalPrinterImpl.obj
 0001:000101d0       ?get_BinaryConversion@COPOSFiscalPrinter@@UEAAJPEAJ@Z 00000001800111d0 f   FiscalPrinterImpl.obj
 0001:000101e4       ?get_CapAdditionalHeader@COPOSFiscalPrinter@@UEAAJPEAF@Z 00000001800111e4 f   FiscalPrinterImpl.obj
 0001:00010218       ?get_CapAdditionalLines@COPOSFiscalPrinter@@UEAAJPEAF@Z 0000000180011218 f   FiscalPrinterImpl.obj
 0001:0001024c       ?get_CapAdditionalTrailer@COPOSFiscalPrinter@@UEAAJPEAF@Z 000000018001124c f   FiscalPrinterImpl.obj
 0001:00010280       ?get_CapAmountAdjustment@COPOSFiscalPrinter@@UEAAJPEAF@Z 0000000180011280 f   FiscalPrinterImpl.obj
 0001:000102b4       ?get_CapAmountNotPaid@COPOSFiscalPrinter@@UEAAJPEAF@Z 00000001800112b4 f   FiscalPrinterImpl.obj
 0001:000102e8       ?get_CapChangeDue@COPOSFiscalPrinter@@UEAAJPEAF@Z 00000001800112e8 f   FiscalPrinterImpl.obj
 0001:0001031c       ?get_CapCheckTotal@COPOSFiscalPrinter@@UEAAJPEAF@Z 000000018001131c f   FiscalPrinterImpl.obj
 0001:00010350       ?get_CapCompareFirmwareVersion@COPOSFiscalPrinter@@UEAAJPEAF@Z 0000000180011350 f   FiscalPrinterImpl.obj
 0001:00010384       ?get_CapCoverSensor@COPOSFiscalPrinter@@UEAAJPEAF@Z 0000000180011384 f   FiscalPrinterImpl.obj
 0001:000103b8       ?get_CapDoubleWidth@COPOSFiscalPrinter@@UEAAJPEAF@Z 00000001800113b8 f   FiscalPrinterImpl.obj
 0001:000103ec       ?get_CapDuplicateReceipt@COPOSFiscalPrinter@@UEAAJPEAF@Z 00000001800113ec f   FiscalPrinterImpl.obj
 0001:00010420       ?get_CapEmptyReceiptIsVoidable@COPOSFiscalPrinter@@UEAAJPEAF@Z 0000000180011420 f   FiscalPrinterImpl.obj
 0001:00010454       ?get_CapFiscalReceiptStation@COPOSFiscalPrinter@@UEAAJPEAF@Z 0000000180011454 f   FiscalPrinterImpl.obj
 0001:00010488       ?get_CapFiscalReceiptType@COPOSFiscalPrinter@@UEAAJPEAF@Z 0000000180011488 f   FiscalPrinterImpl.obj
 0001:000104bc       ?get_CapFixedOutput@COPOSFiscalPrinter@@UEAAJPEAF@Z 00000001800114bc f   FiscalPrinterImpl.obj
 0001:000104f0       ?get_CapHasVatTable@COPOSFiscalPrinter@@UEAAJPEAF@Z 00000001800114f0 f   FiscalPrinterImpl.obj
 0001:00010524       ?get_CapIndependentHeader@COPOSFiscalPrinter@@UEAAJPEAF@Z 0000000180011524 f   FiscalPrinterImpl.obj
 0001:00010558       ?get_CapItemList@COPOSFiscalPrinter@@UEAAJPEAF@Z 0000000180011558 f   FiscalPrinterImpl.obj
 0001:0001058c       ?get_CapJrnEmptySensor@COPOSFiscalPrinter@@UEAAJPEAF@Z 000000018001158c f   FiscalPrinterImpl.obj
 0001:000105c0       ?get_CapJrnNearEndSensor@COPOSFiscalPrinter@@UEAAJPEAF@Z 00000001800115c0 f   FiscalPrinterImpl.obj
 0001:000105f4       ?get_CapJrnPresent@COPOSFiscalPrinter@@UEAAJPEAF@Z 00000001800115f4 f   FiscalPrinterImpl.obj
 0001:00010628       ?get_CapMultiContractor@COPOSFiscalPrinter@@UEAAJPEAF@Z 0000000180011628 f   FiscalPrinterImpl.obj
 0001:0001065c       ?get_CapNonFiscalMode@COPOSFiscalPrinter@@UEAAJPEAF@Z 000000018001165c f   FiscalPrinterImpl.obj
 0001:00010690       ?get_CapOnlyVoidLastItem@COPOSFiscalPrinter@@UEAAJPEAF@Z 0000000180011690 f   FiscalPrinterImpl.obj
 0001:000106c4       ?get_CapOrderAdjustmentFirst@COPOSFiscalPrinter@@UEAAJPEAF@Z 00000001800116c4 f   FiscalPrinterImpl.obj
 0001:000106f8       ?get_CapPackageAdjustment@COPOSFiscalPrinter@@UEAAJPEAF@Z 00000001800116f8 f   FiscalPrinterImpl.obj
 0001:0001072c       ?get_CapPercentAdjustment@COPOSFiscalPrinter@@UEAAJPEAF@Z 000000018001172c f   FiscalPrinterImpl.obj
 0001:00010760       ?get_CapPositiveAdjustment@COPOSFiscalPrinter@@UEAAJPEAF@Z 0000000180011760 f   FiscalPrinterImpl.obj
 0001:00010794       ?get_CapPositiveSubtotalAdjustment@COPOSFiscalPrinter@@UEAAJPEAF@Z 0000000180011794 f   FiscalPrinterImpl.obj
 0001:000107c8       ?get_CapPostPreLine@COPOSFiscalPrinter@@UEAAJPEAF@Z 00000001800117c8 f   FiscalPrinterImpl.obj
 0001:000107fc       ?get_CapPowerLossReport@COPOSFiscalPrinter@@UEAAJPEAF@Z 00000001800117fc f   FiscalPrinterImpl.obj
 0001:00010830       ?get_CapPowerReporting@COPOSFiscalPrinter@@UEAAJPEAJ@Z 0000000180011830 f   FiscalPrinterImpl.obj
 0001:00010844       ?get_CapPredefinedPaymentLines@COPOSFiscalPrinter@@UEAAJPEAF@Z 0000000180011844 f   FiscalPrinterImpl.obj
 0001:00010878       ?get_CapRecEmptySensor@COPOSFiscalPrinter@@UEAAJPEAF@Z 0000000180011878 f   FiscalPrinterImpl.obj
 0001:000108ac       ?get_CapRecNearEndSensor@COPOSFiscalPrinter@@UEAAJPEAF@Z 00000001800118ac f   FiscalPrinterImpl.obj
 0001:000108e0       ?get_CapRecPresent@COPOSFiscalPrinter@@UEAAJPEAF@Z 00000001800118e0 f   FiscalPrinterImpl.obj
 0001:00010914       ?get_CapReceiptNotPaid@COPOSFiscalPrinter@@UEAAJPEAF@Z 0000000180011914 f   FiscalPrinterImpl.obj
 0001:00010948       ?get_CapRemainingFiscalMemory@COPOSFiscalPrinter@@UEAAJPEAF@Z 0000000180011948 f   FiscalPrinterImpl.obj
 0001:0001097c       ?get_CapReservedWord@COPOSFiscalPrinter@@UEAAJPEAF@Z 000000018001197c f   FiscalPrinterImpl.obj
 0001:000109b0       ?get_CapSetCurrency@COPOSFiscalPrinter@@UEAAJPEAF@Z 00000001800119b0 f   FiscalPrinterImpl.obj
 0001:000109e4       ?get_CapSetHeader@COPOSFiscalPrinter@@UEAAJPEAF@Z 00000001800119e4 f   FiscalPrinterImpl.obj
 0001:00010a18       ?get_CapSetPOSID@COPOSFiscalPrinter@@UEAAJPEAF@Z 0000000180011a18 f   FiscalPrinterImpl.obj
 0001:00010a4c       ?get_CapSetStoreFiscalID@COPOSFiscalPrinter@@UEAAJPEAF@Z 0000000180011a4c f   FiscalPrinterImpl.obj
 0001:00010a80       ?get_CapSetTrailer@COPOSFiscalPrinter@@UEAAJPEAF@Z 0000000180011a80 f   FiscalPrinterImpl.obj
 0001:00010ab4       ?get_CapSetVatTable@COPOSFiscalPrinter@@UEAAJPEAF@Z 0000000180011ab4 f   FiscalPrinterImpl.obj
 0001:00010ae8       ?get_CapSlpEmptySensor@COPOSFiscalPrinter@@UEAAJPEAF@Z 0000000180011ae8 f   FiscalPrinterImpl.obj
 0001:00010b1c       ?get_CapSlpFiscalDocument@COPOSFiscalPrinter@@UEAAJPEAF@Z 0000000180011b1c f   FiscalPrinterImpl.obj
 0001:00010b50       ?get_CapSlpFullSlip@COPOSFiscalPrinter@@UEAAJPEAF@Z 0000000180011b50 f   FiscalPrinterImpl.obj
 0001:00010b84       ?get_CapSlpNearEndSensor@COPOSFiscalPrinter@@UEAAJPEAF@Z 0000000180011b84 f   FiscalPrinterImpl.obj
 0001:00010bb8       ?get_CapSlpPresent@COPOSFiscalPrinter@@UEAAJPEAF@Z 0000000180011bb8 f   FiscalPrinterImpl.obj
 0001:00010bec       ?get_CapSlpValidation@COPOSFiscalPrinter@@UEAAJPEAF@Z 0000000180011bec f   FiscalPrinterImpl.obj
 0001:00010c20       ?get_CapStatisticsReporting@COPOSFiscalPrinter@@UEAAJPEAF@Z 0000000180011c20 f   FiscalPrinterImpl.obj
 0001:00010c54       ?get_CapSubAmountAdjustment@COPOSFiscalPrinter@@UEAAJPEAF@Z 0000000180011c54 f   FiscalPrinterImpl.obj
 0001:00010c88       ?get_CapSubPercentAdjustment@COPOSFiscalPrinter@@UEAAJPEAF@Z 0000000180011c88 f   FiscalPrinterImpl.obj
 0001:00010cbc       ?get_CapSubtotal@COPOSFiscalPrinter@@UEAAJPEAF@Z 0000000180011cbc f   FiscalPrinterImpl.obj
 0001:00010cf0       ?get_CapTotalizerType@COPOSFiscalPrinter@@UEAAJPEAF@Z 0000000180011cf0 f   FiscalPrinterImpl.obj
 0001:00010d24       ?get_CapTrainingMode@COPOSFiscalPrinter@@UEAAJPEAF@Z 0000000180011d24 f   FiscalPrinterImpl.obj
 0001:00010d58       ?get_CapUpdateFirmware@COPOSFiscalPrinter@@UEAAJPEAF@Z 0000000180011d58 f   FiscalPrinterImpl.obj
 0001:00010d8c       ?get_CapUpdateStatistics@COPOSFiscalPrinter@@UEAAJPEAF@Z 0000000180011d8c f   FiscalPrinterImpl.obj
 0001:00010dc0       ?get_CapValidateJournal@COPOSFiscalPrinter@@UEAAJPEAF@Z 0000000180011dc0 f   FiscalPrinterImpl.obj
 0001:00010df4       ?get_CapXReport@COPOSFiscalPrinter@@UEAAJPEAF@Z 0000000180011df4 f   FiscalPrinterImpl.obj
 0001:00010e28       ?get_ChangeDue@COPOSFiscalPrinter@@UEAAJPEAPEA_W@Z 0000000180011e28 f   FiscalPrinterImpl.obj
 0001:00010e3c       ?get_CheckHealthText@COPOSFiscalPrinter@@UEAAJPEAPEA_W@Z 0000000180011e3c f   FiscalPrinterImpl.obj
 0001:00010e50       ?get_CheckTotal@COPOSFiscalPrinter@@UEAAJPEAF@Z 0000000180011e50 f   FiscalPrinterImpl.obj
 0001:00010e84       ?get_Claimed@COPOSFiscalPrinter@@UEAAJPEAF@Z 0000000180011e84 f   FiscalPrinterImpl.obj
 0001:00010eb8       ?get_ContractorId@COPOSFiscalPrinter@@UEAAJPEAJ@Z 0000000180011eb8 f   FiscalPrinterImpl.obj
 0001:00010ecc       ?get_ControlObjectDescription@COPOSFiscalPrinter@@UEAAJPEAPEA_W@Z 0000000180011ecc f   FiscalPrinterImpl.obj
 0001:00010f30       ?get_ControlObjectVersion@COPOSFiscalPrinter@@UEAAJPEAJ@Z 0000000180011f30 f   FiscalPrinterImpl.obj
 0001:00010f3c       ?get_CountryCode@COPOSFiscalPrinter@@UEAAJPEAJ@Z 0000000180011f3c f   FiscalPrinterImpl.obj
 0001:00010f50       ?get_CoverOpen@COPOSFiscalPrinter@@UEAAJPEAF@Z 0000000180011f50 f   FiscalPrinterImpl.obj
 0001:00010f84       ?get_DateType@COPOSFiscalPrinter@@UEAAJPEAJ@Z 0000000180011f84 f   FiscalPrinterImpl.obj
 0001:00010f98       ?get_DayOpened@COPOSFiscalPrinter@@UEAAJPEAF@Z 0000000180011f98 f   FiscalPrinterImpl.obj
 0001:00010fcc       ?get_DescriptionLength@COPOSFiscalPrinter@@UEAAJPEAJ@Z 0000000180011fcc f   FiscalPrinterImpl.obj
 0001:00010fe0       ?get_DeviceDescription@COPOSFiscalPrinter@@UEAAJPEAPEA_W@Z 0000000180011fe0 f   FiscalPrinterImpl.obj
 0001:00010ff4       ?get_DeviceEnabled@COPOSFiscalPrinter@@UEAAJPEAF@Z 0000000180011ff4 f   FiscalPrinterImpl.obj
 0001:00011024       ?get_DeviceName@COPOSFiscalPrinter@@UEAAJPEAPEA_W@Z 0000000180012024 f   FiscalPrinterImpl.obj
 0001:00011038       ?get_DuplicateReceipt@COPOSFiscalPrinter@@UEAAJPEAF@Z 0000000180012038 f   FiscalPrinterImpl.obj
 0001:0001106c       ?get_ErrorLevel@COPOSFiscalPrinter@@UEAAJPEAJ@Z 000000018001206c f   FiscalPrinterImpl.obj
 0001:00011080       ?get_ErrorOutID@COPOSFiscalPrinter@@UEAAJPEAJ@Z 0000000180012080 f   FiscalPrinterImpl.obj
 0001:00011094       ?get_ErrorState@COPOSFiscalPrinter@@UEAAJPEAJ@Z 0000000180012094 f   FiscalPrinterImpl.obj
 0001:000110a8       ?get_ErrorStation@COPOSFiscalPrinter@@UEAAJPEAJ@Z 00000001800120a8 f   FiscalPrinterImpl.obj
 0001:000110bc       ?get_ErrorString@COPOSFiscalPrinter@@UEAAJPEAPEA_W@Z 00000001800120bc f   FiscalPrinterImpl.obj
 0001:000110d0       ?get_FiscalReceiptStation@COPOSFiscalPrinter@@UEAAJPEAJ@Z 00000001800120d0 f   FiscalPrinterImpl.obj
 0001:000110e4       ?get_FiscalReceiptType@COPOSFiscalPrinter@@UEAAJPEAJ@Z 00000001800120e4 f   FiscalPrinterImpl.obj
 0001:000110f8       ?get_FlagWhenIdle@COPOSFiscalPrinter@@UEAAJPEAF@Z 00000001800120f8 f   FiscalPrinterImpl.obj
 0001:0001112c       ?get_FreezeEvents@COPOSFiscalPrinter@@UEAAJPEAF@Z 000000018001212c f   FiscalPrinterImpl.obj
 0001:0001115c       ?get_JrnEmpty@COPOSFiscalPrinter@@UEAAJPEAF@Z 000000018001215c f   FiscalPrinterImpl.obj
 0001:00011190       ?get_JrnNearEnd@COPOSFiscalPrinter@@UEAAJPEAF@Z 0000000180012190 f   FiscalPrinterImpl.obj
 0001:000111c4       ?get_MessageLength@COPOSFiscalPrinter@@UEAAJPEAJ@Z 00000001800121c4 f   FiscalPrinterImpl.obj
 0001:000111d8       ?get_MessageType@COPOSFiscalPrinter@@UEAAJPEAJ@Z 00000001800121d8 f   FiscalPrinterImpl.obj
 0001:000111ec       ?get_NumHeaderLines@COPOSFiscalPrinter@@UEAAJPEAJ@Z 00000001800121ec f   FiscalPrinterImpl.obj
 0001:00011200       ?get_NumTrailerLines@COPOSFiscalPrinter@@UEAAJPEAJ@Z 0000000180012200 f   FiscalPrinterImpl.obj
 0001:00011214       ?get_NumVatRates@COPOSFiscalPrinter@@UEAAJPEAJ@Z 0000000180012214 f   FiscalPrinterImpl.obj
 0001:00011228       ?get_OpenResult@COPOSFiscalPrinter@@UEAAJPEAJ@Z 0000000180012228 f   FiscalPrinterImpl.obj
 0001:00011234       ?get_OutputID@COPOSFiscalPrinter@@UEAAJPEAJ@Z 0000000180012234 f   FiscalPrinterImpl.obj
 0001:00011248       ?get_PostLine@COPOSFiscalPrinter@@UEAAJPEAPEA_W@Z 0000000180012248 f   FiscalPrinterImpl.obj
 0001:0001125c       ?get_PowerNotify@COPOSFiscalPrinter@@UEAAJPEAJ@Z 000000018001225c f   FiscalPrinterImpl.obj
 0001:00011270       ?get_PowerState@COPOSFiscalPrinter@@UEAAJPEAJ@Z 0000000180012270 f   FiscalPrinterImpl.obj
 0001:00011284       ?get_PreLine@COPOSFiscalPrinter@@UEAAJPEAPEA_W@Z 0000000180012284 f   FiscalPrinterImpl.obj
 0001:00011298       ?get_PredefinedPaymentLines@COPOSFiscalPrinter@@UEAAJPEAPEA_W@Z 0000000180012298 f   FiscalPrinterImpl.obj
 0001:000112ac       ?get_PrinterState@COPOSFiscalPrinter@@UEAAJPEAJ@Z 00000001800122ac f   FiscalPrinterImpl.obj
 0001:000112c0       ?get_QuantityDecimalPlaces@COPOSFiscalPrinter@@UEAAJPEAJ@Z 00000001800122c0 f   FiscalPrinterImpl.obj
 0001:000112d4       ?get_QuantityLength@COPOSFiscalPrinter@@UEAAJPEAJ@Z 00000001800122d4 f   FiscalPrinterImpl.obj
 0001:000112e8       ?get_RecEmpty@COPOSFiscalPrinter@@UEAAJPEAF@Z 00000001800122e8 f   FiscalPrinterImpl.obj
 0001:0001131c       ?get_RecNearEnd@COPOSFiscalPrinter@@UEAAJPEAF@Z 000000018001231c f   FiscalPrinterImpl.obj
 0001:00011350       ?get_RemainingFiscalMemory@COPOSFiscalPrinter@@UEAAJPEAJ@Z 0000000180012350 f   FiscalPrinterImpl.obj
 0001:00011364       ?get_ReservedWord@COPOSFiscalPrinter@@UEAAJPEAPEA_W@Z 0000000180012364 f   FiscalPrinterImpl.obj
 0001:00011378       ?get_ResultCode@COPOSFiscalPrinter@@UEAAJPEAJ@Z 0000000180012378 f   FiscalPrinterImpl.obj
 0001:000113b4       ?get_ResultCodeExtended@COPOSFiscalPrinter@@UEAAJPEAJ@Z 00000001800123b4 f   FiscalPrinterImpl.obj
 0001:000113c8       ?get_ServiceObjectDescription@COPOSFiscalPrinter@@UEAAJPEAPEA_W@Z 00000001800123c8 f   FiscalPrinterImpl.obj
 0001:000113dc       ?get_ServiceObjectVersion@COPOSFiscalPrinter@@UEAAJPEAJ@Z 00000001800123dc f   FiscalPrinterImpl.obj
 0001:000113f0       ?get_SlipSelection@COPOSFiscalPrinter@@UEAAJPEAJ@Z 00000001800123f0 f   FiscalPrinterImpl.obj
 0001:00011404       ?get_SlpEmpty@COPOSFiscalPrinter@@UEAAJPEAF@Z 0000000180012404 f   FiscalPrinterImpl.obj
 0001:00011438       ?get_SlpNearEnd@COPOSFiscalPrinter@@UEAAJPEAF@Z 0000000180012438 f   FiscalPrinterImpl.obj
 0001:0001146c       ?get_State@COPOSFiscalPrinter@@UEAAJPEAJ@Z 000000018001246c f   FiscalPrinterImpl.obj
 0001:00011498       ?get_TotalizerType@COPOSFiscalPrinter@@UEAAJPEAJ@Z 0000000180012498 f   FiscalPrinterImpl.obj
 0001:000114ac       ?get_TrainingModeActive@COPOSFiscalPrinter@@UEAAJPEAF@Z 00000001800124ac f   FiscalPrinterImpl.obj
 0001:000114e0       ?put_AdditionalHeader@COPOSFiscalPrinter@@UEAAJPEA_W@Z 00000001800124e0 f   FiscalPrinterImpl.obj
 0001:000114f4       ?put_AdditionalTrailer@COPOSFiscalPrinter@@UEAAJPEA_W@Z 00000001800124f4 f   FiscalPrinterImpl.obj
 0001:00011508       ?put_AsyncMode@COPOSFiscalPrinter@@UEAAJF@Z 0000000180012508 f   FiscalPrinterImpl.obj
 0001:00011524       ?put_BinaryConversion@COPOSFiscalPrinter@@UEAAJJ@Z 0000000180012524 f   FiscalPrinterImpl.obj
 0001:00011538       ?put_ChangeDue@COPOSFiscalPrinter@@UEAAJPEA_W@Z 0000000180012538 f   FiscalPrinterImpl.obj
 0001:0001154c       ?put_CheckTotal@COPOSFiscalPrinter@@UEAAJF@Z 000000018001254c f   FiscalPrinterImpl.obj
 0001:00011568       ?put_ContractorId@COPOSFiscalPrinter@@UEAAJJ@Z 0000000180012568 f   FiscalPrinterImpl.obj
 0001:0001157c       ?put_DateType@COPOSFiscalPrinter@@UEAAJJ@Z 000000018001257c f   FiscalPrinterImpl.obj
 0001:00011590       ?put_DeviceEnabled@COPOSFiscalPrinter@@UEAAJF@Z 0000000180012590 f   FiscalPrinterImpl.obj
 0001:000115a8       ?put_DuplicateReceipt@COPOSFiscalPrinter@@UEAAJF@Z 00000001800125a8 f   FiscalPrinterImpl.obj
 0001:000115c4       ?put_FiscalReceiptStation@COPOSFiscalPrinter@@UEAAJJ@Z 00000001800125c4 f   FiscalPrinterImpl.obj
 0001:000115d8       ?put_FiscalReceiptType@COPOSFiscalPrinter@@UEAAJJ@Z 00000001800125d8 f   FiscalPrinterImpl.obj
 0001:000115ec       ?put_FlagWhenIdle@COPOSFiscalPrinter@@UEAAJF@Z 00000001800125ec f   FiscalPrinterImpl.obj
 0001:00011608       ?put_FreezeEvents@COPOSFiscalPrinter@@UEAAJF@Z 0000000180012608 f   FiscalPrinterImpl.obj
 0001:00011658       ?put_MessageType@COPOSFiscalPrinter@@UEAAJJ@Z 0000000180012658 f   FiscalPrinterImpl.obj
 0001:0001166c       ?put_PostLine@COPOSFiscalPrinter@@UEAAJPEA_W@Z 000000018001266c f   FiscalPrinterImpl.obj
 0001:00011680       ?put_PowerNotify@COPOSFiscalPrinter@@UEAAJJ@Z 0000000180012680 f   FiscalPrinterImpl.obj
 0001:00011694       ?put_PreLine@COPOSFiscalPrinter@@UEAAJPEA_W@Z 0000000180012694 f   FiscalPrinterImpl.obj
 0001:000116a8       ?put_SlipSelection@COPOSFiscalPrinter@@UEAAJJ@Z 00000001800126a8 f   FiscalPrinterImpl.obj
 0001:000116bc       ?put_TotalizerType@COPOSFiscalPrinter@@UEAAJJ@Z 00000001800126bc f   FiscalPrinterImpl.obj
 0001:000116d0       ?s_EventWindowProc@COPOSFiscalPrinter@@KA_JPEAUHWND__@@I_K_J@Z 00000001800126d0 f i FiscalPrinterImpl.obj
 0001:0001174c       ??_U@YAPEAX_K@Z            000000018001274c f   LIBCMT:new_array.obj
 0001:00011754       ??3@YAXPEAX_K@Z            0000000180012754 f   LIBCMT:delete_scalar_size.obj
 0001:00011754       ??_V@YAXPEAX@Z             0000000180012754 f   LIBCMT:delete_array.obj
 0001:0001175c       ??_V@YAXPEAX_K@Z           000000018001275c f   LIBCMT:delete_array_size.obj
 0001:00011764       __scrt_acquire_startup_lock 0000000180012764 f   LIBCMT:utility.obj
 0001:000117a0       __scrt_dllmain_after_initialize_c 00000001800127a0 f   LIBCMT:utility.obj
 0001:000117d4       __scrt_dllmain_before_initialize_c 00000001800127d4 f   LIBCMT:utility.obj
 0001:000117ec       __scrt_dllmain_crt_thread_attach 00000001800127ec f   LIBCMT:utility.obj
 0001:00011814       __scrt_dllmain_crt_thread_detach 0000000180012814 f   LIBCMT:utility.obj
 0001:0001182c       __scrt_dllmain_exception_filter 000000018001282c f   LIBCMT:utility.obj
 0001:0001188c       __scrt_dllmain_uninitialize_c 000000018001288c f   LIBCMT:utility.obj
 0001:000118bc       __scrt_dllmain_uninitialize_critical 00000001800128bc f   LIBCMT:utility.obj
 0001:000118d0       __scrt_initialize_crt      00000001800128d0 f   LIBCMT:utility.obj
 0001:0001191c       __scrt_initialize_onexit_tables 000000018001291c f   LIBCMT:utility.obj
 0001:000119a8       __scrt_is_nonwritable_in_current_image 00000001800129a8 f   LIBCMT:utility.obj
 0001:00011a40       __scrt_release_startup_lock 0000000180012a40 f   LIBCMT:utility.obj
 0001:00011a64       __scrt_uninitialize_crt    0000000180012a64 f   LIBCMT:utility.obj
 0001:00011a90       _onexit                    0000000180012a90 f   LIBCMT:utility.obj
 0001:00011acc       atexit                     0000000180012acc f   LIBCMT:utility.obj
 0001:00011ae4       ??3@YAXPEAX@Z              0000000180012ae4 f   LIBCMT:delete_scalar.obj
 0001:00011be4       _Init_thread_footer        0000000180012be4 f   LIBCMT:thread_safe_statics.obj
 0001:00011c44       _Init_thread_header        0000000180012c44 f   LIBCMT:thread_safe_statics.obj
 0001:00011cac       _Init_thread_notify        0000000180012cac f   LIBCMT:thread_safe_statics.obj
 0001:00011cf0       _Init_thread_wait          0000000180012cf0 f   LIBCMT:thread_safe_statics.obj
 0001:00011d54       __raise_securityfailure    0000000180012d54 f   LIBCMT:gs_report.obj
 0001:00011d88       __report_gsfailure         0000000180012d88 f   LIBCMT:gs_report.obj
 0001:00011e5c       __report_rangecheckfailure 0000000180012e5c f   LIBCMT:gs_report.obj
 0001:00011e70       __report_securityfailure   0000000180012e70 f   LIBCMT:gs_report.obj
 0001:00011ff0       ??2@YAPEAX_KAEBUnothrow_t@std@@@Z 0000000180012ff0 f   LIBCMT:new_scalar_nothrow.obj
 0001:00012004       ??_U@YAPEAX_KAEBUnothrow_t@std@@@Z 0000000180013004 f   LIBCMT:new_array_nothrow.obj
 0001:0001200c       __GSHandlerCheck           000000018001300c f   LIBCMT:gshandler.obj
 0001:0001202c       __GSHandlerCheckCommon     000000018001302c f   LIBCMT:gshandler.obj
 0001:00012088       __GSHandlerCheck_SEH       0000000180013088 f   LIBCMT:gshandlerseh.obj
 0001:00012120       __chkstk                   0000000180013120 f   LIBCMT:chkstk.obj
 0001:00012120       _alloca_probe              0000000180013120 f   LIBCMT:chkstk.obj
 0001:00012190       __security_check_cookie    0000000180013190 f   LIBCMT:amdsecgs.obj
 0001:000124d4       _DllMainCRTStartup         00000001800134d4 f   LIBCMT:dll_dllmain.obj
 0001:00012514       ??2@YAPEAX_K@Z             0000000180013514 f   LIBCMT:new_scalar.obj
 0001:00012550       __isa_available_init       0000000180013550 f   LIBCMT:cpu_disp.obj
 0001:000126f4       __scrt_is_ucrt_dll_in_use  00000001800136f4 f   LIBCMT:ucrt_detection.obj
 0001:00012700       __crt_debugger_hook        0000000180013700 f   LIBCMT:utility_desktop.obj
 0001:00012708       __scrt_fastfail            0000000180013708 f   LIBCMT:utility_desktop.obj
 0001:00012854       __security_init_cookie     0000000180013854 f   LIBCMT:gs_support.obj
 0001:00012900       ?__scrt_initialize_type_info@@YAXXZ 0000000180013900 f   LIBCMT:tncleanup.obj
 0001:00012910       ?__scrt_uninitialize_type_info@@YAXXZ 0000000180013910 f   LIBCMT:tncleanup.obj
 0001:0001291c       __local_stdio_scanf_options 000000018001391c f i LIBCMT:default_local_stdio_options.obj
 0001:00012924       __scrt_initialize_default_local_stdio_options 0000000180013924 f   LIBCMT:default_local_stdio_options.obj
 0001:00012940       __scrt_get_dyn_tls_init_callback 0000000180013940 f   LIBCMT:dyn_tls_init.obj
 0001:00012948       _RTC_Initialize            0000000180013948 f   LIBCMT:initsect.obj
 0001:00012984       _RTC_Terminate             0000000180013984 f   LIBCMT:initsect.obj
 0001:000129c0       ??0bad_alloc@std@@QEAA@AEBV01@@Z 00000001800139c0 f i LIBCMT:throw_bad_alloc.obj
 0001:000129fc       ??0bad_alloc@std@@QEAA@XZ  00000001800139fc f i LIBCMT:throw_bad_alloc.obj
 0001:00012a1c       ??0bad_array_new_length@std@@QEAA@AEBV01@@Z 0000000180013a1c f i LIBCMT:throw_bad_alloc.obj
 0001:00012a58       ??0bad_array_new_length@std@@QEAA@XZ 0000000180013a58 f i LIBCMT:throw_bad_alloc.obj
 0001:00012a78       ??0exception@std@@QEAA@AEBV01@@Z 0000000180013a78 f i LIBCMT:throw_bad_alloc.obj
 0001:00012aac       ??1bad_array_new_length@std@@UEAA@XZ 0000000180013aac f i LIBCMT:throw_bad_alloc.obj
 0001:00012aac       ??1bad_alloc@std@@UEAA@XZ  0000000180013aac f i LIBCMT:throw_bad_alloc.obj
 0001:00012aac       ??1bad_exception@std@@UEAA@XZ 0000000180013aac f i libvcruntime:frame.obj
 0001:00012ac0       ??_Eexception@std@@UEAAPEAXI@Z 0000000180013ac0 f i LIBCMT:throw_bad_alloc.obj
 0001:00012ac0       ??_Gbad_array_new_length@std@@UEAAPEAXI@Z 0000000180013ac0 f i LIBCMT:throw_bad_alloc.obj
 0001:00012ac0       ??_Gbad_exception@std@@UEAAPEAXI@Z 0000000180013ac0 f i libvcruntime:frame.obj
 0001:00012ac0       ??_Ebad_alloc@std@@UEAAPEAXI@Z 0000000180013ac0 f i LIBCMT:throw_bad_alloc.obj
 0001:00012ac0       ??_Gbad_alloc@std@@UEAAPEAXI@Z 0000000180013ac0 f i LIBCMT:throw_bad_alloc.obj
 0001:00012ac0       ??_Ebad_array_new_length@std@@UEAAPEAXI@Z 0000000180013ac0 f i LIBCMT:throw_bad_alloc.obj
 0001:00012ac0       ??_Ebad_exception@std@@UEAAPEAXI@Z 0000000180013ac0 f i libvcruntime:frame.obj
 0001:00012ac0       ??_Gexception@std@@UEAAPEAXI@Z 0000000180013ac0 f i LIBCMT:throw_bad_alloc.obj
 0001:00012b04       ?__scrt_throw_std_bad_alloc@@YAXXZ 0000000180013b04 f   LIBCMT:throw_bad_alloc.obj
 0001:00012b24       ?__scrt_throw_std_bad_array_new_length@@YAXXZ 0000000180013b24 f   LIBCMT:throw_bad_alloc.obj
 0001:00012b44       ?what@exception@std@@UEBAPEBDXZ 0000000180013b44 f i LIBCMT:throw_bad_alloc.obj
 0001:00012b60       ??_Etype_info@@UEAAPEAXI@Z 0000000180013b60 f i LIBCMT:std_type_info_static.obj
 0001:00012b60       ??_Gtype_info@@UEAAPEAXI@Z 0000000180013b60 f i LIBCMT:std_type_info_static.obj
 0001:00012b8c       ??0CAtlBaseModule@ATL@@QEAA@XZ 0000000180013b8c f   atls:atlbase.obj
 0001:00012c34       ??1CAtlBaseModule@ATL@@QEAA@XZ 0000000180013c34 f   atls:atlbase.obj
 0001:00012d68       ?__AllocStdCallThunk_cmn@@YAPEAXXZ 0000000180013d68 f   atls:atlthunk.obj
 0001:00012ec0       AtlThunk_AllocateData      0000000180013ec0 f   atls:atlthunk.obj
 0001:00012f3c       AtlThunk_DataToCode        0000000180013f3c f   atls:atlthunk.obj
 0001:00012f90       AtlThunk_FreeData          0000000180013f90 f   atls:atlthunk.obj
 0001:00012ff0       AtlThunk_InitData          0000000180013ff0 f   atls:atlthunk.obj
 0001:00013098       _get_purecall_handler      0000000180014098 f   libvcruntime:purevirt.obj
 0001:000130a0       _purecall                  00000001800140a0 f   libvcruntime:purevirt.obj
 0001:000130bc       wcsstr                     00000001800140bc f   libvcruntime:wcsstr.obj
 0001:000132f0       memcmp                     00000001800142f0 f   libvcruntime:memcmp.obj
 0001:000133d0       memcpy_repmovs             00000001800143d0 f   libvcruntime:memcpy.obj
 0001:000133f0       memcpy                     00000001800143f0 f   libvcruntime:memcpy.obj
 0001:000133f0       memmove                    00000001800143f0 f   libvcruntime:memcpy.obj
 0001:000137e0       memset_repmovs             00000001800147e0 f   libvcruntime:memset.obj
 0001:00013800       memset                     0000000180014800 f   libvcruntime:memset.obj
 0001:00013990       __vcrt_initialize          0000000180014990 f   libvcruntime:initialization.obj
 0001:000139b8       __vcrt_thread_attach       00000001800149b8 f   libvcruntime:initialization.obj
 0001:000139cc       __vcrt_thread_detach       00000001800149cc f   libvcruntime:initialization.obj
 0001:000139e0       __vcrt_uninitialize        00000001800149e0 f   libvcruntime:initialization.obj
 0001:000139fc       __vcrt_uninitialize_critical 00000001800149fc f   libvcruntime:initialization.obj
 0001:00013a0c       __C_specific_handler       0000000180014a0c f   libvcruntime:riscchandler.obj
 0001:00013c18       ??$_CallSETranslator@V__FrameHandler4@@@@YAHPEAUEHExceptionRecord@@PEA_KPEAU_CONTEXT@@PEAU_xDISPATCHER_CONTEXT@@PEAUFuncInfo4@FH4@@K1H@Z 0000000180014c18 f i libvcruntime:risctrnsctrl.obj
 0001:00013c6c       ?DecompFuncInfo@FH4@@YA_JPEAEAEAUFuncInfo4@1@_KH_N@Z 0000000180014c6c f i libvcruntime:risctrnsctrl.obj
 0001:00013d90       ?ExecutionInCatch@__FrameHandler4@@SA_NPEAU_xDISPATCHER_CONTEXT@@PEAUFuncInfo4@FH4@@@Z 0000000180014d90 f   libvcruntime:risctrnsctrl.obj
 0001:00013d98       ?FrameUnwindToEmptyState@__FrameHandler4@@SAXPEA_KPEAU_xDISPATCHER_CONTEXT@@PEAUFuncInfo4@FH4@@@Z 0000000180014d98 f   libvcruntime:risctrnsctrl.obj
 0001:00013dcc       ?GetEstablisherFrame@__FrameHandler4@@SAPEA_KPEA_KPEAU_xDISPATCHER_CONTEXT@@PEAUFuncInfo4@FH4@@0@Z 0000000180014dcc f   libvcruntime:risctrnsctrl.obj
 0001:00013df0       ?GetRangeOfTrysToCheck@__FrameHandler4@@SA?AU?$pair@Viterator@TryBlockMap4@FH4@@V123@@std@@AEAVTryBlockMap4@FH4@@HPEAU_xDISPATCHER_CONTEXT@@PEAUFuncInfo4@5@H@Z 0000000180014df0 f   libvcruntime:risctrnsctrl.obj
 0001:00013f58       ?UnwindNestedFrames@__FrameHandler4@@SAXPEA_KPEAUEHExceptionRecord@@PEAU_CONTEXT@@0PEAXPEAUFuncInfo4@FH4@@HHPEAUHandlerType4@5@PEAU_xDISPATCHER_CONTEXT@@E@Z 0000000180014f58 f   libvcruntime:risctrnsctrl.obj
 0001:00014078       ?setBuffer@TryBlockMap4@FH4@@QEAAXViterator@12@@Z 0000000180015078 f i libvcruntime:risctrnsctrl.obj
 0001:00014238       _CreateFrameInfo           0000000180015238 f   libvcruntime:risctrnsctrl.obj
 0001:00014274       _FindAndUnlinkFrame        0000000180015274 f   libvcruntime:risctrnsctrl.obj
 0001:000142c8       _GetImageBase              00000001800152c8 f   libvcruntime:risctrnsctrl.obj
 0001:000142dc       _GetThrowImageBase         00000001800152dc f   libvcruntime:risctrnsctrl.obj
 0001:000142f0       _SetImageBase              00000001800152f0 f   libvcruntime:risctrnsctrl.obj
 0001:00014308       _SetThrowImageBase         0000000180015308 f   libvcruntime:risctrnsctrl.obj
 0001:00014320       __CxxFrameHandler4         0000000180015320 f   libvcruntime:risctrnsctrl.obj
 0001:000143e0       __DestructExceptionObject  00000001800153e0 f   libvcruntime:ehhelpers.obj
 0001:00014450       ?_CallMemberFunction0@@YAXQEAX0@Z 0000000180015450 f i libvcruntime:ehhelpers.obj
 0001:00014454       _IsExceptionObjectToBeDestroyed 0000000180015454 f   libvcruntime:ehhelpers.obj
 0001:00014484       __AdjustPointer            0000000180015484 f   libvcruntime:ehhelpers.obj
 0001:000144a8       __FrameUnwindFilter        00000001800154a8 f   libvcruntime:ehhelpers.obj
 0001:00014510       __std_type_info_compare    0000000180015510 f   libvcruntime:std_type_info.obj
 0001:00014538       __std_type_info_destroy_list 0000000180015538 f   libvcruntime:std_type_info.obj
 0001:00014564       __std_exception_copy       0000000180015564 f   libvcruntime:std_exception.obj
 0001:000145f4       __std_exception_destroy    00000001800155f4 f   libvcruntime:std_exception.obj
 0001:0001461c       _CxxThrowException         000000018001561c f   libvcruntime:throw.obj
 0001:000146bc       __vcrt_freefls             00000001800156bc f   libvcruntime:per_thread_data.obj
 0001:000146dc       __vcrt_freeptd             00000001800156dc f   libvcruntime:per_thread_data.obj
 0001:0001472c       __vcrt_getptd              000000018001572c f   libvcruntime:per_thread_data.obj
 0001:00014748       __vcrt_getptd_noexit       0000000180015748 f   libvcruntime:per_thread_data.obj
 0001:00014808       __vcrt_initialize_ptd      0000000180015808 f   libvcruntime:per_thread_data.obj
 0001:00014850       __vcrt_uninitialize_ptd    0000000180015850 f   libvcruntime:per_thread_data.obj
 0001:00014874       __vcrt_initialize_locks    0000000180015874 f   libvcruntime:locks.obj
 0001:000148a8       __vcrt_uninitialize_locks  00000001800158a8 f   libvcruntime:locks.obj
 0001:000148f0       _NLG_Notify                00000001800158f0 f   libvcruntime:notify.obj
 0001:00014910       __NLG_Dispatch2            0000000180015910 f   libvcruntime:notify.obj
 0001:00014920       __NLG_Return2              0000000180015920 f   libvcruntime:notify.obj
 0001:00014924       __except_validate_context_record 0000000180015924 f   libvcruntime:jbcxrval.obj
 0001:0001495c       ?StateFromControlPc@__FrameHandler4@@SAHPEAUFuncInfo4@FH4@@PEAU_xDISPATCHER_CONTEXT@@@Z 000000018001595c f   libvcruntime:ehstate.obj
 0001:00014964       ?StateFromIp@__FrameHandler4@@SAHPEAUFuncInfo4@FH4@@PEAU_xDISPATCHER_CONTEXT@@_K@Z 0000000180015964 f   libvcruntime:ehstate.obj
 0001:000155e8       ??$TypeMatchHelper@V__FrameHandler3@@@@YAHPEBU_s_HandlerType@@PEBU_s_CatchableType@@PEBU_s_ThrowInfo@@@Z 00000001800165e8 f i libvcruntime:frame.obj
 0001:00015728       ??$TypeMatchHelper@V__FrameHandler4@@@@YAHPEAUHandlerType4@FH4@@PEBU_s_CatchableType@@PEBU_s_ThrowInfo@@@Z 0000000180016728 f i libvcruntime:frame.obj
 0001:0001586c       ??$__InternalCxxFrameHandler@V__FrameHandler4@@@@YA?AW4_EXCEPTION_DISPOSITION@@PEAUEHExceptionRecord@@PEA_KPEAU_CONTEXT@@PEAU_xDISPATCHER_CONTEXT@@PEAUFuncInfo4@FH4@@H1E@Z 000000018001686c f i libvcruntime:frame.obj
 0001:00015b00       ??0HandlerMap4@FH4@@QEAA@PEBUTryBlockMapEntry4@1@_KH@Z 0000000180016b00 f i libvcruntime:frame.obj
 0001:00015b7c       ??0TryBlockMap4@FH4@@QEAA@PEBUFuncInfo4@1@_K@Z 0000000180016b7c f i libvcruntime:frame.obj
 0001:00015c54       ??0bad_exception@std@@QEAA@AEBV01@@Z 0000000180016c54 f i libvcruntime:frame.obj
 0001:00015c90       ??0bad_exception@std@@QEAA@XZ 0000000180016c90 f i libvcruntime:frame.obj
 0001:00015cb0       ?CxxCallCatchBlock@__FrameHandler4@@SAPEAXPEAU_EXCEPTION_RECORD@@@Z 0000000180016cb0 f   libvcruntime:frame.obj
 0001:00015f00       ?DecompHandler@HandlerMap4@FH4@@AEAAXXZ 0000000180016f00 f i libvcruntime:frame.obj
 0001:00016140       ?FrameUnwindToState@__FrameHandler4@@SAXPEA_KPEAU_xDISPATCHER_CONTEXT@@PEAUFuncInfo4@FH4@@H@Z 0000000180017140 f   libvcruntime:frame.obj
 0001:000165a0       ?ReadEntry@UWMap4@FH4@@AEAAXPEAPEAE@Z 00000001800175a0 f i libvcruntime:frame.obj
 0001:00016640       ?_CallMemberFunction1@@YAXQEAX00@Z 0000000180017640 f i libvcruntime:frame.obj
 0001:0001664c       ?_CallMemberFunction2@@YAXQEAX00H@Z 000000018001764c f i libvcruntime:frame.obj
 0001:0001665c       ?getStartStop@UWMap4@FH4@@QEAAXHHAEAViterator@12@0@Z 000000018001765c f i libvcruntime:frame.obj
 0001:0001672c       ?getStateFromIterators@UWMap4@FH4@@SAHAEBViterator@12@H0H0@Z 000000018001772c f i libvcruntime:frame.obj
 0001:00016940       __vcrt_FlsAlloc            0000000180017940 f   libvcruntime:winapi_downlevel.obj
 0001:00016988       __vcrt_FlsFree             0000000180017988 f   libvcruntime:winapi_downlevel.obj
 0001:000169d0       __vcrt_FlsGetValue         00000001800179d0 f   libvcruntime:winapi_downlevel.obj
 0001:00016a18       __vcrt_FlsSetValue         0000000180017a18 f   libvcruntime:winapi_downlevel.obj
 0001:00016a6c       __vcrt_InitializeCriticalSectionEx 0000000180017a6c f   libvcruntime:winapi_downlevel.obj
 0001:00016ae0       _CallSettingFrame          0000000180017ae0 f   libvcruntime:handlers.obj
 0001:00016b30       _CallSettingFrame_LookupContinuationIndex 0000000180017b30 f   libvcruntime:handlers.obj
 0001:00016b60       _CallSettingFrame_NotifyContinuationAddr 0000000180017b60 f   libvcruntime:handlers.obj
 0001:00016b90       _CallSettingFrameEncoded   0000000180017b90 f   libvcruntime:handlers.obj
 0001:00016bd8       free                       0000000180017bd8 f   libucrt:free.obj
 0001:00016bec       __acrt_call_reportfault    0000000180017bec f   libucrt:invalid_parameter.obj
 0001:00016d48       __acrt_initialize_invalid_parameter_handler 0000000180017d48 f   libucrt:invalid_parameter.obj
 0001:00016d50       _invalid_parameter         0000000180017d50 f   libucrt:invalid_parameter.obj
 0001:00016e00       _invalid_parameter_noinfo  0000000180017e00 f   libucrt:invalid_parameter.obj
 0001:00016e20       _invoke_watson             0000000180017e20 f   libucrt:invalid_parameter.obj
 0001:00016e68       __acrt_errno_from_os_error 0000000180017e68 f   libucrt:errno.obj
 0001:00016eb0       __acrt_errno_map_os_error  0000000180017eb0 f   libucrt:errno.obj
 0001:00016f00       __doserrno                 0000000180017f00 f   libucrt:errno.obj
 0001:00016f20       _errno                     0000000180017f20 f   libucrt:errno.obj
 0001:00016f40       calloc                     0000000180017f40 f   libucrt:calloc.obj
 0001:00016f48       malloc                     0000000180017f48 f   libucrt:malloc.obj
 0001:00016f50       _recalloc                  0000000180017f50 f   libucrt:recalloc.obj
 0001:00016f58       _recalloc_base             0000000180017f58 f   libucrt:recalloc.obj
 0001:00016ff0       _resetstkoflw              0000000180017ff0 f   libucrt:resetstk.obj
 0001:0001711c       wcscat_s                   000000018001811c f   libucrt:wcscat_s.obj
 0001:0001719c       wcscpy_s                   000000018001819c f   libucrt:wcscpy_s.obj
 0001:00017204       wcsncpy_s                  0000000180018204 f   libucrt:wcsncpy_s.obj
 0001:000174bc       ??$ensure_buffer_is_big_enough@D@formatting_buffer@__crt_stdio_output@@QEAA_N_K@Z 00000001800184bc f i libucrt:output.obj
 0001:00017564       ??$ensure_buffer_is_big_enough@_W@formatting_buffer@__crt_stdio_output@@QEAA_N_K@Z 0000000180018564 f i libucrt:output.obj
 0001:00017610       ??$is_wide_character_specifier@_W@__crt_stdio_output@@YA_N_K_WW4length_modifier@0@@Z 0000000180018610 f i libucrt:output.obj
 0001:00017650       ??$type_case_integer_parse_into_buffer@I@?$output_processor@_WV?$string_output_adapter@_W@__crt_stdio_output@@V?$format_validation_base@_WV?$string_output_adapter@_W@__crt_stdio_output@@@2@@__crt_stdio_output@@AEAAXII_N@Z 0000000180018650 f i libucrt:output.obj
 0001:000176f4       ??$type_case_integer_parse_into_buffer@_K@?$output_processor@_WV?$string_output_adapter@_W@__crt_stdio_output@@V?$format_validation_base@_WV?$string_output_adapter@_W@__crt_stdio_output@@@2@@__crt_stdio_output@@AEAAX_KI_N@Z 00000001800186f4 f i libucrt:output.obj
 0001:00017798       ??$write_multiple_characters@V?$string_output_adapter@_W@__crt_stdio_output@@D@__crt_stdio_output@@YAXAEBV?$string_output_adapter@_W@0@DHQEAH@Z 0000000180018798 f i libucrt:output.obj
 0001:00017810       ??0_LocaleUpdate@@QEAA@QEAU__crt_locale_pointers@@@Z 0000000180018810 f i libucrt:output.obj
 0001:000178b0       ?crop_zeroes@__crt_stdio_output@@YAXPEADQEAU__crt_locale_pointers@@@Z 00000001800188b0 f i libucrt:output.obj
 0001:00017950       ?force_decimal_point@__crt_stdio_output@@YAXPEADQEAU__crt_locale_pointers@@@Z 0000000180018950 f i libucrt:output.obj
 0001:000179c8       ?parse_int_from_format_string@?$output_processor@_WV?$string_output_adapter@_W@__crt_stdio_output@@V?$format_validation_base@_WV?$string_output_adapter@_W@__crt_stdio_output@@@2@@__crt_stdio_output@@AEAA_NQEAH@Z 00000001800189c8 f i libucrt:output.obj
 0001:00017a6c       ?process@?$output_processor@_WV?$string_output_adapter@_W@__crt_stdio_output@@V?$format_validation_base@_WV?$string_output_adapter@_W@__crt_stdio_output@@@2@@__crt_stdio_output@@QEAAHXZ 0000000180018a6c f i libucrt:output.obj
 0001:00017ce4       ?state_case_size@?$output_processor@_WV?$string_output_adapter@_W@__crt_stdio_output@@V?$format_validation_base@_WV?$string_output_adapter@_W@__crt_stdio_output@@@2@@__crt_stdio_output@@AEAA_NXZ 0000000180018ce4 f i libucrt:output.obj
 0001:00017e78       ?state_case_type@?$output_processor@_WV?$string_output_adapter@_W@__crt_stdio_output@@V?$format_validation_base@_WV?$string_output_adapter@_W@__crt_stdio_output@@@2@@__crt_stdio_output@@AEAA_NXZ 0000000180018e78 f i libucrt:output.obj
 0001:00018150       ?to_integer_size@__crt_stdio_output@@YA_KW4length_modifier@1@@Z 0000000180019150 f i libucrt:output.obj
 0001:000181b8       ?type_case_Z@?$output_processor@_WV?$string_output_adapter@_W@__crt_stdio_output@@V?$format_validation_base@_WV?$string_output_adapter@_W@__crt_stdio_output@@@2@@__crt_stdio_output@@AEAA_NXZ 00000001800191b8 f i libucrt:output.obj
 0001:00018234       ?type_case_a@?$output_processor@_WV?$string_output_adapter@_W@__crt_stdio_output@@V?$format_validation_base@_WV?$string_output_adapter@_W@__crt_stdio_output@@@2@@__crt_stdio_output@@AEAA_NXZ 0000000180019234 f i libucrt:output.obj
 0001:00018414       ?type_case_c_tchar@?$output_processor@_WV?$string_output_adapter@_W@__crt_stdio_output@@V?$format_validation_base@_WV?$string_output_adapter@_W@__crt_stdio_output@@@2@@__crt_stdio_output@@AEAA_N_W@Z 0000000180019414 f i libucrt:output.obj
 0001:000184bc       ?type_case_integer@?$output_processor@_WV?$string_output_adapter@_W@__crt_stdio_output@@V?$format_validation_base@_WV?$string_output_adapter@_W@__crt_stdio_output@@@2@@__crt_stdio_output@@AEAA_NI_N@Z 00000001800194bc f i libucrt:output.obj
 0001:00018644       ?type_case_n@?$output_processor@_WV?$string_output_adapter@_W@__crt_stdio_output@@V?$format_validation_base@_WV?$string_output_adapter@_W@__crt_stdio_output@@@2@@__crt_stdio_output@@AEAA_NXZ 0000000180019644 f i libucrt:output.obj
 0001:000186cc       ?type_case_s@?$output_processor@_WV?$string_output_adapter@_W@__crt_stdio_output@@V?$format_validation_base@_WV?$string_output_adapter@_W@__crt_stdio_output@@@2@@__crt_stdio_output@@AEAA_NXZ 00000001800196cc f i libucrt:output.obj
 0001:00018794       ?write_stored_string_tchar@?$output_processor@_WV?$string_output_adapter@_W@__crt_stdio_output@@V?$format_validation_base@_WV?$string_output_adapter@_W@__crt_stdio_output@@@2@@__crt_stdio_output@@AEAA_N_W@Z 0000000180019794 f i libucrt:output.obj
 0001:0001887c       ?write_string@?$string_output_adapter@_W@__crt_stdio_output@@QEBAXQEB_WHQEAHAEAV__crt_deferred_errno_cache@@@Z 000000018001987c f i libucrt:output.obj
 0001:00018924       __stdio_common_vswprintf_s 0000000180019924 f   libucrt:output.obj
 0001:00018994       _seh_filter_dll            0000000180019994 f   libucrt:exception_filter.obj
 0001:000189a8       _seh_filter_exe            00000001800199a8 f   libucrt:exception_filter.obj
 0001:00018d98       __acrt_initialize_thread_local_exit_callback 0000000180019d98 f   libucrt:exit.obj
 0001:00018da0       _cexit                     0000000180019da0 f   libucrt:exit.obj
 0001:00018db0       _exit                      0000000180019db0 f   libucrt:exit.obj
 0001:00018dbc       _is_c_termination_complete 0000000180019dbc f   libucrt:exit.obj
 0001:00018f84       __acrt_allocate_buffer_for_argv 0000000180019f84 f   libucrt:argv_parsing.obj
 0001:00018fe4       _configure_narrow_argv     0000000180019fe4 f   libucrt:argv_parsing.obj
 0001:0001935c       __dcrt_uninitialize_environments_nolock 000000018001a35c f   libucrt:environment_initialization.obj
 0001:00019394       _initialize_narrow_environment 000000018001a394 f   libucrt:environment_initialization.obj
 0001:000196dc       _crt_atexit                000000018001a6dc f   libucrt:onexit.obj
 0001:000196ec       _execute_onexit_table      000000018001a6ec f   libucrt:onexit.obj
 0001:00019728       _initialize_onexit_table   000000018001a728 f   libucrt:onexit.obj
 0001:00019750       _register_onexit_function  000000018001a750 f   libucrt:onexit.obj
 0001:000197d0       __acrt_uninitialize_command_line 000000018001a7d0 f   libucrt:argv_data.obj
 0001:000198c8       __acrt_initialize          000000018001a8c8 f   libucrt:initialization.obj
 0001:000198dc       __acrt_thread_attach       000000018001a8dc f   libucrt:initialization.obj
 0001:000198f0       __acrt_thread_detach       000000018001a8f0 f   libucrt:initialization.obj
 0001:00019900       __acrt_uninitialize        000000018001a900 f   libucrt:initialization.obj
 0001:00019938       __acrt_uninitialize_critical 000000018001a938 f   libucrt:initialization.obj
 0001:00019948       _initterm                  000000018001a948 f   libucrt:initterm.obj
 0001:000199ac       _initterm_e                000000018001a9ac f   libucrt:initterm.obj
 0001:000199ec       __acrt_initialize_new_handler 000000018001a9ec f   libucrt:new_handler.obj
 0001:000199f4       _callnewh                  000000018001a9f4 f   libucrt:new_handler.obj
 0001:00019a24       _query_new_handler         000000018001aa24 f   libucrt:new_handler.obj
 0001:00019a58       terminate                  000000018001aa58 f   libucrt:terminate.obj
 0001:00019a78       abort                      000000018001aa78 f   libucrt:abort.obj
 0001:00019ad0       strcpy_s                   000000018001aad0 f   libucrt:strcpy_s.obj
 0001:00019b30       ??$parse_integer@KV?$c_string_character_source@_W@__crt_strtox@@@__crt_strtox@@YAKQEAU__crt_locale_pointers@@V?$c_string_character_source@_W@0@H_N@Z 000000018001ab30 f i libucrt:atox.obj
 0001:0001a1f0       strncmp                    000000018001b1f0 f   libucrt:strncmp.obj
 0001:0001a270       wcsncmp                    000000018001b270 f   libucrt:wcsncmp.obj
 0001:0001a29c       _free_base                 000000018001b29c f   libucrt:free_base.obj
 0001:0001a654       __acrt_freeptd             000000018001b654 f   libucrt:per_thread_data.obj
 0001:0001a698       __acrt_getptd              000000018001b698 f   libucrt:per_thread_data.obj
 0001:0001a76c       __acrt_getptd_head         000000018001b76c f   libucrt:per_thread_data.obj
 0001:0001a814       __acrt_getptd_noexit       000000018001b814 f   libucrt:per_thread_data.obj
 0001:0001a8e0       __acrt_initialize_ptd      000000018001b8e0 f   libucrt:per_thread_data.obj
 0001:0001a91c       __acrt_uninitialize_ptd    000000018001b91c f   libucrt:per_thread_data.obj
 0001:0001a940       _calloc_base               000000018001b940 f   libucrt:calloc_base.obj
 0001:0001a9b8       _malloc_base               000000018001b9b8 f   libucrt:malloc_base.obj
 0001:0001aa18       _msize_base                000000018001ba18 f   libucrt:msize.obj
 0001:0001aa54       _realloc_base              000000018001ba54 f   libucrt:realloc_base.obj
 0001:0001aca8       __acrt_AppPolicyGetProcessTerminationMethodInternal 000000018001bca8 f   libucrt:winapi_thunks.obj
 0001:0001acf8       __acrt_AreFileApisANSI     000000018001bcf8 f   libucrt:winapi_thunks.obj
 0001:0001ad34       __acrt_FlsAlloc            000000018001bd34 f   libucrt:winapi_thunks.obj
 0001:0001ad7c       __acrt_FlsFree             000000018001bd7c f   libucrt:winapi_thunks.obj
 0001:0001adc4       __acrt_FlsGetValue         000000018001bdc4 f   libucrt:winapi_thunks.obj
 0001:0001ae0c       __acrt_FlsSetValue         000000018001be0c f   libucrt:winapi_thunks.obj
 0001:0001ae60       __acrt_InitializeCriticalSectionEx 000000018001be60 f   libucrt:winapi_thunks.obj
 0001:0001aec4       __acrt_LCMapStringEx       000000018001bec4 f   libucrt:winapi_thunks.obj
 0001:0001afa0       __acrt_LocaleNameToLCID    000000018001bfa0 f   libucrt:winapi_thunks.obj
 0001:0001aff0       __acrt_SetThreadStackGuarantee 000000018001bff0 f   libucrt:winapi_thunks.obj
 0001:0001b034       __acrt_initialize_winapi_thunks 000000018001c034 f   libucrt:winapi_thunks.obj
 0001:0001b068       __acrt_uninitialize_winapi_thunks 000000018001c068 f   libucrt:winapi_thunks.obj
 0001:0001b0ac       wcstol                     000000018001c0ac f   libucrt:strtox.obj
 0001:0001b0d8       _mbtowc_l                  000000018001c0d8 f   libucrt:mbtowc.obj
 0001:0001b258       mbtowc                     000000018001c258 f   libucrt:mbtowc.obj
 0001:0001b260       wcsnlen                    000000018001c260 f   libucrt:strnlen.obj
 0001:0001b438       __acrt_update_locale_info  000000018001c438 f   libucrt:locale_update.obj
 0001:0001b46c       __acrt_update_multibyte_info 000000018001c46c f   libucrt:locale_update.obj
 0001:0001bea4       __acrt_fp_format           000000018001cea4 f   libucrt:cvt.obj
 0001:0001c1dc       _fileno                    000000018001d1dc f   libucrt:fileno.obj
 0001:0001c204       __acrt_initialize_stdio    000000018001d204 f   libucrt:_file.obj
 0001:0001c324       __acrt_uninitialize_stdio  000000018001d324 f   libucrt:_file.obj
 0001:0001c380       _lock_file                 000000018001d380 f   libucrt:_file.obj
 0001:0001c38c       _unlock_file               000000018001d38c f   libucrt:_file.obj
 0001:0001c398       _get_printf_count_output   000000018001d398 f   libucrt:printf_count_output.obj
 0001:0001c420       __acrt_set_locale_changed  000000018001d420 f   libucrt:wsetlocale.obj
 0001:0001c42c       __acrt_uninitialize_locale 000000018001d42c f   libucrt:wsetlocale.obj
 0001:0001c658       __acrt_initialize_lowio    000000018001d658 f   libucrt:ioinit.obj
 0001:0001c694       __acrt_uninitialize_lowio  000000018001d694 f   libucrt:ioinit.obj
 0001:0001c6d4       __acrt_initialize_locks    000000018001d6d4 f   libucrt:locks.obj
 0001:0001c71c       __acrt_lock                000000018001d71c f   libucrt:locks.obj
 0001:0001c738       __acrt_uninitialize_locks  000000018001d738 f   libucrt:locks.obj
 0001:0001c770       __acrt_unlock              000000018001d770 f   libucrt:locks.obj
 0001:0001c78c       __acrt_get_process_end_policy 000000018001d78c f   libucrt:win_policies.obj
 0001:0001c7dc       ??$__acrt_mbs_to_wcs_cp@U__crt_win32_buffer_internal_dynamic_resizing@@@@YAHQEBDAEAV?$__crt_win32_buffer@_WU__crt_win32_buffer_internal_dynamic_resizing@@@@I@Z 000000018001d7dc f i libucrt:argv_wildcards.obj
 0001:0001c954       ??$__acrt_wcs_to_mbs_cp@U__crt_win32_buffer_internal_dynamic_resizing@@@@YAHQEB_WAEAV?$__crt_win32_buffer@DU__crt_win32_buffer_internal_dynamic_resizing@@@@I@Z 000000018001d954 f i libucrt:argv_wildcards.obj
 0001:0001d184       __acrt_expand_narrow_argv_wildcards 000000018001e184 f   libucrt:argv_wildcards.obj
 0001:0001d18c       ??$__acrt_wcs_to_mbs_cp@U__crt_win32_buffer_no_resizing@@@@YAHQEB_WAEAV?$__crt_win32_buffer@DU__crt_win32_buffer_no_resizing@@@@I@Z 000000018001e18c f i libucrt:getmodulefilenamea.obj
 0001:0001d2a0       __acrt_GetModuleFileNameA  000000018001e2a0 f   libucrt:getmodulefilenamea.obj
 0001:0001dae8       __acrt_initialize_multibyte 000000018001eae8 f   libucrt:mbctype.obj
 0001:0001db48       __acrt_update_thread_multibyte_data 000000018001eb48 f   libucrt:mbctype.obj
 0001:0001db64       _setmbcp_nolock            000000018001eb64 f   libucrt:mbctype.obj
 0001:0001de98       _ismbblead                 000000018001ee98 f   libucrt:ismbbyte.obj
 0001:0001deac       __acrt_initialize_command_line 000000018001eeac f   libucrt:argv_data.obj
 0001:0001ded4       __acrt_MultiByteToWideChar 000000018001eed4 f   libucrt:multibytetowidechar.obj
 0001:0001df30       __acrt_WideCharToMultiByte 000000018001ef30 f   libucrt:widechartomultibyte.obj
 0001:0001dfe0       __dcrt_get_narrow_environment_from_os 000000018001efe0 f   libucrt:get_environment_from_os.obj
 0001:0001e0e4       __acrt_initialize_heap     000000018001f0e4 f   libucrt:heap_handle.obj
 0001:0001e100       __acrt_uninitialize_heap   000000018001f100 f   libucrt:heap_handle.obj
 0001:0001e10c       __acrt_execute_initializers 000000018001f10c f   libucrt:shared_initialization.obj
 0001:0001e18c       __acrt_execute_uninitializers 000000018001f18c f   libucrt:shared_initialization.obj
 0001:0001e210       __acrt_get_sigabrt_handler 000000018001f210 f   libucrt:signal.obj
 0001:0001e240       __acrt_initialize_signal_handlers 000000018001f240 f   libucrt:signal.obj
 0001:0001e260       raise                      000000018001f260 f   libucrt:signal.obj
 0001:0001e4cc       __acrt_has_user_matherr    000000018001f4cc f   libucrt:matherr.obj
 0001:0001e4ec       __acrt_initialize_user_matherr 000000018001f4ec f   libucrt:matherr.obj
 0001:0001e4f4       __acrt_invoke_user_matherr 000000018001f4f4 f   libucrt:matherr.obj
 0001:0001e700       __acrt_stdio_flush_nolock  000000018001f700 f   libucrt:fflush.obj
 0001:0001e77c       _fflush_nolock             000000018001f77c f   libucrt:fflush.obj
 0001:0001e7c8       _flushall                  000000018001f7c8 f   libucrt:fflush.obj
 0001:0001e7d0       __pctype_func              000000018001f7d0 f   libucrt:ctype.obj
 0001:0001e800       iswctype                   000000018001f800 f   libucrt:iswctype.obj
 0001:0001e86c       __acrt_add_locale_ref      000000018001f86c f   libucrt:locale_refcounting.obj
 0001:0001e8f8       __acrt_free_locale         000000018001f8f8 f   libucrt:locale_refcounting.obj
 0001:0001ea70       __acrt_locale_add_lc_time_reference 000000018001fa70 f   libucrt:locale_refcounting.obj
 0001:0001ea98       __acrt_locale_free_lc_time_if_unreferenced 000000018001fa98 f   libucrt:locale_refcounting.obj
 0001:0001ead0       __acrt_locale_release_lc_time_reference 000000018001fad0 f   libucrt:locale_refcounting.obj
 0001:0001eaf8       __acrt_release_locale_ref  000000018001faf8 f   libucrt:locale_refcounting.obj
 0001:0001eba0       __acrt_update_thread_locale_data 000000018001fba0 f   libucrt:locale_refcounting.obj
 0001:0001ec10       _updatetlocinfoEx_nolock   000000018001fc10 f   libucrt:locale_refcounting.obj
 0001:0001ec78       _query_new_mode            000000018001fc78 f   libucrt:new_mode.obj
 0001:0001ec80       __acrt_DownlevelLocaleNameToLCID 000000018001fc80 f   libucrt:lcidtoname_downlevel.obj
 0001:0001ed30       _isleadbyte_l              000000018001fd30 f i libucrt:_wctype.obj
 0001:0001ed7c       ?__mbrtowc_utf8@__crt_mbstring@@YA_KPEA_WPEBD_KPEAU_Mbstatet@@@Z 000000018001fd7c f   libucrt:mbrtowc.obj
 0001:0001edb8       ?__mbsrtowcs_utf8@__crt_mbstring@@YA_KPEA_WPEAPEBD_KPEAU_Mbstatet@@@Z 000000018001fdb8 f   libucrt:mbrtowc.obj
 0001:0001ef30       __acrt_fp_strflt_to_string 000000018001ff30 f   libucrt:_fptostr.obj
 0001:0001f080       ?divide@__crt_strtox@@YA_KAEAUbig_integer@1@AEBU21@@Z 0000000180020080 f i libucrt:cfout.obj
 0001:0001f4ac       __acrt_fltout              00000001800204ac f   libucrt:cfout.obj
 0001:00020778       fegetround                 0000000180021778 f   libucrt:fegetround.obj
 0001:0002078c       _fcloseall                 000000018002178c f   libucrt:closeall.obj
 0001:00020840       __acrt_stdio_free_buffer_nolock 0000000180021840 f   libucrt:_freebuf.obj
 0001:00020880       _isatty                    0000000180021880 f   libucrt:isatty.obj
 0001:000208e0       __acrt_locale_free_monetary 00000001800218e0 f   libucrt:initmon.obj
 0001:000209ec       __acrt_locale_free_numeric 00000001800219ec f   libucrt:initnum.obj
 0001:00020ab0       __acrt_locale_free_time    0000000180021ab0 f   libucrt:inittime.obj
 0001:00020bb8       __acrt_GetStringTypeA      0000000180021bb8 f   libucrt:getstringtypea.obj
 0001:00020d48       __acrt_lowio_create_handle_array 0000000180021d48 f   libucrt:osfinfo.obj
 0001:00020df0       __acrt_lowio_destroy_handle_array 0000000180021df0 f   libucrt:osfinfo.obj
 0001:00020e40       __acrt_lowio_ensure_fh_exists 0000000180021e40 f   libucrt:osfinfo.obj
 0001:00020ee8       __acrt_lowio_lock_fh       0000000180021ee8 f   libucrt:osfinfo.obj
 0001:00020f10       __acrt_lowio_unlock_fh     0000000180021f10 f   libucrt:osfinfo.obj
 0001:00020f38       _free_osfhnd               0000000180021f38 f   libucrt:osfinfo.obj
 0001:00020ff4       _get_osfhandle             0000000180021ff4 f   libucrt:osfinfo.obj
 0001:00021070       qsort                      0000000180022070 f   libucrt:qsort.obj
 0001:00021410       strncpy_s                  0000000180022410 f   libucrt:strncpy_s.obj
 0001:00021590       strpbrk                    0000000180022590 f   libucrt:strpbrk.obj
 0001:00021958       _mbsdec                    0000000180022958 f   libucrt:mbsdec.obj
 0001:00021960       _mbsdec_l                  0000000180022960 f   libucrt:mbsdec.obj
 0001:00021d0c       __acrt_LCMapStringA        0000000180022d0c f   libucrt:lcmapstringa.obj
 0001:00021e48       _commit                    0000000180022e48 f   libucrt:commit.obj
 0001:00022758       _write                     0000000180023758 f   libucrt:write.obj
 0001:00022844       _write_nolock              0000000180023844 f   libucrt:write.obj
 0001:00022b28       __acrt_GetStringTypeW      0000000180023b28 f   libucrt:getstringtypew.obj
 0001:00022b30       __ascii_wcsnicmp           0000000180023b30 f   libucrt:wcsnicmp.obj
 0001:00022b7c       ?__mbrtoc32_utf8@__crt_mbstring@@YA_KPEA_UPEBD_KPEAU_Mbstatet@@@Z 0000000180023b7c f   libucrt:mbrtoc32.obj
 0001:00022d54       _controlfp_s               0000000180023d54 f   libucrt:contrlfp.obj
 0001:00022db8       fegetenv                   0000000180023db8 f   libucrt:fegetenv.obj
 0001:00022dd8       fesetenv                   0000000180023dd8 f   libucrt:fesetenv.obj
 0001:00022e24       feholdexcept               0000000180023e24 f   libucrt:feholdexcept.obj
 0001:00022e74       ceil                       0000000180023e74 f   libucrt:ceil.obj
 0001:00022f40       log10                      0000000180023f40 f   libucrt:log10.obj
 0001:000234ec       __acrt_fenv_get_common_round_control 00000001800244ec f   libucrt:_fenvutils.obj
 0001:000234f8       __acrt_fenv_get_control    00000001800244f8 f   libucrt:_fenvutils.obj
 0001:000235ec       __acrt_fenv_get_status     00000001800245ec f   libucrt:_fenvutils.obj
 0001:00023640       __acrt_fenv_set_control    0000000180024640 f   libucrt:_fenvutils.obj
 0001:00023788       __acrt_fenv_set_status     0000000180024788 f   libucrt:_fenvutils.obj
 0001:000238a8       _lseeki64_nolock           00000001800248a8 f   libucrt:lseek.obj
 0001:000238b0       _fclose_nolock             00000001800248b0 f   libucrt:fclose.obj
 0001:00023934       fclose                     0000000180024934 f   libucrt:fclose.obj
 0001:00023998       _query_app_type            0000000180024998 f   libucrt:report_runtime_error.obj
 0001:000239a0       __strncnt                  00000001800249a0 f   libucrt:strncnt.obj
 0001:000239b8       _putwch_nolock             00000001800249b8 f   libucrt:putwch.obj
 0001:000239f4       _clearfp                   00000001800249f4 f   libucrt:ieee.obj
 0001:00023a64       _control87                 0000000180024a64 f   libucrt:ieee.obj
 0001:00023e50       _handle_error              0000000180024e50 f   libucrt:libm_error.obj
 0001:00023f78       _handle_nan                0000000180024f78 f   libucrt:libm_error.obj
 0001:00023fa0       __acrt_initialize_fma3     0000000180024fa0 f   libucrt:fma3_available.obj
 0001:00024010       _log10_special             0000000180025010 f   libucrt:log_special.obj
 0001:0002413c       _close                     000000018002513c f   libucrt:close.obj
 0001:000241e0       _close_nolock              00000001800251e0 f   libucrt:close.obj
 0001:000242a0       ?__acrt_stdio_free_stream@@YAXV__crt_stdio_stream@@@Z 00000001800252a0 f   libucrt:stream.obj
 0001:000242bc       __dcrt_lowio_ensure_console_output_initialized 00000001800252bc f   libucrt:initcon.obj
 0001:00024310       __dcrt_terminate_console_output 0000000180025310 f   libucrt:initcon.obj
 0001:0002432c       __dcrt_write_console       000000018002532c f   libucrt:initcon.obj
 0001:00024400       _get_fpsr                  0000000180025400 f   libucrt:fpsr.obj
 0001:00024410       _set_fpsr                  0000000180025410 f   libucrt:fpsr.obj
 0001:0002441a       _fclrf                     000000018002541a f   libucrt:fpsr.obj
 0001:0002442e       _frnd                      000000018002542e f   libucrt:fpsr.obj
 0001:00024450       _raise_exc                 0000000180025450 f   libucrt:fpexcept.obj
 0001:00024478       _raise_exc_ex              0000000180025478 f   libucrt:fpexcept.obj
 0001:00024788       _set_errno_from_matherr    0000000180025788 f   libucrt:fpexcept.obj
 0001:000247b8       _clrfp                     00000001800257b8 f   libucrt:fpctrl.obj
 0001:000247d8       _ctrlfp                    00000001800257d8 f   libucrt:fpctrl.obj
 0001:00024854       _set_statfp                0000000180025854 f   libucrt:fpctrl.obj
 0001:00024874       _statfp                    0000000180025874 f   libucrt:fpctrl.obj
 0001:00024885       IsProcessorFeaturePresent  0000000180025885 f   kernel32:KERNEL32.dll
 0001:00024890       _FindPESection             0000000180025890 f   LIBCMT:pesect.obj
 0001:000248e0       _IsNonwritableInCurrentImage 00000001800258e0 f   LIBCMT:pesect.obj
 0001:00024930       _ValidateImageBase         0000000180025930 f   LIBCMT:pesect.obj
 0001:00024960       strrchr                    0000000180025960 f   libvcruntime:strrchr.obj
 0001:00024aa0       _guard_dispatch_icall_nop  0000000180025aa0 f   LIBCMT:guard_dispatch.obj
 0001:00024ac0       _guard_xfg_dispatch_icall_nop 0000000180025ac0 f   LIBCMT:guard_xfg_dispatch.obj
 0002:00000000       __imp_RegQueryValueExW     0000000180026000     advapi32:ADVAPI32.dll
 0002:00000008       __imp_RegSetValueExW       0000000180026008     advapi32:ADVAPI32.dll
 0002:00000010       __imp_RegQueryInfoKeyW     0000000180026010     advapi32:ADVAPI32.dll
 0002:00000018       __imp_RegOpenKeyExW        0000000180026018     advapi32:ADVAPI32.dll
 0002:00000020       __imp_RegEnumKeyExW        0000000180026020     advapi32:ADVAPI32.dll
 0002:00000028       __imp_RegDeleteValueW      0000000180026028     advapi32:ADVAPI32.dll
 0002:00000030       __imp_RegDeleteKeyW        0000000180026030     advapi32:ADVAPI32.dll
 0002:00000038       __imp_RegCreateKeyExW      0000000180026038     advapi32:ADVAPI32.dll
 0002:00000040       __imp_RegCloseKey          0000000180026040     advapi32:ADVAPI32.dll
 0002:00000048       \177ADVAPI32_NULL_THUNK_DATA 0000000180026048     advapi32:ADVAPI32.dll
 0002:00000050       __imp_GetObjectW           0000000180026050     gdi32:GDI32.dll
 0002:00000058       __imp_SelectObject         0000000180026058     gdi32:GDI32.dll
 0002:00000060       __imp_DeleteObject         0000000180026060     gdi32:GDI32.dll
 0002:00000068       __imp_CreateCompatibleDC   0000000180026068     gdi32:GDI32.dll
 0002:00000070       __imp_BitBlt               0000000180026070     gdi32:GDI32.dll
 0002:00000078       __imp_SetWindowOrgEx       0000000180026078     gdi32:GDI32.dll
 0002:00000080       __imp_SetWindowExtEx       0000000180026080     gdi32:GDI32.dll
 0002:00000088       __imp_SetViewportOrgEx     0000000180026088     gdi32:GDI32.dll
 0002:00000090       __imp_LPtoDP               0000000180026090     gdi32:GDI32.dll
 0002:00000098       __imp_SetMapMode           0000000180026098     gdi32:GDI32.dll
 0002:000000a0       __imp_SaveDC               00000001800260a0     gdi32:GDI32.dll
 0002:000000a8       __imp_RestoreDC            00000001800260a8     gdi32:GDI32.dll
 0002:000000b0       __imp_GetDeviceCaps        00000001800260b0     gdi32:GDI32.dll
 0002:000000b8       __imp_DeleteMetaFile       00000001800260b8     gdi32:GDI32.dll
 0002:000000c0       __imp_DeleteDC             00000001800260c0     gdi32:GDI32.dll
 0002:000000c8       __imp_CreateRectRgnIndirect 00000001800260c8     gdi32:GDI32.dll
 0002:000000d0       __imp_CreateMetaFileW      00000001800260d0     gdi32:GDI32.dll
 0002:000000d8       __imp_CreateDCW            00000001800260d8     gdi32:GDI32.dll
 0002:000000e0       __imp_CloseMetaFile        00000001800260e0     gdi32:GDI32.dll
 0002:000000e8       \177GDI32_NULL_THUNK_DATA  00000001800260e8     gdi32:GDI32.dll
 0002:000000f0       __imp_CloseHandle          00000001800260f0     kernel32:KERNEL32.dll
 0002:000000f8       __imp_SetEvent             00000001800260f8     kernel32:KERNEL32.dll
 0002:00000100       __imp_CreateMutexW         0000000180026100     kernel32:KERNEL32.dll
 0002:00000108       __imp_CreateEventW         0000000180026108     kernel32:KERNEL32.dll
 0002:00000110       __imp_GetCurrentProcessId  0000000180026110     kernel32:KERNEL32.dll
 0002:00000118       __imp_WriteConsoleW        0000000180026118     kernel32:KERNEL32.dll
 0002:00000120       __imp_CreateFileW          0000000180026120     kernel32:KERNEL32.dll
 0002:00000128       __imp_GetConsoleMode       0000000180026128     kernel32:KERNEL32.dll
 0002:00000130       __imp_GetConsoleOutputCP   0000000180026130     kernel32:KERNEL32.dll
 0002:00000138       __imp_WriteFile            0000000180026138     kernel32:KERNEL32.dll
 0002:00000140       __imp_FlushFileBuffers     0000000180026140     kernel32:KERNEL32.dll
 0002:00000148       __imp_SetStdHandle         0000000180026148     kernel32:KERNEL32.dll
 0002:00000150       __imp_GetStringTypeW       0000000180026150     kernel32:KERNEL32.dll
 0002:00000158       __imp_SetFilePointerEx     0000000180026158     kernel32:KERNEL32.dll
 0002:00000160       __imp_FreeEnvironmentStringsW 0000000180026160     kernel32:KERNEL32.dll
 0002:00000168       __imp_lstrcmpiW            0000000180026168     kernel32:KERNEL32.dll
 0002:00000170       __imp_GetCommandLineW      0000000180026170     kernel32:KERNEL32.dll
 0002:00000178       __imp_GetCommandLineA      0000000180026178     kernel32:KERNEL32.dll
 0002:00000180       __imp_GetCPInfo            0000000180026180     kernel32:KERNEL32.dll
 0002:00000188       __imp_GetOEMCP             0000000180026188     kernel32:KERNEL32.dll
 0002:00000190       __imp_GetACP               0000000180026190     kernel32:KERNEL32.dll
 0002:00000198       __imp_IsValidCodePage      0000000180026198     kernel32:KERNEL32.dll
 0002:000001a0       __imp_FindNextFileW        00000001800261a0     kernel32:KERNEL32.dll
 0002:000001a8       __imp_FindFirstFileExW     00000001800261a8     kernel32:KERNEL32.dll
 0002:000001b0       __imp_FindClose            00000001800261b0     kernel32:KERNEL32.dll
 0002:000001b8       __imp_GetFileType          00000001800261b8     kernel32:KERNEL32.dll
 0002:000001c0       __imp_GetStdHandle         00000001800261c0     kernel32:KERNEL32.dll
 0002:000001c8       __imp_LCMapStringW         00000001800261c8     kernel32:KERNEL32.dll
 0002:000001d0       __imp_HeapReAlloc          00000001800261d0     kernel32:KERNEL32.dll
 0002:000001d8       __imp_HeapSize             00000001800261d8     kernel32:KERNEL32.dll
 0002:000001e0       __imp_MulDiv               00000001800261e0     kernel32:KERNEL32.dll
 0002:000001e8       __imp_GlobalLock           00000001800261e8     kernel32:KERNEL32.dll
 0002:000001f0       __imp_GlobalUnlock         00000001800261f0     kernel32:KERNEL32.dll
 0002:000001f8       __imp_GlobalAlloc          00000001800261f8     kernel32:KERNEL32.dll
 0002:00000200       __imp_FindResourceW        0000000180026200     kernel32:KERNEL32.dll
 0002:00000208       __imp_SizeofResource       0000000180026208     kernel32:KERNEL32.dll
 0002:00000210       __imp_LoadResource         0000000180026210     kernel32:KERNEL32.dll
 0002:00000218       __imp_LoadLibraryExW       0000000180026218     kernel32:KERNEL32.dll
 0002:00000220       __imp_GetProcAddress       0000000180026220     kernel32:KERNEL32.dll
 0002:00000228       __imp_GetModuleHandleW     0000000180026228     kernel32:KERNEL32.dll
 0002:00000230       __imp_GetModuleFileNameW   0000000180026230     kernel32:KERNEL32.dll
 0002:00000238       __imp_FreeLibrary          0000000180026238     kernel32:KERNEL32.dll
 0002:00000240       __imp_DisableThreadLibraryCalls 0000000180026240     kernel32:KERNEL32.dll
 0002:00000248       __imp_GetCurrentThreadId   0000000180026248     kernel32:KERNEL32.dll
 0002:00000250       __imp_Sleep                0000000180026250     kernel32:KERNEL32.dll
 0002:00000258       __imp_WaitForSingleObject  0000000180026258     kernel32:KERNEL32.dll
 0002:00000260       __imp_ReleaseMutex         0000000180026260     kernel32:KERNEL32.dll
 0002:00000268       __imp_ResetEvent           0000000180026268     kernel32:KERNEL32.dll
 0002:00000270       __imp_EnterCriticalSection 0000000180026270     kernel32:KERNEL32.dll
 0002:00000278       __imp_LeaveCriticalSection 0000000180026278     kernel32:KERNEL32.dll
 0002:00000280       __imp_SetLastError         0000000180026280     kernel32:KERNEL32.dll
 0002:00000288       __imp_EncodePointer        0000000180026288     kernel32:KERNEL32.dll
 0002:00000290       __imp_DeleteCriticalSection 0000000180026290     kernel32:KERNEL32.dll
 0002:00000298       __imp_InitializeCriticalSectionEx 0000000180026298     kernel32:KERNEL32.dll
 0002:000002a0       __imp_GetLastError         00000001800262a0     kernel32:KERNEL32.dll
 0002:000002a8       __imp_RaiseException       00000001800262a8     kernel32:KERNEL32.dll
 0002:000002b0       __imp_DecodePointer        00000001800262b0     kernel32:KERNEL32.dll
 0002:000002b8       __imp_WideCharToMultiByte  00000001800262b8     kernel32:KERNEL32.dll
 0002:000002c0       __imp_GetEnvironmentStringsW 00000001800262c0     kernel32:KERNEL32.dll
 0002:000002c8       __imp_MultiByteToWideChar  00000001800262c8     kernel32:KERNEL32.dll
 0002:000002d0       __imp_GetModuleHandleExW   00000001800262d0     kernel32:KERNEL32.dll
 0002:000002d8       __imp_ExitProcess          00000001800262d8     kernel32:KERNEL32.dll
 0002:000002e0       __imp_VirtualQuery         00000001800262e0     kernel32:KERNEL32.dll
 0002:000002e8       __imp_VirtualProtect       00000001800262e8     kernel32:KERNEL32.dll
 0002:000002f0       __imp_GetSystemInfo        00000001800262f0     kernel32:KERNEL32.dll
 0002:000002f8       __imp_TlsFree              00000001800262f8     kernel32:KERNEL32.dll
 0002:00000300       __imp_TlsSetValue          0000000180026300     kernel32:KERNEL32.dll
 0002:00000308       __imp_TlsGetValue          0000000180026308     kernel32:KERNEL32.dll
 0002:00000310       __imp_TlsAlloc             0000000180026310     kernel32:KERNEL32.dll
 0002:00000318       __imp_RtlPcToFileHeader    0000000180026318     kernel32:KERNEL32.dll
 0002:00000320       __imp_InterlockedFlushSList 0000000180026320     kernel32:KERNEL32.dll
 0002:00000328       __imp_RtlUnwindEx          0000000180026328     kernel32:KERNEL32.dll
 0002:00000330       __imp_LoadLibraryExA       0000000180026330     kernel32:KERNEL32.dll
 0002:00000338       __imp_VirtualFree          0000000180026338     kernel32:KERNEL32.dll
 0002:00000340       __imp_VirtualAlloc         0000000180026340     kernel32:KERNEL32.dll
 0002:00000348       __imp_FlushInstructionCache 0000000180026348     kernel32:KERNEL32.dll
 0002:00000350       __imp_InterlockedPushEntrySList 0000000180026350     kernel32:KERNEL32.dll
 0002:00000358       __imp_InterlockedPopEntrySList 0000000180026358     kernel32:KERNEL32.dll
 0002:00000360       __imp_GetProcessHeap       0000000180026360     kernel32:KERNEL32.dll
 0002:00000368       __imp_HeapFree             0000000180026368     kernel32:KERNEL32.dll
 0002:00000370       __imp_HeapAlloc            0000000180026370     kernel32:KERNEL32.dll
 0002:00000378       __imp_OutputDebugStringW   0000000180026378     kernel32:KERNEL32.dll
 0002:00000380       __imp_InitializeSListHead  0000000180026380     kernel32:KERNEL32.dll
 0002:00000388       __imp_GetSystemTimeAsFileTime 0000000180026388     kernel32:KERNEL32.dll
 0002:00000390       __imp_QueryPerformanceCounter 0000000180026390     kernel32:KERNEL32.dll
 0002:00000398       __imp_GetStartupInfoW      0000000180026398     kernel32:KERNEL32.dll
 0002:000003a0       __imp_IsDebuggerPresent    00000001800263a0     kernel32:KERNEL32.dll
 0002:000003a8       __imp_IsProcessorFeaturePresent 00000001800263a8     kernel32:KERNEL32.dll
 0002:000003b0       __imp_TerminateProcess     00000001800263b0     kernel32:KERNEL32.dll
 0002:000003b8       __imp_GetCurrentProcess    00000001800263b8     kernel32:KERNEL32.dll
 0002:000003c0       __imp_InitializeCriticalSectionAndSpinCount 00000001800263c0     kernel32:KERNEL32.dll
 0002:000003c8       __imp_WaitForSingleObjectEx 00000001800263c8     kernel32:KERNEL32.dll
 0002:000003d0       __imp_RtlCaptureContext    00000001800263d0     kernel32:KERNEL32.dll
 0002:000003d8       __imp_RtlLookupFunctionEntry 00000001800263d8     kernel32:KERNEL32.dll
 0002:000003e0       __imp_RtlVirtualUnwind     00000001800263e0     kernel32:KERNEL32.dll
 0002:000003e8       __imp_UnhandledExceptionFilter 00000001800263e8     kernel32:KERNEL32.dll
 0002:000003f0       __imp_SetUnhandledExceptionFilter 00000001800263f0     kernel32:KERNEL32.dll
 0002:000003f8       \177KERNEL32_NULL_THUNK_DATA 00000001800263f8     kernel32:KERNEL32.dll
 0002:00000400       __imp_OleCreatePropertyFrame 0000000180026400     oleaut32:OLEAUT32.dll
 0002:00000408       __imp_UnRegisterTypeLib    0000000180026408     oleaut32:OLEAUT32.dll
 0002:00000410       __imp_RegisterTypeLib      0000000180026410     oleaut32:OLEAUT32.dll
 0002:00000418       __imp_LoadRegTypeLib       0000000180026418     oleaut32:OLEAUT32.dll
 0002:00000420       __imp_LoadTypeLib          0000000180026420     oleaut32:OLEAUT32.dll
 0002:00000428       __imp_VarUI4FromStr        0000000180026428     oleaut32:OLEAUT32.dll
 0002:00000430       __imp_VariantInit          0000000180026430     oleaut32:OLEAUT32.dll
 0002:00000438       __imp_SysAllocStringByteLen 0000000180026438     oleaut32:OLEAUT32.dll
 0002:00000440       __imp_SysStringByteLen     0000000180026440     oleaut32:OLEAUT32.dll
 0002:00000448       __imp_VariantChangeType    0000000180026448     oleaut32:OLEAUT32.dll
 0002:00000450       __imp_VariantClear         0000000180026450     oleaut32:OLEAUT32.dll
 0002:00000458       __imp_SysStringLen         0000000180026458     oleaut32:OLEAUT32.dll
 0002:00000460       __imp_SysFreeString        0000000180026460     oleaut32:OLEAUT32.dll
 0002:00000468       __imp_SysAllocStringLen    0000000180026468     oleaut32:OLEAUT32.dll
 0002:00000470       __imp_SysAllocString       0000000180026470     oleaut32:OLEAUT32.dll
 0002:00000478       \177OLEAUT32_NULL_THUNK_DATA 0000000180026478     oleaut32:OLEAUT32.dll
 0002:00000480       __imp_UnregisterClassW     0000000180026480     user32:USER32.dll
 0002:00000488       __imp_PostMessageW         0000000180026488     user32:USER32.dll
 0002:00000490       __imp_DefWindowProcW       0000000180026490     user32:USER32.dll
 0002:00000498       __imp_CallWindowProcW      0000000180026498     user32:USER32.dll
 0002:000004a0       __imp_RegisterClassExW     00000001800264a0     user32:USER32.dll
 0002:000004a8       __imp_GetClassInfoExW      00000001800264a8     user32:USER32.dll
 0002:000004b0       __imp_CreateWindowExW      00000001800264b0     user32:USER32.dll
 0002:000004b8       __imp_IsWindow             00000001800264b8     user32:USER32.dll
 0002:000004c0       __imp_IsChild              00000001800264c0     user32:USER32.dll
 0002:000004c8       __imp_DestroyWindow        00000001800264c8     user32:USER32.dll
 0002:000004d0       __imp_ShowWindow           00000001800264d0     user32:USER32.dll
 0002:000004d8       __imp_SetWindowPos         00000001800264d8     user32:USER32.dll
 0002:000004e0       __imp_CharNextW            00000001800264e0     user32:USER32.dll
 0002:000004e8       __imp_SetFocus             00000001800264e8     user32:USER32.dll
 0002:000004f0       __imp_LoadBitmapW          00000001800264f0     user32:USER32.dll
 0002:000004f8       __imp_RegisterClassW       00000001800264f8     user32:USER32.dll
 0002:00000500       __imp_PeekMessageW         0000000180026500     user32:USER32.dll
 0002:00000508       __imp_LoadCursorW          0000000180026508     user32:USER32.dll
 0002:00000510       __imp_GetParent            0000000180026510     user32:USER32.dll
 0002:00000518       __imp_SetWindowLongPtrW    0000000180026518     user32:USER32.dll
 0002:00000520       __imp_GetWindowLongPtrW    0000000180026520     user32:USER32.dll
 0002:00000528       __imp_PtInRect             0000000180026528     user32:USER32.dll
 0002:00000530       __imp_EqualRect            0000000180026530     user32:USER32.dll
 0002:00000538       __imp_OffsetRect           0000000180026538     user32:USER32.dll
 0002:00000540       __imp_UnionRect            0000000180026540     user32:USER32.dll
 0002:00000548       __imp_IntersectRect        0000000180026548     user32:USER32.dll
 0002:00000550       __imp_GetClientRect        0000000180026550     user32:USER32.dll
 0002:00000558       __imp_InvalidateRect       0000000180026558     user32:USER32.dll
 0002:00000560       __imp_SetWindowRgn         0000000180026560     user32:USER32.dll
 0002:00000568       __imp_EndPaint             0000000180026568     user32:USER32.dll
 0002:00000570       __imp_BeginPaint           0000000180026570     user32:USER32.dll
 0002:00000578       __imp_ReleaseDC            0000000180026578     user32:USER32.dll
 0002:00000580       __imp_GetDC                0000000180026580     user32:USER32.dll
 0002:00000588       __imp_GetKeyState          0000000180026588     user32:USER32.dll
 0002:00000590       __imp_GetFocus             0000000180026590     user32:USER32.dll
 0002:00000598       \177USER32_NULL_THUNK_DATA 0000000180026598     user32:USER32.dll
 0002:000005a0       __imp_CoCreateInstance     00000001800265a0     ole32:ole32.dll
 0002:000005a8       __imp_StringFromGUID2      00000001800265a8     ole32:ole32.dll
 0002:000005b0       __imp_CoTaskMemAlloc       00000001800265b0     ole32:ole32.dll
 0002:000005b8       __imp_CoTaskMemFree        00000001800265b8     ole32:ole32.dll
 0002:000005c0       __imp_ReadClassStm         00000001800265c0     ole32:ole32.dll
 0002:000005c8       __imp_WriteClassStm        00000001800265c8     ole32:ole32.dll
 0002:000005d0       __imp_CreateDataAdviseHolder 00000001800265d0     ole32:ole32.dll
 0002:000005d8       __imp_OleSaveToStream      00000001800265d8     ole32:ole32.dll
 0002:000005e0       __imp_CreateOleAdviseHolder 00000001800265e0     ole32:ole32.dll
 0002:000005e8       __imp_OleRegGetUserType    00000001800265e8     ole32:ole32.dll
 0002:000005f0       __imp_OleRegGetMiscStatus  00000001800265f0     ole32:ole32.dll
 0002:000005f8       __imp_OleRegEnumVerbs      00000001800265f8     ole32:ole32.dll
 0002:00000600       __imp_CLSIDFromProgID      0000000180026600     ole32:ole32.dll
 0002:00000608       __imp_CoTaskMemRealloc     0000000180026608     ole32:ole32.dll
 0002:00000610       \177ole32_NULL_THUNK_DATA  0000000180026610     ole32:ole32.dll
 0002:00000618       __guard_check_icall_fptr   0000000180026618     LIBCMT:guard_support.obj
 0002:00000620       __guard_xfg_check_icall_fptr 0000000180026620     LIBCMT:guard_support.obj
 0002:00000628       __guard_dispatch_icall_fptr 0000000180026628     LIBCMT:guard_support.obj
 0002:00000630       __guard_xfg_dispatch_icall_fptr 0000000180026630     LIBCMT:guard_support.obj
 0002:00000638       __guard_xfg_table_dispatch_icall_fptr 0000000180026638     LIBCMT:guard_support.obj
 0002:00000640       __xc_a                     0000000180026640     LIBCMT:initializers.obj
 0002:00000670       __xc_z                     0000000180026670     LIBCMT:initializers.obj
 0002:00000678       __xi_a                     0000000180026678     LIBCMT:initializers.obj
 0002:00000688       __acrt_stdio_initializer   0000000180026688     libucrt:stdio_initializer.obj
 0002:00000690       __acrt_multibyte_initializer 0000000180026690     libucrt:multibyte_initializer.obj
 0002:00000698       __acrt_tran_fma3_initializer 0000000180026698     libucrt:fma3_initializer.obj
 0002:000006a0       __xi_z                     00000001800266a0     LIBCMT:initializers.obj
 0002:000006a8       __xl_a                     00000001800266a8     LIBCMT:tlssup.obj
 0002:000006b0       __xl_z                     00000001800266b0     LIBCMT:tlssup.obj
 0002:000006b8       __xp_a                     00000001800266b8     LIBCMT:initializers.obj
 0002:000006c0       __acrt_locale_terminator   00000001800266c0     libucrt:locale_initializer.obj
 0002:000006c8       __dcrt_console_output_terminator 00000001800266c8     libucrt:console_output_initializer.obj
 0002:000006d0       __acrt_stdio_terminator    00000001800266d0     libucrt:stdio_initializer.obj
 0002:000006d8       __xp_z                     00000001800266d8     LIBCMT:initializers.obj
 0002:000006e0       __xt_a                     00000001800266e0     LIBCMT:initializers.obj
 0002:000006e8       __xt_z                     00000001800266e8     LIBCMT:initializers.obj
 0002:000006f0       ??_C@_13HADIAKP@?$AAS@     00000001800266f0     OposVariant.obj
 0002:000006f4       ??_C@_13LHMFKAAD@?$AAM@    00000001800266f4     OposVariant.obj
 0002:000006f8       ??_C@_13MKMNOPIJ@?$AAD@    00000001800266f8     OposVariant.obj
 0002:000006fc       ??_C@_13OPKGLAFF@?$AAB@    00000001800266fc     OposVariant.obj
 0002:00000700       ??_C@_17LLMMEOJD@?$AAV?$AAa?$AAl@ 0000000180026700     OposVariant.obj
 0002:00000708       ??_C@_1BI@JFAIJMHL@?$AAF?$AAo?$AAr?$AAc?$AAe?$AAR?$AAe?$AAm?$AAo?$AAv?$AAe@ 0000000180026708     OposVariant.obj
 0002:00000720       ??_C@_1BC@GCKHIPE@?$AAN?$AAo?$AAR?$AAe?$AAm?$AAo?$AAv?$AAe@ 0000000180026720     OposVariant.obj
 0002:00000738       ??_C@_1O@JDLOHAN@?$AAD?$AAe?$AAl?$AAe?$AAt?$AAe@ 0000000180026738     OposVariant.obj
 0002:00000748       ??_C@_11LOCGONAA@@         0000000180026748     OposVariant.obj
 0002:00000750       IID_IOPOSFiscalPrinter_1_6 0000000180026750     FiscalPrinter.obj
 0002:00000760       ??_7?$CComObject@V?$CComEnum@UIEnumConnections@@$1?_GUID_b196b287_bab4_101a_b69c_00aa00341d07@@3U__s_GUID@@BUtagCONNECTDATA@@V?$_Copy@UtagCONNECTDATA@@@ATL@@VCComSingleThreadModel@6@@ATL@@@ATL@@6B@ 0000000180026760     FiscalPrinter.obj
 0002:000007a0       _GUID_00000114_0000_0000_c000_000000000046 00000001800267a0     FiscalPrinter.obj
 0002:000007b0       ?_entries@?1??_GetEntries@?$CComEnum@UIEnumConnections@@$1?_GUID_b196b287_bab4_101a_b69c_00aa00341d07@@3U__s_GUID@@BUtagCONNECTDATA@@V?$_Copy@UtagCONNECTDATA@@@ATL@@VCComSingleThreadModel@6@@ATL@@SAPEBU_ATL_INTMAP_ENTRY@3@XZ@4QBU43@B 00000001800267b0     FiscalPrinter.obj
 0002:000007e0       ??_C@_1BK@BIGILECK@?$AAA?$AAd?$AAv?$AAa?$AAp?$AAi?$AA3?$AA2?$AA?4?$AAd?$AAl?$AAl@ 00000001800267e0     FiscalPrinter.obj
 0002:00000800       ??_C@_0BI@MNCFCPFK@RegCreateKeyTransactedW@ 0000000180026800     FiscalPrinter.obj
 0002:00000818       _GUID_b196b287_bab4_101a_b69c_00aa00341d07 0000000180026818     FiscalPrinter.obj
 0002:00000828       _GUID_b196b285_bab4_101a_b69c_00aa00341d07 0000000180026828     FiscalPrinter.obj
 0002:00000838       IID_IOPOSFiscalPrinter_1_8 0000000180026838     FiscalPrinter.obj
 0002:00000848       IID_IOPOSFiscalPrinter_1_9 0000000180026848     FiscalPrinter.obj
 0002:00000858       _GUID_a6bc3ac0_dbaa_11ce_9de3_00aa004bb851 0000000180026858     FiscalPrinter.obj
 0002:00000868       IID_IOPOSFiscalPrinter_1_11 0000000180026868     FiscalPrinter.obj
 0002:00000878       IID_IOPOSFiscalPrinter_1_12 0000000180026878     FiscalPrinter.obj
 0002:00000888       _GUID_0000010c_0000_0000_c000_000000000046 0000000180026888     FiscalPrinter.obj
 0002:00000898       IID_IOPOSFiscalPrinter     0000000180026898     FiscalPrinter.obj
 0002:000008a8       LIBID_OposFiscalPrinter_CCO 00000001800268a8     FiscalPrinter.obj
 0002:000008b8       DIID__IOPOSFiscalPrinterEvents 00000001800268b8     FiscalPrinter.obj
 0002:000008c8       CLSID_OPOSFiscalPrinter    00000001800268c8     FiscalPrinter.obj
 0002:000008d8       _GUID_00000146_0000_0000_c000_000000000046 00000001800268d8     FiscalPrinter.obj
 0002:000008e8       _GUID_922eada0_3424_11cf_b670_00aa004cd6d8 00000001800268e8     FiscalPrinter.obj
 0002:000008f8       _GUID_9c2cad80_3424_11cf_b670_00aa004cd6d8 00000001800268f8     FiscalPrinter.obj
 0002:00000908       _GUID_00000119_0000_0000_c000_000000000046 0000000180026908     FiscalPrinter.obj
 0002:00000918       _GUID_b196b289_bab4_101a_b69c_00aa00341d07 0000000180026918     FiscalPrinter.obj
 0002:00000928       ??_7CComModule@ATL@@6B@    0000000180026928     FiscalPrinter.obj
 0002:00000978       _GUID_00000117_0000_0000_c000_000000000046 0000000180026978     FiscalPrinter.obj
 0002:00000988       _GUID_00000000_0000_0000_c000_000000000046 0000000180026988     FiscalPrinter.obj
 0002:00000998       _GUID_00020400_0000_0000_c000_000000000046 0000000180026998     FiscalPrinter.obj
 0002:000009a8       ??_C@_1M@KANJNLFF@?$AAC?$AAL?$AAS?$AAI?$AAD@ 00000001800269a8     FiscalPrinter.obj
 0002:000009b8       _GUID_0000010e_0000_0000_c000_000000000046 00000001800269b8     FiscalPrinter.obj
 0002:000009c8       _GUID_b196b288_bab4_101a_b69c_00aa00341d07 00000001800269c8     FiscalPrinter.obj
 0002:000009d8       ??_C@_1M@EJNEECMJ@?$AAA?$AAp?$AAp?$AAI?$AAD@ 00000001800269d8     FiscalPrinter.obj
 0002:000009f0       ?rgszNeverDelete@CRegParser@ATL@@1QBQEB_WB 00000001800269f0     FiscalPrinter.obj
 0002:00000a50       _GUID_00000113_0000_0000_c000_000000000046 0000000180026a50     FiscalPrinter.obj
 0002:00000a60       ?_entries@?1??_GetEntries@COPOSFiscalPrinter@@SAPEBU_ATL_INTMAP_ENTRY@ATL@@XZ@4QBU34@B 0000000180026a60     FiscalPrinter.obj
 0002:00000d00       ??_7CRegObject@ATL@@6B@    0000000180026d00     FiscalPrinter.obj
 0002:00000d30       _GUID_1c2056cc_5ef4_101b_8bc8_00aa003e3b29 0000000180026d30     FiscalPrinter.obj
 0002:00000d40       _GUID_cf51ed10_62fe_11cf_bf86_00a0c9034836 0000000180026d40     FiscalPrinter.obj
 0002:00000d50       _GUID_0000010a_0000_0000_c000_000000000046 0000000180026d50     FiscalPrinter.obj
 0002:00000d60       _GUID_b196b283_bab4_101a_b69c_00aa00341d07 0000000180026d60     FiscalPrinter.obj
 0002:00000d70       _GUID_cb5bdc81_93c1_11cf_8f20_00805f2cd064 0000000180026d70     FiscalPrinter.obj
 0002:00000d80       ?pPropMap@?1??GetPropertyMap@COPOSFiscalPrinter@@SAPEBUATL_PROPMAP_ENTRY@ATL@@XZ@4QBU34@B 0000000180026d80     FiscalPrinter.obj
 0002:00000e28       ??_C@_17DGDADEHL@?$AA_?$AAc?$AAx@ 0000000180026e28     FiscalPrinter.obj
 0002:00000e30       ??_C@_17IOIMFDBO@?$AA_?$AAc?$AAy@ 0000000180026e30     FiscalPrinter.obj
 0002:00000e38       ??_C@_1CK@OEKPKBNA@?$AAC?$AAo?$AAm?$AAp?$AAo?$AAn?$AAe?$AAn?$AAt?$AA?5?$AAC?$AAa?$AAt?$AAe?$AAg@ 0000000180026e38     FiscalPrinter.obj
 0002:00000e68       ??_C@_1BC@NKMMNMGL@?$AAF?$AAi?$AAl?$AAe?$AAT?$AAy?$AAp?$AAe@ 0000000180026e68     FiscalPrinter.obj
 0002:00000e80       ??_C@_1BE@EKPAFMCP@?$AAI?$AAn?$AAt?$AAe?$AAr?$AAf?$AAa?$AAc?$AAe@ 0000000180026e80     FiscalPrinter.obj
 0002:00000e98       ??_C@_1BC@MAICEHGI@?$AAH?$AAa?$AAr?$AAd?$AAw?$AAa?$AAr?$AAe@ 0000000180026e98     FiscalPrinter.obj
 0002:00000eb0       ??_C@_19HLLLM@?$AAM?$AAi?$AAm?$AAe@ 0000000180026eb0     FiscalPrinter.obj
 0002:00000ec0       ??_C@_17OMAOINJK@?$AAS?$AAA?$AAM@ 0000000180026ec0     FiscalPrinter.obj
 0002:00000ec8       ??_C@_1BC@IBECJAAI@?$AAS?$AAE?$AAC?$AAU?$AAR?$AAI?$AAT?$AAY@ 0000000180026ec8     FiscalPrinter.obj
 0002:00000ee0       ??_C@_1O@GBFINDKL@?$AAS?$AAY?$AAS?$AAT?$AAE?$AAM@ 0000000180026ee0     FiscalPrinter.obj
 0002:00000ef0       ??_C@_1BC@EAHCMADO@?$AAS?$AAo?$AAf?$AAt?$AAw?$AAa?$AAr?$AAe@ 0000000180026ef0     FiscalPrinter.obj
 0002:00000f08       ??_C@_1BA@JIHHIEDE@?$AAT?$AAy?$AAp?$AAe?$AAL?$AAi?$AAb@ 0000000180026f08     FiscalPrinter.obj
 0002:00000f18       _GUID_00000112_0000_0000_c000_000000000046 0000000180026f18     FiscalPrinter.obj
 0002:00000f30       ?map@?1??HKeyFromString@CRegParser@ATL@@KAPEAUHKEY__@@PEA_W@Z@4QBUkeymap@?1??123@KAPEAU4@0@Z@B 0000000180026f30     FiscalPrinter.obj
 0002:00001010       ??_7?$CComObjectCached@VCComClassFactory@ATL@@@ATL@@6B@ 0000000180027010     FiscalPrinter.obj
 0002:00001040       ??_C@_19NCHLBIN@?$AAH?$AAK?$AAC?$AAR@ 0000000180027040     FiscalPrinter.obj
 0002:00001050       ??_C@_19JAPAIJDE@?$AAH?$AAK?$AAC?$AAU@ 0000000180027050     FiscalPrinter.obj
 0002:00001060       ??_C@_19PEALEEJB@?$AAH?$AAK?$AAL?$AAM@ 0000000180027060     FiscalPrinter.obj
 0002:00001070       ??_C@_17PJOJPMPB@?$AAH?$AAK?$AAU@ 0000000180027070     FiscalPrinter.obj
 0002:00001078       ??_C@_19PNBHMJPL@?$AAH?$AAK?$AAP?$AAD@ 0000000180027078     FiscalPrinter.obj
 0002:00001088       ??_C@_19GFFAIJHG@?$AAH?$AAK?$AAD?$AAD@ 0000000180027088     FiscalPrinter.obj
 0002:00001098       ??_C@_19OFICIBHH@?$AAH?$AAK?$AAC?$AAC@ 0000000180027098     FiscalPrinter.obj
 0002:000010a8       ??_C@_1CE@PACHPJFI@?$AAH?$AAK?$AAE?$AAY?$AA_?$AAC?$AAL?$AAA?$AAS?$AAS?$AAE?$AAS?$AA_?$AAR?$AAO@ 00000001800270a8     FiscalPrinter.obj
 0002:000010d0       ??_C@_1CE@HLHNCBPM@?$AAH?$AAK?$AAE?$AAY?$AA_?$AAC?$AAU?$AAR?$AAR?$AAE?$AAN?$AAT?$AA_?$AAU?$AAS@ 00000001800270d0     FiscalPrinter.obj
 0002:000010f8       ??_C@_1CG@GFBEANJL@?$AAH?$AAK?$AAE?$AAY?$AA_?$AAL?$AAO?$AAC?$AAA?$AAL?$AA_?$AAM?$AAA?$AAC?$AAH@ 00000001800270f8     FiscalPrinter.obj
 0002:00001120       ??_C@_1BG@BGODANIO@?$AAH?$AAK?$AAE?$AAY?$AA_?$AAU?$AAS?$AAE?$AAR?$AAS@ 0000000180027120     FiscalPrinter.obj
 0002:00001138       ??_C@_1CM@KHNNAOIC@?$AAH?$AAK?$AAE?$AAY?$AA_?$AAP?$AAE?$AAR?$AAF?$AAO?$AAR?$AAM?$AAA?$AAN?$AAC@ 0000000180027138     FiscalPrinter.obj
 0002:00001168       _GUID_3af24292_0c96_11ce_a0cf_00aa00600ab8 0000000180027168     FiscalPrinter.obj
 0002:00001178       ??_C@_1BM@HAGMMHIA@?$AAH?$AAK?$AAE?$AAY?$AA_?$AAD?$AAY?$AAN?$AA_?$AAD?$AAA?$AAT?$AAA@ 0000000180027178     FiscalPrinter.obj
 0002:00001198       ??_C@_1CI@BBJOACGG@?$AAH?$AAK?$AAE?$AAY?$AA_?$AAC?$AAU?$AAR?$AAR?$AAE?$AAN?$AAT?$AA_?$AAC?$AAO@ 0000000180027198     FiscalPrinter.obj
 0002:000011c0       _GUID_00000127_0000_0000_c000_000000000046 00000001800271c0     FiscalPrinter.obj
 0002:000011d0       _GUID_0000010d_0000_0000_c000_000000000046 00000001800271d0     FiscalPrinter.obj
 0002:000011e0       ??_C@_1CE@PGFMOFKI@?$AAS?$AAt?$AAa?$AAt?$AAu?$AAs?$AAU?$AAp?$AAd?$AAa?$AAt?$AAe?$AAE?$AAv?$AAe@ 00000001800271e0     FiscalPrinter.obj
 0002:00001208       ??_C@_1CI@HLBJDONE@?$AAO?$AAu?$AAt?$AAp?$AAu?$AAt?$AAC?$AAo?$AAm?$AAp?$AAl?$AAe?$AAt?$AAe?$AAE@ 0000000180027208     FiscalPrinter.obj
 0002:00001230       ??_C@_1BG@LODEBHDD@?$AAE?$AAr?$AAr?$AAo?$AAr?$AAE?$AAv?$AAe?$AAn?$AAt@ 0000000180027230     FiscalPrinter.obj
 0002:00001248       ??_C@_1BM@CBGEBBBJ@?$AAD?$AAi?$AAr?$AAe?$AAc?$AAt?$AAI?$AAO?$AAE?$AAv?$AAe?$AAn?$AAt@ 0000000180027248     FiscalPrinter.obj
 0002:00001268       _GUID_00000109_0000_0000_c000_000000000046 0000000180027268     FiscalPrinter.obj
 0002:00001278       _GUID_7fd52380_4e07_101b_ae2d_08002b2ec713 0000000180027278     FiscalPrinter.obj
 0002:00001288       _GUID_b196b286_bab4_101a_b69c_00aa00341d07 0000000180027288     FiscalPrinter.obj
 0002:00001298       ??_C@_1BC@ENICKDH@?$AAC?$AAo?$AAn?$AAt?$AAe?$AAn?$AAt?$AAs@ 0000000180027298     FiscalPrinter.obj
 0002:000012b0       ??_C@_1EA@NHKLICFA@?$AAH?$AAK?$AAC?$AAU?$AA?$AN?$AA?6?$AA?$HL?$AA?7?$AAS?$AAo?$AAf?$AAt?$AAw?$AAa?$AAr@ 00000001800272b0     FiscalPrinter.obj
 0002:000012f0       ??_C@_1BE@LJOLIMEM@?$AA?$AN?$AA?6?$AA?7?$AA?$HN?$AA?$AN?$AA?6?$AA?$HN?$AA?$AN?$AA?6@ 00000001800272f0     FiscalPrinter.obj
 0002:00001308       ??_7?$CComObject@V?$CComEnum@UIEnumConnectionPoints@@$1?_GUID_b196b285_bab4_101a_b69c_00aa00341d07@@3U__s_GUID@@BPEAUIConnectionPoint@@V?$_CopyInterface@UIConnectionPoint@@@ATL@@VCComSingleThreadModel@6@@ATL@@@ATL@@6B@ 0000000180027308     FiscalPrinter.obj
 0002:00001348       ??_C@_1O@MNLDABAF@?$AAM?$AAo?$AAd?$AAu?$AAl?$AAe@ 0000000180027348     FiscalPrinter.obj
 0002:00001358       ??_C@_1BG@JBACFMF@?$AAM?$AAo?$AAd?$AAu?$AAl?$AAe?$AA_?$AAR?$AAa?$AAw@ 0000000180027358     FiscalPrinter.obj
 0002:00001370       ??_C@_1BC@KAILKFFG@?$AAR?$AAE?$AAG?$AAI?$AAS?$AAT?$AAR?$AAY@ 0000000180027370     FiscalPrinter.obj
 0002:00001388       ??_C@_1O@GBFKGNEO@?$AAA?$AAT?$AAL?$AA?3?$AA?$CF?$AAp@ 0000000180027388     FiscalPrinter.obj
 0002:00001398       ??_C@_1BA@PICGEGJB@?$AAD?$AAI?$AAS?$AAP?$AAL?$AAA?$AAY@ 0000000180027398     FiscalPrinter.obj
 0002:000013a8       _GUID_9bfbbc02_eff1_101a_84ed_00aa00341d07 00000001800273a8     FiscalPrinter.obj
 0002:000013b8       _GUID_b196b284_bab4_101a_b69c_00aa00341d07 00000001800273b8     FiscalPrinter.obj
 0002:000013c8       ??_C@_1M@PPPPCDEP@?$AAA?$AAP?$AAP?$AAI?$AAD@ 00000001800273c8     FiscalPrinter.obj
 0002:000013d8       ??_7?$CComContainedObject@VCOPOSFiscalPrinter@@@ATL@@6B?$IDispatchImpl@UIOPOSFiscalPrinter@@$1?IID_IOPOSFiscalPrinter@@3U_GUID@@B$1?LIBID_OposFiscalPrinter_CCO@@3U3@B$00$0A@VCComTypeInfoHolder@ATL@@@1@@ 00000001800273d8     FiscalPrinter.obj
 0002:00001b08       ??_7?$CComContainedObject@VCOPOSFiscalPrinter@@@ATL@@6BCComControlBase@1@@ 0000000180027b08     FiscalPrinter.obj
 0002:00001b30       ??_7?$CComContainedObject@VCOPOSFiscalPrinter@@@ATL@@6B?$CWindowImpl@VCOPOSFiscalPrinter@@VCWindow@ATL@@V?$CWinTraits@$0FGAAAAAA@$0A@@3@@1@@ 0000000180027b30     FiscalPrinter.obj
 0002:00001b50       ??_7?$CComContainedObject@VCOPOSFiscalPrinter@@@ATL@@6B?$IPersistStreamInitImpl@VCOPOSFiscalPrinter@@@1@@ 0000000180027b50     FiscalPrinter.obj
 0002:00001b98       ??_7?$CComContainedObject@VCOPOSFiscalPrinter@@@ATL@@6B?$IOleControlImpl@VCOPOSFiscalPrinter@@@1@@ 0000000180027b98     FiscalPrinter.obj
 0002:00001bd0       ??_7?$CComContainedObject@VCOPOSFiscalPrinter@@@ATL@@6B?$IOleObjectImpl@VCOPOSFiscalPrinter@@@1@@ 0000000180027bd0     FiscalPrinter.obj
 0002:00001c90       ??_7?$CComContainedObject@VCOPOSFiscalPrinter@@@ATL@@6B?$IOleInPlaceActiveObjectImpl@VCOPOSFiscalPrinter@@@1@@ 0000000180027c90     FiscalPrinter.obj
 0002:00001ce0       ??_7?$CComContainedObject@VCOPOSFiscalPrinter@@@ATL@@6B?$IViewObjectExImpl@VCOPOSFiscalPrinter@@@1@@ 0000000180027ce0     FiscalPrinter.obj
 0002:00001d58       ??_7?$CComContainedObject@VCOPOSFiscalPrinter@@@ATL@@6B?$IOleInPlaceObjectWindowlessImpl@VCOPOSFiscalPrinter@@@1@@ 0000000180027d58     FiscalPrinter.obj
 0002:00001db0       ??_7?$CComContainedObject@VCOPOSFiscalPrinter@@@ATL@@6B?$IConnectionPointContainerImpl@VCOPOSFiscalPrinter@@@1@@ 0000000180027db0     FiscalPrinter.obj
 0002:00001dd8       ??_7?$CComContainedObject@VCOPOSFiscalPrinter@@@ATL@@6B?$IPersistStorageImpl@VCOPOSFiscalPrinter@@@1@@ 0000000180027dd8     FiscalPrinter.obj
 0002:00001e28       ??_7?$CComContainedObject@VCOPOSFiscalPrinter@@@ATL@@6B?$ISpecifyPropertyPagesImpl@VCOPOSFiscalPrinter@@@1@@ 0000000180027e28     FiscalPrinter.obj
 0002:00001e48       ??_7?$CComContainedObject@VCOPOSFiscalPrinter@@@ATL@@6B?$IQuickActivateImpl@VCOPOSFiscalPrinter@@@1@@ 0000000180027e48     FiscalPrinter.obj
 0002:00001e78       ??_7?$CComContainedObject@VCOPOSFiscalPrinter@@@ATL@@6B?$IDataObjectImpl@VCOPOSFiscalPrinter@@@1@@ 0000000180027e78     FiscalPrinter.obj
 0002:00001ed8       ??_7?$CComContainedObject@VCOPOSFiscalPrinter@@@ATL@@6B?$IProvideClassInfo2Impl@$1?CLSID_OPOSFiscalPrinter@@3U_GUID@@B$1?DIID__IOPOSFiscalPrinterEvents@@3U2@B$1?LIBID_OposFiscalPrinter_CCO@@3U2@B$00$0A@VCComTypeInfoHolder@ATL@@@1@@ 0000000180027ed8     FiscalPrinter.obj
 0002:00001f00       ??_7?$CComContainedObject@VCOPOSFiscalPrinter@@@ATL@@6B?$IObjectSafetyImpl@VCOPOSFiscalPrinter@@$02@1@@ 0000000180027f00     FiscalPrinter.obj
 0002:00001f30       ??_7?$CComContainedObject@VCOPOSFiscalPrinter@@@ATL@@6B?$IPropertyNotifySinkCP@VCOPOSFiscalPrinter@@VCComDynamicUnkArray@ATL@@@1@@ 0000000180027f30     FiscalPrinter.obj
 0002:00001f70       ??_7?$CComContainedObject@VCOPOSFiscalPrinter@@@ATL@@6B?$CProxy_IOPOSEvents@VCOPOSFiscalPrinter@@@@@ 0000000180027f70     FiscalPrinter.obj
 0002:00001fb0       ??_7?$CComAggObject@VCOPOSFiscalPrinter@@@ATL@@6B@ 0000000180027fb0     FiscalPrinter.obj
 0002:00001fd0       ??_7?$CComObject@VCOPOSFiscalPrinter@@@ATL@@6B?$IDispatchImpl@UIOPOSFiscalPrinter@@$1?IID_IOPOSFiscalPrinter@@3U_GUID@@B$1?LIBID_OposFiscalPrinter_CCO@@3U3@B$00$0A@VCComTypeInfoHolder@ATL@@@1@@ 0000000180027fd0     FiscalPrinter.obj
 0002:00002700       ??_7?$CComObject@VCOPOSFiscalPrinter@@@ATL@@6BCComControlBase@1@@ 0000000180028700     FiscalPrinter.obj
 0002:00002728       ??_7?$CComObject@VCOPOSFiscalPrinter@@@ATL@@6B?$CWindowImpl@VCOPOSFiscalPrinter@@VCWindow@ATL@@V?$CWinTraits@$0FGAAAAAA@$0A@@3@@1@@ 0000000180028728     FiscalPrinter.obj
 0002:00002748       ??_7?$CComObject@VCOPOSFiscalPrinter@@@ATL@@6B?$IPersistStreamInitImpl@VCOPOSFiscalPrinter@@@1@@ 0000000180028748     FiscalPrinter.obj
 0002:00002790       ??_7?$CComObject@VCOPOSFiscalPrinter@@@ATL@@6B?$IOleControlImpl@VCOPOSFiscalPrinter@@@1@@ 0000000180028790     FiscalPrinter.obj
 0002:000027c8       ??_7?$CComObject@VCOPOSFiscalPrinter@@@ATL@@6B?$IOleObjectImpl@VCOPOSFiscalPrinter@@@1@@ 00000001800287c8     FiscalPrinter.obj
 0002:00002888       ??_7?$CComObject@VCOPOSFiscalPrinter@@@ATL@@6B?$IOleInPlaceActiveObjectImpl@VCOPOSFiscalPrinter@@@1@@ 0000000180028888     FiscalPrinter.obj
 0002:000028d8       ??_7?$CComObject@VCOPOSFiscalPrinter@@@ATL@@6B?$IViewObjectExImpl@VCOPOSFiscalPrinter@@@1@@ 00000001800288d8     FiscalPrinter.obj
 0002:00002950       ??_7?$CComObject@VCOPOSFiscalPrinter@@@ATL@@6B?$IOleInPlaceObjectWindowlessImpl@VCOPOSFiscalPrinter@@@1@@ 0000000180028950     FiscalPrinter.obj
 0002:000029a8       ??_7?$CComObject@VCOPOSFiscalPrinter@@@ATL@@6B?$IConnectionPointContainerImpl@VCOPOSFiscalPrinter@@@1@@ 00000001800289a8     FiscalPrinter.obj
 0002:000029d0       ??_7?$CComObject@VCOPOSFiscalPrinter@@@ATL@@6B?$IPersistStorageImpl@VCOPOSFiscalPrinter@@@1@@ 00000001800289d0     FiscalPrinter.obj
 0002:00002a20       ??_7?$CComObject@VCOPOSFiscalPrinter@@@ATL@@6B?$ISpecifyPropertyPagesImpl@VCOPOSFiscalPrinter@@@1@@ 0000000180028a20     FiscalPrinter.obj
 0002:00002a40       ??_7?$CComObject@VCOPOSFiscalPrinter@@@ATL@@6B?$IQuickActivateImpl@VCOPOSFiscalPrinter@@@1@@ 0000000180028a40     FiscalPrinter.obj
 0002:00002a70       ??_7?$CComObject@VCOPOSFiscalPrinter@@@ATL@@6B?$IDataObjectImpl@VCOPOSFiscalPrinter@@@1@@ 0000000180028a70     FiscalPrinter.obj
 0002:00002ad0       ??_7?$CComObject@VCOPOSFiscalPrinter@@@ATL@@6B?$IProvideClassInfo2Impl@$1?CLSID_OPOSFiscalPrinter@@3U_GUID@@B$1?DIID__IOPOSFiscalPrinterEvents@@3U2@B$1?LIBID_OposFiscalPrinter_CCO@@3U2@B$00$0A@VCComTypeInfoHolder@ATL@@@1@@ 0000000180028ad0     FiscalPrinter.obj
 0002:00002af8       ??_7?$CComObject@VCOPOSFiscalPrinter@@@ATL@@6B?$IObjectSafetyImpl@VCOPOSFiscalPrinter@@$02@1@@ 0000000180028af8     FiscalPrinter.obj
 0002:00002b28       ??_7?$CComObject@VCOPOSFiscalPrinter@@@ATL@@6B?$IPropertyNotifySinkCP@VCOPOSFiscalPrinter@@VCComDynamicUnkArray@ATL@@@1@@ 0000000180028b28     FiscalPrinter.obj
 0002:00002b68       ??_7?$CComObject@VCOPOSFiscalPrinter@@@ATL@@6B?$CProxy_IOPOSEvents@VCOPOSFiscalPrinter@@@@@ 0000000180028b68     FiscalPrinter.obj
 0002:00002ba8       _GUID_55980ba0_35aa_11cf_b671_00aa004cd6d8 0000000180028ba8     FiscalPrinter.obj
 0002:00002bb8       _GUID_b196b28b_bab4_101a_b69c_00aa00341d07 0000000180028bb8     FiscalPrinter.obj
 0002:00002bc8       ?_entries@?1??_GetEntries@?$CComEnum@UIEnumConnectionPoints@@$1?_GUID_b196b285_bab4_101a_b69c_00aa00341d07@@3U__s_GUID@@BPEAUIConnectionPoint@@V?$_CopyInterface@UIConnectionPoint@@@ATL@@VCComSingleThreadModel@6@@ATL@@SAPEBU_ATL_INTMAP_ENTRY@3@XZ@4QBU43@B 0000000180028bc8     FiscalPrinter.obj
 0002:00002bf8       _GUID_00020412_0000_0000_c000_000000000046 0000000180028bf8     FiscalPrinter.obj
 0002:00002c08       _GUID_00020401_0000_0000_c000_000000000046 0000000180028c08     FiscalPrinter.obj
 0002:00002c18       ??_7CComClassFactory@ATL@@6B@ 0000000180028c18     FiscalPrinter.obj
 0002:00002c48       ?_entries@?1??_GetEntries@CComClassFactory@ATL@@SAPEBU_ATL_INTMAP_ENTRY@3@XZ@4QBU43@B 0000000180028c48     FiscalPrinter.obj
 0002:00002c78       _GUID_00000001_0000_0000_c000_000000000046 0000000180028c78     FiscalPrinter.obj
 0002:00002c88       ??_C@_0BG@EKFFMJIO@RegOpenKeyTransactedW@ 0000000180028c88     FiscalPrinter.obj
 0002:00002ca0       ??_C@_0BI@HAKLOOGP@RegDeleteKeyTransactedW@ 0000000180028ca0     FiscalPrinter.obj
 0002:00002cb8       ??_C@_0BA@LILAPHGE@RegDeleteKeyExW@ 0000000180028cb8     FiscalPrinter.obj
 0002:00002cc8       ??_C@_19ILOCMLCJ@?$AA?4?$AAt?$AAl?$AAb@ 0000000180028cc8     FiscalPrinter.obj
 0002:00002cd8       _GUID_0002e012_0000_0000_c000_000000000046 0000000180028cd8     FiscalPrinter.obj
 0002:00002ce8       ??_C@_1O@FHBGLCIO@?$AAC?$AAL?$AAS?$AAI?$AAD?$AA?2@ 0000000180028ce8     FiscalPrinter.obj
 0002:00002cf8       ??_C@_1CK@IFBKBFAA@?$AA?2?$AAR?$AAe?$AAq?$AAu?$AAi?$AAr?$AAe?$AAd?$AA?5?$AAC?$AAa?$AAt?$AAe?$AAg@ 0000000180028cf8     FiscalPrinter.obj
 0002:00002d28       ??_C@_1DA@BIHALFED@?$AA?2?$AAI?$AAm?$AAp?$AAl?$AAe?$AAm?$AAe?$AAn?$AAt?$AAe?$AAd?$AA?5?$AAC?$AAa@ 0000000180028d28     FiscalPrinter.obj
 0002:00002d58       ??_C@_1BK@EDKOLFBJ@?$AAO?$AAL?$AAE?$AAA?$AAU?$AAT?$AA3?$AA2?$AA?4?$AAD?$AAL?$AAL@ 0000000180028d58     FiscalPrinter.obj
 0002:00002d78       ??_C@_0BJ@CNLFOMHB@UnRegisterTypeLibForUser@ 0000000180028d78     FiscalPrinter.obj
 0002:00002d98       ??_C@_0BH@LBOMMKPJ@RegisterTypeLibForUser@ 0000000180028d98     FiscalPrinter.obj
 0002:00002db0       ??_C@_0P@MMNMMLGK@COFreezeEvents@ 0000000180028db0     FiscalPrinterImpl.obj
 0002:00002dc0       ??_C@_0BC@OGCGGIMP@GetPropertyNumber@ 0000000180028dc0     FiscalPrinterImpl.obj
 0002:00002dd8       ??_C@_0BC@MDCNODNB@SetPropertyNumber@ 0000000180028dd8     FiscalPrinterImpl.obj
 0002:00002df0       ??_C@_0BC@CFCCMIMD@GetPropertyString@ 0000000180028df0     FiscalPrinterImpl.obj
 0002:00002e08       ??_C@_0BC@CJEDNN@SetPropertyString@ 0000000180028e08     FiscalPrinterImpl.obj
 0002:00002e20       ??_C@_0M@LNPKKKDA@OpenService@ 0000000180028e20     FiscalPrinterImpl.obj
 0002:00002e30       ??_C@_0M@PCMCHHMH@CheckHealth@ 0000000180028e30     FiscalPrinterImpl.obj
 0002:00002e40       ??_C@_0M@JGMIDNEK@ClaimDevice@ 0000000180028e40     FiscalPrinterImpl.obj
 0002:00002e50       ??_C@_0M@JMBCPNGJ@ClearOutput@ 0000000180028e50     FiscalPrinterImpl.obj
 0002:00002e60       ??_C@_0N@DDFIIBMP@CloseService@ 0000000180028e60     FiscalPrinterImpl.obj
 0002:00002e70       ??_C@_08EEIHICPC@DirectIO@ 0000000180028e70     FiscalPrinterImpl.obj
 0002:00002e80       ??_C@_0O@BCPMENMJ@ReleaseDevice@ 0000000180028e80     FiscalPrinterImpl.obj
 0002:00002e90       ??_C@_0BE@JANCNHPE@BeginFiscalDocument@ 0000000180028e90     FiscalPrinterImpl.obj
 0002:00002ea8       ??_C@_0BD@GBEECMFN@BeginFiscalReceipt@ 0000000180028ea8     FiscalPrinterImpl.obj
 0002:00002ec0       ??_C@_0BB@DHHHDLMN@BeginFixedOutput@ 0000000180028ec0     FiscalPrinterImpl.obj
 0002:00002ed8       ??_C@_0P@DPMKPLAE@BeginInsertion@ 0000000180028ed8     FiscalPrinterImpl.obj
 0002:00002ee8       ??_C@_0O@NEDEPHBK@BeginItemList@ 0000000180028ee8     FiscalPrinterImpl.obj
 0002:00002ef8       ??_C@_0P@FPKCHCGB@BeginNonFiscal@ 0000000180028ef8     FiscalPrinterImpl.obj
 0002:00002f08       ??_C@_0N@PCJLGBKP@BeginRemoval@ 0000000180028f08     FiscalPrinterImpl.obj
 0002:00002f18       ??_C@_0O@OOBKDAGL@BeginTraining@ 0000000180028f18     FiscalPrinterImpl.obj
 0002:00002f28       ??_C@_0L@CCHIKHMB@ClearError@ 0000000180028f28     FiscalPrinterImpl.obj
 0002:00002f38       ??_C@_0BC@NOJPFHPM@EndFiscalDocument@ 0000000180028f38     FiscalPrinterImpl.obj
 0002:00002f50       ??_C@_0BB@CIEHHALP@EndFiscalReceipt@ 0000000180028f50     FiscalPrinterImpl.obj
 0002:00002f68       ??_C@_0P@JMPICPNM@EndFixedOutput@ 0000000180028f68     FiscalPrinterImpl.obj
 0002:00002f78       ??_C@_0N@MIHLNKHM@EndInsertion@ 0000000180028f78     FiscalPrinterImpl.obj
 0002:00002f88       ??_C@_0M@HECNCIO@EndItemList@ 0000000180028f88     FiscalPrinterImpl.obj
 0002:00002f98       ??_C@_0N@KIBDFDBJ@EndNonFiscal@ 0000000180028f98     FiscalPrinterImpl.obj
 0002:00002fa8       ??_C@_0L@FCEKAOMI@EndRemoval@ 0000000180028fa8     FiscalPrinterImpl.obj
 0002:00002fb8       ??_C@_0M@DNGMBFPP@EndTraining@ 0000000180028fb8     FiscalPrinterImpl.obj
 0002:00002fc8       ??_C@_07PBEPDDHC@GetData@  0000000180028fc8     FiscalPrinterImpl.obj
 0002:00002fd0       ??_C@_07JFCDPGHG@GetDate@  0000000180028fd0     FiscalPrinterImpl.obj
 0002:00002fd8       ??_C@_0N@EEACCMMB@GetTotalizer@ 0000000180028fd8     FiscalPrinterImpl.obj
 0002:00002fe8       ??_C@_0M@CPJMAPCP@GetVatEntry@ 0000000180028fe8     FiscalPrinterImpl.obj
 0002:00002ff8       ??_C@_0BG@NPPPNOBE@PrintDuplicateReceipt@ 0000000180028ff8     FiscalPrinterImpl.obj
 0002:00003010       ??_C@_0BI@IHDALOIG@PrintFiscalDocumentLine@ 0000000180029010     FiscalPrinterImpl.obj
 0002:00003028       ??_C@_0BB@OJCCIGNF@PrintFixedOutput@ 0000000180029028     FiscalPrinterImpl.obj
 0002:00003040       ??_C@_0M@KIMDMICO@PrintNormal@ 0000000180029040     FiscalPrinterImpl.obj
 0002:00003050       ??_C@_0BK@OKPIIOE@PrintPeriodicTotalsReport@ 0000000180029050     FiscalPrinterImpl.obj
 0002:00003070       ??_C@_0BF@KPAKIBHH@PrintPowerLossReport@ 0000000180029070     FiscalPrinterImpl.obj
 0002:00003088       ??_C@_0N@BHJEGEBP@PrintRecItem@ 0000000180029088     FiscalPrinterImpl.obj
 0002:00003098       ??_C@_0BH@BFNNIPBJ@PrintRecItemAdjustment@ 0000000180029098     FiscalPrinterImpl.obj
 0002:000030b0       ??_C@_0BA@HILNJOGA@PrintRecMessage@ 00000001800290b0     FiscalPrinterImpl.obj
 0002:000030c0       ??_C@_0BA@NKKDLPOK@PrintRecNotPaid@ 00000001800290c0     FiscalPrinterImpl.obj
 0002:000030d0       ??_C@_0P@LLADOIGI@PrintRecRefund@ 00000001800290d0     FiscalPrinterImpl.obj
 0002:000030e0       ??_C@_0BB@LKACBJKL@PrintRecSubtotal@ 00000001800290e0     FiscalPrinterImpl.obj
 0002:000030f8       ??_C@_0BL@FMLPIPAA@PrintRecSubtotalAdjustment@ 00000001800290f8     FiscalPrinterImpl.obj
 0002:00003118       ??_C@_0O@NJAMDHC@PrintRecTotal@ 0000000180029118     FiscalPrinterImpl.obj
 0002:00003128       ??_C@_0N@KKOEPGPP@PrintRecVoid@ 0000000180029128     FiscalPrinterImpl.obj
 0002:00003138       ??_C@_0BB@EMKMGEFP@PrintRecVoidItem@ 0000000180029138     FiscalPrinterImpl.obj
 0002:00003150       ??_C@_0M@OFJEADGJ@PrintReport@ 0000000180029150     FiscalPrinterImpl.obj
 0002:00003160       ??_C@_0N@JEIJBGJC@PrintXReport@ 0000000180029160     FiscalPrinterImpl.obj
 0002:00003170       ??_C@_0N@NGKMBBOP@PrintZReport@ 0000000180029170     FiscalPrinterImpl.obj
 0002:00003180       ??_C@_0N@EEINMJEO@ResetPrinter@ 0000000180029180     FiscalPrinterImpl.obj
 0002:00003190       ??_C@_07GNNCMJKH@SetDate@  0000000180029190     FiscalPrinterImpl.obj
 0002:00003198       ??_C@_0O@BLMIAMAB@SetHeaderLine@ 0000000180029198     FiscalPrinterImpl.obj
 0002:000031a8       ??_C@_08DGMOJHGI@SetPOSID@ 00000001800291a8     FiscalPrinterImpl.obj
 0002:000031b8       ??_C@_0BB@FPEDFGN@SetStoreFiscalID@ 00000001800291b8     FiscalPrinterImpl.obj
 0002:000031d0       ??_C@_0P@LODFJIA@SetTrailerLine@ 00000001800291d0     FiscalPrinterImpl.obj
 0002:000031e0       ??_C@_0M@OPOFEECH@SetVatTable@ 00000001800291e0     FiscalPrinterImpl.obj
 0002:000031f0       ??_C@_0M@FBAFAKOA@SetVatValue@ 00000001800291f0     FiscalPrinterImpl.obj
 0002:00003200       ??_C@_0L@MJPGPCIH@VerifyItem@ 0000000180029200     FiscalPrinterImpl.obj
 0002:00003210       ??_C@_0N@FPDPPAJE@PrintRecCash@ 0000000180029210     FiscalPrinterImpl.obj
 0002:00003220       ??_C@_0BB@NNFMDOML@PrintRecItemFuel@ 0000000180029220     FiscalPrinterImpl.obj
 0002:00003238       ??_C@_0BF@PDFEJOJO@PrintRecItemFuelVoid@ 0000000180029238     FiscalPrinterImpl.obj
 0002:00003250       ??_C@_0BK@EJEMIEBD@PrintRecPackageAdjustment@ 0000000180029250     FiscalPrinterImpl.obj
 0002:00003270       ??_C@_0BK@LPINOJDE@PrintRecPackageAdjustVoid@ 0000000180029270     FiscalPrinterImpl.obj
 0002:00003290       ??_C@_0BD@LMHMOEAB@PrintRecRefundVoid@ 0000000180029290     FiscalPrinterImpl.obj
 0002:000032a8       ??_C@_0BL@KKHOOCCH@PrintRecSubtotalAdjustVoid@ 00000001800292a8     FiscalPrinterImpl.obj
 0002:000032c8       ??_C@_0O@JDHFHLFJ@PrintRecTaxID@ 00000001800292c8     FiscalPrinterImpl.obj
 0002:000032d8       ??_C@_0M@BBBLKMMB@SetCurrency@ 00000001800292d8     FiscalPrinterImpl.obj
 0002:000032e8       ??_C@_0BA@GFABKEEE@ResetStatistics@ 00000001800292e8     FiscalPrinterImpl.obj
 0002:000032f8       ??_C@_0BD@DPALHJGC@RetrieveStatistics@ 00000001800292f8     FiscalPrinterImpl.obj
 0002:00003310       ??_C@_0BB@KOHIKNFC@UpdateStatistics@ 0000000180029310     FiscalPrinterImpl.obj
 0002:00003328       ??_C@_0BH@PBKBNMGB@CompareFirmwareVersion@ 0000000180029328     FiscalPrinterImpl.obj
 0002:00003340       ??_C@_0P@FBPDPIPA@UpdateFirmware@ 0000000180029340     FiscalPrinterImpl.obj
 0002:00003350       ??_C@_0BL@MLCJICD@PrintRecItemAdjustmentVoid@ 0000000180029350     FiscalPrinterImpl.obj
 0002:00003370       ??_C@_0BB@EDNLGNNO@PrintRecItemVoid@ 0000000180029370     FiscalPrinterImpl.obj
 0002:00003388       ??_C@_0BD@FAEBFOHI@PrintRecItemRefund@ 0000000180029388     FiscalPrinterImpl.obj
 0002:000033a0       ??_C@_0BH@NICBCHEL@PrintRecItemRefundVoid@ 00000001800293a0     FiscalPrinterImpl.obj
 0002:000033b8       ??_7?$CProxy_IOPOSEvents@VCOPOSFiscalPrinter@@@@6B@ 00000001800293b8     FiscalPrinterImpl.obj
 0002:000033f8       ??_C@_1BA@IFHENID@?$AA?$FL?$AAE?$AAr?$AAr?$AAo?$AAr?$AA?$FN@ 00000001800293f8     FiscalPrinterImpl.obj
 0002:00003408       ??_C@_0DA@JMKLKJNP@SOFTWARE?2OLEforRetail?2ServiceOP@ 0000000180029408     FiscalPrinterImpl.obj
 0002:00003438       ??_C@_1M@IAIJHCCH@?$AAC?$AAl?$AAo?$AAs?$AAe@ 0000000180029438     FiscalPrinterImpl.obj
 0002:00003448       ??_C@_1M@PCPKGJAH@?$AAC?$AAl?$AAa?$AAi?$AAm@ 0000000180029448     FiscalPrinterImpl.obj
 0002:00003458       ??_C@_1BA@NDFKIOCP@?$AAR?$AAe?$AAl?$AAe?$AAa?$AAs?$AAe@ 0000000180029458     FiscalPrinterImpl.obj
 0002:00003468       ??_C@_0O@JAKJNEAE@FiscalPrinter@ 0000000180029468     FiscalPrinterImpl.obj
 0002:00003478       ??_C@_1BM@IJMNMBPK@?$AAG?$AAe?$AAt?$AAO?$AAp?$AAe?$AAn?$AAR?$AAe?$AAs?$AAu?$AAl?$AAt@ 0000000180029478     FiscalPrinterImpl.obj
 0002:00003498       IID_IDispatch              0000000180029498     uuid:oaidl_i.obj
 0002:000034a8       IID_IPropertyNotifySink    00000001800294a8     uuid:ocidl_i.obj
 0002:000034b8       GUID_NULL                  00000001800294b8     uuid:cguid_i.obj
 0002:000034c8       CLSID_StdGlobalInterfaceTable 00000001800294c8     uuid:cguid_i.obj
 0002:000034d8       CLSID_StdComponentCategoriesMgr 00000001800294d8     uuid:ieguids.obj
 0002:000034e8       IID_IUnknown               00000001800294e8     uuid:unknwn_i.obj
 0002:00003500       __xmm@ffffffffffffffffffffffffffffffff 0000000180029500     LIBCMT:utility.obj
 0002:00003510       ??_C@_1EC@JIJBPKFM@?$AAa?$AAp?$AAi?$AA?9?$AAm?$AAs?$AA?9?$AAw?$AAi?$AAn?$AA?9?$AAc?$AAo?$AAr?$AAe@ 0000000180029510     LIBCMT:thread_safe_statics.obj
 0002:00003558       ??_C@_1BK@MGMFAEKH@?$AAk?$AAe?$AAr?$AAn?$AAe?$AAl?$AA3?$AA2?$AA?4?$AAd?$AAl?$AAl@ 0000000180029558     LIBCMT:thread_safe_statics.obj
 0002:00003578       ??_C@_0BJ@JEBJOJFJ@SleepConditionVariableCS@ 0000000180029578     LIBCMT:thread_safe_statics.obj
 0002:00003598       ??_C@_0BJ@PGPPEPCC@WakeAllConditionVariable@ 0000000180029598     LIBCMT:thread_safe_statics.obj
 0002:000035b1       ?nothrow@std@@3Unothrow_t@1@B 00000001800295b1     LIBCMT:std_nothrow.obj
 0002:000035c8       _pDefaultRawDllMain        00000001800295c8     LIBCMT:dll_dllmain.obj
 0002:000035c8       _pRawDllMain               00000001800295c8     LIBCMT:dll_dllmain.obj
 0002:000035d8       ??_7exception@std@@6B@     00000001800295d8     LIBCMT:throw_bad_alloc.obj
 0002:000035e8       ??_C@_0BC@EOODALEL@Unknown?5exception@ 00000001800295e8     LIBCMT:throw_bad_alloc.obj
 0002:00003608       ??_7bad_alloc@std@@6B@     0000000180029608     LIBCMT:throw_bad_alloc.obj
 0002:00003618       ??_C@_0P@GHFPNOJB@bad?5allocation@ 0000000180029618     LIBCMT:throw_bad_alloc.obj
 0002:00003630       ??_7bad_array_new_length@std@@6B@ 0000000180029630     LIBCMT:throw_bad_alloc.obj
 0002:00003640       ??_C@_0BF@KINCDENJ@bad?5array?5new?5length@ 0000000180029640     LIBCMT:throw_bad_alloc.obj
 0002:00003660       ??_7type_info@@6B@         0000000180029660     LIBCMT:std_type_info_static.obj
 0002:00003668       GUID_ATLVer110             0000000180029668     atls:atlbase.obj
 0002:00003680       ??_C@_1IC@ONKHOIDK@?$AAE?$AAR?$AAR?$AAO?$AAR?$AA?5?$AA?3?$AA?5?$AAU?$AAn?$AAa?$AAb?$AAl?$AAe?$AA?5@ 0000000180029680     atls:atlbase.obj
 0002:00003708       ??_C@_0N@FJEPLCIH@atlthunk?4dll@ 0000000180029708     atls:atlthunk.obj
 0002:00003718       ??_C@_0BG@GAKFHCBM@AtlThunk_AllocateData@ 0000000180029718     atls:atlthunk.obj
 0002:00003730       ??_C@_0BC@JKONFIAH@AtlThunk_InitData@ 0000000180029730     atls:atlthunk.obj
 0002:00003748       ??_C@_0BE@IAOEELAK@AtlThunk_DataToCode@ 0000000180029748     atls:atlthunk.obj
 0002:00003760       ??_C@_0BC@GBGKAIPI@AtlThunk_FreeData@ 0000000180029760     atls:atlthunk.obj
 0002:00003778       ?s_negLengthTab@FH4@@3QBCB 0000000180029778     libvcruntime:risctrnsctrl.obj
 0002:00003788       ?s_shiftTab@FH4@@3QBEB     0000000180029788     libvcruntime:risctrnsctrl.obj
 0002:00003838       _pDestructExceptionObject  0000000180029838     libvcruntime:ehhelpers.obj
 0002:00003848       ??_7bad_exception@std@@6B@ 0000000180029848     libvcruntime:frame.obj
 0002:00003858       ??_C@_0O@DPKOEFFH@bad?5exception@ 0000000180029858     libvcruntime:frame.obj
 0002:00003f70       ??_C@_08EHJDFFNH@__based?$CI@ 0000000180029f70     libvcruntime:undname.obj
 0002:00003f80       ??_C@_07KOLFKCDI@__cdecl@  0000000180029f80     libvcruntime:undname.obj
 0002:00003f88       ??_C@_08GHMPAG@__pascal@   0000000180029f88     libvcruntime:undname.obj
 0002:00003f98       ??_C@_09IFJBGAPI@__stdcall@ 0000000180029f98     libvcruntime:undname.obj
 0002:00003fa8       ??_C@_0L@NPHFGOKO@__thiscall@ 0000000180029fa8     libvcruntime:undname.obj
 0002:00003fb8       ??_C@_0L@JMKHOMEK@__fastcall@ 0000000180029fb8     libvcruntime:undname.obj
 0002:00003fc8       ??_C@_0N@BCKKPABJ@__vectorcall@ 0000000180029fc8     libvcruntime:undname.obj
 0002:00003fd8       ??_C@_09HIJEGCPM@__clrcall@ 0000000180029fd8     libvcruntime:undname.obj
 0002:00003fe4       ??_C@_06GHPCKEAG@__eabi@   0000000180029fe4     libvcruntime:undname.obj
 0002:00003ff0       ??_C@_09IOPIDJLG@__swift_1@ 0000000180029ff0     libvcruntime:undname.obj
 0002:00004000       ??_C@_09KFNFGKHF@__swift_2@ 000000018002a000     libvcruntime:undname.obj
 0002:00004010       ??_C@_07JOMMBBKO@__ptr64@  000000018002a010     libvcruntime:undname.obj
 0002:00004018       ??_C@_0L@PILCLIHE@__restrict@ 000000018002a018     libvcruntime:undname.obj
 0002:00004028       ??_C@_0M@GFIIJFMG@__unaligned@ 000000018002a028     libvcruntime:undname.obj
 0002:00004038       ??_C@_09DHDLOLLB@restrict?$CI@ 000000018002a038     libvcruntime:undname.obj
 0002:00004042       ??_C@_00CNPNBAHC@@         000000018002a042     libvcruntime:undname.obj
 0002:00004044       ??_C@_04NIHEBCM@?5new@     000000018002a044     libvcruntime:undname.obj
 0002:00004050       ??_C@_07FPCDHGMM@?5delete@ 000000018002a050     libvcruntime:undname.obj
 0002:00004058       ??_C@_01NEMOKFLO@?$DN@     000000018002a058     libvcruntime:undname.obj
 0002:0000405c       ??_C@_02GPIOPFAK@?$DO?$DO@ 000000018002a05c     libvcruntime:undname.obj
 0002:00004060       ??_C@_02FODMEDOG@?$DM?$DM@ 000000018002a060     libvcruntime:undname.obj
 0002:00004064       ??_C@_01DCLJPIOD@?$CB@     000000018002a064     libvcruntime:undname.obj
 0002:00004068       ??_C@_02EGOFBIJA@?$DN?$DN@ 000000018002a068     libvcruntime:undname.obj
 0002:0000406c       ??_C@_02FDNJECIE@?$CB?$DN@ 000000018002a06c     libvcruntime:undname.obj
 0002:00004070       ??_C@_02GPECMEKF@?$FL?$FN@ 000000018002a070     libvcruntime:undname.obj
 0002:00004078       ??_C@_08LHJFAFGD@operator@ 000000018002a078     libvcruntime:undname.obj
 0002:00004084       ??_C@_02HBOOOICD@?9?$DO@   000000018002a084     libvcruntime:undname.obj
 0002:00004088       ??_C@_01NBENCBCI@?$CK@     000000018002a088     libvcruntime:undname.obj
 0002:0000408c       ??_C@_02ECNGHCIF@?$CL?$CL@ 000000018002a08c     libvcruntime:undname.obj
 0002:00004090       ??_C@_02BAABKJLB@?9?9@     000000018002a090     libvcruntime:undname.obj
 0002:00004094       ??_C@_01JOAMLHOP@?9@       000000018002a094     libvcruntime:undname.obj
 0002:00004098       ??_C@_01MIFGBAGJ@?$CL@     000000018002a098     libvcruntime:undname.obj
 0002:0000409c       ??_C@_01HNPIGOCE@?$CG@     000000018002a09c     libvcruntime:undname.obj
 0002:000040a0       ??_C@_03MNHNFDLC@?9?$DO?$CK@ 000000018002a0a0     libvcruntime:undname.obj
 0002:000040a4       ??_C@_01KMDKNFGN@?1@       000000018002a0a4     libvcruntime:undname.obj
 0002:000040a8       ??_C@_01FGNFDNOH@?$CF@     000000018002a0a8     libvcruntime:undname.obj
 0002:000040ac       ??_C@_01MNNFJEPP@?$DM@     000000018002a0ac     libvcruntime:undname.obj
 0002:000040b0       ??_C@_02EHCHHCKH@?$DM?$DN@ 000000018002a0b0     libvcruntime:undname.obj
 0002:000040b4       ??_C@_01PPODPGHN@?$DO@     000000018002a0b4     libvcruntime:undname.obj
 0002:000040b8       ??_C@_02EEKDKGMJ@?$DO?$DN@ 000000018002a0b8     libvcruntime:undname.obj
 0002:000040bc       ??_C@_01IHBHIGKO@?0@       000000018002a0bc     libvcruntime:undname.obj
 0002:000040c0       ??_C@_02HCKGKOFO@?$CI?$CJ@ 000000018002a0c0     libvcruntime:undname.obj
 0002:000040c4       ??_C@_01PJKLJHI@?$HO@      000000018002a0c4     libvcruntime:undname.obj
 0002:000040c8       ??_C@_01JKBOJNNK@?$FO@     000000018002a0c8     libvcruntime:undname.obj
 0002:000040cc       ??_C@_01DNKMNLPK@?$HM@     000000018002a0cc     libvcruntime:undname.obj
 0002:000040d0       ??_C@_02PPKAJPJL@?$CG?$CG@ 000000018002a0d0     libvcruntime:undname.obj
 0002:000040d4       ??_C@_02NONPIBCD@?$HM?$HM@ 000000018002a0d4     libvcruntime:undname.obj
 0002:000040d8       ??_C@_02FPIMKNGF@?$CK?$DN@ 000000018002a0d8     libvcruntime:undname.obj
 0002:000040dc       ??_C@_02FOEOMHFC@?$CL?$DN@ 000000018002a0dc     libvcruntime:undname.obj
 0002:000040e0       ??_C@_02FKMDLLOA@?9?$DN@   000000018002a0e0     libvcruntime:undname.obj
 0002:000040e4       ??_C@_02FJEHGPIO@?1?$DN@   000000018002a0e4     libvcruntime:undname.obj
 0002:000040e8       ??_C@_02FENAOKFI@?$CF?$DN@ 000000018002a0e8     libvcruntime:undname.obj
 0002:000040ec       ??_C@_03IKFCCPFF@?$DO?$DO?$DN@ 000000018002a0ec     libvcruntime:undname.obj
 0002:000040f0       ??_C@_03CDNPDDLA@?$DM?$DM?$DN@ 000000018002a0f0     libvcruntime:undname.obj
 0002:000040f4       ??_C@_02FGJGFEAB@?$CG?$DN@ 000000018002a0f4     libvcruntime:undname.obj
 0002:000040f8       ??_C@_02DHLNPPGH@?$HM?$DN@ 000000018002a0f8     libvcruntime:undname.obj
 0002:000040fc       ??_C@_02MHEGNOJ@?$FO?$DN@  000000018002a0fc     libvcruntime:undname.obj
 0002:00004100       ??_C@_09IFPLHPGF@?$GAvftable?8@ 000000018002a100     libvcruntime:undname.obj
 0002:00004110       ??_C@_09BLBHBJP@?$GAvbtable?8@ 000000018002a110     libvcruntime:undname.obj
 0002:00004120       ??_C@_07FEEIOKP@?$GAvcall?8@ 000000018002a120     libvcruntime:undname.obj
 0002:00004128       ??_C@_08LLFFHHDJ@?$GAtypeof?8@ 000000018002a128     libvcruntime:undname.obj
 0002:00004138       ??_C@_0BF@KDPPACIK@?$GAlocal?5static?5guard?8@ 000000018002a138     libvcruntime:undname.obj
 0002:00004150       ??_C@_08OBABFOLI@?$GAstring?8@ 000000018002a150     libvcruntime:undname.obj
 0002:00004160       ??_C@_0BD@JDLKDPAB@?$GAvbase?5destructor?8@ 000000018002a160     libvcruntime:undname.obj
 0002:00004178       ??_C@_0BN@DEGPLNFK@?$GAvector?5deleting?5destructor?8@ 000000018002a178     libvcruntime:undname.obj
 0002:00004198       ??_C@_0BO@OBMKPJIG@?$GAdefault?5constructor?5closure?8@ 000000018002a198     libvcruntime:undname.obj
 0002:000041b8       ??_C@_0BN@IMDCHIKM@?$GAscalar?5deleting?5destructor?8@ 000000018002a1b8     libvcruntime:undname.obj
 0002:000041d8       ??_C@_0BO@PFGOCPJJ@?$GAvector?5constructor?5iterator?8@ 000000018002a1d8     libvcruntime:undname.obj
 0002:000041f8       ??_C@_0BN@LFPFMEDL@?$GAvector?5destructor?5iterator?8@ 000000018002a1f8     libvcruntime:undname.obj
 0002:00004218       ??_C@_0CE@IKBNEHA@?$GAvector?5vbase?5constructor?5itera@ 000000018002a218     libvcruntime:undname.obj
 0002:00004240       ??_C@_0BL@NILFHHPC@?$GAvirtual?5displacement?5map?8@ 000000018002a240     libvcruntime:undname.obj
 0002:00004260       ??_C@_0CB@JONCMFFK@?$GAeh?5vector?5constructor?5iterator@ 000000018002a260     libvcruntime:undname.obj
 0002:00004288       ??_C@_0CA@GCEOPDGL@?$GAeh?5vector?5destructor?5iterator?8@ 000000018002a288     libvcruntime:undname.obj
 0002:000042a8       ??_C@_0CH@OOJPLCPH@?$GAeh?5vector?5vbase?5constructor?5it@ 000000018002a2a8     libvcruntime:undname.obj
 0002:000042d0       ??_C@_0BL@LLKPOHJI@?$GAcopy?5constructor?5closure?8@ 000000018002a2d0     libvcruntime:undname.obj
 0002:000042f0       ??_C@_0BA@KBCDOMBN@?$GAudt?5returning?8@ 000000018002a2f0     libvcruntime:undname.obj
 0002:00004300       ??_C@_03KLGMFNMG@?$GAEH@   000000018002a300     libvcruntime:undname.obj
 0002:00004304       ??_C@_05KHLCHHI@?$GARTTI@  000000018002a304     libvcruntime:undname.obj
 0002:00004310       ??_C@_0BA@KKLDJDLB@?$GAlocal?5vftable?8@ 000000018002a310     libvcruntime:undname.obj
 0002:00004320       ??_C@_0CE@IIHCMGGL@?$GAlocal?5vftable?5constructor?5clos@ 000000018002a320     libvcruntime:undname.obj
 0002:00004344       ??_C@_06FHBGPFGH@?5new?$FL?$FN@ 000000018002a344     libvcruntime:undname.obj
 0002:00004350       ??_C@_09LBNFPBCA@?5delete?$FL?$FN@ 000000018002a350     libvcruntime:undname.obj
 0002:00004360       ??_C@_0P@HJKNJFNN@?$GAomni?5callsig?8@ 000000018002a360     libvcruntime:undname.obj
 0002:00004370       ??_C@_0BL@CNOONJFP@?$GAplacement?5delete?5closure?8@ 000000018002a370     libvcruntime:undname.obj
 0002:00004390       ??_C@_0BN@CKNJLHMB@?$GAplacement?5delete?$FL?$FN?5closure?8@ 000000018002a390     libvcruntime:undname.obj
 0002:000043b0       ??_C@_0CG@CFDHKGGD@?$GAmanaged?5vector?5constructor?5ite@ 000000018002a3b0     libvcruntime:undname.obj
 0002:000043d8       ??_C@_0CF@IMGKMJNO@?$GAmanaged?5vector?5destructor?5iter@ 000000018002a3d8     libvcruntime:undname.obj
 0002:00004400       ??_C@_0CG@HLDDJMAG@?$GAeh?5vector?5copy?5constructor?5ite@ 000000018002a400     libvcruntime:undname.obj
 0002:00004428       ??_C@_0CM@FCBBDIGB@?$GAeh?5vector?5vbase?5copy?5construct@ 000000018002a428     libvcruntime:undname.obj
 0002:00004458       ??_C@_0BL@CLIPGLGB@?$GAdynamic?5initializer?5for?5?8@ 000000018002a458     libvcruntime:undname.obj
 0002:00004478       ??_C@_0CB@PDBIFEP@?$GAdynamic?5atexit?5destructor?5for?5@ 000000018002a478     libvcruntime:undname.obj
 0002:000044a0       ??_C@_0CD@CGAJBKEJ@?$GAvector?5copy?5constructor?5iterat@ 000000018002a4a0     libvcruntime:undname.obj
 0002:000044c8       ??_C@_0CJ@GJELGAMM@?$GAvector?5vbase?5copy?5constructor?5@ 000000018002a4c8     libvcruntime:undname.obj
 0002:000044f8       ??_C@_0CL@FGIJHLCE@?$GAmanaged?5vector?5copy?5constructo@ 000000018002a4f8     libvcruntime:undname.obj
 0002:00004528       ??_C@_0BM@PMGGMLDN@?$GAlocal?5static?5thread?5guard?8@ 000000018002a528     libvcruntime:undname.obj
 0002:00004548       ??_C@_0N@BDNMDMOL@operator?5?$CC?$CC?5@ 000000018002a548     libvcruntime:undname.obj
 0002:00004558       ??_C@_0BC@GGEBGALA@operator?5co_await@ 000000018002a558     libvcruntime:undname.obj
 0002:00004570       ??_C@_0M@GAAIMMOH@operator?$DM?$DN?$DO@ 000000018002a570     libvcruntime:undname.obj
 0002:00004580       ??_C@_0BC@DAFEJGAK@?5Type?5Descriptor?8@ 000000018002a580     libvcruntime:undname.obj
 0002:00004598       ??_C@_0BM@LDKODKLH@?5Base?5Class?5Descriptor?5at?5?$CI@ 000000018002a598     libvcruntime:undname.obj
 0002:000045b8       ??_C@_0BD@LGICGFMM@?5Base?5Class?5Array?8@ 000000018002a5b8     libvcruntime:undname.obj
 0002:000045d0       ??_C@_0BN@MECKDCOJ@?5Class?5Hierarchy?5Descriptor?8@ 000000018002a5d0     libvcruntime:undname.obj
 0002:000045f0       ??_C@_0BK@CFCOFLF@?5Complete?5Object?5Locator?8@ 000000018002a5f0     libvcruntime:undname.obj
 0002:00004610       ??_C@_0BG@JNJLAMPM@?$GAanonymous?5namespace?8@ 000000018002a610     libvcruntime:undname.obj
 0002:00004640       ??_C@_1DM@KHCHBNEB@?$AAa?$AAp?$AAi?$AA?9?$AAm?$AAs?$AA?9?$AAw?$AAi?$AAn?$AA?9?$AAc?$AAo?$AAr?$AAe@ 000000018002a640     libvcruntime:winapi_downlevel.obj
 0002:00004680       ??_C@_1DK@LPPGFMPP@?$AAa?$AAp?$AAi?$AA?9?$AAm?$AAs?$AA?9?$AAw?$AAi?$AAn?$AA?9?$AAc?$AAo?$AAr?$AAe@ 000000018002a680     libvcruntime:winapi_downlevel.obj
 0002:000046c0       ??_C@_1BC@GDMECMAK@?$AAk?$AAe?$AAr?$AAn?$AAe?$AAl?$AA3?$AA2@ 000000018002a6c0     libvcruntime:winapi_downlevel.obj
 0002:000046d8       ??_C@_1BA@PFFKHIOG@?$AAa?$AAp?$AAi?$AA?9?$AAm?$AAs?$AA?9@ 000000018002a6d8     libvcruntime:winapi_downlevel.obj
 0002:000046f0       ??_C@_08KNHFBNJ@FlsAlloc@  000000018002a6f0     libvcruntime:winapi_downlevel.obj
 0002:00004708       ??_C@_07PEJMOBNF@FlsFree@  000000018002a708     libvcruntime:winapi_downlevel.obj
 0002:00004718       ??_C@_0M@GDNOONDI@FlsGetValue@ 000000018002a718     libvcruntime:winapi_downlevel.obj
 0002:00004730       ??_C@_0M@JCPCPOEF@FlsSetValue@ 000000018002a730     libvcruntime:winapi_downlevel.obj
 0002:00004748       ??_C@_0BM@HCFOFFN@InitializeCriticalSectionEx@ 000000018002a748     libvcruntime:winapi_downlevel.obj
 0002:000048e0       ?format_validation_lookup_table_spectre@__crt_stdio_output@@3V?$spectre_mitigated_lookup_table@Ustate_transition_pair@__crt_stdio_output@@$0IA@@1@B 000000018002a8e0     libucrt:output.obj
 0002:00004ce0       ??_C@_1O@CEDCILHN@?$AA?$CI?$AAn?$AAu?$AAl?$AAl?$AA?$CJ@ 000000018002ace0     libucrt:output.obj
 0002:00004cf0       ??_C@_06OJHGLDPL@?$CInull?$CJ@ 000000018002acf0     libucrt:output.obj
 0002:00004d00       __acrt_exception_action_table 000000018002ad00     libucrt:exception_filter.obj
 0002:00004dc0       __acrt_signal_action_table_count 000000018002adc0     libucrt:exception_filter.obj
 0002:00004dc8       __acrt_signal_action_first_fpe_index 000000018002adc8     libucrt:exception_filter.obj
 0002:00004dd0       __acrt_signal_action_fpe_count 000000018002add0     libucrt:exception_filter.obj
 0002:00004dd8       ??_C@_1BI@BGOHAHKC@?$AAm?$AAs?$AAc?$AAo?$AAr?$AAe?$AAe?$AA?4?$AAd?$AAl?$AAl@ 000000018002add8     libucrt:exit.obj
 0002:00004df0       ??_C@_0P@MIGLKIOC@CorExitProcess@ 000000018002adf0     libucrt:exit.obj
 0002:00004fa0       ??_C@_1EA@JGEFHKEI@?$AAa?$AAp?$AAi?$AA?9?$AAm?$AAs?$AA?9?$AAw?$AAi?$AAn?$AA?9?$AAc?$AAo?$AAr?$AAe@ 000000018002afa0     libucrt:winapi_thunks.obj
 0002:00004fe0       ??_C@_1DI@IJCEHOCB@?$AAa?$AAp?$AAi?$AA?9?$AAm?$AAs?$AA?9?$AAw?$AAi?$AAn?$AA?9?$AAc?$AAo?$AAr?$AAe@ 000000018002afe0     libucrt:winapi_thunks.obj
 0002:00005020       ??_C@_1EI@MPIAOHOC@?$AAa?$AAp?$AAi?$AA?9?$AAm?$AAs?$AA?9?$AAw?$AAi?$AAn?$AA?9?$AAc?$AAo?$AAr?$AAe@ 000000018002b020     libucrt:winapi_thunks.obj
 0002:00005070       ??_C@_1FK@FPHCKFIE@?$AAa?$AAp?$AAi?$AA?9?$AAm?$AAs?$AA?9?$AAw?$AAi?$AAn?$AA?9?$AAc?$AAo?$AAr?$AAe@ 000000018002b070     libucrt:winapi_thunks.obj
 0002:000050d0       ??_C@_1EM@DILCGIIO@?$AAa?$AAp?$AAi?$AA?9?$AAm?$AAs?$AA?9?$AAw?$AAi?$AAn?$AA?9?$AAc?$AAo?$AAr?$AAe@ 000000018002b0d0     libucrt:winapi_thunks.obj
 0002:00005120       ??_C@_1DM@LNCGDDPN@?$AAa?$AAp?$AAi?$AA?9?$AAm?$AAs?$AA?9?$AAw?$AAi?$AAn?$AA?9?$AAc?$AAo?$AAr?$AAe@ 000000018002b120     libucrt:winapi_thunks.obj
 0002:00005160       ??_C@_1DO@FPAPJEMD@?$AAa?$AAp?$AAi?$AA?9?$AAm?$AAs?$AA?9?$AAw?$AAi?$AAn?$AA?9?$AAc?$AAo?$AAr?$AAe@ 000000018002b160     libucrt:winapi_thunks.obj
 0002:000051a0       ??_C@_1DK@NDHNAHIO@?$AAa?$AAp?$AAi?$AA?9?$AAm?$AAs?$AA?9?$AAw?$AAi?$AAn?$AA?9?$AAc?$AAo?$AAr?$AAe@ 000000018002b1a0     libucrt:winapi_thunks.obj
 0002:000051e0       ??_C@_1DM@KGHDGBCM@?$AAa?$AAp?$AAi?$AA?9?$AAm?$AAs?$AA?9?$AAw?$AAi?$AAn?$AA?9?$AAc?$AAo?$AAr?$AAe@ 000000018002b1e0     libucrt:winapi_thunks.obj
 0002:00005220       ??_C@_1EO@IJIOEFOH@?$AAa?$AAp?$AAi?$AA?9?$AAm?$AAs?$AA?9?$AAw?$AAi?$AAn?$AA?9?$AAr?$AAt?$AAc?$AAo@ 000000018002b220     libucrt:winapi_thunks.obj
 0002:00005270       ??_C@_1FG@HHGEKANL@?$AAa?$AAp?$AAi?$AA?9?$AAm?$AAs?$AA?9?$AAw?$AAi?$AAn?$AA?9?$AAs?$AAe?$AAc?$AAu@ 000000018002b270     libucrt:winapi_thunks.obj
 0002:000052d0       ??_C@_1EG@DBIOJECG@?$AAe?$AAx?$AAt?$AA?9?$AAm?$AAs?$AA?9?$AAw?$AAi?$AAn?$AA?9?$AAn?$AAt?$AAu?$AAs@ 000000018002b2d0     libucrt:winapi_thunks.obj
 0002:00005320       ??_C@_1EO@FIHMJCLF@?$AAe?$AAx?$AAt?$AA?9?$AAm?$AAs?$AA?9?$AAw?$AAi?$AAn?$AA?9?$AAn?$AAt?$AAu?$AAs@ 000000018002b320     libucrt:winapi_thunks.obj
 0002:00005370       ??_C@_1BC@DNHGCMLG@?$AAa?$AAd?$AAv?$AAa?$AAp?$AAi?$AA3?$AA2@ 000000018002b370     libucrt:winapi_thunks.obj
 0002:00005388       ??_C@_1M@OAIMIKLP@?$AAn?$AAt?$AAd?$AAl?$AAl@ 000000018002b388     libucrt:winapi_thunks.obj
 0002:000053a0       ??_C@_1EG@DPGNFKGC@?$AAa?$AAp?$AAi?$AA?9?$AAm?$AAs?$AA?9?$AAw?$AAi?$AAn?$AA?9?$AAa?$AAp?$AAp?$AAm@ 000000018002b3a0     libucrt:winapi_thunks.obj
 0002:000053e8       ??_C@_1O@BCCLBEOE@?$AAu?$AAs?$AAe?$AAr?$AA3?$AA2@ 000000018002b3e8     libucrt:winapi_thunks.obj
 0002:000053f8       ??_C@_1BA@IAIFMGEF@?$AAe?$AAx?$AAt?$AA?9?$AAm?$AAs?$AA?9@ 000000018002b3f8     libucrt:winapi_thunks.obj
 0002:00005410       ??_C@_0BA@FHFNEAED@AreFileApisANSI@ 000000018002b410     libucrt:winapi_thunks.obj
 0002:00005450       ??_C@_0O@KKBNKAPF@LCMapStringEx@ 000000018002b450     libucrt:winapi_thunks.obj
 0002:00005468       ??_C@_0BB@HBDEELFH@LocaleNameToLCID@ 000000018002b468     libucrt:winapi_thunks.obj
 0002:00005480       ??_C@_0CF@OJOFEIGO@AppPolicyGetProcessTerminationM@ 000000018002b480     libucrt:winapi_thunks.obj
 0002:000054b0       ??_C@_0BI@BKLFFAPO@SetThreadStackGuarantee@ 000000018002b4b0     libucrt:winapi_thunks.obj
 0002:00005550       ??_C@_03OEIAHPBN@INF@      000000018002b550     libucrt:cvt.obj
 0002:00005554       ??_C@_03OJHLLCGB@inf@      000000018002b554     libucrt:cvt.obj
 0002:00005558       ??_C@_03LKNCIKJB@NAN@      000000018002b558     libucrt:cvt.obj
 0002:0000555c       ??_C@_03LHCJEHON@nan@      000000018002b55c     libucrt:cvt.obj
 0002:00005560       ??_C@_09OFJJIMPC@NAN?$CISNAN?$CJ@ 000000018002b560     libucrt:cvt.obj
 0002:00005570       ??_C@_09IPFBKMDL@nan?$CIsnan?$CJ@ 000000018002b570     libucrt:cvt.obj
 0002:00005580       ??_C@_08IKHNHAJ@NAN?$CIIND?$CJ@ 000000018002b580     libucrt:cvt.obj
 0002:00005590       ??_C@_08OFCDMILK@nan?$CIind?$CJ@ 000000018002b590     libucrt:cvt.obj
 0002:0000559c       ??_C@_05KLBDPFGC@e?$CL000@ 000000018002b59c     libucrt:cvt.obj
 0002:000055b0       __lc_time_c                000000018002b5b0     libucrt:nlsdata.obj
 0002:00005870       ??_C@_03KOEHGMDN@Sun@      000000018002b870     libucrt:nlsdata.obj
 0002:00005874       ??_C@_03PDAGKDH@Mon@       000000018002b874     libucrt:nlsdata.obj
 0002:00005878       ??_C@_03NAGEINEP@Tue@      000000018002b878     libucrt:nlsdata.obj
 0002:0000587c       ??_C@_03MHOMLAJA@Wed@      000000018002b87c     libucrt:nlsdata.obj
 0002:00005880       ??_C@_03IOFIKPDN@Thu@      000000018002b880     libucrt:nlsdata.obj
 0002:00005884       ??_C@_03IDIOELNC@Fri@      000000018002b884     libucrt:nlsdata.obj
 0002:00005888       ??_C@_03FEFJNEK@Sat@       000000018002b888     libucrt:nlsdata.obj
 0002:0000588c       ??_C@_06OOPIFAJ@Sunday@    000000018002b88c     libucrt:nlsdata.obj
 0002:00005894       ??_C@_06JLEDEDGH@Monday@   000000018002b894     libucrt:nlsdata.obj
 0002:000058a0       ??_C@_07BAAGCFCM@Tuesday@  000000018002b8a0     libucrt:nlsdata.obj
 0002:000058a8       ??_C@_09DLIGFAKA@Wednesday@ 000000018002b8a8     libucrt:nlsdata.obj
 0002:000058b8       ??_C@_08HACCIKIA@Thursday@ 000000018002b8b8     libucrt:nlsdata.obj
 0002:000058c4       ??_C@_06JECMNKMI@Friday@   000000018002b8c4     libucrt:nlsdata.obj
 0002:000058d0       ??_C@_08INBOOONO@Saturday@ 000000018002b8d0     libucrt:nlsdata.obj
 0002:000058dc       ??_C@_03JIHJHPIE@Jan@      000000018002b8dc     libucrt:nlsdata.obj
 0002:000058e0       ??_C@_03HJBDCHOM@Feb@      000000018002b8e0     libucrt:nlsdata.obj
 0002:000058e4       ??_C@_03ODNJBKGA@Mar@      000000018002b8e4     libucrt:nlsdata.obj
 0002:000058e8       ??_C@_03LEOLGMJP@Apr@      000000018002b8e8     libucrt:nlsdata.obj
 0002:000058ec       ??_C@_03CNMDKL@May@        000000018002b8ec     libucrt:nlsdata.obj
 0002:000058f0       ??_C@_03IDFGHECI@Jun@      000000018002b8f0     libucrt:nlsdata.obj
 0002:000058f4       ??_C@_03LBGABGKK@Jul@      000000018002b8f4     libucrt:nlsdata.obj
 0002:000058f8       ??_C@_03IFJFEIGA@Aug@      000000018002b8f8     libucrt:nlsdata.obj
 0002:000058fc       ??_C@_03GGCAPAJC@Sep@      000000018002b8fc     libucrt:nlsdata.obj
 0002:00005900       ??_C@_03BMAOKBAD@Oct@      000000018002b900     libucrt:nlsdata.obj
 0002:00005904       ??_C@_03JPJOFNIA@Nov@      000000018002b904     libucrt:nlsdata.obj
 0002:00005908       ??_C@_03MKABNOCG@Dec@      000000018002b908     libucrt:nlsdata.obj
 0002:00005910       ??_C@_07CGJPFGJA@January@  000000018002b910     libucrt:nlsdata.obj
 0002:00005918       ??_C@_08GNJGEPFN@February@ 000000018002b918     libucrt:nlsdata.obj
 0002:00005924       ??_C@_05HPCKOFNC@March@    000000018002b924     libucrt:nlsdata.obj
 0002:0000592c       ??_C@_05DMJDNLEJ@April@    000000018002b92c     libucrt:nlsdata.obj
 0002:00005934       ??_C@_04CNLMGBGM@June@     000000018002b934     libucrt:nlsdata.obj
 0002:0000593c       ??_C@_04MIEPOIFP@July@     000000018002b93c     libucrt:nlsdata.obj
 0002:00005944       ??_C@_06LBBHFDDG@August@   000000018002b944     libucrt:nlsdata.obj
 0002:00005950       ??_C@_09BHHEALKD@September@ 000000018002b950     libucrt:nlsdata.obj
 0002:00005960       ??_C@_07JJNFCEND@October@  000000018002b960     libucrt:nlsdata.obj
 0002:00005968       ??_C@_08HCHEGEOA@November@ 000000018002b968     libucrt:nlsdata.obj
 0002:00005978       ??_C@_08EDHMEBNP@December@ 000000018002b978     libucrt:nlsdata.obj
 0002:00005984       ??_C@_02DEDBPAFC@AM@       000000018002b984     libucrt:nlsdata.obj
 0002:00005988       ??_C@_02CJNFDJBF@PM@       000000018002b988     libucrt:nlsdata.obj
 0002:00005990       ??_C@_08BPBNCDIB@MM?1dd?1yy@ 000000018002b990     libucrt:nlsdata.obj
 0002:000059a0       ??_C@_0BE@CKGJFCPC@dddd?0?5MMMM?5dd?0?5yyyy@ 000000018002b9a0     libucrt:nlsdata.obj
 0002:000059b8       ??_C@_08JCCMCCIL@HH?3mm?3ss@ 000000018002b9b8     libucrt:nlsdata.obj
 0002:000059c8       ??_C@_17MBGCMIPB@?$AAS?$AAu?$AAn@ 000000018002b9c8     libucrt:nlsdata.obj
 0002:000059d0       ??_C@_17KBOMKBF@?$AAM?$AAo?$AAn@ 000000018002b9d0     libucrt:nlsdata.obj
 0002:000059d8       ??_C@_17BMKGEGOJ@?$AAT?$AAu?$AAe@ 000000018002b9d8     libucrt:nlsdata.obj
 0002:000059e0       ??_C@_17CJEDCEPE@?$AAW?$AAe?$AAd@ 000000018002b9e0     libucrt:nlsdata.obj
 0002:000059e8       ??_C@_17PDPHAADD@?$AAT?$AAh?$AAu@ 000000018002b9e8     libucrt:nlsdata.obj
 0002:000059f0       ??_C@_17HFOLPPLP@?$AAF?$AAr?$AAi@ 000000018002b9f0     libucrt:nlsdata.obj
 0002:000059f8       ??_C@_17GGIBDPIH@?$AAS?$AAa?$AAt@ 000000018002b9f8     libucrt:nlsdata.obj
 0002:00005a00       ??_C@_1O@IHNHDHPB@?$AAS?$AAu?$AAn?$AAd?$AAa?$AAy@ 000000018002ba00     libucrt:nlsdata.obj
 0002:00005a10       ??_C@_1O@MMNBFLIA@?$AAM?$AAo?$AAn?$AAd?$AAa?$AAy@ 000000018002ba10     libucrt:nlsdata.obj
 0002:00005a20       ??_C@_1BA@ENFBFFEK@?$AAT?$AAu?$AAe?$AAs?$AAd?$AAa?$AAy@ 000000018002ba20     libucrt:nlsdata.obj
 0002:00005a30       ??_C@_1BE@EBOGMDOH@?$AAW?$AAe?$AAd?$AAn?$AAe?$AAs?$AAd?$AAa?$AAy@ 000000018002ba30     libucrt:nlsdata.obj
 0002:00005a48       ??_C@_1BC@HHMNLIHE@?$AAT?$AAh?$AAu?$AAr?$AAs?$AAd?$AAa?$AAy@ 000000018002ba48     libucrt:nlsdata.obj
 0002:00005a60       ??_C@_1O@PDICJHAG@?$AAF?$AAr?$AAi?$AAd?$AAa?$AAy@ 000000018002ba60     libucrt:nlsdata.obj
 0002:00005a70       ??_C@_1BC@ENMNNPAJ@?$AAS?$AAa?$AAt?$AAu?$AAr?$AAd?$AAa?$AAy@ 000000018002ba70     libucrt:nlsdata.obj
 0002:00005a88       ??_C@_17DKNBKCHM@?$AAJ?$AAa?$AAn@ 000000018002ba88     libucrt:nlsdata.obj
 0002:00005a90       ??_C@_17LMDJEKJN@?$AAF?$AAe?$AAb@ 000000018002ba90     libucrt:nlsdata.obj
 0002:00005a98       ??_C@_17CKNLEDEC@?$AAM?$AAa?$AAr@ 000000018002ba98     libucrt:nlsdata.obj
 0002:00005aa0       ??_C@_17LFPOIHDD@?$AAA?$AAp?$AAr@ 000000018002baa0     libucrt:nlsdata.obj
 0002:00005aa8       ??_C@_17PNNKMEED@?$AAM?$AAa?$AAy@ 000000018002baa8     libucrt:nlsdata.obj
 0002:00005ab0       ??_C@_17KCJGOCPB@?$AAJ?$AAu?$AAn@ 000000018002bab0     libucrt:nlsdata.obj
 0002:00005ab8       ??_C@_17IJPCKHK@?$AAJ?$AAu?$AAl@ 000000018002bab8     libucrt:nlsdata.obj
 0002:00005ac0       ??_C@_17ICPELBCN@?$AAA?$AAu?$AAg@ 000000018002bac0     libucrt:nlsdata.obj
 0002:00005ac8       ??_C@_17HCHCOKMG@?$AAS?$AAe?$AAp@ 000000018002bac8     libucrt:nlsdata.obj
 0002:00005ad0       ??_C@_17FNLKOI@?$AAO?$AAc?$AAt@ 000000018002bad0     libucrt:nlsdata.obj
 0002:00005ad8       ??_C@_17BBDMLCIG@?$AAN?$AAo?$AAv@ 000000018002bad8     libucrt:nlsdata.obj
 0002:00005ae0       ??_C@_17EGKACKIF@?$AAD?$AAe?$AAc@ 000000018002bae0     libucrt:nlsdata.obj
 0002:00005ae8       ??_C@_1BA@EFMEIEBA@?$AAJ?$AAa?$AAn?$AAu?$AAa?$AAr?$AAy@ 000000018002bae8     libucrt:nlsdata.obj
 0002:00005af8       ??_C@_1BC@JGDDFFAM@?$AAF?$AAe?$AAb?$AAr?$AAu?$AAa?$AAr?$AAy@ 000000018002baf8     libucrt:nlsdata.obj
 0002:00005b10       ??_C@_1M@IKEENEDF@?$AAM?$AAa?$AAr?$AAc?$AAh@ 000000018002bb10     libucrt:nlsdata.obj
 0002:00005b20       ??_C@_1M@GJNLMHFD@?$AAA?$AAp?$AAr?$AAi?$AAl@ 000000018002bb20     libucrt:nlsdata.obj
 0002:00005b30       ??_C@_19EPFLPGAP@?$AAJ?$AAu?$AAn?$AAe@ 000000018002bb30     libucrt:nlsdata.obj
 0002:00005b40       ??_C@_19BIFMLPCD@?$AAJ?$AAu?$AAl?$AAy@ 000000018002bb40     libucrt:nlsdata.obj
 0002:00005b50       ??_C@_1O@PAHLKOAC@?$AAA?$AAu?$AAg?$AAu?$AAs?$AAt@ 000000018002bb50     libucrt:nlsdata.obj
 0002:00005b60       ??_C@_1BE@DKAAMBJL@?$AAS?$AAe?$AAp?$AAt?$AAe?$AAm?$AAb?$AAe?$AAr@ 000000018002bb60     libucrt:nlsdata.obj
 0002:00005b78       ??_C@_1BA@EPANDLNG@?$AAO?$AAc?$AAt?$AAo?$AAb?$AAe?$AAr@ 000000018002bb78     libucrt:nlsdata.obj
 0002:00005b88       ??_C@_1BC@BGLIFPF@?$AAN?$AAo?$AAv?$AAe?$AAm?$AAb?$AAe?$AAr@ 000000018002bb88     libucrt:nlsdata.obj
 0002:00005ba0       ??_C@_1BC@FEMKIFH@?$AAD?$AAe?$AAc?$AAe?$AAm?$AAb?$AAe?$AAr@ 000000018002bba0     libucrt:nlsdata.obj
 0002:00005bb4       ??_C@_15ODEHAHHF@?$AAA?$AAM@ 000000018002bbb4     libucrt:nlsdata.obj
 0002:00005bbc       ??_C@_15CLMNNGEL@?$AAP?$AAM@ 000000018002bbbc     libucrt:nlsdata.obj
 0002:00005bc8       ??_C@_1BC@IEBCMHCM@?$AAM?$AAM?$AA?1?$AAd?$AAd?$AA?1?$AAy?$AAy@ 000000018002bbc8     libucrt:nlsdata.obj
 0002:00005be0       ??_C@_1CI@KNAKOEBC@?$AAd?$AAd?$AAd?$AAd?$AA?0?$AA?5?$AAM?$AAM?$AAM?$AAM?$AA?5?$AAd?$AAd?$AA?0?$AA?5@ 000000018002bbe0     libucrt:nlsdata.obj
 0002:00005c08       ??_C@_1BC@GDGBMEMK@?$AAH?$AAH?$AA?3?$AAm?$AAm?$AA?3?$AAs?$AAs@ 000000018002bc08     libucrt:nlsdata.obj
 0002:00005c20       ??_C@_1M@BMHNFIME@?$AAe?$AAn?$AA?9?$AAU?$AAS@ 000000018002bc20     libucrt:nlsdata.obj
 0002:00005c50       ??_C@_1M@HPNHIDJI@?$AAj?$AAa?$AA?9?$AAJ?$AAP@ 000000018002bc50     libucrt:mbctype.obj
 0002:00005c60       ??_C@_1M@BIBDDEMK@?$AAz?$AAh?$AA?9?$AAC?$AAN@ 000000018002bc60     libucrt:mbctype.obj
 0002:00005c70       ??_C@_1M@JLOOOEGK@?$AAk?$AAo?$AA?9?$AAK?$AAR@ 000000018002bc70     libucrt:mbctype.obj
 0002:00005c80       ??_C@_1M@CLNBBOPM@?$AAz?$AAh?$AA?9?$AAT?$AAW@ 000000018002bc80     libucrt:mbctype.obj
 0002:00005c90       __newctype                 000000018002bc90     libucrt:ctype.obj
 0002:00005f90       __newclmap                 000000018002bf90     libucrt:ctype.obj
 0002:00006110       __newcumap                 000000018002c110     libucrt:ctype.obj
 0002:00006290       _wctype                    000000018002c290     libucrt:ctype.obj
 0002:000072e0       ??_C@_15EMKDOKLE@?$AAa?$AAr@ 000000018002d2e0     libucrt:lcidtoname_downlevel.obj
 0002:000072e8       ??_C@_15KNPADPLH@?$AAb?$AAg@ 000000018002d2e8     libucrt:lcidtoname_downlevel.obj
 0002:000072f0       ??_C@_15EDMHLDMO@?$AAc?$AAa@ 000000018002d2f0     libucrt:lcidtoname_downlevel.obj
 0002:000072f8       ??_C@_1O@BPEAJADD@?$AAz?$AAh?$AA?9?$AAC?$AAH?$AAS@ 000000018002d2f8     libucrt:lcidtoname_downlevel.obj
 0002:00007308       ??_C@_15LJNHCMNK@?$AAc?$AAs@ 000000018002d308     libucrt:lcidtoname_downlevel.obj
 0002:00007310       ??_C@_15FOMCIDHG@?$AAd?$AAa@ 000000018002d310     libucrt:lcidtoname_downlevel.obj
 0002:00007318       ??_C@_15NBKABECB@?$AAd?$AAe@ 000000018002d318     libucrt:lcidtoname_downlevel.obj
 0002:00007320       ??_C@_15GHPEIIAO@?$AAe?$AAl@ 000000018002d320     libucrt:lcidtoname_downlevel.obj
 0002:00007328       ??_C@_15MNPNEAIF@?$AAe?$AAn@ 000000018002d328     libucrt:lcidtoname_downlevel.obj
 0002:00007330       ??_C@_15GPIOMPMH@?$AAe?$AAs@ 000000018002d330     libucrt:lcidtoname_downlevel.obj
 0002:00007338       ??_C@_15NGLOAKJC@?$AAf?$AAi@ 000000018002d338     libucrt:lcidtoname_downlevel.obj
 0002:00007340       ??_C@_15FBKGNKAM@?$AAf?$AAr@ 000000018002d340     libucrt:lcidtoname_downlevel.obj
 0002:00007348       ??_C@_15KGGCNEFK@?$AAh?$AAe@ 000000018002d348     libucrt:lcidtoname_downlevel.obj
 0002:00007350       ??_C@_15PGHLIDMF@?$AAh?$AAu@ 000000018002d350     libucrt:lcidtoname_downlevel.obj
 0002:00007358       ??_C@_15BIEMAPLM@?$AAi?$AAs@ 000000018002d358     libucrt:lcidtoname_downlevel.obj
 0002:00007360       ??_C@_15IFJLDHAF@?$AAi?$AAt@ 000000018002d360     libucrt:lcidtoname_downlevel.obj
 0002:00007368       ??_C@_15GEMIOCAG@?$AAj?$AAa@ 000000018002d368     libucrt:lcidtoname_downlevel.obj
 0002:00007370       ??_C@_15EPELEGJA@?$AAk?$AAo@ 000000018002d370     libucrt:lcidtoname_downlevel.obj
 0002:00007378       ??_C@_15NDDHIMN@?$AAn?$AAl@ 000000018002d378     libucrt:lcidtoname_downlevel.obj
 0002:00007380       ??_C@_15BPIGNHCD@?$AAn?$AAo@ 000000018002d380     libucrt:lcidtoname_downlevel.obj
 0002:00007388       ??_C@_15DEOPBLCG@?$AAp?$AAl@ 000000018002d388     libucrt:lcidtoname_downlevel.obj
 0002:00007390       ??_C@_15KBECGEFG@?$AAp?$AAt@ 000000018002d390     libucrt:lcidtoname_downlevel.obj
 0002:00007398       ??_C@_15GLJCBFMD@?$AAr?$AAo@ 000000018002d398     libucrt:lcidtoname_downlevel.obj
 0002:000073a0       ??_C@_15FEDGKCDI@?$AAr?$AAu@ 000000018002d3a0     libucrt:lcidtoname_downlevel.obj
 0002:000073a8       ??_C@_15GLKMLLHM@?$AAh?$AAr@ 000000018002d3a8     libucrt:lcidtoname_downlevel.obj
 0002:000073b0       ??_C@_15CPKMFBDB@?$AAs?$AAk@ 000000018002d3b0     libucrt:lcidtoname_downlevel.obj
 0002:000073b8       ??_C@_15BAAIOGMK@?$AAs?$AAq@ 000000018002d3b8     libucrt:lcidtoname_downlevel.obj
 0002:000073c0       ??_C@_15INNPNOHD@?$AAs?$AAv@ 000000018002d3c0     libucrt:lcidtoname_downlevel.obj
 0002:000073c8       ??_C@_15CABMMOGH@?$AAt?$AAh@ 000000018002d3c8     libucrt:lcidtoname_downlevel.obj
 0002:000073d0       ??_C@_15BPLIHJJM@?$AAt?$AAr@ 000000018002d3d0     libucrt:lcidtoname_downlevel.obj
 0002:000073d8       ??_C@_15NEOEKKDJ@?$AAu?$AAr@ 000000018002d3d8     libucrt:lcidtoname_downlevel.obj
 0002:000073e0       ??_C@_15NFICGAJK@?$AAi?$AAd@ 000000018002d3e0     libucrt:lcidtoname_downlevel.obj
 0002:000073e8       ??_C@_15PJPFLCCM@?$AAu?$AAk@ 000000018002d3e8     libucrt:lcidtoname_downlevel.obj
 0002:000073f0       ??_C@_15HPJPHDM@?$AAb?$AAe@ 000000018002d3f0     libucrt:lcidtoname_downlevel.obj
 0002:000073f8       ??_C@_15LCHLGJII@?$AAs?$AAl@ 000000018002d3f8     libucrt:lcidtoname_downlevel.obj
 0002:00007400       ??_C@_15PCFJPHHO@?$AAe?$AAt@ 000000018002d400     libucrt:lcidtoname_downlevel.obj
 0002:00007408       ??_C@_15HPFPGODN@?$AAl?$AAv@ 000000018002d408     libucrt:lcidtoname_downlevel.obj
 0002:00007410       ??_C@_15NFFGKGLG@?$AAl?$AAt@ 000000018002d410     libucrt:lcidtoname_downlevel.obj
 0002:00007418       ??_C@_15BDAKCCHN@?$AAf?$AAa@ 000000018002d418     libucrt:lcidtoname_downlevel.obj
 0002:00007420       ??_C@_15NFGIAIAJ@?$AAv?$AAi@ 000000018002d420     libucrt:lcidtoname_downlevel.obj
 0002:00007428       ??_C@_15LMKNDMHN@?$AAh?$AAy@ 000000018002d428     libucrt:lcidtoname_downlevel.obj
 0002:00007430       ??_C@_15IJBHMCFL@?$AAa?$AAz@ 000000018002d430     libucrt:lcidtoname_downlevel.obj
 0002:00007438       ??_C@_15EKOFJABL@?$AAe?$AAu@ 000000018002d438     libucrt:lcidtoname_downlevel.obj
 0002:00007440       ??_C@_15BGHADCNK@?$AAm?$AAk@ 000000018002d440     libucrt:lcidtoname_downlevel.obj
 0002:00007448       ??_C@_15JDNICKHM@?$AAa?$AAf@ 000000018002d448     libucrt:lcidtoname_downlevel.obj
 0002:00007450       ??_C@_15KPJEDBKD@?$AAk?$AAa@ 000000018002d450     libucrt:lcidtoname_downlevel.obj
 0002:00007458       ??_C@_15PDNFFFEO@?$AAf?$AAo@ 000000018002d458     libucrt:lcidtoname_downlevel.obj
 0002:00007460       ??_C@_15OMLEGLOC@?$AAh?$AAi@ 000000018002d460     libucrt:lcidtoname_downlevel.obj
 0002:00007468       ??_C@_15IDNNENKK@?$AAm?$AAs@ 000000018002d468     libucrt:lcidtoname_downlevel.obj
 0002:00007470       ??_C@_15MACJNBMH@?$AAk?$AAk@ 000000018002d470     libucrt:lcidtoname_downlevel.obj
 0002:00007478       ??_C@_15DKDJEOND@?$AAk?$AAy@ 000000018002d478     libucrt:lcidtoname_downlevel.obj
 0002:00007480       ??_C@_15DFGDLJBG@?$AAs?$AAw@ 000000018002d480     libucrt:lcidtoname_downlevel.obj
 0002:00007488       ??_C@_15BBFAICNG@?$AAu?$AAz@ 000000018002d488     libucrt:lcidtoname_downlevel.obj
 0002:00007490       ??_C@_15DKNDCGEA@?$AAt?$AAt@ 000000018002d490     libucrt:lcidtoname_downlevel.obj
 0002:00007498       ??_C@_15MGIFMDPL@?$AAp?$AAa@ 000000018002d498     libucrt:lcidtoname_downlevel.obj
 0002:000074a0       ??_C@_15HCNDBBA@?$AAg?$AAu@ 000000018002d4a0     libucrt:lcidtoname_downlevel.obj
 0002:000074a8       ??_C@_15FNBEIBON@?$AAt?$AAa@ 000000018002d4a8     libucrt:lcidtoname_downlevel.obj
 0002:000074b0       ??_C@_15NCHGBGLK@?$AAt?$AAe@ 000000018002d4b0     libucrt:lcidtoname_downlevel.obj
 0002:000074b8       ??_C@_15PHPHCBPF@?$AAk?$AAn@ 000000018002d4b8     libucrt:lcidtoname_downlevel.obj
 0002:000074c0       ??_C@_15DLGBCKMP@?$AAm?$AAr@ 000000018002d4c0     libucrt:lcidtoname_downlevel.obj
 0002:000074c8       ??_C@_15EABBLBFF@?$AAs?$AAa@ 000000018002d4c8     libucrt:lcidtoname_downlevel.obj
 0002:000074d0       ??_C@_15CBKOMCOI@?$AAm?$AAn@ 000000018002d4d0     libucrt:lcidtoname_downlevel.obj
 0002:000074d8       ??_C@_15CKDMCJAF@?$AAg?$AAl@ 000000018002d4d8     libucrt:lcidtoname_downlevel.obj
 0002:000074e0       ??_C@_17CNJFBPG@?$AAk?$AAo?$AAk@ 000000018002d4e0     libucrt:lcidtoname_downlevel.obj
 0002:000074e8       ??_C@_17FFBJICPL@?$AAs?$AAy?$AAr@ 000000018002d4e8     libucrt:lcidtoname_downlevel.obj
 0002:000074f0       ??_C@_17KPNDCPAF@?$AAd?$AAi?$AAv@ 000000018002d4f0     libucrt:lcidtoname_downlevel.obj
 0002:000074f8       ??_C@_1M@OKAHONE@?$AAa?$AAr?$AA?9?$AAS?$AAA@ 000000018002d4f8     libucrt:lcidtoname_downlevel.obj
 0002:00007508       ??_C@_1M@FFFIGIGK@?$AAb?$AAg?$AA?9?$AAB?$AAG@ 000000018002d508     libucrt:lcidtoname_downlevel.obj
 0002:00007518       ??_C@_1M@BJNKEDC@?$AAc?$AAa?$AA?9?$AAE?$AAS@ 000000018002d518     libucrt:lcidtoname_downlevel.obj
 0002:00007528       ??_C@_1M@IJJHFJHA@?$AAc?$AAs?$AA?9?$AAC?$AAZ@ 000000018002d528     libucrt:lcidtoname_downlevel.obj
 0002:00007538       ??_C@_1M@CLPEOBGI@?$AAd?$AAa?$AA?9?$AAD?$AAK@ 000000018002d538     libucrt:lcidtoname_downlevel.obj
 0002:00007548       ??_C@_1M@MCMADGCB@?$AAd?$AAe?$AA?9?$AAD?$AAE@ 000000018002d548     libucrt:lcidtoname_downlevel.obj
 0002:00007558       ??_C@_1M@OOCKEMAM@?$AAe?$AAl?$AA?9?$AAG?$AAR@ 000000018002d558     libucrt:lcidtoname_downlevel.obj
 0002:00007568       ??_C@_1M@DDNJFGID@?$AAf?$AAi?$AA?9?$AAF?$AAI@ 000000018002d568     libucrt:lcidtoname_downlevel.obj
 0002:00007578       ??_C@_1M@GLIPPMAC@?$AAf?$AAr?$AA?9?$AAF?$AAR@ 000000018002d578     libucrt:lcidtoname_downlevel.obj
 0002:00007588       ??_C@_1M@GFMCHPE@?$AAh?$AAe?$AA?9?$AAI?$AAL@ 000000018002d588     libucrt:lcidtoname_downlevel.obj
 0002:00007598       ??_C@_1M@MHLPGNKM@?$AAh?$AAu?$AA?9?$AAH?$AAU@ 000000018002d598     libucrt:lcidtoname_downlevel.obj
 0002:000075a8       ??_C@_1M@LPDDNNPN@?$AAi?$AAs?$AA?9?$AAI?$AAS@ 000000018002d5a8     libucrt:lcidtoname_downlevel.obj
 0002:000075b8       ??_C@_1M@MADIPODN@?$AAi?$AAt?$AA?9?$AAI?$AAT@ 000000018002d5b8     libucrt:lcidtoname_downlevel.obj
 0002:000075c8       ??_C@_1M@IHBJJGG@?$AAn?$AAl?$AA?9?$AAN?$AAL@ 000000018002d5c8     libucrt:lcidtoname_downlevel.obj
 0002:000075d8       ??_C@_1M@EANAGDL@?$AAn?$AAb?$AA?9?$AAN?$AAO@ 000000018002d5d8     libucrt:lcidtoname_downlevel.obj
 0002:000075e8       ??_C@_1M@NEIEMEGP@?$AAp?$AAl?$AA?9?$AAP?$AAL@ 000000018002d5e8     libucrt:lcidtoname_downlevel.obj
 0002:000075f8       ??_C@_1M@BOCFIGEP@?$AAp?$AAt?$AA?9?$AAB?$AAR@ 000000018002d5f8     libucrt:lcidtoname_downlevel.obj
 0002:00007608       ??_C@_1M@IMPFOPBG@?$AAr?$AAo?$AA?9?$AAR?$AAO@ 000000018002d608     libucrt:lcidtoname_downlevel.obj
 0002:00007618       ??_C@_1M@IDNNEJMM@?$AAr?$AAu?$AA?9?$AAR?$AAU@ 000000018002d618     libucrt:lcidtoname_downlevel.obj
 0002:00007628       ??_C@_1M@LILEEOGM@?$AAh?$AAr?$AA?9?$AAH?$AAR@ 000000018002d628     libucrt:lcidtoname_downlevel.obj
 0002:00007638       ??_C@_1M@FKIFEHPB@?$AAs?$AAk?$AA?9?$AAS?$AAK@ 000000018002d638     libucrt:lcidtoname_downlevel.obj
 0002:00007648       ??_C@_1M@LJMAMNPJ@?$AAs?$AAq?$AA?9?$AAA?$AAL@ 000000018002d648     libucrt:lcidtoname_downlevel.obj
 0002:00007658       ??_C@_1M@GIAKDKJK@?$AAs?$AAv?$AA?9?$AAS?$AAE@ 000000018002d658     libucrt:lcidtoname_downlevel.obj
 0002:00007668       ??_C@_1M@MKJKIKCL@?$AAt?$AAh?$AA?9?$AAT?$AAH@ 000000018002d668     libucrt:lcidtoname_downlevel.obj
 0002:00007678       ??_C@_1M@MFLCCMPB@?$AAt?$AAr?$AA?9?$AAT?$AAR@ 000000018002d678     libucrt:lcidtoname_downlevel.obj
 0002:00007688       ??_C@_1M@OIJHDKJN@?$AAu?$AAr?$AA?9?$AAP?$AAK@ 000000018002d688     libucrt:lcidtoname_downlevel.obj
 0002:00007698       ??_C@_1M@LHIPCIEK@?$AAi?$AAd?$AA?9?$AAI?$AAD@ 000000018002d698     libucrt:lcidtoname_downlevel.obj
 0002:000076a8       ??_C@_1M@MFMOBGI@?$AAu?$AAk?$AA?9?$AAU?$AAA@ 000000018002d6a8     libucrt:lcidtoname_downlevel.obj
 0002:000076b8       ??_C@_1M@OBGLJIPL@?$AAb?$AAe?$AA?9?$AAB?$AAY@ 000000018002d6b8     libucrt:lcidtoname_downlevel.obj
 0002:000076c8       ??_C@_1M@BCFAJEAD@?$AAs?$AAl?$AA?9?$AAS?$AAI@ 000000018002d6c8     libucrt:lcidtoname_downlevel.obj
 0002:000076d8       ??_C@_1M@FKFFEDDN@?$AAe?$AAt?$AA?9?$AAE?$AAE@ 000000018002d6d8     libucrt:lcidtoname_downlevel.obj
 0002:000076e8       ??_C@_1M@KGKKAACI@?$AAl?$AAv?$AA?9?$AAL?$AAV@ 000000018002d6e8     libucrt:lcidtoname_downlevel.obj
 0002:000076f8       ??_C@_1M@IFGBIJO@?$AAl?$AAt?$AA?9?$AAL?$AAT@ 000000018002d6f8     libucrt:lcidtoname_downlevel.obj
 0002:00007708       ??_C@_1M@FGEAHEDM@?$AAf?$AAa?$AA?9?$AAI?$AAR@ 000000018002d708     libucrt:lcidtoname_downlevel.obj
 0002:00007718       ??_C@_1M@KBMAIBFN@?$AAv?$AAi?$AA?9?$AAV?$AAN@ 000000018002d718     libucrt:lcidtoname_downlevel.obj
 0002:00007728       ??_C@_1M@GPCBKDJK@?$AAh?$AAy?$AA?9?$AAA?$AAM@ 000000018002d728     libucrt:lcidtoname_downlevel.obj
 0002:00007738       ??_C@_1BG@BECMDDJB@?$AAa?$AAz?$AA?9?$AAA?$AAZ?$AA?9?$AAL?$AAa?$AAt?$AAn@ 000000018002d738     libucrt:lcidtoname_downlevel.obj
 0002:00007750       ??_C@_1M@MAOFCAEA@?$AAe?$AAu?$AA?9?$AAE?$AAS@ 000000018002d750     libucrt:lcidtoname_downlevel.obj
 0002:00007760       ??_C@_1M@IGHABKPI@?$AAm?$AAk?$AA?9?$AAM?$AAK@ 000000018002d760     libucrt:lcidtoname_downlevel.obj
 0002:00007770       ??_C@_1M@IAIGNEJG@?$AAt?$AAn?$AA?9?$AAZ?$AAA@ 000000018002d770     libucrt:lcidtoname_downlevel.obj
 0002:00007780       ??_C@_1M@IIJCOJFA@?$AAx?$AAh?$AA?9?$AAZ?$AAA@ 000000018002d780     libucrt:lcidtoname_downlevel.obj
 0002:00007790       ??_C@_1M@LGPJHNJH@?$AAz?$AAu?$AA?9?$AAZ?$AAA@ 000000018002d790     libucrt:lcidtoname_downlevel.obj
 0002:000077a0       ??_C@_1M@HOKAOIO@?$AAa?$AAf?$AA?9?$AAZ?$AAA@ 000000018002d7a0     libucrt:lcidtoname_downlevel.obj
 0002:000077b0       ??_C@_1M@DPCLHLIE@?$AAk?$AAa?$AA?9?$AAG?$AAE@ 000000018002d7b0     libucrt:lcidtoname_downlevel.obj
 0002:000077c0       ??_C@_1M@BLKMHJBI@?$AAf?$AAo?$AA?9?$AAF?$AAO@ 000000018002d7c0     libucrt:lcidtoname_downlevel.obj
 0002:000077d0       ??_C@_1M@LGGJAPPB@?$AAh?$AAi?$AA?9?$AAI?$AAN@ 000000018002d7d0     libucrt:lcidtoname_downlevel.obj
 0002:000077e0       ??_C@_1M@FIKPIHFE@?$AAm?$AAt?$AA?9?$AAM?$AAT@ 000000018002d7e0     libucrt:lcidtoname_downlevel.obj
 0002:000077f0       ??_C@_1M@HEGGPBFA@?$AAs?$AAe?$AA?9?$AAN?$AAO@ 000000018002d7f0     libucrt:lcidtoname_downlevel.obj
 0002:00007800       ??_C@_1M@EIBJEEPA@?$AAm?$AAs?$AA?9?$AAM?$AAY@ 000000018002d800     libucrt:lcidtoname_downlevel.obj
 0002:00007810       ??_C@_1M@FHLBGMPP@?$AAk?$AAk?$AA?9?$AAK?$AAZ@ 000000018002d810     libucrt:lcidtoname_downlevel.obj
 0002:00007820       ??_C@_1M@NGJJLCGI@?$AAk?$AAy?$AA?9?$AAK?$AAG@ 000000018002d820     libucrt:lcidtoname_downlevel.obj
 0002:00007830       ??_C@_1M@GIENNBFC@?$AAs?$AAw?$AA?9?$AAK?$AAE@ 000000018002d830     libucrt:lcidtoname_downlevel.obj
 0002:00007840       ??_C@_1BG@NDGMJIMJ@?$AAu?$AAz?$AA?9?$AAU?$AAZ?$AA?9?$AAL?$AAa?$AAt?$AAn@ 000000018002d840     libucrt:lcidtoname_downlevel.obj
 0002:00007858       ??_C@_1M@IDCCIHBC@?$AAt?$AAt?$AA?9?$AAR?$AAU@ 000000018002d858     libucrt:lcidtoname_downlevel.obj
 0002:00007868       ??_C@_1M@LOICPMOJ@?$AAb?$AAn?$AA?9?$AAI?$AAN@ 000000018002d868     libucrt:lcidtoname_downlevel.obj
 0002:00007878       ??_C@_1M@KPKKNEAH@?$AAp?$AAa?$AA?9?$AAI?$AAN@ 000000018002d878     libucrt:lcidtoname_downlevel.obj
 0002:00007888       ??_C@_1M@PJGPPBOG@?$AAg?$AAu?$AA?9?$AAI?$AAN@ 000000018002d888     libucrt:lcidtoname_downlevel.obj
 0002:00007898       ??_C@_1M@KMKMOPHI@?$AAt?$AAa?$AA?9?$AAI?$AAN@ 000000018002d898     libucrt:lcidtoname_downlevel.obj
 0002:000078a8       ??_C@_1M@KFEHEPAC@?$AAt?$AAe?$AA?9?$AAI?$AAN@ 000000018002d8a8     libucrt:lcidtoname_downlevel.obj
 0002:000078b8       ??_C@_1M@CDCLMGHI@?$AAk?$AAn?$AA?9?$AAI?$AAN@ 000000018002d8b8     libucrt:lcidtoname_downlevel.obj
 0002:000078c8       ??_C@_1M@MIODLDKF@?$AAm?$AAl?$AA?9?$AAI?$AAN@ 000000018002d8c8     libucrt:lcidtoname_downlevel.obj
 0002:000078d8       ??_C@_1M@PBIEACPO@?$AAm?$AAr?$AA?9?$AAI?$AAN@ 000000018002d8d8     libucrt:lcidtoname_downlevel.obj
 0002:000078e8       ??_C@_1M@NIDEAGPH@?$AAs?$AAa?$AA?9?$AAI?$AAN@ 000000018002d8e8     libucrt:lcidtoname_downlevel.obj
 0002:000078f8       ??_C@_1M@FHIHCBIO@?$AAm?$AAn?$AA?9?$AAM?$AAN@ 000000018002d8f8     libucrt:lcidtoname_downlevel.obj
 0002:00007908       ??_C@_1M@JAIJPENP@?$AAc?$AAy?$AA?9?$AAG?$AAB@ 000000018002d908     libucrt:lcidtoname_downlevel.obj
 0002:00007918       ??_C@_1M@PHGFBEPN@?$AAg?$AAl?$AA?9?$AAE?$AAS@ 000000018002d918     libucrt:lcidtoname_downlevel.obj
 0002:00007928       ??_C@_1O@KPIPDNCP@?$AAk?$AAo?$AAk?$AA?9?$AAI?$AAN@ 000000018002d928     libucrt:lcidtoname_downlevel.obj
 0002:00007938       ??_C@_1O@KNHJLDJA@?$AAs?$AAy?$AAr?$AA?9?$AAS?$AAY@ 000000018002d938     libucrt:lcidtoname_downlevel.obj
 0002:00007948       ??_C@_1O@MKEKBLAH@?$AAd?$AAi?$AAv?$AA?9?$AAM?$AAV@ 000000018002d948     libucrt:lcidtoname_downlevel.obj
 0002:00007958       ??_C@_1O@OHDCKDDF@?$AAq?$AAu?$AAz?$AA?9?$AAB?$AAO@ 000000018002d958     libucrt:lcidtoname_downlevel.obj
 0002:00007968       ??_C@_1M@LEPJNLFD@?$AAn?$AAs?$AA?9?$AAZ?$AAA@ 000000018002d968     libucrt:lcidtoname_downlevel.obj
 0002:00007978       ??_C@_1M@OMLEIIJB@?$AAm?$AAi?$AA?9?$AAN?$AAZ@ 000000018002d978     libucrt:lcidtoname_downlevel.obj
 0002:00007988       ??_C@_1M@PMPEAILG@?$AAa?$AAr?$AA?9?$AAI?$AAQ@ 000000018002d988     libucrt:lcidtoname_downlevel.obj
 0002:00007998       ??_C@_1M@CNKPNOEE@?$AAd?$AAe?$AA?9?$AAC?$AAH@ 000000018002d998     libucrt:lcidtoname_downlevel.obj
 0002:000079a8       ??_C@_1M@LKMGMLKO@?$AAe?$AAn?$AA?9?$AAG?$AAB@ 000000018002d9a8     libucrt:lcidtoname_downlevel.obj
 0002:000079b8       ??_C@_1M@PGKJFFGL@?$AAe?$AAs?$AA?9?$AAM?$AAX@ 000000018002d9b8     libucrt:lcidtoname_downlevel.obj
 0002:000079c8       ??_C@_1M@DNNANBDC@?$AAf?$AAr?$AA?9?$AAB?$AAE@ 000000018002d9c8     libucrt:lcidtoname_downlevel.obj
 0002:000079d8       ??_C@_1M@HLGMDFHM@?$AAi?$AAt?$AA?9?$AAC?$AAH@ 000000018002d9d8     libucrt:lcidtoname_downlevel.obj
 0002:000079e8       ??_C@_1M@CLLBGJH@?$AAn?$AAl?$AA?9?$AAB?$AAE@ 000000018002d9e8     libucrt:lcidtoname_downlevel.obj
 0002:000079f8       ??_C@_1M@BODBOGLF@?$AAn?$AAn?$AA?9?$AAN?$AAO@ 000000018002d9f8     libucrt:lcidtoname_downlevel.obj
 0002:00007a08       ??_C@_1M@HFFAHKAD@?$AAp?$AAt?$AA?9?$AAP?$AAT@ 000000018002da08     libucrt:lcidtoname_downlevel.obj
 0002:00007a18       ??_C@_1BG@LNOAKHIE@?$AAs?$AAr?$AA?9?$AAS?$AAP?$AA?9?$AAL?$AAa?$AAt?$AAn@ 000000018002da18     libucrt:lcidtoname_downlevel.obj
 0002:00007a30       ??_C@_1M@HBMHBGAK@?$AAs?$AAv?$AA?9?$AAF?$AAI@ 000000018002da30     libucrt:lcidtoname_downlevel.obj
 0002:00007a40       ??_C@_1BG@DGCJGJBE@?$AAa?$AAz?$AA?9?$AAA?$AAZ?$AA?9?$AAC?$AAy?$AAr?$AAl@ 000000018002da40     libucrt:lcidtoname_downlevel.obj
 0002:00007a58       ??_C@_1M@KEJDAAHB@?$AAs?$AAe?$AA?9?$AAS?$AAE@ 000000018002da58     libucrt:lcidtoname_downlevel.obj
 0002:00007a68       ??_C@_1M@HEIBJJAD@?$AAm?$AAs?$AA?9?$AAB?$AAN@ 000000018002da68     libucrt:lcidtoname_downlevel.obj
 0002:00007a78       ??_C@_1BG@PBGJMCEM@?$AAu?$AAz?$AA?9?$AAU?$AAZ?$AA?9?$AAC?$AAy?$AAr?$AAl@ 000000018002da78     libucrt:lcidtoname_downlevel.obj
 0002:00007a90       ??_C@_1O@LAOBCMDF@?$AAq?$AAu?$AAz?$AA?9?$AAE?$AAC@ 000000018002da90     libucrt:lcidtoname_downlevel.obj
 0002:00007aa0       ??_C@_1M@POEEMAIO@?$AAa?$AAr?$AA?9?$AAE?$AAG@ 000000018002daa0     libucrt:lcidtoname_downlevel.obj
 0002:00007ab0       ??_C@_1M@EFAKDEDL@?$AAz?$AAh?$AA?9?$AAH?$AAK@ 000000018002dab0     libucrt:lcidtoname_downlevel.obj
 0002:00007ac0       ??_C@_1M@HKKIJHGI@?$AAd?$AAe?$AA?9?$AAA?$AAT@ 000000018002dac0     libucrt:lcidtoname_downlevel.obj
 0002:00007ad0       ??_C@_1M@KBFBEHJF@?$AAe?$AAn?$AA?9?$AAA?$AAU@ 000000018002dad0     libucrt:lcidtoname_downlevel.obj
 0002:00007ae0       ??_C@_1M@MNPLFAAH@?$AAe?$AAs?$AA?9?$AAE?$AAS@ 000000018002dae0     libucrt:lcidtoname_downlevel.obj
 0002:00007af0       ??_C@_1M@HJOOJFMA@?$AAf?$AAr?$AA?9?$AAC?$AAA@ 000000018002daf0     libucrt:lcidtoname_downlevel.obj
 0002:00007b00       ??_C@_1BG@JPOFPNAB@?$AAs?$AAr?$AA?9?$AAS?$AAP?$AA?9?$AAC?$AAy?$AAr?$AAl@ 000000018002db00     libucrt:lcidtoname_downlevel.obj
 0002:00007b18       ??_C@_1M@LNFOCMOB@?$AAs?$AAe?$AA?9?$AAF?$AAI@ 000000018002db18     libucrt:lcidtoname_downlevel.obj
 0002:00007b28       ??_C@_1O@MGJBOAMB@?$AAq?$AAu?$AAz?$AA?9?$AAP?$AAE@ 000000018002db28     libucrt:lcidtoname_downlevel.obj
 0002:00007b38       ??_C@_1M@GJINLBOK@?$AAa?$AAr?$AA?9?$AAL?$AAY@ 000000018002db38     libucrt:lcidtoname_downlevel.obj
 0002:00007b48       ??_C@_1M@GGMNHJNL@?$AAz?$AAh?$AA?9?$AAS?$AAG@ 000000018002db48     libucrt:lcidtoname_downlevel.obj
 0002:00007b58       ??_C@_1M@HOIKODND@?$AAd?$AAe?$AA?9?$AAL?$AAU@ 000000018002db58     libucrt:lcidtoname_downlevel.obj
 0002:00007b68       ??_C@_1M@DDOCCGFG@?$AAe?$AAn?$AA?9?$AAC?$AAA@ 000000018002db68     libucrt:lcidtoname_downlevel.obj
 0002:00007b78       ??_C@_1M@BNOEMJLF@?$AAe?$AAs?$AA?9?$AAG?$AAT@ 000000018002db78     libucrt:lcidtoname_downlevel.obj
 0002:00007b88       ??_C@_1M@EOGNKEK@?$AAf?$AAr?$AA?9?$AAC?$AAH@ 000000018002db88     libucrt:lcidtoname_downlevel.obj
 0002:00007b98       ??_C@_1M@FLIDJFHL@?$AAh?$AAr?$AA?9?$AAB?$AAA@ 000000018002db98     libucrt:lcidtoname_downlevel.obj
 0002:00007ba8       ??_C@_1O@FMCELNAJ@?$AAs?$AAm?$AAj?$AA?9?$AAN?$AAO@ 000000018002dba8     libucrt:lcidtoname_downlevel.obj
 0002:00007bb8       ??_C@_1M@JHGLJMGJ@?$AAa?$AAr?$AA?9?$AAD?$AAZ@ 000000018002dbb8     libucrt:lcidtoname_downlevel.obj
 0002:00007bc8       ??_C@_1M@JKKFDCNP@?$AAz?$AAh?$AA?9?$AAM?$AAO@ 000000018002dbc8     libucrt:lcidtoname_downlevel.obj
 0002:00007bd8       ??_C@_1M@GEEFALPE@?$AAd?$AAe?$AA?9?$AAL?$AAI@ 000000018002dbd8     libucrt:lcidtoname_downlevel.obj
 0002:00007be8       ??_C@_1M@IGEOFBG@?$AAe?$AAn?$AA?9?$AAN?$AAZ@ 000000018002dbe8     libucrt:lcidtoname_downlevel.obj
 0002:00007bf8       ??_C@_1M@KDBONEHP@?$AAe?$AAs?$AA?9?$AAC?$AAR@ 000000018002dbf8     libucrt:lcidtoname_downlevel.obj
 0002:00007c08       ??_C@_1M@FHMDOHNN@?$AAf?$AAr?$AA?9?$AAL?$AAU@ 000000018002dc08     libucrt:lcidtoname_downlevel.obj
 0002:00007c18       ??_C@_1BG@NFKKMAFG@?$AAb?$AAs?$AA?9?$AAB?$AAA?$AA?9?$AAL?$AAa?$AAt?$AAn@ 000000018002dc18     libucrt:lcidtoname_downlevel.obj
 0002:00007c30       ??_C@_1O@IMNBEMCI@?$AAs?$AAm?$AAj?$AA?9?$AAS?$AAE@ 000000018002dc30     libucrt:lcidtoname_downlevel.obj
 0002:00007c40       ??_C@_1M@DHHMBNDP@?$AAa?$AAr?$AA?9?$AAM?$AAA@ 000000018002dc40     libucrt:lcidtoname_downlevel.obj
 0002:00007c50       ??_C@_1M@BNBLJCGH@?$AAe?$AAn?$AA?9?$AAI?$AAE@ 000000018002dc50     libucrt:lcidtoname_downlevel.obj
 0002:00007c60       ??_C@_1M@GEPAFMDL@?$AAe?$AAs?$AA?9?$AAP?$AAA@ 000000018002dc60     libucrt:lcidtoname_downlevel.obj
 0002:00007c70       ??_C@_1M@OJONDMDL@?$AAf?$AAr?$AA?9?$AAM?$AAC@ 000000018002dc70     libucrt:lcidtoname_downlevel.obj
 0002:00007c80       ??_C@_1BG@OBCNFJB@?$AAs?$AAr?$AA?9?$AAB?$AAA?$AA?9?$AAL?$AAa?$AAt?$AAn@ 000000018002dc80     libucrt:lcidtoname_downlevel.obj
 0002:00007c98       ??_C@_1O@KEMEEGPO@?$AAs?$AAm?$AAa?$AA?9?$AAN?$AAO@ 000000018002dc98     libucrt:lcidtoname_downlevel.obj
 0002:00007ca8       ??_C@_1M@ELMGFODK@?$AAa?$AAr?$AA?9?$AAT?$AAN@ 000000018002dca8     libucrt:lcidtoname_downlevel.obj
 0002:00007cb8       ??_C@_1M@BHDLHFAF@?$AAe?$AAn?$AA?9?$AAZ?$AAA@ 000000018002dcb8     libucrt:lcidtoname_downlevel.obj
 0002:00007cc8       ??_C@_1M@BMGIGLIF@?$AAe?$AAs?$AA?9?$AAD?$AAO@ 000000018002dcc8     libucrt:lcidtoname_downlevel.obj
 0002:00007cd8       ??_C@_1BG@CMBHIPBE@?$AAs?$AAr?$AA?9?$AAB?$AAA?$AA?9?$AAC?$AAy?$AAr?$AAl@ 000000018002dcd8     libucrt:lcidtoname_downlevel.obj
 0002:00007cf0       ??_C@_1O@HEDBLHNP@?$AAs?$AAm?$AAa?$AA?9?$AAS?$AAE@ 000000018002dcf0     libucrt:lcidtoname_downlevel.obj
 0002:00007d00       ??_C@_1M@DAGCADIM@?$AAa?$AAr?$AA?9?$AAO?$AAM@ 000000018002dd00     libucrt:lcidtoname_downlevel.obj
 0002:00007d10       ??_C@_1M@FODLMICG@?$AAe?$AAn?$AA?9?$AAJ?$AAM@ 000000018002dd10     libucrt:lcidtoname_downlevel.obj
 0002:00007d20       ??_C@_1M@DNMLCIHB@?$AAe?$AAs?$AA?9?$AAV?$AAE@ 000000018002dd20     libucrt:lcidtoname_downlevel.obj
 0002:00007d30       ??_C@_1O@EOKHMKJK@?$AAs?$AAm?$AAs?$AA?9?$AAF?$AAI@ 000000018002dd30     libucrt:lcidtoname_downlevel.obj
 0002:00007d40       ??_C@_1M@CAFJMKOF@?$AAa?$AAr?$AA?9?$AAY?$AAE@ 000000018002dd40     libucrt:lcidtoname_downlevel.obj
 0002:00007d50       ??_C@_1M@CBFHIJLI@?$AAe?$AAn?$AA?9?$AAC?$AAB@ 000000018002dd50     libucrt:lcidtoname_downlevel.obj
 0002:00007d60       ??_C@_1M@BGNFLDN@?$AAe?$AAs?$AA?9?$AAC?$AAO@ 000000018002dd60     libucrt:lcidtoname_downlevel.obj
 0002:00007d70       ??_C@_1O@JMPHMAMC@?$AAs?$AAm?$AAn?$AA?9?$AAF?$AAI@ 000000018002dd70     libucrt:lcidtoname_downlevel.obj
 0002:00007d80       ??_C@_1M@JLANABKE@?$AAa?$AAr?$AA?9?$AAS?$AAY@ 000000018002dd80     libucrt:lcidtoname_downlevel.obj
 0002:00007d90       ??_C@_1M@HPKGCFGN@?$AAe?$AAn?$AA?9?$AAB?$AAZ@ 000000018002dd90     libucrt:lcidtoname_downlevel.obj
 0002:00007da0       ??_C@_1M@OLJCMLGM@?$AAe?$AAs?$AA?9?$AAP?$AAE@ 000000018002dda0     libucrt:lcidtoname_downlevel.obj
 0002:00007db0       ??_C@_1M@MKKGFKLE@?$AAa?$AAr?$AA?9?$AAJ?$AAO@ 000000018002ddb0     libucrt:lcidtoname_downlevel.obj
 0002:00007dc0       ??_C@_1M@EKPGLDNI@?$AAe?$AAn?$AA?9?$AAT?$AAT@ 000000018002ddc0     libucrt:lcidtoname_downlevel.obj
 0002:00007dd0       ??_C@_1M@OONGHFHE@?$AAe?$AAs?$AA?9?$AAA?$AAR@ 000000018002ddd0     libucrt:lcidtoname_downlevel.obj
 0002:00007de0       ??_C@_1M@OOJFGBHE@?$AAa?$AAr?$AA?9?$AAL?$AAB@ 000000018002dde0     libucrt:lcidtoname_downlevel.obj
 0002:00007df0       ??_C@_1M@GCEJHNEG@?$AAe?$AAn?$AA?9?$AAZ?$AAW@ 000000018002ddf0     libucrt:lcidtoname_downlevel.obj
 0002:00007e00       ??_C@_1M@JNOCAHJI@?$AAe?$AAs?$AA?9?$AAE?$AAC@ 000000018002de00     libucrt:lcidtoname_downlevel.obj
 0002:00007e10       ??_C@_1M@JEFHPGGB@?$AAa?$AAr?$AA?9?$AAK?$AAW@ 000000018002de10     libucrt:lcidtoname_downlevel.obj
 0002:00007e20       ??_C@_1M@MLKIBJOJ@?$AAe?$AAn?$AA?9?$AAP?$AAH@ 000000018002de20     libucrt:lcidtoname_downlevel.obj
 0002:00007e30       ??_C@_1M@BDNIPEND@?$AAe?$AAs?$AA?9?$AAC?$AAL@ 000000018002de30     libucrt:lcidtoname_downlevel.obj
 0002:00007e40       ??_C@_1M@MPNMEKBD@?$AAa?$AAr?$AA?9?$AAA?$AAE@ 000000018002de40     libucrt:lcidtoname_downlevel.obj
 0002:00007e50       ??_C@_1M@KBJALCPI@?$AAe?$AAs?$AA?9?$AAU?$AAY@ 000000018002de50     libucrt:lcidtoname_downlevel.obj
 0002:00007e60       ??_C@_1M@LLCCOAGA@?$AAa?$AAr?$AA?9?$AAB?$AAH@ 000000018002de60     libucrt:lcidtoname_downlevel.obj
 0002:00007e70       ??_C@_1M@PBFNCDEL@?$AAe?$AAs?$AA?9?$AAP?$AAY@ 000000018002de70     libucrt:lcidtoname_downlevel.obj
 0002:00007e80       ??_C@_1M@EDGINPNP@?$AAa?$AAr?$AA?9?$AAQ?$AAA@ 000000018002de80     libucrt:lcidtoname_downlevel.obj
 0002:00007e90       ??_C@_1M@MKDBIIJI@?$AAe?$AAs?$AA?9?$AAB?$AAO@ 000000018002de90     libucrt:lcidtoname_downlevel.obj
 0002:00007ea0       ??_C@_1M@CPKKEBLD@?$AAe?$AAs?$AA?9?$AAS?$AAV@ 000000018002dea0     libucrt:lcidtoname_downlevel.obj
 0002:00007eb0       ??_C@_1M@NDBGMMJL@?$AAe?$AAs?$AA?9?$AAH?$AAN@ 000000018002deb0     libucrt:lcidtoname_downlevel.obj
 0002:00007ec0       ??_C@_1M@JIJIBHDP@?$AAe?$AAs?$AA?9?$AAN?$AAI@ 000000018002dec0     libucrt:lcidtoname_downlevel.obj
 0002:00007ed0       ??_C@_1M@CGFMKEEK@?$AAe?$AAs?$AA?9?$AAP?$AAR@ 000000018002ded0     libucrt:lcidtoname_downlevel.obj
 0002:00007ee0       ??_C@_1O@ICJHKIIK@?$AAz?$AAh?$AA?9?$AAC?$AAH?$AAT@ 000000018002dee0     libucrt:lcidtoname_downlevel.obj
 0002:00007ef0       ??_C@_15CLNEJCE@?$AAs?$AAr@ 000000018002def0     libucrt:lcidtoname_downlevel.obj
 0002:00008d40       ??_C@_1M@KAHEKEIG@?$AAa?$AAf?$AA?9?$AAz?$AAa@ 000000018002ed40     libucrt:lcidtoname_downlevel.obj
 0002:00008d50       ??_C@_1M@GIECOABL@?$AAa?$AAr?$AA?9?$AAa?$AAe@ 000000018002ed50     libucrt:lcidtoname_downlevel.obj
 0002:00008d60       ??_C@_1M@BMLMEKGI@?$AAa?$AAr?$AA?9?$AAb?$AAh@ 000000018002ed60     libucrt:lcidtoname_downlevel.obj
 0002:00008d70       ??_C@_1M@DAPFDGGB@?$AAa?$AAr?$AA?9?$AAd?$AAz@ 000000018002ed70     libucrt:lcidtoname_downlevel.obj
 0002:00008d80       ??_C@_1M@FJNKGKIG@?$AAa?$AAr?$AA?9?$AAe?$AAg@ 000000018002ed80     libucrt:lcidtoname_downlevel.obj
 0002:00008d90       ??_C@_1M@FLGKKCLO@?$AAa?$AAr?$AA?9?$AAi?$AAq@ 000000018002ed90     libucrt:lcidtoname_downlevel.obj
 0002:00008da0       ??_C@_1M@GNDIPALM@?$AAa?$AAr?$AA?9?$AAj?$AAo@ 000000018002eda0     libucrt:lcidtoname_downlevel.obj
 0002:00008db0       ??_C@_1M@DDMJFMGJ@?$AAa?$AAr?$AA?9?$AAk?$AAw@ 000000018002edb0     libucrt:lcidtoname_downlevel.obj
 0002:00008dc0       ??_C@_1M@EJALMLHM@?$AAa?$AAr?$AA?9?$AAl?$AAb@ 000000018002edc0     libucrt:lcidtoname_downlevel.obj
 0002:00008dd0       ??_C@_1M@MOBDBLOC@?$AAa?$AAr?$AA?9?$AAl?$AAy@ 000000018002edd0     libucrt:lcidtoname_downlevel.obj
 0002:00008de0       ??_C@_1M@JAOCLHDH@?$AAa?$AAr?$AA?9?$AAm?$AAa@ 000000018002ede0     libucrt:lcidtoname_downlevel.obj
 0002:00008df0       ??_C@_1M@JHPMKJIE@?$AAa?$AAr?$AA?9?$AAo?$AAm@ 000000018002edf0     libucrt:lcidtoname_downlevel.obj
 0002:00008e00       ??_C@_1M@OEPGHFNH@?$AAa?$AAr?$AA?9?$AAq?$AAa@ 000000018002ee00     libucrt:lcidtoname_downlevel.obj
 0002:00008e10       ??_C@_1M@KJDONENM@?$AAa?$AAr?$AA?9?$AAs?$AAa@ 000000018002ee10     libucrt:lcidtoname_downlevel.obj
 0002:00008e20       ??_C@_1M@DMJDKLKM@?$AAa?$AAr?$AA?9?$AAs?$AAy@ 000000018002ee20     libucrt:lcidtoname_downlevel.obj
 0002:00008e30       ??_C@_1M@OMFIPEDC@?$AAa?$AAr?$AA?9?$AAt?$AAn@ 000000018002ee30     libucrt:lcidtoname_downlevel.obj
 0002:00008e40       ??_C@_1M@IHMHGAON@?$AAa?$AAr?$AA?9?$AAy?$AAe@ 000000018002ee40     libucrt:lcidtoname_downlevel.obj
 0002:00008e50       ??_C@_1BG@KDCPGJGB@?$AAa?$AAz?$AA?9?$AAa?$AAz?$AA?9?$AAc?$AAy?$AAr?$AAl@ 000000018002ee50     libucrt:lcidtoname_downlevel.obj
 0002:00008e68       ??_C@_1BG@IBCKDDOE@?$AAa?$AAz?$AA?9?$AAa?$AAz?$AA?9?$AAl?$AAa?$AAt?$AAn@ 000000018002ee68     libucrt:lcidtoname_downlevel.obj
 0002:00008e80       ??_C@_1M@EGPFDCPD@?$AAb?$AAe?$AA?9?$AAb?$AAy@ 000000018002ee80     libucrt:lcidtoname_downlevel.obj
 0002:00008e90       ??_C@_1M@PCMGMCGC@?$AAb?$AAg?$AA?9?$AAb?$AAg@ 000000018002ee90     libucrt:lcidtoname_downlevel.obj
 0002:00008ea0       ??_C@_1M@BJBMFGOB@?$AAb?$AAn?$AA?9?$AAi?$AAn@ 000000018002eea0     libucrt:lcidtoname_downlevel.obj
 0002:00008eb0       ??_C@_1BG@EAKMMACD@?$AAb?$AAs?$AA?9?$AAb?$AAa?$AA?9?$AAl?$AAa?$AAt?$AAn@ 000000018002eeb0     libucrt:lcidtoname_downlevel.obj
 0002:00008ec8       ??_C@_1M@KGADAODK@?$AAc?$AAa?$AA?9?$AAe?$AAs@ 000000018002eec8     libucrt:lcidtoname_downlevel.obj
 0002:00008ed8       ??_C@_1M@COAJPDHI@?$AAc?$AAs?$AA?9?$AAc?$AAz@ 000000018002eed8     libucrt:lcidtoname_downlevel.obj
 0002:00008ee8       ??_C@_1M@DHBHFONH@?$AAc?$AAy?$AA?9?$AAg?$AAb@ 000000018002eee8     libucrt:lcidtoname_downlevel.obj
 0002:00008ef8       ??_C@_1M@IMGKELGA@?$AAd?$AAa?$AA?9?$AAd?$AAk@ 000000018002eef8     libucrt:lcidtoname_downlevel.obj
 0002:00008f08       ??_C@_1M@NNDGDNGA@?$AAd?$AAe?$AA?9?$AAa?$AAt@ 000000018002ef08     libucrt:lcidtoname_downlevel.obj
 0002:00008f18       ??_C@_1M@IKDBHEEM@?$AAd?$AAe?$AA?9?$AAc?$AAh@ 000000018002ef18     libucrt:lcidtoname_downlevel.obj
 0002:00008f28       ??_C@_1M@GFFOJMCJ@?$AAd?$AAe?$AA?9?$AAd?$AAe@ 000000018002ef28     libucrt:lcidtoname_downlevel.obj
 0002:00008f38       ??_C@_1M@MDNLKBPM@?$AAd?$AAe?$AA?9?$AAl?$AAi@ 000000018002ef38     libucrt:lcidtoname_downlevel.obj
 0002:00008f48       ??_C@_1M@NJBEEJNL@?$AAd?$AAe?$AA?9?$AAl?$AAu@ 000000018002ef48     libucrt:lcidtoname_downlevel.obj
 0002:00008f58       ??_C@_1O@GNNELBAP@?$AAd?$AAi?$AAv?$AA?9?$AAm?$AAv@ 000000018002ef58     libucrt:lcidtoname_downlevel.obj
 0002:00008f68       ??_C@_1M@EJLEOGAE@?$AAe?$AAl?$AA?9?$AAg?$AAr@ 000000018002ef68     libucrt:lcidtoname_downlevel.obj
 0002:00008f78       ??_C@_1M@GMPONJN@?$AAe?$AAn?$AA?9?$AAa?$AAu@ 000000018002ef78     libucrt:lcidtoname_downlevel.obj
 0002:00008f88       ??_C@_1M@NIDIIPGF@?$AAe?$AAn?$AA?9?$AAb?$AAz@ 000000018002ef88     libucrt:lcidtoname_downlevel.obj
 0002:00008f98       ??_C@_1M@JEHMIMFO@?$AAe?$AAn?$AA?9?$AAc?$AAa@ 000000018002ef98     libucrt:lcidtoname_downlevel.obj
 0002:00008fa8       ??_C@_1M@IGMJCDLA@?$AAe?$AAn?$AA?9?$AAc?$AAb@ 000000018002efa8     libucrt:lcidtoname_downlevel.obj
 0002:00008fb8       ??_C@_1M@BNFIGBKG@?$AAe?$AAn?$AA?9?$AAg?$AAb@ 000000018002efb8     libucrt:lcidtoname_downlevel.obj
 0002:00008fc8       ??_C@_1M@LKIFDIGP@?$AAe?$AAn?$AA?9?$AAi?$AAe@ 000000018002efc8     libucrt:lcidtoname_downlevel.obj
 0002:00008fd8       ??_C@_1M@PJKFGCCO@?$AAe?$AAn?$AA?9?$AAj?$AAm@ 000000018002efd8     libucrt:lcidtoname_downlevel.obj
 0002:00008fe8       ??_C@_1M@KPPKEPBO@?$AAe?$AAn?$AA?9?$AAn?$AAz@ 000000018002efe8     libucrt:lcidtoname_downlevel.obj
 0002:00008ff8       ??_C@_1M@GMDGLDOB@?$AAe?$AAn?$AA?9?$AAp?$AAh@ 000000018002eff8     libucrt:lcidtoname_downlevel.obj
 0002:00009008       ??_C@_1M@ONGIBJNA@?$AAe?$AAn?$AA?9?$AAt?$AAt@ 000000018002f008     libucrt:lcidtoname_downlevel.obj
 0002:00009018       ??_C@_1M@LLODPCMM@?$AAe?$AAn?$AA?9?$AAu?$AAs@ 000000018002f018     libucrt:lcidtoname_downlevel.obj
 0002:00009028       ??_C@_1M@LAKFNPAN@?$AAe?$AAn?$AA?9?$AAz?$AAa@ 000000018002f028     libucrt:lcidtoname_downlevel.obj
 0002:00009038       ??_C@_1M@MFNHNHEO@?$AAe?$AAn?$AA?9?$AAz?$AAw@ 000000018002f038     libucrt:lcidtoname_downlevel.obj
 0002:00009048       ??_C@_1M@EJEINPHM@?$AAe?$AAs?$AA?9?$AAa?$AAr@ 000000018002f048     libucrt:lcidtoname_downlevel.obj
 0002:00009058       ??_C@_1M@GNKPCCJA@?$AAe?$AAs?$AA?9?$AAb?$AAo@ 000000018002f058     libucrt:lcidtoname_downlevel.obj
 0002:00009068       ??_C@_1M@LEEGFONL@?$AAe?$AAs?$AA?9?$AAc?$AAl@ 000000018002f068     libucrt:lcidtoname_downlevel.obj
 0002:00009078       ??_C@_1M@KGPDPBDF@?$AAe?$AAs?$AA?9?$AAc?$AAo@ 000000018002f078     libucrt:lcidtoname_downlevel.obj
 0002:00009088       ??_C@_1M@EIAHOHH@?$AAe?$AAs?$AA?9?$AAc?$AAr@ 000000018002f088     libucrt:lcidtoname_downlevel.obj
 0002:00009098       ??_C@_1M@LLPGMBIN@?$AAe?$AAs?$AA?9?$AAd?$AAo@ 000000018002f098     libucrt:lcidtoname_downlevel.obj
 0002:000090a8       ??_C@_1M@DKHMKNJA@?$AAe?$AAs?$AA?9?$AAe?$AAc@ 000000018002f0a8     libucrt:lcidtoname_downlevel.obj
 0002:000090b8       ??_C@_1M@GKGFPKAP@?$AAe?$AAs?$AA?9?$AAe?$AAs@ 000000018002f0b8     libucrt:lcidtoname_downlevel.obj
 0002:000090c8       ??_C@_1M@LKHKGDLN@?$AAe?$AAs?$AA?9?$AAg?$AAt@ 000000018002f0c8     libucrt:lcidtoname_downlevel.obj
 0002:000090d8       ??_C@_1M@HEIIGGJD@?$AAe?$AAs?$AA?9?$AAh?$AAn@ 000000018002f0d8     libucrt:lcidtoname_downlevel.obj
 0002:000090e8       ??_C@_1M@FBDHPPGD@?$AAe?$AAs?$AA?9?$AAm?$AAx@ 000000018002f0e8     libucrt:lcidtoname_downlevel.obj
 0002:000090f8       ??_C@_1M@DPAGLNDH@?$AAe?$AAs?$AA?9?$AAn?$AAi@ 000000018002f0f8     libucrt:lcidtoname_downlevel.obj
 0002:00009108       ??_C@_1M@MDGOPGDD@?$AAe?$AAs?$AA?9?$AAp?$AAa@ 000000018002f108     libucrt:lcidtoname_downlevel.obj
 0002:00009118       ??_C@_1M@EMAMGBGE@?$AAe?$AAs?$AA?9?$AAp?$AAe@ 000000018002f118     libucrt:lcidtoname_downlevel.obj
 0002:00009128       ??_C@_1M@IBMCAOEC@?$AAe?$AAs?$AA?9?$AAp?$AAr@ 000000018002f128     libucrt:lcidtoname_downlevel.obj
 0002:00009138       ??_C@_1M@FGMDIJED@?$AAe?$AAs?$AA?9?$AAp?$AAy@ 000000018002f138     libucrt:lcidtoname_downlevel.obj
 0002:00009148       ??_C@_1M@IIDEOLLL@?$AAe?$AAs?$AA?9?$AAs?$AAv@ 000000018002f148     libucrt:lcidtoname_downlevel.obj
 0002:00009158       ??_C@_1M@GAOBIPA@?$AAe?$AAs?$AA?9?$AAu?$AAy@ 000000018002f158     libucrt:lcidtoname_downlevel.obj
 0002:00009168       ??_C@_1M@JKFFICHJ@?$AAe?$AAs?$AA?9?$AAv?$AAe@ 000000018002f168     libucrt:lcidtoname_downlevel.obj
 0002:00009178       ??_C@_1M@PNMLOJDF@?$AAe?$AAt?$AA?9?$AAe?$AAe@ 000000018002f178     libucrt:lcidtoname_downlevel.obj
 0002:00009188       ??_C@_1M@GHHLIKEI@?$AAe?$AAu?$AA?9?$AAe?$AAs@ 000000018002f188     libucrt:lcidtoname_downlevel.obj
 0002:00009198       ??_C@_1M@PBNONODE@?$AAf?$AAa?$AA?9?$AAi?$AAr@ 000000018002f198     libucrt:lcidtoname_downlevel.obj
 0002:000091a8       ??_C@_1M@JEEHPMIL@?$AAf?$AAi?$AA?9?$AAf?$AAi@ 000000018002f1a8     libucrt:lcidtoname_downlevel.obj
 0002:000091b8       ??_C@_1M@LMDCNDBA@?$AAf?$AAo?$AA?9?$AAf?$AAo@ 000000018002f1b8     libucrt:lcidtoname_downlevel.obj
 0002:000091c8       ??_C@_1M@JKEOHLDK@?$AAf?$AAr?$AA?9?$AAb?$AAe@ 000000018002f1c8     libucrt:lcidtoname_downlevel.obj
 0002:000091d8       ??_C@_1M@NOHADPMI@?$AAf?$AAr?$AA?9?$AAc?$AAa@ 000000018002f1d8     libucrt:lcidtoname_downlevel.obj
 0002:000091e8       ??_C@_1M@KDHIHAEC@?$AAf?$AAr?$AA?9?$AAc?$AAh@ 000000018002f1e8     libucrt:lcidtoname_downlevel.obj
 0002:000091f8       ??_C@_1M@MMBBFGAK@?$AAf?$AAr?$AA?9?$AAf?$AAr@ 000000018002f1f8     libucrt:lcidtoname_downlevel.obj
 0002:00009208       ??_C@_1M@PAFNENNF@?$AAf?$AAr?$AA?9?$AAl?$AAu@ 000000018002f208     libucrt:lcidtoname_downlevel.obj
 0002:00009218       ??_C@_1M@EOHDJGDD@?$AAf?$AAr?$AA?9?$AAm?$AAc@ 000000018002f218     libucrt:lcidtoname_downlevel.obj
 0002:00009228       ??_C@_1M@FAPLLOPF@?$AAg?$AAl?$AA?9?$AAe?$AAs@ 000000018002f228     libucrt:lcidtoname_downlevel.obj
 0002:00009238       ??_C@_1M@FOPBFLOO@?$AAg?$AAu?$AA?9?$AAi?$AAn@ 000000018002f238     libucrt:lcidtoname_downlevel.obj
 0002:00009248       ??_C@_1M@KBMCINPM@?$AAh?$AAe?$AA?9?$AAi?$AAl@ 000000018002f248     libucrt:lcidtoname_downlevel.obj
 0002:00009258       ??_C@_1M@BBPHKFPJ@?$AAh?$AAi?$AA?9?$AAi?$AAn@ 000000018002f258     libucrt:lcidtoname_downlevel.obj
 0002:00009268       ??_C@_1M@PMBNDPHD@?$AAh?$AAr?$AA?9?$AAb?$AAa@ 000000018002f268     libucrt:lcidtoname_downlevel.obj
 0002:00009278       ??_C@_1M@BPCKOEGE@?$AAh?$AAr?$AA?9?$AAh?$AAr@ 000000018002f278     libucrt:lcidtoname_downlevel.obj
 0002:00009288       ??_C@_1M@GACBMHKE@?$AAh?$AAu?$AA?9?$AAh?$AAu@ 000000018002f288     libucrt:lcidtoname_downlevel.obj
 0002:00009298       ??_C@_1M@MILPAJJC@?$AAh?$AAy?$AA?9?$AAa?$AAm@ 000000018002f298     libucrt:lcidtoname_downlevel.obj
 0002:000092a8       ??_C@_1M@BABBICEC@?$AAi?$AAd?$AA?9?$AAi?$AAd@ 000000018002f2a8     libucrt:lcidtoname_downlevel.obj
 0002:000092b8       ??_C@_1M@BIKNHHPF@?$AAi?$AAs?$AA?9?$AAi?$AAs@ 000000018002f2b8     libucrt:lcidtoname_downlevel.obj
 0002:000092c8       ??_C@_1M@NMPCJPHE@?$AAi?$AAt?$AA?9?$AAc?$AAh@ 000000018002f2c8     libucrt:lcidtoname_downlevel.obj
 0002:000092d8       ??_C@_1M@GHKGFEDF@?$AAi?$AAt?$AA?9?$AAi?$AAt@ 000000018002f2d8     libucrt:lcidtoname_downlevel.obj
 0002:000092e8       ??_C@_1M@NIEJCJJA@?$AAj?$AAa?$AA?9?$AAj?$AAp@ 000000018002f2e8     libucrt:lcidtoname_downlevel.obj
 0002:000092f8       ??_C@_1M@JILFNBIM@?$AAk?$AAa?$AA?9?$AAg?$AAe@ 000000018002f2f8     libucrt:lcidtoname_downlevel.obj
 0002:00009308       ??_C@_1M@PACPMGPH@?$AAk?$AAk?$AA?9?$AAk?$AAz@ 000000018002f308     libucrt:lcidtoname_downlevel.obj
 0002:00009318       ??_C@_1M@IELFGMHA@?$AAk?$AAn?$AA?9?$AAi?$AAn@ 000000018002f318     libucrt:lcidtoname_downlevel.obj
 0002:00009328       ??_C@_1O@IBBJHCH@?$AAk?$AAo?$AAk?$AA?9?$AAi?$AAn@ 000000018002f328     libucrt:lcidtoname_downlevel.obj
 0002:00009338       ??_C@_1M@DMHAEOGC@?$AAk?$AAo?$AA?9?$AAk?$AAr@ 000000018002f338     libucrt:lcidtoname_downlevel.obj
 0002:00009348       ??_C@_1M@HBAHBIGA@?$AAk?$AAy?$AA?9?$AAk?$AAg@ 000000018002f348     libucrt:lcidtoname_downlevel.obj
 0002:00009358       ??_C@_1M@KPMILCJG@?$AAl?$AAt?$AA?9?$AAl?$AAt@ 000000018002f358     libucrt:lcidtoname_downlevel.obj
 0002:00009368       ??_C@_1M@BDEKKCA@?$AAl?$AAv?$AA?9?$AAl?$AAv@ 000000018002f368     libucrt:lcidtoname_downlevel.obj
 0002:00009378       ??_C@_1M@ELCKCCJJ@?$AAm?$AAi?$AA?9?$AAn?$AAz@ 000000018002f378     libucrt:lcidtoname_downlevel.obj
 0002:00009388       ??_C@_1M@CBOOLAPA@?$AAm?$AAk?$AA?9?$AAm?$AAk@ 000000018002f388     libucrt:lcidtoname_downlevel.obj
 0002:00009398       ??_C@_1M@GPHNBJKN@?$AAm?$AAl?$AA?9?$AAi?$AAn@ 000000018002f398     libucrt:lcidtoname_downlevel.obj
 0002:000093a8       ??_C@_1M@PABJILIG@?$AAm?$AAn?$AA?9?$AAm?$AAn@ 000000018002f3a8     libucrt:lcidtoname_downlevel.obj
 0002:000093b8       ??_C@_1M@FGBKKIPG@?$AAm?$AAr?$AA?9?$AAi?$AAn@ 000000018002f3b8     libucrt:lcidtoname_downlevel.obj
 0002:000093c8       ??_C@_1M@NDBPDDAL@?$AAm?$AAs?$AA?9?$AAb?$AAn@ 000000018002f3c8     libucrt:lcidtoname_downlevel.obj
 0002:000093d8       ??_C@_1M@OPIHOOPI@?$AAm?$AAs?$AA?9?$AAm?$AAy@ 000000018002f3d8     libucrt:lcidtoname_downlevel.obj
 0002:000093e8       ??_C@_1M@PPDBCNFM@?$AAm?$AAt?$AA?9?$AAm?$AAt@ 000000018002f3e8     libucrt:lcidtoname_downlevel.obj
 0002:000093f8       ??_C@_1M@KDJDKMDD@?$AAn?$AAb?$AA?9?$AAn?$AAo@ 000000018002f3f8     libucrt:lcidtoname_downlevel.obj
 0002:00009408       ??_C@_1M@KFCFLMJP@?$AAn?$AAl?$AA?9?$AAb?$AAe@ 000000018002f408     libucrt:lcidtoname_downlevel.obj
 0002:00009418       ??_C@_1M@KPOPDDGO@?$AAn?$AAl?$AA?9?$AAn?$AAl@ 000000018002f418     libucrt:lcidtoname_downlevel.obj
 0002:00009428       ??_C@_1M@LJKPEMLN@?$AAn?$AAn?$AA?9?$AAn?$AAo@ 000000018002f428     libucrt:lcidtoname_downlevel.obj
 0002:00009438       ??_C@_1M@BDGHHBFL@?$AAn?$AAs?$AA?9?$AAz?$AAa@ 000000018002f438     libucrt:lcidtoname_downlevel.obj
 0002:00009448       ??_C@_1M@IDEHOAP@?$AAp?$AAa?$AA?9?$AAi?$AAn@ 000000018002f448     libucrt:lcidtoname_downlevel.obj
 0002:00009458       ??_C@_1M@HDBKGOGH@?$AAp?$AAl?$AA?9?$AAp?$AAl@ 000000018002f458     libucrt:lcidtoname_downlevel.obj
 0002:00009468       ??_C@_1M@LJLLCMEH@?$AAp?$AAt?$AA?9?$AAb?$AAr@ 000000018002f468     libucrt:lcidtoname_downlevel.obj
 0002:00009478       ??_C@_1M@NCMONAAL@?$AAp?$AAt?$AA?9?$AAp?$AAt@ 000000018002f478     libucrt:lcidtoname_downlevel.obj
 0002:00009488       ??_C@_1O@EAKMAJDN@?$AAq?$AAu?$AAz?$AA?9?$AAb?$AAo@ 000000018002f488     libucrt:lcidtoname_downlevel.obj
 0002:00009498       ??_C@_1O@BHHPIGDN@?$AAq?$AAu?$AAz?$AA?9?$AAe?$AAc@ 000000018002f498     libucrt:lcidtoname_downlevel.obj
 0002:000094a8       ??_C@_1O@GBAPEKMJ@?$AAq?$AAu?$AAz?$AA?9?$AAp?$AAe@ 000000018002f4a8     libucrt:lcidtoname_downlevel.obj
 0002:000094b8       ??_C@_1M@CLGLEFBO@?$AAr?$AAo?$AA?9?$AAr?$AAo@ 000000018002f4b8     libucrt:lcidtoname_downlevel.obj
 0002:000094c8       ??_C@_1M@CEEDODME@?$AAr?$AAu?$AA?9?$AAr?$AAu@ 000000018002f4c8     libucrt:lcidtoname_downlevel.obj
 0002:000094d8       ??_C@_1M@HPKKKMPP@?$AAs?$AAa?$AA?9?$AAi?$AAn@ 000000018002f4d8     libucrt:lcidtoname_downlevel.obj
 0002:000094e8       ??_C@_1M@BKMAIGOJ@?$AAs?$AAe?$AA?9?$AAf?$AAi@ 000000018002f4e8     libucrt:lcidtoname_downlevel.obj
 0002:000094f8       ??_C@_1M@NDPIFLFI@?$AAs?$AAe?$AA?9?$AAn?$AAo@ 000000018002f4f8     libucrt:lcidtoname_downlevel.obj
 0002:00009508       ??_C@_1M@DANKKHJ@?$AAs?$AAe?$AA?9?$AAs?$AAe@ 000000018002f508     libucrt:lcidtoname_downlevel.obj
 0002:00009518       ??_C@_1M@PNBLONPJ@?$AAs?$AAk?$AA?9?$AAs?$AAk@ 000000018002f518     libucrt:lcidtoname_downlevel.obj
 0002:00009528       ??_C@_1M@LFMODOAL@?$AAs?$AAl?$AA?9?$AAs?$AAi@ 000000018002f528     libucrt:lcidtoname_downlevel.obj
 0002:00009538       ??_C@_1O@DFKOMPG@?$AAs?$AAm?$AAa?$AA?9?$AAn?$AAo@ 000000018002f538     libucrt:lcidtoname_downlevel.obj
 0002:00009548       ??_C@_1O@NDKPBNNH@?$AAs?$AAm?$AAa?$AA?9?$AAs?$AAe@ 000000018002f548     libucrt:lcidtoname_downlevel.obj
 0002:00009558       ??_C@_1O@PLLKBHAB@?$AAs?$AAm?$AAj?$AA?9?$AAn?$AAo@ 000000018002f558     libucrt:lcidtoname_downlevel.obj
 0002:00009568       ??_C@_1O@CLEPOGCA@?$AAs?$AAm?$AAj?$AA?9?$AAs?$AAe@ 000000018002f568     libucrt:lcidtoname_downlevel.obj
 0002:00009578       ??_C@_1O@DLGJGKMK@?$AAs?$AAm?$AAn?$AA?9?$AAf?$AAi@ 000000018002f578     libucrt:lcidtoname_downlevel.obj
 0002:00009588       ??_C@_1O@OJDJGAJC@?$AAs?$AAm?$AAs?$AA?9?$AAf?$AAi@ 000000018002f588     libucrt:lcidtoname_downlevel.obj
 0002:00009598       ??_C@_1M@BOFOGHPB@?$AAs?$AAq?$AA?9?$AAa?$AAl@ 000000018002f598     libucrt:lcidtoname_downlevel.obj
 0002:000095a8       ??_C@_1BG@LJBBIPGB@?$AAs?$AAr?$AA?9?$AAb?$AAa?$AA?9?$AAc?$AAy?$AAr?$AAl@ 000000018002f5a8     libucrt:lcidtoname_downlevel.obj
 0002:000095c0       ??_C@_1BG@JLBENFOE@?$AAs?$AAr?$AA?9?$AAb?$AAa?$AA?9?$AAl?$AAa?$AAt?$AAn@ 000000018002f5c0     libucrt:lcidtoname_downlevel.obj
 0002:000095d8       ??_C@_1BG@KODPNHE@?$AAs?$AAr?$AA?9?$AAs?$AAp?$AA?9?$AAc?$AAy?$AAr?$AAl@ 000000018002f5d8     libucrt:lcidtoname_downlevel.obj
 0002:000095f0       ??_C@_1BG@CIOGKHPB@?$AAs?$AAr?$AA?9?$AAs?$AAp?$AA?9?$AAl?$AAa?$AAt?$AAn@ 000000018002f5f0     libucrt:lcidtoname_downlevel.obj
 0002:00009608       ??_C@_1M@NGFJLMAC@?$AAs?$AAv?$AA?9?$AAf?$AAi@ 000000018002f608     libucrt:lcidtoname_downlevel.obj
 0002:00009618       ??_C@_1M@MPJEJAJC@?$AAs?$AAv?$AA?9?$AAs?$AAe@ 000000018002f618     libucrt:lcidtoname_downlevel.obj
 0002:00009628       ??_C@_1M@MPNDHLFK@?$AAs?$AAw?$AA?9?$AAk?$AAe@ 000000018002f628     libucrt:lcidtoname_downlevel.obj
 0002:00009638       ??_C@_1O@KOHBJJI@?$AAs?$AAy?$AAr?$AA?9?$AAs?$AAy@ 000000018002f638     libucrt:lcidtoname_downlevel.obj
 0002:00009648       ??_C@_1M@LDCEFHA@?$AAt?$AAa?$AA?9?$AAi?$AAn@ 000000018002f648     libucrt:lcidtoname_downlevel.obj
 0002:00009658       ??_C@_1M@CNJOFAK@?$AAt?$AAe?$AA?9?$AAi?$AAn@ 000000018002f658     libucrt:lcidtoname_downlevel.obj
 0002:00009668       ??_C@_1M@GNAECACD@?$AAt?$AAh?$AA?9?$AAt?$AAh@ 000000018002f668     libucrt:lcidtoname_downlevel.obj
 0002:00009678       ??_C@_1M@CHBIHOJO@?$AAt?$AAn?$AA?9?$AAz?$AAa@ 000000018002f678     libucrt:lcidtoname_downlevel.obj
 0002:00009688       ??_C@_1M@GCCMIGPJ@?$AAt?$AAr?$AA?9?$AAt?$AAr@ 000000018002f688     libucrt:lcidtoname_downlevel.obj
 0002:00009698       ??_C@_1M@CELMCNBK@?$AAt?$AAt?$AA?9?$AAr?$AAu@ 000000018002f698     libucrt:lcidtoname_downlevel.obj
 0002:000096a8       ??_C@_1M@KLMCELGA@?$AAu?$AAk?$AA?9?$AAu?$AAa@ 000000018002f6a8     libucrt:lcidtoname_downlevel.obj
 0002:000096b8       ??_C@_1M@EPAJJAJF@?$AAu?$AAr?$AA?9?$AAp?$AAk@ 000000018002f6b8     libucrt:lcidtoname_downlevel.obj
 0002:000096c8       ??_C@_1BG@GEGPMCDJ@?$AAu?$AAz?$AA?9?$AAu?$AAz?$AA?9?$AAc?$AAy?$AAr?$AAl@ 000000018002f6c8     libucrt:lcidtoname_downlevel.obj
 0002:000096e0       ??_C@_1BG@EGGKJILM@?$AAu?$AAz?$AA?9?$AAu?$AAz?$AA?9?$AAl?$AAa?$AAt?$AAn@ 000000018002f6e0     libucrt:lcidtoname_downlevel.obj
 0002:000096f8       ??_C@_1M@GFOCLFF@?$AAv?$AAi?$AA?9?$AAv?$AAn@ 000000018002f6f8     libucrt:lcidtoname_downlevel.obj
 0002:00009708       ??_C@_1M@CPAMEDFI@?$AAx?$AAh?$AA?9?$AAz?$AAa@ 000000018002f708     libucrt:lcidtoname_downlevel.obj
 0002:00009718       ??_C@_1O@EBKIFIGN@?$AAz?$AAh?$AA?9?$AAc?$AAh?$AAs@ 000000018002f718     libucrt:lcidtoname_downlevel.obj
 0002:00009728       ??_C@_1O@NMHPGANE@?$AAz?$AAh?$AA?9?$AAc?$AAh?$AAt@ 000000018002f728     libucrt:lcidtoname_downlevel.obj
 0002:00009738       ??_C@_1M@LPINJOMC@?$AAz?$AAh?$AA?9?$AAc?$AAn@ 000000018002f738     libucrt:lcidtoname_downlevel.obj
 0002:00009748       ??_C@_1M@OCJEJODD@?$AAz?$AAh?$AA?9?$AAh?$AAk@ 000000018002f748     libucrt:lcidtoname_downlevel.obj
 0002:00009758       ??_C@_1M@DNDLJINH@?$AAz?$AAh?$AA?9?$AAm?$AAo@ 000000018002f758     libucrt:lcidtoname_downlevel.obj
 0002:00009768       ??_C@_1M@MBFDNDND@?$AAz?$AAh?$AA?9?$AAs?$AAg@ 000000018002f768     libucrt:lcidtoname_downlevel.obj
 0002:00009778       ??_C@_1M@IMEPLEPE@?$AAz?$AAh?$AA?9?$AAt?$AAw@ 000000018002f778     libucrt:lcidtoname_downlevel.obj
 0002:00009788       ??_C@_1M@BBGHNHJP@?$AAz?$AAu?$AA?9?$AAz?$AAa@ 000000018002f788     libucrt:lcidtoname_downlevel.obj
 0002:000097a0       ?large_power_data@?1??multiply_by_power_of_ten@__crt_strtox@@YA_NAEAUbig_integer@2@I@Z@4QBIB 000000018002f7a0     libucrt:cfout.obj
 0002:0000a0b0       ?large_power_indices@?1??multiply_by_power_of_ten@__crt_strtox@@YA_NAEAUbig_integer@2@I@Z@4QBUunpack_index@?1??12@YA_N0I@Z@B 00000001800300b0     libucrt:cfout.obj
 0002:0000a148       ?small_powers_of_ten@?1??multiply_by_power_of_ten@__crt_strtox@@YA_NAEAUbig_integer@2@I@Z@4QBIB 0000000180030148     libucrt:cfout.obj
 0002:0000a16c       ??_C@_01GBGANLPD@0@        000000018003016c     libucrt:cfout.obj
 0002:0000a170       ??_C@_05DNEBIAHO@1?$CDINF@ 0000000180030170     libucrt:cfout.obj
 0002:0000a178       ??_C@_06IMKFLFPG@1?$CDQNAN@ 0000000180030178     libucrt:cfout.obj
 0002:0000a180       ??_C@_06PGGFOGJG@1?$CDSNAN@ 0000000180030180     libucrt:cfout.obj
 0002:0000a188       ??_C@_05PHHOCPM@1?$CDIND@  0000000180030188     libucrt:cfout.obj
 0002:0000a190       __real@3ff0000000000000    0000000180030190     libucrt:ceil.obj
 0002:0000a3f0       __log10_256_lead           00000001800303f0     libucrt:log10_256_lead_tail_table.obj
 0002:0000ac00       __log10_256_tail           0000000180030c00     libucrt:log10_256_lead_tail_table.obj
 0002:0000b410       __log_F_inv_qword          0000000180031410     libucrt:log_f_inv_qword_table.obj
 0002:0000bc20       ??_C@_05HGHHAHAP@log10@    0000000180031c20     libucrt:log_special.obj
 0002:0000bc28       ??_C@_1BA@BALFACEM@?$AAC?$AAO?$AAN?$AAO?$AAU?$AAT?$AA$@ 0000000180031c28     libucrt:initcon.obj
 0002:0000bcb0       _load_config_used          0000000180031cb0     LIBCMT:loadcfg.obj
 0002:0000be00       _tls_used                  0000000180031e00     LIBCMT:tlssup.obj
 0002:0000be28       ??_R4exception@std@@6B@    0000000180031e28     LIBCMT:throw_bad_alloc.obj
 0002:0000be50       ??_R3exception@std@@8      0000000180031e50     LIBCMT:throw_bad_alloc.obj
 0002:0000be68       ??_R2exception@std@@8      0000000180031e68     LIBCMT:throw_bad_alloc.obj
 0002:0000be78       ??_R1A@?0A@EA@exception@std@@8 0000000180031e78     LIBCMT:throw_bad_alloc.obj
 0002:0000bea0       ??_R4bad_alloc@std@@6B@    0000000180031ea0     LIBCMT:throw_bad_alloc.obj
 0002:0000bec8       ??_R3bad_alloc@std@@8      0000000180031ec8     LIBCMT:throw_bad_alloc.obj
 0002:0000bee0       ??_R2bad_alloc@std@@8      0000000180031ee0     LIBCMT:throw_bad_alloc.obj
 0002:0000bef8       ??_R1A@?0A@EA@bad_alloc@std@@8 0000000180031ef8     LIBCMT:throw_bad_alloc.obj
 0002:0000bf20       ??_R4bad_array_new_length@std@@6B@ 0000000180031f20     LIBCMT:throw_bad_alloc.obj
 0002:0000bf48       ??_R3bad_array_new_length@std@@8 0000000180031f48     LIBCMT:throw_bad_alloc.obj
 0002:0000bf60       ??_R2bad_array_new_length@std@@8 0000000180031f60     LIBCMT:throw_bad_alloc.obj
 0002:0000bf80       ??_R1A@?0A@EA@bad_array_new_length@std@@8 0000000180031f80     LIBCMT:throw_bad_alloc.obj
 0002:0000bfa8       ??_R4type_info@@6B@        0000000180031fa8     LIBCMT:std_type_info_static.obj
 0002:0000bfd0       ??_R3type_info@@8          0000000180031fd0     LIBCMT:std_type_info_static.obj
 0002:0000bfe8       ??_R2type_info@@8          0000000180031fe8     LIBCMT:std_type_info_static.obj
 0002:0000bff8       ??_R1A@?0A@EA@type_info@@8 0000000180031ff8     LIBCMT:std_type_info_static.obj
 0002:0000c020       ??_R4bad_exception@std@@6B@ 0000000180032020     libvcruntime:frame.obj
 0002:0000c048       ??_R3bad_exception@std@@8  0000000180032048     libvcruntime:frame.obj
 0002:0000c060       ??_R2bad_exception@std@@8  0000000180032060     libvcruntime:frame.obj
 0002:0000c078       ??_R1A@?0A@EA@bad_exception@std@@8 0000000180032078     libvcruntime:frame.obj
 0002:0000c4a8       __rtc_iaa                  00000001800324a8     LIBCMT:initsect.obj
 0002:0000c4b0       __rtc_izz                  00000001800324b0     LIBCMT:initsect.obj
 0002:0000c4b8       __rtc_taa                  00000001800324b8     LIBCMT:initsect.obj
 0002:0000c4c0       __rtc_tzz                  00000001800324c0     LIBCMT:initsect.obj
 0002:0000c4c8       _tls_start                 00000001800324c8     LIBCMT:tlssup.obj
 0002:0000c4cc       _Init_thread_epoch         00000001800324cc     LIBCMT:thread_safe_statics.obj
 0002:0000c4d0       _tls_end                   00000001800324d0     LIBCMT:tlssup.obj
 0002:0000dc20       _TI2?AVbad_alloc@std@@     0000000180033c20     LIBCMT:throw_bad_alloc.obj
 0002:0000dc40       _CTA2?AVbad_alloc@std@@    0000000180033c40     LIBCMT:throw_bad_alloc.obj
 0002:0000dc58       _CT??_R0?AVbad_alloc@std@@@8??0bad_alloc@std@@QEAA@AEBV01@@Z24 0000000180033c58     LIBCMT:throw_bad_alloc.obj
 0002:0000dc80       _CT??_R0?AVexception@std@@@8??0exception@std@@QEAA@AEBV01@@Z24 0000000180033c80     LIBCMT:throw_bad_alloc.obj
 0002:0000dca8       _TI3?AVbad_array_new_length@std@@ 0000000180033ca8     LIBCMT:throw_bad_alloc.obj
 0002:0000dcc8       _CTA3?AVbad_array_new_length@std@@ 0000000180033cc8     LIBCMT:throw_bad_alloc.obj
 0002:0000dce8       _CT??_R0?AVbad_array_new_length@std@@@8??0bad_array_new_length@std@@QEAA@AEBV01@@Z24 0000000180033ce8     LIBCMT:throw_bad_alloc.obj
 0002:0000dd10       _TI2?AVbad_exception@std@@ 0000000180033d10     libvcruntime:frame.obj
 0002:0000dd30       _CTA2?AVbad_exception@std@@ 0000000180033d30     libvcruntime:frame.obj
 0002:0000dd48       _CT??_R0?AVbad_exception@std@@@8??0bad_exception@std@@QEAA@AEBV01@@Z24 0000000180033d48     libvcruntime:frame.obj
 0002:0000dd70       __pobjMapEntryFirst        0000000180033d70     OposVariant.obj
 0002:0000dd78       __pobjMapEntryLast         0000000180033d78     OposVariant.obj
 0002:0000de30       __IMPORT_DESCRIPTOR_KERNEL32 0000000180033e30     kernel32:KERNEL32.dll
 0002:0000de44       __IMPORT_DESCRIPTOR_USER32 0000000180033e44     user32:USER32.dll
 0002:0000de58       __IMPORT_DESCRIPTOR_GDI32  0000000180033e58     gdi32:GDI32.dll
 0002:0000de6c       __IMPORT_DESCRIPTOR_ADVAPI32 0000000180033e6c     advapi32:ADVAPI32.dll
 0002:0000de80       __IMPORT_DESCRIPTOR_ole32  0000000180033e80     ole32:ole32.dll
 0002:0000de94       __IMPORT_DESCRIPTOR_OLEAUT32 0000000180033e94     oleaut32:OLEAUT32.dll
 0002:0000dea8       __NULL_IMPORT_DESCRIPTOR   0000000180033ea8     kernel32:KERNEL32.dll
 0003:00000000       ?s_Claim@?7??GetIDsOfNames@CComTypeInfoHolder@ATL@@QEAAJAEBU_GUID@@PEAPEA_WIKPEAJ@Z@4PA_WA 0000000180036000     FiscalPrinter.obj
 0003:00000018       ?s_Release@?7??GetIDsOfNames@CComTypeInfoHolder@ATL@@QEAAJAEBU_GUID@@PEAPEA_WIKPEAJ@Z@4PA_WA 0000000180036018     FiscalPrinter.obj
 0003:00000038       ?_tih@?$IDispatchImpl@UIOPOSFiscalPrinter@@$1?IID_IOPOSFiscalPrinter@@3U_GUID@@B$1?LIBID_OposFiscalPrinter_CCO@@3U3@B$00$0A@VCComTypeInfoHolder@ATL@@@ATL@@1VCComTypeInfoHolder@2@A 0000000180036038     FiscalPrinter.obj
 0003:00000070       ?_tih@?$IProvideClassInfo2Impl@$1?CLSID_OPOSFiscalPrinter@@3U_GUID@@B$1?DIID__IOPOSFiscalPrinterEvents@@3U2@B$1?LIBID_OposFiscalPrinter_CCO@@3U2@B$00$0A@VCComTypeInfoHolder@ATL@@@ATL@@1VCComTypeInfoHolder@2@A 0000000180036070     FiscalPrinter.obj
 0003:000000a8       ?vszContents@?6??Save@?$IPersistStorageImpl@VCOPOSFiscalPrinter@@@ATL@@UEAAJPEAUIStorage@@H@Z@4PEB_WEB 00000001800360a8     FiscalPrinter.obj
 0003:000000b0       ?rcDefault@CWindow@ATL@@2UtagRECT@@A 00000001800360b0     FiscalPrinter.obj
 0003:000000c0       ?wc@?1??GetWndClassInfo@?$CWindowImpl@VCOPOSFiscalPrinter@@VCWindow@ATL@@V?$CWinTraits@$0FGAAAAAA@$0A@@3@@ATL@@SAAEAU_ATL_WNDCLASSINFOW@3@XZ@4U43@A 00000001800360c0     FiscalPrinter.obj
 0003:00000250       ?g_WindowName@@3PA_WA      0000000180036250     FiscalPrinterImpl.obj
 0003:00000280       ?g_ControlDescription@@3PADA 0000000180036280     FiscalPrinterImpl.obj
 0003:000002d0       ?g_ControlVersion@@3JA     00000001800362d0     FiscalPrinterImpl.obj
 0003:00000588       __scrt_native_dllmain_reason 0000000180036588     LIBCMT:utility.obj
 0003:0000058c       _Init_global_epoch         000000018003658c     LIBCMT:thread_safe_statics.obj
 0003:00000590       __security_cookie_complement 0000000180036590     LIBCMT:gs_cookie.obj
 0003:00000598       __security_cookie          0000000180036598     LIBCMT:gs_cookie.obj
 0003:000005a0       __isa_available            00000001800365a0     LIBCMT:cpu_disp.obj
 0003:000005a4       __isa_enabled              00000001800365a4     LIBCMT:cpu_disp.obj
 0003:000005a8       __memcpy_nt_iters          00000001800365a8     LIBCMT:cpu_disp.obj
 0003:000005b0       __memset_nt_iters          00000001800365b0     LIBCMT:cpu_disp.obj
 0003:000005d8       __abort_behavior           00000001800365d8     libucrt:abort.obj
 0003:000005f0       _iob                       00000001800365f0     libucrt:_file.obj
 0003:00000700       __acrt_initial_locale_data 0000000180036700     libucrt:nlsdata.obj
 0003:00000858       __acrt_initial_locale_pointers 0000000180036858     libucrt:nlsdata.obj
 0003:00000868       __acrt_wide_c_locale_string 0000000180036868     libucrt:nlsdata.obj
 0003:00000870       __acrt_initial_multibyte_data 0000000180036870     libucrt:mbctype.obj
 0003:00000db0       _pwctype                   0000000180036db0     libucrt:ctype.obj
 0003:00000db8       __globallocalestatus       0000000180036db8     libucrt:glstatus.obj
 0003:00000dc0       __acrt_lconv_c             0000000180036dc0     libucrt:localeconv.obj
 0003:00000e58       __acrt_lconv_static_decimal 0000000180036e58     libucrt:localeconv.obj
 0003:00000e5c       __acrt_lconv_static_W_decimal 0000000180036e5c     libucrt:localeconv.obj
 0003:00000e60       _lookuptrailbytes          0000000180036e60     libucrt:read.obj
 0003:00000f84       _fltused                   0000000180036f84     LIBCMT:fltused.obj
 0003:00000f88       ??_R0?AVbad_alloc@std@@@8  0000000180036f88     LIBCMT:throw_bad_alloc.obj
 0003:00000fb0       ??_R0?AVexception@std@@@8  0000000180036fb0     LIBCMT:throw_bad_alloc.obj
 0003:00000fd8       ??_R0?AVbad_array_new_length@std@@@8 0000000180036fd8     LIBCMT:throw_bad_alloc.obj
 0003:00001008       ??_R0?AVtype_info@@@8      0000000180037008     LIBCMT:std_type_info_static.obj
 0003:00001028       ??_R0?AVbad_exception@std@@@8 0000000180037028     libvcruntime:frame.obj
 0003:00001050       ?_pPerfRegFunc@ATL@@3P6AJPEAUHINSTANCE__@@@ZEA 0000000180037050     OposVariant.obj
 0003:00001058       ?_pPerfUnRegFunc@ATL@@3P6AJXZEA 0000000180037058     OposVariant.obj
 0003:00001060       ?_AtlRegisterPerUser@ATL@@3_NA 0000000180037060     OposVariant.obj
 0003:00001068       ?_pAtlModule@ATL@@3PEAVCAtlModule@1@EA 0000000180037068     OposVariant.obj
 0003:00001070       ?_pModule@ATL@@3PEAVCComModule@1@EA 0000000180037070     OposVariant.obj
 0003:00001078       ?m_bInitFailed@CAtlBaseModule@ATL@@2_NA 0000000180037078     OposVariant.obj
 0003:00001080       ?_AtlComModule@ATL@@3VCAtlComModule@1@A 0000000180037080     OposVariant.obj
 0003:000010d0       ?_AtlWinModule@ATL@@3VCAtlWinModule@1@A 00000001800370d0     OposVariant.obj
 0003:00001118       ?m_libid@CAtlModule@ATL@@2U_GUID@@A 0000000180037118     FiscalPrinter.obj
 0003:00001128       ?_entries@?1??GetConnMap@COPOSFiscalPrinter@@SAPEBU_ATL_CONNMAP_ENTRY@ATL@@PEAH@Z@4QBU34@B 0000000180037128     FiscalPrinter.obj
 0003:00001140       ?$TSS0@?1??GetConnMap@COPOSFiscalPrinter@@SAPEBU_ATL_CONNMAP_ENTRY@ATL@@PEAH@Z@4HA 0000000180037140     FiscalPrinter.obj
 0003:00001148       ?_OptionsStorage@?1??__local_stdio_printf_options@@9@4_KA 0000000180037148     FiscalPrinter.obj
 0003:00001150       ?pfnRegDeleteKeyEx@?1??DeleteSubKey@CRegKey@ATL@@QEAAJPEB_W@Z@4P6AJPEAUHKEY__@@0KK@ZEA 0000000180037150     FiscalPrinter.obj
 0003:00001158       ?bInitialized@?1??DeleteSubKey@CRegKey@ATL@@QEAAJPEB_W@Z@4_NA 0000000180037158     FiscalPrinter.obj
 0003:00001160       ?_Module@@3VCComModule@ATL@@A 0000000180037160     FiscalPrinter.obj
 0003:000011b0       ?pConnMap@?$IConnectionPointContainerImpl@VCOPOSFiscalPrinter@@@ATL@@0PEBU_ATL_CONNMAP_ENTRY@2@EB 00000001800371b0     FiscalPrinter.obj
 0003:000011b8       ?s_nInstances@COPOSFiscalPrinter@@1HA 00000001800371b8     FiscalPrinterImpl.obj
 0003:000011c0       __scrt_current_native_startup_state 00000001800371c0     LIBCMT:utility.obj
 0003:000011c8       __scrt_native_startup_lock 00000001800371c8     LIBCMT:utility.obj
 0003:000017c0       _tls_index                 00000001800377c0     LIBCMT:tlssup.obj
 0003:000017c8       __favor                    00000001800377c8     LIBCMT:cpu_disp.obj
 0003:000017cc       __scrt_debugger_hook_flag  00000001800377cc     LIBCMT:utility_desktop.obj
 0003:000017d0       __castguard_check_failure_os_handled_fptr 00000001800377d0     LIBCMT:guard_support.obj
 0003:000017e0       ?__type_info_root_node@@3U__type_info_node@@A 00000001800377e0     LIBCMT:tncleanup.obj
 0003:000017f0       ?_OptionsStorage@?1??__local_stdio_scanf_options@@9@4_KA 00000001800377f0     LIBCMT:default_local_stdio_options.obj
 0003:00001800       ?_AtlBaseModule@ATL@@3VCAtlBaseModule@1@A 0000000180037800     atls:atlbase.obj
 0003:00001860       ?__AtlThunkPool@@3PEAT_SLIST_HEADER@@EA 0000000180037860     atls:atlthunk.obj
 0003:0000188c       __@@_PchSym_@00@UztvmgUPdlipUGDUhUrmgvinvwrzgvUexgllohUzgohOmzgrevkilqPBACIAJCBDBUlyqiUznwGEUhgwzucOlyq@4B2008FD98C1DD4 000000018003788c     atls:stdafx.obj
 0003:00001890       ?__WinRTOutOfMemoryExceptionCallback@@3P6APEAXXZEA 0000000180037890     libvcruntime:ehhelpers.obj
 0003:00001898       __pPurecall                0000000180037898     libvcruntime:purevirt_data.obj
 0003:00001950       ?pArgList@UnDecorator@@0PEAVReplicator@@EA 0000000180037950     libvcruntime:undname.obj
 0003:00001958       ?pZNameList@UnDecorator@@0PEAVReplicator@@EA 0000000180037958     libvcruntime:undname.obj
 0003:00001960       ?pTemplateArgList@UnDecorator@@0PEAVReplicator@@EA 0000000180037960     libvcruntime:undname.obj
 0003:00001968       ?gName@UnDecorator@@0PEBDEB 0000000180037968     libvcruntime:undname.obj
 0003:00001970       ?name@UnDecorator@@0PEBDEB 0000000180037970     libvcruntime:undname.obj
 0003:00001978       ?disableFlags@UnDecorator@@0KA 0000000180037978     libvcruntime:undname.obj
 0003:0000197c       ?fExplicitTemplateParams@UnDecorator@@0_NA 000000018003797c     libvcruntime:undname.obj
 0003:0000197d       ?fGetTemplateArgumentList@UnDecorator@@0_NA 000000018003797d     libvcruntime:undname.obj
 0003:00001980       ?m_pGetParameter@UnDecorator@@0P6APEADJ@ZEA 0000000180037980     libvcruntime:undname.obj
 0003:00001988       ?m_CHPENameOffset@UnDecorator@@0KA 0000000180037988     libvcruntime:undname.obj
 0003:0000198c       ?m_recursionLevel@UnDecorator@@0KA 000000018003798c     libvcruntime:undname.obj
 0003:00001a10       ?c_exit_complete@?1???R<lambda_6e4b09c48022b2350581041d5f6b0c4c>@@QEBA@XZ@4_NA 0000000180037a10     libucrt:exit.obj
 0003:00001b28       _environ_table             0000000180037b28     libucrt:environment_initialization.obj
 0003:00001b30       _wenviron_table            0000000180037b30     libucrt:environment_initialization.obj
 0003:00001b38       __dcrt_initial_wide_environment 0000000180037b38     libucrt:environment_initialization.obj
 0003:00001b40       __dcrt_initial_narrow_environment 0000000180037b40     libucrt:environment_initialization.obj
 0003:00001b48       __acrt_atexit_table        0000000180037b48     libucrt:onexit.obj
 0003:00001b60       __acrt_at_quick_exit_table 0000000180037b60     libucrt:onexit.obj
 0003:00001d38       _nstream                   0000000180037d38     libucrt:_file.obj
 0003:00001d40       __piob                     0000000180037d40     libucrt:_file.obj
 0003:00001d50       __acrt_stdout_buffer       0000000180037d50     libucrt:_sftbuf.obj
 0003:00001d58       __acrt_stderr_buffer       0000000180037d58     libucrt:_sftbuf.obj
 0003:00001d60       __acrt_locale_changed_data 0000000180037d60     libucrt:wsetlocale.obj
 0003:00001d68       __acrt_current_locale_data 0000000180037d68     libucrt:nlsdata.obj
 0003:00001d70       __pioinfo                  0000000180037d70     libucrt:ioinit.obj
 0003:00002170       _nhandle                   0000000180038170     libucrt:ioinit.obj
 0003:000023b8       _mbctype                   00000001800383b8     libucrt:mbctype.obj
 0003:000023c0       _mbcasemap                 00000001800383c0     libucrt:mbctype.obj
 0003:000023c8       __acrt_current_multibyte_data 00000001800383c8     libucrt:mbctype.obj
 0003:000023d8       _pgmptr                    00000001800383d8     libucrt:argv_data.obj
 0003:000023e0       __argc                     00000001800383e0     libucrt:argv_data.obj
 0003:000023e8       __argv                     00000001800383e8     libucrt:argv_data.obj
 0003:000023f0       __wargv                    00000001800383f0     libucrt:argv_data.obj
 0003:000023f8       _acmdln                    00000001800383f8     libucrt:argv_data.obj
 0003:00002400       _wcmdln                    0000000180038400     libucrt:argv_data.obj
 0003:00002408       __acrt_heap                0000000180038408     libucrt:heap_handle.obj
 0003:0000243c       __acrt_lconv_static_null   000000018003843c     libucrt:localeconv.obj
 0003:00002440       __acrt_lconv_static_W_null 0000000180038440     libucrt:localeconv.obj
 0003:00002454       __fma3_is_available        0000000180038454     libucrt:fma3_available.obj
 0003:00002458       __use_fma3_lib             0000000180038458     libucrt:fma3_available.obj
 0003:00002460       __dyn_tls_init_callback    0000000180038460     <common>
 0003:00002468       __scrt_ucrt_dll_is_in_use  0000000180038468     <common>

 entry point at        0001:000124d4

 Static symbols

 0000:fffb7000       .debug$S                   0000000180000000     OPOSFiscalPrinter.exp
 0000:fffb7000       .debug$S                   0000000180000000     advapi32:ADVAPI32.dll
 0000:fffb7000       .debug$S                   0000000180000000     advapi32:ADVAPI32.dll
 0000:fffb7000       .debug$S                   0000000180000000     advapi32:ADVAPI32.dll
 0000:fffb7000       .debug$S                   0000000180000000     advapi32:ADVAPI32.dll
 0000:fffb7000       .debug$S                   0000000180000000     advapi32:ADVAPI32.dll
 0000:fffb7000       .debug$S                   0000000180000000     advapi32:ADVAPI32.dll
 0000:fffb7000       .debug$S                   0000000180000000     advapi32:ADVAPI32.dll
 0000:fffb7000       .debug$S                   0000000180000000     advapi32:ADVAPI32.dll
 0000:fffb7000       .debug$S                   0000000180000000     advapi32:ADVAPI32.dll
 0000:fffb7000       .debug$S                   0000000180000000     gdi32:GDI32.dll
 0000:fffb7000       .debug$S                   0000000180000000     gdi32:GDI32.dll
 0000:fffb7000       .debug$S                   0000000180000000     gdi32:GDI32.dll
 0000:fffb7000       .debug$S                   0000000180000000     gdi32:GDI32.dll
 0000:fffb7000       .debug$S                   0000000180000000     gdi32:GDI32.dll
 0000:fffb7000       .debug$S                   0000000180000000     gdi32:GDI32.dll
 0000:fffb7000       .debug$S                   0000000180000000     gdi32:GDI32.dll
 0000:fffb7000       .debug$S                   0000000180000000     gdi32:GDI32.dll
 0000:fffb7000       .debug$S                   0000000180000000     gdi32:GDI32.dll
 0000:fffb7000       .debug$S                   0000000180000000     gdi32:GDI32.dll
 0000:fffb7000       .debug$S                   0000000180000000     gdi32:GDI32.dll
 0000:fffb7000       .debug$S                   0000000180000000     gdi32:GDI32.dll
 0000:fffb7000       .debug$S                   0000000180000000     gdi32:GDI32.dll
 0000:fffb7000       .debug$S                   0000000180000000     gdi32:GDI32.dll
 0000:fffb7000       .debug$S                   0000000180000000     gdi32:GDI32.dll
 0000:fffb7000       .debug$S                   0000000180000000     gdi32:GDI32.dll
 0000:fffb7000       .debug$S                   0000000180000000     gdi32:GDI32.dll
 0000:fffb7000       .debug$S                   0000000180000000     gdi32:GDI32.dll
 0000:fffb7000       .debug$S                   0000000180000000     gdi32:GDI32.dll
 0000:fffb7000       .debug$S                   0000000180000000     kernel32:KERNEL32.dll
 0000:fffb7000       .debug$S                   0000000180000000     kernel32:KERNEL32.dll
 0000:fffb7000       .debug$S                   0000000180000000     kernel32:KERNEL32.dll
 0000:fffb7000       .debug$S                   0000000180000000     kernel32:KERNEL32.dll
 0000:fffb7000       .debug$S                   0000000180000000     kernel32:KERNEL32.dll
 0000:fffb7000       .debug$S                   0000000180000000     kernel32:KERNEL32.dll
 0000:fffb7000       .debug$S                   0000000180000000     kernel32:KERNEL32.dll
 0000:fffb7000       .debug$S                   0000000180000000     kernel32:KERNEL32.dll
 0000:fffb7000       .debug$S                   0000000180000000     kernel32:KERNEL32.dll
 0000:fffb7000       .debug$S                   0000000180000000     kernel32:KERNEL32.dll
 0000:fffb7000       .debug$S                   0000000180000000     kernel32:KERNEL32.dll
 0000:fffb7000       .debug$S                   0000000180000000     kernel32:KERNEL32.dll
 0000:fffb7000       .debug$S                   0000000180000000     kernel32:KERNEL32.dll
 0000:fffb7000       .debug$S                   0000000180000000     kernel32:KERNEL32.dll
 0000:fffb7000       .debug$S                   0000000180000000     kernel32:KERNEL32.dll
 0000:fffb7000       .debug$S                   0000000180000000     kernel32:KERNEL32.dll
 0000:fffb7000       .debug$S                   0000000180000000     kernel32:KERNEL32.dll
 0000:fffb7000       .debug$S                   0000000180000000     kernel32:KERNEL32.dll
 0000:fffb7000       .debug$S                   0000000180000000     kernel32:KERNEL32.dll
 0000:fffb7000       .debug$S                   0000000180000000     kernel32:KERNEL32.dll
 0000:fffb7000       .debug$S                   0000000180000000     kernel32:KERNEL32.dll
 0000:fffb7000       .debug$S                   0000000180000000     kernel32:KERNEL32.dll
 0000:fffb7000       .debug$S                   0000000180000000     kernel32:KERNEL32.dll
 0000:fffb7000       .debug$S                   0000000180000000     kernel32:KERNEL32.dll
 0000:fffb7000       .debug$S                   0000000180000000     kernel32:KERNEL32.dll
 0000:fffb7000       .debug$S                   0000000180000000     kernel32:KERNEL32.dll
 0000:fffb7000       .debug$S                   0000000180000000     kernel32:KERNEL32.dll
 0000:fffb7000       .debug$S                   0000000180000000     kernel32:KERNEL32.dll
 0000:fffb7000       .debug$S                   0000000180000000     kernel32:KERNEL32.dll
 0000:fffb7000       .debug$S                   0000000180000000     kernel32:KERNEL32.dll
 0000:fffb7000       .debug$S                   0000000180000000     kernel32:KERNEL32.dll
 0000:fffb7000       .debug$S                   0000000180000000     kernel32:KERNEL32.dll
 0000:fffb7000       .debug$S                   0000000180000000     kernel32:KERNEL32.dll
 0000:fffb7000       .debug$S                   0000000180000000     kernel32:KERNEL32.dll
 0000:fffb7000       .debug$S                   0000000180000000     kernel32:KERNEL32.dll
 0000:fffb7000       .debug$S                   0000000180000000     kernel32:KERNEL32.dll
 0000:fffb7000       .debug$S                   0000000180000000     kernel32:KERNEL32.dll
 0000:fffb7000       .debug$S                   0000000180000000     kernel32:KERNEL32.dll
 0000:fffb7000       .debug$S                   0000000180000000     kernel32:KERNEL32.dll
 0000:fffb7000       .debug$S                   0000000180000000     kernel32:KERNEL32.dll
 0000:fffb7000       .debug$S                   0000000180000000     kernel32:KERNEL32.dll
 0000:fffb7000       .debug$S                   0000000180000000     kernel32:KERNEL32.dll
 0000:fffb7000       .debug$S                   0000000180000000     kernel32:KERNEL32.dll
 0000:fffb7000       .debug$S                   0000000180000000     kernel32:KERNEL32.dll
 0000:fffb7000       .debug$S                   0000000180000000     kernel32:KERNEL32.dll
 0000:fffb7000       .debug$S                   0000000180000000     kernel32:KERNEL32.dll
 0000:fffb7000       .debug$S                   0000000180000000     kernel32:KERNEL32.dll
 0000:fffb7000       .debug$S                   0000000180000000     kernel32:KERNEL32.dll
 0000:fffb7000       .debug$S                   0000000180000000     kernel32:KERNEL32.dll
 0000:fffb7000       .debug$S                   0000000180000000     kernel32:KERNEL32.dll
 0000:fffb7000       .debug$S                   0000000180000000     kernel32:KERNEL32.dll
 0000:fffb7000       .debug$S                   0000000180000000     kernel32:KERNEL32.dll
 0000:fffb7000       .debug$S                   0000000180000000     kernel32:KERNEL32.dll
 0000:fffb7000       .debug$S                   0000000180000000     kernel32:KERNEL32.dll
 0000:fffb7000       .debug$S                   0000000180000000     kernel32:KERNEL32.dll
 0000:fffb7000       .debug$S                   0000000180000000     kernel32:KERNEL32.dll
 0000:fffb7000       .debug$S                   0000000180000000     kernel32:KERNEL32.dll
 0000:fffb7000       .debug$S                   0000000180000000     kernel32:KERNEL32.dll
 0000:fffb7000       .debug$S                   0000000180000000     kernel32:KERNEL32.dll
 0000:fffb7000       .debug$S                   0000000180000000     kernel32:KERNEL32.dll
 0000:fffb7000       .debug$S                   0000000180000000     kernel32:KERNEL32.dll
 0000:fffb7000       .debug$S                   0000000180000000     kernel32:KERNEL32.dll
 0000:fffb7000       .debug$S                   0000000180000000     kernel32:KERNEL32.dll
 0000:fffb7000       .debug$S                   0000000180000000     kernel32:KERNEL32.dll
 0000:fffb7000       .debug$S                   0000000180000000     kernel32:KERNEL32.dll
 0000:fffb7000       .debug$S                   0000000180000000     kernel32:KERNEL32.dll
 0000:fffb7000       .debug$S                   0000000180000000     kernel32:KERNEL32.dll
 0000:fffb7000       .debug$S                   0000000180000000     kernel32:KERNEL32.dll
 0000:fffb7000       .debug$S                   0000000180000000     kernel32:KERNEL32.dll
 0000:fffb7000       .debug$S                   0000000180000000     kernel32:KERNEL32.dll
 0000:fffb7000       .debug$S                   0000000180000000     kernel32:KERNEL32.dll
 0000:fffb7000       .debug$S                   0000000180000000     kernel32:KERNEL32.dll
 0000:fffb7000       .debug$S                   0000000180000000     kernel32:KERNEL32.dll
 0000:fffb7000       .debug$S                   0000000180000000     kernel32:KERNEL32.dll
 0000:fffb7000       .debug$S                   0000000180000000     kernel32:KERNEL32.dll
 0000:fffb7000       .debug$S                   0000000180000000     kernel32:KERNEL32.dll
 0000:fffb7000       .debug$S                   0000000180000000     kernel32:KERNEL32.dll
 0000:fffb7000       .debug$S                   0000000180000000     kernel32:KERNEL32.dll
 0000:fffb7000       .debug$S                   0000000180000000     kernel32:KERNEL32.dll
 0000:fffb7000       .debug$S                   0000000180000000     kernel32:KERNEL32.dll
 0000:fffb7000       .debug$S                   0000000180000000     kernel32:KERNEL32.dll
 0000:fffb7000       .debug$S                   0000000180000000     kernel32:KERNEL32.dll
 0000:fffb7000       .debug$S                   0000000180000000     kernel32:KERNEL32.dll
 0000:fffb7000       .debug$S                   0000000180000000     kernel32:KERNEL32.dll
 0000:fffb7000       .debug$S                   0000000180000000     kernel32:KERNEL32.dll
 0000:fffb7000       .debug$S                   0000000180000000     kernel32:KERNEL32.dll
 0000:fffb7000       .debug$S                   0000000180000000     kernel32:KERNEL32.dll
 0000:fffb7000       .debug$S                   0000000180000000     kernel32:KERNEL32.dll
 0000:fffb7000       .debug$S                   0000000180000000     kernel32:KERNEL32.dll
 0000:fffb7000       .debug$S                   0000000180000000     kernel32:KERNEL32.dll
 0000:fffb7000       .debug$S                   0000000180000000     kernel32:KERNEL32.dll
 0000:fffb7000       .debug$S                   0000000180000000     kernel32:KERNEL32.dll
 0000:fffb7000       .debug$S                   0000000180000000     kernel32:KERNEL32.dll
 0000:fffb7000       .debug$S                   0000000180000000     kernel32:KERNEL32.dll
 0000:fffb7000       .debug$S                   0000000180000000     kernel32:KERNEL32.dll
 0000:fffb7000       .debug$S                   0000000180000000     kernel32:KERNEL32.dll
 0000:fffb7000       .debug$S                   0000000180000000     kernel32:KERNEL32.dll
 0000:fffb7000       .debug$S                   0000000180000000     kernel32:KERNEL32.dll
 0000:fffb7000       .debug$S                   0000000180000000     kernel32:KERNEL32.dll
 0000:fffb7000       .debug$S                   0000000180000000     kernel32:KERNEL32.dll
 0000:fffb7000       .debug$S                   0000000180000000     kernel32:KERNEL32.dll
 0000:fffb7000       .debug$S                   0000000180000000     kernel32:KERNEL32.dll
 0000:fffb7000       .debug$S                   0000000180000000     kernel32:KERNEL32.dll
 0000:fffb7000       .debug$S                   0000000180000000     kernel32:KERNEL32.dll
 0000:fffb7000       .debug$S                   0000000180000000     kernel32:KERNEL32.dll
 0000:fffb7000       .debug$S                   0000000180000000     kernel32:KERNEL32.dll
 0000:fffb7000       .debug$S                   0000000180000000     kernel32:KERNEL32.dll
 0000:fffb7000       .debug$S                   0000000180000000     kernel32:KERNEL32.dll
 0000:fffb7000       .debug$S                   0000000180000000     kernel32:KERNEL32.dll
 0000:fffb7000       .debug$S                   0000000180000000     kernel32:KERNEL32.dll
 0000:fffb7000       .debug$S                   0000000180000000     kernel32:KERNEL32.dll
 0000:fffb7000       .debug$S                   0000000180000000     ole32:ole32.dll
 0000:fffb7000       .debug$S                   0000000180000000     ole32:ole32.dll
 0000:fffb7000       .debug$S                   0000000180000000     ole32:ole32.dll
 0000:fffb7000       .debug$S                   0000000180000000     ole32:ole32.dll
 0000:fffb7000       .debug$S                   0000000180000000     ole32:ole32.dll
 0000:fffb7000       .debug$S                   0000000180000000     ole32:ole32.dll
 0000:fffb7000       .debug$S                   0000000180000000     ole32:ole32.dll
 0000:fffb7000       .debug$S                   0000000180000000     ole32:ole32.dll
 0000:fffb7000       .debug$S                   0000000180000000     ole32:ole32.dll
 0000:fffb7000       .debug$S                   0000000180000000     ole32:ole32.dll
 0000:fffb7000       .debug$S                   0000000180000000     ole32:ole32.dll
 0000:fffb7000       .debug$S                   0000000180000000     ole32:ole32.dll
 0000:fffb7000       .debug$S                   0000000180000000     ole32:ole32.dll
 0000:fffb7000       .debug$S                   0000000180000000     ole32:ole32.dll
 0000:fffb7000       .debug$S                   0000000180000000     oleaut32:OLEAUT32.dll
 0000:fffb7000       .debug$S                   0000000180000000     oleaut32:OLEAUT32.dll
 0000:fffb7000       .debug$S                   0000000180000000     oleaut32:OLEAUT32.dll
 0000:fffb7000       .debug$S                   0000000180000000     oleaut32:OLEAUT32.dll
 0000:fffb7000       .debug$S                   0000000180000000     oleaut32:OLEAUT32.dll
 0000:fffb7000       .debug$S                   0000000180000000     oleaut32:OLEAUT32.dll
 0000:fffb7000       .debug$S                   0000000180000000     oleaut32:OLEAUT32.dll
 0000:fffb7000       .debug$S                   0000000180000000     oleaut32:OLEAUT32.dll
 0000:fffb7000       .debug$S                   0000000180000000     oleaut32:OLEAUT32.dll
 0000:fffb7000       .debug$S                   0000000180000000     oleaut32:OLEAUT32.dll
 0000:fffb7000       .debug$S                   0000000180000000     oleaut32:OLEAUT32.dll
 0000:fffb7000       .debug$S                   0000000180000000     oleaut32:OLEAUT32.dll
 0000:fffb7000       .debug$S                   0000000180000000     oleaut32:OLEAUT32.dll
 0000:fffb7000       .debug$S                   0000000180000000     oleaut32:OLEAUT32.dll
 0000:fffb7000       .debug$S                   0000000180000000     oleaut32:OLEAUT32.dll
 0000:fffb7000       .debug$S                   0000000180000000     oleaut32:OLEAUT32.dll
 0000:fffb7000       .debug$S                   0000000180000000     user32:USER32.dll
 0000:fffb7000       .debug$S                   0000000180000000     user32:USER32.dll
 0000:fffb7000       .debug$S                   0000000180000000     user32:USER32.dll
 0000:fffb7000       .debug$S                   0000000180000000     user32:USER32.dll
 0000:fffb7000       .debug$S                   0000000180000000     user32:USER32.dll
 0000:fffb7000       .debug$S                   0000000180000000     user32:USER32.dll
 0000:fffb7000       .debug$S                   0000000180000000     user32:USER32.dll
 0000:fffb7000       .debug$S                   0000000180000000     user32:USER32.dll
 0000:fffb7000       .debug$S                   0000000180000000     user32:USER32.dll
 0000:fffb7000       .debug$S                   0000000180000000     user32:USER32.dll
 0000:fffb7000       .debug$S                   0000000180000000     user32:USER32.dll
 0000:fffb7000       .debug$S                   0000000180000000     user32:USER32.dll
 0000:fffb7000       .debug$S                   0000000180000000     user32:USER32.dll
 0000:fffb7000       .debug$S                   0000000180000000     user32:USER32.dll
 0000:fffb7000       .debug$S                   0000000180000000     user32:USER32.dll
 0000:fffb7000       .debug$S                   0000000180000000     user32:USER32.dll
 0000:fffb7000       .debug$S                   0000000180000000     user32:USER32.dll
 0000:fffb7000       .debug$S                   0000000180000000     user32:USER32.dll
 0000:fffb7000       .debug$S                   0000000180000000     user32:USER32.dll
 0000:fffb7000       .debug$S                   0000000180000000     user32:USER32.dll
 0000:fffb7000       .debug$S                   0000000180000000     user32:USER32.dll
 0000:fffb7000       .debug$S                   0000000180000000     user32:USER32.dll
 0000:fffb7000       .debug$S                   0000000180000000     user32:USER32.dll
 0000:fffb7000       .debug$S                   0000000180000000     user32:USER32.dll
 0000:fffb7000       .debug$S                   0000000180000000     user32:USER32.dll
 0000:fffb7000       .debug$S                   0000000180000000     user32:USER32.dll
 0000:fffb7000       .debug$S                   0000000180000000     user32:USER32.dll
 0000:fffb7000       .debug$S                   0000000180000000     user32:USER32.dll
 0000:fffb7000       .debug$S                   0000000180000000     user32:USER32.dll
 0000:fffb7000       .debug$S                   0000000180000000     user32:USER32.dll
 0000:fffb7000       .debug$S                   0000000180000000     user32:USER32.dll
 0000:fffb7000       .debug$S                   0000000180000000     user32:USER32.dll
 0000:fffb7000       .debug$S                   0000000180000000     user32:USER32.dll
 0000:fffb7000       .debug$S                   0000000180000000     user32:USER32.dll
 0000:fffb7000       .debug$S                   0000000180000000     user32:USER32.dll
 0001:00000000       ??__E_AtlComModule@ATL@@YAXXZ 0000000180001000 f   OposVariant.obj
 0001:00000020       ??__E_AtlWinModule@ATL@@YAXXZ 0000000180001020 f   OposVariant.obj
 0001:00000040       ??__E?pConnMap@?$IConnectionPointContainerImpl@VCOPOSFiscalPrinter@@@ATL@@0PEBU_ATL_CONNMAP_ENTRY@2@EB@@YAXXZ 0000000180001040 f   FiscalPrinter.obj
 0001:00000058       ??__E_Module@@YAXXZ        0000000180001058 f   FiscalPrinter.obj
 0001:00000094       ??__E_AtlBaseModule@ATL@@YAXXZ 0000000180001094 f   atls:atlbase.obj
 0001:00011aec       ?__scrt_initialize_thread_safe_statics@@YAHXZ 0000000180012aec f   LIBCMT:thread_safe_statics.obj
 0001:00011bbc       ?__scrt_uninitialize_thread_safe_statics@@YAXXZ 0000000180012bbc f   LIBCMT:thread_safe_statics.obj
 0001:00011f0c       capture_current_context    0000000180012f0c f   LIBCMT:gs_report.obj
 0001:00011f7c       capture_previous_context   0000000180012f7c f   LIBCMT:gs_report.obj
 0001:00012110       $$000000                   0000000180013110     LIBCMT:chkstk.obj
 0001:00012180       $$000000                   0000000180013180     LIBCMT:amdsecgs.obj
 0001:000121b4       ?dllmain_crt_dispatch@@YAHQEAUHINSTANCE__@@KQEAX@Z 00000001800131b4 f   LIBCMT:dll_dllmain.obj
 0001:00012204       ?dllmain_crt_process_attach@@YAHQEAUHINSTANCE__@@QEAX@Z 0000000180013204 f   LIBCMT:dll_dllmain.obj
 0001:0001231c       ?dllmain_crt_process_detach@@YAH_N@Z 000000018001331c f   LIBCMT:dll_dllmain.obj
 0001:000123a0       ?dllmain_dispatch@@YAHQEAUHINSTANCE__@@KQEAX@Z 00000001800133a0 f   LIBCMT:dll_dllmain.obj
 0001:00012c68       ??$GetProcAddressAll@P6AP6A_JPEAUHWND__@@I_K_J@ZPEAUAtlThunkData_t@@@Z@@YAP6AP6A_JPEAUHWND__@@I_K_J@ZPEAUAtlThunkData_t@@@ZPEAP6AP6A_J0I12@Z3@Z@Z 0000000180013c68 f   atls:atlthunk.obj
 0001:00012c68       ??$GetProcAddressAll@P6APEAUAtlThunkData_t@@XZ@@YAP6APEAUAtlThunkData_t@@XZPEAP6APEAU0@XZ@Z 0000000180013c68 f   atls:atlthunk.obj
 0001:00012c68       ??$GetProcAddressAll@P6AXPEAUAtlThunkData_t@@@Z@@YAP6AXPEAUAtlThunkData_t@@@ZPEAP6AX0@Z@Z 0000000180013c68 f   atls:atlthunk.obj
 0001:00012c68       ??$GetProcAddressAll@P6AXPEAUAtlThunkData_t@@PEAX_K@Z@@YAP6AXPEAUAtlThunkData_t@@PEAX_K@ZPEAP6AX012@Z@Z 0000000180013c68 f   atls:atlthunk.obj
 0001:00012e40       ?__InitializeThunkPool@@YAHXZ 0000000180013e40 f   atls:atlthunk.obj
 0001:000132e0       $$000000                   00000001800142e0     libvcruntime:memcmp.obj
 0001:000133c0       $$000000                   00000001800143c0     libvcruntime:memcpy.obj
 0001:000137d0       $$000000                   00000001800147d0     libvcruntime:memset.obj
 0001:000148e0       $$000000                   00000001800158e0     libvcruntime:notify.obj
 0001:00014a4c       ??$BuildCatchObjectHelperInternal@V__FrameHandler4@@@@YAHPEAUEHExceptionRecord@@PEAXPEAUHandlerType4@FH4@@PEBU_s_CatchableType@@@Z 0000000180015a4c f   libvcruntime:frame.obj
 0001:00014c50       ??$BuildCatchObjectInternal@V__FrameHandler4@@@@YAXPEAUEHExceptionRecord@@PEAXPEAUHandlerType4@FH4@@PEBU_s_CatchableType@@@Z 0000000180015c50 f   libvcruntime:frame.obj
 0001:00014d14       ??$CatchIt@V__FrameHandler4@@@@YAXPEAUEHExceptionRecord@@PEA_KPEAU_CONTEXT@@PEAU_xDISPATCHER_CONTEXT@@PEAUFuncInfo4@FH4@@PEAUHandlerType4@4@PEBU_s_CatchableType@@PEAUTryBlockMapEntry4@4@H1EE@Z 0000000180015d14 f   libvcruntime:frame.obj
 0001:00014de8       ??$FindHandler@V__FrameHandler4@@@@YAXPEAUEHExceptionRecord@@PEA_KPEAU_CONTEXT@@PEAU_xDISPATCHER_CONTEXT@@PEAUFuncInfo4@FH4@@EH1@Z 0000000180015de8 f   libvcruntime:frame.obj
 0001:000152f8       ??$FindHandlerForForeignException@V__FrameHandler4@@@@YAXPEAUEHExceptionRecord@@PEA_KPEAU_CONTEXT@@PEAU_xDISPATCHER_CONTEXT@@PEAUFuncInfo4@FH4@@HH1@Z 00000001800162f8 f   libvcruntime:frame.obj
 0001:00016088       ?ExFilterRethrow@@YAHPEAU_EXCEPTION_POINTERS@@PEAUEHExceptionRecord@@PEAH@Z 0000000180017088 f   libvcruntime:frame.obj
 0001:00016110       ?ExFilterRethrowFH4@@YAHPEAU_EXCEPTION_POINTERS@@PEAUEHExceptionRecord@@HPEAH@Z 0000000180017110 f   libvcruntime:frame.obj
 0001:00016428       ?IsInExceptionSpec@@YAEPEAUEHExceptionRecord@@PEBU_s_ESTypeList@@@Z 0000000180017428 f   libvcruntime:frame.obj
 0001:00016518       ?Is_bad_exception_allowed@@YAEPEBU_s_ESTypeList@@@Z 0000000180017518 f   libvcruntime:frame.obj
 0001:000167f4       ?try_get_function@@YAPEAXW4function_id@?A0x84e3c32f@@QEBDQEBW4module_id@2@2@Z 00000001800177f4 f   libvcruntime:winapi_downlevel.obj
 0001:00016ad0       $$000000                   0000000180017ad0     libvcruntime:handlers.obj
 0001:000172e8       ??$common_vsprintf@Vformat_validation_base@__crt_stdio_output@@_W@@YAH_KQEA_W0QEB_WQEAU__crt_locale_pointers@@QEAD@Z 00000001800182e8 f   libucrt:output.obj
 0001:00018188       $LN17                      0000000180019188     libucrt:output.obj
 0001:00018b2c       ??$?RV<lambda_d80eeec6fff315bfe5c115232f3240e3>@@AEAV<lambda_6e4b09c48022b2350581041d5f6b0c4c>@@V<lambda_2358e3775559c9db80273638284d5e45>@@@?$__crt_seh_guarded_call@X@@QEAAX$$QEAV<lambda_d80eeec6fff315bfe5c115232f3240e3>@@AEAV<lambda_6e4b09c48022b2350581041d5f6b0c4c>@@$$QEAV<lambda_2358e3775559c9db80273638284d5e45>@@@Z 0000000180019b2c f   libucrt:exit.obj
 0001:00018b64       ??R<lambda_6e4b09c48022b2350581041d5f6b0c4c>@@QEBA@XZ 0000000180019b64 f   libucrt:exit.obj
 0001:00018c28       ?atexit_exception_filter@@YAHK@Z 0000000180019c28 f   libucrt:exit.obj
 0001:00018c34       ?common_exit@@YAXHW4_crt_exit_cleanup_mode@@W4_crt_exit_return_mode@@@Z 0000000180019c34 f   libucrt:exit.obj
 0001:00018cf0       ?exit_or_terminate_process@@YAXI@Z 0000000180019cf0 f   libucrt:exit.obj
 0001:00018d3c       ?try_cor_exit_process@@YAXI@Z 0000000180019d3c f   libucrt:exit.obj
 0001:00018dc4       ??$parse_command_line@D@@YAXPEADPEAPEAD0PEA_K2@Z 0000000180019dc4 f   libucrt:argv_parsing.obj
 0001:0001916c       ??$common_initialize_environment_nolock@D@@YAHXZ 000000018001a16c f   libucrt:environment_initialization.obj
 0001:000191d8       ??$create_environment@D@@YAQEAPEADQEAD@Z 000000018001a1d8 f   libucrt:environment_initialization.obj
 0001:000192e0       ??$free_environment@D@@YAXQEAPEAD@Z 000000018001a2e0 f   libucrt:environment_initialization.obj
 0001:000192e0       ??$free_environment@_W@@YAXQEAPEA_W@Z 000000018001a2e0 f   libucrt:environment_initialization.obj
 0001:00019324       ??$uninitialize_environment_internal@D@@YAXAEAPEAPEAD@Z 000000018001a324 f   libucrt:environment_initialization.obj
 0001:00019340       ??$uninitialize_environment_internal@_W@@YAXAEAPEAPEA_W@Z 000000018001a340 f   libucrt:environment_initialization.obj
 0001:0001939c       ??$?RV<lambda_638799b9deba96c50f710eeac98168cd>@@AEAV<lambda_22ebabd17bc4fa466a2aca6d8deb888d>@@V<lambda_a6f7d7db0129f75315ebf26d50c089f1>@@@?$__crt_seh_guarded_call@H@@QEAAH$$QEAV<lambda_638799b9deba96c50f710eeac98168cd>@@AEAV<lambda_22ebabd17bc4fa466a2aca6d8deb888d>@@$$QEAV<lambda_a6f7d7db0129f75315ebf26d50c089f1>@@@Z 000000018001a39c f   libucrt:onexit.obj
 0001:000193d8       ??$?RV<lambda_7777bce6b2f8c936911f934f8298dc43>@@AEAV<lambda_f03950bc5685219e0bcd2087efbe011e>@@V<lambda_3883c3dff614d5e0c5f61bb1ac94921c>@@@?$__crt_seh_guarded_call@H@@QEAAH$$QEAV<lambda_7777bce6b2f8c936911f934f8298dc43>@@AEAV<lambda_f03950bc5685219e0bcd2087efbe011e>@@$$QEAV<lambda_3883c3dff614d5e0c5f61bb1ac94921c>@@@Z 000000018001a3d8 f   libucrt:onexit.obj
 0001:00019414       ??R<lambda_22ebabd17bc4fa466a2aca6d8deb888d>@@QEBAHXZ 000000018001a414 f   libucrt:onexit.obj
 0001:000195c4       ??R<lambda_f03950bc5685219e0bcd2087efbe011e>@@QEBAHXZ 000000018001a5c4 f   libucrt:onexit.obj
 0001:00019798       initialize_global_variables 000000018001a798 f   libucrt:initialization.obj
 0001:000197ac       initialize_c               000000018001a7ac f   libucrt:initialization.obj
 0001:000197d0       initialize_environment     000000018001a7d0 f   libucrt:initialization.obj
 0001:000197d0       initialize_global_state_isolation 000000018001a7d0 f   libucrt:initialization.obj
 0001:000197d0       report_memory_leaks        000000018001a7d0 f   libucrt:initialization.obj
 0001:000197d0       uninitialize_c             000000018001a7d0 f   libucrt:initialization.obj
 0001:000197d0       uninitialize_global_state_isolation 000000018001a7d0 f   libucrt:initialization.obj
 0001:000197d4       uninitialize_environment   000000018001a7d4 f   libucrt:initialization.obj
 0001:000197e4       initialize_pointers        000000018001a7e4 f   libucrt:initialization.obj
 0001:00019824       uninitialize_vcruntime     000000018001a824 f   libucrt:initialization.obj
 0001:0001982c       uninitialize_allocated_memory 000000018001a82c f   libucrt:initialization.obj
 0001:0001986c       uninitialize_allocated_io_buffers 000000018001a86c f   libucrt:initialization.obj
 0001:0001a1e0       $$000000                   000000018001b1e0     libucrt:strncmp.obj
 0001:0001a2dc       ??$?RV<lambda_0ae27a3a962d80f24befdcbee591983d>@@AEAV<lambda_8d0ee55de4b1038c4002e0adecdf1839>@@V<lambda_dc504788e8f1664fe9b84e20bfb512f2>@@@?$__crt_seh_guarded_call@X@@QEAAX$$QEAV<lambda_0ae27a3a962d80f24befdcbee591983d>@@AEAV<lambda_8d0ee55de4b1038c4002e0adecdf1839>@@$$QEAV<lambda_dc504788e8f1664fe9b84e20bfb512f2>@@@Z 000000018001b2dc f   libucrt:per_thread_data.obj
 0001:0001a31c       ??$?RV<lambda_2d41944a1d46af3157314b8a01080d33>@@AEAV<lambda_8f455de75cd7d7f24b4096f044d8b9e6>@@V<lambda_aa500f224e6afead328df44964fe2772>@@@?$__crt_seh_guarded_call@X@@QEAAX$$QEAV<lambda_2d41944a1d46af3157314b8a01080d33>@@AEAV<lambda_8f455de75cd7d7f24b4096f044d8b9e6>@@$$QEAV<lambda_aa500f224e6afead328df44964fe2772>@@@Z 000000018001b31c f   libucrt:per_thread_data.obj
 0001:0001a35c       ??$?RV<lambda_aa87e3671a710a21b5dc78c0bdf72e11>@@AEAV<lambda_92619d2358a28f41a33ba319515a20b9>@@V<lambda_6992ecaafeb10aed2b74cb1fae11a551>@@@?$__crt_seh_guarded_call@X@@QEAAX$$QEAV<lambda_aa87e3671a710a21b5dc78c0bdf72e11>@@AEAV<lambda_92619d2358a28f41a33ba319515a20b9>@@$$QEAV<lambda_6992ecaafeb10aed2b74cb1fae11a551>@@@Z 000000018001b35c f   libucrt:per_thread_data.obj
 0001:0001a3a4       ??$?RV<lambda_f2e299630e499de9f9a165e60fcd3db5>@@AEAV<lambda_2ae9d31cdba2644fcbeaf08da7c24588>@@V<lambda_40d01ff24d0e7b3814fdbdcee8eab3c7>@@@?$__crt_seh_guarded_call@X@@QEAAX$$QEAV<lambda_f2e299630e499de9f9a165e60fcd3db5>@@AEAV<lambda_2ae9d31cdba2644fcbeaf08da7c24588>@@$$QEAV<lambda_40d01ff24d0e7b3814fdbdcee8eab3c7>@@@Z 000000018001b3a4 f   libucrt:per_thread_data.obj
 0001:0001a404       ?construct_ptd_array@@YAXQEAU__acrt_ptd@@@Z 000000018001b404 f   libucrt:per_thread_data.obj
 0001:0001a4d4       ?destroy_fls@@YAXPEAX@Z    000000018001b4d4 f   libucrt:per_thread_data.obj
 0001:0001a4f4       ?destroy_ptd_array@@YAXQEAU__acrt_ptd@@@Z 000000018001b4f4 f   libucrt:per_thread_data.obj
 0001:0001a5ec       ?replace_current_thread_locale_nolock@@YAXQEAU__acrt_ptd@@QEAU__crt_locale_data@@@Z 000000018001b5ec f   libucrt:per_thread_data.obj
 0001:0001aad0       ?try_get_function@@YAPEAXW4function_id@?A0x391cf84c@@QEBDQEBW4module_id@2@2@Z 000000018001bad0 f   libucrt:winapi_thunks.obj
 0001:0001b4a0       ?fp_format_a@@YAHQEBNPEAD_KQEAD2H_NIQEAU__crt_locale_pointers@@W4__acrt_rounding_mode@@@Z 000000018001c4a0 f   libucrt:cvt.obj
 0001:0001b820       ?fp_format_e@@YAHQEBNQEAD_K12H_NIQEAU__crt_locale_pointers@@W4__acrt_rounding_mode@@@Z 000000018001c820 f   libucrt:cvt.obj
 0001:0001b910       ?fp_format_e_internal@@YAHQEAD_KH_NIQEAU_strflt@@2QEAU__crt_locale_pointers@@@Z 000000018001c910 f   libucrt:cvt.obj
 0001:0001bae4       ?fp_format_f_internal@@YAHQEAD_KHQEAU_strflt@@_NQEAU__crt_locale_pointers@@@Z 000000018001cae4 f   libucrt:cvt.obj
 0001:0001bc4c       ?fp_format_g@@YAHQEBNQEAD_K12H_NIQEAU__crt_locale_pointers@@@Z 000000018001cc4c f   libucrt:cvt.obj
 0001:0001bd8c       ?should_round_up@@YA_NQEBN_KFW4__acrt_rounding_mode@@@Z 000000018001cd8c f   libucrt:cvt.obj
 0001:0001c3b0       ??$?RV<lambda_410d79af7f07d98d83a3f525b3859a53>@@AEAV<lambda_3e16ef9562a7dcce91392c22ab16ea36>@@V<lambda_38119f0e861e05405d8a144b9b982f0a>@@@?$__crt_seh_guarded_call@X@@QEAAX$$QEAV<lambda_410d79af7f07d98d83a3f525b3859a53>@@AEAV<lambda_3e16ef9562a7dcce91392c22ab16ea36>@@$$QEAV<lambda_38119f0e861e05405d8a144b9b982f0a>@@@Z 000000018001d3b0 f   libucrt:wsetlocale.obj
 0001:0001c45c       ?initialize_inherited_file_handles_nolock@@YAXXZ 000000018001d45c f   libucrt:ioinit.obj
 0001:0001c54c       ?initialize_stdio_handles_nolock@@YAXXZ 000000018001d54c f   libucrt:ioinit.obj
 0001:0001c7c8       ?<lambda_invoker_cdecl>@<lambda_a1ce4c8ae42411fd470c77163914f50e>@@CAHPEBX0@Z 000000018001d7c8 f   libucrt:argv_wildcards.obj
 0001:0001cae0       ??$common_expand_argv_wildcards@D@@YAHQEAPEADQEAPEAPEAD@Z 000000018001dae0 f   libucrt:argv_wildcards.obj
 0001:0001ccec       ??$copy_and_add_argument_to_buffer@D@@YAHQEBD0_KAEAV?$argument_list@D@?A0x5f5c8891@@@Z 000000018001dcec f   libucrt:argv_wildcards.obj
 0001:0001ce74       ??$expand_argument_wildcards@D@@YAHQEAD0AEAV?$argument_list@D@?A0x5f5c8891@@@Z 000000018001de74 f   libucrt:argv_wildcards.obj
 0001:0001d3c0       ??$?RV<lambda_efdfa57d1f175319df784efa44bb7b81>@@AEAV<lambda_5f0a4c1567f8adc6734073e5d1e1b35c>@@V<lambda_2e8a7d3640ea6ccb4c2413664c2db6fd>@@@?$__crt_seh_guarded_call@X@@QEAAX$$QEAV<lambda_efdfa57d1f175319df784efa44bb7b81>@@AEAV<lambda_5f0a4c1567f8adc6734073e5d1e1b35c>@@$$QEAV<lambda_2e8a7d3640ea6ccb4c2413664c2db6fd>@@@Z 000000018001e3c0 f   libucrt:mbctype.obj
 0001:0001d57c       ?getSystemCP@@YAHH@Z       000000018001e57c f   libucrt:mbctype.obj
 0001:0001d5fc       ?setSBCS@@YAXPEAU__crt_multibyte_data@@@Z 000000018001e5fc f   libucrt:mbctype.obj
 0001:0001d68c       ?setSBUpLow@@YAXPEAU__crt_multibyte_data@@@Z 000000018001e68c f   libucrt:mbctype.obj
 0001:0001d870       ?setmbcp_internal@@YAHH_NQEAU__acrt_ptd@@QEAPEAU__crt_multibyte_data@@@Z 000000018001e870 f   libucrt:mbctype.obj
 0001:0001da30       ?update_thread_multibyte_data_internal@@YAPEAU__crt_multibyte_data@@QEAU__acrt_ptd@@QEAPEAU1@@Z 000000018001ea30 f   libucrt:mbctype.obj
 0001:0001de20       ?x_ismbbtype_l@@YAHPEAU__crt_locale_pointers@@IHH@Z 000000018001ee20 f   libucrt:ismbbyte.obj
 0001:0001e1c8       ??$?RV<lambda_450d765d439847d4c735a33c368b5fc0>@@AEAV<lambda_44731a7d0e6d81c3e6aa82d741081786>@@V<lambda_601a2a7da3b7a96e9554ac7215c4b07c>@@@?$__crt_seh_guarded_call@P6AXH@Z@@QEAAP6AXH@Z$$QEAV<lambda_450d765d439847d4c735a33c368b5fc0>@@AEAV<lambda_44731a7d0e6d81c3e6aa82d741081786>@@$$QEAV<lambda_601a2a7da3b7a96e9554ac7215c4b07c>@@@Z 000000018001f1c8 f   libucrt:signal.obj
 0001:0001e524       ??$?RV<lambda_842d9ff0dc9ef11c61343bbaebe7f885>@@AEAV<lambda_c5860995281e5c4ce005b3de8f5874ee>@@V<lambda_d90129c13df834fdcbf8d2b88dafcf2d>@@@?$__crt_seh_guarded_call@X@@QEAAX$$QEAV<lambda_842d9ff0dc9ef11c61343bbaebe7f885>@@AEAV<lambda_c5860995281e5c4ce005b3de8f5874ee>@@$$QEAV<lambda_d90129c13df834fdcbf8d2b88dafcf2d>@@@Z 000000018001f524 f   libucrt:fflush.obj
 0001:0001e5c0       ??$?RV<lambda_886d6c58226a84441f68b9f2b8217b83>@@AEAV<lambda_ab61a845afdef5b7c387490eaf3616ee>@@V<lambda_f7f22ab5edc0698d5f6905b0d3f44752>@@@?$__crt_seh_guarded_call@X@@QEAAX$$QEAV<lambda_886d6c58226a84441f68b9f2b8217b83>@@AEAV<lambda_ab61a845afdef5b7c387490eaf3616ee>@@$$QEAV<lambda_f7f22ab5edc0698d5f6905b0d3f44752>@@@Z 000000018001f5c0 f   libucrt:fflush.obj
 0001:0001e6a0       ?common_flush_all@@YAH_N@Z 000000018001f6a0 f   libucrt:fflush.obj
 0001:000206f0       memcpy_s                   00000001800216f0 f   libucrt:cfout.obj
 0001:00020a58       ?free_crt_array_internal@@YAXQEAPEBX_K@Z 0000000180021a58 f   libucrt:inittime.obj
 0001:000214e4       fallbackMethod             00000001800224e4 f   libucrt:strpbrk.obj
 0001:0002189c       $LN78                      000000018002289c     libucrt:strpbrk.obj
 0001:000218d8       $LN77                      00000001800228d8     libucrt:strpbrk.obj
 0001:00021918       $LN76                      0000000180022918     libucrt:strpbrk.obj
 0001:000219f4       ?__acrt_LCMapStringA_stat@@YAHPEAU__crt_locale_pointers@@PEB_WKPEBDHPEADHHH@Z 00000001800229f4 f   libucrt:lcmapstringa.obj
 0001:00021da4       ?initialize_multibyte@@YAHXZ 0000000180022da4 f   libucrt:multibyte_initializer.obj
 0001:00021dbc       ??$?RV<lambda_a37b2b86f63e897a80ea819b0eb08c01>@@AEAV<lambda_38ce7e780aa69e748d6df282ebc68efe>@@V<lambda_99fb1378e971ab6e7edea83e3a7a83a2>@@@?$__crt_seh_guarded_call@H@@QEAAH$$QEAV<lambda_a37b2b86f63e897a80ea819b0eb08c01>@@AEAV<lambda_38ce7e780aa69e748d6df282ebc68efe>@@$$QEAV<lambda_99fb1378e971ab6e7edea83e3a7a83a2>@@@Z 0000000180022dbc f   libucrt:commit.obj
 0001:00021edc       ?write_double_translated_ansi_nolock@@YA?AUwrite_result@?A0x17268360@@HQEBDI@Z 0000000180022edc f   libucrt:write.obj
 0001:000223c8       ?write_text_ansi_nolock@@YA?AUwrite_result@?A0x17268360@@HQEBDI@Z 00000001800233c8 f   libucrt:write.obj
 0001:000224cc       ?write_text_utf16le_nolock@@YA?AUwrite_result@?A0x17268360@@HQEBDI@Z 00000001800234cc f   libucrt:write.obj
 0001:000225e8       ?write_text_utf8_nolock@@YA?AUwrite_result@?A0x17268360@@HQEBDI@Z 00000001800235e8 f   libucrt:write.obj
 0001:00022f40       $$000000                   0000000180023f40     libucrt:log10.obj
 0001:0002380c       ??$common_lseek_nolock@_J@@YA_JH_JH@Z 000000018002480c f   libucrt:lseek.obj
 0001:00023a6c       common_control87           0000000180024a6c f   libucrt:ieee.obj
 0001:00023d2c       _call_matherr              0000000180024d2c f   libucrt:libm_error.obj
 0001:00023d94       _exception_enabled         0000000180024d94 f   libucrt:libm_error.obj
 0001:00024030       _log_special_common        0000000180025030 f   libucrt:log_special.obj
 0001:000240c8       ??$?RV<lambda_751a882b2c74d4b022dec766aa51a29a>@@AEAV<lambda_628dfdc04ba53c8bfc02c9951375f3f5>@@V<lambda_f6c7be5f7998530c34de24c7437d6b54>@@@?$__crt_seh_guarded_call@H@@QEAAH$$QEAV<lambda_751a882b2c74d4b022dec766aa51a29a>@@AEAV<lambda_628dfdc04ba53c8bfc02c9951375f3f5>@@$$QEAV<lambda_f6c7be5f7998530c34de24c7437d6b54>@@@Z 00000001800250c8 f   libucrt:close.obj
 0001:000243f0       $$000000                   00000001800253f0     libucrt:fpsr.obj
 0001:00024a90       $$000000                   0000000180025a90     LIBCMT:guard_dispatch.obj
 0001:00024ab0       $$000000                   0000000180025ab0     LIBCMT:guard_xfg_dispatch.obj
 0001:00024ad0       ?filt$0@?0??_AtlVerifyStackAvailable@_ATL_SAFE_ALLOCA_IMPL@ATL@@YA_N_K@Z@4HA 0000000180025ad0 f   FiscalPrinter.obj
 0001:00024af1       __scrt_is_nonwritable_in_current_image$filt$0 0000000180025af1 f   LIBCMT:utility.obj
 0001:00024b09       ?catch$0@?0???2@YAPEAX_KAEBUnothrow_t@std@@@Z@4HA 0000000180025b09 f   LIBCMT:new_scalar_nothrow.obj
 0001:00024b16       __catch$??2@YAPEAX_KAEBUnothrow_t@std@@@Z$0 0000000180025b16 f   LIBCMT:new_scalar_nothrow.obj
 0001:00024b27       ?fin$0@?0??dllmain_crt_process_attach@@YAHQEAUHINSTANCE__@@QEAX@Z@4HA 0000000180025b27 f   LIBCMT:dll_dllmain.obj
 0001:00024b3e       ?fin$0@?0??dllmain_crt_process_detach@@YAH_N@Z@4HA 0000000180025b3e f   LIBCMT:dll_dllmain.obj
 0001:00024b57       ?fin$1@?0??dllmain_crt_process_detach@@YAH_N@Z@4HA 0000000180025b57 f   LIBCMT:dll_dllmain.obj
 0001:00024b6b       ?filt$0@?0??dllmain_dispatch@@YAHQEAUHINSTANCE__@@KQEAX@Z@4HA 0000000180025b6b f   LIBCMT:dll_dllmain.obj
 0001:00024ba1       ?filt$0@?0???$_CallSETranslator@V__FrameHandler4@@@@YAHPEAUEHExceptionRecord@@PEA_KPEAU_CONTEXT@@PEAU_xDISPATCHER_CONTEXT@@PEAUFuncInfo4@FH4@@K1H@Z@4HA 0000000180025ba1 f   libvcruntime:risctrnsctrl.obj
 0001:00024c40       __DestructExceptionObject$filt$0 0000000180025c40 f   libvcruntime:ehhelpers.obj
 0001:00024cd6       ?filt$0@?0??CxxCallCatchBlock@__FrameHandler4@@SAPEAXPEAU_EXCEPTION_RECORD@@@Z@4HA 0000000180025cd6 f   libvcruntime:frame.obj
 0001:00024d05       ?fin$1@?0??CxxCallCatchBlock@__FrameHandler4@@SAPEAXPEAU_EXCEPTION_RECORD@@@Z@4HA 0000000180025d05 f   libvcruntime:frame.obj
 0001:00024d88       ?filt$0@?0??FrameUnwindToState@__FrameHandler4@@SAXPEA_KPEAU_xDISPATCHER_CONTEXT@@PEAUFuncInfo4@FH4@@H@Z@4HA 0000000180025d88 f   libvcruntime:frame.obj
 0001:00024d9e       ?fin$1@?0??FrameUnwindToState@__FrameHandler4@@SAXPEA_KPEAU_xDISPATCHER_CONTEXT@@PEAUFuncInfo4@FH4@@H@Z@4HA 0000000180025d9e f   libvcruntime:frame.obj
 0001:00024dc1       ?fin$0@?0???$?RV<lambda_0ae27a3a962d80f24befdcbee591983d>@@AEAV<lambda_8d0ee55de4b1038c4002e0adecdf1839>@@V<lambda_dc504788e8f1664fe9b84e20bfb512f2>@@@?$__crt_seh_guarded_call@X@@QEAAX$$QEAV<lambda_0ae27a3a962d80f24befdcbee591983d>@@AEAV<lambda_8d0ee55de4b1038c4002e0adecdf1839>@@$$QEAV<lambda_dc504788e8f1664fe9b84e20bfb512f2>@@@Z@4HA 0000000180025dc1 f   libucrt:per_thread_data.obj
 0001:00024dc1       ?fin$0@?0???$?RV<lambda_2d41944a1d46af3157314b8a01080d33>@@AEAV<lambda_8f455de75cd7d7f24b4096f044d8b9e6>@@V<lambda_aa500f224e6afead328df44964fe2772>@@@?$__crt_seh_guarded_call@X@@QEAAX$$QEAV<lambda_2d41944a1d46af3157314b8a01080d33>@@AEAV<lambda_8f455de75cd7d7f24b4096f044d8b9e6>@@$$QEAV<lambda_aa500f224e6afead328df44964fe2772>@@@Z@4HA 0000000180025dc1 f   libucrt:per_thread_data.obj
 0001:00024dc1       ?fin$0@?0???$?RV<lambda_aa87e3671a710a21b5dc78c0bdf72e11>@@AEAV<lambda_92619d2358a28f41a33ba319515a20b9>@@V<lambda_6992ecaafeb10aed2b74cb1fae11a551>@@@?$__crt_seh_guarded_call@X@@QEAAX$$QEAV<lambda_aa87e3671a710a21b5dc78c0bdf72e11>@@AEAV<lambda_92619d2358a28f41a33ba319515a20b9>@@$$QEAV<lambda_6992ecaafeb10aed2b74cb1fae11a551>@@@Z@4HA 0000000180025dc1 f   libucrt:per_thread_data.obj
 0001:00024dc1       ?fin$0@?0???$?RV<lambda_f2e299630e499de9f9a165e60fcd3db5>@@AEAV<lambda_2ae9d31cdba2644fcbeaf08da7c24588>@@V<lambda_40d01ff24d0e7b3814fdbdcee8eab3c7>@@@?$__crt_seh_guarded_call@X@@QEAAX$$QEAV<lambda_f2e299630e499de9f9a165e60fcd3db5>@@AEAV<lambda_2ae9d31cdba2644fcbeaf08da7c24588>@@$$QEAV<lambda_40d01ff24d0e7b3814fdbdcee8eab3c7>@@@Z@4HA 0000000180025dc1 f   libucrt:per_thread_data.obj
 0001:00024dc1       ?fin$0@?0???$?RV<lambda_efdfa57d1f175319df784efa44bb7b81>@@AEAV<lambda_5f0a4c1567f8adc6734073e5d1e1b35c>@@V<lambda_2e8a7d3640ea6ccb4c2413664c2db6fd>@@@?$__crt_seh_guarded_call@X@@QEAAX$$QEAV<lambda_efdfa57d1f175319df784efa44bb7b81>@@AEAV<lambda_5f0a4c1567f8adc6734073e5d1e1b35c>@@$$QEAV<lambda_2e8a7d3640ea6ccb4c2413664c2db6fd>@@@Z@4HA 0000000180025dc1 f   libucrt:mbctype.obj
 0001:00024dc1       ?fin$0@?0???$?RV<lambda_450d765d439847d4c735a33c368b5fc0>@@AEAV<lambda_44731a7d0e6d81c3e6aa82d741081786>@@V<lambda_601a2a7da3b7a96e9554ac7215c4b07c>@@@?$__crt_seh_guarded_call@P6AXH@Z@@QEAAP6AXH@Z$$QEAV<lambda_450d765d439847d4c735a33c368b5fc0>@@AEAV<lambda_44731a7d0e6d81c3e6aa82d741081786>@@$$QEAV<lambda_601a2a7da3b7a96e9554ac7215c4b07c>@@@Z@4HA 0000000180025dc1 f   libucrt:signal.obj
 0001:00024dc1       ?fin$0@?0???$?RV<lambda_d80eeec6fff315bfe5c115232f3240e3>@@AEAV<lambda_6e4b09c48022b2350581041d5f6b0c4c>@@V<lambda_2358e3775559c9db80273638284d5e45>@@@?$__crt_seh_guarded_call@X@@QEAAX$$QEAV<lambda_d80eeec6fff315bfe5c115232f3240e3>@@AEAV<lambda_6e4b09c48022b2350581041d5f6b0c4c>@@$$QEAV<lambda_2358e3775559c9db80273638284d5e45>@@@Z@4HA 0000000180025dc1 f   libucrt:exit.obj
 0001:00024dc1       ?fin$0@?0???$?RV<lambda_638799b9deba96c50f710eeac98168cd>@@AEAV<lambda_22ebabd17bc4fa466a2aca6d8deb888d>@@V<lambda_a6f7d7db0129f75315ebf26d50c089f1>@@@?$__crt_seh_guarded_call@H@@QEAAH$$QEAV<lambda_638799b9deba96c50f710eeac98168cd>@@AEAV<lambda_22ebabd17bc4fa466a2aca6d8deb888d>@@$$QEAV<lambda_a6f7d7db0129f75315ebf26d50c089f1>@@@Z@4HA 0000000180025dc1 f   libucrt:onexit.obj
 0001:00024dc1       ?fin$0@?0???$?RV<lambda_7777bce6b2f8c936911f934f8298dc43>@@AEAV<lambda_f03950bc5685219e0bcd2087efbe011e>@@V<lambda_3883c3dff614d5e0c5f61bb1ac94921c>@@@?$__crt_seh_guarded_call@H@@QEAAH$$QEAV<lambda_7777bce6b2f8c936911f934f8298dc43>@@AEAV<lambda_f03950bc5685219e0bcd2087efbe011e>@@$$QEAV<lambda_3883c3dff614d5e0c5f61bb1ac94921c>@@@Z@4HA 0000000180025dc1 f   libucrt:onexit.obj
 0001:00024ddb       ?filt$0@?0???R<lambda_6e4b09c48022b2350581041d5f6b0c4c>@@QEBA@XZ@4HA 0000000180025ddb f   libucrt:exit.obj
 0001:00024df6       _query_new_handler$fin$0   0000000180025df6 f   libucrt:new_handler.obj
 0001:00024e0c       ?fin$0@?0???$?RV<lambda_410d79af7f07d98d83a3f525b3859a53>@@AEAV<lambda_3e16ef9562a7dcce91392c22ab16ea36>@@V<lambda_38119f0e861e05405d8a144b9b982f0a>@@@?$__crt_seh_guarded_call@X@@QEAAX$$QEAV<lambda_410d79af7f07d98d83a3f525b3859a53>@@AEAV<lambda_3e16ef9562a7dcce91392c22ab16ea36>@@$$QEAV<lambda_38119f0e861e05405d8a144b9b982f0a>@@@Z@4HA 0000000180025e0c f   libucrt:wsetlocale.obj
 0001:00024e26       __acrt_initialize_lowio$fin$0 0000000180025e26 f   libucrt:ioinit.obj
 0001:00024e26       __acrt_lowio_ensure_fh_exists$fin$0 0000000180025e26 f   libucrt:osfinfo.obj
 0001:00024e3f       ?fin$0@?0??update_thread_multibyte_data_internal@@YAPEAU__crt_multibyte_data@@QEAU__acrt_ptd@@QEAPEAU1@@Z@4HA 0000000180025e3f f   libucrt:mbctype.obj
 0001:00024e58       raise$fin$0                0000000180025e58 f   libucrt:signal.obj
 0001:00024e79       ?fin$0@?0???$?RV<lambda_842d9ff0dc9ef11c61343bbaebe7f885>@@AEAV<lambda_c5860995281e5c4ce005b3de8f5874ee>@@V<lambda_d90129c13df834fdcbf8d2b88dafcf2d>@@@?$__crt_seh_guarded_call@X@@QEAAX$$QEAV<lambda_842d9ff0dc9ef11c61343bbaebe7f885>@@AEAV<lambda_c5860995281e5c4ce005b3de8f5874ee>@@$$QEAV<lambda_d90129c13df834fdcbf8d2b88dafcf2d>@@@Z@4HA 0000000180025e79 f   libucrt:fflush.obj
 0001:00024e94       ?fin$0@?0???$?RV<lambda_886d6c58226a84441f68b9f2b8217b83>@@AEAV<lambda_ab61a845afdef5b7c387490eaf3616ee>@@V<lambda_f7f22ab5edc0698d5f6905b0d3f44752>@@@?$__crt_seh_guarded_call@X@@QEAAX$$QEAV<lambda_886d6c58226a84441f68b9f2b8217b83>@@AEAV<lambda_ab61a845afdef5b7c387490eaf3616ee>@@$$QEAV<lambda_f7f22ab5edc0698d5f6905b0d3f44752>@@@Z@4HA 0000000180025e94 f   libucrt:fflush.obj
 0001:00024eb1       __acrt_update_thread_locale_data$fin$0 0000000180025eb1 f   libucrt:locale_refcounting.obj
 0001:00024eca       _fcloseall$fin$0           0000000180025eca f   libucrt:closeall.obj
 0001:00024ee3       ?fin$0@?0???$?RV<lambda_751a882b2c74d4b022dec766aa51a29a>@@AEAV<lambda_628dfdc04ba53c8bfc02c9951375f3f5>@@V<lambda_f6c7be5f7998530c34de24c7437d6b54>@@@?$__crt_seh_guarded_call@H@@QEAAH$$QEAV<lambda_751a882b2c74d4b022dec766aa51a29a>@@AEAV<lambda_628dfdc04ba53c8bfc02c9951375f3f5>@@$$QEAV<lambda_f6c7be5f7998530c34de24c7437d6b54>@@@Z@4HA 0000000180025ee3 f   libucrt:close.obj
 0001:00024ee3       ?fin$0@?0???$?RV<lambda_a37b2b86f63e897a80ea819b0eb08c01>@@AEAV<lambda_38ce7e780aa69e748d6df282ebc68efe>@@V<lambda_99fb1378e971ab6e7edea83e3a7a83a2>@@@?$__crt_seh_guarded_call@H@@QEAAH$$QEAV<lambda_a37b2b86f63e897a80ea819b0eb08c01>@@AEAV<lambda_38ce7e780aa69e748d6df282ebc68efe>@@$$QEAV<lambda_99fb1378e971ab6e7edea83e3a7a83a2>@@@Z@4HA 0000000180025ee3 f   libucrt:commit.obj
 0001:00024efd       _write$fin$0               0000000180025efd f   libucrt:write.obj
 0001:00024f14       fclose$fin$0               0000000180025f14 f   libucrt:fclose.obj
 0001:00024f2c       _ctrlfp$filt$0             0000000180025f2c f   libucrt:fpctrl.obj
 0001:00024f2c       common_control87$filt$0    0000000180025f2c f   libucrt:ieee.obj
 0001:00024f60       _IsNonwritableInCurrentImage$filt$0 0000000180025f60 f   LIBCMT:pesect.obj
 0001:00024f80       ??__F_AtlComModule@ATL@@YAXXZ 0000000180025f80 f   OposVariant.obj
 0001:00024f8c       ??__F_AtlWinModule@ATL@@YAXXZ 0000000180025f8c f   OposVariant.obj
 0001:00024fd0       ??__F_Module@@YAXXZ        0000000180025fd0 f   FiscalPrinter.obj
 0001:00024fec       ??__F_AtlBaseModule@ATL@@YAXXZ 0000000180025fec f   atls:atlbase.obj
 0002:00000648       ?_AtlBaseModule$initializer$@ATL@@3P6AXXZEA 0000000180026648     atls:atlbase.obj
 0002:00000650       ?_AtlComModule$initializer$@ATL@@3P6AXXZEA 0000000180026650     OposVariant.obj
 0002:00000658       ?_AtlWinModule$initializer$@ATL@@3P6AXXZEA 0000000180026658     OposVariant.obj
 0002:00000660       ?_Module$initializer$@@3P6AXXZEA 0000000180026660     FiscalPrinter.obj
 0002:00000668       ??pConnMap$initializer$@?$IConnectionPointContainerImpl@VCOPOSFiscalPrinter@@@ATL@@0P6AXXZEA@@3P6AXXZEA 0000000180026668     FiscalPrinter.obj
 0002:00000680       ?__scrt_initialize_tss_var@@3P6AHXZEA 0000000180026680     LIBCMT:thread_safe_statics.obj
 0002:000035b8       GS_ExceptionPointers       00000001800295b8     LIBCMT:gs_report.obj
 0002:000037a0       ?ExceptionTemplate@?1??UnwindNestedFrames@__FrameHandler4@@SAXPEA_KPEAUEHExceptionRecord@@PEAU_CONTEXT@@0PEAXPEAUFuncInfo4@FH4@@HHPEAUHandlerType4@6@PEAU_xDISPATCHER_CONTEXT@@E@Z@4U_EXCEPTION_RECORD@@B 00000001800297a0     libvcruntime:risctrnsctrl.obj
 0002:00003870       ?tokenTable@@3QBUStringLiteral@@B 0000000180029870     libvcruntime:undname.obj
 0002:00003970       ?nameTable@@3QBUStringLiteral@@B 0000000180029970     libvcruntime:undname.obj
 0002:00003ea0       ?rttiTable@@3QBUStringLiteral@@B 0000000180029ea0     libvcruntime:undname.obj
 0002:00003ef0       ?IndirectionName@@3QBUStringLiteral@@B 0000000180029ef0     libvcruntime:undname.obj
 0002:00003f50       ?PrefixName@@3QBUStringLiteral@@B 0000000180029f50     libvcruntime:undname.obj
 0002:00004628       ?module_names@?A0x84e3c32f@@3QBQEB_WB 000000018002a628     libvcruntime:winapi_downlevel.obj
 0002:000046e8       ?candidate_modules@?1??try_get_FlsAlloc@@YAP6AKP6AXPEAX@Z@ZXZ@4QBW4module_id@?A0x84e3c32f@@B 000000018002a6e8     libvcruntime:winapi_downlevel.obj
 0002:00004700       ?candidate_modules@?1??try_get_FlsFree@@YAP6AHK@ZXZ@4QBW4module_id@?A0x84e3c32f@@B 000000018002a700     libvcruntime:winapi_downlevel.obj
 0002:00004710       ?candidate_modules@?1??try_get_FlsGetValue@@YAP6APEAXK@ZXZ@4QBW4module_id@?A0x84e3c32f@@B 000000018002a710     libvcruntime:winapi_downlevel.obj
 0002:00004728       ?candidate_modules@?1??try_get_FlsSetValue@@YAP6AHKPEAX@ZXZ@4QBW4module_id@?A0x84e3c32f@@B 000000018002a728     libvcruntime:winapi_downlevel.obj
 0002:00004740       ?candidate_modules@?1??try_get_InitializeCriticalSectionEx@@YAP6AHPEAU_RTL_CRITICAL_SECTION@@KK@ZXZ@4QBW4module_id@?A0x84e3c32f@@B 000000018002a740     libvcruntime:winapi_downlevel.obj
 0002:00004770       ?errtable@@3QBUerrentry@?A0x31fdb9ec@@B 000000018002a770     libucrt:errno.obj
 0002:00004e00       __acrt_initializers        000000018002ae00     libucrt:initialization.obj
 0002:00004f00       ?module_names@?A0x391cf84c@@3QBQEB_WB 000000018002af00     libucrt:winapi_thunks.obj
 0002:00005408       ?candidate_modules@?1??try_get_AreFileApisANSI@@YAP6AHXZXZ@4QBW4module_id@?A0x391cf84c@@B 000000018002b408     libucrt:winapi_thunks.obj
 0002:00005420       ?candidate_modules@?1??try_get_FlsAlloc@@YAP6AKP6AXPEAX@Z@ZXZ@4QBW4module_id@?A0x391cf84c@@B 000000018002b420     libucrt:winapi_thunks.obj
 0002:00005428       ?candidate_modules@?1??try_get_FlsFree@@YAP6AHK@ZXZ@4QBW4module_id@?A0x391cf84c@@B 000000018002b428     libucrt:winapi_thunks.obj
 0002:00005430       ?candidate_modules@?1??try_get_FlsGetValue@@YAP6APEAXK@ZXZ@4QBW4module_id@?A0x391cf84c@@B 000000018002b430     libucrt:winapi_thunks.obj
 0002:00005438       ?candidate_modules@?1??try_get_FlsSetValue@@YAP6AHKPEAX@ZXZ@4QBW4module_id@?A0x391cf84c@@B 000000018002b438     libucrt:winapi_thunks.obj
 0002:00005440       ?candidate_modules@?1??try_get_InitializeCriticalSectionEx@@YAP6AHPEAU_RTL_CRITICAL_SECTION@@KK@ZXZ@4QBW4module_id@?A0x391cf84c@@B 000000018002b440     libucrt:winapi_thunks.obj
 0002:00005448       ?candidate_modules@?1??try_get_LCMapStringEx@@YAP6AHPEB_WK0HPEA_WHPEAU_nlsversioninfo@@PEAX_J@ZXZ@4QBW4module_id@?A0x391cf84c@@B 000000018002b448     libucrt:winapi_thunks.obj
 0002:00005460       ?candidate_modules@?1??try_get_LocaleNameToLCID@@YAP6AKPEB_WK@ZXZ@4QBW4module_id@?A0x391cf84c@@B 000000018002b460     libucrt:winapi_thunks.obj
 0002:0000547c       ?candidate_modules@?1??try_get_AppPolicyGetProcessTerminationMethod@@YAP6AJPEAXPEAW4AppPolicyProcessTerminationMethod@@@ZXZ@4QBW4module_id@?A0x391cf84c@@B 000000018002b47c     libucrt:winapi_thunks.obj
 0002:000054a8       ?candidate_modules@?1??try_get_SetThreadStackGuarantee@@YAP6AHPEAK@ZXZ@4QBW4module_id@?A0x391cf84c@@B 000000018002b4a8     libucrt:winapi_thunks.obj
 0002:000054d0       ?strings@?1??fp_format_nan_or_infinity@@YAHW4__acrt_fp_class@@_NPEAD_K1@Z@4QAY03QEBDA 000000018002b4d0     libucrt:cvt.obj
 0002:00005c30       ?_mb_locale_names@@3QBQEB_WB 000000018002bc30     libucrt:mbctype.obj
 0002:000064a0       ?LcidToLocaleNameTable@?A0x881e4c05@@3QBULcidToLocaleName@1@B 000000018002c4a0     libucrt:lcidtoname_downlevel.obj
 0002:00007f00       ?LocaleNameToIndexTable@?A0x881e4c05@@3QBULocaleNameIndex@1@B 000000018002df00     libucrt:lcidtoname_downlevel.obj
 0002:0000a1a0       __real_ninf                00000001800301a0     libucrt:log10.obj
 0002:0000a1b0       __real_inf                 00000001800301b0     libucrt:log10.obj
 0002:0000a1c0       __real_neg_qnan            00000001800301c0     libucrt:log10.obj
 0002:0000a1d0       __real_qnanbit             00000001800301d0     libucrt:log10.obj
 0002:0000a1e0       __int_1023                 00000001800301e0     libucrt:log10.obj
 0002:0000a1f0       __mask_001                 00000001800301f0     libucrt:log10.obj
 0002:0000a200       __mask_mant                0000000180030200     libucrt:log10.obj
 0002:0000a210       __mask_mant_top8           0000000180030210     libucrt:log10.obj
 0002:0000a220       __mask_mant9               0000000180030220     libucrt:log10.obj
 0002:0000a230       __real_log10_e             0000000180030230     libucrt:log10.obj
 0002:0000a240       __real_log10_e_lead        0000000180030240     libucrt:log10.obj
 0002:0000a250       __real_log10_e_tail        0000000180030250     libucrt:log10.obj
 0002:0000a260       __real_log10_2_lead        0000000180030260     libucrt:log10.obj
 0002:0000a270       __real_log10_2_tail        0000000180030270     libucrt:log10.obj
 0002:0000a280       __real_two                 0000000180030280     libucrt:log10.obj
 0002:0000a290       __real_one                 0000000180030290     libucrt:log10.obj
 0002:0000a2a0       __real_half                00000001800302a0     libucrt:log10.obj
 0002:0000a2b0       __mask_100                 00000001800302b0     libucrt:log10.obj
 0002:0000a2c0       __real_1_over_512          00000001800302c0     libucrt:log10.obj
 0002:0000a2d0       __real_1_over_2            00000001800302d0     libucrt:log10.obj
 0002:0000a2e0       __real_1_over_3            00000001800302e0     libucrt:log10.obj
 0002:0000a2f0       __real_1_over_4            00000001800302f0     libucrt:log10.obj
 0002:0000a300       __real_1_over_5            0000000180030300     libucrt:log10.obj
 0002:0000a310       __real_1_over_6            0000000180030310     libucrt:log10.obj
 0002:0000a320       __real_neg_1023            0000000180030320     libucrt:log10.obj
 0002:0000a330       __mask_2045                0000000180030330     libucrt:log10.obj
 0002:0000a340       __real_threshold           0000000180030340     libucrt:log10.obj
 0002:0000a350       __real_near_one_lt         0000000180030350     libucrt:log10.obj
 0002:0000a360       __real_near_one_gt         0000000180030360     libucrt:log10.obj
 0002:0000a370       __real_min_norm            0000000180030370     libucrt:log10.obj
 0002:0000a380       __real_notsign             0000000180030380     libucrt:log10.obj
 0002:0000a390       __real_ca1                 0000000180030390     libucrt:log10.obj
 0002:0000a3a0       __real_ca2                 00000001800303a0     libucrt:log10.obj
 0002:0000a3b0       __real_ca3                 00000001800303b0     libucrt:log10.obj
 0002:0000a3c0       __real_ca4                 00000001800303c0     libucrt:log10.obj
 0002:0000a3d0       __mask_lower               00000001800303d0     libucrt:log10.obj
 0002:0000a3e0       __flag_x_zero              00000001800303e0     libucrt:log10.obj
 0002:0000a3e4       __flag_x_neg               00000001800303e4     libucrt:log10.obj
 0002:0000a3e8       __flag_x_nan               00000001800303e8     libucrt:log10.obj
 0002:0000bc40       __real@433fffffffffffff    0000000180031c40     libucrt:fpsr.obj
 0002:0000bc48       __real@c33fffffffffffff    0000000180031c48     libucrt:fpsr.obj
 0002:0000c4d8       $unwind$?cw_memcpy@@YAHPEA_WPEBDH@Z 00000001800324d8     CWString.obj
 0002:0000c4d8       $unwind$?ProcessWindowMessage@?$CComControl@VCOPOSFiscalPrinter@@V?$CWindowImpl@VCOPOSFiscalPrinter@@VCWindow@ATL@@V?$CWinTraits@$0FGAAAAAA@$0A@@3@@ATL@@@ATL@@UEAAHPEAUHWND__@@I_K_JAEA_JK@Z 00000001800324d8     FiscalPrinter.obj
 0002:0000c4d8       $unwind$wcstol             00000001800324d8     libucrt:strtox.obj
 0002:0000c4d8       $unwind$_invalid_parameter_noinfo 00000001800324d8     libucrt:invalid_parameter.obj
 0002:0000c4d8       $unwind$_log10_special     00000001800324d8     libucrt:log_special.obj
 0002:0000c4e0       $unwind$?cw_strcpy@@YAHPEA_WPEBD@Z 00000001800324e0     CWString.obj
 0002:0000c4e0       $unwind$??__E?pConnMap@?$IConnectionPointContainerImpl@VCOPOSFiscalPrinter@@@ATL@@0PEBU_ATL_CONNMAP_ENTRY@2@EB@@YAXXZ 00000001800324e0     FiscalPrinter.obj
 0002:0000c4e0       $unwind$?AddReplacement@CRegObject@ATL@@UEAAJPEB_W0@Z 00000001800324e0     FiscalPrinter.obj
 0002:0000c4e0       $unwind$?AtlHresultFromLastError@ATL@@YAJXZ 00000001800324e0     FiscalPrinter.obj
 0002:0000c4e0       $unwind$?AtlThrowImpl@ATL@@YAXJ@Z 00000001800324e0     FiscalPrinter.obj
 0002:0000c4e0       $unwind$?CreateInstance@CComClassFactory@ATL@@UEAAJPEAUIUnknown@@AEBU_GUID@@PEAPEAX@Z 00000001800324e0     FiscalPrinter.obj
 0002:0000c4e0       $unwind$?DefaultReflectionHandler@?$CWindowImplRoot@VCWindow@ATL@@@ATL@@SAHPEAUHWND__@@I_K_JAEA_J@Z 00000001800324e0     FiscalPrinter.obj
 0002:0000c4e0       $unwind$?EnumAdvise@?$IOleObjectImpl@VCOPOSFiscalPrinter@@@ATL@@UEAAJPEAPEAUIEnumSTATDATA@@@Z 00000001800324e0     FiscalPrinter.obj
 0002:0000c4e0       $unwind$?FireViewChange@CComControlBase@ATL@@QEAAJXZ 00000001800324e0     FiscalPrinter.obj
 0002:0000c4e0       $unwind$?GetAdvise@?$IViewObjectExImpl@VCOPOSFiscalPrinter@@@ATL@@UEAAJPEAK0PEAPEAUIAdviseSink@@@Z 00000001800324e0     FiscalPrinter.obj
 0002:0000c4e0       $unwind$?LockServer@CComClassFactory@ATL@@UEAAJH@Z 00000001800324e0     FiscalPrinter.obj
 0002:0000c4e0       $unwind$?OnDocWindowActivate@?$IOleInPlaceActiveObjectImpl@VCOPOSFiscalPrinter@@@ATL@@UEAAJH@Z 00000001800324e0     FiscalPrinter.obj
 0002:0000c4e0       $unwind$?Unadvise@?$IOleObjectImpl@VCOPOSFiscalPrinter@@@ATL@@UEAAJK@Z 00000001800324e0     FiscalPrinter.obj
 0002:0000c4e0       $unwind$?_LocCPQueryInterface@?$IConnectionPointImpl@VCOPOSFiscalPrinter@@$1?DIID__IOPOSFiscalPrinterEvents@@3U_GUID@@BVCComDynamicUnkArray@ATL@@@ATL@@UEAAJAEBU_GUID@@PEAPEAX@Z 00000001800324e0     FiscalPrinter.obj
 0002:0000c4e0       $unwind$?_LocCPQueryInterface@?$IConnectionPointImpl@VCOPOSFiscalPrinter@@$1?IID_IPropertyNotifySink@@3U_GUID@@BVCComDynamicUnkArray@ATL@@@ATL@@UEAAJAEBU_GUID@@PEAPEAX@Z 00000001800324e0     FiscalPrinter.obj
 0002:0000c4e0       $unwind$?FinalConstruct@COPOSFiscalPrinter@@QEAAJXZ 00000001800324e0     FiscalPrinterImpl.obj
 0002:0000c4e0       $unwind$?get_ResultCode@COPOSFiscalPrinter@@UEAAJPEAJ@Z 00000001800324e0     FiscalPrinterImpl.obj
 0002:0000c4e0       $unwind$?get_State@COPOSFiscalPrinter@@UEAAJPEAJ@Z 00000001800324e0     FiscalPrinterImpl.obj
 0002:0000c4e0       $unwind$??1OposDispParms@@QEAA@XZ 00000001800324e0     OposVariant.obj
 0002:0000c4e0       $unwind$??__E_AtlComModule@ATL@@YAXXZ 00000001800324e0     OposVariant.obj
 0002:0000c4e0       $unwind$??__E_AtlWinModule@ATL@@YAXXZ 00000001800324e0     OposVariant.obj
 0002:0000c4e0       $unwind$??__F_AtlWinModule@ATL@@YAXXZ 00000001800324e0     OposVariant.obj
 0002:0000c4e0       $unwind$?GetLONG@OposVariant@@QEAAJXZ 00000001800324e0     OposVariant.obj
 0002:0000c4e0       $unwind$??__E_AtlBaseModule@ATL@@YAXXZ 00000001800324e0     atls:atlbase.obj
 0002:0000c4e0       $unwind$__scrt_initialize_default_local_stdio_options 00000001800324e0     LIBCMT:default_local_stdio_options.obj
 0002:0000c4e0       $unwind$?dllmain_crt_dispatch@@YAHQEAUHINSTANCE__@@KQEAX@Z 00000001800324e0     LIBCMT:dll_dllmain.obj
 0002:0000c4e0       $unwind$__report_rangecheckfailure 00000001800324e0     LIBCMT:gs_report.obj
 0002:0000c4e0       $unwind$__GSHandlerCheck   00000001800324e0     LIBCMT:gshandler.obj
 0002:0000c4e0       $unwind$?__scrt_uninitialize_thread_safe_statics@@YAXXZ 00000001800324e0     LIBCMT:thread_safe_statics.obj
 0002:0000c4e0       $unwind$_Init_thread_notify 00000001800324e0     LIBCMT:thread_safe_statics.obj
 0002:0000c4e0       $unwind$__scrt_acquire_startup_lock 00000001800324e0     LIBCMT:utility.obj
 0002:0000c4e0       $unwind$__scrt_dllmain_after_initialize_c 00000001800324e0     LIBCMT:utility.obj
 0002:0000c4e0       $unwind$__scrt_dllmain_before_initialize_c 00000001800324e0     LIBCMT:utility.obj
 0002:0000c4e0       $unwind$__scrt_dllmain_crt_thread_attach 00000001800324e0     LIBCMT:utility.obj
 0002:0000c4e0       $unwind$__scrt_dllmain_crt_thread_detach 00000001800324e0     LIBCMT:utility.obj
 0002:0000c4e0       $unwind$__scrt_dllmain_uninitialize_c 00000001800324e0     LIBCMT:utility.obj
 0002:0000c4e0       $unwind$__scrt_dllmain_uninitialize_critical 00000001800324e0     LIBCMT:utility.obj
 0002:0000c4e0       $unwind$atexit             00000001800324e0     LIBCMT:utility.obj
 0002:0000c4e0       $unwind$__vcrt_initialize  00000001800324e0     libvcruntime:initialization.obj
 0002:0000c4e0       $unwind$__vcrt_thread_attach 00000001800324e0     libvcruntime:initialization.obj
 0002:0000c4e0       $unwind$__vcrt_thread_detach 00000001800324e0     libvcruntime:initialization.obj
 0002:0000c4e0       $unwind$__vcrt_uninitialize 00000001800324e0     libvcruntime:initialization.obj
 0002:0000c4e0       $unwind$__vcrt_uninitialize_critical 00000001800324e0     libvcruntime:initialization.obj
 0002:0000c4e0       $unwind$__vcrt_initialize_locks 00000001800324e0     libvcruntime:locks.obj
 0002:0000c4e0       $unwind$__vcrt_freefls     00000001800324e0     libvcruntime:per_thread_data.obj
 0002:0000c4e0       $unwind$__vcrt_getptd      00000001800324e0     libvcruntime:per_thread_data.obj
 0002:0000c4e0       $unwind$__vcrt_initialize_ptd 00000001800324e0     libvcruntime:per_thread_data.obj
 0002:0000c4e0       $unwind$__vcrt_uninitialize_ptd 00000001800324e0     libvcruntime:per_thread_data.obj
 0002:0000c4e0       $unwind$_purecall          00000001800324e0     libvcruntime:purevirt.obj
 0002:0000c4e0       $unwind$?FrameUnwindToEmptyState@__FrameHandler4@@SAXPEA_KPEAU_xDISPATCHER_CONTEXT@@PEAUFuncInfo4@FH4@@@Z 00000001800324e0     libvcruntime:risctrnsctrl.obj
 0002:0000c4e0       $unwind$_GetImageBase      00000001800324e0     libvcruntime:risctrnsctrl.obj
 0002:0000c4e0       $unwind$_GetThrowImageBase 00000001800324e0     libvcruntime:risctrnsctrl.obj
 0002:0000c4e0       $unwind$__dcrt_terminate_console_output 00000001800324e0     libucrt:initcon.obj
 0002:0000c4e0       $unwind$??$uninitialize_environment_internal@D@@YAXAEAPEAPEAD@Z 00000001800324e0     libucrt:environment_initialization.obj
 0002:0000c4e0       $unwind$??$uninitialize_environment_internal@_W@@YAXAEAPEAPEA_W@Z 00000001800324e0     libucrt:environment_initialization.obj
 0002:0000c4e0       $unwind$__dcrt_uninitialize_environments_nolock 00000001800324e0     libucrt:environment_initialization.obj
 0002:0000c4e0       $unwind$__acrt_initialize_heap 00000001800324e0     libucrt:heap_handle.obj
 0002:0000c4e0       $unwind$_msize_base        00000001800324e0     libucrt:msize.obj
 0002:0000c4e0       $unwind$?initialize_multibyte@@YAHXZ 00000001800324e0     libucrt:multibyte_initializer.obj
 0002:0000c4e0       $unwind$__acrt_thread_attach 00000001800324e0     libucrt:initialization.obj
 0002:0000c4e0       $unwind$__acrt_thread_detach 00000001800324e0     libucrt:initialization.obj
 0002:0000c4e0       $unwind$__acrt_uninitialize 00000001800324e0     libucrt:initialization.obj
 0002:0000c4e0       $unwind$__acrt_uninitialize_critical 00000001800324e0     libucrt:initialization.obj
 0002:0000c4e0       $unwind$initialize_c       00000001800324e0     libucrt:initialization.obj
 0002:0000c4e0       $unwind$uninitialize_allocated_io_buffers 00000001800324e0     libucrt:initialization.obj
 0002:0000c4e0       $unwind$uninitialize_environment 00000001800324e0     libucrt:initialization.obj
 0002:0000c4e0       $unwind$__acrt_initialize_ptd 00000001800324e0     libucrt:per_thread_data.obj
 0002:0000c4e0       $unwind$__acrt_uninitialize_ptd 00000001800324e0     libucrt:per_thread_data.obj
 0002:0000c4e0       $unwind$__acrt_AreFileApisANSI 00000001800324e0     libucrt:winapi_thunks.obj
 0002:0000c4e0       $unwind$__pctype_func      00000001800324e0     libucrt:ctype.obj
 0002:0000c4e0       $unwind$__acrt_release_locale_ref 00000001800324e0     libucrt:locale_refcounting.obj
 0002:0000c4e0       $unwind$_isatty            00000001800324e0     libucrt:isatty.obj
 0002:0000c4e0       $unwind$_get_osfhandle     00000001800324e0     libucrt:osfinfo.obj
 0002:0000c4e0       $unwind$__acrt_initialize_multibyte 00000001800324e0     libucrt:mbctype.obj
 0002:0000c4e0       $unwind$__acrt_update_thread_multibyte_data 00000001800324e0     libucrt:mbctype.obj
 0002:0000c4e0       $unwind$__doserrno         00000001800324e0     libucrt:errno.obj
 0002:0000c4e0       $unwind$_errno             00000001800324e0     libucrt:errno.obj
 0002:0000c4e0       $unwind$_invoke_watson     00000001800324e0     libucrt:invalid_parameter.obj
 0002:0000c4e0       $unwind$abort              00000001800324e0     libucrt:abort.obj
 0002:0000c4e0       $unwind$__acrt_initialize_command_line 00000001800324e0     libucrt:argv_data.obj
 0002:0000c4e0       $unwind$_fileno            00000001800324e0     libucrt:fileno.obj
 0002:0000c4e0       $unwind$?state_case_size@?$output_processor@_WV?$string_output_adapter@_W@__crt_stdio_output@@V?$format_validation_base@_WV?$string_output_adapter@_W@__crt_stdio_output@@@2@@__crt_stdio_output@@AEAA_NXZ 00000001800324e0     libucrt:output.obj
 0002:0000c4e0       $unwind$_statfp            00000001800324e0     libucrt:fpctrl.obj
 0002:0000c4e0       $unwind$fegetround         00000001800324e0     libucrt:fegetround.obj
 0002:0000c4e0       $unwind$_set_errno_from_matherr 00000001800324e0     libucrt:fpexcept.obj
 0002:0000c4e8       $unwind$?cw_dup@@YAXPEBDAEAHAEAPEA_W1@Z 00000001800324e8     CWString.obj
 0002:0000c4e8       $unwind$?DAdvise@?$IDataObjectImpl@VCOPOSFiscalPrinter@@@ATL@@UEAAJPEAUtagFORMATETC@@KPEAUIAdviseSink@@PEAK@Z 00000001800324e8     FiscalPrinter.obj
 0002:0000c4e8       $unwind$??$__acrt_mbs_to_wcs_cp@U__crt_win32_buffer_internal_dynamic_resizing@@@@YAHQEBDAEAV?$__crt_win32_buffer@_WU__crt_win32_buffer_internal_dynamic_resizing@@@@I@Z 00000001800324e8     libucrt:argv_wildcards.obj
 0002:0000c500       $unwind$?DupWide@_CW@@AEAAXXZ 0000000180032500     CWString.obj
 0002:0000c500       $unwind$??0?$CComObject@VCOPOSFiscalPrinter@@@ATL@@QEAA@PEAX@Z 0000000180032500     FiscalPrinter.obj
 0002:0000c500       $unwind$??0CAtlModule@ATL@@QEAA@XZ 0000000180032500     FiscalPrinter.obj
 0002:0000c500       $unwind$??1?$CComObject@VCOPOSFiscalPrinter@@@ATL@@UEAA@XZ 0000000180032500     FiscalPrinter.obj
 0002:0000c500       $unwind$??__E_Module@@YAXXZ 0000000180032500     FiscalPrinter.obj
 0002:0000c500       $unwind$?AddRef@?$CComObjectCached@VCComClassFactory@ATL@@@ATL@@UEAAKXZ 0000000180032500     FiscalPrinter.obj
 0002:0000c500       $unwind$?AllocateHeap@?$CTempBuffer@E$0BAA@VCCRTAllocator@ATL@@@ATL@@AEAAX_K@Z 0000000180032500     FiscalPrinter.obj
 0002:0000c500       $unwind$?AllocateHeap@?$CTempBuffer@_W$0BAA@VCCRTAllocator@ATL@@@ATL@@AEAAX_K@Z 0000000180032500     FiscalPrinter.obj
 0002:0000c500       $unwind$?AllocateHeap@?$CTempBuffer@_W$0EAA@VCCRTAllocator@ATL@@@ATL@@AEAAX_K@Z 0000000180032500     FiscalPrinter.obj
 0002:0000c500       $unwind$?GetClassInfoW@?$IProvideClassInfo2Impl@$1?CLSID_OPOSFiscalPrinter@@3U_GUID@@B$1?DIID__IOPOSFiscalPrinterEvents@@3U2@B$1?LIBID_OposFiscalPrinter_CCO@@3U2@B$00$0A@VCComTypeInfoHolder@ATL@@@ATL@@UEAAJPEAPEAUITypeInfo@@@Z 0000000180032500     FiscalPrinter.obj
 0002:0000c500       $unwind$?GetClientSite@?$IOleObjectImpl@VCOPOSFiscalPrinter@@@ATL@@UEAAJPEAPEAUIOleClientSite@@@Z 0000000180032500     FiscalPrinter.obj
 0002:0000c500       $unwind$?GetConnMap@COPOSFiscalPrinter@@SAPEBU_ATL_CONNMAP_ENTRY@ATL@@PEAH@Z 0000000180032500     FiscalPrinter.obj
 0002:0000c500       $unwind$?GetTypeInfo@?$IDispatchImpl@UIOPOSFiscalPrinter@@$1?IID_IOPOSFiscalPrinter@@3U_GUID@@B$1?LIBID_OposFiscalPrinter_CCO@@3U3@B$00$0A@VCComTypeInfoHolder@ATL@@@ATL@@UEAAJIKPEAPEAUITypeInfo@@@Z 0000000180032500     FiscalPrinter.obj
 0002:0000c500       $unwind$?IOleInPlaceObject_InPlaceDeactivate@CComControlBase@ATL@@QEAAJXZ 0000000180032500     FiscalPrinter.obj
 0002:0000c500       $unwind$?IOleObject_SetExtent@CComControlBase@ATL@@QEAAJKPEAUtagSIZE@@@Z 0000000180032500     FiscalPrinter.obj
 0002:0000c500       $unwind$?IsEqualObject@?$CComPtrBase@UIOleClientSite@@@ATL@@QEAA_NPEAUIUnknown@@@Z 0000000180032500     FiscalPrinter.obj
 0002:0000c500       $unwind$?QueryHitPoint@?$IViewObjectExImpl@VCOPOSFiscalPrinter@@@ATL@@UEAAJKPEBUtagRECT@@UtagPOINT@@JPEAK@Z 0000000180032500     FiscalPrinter.obj
 0002:0000c500       $unwind$?QueryInterface@?$CComAggObject@VCOPOSFiscalPrinter@@@ATL@@UEAAJAEBU_GUID@@PEAPEAX@Z 0000000180032500     FiscalPrinter.obj
 0002:0000c500       $unwind$?Release@?$CComObjectCached@VCComClassFactory@ATL@@@ATL@@UEAAKXZ 0000000180032500     FiscalPrinter.obj
 0002:0000c500       $unwind$?Unadvise@?$IConnectionPointImpl@VCOPOSFiscalPrinter@@$1?DIID__IOPOSFiscalPrinterEvents@@3U_GUID@@BVCComDynamicUnkArray@ATL@@@ATL@@UEAAJK@Z 0000000180032500     FiscalPrinter.obj
 0002:0000c500       $unwind$?Unadvise@?$IConnectionPointImpl@VCOPOSFiscalPrinter@@$1?IID_IPropertyNotifySink@@3U_GUID@@BVCComDynamicUnkArray@ATL@@@ATL@@UEAAJK@Z 0000000180032500     FiscalPrinter.obj
 0002:0000c500       $unwind$??1CComControlBase@ATL@@UEAA@XZ 0000000180032500     FiscalPrinterImpl.obj
 0002:0000c500       $unwind$??1COPOSFiscalPrinter@@UEAA@XZ 0000000180032500     FiscalPrinterImpl.obj
 0002:0000c500       $unwind$?EventUninit@COPOSFiscalPrinter@@IEAAXXZ 0000000180032500     FiscalPrinterImpl.obj
 0002:0000c500       $unwind$?FreezeEvents@COPOSFiscalPrinter@@MEAAJH@Z 0000000180032500     FiscalPrinterImpl.obj
 0002:0000c500       $unwind$?SOProcessID@COPOSFiscalPrinter@@UEAAJPEAJ@Z 0000000180032500     FiscalPrinterImpl.obj
 0002:0000c500       $unwind$?get_AsyncMode@COPOSFiscalPrinter@@UEAAJPEAF@Z 0000000180032500     FiscalPrinterImpl.obj
 0002:0000c500       $unwind$?get_CapAdditionalHeader@COPOSFiscalPrinter@@UEAAJPEAF@Z 0000000180032500     FiscalPrinterImpl.obj
 0002:0000c500       $unwind$?get_CapAdditionalLines@COPOSFiscalPrinter@@UEAAJPEAF@Z 0000000180032500     FiscalPrinterImpl.obj
 0002:0000c500       $unwind$?get_CapAdditionalTrailer@COPOSFiscalPrinter@@UEAAJPEAF@Z 0000000180032500     FiscalPrinterImpl.obj
 0002:0000c500       $unwind$?get_CapAmountAdjustment@COPOSFiscalPrinter@@UEAAJPEAF@Z 0000000180032500     FiscalPrinterImpl.obj
 0002:0000c500       $unwind$?get_CapAmountNotPaid@COPOSFiscalPrinter@@UEAAJPEAF@Z 0000000180032500     FiscalPrinterImpl.obj
 0002:0000c500       $unwind$?get_CapChangeDue@COPOSFiscalPrinter@@UEAAJPEAF@Z 0000000180032500     FiscalPrinterImpl.obj
 0002:0000c500       $unwind$?get_CapCheckTotal@COPOSFiscalPrinter@@UEAAJPEAF@Z 0000000180032500     FiscalPrinterImpl.obj
 0002:0000c500       $unwind$?get_CapCompareFirmwareVersion@COPOSFiscalPrinter@@UEAAJPEAF@Z 0000000180032500     FiscalPrinterImpl.obj
 0002:0000c500       $unwind$?get_CapCoverSensor@COPOSFiscalPrinter@@UEAAJPEAF@Z 0000000180032500     FiscalPrinterImpl.obj
 0002:0000c500       $unwind$?get_CapDoubleWidth@COPOSFiscalPrinter@@UEAAJPEAF@Z 0000000180032500     FiscalPrinterImpl.obj
 0002:0000c500       $unwind$?get_CapDuplicateReceipt@COPOSFiscalPrinter@@UEAAJPEAF@Z 0000000180032500     FiscalPrinterImpl.obj
 0002:0000c500       $unwind$?get_CapEmptyReceiptIsVoidable@COPOSFiscalPrinter@@UEAAJPEAF@Z 0000000180032500     FiscalPrinterImpl.obj
 0002:0000c500       $unwind$?get_CapFiscalReceiptStation@COPOSFiscalPrinter@@UEAAJPEAF@Z 0000000180032500     FiscalPrinterImpl.obj
 0002:0000c500       $unwind$?get_CapFiscalReceiptType@COPOSFiscalPrinter@@UEAAJPEAF@Z 0000000180032500     FiscalPrinterImpl.obj
 0002:0000c500       $unwind$?get_CapFixedOutput@COPOSFiscalPrinter@@UEAAJPEAF@Z 0000000180032500     FiscalPrinterImpl.obj
 0002:0000c500       $unwind$?get_CapHasVatTable@COPOSFiscalPrinter@@UEAAJPEAF@Z 0000000180032500     FiscalPrinterImpl.obj
 0002:0000c500       $unwind$?get_CapIndependentHeader@COPOSFiscalPrinter@@UEAAJPEAF@Z 0000000180032500     FiscalPrinterImpl.obj
 0002:0000c500       $unwind$?get_CapItemList@COPOSFiscalPrinter@@UEAAJPEAF@Z 0000000180032500     FiscalPrinterImpl.obj
 0002:0000c500       $unwind$?get_CapJrnEmptySensor@COPOSFiscalPrinter@@UEAAJPEAF@Z 0000000180032500     FiscalPrinterImpl.obj
 0002:0000c500       $unwind$?get_CapJrnNearEndSensor@COPOSFiscalPrinter@@UEAAJPEAF@Z 0000000180032500     FiscalPrinterImpl.obj
 0002:0000c500       $unwind$?get_CapJrnPresent@COPOSFiscalPrinter@@UEAAJPEAF@Z 0000000180032500     FiscalPrinterImpl.obj
 0002:0000c500       $unwind$?get_CapMultiContractor@COPOSFiscalPrinter@@UEAAJPEAF@Z 0000000180032500     FiscalPrinterImpl.obj
 0002:0000c500       $unwind$?get_CapNonFiscalMode@COPOSFiscalPrinter@@UEAAJPEAF@Z 0000000180032500     FiscalPrinterImpl.obj
 0002:0000c500       $unwind$?get_CapOnlyVoidLastItem@COPOSFiscalPrinter@@UEAAJPEAF@Z 0000000180032500     FiscalPrinterImpl.obj
 0002:0000c500       $unwind$?get_CapOrderAdjustmentFirst@COPOSFiscalPrinter@@UEAAJPEAF@Z 0000000180032500     FiscalPrinterImpl.obj
 0002:0000c500       $unwind$?get_CapPackageAdjustment@COPOSFiscalPrinter@@UEAAJPEAF@Z 0000000180032500     FiscalPrinterImpl.obj
 0002:0000c500       $unwind$?get_CapPercentAdjustment@COPOSFiscalPrinter@@UEAAJPEAF@Z 0000000180032500     FiscalPrinterImpl.obj
 0002:0000c500       $unwind$?get_CapPositiveAdjustment@COPOSFiscalPrinter@@UEAAJPEAF@Z 0000000180032500     FiscalPrinterImpl.obj
 0002:0000c500       $unwind$?get_CapPositiveSubtotalAdjustment@COPOSFiscalPrinter@@UEAAJPEAF@Z 0000000180032500     FiscalPrinterImpl.obj
 0002:0000c500       $unwind$?get_CapPostPreLine@COPOSFiscalPrinter@@UEAAJPEAF@Z 0000000180032500     FiscalPrinterImpl.obj
 0002:0000c500       $unwind$?get_CapPowerLossReport@COPOSFiscalPrinter@@UEAAJPEAF@Z 0000000180032500     FiscalPrinterImpl.obj
 0002:0000c500       $unwind$?get_CapPredefinedPaymentLines@COPOSFiscalPrinter@@UEAAJPEAF@Z 0000000180032500     FiscalPrinterImpl.obj
 0002:0000c500       $unwind$?get_CapRecEmptySensor@COPOSFiscalPrinter@@UEAAJPEAF@Z 0000000180032500     FiscalPrinterImpl.obj
 0002:0000c500       $unwind$?get_CapRecNearEndSensor@COPOSFiscalPrinter@@UEAAJPEAF@Z 0000000180032500     FiscalPrinterImpl.obj
 0002:0000c500       $unwind$?get_CapRecPresent@COPOSFiscalPrinter@@UEAAJPEAF@Z 0000000180032500     FiscalPrinterImpl.obj
 0002:0000c500       $unwind$?get_CapReceiptNotPaid@COPOSFiscalPrinter@@UEAAJPEAF@Z 0000000180032500     FiscalPrinterImpl.obj
 0002:0000c500       $unwind$?get_CapRemainingFiscalMemory@COPOSFiscalPrinter@@UEAAJPEAF@Z 0000000180032500     FiscalPrinterImpl.obj
 0002:0000c500       $unwind$?get_CapReservedWord@COPOSFiscalPrinter@@UEAAJPEAF@Z 0000000180032500     FiscalPrinterImpl.obj
 0002:0000c500       $unwind$?get_CapSetCurrency@COPOSFiscalPrinter@@UEAAJPEAF@Z 0000000180032500     FiscalPrinterImpl.obj
 0002:0000c500       $unwind$?get_CapSetHeader@COPOSFiscalPrinter@@UEAAJPEAF@Z 0000000180032500     FiscalPrinterImpl.obj
 0002:0000c500       $unwind$?get_CapSetPOSID@COPOSFiscalPrinter@@UEAAJPEAF@Z 0000000180032500     FiscalPrinterImpl.obj
 0002:0000c500       $unwind$?get_CapSetStoreFiscalID@COPOSFiscalPrinter@@UEAAJPEAF@Z 0000000180032500     FiscalPrinterImpl.obj
 0002:0000c500       $unwind$?get_CapSetTrailer@COPOSFiscalPrinter@@UEAAJPEAF@Z 0000000180032500     FiscalPrinterImpl.obj
 0002:0000c500       $unwind$?get_CapSetVatTable@COPOSFiscalPrinter@@UEAAJPEAF@Z 0000000180032500     FiscalPrinterImpl.obj
 0002:0000c500       $unwind$?get_CapSlpEmptySensor@COPOSFiscalPrinter@@UEAAJPEAF@Z 0000000180032500     FiscalPrinterImpl.obj
 0002:0000c500       $unwind$?get_CapSlpFiscalDocument@COPOSFiscalPrinter@@UEAAJPEAF@Z 0000000180032500     FiscalPrinterImpl.obj
 0002:0000c500       $unwind$?get_CapSlpFullSlip@COPOSFiscalPrinter@@UEAAJPEAF@Z 0000000180032500     FiscalPrinterImpl.obj
 0002:0000c500       $unwind$?get_CapSlpNearEndSensor@COPOSFiscalPrinter@@UEAAJPEAF@Z 0000000180032500     FiscalPrinterImpl.obj
 0002:0000c500       $unwind$?get_CapSlpPresent@COPOSFiscalPrinter@@UEAAJPEAF@Z 0000000180032500     FiscalPrinterImpl.obj
 0002:0000c500       $unwind$?get_CapSlpValidation@COPOSFiscalPrinter@@UEAAJPEAF@Z 0000000180032500     FiscalPrinterImpl.obj
 0002:0000c500       $unwind$?get_CapStatisticsReporting@COPOSFiscalPrinter@@UEAAJPEAF@Z 0000000180032500     FiscalPrinterImpl.obj
 0002:0000c500       $unwind$?get_CapSubAmountAdjustment@COPOSFiscalPrinter@@UEAAJPEAF@Z 0000000180032500     FiscalPrinterImpl.obj
 0002:0000c500       $unwind$?get_CapSubPercentAdjustment@COPOSFiscalPrinter@@UEAAJPEAF@Z 0000000180032500     FiscalPrinterImpl.obj
 0002:0000c500       $unwind$?get_CapSubtotal@COPOSFiscalPrinter@@UEAAJPEAF@Z 0000000180032500     FiscalPrinterImpl.obj
 0002:0000c500       $unwind$?get_CapTotalizerType@COPOSFiscalPrinter@@UEAAJPEAF@Z 0000000180032500     FiscalPrinterImpl.obj
 0002:0000c500       $unwind$?get_CapTrainingMode@COPOSFiscalPrinter@@UEAAJPEAF@Z 0000000180032500     FiscalPrinterImpl.obj
 0002:0000c500       $unwind$?get_CapUpdateFirmware@COPOSFiscalPrinter@@UEAAJPEAF@Z 0000000180032500     FiscalPrinterImpl.obj
 0002:0000c500       $unwind$?get_CapUpdateStatistics@COPOSFiscalPrinter@@UEAAJPEAF@Z 0000000180032500     FiscalPrinterImpl.obj
 0002:0000c500       $unwind$?get_CapValidateJournal@COPOSFiscalPrinter@@UEAAJPEAF@Z 0000000180032500     FiscalPrinterImpl.obj
 0002:0000c500       $unwind$?get_CapXReport@COPOSFiscalPrinter@@UEAAJPEAF@Z 0000000180032500     FiscalPrinterImpl.obj
 0002:0000c500       $unwind$?get_CheckTotal@COPOSFiscalPrinter@@UEAAJPEAF@Z 0000000180032500     FiscalPrinterImpl.obj
 0002:0000c500       $unwind$?get_Claimed@COPOSFiscalPrinter@@UEAAJPEAF@Z 0000000180032500     FiscalPrinterImpl.obj
 0002:0000c500       $unwind$?get_CoverOpen@COPOSFiscalPrinter@@UEAAJPEAF@Z 0000000180032500     FiscalPrinterImpl.obj
 0002:0000c500       $unwind$?get_DayOpened@COPOSFiscalPrinter@@UEAAJPEAF@Z 0000000180032500     FiscalPrinterImpl.obj
 0002:0000c500       $unwind$?get_DeviceEnabled@COPOSFiscalPrinter@@UEAAJPEAF@Z 0000000180032500     FiscalPrinterImpl.obj
 0002:0000c500       $unwind$?get_DuplicateReceipt@COPOSFiscalPrinter@@UEAAJPEAF@Z 0000000180032500     FiscalPrinterImpl.obj
 0002:0000c500       $unwind$?get_FlagWhenIdle@COPOSFiscalPrinter@@UEAAJPEAF@Z 0000000180032500     FiscalPrinterImpl.obj
 0002:0000c500       $unwind$?get_FreezeEvents@COPOSFiscalPrinter@@UEAAJPEAF@Z 0000000180032500     FiscalPrinterImpl.obj
 0002:0000c500       $unwind$?get_JrnEmpty@COPOSFiscalPrinter@@UEAAJPEAF@Z 0000000180032500     FiscalPrinterImpl.obj
 0002:0000c500       $unwind$?get_JrnNearEnd@COPOSFiscalPrinter@@UEAAJPEAF@Z 0000000180032500     FiscalPrinterImpl.obj
 0002:0000c500       $unwind$?get_RecEmpty@COPOSFiscalPrinter@@UEAAJPEAF@Z 0000000180032500     FiscalPrinterImpl.obj
 0002:0000c500       $unwind$?get_RecNearEnd@COPOSFiscalPrinter@@UEAAJPEAF@Z 0000000180032500     FiscalPrinterImpl.obj
 0002:0000c500       $unwind$?get_SlpEmpty@COPOSFiscalPrinter@@UEAAJPEAF@Z 0000000180032500     FiscalPrinterImpl.obj
 0002:0000c500       $unwind$?get_SlpNearEnd@COPOSFiscalPrinter@@UEAAJPEAF@Z 0000000180032500     FiscalPrinterImpl.obj
 0002:0000c500       $unwind$?get_TrainingModeActive@COPOSFiscalPrinter@@UEAAJPEAF@Z 0000000180032500     FiscalPrinterImpl.obj
 0002:0000c500       $unwind$?put_FreezeEvents@COPOSFiscalPrinter@@UEAAJF@Z 0000000180032500     FiscalPrinterImpl.obj
 0002:0000c500       $unwind$??0CAtlComModule@ATL@@QEAA@XZ 0000000180032500     OposVariant.obj
 0002:0000c500       $unwind$??0CAtlWinModule@ATL@@QEAA@XZ 0000000180032500     OposVariant.obj
 0002:0000c500       $unwind$?SetBSTR_OutPtr@OposVariant@@QEAA_NPEAPEA_WAEAJ@Z 0000000180032500     OposVariant.obj
 0002:0000c500       $unwind$??1CAtlBaseModule@ATL@@QEAA@XZ 0000000180032500     atls:atlbase.obj
 0002:0000c500       $unwind$AtlThunk_AllocateData 0000000180032500     atls:atlthunk.obj
 0002:0000c500       $unwind$__raise_securityfailure 0000000180032500     LIBCMT:gs_report.obj
 0002:0000c500       $unwind$??2@YAPEAX_K@Z     0000000180032500     LIBCMT:new_scalar.obj
 0002:0000c500       $unwind$??_Gtype_info@@UEAAPEAXI@Z 0000000180032500     LIBCMT:std_type_info_static.obj
 0002:0000c500       $unwind$_Init_thread_footer 0000000180032500     LIBCMT:thread_safe_statics.obj
 0002:0000c500       $unwind$_Init_thread_header 0000000180032500     LIBCMT:thread_safe_statics.obj
 0002:0000c500       $unwind$_Init_thread_wait  0000000180032500     LIBCMT:thread_safe_statics.obj
 0002:0000c500       $unwind$??0bad_alloc@std@@QEAA@AEBV01@@Z 0000000180032500     LIBCMT:throw_bad_alloc.obj
 0002:0000c500       $unwind$??0bad_array_new_length@std@@QEAA@AEBV01@@Z 0000000180032500     LIBCMT:throw_bad_alloc.obj
 0002:0000c500       $unwind$??0exception@std@@QEAA@AEBV01@@Z 0000000180032500     LIBCMT:throw_bad_alloc.obj
 0002:0000c500       $unwind$__scrt_initialize_crt 0000000180032500     LIBCMT:utility.obj
 0002:0000c500       $unwind$__scrt_initialize_onexit_tables 0000000180032500     LIBCMT:utility.obj
 0002:0000c500       $unwind$__scrt_release_startup_lock 0000000180032500     LIBCMT:utility.obj
 0002:0000c500       $unwind$__scrt_uninitialize_crt 0000000180032500     LIBCMT:utility.obj
 0002:0000c500       $unwind$_onexit            0000000180032500     LIBCMT:utility.obj
 0002:0000c500       $unwind$_IsExceptionObjectToBeDestroyed 0000000180032500     libvcruntime:ehhelpers.obj
 0002:0000c500       $unwind$??0HandlerMap4@FH4@@QEAA@PEBUTryBlockMapEntry4@1@_KH@Z 0000000180032500     libvcruntime:frame.obj
 0002:0000c500       $unwind$??0bad_exception@std@@QEAA@AEBV01@@Z 0000000180032500     libvcruntime:frame.obj
 0002:0000c500       $unwind$?ExFilterRethrow@@YAHPEAU_EXCEPTION_POINTERS@@PEAUEHExceptionRecord@@PEAH@Z 0000000180032500     libvcruntime:frame.obj
 0002:0000c500       $unwind$__vcrt_uninitialize_locks 0000000180032500     libvcruntime:locks.obj
 0002:0000c500       $unwind$__vcrt_freeptd     0000000180032500     libvcruntime:per_thread_data.obj
 0002:0000c500       $unwind$_CreateFrameInfo   0000000180032500     libvcruntime:risctrnsctrl.obj
 0002:0000c500       $unwind$_SetImageBase      0000000180032500     libvcruntime:risctrnsctrl.obj
 0002:0000c500       $unwind$_SetThrowImageBase 0000000180032500     libvcruntime:risctrnsctrl.obj
 0002:0000c500       $unwind$__std_exception_destroy 0000000180032500     libvcruntime:std_exception.obj
 0002:0000c500       $unwind$__std_type_info_destroy_list 0000000180032500     libvcruntime:std_type_info.obj
 0002:0000c500       $unwind$__vcrt_FlsAlloc    0000000180032500     libvcruntime:winapi_downlevel.obj
 0002:0000c500       $unwind$__vcrt_FlsFree     0000000180032500     libvcruntime:winapi_downlevel.obj
 0002:0000c500       $unwind$__vcrt_FlsGetValue 0000000180032500     libvcruntime:winapi_downlevel.obj
 0002:0000c500       $unwind$_calloc_base       0000000180032500     libucrt:calloc_base.obj
 0002:0000c500       $unwind$_malloc_base       0000000180032500     libucrt:malloc_base.obj
 0002:0000c500       $unwind$_callnewh          0000000180032500     libucrt:new_handler.obj
 0002:0000c500       $unwind$initialize_pointers 0000000180032500     libucrt:initialization.obj
 0002:0000c500       $unwind$uninitialize_allocated_memory 0000000180032500     libucrt:initialization.obj
 0002:0000c500       $unwind$__acrt_initialize_locks 0000000180032500     libucrt:locks.obj
 0002:0000c500       $unwind$__acrt_uninitialize_locks 0000000180032500     libucrt:locks.obj
 0002:0000c500       $unwind$__acrt_freeptd     0000000180032500     libucrt:per_thread_data.obj
 0002:0000c500       $unwind$__acrt_getptd_head 0000000180032500     libucrt:per_thread_data.obj
 0002:0000c500       $unwind$__acrt_get_process_end_policy 0000000180032500     libucrt:win_policies.obj
 0002:0000c500       $unwind$__acrt_AppPolicyGetProcessTerminationMethodInternal 0000000180032500     libucrt:winapi_thunks.obj
 0002:0000c500       $unwind$__acrt_FlsAlloc    0000000180032500     libucrt:winapi_thunks.obj
 0002:0000c500       $unwind$__acrt_FlsFree     0000000180032500     libucrt:winapi_thunks.obj
 0002:0000c500       $unwind$__acrt_FlsGetValue 0000000180032500     libucrt:winapi_thunks.obj
 0002:0000c500       $unwind$__acrt_SetThreadStackGuarantee 0000000180032500     libucrt:winapi_thunks.obj
 0002:0000c500       $unwind$__acrt_uninitialize_winapi_thunks 0000000180032500     libucrt:winapi_thunks.obj
 0002:0000c500       $unwind$__acrt_update_locale_info 0000000180032500     libucrt:locale_update.obj
 0002:0000c500       $unwind$__acrt_update_multibyte_info 0000000180032500     libucrt:locale_update.obj
 0002:0000c500       $unwind$__acrt_allocate_buffer_for_argv 0000000180032500     libucrt:argv_parsing.obj
 0002:0000c500       $unwind$?exit_or_terminate_process@@YAXI@Z 0000000180032500     libucrt:exit.obj
 0002:0000c500       $unwind$?try_cor_exit_process@@YAXI@Z 0000000180032500     libucrt:exit.obj
 0002:0000c500       $unwind$__acrt_uninitialize_stdio 0000000180032500     libucrt:_file.obj
 0002:0000c500       $unwind$__acrt_stdio_free_buffer_nolock 0000000180032500     libucrt:_freebuf.obj
 0002:0000c500       $unwind$_fflush_nolock     0000000180032500     libucrt:fflush.obj
 0002:0000c500       $unwind$strcpy_s           0000000180032500     libucrt:strcpy_s.obj
 0002:0000c500       $unwind$wcscat_s           0000000180032500     libucrt:wcscat_s.obj
 0002:0000c500       $unwind$wcscpy_s           0000000180032500     libucrt:wcscpy_s.obj
 0002:0000c500       $unwind$_clrfp             0000000180032500     libucrt:fpctrl.obj
 0002:0000c500       $unwind$_set_statfp        0000000180032500     libucrt:fpctrl.obj
 0002:0000c500       $unwind$_clearfp           0000000180032500     libucrt:ieee.obj
 0002:0000c500       $unwind$_controlfp_s       0000000180032500     libucrt:contrlfp.obj
 0002:0000c500       $unwind$fegetenv           0000000180032500     libucrt:fegetenv.obj
 0002:0000c500       $unwind$feholdexcept       0000000180032500     libucrt:feholdexcept.obj
 0002:0000c500       $unwind$fesetenv           0000000180032500     libucrt:fesetenv.obj
 0002:0000c508       $unwind$?AtlWinModuleExtractCreateWndData@ATL@@YAPEAXPEAU_ATL_WIN_MODULE70@1@@Z 0000000180032508     FiscalPrinter.obj
 0002:0000c508       $unwind$?CreateInstance@?$CComCreator@V?$CComObject@VCOPOSFiscalPrinter@@@ATL@@@ATL@@SAJPEAXAEBU_GUID@@PEAPEAX@Z 0000000180032508     FiscalPrinter.obj
 0002:0000c508       $unwind$?DoEvent@COPOSFiscalPrinter@@IEAAXI_K_J@Z 0000000180032508     FiscalPrinter.obj
 0002:0000c508       $unwind$?DoVerb@?$IOleObjectImpl@VCOPOSFiscalPrinter@@@ATL@@UEAAJJPEAUtagMSG@@PEAUIOleClientSite@@JPEAUHWND__@@PEBUtagRECT@@@Z 0000000180032508     FiscalPrinter.obj
 0002:0000c508       $unwind$?HKeyFromString@CRegParser@ATL@@KAPEAUHKEY__@@PEA_W@Z 0000000180032508     FiscalPrinter.obj
 0002:0000c508       $unwind$?Next@?$CComEnumImpl@UIEnumConnectionPoints@@$1?_GUID_b196b285_bab4_101a_b69c_00aa00341d07@@3U__s_GUID@@BPEAUIConnectionPoint@@V?$_CopyInterface@UIConnectionPoint@@@ATL@@@ATL@@UEAAJKPEAPEAUIConnectionPoint@@PEAK@Z 0000000180032508     FiscalPrinter.obj
 0002:0000c508       $unwind$?Next@?$CComEnumImpl@UIEnumConnections@@$1?_GUID_b196b287_bab4_101a_b69c_00aa00341d07@@3U__s_GUID@@BUtagCONNECTDATA@@V?$_Copy@UtagCONNECTDATA@@@ATL@@@ATL@@UEAAJKPEAUtagCONNECTDATA@@PEAK@Z 0000000180032508     FiscalPrinter.obj
 0002:0000c508       $unwind$?SODirectIO@COPOSFiscalPrinter@@MEAAJJPEAJPEAPEA_W@Z 0000000180032508     FiscalPrinter.obj
 0002:0000c508       $unwind$?SetControlFocus@CComControlBase@ATL@@QEAAHH@Z 0000000180032508     FiscalPrinter.obj
 0002:0000c508       $unwind$?ocscpy_s@@YA_NPEA_W_KPEB_W@Z 0000000180032508     FiscalPrinter.obj
 0002:0000c508       $unwind$?s_EventWindowProc@COPOSFiscalPrinter@@KA_JPEAUHWND__@@I_K_J@Z 0000000180032508     FiscalPrinterImpl.obj
 0002:0000c508       $unwind$?AtlWinModuleTerm@ATL@@YAJPEAU_ATL_WIN_MODULE70@1@PEAUHINSTANCE__@@@Z 0000000180032508     OposVariant.obj
 0002:0000c508       $unwind$__scrt_dllmain_exception_filter 0000000180032508     LIBCMT:utility.obj
 0002:0000c508       $unwind$?Is_bad_exception_allowed@@YAEPEBU_s_ESTypeList@@@Z 0000000180032508     libvcruntime:frame.obj
 0002:0000c508       $unwind$_recalloc_base     0000000180032508     libucrt:recalloc.obj
 0002:0000c508       $unwind$__acrt_free_locale 0000000180032508     libucrt:locale_refcounting.obj
 0002:0000c508       $unwind$__acrt_lowio_create_handle_array 0000000180032508     libucrt:osfinfo.obj
 0002:0000c508       $unwind$?setSBCS@@YAXPEAU__crt_multibyte_data@@@Z 0000000180032508     libucrt:mbctype.obj
 0002:0000c508       $unwind$_seh_filter_exe    0000000180032508     libucrt:exception_filter.obj
 0002:0000c508       $unwind$_initterm          0000000180032508     libucrt:initterm.obj
 0002:0000c508       $unwind$??$ensure_buffer_is_big_enough@D@formatting_buffer@__crt_stdio_output@@QEAA_N_K@Z 0000000180032508     libucrt:output.obj
 0002:0000c508       $unwind$??$ensure_buffer_is_big_enough@_W@formatting_buffer@__crt_stdio_output@@QEAA_N_K@Z 0000000180032508     libucrt:output.obj
 0002:0000c51c       $unwind$??_GCRegObject@ATL@@UEAAPEAXI@Z 000000018003251c     FiscalPrinter.obj
 0002:0000c51c       $unwind$?Add@?$CSimpleArray@GV?$CSimpleArrayEqualHelper@G@ATL@@@ATL@@QEAAHAEBG@Z 000000018003251c     FiscalPrinter.obj
 0002:0000c51c       $unwind$?Add@?$CSimpleMap@PEA_WPEA_WVCExpansionVectorEqualHelper@ATL@@@ATL@@QEAAHAEBQEA_W0@Z 000000018003251c     FiscalPrinter.obj
 0002:0000c51c       $unwind$?Add@CComDynamicUnkArray@ATL@@QEAAKPEAUIUnknown@@@Z 000000018003251c     FiscalPrinter.obj
 0002:0000c51c       $unwind$?Advise@?$IOleObjectImpl@VCOPOSFiscalPrinter@@@ATL@@UEAAJPEAUIAdviseSink@@PEAK@Z 000000018003251c     FiscalPrinter.obj
 0002:0000c51c       $unwind$?ClearReplacements@CExpansionVector@ATL@@QEAAJXZ 000000018003251c     FiscalPrinter.obj
 0002:0000c51c       $unwind$?CreateInstance@?$CComObject@V?$CComEnum@UIEnumConnectionPoints@@$1?_GUID_b196b285_bab4_101a_b69c_00aa00341d07@@3U__s_GUID@@BPEAUIConnectionPoint@@V?$_CopyInterface@UIConnectionPoint@@@ATL@@VCComSingleThreadModel@6@@ATL@@@ATL@@SAJPEAPEAV12@@Z 000000018003251c     FiscalPrinter.obj
 0002:0000c51c       $unwind$?CreateInstance@?$CComObject@V?$CComEnum@UIEnumConnections@@$1?_GUID_b196b287_bab4_101a_b69c_00aa00341d07@@3U__s_GUID@@BUtagCONNECTDATA@@V?$_Copy@UtagCONNECTDATA@@@ATL@@VCComSingleThreadModel@6@@ATL@@@ATL@@SAJPEAPEAV12@@Z 000000018003251c     FiscalPrinter.obj
 0002:0000c51c       $unwind$?RegisterServer@CComModule@ATL@@QEAAJHPEBU_GUID@@@Z 000000018003251c     FiscalPrinter.obj
 0002:0000c51c       $unwind$?Term@CAtlModule@ATL@@QEAAXXZ 000000018003251c     FiscalPrinter.obj
 0002:0000c51c       $unwind$?UnregisterServer@CComModule@ATL@@QEAAJHPEBU_GUID@@@Z 000000018003251c     FiscalPrinter.obj
 0002:0000c51c       $unwind$?VTFromRegType@CRegParser@ATL@@KAHPEB_WAEAG@Z 000000018003251c     FiscalPrinter.obj
 0002:0000c51c       $unwind$??0OposDispParms@@QEAA@PEAVOposVariant@@H@Z 000000018003251c     OposVariant.obj
 0002:0000c51c       $unwind$?SetBSTR_Copy@OposVariant@@QEAAXPEA_WAEAJ@Z 000000018003251c     OposVariant.obj
 0002:0000c51c       $unwind$?SetBSTR_InOutPtr@OposVariant@@QEAA_NPEAPEA_WAEAJ@Z 000000018003251c     OposVariant.obj
 0002:0000c51c       $unwind$?SetDispatch_Ptr@OposVariant@@QEAAXPEAUIDispatch@@AEAJ@Z 000000018003251c     OposVariant.obj
 0002:0000c51c       $unwind$?SetLONG_Ptr@OposVariant@@QEAAXPEAJAEAJ@Z 000000018003251c     OposVariant.obj
 0002:0000c51c       $unwind$?SetString@OposVariant@@QEAAXPEB_WAEAJ@Z 000000018003251c     OposVariant.obj
 0002:0000c51c       $unwind$?Term@CAtlComModule@ATL@@QEAAXXZ 000000018003251c     OposVariant.obj
 0002:0000c51c       $unwind$_DllMainCRTStartup 000000018003251c     LIBCMT:dll_dllmain.obj
 0002:0000c51c       $unwind$__vcrt_getptd_noexit 000000018003251c     libvcruntime:per_thread_data.obj
 0002:0000c51c       $unwind$__vcrt_InitializeCriticalSectionEx 000000018003251c     libvcruntime:winapi_downlevel.obj
 0002:0000c51c       $unwind$memcpy_s           000000018003251c     libucrt:cfout.obj
 0002:0000c51c       $unwind$__acrt_getptd      000000018003251c     libucrt:per_thread_data.obj
 0002:0000c51c       $unwind$__acrt_getptd_noexit 000000018003251c     libucrt:per_thread_data.obj
 0002:0000c51c       $unwind$__acrt_execute_initializers 000000018003251c     libucrt:shared_initialization.obj
 0002:0000c51c       $unwind$__acrt_InitializeCriticalSectionEx 000000018003251c     libucrt:winapi_thunks.obj
 0002:0000c51c       $unwind$?free_crt_array_internal@@YAXQEAPEBX_K@Z 000000018003251c     libucrt:inittime.obj
 0002:0000c51c       $unwind$??$common_lseek_nolock@_J@@YA_JH_JH@Z 000000018003251c     libucrt:lseek.obj
 0002:0000c51c       $unwind$__acrt_stdio_flush_nolock 000000018003251c     libucrt:fflush.obj
 0002:0000c51c       $unwind$??0_LocaleUpdate@@QEAA@QEAU__crt_locale_pointers@@@Z 000000018003251c     libucrt:output.obj
 0002:0000c51c       $unwind$?type_case_Z@?$output_processor@_WV?$string_output_adapter@_W@__crt_stdio_output@@V?$format_validation_base@_WV?$string_output_adapter@_W@__crt_stdio_output@@@2@@__crt_stdio_output@@AEAA_NXZ 000000018003251c     libucrt:output.obj
 0002:0000c51c       $unwind$?type_case_s@?$output_processor@_WV?$string_output_adapter@_W@__crt_stdio_output@@V?$format_validation_base@_WV?$string_output_adapter@_W@__crt_stdio_output@@@2@@__crt_stdio_output@@AEAA_NXZ 000000018003251c     libucrt:output.obj
 0002:0000c51c       $unwind$_exception_enabled 000000018003251c     libucrt:libm_error.obj
 0002:0000c52c       $unwind$?AddTermFunc@CAtlModule@ATL@@QEAAJP6AX_K@Z0@Z 000000018003252c     FiscalPrinter.obj
 0002:0000c52c       $unwind$?AtlComModuleRegisterServer@ATL@@YAJPEAU_ATL_COM_MODULE70@1@HPEBU_GUID@@@Z 000000018003252c     FiscalPrinter.obj
 0002:0000c52c       $unwind$?AtlComModuleUnregisterServer@ATL@@YAJPEAU_ATL_COM_MODULE70@1@HPEBU_GUID@@@Z 000000018003252c     FiscalPrinter.obj
 0002:0000c52c       $unwind$?CreateInstance@?$CComCreator@V?$CComAggObject@VCOPOSFiscalPrinter@@@ATL@@@ATL@@SAJPEAXAEBU_GUID@@PEAPEAX@Z 000000018003252c     FiscalPrinter.obj
 0002:0000c52c       $unwind$?CreateInstance@?$CComCreator@V?$CComObjectCached@VCComClassFactory@ATL@@@ATL@@@ATL@@SAJPEAXAEBU_GUID@@PEAPEAX@Z 000000018003252c     FiscalPrinter.obj
 0002:0000c52c       $unwind$?GetPagesHelper@?$ISpecifyPropertyPagesImpl@VCOPOSFiscalPrinter@@@ATL@@IEAAJPEAUtagCAUUID@@PEBUATL_PROPMAP_ENTRY@2@@Z 000000018003252c     FiscalPrinter.obj
 0002:0000c52c       $unwind$??_Estringdispid@CComTypeInfoHolder@ATL@@QEAAPEAXI@Z 000000018003252c     OposVariant.obj
 0002:0000c52c       $unwind$__GSHandlerCheck_SEH 000000018003252c     LIBCMT:gshandlerseh.obj
 0002:0000c52c       $unwind$??$TypeMatchHelper@V__FrameHandler3@@@@YAHPEBU_s_HandlerType@@PEBU_s_CatchableType@@PEBU_s_ThrowInfo@@@Z 000000018003252c     libvcruntime:frame.obj
 0002:0000c52c       $unwind$??$TypeMatchHelper@V__FrameHandler4@@@@YAHPEAUHandlerType4@FH4@@PEBU_s_CatchableType@@PEBU_s_ThrowInfo@@@Z 000000018003252c     libvcruntime:frame.obj
 0002:0000c52c       $unwind$?initialize_stdio_handles_nolock@@YAXXZ 000000018003252c     libucrt:ioinit.obj
 0002:0000c52c       $unwind$__acrt_initialize_stdio 000000018003252c     libucrt:_file.obj
 0002:0000c52c       $unwind$?process@?$output_processor@_WV?$string_output_adapter@_W@__crt_stdio_output@@V?$format_validation_base@_WV?$string_output_adapter@_W@__crt_stdio_output@@@2@@__crt_stdio_output@@QEAAHXZ 000000018003252c     libucrt:output.obj
 0002:0000c52c       $unwind$?type_case_integer@?$output_processor@_WV?$string_output_adapter@_W@__crt_stdio_output@@V?$format_validation_base@_WV?$string_output_adapter@_W@__crt_stdio_output@@@2@@__crt_stdio_output@@AEAA_NI_N@Z 000000018003252c     libucrt:output.obj
 0002:0000c544       $unwind$??0?$CComContainedObject@VCOPOSFiscalPrinter@@@ATL@@QEAA@PEAX@Z 0000000180032544     FiscalPrinter.obj
 0002:0000c544       $unwind$??1?$CComEnumImpl@UIEnumConnectionPoints@@$1?_GUID_b196b285_bab4_101a_b69c_00aa00341d07@@3U__s_GUID@@BPEAUIConnectionPoint@@V?$_CopyInterface@UIConnectionPoint@@@ATL@@@ATL@@UEAA@XZ 0000000180032544     FiscalPrinter.obj
 0002:0000c544       $unwind$??1?$CComEnumImpl@UIEnumConnections@@$1?_GUID_b196b287_bab4_101a_b69c_00aa00341d07@@3U__s_GUID@@BUtagCONNECTDATA@@V?$_Copy@UtagCONNECTDATA@@@ATL@@@ATL@@UEAA@XZ 0000000180032544     FiscalPrinter.obj
 0002:0000c544       $unwind$??_G?$CComAggObject@VCOPOSFiscalPrinter@@@ATL@@UEAAPEAXI@Z 0000000180032544     FiscalPrinter.obj
 0002:0000c544       $unwind$??_G?$CComContainedObject@VCOPOSFiscalPrinter@@@ATL@@UEAAPEAXI@Z 0000000180032544     FiscalPrinter.obj
 0002:0000c544       $unwind$??_G?$CComObject@V?$CComEnum@UIEnumConnectionPoints@@$1?_GUID_b196b285_bab4_101a_b69c_00aa00341d07@@3U__s_GUID@@BPEAUIConnectionPoint@@V?$_CopyInterface@UIConnectionPoint@@@ATL@@VCComSingleThreadModel@6@@ATL@@@ATL@@UEAAPEAXI@Z 0000000180032544     FiscalPrinter.obj
 0002:0000c544       $unwind$??_G?$CComObject@V?$CComEnum@UIEnumConnections@@$1?_GUID_b196b287_bab4_101a_b69c_00aa00341d07@@3U__s_GUID@@BUtagCONNECTDATA@@V?$_Copy@UtagCONNECTDATA@@@ATL@@VCComSingleThreadModel@6@@ATL@@@ATL@@UEAAPEAXI@Z 0000000180032544     FiscalPrinter.obj
 0002:0000c544       $unwind$??_G?$CComObject@VCOPOSFiscalPrinter@@@ATL@@UEAAPEAXI@Z 0000000180032544     FiscalPrinter.obj
 0002:0000c544       $unwind$??_G?$CComObjectCached@VCComClassFactory@ATL@@@ATL@@UEAAPEAXI@Z 0000000180032544     FiscalPrinter.obj
 0002:0000c544       $unwind$??_GCComClassFactory@ATL@@UEAAPEAXI@Z 0000000180032544     FiscalPrinter.obj
 0002:0000c544       $unwind$??_GCComModule@ATL@@UEAAPEAXI@Z 0000000180032544     FiscalPrinter.obj
 0002:0000c544       $unwind$?DeleteSubKey@CRegKey@ATL@@QEAAJPEB_W@Z 0000000180032544     FiscalPrinter.obj
 0002:0000c544       $unwind$?IOleObject_SetClientSite@CComControlBase@ATL@@QEAAJPEAUIOleClientSite@@@Z 0000000180032544     FiscalPrinter.obj
 0002:0000c544       $unwind$?InitNew@?$IPersistStorageImpl@VCOPOSFiscalPrinter@@@ATL@@UEAAJPEAUIStorage@@@Z 0000000180032544     FiscalPrinter.obj
 0002:0000c544       $unwind$?IsDirty@?$IPersistStorageImpl@VCOPOSFiscalPrinter@@@ATL@@UEAAJXZ 0000000180032544     FiscalPrinter.obj
 0002:0000c544       $unwind$?Release@?$CComAggObject@VCOPOSFiscalPrinter@@@ATL@@UEAAKXZ 0000000180032544     FiscalPrinter.obj
 0002:0000c544       $unwind$?Release@?$CComObject@V?$CComEnum@UIEnumConnectionPoints@@$1?_GUID_b196b285_bab4_101a_b69c_00aa00341d07@@3U__s_GUID@@BPEAUIConnectionPoint@@V?$_CopyInterface@UIConnectionPoint@@@ATL@@VCComSingleThreadModel@6@@ATL@@@ATL@@UEAAKXZ 0000000180032544     FiscalPrinter.obj
 0002:0000c544       $unwind$?Release@?$CComObject@V?$CComEnum@UIEnumConnections@@$1?_GUID_b196b287_bab4_101a_b69c_00aa00341d07@@3U__s_GUID@@BUtagCONNECTDATA@@V?$_Copy@UtagCONNECTDATA@@@ATL@@VCComSingleThreadModel@6@@ATL@@@ATL@@UEAAKXZ 0000000180032544     FiscalPrinter.obj
 0002:0000c544       $unwind$?Release@?$CComObject@VCOPOSFiscalPrinter@@@ATL@@UEAAKXZ 0000000180032544     FiscalPrinter.obj
 0002:0000c544       $unwind$?SOOutputComplete@COPOSFiscalPrinter@@MEAAJJ@Z 0000000180032544     FiscalPrinter.obj
 0002:0000c544       $unwind$?SOStatusUpdate@COPOSFiscalPrinter@@MEAAJJ@Z 0000000180032544     FiscalPrinter.obj
 0002:0000c544       $unwind$?SetAdvise@?$IViewObjectExImpl@VCOPOSFiscalPrinter@@@ATL@@UEAAJKKPEAUIAdviseSink@@@Z 0000000180032544     FiscalPrinter.obj
 0002:0000c544       $unwind$?Term@CComModule@ATL@@QEAAXXZ 0000000180032544     FiscalPrinter.obj
 0002:0000c544       $unwind$DllMain            0000000180032544     FiscalPrinter.obj
 0002:0000c544       $unwind$??1?$IConnectionPointImpl@VCOPOSFiscalPrinter@@$1?DIID__IOPOSFiscalPrinterEvents@@3U_GUID@@BVCComDynamicUnkArray@ATL@@@ATL@@QEAA@XZ 0000000180032544     FiscalPrinterImpl.obj
 0002:0000c544       $unwind$??1?$IConnectionPointImpl@VCOPOSFiscalPrinter@@$1?IID_IPropertyNotifySink@@3U_GUID@@BVCComDynamicUnkArray@ATL@@@ATL@@QEAA@XZ 0000000180032544     FiscalPrinterImpl.obj
 0002:0000c544       $unwind$?SetBSTR@OposVariant@@QEAAXPEA_WAEAJ@Z 0000000180032544     OposVariant.obj
 0002:0000c544       $unwind$?SetCURRENCY@OposVariant@@QEAAXTtagCY@@@Z 0000000180032544     OposVariant.obj
 0002:0000c544       $unwind$?SetLONG@OposVariant@@QEAAXJ@Z 0000000180032544     OposVariant.obj
 0002:0000c544       $unwind$?SetVARIANT_BOOL@OposVariant@@QEAAXF@Z 0000000180032544     OposVariant.obj
 0002:0000c544       $unwind$??0CAtlBaseModule@ATL@@QEAA@XZ 0000000180032544     atls:atlbase.obj
 0002:0000c544       $unwind$??$GetProcAddressAll@P6AP6A_JPEAUHWND__@@I_K_J@ZPEAUAtlThunkData_t@@@Z@@YAP6AP6A_JPEAUHWND__@@I_K_J@ZPEAUAtlThunkData_t@@@ZPEAP6AP6A_J0I12@Z3@Z@Z 0000000180032544     atls:atlthunk.obj
 0002:0000c544       $unwind$??$GetProcAddressAll@P6APEAUAtlThunkData_t@@XZ@@YAP6APEAUAtlThunkData_t@@XZPEAP6APEAU0@XZ@Z 0000000180032544     atls:atlthunk.obj
 0002:0000c544       $unwind$??$GetProcAddressAll@P6AXPEAUAtlThunkData_t@@@Z@@YAP6AXPEAUAtlThunkData_t@@@ZPEAP6AX0@Z@Z 0000000180032544     atls:atlthunk.obj
 0002:0000c544       $unwind$??$GetProcAddressAll@P6AXPEAUAtlThunkData_t@@PEAX_K@Z@@YAP6AXPEAUAtlThunkData_t@@PEAX_K@ZPEAP6AX012@Z@Z 0000000180032544     atls:atlthunk.obj
 0002:0000c544       $unwind$?__AllocStdCallThunk_cmn@@YAPEAXXZ 0000000180032544     atls:atlthunk.obj
 0002:0000c544       $unwind$?__InitializeThunkPool@@YAHXZ 0000000180032544     atls:atlthunk.obj
 0002:0000c544       $unwind$AtlThunk_DataToCode 0000000180032544     atls:atlthunk.obj
 0002:0000c544       $unwind$_RTC_Initialize    0000000180032544     LIBCMT:initsect.obj
 0002:0000c544       $unwind$_RTC_Terminate     0000000180032544     LIBCMT:initsect.obj
 0002:0000c544       $unwind$?__scrt_initialize_thread_safe_statics@@YAHXZ 0000000180032544     LIBCMT:thread_safe_statics.obj
 0002:0000c544       $unwind$??_Gbad_alloc@std@@UEAAPEAXI@Z 0000000180032544     LIBCMT:throw_bad_alloc.obj
 0002:0000c544       $unwind$??_Gbad_array_new_length@std@@UEAAPEAXI@Z 0000000180032544     LIBCMT:throw_bad_alloc.obj
 0002:0000c544       $unwind$??_Gexception@std@@UEAAPEAXI@Z 0000000180032544     LIBCMT:throw_bad_alloc.obj
 0002:0000c544       $unwind$__FrameUnwindFilter 0000000180032544     libvcruntime:ehhelpers.obj
 0002:0000c544       $unwind$??_Gbad_exception@std@@UEAAPEAXI@Z 0000000180032544     libvcruntime:frame.obj
 0002:0000c544       $unwind$?ExFilterRethrowFH4@@YAHPEAU_EXCEPTION_POINTERS@@PEAUEHExceptionRecord@@HPEAH@Z 0000000180032544     libvcruntime:frame.obj
 0002:0000c544       $unwind$_FindAndUnlinkFrame 0000000180032544     libvcruntime:risctrnsctrl.obj
 0002:0000c544       $unwind$__vcrt_FlsSetValue 0000000180032544     libvcruntime:winapi_downlevel.obj
 0002:0000c544       $unwind$??$common_initialize_environment_nolock@D@@YAHXZ 0000000180032544     libucrt:environment_initialization.obj
 0002:0000c544       $unwind$_realloc_base      0000000180032544     libucrt:realloc_base.obj
 0002:0000c544       $unwind$?replace_current_thread_locale_nolock@@YAXQEAU__acrt_ptd@@QEAU__crt_locale_data@@@Z 0000000180032544     libucrt:per_thread_data.obj
 0002:0000c544       $unwind$__acrt_execute_uninitializers 0000000180032544     libucrt:shared_initialization.obj
 0002:0000c544       $unwind$__acrt_FlsSetValue 0000000180032544     libucrt:winapi_thunks.obj
 0002:0000c544       $unwind$__acrt_LocaleNameToLCID 0000000180032544     libucrt:winapi_thunks.obj
 0002:0000c544       $unwind$_updatetlocinfoEx_nolock 0000000180032544     libucrt:locale_refcounting.obj
 0002:0000c544       $unwind$_close_nolock      0000000180032544     libucrt:close.obj
 0002:0000c544       $unwind$__acrt_uninitialize_lowio 0000000180032544     libucrt:ioinit.obj
 0002:0000c544       $unwind$__acrt_errno_map_os_error 0000000180032544     libucrt:errno.obj
 0002:0000c544       $unwind$_initterm_e        0000000180032544     libucrt:initterm.obj
 0002:0000c544       $unwind$_fclose_nolock     0000000180032544     libucrt:fclose.obj
 0002:0000c544       $unwind$?type_case_n@?$output_processor@_WV?$string_output_adapter@_W@__crt_stdio_output@@V?$format_validation_base@_WV?$string_output_adapter@_W@__crt_stdio_output@@@2@@__crt_stdio_output@@AEAA_NXZ 0000000180032544     libucrt:output.obj
 0002:0000c544       $unwind$strncpy_s          0000000180032544     libucrt:strncpy_s.obj
 0002:0000c544       $unwind$wcsncpy_s          0000000180032544     libucrt:wcsncpy_s.obj
 0002:0000c550       $unwind$?ChangeBSTR@OposVariant@@QEAAXPEAPEA_WAEAJ@Z 0000000180032550     OposVariant.obj
 0002:0000c550       $unwind$?ChangeLONG@OposVariant@@QEAAXPEAJAEAJ@Z 0000000180032550     OposVariant.obj
 0002:0000c550       $unwind$?x_ismbbtype_l@@YAHPEAU__crt_locale_pointers@@IHH@Z 0000000180032550     libucrt:ismbbyte.obj
 0002:0000c560       $unwind$swprintf_s         0000000180032560     FiscalPrinter.obj
 0002:0000c570       $unwind$?_AtlVerifyStackAvailable@_ATL_SAFE_ALLOCA_IMPL@ATL@@YA_N_K@Z 0000000180032570     FiscalPrinter.obj
 0002:0000c59c       $unwind$?filt$0@?0??_AtlVerifyStackAvailable@_ATL_SAFE_ALLOCA_IMPL@ATL@@YA_N_K@Z@4HA 000000018003259c     FiscalPrinter.obj
 0002:0000c59c       $unwind$?fin$0@?0??dllmain_crt_process_attach@@YAHQEAUHINSTANCE__@@QEAX@Z@4HA 000000018003259c     LIBCMT:dll_dllmain.obj
 0002:0000c59c       $unwind$?fin$0@?0??dllmain_crt_process_detach@@YAH_N@Z@4HA 000000018003259c     LIBCMT:dll_dllmain.obj
 0002:0000c59c       $unwind$?fin$1@?0??dllmain_crt_process_detach@@YAH_N@Z@4HA 000000018003259c     LIBCMT:dll_dllmain.obj
 0002:0000c59c       $unwind$_IsNonwritableInCurrentImage$filt$0 000000018003259c     LIBCMT:pesect.obj
 0002:0000c59c       $unwind$?filt$0@?0??CxxCallCatchBlock@__FrameHandler4@@SAPEAXPEAU_EXCEPTION_RECORD@@@Z@4HA 000000018003259c     libvcruntime:frame.obj
 0002:0000c59c       $unwind$_query_new_handler$fin$0 000000018003259c     libucrt:new_handler.obj
 0002:0000c59c       $unwind$?fin$0@?0???$?RV<lambda_0ae27a3a962d80f24befdcbee591983d>@@AEAV<lambda_8d0ee55de4b1038c4002e0adecdf1839>@@V<lambda_dc504788e8f1664fe9b84e20bfb512f2>@@@?$__crt_seh_guarded_call@X@@QEAAX$$QEAV<lambda_0ae27a3a962d80f24befdcbee591983d>@@AEAV<lambda_8d0ee55de4b1038c4002e0adecdf1839>@@$$QEAV<lambda_dc504788e8f1664fe9b84e20bfb512f2>@@@Z@4HA 000000018003259c     libucrt:per_thread_data.obj
 0002:0000c59c       $unwind$?fin$0@?0???$?RV<lambda_2d41944a1d46af3157314b8a01080d33>@@AEAV<lambda_8f455de75cd7d7f24b4096f044d8b9e6>@@V<lambda_aa500f224e6afead328df44964fe2772>@@@?$__crt_seh_guarded_call@X@@QEAAX$$QEAV<lambda_2d41944a1d46af3157314b8a01080d33>@@AEAV<lambda_8f455de75cd7d7f24b4096f044d8b9e6>@@$$QEAV<lambda_aa500f224e6afead328df44964fe2772>@@@Z@4HA 000000018003259c     libucrt:per_thread_data.obj
 0002:0000c59c       $unwind$?fin$0@?0???$?RV<lambda_aa87e3671a710a21b5dc78c0bdf72e11>@@AEAV<lambda_92619d2358a28f41a33ba319515a20b9>@@V<lambda_6992ecaafeb10aed2b74cb1fae11a551>@@@?$__crt_seh_guarded_call@X@@QEAAX$$QEAV<lambda_aa87e3671a710a21b5dc78c0bdf72e11>@@AEAV<lambda_92619d2358a28f41a33ba319515a20b9>@@$$QEAV<lambda_6992ecaafeb10aed2b74cb1fae11a551>@@@Z@4HA 000000018003259c     libucrt:per_thread_data.obj
 0002:0000c59c       $unwind$?fin$0@?0???$?RV<lambda_f2e299630e499de9f9a165e60fcd3db5>@@AEAV<lambda_2ae9d31cdba2644fcbeaf08da7c24588>@@V<lambda_40d01ff24d0e7b3814fdbdcee8eab3c7>@@@?$__crt_seh_guarded_call@X@@QEAAX$$QEAV<lambda_f2e299630e499de9f9a165e60fcd3db5>@@AEAV<lambda_2ae9d31cdba2644fcbeaf08da7c24588>@@$$QEAV<lambda_40d01ff24d0e7b3814fdbdcee8eab3c7>@@@Z@4HA 000000018003259c     libucrt:per_thread_data.obj
 0002:0000c59c       $unwind$__acrt_update_thread_locale_data$fin$0 000000018003259c     libucrt:locale_refcounting.obj
 0002:0000c59c       $unwind$?fin$0@?0???$?RV<lambda_410d79af7f07d98d83a3f525b3859a53>@@AEAV<lambda_3e16ef9562a7dcce91392c22ab16ea36>@@V<lambda_38119f0e861e05405d8a144b9b982f0a>@@@?$__crt_seh_guarded_call@X@@QEAAX$$QEAV<lambda_410d79af7f07d98d83a3f525b3859a53>@@AEAV<lambda_3e16ef9562a7dcce91392c22ab16ea36>@@$$QEAV<lambda_38119f0e861e05405d8a144b9b982f0a>@@@Z@4HA 000000018003259c     libucrt:wsetlocale.obj
 0002:0000c59c       $unwind$?fin$0@?0???$?RV<lambda_751a882b2c74d4b022dec766aa51a29a>@@AEAV<lambda_628dfdc04ba53c8bfc02c9951375f3f5>@@V<lambda_f6c7be5f7998530c34de24c7437d6b54>@@@?$__crt_seh_guarded_call@H@@QEAAH$$QEAV<lambda_751a882b2c74d4b022dec766aa51a29a>@@AEAV<lambda_628dfdc04ba53c8bfc02c9951375f3f5>@@$$QEAV<lambda_f6c7be5f7998530c34de24c7437d6b54>@@@Z@4HA 000000018003259c     libucrt:close.obj
 0002:0000c59c       $unwind$?fin$0@?0???$?RV<lambda_a37b2b86f63e897a80ea819b0eb08c01>@@AEAV<lambda_38ce7e780aa69e748d6df282ebc68efe>@@V<lambda_99fb1378e971ab6e7edea83e3a7a83a2>@@@?$__crt_seh_guarded_call@H@@QEAAH$$QEAV<lambda_a37b2b86f63e897a80ea819b0eb08c01>@@AEAV<lambda_38ce7e780aa69e748d6df282ebc68efe>@@$$QEAV<lambda_99fb1378e971ab6e7edea83e3a7a83a2>@@@Z@4HA 000000018003259c     libucrt:commit.obj
 0002:0000c59c       $unwind$__acrt_initialize_lowio$fin$0 000000018003259c     libucrt:ioinit.obj
 0002:0000c59c       $unwind$__acrt_lowio_ensure_fh_exists$fin$0 000000018003259c     libucrt:osfinfo.obj
 0002:0000c59c       $unwind$_write$fin$0       000000018003259c     libucrt:write.obj
 0002:0000c59c       $unwind$?fin$0@?0???$?RV<lambda_efdfa57d1f175319df784efa44bb7b81>@@AEAV<lambda_5f0a4c1567f8adc6734073e5d1e1b35c>@@V<lambda_2e8a7d3640ea6ccb4c2413664c2db6fd>@@@?$__crt_seh_guarded_call@X@@QEAAX$$QEAV<lambda_efdfa57d1f175319df784efa44bb7b81>@@AEAV<lambda_5f0a4c1567f8adc6734073e5d1e1b35c>@@$$QEAV<lambda_2e8a7d3640ea6ccb4c2413664c2db6fd>@@@Z@4HA 000000018003259c     libucrt:mbctype.obj
 0002:0000c59c       $unwind$?fin$0@?0??update_thread_multibyte_data_internal@@YAPEAU__crt_multibyte_data@@QEAU__acrt_ptd@@QEAPEAU1@@Z@4HA 000000018003259c     libucrt:mbctype.obj
 0002:0000c59c       $unwind$?fin$0@?0???$?RV<lambda_450d765d439847d4c735a33c368b5fc0>@@AEAV<lambda_44731a7d0e6d81c3e6aa82d741081786>@@V<lambda_601a2a7da3b7a96e9554ac7215c4b07c>@@@?$__crt_seh_guarded_call@P6AXH@Z@@QEAAP6AXH@Z$$QEAV<lambda_450d765d439847d4c735a33c368b5fc0>@@AEAV<lambda_44731a7d0e6d81c3e6aa82d741081786>@@$$QEAV<lambda_601a2a7da3b7a96e9554ac7215c4b07c>@@@Z@4HA 000000018003259c     libucrt:signal.obj
 0002:0000c59c       $unwind$raise$fin$0        000000018003259c     libucrt:signal.obj
 0002:0000c59c       $unwind$?filt$0@?0???R<lambda_6e4b09c48022b2350581041d5f6b0c4c>@@QEBA@XZ@4HA 000000018003259c     libucrt:exit.obj
 0002:0000c59c       $unwind$?fin$0@?0???$?RV<lambda_d80eeec6fff315bfe5c115232f3240e3>@@AEAV<lambda_6e4b09c48022b2350581041d5f6b0c4c>@@V<lambda_2358e3775559c9db80273638284d5e45>@@@?$__crt_seh_guarded_call@X@@QEAAX$$QEAV<lambda_d80eeec6fff315bfe5c115232f3240e3>@@AEAV<lambda_6e4b09c48022b2350581041d5f6b0c4c>@@$$QEAV<lambda_2358e3775559c9db80273638284d5e45>@@@Z@4HA 000000018003259c     libucrt:exit.obj
 0002:0000c59c       $unwind$?fin$0@?0???$?RV<lambda_638799b9deba96c50f710eeac98168cd>@@AEAV<lambda_22ebabd17bc4fa466a2aca6d8deb888d>@@V<lambda_a6f7d7db0129f75315ebf26d50c089f1>@@@?$__crt_seh_guarded_call@H@@QEAAH$$QEAV<lambda_638799b9deba96c50f710eeac98168cd>@@AEAV<lambda_22ebabd17bc4fa466a2aca6d8deb888d>@@$$QEAV<lambda_a6f7d7db0129f75315ebf26d50c089f1>@@@Z@4HA 000000018003259c     libucrt:onexit.obj
 0002:0000c59c       $unwind$?fin$0@?0???$?RV<lambda_7777bce6b2f8c936911f934f8298dc43>@@AEAV<lambda_f03950bc5685219e0bcd2087efbe011e>@@V<lambda_3883c3dff614d5e0c5f61bb1ac94921c>@@@?$__crt_seh_guarded_call@H@@QEAAH$$QEAV<lambda_7777bce6b2f8c936911f934f8298dc43>@@AEAV<lambda_f03950bc5685219e0bcd2087efbe011e>@@$$QEAV<lambda_3883c3dff614d5e0c5f61bb1ac94921c>@@@Z@4HA 000000018003259c     libucrt:onexit.obj
 0002:0000c59c       $unwind$_fcloseall$fin$0   000000018003259c     libucrt:closeall.obj
 0002:0000c59c       $unwind$fclose$fin$0       000000018003259c     libucrt:fclose.obj
 0002:0000c59c       $unwind$?fin$0@?0???$?RV<lambda_842d9ff0dc9ef11c61343bbaebe7f885>@@AEAV<lambda_c5860995281e5c4ce005b3de8f5874ee>@@V<lambda_d90129c13df834fdcbf8d2b88dafcf2d>@@@?$__crt_seh_guarded_call@X@@QEAAX$$QEAV<lambda_842d9ff0dc9ef11c61343bbaebe7f885>@@AEAV<lambda_c5860995281e5c4ce005b3de8f5874ee>@@$$QEAV<lambda_d90129c13df834fdcbf8d2b88dafcf2d>@@@Z@4HA 000000018003259c     libucrt:fflush.obj
 0002:0000c59c       $unwind$?fin$0@?0???$?RV<lambda_886d6c58226a84441f68b9f2b8217b83>@@AEAV<lambda_ab61a845afdef5b7c387490eaf3616ee>@@V<lambda_f7f22ab5edc0698d5f6905b0d3f44752>@@@?$__crt_seh_guarded_call@X@@QEAAX$$QEAV<lambda_886d6c58226a84441f68b9f2b8217b83>@@AEAV<lambda_ab61a845afdef5b7c387490eaf3616ee>@@$$QEAV<lambda_f7f22ab5edc0698d5f6905b0d3f44752>@@@Z@4HA 000000018003259c     libucrt:fflush.obj
 0002:0000c59c       $unwind$_ctrlfp$filt$0     000000018003259c     libucrt:fpctrl.obj
 0002:0000c59c       $unwind$common_control87$filt$0 000000018003259c     libucrt:ieee.obj
 0002:0000c5a4       $unwind$?AtlInternalOleLoadFromStream@ATL@@YAJPEAUIStream@@AEBU_GUID@@PEAPEAXTClassesAllowedInStream@1@K@Z 00000001800325a4     FiscalPrinter.obj
 0002:0000c5c0       $unwind$?ReadFromStream@CComBSTR@ATL@@QEAAJPEAUIStream@@@Z 00000001800325c0     FiscalPrinter.obj
 0002:0000c5c0       $unwind$_configure_narrow_argv 00000001800325c0     libucrt:argv_parsing.obj
 0002:0000c5d4       $unwind$?WriteToStream@CComVariant@ATL@@QEAAJPEAUIStream@@@Z 00000001800325d4     FiscalPrinter.obj
 0002:0000c5e8       $unwind$?RegOpenKeyExW@CAtlTransactionManager@ATL@@QEAAJPEAUHKEY__@@PEB_WKKPEAPEAU3@@Z 00000001800325e8     FiscalPrinter.obj
 0002:0000c5e8       $unwind$?WriteToStream@CComVariant@ATL@@QEAAJPEAUIStream@@G@Z 00000001800325e8     FiscalPrinter.obj
 0002:0000c5e8       $unwind$__dcrt_write_console 00000001800325e8     libucrt:initcon.obj
 0002:0000c5e8       $unwind$??$__acrt_wcs_to_mbs_cp@U__crt_win32_buffer_no_resizing@@@@YAHQEB_WAEAV?$__crt_win32_buffer@DU__crt_win32_buffer_no_resizing@@@@I@Z 00000001800325e8     libucrt:getmodulefilenamea.obj
 0002:0000c5fc       $unwind$?ReadFromStream@CComVariant@ATL@@QEAAJPEAUIStream@@GTClassesAllowedInStream@2@K@Z 00000001800325fc     FiscalPrinter.obj
 0002:0000c614       $unwind$?GetSizeMax@CComVariant@ATL@@QEBAJPEAT_ULARGE_INTEGER@@@Z 0000000180032614     FiscalPrinter.obj
 0002:0000c62c       $unwind$?RegCreateKeyExW@CAtlTransactionManager@ATL@@QEAAJPEAUHKEY__@@PEB_WKPEA_WKKQEAU_SECURITY_ATTRIBUTES@@PEAPEAU3@PEAK@Z 000000018003262c     FiscalPrinter.obj
 0002:0000c640       $unwind$?GetGITPtr@CAtlModule@ATL@@UEAAJPEAPEAUIGlobalInterfaceTable@@@Z 0000000180032640     FiscalPrinter.obj
 0002:0000c640       $unwind$?RegDeleteKeyW@CAtlTransactionManager@ATL@@QEAAJPEAUHKEY__@@PEB_W@Z 0000000180032640     FiscalPrinter.obj
 0002:0000c640       $unwind$?getStateFromIterators@UWMap4@FH4@@SAHAEBViterator@12@H0H0@Z 0000000180032640     libvcruntime:frame.obj
 0002:0000c650       $unwind$?AtlHiMetricToPixel@ATL@@YAXPEBUtagSIZE@@PEAU2@@Z 0000000180032650     FiscalPrinter.obj
 0002:0000c650       $unwind$?AtlInternalQueryInterface@ATL@@YAJPEAXPEBU_ATL_INTMAP_ENTRY@1@AEBU_GUID@@PEAPEAX@Z 0000000180032650     FiscalPrinter.obj
 0002:0000c668       $unwind$?Append@CParseBuffer@CRegParser@ATL@@QEAAHPEB_WH@Z 0000000180032668     FiscalPrinter.obj
 0002:0000c668       $unwind$?AtlComModuleGetClassObject@ATL@@YAJPEAU_ATL_COM_MODULE70@1@AEBU_GUID@@1PEAPEAX@Z 0000000180032668     FiscalPrinter.obj
 0002:0000c668       $unwind$?EnumConnections@?$IConnectionPointImpl@VCOPOSFiscalPrinter@@$1?DIID__IOPOSFiscalPrinterEvents@@3U_GUID@@BVCComDynamicUnkArray@ATL@@@ATL@@UEAAJPEAPEAUIEnumConnections@@@Z 0000000180032668     FiscalPrinter.obj
 0002:0000c668       $unwind$?EnumConnections@?$IConnectionPointImpl@VCOPOSFiscalPrinter@@$1?IID_IPropertyNotifySink@@3U_GUID@@BVCComDynamicUnkArray@ATL@@@ATL@@UEAAJPEAPEAUIEnumConnections@@@Z 0000000180032668     FiscalPrinter.obj
 0002:0000c668       $unwind$?GetClassObject@CComModule@ATL@@QEAAJAEBU_GUID@@0PEAPEAX@Z 0000000180032668     FiscalPrinter.obj
 0002:0000c668       $unwind$?Init@?$CComEnumImpl@UIEnumConnectionPoints@@$1?_GUID_b196b285_bab4_101a_b69c_00aa00341d07@@3U__s_GUID@@BPEAUIConnectionPoint@@V?$_CopyInterface@UIConnectionPoint@@@ATL@@@ATL@@QEAAJPEAPEAUIConnectionPoint@@0PEAUIUnknown@@W4CComEnumFlags@2@@Z 0000000180032668     FiscalPrinter.obj
 0002:0000c668       $unwind$?Init@?$CComEnumImpl@UIEnumConnections@@$1?_GUID_b196b287_bab4_101a_b69c_00aa00341d07@@3U__s_GUID@@BUtagCONNECTDATA@@V?$_Copy@UtagCONNECTDATA@@@ATL@@@ATL@@QEAAJPEAUtagCONNECTDATA@@0PEAUIUnknown@@W4CComEnumFlags@2@@Z 0000000180032668     FiscalPrinter.obj
 0002:0000c668       $unwind$?NextToken@CRegParser@ATL@@IEAAJPEA_W@Z 0000000180032668     FiscalPrinter.obj
 0002:0000c668       $unwind$__acrt_fp_strflt_to_string 0000000180032668     libucrt:_fptostr.obj
 0002:0000c668       $unwind$__acrt_DownlevelLocaleNameToLCID 0000000180032668     libucrt:lcidtoname_downlevel.obj
 0002:0000c668       $unwind$??R<lambda_f03950bc5685219e0bcd2087efbe011e>@@QEBAHXZ 0000000180032668     libucrt:onexit.obj
 0002:0000c680       $unwind$?AtlRegisterClassCategoriesHelper@ATL@@YAJAEBU_GUID@@PEBU_ATL_CATMAP_ENTRY@1@H@Z 0000000180032680     FiscalPrinter.obj
 0002:0000c6a4       $unwind$?AtlLoadTypeLib@ATL@@YAJPEAUHINSTANCE__@@PEB_WPEAPEA_WPEAPEAUITypeLib@@@Z 00000001800326a4     FiscalPrinter.obj
 0002:0000c6c4       $unwind$?AtlRegisterTypeLib@ATL@@YAJPEAUHINSTANCE__@@PEB_W@Z 00000001800326c4     FiscalPrinter.obj
 0002:0000c6e0       $unwind$?AtlUnRegisterTypeLib@ATL@@YAJPEAUHINSTANCE__@@PEB_W@Z 00000001800326e0     FiscalPrinter.obj
 0002:0000c6e8       $unwind$?GetTI@CComTypeInfoHolder@ATL@@QEAAJK@Z 00000001800326e8     FiscalPrinter.obj
 0002:0000c6e8       $unwind$?RecurseDeleteKey@CRegKey@ATL@@QEAAJPEB_W@Z 00000001800326e8     FiscalPrinter.obj
 0002:0000c708       $unwind$?UpdateRegistryFromResource@CAtlModule@ATL@@QEAAJIHPEAU_ATL_REGMAP_ENTRY@2@@Z 0000000180032708     FiscalPrinter.obj
 0002:0000c708       $unwind$?UpdateRegistryFromResource@CAtlModule@ATL@@QEAAJPEB_WHPEAU_ATL_REGMAP_ENTRY@2@@Z 0000000180032708     FiscalPrinter.obj
 0002:0000c728       $unwind$?Lookup@?$CSimpleMap@PEA_WPEA_WVCExpansionVectorEqualHelper@ATL@@@ATL@@QEBAPEA_WAEBQEA_W@Z 0000000180032728     FiscalPrinter.obj
 0002:0000c728       $unwind$__std_exception_copy 0000000180032728     libvcruntime:std_exception.obj
 0002:0000c728       $unwind$_free_osfhnd       0000000180032728     libucrt:osfinfo.obj
 0002:0000c73c       $unwind$?Add@CExpansionVector@ATL@@QEAAHPEB_W0@Z 000000018003273c     FiscalPrinter.obj
 0002:0000c754       $unwind$?PreProcessBuffer@CRegParser@ATL@@QEAAJPEA_WPEAPEA_W@Z 0000000180032754     FiscalPrinter.obj
 0002:0000c778       $unwind$?RegisterBuffer@CRegParser@ATL@@QEAAJPEA_WH@Z 0000000180032778     FiscalPrinter.obj
 0002:0000c798       $unwind$?AddValue@CRegParser@ATL@@IEAAJAEAVCRegKey@2@PEB_WPEA_W@Z 0000000180032798     FiscalPrinter.obj
 0002:0000c7b8       $unwind$?RegisterSubkeys@CRegParser@ATL@@IEAAJPEA_WPEAUHKEY__@@HH@Z 00000001800327b8     FiscalPrinter.obj
 0002:0000c7d8       $unwind$?SkipAssignment@CRegParser@ATL@@IEAAJPEA_W@Z 00000001800327d8     FiscalPrinter.obj
 0002:0000c7f0       $unwind$?RegisterFromResource@CRegObject@ATL@@IEAAJPEB_W00H@Z 00000001800327f0     FiscalPrinter.obj
 0002:0000c810       $unwind$?Cleanup@CComTypeInfoHolder@ATL@@SAX_K@Z 0000000180032810     FiscalPrinter.obj
 0002:0000c810       $unwind$AtlThunk_FreeData  0000000180032810     atls:atlthunk.obj
 0002:0000c810       $unwind$_free_base         0000000180032810     libucrt:free_base.obj
 0002:0000c810       $unwind$?destroy_fls@@YAXPEAX@Z 0000000180032810     libucrt:per_thread_data.obj
 0002:0000c810       $unwind$__acrt_locale_free_numeric 0000000180032810     libucrt:initnum.obj
 0002:0000c810       $unwind$__acrt_locale_free_lc_time_if_unreferenced 0000000180032810     libucrt:locale_refcounting.obj
 0002:0000c818       $unwind$?GetIDsOfNames@CComTypeInfoHolder@ATL@@QEAAJAEBU_GUID@@PEAPEA_WIKPEAJ@Z 0000000180032818     FiscalPrinter.obj
 0002:0000c834       $unwind$?LoadNameCache@CComTypeInfoHolder@ATL@@QEAAJPEAUITypeInfo@@@Z 0000000180032834     FiscalPrinter.obj
 0002:0000c848       $unwind$?StartWindowProc@?$CWindowImplBaseT@VCWindow@ATL@@V?$CWinTraits@$0FGAAAAAA@$0A@@2@@ATL@@SA_JPEAUHWND__@@I_K_J@Z 0000000180032848     FiscalPrinter.obj
 0002:0000c848       $unwind$?should_round_up@@YA_NQEBN_KFW4__acrt_rounding_mode@@@Z 0000000180032848     libucrt:cvt.obj
 0002:0000c848       $unwind$??$parse_command_line@D@@YAXPEADPEAPEAD0PEA_K2@Z 0000000180032848     libucrt:argv_parsing.obj
 0002:0000c864       $unwind$?WindowProc@?$CWindowImplBaseT@VCWindow@ATL@@V?$CWinTraits@$0FGAAAAAA@$0A@@2@@ATL@@SA_JPEAUHWND__@@I_K_J@Z 0000000180032864     FiscalPrinter.obj
 0002:0000c87c       $unwind$?atlCreate@?$CWindowImplBaseT@VCWindow@ATL@@V?$CWinTraits@$0FGAAAAAA@$0A@@2@@ATL@@QEAAPEAUHWND__@@PEAU3@V_U_RECT@2@PEB_WKKV_U_MENUorID@2@GPEAX@Z 000000018003287c     FiscalPrinter.obj
 0002:0000c894       $unwind$??$AtlModuleRegisterWndClassInfoT@VAtlModuleRegisterWndClassInfoParamW@ATL@@@ATL@@YAGPEAU_ATL_BASE_MODULE70@0@PEAU_ATL_WIN_MODULE70@0@PEAU_ATL_WNDCLASSINFOW@0@PEAP6A_JPEAUHWND__@@I_K_J@ZVAtlModuleRegisterWndClassInfoParamW@0@@Z 0000000180032894     FiscalPrinter.obj
 0002:0000c8b4       $unwind$?GetZoomInfo@CComControlBase@ATL@@QEAAXAEAUATL_DRAWINFO@@@Z 00000001800328b4     FiscalPrinter.obj
 0002:0000c8b4       $unwind$?OnKillFocus@CComControlBase@ATL@@QEAA_JI_K_JAEAH@Z 00000001800328b4     FiscalPrinter.obj
 0002:0000c8b4       $unwind$iswctype           00000001800328b4     libucrt:iswctype.obj
 0002:0000c8c0       $unwind$?SendOnDataChange@CComControlBase@ATL@@QEAAJK@Z 00000001800328c0     FiscalPrinter.obj
 0002:0000c8d0       $unwind$?OnSetFocus@CComControlBase@ATL@@QEAA_JI_K_JAEAH@Z 00000001800328d0     FiscalPrinter.obj
 0002:0000c8e0       $unwind$?OnMouseActivate@CComControlBase@ATL@@QEAA_JI_K_JAEAH@Z 00000001800328e0     FiscalPrinter.obj
 0002:0000c8e8       $unwind$?GetAmbientLocaleID@CComControlBase@ATL@@QEAAJAEAK@Z 00000001800328e8     FiscalPrinter.obj
 0002:0000c8e8       $unwind$?GetAmbientUserMode@CComControlBase@ATL@@QEAAJAEAH@Z 00000001800328e8     FiscalPrinter.obj
 0002:0000c8f8       $unwind$?IQuickActivate_QuickActivate@CComControlBase@ATL@@QEAAJPEAUtagQACONTAINER@@PEAUtagQACONTROL@@@Z 00000001800328f8     FiscalPrinter.obj
 0002:0000c910       $unwind$?DoVerbProperties@CComControlBase@ATL@@QEAAJPEBUtagRECT@@PEAUHWND__@@@Z 0000000180032910     FiscalPrinter.obj
 0002:0000c928       $unwind$?InPlaceActivate@CComControlBase@ATL@@QEAAJJPEBUtagRECT@@@Z 0000000180032928     FiscalPrinter.obj
 0002:0000c948       $unwind$?IOleObject_Close@CComControlBase@ATL@@QEAAJK@Z 0000000180032948     FiscalPrinter.obj
 0002:0000c948       $unwind$?type_case_c_tchar@?$output_processor@_WV?$string_output_adapter@_W@__crt_stdio_output@@V?$format_validation_base@_WV?$string_output_adapter@_W@__crt_stdio_output@@@2@@__crt_stdio_output@@AEAA_N_W@Z 0000000180032948     libucrt:output.obj
 0002:0000c958       $unwind$?IOleInPlaceObject_UIDeactivate@CComControlBase@ATL@@QEAAJXZ 0000000180032958     FiscalPrinter.obj
 0002:0000c970       $unwind$?IOleInPlaceObject_SetObjectRects@CComControlBase@ATL@@QEAAJPEBUtagRECT@@0@Z 0000000180032970     FiscalPrinter.obj
 0002:0000c984       $unwind$?IViewObject_Draw@CComControlBase@ATL@@QEAAJKJPEAXPEAUtagDVTARGETDEVICE@@PEAUHDC__@@2PEBU_RECTL@@3@Z 0000000180032984     FiscalPrinter.obj
 0002:0000c9a0       $unwind$?IDataObject_GetData@CComControlBase@ATL@@QEAAJPEAUtagFORMATETC@@PEAUtagSTGMEDIUM@@@Z 00000001800329a0     FiscalPrinter.obj
 0002:0000c9c0       $unwind$?OnPaint@CComControlBase@ATL@@QEAA_JI_K_JAEAH@Z 00000001800329c0     FiscalPrinter.obj
 0002:0000c9dc       $unwind$?OnDrawAdvanced@CComControlBase@ATL@@UEAAJAEAUATL_DRAWINFO@@@Z 00000001800329dc     FiscalPrinter.obj
 0002:0000c9f8       $unwind$?Invoke@?$IDispatchImpl@UIOPOSFiscalPrinter@@$1?IID_IOPOSFiscalPrinter@@3U_GUID@@B$1?LIBID_OposFiscalPrinter_CCO@@3U3@B$00$0A@VCComTypeInfoHolder@ATL@@@ATL@@UEAAJJAEBU_GUID@@KGPEAUtagDISPPARAMS@@PEAUtagVARIANT@@PEAUtagEXCEPINFO@@PEAI@Z 00000001800329f8     FiscalPrinter.obj
 0002:0000c9f8       $unwind$?ReleaseDevice@COPOSFiscalPrinter@@UEAAJPEAJ@Z 00000001800329f8     FiscalPrinterImpl.obj
 0002:0000c9f8       $unwind$_mbsdec_l          00000001800329f8     libucrt:mbsdec.obj
 0002:0000ca04       $unwind$?atlCreate@?$CWindowImpl@VCOPOSFiscalPrinter@@VCWindow@ATL@@V?$CWinTraits@$0FGAAAAAA@$0A@@3@@ATL@@QEAAPEAUHWND__@@PEAU3@V_U_RECT@2@PEB_WKKV_U_MENUorID@2@PEAX@Z 0000000180032a04     FiscalPrinter.obj
 0002:0000ca04       $unwind$?fp_format_e@@YAHQEBNQEAD_K12H_NIQEAU__crt_locale_pointers@@W4__acrt_rounding_mode@@@Z 0000000180032a04     libucrt:cvt.obj
 0002:0000ca04       $unwind$_mbtowc_l          0000000180032a04     libucrt:mbtowc.obj
 0002:0000ca04       $unwind$__acrt_LCMapStringEx 0000000180032a04     libucrt:winapi_thunks.obj
 0002:0000ca18       $unwind$?CreateControlWindow@?$CComControl@VCOPOSFiscalPrinter@@V?$CWindowImpl@VCOPOSFiscalPrinter@@VCWindow@ATL@@V?$CWinTraits@$0FGAAAAAA@$0A@@3@@ATL@@@ATL@@UEAAPEAUHWND__@@PEAU3@AEAUtagRECT@@@Z 0000000180032a18     FiscalPrinter.obj
 0002:0000ca18       $unwind$?BeginNonFiscal@COPOSFiscalPrinter@@UEAAJPEAJ@Z 0000000180032a18     FiscalPrinterImpl.obj
 0002:0000ca18       $unwind$?BeginTraining@COPOSFiscalPrinter@@UEAAJPEAJ@Z 0000000180032a18     FiscalPrinterImpl.obj
 0002:0000ca18       $unwind$?ClearError@COPOSFiscalPrinter@@UEAAJPEAJ@Z 0000000180032a18     FiscalPrinterImpl.obj
 0002:0000ca18       $unwind$?ClearOutput@COPOSFiscalPrinter@@UEAAJPEAJ@Z 0000000180032a18     FiscalPrinterImpl.obj
 0002:0000ca18       $unwind$?EndFiscalDocument@COPOSFiscalPrinter@@UEAAJPEAJ@Z 0000000180032a18     FiscalPrinterImpl.obj
 0002:0000ca18       $unwind$?EndFixedOutput@COPOSFiscalPrinter@@UEAAJPEAJ@Z 0000000180032a18     FiscalPrinterImpl.obj
 0002:0000ca18       $unwind$?EndInsertion@COPOSFiscalPrinter@@UEAAJPEAJ@Z 0000000180032a18     FiscalPrinterImpl.obj
 0002:0000ca18       $unwind$?EndItemList@COPOSFiscalPrinter@@UEAAJPEAJ@Z 0000000180032a18     FiscalPrinterImpl.obj
 0002:0000ca18       $unwind$?EndNonFiscal@COPOSFiscalPrinter@@UEAAJPEAJ@Z 0000000180032a18     FiscalPrinterImpl.obj
 0002:0000ca18       $unwind$?EndRemoval@COPOSFiscalPrinter@@UEAAJPEAJ@Z 0000000180032a18     FiscalPrinterImpl.obj
 0002:0000ca18       $unwind$?EndTraining@COPOSFiscalPrinter@@UEAAJPEAJ@Z 0000000180032a18     FiscalPrinterImpl.obj
 0002:0000ca18       $unwind$?PrintDuplicateReceipt@COPOSFiscalPrinter@@UEAAJPEAJ@Z 0000000180032a18     FiscalPrinterImpl.obj
 0002:0000ca18       $unwind$?PrintPowerLossReport@COPOSFiscalPrinter@@UEAAJPEAJ@Z 0000000180032a18     FiscalPrinterImpl.obj
 0002:0000ca18       $unwind$?PrintXReport@COPOSFiscalPrinter@@UEAAJPEAJ@Z 0000000180032a18     FiscalPrinterImpl.obj
 0002:0000ca18       $unwind$?PrintZReport@COPOSFiscalPrinter@@UEAAJPEAJ@Z 0000000180032a18     FiscalPrinterImpl.obj
 0002:0000ca18       $unwind$?ResetPrinterW@COPOSFiscalPrinter@@UEAAJPEAJ@Z 0000000180032a18     FiscalPrinterImpl.obj
 0002:0000ca18       $unwind$?SetVatTable@COPOSFiscalPrinter@@UEAAJPEAJ@Z 0000000180032a18     FiscalPrinterImpl.obj
 0002:0000ca18       $unwind$?__scrt_throw_std_bad_alloc@@YAXXZ 0000000180032a18     LIBCMT:throw_bad_alloc.obj
 0002:0000ca18       $unwind$?__scrt_throw_std_bad_array_new_length@@YAXXZ 0000000180032a18     LIBCMT:throw_bad_alloc.obj
 0002:0000ca18       $unwind$_raise_exc         0000000180032a18     libucrt:fpexcept.obj
 0002:0000ca20       $unwind$?GetSizeMax@?$IPersistStreamInitImpl@VCOPOSFiscalPrinter@@@ATL@@UEAAJPEAT_ULARGE_INTEGER@@@Z 0000000180032a20     FiscalPrinter.obj
 0002:0000ca38       $unwind$?IPersistStreamInit_Load@?$IPersistStreamInitImpl@VCOPOSFiscalPrinter@@@ATL@@QEAAJPEAUIStream@@PEBUATL_PROPMAP_ENTRY@2@@Z 0000000180032a38     FiscalPrinter.obj
 0002:0000ca54       $unwind$?IPersistStreamInit_Save@?$IPersistStreamInitImpl@VCOPOSFiscalPrinter@@@ATL@@QEAAJPEAUIStream@@HPEBUATL_PROPMAP_ENTRY@2@@Z 0000000180032a54     FiscalPrinter.obj
 0002:0000ca70       $unwind$?DoVerbPrimary@?$IOleObjectImpl@VCOPOSFiscalPrinter@@@ATL@@QEAAJPEBUtagRECT@@PEAUHWND__@@@Z 0000000180032a70     FiscalPrinter.obj
 0002:0000ca70       $unwind$?BeginFixedOutput@COPOSFiscalPrinter@@UEAAJJJPEAJ@Z 0000000180032a70     FiscalPrinterImpl.obj
 0002:0000ca70       $unwind$?PrintRecSubtotalAdjustVoid@COPOSFiscalPrinter@@UEAAJJTtagCY@@PEAJ@Z 0000000180032a70     FiscalPrinterImpl.obj
 0002:0000ca88       $unwind$?TranslateAcceleratorW@?$IOleInPlaceActiveObjectImpl@VCOPOSFiscalPrinter@@@ATL@@UEAAJPEAUtagMSG@@@Z 0000000180032a88     FiscalPrinter.obj
 0002:0000ca94       $unwind$?Draw@?$IViewObjectExImpl@VCOPOSFiscalPrinter@@@ATL@@UEAAJKJPEAXPEAUtagDVTARGETDEVICE@@PEAUHDC__@@2PEBU_RECTL@@3P6AH_K@Z4@Z 0000000180032a94     FiscalPrinter.obj
 0002:0000ca9c       $unwind$?QueryHitRect@?$IViewObjectExImpl@VCOPOSFiscalPrinter@@@ATL@@UEAAJKPEBUtagRECT@@0JPEAK@Z 0000000180032a9c     FiscalPrinter.obj
 0002:0000caac       $unwind$?OnWindowMessage@?$IOleInPlaceObjectWindowlessImpl@VCOPOSFiscalPrinter@@@ATL@@UEAAJI_K_JPEA_J@Z 0000000180032aac     FiscalPrinter.obj
 0002:0000cac0       $unwind$?EnumConnectionPoints@?$IConnectionPointContainerImpl@VCOPOSFiscalPrinter@@@ATL@@UEAAJPEAPEAUIEnumConnectionPoints@@@Z 0000000180032ac0     FiscalPrinter.obj
 0002:0000cae8       $unwind$?FindConnectionPoint@?$IConnectionPointContainerImpl@VCOPOSFiscalPrinter@@@ATL@@UEAAJAEBU_GUID@@PEAPEAUIConnectionPoint@@@Z 0000000180032ae8     FiscalPrinter.obj
 0002:0000cae8       $unwind$?__mbrtoc32_utf8@__crt_mbstring@@YA_KPEA_UPEBD_KPEAU_Mbstatet@@@Z 0000000180032ae8     libucrt:mbrtoc32.obj
 0002:0000cb04       $unwind$?Load@?$IPersistStorageImpl@VCOPOSFiscalPrinter@@@ATL@@UEAAJPEAUIStorage@@@Z 0000000180032b04     FiscalPrinter.obj
 0002:0000cb14       $unwind$?Save@?$IPersistStorageImpl@VCOPOSFiscalPrinter@@@ATL@@UEAAJPEAUIStorage@@H@Z 0000000180032b14     FiscalPrinter.obj
 0002:0000cb28       $unwind$?IPSI_GetIPersistStreamInit@?$IPersistStorageImpl@VCOPOSFiscalPrinter@@@ATL@@AEAAPEAUIPersistStreamInit@@XZ 0000000180032b28     FiscalPrinter.obj
 0002:0000cb28       $unwind$?parse_int_from_format_string@?$output_processor@_WV?$string_output_adapter@_W@__crt_stdio_output@@V?$format_validation_base@_WV?$string_output_adapter@_W@__crt_stdio_output@@@2@@__crt_stdio_output@@AEAA_NQEAH@Z 0000000180032b28     libucrt:output.obj
 0002:0000cb3c       $unwind$?GetInterfaceSafetyOptions@?$IObjectSafetyImpl@VCOPOSFiscalPrinter@@$02@ATL@@UEAAJAEBU_GUID@@PEAK1@Z 0000000180032b3c     FiscalPrinter.obj
 0002:0000cb50       $unwind$?SetInterfaceSafetyOptions@?$IObjectSafetyImpl@VCOPOSFiscalPrinter@@$02@ATL@@UEAAJAEBU_GUID@@KK@Z 0000000180032b50     FiscalPrinter.obj
 0002:0000cb64       $unwind$?Advise@?$IConnectionPointImpl@VCOPOSFiscalPrinter@@$1?DIID__IOPOSFiscalPrinterEvents@@3U_GUID@@BVCComDynamicUnkArray@ATL@@@ATL@@UEAAJPEAUIUnknown@@PEAK@Z 0000000180032b64     FiscalPrinter.obj
 0002:0000cb64       $unwind$?Advise@?$IConnectionPointImpl@VCOPOSFiscalPrinter@@$1?IID_IPropertyNotifySink@@3U_GUID@@BVCComDynamicUnkArray@ATL@@@ATL@@UEAAJPEAUIUnknown@@PEAK@Z 0000000180032b64     FiscalPrinter.obj
 0002:0000cb78       $unwind$?Fire_DirectIOEvent@?$CProxy_IOPOSEvents@VCOPOSFiscalPrinter@@@@QEAAXJPEAJPEAPEA_W@Z 0000000180032b78     FiscalPrinter.obj
 0002:0000cb98       $unwind$?Fire_ErrorEvent@?$CProxy_IOPOSEvents@VCOPOSFiscalPrinter@@@@QEAAXJJJPEAJ@Z 0000000180032b98     FiscalPrinter.obj
 0002:0000cbb8       $unwind$?Fire_OutputCompleteEvent@?$CProxy_IOPOSEvents@VCOPOSFiscalPrinter@@@@QEAAXJ@Z 0000000180032bb8     FiscalPrinter.obj
 0002:0000cbb8       $unwind$?Fire_StatusUpdateEvent@?$CProxy_IOPOSEvents@VCOPOSFiscalPrinter@@@@QEAAXJ@Z 0000000180032bb8     FiscalPrinter.obj
 0002:0000cbd0       $unwind$?FireTheEvent@?$CProxy_IOPOSEvents@VCOPOSFiscalPrinter@@@@IEAAXPEAVOposVariant@@IAEAJPEB_WJ@Z 0000000180032bd0     FiscalPrinter.obj
 0002:0000cbe0       $unwind$?ProcessWindowMessage@COPOSFiscalPrinter@@UEAAHPEAUHWND__@@I_K_JAEA_JK@Z 0000000180032be0     FiscalPrinter.obj
 0002:0000cbe0       $unwind$__dcrt_get_narrow_environment_from_os 0000000180032be0     libucrt:get_environment_from_os.obj
 0002:0000cbe0       $unwind$?fp_format_f_internal@@YAHQEAD_KHQEAU_strflt@@_NQEAU__crt_locale_pointers@@@Z 0000000180032be0     libucrt:cvt.obj
 0002:0000cbe0       $unwind$??$__acrt_wcs_to_mbs_cp@U__crt_win32_buffer_internal_dynamic_resizing@@@@YAHQEB_WAEAV?$__crt_win32_buffer@DU__crt_win32_buffer_internal_dynamic_resizing@@@@I@Z 0000000180032be0     libucrt:argv_wildcards.obj
 0002:0000cbf8       $unwind$?SOError@COPOSFiscalPrinter@@MEAAJJJJPEAJ@Z 0000000180032bf8     FiscalPrinter.obj
 0002:0000cbf8       $unwind$_invalid_parameter 0000000180032bf8     libucrt:invalid_parameter.obj
 0002:0000cc0c       $unwind$?Clone@?$CComEnumImpl@UIEnumConnectionPoints@@$1?_GUID_b196b285_bab4_101a_b69c_00aa00341d07@@3U__s_GUID@@BPEAUIConnectionPoint@@V?$_CopyInterface@UIConnectionPoint@@@ATL@@@ATL@@UEAAJPEAPEAUIEnumConnectionPoints@@@Z 0000000180032c0c     FiscalPrinter.obj
 0002:0000cc0c       $unwind$?Clone@?$CComEnumImpl@UIEnumConnections@@$1?_GUID_b196b287_bab4_101a_b69c_00aa00341d07@@3U__s_GUID@@BUtagCONNECTDATA@@V?$_Copy@UtagCONNECTDATA@@@ATL@@@ATL@@UEAAJPEAPEAUIEnumConnections@@@Z 0000000180032c0c     FiscalPrinter.obj
 0002:0000cc24       $unwind$?GetOposProp@COPOSFiscalPrinter@@IEAAJJPEAJJ@Z 0000000180032c24     FiscalPrinterImpl.obj
 0002:0000cc24       $unwind$?GetOposProp@COPOSFiscalPrinter@@IEAAJJPEAPEA_WJ@Z 0000000180032c24     FiscalPrinterImpl.obj
 0002:0000cc3c       $unwind$?SetOposProp@COPOSFiscalPrinter@@IEAAJJJJ@Z 0000000180032c3c     FiscalPrinterImpl.obj
 0002:0000cc5c       $unwind$?SetOposProp@COPOSFiscalPrinter@@IEAAJJPEA_WJ@Z 0000000180032c5c     FiscalPrinterImpl.obj
 0002:0000cc78       $unwind$?DoInvoke@COPOSFiscalPrinter@@IEAAJJPEAVOposVariant@@IHPEAJ_N@Z 0000000180032c78     FiscalPrinterImpl.obj
 0002:0000cc90       $unwind$?SetCOFreezeEvents@COPOSFiscalPrinter@@IEAAXF@Z 0000000180032c90     FiscalPrinterImpl.obj
 0002:0000cca4       $unwind$?OnDraw@COPOSFiscalPrinter@@MEAAJAEAUATL_DRAWINFO@@@Z 0000000180032ca4     FiscalPrinterImpl.obj
 0002:0000ccbc       $unwind$?EventInit@COPOSFiscalPrinter@@IEAAJXZ 0000000180032cbc     FiscalPrinterImpl.obj
 0002:0000ccd0       $unwind$?EventWindowProc@COPOSFiscalPrinter@@IEAA_JI_K_J@Z 0000000180032cd0     FiscalPrinterImpl.obj
 0002:0000ccd0       $unwind$__stdio_common_vswprintf_s 0000000180032cd0     libucrt:output.obj
 0002:0000ccdc       $unwind$?get_ControlObjectDescription@COPOSFiscalPrinter@@UEAAJPEAPEA_W@Z 0000000180032cdc     FiscalPrinterImpl.obj
 0002:0000ccdc       $unwind$__dcrt_lowio_ensure_console_output_initialized 0000000180032cdc     libucrt:initcon.obj
 0002:0000ccdc       $unwind$_isleadbyte_l      0000000180032cdc     libucrt:_wctype.obj
 0002:0000ccdc       $unwind$?getSystemCP@@YAHH@Z 0000000180032cdc     libucrt:mbctype.obj
 0002:0000cce4       $unwind$?BeginFiscalDocument@COPOSFiscalPrinter@@UEAAJJPEAJ@Z 0000000180032ce4     FiscalPrinterImpl.obj
 0002:0000cce4       $unwind$?BeginFiscalReceipt@COPOSFiscalPrinter@@UEAAJFPEAJ@Z 0000000180032ce4     FiscalPrinterImpl.obj
 0002:0000cce4       $unwind$?BeginInsertion@COPOSFiscalPrinter@@UEAAJJPEAJ@Z 0000000180032ce4     FiscalPrinterImpl.obj
 0002:0000cce4       $unwind$?BeginItemList@COPOSFiscalPrinter@@UEAAJJPEAJ@Z 0000000180032ce4     FiscalPrinterImpl.obj
 0002:0000cce4       $unwind$?BeginRemoval@COPOSFiscalPrinter@@UEAAJJPEAJ@Z 0000000180032ce4     FiscalPrinterImpl.obj
 0002:0000cce4       $unwind$?CheckHealth@COPOSFiscalPrinter@@UEAAJJPEAJ@Z 0000000180032ce4     FiscalPrinterImpl.obj
 0002:0000cce4       $unwind$?EndFiscalReceipt@COPOSFiscalPrinter@@UEAAJFPEAJ@Z 0000000180032ce4     FiscalPrinterImpl.obj
 0002:0000cce4       $unwind$?GetDate@COPOSFiscalPrinter@@UEAAJPEAPEA_WPEAJ@Z 0000000180032ce4     FiscalPrinterImpl.obj
 0002:0000cce4       $unwind$?PrintFiscalDocumentLine@COPOSFiscalPrinter@@UEAAJPEA_WPEAJ@Z 0000000180032ce4     FiscalPrinterImpl.obj
 0002:0000cce4       $unwind$?PrintRecCash@COPOSFiscalPrinter@@UEAAJTtagCY@@PEAJ@Z 0000000180032ce4     FiscalPrinterImpl.obj
 0002:0000cce4       $unwind$?PrintRecMessage@COPOSFiscalPrinter@@UEAAJPEA_WPEAJ@Z 0000000180032ce4     FiscalPrinterImpl.obj
 0002:0000cce4       $unwind$?PrintRecSubtotal@COPOSFiscalPrinter@@UEAAJTtagCY@@PEAJ@Z 0000000180032ce4     FiscalPrinterImpl.obj
 0002:0000cce4       $unwind$?PrintRecTaxID@COPOSFiscalPrinter@@UEAAJPEA_WPEAJ@Z 0000000180032ce4     FiscalPrinterImpl.obj
 0002:0000cce4       $unwind$?PrintRecVoid@COPOSFiscalPrinter@@UEAAJPEA_WPEAJ@Z 0000000180032ce4     FiscalPrinterImpl.obj
 0002:0000cce4       $unwind$?ResetStatistics@COPOSFiscalPrinter@@UEAAJPEA_WPEAJ@Z 0000000180032ce4     FiscalPrinterImpl.obj
 0002:0000cce4       $unwind$?RetrieveStatistics@COPOSFiscalPrinter@@UEAAJPEAPEA_WPEAJ@Z 0000000180032ce4     FiscalPrinterImpl.obj
 0002:0000cce4       $unwind$?SetCurrency@COPOSFiscalPrinter@@UEAAJJPEAJ@Z 0000000180032ce4     FiscalPrinterImpl.obj
 0002:0000cce4       $unwind$?SetDate@COPOSFiscalPrinter@@UEAAJPEA_WPEAJ@Z 0000000180032ce4     FiscalPrinterImpl.obj
 0002:0000cce4       $unwind$?SetStoreFiscalID@COPOSFiscalPrinter@@UEAAJPEA_WPEAJ@Z 0000000180032ce4     FiscalPrinterImpl.obj
 0002:0000cce4       $unwind$?UpdateFirmware@COPOSFiscalPrinter@@UEAAJPEA_WPEAJ@Z 0000000180032ce4     FiscalPrinterImpl.obj
 0002:0000cce4       $unwind$?UpdateStatistics@COPOSFiscalPrinter@@UEAAJPEA_WPEAJ@Z 0000000180032ce4     FiscalPrinterImpl.obj
 0002:0000ccf4       $unwind$?ClaimDevice@COPOSFiscalPrinter@@UEAAJJPEAJ@Z 0000000180032cf4     FiscalPrinterImpl.obj
 0002:0000cd04       $unwind$?Close@COPOSFiscalPrinter@@UEAAJPEAJ@Z 0000000180032d04     FiscalPrinterImpl.obj
 0002:0000cd10       $unwind$?DirectIO@COPOSFiscalPrinter@@UEAAJJPEAJPEAPEA_W0@Z 0000000180032d10     FiscalPrinterImpl.obj
 0002:0000cd10       $unwind$?GetData@COPOSFiscalPrinter@@UEAAJJPEAJPEAPEA_W0@Z 0000000180032d10     FiscalPrinterImpl.obj
 0002:0000cd10       $unwind$?GetTotalizer@COPOSFiscalPrinter@@UEAAJJJPEAPEA_WPEAJ@Z 0000000180032d10     FiscalPrinterImpl.obj
 0002:0000cd10       $unwind$?GetVatEntry@COPOSFiscalPrinter@@UEAAJJJPEAJ0@Z 0000000180032d10     FiscalPrinterImpl.obj
 0002:0000cd10       $unwind$?PrintFixedOutput@COPOSFiscalPrinter@@UEAAJJJPEA_WPEAJ@Z 0000000180032d10     FiscalPrinterImpl.obj
 0002:0000cd10       $unwind$?PrintRecPackageAdjustment@COPOSFiscalPrinter@@UEAAJJPEA_W0PEAJ@Z 0000000180032d10     FiscalPrinterImpl.obj
 0002:0000cd10       $unwind$?PrintRecRefund@COPOSFiscalPrinter@@UEAAJPEA_WTtagCY@@JPEAJ@Z 0000000180032d10     FiscalPrinterImpl.obj
 0002:0000cd10       $unwind$?PrintRecRefundVoid@COPOSFiscalPrinter@@UEAAJPEA_WTtagCY@@JPEAJ@Z 0000000180032d10     FiscalPrinterImpl.obj
 0002:0000cd10       $unwind$?PrintRecSubtotalAdjustment@COPOSFiscalPrinter@@UEAAJJPEA_WTtagCY@@PEAJ@Z 0000000180032d10     FiscalPrinterImpl.obj
 0002:0000cd10       $unwind$?PrintRecTotal@COPOSFiscalPrinter@@UEAAJTtagCY@@0PEA_WPEAJ@Z 0000000180032d10     FiscalPrinterImpl.obj
 0002:0000cd10       $unwind$?PrintReport@COPOSFiscalPrinter@@UEAAJJPEA_W0PEAJ@Z 0000000180032d10     FiscalPrinterImpl.obj
 0002:0000cd10       $unwind$?SetHeaderLine@COPOSFiscalPrinter@@UEAAJJPEA_WFPEAJ@Z 0000000180032d10     FiscalPrinterImpl.obj
 0002:0000cd10       $unwind$?SetTrailerLine@COPOSFiscalPrinter@@UEAAJJPEA_WFPEAJ@Z 0000000180032d10     FiscalPrinterImpl.obj
 0002:0000cd2c       $unwind$?Open@COPOSFiscalPrinter@@UEAAJPEA_WPEAJ@Z 0000000180032d2c     FiscalPrinterImpl.obj
 0002:0000cd50       $unwind$?CompareFirmwareVersion@COPOSFiscalPrinter@@UEAAJPEA_WPEAJ1@Z 0000000180032d50     FiscalPrinterImpl.obj
 0002:0000cd50       $unwind$?PrintNormal@COPOSFiscalPrinter@@UEAAJJPEA_WPEAJ@Z 0000000180032d50     FiscalPrinterImpl.obj
 0002:0000cd50       $unwind$?PrintPeriodicTotalsReport@COPOSFiscalPrinter@@UEAAJPEA_W0PEAJ@Z 0000000180032d50     FiscalPrinterImpl.obj
 0002:0000cd50       $unwind$?PrintRecNotPaid@COPOSFiscalPrinter@@UEAAJPEA_WTtagCY@@PEAJ@Z 0000000180032d50     FiscalPrinterImpl.obj
 0002:0000cd50       $unwind$?PrintRecPackageAdjustVoid@COPOSFiscalPrinter@@UEAAJJPEA_WPEAJ@Z 0000000180032d50     FiscalPrinterImpl.obj
 0002:0000cd50       $unwind$?SetPOSID@COPOSFiscalPrinter@@UEAAJPEA_W0PEAJ@Z 0000000180032d50     FiscalPrinterImpl.obj
 0002:0000cd50       $unwind$?SetVatValue@COPOSFiscalPrinter@@UEAAJJPEA_WPEAJ@Z 0000000180032d50     FiscalPrinterImpl.obj
 0002:0000cd50       $unwind$?VerifyItem@COPOSFiscalPrinter@@UEAAJPEA_WJPEAJ@Z 0000000180032d50     FiscalPrinterImpl.obj
 0002:0000cd50       $unwind$?initialize_inherited_file_handles_nolock@@YAXXZ 0000000180032d50     libucrt:ioinit.obj
 0002:0000cd6c       $unwind$?PrintRecItem@COPOSFiscalPrinter@@UEAAJPEA_WTtagCY@@JJ10PEAJ@Z 0000000180032d6c     FiscalPrinterImpl.obj
 0002:0000cd6c       $unwind$?PrintRecItemRefund@COPOSFiscalPrinter@@UEAAJPEA_WTtagCY@@JJ10PEAJ@Z 0000000180032d6c     FiscalPrinterImpl.obj
 0002:0000cd6c       $unwind$?PrintRecItemRefundVoid@COPOSFiscalPrinter@@UEAAJPEA_WTtagCY@@JJ10PEAJ@Z 0000000180032d6c     FiscalPrinterImpl.obj
 0002:0000cd6c       $unwind$?PrintRecItemVoid@COPOSFiscalPrinter@@UEAAJPEA_WTtagCY@@JJ10PEAJ@Z 0000000180032d6c     FiscalPrinterImpl.obj
 0002:0000cd8c       $unwind$?PrintRecItemAdjustment@COPOSFiscalPrinter@@UEAAJJPEA_WTtagCY@@JPEAJ@Z 0000000180032d8c     FiscalPrinterImpl.obj
 0002:0000cd8c       $unwind$?PrintRecItemAdjustmentVoid@COPOSFiscalPrinter@@UEAAJJPEA_WTtagCY@@JPEAJ@Z 0000000180032d8c     FiscalPrinterImpl.obj
 0002:0000cd8c       $unwind$?PrintRecItemFuelVoid@COPOSFiscalPrinter@@UEAAJPEA_WTtagCY@@J1PEAJ@Z 0000000180032d8c     FiscalPrinterImpl.obj
 0002:0000cda8       $unwind$?PrintRecVoidItem@COPOSFiscalPrinter@@UEAAJPEA_WTtagCY@@JJ1JPEAJ@Z 0000000180032da8     FiscalPrinterImpl.obj
 0002:0000cdc8       $unwind$?PrintRecItemFuel@COPOSFiscalPrinter@@UEAAJPEA_WTtagCY@@JJ1010PEAJ@Z 0000000180032dc8     FiscalPrinterImpl.obj
 0002:0000cde8       $unwind$__scrt_is_nonwritable_in_current_image 0000000180032de8     LIBCMT:utility.obj
 0002:0000ce08       $unwind$__scrt_is_nonwritable_in_current_image$filt$0 0000000180032e08     LIBCMT:utility.obj
 0002:0000ce10       $unwind$__report_securityfailure 0000000180032e10     LIBCMT:gs_report.obj
 0002:0000ce18       $unwind$__report_gsfailure 0000000180032e18     LIBCMT:gs_report.obj
 0002:0000ce20       $unwind$capture_current_context 0000000180032e20     LIBCMT:gs_report.obj
 0002:0000ce2c       $unwind$capture_previous_context 0000000180032e2c     LIBCMT:gs_report.obj
 0002:0000ce38       $unwind$??2@YAPEAX_KAEBUnothrow_t@std@@@Z 0000000180032e38     LIBCMT:new_scalar_nothrow.obj
 0002:0000ce48       $cppxdata$??2@YAPEAX_KAEBUnothrow_t@std@@@Z 0000000180032e48     LIBCMT:new_scalar_nothrow.obj
 0002:0000ce55       $stateUnwindMap$??2@YAPEAX_KAEBUnothrow_t@std@@@Z 0000000180032e55     LIBCMT:new_scalar_nothrow.obj
 0002:0000ce58       $tryMap$??2@YAPEAX_KAEBUnothrow_t@std@@@Z 0000000180032e58     LIBCMT:new_scalar_nothrow.obj
 0002:0000ce60       $handlerMap$??2@YAPEAX_KAEBUnothrow_t@std@@@Z 0000000180032e60     LIBCMT:new_scalar_nothrow.obj
 0002:0000ce68       $ip2state$??2@YAPEAX_KAEBUnothrow_t@std@@@Z 0000000180032e68     LIBCMT:new_scalar_nothrow.obj
 0002:0000ce6c       $unwind$?catch$0@?0???2@YAPEAX_KAEBUnothrow_t@std@@@Z@4HA 0000000180032e6c     LIBCMT:new_scalar_nothrow.obj
 0002:0000ce7c       $cppxdata$?catch$0@?0???2@YAPEAX_KAEBUnothrow_t@std@@@Z@4HA 0000000180032e7c     LIBCMT:new_scalar_nothrow.obj
 0002:0000ce86       $stateUnwindMap$?catch$0@?0???2@YAPEAX_KAEBUnothrow_t@std@@@Z@4HA 0000000180032e86     LIBCMT:new_scalar_nothrow.obj
 0002:0000ce88       $ip2state$?catch$0@?0???2@YAPEAX_KAEBUnothrow_t@std@@@Z@4HA 0000000180032e88     LIBCMT:new_scalar_nothrow.obj
 0002:0000ce8c       $unwind$__GSHandlerCheckCommon 0000000180032e8c     LIBCMT:gshandler.obj
 0002:0000ce98       $xdatasym                  0000000180032e98     LIBCMT:chkstk.obj
 0002:0000cea0       $xdatasym                  0000000180032ea0     LIBCMT:amdsecgs.obj
 0002:0000cea4       $unwind$?dllmain_crt_process_attach@@YAHQEAUHINSTANCE__@@QEAX@Z 0000000180032ea4     LIBCMT:dll_dllmain.obj
 0002:0000cee0       $unwind$?dllmain_crt_process_detach@@YAH_N@Z 0000000180032ee0     LIBCMT:dll_dllmain.obj
 0002:0000cf34       $unwind$?dllmain_dispatch@@YAHQEAUHINSTANCE__@@KQEAX@Z 0000000180032f34     LIBCMT:dll_dllmain.obj
 0002:0000cf5c       $unwind$?filt$0@?0??dllmain_dispatch@@YAHQEAUHINSTANCE__@@KQEAX@Z@4HA 0000000180032f5c     LIBCMT:dll_dllmain.obj
 0002:0000cf5c       $unwind$?filt$0@?0??FrameUnwindToState@__FrameHandler4@@SAXPEA_KPEAU_xDISPATCHER_CONTEXT@@PEAUFuncInfo4@FH4@@H@Z@4HA 0000000180032f5c     libvcruntime:frame.obj
 0002:0000cf5c       $unwind$?fin$1@?0??FrameUnwindToState@__FrameHandler4@@SAXPEA_KPEAU_xDISPATCHER_CONTEXT@@PEAUFuncInfo4@FH4@@H@Z@4HA 0000000180032f5c     libvcruntime:frame.obj
 0002:0000cf64       $unwind$__isa_available_init 0000000180032f64     LIBCMT:cpu_disp.obj
 0002:0000cf74       $unwind$__scrt_fastfail    0000000180032f74     LIBCMT:utility_desktop.obj
 0002:0000cf84       $unwind$__security_init_cookie 0000000180032f84     LIBCMT:gs_support.obj
 0002:0000cf90       $xdatasym                  0000000180032f90     LIBCMT:guard_dispatch.obj
 0002:0000cf98       $xdatasym                  0000000180032f98     LIBCMT:guard_xfg_dispatch.obj
 0002:0000cf9c       $unwind$AtlThunk_InitData  0000000180032f9c     atls:atlthunk.obj
 0002:0000cfb0       $unwind$wcsstr             0000000180032fb0     libvcruntime:wcsstr.obj
 0002:0000cfc8       $xdatasym                  0000000180032fc8     libvcruntime:memcmp.obj
 0002:0000cfd0       $xdatasym                  0000000180032fd0     libvcruntime:memcpy.obj
 0002:0000cfe0       $xdatasym                  0000000180032fe0     libvcruntime:memset.obj
 0002:0000cff0       $unwind$__C_specific_handler 0000000180032ff0     libvcruntime:riscchandler.obj
 0002:0000d00c       $unwind$?DecompFuncInfo@FH4@@YA_JPEAEAEAUFuncInfo4@1@_KH_N@Z 000000018003300c     libvcruntime:risctrnsctrl.obj
 0002:0000d024       $unwind$?UnwindNestedFrames@__FrameHandler4@@SAXPEA_KPEAUEHExceptionRecord@@PEAU_CONTEXT@@0PEAXPEAUFuncInfo4@FH4@@HHPEAUHandlerType4@5@PEAU_xDISPATCHER_CONTEXT@@E@Z 0000000180033024     libvcruntime:risctrnsctrl.obj
 0002:0000d038       $unwind$?GetRangeOfTrysToCheck@__FrameHandler4@@SA?AU?$pair@Viterator@TryBlockMap4@FH4@@V123@@std@@AEAVTryBlockMap4@FH4@@HPEAU_xDISPATCHER_CONTEXT@@PEAUFuncInfo4@5@H@Z 0000000180033038     libvcruntime:risctrnsctrl.obj
 0002:0000d054       $unwind$__CxxFrameHandler4 0000000180033054     libvcruntime:risctrnsctrl.obj
 0002:0000d068       $unwind$??$_CallSETranslator@V__FrameHandler4@@@@YAHPEAUEHExceptionRecord@@PEA_KPEAU_CONTEXT@@PEAU_xDISPATCHER_CONTEXT@@PEAUFuncInfo4@FH4@@K1H@Z 0000000180033068     libvcruntime:risctrnsctrl.obj
 0002:0000d088       $unwind$?filt$0@?0???$_CallSETranslator@V__FrameHandler4@@@@YAHPEAUEHExceptionRecord@@PEA_KPEAU_CONTEXT@@PEAU_xDISPATCHER_CONTEXT@@PEAUFuncInfo4@FH4@@K1H@Z@4HA 0000000180033088     libvcruntime:risctrnsctrl.obj
 0002:0000d094       $unwind$__DestructExceptionObject 0000000180033094     libvcruntime:ehhelpers.obj
 0002:0000d0b4       $unwind$__DestructExceptionObject$filt$0 00000001800330b4     libvcruntime:ehhelpers.obj
 0002:0000d0b4       $unwind$?fin$1@?0??CxxCallCatchBlock@__FrameHandler4@@SAPEAXPEAU_EXCEPTION_RECORD@@@Z@4HA 00000001800330b4     libvcruntime:frame.obj
 0002:0000d0c0       $unwind$_CxxThrowException 00000001800330c0     libvcruntime:throw.obj
 0002:0000d0d0       $xdatasym                  00000001800330d0     libvcruntime:notify.obj
 0002:0000d0dc       $unwind$?StateFromIp@__FrameHandler4@@SAHPEAUFuncInfo4@FH4@@PEAU_xDISPATCHER_CONTEXT@@_K@Z 00000001800330dc     libvcruntime:ehstate.obj
 0002:0000d0f0       $unwind$?getStartStop@UWMap4@FH4@@QEAAXHHAEAViterator@12@0@Z 00000001800330f0     libvcruntime:frame.obj
 0002:0000d108       $unwind$?FrameUnwindToState@__FrameHandler4@@SAXPEA_KPEAU_xDISPATCHER_CONTEXT@@PEAUFuncInfo4@FH4@@H@Z 0000000180033108     libvcruntime:frame.obj
 0002:0000d150       $unwind$?CxxCallCatchBlock@__FrameHandler4@@SAPEAXPEAU_EXCEPTION_RECORD@@@Z 0000000180033150     libvcruntime:frame.obj
 0002:0000d1ac       $unwind$?IsInExceptionSpec@@YAEPEAUEHExceptionRecord@@PEBU_s_ESTypeList@@@Z 00000001800331ac     libvcruntime:frame.obj
 0002:0000d1c8       $unwind$??$__InternalCxxFrameHandler@V__FrameHandler4@@@@YA?AW4_EXCEPTION_DISPOSITION@@PEAUEHExceptionRecord@@PEA_KPEAU_CONTEXT@@PEAU_xDISPATCHER_CONTEXT@@PEAUFuncInfo4@FH4@@H1E@Z 00000001800331c8     libvcruntime:frame.obj
 0002:0000d1e0       $unwind$??$BuildCatchObjectHelperInternal@V__FrameHandler4@@@@YAHPEAUEHExceptionRecord@@PEAXPEAUHandlerType4@FH4@@PEBU_s_CatchableType@@@Z 00000001800331e0     libvcruntime:frame.obj
 0002:0000d220       $unwind$??$BuildCatchObjectInternal@V__FrameHandler4@@@@YAXPEAUEHExceptionRecord@@PEAXPEAUHandlerType4@FH4@@PEBU_s_CatchableType@@@Z 0000000180033220     libvcruntime:frame.obj
 0002:0000d24c       $unwind$??$FindHandler@V__FrameHandler4@@@@YAXPEAUEHExceptionRecord@@PEA_KPEAU_CONTEXT@@PEAU_xDISPATCHER_CONTEXT@@PEAUFuncInfo4@FH4@@EH1@Z 000000018003324c     libvcruntime:frame.obj
 0002:0000d26c       $unwind$??$CatchIt@V__FrameHandler4@@@@YAXPEAUEHExceptionRecord@@PEA_KPEAU_CONTEXT@@PEAU_xDISPATCHER_CONTEXT@@PEAUFuncInfo4@FH4@@PEAUHandlerType4@4@PEBU_s_CatchableType@@PEAUTryBlockMapEntry4@4@H1EE@Z 000000018003326c     libvcruntime:frame.obj
 0002:0000d284       $unwind$??$FindHandlerForForeignException@V__FrameHandler4@@@@YAXPEAUEHExceptionRecord@@PEA_KPEAU_CONTEXT@@PEAU_xDISPATCHER_CONTEXT@@PEAUFuncInfo4@FH4@@HH1@Z 0000000180033284     libvcruntime:frame.obj
 0002:0000d2a4       $unwind$?try_get_function@@YAPEAXW4function_id@?A0x84e3c32f@@QEBDQEBW4module_id@2@2@Z 00000001800332a4     libvcruntime:winapi_downlevel.obj
 0002:0000d2a4       $unwind$?try_get_function@@YAPEAXW4function_id@?A0x391cf84c@@QEBDQEBW4module_id@2@2@Z 00000001800332a4     libucrt:winapi_thunks.obj
 0002:0000d2c0       $xdatasym                  00000001800332c0     libvcruntime:handlers.obj
 0002:0000d2e0       $unwind$__acrt_call_reportfault 00000001800332e0     libucrt:invalid_parameter.obj
 0002:0000d300       $unwind$_resetstkoflw      0000000180033300     libucrt:resetstk.obj
 0002:0000d324       $unwind$?write_string@?$string_output_adapter@_W@__crt_stdio_output@@QEBAXQEB_WHQEAHAEAV__crt_deferred_errno_cache@@@Z 0000000180033324     libucrt:output.obj
 0002:0000d33c       $unwind$??$common_vsprintf@Vformat_validation_base@__crt_stdio_output@@_W@@YAH_KQEA_W0QEB_WQEAU__crt_locale_pointers@@QEAD@Z 000000018003333c     libucrt:output.obj
 0002:0000d35c       $unwind$??$write_multiple_characters@V?$string_output_adapter@_W@__crt_stdio_output@@D@__crt_stdio_output@@YAXAEBV?$string_output_adapter@_W@0@DHQEAH@Z 000000018003335c     libucrt:output.obj
 0002:0000d368       $unwind$?state_case_type@?$output_processor@_WV?$string_output_adapter@_W@__crt_stdio_output@@V?$format_validation_base@_WV?$string_output_adapter@_W@__crt_stdio_output@@@2@@__crt_stdio_output@@AEAA_NXZ 0000000180033368     libucrt:output.obj
 0002:0000d38c       $unwind$?type_case_a@?$output_processor@_WV?$string_output_adapter@_W@__crt_stdio_output@@V?$format_validation_base@_WV?$string_output_adapter@_W@__crt_stdio_output@@@2@@__crt_stdio_output@@AEAA_NXZ 000000018003338c     libucrt:output.obj
 0002:0000d39c       $unwind$?write_stored_string_tchar@?$output_processor@_WV?$string_output_adapter@_W@__crt_stdio_output@@V?$format_validation_base@_WV?$string_output_adapter@_W@__crt_stdio_output@@@2@@__crt_stdio_output@@AEAA_N_W@Z 000000018003339c     libucrt:output.obj
 0002:0000d3b0       $unwind$??$type_case_integer_parse_into_buffer@I@?$output_processor@_WV?$string_output_adapter@_W@__crt_stdio_output@@V?$format_validation_base@_WV?$string_output_adapter@_W@__crt_stdio_output@@@2@@__crt_stdio_output@@AEAAXII_N@Z 00000001800333b0     libucrt:output.obj
 0002:0000d3b0       $unwind$??$type_case_integer_parse_into_buffer@_K@?$output_processor@_WV?$string_output_adapter@_W@__crt_stdio_output@@V?$format_validation_base@_WV?$string_output_adapter@_W@__crt_stdio_output@@@2@@__crt_stdio_output@@AEAAX_KI_N@Z 00000001800333b0     libucrt:output.obj
 0002:0000d3b8       $unwind$?common_exit@@YAXHW4_crt_exit_cleanup_mode@@W4_crt_exit_return_mode@@@Z 00000001800333b8     libucrt:exit.obj
 0002:0000d3c4       $unwind$??R<lambda_6e4b09c48022b2350581041d5f6b0c4c>@@QEBA@XZ 00000001800333c4     libucrt:exit.obj
 0002:0000d3e4       $unwind$??$?RV<lambda_d80eeec6fff315bfe5c115232f3240e3>@@AEAV<lambda_6e4b09c48022b2350581041d5f6b0c4c>@@V<lambda_2358e3775559c9db80273638284d5e45>@@@?$__crt_seh_guarded_call@X@@QEAAX$$QEAV<lambda_d80eeec6fff315bfe5c115232f3240e3>@@AEAV<lambda_6e4b09c48022b2350581041d5f6b0c4c>@@$$QEAV<lambda_2358e3775559c9db80273638284d5e45>@@@Z 00000001800333e4     libucrt:exit.obj
 0002:0000d408       $unwind$??$free_environment@D@@YAXQEAPEAD@Z 0000000180033408     libucrt:environment_initialization.obj
 0002:0000d408       $unwind$??$free_environment@_W@@YAXQEAPEA_W@Z 0000000180033408     libucrt:environment_initialization.obj
 0002:0000d414       $unwind$??$create_environment@D@@YAQEAPEADQEAD@Z 0000000180033414     libucrt:environment_initialization.obj
 0002:0000d42c       $unwind$_register_onexit_function 000000018003342c     libucrt:onexit.obj
 0002:0000d434       $unwind$_execute_onexit_table 0000000180033434     libucrt:onexit.obj
 0002:0000d43c       $unwind$??R<lambda_22ebabd17bc4fa466a2aca6d8deb888d>@@QEBAHXZ 000000018003343c     libucrt:onexit.obj
 0002:0000d454       $unwind$??$?RV<lambda_638799b9deba96c50f710eeac98168cd>@@AEAV<lambda_22ebabd17bc4fa466a2aca6d8deb888d>@@V<lambda_a6f7d7db0129f75315ebf26d50c089f1>@@@?$__crt_seh_guarded_call@H@@QEAAH$$QEAV<lambda_638799b9deba96c50f710eeac98168cd>@@AEAV<lambda_22ebabd17bc4fa466a2aca6d8deb888d>@@$$QEAV<lambda_a6f7d7db0129f75315ebf26d50c089f1>@@@Z 0000000180033454     libucrt:onexit.obj
 0002:0000d478       $unwind$??$?RV<lambda_7777bce6b2f8c936911f934f8298dc43>@@AEAV<lambda_f03950bc5685219e0bcd2087efbe011e>@@V<lambda_3883c3dff614d5e0c5f61bb1ac94921c>@@@?$__crt_seh_guarded_call@H@@QEAAH$$QEAV<lambda_7777bce6b2f8c936911f934f8298dc43>@@AEAV<lambda_f03950bc5685219e0bcd2087efbe011e>@@$$QEAV<lambda_3883c3dff614d5e0c5f61bb1ac94921c>@@@Z 0000000180033478     libucrt:onexit.obj
 0002:0000d49c       $unwind$_query_new_handler 000000018003349c     libucrt:new_handler.obj
 0002:0000d4bc       $unwind$terminate          00000001800334bc     libucrt:terminate.obj
 0002:0000d4dc       $unwind$??$parse_integer@KV?$c_string_character_source@_W@__crt_strtox@@@__crt_strtox@@YAKQEAU__crt_locale_pointers@@V?$c_string_character_source@_W@0@H_N@Z 00000001800334dc     libucrt:atox.obj
 0002:0000d4f8       $xdatasym                  00000001800334f8     libucrt:strncmp.obj
 0002:0000d4fc       $unwind$?construct_ptd_array@@YAXQEAU__acrt_ptd@@@Z 00000001800334fc     libucrt:per_thread_data.obj
 0002:0000d504       $unwind$?destroy_ptd_array@@YAXQEAU__acrt_ptd@@@Z 0000000180033504     libucrt:per_thread_data.obj
 0002:0000d50c       $unwind$??$?RV<lambda_0ae27a3a962d80f24befdcbee591983d>@@AEAV<lambda_8d0ee55de4b1038c4002e0adecdf1839>@@V<lambda_dc504788e8f1664fe9b84e20bfb512f2>@@@?$__crt_seh_guarded_call@X@@QEAAX$$QEAV<lambda_0ae27a3a962d80f24befdcbee591983d>@@AEAV<lambda_8d0ee55de4b1038c4002e0adecdf1839>@@$$QEAV<lambda_dc504788e8f1664fe9b84e20bfb512f2>@@@Z 000000018003350c     libucrt:per_thread_data.obj
 0002:0000d530       $unwind$??$?RV<lambda_aa87e3671a710a21b5dc78c0bdf72e11>@@AEAV<lambda_92619d2358a28f41a33ba319515a20b9>@@V<lambda_6992ecaafeb10aed2b74cb1fae11a551>@@@?$__crt_seh_guarded_call@X@@QEAAX$$QEAV<lambda_aa87e3671a710a21b5dc78c0bdf72e11>@@AEAV<lambda_92619d2358a28f41a33ba319515a20b9>@@$$QEAV<lambda_6992ecaafeb10aed2b74cb1fae11a551>@@@Z 0000000180033530     libucrt:per_thread_data.obj
 0002:0000d554       $unwind$??$?RV<lambda_f2e299630e499de9f9a165e60fcd3db5>@@AEAV<lambda_2ae9d31cdba2644fcbeaf08da7c24588>@@V<lambda_40d01ff24d0e7b3814fdbdcee8eab3c7>@@@?$__crt_seh_guarded_call@X@@QEAAX$$QEAV<lambda_f2e299630e499de9f9a165e60fcd3db5>@@AEAV<lambda_2ae9d31cdba2644fcbeaf08da7c24588>@@$$QEAV<lambda_40d01ff24d0e7b3814fdbdcee8eab3c7>@@@Z 0000000180033554     libucrt:per_thread_data.obj
 0002:0000d578       $unwind$??$?RV<lambda_2d41944a1d46af3157314b8a01080d33>@@AEAV<lambda_8f455de75cd7d7f24b4096f044d8b9e6>@@V<lambda_aa500f224e6afead328df44964fe2772>@@@?$__crt_seh_guarded_call@X@@QEAAX$$QEAV<lambda_2d41944a1d46af3157314b8a01080d33>@@AEAV<lambda_8f455de75cd7d7f24b4096f044d8b9e6>@@$$QEAV<lambda_aa500f224e6afead328df44964fe2772>@@@Z 0000000180033578     libucrt:per_thread_data.obj
 0002:0000d59c       $unwind$__acrt_initialize_winapi_thunks 000000018003359c     libucrt:winapi_thunks.obj
 0002:0000d5a4       $unwind$__acrt_fp_format   00000001800335a4     libucrt:cvt.obj
 0002:0000d5bc       $unwind$?fp_format_e_internal@@YAHQEAD_KH_NIQEAU_strflt@@2QEAU__crt_locale_pointers@@@Z 00000001800335bc     libucrt:cvt.obj
 0002:0000d5d4       $unwind$?fp_format_a@@YAHQEBNPEAD_KQEAD2H_NIQEAU__crt_locale_pointers@@W4__acrt_rounding_mode@@@Z 00000001800335d4     libucrt:cvt.obj
 0002:0000d5f0       $unwind$?fp_format_g@@YAHQEBNQEAD_K12H_NIQEAU__crt_locale_pointers@@@Z 00000001800335f0     libucrt:cvt.obj
 0002:0000d604       $unwind$__acrt_uninitialize_locale 0000000180033604     libucrt:wsetlocale.obj
 0002:0000d604       $unwind$__acrt_get_sigabrt_handler 0000000180033604     libucrt:signal.obj
 0002:0000d60c       $unwind$??$?RV<lambda_410d79af7f07d98d83a3f525b3859a53>@@AEAV<lambda_3e16ef9562a7dcce91392c22ab16ea36>@@V<lambda_38119f0e861e05405d8a144b9b982f0a>@@@?$__crt_seh_guarded_call@X@@QEAAX$$QEAV<lambda_410d79af7f07d98d83a3f525b3859a53>@@AEAV<lambda_3e16ef9562a7dcce91392c22ab16ea36>@@$$QEAV<lambda_38119f0e861e05405d8a144b9b982f0a>@@@Z 000000018003360c     libucrt:wsetlocale.obj
 0002:0000d634       $unwind$__acrt_initialize_lowio 0000000180033634     libucrt:ioinit.obj
 0002:0000d654       $unwind$??$common_expand_argv_wildcards@D@@YAHQEAPEADQEAPEAPEAD@Z 0000000180033654     libucrt:argv_wildcards.obj
 0002:0000d66c       $unwind$??$copy_and_add_argument_to_buffer@D@@YAHQEBD0_KAEAV?$argument_list@D@?A0x5f5c8891@@@Z 000000018003366c     libucrt:argv_wildcards.obj
 0002:0000d688       $unwind$??$expand_argument_wildcards@D@@YAHQEAD0AEAV?$argument_list@D@?A0x5f5c8891@@@Z 0000000180033688     libucrt:argv_wildcards.obj
 0002:0000d6ac       $unwind$__acrt_GetModuleFileNameA 00000001800336ac     libucrt:getmodulefilenamea.obj
 0002:0000d6c8       $unwind$_setmbcp_nolock    00000001800336c8     libucrt:mbctype.obj
 0002:0000d6e8       $unwind$?update_thread_multibyte_data_internal@@YAPEAU__crt_multibyte_data@@QEAU__acrt_ptd@@QEAPEAU1@@Z 00000001800336e8     libucrt:mbctype.obj
 0002:0000d710       $unwind$?setmbcp_internal@@YAHH_NQEAU__acrt_ptd@@QEAPEAU__crt_multibyte_data@@@Z 0000000180033710     libucrt:mbctype.obj
 0002:0000d720       $unwind$?setSBUpLow@@YAXPEAU__crt_multibyte_data@@@Z 0000000180033720     libucrt:mbctype.obj
 0002:0000d73c       $unwind$??$?RV<lambda_efdfa57d1f175319df784efa44bb7b81>@@AEAV<lambda_5f0a4c1567f8adc6734073e5d1e1b35c>@@V<lambda_2e8a7d3640ea6ccb4c2413664c2db6fd>@@@?$__crt_seh_guarded_call@X@@QEAAX$$QEAV<lambda_efdfa57d1f175319df784efa44bb7b81>@@AEAV<lambda_5f0a4c1567f8adc6734073e5d1e1b35c>@@$$QEAV<lambda_2e8a7d3640ea6ccb4c2413664c2db6fd>@@@Z 000000018003373c     libucrt:mbctype.obj
 0002:0000d760       $unwind$__acrt_WideCharToMultiByte 0000000180033760     libucrt:widechartomultibyte.obj
 0002:0000d76c       $unwind$raise              000000018003376c     libucrt:signal.obj
 0002:0000d7a8       $unwind$??$?RV<lambda_450d765d439847d4c735a33c368b5fc0>@@AEAV<lambda_44731a7d0e6d81c3e6aa82d741081786>@@V<lambda_601a2a7da3b7a96e9554ac7215c4b07c>@@@?$__crt_seh_guarded_call@P6AXH@Z@@QEAAP6AXH@Z$$QEAV<lambda_450d765d439847d4c735a33c368b5fc0>@@AEAV<lambda_44731a7d0e6d81c3e6aa82d741081786>@@$$QEAV<lambda_601a2a7da3b7a96e9554ac7215c4b07c>@@@Z 00000001800337a8     libucrt:signal.obj
 0002:0000d7cc       $unwind$?common_flush_all@@YAH_N@Z 00000001800337cc     libucrt:fflush.obj
 0002:0000d7d4       $unwind$??$?RV<lambda_842d9ff0dc9ef11c61343bbaebe7f885>@@AEAV<lambda_c5860995281e5c4ce005b3de8f5874ee>@@V<lambda_d90129c13df834fdcbf8d2b88dafcf2d>@@@?$__crt_seh_guarded_call@X@@QEAAX$$QEAV<lambda_842d9ff0dc9ef11c61343bbaebe7f885>@@AEAV<lambda_c5860995281e5c4ce005b3de8f5874ee>@@$$QEAV<lambda_d90129c13df834fdcbf8d2b88dafcf2d>@@@Z 00000001800337d4     libucrt:fflush.obj
 0002:0000d7f8       $unwind$??$?RV<lambda_886d6c58226a84441f68b9f2b8217b83>@@AEAV<lambda_ab61a845afdef5b7c387490eaf3616ee>@@V<lambda_f7f22ab5edc0698d5f6905b0d3f44752>@@@?$__crt_seh_guarded_call@X@@QEAAX$$QEAV<lambda_886d6c58226a84441f68b9f2b8217b83>@@AEAV<lambda_ab61a845afdef5b7c387490eaf3616ee>@@$$QEAV<lambda_f7f22ab5edc0698d5f6905b0d3f44752>@@@Z 00000001800337f8     libucrt:fflush.obj
 0002:0000d820       $unwind$__acrt_update_thread_locale_data 0000000180033820     libucrt:locale_refcounting.obj
 0002:0000d844       $unwind$?__mbrtowc_utf8@__crt_mbstring@@YA_KPEA_WPEBD_KPEAU_Mbstatet@@@Z 0000000180033844     libucrt:mbrtowc.obj
 0002:0000d84c       $unwind$?__mbsrtowcs_utf8@__crt_mbstring@@YA_KPEA_WPEAPEBD_KPEAU_Mbstatet@@@Z 000000018003384c     libucrt:mbrtowc.obj
 0002:0000d864       $unwind$__acrt_fltout      0000000180033864     libucrt:cfout.obj
 0002:0000d884       $unwind$?divide@__crt_strtox@@YA_KAEAUbig_integer@1@AEBU21@@Z 0000000180033884     libucrt:cfout.obj
 0002:0000d89c       $chain$0$?divide@__crt_strtox@@YA_KAEAUbig_integer@1@AEBU21@@Z 000000018003389c     libucrt:cfout.obj
 0002:0000d8b0       $chain$1$?divide@__crt_strtox@@YA_KAEAUbig_integer@1@AEBU21@@Z 00000001800338b0     libucrt:cfout.obj
 0002:0000d8c0       $unwind$_fcloseall         00000001800338c0     libucrt:closeall.obj
 0002:0000d8e4       $unwind$__acrt_locale_free_monetary 00000001800338e4     libucrt:initmon.obj
 0002:0000d8ec       $unwind$__acrt_locale_free_time 00000001800338ec     libucrt:inittime.obj
 0002:0000d8fc       $unwind$__acrt_GetStringTypeA 00000001800338fc     libucrt:getstringtypea.obj
 0002:0000d924       $unwind$__acrt_lowio_destroy_handle_array 0000000180033924     libucrt:osfinfo.obj
 0002:0000d934       $unwind$__acrt_lowio_ensure_fh_exists 0000000180033934     libucrt:osfinfo.obj
 0002:0000d960       $unwind$qsort              0000000180033960     libucrt:qsort.obj
 0002:0000d978       $chain$4$qsort             0000000180033978     libucrt:qsort.obj
 0002:0000d99c       $chain$5$qsort             000000018003399c     libucrt:qsort.obj
 0002:0000d9ac       $unwind$strpbrk            00000001800339ac     libucrt:strpbrk.obj
 0002:0000d9bc       $unwind$fallbackMethod     00000001800339bc     libucrt:strpbrk.obj
 0002:0000d9cc       $unwind$__acrt_LCMapStringA 00000001800339cc     libucrt:lcmapstringa.obj
 0002:0000d9dc       $unwind$?__acrt_LCMapStringA_stat@@YAHPEAU__crt_locale_pointers@@PEB_WKPEBDHPEADHHH@Z 00000001800339dc     libucrt:lcmapstringa.obj
 0002:0000da04       $unwind$_close             0000000180033a04     libucrt:close.obj
 0002:0000da04       $unwind$_commit            0000000180033a04     libucrt:commit.obj
 0002:0000da0c       $unwind$??$?RV<lambda_a37b2b86f63e897a80ea819b0eb08c01>@@AEAV<lambda_38ce7e780aa69e748d6df282ebc68efe>@@V<lambda_99fb1378e971ab6e7edea83e3a7a83a2>@@@?$__crt_seh_guarded_call@H@@QEAAH$$QEAV<lambda_a37b2b86f63e897a80ea819b0eb08c01>@@AEAV<lambda_38ce7e780aa69e748d6df282ebc68efe>@@$$QEAV<lambda_99fb1378e971ab6e7edea83e3a7a83a2>@@@Z 0000000180033a0c     libucrt:commit.obj
 0002:0000da30       $unwind$_write             0000000180033a30     libucrt:write.obj
 0002:0000da60       $unwind$_write_nolock      0000000180033a60     libucrt:write.obj
 0002:0000da78       $unwind$?write_double_translated_ansi_nolock@@YA?AUwrite_result@?A0x17268360@@HQEBDI@Z 0000000180033a78     libucrt:write.obj
 0002:0000da9c       $unwind$?write_text_ansi_nolock@@YA?AUwrite_result@?A0x17268360@@HQEBDI@Z 0000000180033a9c     libucrt:write.obj
 0002:0000da9c       $unwind$?write_text_utf16le_nolock@@YA?AUwrite_result@?A0x17268360@@HQEBDI@Z 0000000180033a9c     libucrt:write.obj
 0002:0000dabc       $unwind$?write_text_utf8_nolock@@YA?AUwrite_result@?A0x17268360@@HQEBDI@Z 0000000180033abc     libucrt:write.obj
 0002:0000dae0       $xdatasym                  0000000180033ae0     libucrt:log10.obj
 0002:0000daec       $unwind$__acrt_fenv_set_control 0000000180033aec     libucrt:_fenvutils.obj
 0002:0000dafc       $unwind$fclose             0000000180033afc     libucrt:fclose.obj
 0002:0000db20       $unwind$_putwch_nolock     0000000180033b20     libucrt:putwch.obj
 0002:0000db28       $unwind$common_control87   0000000180033b28     libucrt:ieee.obj
 0002:0000db54       $unwind$_call_matherr      0000000180033b54     libucrt:libm_error.obj
 0002:0000db5c       $unwind$_handle_error      0000000180033b5c     libucrt:libm_error.obj
 0002:0000db7c       $unwind$__acrt_initialize_fma3 0000000180033b7c     libucrt:fma3_available.obj
 0002:0000db84       $unwind$_log_special_common 0000000180033b84     libucrt:log_special.obj
 0002:0000db90       $unwind$??$?RV<lambda_751a882b2c74d4b022dec766aa51a29a>@@AEAV<lambda_628dfdc04ba53c8bfc02c9951375f3f5>@@V<lambda_f6c7be5f7998530c34de24c7437d6b54>@@@?$__crt_seh_guarded_call@H@@QEAAH$$QEAV<lambda_751a882b2c74d4b022dec766aa51a29a>@@AEAV<lambda_628dfdc04ba53c8bfc02c9951375f3f5>@@$$QEAV<lambda_f6c7be5f7998530c34de24c7437d6b54>@@@Z 0000000180033b90     libucrt:close.obj
 0002:0000dbb8       $xdatasym                  0000000180033bb8     libucrt:fpsr.obj
 0002:0000dbc0       $unwind$_raise_exc_ex      0000000180033bc0     libucrt:fpexcept.obj
 0002:0000dbd4       $unwind$_ctrlfp            0000000180033bd4     libucrt:fpctrl.obj
 0002:0000dbfc       $unwind$_IsNonwritableInCurrentImage 0000000180033bfc     LIBCMT:pesect.obj
 0002:0000dd80       .edata                     0000000180033d80     OPOSFiscalPrinter.exp
 0002:0000dda8       rgpv                       0000000180033da8     OPOSFiscalPrinter.exp
 0002:0000ddb8       rgszName                   0000000180033db8     OPOSFiscalPrinter.exp
 0002:0000ddc8       rgwOrd                     0000000180033dc8     OPOSFiscalPrinter.exp
 0002:0000ddd0       szName                     0000000180033dd0     OPOSFiscalPrinter.exp
 0002:0000dde6       $N00001                    0000000180033de6     OPOSFiscalPrinter.exp
 0002:0000ddf6       $N00002                    0000000180033df6     OPOSFiscalPrinter.exp
 0002:0000de08       $N00003                    0000000180033e08     OPOSFiscalPrinter.exp
 0002:0000de1a       $N00004                    0000000180033e1a     OPOSFiscalPrinter.exp
 0002:0000e74a       .idata$6                   000000018003474a     kernel32:KERNEL32.dll
 0002:0000e962       .idata$6                   0000000180034962     user32:USER32.dll
 0002:0000ea96       .idata$6                   0000000180034a96     gdi32:GDI32.dll
 0002:0000eb3c       .idata$6                   0000000180034b3c     advapi32:ADVAPI32.dll
 0002:0000ec58       .idata$6                   0000000180034c58     ole32:ole32.dll
 0002:0000ec62       .idata$6                   0000000180034c62     oleaut32:OLEAUT32.dll
 0003:000001c0       ?ObjectMap@@3PAU_ATL_OBJMAP_ENTRY30@ATL@@A 00000001800361c0     FiscalPrinter.obj
 0003:000002e0       ?s_SOMethodNames@@3PAPEADA 00000001800362e0     FiscalPrinterImpl.obj
 0003:00000560       ?s_RequiredMethodsPerRelease@@3PAHA 0000000180036560     FiscalPrinterImpl.obj
 0003:000005c0       ?__vcrt_flsindex@@3KA      00000001800365c0     libvcruntime:per_thread_data.obj
 0003:000005d0       ?errno_no_memory@@3HA      00000001800365d0     libucrt:errno.obj
 0003:000005d4       ?doserrno_no_memory@@3KA   00000001800365d4     libucrt:errno.obj
 0003:000005e0       ?__acrt_flsindex@@3KA      00000001800365e0     libucrt:per_thread_data.obj
 0003:00000aa0       _mbctypes                  0000000180036aa0     libucrt:mbctype.obj
 0003:00000bb0       _mbcasemaps                0000000180036bb0     libucrt:mbctype.obj
 0003:00000cb0       ?__rgctypeflag@@3PADA      0000000180036cb0     libucrt:mbctype.obj
 0003:00000cc0       ?__rgcode_page_info@@3PAUcode_page_info@@A 0000000180036cc0     libucrt:mbctype.obj
 0003:00000f60       ?dazSupported@?1??common_control87@@9@9 0000000180036f60     libucrt:ieee.obj
 0003:00000f70       ?__dcrt_lowio_console_output_handle@@3PEAXEA 0000000180036f70     libucrt:initcon.obj
 0003:00000f80       ?dazSupported@?1??_ctrlfp@@9@9 0000000180036f80     libucrt:fpctrl.obj
 0003:000011d0       ?is_initialized_as_dll@@3_NA 00000001800371d0     LIBCMT:utility.obj
 0003:000011d1       ?module_local_atexit_table_initialized@@3_NA 00000001800371d1     LIBCMT:utility.obj
 0003:000011d8       ?module_local_atexit_table@@3U_onexit_table_t@@A 00000001800371d8     LIBCMT:utility.obj
 0003:000011f0       ?module_local_at_quick_exit_table@@3U_onexit_table_t@@A 00000001800371f0     LIBCMT:utility.obj
 0003:00001208       ?g_tss_cv@@3U_RTL_CONDITION_VARIABLE@@A 0000000180037208     LIBCMT:thread_safe_statics.obj
 0003:00001210       ?g_tss_event@@3PEAXEA      0000000180037210     LIBCMT:thread_safe_statics.obj
 0003:00001218       ?g_tss_mutex@@3U_RTL_CRITICAL_SECTION@@A 0000000180037218     LIBCMT:thread_safe_statics.obj
 0003:00001240       ?g_sleep_condition_variable_cs@@3P6AHPEAU_RTL_CONDITION_VARIABLE@@PEAU_RTL_CRITICAL_SECTION@@K@ZEA 0000000180037240     LIBCMT:thread_safe_statics.obj
 0003:00001248       ?g_wake_all_condition_variable@@3P6AXPEAU_RTL_CONDITION_VARIABLE@@@ZEA 0000000180037248     LIBCMT:thread_safe_statics.obj
 0003:00001250       GS_ExceptionRecord         0000000180037250     LIBCMT:gs_report.obj
 0003:000012f0       GS_ContextRecord           00000001800372f0     LIBCMT:gs_report.obj
 0003:000017c4       ?__proc_attached@@3HA      00000001800377c4     LIBCMT:dll_dllmain.obj
 0003:00001868       ?AllocateData@@3P6APEAUAtlThunkData_t@@XZEA 0000000180037868     atls:atlthunk.obj
 0003:00001870       ?InitData@@3P6AXPEAUAtlThunkData_t@@PEAX_K@ZEA 0000000180037870     atls:atlthunk.obj
 0003:00001878       ?DataToCode@@3P6AP6A_JPEAUHWND__@@I_K_J@ZPEAUAtlThunkData_t@@@ZEA 0000000180037878     atls:atlthunk.obj
 0003:00001880       ?FreeData@@3P6AXPEAUAtlThunkData_t@@@ZEA 0000000180037880     atls:atlthunk.obj
 0003:00001888       ?Initialized@@3_NA         0000000180037888     atls:atlthunk.obj
 0003:000018a0       ?__vcrt_startup_thread_ptd@@3U__vcrt_ptd@@A 00000001800378a0     libvcruntime:per_thread_data.obj
 0003:00001920       __vcrt_lock_table          0000000180037920     libvcruntime:locks.obj
 0003:00001948       __vcrt_locks_initialized   0000000180037948     libvcruntime:locks.obj
 0003:00001990       ?heap@@3V_HeapManager@@A   0000000180037990     libvcruntime:undname.obj
 0003:000019b8       ?module_handles@@3PAPEAUHINSTANCE__@@A 00000001800379b8     libvcruntime:winapi_downlevel.obj
 0003:000019d0       ?function_pointers@@3PAPEAXA 00000001800379d0     libvcruntime:winapi_downlevel.obj
 0003:000019f8       ?__acrt_invalid_parameter_handler@@3V?$dual_state_global@P6AXPEB_W00I_K@Z@__crt_state_management@@A 00000001800379f8     libucrt:invalid_parameter.obj
 0003:00001a00       ?c_termination_complete@@3JA 0000000180037a00     libucrt:exit.obj
 0003:00001a08       ?thread_local_exit_callback_func@@3P6AXPEAXK0@ZEA 0000000180037a08     libucrt:exit.obj
 0003:00001a20       ?program_name@?1???$common_configure_argv@D@@YAHW4_crt_argv_mode@@@Z@4PADA 0000000180037a20     libucrt:argv_parsing.obj
 0003:00001b78       ?__acrt_new_handler@@3V?$dual_state_global@P6AH_K@Z@__crt_state_management@@A 0000000180037b78     libucrt:new_handler.obj
 0003:00001b80       ?module_handles@@3PAPEAUHINSTANCE__@@A 0000000180037b80     libucrt:winapi_thunks.obj
 0003:00001c20       ?encoded_function_pointers@@3PAPEAXA 0000000180037c20     libucrt:winapi_thunks.obj
 0003:00001d30       ?internal_state@?1??_mbtowc_l@@9@4U_Mbstatet@@A 0000000180037d30     libucrt:mbtowc.obj
 0003:00001d48       ?enable_percent_n@@3_KA    0000000180037d48     libucrt:printf_count_output.obj
 0003:00002180       ?__acrt_lock_table@@3PAU_RTL_CRITICAL_SECTION@@A 0000000180038180     libucrt:locks.obj
 0003:000023b0       ?__acrt_locks_initialized@@3IA 00000001800383b0     libucrt:locks.obj
 0003:000023d0       ?fSystemSet@@3HA           00000001800383d0     libucrt:mbctype.obj
 0003:000023d4       ?initialized@?1??__acrt_initialize_multibyte@@9@4_NA 00000001800383d4     libucrt:mbctype.obj
 0003:00002410       ?ctrlc_action@@3V?$dual_state_global@P6AXH@Z@__crt_state_management@@A 0000000180038410     libucrt:signal.obj
 0003:00002418       ?ctrlbreak_action@@3V?$dual_state_global@P6AXH@Z@__crt_state_management@@A 0000000180038418     libucrt:signal.obj
 0003:00002420       ?abort_action@@3V?$dual_state_global@P6AXH@Z@__crt_state_management@@A 0000000180038420     libucrt:signal.obj
 0003:00002428       ?term_action@@3V?$dual_state_global@P6AXH@Z@__crt_state_management@@A 0000000180038428     libucrt:signal.obj
 0003:00002430       ?user_matherr@@3V?$dual_state_global@P6AHPEAU_exception@@@Z@__crt_state_management@@A 0000000180038430     libucrt:matherr.obj
 0003:00002438       ?__acrt_global_new_mode@@3V?$dual_state_global@J@__crt_state_management@@A 0000000180038438     libucrt:new_mode.obj
 0003:00002448       ?internal_pst@?1??__mbrtoc32_utf8@__crt_mbstring@@YA_KPEA_UPEBD_KPEAU_Mbstatet@@@Z@4U3@A 0000000180038448     libucrt:mbrtoc32.obj
 0003:00002450       ?__acrt_app_type@@3W4_crt_app_type@@A 0000000180038450     libucrt:report_runtime_error.obj
 0005:00000000       MoveSmall                  000000018003c000     libvcruntime:memcpy.obj
 0005:00000050       MsetTab                    000000018003c050     libvcruntime:memset.obj
 0006:00000220       $R000000                   000000018003d220     FiscalPrinter.res
 0006:00000bc8       $R0009A8                   000000018003dbc8     FiscalPrinter.res
 0006:00000cb0       $R000A90                   000000018003dcb0     FiscalPrinter.res
 0006:00000f18       $R000CF8                   000000018003df18     FiscalPrinter.res
 0006:000014d0       $R0012B0                   000000018003e4d0     FiscalPrinter.res
 0006:000098d8       $R0096B8                   00000001800468d8     FiscalPrinter.res
 0006:00009918       $R0096F8                   0000000180046918     FiscalPrinter.res
