 OPOSElectronicJournal

 Timestamp is 5b863d37 (Wed Aug 29 15:29:11 2018)

 Preferred load address is 0000000180000000

 Start         Length     Name                   Class
 0001:00000000 000000c0H .text$di                CODE
 0001:000000c0 00020580H .text$mn                CODE
 0001:00020640 00000020H .text$mn$00             CODE
 0001:00020660 00000400H .text$x                 CODE
 0001:00020a60 000000c0H .text$yd                CODE
 0002:00000000 00000618H .idata$5                DATA
 0002:00000618 00000010H .00cfg                  DATA
 0002:00000628 00000008H .CRT$XCA                DATA
 0002:00000630 00000008H .CRT$XCL                DATA
 0002:00000638 00000020H .CRT$XCU                DATA
 0002:00000658 00000008H .CRT$XCZ                DATA
 0002:00000660 00000008H .CRT$XIA                DATA
 0002:00000668 00000020H .CRT$XIC                DATA
 0002:00000688 00000008H .CRT$XIZ                DATA
 0002:00000690 00000008H .CRT$XLA                DATA
 0002:00000698 00000008H .CRT$XLZ                DATA
 0002:000006a0 00000008H .CRT$XPA                DATA
 0002:000006a8 00000010H .CRT$XPX                DATA
 0002:000006b8 00000008H .CRT$XPXA               DATA
 0002:000006c0 00000008H .CRT$XPZ                DATA
 0002:000006c8 00000008H .CRT$XTA                DATA
 0002:000006d0 00000010H .CRT$XTZ                DATA
 0002:000006d8 00000000H .gfids$y                DATA
 0002:000006e0 0000a410H .rdata                  DATA
 0002:0000aaf0 00000028H .rdata$T                DATA
 0002:0000ab18 00000274H .rdata$r                DATA
 0002:0000ad8c 00000404H .rdata$zzzdbg           DATA
 0002:0000b190 00000008H .rtc$IAA                DATA
 0002:0000b198 00000008H .rtc$IZZ                DATA
 0002:0000b1a0 00000008H .rtc$TAA                DATA
 0002:0000b1a8 00000008H .rtc$TZZ                DATA
 0002:0000b1b0 00000004H .tls                    DATA
 0002:0000b1b4 00000004H .tls$                   DATA
 0002:0000b1b8 00000008H .tls$ZZZ                DATA
 0002:0000b1c0 00001708H .xdata                  DATA
 0002:0000c8c8 00000150H .xdata$x                DATA
 0002:0000ca18 00000008H ATL$__a                 DATA
 0002:0000ca20 00000010H ATL$__z                 DATA
 0002:0000ca30 000000b4H .edata                  DATA
 0002:0000cae4 00000078H .idata$2                DATA
 0002:0000cb5c 00000014H .idata$3                DATA
 0002:0000cb70 00000618H .idata$4                DATA
 0002:0000d188 00000c1cH .idata$6                DATA
 0003:00000000 00000cf8H .data                   DATA
 0003:00000cf8 000000c8H .data$r                 DATA
 0003:00000dc0 000013fcH .bss                    DATA
 0004:00000000 00002070H .pdata                  DATA
 0005:00000000 00000220H .rsrc$01                DATA
 0005:00000220 00005070H .rsrc$02                DATA

  Address         Publics by Value              Rva+Base               Lib:Object

 0000:00000000       __guard_fids_count         0000000000000000     <absolute>
 0000:00000000       __hybrid_code_map          0000000000000000     <absolute>
 0000:00000000       __guard_longjmp_count      0000000000000000     <absolute>
 0000:00000000       __guard_iat_count          0000000000000000     <absolute>
 0000:00000000       __guard_longjmp_table      0000000000000000     <absolute>
 0000:00000000       __volatile_metadata        0000000000000000     <absolute>
 0000:00000000       __guard_iat_table          0000000000000000     <absolute>
 0000:00000000       __hybrid_code_map_count    0000000000000000     <absolute>
 0000:00000000       __enclave_config           0000000000000000     <absolute>
 0000:00000000       ___safe_se_handler_count   0000000000000000     <absolute>
 0000:00000000       ___safe_se_handler_table   0000000000000000     <absolute>
 0000:00000000       __guard_fids_table         0000000000000000     <absolute>
 0000:00000000       __hybrid_auxiliary_iat     0000000000000000     <absolute>
 0000:00000000       __dynamic_value_reloc_table 0000000000000000     <absolute>
 0000:00000100       __guard_flags              0000000000000100     <absolute>
 0000:00000000       __ImageBase                0000000180000000     <linker-defined>
 0001:000000c0       ?DupWide@_CW@@AEAAXXZ      00000001800010c0 f   CWString.obj
 0001:000000e8       ?cw_dup@@YAXPEBDAEAHAEAPEA_W1@Z 00000001800010e8 f   CWString.obj
 0001:00000194       ?cw_memcpy@@YAHPEA_WPEBDH@Z 0000000180001194 f   CWString.obj
 0001:000001e0       ?cw_strcpy@@YAHPEA_WPEBD@Z 00000001800011e0 f   CWString.obj
 0001:000001f4       ??0CAtlComModule@ATL@@QEAA@XZ 00000001800011f4 f i OposVariant.obj
 0001:0000027c       ??0CAtlWinModule@ATL@@QEAA@XZ 000000018000127c f i OposVariant.obj
 0001:000002f0       ??0OposDispParms@@QEAA@PEAVOposVariant@@H@Z 00000001800012f0 f   OposVariant.obj
 0001:00000398       ??1OposDispParms@@QEAA@XZ  0000000180001398 f   OposVariant.obj
 0001:000003b0       ??_Estringdispid@CComTypeInfoHolder@ATL@@QEAAPEAXI@Z 00000001800013b0 f i OposVariant.obj
 0001:00000454       ?AtlWinModuleTerm@ATL@@YAJPEAU_ATL_WIN_MODULE70@1@PEAUHINSTANCE__@@@Z 0000000180001454 f i OposVariant.obj
 0001:00000504       ?ChangeBSTR@OposVariant@@QEAAXPEAPEA_WAEAJ@Z 0000000180001504 f   OposVariant.obj
 0001:00000564       ?ChangeCURRENCY@OposVariant@@QEAAXPEATtagCY@@AEAJ@Z 0000000180001564 f   OposVariant.obj
 0001:000005c4       ?ChangeLONG@OposVariant@@QEAAXPEAJAEAJ@Z 00000001800015c4 f   OposVariant.obj
 0001:00000620       ?GetLONG@OposVariant@@QEAAJXZ 0000000180001620 f   OposVariant.obj
 0001:00000644       ?SetBSTR@OposVariant@@QEAAXPEA_WAEAJ@Z 0000000180001644 f   OposVariant.obj
 0001:00000684       ?SetBSTR_Copy@OposVariant@@QEAAXPEA_WAEAJ@Z 0000000180001684 f   OposVariant.obj
 0001:000006f4       ?SetBSTR_InOutPtr@OposVariant@@QEAA_NPEAPEA_WAEAJ@Z 00000001800016f4 f   OposVariant.obj
 0001:00000744       ?SetBSTR_OutPtr@OposVariant@@QEAA_NPEAPEA_WAEAJ@Z 0000000180001744 f   OposVariant.obj
 0001:00000760       ?SetDispatch_Ptr@OposVariant@@QEAAXPEAUIDispatch@@AEAJ@Z 0000000180001760 f   OposVariant.obj
 0001:000007b8       ?SetLONG@OposVariant@@QEAAXJ@Z 00000001800017b8 f   OposVariant.obj
 0001:000007e8       ?SetLONG_Ptr@OposVariant@@QEAAXPEAJAEAJ@Z 00000001800017e8 f   OposVariant.obj
 0001:00000834       ?SetString@OposVariant@@QEAAXPEB_WAEAJ@Z 0000000180001834 f   OposVariant.obj
 0001:00000898       ?SetVARIANT_BOOL@OposVariant@@QEAAXF@Z 0000000180001898 f   OposVariant.obj
 0001:000008d0       ?Term@CAtlComModule@ATL@@QEAAXXZ 00000001800018d0 f i OposVariant.obj
 0001:00000940       ?_AtlInitializeCriticalSectionEx@ATL@@YAHPEAU_RTL_CRITICAL_SECTION@@KK@Z 0000000180001940 f i OposVariant.obj
 0001:00000948       ?_AtlRaiseException@ATL@@YAXKK@Z 0000000180001948 f i OposVariant.obj
 0001:00000958       ?CreateInstance@?$CComCreator@V?$CComObjectCached@VCComClassFactory@ATL@@@ATL@@@ATL@@SAJPEAXAEBU_GUID@@PEAPEAX@Z 0000000180001958 f i ElectronicJournal.obj
 0001:00000a58       ?CreateInstance@?$CComCreator2@V?$CComCreator@V?$CComObject@VCOPOSElectronicJournal@@@ATL@@@ATL@@V?$CComCreator@V?$CComAggObject@VCOPOSElectronicJournal@@@ATL@@@2@@ATL@@SAJPEAXAEBU_GUID@@PEAPEAX@Z 0000000180001a58 f i ElectronicJournal.obj
 0001:00000a68       ?QueryGetData@?$IDataObjectImpl@VCOPOSElectronicJournal@@@ATL@@UEAAJPEAUtagFORMATETC@@@Z 0000000180001a68 f i ElectronicJournal.obj
 0001:00000a68       ?ReactivateAndUndo@?$IOleInPlaceObjectWindowlessImpl@VCOPOSElectronicJournal@@@ATL@@UEAAJXZ 0000000180001a68 f i ElectronicJournal.obj
 0001:00000a68       ?SetMoniker@?$IOleObjectImpl@VCOPOSElectronicJournal@@@ATL@@UEAAJKPEAUIMoniker@@@Z 0000000180001a68 f i ElectronicJournal.obj
 0001:00000a68       ?EnumFormatEtc@?$IDataObjectImpl@VCOPOSElectronicJournal@@@ATL@@UEAAJKPEAPEAUIEnumFORMATETC@@@Z 0000000180001a68 f i ElectronicJournal.obj
 0001:00000a68       ?GetDataHere@?$IDataObjectImpl@VCOPOSElectronicJournal@@@ATL@@UEAAJPEAUtagFORMATETC@@PEAUtagSTGMEDIUM@@@Z 0000000180001a68 f i ElectronicJournal.obj
 0001:00000a68       ?SetColorScheme@?$IOleObjectImpl@VCOPOSElectronicJournal@@@ATL@@UEAAJPEAUtagLOGPALETTE@@@Z 0000000180001a68 f i ElectronicJournal.obj
 0001:00000a68       ?GetDropTarget@?$IOleInPlaceObjectWindowlessImpl@VCOPOSElectronicJournal@@@ATL@@UEAAJPEAPEAUIDropTarget@@@Z 0000000180001a68 f i ElectronicJournal.obj
 0001:00000a68       ?GetControlInfo@?$IOleControlImpl@VCOPOSElectronicJournal@@@ATL@@UEAAJPEAUtagCONTROLINFO@@@Z 0000000180001a68 f i ElectronicJournal.obj
 0001:00000a68       ?InitFromData@?$IOleObjectImpl@VCOPOSElectronicJournal@@@ATL@@UEAAJPEAUIDataObject@@HK@Z 0000000180001a68 f i ElectronicJournal.obj
 0001:00000a68       ?ContextSensitiveHelp@?$IOleInPlaceActiveObjectImpl@VCOPOSElectronicJournal@@@ATL@@UEAAJH@Z 0000000180001a68 f i ElectronicJournal.obj
 0001:00000a68       ?SetData@?$IDataObjectImpl@VCOPOSElectronicJournal@@@ATL@@UEAAJPEAUtagFORMATETC@@PEAUtagSTGMEDIUM@@H@Z 0000000180001a68 f i ElectronicJournal.obj
 0001:00000a68       ?Unfreeze@?$IViewObjectExImpl@VCOPOSElectronicJournal@@@ATL@@UEAAJK@Z 0000000180001a68 f i ElectronicJournal.obj
 0001:00000a68       ?GetColorSet@?$IViewObjectExImpl@VCOPOSElectronicJournal@@@ATL@@UEAAJKJPEAXPEAUtagDVTARGETDEVICE@@PEAUHDC__@@PEAPEAUtagLOGPALETTE@@@Z 0000000180001a68 f i ElectronicJournal.obj
 0001:00000a68       ?QueryInterface@CRegObject@ATL@@UEAAJAEBU_GUID@@PEAPEAX@Z 0000000180001a68 f i ElectronicJournal.obj
 0001:00000a68       ?GetClipboardData@?$IOleObjectImpl@VCOPOSElectronicJournal@@@ATL@@UEAAJKPEAPEAUIDataObject@@@Z 0000000180001a68 f i ElectronicJournal.obj
 0001:00000a68       ?ContextSensitiveHelp@?$IOleInPlaceObjectWindowlessImpl@VCOPOSElectronicJournal@@@ATL@@UEAAJH@Z 0000000180001a68 f i ElectronicJournal.obj
 0001:00000a68       ?Freeze@?$IViewObjectExImpl@VCOPOSElectronicJournal@@@ATL@@UEAAJKJPEAXPEAK@Z 0000000180001a68 f i ElectronicJournal.obj
 0001:00000a68       ?GetCanonicalFormatEtc@?$IDataObjectImpl@VCOPOSElectronicJournal@@@ATL@@UEAAJPEAUtagFORMATETC@@0@Z 0000000180001a68 f i ElectronicJournal.obj
 0001:00000a68       ?GetRect@?$IViewObjectExImpl@VCOPOSElectronicJournal@@@ATL@@UEAAJKPEAU_RECTL@@@Z 0000000180001a68 f i ElectronicJournal.obj
 0001:00000a68       ?OnMnemonic@?$IOleControlImpl@VCOPOSElectronicJournal@@@ATL@@UEAAJPEAUtagMSG@@@Z 0000000180001a68 f i ElectronicJournal.obj
 0001:00000a68       ?GetMoniker@?$IOleObjectImpl@VCOPOSElectronicJournal@@@ATL@@UEAAJKKPEAPEAUIMoniker@@@Z 0000000180001a68 f i ElectronicJournal.obj
 0001:00000a70       ?AddRef@CRegObject@ATL@@UEAAKXZ 0000000180001a70 f i ElectronicJournal.obj
 0001:00000a70       ?FAccessAllowed@?$IObjectSafetyImpl@VCOPOSElectronicJournal@@$02@ATL@@MEAAHXZ 0000000180001a70 f i ElectronicJournal.obj
 0001:00000a78       ?Update@?$IOleObjectImpl@VCOPOSElectronicJournal@@@ATL@@UEAAJXZ 0000000180001a78 f i ElectronicJournal.obj
 0001:00000a78       ?HandsOffStorage@?$IPersistStorageImpl@VCOPOSElectronicJournal@@@ATL@@UEAAJXZ 0000000180001a78 f i ElectronicJournal.obj
 0001:00000a78       ?GetCategoryMap@CComObjectRootBase@ATL@@SAPEBU_ATL_CATMAP_ENTRY@2@XZ 0000000180001a78 f i ElectronicJournal.obj
 0001:00000a78       ?OnAmbientPropertyChange@?$IOleControlImpl@VCOPOSElectronicJournal@@@ATL@@UEAAJJ@Z 0000000180001a78 f i ElectronicJournal.obj
 0001:00000a78       ?SetHostNames@?$IOleObjectImpl@VCOPOSElectronicJournal@@@ATL@@UEAAJPEB_W0@Z 0000000180001a78 f i ElectronicJournal.obj
 0001:00000a78       ?SaveCompleted@?$IPersistStorageImpl@VCOPOSElectronicJournal@@@ATL@@UEAAJPEAUIStorage@@@Z 0000000180001a78 f i ElectronicJournal.obj
 0001:00000a78       ?IsUpToDate@?$IOleObjectImpl@VCOPOSElectronicJournal@@@ATL@@UEAAJXZ 0000000180001a78 f i ElectronicJournal.obj
 0001:00000a78       ?OnFrameWindowActivate@?$IOleInPlaceActiveObjectImpl@VCOPOSElectronicJournal@@@ATL@@UEAAJH@Z 0000000180001a78 f i ElectronicJournal.obj
 0001:00000a78       ?EnableModeless@?$IOleInPlaceActiveObjectImpl@VCOPOSElectronicJournal@@@ATL@@UEAAJH@Z 0000000180001a78 f i ElectronicJournal.obj
 0001:00000a78       ?GetObjectDescription@?$CComCoClass@VCOPOSElectronicJournal@@$1?CLSID_OPOSElectronicJournal@@3U_GUID@@B@ATL@@SAPEB_WXZ 0000000180001a78 f i ElectronicJournal.obj
 0001:00000a78       ?Release@CRegObject@ATL@@UEAAKXZ 0000000180001a78 f i ElectronicJournal.obj
 0001:00000a78       ?ResizeBorder@?$IOleInPlaceActiveObjectImpl@VCOPOSElectronicJournal@@@ATL@@UEAAJPEBUtagRECT@@PEAUIOleInPlaceUIWindow@@H@Z 0000000180001a78 f i ElectronicJournal.obj
 0001:00000a7c       ?AddReplacement@CRegObject@ATL@@UEAAJPEB_W0@Z 0000000180001a7c f i ElectronicJournal.obj
 0001:00000aac       ?ClearReplacements@CRegObject@ATL@@UEAAJXZ 0000000180001aac f i ElectronicJournal.obj
 0001:00000ab8       ??_GCRegObject@ATL@@UEAAPEAXI@Z 0000000180001ab8 f i ElectronicJournal.obj
 0001:00000ab8       ??_ECRegObject@ATL@@UEAAPEAXI@Z 0000000180001ab8 f i ElectronicJournal.obj
 0001:00000b38       ?Next@?$CComEnumImpl@UIEnumConnectionPoints@@$1?_GUID_b196b285_bab4_101a_b69c_00aa00341d07@@3U__s_GUID@@BPEAUIConnectionPoint@@V?$_CopyInterface@UIConnectionPoint@@@ATL@@@ATL@@UEAAJKPEAPEAUIConnectionPoint@@PEAK@Z 0000000180001b38 f i ElectronicJournal.obj
 0001:00000c04       ?Skip@?$CComEnumImpl@UIEnumConnectionPoints@@$1?_GUID_b196b285_bab4_101a_b69c_00aa00341d07@@3U__s_GUID@@BPEAUIConnectionPoint@@V?$_CopyInterface@UIConnectionPoint@@@ATL@@@ATL@@UEAAJK@Z 0000000180001c04 f i ElectronicJournal.obj
 0001:00000c30       ?Reset@?$CComEnumImpl@UIEnumConnections@@$1?_GUID_b196b287_bab4_101a_b69c_00aa00341d07@@3U__s_GUID@@BUtagCONNECTDATA@@V?$_Copy@UtagCONNECTDATA@@@ATL@@@ATL@@UEAAJXZ 0000000180001c30 f i ElectronicJournal.obj
 0001:00000c30       ?Reset@?$CComEnumImpl@UIEnumConnectionPoints@@$1?_GUID_b196b285_bab4_101a_b69c_00aa00341d07@@3U__s_GUID@@BPEAUIConnectionPoint@@V?$_CopyInterface@UIConnectionPoint@@@ATL@@@ATL@@UEAAJXZ 0000000180001c30 f i ElectronicJournal.obj
 0001:00000c3c       ?Clone@?$CComEnumImpl@UIEnumConnectionPoints@@$1?_GUID_b196b285_bab4_101a_b69c_00aa00341d07@@3U__s_GUID@@BPEAUIConnectionPoint@@V?$_CopyInterface@UIConnectionPoint@@@ATL@@@ATL@@UEAAJPEAPEAUIEnumConnectionPoints@@@Z 0000000180001c3c f i ElectronicJournal.obj
 0001:00000d64       ?AddRef@?$CComObject@V?$CComEnum@UIEnumConnectionPoints@@$1?_GUID_b196b285_bab4_101a_b69c_00aa00341d07@@3U__s_GUID@@BPEAUIConnectionPoint@@V?$_CopyInterface@UIConnectionPoint@@@ATL@@VCComSingleThreadModel@6@@ATL@@@ATL@@UEAAKXZ 0000000180001d64 f i ElectronicJournal.obj
 0001:00000d64       ?AddRef@?$CComObject@V?$CComEnum@UIEnumConnections@@$1?_GUID_b196b287_bab4_101a_b69c_00aa00341d07@@3U__s_GUID@@BUtagCONNECTDATA@@V?$_Copy@UtagCONNECTDATA@@@ATL@@VCComSingleThreadModel@6@@ATL@@@ATL@@UEAAKXZ 0000000180001d64 f i ElectronicJournal.obj
 0001:00000d70       ?Release@?$CComObject@V?$CComEnum@UIEnumConnections@@$1?_GUID_b196b287_bab4_101a_b69c_00aa00341d07@@3U__s_GUID@@BUtagCONNECTDATA@@V?$_Copy@UtagCONNECTDATA@@@ATL@@VCComSingleThreadModel@6@@ATL@@@ATL@@UEAAKXZ 0000000180001d70 f i ElectronicJournal.obj
 0001:00000d70       ?Release@?$CComObject@V?$CComEnum@UIEnumConnectionPoints@@$1?_GUID_b196b285_bab4_101a_b69c_00aa00341d07@@3U__s_GUID@@BPEAUIConnectionPoint@@V?$_CopyInterface@UIConnectionPoint@@@ATL@@VCComSingleThreadModel@6@@ATL@@@ATL@@UEAAKXZ 0000000180001d70 f i ElectronicJournal.obj
 0001:00000dc4       ?QueryInterface@?$CComObject@V?$CComEnum@UIEnumConnectionPoints@@$1?_GUID_b196b285_bab4_101a_b69c_00aa00341d07@@3U__s_GUID@@BPEAUIConnectionPoint@@V?$_CopyInterface@UIConnectionPoint@@@ATL@@VCComSingleThreadModel@6@@ATL@@@ATL@@UEAAJAEBU_GUID@@PEAPEAX@Z 0000000180001dc4 f i ElectronicJournal.obj
 0001:00000dd8       ??_G?$CComObject@V?$CComEnum@UIEnumConnectionPoints@@$1?_GUID_b196b285_bab4_101a_b69c_00aa00341d07@@3U__s_GUID@@BPEAUIConnectionPoint@@V?$_CopyInterface@UIConnectionPoint@@@ATL@@VCComSingleThreadModel@6@@ATL@@@ATL@@UEAAPEAXI@Z 0000000180001dd8 f i ElectronicJournal.obj
 0001:00000dd8       ??_E?$CComObject@V?$CComEnum@UIEnumConnectionPoints@@$1?_GUID_b196b285_bab4_101a_b69c_00aa00341d07@@3U__s_GUID@@BPEAUIConnectionPoint@@V?$_CopyInterface@UIConnectionPoint@@@ATL@@VCComSingleThreadModel@6@@ATL@@@ATL@@UEAAPEAXI@Z 0000000180001dd8 f i ElectronicJournal.obj
 0001:00000e30       ?AddRef@?$CComObjectCached@VCComClassFactory@ATL@@@ATL@@UEAAKXZ 0000000180001e30 f i ElectronicJournal.obj
 0001:00000e5c       ?Release@?$CComObjectCached@VCComClassFactory@ATL@@@ATL@@UEAAKXZ 0000000180001e5c f i ElectronicJournal.obj
 0001:00000e9c       ?QueryInterface@?$CComObjectCached@VCComClassFactory@ATL@@@ATL@@UEAAJAEBU_GUID@@PEAPEAX@Z 0000000180001e9c f i ElectronicJournal.obj
 0001:00000eb0       ??_E?$CComObjectCached@VCComClassFactory@ATL@@@ATL@@UEAAPEAXI@Z 0000000180001eb0 f i ElectronicJournal.obj
 0001:00000eb0       ??_G?$CComObjectCached@VCComClassFactory@ATL@@@ATL@@UEAAPEAXI@Z 0000000180001eb0 f i ElectronicJournal.obj
 0001:00000f08       ?AddRef@?$CComAggObject@VCOPOSElectronicJournal@@@ATL@@UEAAKXZ 0000000180001f08 f i ElectronicJournal.obj
 0001:00000f14       ?Release@?$CComAggObject@VCOPOSElectronicJournal@@@ATL@@UEAAKXZ 0000000180001f14 f i ElectronicJournal.obj
 0001:00000f68       ?QueryInterface@?$CComAggObject@VCOPOSElectronicJournal@@@ATL@@UEAAJAEBU_GUID@@PEAPEAX@Z 0000000180001f68 f i ElectronicJournal.obj
 0001:00000fc8       ?AddRef@?$CComContainedObject@VCOPOSElectronicJournal@@@ATL@@UEAAKXZ 0000000180001fc8 f i ElectronicJournal.obj
 0001:00000fd8       ?Release@?$CComContainedObject@VCOPOSElectronicJournal@@@ATL@@UEAAKXZ 0000000180001fd8 f i ElectronicJournal.obj
 0001:00000fe8       ?QueryInterface@?$CComContainedObject@VCOPOSElectronicJournal@@@ATL@@UEAAJAEBU_GUID@@PEAPEAX@Z 0000000180001fe8 f i ElectronicJournal.obj
 0001:00000ff8       ??_E?$CComAggObject@VCOPOSElectronicJournal@@@ATL@@UEAAPEAXI@Z 0000000180001ff8 f i ElectronicJournal.obj
 0001:00000ff8       ??_G?$CComAggObject@VCOPOSElectronicJournal@@@ATL@@UEAAPEAXI@Z 0000000180001ff8 f i ElectronicJournal.obj
 0001:00001050       ?AddRef@?$CComObject@VCOPOSElectronicJournal@@@ATL@@UEAAKXZ 0000000180002050 f i ElectronicJournal.obj
 0001:00001060       ?Release@?$CComObject@VCOPOSElectronicJournal@@@ATL@@UEAAKXZ 0000000180002060 f i ElectronicJournal.obj
 0001:000010b8       ?QueryInterface@?$CComObject@VCOPOSElectronicJournal@@@ATL@@UEAAJAEBU_GUID@@PEAPEAX@Z 00000001800020b8 f i ElectronicJournal.obj
 0001:000010cc       ?OnDrawAdvanced@CComControlBase@ATL@@UEAAJAEAUATL_DRAWINFO@@@Z 00000001800020cc f i ElectronicJournal.obj
 0001:000011ec       ?OnFinalMessage@?$CWindowImplBaseT@VCWindow@ATL@@V?$CWinTraits@$0FGAAAAAA@$0A@@2@@ATL@@UEAAXPEAUHWND__@@@Z 00000001800021ec f i ElectronicJournal.obj
 0001:000011ec       ?ObjectMain@CComObjectRootBase@ATL@@SAX_N@Z 00000001800021ec f i ElectronicJournal.obj
 0001:000011f0       ?CreateInstance@CComClassFactory@ATL@@UEAAJPEAUIUnknown@@AEBU_GUID@@PEAPEAX@Z 00000001800021f0 f i ElectronicJournal.obj
 0001:00001250       ?LockServer@CComClassFactory@ATL@@UEAAJH@Z 0000000180002250 f i ElectronicJournal.obj
 0001:00001274       ??_ECComClassFactory@ATL@@UEAAPEAXI@Z 0000000180002274 f i ElectronicJournal.obj
 0001:00001274       ??_GCComClassFactory@ATL@@UEAAPEAXI@Z 0000000180002274 f i ElectronicJournal.obj
 0001:000012c4       ?Next@?$CComEnumImpl@UIEnumConnections@@$1?_GUID_b196b287_bab4_101a_b69c_00aa00341d07@@3U__s_GUID@@BUtagCONNECTDATA@@V?$_Copy@UtagCONNECTDATA@@@ATL@@@ATL@@UEAAJKPEAUtagCONNECTDATA@@PEAK@Z 00000001800022c4 f i ElectronicJournal.obj
 0001:00001398       ?Skip@?$CComEnumImpl@UIEnumConnections@@$1?_GUID_b196b287_bab4_101a_b69c_00aa00341d07@@3U__s_GUID@@BUtagCONNECTDATA@@V?$_Copy@UtagCONNECTDATA@@@ATL@@@ATL@@UEAAJK@Z 0000000180002398 f i ElectronicJournal.obj
 0001:000013c4       ?Clone@?$CComEnumImpl@UIEnumConnections@@$1?_GUID_b196b287_bab4_101a_b69c_00aa00341d07@@3U__s_GUID@@BUtagCONNECTDATA@@V?$_Copy@UtagCONNECTDATA@@@ATL@@@ATL@@UEAAJPEAPEAUIEnumConnections@@@Z 00000001800023c4 f i ElectronicJournal.obj
 0001:000014ec       ?QueryInterface@?$CComObject@V?$CComEnum@UIEnumConnections@@$1?_GUID_b196b287_bab4_101a_b69c_00aa00341d07@@3U__s_GUID@@BUtagCONNECTDATA@@V?$_Copy@UtagCONNECTDATA@@@ATL@@VCComSingleThreadModel@6@@ATL@@@ATL@@UEAAJAEBU_GUID@@PEAPEAX@Z 00000001800024ec f i ElectronicJournal.obj
 0001:00001500       ??_E?$CComObject@V?$CComEnum@UIEnumConnections@@$1?_GUID_b196b287_bab4_101a_b69c_00aa00341d07@@3U__s_GUID@@BUtagCONNECTDATA@@V?$_Copy@UtagCONNECTDATA@@@ATL@@VCComSingleThreadModel@6@@ATL@@@ATL@@UEAAPEAXI@Z 0000000180002500 f i ElectronicJournal.obj
 0001:00001500       ??_G?$CComObject@V?$CComEnum@UIEnumConnections@@$1?_GUID_b196b287_bab4_101a_b69c_00aa00341d07@@3U__s_GUID@@BUtagCONNECTDATA@@V?$_Copy@UtagCONNECTDATA@@@ATL@@VCComSingleThreadModel@6@@ATL@@@ATL@@UEAAPEAXI@Z 0000000180002500 f i ElectronicJournal.obj
 0001:00001558       ??_E?$CComObject@VCOPOSElectronicJournal@@@ATL@@W7EAAPEAXI@Z 0000000180002558 f i ElectronicJournal.obj
 0001:00001564       ??_E?$CComObject@VCOPOSElectronicJournal@@@ATL@@WHA@EAAPEAXI@Z 0000000180002564 f i ElectronicJournal.obj
 0001:00001570       ?QueryInterface@?$CComObject@VCOPOSElectronicJournal@@@ATL@@WLI@EAAJAEBU_GUID@@PEAPEAX@Z 0000000180002570 f i ElectronicJournal.obj
 0001:0000157c       ?AddRef@?$CComObject@VCOPOSElectronicJournal@@@ATL@@WLI@EAAKXZ 000000018000257c f i ElectronicJournal.obj
 0001:00001588       ?Release@?$CComObject@VCOPOSElectronicJournal@@@ATL@@WLI@EAAKXZ 0000000180002588 f i ElectronicJournal.obj
 0001:00001594       ?QueryInterface@?$CComObject@VCOPOSElectronicJournal@@@ATL@@WMA@EAAJAEBU_GUID@@PEAPEAX@Z 0000000180002594 f i ElectronicJournal.obj
 0001:000015a0       ?AddRef@?$CComObject@VCOPOSElectronicJournal@@@ATL@@WMA@EAAKXZ 00000001800025a0 f i ElectronicJournal.obj
 0001:000015ac       ?Release@?$CComObject@VCOPOSElectronicJournal@@@ATL@@WMA@EAAKXZ 00000001800025ac f i ElectronicJournal.obj
 0001:000015b8       ?QueryInterface@?$CComObject@VCOPOSElectronicJournal@@@ATL@@WMI@EAAJAEBU_GUID@@PEAPEAX@Z 00000001800025b8 f i ElectronicJournal.obj
 0001:000015c4       ?AddRef@?$CComObject@VCOPOSElectronicJournal@@@ATL@@WMI@EAAKXZ 00000001800025c4 f i ElectronicJournal.obj
 0001:000015d0       ?Release@?$CComObject@VCOPOSElectronicJournal@@@ATL@@WMI@EAAKXZ 00000001800025d0 f i ElectronicJournal.obj
 0001:000015dc       ?QueryInterface@?$CComObject@VCOPOSElectronicJournal@@@ATL@@WNA@EAAJAEBU_GUID@@PEAPEAX@Z 00000001800025dc f i ElectronicJournal.obj
 0001:000015e8       ?AddRef@?$CComObject@VCOPOSElectronicJournal@@@ATL@@WNA@EAAKXZ 00000001800025e8 f i ElectronicJournal.obj
 0001:000015f4       ?Release@?$CComObject@VCOPOSElectronicJournal@@@ATL@@WNA@EAAKXZ 00000001800025f4 f i ElectronicJournal.obj
 0001:00001600       ?QueryInterface@?$CComObject@VCOPOSElectronicJournal@@@ATL@@WNI@EAAJAEBU_GUID@@PEAPEAX@Z 0000000180002600 f i ElectronicJournal.obj
 0001:0000160c       ?AddRef@?$CComObject@VCOPOSElectronicJournal@@@ATL@@WNI@EAAKXZ 000000018000260c f i ElectronicJournal.obj
 0001:00001618       ?Release@?$CComObject@VCOPOSElectronicJournal@@@ATL@@WNI@EAAKXZ 0000000180002618 f i ElectronicJournal.obj
 0001:00001624       ?QueryInterface@?$CComObject@VCOPOSElectronicJournal@@@ATL@@WOA@EAAJAEBU_GUID@@PEAPEAX@Z 0000000180002624 f i ElectronicJournal.obj
 0001:00001630       ?AddRef@?$CComObject@VCOPOSElectronicJournal@@@ATL@@WOA@EAAKXZ 0000000180002630 f i ElectronicJournal.obj
 0001:0000163c       ?Release@?$CComObject@VCOPOSElectronicJournal@@@ATL@@WOA@EAAKXZ 000000018000263c f i ElectronicJournal.obj
 0001:00001648       ?QueryInterface@?$CComObject@VCOPOSElectronicJournal@@@ATL@@WOI@EAAJAEBU_GUID@@PEAPEAX@Z 0000000180002648 f i ElectronicJournal.obj
 0001:00001654       ?AddRef@?$CComObject@VCOPOSElectronicJournal@@@ATL@@WOI@EAAKXZ 0000000180002654 f i ElectronicJournal.obj
 0001:00001660       ?Release@?$CComObject@VCOPOSElectronicJournal@@@ATL@@WOI@EAAKXZ 0000000180002660 f i ElectronicJournal.obj
 0001:0000166c       ?QueryInterface@?$CComObject@VCOPOSElectronicJournal@@@ATL@@WPA@EAAJAEBU_GUID@@PEAPEAX@Z 000000018000266c f i ElectronicJournal.obj
 0001:00001678       ?AddRef@?$CComObject@VCOPOSElectronicJournal@@@ATL@@WPA@EAAKXZ 0000000180002678 f i ElectronicJournal.obj
 0001:00001684       ?Release@?$CComObject@VCOPOSElectronicJournal@@@ATL@@WPA@EAAKXZ 0000000180002684 f i ElectronicJournal.obj
 0001:00001690       ?QueryInterface@?$CComObject@VCOPOSElectronicJournal@@@ATL@@WPI@EAAJAEBU_GUID@@PEAPEAX@Z 0000000180002690 f i ElectronicJournal.obj
 0001:0000169c       ?AddRef@?$CComObject@VCOPOSElectronicJournal@@@ATL@@WPI@EAAKXZ 000000018000269c f i ElectronicJournal.obj
 0001:000016a8       ?Release@?$CComObject@VCOPOSElectronicJournal@@@ATL@@WPI@EAAKXZ 00000001800026a8 f i ElectronicJournal.obj
 0001:000016b4       ?QueryInterface@?$CComObject@VCOPOSElectronicJournal@@@ATL@@WBAA@EAAJAEBU_GUID@@PEAPEAX@Z 00000001800026b4 f i ElectronicJournal.obj
 0001:000016c0       ?AddRef@?$CComObject@VCOPOSElectronicJournal@@@ATL@@WBAA@EAAKXZ 00000001800026c0 f i ElectronicJournal.obj
 0001:000016cc       ?Release@?$CComObject@VCOPOSElectronicJournal@@@ATL@@WBAA@EAAKXZ 00000001800026cc f i ElectronicJournal.obj
 0001:000016d8       ?QueryInterface@?$CComObject@VCOPOSElectronicJournal@@@ATL@@WBAI@EAAJAEBU_GUID@@PEAPEAX@Z 00000001800026d8 f i ElectronicJournal.obj
 0001:000016e4       ?AddRef@?$CComObject@VCOPOSElectronicJournal@@@ATL@@WBAI@EAAKXZ 00000001800026e4 f i ElectronicJournal.obj
 0001:000016f0       ?Release@?$CComObject@VCOPOSElectronicJournal@@@ATL@@WBAI@EAAKXZ 00000001800026f0 f i ElectronicJournal.obj
 0001:000016fc       ?QueryInterface@?$CComObject@VCOPOSElectronicJournal@@@ATL@@WBBA@EAAJAEBU_GUID@@PEAPEAX@Z 00000001800026fc f i ElectronicJournal.obj
 0001:00001708       ?AddRef@?$CComObject@VCOPOSElectronicJournal@@@ATL@@WBBA@EAAKXZ 0000000180002708 f i ElectronicJournal.obj
 0001:00001714       ?Release@?$CComObject@VCOPOSElectronicJournal@@@ATL@@WBBA@EAAKXZ 0000000180002714 f i ElectronicJournal.obj
 0001:00001720       ?QueryInterface@?$CComObject@VCOPOSElectronicJournal@@@ATL@@WBBI@EAAJAEBU_GUID@@PEAPEAX@Z 0000000180002720 f i ElectronicJournal.obj
 0001:0000172c       ?AddRef@?$CComObject@VCOPOSElectronicJournal@@@ATL@@WBBI@EAAKXZ 000000018000272c f i ElectronicJournal.obj
 0001:00001738       ?Release@?$CComObject@VCOPOSElectronicJournal@@@ATL@@WBBI@EAAKXZ 0000000180002738 f i ElectronicJournal.obj
 0001:00001744       ?AddRef@?$CComObject@VCOPOSElectronicJournal@@@ATL@@WBCI@EAAKXZ 0000000180002744 f i ElectronicJournal.obj
 0001:00001750       ?Release@?$CComObject@VCOPOSElectronicJournal@@@ATL@@WBCI@EAAKXZ 0000000180002750 f i ElectronicJournal.obj
 0001:0000175c       ?AddRef@?$CComObject@VCOPOSElectronicJournal@@@ATL@@WBEA@EAAKXZ 000000018000275c f i ElectronicJournal.obj
 0001:00001768       ?Release@?$CComObject@VCOPOSElectronicJournal@@@ATL@@WBEA@EAAKXZ 0000000180002768 f i ElectronicJournal.obj
 0001:00001774       ??_E?$CComContainedObject@VCOPOSElectronicJournal@@@ATL@@W7EAAPEAXI@Z 0000000180002774 f i ElectronicJournal.obj
 0001:00001780       ??_E?$CComContainedObject@VCOPOSElectronicJournal@@@ATL@@WHA@EAAPEAXI@Z 0000000180002780 f i ElectronicJournal.obj
 0001:0000178c       ?QueryInterface@?$CComContainedObject@VCOPOSElectronicJournal@@@ATL@@WLI@EAAJAEBU_GUID@@PEAPEAX@Z 000000018000278c f i ElectronicJournal.obj
 0001:00001798       ?AddRef@?$CComContainedObject@VCOPOSElectronicJournal@@@ATL@@WLI@EAAKXZ 0000000180002798 f i ElectronicJournal.obj
 0001:000017a4       ?Release@?$CComContainedObject@VCOPOSElectronicJournal@@@ATL@@WLI@EAAKXZ 00000001800027a4 f i ElectronicJournal.obj
 0001:000017b0       ?QueryInterface@?$CComContainedObject@VCOPOSElectronicJournal@@@ATL@@WMA@EAAJAEBU_GUID@@PEAPEAX@Z 00000001800027b0 f i ElectronicJournal.obj
 0001:000017bc       ?AddRef@?$CComContainedObject@VCOPOSElectronicJournal@@@ATL@@WMA@EAAKXZ 00000001800027bc f i ElectronicJournal.obj
 0001:000017c8       ?Release@?$CComContainedObject@VCOPOSElectronicJournal@@@ATL@@WMA@EAAKXZ 00000001800027c8 f i ElectronicJournal.obj
 0001:000017d4       ?QueryInterface@?$CComContainedObject@VCOPOSElectronicJournal@@@ATL@@WMI@EAAJAEBU_GUID@@PEAPEAX@Z 00000001800027d4 f i ElectronicJournal.obj
 0001:000017e0       ?AddRef@?$CComContainedObject@VCOPOSElectronicJournal@@@ATL@@WMI@EAAKXZ 00000001800027e0 f i ElectronicJournal.obj
 0001:000017ec       ?Release@?$CComContainedObject@VCOPOSElectronicJournal@@@ATL@@WMI@EAAKXZ 00000001800027ec f i ElectronicJournal.obj
 0001:000017f8       ?QueryInterface@?$CComContainedObject@VCOPOSElectronicJournal@@@ATL@@WNA@EAAJAEBU_GUID@@PEAPEAX@Z 00000001800027f8 f i ElectronicJournal.obj
 0001:00001804       ?AddRef@?$CComContainedObject@VCOPOSElectronicJournal@@@ATL@@WNA@EAAKXZ 0000000180002804 f i ElectronicJournal.obj
 0001:00001810       ?Release@?$CComContainedObject@VCOPOSElectronicJournal@@@ATL@@WNA@EAAKXZ 0000000180002810 f i ElectronicJournal.obj
 0001:0000181c       ?QueryInterface@?$CComContainedObject@VCOPOSElectronicJournal@@@ATL@@WNI@EAAJAEBU_GUID@@PEAPEAX@Z 000000018000281c f i ElectronicJournal.obj
 0001:00001828       ?AddRef@?$CComContainedObject@VCOPOSElectronicJournal@@@ATL@@WNI@EAAKXZ 0000000180002828 f i ElectronicJournal.obj
 0001:00001834       ?Release@?$CComContainedObject@VCOPOSElectronicJournal@@@ATL@@WNI@EAAKXZ 0000000180002834 f i ElectronicJournal.obj
 0001:00001840       ?QueryInterface@?$CComContainedObject@VCOPOSElectronicJournal@@@ATL@@WOA@EAAJAEBU_GUID@@PEAPEAX@Z 0000000180002840 f i ElectronicJournal.obj
 0001:0000184c       ?AddRef@?$CComContainedObject@VCOPOSElectronicJournal@@@ATL@@WOA@EAAKXZ 000000018000284c f i ElectronicJournal.obj
 0001:00001858       ?Release@?$CComContainedObject@VCOPOSElectronicJournal@@@ATL@@WOA@EAAKXZ 0000000180002858 f i ElectronicJournal.obj
 0001:00001864       ?QueryInterface@?$CComContainedObject@VCOPOSElectronicJournal@@@ATL@@WOI@EAAJAEBU_GUID@@PEAPEAX@Z 0000000180002864 f i ElectronicJournal.obj
 0001:00001870       ?AddRef@?$CComContainedObject@VCOPOSElectronicJournal@@@ATL@@WOI@EAAKXZ 0000000180002870 f i ElectronicJournal.obj
 0001:0000187c       ?Release@?$CComContainedObject@VCOPOSElectronicJournal@@@ATL@@WOI@EAAKXZ 000000018000287c f i ElectronicJournal.obj
 0001:00001888       ?QueryInterface@?$CComContainedObject@VCOPOSElectronicJournal@@@ATL@@WPA@EAAJAEBU_GUID@@PEAPEAX@Z 0000000180002888 f i ElectronicJournal.obj
 0001:00001894       ?AddRef@?$CComContainedObject@VCOPOSElectronicJournal@@@ATL@@WPA@EAAKXZ 0000000180002894 f i ElectronicJournal.obj
 0001:000018a0       ?Release@?$CComContainedObject@VCOPOSElectronicJournal@@@ATL@@WPA@EAAKXZ 00000001800028a0 f i ElectronicJournal.obj
 0001:000018ac       ?QueryInterface@?$CComContainedObject@VCOPOSElectronicJournal@@@ATL@@WPI@EAAJAEBU_GUID@@PEAPEAX@Z 00000001800028ac f i ElectronicJournal.obj
 0001:000018b8       ?AddRef@?$CComContainedObject@VCOPOSElectronicJournal@@@ATL@@WPI@EAAKXZ 00000001800028b8 f i ElectronicJournal.obj
 0001:000018c4       ?Release@?$CComContainedObject@VCOPOSElectronicJournal@@@ATL@@WPI@EAAKXZ 00000001800028c4 f i ElectronicJournal.obj
 0001:000018d0       ?QueryInterface@?$CComContainedObject@VCOPOSElectronicJournal@@@ATL@@WBAA@EAAJAEBU_GUID@@PEAPEAX@Z 00000001800028d0 f i ElectronicJournal.obj
 0001:000018dc       ?AddRef@?$CComContainedObject@VCOPOSElectronicJournal@@@ATL@@WBAA@EAAKXZ 00000001800028dc f i ElectronicJournal.obj
 0001:000018e8       ?Release@?$CComContainedObject@VCOPOSElectronicJournal@@@ATL@@WBAA@EAAKXZ 00000001800028e8 f i ElectronicJournal.obj
 0001:000018f4       ?QueryInterface@?$CComContainedObject@VCOPOSElectronicJournal@@@ATL@@WBAI@EAAJAEBU_GUID@@PEAPEAX@Z 00000001800028f4 f i ElectronicJournal.obj
 0001:00001900       ?AddRef@?$CComContainedObject@VCOPOSElectronicJournal@@@ATL@@WBAI@EAAKXZ 0000000180002900 f i ElectronicJournal.obj
 0001:0000190c       ?Release@?$CComContainedObject@VCOPOSElectronicJournal@@@ATL@@WBAI@EAAKXZ 000000018000290c f i ElectronicJournal.obj
 0001:00001918       ?QueryInterface@?$CComContainedObject@VCOPOSElectronicJournal@@@ATL@@WBBA@EAAJAEBU_GUID@@PEAPEAX@Z 0000000180002918 f i ElectronicJournal.obj
 0001:00001924       ?AddRef@?$CComContainedObject@VCOPOSElectronicJournal@@@ATL@@WBBA@EAAKXZ 0000000180002924 f i ElectronicJournal.obj
 0001:00001930       ?Release@?$CComContainedObject@VCOPOSElectronicJournal@@@ATL@@WBBA@EAAKXZ 0000000180002930 f i ElectronicJournal.obj
 0001:0000193c       ?QueryInterface@?$CComContainedObject@VCOPOSElectronicJournal@@@ATL@@WBBI@EAAJAEBU_GUID@@PEAPEAX@Z 000000018000293c f i ElectronicJournal.obj
 0001:00001948       ?AddRef@?$CComContainedObject@VCOPOSElectronicJournal@@@ATL@@WBBI@EAAKXZ 0000000180002948 f i ElectronicJournal.obj
 0001:00001954       ?Release@?$CComContainedObject@VCOPOSElectronicJournal@@@ATL@@WBBI@EAAKXZ 0000000180002954 f i ElectronicJournal.obj
 0001:00001960       ?AddRef@?$CComContainedObject@VCOPOSElectronicJournal@@@ATL@@WBCI@EAAKXZ 0000000180002960 f i ElectronicJournal.obj
 0001:0000196c       ?Release@?$CComContainedObject@VCOPOSElectronicJournal@@@ATL@@WBCI@EAAKXZ 000000018000296c f i ElectronicJournal.obj
 0001:00001978       ?AddRef@?$CComContainedObject@VCOPOSElectronicJournal@@@ATL@@WBEA@EAAKXZ 0000000180002978 f i ElectronicJournal.obj
 0001:00001984       ?Release@?$CComContainedObject@VCOPOSElectronicJournal@@@ATL@@WBEA@EAAKXZ 0000000180002984 f i ElectronicJournal.obj
 0001:00001990       ?GetWindowProc@?$CWindowImplBaseT@VCWindow@ATL@@V?$CWinTraits@$0FGAAAAAA@$0A@@2@@ATL@@UEAAP6A_JPEAUHWND__@@I_K_J@ZXZ 0000000180002990 f i ElectronicJournal.obj
 0001:00001998       ?StartWindowProc@?$CWindowImplBaseT@VCWindow@ATL@@V?$CWinTraits@$0FGAAAAAA@$0A@@2@@ATL@@SA_JPEAUHWND__@@I_K_J@Z 0000000180002998 f i ElectronicJournal.obj
 0001:00001a5c       ?Lock@CAtlModule@ATL@@UEAAJXZ 0000000180002a5c f i ElectronicJournal.obj
 0001:00001a6c       ?Unlock@CAtlModule@ATL@@UEAAJXZ 0000000180002a6c f i ElectronicJournal.obj
 0001:00001a78       ?GetLockCount@CAtlModule@ATL@@UEAAJXZ 0000000180002a78 f i ElectronicJournal.obj
 0001:00001a7c       ?GetGITPtr@CAtlModule@ATL@@UEAAJPEAPEAUIGlobalInterfaceTable@@@Z 0000000180002a7c f i ElectronicJournal.obj
 0001:00001aec       ?GetTypeInfoCount@?$IDispatchImpl@UIOPOSElectronicJournal@@$1?IID_IOPOSElectronicJournal@@3U_GUID@@B$1?LIBID_OposElectronicJournal_CCO@@3U3@B$00$0A@VCComTypeInfoHolder@ATL@@@ATL@@UEAAJPEAI@Z 0000000180002aec f i ElectronicJournal.obj
 0001:00001b00       ?GetTypeInfo@?$IDispatchImpl@UIOPOSElectronicJournal@@$1?IID_IOPOSElectronicJournal@@3U_GUID@@B$1?LIBID_OposElectronicJournal_CCO@@3U3@B$00$0A@VCComTypeInfoHolder@ATL@@@ATL@@UEAAJIKPEAPEAUITypeInfo@@@Z 0000000180002b00 f i ElectronicJournal.obj
 0001:00001b64       ?GetIDsOfNames@?$IDispatchImpl@UIOPOSElectronicJournal@@$1?IID_IOPOSElectronicJournal@@3U_GUID@@B$1?LIBID_OposElectronicJournal_CCO@@3U3@B$00$0A@VCComTypeInfoHolder@ATL@@@ATL@@UEAAJAEBU_GUID@@PEAPEA_WIKPEAJ@Z 0000000180002b64 f i ElectronicJournal.obj
 0001:00001b70       ?Invoke@?$IDispatchImpl@UIOPOSElectronicJournal@@$1?IID_IOPOSElectronicJournal@@3U_GUID@@B$1?LIBID_OposElectronicJournal_CCO@@3U3@B$00$0A@VCComTypeInfoHolder@ATL@@@ATL@@UEAAJJAEBU_GUID@@KGPEAUtagDISPPARAMS@@PEAUtagVARIANT@@PEAUtagEXCEPINFO@@PEAI@Z 0000000180002b70 f i ElectronicJournal.obj
 0001:00001c00       ?CreateControlWindow@?$CComControl@VCOPOSElectronicJournal@@V?$CWindowImpl@VCOPOSElectronicJournal@@VCWindow@ATL@@V?$CWinTraits@$0FGAAAAAA@$0A@@3@@ATL@@@ATL@@UEAAPEAUHWND__@@PEAU3@AEAUtagRECT@@@Z 0000000180002c00 f i ElectronicJournal.obj
 0001:00001c38       ?ControlQueryInterface@?$CComControl@VCOPOSElectronicJournal@@V?$CWindowImpl@VCOPOSElectronicJournal@@VCWindow@ATL@@V?$CWinTraits@$0FGAAAAAA@$0A@@3@@ATL@@@ATL@@UEAAJAEBU_GUID@@PEAPEAX@Z 0000000180002c38 f i ElectronicJournal.obj
 0001:00001c4c       ?GetUserClassID@?$IOleObjectImpl@VCOPOSElectronicJournal@@@ATL@@UEAAJPEAU_GUID@@@Z 0000000180002c4c f i ElectronicJournal.obj
 0001:00001c4c       ?GetClassID@?$IPersistStreamInitImpl@VCOPOSElectronicJournal@@@ATL@@UEAAJPEAU_GUID@@@Z 0000000180002c4c f i ElectronicJournal.obj
 0001:00001c4c       ?GetClassID@?$IPersistStorageImpl@VCOPOSElectronicJournal@@@ATL@@UEAAJPEAU_GUID@@@Z 0000000180002c4c f i ElectronicJournal.obj
 0001:00001c68       ?IsDirty@?$IPersistStreamInitImpl@VCOPOSElectronicJournal@@@ATL@@UEAAJXZ 0000000180002c68 f i ElectronicJournal.obj
 0001:00001c84       ?Load@?$IPersistStreamInitImpl@VCOPOSElectronicJournal@@@ATL@@UEAAJPEAUIStream@@@Z 0000000180002c84 f i ElectronicJournal.obj
 0001:00001cd4       ?Save@?$IPersistStreamInitImpl@VCOPOSElectronicJournal@@@ATL@@UEAAJPEAUIStream@@H@Z 0000000180002cd4 f i ElectronicJournal.obj
 0001:00001d38       ?GetSizeMax@?$IPersistStreamInitImpl@VCOPOSElectronicJournal@@@ATL@@UEAAJPEAT_ULARGE_INTEGER@@@Z 0000000180002d38 f i ElectronicJournal.obj
 0001:00001f64       ?InitNew@?$IPersistStreamInitImpl@VCOPOSElectronicJournal@@@ATL@@UEAAJXZ 0000000180002f64 f i ElectronicJournal.obj
 0001:00001f7c       ?SetClientSite@?$IOleObjectImpl@VCOPOSElectronicJournal@@@ATL@@UEAAJPEAUIOleClientSite@@@Z 0000000180002f7c f i ElectronicJournal.obj
 0001:00001f98       ?GetClientSite@?$IOleObjectImpl@VCOPOSElectronicJournal@@@ATL@@UEAAJPEAPEAUIOleClientSite@@@Z 0000000180002f98 f i ElectronicJournal.obj
 0001:00001fe0       ?Close@?$IOleObjectImpl@VCOPOSElectronicJournal@@@ATL@@UEAAJK@Z 0000000180002fe0 f i ElectronicJournal.obj
 0001:00001ffc       ?AddCommonRGSReplacements@?$CAtlModuleT@VCComModule@ATL@@@ATL@@UEAAJPEAUIRegistrarBase@@@Z 0000000180002ffc f i ElectronicJournal.obj
 0001:00002014       ?DoVerb@?$IOleObjectImpl@VCOPOSElectronicJournal@@@ATL@@UEAAJJPEAUtagMSG@@PEAUIOleClientSite@@JPEAUHWND__@@PEBUtagRECT@@@Z 0000000180003014 f i ElectronicJournal.obj
 0001:000021b8       ?EnumVerbs@?$IOleObjectImpl@VCOPOSElectronicJournal@@@ATL@@UEAAJPEAPEAUIEnumOLEVERB@@@Z 00000001800031b8 f i ElectronicJournal.obj
 0001:000021d4       ?GetUserType@?$IOleObjectImpl@VCOPOSElectronicJournal@@@ATL@@UEAAJKPEAPEA_W@Z 00000001800031d4 f i ElectronicJournal.obj
 0001:000021e4       ?SetExtent@?$IOleObjectImpl@VCOPOSElectronicJournal@@@ATL@@UEAAJKPEAUtagSIZE@@@Z 00000001800031e4 f i ElectronicJournal.obj
 0001:00002200       ?GetExtent@?$IOleObjectImpl@VCOPOSElectronicJournal@@@ATL@@UEAAJKPEAUtagSIZE@@@Z 0000000180003200 f i ElectronicJournal.obj
 0001:00002230       ?Advise@?$IOleObjectImpl@VCOPOSElectronicJournal@@@ATL@@UEAAJPEAUIAdviseSink@@PEAK@Z 0000000180003230 f i ElectronicJournal.obj
 0001:0000228c       ?Unadvise@?$IOleObjectImpl@VCOPOSElectronicJournal@@@ATL@@UEAAJK@Z 000000018000328c f i ElectronicJournal.obj
 0001:000022c4       ?EnumAdvise@?$IOleObjectImpl@VCOPOSElectronicJournal@@@ATL@@UEAAJPEAPEAUIEnumSTATDATA@@@Z 00000001800032c4 f i ElectronicJournal.obj
 0001:0000230c       ?GetMiscStatus@?$IOleObjectImpl@VCOPOSElectronicJournal@@@ATL@@UEAAJKPEAK@Z 000000018000330c f i ElectronicJournal.obj
 0001:0000231c       ?GetWindow@?$IOleInPlaceActiveObjectImpl@VCOPOSElectronicJournal@@@ATL@@UEAAJPEAPEAUHWND__@@@Z 000000018000331c f i ElectronicJournal.obj
 0001:00002370       ?TranslateAcceleratorW@?$IOleInPlaceActiveObjectImpl@VCOPOSElectronicJournal@@@ATL@@UEAAJPEAUtagMSG@@@Z 0000000180003370 f i ElectronicJournal.obj
 0001:00002464       ?OnDocWindowActivate@?$IOleInPlaceActiveObjectImpl@VCOPOSElectronicJournal@@@ATL@@UEAAJH@Z 0000000180003464 f i ElectronicJournal.obj
 0001:00002490       ?UpdateRegistryFromResourceD@CComModule@ATL@@UEAAJPEB_WHPEAU_ATL_REGMAP_ENTRY@2@@Z 0000000180003490 f i ElectronicJournal.obj
 0001:00002490       ?UpdateRegistryFromResourceD@CComModule@ATL@@UEAAJIHPEAU_ATL_REGMAP_ENTRY@2@@Z 0000000180003490 f i ElectronicJournal.obj
 0001:00002498       ?UpdateRegistryFromResource@CComModule@ATL@@UEAAJPEB_WHPEAU_ATL_REGMAP_ENTRY@2@@Z 0000000180003498 f i ElectronicJournal.obj
 0001:000024a0       ?UpdateRegistryFromResource@CComModule@ATL@@UEAAJIHPEAU_ATL_REGMAP_ENTRY@2@@Z 00000001800034a0 f i ElectronicJournal.obj
 0001:000024a8       ?Draw@?$IViewObjectExImpl@VCOPOSElectronicJournal@@@ATL@@UEAAJKJPEAXPEAUtagDVTARGETDEVICE@@PEAUHDC__@@2PEBU_RECTL@@3P6AH_K@Z4@Z 00000001800034a8 f i ElectronicJournal.obj
 0001:0000250c       ?SetAdvise@?$IViewObjectExImpl@VCOPOSElectronicJournal@@@ATL@@UEAAJKKPEAUIAdviseSink@@@Z 000000018000350c f i ElectronicJournal.obj
 0001:00002560       ?GetAdvise@?$IViewObjectExImpl@VCOPOSElectronicJournal@@@ATL@@UEAAJPEAK0PEAPEAUIAdviseSink@@@Z 0000000180003560 f i ElectronicJournal.obj
 0001:0000259c       ?GetExtent@?$IViewObjectExImpl@VCOPOSElectronicJournal@@@ATL@@UEAAJKJPEAUtagDVTARGETDEVICE@@PEAUtagSIZE@@@Z 000000018000359c f i ElectronicJournal.obj
 0001:000025cc       ?GetViewStatus@?$IViewObjectExImpl@VCOPOSElectronicJournal@@@ATL@@UEAAJPEAK@Z 00000001800035cc f i ElectronicJournal.obj
 0001:000025e0       ?QueryHitPoint@?$IViewObjectExImpl@VCOPOSElectronicJournal@@@ATL@@UEAAJKPEBUtagRECT@@UtagPOINT@@JPEAK@Z 00000001800035e0 f i ElectronicJournal.obj
 0001:00002624       ?QueryHitRect@?$IViewObjectExImpl@VCOPOSElectronicJournal@@@ATL@@UEAAJKPEBUtagRECT@@0JPEAK@Z 0000000180003624 f i ElectronicJournal.obj
 0001:0000268c       ?GetNaturalExtent@?$IViewObjectExImpl@VCOPOSElectronicJournal@@@ATL@@UEAAJKJPEAUtagDVTARGETDEVICE@@PEAUHDC__@@PEAUtagExtentInfo@@PEAUtagSIZE@@@Z 000000018000368c f i ElectronicJournal.obj
 0001:000026d4       ?GetWindow@?$IOleInPlaceObjectWindowlessImpl@VCOPOSElectronicJournal@@@ATL@@UEAAJPEAPEAUHWND__@@@Z 00000001800036d4 f i ElectronicJournal.obj
 0001:00002728       ??_ECComModule@ATL@@UEAAPEAXI@Z 0000000180003728 f i ElectronicJournal.obj
 0001:00002728       ??_GCComModule@ATL@@UEAAPEAXI@Z 0000000180003728 f i ElectronicJournal.obj
 0001:000027a8       ?InPlaceDeactivate@?$IOleInPlaceObjectWindowlessImpl@VCOPOSElectronicJournal@@@ATL@@UEAAJXZ 00000001800037a8 f i ElectronicJournal.obj
 0001:000027c4       ?UIDeactivate@?$IOleInPlaceObjectWindowlessImpl@VCOPOSElectronicJournal@@@ATL@@UEAAJXZ 00000001800037c4 f i ElectronicJournal.obj
 0001:000027e0       ?SetObjectRects@?$IOleInPlaceObjectWindowlessImpl@VCOPOSElectronicJournal@@@ATL@@UEAAJPEBUtagRECT@@0@Z 00000001800037e0 f i ElectronicJournal.obj
 0001:000027fc       ?OnWindowMessage@?$IOleInPlaceObjectWindowlessImpl@VCOPOSElectronicJournal@@@ATL@@UEAAJI_K_JPEA_J@Z 00000001800037fc f i ElectronicJournal.obj
 0001:000028c4       ?EnumConnectionPoints@?$IConnectionPointContainerImpl@VCOPOSElectronicJournal@@@ATL@@UEAAJPEAPEAUIEnumConnectionPoints@@@Z 00000001800038c4 f i ElectronicJournal.obj
 0001:00002b0c       ?FindConnectionPoint@?$IConnectionPointContainerImpl@VCOPOSElectronicJournal@@@ATL@@UEAAJAEBU_GUID@@PEAPEAUIConnectionPoint@@@Z 0000000180003b0c f i ElectronicJournal.obj
 0001:00002bdc       ?IsDirty@?$IPersistStorageImpl@VCOPOSElectronicJournal@@@ATL@@UEAAJXZ 0000000180003bdc f i ElectronicJournal.obj
 0001:00002c20       ?InitNew@?$IPersistStorageImpl@VCOPOSElectronicJournal@@@ATL@@UEAAJPEAUIStorage@@@Z 0000000180003c20 f i ElectronicJournal.obj
 0001:00002c64       ?Load@?$IPersistStorageImpl@VCOPOSElectronicJournal@@@ATL@@UEAAJPEAUIStorage@@@Z 0000000180003c64 f i ElectronicJournal.obj
 0001:00002d04       ?Save@?$IPersistStorageImpl@VCOPOSElectronicJournal@@@ATL@@UEAAJPEAUIStorage@@H@Z 0000000180003d04 f i ElectronicJournal.obj
 0001:00002db4       ?GetPages@?$ISpecifyPropertyPagesImpl@VCOPOSElectronicJournal@@@ATL@@UEAAJPEAUtagCAUUID@@@Z 0000000180003db4 f i ElectronicJournal.obj
 0001:00002dc0       ?QuickActivate@?$IQuickActivateImpl@VCOPOSElectronicJournal@@@ATL@@UEAAJPEAUtagQACONTAINER@@PEAUtagQACONTROL@@@Z 0000000180003dc0 f i ElectronicJournal.obj
 0001:00002ddc       ?SetContentExtent@?$IQuickActivateImpl@VCOPOSElectronicJournal@@@ATL@@UEAAJPEAUtagSIZE@@@Z 0000000180003ddc f i ElectronicJournal.obj
 0001:00002e10       ?GetContentExtent@?$IQuickActivateImpl@VCOPOSElectronicJournal@@@ATL@@UEAAJPEAUtagSIZE@@@Z 0000000180003e10 f i ElectronicJournal.obj
 0001:00002e48       ?GetData@?$IDataObjectImpl@VCOPOSElectronicJournal@@@ATL@@UEAAJPEAUtagFORMATETC@@PEAUtagSTGMEDIUM@@@Z 0000000180003e48 f i ElectronicJournal.obj
 0001:00002e64       ?DAdvise@?$IDataObjectImpl@VCOPOSElectronicJournal@@@ATL@@UEAAJPEAUtagFORMATETC@@KPEAUIAdviseSink@@PEAK@Z 0000000180003e64 f i ElectronicJournal.obj
 0001:00002eec       ?DUnadvise@?$IDataObjectImpl@VCOPOSElectronicJournal@@@ATL@@UEAAJK@Z 0000000180003eec f i ElectronicJournal.obj
 0001:00002f18       ?EnumDAdvise@?$IDataObjectImpl@VCOPOSElectronicJournal@@@ATL@@UEAAJPEAPEAUIEnumSTATDATA@@@Z 0000000180003f18 f i ElectronicJournal.obj
 0001:00002f54       ?GetClassInfoW@?$IProvideClassInfo2Impl@$1?CLSID_OPOSElectronicJournal@@3U_GUID@@B$1?DIID__IOPOSElectronicJournalEvents@@3U2@B$1?LIBID_OposElectronicJournal_CCO@@3U2@B$00$0A@VCComTypeInfoHolder@ATL@@@ATL@@UEAAJPEAPEAUITypeInfo@@@Z 0000000180003f54 f i ElectronicJournal.obj
 0001:00002fac       ?GetGUID@?$IProvideClassInfo2Impl@$1?CLSID_OPOSElectronicJournal@@3U_GUID@@B$1?DIID__IOPOSElectronicJournalEvents@@3U2@B$1?LIBID_OposElectronicJournal_CCO@@3U2@B$00$0A@VCComTypeInfoHolder@ATL@@@ATL@@UEAAJKPEAU_GUID@@@Z 0000000180003fac f i ElectronicJournal.obj
 0001:00002fe0       ?GetInterfaceSafetyOptions@?$IObjectSafetyImpl@VCOPOSElectronicJournal@@$02@ATL@@UEAAJAEBU_GUID@@PEAK1@Z 0000000180003fe0 f i ElectronicJournal.obj
 0001:00003074       ?SetInterfaceSafetyOptions@?$IObjectSafetyImpl@VCOPOSElectronicJournal@@$02@ATL@@UEAAJAEBU_GUID@@KK@Z 0000000180004074 f i ElectronicJournal.obj
 0001:00003118       ?_LocCPQueryInterface@?$IConnectionPointImpl@VCOPOSElectronicJournal@@$1?IID_IPropertyNotifySink@@3U_GUID@@BVCComDynamicUnkArray@ATL@@@ATL@@UEAAJAEBU_GUID@@PEAPEAX@Z 0000000180004118 f i ElectronicJournal.obj
 0001:00003118       ?_LocCPQueryInterface@?$IConnectionPointImpl@VCOPOSElectronicJournal@@$1?DIID__IOPOSElectronicJournalEvents@@3U_GUID@@BVCComDynamicUnkArray@ATL@@@ATL@@UEAAJAEBU_GUID@@PEAPEAX@Z 0000000180004118 f i ElectronicJournal.obj
 0001:0000318c       ?GetConnectionInterface@?$IConnectionPointImpl@VCOPOSElectronicJournal@@$1?IID_IPropertyNotifySink@@3U_GUID@@BVCComDynamicUnkArray@ATL@@@ATL@@UEAAJPEAU_GUID@@@Z 000000018000418c f i ElectronicJournal.obj
 0001:000031a8       ?GetConnectionPointContainer@?$IConnectionPointImpl@VCOPOSElectronicJournal@@$1?IID_IPropertyNotifySink@@3U_GUID@@BVCComDynamicUnkArray@ATL@@@ATL@@UEAAJPEAPEAUIConnectionPointContainer@@@Z 00000001800041a8 f i ElectronicJournal.obj
 0001:000031c8       ?Advise@?$IConnectionPointImpl@VCOPOSElectronicJournal@@$1?DIID__IOPOSElectronicJournalEvents@@3U_GUID@@BVCComDynamicUnkArray@ATL@@@ATL@@UEAAJPEAUIUnknown@@PEAK@Z 00000001800041c8 f i ElectronicJournal.obj
 0001:000031c8       ?Advise@?$IConnectionPointImpl@VCOPOSElectronicJournal@@$1?IID_IPropertyNotifySink@@3U_GUID@@BVCComDynamicUnkArray@ATL@@@ATL@@UEAAJPEAUIUnknown@@PEAK@Z 00000001800041c8 f i ElectronicJournal.obj
 0001:00003288       ?Unadvise@?$IConnectionPointImpl@VCOPOSElectronicJournal@@$1?DIID__IOPOSElectronicJournalEvents@@3U_GUID@@BVCComDynamicUnkArray@ATL@@@ATL@@UEAAJK@Z 0000000180004288 f i ElectronicJournal.obj
 0001:00003288       ?Unadvise@?$IConnectionPointImpl@VCOPOSElectronicJournal@@$1?IID_IPropertyNotifySink@@3U_GUID@@BVCComDynamicUnkArray@ATL@@@ATL@@UEAAJK@Z 0000000180004288 f i ElectronicJournal.obj
 0001:00003304       ?EnumConnections@?$IConnectionPointImpl@VCOPOSElectronicJournal@@$1?IID_IPropertyNotifySink@@3U_GUID@@BVCComDynamicUnkArray@ATL@@@ATL@@UEAAJPEAPEAUIEnumConnections@@@Z 0000000180004304 f i ElectronicJournal.obj
 0001:00003304       ?EnumConnections@?$IConnectionPointImpl@VCOPOSElectronicJournal@@$1?DIID__IOPOSElectronicJournalEvents@@3U_GUID@@BVCComDynamicUnkArray@ATL@@@ATL@@UEAAJPEAPEAUIEnumConnections@@@Z 0000000180004304 f i ElectronicJournal.obj
 0001:000034ac       ?GetConnectionInterface@?$IConnectionPointImpl@VCOPOSElectronicJournal@@$1?DIID__IOPOSElectronicJournalEvents@@3U_GUID@@BVCComDynamicUnkArray@ATL@@@ATL@@UEAAJPEAU_GUID@@@Z 00000001800044ac f i ElectronicJournal.obj
 0001:000034c8       ?GetConnectionPointContainer@?$IConnectionPointImpl@VCOPOSElectronicJournal@@$1?DIID__IOPOSElectronicJournalEvents@@3U_GUID@@BVCComDynamicUnkArray@ATL@@@ATL@@UEAAJPEAPEAUIConnectionPointContainer@@@Z 00000001800044c8 f i ElectronicJournal.obj
 0001:000034e8       ?UpdateRegistry@COPOSElectronicJournal@@SAJH@Z 00000001800044e8 f i ElectronicJournal.obj
 0001:00003500       ?ProcessWindowMessage@COPOSElectronicJournal@@UEAAHPEAUHWND__@@I_K_JAEA_JK@Z 0000000180004500 f i ElectronicJournal.obj
 0001:00003588       ?SOData@COPOSElectronicJournal@@MEAAJJ@Z 0000000180004588 f i ElectronicJournal.obj
 0001:000035d8       ?SODirectIO@COPOSElectronicJournal@@MEAAJJPEAJPEAPEA_W@Z 00000001800045d8 f i ElectronicJournal.obj
 0001:00003650       ?SOError@COPOSElectronicJournal@@MEAAJJJJPEAJ@Z 0000000180004650 f i ElectronicJournal.obj
 0001:000036d8       ?SOOutputComplete@COPOSElectronicJournal@@MEAAJJ@Z 00000001800046d8 f i ElectronicJournal.obj
 0001:00003728       ?SOStatusUpdate@COPOSElectronicJournal@@MEAAJJ@Z 0000000180004728 f i ElectronicJournal.obj
 0001:00003778       ??$AtlModuleRegisterWndClassInfoT@VAtlModuleRegisterWndClassInfoParamW@ATL@@@ATL@@YAGPEAU_ATL_BASE_MODULE70@0@PEAU_ATL_WIN_MODULE70@0@PEAU_ATL_WNDCLASSINFOW@0@PEAP6A_JPEAUHWND__@@I_K_J@ZVAtlModuleRegisterWndClassInfoParamW@0@@Z 0000000180004778 f i ElectronicJournal.obj
 0001:00003978       ??0?$CComContainedObject@VCOPOSElectronicJournal@@@ATL@@QEAA@PEAX@Z 0000000180004978 f i ElectronicJournal.obj
 0001:00003a94       ??0?$CComObject@VCOPOSElectronicJournal@@@ATL@@QEAA@PEAX@Z 0000000180004a94 f i ElectronicJournal.obj
 0001:00003bac       ??0CAtlModule@ATL@@QEAA@XZ 0000000180004bac f i ElectronicJournal.obj
 0001:00003c28       ??1?$CComEnumImpl@UIEnumConnectionPoints@@$1?_GUID_b196b285_bab4_101a_b69c_00aa00341d07@@3U__s_GUID@@BPEAUIConnectionPoint@@V?$_CopyInterface@UIConnectionPoint@@@ATL@@@ATL@@UEAA@XZ 0000000180004c28 f i ElectronicJournal.obj
 0001:00003c84       ??1?$CComEnumImpl@UIEnumConnections@@$1?_GUID_b196b287_bab4_101a_b69c_00aa00341d07@@3U__s_GUID@@BUtagCONNECTDATA@@V?$_Copy@UtagCONNECTDATA@@@ATL@@@ATL@@UEAA@XZ 0000000180004c84 f i ElectronicJournal.obj
 0001:00003ce0       ??1?$CComObject@VCOPOSElectronicJournal@@@ATL@@UEAA@XZ 0000000180004ce0 f i ElectronicJournal.obj
 0001:00003e00       ??_G?$CComContainedObject@VCOPOSElectronicJournal@@@ATL@@UEAAPEAXI@Z 0000000180004e00 f i ElectronicJournal.obj
 0001:00003e00       ??_E?$CComContainedObject@VCOPOSElectronicJournal@@@ATL@@UEAAPEAXI@Z 0000000180004e00 f i ElectronicJournal.obj
 0001:00003e34       ??_E?$CComObject@VCOPOSElectronicJournal@@@ATL@@UEAAPEAXI@Z 0000000180004e34 f i ElectronicJournal.obj
 0001:00003e34       ??_G?$CComObject@VCOPOSElectronicJournal@@@ATL@@UEAAPEAXI@Z 0000000180004e34 f i ElectronicJournal.obj
 0001:00003e68       ?Add@?$CSimpleArray@GV?$CSimpleArrayEqualHelper@G@ATL@@@ATL@@QEAAHAEBG@Z 0000000180004e68 f i ElectronicJournal.obj
 0001:00003f1c       ?Add@?$CSimpleMap@PEA_WPEA_WVCExpansionVectorEqualHelper@ATL@@@ATL@@QEAAHAEBQEA_W0@Z 0000000180004f1c f i ElectronicJournal.obj
 0001:00003fbc       ?Add@CComDynamicUnkArray@ATL@@QEAAKPEAUIUnknown@@@Z 0000000180004fbc f i ElectronicJournal.obj
 0001:000040b4       ?Add@CExpansionVector@ATL@@QEAAHPEB_W0@Z 00000001800050b4 f i ElectronicJournal.obj
 0001:00004244       ?AddValue@CRegParser@ATL@@IEAAJAEAVCRegKey@2@PEB_WPEA_W@Z 0000000180005244 f i ElectronicJournal.obj
 0001:0000468c       ?AllocateHeap@?$CTempBuffer@_W$0EAA@VCCRTAllocator@ATL@@@ATL@@AEAAX_K@Z 000000018000568c f i ElectronicJournal.obj
 0001:0000468c       ?AllocateHeap@?$CTempBuffer@_W$0BAA@VCCRTAllocator@ATL@@@ATL@@AEAAX_K@Z 000000018000568c f i ElectronicJournal.obj
 0001:0000468c       ?AllocateHeap@?$CTempBuffer@E$0BAA@VCCRTAllocator@ATL@@@ATL@@AEAAX_K@Z 000000018000568c f i ElectronicJournal.obj
 0001:000046b8       ?Append@CParseBuffer@CRegParser@ATL@@QEAAHPEB_WH@Z 00000001800056b8 f i ElectronicJournal.obj
 0001:000047d0       ?AtlCallTermFunc@ATL@@YAXPEAU_ATL_MODULE70@1@@Z 00000001800057d0 f i ElectronicJournal.obj
 0001:00004834       ?AtlComModuleGetClassObject@ATL@@YAJPEAU_ATL_COM_MODULE70@1@AEBU_GUID@@1PEAPEAX@Z 0000000180005834 f i ElectronicJournal.obj
 0001:00004974       ?AtlComModuleRegisterServer@ATL@@YAJPEAU_ATL_COM_MODULE70@1@HPEBU_GUID@@@Z 0000000180005974 f i ElectronicJournal.obj
 0001:00004a34       ?AtlComModuleUnregisterServer@ATL@@YAJPEAU_ATL_COM_MODULE70@1@HPEBU_GUID@@@Z 0000000180005a34 f i ElectronicJournal.obj
 0001:00004af0       ?AtlCreateTargetDC@ATL@@YAPEAUHDC__@@PEAU2@PEAUtagDVTARGETDEVICE@@@Z 0000000180005af0 f i ElectronicJournal.obj
 0001:00004b64       ?AtlHiMetricToPixel@ATL@@YAXPEBUtagSIZE@@PEAU2@@Z 0000000180005b64 f i ElectronicJournal.obj
 0001:00004c14       ?AtlHresultFromLastError@ATL@@YAJXZ 0000000180005c14 f i ElectronicJournal.obj
 0001:00004c34       ?AtlHresultFromWin32@ATL@@YAJK@Z 0000000180005c34 f i ElectronicJournal.obj
 0001:00004c44       ?AtlIPersistStreamInit_Load@ATL@@YAJPEAUIStream@@PEBUATL_PROPMAP_ENTRY@1@PEAXPEAUIUnknown@@@Z 0000000180005c44 f i ElectronicJournal.obj
 0001:00004e7c       ?AtlIPersistStreamInit_Save@ATL@@YAJPEAUIStream@@HPEBUATL_PROPMAP_ENTRY@1@PEAXPEAUIUnknown@@@Z 0000000180005e7c f i ElectronicJournal.obj
 0001:000050b8       ?AtlInternalOleLoadFromStream@ATL@@YAJPEAUIStream@@AEBU_GUID@@PEAPEAXTClassesAllowedInStream@1@K@Z 00000001800060b8 f i ElectronicJournal.obj
 0001:000051fc       ?AtlInternalQueryInterface@ATL@@YAJPEAXPEBU_ATL_INTMAP_ENTRY@1@AEBU_GUID@@PEAPEAX@Z 00000001800061fc f i ElectronicJournal.obj
 0001:00005304       ?AtlLoadTypeLib@ATL@@YAJPEAUHINSTANCE__@@PEB_WPEAPEA_WPEAPEAUITypeLib@@@Z 0000000180006304 f i ElectronicJournal.obj
 0001:00005560       ?AtlModuleAddTermFunc@ATL@@YAJPEAU_ATL_MODULE70@1@P6AX_K@Z1@Z 0000000180006560 f i ElectronicJournal.obj
 0001:000055f4       ?AtlRegisterClassCategoriesHelper@ATL@@YAJAEBU_GUID@@PEBU_ATL_CATMAP_ENTRY@1@H@Z 00000001800065f4 f i ElectronicJournal.obj
 0001:00005a58       ?AtlRegisterTypeLib@ATL@@YAJPEAUHINSTANCE__@@PEB_W@Z 0000000180006a58 f i ElectronicJournal.obj
 0001:00005c54       ?AtlThrowImpl@ATL@@YAXJ@Z  0000000180006c54 f i ElectronicJournal.obj
 0001:00005c78       ?AtlUnRegisterTypeLib@ATL@@YAJPEAUHINSTANCE__@@PEB_W@Z 0000000180006c78 f i ElectronicJournal.obj
 0001:00005d40       ?AtlWinModuleExtractCreateWndData@ATL@@YAPEAXPEAU_ATL_WIN_MODULE70@1@@Z 0000000180006d40 f i ElectronicJournal.obj
 0001:00005dcc       ?Cleanup@CComTypeInfoHolder@ATL@@SAX_K@Z 0000000180006dcc f i ElectronicJournal.obj
 0001:00005e0c       ?ClearReplacements@CExpansionVector@ATL@@QEAAJXZ 0000000180006e0c f i ElectronicJournal.obj
 0001:00005ea8       ?Create@?$CWindowImpl@VCOPOSElectronicJournal@@VCWindow@ATL@@V?$CWinTraits@$0FGAAAAAA@$0A@@3@@ATL@@QEAAPEAUHWND__@@PEAU3@V_U_RECT@2@PEB_WKKV_U_MENUorID@2@PEAX@Z 0000000180006ea8 f i ElectronicJournal.obj
 0001:00005f58       ?Create@?$CWindowImplBaseT@VCWindow@ATL@@V?$CWinTraits@$0FGAAAAAA@$0A@@2@@ATL@@QEAAPEAUHWND__@@PEAU3@V_U_RECT@2@PEB_WKKV_U_MENUorID@2@GPEAX@Z 0000000180006f58 f i ElectronicJournal.obj
 0001:000060c8       ?Create@CRegKey@ATL@@QEAAJPEAUHKEY__@@PEB_WPEA_WKKPEAU_SECURITY_ATTRIBUTES@@PEAK@Z 00000001800070c8 f i ElectronicJournal.obj
 0001:000061ac       ?CreateInstance@?$CComCreator@V?$CComAggObject@VCOPOSElectronicJournal@@@ATL@@@ATL@@SAJPEAXAEBU_GUID@@PEAPEAX@Z 00000001800071ac f i ElectronicJournal.obj
 0001:00006284       ?CreateInstance@?$CComCreator@V?$CComObject@VCOPOSElectronicJournal@@@ATL@@@ATL@@SAJPEAXAEBU_GUID@@PEAPEAX@Z 0000000180007284 f i ElectronicJournal.obj
 0001:0000633c       ?CreateInstance@?$CComObject@V?$CComEnum@UIEnumConnectionPoints@@$1?_GUID_b196b285_bab4_101a_b69c_00aa00341d07@@3U__s_GUID@@BPEAUIConnectionPoint@@V?$_CopyInterface@UIConnectionPoint@@@ATL@@VCComSingleThreadModel@6@@ATL@@@ATL@@SAJPEAPEAV12@@Z 000000018000733c f i ElectronicJournal.obj
 0001:000063c8       ?CreateInstance@?$CComObject@V?$CComEnum@UIEnumConnections@@$1?_GUID_b196b287_bab4_101a_b69c_00aa00341d07@@3U__s_GUID@@BUtagCONNECTDATA@@V?$_Copy@UtagCONNECTDATA@@@ATL@@VCComSingleThreadModel@6@@ATL@@@ATL@@SAJPEAPEAV12@@Z 00000001800073c8 f i ElectronicJournal.obj
 0001:00006454       ?DefaultReflectionHandler@?$CWindowImplRoot@VCWindow@ATL@@@ATL@@SAHPEAUHWND__@@I_K_JAEA_J@Z 0000000180007454 f i ElectronicJournal.obj
 0001:000064b8       ?DoEvent@COPOSElectronicJournal@@IEAAXI_K_J@Z 00000001800074b8 f i ElectronicJournal.obj
 0001:0000656c       ?DoVerbPrimary@?$IOleObjectImpl@VCOPOSElectronicJournal@@@ATL@@QEAAJPEBUtagRECT@@PEAUHWND__@@@Z 000000018000756c f i ElectronicJournal.obj
 0001:00006694       ?DoVerbProperties@CComControlBase@ATL@@QEAAJPEBUtagRECT@@PEAUHWND__@@@Z 0000000180007694 f i ElectronicJournal.obj
 0001:000068bc       ?FireTheEvent@?$CProxy_IOPOSEvents@VCOPOSElectronicJournal@@@@IEAAXPEAVOposVariant@@IAEAJPEB_WJ@Z 00000001800078bc f i ElectronicJournal.obj
 0001:000069a8       ?FireViewChange@CComControlBase@ATL@@QEAAJXZ 00000001800079a8 f i ElectronicJournal.obj
 0001:00006a0c       ?Fire_DataEvent@?$CProxy_IOPOSEvents@VCOPOSElectronicJournal@@@@QEAAXJ@Z 0000000180007a0c f i ElectronicJournal.obj
 0001:00006af8       ?Fire_DirectIOEvent@?$CProxy_IOPOSEvents@VCOPOSElectronicJournal@@@@QEAAXJPEAJPEAPEA_W@Z 0000000180007af8 f i ElectronicJournal.obj
 0001:00006c50       ?Fire_ErrorEvent@?$CProxy_IOPOSEvents@VCOPOSElectronicJournal@@@@QEAAXJJJPEAJ@Z 0000000180007c50 f i ElectronicJournal.obj
 0001:00006db8       ?Fire_OutputCompleteEvent@?$CProxy_IOPOSEvents@VCOPOSElectronicJournal@@@@QEAAXJ@Z 0000000180007db8 f i ElectronicJournal.obj
 0001:00006ea4       ?Fire_StatusUpdateEvent@?$CProxy_IOPOSEvents@VCOPOSElectronicJournal@@@@QEAAXJ@Z 0000000180007ea4 f i ElectronicJournal.obj
 0001:00006f90       ?FreeHeap@?$CTempBuffer@_W$0BAA@VCCRTAllocator@ATL@@@ATL@@AEAAXXZ 0000000180007f90 f i ElectronicJournal.obj
 0001:00006f90       ?FreeHeap@?$CTempBuffer@_W$0EAA@VCCRTAllocator@ATL@@@ATL@@AEAAXXZ 0000000180007f90 f i ElectronicJournal.obj
 0001:00006f90       ?FreeHeap@?$CTempBuffer@E$0BAA@VCCRTAllocator@ATL@@@ATL@@AEAAXXZ 0000000180007f90 f i ElectronicJournal.obj
 0001:00006f98       ?GetAmbientLocaleID@CComControlBase@ATL@@QEAAJAEAK@Z 0000000180007f98 f i ElectronicJournal.obj
 0001:00007058       ?GetAmbientUserMode@CComControlBase@ATL@@QEAAJAEAH@Z 0000000180008058 f i ElectronicJournal.obj
 0001:0000712c       ?GetClassObject@CComModule@ATL@@QEAAJAEBU_GUID@@0PEAPEAX@Z 000000018000812c f i ElectronicJournal.obj
 0001:00007220       ?GetConnMap@COPOSElectronicJournal@@SAPEBU_ATL_CONNMAP_ENTRY@ATL@@PEAH@Z 0000000180008220 f i ElectronicJournal.obj
 0001:000072a8       ?GetIDsOfNames@CComTypeInfoHolder@ATL@@QEAAJAEBU_GUID@@PEAPEA_WIKPEAJ@Z 00000001800082a8 f i ElectronicJournal.obj
 0001:00007420       ?GetPagesHelper@?$ISpecifyPropertyPagesImpl@VCOPOSElectronicJournal@@@ATL@@IEAAJPEAUtagCAUUID@@PEBUATL_PROPMAP_ENTRY@2@@Z 0000000180008420 f i ElectronicJournal.obj
 0001:000075c0       ?GetSizeMax@CComVariant@ATL@@QEBAJPEAT_ULARGE_INTEGER@@@Z 00000001800085c0 f i ElectronicJournal.obj
 0001:000077f4       ?GetTI@CComTypeInfoHolder@ATL@@QEAAJK@Z 00000001800087f4 f i ElectronicJournal.obj
 0001:00007a6c       ?GetZoomInfo@CComControlBase@ATL@@QEAAXAEAUATL_DRAWINFO@@@Z 0000000180008a6c f i ElectronicJournal.obj
 0001:00007b10       ?HKeyFromString@CRegParser@ATL@@KAPEAUHKEY__@@PEA_W@Z 0000000180008b10 f i ElectronicJournal.obj
 0001:00007b74       ?IDataObject_GetData@CComControlBase@ATL@@QEAAJPEAUtagFORMATETC@@PEAUtagSTGMEDIUM@@@Z 0000000180008b74 f i ElectronicJournal.obj
 0001:00007d68       ?IOleInPlaceObject_InPlaceDeactivate@CComControlBase@ATL@@QEAAJXZ 0000000180008d68 f i ElectronicJournal.obj
 0001:00007e08       ?IOleInPlaceObject_SetObjectRects@CComControlBase@ATL@@QEAAJPEBUtagRECT@@0@Z 0000000180008e08 f i ElectronicJournal.obj
 0001:00007ef8       ?IOleInPlaceObject_UIDeactivate@CComControlBase@ATL@@QEAAJXZ 0000000180008ef8 f i ElectronicJournal.obj
 0001:00008004       ?IOleObject_Close@CComControlBase@ATL@@QEAAJK@Z 0000000180009004 f i ElectronicJournal.obj
 0001:0000811c       ?IOleObject_SetClientSite@CComControlBase@ATL@@QEAAJPEAUIOleClientSite@@@Z 000000018000911c f i ElectronicJournal.obj
 0001:00008194       ?IOleObject_SetExtent@CComControlBase@ATL@@QEAAJKPEAUtagSIZE@@@Z 0000000180009194 f i ElectronicJournal.obj
 0001:0000822c       ?IPSI_GetIPersistStreamInit@?$IPersistStorageImpl@VCOPOSElectronicJournal@@@ATL@@AEAAPEAUIPersistStreamInit@@XZ 000000018000922c f i ElectronicJournal.obj
 0001:00008288       ?IQuickActivate_QuickActivate@CComControlBase@ATL@@QEAAJPEAUtagQACONTAINER@@PEAUtagQACONTROL@@@Z 0000000180009288 f i ElectronicJournal.obj
 0001:0000854c       ?IViewObject_Draw@CComControlBase@ATL@@QEAAJKJPEAXPEAUtagDVTARGETDEVICE@@PEAUHDC__@@2PEBU_RECTL@@3@Z 000000018000954c f i ElectronicJournal.obj
 0001:00008660       ?InPlaceActivate@CComControlBase@ATL@@QEAAJJPEBUtagRECT@@@Z 0000000180009660 f i ElectronicJournal.obj
 0001:00008998       ?Init@?$CComEnumImpl@UIEnumConnectionPoints@@$1?_GUID_b196b285_bab4_101a_b69c_00aa00341d07@@3U__s_GUID@@BPEAUIConnectionPoint@@V?$_CopyInterface@UIConnectionPoint@@@ATL@@@ATL@@QEAAJPEAPEAUIConnectionPoint@@0PEAUIUnknown@@W4CComEnumFlags@2@@Z 0000000180009998 f i ElectronicJournal.obj
 0001:00008ab8       ?Init@?$CComEnumImpl@UIEnumConnections@@$1?_GUID_b196b287_bab4_101a_b69c_00aa00341d07@@3U__s_GUID@@BUtagCONNECTDATA@@V?$_Copy@UtagCONNECTDATA@@@ATL@@@ATL@@QEAAJPEAUtagCONNECTDATA@@0PEAUIUnknown@@W4CComEnumFlags@2@@Z 0000000180009ab8 f i ElectronicJournal.obj
 0001:00008bdc       ?IsEqualObject@?$CComPtrBase@UIOleClientSite@@@ATL@@QEAA_NPEAUIUnknown@@@Z 0000000180009bdc f i ElectronicJournal.obj
 0001:00008bdc       ?IsEqualObject@?$CComPtrBase@UITypeInfo@@@ATL@@QEAA_NPEAUIUnknown@@@Z 0000000180009bdc f i ElectronicJournal.obj
 0001:00008c68       ?LoadNameCache@CComTypeInfoHolder@ATL@@QEAAJPEAUITypeInfo@@@Z 0000000180009c68 f i ElectronicJournal.obj
 0001:00008dec       ?Lookup@?$CSimpleMap@PEA_WPEA_WVCExpansionVectorEqualHelper@ATL@@@ATL@@QEBAPEA_WAEBQEA_W@Z 0000000180009dec f i ElectronicJournal.obj
 0001:00008e78       ?NextToken@CRegParser@ATL@@IEAAJPEA_W@Z 0000000180009e78 f i ElectronicJournal.obj
 0001:00009030       ?OnKillFocus@CComControlBase@ATL@@QEAA_JI_K_JAEAH@Z 000000018000a030 f i ElectronicJournal.obj
 0001:000090cc       ?OnMouseActivate@CComControlBase@ATL@@QEAA_JI_K_JAEAH@Z 000000018000a0cc f i ElectronicJournal.obj
 0001:0000916c       ?OnPaint@CComControlBase@ATL@@QEAA_JI_K_JAEAH@Z 000000018000a16c f i ElectronicJournal.obj
 0001:00009258       ?OnSetFocus@CComControlBase@ATL@@QEAA_JI_K_JAEAH@Z 000000018000a258 f i ElectronicJournal.obj
 0001:00009354       ?Open@CRegKey@ATL@@QEAAJPEAUHKEY__@@PEB_WK@Z 000000018000a354 f i ElectronicJournal.obj
 0001:000093d0       ?PreProcessBuffer@CRegParser@ATL@@QEAAJPEA_WPEAPEA_W@Z 000000018000a3d0 f i ElectronicJournal.obj
 0001:00009754       ?ProcessWindowMessage@?$CComControl@VCOPOSElectronicJournal@@V?$CWindowImpl@VCOPOSElectronicJournal@@VCWindow@ATL@@V?$CWinTraits@$0FGAAAAAA@$0A@@3@@ATL@@@ATL@@UEAAHPEAUHWND__@@I_K_JAEA_JK@Z 000000018000a754 f i ElectronicJournal.obj
 0001:00009838       ?PutProperty@?$CComPtr@UIDispatch@@@ATL@@SAJPEAUIDispatch@@JPEAUtagVARIANT@@@Z 000000018000a838 f i ElectronicJournal.obj
 0001:0000993c       ?ReadFromStream@CComBSTR@ATL@@QEAAJPEAUIStream@@@Z 000000018000a93c f i ElectronicJournal.obj
 0001:00009a98       ?ReadFromStream@CComVariant@ATL@@QEAAJPEAUIStream@@GTClassesAllowedInStream@2@K@Z 000000018000aa98 f i ElectronicJournal.obj
 0001:00009ca8       ?RecurseDeleteKey@CRegKey@ATL@@QEAAJPEB_W@Z 000000018000aca8 f i ElectronicJournal.obj
 0001:00009dcc       ?RegCreateKeyExW@CAtlTransactionManager@ATL@@QEAAJPEAUHKEY__@@PEB_WKPEA_WKKQEAU_SECURITY_ATTRIBUTES@@PEAPEAU3@PEAK@Z 000000018000adcc f i ElectronicJournal.obj
 0001:00009f00       ?RegDeleteKeyW@CAtlTransactionManager@ATL@@QEAAJPEAUHKEY__@@PEB_W@Z 000000018000af00 f i ElectronicJournal.obj
 0001:00009f8c       ?RegOpenKeyExW@CAtlTransactionManager@ATL@@QEAAJPEAUHKEY__@@PEB_WKKPEAPEAU3@@Z 000000018000af8c f i ElectronicJournal.obj
 0001:0000a044       ?RegisterBuffer@CRegParser@ATL@@QEAAJPEA_WH@Z 000000018000b044 f i ElectronicJournal.obj
 0001:0000a1ac       ?RegisterFromResource@CRegObject@ATL@@IEAAJPEB_W00H@Z 000000018000b1ac f i ElectronicJournal.obj
 0001:0000a368       ?RegisterServer@CComModule@ATL@@QEAAJHPEBU_GUID@@@Z 000000018000b368 f i ElectronicJournal.obj
 0001:0000a428       ?RegisterSubkeys@CRegParser@ATL@@IEAAJPEA_WPEAUHKEY__@@HH@Z 000000018000b428 f i ElectronicJournal.obj
 0001:0000ab18       ?SendOnDataChange@CComControlBase@ATL@@QEAAJK@Z 000000018000bb18 f i ElectronicJournal.obj
 0001:0000ab88       ?SetControlFocus@CComControlBase@ATL@@QEAAHH@Z 000000018000bb88 f i ElectronicJournal.obj
 0001:0000ac64       ?SkipAssignment@CRegParser@ATL@@IEAAJPEA_W@Z 000000018000bc64 f i ElectronicJournal.obj
 0001:0000ad08       ?Term@CComModule@ATL@@QEAAXXZ 000000018000bd08 f i ElectronicJournal.obj
 0001:0000adb4       ?UnregisterServer@CComModule@ATL@@QEAAJHPEBU_GUID@@@Z 000000018000bdb4 f i ElectronicJournal.obj
 0001:0000ae64       ?UpdateRegistryFromResource@CAtlModule@ATL@@QEAAJIHPEAU_ATL_REGMAP_ENTRY@2@@Z 000000018000be64 f i ElectronicJournal.obj
 0001:0000b19c       ?UpdateRegistryFromResource@CAtlModule@ATL@@QEAAJPEB_WHPEAU_ATL_REGMAP_ENTRY@2@@Z 000000018000c19c f i ElectronicJournal.obj
 0001:0000b4f4       ?VTFromRegType@CRegParser@ATL@@KAHPEB_WAEAG@Z 000000018000c4f4 f i ElectronicJournal.obj
 0001:0000b590       ?WindowProc@?$CWindowImplBaseT@VCWindow@ATL@@V?$CWinTraits@$0FGAAAAAA@$0A@@2@@ATL@@SA_JPEAUHWND__@@I_K_J@Z 000000018000c590 f i ElectronicJournal.obj
 0001:0000b6fc       ?WriteToStream@CComBSTR@ATL@@QEAAJPEAUIStream@@@Z 000000018000c6fc f i ElectronicJournal.obj
 0001:0000b77c       ?WriteToStream@CComVariant@ATL@@QEAAJPEAUIStream@@@Z 000000018000c77c f i ElectronicJournal.obj
 0001:0000b990       ?WriteToStream@CComVariant@ATL@@QEAAJPEAUIStream@@G@Z 000000018000c990 f i ElectronicJournal.obj
 0001:0000ba28       ?_AtlVerifyStackAvailable@_ATL_SAFE_ALLOCA_IMPL@ATL@@YA_N_K@Z 000000018000ca28 f i ElectronicJournal.obj
 0001:0000baac       DllCanUnloadNow            000000018000caac f   ElectronicJournal.obj
 0001:0000bab8       DllGetClassObject          000000018000cab8 f   ElectronicJournal.obj
 0001:0000bad0       DllMain                    000000018000cad0 f   ElectronicJournal.obj
 0001:0000bb78       DllRegisterServer          000000018000cb78 f   ElectronicJournal.obj
 0001:0000bb8c       DllUnregisterServer        000000018000cb8c f   ElectronicJournal.obj
 0001:0000bba0       __local_stdio_printf_options 000000018000cba0 f i ElectronicJournal.obj
 0001:0000bc30       swprintf_s                 000000018000cc30 f i ElectronicJournal.obj
 0001:0000bc84       ??0COPOSElectronicJournal@@QEAA@XZ 000000018000cc84 f   ElectronicJournalImpl.obj
 0001:0000bd54       ??1?$IConnectionPointImpl@VCOPOSElectronicJournal@@$1?IID_IPropertyNotifySink@@3U_GUID@@BVCComDynamicUnkArray@ATL@@@ATL@@QEAA@XZ 000000018000cd54 f i ElectronicJournalImpl.obj
 0001:0000bd54       ??1?$IConnectionPointImpl@VCOPOSElectronicJournal@@$1?DIID__IOPOSElectronicJournalEvents@@3U_GUID@@BVCComDynamicUnkArray@ATL@@@ATL@@QEAA@XZ 000000018000cd54 f i ElectronicJournalImpl.obj
 0001:0000bdb0       ??1CComControlBase@ATL@@UEAA@XZ 000000018000cdb0 f i ElectronicJournalImpl.obj
 0001:0000be2c       ??1COPOSElectronicJournal@@UEAA@XZ 000000018000ce2c f   ElectronicJournalImpl.obj
 0001:0000be90       ?AddMarker@COPOSElectronicJournal@@UEAAJPEA_WPEAJ@Z 000000018000ce90 f   ElectronicJournalImpl.obj
 0001:0000bf18       ?CancelPrintContent@COPOSElectronicJournal@@UEAAJPEAJ@Z 000000018000cf18 f   ElectronicJournalImpl.obj
 0001:0000bf40       ?CancelQueryContent@COPOSElectronicJournal@@UEAAJPEAJ@Z 000000018000cf40 f   ElectronicJournalImpl.obj
 0001:0000bf68       ?CheckHealth@COPOSElectronicJournal@@UEAAJJPEAJ@Z 000000018000cf68 f   ElectronicJournalImpl.obj
 0001:0000bfe4       ?ClaimDevice@COPOSElectronicJournal@@UEAAJJPEAJ@Z 000000018000cfe4 f   ElectronicJournalImpl.obj
 0001:0000c084       ?ClearInput@COPOSElectronicJournal@@UEAAJPEAJ@Z 000000018000d084 f   ElectronicJournalImpl.obj
 0001:0000c0ac       ?ClearOutput@COPOSElectronicJournal@@UEAAJPEAJ@Z 000000018000d0ac f   ElectronicJournalImpl.obj
 0001:0000c0d4       ?Close@COPOSElectronicJournal@@UEAAJPEAJ@Z 000000018000d0d4 f   ElectronicJournalImpl.obj
 0001:0000c18c       ?CompareFirmwareVersion@COPOSElectronicJournal@@UEAAJPEA_WPEAJ1@Z 000000018000d18c f   ElectronicJournalImpl.obj
 0001:0000c268       ?DirectIO@COPOSElectronicJournal@@UEAAJJPEAJPEAPEA_W0@Z 000000018000d268 f   ElectronicJournalImpl.obj
 0001:0000c364       ?DoInvoke@COPOSElectronicJournal@@IEAAJJPEAVOposVariant@@IHPEAJ_N@Z 000000018000d364 f   ElectronicJournalImpl.obj
 0001:0000c498       ?EraseMedium@COPOSElectronicJournal@@UEAAJPEAJ@Z 000000018000d498 f   ElectronicJournalImpl.obj
 0001:0000c4c0       ?EventInit@COPOSElectronicJournal@@IEAAJXZ 000000018000d4c0 f i ElectronicJournalImpl.obj
 0001:0000c608       ?EventUninit@COPOSElectronicJournal@@IEAAXXZ 000000018000d608 f i ElectronicJournalImpl.obj
 0001:0000c66c       ?EventWindowProc@COPOSElectronicJournal@@IEAA_JI_K_J@Z 000000018000d66c f i ElectronicJournalImpl.obj
 0001:0000c848       ?FinalConstruct@COPOSElectronicJournal@@QEAAJXZ 000000018000d848 f   ElectronicJournalImpl.obj
 0001:0000c884       ?FreezeEvents@COPOSElectronicJournal@@MEAAJH@Z 000000018000d884 f   ElectronicJournalImpl.obj
 0001:0000c8f8       ?GetOposProp@COPOSElectronicJournal@@IEAAJJPEAJJ@Z 000000018000d8f8 f   ElectronicJournalImpl.obj
 0001:0000ca14       ?GetOposProp@COPOSElectronicJournal@@IEAAJJPEAPEA_WJ@Z 000000018000da14 f   ElectronicJournalImpl.obj
 0001:0000cb40       ?InitializeMedium@COPOSElectronicJournal@@UEAAJPEA_WPEAJ@Z 000000018000db40 f   ElectronicJournalImpl.obj
 0001:0000cbc8       ?OnDraw@COPOSElectronicJournal@@MEAAJAEAUATL_DRAWINFO@@@Z 000000018000dbc8 f   ElectronicJournalImpl.obj
 0001:0000ccb4       ?Open@COPOSElectronicJournal@@UEAAJPEA_WPEAJ@Z 000000018000dcb4 f   ElectronicJournalImpl.obj
 0001:0000d53c       ?PrintContent@COPOSElectronicJournal@@UEAAJPEA_W0PEAJ@Z 000000018000e53c f   ElectronicJournalImpl.obj
 0001:0000d618       ?PrintContentFile@COPOSElectronicJournal@@UEAAJPEA_WPEAJ@Z 000000018000e618 f   ElectronicJournalImpl.obj
 0001:0000d6a0       ?QueryContent@COPOSElectronicJournal@@UEAAJPEA_W00PEAJ@Z 000000018000e6a0 f   ElectronicJournalImpl.obj
 0001:0000d78c       ?ReleaseDevice@COPOSElectronicJournal@@UEAAJPEAJ@Z 000000018000e78c f   ElectronicJournalImpl.obj
 0001:0000d7f8       ?ResetStatistics@COPOSElectronicJournal@@UEAAJPEA_WPEAJ@Z 000000018000e7f8 f   ElectronicJournalImpl.obj
 0001:0000d880       ?ResumePrintContent@COPOSElectronicJournal@@UEAAJPEAJ@Z 000000018000e880 f   ElectronicJournalImpl.obj
 0001:0000d8a8       ?ResumeQueryContent@COPOSElectronicJournal@@UEAAJPEAJ@Z 000000018000e8a8 f   ElectronicJournalImpl.obj
 0001:0000d8d0       ?RetrieveCurrentMarker@COPOSElectronicJournal@@UEAAJJPEAPEA_WPEAJ@Z 000000018000e8d0 f   ElectronicJournalImpl.obj
 0001:0000d9a8       ?RetrieveMarker@COPOSElectronicJournal@@UEAAJJJJPEAPEA_WPEAJ@Z 000000018000e9a8 f   ElectronicJournalImpl.obj
 0001:0000dab8       ?RetrieveMarkerByDateTime@COPOSElectronicJournal@@UEAAJJPEA_W0PEAPEA_WPEAJ@Z 000000018000eab8 f   ElectronicJournalImpl.obj
 0001:0000dbc0       ?RetrieveMarkersDateTime@COPOSElectronicJournal@@UEAAJPEA_WPEAPEA_WPEAJ@Z 000000018000ebc0 f   ElectronicJournalImpl.obj
 0001:0000dc9c       ?RetrieveStatistics@COPOSElectronicJournal@@UEAAJPEAPEA_WPEAJ@Z 000000018000ec9c f   ElectronicJournalImpl.obj
 0001:0000dd24       ?SOProcessID@COPOSElectronicJournal@@UEAAJPEAJ@Z 000000018000ed24 f   ElectronicJournalImpl.obj
 0001:0000dd40       ?SetCOFreezeEvents@COPOSElectronicJournal@@IEAAXF@Z 000000018000ed40 f   ElectronicJournalImpl.obj
 0001:0000de24       ?SetOposProp@COPOSElectronicJournal@@IEAAJJJJ@Z 000000018000ee24 f   ElectronicJournalImpl.obj
 0001:0000df84       ?SuspendPrintContent@COPOSElectronicJournal@@UEAAJPEAJ@Z 000000018000ef84 f   ElectronicJournalImpl.obj
 0001:0000dfac       ?SuspendQueryContent@COPOSElectronicJournal@@UEAAJPEAJ@Z 000000018000efac f   ElectronicJournalImpl.obj
 0001:0000dfd4       ?UpdateFirmware@COPOSElectronicJournal@@UEAAJPEA_WPEAJ@Z 000000018000efd4 f   ElectronicJournalImpl.obj
 0001:0000e05c       ?UpdateStatistics@COPOSElectronicJournal@@UEAAJPEA_WPEAJ@Z 000000018000f05c f   ElectronicJournalImpl.obj
 0001:0000e0e4       ?get_AsyncMode@COPOSElectronicJournal@@UEAAJPEAF@Z 000000018000f0e4 f   ElectronicJournalImpl.obj
 0001:0000e118       ?get_AutoDisable@COPOSElectronicJournal@@UEAAJPEAF@Z 000000018000f118 f   ElectronicJournalImpl.obj
 0001:0000e148       ?get_BinaryConversion@COPOSElectronicJournal@@UEAAJPEAJ@Z 000000018000f148 f   ElectronicJournalImpl.obj
 0001:0000e15c       ?get_CapAddMarker@COPOSElectronicJournal@@UEAAJPEAF@Z 000000018000f15c f   ElectronicJournalImpl.obj
 0001:0000e190       ?get_CapCompareFirmwareVersion@COPOSElectronicJournal@@UEAAJPEAF@Z 000000018000f190 f   ElectronicJournalImpl.obj
 0001:0000e1c4       ?get_CapErasableMedium@COPOSElectronicJournal@@UEAAJPEAF@Z 000000018000f1c4 f   ElectronicJournalImpl.obj
 0001:0000e1f8       ?get_CapInitializeMedium@COPOSElectronicJournal@@UEAAJPEAF@Z 000000018000f1f8 f   ElectronicJournalImpl.obj
 0001:0000e22c       ?get_CapMediumIsAvailable@COPOSElectronicJournal@@UEAAJPEAF@Z 000000018000f22c f   ElectronicJournalImpl.obj
 0001:0000e260       ?get_CapPowerReporting@COPOSElectronicJournal@@UEAAJPEAJ@Z 000000018000f260 f   ElectronicJournalImpl.obj
 0001:0000e274       ?get_CapPrintContent@COPOSElectronicJournal@@UEAAJPEAF@Z 000000018000f274 f   ElectronicJournalImpl.obj
 0001:0000e2a8       ?get_CapPrintContentFile@COPOSElectronicJournal@@UEAAJPEAF@Z 000000018000f2a8 f   ElectronicJournalImpl.obj
 0001:0000e2dc       ?get_CapRetrieveCurrentMarker@COPOSElectronicJournal@@UEAAJPEAF@Z 000000018000f2dc f   ElectronicJournalImpl.obj
 0001:0000e310       ?get_CapRetrieveMarker@COPOSElectronicJournal@@UEAAJPEAF@Z 000000018000f310 f   ElectronicJournalImpl.obj
 0001:0000e344       ?get_CapRetrieveMarkerByDateTime@COPOSElectronicJournal@@UEAAJPEAF@Z 000000018000f344 f   ElectronicJournalImpl.obj
 0001:0000e378       ?get_CapRetrieveMarkersDateTime@COPOSElectronicJournal@@UEAAJPEAF@Z 000000018000f378 f   ElectronicJournalImpl.obj
 0001:0000e3ac       ?get_CapStation@COPOSElectronicJournal@@UEAAJPEAJ@Z 000000018000f3ac f   ElectronicJournalImpl.obj
 0001:0000e3c0       ?get_CapStatisticsReporting@COPOSElectronicJournal@@UEAAJPEAF@Z 000000018000f3c0 f   ElectronicJournalImpl.obj
 0001:0000e3f4       ?get_CapStorageEnabled@COPOSElectronicJournal@@UEAAJPEAF@Z 000000018000f3f4 f   ElectronicJournalImpl.obj
 0001:0000e428       ?get_CapSuspendPrintContent@COPOSElectronicJournal@@UEAAJPEAF@Z 000000018000f428 f   ElectronicJournalImpl.obj
 0001:0000e45c       ?get_CapSuspendQueryContent@COPOSElectronicJournal@@UEAAJPEAF@Z 000000018000f45c f   ElectronicJournalImpl.obj
 0001:0000e490       ?get_CapUpdateFirmware@COPOSElectronicJournal@@UEAAJPEAF@Z 000000018000f490 f   ElectronicJournalImpl.obj
 0001:0000e4c4       ?get_CapUpdateStatistics@COPOSElectronicJournal@@UEAAJPEAF@Z 000000018000f4c4 f   ElectronicJournalImpl.obj
 0001:0000e4f8       ?get_CapWaterMark@COPOSElectronicJournal@@UEAAJPEAF@Z 000000018000f4f8 f   ElectronicJournalImpl.obj
 0001:0000e52c       ?get_CheckHealthText@COPOSElectronicJournal@@UEAAJPEAPEA_W@Z 000000018000f52c f   ElectronicJournalImpl.obj
 0001:0000e540       ?get_Claimed@COPOSElectronicJournal@@UEAAJPEAF@Z 000000018000f540 f   ElectronicJournalImpl.obj
 0001:0000e574       ?get_ControlObjectDescription@COPOSElectronicJournal@@UEAAJPEAPEA_W@Z 000000018000f574 f   ElectronicJournalImpl.obj
 0001:0000e5d8       ?get_ControlObjectVersion@COPOSElectronicJournal@@UEAAJPEAJ@Z 000000018000f5d8 f   ElectronicJournalImpl.obj
 0001:0000e5e4       ?get_DataCount@COPOSElectronicJournal@@UEAAJPEAJ@Z 000000018000f5e4 f   ElectronicJournalImpl.obj
 0001:0000e5f8       ?get_DataEventEnabled@COPOSElectronicJournal@@UEAAJPEAF@Z 000000018000f5f8 f   ElectronicJournalImpl.obj
 0001:0000e62c       ?get_DeviceDescription@COPOSElectronicJournal@@UEAAJPEAPEA_W@Z 000000018000f62c f   ElectronicJournalImpl.obj
 0001:0000e640       ?get_DeviceEnabled@COPOSElectronicJournal@@UEAAJPEAF@Z 000000018000f640 f   ElectronicJournalImpl.obj
 0001:0000e674       ?get_DeviceName@COPOSElectronicJournal@@UEAAJPEAPEA_W@Z 000000018000f674 f   ElectronicJournalImpl.obj
 0001:0000e688       ?get_FlagWhenIdle@COPOSElectronicJournal@@UEAAJPEAF@Z 000000018000f688 f   ElectronicJournalImpl.obj
 0001:0000e6bc       ?get_FreezeEvents@COPOSElectronicJournal@@UEAAJPEAF@Z 000000018000f6bc f   ElectronicJournalImpl.obj
 0001:0000e6ec       ?get_MediumFreeSpace@COPOSElectronicJournal@@UEAAJPEATtagCY@@@Z 000000018000f6ec f   ElectronicJournalImpl.obj
 0001:0000e7bc       ?get_MediumID@COPOSElectronicJournal@@UEAAJPEAPEA_W@Z 000000018000f7bc f   ElectronicJournalImpl.obj
 0001:0000e7d0       ?get_MediumIsAvailable@COPOSElectronicJournal@@UEAAJPEAF@Z 000000018000f7d0 f   ElectronicJournalImpl.obj
 0001:0000e804       ?get_MediumSize@COPOSElectronicJournal@@UEAAJPEATtagCY@@@Z 000000018000f804 f   ElectronicJournalImpl.obj
 0001:0000e8d4       ?get_OpenResult@COPOSElectronicJournal@@UEAAJPEAJ@Z 000000018000f8d4 f   ElectronicJournalImpl.obj
 0001:0000e8e0       ?get_OutputID@COPOSElectronicJournal@@UEAAJPEAJ@Z 000000018000f8e0 f   ElectronicJournalImpl.obj
 0001:0000e8f4       ?get_PowerNotify@COPOSElectronicJournal@@UEAAJPEAJ@Z 000000018000f8f4 f   ElectronicJournalImpl.obj
 0001:0000e908       ?get_PowerState@COPOSElectronicJournal@@UEAAJPEAJ@Z 000000018000f908 f   ElectronicJournalImpl.obj
 0001:0000e91c       ?get_ResultCode@COPOSElectronicJournal@@UEAAJPEAJ@Z 000000018000f91c f   ElectronicJournalImpl.obj
 0001:0000e958       ?get_ResultCodeExtended@COPOSElectronicJournal@@UEAAJPEAJ@Z 000000018000f958 f   ElectronicJournalImpl.obj
 0001:0000e96c       ?get_ServiceObjectDescription@COPOSElectronicJournal@@UEAAJPEAPEA_W@Z 000000018000f96c f   ElectronicJournalImpl.obj
 0001:0000e980       ?get_ServiceObjectVersion@COPOSElectronicJournal@@UEAAJPEAJ@Z 000000018000f980 f   ElectronicJournalImpl.obj
 0001:0000e994       ?get_State@COPOSElectronicJournal@@UEAAJPEAJ@Z 000000018000f994 f   ElectronicJournalImpl.obj
 0001:0000e9c0       ?get_Station@COPOSElectronicJournal@@UEAAJPEAJ@Z 000000018000f9c0 f   ElectronicJournalImpl.obj
 0001:0000e9d4       ?get_StorageEnabled@COPOSElectronicJournal@@UEAAJPEAF@Z 000000018000f9d4 f   ElectronicJournalImpl.obj
 0001:0000ea08       ?get_Suspended@COPOSElectronicJournal@@UEAAJPEAF@Z 000000018000fa08 f   ElectronicJournalImpl.obj
 0001:0000ea3c       ?get_WaterMark@COPOSElectronicJournal@@UEAAJPEAF@Z 000000018000fa3c f   ElectronicJournalImpl.obj
 0001:0000ea70       ?put_AsyncMode@COPOSElectronicJournal@@UEAAJF@Z 000000018000fa70 f   ElectronicJournalImpl.obj
 0001:0000ea8c       ?put_AutoDisable@COPOSElectronicJournal@@UEAAJF@Z 000000018000fa8c f   ElectronicJournalImpl.obj
 0001:0000eaa4       ?put_BinaryConversion@COPOSElectronicJournal@@UEAAJJ@Z 000000018000faa4 f   ElectronicJournalImpl.obj
 0001:0000eab8       ?put_DataEventEnabled@COPOSElectronicJournal@@UEAAJF@Z 000000018000fab8 f   ElectronicJournalImpl.obj
 0001:0000ead0       ?put_DeviceEnabled@COPOSElectronicJournal@@UEAAJF@Z 000000018000fad0 f   ElectronicJournalImpl.obj
 0001:0000eae8       ?put_FlagWhenIdle@COPOSElectronicJournal@@UEAAJF@Z 000000018000fae8 f   ElectronicJournalImpl.obj
 0001:0000eb04       ?put_FreezeEvents@COPOSElectronicJournal@@UEAAJF@Z 000000018000fb04 f   ElectronicJournalImpl.obj
 0001:0000eb54       ?put_PowerNotify@COPOSElectronicJournal@@UEAAJJ@Z 000000018000fb54 f   ElectronicJournalImpl.obj
 0001:0000eb68       ?put_Station@COPOSElectronicJournal@@UEAAJJ@Z 000000018000fb68 f   ElectronicJournalImpl.obj
 0001:0000eb7c       ?put_StorageEnabled@COPOSElectronicJournal@@UEAAJF@Z 000000018000fb7c f   ElectronicJournalImpl.obj
 0001:0000eb98       ?put_WaterMark@COPOSElectronicJournal@@UEAAJF@Z 000000018000fb98 f   ElectronicJournalImpl.obj
 0001:0000ebb4       ?s_EventWindowProc@COPOSElectronicJournal@@KA_JPEAUHWND__@@I_K_J@Z 000000018000fbb4 f i ElectronicJournalImpl.obj
 0001:0000ec30       ??_U@YAPEAX_K@Z            000000018000fc30 f   LIBCMT:new_array.obj
 0001:0000ec38       ??_V@YAXPEAX@Z             000000018000fc38 f   LIBCMT:delete_array.obj
 0001:0000ec38       ??3@YAXPEAX_K@Z            000000018000fc38 f   LIBCMT:delete_scalar_size.obj
 0001:0000ec40       ??_V@YAXPEAX_K@Z           000000018000fc40 f   LIBCMT:delete_array_size.obj
 0001:0000ec48       __scrt_acquire_startup_lock 000000018000fc48 f   LIBCMT:utility.obj
 0001:0000ec84       __scrt_dllmain_after_initialize_c 000000018000fc84 f   LIBCMT:utility.obj
 0001:0000ecb8       __scrt_dllmain_before_initialize_c 000000018000fcb8 f   LIBCMT:utility.obj
 0001:0000ecd0       __scrt_dllmain_crt_thread_attach 000000018000fcd0 f   LIBCMT:utility.obj
 0001:0000ecf8       __scrt_dllmain_crt_thread_detach 000000018000fcf8 f   LIBCMT:utility.obj
 0001:0000ed10       __scrt_dllmain_exception_filter 000000018000fd10 f   LIBCMT:utility.obj
 0001:0000ed70       __scrt_dllmain_uninitialize_c 000000018000fd70 f   LIBCMT:utility.obj
 0001:0000eda0       __scrt_dllmain_uninitialize_critical 000000018000fda0 f   LIBCMT:utility.obj
 0001:0000edb4       __scrt_initialize_crt      000000018000fdb4 f   LIBCMT:utility.obj
 0001:0000ee00       __scrt_initialize_onexit_tables 000000018000fe00 f   LIBCMT:utility.obj
 0001:0000eed8       __scrt_is_nonwritable_in_current_image 000000018000fed8 f   LIBCMT:utility.obj
 0001:0000ef74       __scrt_release_startup_lock 000000018000ff74 f   LIBCMT:utility.obj
 0001:0000ef98       __scrt_uninitialize_crt    000000018000ff98 f   LIBCMT:utility.obj
 0001:0000efc4       _onexit                    000000018000ffc4 f   LIBCMT:utility.obj
 0001:0000f014       atexit                     0000000180010014 f   LIBCMT:utility.obj
 0001:0000f02c       ??3@YAXPEAX@Z              000000018001002c f   LIBCMT:delete_scalar.obj
 0001:0000f1bc       _Init_thread_footer        00000001800101bc f   LIBCMT:thread_safe_statics.obj
 0001:0000f21c       _Init_thread_header        000000018001021c f   LIBCMT:thread_safe_statics.obj
 0001:0000f284       _Init_thread_notify        0000000180010284 f   LIBCMT:thread_safe_statics.obj
 0001:0000f2d4       _Init_thread_wait          00000001800102d4 f   LIBCMT:thread_safe_statics.obj
 0001:0000f34c       __raise_securityfailure    000000018001034c f   LIBCMT:gs_report.obj
 0001:0000f380       __report_gsfailure         0000000180010380 f   LIBCMT:gs_report.obj
 0001:0000f454       __report_rangecheckfailure 0000000180010454 f   LIBCMT:gs_report.obj
 0001:0000f468       __report_securityfailure   0000000180010468 f   LIBCMT:gs_report.obj
 0001:0000f5e8       ??2@YAPEAX_KAEBUnothrow_t@std@@@Z 00000001800105e8 f   LIBCMT:new_scalar_nothrow.obj
 0001:0000f608       ??_U@YAPEAX_KAEBUnothrow_t@std@@@Z 0000000180010608 f   LIBCMT:new_array_nothrow.obj
 0001:0000f610       __GSHandlerCheck           0000000180010610 f   LIBCMT:_gshandler_.obj
 0001:0000f630       __GSHandlerCheckCommon     0000000180010630 f   LIBCMT:_gshandler_.obj
 0001:0000f68c       __GSHandlerCheck_SEH       000000018001068c f   LIBCMT:_gshandlerseh_.obj
 0001:0000f730       _alloca_probe              0000000180010730 f   LIBCMT:_chkstk_.obj
 0001:0000f730       __chkstk                   0000000180010730 f   LIBCMT:_chkstk_.obj
 0001:0000f7a0       __security_check_cookie    00000001800107a0 f   LIBCMT:_amdsecgs_.obj
 0001:0000faf4       _DllMainCRTStartup         0000000180010af4 f   LIBCMT:dll_dllmain.obj
 0001:0000fb34       ??2@YAPEAX_K@Z             0000000180010b34 f   LIBCMT:new_scalar.obj
 0001:0000fb70       __isa_available_init       0000000180010b70 f   LIBCMT:_cpu_disp_.obj
 0001:0000fd2c       _get_startup_argv_mode     0000000180010d2c f   LIBCMT:argv_mode.obj
 0001:0000fd34       __scrt_is_ucrt_dll_in_use  0000000180010d34 f   LIBCMT:ucrt_detection.obj
 0001:0000fd40       __crt_debugger_hook        0000000180010d40 f   LIBCMT:utility_desktop.obj
 0001:0000fd48       __scrt_fastfail            0000000180010d48 f   LIBCMT:utility_desktop.obj
 0001:0000fe94       _guard_check_icall_nop     0000000180010e94 f i LIBCMT:guard_support.obj
 0001:0000fe98       __security_init_cookie     0000000180010e98 f   LIBCMT:gs_support.obj
 0001:0000ff44       ?__scrt_initialize_type_info@@YAXXZ 0000000180010f44 f   LIBCMT:tncleanup.obj
 0001:0000ff54       ?__scrt_uninitialize_type_info@@YAXXZ 0000000180010f54 f   LIBCMT:tncleanup.obj
 0001:0000ff60       __local_stdio_scanf_options 0000000180010f60 f i LIBCMT:default_local_stdio_options.obj
 0001:0000ff68       __scrt_initialize_default_local_stdio_options 0000000180010f68 f   LIBCMT:default_local_stdio_options.obj
 0001:0000ff84       __scrt_get_dyn_tls_init_callback 0000000180010f84 f   LIBCMT:dyn_tls_init.obj
 0001:0000ff8c       _RTC_Initialize            0000000180010f8c f   LIBCMT:_initsect_.obj
 0001:0000ffc8       _RTC_Terminate             0000000180010fc8 f   LIBCMT:_initsect_.obj
 0001:00010004       ??0bad_alloc@std@@QEAA@AEBV01@@Z 0000000180011004 f i LIBCMT:throw_bad_alloc.obj
 0001:00010044       ??0bad_alloc@std@@QEAA@XZ  0000000180011044 f i LIBCMT:throw_bad_alloc.obj
 0001:00010064       ??0bad_array_new_length@std@@QEAA@AEBV01@@Z 0000000180011064 f i LIBCMT:throw_bad_alloc.obj
 0001:000100a4       ??0bad_array_new_length@std@@QEAA@XZ 00000001800110a4 f i LIBCMT:throw_bad_alloc.obj
 0001:000100c4       ??0exception@std@@QEAA@AEBV01@@Z 00000001800110c4 f i LIBCMT:throw_bad_alloc.obj
 0001:000100fc       ??1bad_exception@std@@UEAA@XZ 00000001800110fc f i libvcruntime:frame.obj
 0001:000100fc       ??1bad_array_new_length@std@@UEAA@XZ 00000001800110fc f i LIBCMT:throw_bad_alloc.obj
 0001:000100fc       ??1bad_alloc@std@@UEAA@XZ  00000001800110fc f i LIBCMT:throw_bad_alloc.obj
 0001:00010110       ??_Eexception@std@@UEAAPEAXI@Z 0000000180011110 f i LIBCMT:throw_bad_alloc.obj
 0001:00010110       ??_Gexception@std@@UEAAPEAXI@Z 0000000180011110 f i LIBCMT:throw_bad_alloc.obj
 0001:00010110       ??_Ebad_alloc@std@@UEAAPEAXI@Z 0000000180011110 f i LIBCMT:throw_bad_alloc.obj
 0001:00010110       ??_Gbad_exception@std@@UEAAPEAXI@Z 0000000180011110 f i libvcruntime:frame.obj
 0001:00010110       ??_Gbad_array_new_length@std@@UEAAPEAXI@Z 0000000180011110 f i LIBCMT:throw_bad_alloc.obj
 0001:00010110       ??_Ebad_array_new_length@std@@UEAAPEAXI@Z 0000000180011110 f i LIBCMT:throw_bad_alloc.obj
 0001:00010110       ??_Ebad_exception@std@@UEAAPEAXI@Z 0000000180011110 f i libvcruntime:frame.obj
 0001:00010110       ??_Gbad_alloc@std@@UEAAPEAXI@Z 0000000180011110 f i LIBCMT:throw_bad_alloc.obj
 0001:00010154       ?__scrt_throw_std_bad_alloc@@YAXXZ 0000000180011154 f   LIBCMT:throw_bad_alloc.obj
 0001:00010174       ?__scrt_throw_std_bad_array_new_length@@YAXXZ 0000000180011174 f   LIBCMT:throw_bad_alloc.obj
 0001:00010194       ?what@exception@std@@UEBAPEBDXZ 0000000180011194 f i LIBCMT:throw_bad_alloc.obj
 0001:000101b0       ??_Etype_info@@UEAAPEAXI@Z 00000001800111b0 f i LIBCMT:std_type_info_static.obj
 0001:000101b0       ??_Gtype_info@@UEAAPEAXI@Z 00000001800111b0 f i LIBCMT:std_type_info_static.obj
 0001:000101dc       ??0CAtlBaseModule@ATL@@QEAA@XZ 00000001800111dc f   atls:atlbase.obj
 0001:00010284       ??1CAtlBaseModule@ATL@@QEAA@XZ 0000000180011284 f   atls:atlbase.obj
 0001:000103b8       ?__AllocStdCallThunk_cmn@@YAPEAXXZ 00000001800113b8 f   atls:atlthunk.obj
 0001:00010510       AtlThunk_AllocateData      0000000180011510 f   atls:atlthunk.obj
 0001:0001058c       AtlThunk_DataToCode        000000018001158c f   atls:atlthunk.obj
 0001:000105e0       AtlThunk_FreeData          00000001800115e0 f   atls:atlthunk.obj
 0001:00010640       AtlThunk_InitData          0000000180011640 f   atls:atlthunk.obj
 0001:00010700       memset_repmovs             0000000180011700 f   libvcruntime:memset.obj
 0001:00010720       memset                     0000000180011720 f   libvcruntime:memset.obj
 0001:000108b0       _purecall                  00000001800118b0 f   libvcruntime:purevirt.obj
 0001:000108e0       wcsstr                     00000001800118e0 f   libvcruntime:wcsstr.obj
 0001:00010b10       memcmp                     0000000180011b10 f   libvcruntime:memcmp.obj
 0001:00010bf0       memcpy_repmovs             0000000180011bf0 f   libvcruntime:memcpy.obj
 0001:00010c10       memmove                    0000000180011c10 f   libvcruntime:memcpy.obj
 0001:00010c10       memcpy                     0000000180011c10 f   libvcruntime:memcpy.obj
 0001:00011048       __vcrt_initialize          0000000180012048 f   libvcruntime:initialization.obj
 0001:0001107c       __vcrt_thread_attach       000000018001207c f   libvcruntime:initialization.obj
 0001:00011090       __vcrt_thread_detach       0000000180012090 f   libvcruntime:initialization.obj
 0001:000110a4       __vcrt_uninitialize        00000001800120a4 f   libvcruntime:initialization.obj
 0001:000110c4       __vcrt_uninitialize_critical 00000001800120c4 f   libvcruntime:initialization.obj
 0001:000110d4       __C_specific_handler       00000001800120d4 f   libvcruntime:_riscchandler_.obj
 0001:000112e0       __DestructExceptionObject  00000001800122e0 f   libvcruntime:ehhelpers.obj
 0001:00011354       ?_CallMemberFunction0@@YAXQEAX0@Z 0000000180012354 f i libvcruntime:ehhelpers.obj
 0001:00011358       _IsExceptionObjectToBeDestroyed 0000000180012358 f   libvcruntime:ehhelpers.obj
 0001:00011388       __AdjustPointer            0000000180012388 f   libvcruntime:ehhelpers.obj
 0001:000113ac       __FrameUnwindFilter        00000001800123ac f   libvcruntime:ehhelpers.obj
 0001:000113f8       __std_terminate            00000001800123f8 f   libvcruntime:ehhelpers.obj
 0001:00011404       ??$_CallSETranslator@V__FrameHandler3@@@@YAHPEAUEHExceptionRecord@@PEA_KPEAU_CONTEXT@@PEAU_xDISPATCHER_CONTEXT@@PEBU_s_FuncInfo@@K1@Z 0000000180012404 f i libvcruntime:risctrnsctrl.obj
 0001:00011458       ?CatchTryBlock@__FrameHandler3@@SAPEBU_s_TryBlockMapEntry@@PEBU_s_FuncInfo@@H@Z 0000000180012458 f   libvcruntime:risctrnsctrl.obj
 0001:000114b0       ?ExecutionInCatch@__FrameHandler3@@SA_NPEAU_xDISPATCHER_CONTEXT@@PEBU_s_FuncInfo@@@Z 00000001800124b0 f   libvcruntime:risctrnsctrl.obj
 0001:000114dc       ?FrameUnwindToEmptyState@__FrameHandler3@@SAXPEA_KPEAU_xDISPATCHER_CONTEXT@@PEBU_s_FuncInfo@@@Z 00000001800124dc f   libvcruntime:risctrnsctrl.obj
 0001:00011540       ?GetEstablisherFrame@__FrameHandler3@@SAPEA_KPEA_KPEAU_xDISPATCHER_CONTEXT@@PEBU_s_FuncInfo@@0@Z 0000000180012540 f   libvcruntime:risctrnsctrl.obj
 0001:0001160c       ?GetRangeOfTrysToCheck@__FrameHandler3@@SA?AU?$pair@Viterator@TryBlockMap@__FrameHandler3@@V123@@std@@AEAVTryBlockMap@1@HH@Z 000000018001260c f   libvcruntime:risctrnsctrl.obj
 0001:00011768       ?UnwindNestedFrames@__FrameHandler3@@SAXPEA_KPEAUEHExceptionRecord@@PEAU_CONTEXT@@0PEAXPEBU_s_FuncInfo@@HHPEBU_s_HandlerType@@PEAU_xDISPATCHER_CONTEXT@@E@Z 0000000180012768 f   libvcruntime:risctrnsctrl.obj
 0001:0001188c       _CreateFrameInfo           000000018001288c f   libvcruntime:risctrnsctrl.obj
 0001:000118c8       _FindAndUnlinkFrame        00000001800128c8 f   libvcruntime:risctrnsctrl.obj
 0001:0001191c       _GetImageBase              000000018001291c f   libvcruntime:risctrnsctrl.obj
 0001:00011930       _GetThrowImageBase         0000000180012930 f   libvcruntime:risctrnsctrl.obj
 0001:00011944       _SetImageBase              0000000180012944 f   libvcruntime:risctrnsctrl.obj
 0001:0001195c       _SetThrowImageBase         000000018001295c f   libvcruntime:risctrnsctrl.obj
 0001:00011974       __CxxFrameHandler3         0000000180012974 f   libvcruntime:risctrnsctrl.obj
 0001:000119f4       __std_type_info_compare    00000001800129f4 f   libvcruntime:std_type_info.obj
 0001:00011a1c       __std_type_info_destroy_list 0000000180012a1c f   libvcruntime:std_type_info.obj
 0001:00011a48       __std_exception_copy       0000000180012a48 f   libvcruntime:std_exception.obj
 0001:00011ad8       __std_exception_destroy    0000000180012ad8 f   libvcruntime:std_exception.obj
 0001:00011b00       _CxxThrowException         0000000180012b00 f   libvcruntime:throw.obj
 0001:00011bc0       __vcrt_initialize_pure_virtual_call_handler 0000000180012bc0 f   libvcruntime:purevirt_data.obj
 0001:00011bd0       __vcrt_freefls             0000000180012bd0 f   libvcruntime:per_thread_data.obj
 0001:00011bf0       __vcrt_freeptd             0000000180012bf0 f   libvcruntime:per_thread_data.obj
 0001:00011c40       __vcrt_getptd              0000000180012c40 f   libvcruntime:per_thread_data.obj
 0001:00011c5c       __vcrt_getptd_noexit       0000000180012c5c f   libvcruntime:per_thread_data.obj
 0001:00011d28       __vcrt_initialize_ptd      0000000180012d28 f   libvcruntime:per_thread_data.obj
 0001:00011d7c       __vcrt_uninitialize_ptd    0000000180012d7c f   libvcruntime:per_thread_data.obj
 0001:00011da0       __vcrt_initialize_locks    0000000180012da0 f   libvcruntime:locks.obj
 0001:00011de8       __vcrt_uninitialize_locks  0000000180012de8 f   libvcruntime:locks.obj
 0001:00011ff8       __vcrt_FlsAlloc            0000000180012ff8 f   libvcruntime:winapi_downlevel.obj
 0001:00012040       __vcrt_FlsFree             0000000180013040 f   libvcruntime:winapi_downlevel.obj
 0001:00012088       __vcrt_FlsGetValue         0000000180013088 f   libvcruntime:winapi_downlevel.obj
 0001:000120d0       __vcrt_FlsSetValue         00000001800130d0 f   libvcruntime:winapi_downlevel.obj
 0001:00012124       __vcrt_InitializeCriticalSectionEx 0000000180013124 f   libvcruntime:winapi_downlevel.obj
 0001:00012188       __vcrt_initialize_winapi_thunks 0000000180013188 f   libvcruntime:winapi_downlevel.obj
 0001:000121b8       __vcrt_uninitialize_winapi_thunks 00000001800131b8 f   libvcruntime:winapi_downlevel.obj
 0001:00012210       _NLG_Notify                0000000180013210 f   libvcruntime:_notify_.obj
 0001:00012230       __NLG_Dispatch2            0000000180013230 f   libvcruntime:_notify_.obj
 0001:00012240       __NLG_Return2              0000000180013240 f   libvcruntime:_notify_.obj
 0001:00012244       __except_validate_context_record 0000000180013244 f   libvcruntime:jbcxrval.obj
 0001:0001227c       ?GetCurrentState@__FrameHandler3@@SAHPEA_KPEAU_xDISPATCHER_CONTEXT@@PEBU_s_FuncInfo@@@Z 000000018001327c f   libvcruntime:ehstate.obj
 0001:000122a4       ?GetUnwindTryBlock@__FrameHandler3@@SAHPEA_KPEAU_xDISPATCHER_CONTEXT@@PEBU_s_FuncInfo@@@Z 00000001800132a4 f   libvcruntime:ehstate.obj
 0001:000122d0       ?SetState@__FrameHandler3@@SAXPEA_KPEBU_s_FuncInfo@@H@Z 00000001800132d0 f   libvcruntime:ehstate.obj
 0001:000122dc       ?SetUnwindTryBlock@__FrameHandler3@@SAXPEA_KPEAU_xDISPATCHER_CONTEXT@@PEBU_s_FuncInfo@@H@Z 00000001800132dc f   libvcruntime:ehstate.obj
 0001:00012318       ?StateFromControlPc@__FrameHandler3@@SAHPEBU_s_FuncInfo@@PEAU_xDISPATCHER_CONTEXT@@@Z 0000000180013318 f   libvcruntime:ehstate.obj
 0001:00012320       ?StateFromIp@__FrameHandler3@@SAHPEBU_s_FuncInfo@@PEAU_xDISPATCHER_CONTEXT@@_K@Z 0000000180013320 f   libvcruntime:ehstate.obj
 0001:00012dac       ??$TypeMatchHelper@$$CBU_s_HandlerType@@@@YAHPEBU_s_HandlerType@@PEBU_s_CatchableType@@PEBU_s_ThrowInfo@@@Z 0000000180013dac f i libvcruntime:frame.obj
 0001:00012ef0       ??$__InternalCxxFrameHandler@V__FrameHandler3@@@@YA?AW4_EXCEPTION_DISPOSITION@@PEAUEHExceptionRecord@@PEA_KPEAU_CONTEXT@@PEAU_xDISPATCHER_CONTEXT@@PEBU_s_FuncInfo@@H1E@Z 0000000180013ef0 f i libvcruntime:frame.obj
 0001:00013138       ??0bad_exception@std@@QEAA@AEBV01@@Z 0000000180014138 f i libvcruntime:frame.obj
 0001:00013178       ??0bad_exception@std@@QEAA@XZ 0000000180014178 f i libvcruntime:frame.obj
 0001:00013198       ?CxxCallCatchBlock@__FrameHandler3@@SAPEAXPEAU_EXCEPTION_RECORD@@@Z 0000000180014198 f   libvcruntime:frame.obj
 0001:0001340c       ?FrameUnwindToState@__FrameHandler3@@SAXPEA_KPEAU_xDISPATCHER_CONTEXT@@PEBU_s_FuncInfo@@H@Z 000000018001440c f   libvcruntime:frame.obj
 0001:000135a0       ?GetHandlerSearchState@__FrameHandler3@@SAHPEA_KPEAU_xDISPATCHER_CONTEXT@@PEBU_s_FuncInfo@@@Z 00000001800145a0 f i libvcruntime:frame.obj
 0001:000137a4       ?_CallMemberFunction1@@YAXQEAX00@Z 00000001800147a4 f i libvcruntime:frame.obj
 0001:000137b0       ?_CallMemberFunction2@@YAXQEAX00H@Z 00000001800147b0 f i libvcruntime:frame.obj
 0001:000137d0       _CallSettingFrame          00000001800147d0 f   libvcruntime:handlers.obj
 0001:00013820       _CallSettingFrameEncoded   0000000180014820 f   libvcruntime:handlers.obj
 0001:00013868       free                       0000000180014868 f   libucrt:free.obj
 0001:0001387c       __acrt_call_reportfault    000000018001487c f   libucrt:invalid_parameter.obj
 0001:000139d8       __acrt_initialize_invalid_parameter_handler 00000001800149d8 f   libucrt:invalid_parameter.obj
 0001:000139e0       _invalid_parameter         00000001800149e0 f   libucrt:invalid_parameter.obj
 0001:00013a90       _invalid_parameter_noinfo  0000000180014a90 f   libucrt:invalid_parameter.obj
 0001:00013ab0       _invoke_watson             0000000180014ab0 f   libucrt:invalid_parameter.obj
 0001:00013af8       __acrt_errno_from_os_error 0000000180014af8 f   libucrt:errno.obj
 0001:00013b40       __acrt_errno_map_os_error  0000000180014b40 f   libucrt:errno.obj
 0001:00013b90       __doserrno                 0000000180014b90 f   libucrt:errno.obj
 0001:00013bb0       _errno                     0000000180014bb0 f   libucrt:errno.obj
 0001:00013bd0       calloc                     0000000180014bd0 f   libucrt:calloc.obj
 0001:00013bd8       malloc                     0000000180014bd8 f   libucrt:malloc.obj
 0001:00013be0       _recalloc                  0000000180014be0 f   libucrt:recalloc.obj
 0001:00013be8       _recalloc_base             0000000180014be8 f   libucrt:recalloc.obj
 0001:00013c80       _resetstkoflw              0000000180014c80 f   libucrt:resetstk.obj
 0001:00013da4       wcscat_s                   0000000180014da4 f   libucrt:wcscat_s.obj
 0001:00013e24       wcscpy_s                   0000000180014e24 f   libucrt:wcscpy_s.obj
 0001:00013e8c       wcsncpy_s                  0000000180014e8c f   libucrt:wcsncpy_s.obj
 0001:00014144       ??$ensure_buffer_is_big_enough@D@formatting_buffer@__crt_stdio_output@@QEAA_N_K@Z 0000000180015144 f i libucrt:output.obj
 0001:000141f0       ??$is_wide_character_specifier@_W@__crt_stdio_output@@YA_N_K_WW4length_modifier@0@@Z 00000001800151f0 f i libucrt:output.obj
 0001:00014234       ??$type_case_integer_parse_into_buffer@I@?$output_processor@_WV?$string_output_adapter@_W@__crt_stdio_output@@V?$format_validation_base@_WV?$string_output_adapter@_W@__crt_stdio_output@@@2@@__crt_stdio_output@@AEAAXII_N@Z 0000000180015234 f i libucrt:output.obj
 0001:000142e0       ??$type_case_integer_parse_into_buffer@_K@?$output_processor@_WV?$string_output_adapter@_W@__crt_stdio_output@@V?$format_validation_base@_WV?$string_output_adapter@_W@__crt_stdio_output@@@2@@__crt_stdio_output@@AEAAX_KI_N@Z 00000001800152e0 f i libucrt:output.obj
 0001:0001438c       ??$write_multiple_characters@V?$string_output_adapter@_W@__crt_stdio_output@@D@__crt_stdio_output@@YAXAEBV?$string_output_adapter@_W@0@DHQEAH@Z 000000018001538c f i libucrt:output.obj
 0001:000143fc       ??0_LocaleUpdate@@QEAA@QEAU__crt_locale_pointers@@@Z 00000001800153fc f i libucrt:output.obj
 0001:0001448c       ?force_decimal_point@__crt_stdio_output@@YAXPEADQEAU__crt_locale_pointers@@@Z 000000018001548c f i libucrt:output.obj
 0001:000144fc       ?parse_int_from_format_string@?$output_processor@_WV?$string_output_adapter@_W@__crt_stdio_output@@V?$format_validation_base@_WV?$string_output_adapter@_W@__crt_stdio_output@@@2@@__crt_stdio_output@@AEAA_NQEAH@Z 00000001800154fc f i libucrt:output.obj
 0001:000145a0       ?process@?$output_processor@_WV?$string_output_adapter@_W@__crt_stdio_output@@V?$format_validation_base@_WV?$string_output_adapter@_W@__crt_stdio_output@@@2@@__crt_stdio_output@@QEAAHXZ 00000001800155a0 f i libucrt:output.obj
 0001:0001482c       ?state_case_size@?$output_processor@_WV?$string_output_adapter@_W@__crt_stdio_output@@V?$format_validation_base@_WV?$string_output_adapter@_W@__crt_stdio_output@@@2@@__crt_stdio_output@@AEAA_NXZ 000000018001582c f i libucrt:output.obj
 0001:000149d0       ?state_case_type@?$output_processor@_WV?$string_output_adapter@_W@__crt_stdio_output@@V?$format_validation_base@_WV?$string_output_adapter@_W@__crt_stdio_output@@@2@@__crt_stdio_output@@AEAA_NXZ 00000001800159d0 f i libucrt:output.obj
 0001:00014c9c       ?type_case_Z@?$output_processor@_WV?$string_output_adapter@_W@__crt_stdio_output@@V?$format_validation_base@_WV?$string_output_adapter@_W@__crt_stdio_output@@@2@@__crt_stdio_output@@AEAA_NXZ 0000000180015c9c f i libucrt:output.obj
 0001:00014d1c       ?type_case_a@?$output_processor@_WV?$string_output_adapter@_W@__crt_stdio_output@@V?$format_validation_base@_WV?$string_output_adapter@_W@__crt_stdio_output@@@2@@__crt_stdio_output@@AEAA_NXZ 0000000180015d1c f i libucrt:output.obj
 0001:00014f60       ?type_case_c_tchar@?$output_processor@_WV?$string_output_adapter@_W@__crt_stdio_output@@V?$format_validation_base@_WV?$string_output_adapter@_W@__crt_stdio_output@@@2@@__crt_stdio_output@@AEAA_N_W@Z 0000000180015f60 f i libucrt:output.obj
 0001:00015008       ?type_case_integer@?$output_processor@_WV?$string_output_adapter@_W@__crt_stdio_output@@V?$format_validation_base@_WV?$string_output_adapter@_W@__crt_stdio_output@@@2@@__crt_stdio_output@@AEAA_NI_N@Z 0000000180016008 f i libucrt:output.obj
 0001:000151b4       ?type_case_n@?$output_processor@_WV?$string_output_adapter@_W@__crt_stdio_output@@V?$format_validation_base@_WV?$string_output_adapter@_W@__crt_stdio_output@@@2@@__crt_stdio_output@@AEAA_NXZ 00000001800161b4 f i libucrt:output.obj
 0001:00015290       ?type_case_s@?$output_processor@_WV?$string_output_adapter@_W@__crt_stdio_output@@V?$format_validation_base@_WV?$string_output_adapter@_W@__crt_stdio_output@@@2@@__crt_stdio_output@@AEAA_NXZ 0000000180016290 f i libucrt:output.obj
 0001:00015358       ?write_stored_string_tchar@?$output_processor@_WV?$string_output_adapter@_W@__crt_stdio_output@@V?$format_validation_base@_WV?$string_output_adapter@_W@__crt_stdio_output@@@2@@__crt_stdio_output@@AEAA_N_W@Z 0000000180016358 f i libucrt:output.obj
 0001:00015448       ?write_string@?$string_output_adapter@_W@__crt_stdio_output@@QEBAXQEB_WHQEAHAEAV__crt_deferred_errno_cache@@@Z 0000000180016448 f i libucrt:output.obj
 0001:000154f0       __stdio_common_vswprintf_s 00000001800164f0 f   libucrt:output.obj
 0001:00015560       _seh_filter_dll            0000000180016560 f   libucrt:exception_filter.obj
 0001:00015574       _seh_filter_exe            0000000180016574 f   libucrt:exception_filter.obj
 0001:00015700       ??$?RV<lambda_d80eeec6fff315bfe5c115232f3240e3>@@AEAV<lambda_6e4b09c48022b2350581041d5f6b0c4c>@@V<lambda_2358e3775559c9db80273638284d5e45>@@@?$__crt_seh_guarded_call@X@@QEAAX$$QEAV<lambda_d80eeec6fff315bfe5c115232f3240e3>@@AEAV<lambda_6e4b09c48022b2350581041d5f6b0c4c>@@$$QEAV<lambda_2358e3775559c9db80273638284d5e45>@@@Z 0000000180016700 f i libucrt:exit.obj
 0001:00015980       __acrt_initialize_thread_local_exit_callback 0000000180016980 f   libucrt:exit.obj
 0001:00015988       _cexit                     0000000180016988 f   libucrt:exit.obj
 0001:00015998       _exit                      0000000180016998 f   libucrt:exit.obj
 0001:000159a4       _is_c_termination_complete 00000001800169a4 f   libucrt:exit.obj
 0001:00015b68       __acrt_allocate_buffer_for_argv 0000000180016b68 f   libucrt:argv_parsing.obj
 0001:00015bcc       _configure_narrow_argv     0000000180016bcc f   libucrt:argv_parsing.obj
 0001:00015f38       __dcrt_uninitialize_environments_nolock 0000000180016f38 f   libucrt:environment_initialization.obj
 0001:00015f70       _initialize_narrow_environment 0000000180016f70 f   libucrt:environment_initialization.obj
 0001:00015f78       ??$?RV<lambda_638799b9deba96c50f710eeac98168cd>@@AEAV<lambda_22ebabd17bc4fa466a2aca6d8deb888d>@@V<lambda_a6f7d7db0129f75315ebf26d50c089f1>@@@?$__crt_seh_guarded_call@H@@QEAAH$$QEAV<lambda_638799b9deba96c50f710eeac98168cd>@@AEAV<lambda_22ebabd17bc4fa466a2aca6d8deb888d>@@$$QEAV<lambda_a6f7d7db0129f75315ebf26d50c089f1>@@@Z 0000000180016f78 f i libucrt:onexit.obj
 0001:00015fb4       ??$?RV<lambda_7777bce6b2f8c936911f934f8298dc43>@@AEAV<lambda_f03950bc5685219e0bcd2087efbe011e>@@V<lambda_3883c3dff614d5e0c5f61bb1ac94921c>@@@?$__crt_seh_guarded_call@H@@QEAAH$$QEAV<lambda_7777bce6b2f8c936911f934f8298dc43>@@AEAV<lambda_f03950bc5685219e0bcd2087efbe011e>@@$$QEAV<lambda_3883c3dff614d5e0c5f61bb1ac94921c>@@@Z 0000000180016fb4 f i libucrt:onexit.obj
 0001:00016318       _crt_atexit                0000000180017318 f   libucrt:onexit.obj
 0001:00016328       _execute_onexit_table      0000000180017328 f   libucrt:onexit.obj
 0001:00016364       _initialize_onexit_table   0000000180017364 f   libucrt:onexit.obj
 0001:000163a4       _register_onexit_function  00000001800173a4 f   libucrt:onexit.obj
 0001:00016424       __acrt_uninitialize_command_line 0000000180017424 f   libucrt:argv_data.obj
 0001:00016500       ??$uninitialize@V<lambda_af42a3ee9806e9a7305d451646e05244>@@@?$dual_state_global@PEAU__crt_multibyte_data@@@__crt_state_management@@QEAAX$$QEAV<lambda_af42a3ee9806e9a7305d451646e05244>@@@Z 0000000180017500 f i libucrt:initialization.obj
 0001:00016580       __acrt_initialize          0000000180017580 f   libucrt:initialization.obj
 0001:00016594       __acrt_thread_attach       0000000180017594 f   libucrt:initialization.obj
 0001:000165a8       __acrt_thread_detach       00000001800175a8 f   libucrt:initialization.obj
 0001:000165b8       __acrt_uninitialize        00000001800175b8 f   libucrt:initialization.obj
 0001:000165cc       __acrt_uninitialize_critical 00000001800175cc f   libucrt:initialization.obj
 0001:000165dc       _initterm                  00000001800175dc f   libucrt:initterm.obj
 0001:00016640       _initterm_e                0000000180017640 f   libucrt:initterm.obj
 0001:00016680       __acrt_initialize_new_handler 0000000180017680 f   libucrt:new_handler.obj
 0001:00016688       _callnewh                  0000000180017688 f   libucrt:new_handler.obj
 0001:000166b8       _query_new_handler         00000001800176b8 f   libucrt:new_handler.obj
 0001:000166ec       terminate                  00000001800176ec f   libucrt:terminate.obj
 0001:0001670c       abort                      000000018001770c f   libucrt:abort.obj
 0001:00016764       strcpy_s                   0000000180017764 f   libucrt:strcpy_s.obj
 0001:000167c4       wcsncmp                    00000001800177c4 f   libucrt:wcsncmp.obj
 0001:000167f0       ??$is_overflow_condition@K@__crt_strtox@@YA_NIK@Z 00000001800177f0 f i libucrt:atox.obj
 0001:0001681c       ??$parse_integer@KV?$c_string_character_source@_W@__crt_strtox@@@__crt_strtox@@YAKQEAU__crt_locale_pointers@@V?$c_string_character_source@_W@0@H_N@Z 000000018001781c f i libucrt:atox.obj
 0001:00016f00       strncmp                    0000000180017f00 f   libucrt:strncmp.obj
 0001:00016f80       _free_base                 0000000180017f80 f   libucrt:free_base.obj
 0001:00016fc0       ??$?RV<lambda_0ae27a3a962d80f24befdcbee591983d>@@AEAV<lambda_8d0ee55de4b1038c4002e0adecdf1839>@@V<lambda_dc504788e8f1664fe9b84e20bfb512f2>@@@?$__crt_seh_guarded_call@X@@QEAAX$$QEAV<lambda_0ae27a3a962d80f24befdcbee591983d>@@AEAV<lambda_8d0ee55de4b1038c4002e0adecdf1839>@@$$QEAV<lambda_dc504788e8f1664fe9b84e20bfb512f2>@@@Z 0000000180017fc0 f i libucrt:per_thread_data.obj
 0001:00017000       ??$?RV<lambda_2d41944a1d46af3157314b8a01080d33>@@AEAV<lambda_8f455de75cd7d7f24b4096f044d8b9e6>@@V<lambda_aa500f224e6afead328df44964fe2772>@@@?$__crt_seh_guarded_call@X@@QEAAX$$QEAV<lambda_2d41944a1d46af3157314b8a01080d33>@@AEAV<lambda_8f455de75cd7d7f24b4096f044d8b9e6>@@$$QEAV<lambda_aa500f224e6afead328df44964fe2772>@@@Z 0000000180018000 f i libucrt:per_thread_data.obj
 0001:00017040       ??$?RV<lambda_aa87e3671a710a21b5dc78c0bdf72e11>@@AEAV<lambda_92619d2358a28f41a33ba319515a20b9>@@V<lambda_6992ecaafeb10aed2b74cb1fae11a551>@@@?$__crt_seh_guarded_call@X@@QEAAX$$QEAV<lambda_aa87e3671a710a21b5dc78c0bdf72e11>@@AEAV<lambda_92619d2358a28f41a33ba319515a20b9>@@$$QEAV<lambda_6992ecaafeb10aed2b74cb1fae11a551>@@@Z 0000000180018040 f i libucrt:per_thread_data.obj
 0001:00017088       ??$?RV<lambda_f2e299630e499de9f9a165e60fcd3db5>@@AEAV<lambda_2ae9d31cdba2644fcbeaf08da7c24588>@@V<lambda_40d01ff24d0e7b3814fdbdcee8eab3c7>@@@?$__crt_seh_guarded_call@X@@QEAAX$$QEAV<lambda_f2e299630e499de9f9a165e60fcd3db5>@@AEAV<lambda_2ae9d31cdba2644fcbeaf08da7c24588>@@$$QEAV<lambda_40d01ff24d0e7b3814fdbdcee8eab3c7>@@@Z 0000000180018088 f i libucrt:per_thread_data.obj
 0001:00017338       __acrt_freeptd             0000000180018338 f   libucrt:per_thread_data.obj
 0001:0001737c       __acrt_getptd              000000018001837c f   libucrt:per_thread_data.obj
 0001:00017448       __acrt_getptd_head         0000000180018448 f   libucrt:per_thread_data.obj
 0001:000174f0       __acrt_getptd_noexit       00000001800184f0 f   libucrt:per_thread_data.obj
 0001:000175c0       __acrt_initialize_ptd      00000001800185c0 f   libucrt:per_thread_data.obj
 0001:000175fc       __acrt_uninitialize_ptd    00000001800185fc f   libucrt:per_thread_data.obj
 0001:00017620       _calloc_base               0000000180018620 f   libucrt:calloc_base.obj
 0001:00017698       _malloc_base               0000000180018698 f   libucrt:malloc_base.obj
 0001:000176f8       _msize                     00000001800186f8 f   libucrt:msize.obj
 0001:00017700       _msize_base                0000000180018700 f   libucrt:msize.obj
 0001:0001773c       _realloc_base              000000018001873c f   libucrt:realloc_base.obj
 0001:00017998       __acrt_AppPolicyGetProcessTerminationMethodInternal 0000000180018998 f   libucrt:winapi_thunks.obj
 0001:000179e8       __acrt_FlsAlloc            00000001800189e8 f   libucrt:winapi_thunks.obj
 0001:00017a30       __acrt_FlsFree             0000000180018a30 f   libucrt:winapi_thunks.obj
 0001:00017a78       __acrt_FlsGetValue         0000000180018a78 f   libucrt:winapi_thunks.obj
 0001:00017ac0       __acrt_FlsSetValue         0000000180018ac0 f   libucrt:winapi_thunks.obj
 0001:00017b14       __acrt_InitializeCriticalSectionEx 0000000180018b14 f   libucrt:winapi_thunks.obj
 0001:00017b78       __acrt_LCMapStringEx       0000000180018b78 f   libucrt:winapi_thunks.obj
 0001:00017c54       __acrt_LocaleNameToLCID    0000000180018c54 f   libucrt:winapi_thunks.obj
 0001:00017ca4       __acrt_SetThreadStackGuarantee 0000000180018ca4 f   libucrt:winapi_thunks.obj
 0001:00017ce8       __acrt_initialize_winapi_thunks 0000000180018ce8 f   libucrt:winapi_thunks.obj
 0001:00017d20       __acrt_uninitialize_winapi_thunks 0000000180018d20 f   libucrt:winapi_thunks.obj
 0001:00017d64       isdigit                    0000000180018d64 f i libucrt:_ctype.obj
 0001:00017e28       _tolower_l                 0000000180018e28 f   libucrt:tolower_toupper.obj
 0001:00017f68       tolower                    0000000180018f68 f   libucrt:tolower_toupper.obj
 0001:00017f94       ??$make_c_string_character_source@_WPEAPEA_W@__crt_strtox@@YA?AV?$c_string_character_source@_W@0@QEB_WQEAPEA_W@Z 0000000180018f94 f i libucrt:strtox.obj
 0001:00017fa8       wcstol                     0000000180018fa8 f   libucrt:strtox.obj
 0001:00017fd8       _mbtowc_l                  0000000180018fd8 f   libucrt:mbtowc.obj
 0001:00018120       mbtowc                     0000000180019120 f   libucrt:mbtowc.obj
 0001:00018128       wcsnlen                    0000000180019128 f   libucrt:strnlen.obj
 0001:00018320       __acrt_update_locale_info  0000000180019320 f   libucrt:locale_update.obj
 0001:00018354       __acrt_update_multibyte_info 0000000180019354 f   libucrt:locale_update.obj
 0001:00018388       ?__acrt_fp_classify@@YA?AW4__acrt_fp_class@@AEBN@Z 0000000180019388 f i libucrt:cvt.obj
 0001:00018dc0       __acrt_fp_format           0000000180019dc0 f   libucrt:cvt.obj
 0001:00019004       _fileno                    000000018001a004 f   libucrt:fileno.obj
 0001:0001902c       __acrt_initialize_stdio    000000018001a02c f   libucrt:_file.obj
 0001:0001914c       __acrt_uninitialize_stdio  000000018001a14c f   libucrt:_file.obj
 0001:000191a8       _lock_file                 000000018001a1a8 f   libucrt:_file.obj
 0001:000191b4       _unlock_file               000000018001a1b4 f   libucrt:_file.obj
 0001:000191c0       _get_printf_count_output   000000018001a1c0 f   libucrt:printf_count_output.obj
 0001:000191d8       ??$?RV<lambda_410d79af7f07d98d83a3f525b3859a53>@@AEAV<lambda_3e16ef9562a7dcce91392c22ab16ea36>@@V<lambda_38119f0e861e05405d8a144b9b982f0a>@@@?$__crt_seh_guarded_call@X@@QEAAX$$QEAV<lambda_410d79af7f07d98d83a3f525b3859a53>@@AEAV<lambda_3e16ef9562a7dcce91392c22ab16ea36>@@$$QEAV<lambda_38119f0e861e05405d8a144b9b982f0a>@@@Z 000000018001a1d8 f i libucrt:wsetlocale.obj
 0001:00019248       __acrt_set_locale_changed  000000018001a248 f   libucrt:wsetlocale.obj
 0001:00019254       __acrt_uninitialize_locale 000000018001a254 f   libucrt:wsetlocale.obj
 0001:0001946c       __acrt_initialize_lowio    000000018001a46c f   libucrt:ioinit.obj
 0001:000194a8       __acrt_uninitialize_lowio  000000018001a4a8 f   libucrt:ioinit.obj
 0001:000194e8       __acrt_initialize_locks    000000018001a4e8 f   libucrt:locks.obj
 0001:00019530       __acrt_lock                000000018001a530 f   libucrt:locks.obj
 0001:0001954c       __acrt_uninitialize_locks  000000018001a54c f   libucrt:locks.obj
 0001:00019584       __acrt_unlock              000000018001a584 f   libucrt:locks.obj
 0001:000195a0       __acrt_get_process_end_policy 000000018001a5a0 f   libucrt:win_policies.obj
 0001:00019b2c       __acrt_expand_narrow_argv_wildcards 000000018001ab2c f   libucrt:argv_wildcards.obj
 0001:00019b34       ??$?RV<lambda_efdfa57d1f175319df784efa44bb7b81>@@AEAV<lambda_5f0a4c1567f8adc6734073e5d1e1b35c>@@V<lambda_2e8a7d3640ea6ccb4c2413664c2db6fd>@@@?$__crt_seh_guarded_call@X@@QEAAX$$QEAV<lambda_efdfa57d1f175319df784efa44bb7b81>@@AEAV<lambda_5f0a4c1567f8adc6734073e5d1e1b35c>@@$$QEAV<lambda_2e8a7d3640ea6ccb4c2413664c2db6fd>@@@Z 000000018001ab34 f i libucrt:mbctype.obj
 0001:0001a26c       __acrt_initialize_multibyte 000000018001b26c f   libucrt:mbctype.obj
 0001:0001a2cc       __acrt_update_thread_multibyte_data 000000018001b2cc f   libucrt:mbctype.obj
 0001:0001a2e8       _setmbcp_nolock            000000018001b2e8 f   libucrt:mbctype.obj
 0001:0001a608       _ismbblead                 000000018001b608 f   libucrt:ismbbyte.obj
 0001:0001a61c       __acrt_initialize_command_line 000000018001b61c f   libucrt:argv_data.obj
 0001:0001a644       __dcrt_get_narrow_environment_from_os 000000018001b644 f   libucrt:get_environment_from_os.obj
 0001:0001a748       __acrt_initialize_heap     000000018001b748 f   libucrt:heap_handle.obj
 0001:0001a764       __acrt_uninitialize_heap   000000018001b764 f   libucrt:heap_handle.obj
 0001:0001a770       __acrt_execute_initializers 000000018001b770 f   libucrt:shared_initialization.obj
 0001:0001a7f0       __acrt_execute_uninitializers 000000018001b7f0 f   libucrt:shared_initialization.obj
 0001:0001a830       ??$?RV<lambda_450d765d439847d4c735a33c368b5fc0>@@AEAV<lambda_44731a7d0e6d81c3e6aa82d741081786>@@V<lambda_601a2a7da3b7a96e9554ac7215c4b07c>@@@?$__crt_seh_guarded_call@P6AXH@Z@@QEAAP6AXH@Z$$QEAV<lambda_450d765d439847d4c735a33c368b5fc0>@@AEAV<lambda_44731a7d0e6d81c3e6aa82d741081786>@@$$QEAV<lambda_601a2a7da3b7a96e9554ac7215c4b07c>@@@Z 000000018001b830 f i libucrt:signal.obj
 0001:0001a878       __acrt_get_sigabrt_handler 000000018001b878 f   libucrt:signal.obj
 0001:0001a8a8       __acrt_initialize_signal_handlers 000000018001b8a8 f   libucrt:signal.obj
 0001:0001a8c8       raise                      000000018001b8c8 f   libucrt:signal.obj
 0001:0001ab5c       __acrt_has_user_matherr    000000018001bb5c f   libucrt:matherr.obj
 0001:0001ab7c       __acrt_initialize_user_matherr 000000018001bb7c f   libucrt:matherr.obj
 0001:0001ab84       __acrt_invoke_user_matherr 000000018001bb84 f   libucrt:matherr.obj
 0001:0001abb4       __pctype_func              000000018001bbb4 f   libucrt:ctype.obj
 0001:0001abe4       iswctype                   000000018001bbe4 f   libucrt:iswctype.obj
 0001:0001ac54       _isctype_l                 000000018001bc54 f   libucrt:isctype.obj
 0001:0001ad64       __acrt_add_locale_ref      000000018001bd64 f   libucrt:locale_refcounting.obj
 0001:0001adf0       __acrt_free_locale         000000018001bdf0 f   libucrt:locale_refcounting.obj
 0001:0001af68       __acrt_locale_add_lc_time_reference 000000018001bf68 f   libucrt:locale_refcounting.obj
 0001:0001af90       __acrt_locale_free_lc_time_if_unreferenced 000000018001bf90 f   libucrt:locale_refcounting.obj
 0001:0001afc8       __acrt_locale_release_lc_time_reference 000000018001bfc8 f   libucrt:locale_refcounting.obj
 0001:0001aff0       __acrt_release_locale_ref  000000018001bff0 f   libucrt:locale_refcounting.obj
 0001:0001b098       __acrt_update_thread_locale_data 000000018001c098 f   libucrt:locale_refcounting.obj
 0001:0001b108       _updatetlocinfoEx_nolock   000000018001c108 f   libucrt:locale_refcounting.obj
 0001:0001b170       _query_new_mode            000000018001c170 f   libucrt:new_mode.obj
 0001:0001b240       __acrt_DownlevelLocaleNameToLCID 000000018001c240 f   libucrt:lcidtoname_downlevel.obj
 0001:0001b274       _isleadbyte_l              000000018001c274 f i libucrt:_wctype.obj
 0001:0001b610       __acrt_LCMapStringA        000000018001c610 f   libucrt:lcmapstringa.obj
 0001:0001b6a8       __acrt_fp_strflt_to_string 000000018001c6a8 f   libucrt:_fptostr.obj
 0001:0001b770       ?divide@__crt_strtox@@YA_KAEAUbig_integer@1@AEBU21@@Z 000000018001c770 f i libucrt:cfout.obj
 0001:0001bc40       __acrt_fltout              000000018001cc40 f   libucrt:cfout.obj
 0001:0001cfe8       _fcloseall                 000000018001dfe8 f   libucrt:closeall.obj
 0001:0001d09c       ??$?RV<lambda_842d9ff0dc9ef11c61343bbaebe7f885>@@AEAV<lambda_c5860995281e5c4ce005b3de8f5874ee>@@V<lambda_d90129c13df834fdcbf8d2b88dafcf2d>@@@?$__crt_seh_guarded_call@X@@QEAAX$$QEAV<lambda_842d9ff0dc9ef11c61343bbaebe7f885>@@AEAV<lambda_c5860995281e5c4ce005b3de8f5874ee>@@$$QEAV<lambda_d90129c13df834fdcbf8d2b88dafcf2d>@@@Z 000000018001e09c f i libucrt:fflush.obj
 0001:0001d138       ??$?RV<lambda_886d6c58226a84441f68b9f2b8217b83>@@AEAV<lambda_ab61a845afdef5b7c387490eaf3616ee>@@V<lambda_f7f22ab5edc0698d5f6905b0d3f44752>@@@?$__crt_seh_guarded_call@X@@QEAAX$$QEAV<lambda_886d6c58226a84441f68b9f2b8217b83>@@AEAV<lambda_ab61a845afdef5b7c387490eaf3616ee>@@$$QEAV<lambda_f7f22ab5edc0698d5f6905b0d3f44752>@@@Z 000000018001e138 f i libucrt:fflush.obj
 0001:0001d280       __acrt_stdio_flush_nolock  000000018001e280 f   libucrt:fflush.obj
 0001:0001d2fc       _fflush_nolock             000000018001e2fc f   libucrt:fflush.obj
 0001:0001d348       _flushall                  000000018001e348 f   libucrt:fflush.obj
 0001:0001d350       __acrt_stdio_free_buffer_nolock 000000018001e350 f   libucrt:_freebuf.obj
 0001:0001d390       _isatty                    000000018001e390 f   libucrt:isatty.obj
 0001:0001d3f0       __acrt_locale_free_monetary 000000018001e3f0 f   libucrt:initmon.obj
 0001:0001d4fc       __acrt_locale_free_numeric 000000018001e4fc f   libucrt:initnum.obj
 0001:0001d5c0       __acrt_locale_free_time    000000018001e5c0 f   libucrt:inittime.obj
 0001:0001d6c8       __acrt_GetStringTypeA      000000018001e6c8 f   libucrt:getstringtypea.obj
 0001:0001d87c       __acrt_lowio_create_handle_array 000000018001e87c f   libucrt:osfinfo.obj
 0001:0001d914       __acrt_lowio_destroy_handle_array 000000018001e914 f   libucrt:osfinfo.obj
 0001:0001d964       __acrt_lowio_ensure_fh_exists 000000018001e964 f   libucrt:osfinfo.obj
 0001:0001da1c       __acrt_lowio_lock_fh       000000018001ea1c f   libucrt:osfinfo.obj
 0001:0001da40       __acrt_lowio_unlock_fh     000000018001ea40 f   libucrt:osfinfo.obj
 0001:0001da64       _free_osfhnd               000000018001ea64 f   libucrt:osfinfo.obj
 0001:0001db20       _get_osfhandle             000000018001eb20 f   libucrt:osfinfo.obj
 0001:0001dc60       qsort                      000000018001ec60 f   libucrt:qsort.obj
 0001:0001df80       strncpy_s                  000000018001ef80 f   libucrt:strncpy_s.obj
 0001:0001e054       strpbrk                    000000018001f054 f   libucrt:strpbrk.obj
 0001:0001e0f4       _mbsdec                    000000018001f0f4 f   libucrt:mbsdec.obj
 0001:0001e0fc       _mbsdec_l                  000000018001f0fc f   libucrt:mbsdec.obj
 0001:0001e1ac       __strncnt                  000000018001f1ac f   libucrt:strncnt.obj
 0001:0001e1c4       fegetenv                   000000018001f1c4 f   libucrt:fegetenv.obj
 0001:0001e1e4       fesetenv                   000000018001f1e4 f   libucrt:fesetenv.obj
 0001:0001e230       feholdexcept               000000018001f230 f   libucrt:feholdexcept.obj
 0001:0001e280       ceil                       000000018001f280 f   libucrt:ceil.obj
 0001:0001e350       log10                      000000018001f350 f   libucrt:log10.obj
 0001:0001eeb8       _write                     000000018001feb8 f   libucrt:write.obj
 0001:0001efa4       _write_nolock              000000018001ffa4 f   libucrt:write.obj
 0001:0001f33c       _lseeki64_nolock           000000018002033c f   libucrt:lseek.obj
 0001:0001f344       _fclose_nolock             0000000180020344 f   libucrt:fclose.obj
 0001:0001f3c8       fclose                     00000001800203c8 f   libucrt:fclose.obj
 0001:0001f434       ??$?RV<lambda_a37b2b86f63e897a80ea819b0eb08c01>@@AEAV<lambda_38ce7e780aa69e748d6df282ebc68efe>@@V<lambda_99fb1378e971ab6e7edea83e3a7a83a2>@@@?$__crt_seh_guarded_call@H@@QEAAH$$QEAV<lambda_a37b2b86f63e897a80ea819b0eb08c01>@@AEAV<lambda_38ce7e780aa69e748d6df282ebc68efe>@@$$QEAV<lambda_99fb1378e971ab6e7edea83e3a7a83a2>@@@Z 0000000180020434 f i libucrt:commit.obj
 0001:0001f4c0       _commit                    00000001800204c0 f   libucrt:commit.obj
 0001:0001f554       _query_app_type            0000000180020554 f   libucrt:report_runtime_error.obj
 0001:0001f55c       _getfpcontrolword          000000018002055c f   libucrt:_fenvutils.obj
 0001:0001f574       _getfpstatusword           0000000180020574 f   libucrt:_fenvutils.obj
 0001:0001f588       _setfpcontrolword          0000000180020588 f   libucrt:_fenvutils.obj
 0001:0001f594       _setfpstatusword           0000000180020594 f   libucrt:_fenvutils.obj
 0001:0001f5e0       _clearfp                   00000001800205e0 f   libucrt:ieee.obj
 0001:0001f630       _controlfp                 0000000180020630 f   libucrt:ieee.obj
 0001:0001f63c       _statusfp                  000000018002063c f   libucrt:ieee.obj
 0001:0001fa34       _handle_error              0000000180020a34 f   libucrt:libm_error.obj
 0001:0001fb5c       _handle_nan                0000000180020b5c f   libucrt:libm_error.obj
 0001:0001fb80       __acrt_initialize_fma3     0000000180020b80 f   libucrt:fma3_available.obj
 0001:0001fbf0       _log10_special             0000000180020bf0 f   libucrt:log_special.obj
 0001:0001fca8       _putwch_nolock             0000000180020ca8 f   libucrt:putwch.obj
 0001:0001fd04       ??$?RV<lambda_751a882b2c74d4b022dec766aa51a29a>@@AEAV<lambda_628dfdc04ba53c8bfc02c9951375f3f5>@@V<lambda_f6c7be5f7998530c34de24c7437d6b54>@@@?$__crt_seh_guarded_call@H@@QEAAH$$QEAV<lambda_751a882b2c74d4b022dec766aa51a29a>@@AEAV<lambda_628dfdc04ba53c8bfc02c9951375f3f5>@@$$QEAV<lambda_f6c7be5f7998530c34de24c7437d6b54>@@@Z 0000000180020d04 f i libucrt:close.obj
 0001:0001fd78       _close                     0000000180020d78 f   libucrt:close.obj
 0001:0001fe1c       _close_nolock              0000000180020e1c f   libucrt:close.obj
 0001:0001fed8       ?__acrt_stdio_free_stream@@YAXV__crt_stdio_stream@@@Z 0000000180020ed8 f   libucrt:stream.obj
 0001:0001ff30       _get_fpsr                  0000000180020f30 f   libucrt:fpsr.obj
 0001:0001ff40       _set_fpsr                  0000000180020f40 f   libucrt:fpsr.obj
 0001:0001ff4a       _fclrf                     0000000180020f4a f   libucrt:fpsr.obj
 0001:0001ff5e       _frnd                      0000000180020f5e f   libucrt:fpsr.obj
 0001:0001ff80       _raise_exc                 0000000180020f80 f   libucrt:fpexcept.obj
 0001:0001ffa8       _raise_exc_ex              0000000180020fa8 f   libucrt:fpexcept.obj
 0001:000202b0       _set_errno_from_matherr    00000001800212b0 f   libucrt:fpexcept.obj
 0001:000202e0       _clrfp                     00000001800212e0 f   libucrt:fpctrl.obj
 0001:00020300       _ctrlfp                    0000000180021300 f   libucrt:fpctrl.obj
 0001:0002037c       _set_statfp                000000018002137c f   libucrt:fpctrl.obj
 0001:0002039c       _statfp                    000000018002139c f   libucrt:fpctrl.obj
 0001:000203b0       __dcrt_lowio_initialize_console_output 00000001800213b0 f   libucrt:initcon.obj
 0001:000203ec       __dcrt_terminate_console_output 00000001800213ec f   libucrt:initcon.obj
 0001:0002040c       IsProcessorFeaturePresent  000000018002140c f   kernel32:KERNEL32.dll
 0001:00020420       _FindPESection             0000000180021420 f   LIBCMT:pesect.obj
 0001:00020470       _IsNonwritableInCurrentImage 0000000180021470 f   LIBCMT:pesect.obj
 0001:000204c0       _ValidateImageBase         00000001800214c0 f   LIBCMT:pesect.obj
 0001:000204f0       strrchr                    00000001800214f0 f   libvcruntime:strrchr.obj
 0001:00020650       _guard_dispatch_icall_nop  0000000180021650 f   LIBCMT:_guard_dispatch_.obj
 0002:00000000       __imp_RegQueryValueExW     0000000180022000     advapi32:ADVAPI32.dll
 0002:00000008       __imp_RegSetValueExW       0000000180022008     advapi32:ADVAPI32.dll
 0002:00000010       __imp_RegQueryInfoKeyW     0000000180022010     advapi32:ADVAPI32.dll
 0002:00000018       __imp_RegOpenKeyExW        0000000180022018     advapi32:ADVAPI32.dll
 0002:00000020       __imp_RegEnumKeyExW        0000000180022020     advapi32:ADVAPI32.dll
 0002:00000028       __imp_RegDeleteValueW      0000000180022028     advapi32:ADVAPI32.dll
 0002:00000030       __imp_RegDeleteKeyW        0000000180022030     advapi32:ADVAPI32.dll
 0002:00000038       __imp_RegCreateKeyExW      0000000180022038     advapi32:ADVAPI32.dll
 0002:00000040       __imp_RegCloseKey          0000000180022040     advapi32:ADVAPI32.dll
 0002:00000048       \177ADVAPI32_NULL_THUNK_DATA 0000000180022048     advapi32:ADVAPI32.dll
 0002:00000050       __imp_GetObjectW           0000000180022050     gdi32:GDI32.dll
 0002:00000058       __imp_SelectObject         0000000180022058     gdi32:GDI32.dll
 0002:00000060       __imp_DeleteObject         0000000180022060     gdi32:GDI32.dll
 0002:00000068       __imp_CreateCompatibleDC   0000000180022068     gdi32:GDI32.dll
 0002:00000070       __imp_BitBlt               0000000180022070     gdi32:GDI32.dll
 0002:00000078       __imp_SetWindowOrgEx       0000000180022078     gdi32:GDI32.dll
 0002:00000080       __imp_SetWindowExtEx       0000000180022080     gdi32:GDI32.dll
 0002:00000088       __imp_SetViewportOrgEx     0000000180022088     gdi32:GDI32.dll
 0002:00000090       __imp_LPtoDP               0000000180022090     gdi32:GDI32.dll
 0002:00000098       __imp_SetMapMode           0000000180022098     gdi32:GDI32.dll
 0002:000000a0       __imp_SaveDC               00000001800220a0     gdi32:GDI32.dll
 0002:000000a8       __imp_RestoreDC            00000001800220a8     gdi32:GDI32.dll
 0002:000000b0       __imp_GetDeviceCaps        00000001800220b0     gdi32:GDI32.dll
 0002:000000b8       __imp_DeleteMetaFile       00000001800220b8     gdi32:GDI32.dll
 0002:000000c0       __imp_DeleteDC             00000001800220c0     gdi32:GDI32.dll
 0002:000000c8       __imp_CreateRectRgnIndirect 00000001800220c8     gdi32:GDI32.dll
 0002:000000d0       __imp_CreateMetaFileW      00000001800220d0     gdi32:GDI32.dll
 0002:000000d8       __imp_CreateDCW            00000001800220d8     gdi32:GDI32.dll
 0002:000000e0       __imp_CloseMetaFile        00000001800220e0     gdi32:GDI32.dll
 0002:000000e8       \177GDI32_NULL_THUNK_DATA  00000001800220e8     gdi32:GDI32.dll
 0002:000000f0       __imp_CloseHandle          00000001800220f0     kernel32:KERNEL32.dll
 0002:000000f8       __imp_SetEvent             00000001800220f8     kernel32:KERNEL32.dll
 0002:00000100       __imp_CreateMutexW         0000000180022100     kernel32:KERNEL32.dll
 0002:00000108       __imp_CreateEventW         0000000180022108     kernel32:KERNEL32.dll
 0002:00000110       __imp_GetCurrentProcessId  0000000180022110     kernel32:KERNEL32.dll
 0002:00000118       __imp_CreateFileW          0000000180022118     kernel32:KERNEL32.dll
 0002:00000120       __imp_WriteConsoleW        0000000180022120     kernel32:KERNEL32.dll
 0002:00000128       __imp_FlushFileBuffers     0000000180022128     kernel32:KERNEL32.dll
 0002:00000130       __imp_SetFilePointerEx     0000000180022130     kernel32:KERNEL32.dll
 0002:00000138       __imp_GetConsoleMode       0000000180022138     kernel32:KERNEL32.dll
 0002:00000140       __imp_GetConsoleCP         0000000180022140     kernel32:KERNEL32.dll
 0002:00000148       __imp_WriteFile            0000000180022148     kernel32:KERNEL32.dll
 0002:00000150       __imp_SetStdHandle         0000000180022150     kernel32:KERNEL32.dll
 0002:00000158       __imp_GetStringTypeW       0000000180022158     kernel32:KERNEL32.dll
 0002:00000160       __imp_FreeEnvironmentStringsW 0000000180022160     kernel32:KERNEL32.dll
 0002:00000168       __imp_GetEnvironmentStringsW 0000000180022168     kernel32:KERNEL32.dll
 0002:00000170       __imp_lstrcmpiW            0000000180022170     kernel32:KERNEL32.dll
 0002:00000178       __imp_GetCommandLineA      0000000180022178     kernel32:KERNEL32.dll
 0002:00000180       __imp_GetCPInfo            0000000180022180     kernel32:KERNEL32.dll
 0002:00000188       __imp_GetOEMCP             0000000180022188     kernel32:KERNEL32.dll
 0002:00000190       __imp_IsValidCodePage      0000000180022190     kernel32:KERNEL32.dll
 0002:00000198       __imp_FindNextFileA        0000000180022198     kernel32:KERNEL32.dll
 0002:000001a0       __imp_FindFirstFileExA     00000001800221a0     kernel32:KERNEL32.dll
 0002:000001a8       __imp_FindClose            00000001800221a8     kernel32:KERNEL32.dll
 0002:000001b0       __imp_GetFileType          00000001800221b0     kernel32:KERNEL32.dll
 0002:000001b8       __imp_GetStdHandle         00000001800221b8     kernel32:KERNEL32.dll
 0002:000001c0       __imp_GetACP               00000001800221c0     kernel32:KERNEL32.dll
 0002:000001c8       __imp_LCMapStringW         00000001800221c8     kernel32:KERNEL32.dll
 0002:000001d0       __imp_HeapReAlloc          00000001800221d0     kernel32:KERNEL32.dll
 0002:000001d8       __imp_MulDiv               00000001800221d8     kernel32:KERNEL32.dll
 0002:000001e0       __imp_GlobalUnlock         00000001800221e0     kernel32:KERNEL32.dll
 0002:000001e8       __imp_GlobalLock           00000001800221e8     kernel32:KERNEL32.dll
 0002:000001f0       __imp_GlobalAlloc          00000001800221f0     kernel32:KERNEL32.dll
 0002:000001f8       __imp_FindResourceW        00000001800221f8     kernel32:KERNEL32.dll
 0002:00000200       __imp_SizeofResource       0000000180022200     kernel32:KERNEL32.dll
 0002:00000208       __imp_LoadResource         0000000180022208     kernel32:KERNEL32.dll
 0002:00000210       __imp_LoadLibraryExW       0000000180022210     kernel32:KERNEL32.dll
 0002:00000218       __imp_GetProcAddress       0000000180022218     kernel32:KERNEL32.dll
 0002:00000220       __imp_GetModuleHandleW     0000000180022220     kernel32:KERNEL32.dll
 0002:00000228       __imp_GetModuleFileNameW   0000000180022228     kernel32:KERNEL32.dll
 0002:00000230       __imp_FreeLibrary          0000000180022230     kernel32:KERNEL32.dll
 0002:00000238       __imp_DisableThreadLibraryCalls 0000000180022238     kernel32:KERNEL32.dll
 0002:00000240       __imp_GetCurrentThreadId   0000000180022240     kernel32:KERNEL32.dll
 0002:00000248       __imp_Sleep                0000000180022248     kernel32:KERNEL32.dll
 0002:00000250       __imp_WaitForSingleObject  0000000180022250     kernel32:KERNEL32.dll
 0002:00000258       __imp_ReleaseMutex         0000000180022258     kernel32:KERNEL32.dll
 0002:00000260       __imp_ResetEvent           0000000180022260     kernel32:KERNEL32.dll
 0002:00000268       __imp_EnterCriticalSection 0000000180022268     kernel32:KERNEL32.dll
 0002:00000270       __imp_LeaveCriticalSection 0000000180022270     kernel32:KERNEL32.dll
 0002:00000278       __imp_SetLastError         0000000180022278     kernel32:KERNEL32.dll
 0002:00000280       __imp_EncodePointer        0000000180022280     kernel32:KERNEL32.dll
 0002:00000288       __imp_DeleteCriticalSection 0000000180022288     kernel32:KERNEL32.dll
 0002:00000290       __imp_InitializeCriticalSectionAndSpinCount 0000000180022290     kernel32:KERNEL32.dll
 0002:00000298       __imp_GetLastError         0000000180022298     kernel32:KERNEL32.dll
 0002:000002a0       __imp_RaiseException       00000001800222a0     kernel32:KERNEL32.dll
 0002:000002a8       __imp_DecodePointer        00000001800222a8     kernel32:KERNEL32.dll
 0002:000002b0       __imp_WideCharToMultiByte  00000001800222b0     kernel32:KERNEL32.dll
 0002:000002b8       __imp_GetCommandLineW      00000001800222b8     kernel32:KERNEL32.dll
 0002:000002c0       __imp_MultiByteToWideChar  00000001800222c0     kernel32:KERNEL32.dll
 0002:000002c8       __imp_HeapSize             00000001800222c8     kernel32:KERNEL32.dll
 0002:000002d0       __imp_GetModuleFileNameA   00000001800222d0     kernel32:KERNEL32.dll
 0002:000002d8       __imp_GetModuleHandleExW   00000001800222d8     kernel32:KERNEL32.dll
 0002:000002e0       __imp_ExitProcess          00000001800222e0     kernel32:KERNEL32.dll
 0002:000002e8       __imp_VirtualQuery         00000001800222e8     kernel32:KERNEL32.dll
 0002:000002f0       __imp_VirtualProtect       00000001800222f0     kernel32:KERNEL32.dll
 0002:000002f8       __imp_GetSystemInfo        00000001800222f8     kernel32:KERNEL32.dll
 0002:00000300       __imp_TlsFree              0000000180022300     kernel32:KERNEL32.dll
 0002:00000308       __imp_TlsSetValue          0000000180022308     kernel32:KERNEL32.dll
 0002:00000310       __imp_TlsGetValue          0000000180022310     kernel32:KERNEL32.dll
 0002:00000318       __imp_TlsAlloc             0000000180022318     kernel32:KERNEL32.dll
 0002:00000320       __imp_RtlPcToFileHeader    0000000180022320     kernel32:KERNEL32.dll
 0002:00000328       __imp_InterlockedFlushSList 0000000180022328     kernel32:KERNEL32.dll
 0002:00000330       __imp_RtlUnwindEx          0000000180022330     kernel32:KERNEL32.dll
 0002:00000338       __imp_LoadLibraryExA       0000000180022338     kernel32:KERNEL32.dll
 0002:00000340       __imp_VirtualFree          0000000180022340     kernel32:KERNEL32.dll
 0002:00000348       __imp_VirtualAlloc         0000000180022348     kernel32:KERNEL32.dll
 0002:00000350       __imp_FlushInstructionCache 0000000180022350     kernel32:KERNEL32.dll
 0002:00000358       __imp_InterlockedPushEntrySList 0000000180022358     kernel32:KERNEL32.dll
 0002:00000360       __imp_InterlockedPopEntrySList 0000000180022360     kernel32:KERNEL32.dll
 0002:00000368       __imp_GetProcessHeap       0000000180022368     kernel32:KERNEL32.dll
 0002:00000370       __imp_HeapFree             0000000180022370     kernel32:KERNEL32.dll
 0002:00000378       __imp_HeapAlloc            0000000180022378     kernel32:KERNEL32.dll
 0002:00000380       __imp_OutputDebugStringW   0000000180022380     kernel32:KERNEL32.dll
 0002:00000388       __imp_InitializeSListHead  0000000180022388     kernel32:KERNEL32.dll
 0002:00000390       __imp_GetSystemTimeAsFileTime 0000000180022390     kernel32:KERNEL32.dll
 0002:00000398       __imp_QueryPerformanceCounter 0000000180022398     kernel32:KERNEL32.dll
 0002:000003a0       __imp_GetStartupInfoW      00000001800223a0     kernel32:KERNEL32.dll
 0002:000003a8       __imp_IsDebuggerPresent    00000001800223a8     kernel32:KERNEL32.dll
 0002:000003b0       __imp_IsProcessorFeaturePresent 00000001800223b0     kernel32:KERNEL32.dll
 0002:000003b8       __imp_WaitForSingleObjectEx 00000001800223b8     kernel32:KERNEL32.dll
 0002:000003c0       __imp_RtlCaptureContext    00000001800223c0     kernel32:KERNEL32.dll
 0002:000003c8       __imp_RtlLookupFunctionEntry 00000001800223c8     kernel32:KERNEL32.dll
 0002:000003d0       __imp_RtlVirtualUnwind     00000001800223d0     kernel32:KERNEL32.dll
 0002:000003d8       __imp_UnhandledExceptionFilter 00000001800223d8     kernel32:KERNEL32.dll
 0002:000003e0       __imp_SetUnhandledExceptionFilter 00000001800223e0     kernel32:KERNEL32.dll
 0002:000003e8       __imp_GetCurrentProcess    00000001800223e8     kernel32:KERNEL32.dll
 0002:000003f0       __imp_TerminateProcess     00000001800223f0     kernel32:KERNEL32.dll
 0002:000003f8       \177KERNEL32_NULL_THUNK_DATA 00000001800223f8     kernel32:KERNEL32.dll
 0002:00000400       __imp_OleCreatePropertyFrame 0000000180022400     oleaut32:OLEAUT32.dll
 0002:00000408       __imp_UnRegisterTypeLib    0000000180022408     oleaut32:OLEAUT32.dll
 0002:00000410       __imp_RegisterTypeLib      0000000180022410     oleaut32:OLEAUT32.dll
 0002:00000418       __imp_LoadRegTypeLib       0000000180022418     oleaut32:OLEAUT32.dll
 0002:00000420       __imp_LoadTypeLib          0000000180022420     oleaut32:OLEAUT32.dll
 0002:00000428       __imp_VarUI4FromStr        0000000180022428     oleaut32:OLEAUT32.dll
 0002:00000430       __imp_VariantInit          0000000180022430     oleaut32:OLEAUT32.dll
 0002:00000438       __imp_SysAllocStringByteLen 0000000180022438     oleaut32:OLEAUT32.dll
 0002:00000440       __imp_SysStringByteLen     0000000180022440     oleaut32:OLEAUT32.dll
 0002:00000448       __imp_VariantChangeType    0000000180022448     oleaut32:OLEAUT32.dll
 0002:00000450       __imp_VariantClear         0000000180022450     oleaut32:OLEAUT32.dll
 0002:00000458       __imp_SysStringLen         0000000180022458     oleaut32:OLEAUT32.dll
 0002:00000460       __imp_SysFreeString        0000000180022460     oleaut32:OLEAUT32.dll
 0002:00000468       __imp_SysAllocStringLen    0000000180022468     oleaut32:OLEAUT32.dll
 0002:00000470       __imp_SysAllocString       0000000180022470     oleaut32:OLEAUT32.dll
 0002:00000478       \177OLEAUT32_NULL_THUNK_DATA 0000000180022478     oleaut32:OLEAUT32.dll
 0002:00000480       __imp_UnregisterClassW     0000000180022480     user32:USER32.dll
 0002:00000488       __imp_PostMessageW         0000000180022488     user32:USER32.dll
 0002:00000490       __imp_DefWindowProcW       0000000180022490     user32:USER32.dll
 0002:00000498       __imp_CallWindowProcW      0000000180022498     user32:USER32.dll
 0002:000004a0       __imp_RegisterClassExW     00000001800224a0     user32:USER32.dll
 0002:000004a8       __imp_GetClassInfoExW      00000001800224a8     user32:USER32.dll
 0002:000004b0       __imp_CreateWindowExW      00000001800224b0     user32:USER32.dll
 0002:000004b8       __imp_IsWindow             00000001800224b8     user32:USER32.dll
 0002:000004c0       __imp_IsChild              00000001800224c0     user32:USER32.dll
 0002:000004c8       __imp_DestroyWindow        00000001800224c8     user32:USER32.dll
 0002:000004d0       __imp_ShowWindow           00000001800224d0     user32:USER32.dll
 0002:000004d8       __imp_SetWindowPos         00000001800224d8     user32:USER32.dll
 0002:000004e0       __imp_CharNextW            00000001800224e0     user32:USER32.dll
 0002:000004e8       __imp_SetFocus             00000001800224e8     user32:USER32.dll
 0002:000004f0       __imp_LoadBitmapW          00000001800224f0     user32:USER32.dll
 0002:000004f8       __imp_RegisterClassW       00000001800224f8     user32:USER32.dll
 0002:00000500       __imp_PeekMessageW         0000000180022500     user32:USER32.dll
 0002:00000508       __imp_LoadCursorW          0000000180022508     user32:USER32.dll
 0002:00000510       __imp_GetParent            0000000180022510     user32:USER32.dll
 0002:00000518       __imp_SetWindowLongPtrW    0000000180022518     user32:USER32.dll
 0002:00000520       __imp_GetWindowLongPtrW    0000000180022520     user32:USER32.dll
 0002:00000528       __imp_PtInRect             0000000180022528     user32:USER32.dll
 0002:00000530       __imp_EqualRect            0000000180022530     user32:USER32.dll
 0002:00000538       __imp_OffsetRect           0000000180022538     user32:USER32.dll
 0002:00000540       __imp_UnionRect            0000000180022540     user32:USER32.dll
 0002:00000548       __imp_IntersectRect        0000000180022548     user32:USER32.dll
 0002:00000550       __imp_GetClientRect        0000000180022550     user32:USER32.dll
 0002:00000558       __imp_InvalidateRect       0000000180022558     user32:USER32.dll
 0002:00000560       __imp_SetWindowRgn         0000000180022560     user32:USER32.dll
 0002:00000568       __imp_EndPaint             0000000180022568     user32:USER32.dll
 0002:00000570       __imp_BeginPaint           0000000180022570     user32:USER32.dll
 0002:00000578       __imp_ReleaseDC            0000000180022578     user32:USER32.dll
 0002:00000580       __imp_GetDC                0000000180022580     user32:USER32.dll
 0002:00000588       __imp_GetKeyState          0000000180022588     user32:USER32.dll
 0002:00000590       __imp_GetFocus             0000000180022590     user32:USER32.dll
 0002:00000598       \177USER32_NULL_THUNK_DATA 0000000180022598     user32:USER32.dll
 0002:000005a0       __imp_CoCreateInstance     00000001800225a0     ole32:ole32.dll
 0002:000005a8       __imp_StringFromGUID2      00000001800225a8     ole32:ole32.dll
 0002:000005b0       __imp_CoTaskMemAlloc       00000001800225b0     ole32:ole32.dll
 0002:000005b8       __imp_CoTaskMemFree        00000001800225b8     ole32:ole32.dll
 0002:000005c0       __imp_ReadClassStm         00000001800225c0     ole32:ole32.dll
 0002:000005c8       __imp_WriteClassStm        00000001800225c8     ole32:ole32.dll
 0002:000005d0       __imp_CreateDataAdviseHolder 00000001800225d0     ole32:ole32.dll
 0002:000005d8       __imp_OleSaveToStream      00000001800225d8     ole32:ole32.dll
 0002:000005e0       __imp_CreateOleAdviseHolder 00000001800225e0     ole32:ole32.dll
 0002:000005e8       __imp_OleRegGetUserType    00000001800225e8     ole32:ole32.dll
 0002:000005f0       __imp_OleRegGetMiscStatus  00000001800225f0     ole32:ole32.dll
 0002:000005f8       __imp_OleRegEnumVerbs      00000001800225f8     ole32:ole32.dll
 0002:00000600       __imp_CLSIDFromProgID      0000000180022600     ole32:ole32.dll
 0002:00000608       __imp_CoTaskMemRealloc     0000000180022608     ole32:ole32.dll
 0002:00000610       \177ole32_NULL_THUNK_DATA  0000000180022610     ole32:ole32.dll
 0002:00000618       __guard_check_icall_fptr   0000000180022618     LIBCMT:guard_support.obj
 0002:00000620       __guard_dispatch_icall_fptr 0000000180022620     LIBCMT:guard_support.obj
 0002:00000628       __xc_a                     0000000180022628     LIBCMT:initializers.obj
 0002:00000658       __xc_z                     0000000180022658     LIBCMT:initializers.obj
 0002:00000660       __xi_a                     0000000180022660     LIBCMT:initializers.obj
 0002:00000670       __acrt_stdio_initializer   0000000180022670     libucrt:stdio_initializer.obj
 0002:00000678       __acrt_multibyte_initializer 0000000180022678     libucrt:multibyte_initializer.obj
 0002:00000680       __acrt_tran_fma3_initializer 0000000180022680     libucrt:fma3_initializer.obj
 0002:00000688       __xi_z                     0000000180022688     LIBCMT:initializers.obj
 0002:00000690       __xl_a                     0000000180022690     LIBCMT:tlssup.obj
 0002:00000698       __xl_z                     0000000180022698     LIBCMT:tlssup.obj
 0002:000006a0       __xp_a                     00000001800226a0     LIBCMT:initializers.obj
 0002:000006a8       __acrt_locale_terminator   00000001800226a8     libucrt:locale_initializer.obj
 0002:000006b0       __dcrt_console_output_terminator 00000001800226b0     libucrt:console_output_initializer.obj
 0002:000006b8       __acrt_stdio_terminator    00000001800226b8     libucrt:stdio_initializer.obj
 0002:000006c0       __xp_z                     00000001800226c0     LIBCMT:initializers.obj
 0002:000006c8       __xt_a                     00000001800226c8     LIBCMT:initializers.obj
 0002:000006d0       __xt_z                     00000001800226d0     LIBCMT:initializers.obj
 0002:000006e0       ??_C@_13HADIAKP@?$AAS@     00000001800226e0     OposVariant.obj
 0002:000006e4       ??_C@_13LHMFKAAD@?$AAM@    00000001800226e4     OposVariant.obj
 0002:000006e8       ??_C@_13MKMNOPIJ@?$AAD@    00000001800226e8     OposVariant.obj
 0002:000006ec       ??_C@_13OPKGLAFF@?$AAB@    00000001800226ec     OposVariant.obj
 0002:000006f0       ??_C@_17LLMMEOJD@?$AAV?$AAa?$AAl@ 00000001800226f0     OposVariant.obj
 0002:000006f8       ??_C@_1BI@JFAIJMHL@?$AAF?$AAo?$AAr?$AAc?$AAe?$AAR?$AAe?$AAm?$AAo?$AAv?$AAe@ 00000001800226f8     OposVariant.obj
 0002:00000710       ??_C@_1BC@GCKHIPE@?$AAN?$AAo?$AAR?$AAe?$AAm?$AAo?$AAv?$AAe@ 0000000180022710     OposVariant.obj
 0002:00000728       ??_C@_1O@JDLOHAN@?$AAD?$AAe?$AAl?$AAe?$AAt?$AAe@ 0000000180022728     OposVariant.obj
 0002:00000738       ??_C@_11LOCGONAA@@         0000000180022738     OposVariant.obj
 0002:00000740       ?_entries@?1??_GetEntries@COPOSElectronicJournal@@SAPEBU_ATL_INTMAP_ENTRY@ATL@@XZ@4QBU34@B 0000000180022740     ElectronicJournal.obj
 0002:00000980       ??_C@_1M@KANJNLFF@?$AAC?$AAL?$AAS?$AAI?$AAD@ 0000000180022980     ElectronicJournal.obj
 0002:00000990       ??_C@_1M@EJNEECMJ@?$AAA?$AAp?$AAp?$AAI?$AAD@ 0000000180022990     ElectronicJournal.obj
 0002:000009a0       _GUID_cf51ed10_62fe_11cf_bf86_00a0c9034836 00000001800229a0     ElectronicJournal.obj
 0002:000009b0       _GUID_0000010a_0000_0000_c000_000000000046 00000001800229b0     ElectronicJournal.obj
 0002:000009c0       _GUID_b196b283_bab4_101a_b69c_00aa00341d07 00000001800229c0     ElectronicJournal.obj
 0002:000009d0       _GUID_cb5bdc81_93c1_11cf_8f20_00805f2cd064 00000001800229d0     ElectronicJournal.obj
 0002:000009e0       ?pPropMap@?1??GetPropertyMap@COPOSElectronicJournal@@SAPEBUATL_PROPMAP_ENTRY@ATL@@XZ@4QBU34@B 00000001800229e0     ElectronicJournal.obj
 0002:00000a88       ??_C@_17DGDADEHL@?$AA_?$AAc?$AAx@ 0000000180022a88     ElectronicJournal.obj
 0002:00000a90       ??_C@_17IOIMFDBO@?$AA_?$AAc?$AAy@ 0000000180022a90     ElectronicJournal.obj
 0002:00000a98       _GUID_922eada0_3424_11cf_b670_00aa004cd6d8 0000000180022a98     ElectronicJournal.obj
 0002:00000aa8       _GUID_9c2cad80_3424_11cf_b670_00aa004cd6d8 0000000180022aa8     ElectronicJournal.obj
 0002:00000ab8       _GUID_00000119_0000_0000_c000_000000000046 0000000180022ab8     ElectronicJournal.obj
 0002:00000ac8       _GUID_b196b289_bab4_101a_b69c_00aa00341d07 0000000180022ac8     ElectronicJournal.obj
 0002:00000ae0       ?rgszNeverDelete@CRegParser@ATL@@1QBQEB_WB 0000000180022ae0     ElectronicJournal.obj
 0002:00000b40       _GUID_b196b286_bab4_101a_b69c_00aa00341d07 0000000180022b40     ElectronicJournal.obj
 0002:00000b50       _GUID_00000117_0000_0000_c000_000000000046 0000000180022b50     ElectronicJournal.obj
 0002:00000b60       ??_C@_1CE@PGFMOFKI@?$AAS?$AAt?$AAa?$AAt?$AAu?$AAs?$AAU?$AAp?$AAd?$AAa?$AAt?$AAe?$AAE?$AAv?$AAe@ 0000000180022b60     ElectronicJournal.obj
 0002:00000b88       ??_C@_1CI@HLBJDONE@?$AAO?$AAu?$AAt?$AAp?$AAu?$AAt?$AAC?$AAo?$AAm?$AAp?$AAl?$AAe?$AAt?$AAe?$AAE@ 0000000180022b88     ElectronicJournal.obj
 0002:00000bb0       ??_C@_1BG@LODEBHDD@?$AAE?$AAr?$AAr?$AAo?$AAr?$AAE?$AAv?$AAe?$AAn?$AAt@ 0000000180022bb0     ElectronicJournal.obj
 0002:00000bc8       ??_C@_1BM@CBGEBBBJ@?$AAD?$AAi?$AAr?$AAe?$AAc?$AAt?$AAI?$AAO?$AAE?$AAv?$AAe?$AAn?$AAt@ 0000000180022bc8     ElectronicJournal.obj
 0002:00000be8       ??_C@_1BE@IEBMACEM@?$AAD?$AAa?$AAt?$AAa?$AAE?$AAv?$AAe?$AAn?$AAt@ 0000000180022be8     ElectronicJournal.obj
 0002:00000c00       ??_7CRegObject@ATL@@6B@    0000000180022c00     ElectronicJournal.obj
 0002:00000c30       ??_C@_1BC@ENICKDH@?$AAC?$AAo?$AAn?$AAt?$AAe?$AAn?$AAt?$AAs@ 0000000180022c30     ElectronicJournal.obj
 0002:00000c48       ??_7?$CComObject@V?$CComEnum@UIEnumConnectionPoints@@$1?_GUID_b196b285_bab4_101a_b69c_00aa00341d07@@3U__s_GUID@@BPEAUIConnectionPoint@@V?$_CopyInterface@UIConnectionPoint@@@ATL@@VCComSingleThreadModel@6@@ATL@@@ATL@@6B@ 0000000180022c48     ElectronicJournal.obj
 0002:00000c88       ??_C@_1CK@OEKPKBNA@?$AAC?$AAo?$AAm?$AAp?$AAo?$AAn?$AAe?$AAn?$AAt?$AA?5?$AAC?$AAa?$AAt?$AAe?$AAg@ 0000000180022c88     ElectronicJournal.obj
 0002:00000cb8       ??_C@_1BC@NKMMNMGL@?$AAF?$AAi?$AAl?$AAe?$AAT?$AAy?$AAp?$AAe@ 0000000180022cb8     ElectronicJournal.obj
 0002:00000cd0       ??_C@_1BE@EKPAFMCP@?$AAI?$AAn?$AAt?$AAe?$AAr?$AAf?$AAa?$AAc?$AAe@ 0000000180022cd0     ElectronicJournal.obj
 0002:00000ce8       ??_C@_1BC@MAICEHGI@?$AAH?$AAa?$AAr?$AAd?$AAw?$AAa?$AAr?$AAe@ 0000000180022ce8     ElectronicJournal.obj
 0002:00000d00       ??_C@_19HLLLM@?$AAM?$AAi?$AAm?$AAe@ 0000000180022d00     ElectronicJournal.obj
 0002:00000d10       ??_C@_17OMAOINJK@?$AAS?$AAA?$AAM@ 0000000180022d10     ElectronicJournal.obj
 0002:00000d18       ??_C@_1BC@IBECJAAI@?$AAS?$AAE?$AAC?$AAU?$AAR?$AAI?$AAT?$AAY@ 0000000180022d18     ElectronicJournal.obj
 0002:00000d30       ??_C@_1O@GBFINDKL@?$AAS?$AAY?$AAS?$AAT?$AAE?$AAM@ 0000000180022d30     ElectronicJournal.obj
 0002:00000d40       ??_C@_1BC@EAHCMADO@?$AAS?$AAo?$AAf?$AAt?$AAw?$AAa?$AAr?$AAe@ 0000000180022d40     ElectronicJournal.obj
 0002:00000d58       ??_C@_1BA@JIHHIEDE@?$AAT?$AAy?$AAp?$AAe?$AAL?$AAi?$AAb@ 0000000180022d58     ElectronicJournal.obj
 0002:00000e50       ??_C@_19NCHLBIN@?$AAH?$AAK?$AAC?$AAR@ 0000000180022e50     ElectronicJournal.obj
 0002:00000e60       ??_C@_19JAPAIJDE@?$AAH?$AAK?$AAC?$AAU@ 0000000180022e60     ElectronicJournal.obj
 0002:00000e70       ??_C@_19PEALEEJB@?$AAH?$AAK?$AAL?$AAM@ 0000000180022e70     ElectronicJournal.obj
 0002:00000e80       ??_C@_17PJOJPMPB@?$AAH?$AAK?$AAU@ 0000000180022e80     ElectronicJournal.obj
 0002:00000e88       ??_C@_19PNBHMJPL@?$AAH?$AAK?$AAP?$AAD@ 0000000180022e88     ElectronicJournal.obj
 0002:00000e98       ??_C@_19GFFAIJHG@?$AAH?$AAK?$AAD?$AAD@ 0000000180022e98     ElectronicJournal.obj
 0002:00000ea8       ??_C@_19OFICIBHH@?$AAH?$AAK?$AAC?$AAC@ 0000000180022ea8     ElectronicJournal.obj
 0002:00000eb8       ??_C@_1CE@PACHPJFI@?$AAH?$AAK?$AAE?$AAY?$AA_?$AAC?$AAL?$AAA?$AAS?$AAS?$AAE?$AAS?$AA_?$AAR?$AAO@ 0000000180022eb8     ElectronicJournal.obj
 0002:00000ee0       ??_C@_1CE@HLHNCBPM@?$AAH?$AAK?$AAE?$AAY?$AA_?$AAC?$AAU?$AAR?$AAR?$AAE?$AAN?$AAT?$AA_?$AAU?$AAS@ 0000000180022ee0     ElectronicJournal.obj
 0002:00000f08       ??_C@_1CG@GFBEANJL@?$AAH?$AAK?$AAE?$AAY?$AA_?$AAL?$AAO?$AAC?$AAA?$AAL?$AA_?$AAM?$AAA?$AAC?$AAH@ 0000000180022f08     ElectronicJournal.obj
 0002:00000f30       ??_C@_1BG@BGODANIO@?$AAH?$AAK?$AAE?$AAY?$AA_?$AAU?$AAS?$AAE?$AAR?$AAS@ 0000000180022f30     ElectronicJournal.obj
 0002:00000f48       ??_C@_1CM@KHNNAOIC@?$AAH?$AAK?$AAE?$AAY?$AA_?$AAP?$AAE?$AAR?$AAF?$AAO?$AAR?$AAM?$AAA?$AAN?$AAC@ 0000000180022f48     ElectronicJournal.obj
 0002:00000f78       ??_C@_1BM@HAGMMHIA@?$AAH?$AAK?$AAE?$AAY?$AA_?$AAD?$AAY?$AAN?$AA_?$AAD?$AAA?$AAT?$AAA@ 0000000180022f78     ElectronicJournal.obj
 0002:00000f98       ??_C@_1CI@BBJOACGG@?$AAH?$AAK?$AAE?$AAY?$AA_?$AAC?$AAU?$AAR?$AAR?$AAE?$AAN?$AAT?$AA_?$AAC?$AAO@ 0000000180022f98     ElectronicJournal.obj
 0002:00000fc0       ??_C@_1EA@NHKLICFA@?$AAH?$AAK?$AAC?$AAU?$AA?$AN?$AA?6?$AA?$HL?$AA?7?$AAS?$AAo?$AAf?$AAt?$AAw?$AAa?$AAr@ 0000000180022fc0     ElectronicJournal.obj
 0002:00001000       ??_C@_1BE@LJOLIMEM@?$AA?$AN?$AA?6?$AA?7?$AA?$HN?$AA?$AN?$AA?6?$AA?$HN?$AA?$AN?$AA?6@ 0000000180023000     ElectronicJournal.obj
 0002:00001018       _GUID_00000109_0000_0000_c000_000000000046 0000000180023018     ElectronicJournal.obj
 0002:00001028       _GUID_7fd52380_4e07_101b_ae2d_08002b2ec713 0000000180023028     ElectronicJournal.obj
 0002:00001038       _GUID_0000010e_0000_0000_c000_000000000046 0000000180023038     ElectronicJournal.obj
 0002:00001048       _GUID_b196b288_bab4_101a_b69c_00aa00341d07 0000000180023048     ElectronicJournal.obj
 0002:00001058       ??_C@_1O@MNLDABAF@?$AAM?$AAo?$AAd?$AAu?$AAl?$AAe@ 0000000180023058     ElectronicJournal.obj
 0002:00001068       ??_C@_1BG@JBACFMF@?$AAM?$AAo?$AAd?$AAu?$AAl?$AAe?$AA_?$AAR?$AAa?$AAw@ 0000000180023068     ElectronicJournal.obj
 0002:00001080       ??_C@_1BC@KAILKFFG@?$AAR?$AAE?$AAG?$AAI?$AAS?$AAT?$AAR?$AAY@ 0000000180023080     ElectronicJournal.obj
 0002:00001098       _GUID_00000113_0000_0000_c000_000000000046 0000000180023098     ElectronicJournal.obj
 0002:000010a8       _GUID_1c2056cc_5ef4_101b_8bc8_00aa003e3b29 00000001800230a8     ElectronicJournal.obj
 0002:000010b8       _GUID_00000112_0000_0000_c000_000000000046 00000001800230b8     ElectronicJournal.obj
 0002:000010c8       _GUID_3af24292_0c96_11ce_a0cf_00aa00600ab8 00000001800230c8     ElectronicJournal.obj
 0002:000010d8       _GUID_00000127_0000_0000_c000_000000000046 00000001800230d8     ElectronicJournal.obj
 0002:000010e8       _GUID_0000010d_0000_0000_c000_000000000046 00000001800230e8     ElectronicJournal.obj
 0002:000010f8       ??_7?$CComObjectCached@VCComClassFactory@ATL@@@ATL@@6B@ 00000001800230f8     ElectronicJournal.obj
 0002:00001128       ??_C@_1M@PPPPCDEP@?$AAA?$AAP?$AAP?$AAI?$AAD@ 0000000180023128     ElectronicJournal.obj
 0002:00001138       _GUID_b196b284_bab4_101a_b69c_00aa00341d07 0000000180023138     ElectronicJournal.obj
 0002:00001148       ??_7?$CComContainedObject@VCOPOSElectronicJournal@@@ATL@@6B?$IDispatchImpl@UIOPOSElectronicJournal@@$1?IID_IOPOSElectronicJournal@@3U_GUID@@B$1?LIBID_OposElectronicJournal_CCO@@3U3@B$00$0A@VCComTypeInfoHolder@ATL@@@1@@ 0000000180023148     ElectronicJournal.obj
 0002:00001488       ??_7?$CComContainedObject@VCOPOSElectronicJournal@@@ATL@@6BCComControlBase@1@@ 0000000180023488     ElectronicJournal.obj
 0002:000014b0       ??_7?$CComContainedObject@VCOPOSElectronicJournal@@@ATL@@6B?$CWindowImpl@VCOPOSElectronicJournal@@VCWindow@ATL@@V?$CWinTraits@$0FGAAAAAA@$0A@@3@@1@@ 00000001800234b0     ElectronicJournal.obj
 0002:000014d0       ??_7?$CComContainedObject@VCOPOSElectronicJournal@@@ATL@@6B?$IPersistStreamInitImpl@VCOPOSElectronicJournal@@@1@@ 00000001800234d0     ElectronicJournal.obj
 0002:00001518       ??_7?$CComContainedObject@VCOPOSElectronicJournal@@@ATL@@6B?$IOleControlImpl@VCOPOSElectronicJournal@@@1@@ 0000000180023518     ElectronicJournal.obj
 0002:00001550       ??_7?$CComContainedObject@VCOPOSElectronicJournal@@@ATL@@6B?$IOleObjectImpl@VCOPOSElectronicJournal@@@1@@ 0000000180023550     ElectronicJournal.obj
 0002:00001610       ??_7?$CComContainedObject@VCOPOSElectronicJournal@@@ATL@@6B?$IOleInPlaceActiveObjectImpl@VCOPOSElectronicJournal@@@1@@ 0000000180023610     ElectronicJournal.obj
 0002:00001660       ??_7?$CComContainedObject@VCOPOSElectronicJournal@@@ATL@@6B?$IViewObjectExImpl@VCOPOSElectronicJournal@@@1@@ 0000000180023660     ElectronicJournal.obj
 0002:000016d8       ??_7?$CComContainedObject@VCOPOSElectronicJournal@@@ATL@@6B?$IOleInPlaceObjectWindowlessImpl@VCOPOSElectronicJournal@@@1@@ 00000001800236d8     ElectronicJournal.obj
 0002:00001730       ??_7?$CComContainedObject@VCOPOSElectronicJournal@@@ATL@@6B?$IConnectionPointContainerImpl@VCOPOSElectronicJournal@@@1@@ 0000000180023730     ElectronicJournal.obj
 0002:00001758       ??_7?$CComContainedObject@VCOPOSElectronicJournal@@@ATL@@6B?$IPersistStorageImpl@VCOPOSElectronicJournal@@@1@@ 0000000180023758     ElectronicJournal.obj
 0002:000017a8       ??_7?$CComContainedObject@VCOPOSElectronicJournal@@@ATL@@6B?$ISpecifyPropertyPagesImpl@VCOPOSElectronicJournal@@@1@@ 00000001800237a8     ElectronicJournal.obj
 0002:000017c8       ??_7?$CComContainedObject@VCOPOSElectronicJournal@@@ATL@@6B?$IQuickActivateImpl@VCOPOSElectronicJournal@@@1@@ 00000001800237c8     ElectronicJournal.obj
 0002:000017f8       ??_7?$CComContainedObject@VCOPOSElectronicJournal@@@ATL@@6B?$IDataObjectImpl@VCOPOSElectronicJournal@@@1@@ 00000001800237f8     ElectronicJournal.obj
 0002:00001858       ??_7?$CComContainedObject@VCOPOSElectronicJournal@@@ATL@@6B?$IProvideClassInfo2Impl@$1?CLSID_OPOSElectronicJournal@@3U_GUID@@B$1?DIID__IOPOSElectronicJournalEvents@@3U2@B$1?LIBID_OposElectronicJournal_CCO@@3U2@B$00$0A@VCComTypeInfoHolder@ATL@@@1@@ 0000000180023858     ElectronicJournal.obj
 0002:00001880       ??_7?$CComContainedObject@VCOPOSElectronicJournal@@@ATL@@6B?$IObjectSafetyImpl@VCOPOSElectronicJournal@@$02@1@@ 0000000180023880     ElectronicJournal.obj
 0002:000018b0       ??_7?$CComContainedObject@VCOPOSElectronicJournal@@@ATL@@6B?$IPropertyNotifySinkCP@VCOPOSElectronicJournal@@VCComDynamicUnkArray@ATL@@@1@@ 00000001800238b0     ElectronicJournal.obj
 0002:000018f0       ??_7?$CComContainedObject@VCOPOSElectronicJournal@@@ATL@@6B?$CProxy_IOPOSEvents@VCOPOSElectronicJournal@@@@@ 00000001800238f0     ElectronicJournal.obj
 0002:00001930       ??_7?$CComAggObject@VCOPOSElectronicJournal@@@ATL@@6B@ 0000000180023930     ElectronicJournal.obj
 0002:00001950       ??_7?$CComObject@VCOPOSElectronicJournal@@@ATL@@6B?$IDispatchImpl@UIOPOSElectronicJournal@@$1?IID_IOPOSElectronicJournal@@3U_GUID@@B$1?LIBID_OposElectronicJournal_CCO@@3U3@B$00$0A@VCComTypeInfoHolder@ATL@@@1@@ 0000000180023950     ElectronicJournal.obj
 0002:00001c90       ??_7?$CComObject@VCOPOSElectronicJournal@@@ATL@@6BCComControlBase@1@@ 0000000180023c90     ElectronicJournal.obj
 0002:00001cb8       ??_7?$CComObject@VCOPOSElectronicJournal@@@ATL@@6B?$CWindowImpl@VCOPOSElectronicJournal@@VCWindow@ATL@@V?$CWinTraits@$0FGAAAAAA@$0A@@3@@1@@ 0000000180023cb8     ElectronicJournal.obj
 0002:00001cd8       ??_7?$CComObject@VCOPOSElectronicJournal@@@ATL@@6B?$IPersistStreamInitImpl@VCOPOSElectronicJournal@@@1@@ 0000000180023cd8     ElectronicJournal.obj
 0002:00001d20       ??_7?$CComObject@VCOPOSElectronicJournal@@@ATL@@6B?$IOleControlImpl@VCOPOSElectronicJournal@@@1@@ 0000000180023d20     ElectronicJournal.obj
 0002:00001d58       ??_7?$CComObject@VCOPOSElectronicJournal@@@ATL@@6B?$IOleObjectImpl@VCOPOSElectronicJournal@@@1@@ 0000000180023d58     ElectronicJournal.obj
 0002:00001e18       ??_7?$CComObject@VCOPOSElectronicJournal@@@ATL@@6B?$IOleInPlaceActiveObjectImpl@VCOPOSElectronicJournal@@@1@@ 0000000180023e18     ElectronicJournal.obj
 0002:00001e68       ??_7?$CComObject@VCOPOSElectronicJournal@@@ATL@@6B?$IViewObjectExImpl@VCOPOSElectronicJournal@@@1@@ 0000000180023e68     ElectronicJournal.obj
 0002:00001ee0       ??_7?$CComObject@VCOPOSElectronicJournal@@@ATL@@6B?$IOleInPlaceObjectWindowlessImpl@VCOPOSElectronicJournal@@@1@@ 0000000180023ee0     ElectronicJournal.obj
 0002:00001f38       ??_7?$CComObject@VCOPOSElectronicJournal@@@ATL@@6B?$IConnectionPointContainerImpl@VCOPOSElectronicJournal@@@1@@ 0000000180023f38     ElectronicJournal.obj
 0002:00001f60       ??_7?$CComObject@VCOPOSElectronicJournal@@@ATL@@6B?$IPersistStorageImpl@VCOPOSElectronicJournal@@@1@@ 0000000180023f60     ElectronicJournal.obj
 0002:00001fb0       ??_7?$CComObject@VCOPOSElectronicJournal@@@ATL@@6B?$ISpecifyPropertyPagesImpl@VCOPOSElectronicJournal@@@1@@ 0000000180023fb0     ElectronicJournal.obj
 0002:00001fd0       ??_7?$CComObject@VCOPOSElectronicJournal@@@ATL@@6B?$IQuickActivateImpl@VCOPOSElectronicJournal@@@1@@ 0000000180023fd0     ElectronicJournal.obj
 0002:00002000       ??_7?$CComObject@VCOPOSElectronicJournal@@@ATL@@6B?$IDataObjectImpl@VCOPOSElectronicJournal@@@1@@ 0000000180024000     ElectronicJournal.obj
 0002:00002060       ??_7?$CComObject@VCOPOSElectronicJournal@@@ATL@@6B?$IProvideClassInfo2Impl@$1?CLSID_OPOSElectronicJournal@@3U_GUID@@B$1?DIID__IOPOSElectronicJournalEvents@@3U2@B$1?LIBID_OposElectronicJournal_CCO@@3U2@B$00$0A@VCComTypeInfoHolder@ATL@@@1@@ 0000000180024060     ElectronicJournal.obj
 0002:00002088       ??_7?$CComObject@VCOPOSElectronicJournal@@@ATL@@6B?$IObjectSafetyImpl@VCOPOSElectronicJournal@@$02@1@@ 0000000180024088     ElectronicJournal.obj
 0002:000020b8       ??_7?$CComObject@VCOPOSElectronicJournal@@@ATL@@6B?$IPropertyNotifySinkCP@VCOPOSElectronicJournal@@VCComDynamicUnkArray@ATL@@@1@@ 00000001800240b8     ElectronicJournal.obj
 0002:000020f8       ??_7?$CComObject@VCOPOSElectronicJournal@@@ATL@@6B?$CProxy_IOPOSEvents@VCOPOSElectronicJournal@@@@@ 00000001800240f8     ElectronicJournal.obj
 0002:00002138       ??_C@_1O@GBFKGNEO@?$AAA?$AAT?$AAL?$AA?3?$AA?$CF?$AAp@ 0000000180024138     ElectronicJournal.obj
 0002:00002148       ??_C@_1BA@PICGEGJB@?$AAD?$AAI?$AAS?$AAP?$AAL?$AAA?$AAY@ 0000000180024148     ElectronicJournal.obj
 0002:00002158       _GUID_9bfbbc02_eff1_101a_84ed_00aa00341d07 0000000180024158     ElectronicJournal.obj
 0002:00002168       ?_entries@?1??_GetEntries@?$CComEnum@UIEnumConnectionPoints@@$1?_GUID_b196b285_bab4_101a_b69c_00aa00341d07@@3U__s_GUID@@BPEAUIConnectionPoint@@V?$_CopyInterface@UIConnectionPoint@@@ATL@@VCComSingleThreadModel@6@@ATL@@SAPEBU_ATL_INTMAP_ENTRY@3@XZ@4QBU43@B 0000000180024168     ElectronicJournal.obj
 0002:00002198       _GUID_00020412_0000_0000_c000_000000000046 0000000180024198     ElectronicJournal.obj
 0002:000021a8       _GUID_00020401_0000_0000_c000_000000000046 00000001800241a8     ElectronicJournal.obj
 0002:000021b8       ??_7CComClassFactory@ATL@@6B@ 00000001800241b8     ElectronicJournal.obj
 0002:000021e8       ?_entries@?1??_GetEntries@CComClassFactory@ATL@@SAPEBU_ATL_INTMAP_ENTRY@3@XZ@4QBU43@B 00000001800241e8     ElectronicJournal.obj
 0002:00002218       _GUID_00000001_0000_0000_c000_000000000046 0000000180024218     ElectronicJournal.obj
 0002:00002228       _GUID_55980ba0_35aa_11cf_b671_00aa004cd6d8 0000000180024228     ElectronicJournal.obj
 0002:00002238       _GUID_b196b28b_bab4_101a_b69c_00aa00341d07 0000000180024238     ElectronicJournal.obj
 0002:00002248       ??_7?$CComObject@V?$CComEnum@UIEnumConnections@@$1?_GUID_b196b287_bab4_101a_b69c_00aa00341d07@@3U__s_GUID@@BUtagCONNECTDATA@@V?$_Copy@UtagCONNECTDATA@@@ATL@@VCComSingleThreadModel@6@@ATL@@@ATL@@6B@ 0000000180024248     ElectronicJournal.obj
 0002:00002288       ?_entries@?1??_GetEntries@?$CComEnum@UIEnumConnections@@$1?_GUID_b196b287_bab4_101a_b69c_00aa00341d07@@3U__s_GUID@@BUtagCONNECTDATA@@V?$_Copy@UtagCONNECTDATA@@@ATL@@VCComSingleThreadModel@6@@ATL@@SAPEBU_ATL_INTMAP_ENTRY@3@XZ@4QBU43@B 0000000180024288     ElectronicJournal.obj
 0002:000022b8       ??_C@_1BK@BIGILECK@?$AAA?$AAd?$AAv?$AAa?$AAp?$AAi?$AA3?$AA2?$AA?4?$AAd?$AAl?$AAl@ 00000001800242b8     ElectronicJournal.obj
 0002:000022d8       ??_C@_0BI@MNCFCPFK@RegCreateKeyTransactedW@ 00000001800242d8     ElectronicJournal.obj
 0002:000022f0       _GUID_b196b287_bab4_101a_b69c_00aa00341d07 00000001800242f0     ElectronicJournal.obj
 0002:00002300       _GUID_b196b285_bab4_101a_b69c_00aa00341d07 0000000180024300     ElectronicJournal.obj
 0002:00002310       IID_IOPOSElectronicJournal_1_10 0000000180024310     ElectronicJournal.obj
 0002:00002320       _GUID_a6bc3ac0_dbaa_11ce_9de3_00aa004bb851 0000000180024320     ElectronicJournal.obj
 0002:00002330       IID_IOPOSElectronicJournal 0000000180024330     ElectronicJournal.obj
 0002:00002340       LIBID_OposElectronicJournal_CCO 0000000180024340     ElectronicJournal.obj
 0002:00002350       DIID__IOPOSElectronicJournalEvents 0000000180024350     ElectronicJournal.obj
 0002:00002360       CLSID_OPOSElectronicJournal 0000000180024360     ElectronicJournal.obj
 0002:00002370       _GUID_0000010c_0000_0000_c000_000000000046 0000000180024370     ElectronicJournal.obj
 0002:00002380       _GUID_00000114_0000_0000_c000_000000000046 0000000180024380     ElectronicJournal.obj
 0002:00002390       _GUID_00000146_0000_0000_c000_000000000046 0000000180024390     ElectronicJournal.obj
 0002:000023a0       ??_7CComModule@ATL@@6B@    00000001800243a0     ElectronicJournal.obj
 0002:000023f0       _GUID_00000000_0000_0000_c000_000000000046 00000001800243f0     ElectronicJournal.obj
 0002:00002400       _GUID_00020400_0000_0000_c000_000000000046 0000000180024400     ElectronicJournal.obj
 0002:00002410       ??_C@_0BG@EKFFMJIO@RegOpenKeyTransactedW@ 0000000180024410     ElectronicJournal.obj
 0002:00002428       ??_C@_0BI@HAKLOOGP@RegDeleteKeyTransactedW@ 0000000180024428     ElectronicJournal.obj
 0002:00002440       ??_C@_19ILOCMLCJ@?$AA?4?$AAt?$AAl?$AAb@ 0000000180024440     ElectronicJournal.obj
 0002:00002450       _GUID_0002e012_0000_0000_c000_000000000046 0000000180024450     ElectronicJournal.obj
 0002:00002460       ??_C@_1O@FHBGLCIO@?$AAC?$AAL?$AAS?$AAI?$AAD?$AA?2@ 0000000180024460     ElectronicJournal.obj
 0002:00002470       ??_C@_1CK@IFBKBFAA@?$AA?2?$AAR?$AAe?$AAq?$AAu?$AAi?$AAr?$AAe?$AAd?$AA?5?$AAC?$AAa?$AAt?$AAe?$AAg@ 0000000180024470     ElectronicJournal.obj
 0002:000024a0       ??_C@_1DA@BIHALFED@?$AA?2?$AAI?$AAm?$AAp?$AAl?$AAe?$AAm?$AAe?$AAn?$AAt?$AAe?$AAd?$AA?5?$AAC?$AAa@ 00000001800244a0     ElectronicJournal.obj
 0002:000024d0       ??_C@_1BK@EDKOLFBJ@?$AAO?$AAL?$AAE?$AAA?$AAU?$AAT?$AA3?$AA2?$AA?4?$AAD?$AAL?$AAL@ 00000001800244d0     ElectronicJournal.obj
 0002:000024f0       ??_C@_0BJ@CNLFOMHB@UnRegisterTypeLibForUser@ 00000001800244f0     ElectronicJournal.obj
 0002:00002510       ??_C@_0BH@LBOMMKPJ@RegisterTypeLibForUser@ 0000000180024510     ElectronicJournal.obj
 0002:00002528       ??_C@_0P@MMNMMLGK@COFreezeEvents@ 0000000180024528     ElectronicJournalImpl.obj
 0002:00002538       ??_C@_0BC@OGCGGIMP@GetPropertyNumber@ 0000000180024538     ElectronicJournalImpl.obj
 0002:00002550       ??_C@_0BC@MDCNODNB@SetPropertyNumber@ 0000000180024550     ElectronicJournalImpl.obj
 0002:00002568       ??_C@_0BC@CFCCMIMD@GetPropertyString@ 0000000180024568     ElectronicJournalImpl.obj
 0002:00002580       ??_C@_0BC@CJEDNN@SetPropertyString@ 0000000180024580     ElectronicJournalImpl.obj
 0002:00002598       ??_C@_0M@LNPKKKDA@OpenService@ 0000000180024598     ElectronicJournalImpl.obj
 0002:000025a8       ??_C@_0M@PCMCHHMH@CheckHealth@ 00000001800245a8     ElectronicJournalImpl.obj
 0002:000025b8       ??_C@_0M@JGMIDNEK@ClaimDevice@ 00000001800245b8     ElectronicJournalImpl.obj
 0002:000025c8       ??_C@_0L@BNEIFEJC@ClearInput@ 00000001800245c8     ElectronicJournalImpl.obj
 0002:000025d8       ??_C@_0M@JMBCPNGJ@ClearOutput@ 00000001800245d8     ElectronicJournalImpl.obj
 0002:000025e8       ??_C@_0N@DDFIIBMP@CloseService@ 00000001800245e8     ElectronicJournalImpl.obj
 0002:000025f8       ??_C@_08EEIHICPC@DirectIO@ 00000001800245f8     ElectronicJournalImpl.obj
 0002:00002608       ??_C@_0O@BCPMENMJ@ReleaseDevice@ 0000000180024608     ElectronicJournalImpl.obj
 0002:00002618       ??_C@_0BA@GFABKEEE@ResetStatistics@ 0000000180024618     ElectronicJournalImpl.obj
 0002:00002628       ??_C@_0BD@DPALHJGC@RetrieveStatistics@ 0000000180024628     ElectronicJournalImpl.obj
 0002:00002640       ??_C@_0BB@KOHIKNFC@UpdateStatistics@ 0000000180024640     ElectronicJournalImpl.obj
 0002:00002658       ??_C@_0BH@PBKBNMGB@CompareFirmwareVersion@ 0000000180024658     ElectronicJournalImpl.obj
 0002:00002670       ??_C@_0P@FBPDPIPA@UpdateFirmware@ 0000000180024670     ElectronicJournalImpl.obj
 0002:00002680       ??_C@_0BD@PFECBCCO@GetMediumFreeSpace@ 0000000180024680     ElectronicJournalImpl.obj
 0002:00002698       ??_C@_0O@KINCGENF@GetMediumSize@ 0000000180024698     ElectronicJournalImpl.obj
 0002:000026a8       ??_C@_09OCHHJMKK@AddMarker@ 00000001800246a8     ElectronicJournalImpl.obj
 0002:000026b8       ??_C@_0BD@FPEIPLFC@CancelPrintContent@ 00000001800246b8     ElectronicJournalImpl.obj
 0002:000026d0       ??_C@_0BD@DAIBNPKO@CancelQueryContent@ 00000001800246d0     ElectronicJournalImpl.obj
 0002:000026e8       ??_C@_0M@DALEHAMG@EraseMedium@ 00000001800246e8     ElectronicJournalImpl.obj
 0002:000026f8       ??_C@_0BB@LBJHJKJA@InitializeMedium@ 00000001800246f8     ElectronicJournalImpl.obj
 0002:00002710       ??_C@_0N@JJCKBDAO@PrintContent@ 0000000180024710     ElectronicJournalImpl.obj
 0002:00002720       ??_C@_0BB@NANNDFBE@PrintContentFile@ 0000000180024720     ElectronicJournalImpl.obj
 0002:00002738       ??_C@_0N@PGODDHPC@QueryContent@ 0000000180024738     ElectronicJournalImpl.obj
 0002:00002748       ??_C@_0BD@EBMGMJNE@ResumePrintContent@ 0000000180024748     ElectronicJournalImpl.obj
 0002:00002760       ??_C@_0BD@COAPONCI@ResumeQueryContent@ 0000000180024760     ElectronicJournalImpl.obj
 0002:00002778       ??_C@_0BG@LJLAKGMB@RetrieveCurrentMarker@ 0000000180024778     ElectronicJournalImpl.obj
 0002:00002790       ??_C@_0P@GJMACLNL@RetrieveMarker@ 0000000180024790     ElectronicJournalImpl.obj
 0002:000027a0       ??_C@_0BJ@ELLMKGFB@RetrieveMarkerByDateTime@ 00000001800247a0     ElectronicJournalImpl.obj
 0002:000027c0       ??_C@_0BI@MAMPNAIK@RetrieveMarkersDateTime@ 00000001800247c0     ElectronicJournalImpl.obj
 0002:000027d8       ??_C@_0BE@JLCGCOBI@SuspendPrintContent@ 00000001800247d8     ElectronicJournalImpl.obj
 0002:000027f0       ??_C@_0BE@PEOPAKOE@SuspendQueryContent@ 00000001800247f0     ElectronicJournalImpl.obj
 0002:00002808       ??_7?$CProxy_IOPOSEvents@VCOPOSElectronicJournal@@@@6B@ 0000000180024808     ElectronicJournalImpl.obj
 0002:00002848       ??_C@_1BA@IFHENID@?$AA?$FL?$AAE?$AAr?$AAr?$AAo?$AAr?$AA?$FN@ 0000000180024848     ElectronicJournalImpl.obj
 0002:00002858       ??_C@_0DE@NJCAGLCG@SOFTWARE?2OLEforRetail?2ServiceOP@ 0000000180024858     ElectronicJournalImpl.obj
 0002:00002890       ??_C@_1M@IAIJHCCH@?$AAC?$AAl?$AAo?$AAs?$AAe@ 0000000180024890     ElectronicJournalImpl.obj
 0002:000028a0       ??_C@_1M@PCPKGJAH@?$AAC?$AAl?$AAa?$AAi?$AAm@ 00000001800248a0     ElectronicJournalImpl.obj
 0002:000028b0       ??_C@_1BA@NDFKIOCP@?$AAR?$AAe?$AAl?$AAe?$AAa?$AAs?$AAe@ 00000001800248b0     ElectronicJournalImpl.obj
 0002:000028c0       ??_C@_0BC@EPNMIABE@ElectronicJournal@ 00000001800248c0     ElectronicJournalImpl.obj
 0002:000028d8       ??_C@_1BM@IJMNMBPK@?$AAG?$AAe?$AAt?$AAO?$AAp?$AAe?$AAn?$AAR?$AAe?$AAs?$AAu?$AAl?$AAt@ 00000001800248d8     ElectronicJournalImpl.obj
 0002:000028f8       GUID_NULL                  00000001800248f8     uuid:cguid_i.obj
 0002:00002908       CLSID_StdGlobalInterfaceTable 0000000180024908     uuid:cguid_i.obj
 0002:00002918       IID_IPropertyNotifySink    0000000180024918     uuid:ocidl_i.obj
 0002:00002928       IID_IDispatch              0000000180024928     uuid:oaidl_i.obj
 0002:00002938       CLSID_StdComponentCategoriesMgr 0000000180024938     uuid:ieguids.obj
 0002:00002948       IID_IUnknown               0000000180024948     uuid:unknwn_i.obj
 0002:00002980       ??_C@_1EC@JIJBPKFM@?$AAa?$AAp?$AAi?$AA?9?$AAm?$AAs?$AA?9?$AAw?$AAi?$AAn?$AA?9?$AAc?$AAo?$AAr?$AAe@ 0000000180024980     LIBCMT:thread_safe_statics.obj
 0002:000029c8       ??_C@_1BK@MGMFAEKH@?$AAk?$AAe?$AAr?$AAn?$AAe?$AAl?$AA3?$AA2?$AA?4?$AAd?$AAl?$AAl@ 00000001800249c8     LIBCMT:thread_safe_statics.obj
 0002:000029e8       ??_C@_0BM@HLJJNPAH@InitializeConditionVariable@ 00000001800249e8     LIBCMT:thread_safe_statics.obj
 0002:00002a08       ??_C@_0BJ@JEBJOJFJ@SleepConditionVariableCS@ 0000000180024a08     LIBCMT:thread_safe_statics.obj
 0002:00002a28       ??_C@_0BJ@PGPPEPCC@WakeAllConditionVariable@ 0000000180024a28     LIBCMT:thread_safe_statics.obj
 0002:00002a41       ?nothrow@std@@3Unothrow_t@1@B 0000000180024a41     LIBCMT:std_nothrow.obj
 0002:00002a80       _pDefaultRawDllMain        0000000180024a80     LIBCMT:dll_dllmain.obj
 0002:00002a80       _pRawDllMain               0000000180024a80     LIBCMT:dll_dllmain.obj
 0002:00002a90       ??_7exception@std@@6B@     0000000180024a90     LIBCMT:throw_bad_alloc.obj
 0002:00002aa0       ??_C@_0BC@EOODALEL@Unknown?5exception@ 0000000180024aa0     LIBCMT:throw_bad_alloc.obj
 0002:00002ac0       ??_7bad_alloc@std@@6B@     0000000180024ac0     LIBCMT:throw_bad_alloc.obj
 0002:00002ad0       ??_C@_0P@GHFPNOJB@bad?5allocation@ 0000000180024ad0     LIBCMT:throw_bad_alloc.obj
 0002:00002ae8       ??_7bad_array_new_length@std@@6B@ 0000000180024ae8     LIBCMT:throw_bad_alloc.obj
 0002:00002af8       ??_C@_0BF@KINCDENJ@bad?5array?5new?5length@ 0000000180024af8     LIBCMT:throw_bad_alloc.obj
 0002:00002b18       ??_7type_info@@6B@         0000000180024b18     LIBCMT:std_type_info_static.obj
 0002:00002b20       GUID_ATLVer110             0000000180024b20     atls:atlbase.obj
 0002:00002b30       ??_C@_1IC@ONKHOIDK@?$AAE?$AAR?$AAR?$AAO?$AAR?$AA?5?$AA?3?$AA?5?$AAU?$AAn?$AAa?$AAb?$AAl?$AAe?$AA?5@ 0000000180024b30     atls:atlbase.obj
 0002:00002bb8       ??_C@_0N@FJEPLCIH@atlthunk?4dll@ 0000000180024bb8     atls:atlthunk.obj
 0002:00002bc8       ??_C@_0BG@GAKFHCBM@AtlThunk_AllocateData@ 0000000180024bc8     atls:atlthunk.obj
 0002:00002be0       ??_C@_0BC@JKONFIAH@AtlThunk_InitData@ 0000000180024be0     atls:atlthunk.obj
 0002:00002bf8       ??_C@_0BE@IAOEELAK@AtlThunk_DataToCode@ 0000000180024bf8     atls:atlthunk.obj
 0002:00002c10       ??_C@_0BC@GBGKAIPI@AtlThunk_FreeData@ 0000000180024c10     atls:atlthunk.obj
 0002:00002c28       _pDestructExceptionObject  0000000180024c28     libvcruntime:ehhelpers.obj
 0002:00002d28       ??_C@_1DM@KHCHBNEB@?$AAa?$AAp?$AAi?$AA?9?$AAm?$AAs?$AA?9?$AAw?$AAi?$AAn?$AA?9?$AAc?$AAo?$AAr?$AAe@ 0000000180024d28     libvcruntime:winapi_downlevel.obj
 0002:00002d68       ??_C@_1DK@LPPGFMPP@?$AAa?$AAp?$AAi?$AA?9?$AAm?$AAs?$AA?9?$AAw?$AAi?$AAn?$AA?9?$AAc?$AAo?$AAr?$AAe@ 0000000180024d68     libvcruntime:winapi_downlevel.obj
 0002:00002da8       ??_C@_1BC@GDMECMAK@?$AAk?$AAe?$AAr?$AAn?$AAe?$AAl?$AA3?$AA2@ 0000000180024da8     libvcruntime:winapi_downlevel.obj
 0002:00002dc0       ??_C@_1BA@PFFKHIOG@?$AAa?$AAp?$AAi?$AA?9?$AAm?$AAs?$AA?9@ 0000000180024dc0     libvcruntime:winapi_downlevel.obj
 0002:00002dd0       ??_C@_1BA@IAIFMGEF@?$AAe?$AAx?$AAt?$AA?9?$AAm?$AAs?$AA?9@ 0000000180024dd0     libvcruntime:winapi_downlevel.obj
 0002:00002de8       ??_C@_08KNHFBNJ@FlsAlloc@  0000000180024de8     libvcruntime:winapi_downlevel.obj
 0002:00002e00       ??_C@_07PEJMOBNF@FlsFree@  0000000180024e00     libvcruntime:winapi_downlevel.obj
 0002:00002e10       ??_C@_0M@GDNOONDI@FlsGetValue@ 0000000180024e10     libvcruntime:winapi_downlevel.obj
 0002:00002e28       ??_C@_0M@JCPCPOEF@FlsSetValue@ 0000000180024e28     libvcruntime:winapi_downlevel.obj
 0002:00002e40       ??_C@_0BM@HCFOFFN@InitializeCriticalSectionEx@ 0000000180024e40     libvcruntime:winapi_downlevel.obj
 0002:00002e68       ??_7bad_exception@std@@6B@ 0000000180024e68     libvcruntime:frame.obj
 0002:00002e78       ??_C@_0O@DPKOEFFH@bad?5exception@ 0000000180024e78     libvcruntime:frame.obj
 0002:000031c8       ??_C@_08EHJDFFNH@__based?$CI@ 00000001800251c8     libvcruntime:undname.obj
 0002:000031d8       ??_C@_07KOLFKCDI@__cdecl@  00000001800251d8     libvcruntime:undname.obj
 0002:000031e0       ??_C@_08GHMPAG@__pascal@   00000001800251e0     libvcruntime:undname.obj
 0002:000031f0       ??_C@_09IFJBGAPI@__stdcall@ 00000001800251f0     libvcruntime:undname.obj
 0002:00003200       ??_C@_0L@NPHFGOKO@__thiscall@ 0000000180025200     libvcruntime:undname.obj
 0002:00003210       ??_C@_0L@JMKHOMEK@__fastcall@ 0000000180025210     libvcruntime:undname.obj
 0002:00003220       ??_C@_0N@BCKKPABJ@__vectorcall@ 0000000180025220     libvcruntime:undname.obj
 0002:00003230       ??_C@_09HIJEGCPM@__clrcall@ 0000000180025230     libvcruntime:undname.obj
 0002:0000323c       ??_C@_06GHPCKEAG@__eabi@   000000018002523c     libvcruntime:undname.obj
 0002:00003248       ??_C@_09IOPIDJLG@__swift_1@ 0000000180025248     libvcruntime:undname.obj
 0002:00003258       ??_C@_09KFNFGKHF@__swift_2@ 0000000180025258     libvcruntime:undname.obj
 0002:00003268       ??_C@_07JOMMBBKO@__ptr64@  0000000180025268     libvcruntime:undname.obj
 0002:00003270       ??_C@_0L@PILCLIHE@__restrict@ 0000000180025270     libvcruntime:undname.obj
 0002:00003280       ??_C@_0M@GFIIJFMG@__unaligned@ 0000000180025280     libvcruntime:undname.obj
 0002:00003290       ??_C@_09DHDLOLLB@restrict?$CI@ 0000000180025290     libvcruntime:undname.obj
 0002:0000329a       ??_C@_00CNPNBAHC@@         000000018002529a     libvcruntime:undname.obj
 0002:0000329c       ??_C@_04NIHEBCM@?5new@     000000018002529c     libvcruntime:undname.obj
 0002:000032a8       ??_C@_07FPCDHGMM@?5delete@ 00000001800252a8     libvcruntime:undname.obj
 0002:000032b0       ??_C@_01NEMOKFLO@?$DN@     00000001800252b0     libvcruntime:undname.obj
 0002:000032b4       ??_C@_02GPIOPFAK@?$DO?$DO@ 00000001800252b4     libvcruntime:undname.obj
 0002:000032b8       ??_C@_02FODMEDOG@?$DM?$DM@ 00000001800252b8     libvcruntime:undname.obj
 0002:000032bc       ??_C@_01DCLJPIOD@?$CB@     00000001800252bc     libvcruntime:undname.obj
 0002:000032c0       ??_C@_02EGOFBIJA@?$DN?$DN@ 00000001800252c0     libvcruntime:undname.obj
 0002:000032c4       ??_C@_02FDNJECIE@?$CB?$DN@ 00000001800252c4     libvcruntime:undname.obj
 0002:000032c8       ??_C@_02GPECMEKF@?$FL?$FN@ 00000001800252c8     libvcruntime:undname.obj
 0002:000032d0       ??_C@_08LHJFAFGD@operator@ 00000001800252d0     libvcruntime:undname.obj
 0002:000032dc       ??_C@_02HBOOOICD@?9?$DO@   00000001800252dc     libvcruntime:undname.obj
 0002:000032e0       ??_C@_01NBENCBCI@?$CK@     00000001800252e0     libvcruntime:undname.obj
 0002:000032e4       ??_C@_02ECNGHCIF@?$CL?$CL@ 00000001800252e4     libvcruntime:undname.obj
 0002:000032e8       ??_C@_02BAABKJLB@?9?9@     00000001800252e8     libvcruntime:undname.obj
 0002:000032ec       ??_C@_01JOAMLHOP@?9@       00000001800252ec     libvcruntime:undname.obj
 0002:000032f0       ??_C@_01MIFGBAGJ@?$CL@     00000001800252f0     libvcruntime:undname.obj
 0002:000032f4       ??_C@_01HNPIGOCE@?$CG@     00000001800252f4     libvcruntime:undname.obj
 0002:000032f8       ??_C@_03MNHNFDLC@?9?$DO?$CK@ 00000001800252f8     libvcruntime:undname.obj
 0002:000032fc       ??_C@_01KMDKNFGN@?1@       00000001800252fc     libvcruntime:undname.obj
 0002:00003300       ??_C@_01FGNFDNOH@?$CF@     0000000180025300     libvcruntime:undname.obj
 0002:00003304       ??_C@_01MNNFJEPP@?$DM@     0000000180025304     libvcruntime:undname.obj
 0002:00003308       ??_C@_02EHCHHCKH@?$DM?$DN@ 0000000180025308     libvcruntime:undname.obj
 0002:0000330c       ??_C@_01PPODPGHN@?$DO@     000000018002530c     libvcruntime:undname.obj
 0002:00003310       ??_C@_02EEKDKGMJ@?$DO?$DN@ 0000000180025310     libvcruntime:undname.obj
 0002:00003314       ??_C@_01IHBHIGKO@?0@       0000000180025314     libvcruntime:undname.obj
 0002:00003318       ??_C@_02HCKGKOFO@?$CI?$CJ@ 0000000180025318     libvcruntime:undname.obj
 0002:0000331c       ??_C@_01PJKLJHI@?$HO@      000000018002531c     libvcruntime:undname.obj
 0002:00003320       ??_C@_01JKBOJNNK@?$FO@     0000000180025320     libvcruntime:undname.obj
 0002:00003324       ??_C@_01DNKMNLPK@?$HM@     0000000180025324     libvcruntime:undname.obj
 0002:00003328       ??_C@_02PPKAJPJL@?$CG?$CG@ 0000000180025328     libvcruntime:undname.obj
 0002:0000332c       ??_C@_02NONPIBCD@?$HM?$HM@ 000000018002532c     libvcruntime:undname.obj
 0002:00003330       ??_C@_02FPIMKNGF@?$CK?$DN@ 0000000180025330     libvcruntime:undname.obj
 0002:00003334       ??_C@_02FOEOMHFC@?$CL?$DN@ 0000000180025334     libvcruntime:undname.obj
 0002:00003338       ??_C@_02FKMDLLOA@?9?$DN@   0000000180025338     libvcruntime:undname.obj
 0002:0000333c       ??_C@_02FJEHGPIO@?1?$DN@   000000018002533c     libvcruntime:undname.obj
 0002:00003340       ??_C@_02FENAOKFI@?$CF?$DN@ 0000000180025340     libvcruntime:undname.obj
 0002:00003344       ??_C@_03IKFCCPFF@?$DO?$DO?$DN@ 0000000180025344     libvcruntime:undname.obj
 0002:00003348       ??_C@_03CDNPDDLA@?$DM?$DM?$DN@ 0000000180025348     libvcruntime:undname.obj
 0002:0000334c       ??_C@_02FGJGFEAB@?$CG?$DN@ 000000018002534c     libvcruntime:undname.obj
 0002:00003350       ??_C@_02DHLNPPGH@?$HM?$DN@ 0000000180025350     libvcruntime:undname.obj
 0002:00003354       ??_C@_02MHEGNOJ@?$FO?$DN@  0000000180025354     libvcruntime:undname.obj
 0002:00003358       ??_C@_09IFPLHPGF@?$GAvftable?8@ 0000000180025358     libvcruntime:undname.obj
 0002:00003368       ??_C@_09BLBHBJP@?$GAvbtable?8@ 0000000180025368     libvcruntime:undname.obj
 0002:00003378       ??_C@_07FEEIOKP@?$GAvcall?8@ 0000000180025378     libvcruntime:undname.obj
 0002:00003380       ??_C@_08LLFFHHDJ@?$GAtypeof?8@ 0000000180025380     libvcruntime:undname.obj
 0002:00003390       ??_C@_0BF@KDPPACIK@?$GAlocal?5static?5guard?8@ 0000000180025390     libvcruntime:undname.obj
 0002:000033a8       ??_C@_08OBABFOLI@?$GAstring?8@ 00000001800253a8     libvcruntime:undname.obj
 0002:000033b8       ??_C@_0BD@JDLKDPAB@?$GAvbase?5destructor?8@ 00000001800253b8     libvcruntime:undname.obj
 0002:000033d0       ??_C@_0BN@DEGPLNFK@?$GAvector?5deleting?5destructor?8@ 00000001800253d0     libvcruntime:undname.obj
 0002:000033f0       ??_C@_0BO@OBMKPJIG@?$GAdefault?5constructor?5closure?8@ 00000001800253f0     libvcruntime:undname.obj
 0002:00003410       ??_C@_0BN@IMDCHIKM@?$GAscalar?5deleting?5destructor?8@ 0000000180025410     libvcruntime:undname.obj
 0002:00003430       ??_C@_0BO@PFGOCPJJ@?$GAvector?5constructor?5iterator?8@ 0000000180025430     libvcruntime:undname.obj
 0002:00003450       ??_C@_0BN@LFPFMEDL@?$GAvector?5destructor?5iterator?8@ 0000000180025450     libvcruntime:undname.obj
 0002:00003470       ??_C@_0CE@IKBNEHA@?$GAvector?5vbase?5constructor?5itera@ 0000000180025470     libvcruntime:undname.obj
 0002:00003498       ??_C@_0BL@NILFHHPC@?$GAvirtual?5displacement?5map?8@ 0000000180025498     libvcruntime:undname.obj
 0002:000034b8       ??_C@_0CB@JONCMFFK@?$GAeh?5vector?5constructor?5iterator@ 00000001800254b8     libvcruntime:undname.obj
 0002:000034e0       ??_C@_0CA@GCEOPDGL@?$GAeh?5vector?5destructor?5iterator?8@ 00000001800254e0     libvcruntime:undname.obj
 0002:00003500       ??_C@_0CH@OOJPLCPH@?$GAeh?5vector?5vbase?5constructor?5it@ 0000000180025500     libvcruntime:undname.obj
 0002:00003528       ??_C@_0BL@LLKPOHJI@?$GAcopy?5constructor?5closure?8@ 0000000180025528     libvcruntime:undname.obj
 0002:00003548       ??_C@_0BA@KBCDOMBN@?$GAudt?5returning?8@ 0000000180025548     libvcruntime:undname.obj
 0002:00003558       ??_C@_03KLGMFNMG@?$GAEH@   0000000180025558     libvcruntime:undname.obj
 0002:0000355c       ??_C@_05KHLCHHI@?$GARTTI@  000000018002555c     libvcruntime:undname.obj
 0002:00003568       ??_C@_0BA@KKLDJDLB@?$GAlocal?5vftable?8@ 0000000180025568     libvcruntime:undname.obj
 0002:00003578       ??_C@_0CE@IIHCMGGL@?$GAlocal?5vftable?5constructor?5clos@ 0000000180025578     libvcruntime:undname.obj
 0002:0000359c       ??_C@_06FHBGPFGH@?5new?$FL?$FN@ 000000018002559c     libvcruntime:undname.obj
 0002:000035a8       ??_C@_09LBNFPBCA@?5delete?$FL?$FN@ 00000001800255a8     libvcruntime:undname.obj
 0002:000035b8       ??_C@_0P@HJKNJFNN@?$GAomni?5callsig?8@ 00000001800255b8     libvcruntime:undname.obj
 0002:000035c8       ??_C@_0BL@CNOONJFP@?$GAplacement?5delete?5closure?8@ 00000001800255c8     libvcruntime:undname.obj
 0002:000035e8       ??_C@_0BN@CKNJLHMB@?$GAplacement?5delete?$FL?$FN?5closure?8@ 00000001800255e8     libvcruntime:undname.obj
 0002:00003608       ??_C@_0CG@CFDHKGGD@?$GAmanaged?5vector?5constructor?5ite@ 0000000180025608     libvcruntime:undname.obj
 0002:00003630       ??_C@_0CF@IMGKMJNO@?$GAmanaged?5vector?5destructor?5iter@ 0000000180025630     libvcruntime:undname.obj
 0002:00003658       ??_C@_0CG@HLDDJMAG@?$GAeh?5vector?5copy?5constructor?5ite@ 0000000180025658     libvcruntime:undname.obj
 0002:00003680       ??_C@_0CM@FCBBDIGB@?$GAeh?5vector?5vbase?5copy?5construct@ 0000000180025680     libvcruntime:undname.obj
 0002:000036b0       ??_C@_0BL@CLIPGLGB@?$GAdynamic?5initializer?5for?5?8@ 00000001800256b0     libvcruntime:undname.obj
 0002:000036d0       ??_C@_0CB@PDBIFEP@?$GAdynamic?5atexit?5destructor?5for?5@ 00000001800256d0     libvcruntime:undname.obj
 0002:000036f8       ??_C@_0CD@CGAJBKEJ@?$GAvector?5copy?5constructor?5iterat@ 00000001800256f8     libvcruntime:undname.obj
 0002:00003720       ??_C@_0CJ@GJELGAMM@?$GAvector?5vbase?5copy?5constructor?5@ 0000000180025720     libvcruntime:undname.obj
 0002:00003750       ??_C@_0CL@FGIJHLCE@?$GAmanaged?5vector?5copy?5constructo@ 0000000180025750     libvcruntime:undname.obj
 0002:00003780       ??_C@_0BM@PMGGMLDN@?$GAlocal?5static?5thread?5guard?8@ 0000000180025780     libvcruntime:undname.obj
 0002:000037a0       ??_C@_0N@BDNMDMOL@operator?5?$CC?$CC?5@ 00000001800257a0     libvcruntime:undname.obj
 0002:000037b0       ??_C@_0BC@GGEBGALA@operator?5co_await@ 00000001800257b0     libvcruntime:undname.obj
 0002:000037c8       ??_C@_0BC@DAFEJGAK@?5Type?5Descriptor?8@ 00000001800257c8     libvcruntime:undname.obj
 0002:000037e0       ??_C@_0BM@LDKODKLH@?5Base?5Class?5Descriptor?5at?5?$CI@ 00000001800257e0     libvcruntime:undname.obj
 0002:00003800       ??_C@_0BD@LGICGFMM@?5Base?5Class?5Array?8@ 0000000180025800     libvcruntime:undname.obj
 0002:00003818       ??_C@_0BN@MECKDCOJ@?5Class?5Hierarchy?5Descriptor?8@ 0000000180025818     libvcruntime:undname.obj
 0002:00003838       ??_C@_0BK@CFCOFLF@?5Complete?5Object?5Locator?8@ 0000000180025838     libvcruntime:undname.obj
 0002:000039c0       format_validation_lookup_table 00000001800259c0     libucrt:output.obj
 0002:00003a20       ??_C@_1O@CEDCILHN@?$AA?$CI?$AAn?$AAu?$AAl?$AAl?$AA?$CJ?$AA?$AA@ 0000000180025a20     libucrt:output.obj
 0002:00003a30       ??_C@_06OJHGLDPL@?$CInull?$CJ?$AA@ 0000000180025a30     libucrt:output.obj
 0002:00003a40       __acrt_exception_action_table 0000000180025a40     libucrt:exception_filter.obj
 0002:00003b00       __acrt_signal_action_table_count 0000000180025b00     libucrt:exception_filter.obj
 0002:00003b08       __acrt_signal_action_first_fpe_index 0000000180025b08     libucrt:exception_filter.obj
 0002:00003b10       __acrt_signal_action_fpe_count 0000000180025b10     libucrt:exception_filter.obj
 0002:00003b18       ??_C@_1BI@BGOHAHKC@?$AAm?$AAs?$AAc?$AAo?$AAr?$AAe?$AAe?$AA?4?$AAd?$AAl?$AAl?$AA?$AA@ 0000000180025b18     libucrt:exit.obj
 0002:00003b30       ??_C@_0P@MIGLKIOC@CorExitProcess?$AA@ 0000000180025b30     libucrt:exit.obj
 0002:00003cd0       ??_C@_1EA@JGEFHKEI@?$AAa?$AAp?$AAi?$AA?9?$AAm?$AAs?$AA?9?$AAw?$AAi?$AAn?$AA?9?$AAc?$AAo?$AAr?$AAe?$AA?9?$AAd?$AAa?$AAt?$AAe?$AAt?$AAi?$AAm?$AAe?$AA?9?$AAl?$AA1?$AA?9?$AA1?$AA?9?$AA1?$AA?$AA@ 0000000180025cd0     libucrt:winapi_thunks.obj
 0002:00003d10       ??_C@_1DM@KHCHBNEB@?$AAa?$AAp?$AAi?$AA?9?$AAm?$AAs?$AA?9?$AAw?$AAi?$AAn?$AA?9?$AAc?$AAo?$AAr?$AAe?$AA?9?$AAf?$AAi?$AAb?$AAe?$AAr?$AAs?$AA?9?$AAl?$AA1?$AA?9?$AA1?$AA?9?$AA1?$AA?$AA@ 0000000180025d10     libucrt:winapi_thunks.obj
 0002:00003d50       ??_C@_1EI@MPIAOHOC@?$AAa?$AAp?$AAi?$AA?9?$AAm?$AAs?$AA?9?$AAw?$AAi?$AAn?$AA?9?$AAc?$AAo?$AAr?$AAe?$AA?9?$AAl?$AAo?$AAc?$AAa?$AAl?$AAi?$AAz?$AAa?$AAt?$AAi?$AAo?$AAn?$AA?9?$AAl?$AA1?$AA?9@ 0000000180025d50     libucrt:winapi_thunks.obj
 0002:00003da0       ??_C@_1FK@FPHCKFIE@?$AAa?$AAp?$AAi?$AA?9?$AAm?$AAs?$AA?9?$AAw?$AAi?$AAn?$AA?9?$AAc?$AAo?$AAr?$AAe?$AA?9?$AAl?$AAo?$AAc?$AAa?$AAl?$AAi?$AAz?$AAa?$AAt?$AAi?$AAo?$AAn?$AA?9?$AAo?$AAb?$AAs@ 0000000180025da0     libucrt:winapi_thunks.obj
 0002:00003e00       ??_C@_1EM@DILCGIIO@?$AAa?$AAp?$AAi?$AA?9?$AAm?$AAs?$AA?9?$AAw?$AAi?$AAn?$AA?9?$AAc?$AAo?$AAr?$AAe?$AA?9?$AAp?$AAr?$AAo?$AAc?$AAe?$AAs?$AAs?$AAt?$AAh?$AAr?$AAe?$AAa?$AAd?$AAs?$AA?9?$AAl@ 0000000180025e00     libucrt:winapi_thunks.obj
 0002:00003e50       ??_C@_1DM@LNCGDDPN@?$AAa?$AAp?$AAi?$AA?9?$AAm?$AAs?$AA?9?$AAw?$AAi?$AAn?$AA?9?$AAc?$AAo?$AAr?$AAe?$AA?9?$AAs?$AAt?$AAr?$AAi?$AAn?$AAg?$AA?9?$AAl?$AA1?$AA?9?$AA1?$AA?9?$AA0?$AA?$AA@ 0000000180025e50     libucrt:winapi_thunks.obj
 0002:00003e90       ??_C@_1DK@LPPGFMPP@?$AAa?$AAp?$AAi?$AA?9?$AAm?$AAs?$AA?9?$AAw?$AAi?$AAn?$AA?9?$AAc?$AAo?$AAr?$AAe?$AA?9?$AAs?$AAy?$AAn?$AAc?$AAh?$AA?9?$AAl?$AA1?$AA?9?$AA2?$AA?9?$AA0?$AA?$AA@ 0000000180025e90     libucrt:winapi_thunks.obj
 0002:00003ed0       ??_C@_1DO@FPAPJEMD@?$AAa?$AAp?$AAi?$AA?9?$AAm?$AAs?$AA?9?$AAw?$AAi?$AAn?$AA?9?$AAc?$AAo?$AAr?$AAe?$AA?9?$AAs?$AAy?$AAs?$AAi?$AAn?$AAf?$AAo?$AA?9?$AAl?$AA1?$AA?9?$AA2?$AA?9?$AA1?$AA?$AA@ 0000000180025ed0     libucrt:winapi_thunks.obj
 0002:00003f10       ??_C@_1DK@NDHNAHIO@?$AAa?$AAp?$AAi?$AA?9?$AAm?$AAs?$AA?9?$AAw?$AAi?$AAn?$AA?9?$AAc?$AAo?$AAr?$AAe?$AA?9?$AAw?$AAi?$AAn?$AAr?$AAt?$AA?9?$AAl?$AA1?$AA?9?$AA1?$AA?9?$AA0?$AA?$AA@ 0000000180025f10     libucrt:winapi_thunks.obj
 0002:00003f50       ??_C@_1DM@KGHDGBCM@?$AAa?$AAp?$AAi?$AA?9?$AAm?$AAs?$AA?9?$AAw?$AAi?$AAn?$AA?9?$AAc?$AAo?$AAr?$AAe?$AA?9?$AAx?$AAs?$AAt?$AAa?$AAt?$AAe?$AA?9?$AAl?$AA2?$AA?9?$AA1?$AA?9?$AA0?$AA?$AA@ 0000000180025f50     libucrt:winapi_thunks.obj
 0002:00003f90       ??_C@_1EO@IJIOEFOH@?$AAa?$AAp?$AAi?$AA?9?$AAm?$AAs?$AA?9?$AAw?$AAi?$AAn?$AA?9?$AAr?$AAt?$AAc?$AAo?$AAr?$AAe?$AA?9?$AAn?$AAt?$AAu?$AAs?$AAe?$AAr?$AA?9?$AAw?$AAi?$AAn?$AAd?$AAo?$AAw?$AA?9@ 0000000180025f90     libucrt:winapi_thunks.obj
 0002:00003fe0       ??_C@_1FG@HHGEKANL@?$AAa?$AAp?$AAi?$AA?9?$AAm?$AAs?$AA?9?$AAw?$AAi?$AAn?$AA?9?$AAs?$AAe?$AAc?$AAu?$AAr?$AAi?$AAt?$AAy?$AA?9?$AAs?$AAy?$AAs?$AAt?$AAe?$AAm?$AAf?$AAu?$AAn?$AAc?$AAt?$AAi@ 0000000180025fe0     libucrt:winapi_thunks.obj
 0002:00004040       ??_C@_1EG@DBIOJECG@?$AAe?$AAx?$AAt?$AA?9?$AAm?$AAs?$AA?9?$AAw?$AAi?$AAn?$AA?9?$AAn?$AAt?$AAu?$AAs?$AAe?$AAr?$AA?9?$AAd?$AAi?$AAa?$AAl?$AAo?$AAg?$AAb?$AAo?$AAx?$AA?9?$AAl?$AA1?$AA?9?$AA1@ 0000000180026040     libucrt:winapi_thunks.obj
 0002:00004090       ??_C@_1EO@FIHMJCLF@?$AAe?$AAx?$AAt?$AA?9?$AAm?$AAs?$AA?9?$AAw?$AAi?$AAn?$AA?9?$AAn?$AAt?$AAu?$AAs?$AAe?$AAr?$AA?9?$AAw?$AAi?$AAn?$AAd?$AAo?$AAw?$AAs?$AAt?$AAa?$AAt?$AAi?$AAo?$AAn?$AA?9@ 0000000180026090     libucrt:winapi_thunks.obj
 0002:000040e0       ??_C@_1BC@DNHGCMLG@?$AAa?$AAd?$AAv?$AAa?$AAp?$AAi?$AA3?$AA2?$AA?$AA@ 00000001800260e0     libucrt:winapi_thunks.obj
 0002:000040f8       ??_C@_1BC@GDMECMAK@?$AAk?$AAe?$AAr?$AAn?$AAe?$AAl?$AA3?$AA2?$AA?$AA@ 00000001800260f8     libucrt:winapi_thunks.obj
 0002:00004110       ??_C@_1M@OAIMIKLP@?$AAn?$AAt?$AAd?$AAl?$AAl?$AA?$AA@ 0000000180026110     libucrt:winapi_thunks.obj
 0002:00004120       ??_C@_1EG@DPGNFKGC@?$AAa?$AAp?$AAi?$AA?9?$AAm?$AAs?$AA?9?$AAw?$AAi?$AAn?$AA?9?$AAa?$AAp?$AAp?$AAm?$AAo?$AAd?$AAe?$AAl?$AA?9?$AAr?$AAu?$AAn?$AAt?$AAi?$AAm?$AAe?$AA?9?$AAl?$AA1?$AA?9?$AA1@ 0000000180026120     libucrt:winapi_thunks.obj
 0002:00004168       ??_C@_1O@BCCLBEOE@?$AAu?$AAs?$AAe?$AAr?$AA3?$AA2?$AA?$AA@ 0000000180026168     libucrt:winapi_thunks.obj
 0002:00004178       ??_C@_1BA@PFFKHIOG@?$AAa?$AAp?$AAi?$AA?9?$AAm?$AAs?$AA?9?$AA?$AA@ 0000000180026178     libucrt:winapi_thunks.obj
 0002:00004188       ??_C@_1BA@IAIFMGEF@?$AAe?$AAx?$AAt?$AA?9?$AAm?$AAs?$AA?9?$AA?$AA@ 0000000180026188     libucrt:winapi_thunks.obj
 0002:000041a0       ??_C@_08KNHFBNJ@FlsAlloc?$AA@ 00000001800261a0     libucrt:winapi_thunks.obj
 0002:000041b8       ??_C@_07PEJMOBNF@FlsFree?$AA@ 00000001800261b8     libucrt:winapi_thunks.obj
 0002:000041c8       ??_C@_0M@GDNOONDI@FlsGetValue?$AA@ 00000001800261c8     libucrt:winapi_thunks.obj
 0002:000041e0       ??_C@_0M@JCPCPOEF@FlsSetValue?$AA@ 00000001800261e0     libucrt:winapi_thunks.obj
 0002:000041f8       ??_C@_0BM@HCFOFFN@InitializeCriticalSectionEx?$AA@ 00000001800261f8     libucrt:winapi_thunks.obj
 0002:00004220       ??_C@_0O@KKBNKAPF@LCMapStringEx?$AA@ 0000000180026220     libucrt:winapi_thunks.obj
 0002:00004238       ??_C@_0BB@HBDEELFH@LocaleNameToLCID?$AA@ 0000000180026238     libucrt:winapi_thunks.obj
 0002:00004250       ??_C@_0CF@OJOFEIGO@AppPolicyGetProcessTerminationMe@ 0000000180026250     libucrt:winapi_thunks.obj
 0002:00004280       ??_C@_0BI@BKLFFAPO@SetThreadStackGuarantee?$AA@ 0000000180026280     libucrt:winapi_thunks.obj
 0002:00004298       ??_C@_03OEIAHPBN@INF?$AA@  0000000180026298     libucrt:cvt.obj
 0002:0000429c       ??_C@_03OJHLLCGB@inf?$AA@  000000018002629c     libucrt:cvt.obj
 0002:000042a0       ??_C@_03LKNCIKJB@NAN?$AA@  00000001800262a0     libucrt:cvt.obj
 0002:000042a4       ??_C@_03LHCJEHON@nan?$AA@  00000001800262a4     libucrt:cvt.obj
 0002:000042a8       ??_C@_09OFJJIMPC@NAN?$CISNAN?$CJ?$AA@ 00000001800262a8     libucrt:cvt.obj
 0002:000042b8       ??_C@_09IPFBKMDL@nan?$CIsnan?$CJ?$AA@ 00000001800262b8     libucrt:cvt.obj
 0002:000042c8       ??_C@_08IKHNHAJ@NAN?$CIIND?$CJ?$AA@ 00000001800262c8     libucrt:cvt.obj
 0002:000042d8       ??_C@_08OFCDMILK@nan?$CIind?$CJ?$AA@ 00000001800262d8     libucrt:cvt.obj
 0002:000042e4       ??_C@_05KLBDPFGC@e?$CL000?$AA@ 00000001800262e4     libucrt:cvt.obj
 0002:000042f0       __lc_time_c                00000001800262f0     libucrt:nlsdata.obj
 0002:000045b0       ??_C@_03KOEHGMDN@Sun?$AA@  00000001800265b0     libucrt:nlsdata.obj
 0002:000045b4       ??_C@_03PDAGKDH@Mon?$AA@   00000001800265b4     libucrt:nlsdata.obj
 0002:000045b8       ??_C@_03NAGEINEP@Tue?$AA@  00000001800265b8     libucrt:nlsdata.obj
 0002:000045bc       ??_C@_03MHOMLAJA@Wed?$AA@  00000001800265bc     libucrt:nlsdata.obj
 0002:000045c0       ??_C@_03IOFIKPDN@Thu?$AA@  00000001800265c0     libucrt:nlsdata.obj
 0002:000045c4       ??_C@_03IDIOELNC@Fri?$AA@  00000001800265c4     libucrt:nlsdata.obj
 0002:000045c8       ??_C@_03FEFJNEK@Sat?$AA@   00000001800265c8     libucrt:nlsdata.obj
 0002:000045cc       ??_C@_06OOPIFAJ@Sunday?$AA@ 00000001800265cc     libucrt:nlsdata.obj
 0002:000045d4       ??_C@_06JLEDEDGH@Monday?$AA@ 00000001800265d4     libucrt:nlsdata.obj
 0002:000045e0       ??_C@_07BAAGCFCM@Tuesday?$AA@ 00000001800265e0     libucrt:nlsdata.obj
 0002:000045e8       ??_C@_09DLIGFAKA@Wednesday?$AA@ 00000001800265e8     libucrt:nlsdata.obj
 0002:000045f8       ??_C@_08HACCIKIA@Thursday?$AA@ 00000001800265f8     libucrt:nlsdata.obj
 0002:00004604       ??_C@_06JECMNKMI@Friday?$AA@ 0000000180026604     libucrt:nlsdata.obj
 0002:00004610       ??_C@_08INBOOONO@Saturday?$AA@ 0000000180026610     libucrt:nlsdata.obj
 0002:0000461c       ??_C@_03JIHJHPIE@Jan?$AA@  000000018002661c     libucrt:nlsdata.obj
 0002:00004620       ??_C@_03HJBDCHOM@Feb?$AA@  0000000180026620     libucrt:nlsdata.obj
 0002:00004624       ??_C@_03ODNJBKGA@Mar?$AA@  0000000180026624     libucrt:nlsdata.obj
 0002:00004628       ??_C@_03LEOLGMJP@Apr?$AA@  0000000180026628     libucrt:nlsdata.obj
 0002:0000462c       ??_C@_03CNMDKL@May?$AA@    000000018002662c     libucrt:nlsdata.obj
 0002:00004630       ??_C@_03IDFGHECI@Jun?$AA@  0000000180026630     libucrt:nlsdata.obj
 0002:00004634       ??_C@_03LBGABGKK@Jul?$AA@  0000000180026634     libucrt:nlsdata.obj
 0002:00004638       ??_C@_03IFJFEIGA@Aug?$AA@  0000000180026638     libucrt:nlsdata.obj
 0002:0000463c       ??_C@_03GGCAPAJC@Sep?$AA@  000000018002663c     libucrt:nlsdata.obj
 0002:00004640       ??_C@_03BMAOKBAD@Oct?$AA@  0000000180026640     libucrt:nlsdata.obj
 0002:00004644       ??_C@_03JPJOFNIA@Nov?$AA@  0000000180026644     libucrt:nlsdata.obj
 0002:00004648       ??_C@_03MKABNOCG@Dec?$AA@  0000000180026648     libucrt:nlsdata.obj
 0002:00004650       ??_C@_07CGJPFGJA@January?$AA@ 0000000180026650     libucrt:nlsdata.obj
 0002:00004658       ??_C@_08GNJGEPFN@February?$AA@ 0000000180026658     libucrt:nlsdata.obj
 0002:00004664       ??_C@_05HPCKOFNC@March?$AA@ 0000000180026664     libucrt:nlsdata.obj
 0002:0000466c       ??_C@_05DMJDNLEJ@April?$AA@ 000000018002666c     libucrt:nlsdata.obj
 0002:00004674       ??_C@_04CNLMGBGM@June?$AA@ 0000000180026674     libucrt:nlsdata.obj
 0002:0000467c       ??_C@_04MIEPOIFP@July?$AA@ 000000018002667c     libucrt:nlsdata.obj
 0002:00004684       ??_C@_06LBBHFDDG@August?$AA@ 0000000180026684     libucrt:nlsdata.obj
 0002:00004690       ??_C@_09BHHEALKD@September?$AA@ 0000000180026690     libucrt:nlsdata.obj
 0002:000046a0       ??_C@_07JJNFCEND@October?$AA@ 00000001800266a0     libucrt:nlsdata.obj
 0002:000046a8       ??_C@_08HCHEGEOA@November?$AA@ 00000001800266a8     libucrt:nlsdata.obj
 0002:000046b8       ??_C@_08EDHMEBNP@December?$AA@ 00000001800266b8     libucrt:nlsdata.obj
 0002:000046c4       ??_C@_02DEDBPAFC@AM?$AA@   00000001800266c4     libucrt:nlsdata.obj
 0002:000046c8       ??_C@_02CJNFDJBF@PM?$AA@   00000001800266c8     libucrt:nlsdata.obj
 0002:000046d0       ??_C@_08BPBNCDIB@MM?1dd?1yy?$AA@ 00000001800266d0     libucrt:nlsdata.obj
 0002:000046e0       ??_C@_0BE@CKGJFCPC@dddd?0?5MMMM?5dd?0?5yyyy?$AA@ 00000001800266e0     libucrt:nlsdata.obj
 0002:000046f8       ??_C@_08JCCMCCIL@HH?3mm?3ss?$AA@ 00000001800266f8     libucrt:nlsdata.obj
 0002:00004708       ??_C@_17MBGCMIPB@?$AAS?$AAu?$AAn?$AA?$AA@ 0000000180026708     libucrt:nlsdata.obj
 0002:00004710       ??_C@_17KBOMKBF@?$AAM?$AAo?$AAn?$AA?$AA@ 0000000180026710     libucrt:nlsdata.obj
 0002:00004718       ??_C@_17BMKGEGOJ@?$AAT?$AAu?$AAe?$AA?$AA@ 0000000180026718     libucrt:nlsdata.obj
 0002:00004720       ??_C@_17CJEDCEPE@?$AAW?$AAe?$AAd?$AA?$AA@ 0000000180026720     libucrt:nlsdata.obj
 0002:00004728       ??_C@_17PDPHAADD@?$AAT?$AAh?$AAu?$AA?$AA@ 0000000180026728     libucrt:nlsdata.obj
 0002:00004730       ??_C@_17HFOLPPLP@?$AAF?$AAr?$AAi?$AA?$AA@ 0000000180026730     libucrt:nlsdata.obj
 0002:00004738       ??_C@_17GGIBDPIH@?$AAS?$AAa?$AAt?$AA?$AA@ 0000000180026738     libucrt:nlsdata.obj
 0002:00004740       ??_C@_1O@IHNHDHPB@?$AAS?$AAu?$AAn?$AAd?$AAa?$AAy?$AA?$AA@ 0000000180026740     libucrt:nlsdata.obj
 0002:00004750       ??_C@_1O@MMNBFLIA@?$AAM?$AAo?$AAn?$AAd?$AAa?$AAy?$AA?$AA@ 0000000180026750     libucrt:nlsdata.obj
 0002:00004760       ??_C@_1BA@ENFBFFEK@?$AAT?$AAu?$AAe?$AAs?$AAd?$AAa?$AAy?$AA?$AA@ 0000000180026760     libucrt:nlsdata.obj
 0002:00004770       ??_C@_1BE@EBOGMDOH@?$AAW?$AAe?$AAd?$AAn?$AAe?$AAs?$AAd?$AAa?$AAy?$AA?$AA@ 0000000180026770     libucrt:nlsdata.obj
 0002:00004788       ??_C@_1BC@HHMNLIHE@?$AAT?$AAh?$AAu?$AAr?$AAs?$AAd?$AAa?$AAy?$AA?$AA@ 0000000180026788     libucrt:nlsdata.obj
 0002:000047a0       ??_C@_1O@PDICJHAG@?$AAF?$AAr?$AAi?$AAd?$AAa?$AAy?$AA?$AA@ 00000001800267a0     libucrt:nlsdata.obj
 0002:000047b0       ??_C@_1BC@ENMNNPAJ@?$AAS?$AAa?$AAt?$AAu?$AAr?$AAd?$AAa?$AAy?$AA?$AA@ 00000001800267b0     libucrt:nlsdata.obj
 0002:000047c8       ??_C@_17DKNBKCHM@?$AAJ?$AAa?$AAn?$AA?$AA@ 00000001800267c8     libucrt:nlsdata.obj
 0002:000047d0       ??_C@_17LMDJEKJN@?$AAF?$AAe?$AAb?$AA?$AA@ 00000001800267d0     libucrt:nlsdata.obj
 0002:000047d8       ??_C@_17CKNLEDEC@?$AAM?$AAa?$AAr?$AA?$AA@ 00000001800267d8     libucrt:nlsdata.obj
 0002:000047e0       ??_C@_17LFPOIHDD@?$AAA?$AAp?$AAr?$AA?$AA@ 00000001800267e0     libucrt:nlsdata.obj
 0002:000047e8       ??_C@_17PNNKMEED@?$AAM?$AAa?$AAy?$AA?$AA@ 00000001800267e8     libucrt:nlsdata.obj
 0002:000047f0       ??_C@_17KCJGOCPB@?$AAJ?$AAu?$AAn?$AA?$AA@ 00000001800267f0     libucrt:nlsdata.obj
 0002:000047f8       ??_C@_17IJPCKHK@?$AAJ?$AAu?$AAl?$AA?$AA@ 00000001800267f8     libucrt:nlsdata.obj
 0002:00004800       ??_C@_17ICPELBCN@?$AAA?$AAu?$AAg?$AA?$AA@ 0000000180026800     libucrt:nlsdata.obj
 0002:00004808       ??_C@_17HCHCOKMG@?$AAS?$AAe?$AAp?$AA?$AA@ 0000000180026808     libucrt:nlsdata.obj
 0002:00004810       ??_C@_17FNLKOI@?$AAO?$AAc?$AAt?$AA?$AA@ 0000000180026810     libucrt:nlsdata.obj
 0002:00004818       ??_C@_17BBDMLCIG@?$AAN?$AAo?$AAv?$AA?$AA@ 0000000180026818     libucrt:nlsdata.obj
 0002:00004820       ??_C@_17EGKACKIF@?$AAD?$AAe?$AAc?$AA?$AA@ 0000000180026820     libucrt:nlsdata.obj
 0002:00004828       ??_C@_1BA@EFMEIEBA@?$AAJ?$AAa?$AAn?$AAu?$AAa?$AAr?$AAy?$AA?$AA@ 0000000180026828     libucrt:nlsdata.obj
 0002:00004838       ??_C@_1BC@JGDDFFAM@?$AAF?$AAe?$AAb?$AAr?$AAu?$AAa?$AAr?$AAy?$AA?$AA@ 0000000180026838     libucrt:nlsdata.obj
 0002:00004850       ??_C@_1M@IKEENEDF@?$AAM?$AAa?$AAr?$AAc?$AAh?$AA?$AA@ 0000000180026850     libucrt:nlsdata.obj
 0002:00004860       ??_C@_1M@GJNLMHFD@?$AAA?$AAp?$AAr?$AAi?$AAl?$AA?$AA@ 0000000180026860     libucrt:nlsdata.obj
 0002:00004870       ??_C@_19EPFLPGAP@?$AAJ?$AAu?$AAn?$AAe?$AA?$AA@ 0000000180026870     libucrt:nlsdata.obj
 0002:00004880       ??_C@_19BIFMLPCD@?$AAJ?$AAu?$AAl?$AAy?$AA?$AA@ 0000000180026880     libucrt:nlsdata.obj
 0002:00004890       ??_C@_1O@PAHLKOAC@?$AAA?$AAu?$AAg?$AAu?$AAs?$AAt?$AA?$AA@ 0000000180026890     libucrt:nlsdata.obj
 0002:000048a0       ??_C@_1BE@DKAAMBJL@?$AAS?$AAe?$AAp?$AAt?$AAe?$AAm?$AAb?$AAe?$AAr?$AA?$AA@ 00000001800268a0     libucrt:nlsdata.obj
 0002:000048b8       ??_C@_1BA@EPANDLNG@?$AAO?$AAc?$AAt?$AAo?$AAb?$AAe?$AAr?$AA?$AA@ 00000001800268b8     libucrt:nlsdata.obj
 0002:000048c8       ??_C@_1BC@BGLIFPF@?$AAN?$AAo?$AAv?$AAe?$AAm?$AAb?$AAe?$AAr?$AA?$AA@ 00000001800268c8     libucrt:nlsdata.obj
 0002:000048e0       ??_C@_1BC@FEMKIFH@?$AAD?$AAe?$AAc?$AAe?$AAm?$AAb?$AAe?$AAr?$AA?$AA@ 00000001800268e0     libucrt:nlsdata.obj
 0002:000048f4       ??_C@_15ODEHAHHF@?$AAA?$AAM?$AA?$AA@ 00000001800268f4     libucrt:nlsdata.obj
 0002:000048fc       ??_C@_15CLMNNGEL@?$AAP?$AAM?$AA?$AA@ 00000001800268fc     libucrt:nlsdata.obj
 0002:00004908       ??_C@_1BC@IEBCMHCM@?$AAM?$AAM?$AA?1?$AAd?$AAd?$AA?1?$AAy?$AAy?$AA?$AA@ 0000000180026908     libucrt:nlsdata.obj
 0002:00004920       ??_C@_1CI@KNAKOEBC@?$AAd?$AAd?$AAd?$AAd?$AA?0?$AA?5?$AAM?$AAM?$AAM?$AAM?$AA?5?$AAd?$AAd?$AA?0?$AA?5?$AAy?$AAy?$AAy?$AAy?$AA?$AA@ 0000000180026920     libucrt:nlsdata.obj
 0002:00004948       ??_C@_1BC@GDGBMEMK@?$AAH?$AAH?$AA?3?$AAm?$AAm?$AA?3?$AAs?$AAs?$AA?$AA@ 0000000180026948     libucrt:nlsdata.obj
 0002:00004960       ??_C@_1M@BMHNFIME@?$AAe?$AAn?$AA?9?$AAU?$AAS?$AA?$AA@ 0000000180026960     libucrt:nlsdata.obj
 0002:00004990       ??_C@_1M@HPNHIDJI@?$AAj?$AAa?$AA?9?$AAJ?$AAP?$AA?$AA@ 0000000180026990     libucrt:mbctype.obj
 0002:000049a0       ??_C@_1M@BIBDDEMK@?$AAz?$AAh?$AA?9?$AAC?$AAN?$AA?$AA@ 00000001800269a0     libucrt:mbctype.obj
 0002:000049b0       ??_C@_1M@JLOOOEGK@?$AAk?$AAo?$AA?9?$AAK?$AAR?$AA?$AA@ 00000001800269b0     libucrt:mbctype.obj
 0002:000049c0       ??_C@_1M@CLNBBOPM@?$AAz?$AAh?$AA?9?$AAT?$AAW?$AA?$AA@ 00000001800269c0     libucrt:mbctype.obj
 0002:000049d0       __newctype                 00000001800269d0     libucrt:ctype.obj
 0002:00004cd0       __newclmap                 0000000180026cd0     libucrt:ctype.obj
 0002:00004e50       __newcumap                 0000000180026e50     libucrt:ctype.obj
 0002:00004fd0       _wctype                    0000000180026fd0     libucrt:ctype.obj
 0002:000051d8       ??_C@_1M@GPCBKDJK@?$AAh?$AAy?$AA?9?$AAA?$AAM?$AA?$AA@ 00000001800271d8     libucrt:lcidtoname_downlevel.obj
 0002:000051e8       ??_C@_1BG@BECMDDJB@?$AAa?$AAz?$AA?9?$AAA?$AAZ?$AA?9?$AAL?$AAa?$AAt?$AAn?$AA?$AA@ 00000001800271e8     libucrt:lcidtoname_downlevel.obj
 0002:00005200       ??_C@_1M@MAOFCAEA@?$AAe?$AAu?$AA?9?$AAE?$AAS?$AA?$AA@ 0000000180027200     libucrt:lcidtoname_downlevel.obj
 0002:00005210       ??_C@_1M@IGHABKPI@?$AAm?$AAk?$AA?9?$AAM?$AAK?$AA?$AA@ 0000000180027210     libucrt:lcidtoname_downlevel.obj
 0002:00005220       ??_C@_1M@IAIGNEJG@?$AAt?$AAn?$AA?9?$AAZ?$AAA?$AA?$AA@ 0000000180027220     libucrt:lcidtoname_downlevel.obj
 0002:00005230       ??_C@_1M@IIJCOJFA@?$AAx?$AAh?$AA?9?$AAZ?$AAA?$AA?$AA@ 0000000180027230     libucrt:lcidtoname_downlevel.obj
 0002:00005240       ??_C@_1M@LGPJHNJH@?$AAz?$AAu?$AA?9?$AAZ?$AAA?$AA?$AA@ 0000000180027240     libucrt:lcidtoname_downlevel.obj
 0002:00005250       ??_C@_1M@HOKAOIO@?$AAa?$AAf?$AA?9?$AAZ?$AAA?$AA?$AA@ 0000000180027250     libucrt:lcidtoname_downlevel.obj
 0002:00005260       ??_C@_1M@DPCLHLIE@?$AAk?$AAa?$AA?9?$AAG?$AAE?$AA?$AA@ 0000000180027260     libucrt:lcidtoname_downlevel.obj
 0002:00005270       ??_C@_1M@BLKMHJBI@?$AAf?$AAo?$AA?9?$AAF?$AAO?$AA?$AA@ 0000000180027270     libucrt:lcidtoname_downlevel.obj
 0002:00005280       ??_C@_1M@LGGJAPPB@?$AAh?$AAi?$AA?9?$AAI?$AAN?$AA?$AA@ 0000000180027280     libucrt:lcidtoname_downlevel.obj
 0002:00005290       ??_C@_1M@FIKPIHFE@?$AAm?$AAt?$AA?9?$AAM?$AAT?$AA?$AA@ 0000000180027290     libucrt:lcidtoname_downlevel.obj
 0002:000052a0       ??_C@_1M@HEGGPBFA@?$AAs?$AAe?$AA?9?$AAN?$AAO?$AA?$AA@ 00000001800272a0     libucrt:lcidtoname_downlevel.obj
 0002:000052b0       ??_C@_1M@EIBJEEPA@?$AAm?$AAs?$AA?9?$AAM?$AAY?$AA?$AA@ 00000001800272b0     libucrt:lcidtoname_downlevel.obj
 0002:000052c0       ??_C@_1M@FHLBGMPP@?$AAk?$AAk?$AA?9?$AAK?$AAZ?$AA?$AA@ 00000001800272c0     libucrt:lcidtoname_downlevel.obj
 0002:000052d0       ??_C@_1M@NGJJLCGI@?$AAk?$AAy?$AA?9?$AAK?$AAG?$AA?$AA@ 00000001800272d0     libucrt:lcidtoname_downlevel.obj
 0002:000052e0       ??_C@_1M@GIENNBFC@?$AAs?$AAw?$AA?9?$AAK?$AAE?$AA?$AA@ 00000001800272e0     libucrt:lcidtoname_downlevel.obj
 0002:000052f0       ??_C@_1BG@NDGMJIMJ@?$AAu?$AAz?$AA?9?$AAU?$AAZ?$AA?9?$AAL?$AAa?$AAt?$AAn?$AA?$AA@ 00000001800272f0     libucrt:lcidtoname_downlevel.obj
 0002:00005308       ??_C@_1M@IDCCIHBC@?$AAt?$AAt?$AA?9?$AAR?$AAU?$AA?$AA@ 0000000180027308     libucrt:lcidtoname_downlevel.obj
 0002:00005318       ??_C@_1M@LOICPMOJ@?$AAb?$AAn?$AA?9?$AAI?$AAN?$AA?$AA@ 0000000180027318     libucrt:lcidtoname_downlevel.obj
 0002:00005328       ??_C@_1M@KPKKNEAH@?$AAp?$AAa?$AA?9?$AAI?$AAN?$AA?$AA@ 0000000180027328     libucrt:lcidtoname_downlevel.obj
 0002:00005338       ??_C@_1M@PJGPPBOG@?$AAg?$AAu?$AA?9?$AAI?$AAN?$AA?$AA@ 0000000180027338     libucrt:lcidtoname_downlevel.obj
 0002:00005348       ??_C@_1M@KMKMOPHI@?$AAt?$AAa?$AA?9?$AAI?$AAN?$AA?$AA@ 0000000180027348     libucrt:lcidtoname_downlevel.obj
 0002:00005358       ??_C@_1M@KFEHEPAC@?$AAt?$AAe?$AA?9?$AAI?$AAN?$AA?$AA@ 0000000180027358     libucrt:lcidtoname_downlevel.obj
 0002:00005368       ??_C@_1M@CDCLMGHI@?$AAk?$AAn?$AA?9?$AAI?$AAN?$AA?$AA@ 0000000180027368     libucrt:lcidtoname_downlevel.obj
 0002:00005378       ??_C@_1M@MIODLDKF@?$AAm?$AAl?$AA?9?$AAI?$AAN?$AA?$AA@ 0000000180027378     libucrt:lcidtoname_downlevel.obj
 0002:00005388       ??_C@_1M@PBIEACPO@?$AAm?$AAr?$AA?9?$AAI?$AAN?$AA?$AA@ 0000000180027388     libucrt:lcidtoname_downlevel.obj
 0002:00005398       ??_C@_1M@NIDEAGPH@?$AAs?$AAa?$AA?9?$AAI?$AAN?$AA?$AA@ 0000000180027398     libucrt:lcidtoname_downlevel.obj
 0002:000053a8       ??_C@_1M@FHIHCBIO@?$AAm?$AAn?$AA?9?$AAM?$AAN?$AA?$AA@ 00000001800273a8     libucrt:lcidtoname_downlevel.obj
 0002:000053b8       ??_C@_1M@JAIJPENP@?$AAc?$AAy?$AA?9?$AAG?$AAB?$AA?$AA@ 00000001800273b8     libucrt:lcidtoname_downlevel.obj
 0002:000053c8       ??_C@_1M@PHGFBEPN@?$AAg?$AAl?$AA?9?$AAE?$AAS?$AA?$AA@ 00000001800273c8     libucrt:lcidtoname_downlevel.obj
 0002:000053d8       ??_C@_1O@KPIPDNCP@?$AAk?$AAo?$AAk?$AA?9?$AAI?$AAN?$AA?$AA@ 00000001800273d8     libucrt:lcidtoname_downlevel.obj
 0002:000053e8       ??_C@_1O@KNHJLDJA@?$AAs?$AAy?$AAr?$AA?9?$AAS?$AAY?$AA?$AA@ 00000001800273e8     libucrt:lcidtoname_downlevel.obj
 0002:000053f8       ??_C@_1O@MKEKBLAH@?$AAd?$AAi?$AAv?$AA?9?$AAM?$AAV?$AA?$AA@ 00000001800273f8     libucrt:lcidtoname_downlevel.obj
 0002:00005408       ??_C@_1O@OHDCKDDF@?$AAq?$AAu?$AAz?$AA?9?$AAB?$AAO?$AA?$AA@ 0000000180027408     libucrt:lcidtoname_downlevel.obj
 0002:00005418       ??_C@_1M@LEPJNLFD@?$AAn?$AAs?$AA?9?$AAZ?$AAA?$AA?$AA@ 0000000180027418     libucrt:lcidtoname_downlevel.obj
 0002:00005428       ??_C@_1M@OMLEIIJB@?$AAm?$AAi?$AA?9?$AAN?$AAZ?$AA?$AA@ 0000000180027428     libucrt:lcidtoname_downlevel.obj
 0002:00005438       ??_C@_1M@PMPEAILG@?$AAa?$AAr?$AA?9?$AAI?$AAQ?$AA?$AA@ 0000000180027438     libucrt:lcidtoname_downlevel.obj
 0002:00005448       ??_C@_1M@CNKPNOEE@?$AAd?$AAe?$AA?9?$AAC?$AAH?$AA?$AA@ 0000000180027448     libucrt:lcidtoname_downlevel.obj
 0002:00005458       ??_C@_1M@LKMGMLKO@?$AAe?$AAn?$AA?9?$AAG?$AAB?$AA?$AA@ 0000000180027458     libucrt:lcidtoname_downlevel.obj
 0002:00005468       ??_C@_1M@PGKJFFGL@?$AAe?$AAs?$AA?9?$AAM?$AAX?$AA?$AA@ 0000000180027468     libucrt:lcidtoname_downlevel.obj
 0002:00005478       ??_C@_1M@DNNANBDC@?$AAf?$AAr?$AA?9?$AAB?$AAE?$AA?$AA@ 0000000180027478     libucrt:lcidtoname_downlevel.obj
 0002:00005488       ??_C@_1M@HLGMDFHM@?$AAi?$AAt?$AA?9?$AAC?$AAH?$AA?$AA@ 0000000180027488     libucrt:lcidtoname_downlevel.obj
 0002:00005498       ??_C@_1M@CLLBGJH@?$AAn?$AAl?$AA?9?$AAB?$AAE?$AA?$AA@ 0000000180027498     libucrt:lcidtoname_downlevel.obj
 0002:000054a8       ??_C@_1M@BODBOGLF@?$AAn?$AAn?$AA?9?$AAN?$AAO?$AA?$AA@ 00000001800274a8     libucrt:lcidtoname_downlevel.obj
 0002:000054b8       ??_C@_1M@HFFAHKAD@?$AAp?$AAt?$AA?9?$AAP?$AAT?$AA?$AA@ 00000001800274b8     libucrt:lcidtoname_downlevel.obj
 0002:000054c8       ??_C@_1BG@LNOAKHIE@?$AAs?$AAr?$AA?9?$AAS?$AAP?$AA?9?$AAL?$AAa?$AAt?$AAn?$AA?$AA@ 00000001800274c8     libucrt:lcidtoname_downlevel.obj
 0002:000054e0       ??_C@_1M@HBMHBGAK@?$AAs?$AAv?$AA?9?$AAF?$AAI?$AA?$AA@ 00000001800274e0     libucrt:lcidtoname_downlevel.obj
 0002:000054f0       ??_C@_1BG@DGCJGJBE@?$AAa?$AAz?$AA?9?$AAA?$AAZ?$AA?9?$AAC?$AAy?$AAr?$AAl?$AA?$AA@ 00000001800274f0     libucrt:lcidtoname_downlevel.obj
 0002:00005508       ??_C@_1M@KEJDAAHB@?$AAs?$AAe?$AA?9?$AAS?$AAE?$AA?$AA@ 0000000180027508     libucrt:lcidtoname_downlevel.obj
 0002:00005518       ??_C@_1M@HEIBJJAD@?$AAm?$AAs?$AA?9?$AAB?$AAN?$AA?$AA@ 0000000180027518     libucrt:lcidtoname_downlevel.obj
 0002:00005528       ??_C@_1BG@PBGJMCEM@?$AAu?$AAz?$AA?9?$AAU?$AAZ?$AA?9?$AAC?$AAy?$AAr?$AAl?$AA?$AA@ 0000000180027528     libucrt:lcidtoname_downlevel.obj
 0002:00005540       ??_C@_1O@LAOBCMDF@?$AAq?$AAu?$AAz?$AA?9?$AAE?$AAC?$AA?$AA@ 0000000180027540     libucrt:lcidtoname_downlevel.obj
 0002:00005550       ??_C@_1M@POEEMAIO@?$AAa?$AAr?$AA?9?$AAE?$AAG?$AA?$AA@ 0000000180027550     libucrt:lcidtoname_downlevel.obj
 0002:00005560       ??_C@_1M@EFAKDEDL@?$AAz?$AAh?$AA?9?$AAH?$AAK?$AA?$AA@ 0000000180027560     libucrt:lcidtoname_downlevel.obj
 0002:00005570       ??_C@_1M@HKKIJHGI@?$AAd?$AAe?$AA?9?$AAA?$AAT?$AA?$AA@ 0000000180027570     libucrt:lcidtoname_downlevel.obj
 0002:00005580       ??_C@_1M@KBFBEHJF@?$AAe?$AAn?$AA?9?$AAA?$AAU?$AA?$AA@ 0000000180027580     libucrt:lcidtoname_downlevel.obj
 0002:00005590       ??_C@_1M@MNPLFAAH@?$AAe?$AAs?$AA?9?$AAE?$AAS?$AA?$AA@ 0000000180027590     libucrt:lcidtoname_downlevel.obj
 0002:000055a0       ??_C@_1M@HJOOJFMA@?$AAf?$AAr?$AA?9?$AAC?$AAA?$AA?$AA@ 00000001800275a0     libucrt:lcidtoname_downlevel.obj
 0002:000055b0       ??_C@_1BG@JPOFPNAB@?$AAs?$AAr?$AA?9?$AAS?$AAP?$AA?9?$AAC?$AAy?$AAr?$AAl?$AA?$AA@ 00000001800275b0     libucrt:lcidtoname_downlevel.obj
 0002:000055c8       ??_C@_1M@LNFOCMOB@?$AAs?$AAe?$AA?9?$AAF?$AAI?$AA?$AA@ 00000001800275c8     libucrt:lcidtoname_downlevel.obj
 0002:000055d8       ??_C@_1O@MGJBOAMB@?$AAq?$AAu?$AAz?$AA?9?$AAP?$AAE?$AA?$AA@ 00000001800275d8     libucrt:lcidtoname_downlevel.obj
 0002:000055e8       ??_C@_1M@GJINLBOK@?$AAa?$AAr?$AA?9?$AAL?$AAY?$AA?$AA@ 00000001800275e8     libucrt:lcidtoname_downlevel.obj
 0002:000055f8       ??_C@_1M@GGMNHJNL@?$AAz?$AAh?$AA?9?$AAS?$AAG?$AA?$AA@ 00000001800275f8     libucrt:lcidtoname_downlevel.obj
 0002:00005608       ??_C@_1M@HOIKODND@?$AAd?$AAe?$AA?9?$AAL?$AAU?$AA?$AA@ 0000000180027608     libucrt:lcidtoname_downlevel.obj
 0002:00005618       ??_C@_1M@DDOCCGFG@?$AAe?$AAn?$AA?9?$AAC?$AAA?$AA?$AA@ 0000000180027618     libucrt:lcidtoname_downlevel.obj
 0002:00005628       ??_C@_1M@BNOEMJLF@?$AAe?$AAs?$AA?9?$AAG?$AAT?$AA?$AA@ 0000000180027628     libucrt:lcidtoname_downlevel.obj
 0002:00005638       ??_C@_1M@EOGNKEK@?$AAf?$AAr?$AA?9?$AAC?$AAH?$AA?$AA@ 0000000180027638     libucrt:lcidtoname_downlevel.obj
 0002:00005648       ??_C@_1M@FLIDJFHL@?$AAh?$AAr?$AA?9?$AAB?$AAA?$AA?$AA@ 0000000180027648     libucrt:lcidtoname_downlevel.obj
 0002:00005658       ??_C@_1O@FMCELNAJ@?$AAs?$AAm?$AAj?$AA?9?$AAN?$AAO?$AA?$AA@ 0000000180027658     libucrt:lcidtoname_downlevel.obj
 0002:00005668       ??_C@_1M@JHGLJMGJ@?$AAa?$AAr?$AA?9?$AAD?$AAZ?$AA?$AA@ 0000000180027668     libucrt:lcidtoname_downlevel.obj
 0002:00005678       ??_C@_1M@JKKFDCNP@?$AAz?$AAh?$AA?9?$AAM?$AAO?$AA?$AA@ 0000000180027678     libucrt:lcidtoname_downlevel.obj
 0002:00005688       ??_C@_1M@GEEFALPE@?$AAd?$AAe?$AA?9?$AAL?$AAI?$AA?$AA@ 0000000180027688     libucrt:lcidtoname_downlevel.obj
 0002:00005698       ??_C@_1M@IGEOFBG@?$AAe?$AAn?$AA?9?$AAN?$AAZ?$AA?$AA@ 0000000180027698     libucrt:lcidtoname_downlevel.obj
 0002:000056a8       ??_C@_1M@KDBONEHP@?$AAe?$AAs?$AA?9?$AAC?$AAR?$AA?$AA@ 00000001800276a8     libucrt:lcidtoname_downlevel.obj
 0002:000056b8       ??_C@_1M@FHMDOHNN@?$AAf?$AAr?$AA?9?$AAL?$AAU?$AA?$AA@ 00000001800276b8     libucrt:lcidtoname_downlevel.obj
 0002:000056c8       ??_C@_1BG@NFKKMAFG@?$AAb?$AAs?$AA?9?$AAB?$AAA?$AA?9?$AAL?$AAa?$AAt?$AAn?$AA?$AA@ 00000001800276c8     libucrt:lcidtoname_downlevel.obj
 0002:000056e0       ??_C@_1O@IMNBEMCI@?$AAs?$AAm?$AAj?$AA?9?$AAS?$AAE?$AA?$AA@ 00000001800276e0     libucrt:lcidtoname_downlevel.obj
 0002:000056f0       ??_C@_1M@DHHMBNDP@?$AAa?$AAr?$AA?9?$AAM?$AAA?$AA?$AA@ 00000001800276f0     libucrt:lcidtoname_downlevel.obj
 0002:00005700       ??_C@_1M@BNBLJCGH@?$AAe?$AAn?$AA?9?$AAI?$AAE?$AA?$AA@ 0000000180027700     libucrt:lcidtoname_downlevel.obj
 0002:00005710       ??_C@_1M@GEPAFMDL@?$AAe?$AAs?$AA?9?$AAP?$AAA?$AA?$AA@ 0000000180027710     libucrt:lcidtoname_downlevel.obj
 0002:00005720       ??_C@_1M@OJONDMDL@?$AAf?$AAr?$AA?9?$AAM?$AAC?$AA?$AA@ 0000000180027720     libucrt:lcidtoname_downlevel.obj
 0002:00005730       ??_C@_1BG@OBCNFJB@?$AAs?$AAr?$AA?9?$AAB?$AAA?$AA?9?$AAL?$AAa?$AAt?$AAn?$AA?$AA@ 0000000180027730     libucrt:lcidtoname_downlevel.obj
 0002:00005748       ??_C@_1O@KEMEEGPO@?$AAs?$AAm?$AAa?$AA?9?$AAN?$AAO?$AA?$AA@ 0000000180027748     libucrt:lcidtoname_downlevel.obj
 0002:00005758       ??_C@_1M@ELMGFODK@?$AAa?$AAr?$AA?9?$AAT?$AAN?$AA?$AA@ 0000000180027758     libucrt:lcidtoname_downlevel.obj
 0002:00005768       ??_C@_1M@BHDLHFAF@?$AAe?$AAn?$AA?9?$AAZ?$AAA?$AA?$AA@ 0000000180027768     libucrt:lcidtoname_downlevel.obj
 0002:00005778       ??_C@_1M@BMGIGLIF@?$AAe?$AAs?$AA?9?$AAD?$AAO?$AA?$AA@ 0000000180027778     libucrt:lcidtoname_downlevel.obj
 0002:00005788       ??_C@_1BG@CMBHIPBE@?$AAs?$AAr?$AA?9?$AAB?$AAA?$AA?9?$AAC?$AAy?$AAr?$AAl?$AA?$AA@ 0000000180027788     libucrt:lcidtoname_downlevel.obj
 0002:000057a0       ??_C@_1O@HEDBLHNP@?$AAs?$AAm?$AAa?$AA?9?$AAS?$AAE?$AA?$AA@ 00000001800277a0     libucrt:lcidtoname_downlevel.obj
 0002:000057b0       ??_C@_1M@DAGCADIM@?$AAa?$AAr?$AA?9?$AAO?$AAM?$AA?$AA@ 00000001800277b0     libucrt:lcidtoname_downlevel.obj
 0002:000057c0       ??_C@_1M@FODLMICG@?$AAe?$AAn?$AA?9?$AAJ?$AAM?$AA?$AA@ 00000001800277c0     libucrt:lcidtoname_downlevel.obj
 0002:000057d0       ??_C@_1M@DNMLCIHB@?$AAe?$AAs?$AA?9?$AAV?$AAE?$AA?$AA@ 00000001800277d0     libucrt:lcidtoname_downlevel.obj
 0002:000057e0       ??_C@_1O@EOKHMKJK@?$AAs?$AAm?$AAs?$AA?9?$AAF?$AAI?$AA?$AA@ 00000001800277e0     libucrt:lcidtoname_downlevel.obj
 0002:000057f0       ??_C@_1M@CAFJMKOF@?$AAa?$AAr?$AA?9?$AAY?$AAE?$AA?$AA@ 00000001800277f0     libucrt:lcidtoname_downlevel.obj
 0002:00005800       ??_C@_1M@CBFHIJLI@?$AAe?$AAn?$AA?9?$AAC?$AAB?$AA?$AA@ 0000000180027800     libucrt:lcidtoname_downlevel.obj
 0002:00005810       ??_C@_1M@BGNFLDN@?$AAe?$AAs?$AA?9?$AAC?$AAO?$AA?$AA@ 0000000180027810     libucrt:lcidtoname_downlevel.obj
 0002:00005820       ??_C@_1O@JMPHMAMC@?$AAs?$AAm?$AAn?$AA?9?$AAF?$AAI?$AA?$AA@ 0000000180027820     libucrt:lcidtoname_downlevel.obj
 0002:00005830       ??_C@_1M@JLANABKE@?$AAa?$AAr?$AA?9?$AAS?$AAY?$AA?$AA@ 0000000180027830     libucrt:lcidtoname_downlevel.obj
 0002:00005840       ??_C@_1M@HPKGCFGN@?$AAe?$AAn?$AA?9?$AAB?$AAZ?$AA?$AA@ 0000000180027840     libucrt:lcidtoname_downlevel.obj
 0002:00005850       ??_C@_1M@OLJCMLGM@?$AAe?$AAs?$AA?9?$AAP?$AAE?$AA?$AA@ 0000000180027850     libucrt:lcidtoname_downlevel.obj
 0002:00005860       ??_C@_1M@MKKGFKLE@?$AAa?$AAr?$AA?9?$AAJ?$AAO?$AA?$AA@ 0000000180027860     libucrt:lcidtoname_downlevel.obj
 0002:00005870       ??_C@_1M@EKPGLDNI@?$AAe?$AAn?$AA?9?$AAT?$AAT?$AA?$AA@ 0000000180027870     libucrt:lcidtoname_downlevel.obj
 0002:00005880       ??_C@_1M@OONGHFHE@?$AAe?$AAs?$AA?9?$AAA?$AAR?$AA?$AA@ 0000000180027880     libucrt:lcidtoname_downlevel.obj
 0002:00005890       ??_C@_1M@OOJFGBHE@?$AAa?$AAr?$AA?9?$AAL?$AAB?$AA?$AA@ 0000000180027890     libucrt:lcidtoname_downlevel.obj
 0002:000058a0       ??_C@_1M@GCEJHNEG@?$AAe?$AAn?$AA?9?$AAZ?$AAW?$AA?$AA@ 00000001800278a0     libucrt:lcidtoname_downlevel.obj
 0002:000058b0       ??_C@_1M@JNOCAHJI@?$AAe?$AAs?$AA?9?$AAE?$AAC?$AA?$AA@ 00000001800278b0     libucrt:lcidtoname_downlevel.obj
 0002:000058c0       ??_C@_1M@JEFHPGGB@?$AAa?$AAr?$AA?9?$AAK?$AAW?$AA?$AA@ 00000001800278c0     libucrt:lcidtoname_downlevel.obj
 0002:000058d0       ??_C@_1M@MLKIBJOJ@?$AAe?$AAn?$AA?9?$AAP?$AAH?$AA?$AA@ 00000001800278d0     libucrt:lcidtoname_downlevel.obj
 0002:000058e0       ??_C@_1M@BDNIPEND@?$AAe?$AAs?$AA?9?$AAC?$AAL?$AA?$AA@ 00000001800278e0     libucrt:lcidtoname_downlevel.obj
 0002:000058f0       ??_C@_1M@MPNMEKBD@?$AAa?$AAr?$AA?9?$AAA?$AAE?$AA?$AA@ 00000001800278f0     libucrt:lcidtoname_downlevel.obj
 0002:00005900       ??_C@_1M@KBJALCPI@?$AAe?$AAs?$AA?9?$AAU?$AAY?$AA?$AA@ 0000000180027900     libucrt:lcidtoname_downlevel.obj
 0002:00005910       ??_C@_1M@LLCCOAGA@?$AAa?$AAr?$AA?9?$AAB?$AAH?$AA?$AA@ 0000000180027910     libucrt:lcidtoname_downlevel.obj
 0002:00005920       ??_C@_1M@PBFNCDEL@?$AAe?$AAs?$AA?9?$AAP?$AAY?$AA?$AA@ 0000000180027920     libucrt:lcidtoname_downlevel.obj
 0002:00005930       ??_C@_1M@EDGINPNP@?$AAa?$AAr?$AA?9?$AAQ?$AAA?$AA?$AA@ 0000000180027930     libucrt:lcidtoname_downlevel.obj
 0002:00005940       ??_C@_1M@MKDBIIJI@?$AAe?$AAs?$AA?9?$AAB?$AAO?$AA?$AA@ 0000000180027940     libucrt:lcidtoname_downlevel.obj
 0002:00005950       ??_C@_1M@CPKKEBLD@?$AAe?$AAs?$AA?9?$AAS?$AAV?$AA?$AA@ 0000000180027950     libucrt:lcidtoname_downlevel.obj
 0002:00005960       ??_C@_1M@NDBGMMJL@?$AAe?$AAs?$AA?9?$AAH?$AAN?$AA?$AA@ 0000000180027960     libucrt:lcidtoname_downlevel.obj
 0002:00005970       ??_C@_1M@JIJIBHDP@?$AAe?$AAs?$AA?9?$AAN?$AAI?$AA?$AA@ 0000000180027970     libucrt:lcidtoname_downlevel.obj
 0002:00005980       ??_C@_1M@CGFMKEEK@?$AAe?$AAs?$AA?9?$AAP?$AAR?$AA?$AA@ 0000000180027980     libucrt:lcidtoname_downlevel.obj
 0002:00005990       ??_C@_1O@ICJHKIIK@?$AAz?$AAh?$AA?9?$AAC?$AAH?$AAT?$AA?$AA@ 0000000180027990     libucrt:lcidtoname_downlevel.obj
 0002:000059a0       ??_C@_15CLNEJCE@?$AAs?$AAr?$AA?$AA@ 00000001800279a0     libucrt:lcidtoname_downlevel.obj
 0002:000067f0       ??_C@_1M@KAHEKEIG@?$AAa?$AAf?$AA?9?$AAz?$AAa?$AA?$AA@ 00000001800287f0     libucrt:lcidtoname_downlevel.obj
 0002:00006800       ??_C@_1M@GIECOABL@?$AAa?$AAr?$AA?9?$AAa?$AAe?$AA?$AA@ 0000000180028800     libucrt:lcidtoname_downlevel.obj
 0002:00006810       ??_C@_1M@BMLMEKGI@?$AAa?$AAr?$AA?9?$AAb?$AAh?$AA?$AA@ 0000000180028810     libucrt:lcidtoname_downlevel.obj
 0002:00006820       ??_C@_1M@DAPFDGGB@?$AAa?$AAr?$AA?9?$AAd?$AAz?$AA?$AA@ 0000000180028820     libucrt:lcidtoname_downlevel.obj
 0002:00006830       ??_C@_1M@FJNKGKIG@?$AAa?$AAr?$AA?9?$AAe?$AAg?$AA?$AA@ 0000000180028830     libucrt:lcidtoname_downlevel.obj
 0002:00006840       ??_C@_1M@FLGKKCLO@?$AAa?$AAr?$AA?9?$AAi?$AAq?$AA?$AA@ 0000000180028840     libucrt:lcidtoname_downlevel.obj
 0002:00006850       ??_C@_1M@GNDIPALM@?$AAa?$AAr?$AA?9?$AAj?$AAo?$AA?$AA@ 0000000180028850     libucrt:lcidtoname_downlevel.obj
 0002:00006860       ??_C@_1M@DDMJFMGJ@?$AAa?$AAr?$AA?9?$AAk?$AAw?$AA?$AA@ 0000000180028860     libucrt:lcidtoname_downlevel.obj
 0002:00006870       ??_C@_1M@EJALMLHM@?$AAa?$AAr?$AA?9?$AAl?$AAb?$AA?$AA@ 0000000180028870     libucrt:lcidtoname_downlevel.obj
 0002:00006880       ??_C@_1M@MOBDBLOC@?$AAa?$AAr?$AA?9?$AAl?$AAy?$AA?$AA@ 0000000180028880     libucrt:lcidtoname_downlevel.obj
 0002:00006890       ??_C@_1M@JAOCLHDH@?$AAa?$AAr?$AA?9?$AAm?$AAa?$AA?$AA@ 0000000180028890     libucrt:lcidtoname_downlevel.obj
 0002:000068a0       ??_C@_1M@JHPMKJIE@?$AAa?$AAr?$AA?9?$AAo?$AAm?$AA?$AA@ 00000001800288a0     libucrt:lcidtoname_downlevel.obj
 0002:000068b0       ??_C@_1M@OEPGHFNH@?$AAa?$AAr?$AA?9?$AAq?$AAa?$AA?$AA@ 00000001800288b0     libucrt:lcidtoname_downlevel.obj
 0002:000068c0       ??_C@_1M@KJDONENM@?$AAa?$AAr?$AA?9?$AAs?$AAa?$AA?$AA@ 00000001800288c0     libucrt:lcidtoname_downlevel.obj
 0002:000068d0       ??_C@_1M@DMJDKLKM@?$AAa?$AAr?$AA?9?$AAs?$AAy?$AA?$AA@ 00000001800288d0     libucrt:lcidtoname_downlevel.obj
 0002:000068e0       ??_C@_1M@OMFIPEDC@?$AAa?$AAr?$AA?9?$AAt?$AAn?$AA?$AA@ 00000001800288e0     libucrt:lcidtoname_downlevel.obj
 0002:000068f0       ??_C@_1M@IHMHGAON@?$AAa?$AAr?$AA?9?$AAy?$AAe?$AA?$AA@ 00000001800288f0     libucrt:lcidtoname_downlevel.obj
 0002:00006900       ??_C@_1BG@KDCPGJGB@?$AAa?$AAz?$AA?9?$AAa?$AAz?$AA?9?$AAc?$AAy?$AAr?$AAl?$AA?$AA@ 0000000180028900     libucrt:lcidtoname_downlevel.obj
 0002:00006918       ??_C@_1BG@IBCKDDOE@?$AAa?$AAz?$AA?9?$AAa?$AAz?$AA?9?$AAl?$AAa?$AAt?$AAn?$AA?$AA@ 0000000180028918     libucrt:lcidtoname_downlevel.obj
 0002:00006930       ??_C@_1M@EGPFDCPD@?$AAb?$AAe?$AA?9?$AAb?$AAy?$AA?$AA@ 0000000180028930     libucrt:lcidtoname_downlevel.obj
 0002:00006940       ??_C@_1M@PCMGMCGC@?$AAb?$AAg?$AA?9?$AAb?$AAg?$AA?$AA@ 0000000180028940     libucrt:lcidtoname_downlevel.obj
 0002:00006950       ??_C@_1M@BJBMFGOB@?$AAb?$AAn?$AA?9?$AAi?$AAn?$AA?$AA@ 0000000180028950     libucrt:lcidtoname_downlevel.obj
 0002:00006960       ??_C@_1BG@EAKMMACD@?$AAb?$AAs?$AA?9?$AAb?$AAa?$AA?9?$AAl?$AAa?$AAt?$AAn?$AA?$AA@ 0000000180028960     libucrt:lcidtoname_downlevel.obj
 0002:00006978       ??_C@_1M@KGADAODK@?$AAc?$AAa?$AA?9?$AAe?$AAs?$AA?$AA@ 0000000180028978     libucrt:lcidtoname_downlevel.obj
 0002:00006988       ??_C@_1M@COAJPDHI@?$AAc?$AAs?$AA?9?$AAc?$AAz?$AA?$AA@ 0000000180028988     libucrt:lcidtoname_downlevel.obj
 0002:00006998       ??_C@_1M@DHBHFONH@?$AAc?$AAy?$AA?9?$AAg?$AAb?$AA?$AA@ 0000000180028998     libucrt:lcidtoname_downlevel.obj
 0002:000069a8       ??_C@_1M@IMGKELGA@?$AAd?$AAa?$AA?9?$AAd?$AAk?$AA?$AA@ 00000001800289a8     libucrt:lcidtoname_downlevel.obj
 0002:000069b8       ??_C@_1M@NNDGDNGA@?$AAd?$AAe?$AA?9?$AAa?$AAt?$AA?$AA@ 00000001800289b8     libucrt:lcidtoname_downlevel.obj
 0002:000069c8       ??_C@_1M@IKDBHEEM@?$AAd?$AAe?$AA?9?$AAc?$AAh?$AA?$AA@ 00000001800289c8     libucrt:lcidtoname_downlevel.obj
 0002:000069d8       ??_C@_1M@GFFOJMCJ@?$AAd?$AAe?$AA?9?$AAd?$AAe?$AA?$AA@ 00000001800289d8     libucrt:lcidtoname_downlevel.obj
 0002:000069e8       ??_C@_1M@MDNLKBPM@?$AAd?$AAe?$AA?9?$AAl?$AAi?$AA?$AA@ 00000001800289e8     libucrt:lcidtoname_downlevel.obj
 0002:000069f8       ??_C@_1M@NJBEEJNL@?$AAd?$AAe?$AA?9?$AAl?$AAu?$AA?$AA@ 00000001800289f8     libucrt:lcidtoname_downlevel.obj
 0002:00006a08       ??_C@_1O@GNNELBAP@?$AAd?$AAi?$AAv?$AA?9?$AAm?$AAv?$AA?$AA@ 0000000180028a08     libucrt:lcidtoname_downlevel.obj
 0002:00006a18       ??_C@_1M@EJLEOGAE@?$AAe?$AAl?$AA?9?$AAg?$AAr?$AA?$AA@ 0000000180028a18     libucrt:lcidtoname_downlevel.obj
 0002:00006a28       ??_C@_1M@GMPONJN@?$AAe?$AAn?$AA?9?$AAa?$AAu?$AA?$AA@ 0000000180028a28     libucrt:lcidtoname_downlevel.obj
 0002:00006a38       ??_C@_1M@NIDIIPGF@?$AAe?$AAn?$AA?9?$AAb?$AAz?$AA?$AA@ 0000000180028a38     libucrt:lcidtoname_downlevel.obj
 0002:00006a48       ??_C@_1M@JEHMIMFO@?$AAe?$AAn?$AA?9?$AAc?$AAa?$AA?$AA@ 0000000180028a48     libucrt:lcidtoname_downlevel.obj
 0002:00006a58       ??_C@_1M@IGMJCDLA@?$AAe?$AAn?$AA?9?$AAc?$AAb?$AA?$AA@ 0000000180028a58     libucrt:lcidtoname_downlevel.obj
 0002:00006a68       ??_C@_1M@BNFIGBKG@?$AAe?$AAn?$AA?9?$AAg?$AAb?$AA?$AA@ 0000000180028a68     libucrt:lcidtoname_downlevel.obj
 0002:00006a78       ??_C@_1M@LKIFDIGP@?$AAe?$AAn?$AA?9?$AAi?$AAe?$AA?$AA@ 0000000180028a78     libucrt:lcidtoname_downlevel.obj
 0002:00006a88       ??_C@_1M@PJKFGCCO@?$AAe?$AAn?$AA?9?$AAj?$AAm?$AA?$AA@ 0000000180028a88     libucrt:lcidtoname_downlevel.obj
 0002:00006a98       ??_C@_1M@KPPKEPBO@?$AAe?$AAn?$AA?9?$AAn?$AAz?$AA?$AA@ 0000000180028a98     libucrt:lcidtoname_downlevel.obj
 0002:00006aa8       ??_C@_1M@GMDGLDOB@?$AAe?$AAn?$AA?9?$AAp?$AAh?$AA?$AA@ 0000000180028aa8     libucrt:lcidtoname_downlevel.obj
 0002:00006ab8       ??_C@_1M@ONGIBJNA@?$AAe?$AAn?$AA?9?$AAt?$AAt?$AA?$AA@ 0000000180028ab8     libucrt:lcidtoname_downlevel.obj
 0002:00006ac8       ??_C@_1M@LLODPCMM@?$AAe?$AAn?$AA?9?$AAu?$AAs?$AA?$AA@ 0000000180028ac8     libucrt:lcidtoname_downlevel.obj
 0002:00006ad8       ??_C@_1M@LAKFNPAN@?$AAe?$AAn?$AA?9?$AAz?$AAa?$AA?$AA@ 0000000180028ad8     libucrt:lcidtoname_downlevel.obj
 0002:00006ae8       ??_C@_1M@MFNHNHEO@?$AAe?$AAn?$AA?9?$AAz?$AAw?$AA?$AA@ 0000000180028ae8     libucrt:lcidtoname_downlevel.obj
 0002:00006af8       ??_C@_1M@EJEINPHM@?$AAe?$AAs?$AA?9?$AAa?$AAr?$AA?$AA@ 0000000180028af8     libucrt:lcidtoname_downlevel.obj
 0002:00006b08       ??_C@_1M@GNKPCCJA@?$AAe?$AAs?$AA?9?$AAb?$AAo?$AA?$AA@ 0000000180028b08     libucrt:lcidtoname_downlevel.obj
 0002:00006b18       ??_C@_1M@LEEGFONL@?$AAe?$AAs?$AA?9?$AAc?$AAl?$AA?$AA@ 0000000180028b18     libucrt:lcidtoname_downlevel.obj
 0002:00006b28       ??_C@_1M@KGPDPBDF@?$AAe?$AAs?$AA?9?$AAc?$AAo?$AA?$AA@ 0000000180028b28     libucrt:lcidtoname_downlevel.obj
 0002:00006b38       ??_C@_1M@EIAHOHH@?$AAe?$AAs?$AA?9?$AAc?$AAr?$AA?$AA@ 0000000180028b38     libucrt:lcidtoname_downlevel.obj
 0002:00006b48       ??_C@_1M@LLPGMBIN@?$AAe?$AAs?$AA?9?$AAd?$AAo?$AA?$AA@ 0000000180028b48     libucrt:lcidtoname_downlevel.obj
 0002:00006b58       ??_C@_1M@DKHMKNJA@?$AAe?$AAs?$AA?9?$AAe?$AAc?$AA?$AA@ 0000000180028b58     libucrt:lcidtoname_downlevel.obj
 0002:00006b68       ??_C@_1M@GKGFPKAP@?$AAe?$AAs?$AA?9?$AAe?$AAs?$AA?$AA@ 0000000180028b68     libucrt:lcidtoname_downlevel.obj
 0002:00006b78       ??_C@_1M@LKHKGDLN@?$AAe?$AAs?$AA?9?$AAg?$AAt?$AA?$AA@ 0000000180028b78     libucrt:lcidtoname_downlevel.obj
 0002:00006b88       ??_C@_1M@HEIIGGJD@?$AAe?$AAs?$AA?9?$AAh?$AAn?$AA?$AA@ 0000000180028b88     libucrt:lcidtoname_downlevel.obj
 0002:00006b98       ??_C@_1M@FBDHPPGD@?$AAe?$AAs?$AA?9?$AAm?$AAx?$AA?$AA@ 0000000180028b98     libucrt:lcidtoname_downlevel.obj
 0002:00006ba8       ??_C@_1M@DPAGLNDH@?$AAe?$AAs?$AA?9?$AAn?$AAi?$AA?$AA@ 0000000180028ba8     libucrt:lcidtoname_downlevel.obj
 0002:00006bb8       ??_C@_1M@MDGOPGDD@?$AAe?$AAs?$AA?9?$AAp?$AAa?$AA?$AA@ 0000000180028bb8     libucrt:lcidtoname_downlevel.obj
 0002:00006bc8       ??_C@_1M@EMAMGBGE@?$AAe?$AAs?$AA?9?$AAp?$AAe?$AA?$AA@ 0000000180028bc8     libucrt:lcidtoname_downlevel.obj
 0002:00006bd8       ??_C@_1M@IBMCAOEC@?$AAe?$AAs?$AA?9?$AAp?$AAr?$AA?$AA@ 0000000180028bd8     libucrt:lcidtoname_downlevel.obj
 0002:00006be8       ??_C@_1M@FGMDIJED@?$AAe?$AAs?$AA?9?$AAp?$AAy?$AA?$AA@ 0000000180028be8     libucrt:lcidtoname_downlevel.obj
 0002:00006bf8       ??_C@_1M@IIDEOLLL@?$AAe?$AAs?$AA?9?$AAs?$AAv?$AA?$AA@ 0000000180028bf8     libucrt:lcidtoname_downlevel.obj
 0002:00006c08       ??_C@_1M@GAOBIPA@?$AAe?$AAs?$AA?9?$AAu?$AAy?$AA?$AA@ 0000000180028c08     libucrt:lcidtoname_downlevel.obj
 0002:00006c18       ??_C@_1M@JKFFICHJ@?$AAe?$AAs?$AA?9?$AAv?$AAe?$AA?$AA@ 0000000180028c18     libucrt:lcidtoname_downlevel.obj
 0002:00006c28       ??_C@_1M@PNMLOJDF@?$AAe?$AAt?$AA?9?$AAe?$AAe?$AA?$AA@ 0000000180028c28     libucrt:lcidtoname_downlevel.obj
 0002:00006c38       ??_C@_1M@GHHLIKEI@?$AAe?$AAu?$AA?9?$AAe?$AAs?$AA?$AA@ 0000000180028c38     libucrt:lcidtoname_downlevel.obj
 0002:00006c48       ??_C@_1M@PBNONODE@?$AAf?$AAa?$AA?9?$AAi?$AAr?$AA?$AA@ 0000000180028c48     libucrt:lcidtoname_downlevel.obj
 0002:00006c58       ??_C@_1M@JEEHPMIL@?$AAf?$AAi?$AA?9?$AAf?$AAi?$AA?$AA@ 0000000180028c58     libucrt:lcidtoname_downlevel.obj
 0002:00006c68       ??_C@_1M@LMDCNDBA@?$AAf?$AAo?$AA?9?$AAf?$AAo?$AA?$AA@ 0000000180028c68     libucrt:lcidtoname_downlevel.obj
 0002:00006c78       ??_C@_1M@JKEOHLDK@?$AAf?$AAr?$AA?9?$AAb?$AAe?$AA?$AA@ 0000000180028c78     libucrt:lcidtoname_downlevel.obj
 0002:00006c88       ??_C@_1M@NOHADPMI@?$AAf?$AAr?$AA?9?$AAc?$AAa?$AA?$AA@ 0000000180028c88     libucrt:lcidtoname_downlevel.obj
 0002:00006c98       ??_C@_1M@KDHIHAEC@?$AAf?$AAr?$AA?9?$AAc?$AAh?$AA?$AA@ 0000000180028c98     libucrt:lcidtoname_downlevel.obj
 0002:00006ca8       ??_C@_1M@MMBBFGAK@?$AAf?$AAr?$AA?9?$AAf?$AAr?$AA?$AA@ 0000000180028ca8     libucrt:lcidtoname_downlevel.obj
 0002:00006cb8       ??_C@_1M@PAFNENNF@?$AAf?$AAr?$AA?9?$AAl?$AAu?$AA?$AA@ 0000000180028cb8     libucrt:lcidtoname_downlevel.obj
 0002:00006cc8       ??_C@_1M@EOHDJGDD@?$AAf?$AAr?$AA?9?$AAm?$AAc?$AA?$AA@ 0000000180028cc8     libucrt:lcidtoname_downlevel.obj
 0002:00006cd8       ??_C@_1M@FAPLLOPF@?$AAg?$AAl?$AA?9?$AAe?$AAs?$AA?$AA@ 0000000180028cd8     libucrt:lcidtoname_downlevel.obj
 0002:00006ce8       ??_C@_1M@FOPBFLOO@?$AAg?$AAu?$AA?9?$AAi?$AAn?$AA?$AA@ 0000000180028ce8     libucrt:lcidtoname_downlevel.obj
 0002:00006cf8       ??_C@_1M@KBMCINPM@?$AAh?$AAe?$AA?9?$AAi?$AAl?$AA?$AA@ 0000000180028cf8     libucrt:lcidtoname_downlevel.obj
 0002:00006d08       ??_C@_1M@BBPHKFPJ@?$AAh?$AAi?$AA?9?$AAi?$AAn?$AA?$AA@ 0000000180028d08     libucrt:lcidtoname_downlevel.obj
 0002:00006d18       ??_C@_1M@PMBNDPHD@?$AAh?$AAr?$AA?9?$AAb?$AAa?$AA?$AA@ 0000000180028d18     libucrt:lcidtoname_downlevel.obj
 0002:00006d28       ??_C@_1M@BPCKOEGE@?$AAh?$AAr?$AA?9?$AAh?$AAr?$AA?$AA@ 0000000180028d28     libucrt:lcidtoname_downlevel.obj
 0002:00006d38       ??_C@_1M@GACBMHKE@?$AAh?$AAu?$AA?9?$AAh?$AAu?$AA?$AA@ 0000000180028d38     libucrt:lcidtoname_downlevel.obj
 0002:00006d48       ??_C@_1M@MILPAJJC@?$AAh?$AAy?$AA?9?$AAa?$AAm?$AA?$AA@ 0000000180028d48     libucrt:lcidtoname_downlevel.obj
 0002:00006d58       ??_C@_1M@BABBICEC@?$AAi?$AAd?$AA?9?$AAi?$AAd?$AA?$AA@ 0000000180028d58     libucrt:lcidtoname_downlevel.obj
 0002:00006d68       ??_C@_1M@BIKNHHPF@?$AAi?$AAs?$AA?9?$AAi?$AAs?$AA?$AA@ 0000000180028d68     libucrt:lcidtoname_downlevel.obj
 0002:00006d78       ??_C@_1M@NMPCJPHE@?$AAi?$AAt?$AA?9?$AAc?$AAh?$AA?$AA@ 0000000180028d78     libucrt:lcidtoname_downlevel.obj
 0002:00006d88       ??_C@_1M@GHKGFEDF@?$AAi?$AAt?$AA?9?$AAi?$AAt?$AA?$AA@ 0000000180028d88     libucrt:lcidtoname_downlevel.obj
 0002:00006d98       ??_C@_1M@NIEJCJJA@?$AAj?$AAa?$AA?9?$AAj?$AAp?$AA?$AA@ 0000000180028d98     libucrt:lcidtoname_downlevel.obj
 0002:00006da8       ??_C@_1M@JILFNBIM@?$AAk?$AAa?$AA?9?$AAg?$AAe?$AA?$AA@ 0000000180028da8     libucrt:lcidtoname_downlevel.obj
 0002:00006db8       ??_C@_1M@PACPMGPH@?$AAk?$AAk?$AA?9?$AAk?$AAz?$AA?$AA@ 0000000180028db8     libucrt:lcidtoname_downlevel.obj
 0002:00006dc8       ??_C@_1M@IELFGMHA@?$AAk?$AAn?$AA?9?$AAi?$AAn?$AA?$AA@ 0000000180028dc8     libucrt:lcidtoname_downlevel.obj
 0002:00006dd8       ??_C@_1O@IBBJHCH@?$AAk?$AAo?$AAk?$AA?9?$AAi?$AAn?$AA?$AA@ 0000000180028dd8     libucrt:lcidtoname_downlevel.obj
 0002:00006de8       ??_C@_1M@DMHAEOGC@?$AAk?$AAo?$AA?9?$AAk?$AAr?$AA?$AA@ 0000000180028de8     libucrt:lcidtoname_downlevel.obj
 0002:00006df8       ??_C@_1M@HBAHBIGA@?$AAk?$AAy?$AA?9?$AAk?$AAg?$AA?$AA@ 0000000180028df8     libucrt:lcidtoname_downlevel.obj
 0002:00006e08       ??_C@_1M@KPMILCJG@?$AAl?$AAt?$AA?9?$AAl?$AAt?$AA?$AA@ 0000000180028e08     libucrt:lcidtoname_downlevel.obj
 0002:00006e18       ??_C@_1M@BDEKKCA@?$AAl?$AAv?$AA?9?$AAl?$AAv?$AA?$AA@ 0000000180028e18     libucrt:lcidtoname_downlevel.obj
 0002:00006e28       ??_C@_1M@ELCKCCJJ@?$AAm?$AAi?$AA?9?$AAn?$AAz?$AA?$AA@ 0000000180028e28     libucrt:lcidtoname_downlevel.obj
 0002:00006e38       ??_C@_1M@CBOOLAPA@?$AAm?$AAk?$AA?9?$AAm?$AAk?$AA?$AA@ 0000000180028e38     libucrt:lcidtoname_downlevel.obj
 0002:00006e48       ??_C@_1M@GPHNBJKN@?$AAm?$AAl?$AA?9?$AAi?$AAn?$AA?$AA@ 0000000180028e48     libucrt:lcidtoname_downlevel.obj
 0002:00006e58       ??_C@_1M@PABJILIG@?$AAm?$AAn?$AA?9?$AAm?$AAn?$AA?$AA@ 0000000180028e58     libucrt:lcidtoname_downlevel.obj
 0002:00006e68       ??_C@_1M@FGBKKIPG@?$AAm?$AAr?$AA?9?$AAi?$AAn?$AA?$AA@ 0000000180028e68     libucrt:lcidtoname_downlevel.obj
 0002:00006e78       ??_C@_1M@NDBPDDAL@?$AAm?$AAs?$AA?9?$AAb?$AAn?$AA?$AA@ 0000000180028e78     libucrt:lcidtoname_downlevel.obj
 0002:00006e88       ??_C@_1M@OPIHOOPI@?$AAm?$AAs?$AA?9?$AAm?$AAy?$AA?$AA@ 0000000180028e88     libucrt:lcidtoname_downlevel.obj
 0002:00006e98       ??_C@_1M@PPDBCNFM@?$AAm?$AAt?$AA?9?$AAm?$AAt?$AA?$AA@ 0000000180028e98     libucrt:lcidtoname_downlevel.obj
 0002:00006ea8       ??_C@_1M@KDJDKMDD@?$AAn?$AAb?$AA?9?$AAn?$AAo?$AA?$AA@ 0000000180028ea8     libucrt:lcidtoname_downlevel.obj
 0002:00006eb8       ??_C@_1M@KFCFLMJP@?$AAn?$AAl?$AA?9?$AAb?$AAe?$AA?$AA@ 0000000180028eb8     libucrt:lcidtoname_downlevel.obj
 0002:00006ec8       ??_C@_1M@KPOPDDGO@?$AAn?$AAl?$AA?9?$AAn?$AAl?$AA?$AA@ 0000000180028ec8     libucrt:lcidtoname_downlevel.obj
 0002:00006ed8       ??_C@_1M@LJKPEMLN@?$AAn?$AAn?$AA?9?$AAn?$AAo?$AA?$AA@ 0000000180028ed8     libucrt:lcidtoname_downlevel.obj
 0002:00006ee8       ??_C@_1M@BDGHHBFL@?$AAn?$AAs?$AA?9?$AAz?$AAa?$AA?$AA@ 0000000180028ee8     libucrt:lcidtoname_downlevel.obj
 0002:00006ef8       ??_C@_1M@IDEHOAP@?$AAp?$AAa?$AA?9?$AAi?$AAn?$AA?$AA@ 0000000180028ef8     libucrt:lcidtoname_downlevel.obj
 0002:00006f08       ??_C@_1M@HDBKGOGH@?$AAp?$AAl?$AA?9?$AAp?$AAl?$AA?$AA@ 0000000180028f08     libucrt:lcidtoname_downlevel.obj
 0002:00006f18       ??_C@_1M@LJLLCMEH@?$AAp?$AAt?$AA?9?$AAb?$AAr?$AA?$AA@ 0000000180028f18     libucrt:lcidtoname_downlevel.obj
 0002:00006f28       ??_C@_1M@NCMONAAL@?$AAp?$AAt?$AA?9?$AAp?$AAt?$AA?$AA@ 0000000180028f28     libucrt:lcidtoname_downlevel.obj
 0002:00006f38       ??_C@_1O@EAKMAJDN@?$AAq?$AAu?$AAz?$AA?9?$AAb?$AAo?$AA?$AA@ 0000000180028f38     libucrt:lcidtoname_downlevel.obj
 0002:00006f48       ??_C@_1O@BHHPIGDN@?$AAq?$AAu?$AAz?$AA?9?$AAe?$AAc?$AA?$AA@ 0000000180028f48     libucrt:lcidtoname_downlevel.obj
 0002:00006f58       ??_C@_1O@GBAPEKMJ@?$AAq?$AAu?$AAz?$AA?9?$AAp?$AAe?$AA?$AA@ 0000000180028f58     libucrt:lcidtoname_downlevel.obj
 0002:00006f68       ??_C@_1M@CLGLEFBO@?$AAr?$AAo?$AA?9?$AAr?$AAo?$AA?$AA@ 0000000180028f68     libucrt:lcidtoname_downlevel.obj
 0002:00006f78       ??_C@_1M@CEEDODME@?$AAr?$AAu?$AA?9?$AAr?$AAu?$AA?$AA@ 0000000180028f78     libucrt:lcidtoname_downlevel.obj
 0002:00006f88       ??_C@_1M@HPKKKMPP@?$AAs?$AAa?$AA?9?$AAi?$AAn?$AA?$AA@ 0000000180028f88     libucrt:lcidtoname_downlevel.obj
 0002:00006f98       ??_C@_1M@BKMAIGOJ@?$AAs?$AAe?$AA?9?$AAf?$AAi?$AA?$AA@ 0000000180028f98     libucrt:lcidtoname_downlevel.obj
 0002:00006fa8       ??_C@_1M@NDPIFLFI@?$AAs?$AAe?$AA?9?$AAn?$AAo?$AA?$AA@ 0000000180028fa8     libucrt:lcidtoname_downlevel.obj
 0002:00006fb8       ??_C@_1M@DANKKHJ@?$AAs?$AAe?$AA?9?$AAs?$AAe?$AA?$AA@ 0000000180028fb8     libucrt:lcidtoname_downlevel.obj
 0002:00006fc8       ??_C@_1M@PNBLONPJ@?$AAs?$AAk?$AA?9?$AAs?$AAk?$AA?$AA@ 0000000180028fc8     libucrt:lcidtoname_downlevel.obj
 0002:00006fd8       ??_C@_1M@LFMODOAL@?$AAs?$AAl?$AA?9?$AAs?$AAi?$AA?$AA@ 0000000180028fd8     libucrt:lcidtoname_downlevel.obj
 0002:00006fe8       ??_C@_1O@DFKOMPG@?$AAs?$AAm?$AAa?$AA?9?$AAn?$AAo?$AA?$AA@ 0000000180028fe8     libucrt:lcidtoname_downlevel.obj
 0002:00006ff8       ??_C@_1O@NDKPBNNH@?$AAs?$AAm?$AAa?$AA?9?$AAs?$AAe?$AA?$AA@ 0000000180028ff8     libucrt:lcidtoname_downlevel.obj
 0002:00007008       ??_C@_1O@PLLKBHAB@?$AAs?$AAm?$AAj?$AA?9?$AAn?$AAo?$AA?$AA@ 0000000180029008     libucrt:lcidtoname_downlevel.obj
 0002:00007018       ??_C@_1O@CLEPOGCA@?$AAs?$AAm?$AAj?$AA?9?$AAs?$AAe?$AA?$AA@ 0000000180029018     libucrt:lcidtoname_downlevel.obj
 0002:00007028       ??_C@_1O@DLGJGKMK@?$AAs?$AAm?$AAn?$AA?9?$AAf?$AAi?$AA?$AA@ 0000000180029028     libucrt:lcidtoname_downlevel.obj
 0002:00007038       ??_C@_1O@OJDJGAJC@?$AAs?$AAm?$AAs?$AA?9?$AAf?$AAi?$AA?$AA@ 0000000180029038     libucrt:lcidtoname_downlevel.obj
 0002:00007048       ??_C@_1M@BOFOGHPB@?$AAs?$AAq?$AA?9?$AAa?$AAl?$AA?$AA@ 0000000180029048     libucrt:lcidtoname_downlevel.obj
 0002:00007058       ??_C@_1BG@LJBBIPGB@?$AAs?$AAr?$AA?9?$AAb?$AAa?$AA?9?$AAc?$AAy?$AAr?$AAl?$AA?$AA@ 0000000180029058     libucrt:lcidtoname_downlevel.obj
 0002:00007070       ??_C@_1BG@JLBENFOE@?$AAs?$AAr?$AA?9?$AAb?$AAa?$AA?9?$AAl?$AAa?$AAt?$AAn?$AA?$AA@ 0000000180029070     libucrt:lcidtoname_downlevel.obj
 0002:00007088       ??_C@_1BG@KODPNHE@?$AAs?$AAr?$AA?9?$AAs?$AAp?$AA?9?$AAc?$AAy?$AAr?$AAl?$AA?$AA@ 0000000180029088     libucrt:lcidtoname_downlevel.obj
 0002:000070a0       ??_C@_1BG@CIOGKHPB@?$AAs?$AAr?$AA?9?$AAs?$AAp?$AA?9?$AAl?$AAa?$AAt?$AAn?$AA?$AA@ 00000001800290a0     libucrt:lcidtoname_downlevel.obj
 0002:000070b8       ??_C@_1M@NGFJLMAC@?$AAs?$AAv?$AA?9?$AAf?$AAi?$AA?$AA@ 00000001800290b8     libucrt:lcidtoname_downlevel.obj
 0002:000070c8       ??_C@_1M@MPJEJAJC@?$AAs?$AAv?$AA?9?$AAs?$AAe?$AA?$AA@ 00000001800290c8     libucrt:lcidtoname_downlevel.obj
 0002:000070d8       ??_C@_1M@MPNDHLFK@?$AAs?$AAw?$AA?9?$AAk?$AAe?$AA?$AA@ 00000001800290d8     libucrt:lcidtoname_downlevel.obj
 0002:000070e8       ??_C@_1O@KOHBJJI@?$AAs?$AAy?$AAr?$AA?9?$AAs?$AAy?$AA?$AA@ 00000001800290e8     libucrt:lcidtoname_downlevel.obj
 0002:000070f8       ??_C@_1M@LDCEFHA@?$AAt?$AAa?$AA?9?$AAi?$AAn?$AA?$AA@ 00000001800290f8     libucrt:lcidtoname_downlevel.obj
 0002:00007108       ??_C@_1M@CNJOFAK@?$AAt?$AAe?$AA?9?$AAi?$AAn?$AA?$AA@ 0000000180029108     libucrt:lcidtoname_downlevel.obj
 0002:00007118       ??_C@_1M@GNAECACD@?$AAt?$AAh?$AA?9?$AAt?$AAh?$AA?$AA@ 0000000180029118     libucrt:lcidtoname_downlevel.obj
 0002:00007128       ??_C@_1M@CHBIHOJO@?$AAt?$AAn?$AA?9?$AAz?$AAa?$AA?$AA@ 0000000180029128     libucrt:lcidtoname_downlevel.obj
 0002:00007138       ??_C@_1M@GCCMIGPJ@?$AAt?$AAr?$AA?9?$AAt?$AAr?$AA?$AA@ 0000000180029138     libucrt:lcidtoname_downlevel.obj
 0002:00007148       ??_C@_1M@CELMCNBK@?$AAt?$AAt?$AA?9?$AAr?$AAu?$AA?$AA@ 0000000180029148     libucrt:lcidtoname_downlevel.obj
 0002:00007158       ??_C@_1M@KLMCELGA@?$AAu?$AAk?$AA?9?$AAu?$AAa?$AA?$AA@ 0000000180029158     libucrt:lcidtoname_downlevel.obj
 0002:00007168       ??_C@_1M@EPAJJAJF@?$AAu?$AAr?$AA?9?$AAp?$AAk?$AA?$AA@ 0000000180029168     libucrt:lcidtoname_downlevel.obj
 0002:00007178       ??_C@_1BG@GEGPMCDJ@?$AAu?$AAz?$AA?9?$AAu?$AAz?$AA?9?$AAc?$AAy?$AAr?$AAl?$AA?$AA@ 0000000180029178     libucrt:lcidtoname_downlevel.obj
 0002:00007190       ??_C@_1BG@EGGKJILM@?$AAu?$AAz?$AA?9?$AAu?$AAz?$AA?9?$AAl?$AAa?$AAt?$AAn?$AA?$AA@ 0000000180029190     libucrt:lcidtoname_downlevel.obj
 0002:000071a8       ??_C@_1M@GFOCLFF@?$AAv?$AAi?$AA?9?$AAv?$AAn?$AA?$AA@ 00000001800291a8     libucrt:lcidtoname_downlevel.obj
 0002:000071b8       ??_C@_1M@CPAMEDFI@?$AAx?$AAh?$AA?9?$AAz?$AAa?$AA?$AA@ 00000001800291b8     libucrt:lcidtoname_downlevel.obj
 0002:000071c8       ??_C@_1O@EBKIFIGN@?$AAz?$AAh?$AA?9?$AAc?$AAh?$AAs?$AA?$AA@ 00000001800291c8     libucrt:lcidtoname_downlevel.obj
 0002:000071d8       ??_C@_1O@NMHPGANE@?$AAz?$AAh?$AA?9?$AAc?$AAh?$AAt?$AA?$AA@ 00000001800291d8     libucrt:lcidtoname_downlevel.obj
 0002:000071e8       ??_C@_1M@LPINJOMC@?$AAz?$AAh?$AA?9?$AAc?$AAn?$AA?$AA@ 00000001800291e8     libucrt:lcidtoname_downlevel.obj
 0002:000071f8       ??_C@_1M@OCJEJODD@?$AAz?$AAh?$AA?9?$AAh?$AAk?$AA?$AA@ 00000001800291f8     libucrt:lcidtoname_downlevel.obj
 0002:00007208       ??_C@_1M@DNDLJINH@?$AAz?$AAh?$AA?9?$AAm?$AAo?$AA?$AA@ 0000000180029208     libucrt:lcidtoname_downlevel.obj
 0002:00007218       ??_C@_1M@MBFDNDND@?$AAz?$AAh?$AA?9?$AAs?$AAg?$AA?$AA@ 0000000180029218     libucrt:lcidtoname_downlevel.obj
 0002:00007228       ??_C@_1M@IMEPLEPE@?$AAz?$AAh?$AA?9?$AAt?$AAw?$AA?$AA@ 0000000180029228     libucrt:lcidtoname_downlevel.obj
 0002:00007238       ??_C@_1M@BBGHNHJP@?$AAz?$AAu?$AA?9?$AAz?$AAa?$AA?$AA@ 0000000180029238     libucrt:lcidtoname_downlevel.obj
 0002:00008090       ??_C@_15EMKDOKLE@?$AAa?$AAr?$AA?$AA@ 000000018002a090     libucrt:lcidtoname_downlevel.obj
 0002:00008098       ??_C@_15KNPADPLH@?$AAb?$AAg?$AA?$AA@ 000000018002a098     libucrt:lcidtoname_downlevel.obj
 0002:000080a0       ??_C@_15EDMHLDMO@?$AAc?$AAa?$AA?$AA@ 000000018002a0a0     libucrt:lcidtoname_downlevel.obj
 0002:000080a8       ??_C@_1O@BPEAJADD@?$AAz?$AAh?$AA?9?$AAC?$AAH?$AAS?$AA?$AA@ 000000018002a0a8     libucrt:lcidtoname_downlevel.obj
 0002:000080b8       ??_C@_15LJNHCMNK@?$AAc?$AAs?$AA?$AA@ 000000018002a0b8     libucrt:lcidtoname_downlevel.obj
 0002:000080c0       ??_C@_15FOMCIDHG@?$AAd?$AAa?$AA?$AA@ 000000018002a0c0     libucrt:lcidtoname_downlevel.obj
 0002:000080c8       ??_C@_15NBKABECB@?$AAd?$AAe?$AA?$AA@ 000000018002a0c8     libucrt:lcidtoname_downlevel.obj
 0002:000080d0       ??_C@_15GHPEIIAO@?$AAe?$AAl?$AA?$AA@ 000000018002a0d0     libucrt:lcidtoname_downlevel.obj
 0002:000080d8       ??_C@_15MNPNEAIF@?$AAe?$AAn?$AA?$AA@ 000000018002a0d8     libucrt:lcidtoname_downlevel.obj
 0002:000080e0       ??_C@_15GPIOMPMH@?$AAe?$AAs?$AA?$AA@ 000000018002a0e0     libucrt:lcidtoname_downlevel.obj
 0002:000080e8       ??_C@_15NGLOAKJC@?$AAf?$AAi?$AA?$AA@ 000000018002a0e8     libucrt:lcidtoname_downlevel.obj
 0002:000080f0       ??_C@_15FBKGNKAM@?$AAf?$AAr?$AA?$AA@ 000000018002a0f0     libucrt:lcidtoname_downlevel.obj
 0002:000080f8       ??_C@_15KGGCNEFK@?$AAh?$AAe?$AA?$AA@ 000000018002a0f8     libucrt:lcidtoname_downlevel.obj
 0002:00008100       ??_C@_15PGHLIDMF@?$AAh?$AAu?$AA?$AA@ 000000018002a100     libucrt:lcidtoname_downlevel.obj
 0002:00008108       ??_C@_15BIEMAPLM@?$AAi?$AAs?$AA?$AA@ 000000018002a108     libucrt:lcidtoname_downlevel.obj
 0002:00008110       ??_C@_15IFJLDHAF@?$AAi?$AAt?$AA?$AA@ 000000018002a110     libucrt:lcidtoname_downlevel.obj
 0002:00008118       ??_C@_15GEMIOCAG@?$AAj?$AAa?$AA?$AA@ 000000018002a118     libucrt:lcidtoname_downlevel.obj
 0002:00008120       ??_C@_15EPELEGJA@?$AAk?$AAo?$AA?$AA@ 000000018002a120     libucrt:lcidtoname_downlevel.obj
 0002:00008128       ??_C@_15NDDHIMN@?$AAn?$AAl?$AA?$AA@ 000000018002a128     libucrt:lcidtoname_downlevel.obj
 0002:00008130       ??_C@_15BPIGNHCD@?$AAn?$AAo?$AA?$AA@ 000000018002a130     libucrt:lcidtoname_downlevel.obj
 0002:00008138       ??_C@_15DEOPBLCG@?$AAp?$AAl?$AA?$AA@ 000000018002a138     libucrt:lcidtoname_downlevel.obj
 0002:00008140       ??_C@_15KBECGEFG@?$AAp?$AAt?$AA?$AA@ 000000018002a140     libucrt:lcidtoname_downlevel.obj
 0002:00008148       ??_C@_15GLJCBFMD@?$AAr?$AAo?$AA?$AA@ 000000018002a148     libucrt:lcidtoname_downlevel.obj
 0002:00008150       ??_C@_15FEDGKCDI@?$AAr?$AAu?$AA?$AA@ 000000018002a150     libucrt:lcidtoname_downlevel.obj
 0002:00008158       ??_C@_15GLKMLLHM@?$AAh?$AAr?$AA?$AA@ 000000018002a158     libucrt:lcidtoname_downlevel.obj
 0002:00008160       ??_C@_15CPKMFBDB@?$AAs?$AAk?$AA?$AA@ 000000018002a160     libucrt:lcidtoname_downlevel.obj
 0002:00008168       ??_C@_15BAAIOGMK@?$AAs?$AAq?$AA?$AA@ 000000018002a168     libucrt:lcidtoname_downlevel.obj
 0002:00008170       ??_C@_15INNPNOHD@?$AAs?$AAv?$AA?$AA@ 000000018002a170     libucrt:lcidtoname_downlevel.obj
 0002:00008178       ??_C@_15CABMMOGH@?$AAt?$AAh?$AA?$AA@ 000000018002a178     libucrt:lcidtoname_downlevel.obj
 0002:00008180       ??_C@_15BPLIHJJM@?$AAt?$AAr?$AA?$AA@ 000000018002a180     libucrt:lcidtoname_downlevel.obj
 0002:00008188       ??_C@_15NEOEKKDJ@?$AAu?$AAr?$AA?$AA@ 000000018002a188     libucrt:lcidtoname_downlevel.obj
 0002:00008190       ??_C@_15NFICGAJK@?$AAi?$AAd?$AA?$AA@ 000000018002a190     libucrt:lcidtoname_downlevel.obj
 0002:00008198       ??_C@_15PJPFLCCM@?$AAu?$AAk?$AA?$AA@ 000000018002a198     libucrt:lcidtoname_downlevel.obj
 0002:000081a0       ??_C@_15HPJPHDM@?$AAb?$AAe?$AA?$AA@ 000000018002a1a0     libucrt:lcidtoname_downlevel.obj
 0002:000081a8       ??_C@_15LCHLGJII@?$AAs?$AAl?$AA?$AA@ 000000018002a1a8     libucrt:lcidtoname_downlevel.obj
 0002:000081b0       ??_C@_15PCFJPHHO@?$AAe?$AAt?$AA?$AA@ 000000018002a1b0     libucrt:lcidtoname_downlevel.obj
 0002:000081b8       ??_C@_15HPFPGODN@?$AAl?$AAv?$AA?$AA@ 000000018002a1b8     libucrt:lcidtoname_downlevel.obj
 0002:000081c0       ??_C@_15NFFGKGLG@?$AAl?$AAt?$AA?$AA@ 000000018002a1c0     libucrt:lcidtoname_downlevel.obj
 0002:000081c8       ??_C@_15BDAKCCHN@?$AAf?$AAa?$AA?$AA@ 000000018002a1c8     libucrt:lcidtoname_downlevel.obj
 0002:000081d0       ??_C@_15NFGIAIAJ@?$AAv?$AAi?$AA?$AA@ 000000018002a1d0     libucrt:lcidtoname_downlevel.obj
 0002:000081d8       ??_C@_15LMKNDMHN@?$AAh?$AAy?$AA?$AA@ 000000018002a1d8     libucrt:lcidtoname_downlevel.obj
 0002:000081e0       ??_C@_15IJBHMCFL@?$AAa?$AAz?$AA?$AA@ 000000018002a1e0     libucrt:lcidtoname_downlevel.obj
 0002:000081e8       ??_C@_15EKOFJABL@?$AAe?$AAu?$AA?$AA@ 000000018002a1e8     libucrt:lcidtoname_downlevel.obj
 0002:000081f0       ??_C@_15BGHADCNK@?$AAm?$AAk?$AA?$AA@ 000000018002a1f0     libucrt:lcidtoname_downlevel.obj
 0002:000081f8       ??_C@_15JDNICKHM@?$AAa?$AAf?$AA?$AA@ 000000018002a1f8     libucrt:lcidtoname_downlevel.obj
 0002:00008200       ??_C@_15KPJEDBKD@?$AAk?$AAa?$AA?$AA@ 000000018002a200     libucrt:lcidtoname_downlevel.obj
 0002:00008208       ??_C@_15PDNFFFEO@?$AAf?$AAo?$AA?$AA@ 000000018002a208     libucrt:lcidtoname_downlevel.obj
 0002:00008210       ??_C@_15OMLEGLOC@?$AAh?$AAi?$AA?$AA@ 000000018002a210     libucrt:lcidtoname_downlevel.obj
 0002:00008218       ??_C@_15IDNNENKK@?$AAm?$AAs?$AA?$AA@ 000000018002a218     libucrt:lcidtoname_downlevel.obj
 0002:00008220       ??_C@_15MACJNBMH@?$AAk?$AAk?$AA?$AA@ 000000018002a220     libucrt:lcidtoname_downlevel.obj
 0002:00008228       ??_C@_15DKDJEOND@?$AAk?$AAy?$AA?$AA@ 000000018002a228     libucrt:lcidtoname_downlevel.obj
 0002:00008230       ??_C@_15DFGDLJBG@?$AAs?$AAw?$AA?$AA@ 000000018002a230     libucrt:lcidtoname_downlevel.obj
 0002:00008238       ??_C@_15BBFAICNG@?$AAu?$AAz?$AA?$AA@ 000000018002a238     libucrt:lcidtoname_downlevel.obj
 0002:00008240       ??_C@_15DKNDCGEA@?$AAt?$AAt?$AA?$AA@ 000000018002a240     libucrt:lcidtoname_downlevel.obj
 0002:00008248       ??_C@_15MGIFMDPL@?$AAp?$AAa?$AA?$AA@ 000000018002a248     libucrt:lcidtoname_downlevel.obj
 0002:00008250       ??_C@_15HCNDBBA@?$AAg?$AAu?$AA?$AA@ 000000018002a250     libucrt:lcidtoname_downlevel.obj
 0002:00008258       ??_C@_15FNBEIBON@?$AAt?$AAa?$AA?$AA@ 000000018002a258     libucrt:lcidtoname_downlevel.obj
 0002:00008260       ??_C@_15NCHGBGLK@?$AAt?$AAe?$AA?$AA@ 000000018002a260     libucrt:lcidtoname_downlevel.obj
 0002:00008268       ??_C@_15PHPHCBPF@?$AAk?$AAn?$AA?$AA@ 000000018002a268     libucrt:lcidtoname_downlevel.obj
 0002:00008270       ??_C@_15DLGBCKMP@?$AAm?$AAr?$AA?$AA@ 000000018002a270     libucrt:lcidtoname_downlevel.obj
 0002:00008278       ??_C@_15EABBLBFF@?$AAs?$AAa?$AA?$AA@ 000000018002a278     libucrt:lcidtoname_downlevel.obj
 0002:00008280       ??_C@_15CBKOMCOI@?$AAm?$AAn?$AA?$AA@ 000000018002a280     libucrt:lcidtoname_downlevel.obj
 0002:00008288       ??_C@_15CKDMCJAF@?$AAg?$AAl?$AA?$AA@ 000000018002a288     libucrt:lcidtoname_downlevel.obj
 0002:00008290       ??_C@_17CNJFBPG@?$AAk?$AAo?$AAk?$AA?$AA@ 000000018002a290     libucrt:lcidtoname_downlevel.obj
 0002:00008298       ??_C@_17FFBJICPL@?$AAs?$AAy?$AAr?$AA?$AA@ 000000018002a298     libucrt:lcidtoname_downlevel.obj
 0002:000082a0       ??_C@_17KPNDCPAF@?$AAd?$AAi?$AAv?$AA?$AA@ 000000018002a2a0     libucrt:lcidtoname_downlevel.obj
 0002:000082a8       ??_C@_11LOCGONAA@?$AA?$AA@ 000000018002a2a8     libucrt:lcidtoname_downlevel.obj
 0002:000082b0       ??_C@_1M@OKAHONE@?$AAa?$AAr?$AA?9?$AAS?$AAA?$AA?$AA@ 000000018002a2b0     libucrt:lcidtoname_downlevel.obj
 0002:000082c0       ??_C@_1M@FFFIGIGK@?$AAb?$AAg?$AA?9?$AAB?$AAG?$AA?$AA@ 000000018002a2c0     libucrt:lcidtoname_downlevel.obj
 0002:000082d0       ??_C@_1M@BJNKEDC@?$AAc?$AAa?$AA?9?$AAE?$AAS?$AA?$AA@ 000000018002a2d0     libucrt:lcidtoname_downlevel.obj
 0002:000082e0       ??_C@_1M@IJJHFJHA@?$AAc?$AAs?$AA?9?$AAC?$AAZ?$AA?$AA@ 000000018002a2e0     libucrt:lcidtoname_downlevel.obj
 0002:000082f0       ??_C@_1M@CLPEOBGI@?$AAd?$AAa?$AA?9?$AAD?$AAK?$AA?$AA@ 000000018002a2f0     libucrt:lcidtoname_downlevel.obj
 0002:00008300       ??_C@_1M@MCMADGCB@?$AAd?$AAe?$AA?9?$AAD?$AAE?$AA?$AA@ 000000018002a300     libucrt:lcidtoname_downlevel.obj
 0002:00008310       ??_C@_1M@OOCKEMAM@?$AAe?$AAl?$AA?9?$AAG?$AAR?$AA?$AA@ 000000018002a310     libucrt:lcidtoname_downlevel.obj
 0002:00008320       ??_C@_1M@DDNJFGID@?$AAf?$AAi?$AA?9?$AAF?$AAI?$AA?$AA@ 000000018002a320     libucrt:lcidtoname_downlevel.obj
 0002:00008330       ??_C@_1M@GLIPPMAC@?$AAf?$AAr?$AA?9?$AAF?$AAR?$AA?$AA@ 000000018002a330     libucrt:lcidtoname_downlevel.obj
 0002:00008340       ??_C@_1M@GFMCHPE@?$AAh?$AAe?$AA?9?$AAI?$AAL?$AA?$AA@ 000000018002a340     libucrt:lcidtoname_downlevel.obj
 0002:00008350       ??_C@_1M@MHLPGNKM@?$AAh?$AAu?$AA?9?$AAH?$AAU?$AA?$AA@ 000000018002a350     libucrt:lcidtoname_downlevel.obj
 0002:00008360       ??_C@_1M@LPDDNNPN@?$AAi?$AAs?$AA?9?$AAI?$AAS?$AA?$AA@ 000000018002a360     libucrt:lcidtoname_downlevel.obj
 0002:00008370       ??_C@_1M@MADIPODN@?$AAi?$AAt?$AA?9?$AAI?$AAT?$AA?$AA@ 000000018002a370     libucrt:lcidtoname_downlevel.obj
 0002:00008380       ??_C@_1M@IHBJJGG@?$AAn?$AAl?$AA?9?$AAN?$AAL?$AA?$AA@ 000000018002a380     libucrt:lcidtoname_downlevel.obj
 0002:00008390       ??_C@_1M@EANAGDL@?$AAn?$AAb?$AA?9?$AAN?$AAO?$AA?$AA@ 000000018002a390     libucrt:lcidtoname_downlevel.obj
 0002:000083a0       ??_C@_1M@NEIEMEGP@?$AAp?$AAl?$AA?9?$AAP?$AAL?$AA?$AA@ 000000018002a3a0     libucrt:lcidtoname_downlevel.obj
 0002:000083b0       ??_C@_1M@BOCFIGEP@?$AAp?$AAt?$AA?9?$AAB?$AAR?$AA?$AA@ 000000018002a3b0     libucrt:lcidtoname_downlevel.obj
 0002:000083c0       ??_C@_1M@IMPFOPBG@?$AAr?$AAo?$AA?9?$AAR?$AAO?$AA?$AA@ 000000018002a3c0     libucrt:lcidtoname_downlevel.obj
 0002:000083d0       ??_C@_1M@IDNNEJMM@?$AAr?$AAu?$AA?9?$AAR?$AAU?$AA?$AA@ 000000018002a3d0     libucrt:lcidtoname_downlevel.obj
 0002:000083e0       ??_C@_1M@LILEEOGM@?$AAh?$AAr?$AA?9?$AAH?$AAR?$AA?$AA@ 000000018002a3e0     libucrt:lcidtoname_downlevel.obj
 0002:000083f0       ??_C@_1M@FKIFEHPB@?$AAs?$AAk?$AA?9?$AAS?$AAK?$AA?$AA@ 000000018002a3f0     libucrt:lcidtoname_downlevel.obj
 0002:00008400       ??_C@_1M@LJMAMNPJ@?$AAs?$AAq?$AA?9?$AAA?$AAL?$AA?$AA@ 000000018002a400     libucrt:lcidtoname_downlevel.obj
 0002:00008410       ??_C@_1M@GIAKDKJK@?$AAs?$AAv?$AA?9?$AAS?$AAE?$AA?$AA@ 000000018002a410     libucrt:lcidtoname_downlevel.obj
 0002:00008420       ??_C@_1M@MKJKIKCL@?$AAt?$AAh?$AA?9?$AAT?$AAH?$AA?$AA@ 000000018002a420     libucrt:lcidtoname_downlevel.obj
 0002:00008430       ??_C@_1M@MFLCCMPB@?$AAt?$AAr?$AA?9?$AAT?$AAR?$AA?$AA@ 000000018002a430     libucrt:lcidtoname_downlevel.obj
 0002:00008440       ??_C@_1M@OIJHDKJN@?$AAu?$AAr?$AA?9?$AAP?$AAK?$AA?$AA@ 000000018002a440     libucrt:lcidtoname_downlevel.obj
 0002:00008450       ??_C@_1M@LHIPCIEK@?$AAi?$AAd?$AA?9?$AAI?$AAD?$AA?$AA@ 000000018002a450     libucrt:lcidtoname_downlevel.obj
 0002:00008460       ??_C@_1M@MFMOBGI@?$AAu?$AAk?$AA?9?$AAU?$AAA?$AA?$AA@ 000000018002a460     libucrt:lcidtoname_downlevel.obj
 0002:00008470       ??_C@_1M@OBGLJIPL@?$AAb?$AAe?$AA?9?$AAB?$AAY?$AA?$AA@ 000000018002a470     libucrt:lcidtoname_downlevel.obj
 0002:00008480       ??_C@_1M@BCFAJEAD@?$AAs?$AAl?$AA?9?$AAS?$AAI?$AA?$AA@ 000000018002a480     libucrt:lcidtoname_downlevel.obj
 0002:00008490       ??_C@_1M@FKFFEDDN@?$AAe?$AAt?$AA?9?$AAE?$AAE?$AA?$AA@ 000000018002a490     libucrt:lcidtoname_downlevel.obj
 0002:000084a0       ??_C@_1M@KGKKAACI@?$AAl?$AAv?$AA?9?$AAL?$AAV?$AA?$AA@ 000000018002a4a0     libucrt:lcidtoname_downlevel.obj
 0002:000084b0       ??_C@_1M@IFGBIJO@?$AAl?$AAt?$AA?9?$AAL?$AAT?$AA?$AA@ 000000018002a4b0     libucrt:lcidtoname_downlevel.obj
 0002:000084c0       ??_C@_1M@FGEAHEDM@?$AAf?$AAa?$AA?9?$AAI?$AAR?$AA?$AA@ 000000018002a4c0     libucrt:lcidtoname_downlevel.obj
 0002:000084d0       ??_C@_1M@KBMAIBFN@?$AAv?$AAi?$AA?9?$AAV?$AAN?$AA?$AA@ 000000018002a4d0     libucrt:lcidtoname_downlevel.obj
 0002:000084e0       ?large_power_data@?1??multiply_by_power_of_ten@__crt_strtox@@YA_NAEAUbig_integer@2@I@Z@4QBIB 000000018002a4e0     libucrt:cfout.obj
 0002:00008df0       ?large_power_indices@?1??multiply_by_power_of_ten@__crt_strtox@@YA_NAEAUbig_integer@2@I@Z@4QBUunpack_index@?1??12@YA_N0I@Z@B 000000018002adf0     libucrt:cfout.obj
 0002:00008e88       ?small_powers_of_ten@?1??multiply_by_power_of_ten@__crt_strtox@@YA_NAEAUbig_integer@2@I@Z@4QBIB 000000018002ae88     libucrt:cfout.obj
 0002:00008eac       ??_C@_01GBGANLPD@0?$AA@    000000018002aeac     libucrt:cfout.obj
 0002:00008eb0       ??_C@_05DNEBIAHO@1?$CDINF?$AA@ 000000018002aeb0     libucrt:cfout.obj
 0002:00008eb8       ??_C@_06IMKFLFPG@1?$CDQNAN?$AA@ 000000018002aeb8     libucrt:cfout.obj
 0002:00008ec0       ??_C@_06PGGFOGJG@1?$CDSNAN?$AA@ 000000018002aec0     libucrt:cfout.obj
 0002:00008ec8       ??_C@_05PHHOCPM@1?$CDIND?$AA@ 000000018002aec8     libucrt:cfout.obj
 0002:00008ed0       __real@3ff0000000000000    000000018002aed0     libucrt:ceil.obj
 0002:00009130       __log10_256_lead           000000018002b130     libucrt:log10_256_lead_tail_table.obj
 0002:00009940       __log10_256_tail           000000018002b940     libucrt:log10_256_lead_tail_table.obj
 0002:0000a150       __log_F_inv_qword          000000018002c150     libucrt:log_f_inv_qword_table.obj
 0002:0000a960       ??_C@_05HGHHAHAP@log10?$AA@ 000000018002c960     libucrt:log_special.obj
 0002:0000a980       ??_C@_1BA@BALFACEM@?$AAC?$AAO?$AAN?$AAO?$AAU?$AAT?$AA$?$AA?$AA@ 000000018002c980     libucrt:initcon.obj
 0002:0000a9f0       _load_config_used          000000018002c9f0     LIBCMT:loadcfg.obj
 0002:0000aaf0       _tls_used                  000000018002caf0     LIBCMT:tlssup.obj
 0002:0000ab18       ??_R4exception@std@@6B@    000000018002cb18     LIBCMT:throw_bad_alloc.obj
 0002:0000ab40       ??_R3exception@std@@8      000000018002cb40     LIBCMT:throw_bad_alloc.obj
 0002:0000ab58       ??_R2exception@std@@8      000000018002cb58     LIBCMT:throw_bad_alloc.obj
 0002:0000ab68       ??_R1A@?0A@EA@exception@std@@8 000000018002cb68     LIBCMT:throw_bad_alloc.obj
 0002:0000ab90       ??_R4bad_alloc@std@@6B@    000000018002cb90     LIBCMT:throw_bad_alloc.obj
 0002:0000abb8       ??_R3bad_alloc@std@@8      000000018002cbb8     LIBCMT:throw_bad_alloc.obj
 0002:0000abd0       ??_R2bad_alloc@std@@8      000000018002cbd0     LIBCMT:throw_bad_alloc.obj
 0002:0000abe8       ??_R1A@?0A@EA@bad_alloc@std@@8 000000018002cbe8     LIBCMT:throw_bad_alloc.obj
 0002:0000ac10       ??_R4bad_array_new_length@std@@6B@ 000000018002cc10     LIBCMT:throw_bad_alloc.obj
 0002:0000ac38       ??_R3bad_array_new_length@std@@8 000000018002cc38     LIBCMT:throw_bad_alloc.obj
 0002:0000ac50       ??_R2bad_array_new_length@std@@8 000000018002cc50     LIBCMT:throw_bad_alloc.obj
 0002:0000ac70       ??_R1A@?0A@EA@bad_array_new_length@std@@8 000000018002cc70     LIBCMT:throw_bad_alloc.obj
 0002:0000ac98       ??_R4type_info@@6B@        000000018002cc98     LIBCMT:std_type_info_static.obj
 0002:0000acc0       ??_R3type_info@@8          000000018002ccc0     LIBCMT:std_type_info_static.obj
 0002:0000acd8       ??_R2type_info@@8          000000018002ccd8     LIBCMT:std_type_info_static.obj
 0002:0000ace8       ??_R1A@?0A@EA@type_info@@8 000000018002cce8     LIBCMT:std_type_info_static.obj
 0002:0000ad10       ??_R4bad_exception@std@@6B@ 000000018002cd10     libvcruntime:frame.obj
 0002:0000ad38       ??_R3bad_exception@std@@8  000000018002cd38     libvcruntime:frame.obj
 0002:0000ad50       ??_R2bad_exception@std@@8  000000018002cd50     libvcruntime:frame.obj
 0002:0000ad68       ??_R1A@?0A@EA@bad_exception@std@@8 000000018002cd68     libvcruntime:frame.obj
 0002:0000b190       __rtc_iaa                  000000018002d190     LIBCMT:_initsect_.obj
 0002:0000b198       __rtc_izz                  000000018002d198     LIBCMT:_initsect_.obj
 0002:0000b1a0       __rtc_taa                  000000018002d1a0     LIBCMT:_initsect_.obj
 0002:0000b1a8       __rtc_tzz                  000000018002d1a8     LIBCMT:_initsect_.obj
 0002:0000b1b0       _tls_start                 000000018002d1b0     LIBCMT:tlssup.obj
 0002:0000b1b4       _Init_thread_epoch         000000018002d1b4     LIBCMT:thread_safe_statics.obj
 0002:0000b1b8       _tls_end                   000000018002d1b8     LIBCMT:tlssup.obj
 0002:0000c8c8       _TI2?AVbad_alloc@std@@     000000018002e8c8     LIBCMT:throw_bad_alloc.obj
 0002:0000c8e8       _CTA2?AVbad_alloc@std@@    000000018002e8e8     LIBCMT:throw_bad_alloc.obj
 0002:0000c900       _CT??_R0?AVbad_alloc@std@@@8??0bad_alloc@std@@QEAA@AEBV01@@Z24 000000018002e900     LIBCMT:throw_bad_alloc.obj
 0002:0000c928       _CT??_R0?AVexception@std@@@8??0exception@std@@QEAA@AEBV01@@Z24 000000018002e928     LIBCMT:throw_bad_alloc.obj
 0002:0000c950       _TI3?AVbad_array_new_length@std@@ 000000018002e950     LIBCMT:throw_bad_alloc.obj
 0002:0000c970       _CTA3?AVbad_array_new_length@std@@ 000000018002e970     LIBCMT:throw_bad_alloc.obj
 0002:0000c990       _CT??_R0?AVbad_array_new_length@std@@@8??0bad_array_new_length@std@@QEAA@AEBV01@@Z24 000000018002e990     LIBCMT:throw_bad_alloc.obj
 0002:0000c9b8       _TI2?AVbad_exception@std@@ 000000018002e9b8     libvcruntime:frame.obj
 0002:0000c9d8       _CTA2?AVbad_exception@std@@ 000000018002e9d8     libvcruntime:frame.obj
 0002:0000c9f0       _CT??_R0?AVbad_exception@std@@@8??0bad_exception@std@@QEAA@AEBV01@@Z24 000000018002e9f0     libvcruntime:frame.obj
 0002:0000ca18       __pobjMapEntryFirst        000000018002ea18     OposVariant.obj
 0002:0000ca20       __pobjMapEntryLast         000000018002ea20     OposVariant.obj
 0002:0000cae4       __IMPORT_DESCRIPTOR_KERNEL32 000000018002eae4     kernel32:KERNEL32.dll
 0002:0000caf8       __IMPORT_DESCRIPTOR_USER32 000000018002eaf8     user32:USER32.dll
 0002:0000cb0c       __IMPORT_DESCRIPTOR_GDI32  000000018002eb0c     gdi32:GDI32.dll
 0002:0000cb20       __IMPORT_DESCRIPTOR_ADVAPI32 000000018002eb20     advapi32:ADVAPI32.dll
 0002:0000cb34       __IMPORT_DESCRIPTOR_ole32  000000018002eb34     ole32:ole32.dll
 0002:0000cb48       __IMPORT_DESCRIPTOR_OLEAUT32 000000018002eb48     oleaut32:OLEAUT32.dll
 0002:0000cb5c       __NULL_IMPORT_DESCRIPTOR   000000018002eb5c     kernel32:KERNEL32.dll
 0003:00000000       ?vszContents@?6??Save@?$IPersistStorageImpl@VCOPOSElectronicJournal@@@ATL@@UEAAJPEAUIStorage@@H@Z@4PEB_WEB 0000000180030000     ElectronicJournal.obj
 0003:00000010       ?wc@?1??GetWndClassInfo@?$CWindowImpl@VCOPOSElectronicJournal@@VCWindow@ATL@@V?$CWinTraits@$0FGAAAAAA@$0A@@3@@ATL@@SAAEAU_ATL_WNDCLASSINFOW@3@XZ@4U43@A 0000000180030010     ElectronicJournal.obj
 0003:00000108       ?rcDefault@CWindow@ATL@@2UtagRECT@@A 0000000180030108     ElectronicJournal.obj
 0003:00000118       ?s_Claim@?7??GetIDsOfNames@CComTypeInfoHolder@ATL@@QEAAJAEBU_GUID@@PEAPEA_WIKPEAJ@Z@4PA_WA 0000000180030118     ElectronicJournal.obj
 0003:00000130       ?s_Release@?7??GetIDsOfNames@CComTypeInfoHolder@ATL@@QEAAJAEBU_GUID@@PEAPEA_WIKPEAJ@Z@4PA_WA 0000000180030130     ElectronicJournal.obj
 0003:00000150       ?_tih@?$IDispatchImpl@UIOPOSElectronicJournal@@$1?IID_IOPOSElectronicJournal@@3U_GUID@@B$1?LIBID_OposElectronicJournal_CCO@@3U3@B$00$0A@VCComTypeInfoHolder@ATL@@@ATL@@1VCComTypeInfoHolder@2@A 0000000180030150     ElectronicJournal.obj
 0003:00000188       ?_tih@?$IProvideClassInfo2Impl@$1?CLSID_OPOSElectronicJournal@@3U_GUID@@B$1?DIID__IOPOSElectronicJournalEvents@@3U2@B$1?LIBID_OposElectronicJournal_CCO@@3U2@B$00$0A@VCComTypeInfoHolder@ATL@@@ATL@@1VCComTypeInfoHolder@2@A 0000000180030188     ElectronicJournal.obj
 0003:00000250       ?g_ControlVersion@@3JA     0000000180030250     ElectronicJournalImpl.obj
 0003:00000258       ?g_WindowName@@3PA_WA      0000000180030258     ElectronicJournalImpl.obj
 0003:00000290       ?g_ControlDescription@@3PADA 0000000180030290     ElectronicJournalImpl.obj
 0003:000003fc       __scrt_native_dllmain_reason 00000001800303fc     LIBCMT:utility.obj
 0003:00000400       _Init_global_epoch         0000000180030400     LIBCMT:thread_safe_statics.obj
 0003:00000410       __security_cookie_complement 0000000180030410     LIBCMT:gs_cookie.obj
 0003:00000418       __security_cookie          0000000180030418     LIBCMT:gs_cookie.obj
 0003:00000420       __isa_available            0000000180030420     LIBCMT:_cpu_disp_.obj
 0003:00000424       __isa_enabled              0000000180030424     LIBCMT:_cpu_disp_.obj
 0003:00000428       __memcpy_nt_iters          0000000180030428     LIBCMT:_cpu_disp_.obj
 0003:00000448       __abort_behavior           0000000180030448     libucrt:abort.obj
 0003:00000460       _iob                       0000000180030460     libucrt:_file.obj
 0003:00000570       __acrt_initial_locale_data 0000000180030570     libucrt:nlsdata.obj
 0003:000006c8       __acrt_initial_locale_pointers 00000001800306c8     libucrt:nlsdata.obj
 0003:000006d8       __acrt_wide_c_locale_string 00000001800306d8     libucrt:nlsdata.obj
 0003:000006e0       __acrt_initial_multibyte_data 00000001800306e0     libucrt:mbctype.obj
 0003:00000c20       _pwctype                   0000000180030c20     libucrt:ctype.obj
 0003:00000c28       __globallocalestatus       0000000180030c28     libucrt:glstatus.obj
 0003:00000c30       __acrt_lconv_c             0000000180030c30     libucrt:localeconv.obj
 0003:00000cc8       __acrt_lconv_static_decimal 0000000180030cc8     libucrt:localeconv.obj
 0003:00000ccc       __acrt_lconv_static_W_decimal 0000000180030ccc     libucrt:localeconv.obj
 0003:00000ce8       __dcrt_lowio_console_output_handle 0000000180030ce8     libucrt:initcon.obj
 0003:00000cf0       _fltused                   0000000180030cf0     LIBCMT:fltused.obj
 0003:00000cf8       ??_R0?AVbad_alloc@std@@@8  0000000180030cf8     LIBCMT:throw_bad_alloc.obj
 0003:00000d20       ??_R0?AVexception@std@@@8  0000000180030d20     LIBCMT:throw_bad_alloc.obj
 0003:00000d48       ??_R0?AVbad_array_new_length@std@@@8 0000000180030d48     LIBCMT:throw_bad_alloc.obj
 0003:00000d78       ??_R0?AVtype_info@@@8      0000000180030d78     LIBCMT:std_type_info_static.obj
 0003:00000d98       ??_R0?AVbad_exception@std@@@8 0000000180030d98     libvcruntime:frame.obj
 0003:00000dc0       ?m_bInitFailed@CAtlBaseModule@ATL@@2_NA 0000000180030dc0     OposVariant.obj
 0003:00000dc8       ?_pPerfRegFunc@ATL@@3P6AJPEAUHINSTANCE__@@@ZEA 0000000180030dc8     OposVariant.obj
 0003:00000dd0       ?_pPerfUnRegFunc@ATL@@3P6AJXZEA 0000000180030dd0     OposVariant.obj
 0003:00000dd8       ?_AtlRegisterPerUser@ATL@@3_NA 0000000180030dd8     OposVariant.obj
 0003:00000de0       ?_pAtlModule@ATL@@3PEAVCAtlModule@1@EA 0000000180030de0     OposVariant.obj
 0003:00000de8       ?_pModule@ATL@@3PEAVCComModule@1@EA 0000000180030de8     OposVariant.obj
 0003:00000df0       ?_AtlComModule@ATL@@3VCAtlComModule@1@A 0000000180030df0     OposVariant.obj
 0003:00000e40       ?_AtlWinModule@ATL@@3VCAtlWinModule@1@A 0000000180030e40     OposVariant.obj
 0003:00000e88       ?_entries@?1??GetConnMap@COPOSElectronicJournal@@SAPEBU_ATL_CONNMAP_ENTRY@ATL@@PEAH@Z@4QBU34@B 0000000180030e88     ElectronicJournal.obj
 0003:00000ea0       ?$TSS0@?1??GetConnMap@COPOSElectronicJournal@@SAPEBU_ATL_CONNMAP_ENTRY@ATL@@PEAH@Z@4HA 0000000180030ea0     ElectronicJournal.obj
 0003:00000ea8       ?_OptionsStorage@?1??__local_stdio_printf_options@@9@4_KA 0000000180030ea8     ElectronicJournal.obj
 0003:00000eb0       ?m_libid@CAtlModule@ATL@@2U_GUID@@A 0000000180030eb0     ElectronicJournal.obj
 0003:00000ec0       ?_Module@@3VCComModule@ATL@@A 0000000180030ec0     ElectronicJournal.obj
 0003:00000f10       ?pConnMap@?$IConnectionPointContainerImpl@VCOPOSElectronicJournal@@@ATL@@0PEBU_ATL_CONNMAP_ENTRY@2@EB 0000000180030f10     ElectronicJournal.obj
 0003:00000f18       ?s_nInstances@COPOSElectronicJournal@@1HA 0000000180030f18     ElectronicJournalImpl.obj
 0003:00000f20       __scrt_current_native_startup_state 0000000180030f20     LIBCMT:utility.obj
 0003:00000f28       __scrt_native_startup_lock 0000000180030f28     LIBCMT:utility.obj
 0003:00001520       _tls_index                 0000000180031520     LIBCMT:tlssup.obj
 0003:00001528       __favor                    0000000180031528     LIBCMT:_cpu_disp_.obj
 0003:0000152c       __scrt_debugger_hook_flag  000000018003152c     LIBCMT:utility_desktop.obj
 0003:00001530       ?__type_info_root_node@@3U__type_info_node@@A 0000000180031530     LIBCMT:tncleanup.obj
 0003:00001540       ?_OptionsStorage@?1??__local_stdio_scanf_options@@9@4_KA 0000000180031540     LIBCMT:default_local_stdio_options.obj
 0003:00001550       ?_AtlBaseModule@ATL@@3VCAtlBaseModule@1@A 0000000180031550     atls:atlbase.obj
 0003:000015b0       ?__AtlThunkPool@@3PEAT_SLIST_HEADER@@EA 00000001800315b0     atls:atlthunk.obj
 0003:000015dc       __@@_PchSym_@00@UyrmzirvhUrmgvinvwrzgvUexgllohUzgohOmzgrevkilqPBACIAJCBDBUlyqiUznwGEUhgwzucOlyq@4B2008FD98C1DD4 00000001800315dc     atls:stdafx.obj
 0003:000015e0       ?__WinRTOutOfMemoryExceptionCallback@@3P6APEAXXZEA 00000001800315e0     libvcruntime:ehhelpers.obj
 0003:000015e8       __pPurecall                00000001800315e8     libvcruntime:purevirt_data.obj
 0003:000016f0       ?pArgList@UnDecorator@@0PEAVReplicator@@EA 00000001800316f0     libvcruntime:undname.obj
 0003:000016f8       ?pZNameList@UnDecorator@@0PEAVReplicator@@EA 00000001800316f8     libvcruntime:undname.obj
 0003:00001700       ?pTemplateArgList@UnDecorator@@0PEAVReplicator@@EA 0000000180031700     libvcruntime:undname.obj
 0003:00001708       ?gName@UnDecorator@@0PEBDEB 0000000180031708     libvcruntime:undname.obj
 0003:00001710       ?name@UnDecorator@@0PEBDEB 0000000180031710     libvcruntime:undname.obj
 0003:00001718       ?disableFlags@UnDecorator@@0KA 0000000180031718     libvcruntime:undname.obj
 0003:0000171c       ?fExplicitTemplateParams@UnDecorator@@0_NA 000000018003171c     libvcruntime:undname.obj
 0003:0000171d       ?fGetTemplateArgumentList@UnDecorator@@0_NA 000000018003171d     libvcruntime:undname.obj
 0003:00001720       ?m_pGetParameter@UnDecorator@@0P6APEADJ@ZEA 0000000180031720     libvcruntime:undname.obj
 0003:00001728       ?m_CHPENameOffset@UnDecorator@@0KA 0000000180031728     libvcruntime:undname.obj
 0003:0000172c       ?m_recursionLevel@UnDecorator@@0KA 000000018003172c     libvcruntime:undname.obj
 0003:00001770       ?c_exit_complete@?1???R<lambda_6e4b09c48022b2350581041d5f6b0c4c>@@QEBA@XZ@4_NA 0000000180031770     libucrt:exit.obj
 0003:00001888       __dcrt_initial_wide_environment 0000000180031888     libucrt:environment_initialization.obj
 0003:00001890       __dcrt_initial_narrow_environment 0000000180031890     libucrt:environment_initialization.obj
 0003:00001898       _environ_table             0000000180031898     libucrt:environment_initialization.obj
 0003:000018a0       _wenviron_table            00000001800318a0     libucrt:environment_initialization.obj
 0003:000018a8       __acrt_atexit_table        00000001800318a8     libucrt:onexit.obj
 0003:000018c0       __acrt_at_quick_exit_table 00000001800318c0     libucrt:onexit.obj
 0003:00001a90       _nstream                   0000000180031a90     libucrt:_file.obj
 0003:00001a98       __piob                     0000000180031a98     libucrt:_file.obj
 0003:00001aa8       __acrt_stdout_buffer       0000000180031aa8     libucrt:_sftbuf.obj
 0003:00001ab0       __acrt_stderr_buffer       0000000180031ab0     libucrt:_sftbuf.obj
 0003:00001ab8       __acrt_locale_changed_data 0000000180031ab8     libucrt:wsetlocale.obj
 0003:00001ac0       __acrt_current_locale_data 0000000180031ac0     libucrt:nlsdata.obj
 0003:00001ad0       __pioinfo                  0000000180031ad0     libucrt:ioinit.obj
 0003:00001ed0       _nhandle                   0000000180031ed0     libucrt:ioinit.obj
 0003:00002118       __acrt_current_multibyte_data 0000000180032118     libucrt:mbctype.obj
 0003:00002120       _mbctype                   0000000180032120     libucrt:mbctype.obj
 0003:00002128       _mbcasemap                 0000000180032128     libucrt:mbctype.obj
 0003:00002138       __argc                     0000000180032138     libucrt:argv_data.obj
 0003:00002140       __argv                     0000000180032140     libucrt:argv_data.obj
 0003:00002148       __wargv                    0000000180032148     libucrt:argv_data.obj
 0003:00002150       _acmdln                    0000000180032150     libucrt:argv_data.obj
 0003:00002158       _wcmdln                    0000000180032158     libucrt:argv_data.obj
 0003:00002160       _pgmptr                    0000000180032160     libucrt:argv_data.obj
 0003:00002168       __acrt_heap                0000000180032168     libucrt:heap_handle.obj
 0003:0000219c       __acrt_lconv_static_null   000000018003219c     libucrt:localeconv.obj
 0003:000021a0       __acrt_lconv_static_W_null 00000001800321a0     libucrt:localeconv.obj
 0003:000021a8       __fma3_is_available        00000001800321a8     libucrt:fma3_available.obj
 0003:000021ac       __use_fma3_lib             00000001800321ac     libucrt:fma3_available.obj
 0003:000021b0       __dyn_tls_init_callback    00000001800321b0     <common>
 0003:000021b8       __scrt_ucrt_dll_is_in_use  00000001800321b8     <common>

 entry point at        0001:0000faf4

 Static symbols

 0000:fffc3000       .debug$S                   0000000180000000     kernel32:KERNEL32.dll
 0000:fffc3000       .debug$S                   0000000180000000     advapi32:ADVAPI32.dll
 0000:fffc3000       .debug$S                   0000000180000000     oleaut32:OLEAUT32.dll
 0000:fffc3000       .debug$S                   0000000180000000     advapi32:ADVAPI32.dll
 0000:fffc3000       .debug$S                   0000000180000000     oleaut32:OLEAUT32.dll
 0000:fffc3000       .debug$S                   0000000180000000     oleaut32:OLEAUT32.dll
 0000:fffc3000       .debug$S                   0000000180000000     oleaut32:OLEAUT32.dll
 0000:fffc3000       .debug$S                   0000000180000000     oleaut32:OLEAUT32.dll
 0000:fffc3000       .debug$S                   0000000180000000     advapi32:ADVAPI32.dll
 0000:fffc3000       .debug$S                   0000000180000000     advapi32:ADVAPI32.dll
 0000:fffc3000       .debug$S                   0000000180000000     oleaut32:OLEAUT32.dll
 0000:fffc3000       .debug$S                   0000000180000000     advapi32:ADVAPI32.dll
 0000:fffc3000       .debug$S                   0000000180000000     oleaut32:OLEAUT32.dll
 0000:fffc3000       .debug$S                   0000000180000000     oleaut32:OLEAUT32.dll
 0000:fffc3000       .debug$S                   0000000180000000     oleaut32:OLEAUT32.dll
 0000:fffc3000       .debug$S                   0000000180000000     OPOSElectronicJournal.exp
 0000:fffc3000       .debug$S                   0000000180000000     oleaut32:OLEAUT32.dll
 0000:fffc3000       .debug$S                   0000000180000000     kernel32:KERNEL32.dll
 0000:fffc3000       .debug$S                   0000000180000000     kernel32:KERNEL32.dll
 0000:fffc3000       .debug$S                   0000000180000000     kernel32:KERNEL32.dll
 0000:fffc3000       .debug$S                   0000000180000000     kernel32:KERNEL32.dll
 0000:fffc3000       .debug$S                   0000000180000000     kernel32:KERNEL32.dll
 0000:fffc3000       .debug$S                   0000000180000000     kernel32:KERNEL32.dll
 0000:fffc3000       .debug$S                   0000000180000000     kernel32:KERNEL32.dll
 0000:fffc3000       .debug$S                   0000000180000000     oleaut32:OLEAUT32.dll
 0000:fffc3000       .debug$S                   0000000180000000     kernel32:KERNEL32.dll
 0000:fffc3000       .debug$S                   0000000180000000     kernel32:KERNEL32.dll
 0000:fffc3000       .debug$S                   0000000180000000     kernel32:KERNEL32.dll
 0000:fffc3000       .debug$S                   0000000180000000     kernel32:KERNEL32.dll
 0000:fffc3000       .debug$S                   0000000180000000     kernel32:KERNEL32.dll
 0000:fffc3000       .debug$S                   0000000180000000     kernel32:KERNEL32.dll
 0000:fffc3000       .debug$S                   0000000180000000     kernel32:KERNEL32.dll
 0000:fffc3000       .debug$S                   0000000180000000     kernel32:KERNEL32.dll
 0000:fffc3000       .debug$S                   0000000180000000     kernel32:KERNEL32.dll
 0000:fffc3000       .debug$S                   0000000180000000     kernel32:KERNEL32.dll
 0000:fffc3000       .debug$S                   0000000180000000     kernel32:KERNEL32.dll
 0000:fffc3000       .debug$S                   0000000180000000     kernel32:KERNEL32.dll
 0000:fffc3000       .debug$S                   0000000180000000     kernel32:KERNEL32.dll
 0000:fffc3000       .debug$S                   0000000180000000     kernel32:KERNEL32.dll
 0000:fffc3000       .debug$S                   0000000180000000     kernel32:KERNEL32.dll
 0000:fffc3000       .debug$S                   0000000180000000     kernel32:KERNEL32.dll
 0000:fffc3000       .debug$S                   0000000180000000     kernel32:KERNEL32.dll
 0000:fffc3000       .debug$S                   0000000180000000     kernel32:KERNEL32.dll
 0000:fffc3000       .debug$S                   0000000180000000     kernel32:KERNEL32.dll
 0000:fffc3000       .debug$S                   0000000180000000     kernel32:KERNEL32.dll
 0000:fffc3000       .debug$S                   0000000180000000     kernel32:KERNEL32.dll
 0000:fffc3000       .debug$S                   0000000180000000     kernel32:KERNEL32.dll
 0000:fffc3000       .debug$S                   0000000180000000     kernel32:KERNEL32.dll
 0000:fffc3000       .debug$S                   0000000180000000     kernel32:KERNEL32.dll
 0000:fffc3000       .debug$S                   0000000180000000     kernel32:KERNEL32.dll
 0000:fffc3000       .debug$S                   0000000180000000     kernel32:KERNEL32.dll
 0000:fffc3000       .debug$S                   0000000180000000     kernel32:KERNEL32.dll
 0000:fffc3000       .debug$S                   0000000180000000     kernel32:KERNEL32.dll
 0000:fffc3000       .debug$S                   0000000180000000     kernel32:KERNEL32.dll
 0000:fffc3000       .debug$S                   0000000180000000     kernel32:KERNEL32.dll
 0000:fffc3000       .debug$S                   0000000180000000     kernel32:KERNEL32.dll
 0000:fffc3000       .debug$S                   0000000180000000     kernel32:KERNEL32.dll
 0000:fffc3000       .debug$S                   0000000180000000     kernel32:KERNEL32.dll
 0000:fffc3000       .debug$S                   0000000180000000     kernel32:KERNEL32.dll
 0000:fffc3000       .debug$S                   0000000180000000     kernel32:KERNEL32.dll
 0000:fffc3000       .debug$S                   0000000180000000     kernel32:KERNEL32.dll
 0000:fffc3000       .debug$S                   0000000180000000     kernel32:KERNEL32.dll
 0000:fffc3000       .debug$S                   0000000180000000     kernel32:KERNEL32.dll
 0000:fffc3000       .debug$S                   0000000180000000     kernel32:KERNEL32.dll
 0000:fffc3000       .debug$S                   0000000180000000     kernel32:KERNEL32.dll
 0000:fffc3000       .debug$S                   0000000180000000     kernel32:KERNEL32.dll
 0000:fffc3000       .debug$S                   0000000180000000     kernel32:KERNEL32.dll
 0000:fffc3000       .debug$S                   0000000180000000     kernel32:KERNEL32.dll
 0000:fffc3000       .debug$S                   0000000180000000     kernel32:KERNEL32.dll
 0000:fffc3000       .debug$S                   0000000180000000     kernel32:KERNEL32.dll
 0000:fffc3000       .debug$S                   0000000180000000     kernel32:KERNEL32.dll
 0000:fffc3000       .debug$S                   0000000180000000     kernel32:KERNEL32.dll
 0000:fffc3000       .debug$S                   0000000180000000     kernel32:KERNEL32.dll
 0000:fffc3000       .debug$S                   0000000180000000     kernel32:KERNEL32.dll
 0000:fffc3000       .debug$S                   0000000180000000     kernel32:KERNEL32.dll
 0000:fffc3000       .debug$S                   0000000180000000     kernel32:KERNEL32.dll
 0000:fffc3000       .debug$S                   0000000180000000     kernel32:KERNEL32.dll
 0000:fffc3000       .debug$S                   0000000180000000     kernel32:KERNEL32.dll
 0000:fffc3000       .debug$S                   0000000180000000     kernel32:KERNEL32.dll
 0000:fffc3000       .debug$S                   0000000180000000     kernel32:KERNEL32.dll
 0000:fffc3000       .debug$S                   0000000180000000     kernel32:KERNEL32.dll
 0000:fffc3000       .debug$S                   0000000180000000     kernel32:KERNEL32.dll
 0000:fffc3000       .debug$S                   0000000180000000     kernel32:KERNEL32.dll
 0000:fffc3000       .debug$S                   0000000180000000     kernel32:KERNEL32.dll
 0000:fffc3000       .debug$S                   0000000180000000     kernel32:KERNEL32.dll
 0000:fffc3000       .debug$S                   0000000180000000     kernel32:KERNEL32.dll
 0000:fffc3000       .debug$S                   0000000180000000     kernel32:KERNEL32.dll
 0000:fffc3000       .debug$S                   0000000180000000     kernel32:KERNEL32.dll
 0000:fffc3000       .debug$S                   0000000180000000     kernel32:KERNEL32.dll
 0000:fffc3000       .debug$S                   0000000180000000     kernel32:KERNEL32.dll
 0000:fffc3000       .debug$S                   0000000180000000     kernel32:KERNEL32.dll
 0000:fffc3000       .debug$S                   0000000180000000     kernel32:KERNEL32.dll
 0000:fffc3000       .debug$S                   0000000180000000     kernel32:KERNEL32.dll
 0000:fffc3000       .debug$S                   0000000180000000     kernel32:KERNEL32.dll
 0000:fffc3000       .debug$S                   0000000180000000     kernel32:KERNEL32.dll
 0000:fffc3000       .debug$S                   0000000180000000     kernel32:KERNEL32.dll
 0000:fffc3000       .debug$S                   0000000180000000     kernel32:KERNEL32.dll
 0000:fffc3000       .debug$S                   0000000180000000     kernel32:KERNEL32.dll
 0000:fffc3000       .debug$S                   0000000180000000     kernel32:KERNEL32.dll
 0000:fffc3000       .debug$S                   0000000180000000     kernel32:KERNEL32.dll
 0000:fffc3000       .debug$S                   0000000180000000     kernel32:KERNEL32.dll
 0000:fffc3000       .debug$S                   0000000180000000     kernel32:KERNEL32.dll
 0000:fffc3000       .debug$S                   0000000180000000     kernel32:KERNEL32.dll
 0000:fffc3000       .debug$S                   0000000180000000     kernel32:KERNEL32.dll
 0000:fffc3000       .debug$S                   0000000180000000     kernel32:KERNEL32.dll
 0000:fffc3000       .debug$S                   0000000180000000     kernel32:KERNEL32.dll
 0000:fffc3000       .debug$S                   0000000180000000     advapi32:ADVAPI32.dll
 0000:fffc3000       .debug$S                   0000000180000000     kernel32:KERNEL32.dll
 0000:fffc3000       .debug$S                   0000000180000000     kernel32:KERNEL32.dll
 0000:fffc3000       .debug$S                   0000000180000000     kernel32:KERNEL32.dll
 0000:fffc3000       .debug$S                   0000000180000000     kernel32:KERNEL32.dll
 0000:fffc3000       .debug$S                   0000000180000000     kernel32:KERNEL32.dll
 0000:fffc3000       .debug$S                   0000000180000000     kernel32:KERNEL32.dll
 0000:fffc3000       .debug$S                   0000000180000000     kernel32:KERNEL32.dll
 0000:fffc3000       .debug$S                   0000000180000000     kernel32:KERNEL32.dll
 0000:fffc3000       .debug$S                   0000000180000000     oleaut32:OLEAUT32.dll
 0000:fffc3000       .debug$S                   0000000180000000     kernel32:KERNEL32.dll
 0000:fffc3000       .debug$S                   0000000180000000     kernel32:KERNEL32.dll
 0000:fffc3000       .debug$S                   0000000180000000     kernel32:KERNEL32.dll
 0000:fffc3000       .debug$S                   0000000180000000     kernel32:KERNEL32.dll
 0000:fffc3000       .debug$S                   0000000180000000     kernel32:KERNEL32.dll
 0000:fffc3000       .debug$S                   0000000180000000     kernel32:KERNEL32.dll
 0000:fffc3000       .debug$S                   0000000180000000     kernel32:KERNEL32.dll
 0000:fffc3000       .debug$S                   0000000180000000     oleaut32:OLEAUT32.dll
 0000:fffc3000       .debug$S                   0000000180000000     kernel32:KERNEL32.dll
 0000:fffc3000       .debug$S                   0000000180000000     oleaut32:OLEAUT32.dll
 0000:fffc3000       .debug$S                   0000000180000000     oleaut32:OLEAUT32.dll
 0000:fffc3000       .debug$S                   0000000180000000     kernel32:KERNEL32.dll
 0000:fffc3000       .debug$S                   0000000180000000     kernel32:KERNEL32.dll
 0000:fffc3000       .debug$S                   0000000180000000     kernel32:KERNEL32.dll
 0000:fffc3000       .debug$S                   0000000180000000     kernel32:KERNEL32.dll
 0000:fffc3000       .debug$S                   0000000180000000     kernel32:KERNEL32.dll
 0000:fffc3000       .debug$S                   0000000180000000     kernel32:KERNEL32.dll
 0000:fffc3000       .debug$S                   0000000180000000     kernel32:KERNEL32.dll
 0000:fffc3000       .debug$S                   0000000180000000     user32:USER32.dll
 0000:fffc3000       .debug$S                   0000000180000000     oleaut32:OLEAUT32.dll
 0000:fffc3000       .debug$S                   0000000180000000     user32:USER32.dll
 0000:fffc3000       .debug$S                   0000000180000000     user32:USER32.dll
 0000:fffc3000       .debug$S                   0000000180000000     user32:USER32.dll
 0000:fffc3000       .debug$S                   0000000180000000     ole32:ole32.dll
 0000:fffc3000       .debug$S                   0000000180000000     user32:USER32.dll
 0000:fffc3000       .debug$S                   0000000180000000     user32:USER32.dll
 0000:fffc3000       .debug$S                   0000000180000000     advapi32:ADVAPI32.dll
 0000:fffc3000       .debug$S                   0000000180000000     user32:USER32.dll
 0000:fffc3000       .debug$S                   0000000180000000     user32:USER32.dll
 0000:fffc3000       .debug$S                   0000000180000000     user32:USER32.dll
 0000:fffc3000       .debug$S                   0000000180000000     user32:USER32.dll
 0000:fffc3000       .debug$S                   0000000180000000     user32:USER32.dll
 0000:fffc3000       .debug$S                   0000000180000000     user32:USER32.dll
 0000:fffc3000       .debug$S                   0000000180000000     user32:USER32.dll
 0000:fffc3000       .debug$S                   0000000180000000     user32:USER32.dll
 0000:fffc3000       .debug$S                   0000000180000000     ole32:ole32.dll
 0000:fffc3000       .debug$S                   0000000180000000     ole32:ole32.dll
 0000:fffc3000       .debug$S                   0000000180000000     user32:USER32.dll
 0000:fffc3000       .debug$S                   0000000180000000     user32:USER32.dll
 0000:fffc3000       .debug$S                   0000000180000000     user32:USER32.dll
 0000:fffc3000       .debug$S                   0000000180000000     user32:USER32.dll
 0000:fffc3000       .debug$S                   0000000180000000     user32:USER32.dll
 0000:fffc3000       .debug$S                   0000000180000000     user32:USER32.dll
 0000:fffc3000       .debug$S                   0000000180000000     ole32:ole32.dll
 0000:fffc3000       .debug$S                   0000000180000000     ole32:ole32.dll
 0000:fffc3000       .debug$S                   0000000180000000     user32:USER32.dll
 0000:fffc3000       .debug$S                   0000000180000000     user32:USER32.dll
 0000:fffc3000       .debug$S                   0000000180000000     user32:USER32.dll
 0000:fffc3000       .debug$S                   0000000180000000     user32:USER32.dll
 0000:fffc3000       .debug$S                   0000000180000000     user32:USER32.dll
 0000:fffc3000       .debug$S                   0000000180000000     user32:USER32.dll
 0000:fffc3000       .debug$S                   0000000180000000     user32:USER32.dll
 0000:fffc3000       .debug$S                   0000000180000000     user32:USER32.dll
 0000:fffc3000       .debug$S                   0000000180000000     user32:USER32.dll
 0000:fffc3000       .debug$S                   0000000180000000     user32:USER32.dll
 0000:fffc3000       .debug$S                   0000000180000000     user32:USER32.dll
 0000:fffc3000       .debug$S                   0000000180000000     user32:USER32.dll
 0000:fffc3000       .debug$S                   0000000180000000     user32:USER32.dll
 0000:fffc3000       .debug$S                   0000000180000000     user32:USER32.dll
 0000:fffc3000       .debug$S                   0000000180000000     ole32:ole32.dll
 0000:fffc3000       .debug$S                   0000000180000000     user32:USER32.dll
 0000:fffc3000       .debug$S                   0000000180000000     gdi32:GDI32.dll
 0000:fffc3000       .debug$S                   0000000180000000     gdi32:GDI32.dll
 0000:fffc3000       .debug$S                   0000000180000000     gdi32:GDI32.dll
 0000:fffc3000       .debug$S                   0000000180000000     gdi32:GDI32.dll
 0000:fffc3000       .debug$S                   0000000180000000     gdi32:GDI32.dll
 0000:fffc3000       .debug$S                   0000000180000000     ole32:ole32.dll
 0000:fffc3000       .debug$S                   0000000180000000     gdi32:GDI32.dll
 0000:fffc3000       .debug$S                   0000000180000000     gdi32:GDI32.dll
 0000:fffc3000       .debug$S                   0000000180000000     ole32:ole32.dll
 0000:fffc3000       .debug$S                   0000000180000000     gdi32:GDI32.dll
 0000:fffc3000       .debug$S                   0000000180000000     gdi32:GDI32.dll
 0000:fffc3000       .debug$S                   0000000180000000     gdi32:GDI32.dll
 0000:fffc3000       .debug$S                   0000000180000000     gdi32:GDI32.dll
 0000:fffc3000       .debug$S                   0000000180000000     gdi32:GDI32.dll
 0000:fffc3000       .debug$S                   0000000180000000     gdi32:GDI32.dll
 0000:fffc3000       .debug$S                   0000000180000000     gdi32:GDI32.dll
 0000:fffc3000       .debug$S                   0000000180000000     gdi32:GDI32.dll
 0000:fffc3000       .debug$S                   0000000180000000     gdi32:GDI32.dll
 0000:fffc3000       .debug$S                   0000000180000000     gdi32:GDI32.dll
 0000:fffc3000       .debug$S                   0000000180000000     gdi32:GDI32.dll
 0000:fffc3000       .debug$S                   0000000180000000     gdi32:GDI32.dll
 0000:fffc3000       .debug$S                   0000000180000000     advapi32:ADVAPI32.dll
 0000:fffc3000       .debug$S                   0000000180000000     advapi32:ADVAPI32.dll
 0000:fffc3000       .debug$S                   0000000180000000     ole32:ole32.dll
 0000:fffc3000       .debug$S                   0000000180000000     ole32:ole32.dll
 0000:fffc3000       .debug$S                   0000000180000000     ole32:ole32.dll
 0000:fffc3000       .debug$S                   0000000180000000     ole32:ole32.dll
 0000:fffc3000       .debug$S                   0000000180000000     ole32:ole32.dll
 0000:fffc3000       .debug$S                   0000000180000000     ole32:ole32.dll
 0001:00000000       ??__E_AtlComModule@ATL@@YAXXZ 0000000180001000 f   OposVariant.obj
 0001:00000020       ??__E_AtlWinModule@ATL@@YAXXZ 0000000180001020 f   OposVariant.obj
 0001:00000040       ??__E?pConnMap@?$IConnectionPointContainerImpl@VCOPOSElectronicJournal@@@ATL@@0PEBU_ATL_CONNMAP_ENTRY@2@EB@@YAXXZ 0000000180001040 f   ElectronicJournal.obj
 0001:00000058       ??__E_Module@@YAXXZ        0000000180001058 f   ElectronicJournal.obj
 0001:00000094       ??__E_AtlBaseModule@ATL@@YAXXZ 0000000180001094 f   atls:atlbase.obj
 0001:0000bba8       memcpy_s                   000000018000cba8 f   ElectronicJournal.obj
 0001:0000f034       ?__scrt_initialize_thread_safe_statics@@YAHXZ 0000000180010034 f   LIBCMT:thread_safe_statics.obj
 0001:0000f194       ?__scrt_uninitialize_thread_safe_statics@@YAXXZ 0000000180010194 f   LIBCMT:thread_safe_statics.obj
 0001:0000f504       capture_current_context    0000000180010504 f   LIBCMT:gs_report.obj
 0001:0000f574       capture_previous_context   0000000180010574 f   LIBCMT:gs_report.obj
 0001:0000f720       $$000000                   0000000180010720     LIBCMT:_chkstk_.obj
 0001:0000f790       $$000000                   0000000180010790     LIBCMT:_amdsecgs_.obj
 0001:0000f7c4       ?dllmain_crt_dispatch@@YAHQEAUHINSTANCE__@@KQEAX@Z 00000001800107c4 f   LIBCMT:dll_dllmain.obj
 0001:0000f814       ?dllmain_crt_process_attach@@YAHQEAUHINSTANCE__@@QEAX@Z 0000000180010814 f   LIBCMT:dll_dllmain.obj
 0001:0000f930       ?dllmain_crt_process_detach@@YAH_N@Z 0000000180010930 f   LIBCMT:dll_dllmain.obj
 0001:0000f9c0       ?dllmain_dispatch@@YAHQEAUHINSTANCE__@@KQEAX@Z 00000001800109c0 f   LIBCMT:dll_dllmain.obj
 0001:000102b8       ??$GetProcAddressAll@P6APEAUAtlThunkData_t@@XZ@@YAP6APEAUAtlThunkData_t@@XZPEAP6APEAU0@XZ@Z 00000001800112b8 f   atls:atlthunk.obj
 0001:000102b8       ??$GetProcAddressAll@P6AP6A_JPEAUHWND__@@I_K_J@ZPEAUAtlThunkData_t@@@Z@@YAP6AP6A_JPEAUHWND__@@I_K_J@ZPEAUAtlThunkData_t@@@ZPEAP6AP6A_J0I12@Z3@Z@Z 00000001800112b8 f   atls:atlthunk.obj
 0001:000102b8       ??$GetProcAddressAll@P6AXPEAUAtlThunkData_t@@PEAX_K@Z@@YAP6AXPEAUAtlThunkData_t@@PEAX_K@ZPEAP6AX012@Z@Z 00000001800112b8 f   atls:atlthunk.obj
 0001:000102b8       ??$GetProcAddressAll@P6AXPEAUAtlThunkData_t@@@Z@@YAP6AXPEAUAtlThunkData_t@@@ZPEAP6AX0@Z@Z 00000001800112b8 f   atls:atlthunk.obj
 0001:00010490       ?__InitializeThunkPool@@YAHXZ 0000000180011490 f   atls:atlthunk.obj
 0001:000106f0       $$000000                   00000001800116f0     libvcruntime:memset.obj
 0001:000107ec       MsetTab                    00000001800117ec     libvcruntime:memset.obj
 0001:00010b00       $$000000                   0000000180011b00     libvcruntime:memcmp.obj
 0001:00010be0       $$000000                   0000000180011be0     libvcruntime:memcpy.obj
 0001:00010c97       MoveSmall                  0000000180011c97     libvcruntime:memcpy.obj
 0001:00011e20       ?try_get_function@@YAPEAXW4function_id@?A0xcc2f1bd3@@QEBDQEBW4module_id@2@2@Z 0000000180012e20 f   libvcruntime:winapi_downlevel.obj
 0001:00012200       $$000000                   0000000180013200     libvcruntime:_notify_.obj
 0001:00012388       ??$BuildCatchObjectHelperInternal@$$CBU_s_HandlerType@@@@YAHPEAUEHExceptionRecord@@PEAXPEBU_s_HandlerType@@PEBU_s_CatchableType@@@Z 0000000180013388 f   libvcruntime:frame.obj
 0001:00012588       ??$BuildCatchObjectInternal@$$CBU_s_HandlerType@@@@YAXPEAUEHExceptionRecord@@PEAXPEBU_s_HandlerType@@PEBU_s_CatchableType@@@Z 0000000180013588 f   libvcruntime:frame.obj
 0001:00012648       ??$CatchIt@V__FrameHandler3@@@@YAXPEAUEHExceptionRecord@@PEA_KPEAU_CONTEXT@@PEAU_xDISPATCHER_CONTEXT@@PEBU_s_FuncInfo@@PEBU_s_HandlerType@@PEBU_s_CatchableType@@PEBU_s_TryBlockMapEntry@@H1EE@Z 0000000180013648 f   libvcruntime:frame.obj
 0001:00012718       ??$FindHandler@V__FrameHandler3@@@@YAXPEAUEHExceptionRecord@@PEA_KPEAU_CONTEXT@@PEAU_xDISPATCHER_CONTEXT@@PEBU_s_FuncInfo@@EH1@Z 0000000180013718 f   libvcruntime:frame.obj
 0001:00012b7c       ??$FindHandlerForForeignException@V__FrameHandler3@@@@YAXPEAUEHExceptionRecord@@PEA_KPEAU_CONTEXT@@PEAU_xDISPATCHER_CONTEXT@@PEBU_s_FuncInfo@@HH1@Z 0000000180013b7c f   libvcruntime:frame.obj
 0001:00013384       ?ExFilterRethrow@@YAHPEAU_EXCEPTION_POINTERS@@PEAUEHExceptionRecord@@PEAH@Z 0000000180014384 f   libvcruntime:frame.obj
 0001:00013638       ?IsInExceptionSpec@@YAEPEAUEHExceptionRecord@@PEBU_s_ESTypeList@@@Z 0000000180014638 f   libvcruntime:frame.obj
 0001:00013710       ?Is_bad_exception_allowed@@YAEPEBU_s_ESTypeList@@@Z 0000000180014710 f   libvcruntime:frame.obj
 0001:000137c0       $$000000                   00000001800147c0     libvcruntime:handlers.obj
 0001:00013f70       ??$common_vsprintf@Vformat_validation_base@__crt_stdio_output@@_W@@YAH_KQEA_W0QEB_WQEAU__crt_locale_pointers@@QEAD@Z 0000000180014f70 f   libucrt:output.obj
 0001:00015738       ??R<lambda_6e4b09c48022b2350581041d5f6b0c4c>@@QEBA@XZ 0000000180016738 f   libucrt:exit.obj
 0001:00015810       ?atexit_exception_filter@@YAHK@Z 0000000180016810 f   libucrt:exit.obj
 0001:0001581c       ?common_exit@@YAXHW4_crt_exit_cleanup_mode@@W4_crt_exit_return_mode@@@Z 000000018001681c f   libucrt:exit.obj
 0001:000158d8       ?exit_or_terminate_process@@YAXI@Z 00000001800168d8 f   libucrt:exit.obj
 0001:00015924       ?try_cor_exit_process@@YAXI@Z 0000000180016924 f   libucrt:exit.obj
 0001:000159ac       ??$parse_command_line@D@@YAXPEADPEAPEAD0PEA_K2@Z 00000001800169ac f   libucrt:argv_parsing.obj
 0001:00015d54       ??$common_initialize_environment_nolock@D@@YAHXZ 0000000180016d54 f   libucrt:environment_initialization.obj
 0001:00015dc0       ??$create_environment@D@@YAQEAPEADQEAD@Z 0000000180016dc0 f   libucrt:environment_initialization.obj
 0001:00015ebc       ??$free_environment@D@@YAXQEAPEAD@Z 0000000180016ebc f   libucrt:environment_initialization.obj
 0001:00015ebc       ??$free_environment@_W@@YAXQEAPEA_W@Z 0000000180016ebc f   libucrt:environment_initialization.obj
 0001:00015f00       ??$uninitialize_environment_internal@D@@YAXAEAPEAPEAD@Z 0000000180016f00 f   libucrt:environment_initialization.obj
 0001:00015f1c       ??$uninitialize_environment_internal@_W@@YAXAEAPEAPEA_W@Z 0000000180016f1c f   libucrt:environment_initialization.obj
 0001:00015ff0       ??R<lambda_22ebabd17bc4fa466a2aca6d8deb888d>@@QEBAHXZ 0000000180016ff0 f   libucrt:onexit.obj
 0001:000161cc       ??R<lambda_f03950bc5685219e0bcd2087efbe011e>@@QEBAHXZ 00000001800171cc f   libucrt:onexit.obj
 0001:000163ec       initialize_global_variables 00000001800173ec f   libucrt:initialization.obj
 0001:00016400       initialize_c               0000000180017400 f   libucrt:initialization.obj
 0001:00016424       initialize_environment     0000000180017424 f   libucrt:initialization.obj
 0001:00016424       uninitialize_c             0000000180017424 f   libucrt:initialization.obj
 0001:00016424       uninitialize_global_state_isolation 0000000180017424 f   libucrt:initialization.obj
 0001:00016424       initialize_global_state_isolation 0000000180017424 f   libucrt:initialization.obj
 0001:00016424       report_memory_leaks        0000000180017424 f   libucrt:initialization.obj
 0001:00016428       uninitialize_environment   0000000180017428 f   libucrt:initialization.obj
 0001:00016438       initialize_pointers        0000000180017438 f   libucrt:initialization.obj
 0001:0001648c       uninitialize_vcruntime     000000018001748c f   libucrt:initialization.obj
 0001:00016494       uninitialize_allocated_memory 0000000180017494 f   libucrt:initialization.obj
 0001:00016ef0       $$000000                   0000000180017ef0     libucrt:strncmp.obj
 0001:000170e8       ?construct_ptd_array@@YAXQEAU__acrt_ptd@@@Z 00000001800180e8 f   libucrt:per_thread_data.obj
 0001:000171b8       ?destroy_fls@@YAXPEAX@Z    00000001800181b8 f   libucrt:per_thread_data.obj
 0001:000171d8       ?destroy_ptd_array@@YAXQEAU__acrt_ptd@@@Z 00000001800181d8 f   libucrt:per_thread_data.obj
 0001:000172d0       ?replace_current_thread_locale_nolock@@YAXQEAU__acrt_ptd@@QEAU__crt_locale_data@@@Z 00000001800182d0 f   libucrt:per_thread_data.obj
 0001:000177c0       ?try_get_function@@YAPEAXW4function_id@?A0x391cf84c@@QEBDQEBW4module_id@2@2@Z 00000001800187c0 f   libucrt:winapi_thunks.obj
 0001:00017dd8       ?internal_isupper_l@@YA_NHQEAU__crt_locale_pointers@@@Z 0000000180018dd8 f   libucrt:tolower_toupper.obj
 0001:000183f0       ?fp_format_a@@YAHQEBNPEAD_KQEAD2H_NIQEAU__crt_locale_pointers@@@Z 00000001800193f0 f   libucrt:cvt.obj
 0001:00018750       ?fp_format_e@@YAHQEBNQEAD_K12H_NIQEAU__crt_locale_pointers@@@Z 0000000180019750 f   libucrt:cvt.obj
 0001:00018820       ?fp_format_e_internal@@YAHQEAD_KH_NIQEAU_strflt@@2QEAU__crt_locale_pointers@@@Z 0000000180019820 f   libucrt:cvt.obj
 0001:000189fc       ?fp_format_f_internal@@YAHQEAD_KHQEAU_strflt@@_NQEAU__crt_locale_pointers@@@Z 00000001800199fc f   libucrt:cvt.obj
 0001:00018b44       ?fp_format_g@@YAHQEBNQEAD_K12H_NIQEAU__crt_locale_pointers@@@Z 0000000180019b44 f   libucrt:cvt.obj
 0001:00018c7c       ?fp_format_nan_or_infinity@@YAHW4__acrt_fp_class@@_NPEAD_K1@Z 0000000180019c7c f   libucrt:cvt.obj
 0001:00019284       ?initialize_inherited_file_handles_nolock@@YAXXZ 000000018001a284 f   libucrt:ioinit.obj
 0001:00019370       ?initialize_stdio_handles_nolock@@YAXXZ 000000018001a370 f   libucrt:ioinit.obj
 0001:000195c8       ?<lambda_invoker_cdecl>@<lambda_c2303d2482d7c3675ea2e24c4cfb6115>@@CAHPEBX0@Z 000000018001a5c8 f   libucrt:argv_wildcards.obj
 0001:000195dc       ??$common_expand_argv_wildcards@D@@YAHQEAPEADQEAPEAPEAD@Z 000000018001a5dc f   libucrt:argv_wildcards.obj
 0001:000197e8       ??$copy_and_add_argument_to_buffer@D@@YAHQEBD0_KAEAV?$argument_list@D@?A0x5f5c8891@@@Z 000000018001a7e8 f   libucrt:argv_wildcards.obj
 0001:00019980       ??$expand_argument_wildcards@D@@YAHQEAD0AEAV?$argument_list@D@?A0x5f5c8891@@@Z 000000018001a980 f   libucrt:argv_wildcards.obj
 0001:00019cfc       ?getSystemCP@@YAHH@Z       000000018001acfc f   libucrt:mbctype.obj
 0001:00019d7c       ?setSBCS@@YAXPEAU__crt_multibyte_data@@@Z 000000018001ad7c f   libucrt:mbctype.obj
 0001:00019e0c       ?setSBUpLow@@YAXPEAU__crt_multibyte_data@@@Z 000000018001ae0c f   libucrt:mbctype.obj
 0001:00019ff0       ?setmbcp_internal@@YAHH_NQEAU__acrt_ptd@@QEAPEAU__crt_multibyte_data@@@Z 000000018001aff0 f   libucrt:mbctype.obj
 0001:0001a1b4       ?update_thread_multibyte_data_internal@@YAPEAU__crt_multibyte_data@@QEAU__acrt_ptd@@QEAU1@@Z 000000018001b1b4 f   libucrt:mbctype.obj
 0001:0001a590       ?x_ismbbtype_l@@YAHPEAU__crt_locale_pointers@@IHH@Z 000000018001b590 f   libucrt:ismbbyte.obj
 0001:0001b178       ?GetTableIndexFromLocaleName@@YAHPEB_W@Z 000000018001c178 f   libucrt:lcidtoname_downlevel.obj
 0001:0001b2b4       ?__acrt_LCMapStringA_stat@@YAHPEAU__crt_locale_pointers@@PEB_WKPEBDHPEADHHH@Z 000000018001c2b4 f   libucrt:lcmapstringa.obj
 0001:0001cf60       memcpy_s                   000000018001df60 f   libucrt:cfout.obj
 0001:0001d220       ?common_flush_all@@YAH_N@Z 000000018001e220 f   libucrt:fflush.obj
 0001:0001d568       ?free_crt_array_internal@@YAXQEAPEBX_K@Z 000000018001e568 f   libucrt:inittime.obj
 0001:0001dba0       ?shortsort@@YAXPEAD0_KP6AHPEBX2@Z@Z 000000018001eba0 f   libucrt:qsort.obj
 0001:0001e194       ?initialize_multibyte@@YAHXZ 000000018001f194 f   libucrt:multibyte_initializer.obj
 0001:0001e350       $$000000                   000000018001f350     libucrt:log10.obj
 0001:0001e8fc       ?write_double_translated_ansi_nolock@@YA?AUwrite_result@?A0x17268360@@HQEBDI@Z 000000018001f8fc f   libucrt:write.obj
 0001:0001eb24       ?write_text_ansi_nolock@@YA?AUwrite_result@?A0x17268360@@HQEBDI@Z 000000018001fb24 f   libucrt:write.obj
 0001:0001ec28       ?write_text_utf16le_nolock@@YA?AUwrite_result@?A0x17268360@@HQEBDI@Z 000000018001fc28 f   libucrt:write.obj
 0001:0001ed44       ?write_text_utf8_nolock@@YA?AUwrite_result@?A0x17268360@@HQEBDI@Z 000000018001fd44 f   libucrt:write.obj
 0001:0001f2a0       ??$common_lseek_nolock@_J@@YA_JH_JH@Z 00000001800202a0 f   libucrt:lseek.obj
 0001:0001f680       common_control87           0000000180020680 f   libucrt:ieee.obj
 0001:0001f910       _call_matherr              0000000180020910 f   libucrt:libm_error.obj
 0001:0001f978       _exception_enabled         0000000180020978 f   libucrt:libm_error.obj
 0001:0001fc10       _log_special_common        0000000180020c10 f   libucrt:log_special.obj
 0001:0001ff20       $$000000                   0000000180020f20     libucrt:fpsr.obj
 0001:00020640       $$000000                   0000000180021640     LIBCMT:_guard_dispatch_.obj
 0001:00020660       ?filt$0@?0??_AtlVerifyStackAvailable@_ATL_SAFE_ALLOCA_IMPL@ATL@@YA_N_K@Z@4HA 0000000180021660 f   ElectronicJournal.obj
 0001:00020681       __scrt_is_nonwritable_in_current_image$filt$0 0000000180021681 f   LIBCMT:utility.obj
 0001:00020699       ?catch$0@?0???2@YAPEAX_KAEBUnothrow_t@std@@@Z@4HA 0000000180021699 f   LIBCMT:new_scalar_nothrow.obj
 0001:000206a6       __catch$??2@YAPEAX_KAEBUnothrow_t@std@@@Z$0 00000001800216a6 f   LIBCMT:new_scalar_nothrow.obj
 0001:000206b4       ?fin$0@?0??dllmain_crt_process_attach@@YAHQEAUHINSTANCE__@@QEAX@Z@4HA 00000001800216b4 f   LIBCMT:dll_dllmain.obj
 0001:000206cb       ?fin$0@?0??dllmain_crt_process_detach@@YAH_N@Z@4HA 00000001800216cb f   LIBCMT:dll_dllmain.obj
 0001:000206e7       ?filt$0@?0??dllmain_dispatch@@YAHQEAUHINSTANCE__@@KQEAX@Z@4HA 00000001800216e7 f   LIBCMT:dll_dllmain.obj
 0001:0002071d       __DestructExceptionObject$filt$0 000000018002171d f   libvcruntime:ehhelpers.obj
 0001:00020735       ?filt$0@?0???$_CallSETranslator@V__FrameHandler3@@@@YAHPEAUEHExceptionRecord@@PEA_KPEAU_CONTEXT@@PEAU_xDISPATCHER_CONTEXT@@PEBU_s_FuncInfo@@K1@Z@4HA 0000000180021735 f   libvcruntime:risctrnsctrl.obj
 0001:000207c6       ?filt$0@?0??CxxCallCatchBlock@__FrameHandler3@@SAPEAXPEAU_EXCEPTION_RECORD@@@Z@4HA 00000001800217c6 f   libvcruntime:frame.obj
 0001:000207eb       ?fin$1@?0??CxxCallCatchBlock@__FrameHandler3@@SAPEAXPEAU_EXCEPTION_RECORD@@@Z@4HA 00000001800217eb f   libvcruntime:frame.obj
 0001:00020863       ?filt$0@?0??FrameUnwindToState@__FrameHandler3@@SAXPEA_KPEAU_xDISPATCHER_CONTEXT@@PEBU_s_FuncInfo@@H@Z@4HA 0000000180021863 f   libvcruntime:frame.obj
 0001:00020879       ?fin$1@?0??FrameUnwindToState@__FrameHandler3@@SAXPEA_KPEAU_xDISPATCHER_CONTEXT@@PEBU_s_FuncInfo@@H@Z@4HA 0000000180021879 f   libvcruntime:frame.obj
 0001:0002089c       ?fin$0@?0???$?RV<lambda_f2e299630e499de9f9a165e60fcd3db5>@@AEAV<lambda_2ae9d31cdba2644fcbeaf08da7c24588>@@V<lambda_40d01ff24d0e7b3814fdbdcee8eab3c7>@@@?$__crt_seh_guarded_call@X@@QEAAX$$QEAV<lambda_f2e299630e499de9f9a165e60fcd3db5>@@AEAV<lambda_2ae9d31cdba2644fcbeaf08da7c24588>@@$$QEAV<lambda_40d01ff24d0e7b3814fdbdcee8eab3c7>@@@Z@4HA 000000018002189c f   libucrt:per_thread_data.obj
 0001:0002089c       ?fin$0@?0???$?RV<lambda_450d765d439847d4c735a33c368b5fc0>@@AEAV<lambda_44731a7d0e6d81c3e6aa82d741081786>@@V<lambda_601a2a7da3b7a96e9554ac7215c4b07c>@@@?$__crt_seh_guarded_call@P6AXH@Z@@QEAAP6AXH@Z$$QEAV<lambda_450d765d439847d4c735a33c368b5fc0>@@AEAV<lambda_44731a7d0e6d81c3e6aa82d741081786>@@$$QEAV<lambda_601a2a7da3b7a96e9554ac7215c4b07c>@@@Z@4HA 000000018002189c f   libucrt:signal.obj
 0001:0002089c       ?fin$0@?0???$?RV<lambda_aa87e3671a710a21b5dc78c0bdf72e11>@@AEAV<lambda_92619d2358a28f41a33ba319515a20b9>@@V<lambda_6992ecaafeb10aed2b74cb1fae11a551>@@@?$__crt_seh_guarded_call@X@@QEAAX$$QEAV<lambda_aa87e3671a710a21b5dc78c0bdf72e11>@@AEAV<lambda_92619d2358a28f41a33ba319515a20b9>@@$$QEAV<lambda_6992ecaafeb10aed2b74cb1fae11a551>@@@Z@4HA 000000018002189c f   libucrt:per_thread_data.obj
 0001:0002089c       ?fin$0@?0???$?RV<lambda_2d41944a1d46af3157314b8a01080d33>@@AEAV<lambda_8f455de75cd7d7f24b4096f044d8b9e6>@@V<lambda_aa500f224e6afead328df44964fe2772>@@@?$__crt_seh_guarded_call@X@@QEAAX$$QEAV<lambda_2d41944a1d46af3157314b8a01080d33>@@AEAV<lambda_8f455de75cd7d7f24b4096f044d8b9e6>@@$$QEAV<lambda_aa500f224e6afead328df44964fe2772>@@@Z@4HA 000000018002189c f   libucrt:per_thread_data.obj
 0001:0002089c       ?fin$0@?0???$?RV<lambda_7777bce6b2f8c936911f934f8298dc43>@@AEAV<lambda_f03950bc5685219e0bcd2087efbe011e>@@V<lambda_3883c3dff614d5e0c5f61bb1ac94921c>@@@?$__crt_seh_guarded_call@H@@QEAAH$$QEAV<lambda_7777bce6b2f8c936911f934f8298dc43>@@AEAV<lambda_f03950bc5685219e0bcd2087efbe011e>@@$$QEAV<lambda_3883c3dff614d5e0c5f61bb1ac94921c>@@@Z@4HA 000000018002189c f   libucrt:onexit.obj
 0001:0002089c       ?fin$0@?0???$?RV<lambda_638799b9deba96c50f710eeac98168cd>@@AEAV<lambda_22ebabd17bc4fa466a2aca6d8deb888d>@@V<lambda_a6f7d7db0129f75315ebf26d50c089f1>@@@?$__crt_seh_guarded_call@H@@QEAAH$$QEAV<lambda_638799b9deba96c50f710eeac98168cd>@@AEAV<lambda_22ebabd17bc4fa466a2aca6d8deb888d>@@$$QEAV<lambda_a6f7d7db0129f75315ebf26d50c089f1>@@@Z@4HA 000000018002189c f   libucrt:onexit.obj
 0001:0002089c       ?fin$0@?0???$?RV<lambda_d80eeec6fff315bfe5c115232f3240e3>@@AEAV<lambda_6e4b09c48022b2350581041d5f6b0c4c>@@V<lambda_2358e3775559c9db80273638284d5e45>@@@?$__crt_seh_guarded_call@X@@QEAAX$$QEAV<lambda_d80eeec6fff315bfe5c115232f3240e3>@@AEAV<lambda_6e4b09c48022b2350581041d5f6b0c4c>@@$$QEAV<lambda_2358e3775559c9db80273638284d5e45>@@@Z@4HA 000000018002189c f   libucrt:exit.obj
 0001:0002089c       ?fin$0@?0???$?RV<lambda_0ae27a3a962d80f24befdcbee591983d>@@AEAV<lambda_8d0ee55de4b1038c4002e0adecdf1839>@@V<lambda_dc504788e8f1664fe9b84e20bfb512f2>@@@?$__crt_seh_guarded_call@X@@QEAAX$$QEAV<lambda_0ae27a3a962d80f24befdcbee591983d>@@AEAV<lambda_8d0ee55de4b1038c4002e0adecdf1839>@@$$QEAV<lambda_dc504788e8f1664fe9b84e20bfb512f2>@@@Z@4HA 000000018002189c f   libucrt:per_thread_data.obj
 0001:0002089c       ?fin$0@?0???$?RV<lambda_efdfa57d1f175319df784efa44bb7b81>@@AEAV<lambda_5f0a4c1567f8adc6734073e5d1e1b35c>@@V<lambda_2e8a7d3640ea6ccb4c2413664c2db6fd>@@@?$__crt_seh_guarded_call@X@@QEAAX$$QEAV<lambda_efdfa57d1f175319df784efa44bb7b81>@@AEAV<lambda_5f0a4c1567f8adc6734073e5d1e1b35c>@@$$QEAV<lambda_2e8a7d3640ea6ccb4c2413664c2db6fd>@@@Z@4HA 000000018002189c f   libucrt:mbctype.obj
 0001:000208b6       ?filt$0@?0???R<lambda_6e4b09c48022b2350581041d5f6b0c4c>@@QEBA@XZ@4HA 00000001800218b6 f   libucrt:exit.obj
 0001:000208d1       _query_new_handler$fin$0   00000001800218d1 f   libucrt:new_handler.obj
 0001:000208e7       ?fin$0@?0???$?RV<lambda_410d79af7f07d98d83a3f525b3859a53>@@AEAV<lambda_3e16ef9562a7dcce91392c22ab16ea36>@@V<lambda_38119f0e861e05405d8a144b9b982f0a>@@@?$__crt_seh_guarded_call@X@@QEAAX$$QEAV<lambda_410d79af7f07d98d83a3f525b3859a53>@@AEAV<lambda_3e16ef9562a7dcce91392c22ab16ea36>@@$$QEAV<lambda_38119f0e861e05405d8a144b9b982f0a>@@@Z@4HA 00000001800218e7 f   libucrt:wsetlocale.obj
 0001:00020901       __acrt_initialize_lowio$fin$0 0000000180021901 f   libucrt:ioinit.obj
 0001:00020901       __acrt_lowio_ensure_fh_exists$fin$0 0000000180021901 f   libucrt:osfinfo.obj
 0001:0002091a       ?fin$0@?0??update_thread_multibyte_data_internal@@YAPEAU__crt_multibyte_data@@QEAU__acrt_ptd@@QEAU1@@Z@4HA 000000018002191a f   libucrt:mbctype.obj
 0001:00020933       raise$fin$0                0000000180021933 f   libucrt:signal.obj
 0001:00020957       __acrt_update_thread_locale_data$fin$0 0000000180021957 f   libucrt:locale_refcounting.obj
 0001:00020970       _fcloseall$fin$0           0000000180021970 f   libucrt:closeall.obj
 0001:00020989       ?fin$0@?0???$?RV<lambda_842d9ff0dc9ef11c61343bbaebe7f885>@@AEAV<lambda_c5860995281e5c4ce005b3de8f5874ee>@@V<lambda_d90129c13df834fdcbf8d2b88dafcf2d>@@@?$__crt_seh_guarded_call@X@@QEAAX$$QEAV<lambda_842d9ff0dc9ef11c61343bbaebe7f885>@@AEAV<lambda_c5860995281e5c4ce005b3de8f5874ee>@@$$QEAV<lambda_d90129c13df834fdcbf8d2b88dafcf2d>@@@Z@4HA 0000000180021989 f   libucrt:fflush.obj
 0001:000209a4       ?fin$0@?0???$?RV<lambda_886d6c58226a84441f68b9f2b8217b83>@@AEAV<lambda_ab61a845afdef5b7c387490eaf3616ee>@@V<lambda_f7f22ab5edc0698d5f6905b0d3f44752>@@@?$__crt_seh_guarded_call@X@@QEAAX$$QEAV<lambda_886d6c58226a84441f68b9f2b8217b83>@@AEAV<lambda_ab61a845afdef5b7c387490eaf3616ee>@@$$QEAV<lambda_f7f22ab5edc0698d5f6905b0d3f44752>@@@Z@4HA 00000001800219a4 f   libucrt:fflush.obj
 0001:000209c1       _write$fin$0               00000001800219c1 f   libucrt:write.obj
 0001:000209d8       fclose$fin$0               00000001800219d8 f   libucrt:fclose.obj
 0001:000209f0       ?fin$0@?0???$?RV<lambda_751a882b2c74d4b022dec766aa51a29a>@@AEAV<lambda_628dfdc04ba53c8bfc02c9951375f3f5>@@V<lambda_f6c7be5f7998530c34de24c7437d6b54>@@@?$__crt_seh_guarded_call@H@@QEAAH$$QEAV<lambda_751a882b2c74d4b022dec766aa51a29a>@@AEAV<lambda_628dfdc04ba53c8bfc02c9951375f3f5>@@$$QEAV<lambda_f6c7be5f7998530c34de24c7437d6b54>@@@Z@4HA 00000001800219f0 f   libucrt:close.obj
 0001:000209f0       ?fin$0@?0???$?RV<lambda_a37b2b86f63e897a80ea819b0eb08c01>@@AEAV<lambda_38ce7e780aa69e748d6df282ebc68efe>@@V<lambda_99fb1378e971ab6e7edea83e3a7a83a2>@@@?$__crt_seh_guarded_call@H@@QEAAH$$QEAV<lambda_a37b2b86f63e897a80ea819b0eb08c01>@@AEAV<lambda_38ce7e780aa69e748d6df282ebc68efe>@@$$QEAV<lambda_99fb1378e971ab6e7edea83e3a7a83a2>@@@Z@4HA 00000001800219f0 f   libucrt:commit.obj
 0001:00020a0a       common_control87$filt$0    0000000180021a0a f   libucrt:ieee.obj
 0001:00020a0a       _ctrlfp$filt$0             0000000180021a0a f   libucrt:fpctrl.obj
 0001:00020a40       _IsNonwritableInCurrentImage$filt$0 0000000180021a40 f   LIBCMT:pesect.obj
 0001:00020a60       ??__F_AtlComModule@ATL@@YAXXZ 0000000180021a60 f   OposVariant.obj
 0001:00020a6c       ??__F_AtlWinModule@ATL@@YAXXZ 0000000180021a6c f   OposVariant.obj
 0001:00020ab0       ??__F_Module@@YAXXZ        0000000180021ab0 f   ElectronicJournal.obj
 0001:00020b14       ??__F_AtlBaseModule@ATL@@YAXXZ 0000000180021b14 f   atls:atlbase.obj
 0002:00000630       ?_AtlBaseModule$initializer$@ATL@@3P6AXXZEA 0000000180022630     atls:atlbase.obj
 0002:00000638       ?_AtlComModule$initializer$@ATL@@3P6AXXZEA 0000000180022638     OposVariant.obj
 0002:00000640       ?_AtlWinModule$initializer$@ATL@@3P6AXXZEA 0000000180022640     OposVariant.obj
 0002:00000648       ?_Module$initializer$@@3P6AXXZEA 0000000180022648     ElectronicJournal.obj
 0002:00000650       ??pConnMap$initializer$@?$IConnectionPointContainerImpl@VCOPOSElectronicJournal@@@ATL@@0P6AXXZEA@@3P6AXXZEA 0000000180022650     ElectronicJournal.obj
 0002:00000668       ?__scrt_initialize_tss_var@@3P6AHXZEA 0000000180022668     LIBCMT:thread_safe_statics.obj
 0002:00000d70       ?map@?1??HKeyFromString@CRegParser@ATL@@KAPEAUHKEY__@@PEA_W@Z@4QBUkeymap@?1??123@KAPEAU4@0@Z@B 0000000180022d70     ElectronicJournal.obj
 0002:00002958       $cppxdata$?__scrt_initialize_thread_safe_statics@@YAHXZ 0000000180024958     LIBCMT:thread_safe_statics.obj
 0002:00002a48       GS_ExceptionPointers       0000000180024a48     LIBCMT:gs_report.obj
 0002:00002a58       $cppxdata$??2@YAPEAX_KAEBUnothrow_t@std@@@Z 0000000180024a58     LIBCMT:new_scalar_nothrow.obj
 0002:00002c30       ?ExceptionTemplate@?1??UnwindNestedFrames@__FrameHandler3@@SAXPEA_KPEAUEHExceptionRecord@@PEAU_CONTEXT@@0PEAXPEBU_s_FuncInfo@@HHPEBU_s_HandlerType@@PEAU_xDISPATCHER_CONTEXT@@E@Z@4U_EXCEPTION_RECORD@@B 0000000180024c30     libvcruntime:risctrnsctrl.obj
 0002:00002cd0       ?ExceptionTemplate@?1??_CxxThrowException@@9@4UEHExceptionRecord@@B 0000000180024cd0     libvcruntime:throw.obj
 0002:00002d10       ?module_names@?A0xcc2f1bd3@@3QBQEB_WB 0000000180024d10     libvcruntime:winapi_downlevel.obj
 0002:00002de0       ?candidate_modules@?1??try_get_FlsAlloc@@YAP6AKP6AXPEAX@Z@ZXZ@4QBW4module_id@?A0xcc2f1bd3@@B 0000000180024de0     libvcruntime:winapi_downlevel.obj
 0002:00002df8       ?candidate_modules@?1??try_get_FlsFree@@YAP6AHK@ZXZ@4QBW4module_id@?A0xcc2f1bd3@@B 0000000180024df8     libvcruntime:winapi_downlevel.obj
 0002:00002e08       ?candidate_modules@?1??try_get_FlsGetValue@@YAP6APEAXK@ZXZ@4QBW4module_id@?A0xcc2f1bd3@@B 0000000180024e08     libvcruntime:winapi_downlevel.obj
 0002:00002e20       ?candidate_modules@?1??try_get_FlsSetValue@@YAP6AHKPEAX@ZXZ@4QBW4module_id@?A0xcc2f1bd3@@B 0000000180024e20     libvcruntime:winapi_downlevel.obj
 0002:00002e38       ?candidate_modules@?1??try_get_InitializeCriticalSectionEx@@YAP6AHPEAU_RTL_CRITICAL_SECTION@@KK@ZXZ@4QBW4module_id@?A0xcc2f1bd3@@B 0000000180024e38     libvcruntime:winapi_downlevel.obj
 0002:00002e90       ?tokenTable@@3QBQEBDB      0000000180024e90     libvcruntime:undname.obj
 0002:00002f10       ?nameTable@@3QBQEBDB       0000000180024f10     libvcruntime:undname.obj
 0002:000031a0       ?rttiTable@@3QBQEBDB       00000001800251a0     libvcruntime:undname.obj
 0002:00003860       ?errtable@@3QBUerrentry@?A0x31fdb9ec@@B 0000000180025860     libucrt:errno.obj
 0002:00003b40       __acrt_initializers        0000000180025b40     libucrt:initialization.obj
 0002:00003c30       ?module_names@?A0x391cf84c@@3QBQEB_WB 0000000180025c30     libucrt:winapi_thunks.obj
 0002:00004198       ?candidate_modules@?1??try_get_FlsAlloc@@YAP6AKP6AXPEAX@Z@ZXZ@4QBW4module_id@?A0x391cf84c@@B 0000000180026198     libucrt:winapi_thunks.obj
 0002:000041b0       ?candidate_modules@?1??try_get_FlsFree@@YAP6AHK@ZXZ@4QBW4module_id@?A0x391cf84c@@B 00000001800261b0     libucrt:winapi_thunks.obj
 0002:000041c0       ?candidate_modules@?1??try_get_FlsGetValue@@YAP6APEAXK@ZXZ@4QBW4module_id@?A0x391cf84c@@B 00000001800261c0     libucrt:winapi_thunks.obj
 0002:000041d8       ?candidate_modules@?1??try_get_FlsSetValue@@YAP6AHKPEAX@ZXZ@4QBW4module_id@?A0x391cf84c@@B 00000001800261d8     libucrt:winapi_thunks.obj
 0002:000041f0       ?candidate_modules@?1??try_get_InitializeCriticalSectionEx@@YAP6AHPEAU_RTL_CRITICAL_SECTION@@KK@ZXZ@4QBW4module_id@?A0x391cf84c@@B 00000001800261f0     libucrt:winapi_thunks.obj
 0002:00004218       ?candidate_modules@?1??try_get_LCMapStringEx@@YAP6AHPEB_WK0HPEA_WHPEAU_nlsversioninfo@@PEAX_J@ZXZ@4QBW4module_id@?A0x391cf84c@@B 0000000180026218     libucrt:winapi_thunks.obj
 0002:00004230       ?candidate_modules@?1??try_get_LocaleNameToLCID@@YAP6AKPEB_WK@ZXZ@4QBW4module_id@?A0x391cf84c@@B 0000000180026230     libucrt:winapi_thunks.obj
 0002:0000424c       ?candidate_modules@?1??try_get_AppPolicyGetProcessTerminationMethod@@YAP6AJPEAXPEAW4AppPolicyProcessTerminationMethod@@@ZXZ@4QBW4module_id@?A0x391cf84c@@B 000000018002624c     libucrt:winapi_thunks.obj
 0002:00004278       ?candidate_modules@?1??try_get_SetThreadStackGuarantee@@YAP6AHPEAK@ZXZ@4QBW4module_id@?A0x391cf84c@@B 0000000180026278     libucrt:winapi_thunks.obj
 0002:00004970       ?_mb_locale_names@@3QBQEB_WB 0000000180026970     libucrt:mbctype.obj
 0002:000059b0       ?LocaleNameToIndexTable@?A0x881e4c05@@3QBULocaleNameIndex@1@B 00000001800279b0     libucrt:lcidtoname_downlevel.obj
 0002:00007250       ?LcidToLocaleNameTable@?A0x881e4c05@@3QBULcidToLocaleName@1@B 0000000180029250     libucrt:lcidtoname_downlevel.obj
 0002:00008ee0       __real_ninf                000000018002aee0     libucrt:log10.obj
 0002:00008ef0       __real_inf                 000000018002aef0     libucrt:log10.obj
 0002:00008f00       __real_neg_qnan            000000018002af00     libucrt:log10.obj
 0002:00008f10       __real_qnanbit             000000018002af10     libucrt:log10.obj
 0002:00008f20       __int_1023                 000000018002af20     libucrt:log10.obj
 0002:00008f30       __mask_001                 000000018002af30     libucrt:log10.obj
 0002:00008f40       __mask_mant                000000018002af40     libucrt:log10.obj
 0002:00008f50       __mask_mant_top8           000000018002af50     libucrt:log10.obj
 0002:00008f60       __mask_mant9               000000018002af60     libucrt:log10.obj
 0002:00008f70       __real_log10_e             000000018002af70     libucrt:log10.obj
 0002:00008f80       __real_log10_e_lead        000000018002af80     libucrt:log10.obj
 0002:00008f90       __real_log10_e_tail        000000018002af90     libucrt:log10.obj
 0002:00008fa0       __real_log10_2_lead        000000018002afa0     libucrt:log10.obj
 0002:00008fb0       __real_log10_2_tail        000000018002afb0     libucrt:log10.obj
 0002:00008fc0       __real_two                 000000018002afc0     libucrt:log10.obj
 0002:00008fd0       __real_one                 000000018002afd0     libucrt:log10.obj
 0002:00008fe0       __real_half                000000018002afe0     libucrt:log10.obj
 0002:00008ff0       __mask_100                 000000018002aff0     libucrt:log10.obj
 0002:00009000       __real_1_over_512          000000018002b000     libucrt:log10.obj
 0002:00009010       __real_1_over_2            000000018002b010     libucrt:log10.obj
 0002:00009020       __real_1_over_3            000000018002b020     libucrt:log10.obj
 0002:00009030       __real_1_over_4            000000018002b030     libucrt:log10.obj
 0002:00009040       __real_1_over_5            000000018002b040     libucrt:log10.obj
 0002:00009050       __real_1_over_6            000000018002b050     libucrt:log10.obj
 0002:00009060       __real_neg_1023            000000018002b060     libucrt:log10.obj
 0002:00009070       __mask_2045                000000018002b070     libucrt:log10.obj
 0002:00009080       __real_threshold           000000018002b080     libucrt:log10.obj
 0002:00009090       __real_near_one_lt         000000018002b090     libucrt:log10.obj
 0002:000090a0       __real_near_one_gt         000000018002b0a0     libucrt:log10.obj
 0002:000090b0       __real_min_norm            000000018002b0b0     libucrt:log10.obj
 0002:000090c0       __real_notsign             000000018002b0c0     libucrt:log10.obj
 0002:000090d0       __real_ca1                 000000018002b0d0     libucrt:log10.obj
 0002:000090e0       __real_ca2                 000000018002b0e0     libucrt:log10.obj
 0002:000090f0       __real_ca3                 000000018002b0f0     libucrt:log10.obj
 0002:00009100       __real_ca4                 000000018002b100     libucrt:log10.obj
 0002:00009110       __mask_lower               000000018002b110     libucrt:log10.obj
 0002:00009120       __flag_x_zero              000000018002b120     libucrt:log10.obj
 0002:00009124       __flag_x_neg               000000018002b124     libucrt:log10.obj
 0002:00009128       __flag_x_nan               000000018002b128     libucrt:log10.obj
 0002:0000a970       __real@433fffffffffffff    000000018002c970     libucrt:fpsr.obj
 0002:0000a978       __real@c33fffffffffffff    000000018002c978     libucrt:fpsr.obj
 0002:0000b1c0       $unwind$_invalid_parameter_noinfo 000000018002d1c0     libucrt:invalid_parameter.obj
 0002:0000b1c0       $unwind$?ProcessWindowMessage@?$CComControl@VCOPOSElectronicJournal@@V?$CWindowImpl@VCOPOSElectronicJournal@@VCWindow@ATL@@V?$CWinTraits@$0FGAAAAAA@$0A@@3@@ATL@@@ATL@@UEAAHPEAUHWND__@@I_K_JAEA_JK@Z 000000018002d1c0     ElectronicJournal.obj
 0002:0000b1c0       $unwind$?cw_memcpy@@YAHPEA_WPEBDH@Z 000000018002d1c0     CWString.obj
 0002:0000b1c0       $unwind$_log10_special     000000018002d1c0     libucrt:log_special.obj
 0002:0000b1c8       $unwind$?AtlThrowImpl@ATL@@YAXJ@Z 000000018002d1c8     ElectronicJournal.obj
 0002:0000b1c8       $unwind$?initialize_multibyte@@YAHXZ 000000018002d1c8     libucrt:multibyte_initializer.obj
 0002:0000b1c8       $unwind$??__E_AtlComModule@ATL@@YAXXZ 000000018002d1c8     OposVariant.obj
 0002:0000b1c8       $unwind$?__scrt_uninitialize_thread_safe_statics@@YAXXZ 000000018002d1c8     LIBCMT:thread_safe_statics.obj
 0002:0000b1c8       $unwind$__GSHandlerCheck   000000018002d1c8     LIBCMT:_gshandler_.obj
 0002:0000b1c8       $unwind$?_LocCPQueryInterface@?$IConnectionPointImpl@VCOPOSElectronicJournal@@$1?IID_IPropertyNotifySink@@3U_GUID@@BVCComDynamicUnkArray@ATL@@@ATL@@UEAAJAEBU_GUID@@PEAPEAX@Z 000000018002d1c8     ElectronicJournal.obj
 0002:0000b1c8       $unwind$?AtlHresultFromLastError@ATL@@YAJXZ 000000018002d1c8     ElectronicJournal.obj
 0002:0000b1c8       $unwind$?_LocCPQueryInterface@?$IConnectionPointImpl@VCOPOSElectronicJournal@@$1?DIID__IOPOSElectronicJournalEvents@@3U_GUID@@BVCComDynamicUnkArray@ATL@@@ATL@@UEAAJAEBU_GUID@@PEAPEAX@Z 000000018002d1c8     ElectronicJournal.obj
 0002:0000b1c8       $unwind$??__E_AtlWinModule@ATL@@YAXXZ 000000018002d1c8     OposVariant.obj
 0002:0000b1c8       $unwind$??__F_AtlWinModule@ATL@@YAXXZ 000000018002d1c8     OposVariant.obj
 0002:0000b1c8       $unwind$__acrt_uninitialize_critical 000000018002d1c8     libucrt:initialization.obj
 0002:0000b1c8       $unwind$?GetAdvise@?$IViewObjectExImpl@VCOPOSElectronicJournal@@@ATL@@UEAAJPEAK0PEAPEAUIAdviseSink@@@Z 000000018002d1c8     ElectronicJournal.obj
 0002:0000b1c8       $unwind$__acrt_thread_attach 000000018002d1c8     libucrt:initialization.obj
 0002:0000b1c8       $unwind$_purecall          000000018002d1c8     libvcruntime:purevirt.obj
 0002:0000b1c8       $unwind$_get_osfhandle     000000018002d1c8     libucrt:osfinfo.obj
 0002:0000b1c8       $unwind$__acrt_thread_detach 000000018002d1c8     libucrt:initialization.obj
 0002:0000b1c8       $unwind$initialize_c       000000018002d1c8     libucrt:initialization.obj
 0002:0000b1c8       $unwind$?OnDocWindowActivate@?$IOleInPlaceActiveObjectImpl@VCOPOSElectronicJournal@@@ATL@@UEAAJH@Z 000000018002d1c8     ElectronicJournal.obj
 0002:0000b1c8       $unwind$?GetLONG@OposVariant@@QEAAJXZ 000000018002d1c8     OposVariant.obj
 0002:0000b1c8       $unwind$__vcrt_initialize  000000018002d1c8     libvcruntime:initialization.obj
 0002:0000b1c8       $unwind$__vcrt_uninitialize 000000018002d1c8     libvcruntime:initialization.obj
 0002:0000b1c8       $unwind$__vcrt_uninitialize_critical 000000018002d1c8     libvcruntime:initialization.obj
 0002:0000b1c8       $unwind$__vcrt_thread_attach 000000018002d1c8     libvcruntime:initialization.obj
 0002:0000b1c8       $unwind$__vcrt_thread_detach 000000018002d1c8     libvcruntime:initialization.obj
 0002:0000b1c8       $unwind$uninitialize_environment 000000018002d1c8     libucrt:initialization.obj
 0002:0000b1c8       $unwind$_getfpcontrolword  000000018002d1c8     libucrt:_fenvutils.obj
 0002:0000b1c8       $unwind$__std_terminate    000000018002d1c8     libvcruntime:ehhelpers.obj
 0002:0000b1c8       $unwind$_getfpstatusword   000000018002d1c8     libucrt:_fenvutils.obj
 0002:0000b1c8       $unwind$__acrt_update_thread_multibyte_data 000000018002d1c8     libucrt:mbctype.obj
 0002:0000b1c8       $unwind$__scrt_initialize_default_local_stdio_options 000000018002d1c8     LIBCMT:default_local_stdio_options.obj
 0002:0000b1c8       $unwind$__FrameUnwindFilter 000000018002d1c8     libvcruntime:ehhelpers.obj
 0002:0000b1c8       $unwind$?EnumAdvise@?$IOleObjectImpl@VCOPOSElectronicJournal@@@ATL@@UEAAJPEAPEAUIEnumSTATDATA@@@Z 000000018002d1c8     ElectronicJournal.obj
 0002:0000b1c8       $unwind$uninitialize_allocated_memory 000000018002d1c8     libucrt:initialization.obj
 0002:0000b1c8       $unwind$?Unadvise@?$IOleObjectImpl@VCOPOSElectronicJournal@@@ATL@@UEAAJK@Z 000000018002d1c8     ElectronicJournal.obj
 0002:0000b1c8       $unwind$??$uninitialize_environment_internal@_W@@YAXAEAPEAPEA_W@Z 000000018002d1c8     libucrt:environment_initialization.obj
 0002:0000b1c8       $unwind$??$uninitialize_environment_internal@D@@YAXAEAPEAPEAD@Z 000000018002d1c8     libucrt:environment_initialization.obj
 0002:0000b1c8       $unwind$__acrt_initialize_multibyte 000000018002d1c8     libucrt:mbctype.obj
 0002:0000b1c8       $unwind$?cw_strcpy@@YAHPEA_WPEBD@Z 000000018002d1c8     CWString.obj
 0002:0000b1c8       $unwind$__dcrt_uninitialize_environments_nolock 000000018002d1c8     libucrt:environment_initialization.obj
 0002:0000b1c8       $unwind$__pctype_func      000000018002d1c8     libucrt:ctype.obj
 0002:0000b1c8       $unwind$__acrt_initialize_heap 000000018002d1c8     libucrt:heap_handle.obj
 0002:0000b1c8       $unwind$??__F_Module@@YAXXZ 000000018002d1c8     ElectronicJournal.obj
 0002:0000b1c8       $unwind$__scrt_dllmain_crt_thread_detach 000000018002d1c8     LIBCMT:utility.obj
 0002:0000b1c8       $unwind$_fileno            000000018002d1c8     libucrt:fileno.obj
 0002:0000b1c8       $unwind$_GetImageBase      000000018002d1c8     libvcruntime:risctrnsctrl.obj
 0002:0000b1c8       $unwind$abort              000000018002d1c8     libucrt:abort.obj
 0002:0000b1c8       $unwind$_GetThrowImageBase 000000018002d1c8     libvcruntime:risctrnsctrl.obj
 0002:0000b1c8       $unwind$__acrt_release_locale_ref 000000018002d1c8     libucrt:locale_refcounting.obj
 0002:0000b1c8       $unwind$_set_errno_from_matherr 000000018002d1c8     libucrt:fpexcept.obj
 0002:0000b1c8       $unwind$__scrt_dllmain_crt_thread_attach 000000018002d1c8     LIBCMT:utility.obj
 0002:0000b1c8       $unwind$atexit             000000018002d1c8     LIBCMT:utility.obj
 0002:0000b1c8       $unwind$__scrt_dllmain_uninitialize_critical 000000018002d1c8     LIBCMT:utility.obj
 0002:0000b1c8       $unwind$??__E_AtlBaseModule@ATL@@YAXXZ 000000018002d1c8     atls:atlbase.obj
 0002:0000b1c8       $unwind$_isatty            000000018002d1c8     libucrt:isatty.obj
 0002:0000b1c8       $unwind$??1OposDispParms@@QEAA@XZ 000000018002d1c8     OposVariant.obj
 0002:0000b1c8       $unwind$?FireViewChange@CComControlBase@ATL@@QEAAJXZ 000000018002d1c8     ElectronicJournal.obj
 0002:0000b1c8       $unwind$_statfp            000000018002d1c8     libucrt:fpctrl.obj
 0002:0000b1c8       $unwind$__acrt_initialize_command_line 000000018002d1c8     libucrt:argv_data.obj
 0002:0000b1c8       $unwind$__scrt_dllmain_uninitialize_c 000000018002d1c8     LIBCMT:utility.obj
 0002:0000b1c8       $unwind$?state_case_size@?$output_processor@_WV?$string_output_adapter@_W@__crt_stdio_output@@V?$format_validation_base@_WV?$string_output_adapter@_W@__crt_stdio_output@@@2@@__crt_stdio_output@@AEAA_NXZ 000000018002d1c8     libucrt:output.obj
 0002:0000b1c8       $unwind$__acrt_initialize_ptd 000000018002d1c8     libucrt:per_thread_data.obj
 0002:0000b1c8       $unwind$__dcrt_terminate_console_output 000000018002d1c8     libucrt:initcon.obj
 0002:0000b1c8       $unwind$__acrt_uninitialize_ptd 000000018002d1c8     libucrt:per_thread_data.obj
 0002:0000b1c8       $unwind$__vcrt_initialize_ptd 000000018002d1c8     libvcruntime:per_thread_data.obj
 0002:0000b1c8       $unwind$__vcrt_uninitialize_ptd 000000018002d1c8     libvcruntime:per_thread_data.obj
 0002:0000b1c8       $unwind$??__E?pConnMap@?$IConnectionPointContainerImpl@VCOPOSElectronicJournal@@@ATL@@0PEBU_ATL_CONNMAP_ENTRY@2@EB@@YAXXZ 000000018002d1c8     ElectronicJournal.obj
 0002:0000b1c8       $unwind$__vcrt_getptd      000000018002d1c8     libvcruntime:per_thread_data.obj
 0002:0000b1c8       $unwind$__scrt_dllmain_after_initialize_c 000000018002d1c8     LIBCMT:utility.obj
 0002:0000b1c8       $unwind$?FinalConstruct@COPOSElectronicJournal@@QEAAJXZ 000000018002d1c8     ElectronicJournalImpl.obj
 0002:0000b1c8       $unwind$__scrt_dllmain_before_initialize_c 000000018002d1c8     LIBCMT:utility.obj
 0002:0000b1c8       $unwind$__vcrt_freefls     000000018002d1c8     libvcruntime:per_thread_data.obj
 0002:0000b1c8       $unwind$__doserrno         000000018002d1c8     libucrt:errno.obj
 0002:0000b1c8       $unwind$_errno             000000018002d1c8     libucrt:errno.obj
 0002:0000b1c8       $unwind$?dllmain_crt_dispatch@@YAHQEAUHINSTANCE__@@KQEAX@Z 000000018002d1c8     LIBCMT:dll_dllmain.obj
 0002:0000b1c8       $unwind$_invoke_watson     000000018002d1c8     libucrt:invalid_parameter.obj
 0002:0000b1c8       $unwind$__report_rangecheckfailure 000000018002d1c8     LIBCMT:gs_report.obj
 0002:0000b1c8       $unwind$?get_ResultCode@COPOSElectronicJournal@@UEAAJPEAJ@Z 000000018002d1c8     ElectronicJournalImpl.obj
 0002:0000b1c8       $unwind$?get_State@COPOSElectronicJournal@@UEAAJPEAJ@Z 000000018002d1c8     ElectronicJournalImpl.obj
 0002:0000b1c8       $unwind$?DefaultReflectionHandler@?$CWindowImplRoot@VCWindow@ATL@@@ATL@@SAHPEAUHWND__@@I_K_JAEA_J@Z 000000018002d1c8     ElectronicJournal.obj
 0002:0000b1c8       $unwind$tolower            000000018002d1c8     libucrt:tolower_toupper.obj
 0002:0000b1c8       $unwind$_msize_base        000000018002d1c8     libucrt:msize.obj
 0002:0000b1c8       $unwind$__scrt_acquire_startup_lock 000000018002d1c8     LIBCMT:utility.obj
 0002:0000b1c8       $unwind$__acrt_DownlevelLocaleNameToLCID 000000018002d1c8     libucrt:lcidtoname_downlevel.obj
 0002:0000b1c8       $unwind$?LockServer@CComClassFactory@ATL@@UEAAJH@Z 000000018002d1c8     ElectronicJournal.obj
 0002:0000b1c8       $unwind$?CreateInstance@CComClassFactory@ATL@@UEAAJPEAUIUnknown@@AEBU_GUID@@PEAPEAX@Z 000000018002d1c8     ElectronicJournal.obj
 0002:0000b1c8       $unwind$?GetCurrentState@__FrameHandler3@@SAHPEA_KPEAU_xDISPATCHER_CONTEXT@@PEBU_s_FuncInfo@@@Z 000000018002d1c8     libvcruntime:ehstate.obj
 0002:0000b1c8       $unwind$?AddReplacement@CRegObject@ATL@@UEAAJPEB_W0@Z 000000018002d1c8     ElectronicJournal.obj
 0002:0000b1c8       $unwind$_Init_thread_notify 000000018002d1c8     LIBCMT:thread_safe_statics.obj
 0002:0000b1d0       $unwind$??_Estringdispid@CComTypeInfoHolder@ATL@@QEAAPEAXI@Z 000000018002d1d0     OposVariant.obj
 0002:0000b1d0       $unwind$?cw_dup@@YAXPEBDAEAHAEAPEA_W1@Z 000000018002d1d0     CWString.obj
 0002:0000b1d0       $unwind$__GSHandlerCheck_SEH 000000018002d1d0     LIBCMT:_gshandlerseh_.obj
 0002:0000b1d0       $unwind$?AtlComModuleRegisterServer@ATL@@YAJPEAU_ATL_COM_MODULE70@1@HPEBU_GUID@@@Z 000000018002d1d0     ElectronicJournal.obj
 0002:0000b1d0       $unwind$?AtlComModuleUnregisterServer@ATL@@YAJPEAU_ATL_COM_MODULE70@1@HPEBU_GUID@@@Z 000000018002d1d0     ElectronicJournal.obj
 0002:0000b1d0       $unwind$__acrt_initialize_stdio 000000018002d1d0     libucrt:_file.obj
 0002:0000b1d0       $unwind$?AtlModuleAddTermFunc@ATL@@YAJPEAU_ATL_MODULE70@1@P6AX_K@Z1@Z 000000018002d1d0     ElectronicJournal.obj
 0002:0000b1d0       $unwind$?CreateInstance@?$CComCreator@V?$CComAggObject@VCOPOSElectronicJournal@@@ATL@@@ATL@@SAJPEAXAEBU_GUID@@PEAPEAX@Z 000000018002d1d0     ElectronicJournal.obj
 0002:0000b1d0       $unwind$?process@?$output_processor@_WV?$string_output_adapter@_W@__crt_stdio_output@@V?$format_validation_base@_WV?$string_output_adapter@_W@__crt_stdio_output@@@2@@__crt_stdio_output@@QEAAHXZ 000000018002d1d0     libucrt:output.obj
 0002:0000b1d0       $unwind$?GetPagesHelper@?$ISpecifyPropertyPagesImpl@VCOPOSElectronicJournal@@@ATL@@IEAAJPEAUtagCAUUID@@PEBUATL_PROPMAP_ENTRY@2@@Z 000000018002d1d0     ElectronicJournal.obj
 0002:0000b1d0       $unwind$??$TypeMatchHelper@$$CBU_s_HandlerType@@@@YAHPEBU_s_HandlerType@@PEBU_s_CatchableType@@PEBU_s_ThrowInfo@@@Z 000000018002d1d0     libvcruntime:frame.obj
 0002:0000b1e8       $unwind$__acrt_AppPolicyGetProcessTerminationMethodInternal 000000018002d1e8     libucrt:winapi_thunks.obj
 0002:0000b1e8       $unwind$?GetUnwindTryBlock@__FrameHandler3@@SAHPEA_KPEAU_xDISPATCHER_CONTEXT@@PEBU_s_FuncInfo@@@Z 000000018002d1e8     libvcruntime:ehstate.obj
 0002:0000b1e8       $unwind$?get_CapPrintContentFile@COPOSElectronicJournal@@UEAAJPEAF@Z 000000018002d1e8     ElectronicJournalImpl.obj
 0002:0000b1e8       $unwind$?get_CapPrintContent@COPOSElectronicJournal@@UEAAJPEAF@Z 000000018002d1e8     ElectronicJournalImpl.obj
 0002:0000b1e8       $unwind$?get_CapMediumIsAvailable@COPOSElectronicJournal@@UEAAJPEAF@Z 000000018002d1e8     ElectronicJournalImpl.obj
 0002:0000b1e8       $unwind$?get_CapSuspendPrintContent@COPOSElectronicJournal@@UEAAJPEAF@Z 000000018002d1e8     ElectronicJournalImpl.obj
 0002:0000b1e8       $unwind$?get_CapInitializeMedium@COPOSElectronicJournal@@UEAAJPEAF@Z 000000018002d1e8     ElectronicJournalImpl.obj
 0002:0000b1e8       $unwind$?get_CapSuspendQueryContent@COPOSElectronicJournal@@UEAAJPEAF@Z 000000018002d1e8     ElectronicJournalImpl.obj
 0002:0000b1e8       $unwind$?get_CapErasableMedium@COPOSElectronicJournal@@UEAAJPEAF@Z 000000018002d1e8     ElectronicJournalImpl.obj
 0002:0000b1e8       $unwind$?get_CapAddMarker@COPOSElectronicJournal@@UEAAJPEAF@Z 000000018002d1e8     ElectronicJournalImpl.obj
 0002:0000b1e8       $unwind$__acrt_FlsGetValue 000000018002d1e8     libucrt:winapi_thunks.obj
 0002:0000b1e8       $unwind$?get_AsyncMode@COPOSElectronicJournal@@UEAAJPEAF@Z 000000018002d1e8     ElectronicJournalImpl.obj
 0002:0000b1e8       $unwind$__acrt_FlsFree     000000018002d1e8     libucrt:winapi_thunks.obj
 0002:0000b1e8       $unwind$?get_CapWaterMark@COPOSElectronicJournal@@UEAAJPEAF@Z 000000018002d1e8     ElectronicJournalImpl.obj
 0002:0000b1e8       $unwind$__acrt_FlsAlloc    000000018002d1e8     libucrt:winapi_thunks.obj
 0002:0000b1e8       $unwind$?get_FlagWhenIdle@COPOSElectronicJournal@@UEAAJPEAF@Z 000000018002d1e8     ElectronicJournalImpl.obj
 0002:0000b1e8       $unwind$__acrt_uninitialize_winapi_thunks 000000018002d1e8     libucrt:winapi_thunks.obj
 0002:0000b1e8       $unwind$??_Gtype_info@@UEAAPEAXI@Z 000000018002d1e8     LIBCMT:std_type_info_static.obj
 0002:0000b1e8       $unwind$__scrt_release_startup_lock 000000018002d1e8     LIBCMT:utility.obj
 0002:0000b1e8       $unwind$??0bad_exception@std@@QEAA@AEBV01@@Z 000000018002d1e8     libvcruntime:frame.obj
 0002:0000b1e8       $unwind$?ExFilterRethrow@@YAHPEAU_EXCEPTION_POINTERS@@PEAUEHExceptionRecord@@PEAH@Z 000000018002d1e8     libvcruntime:frame.obj
 0002:0000b1e8       $unwind$?AtlCreateTargetDC@ATL@@YAPEAUHDC__@@PEAU2@PEAUtagDVTARGETDEVICE@@@Z 000000018002d1e8     ElectronicJournal.obj
 0002:0000b1e8       $unwind$?get_CapUpdateFirmware@COPOSElectronicJournal@@UEAAJPEAF@Z 000000018002d1e8     ElectronicJournalImpl.obj
 0002:0000b1e8       $unwind$__scrt_initialize_crt 000000018002d1e8     LIBCMT:utility.obj
 0002:0000b1e8       $unwind$?get_MediumIsAvailable@COPOSElectronicJournal@@UEAAJPEAF@Z 000000018002d1e8     ElectronicJournalImpl.obj
 0002:0000b1e8       $unwind$?get_StorageEnabled@COPOSElectronicJournal@@UEAAJPEAF@Z 000000018002d1e8     ElectronicJournalImpl.obj
 0002:0000b1e8       $unwind$_malloc_base       000000018002d1e8     libucrt:malloc_base.obj
 0002:0000b1e8       $unwind$?get_CapCompareFirmwareVersion@COPOSElectronicJournal@@UEAAJPEAF@Z 000000018002d1e8     ElectronicJournalImpl.obj
 0002:0000b1e8       $unwind$_calloc_base       000000018002d1e8     libucrt:calloc_base.obj
 0002:0000b1e8       $unwind$?get_CapUpdateStatistics@COPOSElectronicJournal@@UEAAJPEAF@Z 000000018002d1e8     ElectronicJournalImpl.obj
 0002:0000b1e8       $unwind$?get_CapStatisticsReporting@COPOSElectronicJournal@@UEAAJPEAF@Z 000000018002d1e8     ElectronicJournalImpl.obj
 0002:0000b1e8       $unwind$?IsEqualObject@?$CComPtrBase@UITypeInfo@@@ATL@@QEAA_NPEAUIUnknown@@@Z 000000018002d1e8     ElectronicJournal.obj
 0002:0000b1e8       $unwind$?get_Suspended@COPOSElectronicJournal@@UEAAJPEAF@Z 000000018002d1e8     ElectronicJournalImpl.obj
 0002:0000b1e8       $unwind$?IsEqualObject@?$CComPtrBase@UIOleClientSite@@@ATL@@QEAA_NPEAUIUnknown@@@Z 000000018002d1e8     ElectronicJournal.obj
 0002:0000b1e8       $unwind$__scrt_uninitialize_crt 000000018002d1e8     LIBCMT:utility.obj
 0002:0000b1e8       $unwind$?get_WaterMark@COPOSElectronicJournal@@UEAAJPEAF@Z 000000018002d1e8     ElectronicJournalImpl.obj
 0002:0000b1e8       $unwind$__vcrt_FlsGetValue 000000018002d1e8     libvcruntime:winapi_downlevel.obj
 0002:0000b1e8       $unwind$?put_FreezeEvents@COPOSElectronicJournal@@UEAAJF@Z 000000018002d1e8     ElectronicJournalImpl.obj
 0002:0000b1e8       $unwind$?get_FreezeEvents@COPOSElectronicJournal@@UEAAJPEAF@Z 000000018002d1e8     ElectronicJournalImpl.obj
 0002:0000b1e8       $unwind$?get_DeviceEnabled@COPOSElectronicJournal@@UEAAJPEAF@Z 000000018002d1e8     ElectronicJournalImpl.obj
 0002:0000b1e8       $unwind$?get_DataEventEnabled@COPOSElectronicJournal@@UEAAJPEAF@Z 000000018002d1e8     ElectronicJournalImpl.obj
 0002:0000b1e8       $unwind$?get_Claimed@COPOSElectronicJournal@@UEAAJPEAF@Z 000000018002d1e8     ElectronicJournalImpl.obj
 0002:0000b1e8       $unwind$?get_AutoDisable@COPOSElectronicJournal@@UEAAJPEAF@Z 000000018002d1e8     ElectronicJournalImpl.obj
 0002:0000b1e8       $unwind$?SOProcessID@COPOSElectronicJournal@@UEAAJPEAJ@Z 000000018002d1e8     ElectronicJournalImpl.obj
 0002:0000b1e8       $unwind$__vcrt_FlsFree     000000018002d1e8     libvcruntime:winapi_downlevel.obj
 0002:0000b1e8       $unwind$??0bad_array_new_length@std@@QEAA@AEBV01@@Z 000000018002d1e8     LIBCMT:throw_bad_alloc.obj
 0002:0000b1e8       $unwind$?EventUninit@COPOSElectronicJournal@@IEAAXXZ 000000018002d1e8     ElectronicJournalImpl.obj
 0002:0000b1e8       $unwind$?FreezeEvents@COPOSElectronicJournal@@MEAAJH@Z 000000018002d1e8     ElectronicJournalImpl.obj
 0002:0000b1e8       $unwind$__vcrt_FlsAlloc    000000018002d1e8     libvcruntime:winapi_downlevel.obj
 0002:0000b1e8       $unwind$__vcrt_uninitialize_locks 000000018002d1e8     libvcruntime:locks.obj
 0002:0000b1e8       $unwind$__vcrt_initialize_locks 000000018002d1e8     libvcruntime:locks.obj
 0002:0000b1e8       $unwind$??1COPOSElectronicJournal@@UEAA@XZ 000000018002d1e8     ElectronicJournalImpl.obj
 0002:0000b1e8       $unwind$__raise_securityfailure 000000018002d1e8     LIBCMT:gs_report.obj
 0002:0000b1e8       $unwind$__vcrt_freeptd     000000018002d1e8     libvcruntime:per_thread_data.obj
 0002:0000b1e8       $unwind$__acrt_freeptd     000000018002d1e8     libucrt:per_thread_data.obj
 0002:0000b1e8       $unwind$wcscat_s           000000018002d1e8     libucrt:wcscat_s.obj
 0002:0000b1e8       $unwind$__acrt_SetThreadStackGuarantee 000000018002d1e8     libucrt:winapi_thunks.obj
 0002:0000b1e8       $unwind$??1CComControlBase@ATL@@UEAA@XZ 000000018002d1e8     ElectronicJournalImpl.obj
 0002:0000b1e8       $unwind$__acrt_getptd_head 000000018002d1e8     libucrt:per_thread_data.obj
 0002:0000b1e8       $unwind$__acrt_update_locale_info 000000018002d1e8     libucrt:locale_update.obj
 0002:0000b1e8       $unwind$?AllocateHeap@?$CTempBuffer@E$0BAA@VCCRTAllocator@ATL@@@ATL@@AEAAX_K@Z 000000018002d1e8     ElectronicJournal.obj
 0002:0000b1e8       $unwind$__acrt_update_multibyte_info 000000018002d1e8     libucrt:locale_update.obj
 0002:0000b1e8       $unwind$??1CAtlBaseModule@ATL@@QEAA@XZ 000000018002d1e8     atls:atlbase.obj
 0002:0000b1e8       $unwind$?IOleObject_SetExtent@CComControlBase@ATL@@QEAAJKPEAUtagSIZE@@@Z 000000018002d1e8     ElectronicJournal.obj
 0002:0000b1e8       $unwind$__std_exception_destroy 000000018002d1e8     libvcruntime:std_exception.obj
 0002:0000b1e8       $unwind$?IOleInPlaceObject_InPlaceDeactivate@CComControlBase@ATL@@QEAAJXZ 000000018002d1e8     ElectronicJournal.obj
 0002:0000b1e8       $unwind$??0bad_alloc@std@@QEAA@AEBV01@@Z 000000018002d1e8     LIBCMT:throw_bad_alloc.obj
 0002:0000b1e8       $unwind$_set_statfp        000000018002d1e8     libucrt:fpctrl.obj
 0002:0000b1e8       $unwind$__std_type_info_destroy_list 000000018002d1e8     libvcruntime:std_type_info.obj
 0002:0000b1e8       $unwind$??1?$CComObject@VCOPOSElectronicJournal@@@ATL@@UEAA@XZ 000000018002d1e8     ElectronicJournal.obj
 0002:0000b1e8       $unwind$__acrt_stdio_free_buffer_nolock 000000018002d1e8     libucrt:_freebuf.obj
 0002:0000b1e8       $unwind$??0?$CComObject@VCOPOSElectronicJournal@@@ATL@@QEAA@PEAX@Z 000000018002d1e8     ElectronicJournal.obj
 0002:0000b1e8       $unwind$?type_case_integer@?$output_processor@_WV?$string_output_adapter@_W@__crt_stdio_output@@V?$format_validation_base@_WV?$string_output_adapter@_W@__crt_stdio_output@@@2@@__crt_stdio_output@@AEAA_NI_N@Z 000000018002d1e8     libucrt:output.obj
 0002:0000b1e8       $unwind$_onexit            000000018002d1e8     LIBCMT:utility.obj
 0002:0000b1e8       $unwind$?QueryInterface@?$CComAggObject@VCOPOSElectronicJournal@@@ATL@@UEAAJAEBU_GUID@@PEAPEAX@Z 000000018002d1e8     ElectronicJournal.obj
 0002:0000b1e8       $unwind$_clrfp             000000018002d1e8     libucrt:fpctrl.obj
 0002:0000b1e8       $unwind$??0exception@std@@QEAA@AEBV01@@Z 000000018002d1e8     LIBCMT:throw_bad_alloc.obj
 0002:0000b1e8       $unwind$?Release@?$CComObjectCached@VCComClassFactory@ATL@@@ATL@@UEAAKXZ 000000018002d1e8     ElectronicJournal.obj
 0002:0000b1e8       $unwind$?GetTypeInfo@?$IDispatchImpl@UIOPOSElectronicJournal@@$1?IID_IOPOSElectronicJournal@@3U_GUID@@B$1?LIBID_OposElectronicJournal_CCO@@3U3@B$00$0A@VCComTypeInfoHolder@ATL@@@ATL@@UEAAJIKPEAPEAUITypeInfo@@@Z 000000018002d1e8     ElectronicJournal.obj
 0002:0000b1e8       $unwind$_CreateFrameInfo   000000018002d1e8     libvcruntime:risctrnsctrl.obj
 0002:0000b1e8       $unwind$?AddRef@?$CComObjectCached@VCComClassFactory@ATL@@@ATL@@UEAAKXZ 000000018002d1e8     ElectronicJournal.obj
 0002:0000b1e8       $unwind$strcpy_s           000000018002d1e8     libucrt:strcpy_s.obj
 0002:0000b1e8       $unwind$_SetThrowImageBase 000000018002d1e8     libvcruntime:risctrnsctrl.obj
 0002:0000b1e8       $unwind$_SetImageBase      000000018002d1e8     libvcruntime:risctrnsctrl.obj
 0002:0000b1e8       $unwind$?try_cor_exit_process@@YAXI@Z 000000018002d1e8     libucrt:exit.obj
 0002:0000b1e8       $unwind$?get_CapRetrieveCurrentMarker@COPOSElectronicJournal@@UEAAJPEAF@Z 000000018002d1e8     ElectronicJournalImpl.obj
 0002:0000b1e8       $unwind$?Load@?$IPersistStreamInitImpl@VCOPOSElectronicJournal@@@ATL@@UEAAJPEAUIStream@@@Z 000000018002d1e8     ElectronicJournal.obj
 0002:0000b1e8       $unwind$?exit_or_terminate_process@@YAXI@Z 000000018002d1e8     libucrt:exit.obj
 0002:0000b1e8       $unwind$?AllocateHeap@?$CTempBuffer@_W$0BAA@VCCRTAllocator@ATL@@@ATL@@AEAAX_K@Z 000000018002d1e8     ElectronicJournal.obj
 0002:0000b1e8       $unwind$?AllocateHeap@?$CTempBuffer@_W$0EAA@VCCRTAllocator@ATL@@@ATL@@AEAAX_K@Z 000000018002d1e8     ElectronicJournal.obj
 0002:0000b1e8       $unwind$??__E_Module@@YAXXZ 000000018002d1e8     ElectronicJournal.obj
 0002:0000b1e8       $unwind$?GetClientSite@?$IOleObjectImpl@VCOPOSElectronicJournal@@@ATL@@UEAAJPEAPEAUIOleClientSite@@@Z 000000018002d1e8     ElectronicJournal.obj
 0002:0000b1e8       $unwind$_callnewh          000000018002d1e8     libucrt:new_handler.obj
 0002:0000b1e8       $unwind$?get_CapRetrieveMarker@COPOSElectronicJournal@@UEAAJPEAF@Z 000000018002d1e8     ElectronicJournalImpl.obj
 0002:0000b1e8       $unwind$__acrt_allocate_buffer_for_argv 000000018002d1e8     libucrt:argv_parsing.obj
 0002:0000b1e8       $unwind$__acrt_uninitialize_stdio 000000018002d1e8     libucrt:_file.obj
 0002:0000b1e8       $unwind$?GetConnMap@COPOSElectronicJournal@@SAPEBU_ATL_CONNMAP_ENTRY@ATL@@PEAH@Z 000000018002d1e8     ElectronicJournal.obj
 0002:0000b1e8       $unwind$?get_CapStorageEnabled@COPOSElectronicJournal@@UEAAJPEAF@Z 000000018002d1e8     ElectronicJournalImpl.obj
 0002:0000b1e8       $unwind$?SetBSTR_OutPtr@OposVariant@@QEAA_NPEAPEA_WAEAJ@Z 000000018002d1e8     OposVariant.obj
 0002:0000b1e8       $unwind$?ExecutionInCatch@__FrameHandler3@@SA_NPEAU_xDISPATCHER_CONTEXT@@PEBU_s_FuncInfo@@@Z 000000018002d1e8     libvcruntime:risctrnsctrl.obj
 0002:0000b1e8       $unwind$?get_CapRetrieveMarkersDateTime@COPOSElectronicJournal@@UEAAJPEAF@Z 000000018002d1e8     ElectronicJournalImpl.obj
 0002:0000b1e8       $unwind$?get_CapRetrieveMarkerByDateTime@COPOSElectronicJournal@@UEAAJPEAF@Z 000000018002d1e8     ElectronicJournalImpl.obj
 0002:0000b1e8       $unwind$_clearfp           000000018002d1e8     libucrt:ieee.obj
 0002:0000b1e8       $unwind$initialize_pointers 000000018002d1e8     libucrt:initialization.obj
 0002:0000b1e8       $unwind$_IsExceptionObjectToBeDestroyed 000000018002d1e8     libvcruntime:ehhelpers.obj
 0002:0000b1e8       $unwind$_setfpstatusword   000000018002d1e8     libucrt:_fenvutils.obj
 0002:0000b1e8       $unwind$AtlThunk_AllocateData 000000018002d1e8     atls:atlthunk.obj
 0002:0000b1e8       $unwind$__acrt_initialize_locks 000000018002d1e8     libucrt:locks.obj
 0002:0000b1e8       $unwind$?Unadvise@?$IConnectionPointImpl@VCOPOSElectronicJournal@@$1?DIID__IOPOSElectronicJournalEvents@@3U_GUID@@BVCComDynamicUnkArray@ATL@@@ATL@@UEAAJK@Z 000000018002d1e8     ElectronicJournal.obj
 0002:0000b1e8       $unwind$?DupWide@_CW@@AEAAXXZ 000000018002d1e8     CWString.obj
 0002:0000b1e8       $unwind$__acrt_uninitialize_locks 000000018002d1e8     libucrt:locks.obj
 0002:0000b1e8       $unwind$?StateFromIp@__FrameHandler3@@SAHPEBU_s_FuncInfo@@PEAU_xDISPATCHER_CONTEXT@@_K@Z 000000018002d1e8     libvcruntime:ehstate.obj
 0002:0000b1e8       $unwind$_fflush_nolock     000000018002d1e8     libucrt:fflush.obj
 0002:0000b1e8       $unwind$__acrt_get_process_end_policy 000000018002d1e8     libucrt:win_policies.obj
 0002:0000b1e8       $unwind$?QueryHitPoint@?$IViewObjectExImpl@VCOPOSElectronicJournal@@@ATL@@UEAAJKPEBUtagRECT@@UtagPOINT@@JPEAK@Z 000000018002d1e8     ElectronicJournal.obj
 0002:0000b1e8       $unwind$feholdexcept       000000018002d1e8     libucrt:feholdexcept.obj
 0002:0000b1e8       $unwind$?Unadvise@?$IConnectionPointImpl@VCOPOSElectronicJournal@@$1?IID_IPropertyNotifySink@@3U_GUID@@BVCComDynamicUnkArray@ATL@@@ATL@@UEAAJK@Z 000000018002d1e8     ElectronicJournal.obj
 0002:0000b1e8       $unwind$_Init_thread_header 000000018002d1e8     LIBCMT:thread_safe_statics.obj
 0002:0000b1e8       $unwind$fesetenv           000000018002d1e8     libucrt:fesetenv.obj
 0002:0000b1e8       $unwind$fegetenv           000000018002d1e8     libucrt:fegetenv.obj
 0002:0000b1e8       $unwind$_Init_thread_footer 000000018002d1e8     LIBCMT:thread_safe_statics.obj
 0002:0000b1e8       $unwind$_Init_thread_wait  000000018002d1e8     LIBCMT:thread_safe_statics.obj
 0002:0000b1e8       $unwind$?GetClassInfoW@?$IProvideClassInfo2Impl@$1?CLSID_OPOSElectronicJournal@@3U_GUID@@B$1?DIID__IOPOSElectronicJournalEvents@@3U2@B$1?LIBID_OposElectronicJournal_CCO@@3U2@B$00$0A@VCComTypeInfoHolder@ATL@@@ATL@@UEAAJPEAPEAUITypeInfo@@@Z 000000018002d1e8     ElectronicJournal.obj
 0002:0000b1e8       $unwind$??2@YAPEAX_K@Z     000000018002d1e8     LIBCMT:new_scalar.obj
 0002:0000b1e8       $unwind$wcscpy_s           000000018002d1e8     libucrt:wcscpy_s.obj
 0002:0000b1e8       $unwind$__acrt_fp_strflt_to_string 000000018002d1e8     libucrt:_fptostr.obj
 0002:0000b1e8       $unwind$?IPSI_GetIPersistStreamInit@?$IPersistStorageImpl@VCOPOSElectronicJournal@@@ATL@@AEAAPEAUIPersistStreamInit@@XZ 000000018002d1e8     ElectronicJournal.obj
 0002:0000b1f0       $unwind$?AtlWinModuleExtractCreateWndData@ATL@@YAPEAXPEAU_ATL_WIN_MODULE70@1@@Z 000000018002d1f0     ElectronicJournal.obj
 0002:0000b1f0       $unwind$?Next@?$CComEnumImpl@UIEnumConnections@@$1?_GUID_b196b287_bab4_101a_b69c_00aa00341d07@@3U__s_GUID@@BUtagCONNECTDATA@@V?$_Copy@UtagCONNECTDATA@@@ATL@@@ATL@@UEAAJKPEAUtagCONNECTDATA@@PEAK@Z 000000018002d1f0     ElectronicJournal.obj
 0002:0000b1f0       $unwind$__acrt_lowio_create_handle_array 000000018002d1f0     libucrt:osfinfo.obj
 0002:0000b1f0       $unwind$_seh_filter_exe    000000018002d1f0     libucrt:exception_filter.obj
 0002:0000b1f0       $unwind$__acrt_free_locale 000000018002d1f0     libucrt:locale_refcounting.obj
 0002:0000b1f0       $unwind$?Next@?$CComEnumImpl@UIEnumConnectionPoints@@$1?_GUID_b196b285_bab4_101a_b69c_00aa00341d07@@3U__s_GUID@@BPEAUIConnectionPoint@@V?$_CopyInterface@UIConnectionPoint@@@ATL@@@ATL@@UEAAJKPEAPEAUIConnectionPoint@@PEAK@Z 000000018002d1f0     ElectronicJournal.obj
 0002:0000b1f0       $unwind$?Is_bad_exception_allowed@@YAEPEBU_s_ESTypeList@@@Z 000000018002d1f0     libvcruntime:frame.obj
 0002:0000b1f0       $unwind$?setSBCS@@YAXPEAU__crt_multibyte_data@@@Z 000000018002d1f0     libucrt:mbctype.obj
 0002:0000b1f0       $unwind$?Add@CComDynamicUnkArray@ATL@@QEAAKPEAUIUnknown@@@Z 000000018002d1f0     ElectronicJournal.obj
 0002:0000b1f0       $unwind$?CreateInstance@?$CComCreator@V?$CComObject@VCOPOSElectronicJournal@@@ATL@@@ATL@@SAJPEAXAEBU_GUID@@PEAPEAX@Z 000000018002d1f0     ElectronicJournal.obj
 0002:0000b1f0       $unwind$?SetControlFocus@CComControlBase@ATL@@QEAAHH@Z 000000018002d1f0     ElectronicJournal.obj
 0002:0000b1f0       $unwind$?GetHandlerSearchState@__FrameHandler3@@SAHPEA_KPEAU_xDISPATCHER_CONTEXT@@PEBU_s_FuncInfo@@@Z 000000018002d1f0     libvcruntime:frame.obj
 0002:0000b1f0       $unwind$_recalloc_base     000000018002d1f0     libucrt:recalloc.obj
 0002:0000b1f0       $unwind$?DoEvent@COPOSElectronicJournal@@IEAAXI_K_J@Z 000000018002d1f0     ElectronicJournal.obj
 0002:0000b1f0       $unwind$??$ensure_buffer_is_big_enough@D@formatting_buffer@__crt_stdio_output@@QEAA_N_K@Z 000000018002d1f0     libucrt:output.obj
 0002:0000b1f0       $unwind$?SODirectIO@COPOSElectronicJournal@@MEAAJJPEAJPEAPEA_W@Z 000000018002d1f0     ElectronicJournal.obj
 0002:0000b1f0       $unwind$?DoVerb@?$IOleObjectImpl@VCOPOSElectronicJournal@@@ATL@@UEAAJJPEAUtagMSG@@PEAUIOleClientSite@@JPEAUHWND__@@PEBUtagRECT@@@Z 000000018002d1f0     ElectronicJournal.obj
 0002:0000b1f0       $unwind$?HKeyFromString@CRegParser@ATL@@KAPEAUHKEY__@@PEA_W@Z 000000018002d1f0     ElectronicJournal.obj
 0002:0000b1f0       $unwind$_initterm          000000018002d1f0     libucrt:initterm.obj
 0002:0000b1f0       $unwind$?s_EventWindowProc@COPOSElectronicJournal@@KA_JPEAUHWND__@@I_K_J@Z 000000018002d1f0     ElectronicJournalImpl.obj
 0002:0000b1f0       $unwind$__scrt_dllmain_exception_filter 000000018002d1f0     LIBCMT:utility.obj
 0002:0000b1f0       $unwind$?Append@CParseBuffer@CRegParser@ATL@@QEAAHPEB_WH@Z 000000018002d1f0     ElectronicJournal.obj
 0002:0000b1f0       $unwind$??$uninitialize@V<lambda_af42a3ee9806e9a7305d451646e05244>@@@?$dual_state_global@PEAU__crt_multibyte_data@@@__crt_state_management@@QEAAX$$QEAV<lambda_af42a3ee9806e9a7305d451646e05244>@@@Z 000000018002d1f0     libucrt:initialization.obj
 0002:0000b1f0       $unwind$?AtlWinModuleTerm@ATL@@YAJPEAU_ATL_WIN_MODULE70@1@PEAUHINSTANCE__@@@Z 000000018002d1f0     OposVariant.obj
 0002:0000b204       $unwind$?WriteToStream@CComBSTR@ATL@@QEAAJPEAUIStream@@@Z 000000018002d204     ElectronicJournal.obj
 0002:0000b204       $unwind$?SetVARIANT_BOOL@OposVariant@@QEAAXF@Z 000000018002d204     OposVariant.obj
 0002:0000b204       $unwind$?SetAdvise@?$IViewObjectExImpl@VCOPOSElectronicJournal@@@ATL@@UEAAJKKPEAUIAdviseSink@@@Z 000000018002d204     ElectronicJournal.obj
 0002:0000b204       $unwind$_updatetlocinfoEx_nolock 000000018002d204     libucrt:locale_refcounting.obj
 0002:0000b204       $unwind$?SetUnwindTryBlock@__FrameHandler3@@SAXPEA_KPEAU_xDISPATCHER_CONTEXT@@PEBU_s_FuncInfo@@H@Z 000000018002d204     libvcruntime:ehstate.obj
 0002:0000b204       $unwind$??0CAtlWinModule@ATL@@QEAA@XZ 000000018002d204     OposVariant.obj
 0002:0000b204       $unwind$??$common_initialize_environment_nolock@D@@YAHXZ 000000018002d204     libucrt:environment_initialization.obj
 0002:0000b204       $unwind$??_Gbad_array_new_length@std@@UEAAPEAXI@Z 000000018002d204     LIBCMT:throw_bad_alloc.obj
 0002:0000b204       $unwind$__acrt_LocaleNameToLCID 000000018002d204     libucrt:winapi_thunks.obj
 0002:0000b204       $unwind$??$GetProcAddressAll@P6AXPEAUAtlThunkData_t@@@Z@@YAP6AXPEAUAtlThunkData_t@@@ZPEAP6AX0@Z@Z 000000018002d204     atls:atlthunk.obj
 0002:0000b204       $unwind$_fclose_nolock     000000018002d204     libucrt:fclose.obj
 0002:0000b204       $unwind$??0CAtlBaseModule@ATL@@QEAA@XZ 000000018002d204     atls:atlbase.obj
 0002:0000b204       $unwind$__acrt_FlsSetValue 000000018002d204     libucrt:winapi_thunks.obj
 0002:0000b204       $unwind$_initterm_e        000000018002d204     libucrt:initterm.obj
 0002:0000b204       $unwind$?SetLONG@OposVariant@@QEAAXJ@Z 000000018002d204     OposVariant.obj
 0002:0000b204       $unwind$?SOData@COPOSElectronicJournal@@MEAAJJ@Z 000000018002d204     ElectronicJournal.obj
 0002:0000b204       $unwind$??_GCComClassFactory@ATL@@UEAAPEAXI@Z 000000018002d204     ElectronicJournal.obj
 0002:0000b204       $unwind$__acrt_uninitialize_lowio 000000018002d204     libucrt:ioinit.obj
 0002:0000b204       $unwind$__vcrt_FlsSetValue 000000018002d204     libvcruntime:winapi_downlevel.obj
 0002:0000b204       $unwind$__acrt_execute_uninitializers 000000018002d204     libucrt:shared_initialization.obj
 0002:0000b204       $unwind$?SOOutputComplete@COPOSElectronicJournal@@MEAAJJ@Z 000000018002d204     ElectronicJournal.obj
 0002:0000b204       $unwind$?replace_current_thread_locale_nolock@@YAXQEAU__acrt_ptd@@QEAU__crt_locale_data@@@Z 000000018002d204     libucrt:per_thread_data.obj
 0002:0000b204       $unwind$__acrt_errno_map_os_error 000000018002d204     libucrt:errno.obj
 0002:0000b204       $unwind$?SOStatusUpdate@COPOSElectronicJournal@@MEAAJJ@Z 000000018002d204     ElectronicJournal.obj
 0002:0000b204       $unwind$??$GetProcAddressAll@P6AXPEAUAtlThunkData_t@@PEAX_K@Z@@YAP6AXPEAUAtlThunkData_t@@PEAX_K@ZPEAP6AX012@Z@Z 000000018002d204     atls:atlthunk.obj
 0002:0000b204       $unwind$??$GetProcAddressAll@P6APEAUAtlThunkData_t@@XZ@@YAP6APEAUAtlThunkData_t@@XZPEAP6APEAU0@XZ@Z 000000018002d204     atls:atlthunk.obj
 0002:0000b204       $unwind$??$GetProcAddressAll@P6AP6A_JPEAUHWND__@@I_K_J@ZPEAUAtlThunkData_t@@@Z@@YAP6AP6A_JPEAUHWND__@@I_K_J@ZPEAUAtlThunkData_t@@@ZPEAP6AP6A_J0I12@Z3@Z@Z 000000018002d204     atls:atlthunk.obj
 0002:0000b204       $unwind$_RTC_Initialize    000000018002d204     LIBCMT:_initsect_.obj
 0002:0000b204       $unwind$??1?$IConnectionPointImpl@VCOPOSElectronicJournal@@$1?DIID__IOPOSElectronicJournalEvents@@3U_GUID@@BVCComDynamicUnkArray@ATL@@@ATL@@QEAA@XZ 000000018002d204     ElectronicJournalImpl.obj
 0002:0000b204       $unwind$__acrt_getptd_noexit 000000018002d204     libucrt:per_thread_data.obj
 0002:0000b204       $unwind$??1?$IConnectionPointImpl@VCOPOSElectronicJournal@@$1?IID_IPropertyNotifySink@@3U_GUID@@BVCComDynamicUnkArray@ATL@@@ATL@@QEAA@XZ 000000018002d204     ElectronicJournalImpl.obj
 0002:0000b204       $unwind$wcsncpy_s          000000018002d204     libucrt:wcsncpy_s.obj
 0002:0000b204       $unwind$DllMain            000000018002d204     ElectronicJournal.obj
 0002:0000b204       $unwind$_RTC_Terminate     000000018002d204     LIBCMT:_initsect_.obj
 0002:0000b204       $unwind$?__AllocStdCallThunk_cmn@@YAPEAXXZ 000000018002d204     atls:atlthunk.obj
 0002:0000b204       $unwind$?IsDirty@?$IPersistStorageImpl@VCOPOSElectronicJournal@@@ATL@@UEAAJXZ 000000018002d204     ElectronicJournal.obj
 0002:0000b204       $unwind$??0_LocaleUpdate@@QEAA@QEAU__crt_locale_pointers@@@Z 000000018002d204     libucrt:output.obj
 0002:0000b204       $unwind$??_G?$CComObject@V?$CComEnum@UIEnumConnections@@$1?_GUID_b196b287_bab4_101a_b69c_00aa00341d07@@3U__s_GUID@@BUtagCONNECTDATA@@V?$_Copy@UtagCONNECTDATA@@@ATL@@VCComSingleThreadModel@6@@ATL@@@ATL@@UEAAPEAXI@Z 000000018002d204     ElectronicJournal.obj
 0002:0000b204       $unwind$??1?$CComEnumImpl@UIEnumConnectionPoints@@$1?_GUID_b196b285_bab4_101a_b69c_00aa00341d07@@3U__s_GUID@@BPEAUIConnectionPoint@@V?$_CopyInterface@UIConnectionPoint@@@ATL@@@ATL@@UEAA@XZ 000000018002d204     ElectronicJournal.obj
 0002:0000b204       $unwind$?__InitializeThunkPool@@YAHXZ 000000018002d204     atls:atlthunk.obj
 0002:0000b204       $unwind$?CreateInstance@?$CComObject@V?$CComEnum@UIEnumConnections@@$1?_GUID_b196b287_bab4_101a_b69c_00aa00341d07@@3U__s_GUID@@BUtagCONNECTDATA@@V?$_Copy@UtagCONNECTDATA@@@ATL@@VCComSingleThreadModel@6@@ATL@@@ATL@@SAJPEAPEAV12@@Z 000000018002d204     ElectronicJournal.obj
 0002:0000b204       $unwind$?SetBSTR@OposVariant@@QEAAXPEA_WAEAJ@Z 000000018002d204     OposVariant.obj
 0002:0000b204       $unwind$?force_decimal_point@__crt_stdio_output@@YAXPEADQEAU__crt_locale_pointers@@@Z 000000018002d204     libucrt:output.obj
 0002:0000b204       $unwind$??_Gbad_exception@std@@UEAAPEAXI@Z 000000018002d204     libvcruntime:frame.obj
 0002:0000b204       $unwind$?Release@?$CComObject@V?$CComEnum@UIEnumConnectionPoints@@$1?_GUID_b196b285_bab4_101a_b69c_00aa00341d07@@3U__s_GUID@@BPEAUIConnectionPoint@@V?$_CopyInterface@UIConnectionPoint@@@ATL@@VCComSingleThreadModel@6@@ATL@@@ATL@@UEAAKXZ 000000018002d204     ElectronicJournal.obj
 0002:0000b204       $unwind$?CreateInstance@?$CComObject@V?$CComEnum@UIEnumConnectionPoints@@$1?_GUID_b196b285_bab4_101a_b69c_00aa00341d07@@3U__s_GUID@@BPEAUIConnectionPoint@@V?$_CopyInterface@UIConnectionPoint@@@ATL@@VCComSingleThreadModel@6@@ATL@@@ATL@@SAJPEAPEAV12@@Z 000000018002d204     ElectronicJournal.obj
 0002:0000b204       $unwind$??_G?$CComObject@V?$CComEnum@UIEnumConnectionPoints@@$1?_GUID_b196b285_bab4_101a_b69c_00aa00341d07@@3U__s_GUID@@BPEAUIConnectionPoint@@V?$_CopyInterface@UIConnectionPoint@@@ATL@@VCComSingleThreadModel@6@@ATL@@@ATL@@UEAAPEAXI@Z 000000018002d204     ElectronicJournal.obj
 0002:0000b204       $unwind$?InitNew@?$IPersistStorageImpl@VCOPOSElectronicJournal@@@ATL@@UEAAJPEAUIStorage@@@Z 000000018002d204     ElectronicJournal.obj
 0002:0000b204       $unwind$?Release@?$CComObject@V?$CComEnum@UIEnumConnections@@$1?_GUID_b196b287_bab4_101a_b69c_00aa00341d07@@3U__s_GUID@@BUtagCONNECTDATA@@V?$_Copy@UtagCONNECTDATA@@@ATL@@VCComSingleThreadModel@6@@ATL@@@ATL@@UEAAKXZ 000000018002d204     ElectronicJournal.obj
 0002:0000b204       $unwind$?Term@CComModule@ATL@@QEAAXXZ 000000018002d204     ElectronicJournal.obj
 0002:0000b204       $unwind$??_Gbad_alloc@std@@UEAAPEAXI@Z 000000018002d204     LIBCMT:throw_bad_alloc.obj
 0002:0000b204       $unwind$strncpy_s          000000018002d204     libucrt:strncpy_s.obj
 0002:0000b204       $unwind$??_G?$CComObjectCached@VCComClassFactory@ATL@@@ATL@@UEAAPEAXI@Z 000000018002d204     ElectronicJournal.obj
 0002:0000b204       $unwind$??0CAtlModule@ATL@@QEAA@XZ 000000018002d204     ElectronicJournal.obj
 0002:0000b204       $unwind$?Release@?$CComAggObject@VCOPOSElectronicJournal@@@ATL@@UEAAKXZ 000000018002d204     ElectronicJournal.obj
 0002:0000b204       $unwind$?IOleObject_SetClientSite@CComControlBase@ATL@@QEAAJPEAUIOleClientSite@@@Z 000000018002d204     ElectronicJournal.obj
 0002:0000b204       $unwind$_close_nolock      000000018002d204     libucrt:close.obj
 0002:0000b204       $unwind$??0CAtlComModule@ATL@@QEAA@XZ 000000018002d204     OposVariant.obj
 0002:0000b204       $unwind$??0?$CComContainedObject@VCOPOSElectronicJournal@@@ATL@@QEAA@PEAX@Z 000000018002d204     ElectronicJournal.obj
 0002:0000b204       $unwind$??_Gexception@std@@UEAAPEAXI@Z 000000018002d204     LIBCMT:throw_bad_alloc.obj
 0002:0000b204       $unwind$??_G?$CComContainedObject@VCOPOSElectronicJournal@@@ATL@@UEAAPEAXI@Z 000000018002d204     ElectronicJournal.obj
 0002:0000b204       $unwind$?internal_isupper_l@@YA_NHQEAU__crt_locale_pointers@@@Z 000000018002d204     libucrt:tolower_toupper.obj
 0002:0000b204       $unwind$??_G?$CComAggObject@VCOPOSElectronicJournal@@@ATL@@UEAAPEAXI@Z 000000018002d204     ElectronicJournal.obj
 0002:0000b204       $unwind$??1?$CComEnumImpl@UIEnumConnections@@$1?_GUID_b196b287_bab4_101a_b69c_00aa00341d07@@3U__s_GUID@@BUtagCONNECTDATA@@V?$_Copy@UtagCONNECTDATA@@@ATL@@@ATL@@UEAA@XZ 000000018002d204     ElectronicJournal.obj
 0002:0000b204       $unwind$__acrt_getptd      000000018002d204     libucrt:per_thread_data.obj
 0002:0000b204       $unwind$_FindAndUnlinkFrame 000000018002d204     libvcruntime:risctrnsctrl.obj
 0002:0000b204       $unwind$AtlThunk_DataToCode 000000018002d204     atls:atlthunk.obj
 0002:0000b204       $unwind$??_G?$CComObject@VCOPOSElectronicJournal@@@ATL@@UEAAPEAXI@Z 000000018002d204     ElectronicJournal.obj
 0002:0000b204       $unwind$?Release@?$CComObject@VCOPOSElectronicJournal@@@ATL@@UEAAKXZ 000000018002d204     ElectronicJournal.obj
 0002:0000b204       $unwind$_realloc_base      000000018002d204     libucrt:realloc_base.obj
 0002:0000b210       $unwind$?Term@CAtlComModule@ATL@@QEAAXXZ 000000018002d210     OposVariant.obj
 0002:0000b210       $unwind$__acrt_InitializeCriticalSectionEx 000000018002d210     libucrt:winapi_thunks.obj
 0002:0000b210       $unwind$??0OposDispParms@@QEAA@PEAVOposVariant@@H@Z 000000018002d210     OposVariant.obj
 0002:0000b210       $unwind$?SetString@OposVariant@@QEAAXPEB_WAEAJ@Z 000000018002d210     OposVariant.obj
 0002:0000b210       $unwind$?type_case_Z@?$output_processor@_WV?$string_output_adapter@_W@__crt_stdio_output@@V?$format_validation_base@_WV?$string_output_adapter@_W@__crt_stdio_output@@@2@@__crt_stdio_output@@AEAA_NXZ 000000018002d210     libucrt:output.obj
 0002:0000b210       $unwind$?type_case_s@?$output_processor@_WV?$string_output_adapter@_W@__crt_stdio_output@@V?$format_validation_base@_WV?$string_output_adapter@_W@__crt_stdio_output@@@2@@__crt_stdio_output@@AEAA_NXZ 000000018002d210     libucrt:output.obj
 0002:0000b210       $unwind$?AtlCallTermFunc@ATL@@YAXPEAU_ATL_MODULE70@1@@Z 000000018002d210     ElectronicJournal.obj
 0002:0000b210       $unwind$?type_case_n@?$output_processor@_WV?$string_output_adapter@_W@__crt_stdio_output@@V?$format_validation_base@_WV?$string_output_adapter@_W@__crt_stdio_output@@@2@@__crt_stdio_output@@AEAA_NXZ 000000018002d210     libucrt:output.obj
 0002:0000b210       $unwind$?SetBSTR_InOutPtr@OposVariant@@QEAA_NPEAPEA_WAEAJ@Z 000000018002d210     OposVariant.obj
 0002:0000b210       $unwind$?FrameUnwindToEmptyState@__FrameHandler3@@SAXPEA_KPEAU_xDISPATCHER_CONTEXT@@PEBU_s_FuncInfo@@@Z 000000018002d210     libvcruntime:risctrnsctrl.obj
 0002:0000b210       $unwind$__acrt_execute_initializers 000000018002d210     libucrt:shared_initialization.obj
 0002:0000b210       $unwind$?SetBSTR_Copy@OposVariant@@QEAAXPEA_WAEAJ@Z 000000018002d210     OposVariant.obj
 0002:0000b210       $unwind$_exception_enabled 000000018002d210     libucrt:libm_error.obj
 0002:0000b210       $unwind$?CatchTryBlock@__FrameHandler3@@SAPEBU_s_TryBlockMapEntry@@PEBU_s_FuncInfo@@H@Z 000000018002d210     libvcruntime:risctrnsctrl.obj
 0002:0000b210       $unwind$??$common_lseek_nolock@_J@@YA_JH_JH@Z 000000018002d210     libucrt:lseek.obj
 0002:0000b210       $unwind$??_GCRegObject@ATL@@UEAAPEAXI@Z 000000018002d210     ElectronicJournal.obj
 0002:0000b210       $unwind$?Advise@?$IOleObjectImpl@VCOPOSElectronicJournal@@@ATL@@UEAAJPEAUIAdviseSink@@PEAK@Z 000000018002d210     ElectronicJournal.obj
 0002:0000b210       $unwind$?VTFromRegType@CRegParser@ATL@@KAHPEB_WAEAG@Z 000000018002d210     ElectronicJournal.obj
 0002:0000b210       $unwind$memcpy_s           000000018002d210     ElectronicJournal.obj
 0002:0000b210       $unwind$?free_crt_array_internal@@YAXQEAPEBX_K@Z 000000018002d210     libucrt:inittime.obj
 0002:0000b210       $unwind$memcpy_s           000000018002d210     libucrt:cfout.obj
 0002:0000b210       $unwind$__vcrt_InitializeCriticalSectionEx 000000018002d210     libvcruntime:winapi_downlevel.obj
 0002:0000b210       $unwind$?ClearReplacements@CExpansionVector@ATL@@QEAAJXZ 000000018002d210     ElectronicJournal.obj
 0002:0000b210       $unwind$?Add@?$CSimpleArray@GV?$CSimpleArrayEqualHelper@G@ATL@@@ATL@@QEAAHAEBG@Z 000000018002d210     ElectronicJournal.obj
 0002:0000b210       $unwind$?RegisterServer@CComModule@ATL@@QEAAJHPEBU_GUID@@@Z 000000018002d210     ElectronicJournal.obj
 0002:0000b210       $unwind$?UnregisterServer@CComModule@ATL@@QEAAJHPEBU_GUID@@@Z 000000018002d210     ElectronicJournal.obj
 0002:0000b210       $unwind$__vcrt_getptd_noexit 000000018002d210     libvcruntime:per_thread_data.obj
 0002:0000b210       $unwind$_DllMainCRTStartup 000000018002d210     LIBCMT:dll_dllmain.obj
 0002:0000b210       $unwind$__acrt_stdio_flush_nolock 000000018002d210     libucrt:fflush.obj
 0002:0000b210       $unwind$??_GCComModule@ATL@@UEAAPEAXI@Z 000000018002d210     ElectronicJournal.obj
 0002:0000b210       $unwind$?SetLONG_Ptr@OposVariant@@QEAAXPEAJAEAJ@Z 000000018002d210     OposVariant.obj
 0002:0000b210       $unwind$?Add@?$CSimpleMap@PEA_WPEA_WVCExpansionVectorEqualHelper@ATL@@@ATL@@QEAAHAEBQEA_W0@Z 000000018002d210     ElectronicJournal.obj
 0002:0000b210       $unwind$?SetDispatch_Ptr@OposVariant@@QEAAXPEAUIDispatch@@AEAJ@Z 000000018002d210     OposVariant.obj
 0002:0000b220       $unwind$?x_ismbbtype_l@@YAHPEAU__crt_locale_pointers@@IHH@Z 000000018002d220     libucrt:ismbbyte.obj
 0002:0000b220       $unwind$?ChangeBSTR@OposVariant@@QEAAXPEAPEA_WAEAJ@Z 000000018002d220     OposVariant.obj
 0002:0000b220       $unwind$?ChangeLONG@OposVariant@@QEAAXPEAJAEAJ@Z 000000018002d220     OposVariant.obj
 0002:0000b220       $unwind$?ChangeCURRENCY@OposVariant@@QEAAXPEATtagCY@@AEAJ@Z 000000018002d220     OposVariant.obj
 0002:0000b230       $unwind$swprintf_s         000000018002d230     ElectronicJournal.obj
 0002:0000b240       $unwind$?_AtlVerifyStackAvailable@_ATL_SAFE_ALLOCA_IMPL@ATL@@YA_N_K@Z 000000018002d240     ElectronicJournal.obj
 0002:0000b26c       $unwind$_query_new_handler$fin$0 000000018002d26c     libucrt:new_handler.obj
 0002:0000b26c       $unwind$fclose$fin$0       000000018002d26c     libucrt:fclose.obj
 0002:0000b26c       $unwind$?fin$0@?0???$?RV<lambda_410d79af7f07d98d83a3f525b3859a53>@@AEAV<lambda_3e16ef9562a7dcce91392c22ab16ea36>@@V<lambda_38119f0e861e05405d8a144b9b982f0a>@@@?$__crt_seh_guarded_call@X@@QEAAX$$QEAV<lambda_410d79af7f07d98d83a3f525b3859a53>@@AEAV<lambda_3e16ef9562a7dcce91392c22ab16ea36>@@$$QEAV<lambda_38119f0e861e05405d8a144b9b982f0a>@@@Z@4HA 000000018002d26c     libucrt:wsetlocale.obj
 0002:0000b26c       $unwind$?fin$0@?0???$?RV<lambda_842d9ff0dc9ef11c61343bbaebe7f885>@@AEAV<lambda_c5860995281e5c4ce005b3de8f5874ee>@@V<lambda_d90129c13df834fdcbf8d2b88dafcf2d>@@@?$__crt_seh_guarded_call@X@@QEAAX$$QEAV<lambda_842d9ff0dc9ef11c61343bbaebe7f885>@@AEAV<lambda_c5860995281e5c4ce005b3de8f5874ee>@@$$QEAV<lambda_d90129c13df834fdcbf8d2b88dafcf2d>@@@Z@4HA 000000018002d26c     libucrt:fflush.obj
 0002:0000b26c       $unwind$__acrt_lowio_ensure_fh_exists$fin$0 000000018002d26c     libucrt:osfinfo.obj
 0002:0000b26c       $unwind$?fin$0@?0??dllmain_crt_process_detach@@YAH_N@Z@4HA 000000018002d26c     LIBCMT:dll_dllmain.obj
 0002:0000b26c       $unwind$?fin$0@?0??update_thread_multibyte_data_internal@@YAPEAU__crt_multibyte_data@@QEAU__acrt_ptd@@QEAU1@@Z@4HA 000000018002d26c     libucrt:mbctype.obj
 0002:0000b26c       $unwind$__acrt_initialize_lowio$fin$0 000000018002d26c     libucrt:ioinit.obj
 0002:0000b26c       $unwind$?fin$0@?0???$?RV<lambda_0ae27a3a962d80f24befdcbee591983d>@@AEAV<lambda_8d0ee55de4b1038c4002e0adecdf1839>@@V<lambda_dc504788e8f1664fe9b84e20bfb512f2>@@@?$__crt_seh_guarded_call@X@@QEAAX$$QEAV<lambda_0ae27a3a962d80f24befdcbee591983d>@@AEAV<lambda_8d0ee55de4b1038c4002e0adecdf1839>@@$$QEAV<lambda_dc504788e8f1664fe9b84e20bfb512f2>@@@Z@4HA 000000018002d26c     libucrt:per_thread_data.obj
 0002:0000b26c       $unwind$?filt$0@?0???R<lambda_6e4b09c48022b2350581041d5f6b0c4c>@@QEBA@XZ@4HA 000000018002d26c     libucrt:exit.obj
 0002:0000b26c       $unwind$__DestructExceptionObject$filt$0 000000018002d26c     libvcruntime:ehhelpers.obj
 0002:0000b26c       $unwind$?fin$0@?0???$?RV<lambda_886d6c58226a84441f68b9f2b8217b83>@@AEAV<lambda_ab61a845afdef5b7c387490eaf3616ee>@@V<lambda_f7f22ab5edc0698d5f6905b0d3f44752>@@@?$__crt_seh_guarded_call@X@@QEAAX$$QEAV<lambda_886d6c58226a84441f68b9f2b8217b83>@@AEAV<lambda_ab61a845afdef5b7c387490eaf3616ee>@@$$QEAV<lambda_f7f22ab5edc0698d5f6905b0d3f44752>@@@Z@4HA 000000018002d26c     libucrt:fflush.obj
 0002:0000b26c       $unwind$_IsNonwritableInCurrentImage$filt$0 000000018002d26c     LIBCMT:pesect.obj
 0002:0000b26c       $unwind$common_control87$filt$0 000000018002d26c     libucrt:ieee.obj
 0002:0000b26c       $unwind$_write$fin$0       000000018002d26c     libucrt:write.obj
 0002:0000b26c       $unwind$_ctrlfp$filt$0     000000018002d26c     libucrt:fpctrl.obj
 0002:0000b26c       $unwind$?fin$0@?0???$?RV<lambda_aa87e3671a710a21b5dc78c0bdf72e11>@@AEAV<lambda_92619d2358a28f41a33ba319515a20b9>@@V<lambda_6992ecaafeb10aed2b74cb1fae11a551>@@@?$__crt_seh_guarded_call@X@@QEAAX$$QEAV<lambda_aa87e3671a710a21b5dc78c0bdf72e11>@@AEAV<lambda_92619d2358a28f41a33ba319515a20b9>@@$$QEAV<lambda_6992ecaafeb10aed2b74cb1fae11a551>@@@Z@4HA 000000018002d26c     libucrt:per_thread_data.obj
 0002:0000b26c       $unwind$?filt$0@?0??_AtlVerifyStackAvailable@_ATL_SAFE_ALLOCA_IMPL@ATL@@YA_N_K@Z@4HA 000000018002d26c     ElectronicJournal.obj
 0002:0000b26c       $unwind$?fin$0@?0???$?RV<lambda_751a882b2c74d4b022dec766aa51a29a>@@AEAV<lambda_628dfdc04ba53c8bfc02c9951375f3f5>@@V<lambda_f6c7be5f7998530c34de24c7437d6b54>@@@?$__crt_seh_guarded_call@H@@QEAAH$$QEAV<lambda_751a882b2c74d4b022dec766aa51a29a>@@AEAV<lambda_628dfdc04ba53c8bfc02c9951375f3f5>@@$$QEAV<lambda_f6c7be5f7998530c34de24c7437d6b54>@@@Z@4HA 000000018002d26c     libucrt:close.obj
 0002:0000b26c       $unwind$?fin$0@?0???$?RV<lambda_450d765d439847d4c735a33c368b5fc0>@@AEAV<lambda_44731a7d0e6d81c3e6aa82d741081786>@@V<lambda_601a2a7da3b7a96e9554ac7215c4b07c>@@@?$__crt_seh_guarded_call@P6AXH@Z@@QEAAP6AXH@Z$$QEAV<lambda_450d765d439847d4c735a33c368b5fc0>@@AEAV<lambda_44731a7d0e6d81c3e6aa82d741081786>@@$$QEAV<lambda_601a2a7da3b7a96e9554ac7215c4b07c>@@@Z@4HA 000000018002d26c     libucrt:signal.obj
 0002:0000b26c       $unwind$_fcloseall$fin$0   000000018002d26c     libucrt:closeall.obj
 0002:0000b26c       $unwind$?fin$0@?0???$?RV<lambda_f2e299630e499de9f9a165e60fcd3db5>@@AEAV<lambda_2ae9d31cdba2644fcbeaf08da7c24588>@@V<lambda_40d01ff24d0e7b3814fdbdcee8eab3c7>@@@?$__crt_seh_guarded_call@X@@QEAAX$$QEAV<lambda_f2e299630e499de9f9a165e60fcd3db5>@@AEAV<lambda_2ae9d31cdba2644fcbeaf08da7c24588>@@$$QEAV<lambda_40d01ff24d0e7b3814fdbdcee8eab3c7>@@@Z@4HA 000000018002d26c     libucrt:per_thread_data.obj
 0002:0000b26c       $unwind$?fin$0@?0??dllmain_crt_process_attach@@YAHQEAUHINSTANCE__@@QEAX@Z@4HA 000000018002d26c     LIBCMT:dll_dllmain.obj
 0002:0000b26c       $unwind$?filt$0@?0??FrameUnwindToState@__FrameHandler3@@SAXPEA_KPEAU_xDISPATCHER_CONTEXT@@PEBU_s_FuncInfo@@H@Z@4HA 000000018002d26c     libvcruntime:frame.obj
 0002:0000b26c       $unwind$?fin$1@?0??FrameUnwindToState@__FrameHandler3@@SAXPEA_KPEAU_xDISPATCHER_CONTEXT@@PEBU_s_FuncInfo@@H@Z@4HA 000000018002d26c     libvcruntime:frame.obj
 0002:0000b26c       $unwind$?fin$0@?0???$?RV<lambda_a37b2b86f63e897a80ea819b0eb08c01>@@AEAV<lambda_38ce7e780aa69e748d6df282ebc68efe>@@V<lambda_99fb1378e971ab6e7edea83e3a7a83a2>@@@?$__crt_seh_guarded_call@H@@QEAAH$$QEAV<lambda_a37b2b86f63e897a80ea819b0eb08c01>@@AEAV<lambda_38ce7e780aa69e748d6df282ebc68efe>@@$$QEAV<lambda_99fb1378e971ab6e7edea83e3a7a83a2>@@@Z@4HA 000000018002d26c     libucrt:commit.obj
 0002:0000b26c       $unwind$?fin$0@?0???$?RV<lambda_2d41944a1d46af3157314b8a01080d33>@@AEAV<lambda_8f455de75cd7d7f24b4096f044d8b9e6>@@V<lambda_aa500f224e6afead328df44964fe2772>@@@?$__crt_seh_guarded_call@X@@QEAAX$$QEAV<lambda_2d41944a1d46af3157314b8a01080d33>@@AEAV<lambda_8f455de75cd7d7f24b4096f044d8b9e6>@@$$QEAV<lambda_aa500f224e6afead328df44964fe2772>@@@Z@4HA 000000018002d26c     libucrt:per_thread_data.obj
 0002:0000b26c       $unwind$?filt$0@?0??CxxCallCatchBlock@__FrameHandler3@@SAPEAXPEAU_EXCEPTION_RECORD@@@Z@4HA 000000018002d26c     libvcruntime:frame.obj
 0002:0000b26c       $unwind$__acrt_update_thread_locale_data$fin$0 000000018002d26c     libucrt:locale_refcounting.obj
 0002:0000b26c       $unwind$raise$fin$0        000000018002d26c     libucrt:signal.obj
 0002:0000b26c       $unwind$?fin$0@?0???$?RV<lambda_638799b9deba96c50f710eeac98168cd>@@AEAV<lambda_22ebabd17bc4fa466a2aca6d8deb888d>@@V<lambda_a6f7d7db0129f75315ebf26d50c089f1>@@@?$__crt_seh_guarded_call@H@@QEAAH$$QEAV<lambda_638799b9deba96c50f710eeac98168cd>@@AEAV<lambda_22ebabd17bc4fa466a2aca6d8deb888d>@@$$QEAV<lambda_a6f7d7db0129f75315ebf26d50c089f1>@@@Z@4HA 000000018002d26c     libucrt:onexit.obj
 0002:0000b26c       $unwind$?fin$0@?0???$?RV<lambda_efdfa57d1f175319df784efa44bb7b81>@@AEAV<lambda_5f0a4c1567f8adc6734073e5d1e1b35c>@@V<lambda_2e8a7d3640ea6ccb4c2413664c2db6fd>@@@?$__crt_seh_guarded_call@X@@QEAAX$$QEAV<lambda_efdfa57d1f175319df784efa44bb7b81>@@AEAV<lambda_5f0a4c1567f8adc6734073e5d1e1b35c>@@$$QEAV<lambda_2e8a7d3640ea6ccb4c2413664c2db6fd>@@@Z@4HA 000000018002d26c     libucrt:mbctype.obj
 0002:0000b26c       $unwind$?fin$0@?0???$?RV<lambda_d80eeec6fff315bfe5c115232f3240e3>@@AEAV<lambda_6e4b09c48022b2350581041d5f6b0c4c>@@V<lambda_2358e3775559c9db80273638284d5e45>@@@?$__crt_seh_guarded_call@X@@QEAAX$$QEAV<lambda_d80eeec6fff315bfe5c115232f3240e3>@@AEAV<lambda_6e4b09c48022b2350581041d5f6b0c4c>@@$$QEAV<lambda_2358e3775559c9db80273638284d5e45>@@@Z@4HA 000000018002d26c     libucrt:exit.obj
 0002:0000b26c       $unwind$?fin$0@?0???$?RV<lambda_7777bce6b2f8c936911f934f8298dc43>@@AEAV<lambda_f03950bc5685219e0bcd2087efbe011e>@@V<lambda_3883c3dff614d5e0c5f61bb1ac94921c>@@@?$__crt_seh_guarded_call@H@@QEAAH$$QEAV<lambda_7777bce6b2f8c936911f934f8298dc43>@@AEAV<lambda_f03950bc5685219e0bcd2087efbe011e>@@$$QEAV<lambda_3883c3dff614d5e0c5f61bb1ac94921c>@@@Z@4HA 000000018002d26c     libucrt:onexit.obj
 0002:0000b274       $unwind$?AtlInternalOleLoadFromStream@ATL@@YAJPEAUIStream@@AEBU_GUID@@PEAPEAXTClassesAllowedInStream@1@K@Z 000000018002d274     ElectronicJournal.obj
 0002:0000b290       $unwind$?Close@COPOSElectronicJournal@@UEAAJPEAJ@Z 000000018002d290     ElectronicJournalImpl.obj
 0002:0000b290       $unwind$?PutProperty@?$CComPtr@UIDispatch@@@ATL@@SAJPEAUIDispatch@@JPEAUtagVARIANT@@@Z 000000018002d290     ElectronicJournal.obj
 0002:0000b29c       $unwind$_configure_narrow_argv 000000018002d29c     libucrt:argv_parsing.obj
 0002:0000b29c       $unwind$?ReadFromStream@CComBSTR@ATL@@QEAAJPEAUIStream@@@Z 000000018002d29c     ElectronicJournal.obj
 0002:0000b2b0       $unwind$?WriteToStream@CComVariant@ATL@@QEAAJPEAUIStream@@@Z 000000018002d2b0     ElectronicJournal.obj
 0002:0000b2c4       $unwind$?WriteToStream@CComVariant@ATL@@QEAAJPEAUIStream@@G@Z 000000018002d2c4     ElectronicJournal.obj
 0002:0000b2c4       $unwind$?RegOpenKeyExW@CAtlTransactionManager@ATL@@QEAAJPEAUHKEY__@@PEB_WKKPEAPEAU3@@Z 000000018002d2c4     ElectronicJournal.obj
 0002:0000b2d8       $unwind$?ReadFromStream@CComVariant@ATL@@QEAAJPEAUIStream@@GTClassesAllowedInStream@2@K@Z 000000018002d2d8     ElectronicJournal.obj
 0002:0000b2f0       $unwind$?GetSizeMax@CComVariant@ATL@@QEBAJPEAT_ULARGE_INTEGER@@@Z 000000018002d2f0     ElectronicJournal.obj
 0002:0000b308       $unwind$?RegCreateKeyExW@CAtlTransactionManager@ATL@@QEAAJPEAUHKEY__@@PEB_WKPEA_WKKQEAU_SECURITY_ATTRIBUTES@@PEAPEAU3@PEAK@Z 000000018002d308     ElectronicJournal.obj
 0002:0000b31c       $unwind$?GetGITPtr@CAtlModule@ATL@@UEAAJPEAPEAUIGlobalInterfaceTable@@@Z 000000018002d31c     ElectronicJournal.obj
 0002:0000b31c       $unwind$?RegDeleteKeyW@CAtlTransactionManager@ATL@@QEAAJPEAUHKEY__@@PEB_W@Z 000000018002d31c     ElectronicJournal.obj
 0002:0000b32c       $unwind$?AtlInternalQueryInterface@ATL@@YAJPEAXPEBU_ATL_INTMAP_ENTRY@1@AEBU_GUID@@PEAPEAX@Z 000000018002d32c     ElectronicJournal.obj
 0002:0000b32c       $unwind$?AtlHiMetricToPixel@ATL@@YAXPEBUtagSIZE@@PEAU2@@Z 000000018002d32c     ElectronicJournal.obj
 0002:0000b344       $unwind$?Init@?$CComEnumImpl@UIEnumConnectionPoints@@$1?_GUID_b196b285_bab4_101a_b69c_00aa00341d07@@3U__s_GUID@@BPEAUIConnectionPoint@@V?$_CopyInterface@UIConnectionPoint@@@ATL@@@ATL@@QEAAJPEAPEAUIConnectionPoint@@0PEAUIUnknown@@W4CComEnumFlags@2@@Z 000000018002d344     ElectronicJournal.obj
 0002:0000b344       $unwind$?GetClassObject@CComModule@ATL@@QEAAJAEBU_GUID@@0PEAPEAX@Z 000000018002d344     ElectronicJournal.obj
 0002:0000b344       $unwind$?Init@?$CComEnumImpl@UIEnumConnections@@$1?_GUID_b196b287_bab4_101a_b69c_00aa00341d07@@3U__s_GUID@@BUtagCONNECTDATA@@V?$_Copy@UtagCONNECTDATA@@@ATL@@@ATL@@QEAAJPEAUtagCONNECTDATA@@0PEAUIUnknown@@W4CComEnumFlags@2@@Z 000000018002d344     ElectronicJournal.obj
 0002:0000b344       $unwind$?CreateInstance@?$CComCreator@V?$CComObjectCached@VCComClassFactory@ATL@@@ATL@@@ATL@@SAJPEAXAEBU_GUID@@PEAPEAX@Z 000000018002d344     ElectronicJournal.obj
 0002:0000b344       $unwind$?NextToken@CRegParser@ATL@@IEAAJPEA_W@Z 000000018002d344     ElectronicJournal.obj
 0002:0000b344       $unwind$?AtlComModuleGetClassObject@ATL@@YAJPEAU_ATL_COM_MODULE70@1@AEBU_GUID@@1PEAPEAX@Z 000000018002d344     ElectronicJournal.obj
 0002:0000b35c       $unwind$?AtlRegisterClassCategoriesHelper@ATL@@YAJAEBU_GUID@@PEBU_ATL_CATMAP_ENTRY@1@H@Z 000000018002d35c     ElectronicJournal.obj
 0002:0000b380       $unwind$?AtlLoadTypeLib@ATL@@YAJPEAUHINSTANCE__@@PEB_WPEAPEA_WPEAPEAUITypeLib@@@Z 000000018002d380     ElectronicJournal.obj
 0002:0000b3a0       $unwind$?AtlRegisterTypeLib@ATL@@YAJPEAUHINSTANCE__@@PEB_W@Z 000000018002d3a0     ElectronicJournal.obj
 0002:0000b3bc       $unwind$?AtlUnRegisterTypeLib@ATL@@YAJPEAUHINSTANCE__@@PEB_W@Z 000000018002d3bc     ElectronicJournal.obj
 0002:0000b3c4       $unwind$?Create@CRegKey@ATL@@QEAAJPEAUHKEY__@@PEB_WPEA_WKKPEAU_SECURITY_ATTRIBUTES@@PEAK@Z 000000018002d3c4     ElectronicJournal.obj
 0002:0000b3cc       $unwind$?Open@CRegKey@ATL@@QEAAJPEAUHKEY__@@PEB_WK@Z 000000018002d3cc     ElectronicJournal.obj
 0002:0000b3d4       $unwind$?RecurseDeleteKey@CRegKey@ATL@@QEAAJPEB_W@Z 000000018002d3d4     ElectronicJournal.obj
 0002:0000b3f0       $unwind$?UpdateRegistryFromResource@CAtlModule@ATL@@QEAAJIHPEAU_ATL_REGMAP_ENTRY@2@@Z 000000018002d3f0     ElectronicJournal.obj
 0002:0000b3f0       $unwind$?UpdateRegistryFromResource@CAtlModule@ATL@@QEAAJPEB_WHPEAU_ATL_REGMAP_ENTRY@2@@Z 000000018002d3f0     ElectronicJournal.obj
 0002:0000b410       $unwind$?Lookup@?$CSimpleMap@PEA_WPEA_WVCExpansionVectorEqualHelper@ATL@@@ATL@@QEBAPEA_WAEBQEA_W@Z 000000018002d410     ElectronicJournal.obj
 0002:0000b410       $unwind$?initialize_stdio_handles_nolock@@YAXXZ 000000018002d410     libucrt:ioinit.obj
 0002:0000b410       $unwind$__std_exception_copy 000000018002d410     libvcruntime:std_exception.obj
 0002:0000b410       $unwind$_free_osfhnd       000000018002d410     libucrt:osfinfo.obj
 0002:0000b424       $unwind$?Add@CExpansionVector@ATL@@QEAAHPEB_W0@Z 000000018002d424     ElectronicJournal.obj
 0002:0000b43c       $unwind$?PreProcessBuffer@CRegParser@ATL@@QEAAJPEA_WPEAPEA_W@Z 000000018002d43c     ElectronicJournal.obj
 0002:0000b460       $unwind$?RegisterBuffer@CRegParser@ATL@@QEAAJPEA_WH@Z 000000018002d460     ElectronicJournal.obj
 0002:0000b480       $unwind$?AddValue@CRegParser@ATL@@IEAAJAEAVCRegKey@2@PEB_WPEA_W@Z 000000018002d480     ElectronicJournal.obj
 0002:0000b4a0       $unwind$?RegisterSubkeys@CRegParser@ATL@@IEAAJPEA_WPEAUHKEY__@@HH@Z 000000018002d4a0     ElectronicJournal.obj
 0002:0000b4c0       $unwind$?SkipAssignment@CRegParser@ATL@@IEAAJPEA_W@Z 000000018002d4c0     ElectronicJournal.obj
 0002:0000b4d8       $unwind$?RegisterFromResource@CRegObject@ATL@@IEAAJPEB_W00H@Z 000000018002d4d8     ElectronicJournal.obj
 0002:0000b4f8       $unwind$?AtlIPersistStreamInit_Load@ATL@@YAJPEAUIStream@@PEBUATL_PROPMAP_ENTRY@1@PEAXPEAUIUnknown@@@Z 000000018002d4f8     ElectronicJournal.obj
 0002:0000b510       $unwind$?AtlIPersistStreamInit_Save@ATL@@YAJPEAUIStream@@HPEBUATL_PROPMAP_ENTRY@1@PEAXPEAUIUnknown@@@Z 000000018002d510     ElectronicJournal.obj
 0002:0000b52c       $unwind$?GetTI@CComTypeInfoHolder@ATL@@QEAAJK@Z 000000018002d52c     ElectronicJournal.obj
 0002:0000b54c       $unwind$?Cleanup@CComTypeInfoHolder@ATL@@SAX_K@Z 000000018002d54c     ElectronicJournal.obj
 0002:0000b54c       $unwind$AtlThunk_FreeData  000000018002d54c     atls:atlthunk.obj
 0002:0000b54c       $unwind$?destroy_fls@@YAXPEAX@Z 000000018002d54c     libucrt:per_thread_data.obj
 0002:0000b54c       $unwind$__acrt_locale_free_lc_time_if_unreferenced 000000018002d54c     libucrt:locale_refcounting.obj
 0002:0000b54c       $unwind$__acrt_locale_free_numeric 000000018002d54c     libucrt:initnum.obj
 0002:0000b54c       $unwind$_free_base         000000018002d54c     libucrt:free_base.obj
 0002:0000b554       $unwind$?GetIDsOfNames@CComTypeInfoHolder@ATL@@QEAAJAEBU_GUID@@PEAPEA_WIKPEAJ@Z 000000018002d554     ElectronicJournal.obj
 0002:0000b570       $unwind$?LoadNameCache@CComTypeInfoHolder@ATL@@QEAAJPEAUITypeInfo@@@Z 000000018002d570     ElectronicJournal.obj
 0002:0000b584       $unwind$??R<lambda_22ebabd17bc4fa466a2aca6d8deb888d>@@QEBAHXZ 000000018002d584     libucrt:onexit.obj
 0002:0000b584       $unwind$??$parse_command_line@D@@YAXPEADPEAPEAD0PEA_K2@Z 000000018002d584     libucrt:argv_parsing.obj
 0002:0000b584       $unwind$?StartWindowProc@?$CWindowImplBaseT@VCWindow@ATL@@V?$CWinTraits@$0FGAAAAAA@$0A@@2@@ATL@@SA_JPEAUHWND__@@I_K_J@Z 000000018002d584     ElectronicJournal.obj
 0002:0000b5a0       $unwind$?WindowProc@?$CWindowImplBaseT@VCWindow@ATL@@V?$CWinTraits@$0FGAAAAAA@$0A@@2@@ATL@@SA_JPEAUHWND__@@I_K_J@Z 000000018002d5a0     ElectronicJournal.obj
 0002:0000b5b8       $unwind$?Create@?$CWindowImplBaseT@VCWindow@ATL@@V?$CWinTraits@$0FGAAAAAA@$0A@@2@@ATL@@QEAAPEAUHWND__@@PEAU3@V_U_RECT@2@PEB_WKKV_U_MENUorID@2@GPEAX@Z 000000018002d5b8     ElectronicJournal.obj
 0002:0000b5d0       $unwind$??$AtlModuleRegisterWndClassInfoT@VAtlModuleRegisterWndClassInfoParamW@ATL@@@ATL@@YAGPEAU_ATL_BASE_MODULE70@0@PEAU_ATL_WIN_MODULE70@0@PEAU_ATL_WNDCLASSINFOW@0@PEAP6A_JPEAUHWND__@@I_K_J@ZVAtlModuleRegisterWndClassInfoParamW@0@@Z 000000018002d5d0     ElectronicJournal.obj
 0002:0000b5f0       $unwind$?GetZoomInfo@CComControlBase@ATL@@QEAAXAEAUATL_DRAWINFO@@@Z 000000018002d5f0     ElectronicJournal.obj
 0002:0000b5f0       $unwind$?OnKillFocus@CComControlBase@ATL@@QEAA_JI_K_JAEAH@Z 000000018002d5f0     ElectronicJournal.obj
 0002:0000b5f0       $unwind$iswctype           000000018002d5f0     libucrt:iswctype.obj
 0002:0000b5fc       $unwind$?SendOnDataChange@CComControlBase@ATL@@QEAAJK@Z 000000018002d5fc     ElectronicJournal.obj
 0002:0000b60c       $unwind$?OnSetFocus@CComControlBase@ATL@@QEAA_JI_K_JAEAH@Z 000000018002d60c     ElectronicJournal.obj
 0002:0000b61c       $unwind$?OnMouseActivate@CComControlBase@ATL@@QEAA_JI_K_JAEAH@Z 000000018002d61c     ElectronicJournal.obj
 0002:0000b624       $unwind$?GetAmbientLocaleID@CComControlBase@ATL@@QEAAJAEAK@Z 000000018002d624     ElectronicJournal.obj
 0002:0000b634       $unwind$?GetAmbientUserMode@CComControlBase@ATL@@QEAAJAEAH@Z 000000018002d634     ElectronicJournal.obj
 0002:0000b648       $unwind$?IQuickActivate_QuickActivate@CComControlBase@ATL@@QEAAJPEAUtagQACONTAINER@@PEAUtagQACONTROL@@@Z 000000018002d648     ElectronicJournal.obj
 0002:0000b660       $unwind$?DoVerbProperties@CComControlBase@ATL@@QEAAJPEBUtagRECT@@PEAUHWND__@@@Z 000000018002d660     ElectronicJournal.obj
 0002:0000b678       $unwind$?InPlaceActivate@CComControlBase@ATL@@QEAAJJPEBUtagRECT@@@Z 000000018002d678     ElectronicJournal.obj
 0002:0000b698       $unwind$?type_case_c_tchar@?$output_processor@_WV?$string_output_adapter@_W@__crt_stdio_output@@V?$format_validation_base@_WV?$string_output_adapter@_W@__crt_stdio_output@@@2@@__crt_stdio_output@@AEAA_N_W@Z 000000018002d698     libucrt:output.obj
 0002:0000b698       $unwind$?IOleObject_Close@CComControlBase@ATL@@QEAAJK@Z 000000018002d698     ElectronicJournal.obj
 0002:0000b6a8       $unwind$?IOleInPlaceObject_UIDeactivate@CComControlBase@ATL@@QEAAJXZ 000000018002d6a8     ElectronicJournal.obj
 0002:0000b6c0       $unwind$?IOleInPlaceObject_SetObjectRects@CComControlBase@ATL@@QEAAJPEBUtagRECT@@0@Z 000000018002d6c0     ElectronicJournal.obj
 0002:0000b6d4       $unwind$?IViewObject_Draw@CComControlBase@ATL@@QEAAJKJPEAXPEAUtagDVTARGETDEVICE@@PEAUHDC__@@2PEBU_RECTL@@3@Z 000000018002d6d4     ElectronicJournal.obj
 0002:0000b6f0       $unwind$?IDataObject_GetData@CComControlBase@ATL@@QEAAJPEAUtagFORMATETC@@PEAUtagSTGMEDIUM@@@Z 000000018002d6f0     ElectronicJournal.obj
 0002:0000b710       $unwind$?OnPaint@CComControlBase@ATL@@QEAA_JI_K_JAEAH@Z 000000018002d710     ElectronicJournal.obj
 0002:0000b72c       $unwind$?OnDrawAdvanced@CComControlBase@ATL@@UEAAJAEAUATL_DRAWINFO@@@Z 000000018002d72c     ElectronicJournal.obj
 0002:0000b744       $unwind$_mbsdec_l          000000018002d744     libucrt:mbsdec.obj
 0002:0000b744       $unwind$?Invoke@?$IDispatchImpl@UIOPOSElectronicJournal@@$1?IID_IOPOSElectronicJournal@@3U_GUID@@B$1?LIBID_OposElectronicJournal_CCO@@3U3@B$00$0A@VCComTypeInfoHolder@ATL@@@ATL@@UEAAJJAEBU_GUID@@KGPEAUtagDISPPARAMS@@PEAUtagVARIANT@@PEAUtagEXCEPINFO@@PEAI@Z 000000018002d744     ElectronicJournal.obj
 0002:0000b744       $unwind$?ReleaseDevice@COPOSElectronicJournal@@UEAAJPEAJ@Z 000000018002d744     ElectronicJournalImpl.obj
 0002:0000b750       $unwind$__acrt_LCMapStringEx 000000018002d750     libucrt:winapi_thunks.obj
 0002:0000b750       $unwind$?fp_format_e@@YAHQEBNQEAD_K12H_NIQEAU__crt_locale_pointers@@@Z 000000018002d750     libucrt:cvt.obj
 0002:0000b750       $unwind$?Create@?$CWindowImpl@VCOPOSElectronicJournal@@VCWindow@ATL@@V?$CWinTraits@$0FGAAAAAA@$0A@@3@@ATL@@QEAAPEAUHWND__@@PEAU3@V_U_RECT@2@PEB_WKKV_U_MENUorID@2@PEAX@Z 000000018002d750     ElectronicJournal.obj
 0002:0000b764       $unwind$?SuspendQueryContent@COPOSElectronicJournal@@UEAAJPEAJ@Z 000000018002d764     ElectronicJournalImpl.obj
 0002:0000b764       $unwind$?ResumeQueryContent@COPOSElectronicJournal@@UEAAJPEAJ@Z 000000018002d764     ElectronicJournalImpl.obj
 0002:0000b764       $unwind$?ClearOutput@COPOSElectronicJournal@@UEAAJPEAJ@Z 000000018002d764     ElectronicJournalImpl.obj
 0002:0000b764       $unwind$?CancelPrintContent@COPOSElectronicJournal@@UEAAJPEAJ@Z 000000018002d764     ElectronicJournalImpl.obj
 0002:0000b764       $unwind$?CreateControlWindow@?$CComControl@VCOPOSElectronicJournal@@V?$CWindowImpl@VCOPOSElectronicJournal@@VCWindow@ATL@@V?$CWinTraits@$0FGAAAAAA@$0A@@3@@ATL@@@ATL@@UEAAPEAUHWND__@@PEAU3@AEAUtagRECT@@@Z 000000018002d764     ElectronicJournal.obj
 0002:0000b764       $unwind$_raise_exc         000000018002d764     libucrt:fpexcept.obj
 0002:0000b764       $unwind$?__scrt_throw_std_bad_array_new_length@@YAXXZ 000000018002d764     LIBCMT:throw_bad_alloc.obj
 0002:0000b764       $unwind$?ResumePrintContent@COPOSElectronicJournal@@UEAAJPEAJ@Z 000000018002d764     ElectronicJournalImpl.obj
 0002:0000b764       $unwind$?__scrt_throw_std_bad_alloc@@YAXXZ 000000018002d764     LIBCMT:throw_bad_alloc.obj
 0002:0000b764       $unwind$?CancelQueryContent@COPOSElectronicJournal@@UEAAJPEAJ@Z 000000018002d764     ElectronicJournalImpl.obj
 0002:0000b764       $unwind$?ClearInput@COPOSElectronicJournal@@UEAAJPEAJ@Z 000000018002d764     ElectronicJournalImpl.obj
 0002:0000b764       $unwind$?SuspendPrintContent@COPOSElectronicJournal@@UEAAJPEAJ@Z 000000018002d764     ElectronicJournalImpl.obj
 0002:0000b764       $unwind$?EraseMedium@COPOSElectronicJournal@@UEAAJPEAJ@Z 000000018002d764     ElectronicJournalImpl.obj
 0002:0000b764       $unwind$__dcrt_lowio_initialize_console_output 000000018002d764     libucrt:initcon.obj
 0002:0000b76c       $unwind$?Save@?$IPersistStreamInitImpl@VCOPOSElectronicJournal@@@ATL@@UEAAJPEAUIStream@@H@Z 000000018002d76c     ElectronicJournal.obj
 0002:0000b76c       $unwind$__stdio_common_vswprintf_s 000000018002d76c     libucrt:output.obj
 0002:0000b778       $unwind$?GetSizeMax@?$IPersistStreamInitImpl@VCOPOSElectronicJournal@@@ATL@@UEAAJPEAT_ULARGE_INTEGER@@@Z 000000018002d778     ElectronicJournal.obj
 0002:0000b790       $unwind$?DoVerbPrimary@?$IOleObjectImpl@VCOPOSElectronicJournal@@@ATL@@QEAAJPEBUtagRECT@@PEAUHWND__@@@Z 000000018002d790     ElectronicJournal.obj
 0002:0000b7a8       $unwind$?TranslateAcceleratorW@?$IOleInPlaceActiveObjectImpl@VCOPOSElectronicJournal@@@ATL@@UEAAJPEAUtagMSG@@@Z 000000018002d7a8     ElectronicJournal.obj
 0002:0000b7b4       $unwind$?Draw@?$IViewObjectExImpl@VCOPOSElectronicJournal@@@ATL@@UEAAJKJPEAXPEAUtagDVTARGETDEVICE@@PEAUHDC__@@2PEBU_RECTL@@3P6AH_K@Z4@Z 000000018002d7b4     ElectronicJournal.obj
 0002:0000b7bc       $unwind$?QueryHitRect@?$IViewObjectExImpl@VCOPOSElectronicJournal@@@ATL@@UEAAJKPEBUtagRECT@@0JPEAK@Z 000000018002d7bc     ElectronicJournal.obj
 0002:0000b7cc       $unwind$?OnWindowMessage@?$IOleInPlaceObjectWindowlessImpl@VCOPOSElectronicJournal@@@ATL@@UEAAJI_K_JPEA_J@Z 000000018002d7cc     ElectronicJournal.obj
 0002:0000b7e0       $unwind$?EnumConnectionPoints@?$IConnectionPointContainerImpl@VCOPOSElectronicJournal@@@ATL@@UEAAJPEAPEAUIEnumConnectionPoints@@@Z 000000018002d7e0     ElectronicJournal.obj
 0002:0000b808       $unwind$?FindConnectionPoint@?$IConnectionPointContainerImpl@VCOPOSElectronicJournal@@@ATL@@UEAAJAEBU_GUID@@PEAPEAUIConnectionPoint@@@Z 000000018002d808     ElectronicJournal.obj
 0002:0000b824       $unwind$?Load@?$IPersistStorageImpl@VCOPOSElectronicJournal@@@ATL@@UEAAJPEAUIStorage@@@Z 000000018002d824     ElectronicJournal.obj
 0002:0000b834       $unwind$?Save@?$IPersistStorageImpl@VCOPOSElectronicJournal@@@ATL@@UEAAJPEAUIStorage@@H@Z 000000018002d834     ElectronicJournal.obj
 0002:0000b848       $unwind$?DAdvise@?$IDataObjectImpl@VCOPOSElectronicJournal@@@ATL@@UEAAJPEAUtagFORMATETC@@KPEAUIAdviseSink@@PEAK@Z 000000018002d848     ElectronicJournal.obj
 0002:0000b860       $unwind$?GetInterfaceSafetyOptions@?$IObjectSafetyImpl@VCOPOSElectronicJournal@@$02@ATL@@UEAAJAEBU_GUID@@PEAK1@Z 000000018002d860     ElectronicJournal.obj
 0002:0000b874       $unwind$?SetInterfaceSafetyOptions@?$IObjectSafetyImpl@VCOPOSElectronicJournal@@$02@ATL@@UEAAJAEBU_GUID@@KK@Z 000000018002d874     ElectronicJournal.obj
 0002:0000b888       $unwind$?Advise@?$IConnectionPointImpl@VCOPOSElectronicJournal@@$1?IID_IPropertyNotifySink@@3U_GUID@@BVCComDynamicUnkArray@ATL@@@ATL@@UEAAJPEAUIUnknown@@PEAK@Z 000000018002d888     ElectronicJournal.obj
 0002:0000b888       $unwind$?Advise@?$IConnectionPointImpl@VCOPOSElectronicJournal@@$1?DIID__IOPOSElectronicJournalEvents@@3U_GUID@@BVCComDynamicUnkArray@ATL@@@ATL@@UEAAJPEAUIUnknown@@PEAK@Z 000000018002d888     ElectronicJournal.obj
 0002:0000b89c       $unwind$?EnumConnections@?$IConnectionPointImpl@VCOPOSElectronicJournal@@$1?IID_IPropertyNotifySink@@3U_GUID@@BVCComDynamicUnkArray@ATL@@@ATL@@UEAAJPEAPEAUIEnumConnections@@@Z 000000018002d89c     ElectronicJournal.obj
 0002:0000b89c       $unwind$?EnumConnections@?$IConnectionPointImpl@VCOPOSElectronicJournal@@$1?DIID__IOPOSElectronicJournalEvents@@3U_GUID@@BVCComDynamicUnkArray@ATL@@@ATL@@UEAAJPEAPEAUIEnumConnections@@@Z 000000018002d89c     ElectronicJournal.obj
 0002:0000b89c       $unwind$??$create_environment@D@@YAQEAPEADQEAD@Z 000000018002d89c     libucrt:environment_initialization.obj
 0002:0000b8b4       $unwind$?Fire_DataEvent@?$CProxy_IOPOSEvents@VCOPOSElectronicJournal@@@@QEAAXJ@Z 000000018002d8b4     ElectronicJournal.obj
 0002:0000b8b4       $unwind$?Fire_StatusUpdateEvent@?$CProxy_IOPOSEvents@VCOPOSElectronicJournal@@@@QEAAXJ@Z 000000018002d8b4     ElectronicJournal.obj
 0002:0000b8b4       $unwind$_mbtowc_l          000000018002d8b4     libucrt:mbtowc.obj
 0002:0000b8b4       $unwind$?Fire_OutputCompleteEvent@?$CProxy_IOPOSEvents@VCOPOSElectronicJournal@@@@QEAAXJ@Z 000000018002d8b4     ElectronicJournal.obj
 0002:0000b8b4       $unwind$??$__InternalCxxFrameHandler@V__FrameHandler3@@@@YA?AW4_EXCEPTION_DISPOSITION@@PEAUEHExceptionRecord@@PEA_KPEAU_CONTEXT@@PEAU_xDISPATCHER_CONTEXT@@PEBU_s_FuncInfo@@H1E@Z 000000018002d8b4     libvcruntime:frame.obj
 0002:0000b8cc       $unwind$?Fire_DirectIOEvent@?$CProxy_IOPOSEvents@VCOPOSElectronicJournal@@@@QEAAXJPEAJPEAPEA_W@Z 000000018002d8cc     ElectronicJournal.obj
 0002:0000b8ec       $unwind$?Fire_ErrorEvent@?$CProxy_IOPOSEvents@VCOPOSElectronicJournal@@@@QEAAXJJJPEAJ@Z 000000018002d8ec     ElectronicJournal.obj
 0002:0000b90c       $unwind$?FireTheEvent@?$CProxy_IOPOSEvents@VCOPOSElectronicJournal@@@@IEAAXPEAVOposVariant@@IAEAJPEB_WJ@Z 000000018002d90c     ElectronicJournal.obj
 0002:0000b91c       $unwind$__dcrt_get_narrow_environment_from_os 000000018002d91c     libucrt:get_environment_from_os.obj
 0002:0000b91c       $unwind$?fp_format_f_internal@@YAHQEAD_KHQEAU_strflt@@_NQEAU__crt_locale_pointers@@@Z 000000018002d91c     libucrt:cvt.obj
 0002:0000b91c       $unwind$?ProcessWindowMessage@COPOSElectronicJournal@@UEAAHPEAUHWND__@@I_K_JAEA_JK@Z 000000018002d91c     ElectronicJournal.obj
 0002:0000b934       $unwind$_invalid_parameter 000000018002d934     libucrt:invalid_parameter.obj
 0002:0000b934       $unwind$?SOError@COPOSElectronicJournal@@MEAAJJJJPEAJ@Z 000000018002d934     ElectronicJournal.obj
 0002:0000b948       $unwind$?Clone@?$CComEnumImpl@UIEnumConnections@@$1?_GUID_b196b287_bab4_101a_b69c_00aa00341d07@@3U__s_GUID@@BUtagCONNECTDATA@@V?$_Copy@UtagCONNECTDATA@@@ATL@@@ATL@@UEAAJPEAPEAUIEnumConnections@@@Z 000000018002d948     ElectronicJournal.obj
 0002:0000b948       $unwind$?Clone@?$CComEnumImpl@UIEnumConnectionPoints@@$1?_GUID_b196b285_bab4_101a_b69c_00aa00341d07@@3U__s_GUID@@BPEAUIConnectionPoint@@V?$_CopyInterface@UIConnectionPoint@@@ATL@@@ATL@@UEAAJPEAPEAUIEnumConnectionPoints@@@Z 000000018002d948     ElectronicJournal.obj
 0002:0000b960       $unwind$?GetOposProp@COPOSElectronicJournal@@IEAAJJPEAJJ@Z 000000018002d960     ElectronicJournalImpl.obj
 0002:0000b960       $unwind$?GetOposProp@COPOSElectronicJournal@@IEAAJJPEAPEA_WJ@Z 000000018002d960     ElectronicJournalImpl.obj
 0002:0000b978       $unwind$?SetOposProp@COPOSElectronicJournal@@IEAAJJJJ@Z 000000018002d978     ElectronicJournalImpl.obj
 0002:0000b998       $unwind$?DoInvoke@COPOSElectronicJournal@@IEAAJJPEAVOposVariant@@IHPEAJ_N@Z 000000018002d998     ElectronicJournalImpl.obj
 0002:0000b9b0       $unwind$?SetCOFreezeEvents@COPOSElectronicJournal@@IEAAXF@Z 000000018002d9b0     ElectronicJournalImpl.obj
 0002:0000b9c4       $unwind$?OnDraw@COPOSElectronicJournal@@MEAAJAEAUATL_DRAWINFO@@@Z 000000018002d9c4     ElectronicJournalImpl.obj
 0002:0000b9dc       $unwind$?EventInit@COPOSElectronicJournal@@IEAAJXZ 000000018002d9dc     ElectronicJournalImpl.obj
 0002:0000b9f0       $unwind$?EventWindowProc@COPOSElectronicJournal@@IEAA_JI_K_J@Z 000000018002d9f0     ElectronicJournalImpl.obj
 0002:0000ba00       $unwind$?get_ControlObjectDescription@COPOSElectronicJournal@@UEAAJPEAPEA_W@Z 000000018002da00     ElectronicJournalImpl.obj
 0002:0000ba00       $unwind$isdigit            000000018002da00     libucrt:_ctype.obj
 0002:0000ba00       $unwind$__scrt_initialize_onexit_tables 000000018002da00     LIBCMT:utility.obj
 0002:0000ba00       $unwind$?getSystemCP@@YAHH@Z 000000018002da00     libucrt:mbctype.obj
 0002:0000ba00       $unwind$_isleadbyte_l      000000018002da00     libucrt:_wctype.obj
 0002:0000ba08       $unwind$?UpdateFirmware@COPOSElectronicJournal@@UEAAJPEA_WPEAJ@Z 000000018002da08     ElectronicJournalImpl.obj
 0002:0000ba08       $unwind$?CheckHealth@COPOSElectronicJournal@@UEAAJJPEAJ@Z 000000018002da08     ElectronicJournalImpl.obj
 0002:0000ba08       $unwind$?ResetStatistics@COPOSElectronicJournal@@UEAAJPEA_WPEAJ@Z 000000018002da08     ElectronicJournalImpl.obj
 0002:0000ba08       $unwind$?AddMarker@COPOSElectronicJournal@@UEAAJPEA_WPEAJ@Z 000000018002da08     ElectronicJournalImpl.obj
 0002:0000ba08       $unwind$?InitializeMedium@COPOSElectronicJournal@@UEAAJPEA_WPEAJ@Z 000000018002da08     ElectronicJournalImpl.obj
 0002:0000ba08       $unwind$?RetrieveStatistics@COPOSElectronicJournal@@UEAAJPEAPEA_WPEAJ@Z 000000018002da08     ElectronicJournalImpl.obj
 0002:0000ba08       $unwind$?UpdateStatistics@COPOSElectronicJournal@@UEAAJPEA_WPEAJ@Z 000000018002da08     ElectronicJournalImpl.obj
 0002:0000ba08       $unwind$?PrintContentFile@COPOSElectronicJournal@@UEAAJPEA_WPEAJ@Z 000000018002da08     ElectronicJournalImpl.obj
 0002:0000ba18       $unwind$?ClaimDevice@COPOSElectronicJournal@@UEAAJJPEAJ@Z 000000018002da18     ElectronicJournalImpl.obj
 0002:0000ba28       $unwind$?DirectIO@COPOSElectronicJournal@@UEAAJJPEAJPEAPEA_W0@Z 000000018002da28     ElectronicJournalImpl.obj
 0002:0000ba44       $unwind$?Open@COPOSElectronicJournal@@UEAAJPEA_WPEAJ@Z 000000018002da44     ElectronicJournalImpl.obj
 0002:0000ba68       $unwind$?RetrieveCurrentMarker@COPOSElectronicJournal@@UEAAJJPEAPEA_WPEAJ@Z 000000018002da68     ElectronicJournalImpl.obj
 0002:0000ba68       $unwind$?initialize_inherited_file_handles_nolock@@YAXXZ 000000018002da68     libucrt:ioinit.obj
 0002:0000ba68       $unwind$?RetrieveMarkersDateTime@COPOSElectronicJournal@@UEAAJPEA_WPEAPEA_WPEAJ@Z 000000018002da68     ElectronicJournalImpl.obj
 0002:0000ba68       $unwind$?CompareFirmwareVersion@COPOSElectronicJournal@@UEAAJPEA_WPEAJ1@Z 000000018002da68     ElectronicJournalImpl.obj
 0002:0000ba68       $unwind$?PrintContent@COPOSElectronicJournal@@UEAAJPEA_W0PEAJ@Z 000000018002da68     ElectronicJournalImpl.obj
 0002:0000ba84       $unwind$?get_MediumSize@COPOSElectronicJournal@@UEAAJPEATtagCY@@@Z 000000018002da84     ElectronicJournalImpl.obj
 0002:0000ba84       $unwind$?get_MediumFreeSpace@COPOSElectronicJournal@@UEAAJPEATtagCY@@@Z 000000018002da84     ElectronicJournalImpl.obj
 0002:0000ba98       $unwind$?QueryContent@COPOSElectronicJournal@@UEAAJPEA_W00PEAJ@Z 000000018002da98     ElectronicJournalImpl.obj
 0002:0000bab8       $unwind$?RetrieveMarker@COPOSElectronicJournal@@UEAAJJJJPEAPEA_WPEAJ@Z 000000018002dab8     ElectronicJournalImpl.obj
 0002:0000bad8       $unwind$?RetrieveMarkerByDateTime@COPOSElectronicJournal@@UEAAJJPEA_W0PEAPEA_WPEAJ@Z 000000018002dad8     ElectronicJournalImpl.obj
 0002:0000baf8       $unwind$__scrt_is_nonwritable_in_current_image 000000018002daf8     LIBCMT:utility.obj
 0002:0000bb18       $unwind$__scrt_is_nonwritable_in_current_image$filt$0 000000018002db18     LIBCMT:utility.obj
 0002:0000bb20       $unwind$?__scrt_initialize_thread_safe_statics@@YAHXZ 000000018002db20     LIBCMT:thread_safe_statics.obj
 0002:0000bb38       $stateUnwindMap$?__scrt_initialize_thread_safe_statics@@YAHXZ 000000018002db38     LIBCMT:thread_safe_statics.obj
 0002:0000bb40       $ip2state$?__scrt_initialize_thread_safe_statics@@YAHXZ 000000018002db40     LIBCMT:thread_safe_statics.obj
 0002:0000bb48       $unwind$__report_securityfailure 000000018002db48     LIBCMT:gs_report.obj
 0002:0000bb50       $unwind$__report_gsfailure 000000018002db50     LIBCMT:gs_report.obj
 0002:0000bb50       $unwind$_putwch_nolock     000000018002db50     libucrt:putwch.obj
 0002:0000bb58       $unwind$capture_current_context 000000018002db58     LIBCMT:gs_report.obj
 0002:0000bb64       $unwind$capture_previous_context 000000018002db64     LIBCMT:gs_report.obj
 0002:0000bb70       $unwind$??2@YAPEAX_KAEBUnothrow_t@std@@@Z 000000018002db70     LIBCMT:new_scalar_nothrow.obj
 0002:0000bb80       $stateUnwindMap$??2@YAPEAX_KAEBUnothrow_t@std@@@Z 000000018002db80     LIBCMT:new_scalar_nothrow.obj
 0002:0000bb90       $tryMap$??2@YAPEAX_KAEBUnothrow_t@std@@@Z 000000018002db90     LIBCMT:new_scalar_nothrow.obj
 0002:0000bba4       $handlerMap$0$??2@YAPEAX_KAEBUnothrow_t@std@@@Z 000000018002dba4     LIBCMT:new_scalar_nothrow.obj
 0002:0000bbb8       $ip2state$??2@YAPEAX_KAEBUnothrow_t@std@@@Z 000000018002dbb8     LIBCMT:new_scalar_nothrow.obj
 0002:0000bbc0       $unwind$?catch$0@?0???2@YAPEAX_KAEBUnothrow_t@std@@@Z@4HA 000000018002dbc0     LIBCMT:new_scalar_nothrow.obj
 0002:0000bbd0       $unwind$__GSHandlerCheckCommon 000000018002dbd0     LIBCMT:_gshandler_.obj
 0002:0000bbd8       $xdatasym                  000000018002dbd8     LIBCMT:_chkstk_.obj
 0002:0000bbe0       $xdatasym                  000000018002dbe0     LIBCMT:_amdsecgs_.obj
 0002:0000bbe4       $unwind$?dllmain_crt_process_attach@@YAHQEAUHINSTANCE__@@QEAX@Z 000000018002dbe4     LIBCMT:dll_dllmain.obj
 0002:0000bc20       $unwind$?dllmain_crt_process_detach@@YAH_N@Z 000000018002dc20     LIBCMT:dll_dllmain.obj
 0002:0000bc58       $unwind$?dllmain_dispatch@@YAHQEAUHINSTANCE__@@KQEAX@Z 000000018002dc58     LIBCMT:dll_dllmain.obj
 0002:0000bc80       $unwind$?filt$0@?0??dllmain_dispatch@@YAHQEAUHINSTANCE__@@KQEAX@Z@4HA 000000018002dc80     LIBCMT:dll_dllmain.obj
 0002:0000bc88       $unwind$__isa_available_init 000000018002dc88     LIBCMT:_cpu_disp_.obj
 0002:0000bc9c       $unwind$__scrt_fastfail    000000018002dc9c     LIBCMT:utility_desktop.obj
 0002:0000bcac       $unwind$__security_init_cookie 000000018002dcac     LIBCMT:gs_support.obj
 0002:0000bcb8       $xdatasym                  000000018002dcb8     LIBCMT:_guard_dispatch_.obj
 0002:0000bcbc       $unwind$AtlThunk_InitData  000000018002dcbc     atls:atlthunk.obj
 0002:0000bcd0       $xdatasym                  000000018002dcd0     libvcruntime:memset.obj
 0002:0000bce0       $unwind$wcsstr             000000018002dce0     libvcruntime:wcsstr.obj
 0002:0000bcf8       $xdatasym                  000000018002dcf8     libvcruntime:memcmp.obj
 0002:0000bd00       $xdatasym                  000000018002dd00     libvcruntime:memcpy.obj
 0002:0000bd10       $unwind$__C_specific_handler 000000018002dd10     libvcruntime:_riscchandler_.obj
 0002:0000bd2c       $unwind$__DestructExceptionObject 000000018002dd2c     libvcruntime:ehhelpers.obj
 0002:0000bd4c       $unwind$?GetEstablisherFrame@__FrameHandler3@@SAPEA_KPEA_KPEAU_xDISPATCHER_CONTEXT@@PEBU_s_FuncInfo@@0@Z 000000018002dd4c     libvcruntime:risctrnsctrl.obj
 0002:0000bd64       $unwind$?UnwindNestedFrames@__FrameHandler3@@SAXPEA_KPEAUEHExceptionRecord@@PEAU_CONTEXT@@0PEAXPEBU_s_FuncInfo@@HHPEBU_s_HandlerType@@PEAU_xDISPATCHER_CONTEXT@@E@Z 000000018002dd64     libvcruntime:risctrnsctrl.obj
 0002:0000bd78       $unwind$?GetRangeOfTrysToCheck@__FrameHandler3@@SA?AU?$pair@Viterator@TryBlockMap@__FrameHandler3@@V123@@std@@AEAVTryBlockMap@1@HH@Z 000000018002dd78     libvcruntime:risctrnsctrl.obj
 0002:0000bd90       $unwind$__CxxFrameHandler3 000000018002dd90     libvcruntime:risctrnsctrl.obj
 0002:0000bda0       $unwind$??$_CallSETranslator@V__FrameHandler3@@@@YAHPEAUEHExceptionRecord@@PEA_KPEAU_CONTEXT@@PEAU_xDISPATCHER_CONTEXT@@PEBU_s_FuncInfo@@K1@Z 000000018002dda0     libvcruntime:risctrnsctrl.obj
 0002:0000bdc0       $unwind$?filt$0@?0???$_CallSETranslator@V__FrameHandler3@@@@YAHPEAUEHExceptionRecord@@PEA_KPEAU_CONTEXT@@PEAU_xDISPATCHER_CONTEXT@@PEBU_s_FuncInfo@@K1@Z@4HA 000000018002ddc0     libvcruntime:risctrnsctrl.obj
 0002:0000bdcc       $unwind$_CxxThrowException 000000018002ddcc     libvcruntime:throw.obj
 0002:0000bddc       $unwind$__vcrt_initialize_winapi_thunks 000000018002dddc     libvcruntime:winapi_downlevel.obj
 0002:0000bddc       $unwind$__acrt_initialize_winapi_thunks 000000018002dddc     libucrt:winapi_thunks.obj
 0002:0000bde4       $unwind$__vcrt_uninitialize_winapi_thunks 000000018002dde4     libvcruntime:winapi_downlevel.obj
 0002:0000bdec       $unwind$?IsInExceptionSpec@@YAEPEAUEHExceptionRecord@@PEBU_s_ESTypeList@@@Z 000000018002ddec     libvcruntime:frame.obj
 0002:0000bdec       $unwind$??R<lambda_f03950bc5685219e0bcd2087efbe011e>@@QEBAHXZ 000000018002ddec     libucrt:onexit.obj
 0002:0000bdec       $unwind$?try_get_function@@YAPEAXW4function_id@?A0x391cf84c@@QEBDQEBW4module_id@2@2@Z 000000018002ddec     libucrt:winapi_thunks.obj
 0002:0000bdec       $unwind$?try_get_function@@YAPEAXW4function_id@?A0xcc2f1bd3@@QEBDQEBW4module_id@2@2@Z 000000018002ddec     libvcruntime:winapi_downlevel.obj
 0002:0000be08       $xdatasym                  000000018002de08     libvcruntime:_notify_.obj
 0002:0000be14       $unwind$?FrameUnwindToState@__FrameHandler3@@SAXPEA_KPEAU_xDISPATCHER_CONTEXT@@PEBU_s_FuncInfo@@H@Z 000000018002de14     libvcruntime:frame.obj
 0002:0000be60       $unwind$?CxxCallCatchBlock@__FrameHandler3@@SAPEAXPEAU_EXCEPTION_RECORD@@@Z 000000018002de60     libvcruntime:frame.obj
 0002:0000be9c       $unwind$?fin$1@?0??CxxCallCatchBlock@__FrameHandler3@@SAPEAXPEAU_EXCEPTION_RECORD@@@Z@4HA 000000018002de9c     libvcruntime:frame.obj
 0002:0000bea8       $unwind$??$BuildCatchObjectHelperInternal@$$CBU_s_HandlerType@@@@YAHPEAUEHExceptionRecord@@PEAXPEBU_s_HandlerType@@PEBU_s_CatchableType@@@Z 000000018002dea8     libvcruntime:frame.obj
 0002:0000bee8       $unwind$??$BuildCatchObjectInternal@$$CBU_s_HandlerType@@@@YAXPEAUEHExceptionRecord@@PEAXPEBU_s_HandlerType@@PEBU_s_CatchableType@@@Z 000000018002dee8     libvcruntime:frame.obj
 0002:0000bf14       $unwind$??$FindHandler@V__FrameHandler3@@@@YAXPEAUEHExceptionRecord@@PEA_KPEAU_CONTEXT@@PEAU_xDISPATCHER_CONTEXT@@PEBU_s_FuncInfo@@EH1@Z 000000018002df14     libvcruntime:frame.obj
 0002:0000bf30       $unwind$??$CatchIt@V__FrameHandler3@@@@YAXPEAUEHExceptionRecord@@PEA_KPEAU_CONTEXT@@PEAU_xDISPATCHER_CONTEXT@@PEBU_s_FuncInfo@@PEBU_s_HandlerType@@PEBU_s_CatchableType@@PEBU_s_TryBlockMapEntry@@H1EE@Z 000000018002df30     libvcruntime:frame.obj
 0002:0000bf48       $unwind$??$FindHandlerForForeignException@V__FrameHandler3@@@@YAXPEAUEHExceptionRecord@@PEA_KPEAU_CONTEXT@@PEAU_xDISPATCHER_CONTEXT@@PEBU_s_FuncInfo@@HH1@Z 000000018002df48     libvcruntime:frame.obj
 0002:0000bf68       $xdatasym                  000000018002df68     libvcruntime:handlers.obj
 0002:0000bf78       $unwind$__acrt_call_reportfault 000000018002df78     libucrt:invalid_parameter.obj
 0002:0000bf98       $unwind$_resetstkoflw      000000018002df98     libucrt:resetstk.obj
 0002:0000bfbc       $unwind$?write_string@?$string_output_adapter@_W@__crt_stdio_output@@QEBAXQEB_WHQEAHAEAV__crt_deferred_errno_cache@@@Z 000000018002dfbc     libucrt:output.obj
 0002:0000bfd4       $unwind$??$common_vsprintf@Vformat_validation_base@__crt_stdio_output@@_W@@YAH_KQEA_W0QEB_WQEAU__crt_locale_pointers@@QEAD@Z 000000018002dfd4     libucrt:output.obj
 0002:0000bff4       $unwind$??$write_multiple_characters@V?$string_output_adapter@_W@__crt_stdio_output@@D@__crt_stdio_output@@YAXAEBV?$string_output_adapter@_W@0@DHQEAH@Z 000000018002dff4     libucrt:output.obj
 0002:0000c000       $unwind$?parse_int_from_format_string@?$output_processor@_WV?$string_output_adapter@_W@__crt_stdio_output@@V?$format_validation_base@_WV?$string_output_adapter@_W@__crt_stdio_output@@@2@@__crt_stdio_output@@AEAA_NQEAH@Z 000000018002e000     libucrt:output.obj
 0002:0000c014       $unwind$?state_case_type@?$output_processor@_WV?$string_output_adapter@_W@__crt_stdio_output@@V?$format_validation_base@_WV?$string_output_adapter@_W@__crt_stdio_output@@@2@@__crt_stdio_output@@AEAA_NXZ 000000018002e014     libucrt:output.obj
 0002:0000c038       $unwind$?type_case_a@?$output_processor@_WV?$string_output_adapter@_W@__crt_stdio_output@@V?$format_validation_base@_WV?$string_output_adapter@_W@__crt_stdio_output@@@2@@__crt_stdio_output@@AEAA_NXZ 000000018002e038     libucrt:output.obj
 0002:0000c048       $unwind$?write_stored_string_tchar@?$output_processor@_WV?$string_output_adapter@_W@__crt_stdio_output@@V?$format_validation_base@_WV?$string_output_adapter@_W@__crt_stdio_output@@@2@@__crt_stdio_output@@AEAA_N_W@Z 000000018002e048     libucrt:output.obj
 0002:0000c05c       $unwind$??$type_case_integer_parse_into_buffer@I@?$output_processor@_WV?$string_output_adapter@_W@__crt_stdio_output@@V?$format_validation_base@_WV?$string_output_adapter@_W@__crt_stdio_output@@@2@@__crt_stdio_output@@AEAAXII_N@Z 000000018002e05c     libucrt:output.obj
 0002:0000c05c       $unwind$??$type_case_integer_parse_into_buffer@_K@?$output_processor@_WV?$string_output_adapter@_W@__crt_stdio_output@@V?$format_validation_base@_WV?$string_output_adapter@_W@__crt_stdio_output@@@2@@__crt_stdio_output@@AEAAX_KI_N@Z 000000018002e05c     libucrt:output.obj
 0002:0000c064       $unwind$?common_exit@@YAXHW4_crt_exit_cleanup_mode@@W4_crt_exit_return_mode@@@Z 000000018002e064     libucrt:exit.obj
 0002:0000c070       $unwind$??R<lambda_6e4b09c48022b2350581041d5f6b0c4c>@@QEBA@XZ 000000018002e070     libucrt:exit.obj
 0002:0000c090       $unwind$??$?RV<lambda_d80eeec6fff315bfe5c115232f3240e3>@@AEAV<lambda_6e4b09c48022b2350581041d5f6b0c4c>@@V<lambda_2358e3775559c9db80273638284d5e45>@@@?$__crt_seh_guarded_call@X@@QEAAX$$QEAV<lambda_d80eeec6fff315bfe5c115232f3240e3>@@AEAV<lambda_6e4b09c48022b2350581041d5f6b0c4c>@@$$QEAV<lambda_2358e3775559c9db80273638284d5e45>@@@Z 000000018002e090     libucrt:exit.obj
 0002:0000c0b4       $unwind$??$free_environment@_W@@YAXQEAPEA_W@Z 000000018002e0b4     libucrt:environment_initialization.obj
 0002:0000c0b4       $unwind$??$free_environment@D@@YAXQEAPEAD@Z 000000018002e0b4     libucrt:environment_initialization.obj
 0002:0000c0c0       $unwind$_register_onexit_function 000000018002e0c0     libucrt:onexit.obj
 0002:0000c0c8       $unwind$_execute_onexit_table 000000018002e0c8     libucrt:onexit.obj
 0002:0000c0d0       $unwind$??$?RV<lambda_638799b9deba96c50f710eeac98168cd>@@AEAV<lambda_22ebabd17bc4fa466a2aca6d8deb888d>@@V<lambda_a6f7d7db0129f75315ebf26d50c089f1>@@@?$__crt_seh_guarded_call@H@@QEAAH$$QEAV<lambda_638799b9deba96c50f710eeac98168cd>@@AEAV<lambda_22ebabd17bc4fa466a2aca6d8deb888d>@@$$QEAV<lambda_a6f7d7db0129f75315ebf26d50c089f1>@@@Z 000000018002e0d0     libucrt:onexit.obj
 0002:0000c0f4       $unwind$??$?RV<lambda_7777bce6b2f8c936911f934f8298dc43>@@AEAV<lambda_f03950bc5685219e0bcd2087efbe011e>@@V<lambda_3883c3dff614d5e0c5f61bb1ac94921c>@@@?$__crt_seh_guarded_call@H@@QEAAH$$QEAV<lambda_7777bce6b2f8c936911f934f8298dc43>@@AEAV<lambda_f03950bc5685219e0bcd2087efbe011e>@@$$QEAV<lambda_3883c3dff614d5e0c5f61bb1ac94921c>@@@Z 000000018002e0f4     libucrt:onexit.obj
 0002:0000c118       $unwind$_query_new_handler 000000018002e118     libucrt:new_handler.obj
 0002:0000c138       $unwind$terminate          000000018002e138     libucrt:terminate.obj
 0002:0000c158       $unwind$??$parse_integer@KV?$c_string_character_source@_W@__crt_strtox@@@__crt_strtox@@YAKQEAU__crt_locale_pointers@@V?$c_string_character_source@_W@0@H_N@Z 000000018002e158     libucrt:atox.obj
 0002:0000c178       $xdatasym                  000000018002e178     libucrt:strncmp.obj
 0002:0000c17c       $unwind$?construct_ptd_array@@YAXQEAU__acrt_ptd@@@Z 000000018002e17c     libucrt:per_thread_data.obj
 0002:0000c184       $unwind$?destroy_ptd_array@@YAXQEAU__acrt_ptd@@@Z 000000018002e184     libucrt:per_thread_data.obj
 0002:0000c18c       $unwind$??$?RV<lambda_0ae27a3a962d80f24befdcbee591983d>@@AEAV<lambda_8d0ee55de4b1038c4002e0adecdf1839>@@V<lambda_dc504788e8f1664fe9b84e20bfb512f2>@@@?$__crt_seh_guarded_call@X@@QEAAX$$QEAV<lambda_0ae27a3a962d80f24befdcbee591983d>@@AEAV<lambda_8d0ee55de4b1038c4002e0adecdf1839>@@$$QEAV<lambda_dc504788e8f1664fe9b84e20bfb512f2>@@@Z 000000018002e18c     libucrt:per_thread_data.obj
 0002:0000c1b0       $unwind$??$?RV<lambda_aa87e3671a710a21b5dc78c0bdf72e11>@@AEAV<lambda_92619d2358a28f41a33ba319515a20b9>@@V<lambda_6992ecaafeb10aed2b74cb1fae11a551>@@@?$__crt_seh_guarded_call@X@@QEAAX$$QEAV<lambda_aa87e3671a710a21b5dc78c0bdf72e11>@@AEAV<lambda_92619d2358a28f41a33ba319515a20b9>@@$$QEAV<lambda_6992ecaafeb10aed2b74cb1fae11a551>@@@Z 000000018002e1b0     libucrt:per_thread_data.obj
 0002:0000c1d4       $unwind$??$?RV<lambda_f2e299630e499de9f9a165e60fcd3db5>@@AEAV<lambda_2ae9d31cdba2644fcbeaf08da7c24588>@@V<lambda_40d01ff24d0e7b3814fdbdcee8eab3c7>@@@?$__crt_seh_guarded_call@X@@QEAAX$$QEAV<lambda_f2e299630e499de9f9a165e60fcd3db5>@@AEAV<lambda_2ae9d31cdba2644fcbeaf08da7c24588>@@$$QEAV<lambda_40d01ff24d0e7b3814fdbdcee8eab3c7>@@@Z 000000018002e1d4     libucrt:per_thread_data.obj
 0002:0000c1f8       $unwind$??$?RV<lambda_2d41944a1d46af3157314b8a01080d33>@@AEAV<lambda_8f455de75cd7d7f24b4096f044d8b9e6>@@V<lambda_aa500f224e6afead328df44964fe2772>@@@?$__crt_seh_guarded_call@X@@QEAAX$$QEAV<lambda_2d41944a1d46af3157314b8a01080d33>@@AEAV<lambda_8f455de75cd7d7f24b4096f044d8b9e6>@@$$QEAV<lambda_aa500f224e6afead328df44964fe2772>@@@Z 000000018002e1f8     libucrt:per_thread_data.obj
 0002:0000c21c       $unwind$_tolower_l         000000018002e21c     libucrt:tolower_toupper.obj
 0002:0000c22c       $unwind$wcstol             000000018002e22c     libucrt:strtox.obj
 0002:0000c234       $unwind$wcsnlen            000000018002e234     libucrt:strnlen.obj
 0002:0000c23c       $unwind$__acrt_fp_format   000000018002e23c     libucrt:cvt.obj
 0002:0000c258       $unwind$?fp_format_nan_or_infinity@@YAHW4__acrt_fp_class@@_NPEAD_K1@Z 000000018002e258     libucrt:cvt.obj
 0002:0000c26c       $unwind$?fp_format_e_internal@@YAHQEAD_KH_NIQEAU_strflt@@2QEAU__crt_locale_pointers@@@Z 000000018002e26c     libucrt:cvt.obj
 0002:0000c284       $unwind$?fp_format_a@@YAHQEBNPEAD_KQEAD2H_NIQEAU__crt_locale_pointers@@@Z 000000018002e284     libucrt:cvt.obj
 0002:0000c2a0       $unwind$?fp_format_g@@YAHQEBNQEAD_K12H_NIQEAU__crt_locale_pointers@@@Z 000000018002e2a0     libucrt:cvt.obj
 0002:0000c2b4       $unwind$__acrt_get_sigabrt_handler 000000018002e2b4     libucrt:signal.obj
 0002:0000c2b4       $unwind$__acrt_uninitialize_locale 000000018002e2b4     libucrt:wsetlocale.obj
 0002:0000c2bc       $unwind$??$?RV<lambda_410d79af7f07d98d83a3f525b3859a53>@@AEAV<lambda_3e16ef9562a7dcce91392c22ab16ea36>@@V<lambda_38119f0e861e05405d8a144b9b982f0a>@@@?$__crt_seh_guarded_call@X@@QEAAX$$QEAV<lambda_410d79af7f07d98d83a3f525b3859a53>@@AEAV<lambda_3e16ef9562a7dcce91392c22ab16ea36>@@$$QEAV<lambda_38119f0e861e05405d8a144b9b982f0a>@@@Z 000000018002e2bc     libucrt:wsetlocale.obj
 0002:0000c2e4       $unwind$__acrt_initialize_lowio 000000018002e2e4     libucrt:ioinit.obj
 0002:0000c304       $unwind$??$common_expand_argv_wildcards@D@@YAHQEAPEADQEAPEAPEAD@Z 000000018002e304     libucrt:argv_wildcards.obj
 0002:0000c31c       $unwind$??$copy_and_add_argument_to_buffer@D@@YAHQEBD0_KAEAV?$argument_list@D@?A0x5f5c8891@@@Z 000000018002e31c     libucrt:argv_wildcards.obj
 0002:0000c338       $unwind$??$expand_argument_wildcards@D@@YAHQEAD0AEAV?$argument_list@D@?A0x5f5c8891@@@Z 000000018002e338     libucrt:argv_wildcards.obj
 0002:0000c358       $unwind$_setmbcp_nolock    000000018002e358     libucrt:mbctype.obj
 0002:0000c378       $unwind$?setSBUpLow@@YAXPEAU__crt_multibyte_data@@@Z 000000018002e378     libucrt:mbctype.obj
 0002:0000c394       $unwind$?update_thread_multibyte_data_internal@@YAPEAU__crt_multibyte_data@@QEAU__acrt_ptd@@QEAU1@@Z 000000018002e394     libucrt:mbctype.obj
 0002:0000c3bc       $unwind$?setmbcp_internal@@YAHH_NQEAU__acrt_ptd@@QEAPEAU__crt_multibyte_data@@@Z 000000018002e3bc     libucrt:mbctype.obj
 0002:0000c3cc       $unwind$??$?RV<lambda_efdfa57d1f175319df784efa44bb7b81>@@AEAV<lambda_5f0a4c1567f8adc6734073e5d1e1b35c>@@V<lambda_2e8a7d3640ea6ccb4c2413664c2db6fd>@@@?$__crt_seh_guarded_call@X@@QEAAX$$QEAV<lambda_efdfa57d1f175319df784efa44bb7b81>@@AEAV<lambda_5f0a4c1567f8adc6734073e5d1e1b35c>@@$$QEAV<lambda_2e8a7d3640ea6ccb4c2413664c2db6fd>@@@Z 000000018002e3cc     libucrt:mbctype.obj
 0002:0000c3f0       $unwind$raise              000000018002e3f0     libucrt:signal.obj
 0002:0000c41c       $unwind$??$?RV<lambda_450d765d439847d4c735a33c368b5fc0>@@AEAV<lambda_44731a7d0e6d81c3e6aa82d741081786>@@V<lambda_601a2a7da3b7a96e9554ac7215c4b07c>@@@?$__crt_seh_guarded_call@P6AXH@Z@@QEAAP6AXH@Z$$QEAV<lambda_450d765d439847d4c735a33c368b5fc0>@@AEAV<lambda_44731a7d0e6d81c3e6aa82d741081786>@@$$QEAV<lambda_601a2a7da3b7a96e9554ac7215c4b07c>@@@Z 000000018002e41c     libucrt:signal.obj
 0002:0000c440       $unwind$_isctype_l         000000018002e440     libucrt:isctype.obj
 0002:0000c45c       $unwind$__acrt_update_thread_locale_data 000000018002e45c     libucrt:locale_refcounting.obj
 0002:0000c480       $unwind$?GetTableIndexFromLocaleName@@YAHPEB_W@Z 000000018002e480     libucrt:lcidtoname_downlevel.obj
 0002:0000c498       $unwind$__acrt_LCMapStringA 000000018002e498     libucrt:lcmapstringa.obj
 0002:0000c4a8       $unwind$?__acrt_LCMapStringA_stat@@YAHPEAU__crt_locale_pointers@@PEB_WKPEBDHPEADHHH@Z 000000018002e4a8     libucrt:lcmapstringa.obj
 0002:0000c4d0       $unwind$__acrt_fltout      000000018002e4d0     libucrt:cfout.obj
 0002:0000c4f0       $unwind$?divide@__crt_strtox@@YA_KAEAUbig_integer@1@AEBU21@@Z 000000018002e4f0     libucrt:cfout.obj
 0002:0000c510       $chain$5$?divide@__crt_strtox@@YA_KAEAUbig_integer@1@AEBU21@@Z 000000018002e510     libucrt:cfout.obj
 0002:0000c524       $chain$6$?divide@__crt_strtox@@YA_KAEAUbig_integer@1@AEBU21@@Z 000000018002e524     libucrt:cfout.obj
 0002:0000c534       $unwind$_fcloseall         000000018002e534     libucrt:closeall.obj
 0002:0000c558       $unwind$?common_flush_all@@YAH_N@Z 000000018002e558     libucrt:fflush.obj
 0002:0000c560       $unwind$??$?RV<lambda_842d9ff0dc9ef11c61343bbaebe7f885>@@AEAV<lambda_c5860995281e5c4ce005b3de8f5874ee>@@V<lambda_d90129c13df834fdcbf8d2b88dafcf2d>@@@?$__crt_seh_guarded_call@X@@QEAAX$$QEAV<lambda_842d9ff0dc9ef11c61343bbaebe7f885>@@AEAV<lambda_c5860995281e5c4ce005b3de8f5874ee>@@$$QEAV<lambda_d90129c13df834fdcbf8d2b88dafcf2d>@@@Z 000000018002e560     libucrt:fflush.obj
 0002:0000c584       $unwind$??$?RV<lambda_886d6c58226a84441f68b9f2b8217b83>@@AEAV<lambda_ab61a845afdef5b7c387490eaf3616ee>@@V<lambda_f7f22ab5edc0698d5f6905b0d3f44752>@@@?$__crt_seh_guarded_call@X@@QEAAX$$QEAV<lambda_886d6c58226a84441f68b9f2b8217b83>@@AEAV<lambda_ab61a845afdef5b7c387490eaf3616ee>@@$$QEAV<lambda_f7f22ab5edc0698d5f6905b0d3f44752>@@@Z 000000018002e584     libucrt:fflush.obj
 0002:0000c5ac       $unwind$__acrt_locale_free_monetary 000000018002e5ac     libucrt:initmon.obj
 0002:0000c5b4       $unwind$__acrt_locale_free_time 000000018002e5b4     libucrt:inittime.obj
 0002:0000c5c4       $unwind$__acrt_GetStringTypeA 000000018002e5c4     libucrt:getstringtypea.obj
 0002:0000c5ec       $unwind$__acrt_lowio_destroy_handle_array 000000018002e5ec     libucrt:osfinfo.obj
 0002:0000c5fc       $unwind$__acrt_lowio_ensure_fh_exists 000000018002e5fc     libucrt:osfinfo.obj
 0002:0000c628       $unwind$qsort              000000018002e628     libucrt:qsort.obj
 0002:0000c640       $chain$4$qsort             000000018002e640     libucrt:qsort.obj
 0002:0000c664       $chain$5$qsort             000000018002e664     libucrt:qsort.obj
 0002:0000c674       $unwind$?shortsort@@YAXPEAD0_KP6AHPEBX2@Z@Z 000000018002e674     libucrt:qsort.obj
 0002:0000c684       $chain$2$?shortsort@@YAXPEAD0_KP6AHPEBX2@Z@Z 000000018002e684     libucrt:qsort.obj
 0002:0000c6a0       $chain$3$?shortsort@@YAXPEAD0_KP6AHPEBX2@Z@Z 000000018002e6a0     libucrt:qsort.obj
 0002:0000c6b0       $unwind$strpbrk            000000018002e6b0     libucrt:strpbrk.obj
 0002:0000c6c0       $xdatasym                  000000018002e6c0     libucrt:log10.obj
 0002:0000c6cc       $unwind$_write             000000018002e6cc     libucrt:write.obj
 0002:0000c6fc       $unwind$_write_nolock      000000018002e6fc     libucrt:write.obj
 0002:0000c714       $unwind$?write_double_translated_ansi_nolock@@YA?AUwrite_result@?A0x17268360@@HQEBDI@Z 000000018002e714     libucrt:write.obj
 0002:0000c734       $unwind$?write_text_ansi_nolock@@YA?AUwrite_result@?A0x17268360@@HQEBDI@Z 000000018002e734     libucrt:write.obj
 0002:0000c734       $unwind$?write_text_utf16le_nolock@@YA?AUwrite_result@?A0x17268360@@HQEBDI@Z 000000018002e734     libucrt:write.obj
 0002:0000c754       $unwind$?write_text_utf8_nolock@@YA?AUwrite_result@?A0x17268360@@HQEBDI@Z 000000018002e754     libucrt:write.obj
 0002:0000c778       $unwind$fclose             000000018002e778     libucrt:fclose.obj
 0002:0000c79c       $unwind$_close             000000018002e79c     libucrt:close.obj
 0002:0000c79c       $unwind$_commit            000000018002e79c     libucrt:commit.obj
 0002:0000c7a4       $unwind$??$?RV<lambda_a37b2b86f63e897a80ea819b0eb08c01>@@AEAV<lambda_38ce7e780aa69e748d6df282ebc68efe>@@V<lambda_99fb1378e971ab6e7edea83e3a7a83a2>@@@?$__crt_seh_guarded_call@H@@QEAAH$$QEAV<lambda_a37b2b86f63e897a80ea819b0eb08c01>@@AEAV<lambda_38ce7e780aa69e748d6df282ebc68efe>@@$$QEAV<lambda_99fb1378e971ab6e7edea83e3a7a83a2>@@@Z 000000018002e7a4     libucrt:commit.obj
 0002:0000c7c8       $unwind$common_control87   000000018002e7c8     libucrt:ieee.obj
 0002:0000c7f8       $unwind$_call_matherr      000000018002e7f8     libucrt:libm_error.obj
 0002:0000c800       $unwind$_handle_error      000000018002e800     libucrt:libm_error.obj
 0002:0000c820       $unwind$__acrt_initialize_fma3 000000018002e820     libucrt:fma3_available.obj
 0002:0000c828       $unwind$_log_special_common 000000018002e828     libucrt:log_special.obj
 0002:0000c834       $unwind$??$?RV<lambda_751a882b2c74d4b022dec766aa51a29a>@@AEAV<lambda_628dfdc04ba53c8bfc02c9951375f3f5>@@V<lambda_f6c7be5f7998530c34de24c7437d6b54>@@@?$__crt_seh_guarded_call@H@@QEAAH$$QEAV<lambda_751a882b2c74d4b022dec766aa51a29a>@@AEAV<lambda_628dfdc04ba53c8bfc02c9951375f3f5>@@$$QEAV<lambda_f6c7be5f7998530c34de24c7437d6b54>@@@Z 000000018002e834     libucrt:close.obj
 0002:0000c858       $xdatasym                  000000018002e858     libucrt:fpsr.obj
 0002:0000c860       $unwind$_raise_exc_ex      000000018002e860     libucrt:fpexcept.obj
 0002:0000c874       $unwind$_ctrlfp            000000018002e874     libucrt:fpctrl.obj
 0002:0000c89c       $unwind$_IsNonwritableInCurrentImage 000000018002e89c     LIBCMT:pesect.obj
 0002:0000c8c0       $unwind$strrchr            000000018002e8c0     libvcruntime:strrchr.obj
 0002:0000ca30       .edata                     000000018002ea30     OPOSElectronicJournal.exp
 0002:0000ca58       rgpv                       000000018002ea58     OPOSElectronicJournal.exp
 0002:0000ca68       rgszName                   000000018002ea68     OPOSElectronicJournal.exp
 0002:0000ca78       rgwOrd                     000000018002ea78     OPOSElectronicJournal.exp
 0002:0000ca80       szName                     000000018002ea80     OPOSElectronicJournal.exp
 0002:0000ca9a       $N00001                    000000018002ea9a     OPOSElectronicJournal.exp
 0002:0000caaa       $N00002                    000000018002eaaa     OPOSElectronicJournal.exp
 0002:0000cabc       $N00003                    000000018002eabc     OPOSElectronicJournal.exp
 0002:0000cace       $N00004                    000000018002eace     OPOSElectronicJournal.exp
 0002:0000d404       .idata$6                   000000018002f404     kernel32:KERNEL32.dll
 0002:0000d61c       .idata$6                   000000018002f61c     user32:USER32.dll
 0002:0000d750       .idata$6                   000000018002f750     gdi32:GDI32.dll
 0002:0000d7f6       .idata$6                   000000018002f7f6     advapi32:ADVAPI32.dll
 0002:0000d912       .idata$6                   000000018002f912     ole32:ole32.dll
 0002:0000d91c       .idata$6                   000000018002f91c     oleaut32:OLEAUT32.dll
 0003:000001c0       ?ObjectMap@@3PAU_ATL_OBJMAP_ENTRY30@ATL@@A 00000001800301c0     ElectronicJournal.obj
 0003:000002d0       ?s_SOMethodNames@@3PAPEADA 00000001800302d0     ElectronicJournalImpl.obj
 0003:000003f8       ?s_RequiredMethodsPerRelease@@3PAHA 00000001800303f8     ElectronicJournalImpl.obj
 0003:00000430       ?__vcrt_flsindex@@3KA      0000000180030430     libvcruntime:per_thread_data.obj
 0003:00000440       ?errno_no_memory@@3HA      0000000180030440     libucrt:errno.obj
 0003:00000444       ?doserrno_no_memory@@3KA   0000000180030444     libucrt:errno.obj
 0003:00000450       ?__acrt_flsindex@@3KA      0000000180030450     libucrt:per_thread_data.obj
 0003:00000910       _mbctypes                  0000000180030910     libucrt:mbctype.obj
 0003:00000a20       _mbcasemaps                0000000180030a20     libucrt:mbctype.obj
 0003:00000b20       ?__rgctypeflag@@3PADA      0000000180030b20     libucrt:mbctype.obj
 0003:00000b30       ?__rgcode_page_info@@3PAUcode_page_info@@A 0000000180030b30     libucrt:mbctype.obj
 0003:00000cd0       ?dazSupported@?1??common_control87@@9@9 0000000180030cd0     libucrt:ieee.obj
 0003:00000ce0       ?dazSupported@?1??_ctrlfp@@9@9 0000000180030ce0     libucrt:fpctrl.obj
 0003:00000f30       ?is_initialized_as_dll@@3_NA 0000000180030f30     LIBCMT:utility.obj
 0003:00000f31       ?module_local_atexit_table_initialized@@3_NA 0000000180030f31     LIBCMT:utility.obj
 0003:00000f38       ?module_local_atexit_table@@3U_onexit_table_t@@A 0000000180030f38     LIBCMT:utility.obj
 0003:00000f50       ?module_local_at_quick_exit_table@@3U_onexit_table_t@@A 0000000180030f50     LIBCMT:utility.obj
 0003:00000f68       ?_Tss_mutex@@3U_RTL_CRITICAL_SECTION@@A 0000000180030f68     LIBCMT:thread_safe_statics.obj
 0003:00000f90       ?_Tss_cv@@3U_RTL_CONDITION_VARIABLE@@A 0000000180030f90     LIBCMT:thread_safe_statics.obj
 0003:00000f98       ?_Tss_event@@3PEAXEA       0000000180030f98     LIBCMT:thread_safe_statics.obj
 0003:00000fa0       ?encoded_sleep_condition_variable_cs@@3P6AHPEAU_RTL_CONDITION_VARIABLE@@PEAU_RTL_CRITICAL_SECTION@@K@ZEA 0000000180030fa0     LIBCMT:thread_safe_statics.obj
 0003:00000fa8       ?encoded_wake_all_condition_variable@@3P6AXPEAU_RTL_CONDITION_VARIABLE@@@ZEA 0000000180030fa8     LIBCMT:thread_safe_statics.obj
 0003:00000fb0       GS_ExceptionRecord         0000000180030fb0     LIBCMT:gs_report.obj
 0003:00001050       GS_ContextRecord           0000000180031050     LIBCMT:gs_report.obj
 0003:00001524       ?__proc_attached@@3HA      0000000180031524     LIBCMT:dll_dllmain.obj
 0003:000015b8       ?AllocateData@@3P6APEAUAtlThunkData_t@@XZEA 00000001800315b8     atls:atlthunk.obj
 0003:000015c0       ?InitData@@3P6AXPEAUAtlThunkData_t@@PEAX_K@ZEA 00000001800315c0     atls:atlthunk.obj
 0003:000015c8       ?DataToCode@@3P6AP6A_JPEAUHWND__@@I_K_J@ZPEAUAtlThunkData_t@@@ZEA 00000001800315c8     atls:atlthunk.obj
 0003:000015d0       ?FreeData@@3P6AXPEAUAtlThunkData_t@@@ZEA 00000001800315d0     atls:atlthunk.obj
 0003:000015d8       ?Initialized@@3_NA         00000001800315d8     atls:atlthunk.obj
 0003:000015f0       ?__vcrt_startup_thread_ptd@@3U__vcrt_ptd@@A 00000001800315f0     libvcruntime:per_thread_data.obj
 0003:00001680       __vcrt_lock_table          0000000180031680     libvcruntime:locks.obj
 0003:000016a8       __vcrt_locks_initialized   00000001800316a8     libvcruntime:locks.obj
 0003:000016b0       ?module_handles@@3PAPEAUHINSTANCE__@@A 00000001800316b0     libvcruntime:winapi_downlevel.obj
 0003:000016c8       ?encoded_function_pointers@@3PAPEAXA 00000001800316c8     libvcruntime:winapi_downlevel.obj
 0003:00001730       ?heap@@3V_HeapManager@@A   0000000180031730     libvcruntime:undname.obj
 0003:00001758       ?__acrt_invalid_parameter_handler@@3V?$dual_state_global@P6AXPEB_W00I_K@Z@__crt_state_management@@A 0000000180031758     libucrt:invalid_parameter.obj
 0003:00001760       ?c_termination_complete@@3JA 0000000180031760     libucrt:exit.obj
 0003:00001768       ?thread_local_exit_callback_func@@3P6AXPEAXK0@ZEA 0000000180031768     libucrt:exit.obj
 0003:00001780       ?program_name@?1???$common_configure_argv@D@@YAHW4_crt_argv_mode@@@Z@4PADA 0000000180031780     libucrt:argv_parsing.obj
 0003:000018d8       ?__acrt_new_handler@@3V?$dual_state_global@P6AH_K@Z@__crt_state_management@@A 00000001800318d8     libucrt:new_handler.obj
 0003:000018e0       ?module_handles@@3PAPEAUHINSTANCE__@@A 00000001800318e0     libucrt:winapi_thunks.obj
 0003:00001980       ?encoded_function_pointers@@3PAPEAXA 0000000180031980     libucrt:winapi_thunks.obj
 0003:00001aa0       ?enable_percent_n@@3_KA    0000000180031aa0     libucrt:printf_count_output.obj
 0003:00001ee0       ?__acrt_lock_table@@3PAU_RTL_CRITICAL_SECTION@@A 0000000180031ee0     libucrt:locks.obj
 0003:00002110       ?__acrt_locks_initialized@@3IA 0000000180032110     libucrt:locks.obj
 0003:00002130       ?fSystemSet@@3HA           0000000180032130     libucrt:mbctype.obj
 0003:00002134       ?initialized@?1??__acrt_initialize_multibyte@@9@4_NA 0000000180032134     libucrt:mbctype.obj
 0003:00002170       ?ctrlc_action@@3V?$dual_state_global@P6AXH@Z@__crt_state_management@@A 0000000180032170     libucrt:signal.obj
 0003:00002178       ?ctrlbreak_action@@3V?$dual_state_global@P6AXH@Z@__crt_state_management@@A 0000000180032178     libucrt:signal.obj
 0003:00002180       ?abort_action@@3V?$dual_state_global@P6AXH@Z@__crt_state_management@@A 0000000180032180     libucrt:signal.obj
 0003:00002188       ?term_action@@3V?$dual_state_global@P6AXH@Z@__crt_state_management@@A 0000000180032188     libucrt:signal.obj
 0003:00002190       ?user_matherr@@3V?$dual_state_global@P6AHPEAU_exception@@@Z@__crt_state_management@@A 0000000180032190     libucrt:matherr.obj
 0003:00002198       ?__acrt_global_new_mode@@3V?$dual_state_global@J@__crt_state_management@@A 0000000180032198     libucrt:new_mode.obj
 0003:000021a4       ?__acrt_app_type@@3W4_crt_app_type@@A 00000001800321a4     libucrt:report_runtime_error.obj
 0004:00000000       $pdata$?cw_memcpy@@YAHPEA_WPEBDH@Z 0000000180033000     CWString.obj
 0004:0000000c       $pdata$?cw_strcpy@@YAHPEA_WPEBD@Z 000000018003300c     CWString.obj
 0004:00000018       $pdata$?cw_dup@@YAXPEBDAEAHAEAPEA_W1@Z 0000000180033018     CWString.obj
 0004:00000024       $pdata$?DupWide@_CW@@AEAAXXZ 0000000180033024     CWString.obj
 0004:00000030       $pdata$?AtlWinModuleTerm@ATL@@YAJPEAU_ATL_WIN_MODULE70@1@PEAUHINSTANCE__@@@Z 0000000180033030     OposVariant.obj
 0004:0000003c       $pdata$??0CAtlComModule@ATL@@QEAA@XZ 000000018003303c     OposVariant.obj
 0004:00000048       $pdata$?Term@CAtlComModule@ATL@@QEAAXXZ 0000000180033048     OposVariant.obj
 0004:00000054       $pdata$??__E_AtlComModule@ATL@@YAXXZ 0000000180033054     OposVariant.obj
 0004:00000060       $pdata$??0CAtlWinModule@ATL@@QEAA@XZ 0000000180033060     OposVariant.obj
 0004:0000006c       $pdata$??__E_AtlWinModule@ATL@@YAXXZ 000000018003306c     OposVariant.obj
 0004:00000078       $pdata$??__F_AtlWinModule@ATL@@YAXXZ 0000000180033078     OposVariant.obj
 0004:00000084       $pdata$??_Estringdispid@CComTypeInfoHolder@ATL@@QEAAPEAXI@Z 0000000180033084     OposVariant.obj
 0004:00000090       $pdata$?SetVARIANT_BOOL@OposVariant@@QEAAXF@Z 0000000180033090     OposVariant.obj
 0004:0000009c       $pdata$?GetLONG@OposVariant@@QEAAJXZ 000000018003309c     OposVariant.obj
 0004:000000a8       $pdata$?ChangeLONG@OposVariant@@QEAAXPEAJAEAJ@Z 00000001800330a8     OposVariant.obj
 0004:000000b4       $pdata$?SetLONG@OposVariant@@QEAAXJ@Z 00000001800330b4     OposVariant.obj
 0004:000000c0       $pdata$?SetLONG_Ptr@OposVariant@@QEAAXPEAJAEAJ@Z 00000001800330c0     OposVariant.obj
 0004:000000cc       $pdata$?ChangeCURRENCY@OposVariant@@QEAAXPEATtagCY@@AEAJ@Z 00000001800330cc     OposVariant.obj
 0004:000000d8       $pdata$?ChangeBSTR@OposVariant@@QEAAXPEAPEA_WAEAJ@Z 00000001800330d8     OposVariant.obj
 0004:000000e4       $pdata$?SetBSTR@OposVariant@@QEAAXPEA_WAEAJ@Z 00000001800330e4     OposVariant.obj
 0004:000000f0       $pdata$?SetBSTR_Copy@OposVariant@@QEAAXPEA_WAEAJ@Z 00000001800330f0     OposVariant.obj
 0004:000000fc       $pdata$?SetBSTR_OutPtr@OposVariant@@QEAA_NPEAPEA_WAEAJ@Z 00000001800330fc     OposVariant.obj
 0004:00000108       $pdata$?SetBSTR_InOutPtr@OposVariant@@QEAA_NPEAPEA_WAEAJ@Z 0000000180033108     OposVariant.obj
 0004:00000114       $pdata$?SetString@OposVariant@@QEAAXPEB_WAEAJ@Z 0000000180033114     OposVariant.obj
 0004:00000120       $pdata$?SetDispatch_Ptr@OposVariant@@QEAAXPEAUIDispatch@@AEAJ@Z 0000000180033120     OposVariant.obj
 0004:0000012c       $pdata$??0OposDispParms@@QEAA@PEAVOposVariant@@H@Z 000000018003312c     OposVariant.obj
 0004:00000138       $pdata$??1OposDispParms@@QEAA@XZ 0000000180033138     OposVariant.obj
 0004:00000144       $pdata$memcpy_s            0000000180033144     ElectronicJournal.obj
 0004:00000150       $pdata$?AtlThrowImpl@ATL@@YAXJ@Z 0000000180033150     ElectronicJournal.obj
 0004:0000015c       $pdata$swprintf_s          000000018003315c     ElectronicJournal.obj
 0004:00000168       $pdata$?_AtlVerifyStackAvailable@_ATL_SAFE_ALLOCA_IMPL@ATL@@YA_N_K@Z 0000000180033168     ElectronicJournal.obj
 0004:00000174       $pdata$?filt$0@?0??_AtlVerifyStackAvailable@_ATL_SAFE_ALLOCA_IMPL@ATL@@YA_N_K@Z@4HA 0000000180033174     ElectronicJournal.obj
 0004:00000180       $pdata$?AtlHresultFromLastError@ATL@@YAJXZ 0000000180033180     ElectronicJournal.obj
 0004:0000018c       $pdata$?AtlInternalOleLoadFromStream@ATL@@YAJPEAUIStream@@AEBU_GUID@@PEAPEAXTClassesAllowedInStream@1@K@Z 000000018003318c     ElectronicJournal.obj
 0004:00000198       $pdata$?PutProperty@?$CComPtr@UIDispatch@@@ATL@@SAJPEAUIDispatch@@JPEAUtagVARIANT@@@Z 0000000180033198     ElectronicJournal.obj
 0004:000001a4       $pdata$?WriteToStream@CComBSTR@ATL@@QEAAJPEAUIStream@@@Z 00000001800331a4     ElectronicJournal.obj
 0004:000001b0       $pdata$?ReadFromStream@CComBSTR@ATL@@QEAAJPEAUIStream@@@Z 00000001800331b0     ElectronicJournal.obj
 0004:000001bc       $pdata$?WriteToStream@CComVariant@ATL@@QEAAJPEAUIStream@@@Z 00000001800331bc     ElectronicJournal.obj
 0004:000001c8       $pdata$?WriteToStream@CComVariant@ATL@@QEAAJPEAUIStream@@G@Z 00000001800331c8     ElectronicJournal.obj
 0004:000001d4       $pdata$?ReadFromStream@CComVariant@ATL@@QEAAJPEAUIStream@@GTClassesAllowedInStream@2@K@Z 00000001800331d4     ElectronicJournal.obj
 0004:000001e0       $pdata$?GetSizeMax@CComVariant@ATL@@QEBAJPEAT_ULARGE_INTEGER@@@Z 00000001800331e0     ElectronicJournal.obj
 0004:000001ec       $pdata$?RegCreateKeyExW@CAtlTransactionManager@ATL@@QEAAJPEAUHKEY__@@PEB_WKPEA_WKKQEAU_SECURITY_ATTRIBUTES@@PEAPEAU3@PEAK@Z 00000001800331ec     ElectronicJournal.obj
 0004:000001f8       $pdata$?RegOpenKeyExW@CAtlTransactionManager@ATL@@QEAAJPEAUHKEY__@@PEB_WKKPEAPEAU3@@Z 00000001800331f8     ElectronicJournal.obj
 0004:00000204       $pdata$?RegDeleteKeyW@CAtlTransactionManager@ATL@@QEAAJPEAUHKEY__@@PEB_W@Z 0000000180033204     ElectronicJournal.obj
 0004:00000210       $pdata$?Add@?$CSimpleArray@GV?$CSimpleArrayEqualHelper@G@ATL@@@ATL@@QEAAHAEBG@Z 0000000180033210     ElectronicJournal.obj
 0004:0000021c       $pdata$?AtlInternalQueryInterface@ATL@@YAJPEAXPEBU_ATL_INTMAP_ENTRY@1@AEBU_GUID@@PEAPEAX@Z 000000018003321c     ElectronicJournal.obj
 0004:00000228       $pdata$?AtlComModuleGetClassObject@ATL@@YAJPEAU_ATL_COM_MODULE70@1@AEBU_GUID@@1PEAPEAX@Z 0000000180033228     ElectronicJournal.obj
 0004:00000234       $pdata$?AtlRegisterClassCategoriesHelper@ATL@@YAJAEBU_GUID@@PEBU_ATL_CATMAP_ENTRY@1@H@Z 0000000180033234     ElectronicJournal.obj
 0004:00000240       $pdata$?AtlLoadTypeLib@ATL@@YAJPEAUHINSTANCE__@@PEB_WPEAPEA_WPEAPEAUITypeLib@@@Z 0000000180033240     ElectronicJournal.obj
 0004:0000024c       $pdata$?AtlRegisterTypeLib@ATL@@YAJPEAUHINSTANCE__@@PEB_W@Z 000000018003324c     ElectronicJournal.obj
 0004:00000258       $pdata$?AtlUnRegisterTypeLib@ATL@@YAJPEAUHINSTANCE__@@PEB_W@Z 0000000180033258     ElectronicJournal.obj
 0004:00000264       $pdata$?AtlComModuleRegisterServer@ATL@@YAJPEAU_ATL_COM_MODULE70@1@HPEBU_GUID@@@Z 0000000180033264     ElectronicJournal.obj
 0004:00000270       $pdata$?AtlComModuleUnregisterServer@ATL@@YAJPEAU_ATL_COM_MODULE70@1@HPEBU_GUID@@@Z 0000000180033270     ElectronicJournal.obj
 0004:0000027c       $pdata$?AtlModuleAddTermFunc@ATL@@YAJPEAU_ATL_MODULE70@1@P6AX_K@Z1@Z 000000018003327c     ElectronicJournal.obj
 0004:00000288       $pdata$?AtlCallTermFunc@ATL@@YAXPEAU_ATL_MODULE70@1@@Z 0000000180033288     ElectronicJournal.obj
 0004:00000294       $pdata$?AtlWinModuleExtractCreateWndData@ATL@@YAPEAXPEAU_ATL_WIN_MODULE70@1@@Z 0000000180033294     ElectronicJournal.obj
 0004:000002a0       $pdata$?Create@CRegKey@ATL@@QEAAJPEAUHKEY__@@PEB_WPEA_WKKPEAU_SECURITY_ATTRIBUTES@@PEAK@Z 00000001800332a0     ElectronicJournal.obj
 0004:000002ac       $pdata$?Open@CRegKey@ATL@@QEAAJPEAUHKEY__@@PEB_WK@Z 00000001800332ac     ElectronicJournal.obj
 0004:000002b8       $pdata$?RecurseDeleteKey@CRegKey@ATL@@QEAAJPEB_W@Z 00000001800332b8     ElectronicJournal.obj
 0004:000002c4       $pdata$??0CAtlModule@ATL@@QEAA@XZ 00000001800332c4     ElectronicJournal.obj
 0004:000002d0       $pdata$?GetGITPtr@CAtlModule@ATL@@UEAAJPEAPEAUIGlobalInterfaceTable@@@Z 00000001800332d0     ElectronicJournal.obj
 0004:000002dc       $pdata$?UpdateRegistryFromResource@CAtlModule@ATL@@QEAAJPEB_WHPEAU_ATL_REGMAP_ENTRY@2@@Z 00000001800332dc     ElectronicJournal.obj
 0004:000002e8       $pdata$?UpdateRegistryFromResource@CAtlModule@ATL@@QEAAJIHPEAU_ATL_REGMAP_ENTRY@2@@Z 00000001800332e8     ElectronicJournal.obj
 0004:000002f4       $pdata$?Term@CComModule@ATL@@QEAAXXZ 00000001800332f4     ElectronicJournal.obj
 0004:00000300       $pdata$?GetClassObject@CComModule@ATL@@QEAAJAEBU_GUID@@0PEAPEAX@Z 0000000180033300     ElectronicJournal.obj
 0004:0000030c       $pdata$?RegisterServer@CComModule@ATL@@QEAAJHPEBU_GUID@@@Z 000000018003330c     ElectronicJournal.obj
 0004:00000318       $pdata$?UnregisterServer@CComModule@ATL@@QEAAJHPEBU_GUID@@@Z 0000000180033318     ElectronicJournal.obj
 0004:00000324       $pdata$??_GCComModule@ATL@@UEAAPEAXI@Z 0000000180033324     ElectronicJournal.obj
 0004:00000330       $pdata$?Add@?$CSimpleMap@PEA_WPEA_WVCExpansionVectorEqualHelper@ATL@@@ATL@@QEAAHAEBQEA_W0@Z 0000000180033330     ElectronicJournal.obj
 0004:0000033c       $pdata$?Lookup@?$CSimpleMap@PEA_WPEA_WVCExpansionVectorEqualHelper@ATL@@@ATL@@QEBAPEA_WAEBQEA_W@Z 000000018003333c     ElectronicJournal.obj
 0004:00000348       $pdata$?Add@CExpansionVector@ATL@@QEAAHPEB_W0@Z 0000000180033348     ElectronicJournal.obj
 0004:00000354       $pdata$?ClearReplacements@CExpansionVector@ATL@@QEAAJXZ 0000000180033354     ElectronicJournal.obj
 0004:00000360       $pdata$?PreProcessBuffer@CRegParser@ATL@@QEAAJPEA_WPEAPEA_W@Z 0000000180033360     ElectronicJournal.obj
 0004:0000036c       $pdata$?RegisterBuffer@CRegParser@ATL@@QEAAJPEA_WH@Z 000000018003336c     ElectronicJournal.obj
 0004:00000378       $pdata$?NextToken@CRegParser@ATL@@IEAAJPEA_W@Z 0000000180033378     ElectronicJournal.obj
 0004:00000384       $pdata$?AddValue@CRegParser@ATL@@IEAAJAEAVCRegKey@2@PEB_WPEA_W@Z 0000000180033384     ElectronicJournal.obj
 0004:00000390       $pdata$?RegisterSubkeys@CRegParser@ATL@@IEAAJPEA_WPEAUHKEY__@@HH@Z 0000000180033390     ElectronicJournal.obj
 0004:0000039c       $pdata$?SkipAssignment@CRegParser@ATL@@IEAAJPEA_W@Z 000000018003339c     ElectronicJournal.obj
 0004:000003a8       $pdata$?HKeyFromString@CRegParser@ATL@@KAPEAUHKEY__@@PEA_W@Z 00000001800333a8     ElectronicJournal.obj
 0004:000003b4       $pdata$?VTFromRegType@CRegParser@ATL@@KAHPEB_WAEAG@Z 00000001800333b4     ElectronicJournal.obj
 0004:000003c0       $pdata$?Append@CParseBuffer@CRegParser@ATL@@QEAAHPEB_WH@Z 00000001800333c0     ElectronicJournal.obj
 0004:000003cc       $pdata$?AddReplacement@CRegObject@ATL@@UEAAJPEB_W0@Z 00000001800333cc     ElectronicJournal.obj
 0004:000003d8       $pdata$?RegisterFromResource@CRegObject@ATL@@IEAAJPEB_W00H@Z 00000001800333d8     ElectronicJournal.obj
 0004:000003e4       $pdata$??_GCRegObject@ATL@@UEAAPEAXI@Z 00000001800333e4     ElectronicJournal.obj
 0004:000003f0       $pdata$?AllocateHeap@?$CTempBuffer@E$0BAA@VCCRTAllocator@ATL@@@ATL@@AEAAX_K@Z 00000001800333f0     ElectronicJournal.obj
 0004:000003f0       $pdata$?AllocateHeap@?$CTempBuffer@_W$0EAA@VCCRTAllocator@ATL@@@ATL@@AEAAX_K@Z 00000001800333f0     ElectronicJournal.obj
 0004:000003f0       $pdata$?AllocateHeap@?$CTempBuffer@_W$0BAA@VCCRTAllocator@ATL@@@ATL@@AEAAX_K@Z 00000001800333f0     ElectronicJournal.obj
 0004:000003fc       $pdata$?IsEqualObject@?$CComPtrBase@UITypeInfo@@@ATL@@QEAA_NPEAUIUnknown@@@Z 00000001800333fc     ElectronicJournal.obj
 0004:000003fc       $pdata$?IsEqualObject@?$CComPtrBase@UIOleClientSite@@@ATL@@QEAA_NPEAUIUnknown@@@Z 00000001800333fc     ElectronicJournal.obj
 0004:00000408       $pdata$?AtlIPersistStreamInit_Load@ATL@@YAJPEAUIStream@@PEBUATL_PROPMAP_ENTRY@1@PEAXPEAUIUnknown@@@Z 0000000180033408     ElectronicJournal.obj
 0004:00000414       $pdata$?AtlIPersistStreamInit_Save@ATL@@YAJPEAUIStream@@HPEBUATL_PROPMAP_ENTRY@1@PEAXPEAUIUnknown@@@Z 0000000180033414     ElectronicJournal.obj
 0004:00000420       $pdata$?CreateInstance@CComClassFactory@ATL@@UEAAJPEAUIUnknown@@AEBU_GUID@@PEAPEAX@Z 0000000180033420     ElectronicJournal.obj
 0004:0000042c       $pdata$?LockServer@CComClassFactory@ATL@@UEAAJH@Z 000000018003342c     ElectronicJournal.obj
 0004:00000438       $pdata$??_GCComClassFactory@ATL@@UEAAPEAXI@Z 0000000180033438     ElectronicJournal.obj
 0004:00000444       $pdata$?GetTI@CComTypeInfoHolder@ATL@@QEAAJK@Z 0000000180033444     ElectronicJournal.obj
 0004:00000450       $pdata$?Cleanup@CComTypeInfoHolder@ATL@@SAX_K@Z 0000000180033450     ElectronicJournal.obj
 0004:0000045c       $pdata$?GetIDsOfNames@CComTypeInfoHolder@ATL@@QEAAJAEBU_GUID@@PEAPEA_WIKPEAJ@Z 000000018003345c     ElectronicJournal.obj
 0004:00000468       $pdata$?LoadNameCache@CComTypeInfoHolder@ATL@@QEAAJPEAUITypeInfo@@@Z 0000000180033468     ElectronicJournal.obj
 0004:00000474       $pdata$?Add@CComDynamicUnkArray@ATL@@QEAAKPEAUIUnknown@@@Z 0000000180033474     ElectronicJournal.obj
 0004:00000480       $pdata$?AtlCreateTargetDC@ATL@@YAPEAUHDC__@@PEAU2@PEAUtagDVTARGETDEVICE@@@Z 0000000180033480     ElectronicJournal.obj
 0004:0000048c       $pdata$?AtlHiMetricToPixel@ATL@@YAXPEBUtagSIZE@@PEAU2@@Z 000000018003348c     ElectronicJournal.obj
 0004:00000498       $pdata$?DefaultReflectionHandler@?$CWindowImplRoot@VCWindow@ATL@@@ATL@@SAHPEAUHWND__@@I_K_JAEA_J@Z 0000000180033498     ElectronicJournal.obj
 0004:000004a4       $pdata$?StartWindowProc@?$CWindowImplBaseT@VCWindow@ATL@@V?$CWinTraits@$0FGAAAAAA@$0A@@2@@ATL@@SA_JPEAUHWND__@@I_K_J@Z 00000001800334a4     ElectronicJournal.obj
 0004:000004b0       $pdata$?WindowProc@?$CWindowImplBaseT@VCWindow@ATL@@V?$CWinTraits@$0FGAAAAAA@$0A@@2@@ATL@@SA_JPEAUHWND__@@I_K_J@Z 00000001800334b0     ElectronicJournal.obj
 0004:000004bc       $pdata$?Create@?$CWindowImplBaseT@VCWindow@ATL@@V?$CWinTraits@$0FGAAAAAA@$0A@@2@@ATL@@QEAAPEAUHWND__@@PEAU3@V_U_RECT@2@PEB_WKKV_U_MENUorID@2@GPEAX@Z 00000001800334bc     ElectronicJournal.obj
 0004:000004c8       $pdata$??$AtlModuleRegisterWndClassInfoT@VAtlModuleRegisterWndClassInfoParamW@ATL@@@ATL@@YAGPEAU_ATL_BASE_MODULE70@0@PEAU_ATL_WIN_MODULE70@0@PEAU_ATL_WNDCLASSINFOW@0@PEAP6A_JPEAUHWND__@@I_K_J@ZVAtlModuleRegisterWndClassInfoParamW@0@@Z 00000001800334c8     ElectronicJournal.obj
 0004:000004d4       $pdata$?GetZoomInfo@CComControlBase@ATL@@QEAAXAEAUATL_DRAWINFO@@@Z 00000001800334d4     ElectronicJournal.obj
 0004:000004e0       $pdata$?SendOnDataChange@CComControlBase@ATL@@QEAAJK@Z 00000001800334e0     ElectronicJournal.obj
 0004:000004ec       $pdata$?OnSetFocus@CComControlBase@ATL@@QEAA_JI_K_JAEAH@Z 00000001800334ec     ElectronicJournal.obj
 0004:000004f8       $pdata$?OnKillFocus@CComControlBase@ATL@@QEAA_JI_K_JAEAH@Z 00000001800334f8     ElectronicJournal.obj
 0004:00000504       $pdata$?OnMouseActivate@CComControlBase@ATL@@QEAA_JI_K_JAEAH@Z 0000000180033504     ElectronicJournal.obj
 0004:00000510       $pdata$?GetAmbientLocaleID@CComControlBase@ATL@@QEAAJAEAK@Z 0000000180033510     ElectronicJournal.obj
 0004:0000051c       $pdata$?GetAmbientUserMode@CComControlBase@ATL@@QEAAJAEAH@Z 000000018003351c     ElectronicJournal.obj
 0004:00000528       $pdata$?SetControlFocus@CComControlBase@ATL@@QEAAHH@Z 0000000180033528     ElectronicJournal.obj
 0004:00000534       $pdata$?IQuickActivate_QuickActivate@CComControlBase@ATL@@QEAAJPEAUtagQACONTAINER@@PEAUtagQACONTROL@@@Z 0000000180033534     ElectronicJournal.obj
 0004:00000540       $pdata$?DoVerbProperties@CComControlBase@ATL@@QEAAJPEBUtagRECT@@PEAUHWND__@@@Z 0000000180033540     ElectronicJournal.obj
 0004:0000054c       $pdata$?InPlaceActivate@CComControlBase@ATL@@QEAAJJPEBUtagRECT@@@Z 000000018003354c     ElectronicJournal.obj
 0004:00000558       $pdata$?IOleObject_SetClientSite@CComControlBase@ATL@@QEAAJPEAUIOleClientSite@@@Z 0000000180033558     ElectronicJournal.obj
 0004:00000564       $pdata$?IOleObject_Close@CComControlBase@ATL@@QEAAJK@Z 0000000180033564     ElectronicJournal.obj
 0004:00000570       $pdata$?IOleObject_SetExtent@CComControlBase@ATL@@QEAAJKPEAUtagSIZE@@@Z 0000000180033570     ElectronicJournal.obj
 0004:0000057c       $pdata$?IOleInPlaceObject_InPlaceDeactivate@CComControlBase@ATL@@QEAAJXZ 000000018003357c     ElectronicJournal.obj
 0004:00000588       $pdata$?IOleInPlaceObject_UIDeactivate@CComControlBase@ATL@@QEAAJXZ 0000000180033588     ElectronicJournal.obj
 0004:00000594       $pdata$?IOleInPlaceObject_SetObjectRects@CComControlBase@ATL@@QEAAJPEBUtagRECT@@0@Z 0000000180033594     ElectronicJournal.obj
 0004:000005a0       $pdata$?IViewObject_Draw@CComControlBase@ATL@@QEAAJKJPEAXPEAUtagDVTARGETDEVICE@@PEAUHDC__@@2PEBU_RECTL@@3@Z 00000001800335a0     ElectronicJournal.obj
 0004:000005ac       $pdata$?IDataObject_GetData@CComControlBase@ATL@@QEAAJPEAUtagFORMATETC@@PEAUtagSTGMEDIUM@@@Z 00000001800335ac     ElectronicJournal.obj
 0004:000005b8       $pdata$?FireViewChange@CComControlBase@ATL@@QEAAJXZ 00000001800335b8     ElectronicJournal.obj
 0004:000005c4       $pdata$?OnPaint@CComControlBase@ATL@@QEAA_JI_K_JAEAH@Z 00000001800335c4     ElectronicJournal.obj
 0004:000005d0       $pdata$?OnDrawAdvanced@CComControlBase@ATL@@UEAAJAEAUATL_DRAWINFO@@@Z 00000001800335d0     ElectronicJournal.obj
 0004:000005dc       $pdata$?GetTypeInfo@?$IDispatchImpl@UIOPOSElectronicJournal@@$1?IID_IOPOSElectronicJournal@@3U_GUID@@B$1?LIBID_OposElectronicJournal_CCO@@3U3@B$00$0A@VCComTypeInfoHolder@ATL@@@ATL@@UEAAJIKPEAPEAUITypeInfo@@@Z 00000001800335dc     ElectronicJournal.obj
 0004:000005e8       $pdata$?Invoke@?$IDispatchImpl@UIOPOSElectronicJournal@@$1?IID_IOPOSElectronicJournal@@3U_GUID@@B$1?LIBID_OposElectronicJournal_CCO@@3U3@B$00$0A@VCComTypeInfoHolder@ATL@@@ATL@@UEAAJJAEBU_GUID@@KGPEAUtagDISPPARAMS@@PEAUtagVARIANT@@PEAUtagEXCEPINFO@@PEAI@Z 00000001800335e8     ElectronicJournal.obj
 0004:000005f4       $pdata$?Create@?$CWindowImpl@VCOPOSElectronicJournal@@VCWindow@ATL@@V?$CWinTraits@$0FGAAAAAA@$0A@@3@@ATL@@QEAAPEAUHWND__@@PEAU3@V_U_RECT@2@PEB_WKKV_U_MENUorID@2@PEAX@Z 00000001800335f4     ElectronicJournal.obj
 0004:00000600       $pdata$?CreateControlWindow@?$CComControl@VCOPOSElectronicJournal@@V?$CWindowImpl@VCOPOSElectronicJournal@@VCWindow@ATL@@V?$CWinTraits@$0FGAAAAAA@$0A@@3@@ATL@@@ATL@@UEAAPEAUHWND__@@PEAU3@AEAUtagRECT@@@Z 0000000180033600     ElectronicJournal.obj
 0004:0000060c       $pdata$?ProcessWindowMessage@?$CComControl@VCOPOSElectronicJournal@@V?$CWindowImpl@VCOPOSElectronicJournal@@VCWindow@ATL@@V?$CWinTraits@$0FGAAAAAA@$0A@@3@@ATL@@@ATL@@UEAAHPEAUHWND__@@I_K_JAEA_JK@Z 000000018003360c     ElectronicJournal.obj
 0004:00000618       $pdata$?Load@?$IPersistStreamInitImpl@VCOPOSElectronicJournal@@@ATL@@UEAAJPEAUIStream@@@Z 0000000180033618     ElectronicJournal.obj
 0004:00000624       $pdata$?Save@?$IPersistStreamInitImpl@VCOPOSElectronicJournal@@@ATL@@UEAAJPEAUIStream@@H@Z 0000000180033624     ElectronicJournal.obj
 0004:00000630       $pdata$?GetSizeMax@?$IPersistStreamInitImpl@VCOPOSElectronicJournal@@@ATL@@UEAAJPEAT_ULARGE_INTEGER@@@Z 0000000180033630     ElectronicJournal.obj
 0004:0000063c       $pdata$?GetClientSite@?$IOleObjectImpl@VCOPOSElectronicJournal@@@ATL@@UEAAJPEAPEAUIOleClientSite@@@Z 000000018003363c     ElectronicJournal.obj
 0004:00000648       $pdata$?DoVerbPrimary@?$IOleObjectImpl@VCOPOSElectronicJournal@@@ATL@@QEAAJPEBUtagRECT@@PEAUHWND__@@@Z 0000000180033648     ElectronicJournal.obj
 0004:00000654       $pdata$?DoVerb@?$IOleObjectImpl@VCOPOSElectronicJournal@@@ATL@@UEAAJJPEAUtagMSG@@PEAUIOleClientSite@@JPEAUHWND__@@PEBUtagRECT@@@Z 0000000180033654     ElectronicJournal.obj
 0004:00000660       $pdata$?Advise@?$IOleObjectImpl@VCOPOSElectronicJournal@@@ATL@@UEAAJPEAUIAdviseSink@@PEAK@Z 0000000180033660     ElectronicJournal.obj
 0004:0000066c       $pdata$?Unadvise@?$IOleObjectImpl@VCOPOSElectronicJournal@@@ATL@@UEAAJK@Z 000000018003366c     ElectronicJournal.obj
 0004:00000678       $pdata$?EnumAdvise@?$IOleObjectImpl@VCOPOSElectronicJournal@@@ATL@@UEAAJPEAPEAUIEnumSTATDATA@@@Z 0000000180033678     ElectronicJournal.obj
 0004:00000684       $pdata$?TranslateAcceleratorW@?$IOleInPlaceActiveObjectImpl@VCOPOSElectronicJournal@@@ATL@@UEAAJPEAUtagMSG@@@Z 0000000180033684     ElectronicJournal.obj
 0004:00000690       $pdata$?OnDocWindowActivate@?$IOleInPlaceActiveObjectImpl@VCOPOSElectronicJournal@@@ATL@@UEAAJH@Z 0000000180033690     ElectronicJournal.obj
 0004:0000069c       $pdata$?Draw@?$IViewObjectExImpl@VCOPOSElectronicJournal@@@ATL@@UEAAJKJPEAXPEAUtagDVTARGETDEVICE@@PEAUHDC__@@2PEBU_RECTL@@3P6AH_K@Z4@Z 000000018003369c     ElectronicJournal.obj
 0004:000006a8       $pdata$?SetAdvise@?$IViewObjectExImpl@VCOPOSElectronicJournal@@@ATL@@UEAAJKKPEAUIAdviseSink@@@Z 00000001800336a8     ElectronicJournal.obj
 0004:000006b4       $pdata$?GetAdvise@?$IViewObjectExImpl@VCOPOSElectronicJournal@@@ATL@@UEAAJPEAK0PEAPEAUIAdviseSink@@@Z 00000001800336b4     ElectronicJournal.obj
 0004:000006c0       $pdata$?QueryHitPoint@?$IViewObjectExImpl@VCOPOSElectronicJournal@@@ATL@@UEAAJKPEBUtagRECT@@UtagPOINT@@JPEAK@Z 00000001800336c0     ElectronicJournal.obj
 0004:000006cc       $pdata$?QueryHitRect@?$IViewObjectExImpl@VCOPOSElectronicJournal@@@ATL@@UEAAJKPEBUtagRECT@@0JPEAK@Z 00000001800336cc     ElectronicJournal.obj
 0004:000006d8       $pdata$?OnWindowMessage@?$IOleInPlaceObjectWindowlessImpl@VCOPOSElectronicJournal@@@ATL@@UEAAJI_K_JPEA_J@Z 00000001800336d8     ElectronicJournal.obj
 0004:000006e4       $pdata$?EnumConnectionPoints@?$IConnectionPointContainerImpl@VCOPOSElectronicJournal@@@ATL@@UEAAJPEAPEAUIEnumConnectionPoints@@@Z 00000001800336e4     ElectronicJournal.obj
 0004:000006f0       $pdata$?FindConnectionPoint@?$IConnectionPointContainerImpl@VCOPOSElectronicJournal@@@ATL@@UEAAJAEBU_GUID@@PEAPEAUIConnectionPoint@@@Z 00000001800336f0     ElectronicJournal.obj
 0004:000006fc       $pdata$?IsDirty@?$IPersistStorageImpl@VCOPOSElectronicJournal@@@ATL@@UEAAJXZ 00000001800336fc     ElectronicJournal.obj
 0004:00000708       $pdata$?InitNew@?$IPersistStorageImpl@VCOPOSElectronicJournal@@@ATL@@UEAAJPEAUIStorage@@@Z 0000000180033708     ElectronicJournal.obj
 0004:00000714       $pdata$?Load@?$IPersistStorageImpl@VCOPOSElectronicJournal@@@ATL@@UEAAJPEAUIStorage@@@Z 0000000180033714     ElectronicJournal.obj
 0004:00000720       $pdata$?Save@?$IPersistStorageImpl@VCOPOSElectronicJournal@@@ATL@@UEAAJPEAUIStorage@@H@Z 0000000180033720     ElectronicJournal.obj
 0004:0000072c       $pdata$?IPSI_GetIPersistStreamInit@?$IPersistStorageImpl@VCOPOSElectronicJournal@@@ATL@@AEAAPEAUIPersistStreamInit@@XZ 000000018003372c     ElectronicJournal.obj
 0004:00000738       $pdata$?GetPagesHelper@?$ISpecifyPropertyPagesImpl@VCOPOSElectronicJournal@@@ATL@@IEAAJPEAUtagCAUUID@@PEBUATL_PROPMAP_ENTRY@2@@Z 0000000180033738     ElectronicJournal.obj
 0004:00000744       $pdata$?DAdvise@?$IDataObjectImpl@VCOPOSElectronicJournal@@@ATL@@UEAAJPEAUtagFORMATETC@@KPEAUIAdviseSink@@PEAK@Z 0000000180033744     ElectronicJournal.obj
 0004:00000750       $pdata$?GetClassInfoW@?$IProvideClassInfo2Impl@$1?CLSID_OPOSElectronicJournal@@3U_GUID@@B$1?DIID__IOPOSElectronicJournalEvents@@3U2@B$1?LIBID_OposElectronicJournal_CCO@@3U2@B$00$0A@VCComTypeInfoHolder@ATL@@@ATL@@UEAAJPEAPEAUITypeInfo@@@Z 0000000180033750     ElectronicJournal.obj
 0004:0000075c       $pdata$?GetInterfaceSafetyOptions@?$IObjectSafetyImpl@VCOPOSElectronicJournal@@$02@ATL@@UEAAJAEBU_GUID@@PEAK1@Z 000000018003375c     ElectronicJournal.obj
 0004:00000768       $pdata$?SetInterfaceSafetyOptions@?$IObjectSafetyImpl@VCOPOSElectronicJournal@@$02@ATL@@UEAAJAEBU_GUID@@KK@Z 0000000180033768     ElectronicJournal.obj
 0004:00000774       $pdata$?_LocCPQueryInterface@?$IConnectionPointImpl@VCOPOSElectronicJournal@@$1?DIID__IOPOSElectronicJournalEvents@@3U_GUID@@BVCComDynamicUnkArray@ATL@@@ATL@@UEAAJAEBU_GUID@@PEAPEAX@Z 0000000180033774     ElectronicJournal.obj
 0004:00000774       $pdata$?_LocCPQueryInterface@?$IConnectionPointImpl@VCOPOSElectronicJournal@@$1?IID_IPropertyNotifySink@@3U_GUID@@BVCComDynamicUnkArray@ATL@@@ATL@@UEAAJAEBU_GUID@@PEAPEAX@Z 0000000180033774     ElectronicJournal.obj
 0004:00000780       $pdata$?Advise@?$IConnectionPointImpl@VCOPOSElectronicJournal@@$1?IID_IPropertyNotifySink@@3U_GUID@@BVCComDynamicUnkArray@ATL@@@ATL@@UEAAJPEAUIUnknown@@PEAK@Z 0000000180033780     ElectronicJournal.obj
 0004:00000780       $pdata$?Advise@?$IConnectionPointImpl@VCOPOSElectronicJournal@@$1?DIID__IOPOSElectronicJournalEvents@@3U_GUID@@BVCComDynamicUnkArray@ATL@@@ATL@@UEAAJPEAUIUnknown@@PEAK@Z 0000000180033780     ElectronicJournal.obj
 0004:0000078c       $pdata$?Unadvise@?$IConnectionPointImpl@VCOPOSElectronicJournal@@$1?DIID__IOPOSElectronicJournalEvents@@3U_GUID@@BVCComDynamicUnkArray@ATL@@@ATL@@UEAAJK@Z 000000018003378c     ElectronicJournal.obj
 0004:0000078c       $pdata$?Unadvise@?$IConnectionPointImpl@VCOPOSElectronicJournal@@$1?IID_IPropertyNotifySink@@3U_GUID@@BVCComDynamicUnkArray@ATL@@@ATL@@UEAAJK@Z 000000018003378c     ElectronicJournal.obj
 0004:00000798       $pdata$?EnumConnections@?$IConnectionPointImpl@VCOPOSElectronicJournal@@$1?IID_IPropertyNotifySink@@3U_GUID@@BVCComDynamicUnkArray@ATL@@@ATL@@UEAAJPEAPEAUIEnumConnections@@@Z 0000000180033798     ElectronicJournal.obj
 0004:00000798       $pdata$?EnumConnections@?$IConnectionPointImpl@VCOPOSElectronicJournal@@$1?DIID__IOPOSElectronicJournalEvents@@3U_GUID@@BVCComDynamicUnkArray@ATL@@@ATL@@UEAAJPEAPEAUIEnumConnections@@@Z 0000000180033798     ElectronicJournal.obj
 0004:000007a4       $pdata$?Fire_DataEvent@?$CProxy_IOPOSEvents@VCOPOSElectronicJournal@@@@QEAAXJ@Z 00000001800337a4     ElectronicJournal.obj
 0004:000007b0       $pdata$?Fire_DirectIOEvent@?$CProxy_IOPOSEvents@VCOPOSElectronicJournal@@@@QEAAXJPEAJPEAPEA_W@Z 00000001800337b0     ElectronicJournal.obj
 0004:000007bc       $pdata$?Fire_ErrorEvent@?$CProxy_IOPOSEvents@VCOPOSElectronicJournal@@@@QEAAXJJJPEAJ@Z 00000001800337bc     ElectronicJournal.obj
 0004:000007c8       $pdata$?Fire_OutputCompleteEvent@?$CProxy_IOPOSEvents@VCOPOSElectronicJournal@@@@QEAAXJ@Z 00000001800337c8     ElectronicJournal.obj
 0004:000007d4       $pdata$?Fire_StatusUpdateEvent@?$CProxy_IOPOSEvents@VCOPOSElectronicJournal@@@@QEAAXJ@Z 00000001800337d4     ElectronicJournal.obj
 0004:000007e0       $pdata$?FireTheEvent@?$CProxy_IOPOSEvents@VCOPOSElectronicJournal@@@@IEAAXPEAVOposVariant@@IAEAJPEB_WJ@Z 00000001800337e0     ElectronicJournal.obj
 0004:000007ec       $pdata$?GetConnMap@COPOSElectronicJournal@@SAPEBU_ATL_CONNMAP_ENTRY@ATL@@PEAH@Z 00000001800337ec     ElectronicJournal.obj
 0004:000007f8       $pdata$?ProcessWindowMessage@COPOSElectronicJournal@@UEAAHPEAUHWND__@@I_K_JAEA_JK@Z 00000001800337f8     ElectronicJournal.obj
 0004:00000804       $pdata$?SOData@COPOSElectronicJournal@@MEAAJJ@Z 0000000180033804     ElectronicJournal.obj
 0004:00000810       $pdata$?SODirectIO@COPOSElectronicJournal@@MEAAJJPEAJPEAPEA_W@Z 0000000180033810     ElectronicJournal.obj
 0004:0000081c       $pdata$?SOError@COPOSElectronicJournal@@MEAAJJJJPEAJ@Z 000000018003381c     ElectronicJournal.obj
 0004:00000828       $pdata$?SOOutputComplete@COPOSElectronicJournal@@MEAAJJ@Z 0000000180033828     ElectronicJournal.obj
 0004:00000834       $pdata$?SOStatusUpdate@COPOSElectronicJournal@@MEAAJJ@Z 0000000180033834     ElectronicJournal.obj
 0004:00000840       $pdata$?DoEvent@COPOSElectronicJournal@@IEAAXI_K_J@Z 0000000180033840     ElectronicJournal.obj
 0004:0000084c       $pdata$??__E_Module@@YAXXZ 000000018003384c     ElectronicJournal.obj
 0004:00000858       $pdata$??__F_Module@@YAXXZ 0000000180033858     ElectronicJournal.obj
 0004:00000864       $pdata$?CreateInstance@?$CComCreator@V?$CComObjectCached@VCComClassFactory@ATL@@@ATL@@@ATL@@SAJPEAXAEBU_GUID@@PEAPEAX@Z 0000000180033864     ElectronicJournal.obj
 0004:00000870       $pdata$DllMain             0000000180033870     ElectronicJournal.obj
 0004:0000087c       $pdata$?CreateInstance@?$CComCreator@V?$CComObject@VCOPOSElectronicJournal@@@ATL@@@ATL@@SAJPEAXAEBU_GUID@@PEAPEAX@Z 000000018003387c     ElectronicJournal.obj
 0004:00000888       $pdata$?CreateInstance@?$CComCreator@V?$CComAggObject@VCOPOSElectronicJournal@@@ATL@@@ATL@@SAJPEAXAEBU_GUID@@PEAPEAX@Z 0000000180033888     ElectronicJournal.obj
 0004:00000894       $pdata$??1?$CComEnumImpl@UIEnumConnectionPoints@@$1?_GUID_b196b285_bab4_101a_b69c_00aa00341d07@@3U__s_GUID@@BPEAUIConnectionPoint@@V?$_CopyInterface@UIConnectionPoint@@@ATL@@@ATL@@UEAA@XZ 0000000180033894     ElectronicJournal.obj
 0004:000008a0       $pdata$?Next@?$CComEnumImpl@UIEnumConnectionPoints@@$1?_GUID_b196b285_bab4_101a_b69c_00aa00341d07@@3U__s_GUID@@BPEAUIConnectionPoint@@V?$_CopyInterface@UIConnectionPoint@@@ATL@@@ATL@@UEAAJKPEAPEAUIConnectionPoint@@PEAK@Z 00000001800338a0     ElectronicJournal.obj
 0004:000008ac       $pdata$?Clone@?$CComEnumImpl@UIEnumConnectionPoints@@$1?_GUID_b196b285_bab4_101a_b69c_00aa00341d07@@3U__s_GUID@@BPEAUIConnectionPoint@@V?$_CopyInterface@UIConnectionPoint@@@ATL@@@ATL@@UEAAJPEAPEAUIEnumConnectionPoints@@@Z 00000001800338ac     ElectronicJournal.obj
 0004:000008b8       $pdata$?Init@?$CComEnumImpl@UIEnumConnectionPoints@@$1?_GUID_b196b285_bab4_101a_b69c_00aa00341d07@@3U__s_GUID@@BPEAUIConnectionPoint@@V?$_CopyInterface@UIConnectionPoint@@@ATL@@@ATL@@QEAAJPEAPEAUIConnectionPoint@@0PEAUIUnknown@@W4CComEnumFlags@2@@Z 00000001800338b8     ElectronicJournal.obj
 0004:000008c4       $pdata$?Release@?$CComObject@V?$CComEnum@UIEnumConnectionPoints@@$1?_GUID_b196b285_bab4_101a_b69c_00aa00341d07@@3U__s_GUID@@BPEAUIConnectionPoint@@V?$_CopyInterface@UIConnectionPoint@@@ATL@@VCComSingleThreadModel@6@@ATL@@@ATL@@UEAAKXZ 00000001800338c4     ElectronicJournal.obj
 0004:000008c4       $pdata$?Release@?$CComObject@V?$CComEnum@UIEnumConnections@@$1?_GUID_b196b287_bab4_101a_b69c_00aa00341d07@@3U__s_GUID@@BUtagCONNECTDATA@@V?$_Copy@UtagCONNECTDATA@@@ATL@@VCComSingleThreadModel@6@@ATL@@@ATL@@UEAAKXZ 00000001800338c4     ElectronicJournal.obj
 0004:000008d0       $pdata$?CreateInstance@?$CComObject@V?$CComEnum@UIEnumConnectionPoints@@$1?_GUID_b196b285_bab4_101a_b69c_00aa00341d07@@3U__s_GUID@@BPEAUIConnectionPoint@@V?$_CopyInterface@UIConnectionPoint@@@ATL@@VCComSingleThreadModel@6@@ATL@@@ATL@@SAJPEAPEAV12@@Z 00000001800338d0     ElectronicJournal.obj
 0004:000008dc       $pdata$??_G?$CComObject@V?$CComEnum@UIEnumConnectionPoints@@$1?_GUID_b196b285_bab4_101a_b69c_00aa00341d07@@3U__s_GUID@@BPEAUIConnectionPoint@@V?$_CopyInterface@UIConnectionPoint@@@ATL@@VCComSingleThreadModel@6@@ATL@@@ATL@@UEAAPEAXI@Z 00000001800338dc     ElectronicJournal.obj
 0004:000008e8       $pdata$?AddRef@?$CComObjectCached@VCComClassFactory@ATL@@@ATL@@UEAAKXZ 00000001800338e8     ElectronicJournal.obj
 0004:000008f4       $pdata$?Release@?$CComObjectCached@VCComClassFactory@ATL@@@ATL@@UEAAKXZ 00000001800338f4     ElectronicJournal.obj
 0004:00000900       $pdata$??_G?$CComObjectCached@VCComClassFactory@ATL@@@ATL@@UEAAPEAXI@Z 0000000180033900     ElectronicJournal.obj
 0004:0000090c       $pdata$?Release@?$CComAggObject@VCOPOSElectronicJournal@@@ATL@@UEAAKXZ 000000018003390c     ElectronicJournal.obj
 0004:00000918       $pdata$?QueryInterface@?$CComAggObject@VCOPOSElectronicJournal@@@ATL@@UEAAJAEBU_GUID@@PEAPEAX@Z 0000000180033918     ElectronicJournal.obj
 0004:00000924       $pdata$??0?$CComContainedObject@VCOPOSElectronicJournal@@@ATL@@QEAA@PEAX@Z 0000000180033924     ElectronicJournal.obj
 0004:00000930       $pdata$??_G?$CComContainedObject@VCOPOSElectronicJournal@@@ATL@@UEAAPEAXI@Z 0000000180033930     ElectronicJournal.obj
 0004:0000093c       $pdata$??_G?$CComAggObject@VCOPOSElectronicJournal@@@ATL@@UEAAPEAXI@Z 000000018003393c     ElectronicJournal.obj
 0004:00000948       $pdata$??0?$CComObject@VCOPOSElectronicJournal@@@ATL@@QEAA@PEAX@Z 0000000180033948     ElectronicJournal.obj
 0004:00000954       $pdata$??1?$CComObject@VCOPOSElectronicJournal@@@ATL@@UEAA@XZ 0000000180033954     ElectronicJournal.obj
 0004:00000960       $pdata$?Release@?$CComObject@VCOPOSElectronicJournal@@@ATL@@UEAAKXZ 0000000180033960     ElectronicJournal.obj
 0004:0000096c       $pdata$??_G?$CComObject@VCOPOSElectronicJournal@@@ATL@@UEAAPEAXI@Z 000000018003396c     ElectronicJournal.obj
 0004:00000978       $pdata$??__E?pConnMap@?$IConnectionPointContainerImpl@VCOPOSElectronicJournal@@@ATL@@0PEBU_ATL_CONNMAP_ENTRY@2@EB@@YAXXZ 0000000180033978     ElectronicJournal.obj
 0004:00000984       $pdata$??1?$CComEnumImpl@UIEnumConnections@@$1?_GUID_b196b287_bab4_101a_b69c_00aa00341d07@@3U__s_GUID@@BUtagCONNECTDATA@@V?$_Copy@UtagCONNECTDATA@@@ATL@@@ATL@@UEAA@XZ 0000000180033984     ElectronicJournal.obj
 0004:00000990       $pdata$?Next@?$CComEnumImpl@UIEnumConnections@@$1?_GUID_b196b287_bab4_101a_b69c_00aa00341d07@@3U__s_GUID@@BUtagCONNECTDATA@@V?$_Copy@UtagCONNECTDATA@@@ATL@@@ATL@@UEAAJKPEAUtagCONNECTDATA@@PEAK@Z 0000000180033990     ElectronicJournal.obj
 0004:0000099c       $pdata$?Clone@?$CComEnumImpl@UIEnumConnections@@$1?_GUID_b196b287_bab4_101a_b69c_00aa00341d07@@3U__s_GUID@@BUtagCONNECTDATA@@V?$_Copy@UtagCONNECTDATA@@@ATL@@@ATL@@UEAAJPEAPEAUIEnumConnections@@@Z 000000018003399c     ElectronicJournal.obj
 0004:000009a8       $pdata$?Init@?$CComEnumImpl@UIEnumConnections@@$1?_GUID_b196b287_bab4_101a_b69c_00aa00341d07@@3U__s_GUID@@BUtagCONNECTDATA@@V?$_Copy@UtagCONNECTDATA@@@ATL@@@ATL@@QEAAJPEAUtagCONNECTDATA@@0PEAUIUnknown@@W4CComEnumFlags@2@@Z 00000001800339a8     ElectronicJournal.obj
 0004:000009b4       $pdata$?CreateInstance@?$CComObject@V?$CComEnum@UIEnumConnections@@$1?_GUID_b196b287_bab4_101a_b69c_00aa00341d07@@3U__s_GUID@@BUtagCONNECTDATA@@V?$_Copy@UtagCONNECTDATA@@@ATL@@VCComSingleThreadModel@6@@ATL@@@ATL@@SAJPEAPEAV12@@Z 00000001800339b4     ElectronicJournal.obj
 0004:000009c0       $pdata$??_G?$CComObject@V?$CComEnum@UIEnumConnections@@$1?_GUID_b196b287_bab4_101a_b69c_00aa00341d07@@3U__s_GUID@@BUtagCONNECTDATA@@V?$_Copy@UtagCONNECTDATA@@@ATL@@VCComSingleThreadModel@6@@ATL@@@ATL@@UEAAPEAXI@Z 00000001800339c0     ElectronicJournal.obj
 0004:000009cc       $pdata$??1CComControlBase@ATL@@UEAA@XZ 00000001800339cc     ElectronicJournalImpl.obj
 0004:000009d8       $pdata$??1?$IConnectionPointImpl@VCOPOSElectronicJournal@@$1?IID_IPropertyNotifySink@@3U_GUID@@BVCComDynamicUnkArray@ATL@@@ATL@@QEAA@XZ 00000001800339d8     ElectronicJournalImpl.obj
 0004:000009d8       $pdata$??1?$IConnectionPointImpl@VCOPOSElectronicJournal@@$1?DIID__IOPOSElectronicJournalEvents@@3U_GUID@@BVCComDynamicUnkArray@ATL@@@ATL@@QEAA@XZ 00000001800339d8     ElectronicJournalImpl.obj
 0004:000009e4       $pdata$?FinalConstruct@COPOSElectronicJournal@@QEAAJXZ 00000001800339e4     ElectronicJournalImpl.obj
 0004:000009f0       $pdata$??1COPOSElectronicJournal@@UEAA@XZ 00000001800339f0     ElectronicJournalImpl.obj
 0004:000009fc       $pdata$?GetOposProp@COPOSElectronicJournal@@IEAAJJPEAJJ@Z 00000001800339fc     ElectronicJournalImpl.obj
 0004:00000a08       $pdata$?SetOposProp@COPOSElectronicJournal@@IEAAJJJJ@Z 0000000180033a08     ElectronicJournalImpl.obj
 0004:00000a14       $pdata$?GetOposProp@COPOSElectronicJournal@@IEAAJJPEAPEA_WJ@Z 0000000180033a14     ElectronicJournalImpl.obj
 0004:00000a20       $pdata$?DoInvoke@COPOSElectronicJournal@@IEAAJJPEAVOposVariant@@IHPEAJ_N@Z 0000000180033a20     ElectronicJournalImpl.obj
 0004:00000a2c       $pdata$?SetCOFreezeEvents@COPOSElectronicJournal@@IEAAXF@Z 0000000180033a2c     ElectronicJournalImpl.obj
 0004:00000a38       $pdata$?FreezeEvents@COPOSElectronicJournal@@MEAAJH@Z 0000000180033a38     ElectronicJournalImpl.obj
 0004:00000a44       $pdata$?OnDraw@COPOSElectronicJournal@@MEAAJAEAUATL_DRAWINFO@@@Z 0000000180033a44     ElectronicJournalImpl.obj
 0004:00000a50       $pdata$?EventInit@COPOSElectronicJournal@@IEAAJXZ 0000000180033a50     ElectronicJournalImpl.obj
 0004:00000a5c       $pdata$?EventUninit@COPOSElectronicJournal@@IEAAXXZ 0000000180033a5c     ElectronicJournalImpl.obj
 0004:00000a68       $pdata$?s_EventWindowProc@COPOSElectronicJournal@@KA_JPEAUHWND__@@I_K_J@Z 0000000180033a68     ElectronicJournalImpl.obj
 0004:00000a74       $pdata$?EventWindowProc@COPOSElectronicJournal@@IEAA_JI_K_J@Z 0000000180033a74     ElectronicJournalImpl.obj
 0004:00000a80       $pdata$?SOProcessID@COPOSElectronicJournal@@UEAAJPEAJ@Z 0000000180033a80     ElectronicJournalImpl.obj
 0004:00000a8c       $pdata$?get_AutoDisable@COPOSElectronicJournal@@UEAAJPEAF@Z 0000000180033a8c     ElectronicJournalImpl.obj
 0004:00000a98       $pdata$?get_Claimed@COPOSElectronicJournal@@UEAAJPEAF@Z 0000000180033a98     ElectronicJournalImpl.obj
 0004:00000aa4       $pdata$?get_DataEventEnabled@COPOSElectronicJournal@@UEAAJPEAF@Z 0000000180033aa4     ElectronicJournalImpl.obj
 0004:00000ab0       $pdata$?get_DeviceEnabled@COPOSElectronicJournal@@UEAAJPEAF@Z 0000000180033ab0     ElectronicJournalImpl.obj
 0004:00000abc       $pdata$?get_FreezeEvents@COPOSElectronicJournal@@UEAAJPEAF@Z 0000000180033abc     ElectronicJournalImpl.obj
 0004:00000ac8       $pdata$?put_FreezeEvents@COPOSElectronicJournal@@UEAAJF@Z 0000000180033ac8     ElectronicJournalImpl.obj
 0004:00000ad4       $pdata$?get_ResultCode@COPOSElectronicJournal@@UEAAJPEAJ@Z 0000000180033ad4     ElectronicJournalImpl.obj
 0004:00000ae0       $pdata$?get_State@COPOSElectronicJournal@@UEAAJPEAJ@Z 0000000180033ae0     ElectronicJournalImpl.obj
 0004:00000aec       $pdata$?get_ControlObjectDescription@COPOSElectronicJournal@@UEAAJPEAPEA_W@Z 0000000180033aec     ElectronicJournalImpl.obj
 0004:00000af8       $pdata$?get_CapStatisticsReporting@COPOSElectronicJournal@@UEAAJPEAF@Z 0000000180033af8     ElectronicJournalImpl.obj
 0004:00000b04       $pdata$?get_CapUpdateStatistics@COPOSElectronicJournal@@UEAAJPEAF@Z 0000000180033b04     ElectronicJournalImpl.obj
 0004:00000b10       $pdata$?get_CapCompareFirmwareVersion@COPOSElectronicJournal@@UEAAJPEAF@Z 0000000180033b10     ElectronicJournalImpl.obj
 0004:00000b1c       $pdata$?get_CapUpdateFirmware@COPOSElectronicJournal@@UEAAJPEAF@Z 0000000180033b1c     ElectronicJournalImpl.obj
 0004:00000b28       $pdata$?CheckHealth@COPOSElectronicJournal@@UEAAJJPEAJ@Z 0000000180033b28     ElectronicJournalImpl.obj
 0004:00000b34       $pdata$?ClaimDevice@COPOSElectronicJournal@@UEAAJJPEAJ@Z 0000000180033b34     ElectronicJournalImpl.obj
 0004:00000b40       $pdata$?ClearInput@COPOSElectronicJournal@@UEAAJPEAJ@Z 0000000180033b40     ElectronicJournalImpl.obj
 0004:00000b4c       $pdata$?ClearOutput@COPOSElectronicJournal@@UEAAJPEAJ@Z 0000000180033b4c     ElectronicJournalImpl.obj
 0004:00000b58       $pdata$?Close@COPOSElectronicJournal@@UEAAJPEAJ@Z 0000000180033b58     ElectronicJournalImpl.obj
 0004:00000b64       $pdata$?DirectIO@COPOSElectronicJournal@@UEAAJJPEAJPEAPEA_W0@Z 0000000180033b64     ElectronicJournalImpl.obj
 0004:00000b70       $pdata$?Open@COPOSElectronicJournal@@UEAAJPEA_WPEAJ@Z 0000000180033b70     ElectronicJournalImpl.obj
 0004:00000b7c       $pdata$?ReleaseDevice@COPOSElectronicJournal@@UEAAJPEAJ@Z 0000000180033b7c     ElectronicJournalImpl.obj
 0004:00000b88       $pdata$?ResetStatistics@COPOSElectronicJournal@@UEAAJPEA_WPEAJ@Z 0000000180033b88     ElectronicJournalImpl.obj
 0004:00000b94       $pdata$?RetrieveStatistics@COPOSElectronicJournal@@UEAAJPEAPEA_WPEAJ@Z 0000000180033b94     ElectronicJournalImpl.obj
 0004:00000ba0       $pdata$?UpdateStatistics@COPOSElectronicJournal@@UEAAJPEA_WPEAJ@Z 0000000180033ba0     ElectronicJournalImpl.obj
 0004:00000bac       $pdata$?CompareFirmwareVersion@COPOSElectronicJournal@@UEAAJPEA_WPEAJ1@Z 0000000180033bac     ElectronicJournalImpl.obj
 0004:00000bb8       $pdata$?UpdateFirmware@COPOSElectronicJournal@@UEAAJPEA_WPEAJ@Z 0000000180033bb8     ElectronicJournalImpl.obj
 0004:00000bc4       $pdata$?get_AsyncMode@COPOSElectronicJournal@@UEAAJPEAF@Z 0000000180033bc4     ElectronicJournalImpl.obj
 0004:00000bd0       $pdata$?get_CapAddMarker@COPOSElectronicJournal@@UEAAJPEAF@Z 0000000180033bd0     ElectronicJournalImpl.obj
 0004:00000bdc       $pdata$?get_CapErasableMedium@COPOSElectronicJournal@@UEAAJPEAF@Z 0000000180033bdc     ElectronicJournalImpl.obj
 0004:00000be8       $pdata$?get_CapInitializeMedium@COPOSElectronicJournal@@UEAAJPEAF@Z 0000000180033be8     ElectronicJournalImpl.obj
 0004:00000bf4       $pdata$?get_CapMediumIsAvailable@COPOSElectronicJournal@@UEAAJPEAF@Z 0000000180033bf4     ElectronicJournalImpl.obj
 0004:00000c00       $pdata$?get_CapPrintContent@COPOSElectronicJournal@@UEAAJPEAF@Z 0000000180033c00     ElectronicJournalImpl.obj
 0004:00000c0c       $pdata$?get_CapPrintContentFile@COPOSElectronicJournal@@UEAAJPEAF@Z 0000000180033c0c     ElectronicJournalImpl.obj
 0004:00000c18       $pdata$?get_CapRetrieveCurrentMarker@COPOSElectronicJournal@@UEAAJPEAF@Z 0000000180033c18     ElectronicJournalImpl.obj
 0004:00000c24       $pdata$?get_CapRetrieveMarker@COPOSElectronicJournal@@UEAAJPEAF@Z 0000000180033c24     ElectronicJournalImpl.obj
 0004:00000c30       $pdata$?get_CapRetrieveMarkerByDateTime@COPOSElectronicJournal@@UEAAJPEAF@Z 0000000180033c30     ElectronicJournalImpl.obj
 0004:00000c3c       $pdata$?get_CapRetrieveMarkersDateTime@COPOSElectronicJournal@@UEAAJPEAF@Z 0000000180033c3c     ElectronicJournalImpl.obj
 0004:00000c48       $pdata$?get_CapStorageEnabled@COPOSElectronicJournal@@UEAAJPEAF@Z 0000000180033c48     ElectronicJournalImpl.obj
 0004:00000c54       $pdata$?get_CapSuspendPrintContent@COPOSElectronicJournal@@UEAAJPEAF@Z 0000000180033c54     ElectronicJournalImpl.obj
 0004:00000c60       $pdata$?get_CapSuspendQueryContent@COPOSElectronicJournal@@UEAAJPEAF@Z 0000000180033c60     ElectronicJournalImpl.obj
 0004:00000c6c       $pdata$?get_CapWaterMark@COPOSElectronicJournal@@UEAAJPEAF@Z 0000000180033c6c     ElectronicJournalImpl.obj
 0004:00000c78       $pdata$?get_FlagWhenIdle@COPOSElectronicJournal@@UEAAJPEAF@Z 0000000180033c78     ElectronicJournalImpl.obj
 0004:00000c84       $pdata$?get_MediumFreeSpace@COPOSElectronicJournal@@UEAAJPEATtagCY@@@Z 0000000180033c84     ElectronicJournalImpl.obj
 0004:00000c90       $pdata$?get_MediumIsAvailable@COPOSElectronicJournal@@UEAAJPEAF@Z 0000000180033c90     ElectronicJournalImpl.obj
 0004:00000c9c       $pdata$?get_MediumSize@COPOSElectronicJournal@@UEAAJPEATtagCY@@@Z 0000000180033c9c     ElectronicJournalImpl.obj
 0004:00000ca8       $pdata$?get_StorageEnabled@COPOSElectronicJournal@@UEAAJPEAF@Z 0000000180033ca8     ElectronicJournalImpl.obj
 0004:00000cb4       $pdata$?get_Suspended@COPOSElectronicJournal@@UEAAJPEAF@Z 0000000180033cb4     ElectronicJournalImpl.obj
 0004:00000cc0       $pdata$?get_WaterMark@COPOSElectronicJournal@@UEAAJPEAF@Z 0000000180033cc0     ElectronicJournalImpl.obj
 0004:00000ccc       $pdata$?AddMarker@COPOSElectronicJournal@@UEAAJPEA_WPEAJ@Z 0000000180033ccc     ElectronicJournalImpl.obj
 0004:00000cd8       $pdata$?CancelPrintContent@COPOSElectronicJournal@@UEAAJPEAJ@Z 0000000180033cd8     ElectronicJournalImpl.obj
 0004:00000ce4       $pdata$?CancelQueryContent@COPOSElectronicJournal@@UEAAJPEAJ@Z 0000000180033ce4     ElectronicJournalImpl.obj
 0004:00000cf0       $pdata$?EraseMedium@COPOSElectronicJournal@@UEAAJPEAJ@Z 0000000180033cf0     ElectronicJournalImpl.obj
 0004:00000cfc       $pdata$?InitializeMedium@COPOSElectronicJournal@@UEAAJPEA_WPEAJ@Z 0000000180033cfc     ElectronicJournalImpl.obj
 0004:00000d08       $pdata$?PrintContent@COPOSElectronicJournal@@UEAAJPEA_W0PEAJ@Z 0000000180033d08     ElectronicJournalImpl.obj
 0004:00000d14       $pdata$?PrintContentFile@COPOSElectronicJournal@@UEAAJPEA_WPEAJ@Z 0000000180033d14     ElectronicJournalImpl.obj
 0004:00000d20       $pdata$?QueryContent@COPOSElectronicJournal@@UEAAJPEA_W00PEAJ@Z 0000000180033d20     ElectronicJournalImpl.obj
 0004:00000d2c       $pdata$?ResumePrintContent@COPOSElectronicJournal@@UEAAJPEAJ@Z 0000000180033d2c     ElectronicJournalImpl.obj
 0004:00000d38       $pdata$?ResumeQueryContent@COPOSElectronicJournal@@UEAAJPEAJ@Z 0000000180033d38     ElectronicJournalImpl.obj
 0004:00000d44       $pdata$?RetrieveCurrentMarker@COPOSElectronicJournal@@UEAAJJPEAPEA_WPEAJ@Z 0000000180033d44     ElectronicJournalImpl.obj
 0004:00000d50       $pdata$?RetrieveMarker@COPOSElectronicJournal@@UEAAJJJJPEAPEA_WPEAJ@Z 0000000180033d50     ElectronicJournalImpl.obj
 0004:00000d5c       $pdata$?RetrieveMarkerByDateTime@COPOSElectronicJournal@@UEAAJJPEA_W0PEAPEA_WPEAJ@Z 0000000180033d5c     ElectronicJournalImpl.obj
 0004:00000d68       $pdata$?RetrieveMarkersDateTime@COPOSElectronicJournal@@UEAAJPEA_WPEAPEA_WPEAJ@Z 0000000180033d68     ElectronicJournalImpl.obj
 0004:00000d74       $pdata$?SuspendPrintContent@COPOSElectronicJournal@@UEAAJPEAJ@Z 0000000180033d74     ElectronicJournalImpl.obj
 0004:00000d80       $pdata$?SuspendQueryContent@COPOSElectronicJournal@@UEAAJPEAJ@Z 0000000180033d80     ElectronicJournalImpl.obj
 0004:00000d8c       $pdata$atexit              0000000180033d8c     LIBCMT:utility.obj
 0004:00000d98       $pdata$_onexit             0000000180033d98     LIBCMT:utility.obj
 0004:00000da4       $pdata$__scrt_is_nonwritable_in_current_image 0000000180033da4     LIBCMT:utility.obj
 0004:00000db0       $pdata$__scrt_is_nonwritable_in_current_image$filt$0 0000000180033db0     LIBCMT:utility.obj
 0004:00000dbc       $pdata$__scrt_acquire_startup_lock 0000000180033dbc     LIBCMT:utility.obj
 0004:00000dc8       $pdata$__scrt_release_startup_lock 0000000180033dc8     LIBCMT:utility.obj
 0004:00000dd4       $pdata$__scrt_initialize_crt 0000000180033dd4     LIBCMT:utility.obj
 0004:00000de0       $pdata$__scrt_uninitialize_crt 0000000180033de0     LIBCMT:utility.obj
 0004:00000dec       $pdata$__scrt_initialize_onexit_tables 0000000180033dec     LIBCMT:utility.obj
 0004:00000df8       $pdata$__scrt_dllmain_exception_filter 0000000180033df8     LIBCMT:utility.obj
 0004:00000e04       $pdata$__scrt_dllmain_before_initialize_c 0000000180033e04     LIBCMT:utility.obj
 0004:00000e10       $pdata$__scrt_dllmain_after_initialize_c 0000000180033e10     LIBCMT:utility.obj
 0004:00000e1c       $pdata$__scrt_dllmain_uninitialize_c 0000000180033e1c     LIBCMT:utility.obj
 0004:00000e28       $pdata$__scrt_dllmain_uninitialize_critical 0000000180033e28     LIBCMT:utility.obj
 0004:00000e34       $pdata$__scrt_dllmain_crt_thread_attach 0000000180033e34     LIBCMT:utility.obj
 0004:00000e40       $pdata$__scrt_dllmain_crt_thread_detach 0000000180033e40     LIBCMT:utility.obj
 0004:00000e4c       $pdata$_Init_thread_header 0000000180033e4c     LIBCMT:thread_safe_statics.obj
 0004:00000e58       $pdata$_Init_thread_footer 0000000180033e58     LIBCMT:thread_safe_statics.obj
 0004:00000e64       $pdata$_Init_thread_wait   0000000180033e64     LIBCMT:thread_safe_statics.obj
 0004:00000e70       $pdata$_Init_thread_notify 0000000180033e70     LIBCMT:thread_safe_statics.obj
 0004:00000e7c       $pdata$?__scrt_uninitialize_thread_safe_statics@@YAXXZ 0000000180033e7c     LIBCMT:thread_safe_statics.obj
 0004:00000e88       $pdata$?__scrt_initialize_thread_safe_statics@@YAHXZ 0000000180033e88     LIBCMT:thread_safe_statics.obj
 0004:00000e94       $pdata$__report_securityfailure 0000000180033e94     LIBCMT:gs_report.obj
 0004:00000ea0       $pdata$__report_rangecheckfailure 0000000180033ea0     LIBCMT:gs_report.obj
 0004:00000eac       $pdata$__report_gsfailure  0000000180033eac     LIBCMT:gs_report.obj
 0004:00000eb8       $pdata$capture_current_context 0000000180033eb8     LIBCMT:gs_report.obj
 0004:00000ec4       $pdata$capture_previous_context 0000000180033ec4     LIBCMT:gs_report.obj
 0004:00000ed0       $pdata$__raise_securityfailure 0000000180033ed0     LIBCMT:gs_report.obj
 0004:00000edc       $pdata$??2@YAPEAX_KAEBUnothrow_t@std@@@Z 0000000180033edc     LIBCMT:new_scalar_nothrow.obj
 0004:00000ee8       $pdata$?catch$0@?0???2@YAPEAX_KAEBUnothrow_t@std@@@Z@4HA 0000000180033ee8     LIBCMT:new_scalar_nothrow.obj
 0004:00000ef4       $pdata$__GSHandlerCheckCommon 0000000180033ef4     LIBCMT:_gshandler_.obj
 0004:00000f00       $pdata$__GSHandlerCheck    0000000180033f00     LIBCMT:_gshandler_.obj
 0004:00000f0c       $pdata$__GSHandlerCheck_SEH 0000000180033f0c     LIBCMT:_gshandlerseh_.obj
 0004:00000f30       $pdata$?dllmain_crt_process_attach@@YAHQEAUHINSTANCE__@@QEAX@Z 0000000180033f30     LIBCMT:dll_dllmain.obj
 0004:00000f3c       $pdata$?fin$0@?0??dllmain_crt_process_attach@@YAHQEAUHINSTANCE__@@QEAX@Z@4HA 0000000180033f3c     LIBCMT:dll_dllmain.obj
 0004:00000f48       $pdata$?dllmain_crt_process_detach@@YAH_N@Z 0000000180033f48     LIBCMT:dll_dllmain.obj
 0004:00000f54       $pdata$?fin$0@?0??dllmain_crt_process_detach@@YAH_N@Z@4HA 0000000180033f54     LIBCMT:dll_dllmain.obj
 0004:00000f60       $pdata$?dllmain_crt_dispatch@@YAHQEAUHINSTANCE__@@KQEAX@Z 0000000180033f60     LIBCMT:dll_dllmain.obj
 0004:00000f6c       $pdata$?dllmain_dispatch@@YAHQEAUHINSTANCE__@@KQEAX@Z 0000000180033f6c     LIBCMT:dll_dllmain.obj
 0004:00000f78       $pdata$?filt$0@?0??dllmain_dispatch@@YAHQEAUHINSTANCE__@@KQEAX@Z@4HA 0000000180033f78     LIBCMT:dll_dllmain.obj
 0004:00000f84       $pdata$_DllMainCRTStartup  0000000180033f84     LIBCMT:dll_dllmain.obj
 0004:00000f90       $pdata$??2@YAPEAX_K@Z      0000000180033f90     LIBCMT:new_scalar.obj
 0004:00000f9c       $pdata$__isa_available_init 0000000180033f9c     LIBCMT:_cpu_disp_.obj
 0004:00000fa8       $pdata$__scrt_fastfail     0000000180033fa8     LIBCMT:utility_desktop.obj
 0004:00000fb4       $pdata$__security_init_cookie 0000000180033fb4     LIBCMT:gs_support.obj
 0004:00000fc0       $pdata$__scrt_initialize_default_local_stdio_options 0000000180033fc0     LIBCMT:default_local_stdio_options.obj
 0004:00000fcc       $pdata$_RTC_Initialize     0000000180033fcc     LIBCMT:_initsect_.obj
 0004:00000fd8       $pdata$_RTC_Terminate      0000000180033fd8     LIBCMT:_initsect_.obj
 0004:00000fe4       $pdata$??0exception@std@@QEAA@AEBV01@@Z 0000000180033fe4     LIBCMT:throw_bad_alloc.obj
 0004:00000ff0       $pdata$??_Gbad_alloc@std@@UEAAPEAXI@Z 0000000180033ff0     LIBCMT:throw_bad_alloc.obj
 0004:00000ff0       $pdata$??_Gbad_exception@std@@UEAAPEAXI@Z 0000000180033ff0     libvcruntime:frame.obj
 0004:00000ff0       $pdata$??_Gbad_array_new_length@std@@UEAAPEAXI@Z 0000000180033ff0     LIBCMT:throw_bad_alloc.obj
 0004:00000ff0       $pdata$??_Gexception@std@@UEAAPEAXI@Z 0000000180033ff0     LIBCMT:throw_bad_alloc.obj
 0004:00000ffc       $pdata$??0bad_alloc@std@@QEAA@AEBV01@@Z 0000000180033ffc     LIBCMT:throw_bad_alloc.obj
 0004:00001008       $pdata$??0bad_array_new_length@std@@QEAA@AEBV01@@Z 0000000180034008     LIBCMT:throw_bad_alloc.obj
 0004:00001014       $pdata$?__scrt_throw_std_bad_alloc@@YAXXZ 0000000180034014     LIBCMT:throw_bad_alloc.obj
 0004:00001020       $pdata$?__scrt_throw_std_bad_array_new_length@@YAXXZ 0000000180034020     LIBCMT:throw_bad_alloc.obj
 0004:00001038       $pdata$??_Gtype_info@@UEAAPEAXI@Z 0000000180034038     LIBCMT:std_type_info_static.obj
 0004:00001044       $pdata$??0CAtlBaseModule@ATL@@QEAA@XZ 0000000180034044     atls:atlbase.obj
 0004:00001050       $pdata$??1CAtlBaseModule@ATL@@QEAA@XZ 0000000180034050     atls:atlbase.obj
 0004:0000105c       $pdata$??__E_AtlBaseModule@ATL@@YAXXZ 000000018003405c     atls:atlbase.obj
 0004:00001068       $pdata$AtlThunk_AllocateData 0000000180034068     atls:atlthunk.obj
 0004:00001074       $pdata$AtlThunk_InitData   0000000180034074     atls:atlthunk.obj
 0004:00001080       $pdata$AtlThunk_DataToCode 0000000180034080     atls:atlthunk.obj
 0004:0000108c       $pdata$AtlThunk_FreeData   000000018003408c     atls:atlthunk.obj
 0004:00001098       $pdata$?__InitializeThunkPool@@YAHXZ 0000000180034098     atls:atlthunk.obj
 0004:000010a4       $pdata$?__AllocStdCallThunk_cmn@@YAPEAXXZ 00000001800340a4     atls:atlthunk.obj
 0004:000010b0       $pdata$??$GetProcAddressAll@P6AXPEAUAtlThunkData_t@@PEAX_K@Z@@YAP6AXPEAUAtlThunkData_t@@PEAX_K@ZPEAP6AX012@Z@Z 00000001800340b0     atls:atlthunk.obj
 0004:000010b0       $pdata$??$GetProcAddressAll@P6APEAUAtlThunkData_t@@XZ@@YAP6APEAUAtlThunkData_t@@XZPEAP6APEAU0@XZ@Z 00000001800340b0     atls:atlthunk.obj
 0004:000010b0       $pdata$??$GetProcAddressAll@P6AP6A_JPEAUHWND__@@I_K_J@ZPEAUAtlThunkData_t@@@Z@@YAP6AP6A_JPEAUHWND__@@I_K_J@ZPEAUAtlThunkData_t@@@ZPEAP6AP6A_J0I12@Z3@Z@Z 00000001800340b0     atls:atlthunk.obj
 0004:000010b0       $pdata$??$GetProcAddressAll@P6AXPEAUAtlThunkData_t@@@Z@@YAP6AXPEAUAtlThunkData_t@@@ZPEAP6AX0@Z@Z 00000001800340b0     atls:atlthunk.obj
 0004:000010d4       $pdata$_purecall           00000001800340d4     libvcruntime:purevirt.obj
 0004:000010e0       $pdata$wcsstr              00000001800340e0     libvcruntime:wcsstr.obj
 0004:00001110       $pdata$__vcrt_initialize   0000000180034110     libvcruntime:initialization.obj
 0004:0000111c       $pdata$__vcrt_uninitialize 000000018003411c     libvcruntime:initialization.obj
 0004:00001128       $pdata$__vcrt_uninitialize_critical 0000000180034128     libvcruntime:initialization.obj
 0004:00001134       $pdata$__vcrt_thread_attach 0000000180034134     libvcruntime:initialization.obj
 0004:00001140       $pdata$__vcrt_thread_detach 0000000180034140     libvcruntime:initialization.obj
 0004:0000114c       $pdata$__C_specific_handler 000000018003414c     libvcruntime:_riscchandler_.obj
 0004:00001158       $pdata$__std_terminate     0000000180034158     libvcruntime:ehhelpers.obj
 0004:00001164       $pdata$_IsExceptionObjectToBeDestroyed 0000000180034164     libvcruntime:ehhelpers.obj
 0004:00001170       $pdata$__FrameUnwindFilter 0000000180034170     libvcruntime:ehhelpers.obj
 0004:0000117c       $pdata$__DestructExceptionObject 000000018003417c     libvcruntime:ehhelpers.obj
 0004:00001188       $pdata$__DestructExceptionObject$filt$0 0000000180034188     libvcruntime:ehhelpers.obj
 0004:00001194       $pdata$?CatchTryBlock@__FrameHandler3@@SAPEBU_s_TryBlockMapEntry@@PEBU_s_FuncInfo@@H@Z 0000000180034194     libvcruntime:risctrnsctrl.obj
 0004:000011a0       $pdata$?ExecutionInCatch@__FrameHandler3@@SA_NPEAU_xDISPATCHER_CONTEXT@@PEBU_s_FuncInfo@@@Z 00000001800341a0     libvcruntime:risctrnsctrl.obj
 0004:000011ac       $pdata$?FrameUnwindToEmptyState@__FrameHandler3@@SAXPEA_KPEAU_xDISPATCHER_CONTEXT@@PEBU_s_FuncInfo@@@Z 00000001800341ac     libvcruntime:risctrnsctrl.obj
 0004:000011b8       $pdata$?GetEstablisherFrame@__FrameHandler3@@SAPEA_KPEA_KPEAU_xDISPATCHER_CONTEXT@@PEBU_s_FuncInfo@@0@Z 00000001800341b8     libvcruntime:risctrnsctrl.obj
 0004:000011c4       $pdata$?UnwindNestedFrames@__FrameHandler3@@SAXPEA_KPEAUEHExceptionRecord@@PEAU_CONTEXT@@0PEAXPEBU_s_FuncInfo@@HHPEBU_s_HandlerType@@PEAU_xDISPATCHER_CONTEXT@@E@Z 00000001800341c4     libvcruntime:risctrnsctrl.obj
 0004:000011d0       $pdata$?GetRangeOfTrysToCheck@__FrameHandler3@@SA?AU?$pair@Viterator@TryBlockMap@__FrameHandler3@@V123@@std@@AEAVTryBlockMap@1@HH@Z 00000001800341d0     libvcruntime:risctrnsctrl.obj
 0004:000011dc       $pdata$_GetImageBase       00000001800341dc     libvcruntime:risctrnsctrl.obj
 0004:000011e8       $pdata$_SetImageBase       00000001800341e8     libvcruntime:risctrnsctrl.obj
 0004:000011f4       $pdata$_GetThrowImageBase  00000001800341f4     libvcruntime:risctrnsctrl.obj
 0004:00001200       $pdata$_SetThrowImageBase  0000000180034200     libvcruntime:risctrnsctrl.obj
 0004:0000120c       $pdata$_CreateFrameInfo    000000018003420c     libvcruntime:risctrnsctrl.obj
 0004:00001218       $pdata$_FindAndUnlinkFrame 0000000180034218     libvcruntime:risctrnsctrl.obj
 0004:00001224       $pdata$__CxxFrameHandler3  0000000180034224     libvcruntime:risctrnsctrl.obj
 0004:00001230       $pdata$??$_CallSETranslator@V__FrameHandler3@@@@YAHPEAUEHExceptionRecord@@PEA_KPEAU_CONTEXT@@PEAU_xDISPATCHER_CONTEXT@@PEBU_s_FuncInfo@@K1@Z 0000000180034230     libvcruntime:risctrnsctrl.obj
 0004:0000123c       $pdata$?filt$0@?0???$_CallSETranslator@V__FrameHandler3@@@@YAHPEAUEHExceptionRecord@@PEA_KPEAU_CONTEXT@@PEAU_xDISPATCHER_CONTEXT@@PEBU_s_FuncInfo@@K1@Z@4HA 000000018003423c     libvcruntime:risctrnsctrl.obj
 0004:00001248       $pdata$__std_type_info_destroy_list 0000000180034248     libvcruntime:std_type_info.obj
 0004:00001254       $pdata$__std_exception_copy 0000000180034254     libvcruntime:std_exception.obj
 0004:00001260       $pdata$__std_exception_destroy 0000000180034260     libvcruntime:std_exception.obj
 0004:0000126c       $pdata$_CxxThrowException  000000018003426c     libvcruntime:throw.obj
 0004:00001278       $pdata$__vcrt_initialize_ptd 0000000180034278     libvcruntime:per_thread_data.obj
 0004:00001284       $pdata$__vcrt_uninitialize_ptd 0000000180034284     libvcruntime:per_thread_data.obj
 0004:00001290       $pdata$__vcrt_getptd       0000000180034290     libvcruntime:per_thread_data.obj
 0004:0000129c       $pdata$__vcrt_getptd_noexit 000000018003429c     libvcruntime:per_thread_data.obj
 0004:000012a8       $pdata$__vcrt_freeptd      00000001800342a8     libvcruntime:per_thread_data.obj
 0004:000012b4       $pdata$__vcrt_freefls      00000001800342b4     libvcruntime:per_thread_data.obj
 0004:000012c0       $pdata$__vcrt_initialize_locks 00000001800342c0     libvcruntime:locks.obj
 0004:000012cc       $pdata$__vcrt_uninitialize_locks 00000001800342cc     libvcruntime:locks.obj
 0004:000012d8       $pdata$__vcrt_FlsAlloc     00000001800342d8     libvcruntime:winapi_downlevel.obj
 0004:000012e4       $pdata$__vcrt_FlsFree      00000001800342e4     libvcruntime:winapi_downlevel.obj
 0004:000012f0       $pdata$__vcrt_FlsGetValue  00000001800342f0     libvcruntime:winapi_downlevel.obj
 0004:000012fc       $pdata$__vcrt_FlsSetValue  00000001800342fc     libvcruntime:winapi_downlevel.obj
 0004:00001308       $pdata$__vcrt_InitializeCriticalSectionEx 0000000180034308     libvcruntime:winapi_downlevel.obj
 0004:00001314       $pdata$__vcrt_initialize_winapi_thunks 0000000180034314     libvcruntime:winapi_downlevel.obj
 0004:00001320       $pdata$__vcrt_uninitialize_winapi_thunks 0000000180034320     libvcruntime:winapi_downlevel.obj
 0004:0000132c       $pdata$?try_get_function@@YAPEAXW4function_id@?A0xcc2f1bd3@@QEBDQEBW4module_id@2@2@Z 000000018003432c     libvcruntime:winapi_downlevel.obj
 0004:0000135c       $pdata$?StateFromIp@__FrameHandler3@@SAHPEBU_s_FuncInfo@@PEAU_xDISPATCHER_CONTEXT@@_K@Z 000000018003435c     libvcruntime:ehstate.obj
 0004:00001368       $pdata$?GetCurrentState@__FrameHandler3@@SAHPEA_KPEAU_xDISPATCHER_CONTEXT@@PEBU_s_FuncInfo@@@Z 0000000180034368     libvcruntime:ehstate.obj
 0004:00001374       $pdata$?SetUnwindTryBlock@__FrameHandler3@@SAXPEA_KPEAU_xDISPATCHER_CONTEXT@@PEBU_s_FuncInfo@@H@Z 0000000180034374     libvcruntime:ehstate.obj
 0004:00001380       $pdata$?GetUnwindTryBlock@__FrameHandler3@@SAHPEA_KPEAU_xDISPATCHER_CONTEXT@@PEBU_s_FuncInfo@@@Z 0000000180034380     libvcruntime:ehstate.obj
 0004:0000138c       $pdata$?FrameUnwindToState@__FrameHandler3@@SAXPEA_KPEAU_xDISPATCHER_CONTEXT@@PEBU_s_FuncInfo@@H@Z 000000018003438c     libvcruntime:frame.obj
 0004:00001398       $pdata$?filt$0@?0??FrameUnwindToState@__FrameHandler3@@SAXPEA_KPEAU_xDISPATCHER_CONTEXT@@PEBU_s_FuncInfo@@H@Z@4HA 0000000180034398     libvcruntime:frame.obj
 0004:000013a4       $pdata$?fin$1@?0??FrameUnwindToState@__FrameHandler3@@SAXPEA_KPEAU_xDISPATCHER_CONTEXT@@PEBU_s_FuncInfo@@H@Z@4HA 00000001800343a4     libvcruntime:frame.obj
 0004:000013b0       $pdata$?GetHandlerSearchState@__FrameHandler3@@SAHPEA_KPEAU_xDISPATCHER_CONTEXT@@PEBU_s_FuncInfo@@@Z 00000001800343b0     libvcruntime:frame.obj
 0004:000013bc       $pdata$?CxxCallCatchBlock@__FrameHandler3@@SAPEAXPEAU_EXCEPTION_RECORD@@@Z 00000001800343bc     libvcruntime:frame.obj
 0004:000013c8       $pdata$?filt$0@?0??CxxCallCatchBlock@__FrameHandler3@@SAPEAXPEAU_EXCEPTION_RECORD@@@Z@4HA 00000001800343c8     libvcruntime:frame.obj
 0004:000013d4       $pdata$?fin$1@?0??CxxCallCatchBlock@__FrameHandler3@@SAPEAXPEAU_EXCEPTION_RECORD@@@Z@4HA 00000001800343d4     libvcruntime:frame.obj
 0004:000013e0       $pdata$??0bad_exception@std@@QEAA@AEBV01@@Z 00000001800343e0     libvcruntime:frame.obj
 0004:000013ec       $pdata$?ExFilterRethrow@@YAHPEAU_EXCEPTION_POINTERS@@PEAUEHExceptionRecord@@PEAH@Z 00000001800343ec     libvcruntime:frame.obj
 0004:000013f8       $pdata$?IsInExceptionSpec@@YAEPEAUEHExceptionRecord@@PEBU_s_ESTypeList@@@Z 00000001800343f8     libvcruntime:frame.obj
 0004:00001404       $pdata$?Is_bad_exception_allowed@@YAEPEBU_s_ESTypeList@@@Z 0000000180034404     libvcruntime:frame.obj
 0004:00001410       $pdata$??$__InternalCxxFrameHandler@V__FrameHandler3@@@@YA?AW4_EXCEPTION_DISPOSITION@@PEAUEHExceptionRecord@@PEA_KPEAU_CONTEXT@@PEAU_xDISPATCHER_CONTEXT@@PEBU_s_FuncInfo@@H1E@Z 0000000180034410     libvcruntime:frame.obj
 0004:0000141c       $pdata$??$TypeMatchHelper@$$CBU_s_HandlerType@@@@YAHPEBU_s_HandlerType@@PEBU_s_CatchableType@@PEBU_s_ThrowInfo@@@Z 000000018003441c     libvcruntime:frame.obj
 0004:00001428       $pdata$??$BuildCatchObjectHelperInternal@$$CBU_s_HandlerType@@@@YAHPEAUEHExceptionRecord@@PEAXPEBU_s_HandlerType@@PEBU_s_CatchableType@@@Z 0000000180034428     libvcruntime:frame.obj
 0004:00001434       $pdata$??$BuildCatchObjectInternal@$$CBU_s_HandlerType@@@@YAXPEAUEHExceptionRecord@@PEAXPEBU_s_HandlerType@@PEBU_s_CatchableType@@@Z 0000000180034434     libvcruntime:frame.obj
 0004:00001440       $pdata$??$FindHandler@V__FrameHandler3@@@@YAXPEAUEHExceptionRecord@@PEA_KPEAU_CONTEXT@@PEAU_xDISPATCHER_CONTEXT@@PEBU_s_FuncInfo@@EH1@Z 0000000180034440     libvcruntime:frame.obj
 0004:0000144c       $pdata$??$CatchIt@V__FrameHandler3@@@@YAXPEAUEHExceptionRecord@@PEA_KPEAU_CONTEXT@@PEAU_xDISPATCHER_CONTEXT@@PEBU_s_FuncInfo@@PEBU_s_HandlerType@@PEBU_s_CatchableType@@PEBU_s_TryBlockMapEntry@@H1EE@Z 000000018003444c     libvcruntime:frame.obj
 0004:00001458       $pdata$??$FindHandlerForForeignException@V__FrameHandler3@@@@YAXPEAUEHExceptionRecord@@PEA_KPEAU_CONTEXT@@PEAU_xDISPATCHER_CONTEXT@@PEBU_s_FuncInfo@@HH1@Z 0000000180034458     libvcruntime:frame.obj
 0004:0000147c       $pdata$_invalid_parameter_noinfo 000000018003447c     libucrt:invalid_parameter.obj
 0004:00001488       $pdata$_invoke_watson      0000000180034488     libucrt:invalid_parameter.obj
 0004:00001494       $pdata$__acrt_call_reportfault 0000000180034494     libucrt:invalid_parameter.obj
 0004:000014a0       $pdata$_invalid_parameter  00000001800344a0     libucrt:invalid_parameter.obj
 0004:000014ac       $pdata$_errno              00000001800344ac     libucrt:errno.obj
 0004:000014b8       $pdata$__doserrno          00000001800344b8     libucrt:errno.obj
 0004:000014c4       $pdata$__acrt_errno_map_os_error 00000001800344c4     libucrt:errno.obj
 0004:000014d0       $pdata$_recalloc_base      00000001800344d0     libucrt:recalloc.obj
 0004:000014dc       $pdata$_resetstkoflw       00000001800344dc     libucrt:resetstk.obj
 0004:000014e8       $pdata$wcscat_s            00000001800344e8     libucrt:wcscat_s.obj
 0004:000014f4       $pdata$wcscpy_s            00000001800344f4     libucrt:wcscpy_s.obj
 0004:00001500       $pdata$wcsncpy_s           0000000180034500     libucrt:wcsncpy_s.obj
 0004:0000150c       $pdata$??0_LocaleUpdate@@QEAA@QEAU__crt_locale_pointers@@@Z 000000018003450c     libucrt:output.obj
 0004:00001518       $pdata$__stdio_common_vswprintf_s 0000000180034518     libucrt:output.obj
 0004:00001524       $pdata$?force_decimal_point@__crt_stdio_output@@YAXPEADQEAU__crt_locale_pointers@@@Z 0000000180034524     libucrt:output.obj
 0004:00001530       $pdata$?write_string@?$string_output_adapter@_W@__crt_stdio_output@@QEBAXQEB_WHQEAHAEAV__crt_deferred_errno_cache@@@Z 0000000180034530     libucrt:output.obj
 0004:0000153c       $pdata$??$common_vsprintf@Vformat_validation_base@__crt_stdio_output@@_W@@YAH_KQEA_W0QEB_WQEAU__crt_locale_pointers@@QEAD@Z 000000018003453c     libucrt:output.obj
 0004:00001548       $pdata$??$write_multiple_characters@V?$string_output_adapter@_W@__crt_stdio_output@@D@__crt_stdio_output@@YAXAEBV?$string_output_adapter@_W@0@DHQEAH@Z 0000000180034548     libucrt:output.obj
 0004:00001554       $pdata$??$ensure_buffer_is_big_enough@D@formatting_buffer@__crt_stdio_output@@QEAA_N_K@Z 0000000180034554     libucrt:output.obj
 0004:00001560       $pdata$?process@?$output_processor@_WV?$string_output_adapter@_W@__crt_stdio_output@@V?$format_validation_base@_WV?$string_output_adapter@_W@__crt_stdio_output@@@2@@__crt_stdio_output@@QEAAHXZ 0000000180034560     libucrt:output.obj
 0004:0000156c       $pdata$?parse_int_from_format_string@?$output_processor@_WV?$string_output_adapter@_W@__crt_stdio_output@@V?$format_validation_base@_WV?$string_output_adapter@_W@__crt_stdio_output@@@2@@__crt_stdio_output@@AEAA_NQEAH@Z 000000018003456c     libucrt:output.obj
 0004:00001578       $pdata$?state_case_size@?$output_processor@_WV?$string_output_adapter@_W@__crt_stdio_output@@V?$format_validation_base@_WV?$string_output_adapter@_W@__crt_stdio_output@@@2@@__crt_stdio_output@@AEAA_NXZ 0000000180034578     libucrt:output.obj
 0004:00001584       $pdata$?state_case_type@?$output_processor@_WV?$string_output_adapter@_W@__crt_stdio_output@@V?$format_validation_base@_WV?$string_output_adapter@_W@__crt_stdio_output@@@2@@__crt_stdio_output@@AEAA_NXZ 0000000180034584     libucrt:output.obj
 0004:00001590       $pdata$?type_case_c_tchar@?$output_processor@_WV?$string_output_adapter@_W@__crt_stdio_output@@V?$format_validation_base@_WV?$string_output_adapter@_W@__crt_stdio_output@@@2@@__crt_stdio_output@@AEAA_N_W@Z 0000000180034590     libucrt:output.obj
 0004:0000159c       $pdata$?type_case_Z@?$output_processor@_WV?$string_output_adapter@_W@__crt_stdio_output@@V?$format_validation_base@_WV?$string_output_adapter@_W@__crt_stdio_output@@@2@@__crt_stdio_output@@AEAA_NXZ 000000018003459c     libucrt:output.obj
 0004:000015a8       $pdata$?type_case_s@?$output_processor@_WV?$string_output_adapter@_W@__crt_stdio_output@@V?$format_validation_base@_WV?$string_output_adapter@_W@__crt_stdio_output@@@2@@__crt_stdio_output@@AEAA_NXZ 00000001800345a8     libucrt:output.obj
 0004:000015b4       $pdata$?type_case_a@?$output_processor@_WV?$string_output_adapter@_W@__crt_stdio_output@@V?$format_validation_base@_WV?$string_output_adapter@_W@__crt_stdio_output@@@2@@__crt_stdio_output@@AEAA_NXZ 00000001800345b4     libucrt:output.obj
 0004:000015c0       $pdata$?type_case_integer@?$output_processor@_WV?$string_output_adapter@_W@__crt_stdio_output@@V?$format_validation_base@_WV?$string_output_adapter@_W@__crt_stdio_output@@@2@@__crt_stdio_output@@AEAA_NI_N@Z 00000001800345c0     libucrt:output.obj
 0004:000015cc       $pdata$?type_case_n@?$output_processor@_WV?$string_output_adapter@_W@__crt_stdio_output@@V?$format_validation_base@_WV?$string_output_adapter@_W@__crt_stdio_output@@@2@@__crt_stdio_output@@AEAA_NXZ 00000001800345cc     libucrt:output.obj
 0004:000015d8       $pdata$?write_stored_string_tchar@?$output_processor@_WV?$string_output_adapter@_W@__crt_stdio_output@@V?$format_validation_base@_WV?$string_output_adapter@_W@__crt_stdio_output@@@2@@__crt_stdio_output@@AEAA_N_W@Z 00000001800345d8     libucrt:output.obj
 0004:000015e4       $pdata$??$type_case_integer_parse_into_buffer@_K@?$output_processor@_WV?$string_output_adapter@_W@__crt_stdio_output@@V?$format_validation_base@_WV?$string_output_adapter@_W@__crt_stdio_output@@@2@@__crt_stdio_output@@AEAAX_KI_N@Z 00000001800345e4     libucrt:output.obj
 0004:000015f0       $pdata$??$type_case_integer_parse_into_buffer@I@?$output_processor@_WV?$string_output_adapter@_W@__crt_stdio_output@@V?$format_validation_base@_WV?$string_output_adapter@_W@__crt_stdio_output@@@2@@__crt_stdio_output@@AEAAXII_N@Z 00000001800345f0     libucrt:output.obj
 0004:000015fc       $pdata$_seh_filter_exe     00000001800345fc     libucrt:exception_filter.obj
 0004:00001608       $pdata$?try_cor_exit_process@@YAXI@Z 0000000180034608     libucrt:exit.obj
 0004:00001614       $pdata$?exit_or_terminate_process@@YAXI@Z 0000000180034614     libucrt:exit.obj
 0004:00001620       $pdata$?common_exit@@YAXHW4_crt_exit_cleanup_mode@@W4_crt_exit_return_mode@@@Z 0000000180034620     libucrt:exit.obj
 0004:0000162c       $pdata$??R<lambda_6e4b09c48022b2350581041d5f6b0c4c>@@QEBA@XZ 000000018003462c     libucrt:exit.obj
 0004:00001638       $pdata$?filt$0@?0???R<lambda_6e4b09c48022b2350581041d5f6b0c4c>@@QEBA@XZ@4HA 0000000180034638     libucrt:exit.obj
 0004:00001644       $pdata$??$?RV<lambda_d80eeec6fff315bfe5c115232f3240e3>@@AEAV<lambda_6e4b09c48022b2350581041d5f6b0c4c>@@V<lambda_2358e3775559c9db80273638284d5e45>@@@?$__crt_seh_guarded_call@X@@QEAAX$$QEAV<lambda_d80eeec6fff315bfe5c115232f3240e3>@@AEAV<lambda_6e4b09c48022b2350581041d5f6b0c4c>@@$$QEAV<lambda_2358e3775559c9db80273638284d5e45>@@@Z 0000000180034644     libucrt:exit.obj
 0004:00001650       $pdata$?fin$0@?0???$?RV<lambda_7777bce6b2f8c936911f934f8298dc43>@@AEAV<lambda_f03950bc5685219e0bcd2087efbe011e>@@V<lambda_3883c3dff614d5e0c5f61bb1ac94921c>@@@?$__crt_seh_guarded_call@H@@QEAAH$$QEAV<lambda_7777bce6b2f8c936911f934f8298dc43>@@AEAV<lambda_f03950bc5685219e0bcd2087efbe011e>@@$$QEAV<lambda_3883c3dff614d5e0c5f61bb1ac94921c>@@@Z@4HA 0000000180034650     libucrt:onexit.obj
 0004:00001650       $pdata$?fin$0@?0???$?RV<lambda_d80eeec6fff315bfe5c115232f3240e3>@@AEAV<lambda_6e4b09c48022b2350581041d5f6b0c4c>@@V<lambda_2358e3775559c9db80273638284d5e45>@@@?$__crt_seh_guarded_call@X@@QEAAX$$QEAV<lambda_d80eeec6fff315bfe5c115232f3240e3>@@AEAV<lambda_6e4b09c48022b2350581041d5f6b0c4c>@@$$QEAV<lambda_2358e3775559c9db80273638284d5e45>@@@Z@4HA 0000000180034650     libucrt:exit.obj
 0004:00001650       $pdata$?fin$0@?0???$?RV<lambda_450d765d439847d4c735a33c368b5fc0>@@AEAV<lambda_44731a7d0e6d81c3e6aa82d741081786>@@V<lambda_601a2a7da3b7a96e9554ac7215c4b07c>@@@?$__crt_seh_guarded_call@P6AXH@Z@@QEAAP6AXH@Z$$QEAV<lambda_450d765d439847d4c735a33c368b5fc0>@@AEAV<lambda_44731a7d0e6d81c3e6aa82d741081786>@@$$QEAV<lambda_601a2a7da3b7a96e9554ac7215c4b07c>@@@Z@4HA 0000000180034650     libucrt:signal.obj
 0004:00001650       $pdata$?fin$0@?0???$?RV<lambda_0ae27a3a962d80f24befdcbee591983d>@@AEAV<lambda_8d0ee55de4b1038c4002e0adecdf1839>@@V<lambda_dc504788e8f1664fe9b84e20bfb512f2>@@@?$__crt_seh_guarded_call@X@@QEAAX$$QEAV<lambda_0ae27a3a962d80f24befdcbee591983d>@@AEAV<lambda_8d0ee55de4b1038c4002e0adecdf1839>@@$$QEAV<lambda_dc504788e8f1664fe9b84e20bfb512f2>@@@Z@4HA 0000000180034650     libucrt:per_thread_data.obj
 0004:00001650       $pdata$?fin$0@?0???$?RV<lambda_638799b9deba96c50f710eeac98168cd>@@AEAV<lambda_22ebabd17bc4fa466a2aca6d8deb888d>@@V<lambda_a6f7d7db0129f75315ebf26d50c089f1>@@@?$__crt_seh_guarded_call@H@@QEAAH$$QEAV<lambda_638799b9deba96c50f710eeac98168cd>@@AEAV<lambda_22ebabd17bc4fa466a2aca6d8deb888d>@@$$QEAV<lambda_a6f7d7db0129f75315ebf26d50c089f1>@@@Z@4HA 0000000180034650     libucrt:onexit.obj
 0004:00001650       $pdata$?fin$0@?0???$?RV<lambda_f2e299630e499de9f9a165e60fcd3db5>@@AEAV<lambda_2ae9d31cdba2644fcbeaf08da7c24588>@@V<lambda_40d01ff24d0e7b3814fdbdcee8eab3c7>@@@?$__crt_seh_guarded_call@X@@QEAAX$$QEAV<lambda_f2e299630e499de9f9a165e60fcd3db5>@@AEAV<lambda_2ae9d31cdba2644fcbeaf08da7c24588>@@$$QEAV<lambda_40d01ff24d0e7b3814fdbdcee8eab3c7>@@@Z@4HA 0000000180034650     libucrt:per_thread_data.obj
 0004:00001650       $pdata$?fin$0@?0???$?RV<lambda_2d41944a1d46af3157314b8a01080d33>@@AEAV<lambda_8f455de75cd7d7f24b4096f044d8b9e6>@@V<lambda_aa500f224e6afead328df44964fe2772>@@@?$__crt_seh_guarded_call@X@@QEAAX$$QEAV<lambda_2d41944a1d46af3157314b8a01080d33>@@AEAV<lambda_8f455de75cd7d7f24b4096f044d8b9e6>@@$$QEAV<lambda_aa500f224e6afead328df44964fe2772>@@@Z@4HA 0000000180034650     libucrt:per_thread_data.obj
 0004:00001650       $pdata$?fin$0@?0???$?RV<lambda_aa87e3671a710a21b5dc78c0bdf72e11>@@AEAV<lambda_92619d2358a28f41a33ba319515a20b9>@@V<lambda_6992ecaafeb10aed2b74cb1fae11a551>@@@?$__crt_seh_guarded_call@X@@QEAAX$$QEAV<lambda_aa87e3671a710a21b5dc78c0bdf72e11>@@AEAV<lambda_92619d2358a28f41a33ba319515a20b9>@@$$QEAV<lambda_6992ecaafeb10aed2b74cb1fae11a551>@@@Z@4HA 0000000180034650     libucrt:per_thread_data.obj
 0004:00001650       $pdata$?fin$0@?0???$?RV<lambda_efdfa57d1f175319df784efa44bb7b81>@@AEAV<lambda_5f0a4c1567f8adc6734073e5d1e1b35c>@@V<lambda_2e8a7d3640ea6ccb4c2413664c2db6fd>@@@?$__crt_seh_guarded_call@X@@QEAAX$$QEAV<lambda_efdfa57d1f175319df784efa44bb7b81>@@AEAV<lambda_5f0a4c1567f8adc6734073e5d1e1b35c>@@$$QEAV<lambda_2e8a7d3640ea6ccb4c2413664c2db6fd>@@@Z@4HA 0000000180034650     libucrt:mbctype.obj
 0004:0000165c       $pdata$_configure_narrow_argv 000000018003465c     libucrt:argv_parsing.obj
 0004:00001668       $pdata$__acrt_allocate_buffer_for_argv 0000000180034668     libucrt:argv_parsing.obj
 0004:00001674       $pdata$??$parse_command_line@D@@YAXPEADPEAPEAD0PEA_K2@Z 0000000180034674     libucrt:argv_parsing.obj
 0004:00001680       $pdata$__dcrt_uninitialize_environments_nolock 0000000180034680     libucrt:environment_initialization.obj
 0004:0000168c       $pdata$??$common_initialize_environment_nolock@D@@YAHXZ 000000018003468c     libucrt:environment_initialization.obj
 0004:00001698       $pdata$??$uninitialize_environment_internal@D@@YAXAEAPEAPEAD@Z 0000000180034698     libucrt:environment_initialization.obj
