 OPOSPINPad

 Timestamp is 600f7997 (Tue Jan 26 11:08:23 2021)

 Preferred load address is 0000000180000000

 Start         Length     Name                   Class
 0001:00000000 000000c0H .text$di                CODE
 0001:000000c0 00021960H .text$mn                CODE
 0001:00021a20 00000040H .text$mn$00             CODE
 0001:00021a60 000004b0H .text$x                 CODE
 0001:00021f10 00000078H .text$yd                CODE
 0002:00000000 00000618H .idata$5                DATA
 0002:00000618 00000028H .00cfg                  DATA
 0002:00000640 00000008H .CRT$XCA                DATA
 0002:00000648 00000008H .CRT$XCL                DATA
 0002:00000650 00000020H .CRT$XCU                DATA
 0002:00000670 00000008H .CRT$XCZ                DATA
 0002:00000678 00000008H .CRT$XIA                DATA
 0002:00000680 00000020H .CRT$XIC                DATA
 0002:000006a0 00000008H .CRT$XIZ                DATA
 0002:000006a8 00000008H .CRT$XLA                DATA
 0002:000006b0 00000008H .CRT$XLZ                DATA
 0002:000006b8 00000008H .CRT$XPA                DATA
 0002:000006c0 00000010H .CRT$XPX                DATA
 0002:000006d0 00000008H .CRT$XPXA               DATA
 0002:000006d8 00000008H .CRT$XPZ                DATA
 0002:000006e0 00000008H .CRT$XTA                DATA
 0002:000006e8 00000008H .CRT$XTZ                DATA
 0002:000006f0 00000000H .gehcont$y              DATA
 0002:000006f0 00000000H .gfids$y                DATA
 0002:000006f0 0000aa90H .rdata                  DATA
 0002:0000b180 00000000H .rdata$CastGuardVftablesA DATA
 0002:0000b180 00000000H .rdata$CastGuardVftablesC DATA
 0002:0000b180 00000028H .rdata$T                DATA
 0002:0000b1a8 00000274H .rdata$r                DATA
 0002:0000b41c 00000404H .rdata$zzzdbg           DATA
 0002:0000b820 00000008H .rtc$IAA                DATA
 0002:0000b828 00000008H .rtc$IZZ                DATA
 0002:0000b830 00000008H .rtc$TAA                DATA
 0002:0000b838 00000008H .rtc$TZZ                DATA
 0002:0000b840 00000004H .tls                    DATA
 0002:0000b844 00000004H .tls$                   DATA
 0002:0000b848 00000008H .tls$ZZZ                DATA
 0002:0000b850 000016f8H .xdata                  DATA
 0002:0000cf48 00000150H .xdata$x                DATA
 0002:0000d098 00000008H ATL$__a                 DATA
 0002:0000d0a0 00000010H ATL$__z                 DATA
 0002:0000d0b0 000000a8H .edata                  DATA
 0002:0000d158 00000078H .idata$2                DATA
 0002:0000d1d0 00000018H .idata$3                DATA
 0002:0000d1e8 00000618H .idata$4                DATA
 0002:0000d800 00000c2aH .idata$6                DATA
 0003:00000000 00000db8H .data                   DATA
 0003:00000db8 000000c8H .data$r                 DATA
 0003:00000e80 0000141cH .bss                    DATA
 0004:00000000 00001ee4H .pdata                  DATA
 0005:00000000 00000094H _RDATA                  DATA
 0006:00000000 00000220H .rsrc$01                DATA
 0006:00000220 00004ba8H .rsrc$02                DATA

  Address         Publics by Value              Rva+Base               Lib:Object

 0000:00000000       __x64_code_ranges_to_entry_points 0000000000000000     <absolute>
 0000:00000000       __x64_code_ranges_to_entry_points_count 0000000000000000     <absolute>
 0000:00000000       ___safe_se_handler_count   0000000000000000     <absolute>
 0000:00000000       __arm64x_redirection_metadata 0000000000000000     <absolute>
 0000:00000000       __arm64x_extra_rfe_table_size 0000000000000000     <absolute>
 0000:00000000       __guard_iat_table          0000000000000000     <absolute>
 0000:00000000       __volatile_metadata        0000000000000000     <absolute>
 0000:00000000       __guard_eh_cont_count      0000000000000000     <absolute>
 0000:00000000       __guard_longjmp_table      0000000000000000     <absolute>
 0000:00000000       __guard_iat_count          0000000000000000     <absolute>
 0000:00000000       __guard_longjmp_count      0000000000000000     <absolute>
 0000:00000000       ___safe_se_handler_table   0000000000000000     <absolute>
 0000:00000000       __dynamic_value_reloc_table 0000000000000000     <absolute>
 0000:00000000       __hybrid_code_map          0000000000000000     <absolute>
 0000:00000000       __hybrid_auxiliary_iat     0000000000000000     <absolute>
 0000:00000000       __AbsoluteZero             0000000000000000     <absolute>
 0000:00000000       __guard_fids_count         0000000000000000     <absolute>
 0000:00000000       __guard_fids_table         0000000000000000     <absolute>
 0000:00000000       __arm64x_redirection_metadata_count 0000000000000000     <absolute>
 0000:00000000       __enclave_config           0000000000000000     <absolute>
 0000:00000000       __arm64x_extra_rfe_table   0000000000000000     <absolute>
 0000:00000000       __guard_eh_cont_table      0000000000000000     <absolute>
 0000:00000000       __arm64x_native_entrypoint 0000000000000000     <absolute>
 0000:00000000       __hybrid_code_map_count    0000000000000000     <absolute>
 0000:00000100       __guard_flags              0000000000000100     <absolute>
 0000:00000000       __ImageBase                0000000180000000     <linker-defined>
 0001:000000c0       ?DupWide@_CW@@AEAAXXZ      00000001800010c0 f   CWString.obj
 0001:000000e8       ?cw_dup@@YAXPEBDAEAHAEAPEA_W1@Z 00000001800010e8 f   CWString.obj
 0001:000001c8       ?cw_memcpy@@YAHPEA_WPEBDH@Z 00000001800011c8 f   CWString.obj
 0001:00000214       ?cw_strcpy@@YAHPEA_WPEBD@Z 0000000180001214 f   CWString.obj
 0001:00000228       ??0CAtlComModule@ATL@@QEAA@XZ 0000000180001228 f i OposVariant.obj
 0001:000002a8       ??0CAtlWinModule@ATL@@QEAA@XZ 00000001800012a8 f i OposVariant.obj
 0001:00000314       ??0OposDispParms@@QEAA@PEAVOposVariant@@H@Z 0000000180001314 f   OposVariant.obj
 0001:000003bc       ??1OposDispParms@@QEAA@XZ  00000001800013bc f   OposVariant.obj
 0001:000003d4       ??_Estringdispid@CComTypeInfoHolder@ATL@@QEAAPEAXI@Z 00000001800013d4 f i OposVariant.obj
 0001:00000478       ?AtlWinModuleTerm@ATL@@YAJPEAU_ATL_WIN_MODULE70@1@PEAUHINSTANCE__@@@Z 0000000180001478 f i OposVariant.obj
 0001:00000528       ?ChangeBSTR@OposVariant@@QEAAXPEAPEA_WAEAJ@Z 0000000180001528 f   OposVariant.obj
 0001:00000588       ?ChangeCURRENCY@OposVariant@@QEAAXPEATtagCY@@AEAJ@Z 0000000180001588 f   OposVariant.obj
 0001:000005e8       ?ChangeLONG@OposVariant@@QEAAXPEAJAEAJ@Z 00000001800015e8 f   OposVariant.obj
 0001:00000644       ?GetLONG@OposVariant@@QEAAJXZ 0000000180001644 f   OposVariant.obj
 0001:00000668       ?SetBSTR@OposVariant@@QEAAXPEA_WAEAJ@Z 0000000180001668 f   OposVariant.obj
 0001:000006a8       ?SetBSTR_Copy@OposVariant@@QEAAXPEA_WAEAJ@Z 00000001800016a8 f   OposVariant.obj
 0001:00000718       ?SetBSTR_InOutPtr@OposVariant@@QEAA_NPEAPEA_WAEAJ@Z 0000000180001718 f   OposVariant.obj
 0001:00000768       ?SetBSTR_OutPtr@OposVariant@@QEAA_NPEAPEA_WAEAJ@Z 0000000180001768 f   OposVariant.obj
 0001:00000784       ?SetCURRENCY@OposVariant@@QEAAXTtagCY@@@Z 0000000180001784 f   OposVariant.obj
 0001:000007b8       ?SetDispatch_Ptr@OposVariant@@QEAAXPEAUIDispatch@@AEAJ@Z 00000001800017b8 f   OposVariant.obj
 0001:00000810       ?SetLONG@OposVariant@@QEAAXJ@Z 0000000180001810 f   OposVariant.obj
 0001:00000840       ?SetLONG_Ptr@OposVariant@@QEAAXPEAJAEAJ@Z 0000000180001840 f   OposVariant.obj
 0001:0000088c       ?SetString@OposVariant@@QEAAXPEB_WAEAJ@Z 000000018000188c f   OposVariant.obj
 0001:000008f0       ?SetVARIANT_BOOL@OposVariant@@QEAAXF@Z 00000001800018f0 f   OposVariant.obj
 0001:00000928       ?Term@CAtlComModule@ATL@@QEAAXXZ 0000000180001928 f i OposVariant.obj
 0001:00000998       ?_AtlInitializeCriticalSectionEx@ATL@@YAHPEAU_RTL_CRITICAL_SECTION@@KK@Z 0000000180001998 f i OposVariant.obj
 0001:000009a0       ?_AtlRaiseException@ATL@@YAXKK@Z 00000001800019a0 f i OposVariant.obj
 0001:000009b0       ?GetWindowProc@?$CWindowImplBaseT@VCWindow@ATL@@V?$CWinTraits@$0FGAAAAAA@$0A@@2@@ATL@@UEAAP6A_JPEAUHWND__@@I_K_J@ZXZ 00000001800019b0 f i PINPad.obj
 0001:000009b8       ?StartWindowProc@?$CWindowImplBaseT@VCWindow@ATL@@V?$CWinTraits@$0FGAAAAAA@$0A@@2@@ATL@@SA_JPEAUHWND__@@I_K_J@Z 00000001800019b8 f i PINPad.obj
 0001:00000a7c       ?OnFinalMessage@?$CWindowImplBaseT@VCWindow@ATL@@V?$CWinTraits@$0FGAAAAAA@$0A@@2@@ATL@@UEAAXPEAUHWND__@@@Z 0000000180001a7c f i PINPad.obj
 0001:00000a7c       _guard_check_icall_nop     0000000180001a7c f i LIBCMT:guard_support.obj
 0001:00000a7c       ?ObjectMain@CComObjectRootBase@ATL@@SAX_N@Z 0000000180001a7c f i PINPad.obj
 0001:00000a80       ?GetTypeInfoCount@?$IDispatchImpl@UIOPOSPINPad@@$1?IID_IOPOSPINPad@@3U_GUID@@B$1?LIBID_OposPINPad_CCO@@3U3@B$00$0A@VCComTypeInfoHolder@ATL@@@ATL@@UEAAJPEAI@Z 0000000180001a80 f i PINPad.obj
 0001:00000a94       ?GetTypeInfo@?$IDispatchImpl@UIOPOSPINPad@@$1?IID_IOPOSPINPad@@3U_GUID@@B$1?LIBID_OposPINPad_CCO@@3U3@B$00$0A@VCComTypeInfoHolder@ATL@@@ATL@@UEAAJIKPEAPEAUITypeInfo@@@Z 0000000180001a94 f i PINPad.obj
 0001:00000af8       ?GetIDsOfNames@?$IDispatchImpl@UIOPOSPINPad@@$1?IID_IOPOSPINPad@@3U_GUID@@B$1?LIBID_OposPINPad_CCO@@3U3@B$00$0A@VCComTypeInfoHolder@ATL@@@ATL@@UEAAJAEBU_GUID@@PEAPEA_WIKPEAJ@Z 0000000180001af8 f i PINPad.obj
 0001:00000b04       ?Invoke@?$IDispatchImpl@UIOPOSPINPad@@$1?IID_IOPOSPINPad@@3U_GUID@@B$1?LIBID_OposPINPad_CCO@@3U3@B$00$0A@VCComTypeInfoHolder@ATL@@@ATL@@UEAAJJAEBU_GUID@@KGPEAUtagDISPPARAMS@@PEAUtagVARIANT@@PEAUtagEXCEPINFO@@PEAI@Z 0000000180001b04 f i PINPad.obj
 0001:00000b94       ?CreateControlWindow@?$CComControl@VCOPOSPINPad@@V?$CWindowImpl@VCOPOSPINPad@@VCWindow@ATL@@V?$CWinTraits@$0FGAAAAAA@$0A@@3@@ATL@@@ATL@@UEAAPEAUHWND__@@PEAU3@AEAUtagRECT@@@Z 0000000180001b94 f i PINPad.obj
 0001:00000bcc       ?ControlQueryInterface@?$CComControl@VCOPOSPINPad@@V?$CWindowImpl@VCOPOSPINPad@@VCWindow@ATL@@V?$CWinTraits@$0FGAAAAAA@$0A@@3@@ATL@@@ATL@@UEAAJAEBU_GUID@@PEAPEAX@Z 0000000180001bcc f i PINPad.obj
 0001:00000be0       ?GetClassID@?$IPersistStorageImpl@VCOPOSPINPad@@@ATL@@UEAAJPEAU_GUID@@@Z 0000000180001be0 f i PINPad.obj
 0001:00000be0       ?GetUserClassID@?$IOleObjectImpl@VCOPOSPINPad@@@ATL@@UEAAJPEAU_GUID@@@Z 0000000180001be0 f i PINPad.obj
 0001:00000be0       ?GetClassID@?$IPersistStreamInitImpl@VCOPOSPINPad@@@ATL@@UEAAJPEAU_GUID@@@Z 0000000180001be0 f i PINPad.obj
 0001:00000bfc       ?IsDirty@?$IPersistStreamInitImpl@VCOPOSPINPad@@@ATL@@UEAAJXZ 0000000180001bfc f i PINPad.obj
 0001:00000c18       ?Load@?$IPersistStreamInitImpl@VCOPOSPINPad@@@ATL@@UEAAJPEAUIStream@@@Z 0000000180001c18 f i PINPad.obj
 0001:00000c30       ?Save@?$IPersistStreamInitImpl@VCOPOSPINPad@@@ATL@@UEAAJPEAUIStream@@H@Z 0000000180001c30 f i PINPad.obj
 0001:00000c48       ?GetSizeMax@?$IPersistStreamInitImpl@VCOPOSPINPad@@@ATL@@UEAAJPEAT_ULARGE_INTEGER@@@Z 0000000180001c48 f i PINPad.obj
 0001:00000e74       ?InitNew@?$IPersistStreamInitImpl@VCOPOSPINPad@@@ATL@@UEAAJXZ 0000000180001e74 f i PINPad.obj
 0001:00000e8c       ?GetMoniker@?$IOleObjectImpl@VCOPOSPINPad@@@ATL@@UEAAJKKPEAPEAUIMoniker@@@Z 0000000180001e8c f i PINPad.obj
 0001:00000e8c       ?GetDropTarget@?$IOleInPlaceObjectWindowlessImpl@VCOPOSPINPad@@@ATL@@UEAAJPEAPEAUIDropTarget@@@Z 0000000180001e8c f i PINPad.obj
 0001:00000e8c       ?ContextSensitiveHelp@?$IOleInPlaceActiveObjectImpl@VCOPOSPINPad@@@ATL@@UEAAJH@Z 0000000180001e8c f i PINPad.obj
 0001:00000e8c       ?EnumFormatEtc@?$IDataObjectImpl@VCOPOSPINPad@@@ATL@@UEAAJKPEAPEAUIEnumFORMATETC@@@Z 0000000180001e8c f i PINPad.obj
 0001:00000e8c       ?SetData@?$IDataObjectImpl@VCOPOSPINPad@@@ATL@@UEAAJPEAUtagFORMATETC@@PEAUtagSTGMEDIUM@@H@Z 0000000180001e8c f i PINPad.obj
 0001:00000e8c       ?Freeze@?$IViewObjectExImpl@VCOPOSPINPad@@@ATL@@UEAAJKJPEAXPEAK@Z 0000000180001e8c f i PINPad.obj
 0001:00000e8c       ?Unfreeze@?$IViewObjectExImpl@VCOPOSPINPad@@@ATL@@UEAAJK@Z 0000000180001e8c f i PINPad.obj
 0001:00000e8c       ?SetColorScheme@?$IOleObjectImpl@VCOPOSPINPad@@@ATL@@UEAAJPEAUtagLOGPALETTE@@@Z 0000000180001e8c f i PINPad.obj
 0001:00000e8c       ?GetControlInfo@?$IOleControlImpl@VCOPOSPINPad@@@ATL@@UEAAJPEAUtagCONTROLINFO@@@Z 0000000180001e8c f i PINPad.obj
 0001:00000e8c       ?GetColorSet@?$IViewObjectExImpl@VCOPOSPINPad@@@ATL@@UEAAJKJPEAXPEAUtagDVTARGETDEVICE@@PEAUHDC__@@PEAPEAUtagLOGPALETTE@@@Z 0000000180001e8c f i PINPad.obj
 0001:00000e8c       ?QueryInterface@CRegObject@ATL@@UEAAJAEBU_GUID@@PEAPEAX@Z 0000000180001e8c f i PINPad.obj
 0001:00000e8c       ?ReactivateAndUndo@?$IOleInPlaceObjectWindowlessImpl@VCOPOSPINPad@@@ATL@@UEAAJXZ 0000000180001e8c f i PINPad.obj
 0001:00000e8c       ?OnMnemonic@?$IOleControlImpl@VCOPOSPINPad@@@ATL@@UEAAJPEAUtagMSG@@@Z 0000000180001e8c f i PINPad.obj
 0001:00000e8c       ?GetClipboardData@?$IOleObjectImpl@VCOPOSPINPad@@@ATL@@UEAAJKPEAPEAUIDataObject@@@Z 0000000180001e8c f i PINPad.obj
 0001:00000e8c       ?GetRect@?$IViewObjectExImpl@VCOPOSPINPad@@@ATL@@UEAAJKPEAU_RECTL@@@Z 0000000180001e8c f i PINPad.obj
 0001:00000e8c       ?GetCanonicalFormatEtc@?$IDataObjectImpl@VCOPOSPINPad@@@ATL@@UEAAJPEAUtagFORMATETC@@0@Z 0000000180001e8c f i PINPad.obj
 0001:00000e8c       ?GetDataHere@?$IDataObjectImpl@VCOPOSPINPad@@@ATL@@UEAAJPEAUtagFORMATETC@@PEAUtagSTGMEDIUM@@@Z 0000000180001e8c f i PINPad.obj
 0001:00000e8c       ?SOOutputCompleteDummy@COPOSPINPad@@MEAAJJ@Z 0000000180001e8c f i PINPad.obj
 0001:00000e8c       ?InitFromData@?$IOleObjectImpl@VCOPOSPINPad@@@ATL@@UEAAJPEAUIDataObject@@HK@Z 0000000180001e8c f i PINPad.obj
 0001:00000e8c       ?QueryGetData@?$IDataObjectImpl@VCOPOSPINPad@@@ATL@@UEAAJPEAUtagFORMATETC@@@Z 0000000180001e8c f i PINPad.obj
 0001:00000e8c       ?SetMoniker@?$IOleObjectImpl@VCOPOSPINPad@@@ATL@@UEAAJKPEAUIMoniker@@@Z 0000000180001e8c f i PINPad.obj
 0001:00000e8c       ?ContextSensitiveHelp@?$IOleInPlaceObjectWindowlessImpl@VCOPOSPINPad@@@ATL@@UEAAJH@Z 0000000180001e8c f i PINPad.obj
 0001:00000e94       ?Update@?$IOleObjectImpl@VCOPOSPINPad@@@ATL@@UEAAJXZ 0000000180001e94 f i PINPad.obj
 0001:00000e94       ?OnFrameWindowActivate@?$IOleInPlaceActiveObjectImpl@VCOPOSPINPad@@@ATL@@UEAAJH@Z 0000000180001e94 f i PINPad.obj
 0001:00000e94       ?OnAmbientPropertyChange@?$IOleControlImpl@VCOPOSPINPad@@@ATL@@UEAAJJ@Z 0000000180001e94 f i PINPad.obj
 0001:00000e94       ?EnableModeless@?$IOleInPlaceActiveObjectImpl@VCOPOSPINPad@@@ATL@@UEAAJH@Z 0000000180001e94 f i PINPad.obj
 0001:00000e94       ?GetCategoryMap@CComObjectRootBase@ATL@@SAPEBU_ATL_CATMAP_ENTRY@2@XZ 0000000180001e94 f i PINPad.obj
 0001:00000e94       ?SetHostNames@?$IOleObjectImpl@VCOPOSPINPad@@@ATL@@UEAAJPEB_W0@Z 0000000180001e94 f i PINPad.obj
 0001:00000e94       ?HandsOffStorage@?$IPersistStorageImpl@VCOPOSPINPad@@@ATL@@UEAAJXZ 0000000180001e94 f i PINPad.obj
 0001:00000e94       ?ResizeBorder@?$IOleInPlaceActiveObjectImpl@VCOPOSPINPad@@@ATL@@UEAAJPEBUtagRECT@@PEAUIOleInPlaceUIWindow@@H@Z 0000000180001e94 f i PINPad.obj
 0001:00000e94       ?Release@CRegObject@ATL@@UEAAKXZ 0000000180001e94 f i PINPad.obj
 0001:00000e94       ?GetObjectDescription@?$CComCoClass@VCOPOSPINPad@@$1?CLSID_OPOSPINPad@@3U_GUID@@B@ATL@@SAPEB_WXZ 0000000180001e94 f i PINPad.obj
 0001:00000e94       ?IsUpToDate@?$IOleObjectImpl@VCOPOSPINPad@@@ATL@@UEAAJXZ 0000000180001e94 f i PINPad.obj
 0001:00000e94       ?SaveCompleted@?$IPersistStorageImpl@VCOPOSPINPad@@@ATL@@UEAAJPEAUIStorage@@@Z 0000000180001e94 f i PINPad.obj
 0001:00000e98       ?SetClientSite@?$IOleObjectImpl@VCOPOSPINPad@@@ATL@@UEAAJPEAUIOleClientSite@@@Z 0000000180001e98 f i PINPad.obj
 0001:00000eb4       ?GetClientSite@?$IOleObjectImpl@VCOPOSPINPad@@@ATL@@UEAAJPEAPEAUIOleClientSite@@@Z 0000000180001eb4 f i PINPad.obj
 0001:00000efc       ?Close@?$IOleObjectImpl@VCOPOSPINPad@@@ATL@@UEAAJK@Z 0000000180001efc f i PINPad.obj
 0001:00000f18       ?DoVerb@?$IOleObjectImpl@VCOPOSPINPad@@@ATL@@UEAAJJPEAUtagMSG@@PEAUIOleClientSite@@JPEAUHWND__@@PEBUtagRECT@@@Z 0000000180001f18 f i PINPad.obj
 0001:000010bc       ?EnumVerbs@?$IOleObjectImpl@VCOPOSPINPad@@@ATL@@UEAAJPEAPEAUIEnumOLEVERB@@@Z 00000001800020bc f i PINPad.obj
 0001:000010d8       ?GetUserType@?$IOleObjectImpl@VCOPOSPINPad@@@ATL@@UEAAJKPEAPEA_W@Z 00000001800020d8 f i PINPad.obj
 0001:000010e8       ?SetExtent@?$IOleObjectImpl@VCOPOSPINPad@@@ATL@@UEAAJKPEAUtagSIZE@@@Z 00000001800020e8 f i PINPad.obj
 0001:00001104       ?GetExtent@?$IOleObjectImpl@VCOPOSPINPad@@@ATL@@UEAAJKPEAUtagSIZE@@@Z 0000000180002104 f i PINPad.obj
 0001:00001134       ?Advise@?$IOleObjectImpl@VCOPOSPINPad@@@ATL@@UEAAJPEAUIAdviseSink@@PEAK@Z 0000000180002134 f i PINPad.obj
 0001:00001190       ?Unadvise@?$IOleObjectImpl@VCOPOSPINPad@@@ATL@@UEAAJK@Z 0000000180002190 f i PINPad.obj
 0001:000011c8       ?EnumAdvise@?$IOleObjectImpl@VCOPOSPINPad@@@ATL@@UEAAJPEAPEAUIEnumSTATDATA@@@Z 00000001800021c8 f i PINPad.obj
 0001:00001210       ?GetMiscStatus@?$IOleObjectImpl@VCOPOSPINPad@@@ATL@@UEAAJKPEAK@Z 0000000180002210 f i PINPad.obj
 0001:00001220       ?GetWindow@?$IOleInPlaceActiveObjectImpl@VCOPOSPINPad@@@ATL@@UEAAJPEAPEAUHWND__@@@Z 0000000180002220 f i PINPad.obj
 0001:00001274       ?TranslateAcceleratorW@?$IOleInPlaceActiveObjectImpl@VCOPOSPINPad@@@ATL@@UEAAJPEAUtagMSG@@@Z 0000000180002274 f i PINPad.obj
 0001:00001368       ?OnDocWindowActivate@?$IOleInPlaceActiveObjectImpl@VCOPOSPINPad@@@ATL@@UEAAJH@Z 0000000180002368 f i PINPad.obj
 0001:00001394       ?Draw@?$IViewObjectExImpl@VCOPOSPINPad@@@ATL@@UEAAJKJPEAXPEAUtagDVTARGETDEVICE@@PEAUHDC__@@2PEBU_RECTL@@3P6AH_K@Z4@Z 0000000180002394 f i PINPad.obj
 0001:000013f8       ?SetAdvise@?$IViewObjectExImpl@VCOPOSPINPad@@@ATL@@UEAAJKKPEAUIAdviseSink@@@Z 00000001800023f8 f i PINPad.obj
 0001:0000144c       ?GetAdvise@?$IViewObjectExImpl@VCOPOSPINPad@@@ATL@@UEAAJPEAK0PEAPEAUIAdviseSink@@@Z 000000018000244c f i PINPad.obj
 0001:00001488       ?GetExtent@?$IViewObjectExImpl@VCOPOSPINPad@@@ATL@@UEAAJKJPEAUtagDVTARGETDEVICE@@PEAUtagSIZE@@@Z 0000000180002488 f i PINPad.obj
 0001:000014b8       ?GetViewStatus@?$IViewObjectExImpl@VCOPOSPINPad@@@ATL@@UEAAJPEAK@Z 00000001800024b8 f i PINPad.obj
 0001:000014cc       ?QueryHitPoint@?$IViewObjectExImpl@VCOPOSPINPad@@@ATL@@UEAAJKPEBUtagRECT@@UtagPOINT@@JPEAK@Z 00000001800024cc f i PINPad.obj
 0001:00001510       ?QueryHitRect@?$IViewObjectExImpl@VCOPOSPINPad@@@ATL@@UEAAJKPEBUtagRECT@@0JPEAK@Z 0000000180002510 f i PINPad.obj
 0001:00001578       ?GetNaturalExtent@?$IViewObjectExImpl@VCOPOSPINPad@@@ATL@@UEAAJKJPEAUtagDVTARGETDEVICE@@PEAUHDC__@@PEAUtagExtentInfo@@PEAUtagSIZE@@@Z 0000000180002578 f i PINPad.obj
 0001:000015c0       ?GetWindow@?$IOleInPlaceObjectWindowlessImpl@VCOPOSPINPad@@@ATL@@UEAAJPEAPEAUHWND__@@@Z 00000001800025c0 f i PINPad.obj
 0001:00001614       ?InPlaceDeactivate@?$IOleInPlaceObjectWindowlessImpl@VCOPOSPINPad@@@ATL@@UEAAJXZ 0000000180002614 f i PINPad.obj
 0001:00001630       ?UIDeactivate@?$IOleInPlaceObjectWindowlessImpl@VCOPOSPINPad@@@ATL@@UEAAJXZ 0000000180002630 f i PINPad.obj
 0001:0000164c       ?SetObjectRects@?$IOleInPlaceObjectWindowlessImpl@VCOPOSPINPad@@@ATL@@UEAAJPEBUtagRECT@@0@Z 000000018000264c f i PINPad.obj
 0001:00001668       ?OnWindowMessage@?$IOleInPlaceObjectWindowlessImpl@VCOPOSPINPad@@@ATL@@UEAAJI_K_JPEA_J@Z 0000000180002668 f i PINPad.obj
 0001:00001730       ?EnumConnectionPoints@?$IConnectionPointContainerImpl@VCOPOSPINPad@@@ATL@@UEAAJPEAPEAUIEnumConnectionPoints@@@Z 0000000180002730 f i PINPad.obj
 0001:0000197c       ?FindConnectionPoint@?$IConnectionPointContainerImpl@VCOPOSPINPad@@@ATL@@UEAAJAEBU_GUID@@PEAPEAUIConnectionPoint@@@Z 000000018000297c f i PINPad.obj
 0001:00001a4c       ?IsDirty@?$IPersistStorageImpl@VCOPOSPINPad@@@ATL@@UEAAJXZ 0000000180002a4c f i PINPad.obj
 0001:00001a8c       ?InitNew@?$IPersistStorageImpl@VCOPOSPINPad@@@ATL@@UEAAJPEAUIStorage@@@Z 0000000180002a8c f i PINPad.obj
 0001:00001acc       ?Load@?$IPersistStorageImpl@VCOPOSPINPad@@@ATL@@UEAAJPEAUIStorage@@@Z 0000000180002acc f i PINPad.obj
 0001:00001b6c       ?Save@?$IPersistStorageImpl@VCOPOSPINPad@@@ATL@@UEAAJPEAUIStorage@@H@Z 0000000180002b6c f i PINPad.obj
 0001:00001c1c       ?GetPages@?$ISpecifyPropertyPagesImpl@VCOPOSPINPad@@@ATL@@UEAAJPEAUtagCAUUID@@@Z 0000000180002c1c f i PINPad.obj
 0001:00001c28       ?QuickActivate@?$IQuickActivateImpl@VCOPOSPINPad@@@ATL@@UEAAJPEAUtagQACONTAINER@@PEAUtagQACONTROL@@@Z 0000000180002c28 f i PINPad.obj
 0001:00001c44       ?SetContentExtent@?$IQuickActivateImpl@VCOPOSPINPad@@@ATL@@UEAAJPEAUtagSIZE@@@Z 0000000180002c44 f i PINPad.obj
 0001:00001c78       ?GetContentExtent@?$IQuickActivateImpl@VCOPOSPINPad@@@ATL@@UEAAJPEAUtagSIZE@@@Z 0000000180002c78 f i PINPad.obj
 0001:00001cb0       ?GetData@?$IDataObjectImpl@VCOPOSPINPad@@@ATL@@UEAAJPEAUtagFORMATETC@@PEAUtagSTGMEDIUM@@@Z 0000000180002cb0 f i PINPad.obj
 0001:00001ccc       ?DAdvise@?$IDataObjectImpl@VCOPOSPINPad@@@ATL@@UEAAJPEAUtagFORMATETC@@KPEAUIAdviseSink@@PEAK@Z 0000000180002ccc f i PINPad.obj
 0001:00001d54       ?DUnadvise@?$IDataObjectImpl@VCOPOSPINPad@@@ATL@@UEAAJK@Z 0000000180002d54 f i PINPad.obj
 0001:00001d80       ?EnumDAdvise@?$IDataObjectImpl@VCOPOSPINPad@@@ATL@@UEAAJPEAPEAUIEnumSTATDATA@@@Z 0000000180002d80 f i PINPad.obj
 0001:00001dbc       ?GetClassInfoW@?$IProvideClassInfo2Impl@$1?CLSID_OPOSPINPad@@3U_GUID@@B$1?DIID__IOPOSPINPadEvents@@3U2@B$1?LIBID_OposPINPad_CCO@@3U2@B$00$0A@VCComTypeInfoHolder@ATL@@@ATL@@UEAAJPEAPEAUITypeInfo@@@Z 0000000180002dbc f i PINPad.obj
 0001:00001e14       ?GetGUID@?$IProvideClassInfo2Impl@$1?CLSID_OPOSPINPad@@3U_GUID@@B$1?DIID__IOPOSPINPadEvents@@3U2@B$1?LIBID_OposPINPad_CCO@@3U2@B$00$0A@VCComTypeInfoHolder@ATL@@@ATL@@UEAAJKPEAU_GUID@@@Z 0000000180002e14 f i PINPad.obj
 0001:00001e48       ?AddRef@CRegObject@ATL@@UEAAKXZ 0000000180002e48 f i PINPad.obj
 0001:00001e48       ?FAccessAllowed@?$IObjectSafetyImpl@VCOPOSPINPad@@$02@ATL@@MEAAHXZ 0000000180002e48 f i PINPad.obj
 0001:00001e48       _get_startup_argv_mode     0000000180002e48 f i LIBCMT:argv_mode.obj
 0001:00001e50       ?GetInterfaceSafetyOptions@?$IObjectSafetyImpl@VCOPOSPINPad@@$02@ATL@@UEAAJAEBU_GUID@@PEAK1@Z 0000000180002e50 f i PINPad.obj
 0001:00001ee4       ?SetInterfaceSafetyOptions@?$IObjectSafetyImpl@VCOPOSPINPad@@$02@ATL@@UEAAJAEBU_GUID@@KK@Z 0000000180002ee4 f i PINPad.obj
 0001:00001f88       ?_LocCPQueryInterface@?$IConnectionPointImpl@VCOPOSPINPad@@$1?IID_IPropertyNotifySink@@3U_GUID@@BVCComDynamicUnkArray@ATL@@@ATL@@UEAAJAEBU_GUID@@PEAPEAX@Z 0000000180002f88 f i PINPad.obj
 0001:00001f88       ?_LocCPQueryInterface@?$IConnectionPointImpl@VCOPOSPINPad@@$1?DIID__IOPOSPINPadEvents@@3U_GUID@@BVCComDynamicUnkArray@ATL@@@ATL@@UEAAJAEBU_GUID@@PEAPEAX@Z 0000000180002f88 f i PINPad.obj
 0001:00001ff8       ?GetConnectionInterface@?$IConnectionPointImpl@VCOPOSPINPad@@$1?IID_IPropertyNotifySink@@3U_GUID@@BVCComDynamicUnkArray@ATL@@@ATL@@UEAAJPEAU_GUID@@@Z 0000000180002ff8 f i PINPad.obj
 0001:00002014       ?GetConnectionPointContainer@?$IConnectionPointImpl@VCOPOSPINPad@@$1?IID_IPropertyNotifySink@@3U_GUID@@BVCComDynamicUnkArray@ATL@@@ATL@@UEAAJPEAPEAUIConnectionPointContainer@@@Z 0000000180003014 f i PINPad.obj
 0001:00002034       ?Advise@?$IConnectionPointImpl@VCOPOSPINPad@@$1?DIID__IOPOSPINPadEvents@@3U_GUID@@BVCComDynamicUnkArray@ATL@@@ATL@@UEAAJPEAUIUnknown@@PEAK@Z 0000000180003034 f i PINPad.obj
 0001:00002034       ?Advise@?$IConnectionPointImpl@VCOPOSPINPad@@$1?IID_IPropertyNotifySink@@3U_GUID@@BVCComDynamicUnkArray@ATL@@@ATL@@UEAAJPEAUIUnknown@@PEAK@Z 0000000180003034 f i PINPad.obj
 0001:000020f0       ?Unadvise@?$IConnectionPointImpl@VCOPOSPINPad@@$1?IID_IPropertyNotifySink@@3U_GUID@@BVCComDynamicUnkArray@ATL@@@ATL@@UEAAJK@Z 00000001800030f0 f i PINPad.obj
 0001:000020f0       ?Unadvise@?$IConnectionPointImpl@VCOPOSPINPad@@$1?DIID__IOPOSPINPadEvents@@3U_GUID@@BVCComDynamicUnkArray@ATL@@@ATL@@UEAAJK@Z 00000001800030f0 f i PINPad.obj
 0001:00002158       ?EnumConnections@?$IConnectionPointImpl@VCOPOSPINPad@@$1?DIID__IOPOSPINPadEvents@@3U_GUID@@BVCComDynamicUnkArray@ATL@@@ATL@@UEAAJPEAPEAUIEnumConnections@@@Z 0000000180003158 f i PINPad.obj
 0001:00002158       ?EnumConnections@?$IConnectionPointImpl@VCOPOSPINPad@@$1?IID_IPropertyNotifySink@@3U_GUID@@BVCComDynamicUnkArray@ATL@@@ATL@@UEAAJPEAPEAUIEnumConnections@@@Z 0000000180003158 f i PINPad.obj
 0001:00002304       ?GetConnectionInterface@?$IConnectionPointImpl@VCOPOSPINPad@@$1?DIID__IOPOSPINPadEvents@@3U_GUID@@BVCComDynamicUnkArray@ATL@@@ATL@@UEAAJPEAU_GUID@@@Z 0000000180003304 f i PINPad.obj
 0001:00002320       ?GetConnectionPointContainer@?$IConnectionPointImpl@VCOPOSPINPad@@$1?DIID__IOPOSPINPadEvents@@3U_GUID@@BVCComDynamicUnkArray@ATL@@@ATL@@UEAAJPEAPEAUIConnectionPointContainer@@@Z 0000000180003320 f i PINPad.obj
 0001:00002340       ?UpdateRegistry@COPOSPINPad@@SAJH@Z 0000000180003340 f i PINPad.obj
 0001:00002358       ?ProcessWindowMessage@COPOSPINPad@@UEAAHPEAUHWND__@@I_K_JAEA_JK@Z 0000000180003358 f i PINPad.obj
 0001:000023e0       ?SOData@COPOSPINPad@@MEAAJJ@Z 00000001800033e0 f i PINPad.obj
 0001:00002430       ?SODirectIO@COPOSPINPad@@MEAAJJPEAJPEAPEA_W@Z 0000000180003430 f i PINPad.obj
 0001:000024a8       ?SOError@COPOSPINPad@@MEAAJJJJPEAJ@Z 00000001800034a8 f i PINPad.obj
 0001:00002530       ?SOStatusUpdate@COPOSPINPad@@MEAAJJ@Z 0000000180003530 f i PINPad.obj
 0001:00002580       ?Lock@CAtlModule@ATL@@UEAAJXZ 0000000180003580 f i PINPad.obj
 0001:00002590       ?Unlock@CAtlModule@ATL@@UEAAJXZ 0000000180003590 f i PINPad.obj
 0001:0000259c       ?GetLockCount@CAtlModule@ATL@@UEAAJXZ 000000018000359c f i PINPad.obj
 0001:000025a0       ?GetGITPtr@CAtlModule@ATL@@UEAAJPEAPEAUIGlobalInterfaceTable@@@Z 00000001800035a0 f i PINPad.obj
 0001:00002610       ?AddCommonRGSReplacements@?$CAtlModuleT@VCComModule@ATL@@@ATL@@UEAAJPEAUIRegistrarBase@@@Z 0000000180003610 f i PINPad.obj
 0001:00002628       ?UpdateRegistryFromResourceD@CComModule@ATL@@UEAAJPEB_WHPEAU_ATL_REGMAP_ENTRY@2@@Z 0000000180003628 f i PINPad.obj
 0001:00002628       ?UpdateRegistryFromResourceD@CComModule@ATL@@UEAAJIHPEAU_ATL_REGMAP_ENTRY@2@@Z 0000000180003628 f i PINPad.obj
 0001:00002630       ?UpdateRegistryFromResource@CComModule@ATL@@UEAAJPEB_WHPEAU_ATL_REGMAP_ENTRY@2@@Z 0000000180003630 f i PINPad.obj
 0001:00002638       ?UpdateRegistryFromResource@CComModule@ATL@@UEAAJIHPEAU_ATL_REGMAP_ENTRY@2@@Z 0000000180003638 f i PINPad.obj
 0001:00002640       ?CreateInstance@?$CComCreator@V?$CComObjectCached@VCComClassFactory@ATL@@@ATL@@@ATL@@SAJPEAXAEBU_GUID@@PEAPEAX@Z 0000000180003640 f i PINPad.obj
 0001:00002764       ?CreateInstance@?$CComCreator2@V?$CComCreator@V?$CComObject@VCOPOSPINPad@@@ATL@@@ATL@@V?$CComCreator@V?$CComAggObject@VCOPOSPINPad@@@ATL@@@2@@ATL@@SAJPEAXAEBU_GUID@@PEAPEAX@Z 0000000180003764 f i PINPad.obj
 0001:00002774       ??_ECComModule@ATL@@UEAAPEAXI@Z 0000000180003774 f i PINPad.obj
 0001:00002774       ??_GCComModule@ATL@@UEAAPEAXI@Z 0000000180003774 f i PINPad.obj
 0001:000027b4       ?AddRef@?$CComObjectCached@VCComClassFactory@ATL@@@ATL@@UEAAKXZ 00000001800037b4 f i PINPad.obj
 0001:000027e0       ?Release@?$CComObjectCached@VCComClassFactory@ATL@@@ATL@@UEAAKXZ 00000001800037e0 f i PINPad.obj
 0001:00002820       ?QueryInterface@?$CComObjectCached@VCComClassFactory@ATL@@@ATL@@UEAAJAEBU_GUID@@PEAPEAX@Z 0000000180003820 f i PINPad.obj
 0001:00002834       ??_E?$CComObjectCached@VCComClassFactory@ATL@@@ATL@@UEAAPEAXI@Z 0000000180003834 f i PINPad.obj
 0001:00002834       ??_G?$CComObjectCached@VCComClassFactory@ATL@@@ATL@@UEAAPEAXI@Z 0000000180003834 f i PINPad.obj
 0001:0000288c       ?Next@?$CComEnumImpl@UIEnumConnectionPoints@@$1?_GUID_b196b285_bab4_101a_b69c_00aa00341d07@@3U__s_GUID@@BPEAUIConnectionPoint@@V?$_CopyInterface@UIConnectionPoint@@@ATL@@@ATL@@UEAAJKPEAPEAUIConnectionPoint@@PEAK@Z 000000018000388c f i PINPad.obj
 0001:00002958       ?Skip@?$CComEnumImpl@UIEnumConnectionPoints@@$1?_GUID_b196b285_bab4_101a_b69c_00aa00341d07@@3U__s_GUID@@BPEAUIConnectionPoint@@V?$_CopyInterface@UIConnectionPoint@@@ATL@@@ATL@@UEAAJK@Z 0000000180003958 f i PINPad.obj
 0001:00002984       ?Reset@?$CComEnumImpl@UIEnumConnectionPoints@@$1?_GUID_b196b285_bab4_101a_b69c_00aa00341d07@@3U__s_GUID@@BPEAUIConnectionPoint@@V?$_CopyInterface@UIConnectionPoint@@@ATL@@@ATL@@UEAAJXZ 0000000180003984 f i PINPad.obj
 0001:00002984       ?Reset@?$CComEnumImpl@UIEnumConnections@@$1?_GUID_b196b287_bab4_101a_b69c_00aa00341d07@@3U__s_GUID@@BUtagCONNECTDATA@@V?$_Copy@UtagCONNECTDATA@@@ATL@@@ATL@@UEAAJXZ 0000000180003984 f i PINPad.obj
 0001:00002990       ?Clone@?$CComEnumImpl@UIEnumConnectionPoints@@$1?_GUID_b196b285_bab4_101a_b69c_00aa00341d07@@3U__s_GUID@@BPEAUIConnectionPoint@@V?$_CopyInterface@UIConnectionPoint@@@ATL@@@ATL@@UEAAJPEAPEAUIEnumConnectionPoints@@@Z 0000000180003990 f i PINPad.obj
 0001:00002abc       ?AddRef@?$CComObject@V?$CComEnum@UIEnumConnections@@$1?_GUID_b196b287_bab4_101a_b69c_00aa00341d07@@3U__s_GUID@@BUtagCONNECTDATA@@V?$_Copy@UtagCONNECTDATA@@@ATL@@VCComSingleThreadModel@6@@ATL@@@ATL@@UEAAKXZ 0000000180003abc f i PINPad.obj
 0001:00002abc       ?AddRef@?$CComObject@V?$CComEnum@UIEnumConnectionPoints@@$1?_GUID_b196b285_bab4_101a_b69c_00aa00341d07@@3U__s_GUID@@BPEAUIConnectionPoint@@V?$_CopyInterface@UIConnectionPoint@@@ATL@@VCComSingleThreadModel@6@@ATL@@@ATL@@UEAAKXZ 0000000180003abc f i PINPad.obj
 0001:00002ac8       ?Release@?$CComObject@V?$CComEnum@UIEnumConnectionPoints@@$1?_GUID_b196b285_bab4_101a_b69c_00aa00341d07@@3U__s_GUID@@BPEAUIConnectionPoint@@V?$_CopyInterface@UIConnectionPoint@@@ATL@@VCComSingleThreadModel@6@@ATL@@@ATL@@UEAAKXZ 0000000180003ac8 f i PINPad.obj
 0001:00002ac8       ?Release@?$CComObject@V?$CComEnum@UIEnumConnections@@$1?_GUID_b196b287_bab4_101a_b69c_00aa00341d07@@3U__s_GUID@@BUtagCONNECTDATA@@V?$_Copy@UtagCONNECTDATA@@@ATL@@VCComSingleThreadModel@6@@ATL@@@ATL@@UEAAKXZ 0000000180003ac8 f i PINPad.obj
 0001:00002b1c       ?QueryInterface@?$CComObject@V?$CComEnum@UIEnumConnectionPoints@@$1?_GUID_b196b285_bab4_101a_b69c_00aa00341d07@@3U__s_GUID@@BPEAUIConnectionPoint@@V?$_CopyInterface@UIConnectionPoint@@@ATL@@VCComSingleThreadModel@6@@ATL@@@ATL@@UEAAJAEBU_GUID@@PEAPEAX@Z 0000000180003b1c f i PINPad.obj
 0001:00002b30       ??_E?$CComObject@V?$CComEnum@UIEnumConnectionPoints@@$1?_GUID_b196b285_bab4_101a_b69c_00aa00341d07@@3U__s_GUID@@BPEAUIConnectionPoint@@V?$_CopyInterface@UIConnectionPoint@@@ATL@@VCComSingleThreadModel@6@@ATL@@@ATL@@UEAAPEAXI@Z 0000000180003b30 f i PINPad.obj
 0001:00002b30       ??_G?$CComObject@V?$CComEnum@UIEnumConnectionPoints@@$1?_GUID_b196b285_bab4_101a_b69c_00aa00341d07@@3U__s_GUID@@BPEAUIConnectionPoint@@V?$_CopyInterface@UIConnectionPoint@@@ATL@@VCComSingleThreadModel@6@@ATL@@@ATL@@UEAAPEAXI@Z 0000000180003b30 f i PINPad.obj
 0001:00002b88       ?AddReplacement@CRegObject@ATL@@UEAAJPEB_W0@Z 0000000180003b88 f i PINPad.obj
 0001:00002bb8       ?ClearReplacements@CRegObject@ATL@@UEAAJXZ 0000000180003bb8 f i PINPad.obj
 0001:00002bc4       ??_ECRegObject@ATL@@UEAAPEAXI@Z 0000000180003bc4 f i PINPad.obj
 0001:00002bc4       ??_GCRegObject@ATL@@UEAAPEAXI@Z 0000000180003bc4 f i PINPad.obj
 0001:00002c44       ?AddRef@?$CComAggObject@VCOPOSPINPad@@@ATL@@UEAAKXZ 0000000180003c44 f i PINPad.obj
 0001:00002c50       ?Release@?$CComAggObject@VCOPOSPINPad@@@ATL@@UEAAKXZ 0000000180003c50 f i PINPad.obj
 0001:00002ca4       ?QueryInterface@?$CComAggObject@VCOPOSPINPad@@@ATL@@UEAAJAEBU_GUID@@PEAPEAX@Z 0000000180003ca4 f i PINPad.obj
 0001:00002d04       ?AddRef@?$CComContainedObject@VCOPOSPINPad@@@ATL@@UEAAKXZ 0000000180003d04 f i PINPad.obj
 0001:00002d14       ?Release@?$CComContainedObject@VCOPOSPINPad@@@ATL@@UEAAKXZ 0000000180003d14 f i PINPad.obj
 0001:00002d24       ?QueryInterface@?$CComContainedObject@VCOPOSPINPad@@@ATL@@UEAAJAEBU_GUID@@PEAPEAX@Z 0000000180003d24 f i PINPad.obj
 0001:00002d34       ??_G?$CComAggObject@VCOPOSPINPad@@@ATL@@UEAAPEAXI@Z 0000000180003d34 f i PINPad.obj
 0001:00002d34       ??_E?$CComAggObject@VCOPOSPINPad@@@ATL@@UEAAPEAXI@Z 0000000180003d34 f i PINPad.obj
 0001:00002d8c       ?AddRef@?$CComObject@VCOPOSPINPad@@@ATL@@UEAAKXZ 0000000180003d8c f i PINPad.obj
 0001:00002d9c       ?Release@?$CComObject@VCOPOSPINPad@@@ATL@@UEAAKXZ 0000000180003d9c f i PINPad.obj
 0001:00002df4       ?QueryInterface@?$CComObject@VCOPOSPINPad@@@ATL@@UEAAJAEBU_GUID@@PEAPEAX@Z 0000000180003df4 f i PINPad.obj
 0001:00002e08       ?OnDrawAdvanced@CComControlBase@ATL@@UEAAJAEAUATL_DRAWINFO@@@Z 0000000180003e08 f i PINPad.obj
 0001:00002f94       ?Next@?$CComEnumImpl@UIEnumConnections@@$1?_GUID_b196b287_bab4_101a_b69c_00aa00341d07@@3U__s_GUID@@BUtagCONNECTDATA@@V?$_Copy@UtagCONNECTDATA@@@ATL@@@ATL@@UEAAJKPEAUtagCONNECTDATA@@PEAK@Z 0000000180003f94 f i PINPad.obj
 0001:00003068       ?Skip@?$CComEnumImpl@UIEnumConnections@@$1?_GUID_b196b287_bab4_101a_b69c_00aa00341d07@@3U__s_GUID@@BUtagCONNECTDATA@@V?$_Copy@UtagCONNECTDATA@@@ATL@@@ATL@@UEAAJK@Z 0000000180004068 f i PINPad.obj
 0001:00003094       ?Clone@?$CComEnumImpl@UIEnumConnections@@$1?_GUID_b196b287_bab4_101a_b69c_00aa00341d07@@3U__s_GUID@@BUtagCONNECTDATA@@V?$_Copy@UtagCONNECTDATA@@@ATL@@@ATL@@UEAAJPEAPEAUIEnumConnections@@@Z 0000000180004094 f i PINPad.obj
 0001:000031c0       ?QueryInterface@?$CComObject@V?$CComEnum@UIEnumConnections@@$1?_GUID_b196b287_bab4_101a_b69c_00aa00341d07@@3U__s_GUID@@BUtagCONNECTDATA@@V?$_Copy@UtagCONNECTDATA@@@ATL@@VCComSingleThreadModel@6@@ATL@@@ATL@@UEAAJAEBU_GUID@@PEAPEAX@Z 00000001800041c0 f i PINPad.obj
 0001:000031d4       ??_G?$CComObject@V?$CComEnum@UIEnumConnections@@$1?_GUID_b196b287_bab4_101a_b69c_00aa00341d07@@3U__s_GUID@@BUtagCONNECTDATA@@V?$_Copy@UtagCONNECTDATA@@@ATL@@VCComSingleThreadModel@6@@ATL@@@ATL@@UEAAPEAXI@Z 00000001800041d4 f i PINPad.obj
 0001:000031d4       ??_E?$CComObject@V?$CComEnum@UIEnumConnections@@$1?_GUID_b196b287_bab4_101a_b69c_00aa00341d07@@3U__s_GUID@@BUtagCONNECTDATA@@V?$_Copy@UtagCONNECTDATA@@@ATL@@VCComSingleThreadModel@6@@ATL@@@ATL@@UEAAPEAXI@Z 00000001800041d4 f i PINPad.obj
 0001:0000322c       ??_E?$CComObject@VCOPOSPINPad@@@ATL@@W7EAAPEAXI@Z 000000018000422c f i PINPad.obj
 0001:00003238       ??_E?$CComObject@VCOPOSPINPad@@@ATL@@WHA@EAAPEAXI@Z 0000000180004238 f i PINPad.obj
 0001:00003244       ?QueryInterface@?$CComObject@VCOPOSPINPad@@@ATL@@WLI@EAAJAEBU_GUID@@PEAPEAX@Z 0000000180004244 f i PINPad.obj
 0001:00003250       ?AddRef@?$CComObject@VCOPOSPINPad@@@ATL@@WLI@EAAKXZ 0000000180004250 f i PINPad.obj
 0001:0000325c       ?Release@?$CComObject@VCOPOSPINPad@@@ATL@@WLI@EAAKXZ 000000018000425c f i PINPad.obj
 0001:00003268       ?QueryInterface@?$CComObject@VCOPOSPINPad@@@ATL@@WMA@EAAJAEBU_GUID@@PEAPEAX@Z 0000000180004268 f i PINPad.obj
 0001:00003274       ?AddRef@?$CComObject@VCOPOSPINPad@@@ATL@@WMA@EAAKXZ 0000000180004274 f i PINPad.obj
 0001:00003280       ?Release@?$CComObject@VCOPOSPINPad@@@ATL@@WMA@EAAKXZ 0000000180004280 f i PINPad.obj
 0001:0000328c       ?QueryInterface@?$CComObject@VCOPOSPINPad@@@ATL@@WMI@EAAJAEBU_GUID@@PEAPEAX@Z 000000018000428c f i PINPad.obj
 0001:00003298       ?AddRef@?$CComObject@VCOPOSPINPad@@@ATL@@WMI@EAAKXZ 0000000180004298 f i PINPad.obj
 0001:000032a4       ?Release@?$CComObject@VCOPOSPINPad@@@ATL@@WMI@EAAKXZ 00000001800042a4 f i PINPad.obj
 0001:000032b0       ?QueryInterface@?$CComObject@VCOPOSPINPad@@@ATL@@WNA@EAAJAEBU_GUID@@PEAPEAX@Z 00000001800042b0 f i PINPad.obj
 0001:000032bc       ?AddRef@?$CComObject@VCOPOSPINPad@@@ATL@@WNA@EAAKXZ 00000001800042bc f i PINPad.obj
 0001:000032c8       ?Release@?$CComObject@VCOPOSPINPad@@@ATL@@WNA@EAAKXZ 00000001800042c8 f i PINPad.obj
 0001:000032d4       ?QueryInterface@?$CComObject@VCOPOSPINPad@@@ATL@@WNI@EAAJAEBU_GUID@@PEAPEAX@Z 00000001800042d4 f i PINPad.obj
 0001:000032e0       ?AddRef@?$CComObject@VCOPOSPINPad@@@ATL@@WNI@EAAKXZ 00000001800042e0 f i PINPad.obj
 0001:000032ec       ?Release@?$CComObject@VCOPOSPINPad@@@ATL@@WNI@EAAKXZ 00000001800042ec f i PINPad.obj
 0001:000032f8       ?QueryInterface@?$CComObject@VCOPOSPINPad@@@ATL@@WOA@EAAJAEBU_GUID@@PEAPEAX@Z 00000001800042f8 f i PINPad.obj
 0001:00003304       ?AddRef@?$CComObject@VCOPOSPINPad@@@ATL@@WOA@EAAKXZ 0000000180004304 f i PINPad.obj
 0001:00003310       ?Release@?$CComObject@VCOPOSPINPad@@@ATL@@WOA@EAAKXZ 0000000180004310 f i PINPad.obj
 0001:0000331c       ?QueryInterface@?$CComObject@VCOPOSPINPad@@@ATL@@WOI@EAAJAEBU_GUID@@PEAPEAX@Z 000000018000431c f i PINPad.obj
 0001:00003328       ?AddRef@?$CComObject@VCOPOSPINPad@@@ATL@@WOI@EAAKXZ 0000000180004328 f i PINPad.obj
 0001:00003334       ?Release@?$CComObject@VCOPOSPINPad@@@ATL@@WOI@EAAKXZ 0000000180004334 f i PINPad.obj
 0001:00003340       ?QueryInterface@?$CComObject@VCOPOSPINPad@@@ATL@@WPA@EAAJAEBU_GUID@@PEAPEAX@Z 0000000180004340 f i PINPad.obj
 0001:0000334c       ?AddRef@?$CComObject@VCOPOSPINPad@@@ATL@@WPA@EAAKXZ 000000018000434c f i PINPad.obj
 0001:00003358       ?Release@?$CComObject@VCOPOSPINPad@@@ATL@@WPA@EAAKXZ 0000000180004358 f i PINPad.obj
 0001:00003364       ?QueryInterface@?$CComObject@VCOPOSPINPad@@@ATL@@WPI@EAAJAEBU_GUID@@PEAPEAX@Z 0000000180004364 f i PINPad.obj
 0001:00003370       ?AddRef@?$CComObject@VCOPOSPINPad@@@ATL@@WPI@EAAKXZ 0000000180004370 f i PINPad.obj
 0001:0000337c       ?Release@?$CComObject@VCOPOSPINPad@@@ATL@@WPI@EAAKXZ 000000018000437c f i PINPad.obj
 0001:00003388       ?QueryInterface@?$CComObject@VCOPOSPINPad@@@ATL@@WBAA@EAAJAEBU_GUID@@PEAPEAX@Z 0000000180004388 f i PINPad.obj
 0001:00003394       ?AddRef@?$CComObject@VCOPOSPINPad@@@ATL@@WBAA@EAAKXZ 0000000180004394 f i PINPad.obj
 0001:000033a0       ?Release@?$CComObject@VCOPOSPINPad@@@ATL@@WBAA@EAAKXZ 00000001800043a0 f i PINPad.obj
 0001:000033ac       ?QueryInterface@?$CComObject@VCOPOSPINPad@@@ATL@@WBAI@EAAJAEBU_GUID@@PEAPEAX@Z 00000001800043ac f i PINPad.obj
 0001:000033b8       ?AddRef@?$CComObject@VCOPOSPINPad@@@ATL@@WBAI@EAAKXZ 00000001800043b8 f i PINPad.obj
 0001:000033c4       ?Release@?$CComObject@VCOPOSPINPad@@@ATL@@WBAI@EAAKXZ 00000001800043c4 f i PINPad.obj
 0001:000033d0       ?QueryInterface@?$CComObject@VCOPOSPINPad@@@ATL@@WBBA@EAAJAEBU_GUID@@PEAPEAX@Z 00000001800043d0 f i PINPad.obj
 0001:000033dc       ?AddRef@?$CComObject@VCOPOSPINPad@@@ATL@@WBBA@EAAKXZ 00000001800043dc f i PINPad.obj
 0001:000033e8       ?Release@?$CComObject@VCOPOSPINPad@@@ATL@@WBBA@EAAKXZ 00000001800043e8 f i PINPad.obj
 0001:000033f4       ?QueryInterface@?$CComObject@VCOPOSPINPad@@@ATL@@WBBI@EAAJAEBU_GUID@@PEAPEAX@Z 00000001800043f4 f i PINPad.obj
 0001:00003400       ?AddRef@?$CComObject@VCOPOSPINPad@@@ATL@@WBBI@EAAKXZ 0000000180004400 f i PINPad.obj
 0001:0000340c       ?Release@?$CComObject@VCOPOSPINPad@@@ATL@@WBBI@EAAKXZ 000000018000440c f i PINPad.obj
 0001:00003418       ?AddRef@?$CComObject@VCOPOSPINPad@@@ATL@@WBCI@EAAKXZ 0000000180004418 f i PINPad.obj
 0001:00003424       ?Release@?$CComObject@VCOPOSPINPad@@@ATL@@WBCI@EAAKXZ 0000000180004424 f i PINPad.obj
 0001:00003430       ?AddRef@?$CComObject@VCOPOSPINPad@@@ATL@@WBEA@EAAKXZ 0000000180004430 f i PINPad.obj
 0001:0000343c       ?Release@?$CComObject@VCOPOSPINPad@@@ATL@@WBEA@EAAKXZ 000000018000443c f i PINPad.obj
 0001:00003448       ??_E?$CComContainedObject@VCOPOSPINPad@@@ATL@@W7EAAPEAXI@Z 0000000180004448 f i PINPad.obj
 0001:00003454       ??_E?$CComContainedObject@VCOPOSPINPad@@@ATL@@WHA@EAAPEAXI@Z 0000000180004454 f i PINPad.obj
 0001:00003460       ?QueryInterface@?$CComContainedObject@VCOPOSPINPad@@@ATL@@WLI@EAAJAEBU_GUID@@PEAPEAX@Z 0000000180004460 f i PINPad.obj
 0001:0000346c       ?AddRef@?$CComContainedObject@VCOPOSPINPad@@@ATL@@WLI@EAAKXZ 000000018000446c f i PINPad.obj
 0001:00003478       ?Release@?$CComContainedObject@VCOPOSPINPad@@@ATL@@WLI@EAAKXZ 0000000180004478 f i PINPad.obj
 0001:00003484       ?QueryInterface@?$CComContainedObject@VCOPOSPINPad@@@ATL@@WMA@EAAJAEBU_GUID@@PEAPEAX@Z 0000000180004484 f i PINPad.obj
 0001:00003490       ?AddRef@?$CComContainedObject@VCOPOSPINPad@@@ATL@@WMA@EAAKXZ 0000000180004490 f i PINPad.obj
 0001:0000349c       ?Release@?$CComContainedObject@VCOPOSPINPad@@@ATL@@WMA@EAAKXZ 000000018000449c f i PINPad.obj
 0001:000034a8       ?QueryInterface@?$CComContainedObject@VCOPOSPINPad@@@ATL@@WMI@EAAJAEBU_GUID@@PEAPEAX@Z 00000001800044a8 f i PINPad.obj
 0001:000034b4       ?AddRef@?$CComContainedObject@VCOPOSPINPad@@@ATL@@WMI@EAAKXZ 00000001800044b4 f i PINPad.obj
 0001:000034c0       ?Release@?$CComContainedObject@VCOPOSPINPad@@@ATL@@WMI@EAAKXZ 00000001800044c0 f i PINPad.obj
 0001:000034cc       ?QueryInterface@?$CComContainedObject@VCOPOSPINPad@@@ATL@@WNA@EAAJAEBU_GUID@@PEAPEAX@Z 00000001800044cc f i PINPad.obj
 0001:000034d8       ?AddRef@?$CComContainedObject@VCOPOSPINPad@@@ATL@@WNA@EAAKXZ 00000001800044d8 f i PINPad.obj
 0001:000034e4       ?Release@?$CComContainedObject@VCOPOSPINPad@@@ATL@@WNA@EAAKXZ 00000001800044e4 f i PINPad.obj
 0001:000034f0       ?QueryInterface@?$CComContainedObject@VCOPOSPINPad@@@ATL@@WNI@EAAJAEBU_GUID@@PEAPEAX@Z 00000001800044f0 f i PINPad.obj
 0001:000034fc       ?AddRef@?$CComContainedObject@VCOPOSPINPad@@@ATL@@WNI@EAAKXZ 00000001800044fc f i PINPad.obj
 0001:00003508       ?Release@?$CComContainedObject@VCOPOSPINPad@@@ATL@@WNI@EAAKXZ 0000000180004508 f i PINPad.obj
 0001:00003514       ?QueryInterface@?$CComContainedObject@VCOPOSPINPad@@@ATL@@WOA@EAAJAEBU_GUID@@PEAPEAX@Z 0000000180004514 f i PINPad.obj
 0001:00003520       ?AddRef@?$CComContainedObject@VCOPOSPINPad@@@ATL@@WOA@EAAKXZ 0000000180004520 f i PINPad.obj
 0001:0000352c       ?Release@?$CComContainedObject@VCOPOSPINPad@@@ATL@@WOA@EAAKXZ 000000018000452c f i PINPad.obj
 0001:00003538       ?QueryInterface@?$CComContainedObject@VCOPOSPINPad@@@ATL@@WOI@EAAJAEBU_GUID@@PEAPEAX@Z 0000000180004538 f i PINPad.obj
 0001:00003544       ?AddRef@?$CComContainedObject@VCOPOSPINPad@@@ATL@@WOI@EAAKXZ 0000000180004544 f i PINPad.obj
 0001:00003550       ?Release@?$CComContainedObject@VCOPOSPINPad@@@ATL@@WOI@EAAKXZ 0000000180004550 f i PINPad.obj
 0001:0000355c       ?QueryInterface@?$CComContainedObject@VCOPOSPINPad@@@ATL@@WPA@EAAJAEBU_GUID@@PEAPEAX@Z 000000018000455c f i PINPad.obj
 0001:00003568       ?AddRef@?$CComContainedObject@VCOPOSPINPad@@@ATL@@WPA@EAAKXZ 0000000180004568 f i PINPad.obj
 0001:00003574       ?Release@?$CComContainedObject@VCOPOSPINPad@@@ATL@@WPA@EAAKXZ 0000000180004574 f i PINPad.obj
 0001:00003580       ?QueryInterface@?$CComContainedObject@VCOPOSPINPad@@@ATL@@WPI@EAAJAEBU_GUID@@PEAPEAX@Z 0000000180004580 f i PINPad.obj
 0001:0000358c       ?AddRef@?$CComContainedObject@VCOPOSPINPad@@@ATL@@WPI@EAAKXZ 000000018000458c f i PINPad.obj
 0001:00003598       ?Release@?$CComContainedObject@VCOPOSPINPad@@@ATL@@WPI@EAAKXZ 0000000180004598 f i PINPad.obj
 0001:000035a4       ?QueryInterface@?$CComContainedObject@VCOPOSPINPad@@@ATL@@WBAA@EAAJAEBU_GUID@@PEAPEAX@Z 00000001800045a4 f i PINPad.obj
 0001:000035b0       ?AddRef@?$CComContainedObject@VCOPOSPINPad@@@ATL@@WBAA@EAAKXZ 00000001800045b0 f i PINPad.obj
 0001:000035bc       ?Release@?$CComContainedObject@VCOPOSPINPad@@@ATL@@WBAA@EAAKXZ 00000001800045bc f i PINPad.obj
 0001:000035c8       ?QueryInterface@?$CComContainedObject@VCOPOSPINPad@@@ATL@@WBAI@EAAJAEBU_GUID@@PEAPEAX@Z 00000001800045c8 f i PINPad.obj
 0001:000035d4       ?AddRef@?$CComContainedObject@VCOPOSPINPad@@@ATL@@WBAI@EAAKXZ 00000001800045d4 f i PINPad.obj
 0001:000035e0       ?Release@?$CComContainedObject@VCOPOSPINPad@@@ATL@@WBAI@EAAKXZ 00000001800045e0 f i PINPad.obj
 0001:000035ec       ?QueryInterface@?$CComContainedObject@VCOPOSPINPad@@@ATL@@WBBA@EAAJAEBU_GUID@@PEAPEAX@Z 00000001800045ec f i PINPad.obj
 0001:000035f8       ?AddRef@?$CComContainedObject@VCOPOSPINPad@@@ATL@@WBBA@EAAKXZ 00000001800045f8 f i PINPad.obj
 0001:00003604       ?Release@?$CComContainedObject@VCOPOSPINPad@@@ATL@@WBBA@EAAKXZ 0000000180004604 f i PINPad.obj
 0001:00003610       ?QueryInterface@?$CComContainedObject@VCOPOSPINPad@@@ATL@@WBBI@EAAJAEBU_GUID@@PEAPEAX@Z 0000000180004610 f i PINPad.obj
 0001:0000361c       ?AddRef@?$CComContainedObject@VCOPOSPINPad@@@ATL@@WBBI@EAAKXZ 000000018000461c f i PINPad.obj
 0001:00003628       ?Release@?$CComContainedObject@VCOPOSPINPad@@@ATL@@WBBI@EAAKXZ 0000000180004628 f i PINPad.obj
 0001:00003634       ?AddRef@?$CComContainedObject@VCOPOSPINPad@@@ATL@@WBCI@EAAKXZ 0000000180004634 f i PINPad.obj
 0001:00003640       ?Release@?$CComContainedObject@VCOPOSPINPad@@@ATL@@WBCI@EAAKXZ 0000000180004640 f i PINPad.obj
 0001:0000364c       ?AddRef@?$CComContainedObject@VCOPOSPINPad@@@ATL@@WBEA@EAAKXZ 000000018000464c f i PINPad.obj
 0001:00003658       ?Release@?$CComContainedObject@VCOPOSPINPad@@@ATL@@WBEA@EAAKXZ 0000000180004658 f i PINPad.obj
 0001:00003664       ?CreateInstance@CComClassFactory@ATL@@UEAAJPEAUIUnknown@@AEBU_GUID@@PEAPEAX@Z 0000000180004664 f i PINPad.obj
 0001:000036c4       ?LockServer@CComClassFactory@ATL@@UEAAJH@Z 00000001800046c4 f i PINPad.obj
 0001:000036e8       ??_GCComClassFactory@ATL@@UEAAPEAXI@Z 00000001800046e8 f i PINPad.obj
 0001:000036e8       ??_ECComClassFactory@ATL@@UEAAPEAXI@Z 00000001800046e8 f i PINPad.obj
 0001:00003738       ??$AtlModuleRegisterWndClassInfoT@VAtlModuleRegisterWndClassInfoParamW@ATL@@@ATL@@YAGPEAU_ATL_BASE_MODULE70@0@PEAU_ATL_WIN_MODULE70@0@PEAU_ATL_WNDCLASSINFOW@0@PEAP6A_JPEAUHWND__@@I_K_J@ZVAtlModuleRegisterWndClassInfoParamW@0@@Z 0000000180004738 f i PINPad.obj
 0001:00003938       ??0?$CComContainedObject@VCOPOSPINPad@@@ATL@@QEAA@PEAX@Z 0000000180004938 f i PINPad.obj
 0001:00003a54       ??0?$CComObject@VCOPOSPINPad@@@ATL@@QEAA@PEAX@Z 0000000180004a54 f i PINPad.obj
 0001:00003b6c       ??0CAtlModule@ATL@@QEAA@XZ 0000000180004b6c f i PINPad.obj
 0001:00003be0       ??1?$CComEnumImpl@UIEnumConnectionPoints@@$1?_GUID_b196b285_bab4_101a_b69c_00aa00341d07@@3U__s_GUID@@BPEAUIConnectionPoint@@V?$_CopyInterface@UIConnectionPoint@@@ATL@@@ATL@@UEAA@XZ 0000000180004be0 f i PINPad.obj
 0001:00003c3c       ??1?$CComEnumImpl@UIEnumConnections@@$1?_GUID_b196b287_bab4_101a_b69c_00aa00341d07@@3U__s_GUID@@BUtagCONNECTDATA@@V?$_Copy@UtagCONNECTDATA@@@ATL@@@ATL@@UEAA@XZ 0000000180004c3c f i PINPad.obj
 0001:00003c98       ??1?$CComObject@VCOPOSPINPad@@@ATL@@UEAA@XZ 0000000180004c98 f i PINPad.obj
 0001:00003db8       ??_E?$CComContainedObject@VCOPOSPINPad@@@ATL@@UEAAPEAXI@Z 0000000180004db8 f i PINPad.obj
 0001:00003db8       ??_G?$CComContainedObject@VCOPOSPINPad@@@ATL@@UEAAPEAXI@Z 0000000180004db8 f i PINPad.obj
 0001:00003dec       ??_G?$CComObject@VCOPOSPINPad@@@ATL@@UEAAPEAXI@Z 0000000180004dec f i PINPad.obj
 0001:00003dec       ??_E?$CComObject@VCOPOSPINPad@@@ATL@@UEAAPEAXI@Z 0000000180004dec f i PINPad.obj
 0001:00003e20       ?Add@?$CSimpleArray@GV?$CSimpleArrayEqualHelper@G@ATL@@@ATL@@QEAAHAEBG@Z 0000000180004e20 f i PINPad.obj
 0001:00003ed4       ?Add@?$CSimpleMap@PEA_WPEA_WVCExpansionVectorEqualHelper@ATL@@@ATL@@QEAAHAEBQEA_W0@Z 0000000180004ed4 f i PINPad.obj
 0001:00003f74       ?Add@CComDynamicUnkArray@ATL@@QEAAKPEAUIUnknown@@@Z 0000000180004f74 f i PINPad.obj
 0001:00004060       ?Add@CExpansionVector@ATL@@QEAAHPEB_W0@Z 0000000180005060 f i PINPad.obj
 0001:00004194       ?AddTermFunc@CAtlModule@ATL@@QEAAJP6AX_K@Z0@Z 0000000180005194 f i PINPad.obj
 0001:00004230       ?AddValue@CRegParser@ATL@@IEAAJAEAVCRegKey@2@PEB_WPEA_W@Z 0000000180005230 f i PINPad.obj
 0001:00004678       ?AllocateHeap@?$CTempBuffer@_W$0EAA@VCCRTAllocator@ATL@@@ATL@@AEAAX_K@Z 0000000180005678 f i PINPad.obj
 0001:00004678       ?AllocateHeap@?$CTempBuffer@_W$0BAA@VCCRTAllocator@ATL@@@ATL@@AEAAX_K@Z 0000000180005678 f i PINPad.obj
 0001:00004678       ?AllocateHeap@?$CTempBuffer@E$0BAA@VCCRTAllocator@ATL@@@ATL@@AEAAX_K@Z 0000000180005678 f i PINPad.obj
 0001:000046a4       ?Append@CParseBuffer@CRegParser@ATL@@QEAAHPEB_WH@Z 00000001800056a4 f i PINPad.obj
 0001:000047ec       ?AtlComModuleGetClassObject@ATL@@YAJPEAU_ATL_COM_MODULE70@1@AEBU_GUID@@1PEAPEAX@Z 00000001800057ec f i PINPad.obj
 0001:0000492c       ?AtlComModuleRegisterServer@ATL@@YAJPEAU_ATL_COM_MODULE70@1@HPEBU_GUID@@@Z 000000018000592c f i PINPad.obj
 0001:000049ec       ?AtlComModuleUnregisterServer@ATL@@YAJPEAU_ATL_COM_MODULE70@1@HPEBU_GUID@@@Z 00000001800059ec f i PINPad.obj
 0001:00004aa8       ?AtlHiMetricToPixel@ATL@@YAXPEBUtagSIZE@@PEAU2@@Z 0000000180005aa8 f i PINPad.obj
 0001:00004b58       ?AtlHresultFromLastError@ATL@@YAJXZ 0000000180005b58 f i PINPad.obj
 0001:00004b78       ?AtlHresultFromWin32@ATL@@YAJK@Z 0000000180005b78 f i PINPad.obj
 0001:00004b88       ?AtlInternalOleLoadFromStream@ATL@@YAJPEAUIStream@@AEBU_GUID@@PEAPEAXTClassesAllowedInStream@1@K@Z 0000000180005b88 f i PINPad.obj
 0001:00004ccc       ?AtlInternalQueryInterface@ATL@@YAJPEAXPEBU_ATL_INTMAP_ENTRY@1@AEBU_GUID@@PEAPEAX@Z 0000000180005ccc f i PINPad.obj
 0001:00004dd4       ?AtlLoadTypeLib@ATL@@YAJPEAUHINSTANCE__@@PEB_WPEAPEA_WPEAPEAUITypeLib@@@Z 0000000180005dd4 f i PINPad.obj
 0001:00005030       ?AtlRegisterClassCategoriesHelper@ATL@@YAJAEBU_GUID@@PEBU_ATL_CATMAP_ENTRY@1@H@Z 0000000180006030 f i PINPad.obj
 0001:000054b4       ?AtlRegisterTypeLib@ATL@@YAJPEAUHINSTANCE__@@PEB_W@Z 00000001800064b4 f i PINPad.obj
 0001:000056b0       ?AtlThrowImpl@ATL@@YAXJ@Z  00000001800066b0 f i PINPad.obj
 0001:000056d4       ?AtlUnRegisterTypeLib@ATL@@YAJPEAUHINSTANCE__@@PEB_W@Z 00000001800066d4 f i PINPad.obj
 0001:0000579c       ?AtlWinModuleExtractCreateWndData@ATL@@YAPEAXPEAU_ATL_WIN_MODULE70@1@@Z 000000018000679c f i PINPad.obj
 0001:00005828       ?Cleanup@CComTypeInfoHolder@ATL@@SAX_K@Z 0000000180006828 f i PINPad.obj
 0001:00005868       ?ClearReplacements@CExpansionVector@ATL@@QEAAJXZ 0000000180006868 f i PINPad.obj
 0001:00005904       ?CreateInstance@?$CComCreator@V?$CComAggObject@VCOPOSPINPad@@@ATL@@@ATL@@SAJPEAXAEBU_GUID@@PEAPEAX@Z 0000000180006904 f i PINPad.obj
 0001:000059e8       ?CreateInstance@?$CComCreator@V?$CComObject@VCOPOSPINPad@@@ATL@@@ATL@@SAJPEAXAEBU_GUID@@PEAPEAX@Z 00000001800069e8 f i PINPad.obj
 0001:00005a9c       ?CreateInstance@?$CComObject@V?$CComEnum@UIEnumConnectionPoints@@$1?_GUID_b196b285_bab4_101a_b69c_00aa00341d07@@3U__s_GUID@@BPEAUIConnectionPoint@@V?$_CopyInterface@UIConnectionPoint@@@ATL@@VCComSingleThreadModel@6@@ATL@@@ATL@@SAJPEAPEAV12@@Z 0000000180006a9c f i PINPad.obj
 0001:00005b2c       ?CreateInstance@?$CComObject@V?$CComEnum@UIEnumConnections@@$1?_GUID_b196b287_bab4_101a_b69c_00aa00341d07@@3U__s_GUID@@BUtagCONNECTDATA@@V?$_Copy@UtagCONNECTDATA@@@ATL@@VCComSingleThreadModel@6@@ATL@@@ATL@@SAJPEAPEAV12@@Z 0000000180006b2c f i PINPad.obj
 0001:00005bbc       ?DefaultReflectionHandler@?$CWindowImplRoot@VCWindow@ATL@@@ATL@@SAHPEAUHWND__@@I_K_JAEA_J@Z 0000000180006bbc f i PINPad.obj
 0001:00005c20       ?DeleteSubKey@CRegKey@ATL@@QEAAJPEB_W@Z 0000000180006c20 f i PINPad.obj
 0001:00005cb8       ?DoEvent@COPOSPINPad@@IEAAXI_K_J@Z 0000000180006cb8 f i PINPad.obj
 0001:00005d6c       ?DoVerbPrimary@?$IOleObjectImpl@VCOPOSPINPad@@@ATL@@QEAAJPEBUtagRECT@@PEAUHWND__@@@Z 0000000180006d6c f i PINPad.obj
 0001:00005e98       ?DoVerbProperties@CComControlBase@ATL@@QEAAJPEBUtagRECT@@PEAUHWND__@@@Z 0000000180006e98 f i PINPad.obj
 0001:000060c0       ?FireTheEvent@?$CProxy_IOPOSEvents@VCOPOSPINPad@@@@IEAAXPEAVOposVariant@@IAEAJPEB_WJ@Z 00000001800070c0 f i PINPad.obj
 0001:000061ac       ?FireViewChange@CComControlBase@ATL@@QEAAJXZ 00000001800071ac f i PINPad.obj
 0001:00006210       ?Fire_DataEvent@?$CProxy_IOPOSEvents@VCOPOSPINPad@@@@QEAAXJ@Z 0000000180007210 f i PINPad.obj
 0001:000062fc       ?Fire_DirectIOEvent@?$CProxy_IOPOSEvents@VCOPOSPINPad@@@@QEAAXJPEAJPEAPEA_W@Z 00000001800072fc f i PINPad.obj
 0001:0000645c       ?Fire_ErrorEvent@?$CProxy_IOPOSEvents@VCOPOSPINPad@@@@QEAAXJJJPEAJ@Z 000000018000745c f i PINPad.obj
 0001:000065d0       ?Fire_StatusUpdateEvent@?$CProxy_IOPOSEvents@VCOPOSPINPad@@@@QEAAXJ@Z 00000001800075d0 f i PINPad.obj
 0001:000066bc       ?FreeHeap@?$CTempBuffer@_W$0EAA@VCCRTAllocator@ATL@@@ATL@@AEAAXXZ 00000001800076bc f i PINPad.obj
 0001:000066bc       ?FreeHeap@?$CTempBuffer@_W$0BAA@VCCRTAllocator@ATL@@@ATL@@AEAAXXZ 00000001800076bc f i PINPad.obj
 0001:000066bc       ?FreeHeap@?$CTempBuffer@E$0BAA@VCCRTAllocator@ATL@@@ATL@@AEAAXXZ 00000001800076bc f i PINPad.obj
 0001:000066c4       ?GetAmbientLocaleID@CComControlBase@ATL@@QEAAJAEAK@Z 00000001800076c4 f i PINPad.obj
 0001:00006784       ?GetAmbientUserMode@CComControlBase@ATL@@QEAAJAEAH@Z 0000000180007784 f i PINPad.obj
 0001:00006854       ?GetClassObject@CComModule@ATL@@QEAAJAEBU_GUID@@0PEAPEAX@Z 0000000180007854 f i PINPad.obj
 0001:00006948       ?GetConnMap@COPOSPINPad@@SAPEBU_ATL_CONNMAP_ENTRY@ATL@@PEAH@Z 0000000180007948 f i PINPad.obj
 0001:000069d0       ?GetIDsOfNames@CComTypeInfoHolder@ATL@@QEAAJAEBU_GUID@@PEAPEA_WIKPEAJ@Z 00000001800079d0 f i PINPad.obj
 0001:00006b48       ?GetPagesHelper@?$ISpecifyPropertyPagesImpl@VCOPOSPINPad@@@ATL@@IEAAJPEAUtagCAUUID@@PEBUATL_PROPMAP_ENTRY@2@@Z 0000000180007b48 f i PINPad.obj
 0001:00006ce8       ?GetSizeMax@CComVariant@ATL@@QEBAJPEAT_ULARGE_INTEGER@@@Z 0000000180007ce8 f i PINPad.obj
 0001:00006f18       ?GetTI@CComTypeInfoHolder@ATL@@QEAAJK@Z 0000000180007f18 f i PINPad.obj
 0001:00007200       ?GetZoomInfo@CComControlBase@ATL@@QEAAXAEAUATL_DRAWINFO@@@Z 0000000180008200 f i PINPad.obj
 0001:000072a4       ?HKeyFromString@CRegParser@ATL@@KAPEAUHKEY__@@PEA_W@Z 00000001800082a4 f i PINPad.obj
 0001:00007308       ?IDataObject_GetData@CComControlBase@ATL@@QEAAJPEAUtagFORMATETC@@PEAUtagSTGMEDIUM@@@Z 0000000180008308 f i PINPad.obj
 0001:000074fc       ?IOleInPlaceObject_InPlaceDeactivate@CComControlBase@ATL@@QEAAJXZ 00000001800084fc f i PINPad.obj
 0001:0000759c       ?IOleInPlaceObject_SetObjectRects@CComControlBase@ATL@@QEAAJPEBUtagRECT@@0@Z 000000018000859c f i PINPad.obj
 0001:0000768c       ?IOleInPlaceObject_UIDeactivate@CComControlBase@ATL@@QEAAJXZ 000000018000868c f i PINPad.obj
 0001:00007798       ?IOleObject_Close@CComControlBase@ATL@@QEAAJK@Z 0000000180008798 f i PINPad.obj
 0001:000078b0       ?IOleObject_SetClientSite@CComControlBase@ATL@@QEAAJPEAUIOleClientSite@@@Z 00000001800088b0 f i PINPad.obj
 0001:00007928       ?IOleObject_SetExtent@CComControlBase@ATL@@QEAAJKPEAUtagSIZE@@@Z 0000000180008928 f i PINPad.obj
 0001:000079c0       ?IPSI_GetIPersistStreamInit@?$IPersistStorageImpl@VCOPOSPINPad@@@ATL@@AEAAPEAUIPersistStreamInit@@XZ 00000001800089c0 f i PINPad.obj
 0001:00007aa8       ?IPersistStreamInit_Load@?$IPersistStreamInitImpl@VCOPOSPINPad@@@ATL@@QEAAJPEAUIStream@@PEBUATL_PROPMAP_ENTRY@2@@Z 0000000180008aa8 f i PINPad.obj
 0001:00007dd4       ?IPersistStreamInit_Save@?$IPersistStreamInitImpl@VCOPOSPINPad@@@ATL@@QEAAJPEAUIStream@@HPEBUATL_PROPMAP_ENTRY@2@@Z 0000000180008dd4 f i PINPad.obj
 0001:00008074       ?IQuickActivate_QuickActivate@CComControlBase@ATL@@QEAAJPEAUtagQACONTAINER@@PEAUtagQACONTROL@@@Z 0000000180009074 f i PINPad.obj
 0001:00008338       ?IViewObject_Draw@CComControlBase@ATL@@QEAAJKJPEAXPEAUtagDVTARGETDEVICE@@PEAUHDC__@@2PEBU_RECTL@@3@Z 0000000180009338 f i PINPad.obj
 0001:0000844c       ?InPlaceActivate@CComControlBase@ATL@@QEAAJJPEBUtagRECT@@@Z 000000018000944c f i PINPad.obj
 0001:00008780       ?Init@?$CComEnumImpl@UIEnumConnectionPoints@@$1?_GUID_b196b285_bab4_101a_b69c_00aa00341d07@@3U__s_GUID@@BPEAUIConnectionPoint@@V?$_CopyInterface@UIConnectionPoint@@@ATL@@@ATL@@QEAAJPEAPEAUIConnectionPoint@@0PEAUIUnknown@@W4CComEnumFlags@2@@Z 0000000180009780 f i PINPad.obj
 0001:000088a0       ?Init@?$CComEnumImpl@UIEnumConnections@@$1?_GUID_b196b287_bab4_101a_b69c_00aa00341d07@@3U__s_GUID@@BUtagCONNECTDATA@@V?$_Copy@UtagCONNECTDATA@@@ATL@@@ATL@@QEAAJPEAUtagCONNECTDATA@@0PEAUIUnknown@@W4CComEnumFlags@2@@Z 00000001800098a0 f i PINPad.obj
 0001:000089c4       ?IsEqualObject@?$CComPtrBase@UIOleClientSite@@@ATL@@QEAA_NPEAUIUnknown@@@Z 00000001800099c4 f i PINPad.obj
 0001:00008a50       ?LoadNameCache@CComTypeInfoHolder@ATL@@QEAAJPEAUITypeInfo@@@Z 0000000180009a50 f i PINPad.obj
 0001:00008bd0       ?Lookup@?$CSimpleMap@PEA_WPEA_WVCExpansionVectorEqualHelper@ATL@@@ATL@@QEBAPEA_WAEBQEA_W@Z 0000000180009bd0 f i PINPad.obj
 0001:00008c58       ?NextToken@CRegParser@ATL@@IEAAJPEA_W@Z 0000000180009c58 f i PINPad.obj
 0001:00008e10       ?OnKillFocus@CComControlBase@ATL@@QEAA_JI_K_JAEAH@Z 0000000180009e10 f i PINPad.obj
 0001:00008eac       ?OnMouseActivate@CComControlBase@ATL@@QEAA_JI_K_JAEAH@Z 0000000180009eac f i PINPad.obj
 0001:00008f4c       ?OnPaint@CComControlBase@ATL@@QEAA_JI_K_JAEAH@Z 0000000180009f4c f i PINPad.obj
 0001:00009038       ?OnSetFocus@CComControlBase@ATL@@QEAA_JI_K_JAEAH@Z 000000018000a038 f i PINPad.obj
 0001:00009134       ?PreProcessBuffer@CRegParser@ATL@@QEAAJPEA_WPEAPEA_W@Z 000000018000a134 f i PINPad.obj
 0001:000094c0       ?ProcessWindowMessage@?$CComControl@VCOPOSPINPad@@V?$CWindowImpl@VCOPOSPINPad@@VCWindow@ATL@@V?$CWinTraits@$0FGAAAAAA@$0A@@3@@ATL@@@ATL@@UEAAHPEAUHWND__@@I_K_JAEA_JK@Z 000000018000a4c0 f i PINPad.obj
 0001:000095a4       ?ReadFromStream@CComBSTR@ATL@@QEAAJPEAUIStream@@@Z 000000018000a5a4 f i PINPad.obj
 0001:000096f4       ?ReadFromStream@CComVariant@ATL@@QEAAJPEAUIStream@@GTClassesAllowedInStream@2@K@Z 000000018000a6f4 f i PINPad.obj
 0001:00009918       ?RecurseDeleteKey@CRegKey@ATL@@QEAAJPEB_W@Z 000000018000a918 f i PINPad.obj
 0001:00009a70       ?RegCreateKeyExW@CAtlTransactionManager@ATL@@QEAAJPEAUHKEY__@@PEB_WKPEA_WKKQEAU_SECURITY_ATTRIBUTES@@PEAPEAU3@PEAK@Z 000000018000aa70 f i PINPad.obj
 0001:00009ba4       ?RegDeleteKeyW@CAtlTransactionManager@ATL@@QEAAJPEAUHKEY__@@PEB_W@Z 000000018000aba4 f i PINPad.obj
 0001:00009c30       ?RegOpenKeyExW@CAtlTransactionManager@ATL@@QEAAJPEAUHKEY__@@PEB_WKKPEAPEAU3@@Z 000000018000ac30 f i PINPad.obj
 0001:00009ce8       ?RegisterBuffer@CRegParser@ATL@@QEAAJPEA_WH@Z 000000018000ace8 f i PINPad.obj
 0001:00009e50       ?RegisterFromResource@CRegObject@ATL@@IEAAJPEB_W00H@Z 000000018000ae50 f i PINPad.obj
 0001:0000a00c       ?RegisterServer@CComModule@ATL@@QEAAJHPEBU_GUID@@@Z 000000018000b00c f i PINPad.obj
 0001:0000a0cc       ?RegisterSubkeys@CRegParser@ATL@@IEAAJPEA_WPEAUHKEY__@@HH@Z 000000018000b0cc f i PINPad.obj
 0001:0000a938       ?SendOnDataChange@CComControlBase@ATL@@QEAAJK@Z 000000018000b938 f i PINPad.obj
 0001:0000a9a8       ?SetControlFocus@CComControlBase@ATL@@QEAAHH@Z 000000018000b9a8 f i PINPad.obj
 0001:0000aa84       ?SkipAssignment@CRegParser@ATL@@IEAAJPEA_W@Z 000000018000ba84 f i PINPad.obj
 0001:0000ab28       ?Term@CAtlModule@ATL@@QEAAXXZ 000000018000bb28 f i PINPad.obj
 0001:0000aba8       ?Term@CComModule@ATL@@QEAAXXZ 000000018000bba8 f i PINPad.obj
 0001:0000ac24       ?UnregisterServer@CComModule@ATL@@QEAAJHPEBU_GUID@@@Z 000000018000bc24 f i PINPad.obj
 0001:0000acd4       ?UpdateRegistryFromResource@CAtlModule@ATL@@QEAAJIHPEAU_ATL_REGMAP_ENTRY@2@@Z 000000018000bcd4 f i PINPad.obj
 0001:0000afe0       ?UpdateRegistryFromResource@CAtlModule@ATL@@QEAAJPEB_WHPEAU_ATL_REGMAP_ENTRY@2@@Z 000000018000bfe0 f i PINPad.obj
 0001:0000b304       ?VTFromRegType@CRegParser@ATL@@KAHPEB_WAEAG@Z 000000018000c304 f i PINPad.obj
 0001:0000b3a0       ?WindowProc@?$CWindowImplBaseT@VCWindow@ATL@@V?$CWinTraits@$0FGAAAAAA@$0A@@2@@ATL@@SA_JPEAUHWND__@@I_K_J@Z 000000018000c3a0 f i PINPad.obj
 0001:0000b50c       ?WriteToStream@CComVariant@ATL@@QEAAJPEAUIStream@@@Z 000000018000c50c f i PINPad.obj
 0001:0000b788       ?WriteToStream@CComVariant@ATL@@QEAAJPEAUIStream@@G@Z 000000018000c788 f i PINPad.obj
 0001:0000b820       ?_AtlVerifyStackAvailable@_ATL_SAFE_ALLOCA_IMPL@ATL@@YA_N_K@Z 000000018000c820 f i PINPad.obj
 0001:0000b8a4       ?atlCreate@?$CWindowImpl@VCOPOSPINPad@@VCWindow@ATL@@V?$CWinTraits@$0FGAAAAAA@$0A@@3@@ATL@@QEAAPEAUHWND__@@PEAU3@V_U_RECT@2@PEB_WKKV_U_MENUorID@2@PEAX@Z 000000018000c8a4 f i PINPad.obj
 0001:0000b958       ?atlCreate@?$CWindowImplBaseT@VCWindow@ATL@@V?$CWinTraits@$0FGAAAAAA@$0A@@2@@ATL@@QEAAPEAUHWND__@@PEAU3@V_U_RECT@2@PEB_WKKV_U_MENUorID@2@GPEAX@Z 000000018000c958 f i PINPad.obj
 0001:0000bac8       ?ocscpy_s@@YA_NPEA_W_KPEB_W@Z 000000018000cac8 f i PINPad.obj
 0001:0000bb78       DllCanUnloadNow            000000018000cb78 f   PINPad.obj
 0001:0000bb84       DllGetClassObject          000000018000cb84 f   PINPad.obj
 0001:0000bb9c       DllMain                    000000018000cb9c f   PINPad.obj
 0001:0000bc44       DllRegisterServer          000000018000cc44 f   PINPad.obj
 0001:0000bc58       DllUnregisterServer        000000018000cc58 f   PINPad.obj
 0001:0000bc6c       __local_stdio_printf_options 000000018000cc6c f i PINPad.obj
 0001:0000bc74       swprintf_s                 000000018000cc74 f i PINPad.obj
 0001:0000bcc8       ??0COPOSPINPad@@QEAA@XZ    000000018000ccc8 f   PINPadImpl.obj
 0001:0000bd90       ??1?$IConnectionPointImpl@VCOPOSPINPad@@$1?IID_IPropertyNotifySink@@3U_GUID@@BVCComDynamicUnkArray@ATL@@@ATL@@QEAA@XZ 000000018000cd90 f i PINPadImpl.obj
 0001:0000bd90       ??1?$IConnectionPointImpl@VCOPOSPINPad@@$1?DIID__IOPOSPINPadEvents@@3U_GUID@@BVCComDynamicUnkArray@ATL@@@ATL@@QEAA@XZ 000000018000cd90 f i PINPadImpl.obj
 0001:0000bdec       ??1CComControlBase@ATL@@UEAA@XZ 000000018000cdec f i PINPadImpl.obj
 0001:0000be68       ??1COPOSPINPad@@UEAA@XZ    000000018000ce68 f   PINPadImpl.obj
 0001:0000becc       ?BeginEFTTransaction@COPOSPINPad@@UEAAJPEA_WJPEAJ@Z 000000018000cecc f   PINPadImpl.obj
 0001:0000bfa4       ?CheckHealth@COPOSPINPad@@UEAAJJPEAJ@Z 000000018000cfa4 f   PINPadImpl.obj
 0001:0000c020       ?ClaimDevice@COPOSPINPad@@UEAAJJPEAJ@Z 000000018000d020 f   PINPadImpl.obj
 0001:0000c0c0       ?ClearInput@COPOSPINPad@@UEAAJPEAJ@Z 000000018000d0c0 f   PINPadImpl.obj
 0001:0000c0e8       ?ClearInputProperties@COPOSPINPad@@UEAAJPEAJ@Z 000000018000d0e8 f   PINPadImpl.obj
 0001:0000c110       ?Close@COPOSPINPad@@UEAAJPEAJ@Z 000000018000d110 f   PINPadImpl.obj
 0001:0000c1c8       ?CompareFirmwareVersion@COPOSPINPad@@UEAAJPEA_WPEAJ1@Z 000000018000d1c8 f   PINPadImpl.obj
 0001:0000c2a4       ?ComputeMAC@COPOSPINPad@@UEAAJPEA_WPEAPEA_WPEAJ@Z 000000018000d2a4 f   PINPadImpl.obj
 0001:0000c380       ?DirectIO@COPOSPINPad@@UEAAJJPEAJPEAPEA_W0@Z 000000018000d380 f   PINPadImpl.obj
 0001:0000c47c       ?DoInvoke@COPOSPINPad@@IEAAJJPEAVOposVariant@@IHPEAJ_N@Z 000000018000d47c f   PINPadImpl.obj
 0001:0000c5b0       ?EnablePINEntry@COPOSPINPad@@UEAAJPEAJ@Z 000000018000d5b0 f   PINPadImpl.obj
 0001:0000c5d8       ?EndEFTTransaction@COPOSPINPad@@UEAAJJPEAJ@Z 000000018000d5d8 f   PINPadImpl.obj
 0001:0000c654       ?EventInit@COPOSPINPad@@IEAAJXZ 000000018000d654 f i PINPadImpl.obj
 0001:0000c79c       ?EventUninit@COPOSPINPad@@IEAAXXZ 000000018000d79c f i PINPadImpl.obj
 0001:0000c800       ?EventWindowProc@COPOSPINPad@@IEAA_JI_K_J@Z 000000018000d800 f i PINPadImpl.obj
 0001:0000c978       ?FinalConstruct@COPOSPINPad@@QEAAJXZ 000000018000d978 f   PINPadImpl.obj
 0001:0000c9b4       ?FreezeEvents@COPOSPINPad@@MEAAJH@Z 000000018000d9b4 f   PINPadImpl.obj
 0001:0000ca28       ?GetOposProp@COPOSPINPad@@IEAAJJPEAJJ@Z 000000018000da28 f   PINPadImpl.obj
 0001:0000cb44       ?GetOposProp@COPOSPINPad@@IEAAJJPEAPEA_WJ@Z 000000018000db44 f   PINPadImpl.obj
 0001:0000cc70       ?OnDraw@COPOSPINPad@@MEAAJAEAUATL_DRAWINFO@@@Z 000000018000dc70 f   PINPadImpl.obj
 0001:0000cd5c       ?Open@COPOSPINPad@@UEAAJPEA_WPEAJ@Z 000000018000dd5c f   PINPadImpl.obj
 0001:0000d5d8       ?ReleaseDevice@COPOSPINPad@@UEAAJPEAJ@Z 000000018000e5d8 f   PINPadImpl.obj
 0001:0000d644       ?ResetStatistics@COPOSPINPad@@UEAAJPEA_WPEAJ@Z 000000018000e644 f   PINPadImpl.obj
 0001:0000d6cc       ?RetrieveStatistics@COPOSPINPad@@UEAAJPEAPEA_WPEAJ@Z 000000018000e6cc f   PINPadImpl.obj
 0001:0000d754       ?SOProcessID@COPOSPINPad@@UEAAJPEAJ@Z 000000018000e754 f   PINPadImpl.obj
 0001:0000d770       ?SetCOFreezeEvents@COPOSPINPad@@IEAAXF@Z 000000018000e770 f   PINPadImpl.obj
 0001:0000d854       ?SetOposProp@COPOSPINPad@@IEAAJJJJ@Z 000000018000e854 f   PINPadImpl.obj
 0001:0000d9b4       ?SetOposProp@COPOSPINPad@@IEAAJJPEA_WJ@Z 000000018000e9b4 f   PINPadImpl.obj
 0001:0000db0c       ?UpdateFirmware@COPOSPINPad@@UEAAJPEA_WPEAJ@Z 000000018000eb0c f   PINPadImpl.obj
 0001:0000db94       ?UpdateKey@COPOSPINPad@@UEAAJJPEA_WPEAJ@Z 000000018000eb94 f   PINPadImpl.obj
 0001:0000dc6c       ?UpdateStatistics@COPOSPINPad@@UEAAJPEA_WPEAJ@Z 000000018000ec6c f   PINPadImpl.obj
 0001:0000dcf4       ?VerifyMAC@COPOSPINPad@@UEAAJPEA_WPEAJ@Z 000000018000ecf4 f   PINPadImpl.obj
 0001:0000dd7c       ?get_AccountNumber@COPOSPINPad@@UEAAJPEAPEA_W@Z 000000018000ed7c f   PINPadImpl.obj
 0001:0000dd90       ?get_AdditionalSecurityInformation@COPOSPINPad@@UEAAJPEAPEA_W@Z 000000018000ed90 f   PINPadImpl.obj
 0001:0000dda4       ?get_Amount@COPOSPINPad@@UEAAJPEATtagCY@@@Z 000000018000eda4 f   PINPadImpl.obj
 0001:0000de74       ?get_AvailableLanguagesList@COPOSPINPad@@UEAAJPEAPEA_W@Z 000000018000ee74 f   PINPadImpl.obj
 0001:0000de88       ?get_AvailablePromptsList@COPOSPINPad@@UEAAJPEAPEA_W@Z 000000018000ee88 f   PINPadImpl.obj
 0001:0000de9c       ?get_BinaryConversion@COPOSPINPad@@UEAAJPEAJ@Z 000000018000ee9c f   PINPadImpl.obj
 0001:0000deb0       ?get_CapCompareFirmwareVersion@COPOSPINPad@@UEAAJPEAF@Z 000000018000eeb0 f   PINPadImpl.obj
 0001:0000dee4       ?get_CapDisplay@COPOSPINPad@@UEAAJPEAJ@Z 000000018000eee4 f   PINPadImpl.obj
 0001:0000def8       ?get_CapKeyboard@COPOSPINPad@@UEAAJPEAF@Z 000000018000eef8 f   PINPadImpl.obj
 0001:0000df2c       ?get_CapLanguage@COPOSPINPad@@UEAAJPEAJ@Z 000000018000ef2c f   PINPadImpl.obj
 0001:0000df40       ?get_CapMACCalculation@COPOSPINPad@@UEAAJPEAF@Z 000000018000ef40 f   PINPadImpl.obj
 0001:0000df74       ?get_CapPowerReporting@COPOSPINPad@@UEAAJPEAJ@Z 000000018000ef74 f   PINPadImpl.obj
 0001:0000df88       ?get_CapStatisticsReporting@COPOSPINPad@@UEAAJPEAF@Z 000000018000ef88 f   PINPadImpl.obj
 0001:0000dfbc       ?get_CapTone@COPOSPINPad@@UEAAJPEAF@Z 000000018000efbc f   PINPadImpl.obj
 0001:0000dff0       ?get_CapUpdateFirmware@COPOSPINPad@@UEAAJPEAF@Z 000000018000eff0 f   PINPadImpl.obj
 0001:0000e024       ?get_CapUpdateStatistics@COPOSPINPad@@UEAAJPEAF@Z 000000018000f024 f   PINPadImpl.obj
 0001:0000e058       ?get_CheckHealthText@COPOSPINPad@@UEAAJPEAPEA_W@Z 000000018000f058 f   PINPadImpl.obj
 0001:0000e06c       ?get_Claimed@COPOSPINPad@@UEAAJPEAF@Z 000000018000f06c f   PINPadImpl.obj
 0001:0000e0a0       ?get_ControlObjectDescription@COPOSPINPad@@UEAAJPEAPEA_W@Z 000000018000f0a0 f   PINPadImpl.obj
 0001:0000e104       ?get_ControlObjectVersion@COPOSPINPad@@UEAAJPEAJ@Z 000000018000f104 f   PINPadImpl.obj
 0001:0000e110       ?get_DataCount@COPOSPINPad@@UEAAJPEAJ@Z 000000018000f110 f   PINPadImpl.obj
 0001:0000e124       ?get_DataEventEnabled@COPOSPINPad@@UEAAJPEAF@Z 000000018000f124 f   PINPadImpl.obj
 0001:0000e158       ?get_DeviceDescription@COPOSPINPad@@UEAAJPEAPEA_W@Z 000000018000f158 f   PINPadImpl.obj
 0001:0000e16c       ?get_DeviceEnabled@COPOSPINPad@@UEAAJPEAF@Z 000000018000f16c f   PINPadImpl.obj
 0001:0000e19c       ?get_DeviceName@COPOSPINPad@@UEAAJPEAPEA_W@Z 000000018000f19c f   PINPadImpl.obj
 0001:0000e1b0       ?get_EncryptedPIN@COPOSPINPad@@UEAAJPEAPEA_W@Z 000000018000f1b0 f   PINPadImpl.obj
 0001:0000e1c4       ?get_FreezeEvents@COPOSPINPad@@UEAAJPEAF@Z 000000018000f1c4 f   PINPadImpl.obj
 0001:0000e1f4       ?get_MaximumPINLength@COPOSPINPad@@UEAAJPEAJ@Z 000000018000f1f4 f   PINPadImpl.obj
 0001:0000e208       ?get_MerchantID@COPOSPINPad@@UEAAJPEAPEA_W@Z 000000018000f208 f   PINPadImpl.obj
 0001:0000e21c       ?get_MinimumPINLength@COPOSPINPad@@UEAAJPEAJ@Z 000000018000f21c f   PINPadImpl.obj
 0001:0000e230       ?get_OpenResult@COPOSPINPad@@UEAAJPEAJ@Z 000000018000f230 f   PINPadImpl.obj
 0001:0000e23c       ?get_PINEntryEnabled@COPOSPINPad@@UEAAJPEAF@Z 000000018000f23c f   PINPadImpl.obj
 0001:0000e270       ?get_PowerNotify@COPOSPINPad@@UEAAJPEAJ@Z 000000018000f270 f   PINPadImpl.obj
 0001:0000e284       ?get_PowerState@COPOSPINPad@@UEAAJPEAJ@Z 000000018000f284 f   PINPadImpl.obj
 0001:0000e298       ?get_Prompt@COPOSPINPad@@UEAAJPEAJ@Z 000000018000f298 f   PINPadImpl.obj
 0001:0000e2ac       ?get_PromptLanguage@COPOSPINPad@@UEAAJPEAJ@Z 000000018000f2ac f   PINPadImpl.obj
 0001:0000e2c0       ?get_ResultCode@COPOSPINPad@@UEAAJPEAJ@Z 000000018000f2c0 f   PINPadImpl.obj
 0001:0000e2fc       ?get_ResultCodeExtended@COPOSPINPad@@UEAAJPEAJ@Z 000000018000f2fc f   PINPadImpl.obj
 0001:0000e310       ?get_ServiceObjectDescription@COPOSPINPad@@UEAAJPEAPEA_W@Z 000000018000f310 f   PINPadImpl.obj
 0001:0000e324       ?get_ServiceObjectVersion@COPOSPINPad@@UEAAJPEAJ@Z 000000018000f324 f   PINPadImpl.obj
 0001:0000e338       ?get_State@COPOSPINPad@@UEAAJPEAJ@Z 000000018000f338 f   PINPadImpl.obj
 0001:0000e364       ?get_TerminalID@COPOSPINPad@@UEAAJPEAPEA_W@Z 000000018000f364 f   PINPadImpl.obj
 0001:0000e378       ?get_Track1Data@COPOSPINPad@@UEAAJPEAPEA_W@Z 000000018000f378 f   PINPadImpl.obj
 0001:0000e38c       ?get_Track2Data@COPOSPINPad@@UEAAJPEAPEA_W@Z 000000018000f38c f   PINPadImpl.obj
 0001:0000e3a0       ?get_Track3Data@COPOSPINPad@@UEAAJPEAPEA_W@Z 000000018000f3a0 f   PINPadImpl.obj
 0001:0000e3b4       ?get_Track4Data@COPOSPINPad@@UEAAJPEAPEA_W@Z 000000018000f3b4 f   PINPadImpl.obj
 0001:0000e3c8       ?get_TransactionType@COPOSPINPad@@UEAAJPEAJ@Z 000000018000f3c8 f   PINPadImpl.obj
 0001:0000e3dc       ?put_AccountNumber@COPOSPINPad@@UEAAJPEA_W@Z 000000018000f3dc f   PINPadImpl.obj
 0001:0000e3f0       ?put_Amount@COPOSPINPad@@UEAAJTtagCY@@@Z 000000018000f3f0 f   PINPadImpl.obj
 0001:0000e4dc       ?put_BinaryConversion@COPOSPINPad@@UEAAJJ@Z 000000018000f4dc f   PINPadImpl.obj
 0001:0000e4f0       ?put_DataEventEnabled@COPOSPINPad@@UEAAJF@Z 000000018000f4f0 f   PINPadImpl.obj
 0001:0000e508       ?put_DeviceEnabled@COPOSPINPad@@UEAAJF@Z 000000018000f508 f   PINPadImpl.obj
 0001:0000e520       ?put_FreezeEvents@COPOSPINPad@@UEAAJF@Z 000000018000f520 f   PINPadImpl.obj
 0001:0000e570       ?put_MaximumPINLength@COPOSPINPad@@UEAAJJ@Z 000000018000f570 f   PINPadImpl.obj
 0001:0000e584       ?put_MerchantID@COPOSPINPad@@UEAAJPEA_W@Z 000000018000f584 f   PINPadImpl.obj
 0001:0000e598       ?put_MinimumPINLength@COPOSPINPad@@UEAAJJ@Z 000000018000f598 f   PINPadImpl.obj
 0001:0000e5ac       ?put_PowerNotify@COPOSPINPad@@UEAAJJ@Z 000000018000f5ac f   PINPadImpl.obj
 0001:0000e5c0       ?put_Prompt@COPOSPINPad@@UEAAJJ@Z 000000018000f5c0 f   PINPadImpl.obj
 0001:0000e5d4       ?put_PromptLanguage@COPOSPINPad@@UEAAJJ@Z 000000018000f5d4 f   PINPadImpl.obj
 0001:0000e5e8       ?put_TerminalID@COPOSPINPad@@UEAAJPEA_W@Z 000000018000f5e8 f   PINPadImpl.obj
 0001:0000e5fc       ?put_Track1Data@COPOSPINPad@@UEAAJPEA_W@Z 000000018000f5fc f   PINPadImpl.obj
 0001:0000e610       ?put_Track2Data@COPOSPINPad@@UEAAJPEA_W@Z 000000018000f610 f   PINPadImpl.obj
 0001:0000e624       ?put_Track3Data@COPOSPINPad@@UEAAJPEA_W@Z 000000018000f624 f   PINPadImpl.obj
 0001:0000e638       ?put_Track4Data@COPOSPINPad@@UEAAJPEA_W@Z 000000018000f638 f   PINPadImpl.obj
 0001:0000e64c       ?put_TransactionType@COPOSPINPad@@UEAAJJ@Z 000000018000f64c f   PINPadImpl.obj
 0001:0000e660       ?s_EventWindowProc@COPOSPINPad@@KA_JPEAUHWND__@@I_K_J@Z 000000018000f660 f i PINPadImpl.obj
 0001:0000e6dc       ??_U@YAPEAX_K@Z            000000018000f6dc f   LIBCMT:new_array.obj
 0001:0000e6e4       ??_V@YAXPEAX@Z             000000018000f6e4 f   LIBCMT:delete_array.obj
 0001:0000e6e4       ??3@YAXPEAX_K@Z            000000018000f6e4 f   LIBCMT:delete_scalar_size.obj
 0001:0000e6ec       ??_V@YAXPEAX_K@Z           000000018000f6ec f   LIBCMT:delete_array_size.obj
 0001:0000e6f4       __scrt_acquire_startup_lock 000000018000f6f4 f   LIBCMT:utility.obj
 0001:0000e730       __scrt_dllmain_after_initialize_c 000000018000f730 f   LIBCMT:utility.obj
 0001:0000e764       __scrt_dllmain_before_initialize_c 000000018000f764 f   LIBCMT:utility.obj
 0001:0000e77c       __scrt_dllmain_crt_thread_attach 000000018000f77c f   LIBCMT:utility.obj
 0001:0000e7a4       __scrt_dllmain_crt_thread_detach 000000018000f7a4 f   LIBCMT:utility.obj
 0001:0000e7bc       __scrt_dllmain_exception_filter 000000018000f7bc f   LIBCMT:utility.obj
 0001:0000e81c       __scrt_dllmain_uninitialize_c 000000018000f81c f   LIBCMT:utility.obj
 0001:0000e84c       __scrt_dllmain_uninitialize_critical 000000018000f84c f   LIBCMT:utility.obj
 0001:0000e860       __scrt_initialize_crt      000000018000f860 f   LIBCMT:utility.obj
 0001:0000e8ac       __scrt_initialize_onexit_tables 000000018000f8ac f   LIBCMT:utility.obj
 0001:0000e938       __scrt_is_nonwritable_in_current_image 000000018000f938 f   LIBCMT:utility.obj
 0001:0000e9d0       __scrt_release_startup_lock 000000018000f9d0 f   LIBCMT:utility.obj
 0001:0000e9f4       __scrt_uninitialize_crt    000000018000f9f4 f   LIBCMT:utility.obj
 0001:0000ea20       _onexit                    000000018000fa20 f   LIBCMT:utility.obj
 0001:0000ea5c       atexit                     000000018000fa5c f   LIBCMT:utility.obj
 0001:0000ea74       ??3@YAXPEAX@Z              000000018000fa74 f   LIBCMT:delete_scalar.obj
 0001:0000eb74       _Init_thread_footer        000000018000fb74 f   LIBCMT:thread_safe_statics.obj
 0001:0000ebd4       _Init_thread_header        000000018000fbd4 f   LIBCMT:thread_safe_statics.obj
 0001:0000ec3c       _Init_thread_notify        000000018000fc3c f   LIBCMT:thread_safe_statics.obj
 0001:0000ec80       _Init_thread_wait          000000018000fc80 f   LIBCMT:thread_safe_statics.obj
 0001:0000ece4       __raise_securityfailure    000000018000fce4 f   LIBCMT:gs_report.obj
 0001:0000ed18       __report_gsfailure         000000018000fd18 f   LIBCMT:gs_report.obj
 0001:0000edec       __report_rangecheckfailure 000000018000fdec f   LIBCMT:gs_report.obj
 0001:0000ee00       __report_securityfailure   000000018000fe00 f   LIBCMT:gs_report.obj
 0001:0000ef80       ??2@YAPEAX_KAEBUnothrow_t@std@@@Z 000000018000ff80 f   LIBCMT:new_scalar_nothrow.obj
 0001:0000ef94       ??_U@YAPEAX_KAEBUnothrow_t@std@@@Z 000000018000ff94 f   LIBCMT:new_array_nothrow.obj
 0001:0000ef9c       __GSHandlerCheck           000000018000ff9c f   LIBCMT:gshandler.obj
 0001:0000efbc       __GSHandlerCheckCommon     000000018000ffbc f   LIBCMT:gshandler.obj
 0001:0000f018       __GSHandlerCheck_SEH       0000000180010018 f   LIBCMT:gshandlerseh.obj
 0001:0000f0b0       _alloca_probe              00000001800100b0 f   LIBCMT:chkstk.obj
 0001:0000f0b0       __chkstk                   00000001800100b0 f   LIBCMT:chkstk.obj
 0001:0000f120       __security_check_cookie    0000000180010120 f   LIBCMT:amdsecgs.obj
 0001:0000f464       _DllMainCRTStartup         0000000180010464 f   LIBCMT:dll_dllmain.obj
 0001:0000f4a4       ??2@YAPEAX_K@Z             00000001800104a4 f   LIBCMT:new_scalar.obj
 0001:0000f4e0       __isa_available_init       00000001800104e0 f   LIBCMT:cpu_disp.obj
 0001:0000f684       __scrt_is_ucrt_dll_in_use  0000000180010684 f   LIBCMT:ucrt_detection.obj
 0001:0000f690       __crt_debugger_hook        0000000180010690 f   LIBCMT:utility_desktop.obj
 0001:0000f698       __scrt_fastfail            0000000180010698 f   LIBCMT:utility_desktop.obj
 0001:0000f7e4       __security_init_cookie     00000001800107e4 f   LIBCMT:gs_support.obj
 0001:0000f890       ?__scrt_initialize_type_info@@YAXXZ 0000000180010890 f   LIBCMT:tncleanup.obj
 0001:0000f8a0       ?__scrt_uninitialize_type_info@@YAXXZ 00000001800108a0 f   LIBCMT:tncleanup.obj
 0001:0000f8ac       __local_stdio_scanf_options 00000001800108ac f i LIBCMT:default_local_stdio_options.obj
 0001:0000f8b4       __scrt_initialize_default_local_stdio_options 00000001800108b4 f   LIBCMT:default_local_stdio_options.obj
 0001:0000f8d0       __scrt_get_dyn_tls_init_callback 00000001800108d0 f   LIBCMT:dyn_tls_init.obj
 0001:0000f8d8       _RTC_Initialize            00000001800108d8 f   LIBCMT:initsect.obj
 0001:0000f914       _RTC_Terminate             0000000180010914 f   LIBCMT:initsect.obj
 0001:0000f950       ??0bad_alloc@std@@QEAA@AEBV01@@Z 0000000180010950 f i LIBCMT:throw_bad_alloc.obj
 0001:0000f98c       ??0bad_alloc@std@@QEAA@XZ  000000018001098c f i LIBCMT:throw_bad_alloc.obj
 0001:0000f9ac       ??0bad_array_new_length@std@@QEAA@AEBV01@@Z 00000001800109ac f i LIBCMT:throw_bad_alloc.obj
 0001:0000f9e8       ??0bad_array_new_length@std@@QEAA@XZ 00000001800109e8 f i LIBCMT:throw_bad_alloc.obj
 0001:0000fa08       ??0exception@std@@QEAA@AEBV01@@Z 0000000180010a08 f i LIBCMT:throw_bad_alloc.obj
 0001:0000fa3c       ??1bad_array_new_length@std@@UEAA@XZ 0000000180010a3c f i LIBCMT:throw_bad_alloc.obj
 0001:0000fa3c       ??1bad_alloc@std@@UEAA@XZ  0000000180010a3c f i LIBCMT:throw_bad_alloc.obj
 0001:0000fa3c       ??1bad_exception@std@@UEAA@XZ 0000000180010a3c f i libvcruntime:frame.obj
 0001:0000fa50       ??_Gbad_exception@std@@UEAAPEAXI@Z 0000000180010a50 f i libvcruntime:frame.obj
 0001:0000fa50       ??_Ebad_array_new_length@std@@UEAAPEAXI@Z 0000000180010a50 f i LIBCMT:throw_bad_alloc.obj
 0001:0000fa50       ??_Gexception@std@@UEAAPEAXI@Z 0000000180010a50 f i LIBCMT:throw_bad_alloc.obj
 0001:0000fa50       ??_Gbad_alloc@std@@UEAAPEAXI@Z 0000000180010a50 f i LIBCMT:throw_bad_alloc.obj
 0001:0000fa50       ??_Ebad_alloc@std@@UEAAPEAXI@Z 0000000180010a50 f i LIBCMT:throw_bad_alloc.obj
 0001:0000fa50       ??_Gbad_array_new_length@std@@UEAAPEAXI@Z 0000000180010a50 f i LIBCMT:throw_bad_alloc.obj
 0001:0000fa50       ??_Eexception@std@@UEAAPEAXI@Z 0000000180010a50 f i LIBCMT:throw_bad_alloc.obj
 0001:0000fa50       ??_Ebad_exception@std@@UEAAPEAXI@Z 0000000180010a50 f i libvcruntime:frame.obj
 0001:0000fa94       ?__scrt_throw_std_bad_alloc@@YAXXZ 0000000180010a94 f   LIBCMT:throw_bad_alloc.obj
 0001:0000fab4       ?__scrt_throw_std_bad_array_new_length@@YAXXZ 0000000180010ab4 f   LIBCMT:throw_bad_alloc.obj
 0001:0000fad4       ?what@exception@std@@UEBAPEBDXZ 0000000180010ad4 f i LIBCMT:throw_bad_alloc.obj
 0001:0000faf0       ??_Gtype_info@@UEAAPEAXI@Z 0000000180010af0 f i LIBCMT:std_type_info_static.obj
 0001:0000faf0       ??_Etype_info@@UEAAPEAXI@Z 0000000180010af0 f i LIBCMT:std_type_info_static.obj
 0001:0000fb1c       ??0CAtlBaseModule@ATL@@QEAA@XZ 0000000180010b1c f   atls:atlbase.obj
 0001:0000fbc4       ??1CAtlBaseModule@ATL@@QEAA@XZ 0000000180010bc4 f   atls:atlbase.obj
 0001:0000fcf8       ?__AllocStdCallThunk_cmn@@YAPEAXXZ 0000000180010cf8 f   atls:atlthunk.obj
 0001:0000fe50       AtlThunk_AllocateData      0000000180010e50 f   atls:atlthunk.obj
 0001:0000fecc       AtlThunk_DataToCode        0000000180010ecc f   atls:atlthunk.obj
 0001:0000ff20       AtlThunk_FreeData          0000000180010f20 f   atls:atlthunk.obj
 0001:0000ff80       AtlThunk_InitData          0000000180010f80 f   atls:atlthunk.obj
 0001:00010028       _get_purecall_handler      0000000180011028 f   libvcruntime:purevirt.obj
 0001:00010030       _purecall                  0000000180011030 f   libvcruntime:purevirt.obj
 0001:0001004c       wcsstr                     000000018001104c f   libvcruntime:wcsstr.obj
 0001:00010280       memcmp                     0000000180011280 f   libvcruntime:memcmp.obj
 0001:00010360       memcpy_repmovs             0000000180011360 f   libvcruntime:memcpy.obj
 0001:00010380       memcpy                     0000000180011380 f   libvcruntime:memcpy.obj
 0001:00010380       memmove                    0000000180011380 f   libvcruntime:memcpy.obj
 0001:00010770       memset_repmovs             0000000180011770 f   libvcruntime:memset.obj
 0001:00010790       memset                     0000000180011790 f   libvcruntime:memset.obj
 0001:00010920       __vcrt_initialize          0000000180011920 f   libvcruntime:initialization.obj
 0001:00010948       __vcrt_thread_attach       0000000180011948 f   libvcruntime:initialization.obj
 0001:0001095c       __vcrt_thread_detach       000000018001195c f   libvcruntime:initialization.obj
 0001:00010970       __vcrt_uninitialize        0000000180011970 f   libvcruntime:initialization.obj
 0001:0001098c       __vcrt_uninitialize_critical 000000018001198c f   libvcruntime:initialization.obj
 0001:0001099c       __C_specific_handler       000000018001199c f   libvcruntime:riscchandler.obj
 0001:00010ba8       ??$_CallSETranslator@V__FrameHandler4@@@@YAHPEAUEHExceptionRecord@@PEA_KPEAU_CONTEXT@@PEAU_xDISPATCHER_CONTEXT@@PEAUFuncInfo4@FH4@@K1H@Z 0000000180011ba8 f i libvcruntime:risctrnsctrl.obj
 0001:00010bfc       ?DecompFuncInfo@FH4@@YA_JPEAEAEAUFuncInfo4@1@_KH_N@Z 0000000180011bfc f i libvcruntime:risctrnsctrl.obj
 0001:00010d20       ?ExecutionInCatch@__FrameHandler4@@SA_NPEAU_xDISPATCHER_CONTEXT@@PEAUFuncInfo4@FH4@@@Z 0000000180011d20 f   libvcruntime:risctrnsctrl.obj
 0001:00010d28       ?FrameUnwindToEmptyState@__FrameHandler4@@SAXPEA_KPEAU_xDISPATCHER_CONTEXT@@PEAUFuncInfo4@FH4@@@Z 0000000180011d28 f   libvcruntime:risctrnsctrl.obj
 0001:00010d5c       ?GetEstablisherFrame@__FrameHandler4@@SAPEA_KPEA_KPEAU_xDISPATCHER_CONTEXT@@PEAUFuncInfo4@FH4@@0@Z 0000000180011d5c f   libvcruntime:risctrnsctrl.obj
 0001:00010d80       ?GetRangeOfTrysToCheck@__FrameHandler4@@SA?AU?$pair@Viterator@TryBlockMap4@FH4@@V123@@std@@AEAVTryBlockMap4@FH4@@HPEAU_xDISPATCHER_CONTEXT@@PEAUFuncInfo4@5@H@Z 0000000180011d80 f   libvcruntime:risctrnsctrl.obj
 0001:00010ee8       ?UnwindNestedFrames@__FrameHandler4@@SAXPEA_KPEAUEHExceptionRecord@@PEAU_CONTEXT@@0PEAXPEAUFuncInfo4@FH4@@HHPEAUHandlerType4@5@PEAU_xDISPATCHER_CONTEXT@@E@Z 0000000180011ee8 f   libvcruntime:risctrnsctrl.obj
 0001:00011008       ?setBuffer@TryBlockMap4@FH4@@QEAAXViterator@12@@Z 0000000180012008 f i libvcruntime:risctrnsctrl.obj
 0001:000111c8       _CreateFrameInfo           00000001800121c8 f   libvcruntime:risctrnsctrl.obj
 0001:00011204       _FindAndUnlinkFrame        0000000180012204 f   libvcruntime:risctrnsctrl.obj
 0001:00011258       _GetImageBase              0000000180012258 f   libvcruntime:risctrnsctrl.obj
 0001:0001126c       _GetThrowImageBase         000000018001226c f   libvcruntime:risctrnsctrl.obj
 0001:00011280       _SetImageBase              0000000180012280 f   libvcruntime:risctrnsctrl.obj
 0001:00011298       _SetThrowImageBase         0000000180012298 f   libvcruntime:risctrnsctrl.obj
 0001:000112b0       __CxxFrameHandler4         00000001800122b0 f   libvcruntime:risctrnsctrl.obj
 0001:00011370       __DestructExceptionObject  0000000180012370 f   libvcruntime:ehhelpers.obj
 0001:000113e0       ?_CallMemberFunction0@@YAXQEAX0@Z 00000001800123e0 f i libvcruntime:ehhelpers.obj
 0001:000113e4       _IsExceptionObjectToBeDestroyed 00000001800123e4 f   libvcruntime:ehhelpers.obj
 0001:00011414       __AdjustPointer            0000000180012414 f   libvcruntime:ehhelpers.obj
 0001:00011438       __FrameUnwindFilter        0000000180012438 f   libvcruntime:ehhelpers.obj
 0001:000114a0       __std_type_info_compare    00000001800124a0 f   libvcruntime:std_type_info.obj
 0001:000114c8       __std_type_info_destroy_list 00000001800124c8 f   libvcruntime:std_type_info.obj
 0001:000114f4       __std_exception_copy       00000001800124f4 f   libvcruntime:std_exception.obj
 0001:00011584       __std_exception_destroy    0000000180012584 f   libvcruntime:std_exception.obj
 0001:000115ac       _CxxThrowException         00000001800125ac f   libvcruntime:throw.obj
 0001:0001164c       __vcrt_freefls             000000018001264c f   libvcruntime:per_thread_data.obj
 0001:0001166c       __vcrt_freeptd             000000018001266c f   libvcruntime:per_thread_data.obj
 0001:000116bc       __vcrt_getptd              00000001800126bc f   libvcruntime:per_thread_data.obj
 0001:000116d8       __vcrt_getptd_noexit       00000001800126d8 f   libvcruntime:per_thread_data.obj
 0001:00011798       __vcrt_initialize_ptd      0000000180012798 f   libvcruntime:per_thread_data.obj
 0001:000117e0       __vcrt_uninitialize_ptd    00000001800127e0 f   libvcruntime:per_thread_data.obj
 0001:00011804       __vcrt_initialize_locks    0000000180012804 f   libvcruntime:locks.obj
 0001:00011838       __vcrt_uninitialize_locks  0000000180012838 f   libvcruntime:locks.obj
 0001:00011880       _NLG_Notify                0000000180012880 f   libvcruntime:notify.obj
 0001:000118a0       __NLG_Dispatch2            00000001800128a0 f   libvcruntime:notify.obj
 0001:000118b0       __NLG_Return2              00000001800128b0 f   libvcruntime:notify.obj
 0001:000118b4       __except_validate_context_record 00000001800128b4 f   libvcruntime:jbcxrval.obj
 0001:000118ec       ?StateFromControlPc@__FrameHandler4@@SAHPEAUFuncInfo4@FH4@@PEAU_xDISPATCHER_CONTEXT@@@Z 00000001800128ec f   libvcruntime:ehstate.obj
 0001:000118f4       ?StateFromIp@__FrameHandler4@@SAHPEAUFuncInfo4@FH4@@PEAU_xDISPATCHER_CONTEXT@@_K@Z 00000001800128f4 f   libvcruntime:ehstate.obj
 0001:00012578       ??$TypeMatchHelper@V__FrameHandler3@@@@YAHPEBU_s_HandlerType@@PEBU_s_CatchableType@@PEBU_s_ThrowInfo@@@Z 0000000180013578 f i libvcruntime:frame.obj
 0001:000126b8       ??$TypeMatchHelper@V__FrameHandler4@@@@YAHPEAUHandlerType4@FH4@@PEBU_s_CatchableType@@PEBU_s_ThrowInfo@@@Z 00000001800136b8 f i libvcruntime:frame.obj
 0001:000127fc       ??$__InternalCxxFrameHandler@V__FrameHandler4@@@@YA?AW4_EXCEPTION_DISPOSITION@@PEAUEHExceptionRecord@@PEA_KPEAU_CONTEXT@@PEAU_xDISPATCHER_CONTEXT@@PEAUFuncInfo4@FH4@@H1E@Z 00000001800137fc f i libvcruntime:frame.obj
 0001:00012a90       ??0HandlerMap4@FH4@@QEAA@PEBUTryBlockMapEntry4@1@_KH@Z 0000000180013a90 f i libvcruntime:frame.obj
 0001:00012b0c       ??0TryBlockMap4@FH4@@QEAA@PEBUFuncInfo4@1@_K@Z 0000000180013b0c f i libvcruntime:frame.obj
 0001:00012be4       ??0bad_exception@std@@QEAA@AEBV01@@Z 0000000180013be4 f i libvcruntime:frame.obj
 0001:00012c20       ??0bad_exception@std@@QEAA@XZ 0000000180013c20 f i libvcruntime:frame.obj
 0001:00012c40       ?CxxCallCatchBlock@__FrameHandler4@@SAPEAXPEAU_EXCEPTION_RECORD@@@Z 0000000180013c40 f   libvcruntime:frame.obj
 0001:00012e90       ?DecompHandler@HandlerMap4@FH4@@AEAAXXZ 0000000180013e90 f i libvcruntime:frame.obj
 0001:000130d0       ?FrameUnwindToState@__FrameHandler4@@SAXPEA_KPEAU_xDISPATCHER_CONTEXT@@PEAUFuncInfo4@FH4@@H@Z 00000001800140d0 f   libvcruntime:frame.obj
 0001:00013530       ?ReadEntry@UWMap4@FH4@@AEAAXPEAPEAE@Z 0000000180014530 f i libvcruntime:frame.obj
 0001:000135d0       ?_CallMemberFunction1@@YAXQEAX00@Z 00000001800145d0 f i libvcruntime:frame.obj
 0001:000135dc       ?_CallMemberFunction2@@YAXQEAX00H@Z 00000001800145dc f i libvcruntime:frame.obj
 0001:000135ec       ?getStartStop@UWMap4@FH4@@QEAAXHHAEAViterator@12@0@Z 00000001800145ec f i libvcruntime:frame.obj
 0001:000136bc       ?getStateFromIterators@UWMap4@FH4@@SAHAEBViterator@12@H0H0@Z 00000001800146bc f i libvcruntime:frame.obj
 0001:000138d0       __vcrt_FlsAlloc            00000001800148d0 f   libvcruntime:winapi_downlevel.obj
 0001:00013918       __vcrt_FlsFree             0000000180014918 f   libvcruntime:winapi_downlevel.obj
 0001:00013960       __vcrt_FlsGetValue         0000000180014960 f   libvcruntime:winapi_downlevel.obj
 0001:000139a8       __vcrt_FlsSetValue         00000001800149a8 f   libvcruntime:winapi_downlevel.obj
 0001:000139fc       __vcrt_InitializeCriticalSectionEx 00000001800149fc f   libvcruntime:winapi_downlevel.obj
 0001:00013a70       _CallSettingFrame          0000000180014a70 f   libvcruntime:handlers.obj
 0001:00013ac0       _CallSettingFrame_LookupContinuationIndex 0000000180014ac0 f   libvcruntime:handlers.obj
 0001:00013af0       _CallSettingFrame_NotifyContinuationAddr 0000000180014af0 f   libvcruntime:handlers.obj
 0001:00013b20       _CallSettingFrameEncoded   0000000180014b20 f   libvcruntime:handlers.obj
 0001:00013b68       free                       0000000180014b68 f   libucrt:free.obj
 0001:00013b7c       __acrt_call_reportfault    0000000180014b7c f   libucrt:invalid_parameter.obj
 0001:00013cd8       __acrt_initialize_invalid_parameter_handler 0000000180014cd8 f   libucrt:invalid_parameter.obj
 0001:00013ce0       _invalid_parameter         0000000180014ce0 f   libucrt:invalid_parameter.obj
 0001:00013d90       _invalid_parameter_noinfo  0000000180014d90 f   libucrt:invalid_parameter.obj
 0001:00013db0       _invoke_watson             0000000180014db0 f   libucrt:invalid_parameter.obj
 0001:00013df8       __acrt_errno_from_os_error 0000000180014df8 f   libucrt:errno.obj
 0001:00013e40       __acrt_errno_map_os_error  0000000180014e40 f   libucrt:errno.obj
 0001:00013e90       __doserrno                 0000000180014e90 f   libucrt:errno.obj
 0001:00013eb0       _errno                     0000000180014eb0 f   libucrt:errno.obj
 0001:00013ed0       calloc                     0000000180014ed0 f   libucrt:calloc.obj
 0001:00013ed8       malloc                     0000000180014ed8 f   libucrt:malloc.obj
 0001:00013ee0       _recalloc                  0000000180014ee0 f   libucrt:recalloc.obj
 0001:00013ee8       _recalloc_base             0000000180014ee8 f   libucrt:recalloc.obj
 0001:00013f80       _resetstkoflw              0000000180014f80 f   libucrt:resetstk.obj
 0001:000140ac       wcscat_s                   00000001800150ac f   libucrt:wcscat_s.obj
 0001:0001412c       wcscpy_s                   000000018001512c f   libucrt:wcscpy_s.obj
 0001:00014194       wcsncpy_s                  0000000180015194 f   libucrt:wcsncpy_s.obj
 0001:0001444c       ??$ensure_buffer_is_big_enough@D@formatting_buffer@__crt_stdio_output@@QEAA_N_K@Z 000000018001544c f i libucrt:output.obj
 0001:000144f4       ??$ensure_buffer_is_big_enough@_W@formatting_buffer@__crt_stdio_output@@QEAA_N_K@Z 00000001800154f4 f i libucrt:output.obj
 0001:000145a0       ??$is_wide_character_specifier@_W@__crt_stdio_output@@YA_N_K_WW4length_modifier@0@@Z 00000001800155a0 f i libucrt:output.obj
 0001:000145e0       ??$type_case_integer_parse_into_buffer@I@?$output_processor@_WV?$string_output_adapter@_W@__crt_stdio_output@@V?$format_validation_base@_WV?$string_output_adapter@_W@__crt_stdio_output@@@2@@__crt_stdio_output@@AEAAXII_N@Z 00000001800155e0 f i libucrt:output.obj
 0001:00014684       ??$type_case_integer_parse_into_buffer@_K@?$output_processor@_WV?$string_output_adapter@_W@__crt_stdio_output@@V?$format_validation_base@_WV?$string_output_adapter@_W@__crt_stdio_output@@@2@@__crt_stdio_output@@AEAAX_KI_N@Z 0000000180015684 f i libucrt:output.obj
 0001:00014728       ??$write_multiple_characters@V?$string_output_adapter@_W@__crt_stdio_output@@D@__crt_stdio_output@@YAXAEBV?$string_output_adapter@_W@0@DHQEAH@Z 0000000180015728 f i libucrt:output.obj
 0001:000147a0       ??0_LocaleUpdate@@QEAA@QEAU__crt_locale_pointers@@@Z 00000001800157a0 f i libucrt:output.obj
 0001:00014840       ?crop_zeroes@__crt_stdio_output@@YAXPEADQEAU__crt_locale_pointers@@@Z 0000000180015840 f i libucrt:output.obj
 0001:000148e0       ?force_decimal_point@__crt_stdio_output@@YAXPEADQEAU__crt_locale_pointers@@@Z 00000001800158e0 f i libucrt:output.obj
 0001:00014958       ?parse_int_from_format_string@?$output_processor@_WV?$string_output_adapter@_W@__crt_stdio_output@@V?$format_validation_base@_WV?$string_output_adapter@_W@__crt_stdio_output@@@2@@__crt_stdio_output@@AEAA_NQEAH@Z 0000000180015958 f i libucrt:output.obj
 0001:000149fc       ?process@?$output_processor@_WV?$string_output_adapter@_W@__crt_stdio_output@@V?$format_validation_base@_WV?$string_output_adapter@_W@__crt_stdio_output@@@2@@__crt_stdio_output@@QEAAHXZ 00000001800159fc f i libucrt:output.obj
 0001:00014c74       ?state_case_size@?$output_processor@_WV?$string_output_adapter@_W@__crt_stdio_output@@V?$format_validation_base@_WV?$string_output_adapter@_W@__crt_stdio_output@@@2@@__crt_stdio_output@@AEAA_NXZ 0000000180015c74 f i libucrt:output.obj
 0001:00014e08       ?state_case_type@?$output_processor@_WV?$string_output_adapter@_W@__crt_stdio_output@@V?$format_validation_base@_WV?$string_output_adapter@_W@__crt_stdio_output@@@2@@__crt_stdio_output@@AEAA_NXZ 0000000180015e08 f i libucrt:output.obj
 0001:000150e0       ?to_integer_size@__crt_stdio_output@@YA_KW4length_modifier@1@@Z 00000001800160e0 f i libucrt:output.obj
 0001:00015148       ?type_case_Z@?$output_processor@_WV?$string_output_adapter@_W@__crt_stdio_output@@V?$format_validation_base@_WV?$string_output_adapter@_W@__crt_stdio_output@@@2@@__crt_stdio_output@@AEAA_NXZ 0000000180016148 f i libucrt:output.obj
 0001:000151c4       ?type_case_a@?$output_processor@_WV?$string_output_adapter@_W@__crt_stdio_output@@V?$format_validation_base@_WV?$string_output_adapter@_W@__crt_stdio_output@@@2@@__crt_stdio_output@@AEAA_NXZ 00000001800161c4 f i libucrt:output.obj
 0001:000153a4       ?type_case_c_tchar@?$output_processor@_WV?$string_output_adapter@_W@__crt_stdio_output@@V?$format_validation_base@_WV?$string_output_adapter@_W@__crt_stdio_output@@@2@@__crt_stdio_output@@AEAA_N_W@Z 00000001800163a4 f i libucrt:output.obj
 0001:0001544c       ?type_case_integer@?$output_processor@_WV?$string_output_adapter@_W@__crt_stdio_output@@V?$format_validation_base@_WV?$string_output_adapter@_W@__crt_stdio_output@@@2@@__crt_stdio_output@@AEAA_NI_N@Z 000000018001644c f i libucrt:output.obj
 0001:000155d4       ?type_case_n@?$output_processor@_WV?$string_output_adapter@_W@__crt_stdio_output@@V?$format_validation_base@_WV?$string_output_adapter@_W@__crt_stdio_output@@@2@@__crt_stdio_output@@AEAA_NXZ 00000001800165d4 f i libucrt:output.obj
 0001:0001565c       ?type_case_s@?$output_processor@_WV?$string_output_adapter@_W@__crt_stdio_output@@V?$format_validation_base@_WV?$string_output_adapter@_W@__crt_stdio_output@@@2@@__crt_stdio_output@@AEAA_NXZ 000000018001665c f i libucrt:output.obj
 0001:00015724       ?write_stored_string_tchar@?$output_processor@_WV?$string_output_adapter@_W@__crt_stdio_output@@V?$format_validation_base@_WV?$string_output_adapter@_W@__crt_stdio_output@@@2@@__crt_stdio_output@@AEAA_N_W@Z 0000000180016724 f i libucrt:output.obj
 0001:0001580c       ?write_string@?$string_output_adapter@_W@__crt_stdio_output@@QEBAXQEB_WHQEAHAEAV__crt_deferred_errno_cache@@@Z 000000018001680c f i libucrt:output.obj
 0001:000158b4       __stdio_common_vswprintf_s 00000001800168b4 f   libucrt:output.obj
 0001:00015924       _seh_filter_dll            0000000180016924 f   libucrt:exception_filter.obj
 0001:00015938       _seh_filter_exe            0000000180016938 f   libucrt:exception_filter.obj
 0001:00015d28       __acrt_initialize_thread_local_exit_callback 0000000180016d28 f   libucrt:exit.obj
 0001:00015d30       _cexit                     0000000180016d30 f   libucrt:exit.obj
 0001:00015d40       _exit                      0000000180016d40 f   libucrt:exit.obj
 0001:00015d4c       _is_c_termination_complete 0000000180016d4c f   libucrt:exit.obj
 0001:00015f14       __acrt_allocate_buffer_for_argv 0000000180016f14 f   libucrt:argv_parsing.obj
 0001:00015f74       _configure_narrow_argv     0000000180016f74 f   libucrt:argv_parsing.obj
 0001:000162ec       __dcrt_uninitialize_environments_nolock 00000001800172ec f   libucrt:environment_initialization.obj
 0001:00016324       _initialize_narrow_environment 0000000180017324 f   libucrt:environment_initialization.obj
 0001:0001666c       _crt_atexit                000000018001766c f   libucrt:onexit.obj
 0001:0001667c       _execute_onexit_table      000000018001767c f   libucrt:onexit.obj
 0001:000166b8       _initialize_onexit_table   00000001800176b8 f   libucrt:onexit.obj
 0001:000166e0       _register_onexit_function  00000001800176e0 f   libucrt:onexit.obj
 0001:00016760       __acrt_uninitialize_command_line 0000000180017760 f   libucrt:argv_data.obj
 0001:00016858       __acrt_initialize          0000000180017858 f   libucrt:initialization.obj
 0001:0001686c       __acrt_thread_attach       000000018001786c f   libucrt:initialization.obj
 0001:00016880       __acrt_thread_detach       0000000180017880 f   libucrt:initialization.obj
 0001:00016890       __acrt_uninitialize        0000000180017890 f   libucrt:initialization.obj
 0001:000168c8       __acrt_uninitialize_critical 00000001800178c8 f   libucrt:initialization.obj
 0001:000168d8       _initterm                  00000001800178d8 f   libucrt:initterm.obj
 0001:0001693c       _initterm_e                000000018001793c f   libucrt:initterm.obj
 0001:0001697c       __acrt_initialize_new_handler 000000018001797c f   libucrt:new_handler.obj
 0001:00016984       _callnewh                  0000000180017984 f   libucrt:new_handler.obj
 0001:000169b4       _query_new_handler         00000001800179b4 f   libucrt:new_handler.obj
 0001:000169e8       terminate                  00000001800179e8 f   libucrt:terminate.obj
 0001:00016a08       abort                      0000000180017a08 f   libucrt:abort.obj
 0001:00016a60       strcpy_s                   0000000180017a60 f   libucrt:strcpy_s.obj
 0001:00016ac0       ??$parse_integer@KV?$c_string_character_source@_W@__crt_strtox@@@__crt_strtox@@YAKQEAU__crt_locale_pointers@@V?$c_string_character_source@_W@0@H_N@Z 0000000180017ac0 f i libucrt:atox.obj
 0001:00017180       strncmp                    0000000180018180 f   libucrt:strncmp.obj
 0001:00017200       wcsncmp                    0000000180018200 f   libucrt:wcsncmp.obj
 0001:0001722c       _free_base                 000000018001822c f   libucrt:free_base.obj
 0001:000175e4       __acrt_freeptd             00000001800185e4 f   libucrt:per_thread_data.obj
 0001:00017628       __acrt_getptd              0000000180018628 f   libucrt:per_thread_data.obj
 0001:000176fc       __acrt_getptd_head         00000001800186fc f   libucrt:per_thread_data.obj
 0001:000177a4       __acrt_getptd_noexit       00000001800187a4 f   libucrt:per_thread_data.obj
 0001:00017870       __acrt_initialize_ptd      0000000180018870 f   libucrt:per_thread_data.obj
 0001:000178ac       __acrt_uninitialize_ptd    00000001800188ac f   libucrt:per_thread_data.obj
 0001:000178d0       _calloc_base               00000001800188d0 f   libucrt:calloc_base.obj
 0001:00017948       _malloc_base               0000000180018948 f   libucrt:malloc_base.obj
 0001:000179a8       _msize_base                00000001800189a8 f   libucrt:msize.obj
 0001:000179e4       _realloc_base              00000001800189e4 f   libucrt:realloc_base.obj
 0001:00017c38       __acrt_AppPolicyGetProcessTerminationMethodInternal 0000000180018c38 f   libucrt:winapi_thunks.obj
 0001:00017c88       __acrt_AreFileApisANSI     0000000180018c88 f   libucrt:winapi_thunks.obj
 0001:00017cc4       __acrt_FlsAlloc            0000000180018cc4 f   libucrt:winapi_thunks.obj
 0001:00017d0c       __acrt_FlsFree             0000000180018d0c f   libucrt:winapi_thunks.obj
 0001:00017d54       __acrt_FlsGetValue         0000000180018d54 f   libucrt:winapi_thunks.obj
 0001:00017d9c       __acrt_FlsSetValue         0000000180018d9c f   libucrt:winapi_thunks.obj
 0001:00017df0       __acrt_InitializeCriticalSectionEx 0000000180018df0 f   libucrt:winapi_thunks.obj
 0001:00017e54       __acrt_LCMapStringEx       0000000180018e54 f   libucrt:winapi_thunks.obj
 0001:00017f30       __acrt_LocaleNameToLCID    0000000180018f30 f   libucrt:winapi_thunks.obj
 0001:00017f80       __acrt_SetThreadStackGuarantee 0000000180018f80 f   libucrt:winapi_thunks.obj
 0001:00017fc4       __acrt_initialize_winapi_thunks 0000000180018fc4 f   libucrt:winapi_thunks.obj
 0001:00017ff8       __acrt_uninitialize_winapi_thunks 0000000180018ff8 f   libucrt:winapi_thunks.obj
 0001:0001803c       wcstol                     000000018001903c f   libucrt:strtox.obj
 0001:00018068       _mbtowc_l                  0000000180019068 f   libucrt:mbtowc.obj
 0001:000181e8       mbtowc                     00000001800191e8 f   libucrt:mbtowc.obj
 0001:000181f0       wcsnlen                    00000001800191f0 f   libucrt:strnlen.obj
 0001:000183c8       __acrt_update_locale_info  00000001800193c8 f   libucrt:locale_update.obj
 0001:000183fc       __acrt_update_multibyte_info 00000001800193fc f   libucrt:locale_update.obj
 0001:00018e34       __acrt_fp_format           0000000180019e34 f   libucrt:cvt.obj
 0001:0001916c       _fileno                    000000018001a16c f   libucrt:fileno.obj
 0001:00019194       __acrt_initialize_stdio    000000018001a194 f   libucrt:_file.obj
 0001:000192b4       __acrt_uninitialize_stdio  000000018001a2b4 f   libucrt:_file.obj
 0001:00019310       _lock_file                 000000018001a310 f   libucrt:_file.obj
 0001:0001931c       _unlock_file               000000018001a31c f   libucrt:_file.obj
 0001:00019328       _get_printf_count_output   000000018001a328 f   libucrt:printf_count_output.obj
 0001:000193b0       __acrt_set_locale_changed  000000018001a3b0 f   libucrt:wsetlocale.obj
 0001:000193bc       __acrt_uninitialize_locale 000000018001a3bc f   libucrt:wsetlocale.obj
 0001:000195e8       __acrt_initialize_lowio    000000018001a5e8 f   libucrt:ioinit.obj
 0001:00019624       __acrt_uninitialize_lowio  000000018001a624 f   libucrt:ioinit.obj
 0001:00019664       __acrt_initialize_locks    000000018001a664 f   libucrt:locks.obj
 0001:000196ac       __acrt_lock                000000018001a6ac f   libucrt:locks.obj
 0001:000196c8       __acrt_uninitialize_locks  000000018001a6c8 f   libucrt:locks.obj
 0001:00019700       __acrt_unlock              000000018001a700 f   libucrt:locks.obj
 0001:0001971c       __acrt_get_process_end_policy 000000018001a71c f   libucrt:win_policies.obj
 0001:0001976c       ??$__acrt_mbs_to_wcs_cp@U__crt_win32_buffer_internal_dynamic_resizing@@@@YAHQEBDAEAV?$__crt_win32_buffer@_WU__crt_win32_buffer_internal_dynamic_resizing@@@@I@Z 000000018001a76c f i libucrt:argv_wildcards.obj
 0001:000198e4       ??$__acrt_wcs_to_mbs_cp@U__crt_win32_buffer_internal_dynamic_resizing@@@@YAHQEB_WAEAV?$__crt_win32_buffer@DU__crt_win32_buffer_internal_dynamic_resizing@@@@I@Z 000000018001a8e4 f i libucrt:argv_wildcards.obj
 0001:0001a114       __acrt_expand_narrow_argv_wildcards 000000018001b114 f   libucrt:argv_wildcards.obj
 0001:0001a11c       ??$__acrt_wcs_to_mbs_cp@U__crt_win32_buffer_no_resizing@@@@YAHQEB_WAEAV?$__crt_win32_buffer@DU__crt_win32_buffer_no_resizing@@@@I@Z 000000018001b11c f i libucrt:getmodulefilenamea.obj
 0001:0001a230       __acrt_GetModuleFileNameA  000000018001b230 f   libucrt:getmodulefilenamea.obj
 0001:0001aa78       __acrt_initialize_multibyte 000000018001ba78 f   libucrt:mbctype.obj
 0001:0001aad8       __acrt_update_thread_multibyte_data 000000018001bad8 f   libucrt:mbctype.obj
 0001:0001aaf4       _setmbcp_nolock            000000018001baf4 f   libucrt:mbctype.obj
 0001:0001ae28       _ismbblead                 000000018001be28 f   libucrt:ismbbyte.obj
 0001:0001ae3c       __acrt_initialize_command_line 000000018001be3c f   libucrt:argv_data.obj
 0001:0001ae64       __acrt_MultiByteToWideChar 000000018001be64 f   libucrt:multibytetowidechar.obj
 0001:0001aec0       __acrt_WideCharToMultiByte 000000018001bec0 f   libucrt:widechartomultibyte.obj
 0001:0001af70       __dcrt_get_narrow_environment_from_os 000000018001bf70 f   libucrt:get_environment_from_os.obj
 0001:0001b074       __acrt_initialize_heap     000000018001c074 f   libucrt:heap_handle.obj
 0001:0001b090       __acrt_uninitialize_heap   000000018001c090 f   libucrt:heap_handle.obj
 0001:0001b09c       __acrt_execute_initializers 000000018001c09c f   libucrt:shared_initialization.obj
 0001:0001b11c       __acrt_execute_uninitializers 000000018001c11c f   libucrt:shared_initialization.obj
 0001:0001b1a0       __acrt_get_sigabrt_handler 000000018001c1a0 f   libucrt:signal.obj
 0001:0001b1d0       __acrt_initialize_signal_handlers 000000018001c1d0 f   libucrt:signal.obj
 0001:0001b1f0       raise                      000000018001c1f0 f   libucrt:signal.obj
 0001:0001b45c       __acrt_has_user_matherr    000000018001c45c f   libucrt:matherr.obj
 0001:0001b47c       __acrt_initialize_user_matherr 000000018001c47c f   libucrt:matherr.obj
 0001:0001b484       __acrt_invoke_user_matherr 000000018001c484 f   libucrt:matherr.obj
 0001:0001b690       __acrt_stdio_flush_nolock  000000018001c690 f   libucrt:fflush.obj
 0001:0001b70c       _fflush_nolock             000000018001c70c f   libucrt:fflush.obj
 0001:0001b758       _flushall                  000000018001c758 f   libucrt:fflush.obj
 0001:0001b760       __pctype_func              000000018001c760 f   libucrt:ctype.obj
 0001:0001b790       iswctype                   000000018001c790 f   libucrt:iswctype.obj
 0001:0001b7fc       __acrt_add_locale_ref      000000018001c7fc f   libucrt:locale_refcounting.obj
 0001:0001b888       __acrt_free_locale         000000018001c888 f   libucrt:locale_refcounting.obj
 0001:0001ba00       __acrt_locale_add_lc_time_reference 000000018001ca00 f   libucrt:locale_refcounting.obj
 0001:0001ba28       __acrt_locale_free_lc_time_if_unreferenced 000000018001ca28 f   libucrt:locale_refcounting.obj
 0001:0001ba60       __acrt_locale_release_lc_time_reference 000000018001ca60 f   libucrt:locale_refcounting.obj
 0001:0001ba88       __acrt_release_locale_ref  000000018001ca88 f   libucrt:locale_refcounting.obj
 0001:0001bb30       __acrt_update_thread_locale_data 000000018001cb30 f   libucrt:locale_refcounting.obj
 0001:0001bba0       _updatetlocinfoEx_nolock   000000018001cba0 f   libucrt:locale_refcounting.obj
 0001:0001bc08       _query_new_mode            000000018001cc08 f   libucrt:new_mode.obj
 0001:0001bc10       __acrt_DownlevelLocaleNameToLCID 000000018001cc10 f   libucrt:lcidtoname_downlevel.obj
 0001:0001bcc0       _isleadbyte_l              000000018001ccc0 f i libucrt:_wctype.obj
 0001:0001bd0c       ?__mbrtowc_utf8@__crt_mbstring@@YA_KPEA_WPEBD_KPEAU_Mbstatet@@@Z 000000018001cd0c f   libucrt:mbrtowc.obj
 0001:0001bd48       ?__mbsrtowcs_utf8@__crt_mbstring@@YA_KPEA_WPEAPEBD_KPEAU_Mbstatet@@@Z 000000018001cd48 f   libucrt:mbrtowc.obj
 0001:0001bec0       __acrt_fp_strflt_to_string 000000018001cec0 f   libucrt:_fptostr.obj
 0001:0001c010       ?divide@__crt_strtox@@YA_KAEAUbig_integer@1@AEBU21@@Z 000000018001d010 f i libucrt:cfout.obj
 0001:0001c43c       __acrt_fltout              000000018001d43c f   libucrt:cfout.obj
 0001:0001d708       fegetround                 000000018001e708 f   libucrt:fegetround.obj
 0001:0001d71c       _fcloseall                 000000018001e71c f   libucrt:closeall.obj
 0001:0001d7d0       __acrt_stdio_free_buffer_nolock 000000018001e7d0 f   libucrt:_freebuf.obj
 0001:0001d810       _isatty                    000000018001e810 f   libucrt:isatty.obj
 0001:0001d870       __acrt_locale_free_monetary 000000018001e870 f   libucrt:initmon.obj
 0001:0001d97c       __acrt_locale_free_numeric 000000018001e97c f   libucrt:initnum.obj
 0001:0001da40       __acrt_locale_free_time    000000018001ea40 f   libucrt:inittime.obj
 0001:0001db48       __acrt_GetStringTypeA      000000018001eb48 f   libucrt:getstringtypea.obj
 0001:0001dcd8       __acrt_lowio_create_handle_array 000000018001ecd8 f   libucrt:osfinfo.obj
 0001:0001dd80       __acrt_lowio_destroy_handle_array 000000018001ed80 f   libucrt:osfinfo.obj
 0001:0001ddd0       __acrt_lowio_ensure_fh_exists 000000018001edd0 f   libucrt:osfinfo.obj
 0001:0001de78       __acrt_lowio_lock_fh       000000018001ee78 f   libucrt:osfinfo.obj
 0001:0001dea0       __acrt_lowio_unlock_fh     000000018001eea0 f   libucrt:osfinfo.obj
 0001:0001dec8       _free_osfhnd               000000018001eec8 f   libucrt:osfinfo.obj
 0001:0001df84       _get_osfhandle             000000018001ef84 f   libucrt:osfinfo.obj
 0001:0001e000       qsort                      000000018001f000 f   libucrt:qsort.obj
 0001:0001e3a0       strncpy_s                  000000018001f3a0 f   libucrt:strncpy_s.obj
 0001:0001e520       strpbrk                    000000018001f520 f   libucrt:strpbrk.obj
 0001:0001e8e8       _mbsdec                    000000018001f8e8 f   libucrt:mbsdec.obj
 0001:0001e8f0       _mbsdec_l                  000000018001f8f0 f   libucrt:mbsdec.obj
 0001:0001ec9c       __acrt_LCMapStringA        000000018001fc9c f   libucrt:lcmapstringa.obj
 0001:0001edd8       _commit                    000000018001fdd8 f   libucrt:commit.obj
 0001:0001f6e8       _write                     00000001800206e8 f   libucrt:write.obj
 0001:0001f7d4       _write_nolock              00000001800207d4 f   libucrt:write.obj
 0001:0001fab8       __acrt_GetStringTypeW      0000000180020ab8 f   libucrt:getstringtypew.obj
 0001:0001fac0       __ascii_wcsnicmp           0000000180020ac0 f   libucrt:wcsnicmp.obj
 0001:0001fb0c       ?__mbrtoc32_utf8@__crt_mbstring@@YA_KPEA_UPEBD_KPEAU_Mbstatet@@@Z 0000000180020b0c f   libucrt:mbrtoc32.obj
 0001:0001fce4       _controlfp_s               0000000180020ce4 f   libucrt:contrlfp.obj
 0001:0001fd48       fegetenv                   0000000180020d48 f   libucrt:fegetenv.obj
 0001:0001fd68       fesetenv                   0000000180020d68 f   libucrt:fesetenv.obj
 0001:0001fdb4       feholdexcept               0000000180020db4 f   libucrt:feholdexcept.obj
 0001:0001fe04       ceil                       0000000180020e04 f   libucrt:ceil.obj
 0001:0001fed0       log10                      0000000180020ed0 f   libucrt:log10.obj
 0001:0002047c       __acrt_fenv_get_common_round_control 000000018002147c f   libucrt:_fenvutils.obj
 0001:00020488       __acrt_fenv_get_control    0000000180021488 f   libucrt:_fenvutils.obj
 0001:0002057c       __acrt_fenv_get_status     000000018002157c f   libucrt:_fenvutils.obj
 0001:000205d0       __acrt_fenv_set_control    00000001800215d0 f   libucrt:_fenvutils.obj
 0001:00020718       __acrt_fenv_set_status     0000000180021718 f   libucrt:_fenvutils.obj
 0001:00020838       _lseeki64_nolock           0000000180021838 f   libucrt:lseek.obj
 0001:00020840       _fclose_nolock             0000000180021840 f   libucrt:fclose.obj
 0001:000208c4       fclose                     00000001800218c4 f   libucrt:fclose.obj
 0001:00020928       _query_app_type            0000000180021928 f   libucrt:report_runtime_error.obj
 0001:00020930       __strncnt                  0000000180021930 f   libucrt:strncnt.obj
 0001:00020948       _putwch_nolock             0000000180021948 f   libucrt:putwch.obj
 0001:00020984       _clearfp                   0000000180021984 f   libucrt:ieee.obj
 0001:000209f4       _control87                 00000001800219f4 f   libucrt:ieee.obj
 0001:00020de0       _handle_error              0000000180021de0 f   libucrt:libm_error.obj
 0001:00020f08       _handle_nan                0000000180021f08 f   libucrt:libm_error.obj
 0001:00020f30       __acrt_initialize_fma3     0000000180021f30 f   libucrt:fma3_available.obj
 0001:00020fa0       _log10_special             0000000180021fa0 f   libucrt:log_special.obj
 0001:000210cc       _close                     00000001800220cc f   libucrt:close.obj
 0001:00021170       _close_nolock              0000000180022170 f   libucrt:close.obj
 0001:00021230       ?__acrt_stdio_free_stream@@YAXV__crt_stdio_stream@@@Z 0000000180022230 f   libucrt:stream.obj
 0001:0002124c       __dcrt_lowio_ensure_console_output_initialized 000000018002224c f   libucrt:initcon.obj
 0001:000212a0       __dcrt_terminate_console_output 00000001800222a0 f   libucrt:initcon.obj
 0001:000212bc       __dcrt_write_console       00000001800222bc f   libucrt:initcon.obj
 0001:00021390       _get_fpsr                  0000000180022390 f   libucrt:fpsr.obj
 0001:000213a0       _set_fpsr                  00000001800223a0 f   libucrt:fpsr.obj
 0001:000213aa       _fclrf                     00000001800223aa f   libucrt:fpsr.obj
 0001:000213be       _frnd                      00000001800223be f   libucrt:fpsr.obj
 0001:000213e0       _raise_exc                 00000001800223e0 f   libucrt:fpexcept.obj
 0001:00021408       _raise_exc_ex              0000000180022408 f   libucrt:fpexcept.obj
 0001:00021718       _set_errno_from_matherr    0000000180022718 f   libucrt:fpexcept.obj
 0001:00021748       _clrfp                     0000000180022748 f   libucrt:fpctrl.obj
 0001:00021768       _ctrlfp                    0000000180022768 f   libucrt:fpctrl.obj
 0001:000217e4       _set_statfp                00000001800227e4 f   libucrt:fpctrl.obj
 0001:00021804       _statfp                    0000000180022804 f   libucrt:fpctrl.obj
 0001:00021815       IsProcessorFeaturePresent  0000000180022815 f   kernel32:KERNEL32.dll
 0001:00021820       _FindPESection             0000000180022820 f   LIBCMT:pesect.obj
 0001:00021870       _IsNonwritableInCurrentImage 0000000180022870 f   LIBCMT:pesect.obj
 0001:000218c0       _ValidateImageBase         00000001800228c0 f   LIBCMT:pesect.obj
 0001:000218f0       strrchr                    00000001800228f0 f   libvcruntime:strrchr.obj
 0001:00021a30       _guard_dispatch_icall_nop  0000000180022a30 f   LIBCMT:guard_dispatch.obj
 0001:00021a50       _guard_xfg_dispatch_icall_nop 0000000180022a50 f   LIBCMT:guard_xfg_dispatch.obj
 0002:00000000       __imp_RegQueryValueExW     0000000180023000     advapi32:ADVAPI32.dll
 0002:00000008       __imp_RegSetValueExW       0000000180023008     advapi32:ADVAPI32.dll
 0002:00000010       __imp_RegQueryInfoKeyW     0000000180023010     advapi32:ADVAPI32.dll
 0002:00000018       __imp_RegOpenKeyExW        0000000180023018     advapi32:ADVAPI32.dll
 0002:00000020       __imp_RegEnumKeyExW        0000000180023020     advapi32:ADVAPI32.dll
 0002:00000028       __imp_RegDeleteValueW      0000000180023028     advapi32:ADVAPI32.dll
 0002:00000030       __imp_RegDeleteKeyW        0000000180023030     advapi32:ADVAPI32.dll
 0002:00000038       __imp_RegCreateKeyExW      0000000180023038     advapi32:ADVAPI32.dll
 0002:00000040       __imp_RegCloseKey          0000000180023040     advapi32:ADVAPI32.dll
 0002:00000048       \177ADVAPI32_NULL_THUNK_DATA 0000000180023048     advapi32:ADVAPI32.dll
 0002:00000050       __imp_GetObjectW           0000000180023050     gdi32:GDI32.dll
 0002:00000058       __imp_SelectObject         0000000180023058     gdi32:GDI32.dll
 0002:00000060       __imp_DeleteObject         0000000180023060     gdi32:GDI32.dll
 0002:00000068       __imp_CreateCompatibleDC   0000000180023068     gdi32:GDI32.dll
 0002:00000070       __imp_BitBlt               0000000180023070     gdi32:GDI32.dll
 0002:00000078       __imp_SetWindowOrgEx       0000000180023078     gdi32:GDI32.dll
 0002:00000080       __imp_SetWindowExtEx       0000000180023080     gdi32:GDI32.dll
 0002:00000088       __imp_SetViewportOrgEx     0000000180023088     gdi32:GDI32.dll
 0002:00000090       __imp_LPtoDP               0000000180023090     gdi32:GDI32.dll
 0002:00000098       __imp_SetMapMode           0000000180023098     gdi32:GDI32.dll
 0002:000000a0       __imp_SaveDC               00000001800230a0     gdi32:GDI32.dll
 0002:000000a8       __imp_RestoreDC            00000001800230a8     gdi32:GDI32.dll
 0002:000000b0       __imp_GetDeviceCaps        00000001800230b0     gdi32:GDI32.dll
 0002:000000b8       __imp_DeleteMetaFile       00000001800230b8     gdi32:GDI32.dll
 0002:000000c0       __imp_DeleteDC             00000001800230c0     gdi32:GDI32.dll
 0002:000000c8       __imp_CreateRectRgnIndirect 00000001800230c8     gdi32:GDI32.dll
 0002:000000d0       __imp_CreateMetaFileW      00000001800230d0     gdi32:GDI32.dll
 0002:000000d8       __imp_CreateDCW            00000001800230d8     gdi32:GDI32.dll
 0002:000000e0       __imp_CloseMetaFile        00000001800230e0     gdi32:GDI32.dll
 0002:000000e8       \177GDI32_NULL_THUNK_DATA  00000001800230e8     gdi32:GDI32.dll
 0002:000000f0       __imp_CloseHandle          00000001800230f0     kernel32:KERNEL32.dll
 0002:000000f8       __imp_SetEvent             00000001800230f8     kernel32:KERNEL32.dll
 0002:00000100       __imp_CreateMutexW         0000000180023100     kernel32:KERNEL32.dll
 0002:00000108       __imp_CreateEventW         0000000180023108     kernel32:KERNEL32.dll
 0002:00000110       __imp_GetCurrentProcessId  0000000180023110     kernel32:KERNEL32.dll
 0002:00000118       __imp_WriteConsoleW        0000000180023118     kernel32:KERNEL32.dll
 0002:00000120       __imp_CreateFileW          0000000180023120     kernel32:KERNEL32.dll
 0002:00000128       __imp_GetConsoleMode       0000000180023128     kernel32:KERNEL32.dll
 0002:00000130       __imp_GetConsoleOutputCP   0000000180023130     kernel32:KERNEL32.dll
 0002:00000138       __imp_WriteFile            0000000180023138     kernel32:KERNEL32.dll
 0002:00000140       __imp_FlushFileBuffers     0000000180023140     kernel32:KERNEL32.dll
 0002:00000148       __imp_SetStdHandle         0000000180023148     kernel32:KERNEL32.dll
 0002:00000150       __imp_GetStringTypeW       0000000180023150     kernel32:KERNEL32.dll
 0002:00000158       __imp_SetFilePointerEx     0000000180023158     kernel32:KERNEL32.dll
 0002:00000160       __imp_FreeEnvironmentStringsW 0000000180023160     kernel32:KERNEL32.dll
 0002:00000168       __imp_lstrcmpiW            0000000180023168     kernel32:KERNEL32.dll
 0002:00000170       __imp_GetCommandLineW      0000000180023170     kernel32:KERNEL32.dll
 0002:00000178       __imp_GetCommandLineA      0000000180023178     kernel32:KERNEL32.dll
 0002:00000180       __imp_GetCPInfo            0000000180023180     kernel32:KERNEL32.dll
 0002:00000188       __imp_GetOEMCP             0000000180023188     kernel32:KERNEL32.dll
 0002:00000190       __imp_GetACP               0000000180023190     kernel32:KERNEL32.dll
 0002:00000198       __imp_IsValidCodePage      0000000180023198     kernel32:KERNEL32.dll
 0002:000001a0       __imp_FindNextFileW        00000001800231a0     kernel32:KERNEL32.dll
 0002:000001a8       __imp_FindFirstFileExW     00000001800231a8     kernel32:KERNEL32.dll
 0002:000001b0       __imp_FindClose            00000001800231b0     kernel32:KERNEL32.dll
 0002:000001b8       __imp_GetFileType          00000001800231b8     kernel32:KERNEL32.dll
 0002:000001c0       __imp_GetStdHandle         00000001800231c0     kernel32:KERNEL32.dll
 0002:000001c8       __imp_LCMapStringW         00000001800231c8     kernel32:KERNEL32.dll
 0002:000001d0       __imp_HeapReAlloc          00000001800231d0     kernel32:KERNEL32.dll
 0002:000001d8       __imp_HeapSize             00000001800231d8     kernel32:KERNEL32.dll
 0002:000001e0       __imp_MulDiv               00000001800231e0     kernel32:KERNEL32.dll
 0002:000001e8       __imp_GlobalLock           00000001800231e8     kernel32:KERNEL32.dll
 0002:000001f0       __imp_GlobalUnlock         00000001800231f0     kernel32:KERNEL32.dll
 0002:000001f8       __imp_GlobalAlloc          00000001800231f8     kernel32:KERNEL32.dll
 0002:00000200       __imp_FindResourceW        0000000180023200     kernel32:KERNEL32.dll
 0002:00000208       __imp_SizeofResource       0000000180023208     kernel32:KERNEL32.dll
 0002:00000210       __imp_LoadResource         0000000180023210     kernel32:KERNEL32.dll
 0002:00000218       __imp_LoadLibraryExW       0000000180023218     kernel32:KERNEL32.dll
 0002:00000220       __imp_GetProcAddress       0000000180023220     kernel32:KERNEL32.dll
 0002:00000228       __imp_GetModuleHandleW     0000000180023228     kernel32:KERNEL32.dll
 0002:00000230       __imp_GetModuleFileNameW   0000000180023230     kernel32:KERNEL32.dll
 0002:00000238       __imp_FreeLibrary          0000000180023238     kernel32:KERNEL32.dll
 0002:00000240       __imp_DisableThreadLibraryCalls 0000000180023240     kernel32:KERNEL32.dll
 0002:00000248       __imp_GetCurrentThreadId   0000000180023248     kernel32:KERNEL32.dll
 0002:00000250       __imp_Sleep                0000000180023250     kernel32:KERNEL32.dll
 0002:00000258       __imp_WaitForSingleObject  0000000180023258     kernel32:KERNEL32.dll
 0002:00000260       __imp_ReleaseMutex         0000000180023260     kernel32:KERNEL32.dll
 0002:00000268       __imp_ResetEvent           0000000180023268     kernel32:KERNEL32.dll
 0002:00000270       __imp_EnterCriticalSection 0000000180023270     kernel32:KERNEL32.dll
 0002:00000278       __imp_LeaveCriticalSection 0000000180023278     kernel32:KERNEL32.dll
 0002:00000280       __imp_SetLastError         0000000180023280     kernel32:KERNEL32.dll
 0002:00000288       __imp_EncodePointer        0000000180023288     kernel32:KERNEL32.dll
 0002:00000290       __imp_DeleteCriticalSection 0000000180023290     kernel32:KERNEL32.dll
 0002:00000298       __imp_InitializeCriticalSectionEx 0000000180023298     kernel32:KERNEL32.dll
 0002:000002a0       __imp_GetLastError         00000001800232a0     kernel32:KERNEL32.dll
 0002:000002a8       __imp_RaiseException       00000001800232a8     kernel32:KERNEL32.dll
 0002:000002b0       __imp_DecodePointer        00000001800232b0     kernel32:KERNEL32.dll
 0002:000002b8       __imp_WideCharToMultiByte  00000001800232b8     kernel32:KERNEL32.dll
 0002:000002c0       __imp_GetEnvironmentStringsW 00000001800232c0     kernel32:KERNEL32.dll
 0002:000002c8       __imp_MultiByteToWideChar  00000001800232c8     kernel32:KERNEL32.dll
 0002:000002d0       __imp_GetModuleHandleExW   00000001800232d0     kernel32:KERNEL32.dll
 0002:000002d8       __imp_ExitProcess          00000001800232d8     kernel32:KERNEL32.dll
 0002:000002e0       __imp_VirtualQuery         00000001800232e0     kernel32:KERNEL32.dll
 0002:000002e8       __imp_VirtualProtect       00000001800232e8     kernel32:KERNEL32.dll
 0002:000002f0       __imp_GetSystemInfo        00000001800232f0     kernel32:KERNEL32.dll
 0002:000002f8       __imp_TlsFree              00000001800232f8     kernel32:KERNEL32.dll
 0002:00000300       __imp_TlsSetValue          0000000180023300     kernel32:KERNEL32.dll
 0002:00000308       __imp_TlsGetValue          0000000180023308     kernel32:KERNEL32.dll
 0002:00000310       __imp_TlsAlloc             0000000180023310     kernel32:KERNEL32.dll
 0002:00000318       __imp_RtlPcToFileHeader    0000000180023318     kernel32:KERNEL32.dll
 0002:00000320       __imp_InterlockedFlushSList 0000000180023320     kernel32:KERNEL32.dll
 0002:00000328       __imp_RtlUnwindEx          0000000180023328     kernel32:KERNEL32.dll
 0002:00000330       __imp_LoadLibraryExA       0000000180023330     kernel32:KERNEL32.dll
 0002:00000338       __imp_VirtualFree          0000000180023338     kernel32:KERNEL32.dll
 0002:00000340       __imp_VirtualAlloc         0000000180023340     kernel32:KERNEL32.dll
 0002:00000348       __imp_FlushInstructionCache 0000000180023348     kernel32:KERNEL32.dll
 0002:00000350       __imp_InterlockedPushEntrySList 0000000180023350     kernel32:KERNEL32.dll
 0002:00000358       __imp_InterlockedPopEntrySList 0000000180023358     kernel32:KERNEL32.dll
 0002:00000360       __imp_GetProcessHeap       0000000180023360     kernel32:KERNEL32.dll
 0002:00000368       __imp_HeapFree             0000000180023368     kernel32:KERNEL32.dll
 0002:00000370       __imp_HeapAlloc            0000000180023370     kernel32:KERNEL32.dll
 0002:00000378       __imp_OutputDebugStringW   0000000180023378     kernel32:KERNEL32.dll
 0002:00000380       __imp_InitializeSListHead  0000000180023380     kernel32:KERNEL32.dll
 0002:00000388       __imp_GetSystemTimeAsFileTime 0000000180023388     kernel32:KERNEL32.dll
 0002:00000390       __imp_QueryPerformanceCounter 0000000180023390     kernel32:KERNEL32.dll
 0002:00000398       __imp_GetStartupInfoW      0000000180023398     kernel32:KERNEL32.dll
 0002:000003a0       __imp_IsDebuggerPresent    00000001800233a0     kernel32:KERNEL32.dll
 0002:000003a8       __imp_IsProcessorFeaturePresent 00000001800233a8     kernel32:KERNEL32.dll
 0002:000003b0       __imp_TerminateProcess     00000001800233b0     kernel32:KERNEL32.dll
 0002:000003b8       __imp_GetCurrentProcess    00000001800233b8     kernel32:KERNEL32.dll
 0002:000003c0       __imp_InitializeCriticalSectionAndSpinCount 00000001800233c0     kernel32:KERNEL32.dll
 0002:000003c8       __imp_WaitForSingleObjectEx 00000001800233c8     kernel32:KERNEL32.dll
 0002:000003d0       __imp_RtlCaptureContext    00000001800233d0     kernel32:KERNEL32.dll
 0002:000003d8       __imp_RtlLookupFunctionEntry 00000001800233d8     kernel32:KERNEL32.dll
 0002:000003e0       __imp_RtlVirtualUnwind     00000001800233e0     kernel32:KERNEL32.dll
 0002:000003e8       __imp_UnhandledExceptionFilter 00000001800233e8     kernel32:KERNEL32.dll
 0002:000003f0       __imp_SetUnhandledExceptionFilter 00000001800233f0     kernel32:KERNEL32.dll
 0002:000003f8       \177KERNEL32_NULL_THUNK_DATA 00000001800233f8     kernel32:KERNEL32.dll
 0002:00000400       __imp_OleCreatePropertyFrame 0000000180023400     oleaut32:OLEAUT32.dll
 0002:00000408       __imp_UnRegisterTypeLib    0000000180023408     oleaut32:OLEAUT32.dll
 0002:00000410       __imp_RegisterTypeLib      0000000180023410     oleaut32:OLEAUT32.dll
 0002:00000418       __imp_LoadRegTypeLib       0000000180023418     oleaut32:OLEAUT32.dll
 0002:00000420       __imp_LoadTypeLib          0000000180023420     oleaut32:OLEAUT32.dll
 0002:00000428       __imp_VarUI4FromStr        0000000180023428     oleaut32:OLEAUT32.dll
 0002:00000430       __imp_VariantInit          0000000180023430     oleaut32:OLEAUT32.dll
 0002:00000438       __imp_SysAllocStringByteLen 0000000180023438     oleaut32:OLEAUT32.dll
 0002:00000440       __imp_SysStringByteLen     0000000180023440     oleaut32:OLEAUT32.dll
 0002:00000448       __imp_VariantChangeType    0000000180023448     oleaut32:OLEAUT32.dll
 0002:00000450       __imp_VariantClear         0000000180023450     oleaut32:OLEAUT32.dll
 0002:00000458       __imp_SysStringLen         0000000180023458     oleaut32:OLEAUT32.dll
 0002:00000460       __imp_SysFreeString        0000000180023460     oleaut32:OLEAUT32.dll
 0002:00000468       __imp_SysAllocStringLen    0000000180023468     oleaut32:OLEAUT32.dll
 0002:00000470       __imp_SysAllocString       0000000180023470     oleaut32:OLEAUT32.dll
 0002:00000478       \177OLEAUT32_NULL_THUNK_DATA 0000000180023478     oleaut32:OLEAUT32.dll
 0002:00000480       __imp_UnregisterClassW     0000000180023480     user32:USER32.dll
 0002:00000488       __imp_PostMessageW         0000000180023488     user32:USER32.dll
 0002:00000490       __imp_DefWindowProcW       0000000180023490     user32:USER32.dll
 0002:00000498       __imp_CallWindowProcW      0000000180023498     user32:USER32.dll
 0002:000004a0       __imp_RegisterClassExW     00000001800234a0     user32:USER32.dll
 0002:000004a8       __imp_GetClassInfoExW      00000001800234a8     user32:USER32.dll
 0002:000004b0       __imp_CreateWindowExW      00000001800234b0     user32:USER32.dll
 0002:000004b8       __imp_IsWindow             00000001800234b8     user32:USER32.dll
 0002:000004c0       __imp_IsChild              00000001800234c0     user32:USER32.dll
 0002:000004c8       __imp_DestroyWindow        00000001800234c8     user32:USER32.dll
 0002:000004d0       __imp_ShowWindow           00000001800234d0     user32:USER32.dll
 0002:000004d8       __imp_SetWindowPos         00000001800234d8     user32:USER32.dll
 0002:000004e0       __imp_CharNextW            00000001800234e0     user32:USER32.dll
 0002:000004e8       __imp_SetFocus             00000001800234e8     user32:USER32.dll
 0002:000004f0       __imp_LoadBitmapW          00000001800234f0     user32:USER32.dll
 0002:000004f8       __imp_RegisterClassW       00000001800234f8     user32:USER32.dll
 0002:00000500       __imp_PeekMessageW         0000000180023500     user32:USER32.dll
 0002:00000508       __imp_LoadCursorW          0000000180023508     user32:USER32.dll
 0002:00000510       __imp_GetParent            0000000180023510     user32:USER32.dll
 0002:00000518       __imp_SetWindowLongPtrW    0000000180023518     user32:USER32.dll
 0002:00000520       __imp_GetWindowLongPtrW    0000000180023520     user32:USER32.dll
 0002:00000528       __imp_PtInRect             0000000180023528     user32:USER32.dll
 0002:00000530       __imp_EqualRect            0000000180023530     user32:USER32.dll
 0002:00000538       __imp_OffsetRect           0000000180023538     user32:USER32.dll
 0002:00000540       __imp_UnionRect            0000000180023540     user32:USER32.dll
 0002:00000548       __imp_IntersectRect        0000000180023548     user32:USER32.dll
 0002:00000550       __imp_GetClientRect        0000000180023550     user32:USER32.dll
 0002:00000558       __imp_InvalidateRect       0000000180023558     user32:USER32.dll
 0002:00000560       __imp_SetWindowRgn         0000000180023560     user32:USER32.dll
 0002:00000568       __imp_EndPaint             0000000180023568     user32:USER32.dll
 0002:00000570       __imp_BeginPaint           0000000180023570     user32:USER32.dll
 0002:00000578       __imp_ReleaseDC            0000000180023578     user32:USER32.dll
 0002:00000580       __imp_GetDC                0000000180023580     user32:USER32.dll
 0002:00000588       __imp_GetKeyState          0000000180023588     user32:USER32.dll
 0002:00000590       __imp_GetFocus             0000000180023590     user32:USER32.dll
 0002:00000598       \177USER32_NULL_THUNK_DATA 0000000180023598     user32:USER32.dll
 0002:000005a0       __imp_CoCreateInstance     00000001800235a0     ole32:ole32.dll
 0002:000005a8       __imp_StringFromGUID2      00000001800235a8     ole32:ole32.dll
 0002:000005b0       __imp_CoTaskMemAlloc       00000001800235b0     ole32:ole32.dll
 0002:000005b8       __imp_CoTaskMemFree        00000001800235b8     ole32:ole32.dll
 0002:000005c0       __imp_ReadClassStm         00000001800235c0     ole32:ole32.dll
 0002:000005c8       __imp_WriteClassStm        00000001800235c8     ole32:ole32.dll
 0002:000005d0       __imp_CreateDataAdviseHolder 00000001800235d0     ole32:ole32.dll
 0002:000005d8       __imp_OleSaveToStream      00000001800235d8     ole32:ole32.dll
 0002:000005e0       __imp_CreateOleAdviseHolder 00000001800235e0     ole32:ole32.dll
 0002:000005e8       __imp_OleRegGetUserType    00000001800235e8     ole32:ole32.dll
 0002:000005f0       __imp_OleRegGetMiscStatus  00000001800235f0     ole32:ole32.dll
 0002:000005f8       __imp_OleRegEnumVerbs      00000001800235f8     ole32:ole32.dll
 0002:00000600       __imp_CLSIDFromProgID      0000000180023600     ole32:ole32.dll
 0002:00000608       __imp_CoTaskMemRealloc     0000000180023608     ole32:ole32.dll
 0002:00000610       \177ole32_NULL_THUNK_DATA  0000000180023610     ole32:ole32.dll
 0002:00000618       __guard_check_icall_fptr   0000000180023618     LIBCMT:guard_support.obj
 0002:00000620       __guard_xfg_check_icall_fptr 0000000180023620     LIBCMT:guard_support.obj
 0002:00000628       __guard_dispatch_icall_fptr 0000000180023628     LIBCMT:guard_support.obj
 0002:00000630       __guard_xfg_dispatch_icall_fptr 0000000180023630     LIBCMT:guard_support.obj
 0002:00000638       __guard_xfg_table_dispatch_icall_fptr 0000000180023638     LIBCMT:guard_support.obj
 0002:00000640       __xc_a                     0000000180023640     LIBCMT:initializers.obj
 0002:00000670       __xc_z                     0000000180023670     LIBCMT:initializers.obj
 0002:00000678       __xi_a                     0000000180023678     LIBCMT:initializers.obj
 0002:00000688       __acrt_stdio_initializer   0000000180023688     libucrt:stdio_initializer.obj
 0002:00000690       __acrt_multibyte_initializer 0000000180023690     libucrt:multibyte_initializer.obj
 0002:00000698       __acrt_tran_fma3_initializer 0000000180023698     libucrt:fma3_initializer.obj
 0002:000006a0       __xi_z                     00000001800236a0     LIBCMT:initializers.obj
 0002:000006a8       __xl_a                     00000001800236a8     LIBCMT:tlssup.obj
 0002:000006b0       __xl_z                     00000001800236b0     LIBCMT:tlssup.obj
 0002:000006b8       __xp_a                     00000001800236b8     LIBCMT:initializers.obj
 0002:000006c0       __acrt_locale_terminator   00000001800236c0     libucrt:locale_initializer.obj
 0002:000006c8       __dcrt_console_output_terminator 00000001800236c8     libucrt:console_output_initializer.obj
 0002:000006d0       __acrt_stdio_terminator    00000001800236d0     libucrt:stdio_initializer.obj
 0002:000006d8       __xp_z                     00000001800236d8     LIBCMT:initializers.obj
 0002:000006e0       __xt_a                     00000001800236e0     LIBCMT:initializers.obj
 0002:000006e8       __xt_z                     00000001800236e8     LIBCMT:initializers.obj
 0002:000006f0       ??_C@_13HADIAKP@?$AAS@     00000001800236f0     OposVariant.obj
 0002:000006f4       ??_C@_13LHMFKAAD@?$AAM@    00000001800236f4     OposVariant.obj
 0002:000006f8       ??_C@_13MKMNOPIJ@?$AAD@    00000001800236f8     OposVariant.obj
 0002:000006fc       ??_C@_13OPKGLAFF@?$AAB@    00000001800236fc     OposVariant.obj
 0002:00000700       ??_C@_17LLMMEOJD@?$AAV?$AAa?$AAl@ 0000000180023700     OposVariant.obj
 0002:00000708       ??_C@_1BI@JFAIJMHL@?$AAF?$AAo?$AAr?$AAc?$AAe?$AAR?$AAe?$AAm?$AAo?$AAv?$AAe@ 0000000180023708     OposVariant.obj
 0002:00000720       ??_C@_1BC@GCKHIPE@?$AAN?$AAo?$AAR?$AAe?$AAm?$AAo?$AAv?$AAe@ 0000000180023720     OposVariant.obj
 0002:00000738       ??_C@_1O@JDLOHAN@?$AAD?$AAe?$AAl?$AAe?$AAt?$AAe@ 0000000180023738     OposVariant.obj
 0002:00000748       ??_C@_11LOCGONAA@@         0000000180023748     OposVariant.obj
 0002:00000750       IID_IOPOSPINPad_1_5        0000000180023750     PINPad.obj
 0002:00000760       IID_IOPOSPINPad_1_8        0000000180023760     PINPad.obj
 0002:00000770       IID_IOPOSPINPad_1_9        0000000180023770     PINPad.obj
 0002:00000780       IID_IOPOSPINPad_1_10       0000000180023780     PINPad.obj
 0002:00000790       IID_IOPOSPINPad            0000000180023790     PINPad.obj
 0002:000007a0       LIBID_OposPINPad_CCO       00000001800237a0     PINPad.obj
 0002:000007b0       DIID__IOPOSPINPadEvents    00000001800237b0     PINPad.obj
 0002:000007c0       CLSID_OPOSPINPad           00000001800237c0     PINPad.obj
 0002:000007d0       _GUID_00000114_0000_0000_c000_000000000046 00000001800237d0     PINPad.obj
 0002:000007e0       ??_C@_1BK@BIGILECK@?$AAA?$AAd?$AAv?$AAa?$AAp?$AAi?$AA3?$AA2?$AA?4?$AAd?$AAl?$AAl@ 00000001800237e0     PINPad.obj
 0002:00000800       ??_C@_0BI@MNCFCPFK@RegCreateKeyTransactedW@ 0000000180023800     PINPad.obj
 0002:00000818       _GUID_b196b287_bab4_101a_b69c_00aa00341d07 0000000180023818     PINPad.obj
 0002:00000828       _GUID_b196b285_bab4_101a_b69c_00aa00341d07 0000000180023828     PINPad.obj
 0002:00000838       _GUID_a6bc3ac0_dbaa_11ce_9de3_00aa004bb851 0000000180023838     PINPad.obj
 0002:00000848       _GUID_0000010c_0000_0000_c000_000000000046 0000000180023848     PINPad.obj
 0002:00000858       _GUID_00000146_0000_0000_c000_000000000046 0000000180023858     PINPad.obj
 0002:00000870       ?_entries@?1??_GetEntries@COPOSPINPad@@SAPEBU_ATL_INTMAP_ENTRY@ATL@@XZ@4QBU34@B 0000000180023870     PINPad.obj
 0002:00000af8       _GUID_cf51ed10_62fe_11cf_bf86_00a0c9034836 0000000180023af8     PINPad.obj
 0002:00000b08       _GUID_0000010a_0000_0000_c000_000000000046 0000000180023b08     PINPad.obj
 0002:00000b18       _GUID_b196b283_bab4_101a_b69c_00aa00341d07 0000000180023b18     PINPad.obj
 0002:00000b28       _GUID_cb5bdc81_93c1_11cf_8f20_00805f2cd064 0000000180023b28     PINPad.obj
 0002:00000b40       ?pPropMap@?1??GetPropertyMap@COPOSPINPad@@SAPEBUATL_PROPMAP_ENTRY@ATL@@XZ@4QBU34@B 0000000180023b40     PINPad.obj
 0002:00000be8       ??_C@_17DGDADEHL@?$AA_?$AAc?$AAx@ 0000000180023be8     PINPad.obj
 0002:00000bf0       ??_C@_17IOIMFDBO@?$AA_?$AAc?$AAy@ 0000000180023bf0     PINPad.obj
 0002:00000bf8       _GUID_922eada0_3424_11cf_b670_00aa004cd6d8 0000000180023bf8     PINPad.obj
 0002:00000c08       _GUID_9c2cad80_3424_11cf_b670_00aa004cd6d8 0000000180023c08     PINPad.obj
 0002:00000c18       _GUID_00000119_0000_0000_c000_000000000046 0000000180023c18     PINPad.obj
 0002:00000c28       _GUID_b196b289_bab4_101a_b69c_00aa00341d07 0000000180023c28     PINPad.obj
 0002:00000c38       ??_7CComModule@ATL@@6B@    0000000180023c38     PINPad.obj
 0002:00000c88       _GUID_00000117_0000_0000_c000_000000000046 0000000180023c88     PINPad.obj
 0002:00000c98       ??_7?$CComObjectCached@VCComClassFactory@ATL@@@ATL@@6B@ 0000000180023c98     PINPad.obj
 0002:00000cc8       ??_C@_1CE@PGFMOFKI@?$AAS?$AAt?$AAa?$AAt?$AAu?$AAs?$AAU?$AAp?$AAd?$AAa?$AAt?$AAe?$AAE?$AAv?$AAe@ 0000000180023cc8     PINPad.obj
 0002:00000cf0       ??_C@_1BG@LODEBHDD@?$AAE?$AAr?$AAr?$AAo?$AAr?$AAE?$AAv?$AAe?$AAn?$AAt@ 0000000180023cf0     PINPad.obj
 0002:00000d08       _GUID_00000000_0000_0000_c000_000000000046 0000000180023d08     PINPad.obj
 0002:00000d18       ??_C@_1BM@CBGEBBBJ@?$AAD?$AAi?$AAr?$AAe?$AAc?$AAt?$AAI?$AAO?$AAE?$AAv?$AAe?$AAn?$AAt@ 0000000180023d18     PINPad.obj
 0002:00000d38       _GUID_00020400_0000_0000_c000_000000000046 0000000180023d38     PINPad.obj
 0002:00000d48       ??_C@_1BE@IEBMACEM@?$AAD?$AAa?$AAt?$AAa?$AAE?$AAv?$AAe?$AAn?$AAt@ 0000000180023d48     PINPad.obj
 0002:00000d60       _GUID_b196b286_bab4_101a_b69c_00aa00341d07 0000000180023d60     PINPad.obj
 0002:00000d70       ??_C@_1BC@ENICKDH@?$AAC?$AAo?$AAn?$AAt?$AAe?$AAn?$AAt?$AAs@ 0000000180023d70     PINPad.obj
 0002:00000d88       ??_7?$CComObject@V?$CComEnum@UIEnumConnectionPoints@@$1?_GUID_b196b285_bab4_101a_b69c_00aa00341d07@@3U__s_GUID@@BPEAUIConnectionPoint@@V?$_CopyInterface@UIConnectionPoint@@@ATL@@VCComSingleThreadModel@6@@ATL@@@ATL@@6B@ 0000000180023d88     PINPad.obj
 0002:00000dc8       ??_C@_1M@KANJNLFF@?$AAC?$AAL?$AAS?$AAI?$AAD@ 0000000180023dc8     PINPad.obj
 0002:00000dd8       _GUID_0000010e_0000_0000_c000_000000000046 0000000180023dd8     PINPad.obj
 0002:00000de8       _GUID_b196b288_bab4_101a_b69c_00aa00341d07 0000000180023de8     PINPad.obj
 0002:00000df8       ??_C@_1M@EJNEECMJ@?$AAA?$AAp?$AAp?$AAI?$AAD@ 0000000180023df8     PINPad.obj
 0002:00000e10       ?rgszNeverDelete@CRegParser@ATL@@1QBQEB_WB 0000000180023e10     PINPad.obj
 0002:00000e70       _GUID_00000113_0000_0000_c000_000000000046 0000000180023e70     PINPad.obj
 0002:00000e80       ??_7CRegObject@ATL@@6B@    0000000180023e80     PINPad.obj
 0002:00000eb0       _GUID_1c2056cc_5ef4_101b_8bc8_00aa003e3b29 0000000180023eb0     PINPad.obj
 0002:00000ec0       ??_C@_1CK@OEKPKBNA@?$AAC?$AAo?$AAm?$AAp?$AAo?$AAn?$AAe?$AAn?$AAt?$AA?5?$AAC?$AAa?$AAt?$AAe?$AAg@ 0000000180023ec0     PINPad.obj
 0002:00000ef0       ??_C@_1BC@NKMMNMGL@?$AAF?$AAi?$AAl?$AAe?$AAT?$AAy?$AAp?$AAe@ 0000000180023ef0     PINPad.obj
 0002:00000f08       ??_C@_1BE@EKPAFMCP@?$AAI?$AAn?$AAt?$AAe?$AAr?$AAf?$AAa?$AAc?$AAe@ 0000000180023f08     PINPad.obj
 0002:00000f20       ??_C@_1BC@MAICEHGI@?$AAH?$AAa?$AAr?$AAd?$AAw?$AAa?$AAr?$AAe@ 0000000180023f20     PINPad.obj
 0002:00000f38       ??_C@_19HLLLM@?$AAM?$AAi?$AAm?$AAe@ 0000000180023f38     PINPad.obj
 0002:00000f48       ??_C@_17OMAOINJK@?$AAS?$AAA?$AAM@ 0000000180023f48     PINPad.obj
 0002:00000f50       ??_C@_1BC@IBECJAAI@?$AAS?$AAE?$AAC?$AAU?$AAR?$AAI?$AAT?$AAY@ 0000000180023f50     PINPad.obj
 0002:00000f68       ??_C@_1O@GBFINDKL@?$AAS?$AAY?$AAS?$AAT?$AAE?$AAM@ 0000000180023f68     PINPad.obj
 0002:00000f78       ??_C@_1BC@EAHCMADO@?$AAS?$AAo?$AAf?$AAt?$AAw?$AAa?$AAr?$AAe@ 0000000180023f78     PINPad.obj
 0002:00000f90       ??_C@_1BA@JIHHIEDE@?$AAT?$AAy?$AAp?$AAe?$AAL?$AAi?$AAb@ 0000000180023f90     PINPad.obj
 0002:00000fa0       _GUID_00000112_0000_0000_c000_000000000046 0000000180023fa0     PINPad.obj
 0002:00000fb0       ?map@?1??HKeyFromString@CRegParser@ATL@@KAPEAUHKEY__@@PEA_W@Z@4QBUkeymap@?1??123@KAPEAU4@0@Z@B 0000000180023fb0     PINPad.obj
 0002:00001090       ??_C@_19NCHLBIN@?$AAH?$AAK?$AAC?$AAR@ 0000000180024090     PINPad.obj
 0002:000010a0       ??_C@_19JAPAIJDE@?$AAH?$AAK?$AAC?$AAU@ 00000001800240a0     PINPad.obj
 0002:000010b0       ??_C@_19PEALEEJB@?$AAH?$AAK?$AAL?$AAM@ 00000001800240b0     PINPad.obj
 0002:000010c0       ??_C@_17PJOJPMPB@?$AAH?$AAK?$AAU@ 00000001800240c0     PINPad.obj
 0002:000010c8       ??_C@_19PNBHMJPL@?$AAH?$AAK?$AAP?$AAD@ 00000001800240c8     PINPad.obj
 0002:000010d8       ??_C@_19GFFAIJHG@?$AAH?$AAK?$AAD?$AAD@ 00000001800240d8     PINPad.obj
 0002:000010e8       ??_C@_19OFICIBHH@?$AAH?$AAK?$AAC?$AAC@ 00000001800240e8     PINPad.obj
 0002:000010f8       ??_C@_1CE@PACHPJFI@?$AAH?$AAK?$AAE?$AAY?$AA_?$AAC?$AAL?$AAA?$AAS?$AAS?$AAE?$AAS?$AA_?$AAR?$AAO@ 00000001800240f8     PINPad.obj
 0002:00001120       ??_C@_1CE@HLHNCBPM@?$AAH?$AAK?$AAE?$AAY?$AA_?$AAC?$AAU?$AAR?$AAR?$AAE?$AAN?$AAT?$AA_?$AAU?$AAS@ 0000000180024120     PINPad.obj
 0002:00001148       ??_C@_1CG@GFBEANJL@?$AAH?$AAK?$AAE?$AAY?$AA_?$AAL?$AAO?$AAC?$AAA?$AAL?$AA_?$AAM?$AAA?$AAC?$AAH@ 0000000180024148     PINPad.obj
 0002:00001170       ??_C@_1BG@BGODANIO@?$AAH?$AAK?$AAE?$AAY?$AA_?$AAU?$AAS?$AAE?$AAR?$AAS@ 0000000180024170     PINPad.obj
 0002:00001188       ??_C@_1CM@KHNNAOIC@?$AAH?$AAK?$AAE?$AAY?$AA_?$AAP?$AAE?$AAR?$AAF?$AAO?$AAR?$AAM?$AAA?$AAN?$AAC@ 0000000180024188     PINPad.obj
 0002:000011b8       _GUID_3af24292_0c96_11ce_a0cf_00aa00600ab8 00000001800241b8     PINPad.obj
 0002:000011c8       ??_C@_1BM@HAGMMHIA@?$AAH?$AAK?$AAE?$AAY?$AA_?$AAD?$AAY?$AAN?$AA_?$AAD?$AAA?$AAT?$AAA@ 00000001800241c8     PINPad.obj
 0002:000011e8       ??_C@_1CI@BBJOACGG@?$AAH?$AAK?$AAE?$AAY?$AA_?$AAC?$AAU?$AAR?$AAR?$AAE?$AAN?$AAT?$AA_?$AAC?$AAO@ 00000001800241e8     PINPad.obj
 0002:00001210       _GUID_00000127_0000_0000_c000_000000000046 0000000180024210     PINPad.obj
 0002:00001220       _GUID_0000010d_0000_0000_c000_000000000046 0000000180024220     PINPad.obj
 0002:00001230       _GUID_00000109_0000_0000_c000_000000000046 0000000180024230     PINPad.obj
 0002:00001240       _GUID_7fd52380_4e07_101b_ae2d_08002b2ec713 0000000180024240     PINPad.obj
 0002:00001250       ??_C@_1EA@NHKLICFA@?$AAH?$AAK?$AAC?$AAU?$AA?$AN?$AA?6?$AA?$HL?$AA?7?$AAS?$AAo?$AAf?$AAt?$AAw?$AAa?$AAr@ 0000000180024250     PINPad.obj
 0002:00001290       ??_C@_1BE@LJOLIMEM@?$AA?$AN?$AA?6?$AA?7?$AA?$HN?$AA?$AN?$AA?6?$AA?$HN?$AA?$AN?$AA?6@ 0000000180024290     PINPad.obj
 0002:000012a8       ??_C@_1M@PPPPCDEP@?$AAA?$AAP?$AAP?$AAI?$AAD@ 00000001800242a8     PINPad.obj
 0002:000012b8       ??_C@_1O@MNLDABAF@?$AAM?$AAo?$AAd?$AAu?$AAl?$AAe@ 00000001800242b8     PINPad.obj
 0002:000012c8       ??_C@_1BG@JBACFMF@?$AAM?$AAo?$AAd?$AAu?$AAl?$AAe?$AA_?$AAR?$AAa?$AAw@ 00000001800242c8     PINPad.obj
 0002:000012e0       ??_C@_1BC@KAILKFFG@?$AAR?$AAE?$AAG?$AAI?$AAS?$AAT?$AAR?$AAY@ 00000001800242e0     PINPad.obj
 0002:000012f8       ??_7?$CComContainedObject@VCOPOSPINPad@@@ATL@@6B?$IDispatchImpl@UIOPOSPINPad@@$1?IID_IOPOSPINPad@@3U_GUID@@B$1?LIBID_OposPINPad_CCO@@3U3@B$00$0A@VCComTypeInfoHolder@ATL@@@1@@ 00000001800242f8     PINPad.obj
 0002:00001600       ??_7?$CComContainedObject@VCOPOSPINPad@@@ATL@@6BCComControlBase@1@@ 0000000180024600     PINPad.obj
 0002:00001628       ??_7?$CComContainedObject@VCOPOSPINPad@@@ATL@@6B?$CWindowImpl@VCOPOSPINPad@@VCWindow@ATL@@V?$CWinTraits@$0FGAAAAAA@$0A@@3@@1@@ 0000000180024628     PINPad.obj
 0002:00001648       ??_7?$CComContainedObject@VCOPOSPINPad@@@ATL@@6B?$IPersistStreamInitImpl@VCOPOSPINPad@@@1@@ 0000000180024648     PINPad.obj
 0002:00001690       ??_7?$CComContainedObject@VCOPOSPINPad@@@ATL@@6B?$IOleControlImpl@VCOPOSPINPad@@@1@@ 0000000180024690     PINPad.obj
 0002:000016c8       ??_7?$CComContainedObject@VCOPOSPINPad@@@ATL@@6B?$IOleObjectImpl@VCOPOSPINPad@@@1@@ 00000001800246c8     PINPad.obj
 0002:00001788       ??_7?$CComContainedObject@VCOPOSPINPad@@@ATL@@6B?$IOleInPlaceActiveObjectImpl@VCOPOSPINPad@@@1@@ 0000000180024788     PINPad.obj
 0002:000017d8       ??_7?$CComContainedObject@VCOPOSPINPad@@@ATL@@6B?$IViewObjectExImpl@VCOPOSPINPad@@@1@@ 00000001800247d8     PINPad.obj
 0002:00001850       ??_7?$CComContainedObject@VCOPOSPINPad@@@ATL@@6B?$IOleInPlaceObjectWindowlessImpl@VCOPOSPINPad@@@1@@ 0000000180024850     PINPad.obj
 0002:000018a8       ??_7?$CComContainedObject@VCOPOSPINPad@@@ATL@@6B?$IConnectionPointContainerImpl@VCOPOSPINPad@@@1@@ 00000001800248a8     PINPad.obj
 0002:000018d0       ??_7?$CComContainedObject@VCOPOSPINPad@@@ATL@@6B?$IPersistStorageImpl@VCOPOSPINPad@@@1@@ 00000001800248d0     PINPad.obj
 0002:00001920       ??_7?$CComContainedObject@VCOPOSPINPad@@@ATL@@6B?$ISpecifyPropertyPagesImpl@VCOPOSPINPad@@@1@@ 0000000180024920     PINPad.obj
 0002:00001940       ??_7?$CComContainedObject@VCOPOSPINPad@@@ATL@@6B?$IQuickActivateImpl@VCOPOSPINPad@@@1@@ 0000000180024940     PINPad.obj
 0002:00001970       ??_7?$CComContainedObject@VCOPOSPINPad@@@ATL@@6B?$IDataObjectImpl@VCOPOSPINPad@@@1@@ 0000000180024970     PINPad.obj
 0002:000019d0       ??_7?$CComContainedObject@VCOPOSPINPad@@@ATL@@6B?$IProvideClassInfo2Impl@$1?CLSID_OPOSPINPad@@3U_GUID@@B$1?DIID__IOPOSPINPadEvents@@3U2@B$1?LIBID_OposPINPad_CCO@@3U2@B$00$0A@VCComTypeInfoHolder@ATL@@@1@@ 00000001800249d0     PINPad.obj
 0002:000019f8       ??_7?$CComContainedObject@VCOPOSPINPad@@@ATL@@6B?$IObjectSafetyImpl@VCOPOSPINPad@@$02@1@@ 00000001800249f8     PINPad.obj
 0002:00001a28       ??_7?$CComContainedObject@VCOPOSPINPad@@@ATL@@6B?$IPropertyNotifySinkCP@VCOPOSPINPad@@VCComDynamicUnkArray@ATL@@@1@@ 0000000180024a28     PINPad.obj
 0002:00001a68       ??_7?$CComContainedObject@VCOPOSPINPad@@@ATL@@6B?$CProxy_IOPOSEvents@VCOPOSPINPad@@@@@ 0000000180024a68     PINPad.obj
 0002:00001aa8       ??_7?$CComAggObject@VCOPOSPINPad@@@ATL@@6B@ 0000000180024aa8     PINPad.obj
 0002:00001ac8       ??_7?$CComObject@VCOPOSPINPad@@@ATL@@6B?$IDispatchImpl@UIOPOSPINPad@@$1?IID_IOPOSPINPad@@3U_GUID@@B$1?LIBID_OposPINPad_CCO@@3U3@B$00$0A@VCComTypeInfoHolder@ATL@@@1@@ 0000000180024ac8     PINPad.obj
 0002:00001dd0       ??_7?$CComObject@VCOPOSPINPad@@@ATL@@6BCComControlBase@1@@ 0000000180024dd0     PINPad.obj
 0002:00001df8       ??_7?$CComObject@VCOPOSPINPad@@@ATL@@6B?$CWindowImpl@VCOPOSPINPad@@VCWindow@ATL@@V?$CWinTraits@$0FGAAAAAA@$0A@@3@@1@@ 0000000180024df8     PINPad.obj
 0002:00001e18       ??_7?$CComObject@VCOPOSPINPad@@@ATL@@6B?$IPersistStreamInitImpl@VCOPOSPINPad@@@1@@ 0000000180024e18     PINPad.obj
 0002:00001e60       ??_7?$CComObject@VCOPOSPINPad@@@ATL@@6B?$IOleControlImpl@VCOPOSPINPad@@@1@@ 0000000180024e60     PINPad.obj
 0002:00001e98       ??_7?$CComObject@VCOPOSPINPad@@@ATL@@6B?$IOleObjectImpl@VCOPOSPINPad@@@1@@ 0000000180024e98     PINPad.obj
 0002:00001f58       ??_7?$CComObject@VCOPOSPINPad@@@ATL@@6B?$IOleInPlaceActiveObjectImpl@VCOPOSPINPad@@@1@@ 0000000180024f58     PINPad.obj
 0002:00001fa8       ??_7?$CComObject@VCOPOSPINPad@@@ATL@@6B?$IViewObjectExImpl@VCOPOSPINPad@@@1@@ 0000000180024fa8     PINPad.obj
 0002:00002020       ??_7?$CComObject@VCOPOSPINPad@@@ATL@@6B?$IOleInPlaceObjectWindowlessImpl@VCOPOSPINPad@@@1@@ 0000000180025020     PINPad.obj
 0002:00002078       ??_7?$CComObject@VCOPOSPINPad@@@ATL@@6B?$IConnectionPointContainerImpl@VCOPOSPINPad@@@1@@ 0000000180025078     PINPad.obj
 0002:000020a0       ??_7?$CComObject@VCOPOSPINPad@@@ATL@@6B?$IPersistStorageImpl@VCOPOSPINPad@@@1@@ 00000001800250a0     PINPad.obj
 0002:000020f0       ??_7?$CComObject@VCOPOSPINPad@@@ATL@@6B?$ISpecifyPropertyPagesImpl@VCOPOSPINPad@@@1@@ 00000001800250f0     PINPad.obj
 0002:00002110       ??_7?$CComObject@VCOPOSPINPad@@@ATL@@6B?$IQuickActivateImpl@VCOPOSPINPad@@@1@@ 0000000180025110     PINPad.obj
 0002:00002140       ??_7?$CComObject@VCOPOSPINPad@@@ATL@@6B?$IDataObjectImpl@VCOPOSPINPad@@@1@@ 0000000180025140     PINPad.obj
 0002:000021a0       ??_7?$CComObject@VCOPOSPINPad@@@ATL@@6B?$IProvideClassInfo2Impl@$1?CLSID_OPOSPINPad@@3U_GUID@@B$1?DIID__IOPOSPINPadEvents@@3U2@B$1?LIBID_OposPINPad_CCO@@3U2@B$00$0A@VCComTypeInfoHolder@ATL@@@1@@ 00000001800251a0     PINPad.obj
 0002:000021c8       ??_7?$CComObject@VCOPOSPINPad@@@ATL@@6B?$IObjectSafetyImpl@VCOPOSPINPad@@$02@1@@ 00000001800251c8     PINPad.obj
 0002:000021f8       ??_7?$CComObject@VCOPOSPINPad@@@ATL@@6B?$IPropertyNotifySinkCP@VCOPOSPINPad@@VCComDynamicUnkArray@ATL@@@1@@ 00000001800251f8     PINPad.obj
 0002:00002238       ??_7?$CComObject@VCOPOSPINPad@@@ATL@@6B?$CProxy_IOPOSEvents@VCOPOSPINPad@@@@@ 0000000180025238     PINPad.obj
 0002:00002278       ??_C@_1O@GBFKGNEO@?$AAA?$AAT?$AAL?$AA?3?$AA?$CF?$AAp@ 0000000180025278     PINPad.obj
 0002:00002288       ??_C@_1BA@PICGEGJB@?$AAD?$AAI?$AAS?$AAP?$AAL?$AAA?$AAY@ 0000000180025288     PINPad.obj
 0002:00002298       _GUID_9bfbbc02_eff1_101a_84ed_00aa00341d07 0000000180025298     PINPad.obj
 0002:000022a8       _GUID_b196b284_bab4_101a_b69c_00aa00341d07 00000001800252a8     PINPad.obj
 0002:000022b8       ?_entries@?1??_GetEntries@?$CComEnum@UIEnumConnectionPoints@@$1?_GUID_b196b285_bab4_101a_b69c_00aa00341d07@@3U__s_GUID@@BPEAUIConnectionPoint@@V?$_CopyInterface@UIConnectionPoint@@@ATL@@VCComSingleThreadModel@6@@ATL@@SAPEBU_ATL_INTMAP_ENTRY@3@XZ@4QBU43@B 00000001800252b8     PINPad.obj
 0002:000022e8       _GUID_00020412_0000_0000_c000_000000000046 00000001800252e8     PINPad.obj
 0002:000022f8       _GUID_00020401_0000_0000_c000_000000000046 00000001800252f8     PINPad.obj
 0002:00002308       _GUID_55980ba0_35aa_11cf_b671_00aa004cd6d8 0000000180025308     PINPad.obj
 0002:00002318       ??_7?$CComObject@V?$CComEnum@UIEnumConnections@@$1?_GUID_b196b287_bab4_101a_b69c_00aa00341d07@@3U__s_GUID@@BUtagCONNECTDATA@@V?$_Copy@UtagCONNECTDATA@@@ATL@@VCComSingleThreadModel@6@@ATL@@@ATL@@6B@ 0000000180025318     PINPad.obj
 0002:00002358       _GUID_b196b28b_bab4_101a_b69c_00aa00341d07 0000000180025358     PINPad.obj
 0002:00002368       ?_entries@?1??_GetEntries@?$CComEnum@UIEnumConnections@@$1?_GUID_b196b287_bab4_101a_b69c_00aa00341d07@@3U__s_GUID@@BUtagCONNECTDATA@@V?$_Copy@UtagCONNECTDATA@@@ATL@@VCComSingleThreadModel@6@@ATL@@SAPEBU_ATL_INTMAP_ENTRY@3@XZ@4QBU43@B 0000000180025368     PINPad.obj
 0002:00002398       ??_7CComClassFactory@ATL@@6B@ 0000000180025398     PINPad.obj
 0002:000023c8       ?_entries@?1??_GetEntries@CComClassFactory@ATL@@SAPEBU_ATL_INTMAP_ENTRY@3@XZ@4QBU43@B 00000001800253c8     PINPad.obj
 0002:000023f8       _GUID_00000001_0000_0000_c000_000000000046 00000001800253f8     PINPad.obj
 0002:00002408       ??_C@_0BG@EKFFMJIO@RegOpenKeyTransactedW@ 0000000180025408     PINPad.obj
 0002:00002420       ??_C@_0BI@HAKLOOGP@RegDeleteKeyTransactedW@ 0000000180025420     PINPad.obj
 0002:00002438       ??_C@_0BA@LILAPHGE@RegDeleteKeyExW@ 0000000180025438     PINPad.obj
 0002:00002448       ??_C@_19ILOCMLCJ@?$AA?4?$AAt?$AAl?$AAb@ 0000000180025448     PINPad.obj
 0002:00002458       _GUID_0002e012_0000_0000_c000_000000000046 0000000180025458     PINPad.obj
 0002:00002468       ??_C@_1O@FHBGLCIO@?$AAC?$AAL?$AAS?$AAI?$AAD?$AA?2@ 0000000180025468     PINPad.obj
 0002:00002478       ??_C@_1CK@IFBKBFAA@?$AA?2?$AAR?$AAe?$AAq?$AAu?$AAi?$AAr?$AAe?$AAd?$AA?5?$AAC?$AAa?$AAt?$AAe?$AAg@ 0000000180025478     PINPad.obj
 0002:000024a8       ??_C@_1DA@BIHALFED@?$AA?2?$AAI?$AAm?$AAp?$AAl?$AAe?$AAm?$AAe?$AAn?$AAt?$AAe?$AAd?$AA?5?$AAC?$AAa@ 00000001800254a8     PINPad.obj
 0002:000024d8       ??_C@_1BK@EDKOLFBJ@?$AAO?$AAL?$AAE?$AAA?$AAU?$AAT?$AA3?$AA2?$AA?4?$AAD?$AAL?$AAL@ 00000001800254d8     PINPad.obj
 0002:000024f8       ??_C@_0BJ@CNLFOMHB@UnRegisterTypeLibForUser@ 00000001800254f8     PINPad.obj
 0002:00002518       ??_C@_0BH@LBOMMKPJ@RegisterTypeLibForUser@ 0000000180025518     PINPad.obj
 0002:00002530       ??_C@_0P@MMNMMLGK@COFreezeEvents@ 0000000180025530     PINPadImpl.obj
 0002:00002540       ??_C@_0BC@OGCGGIMP@GetPropertyNumber@ 0000000180025540     PINPadImpl.obj
 0002:00002558       ??_C@_0BC@MDCNODNB@SetPropertyNumber@ 0000000180025558     PINPadImpl.obj
 0002:00002570       ??_C@_0BC@CFCCMIMD@GetPropertyString@ 0000000180025570     PINPadImpl.obj
 0002:00002588       ??_C@_0BC@CJEDNN@SetPropertyString@ 0000000180025588     PINPadImpl.obj
 0002:000025a0       ??_C@_0M@LNPKKKDA@OpenService@ 00000001800255a0     PINPadImpl.obj
 0002:000025b0       ??_C@_0M@PCMCHHMH@CheckHealth@ 00000001800255b0     PINPadImpl.obj
 0002:000025c0       ??_C@_0M@JGMIDNEK@ClaimDevice@ 00000001800255c0     PINPadImpl.obj
 0002:000025d0       ??_C@_0L@BNEIFEJC@ClearInput@ 00000001800255d0     PINPadImpl.obj
 0002:000025e0       ??_C@_0N@DDFIIBMP@CloseService@ 00000001800255e0     PINPadImpl.obj
 0002:000025f0       ??_C@_08EEIHICPC@DirectIO@ 00000001800255f0     PINPadImpl.obj
 0002:00002600       ??_C@_0O@BCPMENMJ@ReleaseDevice@ 0000000180025600     PINPadImpl.obj
 0002:00002610       ??_C@_09EGHCFIHC@GetAmount@ 0000000180025610     PINPadImpl.obj
 0002:00002620       ??_C@_09GIDHHJOA@SetAmount@ 0000000180025620     PINPadImpl.obj
 0002:00002630       ??_C@_0BE@JOBLMMKO@BeginEFTTransaction@ 0000000180025630     PINPadImpl.obj
 0002:00002648       ??_C@_0L@EGABKKNE@ComputeMAC@ 0000000180025648     PINPadImpl.obj
 0002:00002658       ??_C@_0P@IIOMFEON@EnablePINEntry@ 0000000180025658     PINPadImpl.obj
 0002:00002668       ??_C@_0BC@NAFGEMKG@EndEFTTransaction@ 0000000180025668     PINPadImpl.obj
 0002:00002680       ??_C@_09PHBOFDOC@UpdateKey@ 0000000180025680     PINPadImpl.obj
 0002:00002690       ??_C@_09KHMNCPJO@VerifyMAC@ 0000000180025690     PINPadImpl.obj
 0002:000026a0       ??_C@_0BA@GFABKEEE@ResetStatistics@ 00000001800256a0     PINPadImpl.obj
 0002:000026b0       ??_C@_0BD@DPALHJGC@RetrieveStatistics@ 00000001800256b0     PINPadImpl.obj
 0002:000026c8       ??_C@_0BB@KOHIKNFC@UpdateStatistics@ 00000001800256c8     PINPadImpl.obj
 0002:000026e0       ??_C@_0BH@PBKBNMGB@CompareFirmwareVersion@ 00000001800256e0     PINPadImpl.obj
 0002:000026f8       ??_C@_0P@FBPDPIPA@UpdateFirmware@ 00000001800256f8     PINPadImpl.obj
 0002:00002708       ??_C@_0BF@CMAPCJGM@ClearInputProperties@ 0000000180025708     PINPadImpl.obj
 0002:00002720       ??_7?$CProxy_IOPOSEvents@VCOPOSPINPad@@@@6B@ 0000000180025720     PINPadImpl.obj
 0002:00002760       ??_C@_1BA@IFHENID@?$AA?$FL?$AAE?$AAr?$AAr?$AAo?$AAr?$AA?$FN@ 0000000180025760     PINPadImpl.obj
 0002:00002770       ??_C@_0CJ@KLINAKEC@SOFTWARE?2OLEforRetail?2ServiceOP@ 0000000180025770     PINPadImpl.obj
 0002:000027a0       ??_C@_1M@IAIJHCCH@?$AAC?$AAl?$AAo?$AAs?$AAe@ 00000001800257a0     PINPadImpl.obj
 0002:000027b0       ??_C@_1M@PCPKGJAH@?$AAC?$AAl?$AAa?$AAi?$AAm@ 00000001800257b0     PINPadImpl.obj
 0002:000027c0       ??_C@_1BA@NDFKIOCP@?$AAR?$AAe?$AAl?$AAe?$AAa?$AAs?$AAe@ 00000001800257c0     PINPadImpl.obj
 0002:000027d0       ??_C@_06NFLHEKM@PINPad@    00000001800257d0     PINPadImpl.obj
 0002:000027d8       ??_C@_1BM@IJMNMBPK@?$AAG?$AAe?$AAt?$AAO?$AAp?$AAe?$AAn?$AAR?$AAe?$AAs?$AAu?$AAl?$AAt@ 00000001800257d8     PINPadImpl.obj
 0002:000027f8       IID_IDispatch              00000001800257f8     uuid:oaidl_i.obj
 0002:00002808       IID_IPropertyNotifySink    0000000180025808     uuid:ocidl_i.obj
 0002:00002818       GUID_NULL                  0000000180025818     uuid:cguid_i.obj
 0002:00002828       CLSID_StdGlobalInterfaceTable 0000000180025828     uuid:cguid_i.obj
 0002:00002838       CLSID_StdComponentCategoriesMgr 0000000180025838     uuid:ieguids.obj
 0002:00002848       IID_IUnknown               0000000180025848     uuid:unknwn_i.obj
 0002:00002860       __xmm@ffffffffffffffffffffffffffffffff 0000000180025860     LIBCMT:utility.obj
 0002:00002870       ??_C@_1EC@JIJBPKFM@?$AAa?$AAp?$AAi?$AA?9?$AAm?$AAs?$AA?9?$AAw?$AAi?$AAn?$AA?9?$AAc?$AAo?$AAr?$AAe@ 0000000180025870     LIBCMT:thread_safe_statics.obj
 0002:000028b8       ??_C@_1BK@MGMFAEKH@?$AAk?$AAe?$AAr?$AAn?$AAe?$AAl?$AA3?$AA2?$AA?4?$AAd?$AAl?$AAl@ 00000001800258b8     LIBCMT:thread_safe_statics.obj
 0002:000028d8       ??_C@_0BJ@JEBJOJFJ@SleepConditionVariableCS@ 00000001800258d8     LIBCMT:thread_safe_statics.obj
 0002:000028f8       ??_C@_0BJ@PGPPEPCC@WakeAllConditionVariable@ 00000001800258f8     LIBCMT:thread_safe_statics.obj
 0002:00002911       ?nothrow@std@@3Unothrow_t@1@B 0000000180025911     LIBCMT:std_nothrow.obj
 0002:00002928       _pRawDllMain               0000000180025928     LIBCMT:dll_dllmain.obj
 0002:00002928       _pDefaultRawDllMain        0000000180025928     LIBCMT:dll_dllmain.obj
 0002:00002938       ??_7exception@std@@6B@     0000000180025938     LIBCMT:throw_bad_alloc.obj
 0002:00002948       ??_C@_0BC@EOODALEL@Unknown?5exception@ 0000000180025948     LIBCMT:throw_bad_alloc.obj
 0002:00002968       ??_7bad_alloc@std@@6B@     0000000180025968     LIBCMT:throw_bad_alloc.obj
 0002:00002978       ??_C@_0P@GHFPNOJB@bad?5allocation@ 0000000180025978     LIBCMT:throw_bad_alloc.obj
 0002:00002990       ??_7bad_array_new_length@std@@6B@ 0000000180025990     LIBCMT:throw_bad_alloc.obj
 0002:000029a0       ??_C@_0BF@KINCDENJ@bad?5array?5new?5length@ 00000001800259a0     LIBCMT:throw_bad_alloc.obj
 0002:000029c0       ??_7type_info@@6B@         00000001800259c0     LIBCMT:std_type_info_static.obj
 0002:000029c8       GUID_ATLVer110             00000001800259c8     atls:atlbase.obj
 0002:000029e0       ??_C@_1IC@ONKHOIDK@?$AAE?$AAR?$AAR?$AAO?$AAR?$AA?5?$AA?3?$AA?5?$AAU?$AAn?$AAa?$AAb?$AAl?$AAe?$AA?5@ 00000001800259e0     atls:atlbase.obj
 0002:00002a68       ??_C@_0N@FJEPLCIH@atlthunk?4dll@ 0000000180025a68     atls:atlthunk.obj
 0002:00002a78       ??_C@_0BG@GAKFHCBM@AtlThunk_AllocateData@ 0000000180025a78     atls:atlthunk.obj
 0002:00002a90       ??_C@_0BC@JKONFIAH@AtlThunk_InitData@ 0000000180025a90     atls:atlthunk.obj
 0002:00002aa8       ??_C@_0BE@IAOEELAK@AtlThunk_DataToCode@ 0000000180025aa8     atls:atlthunk.obj
 0002:00002ac0       ??_C@_0BC@GBGKAIPI@AtlThunk_FreeData@ 0000000180025ac0     atls:atlthunk.obj
 0002:00002ad8       ?s_negLengthTab@FH4@@3QBCB 0000000180025ad8     libvcruntime:risctrnsctrl.obj
 0002:00002ae8       ?s_shiftTab@FH4@@3QBEB     0000000180025ae8     libvcruntime:risctrnsctrl.obj
 0002:00002b98       _pDestructExceptionObject  0000000180025b98     libvcruntime:ehhelpers.obj
 0002:00002ba8       ??_7bad_exception@std@@6B@ 0000000180025ba8     libvcruntime:frame.obj
 0002:00002bb8       ??_C@_0O@DPKOEFFH@bad?5exception@ 0000000180025bb8     libvcruntime:frame.obj
 0002:000032d0       ??_C@_08EHJDFFNH@__based?$CI@ 00000001800262d0     libvcruntime:undname.obj
 0002:000032e0       ??_C@_07KOLFKCDI@__cdecl@  00000001800262e0     libvcruntime:undname.obj
 0002:000032e8       ??_C@_08GHMPAG@__pascal@   00000001800262e8     libvcruntime:undname.obj
 0002:000032f8       ??_C@_09IFJBGAPI@__stdcall@ 00000001800262f8     libvcruntime:undname.obj
 0002:00003308       ??_C@_0L@NPHFGOKO@__thiscall@ 0000000180026308     libvcruntime:undname.obj
 0002:00003318       ??_C@_0L@JMKHOMEK@__fastcall@ 0000000180026318     libvcruntime:undname.obj
 0002:00003328       ??_C@_0N@BCKKPABJ@__vectorcall@ 0000000180026328     libvcruntime:undname.obj
 0002:00003338       ??_C@_09HIJEGCPM@__clrcall@ 0000000180026338     libvcruntime:undname.obj
 0002:00003344       ??_C@_06GHPCKEAG@__eabi@   0000000180026344     libvcruntime:undname.obj
 0002:00003350       ??_C@_09IOPIDJLG@__swift_1@ 0000000180026350     libvcruntime:undname.obj
 0002:00003360       ??_C@_09KFNFGKHF@__swift_2@ 0000000180026360     libvcruntime:undname.obj
 0002:00003370       ??_C@_07JOMMBBKO@__ptr64@  0000000180026370     libvcruntime:undname.obj
 0002:00003378       ??_C@_0L@PILCLIHE@__restrict@ 0000000180026378     libvcruntime:undname.obj
 0002:00003388       ??_C@_0M@GFIIJFMG@__unaligned@ 0000000180026388     libvcruntime:undname.obj
 0002:00003398       ??_C@_09DHDLOLLB@restrict?$CI@ 0000000180026398     libvcruntime:undname.obj
 0002:000033a2       ??_C@_00CNPNBAHC@@         00000001800263a2     libvcruntime:undname.obj
 0002:000033a4       ??_C@_04NIHEBCM@?5new@     00000001800263a4     libvcruntime:undname.obj
 0002:000033b0       ??_C@_07FPCDHGMM@?5delete@ 00000001800263b0     libvcruntime:undname.obj
 0002:000033b8       ??_C@_01NEMOKFLO@?$DN@     00000001800263b8     libvcruntime:undname.obj
 0002:000033bc       ??_C@_02GPIOPFAK@?$DO?$DO@ 00000001800263bc     libvcruntime:undname.obj
 0002:000033c0       ??_C@_02FODMEDOG@?$DM?$DM@ 00000001800263c0     libvcruntime:undname.obj
 0002:000033c4       ??_C@_01DCLJPIOD@?$CB@     00000001800263c4     libvcruntime:undname.obj
 0002:000033c8       ??_C@_02EGOFBIJA@?$DN?$DN@ 00000001800263c8     libvcruntime:undname.obj
 0002:000033cc       ??_C@_02FDNJECIE@?$CB?$DN@ 00000001800263cc     libvcruntime:undname.obj
 0002:000033d0       ??_C@_02GPECMEKF@?$FL?$FN@ 00000001800263d0     libvcruntime:undname.obj
 0002:000033d8       ??_C@_08LHJFAFGD@operator@ 00000001800263d8     libvcruntime:undname.obj
 0002:000033e4       ??_C@_02HBOOOICD@?9?$DO@   00000001800263e4     libvcruntime:undname.obj
 0002:000033e8       ??_C@_01NBENCBCI@?$CK@     00000001800263e8     libvcruntime:undname.obj
 0002:000033ec       ??_C@_02ECNGHCIF@?$CL?$CL@ 00000001800263ec     libvcruntime:undname.obj
 0002:000033f0       ??_C@_02BAABKJLB@?9?9@     00000001800263f0     libvcruntime:undname.obj
 0002:000033f4       ??_C@_01JOAMLHOP@?9@       00000001800263f4     libvcruntime:undname.obj
 0002:000033f8       ??_C@_01MIFGBAGJ@?$CL@     00000001800263f8     libvcruntime:undname.obj
 0002:000033fc       ??_C@_01HNPIGOCE@?$CG@     00000001800263fc     libvcruntime:undname.obj
 0002:00003400       ??_C@_03MNHNFDLC@?9?$DO?$CK@ 0000000180026400     libvcruntime:undname.obj
 0002:00003404       ??_C@_01KMDKNFGN@?1@       0000000180026404     libvcruntime:undname.obj
 0002:00003408       ??_C@_01FGNFDNOH@?$CF@     0000000180026408     libvcruntime:undname.obj
 0002:0000340c       ??_C@_01MNNFJEPP@?$DM@     000000018002640c     libvcruntime:undname.obj
 0002:00003410       ??_C@_02EHCHHCKH@?$DM?$DN@ 0000000180026410     libvcruntime:undname.obj
 0002:00003414       ??_C@_01PPODPGHN@?$DO@     0000000180026414     libvcruntime:undname.obj
 0002:00003418       ??_C@_02EEKDKGMJ@?$DO?$DN@ 0000000180026418     libvcruntime:undname.obj
 0002:0000341c       ??_C@_01IHBHIGKO@?0@       000000018002641c     libvcruntime:undname.obj
 0002:00003420       ??_C@_02HCKGKOFO@?$CI?$CJ@ 0000000180026420     libvcruntime:undname.obj
 0002:00003424       ??_C@_01PJKLJHI@?$HO@      0000000180026424     libvcruntime:undname.obj
 0002:00003428       ??_C@_01JKBOJNNK@?$FO@     0000000180026428     libvcruntime:undname.obj
 0002:0000342c       ??_C@_01DNKMNLPK@?$HM@     000000018002642c     libvcruntime:undname.obj
 0002:00003430       ??_C@_02PPKAJPJL@?$CG?$CG@ 0000000180026430     libvcruntime:undname.obj
 0002:00003434       ??_C@_02NONPIBCD@?$HM?$HM@ 0000000180026434     libvcruntime:undname.obj
 0002:00003438       ??_C@_02FPIMKNGF@?$CK?$DN@ 0000000180026438     libvcruntime:undname.obj
 0002:0000343c       ??_C@_02FOEOMHFC@?$CL?$DN@ 000000018002643c     libvcruntime:undname.obj
 0002:00003440       ??_C@_02FKMDLLOA@?9?$DN@   0000000180026440     libvcruntime:undname.obj
 0002:00003444       ??_C@_02FJEHGPIO@?1?$DN@   0000000180026444     libvcruntime:undname.obj
 0002:00003448       ??_C@_02FENAOKFI@?$CF?$DN@ 0000000180026448     libvcruntime:undname.obj
 0002:0000344c       ??_C@_03IKFCCPFF@?$DO?$DO?$DN@ 000000018002644c     libvcruntime:undname.obj
 0002:00003450       ??_C@_03CDNPDDLA@?$DM?$DM?$DN@ 0000000180026450     libvcruntime:undname.obj
 0002:00003454       ??_C@_02FGJGFEAB@?$CG?$DN@ 0000000180026454     libvcruntime:undname.obj
 0002:00003458       ??_C@_02DHLNPPGH@?$HM?$DN@ 0000000180026458     libvcruntime:undname.obj
 0002:0000345c       ??_C@_02MHEGNOJ@?$FO?$DN@  000000018002645c     libvcruntime:undname.obj
 0002:00003460       ??_C@_09IFPLHPGF@?$GAvftable?8@ 0000000180026460     libvcruntime:undname.obj
 0002:00003470       ??_C@_09BLBHBJP@?$GAvbtable?8@ 0000000180026470     libvcruntime:undname.obj
 0002:00003480       ??_C@_07FEEIOKP@?$GAvcall?8@ 0000000180026480     libvcruntime:undname.obj
 0002:00003488       ??_C@_08LLFFHHDJ@?$GAtypeof?8@ 0000000180026488     libvcruntime:undname.obj
 0002:00003498       ??_C@_0BF@KDPPACIK@?$GAlocal?5static?5guard?8@ 0000000180026498     libvcruntime:undname.obj
 0002:000034b0       ??_C@_08OBABFOLI@?$GAstring?8@ 00000001800264b0     libvcruntime:undname.obj
 0002:000034c0       ??_C@_0BD@JDLKDPAB@?$GAvbase?5destructor?8@ 00000001800264c0     libvcruntime:undname.obj
 0002:000034d8       ??_C@_0BN@DEGPLNFK@?$GAvector?5deleting?5destructor?8@ 00000001800264d8     libvcruntime:undname.obj
 0002:000034f8       ??_C@_0BO@OBMKPJIG@?$GAdefault?5constructor?5closure?8@ 00000001800264f8     libvcruntime:undname.obj
 0002:00003518       ??_C@_0BN@IMDCHIKM@?$GAscalar?5deleting?5destructor?8@ 0000000180026518     libvcruntime:undname.obj
 0002:00003538       ??_C@_0BO@PFGOCPJJ@?$GAvector?5constructor?5iterator?8@ 0000000180026538     libvcruntime:undname.obj
 0002:00003558       ??_C@_0BN@LFPFMEDL@?$GAvector?5destructor?5iterator?8@ 0000000180026558     libvcruntime:undname.obj
 0002:00003578       ??_C@_0CE@IKBNEHA@?$GAvector?5vbase?5constructor?5itera@ 0000000180026578     libvcruntime:undname.obj
 0002:000035a0       ??_C@_0BL@NILFHHPC@?$GAvirtual?5displacement?5map?8@ 00000001800265a0     libvcruntime:undname.obj
 0002:000035c0       ??_C@_0CB@JONCMFFK@?$GAeh?5vector?5constructor?5iterator@ 00000001800265c0     libvcruntime:undname.obj
 0002:000035e8       ??_C@_0CA@GCEOPDGL@?$GAeh?5vector?5destructor?5iterator?8@ 00000001800265e8     libvcruntime:undname.obj
 0002:00003608       ??_C@_0CH@OOJPLCPH@?$GAeh?5vector?5vbase?5constructor?5it@ 0000000180026608     libvcruntime:undname.obj
 0002:00003630       ??_C@_0BL@LLKPOHJI@?$GAcopy?5constructor?5closure?8@ 0000000180026630     libvcruntime:undname.obj
 0002:00003650       ??_C@_0BA@KBCDOMBN@?$GAudt?5returning?8@ 0000000180026650     libvcruntime:undname.obj
 0002:00003660       ??_C@_03KLGMFNMG@?$GAEH@   0000000180026660     libvcruntime:undname.obj
 0002:00003664       ??_C@_05KHLCHHI@?$GARTTI@  0000000180026664     libvcruntime:undname.obj
 0002:00003670       ??_C@_0BA@KKLDJDLB@?$GAlocal?5vftable?8@ 0000000180026670     libvcruntime:undname.obj
 0002:00003680       ??_C@_0CE@IIHCMGGL@?$GAlocal?5vftable?5constructor?5clos@ 0000000180026680     libvcruntime:undname.obj
 0002:000036a4       ??_C@_06FHBGPFGH@?5new?$FL?$FN@ 00000001800266a4     libvcruntime:undname.obj
 0002:000036b0       ??_C@_09LBNFPBCA@?5delete?$FL?$FN@ 00000001800266b0     libvcruntime:undname.obj
 0002:000036c0       ??_C@_0P@HJKNJFNN@?$GAomni?5callsig?8@ 00000001800266c0     libvcruntime:undname.obj
 0002:000036d0       ??_C@_0BL@CNOONJFP@?$GAplacement?5delete?5closure?8@ 00000001800266d0     libvcruntime:undname.obj
 0002:000036f0       ??_C@_0BN@CKNJLHMB@?$GAplacement?5delete?$FL?$FN?5closure?8@ 00000001800266f0     libvcruntime:undname.obj
 0002:00003710       ??_C@_0CG@CFDHKGGD@?$GAmanaged?5vector?5constructor?5ite@ 0000000180026710     libvcruntime:undname.obj
 0002:00003738       ??_C@_0CF@IMGKMJNO@?$GAmanaged?5vector?5destructor?5iter@ 0000000180026738     libvcruntime:undname.obj
 0002:00003760       ??_C@_0CG@HLDDJMAG@?$GAeh?5vector?5copy?5constructor?5ite@ 0000000180026760     libvcruntime:undname.obj
 0002:00003788       ??_C@_0CM@FCBBDIGB@?$GAeh?5vector?5vbase?5copy?5construct@ 0000000180026788     libvcruntime:undname.obj
 0002:000037b8       ??_C@_0BL@CLIPGLGB@?$GAdynamic?5initializer?5for?5?8@ 00000001800267b8     libvcruntime:undname.obj
 0002:000037d8       ??_C@_0CB@PDBIFEP@?$GAdynamic?5atexit?5destructor?5for?5@ 00000001800267d8     libvcruntime:undname.obj
 0002:00003800       ??_C@_0CD@CGAJBKEJ@?$GAvector?5copy?5constructor?5iterat@ 0000000180026800     libvcruntime:undname.obj
 0002:00003828       ??_C@_0CJ@GJELGAMM@?$GAvector?5vbase?5copy?5constructor?5@ 0000000180026828     libvcruntime:undname.obj
 0002:00003858       ??_C@_0CL@FGIJHLCE@?$GAmanaged?5vector?5copy?5constructo@ 0000000180026858     libvcruntime:undname.obj
 0002:00003888       ??_C@_0BM@PMGGMLDN@?$GAlocal?5static?5thread?5guard?8@ 0000000180026888     libvcruntime:undname.obj
 0002:000038a8       ??_C@_0N@BDNMDMOL@operator?5?$CC?$CC?5@ 00000001800268a8     libvcruntime:undname.obj
 0002:000038b8       ??_C@_0BC@GGEBGALA@operator?5co_await@ 00000001800268b8     libvcruntime:undname.obj
 0002:000038d0       ??_C@_0M@GAAIMMOH@operator?$DM?$DN?$DO@ 00000001800268d0     libvcruntime:undname.obj
 0002:000038e0       ??_C@_0BC@DAFEJGAK@?5Type?5Descriptor?8@ 00000001800268e0     libvcruntime:undname.obj
 0002:000038f8       ??_C@_0BM@LDKODKLH@?5Base?5Class?5Descriptor?5at?5?$CI@ 00000001800268f8     libvcruntime:undname.obj
 0002:00003918       ??_C@_0BD@LGICGFMM@?5Base?5Class?5Array?8@ 0000000180026918     libvcruntime:undname.obj
 0002:00003930       ??_C@_0BN@MECKDCOJ@?5Class?5Hierarchy?5Descriptor?8@ 0000000180026930     libvcruntime:undname.obj
 0002:00003950       ??_C@_0BK@CFCOFLF@?5Complete?5Object?5Locator?8@ 0000000180026950     libvcruntime:undname.obj
 0002:00003970       ??_C@_0BG@JNJLAMPM@?$GAanonymous?5namespace?8@ 0000000180026970     libvcruntime:undname.obj
 0002:000039a0       ??_C@_1DM@KHCHBNEB@?$AAa?$AAp?$AAi?$AA?9?$AAm?$AAs?$AA?9?$AAw?$AAi?$AAn?$AA?9?$AAc?$AAo?$AAr?$AAe@ 00000001800269a0     libvcruntime:winapi_downlevel.obj
 0002:000039e0       ??_C@_1DK@LPPGFMPP@?$AAa?$AAp?$AAi?$AA?9?$AAm?$AAs?$AA?9?$AAw?$AAi?$AAn?$AA?9?$AAc?$AAo?$AAr?$AAe@ 00000001800269e0     libvcruntime:winapi_downlevel.obj
 0002:00003a20       ??_C@_1BC@GDMECMAK@?$AAk?$AAe?$AAr?$AAn?$AAe?$AAl?$AA3?$AA2@ 0000000180026a20     libvcruntime:winapi_downlevel.obj
 0002:00003a38       ??_C@_1BA@PFFKHIOG@?$AAa?$AAp?$AAi?$AA?9?$AAm?$AAs?$AA?9@ 0000000180026a38     libvcruntime:winapi_downlevel.obj
 0002:00003a50       ??_C@_08KNHFBNJ@FlsAlloc@  0000000180026a50     libvcruntime:winapi_downlevel.obj
 0002:00003a68       ??_C@_07PEJMOBNF@FlsFree@  0000000180026a68     libvcruntime:winapi_downlevel.obj
 0002:00003a78       ??_C@_0M@GDNOONDI@FlsGetValue@ 0000000180026a78     libvcruntime:winapi_downlevel.obj
 0002:00003a90       ??_C@_0M@JCPCPOEF@FlsSetValue@ 0000000180026a90     libvcruntime:winapi_downlevel.obj
 0002:00003aa8       ??_C@_0BM@HCFOFFN@InitializeCriticalSectionEx@ 0000000180026aa8     libvcruntime:winapi_downlevel.obj
 0002:00003c40       ?format_validation_lookup_table_spectre@__crt_stdio_output@@3V?$spectre_mitigated_lookup_table@Ustate_transition_pair@__crt_stdio_output@@$0IA@@1@B 0000000180026c40     libucrt:output.obj
 0002:00004040       ??_C@_1O@CEDCILHN@?$AA?$CI?$AAn?$AAu?$AAl?$AAl?$AA?$CJ@ 0000000180027040     libucrt:output.obj
 0002:00004050       ??_C@_06OJHGLDPL@?$CInull?$CJ@ 0000000180027050     libucrt:output.obj
 0002:00004060       __acrt_exception_action_table 0000000180027060     libucrt:exception_filter.obj
 0002:00004120       __acrt_signal_action_table_count 0000000180027120     libucrt:exception_filter.obj
 0002:00004128       __acrt_signal_action_first_fpe_index 0000000180027128     libucrt:exception_filter.obj
 0002:00004130       __acrt_signal_action_fpe_count 0000000180027130     libucrt:exception_filter.obj
 0002:00004138       ??_C@_1BI@BGOHAHKC@?$AAm?$AAs?$AAc?$AAo?$AAr?$AAe?$AAe?$AA?4?$AAd?$AAl?$AAl@ 0000000180027138     libucrt:exit.obj
 0002:00004150       ??_C@_0P@MIGLKIOC@CorExitProcess@ 0000000180027150     libucrt:exit.obj
 0002:00004300       ??_C@_1EA@JGEFHKEI@?$AAa?$AAp?$AAi?$AA?9?$AAm?$AAs?$AA?9?$AAw?$AAi?$AAn?$AA?9?$AAc?$AAo?$AAr?$AAe@ 0000000180027300     libucrt:winapi_thunks.obj
 0002:00004340       ??_C@_1DI@IJCEHOCB@?$AAa?$AAp?$AAi?$AA?9?$AAm?$AAs?$AA?9?$AAw?$AAi?$AAn?$AA?9?$AAc?$AAo?$AAr?$AAe@ 0000000180027340     libucrt:winapi_thunks.obj
 0002:00004380       ??_C@_1EI@MPIAOHOC@?$AAa?$AAp?$AAi?$AA?9?$AAm?$AAs?$AA?9?$AAw?$AAi?$AAn?$AA?9?$AAc?$AAo?$AAr?$AAe@ 0000000180027380     libucrt:winapi_thunks.obj
 0002:000043d0       ??_C@_1FK@FPHCKFIE@?$AAa?$AAp?$AAi?$AA?9?$AAm?$AAs?$AA?9?$AAw?$AAi?$AAn?$AA?9?$AAc?$AAo?$AAr?$AAe@ 00000001800273d0     libucrt:winapi_thunks.obj
 0002:00004430       ??_C@_1EM@DILCGIIO@?$AAa?$AAp?$AAi?$AA?9?$AAm?$AAs?$AA?9?$AAw?$AAi?$AAn?$AA?9?$AAc?$AAo?$AAr?$AAe@ 0000000180027430     libucrt:winapi_thunks.obj
 0002:00004480       ??_C@_1DM@LNCGDDPN@?$AAa?$AAp?$AAi?$AA?9?$AAm?$AAs?$AA?9?$AAw?$AAi?$AAn?$AA?9?$AAc?$AAo?$AAr?$AAe@ 0000000180027480     libucrt:winapi_thunks.obj
 0002:000044c0       ??_C@_1DO@FPAPJEMD@?$AAa?$AAp?$AAi?$AA?9?$AAm?$AAs?$AA?9?$AAw?$AAi?$AAn?$AA?9?$AAc?$AAo?$AAr?$AAe@ 00000001800274c0     libucrt:winapi_thunks.obj
 0002:00004500       ??_C@_1DK@NDHNAHIO@?$AAa?$AAp?$AAi?$AA?9?$AAm?$AAs?$AA?9?$AAw?$AAi?$AAn?$AA?9?$AAc?$AAo?$AAr?$AAe@ 0000000180027500     libucrt:winapi_thunks.obj
 0002:00004540       ??_C@_1DM@KGHDGBCM@?$AAa?$AAp?$AAi?$AA?9?$AAm?$AAs?$AA?9?$AAw?$AAi?$AAn?$AA?9?$AAc?$AAo?$AAr?$AAe@ 0000000180027540     libucrt:winapi_thunks.obj
 0002:00004580       ??_C@_1EO@IJIOEFOH@?$AAa?$AAp?$AAi?$AA?9?$AAm?$AAs?$AA?9?$AAw?$AAi?$AAn?$AA?9?$AAr?$AAt?$AAc?$AAo@ 0000000180027580     libucrt:winapi_thunks.obj
 0002:000045d0       ??_C@_1FG@HHGEKANL@?$AAa?$AAp?$AAi?$AA?9?$AAm?$AAs?$AA?9?$AAw?$AAi?$AAn?$AA?9?$AAs?$AAe?$AAc?$AAu@ 00000001800275d0     libucrt:winapi_thunks.obj
 0002:00004630       ??_C@_1EG@DBIOJECG@?$AAe?$AAx?$AAt?$AA?9?$AAm?$AAs?$AA?9?$AAw?$AAi?$AAn?$AA?9?$AAn?$AAt?$AAu?$AAs@ 0000000180027630     libucrt:winapi_thunks.obj
 0002:00004680       ??_C@_1EO@FIHMJCLF@?$AAe?$AAx?$AAt?$AA?9?$AAm?$AAs?$AA?9?$AAw?$AAi?$AAn?$AA?9?$AAn?$AAt?$AAu?$AAs@ 0000000180027680     libucrt:winapi_thunks.obj
 0002:000046d0       ??_C@_1BC@DNHGCMLG@?$AAa?$AAd?$AAv?$AAa?$AAp?$AAi?$AA3?$AA2@ 00000001800276d0     libucrt:winapi_thunks.obj
 0002:000046e8       ??_C@_1M@OAIMIKLP@?$AAn?$AAt?$AAd?$AAl?$AAl@ 00000001800276e8     libucrt:winapi_thunks.obj
 0002:00004700       ??_C@_1EG@DPGNFKGC@?$AAa?$AAp?$AAi?$AA?9?$AAm?$AAs?$AA?9?$AAw?$AAi?$AAn?$AA?9?$AAa?$AAp?$AAp?$AAm@ 0000000180027700     libucrt:winapi_thunks.obj
 0002:00004748       ??_C@_1O@BCCLBEOE@?$AAu?$AAs?$AAe?$AAr?$AA3?$AA2@ 0000000180027748     libucrt:winapi_thunks.obj
 0002:00004758       ??_C@_1BA@IAIFMGEF@?$AAe?$AAx?$AAt?$AA?9?$AAm?$AAs?$AA?9@ 0000000180027758     libucrt:winapi_thunks.obj
 0002:00004770       ??_C@_0BA@FHFNEAED@AreFileApisANSI@ 0000000180027770     libucrt:winapi_thunks.obj
 0002:000047b0       ??_C@_0O@KKBNKAPF@LCMapStringEx@ 00000001800277b0     libucrt:winapi_thunks.obj
 0002:000047c8       ??_C@_0BB@HBDEELFH@LocaleNameToLCID@ 00000001800277c8     libucrt:winapi_thunks.obj
 0002:000047e0       ??_C@_0CF@OJOFEIGO@AppPolicyGetProcessTerminationM@ 00000001800277e0     libucrt:winapi_thunks.obj
 0002:00004810       ??_C@_0BI@BKLFFAPO@SetThreadStackGuarantee@ 0000000180027810     libucrt:winapi_thunks.obj
 0002:000048b0       ??_C@_03OEIAHPBN@INF@      00000001800278b0     libucrt:cvt.obj
 0002:000048b4       ??_C@_03OJHLLCGB@inf@      00000001800278b4     libucrt:cvt.obj
 0002:000048b8       ??_C@_03LKNCIKJB@NAN@      00000001800278b8     libucrt:cvt.obj
 0002:000048bc       ??_C@_03LHCJEHON@nan@      00000001800278bc     libucrt:cvt.obj
 0002:000048c0       ??_C@_09OFJJIMPC@NAN?$CISNAN?$CJ@ 00000001800278c0     libucrt:cvt.obj
 0002:000048d0       ??_C@_09IPFBKMDL@nan?$CIsnan?$CJ@ 00000001800278d0     libucrt:cvt.obj
 0002:000048e0       ??_C@_08IKHNHAJ@NAN?$CIIND?$CJ@ 00000001800278e0     libucrt:cvt.obj
 0002:000048f0       ??_C@_08OFCDMILK@nan?$CIind?$CJ@ 00000001800278f0     libucrt:cvt.obj
 0002:000048fc       ??_C@_05KLBDPFGC@e?$CL000@ 00000001800278fc     libucrt:cvt.obj
 0002:00004910       __lc_time_c                0000000180027910     libucrt:nlsdata.obj
 0002:00004bd0       ??_C@_03KOEHGMDN@Sun@      0000000180027bd0     libucrt:nlsdata.obj
 0002:00004bd4       ??_C@_03PDAGKDH@Mon@       0000000180027bd4     libucrt:nlsdata.obj
 0002:00004bd8       ??_C@_03NAGEINEP@Tue@      0000000180027bd8     libucrt:nlsdata.obj
 0002:00004bdc       ??_C@_03MHOMLAJA@Wed@      0000000180027bdc     libucrt:nlsdata.obj
 0002:00004be0       ??_C@_03IOFIKPDN@Thu@      0000000180027be0     libucrt:nlsdata.obj
 0002:00004be4       ??_C@_03IDIOELNC@Fri@      0000000180027be4     libucrt:nlsdata.obj
 0002:00004be8       ??_C@_03FEFJNEK@Sat@       0000000180027be8     libucrt:nlsdata.obj
 0002:00004bec       ??_C@_06OOPIFAJ@Sunday@    0000000180027bec     libucrt:nlsdata.obj
 0002:00004bf4       ??_C@_06JLEDEDGH@Monday@   0000000180027bf4     libucrt:nlsdata.obj
 0002:00004c00       ??_C@_07BAAGCFCM@Tuesday@  0000000180027c00     libucrt:nlsdata.obj
 0002:00004c08       ??_C@_09DLIGFAKA@Wednesday@ 0000000180027c08     libucrt:nlsdata.obj
 0002:00004c18       ??_C@_08HACCIKIA@Thursday@ 0000000180027c18     libucrt:nlsdata.obj
 0002:00004c24       ??_C@_06JECMNKMI@Friday@   0000000180027c24     libucrt:nlsdata.obj
 0002:00004c30       ??_C@_08INBOOONO@Saturday@ 0000000180027c30     libucrt:nlsdata.obj
 0002:00004c3c       ??_C@_03JIHJHPIE@Jan@      0000000180027c3c     libucrt:nlsdata.obj
 0002:00004c40       ??_C@_03HJBDCHOM@Feb@      0000000180027c40     libucrt:nlsdata.obj
 0002:00004c44       ??_C@_03ODNJBKGA@Mar@      0000000180027c44     libucrt:nlsdata.obj
 0002:00004c48       ??_C@_03LEOLGMJP@Apr@      0000000180027c48     libucrt:nlsdata.obj
 0002:00004c4c       ??_C@_03CNMDKL@May@        0000000180027c4c     libucrt:nlsdata.obj
 0002:00004c50       ??_C@_03IDFGHECI@Jun@      0000000180027c50     libucrt:nlsdata.obj
 0002:00004c54       ??_C@_03LBGABGKK@Jul@      0000000180027c54     libucrt:nlsdata.obj
 0002:00004c58       ??_C@_03IFJFEIGA@Aug@      0000000180027c58     libucrt:nlsdata.obj
 0002:00004c5c       ??_C@_03GGCAPAJC@Sep@      0000000180027c5c     libucrt:nlsdata.obj
 0002:00004c60       ??_C@_03BMAOKBAD@Oct@      0000000180027c60     libucrt:nlsdata.obj
 0002:00004c64       ??_C@_03JPJOFNIA@Nov@      0000000180027c64     libucrt:nlsdata.obj
 0002:00004c68       ??_C@_03MKABNOCG@Dec@      0000000180027c68     libucrt:nlsdata.obj
 0002:00004c70       ??_C@_07CGJPFGJA@January@  0000000180027c70     libucrt:nlsdata.obj
 0002:00004c78       ??_C@_08GNJGEPFN@February@ 0000000180027c78     libucrt:nlsdata.obj
 0002:00004c84       ??_C@_05HPCKOFNC@March@    0000000180027c84     libucrt:nlsdata.obj
 0002:00004c8c       ??_C@_05DMJDNLEJ@April@    0000000180027c8c     libucrt:nlsdata.obj
 0002:00004c94       ??_C@_04CNLMGBGM@June@     0000000180027c94     libucrt:nlsdata.obj
 0002:00004c9c       ??_C@_04MIEPOIFP@July@     0000000180027c9c     libucrt:nlsdata.obj
 0002:00004ca4       ??_C@_06LBBHFDDG@August@   0000000180027ca4     libucrt:nlsdata.obj
 0002:00004cb0       ??_C@_09BHHEALKD@September@ 0000000180027cb0     libucrt:nlsdata.obj
 0002:00004cc0       ??_C@_07JJNFCEND@October@  0000000180027cc0     libucrt:nlsdata.obj
 0002:00004cc8       ??_C@_08HCHEGEOA@November@ 0000000180027cc8     libucrt:nlsdata.obj
 0002:00004cd8       ??_C@_08EDHMEBNP@December@ 0000000180027cd8     libucrt:nlsdata.obj
 0002:00004ce4       ??_C@_02DEDBPAFC@AM@       0000000180027ce4     libucrt:nlsdata.obj
 0002:00004ce8       ??_C@_02CJNFDJBF@PM@       0000000180027ce8     libucrt:nlsdata.obj
 0002:00004cf0       ??_C@_08BPBNCDIB@MM?1dd?1yy@ 0000000180027cf0     libucrt:nlsdata.obj
 0002:00004d00       ??_C@_0BE@CKGJFCPC@dddd?0?5MMMM?5dd?0?5yyyy@ 0000000180027d00     libucrt:nlsdata.obj
 0002:00004d18       ??_C@_08JCCMCCIL@HH?3mm?3ss@ 0000000180027d18     libucrt:nlsdata.obj
 0002:00004d28       ??_C@_17MBGCMIPB@?$AAS?$AAu?$AAn@ 0000000180027d28     libucrt:nlsdata.obj
 0002:00004d30       ??_C@_17KBOMKBF@?$AAM?$AAo?$AAn@ 0000000180027d30     libucrt:nlsdata.obj
 0002:00004d38       ??_C@_17BMKGEGOJ@?$AAT?$AAu?$AAe@ 0000000180027d38     libucrt:nlsdata.obj
 0002:00004d40       ??_C@_17CJEDCEPE@?$AAW?$AAe?$AAd@ 0000000180027d40     libucrt:nlsdata.obj
 0002:00004d48       ??_C@_17PDPHAADD@?$AAT?$AAh?$AAu@ 0000000180027d48     libucrt:nlsdata.obj
 0002:00004d50       ??_C@_17HFOLPPLP@?$AAF?$AAr?$AAi@ 0000000180027d50     libucrt:nlsdata.obj
 0002:00004d58       ??_C@_17GGIBDPIH@?$AAS?$AAa?$AAt@ 0000000180027d58     libucrt:nlsdata.obj
 0002:00004d60       ??_C@_1O@IHNHDHPB@?$AAS?$AAu?$AAn?$AAd?$AAa?$AAy@ 0000000180027d60     libucrt:nlsdata.obj
 0002:00004d70       ??_C@_1O@MMNBFLIA@?$AAM?$AAo?$AAn?$AAd?$AAa?$AAy@ 0000000180027d70     libucrt:nlsdata.obj
 0002:00004d80       ??_C@_1BA@ENFBFFEK@?$AAT?$AAu?$AAe?$AAs?$AAd?$AAa?$AAy@ 0000000180027d80     libucrt:nlsdata.obj
 0002:00004d90       ??_C@_1BE@EBOGMDOH@?$AAW?$AAe?$AAd?$AAn?$AAe?$AAs?$AAd?$AAa?$AAy@ 0000000180027d90     libucrt:nlsdata.obj
 0002:00004da8       ??_C@_1BC@HHMNLIHE@?$AAT?$AAh?$AAu?$AAr?$AAs?$AAd?$AAa?$AAy@ 0000000180027da8     libucrt:nlsdata.obj
 0002:00004dc0       ??_C@_1O@PDICJHAG@?$AAF?$AAr?$AAi?$AAd?$AAa?$AAy@ 0000000180027dc0     libucrt:nlsdata.obj
 0002:00004dd0       ??_C@_1BC@ENMNNPAJ@?$AAS?$AAa?$AAt?$AAu?$AAr?$AAd?$AAa?$AAy@ 0000000180027dd0     libucrt:nlsdata.obj
 0002:00004de8       ??_C@_17DKNBKCHM@?$AAJ?$AAa?$AAn@ 0000000180027de8     libucrt:nlsdata.obj
 0002:00004df0       ??_C@_17LMDJEKJN@?$AAF?$AAe?$AAb@ 0000000180027df0     libucrt:nlsdata.obj
 0002:00004df8       ??_C@_17CKNLEDEC@?$AAM?$AAa?$AAr@ 0000000180027df8     libucrt:nlsdata.obj
 0002:00004e00       ??_C@_17LFPOIHDD@?$AAA?$AAp?$AAr@ 0000000180027e00     libucrt:nlsdata.obj
 0002:00004e08       ??_C@_17PNNKMEED@?$AAM?$AAa?$AAy@ 0000000180027e08     libucrt:nlsdata.obj
 0002:00004e10       ??_C@_17KCJGOCPB@?$AAJ?$AAu?$AAn@ 0000000180027e10     libucrt:nlsdata.obj
 0002:00004e18       ??_C@_17IJPCKHK@?$AAJ?$AAu?$AAl@ 0000000180027e18     libucrt:nlsdata.obj
 0002:00004e20       ??_C@_17ICPELBCN@?$AAA?$AAu?$AAg@ 0000000180027e20     libucrt:nlsdata.obj
 0002:00004e28       ??_C@_17HCHCOKMG@?$AAS?$AAe?$AAp@ 0000000180027e28     libucrt:nlsdata.obj
 0002:00004e30       ??_C@_17FNLKOI@?$AAO?$AAc?$AAt@ 0000000180027e30     libucrt:nlsdata.obj
 0002:00004e38       ??_C@_17BBDMLCIG@?$AAN?$AAo?$AAv@ 0000000180027e38     libucrt:nlsdata.obj
 0002:00004e40       ??_C@_17EGKACKIF@?$AAD?$AAe?$AAc@ 0000000180027e40     libucrt:nlsdata.obj
 0002:00004e48       ??_C@_1BA@EFMEIEBA@?$AAJ?$AAa?$AAn?$AAu?$AAa?$AAr?$AAy@ 0000000180027e48     libucrt:nlsdata.obj
 0002:00004e58       ??_C@_1BC@JGDDFFAM@?$AAF?$AAe?$AAb?$AAr?$AAu?$AAa?$AAr?$AAy@ 0000000180027e58     libucrt:nlsdata.obj
 0002:00004e70       ??_C@_1M@IKEENEDF@?$AAM?$AAa?$AAr?$AAc?$AAh@ 0000000180027e70     libucrt:nlsdata.obj
 0002:00004e80       ??_C@_1M@GJNLMHFD@?$AAA?$AAp?$AAr?$AAi?$AAl@ 0000000180027e80     libucrt:nlsdata.obj
 0002:00004e90       ??_C@_19EPFLPGAP@?$AAJ?$AAu?$AAn?$AAe@ 0000000180027e90     libucrt:nlsdata.obj
 0002:00004ea0       ??_C@_19BIFMLPCD@?$AAJ?$AAu?$AAl?$AAy@ 0000000180027ea0     libucrt:nlsdata.obj
 0002:00004eb0       ??_C@_1O@PAHLKOAC@?$AAA?$AAu?$AAg?$AAu?$AAs?$AAt@ 0000000180027eb0     libucrt:nlsdata.obj
 0002:00004ec0       ??_C@_1BE@DKAAMBJL@?$AAS?$AAe?$AAp?$AAt?$AAe?$AAm?$AAb?$AAe?$AAr@ 0000000180027ec0     libucrt:nlsdata.obj
 0002:00004ed8       ??_C@_1BA@EPANDLNG@?$AAO?$AAc?$AAt?$AAo?$AAb?$AAe?$AAr@ 0000000180027ed8     libucrt:nlsdata.obj
 0002:00004ee8       ??_C@_1BC@BGLIFPF@?$AAN?$AAo?$AAv?$AAe?$AAm?$AAb?$AAe?$AAr@ 0000000180027ee8     libucrt:nlsdata.obj
 0002:00004f00       ??_C@_1BC@FEMKIFH@?$AAD?$AAe?$AAc?$AAe?$AAm?$AAb?$AAe?$AAr@ 0000000180027f00     libucrt:nlsdata.obj
 0002:00004f14       ??_C@_15ODEHAHHF@?$AAA?$AAM@ 0000000180027f14     libucrt:nlsdata.obj
 0002:00004f1c       ??_C@_15CLMNNGEL@?$AAP?$AAM@ 0000000180027f1c     libucrt:nlsdata.obj
 0002:00004f28       ??_C@_1BC@IEBCMHCM@?$AAM?$AAM?$AA?1?$AAd?$AAd?$AA?1?$AAy?$AAy@ 0000000180027f28     libucrt:nlsdata.obj
 0002:00004f40       ??_C@_1CI@KNAKOEBC@?$AAd?$AAd?$AAd?$AAd?$AA?0?$AA?5?$AAM?$AAM?$AAM?$AAM?$AA?5?$AAd?$AAd?$AA?0?$AA?5@ 0000000180027f40     libucrt:nlsdata.obj
 0002:00004f68       ??_C@_1BC@GDGBMEMK@?$AAH?$AAH?$AA?3?$AAm?$AAm?$AA?3?$AAs?$AAs@ 0000000180027f68     libucrt:nlsdata.obj
 0002:00004f80       ??_C@_1M@BMHNFIME@?$AAe?$AAn?$AA?9?$AAU?$AAS@ 0000000180027f80     libucrt:nlsdata.obj
 0002:00004fb0       ??_C@_1M@HPNHIDJI@?$AAj?$AAa?$AA?9?$AAJ?$AAP@ 0000000180027fb0     libucrt:mbctype.obj
 0002:00004fc0       ??_C@_1M@BIBDDEMK@?$AAz?$AAh?$AA?9?$AAC?$AAN@ 0000000180027fc0     libucrt:mbctype.obj
 0002:00004fd0       ??_C@_1M@JLOOOEGK@?$AAk?$AAo?$AA?9?$AAK?$AAR@ 0000000180027fd0     libucrt:mbctype.obj
 0002:00004fe0       ??_C@_1M@CLNBBOPM@?$AAz?$AAh?$AA?9?$AAT?$AAW@ 0000000180027fe0     libucrt:mbctype.obj
 0002:00004ff0       __newctype                 0000000180027ff0     libucrt:ctype.obj
 0002:000052f0       __newclmap                 00000001800282f0     libucrt:ctype.obj
 0002:00005470       __newcumap                 0000000180028470     libucrt:ctype.obj
 0002:000055f0       _wctype                    00000001800285f0     libucrt:ctype.obj
 0002:00006640       ??_C@_15EMKDOKLE@?$AAa?$AAr@ 0000000180029640     libucrt:lcidtoname_downlevel.obj
 0002:00006648       ??_C@_15KNPADPLH@?$AAb?$AAg@ 0000000180029648     libucrt:lcidtoname_downlevel.obj
 0002:00006650       ??_C@_15EDMHLDMO@?$AAc?$AAa@ 0000000180029650     libucrt:lcidtoname_downlevel.obj
 0002:00006658       ??_C@_1O@BPEAJADD@?$AAz?$AAh?$AA?9?$AAC?$AAH?$AAS@ 0000000180029658     libucrt:lcidtoname_downlevel.obj
 0002:00006668       ??_C@_15LJNHCMNK@?$AAc?$AAs@ 0000000180029668     libucrt:lcidtoname_downlevel.obj
 0002:00006670       ??_C@_15FOMCIDHG@?$AAd?$AAa@ 0000000180029670     libucrt:lcidtoname_downlevel.obj
 0002:00006678       ??_C@_15NBKABECB@?$AAd?$AAe@ 0000000180029678     libucrt:lcidtoname_downlevel.obj
 0002:00006680       ??_C@_15GHPEIIAO@?$AAe?$AAl@ 0000000180029680     libucrt:lcidtoname_downlevel.obj
 0002:00006688       ??_C@_15MNPNEAIF@?$AAe?$AAn@ 0000000180029688     libucrt:lcidtoname_downlevel.obj
 0002:00006690       ??_C@_15GPIOMPMH@?$AAe?$AAs@ 0000000180029690     libucrt:lcidtoname_downlevel.obj
 0002:00006698       ??_C@_15NGLOAKJC@?$AAf?$AAi@ 0000000180029698     libucrt:lcidtoname_downlevel.obj
 0002:000066a0       ??_C@_15FBKGNKAM@?$AAf?$AAr@ 00000001800296a0     libucrt:lcidtoname_downlevel.obj
 0002:000066a8       ??_C@_15KGGCNEFK@?$AAh?$AAe@ 00000001800296a8     libucrt:lcidtoname_downlevel.obj
 0002:000066b0       ??_C@_15PGHLIDMF@?$AAh?$AAu@ 00000001800296b0     libucrt:lcidtoname_downlevel.obj
 0002:000066b8       ??_C@_15BIEMAPLM@?$AAi?$AAs@ 00000001800296b8     libucrt:lcidtoname_downlevel.obj
 0002:000066c0       ??_C@_15IFJLDHAF@?$AAi?$AAt@ 00000001800296c0     libucrt:lcidtoname_downlevel.obj
 0002:000066c8       ??_C@_15GEMIOCAG@?$AAj?$AAa@ 00000001800296c8     libucrt:lcidtoname_downlevel.obj
 0002:000066d0       ??_C@_15EPELEGJA@?$AAk?$AAo@ 00000001800296d0     libucrt:lcidtoname_downlevel.obj
 0002:000066d8       ??_C@_15NDDHIMN@?$AAn?$AAl@ 00000001800296d8     libucrt:lcidtoname_downlevel.obj
 0002:000066e0       ??_C@_15BPIGNHCD@?$AAn?$AAo@ 00000001800296e0     libucrt:lcidtoname_downlevel.obj
 0002:000066e8       ??_C@_15DEOPBLCG@?$AAp?$AAl@ 00000001800296e8     libucrt:lcidtoname_downlevel.obj
 0002:000066f0       ??_C@_15KBECGEFG@?$AAp?$AAt@ 00000001800296f0     libucrt:lcidtoname_downlevel.obj
 0002:000066f8       ??_C@_15GLJCBFMD@?$AAr?$AAo@ 00000001800296f8     libucrt:lcidtoname_downlevel.obj
 0002:00006700       ??_C@_15FEDGKCDI@?$AAr?$AAu@ 0000000180029700     libucrt:lcidtoname_downlevel.obj
 0002:00006708       ??_C@_15GLKMLLHM@?$AAh?$AAr@ 0000000180029708     libucrt:lcidtoname_downlevel.obj
 0002:00006710       ??_C@_15CPKMFBDB@?$AAs?$AAk@ 0000000180029710     libucrt:lcidtoname_downlevel.obj
 0002:00006718       ??_C@_15BAAIOGMK@?$AAs?$AAq@ 0000000180029718     libucrt:lcidtoname_downlevel.obj
 0002:00006720       ??_C@_15INNPNOHD@?$AAs?$AAv@ 0000000180029720     libucrt:lcidtoname_downlevel.obj
 0002:00006728       ??_C@_15CABMMOGH@?$AAt?$AAh@ 0000000180029728     libucrt:lcidtoname_downlevel.obj
 0002:00006730       ??_C@_15BPLIHJJM@?$AAt?$AAr@ 0000000180029730     libucrt:lcidtoname_downlevel.obj
 0002:00006738       ??_C@_15NEOEKKDJ@?$AAu?$AAr@ 0000000180029738     libucrt:lcidtoname_downlevel.obj
 0002:00006740       ??_C@_15NFICGAJK@?$AAi?$AAd@ 0000000180029740     libucrt:lcidtoname_downlevel.obj
 0002:00006748       ??_C@_15PJPFLCCM@?$AAu?$AAk@ 0000000180029748     libucrt:lcidtoname_downlevel.obj
 0002:00006750       ??_C@_15HPJPHDM@?$AAb?$AAe@ 0000000180029750     libucrt:lcidtoname_downlevel.obj
 0002:00006758       ??_C@_15LCHLGJII@?$AAs?$AAl@ 0000000180029758     libucrt:lcidtoname_downlevel.obj
 0002:00006760       ??_C@_15PCFJPHHO@?$AAe?$AAt@ 0000000180029760     libucrt:lcidtoname_downlevel.obj
 0002:00006768       ??_C@_15HPFPGODN@?$AAl?$AAv@ 0000000180029768     libucrt:lcidtoname_downlevel.obj
 0002:00006770       ??_C@_15NFFGKGLG@?$AAl?$AAt@ 0000000180029770     libucrt:lcidtoname_downlevel.obj
 0002:00006778       ??_C@_15BDAKCCHN@?$AAf?$AAa@ 0000000180029778     libucrt:lcidtoname_downlevel.obj
 0002:00006780       ??_C@_15NFGIAIAJ@?$AAv?$AAi@ 0000000180029780     libucrt:lcidtoname_downlevel.obj
 0002:00006788       ??_C@_15LMKNDMHN@?$AAh?$AAy@ 0000000180029788     libucrt:lcidtoname_downlevel.obj
 0002:00006790       ??_C@_15IJBHMCFL@?$AAa?$AAz@ 0000000180029790     libucrt:lcidtoname_downlevel.obj
 0002:00006798       ??_C@_15EKOFJABL@?$AAe?$AAu@ 0000000180029798     libucrt:lcidtoname_downlevel.obj
 0002:000067a0       ??_C@_15BGHADCNK@?$AAm?$AAk@ 00000001800297a0     libucrt:lcidtoname_downlevel.obj
 0002:000067a8       ??_C@_15JDNICKHM@?$AAa?$AAf@ 00000001800297a8     libucrt:lcidtoname_downlevel.obj
 0002:000067b0       ??_C@_15KPJEDBKD@?$AAk?$AAa@ 00000001800297b0     libucrt:lcidtoname_downlevel.obj
 0002:000067b8       ??_C@_15PDNFFFEO@?$AAf?$AAo@ 00000001800297b8     libucrt:lcidtoname_downlevel.obj
 0002:000067c0       ??_C@_15OMLEGLOC@?$AAh?$AAi@ 00000001800297c0     libucrt:lcidtoname_downlevel.obj
 0002:000067c8       ??_C@_15IDNNENKK@?$AAm?$AAs@ 00000001800297c8     libucrt:lcidtoname_downlevel.obj
 0002:000067d0       ??_C@_15MACJNBMH@?$AAk?$AAk@ 00000001800297d0     libucrt:lcidtoname_downlevel.obj
 0002:000067d8       ??_C@_15DKDJEOND@?$AAk?$AAy@ 00000001800297d8     libucrt:lcidtoname_downlevel.obj
 0002:000067e0       ??_C@_15DFGDLJBG@?$AAs?$AAw@ 00000001800297e0     libucrt:lcidtoname_downlevel.obj
 0002:000067e8       ??_C@_15BBFAICNG@?$AAu?$AAz@ 00000001800297e8     libucrt:lcidtoname_downlevel.obj
 0002:000067f0       ??_C@_15DKNDCGEA@?$AAt?$AAt@ 00000001800297f0     libucrt:lcidtoname_downlevel.obj
 0002:000067f8       ??_C@_15MGIFMDPL@?$AAp?$AAa@ 00000001800297f8     libucrt:lcidtoname_downlevel.obj
 0002:00006800       ??_C@_15HCNDBBA@?$AAg?$AAu@ 0000000180029800     libucrt:lcidtoname_downlevel.obj
 0002:00006808       ??_C@_15FNBEIBON@?$AAt?$AAa@ 0000000180029808     libucrt:lcidtoname_downlevel.obj
 0002:00006810       ??_C@_15NCHGBGLK@?$AAt?$AAe@ 0000000180029810     libucrt:lcidtoname_downlevel.obj
 0002:00006818       ??_C@_15PHPHCBPF@?$AAk?$AAn@ 0000000180029818     libucrt:lcidtoname_downlevel.obj
 0002:00006820       ??_C@_15DLGBCKMP@?$AAm?$AAr@ 0000000180029820     libucrt:lcidtoname_downlevel.obj
 0002:00006828       ??_C@_15EABBLBFF@?$AAs?$AAa@ 0000000180029828     libucrt:lcidtoname_downlevel.obj
 0002:00006830       ??_C@_15CBKOMCOI@?$AAm?$AAn@ 0000000180029830     libucrt:lcidtoname_downlevel.obj
 0002:00006838       ??_C@_15CKDMCJAF@?$AAg?$AAl@ 0000000180029838     libucrt:lcidtoname_downlevel.obj
 0002:00006840       ??_C@_17CNJFBPG@?$AAk?$AAo?$AAk@ 0000000180029840     libucrt:lcidtoname_downlevel.obj
 0002:00006848       ??_C@_17FFBJICPL@?$AAs?$AAy?$AAr@ 0000000180029848     libucrt:lcidtoname_downlevel.obj
 0002:00006850       ??_C@_17KPNDCPAF@?$AAd?$AAi?$AAv@ 0000000180029850     libucrt:lcidtoname_downlevel.obj
 0002:00006858       ??_C@_1M@OKAHONE@?$AAa?$AAr?$AA?9?$AAS?$AAA@ 0000000180029858     libucrt:lcidtoname_downlevel.obj
 0002:00006868       ??_C@_1M@FFFIGIGK@?$AAb?$AAg?$AA?9?$AAB?$AAG@ 0000000180029868     libucrt:lcidtoname_downlevel.obj
 0002:00006878       ??_C@_1M@BJNKEDC@?$AAc?$AAa?$AA?9?$AAE?$AAS@ 0000000180029878     libucrt:lcidtoname_downlevel.obj
 0002:00006888       ??_C@_1M@IJJHFJHA@?$AAc?$AAs?$AA?9?$AAC?$AAZ@ 0000000180029888     libucrt:lcidtoname_downlevel.obj
 0002:00006898       ??_C@_1M@CLPEOBGI@?$AAd?$AAa?$AA?9?$AAD?$AAK@ 0000000180029898     libucrt:lcidtoname_downlevel.obj
 0002:000068a8       ??_C@_1M@MCMADGCB@?$AAd?$AAe?$AA?9?$AAD?$AAE@ 00000001800298a8     libucrt:lcidtoname_downlevel.obj
 0002:000068b8       ??_C@_1M@OOCKEMAM@?$AAe?$AAl?$AA?9?$AAG?$AAR@ 00000001800298b8     libucrt:lcidtoname_downlevel.obj
 0002:000068c8       ??_C@_1M@DDNJFGID@?$AAf?$AAi?$AA?9?$AAF?$AAI@ 00000001800298c8     libucrt:lcidtoname_downlevel.obj
 0002:000068d8       ??_C@_1M@GLIPPMAC@?$AAf?$AAr?$AA?9?$AAF?$AAR@ 00000001800298d8     libucrt:lcidtoname_downlevel.obj
 0002:000068e8       ??_C@_1M@GFMCHPE@?$AAh?$AAe?$AA?9?$AAI?$AAL@ 00000001800298e8     libucrt:lcidtoname_downlevel.obj
 0002:000068f8       ??_C@_1M@MHLPGNKM@?$AAh?$AAu?$AA?9?$AAH?$AAU@ 00000001800298f8     libucrt:lcidtoname_downlevel.obj
 0002:00006908       ??_C@_1M@LPDDNNPN@?$AAi?$AAs?$AA?9?$AAI?$AAS@ 0000000180029908     libucrt:lcidtoname_downlevel.obj
 0002:00006918       ??_C@_1M@MADIPODN@?$AAi?$AAt?$AA?9?$AAI?$AAT@ 0000000180029918     libucrt:lcidtoname_downlevel.obj
 0002:00006928       ??_C@_1M@IHBJJGG@?$AAn?$AAl?$AA?9?$AAN?$AAL@ 0000000180029928     libucrt:lcidtoname_downlevel.obj
 0002:00006938       ??_C@_1M@EANAGDL@?$AAn?$AAb?$AA?9?$AAN?$AAO@ 0000000180029938     libucrt:lcidtoname_downlevel.obj
 0002:00006948       ??_C@_1M@NEIEMEGP@?$AAp?$AAl?$AA?9?$AAP?$AAL@ 0000000180029948     libucrt:lcidtoname_downlevel.obj
 0002:00006958       ??_C@_1M@BOCFIGEP@?$AAp?$AAt?$AA?9?$AAB?$AAR@ 0000000180029958     libucrt:lcidtoname_downlevel.obj
 0002:00006968       ??_C@_1M@IMPFOPBG@?$AAr?$AAo?$AA?9?$AAR?$AAO@ 0000000180029968     libucrt:lcidtoname_downlevel.obj
 0002:00006978       ??_C@_1M@IDNNEJMM@?$AAr?$AAu?$AA?9?$AAR?$AAU@ 0000000180029978     libucrt:lcidtoname_downlevel.obj
 0002:00006988       ??_C@_1M@LILEEOGM@?$AAh?$AAr?$AA?9?$AAH?$AAR@ 0000000180029988     libucrt:lcidtoname_downlevel.obj
 0002:00006998       ??_C@_1M@FKIFEHPB@?$AAs?$AAk?$AA?9?$AAS?$AAK@ 0000000180029998     libucrt:lcidtoname_downlevel.obj
 0002:000069a8       ??_C@_1M@LJMAMNPJ@?$AAs?$AAq?$AA?9?$AAA?$AAL@ 00000001800299a8     libucrt:lcidtoname_downlevel.obj
 0002:000069b8       ??_C@_1M@GIAKDKJK@?$AAs?$AAv?$AA?9?$AAS?$AAE@ 00000001800299b8     libucrt:lcidtoname_downlevel.obj
 0002:000069c8       ??_C@_1M@MKJKIKCL@?$AAt?$AAh?$AA?9?$AAT?$AAH@ 00000001800299c8     libucrt:lcidtoname_downlevel.obj
 0002:000069d8       ??_C@_1M@MFLCCMPB@?$AAt?$AAr?$AA?9?$AAT?$AAR@ 00000001800299d8     libucrt:lcidtoname_downlevel.obj
 0002:000069e8       ??_C@_1M@OIJHDKJN@?$AAu?$AAr?$AA?9?$AAP?$AAK@ 00000001800299e8     libucrt:lcidtoname_downlevel.obj
 0002:000069f8       ??_C@_1M@LHIPCIEK@?$AAi?$AAd?$AA?9?$AAI?$AAD@ 00000001800299f8     libucrt:lcidtoname_downlevel.obj
 0002:00006a08       ??_C@_1M@MFMOBGI@?$AAu?$AAk?$AA?9?$AAU?$AAA@ 0000000180029a08     libucrt:lcidtoname_downlevel.obj
 0002:00006a18       ??_C@_1M@OBGLJIPL@?$AAb?$AAe?$AA?9?$AAB?$AAY@ 0000000180029a18     libucrt:lcidtoname_downlevel.obj
 0002:00006a28       ??_C@_1M@BCFAJEAD@?$AAs?$AAl?$AA?9?$AAS?$AAI@ 0000000180029a28     libucrt:lcidtoname_downlevel.obj
 0002:00006a38       ??_C@_1M@FKFFEDDN@?$AAe?$AAt?$AA?9?$AAE?$AAE@ 0000000180029a38     libucrt:lcidtoname_downlevel.obj
 0002:00006a48       ??_C@_1M@KGKKAACI@?$AAl?$AAv?$AA?9?$AAL?$AAV@ 0000000180029a48     libucrt:lcidtoname_downlevel.obj
 0002:00006a58       ??_C@_1M@IFGBIJO@?$AAl?$AAt?$AA?9?$AAL?$AAT@ 0000000180029a58     libucrt:lcidtoname_downlevel.obj
 0002:00006a68       ??_C@_1M@FGEAHEDM@?$AAf?$AAa?$AA?9?$AAI?$AAR@ 0000000180029a68     libucrt:lcidtoname_downlevel.obj
 0002:00006a78       ??_C@_1M@KBMAIBFN@?$AAv?$AAi?$AA?9?$AAV?$AAN@ 0000000180029a78     libucrt:lcidtoname_downlevel.obj
 0002:00006a88       ??_C@_1M@GPCBKDJK@?$AAh?$AAy?$AA?9?$AAA?$AAM@ 0000000180029a88     libucrt:lcidtoname_downlevel.obj
 0002:00006a98       ??_C@_1BG@BECMDDJB@?$AAa?$AAz?$AA?9?$AAA?$AAZ?$AA?9?$AAL?$AAa?$AAt?$AAn@ 0000000180029a98     libucrt:lcidtoname_downlevel.obj
 0002:00006ab0       ??_C@_1M@MAOFCAEA@?$AAe?$AAu?$AA?9?$AAE?$AAS@ 0000000180029ab0     libucrt:lcidtoname_downlevel.obj
 0002:00006ac0       ??_C@_1M@IGHABKPI@?$AAm?$AAk?$AA?9?$AAM?$AAK@ 0000000180029ac0     libucrt:lcidtoname_downlevel.obj
 0002:00006ad0       ??_C@_1M@IAIGNEJG@?$AAt?$AAn?$AA?9?$AAZ?$AAA@ 0000000180029ad0     libucrt:lcidtoname_downlevel.obj
 0002:00006ae0       ??_C@_1M@IIJCOJFA@?$AAx?$AAh?$AA?9?$AAZ?$AAA@ 0000000180029ae0     libucrt:lcidtoname_downlevel.obj
 0002:00006af0       ??_C@_1M@LGPJHNJH@?$AAz?$AAu?$AA?9?$AAZ?$AAA@ 0000000180029af0     libucrt:lcidtoname_downlevel.obj
 0002:00006b00       ??_C@_1M@HOKAOIO@?$AAa?$AAf?$AA?9?$AAZ?$AAA@ 0000000180029b00     libucrt:lcidtoname_downlevel.obj
 0002:00006b10       ??_C@_1M@DPCLHLIE@?$AAk?$AAa?$AA?9?$AAG?$AAE@ 0000000180029b10     libucrt:lcidtoname_downlevel.obj
 0002:00006b20       ??_C@_1M@BLKMHJBI@?$AAf?$AAo?$AA?9?$AAF?$AAO@ 0000000180029b20     libucrt:lcidtoname_downlevel.obj
 0002:00006b30       ??_C@_1M@LGGJAPPB@?$AAh?$AAi?$AA?9?$AAI?$AAN@ 0000000180029b30     libucrt:lcidtoname_downlevel.obj
 0002:00006b40       ??_C@_1M@FIKPIHFE@?$AAm?$AAt?$AA?9?$AAM?$AAT@ 0000000180029b40     libucrt:lcidtoname_downlevel.obj
 0002:00006b50       ??_C@_1M@HEGGPBFA@?$AAs?$AAe?$AA?9?$AAN?$AAO@ 0000000180029b50     libucrt:lcidtoname_downlevel.obj
 0002:00006b60       ??_C@_1M@EIBJEEPA@?$AAm?$AAs?$AA?9?$AAM?$AAY@ 0000000180029b60     libucrt:lcidtoname_downlevel.obj
 0002:00006b70       ??_C@_1M@FHLBGMPP@?$AAk?$AAk?$AA?9?$AAK?$AAZ@ 0000000180029b70     libucrt:lcidtoname_downlevel.obj
 0002:00006b80       ??_C@_1M@NGJJLCGI@?$AAk?$AAy?$AA?9?$AAK?$AAG@ 0000000180029b80     libucrt:lcidtoname_downlevel.obj
 0002:00006b90       ??_C@_1M@GIENNBFC@?$AAs?$AAw?$AA?9?$AAK?$AAE@ 0000000180029b90     libucrt:lcidtoname_downlevel.obj
 0002:00006ba0       ??_C@_1BG@NDGMJIMJ@?$AAu?$AAz?$AA?9?$AAU?$AAZ?$AA?9?$AAL?$AAa?$AAt?$AAn@ 0000000180029ba0     libucrt:lcidtoname_downlevel.obj
 0002:00006bb8       ??_C@_1M@IDCCIHBC@?$AAt?$AAt?$AA?9?$AAR?$AAU@ 0000000180029bb8     libucrt:lcidtoname_downlevel.obj
 0002:00006bc8       ??_C@_1M@LOICPMOJ@?$AAb?$AAn?$AA?9?$AAI?$AAN@ 0000000180029bc8     libucrt:lcidtoname_downlevel.obj
 0002:00006bd8       ??_C@_1M@KPKKNEAH@?$AAp?$AAa?$AA?9?$AAI?$AAN@ 0000000180029bd8     libucrt:lcidtoname_downlevel.obj
 0002:00006be8       ??_C@_1M@PJGPPBOG@?$AAg?$AAu?$AA?9?$AAI?$AAN@ 0000000180029be8     libucrt:lcidtoname_downlevel.obj
 0002:00006bf8       ??_C@_1M@KMKMOPHI@?$AAt?$AAa?$AA?9?$AAI?$AAN@ 0000000180029bf8     libucrt:lcidtoname_downlevel.obj
 0002:00006c08       ??_C@_1M@KFEHEPAC@?$AAt?$AAe?$AA?9?$AAI?$AAN@ 0000000180029c08     libucrt:lcidtoname_downlevel.obj
 0002:00006c18       ??_C@_1M@CDCLMGHI@?$AAk?$AAn?$AA?9?$AAI?$AAN@ 0000000180029c18     libucrt:lcidtoname_downlevel.obj
 0002:00006c28       ??_C@_1M@MIODLDKF@?$AAm?$AAl?$AA?9?$AAI?$AAN@ 0000000180029c28     libucrt:lcidtoname_downlevel.obj
 0002:00006c38       ??_C@_1M@PBIEACPO@?$AAm?$AAr?$AA?9?$AAI?$AAN@ 0000000180029c38     libucrt:lcidtoname_downlevel.obj
 0002:00006c48       ??_C@_1M@NIDEAGPH@?$AAs?$AAa?$AA?9?$AAI?$AAN@ 0000000180029c48     libucrt:lcidtoname_downlevel.obj
 0002:00006c58       ??_C@_1M@FHIHCBIO@?$AAm?$AAn?$AA?9?$AAM?$AAN@ 0000000180029c58     libucrt:lcidtoname_downlevel.obj
 0002:00006c68       ??_C@_1M@JAIJPENP@?$AAc?$AAy?$AA?9?$AAG?$AAB@ 0000000180029c68     libucrt:lcidtoname_downlevel.obj
 0002:00006c78       ??_C@_1M@PHGFBEPN@?$AAg?$AAl?$AA?9?$AAE?$AAS@ 0000000180029c78     libucrt:lcidtoname_downlevel.obj
 0002:00006c88       ??_C@_1O@KPIPDNCP@?$AAk?$AAo?$AAk?$AA?9?$AAI?$AAN@ 0000000180029c88     libucrt:lcidtoname_downlevel.obj
 0002:00006c98       ??_C@_1O@KNHJLDJA@?$AAs?$AAy?$AAr?$AA?9?$AAS?$AAY@ 0000000180029c98     libucrt:lcidtoname_downlevel.obj
 0002:00006ca8       ??_C@_1O@MKEKBLAH@?$AAd?$AAi?$AAv?$AA?9?$AAM?$AAV@ 0000000180029ca8     libucrt:lcidtoname_downlevel.obj
 0002:00006cb8       ??_C@_1O@OHDCKDDF@?$AAq?$AAu?$AAz?$AA?9?$AAB?$AAO@ 0000000180029cb8     libucrt:lcidtoname_downlevel.obj
 0002:00006cc8       ??_C@_1M@LEPJNLFD@?$AAn?$AAs?$AA?9?$AAZ?$AAA@ 0000000180029cc8     libucrt:lcidtoname_downlevel.obj
 0002:00006cd8       ??_C@_1M@OMLEIIJB@?$AAm?$AAi?$AA?9?$AAN?$AAZ@ 0000000180029cd8     libucrt:lcidtoname_downlevel.obj
 0002:00006ce8       ??_C@_1M@PMPEAILG@?$AAa?$AAr?$AA?9?$AAI?$AAQ@ 0000000180029ce8     libucrt:lcidtoname_downlevel.obj
 0002:00006cf8       ??_C@_1M@CNKPNOEE@?$AAd?$AAe?$AA?9?$AAC?$AAH@ 0000000180029cf8     libucrt:lcidtoname_downlevel.obj
 0002:00006d08       ??_C@_1M@LKMGMLKO@?$AAe?$AAn?$AA?9?$AAG?$AAB@ 0000000180029d08     libucrt:lcidtoname_downlevel.obj
 0002:00006d18       ??_C@_1M@PGKJFFGL@?$AAe?$AAs?$AA?9?$AAM?$AAX@ 0000000180029d18     libucrt:lcidtoname_downlevel.obj
 0002:00006d28       ??_C@_1M@DNNANBDC@?$AAf?$AAr?$AA?9?$AAB?$AAE@ 0000000180029d28     libucrt:lcidtoname_downlevel.obj
 0002:00006d38       ??_C@_1M@HLGMDFHM@?$AAi?$AAt?$AA?9?$AAC?$AAH@ 0000000180029d38     libucrt:lcidtoname_downlevel.obj
 0002:00006d48       ??_C@_1M@CLLBGJH@?$AAn?$AAl?$AA?9?$AAB?$AAE@ 0000000180029d48     libucrt:lcidtoname_downlevel.obj
 0002:00006d58       ??_C@_1M@BODBOGLF@?$AAn?$AAn?$AA?9?$AAN?$AAO@ 0000000180029d58     libucrt:lcidtoname_downlevel.obj
 0002:00006d68       ??_C@_1M@HFFAHKAD@?$AAp?$AAt?$AA?9?$AAP?$AAT@ 0000000180029d68     libucrt:lcidtoname_downlevel.obj
 0002:00006d78       ??_C@_1BG@LNOAKHIE@?$AAs?$AAr?$AA?9?$AAS?$AAP?$AA?9?$AAL?$AAa?$AAt?$AAn@ 0000000180029d78     libucrt:lcidtoname_downlevel.obj
 0002:00006d90       ??_C@_1M@HBMHBGAK@?$AAs?$AAv?$AA?9?$AAF?$AAI@ 0000000180029d90     libucrt:lcidtoname_downlevel.obj
 0002:00006da0       ??_C@_1BG@DGCJGJBE@?$AAa?$AAz?$AA?9?$AAA?$AAZ?$AA?9?$AAC?$AAy?$AAr?$AAl@ 0000000180029da0     libucrt:lcidtoname_downlevel.obj
 0002:00006db8       ??_C@_1M@KEJDAAHB@?$AAs?$AAe?$AA?9?$AAS?$AAE@ 0000000180029db8     libucrt:lcidtoname_downlevel.obj
 0002:00006dc8       ??_C@_1M@HEIBJJAD@?$AAm?$AAs?$AA?9?$AAB?$AAN@ 0000000180029dc8     libucrt:lcidtoname_downlevel.obj
 0002:00006dd8       ??_C@_1BG@PBGJMCEM@?$AAu?$AAz?$AA?9?$AAU?$AAZ?$AA?9?$AAC?$AAy?$AAr?$AAl@ 0000000180029dd8     libucrt:lcidtoname_downlevel.obj
 0002:00006df0       ??_C@_1O@LAOBCMDF@?$AAq?$AAu?$AAz?$AA?9?$AAE?$AAC@ 0000000180029df0     libucrt:lcidtoname_downlevel.obj
 0002:00006e00       ??_C@_1M@POEEMAIO@?$AAa?$AAr?$AA?9?$AAE?$AAG@ 0000000180029e00     libucrt:lcidtoname_downlevel.obj
 0002:00006e10       ??_C@_1M@EFAKDEDL@?$AAz?$AAh?$AA?9?$AAH?$AAK@ 0000000180029e10     libucrt:lcidtoname_downlevel.obj
 0002:00006e20       ??_C@_1M@HKKIJHGI@?$AAd?$AAe?$AA?9?$AAA?$AAT@ 0000000180029e20     libucrt:lcidtoname_downlevel.obj
 0002:00006e30       ??_C@_1M@KBFBEHJF@?$AAe?$AAn?$AA?9?$AAA?$AAU@ 0000000180029e30     libucrt:lcidtoname_downlevel.obj
 0002:00006e40       ??_C@_1M@MNPLFAAH@?$AAe?$AAs?$AA?9?$AAE?$AAS@ 0000000180029e40     libucrt:lcidtoname_downlevel.obj
 0002:00006e50       ??_C@_1M@HJOOJFMA@?$AAf?$AAr?$AA?9?$AAC?$AAA@ 0000000180029e50     libucrt:lcidtoname_downlevel.obj
 0002:00006e60       ??_C@_1BG@JPOFPNAB@?$AAs?$AAr?$AA?9?$AAS?$AAP?$AA?9?$AAC?$AAy?$AAr?$AAl@ 0000000180029e60     libucrt:lcidtoname_downlevel.obj
 0002:00006e78       ??_C@_1M@LNFOCMOB@?$AAs?$AAe?$AA?9?$AAF?$AAI@ 0000000180029e78     libucrt:lcidtoname_downlevel.obj
 0002:00006e88       ??_C@_1O@MGJBOAMB@?$AAq?$AAu?$AAz?$AA?9?$AAP?$AAE@ 0000000180029e88     libucrt:lcidtoname_downlevel.obj
 0002:00006e98       ??_C@_1M@GJINLBOK@?$AAa?$AAr?$AA?9?$AAL?$AAY@ 0000000180029e98     libucrt:lcidtoname_downlevel.obj
 0002:00006ea8       ??_C@_1M@GGMNHJNL@?$AAz?$AAh?$AA?9?$AAS?$AAG@ 0000000180029ea8     libucrt:lcidtoname_downlevel.obj
 0002:00006eb8       ??_C@_1M@HOIKODND@?$AAd?$AAe?$AA?9?$AAL?$AAU@ 0000000180029eb8     libucrt:lcidtoname_downlevel.obj
 0002:00006ec8       ??_C@_1M@DDOCCGFG@?$AAe?$AAn?$AA?9?$AAC?$AAA@ 0000000180029ec8     libucrt:lcidtoname_downlevel.obj
 0002:00006ed8       ??_C@_1M@BNOEMJLF@?$AAe?$AAs?$AA?9?$AAG?$AAT@ 0000000180029ed8     libucrt:lcidtoname_downlevel.obj
 0002:00006ee8       ??_C@_1M@EOGNKEK@?$AAf?$AAr?$AA?9?$AAC?$AAH@ 0000000180029ee8     libucrt:lcidtoname_downlevel.obj
 0002:00006ef8       ??_C@_1M@FLIDJFHL@?$AAh?$AAr?$AA?9?$AAB?$AAA@ 0000000180029ef8     libucrt:lcidtoname_downlevel.obj
 0002:00006f08       ??_C@_1O@FMCELNAJ@?$AAs?$AAm?$AAj?$AA?9?$AAN?$AAO@ 0000000180029f08     libucrt:lcidtoname_downlevel.obj
 0002:00006f18       ??_C@_1M@JHGLJMGJ@?$AAa?$AAr?$AA?9?$AAD?$AAZ@ 0000000180029f18     libucrt:lcidtoname_downlevel.obj
 0002:00006f28       ??_C@_1M@JKKFDCNP@?$AAz?$AAh?$AA?9?$AAM?$AAO@ 0000000180029f28     libucrt:lcidtoname_downlevel.obj
 0002:00006f38       ??_C@_1M@GEEFALPE@?$AAd?$AAe?$AA?9?$AAL?$AAI@ 0000000180029f38     libucrt:lcidtoname_downlevel.obj
 0002:00006f48       ??_C@_1M@IGEOFBG@?$AAe?$AAn?$AA?9?$AAN?$AAZ@ 0000000180029f48     libucrt:lcidtoname_downlevel.obj
 0002:00006f58       ??_C@_1M@KDBONEHP@?$AAe?$AAs?$AA?9?$AAC?$AAR@ 0000000180029f58     libucrt:lcidtoname_downlevel.obj
 0002:00006f68       ??_C@_1M@FHMDOHNN@?$AAf?$AAr?$AA?9?$AAL?$AAU@ 0000000180029f68     libucrt:lcidtoname_downlevel.obj
 0002:00006f78       ??_C@_1BG@NFKKMAFG@?$AAb?$AAs?$AA?9?$AAB?$AAA?$AA?9?$AAL?$AAa?$AAt?$AAn@ 0000000180029f78     libucrt:lcidtoname_downlevel.obj
 0002:00006f90       ??_C@_1O@IMNBEMCI@?$AAs?$AAm?$AAj?$AA?9?$AAS?$AAE@ 0000000180029f90     libucrt:lcidtoname_downlevel.obj
 0002:00006fa0       ??_C@_1M@DHHMBNDP@?$AAa?$AAr?$AA?9?$AAM?$AAA@ 0000000180029fa0     libucrt:lcidtoname_downlevel.obj
 0002:00006fb0       ??_C@_1M@BNBLJCGH@?$AAe?$AAn?$AA?9?$AAI?$AAE@ 0000000180029fb0     libucrt:lcidtoname_downlevel.obj
 0002:00006fc0       ??_C@_1M@GEPAFMDL@?$AAe?$AAs?$AA?9?$AAP?$AAA@ 0000000180029fc0     libucrt:lcidtoname_downlevel.obj
 0002:00006fd0       ??_C@_1M@OJONDMDL@?$AAf?$AAr?$AA?9?$AAM?$AAC@ 0000000180029fd0     libucrt:lcidtoname_downlevel.obj
 0002:00006fe0       ??_C@_1BG@OBCNFJB@?$AAs?$AAr?$AA?9?$AAB?$AAA?$AA?9?$AAL?$AAa?$AAt?$AAn@ 0000000180029fe0     libucrt:lcidtoname_downlevel.obj
 0002:00006ff8       ??_C@_1O@KEMEEGPO@?$AAs?$AAm?$AAa?$AA?9?$AAN?$AAO@ 0000000180029ff8     libucrt:lcidtoname_downlevel.obj
 0002:00007008       ??_C@_1M@ELMGFODK@?$AAa?$AAr?$AA?9?$AAT?$AAN@ 000000018002a008     libucrt:lcidtoname_downlevel.obj
 0002:00007018       ??_C@_1M@BHDLHFAF@?$AAe?$AAn?$AA?9?$AAZ?$AAA@ 000000018002a018     libucrt:lcidtoname_downlevel.obj
 0002:00007028       ??_C@_1M@BMGIGLIF@?$AAe?$AAs?$AA?9?$AAD?$AAO@ 000000018002a028     libucrt:lcidtoname_downlevel.obj
 0002:00007038       ??_C@_1BG@CMBHIPBE@?$AAs?$AAr?$AA?9?$AAB?$AAA?$AA?9?$AAC?$AAy?$AAr?$AAl@ 000000018002a038     libucrt:lcidtoname_downlevel.obj
 0002:00007050       ??_C@_1O@HEDBLHNP@?$AAs?$AAm?$AAa?$AA?9?$AAS?$AAE@ 000000018002a050     libucrt:lcidtoname_downlevel.obj
 0002:00007060       ??_C@_1M@DAGCADIM@?$AAa?$AAr?$AA?9?$AAO?$AAM@ 000000018002a060     libucrt:lcidtoname_downlevel.obj
 0002:00007070       ??_C@_1M@FODLMICG@?$AAe?$AAn?$AA?9?$AAJ?$AAM@ 000000018002a070     libucrt:lcidtoname_downlevel.obj
 0002:00007080       ??_C@_1M@DNMLCIHB@?$AAe?$AAs?$AA?9?$AAV?$AAE@ 000000018002a080     libucrt:lcidtoname_downlevel.obj
 0002:00007090       ??_C@_1O@EOKHMKJK@?$AAs?$AAm?$AAs?$AA?9?$AAF?$AAI@ 000000018002a090     libucrt:lcidtoname_downlevel.obj
 0002:000070a0       ??_C@_1M@CAFJMKOF@?$AAa?$AAr?$AA?9?$AAY?$AAE@ 000000018002a0a0     libucrt:lcidtoname_downlevel.obj
 0002:000070b0       ??_C@_1M@CBFHIJLI@?$AAe?$AAn?$AA?9?$AAC?$AAB@ 000000018002a0b0     libucrt:lcidtoname_downlevel.obj
 0002:000070c0       ??_C@_1M@BGNFLDN@?$AAe?$AAs?$AA?9?$AAC?$AAO@ 000000018002a0c0     libucrt:lcidtoname_downlevel.obj
 0002:000070d0       ??_C@_1O@JMPHMAMC@?$AAs?$AAm?$AAn?$AA?9?$AAF?$AAI@ 000000018002a0d0     libucrt:lcidtoname_downlevel.obj
 0002:000070e0       ??_C@_1M@JLANABKE@?$AAa?$AAr?$AA?9?$AAS?$AAY@ 000000018002a0e0     libucrt:lcidtoname_downlevel.obj
 0002:000070f0       ??_C@_1M@HPKGCFGN@?$AAe?$AAn?$AA?9?$AAB?$AAZ@ 000000018002a0f0     libucrt:lcidtoname_downlevel.obj
 0002:00007100       ??_C@_1M@OLJCMLGM@?$AAe?$AAs?$AA?9?$AAP?$AAE@ 000000018002a100     libucrt:lcidtoname_downlevel.obj
 0002:00007110       ??_C@_1M@MKKGFKLE@?$AAa?$AAr?$AA?9?$AAJ?$AAO@ 000000018002a110     libucrt:lcidtoname_downlevel.obj
 0002:00007120       ??_C@_1M@EKPGLDNI@?$AAe?$AAn?$AA?9?$AAT?$AAT@ 000000018002a120     libucrt:lcidtoname_downlevel.obj
 0002:00007130       ??_C@_1M@OONGHFHE@?$AAe?$AAs?$AA?9?$AAA?$AAR@ 000000018002a130     libucrt:lcidtoname_downlevel.obj
 0002:00007140       ??_C@_1M@OOJFGBHE@?$AAa?$AAr?$AA?9?$AAL?$AAB@ 000000018002a140     libucrt:lcidtoname_downlevel.obj
 0002:00007150       ??_C@_1M@GCEJHNEG@?$AAe?$AAn?$AA?9?$AAZ?$AAW@ 000000018002a150     libucrt:lcidtoname_downlevel.obj
 0002:00007160       ??_C@_1M@JNOCAHJI@?$AAe?$AAs?$AA?9?$AAE?$AAC@ 000000018002a160     libucrt:lcidtoname_downlevel.obj
 0002:00007170       ??_C@_1M@JEFHPGGB@?$AAa?$AAr?$AA?9?$AAK?$AAW@ 000000018002a170     libucrt:lcidtoname_downlevel.obj
 0002:00007180       ??_C@_1M@MLKIBJOJ@?$AAe?$AAn?$AA?9?$AAP?$AAH@ 000000018002a180     libucrt:lcidtoname_downlevel.obj
 0002:00007190       ??_C@_1M@BDNIPEND@?$AAe?$AAs?$AA?9?$AAC?$AAL@ 000000018002a190     libucrt:lcidtoname_downlevel.obj
 0002:000071a0       ??_C@_1M@MPNMEKBD@?$AAa?$AAr?$AA?9?$AAA?$AAE@ 000000018002a1a0     libucrt:lcidtoname_downlevel.obj
 0002:000071b0       ??_C@_1M@KBJALCPI@?$AAe?$AAs?$AA?9?$AAU?$AAY@ 000000018002a1b0     libucrt:lcidtoname_downlevel.obj
 0002:000071c0       ??_C@_1M@LLCCOAGA@?$AAa?$AAr?$AA?9?$AAB?$AAH@ 000000018002a1c0     libucrt:lcidtoname_downlevel.obj
 0002:000071d0       ??_C@_1M@PBFNCDEL@?$AAe?$AAs?$AA?9?$AAP?$AAY@ 000000018002a1d0     libucrt:lcidtoname_downlevel.obj
 0002:000071e0       ??_C@_1M@EDGINPNP@?$AAa?$AAr?$AA?9?$AAQ?$AAA@ 000000018002a1e0     libucrt:lcidtoname_downlevel.obj
 0002:000071f0       ??_C@_1M@MKDBIIJI@?$AAe?$AAs?$AA?9?$AAB?$AAO@ 000000018002a1f0     libucrt:lcidtoname_downlevel.obj
 0002:00007200       ??_C@_1M@CPKKEBLD@?$AAe?$AAs?$AA?9?$AAS?$AAV@ 000000018002a200     libucrt:lcidtoname_downlevel.obj
 0002:00007210       ??_C@_1M@NDBGMMJL@?$AAe?$AAs?$AA?9?$AAH?$AAN@ 000000018002a210     libucrt:lcidtoname_downlevel.obj
 0002:00007220       ??_C@_1M@JIJIBHDP@?$AAe?$AAs?$AA?9?$AAN?$AAI@ 000000018002a220     libucrt:lcidtoname_downlevel.obj
 0002:00007230       ??_C@_1M@CGFMKEEK@?$AAe?$AAs?$AA?9?$AAP?$AAR@ 000000018002a230     libucrt:lcidtoname_downlevel.obj
 0002:00007240       ??_C@_1O@ICJHKIIK@?$AAz?$AAh?$AA?9?$AAC?$AAH?$AAT@ 000000018002a240     libucrt:lcidtoname_downlevel.obj
 0002:00007250       ??_C@_15CLNEJCE@?$AAs?$AAr@ 000000018002a250     libucrt:lcidtoname_downlevel.obj
 0002:000080a0       ??_C@_1M@KAHEKEIG@?$AAa?$AAf?$AA?9?$AAz?$AAa@ 000000018002b0a0     libucrt:lcidtoname_downlevel.obj
 0002:000080b0       ??_C@_1M@GIECOABL@?$AAa?$AAr?$AA?9?$AAa?$AAe@ 000000018002b0b0     libucrt:lcidtoname_downlevel.obj
 0002:000080c0       ??_C@_1M@BMLMEKGI@?$AAa?$AAr?$AA?9?$AAb?$AAh@ 000000018002b0c0     libucrt:lcidtoname_downlevel.obj
 0002:000080d0       ??_C@_1M@DAPFDGGB@?$AAa?$AAr?$AA?9?$AAd?$AAz@ 000000018002b0d0     libucrt:lcidtoname_downlevel.obj
 0002:000080e0       ??_C@_1M@FJNKGKIG@?$AAa?$AAr?$AA?9?$AAe?$AAg@ 000000018002b0e0     libucrt:lcidtoname_downlevel.obj
 0002:000080f0       ??_C@_1M@FLGKKCLO@?$AAa?$AAr?$AA?9?$AAi?$AAq@ 000000018002b0f0     libucrt:lcidtoname_downlevel.obj
 0002:00008100       ??_C@_1M@GNDIPALM@?$AAa?$AAr?$AA?9?$AAj?$AAo@ 000000018002b100     libucrt:lcidtoname_downlevel.obj
 0002:00008110       ??_C@_1M@DDMJFMGJ@?$AAa?$AAr?$AA?9?$AAk?$AAw@ 000000018002b110     libucrt:lcidtoname_downlevel.obj
 0002:00008120       ??_C@_1M@EJALMLHM@?$AAa?$AAr?$AA?9?$AAl?$AAb@ 000000018002b120     libucrt:lcidtoname_downlevel.obj
 0002:00008130       ??_C@_1M@MOBDBLOC@?$AAa?$AAr?$AA?9?$AAl?$AAy@ 000000018002b130     libucrt:lcidtoname_downlevel.obj
 0002:00008140       ??_C@_1M@JAOCLHDH@?$AAa?$AAr?$AA?9?$AAm?$AAa@ 000000018002b140     libucrt:lcidtoname_downlevel.obj
 0002:00008150       ??_C@_1M@JHPMKJIE@?$AAa?$AAr?$AA?9?$AAo?$AAm@ 000000018002b150     libucrt:lcidtoname_downlevel.obj
 0002:00008160       ??_C@_1M@OEPGHFNH@?$AAa?$AAr?$AA?9?$AAq?$AAa@ 000000018002b160     libucrt:lcidtoname_downlevel.obj
 0002:00008170       ??_C@_1M@KJDONENM@?$AAa?$AAr?$AA?9?$AAs?$AAa@ 000000018002b170     libucrt:lcidtoname_downlevel.obj
 0002:00008180       ??_C@_1M@DMJDKLKM@?$AAa?$AAr?$AA?9?$AAs?$AAy@ 000000018002b180     libucrt:lcidtoname_downlevel.obj
 0002:00008190       ??_C@_1M@OMFIPEDC@?$AAa?$AAr?$AA?9?$AAt?$AAn@ 000000018002b190     libucrt:lcidtoname_downlevel.obj
 0002:000081a0       ??_C@_1M@IHMHGAON@?$AAa?$AAr?$AA?9?$AAy?$AAe@ 000000018002b1a0     libucrt:lcidtoname_downlevel.obj
 0002:000081b0       ??_C@_1BG@KDCPGJGB@?$AAa?$AAz?$AA?9?$AAa?$AAz?$AA?9?$AAc?$AAy?$AAr?$AAl@ 000000018002b1b0     libucrt:lcidtoname_downlevel.obj
 0002:000081c8       ??_C@_1BG@IBCKDDOE@?$AAa?$AAz?$AA?9?$AAa?$AAz?$AA?9?$AAl?$AAa?$AAt?$AAn@ 000000018002b1c8     libucrt:lcidtoname_downlevel.obj
 0002:000081e0       ??_C@_1M@EGPFDCPD@?$AAb?$AAe?$AA?9?$AAb?$AAy@ 000000018002b1e0     libucrt:lcidtoname_downlevel.obj
 0002:000081f0       ??_C@_1M@PCMGMCGC@?$AAb?$AAg?$AA?9?$AAb?$AAg@ 000000018002b1f0     libucrt:lcidtoname_downlevel.obj
 0002:00008200       ??_C@_1M@BJBMFGOB@?$AAb?$AAn?$AA?9?$AAi?$AAn@ 000000018002b200     libucrt:lcidtoname_downlevel.obj
 0002:00008210       ??_C@_1BG@EAKMMACD@?$AAb?$AAs?$AA?9?$AAb?$AAa?$AA?9?$AAl?$AAa?$AAt?$AAn@ 000000018002b210     libucrt:lcidtoname_downlevel.obj
 0002:00008228       ??_C@_1M@KGADAODK@?$AAc?$AAa?$AA?9?$AAe?$AAs@ 000000018002b228     libucrt:lcidtoname_downlevel.obj
 0002:00008238       ??_C@_1M@COAJPDHI@?$AAc?$AAs?$AA?9?$AAc?$AAz@ 000000018002b238     libucrt:lcidtoname_downlevel.obj
 0002:00008248       ??_C@_1M@DHBHFONH@?$AAc?$AAy?$AA?9?$AAg?$AAb@ 000000018002b248     libucrt:lcidtoname_downlevel.obj
 0002:00008258       ??_C@_1M@IMGKELGA@?$AAd?$AAa?$AA?9?$AAd?$AAk@ 000000018002b258     libucrt:lcidtoname_downlevel.obj
 0002:00008268       ??_C@_1M@NNDGDNGA@?$AAd?$AAe?$AA?9?$AAa?$AAt@ 000000018002b268     libucrt:lcidtoname_downlevel.obj
 0002:00008278       ??_C@_1M@IKDBHEEM@?$AAd?$AAe?$AA?9?$AAc?$AAh@ 000000018002b278     libucrt:lcidtoname_downlevel.obj
 0002:00008288       ??_C@_1M@GFFOJMCJ@?$AAd?$AAe?$AA?9?$AAd?$AAe@ 000000018002b288     libucrt:lcidtoname_downlevel.obj
 0002:00008298       ??_C@_1M@MDNLKBPM@?$AAd?$AAe?$AA?9?$AAl?$AAi@ 000000018002b298     libucrt:lcidtoname_downlevel.obj
 0002:000082a8       ??_C@_1M@NJBEEJNL@?$AAd?$AAe?$AA?9?$AAl?$AAu@ 000000018002b2a8     libucrt:lcidtoname_downlevel.obj
 0002:000082b8       ??_C@_1O@GNNELBAP@?$AAd?$AAi?$AAv?$AA?9?$AAm?$AAv@ 000000018002b2b8     libucrt:lcidtoname_downlevel.obj
 0002:000082c8       ??_C@_1M@EJLEOGAE@?$AAe?$AAl?$AA?9?$AAg?$AAr@ 000000018002b2c8     libucrt:lcidtoname_downlevel.obj
 0002:000082d8       ??_C@_1M@GMPONJN@?$AAe?$AAn?$AA?9?$AAa?$AAu@ 000000018002b2d8     libucrt:lcidtoname_downlevel.obj
 0002:000082e8       ??_C@_1M@NIDIIPGF@?$AAe?$AAn?$AA?9?$AAb?$AAz@ 000000018002b2e8     libucrt:lcidtoname_downlevel.obj
 0002:000082f8       ??_C@_1M@JEHMIMFO@?$AAe?$AAn?$AA?9?$AAc?$AAa@ 000000018002b2f8     libucrt:lcidtoname_downlevel.obj
 0002:00008308       ??_C@_1M@IGMJCDLA@?$AAe?$AAn?$AA?9?$AAc?$AAb@ 000000018002b308     libucrt:lcidtoname_downlevel.obj
 0002:00008318       ??_C@_1M@BNFIGBKG@?$AAe?$AAn?$AA?9?$AAg?$AAb@ 000000018002b318     libucrt:lcidtoname_downlevel.obj
 0002:00008328       ??_C@_1M@LKIFDIGP@?$AAe?$AAn?$AA?9?$AAi?$AAe@ 000000018002b328     libucrt:lcidtoname_downlevel.obj
 0002:00008338       ??_C@_1M@PJKFGCCO@?$AAe?$AAn?$AA?9?$AAj?$AAm@ 000000018002b338     libucrt:lcidtoname_downlevel.obj
 0002:00008348       ??_C@_1M@KPPKEPBO@?$AAe?$AAn?$AA?9?$AAn?$AAz@ 000000018002b348     libucrt:lcidtoname_downlevel.obj
 0002:00008358       ??_C@_1M@GMDGLDOB@?$AAe?$AAn?$AA?9?$AAp?$AAh@ 000000018002b358     libucrt:lcidtoname_downlevel.obj
 0002:00008368       ??_C@_1M@ONGIBJNA@?$AAe?$AAn?$AA?9?$AAt?$AAt@ 000000018002b368     libucrt:lcidtoname_downlevel.obj
 0002:00008378       ??_C@_1M@LLODPCMM@?$AAe?$AAn?$AA?9?$AAu?$AAs@ 000000018002b378     libucrt:lcidtoname_downlevel.obj
 0002:00008388       ??_C@_1M@LAKFNPAN@?$AAe?$AAn?$AA?9?$AAz?$AAa@ 000000018002b388     libucrt:lcidtoname_downlevel.obj
 0002:00008398       ??_C@_1M@MFNHNHEO@?$AAe?$AAn?$AA?9?$AAz?$AAw@ 000000018002b398     libucrt:lcidtoname_downlevel.obj
 0002:000083a8       ??_C@_1M@EJEINPHM@?$AAe?$AAs?$AA?9?$AAa?$AAr@ 000000018002b3a8     libucrt:lcidtoname_downlevel.obj
 0002:000083b8       ??_C@_1M@GNKPCCJA@?$AAe?$AAs?$AA?9?$AAb?$AAo@ 000000018002b3b8     libucrt:lcidtoname_downlevel.obj
 0002:000083c8       ??_C@_1M@LEEGFONL@?$AAe?$AAs?$AA?9?$AAc?$AAl@ 000000018002b3c8     libucrt:lcidtoname_downlevel.obj
 0002:000083d8       ??_C@_1M@KGPDPBDF@?$AAe?$AAs?$AA?9?$AAc?$AAo@ 000000018002b3d8     libucrt:lcidtoname_downlevel.obj
 0002:000083e8       ??_C@_1M@EIAHOHH@?$AAe?$AAs?$AA?9?$AAc?$AAr@ 000000018002b3e8     libucrt:lcidtoname_downlevel.obj
 0002:000083f8       ??_C@_1M@LLPGMBIN@?$AAe?$AAs?$AA?9?$AAd?$AAo@ 000000018002b3f8     libucrt:lcidtoname_downlevel.obj
 0002:00008408       ??_C@_1M@DKHMKNJA@?$AAe?$AAs?$AA?9?$AAe?$AAc@ 000000018002b408     libucrt:lcidtoname_downlevel.obj
 0002:00008418       ??_C@_1M@GKGFPKAP@?$AAe?$AAs?$AA?9?$AAe?$AAs@ 000000018002b418     libucrt:lcidtoname_downlevel.obj
 0002:00008428       ??_C@_1M@LKHKGDLN@?$AAe?$AAs?$AA?9?$AAg?$AAt@ 000000018002b428     libucrt:lcidtoname_downlevel.obj
 0002:00008438       ??_C@_1M@HEIIGGJD@?$AAe?$AAs?$AA?9?$AAh?$AAn@ 000000018002b438     libucrt:lcidtoname_downlevel.obj
 0002:00008448       ??_C@_1M@FBDHPPGD@?$AAe?$AAs?$AA?9?$AAm?$AAx@ 000000018002b448     libucrt:lcidtoname_downlevel.obj
 0002:00008458       ??_C@_1M@DPAGLNDH@?$AAe?$AAs?$AA?9?$AAn?$AAi@ 000000018002b458     libucrt:lcidtoname_downlevel.obj
 0002:00008468       ??_C@_1M@MDGOPGDD@?$AAe?$AAs?$AA?9?$AAp?$AAa@ 000000018002b468     libucrt:lcidtoname_downlevel.obj
 0002:00008478       ??_C@_1M@EMAMGBGE@?$AAe?$AAs?$AA?9?$AAp?$AAe@ 000000018002b478     libucrt:lcidtoname_downlevel.obj
 0002:00008488       ??_C@_1M@IBMCAOEC@?$AAe?$AAs?$AA?9?$AAp?$AAr@ 000000018002b488     libucrt:lcidtoname_downlevel.obj
 0002:00008498       ??_C@_1M@FGMDIJED@?$AAe?$AAs?$AA?9?$AAp?$AAy@ 000000018002b498     libucrt:lcidtoname_downlevel.obj
 0002:000084a8       ??_C@_1M@IIDEOLLL@?$AAe?$AAs?$AA?9?$AAs?$AAv@ 000000018002b4a8     libucrt:lcidtoname_downlevel.obj
 0002:000084b8       ??_C@_1M@GAOBIPA@?$AAe?$AAs?$AA?9?$AAu?$AAy@ 000000018002b4b8     libucrt:lcidtoname_downlevel.obj
 0002:000084c8       ??_C@_1M@JKFFICHJ@?$AAe?$AAs?$AA?9?$AAv?$AAe@ 000000018002b4c8     libucrt:lcidtoname_downlevel.obj
 0002:000084d8       ??_C@_1M@PNMLOJDF@?$AAe?$AAt?$AA?9?$AAe?$AAe@ 000000018002b4d8     libucrt:lcidtoname_downlevel.obj
 0002:000084e8       ??_C@_1M@GHHLIKEI@?$AAe?$AAu?$AA?9?$AAe?$AAs@ 000000018002b4e8     libucrt:lcidtoname_downlevel.obj
 0002:000084f8       ??_C@_1M@PBNONODE@?$AAf?$AAa?$AA?9?$AAi?$AAr@ 000000018002b4f8     libucrt:lcidtoname_downlevel.obj
 0002:00008508       ??_C@_1M@JEEHPMIL@?$AAf?$AAi?$AA?9?$AAf?$AAi@ 000000018002b508     libucrt:lcidtoname_downlevel.obj
 0002:00008518       ??_C@_1M@LMDCNDBA@?$AAf?$AAo?$AA?9?$AAf?$AAo@ 000000018002b518     libucrt:lcidtoname_downlevel.obj
 0002:00008528       ??_C@_1M@JKEOHLDK@?$AAf?$AAr?$AA?9?$AAb?$AAe@ 000000018002b528     libucrt:lcidtoname_downlevel.obj
 0002:00008538       ??_C@_1M@NOHADPMI@?$AAf?$AAr?$AA?9?$AAc?$AAa@ 000000018002b538     libucrt:lcidtoname_downlevel.obj
 0002:00008548       ??_C@_1M@KDHIHAEC@?$AAf?$AAr?$AA?9?$AAc?$AAh@ 000000018002b548     libucrt:lcidtoname_downlevel.obj
 0002:00008558       ??_C@_1M@MMBBFGAK@?$AAf?$AAr?$AA?9?$AAf?$AAr@ 000000018002b558     libucrt:lcidtoname_downlevel.obj
 0002:00008568       ??_C@_1M@PAFNENNF@?$AAf?$AAr?$AA?9?$AAl?$AAu@ 000000018002b568     libucrt:lcidtoname_downlevel.obj
 0002:00008578       ??_C@_1M@EOHDJGDD@?$AAf?$AAr?$AA?9?$AAm?$AAc@ 000000018002b578     libucrt:lcidtoname_downlevel.obj
 0002:00008588       ??_C@_1M@FAPLLOPF@?$AAg?$AAl?$AA?9?$AAe?$AAs@ 000000018002b588     libucrt:lcidtoname_downlevel.obj
 0002:00008598       ??_C@_1M@FOPBFLOO@?$AAg?$AAu?$AA?9?$AAi?$AAn@ 000000018002b598     libucrt:lcidtoname_downlevel.obj
 0002:000085a8       ??_C@_1M@KBMCINPM@?$AAh?$AAe?$AA?9?$AAi?$AAl@ 000000018002b5a8     libucrt:lcidtoname_downlevel.obj
 0002:000085b8       ??_C@_1M@BBPHKFPJ@?$AAh?$AAi?$AA?9?$AAi?$AAn@ 000000018002b5b8     libucrt:lcidtoname_downlevel.obj
 0002:000085c8       ??_C@_1M@PMBNDPHD@?$AAh?$AAr?$AA?9?$AAb?$AAa@ 000000018002b5c8     libucrt:lcidtoname_downlevel.obj
 0002:000085d8       ??_C@_1M@BPCKOEGE@?$AAh?$AAr?$AA?9?$AAh?$AAr@ 000000018002b5d8     libucrt:lcidtoname_downlevel.obj
 0002:000085e8       ??_C@_1M@GACBMHKE@?$AAh?$AAu?$AA?9?$AAh?$AAu@ 000000018002b5e8     libucrt:lcidtoname_downlevel.obj
 0002:000085f8       ??_C@_1M@MILPAJJC@?$AAh?$AAy?$AA?9?$AAa?$AAm@ 000000018002b5f8     libucrt:lcidtoname_downlevel.obj
 0002:00008608       ??_C@_1M@BABBICEC@?$AAi?$AAd?$AA?9?$AAi?$AAd@ 000000018002b608     libucrt:lcidtoname_downlevel.obj
 0002:00008618       ??_C@_1M@BIKNHHPF@?$AAi?$AAs?$AA?9?$AAi?$AAs@ 000000018002b618     libucrt:lcidtoname_downlevel.obj
 0002:00008628       ??_C@_1M@NMPCJPHE@?$AAi?$AAt?$AA?9?$AAc?$AAh@ 000000018002b628     libucrt:lcidtoname_downlevel.obj
 0002:00008638       ??_C@_1M@GHKGFEDF@?$AAi?$AAt?$AA?9?$AAi?$AAt@ 000000018002b638     libucrt:lcidtoname_downlevel.obj
 0002:00008648       ??_C@_1M@NIEJCJJA@?$AAj?$AAa?$AA?9?$AAj?$AAp@ 000000018002b648     libucrt:lcidtoname_downlevel.obj
 0002:00008658       ??_C@_1M@JILFNBIM@?$AAk?$AAa?$AA?9?$AAg?$AAe@ 000000018002b658     libucrt:lcidtoname_downlevel.obj
 0002:00008668       ??_C@_1M@PACPMGPH@?$AAk?$AAk?$AA?9?$AAk?$AAz@ 000000018002b668     libucrt:lcidtoname_downlevel.obj
 0002:00008678       ??_C@_1M@IELFGMHA@?$AAk?$AAn?$AA?9?$AAi?$AAn@ 000000018002b678     libucrt:lcidtoname_downlevel.obj
 0002:00008688       ??_C@_1O@IBBJHCH@?$AAk?$AAo?$AAk?$AA?9?$AAi?$AAn@ 000000018002b688     libucrt:lcidtoname_downlevel.obj
 0002:00008698       ??_C@_1M@DMHAEOGC@?$AAk?$AAo?$AA?9?$AAk?$AAr@ 000000018002b698     libucrt:lcidtoname_downlevel.obj
 0002:000086a8       ??_C@_1M@HBAHBIGA@?$AAk?$AAy?$AA?9?$AAk?$AAg@ 000000018002b6a8     libucrt:lcidtoname_downlevel.obj
 0002:000086b8       ??_C@_1M@KPMILCJG@?$AAl?$AAt?$AA?9?$AAl?$AAt@ 000000018002b6b8     libucrt:lcidtoname_downlevel.obj
 0002:000086c8       ??_C@_1M@BDEKKCA@?$AAl?$AAv?$AA?9?$AAl?$AAv@ 000000018002b6c8     libucrt:lcidtoname_downlevel.obj
 0002:000086d8       ??_C@_1M@ELCKCCJJ@?$AAm?$AAi?$AA?9?$AAn?$AAz@ 000000018002b6d8     libucrt:lcidtoname_downlevel.obj
 0002:000086e8       ??_C@_1M@CBOOLAPA@?$AAm?$AAk?$AA?9?$AAm?$AAk@ 000000018002b6e8     libucrt:lcidtoname_downlevel.obj
 0002:000086f8       ??_C@_1M@GPHNBJKN@?$AAm?$AAl?$AA?9?$AAi?$AAn@ 000000018002b6f8     libucrt:lcidtoname_downlevel.obj
 0002:00008708       ??_C@_1M@PABJILIG@?$AAm?$AAn?$AA?9?$AAm?$AAn@ 000000018002b708     libucrt:lcidtoname_downlevel.obj
 0002:00008718       ??_C@_1M@FGBKKIPG@?$AAm?$AAr?$AA?9?$AAi?$AAn@ 000000018002b718     libucrt:lcidtoname_downlevel.obj
 0002:00008728       ??_C@_1M@NDBPDDAL@?$AAm?$AAs?$AA?9?$AAb?$AAn@ 000000018002b728     libucrt:lcidtoname_downlevel.obj
 0002:00008738       ??_C@_1M@OPIHOOPI@?$AAm?$AAs?$AA?9?$AAm?$AAy@ 000000018002b738     libucrt:lcidtoname_downlevel.obj
 0002:00008748       ??_C@_1M@PPDBCNFM@?$AAm?$AAt?$AA?9?$AAm?$AAt@ 000000018002b748     libucrt:lcidtoname_downlevel.obj
 0002:00008758       ??_C@_1M@KDJDKMDD@?$AAn?$AAb?$AA?9?$AAn?$AAo@ 000000018002b758     libucrt:lcidtoname_downlevel.obj
 0002:00008768       ??_C@_1M@KFCFLMJP@?$AAn?$AAl?$AA?9?$AAb?$AAe@ 000000018002b768     libucrt:lcidtoname_downlevel.obj
 0002:00008778       ??_C@_1M@KPOPDDGO@?$AAn?$AAl?$AA?9?$AAn?$AAl@ 000000018002b778     libucrt:lcidtoname_downlevel.obj
 0002:00008788       ??_C@_1M@LJKPEMLN@?$AAn?$AAn?$AA?9?$AAn?$AAo@ 000000018002b788     libucrt:lcidtoname_downlevel.obj
 0002:00008798       ??_C@_1M@BDGHHBFL@?$AAn?$AAs?$AA?9?$AAz?$AAa@ 000000018002b798     libucrt:lcidtoname_downlevel.obj
 0002:000087a8       ??_C@_1M@IDEHOAP@?$AAp?$AAa?$AA?9?$AAi?$AAn@ 000000018002b7a8     libucrt:lcidtoname_downlevel.obj
 0002:000087b8       ??_C@_1M@HDBKGOGH@?$AAp?$AAl?$AA?9?$AAp?$AAl@ 000000018002b7b8     libucrt:lcidtoname_downlevel.obj
 0002:000087c8       ??_C@_1M@LJLLCMEH@?$AAp?$AAt?$AA?9?$AAb?$AAr@ 000000018002b7c8     libucrt:lcidtoname_downlevel.obj
 0002:000087d8       ??_C@_1M@NCMONAAL@?$AAp?$AAt?$AA?9?$AAp?$AAt@ 000000018002b7d8     libucrt:lcidtoname_downlevel.obj
 0002:000087e8       ??_C@_1O@EAKMAJDN@?$AAq?$AAu?$AAz?$AA?9?$AAb?$AAo@ 000000018002b7e8     libucrt:lcidtoname_downlevel.obj
 0002:000087f8       ??_C@_1O@BHHPIGDN@?$AAq?$AAu?$AAz?$AA?9?$AAe?$AAc@ 000000018002b7f8     libucrt:lcidtoname_downlevel.obj
 0002:00008808       ??_C@_1O@GBAPEKMJ@?$AAq?$AAu?$AAz?$AA?9?$AAp?$AAe@ 000000018002b808     libucrt:lcidtoname_downlevel.obj
 0002:00008818       ??_C@_1M@CLGLEFBO@?$AAr?$AAo?$AA?9?$AAr?$AAo@ 000000018002b818     libucrt:lcidtoname_downlevel.obj
 0002:00008828       ??_C@_1M@CEEDODME@?$AAr?$AAu?$AA?9?$AAr?$AAu@ 000000018002b828     libucrt:lcidtoname_downlevel.obj
 0002:00008838       ??_C@_1M@HPKKKMPP@?$AAs?$AAa?$AA?9?$AAi?$AAn@ 000000018002b838     libucrt:lcidtoname_downlevel.obj
 0002:00008848       ??_C@_1M@BKMAIGOJ@?$AAs?$AAe?$AA?9?$AAf?$AAi@ 000000018002b848     libucrt:lcidtoname_downlevel.obj
 0002:00008858       ??_C@_1M@NDPIFLFI@?$AAs?$AAe?$AA?9?$AAn?$AAo@ 000000018002b858     libucrt:lcidtoname_downlevel.obj
 0002:00008868       ??_C@_1M@DANKKHJ@?$AAs?$AAe?$AA?9?$AAs?$AAe@ 000000018002b868     libucrt:lcidtoname_downlevel.obj
 0002:00008878       ??_C@_1M@PNBLONPJ@?$AAs?$AAk?$AA?9?$AAs?$AAk@ 000000018002b878     libucrt:lcidtoname_downlevel.obj
 0002:00008888       ??_C@_1M@LFMODOAL@?$AAs?$AAl?$AA?9?$AAs?$AAi@ 000000018002b888     libucrt:lcidtoname_downlevel.obj
 0002:00008898       ??_C@_1O@DFKOMPG@?$AAs?$AAm?$AAa?$AA?9?$AAn?$AAo@ 000000018002b898     libucrt:lcidtoname_downlevel.obj
 0002:000088a8       ??_C@_1O@NDKPBNNH@?$AAs?$AAm?$AAa?$AA?9?$AAs?$AAe@ 000000018002b8a8     libucrt:lcidtoname_downlevel.obj
 0002:000088b8       ??_C@_1O@PLLKBHAB@?$AAs?$AAm?$AAj?$AA?9?$AAn?$AAo@ 000000018002b8b8     libucrt:lcidtoname_downlevel.obj
 0002:000088c8       ??_C@_1O@CLEPOGCA@?$AAs?$AAm?$AAj?$AA?9?$AAs?$AAe@ 000000018002b8c8     libucrt:lcidtoname_downlevel.obj
 0002:000088d8       ??_C@_1O@DLGJGKMK@?$AAs?$AAm?$AAn?$AA?9?$AAf?$AAi@ 000000018002b8d8     libucrt:lcidtoname_downlevel.obj
 0002:000088e8       ??_C@_1O@OJDJGAJC@?$AAs?$AAm?$AAs?$AA?9?$AAf?$AAi@ 000000018002b8e8     libucrt:lcidtoname_downlevel.obj
 0002:000088f8       ??_C@_1M@BOFOGHPB@?$AAs?$AAq?$AA?9?$AAa?$AAl@ 000000018002b8f8     libucrt:lcidtoname_downlevel.obj
 0002:00008908       ??_C@_1BG@LJBBIPGB@?$AAs?$AAr?$AA?9?$AAb?$AAa?$AA?9?$AAc?$AAy?$AAr?$AAl@ 000000018002b908     libucrt:lcidtoname_downlevel.obj
 0002:00008920       ??_C@_1BG@JLBENFOE@?$AAs?$AAr?$AA?9?$AAb?$AAa?$AA?9?$AAl?$AAa?$AAt?$AAn@ 000000018002b920     libucrt:lcidtoname_downlevel.obj
 0002:00008938       ??_C@_1BG@KODPNHE@?$AAs?$AAr?$AA?9?$AAs?$AAp?$AA?9?$AAc?$AAy?$AAr?$AAl@ 000000018002b938     libucrt:lcidtoname_downlevel.obj
 0002:00008950       ??_C@_1BG@CIOGKHPB@?$AAs?$AAr?$AA?9?$AAs?$AAp?$AA?9?$AAl?$AAa?$AAt?$AAn@ 000000018002b950     libucrt:lcidtoname_downlevel.obj
 0002:00008968       ??_C@_1M@NGFJLMAC@?$AAs?$AAv?$AA?9?$AAf?$AAi@ 000000018002b968     libucrt:lcidtoname_downlevel.obj
 0002:00008978       ??_C@_1M@MPJEJAJC@?$AAs?$AAv?$AA?9?$AAs?$AAe@ 000000018002b978     libucrt:lcidtoname_downlevel.obj
 0002:00008988       ??_C@_1M@MPNDHLFK@?$AAs?$AAw?$AA?9?$AAk?$AAe@ 000000018002b988     libucrt:lcidtoname_downlevel.obj
 0002:00008998       ??_C@_1O@KOHBJJI@?$AAs?$AAy?$AAr?$AA?9?$AAs?$AAy@ 000000018002b998     libucrt:lcidtoname_downlevel.obj
 0002:000089a8       ??_C@_1M@LDCEFHA@?$AAt?$AAa?$AA?9?$AAi?$AAn@ 000000018002b9a8     libucrt:lcidtoname_downlevel.obj
 0002:000089b8       ??_C@_1M@CNJOFAK@?$AAt?$AAe?$AA?9?$AAi?$AAn@ 000000018002b9b8     libucrt:lcidtoname_downlevel.obj
 0002:000089c8       ??_C@_1M@GNAECACD@?$AAt?$AAh?$AA?9?$AAt?$AAh@ 000000018002b9c8     libucrt:lcidtoname_downlevel.obj
 0002:000089d8       ??_C@_1M@CHBIHOJO@?$AAt?$AAn?$AA?9?$AAz?$AAa@ 000000018002b9d8     libucrt:lcidtoname_downlevel.obj
 0002:000089e8       ??_C@_1M@GCCMIGPJ@?$AAt?$AAr?$AA?9?$AAt?$AAr@ 000000018002b9e8     libucrt:lcidtoname_downlevel.obj
 0002:000089f8       ??_C@_1M@CELMCNBK@?$AAt?$AAt?$AA?9?$AAr?$AAu@ 000000018002b9f8     libucrt:lcidtoname_downlevel.obj
 0002:00008a08       ??_C@_1M@KLMCELGA@?$AAu?$AAk?$AA?9?$AAu?$AAa@ 000000018002ba08     libucrt:lcidtoname_downlevel.obj
 0002:00008a18       ??_C@_1M@EPAJJAJF@?$AAu?$AAr?$AA?9?$AAp?$AAk@ 000000018002ba18     libucrt:lcidtoname_downlevel.obj
 0002:00008a28       ??_C@_1BG@GEGPMCDJ@?$AAu?$AAz?$AA?9?$AAu?$AAz?$AA?9?$AAc?$AAy?$AAr?$AAl@ 000000018002ba28     libucrt:lcidtoname_downlevel.obj
 0002:00008a40       ??_C@_1BG@EGGKJILM@?$AAu?$AAz?$AA?9?$AAu?$AAz?$AA?9?$AAl?$AAa?$AAt?$AAn@ 000000018002ba40     libucrt:lcidtoname_downlevel.obj
 0002:00008a58       ??_C@_1M@GFOCLFF@?$AAv?$AAi?$AA?9?$AAv?$AAn@ 000000018002ba58     libucrt:lcidtoname_downlevel.obj
 0002:00008a68       ??_C@_1M@CPAMEDFI@?$AAx?$AAh?$AA?9?$AAz?$AAa@ 000000018002ba68     libucrt:lcidtoname_downlevel.obj
 0002:00008a78       ??_C@_1O@EBKIFIGN@?$AAz?$AAh?$AA?9?$AAc?$AAh?$AAs@ 000000018002ba78     libucrt:lcidtoname_downlevel.obj
 0002:00008a88       ??_C@_1O@NMHPGANE@?$AAz?$AAh?$AA?9?$AAc?$AAh?$AAt@ 000000018002ba88     libucrt:lcidtoname_downlevel.obj
 0002:00008a98       ??_C@_1M@LPINJOMC@?$AAz?$AAh?$AA?9?$AAc?$AAn@ 000000018002ba98     libucrt:lcidtoname_downlevel.obj
 0002:00008aa8       ??_C@_1M@OCJEJODD@?$AAz?$AAh?$AA?9?$AAh?$AAk@ 000000018002baa8     libucrt:lcidtoname_downlevel.obj
 0002:00008ab8       ??_C@_1M@DNDLJINH@?$AAz?$AAh?$AA?9?$AAm?$AAo@ 000000018002bab8     libucrt:lcidtoname_downlevel.obj
 0002:00008ac8       ??_C@_1M@MBFDNDND@?$AAz?$AAh?$AA?9?$AAs?$AAg@ 000000018002bac8     libucrt:lcidtoname_downlevel.obj
 0002:00008ad8       ??_C@_1M@IMEPLEPE@?$AAz?$AAh?$AA?9?$AAt?$AAw@ 000000018002bad8     libucrt:lcidtoname_downlevel.obj
 0002:00008ae8       ??_C@_1M@BBGHNHJP@?$AAz?$AAu?$AA?9?$AAz?$AAa@ 000000018002bae8     libucrt:lcidtoname_downlevel.obj
 0002:00008b00       ?large_power_data@?1??multiply_by_power_of_ten@__crt_strtox@@YA_NAEAUbig_integer@2@I@Z@4QBIB 000000018002bb00     libucrt:cfout.obj
 0002:00009410       ?large_power_indices@?1??multiply_by_power_of_ten@__crt_strtox@@YA_NAEAUbig_integer@2@I@Z@4QBUunpack_index@?1??12@YA_N0I@Z@B 000000018002c410     libucrt:cfout.obj
 0002:000094a8       ?small_powers_of_ten@?1??multiply_by_power_of_ten@__crt_strtox@@YA_NAEAUbig_integer@2@I@Z@4QBIB 000000018002c4a8     libucrt:cfout.obj
 0002:000094cc       ??_C@_01GBGANLPD@0@        000000018002c4cc     libucrt:cfout.obj
 0002:000094d0       ??_C@_05DNEBIAHO@1?$CDINF@ 000000018002c4d0     libucrt:cfout.obj
 0002:000094d8       ??_C@_06IMKFLFPG@1?$CDQNAN@ 000000018002c4d8     libucrt:cfout.obj
 0002:000094e0       ??_C@_06PGGFOGJG@1?$CDSNAN@ 000000018002c4e0     libucrt:cfout.obj
 0002:000094e8       ??_C@_05PHHOCPM@1?$CDIND@  000000018002c4e8     libucrt:cfout.obj
 0002:000094f0       __real@3ff0000000000000    000000018002c4f0     libucrt:ceil.obj
 0002:00009750       __log10_256_lead           000000018002c750     libucrt:log10_256_lead_tail_table.obj
 0002:00009f60       __log10_256_tail           000000018002cf60     libucrt:log10_256_lead_tail_table.obj
 0002:0000a770       __log_F_inv_qword          000000018002d770     libucrt:log_f_inv_qword_table.obj
 0002:0000af80       ??_C@_05HGHHAHAP@log10@    000000018002df80     libucrt:log_special.obj
 0002:0000af88       ??_C@_1BA@BALFACEM@?$AAC?$AAO?$AAN?$AAO?$AAU?$AAT?$AA$@ 000000018002df88     libucrt:initcon.obj
 0002:0000b010       _load_config_used          000000018002e010     LIBCMT:loadcfg.obj
 0002:0000b180       _tls_used                  000000018002e180     LIBCMT:tlssup.obj
 0002:0000b1a8       ??_R4exception@std@@6B@    000000018002e1a8     LIBCMT:throw_bad_alloc.obj
 0002:0000b1d0       ??_R3exception@std@@8      000000018002e1d0     LIBCMT:throw_bad_alloc.obj
 0002:0000b1e8       ??_R2exception@std@@8      000000018002e1e8     LIBCMT:throw_bad_alloc.obj
 0002:0000b1f8       ??_R1A@?0A@EA@exception@std@@8 000000018002e1f8     LIBCMT:throw_bad_alloc.obj
 0002:0000b220       ??_R4bad_alloc@std@@6B@    000000018002e220     LIBCMT:throw_bad_alloc.obj
 0002:0000b248       ??_R3bad_alloc@std@@8      000000018002e248     LIBCMT:throw_bad_alloc.obj
 0002:0000b260       ??_R2bad_alloc@std@@8      000000018002e260     LIBCMT:throw_bad_alloc.obj
 0002:0000b278       ??_R1A@?0A@EA@bad_alloc@std@@8 000000018002e278     LIBCMT:throw_bad_alloc.obj
 0002:0000b2a0       ??_R4bad_array_new_length@std@@6B@ 000000018002e2a0     LIBCMT:throw_bad_alloc.obj
 0002:0000b2c8       ??_R3bad_array_new_length@std@@8 000000018002e2c8     LIBCMT:throw_bad_alloc.obj
 0002:0000b2e0       ??_R2bad_array_new_length@std@@8 000000018002e2e0     LIBCMT:throw_bad_alloc.obj
 0002:0000b300       ??_R1A@?0A@EA@bad_array_new_length@std@@8 000000018002e300     LIBCMT:throw_bad_alloc.obj
 0002:0000b328       ??_R4type_info@@6B@        000000018002e328     LIBCMT:std_type_info_static.obj
 0002:0000b350       ??_R3type_info@@8          000000018002e350     LIBCMT:std_type_info_static.obj
 0002:0000b368       ??_R2type_info@@8          000000018002e368     LIBCMT:std_type_info_static.obj
 0002:0000b378       ??_R1A@?0A@EA@type_info@@8 000000018002e378     LIBCMT:std_type_info_static.obj
 0002:0000b3a0       ??_R4bad_exception@std@@6B@ 000000018002e3a0     libvcruntime:frame.obj
 0002:0000b3c8       ??_R3bad_exception@std@@8  000000018002e3c8     libvcruntime:frame.obj
 0002:0000b3e0       ??_R2bad_exception@std@@8  000000018002e3e0     libvcruntime:frame.obj
 0002:0000b3f8       ??_R1A@?0A@EA@bad_exception@std@@8 000000018002e3f8     libvcruntime:frame.obj
 0002:0000b820       __rtc_iaa                  000000018002e820     LIBCMT:initsect.obj
 0002:0000b828       __rtc_izz                  000000018002e828     LIBCMT:initsect.obj
 0002:0000b830       __rtc_taa                  000000018002e830     LIBCMT:initsect.obj
 0002:0000b838       __rtc_tzz                  000000018002e838     LIBCMT:initsect.obj
 0002:0000b840       _tls_start                 000000018002e840     LIBCMT:tlssup.obj
 0002:0000b844       _Init_thread_epoch         000000018002e844     LIBCMT:thread_safe_statics.obj
 0002:0000b848       _tls_end                   000000018002e848     LIBCMT:tlssup.obj
 0002:0000cf48       _TI2?AVbad_alloc@std@@     000000018002ff48     LIBCMT:throw_bad_alloc.obj
 0002:0000cf68       _CTA2?AVbad_alloc@std@@    000000018002ff68     LIBCMT:throw_bad_alloc.obj
 0002:0000cf80       _CT??_R0?AVbad_alloc@std@@@8??0bad_alloc@std@@QEAA@AEBV01@@Z24 000000018002ff80     LIBCMT:throw_bad_alloc.obj
 0002:0000cfa8       _CT??_R0?AVexception@std@@@8??0exception@std@@QEAA@AEBV01@@Z24 000000018002ffa8     LIBCMT:throw_bad_alloc.obj
 0002:0000cfd0       _TI3?AVbad_array_new_length@std@@ 000000018002ffd0     LIBCMT:throw_bad_alloc.obj
 0002:0000cff0       _CTA3?AVbad_array_new_length@std@@ 000000018002fff0     LIBCMT:throw_bad_alloc.obj
 0002:0000d010       _CT??_R0?AVbad_array_new_length@std@@@8??0bad_array_new_length@std@@QEAA@AEBV01@@Z24 0000000180030010     LIBCMT:throw_bad_alloc.obj
 0002:0000d038       _TI2?AVbad_exception@std@@ 0000000180030038     libvcruntime:frame.obj
 0002:0000d058       _CTA2?AVbad_exception@std@@ 0000000180030058     libvcruntime:frame.obj
 0002:0000d070       _CT??_R0?AVbad_exception@std@@@8??0bad_exception@std@@QEAA@AEBV01@@Z24 0000000180030070     libvcruntime:frame.obj
 0002:0000d098       __pobjMapEntryFirst        0000000180030098     OposVariant.obj
 0002:0000d0a0       __pobjMapEntryLast         00000001800300a0     OposVariant.obj
 0002:0000d158       __IMPORT_DESCRIPTOR_KERNEL32 0000000180030158     kernel32:KERNEL32.dll
 0002:0000d16c       __IMPORT_DESCRIPTOR_USER32 000000018003016c     user32:USER32.dll
 0002:0000d180       __IMPORT_DESCRIPTOR_GDI32  0000000180030180     gdi32:GDI32.dll
 0002:0000d194       __IMPORT_DESCRIPTOR_ADVAPI32 0000000180030194     advapi32:ADVAPI32.dll
 0002:0000d1a8       __IMPORT_DESCRIPTOR_ole32  00000001800301a8     ole32:ole32.dll
 0002:0000d1bc       __IMPORT_DESCRIPTOR_OLEAUT32 00000001800301bc     oleaut32:OLEAUT32.dll
 0002:0000d1d0       __NULL_IMPORT_DESCRIPTOR   00000001800301d0     kernel32:KERNEL32.dll
 0003:00000000       ?s_Claim@?7??GetIDsOfNames@CComTypeInfoHolder@ATL@@QEAAJAEBU_GUID@@PEAPEA_WIKPEAJ@Z@4PA_WA 0000000180032000     PINPad.obj
 0003:00000018       ?s_Release@?7??GetIDsOfNames@CComTypeInfoHolder@ATL@@QEAAJAEBU_GUID@@PEAPEA_WIKPEAJ@Z@4PA_WA 0000000180032018     PINPad.obj
 0003:00000038       ?_tih@?$IDispatchImpl@UIOPOSPINPad@@$1?IID_IOPOSPINPad@@3U_GUID@@B$1?LIBID_OposPINPad_CCO@@3U3@B$00$0A@VCComTypeInfoHolder@ATL@@@ATL@@1VCComTypeInfoHolder@2@A 0000000180032038     PINPad.obj
 0003:00000070       ?_tih@?$IProvideClassInfo2Impl@$1?CLSID_OPOSPINPad@@3U_GUID@@B$1?DIID__IOPOSPINPadEvents@@3U2@B$1?LIBID_OposPINPad_CCO@@3U2@B$00$0A@VCComTypeInfoHolder@ATL@@@ATL@@1VCComTypeInfoHolder@2@A 0000000180032070     PINPad.obj
 0003:000000a8       ?vszContents@?6??Save@?$IPersistStorageImpl@VCOPOSPINPad@@@ATL@@UEAAJPEAUIStorage@@H@Z@4PEB_WEB 00000001800320a8     PINPad.obj
 0003:000000b0       ?wc@?1??GetWndClassInfo@?$CWindowImpl@VCOPOSPINPad@@VCWindow@ATL@@V?$CWinTraits@$0FGAAAAAA@$0A@@3@@ATL@@SAAEAU_ATL_WNDCLASSINFOW@3@XZ@4U43@A 00000001800320b0     PINPad.obj
 0003:000001a8       ?rcDefault@CWindow@ATL@@2UtagRECT@@A 00000001800321a8     PINPad.obj
 0003:00000250       ?g_WindowName@@3PA_WA      0000000180032250     PINPadImpl.obj
 0003:0000026c       ?g_ControlVersion@@3JA     000000018003226c     PINPadImpl.obj
 0003:00000270       ?g_ControlDescription@@3PADA 0000000180032270     PINPadImpl.obj
 0003:000003b8       __scrt_native_dllmain_reason 00000001800323b8     LIBCMT:utility.obj
 0003:000003bc       _Init_global_epoch         00000001800323bc     LIBCMT:thread_safe_statics.obj
 0003:000003c0       __security_cookie_complement 00000001800323c0     LIBCMT:gs_cookie.obj
 0003:000003c8       __security_cookie          00000001800323c8     LIBCMT:gs_cookie.obj
 0003:000003d0       __isa_available            00000001800323d0     LIBCMT:cpu_disp.obj
 0003:000003d4       __isa_enabled              00000001800323d4     LIBCMT:cpu_disp.obj
 0003:000003d8       __memcpy_nt_iters          00000001800323d8     LIBCMT:cpu_disp.obj
 0003:000003e0       __memset_nt_iters          00000001800323e0     LIBCMT:cpu_disp.obj
 0003:00000408       __abort_behavior           0000000180032408     libucrt:abort.obj
 0003:00000420       _iob                       0000000180032420     libucrt:_file.obj
 0003:00000530       __acrt_initial_locale_data 0000000180032530     libucrt:nlsdata.obj
 0003:00000688       __acrt_initial_locale_pointers 0000000180032688     libucrt:nlsdata.obj
 0003:00000698       __acrt_wide_c_locale_string 0000000180032698     libucrt:nlsdata.obj
 0003:000006a0       __acrt_initial_multibyte_data 00000001800326a0     libucrt:mbctype.obj
 0003:00000be0       _pwctype                   0000000180032be0     libucrt:ctype.obj
 0003:00000be8       __globallocalestatus       0000000180032be8     libucrt:glstatus.obj
 0003:00000bf0       __acrt_lconv_c             0000000180032bf0     libucrt:localeconv.obj
 0003:00000c88       __acrt_lconv_static_decimal 0000000180032c88     libucrt:localeconv.obj
 0003:00000c8c       __acrt_lconv_static_W_decimal 0000000180032c8c     libucrt:localeconv.obj
 0003:00000c90       _lookuptrailbytes          0000000180032c90     libucrt:read.obj
 0003:00000db4       _fltused                   0000000180032db4     LIBCMT:fltused.obj
 0003:00000db8       ??_R0?AVbad_alloc@std@@@8  0000000180032db8     LIBCMT:throw_bad_alloc.obj
 0003:00000de0       ??_R0?AVexception@std@@@8  0000000180032de0     LIBCMT:throw_bad_alloc.obj
 0003:00000e08       ??_R0?AVbad_array_new_length@std@@@8 0000000180032e08     LIBCMT:throw_bad_alloc.obj
 0003:00000e38       ??_R0?AVtype_info@@@8      0000000180032e38     LIBCMT:std_type_info_static.obj
 0003:00000e58       ??_R0?AVbad_exception@std@@@8 0000000180032e58     libvcruntime:frame.obj
 0003:00000e80       ?_pPerfRegFunc@ATL@@3P6AJPEAUHINSTANCE__@@@ZEA 0000000180032e80     OposVariant.obj
 0003:00000e88       ?_pPerfUnRegFunc@ATL@@3P6AJXZEA 0000000180032e88     OposVariant.obj
 0003:00000e90       ?_AtlRegisterPerUser@ATL@@3_NA 0000000180032e90     OposVariant.obj
 0003:00000e98       ?_pAtlModule@ATL@@3PEAVCAtlModule@1@EA 0000000180032e98     OposVariant.obj
 0003:00000ea0       ?_pModule@ATL@@3PEAVCComModule@1@EA 0000000180032ea0     OposVariant.obj
 0003:00000ea8       ?m_bInitFailed@CAtlBaseModule@ATL@@2_NA 0000000180032ea8     OposVariant.obj
 0003:00000eb0       ?_AtlComModule@ATL@@3VCAtlComModule@1@A 0000000180032eb0     OposVariant.obj
 0003:00000f00       ?_AtlWinModule@ATL@@3VCAtlWinModule@1@A 0000000180032f00     OposVariant.obj
 0003:00000f48       ?m_libid@CAtlModule@ATL@@2U_GUID@@A 0000000180032f48     PINPad.obj
 0003:00000f58       ?_entries@?1??GetConnMap@COPOSPINPad@@SAPEBU_ATL_CONNMAP_ENTRY@ATL@@PEAH@Z@4QBU34@B 0000000180032f58     PINPad.obj
 0003:00000f70       ?$TSS0@?1??GetConnMap@COPOSPINPad@@SAPEBU_ATL_CONNMAP_ENTRY@ATL@@PEAH@Z@4HA 0000000180032f70     PINPad.obj
 0003:00000f78       ?_OptionsStorage@?1??__local_stdio_printf_options@@9@4_KA 0000000180032f78     PINPad.obj
 0003:00000f80       ?pfnRegDeleteKeyEx@?1??DeleteSubKey@CRegKey@ATL@@QEAAJPEB_W@Z@4P6AJPEAUHKEY__@@0KK@ZEA 0000000180032f80     PINPad.obj
 0003:00000f88       ?bInitialized@?1??DeleteSubKey@CRegKey@ATL@@QEAAJPEB_W@Z@4_NA 0000000180032f88     PINPad.obj
 0003:00000f90       ?_Module@@3VCComModule@ATL@@A 0000000180032f90     PINPad.obj
 0003:00000fe0       ?pConnMap@?$IConnectionPointContainerImpl@VCOPOSPINPad@@@ATL@@0PEBU_ATL_CONNMAP_ENTRY@2@EB 0000000180032fe0     PINPad.obj
 0003:00000fe8       ?s_nInstances@COPOSPINPad@@1HA 0000000180032fe8     PINPadImpl.obj
 0003:00000ff0       __scrt_current_native_startup_state 0000000180032ff0     LIBCMT:utility.obj
 0003:00000ff8       __scrt_native_startup_lock 0000000180032ff8     LIBCMT:utility.obj
 0003:000015f0       _tls_index                 00000001800335f0     LIBCMT:tlssup.obj
 0003:000015f8       __favor                    00000001800335f8     LIBCMT:cpu_disp.obj
 0003:000015fc       __scrt_debugger_hook_flag  00000001800335fc     LIBCMT:utility_desktop.obj
 0003:00001600       __castguard_check_failure_os_handled_fptr 0000000180033600     LIBCMT:guard_support.obj
 0003:00001610       ?__type_info_root_node@@3U__type_info_node@@A 0000000180033610     LIBCMT:tncleanup.obj
 0003:00001620       ?_OptionsStorage@?1??__local_stdio_scanf_options@@9@4_KA 0000000180033620     LIBCMT:default_local_stdio_options.obj
 0003:00001630       ?_AtlBaseModule@ATL@@3VCAtlBaseModule@1@A 0000000180033630     atls:atlbase.obj
 0003:00001690       ?__AtlThunkPool@@3PEAT_SLIST_HEADER@@EA 0000000180033690     atls:atlthunk.obj
 0003:000016bc       __@@_PchSym_@00@UztvmgUPdlipUGDUhUrmgvinvwrzgvUexgllohUzgohOmzgrevkilqPBACIAJCBDBUlyqiUznwGEUhgwzucOlyq@4B2008FD98C1DD4 00000001800336bc     atls:stdafx.obj
 0003:000016c0       ?__WinRTOutOfMemoryExceptionCallback@@3P6APEAXXZEA 00000001800336c0     libvcruntime:ehhelpers.obj
 0003:000016c8       __pPurecall                00000001800336c8     libvcruntime:purevirt_data.obj
 0003:00001780       ?pArgList@UnDecorator@@0PEAVReplicator@@EA 0000000180033780     libvcruntime:undname.obj
 0003:00001788       ?pZNameList@UnDecorator@@0PEAVReplicator@@EA 0000000180033788     libvcruntime:undname.obj
 0003:00001790       ?pTemplateArgList@UnDecorator@@0PEAVReplicator@@EA 0000000180033790     libvcruntime:undname.obj
 0003:00001798       ?gName@UnDecorator@@0PEBDEB 0000000180033798     libvcruntime:undname.obj
 0003:000017a0       ?name@UnDecorator@@0PEBDEB 00000001800337a0     libvcruntime:undname.obj
 0003:000017a8       ?disableFlags@UnDecorator@@0KA 00000001800337a8     libvcruntime:undname.obj
 0003:000017ac       ?fExplicitTemplateParams@UnDecorator@@0_NA 00000001800337ac     libvcruntime:undname.obj
 0003:000017ad       ?fGetTemplateArgumentList@UnDecorator@@0_NA 00000001800337ad     libvcruntime:undname.obj
 0003:000017b0       ?m_pGetParameter@UnDecorator@@0P6APEADJ@ZEA 00000001800337b0     libvcruntime:undname.obj
 0003:000017b8       ?m_CHPENameOffset@UnDecorator@@0KA 00000001800337b8     libvcruntime:undname.obj
 0003:000017bc       ?m_recursionLevel@UnDecorator@@0KA 00000001800337bc     libvcruntime:undname.obj
 0003:00001840       ?c_exit_complete@?1???R<lambda_6e4b09c48022b2350581041d5f6b0c4c>@@QEBA@XZ@4_NA 0000000180033840     libucrt:exit.obj
 0003:00001958       _environ_table             0000000180033958     libucrt:environment_initialization.obj
 0003:00001960       _wenviron_table            0000000180033960     libucrt:environment_initialization.obj
 0003:00001968       __dcrt_initial_wide_environment 0000000180033968     libucrt:environment_initialization.obj
 0003:00001970       __dcrt_initial_narrow_environment 0000000180033970     libucrt:environment_initialization.obj
 0003:00001978       __acrt_atexit_table        0000000180033978     libucrt:onexit.obj
 0003:00001990       __acrt_at_quick_exit_table 0000000180033990     libucrt:onexit.obj
 0003:00001b68       _nstream                   0000000180033b68     libucrt:_file.obj
 0003:00001b70       __piob                     0000000180033b70     libucrt:_file.obj
 0003:00001b80       __acrt_stdout_buffer       0000000180033b80     libucrt:_sftbuf.obj
 0003:00001b88       __acrt_stderr_buffer       0000000180033b88     libucrt:_sftbuf.obj
 0003:00001b90       __acrt_locale_changed_data 0000000180033b90     libucrt:wsetlocale.obj
 0003:00001b98       __acrt_current_locale_data 0000000180033b98     libucrt:nlsdata.obj
 0003:00001ba0       __pioinfo                  0000000180033ba0     libucrt:ioinit.obj
 0003:00001fa0       _nhandle                   0000000180033fa0     libucrt:ioinit.obj
 0003:000021e8       _mbctype                   00000001800341e8     libucrt:mbctype.obj
 0003:000021f0       _mbcasemap                 00000001800341f0     libucrt:mbctype.obj
 0003:000021f8       __acrt_current_multibyte_data 00000001800341f8     libucrt:mbctype.obj
 0003:00002208       _pgmptr                    0000000180034208     libucrt:argv_data.obj
 0003:00002210       __argc                     0000000180034210     libucrt:argv_data.obj
 0003:00002218       __argv                     0000000180034218     libucrt:argv_data.obj
 0003:00002220       __wargv                    0000000180034220     libucrt:argv_data.obj
 0003:00002228       _acmdln                    0000000180034228     libucrt:argv_data.obj
 0003:00002230       _wcmdln                    0000000180034230     libucrt:argv_data.obj
 0003:00002238       __acrt_heap                0000000180034238     libucrt:heap_handle.obj
 0003:0000226c       __acrt_lconv_static_null   000000018003426c     libucrt:localeconv.obj
 0003:00002270       __acrt_lconv_static_W_null 0000000180034270     libucrt:localeconv.obj
 0003:00002284       __fma3_is_available        0000000180034284     libucrt:fma3_available.obj
 0003:00002288       __use_fma3_lib             0000000180034288     libucrt:fma3_available.obj
 0003:00002290       __dyn_tls_init_callback    0000000180034290     <common>
 0003:00002298       __scrt_ucrt_dll_is_in_use  0000000180034298     <common>

 entry point at        0001:0000f464

 Static symbols

 0000:fffc2000       .debug$S                   0000000180000000     OPOSPINPad.exp
 0000:fffc2000       .debug$S                   0000000180000000     advapi32:ADVAPI32.dll
 0000:fffc2000       .debug$S                   0000000180000000     advapi32:ADVAPI32.dll
 0000:fffc2000       .debug$S                   0000000180000000     advapi32:ADVAPI32.dll
 0000:fffc2000       .debug$S                   0000000180000000     advapi32:ADVAPI32.dll
 0000:fffc2000       .debug$S                   0000000180000000     advapi32:ADVAPI32.dll
 0000:fffc2000       .debug$S                   0000000180000000     advapi32:ADVAPI32.dll
 0000:fffc2000       .debug$S                   0000000180000000     advapi32:ADVAPI32.dll
 0000:fffc2000       .debug$S                   0000000180000000     advapi32:ADVAPI32.dll
 0000:fffc2000       .debug$S                   0000000180000000     advapi32:ADVAPI32.dll
 0000:fffc2000       .debug$S                   0000000180000000     gdi32:GDI32.dll
 0000:fffc2000       .debug$S                   0000000180000000     gdi32:GDI32.dll
 0000:fffc2000       .debug$S                   0000000180000000     gdi32:GDI32.dll
 0000:fffc2000       .debug$S                   0000000180000000     gdi32:GDI32.dll
 0000:fffc2000       .debug$S                   0000000180000000     gdi32:GDI32.dll
 0000:fffc2000       .debug$S                   0000000180000000     gdi32:GDI32.dll
 0000:fffc2000       .debug$S                   0000000180000000     gdi32:GDI32.dll
 0000:fffc2000       .debug$S                   0000000180000000     gdi32:GDI32.dll
 0000:fffc2000       .debug$S                   0000000180000000     gdi32:GDI32.dll
 0000:fffc2000       .debug$S                   0000000180000000     gdi32:GDI32.dll
 0000:fffc2000       .debug$S                   0000000180000000     gdi32:GDI32.dll
 0000:fffc2000       .debug$S                   0000000180000000     gdi32:GDI32.dll
 0000:fffc2000       .debug$S                   0000000180000000     gdi32:GDI32.dll
 0000:fffc2000       .debug$S                   0000000180000000     gdi32:GDI32.dll
 0000:fffc2000       .debug$S                   0000000180000000     gdi32:GDI32.dll
 0000:fffc2000       .debug$S                   0000000180000000     gdi32:GDI32.dll
 0000:fffc2000       .debug$S                   0000000180000000     gdi32:GDI32.dll
 0000:fffc2000       .debug$S                   0000000180000000     gdi32:GDI32.dll
 0000:fffc2000       .debug$S                   0000000180000000     gdi32:GDI32.dll
 0000:fffc2000       .debug$S                   0000000180000000     kernel32:KERNEL32.dll
 0000:fffc2000       .debug$S                   0000000180000000     kernel32:KERNEL32.dll
 0000:fffc2000       .debug$S                   0000000180000000     kernel32:KERNEL32.dll
 0000:fffc2000       .debug$S                   0000000180000000     kernel32:KERNEL32.dll
 0000:fffc2000       .debug$S                   0000000180000000     kernel32:KERNEL32.dll
 0000:fffc2000       .debug$S                   0000000180000000     kernel32:KERNEL32.dll
 0000:fffc2000       .debug$S                   0000000180000000     kernel32:KERNEL32.dll
 0000:fffc2000       .debug$S                   0000000180000000     kernel32:KERNEL32.dll
 0000:fffc2000       .debug$S                   0000000180000000     kernel32:KERNEL32.dll
 0000:fffc2000       .debug$S                   0000000180000000     kernel32:KERNEL32.dll
 0000:fffc2000       .debug$S                   0000000180000000     kernel32:KERNEL32.dll
 0000:fffc2000       .debug$S                   0000000180000000     kernel32:KERNEL32.dll
 0000:fffc2000       .debug$S                   0000000180000000     kernel32:KERNEL32.dll
 0000:fffc2000       .debug$S                   0000000180000000     kernel32:KERNEL32.dll
 0000:fffc2000       .debug$S                   0000000180000000     kernel32:KERNEL32.dll
 0000:fffc2000       .debug$S                   0000000180000000     kernel32:KERNEL32.dll
 0000:fffc2000       .debug$S                   0000000180000000     kernel32:KERNEL32.dll
 0000:fffc2000       .debug$S                   0000000180000000     kernel32:KERNEL32.dll
 0000:fffc2000       .debug$S                   0000000180000000     kernel32:KERNEL32.dll
 0000:fffc2000       .debug$S                   0000000180000000     kernel32:KERNEL32.dll
 0000:fffc2000       .debug$S                   0000000180000000     kernel32:KERNEL32.dll
 0000:fffc2000       .debug$S                   0000000180000000     kernel32:KERNEL32.dll
 0000:fffc2000       .debug$S                   0000000180000000     kernel32:KERNEL32.dll
 0000:fffc2000       .debug$S                   0000000180000000     kernel32:KERNEL32.dll
 0000:fffc2000       .debug$S                   0000000180000000     kernel32:KERNEL32.dll
 0000:fffc2000       .debug$S                   0000000180000000     kernel32:KERNEL32.dll
 0000:fffc2000       .debug$S                   0000000180000000     kernel32:KERNEL32.dll
 0000:fffc2000       .debug$S                   0000000180000000     kernel32:KERNEL32.dll
 0000:fffc2000       .debug$S                   0000000180000000     kernel32:KERNEL32.dll
 0000:fffc2000       .debug$S                   0000000180000000     kernel32:KERNEL32.dll
 0000:fffc2000       .debug$S                   0000000180000000     kernel32:KERNEL32.dll
 0000:fffc2000       .debug$S                   0000000180000000     kernel32:KERNEL32.dll
 0000:fffc2000       .debug$S                   0000000180000000     kernel32:KERNEL32.dll
 0000:fffc2000       .debug$S                   0000000180000000     kernel32:KERNEL32.dll
 0000:fffc2000       .debug$S                   0000000180000000     kernel32:KERNEL32.dll
 0000:fffc2000       .debug$S                   0000000180000000     kernel32:KERNEL32.dll
 0000:fffc2000       .debug$S                   0000000180000000     kernel32:KERNEL32.dll
 0000:fffc2000       .debug$S                   0000000180000000     kernel32:KERNEL32.dll
 0000:fffc2000       .debug$S                   0000000180000000     kernel32:KERNEL32.dll
 0000:fffc2000       .debug$S                   0000000180000000     kernel32:KERNEL32.dll
 0000:fffc2000       .debug$S                   0000000180000000     kernel32:KERNEL32.dll
 0000:fffc2000       .debug$S                   0000000180000000     kernel32:KERNEL32.dll
 0000:fffc2000       .debug$S                   0000000180000000     kernel32:KERNEL32.dll
 0000:fffc2000       .debug$S                   0000000180000000     kernel32:KERNEL32.dll
 0000:fffc2000       .debug$S                   0000000180000000     kernel32:KERNEL32.dll
 0000:fffc2000       .debug$S                   0000000180000000     kernel32:KERNEL32.dll
 0000:fffc2000       .debug$S                   0000000180000000     kernel32:KERNEL32.dll
 0000:fffc2000       .debug$S                   0000000180000000     kernel32:KERNEL32.dll
 0000:fffc2000       .debug$S                   0000000180000000     kernel32:KERNEL32.dll
 0000:fffc2000       .debug$S                   0000000180000000     kernel32:KERNEL32.dll
 0000:fffc2000       .debug$S                   0000000180000000     kernel32:KERNEL32.dll
 0000:fffc2000       .debug$S                   0000000180000000     kernel32:KERNEL32.dll
 0000:fffc2000       .debug$S                   0000000180000000     kernel32:KERNEL32.dll
 0000:fffc2000       .debug$S                   0000000180000000     kernel32:KERNEL32.dll
 0000:fffc2000       .debug$S                   0000000180000000     kernel32:KERNEL32.dll
 0000:fffc2000       .debug$S                   0000000180000000     kernel32:KERNEL32.dll
 0000:fffc2000       .debug$S                   0000000180000000     kernel32:KERNEL32.dll
 0000:fffc2000       .debug$S                   0000000180000000     kernel32:KERNEL32.dll
 0000:fffc2000       .debug$S                   0000000180000000     kernel32:KERNEL32.dll
 0000:fffc2000       .debug$S                   0000000180000000     kernel32:KERNEL32.dll
 0000:fffc2000       .debug$S                   0000000180000000     kernel32:KERNEL32.dll
 0000:fffc2000       .debug$S                   0000000180000000     kernel32:KERNEL32.dll
 0000:fffc2000       .debug$S                   0000000180000000     kernel32:KERNEL32.dll
 0000:fffc2000       .debug$S                   0000000180000000     kernel32:KERNEL32.dll
 0000:fffc2000       .debug$S                   0000000180000000     kernel32:KERNEL32.dll
 0000:fffc2000       .debug$S                   0000000180000000     kernel32:KERNEL32.dll
 0000:fffc2000       .debug$S                   0000000180000000     kernel32:KERNEL32.dll
 0000:fffc2000       .debug$S                   0000000180000000     kernel32:KERNEL32.dll
 0000:fffc2000       .debug$S                   0000000180000000     kernel32:KERNEL32.dll
 0000:fffc2000       .debug$S                   0000000180000000     kernel32:KERNEL32.dll
 0000:fffc2000       .debug$S                   0000000180000000     kernel32:KERNEL32.dll
 0000:fffc2000       .debug$S                   0000000180000000     kernel32:KERNEL32.dll
 0000:fffc2000       .debug$S                   0000000180000000     kernel32:KERNEL32.dll
 0000:fffc2000       .debug$S                   0000000180000000     kernel32:KERNEL32.dll
 0000:fffc2000       .debug$S                   0000000180000000     kernel32:KERNEL32.dll
 0000:fffc2000       .debug$S                   0000000180000000     kernel32:KERNEL32.dll
 0000:fffc2000       .debug$S                   0000000180000000     kernel32:KERNEL32.dll
 0000:fffc2000       .debug$S                   0000000180000000     kernel32:KERNEL32.dll
 0000:fffc2000       .debug$S                   0000000180000000     kernel32:KERNEL32.dll
 0000:fffc2000       .debug$S                   0000000180000000     kernel32:KERNEL32.dll
 0000:fffc2000       .debug$S                   0000000180000000     kernel32:KERNEL32.dll
 0000:fffc2000       .debug$S                   0000000180000000     kernel32:KERNEL32.dll
 0000:fffc2000       .debug$S                   0000000180000000     kernel32:KERNEL32.dll
 0000:fffc2000       .debug$S                   0000000180000000     kernel32:KERNEL32.dll
 0000:fffc2000       .debug$S                   0000000180000000     kernel32:KERNEL32.dll
 0000:fffc2000       .debug$S                   0000000180000000     kernel32:KERNEL32.dll
 0000:fffc2000       .debug$S                   0000000180000000     kernel32:KERNEL32.dll
 0000:fffc2000       .debug$S                   0000000180000000     kernel32:KERNEL32.dll
 0000:fffc2000       .debug$S                   0000000180000000     kernel32:KERNEL32.dll
 0000:fffc2000       .debug$S                   0000000180000000     kernel32:KERNEL32.dll
 0000:fffc2000       .debug$S                   0000000180000000     kernel32:KERNEL32.dll
 0000:fffc2000       .debug$S                   0000000180000000     kernel32:KERNEL32.dll
 0000:fffc2000       .debug$S                   0000000180000000     kernel32:KERNEL32.dll
 0000:fffc2000       .debug$S                   0000000180000000     kernel32:KERNEL32.dll
 0000:fffc2000       .debug$S                   0000000180000000     kernel32:KERNEL32.dll
 0000:fffc2000       .debug$S                   0000000180000000     kernel32:KERNEL32.dll
 0000:fffc2000       .debug$S                   0000000180000000     kernel32:KERNEL32.dll
 0000:fffc2000       .debug$S                   0000000180000000     kernel32:KERNEL32.dll
 0000:fffc2000       .debug$S                   0000000180000000     kernel32:KERNEL32.dll
 0000:fffc2000       .debug$S                   0000000180000000     kernel32:KERNEL32.dll
 0000:fffc2000       .debug$S                   0000000180000000     kernel32:KERNEL32.dll
 0000:fffc2000       .debug$S                   0000000180000000     kernel32:KERNEL32.dll
 0000:fffc2000       .debug$S                   0000000180000000     kernel32:KERNEL32.dll
 0000:fffc2000       .debug$S                   0000000180000000     kernel32:KERNEL32.dll
 0000:fffc2000       .debug$S                   0000000180000000     kernel32:KERNEL32.dll
 0000:fffc2000       .debug$S                   0000000180000000     kernel32:KERNEL32.dll
 0000:fffc2000       .debug$S                   0000000180000000     kernel32:KERNEL32.dll
 0000:fffc2000       .debug$S                   0000000180000000     kernel32:KERNEL32.dll
 0000:fffc2000       .debug$S                   0000000180000000     kernel32:KERNEL32.dll
 0000:fffc2000       .debug$S                   0000000180000000     kernel32:KERNEL32.dll
 0000:fffc2000       .debug$S                   0000000180000000     kernel32:KERNEL32.dll
 0000:fffc2000       .debug$S                   0000000180000000     ole32:ole32.dll
 0000:fffc2000       .debug$S                   0000000180000000     ole32:ole32.dll
 0000:fffc2000       .debug$S                   0000000180000000     ole32:ole32.dll
 0000:fffc2000       .debug$S                   0000000180000000     ole32:ole32.dll
 0000:fffc2000       .debug$S                   0000000180000000     ole32:ole32.dll
 0000:fffc2000       .debug$S                   0000000180000000     ole32:ole32.dll
 0000:fffc2000       .debug$S                   0000000180000000     ole32:ole32.dll
 0000:fffc2000       .debug$S                   0000000180000000     ole32:ole32.dll
 0000:fffc2000       .debug$S                   0000000180000000     ole32:ole32.dll
 0000:fffc2000       .debug$S                   0000000180000000     ole32:ole32.dll
 0000:fffc2000       .debug$S                   0000000180000000     ole32:ole32.dll
 0000:fffc2000       .debug$S                   0000000180000000     ole32:ole32.dll
 0000:fffc2000       .debug$S                   0000000180000000     ole32:ole32.dll
 0000:fffc2000       .debug$S                   0000000180000000     ole32:ole32.dll
 0000:fffc2000       .debug$S                   0000000180000000     oleaut32:OLEAUT32.dll
 0000:fffc2000       .debug$S                   0000000180000000     oleaut32:OLEAUT32.dll
 0000:fffc2000       .debug$S                   0000000180000000     oleaut32:OLEAUT32.dll
 0000:fffc2000       .debug$S                   0000000180000000     oleaut32:OLEAUT32.dll
 0000:fffc2000       .debug$S                   0000000180000000     oleaut32:OLEAUT32.dll
 0000:fffc2000       .debug$S                   0000000180000000     oleaut32:OLEAUT32.dll
 0000:fffc2000       .debug$S                   0000000180000000     oleaut32:OLEAUT32.dll
 0000:fffc2000       .debug$S                   0000000180000000     oleaut32:OLEAUT32.dll
 0000:fffc2000       .debug$S                   0000000180000000     oleaut32:OLEAUT32.dll
 0000:fffc2000       .debug$S                   0000000180000000     oleaut32:OLEAUT32.dll
 0000:fffc2000       .debug$S                   0000000180000000     oleaut32:OLEAUT32.dll
 0000:fffc2000       .debug$S                   0000000180000000     oleaut32:OLEAUT32.dll
 0000:fffc2000       .debug$S                   0000000180000000     oleaut32:OLEAUT32.dll
 0000:fffc2000       .debug$S                   0000000180000000     oleaut32:OLEAUT32.dll
 0000:fffc2000       .debug$S                   0000000180000000     oleaut32:OLEAUT32.dll
 0000:fffc2000       .debug$S                   0000000180000000     oleaut32:OLEAUT32.dll
 0000:fffc2000       .debug$S                   0000000180000000     user32:USER32.dll
 0000:fffc2000       .debug$S                   0000000180000000     user32:USER32.dll
 0000:fffc2000       .debug$S                   0000000180000000     user32:USER32.dll
 0000:fffc2000       .debug$S                   0000000180000000     user32:USER32.dll
 0000:fffc2000       .debug$S                   0000000180000000     user32:USER32.dll
 0000:fffc2000       .debug$S                   0000000180000000     user32:USER32.dll
 0000:fffc2000       .debug$S                   0000000180000000     user32:USER32.dll
 0000:fffc2000       .debug$S                   0000000180000000     user32:USER32.dll
 0000:fffc2000       .debug$S                   0000000180000000     user32:USER32.dll
 0000:fffc2000       .debug$S                   0000000180000000     user32:USER32.dll
 0000:fffc2000       .debug$S                   0000000180000000     user32:USER32.dll
 0000:fffc2000       .debug$S                   0000000180000000     user32:USER32.dll
 0000:fffc2000       .debug$S                   0000000180000000     user32:USER32.dll
 0000:fffc2000       .debug$S                   0000000180000000     user32:USER32.dll
 0000:fffc2000       .debug$S                   0000000180000000     user32:USER32.dll
 0000:fffc2000       .debug$S                   0000000180000000     user32:USER32.dll
 0000:fffc2000       .debug$S                   0000000180000000     user32:USER32.dll
 0000:fffc2000       .debug$S                   0000000180000000     user32:USER32.dll
 0000:fffc2000       .debug$S                   0000000180000000     user32:USER32.dll
 0000:fffc2000       .debug$S                   0000000180000000     user32:USER32.dll
 0000:fffc2000       .debug$S                   0000000180000000     user32:USER32.dll
 0000:fffc2000       .debug$S                   0000000180000000     user32:USER32.dll
 0000:fffc2000       .debug$S                   0000000180000000     user32:USER32.dll
 0000:fffc2000       .debug$S                   0000000180000000     user32:USER32.dll
 0000:fffc2000       .debug$S                   0000000180000000     user32:USER32.dll
 0000:fffc2000       .debug$S                   0000000180000000     user32:USER32.dll
 0000:fffc2000       .debug$S                   0000000180000000     user32:USER32.dll
 0000:fffc2000       .debug$S                   0000000180000000     user32:USER32.dll
 0000:fffc2000       .debug$S                   0000000180000000     user32:USER32.dll
 0000:fffc2000       .debug$S                   0000000180000000     user32:USER32.dll
 0000:fffc2000       .debug$S                   0000000180000000     user32:USER32.dll
 0000:fffc2000       .debug$S                   0000000180000000     user32:USER32.dll
 0000:fffc2000       .debug$S                   0000000180000000     user32:USER32.dll
 0000:fffc2000       .debug$S                   0000000180000000     user32:USER32.dll
 0000:fffc2000       .debug$S                   0000000180000000     user32:USER32.dll
 0001:00000000       ??__E_AtlComModule@ATL@@YAXXZ 0000000180001000 f   OposVariant.obj
 0001:00000020       ??__E_AtlWinModule@ATL@@YAXXZ 0000000180001020 f   OposVariant.obj
 0001:00000040       ??__E?pConnMap@?$IConnectionPointContainerImpl@VCOPOSPINPad@@@ATL@@0PEBU_ATL_CONNMAP_ENTRY@2@EB@@YAXXZ 0000000180001040 f   PINPad.obj
 0001:00000058       ??__E_Module@@YAXXZ        0000000180001058 f   PINPad.obj
 0001:00000094       ??__E_AtlBaseModule@ATL@@YAXXZ 0000000180001094 f   atls:atlbase.obj
 0001:0000ea7c       ?__scrt_initialize_thread_safe_statics@@YAHXZ 000000018000fa7c f   LIBCMT:thread_safe_statics.obj
 0001:0000eb4c       ?__scrt_uninitialize_thread_safe_statics@@YAXXZ 000000018000fb4c f   LIBCMT:thread_safe_statics.obj
 0001:0000ee9c       capture_current_context    000000018000fe9c f   LIBCMT:gs_report.obj
 0001:0000ef0c       capture_previous_context   000000018000ff0c f   LIBCMT:gs_report.obj
 0001:0000f0a0       $$000000                   00000001800100a0     LIBCMT:chkstk.obj
 0001:0000f110       $$000000                   0000000180010110     LIBCMT:amdsecgs.obj
 0001:0000f144       ?dllmain_crt_dispatch@@YAHQEAUHINSTANCE__@@KQEAX@Z 0000000180010144 f   LIBCMT:dll_dllmain.obj
 0001:0000f194       ?dllmain_crt_process_attach@@YAHQEAUHINSTANCE__@@QEAX@Z 0000000180010194 f   LIBCMT:dll_dllmain.obj
 0001:0000f2ac       ?dllmain_crt_process_detach@@YAH_N@Z 00000001800102ac f   LIBCMT:dll_dllmain.obj
 0001:0000f330       ?dllmain_dispatch@@YAHQEAUHINSTANCE__@@KQEAX@Z 0000000180010330 f   LIBCMT:dll_dllmain.obj
 0001:0000fbf8       ??$GetProcAddressAll@P6AP6A_JPEAUHWND__@@I_K_J@ZPEAUAtlThunkData_t@@@Z@@YAP6AP6A_JPEAUHWND__@@I_K_J@ZPEAUAtlThunkData_t@@@ZPEAP6AP6A_J0I12@Z3@Z@Z 0000000180010bf8 f   atls:atlthunk.obj
 0001:0000fbf8       ??$GetProcAddressAll@P6APEAUAtlThunkData_t@@XZ@@YAP6APEAUAtlThunkData_t@@XZPEAP6APEAU0@XZ@Z 0000000180010bf8 f   atls:atlthunk.obj
 0001:0000fbf8       ??$GetProcAddressAll@P6AXPEAUAtlThunkData_t@@@Z@@YAP6AXPEAUAtlThunkData_t@@@ZPEAP6AX0@Z@Z 0000000180010bf8 f   atls:atlthunk.obj
 0001:0000fbf8       ??$GetProcAddressAll@P6AXPEAUAtlThunkData_t@@PEAX_K@Z@@YAP6AXPEAUAtlThunkData_t@@PEAX_K@ZPEAP6AX012@Z@Z 0000000180010bf8 f   atls:atlthunk.obj
 0001:0000fdd0       ?__InitializeThunkPool@@YAHXZ 0000000180010dd0 f   atls:atlthunk.obj
 0001:00010270       $$000000                   0000000180011270     libvcruntime:memcmp.obj
 0001:00010350       $$000000                   0000000180011350     libvcruntime:memcpy.obj
 0001:00010760       $$000000                   0000000180011760     libvcruntime:memset.obj
 0001:00011870       $$000000                   0000000180012870     libvcruntime:notify.obj
 0001:000119dc       ??$BuildCatchObjectHelperInternal@V__FrameHandler4@@@@YAHPEAUEHExceptionRecord@@PEAXPEAUHandlerType4@FH4@@PEBU_s_CatchableType@@@Z 00000001800129dc f   libvcruntime:frame.obj
 0001:00011be0       ??$BuildCatchObjectInternal@V__FrameHandler4@@@@YAXPEAUEHExceptionRecord@@PEAXPEAUHandlerType4@FH4@@PEBU_s_CatchableType@@@Z 0000000180012be0 f   libvcruntime:frame.obj
 0001:00011ca4       ??$CatchIt@V__FrameHandler4@@@@YAXPEAUEHExceptionRecord@@PEA_KPEAU_CONTEXT@@PEAU_xDISPATCHER_CONTEXT@@PEAUFuncInfo4@FH4@@PEAUHandlerType4@4@PEBU_s_CatchableType@@PEAUTryBlockMapEntry4@4@H1EE@Z 0000000180012ca4 f   libvcruntime:frame.obj
 0001:00011d78       ??$FindHandler@V__FrameHandler4@@@@YAXPEAUEHExceptionRecord@@PEA_KPEAU_CONTEXT@@PEAU_xDISPATCHER_CONTEXT@@PEAUFuncInfo4@FH4@@EH1@Z 0000000180012d78 f   libvcruntime:frame.obj
 0001:00012288       ??$FindHandlerForForeignException@V__FrameHandler4@@@@YAXPEAUEHExceptionRecord@@PEA_KPEAU_CONTEXT@@PEAU_xDISPATCHER_CONTEXT@@PEAUFuncInfo4@FH4@@HH1@Z 0000000180013288 f   libvcruntime:frame.obj
 0001:00013018       ?ExFilterRethrow@@YAHPEAU_EXCEPTION_POINTERS@@PEAUEHExceptionRecord@@PEAH@Z 0000000180014018 f   libvcruntime:frame.obj
 0001:000130a0       ?ExFilterRethrowFH4@@YAHPEAU_EXCEPTION_POINTERS@@PEAUEHExceptionRecord@@HPEAH@Z 00000001800140a0 f   libvcruntime:frame.obj
 0001:000133b8       ?IsInExceptionSpec@@YAEPEAUEHExceptionRecord@@PEBU_s_ESTypeList@@@Z 00000001800143b8 f   libvcruntime:frame.obj
 0001:000134a8       ?Is_bad_exception_allowed@@YAEPEBU_s_ESTypeList@@@Z 00000001800144a8 f   libvcruntime:frame.obj
 0001:00013784       ?try_get_function@@YAPEAXW4function_id@?A0x84e3c32f@@QEBDQEBW4module_id@2@2@Z 0000000180014784 f   libvcruntime:winapi_downlevel.obj
 0001:00013a60       $$000000                   0000000180014a60     libvcruntime:handlers.obj
 0001:00014278       ??$common_vsprintf@Vformat_validation_base@__crt_stdio_output@@_W@@YAH_KQEA_W0QEB_WQEAU__crt_locale_pointers@@QEAD@Z 0000000180015278 f   libucrt:output.obj
 0001:00015118       $LN17                      0000000180016118     libucrt:output.obj
 0001:00015abc       ??$?RV<lambda_d80eeec6fff315bfe5c115232f3240e3>@@AEAV<lambda_6e4b09c48022b2350581041d5f6b0c4c>@@V<lambda_2358e3775559c9db80273638284d5e45>@@@?$__crt_seh_guarded_call@X@@QEAAX$$QEAV<lambda_d80eeec6fff315bfe5c115232f3240e3>@@AEAV<lambda_6e4b09c48022b2350581041d5f6b0c4c>@@$$QEAV<lambda_2358e3775559c9db80273638284d5e45>@@@Z 0000000180016abc f   libucrt:exit.obj
 0001:00015af4       ??R<lambda_6e4b09c48022b2350581041d5f6b0c4c>@@QEBA@XZ 0000000180016af4 f   libucrt:exit.obj
 0001:00015bb8       ?atexit_exception_filter@@YAHK@Z 0000000180016bb8 f   libucrt:exit.obj
 0001:00015bc4       ?common_exit@@YAXHW4_crt_exit_cleanup_mode@@W4_crt_exit_return_mode@@@Z 0000000180016bc4 f   libucrt:exit.obj
 0001:00015c80       ?exit_or_terminate_process@@YAXI@Z 0000000180016c80 f   libucrt:exit.obj
 0001:00015ccc       ?try_cor_exit_process@@YAXI@Z 0000000180016ccc f   libucrt:exit.obj
 0001:00015d54       ??$parse_command_line@D@@YAXPEADPEAPEAD0PEA_K2@Z 0000000180016d54 f   libucrt:argv_parsing.obj
 0001:000160fc       ??$common_initialize_environment_nolock@D@@YAHXZ 00000001800170fc f   libucrt:environment_initialization.obj
 0001:00016168       ??$create_environment@D@@YAQEAPEADQEAD@Z 0000000180017168 f   libucrt:environment_initialization.obj
 0001:00016270       ??$free_environment@D@@YAXQEAPEAD@Z 0000000180017270 f   libucrt:environment_initialization.obj
 0001:00016270       ??$free_environment@_W@@YAXQEAPEA_W@Z 0000000180017270 f   libucrt:environment_initialization.obj
 0001:000162b4       ??$uninitialize_environment_internal@D@@YAXAEAPEAPEAD@Z 00000001800172b4 f   libucrt:environment_initialization.obj
 0001:000162d0       ??$uninitialize_environment_internal@_W@@YAXAEAPEAPEA_W@Z 00000001800172d0 f   libucrt:environment_initialization.obj
 0001:0001632c       ??$?RV<lambda_638799b9deba96c50f710eeac98168cd>@@AEAV<lambda_22ebabd17bc4fa466a2aca6d8deb888d>@@V<lambda_a6f7d7db0129f75315ebf26d50c089f1>@@@?$__crt_seh_guarded_call@H@@QEAAH$$QEAV<lambda_638799b9deba96c50f710eeac98168cd>@@AEAV<lambda_22ebabd17bc4fa466a2aca6d8deb888d>@@$$QEAV<lambda_a6f7d7db0129f75315ebf26d50c089f1>@@@Z 000000018001732c f   libucrt:onexit.obj
 0001:00016368       ??$?RV<lambda_7777bce6b2f8c936911f934f8298dc43>@@AEAV<lambda_f03950bc5685219e0bcd2087efbe011e>@@V<lambda_3883c3dff614d5e0c5f61bb1ac94921c>@@@?$__crt_seh_guarded_call@H@@QEAAH$$QEAV<lambda_7777bce6b2f8c936911f934f8298dc43>@@AEAV<lambda_f03950bc5685219e0bcd2087efbe011e>@@$$QEAV<lambda_3883c3dff614d5e0c5f61bb1ac94921c>@@@Z 0000000180017368 f   libucrt:onexit.obj
 0001:000163a4       ??R<lambda_22ebabd17bc4fa466a2aca6d8deb888d>@@QEBAHXZ 00000001800173a4 f   libucrt:onexit.obj
 0001:00016554       ??R<lambda_f03950bc5685219e0bcd2087efbe011e>@@QEBAHXZ 0000000180017554 f   libucrt:onexit.obj
 0001:00016728       initialize_global_variables 0000000180017728 f   libucrt:initialization.obj
 0001:0001673c       initialize_c               000000018001773c f   libucrt:initialization.obj
 0001:00016760       initialize_environment     0000000180017760 f   libucrt:initialization.obj
 0001:00016760       initialize_global_state_isolation 0000000180017760 f   libucrt:initialization.obj
 0001:00016760       report_memory_leaks        0000000180017760 f   libucrt:initialization.obj
 0001:00016760       uninitialize_c             0000000180017760 f   libucrt:initialization.obj
 0001:00016760       uninitialize_global_state_isolation 0000000180017760 f   libucrt:initialization.obj
 0001:00016764       uninitialize_environment   0000000180017764 f   libucrt:initialization.obj
 0001:00016774       initialize_pointers        0000000180017774 f   libucrt:initialization.obj
 0001:000167b4       uninitialize_vcruntime     00000001800177b4 f   libucrt:initialization.obj
 0001:000167bc       uninitialize_allocated_memory 00000001800177bc f   libucrt:initialization.obj
 0001:000167fc       uninitialize_allocated_io_buffers 00000001800177fc f   libucrt:initialization.obj
 0001:00017170       $$000000                   0000000180018170     libucrt:strncmp.obj
 0001:0001726c       ??$?RV<lambda_0ae27a3a962d80f24befdcbee591983d>@@AEAV<lambda_8d0ee55de4b1038c4002e0adecdf1839>@@V<lambda_dc504788e8f1664fe9b84e20bfb512f2>@@@?$__crt_seh_guarded_call@X@@QEAAX$$QEAV<lambda_0ae27a3a962d80f24befdcbee591983d>@@AEAV<lambda_8d0ee55de4b1038c4002e0adecdf1839>@@$$QEAV<lambda_dc504788e8f1664fe9b84e20bfb512f2>@@@Z 000000018001826c f   libucrt:per_thread_data.obj
 0001:000172ac       ??$?RV<lambda_2d41944a1d46af3157314b8a01080d33>@@AEAV<lambda_8f455de75cd7d7f24b4096f044d8b9e6>@@V<lambda_aa500f224e6afead328df44964fe2772>@@@?$__crt_seh_guarded_call@X@@QEAAX$$QEAV<lambda_2d41944a1d46af3157314b8a01080d33>@@AEAV<lambda_8f455de75cd7d7f24b4096f044d8b9e6>@@$$QEAV<lambda_aa500f224e6afead328df44964fe2772>@@@Z 00000001800182ac f   libucrt:per_thread_data.obj
 0001:000172ec       ??$?RV<lambda_aa87e3671a710a21b5dc78c0bdf72e11>@@AEAV<lambda_92619d2358a28f41a33ba319515a20b9>@@V<lambda_6992ecaafeb10aed2b74cb1fae11a551>@@@?$__crt_seh_guarded_call@X@@QEAAX$$QEAV<lambda_aa87e3671a710a21b5dc78c0bdf72e11>@@AEAV<lambda_92619d2358a28f41a33ba319515a20b9>@@$$QEAV<lambda_6992ecaafeb10aed2b74cb1fae11a551>@@@Z 00000001800182ec f   libucrt:per_thread_data.obj
 0001:00017334       ??$?RV<lambda_f2e299630e499de9f9a165e60fcd3db5>@@AEAV<lambda_2ae9d31cdba2644fcbeaf08da7c24588>@@V<lambda_40d01ff24d0e7b3814fdbdcee8eab3c7>@@@?$__crt_seh_guarded_call@X@@QEAAX$$QEAV<lambda_f2e299630e499de9f9a165e60fcd3db5>@@AEAV<lambda_2ae9d31cdba2644fcbeaf08da7c24588>@@$$QEAV<lambda_40d01ff24d0e7b3814fdbdcee8eab3c7>@@@Z 0000000180018334 f   libucrt:per_thread_data.obj
 0001:00017394       ?construct_ptd_array@@YAXQEAU__acrt_ptd@@@Z 0000000180018394 f   libucrt:per_thread_data.obj
 0001:00017464       ?destroy_fls@@YAXPEAX@Z    0000000180018464 f   libucrt:per_thread_data.obj
 0001:00017484       ?destroy_ptd_array@@YAXQEAU__acrt_ptd@@@Z 0000000180018484 f   libucrt:per_thread_data.obj
 0001:0001757c       ?replace_current_thread_locale_nolock@@YAXQEAU__acrt_ptd@@QEAU__crt_locale_data@@@Z 000000018001857c f   libucrt:per_thread_data.obj
 0001:00017a60       ?try_get_function@@YAPEAXW4function_id@?A0x391cf84c@@QEBDQEBW4module_id@2@2@Z 0000000180018a60 f   libucrt:winapi_thunks.obj
 0001:00018430       ?fp_format_a@@YAHQEBNPEAD_KQEAD2H_NIQEAU__crt_locale_pointers@@W4__acrt_rounding_mode@@@Z 0000000180019430 f   libucrt:cvt.obj
 0001:000187b0       ?fp_format_e@@YAHQEBNQEAD_K12H_NIQEAU__crt_locale_pointers@@W4__acrt_rounding_mode@@@Z 00000001800197b0 f   libucrt:cvt.obj
 0001:000188a0       ?fp_format_e_internal@@YAHQEAD_KH_NIQEAU_strflt@@2QEAU__crt_locale_pointers@@@Z 00000001800198a0 f   libucrt:cvt.obj
 0001:00018a74       ?fp_format_f_internal@@YAHQEAD_KHQEAU_strflt@@_NQEAU__crt_locale_pointers@@@Z 0000000180019a74 f   libucrt:cvt.obj
 0001:00018bdc       ?fp_format_g@@YAHQEBNQEAD_K12H_NIQEAU__crt_locale_pointers@@@Z 0000000180019bdc f   libucrt:cvt.obj
 0001:00018d1c       ?should_round_up@@YA_NQEBN_KFW4__acrt_rounding_mode@@@Z 0000000180019d1c f   libucrt:cvt.obj
 0001:00019340       ??$?RV<lambda_410d79af7f07d98d83a3f525b3859a53>@@AEAV<lambda_3e16ef9562a7dcce91392c22ab16ea36>@@V<lambda_38119f0e861e05405d8a144b9b982f0a>@@@?$__crt_seh_guarded_call@X@@QEAAX$$QEAV<lambda_410d79af7f07d98d83a3f525b3859a53>@@AEAV<lambda_3e16ef9562a7dcce91392c22ab16ea36>@@$$QEAV<lambda_38119f0e861e05405d8a144b9b982f0a>@@@Z 000000018001a340 f   libucrt:wsetlocale.obj
 0001:000193ec       ?initialize_inherited_file_handles_nolock@@YAXXZ 000000018001a3ec f   libucrt:ioinit.obj
 0001:000194dc       ?initialize_stdio_handles_nolock@@YAXXZ 000000018001a4dc f   libucrt:ioinit.obj
 0001:00019758       ?<lambda_invoker_cdecl>@<lambda_a1ce4c8ae42411fd470c77163914f50e>@@CAHPEBX0@Z 000000018001a758 f   libucrt:argv_wildcards.obj
 0001:00019a70       ??$common_expand_argv_wildcards@D@@YAHQEAPEADQEAPEAPEAD@Z 000000018001aa70 f   libucrt:argv_wildcards.obj
 0001:00019c7c       ??$copy_and_add_argument_to_buffer@D@@YAHQEBD0_KAEAV?$argument_list@D@?A0x5f5c8891@@@Z 000000018001ac7c f   libucrt:argv_wildcards.obj
 0001:00019e04       ??$expand_argument_wildcards@D@@YAHQEAD0AEAV?$argument_list@D@?A0x5f5c8891@@@Z 000000018001ae04 f   libucrt:argv_wildcards.obj
 0001:0001a350       ??$?RV<lambda_efdfa57d1f175319df784efa44bb7b81>@@AEAV<lambda_5f0a4c1567f8adc6734073e5d1e1b35c>@@V<lambda_2e8a7d3640ea6ccb4c2413664c2db6fd>@@@?$__crt_seh_guarded_call@X@@QEAAX$$QEAV<lambda_efdfa57d1f175319df784efa44bb7b81>@@AEAV<lambda_5f0a4c1567f8adc6734073e5d1e1b35c>@@$$QEAV<lambda_2e8a7d3640ea6ccb4c2413664c2db6fd>@@@Z 000000018001b350 f   libucrt:mbctype.obj
 0001:0001a50c       ?getSystemCP@@YAHH@Z       000000018001b50c f   libucrt:mbctype.obj
 0001:0001a58c       ?setSBCS@@YAXPEAU__crt_multibyte_data@@@Z 000000018001b58c f   libucrt:mbctype.obj
 0001:0001a61c       ?setSBUpLow@@YAXPEAU__crt_multibyte_data@@@Z 000000018001b61c f   libucrt:mbctype.obj
 0001:0001a800       ?setmbcp_internal@@YAHH_NQEAU__acrt_ptd@@QEAPEAU__crt_multibyte_data@@@Z 000000018001b800 f   libucrt:mbctype.obj
 0001:0001a9c0       ?update_thread_multibyte_data_internal@@YAPEAU__crt_multibyte_data@@QEAU__acrt_ptd@@QEAPEAU1@@Z 000000018001b9c0 f   libucrt:mbctype.obj
 0001:0001adb0       ?x_ismbbtype_l@@YAHPEAU__crt_locale_pointers@@IHH@Z 000000018001bdb0 f   libucrt:ismbbyte.obj
 0001:0001b158       ??$?RV<lambda_450d765d439847d4c735a33c368b5fc0>@@AEAV<lambda_44731a7d0e6d81c3e6aa82d741081786>@@V<lambda_601a2a7da3b7a96e9554ac7215c4b07c>@@@?$__crt_seh_guarded_call@P6AXH@Z@@QEAAP6AXH@Z$$QEAV<lambda_450d765d439847d4c735a33c368b5fc0>@@AEAV<lambda_44731a7d0e6d81c3e6aa82d741081786>@@$$QEAV<lambda_601a2a7da3b7a96e9554ac7215c4b07c>@@@Z 000000018001c158 f   libucrt:signal.obj
 0001:0001b4b4       ??$?RV<lambda_842d9ff0dc9ef11c61343bbaebe7f885>@@AEAV<lambda_c5860995281e5c4ce005b3de8f5874ee>@@V<lambda_d90129c13df834fdcbf8d2b88dafcf2d>@@@?$__crt_seh_guarded_call@X@@QEAAX$$QEAV<lambda_842d9ff0dc9ef11c61343bbaebe7f885>@@AEAV<lambda_c5860995281e5c4ce005b3de8f5874ee>@@$$QEAV<lambda_d90129c13df834fdcbf8d2b88dafcf2d>@@@Z 000000018001c4b4 f   libucrt:fflush.obj
 0001:0001b550       ??$?RV<lambda_886d6c58226a84441f68b9f2b8217b83>@@AEAV<lambda_ab61a845afdef5b7c387490eaf3616ee>@@V<lambda_f7f22ab5edc0698d5f6905b0d3f44752>@@@?$__crt_seh_guarded_call@X@@QEAAX$$QEAV<lambda_886d6c58226a84441f68b9f2b8217b83>@@AEAV<lambda_ab61a845afdef5b7c387490eaf3616ee>@@$$QEAV<lambda_f7f22ab5edc0698d5f6905b0d3f44752>@@@Z 000000018001c550 f   libucrt:fflush.obj
 0001:0001b630       ?common_flush_all@@YAH_N@Z 000000018001c630 f   libucrt:fflush.obj
 0001:0001d680       memcpy_s                   000000018001e680 f   libucrt:cfout.obj
 0001:0001d9e8       ?free_crt_array_internal@@YAXQEAPEBX_K@Z 000000018001e9e8 f   libucrt:inittime.obj
 0001:0001e474       fallbackMethod             000000018001f474 f   libucrt:strpbrk.obj
 0001:0001e82c       $LN78                      000000018001f82c     libucrt:strpbrk.obj
 0001:0001e868       $LN77                      000000018001f868     libucrt:strpbrk.obj
 0001:0001e8a8       $LN76                      000000018001f8a8     libucrt:strpbrk.obj
 0001:0001e984       ?__acrt_LCMapStringA_stat@@YAHPEAU__crt_locale_pointers@@PEB_WKPEBDHPEADHHH@Z 000000018001f984 f   libucrt:lcmapstringa.obj
 0001:0001ed34       ?initialize_multibyte@@YAHXZ 000000018001fd34 f   libucrt:multibyte_initializer.obj
 0001:0001ed4c       ??$?RV<lambda_a37b2b86f63e897a80ea819b0eb08c01>@@AEAV<lambda_38ce7e780aa69e748d6df282ebc68efe>@@V<lambda_99fb1378e971ab6e7edea83e3a7a83a2>@@@?$__crt_seh_guarded_call@H@@QEAAH$$QEAV<lambda_a37b2b86f63e897a80ea819b0eb08c01>@@AEAV<lambda_38ce7e780aa69e748d6df282ebc68efe>@@$$QEAV<lambda_99fb1378e971ab6e7edea83e3a7a83a2>@@@Z 000000018001fd4c f   libucrt:commit.obj
 0001:0001ee6c       ?write_double_translated_ansi_nolock@@YA?AUwrite_result@?A0x17268360@@HQEBDI@Z 000000018001fe6c f   libucrt:write.obj
 0001:0001f358       ?write_text_ansi_nolock@@YA?AUwrite_result@?A0x17268360@@HQEBDI@Z 0000000180020358 f   libucrt:write.obj
 0001:0001f45c       ?write_text_utf16le_nolock@@YA?AUwrite_result@?A0x17268360@@HQEBDI@Z 000000018002045c f   libucrt:write.obj
 0001:0001f578       ?write_text_utf8_nolock@@YA?AUwrite_result@?A0x17268360@@HQEBDI@Z 0000000180020578 f   libucrt:write.obj
 0001:0001fed0       $$000000                   0000000180020ed0     libucrt:log10.obj
 0001:0002079c       ??$common_lseek_nolock@_J@@YA_JH_JH@Z 000000018002179c f   libucrt:lseek.obj
 0001:000209fc       common_control87           00000001800219fc f   libucrt:ieee.obj
 0001:00020cbc       _call_matherr              0000000180021cbc f   libucrt:libm_error.obj
 0001:00020d24       _exception_enabled         0000000180021d24 f   libucrt:libm_error.obj
 0001:00020fc0       _log_special_common        0000000180021fc0 f   libucrt:log_special.obj
 0001:00021058       ??$?RV<lambda_751a882b2c74d4b022dec766aa51a29a>@@AEAV<lambda_628dfdc04ba53c8bfc02c9951375f3f5>@@V<lambda_f6c7be5f7998530c34de24c7437d6b54>@@@?$__crt_seh_guarded_call@H@@QEAAH$$QEAV<lambda_751a882b2c74d4b022dec766aa51a29a>@@AEAV<lambda_628dfdc04ba53c8bfc02c9951375f3f5>@@$$QEAV<lambda_f6c7be5f7998530c34de24c7437d6b54>@@@Z 0000000180022058 f   libucrt:close.obj
 0001:00021380       $$000000                   0000000180022380     libucrt:fpsr.obj
 0001:00021a20       $$000000                   0000000180022a20     LIBCMT:guard_dispatch.obj
 0001:00021a40       $$000000                   0000000180022a40     LIBCMT:guard_xfg_dispatch.obj
 0001:00021a60       ?filt$0@?0??_AtlVerifyStackAvailable@_ATL_SAFE_ALLOCA_IMPL@ATL@@YA_N_K@Z@4HA 0000000180022a60 f   PINPad.obj
 0001:00021a81       __scrt_is_nonwritable_in_current_image$filt$0 0000000180022a81 f   LIBCMT:utility.obj
 0001:00021a99       ?catch$0@?0???2@YAPEAX_KAEBUnothrow_t@std@@@Z@4HA 0000000180022a99 f   LIBCMT:new_scalar_nothrow.obj
 0001:00021aa6       __catch$??2@YAPEAX_KAEBUnothrow_t@std@@@Z$0 0000000180022aa6 f   LIBCMT:new_scalar_nothrow.obj
 0001:00021ab7       ?fin$0@?0??dllmain_crt_process_attach@@YAHQEAUHINSTANCE__@@QEAX@Z@4HA 0000000180022ab7 f   LIBCMT:dll_dllmain.obj
 0001:00021ace       ?fin$0@?0??dllmain_crt_process_detach@@YAH_N@Z@4HA 0000000180022ace f   LIBCMT:dll_dllmain.obj
 0001:00021ae7       ?fin$1@?0??dllmain_crt_process_detach@@YAH_N@Z@4HA 0000000180022ae7 f   LIBCMT:dll_dllmain.obj
 0001:00021afb       ?filt$0@?0??dllmain_dispatch@@YAHQEAUHINSTANCE__@@KQEAX@Z@4HA 0000000180022afb f   LIBCMT:dll_dllmain.obj
 0001:00021b31       ?filt$0@?0???$_CallSETranslator@V__FrameHandler4@@@@YAHPEAUEHExceptionRecord@@PEA_KPEAU_CONTEXT@@PEAU_xDISPATCHER_CONTEXT@@PEAUFuncInfo4@FH4@@K1H@Z@4HA 0000000180022b31 f   libvcruntime:risctrnsctrl.obj
 0001:00021bd0       __DestructExceptionObject$filt$0 0000000180022bd0 f   libvcruntime:ehhelpers.obj
 0001:00021c66       ?filt$0@?0??CxxCallCatchBlock@__FrameHandler4@@SAPEAXPEAU_EXCEPTION_RECORD@@@Z@4HA 0000000180022c66 f   libvcruntime:frame.obj
 0001:00021c95       ?fin$1@?0??CxxCallCatchBlock@__FrameHandler4@@SAPEAXPEAU_EXCEPTION_RECORD@@@Z@4HA 0000000180022c95 f   libvcruntime:frame.obj
 0001:00021d18       ?filt$0@?0??FrameUnwindToState@__FrameHandler4@@SAXPEA_KPEAU_xDISPATCHER_CONTEXT@@PEAUFuncInfo4@FH4@@H@Z@4HA 0000000180022d18 f   libvcruntime:frame.obj
 0001:00021d2e       ?fin$1@?0??FrameUnwindToState@__FrameHandler4@@SAXPEA_KPEAU_xDISPATCHER_CONTEXT@@PEAUFuncInfo4@FH4@@H@Z@4HA 0000000180022d2e f   libvcruntime:frame.obj
 0001:00021d51       ?fin$0@?0???$?RV<lambda_0ae27a3a962d80f24befdcbee591983d>@@AEAV<lambda_8d0ee55de4b1038c4002e0adecdf1839>@@V<lambda_dc504788e8f1664fe9b84e20bfb512f2>@@@?$__crt_seh_guarded_call@X@@QEAAX$$QEAV<lambda_0ae27a3a962d80f24befdcbee591983d>@@AEAV<lambda_8d0ee55de4b1038c4002e0adecdf1839>@@$$QEAV<lambda_dc504788e8f1664fe9b84e20bfb512f2>@@@Z@4HA 0000000180022d51 f   libucrt:per_thread_data.obj
 0001:00021d51       ?fin$0@?0???$?RV<lambda_2d41944a1d46af3157314b8a01080d33>@@AEAV<lambda_8f455de75cd7d7f24b4096f044d8b9e6>@@V<lambda_aa500f224e6afead328df44964fe2772>@@@?$__crt_seh_guarded_call@X@@QEAAX$$QEAV<lambda_2d41944a1d46af3157314b8a01080d33>@@AEAV<lambda_8f455de75cd7d7f24b4096f044d8b9e6>@@$$QEAV<lambda_aa500f224e6afead328df44964fe2772>@@@Z@4HA 0000000180022d51 f   libucrt:per_thread_data.obj
 0001:00021d51       ?fin$0@?0???$?RV<lambda_aa87e3671a710a21b5dc78c0bdf72e11>@@AEAV<lambda_92619d2358a28f41a33ba319515a20b9>@@V<lambda_6992ecaafeb10aed2b74cb1fae11a551>@@@?$__crt_seh_guarded_call@X@@QEAAX$$QEAV<lambda_aa87e3671a710a21b5dc78c0bdf72e11>@@AEAV<lambda_92619d2358a28f41a33ba319515a20b9>@@$$QEAV<lambda_6992ecaafeb10aed2b74cb1fae11a551>@@@Z@4HA 0000000180022d51 f   libucrt:per_thread_data.obj
 0001:00021d51       ?fin$0@?0???$?RV<lambda_f2e299630e499de9f9a165e60fcd3db5>@@AEAV<lambda_2ae9d31cdba2644fcbeaf08da7c24588>@@V<lambda_40d01ff24d0e7b3814fdbdcee8eab3c7>@@@?$__crt_seh_guarded_call@X@@QEAAX$$QEAV<lambda_f2e299630e499de9f9a165e60fcd3db5>@@AEAV<lambda_2ae9d31cdba2644fcbeaf08da7c24588>@@$$QEAV<lambda_40d01ff24d0e7b3814fdbdcee8eab3c7>@@@Z@4HA 0000000180022d51 f   libucrt:per_thread_data.obj
 0001:00021d51       ?fin$0@?0???$?RV<lambda_efdfa57d1f175319df784efa44bb7b81>@@AEAV<lambda_5f0a4c1567f8adc6734073e5d1e1b35c>@@V<lambda_2e8a7d3640ea6ccb4c2413664c2db6fd>@@@?$__crt_seh_guarded_call@X@@QEAAX$$QEAV<lambda_efdfa57d1f175319df784efa44bb7b81>@@AEAV<lambda_5f0a4c1567f8adc6734073e5d1e1b35c>@@$$QEAV<lambda_2e8a7d3640ea6ccb4c2413664c2db6fd>@@@Z@4HA 0000000180022d51 f   libucrt:mbctype.obj
 0001:00021d51       ?fin$0@?0???$?RV<lambda_450d765d439847d4c735a33c368b5fc0>@@AEAV<lambda_44731a7d0e6d81c3e6aa82d741081786>@@V<lambda_601a2a7da3b7a96e9554ac7215c4b07c>@@@?$__crt_seh_guarded_call@P6AXH@Z@@QEAAP6AXH@Z$$QEAV<lambda_450d765d439847d4c735a33c368b5fc0>@@AEAV<lambda_44731a7d0e6d81c3e6aa82d741081786>@@$$QEAV<lambda_601a2a7da3b7a96e9554ac7215c4b07c>@@@Z@4HA 0000000180022d51 f   libucrt:signal.obj
 0001:00021d51       ?fin$0@?0???$?RV<lambda_d80eeec6fff315bfe5c115232f3240e3>@@AEAV<lambda_6e4b09c48022b2350581041d5f6b0c4c>@@V<lambda_2358e3775559c9db80273638284d5e45>@@@?$__crt_seh_guarded_call@X@@QEAAX$$QEAV<lambda_d80eeec6fff315bfe5c115232f3240e3>@@AEAV<lambda_6e4b09c48022b2350581041d5f6b0c4c>@@$$QEAV<lambda_2358e3775559c9db80273638284d5e45>@@@Z@4HA 0000000180022d51 f   libucrt:exit.obj
 0001:00021d51       ?fin$0@?0???$?RV<lambda_638799b9deba96c50f710eeac98168cd>@@AEAV<lambda_22ebabd17bc4fa466a2aca6d8deb888d>@@V<lambda_a6f7d7db0129f75315ebf26d50c089f1>@@@?$__crt_seh_guarded_call@H@@QEAAH$$QEAV<lambda_638799b9deba96c50f710eeac98168cd>@@AEAV<lambda_22ebabd17bc4fa466a2aca6d8deb888d>@@$$QEAV<lambda_a6f7d7db0129f75315ebf26d50c089f1>@@@Z@4HA 0000000180022d51 f   libucrt:onexit.obj
 0001:00021d51       ?fin$0@?0???$?RV<lambda_7777bce6b2f8c936911f934f8298dc43>@@AEAV<lambda_f03950bc5685219e0bcd2087efbe011e>@@V<lambda_3883c3dff614d5e0c5f61bb1ac94921c>@@@?$__crt_seh_guarded_call@H@@QEAAH$$QEAV<lambda_7777bce6b2f8c936911f934f8298dc43>@@AEAV<lambda_f03950bc5685219e0bcd2087efbe011e>@@$$QEAV<lambda_3883c3dff614d5e0c5f61bb1ac94921c>@@@Z@4HA 0000000180022d51 f   libucrt:onexit.obj
 0001:00021d6b       ?filt$0@?0???R<lambda_6e4b09c48022b2350581041d5f6b0c4c>@@QEBA@XZ@4HA 0000000180022d6b f   libucrt:exit.obj
 0001:00021d86       _query_new_handler$fin$0   0000000180022d86 f   libucrt:new_handler.obj
 0001:00021d9c       ?fin$0@?0???$?RV<lambda_410d79af7f07d98d83a3f525b3859a53>@@AEAV<lambda_3e16ef9562a7dcce91392c22ab16ea36>@@V<lambda_38119f0e861e05405d8a144b9b982f0a>@@@?$__crt_seh_guarded_call@X@@QEAAX$$QEAV<lambda_410d79af7f07d98d83a3f525b3859a53>@@AEAV<lambda_3e16ef9562a7dcce91392c22ab16ea36>@@$$QEAV<lambda_38119f0e861e05405d8a144b9b982f0a>@@@Z@4HA 0000000180022d9c f   libucrt:wsetlocale.obj
 0001:00021db6       __acrt_initialize_lowio$fin$0 0000000180022db6 f   libucrt:ioinit.obj
 0001:00021db6       __acrt_lowio_ensure_fh_exists$fin$0 0000000180022db6 f   libucrt:osfinfo.obj
 0001:00021dcf       ?fin$0@?0??update_thread_multibyte_data_internal@@YAPEAU__crt_multibyte_data@@QEAU__acrt_ptd@@QEAPEAU1@@Z@4HA 0000000180022dcf f   libucrt:mbctype.obj
 0001:00021de8       raise$fin$0                0000000180022de8 f   libucrt:signal.obj
 0001:00021e09       ?fin$0@?0???$?RV<lambda_842d9ff0dc9ef11c61343bbaebe7f885>@@AEAV<lambda_c5860995281e5c4ce005b3de8f5874ee>@@V<lambda_d90129c13df834fdcbf8d2b88dafcf2d>@@@?$__crt_seh_guarded_call@X@@QEAAX$$QEAV<lambda_842d9ff0dc9ef11c61343bbaebe7f885>@@AEAV<lambda_c5860995281e5c4ce005b3de8f5874ee>@@$$QEAV<lambda_d90129c13df834fdcbf8d2b88dafcf2d>@@@Z@4HA 0000000180022e09 f   libucrt:fflush.obj
 0001:00021e24       ?fin$0@?0???$?RV<lambda_886d6c58226a84441f68b9f2b8217b83>@@AEAV<lambda_ab61a845afdef5b7c387490eaf3616ee>@@V<lambda_f7f22ab5edc0698d5f6905b0d3f44752>@@@?$__crt_seh_guarded_call@X@@QEAAX$$QEAV<lambda_886d6c58226a84441f68b9f2b8217b83>@@AEAV<lambda_ab61a845afdef5b7c387490eaf3616ee>@@$$QEAV<lambda_f7f22ab5edc0698d5f6905b0d3f44752>@@@Z@4HA 0000000180022e24 f   libucrt:fflush.obj
 0001:00021e41       __acrt_update_thread_locale_data$fin$0 0000000180022e41 f   libucrt:locale_refcounting.obj
 0001:00021e5a       _fcloseall$fin$0           0000000180022e5a f   libucrt:closeall.obj
 0001:00021e73       ?fin$0@?0???$?RV<lambda_751a882b2c74d4b022dec766aa51a29a>@@AEAV<lambda_628dfdc04ba53c8bfc02c9951375f3f5>@@V<lambda_f6c7be5f7998530c34de24c7437d6b54>@@@?$__crt_seh_guarded_call@H@@QEAAH$$QEAV<lambda_751a882b2c74d4b022dec766aa51a29a>@@AEAV<lambda_628dfdc04ba53c8bfc02c9951375f3f5>@@$$QEAV<lambda_f6c7be5f7998530c34de24c7437d6b54>@@@Z@4HA 0000000180022e73 f   libucrt:close.obj
 0001:00021e73       ?fin$0@?0???$?RV<lambda_a37b2b86f63e897a80ea819b0eb08c01>@@AEAV<lambda_38ce7e780aa69e748d6df282ebc68efe>@@V<lambda_99fb1378e971ab6e7edea83e3a7a83a2>@@@?$__crt_seh_guarded_call@H@@QEAAH$$QEAV<lambda_a37b2b86f63e897a80ea819b0eb08c01>@@AEAV<lambda_38ce7e780aa69e748d6df282ebc68efe>@@$$QEAV<lambda_99fb1378e971ab6e7edea83e3a7a83a2>@@@Z@4HA 0000000180022e73 f   libucrt:commit.obj
 0001:00021e8d       _write$fin$0               0000000180022e8d f   libucrt:write.obj
 0001:00021ea4       fclose$fin$0               0000000180022ea4 f   libucrt:fclose.obj
 0001:00021ebc       _ctrlfp$filt$0             0000000180022ebc f   libucrt:fpctrl.obj
 0001:00021ebc       common_control87$filt$0    0000000180022ebc f   libucrt:ieee.obj
 0001:00021ef0       _IsNonwritableInCurrentImage$filt$0 0000000180022ef0 f   LIBCMT:pesect.obj
 0001:00021f10       ??__F_AtlComModule@ATL@@YAXXZ 0000000180022f10 f   OposVariant.obj
 0001:00021f1c       ??__F_AtlWinModule@ATL@@YAXXZ 0000000180022f1c f   OposVariant.obj
 0001:00021f60       ??__F_Module@@YAXXZ        0000000180022f60 f   PINPad.obj
 0001:00021f7c       ??__F_AtlBaseModule@ATL@@YAXXZ 0000000180022f7c f   atls:atlbase.obj
 0002:00000648       ?_AtlBaseModule$initializer$@ATL@@3P6AXXZEA 0000000180023648     atls:atlbase.obj
 0002:00000650       ?_AtlComModule$initializer$@ATL@@3P6AXXZEA 0000000180023650     OposVariant.obj
 0002:00000658       ?_AtlWinModule$initializer$@ATL@@3P6AXXZEA 0000000180023658     OposVariant.obj
 0002:00000660       ?_Module$initializer$@@3P6AXXZEA 0000000180023660     PINPad.obj
 0002:00000668       ??pConnMap$initializer$@?$IConnectionPointContainerImpl@VCOPOSPINPad@@@ATL@@0P6AXXZEA@@3P6AXXZEA 0000000180023668     PINPad.obj
 0002:00000680       ?__scrt_initialize_tss_var@@3P6AHXZEA 0000000180023680     LIBCMT:thread_safe_statics.obj
 0002:00002918       GS_ExceptionPointers       0000000180025918     LIBCMT:gs_report.obj
 0002:00002b00       ?ExceptionTemplate@?1??UnwindNestedFrames@__FrameHandler4@@SAXPEA_KPEAUEHExceptionRecord@@PEAU_CONTEXT@@0PEAXPEAUFuncInfo4@FH4@@HHPEAUHandlerType4@6@PEAU_xDISPATCHER_CONTEXT@@E@Z@4U_EXCEPTION_RECORD@@B 0000000180025b00     libvcruntime:risctrnsctrl.obj
 0002:00002bd0       ?tokenTable@@3QBUStringLiteral@@B 0000000180025bd0     libvcruntime:undname.obj
 0002:00002cd0       ?nameTable@@3QBUStringLiteral@@B 0000000180025cd0     libvcruntime:undname.obj
 0002:00003200       ?rttiTable@@3QBUStringLiteral@@B 0000000180026200     libvcruntime:undname.obj
 0002:00003250       ?IndirectionName@@3QBUStringLiteral@@B 0000000180026250     libvcruntime:undname.obj
 0002:000032b0       ?PrefixName@@3QBUStringLiteral@@B 00000001800262b0     libvcruntime:undname.obj
 0002:00003988       ?module_names@?A0x84e3c32f@@3QBQEB_WB 0000000180026988     libvcruntime:winapi_downlevel.obj
 0002:00003a48       ?candidate_modules@?1??try_get_FlsAlloc@@YAP6AKP6AXPEAX@Z@ZXZ@4QBW4module_id@?A0x84e3c32f@@B 0000000180026a48     libvcruntime:winapi_downlevel.obj
 0002:00003a60       ?candidate_modules@?1??try_get_FlsFree@@YAP6AHK@ZXZ@4QBW4module_id@?A0x84e3c32f@@B 0000000180026a60     libvcruntime:winapi_downlevel.obj
 0002:00003a70       ?candidate_modules@?1??try_get_FlsGetValue@@YAP6APEAXK@ZXZ@4QBW4module_id@?A0x84e3c32f@@B 0000000180026a70     libvcruntime:winapi_downlevel.obj
 0002:00003a88       ?candidate_modules@?1??try_get_FlsSetValue@@YAP6AHKPEAX@ZXZ@4QBW4module_id@?A0x84e3c32f@@B 0000000180026a88     libvcruntime:winapi_downlevel.obj
 0002:00003aa0       ?candidate_modules@?1??try_get_InitializeCriticalSectionEx@@YAP6AHPEAU_RTL_CRITICAL_SECTION@@KK@ZXZ@4QBW4module_id@?A0x84e3c32f@@B 0000000180026aa0     libvcruntime:winapi_downlevel.obj
 0002:00003ad0       ?errtable@@3QBUerrentry@?A0x31fdb9ec@@B 0000000180026ad0     libucrt:errno.obj
 0002:00004160       __acrt_initializers        0000000180027160     libucrt:initialization.obj
 0002:00004260       ?module_names@?A0x391cf84c@@3QBQEB_WB 0000000180027260     libucrt:winapi_thunks.obj
 0002:00004768       ?candidate_modules@?1??try_get_AreFileApisANSI@@YAP6AHXZXZ@4QBW4module_id@?A0x391cf84c@@B 0000000180027768     libucrt:winapi_thunks.obj
 0002:00004780       ?candidate_modules@?1??try_get_FlsAlloc@@YAP6AKP6AXPEAX@Z@ZXZ@4QBW4module_id@?A0x391cf84c@@B 0000000180027780     libucrt:winapi_thunks.obj
 0002:00004788       ?candidate_modules@?1??try_get_FlsFree@@YAP6AHK@ZXZ@4QBW4module_id@?A0x391cf84c@@B 0000000180027788     libucrt:winapi_thunks.obj
 0002:00004790       ?candidate_modules@?1??try_get_FlsGetValue@@YAP6APEAXK@ZXZ@4QBW4module_id@?A0x391cf84c@@B 0000000180027790     libucrt:winapi_thunks.obj
 0002:00004798       ?candidate_modules@?1??try_get_FlsSetValue@@YAP6AHKPEAX@ZXZ@4QBW4module_id@?A0x391cf84c@@B 0000000180027798     libucrt:winapi_thunks.obj
 0002:000047a0       ?candidate_modules@?1??try_get_InitializeCriticalSectionEx@@YAP6AHPEAU_RTL_CRITICAL_SECTION@@KK@ZXZ@4QBW4module_id@?A0x391cf84c@@B 00000001800277a0     libucrt:winapi_thunks.obj
 0002:000047a8       ?candidate_modules@?1??try_get_LCMapStringEx@@YAP6AHPEB_WK0HPEA_WHPEAU_nlsversioninfo@@PEAX_J@ZXZ@4QBW4module_id@?A0x391cf84c@@B 00000001800277a8     libucrt:winapi_thunks.obj
 0002:000047c0       ?candidate_modules@?1??try_get_LocaleNameToLCID@@YAP6AKPEB_WK@ZXZ@4QBW4module_id@?A0x391cf84c@@B 00000001800277c0     libucrt:winapi_thunks.obj
 0002:000047dc       ?candidate_modules@?1??try_get_AppPolicyGetProcessTerminationMethod@@YAP6AJPEAXPEAW4AppPolicyProcessTerminationMethod@@@ZXZ@4QBW4module_id@?A0x391cf84c@@B 00000001800277dc     libucrt:winapi_thunks.obj
 0002:00004808       ?candidate_modules@?1??try_get_SetThreadStackGuarantee@@YAP6AHPEAK@ZXZ@4QBW4module_id@?A0x391cf84c@@B 0000000180027808     libucrt:winapi_thunks.obj
 0002:00004830       ?strings@?1??fp_format_nan_or_infinity@@YAHW4__acrt_fp_class@@_NPEAD_K1@Z@4QAY03QEBDA 0000000180027830     libucrt:cvt.obj
 0002:00004f90       ?_mb_locale_names@@3QBQEB_WB 0000000180027f90     libucrt:mbctype.obj
 0002:00005800       ?LcidToLocaleNameTable@?A0x881e4c05@@3QBULcidToLocaleName@1@B 0000000180028800     libucrt:lcidtoname_downlevel.obj
 0002:00007260       ?LocaleNameToIndexTable@?A0x881e4c05@@3QBULocaleNameIndex@1@B 000000018002a260     libucrt:lcidtoname_downlevel.obj
 0002:00009500       __real_ninf                000000018002c500     libucrt:log10.obj
 0002:00009510       __real_inf                 000000018002c510     libucrt:log10.obj
 0002:00009520       __real_neg_qnan            000000018002c520     libucrt:log10.obj
 0002:00009530       __real_qnanbit             000000018002c530     libucrt:log10.obj
 0002:00009540       __int_1023                 000000018002c540     libucrt:log10.obj
 0002:00009550       __mask_001                 000000018002c550     libucrt:log10.obj
 0002:00009560       __mask_mant                000000018002c560     libucrt:log10.obj
 0002:00009570       __mask_mant_top8           000000018002c570     libucrt:log10.obj
 0002:00009580       __mask_mant9               000000018002c580     libucrt:log10.obj
 0002:00009590       __real_log10_e             000000018002c590     libucrt:log10.obj
 0002:000095a0       __real_log10_e_lead        000000018002c5a0     libucrt:log10.obj
 0002:000095b0       __real_log10_e_tail        000000018002c5b0     libucrt:log10.obj
 0002:000095c0       __real_log10_2_lead        000000018002c5c0     libucrt:log10.obj
 0002:000095d0       __real_log10_2_tail        000000018002c5d0     libucrt:log10.obj
 0002:000095e0       __real_two                 000000018002c5e0     libucrt:log10.obj
 0002:000095f0       __real_one                 000000018002c5f0     libucrt:log10.obj
 0002:00009600       __real_half                000000018002c600     libucrt:log10.obj
 0002:00009610       __mask_100                 000000018002c610     libucrt:log10.obj
 0002:00009620       __real_1_over_512          000000018002c620     libucrt:log10.obj
 0002:00009630       __real_1_over_2            000000018002c630     libucrt:log10.obj
 0002:00009640       __real_1_over_3            000000018002c640     libucrt:log10.obj
 0002:00009650       __real_1_over_4            000000018002c650     libucrt:log10.obj
 0002:00009660       __real_1_over_5            000000018002c660     libucrt:log10.obj
 0002:00009670       __real_1_over_6            000000018002c670     libucrt:log10.obj
 0002:00009680       __real_neg_1023            000000018002c680     libucrt:log10.obj
 0002:00009690       __mask_2045                000000018002c690     libucrt:log10.obj
 0002:000096a0       __real_threshold           000000018002c6a0     libucrt:log10.obj
 0002:000096b0       __real_near_one_lt         000000018002c6b0     libucrt:log10.obj
 0002:000096c0       __real_near_one_gt         000000018002c6c0     libucrt:log10.obj
 0002:000096d0       __real_min_norm            000000018002c6d0     libucrt:log10.obj
 0002:000096e0       __real_notsign             000000018002c6e0     libucrt:log10.obj
 0002:000096f0       __real_ca1                 000000018002c6f0     libucrt:log10.obj
 0002:00009700       __real_ca2                 000000018002c700     libucrt:log10.obj
 0002:00009710       __real_ca3                 000000018002c710     libucrt:log10.obj
 0002:00009720       __real_ca4                 000000018002c720     libucrt:log10.obj
 0002:00009730       __mask_lower               000000018002c730     libucrt:log10.obj
 0002:00009740       __flag_x_zero              000000018002c740     libucrt:log10.obj
 0002:00009744       __flag_x_neg               000000018002c744     libucrt:log10.obj
 0002:00009748       __flag_x_nan               000000018002c748     libucrt:log10.obj
 0002:0000afa0       __real@433fffffffffffff    000000018002dfa0     libucrt:fpsr.obj
 0002:0000afa8       __real@c33fffffffffffff    000000018002dfa8     libucrt:fpsr.obj
 0002:0000b850       $unwind$?cw_memcpy@@YAHPEA_WPEBDH@Z 000000018002e850     CWString.obj
 0002:0000b850       $unwind$?ProcessWindowMessage@?$CComControl@VCOPOSPINPad@@V?$CWindowImpl@VCOPOSPINPad@@VCWindow@ATL@@V?$CWinTraits@$0FGAAAAAA@$0A@@3@@ATL@@@ATL@@UEAAHPEAUHWND__@@I_K_JAEA_JK@Z 000000018002e850     PINPad.obj
 0002:0000b850       $unwind$wcstol             000000018002e850     libucrt:strtox.obj
 0002:0000b850       $unwind$_invalid_parameter_noinfo 000000018002e850     libucrt:invalid_parameter.obj
 0002:0000b850       $unwind$_log10_special     000000018002e850     libucrt:log_special.obj
 0002:0000b858       $unwind$?cw_strcpy@@YAHPEA_WPEBD@Z 000000018002e858     CWString.obj
 0002:0000b858       $unwind$??1OposDispParms@@QEAA@XZ 000000018002e858     OposVariant.obj
 0002:0000b858       $unwind$??__E_AtlComModule@ATL@@YAXXZ 000000018002e858     OposVariant.obj
 0002:0000b858       $unwind$??__E_AtlWinModule@ATL@@YAXXZ 000000018002e858     OposVariant.obj
 0002:0000b858       $unwind$??__F_AtlWinModule@ATL@@YAXXZ 000000018002e858     OposVariant.obj
 0002:0000b858       $unwind$?GetLONG@OposVariant@@QEAAJXZ 000000018002e858     OposVariant.obj
 0002:0000b858       $unwind$??__E?pConnMap@?$IConnectionPointContainerImpl@VCOPOSPINPad@@@ATL@@0PEBU_ATL_CONNMAP_ENTRY@2@EB@@YAXXZ 000000018002e858     PINPad.obj
 0002:0000b858       $unwind$?AddReplacement@CRegObject@ATL@@UEAAJPEB_W0@Z 000000018002e858     PINPad.obj
 0002:0000b858       $unwind$?AtlHresultFromLastError@ATL@@YAJXZ 000000018002e858     PINPad.obj
 0002:0000b858       $unwind$?AtlThrowImpl@ATL@@YAXJ@Z 000000018002e858     PINPad.obj
 0002:0000b858       $unwind$?CreateInstance@CComClassFactory@ATL@@UEAAJPEAUIUnknown@@AEBU_GUID@@PEAPEAX@Z 000000018002e858     PINPad.obj
 0002:0000b858       $unwind$?DefaultReflectionHandler@?$CWindowImplRoot@VCWindow@ATL@@@ATL@@SAHPEAUHWND__@@I_K_JAEA_J@Z 000000018002e858     PINPad.obj
 0002:0000b858       $unwind$?EnumAdvise@?$IOleObjectImpl@VCOPOSPINPad@@@ATL@@UEAAJPEAPEAUIEnumSTATDATA@@@Z 000000018002e858     PINPad.obj
 0002:0000b858       $unwind$?FireViewChange@CComControlBase@ATL@@QEAAJXZ 000000018002e858     PINPad.obj
 0002:0000b858       $unwind$?GetAdvise@?$IViewObjectExImpl@VCOPOSPINPad@@@ATL@@UEAAJPEAK0PEAPEAUIAdviseSink@@@Z 000000018002e858     PINPad.obj
 0002:0000b858       $unwind$?LockServer@CComClassFactory@ATL@@UEAAJH@Z 000000018002e858     PINPad.obj
 0002:0000b858       $unwind$?OnDocWindowActivate@?$IOleInPlaceActiveObjectImpl@VCOPOSPINPad@@@ATL@@UEAAJH@Z 000000018002e858     PINPad.obj
 0002:0000b858       $unwind$?Unadvise@?$IOleObjectImpl@VCOPOSPINPad@@@ATL@@UEAAJK@Z 000000018002e858     PINPad.obj
 0002:0000b858       $unwind$?_LocCPQueryInterface@?$IConnectionPointImpl@VCOPOSPINPad@@$1?DIID__IOPOSPINPadEvents@@3U_GUID@@BVCComDynamicUnkArray@ATL@@@ATL@@UEAAJAEBU_GUID@@PEAPEAX@Z 000000018002e858     PINPad.obj
 0002:0000b858       $unwind$?_LocCPQueryInterface@?$IConnectionPointImpl@VCOPOSPINPad@@$1?IID_IPropertyNotifySink@@3U_GUID@@BVCComDynamicUnkArray@ATL@@@ATL@@UEAAJAEBU_GUID@@PEAPEAX@Z 000000018002e858     PINPad.obj
 0002:0000b858       $unwind$?FinalConstruct@COPOSPINPad@@QEAAJXZ 000000018002e858     PINPadImpl.obj
 0002:0000b858       $unwind$?get_ResultCode@COPOSPINPad@@UEAAJPEAJ@Z 000000018002e858     PINPadImpl.obj
 0002:0000b858       $unwind$?get_State@COPOSPINPad@@UEAAJPEAJ@Z 000000018002e858     PINPadImpl.obj
 0002:0000b858       $unwind$??__E_AtlBaseModule@ATL@@YAXXZ 000000018002e858     atls:atlbase.obj
 0002:0000b858       $unwind$__scrt_initialize_default_local_stdio_options 000000018002e858     LIBCMT:default_local_stdio_options.obj
 0002:0000b858       $unwind$?dllmain_crt_dispatch@@YAHQEAUHINSTANCE__@@KQEAX@Z 000000018002e858     LIBCMT:dll_dllmain.obj
 0002:0000b858       $unwind$__report_rangecheckfailure 000000018002e858     LIBCMT:gs_report.obj
 0002:0000b858       $unwind$__GSHandlerCheck   000000018002e858     LIBCMT:gshandler.obj
 0002:0000b858       $unwind$?__scrt_uninitialize_thread_safe_statics@@YAXXZ 000000018002e858     LIBCMT:thread_safe_statics.obj
 0002:0000b858       $unwind$_Init_thread_notify 000000018002e858     LIBCMT:thread_safe_statics.obj
 0002:0000b858       $unwind$__scrt_acquire_startup_lock 000000018002e858     LIBCMT:utility.obj
 0002:0000b858       $unwind$__scrt_dllmain_after_initialize_c 000000018002e858     LIBCMT:utility.obj
 0002:0000b858       $unwind$__scrt_dllmain_before_initialize_c 000000018002e858     LIBCMT:utility.obj
 0002:0000b858       $unwind$__scrt_dllmain_crt_thread_attach 000000018002e858     LIBCMT:utility.obj
 0002:0000b858       $unwind$__scrt_dllmain_crt_thread_detach 000000018002e858     LIBCMT:utility.obj
 0002:0000b858       $unwind$__scrt_dllmain_uninitialize_c 000000018002e858     LIBCMT:utility.obj
 0002:0000b858       $unwind$__scrt_dllmain_uninitialize_critical 000000018002e858     LIBCMT:utility.obj
 0002:0000b858       $unwind$atexit             000000018002e858     LIBCMT:utility.obj
 0002:0000b858       $unwind$__vcrt_initialize  000000018002e858     libvcruntime:initialization.obj
 0002:0000b858       $unwind$__vcrt_thread_attach 000000018002e858     libvcruntime:initialization.obj
 0002:0000b858       $unwind$__vcrt_thread_detach 000000018002e858     libvcruntime:initialization.obj
 0002:0000b858       $unwind$__vcrt_uninitialize 000000018002e858     libvcruntime:initialization.obj
 0002:0000b858       $unwind$__vcrt_uninitialize_critical 000000018002e858     libvcruntime:initialization.obj
 0002:0000b858       $unwind$__vcrt_initialize_locks 000000018002e858     libvcruntime:locks.obj
 0002:0000b858       $unwind$__vcrt_freefls     000000018002e858     libvcruntime:per_thread_data.obj
 0002:0000b858       $unwind$__vcrt_getptd      000000018002e858     libvcruntime:per_thread_data.obj
 0002:0000b858       $unwind$__vcrt_initialize_ptd 000000018002e858     libvcruntime:per_thread_data.obj
 0002:0000b858       $unwind$__vcrt_uninitialize_ptd 000000018002e858     libvcruntime:per_thread_data.obj
 0002:0000b858       $unwind$_purecall          000000018002e858     libvcruntime:purevirt.obj
 0002:0000b858       $unwind$?FrameUnwindToEmptyState@__FrameHandler4@@SAXPEA_KPEAU_xDISPATCHER_CONTEXT@@PEAUFuncInfo4@FH4@@@Z 000000018002e858     libvcruntime:risctrnsctrl.obj
 0002:0000b858       $unwind$_GetImageBase      000000018002e858     libvcruntime:risctrnsctrl.obj
 0002:0000b858       $unwind$_GetThrowImageBase 000000018002e858     libvcruntime:risctrnsctrl.obj
 0002:0000b858       $unwind$__dcrt_terminate_console_output 000000018002e858     libucrt:initcon.obj
 0002:0000b858       $unwind$??$uninitialize_environment_internal@D@@YAXAEAPEAPEAD@Z 000000018002e858     libucrt:environment_initialization.obj
 0002:0000b858       $unwind$??$uninitialize_environment_internal@_W@@YAXAEAPEAPEA_W@Z 000000018002e858     libucrt:environment_initialization.obj
 0002:0000b858       $unwind$__dcrt_uninitialize_environments_nolock 000000018002e858     libucrt:environment_initialization.obj
 0002:0000b858       $unwind$__acrt_initialize_heap 000000018002e858     libucrt:heap_handle.obj
 0002:0000b858       $unwind$_msize_base        000000018002e858     libucrt:msize.obj
 0002:0000b858       $unwind$?initialize_multibyte@@YAHXZ 000000018002e858     libucrt:multibyte_initializer.obj
 0002:0000b858       $unwind$__acrt_thread_attach 000000018002e858     libucrt:initialization.obj
 0002:0000b858       $unwind$__acrt_thread_detach 000000018002e858     libucrt:initialization.obj
 0002:0000b858       $unwind$__acrt_uninitialize 000000018002e858     libucrt:initialization.obj
 0002:0000b858       $unwind$__acrt_uninitialize_critical 000000018002e858     libucrt:initialization.obj
 0002:0000b858       $unwind$initialize_c       000000018002e858     libucrt:initialization.obj
 0002:0000b858       $unwind$uninitialize_allocated_io_buffers 000000018002e858     libucrt:initialization.obj
 0002:0000b858       $unwind$uninitialize_environment 000000018002e858     libucrt:initialization.obj
 0002:0000b858       $unwind$__acrt_initialize_ptd 000000018002e858     libucrt:per_thread_data.obj
 0002:0000b858       $unwind$__acrt_uninitialize_ptd 000000018002e858     libucrt:per_thread_data.obj
 0002:0000b858       $unwind$__acrt_AreFileApisANSI 000000018002e858     libucrt:winapi_thunks.obj
 0002:0000b858       $unwind$__pctype_func      000000018002e858     libucrt:ctype.obj
 0002:0000b858       $unwind$__acrt_release_locale_ref 000000018002e858     libucrt:locale_refcounting.obj
 0002:0000b858       $unwind$_isatty            000000018002e858     libucrt:isatty.obj
 0002:0000b858       $unwind$_get_osfhandle     000000018002e858     libucrt:osfinfo.obj
 0002:0000b858       $unwind$__acrt_initialize_multibyte 000000018002e858     libucrt:mbctype.obj
 0002:0000b858       $unwind$__acrt_update_thread_multibyte_data 000000018002e858     libucrt:mbctype.obj
 0002:0000b858       $unwind$__doserrno         000000018002e858     libucrt:errno.obj
 0002:0000b858       $unwind$_errno             000000018002e858     libucrt:errno.obj
 0002:0000b858       $unwind$_invoke_watson     000000018002e858     libucrt:invalid_parameter.obj
 0002:0000b858       $unwind$abort              000000018002e858     libucrt:abort.obj
 0002:0000b858       $unwind$__acrt_initialize_command_line 000000018002e858     libucrt:argv_data.obj
 0002:0000b858       $unwind$_fileno            000000018002e858     libucrt:fileno.obj
 0002:0000b858       $unwind$?state_case_size@?$output_processor@_WV?$string_output_adapter@_W@__crt_stdio_output@@V?$format_validation_base@_WV?$string_output_adapter@_W@__crt_stdio_output@@@2@@__crt_stdio_output@@AEAA_NXZ 000000018002e858     libucrt:output.obj
 0002:0000b858       $unwind$_statfp            000000018002e858     libucrt:fpctrl.obj
 0002:0000b858       $unwind$fegetround         000000018002e858     libucrt:fegetround.obj
 0002:0000b858       $unwind$_set_errno_from_matherr 000000018002e858     libucrt:fpexcept.obj
 0002:0000b860       $unwind$?cw_dup@@YAXPEBDAEAHAEAPEA_W1@Z 000000018002e860     CWString.obj
 0002:0000b860       $unwind$?DAdvise@?$IDataObjectImpl@VCOPOSPINPad@@@ATL@@UEAAJPEAUtagFORMATETC@@KPEAUIAdviseSink@@PEAK@Z 000000018002e860     PINPad.obj
 0002:0000b860       $unwind$??$__acrt_mbs_to_wcs_cp@U__crt_win32_buffer_internal_dynamic_resizing@@@@YAHQEBDAEAV?$__crt_win32_buffer@_WU__crt_win32_buffer_internal_dynamic_resizing@@@@I@Z 000000018002e860     libucrt:argv_wildcards.obj
 0002:0000b878       $unwind$?DupWide@_CW@@AEAAXXZ 000000018002e878     CWString.obj
 0002:0000b878       $unwind$??0CAtlComModule@ATL@@QEAA@XZ 000000018002e878     OposVariant.obj
 0002:0000b878       $unwind$??0CAtlWinModule@ATL@@QEAA@XZ 000000018002e878     OposVariant.obj
 0002:0000b878       $unwind$?SetBSTR_OutPtr@OposVariant@@QEAA_NPEAPEA_WAEAJ@Z 000000018002e878     OposVariant.obj
 0002:0000b878       $unwind$??0?$CComObject@VCOPOSPINPad@@@ATL@@QEAA@PEAX@Z 000000018002e878     PINPad.obj
 0002:0000b878       $unwind$??0CAtlModule@ATL@@QEAA@XZ 000000018002e878     PINPad.obj
 0002:0000b878       $unwind$??1?$CComObject@VCOPOSPINPad@@@ATL@@UEAA@XZ 000000018002e878     PINPad.obj
 0002:0000b878       $unwind$??__E_Module@@YAXXZ 000000018002e878     PINPad.obj
 0002:0000b878       $unwind$?AddRef@?$CComObjectCached@VCComClassFactory@ATL@@@ATL@@UEAAKXZ 000000018002e878     PINPad.obj
 0002:0000b878       $unwind$?AllocateHeap@?$CTempBuffer@E$0BAA@VCCRTAllocator@ATL@@@ATL@@AEAAX_K@Z 000000018002e878     PINPad.obj
 0002:0000b878       $unwind$?AllocateHeap@?$CTempBuffer@_W$0BAA@VCCRTAllocator@ATL@@@ATL@@AEAAX_K@Z 000000018002e878     PINPad.obj
 0002:0000b878       $unwind$?AllocateHeap@?$CTempBuffer@_W$0EAA@VCCRTAllocator@ATL@@@ATL@@AEAAX_K@Z 000000018002e878     PINPad.obj
 0002:0000b878       $unwind$?GetClassInfoW@?$IProvideClassInfo2Impl@$1?CLSID_OPOSPINPad@@3U_GUID@@B$1?DIID__IOPOSPINPadEvents@@3U2@B$1?LIBID_OposPINPad_CCO@@3U2@B$00$0A@VCComTypeInfoHolder@ATL@@@ATL@@UEAAJPEAPEAUITypeInfo@@@Z 000000018002e878     PINPad.obj
 0002:0000b878       $unwind$?GetClientSite@?$IOleObjectImpl@VCOPOSPINPad@@@ATL@@UEAAJPEAPEAUIOleClientSite@@@Z 000000018002e878     PINPad.obj
 0002:0000b878       $unwind$?GetConnMap@COPOSPINPad@@SAPEBU_ATL_CONNMAP_ENTRY@ATL@@PEAH@Z 000000018002e878     PINPad.obj
 0002:0000b878       $unwind$?GetTypeInfo@?$IDispatchImpl@UIOPOSPINPad@@$1?IID_IOPOSPINPad@@3U_GUID@@B$1?LIBID_OposPINPad_CCO@@3U3@B$00$0A@VCComTypeInfoHolder@ATL@@@ATL@@UEAAJIKPEAPEAUITypeInfo@@@Z 000000018002e878     PINPad.obj
 0002:0000b878       $unwind$?IOleInPlaceObject_InPlaceDeactivate@CComControlBase@ATL@@QEAAJXZ 000000018002e878     PINPad.obj
 0002:0000b878       $unwind$?IOleObject_SetExtent@CComControlBase@ATL@@QEAAJKPEAUtagSIZE@@@Z 000000018002e878     PINPad.obj
 0002:0000b878       $unwind$?IsEqualObject@?$CComPtrBase@UIOleClientSite@@@ATL@@QEAA_NPEAUIUnknown@@@Z 000000018002e878     PINPad.obj
 0002:0000b878       $unwind$?QueryHitPoint@?$IViewObjectExImpl@VCOPOSPINPad@@@ATL@@UEAAJKPEBUtagRECT@@UtagPOINT@@JPEAK@Z 000000018002e878     PINPad.obj
 0002:0000b878       $unwind$?QueryInterface@?$CComAggObject@VCOPOSPINPad@@@ATL@@UEAAJAEBU_GUID@@PEAPEAX@Z 000000018002e878     PINPad.obj
 0002:0000b878       $unwind$?Release@?$CComObjectCached@VCComClassFactory@ATL@@@ATL@@UEAAKXZ 000000018002e878     PINPad.obj
 0002:0000b878       $unwind$?Unadvise@?$IConnectionPointImpl@VCOPOSPINPad@@$1?DIID__IOPOSPINPadEvents@@3U_GUID@@BVCComDynamicUnkArray@ATL@@@ATL@@UEAAJK@Z 000000018002e878     PINPad.obj
 0002:0000b878       $unwind$?Unadvise@?$IConnectionPointImpl@VCOPOSPINPad@@$1?IID_IPropertyNotifySink@@3U_GUID@@BVCComDynamicUnkArray@ATL@@@ATL@@UEAAJK@Z 000000018002e878     PINPad.obj
 0002:0000b878       $unwind$??1CComControlBase@ATL@@UEAA@XZ 000000018002e878     PINPadImpl.obj
 0002:0000b878       $unwind$??1COPOSPINPad@@UEAA@XZ 000000018002e878     PINPadImpl.obj
 0002:0000b878       $unwind$?EventUninit@COPOSPINPad@@IEAAXXZ 000000018002e878     PINPadImpl.obj
 0002:0000b878       $unwind$?FreezeEvents@COPOSPINPad@@MEAAJH@Z 000000018002e878     PINPadImpl.obj
 0002:0000b878       $unwind$?SOProcessID@COPOSPINPad@@UEAAJPEAJ@Z 000000018002e878     PINPadImpl.obj
 0002:0000b878       $unwind$?get_CapCompareFirmwareVersion@COPOSPINPad@@UEAAJPEAF@Z 000000018002e878     PINPadImpl.obj
 0002:0000b878       $unwind$?get_CapKeyboard@COPOSPINPad@@UEAAJPEAF@Z 000000018002e878     PINPadImpl.obj
 0002:0000b878       $unwind$?get_CapMACCalculation@COPOSPINPad@@UEAAJPEAF@Z 000000018002e878     PINPadImpl.obj
 0002:0000b878       $unwind$?get_CapStatisticsReporting@COPOSPINPad@@UEAAJPEAF@Z 000000018002e878     PINPadImpl.obj
 0002:0000b878       $unwind$?get_CapTone@COPOSPINPad@@UEAAJPEAF@Z 000000018002e878     PINPadImpl.obj
 0002:0000b878       $unwind$?get_CapUpdateFirmware@COPOSPINPad@@UEAAJPEAF@Z 000000018002e878     PINPadImpl.obj
 0002:0000b878       $unwind$?get_CapUpdateStatistics@COPOSPINPad@@UEAAJPEAF@Z 000000018002e878     PINPadImpl.obj
 0002:0000b878       $unwind$?get_Claimed@COPOSPINPad@@UEAAJPEAF@Z 000000018002e878     PINPadImpl.obj
 0002:0000b878       $unwind$?get_DataEventEnabled@COPOSPINPad@@UEAAJPEAF@Z 000000018002e878     PINPadImpl.obj
 0002:0000b878       $unwind$?get_DeviceEnabled@COPOSPINPad@@UEAAJPEAF@Z 000000018002e878     PINPadImpl.obj
 0002:0000b878       $unwind$?get_FreezeEvents@COPOSPINPad@@UEAAJPEAF@Z 000000018002e878     PINPadImpl.obj
 0002:0000b878       $unwind$?get_PINEntryEnabled@COPOSPINPad@@UEAAJPEAF@Z 000000018002e878     PINPadImpl.obj
 0002:0000b878       $unwind$?put_FreezeEvents@COPOSPINPad@@UEAAJF@Z 000000018002e878     PINPadImpl.obj
 0002:0000b878       $unwind$??1CAtlBaseModule@ATL@@QEAA@XZ 000000018002e878     atls:atlbase.obj
 0002:0000b878       $unwind$AtlThunk_AllocateData 000000018002e878     atls:atlthunk.obj
 0002:0000b878       $unwind$__raise_securityfailure 000000018002e878     LIBCMT:gs_report.obj
 0002:0000b878       $unwind$??2@YAPEAX_K@Z     000000018002e878     LIBCMT:new_scalar.obj
 0002:0000b878       $unwind$??_Gtype_info@@UEAAPEAXI@Z 000000018002e878     LIBCMT:std_type_info_static.obj
 0002:0000b878       $unwind$_Init_thread_footer 000000018002e878     LIBCMT:thread_safe_statics.obj
 0002:0000b878       $unwind$_Init_thread_header 000000018002e878     LIBCMT:thread_safe_statics.obj
 0002:0000b878       $unwind$_Init_thread_wait  000000018002e878     LIBCMT:thread_safe_statics.obj
 0002:0000b878       $unwind$??0bad_alloc@std@@QEAA@AEBV01@@Z 000000018002e878     LIBCMT:throw_bad_alloc.obj
 0002:0000b878       $unwind$??0bad_array_new_length@std@@QEAA@AEBV01@@Z 000000018002e878     LIBCMT:throw_bad_alloc.obj
 0002:0000b878       $unwind$??0exception@std@@QEAA@AEBV01@@Z 000000018002e878     LIBCMT:throw_bad_alloc.obj
 0002:0000b878       $unwind$__scrt_initialize_crt 000000018002e878     LIBCMT:utility.obj
 0002:0000b878       $unwind$__scrt_initialize_onexit_tables 000000018002e878     LIBCMT:utility.obj
 0002:0000b878       $unwind$__scrt_release_startup_lock 000000018002e878     LIBCMT:utility.obj
 0002:0000b878       $unwind$__scrt_uninitialize_crt 000000018002e878     LIBCMT:utility.obj
 0002:0000b878       $unwind$_onexit            000000018002e878     LIBCMT:utility.obj
 0002:0000b878       $unwind$_IsExceptionObjectToBeDestroyed 000000018002e878     libvcruntime:ehhelpers.obj
 0002:0000b878       $unwind$??0HandlerMap4@FH4@@QEAA@PEBUTryBlockMapEntry4@1@_KH@Z 000000018002e878     libvcruntime:frame.obj
 0002:0000b878       $unwind$??0bad_exception@std@@QEAA@AEBV01@@Z 000000018002e878     libvcruntime:frame.obj
 0002:0000b878       $unwind$?ExFilterRethrow@@YAHPEAU_EXCEPTION_POINTERS@@PEAUEHExceptionRecord@@PEAH@Z 000000018002e878     libvcruntime:frame.obj
 0002:0000b878       $unwind$__vcrt_uninitialize_locks 000000018002e878     libvcruntime:locks.obj
 0002:0000b878       $unwind$__vcrt_freeptd     000000018002e878     libvcruntime:per_thread_data.obj
 0002:0000b878       $unwind$_CreateFrameInfo   000000018002e878     libvcruntime:risctrnsctrl.obj
 0002:0000b878       $unwind$_SetImageBase      000000018002e878     libvcruntime:risctrnsctrl.obj
 0002:0000b878       $unwind$_SetThrowImageBase 000000018002e878     libvcruntime:risctrnsctrl.obj
 0002:0000b878       $unwind$__std_exception_destroy 000000018002e878     libvcruntime:std_exception.obj
 0002:0000b878       $unwind$__std_type_info_destroy_list 000000018002e878     libvcruntime:std_type_info.obj
 0002:0000b878       $unwind$__vcrt_FlsAlloc    000000018002e878     libvcruntime:winapi_downlevel.obj
 0002:0000b878       $unwind$__vcrt_FlsFree     000000018002e878     libvcruntime:winapi_downlevel.obj
 0002:0000b878       $unwind$__vcrt_FlsGetValue 000000018002e878     libvcruntime:winapi_downlevel.obj
 0002:0000b878       $unwind$_calloc_base       000000018002e878     libucrt:calloc_base.obj
 0002:0000b878       $unwind$_malloc_base       000000018002e878     libucrt:malloc_base.obj
 0002:0000b878       $unwind$_callnewh          000000018002e878     libucrt:new_handler.obj
 0002:0000b878       $unwind$initialize_pointers 000000018002e878     libucrt:initialization.obj
 0002:0000b878       $unwind$uninitialize_allocated_memory 000000018002e878     libucrt:initialization.obj
 0002:0000b878       $unwind$__acrt_initialize_locks 000000018002e878     libucrt:locks.obj
 0002:0000b878       $unwind$__acrt_uninitialize_locks 000000018002e878     libucrt:locks.obj
 0002:0000b878       $unwind$__acrt_freeptd     000000018002e878     libucrt:per_thread_data.obj
 0002:0000b878       $unwind$__acrt_getptd_head 000000018002e878     libucrt:per_thread_data.obj
 0002:0000b878       $unwind$__acrt_get_process_end_policy 000000018002e878     libucrt:win_policies.obj
 0002:0000b878       $unwind$__acrt_AppPolicyGetProcessTerminationMethodInternal 000000018002e878     libucrt:winapi_thunks.obj
 0002:0000b878       $unwind$__acrt_FlsAlloc    000000018002e878     libucrt:winapi_thunks.obj
 0002:0000b878       $unwind$__acrt_FlsFree     000000018002e878     libucrt:winapi_thunks.obj
 0002:0000b878       $unwind$__acrt_FlsGetValue 000000018002e878     libucrt:winapi_thunks.obj
 0002:0000b878       $unwind$__acrt_SetThreadStackGuarantee 000000018002e878     libucrt:winapi_thunks.obj
 0002:0000b878       $unwind$__acrt_uninitialize_winapi_thunks 000000018002e878     libucrt:winapi_thunks.obj
 0002:0000b878       $unwind$__acrt_update_locale_info 000000018002e878     libucrt:locale_update.obj
 0002:0000b878       $unwind$__acrt_update_multibyte_info 000000018002e878     libucrt:locale_update.obj
 0002:0000b878       $unwind$__acrt_allocate_buffer_for_argv 000000018002e878     libucrt:argv_parsing.obj
 0002:0000b878       $unwind$?exit_or_terminate_process@@YAXI@Z 000000018002e878     libucrt:exit.obj
 0002:0000b878       $unwind$?try_cor_exit_process@@YAXI@Z 000000018002e878     libucrt:exit.obj
 0002:0000b878       $unwind$__acrt_uninitialize_stdio 000000018002e878     libucrt:_file.obj
 0002:0000b878       $unwind$__acrt_stdio_free_buffer_nolock 000000018002e878     libucrt:_freebuf.obj
 0002:0000b878       $unwind$_fflush_nolock     000000018002e878     libucrt:fflush.obj
 0002:0000b878       $unwind$strcpy_s           000000018002e878     libucrt:strcpy_s.obj
 0002:0000b878       $unwind$wcscat_s           000000018002e878     libucrt:wcscat_s.obj
 0002:0000b878       $unwind$wcscpy_s           000000018002e878     libucrt:wcscpy_s.obj
 0002:0000b878       $unwind$_clrfp             000000018002e878     libucrt:fpctrl.obj
 0002:0000b878       $unwind$_set_statfp        000000018002e878     libucrt:fpctrl.obj
 0002:0000b878       $unwind$_clearfp           000000018002e878     libucrt:ieee.obj
 0002:0000b878       $unwind$_controlfp_s       000000018002e878     libucrt:contrlfp.obj
 0002:0000b878       $unwind$fegetenv           000000018002e878     libucrt:fegetenv.obj
 0002:0000b878       $unwind$feholdexcept       000000018002e878     libucrt:feholdexcept.obj
 0002:0000b878       $unwind$fesetenv           000000018002e878     libucrt:fesetenv.obj
 0002:0000b880       $unwind$?AtlWinModuleTerm@ATL@@YAJPEAU_ATL_WIN_MODULE70@1@PEAUHINSTANCE__@@@Z 000000018002e880     OposVariant.obj
 0002:0000b880       $unwind$?AtlWinModuleExtractCreateWndData@ATL@@YAPEAXPEAU_ATL_WIN_MODULE70@1@@Z 000000018002e880     PINPad.obj
 0002:0000b880       $unwind$?CreateInstance@?$CComCreator@V?$CComObject@VCOPOSPINPad@@@ATL@@@ATL@@SAJPEAXAEBU_GUID@@PEAPEAX@Z 000000018002e880     PINPad.obj
 0002:0000b880       $unwind$?DoEvent@COPOSPINPad@@IEAAXI_K_J@Z 000000018002e880     PINPad.obj
 0002:0000b880       $unwind$?DoVerb@?$IOleObjectImpl@VCOPOSPINPad@@@ATL@@UEAAJJPEAUtagMSG@@PEAUIOleClientSite@@JPEAUHWND__@@PEBUtagRECT@@@Z 000000018002e880     PINPad.obj
 0002:0000b880       $unwind$?HKeyFromString@CRegParser@ATL@@KAPEAUHKEY__@@PEA_W@Z 000000018002e880     PINPad.obj
 0002:0000b880       $unwind$?Next@?$CComEnumImpl@UIEnumConnectionPoints@@$1?_GUID_b196b285_bab4_101a_b69c_00aa00341d07@@3U__s_GUID@@BPEAUIConnectionPoint@@V?$_CopyInterface@UIConnectionPoint@@@ATL@@@ATL@@UEAAJKPEAPEAUIConnectionPoint@@PEAK@Z 000000018002e880     PINPad.obj
 0002:0000b880       $unwind$?Next@?$CComEnumImpl@UIEnumConnections@@$1?_GUID_b196b287_bab4_101a_b69c_00aa00341d07@@3U__s_GUID@@BUtagCONNECTDATA@@V?$_Copy@UtagCONNECTDATA@@@ATL@@@ATL@@UEAAJKPEAUtagCONNECTDATA@@PEAK@Z 000000018002e880     PINPad.obj
 0002:0000b880       $unwind$?SODirectIO@COPOSPINPad@@MEAAJJPEAJPEAPEA_W@Z 000000018002e880     PINPad.obj
 0002:0000b880       $unwind$?SetControlFocus@CComControlBase@ATL@@QEAAHH@Z 000000018002e880     PINPad.obj
 0002:0000b880       $unwind$?ocscpy_s@@YA_NPEA_W_KPEB_W@Z 000000018002e880     PINPad.obj
 0002:0000b880       $unwind$?s_EventWindowProc@COPOSPINPad@@KA_JPEAUHWND__@@I_K_J@Z 000000018002e880     PINPadImpl.obj
 0002:0000b880       $unwind$__scrt_dllmain_exception_filter 000000018002e880     LIBCMT:utility.obj
 0002:0000b880       $unwind$?Is_bad_exception_allowed@@YAEPEBU_s_ESTypeList@@@Z 000000018002e880     libvcruntime:frame.obj
 0002:0000b880       $unwind$_recalloc_base     000000018002e880     libucrt:recalloc.obj
 0002:0000b880       $unwind$__acrt_free_locale 000000018002e880     libucrt:locale_refcounting.obj
 0002:0000b880       $unwind$__acrt_lowio_create_handle_array 000000018002e880     libucrt:osfinfo.obj
 0002:0000b880       $unwind$?setSBCS@@YAXPEAU__crt_multibyte_data@@@Z 000000018002e880     libucrt:mbctype.obj
 0002:0000b880       $unwind$_seh_filter_exe    000000018002e880     libucrt:exception_filter.obj
 0002:0000b880       $unwind$_initterm          000000018002e880     libucrt:initterm.obj
 0002:0000b880       $unwind$??$ensure_buffer_is_big_enough@D@formatting_buffer@__crt_stdio_output@@QEAA_N_K@Z 000000018002e880     libucrt:output.obj
 0002:0000b880       $unwind$??$ensure_buffer_is_big_enough@_W@formatting_buffer@__crt_stdio_output@@QEAA_N_K@Z 000000018002e880     libucrt:output.obj
 0002:0000b894       $unwind$??0OposDispParms@@QEAA@PEAVOposVariant@@H@Z 000000018002e894     OposVariant.obj
 0002:0000b894       $unwind$?SetBSTR_Copy@OposVariant@@QEAAXPEA_WAEAJ@Z 000000018002e894     OposVariant.obj
 0002:0000b894       $unwind$?SetBSTR_InOutPtr@OposVariant@@QEAA_NPEAPEA_WAEAJ@Z 000000018002e894     OposVariant.obj
 0002:0000b894       $unwind$?SetDispatch_Ptr@OposVariant@@QEAAXPEAUIDispatch@@AEAJ@Z 000000018002e894     OposVariant.obj
 0002:0000b894       $unwind$?SetLONG_Ptr@OposVariant@@QEAAXPEAJAEAJ@Z 000000018002e894     OposVariant.obj
 0002:0000b894       $unwind$?SetString@OposVariant@@QEAAXPEB_WAEAJ@Z 000000018002e894     OposVariant.obj
 0002:0000b894       $unwind$?Term@CAtlComModule@ATL@@QEAAXXZ 000000018002e894     OposVariant.obj
 0002:0000b894       $unwind$??_GCRegObject@ATL@@UEAAPEAXI@Z 000000018002e894     PINPad.obj
 0002:0000b894       $unwind$?Add@?$CSimpleArray@GV?$CSimpleArrayEqualHelper@G@ATL@@@ATL@@QEAAHAEBG@Z 000000018002e894     PINPad.obj
 0002:0000b894       $unwind$?Add@?$CSimpleMap@PEA_WPEA_WVCExpansionVectorEqualHelper@ATL@@@ATL@@QEAAHAEBQEA_W0@Z 000000018002e894     PINPad.obj
 0002:0000b894       $unwind$?Add@CComDynamicUnkArray@ATL@@QEAAKPEAUIUnknown@@@Z 000000018002e894     PINPad.obj
 0002:0000b894       $unwind$?Advise@?$IOleObjectImpl@VCOPOSPINPad@@@ATL@@UEAAJPEAUIAdviseSink@@PEAK@Z 000000018002e894     PINPad.obj
 0002:0000b894       $unwind$?ClearReplacements@CExpansionVector@ATL@@QEAAJXZ 000000018002e894     PINPad.obj
 0002:0000b894       $unwind$?CreateInstance@?$CComObject@V?$CComEnum@UIEnumConnectionPoints@@$1?_GUID_b196b285_bab4_101a_b69c_00aa00341d07@@3U__s_GUID@@BPEAUIConnectionPoint@@V?$_CopyInterface@UIConnectionPoint@@@ATL@@VCComSingleThreadModel@6@@ATL@@@ATL@@SAJPEAPEAV12@@Z 000000018002e894     PINPad.obj
 0002:0000b894       $unwind$?CreateInstance@?$CComObject@V?$CComEnum@UIEnumConnections@@$1?_GUID_b196b287_bab4_101a_b69c_00aa00341d07@@3U__s_GUID@@BUtagCONNECTDATA@@V?$_Copy@UtagCONNECTDATA@@@ATL@@VCComSingleThreadModel@6@@ATL@@@ATL@@SAJPEAPEAV12@@Z 000000018002e894     PINPad.obj
 0002:0000b894       $unwind$?RegisterServer@CComModule@ATL@@QEAAJHPEBU_GUID@@@Z 000000018002e894     PINPad.obj
 0002:0000b894       $unwind$?Term@CAtlModule@ATL@@QEAAXXZ 000000018002e894     PINPad.obj
 0002:0000b894       $unwind$?UnregisterServer@CComModule@ATL@@QEAAJHPEBU_GUID@@@Z 000000018002e894     PINPad.obj
 0002:0000b894       $unwind$?VTFromRegType@CRegParser@ATL@@KAHPEB_WAEAG@Z 000000018002e894     PINPad.obj
 0002:0000b894       $unwind$_DllMainCRTStartup 000000018002e894     LIBCMT:dll_dllmain.obj
 0002:0000b894       $unwind$__vcrt_getptd_noexit 000000018002e894     libvcruntime:per_thread_data.obj
 0002:0000b894       $unwind$__vcrt_InitializeCriticalSectionEx 000000018002e894     libvcruntime:winapi_downlevel.obj
 0002:0000b894       $unwind$memcpy_s           000000018002e894     libucrt:cfout.obj
 0002:0000b894       $unwind$__acrt_getptd      000000018002e894     libucrt:per_thread_data.obj
 0002:0000b894       $unwind$__acrt_getptd_noexit 000000018002e894     libucrt:per_thread_data.obj
 0002:0000b894       $unwind$__acrt_execute_initializers 000000018002e894     libucrt:shared_initialization.obj
 0002:0000b894       $unwind$__acrt_InitializeCriticalSectionEx 000000018002e894     libucrt:winapi_thunks.obj
 0002:0000b894       $unwind$?free_crt_array_internal@@YAXQEAPEBX_K@Z 000000018002e894     libucrt:inittime.obj
 0002:0000b894       $unwind$??$common_lseek_nolock@_J@@YA_JH_JH@Z 000000018002e894     libucrt:lseek.obj
 0002:0000b894       $unwind$__acrt_stdio_flush_nolock 000000018002e894     libucrt:fflush.obj
 0002:0000b894       $unwind$??0_LocaleUpdate@@QEAA@QEAU__crt_locale_pointers@@@Z 000000018002e894     libucrt:output.obj
 0002:0000b894       $unwind$?type_case_Z@?$output_processor@_WV?$string_output_adapter@_W@__crt_stdio_output@@V?$format_validation_base@_WV?$string_output_adapter@_W@__crt_stdio_output@@@2@@__crt_stdio_output@@AEAA_NXZ 000000018002e894     libucrt:output.obj
 0002:0000b894       $unwind$?type_case_s@?$output_processor@_WV?$string_output_adapter@_W@__crt_stdio_output@@V?$format_validation_base@_WV?$string_output_adapter@_W@__crt_stdio_output@@@2@@__crt_stdio_output@@AEAA_NXZ 000000018002e894     libucrt:output.obj
 0002:0000b894       $unwind$_exception_enabled 000000018002e894     libucrt:libm_error.obj
 0002:0000b8a4       $unwind$??_Estringdispid@CComTypeInfoHolder@ATL@@QEAAPEAXI@Z 000000018002e8a4     OposVariant.obj
 0002:0000b8a4       $unwind$?AddTermFunc@CAtlModule@ATL@@QEAAJP6AX_K@Z0@Z 000000018002e8a4     PINPad.obj
 0002:0000b8a4       $unwind$?AtlComModuleRegisterServer@ATL@@YAJPEAU_ATL_COM_MODULE70@1@HPEBU_GUID@@@Z 000000018002e8a4     PINPad.obj
 0002:0000b8a4       $unwind$?AtlComModuleUnregisterServer@ATL@@YAJPEAU_ATL_COM_MODULE70@1@HPEBU_GUID@@@Z 000000018002e8a4     PINPad.obj
 0002:0000b8a4       $unwind$?CreateInstance@?$CComCreator@V?$CComAggObject@VCOPOSPINPad@@@ATL@@@ATL@@SAJPEAXAEBU_GUID@@PEAPEAX@Z 000000018002e8a4     PINPad.obj
 0002:0000b8a4       $unwind$?CreateInstance@?$CComCreator@V?$CComObjectCached@VCComClassFactory@ATL@@@ATL@@@ATL@@SAJPEAXAEBU_GUID@@PEAPEAX@Z 000000018002e8a4     PINPad.obj
 0002:0000b8a4       $unwind$?GetPagesHelper@?$ISpecifyPropertyPagesImpl@VCOPOSPINPad@@@ATL@@IEAAJPEAUtagCAUUID@@PEBUATL_PROPMAP_ENTRY@2@@Z 000000018002e8a4     PINPad.obj
 0002:0000b8a4       $unwind$__GSHandlerCheck_SEH 000000018002e8a4     LIBCMT:gshandlerseh.obj
 0002:0000b8a4       $unwind$??$TypeMatchHelper@V__FrameHandler3@@@@YAHPEBU_s_HandlerType@@PEBU_s_CatchableType@@PEBU_s_ThrowInfo@@@Z 000000018002e8a4     libvcruntime:frame.obj
 0002:0000b8a4       $unwind$??$TypeMatchHelper@V__FrameHandler4@@@@YAHPEAUHandlerType4@FH4@@PEBU_s_CatchableType@@PEBU_s_ThrowInfo@@@Z 000000018002e8a4     libvcruntime:frame.obj
 0002:0000b8a4       $unwind$?initialize_stdio_handles_nolock@@YAXXZ 000000018002e8a4     libucrt:ioinit.obj
 0002:0000b8a4       $unwind$__acrt_initialize_stdio 000000018002e8a4     libucrt:_file.obj
 0002:0000b8a4       $unwind$?process@?$output_processor@_WV?$string_output_adapter@_W@__crt_stdio_output@@V?$format_validation_base@_WV?$string_output_adapter@_W@__crt_stdio_output@@@2@@__crt_stdio_output@@QEAAHXZ 000000018002e8a4     libucrt:output.obj
 0002:0000b8a4       $unwind$?type_case_integer@?$output_processor@_WV?$string_output_adapter@_W@__crt_stdio_output@@V?$format_validation_base@_WV?$string_output_adapter@_W@__crt_stdio_output@@@2@@__crt_stdio_output@@AEAA_NI_N@Z 000000018002e8a4     libucrt:output.obj
 0002:0000b8bc       $unwind$?SetBSTR@OposVariant@@QEAAXPEA_WAEAJ@Z 000000018002e8bc     OposVariant.obj
 0002:0000b8bc       $unwind$?SetCURRENCY@OposVariant@@QEAAXTtagCY@@@Z 000000018002e8bc     OposVariant.obj
 0002:0000b8bc       $unwind$?SetLONG@OposVariant@@QEAAXJ@Z 000000018002e8bc     OposVariant.obj
 0002:0000b8bc       $unwind$?SetVARIANT_BOOL@OposVariant@@QEAAXF@Z 000000018002e8bc     OposVariant.obj
 0002:0000b8bc       $unwind$??0?$CComContainedObject@VCOPOSPINPad@@@ATL@@QEAA@PEAX@Z 000000018002e8bc     PINPad.obj
 0002:0000b8bc       $unwind$??1?$CComEnumImpl@UIEnumConnectionPoints@@$1?_GUID_b196b285_bab4_101a_b69c_00aa00341d07@@3U__s_GUID@@BPEAUIConnectionPoint@@V?$_CopyInterface@UIConnectionPoint@@@ATL@@@ATL@@UEAA@XZ 000000018002e8bc     PINPad.obj
 0002:0000b8bc       $unwind$??1?$CComEnumImpl@UIEnumConnections@@$1?_GUID_b196b287_bab4_101a_b69c_00aa00341d07@@3U__s_GUID@@BUtagCONNECTDATA@@V?$_Copy@UtagCONNECTDATA@@@ATL@@@ATL@@UEAA@XZ 000000018002e8bc     PINPad.obj
 0002:0000b8bc       $unwind$??_G?$CComAggObject@VCOPOSPINPad@@@ATL@@UEAAPEAXI@Z 000000018002e8bc     PINPad.obj
 0002:0000b8bc       $unwind$??_G?$CComContainedObject@VCOPOSPINPad@@@ATL@@UEAAPEAXI@Z 000000018002e8bc     PINPad.obj
 0002:0000b8bc       $unwind$??_G?$CComObject@V?$CComEnum@UIEnumConnectionPoints@@$1?_GUID_b196b285_bab4_101a_b69c_00aa00341d07@@3U__s_GUID@@BPEAUIConnectionPoint@@V?$_CopyInterface@UIConnectionPoint@@@ATL@@VCComSingleThreadModel@6@@ATL@@@ATL@@UEAAPEAXI@Z 000000018002e8bc     PINPad.obj
 0002:0000b8bc       $unwind$??_G?$CComObject@V?$CComEnum@UIEnumConnections@@$1?_GUID_b196b287_bab4_101a_b69c_00aa00341d07@@3U__s_GUID@@BUtagCONNECTDATA@@V?$_Copy@UtagCONNECTDATA@@@ATL@@VCComSingleThreadModel@6@@ATL@@@ATL@@UEAAPEAXI@Z 000000018002e8bc     PINPad.obj
 0002:0000b8bc       $unwind$??_G?$CComObject@VCOPOSPINPad@@@ATL@@UEAAPEAXI@Z 000000018002e8bc     PINPad.obj
 0002:0000b8bc       $unwind$??_G?$CComObjectCached@VCComClassFactory@ATL@@@ATL@@UEAAPEAXI@Z 000000018002e8bc     PINPad.obj
 0002:0000b8bc       $unwind$??_GCComClassFactory@ATL@@UEAAPEAXI@Z 000000018002e8bc     PINPad.obj
 0002:0000b8bc       $unwind$??_GCComModule@ATL@@UEAAPEAXI@Z 000000018002e8bc     PINPad.obj
 0002:0000b8bc       $unwind$?DeleteSubKey@CRegKey@ATL@@QEAAJPEB_W@Z 000000018002e8bc     PINPad.obj
 0002:0000b8bc       $unwind$?IOleObject_SetClientSite@CComControlBase@ATL@@QEAAJPEAUIOleClientSite@@@Z 000000018002e8bc     PINPad.obj
 0002:0000b8bc       $unwind$?InitNew@?$IPersistStorageImpl@VCOPOSPINPad@@@ATL@@UEAAJPEAUIStorage@@@Z 000000018002e8bc     PINPad.obj
 0002:0000b8bc       $unwind$?IsDirty@?$IPersistStorageImpl@VCOPOSPINPad@@@ATL@@UEAAJXZ 000000018002e8bc     PINPad.obj
 0002:0000b8bc       $unwind$?Release@?$CComAggObject@VCOPOSPINPad@@@ATL@@UEAAKXZ 000000018002e8bc     PINPad.obj
 0002:0000b8bc       $unwind$?Release@?$CComObject@V?$CComEnum@UIEnumConnectionPoints@@$1?_GUID_b196b285_bab4_101a_b69c_00aa00341d07@@3U__s_GUID@@BPEAUIConnectionPoint@@V?$_CopyInterface@UIConnectionPoint@@@ATL@@VCComSingleThreadModel@6@@ATL@@@ATL@@UEAAKXZ 000000018002e8bc     PINPad.obj
 0002:0000b8bc       $unwind$?Release@?$CComObject@V?$CComEnum@UIEnumConnections@@$1?_GUID_b196b287_bab4_101a_b69c_00aa00341d07@@3U__s_GUID@@BUtagCONNECTDATA@@V?$_Copy@UtagCONNECTDATA@@@ATL@@VCComSingleThreadModel@6@@ATL@@@ATL@@UEAAKXZ 000000018002e8bc     PINPad.obj
 0002:0000b8bc       $unwind$?Release@?$CComObject@VCOPOSPINPad@@@ATL@@UEAAKXZ 000000018002e8bc     PINPad.obj
 0002:0000b8bc       $unwind$?SOData@COPOSPINPad@@MEAAJJ@Z 000000018002e8bc     PINPad.obj
 0002:0000b8bc       $unwind$?SOStatusUpdate@COPOSPINPad@@MEAAJJ@Z 000000018002e8bc     PINPad.obj
 0002:0000b8bc       $unwind$?SetAdvise@?$IViewObjectExImpl@VCOPOSPINPad@@@ATL@@UEAAJKKPEAUIAdviseSink@@@Z 000000018002e8bc     PINPad.obj
 0002:0000b8bc       $unwind$?Term@CComModule@ATL@@QEAAXXZ 000000018002e8bc     PINPad.obj
 0002:0000b8bc       $unwind$DllMain            000000018002e8bc     PINPad.obj
 0002:0000b8bc       $unwind$??1?$IConnectionPointImpl@VCOPOSPINPad@@$1?DIID__IOPOSPINPadEvents@@3U_GUID@@BVCComDynamicUnkArray@ATL@@@ATL@@QEAA@XZ 000000018002e8bc     PINPadImpl.obj
 0002:0000b8bc       $unwind$??1?$IConnectionPointImpl@VCOPOSPINPad@@$1?IID_IPropertyNotifySink@@3U_GUID@@BVCComDynamicUnkArray@ATL@@@ATL@@QEAA@XZ 000000018002e8bc     PINPadImpl.obj
 0002:0000b8bc       $unwind$??0CAtlBaseModule@ATL@@QEAA@XZ 000000018002e8bc     atls:atlbase.obj
 0002:0000b8bc       $unwind$??$GetProcAddressAll@P6AP6A_JPEAUHWND__@@I_K_J@ZPEAUAtlThunkData_t@@@Z@@YAP6AP6A_JPEAUHWND__@@I_K_J@ZPEAUAtlThunkData_t@@@ZPEAP6AP6A_J0I12@Z3@Z@Z 000000018002e8bc     atls:atlthunk.obj
 0002:0000b8bc       $unwind$??$GetProcAddressAll@P6APEAUAtlThunkData_t@@XZ@@YAP6APEAUAtlThunkData_t@@XZPEAP6APEAU0@XZ@Z 000000018002e8bc     atls:atlthunk.obj
 0002:0000b8bc       $unwind$??$GetProcAddressAll@P6AXPEAUAtlThunkData_t@@@Z@@YAP6AXPEAUAtlThunkData_t@@@ZPEAP6AX0@Z@Z 000000018002e8bc     atls:atlthunk.obj
 0002:0000b8bc       $unwind$??$GetProcAddressAll@P6AXPEAUAtlThunkData_t@@PEAX_K@Z@@YAP6AXPEAUAtlThunkData_t@@PEAX_K@ZPEAP6AX012@Z@Z 000000018002e8bc     atls:atlthunk.obj
 0002:0000b8bc       $unwind$?__AllocStdCallThunk_cmn@@YAPEAXXZ 000000018002e8bc     atls:atlthunk.obj
 0002:0000b8bc       $unwind$?__InitializeThunkPool@@YAHXZ 000000018002e8bc     atls:atlthunk.obj
 0002:0000b8bc       $unwind$AtlThunk_DataToCode 000000018002e8bc     atls:atlthunk.obj
 0002:0000b8bc       $unwind$_RTC_Initialize    000000018002e8bc     LIBCMT:initsect.obj
 0002:0000b8bc       $unwind$_RTC_Terminate     000000018002e8bc     LIBCMT:initsect.obj
 0002:0000b8bc       $unwind$?__scrt_initialize_thread_safe_statics@@YAHXZ 000000018002e8bc     LIBCMT:thread_safe_statics.obj
 0002:0000b8bc       $unwind$??_Gbad_alloc@std@@UEAAPEAXI@Z 000000018002e8bc     LIBCMT:throw_bad_alloc.obj
 0002:0000b8bc       $unwind$??_Gbad_array_new_length@std@@UEAAPEAXI@Z 000000018002e8bc     LIBCMT:throw_bad_alloc.obj
 0002:0000b8bc       $unwind$??_Gexception@std@@UEAAPEAXI@Z 000000018002e8bc     LIBCMT:throw_bad_alloc.obj
 0002:0000b8bc       $unwind$__FrameUnwindFilter 000000018002e8bc     libvcruntime:ehhelpers.obj
 0002:0000b8bc       $unwind$??_Gbad_exception@std@@UEAAPEAXI@Z 000000018002e8bc     libvcruntime:frame.obj
 0002:0000b8bc       $unwind$?ExFilterRethrowFH4@@YAHPEAU_EXCEPTION_POINTERS@@PEAUEHExceptionRecord@@HPEAH@Z 000000018002e8bc     libvcruntime:frame.obj
 0002:0000b8bc       $unwind$_FindAndUnlinkFrame 000000018002e8bc     libvcruntime:risctrnsctrl.obj
 0002:0000b8bc       $unwind$__vcrt_FlsSetValue 000000018002e8bc     libvcruntime:winapi_downlevel.obj
 0002:0000b8bc       $unwind$??$common_initialize_environment_nolock@D@@YAHXZ 000000018002e8bc     libucrt:environment_initialization.obj
 0002:0000b8bc       $unwind$_realloc_base      000000018002e8bc     libucrt:realloc_base.obj
 0002:0000b8bc       $unwind$?replace_current_thread_locale_nolock@@YAXQEAU__acrt_ptd@@QEAU__crt_locale_data@@@Z 000000018002e8bc     libucrt:per_thread_data.obj
 0002:0000b8bc       $unwind$__acrt_execute_uninitializers 000000018002e8bc     libucrt:shared_initialization.obj
 0002:0000b8bc       $unwind$__acrt_FlsSetValue 000000018002e8bc     libucrt:winapi_thunks.obj
 0002:0000b8bc       $unwind$__acrt_LocaleNameToLCID 000000018002e8bc     libucrt:winapi_thunks.obj
 0002:0000b8bc       $unwind$_updatetlocinfoEx_nolock 000000018002e8bc     libucrt:locale_refcounting.obj
 0002:0000b8bc       $unwind$_close_nolock      000000018002e8bc     libucrt:close.obj
 0002:0000b8bc       $unwind$__acrt_uninitialize_lowio 000000018002e8bc     libucrt:ioinit.obj
 0002:0000b8bc       $unwind$__acrt_errno_map_os_error 000000018002e8bc     libucrt:errno.obj
 0002:0000b8bc       $unwind$_initterm_e        000000018002e8bc     libucrt:initterm.obj
 0002:0000b8bc       $unwind$_fclose_nolock     000000018002e8bc     libucrt:fclose.obj
 0002:0000b8bc       $unwind$?type_case_n@?$output_processor@_WV?$string_output_adapter@_W@__crt_stdio_output@@V?$format_validation_base@_WV?$string_output_adapter@_W@__crt_stdio_output@@@2@@__crt_stdio_output@@AEAA_NXZ 000000018002e8bc     libucrt:output.obj
 0002:0000b8bc       $unwind$strncpy_s          000000018002e8bc     libucrt:strncpy_s.obj
 0002:0000b8bc       $unwind$wcsncpy_s          000000018002e8bc     libucrt:wcsncpy_s.obj
 0002:0000b8c8       $unwind$?ChangeBSTR@OposVariant@@QEAAXPEAPEA_WAEAJ@Z 000000018002e8c8     OposVariant.obj
 0002:0000b8c8       $unwind$?ChangeCURRENCY@OposVariant@@QEAAXPEATtagCY@@AEAJ@Z 000000018002e8c8     OposVariant.obj
 0002:0000b8c8       $unwind$?ChangeLONG@OposVariant@@QEAAXPEAJAEAJ@Z 000000018002e8c8     OposVariant.obj
 0002:0000b8c8       $unwind$?x_ismbbtype_l@@YAHPEAU__crt_locale_pointers@@IHH@Z 000000018002e8c8     libucrt:ismbbyte.obj
 0002:0000b8d8       $unwind$swprintf_s         000000018002e8d8     PINPad.obj
 0002:0000b8e8       $unwind$?_AtlVerifyStackAvailable@_ATL_SAFE_ALLOCA_IMPL@ATL@@YA_N_K@Z 000000018002e8e8     PINPad.obj
 0002:0000b914       $unwind$?filt$0@?0??_AtlVerifyStackAvailable@_ATL_SAFE_ALLOCA_IMPL@ATL@@YA_N_K@Z@4HA 000000018002e914     PINPad.obj
 0002:0000b914       $unwind$?fin$0@?0??dllmain_crt_process_attach@@YAHQEAUHINSTANCE__@@QEAX@Z@4HA 000000018002e914     LIBCMT:dll_dllmain.obj
 0002:0000b914       $unwind$?fin$0@?0??dllmain_crt_process_detach@@YAH_N@Z@4HA 000000018002e914     LIBCMT:dll_dllmain.obj
 0002:0000b914       $unwind$?fin$1@?0??dllmain_crt_process_detach@@YAH_N@Z@4HA 000000018002e914     LIBCMT:dll_dllmain.obj
 0002:0000b914       $unwind$_IsNonwritableInCurrentImage$filt$0 000000018002e914     LIBCMT:pesect.obj
 0002:0000b914       $unwind$?filt$0@?0??CxxCallCatchBlock@__FrameHandler4@@SAPEAXPEAU_EXCEPTION_RECORD@@@Z@4HA 000000018002e914     libvcruntime:frame.obj
 0002:0000b914       $unwind$_query_new_handler$fin$0 000000018002e914     libucrt:new_handler.obj
 0002:0000b914       $unwind$?fin$0@?0???$?RV<lambda_0ae27a3a962d80f24befdcbee591983d>@@AEAV<lambda_8d0ee55de4b1038c4002e0adecdf1839>@@V<lambda_dc504788e8f1664fe9b84e20bfb512f2>@@@?$__crt_seh_guarded_call@X@@QEAAX$$QEAV<lambda_0ae27a3a962d80f24befdcbee591983d>@@AEAV<lambda_8d0ee55de4b1038c4002e0adecdf1839>@@$$QEAV<lambda_dc504788e8f1664fe9b84e20bfb512f2>@@@Z@4HA 000000018002e914     libucrt:per_thread_data.obj
 0002:0000b914       $unwind$?fin$0@?0???$?RV<lambda_2d41944a1d46af3157314b8a01080d33>@@AEAV<lambda_8f455de75cd7d7f24b4096f044d8b9e6>@@V<lambda_aa500f224e6afead328df44964fe2772>@@@?$__crt_seh_guarded_call@X@@QEAAX$$QEAV<lambda_2d41944a1d46af3157314b8a01080d33>@@AEAV<lambda_8f455de75cd7d7f24b4096f044d8b9e6>@@$$QEAV<lambda_aa500f224e6afead328df44964fe2772>@@@Z@4HA 000000018002e914     libucrt:per_thread_data.obj
 0002:0000b914       $unwind$?fin$0@?0???$?RV<lambda_aa87e3671a710a21b5dc78c0bdf72e11>@@AEAV<lambda_92619d2358a28f41a33ba319515a20b9>@@V<lambda_6992ecaafeb10aed2b74cb1fae11a551>@@@?$__crt_seh_guarded_call@X@@QEAAX$$QEAV<lambda_aa87e3671a710a21b5dc78c0bdf72e11>@@AEAV<lambda_92619d2358a28f41a33ba319515a20b9>@@$$QEAV<lambda_6992ecaafeb10aed2b74cb1fae11a551>@@@Z@4HA 000000018002e914     libucrt:per_thread_data.obj
 0002:0000b914       $unwind$?fin$0@?0???$?RV<lambda_f2e299630e499de9f9a165e60fcd3db5>@@AEAV<lambda_2ae9d31cdba2644fcbeaf08da7c24588>@@V<lambda_40d01ff24d0e7b3814fdbdcee8eab3c7>@@@?$__crt_seh_guarded_call@X@@QEAAX$$QEAV<lambda_f2e299630e499de9f9a165e60fcd3db5>@@AEAV<lambda_2ae9d31cdba2644fcbeaf08da7c24588>@@$$QEAV<lambda_40d01ff24d0e7b3814fdbdcee8eab3c7>@@@Z@4HA 000000018002e914     libucrt:per_thread_data.obj
 0002:0000b914       $unwind$__acrt_update_thread_locale_data$fin$0 000000018002e914     libucrt:locale_refcounting.obj
 0002:0000b914       $unwind$?fin$0@?0???$?RV<lambda_410d79af7f07d98d83a3f525b3859a53>@@AEAV<lambda_3e16ef9562a7dcce91392c22ab16ea36>@@V<lambda_38119f0e861e05405d8a144b9b982f0a>@@@?$__crt_seh_guarded_call@X@@QEAAX$$QEAV<lambda_410d79af7f07d98d83a3f525b3859a53>@@AEAV<lambda_3e16ef9562a7dcce91392c22ab16ea36>@@$$QEAV<lambda_38119f0e861e05405d8a144b9b982f0a>@@@Z@4HA 000000018002e914     libucrt:wsetlocale.obj
 0002:0000b914       $unwind$?fin$0@?0???$?RV<lambda_751a882b2c74d4b022dec766aa51a29a>@@AEAV<lambda_628dfdc04ba53c8bfc02c9951375f3f5>@@V<lambda_f6c7be5f7998530c34de24c7437d6b54>@@@?$__crt_seh_guarded_call@H@@QEAAH$$QEAV<lambda_751a882b2c74d4b022dec766aa51a29a>@@AEAV<lambda_628dfdc04ba53c8bfc02c9951375f3f5>@@$$QEAV<lambda_f6c7be5f7998530c34de24c7437d6b54>@@@Z@4HA 000000018002e914     libucrt:close.obj
 0002:0000b914       $unwind$?fin$0@?0???$?RV<lambda_a37b2b86f63e897a80ea819b0eb08c01>@@AEAV<lambda_38ce7e780aa69e748d6df282ebc68efe>@@V<lambda_99fb1378e971ab6e7edea83e3a7a83a2>@@@?$__crt_seh_guarded_call@H@@QEAAH$$QEAV<lambda_a37b2b86f63e897a80ea819b0eb08c01>@@AEAV<lambda_38ce7e780aa69e748d6df282ebc68efe>@@$$QEAV<lambda_99fb1378e971ab6e7edea83e3a7a83a2>@@@Z@4HA 000000018002e914     libucrt:commit.obj
 0002:0000b914       $unwind$__acrt_initialize_lowio$fin$0 000000018002e914     libucrt:ioinit.obj
 0002:0000b914       $unwind$__acrt_lowio_ensure_fh_exists$fin$0 000000018002e914     libucrt:osfinfo.obj
 0002:0000b914       $unwind$_write$fin$0       000000018002e914     libucrt:write.obj
 0002:0000b914       $unwind$?fin$0@?0???$?RV<lambda_efdfa57d1f175319df784efa44bb7b81>@@AEAV<lambda_5f0a4c1567f8adc6734073e5d1e1b35c>@@V<lambda_2e8a7d3640ea6ccb4c2413664c2db6fd>@@@?$__crt_seh_guarded_call@X@@QEAAX$$QEAV<lambda_efdfa57d1f175319df784efa44bb7b81>@@AEAV<lambda_5f0a4c1567f8adc6734073e5d1e1b35c>@@$$QEAV<lambda_2e8a7d3640ea6ccb4c2413664c2db6fd>@@@Z@4HA 000000018002e914     libucrt:mbctype.obj
 0002:0000b914       $unwind$?fin$0@?0??update_thread_multibyte_data_internal@@YAPEAU__crt_multibyte_data@@QEAU__acrt_ptd@@QEAPEAU1@@Z@4HA 000000018002e914     libucrt:mbctype.obj
 0002:0000b914       $unwind$?fin$0@?0???$?RV<lambda_450d765d439847d4c735a33c368b5fc0>@@AEAV<lambda_44731a7d0e6d81c3e6aa82d741081786>@@V<lambda_601a2a7da3b7a96e9554ac7215c4b07c>@@@?$__crt_seh_guarded_call@P6AXH@Z@@QEAAP6AXH@Z$$QEAV<lambda_450d765d439847d4c735a33c368b5fc0>@@AEAV<lambda_44731a7d0e6d81c3e6aa82d741081786>@@$$QEAV<lambda_601a2a7da3b7a96e9554ac7215c4b07c>@@@Z@4HA 000000018002e914     libucrt:signal.obj
 0002:0000b914       $unwind$raise$fin$0        000000018002e914     libucrt:signal.obj
 0002:0000b914       $unwind$?filt$0@?0???R<lambda_6e4b09c48022b2350581041d5f6b0c4c>@@QEBA@XZ@4HA 000000018002e914     libucrt:exit.obj
 0002:0000b914       $unwind$?fin$0@?0???$?RV<lambda_d80eeec6fff315bfe5c115232f3240e3>@@AEAV<lambda_6e4b09c48022b2350581041d5f6b0c4c>@@V<lambda_2358e3775559c9db80273638284d5e45>@@@?$__crt_seh_guarded_call@X@@QEAAX$$QEAV<lambda_d80eeec6fff315bfe5c115232f3240e3>@@AEAV<lambda_6e4b09c48022b2350581041d5f6b0c4c>@@$$QEAV<lambda_2358e3775559c9db80273638284d5e45>@@@Z@4HA 000000018002e914     libucrt:exit.obj
 0002:0000b914       $unwind$?fin$0@?0???$?RV<lambda_638799b9deba96c50f710eeac98168cd>@@AEAV<lambda_22ebabd17bc4fa466a2aca6d8deb888d>@@V<lambda_a6f7d7db0129f75315ebf26d50c089f1>@@@?$__crt_seh_guarded_call@H@@QEAAH$$QEAV<lambda_638799b9deba96c50f710eeac98168cd>@@AEAV<lambda_22ebabd17bc4fa466a2aca6d8deb888d>@@$$QEAV<lambda_a6f7d7db0129f75315ebf26d50c089f1>@@@Z@4HA 000000018002e914     libucrt:onexit.obj
 0002:0000b914       $unwind$?fin$0@?0???$?RV<lambda_7777bce6b2f8c936911f934f8298dc43>@@AEAV<lambda_f03950bc5685219e0bcd2087efbe011e>@@V<lambda_3883c3dff614d5e0c5f61bb1ac94921c>@@@?$__crt_seh_guarded_call@H@@QEAAH$$QEAV<lambda_7777bce6b2f8c936911f934f8298dc43>@@AEAV<lambda_f03950bc5685219e0bcd2087efbe011e>@@$$QEAV<lambda_3883c3dff614d5e0c5f61bb1ac94921c>@@@Z@4HA 000000018002e914     libucrt:onexit.obj
 0002:0000b914       $unwind$_fcloseall$fin$0   000000018002e914     libucrt:closeall.obj
 0002:0000b914       $unwind$fclose$fin$0       000000018002e914     libucrt:fclose.obj
 0002:0000b914       $unwind$?fin$0@?0???$?RV<lambda_842d9ff0dc9ef11c61343bbaebe7f885>@@AEAV<lambda_c5860995281e5c4ce005b3de8f5874ee>@@V<lambda_d90129c13df834fdcbf8d2b88dafcf2d>@@@?$__crt_seh_guarded_call@X@@QEAAX$$QEAV<lambda_842d9ff0dc9ef11c61343bbaebe7f885>@@AEAV<lambda_c5860995281e5c4ce005b3de8f5874ee>@@$$QEAV<lambda_d90129c13df834fdcbf8d2b88dafcf2d>@@@Z@4HA 000000018002e914     libucrt:fflush.obj
 0002:0000b914       $unwind$?fin$0@?0???$?RV<lambda_886d6c58226a84441f68b9f2b8217b83>@@AEAV<lambda_ab61a845afdef5b7c387490eaf3616ee>@@V<lambda_f7f22ab5edc0698d5f6905b0d3f44752>@@@?$__crt_seh_guarded_call@X@@QEAAX$$QEAV<lambda_886d6c58226a84441f68b9f2b8217b83>@@AEAV<lambda_ab61a845afdef5b7c387490eaf3616ee>@@$$QEAV<lambda_f7f22ab5edc0698d5f6905b0d3f44752>@@@Z@4HA 000000018002e914     libucrt:fflush.obj
 0002:0000b914       $unwind$_ctrlfp$filt$0     000000018002e914     libucrt:fpctrl.obj
 0002:0000b914       $unwind$common_control87$filt$0 000000018002e914     libucrt:ieee.obj
 0002:0000b91c       $unwind$?AtlInternalOleLoadFromStream@ATL@@YAJPEAUIStream@@AEBU_GUID@@PEAPEAXTClassesAllowedInStream@1@K@Z 000000018002e91c     PINPad.obj
 0002:0000b938       $unwind$?ReadFromStream@CComBSTR@ATL@@QEAAJPEAUIStream@@@Z 000000018002e938     PINPad.obj
 0002:0000b938       $unwind$_configure_narrow_argv 000000018002e938     libucrt:argv_parsing.obj
 0002:0000b94c       $unwind$?WriteToStream@CComVariant@ATL@@QEAAJPEAUIStream@@@Z 000000018002e94c     PINPad.obj
 0002:0000b960       $unwind$?RegOpenKeyExW@CAtlTransactionManager@ATL@@QEAAJPEAUHKEY__@@PEB_WKKPEAPEAU3@@Z 000000018002e960     PINPad.obj
 0002:0000b960       $unwind$?WriteToStream@CComVariant@ATL@@QEAAJPEAUIStream@@G@Z 000000018002e960     PINPad.obj
 0002:0000b960       $unwind$__dcrt_write_console 000000018002e960     libucrt:initcon.obj
 0002:0000b960       $unwind$??$__acrt_wcs_to_mbs_cp@U__crt_win32_buffer_no_resizing@@@@YAHQEB_WAEAV?$__crt_win32_buffer@DU__crt_win32_buffer_no_resizing@@@@I@Z 000000018002e960     libucrt:getmodulefilenamea.obj
 0002:0000b974       $unwind$?ReadFromStream@CComVariant@ATL@@QEAAJPEAUIStream@@GTClassesAllowedInStream@2@K@Z 000000018002e974     PINPad.obj
 0002:0000b98c       $unwind$?GetSizeMax@CComVariant@ATL@@QEBAJPEAT_ULARGE_INTEGER@@@Z 000000018002e98c     PINPad.obj
 0002:0000b9a4       $unwind$?RegCreateKeyExW@CAtlTransactionManager@ATL@@QEAAJPEAUHKEY__@@PEB_WKPEA_WKKQEAU_SECURITY_ATTRIBUTES@@PEAPEAU3@PEAK@Z 000000018002e9a4     PINPad.obj
 0002:0000b9b8       $unwind$?GetGITPtr@CAtlModule@ATL@@UEAAJPEAPEAUIGlobalInterfaceTable@@@Z 000000018002e9b8     PINPad.obj
 0002:0000b9b8       $unwind$?RegDeleteKeyW@CAtlTransactionManager@ATL@@QEAAJPEAUHKEY__@@PEB_W@Z 000000018002e9b8     PINPad.obj
 0002:0000b9b8       $unwind$?getStateFromIterators@UWMap4@FH4@@SAHAEBViterator@12@H0H0@Z 000000018002e9b8     libvcruntime:frame.obj
 0002:0000b9c8       $unwind$?AtlHiMetricToPixel@ATL@@YAXPEBUtagSIZE@@PEAU2@@Z 000000018002e9c8     PINPad.obj
 0002:0000b9c8       $unwind$?AtlInternalQueryInterface@ATL@@YAJPEAXPEBU_ATL_INTMAP_ENTRY@1@AEBU_GUID@@PEAPEAX@Z 000000018002e9c8     PINPad.obj
 0002:0000b9e0       $unwind$?Append@CParseBuffer@CRegParser@ATL@@QEAAHPEB_WH@Z 000000018002e9e0     PINPad.obj
 0002:0000b9e0       $unwind$?AtlComModuleGetClassObject@ATL@@YAJPEAU_ATL_COM_MODULE70@1@AEBU_GUID@@1PEAPEAX@Z 000000018002e9e0     PINPad.obj
 0002:0000b9e0       $unwind$?EnumConnections@?$IConnectionPointImpl@VCOPOSPINPad@@$1?DIID__IOPOSPINPadEvents@@3U_GUID@@BVCComDynamicUnkArray@ATL@@@ATL@@UEAAJPEAPEAUIEnumConnections@@@Z 000000018002e9e0     PINPad.obj
 0002:0000b9e0       $unwind$?EnumConnections@?$IConnectionPointImpl@VCOPOSPINPad@@$1?IID_IPropertyNotifySink@@3U_GUID@@BVCComDynamicUnkArray@ATL@@@ATL@@UEAAJPEAPEAUIEnumConnections@@@Z 000000018002e9e0     PINPad.obj
 0002:0000b9e0       $unwind$?GetClassObject@CComModule@ATL@@QEAAJAEBU_GUID@@0PEAPEAX@Z 000000018002e9e0     PINPad.obj
 0002:0000b9e0       $unwind$?Init@?$CComEnumImpl@UIEnumConnectionPoints@@$1?_GUID_b196b285_bab4_101a_b69c_00aa00341d07@@3U__s_GUID@@BPEAUIConnectionPoint@@V?$_CopyInterface@UIConnectionPoint@@@ATL@@@ATL@@QEAAJPEAPEAUIConnectionPoint@@0PEAUIUnknown@@W4CComEnumFlags@2@@Z 000000018002e9e0     PINPad.obj
 0002:0000b9e0       $unwind$?Init@?$CComEnumImpl@UIEnumConnections@@$1?_GUID_b196b287_bab4_101a_b69c_00aa00341d07@@3U__s_GUID@@BUtagCONNECTDATA@@V?$_Copy@UtagCONNECTDATA@@@ATL@@@ATL@@QEAAJPEAUtagCONNECTDATA@@0PEAUIUnknown@@W4CComEnumFlags@2@@Z 000000018002e9e0     PINPad.obj
 0002:0000b9e0       $unwind$?NextToken@CRegParser@ATL@@IEAAJPEA_W@Z 000000018002e9e0     PINPad.obj
 0002:0000b9e0       $unwind$__acrt_fp_strflt_to_string 000000018002e9e0     libucrt:_fptostr.obj
 0002:0000b9e0       $unwind$__acrt_DownlevelLocaleNameToLCID 000000018002e9e0     libucrt:lcidtoname_downlevel.obj
 0002:0000b9e0       $unwind$??R<lambda_f03950bc5685219e0bcd2087efbe011e>@@QEBAHXZ 000000018002e9e0     libucrt:onexit.obj
 0002:0000b9f8       $unwind$?AtlRegisterClassCategoriesHelper@ATL@@YAJAEBU_GUID@@PEBU_ATL_CATMAP_ENTRY@1@H@Z 000000018002e9f8     PINPad.obj
 0002:0000ba1c       $unwind$?AtlLoadTypeLib@ATL@@YAJPEAUHINSTANCE__@@PEB_WPEAPEA_WPEAPEAUITypeLib@@@Z 000000018002ea1c     PINPad.obj
 0002:0000ba3c       $unwind$?AtlRegisterTypeLib@ATL@@YAJPEAUHINSTANCE__@@PEB_W@Z 000000018002ea3c     PINPad.obj
 0002:0000ba58       $unwind$?AtlUnRegisterTypeLib@ATL@@YAJPEAUHINSTANCE__@@PEB_W@Z 000000018002ea58     PINPad.obj
 0002:0000ba60       $unwind$?GetTI@CComTypeInfoHolder@ATL@@QEAAJK@Z 000000018002ea60     PINPad.obj
 0002:0000ba60       $unwind$?RecurseDeleteKey@CRegKey@ATL@@QEAAJPEB_W@Z 000000018002ea60     PINPad.obj
 0002:0000ba80       $unwind$?UpdateRegistryFromResource@CAtlModule@ATL@@QEAAJIHPEAU_ATL_REGMAP_ENTRY@2@@Z 000000018002ea80     PINPad.obj
 0002:0000ba80       $unwind$?UpdateRegistryFromResource@CAtlModule@ATL@@QEAAJPEB_WHPEAU_ATL_REGMAP_ENTRY@2@@Z 000000018002ea80     PINPad.obj
 0002:0000baa0       $unwind$?Lookup@?$CSimpleMap@PEA_WPEA_WVCExpansionVectorEqualHelper@ATL@@@ATL@@QEBAPEA_WAEBQEA_W@Z 000000018002eaa0     PINPad.obj
 0002:0000baa0       $unwind$__std_exception_copy 000000018002eaa0     libvcruntime:std_exception.obj
 0002:0000baa0       $unwind$_free_osfhnd       000000018002eaa0     libucrt:osfinfo.obj
 0002:0000bab4       $unwind$?Add@CExpansionVector@ATL@@QEAAHPEB_W0@Z 000000018002eab4     PINPad.obj
 0002:0000bacc       $unwind$?PreProcessBuffer@CRegParser@ATL@@QEAAJPEA_WPEAPEA_W@Z 000000018002eacc     PINPad.obj
 0002:0000baf0       $unwind$?RegisterBuffer@CRegParser@ATL@@QEAAJPEA_WH@Z 000000018002eaf0     PINPad.obj
 0002:0000bb10       $unwind$?AddValue@CRegParser@ATL@@IEAAJAEAVCRegKey@2@PEB_WPEA_W@Z 000000018002eb10     PINPad.obj
 0002:0000bb30       $unwind$?RegisterSubkeys@CRegParser@ATL@@IEAAJPEA_WPEAUHKEY__@@HH@Z 000000018002eb30     PINPad.obj
 0002:0000bb50       $unwind$?SkipAssignment@CRegParser@ATL@@IEAAJPEA_W@Z 000000018002eb50     PINPad.obj
 0002:0000bb68       $unwind$?RegisterFromResource@CRegObject@ATL@@IEAAJPEB_W00H@Z 000000018002eb68     PINPad.obj
 0002:0000bb88       $unwind$?Cleanup@CComTypeInfoHolder@ATL@@SAX_K@Z 000000018002eb88     PINPad.obj
 0002:0000bb88       $unwind$AtlThunk_FreeData  000000018002eb88     atls:atlthunk.obj
 0002:0000bb88       $unwind$_free_base         000000018002eb88     libucrt:free_base.obj
 0002:0000bb88       $unwind$?destroy_fls@@YAXPEAX@Z 000000018002eb88     libucrt:per_thread_data.obj
 0002:0000bb88       $unwind$__acrt_locale_free_numeric 000000018002eb88     libucrt:initnum.obj
 0002:0000bb88       $unwind$__acrt_locale_free_lc_time_if_unreferenced 000000018002eb88     libucrt:locale_refcounting.obj
 0002:0000bb90       $unwind$?GetIDsOfNames@CComTypeInfoHolder@ATL@@QEAAJAEBU_GUID@@PEAPEA_WIKPEAJ@Z 000000018002eb90     PINPad.obj
 0002:0000bbac       $unwind$?LoadNameCache@CComTypeInfoHolder@ATL@@QEAAJPEAUITypeInfo@@@Z 000000018002ebac     PINPad.obj
 0002:0000bbc0       $unwind$?StartWindowProc@?$CWindowImplBaseT@VCWindow@ATL@@V?$CWinTraits@$0FGAAAAAA@$0A@@2@@ATL@@SA_JPEAUHWND__@@I_K_J@Z 000000018002ebc0     PINPad.obj
 0002:0000bbc0       $unwind$?should_round_up@@YA_NQEBN_KFW4__acrt_rounding_mode@@@Z 000000018002ebc0     libucrt:cvt.obj
 0002:0000bbc0       $unwind$??$parse_command_line@D@@YAXPEADPEAPEAD0PEA_K2@Z 000000018002ebc0     libucrt:argv_parsing.obj
 0002:0000bbdc       $unwind$?WindowProc@?$CWindowImplBaseT@VCWindow@ATL@@V?$CWinTraits@$0FGAAAAAA@$0A@@2@@ATL@@SA_JPEAUHWND__@@I_K_J@Z 000000018002ebdc     PINPad.obj
 0002:0000bbf4       $unwind$?atlCreate@?$CWindowImplBaseT@VCWindow@ATL@@V?$CWinTraits@$0FGAAAAAA@$0A@@2@@ATL@@QEAAPEAUHWND__@@PEAU3@V_U_RECT@2@PEB_WKKV_U_MENUorID@2@GPEAX@Z 000000018002ebf4     PINPad.obj
 0002:0000bc0c       $unwind$??$AtlModuleRegisterWndClassInfoT@VAtlModuleRegisterWndClassInfoParamW@ATL@@@ATL@@YAGPEAU_ATL_BASE_MODULE70@0@PEAU_ATL_WIN_MODULE70@0@PEAU_ATL_WNDCLASSINFOW@0@PEAP6A_JPEAUHWND__@@I_K_J@ZVAtlModuleRegisterWndClassInfoParamW@0@@Z 000000018002ec0c     PINPad.obj
 0002:0000bc2c       $unwind$?GetZoomInfo@CComControlBase@ATL@@QEAAXAEAUATL_DRAWINFO@@@Z 000000018002ec2c     PINPad.obj
 0002:0000bc2c       $unwind$?OnKillFocus@CComControlBase@ATL@@QEAA_JI_K_JAEAH@Z 000000018002ec2c     PINPad.obj
 0002:0000bc2c       $unwind$iswctype           000000018002ec2c     libucrt:iswctype.obj
 0002:0000bc38       $unwind$?SendOnDataChange@CComControlBase@ATL@@QEAAJK@Z 000000018002ec38     PINPad.obj
 0002:0000bc48       $unwind$?OnSetFocus@CComControlBase@ATL@@QEAA_JI_K_JAEAH@Z 000000018002ec48     PINPad.obj
 0002:0000bc58       $unwind$?OnMouseActivate@CComControlBase@ATL@@QEAA_JI_K_JAEAH@Z 000000018002ec58     PINPad.obj
 0002:0000bc60       $unwind$?GetAmbientLocaleID@CComControlBase@ATL@@QEAAJAEAK@Z 000000018002ec60     PINPad.obj
 0002:0000bc60       $unwind$?GetAmbientUserMode@CComControlBase@ATL@@QEAAJAEAH@Z 000000018002ec60     PINPad.obj
 0002:0000bc70       $unwind$?IQuickActivate_QuickActivate@CComControlBase@ATL@@QEAAJPEAUtagQACONTAINER@@PEAUtagQACONTROL@@@Z 000000018002ec70     PINPad.obj
 0002:0000bc88       $unwind$?DoVerbProperties@CComControlBase@ATL@@QEAAJPEBUtagRECT@@PEAUHWND__@@@Z 000000018002ec88     PINPad.obj
 0002:0000bca0       $unwind$?InPlaceActivate@CComControlBase@ATL@@QEAAJJPEBUtagRECT@@@Z 000000018002eca0     PINPad.obj
 0002:0000bcc0       $unwind$?IOleObject_Close@CComControlBase@ATL@@QEAAJK@Z 000000018002ecc0     PINPad.obj
 0002:0000bcc0       $unwind$?type_case_c_tchar@?$output_processor@_WV?$string_output_adapter@_W@__crt_stdio_output@@V?$format_validation_base@_WV?$string_output_adapter@_W@__crt_stdio_output@@@2@@__crt_stdio_output@@AEAA_N_W@Z 000000018002ecc0     libucrt:output.obj
 0002:0000bcd0       $unwind$?IOleInPlaceObject_UIDeactivate@CComControlBase@ATL@@QEAAJXZ 000000018002ecd0     PINPad.obj
 0002:0000bce8       $unwind$?IOleInPlaceObject_SetObjectRects@CComControlBase@ATL@@QEAAJPEBUtagRECT@@0@Z 000000018002ece8     PINPad.obj
 0002:0000bcfc       $unwind$?IViewObject_Draw@CComControlBase@ATL@@QEAAJKJPEAXPEAUtagDVTARGETDEVICE@@PEAUHDC__@@2PEBU_RECTL@@3@Z 000000018002ecfc     PINPad.obj
 0002:0000bd18       $unwind$?IDataObject_GetData@CComControlBase@ATL@@QEAAJPEAUtagFORMATETC@@PEAUtagSTGMEDIUM@@@Z 000000018002ed18     PINPad.obj
 0002:0000bd38       $unwind$?OnPaint@CComControlBase@ATL@@QEAA_JI_K_JAEAH@Z 000000018002ed38     PINPad.obj
 0002:0000bd54       $unwind$?OnDrawAdvanced@CComControlBase@ATL@@UEAAJAEAUATL_DRAWINFO@@@Z 000000018002ed54     PINPad.obj
 0002:0000bd70       $unwind$?Invoke@?$IDispatchImpl@UIOPOSPINPad@@$1?IID_IOPOSPINPad@@3U_GUID@@B$1?LIBID_OposPINPad_CCO@@3U3@B$00$0A@VCComTypeInfoHolder@ATL@@@ATL@@UEAAJJAEBU_GUID@@KGPEAUtagDISPPARAMS@@PEAUtagVARIANT@@PEAUtagEXCEPINFO@@PEAI@Z 000000018002ed70     PINPad.obj
 0002:0000bd70       $unwind$?ReleaseDevice@COPOSPINPad@@UEAAJPEAJ@Z 000000018002ed70     PINPadImpl.obj
 0002:0000bd70       $unwind$_mbsdec_l          000000018002ed70     libucrt:mbsdec.obj
 0002:0000bd7c       $unwind$?atlCreate@?$CWindowImpl@VCOPOSPINPad@@VCWindow@ATL@@V?$CWinTraits@$0FGAAAAAA@$0A@@3@@ATL@@QEAAPEAUHWND__@@PEAU3@V_U_RECT@2@PEB_WKKV_U_MENUorID@2@PEAX@Z 000000018002ed7c     PINPad.obj
 0002:0000bd7c       $unwind$?fp_format_e@@YAHQEBNQEAD_K12H_NIQEAU__crt_locale_pointers@@W4__acrt_rounding_mode@@@Z 000000018002ed7c     libucrt:cvt.obj
 0002:0000bd7c       $unwind$_mbtowc_l          000000018002ed7c     libucrt:mbtowc.obj
 0002:0000bd7c       $unwind$__acrt_LCMapStringEx 000000018002ed7c     libucrt:winapi_thunks.obj
 0002:0000bd90       $unwind$?CreateControlWindow@?$CComControl@VCOPOSPINPad@@V?$CWindowImpl@VCOPOSPINPad@@VCWindow@ATL@@V?$CWinTraits@$0FGAAAAAA@$0A@@3@@ATL@@@ATL@@UEAAPEAUHWND__@@PEAU3@AEAUtagRECT@@@Z 000000018002ed90     PINPad.obj
 0002:0000bd90       $unwind$?ClearInput@COPOSPINPad@@UEAAJPEAJ@Z 000000018002ed90     PINPadImpl.obj
 0002:0000bd90       $unwind$?ClearInputProperties@COPOSPINPad@@UEAAJPEAJ@Z 000000018002ed90     PINPadImpl.obj
 0002:0000bd90       $unwind$?EnablePINEntry@COPOSPINPad@@UEAAJPEAJ@Z 000000018002ed90     PINPadImpl.obj
 0002:0000bd90       $unwind$?__scrt_throw_std_bad_alloc@@YAXXZ 000000018002ed90     LIBCMT:throw_bad_alloc.obj
 0002:0000bd90       $unwind$?__scrt_throw_std_bad_array_new_length@@YAXXZ 000000018002ed90     LIBCMT:throw_bad_alloc.obj
 0002:0000bd90       $unwind$_raise_exc         000000018002ed90     libucrt:fpexcept.obj
 0002:0000bd98       $unwind$?GetSizeMax@?$IPersistStreamInitImpl@VCOPOSPINPad@@@ATL@@UEAAJPEAT_ULARGE_INTEGER@@@Z 000000018002ed98     PINPad.obj
 0002:0000bdb0       $unwind$?IPersistStreamInit_Load@?$IPersistStreamInitImpl@VCOPOSPINPad@@@ATL@@QEAAJPEAUIStream@@PEBUATL_PROPMAP_ENTRY@2@@Z 000000018002edb0     PINPad.obj
 0002:0000bdcc       $unwind$?IPersistStreamInit_Save@?$IPersistStreamInitImpl@VCOPOSPINPad@@@ATL@@QEAAJPEAUIStream@@HPEBUATL_PROPMAP_ENTRY@2@@Z 000000018002edcc     PINPad.obj
 0002:0000bde8       $unwind$?DoVerbPrimary@?$IOleObjectImpl@VCOPOSPINPad@@@ATL@@QEAAJPEBUtagRECT@@PEAUHWND__@@@Z 000000018002ede8     PINPad.obj
 0002:0000be00       $unwind$?TranslateAcceleratorW@?$IOleInPlaceActiveObjectImpl@VCOPOSPINPad@@@ATL@@UEAAJPEAUtagMSG@@@Z 000000018002ee00     PINPad.obj
 0002:0000be0c       $unwind$?Draw@?$IViewObjectExImpl@VCOPOSPINPad@@@ATL@@UEAAJKJPEAXPEAUtagDVTARGETDEVICE@@PEAUHDC__@@2PEBU_RECTL@@3P6AH_K@Z4@Z 000000018002ee0c     PINPad.obj
 0002:0000be14       $unwind$?QueryHitRect@?$IViewObjectExImpl@VCOPOSPINPad@@@ATL@@UEAAJKPEBUtagRECT@@0JPEAK@Z 000000018002ee14     PINPad.obj
 0002:0000be24       $unwind$?OnWindowMessage@?$IOleInPlaceObjectWindowlessImpl@VCOPOSPINPad@@@ATL@@UEAAJI_K_JPEA_J@Z 000000018002ee24     PINPad.obj
 0002:0000be38       $unwind$?EnumConnectionPoints@?$IConnectionPointContainerImpl@VCOPOSPINPad@@@ATL@@UEAAJPEAPEAUIEnumConnectionPoints@@@Z 000000018002ee38     PINPad.obj
 0002:0000be60       $unwind$?FindConnectionPoint@?$IConnectionPointContainerImpl@VCOPOSPINPad@@@ATL@@UEAAJAEBU_GUID@@PEAPEAUIConnectionPoint@@@Z 000000018002ee60     PINPad.obj
 0002:0000be60       $unwind$?__mbrtoc32_utf8@__crt_mbstring@@YA_KPEA_UPEBD_KPEAU_Mbstatet@@@Z 000000018002ee60     libucrt:mbrtoc32.obj
 0002:0000be7c       $unwind$?Load@?$IPersistStorageImpl@VCOPOSPINPad@@@ATL@@UEAAJPEAUIStorage@@@Z 000000018002ee7c     PINPad.obj
 0002:0000be8c       $unwind$?Save@?$IPersistStorageImpl@VCOPOSPINPad@@@ATL@@UEAAJPEAUIStorage@@H@Z 000000018002ee8c     PINPad.obj
 0002:0000bea0       $unwind$?IPSI_GetIPersistStreamInit@?$IPersistStorageImpl@VCOPOSPINPad@@@ATL@@AEAAPEAUIPersistStreamInit@@XZ 000000018002eea0     PINPad.obj
 0002:0000bea0       $unwind$?parse_int_from_format_string@?$output_processor@_WV?$string_output_adapter@_W@__crt_stdio_output@@V?$format_validation_base@_WV?$string_output_adapter@_W@__crt_stdio_output@@@2@@__crt_stdio_output@@AEAA_NQEAH@Z 000000018002eea0     libucrt:output.obj
 0002:0000beb4       $unwind$?GetInterfaceSafetyOptions@?$IObjectSafetyImpl@VCOPOSPINPad@@$02@ATL@@UEAAJAEBU_GUID@@PEAK1@Z 000000018002eeb4     PINPad.obj
 0002:0000bec8       $unwind$?SetInterfaceSafetyOptions@?$IObjectSafetyImpl@VCOPOSPINPad@@$02@ATL@@UEAAJAEBU_GUID@@KK@Z 000000018002eec8     PINPad.obj
 0002:0000bedc       $unwind$?Advise@?$IConnectionPointImpl@VCOPOSPINPad@@$1?DIID__IOPOSPINPadEvents@@3U_GUID@@BVCComDynamicUnkArray@ATL@@@ATL@@UEAAJPEAUIUnknown@@PEAK@Z 000000018002eedc     PINPad.obj
 0002:0000bedc       $unwind$?Advise@?$IConnectionPointImpl@VCOPOSPINPad@@$1?IID_IPropertyNotifySink@@3U_GUID@@BVCComDynamicUnkArray@ATL@@@ATL@@UEAAJPEAUIUnknown@@PEAK@Z 000000018002eedc     PINPad.obj
 0002:0000bef0       $unwind$?Fire_DataEvent@?$CProxy_IOPOSEvents@VCOPOSPINPad@@@@QEAAXJ@Z 000000018002eef0     PINPad.obj
 0002:0000bef0       $unwind$?Fire_StatusUpdateEvent@?$CProxy_IOPOSEvents@VCOPOSPINPad@@@@QEAAXJ@Z 000000018002eef0     PINPad.obj
 0002:0000bf08       $unwind$?Fire_DirectIOEvent@?$CProxy_IOPOSEvents@VCOPOSPINPad@@@@QEAAXJPEAJPEAPEA_W@Z 000000018002ef08     PINPad.obj
 0002:0000bf28       $unwind$?Fire_ErrorEvent@?$CProxy_IOPOSEvents@VCOPOSPINPad@@@@QEAAXJJJPEAJ@Z 000000018002ef28     PINPad.obj
 0002:0000bf48       $unwind$?FireTheEvent@?$CProxy_IOPOSEvents@VCOPOSPINPad@@@@IEAAXPEAVOposVariant@@IAEAJPEB_WJ@Z 000000018002ef48     PINPad.obj
 0002:0000bf58       $unwind$?ProcessWindowMessage@COPOSPINPad@@UEAAHPEAUHWND__@@I_K_JAEA_JK@Z 000000018002ef58     PINPad.obj
 0002:0000bf58       $unwind$__dcrt_get_narrow_environment_from_os 000000018002ef58     libucrt:get_environment_from_os.obj
 0002:0000bf58       $unwind$?fp_format_f_internal@@YAHQEAD_KHQEAU_strflt@@_NQEAU__crt_locale_pointers@@@Z 000000018002ef58     libucrt:cvt.obj
 0002:0000bf58       $unwind$??$__acrt_wcs_to_mbs_cp@U__crt_win32_buffer_internal_dynamic_resizing@@@@YAHQEB_WAEAV?$__crt_win32_buffer@DU__crt_win32_buffer_internal_dynamic_resizing@@@@I@Z 000000018002ef58     libucrt:argv_wildcards.obj
 0002:0000bf70       $unwind$?SOError@COPOSPINPad@@MEAAJJJJPEAJ@Z 000000018002ef70     PINPad.obj
 0002:0000bf70       $unwind$_invalid_parameter 000000018002ef70     libucrt:invalid_parameter.obj
 0002:0000bf84       $unwind$?Clone@?$CComEnumImpl@UIEnumConnectionPoints@@$1?_GUID_b196b285_bab4_101a_b69c_00aa00341d07@@3U__s_GUID@@BPEAUIConnectionPoint@@V?$_CopyInterface@UIConnectionPoint@@@ATL@@@ATL@@UEAAJPEAPEAUIEnumConnectionPoints@@@Z 000000018002ef84     PINPad.obj
 0002:0000bf84       $unwind$?Clone@?$CComEnumImpl@UIEnumConnections@@$1?_GUID_b196b287_bab4_101a_b69c_00aa00341d07@@3U__s_GUID@@BUtagCONNECTDATA@@V?$_Copy@UtagCONNECTDATA@@@ATL@@@ATL@@UEAAJPEAPEAUIEnumConnections@@@Z 000000018002ef84     PINPad.obj
 0002:0000bf9c       $unwind$?GetOposProp@COPOSPINPad@@IEAAJJPEAJJ@Z 000000018002ef9c     PINPadImpl.obj
 0002:0000bf9c       $unwind$?GetOposProp@COPOSPINPad@@IEAAJJPEAPEA_WJ@Z 000000018002ef9c     PINPadImpl.obj
 0002:0000bfb4       $unwind$?SetOposProp@COPOSPINPad@@IEAAJJJJ@Z 000000018002efb4     PINPadImpl.obj
 0002:0000bfd4       $unwind$?SetOposProp@COPOSPINPad@@IEAAJJPEA_WJ@Z 000000018002efd4     PINPadImpl.obj
 0002:0000bff0       $unwind$?DoInvoke@COPOSPINPad@@IEAAJJPEAVOposVariant@@IHPEAJ_N@Z 000000018002eff0     PINPadImpl.obj
 0002:0000c008       $unwind$?SetCOFreezeEvents@COPOSPINPad@@IEAAXF@Z 000000018002f008     PINPadImpl.obj
 0002:0000c01c       $unwind$?OnDraw@COPOSPINPad@@MEAAJAEAUATL_DRAWINFO@@@Z 000000018002f01c     PINPadImpl.obj
 0002:0000c034       $unwind$?EventInit@COPOSPINPad@@IEAAJXZ 000000018002f034     PINPadImpl.obj
 0002:0000c048       $unwind$?EventWindowProc@COPOSPINPad@@IEAA_JI_K_J@Z 000000018002f048     PINPadImpl.obj
 0002:0000c048       $unwind$__stdio_common_vswprintf_s 000000018002f048     libucrt:output.obj
 0002:0000c054       $unwind$?get_ControlObjectDescription@COPOSPINPad@@UEAAJPEAPEA_W@Z 000000018002f054     PINPadImpl.obj
 0002:0000c054       $unwind$__dcrt_lowio_ensure_console_output_initialized 000000018002f054     libucrt:initcon.obj
 0002:0000c054       $unwind$_isleadbyte_l      000000018002f054     libucrt:_wctype.obj
 0002:0000c054       $unwind$?getSystemCP@@YAHH@Z 000000018002f054     libucrt:mbctype.obj
 0002:0000c05c       $unwind$?CheckHealth@COPOSPINPad@@UEAAJJPEAJ@Z 000000018002f05c     PINPadImpl.obj
 0002:0000c05c       $unwind$?EndEFTTransaction@COPOSPINPad@@UEAAJJPEAJ@Z 000000018002f05c     PINPadImpl.obj
 0002:0000c05c       $unwind$?ResetStatistics@COPOSPINPad@@UEAAJPEA_WPEAJ@Z 000000018002f05c     PINPadImpl.obj
 0002:0000c05c       $unwind$?RetrieveStatistics@COPOSPINPad@@UEAAJPEAPEA_WPEAJ@Z 000000018002f05c     PINPadImpl.obj
 0002:0000c05c       $unwind$?UpdateFirmware@COPOSPINPad@@UEAAJPEA_WPEAJ@Z 000000018002f05c     PINPadImpl.obj
 0002:0000c05c       $unwind$?UpdateStatistics@COPOSPINPad@@UEAAJPEA_WPEAJ@Z 000000018002f05c     PINPadImpl.obj
 0002:0000c05c       $unwind$?VerifyMAC@COPOSPINPad@@UEAAJPEA_WPEAJ@Z 000000018002f05c     PINPadImpl.obj
 0002:0000c06c       $unwind$?ClaimDevice@COPOSPINPad@@UEAAJJPEAJ@Z 000000018002f06c     PINPadImpl.obj
 0002:0000c07c       $unwind$?Close@COPOSPINPad@@UEAAJPEAJ@Z 000000018002f07c     PINPadImpl.obj
 0002:0000c088       $unwind$?DirectIO@COPOSPINPad@@UEAAJJPEAJPEAPEA_W0@Z 000000018002f088     PINPadImpl.obj
 0002:0000c0a4       $unwind$?Open@COPOSPINPad@@UEAAJPEA_WPEAJ@Z 000000018002f0a4     PINPadImpl.obj
 0002:0000c0c8       $unwind$?get_Amount@COPOSPINPad@@UEAAJPEATtagCY@@@Z 000000018002f0c8     PINPadImpl.obj
 0002:0000c0dc       $unwind$?put_Amount@COPOSPINPad@@UEAAJTtagCY@@@Z 000000018002f0dc     PINPadImpl.obj
 0002:0000c0f4       $unwind$?BeginEFTTransaction@COPOSPINPad@@UEAAJPEA_WJPEAJ@Z 000000018002f0f4     PINPadImpl.obj
 0002:0000c0f4       $unwind$?CompareFirmwareVersion@COPOSPINPad@@UEAAJPEA_WPEAJ1@Z 000000018002f0f4     PINPadImpl.obj
 0002:0000c0f4       $unwind$?ComputeMAC@COPOSPINPad@@UEAAJPEA_WPEAPEA_WPEAJ@Z 000000018002f0f4     PINPadImpl.obj
 0002:0000c0f4       $unwind$?UpdateKey@COPOSPINPad@@UEAAJJPEA_WPEAJ@Z 000000018002f0f4     PINPadImpl.obj
 0002:0000c0f4       $unwind$?initialize_inherited_file_handles_nolock@@YAXXZ 000000018002f0f4     libucrt:ioinit.obj
 0002:0000c110       $unwind$__scrt_is_nonwritable_in_current_image 000000018002f110     LIBCMT:utility.obj
 0002:0000c130       $unwind$__scrt_is_nonwritable_in_current_image$filt$0 000000018002f130     LIBCMT:utility.obj
 0002:0000c138       $unwind$__report_securityfailure 000000018002f138     LIBCMT:gs_report.obj
 0002:0000c140       $unwind$__report_gsfailure 000000018002f140     LIBCMT:gs_report.obj
 0002:0000c148       $unwind$capture_current_context 000000018002f148     LIBCMT:gs_report.obj
 0002:0000c154       $unwind$capture_previous_context 000000018002f154     LIBCMT:gs_report.obj
 0002:0000c160       $unwind$??2@YAPEAX_KAEBUnothrow_t@std@@@Z 000000018002f160     LIBCMT:new_scalar_nothrow.obj
 0002:0000c170       $cppxdata$??2@YAPEAX_KAEBUnothrow_t@std@@@Z 000000018002f170     LIBCMT:new_scalar_nothrow.obj
 0002:0000c17d       $stateUnwindMap$??2@YAPEAX_KAEBUnothrow_t@std@@@Z 000000018002f17d     LIBCMT:new_scalar_nothrow.obj
 0002:0000c180       $tryMap$??2@YAPEAX_KAEBUnothrow_t@std@@@Z 000000018002f180     LIBCMT:new_scalar_nothrow.obj
 0002:0000c188       $handlerMap$??2@YAPEAX_KAEBUnothrow_t@std@@@Z 000000018002f188     LIBCMT:new_scalar_nothrow.obj
 0002:0000c190       $ip2state$??2@YAPEAX_KAEBUnothrow_t@std@@@Z 000000018002f190     LIBCMT:new_scalar_nothrow.obj
 0002:0000c194       $unwind$?catch$0@?0???2@YAPEAX_KAEBUnothrow_t@std@@@Z@4HA 000000018002f194     LIBCMT:new_scalar_nothrow.obj
 0002:0000c1a4       $cppxdata$?catch$0@?0???2@YAPEAX_KAEBUnothrow_t@std@@@Z@4HA 000000018002f1a4     LIBCMT:new_scalar_nothrow.obj
 0002:0000c1ae       $stateUnwindMap$?catch$0@?0???2@YAPEAX_KAEBUnothrow_t@std@@@Z@4HA 000000018002f1ae     LIBCMT:new_scalar_nothrow.obj
 0002:0000c1b0       $ip2state$?catch$0@?0???2@YAPEAX_KAEBUnothrow_t@std@@@Z@4HA 000000018002f1b0     LIBCMT:new_scalar_nothrow.obj
 0002:0000c1b4       $unwind$__GSHandlerCheckCommon 000000018002f1b4     LIBCMT:gshandler.obj
 0002:0000c1c0       $xdatasym                  000000018002f1c0     LIBCMT:chkstk.obj
 0002:0000c1c8       $xdatasym                  000000018002f1c8     LIBCMT:amdsecgs.obj
 0002:0000c1cc       $unwind$?dllmain_crt_process_attach@@YAHQEAUHINSTANCE__@@QEAX@Z 000000018002f1cc     LIBCMT:dll_dllmain.obj
 0002:0000c208       $unwind$?dllmain_crt_process_detach@@YAH_N@Z 000000018002f208     LIBCMT:dll_dllmain.obj
 0002:0000c25c       $unwind$?dllmain_dispatch@@YAHQEAUHINSTANCE__@@KQEAX@Z 000000018002f25c     LIBCMT:dll_dllmain.obj
 0002:0000c284       $unwind$?filt$0@?0??dllmain_dispatch@@YAHQEAUHINSTANCE__@@KQEAX@Z@4HA 000000018002f284     LIBCMT:dll_dllmain.obj
 0002:0000c284       $unwind$?filt$0@?0??FrameUnwindToState@__FrameHandler4@@SAXPEA_KPEAU_xDISPATCHER_CONTEXT@@PEAUFuncInfo4@FH4@@H@Z@4HA 000000018002f284     libvcruntime:frame.obj
 0002:0000c284       $unwind$?fin$1@?0??FrameUnwindToState@__FrameHandler4@@SAXPEA_KPEAU_xDISPATCHER_CONTEXT@@PEAUFuncInfo4@FH4@@H@Z@4HA 000000018002f284     libvcruntime:frame.obj
 0002:0000c28c       $unwind$__isa_available_init 000000018002f28c     LIBCMT:cpu_disp.obj
 0002:0000c29c       $unwind$__scrt_fastfail    000000018002f29c     LIBCMT:utility_desktop.obj
 0002:0000c2ac       $unwind$__security_init_cookie 000000018002f2ac     LIBCMT:gs_support.obj
 0002:0000c2b8       $xdatasym                  000000018002f2b8     LIBCMT:guard_dispatch.obj
 0002:0000c2c0       $xdatasym                  000000018002f2c0     LIBCMT:guard_xfg_dispatch.obj
 0002:0000c2c4       $unwind$AtlThunk_InitData  000000018002f2c4     atls:atlthunk.obj
 0002:0000c2d8       $unwind$wcsstr             000000018002f2d8     libvcruntime:wcsstr.obj
 0002:0000c2f0       $xdatasym                  000000018002f2f0     libvcruntime:memcmp.obj
 0002:0000c2f8       $xdatasym                  000000018002f2f8     libvcruntime:memcpy.obj
 0002:0000c308       $xdatasym                  000000018002f308     libvcruntime:memset.obj
 0002:0000c318       $unwind$__C_specific_handler 000000018002f318     libvcruntime:riscchandler.obj
 0002:0000c334       $unwind$?DecompFuncInfo@FH4@@YA_JPEAEAEAUFuncInfo4@1@_KH_N@Z 000000018002f334     libvcruntime:risctrnsctrl.obj
 0002:0000c34c       $unwind$?UnwindNestedFrames@__FrameHandler4@@SAXPEA_KPEAUEHExceptionRecord@@PEAU_CONTEXT@@0PEAXPEAUFuncInfo4@FH4@@HHPEAUHandlerType4@5@PEAU_xDISPATCHER_CONTEXT@@E@Z 000000018002f34c     libvcruntime:risctrnsctrl.obj
 0002:0000c360       $unwind$?GetRangeOfTrysToCheck@__FrameHandler4@@SA?AU?$pair@Viterator@TryBlockMap4@FH4@@V123@@std@@AEAVTryBlockMap4@FH4@@HPEAU_xDISPATCHER_CONTEXT@@PEAUFuncInfo4@5@H@Z 000000018002f360     libvcruntime:risctrnsctrl.obj
 0002:0000c37c       $unwind$__CxxFrameHandler4 000000018002f37c     libvcruntime:risctrnsctrl.obj
 0002:0000c390       $unwind$??$_CallSETranslator@V__FrameHandler4@@@@YAHPEAUEHExceptionRecord@@PEA_KPEAU_CONTEXT@@PEAU_xDISPATCHER_CONTEXT@@PEAUFuncInfo4@FH4@@K1H@Z 000000018002f390     libvcruntime:risctrnsctrl.obj
 0002:0000c3b0       $unwind$?filt$0@?0???$_CallSETranslator@V__FrameHandler4@@@@YAHPEAUEHExceptionRecord@@PEA_KPEAU_CONTEXT@@PEAU_xDISPATCHER_CONTEXT@@PEAUFuncInfo4@FH4@@K1H@Z@4HA 000000018002f3b0     libvcruntime:risctrnsctrl.obj
 0002:0000c3bc       $unwind$__DestructExceptionObject 000000018002f3bc     libvcruntime:ehhelpers.obj
 0002:0000c3dc       $unwind$__DestructExceptionObject$filt$0 000000018002f3dc     libvcruntime:ehhelpers.obj
 0002:0000c3dc       $unwind$?fin$1@?0??CxxCallCatchBlock@__FrameHandler4@@SAPEAXPEAU_EXCEPTION_RECORD@@@Z@4HA 000000018002f3dc     libvcruntime:frame.obj
 0002:0000c3e8       $unwind$_CxxThrowException 000000018002f3e8     libvcruntime:throw.obj
 0002:0000c3f8       $xdatasym                  000000018002f3f8     libvcruntime:notify.obj
 0002:0000c404       $unwind$?StateFromIp@__FrameHandler4@@SAHPEAUFuncInfo4@FH4@@PEAU_xDISPATCHER_CONTEXT@@_K@Z 000000018002f404     libvcruntime:ehstate.obj
 0002:0000c418       $unwind$?getStartStop@UWMap4@FH4@@QEAAXHHAEAViterator@12@0@Z 000000018002f418     libvcruntime:frame.obj
 0002:0000c430       $unwind$?FrameUnwindToState@__FrameHandler4@@SAXPEA_KPEAU_xDISPATCHER_CONTEXT@@PEAUFuncInfo4@FH4@@H@Z 000000018002f430     libvcruntime:frame.obj
 0002:0000c478       $unwind$?CxxCallCatchBlock@__FrameHandler4@@SAPEAXPEAU_EXCEPTION_RECORD@@@Z 000000018002f478     libvcruntime:frame.obj
 0002:0000c4d4       $unwind$?IsInExceptionSpec@@YAEPEAUEHExceptionRecord@@PEBU_s_ESTypeList@@@Z 000000018002f4d4     libvcruntime:frame.obj
 0002:0000c4f0       $unwind$??$__InternalCxxFrameHandler@V__FrameHandler4@@@@YA?AW4_EXCEPTION_DISPOSITION@@PEAUEHExceptionRecord@@PEA_KPEAU_CONTEXT@@PEAU_xDISPATCHER_CONTEXT@@PEAUFuncInfo4@FH4@@H1E@Z 000000018002f4f0     libvcruntime:frame.obj
 0002:0000c508       $unwind$??$BuildCatchObjectHelperInternal@V__FrameHandler4@@@@YAHPEAUEHExceptionRecord@@PEAXPEAUHandlerType4@FH4@@PEBU_s_CatchableType@@@Z 000000018002f508     libvcruntime:frame.obj
 0002:0000c548       $unwind$??$BuildCatchObjectInternal@V__FrameHandler4@@@@YAXPEAUEHExceptionRecord@@PEAXPEAUHandlerType4@FH4@@PEBU_s_CatchableType@@@Z 000000018002f548     libvcruntime:frame.obj
 0002:0000c574       $unwind$??$FindHandler@V__FrameHandler4@@@@YAXPEAUEHExceptionRecord@@PEA_KPEAU_CONTEXT@@PEAU_xDISPATCHER_CONTEXT@@PEAUFuncInfo4@FH4@@EH1@Z 000000018002f574     libvcruntime:frame.obj
 0002:0000c594       $unwind$??$CatchIt@V__FrameHandler4@@@@YAXPEAUEHExceptionRecord@@PEA_KPEAU_CONTEXT@@PEAU_xDISPATCHER_CONTEXT@@PEAUFuncInfo4@FH4@@PEAUHandlerType4@4@PEBU_s_CatchableType@@PEAUTryBlockMapEntry4@4@H1EE@Z 000000018002f594     libvcruntime:frame.obj
 0002:0000c5ac       $unwind$??$FindHandlerForForeignException@V__FrameHandler4@@@@YAXPEAUEHExceptionRecord@@PEA_KPEAU_CONTEXT@@PEAU_xDISPATCHER_CONTEXT@@PEAUFuncInfo4@FH4@@HH1@Z 000000018002f5ac     libvcruntime:frame.obj
 0002:0000c5cc       $unwind$?try_get_function@@YAPEAXW4function_id@?A0x84e3c32f@@QEBDQEBW4module_id@2@2@Z 000000018002f5cc     libvcruntime:winapi_downlevel.obj
 0002:0000c5cc       $unwind$?try_get_function@@YAPEAXW4function_id@?A0x391cf84c@@QEBDQEBW4module_id@2@2@Z 000000018002f5cc     libucrt:winapi_thunks.obj
 0002:0000c5e8       $xdatasym                  000000018002f5e8     libvcruntime:handlers.obj
 0002:0000c608       $unwind$__acrt_call_reportfault 000000018002f608     libucrt:invalid_parameter.obj
 0002:0000c628       $unwind$_resetstkoflw      000000018002f628     libucrt:resetstk.obj
 0002:0000c64c       $unwind$?write_string@?$string_output_adapter@_W@__crt_stdio_output@@QEBAXQEB_WHQEAHAEAV__crt_deferred_errno_cache@@@Z 000000018002f64c     libucrt:output.obj
 0002:0000c664       $unwind$??$common_vsprintf@Vformat_validation_base@__crt_stdio_output@@_W@@YAH_KQEA_W0QEB_WQEAU__crt_locale_pointers@@QEAD@Z 000000018002f664     libucrt:output.obj
 0002:0000c684       $unwind$??$write_multiple_characters@V?$string_output_adapter@_W@__crt_stdio_output@@D@__crt_stdio_output@@YAXAEBV?$string_output_adapter@_W@0@DHQEAH@Z 000000018002f684     libucrt:output.obj
 0002:0000c690       $unwind$?state_case_type@?$output_processor@_WV?$string_output_adapter@_W@__crt_stdio_output@@V?$format_validation_base@_WV?$string_output_adapter@_W@__crt_stdio_output@@@2@@__crt_stdio_output@@AEAA_NXZ 000000018002f690     libucrt:output.obj
 0002:0000c6b4       $unwind$?type_case_a@?$output_processor@_WV?$string_output_adapter@_W@__crt_stdio_output@@V?$format_validation_base@_WV?$string_output_adapter@_W@__crt_stdio_output@@@2@@__crt_stdio_output@@AEAA_NXZ 000000018002f6b4     libucrt:output.obj
 0002:0000c6c4       $unwind$?write_stored_string_tchar@?$output_processor@_WV?$string_output_adapter@_W@__crt_stdio_output@@V?$format_validation_base@_WV?$string_output_adapter@_W@__crt_stdio_output@@@2@@__crt_stdio_output@@AEAA_N_W@Z 000000018002f6c4     libucrt:output.obj
 0002:0000c6d8       $unwind$??$type_case_integer_parse_into_buffer@I@?$output_processor@_WV?$string_output_adapter@_W@__crt_stdio_output@@V?$format_validation_base@_WV?$string_output_adapter@_W@__crt_stdio_output@@@2@@__crt_stdio_output@@AEAAXII_N@Z 000000018002f6d8     libucrt:output.obj
 0002:0000c6d8       $unwind$??$type_case_integer_parse_into_buffer@_K@?$output_processor@_WV?$string_output_adapter@_W@__crt_stdio_output@@V?$format_validation_base@_WV?$string_output_adapter@_W@__crt_stdio_output@@@2@@__crt_stdio_output@@AEAAX_KI_N@Z 000000018002f6d8     libucrt:output.obj
 0002:0000c6e0       $unwind$?common_exit@@YAXHW4_crt_exit_cleanup_mode@@W4_crt_exit_return_mode@@@Z 000000018002f6e0     libucrt:exit.obj
 0002:0000c6ec       $unwind$??R<lambda_6e4b09c48022b2350581041d5f6b0c4c>@@QEBA@XZ 000000018002f6ec     libucrt:exit.obj
 0002:0000c70c       $unwind$??$?RV<lambda_d80eeec6fff315bfe5c115232f3240e3>@@AEAV<lambda_6e4b09c48022b2350581041d5f6b0c4c>@@V<lambda_2358e3775559c9db80273638284d5e45>@@@?$__crt_seh_guarded_call@X@@QEAAX$$QEAV<lambda_d80eeec6fff315bfe5c115232f3240e3>@@AEAV<lambda_6e4b09c48022b2350581041d5f6b0c4c>@@$$QEAV<lambda_2358e3775559c9db80273638284d5e45>@@@Z 000000018002f70c     libucrt:exit.obj
 0002:0000c730       $unwind$??$free_environment@D@@YAXQEAPEAD@Z 000000018002f730     libucrt:environment_initialization.obj
 0002:0000c730       $unwind$??$free_environment@_W@@YAXQEAPEA_W@Z 000000018002f730     libucrt:environment_initialization.obj
 0002:0000c73c       $unwind$??$create_environment@D@@YAQEAPEADQEAD@Z 000000018002f73c     libucrt:environment_initialization.obj
 0002:0000c754       $unwind$_register_onexit_function 000000018002f754     libucrt:onexit.obj
 0002:0000c75c       $unwind$_execute_onexit_table 000000018002f75c     libucrt:onexit.obj
 0002:0000c764       $unwind$??R<lambda_22ebabd17bc4fa466a2aca6d8deb888d>@@QEBAHXZ 000000018002f764     libucrt:onexit.obj
 0002:0000c77c       $unwind$??$?RV<lambda_638799b9deba96c50f710eeac98168cd>@@AEAV<lambda_22ebabd17bc4fa466a2aca6d8deb888d>@@V<lambda_a6f7d7db0129f75315ebf26d50c089f1>@@@?$__crt_seh_guarded_call@H@@QEAAH$$QEAV<lambda_638799b9deba96c50f710eeac98168cd>@@AEAV<lambda_22ebabd17bc4fa466a2aca6d8deb888d>@@$$QEAV<lambda_a6f7d7db0129f75315ebf26d50c089f1>@@@Z 000000018002f77c     libucrt:onexit.obj
 0002:0000c7a0       $unwind$??$?RV<lambda_7777bce6b2f8c936911f934f8298dc43>@@AEAV<lambda_f03950bc5685219e0bcd2087efbe011e>@@V<lambda_3883c3dff614d5e0c5f61bb1ac94921c>@@@?$__crt_seh_guarded_call@H@@QEAAH$$QEAV<lambda_7777bce6b2f8c936911f934f8298dc43>@@AEAV<lambda_f03950bc5685219e0bcd2087efbe011e>@@$$QEAV<lambda_3883c3dff614d5e0c5f61bb1ac94921c>@@@Z 000000018002f7a0     libucrt:onexit.obj
 0002:0000c7c4       $unwind$_query_new_handler 000000018002f7c4     libucrt:new_handler.obj
 0002:0000c7e4       $unwind$terminate          000000018002f7e4     libucrt:terminate.obj
 0002:0000c804       $unwind$??$parse_integer@KV?$c_string_character_source@_W@__crt_strtox@@@__crt_strtox@@YAKQEAU__crt_locale_pointers@@V?$c_string_character_source@_W@0@H_N@Z 000000018002f804     libucrt:atox.obj
 0002:0000c820       $xdatasym                  000000018002f820     libucrt:strncmp.obj
 0002:0000c824       $unwind$?construct_ptd_array@@YAXQEAU__acrt_ptd@@@Z 000000018002f824     libucrt:per_thread_data.obj
 0002:0000c82c       $unwind$?destroy_ptd_array@@YAXQEAU__acrt_ptd@@@Z 000000018002f82c     libucrt:per_thread_data.obj
 0002:0000c834       $unwind$??$?RV<lambda_0ae27a3a962d80f24befdcbee591983d>@@AEAV<lambda_8d0ee55de4b1038c4002e0adecdf1839>@@V<lambda_dc504788e8f1664fe9b84e20bfb512f2>@@@?$__crt_seh_guarded_call@X@@QEAAX$$QEAV<lambda_0ae27a3a962d80f24befdcbee591983d>@@AEAV<lambda_8d0ee55de4b1038c4002e0adecdf1839>@@$$QEAV<lambda_dc504788e8f1664fe9b84e20bfb512f2>@@@Z 000000018002f834     libucrt:per_thread_data.obj
 0002:0000c858       $unwind$??$?RV<lambda_aa87e3671a710a21b5dc78c0bdf72e11>@@AEAV<lambda_92619d2358a28f41a33ba319515a20b9>@@V<lambda_6992ecaafeb10aed2b74cb1fae11a551>@@@?$__crt_seh_guarded_call@X@@QEAAX$$QEAV<lambda_aa87e3671a710a21b5dc78c0bdf72e11>@@AEAV<lambda_92619d2358a28f41a33ba319515a20b9>@@$$QEAV<lambda_6992ecaafeb10aed2b74cb1fae11a551>@@@Z 000000018002f858     libucrt:per_thread_data.obj
 0002:0000c87c       $unwind$??$?RV<lambda_f2e299630e499de9f9a165e60fcd3db5>@@AEAV<lambda_2ae9d31cdba2644fcbeaf08da7c24588>@@V<lambda_40d01ff24d0e7b3814fdbdcee8eab3c7>@@@?$__crt_seh_guarded_call@X@@QEAAX$$QEAV<lambda_f2e299630e499de9f9a165e60fcd3db5>@@AEAV<lambda_2ae9d31cdba2644fcbeaf08da7c24588>@@$$QEAV<lambda_40d01ff24d0e7b3814fdbdcee8eab3c7>@@@Z 000000018002f87c     libucrt:per_thread_data.obj
 0002:0000c8a0       $unwind$??$?RV<lambda_2d41944a1d46af3157314b8a01080d33>@@AEAV<lambda_8f455de75cd7d7f24b4096f044d8b9e6>@@V<lambda_aa500f224e6afead328df44964fe2772>@@@?$__crt_seh_guarded_call@X@@QEAAX$$QEAV<lambda_2d41944a1d46af3157314b8a01080d33>@@AEAV<lambda_8f455de75cd7d7f24b4096f044d8b9e6>@@$$QEAV<lambda_aa500f224e6afead328df44964fe2772>@@@Z 000000018002f8a0     libucrt:per_thread_data.obj
 0002:0000c8c4       $unwind$__acrt_initialize_winapi_thunks 000000018002f8c4     libucrt:winapi_thunks.obj
 0002:0000c8cc       $unwind$__acrt_fp_format   000000018002f8cc     libucrt:cvt.obj
 0002:0000c8e4       $unwind$?fp_format_e_internal@@YAHQEAD_KH_NIQEAU_strflt@@2QEAU__crt_locale_pointers@@@Z 000000018002f8e4     libucrt:cvt.obj
 0002:0000c8fc       $unwind$?fp_format_a@@YAHQEBNPEAD_KQEAD2H_NIQEAU__crt_locale_pointers@@W4__acrt_rounding_mode@@@Z 000000018002f8fc     libucrt:cvt.obj
 0002:0000c918       $unwind$?fp_format_g@@YAHQEBNQEAD_K12H_NIQEAU__crt_locale_pointers@@@Z 000000018002f918     libucrt:cvt.obj
 0002:0000c92c       $unwind$__acrt_uninitialize_locale 000000018002f92c     libucrt:wsetlocale.obj
 0002:0000c92c       $unwind$__acrt_get_sigabrt_handler 000000018002f92c     libucrt:signal.obj
 0002:0000c934       $unwind$??$?RV<lambda_410d79af7f07d98d83a3f525b3859a53>@@AEAV<lambda_3e16ef9562a7dcce91392c22ab16ea36>@@V<lambda_38119f0e861e05405d8a144b9b982f0a>@@@?$__crt_seh_guarded_call@X@@QEAAX$$QEAV<lambda_410d79af7f07d98d83a3f525b3859a53>@@AEAV<lambda_3e16ef9562a7dcce91392c22ab16ea36>@@$$QEAV<lambda_38119f0e861e05405d8a144b9b982f0a>@@@Z 000000018002f934     libucrt:wsetlocale.obj
 0002:0000c95c       $unwind$__acrt_initialize_lowio 000000018002f95c     libucrt:ioinit.obj
 0002:0000c97c       $unwind$??$common_expand_argv_wildcards@D@@YAHQEAPEADQEAPEAPEAD@Z 000000018002f97c     libucrt:argv_wildcards.obj
 0002:0000c994       $unwind$??$copy_and_add_argument_to_buffer@D@@YAHQEBD0_KAEAV?$argument_list@D@?A0x5f5c8891@@@Z 000000018002f994     libucrt:argv_wildcards.obj
 0002:0000c9b0       $unwind$??$expand_argument_wildcards@D@@YAHQEAD0AEAV?$argument_list@D@?A0x5f5c8891@@@Z 000000018002f9b0     libucrt:argv_wildcards.obj
 0002:0000c9d4       $unwind$__acrt_GetModuleFileNameA 000000018002f9d4     libucrt:getmodulefilenamea.obj
 0002:0000c9f0       $unwind$_setmbcp_nolock    000000018002f9f0     libucrt:mbctype.obj
 0002:0000ca10       $unwind$?update_thread_multibyte_data_internal@@YAPEAU__crt_multibyte_data@@QEAU__acrt_ptd@@QEAPEAU1@@Z 000000018002fa10     libucrt:mbctype.obj
 0002:0000ca38       $unwind$?setmbcp_internal@@YAHH_NQEAU__acrt_ptd@@QEAPEAU__crt_multibyte_data@@@Z 000000018002fa38     libucrt:mbctype.obj
 0002:0000ca48       $unwind$?setSBUpLow@@YAXPEAU__crt_multibyte_data@@@Z 000000018002fa48     libucrt:mbctype.obj
 0002:0000ca64       $unwind$??$?RV<lambda_efdfa57d1f175319df784efa44bb7b81>@@AEAV<lambda_5f0a4c1567f8adc6734073e5d1e1b35c>@@V<lambda_2e8a7d3640ea6ccb4c2413664c2db6fd>@@@?$__crt_seh_guarded_call@X@@QEAAX$$QEAV<lambda_efdfa57d1f175319df784efa44bb7b81>@@AEAV<lambda_5f0a4c1567f8adc6734073e5d1e1b35c>@@$$QEAV<lambda_2e8a7d3640ea6ccb4c2413664c2db6fd>@@@Z 000000018002fa64     libucrt:mbctype.obj
 0002:0000ca88       $unwind$__acrt_WideCharToMultiByte 000000018002fa88     libucrt:widechartomultibyte.obj
 0002:0000ca94       $unwind$raise              000000018002fa94     libucrt:signal.obj
 0002:0000cad0       $unwind$??$?RV<lambda_450d765d439847d4c735a33c368b5fc0>@@AEAV<lambda_44731a7d0e6d81c3e6aa82d741081786>@@V<lambda_601a2a7da3b7a96e9554ac7215c4b07c>@@@?$__crt_seh_guarded_call@P6AXH@Z@@QEAAP6AXH@Z$$QEAV<lambda_450d765d439847d4c735a33c368b5fc0>@@AEAV<lambda_44731a7d0e6d81c3e6aa82d741081786>@@$$QEAV<lambda_601a2a7da3b7a96e9554ac7215c4b07c>@@@Z 000000018002fad0     libucrt:signal.obj
 0002:0000caf4       $unwind$?common_flush_all@@YAH_N@Z 000000018002faf4     libucrt:fflush.obj
 0002:0000cafc       $unwind$??$?RV<lambda_842d9ff0dc9ef11c61343bbaebe7f885>@@AEAV<lambda_c5860995281e5c4ce005b3de8f5874ee>@@V<lambda_d90129c13df834fdcbf8d2b88dafcf2d>@@@?$__crt_seh_guarded_call@X@@QEAAX$$QEAV<lambda_842d9ff0dc9ef11c61343bbaebe7f885>@@AEAV<lambda_c5860995281e5c4ce005b3de8f5874ee>@@$$QEAV<lambda_d90129c13df834fdcbf8d2b88dafcf2d>@@@Z 000000018002fafc     libucrt:fflush.obj
 0002:0000cb20       $unwind$??$?RV<lambda_886d6c58226a84441f68b9f2b8217b83>@@AEAV<lambda_ab61a845afdef5b7c387490eaf3616ee>@@V<lambda_f7f22ab5edc0698d5f6905b0d3f44752>@@@?$__crt_seh_guarded_call@X@@QEAAX$$QEAV<lambda_886d6c58226a84441f68b9f2b8217b83>@@AEAV<lambda_ab61a845afdef5b7c387490eaf3616ee>@@$$QEAV<lambda_f7f22ab5edc0698d5f6905b0d3f44752>@@@Z 000000018002fb20     libucrt:fflush.obj
 0002:0000cb48       $unwind$__acrt_update_thread_locale_data 000000018002fb48     libucrt:locale_refcounting.obj
 0002:0000cb6c       $unwind$?__mbrtowc_utf8@__crt_mbstring@@YA_KPEA_WPEBD_KPEAU_Mbstatet@@@Z 000000018002fb6c     libucrt:mbrtowc.obj
 0002:0000cb74       $unwind$?__mbsrtowcs_utf8@__crt_mbstring@@YA_KPEA_WPEAPEBD_KPEAU_Mbstatet@@@Z 000000018002fb74     libucrt:mbrtowc.obj
 0002:0000cb8c       $unwind$__acrt_fltout      000000018002fb8c     libucrt:cfout.obj
 0002:0000cbac       $unwind$?divide@__crt_strtox@@YA_KAEAUbig_integer@1@AEBU21@@Z 000000018002fbac     libucrt:cfout.obj
 0002:0000cbc4       $chain$0$?divide@__crt_strtox@@YA_KAEAUbig_integer@1@AEBU21@@Z 000000018002fbc4     libucrt:cfout.obj
 0002:0000cbd8       $chain$1$?divide@__crt_strtox@@YA_KAEAUbig_integer@1@AEBU21@@Z 000000018002fbd8     libucrt:cfout.obj
 0002:0000cbe8       $unwind$_fcloseall         000000018002fbe8     libucrt:closeall.obj
 0002:0000cc0c       $unwind$__acrt_locale_free_monetary 000000018002fc0c     libucrt:initmon.obj
 0002:0000cc14       $unwind$__acrt_locale_free_time 000000018002fc14     libucrt:inittime.obj
 0002:0000cc24       $unwind$__acrt_GetStringTypeA 000000018002fc24     libucrt:getstringtypea.obj
 0002:0000cc4c       $unwind$__acrt_lowio_destroy_handle_array 000000018002fc4c     libucrt:osfinfo.obj
 0002:0000cc5c       $unwind$__acrt_lowio_ensure_fh_exists 000000018002fc5c     libucrt:osfinfo.obj
 0002:0000cc88       $unwind$qsort              000000018002fc88     libucrt:qsort.obj
 0002:0000cca0       $chain$4$qsort             000000018002fca0     libucrt:qsort.obj
 0002:0000ccc4       $chain$5$qsort             000000018002fcc4     libucrt:qsort.obj
 0002:0000ccd4       $unwind$strpbrk            000000018002fcd4     libucrt:strpbrk.obj
 0002:0000cce4       $unwind$fallbackMethod     000000018002fce4     libucrt:strpbrk.obj
 0002:0000ccf4       $unwind$__acrt_LCMapStringA 000000018002fcf4     libucrt:lcmapstringa.obj
 0002:0000cd04       $unwind$?__acrt_LCMapStringA_stat@@YAHPEAU__crt_locale_pointers@@PEB_WKPEBDHPEADHHH@Z 000000018002fd04     libucrt:lcmapstringa.obj
 0002:0000cd2c       $unwind$_close             000000018002fd2c     libucrt:close.obj
 0002:0000cd2c       $unwind$_commit            000000018002fd2c     libucrt:commit.obj
 0002:0000cd34       $unwind$??$?RV<lambda_a37b2b86f63e897a80ea819b0eb08c01>@@AEAV<lambda_38ce7e780aa69e748d6df282ebc68efe>@@V<lambda_99fb1378e971ab6e7edea83e3a7a83a2>@@@?$__crt_seh_guarded_call@H@@QEAAH$$QEAV<lambda_a37b2b86f63e897a80ea819b0eb08c01>@@AEAV<lambda_38ce7e780aa69e748d6df282ebc68efe>@@$$QEAV<lambda_99fb1378e971ab6e7edea83e3a7a83a2>@@@Z 000000018002fd34     libucrt:commit.obj
 0002:0000cd58       $unwind$_write             000000018002fd58     libucrt:write.obj
 0002:0000cd88       $unwind$_write_nolock      000000018002fd88     libucrt:write.obj
 0002:0000cda0       $unwind$?write_double_translated_ansi_nolock@@YA?AUwrite_result@?A0x17268360@@HQEBDI@Z 000000018002fda0     libucrt:write.obj
 0002:0000cdc4       $unwind$?write_text_ansi_nolock@@YA?AUwrite_result@?A0x17268360@@HQEBDI@Z 000000018002fdc4     libucrt:write.obj
 0002:0000cdc4       $unwind$?write_text_utf16le_nolock@@YA?AUwrite_result@?A0x17268360@@HQEBDI@Z 000000018002fdc4     libucrt:write.obj
 0002:0000cde4       $unwind$?write_text_utf8_nolock@@YA?AUwrite_result@?A0x17268360@@HQEBDI@Z 000000018002fde4     libucrt:write.obj
 0002:0000ce08       $xdatasym                  000000018002fe08     libucrt:log10.obj
 0002:0000ce14       $unwind$__acrt_fenv_set_control 000000018002fe14     libucrt:_fenvutils.obj
 0002:0000ce24       $unwind$fclose             000000018002fe24     libucrt:fclose.obj
 0002:0000ce48       $unwind$_putwch_nolock     000000018002fe48     libucrt:putwch.obj
 0002:0000ce50       $unwind$common_control87   000000018002fe50     libucrt:ieee.obj
 0002:0000ce7c       $unwind$_call_matherr      000000018002fe7c     libucrt:libm_error.obj
 0002:0000ce84       $unwind$_handle_error      000000018002fe84     libucrt:libm_error.obj
 0002:0000cea4       $unwind$__acrt_initialize_fma3 000000018002fea4     libucrt:fma3_available.obj
 0002:0000ceac       $unwind$_log_special_common 000000018002feac     libucrt:log_special.obj
 0002:0000ceb8       $unwind$??$?RV<lambda_751a882b2c74d4b022dec766aa51a29a>@@AEAV<lambda_628dfdc04ba53c8bfc02c9951375f3f5>@@V<lambda_f6c7be5f7998530c34de24c7437d6b54>@@@?$__crt_seh_guarded_call@H@@QEAAH$$QEAV<lambda_751a882b2c74d4b022dec766aa51a29a>@@AEAV<lambda_628dfdc04ba53c8bfc02c9951375f3f5>@@$$QEAV<lambda_f6c7be5f7998530c34de24c7437d6b54>@@@Z 000000018002feb8     libucrt:close.obj
 0002:0000cee0       $xdatasym                  000000018002fee0     libucrt:fpsr.obj
 0002:0000cee8       $unwind$_raise_exc_ex      000000018002fee8     libucrt:fpexcept.obj
 0002:0000cefc       $unwind$_ctrlfp            000000018002fefc     libucrt:fpctrl.obj
 0002:0000cf24       $unwind$_IsNonwritableInCurrentImage 000000018002ff24     LIBCMT:pesect.obj
 0002:0000d0b0       .edata                     00000001800300b0     OPOSPINPad.exp
 0002:0000d0d8       rgpv                       00000001800300d8     OPOSPINPad.exp
 0002:0000d0e8       rgszName                   00000001800300e8     OPOSPINPad.exp
 0002:0000d0f8       rgwOrd                     00000001800300f8     OPOSPINPad.exp
 0002:0000d100       szName                     0000000180030100     OPOSPINPad.exp
 0002:0000d10f       $N00001                    000000018003010f     OPOSPINPad.exp
 0002:0000d11f       $N00002                    000000018003011f     OPOSPINPad.exp
 0002:0000d131       $N00003                    0000000180030131     OPOSPINPad.exp
 0002:0000d143       $N00004                    0000000180030143     OPOSPINPad.exp
 0002:0000da72       .idata$6                   0000000180030a72     kernel32:KERNEL32.dll
 0002:0000dc8a       .idata$6                   0000000180030c8a     user32:USER32.dll
 0002:0000ddbe       .idata$6                   0000000180030dbe     gdi32:GDI32.dll
 0002:0000de64       .idata$6                   0000000180030e64     advapi32:ADVAPI32.dll
 0002:0000df80       .idata$6                   0000000180030f80     ole32:ole32.dll
 0002:0000df8a       .idata$6                   0000000180030f8a     oleaut32:OLEAUT32.dll
 0003:000001c0       ?ObjectMap@@3PAU_ATL_OBJMAP_ENTRY30@ATL@@A 00000001800321c0     PINPad.obj
 0003:000002c0       ?s_SOMethodNames@@3PAPEADA 00000001800322c0     PINPadImpl.obj
 0003:00000398       ?s_RequiredMethodsPerRelease@@3PAHA 0000000180032398     PINPadImpl.obj
 0003:000003f0       ?__vcrt_flsindex@@3KA      00000001800323f0     libvcruntime:per_thread_data.obj
 0003:00000400       ?errno_no_memory@@3HA      0000000180032400     libucrt:errno.obj
 0003:00000404       ?doserrno_no_memory@@3KA   0000000180032404     libucrt:errno.obj
 0003:00000410       ?__acrt_flsindex@@3KA      0000000180032410     libucrt:per_thread_data.obj
 0003:000008d0       _mbctypes                  00000001800328d0     libucrt:mbctype.obj
 0003:000009e0       _mbcasemaps                00000001800329e0     libucrt:mbctype.obj
 0003:00000ae0       ?__rgctypeflag@@3PADA      0000000180032ae0     libucrt:mbctype.obj
 0003:00000af0       ?__rgcode_page_info@@3PAUcode_page_info@@A 0000000180032af0     libucrt:mbctype.obj
 0003:00000d90       ?dazSupported@?1??common_control87@@9@9 0000000180032d90     libucrt:ieee.obj
 0003:00000da0       ?__dcrt_lowio_console_output_handle@@3PEAXEA 0000000180032da0     libucrt:initcon.obj
 0003:00000db0       ?dazSupported@?1??_ctrlfp@@9@9 0000000180032db0     libucrt:fpctrl.obj
 0003:00001000       ?is_initialized_as_dll@@3_NA 0000000180033000     LIBCMT:utility.obj
 0003:00001001       ?module_local_atexit_table_initialized@@3_NA 0000000180033001     LIBCMT:utility.obj
 0003:00001008       ?module_local_atexit_table@@3U_onexit_table_t@@A 0000000180033008     LIBCMT:utility.obj
 0003:00001020       ?module_local_at_quick_exit_table@@3U_onexit_table_t@@A 0000000180033020     LIBCMT:utility.obj
 0003:00001038       ?g_tss_cv@@3U_RTL_CONDITION_VARIABLE@@A 0000000180033038     LIBCMT:thread_safe_statics.obj
 0003:00001040       ?g_tss_event@@3PEAXEA      0000000180033040     LIBCMT:thread_safe_statics.obj
 0003:00001048       ?g_tss_mutex@@3U_RTL_CRITICAL_SECTION@@A 0000000180033048     LIBCMT:thread_safe_statics.obj
 0003:00001070       ?g_sleep_condition_variable_cs@@3P6AHPEAU_RTL_CONDITION_VARIABLE@@PEAU_RTL_CRITICAL_SECTION@@K@ZEA 0000000180033070     LIBCMT:thread_safe_statics.obj
 0003:00001078       ?g_wake_all_condition_variable@@3P6AXPEAU_RTL_CONDITION_VARIABLE@@@ZEA 0000000180033078     LIBCMT:thread_safe_statics.obj
 0003:00001080       GS_ExceptionRecord         0000000180033080     LIBCMT:gs_report.obj
 0003:00001120       GS_ContextRecord           0000000180033120     LIBCMT:gs_report.obj
 0003:000015f4       ?__proc_attached@@3HA      00000001800335f4     LIBCMT:dll_dllmain.obj
 0003:00001698       ?AllocateData@@3P6APEAUAtlThunkData_t@@XZEA 0000000180033698     atls:atlthunk.obj
 0003:000016a0       ?InitData@@3P6AXPEAUAtlThunkData_t@@PEAX_K@ZEA 00000001800336a0     atls:atlthunk.obj
 0003:000016a8       ?DataToCode@@3P6AP6A_JPEAUHWND__@@I_K_J@ZPEAUAtlThunkData_t@@@ZEA 00000001800336a8     atls:atlthunk.obj
 0003:000016b0       ?FreeData@@3P6AXPEAUAtlThunkData_t@@@ZEA 00000001800336b0     atls:atlthunk.obj
 0003:000016b8       ?Initialized@@3_NA         00000001800336b8     atls:atlthunk.obj
 0003:000016d0       ?__vcrt_startup_thread_ptd@@3U__vcrt_ptd@@A 00000001800336d0     libvcruntime:per_thread_data.obj
 0003:00001750       __vcrt_lock_table          0000000180033750     libvcruntime:locks.obj
 0003:00001778       __vcrt_locks_initialized   0000000180033778     libvcruntime:locks.obj
 0003:000017c0       ?heap@@3V_HeapManager@@A   00000001800337c0     libvcruntime:undname.obj
 0003:000017e8       ?module_handles@@3PAPEAUHINSTANCE__@@A 00000001800337e8     libvcruntime:winapi_downlevel.obj
 0003:00001800       ?function_pointers@@3PAPEAXA 0000000180033800     libvcruntime:winapi_downlevel.obj
 0003:00001828       ?__acrt_invalid_parameter_handler@@3V?$dual_state_global@P6AXPEB_W00I_K@Z@__crt_state_management@@A 0000000180033828     libucrt:invalid_parameter.obj
 0003:00001830       ?c_termination_complete@@3JA 0000000180033830     libucrt:exit.obj
 0003:00001838       ?thread_local_exit_callback_func@@3P6AXPEAXK0@ZEA 0000000180033838     libucrt:exit.obj
 0003:00001850       ?program_name@?1???$common_configure_argv@D@@YAHW4_crt_argv_mode@@@Z@4PADA 0000000180033850     libucrt:argv_parsing.obj
 0003:000019a8       ?__acrt_new_handler@@3V?$dual_state_global@P6AH_K@Z@__crt_state_management@@A 00000001800339a8     libucrt:new_handler.obj
 0003:000019b0       ?module_handles@@3PAPEAUHINSTANCE__@@A 00000001800339b0     libucrt:winapi_thunks.obj
 0003:00001a50       ?encoded_function_pointers@@3PAPEAXA 0000000180033a50     libucrt:winapi_thunks.obj
 0003:00001b60       ?internal_state@?1??_mbtowc_l@@9@4U_Mbstatet@@A 0000000180033b60     libucrt:mbtowc.obj
 0003:00001b78       ?enable_percent_n@@3_KA    0000000180033b78     libucrt:printf_count_output.obj
 0003:00001fb0       ?__acrt_lock_table@@3PAU_RTL_CRITICAL_SECTION@@A 0000000180033fb0     libucrt:locks.obj
 0003:000021e0       ?__acrt_locks_initialized@@3IA 00000001800341e0     libucrt:locks.obj
 0003:00002200       ?fSystemSet@@3HA           0000000180034200     libucrt:mbctype.obj
 0003:00002204       ?initialized@?1??__acrt_initialize_multibyte@@9@4_NA 0000000180034204     libucrt:mbctype.obj
 0003:00002240       ?ctrlc_action@@3V?$dual_state_global@P6AXH@Z@__crt_state_management@@A 0000000180034240     libucrt:signal.obj
 0003:00002248       ?ctrlbreak_action@@3V?$dual_state_global@P6AXH@Z@__crt_state_management@@A 0000000180034248     libucrt:signal.obj
 0003:00002250       ?abort_action@@3V?$dual_state_global@P6AXH@Z@__crt_state_management@@A 0000000180034250     libucrt:signal.obj
 0003:00002258       ?term_action@@3V?$dual_state_global@P6AXH@Z@__crt_state_management@@A 0000000180034258     libucrt:signal.obj
 0003:00002260       ?user_matherr@@3V?$dual_state_global@P6AHPEAU_exception@@@Z@__crt_state_management@@A 0000000180034260     libucrt:matherr.obj
 0003:00002268       ?__acrt_global_new_mode@@3V?$dual_state_global@J@__crt_state_management@@A 0000000180034268     libucrt:new_mode.obj
 0003:00002278       ?internal_pst@?1??__mbrtoc32_utf8@__crt_mbstring@@YA_KPEA_UPEBD_KPEAU_Mbstatet@@@Z@4U3@A 0000000180034278     libucrt:mbrtoc32.obj
 0003:00002280       ?__acrt_app_type@@3W4_crt_app_type@@A 0000000180034280     libucrt:report_runtime_error.obj
 0005:00000000       MoveSmall                  0000000180037000     libvcruntime:memcpy.obj
 0005:00000050       MsetTab                    0000000180037050     libvcruntime:memset.obj
 0006:00000220       $R000000                   0000000180038220     PINPad.res
 0006:00000ba0       $R000980                   0000000180038ba0     PINPad.res
 0006:00000c88       $R000A68                   0000000180038c88     PINPad.res
 0006:00000ef0       $R000CD0                   0000000180038ef0     PINPad.res
 0006:00001438       $R001218                   0000000180039438     PINPad.res
 0006:00004c18       $R0049F8                   000000018003cc18     PINPad.res
 0006:00004c48       $R004A28                   000000018003cc48     PINPad.res
