 OPOSImageScanner

 Timestamp is 5d429e29 (Thu Aug  1 17:09:13 2019)

 Preferred load address is 0000000180000000

 Start         Length     Name                   Class
 0001:00000000 000000c0H .text$di                CODE
 0001:000000c0 000200b0H .text$mn                CODE
 0001:00020170 00000020H .text$mn$00             CODE
 0001:00020190 00000400H .text$x                 CODE
 0001:00020590 000000c0H .text$yd                CODE
 0002:00000000 00000618H .idata$5                DATA
 0002:00000618 00000010H .00cfg                  DATA
 0002:00000628 00000008H .CRT$XCA                DATA
 0002:00000630 00000008H .CRT$XCL                DATA
 0002:00000638 00000020H .CRT$XCU                DATA
 0002:00000658 00000008H .CRT$XCZ                DATA
 0002:00000660 00000008H .CRT$XIA                DATA
 0002:00000668 00000020H .CRT$XIC                DATA
 0002:00000688 00000008H .CRT$XIZ                DATA
 0002:00000690 00000008H .CRT$XLA                DATA
 0002:00000698 00000008H .CRT$XLZ                DATA
 0002:000006a0 00000008H .CRT$XPA                DATA
 0002:000006a8 00000010H .CRT$XPX                DATA
 0002:000006b8 00000008H .CRT$XPXA               DATA
 0002:000006c0 00000008H .CRT$XPZ                DATA
 0002:000006c8 00000008H .CRT$XTA                DATA
 0002:000006d0 00000010H .CRT$XTZ                DATA
 0002:000006d8 00000000H .gfids$y                DATA
 0002:000006e0 0000a138H .rdata                  DATA
 0002:0000a818 00000028H .rdata$T                DATA
 0002:0000a840 00000274H .rdata$r                DATA
 0002:0000aab4 0000040cH .rdata$zzzdbg           DATA
 0002:0000aec0 00000008H .rtc$IAA                DATA
 0002:0000aec8 00000008H .rtc$IZZ                DATA
 0002:0000aed0 00000008H .rtc$TAA                DATA
 0002:0000aed8 00000008H .rtc$TZZ                DATA
 0002:0000aee0 00000004H .tls                    DATA
 0002:0000aee4 00000004H .tls$                   DATA
 0002:0000aee8 00000008H .tls$ZZZ                DATA
 0002:0000aef0 00001618H .xdata                  DATA
 0002:0000c508 00000150H .xdata$x                DATA
 0002:0000c658 00000008H ATL$__a                 DATA
 0002:0000c660 00000010H ATL$__z                 DATA
 0002:0000c670 000000b0H .edata                  DATA
 0002:0000c720 00000078H .idata$2                DATA
 0002:0000c798 00000018H .idata$3                DATA
 0002:0000c7b0 00000618H .idata$4                DATA
 0002:0000cdc8 00000c24H .idata$6                DATA
 0003:00000000 00000d58H .data                   DATA
 0003:00000d58 000000c8H .data$r                 DATA
 0003:00000e20 0000140cH .bss                    DATA
 0004:00000000 00001eccH .pdata                  DATA
 0005:00000000 00000094H _RDATA                  DATA
 0006:00000000 00000220H .rsrc$01                DATA
 0006:00000220 00004350H .rsrc$02                DATA

  Address         Publics by Value              Rva+Base               Lib:Object

 0000:00000000       __guard_fids_count         0000000000000000     <absolute>
 0000:00000000       __guard_longjmp_count      0000000000000000     <absolute>
 0000:00000000       __guard_longjmp_table      0000000000000000     <absolute>
 0000:00000000       __hybrid_code_map          0000000000000000     <absolute>
 0000:00000000       __guard_iat_count          0000000000000000     <absolute>
 0000:00000000       __volatile_metadata        0000000000000000     <absolute>
 0000:00000000       __guard_iat_table          0000000000000000     <absolute>
 0000:00000000       __hybrid_code_map_count    0000000000000000     <absolute>
 0000:00000000       __enclave_config           0000000000000000     <absolute>
 0000:00000000       ___safe_se_handler_count   0000000000000000     <absolute>
 0000:00000000       __AbsoluteZero             0000000000000000     <absolute>
 0000:00000000       ___safe_se_handler_table   0000000000000000     <absolute>
 0000:00000000       __guard_fids_table         0000000000000000     <absolute>
 0000:00000000       __hybrid_auxiliary_iat     0000000000000000     <absolute>
 0000:00000000       __dynamic_value_reloc_table 0000000000000000     <absolute>
 0000:00000100       __guard_flags              0000000000000100     <absolute>
 0000:00000000       __ImageBase                0000000180000000     <linker-defined>
 0001:000000c0       ?DupWide@_CW@@AEAAXXZ      00000001800010c0 f   CWString.obj
 0001:000000e8       ?cw_dup@@YAXPEBDAEAHAEAPEA_W1@Z 00000001800010e8 f   CWString.obj
 0001:00000194       ?cw_memcpy@@YAHPEA_WPEBDH@Z 0000000180001194 f   CWString.obj
 0001:000001e0       ?cw_strcpy@@YAHPEA_WPEBD@Z 00000001800011e0 f   CWString.obj
 0001:000001f4       ??0CAtlComModule@ATL@@QEAA@XZ 00000001800011f4 f i OposVariant.obj
 0001:00000274       ??0CAtlWinModule@ATL@@QEAA@XZ 0000000180001274 f i OposVariant.obj
 0001:000002e0       ??0OposDispParms@@QEAA@PEAVOposVariant@@H@Z 00000001800012e0 f   OposVariant.obj
 0001:00000388       ??1OposDispParms@@QEAA@XZ  0000000180001388 f   OposVariant.obj
 0001:000003a0       ??_Estringdispid@CComTypeInfoHolder@ATL@@QEAAPEAXI@Z 00000001800013a0 f i OposVariant.obj
 0001:00000444       ?AtlWinModuleTerm@ATL@@YAJPEAU_ATL_WIN_MODULE70@1@PEAUHINSTANCE__@@@Z 0000000180001444 f i OposVariant.obj
 0001:000004f4       ?ChangeBSTR@OposVariant@@QEAAXPEAPEA_WAEAJ@Z 00000001800014f4 f   OposVariant.obj
 0001:00000554       ?ChangeLONG@OposVariant@@QEAAXPEAJAEAJ@Z 0000000180001554 f   OposVariant.obj
 0001:000005b0       ?GetLONG@OposVariant@@QEAAJXZ 00000001800015b0 f   OposVariant.obj
 0001:000005d4       ?SetBSTR@OposVariant@@QEAAXPEA_WAEAJ@Z 00000001800015d4 f   OposVariant.obj
 0001:00000614       ?SetBSTR_Copy@OposVariant@@QEAAXPEA_WAEAJ@Z 0000000180001614 f   OposVariant.obj
 0001:00000684       ?SetBSTR_InOutPtr@OposVariant@@QEAA_NPEAPEA_WAEAJ@Z 0000000180001684 f   OposVariant.obj
 0001:000006d4       ?SetDispatch_Ptr@OposVariant@@QEAAXPEAUIDispatch@@AEAJ@Z 00000001800016d4 f   OposVariant.obj
 0001:0000072c       ?SetLONG@OposVariant@@QEAAXJ@Z 000000018000172c f   OposVariant.obj
 0001:0000075c       ?SetLONG_Ptr@OposVariant@@QEAAXPEAJAEAJ@Z 000000018000175c f   OposVariant.obj
 0001:000007a8       ?SetString@OposVariant@@QEAAXPEB_WAEAJ@Z 00000001800017a8 f   OposVariant.obj
 0001:0000080c       ?SetVARIANT_BOOL@OposVariant@@QEAAXF@Z 000000018000180c f   OposVariant.obj
 0001:00000844       ?Term@CAtlComModule@ATL@@QEAAXXZ 0000000180001844 f i OposVariant.obj
 0001:000008b4       ?_AtlInitializeCriticalSectionEx@ATL@@YAHPEAU_RTL_CRITICAL_SECTION@@KK@Z 00000001800018b4 f i OposVariant.obj
 0001:000008bc       ?_AtlRaiseException@ATL@@YAXKK@Z 00000001800018bc f i OposVariant.obj
 0001:000008cc       ?AddRef@?$CComObjectCached@VCComClassFactory@ATL@@@ATL@@UEAAKXZ 00000001800018cc f i ImageScanner.obj
 0001:000008f8       ?Release@?$CComObjectCached@VCComClassFactory@ATL@@@ATL@@UEAAKXZ 00000001800018f8 f i ImageScanner.obj
 0001:00000938       ?QueryInterface@?$CComObjectCached@VCComClassFactory@ATL@@@ATL@@UEAAJAEBU_GUID@@PEAPEAX@Z 0000000180001938 f i ImageScanner.obj
 0001:0000094c       ??_G?$CComObjectCached@VCComClassFactory@ATL@@@ATL@@UEAAPEAXI@Z 000000018000194c f i ImageScanner.obj
 0001:0000094c       ??_E?$CComObjectCached@VCComClassFactory@ATL@@@ATL@@UEAAPEAXI@Z 000000018000194c f i ImageScanner.obj
 0001:000009a4       ?AddRef@?$CComAggObject@VCOPOSImageScanner@@@ATL@@UEAAKXZ 00000001800019a4 f i ImageScanner.obj
 0001:000009b0       ?Release@?$CComAggObject@VCOPOSImageScanner@@@ATL@@UEAAKXZ 00000001800019b0 f i ImageScanner.obj
 0001:00000a04       ?QueryInterface@?$CComAggObject@VCOPOSImageScanner@@@ATL@@UEAAJAEBU_GUID@@PEAPEAX@Z 0000000180001a04 f i ImageScanner.obj
 0001:00000a64       ?AddRef@?$CComContainedObject@VCOPOSImageScanner@@@ATL@@UEAAKXZ 0000000180001a64 f i ImageScanner.obj
 0001:00000a74       ?Release@?$CComContainedObject@VCOPOSImageScanner@@@ATL@@UEAAKXZ 0000000180001a74 f i ImageScanner.obj
 0001:00000a84       ?QueryInterface@?$CComContainedObject@VCOPOSImageScanner@@@ATL@@UEAAJAEBU_GUID@@PEAPEAX@Z 0000000180001a84 f i ImageScanner.obj
 0001:00000a94       ??_G?$CComAggObject@VCOPOSImageScanner@@@ATL@@UEAAPEAXI@Z 0000000180001a94 f i ImageScanner.obj
 0001:00000a94       ??_E?$CComAggObject@VCOPOSImageScanner@@@ATL@@UEAAPEAXI@Z 0000000180001a94 f i ImageScanner.obj
 0001:00000aec       ?AddRef@?$CComObject@VCOPOSImageScanner@@@ATL@@UEAAKXZ 0000000180001aec f i ImageScanner.obj
 0001:00000afc       ?Release@?$CComObject@VCOPOSImageScanner@@@ATL@@UEAAKXZ 0000000180001afc f i ImageScanner.obj
 0001:00000b54       ?QueryInterface@?$CComObject@VCOPOSImageScanner@@@ATL@@UEAAJAEBU_GUID@@PEAPEAX@Z 0000000180001b54 f i ImageScanner.obj
 0001:00000b68       ?Lock@CAtlModule@ATL@@UEAAJXZ 0000000180001b68 f i ImageScanner.obj
 0001:00000b78       ?Unlock@CAtlModule@ATL@@UEAAJXZ 0000000180001b78 f i ImageScanner.obj
 0001:00000b84       ?GetLockCount@CAtlModule@ATL@@UEAAJXZ 0000000180001b84 f i ImageScanner.obj
 0001:00000b88       ?GetGITPtr@CAtlModule@ATL@@UEAAJPEAPEAUIGlobalInterfaceTable@@@Z 0000000180001b88 f i ImageScanner.obj
 0001:00000bf8       ?AddCommonRGSReplacements@?$CAtlModuleT@VCComModule@ATL@@@ATL@@UEAAJPEAUIRegistrarBase@@@Z 0000000180001bf8 f i ImageScanner.obj
 0001:00000c10       ?UpdateRegistryFromResourceD@CComModule@ATL@@UEAAJPEB_WHPEAU_ATL_REGMAP_ENTRY@2@@Z 0000000180001c10 f i ImageScanner.obj
 0001:00000c10       ?UpdateRegistryFromResourceD@CComModule@ATL@@UEAAJIHPEAU_ATL_REGMAP_ENTRY@2@@Z 0000000180001c10 f i ImageScanner.obj
 0001:00000c18       ?UpdateRegistryFromResource@CComModule@ATL@@UEAAJPEB_WHPEAU_ATL_REGMAP_ENTRY@2@@Z 0000000180001c18 f i ImageScanner.obj
 0001:00000c20       ?OnDrawAdvanced@CComControlBase@ATL@@UEAAJAEAUATL_DRAWINFO@@@Z 0000000180001c20 f i ImageScanner.obj
 0001:00000d40       ?UpdateRegistryFromResource@CComModule@ATL@@UEAAJIHPEAU_ATL_REGMAP_ENTRY@2@@Z 0000000180001d40 f i ImageScanner.obj
 0001:00000d48       ??_ECComModule@ATL@@UEAAPEAXI@Z 0000000180001d48 f i ImageScanner.obj
 0001:00000d48       ??_GCComModule@ATL@@UEAAPEAXI@Z 0000000180001d48 f i ImageScanner.obj
 0001:00000dc8       ?Next@?$CComEnumImpl@UIEnumConnections@@$1?_GUID_b196b287_bab4_101a_b69c_00aa00341d07@@3U__s_GUID@@BUtagCONNECTDATA@@V?$_Copy@UtagCONNECTDATA@@@ATL@@@ATL@@UEAAJKPEAUtagCONNECTDATA@@PEAK@Z 0000000180001dc8 f i ImageScanner.obj
 0001:00000e9c       ?Skip@?$CComEnumImpl@UIEnumConnections@@$1?_GUID_b196b287_bab4_101a_b69c_00aa00341d07@@3U__s_GUID@@BUtagCONNECTDATA@@V?$_Copy@UtagCONNECTDATA@@@ATL@@@ATL@@UEAAJK@Z 0000000180001e9c f i ImageScanner.obj
 0001:00000ec8       ?Reset@?$CComEnumImpl@UIEnumConnections@@$1?_GUID_b196b287_bab4_101a_b69c_00aa00341d07@@3U__s_GUID@@BUtagCONNECTDATA@@V?$_Copy@UtagCONNECTDATA@@@ATL@@@ATL@@UEAAJXZ 0000000180001ec8 f i ImageScanner.obj
 0001:00000ec8       ?Reset@?$CComEnumImpl@UIEnumConnectionPoints@@$1?_GUID_b196b285_bab4_101a_b69c_00aa00341d07@@3U__s_GUID@@BPEAUIConnectionPoint@@V?$_CopyInterface@UIConnectionPoint@@@ATL@@@ATL@@UEAAJXZ 0000000180001ec8 f i ImageScanner.obj
 0001:00000ed4       ?Clone@?$CComEnumImpl@UIEnumConnections@@$1?_GUID_b196b287_bab4_101a_b69c_00aa00341d07@@3U__s_GUID@@BUtagCONNECTDATA@@V?$_Copy@UtagCONNECTDATA@@@ATL@@@ATL@@UEAAJPEAPEAUIEnumConnections@@@Z 0000000180001ed4 f i ImageScanner.obj
 0001:00001000       ?AddRef@?$CComObject@V?$CComEnum@UIEnumConnections@@$1?_GUID_b196b287_bab4_101a_b69c_00aa00341d07@@3U__s_GUID@@BUtagCONNECTDATA@@V?$_Copy@UtagCONNECTDATA@@@ATL@@VCComSingleThreadModel@6@@ATL@@@ATL@@UEAAKXZ 0000000180002000 f i ImageScanner.obj
 0001:00001000       ?AddRef@?$CComObject@V?$CComEnum@UIEnumConnectionPoints@@$1?_GUID_b196b285_bab4_101a_b69c_00aa00341d07@@3U__s_GUID@@BPEAUIConnectionPoint@@V?$_CopyInterface@UIConnectionPoint@@@ATL@@VCComSingleThreadModel@6@@ATL@@@ATL@@UEAAKXZ 0000000180002000 f i ImageScanner.obj
 0001:0000100c       ?Release@?$CComObject@V?$CComEnum@UIEnumConnectionPoints@@$1?_GUID_b196b285_bab4_101a_b69c_00aa00341d07@@3U__s_GUID@@BPEAUIConnectionPoint@@V?$_CopyInterface@UIConnectionPoint@@@ATL@@VCComSingleThreadModel@6@@ATL@@@ATL@@UEAAKXZ 000000018000200c f i ImageScanner.obj
 0001:0000100c       ?Release@?$CComObject@V?$CComEnum@UIEnumConnections@@$1?_GUID_b196b287_bab4_101a_b69c_00aa00341d07@@3U__s_GUID@@BUtagCONNECTDATA@@V?$_Copy@UtagCONNECTDATA@@@ATL@@VCComSingleThreadModel@6@@ATL@@@ATL@@UEAAKXZ 000000018000200c f i ImageScanner.obj
 0001:00001060       ?QueryInterface@?$CComObject@V?$CComEnum@UIEnumConnections@@$1?_GUID_b196b287_bab4_101a_b69c_00aa00341d07@@3U__s_GUID@@BUtagCONNECTDATA@@V?$_Copy@UtagCONNECTDATA@@@ATL@@VCComSingleThreadModel@6@@ATL@@@ATL@@UEAAJAEBU_GUID@@PEAPEAX@Z 0000000180002060 f i ImageScanner.obj
 0001:00001074       ??_G?$CComObject@V?$CComEnum@UIEnumConnections@@$1?_GUID_b196b287_bab4_101a_b69c_00aa00341d07@@3U__s_GUID@@BUtagCONNECTDATA@@V?$_Copy@UtagCONNECTDATA@@@ATL@@VCComSingleThreadModel@6@@ATL@@@ATL@@UEAAPEAXI@Z 0000000180002074 f i ImageScanner.obj
 0001:00001074       ??_E?$CComObject@V?$CComEnum@UIEnumConnections@@$1?_GUID_b196b287_bab4_101a_b69c_00aa00341d07@@3U__s_GUID@@BUtagCONNECTDATA@@V?$_Copy@UtagCONNECTDATA@@@ATL@@VCComSingleThreadModel@6@@ATL@@@ATL@@UEAAPEAXI@Z 0000000180002074 f i ImageScanner.obj
 0001:000010cc       ?GetDropTarget@?$IOleInPlaceObjectWindowlessImpl@VCOPOSImageScanner@@@ATL@@UEAAJPEAPEAUIDropTarget@@@Z 00000001800020cc f i ImageScanner.obj
 0001:000010cc       ?InitFromData@?$IOleObjectImpl@VCOPOSImageScanner@@@ATL@@UEAAJPEAUIDataObject@@HK@Z 00000001800020cc f i ImageScanner.obj
 0001:000010cc       ?ContextSensitiveHelp@?$IOleInPlaceObjectWindowlessImpl@VCOPOSImageScanner@@@ATL@@UEAAJH@Z 00000001800020cc f i ImageScanner.obj
 0001:000010cc       ?Unfreeze@?$IViewObjectExImpl@VCOPOSImageScanner@@@ATL@@UEAAJK@Z 00000001800020cc f i ImageScanner.obj
 0001:000010cc       ?GetControlInfo@?$IOleControlImpl@VCOPOSImageScanner@@@ATL@@UEAAJPEAUtagCONTROLINFO@@@Z 00000001800020cc f i ImageScanner.obj
 0001:000010cc       ?QueryInterface@CRegObject@ATL@@UEAAJAEBU_GUID@@PEAPEAX@Z 00000001800020cc f i ImageScanner.obj
 0001:000010cc       ?GetRect@?$IViewObjectExImpl@VCOPOSImageScanner@@@ATL@@UEAAJKPEAU_RECTL@@@Z 00000001800020cc f i ImageScanner.obj
 0001:000010cc       ?GetClipboardData@?$IOleObjectImpl@VCOPOSImageScanner@@@ATL@@UEAAJKPEAPEAUIDataObject@@@Z 00000001800020cc f i ImageScanner.obj
 0001:000010cc       ?GetDataHere@?$IDataObjectImpl@VCOPOSImageScanner@@@ATL@@UEAAJPEAUtagFORMATETC@@PEAUtagSTGMEDIUM@@@Z 00000001800020cc f i ImageScanner.obj
 0001:000010cc       ?ReactivateAndUndo@?$IOleInPlaceObjectWindowlessImpl@VCOPOSImageScanner@@@ATL@@UEAAJXZ 00000001800020cc f i ImageScanner.obj
 0001:000010cc       ?EnumFormatEtc@?$IDataObjectImpl@VCOPOSImageScanner@@@ATL@@UEAAJKPEAPEAUIEnumFORMATETC@@@Z 00000001800020cc f i ImageScanner.obj
 0001:000010cc       ?QueryGetData@?$IDataObjectImpl@VCOPOSImageScanner@@@ATL@@UEAAJPEAUtagFORMATETC@@@Z 00000001800020cc f i ImageScanner.obj
 0001:000010cc       ?GetCanonicalFormatEtc@?$IDataObjectImpl@VCOPOSImageScanner@@@ATL@@UEAAJPEAUtagFORMATETC@@0@Z 00000001800020cc f i ImageScanner.obj
 0001:000010cc       ?SetData@?$IDataObjectImpl@VCOPOSImageScanner@@@ATL@@UEAAJPEAUtagFORMATETC@@PEAUtagSTGMEDIUM@@H@Z 00000001800020cc f i ImageScanner.obj
 0001:000010cc       ?Freeze@?$IViewObjectExImpl@VCOPOSImageScanner@@@ATL@@UEAAJKJPEAXPEAK@Z 00000001800020cc f i ImageScanner.obj
 0001:000010cc       ?GetColorSet@?$IViewObjectExImpl@VCOPOSImageScanner@@@ATL@@UEAAJKJPEAXPEAUtagDVTARGETDEVICE@@PEAUHDC__@@PEAPEAUtagLOGPALETTE@@@Z 00000001800020cc f i ImageScanner.obj
 0001:000010cc       ?SetMoniker@?$IOleObjectImpl@VCOPOSImageScanner@@@ATL@@UEAAJKPEAUIMoniker@@@Z 00000001800020cc f i ImageScanner.obj
 0001:000010cc       ?ContextSensitiveHelp@?$IOleInPlaceActiveObjectImpl@VCOPOSImageScanner@@@ATL@@UEAAJH@Z 00000001800020cc f i ImageScanner.obj
 0001:000010cc       ?SOOutputCompleteDummy@COPOSImageScanner@@MEAAJJ@Z 00000001800020cc f i ImageScanner.obj
 0001:000010cc       ?SetColorScheme@?$IOleObjectImpl@VCOPOSImageScanner@@@ATL@@UEAAJPEAUtagLOGPALETTE@@@Z 00000001800020cc f i ImageScanner.obj
 0001:000010cc       ?GetMoniker@?$IOleObjectImpl@VCOPOSImageScanner@@@ATL@@UEAAJKKPEAPEAUIMoniker@@@Z 00000001800020cc f i ImageScanner.obj
 0001:000010cc       ?OnMnemonic@?$IOleControlImpl@VCOPOSImageScanner@@@ATL@@UEAAJPEAUtagMSG@@@Z 00000001800020cc f i ImageScanner.obj
 0001:000010d4       ?FAccessAllowed@?$IObjectSafetyImpl@VCOPOSImageScanner@@$02@ATL@@MEAAHXZ 00000001800020d4 f i ImageScanner.obj
 0001:000010d4       ?AddRef@CRegObject@ATL@@UEAAKXZ 00000001800020d4 f i ImageScanner.obj
 0001:000010d4       _get_startup_argv_mode     00000001800020d4 f i LIBCMT:argv_mode.obj
 0001:000010dc       ?OnAmbientPropertyChange@?$IOleControlImpl@VCOPOSImageScanner@@@ATL@@UEAAJJ@Z 00000001800020dc f i ImageScanner.obj
 0001:000010dc       ?IsUpToDate@?$IOleObjectImpl@VCOPOSImageScanner@@@ATL@@UEAAJXZ 00000001800020dc f i ImageScanner.obj
 0001:000010dc       ?OnFrameWindowActivate@?$IOleInPlaceActiveObjectImpl@VCOPOSImageScanner@@@ATL@@UEAAJH@Z 00000001800020dc f i ImageScanner.obj
 0001:000010dc       ?SaveCompleted@?$IPersistStorageImpl@VCOPOSImageScanner@@@ATL@@UEAAJPEAUIStorage@@@Z 00000001800020dc f i ImageScanner.obj
 0001:000010dc       ?Release@CRegObject@ATL@@UEAAKXZ 00000001800020dc f i ImageScanner.obj
 0001:000010dc       ?HandsOffStorage@?$IPersistStorageImpl@VCOPOSImageScanner@@@ATL@@UEAAJXZ 00000001800020dc f i ImageScanner.obj
 0001:000010dc       ?GetObjectDescription@?$CComCoClass@VCOPOSImageScanner@@$1?CLSID_OPOSImageScanner@@3U_GUID@@B@ATL@@SAPEB_WXZ 00000001800020dc f i ImageScanner.obj
 0001:000010dc       ?ResizeBorder@?$IOleInPlaceActiveObjectImpl@VCOPOSImageScanner@@@ATL@@UEAAJPEBUtagRECT@@PEAUIOleInPlaceUIWindow@@H@Z 00000001800020dc f i ImageScanner.obj
 0001:000010dc       ?GetCategoryMap@CComObjectRootBase@ATL@@SAPEBU_ATL_CATMAP_ENTRY@2@XZ 00000001800020dc f i ImageScanner.obj
 0001:000010dc       ?Update@?$IOleObjectImpl@VCOPOSImageScanner@@@ATL@@UEAAJXZ 00000001800020dc f i ImageScanner.obj
 0001:000010dc       ?EnableModeless@?$IOleInPlaceActiveObjectImpl@VCOPOSImageScanner@@@ATL@@UEAAJH@Z 00000001800020dc f i ImageScanner.obj
 0001:000010dc       ?SetHostNames@?$IOleObjectImpl@VCOPOSImageScanner@@@ATL@@UEAAJPEB_W0@Z 00000001800020dc f i ImageScanner.obj
 0001:000010e0       ?AddReplacement@CRegObject@ATL@@UEAAJPEB_W0@Z 00000001800020e0 f i ImageScanner.obj
 0001:00001110       ?ClearReplacements@CRegObject@ATL@@UEAAJXZ 0000000180002110 f i ImageScanner.obj
 0001:0000111c       ??_GCRegObject@ATL@@UEAAPEAXI@Z 000000018000211c f i ImageScanner.obj
 0001:0000111c       ??_ECRegObject@ATL@@UEAAPEAXI@Z 000000018000211c f i ImageScanner.obj
 0001:0000119c       ??_E?$CComObject@VCOPOSImageScanner@@@ATL@@W7EAAPEAXI@Z 000000018000219c f i ImageScanner.obj
 0001:000011a8       ??_E?$CComObject@VCOPOSImageScanner@@@ATL@@WHA@EAAPEAXI@Z 00000001800021a8 f i ImageScanner.obj
 0001:000011b4       ?QueryInterface@?$CComObject@VCOPOSImageScanner@@@ATL@@WLI@EAAJAEBU_GUID@@PEAPEAX@Z 00000001800021b4 f i ImageScanner.obj
 0001:000011c0       ?AddRef@?$CComObject@VCOPOSImageScanner@@@ATL@@WLI@EAAKXZ 00000001800021c0 f i ImageScanner.obj
 0001:000011cc       ?Release@?$CComObject@VCOPOSImageScanner@@@ATL@@WLI@EAAKXZ 00000001800021cc f i ImageScanner.obj
 0001:000011d8       ?QueryInterface@?$CComObject@VCOPOSImageScanner@@@ATL@@WMA@EAAJAEBU_GUID@@PEAPEAX@Z 00000001800021d8 f i ImageScanner.obj
 0001:000011e4       ?AddRef@?$CComObject@VCOPOSImageScanner@@@ATL@@WMA@EAAKXZ 00000001800021e4 f i ImageScanner.obj
 0001:000011f0       ?Release@?$CComObject@VCOPOSImageScanner@@@ATL@@WMA@EAAKXZ 00000001800021f0 f i ImageScanner.obj
 0001:000011fc       ?QueryInterface@?$CComObject@VCOPOSImageScanner@@@ATL@@WMI@EAAJAEBU_GUID@@PEAPEAX@Z 00000001800021fc f i ImageScanner.obj
 0001:00001208       ?AddRef@?$CComObject@VCOPOSImageScanner@@@ATL@@WMI@EAAKXZ 0000000180002208 f i ImageScanner.obj
 0001:00001214       ?Release@?$CComObject@VCOPOSImageScanner@@@ATL@@WMI@EAAKXZ 0000000180002214 f i ImageScanner.obj
 0001:00001220       ?QueryInterface@?$CComObject@VCOPOSImageScanner@@@ATL@@WNA@EAAJAEBU_GUID@@PEAPEAX@Z 0000000180002220 f i ImageScanner.obj
 0001:0000122c       ?AddRef@?$CComObject@VCOPOSImageScanner@@@ATL@@WNA@EAAKXZ 000000018000222c f i ImageScanner.obj
 0001:00001238       ?Release@?$CComObject@VCOPOSImageScanner@@@ATL@@WNA@EAAKXZ 0000000180002238 f i ImageScanner.obj
 0001:00001244       ?QueryInterface@?$CComObject@VCOPOSImageScanner@@@ATL@@WNI@EAAJAEBU_GUID@@PEAPEAX@Z 0000000180002244 f i ImageScanner.obj
 0001:00001250       ?AddRef@?$CComObject@VCOPOSImageScanner@@@ATL@@WNI@EAAKXZ 0000000180002250 f i ImageScanner.obj
 0001:0000125c       ?Release@?$CComObject@VCOPOSImageScanner@@@ATL@@WNI@EAAKXZ 000000018000225c f i ImageScanner.obj
 0001:00001268       ?QueryInterface@?$CComObject@VCOPOSImageScanner@@@ATL@@WOA@EAAJAEBU_GUID@@PEAPEAX@Z 0000000180002268 f i ImageScanner.obj
 0001:00001274       ?AddRef@?$CComObject@VCOPOSImageScanner@@@ATL@@WOA@EAAKXZ 0000000180002274 f i ImageScanner.obj
 0001:00001280       ?Release@?$CComObject@VCOPOSImageScanner@@@ATL@@WOA@EAAKXZ 0000000180002280 f i ImageScanner.obj
 0001:0000128c       ?QueryInterface@?$CComObject@VCOPOSImageScanner@@@ATL@@WOI@EAAJAEBU_GUID@@PEAPEAX@Z 000000018000228c f i ImageScanner.obj
 0001:00001298       ?AddRef@?$CComObject@VCOPOSImageScanner@@@ATL@@WOI@EAAKXZ 0000000180002298 f i ImageScanner.obj
 0001:000012a4       ?Release@?$CComObject@VCOPOSImageScanner@@@ATL@@WOI@EAAKXZ 00000001800022a4 f i ImageScanner.obj
 0001:000012b0       ?QueryInterface@?$CComObject@VCOPOSImageScanner@@@ATL@@WPA@EAAJAEBU_GUID@@PEAPEAX@Z 00000001800022b0 f i ImageScanner.obj
 0001:000012bc       ?AddRef@?$CComObject@VCOPOSImageScanner@@@ATL@@WPA@EAAKXZ 00000001800022bc f i ImageScanner.obj
 0001:000012c8       ?Release@?$CComObject@VCOPOSImageScanner@@@ATL@@WPA@EAAKXZ 00000001800022c8 f i ImageScanner.obj
 0001:000012d4       ?QueryInterface@?$CComObject@VCOPOSImageScanner@@@ATL@@WPI@EAAJAEBU_GUID@@PEAPEAX@Z 00000001800022d4 f i ImageScanner.obj
 0001:000012e0       ?AddRef@?$CComObject@VCOPOSImageScanner@@@ATL@@WPI@EAAKXZ 00000001800022e0 f i ImageScanner.obj
 0001:000012ec       ?Release@?$CComObject@VCOPOSImageScanner@@@ATL@@WPI@EAAKXZ 00000001800022ec f i ImageScanner.obj
 0001:000012f8       ?QueryInterface@?$CComObject@VCOPOSImageScanner@@@ATL@@WBAA@EAAJAEBU_GUID@@PEAPEAX@Z 00000001800022f8 f i ImageScanner.obj
 0001:00001304       ?AddRef@?$CComObject@VCOPOSImageScanner@@@ATL@@WBAA@EAAKXZ 0000000180002304 f i ImageScanner.obj
 0001:00001310       ?Release@?$CComObject@VCOPOSImageScanner@@@ATL@@WBAA@EAAKXZ 0000000180002310 f i ImageScanner.obj
 0001:0000131c       ?QueryInterface@?$CComObject@VCOPOSImageScanner@@@ATL@@WBAI@EAAJAEBU_GUID@@PEAPEAX@Z 000000018000231c f i ImageScanner.obj
 0001:00001328       ?AddRef@?$CComObject@VCOPOSImageScanner@@@ATL@@WBAI@EAAKXZ 0000000180002328 f i ImageScanner.obj
 0001:00001334       ?Release@?$CComObject@VCOPOSImageScanner@@@ATL@@WBAI@EAAKXZ 0000000180002334 f i ImageScanner.obj
 0001:00001340       ?QueryInterface@?$CComObject@VCOPOSImageScanner@@@ATL@@WBBA@EAAJAEBU_GUID@@PEAPEAX@Z 0000000180002340 f i ImageScanner.obj
 0001:0000134c       ?AddRef@?$CComObject@VCOPOSImageScanner@@@ATL@@WBBA@EAAKXZ 000000018000234c f i ImageScanner.obj
 0001:00001358       ?Release@?$CComObject@VCOPOSImageScanner@@@ATL@@WBBA@EAAKXZ 0000000180002358 f i ImageScanner.obj
 0001:00001364       ?QueryInterface@?$CComObject@VCOPOSImageScanner@@@ATL@@WBBI@EAAJAEBU_GUID@@PEAPEAX@Z 0000000180002364 f i ImageScanner.obj
 0001:00001370       ?AddRef@?$CComObject@VCOPOSImageScanner@@@ATL@@WBBI@EAAKXZ 0000000180002370 f i ImageScanner.obj
 0001:0000137c       ?Release@?$CComObject@VCOPOSImageScanner@@@ATL@@WBBI@EAAKXZ 000000018000237c f i ImageScanner.obj
 0001:00001388       ?AddRef@?$CComObject@VCOPOSImageScanner@@@ATL@@WBCI@EAAKXZ 0000000180002388 f i ImageScanner.obj
 0001:00001394       ?Release@?$CComObject@VCOPOSImageScanner@@@ATL@@WBCI@EAAKXZ 0000000180002394 f i ImageScanner.obj
 0001:000013a0       ?AddRef@?$CComObject@VCOPOSImageScanner@@@ATL@@WBEA@EAAKXZ 00000001800023a0 f i ImageScanner.obj
 0001:000013ac       ?Release@?$CComObject@VCOPOSImageScanner@@@ATL@@WBEA@EAAKXZ 00000001800023ac f i ImageScanner.obj
 0001:000013b8       ??_E?$CComContainedObject@VCOPOSImageScanner@@@ATL@@W7EAAPEAXI@Z 00000001800023b8 f i ImageScanner.obj
 0001:000013c4       ??_E?$CComContainedObject@VCOPOSImageScanner@@@ATL@@WHA@EAAPEAXI@Z 00000001800023c4 f i ImageScanner.obj
 0001:000013d0       ?QueryInterface@?$CComContainedObject@VCOPOSImageScanner@@@ATL@@WLI@EAAJAEBU_GUID@@PEAPEAX@Z 00000001800023d0 f i ImageScanner.obj
 0001:000013dc       ?AddRef@?$CComContainedObject@VCOPOSImageScanner@@@ATL@@WLI@EAAKXZ 00000001800023dc f i ImageScanner.obj
 0001:000013e8       ?Release@?$CComContainedObject@VCOPOSImageScanner@@@ATL@@WLI@EAAKXZ 00000001800023e8 f i ImageScanner.obj
 0001:000013f4       ?QueryInterface@?$CComContainedObject@VCOPOSImageScanner@@@ATL@@WMA@EAAJAEBU_GUID@@PEAPEAX@Z 00000001800023f4 f i ImageScanner.obj
 0001:00001400       ?AddRef@?$CComContainedObject@VCOPOSImageScanner@@@ATL@@WMA@EAAKXZ 0000000180002400 f i ImageScanner.obj
 0001:0000140c       ?Release@?$CComContainedObject@VCOPOSImageScanner@@@ATL@@WMA@EAAKXZ 000000018000240c f i ImageScanner.obj
 0001:00001418       ?QueryInterface@?$CComContainedObject@VCOPOSImageScanner@@@ATL@@WMI@EAAJAEBU_GUID@@PEAPEAX@Z 0000000180002418 f i ImageScanner.obj
 0001:00001424       ?AddRef@?$CComContainedObject@VCOPOSImageScanner@@@ATL@@WMI@EAAKXZ 0000000180002424 f i ImageScanner.obj
 0001:00001430       ?Release@?$CComContainedObject@VCOPOSImageScanner@@@ATL@@WMI@EAAKXZ 0000000180002430 f i ImageScanner.obj
 0001:0000143c       ?QueryInterface@?$CComContainedObject@VCOPOSImageScanner@@@ATL@@WNA@EAAJAEBU_GUID@@PEAPEAX@Z 000000018000243c f i ImageScanner.obj
 0001:00001448       ?AddRef@?$CComContainedObject@VCOPOSImageScanner@@@ATL@@WNA@EAAKXZ 0000000180002448 f i ImageScanner.obj
 0001:00001454       ?Release@?$CComContainedObject@VCOPOSImageScanner@@@ATL@@WNA@EAAKXZ 0000000180002454 f i ImageScanner.obj
 0001:00001460       ?QueryInterface@?$CComContainedObject@VCOPOSImageScanner@@@ATL@@WNI@EAAJAEBU_GUID@@PEAPEAX@Z 0000000180002460 f i ImageScanner.obj
 0001:0000146c       ?AddRef@?$CComContainedObject@VCOPOSImageScanner@@@ATL@@WNI@EAAKXZ 000000018000246c f i ImageScanner.obj
 0001:00001478       ?Release@?$CComContainedObject@VCOPOSImageScanner@@@ATL@@WNI@EAAKXZ 0000000180002478 f i ImageScanner.obj
 0001:00001484       ?QueryInterface@?$CComContainedObject@VCOPOSImageScanner@@@ATL@@WOA@EAAJAEBU_GUID@@PEAPEAX@Z 0000000180002484 f i ImageScanner.obj
 0001:00001490       ?AddRef@?$CComContainedObject@VCOPOSImageScanner@@@ATL@@WOA@EAAKXZ 0000000180002490 f i ImageScanner.obj
 0001:0000149c       ?Release@?$CComContainedObject@VCOPOSImageScanner@@@ATL@@WOA@EAAKXZ 000000018000249c f i ImageScanner.obj
 0001:000014a8       ?QueryInterface@?$CComContainedObject@VCOPOSImageScanner@@@ATL@@WOI@EAAJAEBU_GUID@@PEAPEAX@Z 00000001800024a8 f i ImageScanner.obj
 0001:000014b4       ?AddRef@?$CComContainedObject@VCOPOSImageScanner@@@ATL@@WOI@EAAKXZ 00000001800024b4 f i ImageScanner.obj
 0001:000014c0       ?Release@?$CComContainedObject@VCOPOSImageScanner@@@ATL@@WOI@EAAKXZ 00000001800024c0 f i ImageScanner.obj
 0001:000014cc       ?QueryInterface@?$CComContainedObject@VCOPOSImageScanner@@@ATL@@WPA@EAAJAEBU_GUID@@PEAPEAX@Z 00000001800024cc f i ImageScanner.obj
 0001:000014d8       ?AddRef@?$CComContainedObject@VCOPOSImageScanner@@@ATL@@WPA@EAAKXZ 00000001800024d8 f i ImageScanner.obj
 0001:000014e4       ?Release@?$CComContainedObject@VCOPOSImageScanner@@@ATL@@WPA@EAAKXZ 00000001800024e4 f i ImageScanner.obj
 0001:000014f0       ?QueryInterface@?$CComContainedObject@VCOPOSImageScanner@@@ATL@@WPI@EAAJAEBU_GUID@@PEAPEAX@Z 00000001800024f0 f i ImageScanner.obj
 0001:000014fc       ?AddRef@?$CComContainedObject@VCOPOSImageScanner@@@ATL@@WPI@EAAKXZ 00000001800024fc f i ImageScanner.obj
 0001:00001508       ?Release@?$CComContainedObject@VCOPOSImageScanner@@@ATL@@WPI@EAAKXZ 0000000180002508 f i ImageScanner.obj
 0001:00001514       ?QueryInterface@?$CComContainedObject@VCOPOSImageScanner@@@ATL@@WBAA@EAAJAEBU_GUID@@PEAPEAX@Z 0000000180002514 f i ImageScanner.obj
 0001:00001520       ?AddRef@?$CComContainedObject@VCOPOSImageScanner@@@ATL@@WBAA@EAAKXZ 0000000180002520 f i ImageScanner.obj
 0001:0000152c       ?Release@?$CComContainedObject@VCOPOSImageScanner@@@ATL@@WBAA@EAAKXZ 000000018000252c f i ImageScanner.obj
 0001:00001538       ?QueryInterface@?$CComContainedObject@VCOPOSImageScanner@@@ATL@@WBAI@EAAJAEBU_GUID@@PEAPEAX@Z 0000000180002538 f i ImageScanner.obj
 0001:00001544       ?AddRef@?$CComContainedObject@VCOPOSImageScanner@@@ATL@@WBAI@EAAKXZ 0000000180002544 f i ImageScanner.obj
 0001:00001550       ?Release@?$CComContainedObject@VCOPOSImageScanner@@@ATL@@WBAI@EAAKXZ 0000000180002550 f i ImageScanner.obj
 0001:0000155c       ?QueryInterface@?$CComContainedObject@VCOPOSImageScanner@@@ATL@@WBBA@EAAJAEBU_GUID@@PEAPEAX@Z 000000018000255c f i ImageScanner.obj
 0001:00001568       ?AddRef@?$CComContainedObject@VCOPOSImageScanner@@@ATL@@WBBA@EAAKXZ 0000000180002568 f i ImageScanner.obj
 0001:00001574       ?Release@?$CComContainedObject@VCOPOSImageScanner@@@ATL@@WBBA@EAAKXZ 0000000180002574 f i ImageScanner.obj
 0001:00001580       ?QueryInterface@?$CComContainedObject@VCOPOSImageScanner@@@ATL@@WBBI@EAAJAEBU_GUID@@PEAPEAX@Z 0000000180002580 f i ImageScanner.obj
 0001:0000158c       ?AddRef@?$CComContainedObject@VCOPOSImageScanner@@@ATL@@WBBI@EAAKXZ 000000018000258c f i ImageScanner.obj
 0001:00001598       ?Release@?$CComContainedObject@VCOPOSImageScanner@@@ATL@@WBBI@EAAKXZ 0000000180002598 f i ImageScanner.obj
 0001:000015a4       ?AddRef@?$CComContainedObject@VCOPOSImageScanner@@@ATL@@WBCI@EAAKXZ 00000001800025a4 f i ImageScanner.obj
 0001:000015b0       ?Release@?$CComContainedObject@VCOPOSImageScanner@@@ATL@@WBCI@EAAKXZ 00000001800025b0 f i ImageScanner.obj
 0001:000015bc       ?AddRef@?$CComContainedObject@VCOPOSImageScanner@@@ATL@@WBEA@EAAKXZ 00000001800025bc f i ImageScanner.obj
 0001:000015c8       ?Release@?$CComContainedObject@VCOPOSImageScanner@@@ATL@@WBEA@EAAKXZ 00000001800025c8 f i ImageScanner.obj
 0001:000015d4       ?GetWindowProc@?$CWindowImplBaseT@VCWindow@ATL@@V?$CWinTraits@$0FGAAAAAA@$0A@@2@@ATL@@UEAAP6A_JPEAUHWND__@@I_K_J@ZXZ 00000001800025d4 f i ImageScanner.obj
 0001:000015dc       ?StartWindowProc@?$CWindowImplBaseT@VCWindow@ATL@@V?$CWinTraits@$0FGAAAAAA@$0A@@2@@ATL@@SA_JPEAUHWND__@@I_K_J@Z 00000001800025dc f i ImageScanner.obj
 0001:000016a0       _guard_check_icall_nop     00000001800026a0 f i LIBCMT:guard_support.obj
 0001:000016a0       ?ObjectMain@CComObjectRootBase@ATL@@SAX_N@Z 00000001800026a0 f i ImageScanner.obj
 0001:000016a0       ?OnFinalMessage@?$CWindowImplBaseT@VCWindow@ATL@@V?$CWinTraits@$0FGAAAAAA@$0A@@2@@ATL@@UEAAXPEAUHWND__@@@Z 00000001800026a0 f i ImageScanner.obj
 0001:000016a4       ?GetTypeInfoCount@?$IDispatchImpl@UIOPOSImageScanner@@$1?IID_IOPOSImageScanner@@3U_GUID@@B$1?LIBID_OposImageScanner_CCO@@3U3@B$00$0A@VCComTypeInfoHolder@ATL@@@ATL@@UEAAJPEAI@Z 00000001800026a4 f i ImageScanner.obj
 0001:000016b8       ?GetTypeInfo@?$IDispatchImpl@UIOPOSImageScanner@@$1?IID_IOPOSImageScanner@@3U_GUID@@B$1?LIBID_OposImageScanner_CCO@@3U3@B$00$0A@VCComTypeInfoHolder@ATL@@@ATL@@UEAAJIKPEAPEAUITypeInfo@@@Z 00000001800026b8 f i ImageScanner.obj
 0001:0000171c       ?GetIDsOfNames@?$IDispatchImpl@UIOPOSImageScanner@@$1?IID_IOPOSImageScanner@@3U_GUID@@B$1?LIBID_OposImageScanner_CCO@@3U3@B$00$0A@VCComTypeInfoHolder@ATL@@@ATL@@UEAAJAEBU_GUID@@PEAPEA_WIKPEAJ@Z 000000018000271c f i ImageScanner.obj
 0001:00001728       ?Invoke@?$IDispatchImpl@UIOPOSImageScanner@@$1?IID_IOPOSImageScanner@@3U_GUID@@B$1?LIBID_OposImageScanner_CCO@@3U3@B$00$0A@VCComTypeInfoHolder@ATL@@@ATL@@UEAAJJAEBU_GUID@@KGPEAUtagDISPPARAMS@@PEAUtagVARIANT@@PEAUtagEXCEPINFO@@PEAI@Z 0000000180002728 f i ImageScanner.obj
 0001:000017b8       ?CreateControlWindow@?$CComControl@VCOPOSImageScanner@@V?$CWindowImpl@VCOPOSImageScanner@@VCWindow@ATL@@V?$CWinTraits@$0FGAAAAAA@$0A@@3@@ATL@@@ATL@@UEAAPEAUHWND__@@PEAU3@AEAUtagRECT@@@Z 00000001800027b8 f i ImageScanner.obj
 0001:000017f0       ?ControlQueryInterface@?$CComControl@VCOPOSImageScanner@@V?$CWindowImpl@VCOPOSImageScanner@@VCWindow@ATL@@V?$CWinTraits@$0FGAAAAAA@$0A@@3@@ATL@@@ATL@@UEAAJAEBU_GUID@@PEAPEAX@Z 00000001800027f0 f i ImageScanner.obj
 0001:00001804       ?GetClassID@?$IPersistStreamInitImpl@VCOPOSImageScanner@@@ATL@@UEAAJPEAU_GUID@@@Z 0000000180002804 f i ImageScanner.obj
 0001:00001804       ?GetClassID@?$IPersistStorageImpl@VCOPOSImageScanner@@@ATL@@UEAAJPEAU_GUID@@@Z 0000000180002804 f i ImageScanner.obj
 0001:00001804       ?GetUserClassID@?$IOleObjectImpl@VCOPOSImageScanner@@@ATL@@UEAAJPEAU_GUID@@@Z 0000000180002804 f i ImageScanner.obj
 0001:00001820       ?IsDirty@?$IPersistStreamInitImpl@VCOPOSImageScanner@@@ATL@@UEAAJXZ 0000000180002820 f i ImageScanner.obj
 0001:0000183c       ?Load@?$IPersistStreamInitImpl@VCOPOSImageScanner@@@ATL@@UEAAJPEAUIStream@@@Z 000000018000283c f i ImageScanner.obj
 0001:0000188c       ?Save@?$IPersistStreamInitImpl@VCOPOSImageScanner@@@ATL@@UEAAJPEAUIStream@@H@Z 000000018000288c f i ImageScanner.obj
 0001:000018f0       ?GetSizeMax@?$IPersistStreamInitImpl@VCOPOSImageScanner@@@ATL@@UEAAJPEAT_ULARGE_INTEGER@@@Z 00000001800028f0 f i ImageScanner.obj
 0001:00001b1c       ?InitNew@?$IPersistStreamInitImpl@VCOPOSImageScanner@@@ATL@@UEAAJXZ 0000000180002b1c f i ImageScanner.obj
 0001:00001b34       ?SetClientSite@?$IOleObjectImpl@VCOPOSImageScanner@@@ATL@@UEAAJPEAUIOleClientSite@@@Z 0000000180002b34 f i ImageScanner.obj
 0001:00001b50       ?GetClientSite@?$IOleObjectImpl@VCOPOSImageScanner@@@ATL@@UEAAJPEAPEAUIOleClientSite@@@Z 0000000180002b50 f i ImageScanner.obj
 0001:00001b98       ?Close@?$IOleObjectImpl@VCOPOSImageScanner@@@ATL@@UEAAJK@Z 0000000180002b98 f i ImageScanner.obj
 0001:00001bb4       ?DoVerb@?$IOleObjectImpl@VCOPOSImageScanner@@@ATL@@UEAAJJPEAUtagMSG@@PEAUIOleClientSite@@JPEAUHWND__@@PEBUtagRECT@@@Z 0000000180002bb4 f i ImageScanner.obj
 0001:00001d58       ?EnumVerbs@?$IOleObjectImpl@VCOPOSImageScanner@@@ATL@@UEAAJPEAPEAUIEnumOLEVERB@@@Z 0000000180002d58 f i ImageScanner.obj
 0001:00001d74       ?GetUserType@?$IOleObjectImpl@VCOPOSImageScanner@@@ATL@@UEAAJKPEAPEA_W@Z 0000000180002d74 f i ImageScanner.obj
 0001:00001d84       ?SetExtent@?$IOleObjectImpl@VCOPOSImageScanner@@@ATL@@UEAAJKPEAUtagSIZE@@@Z 0000000180002d84 f i ImageScanner.obj
 0001:00001da0       ?GetExtent@?$IOleObjectImpl@VCOPOSImageScanner@@@ATL@@UEAAJKPEAUtagSIZE@@@Z 0000000180002da0 f i ImageScanner.obj
 0001:00001dd0       ?Advise@?$IOleObjectImpl@VCOPOSImageScanner@@@ATL@@UEAAJPEAUIAdviseSink@@PEAK@Z 0000000180002dd0 f i ImageScanner.obj
 0001:00001e2c       ?Unadvise@?$IOleObjectImpl@VCOPOSImageScanner@@@ATL@@UEAAJK@Z 0000000180002e2c f i ImageScanner.obj
 0001:00001e64       ?EnumAdvise@?$IOleObjectImpl@VCOPOSImageScanner@@@ATL@@UEAAJPEAPEAUIEnumSTATDATA@@@Z 0000000180002e64 f i ImageScanner.obj
 0001:00001eac       ?GetMiscStatus@?$IOleObjectImpl@VCOPOSImageScanner@@@ATL@@UEAAJKPEAK@Z 0000000180002eac f i ImageScanner.obj
 0001:00001ebc       ?GetWindow@?$IOleInPlaceActiveObjectImpl@VCOPOSImageScanner@@@ATL@@UEAAJPEAPEAUHWND__@@@Z 0000000180002ebc f i ImageScanner.obj
 0001:00001f10       ?TranslateAcceleratorW@?$IOleInPlaceActiveObjectImpl@VCOPOSImageScanner@@@ATL@@UEAAJPEAUtagMSG@@@Z 0000000180002f10 f i ImageScanner.obj
 0001:00002004       ?OnDocWindowActivate@?$IOleInPlaceActiveObjectImpl@VCOPOSImageScanner@@@ATL@@UEAAJH@Z 0000000180003004 f i ImageScanner.obj
 0001:00002030       ?Draw@?$IViewObjectExImpl@VCOPOSImageScanner@@@ATL@@UEAAJKJPEAXPEAUtagDVTARGETDEVICE@@PEAUHDC__@@2PEBU_RECTL@@3P6AH_K@Z4@Z 0000000180003030 f i ImageScanner.obj
 0001:00002094       ?SetAdvise@?$IViewObjectExImpl@VCOPOSImageScanner@@@ATL@@UEAAJKKPEAUIAdviseSink@@@Z 0000000180003094 f i ImageScanner.obj
 0001:000020e8       ?GetAdvise@?$IViewObjectExImpl@VCOPOSImageScanner@@@ATL@@UEAAJPEAK0PEAPEAUIAdviseSink@@@Z 00000001800030e8 f i ImageScanner.obj
 0001:00002124       ?GetExtent@?$IViewObjectExImpl@VCOPOSImageScanner@@@ATL@@UEAAJKJPEAUtagDVTARGETDEVICE@@PEAUtagSIZE@@@Z 0000000180003124 f i ImageScanner.obj
 0001:00002154       ?GetViewStatus@?$IViewObjectExImpl@VCOPOSImageScanner@@@ATL@@UEAAJPEAK@Z 0000000180003154 f i ImageScanner.obj
 0001:00002168       ?QueryHitPoint@?$IViewObjectExImpl@VCOPOSImageScanner@@@ATL@@UEAAJKPEBUtagRECT@@UtagPOINT@@JPEAK@Z 0000000180003168 f i ImageScanner.obj
 0001:000021ac       ?QueryHitRect@?$IViewObjectExImpl@VCOPOSImageScanner@@@ATL@@UEAAJKPEBUtagRECT@@0JPEAK@Z 00000001800031ac f i ImageScanner.obj
 0001:00002214       ?GetNaturalExtent@?$IViewObjectExImpl@VCOPOSImageScanner@@@ATL@@UEAAJKJPEAUtagDVTARGETDEVICE@@PEAUHDC__@@PEAUtagExtentInfo@@PEAUtagSIZE@@@Z 0000000180003214 f i ImageScanner.obj
 0001:0000225c       ?GetWindow@?$IOleInPlaceObjectWindowlessImpl@VCOPOSImageScanner@@@ATL@@UEAAJPEAPEAUHWND__@@@Z 000000018000325c f i ImageScanner.obj
 0001:000022b0       ?InPlaceDeactivate@?$IOleInPlaceObjectWindowlessImpl@VCOPOSImageScanner@@@ATL@@UEAAJXZ 00000001800032b0 f i ImageScanner.obj
 0001:000022cc       ?UIDeactivate@?$IOleInPlaceObjectWindowlessImpl@VCOPOSImageScanner@@@ATL@@UEAAJXZ 00000001800032cc f i ImageScanner.obj
 0001:000022e8       ?SetObjectRects@?$IOleInPlaceObjectWindowlessImpl@VCOPOSImageScanner@@@ATL@@UEAAJPEBUtagRECT@@0@Z 00000001800032e8 f i ImageScanner.obj
 0001:00002304       ?OnWindowMessage@?$IOleInPlaceObjectWindowlessImpl@VCOPOSImageScanner@@@ATL@@UEAAJI_K_JPEA_J@Z 0000000180003304 f i ImageScanner.obj
 0001:000023cc       ?EnumConnectionPoints@?$IConnectionPointContainerImpl@VCOPOSImageScanner@@@ATL@@UEAAJPEAPEAUIEnumConnectionPoints@@@Z 00000001800033cc f i ImageScanner.obj
 0001:000025ec       ?FindConnectionPoint@?$IConnectionPointContainerImpl@VCOPOSImageScanner@@@ATL@@UEAAJAEBU_GUID@@PEAPEAUIConnectionPoint@@@Z 00000001800035ec f i ImageScanner.obj
 0001:000026bc       ?IsDirty@?$IPersistStorageImpl@VCOPOSImageScanner@@@ATL@@UEAAJXZ 00000001800036bc f i ImageScanner.obj
 0001:00002700       ?InitNew@?$IPersistStorageImpl@VCOPOSImageScanner@@@ATL@@UEAAJPEAUIStorage@@@Z 0000000180003700 f i ImageScanner.obj
 0001:00002744       ?Load@?$IPersistStorageImpl@VCOPOSImageScanner@@@ATL@@UEAAJPEAUIStorage@@@Z 0000000180003744 f i ImageScanner.obj
 0001:000027e4       ?Save@?$IPersistStorageImpl@VCOPOSImageScanner@@@ATL@@UEAAJPEAUIStorage@@H@Z 00000001800037e4 f i ImageScanner.obj
 0001:00002894       ?GetPages@?$ISpecifyPropertyPagesImpl@VCOPOSImageScanner@@@ATL@@UEAAJPEAUtagCAUUID@@@Z 0000000180003894 f i ImageScanner.obj
 0001:000028a0       ?QuickActivate@?$IQuickActivateImpl@VCOPOSImageScanner@@@ATL@@UEAAJPEAUtagQACONTAINER@@PEAUtagQACONTROL@@@Z 00000001800038a0 f i ImageScanner.obj
 0001:000028bc       ?SetContentExtent@?$IQuickActivateImpl@VCOPOSImageScanner@@@ATL@@UEAAJPEAUtagSIZE@@@Z 00000001800038bc f i ImageScanner.obj
 0001:000028f0       ?GetContentExtent@?$IQuickActivateImpl@VCOPOSImageScanner@@@ATL@@UEAAJPEAUtagSIZE@@@Z 00000001800038f0 f i ImageScanner.obj
 0001:00002928       ?GetData@?$IDataObjectImpl@VCOPOSImageScanner@@@ATL@@UEAAJPEAUtagFORMATETC@@PEAUtagSTGMEDIUM@@@Z 0000000180003928 f i ImageScanner.obj
 0001:00002944       ?DAdvise@?$IDataObjectImpl@VCOPOSImageScanner@@@ATL@@UEAAJPEAUtagFORMATETC@@KPEAUIAdviseSink@@PEAK@Z 0000000180003944 f i ImageScanner.obj
 0001:000029cc       ?DUnadvise@?$IDataObjectImpl@VCOPOSImageScanner@@@ATL@@UEAAJK@Z 00000001800039cc f i ImageScanner.obj
 0001:000029f8       ?EnumDAdvise@?$IDataObjectImpl@VCOPOSImageScanner@@@ATL@@UEAAJPEAPEAUIEnumSTATDATA@@@Z 00000001800039f8 f i ImageScanner.obj
 0001:00002a34       ?GetClassInfoW@?$IProvideClassInfo2Impl@$1?CLSID_OPOSImageScanner@@3U_GUID@@B$1?DIID__IOPOSImageScannerEvents@@3U2@B$1?LIBID_OposImageScanner_CCO@@3U2@B$00$0A@VCComTypeInfoHolder@ATL@@@ATL@@UEAAJPEAPEAUITypeInfo@@@Z 0000000180003a34 f i ImageScanner.obj
 0001:00002a8c       ?GetGUID@?$IProvideClassInfo2Impl@$1?CLSID_OPOSImageScanner@@3U_GUID@@B$1?DIID__IOPOSImageScannerEvents@@3U2@B$1?LIBID_OposImageScanner_CCO@@3U2@B$00$0A@VCComTypeInfoHolder@ATL@@@ATL@@UEAAJKPEAU_GUID@@@Z 0000000180003a8c f i ImageScanner.obj
 0001:00002ac0       ?GetInterfaceSafetyOptions@?$IObjectSafetyImpl@VCOPOSImageScanner@@$02@ATL@@UEAAJAEBU_GUID@@PEAK1@Z 0000000180003ac0 f i ImageScanner.obj
 0001:00002b54       ?SetInterfaceSafetyOptions@?$IObjectSafetyImpl@VCOPOSImageScanner@@$02@ATL@@UEAAJAEBU_GUID@@KK@Z 0000000180003b54 f i ImageScanner.obj
 0001:00002bf8       ?_LocCPQueryInterface@?$IConnectionPointImpl@VCOPOSImageScanner@@$1?IID_IPropertyNotifySink@@3U_GUID@@BVCComDynamicUnkArray@ATL@@@ATL@@UEAAJAEBU_GUID@@PEAPEAX@Z 0000000180003bf8 f i ImageScanner.obj
 0001:00002bf8       ?_LocCPQueryInterface@?$IConnectionPointImpl@VCOPOSImageScanner@@$1?DIID__IOPOSImageScannerEvents@@3U_GUID@@BVCComDynamicUnkArray@ATL@@@ATL@@UEAAJAEBU_GUID@@PEAPEAX@Z 0000000180003bf8 f i ImageScanner.obj
 0001:00002c6c       ?GetConnectionInterface@?$IConnectionPointImpl@VCOPOSImageScanner@@$1?IID_IPropertyNotifySink@@3U_GUID@@BVCComDynamicUnkArray@ATL@@@ATL@@UEAAJPEAU_GUID@@@Z 0000000180003c6c f i ImageScanner.obj
 0001:00002c88       ?GetConnectionPointContainer@?$IConnectionPointImpl@VCOPOSImageScanner@@$1?IID_IPropertyNotifySink@@3U_GUID@@BVCComDynamicUnkArray@ATL@@@ATL@@UEAAJPEAPEAUIConnectionPointContainer@@@Z 0000000180003c88 f i ImageScanner.obj
 0001:00002ca8       ?Advise@?$IConnectionPointImpl@VCOPOSImageScanner@@$1?IID_IPropertyNotifySink@@3U_GUID@@BVCComDynamicUnkArray@ATL@@@ATL@@UEAAJPEAUIUnknown@@PEAK@Z 0000000180003ca8 f i ImageScanner.obj
 0001:00002ca8       ?Advise@?$IConnectionPointImpl@VCOPOSImageScanner@@$1?DIID__IOPOSImageScannerEvents@@3U_GUID@@BVCComDynamicUnkArray@ATL@@@ATL@@UEAAJPEAUIUnknown@@PEAK@Z 0000000180003ca8 f i ImageScanner.obj
 0001:00002d68       ?Unadvise@?$IConnectionPointImpl@VCOPOSImageScanner@@$1?IID_IPropertyNotifySink@@3U_GUID@@BVCComDynamicUnkArray@ATL@@@ATL@@UEAAJK@Z 0000000180003d68 f i ImageScanner.obj
 0001:00002d68       ?Unadvise@?$IConnectionPointImpl@VCOPOSImageScanner@@$1?DIID__IOPOSImageScannerEvents@@3U_GUID@@BVCComDynamicUnkArray@ATL@@@ATL@@UEAAJK@Z 0000000180003d68 f i ImageScanner.obj
 0001:00002de4       ?EnumConnections@?$IConnectionPointImpl@VCOPOSImageScanner@@$1?DIID__IOPOSImageScannerEvents@@3U_GUID@@BVCComDynamicUnkArray@ATL@@@ATL@@UEAAJPEAPEAUIEnumConnections@@@Z 0000000180003de4 f i ImageScanner.obj
 0001:00002de4       ?EnumConnections@?$IConnectionPointImpl@VCOPOSImageScanner@@$1?IID_IPropertyNotifySink@@3U_GUID@@BVCComDynamicUnkArray@ATL@@@ATL@@UEAAJPEAPEAUIEnumConnections@@@Z 0000000180003de4 f i ImageScanner.obj
 0001:00002f8c       ?GetConnectionInterface@?$IConnectionPointImpl@VCOPOSImageScanner@@$1?DIID__IOPOSImageScannerEvents@@3U_GUID@@BVCComDynamicUnkArray@ATL@@@ATL@@UEAAJPEAU_GUID@@@Z 0000000180003f8c f i ImageScanner.obj
 0001:00002fa8       ?GetConnectionPointContainer@?$IConnectionPointImpl@VCOPOSImageScanner@@$1?DIID__IOPOSImageScannerEvents@@3U_GUID@@BVCComDynamicUnkArray@ATL@@@ATL@@UEAAJPEAPEAUIConnectionPointContainer@@@Z 0000000180003fa8 f i ImageScanner.obj
 0001:00002fc8       ?UpdateRegistry@COPOSImageScanner@@SAJH@Z 0000000180003fc8 f i ImageScanner.obj
 0001:00002fe0       ?ProcessWindowMessage@COPOSImageScanner@@UEAAHPEAUHWND__@@I_K_JAEA_JK@Z 0000000180003fe0 f i ImageScanner.obj
 0001:00003068       ?SOData@COPOSImageScanner@@MEAAJJ@Z 0000000180004068 f i ImageScanner.obj
 0001:000030b8       ?SODirectIO@COPOSImageScanner@@MEAAJJPEAJPEAPEA_W@Z 00000001800040b8 f i ImageScanner.obj
 0001:00003130       ?SOError@COPOSImageScanner@@MEAAJJJJPEAJ@Z 0000000180004130 f i ImageScanner.obj
 0001:000031b8       ?SOStatusUpdate@COPOSImageScanner@@MEAAJJ@Z 00000001800041b8 f i ImageScanner.obj
 0001:00003208       ?CreateInstance@?$CComCreator@V?$CComObjectCached@VCComClassFactory@ATL@@@ATL@@@ATL@@SAJPEAXAEBU_GUID@@PEAPEAX@Z 0000000180004208 f i ImageScanner.obj
 0001:00003310       ?CreateInstance@?$CComCreator2@V?$CComCreator@V?$CComObject@VCOPOSImageScanner@@@ATL@@@ATL@@V?$CComCreator@V?$CComAggObject@VCOPOSImageScanner@@@ATL@@@2@@ATL@@SAJPEAXAEBU_GUID@@PEAPEAX@Z 0000000180004310 f i ImageScanner.obj
 0001:00003320       ?Next@?$CComEnumImpl@UIEnumConnectionPoints@@$1?_GUID_b196b285_bab4_101a_b69c_00aa00341d07@@3U__s_GUID@@BPEAUIConnectionPoint@@V?$_CopyInterface@UIConnectionPoint@@@ATL@@@ATL@@UEAAJKPEAPEAUIConnectionPoint@@PEAK@Z 0000000180004320 f i ImageScanner.obj
 0001:000033ec       ?Skip@?$CComEnumImpl@UIEnumConnectionPoints@@$1?_GUID_b196b285_bab4_101a_b69c_00aa00341d07@@3U__s_GUID@@BPEAUIConnectionPoint@@V?$_CopyInterface@UIConnectionPoint@@@ATL@@@ATL@@UEAAJK@Z 00000001800043ec f i ImageScanner.obj
 0001:00003418       ?Clone@?$CComEnumImpl@UIEnumConnectionPoints@@$1?_GUID_b196b285_bab4_101a_b69c_00aa00341d07@@3U__s_GUID@@BPEAUIConnectionPoint@@V?$_CopyInterface@UIConnectionPoint@@@ATL@@@ATL@@UEAAJPEAPEAUIEnumConnectionPoints@@@Z 0000000180004418 f i ImageScanner.obj
 0001:00003544       ?QueryInterface@?$CComObject@V?$CComEnum@UIEnumConnectionPoints@@$1?_GUID_b196b285_bab4_101a_b69c_00aa00341d07@@3U__s_GUID@@BPEAUIConnectionPoint@@V?$_CopyInterface@UIConnectionPoint@@@ATL@@VCComSingleThreadModel@6@@ATL@@@ATL@@UEAAJAEBU_GUID@@PEAPEAX@Z 0000000180004544 f i ImageScanner.obj
 0001:00003558       ??_G?$CComObject@V?$CComEnum@UIEnumConnectionPoints@@$1?_GUID_b196b285_bab4_101a_b69c_00aa00341d07@@3U__s_GUID@@BPEAUIConnectionPoint@@V?$_CopyInterface@UIConnectionPoint@@@ATL@@VCComSingleThreadModel@6@@ATL@@@ATL@@UEAAPEAXI@Z 0000000180004558 f i ImageScanner.obj
 0001:00003558       ??_E?$CComObject@V?$CComEnum@UIEnumConnectionPoints@@$1?_GUID_b196b285_bab4_101a_b69c_00aa00341d07@@3U__s_GUID@@BPEAUIConnectionPoint@@V?$_CopyInterface@UIConnectionPoint@@@ATL@@VCComSingleThreadModel@6@@ATL@@@ATL@@UEAAPEAXI@Z 0000000180004558 f i ImageScanner.obj
 0001:000035b0       ?CreateInstance@CComClassFactory@ATL@@UEAAJPEAUIUnknown@@AEBU_GUID@@PEAPEAX@Z 00000001800045b0 f i ImageScanner.obj
 0001:00003610       ?LockServer@CComClassFactory@ATL@@UEAAJH@Z 0000000180004610 f i ImageScanner.obj
 0001:00003634       ??_GCComClassFactory@ATL@@UEAAPEAXI@Z 0000000180004634 f i ImageScanner.obj
 0001:00003634       ??_ECComClassFactory@ATL@@UEAAPEAXI@Z 0000000180004634 f i ImageScanner.obj
 0001:00003684       ??$AtlModuleRegisterWndClassInfoT@VAtlModuleRegisterWndClassInfoParamW@ATL@@@ATL@@YAGPEAU_ATL_BASE_MODULE70@0@PEAU_ATL_WIN_MODULE70@0@PEAU_ATL_WNDCLASSINFOW@0@PEAP6A_JPEAUHWND__@@I_K_J@ZVAtlModuleRegisterWndClassInfoParamW@0@@Z 0000000180004684 f i ImageScanner.obj
 0001:00003884       ??0?$CComContainedObject@VCOPOSImageScanner@@@ATL@@QEAA@PEAX@Z 0000000180004884 f i ImageScanner.obj
 0001:000039a0       ??0?$CComObject@VCOPOSImageScanner@@@ATL@@QEAA@PEAX@Z 00000001800049a0 f i ImageScanner.obj
 0001:00003ab8       ??0CAtlModule@ATL@@QEAA@XZ 0000000180004ab8 f i ImageScanner.obj
 0001:00003b2c       ??1?$CComEnumImpl@UIEnumConnectionPoints@@$1?_GUID_b196b285_bab4_101a_b69c_00aa00341d07@@3U__s_GUID@@BPEAUIConnectionPoint@@V?$_CopyInterface@UIConnectionPoint@@@ATL@@@ATL@@UEAA@XZ 0000000180004b2c f i ImageScanner.obj
 0001:00003b88       ??1?$CComEnumImpl@UIEnumConnections@@$1?_GUID_b196b287_bab4_101a_b69c_00aa00341d07@@3U__s_GUID@@BUtagCONNECTDATA@@V?$_Copy@UtagCONNECTDATA@@@ATL@@@ATL@@UEAA@XZ 0000000180004b88 f i ImageScanner.obj
 0001:00003be4       ??1?$CComObject@VCOPOSImageScanner@@@ATL@@UEAA@XZ 0000000180004be4 f i ImageScanner.obj
 0001:00003d04       ??_G?$CComContainedObject@VCOPOSImageScanner@@@ATL@@UEAAPEAXI@Z 0000000180004d04 f i ImageScanner.obj
 0001:00003d04       ??_E?$CComContainedObject@VCOPOSImageScanner@@@ATL@@UEAAPEAXI@Z 0000000180004d04 f i ImageScanner.obj
 0001:00003d38       ??_E?$CComObject@VCOPOSImageScanner@@@ATL@@UEAAPEAXI@Z 0000000180004d38 f i ImageScanner.obj
 0001:00003d38       ??_G?$CComObject@VCOPOSImageScanner@@@ATL@@UEAAPEAXI@Z 0000000180004d38 f i ImageScanner.obj
 0001:00003d6c       ?Add@?$CSimpleArray@GV?$CSimpleArrayEqualHelper@G@ATL@@@ATL@@QEAAHAEBG@Z 0000000180004d6c f i ImageScanner.obj
 0001:00003e20       ?Add@?$CSimpleMap@PEA_WPEA_WVCExpansionVectorEqualHelper@ATL@@@ATL@@QEAAHAEBQEA_W0@Z 0000000180004e20 f i ImageScanner.obj
 0001:00003ec0       ?Add@CComDynamicUnkArray@ATL@@QEAAKPEAUIUnknown@@@Z 0000000180004ec0 f i ImageScanner.obj
 0001:00003fa8       ?Add@CExpansionVector@ATL@@QEAAHPEB_W0@Z 0000000180004fa8 f i ImageScanner.obj
 0001:00004138       ?AddValue@CRegParser@ATL@@IEAAJAEAVCRegKey@2@PEB_WPEA_W@Z 0000000180005138 f i ImageScanner.obj
 0001:00004580       ?AllocateHeap@?$CTempBuffer@_W$0EAA@VCCRTAllocator@ATL@@@ATL@@AEAAX_K@Z 0000000180005580 f i ImageScanner.obj
 0001:00004580       ?AllocateHeap@?$CTempBuffer@E$0BAA@VCCRTAllocator@ATL@@@ATL@@AEAAX_K@Z 0000000180005580 f i ImageScanner.obj
 0001:00004580       ?AllocateHeap@?$CTempBuffer@_W$0BAA@VCCRTAllocator@ATL@@@ATL@@AEAAX_K@Z 0000000180005580 f i ImageScanner.obj
 0001:000045ac       ?Append@CParseBuffer@CRegParser@ATL@@QEAAHPEB_WH@Z 00000001800055ac f i ImageScanner.obj
 0001:000046c4       ?AtlCallTermFunc@ATL@@YAXPEAU_ATL_MODULE70@1@@Z 00000001800056c4 f i ImageScanner.obj
 0001:00004728       ?AtlComModuleGetClassObject@ATL@@YAJPEAU_ATL_COM_MODULE70@1@AEBU_GUID@@1PEAPEAX@Z 0000000180005728 f i ImageScanner.obj
 0001:00004868       ?AtlComModuleRegisterServer@ATL@@YAJPEAU_ATL_COM_MODULE70@1@HPEBU_GUID@@@Z 0000000180005868 f i ImageScanner.obj
 0001:00004928       ?AtlComModuleUnregisterServer@ATL@@YAJPEAU_ATL_COM_MODULE70@1@HPEBU_GUID@@@Z 0000000180005928 f i ImageScanner.obj
 0001:000049e4       ?AtlCreateTargetDC@ATL@@YAPEAUHDC__@@PEAU2@PEAUtagDVTARGETDEVICE@@@Z 00000001800059e4 f i ImageScanner.obj
 0001:00004a58       ?AtlHiMetricToPixel@ATL@@YAXPEBUtagSIZE@@PEAU2@@Z 0000000180005a58 f i ImageScanner.obj
 0001:00004b08       ?AtlHresultFromLastError@ATL@@YAJXZ 0000000180005b08 f i ImageScanner.obj
 0001:00004b28       ?AtlHresultFromWin32@ATL@@YAJK@Z 0000000180005b28 f i ImageScanner.obj
 0001:00004b38       ?AtlIPersistStreamInit_Load@ATL@@YAJPEAUIStream@@PEBUATL_PROPMAP_ENTRY@1@PEAXPEAUIUnknown@@@Z 0000000180005b38 f i ImageScanner.obj
 0001:00004d70       ?AtlIPersistStreamInit_Save@ATL@@YAJPEAUIStream@@HPEBUATL_PROPMAP_ENTRY@1@PEAXPEAUIUnknown@@@Z 0000000180005d70 f i ImageScanner.obj
 0001:00004fa8       ?AtlInternalOleLoadFromStream@ATL@@YAJPEAUIStream@@AEBU_GUID@@PEAPEAXTClassesAllowedInStream@1@K@Z 0000000180005fa8 f i ImageScanner.obj
 0001:000050ec       ?AtlInternalQueryInterface@ATL@@YAJPEAXPEBU_ATL_INTMAP_ENTRY@1@AEBU_GUID@@PEAPEAX@Z 00000001800060ec f i ImageScanner.obj
 0001:000051f4       ?AtlLoadTypeLib@ATL@@YAJPEAUHINSTANCE__@@PEB_WPEAPEA_WPEAPEAUITypeLib@@@Z 00000001800061f4 f i ImageScanner.obj
 0001:00005450       ?AtlModuleAddTermFunc@ATL@@YAJPEAU_ATL_MODULE70@1@P6AX_K@Z1@Z 0000000180006450 f i ImageScanner.obj
 0001:000054e4       ?AtlRegisterClassCategoriesHelper@ATL@@YAJAEBU_GUID@@PEBU_ATL_CATMAP_ENTRY@1@H@Z 00000001800064e4 f i ImageScanner.obj
 0001:0000594c       ?AtlRegisterTypeLib@ATL@@YAJPEAUHINSTANCE__@@PEB_W@Z 000000018000694c f i ImageScanner.obj
 0001:00005b48       ?AtlThrowImpl@ATL@@YAXJ@Z  0000000180006b48 f i ImageScanner.obj
 0001:00005b6c       ?AtlUnRegisterTypeLib@ATL@@YAJPEAUHINSTANCE__@@PEB_W@Z 0000000180006b6c f i ImageScanner.obj
 0001:00005c34       ?AtlWinModuleExtractCreateWndData@ATL@@YAPEAXPEAU_ATL_WIN_MODULE70@1@@Z 0000000180006c34 f i ImageScanner.obj
 0001:00005cc0       ?Cleanup@CComTypeInfoHolder@ATL@@SAX_K@Z 0000000180006cc0 f i ImageScanner.obj
 0001:00005d00       ?ClearReplacements@CExpansionVector@ATL@@QEAAJXZ 0000000180006d00 f i ImageScanner.obj
 0001:00005d9c       ?CreateInstance@?$CComCreator@V?$CComAggObject@VCOPOSImageScanner@@@ATL@@@ATL@@SAJPEAXAEBU_GUID@@PEAPEAX@Z 0000000180006d9c f i ImageScanner.obj
 0001:00005e74       ?CreateInstance@?$CComCreator@V?$CComObject@VCOPOSImageScanner@@@ATL@@@ATL@@SAJPEAXAEBU_GUID@@PEAPEAX@Z 0000000180006e74 f i ImageScanner.obj
 0001:00005f2c       ?CreateInstance@?$CComObject@V?$CComEnum@UIEnumConnectionPoints@@$1?_GUID_b196b285_bab4_101a_b69c_00aa00341d07@@3U__s_GUID@@BPEAUIConnectionPoint@@V?$_CopyInterface@UIConnectionPoint@@@ATL@@VCComSingleThreadModel@6@@ATL@@@ATL@@SAJPEAPEAV12@@Z 0000000180006f2c f i ImageScanner.obj
 0001:00005fb8       ?CreateInstance@?$CComObject@V?$CComEnum@UIEnumConnections@@$1?_GUID_b196b287_bab4_101a_b69c_00aa00341d07@@3U__s_GUID@@BUtagCONNECTDATA@@V?$_Copy@UtagCONNECTDATA@@@ATL@@VCComSingleThreadModel@6@@ATL@@@ATL@@SAJPEAPEAV12@@Z 0000000180006fb8 f i ImageScanner.obj
 0001:00006044       ?DefaultReflectionHandler@?$CWindowImplRoot@VCWindow@ATL@@@ATL@@SAHPEAUHWND__@@I_K_JAEA_J@Z 0000000180007044 f i ImageScanner.obj
 0001:000060a8       ?DeleteSubKey@CRegKey@ATL@@QEAAJPEB_W@Z 00000001800070a8 f i ImageScanner.obj
 0001:00006140       ?DoEvent@COPOSImageScanner@@IEAAXI_K_J@Z 0000000180007140 f i ImageScanner.obj
 0001:000061f4       ?DoVerbPrimary@?$IOleObjectImpl@VCOPOSImageScanner@@@ATL@@QEAAJPEBUtagRECT@@PEAUHWND__@@@Z 00000001800071f4 f i ImageScanner.obj
 0001:00006320       ?DoVerbProperties@CComControlBase@ATL@@QEAAJPEBUtagRECT@@PEAUHWND__@@@Z 0000000180007320 f i ImageScanner.obj
 0001:00006548       ?FireTheEvent@?$CProxy_IOPOSEvents@VCOPOSImageScanner@@@@IEAAXPEAVOposVariant@@IAEAJPEB_WJ@Z 0000000180007548 f i ImageScanner.obj
 0001:00006634       ?FireViewChange@CComControlBase@ATL@@QEAAJXZ 0000000180007634 f i ImageScanner.obj
 0001:00006698       ?Fire_DataEvent@?$CProxy_IOPOSEvents@VCOPOSImageScanner@@@@QEAAXJ@Z 0000000180007698 f i ImageScanner.obj
 0001:00006784       ?Fire_DirectIOEvent@?$CProxy_IOPOSEvents@VCOPOSImageScanner@@@@QEAAXJPEAJPEAPEA_W@Z 0000000180007784 f i ImageScanner.obj
 0001:000068dc       ?Fire_ErrorEvent@?$CProxy_IOPOSEvents@VCOPOSImageScanner@@@@QEAAXJJJPEAJ@Z 00000001800078dc f i ImageScanner.obj
 0001:00006a44       ?Fire_StatusUpdateEvent@?$CProxy_IOPOSEvents@VCOPOSImageScanner@@@@QEAAXJ@Z 0000000180007a44 f i ImageScanner.obj
 0001:00006b30       ?FreeHeap@?$CTempBuffer@_W$0EAA@VCCRTAllocator@ATL@@@ATL@@AEAAXXZ 0000000180007b30 f i ImageScanner.obj
 0001:00006b30       ?FreeHeap@?$CTempBuffer@_W$0BAA@VCCRTAllocator@ATL@@@ATL@@AEAAXXZ 0000000180007b30 f i ImageScanner.obj
 0001:00006b30       ?FreeHeap@?$CTempBuffer@E$0BAA@VCCRTAllocator@ATL@@@ATL@@AEAAXXZ 0000000180007b30 f i ImageScanner.obj
 0001:00006b38       ?GetAmbientLocaleID@CComControlBase@ATL@@QEAAJAEAK@Z 0000000180007b38 f i ImageScanner.obj
 0001:00006bf8       ?GetAmbientUserMode@CComControlBase@ATL@@QEAAJAEAH@Z 0000000180007bf8 f i ImageScanner.obj
 0001:00006cc8       ?GetClassObject@CComModule@ATL@@QEAAJAEBU_GUID@@0PEAPEAX@Z 0000000180007cc8 f i ImageScanner.obj
 0001:00006dbc       ?GetConnMap@COPOSImageScanner@@SAPEBU_ATL_CONNMAP_ENTRY@ATL@@PEAH@Z 0000000180007dbc f i ImageScanner.obj
 0001:00006e44       ?GetIDsOfNames@CComTypeInfoHolder@ATL@@QEAAJAEBU_GUID@@PEAPEA_WIKPEAJ@Z 0000000180007e44 f i ImageScanner.obj
 0001:00006fbc       ?GetPagesHelper@?$ISpecifyPropertyPagesImpl@VCOPOSImageScanner@@@ATL@@IEAAJPEAUtagCAUUID@@PEBUATL_PROPMAP_ENTRY@2@@Z 0000000180007fbc f i ImageScanner.obj
 0001:0000715c       ?GetSizeMax@CComVariant@ATL@@QEBAJPEAT_ULARGE_INTEGER@@@Z 000000018000815c f i ImageScanner.obj
 0001:00007390       ?GetTI@CComTypeInfoHolder@ATL@@QEAAJK@Z 0000000180008390 f i ImageScanner.obj
 0001:00007608       ?GetZoomInfo@CComControlBase@ATL@@QEAAXAEAUATL_DRAWINFO@@@Z 0000000180008608 f i ImageScanner.obj
 0001:000076ac       ?HKeyFromString@CRegParser@ATL@@KAPEAUHKEY__@@PEA_W@Z 00000001800086ac f i ImageScanner.obj
 0001:00007710       ?IDataObject_GetData@CComControlBase@ATL@@QEAAJPEAUtagFORMATETC@@PEAUtagSTGMEDIUM@@@Z 0000000180008710 f i ImageScanner.obj
 0001:00007904       ?IOleInPlaceObject_InPlaceDeactivate@CComControlBase@ATL@@QEAAJXZ 0000000180008904 f i ImageScanner.obj
 0001:000079a4       ?IOleInPlaceObject_SetObjectRects@CComControlBase@ATL@@QEAAJPEBUtagRECT@@0@Z 00000001800089a4 f i ImageScanner.obj
 0001:00007a94       ?IOleInPlaceObject_UIDeactivate@CComControlBase@ATL@@QEAAJXZ 0000000180008a94 f i ImageScanner.obj
 0001:00007ba0       ?IOleObject_Close@CComControlBase@ATL@@QEAAJK@Z 0000000180008ba0 f i ImageScanner.obj
 0001:00007cb8       ?IOleObject_SetClientSite@CComControlBase@ATL@@QEAAJPEAUIOleClientSite@@@Z 0000000180008cb8 f i ImageScanner.obj
 0001:00007d30       ?IOleObject_SetExtent@CComControlBase@ATL@@QEAAJKPEAUtagSIZE@@@Z 0000000180008d30 f i ImageScanner.obj
 0001:00007dc8       ?IPSI_GetIPersistStreamInit@?$IPersistStorageImpl@VCOPOSImageScanner@@@ATL@@AEAAPEAUIPersistStreamInit@@XZ 0000000180008dc8 f i ImageScanner.obj
 0001:00007e24       ?IQuickActivate_QuickActivate@CComControlBase@ATL@@QEAAJPEAUtagQACONTAINER@@PEAUtagQACONTROL@@@Z 0000000180008e24 f i ImageScanner.obj
 0001:000080e8       ?IViewObject_Draw@CComControlBase@ATL@@QEAAJKJPEAXPEAUtagDVTARGETDEVICE@@PEAUHDC__@@2PEBU_RECTL@@3@Z 00000001800090e8 f i ImageScanner.obj
 0001:000081fc       ?InPlaceActivate@CComControlBase@ATL@@QEAAJJPEBUtagRECT@@@Z 00000001800091fc f i ImageScanner.obj
 0001:00008534       ?Init@?$CComEnumImpl@UIEnumConnectionPoints@@$1?_GUID_b196b285_bab4_101a_b69c_00aa00341d07@@3U__s_GUID@@BPEAUIConnectionPoint@@V?$_CopyInterface@UIConnectionPoint@@@ATL@@@ATL@@QEAAJPEAPEAUIConnectionPoint@@0PEAUIUnknown@@W4CComEnumFlags@2@@Z 0000000180009534 f i ImageScanner.obj
 0001:00008654       ?Init@?$CComEnumImpl@UIEnumConnections@@$1?_GUID_b196b287_bab4_101a_b69c_00aa00341d07@@3U__s_GUID@@BUtagCONNECTDATA@@V?$_Copy@UtagCONNECTDATA@@@ATL@@@ATL@@QEAAJPEAUtagCONNECTDATA@@0PEAUIUnknown@@W4CComEnumFlags@2@@Z 0000000180009654 f i ImageScanner.obj
 0001:00008778       ?IsEqualObject@?$CComPtrBase@UITypeInfo@@@ATL@@QEAA_NPEAUIUnknown@@@Z 0000000180009778 f i ImageScanner.obj
 0001:00008778       ?IsEqualObject@?$CComPtrBase@UIOleClientSite@@@ATL@@QEAA_NPEAUIUnknown@@@Z 0000000180009778 f i ImageScanner.obj
 0001:00008804       ?LoadNameCache@CComTypeInfoHolder@ATL@@QEAAJPEAUITypeInfo@@@Z 0000000180009804 f i ImageScanner.obj
 0001:00008988       ?Lookup@?$CSimpleMap@PEA_WPEA_WVCExpansionVectorEqualHelper@ATL@@@ATL@@QEBAPEA_WAEBQEA_W@Z 0000000180009988 f i ImageScanner.obj
 0001:00008a14       ?NextToken@CRegParser@ATL@@IEAAJPEA_W@Z 0000000180009a14 f i ImageScanner.obj
 0001:00008bcc       ?OnKillFocus@CComControlBase@ATL@@QEAA_JI_K_JAEAH@Z 0000000180009bcc f i ImageScanner.obj
 0001:00008c68       ?OnMouseActivate@CComControlBase@ATL@@QEAA_JI_K_JAEAH@Z 0000000180009c68 f i ImageScanner.obj
 0001:00008d08       ?OnPaint@CComControlBase@ATL@@QEAA_JI_K_JAEAH@Z 0000000180009d08 f i ImageScanner.obj
 0001:00008df4       ?OnSetFocus@CComControlBase@ATL@@QEAA_JI_K_JAEAH@Z 0000000180009df4 f i ImageScanner.obj
 0001:00008ef0       ?Open@CRegKey@ATL@@QEAAJPEAUHKEY__@@PEB_WK@Z 0000000180009ef0 f i ImageScanner.obj
 0001:00008f7c       ?PreProcessBuffer@CRegParser@ATL@@QEAAJPEA_WPEAPEA_W@Z 0000000180009f7c f i ImageScanner.obj
 0001:00009300       ?ProcessWindowMessage@?$CComControl@VCOPOSImageScanner@@V?$CWindowImpl@VCOPOSImageScanner@@VCWindow@ATL@@V?$CWinTraits@$0FGAAAAAA@$0A@@3@@ATL@@@ATL@@UEAAHPEAUHWND__@@I_K_JAEA_JK@Z 000000018000a300 f i ImageScanner.obj
 0001:000093e4       ?PutProperty@?$CComPtr@UIDispatch@@@ATL@@SAJPEAUIDispatch@@JPEAUtagVARIANT@@@Z 000000018000a3e4 f i ImageScanner.obj
 0001:000094e8       ?ReadFromStream@CComBSTR@ATL@@QEAAJPEAUIStream@@@Z 000000018000a4e8 f i ImageScanner.obj
 0001:00009644       ?ReadFromStream@CComVariant@ATL@@QEAAJPEAUIStream@@GTClassesAllowedInStream@2@K@Z 000000018000a644 f i ImageScanner.obj
 0001:00009854       ?RecurseDeleteKey@CRegKey@ATL@@QEAAJPEB_W@Z 000000018000a854 f i ImageScanner.obj
 0001:00009960       ?RegCreateKeyExW@CAtlTransactionManager@ATL@@QEAAJPEAUHKEY__@@PEB_WKPEA_WKKQEAU_SECURITY_ATTRIBUTES@@PEAPEAU3@PEAK@Z 000000018000a960 f i ImageScanner.obj
 0001:00009a94       ?RegDeleteKeyW@CAtlTransactionManager@ATL@@QEAAJPEAUHKEY__@@PEB_W@Z 000000018000aa94 f i ImageScanner.obj
 0001:00009b20       ?RegOpenKeyExW@CAtlTransactionManager@ATL@@QEAAJPEAUHKEY__@@PEB_WKKPEAPEAU3@@Z 000000018000ab20 f i ImageScanner.obj
 0001:00009bd8       ?RegisterBuffer@CRegParser@ATL@@QEAAJPEA_WH@Z 000000018000abd8 f i ImageScanner.obj
 0001:00009d40       ?RegisterFromResource@CRegObject@ATL@@IEAAJPEB_W00H@Z 000000018000ad40 f i ImageScanner.obj
 0001:00009efc       ?RegisterServer@CComModule@ATL@@QEAAJHPEBU_GUID@@@Z 000000018000aefc f i ImageScanner.obj
 0001:00009fbc       ?RegisterSubkeys@CRegParser@ATL@@IEAAJPEA_WPEAUHKEY__@@HH@Z 000000018000afbc f i ImageScanner.obj
 0001:0000a6b0       ?SendOnDataChange@CComControlBase@ATL@@QEAAJK@Z 000000018000b6b0 f i ImageScanner.obj
 0001:0000a720       ?SetControlFocus@CComControlBase@ATL@@QEAAHH@Z 000000018000b720 f i ImageScanner.obj
 0001:0000a7fc       ?SkipAssignment@CRegParser@ATL@@IEAAJPEA_W@Z 000000018000b7fc f i ImageScanner.obj
 0001:0000a8a0       ?Term@CComModule@ATL@@QEAAXXZ 000000018000b8a0 f i ImageScanner.obj
 0001:0000a94c       ?UnregisterServer@CComModule@ATL@@QEAAJHPEBU_GUID@@@Z 000000018000b94c f i ImageScanner.obj
 0001:0000a9fc       ?UpdateRegistryFromResource@CAtlModule@ATL@@QEAAJIHPEAU_ATL_REGMAP_ENTRY@2@@Z 000000018000b9fc f i ImageScanner.obj
 0001:0000ad34       ?UpdateRegistryFromResource@CAtlModule@ATL@@QEAAJPEB_WHPEAU_ATL_REGMAP_ENTRY@2@@Z 000000018000bd34 f i ImageScanner.obj
 0001:0000b08c       ?VTFromRegType@CRegParser@ATL@@KAHPEB_WAEAG@Z 000000018000c08c f i ImageScanner.obj
 0001:0000b128       ?WindowProc@?$CWindowImplBaseT@VCWindow@ATL@@V?$CWinTraits@$0FGAAAAAA@$0A@@2@@ATL@@SA_JPEAUHWND__@@I_K_J@Z 000000018000c128 f i ImageScanner.obj
 0001:0000b294       ?WriteToStream@CComBSTR@ATL@@QEAAJPEAUIStream@@@Z 000000018000c294 f i ImageScanner.obj
 0001:0000b314       ?WriteToStream@CComVariant@ATL@@QEAAJPEAUIStream@@@Z 000000018000c314 f i ImageScanner.obj
 0001:0000b528       ?WriteToStream@CComVariant@ATL@@QEAAJPEAUIStream@@G@Z 000000018000c528 f i ImageScanner.obj
 0001:0000b5c0       ?_AtlVerifyStackAvailable@_ATL_SAFE_ALLOCA_IMPL@ATL@@YA_N_K@Z 000000018000c5c0 f i ImageScanner.obj
 0001:0000b644       ?atlCreate@?$CWindowImpl@VCOPOSImageScanner@@VCWindow@ATL@@V?$CWinTraits@$0FGAAAAAA@$0A@@3@@ATL@@QEAAPEAUHWND__@@PEAU3@V_U_RECT@2@PEB_WKKV_U_MENUorID@2@PEAX@Z 000000018000c644 f i ImageScanner.obj
 0001:0000b6f4       ?atlCreate@?$CWindowImplBaseT@VCWindow@ATL@@V?$CWinTraits@$0FGAAAAAA@$0A@@2@@ATL@@QEAAPEAUHWND__@@PEAU3@V_U_RECT@2@PEB_WKKV_U_MENUorID@2@GPEAX@Z 000000018000c6f4 f i ImageScanner.obj
 0001:0000b864       ?atlCreate@CRegKey@ATL@@QEAAJPEAUHKEY__@@PEB_WPEA_WKKPEAU_SECURITY_ATTRIBUTES@@PEAK@Z 000000018000c864 f i ImageScanner.obj
 0001:0000b950       DllCanUnloadNow            000000018000c950 f   ImageScanner.obj
 0001:0000b95c       DllGetClassObject          000000018000c95c f   ImageScanner.obj
 0001:0000b974       DllMain                    000000018000c974 f   ImageScanner.obj
 0001:0000ba1c       DllRegisterServer          000000018000ca1c f   ImageScanner.obj
 0001:0000ba30       DllUnregisterServer        000000018000ca30 f   ImageScanner.obj
 0001:0000ba44       __local_stdio_printf_options 000000018000ca44 f i ImageScanner.obj
 0001:0000bad4       swprintf_s                 000000018000cad4 f i ImageScanner.obj
 0001:0000bb28       ??0COPOSImageScanner@@QEAA@XZ 000000018000cb28 f   ImageScannerImpl.obj
 0001:0000bbf0       ??1?$IConnectionPointImpl@VCOPOSImageScanner@@$1?DIID__IOPOSImageScannerEvents@@3U_GUID@@BVCComDynamicUnkArray@ATL@@@ATL@@QEAA@XZ 000000018000cbf0 f i ImageScannerImpl.obj
 0001:0000bbf0       ??1?$IConnectionPointImpl@VCOPOSImageScanner@@$1?IID_IPropertyNotifySink@@3U_GUID@@BVCComDynamicUnkArray@ATL@@@ATL@@QEAA@XZ 000000018000cbf0 f i ImageScannerImpl.obj
 0001:0000bc4c       ??1CComControlBase@ATL@@UEAA@XZ 000000018000cc4c f i ImageScannerImpl.obj
 0001:0000bcc8       ??1COPOSImageScanner@@UEAA@XZ 000000018000ccc8 f   ImageScannerImpl.obj
 0001:0000bd2c       ?CheckHealth@COPOSImageScanner@@UEAAJJPEAJ@Z 000000018000cd2c f   ImageScannerImpl.obj
 0001:0000bda8       ?ClaimDevice@COPOSImageScanner@@UEAAJJPEAJ@Z 000000018000cda8 f   ImageScannerImpl.obj
 0001:0000be48       ?ClearInput@COPOSImageScanner@@UEAAJPEAJ@Z 000000018000ce48 f   ImageScannerImpl.obj
 0001:0000be70       ?ClearInputProperties@COPOSImageScanner@@UEAAJPEAJ@Z 000000018000ce70 f   ImageScannerImpl.obj
 0001:0000be98       ?Close@COPOSImageScanner@@UEAAJPEAJ@Z 000000018000ce98 f   ImageScannerImpl.obj
 0001:0000bf50       ?CompareFirmwareVersion@COPOSImageScanner@@UEAAJPEA_WPEAJ1@Z 000000018000cf50 f   ImageScannerImpl.obj
 0001:0000c02c       ?DirectIO@COPOSImageScanner@@UEAAJJPEAJPEAPEA_W0@Z 000000018000d02c f   ImageScannerImpl.obj
 0001:0000c128       ?DoInvoke@COPOSImageScanner@@IEAAJJPEAVOposVariant@@IHPEAJ_N@Z 000000018000d128 f   ImageScannerImpl.obj
 0001:0000c25c       ?EventInit@COPOSImageScanner@@IEAAJXZ 000000018000d25c f i ImageScannerImpl.obj
 0001:0000c3a4       ?EventUninit@COPOSImageScanner@@IEAAXXZ 000000018000d3a4 f i ImageScannerImpl.obj
 0001:0000c408       ?EventWindowProc@COPOSImageScanner@@IEAA_JI_K_J@Z 000000018000d408 f i ImageScannerImpl.obj
 0001:0000c594       ?FinalConstruct@COPOSImageScanner@@QEAAJXZ 000000018000d594 f   ImageScannerImpl.obj
 0001:0000c5d0       ?FreezeEvents@COPOSImageScanner@@MEAAJH@Z 000000018000d5d0 f   ImageScannerImpl.obj
 0001:0000c644       ?GetOposProp@COPOSImageScanner@@IEAAJJPEAJJ@Z 000000018000d644 f   ImageScannerImpl.obj
 0001:0000c760       ?GetOposProp@COPOSImageScanner@@IEAAJJPEAPEA_WJ@Z 000000018000d760 f   ImageScannerImpl.obj
 0001:0000c88c       ?OnDraw@COPOSImageScanner@@MEAAJAEAUATL_DRAWINFO@@@Z 000000018000d88c f   ImageScannerImpl.obj
 0001:0000c978       ?Open@COPOSImageScanner@@UEAAJPEA_WPEAJ@Z 000000018000d978 f   ImageScannerImpl.obj
 0001:0000d200       ?ReleaseDevice@COPOSImageScanner@@UEAAJPEAJ@Z 000000018000e200 f   ImageScannerImpl.obj
 0001:0000d26c       ?ResetStatistics@COPOSImageScanner@@UEAAJPEA_WPEAJ@Z 000000018000e26c f   ImageScannerImpl.obj
 0001:0000d2f4       ?RetrieveStatistics@COPOSImageScanner@@UEAAJPEAPEA_WPEAJ@Z 000000018000e2f4 f   ImageScannerImpl.obj
 0001:0000d37c       ?SOProcessID@COPOSImageScanner@@UEAAJPEAJ@Z 000000018000e37c f   ImageScannerImpl.obj
 0001:0000d398       ?SetCOFreezeEvents@COPOSImageScanner@@IEAAXF@Z 000000018000e398 f   ImageScannerImpl.obj
 0001:0000d47c       ?SetOposProp@COPOSImageScanner@@IEAAJJJJ@Z 000000018000e47c f   ImageScannerImpl.obj
 0001:0000d5dc       ?StartSession@COPOSImageScanner@@UEAAJPEAJ@Z 000000018000e5dc f   ImageScannerImpl.obj
 0001:0000d604       ?StopSession@COPOSImageScanner@@UEAAJPEAJ@Z 000000018000e604 f   ImageScannerImpl.obj
 0001:0000d62c       ?UpdateFirmware@COPOSImageScanner@@UEAAJPEA_WPEAJ@Z 000000018000e62c f   ImageScannerImpl.obj
 0001:0000d6b4       ?UpdateStatistics@COPOSImageScanner@@UEAAJPEA_WPEAJ@Z 000000018000e6b4 f   ImageScannerImpl.obj
 0001:0000d73c       ?get_AimMode@COPOSImageScanner@@UEAAJPEAF@Z 000000018000e73c f   ImageScannerImpl.obj
 0001:0000d770       ?get_AutoDisable@COPOSImageScanner@@UEAAJPEAF@Z 000000018000e770 f   ImageScannerImpl.obj
 0001:0000d7a4       ?get_BinaryConversion@COPOSImageScanner@@UEAAJPEAJ@Z 000000018000e7a4 f   ImageScannerImpl.obj
 0001:0000d7b8       ?get_BitsPerPixel@COPOSImageScanner@@UEAAJPEAJ@Z 000000018000e7b8 f   ImageScannerImpl.obj
 0001:0000d7cc       ?get_CapAim@COPOSImageScanner@@UEAAJPEAF@Z 000000018000e7cc f   ImageScannerImpl.obj
 0001:0000d800       ?get_CapCompareFirmwareVersion@COPOSImageScanner@@UEAAJPEAF@Z 000000018000e800 f   ImageScannerImpl.obj
 0001:0000d834       ?get_CapDecodeData@COPOSImageScanner@@UEAAJPEAF@Z 000000018000e834 f   ImageScannerImpl.obj
 0001:0000d868       ?get_CapHostTriggered@COPOSImageScanner@@UEAAJPEAF@Z 000000018000e868 f   ImageScannerImpl.obj
 0001:0000d89c       ?get_CapIlluminate@COPOSImageScanner@@UEAAJPEAF@Z 000000018000e89c f   ImageScannerImpl.obj
 0001:0000d8d0       ?get_CapImageData@COPOSImageScanner@@UEAAJPEAF@Z 000000018000e8d0 f   ImageScannerImpl.obj
 0001:0000d904       ?get_CapImageQuality@COPOSImageScanner@@UEAAJPEAF@Z 000000018000e904 f   ImageScannerImpl.obj
 0001:0000d938       ?get_CapPowerReporting@COPOSImageScanner@@UEAAJPEAJ@Z 000000018000e938 f   ImageScannerImpl.obj
 0001:0000d94c       ?get_CapStatisticsReporting@COPOSImageScanner@@UEAAJPEAF@Z 000000018000e94c f   ImageScannerImpl.obj
 0001:0000d980       ?get_CapUpdateFirmware@COPOSImageScanner@@UEAAJPEAF@Z 000000018000e980 f   ImageScannerImpl.obj
 0001:0000d9b4       ?get_CapUpdateStatistics@COPOSImageScanner@@UEAAJPEAF@Z 000000018000e9b4 f   ImageScannerImpl.obj
 0001:0000d9e8       ?get_CapVideoData@COPOSImageScanner@@UEAAJPEAF@Z 000000018000e9e8 f   ImageScannerImpl.obj
 0001:0000da1c       ?get_CheckHealthText@COPOSImageScanner@@UEAAJPEAPEA_W@Z 000000018000ea1c f   ImageScannerImpl.obj
 0001:0000da30       ?get_Claimed@COPOSImageScanner@@UEAAJPEAF@Z 000000018000ea30 f   ImageScannerImpl.obj
 0001:0000da64       ?get_ControlObjectDescription@COPOSImageScanner@@UEAAJPEAPEA_W@Z 000000018000ea64 f   ImageScannerImpl.obj
 0001:0000dac8       ?get_ControlObjectVersion@COPOSImageScanner@@UEAAJPEAJ@Z 000000018000eac8 f   ImageScannerImpl.obj
 0001:0000dad4       ?get_DataCount@COPOSImageScanner@@UEAAJPEAJ@Z 000000018000ead4 f   ImageScannerImpl.obj
 0001:0000dae8       ?get_DataEventEnabled@COPOSImageScanner@@UEAAJPEAF@Z 000000018000eae8 f   ImageScannerImpl.obj
 0001:0000db1c       ?get_DeviceDescription@COPOSImageScanner@@UEAAJPEAPEA_W@Z 000000018000eb1c f   ImageScannerImpl.obj
 0001:0000db30       ?get_DeviceEnabled@COPOSImageScanner@@UEAAJPEAF@Z 000000018000eb30 f   ImageScannerImpl.obj
 0001:0000db64       ?get_DeviceName@COPOSImageScanner@@UEAAJPEAPEA_W@Z 000000018000eb64 f   ImageScannerImpl.obj
 0001:0000db78       ?get_FrameData@COPOSImageScanner@@UEAAJPEAPEA_W@Z 000000018000eb78 f   ImageScannerImpl.obj
 0001:0000db8c       ?get_FrameType@COPOSImageScanner@@UEAAJPEAJ@Z 000000018000eb8c f   ImageScannerImpl.obj
 0001:0000dba0       ?get_FreezeEvents@COPOSImageScanner@@UEAAJPEAF@Z 000000018000eba0 f   ImageScannerImpl.obj
 0001:0000dbd0       ?get_IlluminateMode@COPOSImageScanner@@UEAAJPEAF@Z 000000018000ebd0 f   ImageScannerImpl.obj
 0001:0000dc04       ?get_ImageHeight@COPOSImageScanner@@UEAAJPEAJ@Z 000000018000ec04 f   ImageScannerImpl.obj
 0001:0000dc18       ?get_ImageLength@COPOSImageScanner@@UEAAJPEAJ@Z 000000018000ec18 f   ImageScannerImpl.obj
 0001:0000dc2c       ?get_ImageMode@COPOSImageScanner@@UEAAJPEAJ@Z 000000018000ec2c f   ImageScannerImpl.obj
 0001:0000dc40       ?get_ImageQuality@COPOSImageScanner@@UEAAJPEAJ@Z 000000018000ec40 f   ImageScannerImpl.obj
 0001:0000dc54       ?get_ImageType@COPOSImageScanner@@UEAAJPEAJ@Z 000000018000ec54 f   ImageScannerImpl.obj
 0001:0000dc68       ?get_ImageWidth@COPOSImageScanner@@UEAAJPEAJ@Z 000000018000ec68 f   ImageScannerImpl.obj
 0001:0000dc7c       ?get_OpenResult@COPOSImageScanner@@UEAAJPEAJ@Z 000000018000ec7c f   ImageScannerImpl.obj
 0001:0000dc88       ?get_PowerNotify@COPOSImageScanner@@UEAAJPEAJ@Z 000000018000ec88 f   ImageScannerImpl.obj
 0001:0000dc9c       ?get_PowerState@COPOSImageScanner@@UEAAJPEAJ@Z 000000018000ec9c f   ImageScannerImpl.obj
 0001:0000dcb0       ?get_ResultCode@COPOSImageScanner@@UEAAJPEAJ@Z 000000018000ecb0 f   ImageScannerImpl.obj
 0001:0000dcec       ?get_ResultCodeExtended@COPOSImageScanner@@UEAAJPEAJ@Z 000000018000ecec f   ImageScannerImpl.obj
 0001:0000dd00       ?get_ServiceObjectDescription@COPOSImageScanner@@UEAAJPEAPEA_W@Z 000000018000ed00 f   ImageScannerImpl.obj
 0001:0000dd14       ?get_ServiceObjectVersion@COPOSImageScanner@@UEAAJPEAJ@Z 000000018000ed14 f   ImageScannerImpl.obj
 0001:0000dd28       ?get_State@COPOSImageScanner@@UEAAJPEAJ@Z 000000018000ed28 f   ImageScannerImpl.obj
 0001:0000dd54       ?get_VideoCount@COPOSImageScanner@@UEAAJPEAJ@Z 000000018000ed54 f   ImageScannerImpl.obj
 0001:0000dd68       ?get_VideoRate@COPOSImageScanner@@UEAAJPEAJ@Z 000000018000ed68 f   ImageScannerImpl.obj
 0001:0000dd7c       ?put_AimMode@COPOSImageScanner@@UEAAJF@Z 000000018000ed7c f   ImageScannerImpl.obj
 0001:0000dd98       ?put_AutoDisable@COPOSImageScanner@@UEAAJF@Z 000000018000ed98 f   ImageScannerImpl.obj
 0001:0000ddb0       ?put_BinaryConversion@COPOSImageScanner@@UEAAJJ@Z 000000018000edb0 f   ImageScannerImpl.obj
 0001:0000ddc4       ?put_DataEventEnabled@COPOSImageScanner@@UEAAJF@Z 000000018000edc4 f   ImageScannerImpl.obj
 0001:0000dddc       ?put_DeviceEnabled@COPOSImageScanner@@UEAAJF@Z 000000018000eddc f   ImageScannerImpl.obj
 0001:0000ddf4       ?put_FreezeEvents@COPOSImageScanner@@UEAAJF@Z 000000018000edf4 f   ImageScannerImpl.obj
 0001:0000de44       ?put_IlluminateMode@COPOSImageScanner@@UEAAJF@Z 000000018000ee44 f   ImageScannerImpl.obj
 0001:0000de60       ?put_ImageMode@COPOSImageScanner@@UEAAJJ@Z 000000018000ee60 f   ImageScannerImpl.obj
 0001:0000de74       ?put_ImageQuality@COPOSImageScanner@@UEAAJJ@Z 000000018000ee74 f   ImageScannerImpl.obj
 0001:0000de88       ?put_PowerNotify@COPOSImageScanner@@UEAAJJ@Z 000000018000ee88 f   ImageScannerImpl.obj
 0001:0000de9c       ?put_VideoCount@COPOSImageScanner@@UEAAJJ@Z 000000018000ee9c f   ImageScannerImpl.obj
 0001:0000deb0       ?put_VideoRate@COPOSImageScanner@@UEAAJJ@Z 000000018000eeb0 f   ImageScannerImpl.obj
 0001:0000dec4       ?s_EventWindowProc@COPOSImageScanner@@KA_JPEAUHWND__@@I_K_J@Z 000000018000eec4 f i ImageScannerImpl.obj
 0001:0000df40       ??_U@YAPEAX_K@Z            000000018000ef40 f   LIBCMT:new_array.obj
 0001:0000df48       ??3@YAXPEAX_K@Z            000000018000ef48 f   LIBCMT:delete_scalar_size.obj
 0001:0000df48       ??_V@YAXPEAX@Z             000000018000ef48 f   LIBCMT:delete_array.obj
 0001:0000df50       ??_V@YAXPEAX_K@Z           000000018000ef50 f   LIBCMT:delete_array_size.obj
 0001:0000df58       __scrt_acquire_startup_lock 000000018000ef58 f   LIBCMT:utility.obj
 0001:0000df94       __scrt_dllmain_after_initialize_c 000000018000ef94 f   LIBCMT:utility.obj
 0001:0000dfc8       __scrt_dllmain_before_initialize_c 000000018000efc8 f   LIBCMT:utility.obj
 0001:0000dfe0       __scrt_dllmain_crt_thread_attach 000000018000efe0 f   LIBCMT:utility.obj
 0001:0000e008       __scrt_dllmain_crt_thread_detach 000000018000f008 f   LIBCMT:utility.obj
 0001:0000e020       __scrt_dllmain_exception_filter 000000018000f020 f   LIBCMT:utility.obj
 0001:0000e080       __scrt_dllmain_uninitialize_c 000000018000f080 f   LIBCMT:utility.obj
 0001:0000e0b0       __scrt_dllmain_uninitialize_critical 000000018000f0b0 f   LIBCMT:utility.obj
 0001:0000e0c4       __scrt_initialize_crt      000000018000f0c4 f   LIBCMT:utility.obj
 0001:0000e110       __scrt_initialize_onexit_tables 000000018000f110 f   LIBCMT:utility.obj
 0001:0000e19c       __scrt_is_nonwritable_in_current_image 000000018000f19c f   LIBCMT:utility.obj
 0001:0000e234       __scrt_release_startup_lock 000000018000f234 f   LIBCMT:utility.obj
 0001:0000e258       __scrt_uninitialize_crt    000000018000f258 f   LIBCMT:utility.obj
 0001:0000e284       _onexit                    000000018000f284 f   LIBCMT:utility.obj
 0001:0000e2c0       atexit                     000000018000f2c0 f   LIBCMT:utility.obj
 0001:0000e2d8       ??3@YAXPEAX@Z              000000018000f2d8 f   LIBCMT:delete_scalar.obj
 0001:0000e3d8       _Init_thread_footer        000000018000f3d8 f   LIBCMT:thread_safe_statics.obj
 0001:0000e438       _Init_thread_header        000000018000f438 f   LIBCMT:thread_safe_statics.obj
 0001:0000e4a0       _Init_thread_notify        000000018000f4a0 f   LIBCMT:thread_safe_statics.obj
 0001:0000e4e4       _Init_thread_wait          000000018000f4e4 f   LIBCMT:thread_safe_statics.obj
 0001:0000e548       __raise_securityfailure    000000018000f548 f   LIBCMT:gs_report.obj
 0001:0000e57c       __report_gsfailure         000000018000f57c f   LIBCMT:gs_report.obj
 0001:0000e650       __report_rangecheckfailure 000000018000f650 f   LIBCMT:gs_report.obj
 0001:0000e664       __report_securityfailure   000000018000f664 f   LIBCMT:gs_report.obj
 0001:0000e7e4       ??2@YAPEAX_KAEBUnothrow_t@std@@@Z 000000018000f7e4 f   LIBCMT:new_scalar_nothrow.obj
 0001:0000e804       ??_U@YAPEAX_KAEBUnothrow_t@std@@@Z 000000018000f804 f   LIBCMT:new_array_nothrow.obj
 0001:0000e80c       __GSHandlerCheck           000000018000f80c f   LIBCMT:gshandler.obj
 0001:0000e82c       __GSHandlerCheckCommon     000000018000f82c f   LIBCMT:gshandler.obj
 0001:0000e888       __GSHandlerCheck_SEH       000000018000f888 f   LIBCMT:gshandlerseh.obj
 0001:0000e920       _alloca_probe              000000018000f920 f   LIBCMT:chkstk.obj
 0001:0000e920       __chkstk                   000000018000f920 f   LIBCMT:chkstk.obj
 0001:0000e990       __security_check_cookie    000000018000f990 f   LIBCMT:amdsecgs.obj
 0001:0000ecd4       _DllMainCRTStartup         000000018000fcd4 f   LIBCMT:dll_dllmain.obj
 0001:0000ed14       ??2@YAPEAX_K@Z             000000018000fd14 f   LIBCMT:new_scalar.obj
 0001:0000ed50       __isa_available_init       000000018000fd50 f   LIBCMT:cpu_disp.obj
 0001:0000eecc       __scrt_is_ucrt_dll_in_use  000000018000fecc f   LIBCMT:ucrt_detection.obj
 0001:0000eed8       __crt_debugger_hook        000000018000fed8 f   LIBCMT:utility_desktop.obj
 0001:0000eee0       __scrt_fastfail            000000018000fee0 f   LIBCMT:utility_desktop.obj
 0001:0000f02c       __security_init_cookie     000000018001002c f   LIBCMT:gs_support.obj
 0001:0000f0d8       ?__scrt_initialize_type_info@@YAXXZ 00000001800100d8 f   LIBCMT:tncleanup.obj
 0001:0000f0e8       ?__scrt_uninitialize_type_info@@YAXXZ 00000001800100e8 f   LIBCMT:tncleanup.obj
 0001:0000f0f4       __local_stdio_scanf_options 00000001800100f4 f i LIBCMT:default_local_stdio_options.obj
 0001:0000f0fc       __scrt_initialize_default_local_stdio_options 00000001800100fc f   LIBCMT:default_local_stdio_options.obj
 0001:0000f118       __scrt_get_dyn_tls_init_callback 0000000180010118 f   LIBCMT:dyn_tls_init.obj
 0001:0000f120       _RTC_Initialize            0000000180010120 f   LIBCMT:initsect.obj
 0001:0000f15c       _RTC_Terminate             000000018001015c f   LIBCMT:initsect.obj
 0001:0000f198       ??0bad_alloc@std@@QEAA@AEBV01@@Z 0000000180010198 f i LIBCMT:throw_bad_alloc.obj
 0001:0000f1d4       ??0bad_alloc@std@@QEAA@XZ  00000001800101d4 f i LIBCMT:throw_bad_alloc.obj
 0001:0000f1f4       ??0bad_array_new_length@std@@QEAA@AEBV01@@Z 00000001800101f4 f i LIBCMT:throw_bad_alloc.obj
 0001:0000f230       ??0bad_array_new_length@std@@QEAA@XZ 0000000180010230 f i LIBCMT:throw_bad_alloc.obj
 0001:0000f250       ??0exception@std@@QEAA@AEBV01@@Z 0000000180010250 f i LIBCMT:throw_bad_alloc.obj
 0001:0000f284       ??1bad_alloc@std@@UEAA@XZ  0000000180010284 f i LIBCMT:throw_bad_alloc.obj
 0001:0000f284       ??1bad_exception@std@@UEAA@XZ 0000000180010284 f i libvcruntime:frame.obj
 0001:0000f284       ??1bad_array_new_length@std@@UEAA@XZ 0000000180010284 f i LIBCMT:throw_bad_alloc.obj
 0001:0000f298       ??_Ebad_array_new_length@std@@UEAAPEAXI@Z 0000000180010298 f i LIBCMT:throw_bad_alloc.obj
 0001:0000f298       ??_Ebad_exception@std@@UEAAPEAXI@Z 0000000180010298 f i libvcruntime:frame.obj
 0001:0000f298       ??_Ebad_alloc@std@@UEAAPEAXI@Z 0000000180010298 f i LIBCMT:throw_bad_alloc.obj
 0001:0000f298       ??_Gbad_array_new_length@std@@UEAAPEAXI@Z 0000000180010298 f i LIBCMT:throw_bad_alloc.obj
 0001:0000f298       ??_Gbad_exception@std@@UEAAPEAXI@Z 0000000180010298 f i libvcruntime:frame.obj
 0001:0000f298       ??_Gbad_alloc@std@@UEAAPEAXI@Z 0000000180010298 f i LIBCMT:throw_bad_alloc.obj
 0001:0000f298       ??_Gexception@std@@UEAAPEAXI@Z 0000000180010298 f i LIBCMT:throw_bad_alloc.obj
 0001:0000f298       ??_Eexception@std@@UEAAPEAXI@Z 0000000180010298 f i LIBCMT:throw_bad_alloc.obj
 0001:0000f2dc       ?__scrt_throw_std_bad_alloc@@YAXXZ 00000001800102dc f   LIBCMT:throw_bad_alloc.obj
 0001:0000f2fc       ?__scrt_throw_std_bad_array_new_length@@YAXXZ 00000001800102fc f   LIBCMT:throw_bad_alloc.obj
 0001:0000f31c       ?what@exception@std@@UEBAPEBDXZ 000000018001031c f i LIBCMT:throw_bad_alloc.obj
 0001:0000f330       ??_Gtype_info@@UEAAPEAXI@Z 0000000180010330 f i LIBCMT:std_type_info_static.obj
 0001:0000f330       ??_Etype_info@@UEAAPEAXI@Z 0000000180010330 f i LIBCMT:std_type_info_static.obj
 0001:0000f35c       ??0CAtlBaseModule@ATL@@QEAA@XZ 000000018001035c f   atls:atlbase.obj
 0001:0000f404       ??1CAtlBaseModule@ATL@@QEAA@XZ 0000000180010404 f   atls:atlbase.obj
 0001:0000f538       ?__AllocStdCallThunk_cmn@@YAPEAXXZ 0000000180010538 f   atls:atlthunk.obj
 0001:0000f690       AtlThunk_AllocateData      0000000180010690 f   atls:atlthunk.obj
 0001:0000f70c       AtlThunk_DataToCode        000000018001070c f   atls:atlthunk.obj
 0001:0000f760       AtlThunk_FreeData          0000000180010760 f   atls:atlthunk.obj
 0001:0000f7c0       AtlThunk_InitData          00000001800107c0 f   atls:atlthunk.obj
 0001:0000f868       _purecall                  0000000180010868 f   libvcruntime:purevirt.obj
 0001:0000f884       wcsstr                     0000000180010884 f   libvcruntime:wcsstr.obj
 0001:0000fab0       memcmp                     0000000180010ab0 f   libvcruntime:memcmp.obj
 0001:0000fb90       memcpy_repmovs             0000000180010b90 f   libvcruntime:memcpy.obj
 0001:0000fbb0       memmove                    0000000180010bb0 f   libvcruntime:memcpy.obj
 0001:0000fbb0       memcpy                     0000000180010bb0 f   libvcruntime:memcpy.obj
 0001:0000ffa0       memset_repmovs             0000000180010fa0 f   libvcruntime:memset.obj
 0001:0000ffc0       memset                     0000000180010fc0 f   libvcruntime:memset.obj
 0001:00010150       __vcrt_initialize          0000000180011150 f   libvcruntime:initialization.obj
 0001:00010178       __vcrt_thread_attach       0000000180011178 f   libvcruntime:initialization.obj
 0001:0001018c       __vcrt_thread_detach       000000018001118c f   libvcruntime:initialization.obj
 0001:000101a0       __vcrt_uninitialize        00000001800111a0 f   libvcruntime:initialization.obj
 0001:000101bc       __vcrt_uninitialize_critical 00000001800111bc f   libvcruntime:initialization.obj
 0001:000101cc       __C_specific_handler       00000001800111cc f   libvcruntime:riscchandler.obj
 0001:000103d8       ??$_CallSETranslator@V__FrameHandler3@@@@YAHPEAUEHExceptionRecord@@PEA_KPEAU_CONTEXT@@PEAU_xDISPATCHER_CONTEXT@@PEBU_s_FuncInfo@@K1@Z 00000001800113d8 f i libvcruntime:risctrnsctrl.obj
 0001:0001042c       ?CatchTryBlock@__FrameHandler3@@SAPEBU_s_TryBlockMapEntry@@PEBU_s_FuncInfo@@H@Z 000000018001142c f   libvcruntime:risctrnsctrl.obj
 0001:00010480       ?ExecutionInCatch@__FrameHandler3@@SA_NPEAU_xDISPATCHER_CONTEXT@@PEBU_s_FuncInfo@@@Z 0000000180011480 f   libvcruntime:risctrnsctrl.obj
 0001:000104ac       ?FrameUnwindToEmptyState@__FrameHandler3@@SAXPEA_KPEAU_xDISPATCHER_CONTEXT@@PEBU_s_FuncInfo@@@Z 00000001800114ac f   libvcruntime:risctrnsctrl.obj
 0001:00010510       ?GetEstablisherFrame@__FrameHandler3@@SAPEA_KPEA_KPEAU_xDISPATCHER_CONTEXT@@PEBU_s_FuncInfo@@0@Z 0000000180011510 f   libvcruntime:risctrnsctrl.obj
 0001:000105dc       ?GetRangeOfTrysToCheck@__FrameHandler3@@SA?AU?$pair@Viterator@TryBlockMap@__FrameHandler3@@V123@@std@@AEAVTryBlockMap@1@HPEAU_xDISPATCHER_CONTEXT@@PEBU_s_FuncInfo@@H@Z 00000001800115dc f   libvcruntime:risctrnsctrl.obj
 0001:0001071c       ?UnwindNestedFrames@__FrameHandler3@@SAXPEA_KPEAUEHExceptionRecord@@PEAU_CONTEXT@@0PEAXPEBU_s_FuncInfo@@HHPEBU_s_HandlerType@@PEAU_xDISPATCHER_CONTEXT@@E@Z 000000018001171c f   libvcruntime:risctrnsctrl.obj
 0001:00010840       _CreateFrameInfo           0000000180011840 f   libvcruntime:risctrnsctrl.obj
 0001:0001087c       _FindAndUnlinkFrame        000000018001187c f   libvcruntime:risctrnsctrl.obj
 0001:000108d0       _GetImageBase              00000001800118d0 f   libvcruntime:risctrnsctrl.obj
 0001:000108e4       _GetThrowImageBase         00000001800118e4 f   libvcruntime:risctrnsctrl.obj
 0001:000108f8       _SetImageBase              00000001800118f8 f   libvcruntime:risctrnsctrl.obj
 0001:00010910       _SetThrowImageBase         0000000180011910 f   libvcruntime:risctrnsctrl.obj
 0001:00010928       __CxxFrameHandler3         0000000180011928 f   libvcruntime:risctrnsctrl.obj
 0001:000109b0       __std_type_info_compare    00000001800119b0 f   libvcruntime:std_type_info.obj
 0001:000109d8       __std_type_info_destroy_list 00000001800119d8 f   libvcruntime:std_type_info.obj
 0001:00010a04       __std_exception_copy       0000000180011a04 f   libvcruntime:std_exception.obj
 0001:00010a94       __std_exception_destroy    0000000180011a94 f   libvcruntime:std_exception.obj
 0001:00010abc       _CxxThrowException         0000000180011abc f   libvcruntime:throw.obj
 0001:00010b7c       __vcrt_freefls             0000000180011b7c f   libvcruntime:per_thread_data.obj
 0001:00010b9c       __vcrt_freeptd             0000000180011b9c f   libvcruntime:per_thread_data.obj
 0001:00010bec       __vcrt_getptd              0000000180011bec f   libvcruntime:per_thread_data.obj
 0001:00010c08       __vcrt_getptd_noexit       0000000180011c08 f   libvcruntime:per_thread_data.obj
 0001:00010cc8       __vcrt_initialize_ptd      0000000180011cc8 f   libvcruntime:per_thread_data.obj
 0001:00010d10       __vcrt_uninitialize_ptd    0000000180011d10 f   libvcruntime:per_thread_data.obj
 0001:00010d34       __vcrt_initialize_locks    0000000180011d34 f   libvcruntime:locks.obj
 0001:00010d68       __vcrt_uninitialize_locks  0000000180011d68 f   libvcruntime:locks.obj
 0001:00010db0       _NLG_Notify                0000000180011db0 f   libvcruntime:notify.obj
 0001:00010dd0       __NLG_Dispatch2            0000000180011dd0 f   libvcruntime:notify.obj
 0001:00010de0       __NLG_Return2              0000000180011de0 f   libvcruntime:notify.obj
 0001:00010de4       __except_validate_context_record 0000000180011de4 f   libvcruntime:jbcxrval.obj
 0001:00010e1c       __DestructExceptionObject  0000000180011e1c f   libvcruntime:ehhelpers.obj
 0001:00010e90       ?_CallMemberFunction0@@YAXQEAX0@Z 0000000180011e90 f i libvcruntime:ehhelpers.obj
 0001:00010e94       _IsExceptionObjectToBeDestroyed 0000000180011e94 f   libvcruntime:ehhelpers.obj
 0001:00010ec4       __AdjustPointer            0000000180011ec4 f   libvcruntime:ehhelpers.obj
 0001:00010ee8       __FrameUnwindFilter        0000000180011ee8 f   libvcruntime:ehhelpers.obj
 0001:00010f34       ?GetCurrentState@__FrameHandler3@@SAHPEA_KPEAU_xDISPATCHER_CONTEXT@@PEBU_s_FuncInfo@@@Z 0000000180011f34 f   libvcruntime:ehstate.obj
 0001:00010f5c       ?GetUnwindTryBlock@__FrameHandler3@@SAHPEA_KPEAU_xDISPATCHER_CONTEXT@@PEBU_s_FuncInfo@@@Z 0000000180011f5c f   libvcruntime:ehstate.obj
 0001:00010f88       ?SetState@__FrameHandler3@@SAXPEA_KPEBU_s_FuncInfo@@H@Z 0000000180011f88 f   libvcruntime:ehstate.obj
 0001:00010f94       ?SetUnwindTryBlock@__FrameHandler3@@SAXPEA_KPEAU_xDISPATCHER_CONTEXT@@PEBU_s_FuncInfo@@H@Z 0000000180011f94 f   libvcruntime:ehstate.obj
 0001:00010fd0       ?StateFromControlPc@__FrameHandler3@@SAHPEBU_s_FuncInfo@@PEAU_xDISPATCHER_CONTEXT@@@Z 0000000180011fd0 f   libvcruntime:ehstate.obj
 0001:00010fd8       ?StateFromIp@__FrameHandler3@@SAHPEBU_s_FuncInfo@@PEAU_xDISPATCHER_CONTEXT@@_K@Z 0000000180011fd8 f   libvcruntime:ehstate.obj
 0001:00011ac4       ??$TypeMatchHelper@V__FrameHandler3@@@@YAHPEBU_s_HandlerType@@PEBU_s_CatchableType@@PEBU_s_ThrowInfo@@@Z 0000000180012ac4 f i libvcruntime:frame.obj
 0001:00011c08       ??$__InternalCxxFrameHandler@V__FrameHandler3@@@@YA?AW4_EXCEPTION_DISPOSITION@@PEAUEHExceptionRecord@@PEA_KPEAU_CONTEXT@@PEAU_xDISPATCHER_CONTEXT@@PEBU_s_FuncInfo@@H1E@Z 0000000180012c08 f i libvcruntime:frame.obj
 0001:00011e50       ??0bad_exception@std@@QEAA@AEBV01@@Z 0000000180012e50 f i libvcruntime:frame.obj
 0001:00011e8c       ??0bad_exception@std@@QEAA@XZ 0000000180012e8c f i libvcruntime:frame.obj
 0001:00011eac       ?CxxCallCatchBlock@__FrameHandler3@@SAPEAXPEAU_EXCEPTION_RECORD@@@Z 0000000180012eac f   libvcruntime:frame.obj
 0001:00012120       ?FrameUnwindToState@__FrameHandler3@@SAXPEA_KPEAU_xDISPATCHER_CONTEXT@@PEBU_s_FuncInfo@@H@Z 0000000180013120 f   libvcruntime:frame.obj
 0001:000122ac       ?GetHandlerSearchState@__FrameHandler3@@SAHPEA_KPEAU_xDISPATCHER_CONTEXT@@PEBU_s_FuncInfo@@@Z 00000001800132ac f i libvcruntime:frame.obj
 0001:000124bc       ?_CallMemberFunction1@@YAXQEAX00@Z 00000001800134bc f i libvcruntime:frame.obj
 0001:000124c8       ?_CallMemberFunction2@@YAXQEAX00H@Z 00000001800134c8 f i libvcruntime:frame.obj
 0001:00012634       __vcrt_FlsAlloc            0000000180013634 f   libvcruntime:winapi_downlevel.obj
 0001:0001267c       __vcrt_FlsFree             000000018001367c f   libvcruntime:winapi_downlevel.obj
 0001:000126c4       __vcrt_FlsGetValue         00000001800136c4 f   libvcruntime:winapi_downlevel.obj
 0001:0001270c       __vcrt_FlsSetValue         000000018001370c f   libvcruntime:winapi_downlevel.obj
 0001:00012760       __vcrt_InitializeCriticalSectionEx 0000000180013760 f   libvcruntime:winapi_downlevel.obj
 0001:000127e0       _CallSettingFrame          00000001800137e0 f   libvcruntime:handlers.obj
 0001:00012830       _CallSettingFrame_LookupContinuationIndex 0000000180013830 f   libvcruntime:handlers.obj
 0001:00012860       _CallSettingFrame_NotifyContinuationAddr 0000000180013860 f   libvcruntime:handlers.obj
 0001:00012890       _CallSettingFrameEncoded   0000000180013890 f   libvcruntime:handlers.obj
 0001:000128d8       free                       00000001800138d8 f   libucrt:free.obj
 0001:000128ec       __acrt_call_reportfault    00000001800138ec f   libucrt:invalid_parameter.obj
 0001:00012a48       __acrt_initialize_invalid_parameter_handler 0000000180013a48 f   libucrt:invalid_parameter.obj
 0001:00012a50       _invalid_parameter         0000000180013a50 f   libucrt:invalid_parameter.obj
 0001:00012b00       _invalid_parameter_noinfo  0000000180013b00 f   libucrt:invalid_parameter.obj
 0001:00012b20       _invoke_watson             0000000180013b20 f   libucrt:invalid_parameter.obj
 0001:00012b68       __acrt_errno_from_os_error 0000000180013b68 f   libucrt:errno.obj
 0001:00012bb0       __acrt_errno_map_os_error  0000000180013bb0 f   libucrt:errno.obj
 0001:00012c00       __doserrno                 0000000180013c00 f   libucrt:errno.obj
 0001:00012c20       _errno                     0000000180013c20 f   libucrt:errno.obj
 0001:00012c40       calloc                     0000000180013c40 f   libucrt:calloc.obj
 0001:00012c48       malloc                     0000000180013c48 f   libucrt:malloc.obj
 0001:00012c50       _recalloc                  0000000180013c50 f   libucrt:recalloc.obj
 0001:00012c58       _recalloc_base             0000000180013c58 f   libucrt:recalloc.obj
 0001:00012cf0       _resetstkoflw              0000000180013cf0 f   libucrt:resetstk.obj
 0001:00012e1c       wcscat_s                   0000000180013e1c f   libucrt:wcscat_s.obj
 0001:00012e9c       wcscpy_s                   0000000180013e9c f   libucrt:wcscpy_s.obj
 0001:00012f04       wcsncpy_s                  0000000180013f04 f   libucrt:wcsncpy_s.obj
 0001:000131bc       ??$ensure_buffer_is_big_enough@D@formatting_buffer@__crt_stdio_output@@QEAA_N_K@Z 00000001800141bc f i libucrt:output.obj
 0001:00013264       ??$ensure_buffer_is_big_enough@_W@formatting_buffer@__crt_stdio_output@@QEAA_N_K@Z 0000000180014264 f i libucrt:output.obj
 0001:00013310       ??$is_wide_character_specifier@_W@__crt_stdio_output@@YA_N_K_WW4length_modifier@0@@Z 0000000180014310 f i libucrt:output.obj
 0001:00013350       ??$type_case_integer_parse_into_buffer@I@?$output_processor@_WV?$string_output_adapter@_W@__crt_stdio_output@@V?$format_validation_base@_WV?$string_output_adapter@_W@__crt_stdio_output@@@2@@__crt_stdio_output@@AEAAXII_N@Z 0000000180014350 f i libucrt:output.obj
 0001:000133f4       ??$type_case_integer_parse_into_buffer@_K@?$output_processor@_WV?$string_output_adapter@_W@__crt_stdio_output@@V?$format_validation_base@_WV?$string_output_adapter@_W@__crt_stdio_output@@@2@@__crt_stdio_output@@AEAAX_KI_N@Z 00000001800143f4 f i libucrt:output.obj
 0001:00013498       ??$write_multiple_characters@V?$string_output_adapter@_W@__crt_stdio_output@@D@__crt_stdio_output@@YAXAEBV?$string_output_adapter@_W@0@DHQEAH@Z 0000000180014498 f i libucrt:output.obj
 0001:00013514       ??0_LocaleUpdate@@QEAA@QEAU__crt_locale_pointers@@@Z 0000000180014514 f i libucrt:output.obj
 0001:000135b0       ?crop_zeroes@__crt_stdio_output@@YAXPEADQEAU__crt_locale_pointers@@@Z 00000001800145b0 f i libucrt:output.obj
 0001:0001361c       ?parse_int_from_format_string@?$output_processor@_WV?$string_output_adapter@_W@__crt_stdio_output@@V?$format_validation_base@_WV?$string_output_adapter@_W@__crt_stdio_output@@@2@@__crt_stdio_output@@AEAA_NQEAH@Z 000000018001461c f i libucrt:output.obj
 0001:000136c0       ?process@?$output_processor@_WV?$string_output_adapter@_W@__crt_stdio_output@@V?$format_validation_base@_WV?$string_output_adapter@_W@__crt_stdio_output@@@2@@__crt_stdio_output@@QEAAHXZ 00000001800146c0 f i libucrt:output.obj
 0001:00013948       ?state_case_size@?$output_processor@_WV?$string_output_adapter@_W@__crt_stdio_output@@V?$format_validation_base@_WV?$string_output_adapter@_W@__crt_stdio_output@@@2@@__crt_stdio_output@@AEAA_NXZ 0000000180014948 f i libucrt:output.obj
 0001:00013ae0       ?state_case_type@?$output_processor@_WV?$string_output_adapter@_W@__crt_stdio_output@@V?$format_validation_base@_WV?$string_output_adapter@_W@__crt_stdio_output@@@2@@__crt_stdio_output@@AEAA_NXZ 0000000180014ae0 f i libucrt:output.obj
 0001:00013dac       ?type_case_Z@?$output_processor@_WV?$string_output_adapter@_W@__crt_stdio_output@@V?$format_validation_base@_WV?$string_output_adapter@_W@__crt_stdio_output@@@2@@__crt_stdio_output@@AEAA_NXZ 0000000180014dac f i libucrt:output.obj
 0001:00013e28       ?type_case_a@?$output_processor@_WV?$string_output_adapter@_W@__crt_stdio_output@@V?$format_validation_base@_WV?$string_output_adapter@_W@__crt_stdio_output@@@2@@__crt_stdio_output@@AEAA_NXZ 0000000180014e28 f i libucrt:output.obj
 0001:00014064       ?type_case_c_tchar@?$output_processor@_WV?$string_output_adapter@_W@__crt_stdio_output@@V?$format_validation_base@_WV?$string_output_adapter@_W@__crt_stdio_output@@@2@@__crt_stdio_output@@AEAA_N_W@Z 0000000180015064 f i libucrt:output.obj
 0001:0001410c       ?type_case_integer@?$output_processor@_WV?$string_output_adapter@_W@__crt_stdio_output@@V?$format_validation_base@_WV?$string_output_adapter@_W@__crt_stdio_output@@@2@@__crt_stdio_output@@AEAA_NI_N@Z 000000018001510c f i libucrt:output.obj
 0001:000142d8       ?type_case_n@?$output_processor@_WV?$string_output_adapter@_W@__crt_stdio_output@@V?$format_validation_base@_WV?$string_output_adapter@_W@__crt_stdio_output@@@2@@__crt_stdio_output@@AEAA_NXZ 00000001800152d8 f i libucrt:output.obj
 0001:000143b4       ?type_case_s@?$output_processor@_WV?$string_output_adapter@_W@__crt_stdio_output@@V?$format_validation_base@_WV?$string_output_adapter@_W@__crt_stdio_output@@@2@@__crt_stdio_output@@AEAA_NXZ 00000001800153b4 f i libucrt:output.obj
 0001:0001447c       ?write_stored_string_tchar@?$output_processor@_WV?$string_output_adapter@_W@__crt_stdio_output@@V?$format_validation_base@_WV?$string_output_adapter@_W@__crt_stdio_output@@@2@@__crt_stdio_output@@AEAA_N_W@Z 000000018001547c f i libucrt:output.obj
 0001:00014568       ?write_string@?$string_output_adapter@_W@__crt_stdio_output@@QEBAXQEB_WHQEAHAEAV__crt_deferred_errno_cache@@@Z 0000000180015568 f i libucrt:output.obj
 0001:00014610       __stdio_common_vswprintf_s 0000000180015610 f   libucrt:output.obj
 0001:00014680       _seh_filter_dll            0000000180015680 f   libucrt:exception_filter.obj
 0001:00014694       _seh_filter_exe            0000000180015694 f   libucrt:exception_filter.obj
 0001:00014a84       __acrt_initialize_thread_local_exit_callback 0000000180015a84 f   libucrt:exit.obj
 0001:00014a8c       _cexit                     0000000180015a8c f   libucrt:exit.obj
 0001:00014a9c       _exit                      0000000180015a9c f   libucrt:exit.obj
 0001:00014aa8       _is_c_termination_complete 0000000180015aa8 f   libucrt:exit.obj
 0001:00014c74       __acrt_allocate_buffer_for_argv 0000000180015c74 f   libucrt:argv_parsing.obj
 0001:00014cd4       _configure_narrow_argv     0000000180015cd4 f   libucrt:argv_parsing.obj
 0001:0001504c       __dcrt_uninitialize_environments_nolock 000000018001604c f   libucrt:environment_initialization.obj
 0001:00015084       _initialize_narrow_environment 0000000180016084 f   libucrt:environment_initialization.obj
 0001:000153cc       _crt_atexit                00000001800163cc f   libucrt:onexit.obj
 0001:000153dc       _execute_onexit_table      00000001800163dc f   libucrt:onexit.obj
 0001:00015418       _initialize_onexit_table   0000000180016418 f   libucrt:onexit.obj
 0001:00015440       _register_onexit_function  0000000180016440 f   libucrt:onexit.obj
 0001:000154c0       __acrt_uninitialize_command_line 00000001800164c0 f   libucrt:argv_data.obj
 0001:000155b8       __acrt_initialize          00000001800165b8 f   libucrt:initialization.obj
 0001:000155cc       __acrt_thread_attach       00000001800165cc f   libucrt:initialization.obj
 0001:000155e0       __acrt_thread_detach       00000001800165e0 f   libucrt:initialization.obj
 0001:000155f0       __acrt_uninitialize        00000001800165f0 f   libucrt:initialization.obj
 0001:00015628       __acrt_uninitialize_critical 0000000180016628 f   libucrt:initialization.obj
 0001:00015638       _initterm                  0000000180016638 f   libucrt:initterm.obj
 0001:0001569c       _initterm_e                000000018001669c f   libucrt:initterm.obj
 0001:000156dc       __acrt_initialize_new_handler 00000001800166dc f   libucrt:new_handler.obj
 0001:000156e4       _callnewh                  00000001800166e4 f   libucrt:new_handler.obj
 0001:00015714       _query_new_handler         0000000180016714 f   libucrt:new_handler.obj
 0001:00015748       terminate                  0000000180016748 f   libucrt:terminate.obj
 0001:00015768       abort                      0000000180016768 f   libucrt:abort.obj
 0001:000157c0       strcpy_s                   00000001800167c0 f   libucrt:strcpy_s.obj
 0001:00015820       ??$parse_integer@KV?$c_string_character_source@_W@__crt_strtox@@@__crt_strtox@@YAKQEAU__crt_locale_pointers@@V?$c_string_character_source@_W@0@H_N@Z 0000000180016820 f i libucrt:atox.obj
 0001:00015ee0       strncmp                    0000000180016ee0 f   libucrt:strncmp.obj
 0001:00015f60       wcsncmp                    0000000180016f60 f   libucrt:wcsncmp.obj
 0001:00015f8c       _free_base                 0000000180016f8c f   libucrt:free_base.obj
 0001:00016344       __acrt_freeptd             0000000180017344 f   libucrt:per_thread_data.obj
 0001:00016388       __acrt_getptd              0000000180017388 f   libucrt:per_thread_data.obj
 0001:0001645c       __acrt_getptd_head         000000018001745c f   libucrt:per_thread_data.obj
 0001:00016504       __acrt_getptd_noexit       0000000180017504 f   libucrt:per_thread_data.obj
 0001:000165d0       __acrt_initialize_ptd      00000001800175d0 f   libucrt:per_thread_data.obj
 0001:0001660c       __acrt_uninitialize_ptd    000000018001760c f   libucrt:per_thread_data.obj
 0001:00016630       _calloc_base               0000000180017630 f   libucrt:calloc_base.obj
 0001:000166a8       _malloc_base               00000001800176a8 f   libucrt:malloc_base.obj
 0001:00016708       _msize_base                0000000180017708 f   libucrt:msize.obj
 0001:00016744       _realloc_base              0000000180017744 f   libucrt:realloc_base.obj
 0001:00016998       __acrt_AppPolicyGetProcessTerminationMethodInternal 0000000180017998 f   libucrt:winapi_thunks.obj
 0001:000169e8       __acrt_AreFileApisANSI     00000001800179e8 f   libucrt:winapi_thunks.obj
 0001:00016a24       __acrt_FlsAlloc            0000000180017a24 f   libucrt:winapi_thunks.obj
 0001:00016a6c       __acrt_FlsFree             0000000180017a6c f   libucrt:winapi_thunks.obj
 0001:00016ab4       __acrt_FlsGetValue         0000000180017ab4 f   libucrt:winapi_thunks.obj
 0001:00016afc       __acrt_FlsSetValue         0000000180017afc f   libucrt:winapi_thunks.obj
 0001:00016b50       __acrt_InitializeCriticalSectionEx 0000000180017b50 f   libucrt:winapi_thunks.obj
 0001:00016bb4       __acrt_LCMapStringEx       0000000180017bb4 f   libucrt:winapi_thunks.obj
 0001:00016c90       __acrt_LocaleNameToLCID    0000000180017c90 f   libucrt:winapi_thunks.obj
 0001:00016ce0       __acrt_SetThreadStackGuarantee 0000000180017ce0 f   libucrt:winapi_thunks.obj
 0001:00016d24       __acrt_initialize_winapi_thunks 0000000180017d24 f   libucrt:winapi_thunks.obj
 0001:00016d58       __acrt_uninitialize_winapi_thunks 0000000180017d58 f   libucrt:winapi_thunks.obj
 0001:00016d9c       wcstol                     0000000180017d9c f   libucrt:strtox.obj
 0001:00016dc8       _mbtowc_l                  0000000180017dc8 f   libucrt:mbtowc.obj
 0001:00016f48       mbtowc                     0000000180017f48 f   libucrt:mbtowc.obj
 0001:00016f50       wcsnlen                    0000000180017f50 f   libucrt:strnlen.obj
 0001:00017128       __acrt_update_locale_info  0000000180018128 f   libucrt:locale_update.obj
 0001:0001715c       __acrt_update_multibyte_info 000000018001815c f   libucrt:locale_update.obj
 0001:00017a28       __acrt_fp_format           0000000180018a28 f   libucrt:cvt.obj
 0001:00017d2c       _fileno                    0000000180018d2c f   libucrt:fileno.obj
 0001:00017d54       __acrt_initialize_stdio    0000000180018d54 f   libucrt:_file.obj
 0001:00017e74       __acrt_uninitialize_stdio  0000000180018e74 f   libucrt:_file.obj
 0001:00017ed0       _lock_file                 0000000180018ed0 f   libucrt:_file.obj
 0001:00017edc       _unlock_file               0000000180018edc f   libucrt:_file.obj
 0001:00017ee8       _get_printf_count_output   0000000180018ee8 f   libucrt:printf_count_output.obj
 0001:00017f70       __acrt_set_locale_changed  0000000180018f70 f   libucrt:wsetlocale.obj
 0001:00017f7c       __acrt_uninitialize_locale 0000000180018f7c f   libucrt:wsetlocale.obj
 0001:000181a8       __acrt_initialize_lowio    00000001800191a8 f   libucrt:ioinit.obj
 0001:000181e4       __acrt_uninitialize_lowio  00000001800191e4 f   libucrt:ioinit.obj
 0001:00018224       __acrt_initialize_locks    0000000180019224 f   libucrt:locks.obj
 0001:0001826c       __acrt_lock                000000018001926c f   libucrt:locks.obj
 0001:00018288       __acrt_uninitialize_locks  0000000180019288 f   libucrt:locks.obj
 0001:000182c0       __acrt_unlock              00000001800192c0 f   libucrt:locks.obj
 0001:000182dc       __acrt_get_process_end_policy 00000001800192dc f   libucrt:win_policies.obj
 0001:0001832c       ??$__acrt_mbs_to_wcs_cp@U__crt_win32_buffer_internal_dynamic_resizing@@@@YAHQEBDAEAV?$__crt_win32_buffer@_WU__crt_win32_buffer_internal_dynamic_resizing@@@@I@Z 000000018001932c f i libucrt:argv_wildcards.obj
 0001:000184a4       ??$__acrt_wcs_to_mbs_cp@U__crt_win32_buffer_internal_dynamic_resizing@@@@YAHQEB_WAEAV?$__crt_win32_buffer@DU__crt_win32_buffer_internal_dynamic_resizing@@@@I@Z 00000001800194a4 f i libucrt:argv_wildcards.obj
 0001:00018cd4       __acrt_expand_narrow_argv_wildcards 0000000180019cd4 f   libucrt:argv_wildcards.obj
 0001:00018cdc       ??$__acrt_wcs_to_mbs_cp@U__crt_win32_buffer_no_resizing@@@@YAHQEB_WAEAV?$__crt_win32_buffer@DU__crt_win32_buffer_no_resizing@@@@I@Z 0000000180019cdc f i libucrt:getmodulefilenamea.obj
 0001:00018df0       __acrt_GetModuleFileNameA  0000000180019df0 f   libucrt:getmodulefilenamea.obj
 0001:0001963c       __acrt_initialize_multibyte 000000018001a63c f   libucrt:mbctype.obj
 0001:0001969c       __acrt_update_thread_multibyte_data 000000018001a69c f   libucrt:mbctype.obj
 0001:000196b8       _setmbcp_nolock            000000018001a6b8 f   libucrt:mbctype.obj
 0001:000199ec       _ismbblead                 000000018001a9ec f   libucrt:ismbbyte.obj
 0001:00019a00       __acrt_initialize_command_line 000000018001aa00 f   libucrt:argv_data.obj
 0001:00019a28       __acrt_MultiByteToWideChar 000000018001aa28 f   libucrt:multibytetowidechar.obj
 0001:00019a84       __acrt_WideCharToMultiByte 000000018001aa84 f   libucrt:widechartomultibyte.obj
 0001:00019b1c       __dcrt_get_narrow_environment_from_os 000000018001ab1c f   libucrt:get_environment_from_os.obj
 0001:00019c20       __acrt_initialize_heap     000000018001ac20 f   libucrt:heap_handle.obj
 0001:00019c3c       __acrt_uninitialize_heap   000000018001ac3c f   libucrt:heap_handle.obj
 0001:00019c48       __acrt_execute_initializers 000000018001ac48 f   libucrt:shared_initialization.obj
 0001:00019cc8       __acrt_execute_uninitializers 000000018001acc8 f   libucrt:shared_initialization.obj
 0001:00019d4c       __acrt_get_sigabrt_handler 000000018001ad4c f   libucrt:signal.obj
 0001:00019d7c       __acrt_initialize_signal_handlers 000000018001ad7c f   libucrt:signal.obj
 0001:00019d9c       raise                      000000018001ad9c f   libucrt:signal.obj
 0001:0001a008       __acrt_has_user_matherr    000000018001b008 f   libucrt:matherr.obj
 0001:0001a028       __acrt_initialize_user_matherr 000000018001b028 f   libucrt:matherr.obj
 0001:0001a030       __acrt_invoke_user_matherr 000000018001b030 f   libucrt:matherr.obj
 0001:0001a23c       __acrt_stdio_flush_nolock  000000018001b23c f   libucrt:fflush.obj
 0001:0001a2b8       _fflush_nolock             000000018001b2b8 f   libucrt:fflush.obj
 0001:0001a304       _flushall                  000000018001b304 f   libucrt:fflush.obj
 0001:0001a30c       __pctype_func              000000018001b30c f   libucrt:ctype.obj
 0001:0001a33c       iswctype                   000000018001b33c f   libucrt:iswctype.obj
 0001:0001a3ac       __acrt_add_locale_ref      000000018001b3ac f   libucrt:locale_refcounting.obj
 0001:0001a438       __acrt_free_locale         000000018001b438 f   libucrt:locale_refcounting.obj
 0001:0001a5b0       __acrt_locale_add_lc_time_reference 000000018001b5b0 f   libucrt:locale_refcounting.obj
 0001:0001a5d8       __acrt_locale_free_lc_time_if_unreferenced 000000018001b5d8 f   libucrt:locale_refcounting.obj
 0001:0001a610       __acrt_locale_release_lc_time_reference 000000018001b610 f   libucrt:locale_refcounting.obj
 0001:0001a638       __acrt_release_locale_ref  000000018001b638 f   libucrt:locale_refcounting.obj
 0001:0001a6e0       __acrt_update_thread_locale_data 000000018001b6e0 f   libucrt:locale_refcounting.obj
 0001:0001a74c       _updatetlocinfoEx_nolock   000000018001b74c f   libucrt:locale_refcounting.obj
 0001:0001a7b4       _query_new_mode            000000018001b7b4 f   libucrt:new_mode.obj
 0001:0001a7bc       __acrt_DownlevelLocaleNameToLCID 000000018001b7bc f   libucrt:lcidtoname_downlevel.obj
 0001:0001a86c       _isleadbyte_l              000000018001b86c f i libucrt:_wctype.obj
 0001:0001a8b8       ?__mbrtowc_utf8@__crt_mbstring@@YA_KPEA_WPEBD_KPEAU_Mbstatet@@@Z 000000018001b8b8 f   libucrt:mbrtowc.obj
 0001:0001a8f4       ?__mbsrtowcs_utf8@__crt_mbstring@@YA_KPEA_WPEAPEBD_KPEAU_Mbstatet@@@Z 000000018001b8f4 f   libucrt:mbrtowc.obj
 0001:0001aa6c       __acrt_fp_strflt_to_string 000000018001ba6c f   libucrt:_fptostr.obj
 0001:0001ab50       ?divide@__crt_strtox@@YA_KAEAUbig_integer@1@AEBU21@@Z 000000018001bb50 f i libucrt:cfout.obj
 0001:0001af7c       __acrt_fltout              000000018001bf7c f   libucrt:cfout.obj
 0001:0001c1b0       _fcloseall                 000000018001d1b0 f   libucrt:closeall.obj
 0001:0001c264       __acrt_stdio_free_buffer_nolock 000000018001d264 f   libucrt:_freebuf.obj
 0001:0001c2a4       _isatty                    000000018001d2a4 f   libucrt:isatty.obj
 0001:0001c304       __acrt_locale_free_monetary 000000018001d304 f   libucrt:initmon.obj
 0001:0001c410       __acrt_locale_free_numeric 000000018001d410 f   libucrt:initnum.obj
 0001:0001c4d4       __acrt_locale_free_time    000000018001d4d4 f   libucrt:inittime.obj
 0001:0001c5dc       __acrt_GetStringTypeA      000000018001d5dc f   libucrt:getstringtypea.obj
 0001:0001c76c       __acrt_lowio_create_handle_array 000000018001d76c f   libucrt:osfinfo.obj
 0001:0001c814       __acrt_lowio_destroy_handle_array 000000018001d814 f   libucrt:osfinfo.obj
 0001:0001c864       __acrt_lowio_ensure_fh_exists 000000018001d864 f   libucrt:osfinfo.obj
 0001:0001c90c       __acrt_lowio_lock_fh       000000018001d90c f   libucrt:osfinfo.obj
 0001:0001c934       __acrt_lowio_unlock_fh     000000018001d934 f   libucrt:osfinfo.obj
 0001:0001c95c       _free_osfhnd               000000018001d95c f   libucrt:osfinfo.obj
 0001:0001ca18       _get_osfhandle             000000018001da18 f   libucrt:osfinfo.obj
 0001:0001ca90       qsort                      000000018001da90 f   libucrt:qsort.obj
 0001:0001ce40       strncpy_s                  000000018001de40 f   libucrt:strncpy_s.obj
 0001:0001cfc0       strpbrk                    000000018001dfc0 f   libucrt:strpbrk.obj
 0001:0001d3a0       _mbsdec                    000000018001e3a0 f   libucrt:mbsdec.obj
 0001:0001d3a8       _mbsdec_l                  000000018001e3a8 f   libucrt:mbsdec.obj
 0001:0001d754       __acrt_LCMapStringA        000000018001e754 f   libucrt:lcmapstringa.obj
 0001:0001d890       _commit                    000000018001e890 f   libucrt:commit.obj
 0001:0001e184       _write                     000000018001f184 f   libucrt:write.obj
 0001:0001e270       _write_nolock              000000018001f270 f   libucrt:write.obj
 0001:0001e54c       __acrt_GetStringTypeW      000000018001f54c f   libucrt:getstringtypew.obj
 0001:0001e554       __ascii_wcsnicmp           000000018001f554 f   libucrt:wcsnicmp.obj
 0001:0001e5a0       ?__mbrtoc32_utf8@__crt_mbstring@@YA_KPEA_UPEBD_KPEAU_Mbstatet@@@Z 000000018001f5a0 f   libucrt:mbrtoc32.obj
 0001:0001e77c       fegetenv                   000000018001f77c f   libucrt:fegetenv.obj
 0001:0001e79c       fesetenv                   000000018001f79c f   libucrt:fesetenv.obj
 0001:0001e7e8       feholdexcept               000000018001f7e8 f   libucrt:feholdexcept.obj
 0001:0001e838       ceil                       000000018001f838 f   libucrt:ceil.obj
 0001:0001e900       log10                      000000018001f900 f   libucrt:log10.obj
 0001:0001ef48       _lseeki64_nolock           000000018001ff48 f   libucrt:lseek.obj
 0001:0001ef50       _fclose_nolock             000000018001ff50 f   libucrt:fclose.obj
 0001:0001efd4       fclose                     000000018001ffd4 f   libucrt:fclose.obj
 0001:0001f038       _query_app_type            0000000180020038 f   libucrt:report_runtime_error.obj
 0001:0001f040       __strncnt                  0000000180020040 f   libucrt:strncnt.obj
 0001:0001f058       _putwch_nolock             0000000180020058 f   libucrt:putwch.obj
 0001:0001f094       __acrt_fenv_get_control    0000000180020094 f   libucrt:_fenvutils.obj
 0001:0001f188       __acrt_fenv_get_status     0000000180020188 f   libucrt:_fenvutils.obj
 0001:0001f1dc       __acrt_fenv_set_control    00000001800201dc f   libucrt:_fenvutils.obj
 0001:0001f324       __acrt_fenv_set_status     0000000180020324 f   libucrt:_fenvutils.obj
 0001:0001f3a8       _clearfp                   00000001800203a8 f   libucrt:ieee.obj
 0001:0001f53c       _handle_error              000000018002053c f   libucrt:libm_error.obj
 0001:0001f664       _handle_nan                0000000180020664 f   libucrt:libm_error.obj
 0001:0001f680       __acrt_initialize_fma3     0000000180020680 f   libucrt:fma3_available.obj
 0001:0001f6f0       _log10_special             00000001800206f0 f   libucrt:log_special.obj
 0001:0001f81c       _close                     000000018002081c f   libucrt:close.obj
 0001:0001f8c0       _close_nolock              00000001800208c0 f   libucrt:close.obj
 0001:0001f980       ?__acrt_stdio_free_stream@@YAXV__crt_stdio_stream@@@Z 0000000180020980 f   libucrt:stream.obj
 0001:0001f99c       __dcrt_lowio_ensure_console_output_initialized 000000018002099c f   libucrt:initcon.obj
 0001:0001f9f0       __dcrt_terminate_console_output 00000001800209f0 f   libucrt:initcon.obj
 0001:0001fa0c       __dcrt_write_console       0000000180020a0c f   libucrt:initcon.obj
 0001:0001fae0       _get_fpsr                  0000000180020ae0 f   libucrt:fpsr.obj
 0001:0001faf0       _set_fpsr                  0000000180020af0 f   libucrt:fpsr.obj
 0001:0001fafa       _fclrf                     0000000180020afa f   libucrt:fpsr.obj
 0001:0001fb0e       _frnd                      0000000180020b0e f   libucrt:fpsr.obj
 0001:0001fb30       _raise_exc                 0000000180020b30 f   libucrt:fpexcept.obj
 0001:0001fb58       _raise_exc_ex              0000000180020b58 f   libucrt:fpexcept.obj
 0001:0001fe68       _set_errno_from_matherr    0000000180020e68 f   libucrt:fpexcept.obj
 0001:0001fe98       _clrfp                     0000000180020e98 f   libucrt:fpctrl.obj
 0001:0001feb8       _ctrlfp                    0000000180020eb8 f   libucrt:fpctrl.obj
 0001:0001ff34       _set_statfp                0000000180020f34 f   libucrt:fpctrl.obj
 0001:0001ff54       _statfp                    0000000180020f54 f   libucrt:fpctrl.obj
 0001:0001ff65       IsProcessorFeaturePresent  0000000180020f65 f   kernel32:KERNEL32.dll
 0001:0001ff70       _FindPESection             0000000180020f70 f   LIBCMT:pesect.obj
 0001:0001ffc0       _IsNonwritableInCurrentImage 0000000180020fc0 f   LIBCMT:pesect.obj
 0001:00020010       _ValidateImageBase         0000000180021010 f   LIBCMT:pesect.obj
 0001:00020040       strrchr                    0000000180021040 f   libvcruntime:strrchr.obj
 0001:00020180       _guard_dispatch_icall_nop  0000000180021180 f   LIBCMT:guard_dispatch.obj
 0002:00000000       __imp_RegQueryValueExW     0000000180022000     advapi32:ADVAPI32.dll
 0002:00000008       __imp_RegSetValueExW       0000000180022008     advapi32:ADVAPI32.dll
 0002:00000010       __imp_RegQueryInfoKeyW     0000000180022010     advapi32:ADVAPI32.dll
 0002:00000018       __imp_RegOpenKeyExW        0000000180022018     advapi32:ADVAPI32.dll
 0002:00000020       __imp_RegEnumKeyExW        0000000180022020     advapi32:ADVAPI32.dll
 0002:00000028       __imp_RegDeleteValueW      0000000180022028     advapi32:ADVAPI32.dll
 0002:00000030       __imp_RegDeleteKeyW        0000000180022030     advapi32:ADVAPI32.dll
 0002:00000038       __imp_RegCreateKeyExW      0000000180022038     advapi32:ADVAPI32.dll
 0002:00000040       __imp_RegCloseKey          0000000180022040     advapi32:ADVAPI32.dll
 0002:00000048       \177ADVAPI32_NULL_THUNK_DATA 0000000180022048     advapi32:ADVAPI32.dll
 0002:00000050       __imp_GetObjectW           0000000180022050     gdi32:GDI32.dll
 0002:00000058       __imp_SelectObject         0000000180022058     gdi32:GDI32.dll
 0002:00000060       __imp_DeleteObject         0000000180022060     gdi32:GDI32.dll
 0002:00000068       __imp_CreateCompatibleDC   0000000180022068     gdi32:GDI32.dll
 0002:00000070       __imp_BitBlt               0000000180022070     gdi32:GDI32.dll
 0002:00000078       __imp_SetWindowOrgEx       0000000180022078     gdi32:GDI32.dll
 0002:00000080       __imp_SetWindowExtEx       0000000180022080     gdi32:GDI32.dll
 0002:00000088       __imp_SetViewportOrgEx     0000000180022088     gdi32:GDI32.dll
 0002:00000090       __imp_LPtoDP               0000000180022090     gdi32:GDI32.dll
 0002:00000098       __imp_SetMapMode           0000000180022098     gdi32:GDI32.dll
 0002:000000a0       __imp_SaveDC               00000001800220a0     gdi32:GDI32.dll
 0002:000000a8       __imp_RestoreDC            00000001800220a8     gdi32:GDI32.dll
 0002:000000b0       __imp_GetDeviceCaps        00000001800220b0     gdi32:GDI32.dll
 0002:000000b8       __imp_DeleteMetaFile       00000001800220b8     gdi32:GDI32.dll
 0002:000000c0       __imp_DeleteDC             00000001800220c0     gdi32:GDI32.dll
 0002:000000c8       __imp_CreateRectRgnIndirect 00000001800220c8     gdi32:GDI32.dll
 0002:000000d0       __imp_CreateMetaFileW      00000001800220d0     gdi32:GDI32.dll
 0002:000000d8       __imp_CreateDCW            00000001800220d8     gdi32:GDI32.dll
 0002:000000e0       __imp_CloseMetaFile        00000001800220e0     gdi32:GDI32.dll
 0002:000000e8       \177GDI32_NULL_THUNK_DATA  00000001800220e8     gdi32:GDI32.dll
 0002:000000f0       __imp_CloseHandle          00000001800220f0     kernel32:KERNEL32.dll
 0002:000000f8       __imp_SetEvent             00000001800220f8     kernel32:KERNEL32.dll
 0002:00000100       __imp_CreateMutexW         0000000180022100     kernel32:KERNEL32.dll
 0002:00000108       __imp_CreateEventW         0000000180022108     kernel32:KERNEL32.dll
 0002:00000110       __imp_GetCurrentProcessId  0000000180022110     kernel32:KERNEL32.dll
 0002:00000118       __imp_WriteConsoleW        0000000180022118     kernel32:KERNEL32.dll
 0002:00000120       __imp_CreateFileW          0000000180022120     kernel32:KERNEL32.dll
 0002:00000128       __imp_GetConsoleMode       0000000180022128     kernel32:KERNEL32.dll
 0002:00000130       __imp_GetConsoleCP         0000000180022130     kernel32:KERNEL32.dll
 0002:00000138       __imp_WriteFile            0000000180022138     kernel32:KERNEL32.dll
 0002:00000140       __imp_FlushFileBuffers     0000000180022140     kernel32:KERNEL32.dll
 0002:00000148       __imp_SetStdHandle         0000000180022148     kernel32:KERNEL32.dll
 0002:00000150       __imp_GetStringTypeW       0000000180022150     kernel32:KERNEL32.dll
 0002:00000158       __imp_SetFilePointerEx     0000000180022158     kernel32:KERNEL32.dll
 0002:00000160       __imp_FreeEnvironmentStringsW 0000000180022160     kernel32:KERNEL32.dll
 0002:00000168       __imp_lstrcmpiW            0000000180022168     kernel32:KERNEL32.dll
 0002:00000170       __imp_GetCommandLineW      0000000180022170     kernel32:KERNEL32.dll
 0002:00000178       __imp_GetCommandLineA      0000000180022178     kernel32:KERNEL32.dll
 0002:00000180       __imp_GetCPInfo            0000000180022180     kernel32:KERNEL32.dll
 0002:00000188       __imp_GetOEMCP             0000000180022188     kernel32:KERNEL32.dll
 0002:00000190       __imp_GetACP               0000000180022190     kernel32:KERNEL32.dll
 0002:00000198       __imp_IsValidCodePage      0000000180022198     kernel32:KERNEL32.dll
 0002:000001a0       __imp_FindNextFileW        00000001800221a0     kernel32:KERNEL32.dll
 0002:000001a8       __imp_FindFirstFileExW     00000001800221a8     kernel32:KERNEL32.dll
 0002:000001b0       __imp_FindClose            00000001800221b0     kernel32:KERNEL32.dll
 0002:000001b8       __imp_GetFileType          00000001800221b8     kernel32:KERNEL32.dll
 0002:000001c0       __imp_GetStdHandle         00000001800221c0     kernel32:KERNEL32.dll
 0002:000001c8       __imp_LCMapStringW         00000001800221c8     kernel32:KERNEL32.dll
 0002:000001d0       __imp_HeapReAlloc          00000001800221d0     kernel32:KERNEL32.dll
 0002:000001d8       __imp_HeapSize             00000001800221d8     kernel32:KERNEL32.dll
 0002:000001e0       __imp_MulDiv               00000001800221e0     kernel32:KERNEL32.dll
 0002:000001e8       __imp_GlobalLock           00000001800221e8     kernel32:KERNEL32.dll
 0002:000001f0       __imp_GlobalUnlock         00000001800221f0     kernel32:KERNEL32.dll
 0002:000001f8       __imp_GlobalAlloc          00000001800221f8     kernel32:KERNEL32.dll
 0002:00000200       __imp_FindResourceW        0000000180022200     kernel32:KERNEL32.dll
 0002:00000208       __imp_SizeofResource       0000000180022208     kernel32:KERNEL32.dll
 0002:00000210       __imp_LoadResource         0000000180022210     kernel32:KERNEL32.dll
 0002:00000218       __imp_LoadLibraryExW       0000000180022218     kernel32:KERNEL32.dll
 0002:00000220       __imp_GetProcAddress       0000000180022220     kernel32:KERNEL32.dll
 0002:00000228       __imp_GetModuleHandleW     0000000180022228     kernel32:KERNEL32.dll
 0002:00000230       __imp_GetModuleFileNameW   0000000180022230     kernel32:KERNEL32.dll
 0002:00000238       __imp_FreeLibrary          0000000180022238     kernel32:KERNEL32.dll
 0002:00000240       __imp_DisableThreadLibraryCalls 0000000180022240     kernel32:KERNEL32.dll
 0002:00000248       __imp_GetCurrentThreadId   0000000180022248     kernel32:KERNEL32.dll
 0002:00000250       __imp_Sleep                0000000180022250     kernel32:KERNEL32.dll
 0002:00000258       __imp_WaitForSingleObject  0000000180022258     kernel32:KERNEL32.dll
 0002:00000260       __imp_ReleaseMutex         0000000180022260     kernel32:KERNEL32.dll
 0002:00000268       __imp_ResetEvent           0000000180022268     kernel32:KERNEL32.dll
 0002:00000270       __imp_EnterCriticalSection 0000000180022270     kernel32:KERNEL32.dll
 0002:00000278       __imp_LeaveCriticalSection 0000000180022278     kernel32:KERNEL32.dll
 0002:00000280       __imp_SetLastError         0000000180022280     kernel32:KERNEL32.dll
 0002:00000288       __imp_EncodePointer        0000000180022288     kernel32:KERNEL32.dll
 0002:00000290       __imp_DeleteCriticalSection 0000000180022290     kernel32:KERNEL32.dll
 0002:00000298       __imp_InitializeCriticalSectionEx 0000000180022298     kernel32:KERNEL32.dll
 0002:000002a0       __imp_GetLastError         00000001800222a0     kernel32:KERNEL32.dll
 0002:000002a8       __imp_RaiseException       00000001800222a8     kernel32:KERNEL32.dll
 0002:000002b0       __imp_DecodePointer        00000001800222b0     kernel32:KERNEL32.dll
 0002:000002b8       __imp_WideCharToMultiByte  00000001800222b8     kernel32:KERNEL32.dll
 0002:000002c0       __imp_GetEnvironmentStringsW 00000001800222c0     kernel32:KERNEL32.dll
 0002:000002c8       __imp_MultiByteToWideChar  00000001800222c8     kernel32:KERNEL32.dll
 0002:000002d0       __imp_GetModuleHandleExW   00000001800222d0     kernel32:KERNEL32.dll
 0002:000002d8       __imp_ExitProcess          00000001800222d8     kernel32:KERNEL32.dll
 0002:000002e0       __imp_VirtualQuery         00000001800222e0     kernel32:KERNEL32.dll
 0002:000002e8       __imp_VirtualProtect       00000001800222e8     kernel32:KERNEL32.dll
 0002:000002f0       __imp_GetSystemInfo        00000001800222f0     kernel32:KERNEL32.dll
 0002:000002f8       __imp_TlsFree              00000001800222f8     kernel32:KERNEL32.dll
 0002:00000300       __imp_TlsSetValue          0000000180022300     kernel32:KERNEL32.dll
 0002:00000308       __imp_TlsGetValue          0000000180022308     kernel32:KERNEL32.dll
 0002:00000310       __imp_TlsAlloc             0000000180022310     kernel32:KERNEL32.dll
 0002:00000318       __imp_RtlPcToFileHeader    0000000180022318     kernel32:KERNEL32.dll
 0002:00000320       __imp_InterlockedFlushSList 0000000180022320     kernel32:KERNEL32.dll
 0002:00000328       __imp_RtlUnwindEx          0000000180022328     kernel32:KERNEL32.dll
 0002:00000330       __imp_LoadLibraryExA       0000000180022330     kernel32:KERNEL32.dll
 0002:00000338       __imp_VirtualFree          0000000180022338     kernel32:KERNEL32.dll
 0002:00000340       __imp_VirtualAlloc         0000000180022340     kernel32:KERNEL32.dll
 0002:00000348       __imp_FlushInstructionCache 0000000180022348     kernel32:KERNEL32.dll
 0002:00000350       __imp_InterlockedPushEntrySList 0000000180022350     kernel32:KERNEL32.dll
 0002:00000358       __imp_InterlockedPopEntrySList 0000000180022358     kernel32:KERNEL32.dll
 0002:00000360       __imp_GetProcessHeap       0000000180022360     kernel32:KERNEL32.dll
 0002:00000368       __imp_HeapFree             0000000180022368     kernel32:KERNEL32.dll
 0002:00000370       __imp_HeapAlloc            0000000180022370     kernel32:KERNEL32.dll
 0002:00000378       __imp_OutputDebugStringW   0000000180022378     kernel32:KERNEL32.dll
 0002:00000380       __imp_InitializeSListHead  0000000180022380     kernel32:KERNEL32.dll
 0002:00000388       __imp_GetSystemTimeAsFileTime 0000000180022388     kernel32:KERNEL32.dll
 0002:00000390       __imp_QueryPerformanceCounter 0000000180022390     kernel32:KERNEL32.dll
 0002:00000398       __imp_GetStartupInfoW      0000000180022398     kernel32:KERNEL32.dll
 0002:000003a0       __imp_IsDebuggerPresent    00000001800223a0     kernel32:KERNEL32.dll
 0002:000003a8       __imp_IsProcessorFeaturePresent 00000001800223a8     kernel32:KERNEL32.dll
 0002:000003b0       __imp_TerminateProcess     00000001800223b0     kernel32:KERNEL32.dll
 0002:000003b8       __imp_GetCurrentProcess    00000001800223b8     kernel32:KERNEL32.dll
 0002:000003c0       __imp_InitializeCriticalSectionAndSpinCount 00000001800223c0     kernel32:KERNEL32.dll
 0002:000003c8       __imp_WaitForSingleObjectEx 00000001800223c8     kernel32:KERNEL32.dll
 0002:000003d0       __imp_RtlCaptureContext    00000001800223d0     kernel32:KERNEL32.dll
 0002:000003d8       __imp_RtlLookupFunctionEntry 00000001800223d8     kernel32:KERNEL32.dll
 0002:000003e0       __imp_RtlVirtualUnwind     00000001800223e0     kernel32:KERNEL32.dll
 0002:000003e8       __imp_UnhandledExceptionFilter 00000001800223e8     kernel32:KERNEL32.dll
 0002:000003f0       __imp_SetUnhandledExceptionFilter 00000001800223f0     kernel32:KERNEL32.dll
 0002:000003f8       \177KERNEL32_NULL_THUNK_DATA 00000001800223f8     kernel32:KERNEL32.dll
 0002:00000400       __imp_OleCreatePropertyFrame 0000000180022400     oleaut32:OLEAUT32.dll
 0002:00000408       __imp_UnRegisterTypeLib    0000000180022408     oleaut32:OLEAUT32.dll
 0002:00000410       __imp_RegisterTypeLib      0000000180022410     oleaut32:OLEAUT32.dll
 0002:00000418       __imp_LoadRegTypeLib       0000000180022418     oleaut32:OLEAUT32.dll
 0002:00000420       __imp_LoadTypeLib          0000000180022420     oleaut32:OLEAUT32.dll
 0002:00000428       __imp_VarUI4FromStr        0000000180022428     oleaut32:OLEAUT32.dll
 0002:00000430       __imp_VariantInit          0000000180022430     oleaut32:OLEAUT32.dll
 0002:00000438       __imp_SysAllocStringByteLen 0000000180022438     oleaut32:OLEAUT32.dll
 0002:00000440       __imp_SysStringByteLen     0000000180022440     oleaut32:OLEAUT32.dll
 0002:00000448       __imp_VariantChangeType    0000000180022448     oleaut32:OLEAUT32.dll
 0002:00000450       __imp_VariantClear         0000000180022450     oleaut32:OLEAUT32.dll
 0002:00000458       __imp_SysStringLen         0000000180022458     oleaut32:OLEAUT32.dll
 0002:00000460       __imp_SysFreeString        0000000180022460     oleaut32:OLEAUT32.dll
 0002:00000468       __imp_SysAllocStringLen    0000000180022468     oleaut32:OLEAUT32.dll
 0002:00000470       __imp_SysAllocString       0000000180022470     oleaut32:OLEAUT32.dll
 0002:00000478       \177OLEAUT32_NULL_THUNK_DATA 0000000180022478     oleaut32:OLEAUT32.dll
 0002:00000480       __imp_UnregisterClassW     0000000180022480     user32:USER32.dll
 0002:00000488       __imp_PostMessageW         0000000180022488     user32:USER32.dll
 0002:00000490       __imp_DefWindowProcW       0000000180022490     user32:USER32.dll
 0002:00000498       __imp_CallWindowProcW      0000000180022498     user32:USER32.dll
 0002:000004a0       __imp_RegisterClassExW     00000001800224a0     user32:USER32.dll
 0002:000004a8       __imp_GetClassInfoExW      00000001800224a8     user32:USER32.dll
 0002:000004b0       __imp_CreateWindowExW      00000001800224b0     user32:USER32.dll
 0002:000004b8       __imp_IsWindow             00000001800224b8     user32:USER32.dll
 0002:000004c0       __imp_IsChild              00000001800224c0     user32:USER32.dll
 0002:000004c8       __imp_DestroyWindow        00000001800224c8     user32:USER32.dll
 0002:000004d0       __imp_ShowWindow           00000001800224d0     user32:USER32.dll
 0002:000004d8       __imp_SetWindowPos         00000001800224d8     user32:USER32.dll
 0002:000004e0       __imp_CharNextW            00000001800224e0     user32:USER32.dll
 0002:000004e8       __imp_SetFocus             00000001800224e8     user32:USER32.dll
 0002:000004f0       __imp_LoadBitmapW          00000001800224f0     user32:USER32.dll
 0002:000004f8       __imp_RegisterClassW       00000001800224f8     user32:USER32.dll
 0002:00000500       __imp_PeekMessageW         0000000180022500     user32:USER32.dll
 0002:00000508       __imp_LoadCursorW          0000000180022508     user32:USER32.dll
 0002:00000510       __imp_GetParent            0000000180022510     user32:USER32.dll
 0002:00000518       __imp_SetWindowLongPtrW    0000000180022518     user32:USER32.dll
 0002:00000520       __imp_GetWindowLongPtrW    0000000180022520     user32:USER32.dll
 0002:00000528       __imp_PtInRect             0000000180022528     user32:USER32.dll
 0002:00000530       __imp_EqualRect            0000000180022530     user32:USER32.dll
 0002:00000538       __imp_OffsetRect           0000000180022538     user32:USER32.dll
 0002:00000540       __imp_UnionRect            0000000180022540     user32:USER32.dll
 0002:00000548       __imp_IntersectRect        0000000180022548     user32:USER32.dll
 0002:00000550       __imp_GetClientRect        0000000180022550     user32:USER32.dll
 0002:00000558       __imp_InvalidateRect       0000000180022558     user32:USER32.dll
 0002:00000560       __imp_SetWindowRgn         0000000180022560     user32:USER32.dll
 0002:00000568       __imp_EndPaint             0000000180022568     user32:USER32.dll
 0002:00000570       __imp_BeginPaint           0000000180022570     user32:USER32.dll
 0002:00000578       __imp_ReleaseDC            0000000180022578     user32:USER32.dll
 0002:00000580       __imp_GetDC                0000000180022580     user32:USER32.dll
 0002:00000588       __imp_GetKeyState          0000000180022588     user32:USER32.dll
 0002:00000590       __imp_GetFocus             0000000180022590     user32:USER32.dll
 0002:00000598       \177USER32_NULL_THUNK_DATA 0000000180022598     user32:USER32.dll
 0002:000005a0       __imp_CoCreateInstance     00000001800225a0     ole32:ole32.dll
 0002:000005a8       __imp_StringFromGUID2      00000001800225a8     ole32:ole32.dll
 0002:000005b0       __imp_CoTaskMemAlloc       00000001800225b0     ole32:ole32.dll
 0002:000005b8       __imp_CoTaskMemFree        00000001800225b8     ole32:ole32.dll
 0002:000005c0       __imp_ReadClassStm         00000001800225c0     ole32:ole32.dll
 0002:000005c8       __imp_WriteClassStm        00000001800225c8     ole32:ole32.dll
 0002:000005d0       __imp_CreateDataAdviseHolder 00000001800225d0     ole32:ole32.dll
 0002:000005d8       __imp_OleSaveToStream      00000001800225d8     ole32:ole32.dll
 0002:000005e0       __imp_CreateOleAdviseHolder 00000001800225e0     ole32:ole32.dll
 0002:000005e8       __imp_OleRegGetUserType    00000001800225e8     ole32:ole32.dll
 0002:000005f0       __imp_OleRegGetMiscStatus  00000001800225f0     ole32:ole32.dll
 0002:000005f8       __imp_OleRegEnumVerbs      00000001800225f8     ole32:ole32.dll
 0002:00000600       __imp_CLSIDFromProgID      0000000180022600     ole32:ole32.dll
 0002:00000608       __imp_CoTaskMemRealloc     0000000180022608     ole32:ole32.dll
 0002:00000610       \177ole32_NULL_THUNK_DATA  0000000180022610     ole32:ole32.dll
 0002:00000618       __guard_check_icall_fptr   0000000180022618     LIBCMT:guard_support.obj
 0002:00000620       __guard_dispatch_icall_fptr 0000000180022620     LIBCMT:guard_support.obj
 0002:00000628       __xc_a                     0000000180022628     LIBCMT:initializers.obj
 0002:00000658       __xc_z                     0000000180022658     LIBCMT:initializers.obj
 0002:00000660       __xi_a                     0000000180022660     LIBCMT:initializers.obj
 0002:00000670       __acrt_stdio_initializer   0000000180022670     libucrt:stdio_initializer.obj
 0002:00000678       __acrt_multibyte_initializer 0000000180022678     libucrt:multibyte_initializer.obj
 0002:00000680       __acrt_tran_fma3_initializer 0000000180022680     libucrt:fma3_initializer.obj
 0002:00000688       __xi_z                     0000000180022688     LIBCMT:initializers.obj
 0002:00000690       __xl_a                     0000000180022690     LIBCMT:tlssup.obj
 0002:00000698       __xl_z                     0000000180022698     LIBCMT:tlssup.obj
 0002:000006a0       __xp_a                     00000001800226a0     LIBCMT:initializers.obj
 0002:000006a8       __acrt_locale_terminator   00000001800226a8     libucrt:locale_initializer.obj
 0002:000006b0       __dcrt_console_output_terminator 00000001800226b0     libucrt:console_output_initializer.obj
 0002:000006b8       __acrt_stdio_terminator    00000001800226b8     libucrt:stdio_initializer.obj
 0002:000006c0       __xp_z                     00000001800226c0     LIBCMT:initializers.obj
 0002:000006c8       __xt_a                     00000001800226c8     LIBCMT:initializers.obj
 0002:000006d0       __xt_z                     00000001800226d0     LIBCMT:initializers.obj
 0002:000006e0       ??_C@_13HADIAKP@?$AAS@     00000001800226e0     OposVariant.obj
 0002:000006e4       ??_C@_13LHMFKAAD@?$AAM@    00000001800226e4     OposVariant.obj
 0002:000006e8       ??_C@_13MKMNOPIJ@?$AAD@    00000001800226e8     OposVariant.obj
 0002:000006ec       ??_C@_13OPKGLAFF@?$AAB@    00000001800226ec     OposVariant.obj
 0002:000006f0       ??_C@_17LLMMEOJD@?$AAV?$AAa?$AAl@ 00000001800226f0     OposVariant.obj
 0002:000006f8       ??_C@_1BI@JFAIJMHL@?$AAF?$AAo?$AAr?$AAc?$AAe?$AAR?$AAe?$AAm?$AAo?$AAv?$AAe@ 00000001800226f8     OposVariant.obj
 0002:00000710       ??_C@_1BC@GCKHIPE@?$AAN?$AAo?$AAR?$AAe?$AAm?$AAo?$AAv?$AAe@ 0000000180022710     OposVariant.obj
 0002:00000728       ??_C@_1O@JDLOHAN@?$AAD?$AAe?$AAl?$AAe?$AAt?$AAe@ 0000000180022728     OposVariant.obj
 0002:00000738       ??_C@_11LOCGONAA@@         0000000180022738     OposVariant.obj
 0002:00000740       ??_7?$CComObjectCached@VCComClassFactory@ATL@@@ATL@@6B@ 0000000180022740     ImageScanner.obj
 0002:00000770       _GUID_00000112_0000_0000_c000_000000000046 0000000180022770     ImageScanner.obj
 0002:00000780       _GUID_3af24292_0c96_11ce_a0cf_00aa00600ab8 0000000180022780     ImageScanner.obj
 0002:00000790       _GUID_00000127_0000_0000_c000_000000000046 0000000180022790     ImageScanner.obj
 0002:000007a0       _GUID_0000010d_0000_0000_c000_000000000046 00000001800227a0     ImageScanner.obj
 0002:000007b0       ??_C@_1M@PPPPCDEP@?$AAA?$AAP?$AAP?$AAI?$AAD@ 00000001800227b0     ImageScanner.obj
 0002:000007c0       ??_C@_1BK@BIGILECK@?$AAA?$AAd?$AAv?$AAa?$AAp?$AAi?$AA3?$AA2?$AA?4?$AAd?$AAl?$AAl@ 00000001800227c0     ImageScanner.obj
 0002:000007e0       ??_C@_0BI@MNCFCPFK@RegCreateKeyTransactedW@ 00000001800227e0     ImageScanner.obj
 0002:000007f8       ??_7?$CComContainedObject@VCOPOSImageScanner@@@ATL@@6B?$IDispatchImpl@UIOPOSImageScanner@@$1?IID_IOPOSImageScanner@@3U_GUID@@B$1?LIBID_OposImageScanner_CCO@@3U3@B$00$0A@VCComTypeInfoHolder@ATL@@@1@@ 00000001800227f8     ImageScanner.obj
 0002:00000aa0       _GUID_b196b287_bab4_101a_b69c_00aa00341d07 0000000180022aa0     ImageScanner.obj
 0002:00000ab0       ??_7?$CComContainedObject@VCOPOSImageScanner@@@ATL@@6BCComControlBase@1@@ 0000000180022ab0     ImageScanner.obj
 0002:00000ad8       ??_7?$CComContainedObject@VCOPOSImageScanner@@@ATL@@6B?$CWindowImpl@VCOPOSImageScanner@@VCWindow@ATL@@V?$CWinTraits@$0FGAAAAAA@$0A@@3@@1@@ 0000000180022ad8     ImageScanner.obj
 0002:00000af8       ??_7?$CComContainedObject@VCOPOSImageScanner@@@ATL@@6B?$IPersistStreamInitImpl@VCOPOSImageScanner@@@1@@ 0000000180022af8     ImageScanner.obj
 0002:00000b40       ??_7?$CComContainedObject@VCOPOSImageScanner@@@ATL@@6B?$IOleControlImpl@VCOPOSImageScanner@@@1@@ 0000000180022b40     ImageScanner.obj
 0002:00000b78       ??_7?$CComContainedObject@VCOPOSImageScanner@@@ATL@@6B?$IOleObjectImpl@VCOPOSImageScanner@@@1@@ 0000000180022b78     ImageScanner.obj
 0002:00000c38       ??_7?$CComContainedObject@VCOPOSImageScanner@@@ATL@@6B?$IOleInPlaceActiveObjectImpl@VCOPOSImageScanner@@@1@@ 0000000180022c38     ImageScanner.obj
 0002:00000c88       ??_7?$CComContainedObject@VCOPOSImageScanner@@@ATL@@6B?$IViewObjectExImpl@VCOPOSImageScanner@@@1@@ 0000000180022c88     ImageScanner.obj
 0002:00000d00       ??_7?$CComContainedObject@VCOPOSImageScanner@@@ATL@@6B?$IOleInPlaceObjectWindowlessImpl@VCOPOSImageScanner@@@1@@ 0000000180022d00     ImageScanner.obj
 0002:00000d58       ??_7?$CComContainedObject@VCOPOSImageScanner@@@ATL@@6B?$IConnectionPointContainerImpl@VCOPOSImageScanner@@@1@@ 0000000180022d58     ImageScanner.obj
 0002:00000d80       ??_7?$CComContainedObject@VCOPOSImageScanner@@@ATL@@6B?$IPersistStorageImpl@VCOPOSImageScanner@@@1@@ 0000000180022d80     ImageScanner.obj
 0002:00000dd0       ??_7?$CComContainedObject@VCOPOSImageScanner@@@ATL@@6B?$ISpecifyPropertyPagesImpl@VCOPOSImageScanner@@@1@@ 0000000180022dd0     ImageScanner.obj
 0002:00000df0       ??_7?$CComContainedObject@VCOPOSImageScanner@@@ATL@@6B?$IQuickActivateImpl@VCOPOSImageScanner@@@1@@ 0000000180022df0     ImageScanner.obj
 0002:00000e20       ??_7?$CComContainedObject@VCOPOSImageScanner@@@ATL@@6B?$IDataObjectImpl@VCOPOSImageScanner@@@1@@ 0000000180022e20     ImageScanner.obj
 0002:00000e80       ??_7?$CComContainedObject@VCOPOSImageScanner@@@ATL@@6B?$IProvideClassInfo2Impl@$1?CLSID_OPOSImageScanner@@3U_GUID@@B$1?DIID__IOPOSImageScannerEvents@@3U2@B$1?LIBID_OposImageScanner_CCO@@3U2@B$00$0A@VCComTypeInfoHolder@ATL@@@1@@ 0000000180022e80     ImageScanner.obj
 0002:00000ea8       ??_7?$CComContainedObject@VCOPOSImageScanner@@@ATL@@6B?$IObjectSafetyImpl@VCOPOSImageScanner@@$02@1@@ 0000000180022ea8     ImageScanner.obj
 0002:00000ed8       ??_7?$CComContainedObject@VCOPOSImageScanner@@@ATL@@6B?$IPropertyNotifySinkCP@VCOPOSImageScanner@@VCComDynamicUnkArray@ATL@@@1@@ 0000000180022ed8     ImageScanner.obj
 0002:00000f18       ??_7?$CComContainedObject@VCOPOSImageScanner@@@ATL@@6B?$CProxy_IOPOSEvents@VCOPOSImageScanner@@@@@ 0000000180022f18     ImageScanner.obj
 0002:00000f58       _GUID_b196b285_bab4_101a_b69c_00aa00341d07 0000000180022f58     ImageScanner.obj
 0002:00000f68       ??_7?$CComAggObject@VCOPOSImageScanner@@@ATL@@6B@ 0000000180022f68     ImageScanner.obj
 0002:00000f88       ??_7?$CComObject@VCOPOSImageScanner@@@ATL@@6B?$IDispatchImpl@UIOPOSImageScanner@@$1?IID_IOPOSImageScanner@@3U_GUID@@B$1?LIBID_OposImageScanner_CCO@@3U3@B$00$0A@VCComTypeInfoHolder@ATL@@@1@@ 0000000180022f88     ImageScanner.obj
 0002:00001230       ??_7?$CComObject@VCOPOSImageScanner@@@ATL@@6BCComControlBase@1@@ 0000000180023230     ImageScanner.obj
 0002:00001258       ??_7?$CComObject@VCOPOSImageScanner@@@ATL@@6B?$CWindowImpl@VCOPOSImageScanner@@VCWindow@ATL@@V?$CWinTraits@$0FGAAAAAA@$0A@@3@@1@@ 0000000180023258     ImageScanner.obj
 0002:00001278       ??_7?$CComObject@VCOPOSImageScanner@@@ATL@@6B?$IPersistStreamInitImpl@VCOPOSImageScanner@@@1@@ 0000000180023278     ImageScanner.obj
 0002:000012c0       ??_7?$CComObject@VCOPOSImageScanner@@@ATL@@6B?$IOleControlImpl@VCOPOSImageScanner@@@1@@ 00000001800232c0     ImageScanner.obj
 0002:000012f8       ??_7?$CComObject@VCOPOSImageScanner@@@ATL@@6B?$IOleObjectImpl@VCOPOSImageScanner@@@1@@ 00000001800232f8     ImageScanner.obj
 0002:000013b8       ??_7?$CComObject@VCOPOSImageScanner@@@ATL@@6B?$IOleInPlaceActiveObjectImpl@VCOPOSImageScanner@@@1@@ 00000001800233b8     ImageScanner.obj
 0002:00001408       ??_7?$CComObject@VCOPOSImageScanner@@@ATL@@6B?$IViewObjectExImpl@VCOPOSImageScanner@@@1@@ 0000000180023408     ImageScanner.obj
 0002:00001480       ??_7?$CComObject@VCOPOSImageScanner@@@ATL@@6B?$IOleInPlaceObjectWindowlessImpl@VCOPOSImageScanner@@@1@@ 0000000180023480     ImageScanner.obj
 0002:000014d8       ??_7?$CComObject@VCOPOSImageScanner@@@ATL@@6B?$IConnectionPointContainerImpl@VCOPOSImageScanner@@@1@@ 00000001800234d8     ImageScanner.obj
 0002:00001500       ??_7?$CComObject@VCOPOSImageScanner@@@ATL@@6B?$IPersistStorageImpl@VCOPOSImageScanner@@@1@@ 0000000180023500     ImageScanner.obj
 0002:00001550       ??_7?$CComObject@VCOPOSImageScanner@@@ATL@@6B?$ISpecifyPropertyPagesImpl@VCOPOSImageScanner@@@1@@ 0000000180023550     ImageScanner.obj
 0002:00001570       ??_7?$CComObject@VCOPOSImageScanner@@@ATL@@6B?$IQuickActivateImpl@VCOPOSImageScanner@@@1@@ 0000000180023570     ImageScanner.obj
 0002:000015a0       ??_7?$CComObject@VCOPOSImageScanner@@@ATL@@6B?$IDataObjectImpl@VCOPOSImageScanner@@@1@@ 00000001800235a0     ImageScanner.obj
 0002:00001600       ??_7?$CComObject@VCOPOSImageScanner@@@ATL@@6B?$IProvideClassInfo2Impl@$1?CLSID_OPOSImageScanner@@3U_GUID@@B$1?DIID__IOPOSImageScannerEvents@@3U2@B$1?LIBID_OposImageScanner_CCO@@3U2@B$00$0A@VCComTypeInfoHolder@ATL@@@1@@ 0000000180023600     ImageScanner.obj
 0002:00001628       ??_7?$CComObject@VCOPOSImageScanner@@@ATL@@6B?$IObjectSafetyImpl@VCOPOSImageScanner@@$02@1@@ 0000000180023628     ImageScanner.obj
 0002:00001658       ??_7?$CComObject@VCOPOSImageScanner@@@ATL@@6B?$IPropertyNotifySinkCP@VCOPOSImageScanner@@VCComDynamicUnkArray@ATL@@@1@@ 0000000180023658     ImageScanner.obj
 0002:00001698       ??_7?$CComObject@VCOPOSImageScanner@@@ATL@@6B?$CProxy_IOPOSEvents@VCOPOSImageScanner@@@@@ 0000000180023698     ImageScanner.obj
 0002:000016d8       ??_C@_1O@GBFKGNEO@?$AAA?$AAT?$AAL?$AA?3?$AA?$CF?$AAp@ 00000001800236d8     ImageScanner.obj
 0002:000016e8       ??_C@_1BA@PICGEGJB@?$AAD?$AAI?$AAS?$AAP?$AAL?$AAA?$AAY@ 00000001800236e8     ImageScanner.obj
 0002:000016f8       _GUID_a6bc3ac0_dbaa_11ce_9de3_00aa004bb851 00000001800236f8     ImageScanner.obj
 0002:00001708       _GUID_0000010c_0000_0000_c000_000000000046 0000000180023708     ImageScanner.obj
 0002:00001718       _GUID_9bfbbc02_eff1_101a_84ed_00aa00341d07 0000000180023718     ImageScanner.obj
 0002:00001728       _GUID_00000146_0000_0000_c000_000000000046 0000000180023728     ImageScanner.obj
 0002:00001738       ?_entries@?1??_GetEntries@?$CComEnum@UIEnumConnectionPoints@@$1?_GUID_b196b285_bab4_101a_b69c_00aa00341d07@@3U__s_GUID@@BPEAUIConnectionPoint@@V?$_CopyInterface@UIConnectionPoint@@@ATL@@VCComSingleThreadModel@6@@ATL@@SAPEBU_ATL_INTMAP_ENTRY@3@XZ@4QBU43@B 0000000180023738     ImageScanner.obj
 0002:00001768       _GUID_00020412_0000_0000_c000_000000000046 0000000180023768     ImageScanner.obj
 0002:00001778       _GUID_00020401_0000_0000_c000_000000000046 0000000180023778     ImageScanner.obj
 0002:00001788       ??_7CComModule@ATL@@6B@    0000000180023788     ImageScanner.obj
 0002:000017d8       _GUID_00000000_0000_0000_c000_000000000046 00000001800237d8     ImageScanner.obj
 0002:000017e8       _GUID_00020400_0000_0000_c000_000000000046 00000001800237e8     ImageScanner.obj
 0002:000017f8       ??_7?$CComObject@V?$CComEnum@UIEnumConnections@@$1?_GUID_b196b287_bab4_101a_b69c_00aa00341d07@@3U__s_GUID@@BUtagCONNECTDATA@@V?$_Copy@UtagCONNECTDATA@@@ATL@@VCComSingleThreadModel@6@@ATL@@@ATL@@6B@ 00000001800237f8     ImageScanner.obj
 0002:00001838       _GUID_55980ba0_35aa_11cf_b671_00aa004cd6d8 0000000180023838     ImageScanner.obj
 0002:00001848       _GUID_b196b28b_bab4_101a_b69c_00aa00341d07 0000000180023848     ImageScanner.obj
 0002:00001858       ??_C@_1M@KANJNLFF@?$AAC?$AAL?$AAS?$AAI?$AAD@ 0000000180023858     ImageScanner.obj
 0002:00001868       ??_C@_1M@EJNEECMJ@?$AAA?$AAp?$AAp?$AAI?$AAD@ 0000000180023868     ImageScanner.obj
 0002:00001878       ?_entries@?1??_GetEntries@?$CComEnum@UIEnumConnections@@$1?_GUID_b196b287_bab4_101a_b69c_00aa00341d07@@3U__s_GUID@@BUtagCONNECTDATA@@V?$_Copy@UtagCONNECTDATA@@@ATL@@VCComSingleThreadModel@6@@ATL@@SAPEBU_ATL_INTMAP_ENTRY@3@XZ@4QBU43@B 0000000180023878     ImageScanner.obj
 0002:000018b0       ?rgszNeverDelete@CRegParser@ATL@@1QBQEB_WB 00000001800238b0     ImageScanner.obj
 0002:00001910       ??_7CRegObject@ATL@@6B@    0000000180023910     ImageScanner.obj
 0002:00001940       ??_C@_1CK@OEKPKBNA@?$AAC?$AAo?$AAm?$AAp?$AAo?$AAn?$AAe?$AAn?$AAt?$AA?5?$AAC?$AAa?$AAt?$AAe?$AAg@ 0000000180023940     ImageScanner.obj
 0002:00001970       ??_C@_1BC@NKMMNMGL@?$AAF?$AAi?$AAl?$AAe?$AAT?$AAy?$AAp?$AAe@ 0000000180023970     ImageScanner.obj
 0002:00001988       ??_C@_1BE@EKPAFMCP@?$AAI?$AAn?$AAt?$AAe?$AAr?$AAf?$AAa?$AAc?$AAe@ 0000000180023988     ImageScanner.obj
 0002:000019a0       ??_C@_1BC@MAICEHGI@?$AAH?$AAa?$AAr?$AAd?$AAw?$AAa?$AAr?$AAe@ 00000001800239a0     ImageScanner.obj
 0002:000019b8       ??_C@_19HLLLM@?$AAM?$AAi?$AAm?$AAe@ 00000001800239b8     ImageScanner.obj
 0002:000019c8       ??_C@_17OMAOINJK@?$AAS?$AAA?$AAM@ 00000001800239c8     ImageScanner.obj
 0002:000019d0       ??_C@_1BC@IBECJAAI@?$AAS?$AAE?$AAC?$AAU?$AAR?$AAI?$AAT?$AAY@ 00000001800239d0     ImageScanner.obj
 0002:000019e8       ??_C@_1O@GBFINDKL@?$AAS?$AAY?$AAS?$AAT?$AAE?$AAM@ 00000001800239e8     ImageScanner.obj
 0002:000019f8       ??_C@_1BC@EAHCMADO@?$AAS?$AAo?$AAf?$AAt?$AAw?$AAa?$AAr?$AAe@ 00000001800239f8     ImageScanner.obj
 0002:00001a10       ??_C@_1BA@JIHHIEDE@?$AAT?$AAy?$AAp?$AAe?$AAL?$AAi?$AAb@ 0000000180023a10     ImageScanner.obj
 0002:00001a20       ?map@?1??HKeyFromString@CRegParser@ATL@@KAPEAUHKEY__@@PEA_W@Z@4QBUkeymap@?1??123@KAPEAU4@0@Z@B 0000000180023a20     ImageScanner.obj
 0002:00001b00       ??_C@_19NCHLBIN@?$AAH?$AAK?$AAC?$AAR@ 0000000180023b00     ImageScanner.obj
 0002:00001b10       ??_C@_19JAPAIJDE@?$AAH?$AAK?$AAC?$AAU@ 0000000180023b10     ImageScanner.obj
 0002:00001b20       ??_C@_19PEALEEJB@?$AAH?$AAK?$AAL?$AAM@ 0000000180023b20     ImageScanner.obj
 0002:00001b30       ??_C@_17PJOJPMPB@?$AAH?$AAK?$AAU@ 0000000180023b30     ImageScanner.obj
 0002:00001b38       ??_C@_19PNBHMJPL@?$AAH?$AAK?$AAP?$AAD@ 0000000180023b38     ImageScanner.obj
 0002:00001b48       ??_C@_19GFFAIJHG@?$AAH?$AAK?$AAD?$AAD@ 0000000180023b48     ImageScanner.obj
 0002:00001b58       ??_C@_19OFICIBHH@?$AAH?$AAK?$AAC?$AAC@ 0000000180023b58     ImageScanner.obj
 0002:00001b68       ??_C@_1CE@PACHPJFI@?$AAH?$AAK?$AAE?$AAY?$AA_?$AAC?$AAL?$AAA?$AAS?$AAS?$AAE?$AAS?$AA_?$AAR?$AAO@ 0000000180023b68     ImageScanner.obj
 0002:00001b90       ??_C@_1CE@HLHNCBPM@?$AAH?$AAK?$AAE?$AAY?$AA_?$AAC?$AAU?$AAR?$AAR?$AAE?$AAN?$AAT?$AA_?$AAU?$AAS@ 0000000180023b90     ImageScanner.obj
 0002:00001bb8       ??_C@_1CG@GFBEANJL@?$AAH?$AAK?$AAE?$AAY?$AA_?$AAL?$AAO?$AAC?$AAA?$AAL?$AA_?$AAM?$AAA?$AAC?$AAH@ 0000000180023bb8     ImageScanner.obj
 0002:00001be0       ??_C@_1BG@BGODANIO@?$AAH?$AAK?$AAE?$AAY?$AA_?$AAU?$AAS?$AAE?$AAR?$AAS@ 0000000180023be0     ImageScanner.obj
 0002:00001bf8       ??_C@_1CM@KHNNAOIC@?$AAH?$AAK?$AAE?$AAY?$AA_?$AAP?$AAE?$AAR?$AAF?$AAO?$AAR?$AAM?$AAA?$AAN?$AAC@ 0000000180023bf8     ImageScanner.obj
 0002:00001c28       ??_C@_1BM@HAGMMHIA@?$AAH?$AAK?$AAE?$AAY?$AA_?$AAD?$AAY?$AAN?$AA_?$AAD?$AAA?$AAT?$AAA@ 0000000180023c28     ImageScanner.obj
 0002:00001c48       ??_C@_1CI@BBJOACGG@?$AAH?$AAK?$AAE?$AAY?$AA_?$AAC?$AAU?$AAR?$AAR?$AAE?$AAN?$AAT?$AA_?$AAC?$AAO@ 0000000180023c48     ImageScanner.obj
 0002:00001c70       _GUID_00000109_0000_0000_c000_000000000046 0000000180023c70     ImageScanner.obj
 0002:00001c80       _GUID_7fd52380_4e07_101b_ae2d_08002b2ec713 0000000180023c80     ImageScanner.obj
 0002:00001c90       ??_C@_1EA@NHKLICFA@?$AAH?$AAK?$AAC?$AAU?$AA?$AN?$AA?6?$AA?$HL?$AA?7?$AAS?$AAo?$AAf?$AAt?$AAw?$AAa?$AAr@ 0000000180023c90     ImageScanner.obj
 0002:00001cd0       ??_C@_1BE@LJOLIMEM@?$AA?$AN?$AA?6?$AA?7?$AA?$HN?$AA?$AN?$AA?6?$AA?$HN?$AA?$AN?$AA?6@ 0000000180023cd0     ImageScanner.obj
 0002:00001ce8       ??_C@_1O@MNLDABAF@?$AAM?$AAo?$AAd?$AAu?$AAl?$AAe@ 0000000180023ce8     ImageScanner.obj
 0002:00001cf8       ??_C@_1BG@JBACFMF@?$AAM?$AAo?$AAd?$AAu?$AAl?$AAe?$AA_?$AAR?$AAa?$AAw@ 0000000180023cf8     ImageScanner.obj
 0002:00001d10       ??_C@_1BC@KAILKFFG@?$AAR?$AAE?$AAG?$AAI?$AAS?$AAT?$AAR?$AAY@ 0000000180023d10     ImageScanner.obj
 0002:00001d28       IID_IOPOSImageScanner_1_11 0000000180023d28     ImageScanner.obj
 0002:00001d38       IID_IOPOSImageScanner      0000000180023d38     ImageScanner.obj
 0002:00001d48       LIBID_OposImageScanner_CCO 0000000180023d48     ImageScanner.obj
 0002:00001d58       DIID__IOPOSImageScannerEvents 0000000180023d58     ImageScanner.obj
 0002:00001d68       CLSID_OPOSImageScanner     0000000180023d68     ImageScanner.obj
 0002:00001d78       _GUID_00000114_0000_0000_c000_000000000046 0000000180023d78     ImageScanner.obj
 0002:00001d88       _GUID_b196b284_bab4_101a_b69c_00aa00341d07 0000000180023d88     ImageScanner.obj
 0002:00001da0       ?_entries@?1??_GetEntries@COPOSImageScanner@@SAPEBU_ATL_INTMAP_ENTRY@ATL@@XZ@4QBU34@B 0000000180023da0     ImageScanner.obj
 0002:00001fe0       _GUID_cf51ed10_62fe_11cf_bf86_00a0c9034836 0000000180023fe0     ImageScanner.obj
 0002:00001ff0       _GUID_0000010a_0000_0000_c000_000000000046 0000000180023ff0     ImageScanner.obj
 0002:00002000       _GUID_b196b283_bab4_101a_b69c_00aa00341d07 0000000180024000     ImageScanner.obj
 0002:00002010       _GUID_cb5bdc81_93c1_11cf_8f20_00805f2cd064 0000000180024010     ImageScanner.obj
 0002:00002020       ?pPropMap@?1??GetPropertyMap@COPOSImageScanner@@SAPEBUATL_PROPMAP_ENTRY@ATL@@XZ@4QBU34@B 0000000180024020     ImageScanner.obj
 0002:000020c8       ??_C@_17DGDADEHL@?$AA_?$AAc?$AAx@ 00000001800240c8     ImageScanner.obj
 0002:000020d0       ??_C@_17IOIMFDBO@?$AA_?$AAc?$AAy@ 00000001800240d0     ImageScanner.obj
 0002:000020d8       _GUID_922eada0_3424_11cf_b670_00aa004cd6d8 00000001800240d8     ImageScanner.obj
 0002:000020e8       _GUID_9c2cad80_3424_11cf_b670_00aa004cd6d8 00000001800240e8     ImageScanner.obj
 0002:000020f8       _GUID_00000119_0000_0000_c000_000000000046 00000001800240f8     ImageScanner.obj
 0002:00002108       _GUID_b196b289_bab4_101a_b69c_00aa00341d07 0000000180024108     ImageScanner.obj
 0002:00002118       _GUID_b196b286_bab4_101a_b69c_00aa00341d07 0000000180024118     ImageScanner.obj
 0002:00002128       ??_C@_1CE@PGFMOFKI@?$AAS?$AAt?$AAa?$AAt?$AAu?$AAs?$AAU?$AAp?$AAd?$AAa?$AAt?$AAe?$AAE?$AAv?$AAe@ 0000000180024128     ImageScanner.obj
 0002:00002150       ??_C@_1BG@LODEBHDD@?$AAE?$AAr?$AAr?$AAo?$AAr?$AAE?$AAv?$AAe?$AAn?$AAt@ 0000000180024150     ImageScanner.obj
 0002:00002168       ??_C@_1BM@CBGEBBBJ@?$AAD?$AAi?$AAr?$AAe?$AAc?$AAt?$AAI?$AAO?$AAE?$AAv?$AAe?$AAn?$AAt@ 0000000180024168     ImageScanner.obj
 0002:00002188       ??_C@_1BE@IEBMACEM@?$AAD?$AAa?$AAt?$AAa?$AAE?$AAv?$AAe?$AAn?$AAt@ 0000000180024188     ImageScanner.obj
 0002:000021a0       _GUID_00000117_0000_0000_c000_000000000046 00000001800241a0     ImageScanner.obj
 0002:000021b0       ??_C@_1BC@ENICKDH@?$AAC?$AAo?$AAn?$AAt?$AAe?$AAn?$AAt?$AAs@ 00000001800241b0     ImageScanner.obj
 0002:000021c8       ??_7?$CComObject@V?$CComEnum@UIEnumConnectionPoints@@$1?_GUID_b196b285_bab4_101a_b69c_00aa00341d07@@3U__s_GUID@@BPEAUIConnectionPoint@@V?$_CopyInterface@UIConnectionPoint@@@ATL@@VCComSingleThreadModel@6@@ATL@@@ATL@@6B@ 00000001800241c8     ImageScanner.obj
 0002:00002208       ??_7CComClassFactory@ATL@@6B@ 0000000180024208     ImageScanner.obj
 0002:00002238       ?_entries@?1??_GetEntries@CComClassFactory@ATL@@SAPEBU_ATL_INTMAP_ENTRY@3@XZ@4QBU43@B 0000000180024238     ImageScanner.obj
 0002:00002268       _GUID_00000001_0000_0000_c000_000000000046 0000000180024268     ImageScanner.obj
 0002:00002278       _GUID_0000010e_0000_0000_c000_000000000046 0000000180024278     ImageScanner.obj
 0002:00002288       _GUID_b196b288_bab4_101a_b69c_00aa00341d07 0000000180024288     ImageScanner.obj
 0002:00002298       _GUID_00000113_0000_0000_c000_000000000046 0000000180024298     ImageScanner.obj
 0002:000022a8       _GUID_1c2056cc_5ef4_101b_8bc8_00aa003e3b29 00000001800242a8     ImageScanner.obj
 0002:000022b8       ??_C@_0BG@EKFFMJIO@RegOpenKeyTransactedW@ 00000001800242b8     ImageScanner.obj
 0002:000022d0       ??_C@_0BI@HAKLOOGP@RegDeleteKeyTransactedW@ 00000001800242d0     ImageScanner.obj
 0002:000022e8       ??_C@_0BA@LILAPHGE@RegDeleteKeyExW@ 00000001800242e8     ImageScanner.obj
 0002:000022f8       ??_C@_19ILOCMLCJ@?$AA?4?$AAt?$AAl?$AAb@ 00000001800242f8     ImageScanner.obj
 0002:00002308       _GUID_0002e012_0000_0000_c000_000000000046 0000000180024308     ImageScanner.obj
 0002:00002318       ??_C@_1O@FHBGLCIO@?$AAC?$AAL?$AAS?$AAI?$AAD?$AA?2@ 0000000180024318     ImageScanner.obj
 0002:00002328       ??_C@_1CK@IFBKBFAA@?$AA?2?$AAR?$AAe?$AAq?$AAu?$AAi?$AAr?$AAe?$AAd?$AA?5?$AAC?$AAa?$AAt?$AAe?$AAg@ 0000000180024328     ImageScanner.obj
 0002:00002358       ??_C@_1DA@BIHALFED@?$AA?2?$AAI?$AAm?$AAp?$AAl?$AAe?$AAm?$AAe?$AAn?$AAt?$AAe?$AAd?$AA?5?$AAC?$AAa@ 0000000180024358     ImageScanner.obj
 0002:00002388       ??_C@_1BK@EDKOLFBJ@?$AAO?$AAL?$AAE?$AAA?$AAU?$AAT?$AA3?$AA2?$AA?4?$AAD?$AAL?$AAL@ 0000000180024388     ImageScanner.obj
 0002:000023a8       ??_C@_0BJ@CNLFOMHB@UnRegisterTypeLibForUser@ 00000001800243a8     ImageScanner.obj
 0002:000023c8       ??_C@_0BH@LBOMMKPJ@RegisterTypeLibForUser@ 00000001800243c8     ImageScanner.obj
 0002:000023e0       ??_C@_0P@MMNMMLGK@COFreezeEvents@ 00000001800243e0     ImageScannerImpl.obj
 0002:000023f0       ??_C@_0BC@OGCGGIMP@GetPropertyNumber@ 00000001800243f0     ImageScannerImpl.obj
 0002:00002408       ??_C@_0BC@MDCNODNB@SetPropertyNumber@ 0000000180024408     ImageScannerImpl.obj
 0002:00002420       ??_C@_0BC@CFCCMIMD@GetPropertyString@ 0000000180024420     ImageScannerImpl.obj
 0002:00002438       ??_C@_0BC@CJEDNN@SetPropertyString@ 0000000180024438     ImageScannerImpl.obj
 0002:00002450       ??_C@_0M@LNPKKKDA@OpenService@ 0000000180024450     ImageScannerImpl.obj
 0002:00002460       ??_C@_0M@PCMCHHMH@CheckHealth@ 0000000180024460     ImageScannerImpl.obj
 0002:00002470       ??_C@_0M@JGMIDNEK@ClaimDevice@ 0000000180024470     ImageScannerImpl.obj
 0002:00002480       ??_C@_0L@BNEIFEJC@ClearInput@ 0000000180024480     ImageScannerImpl.obj
 0002:00002490       ??_C@_0N@DDFIIBMP@CloseService@ 0000000180024490     ImageScannerImpl.obj
 0002:000024a0       ??_C@_08EEIHICPC@DirectIO@ 00000001800244a0     ImageScannerImpl.obj
 0002:000024b0       ??_C@_0O@BCPMENMJ@ReleaseDevice@ 00000001800244b0     ImageScannerImpl.obj
 0002:000024c0       ??_C@_0BA@GFABKEEE@ResetStatistics@ 00000001800244c0     ImageScannerImpl.obj
 0002:000024d0       ??_C@_0BD@DPALHJGC@RetrieveStatistics@ 00000001800244d0     ImageScannerImpl.obj
 0002:000024e8       ??_C@_0BB@KOHIKNFC@UpdateStatistics@ 00000001800244e8     ImageScannerImpl.obj
 0002:00002500       ??_C@_0BH@PBKBNMGB@CompareFirmwareVersion@ 0000000180024500     ImageScannerImpl.obj
 0002:00002518       ??_C@_0P@FBPDPIPA@UpdateFirmware@ 0000000180024518     ImageScannerImpl.obj
 0002:00002528       ??_C@_0BF@CMAPCJGM@ClearInputProperties@ 0000000180024528     ImageScannerImpl.obj
 0002:00002540       ??_C@_0N@GCBGNGGH@StartSession@ 0000000180024540     ImageScannerImpl.obj
 0002:00002550       ??_C@_0M@JOEDAMJP@StopSession@ 0000000180024550     ImageScannerImpl.obj
 0002:00002560       ??_7?$CProxy_IOPOSEvents@VCOPOSImageScanner@@@@6B@ 0000000180024560     ImageScannerImpl.obj
 0002:000025a0       ??_C@_1BA@IFHENID@?$AA?$FL?$AAE?$AAr?$AAr?$AAo?$AAr?$AA?$FN@ 00000001800245a0     ImageScannerImpl.obj
 0002:000025b0       ??_C@_0CP@HACMBLAI@SOFTWARE?2OLEforRetail?2ServiceOP@ 00000001800245b0     ImageScannerImpl.obj
 0002:000025e0       ??_C@_1M@IAIJHCCH@?$AAC?$AAl?$AAo?$AAs?$AAe@ 00000001800245e0     ImageScannerImpl.obj
 0002:000025f0       ??_C@_1M@PCPKGJAH@?$AAC?$AAl?$AAa?$AAi?$AAm@ 00000001800245f0     ImageScannerImpl.obj
 0002:00002600       ??_C@_1BA@NDFKIOCP@?$AAR?$AAe?$AAl?$AAe?$AAa?$AAs?$AAe@ 0000000180024600     ImageScannerImpl.obj
 0002:00002610       ??_C@_0N@MEEKPIMD@ImageScanner@ 0000000180024610     ImageScannerImpl.obj
 0002:00002620       ??_C@_1BM@IJMNMBPK@?$AAG?$AAe?$AAt?$AAO?$AAp?$AAe?$AAn?$AAR?$AAe?$AAs?$AAu?$AAl?$AAt@ 0000000180024620     ImageScannerImpl.obj
 0002:00002640       IID_IPropertyNotifySink    0000000180024640     uuid:ocidl_i.obj
 0002:00002650       IID_IDispatch              0000000180024650     uuid:oaidl_i.obj
 0002:00002660       GUID_NULL                  0000000180024660     uuid:cguid_i.obj
 0002:00002670       CLSID_StdGlobalInterfaceTable 0000000180024670     uuid:cguid_i.obj
 0002:00002680       CLSID_StdComponentCategoriesMgr 0000000180024680     uuid:ieguids.obj
 0002:00002690       IID_IUnknown               0000000180024690     uuid:unknwn_i.obj
 0002:000026a0       __xmm@ffffffffffffffffffffffffffffffff 00000001800246a0     LIBCMT:utility.obj
 0002:000026b0       ??_C@_1EC@JIJBPKFM@?$AAa?$AAp?$AAi?$AA?9?$AAm?$AAs?$AA?9?$AAw?$AAi?$AAn?$AA?9?$AAc?$AAo?$AAr?$AAe@ 00000001800246b0     LIBCMT:thread_safe_statics.obj
 0002:000026f8       ??_C@_1BK@MGMFAEKH@?$AAk?$AAe?$AAr?$AAn?$AAe?$AAl?$AA3?$AA2?$AA?4?$AAd?$AAl?$AAl@ 00000001800246f8     LIBCMT:thread_safe_statics.obj
 0002:00002718       ??_C@_0BJ@JEBJOJFJ@SleepConditionVariableCS@ 0000000180024718     LIBCMT:thread_safe_statics.obj
 0002:00002738       ??_C@_0BJ@PGPPEPCC@WakeAllConditionVariable@ 0000000180024738     LIBCMT:thread_safe_statics.obj
 0002:00002751       ?nothrow@std@@3Unothrow_t@1@B 0000000180024751     LIBCMT:std_nothrow.obj
 0002:00002790       _pDefaultRawDllMain        0000000180024790     LIBCMT:dll_dllmain.obj
 0002:00002790       _pRawDllMain               0000000180024790     LIBCMT:dll_dllmain.obj
 0002:000027a0       ??_7exception@std@@6B@     00000001800247a0     LIBCMT:throw_bad_alloc.obj
 0002:000027b0       ??_C@_0BC@EOODALEL@Unknown?5exception@ 00000001800247b0     LIBCMT:throw_bad_alloc.obj
 0002:000027d0       ??_7bad_alloc@std@@6B@     00000001800247d0     LIBCMT:throw_bad_alloc.obj
 0002:000027e0       ??_C@_0P@GHFPNOJB@bad?5allocation@ 00000001800247e0     LIBCMT:throw_bad_alloc.obj
 0002:000027f8       ??_7bad_array_new_length@std@@6B@ 00000001800247f8     LIBCMT:throw_bad_alloc.obj
 0002:00002808       ??_C@_0BF@KINCDENJ@bad?5array?5new?5length@ 0000000180024808     LIBCMT:throw_bad_alloc.obj
 0002:00002828       ??_7type_info@@6B@         0000000180024828     LIBCMT:std_type_info_static.obj
 0002:00002830       GUID_ATLVer110             0000000180024830     atls:atlbase.obj
 0002:00002840       ??_C@_1IC@ONKHOIDK@?$AAE?$AAR?$AAR?$AAO?$AAR?$AA?5?$AA?3?$AA?5?$AAU?$AAn?$AAa?$AAb?$AAl?$AAe?$AA?5@ 0000000180024840     atls:atlbase.obj
 0002:000028c8       ??_C@_0N@FJEPLCIH@atlthunk?4dll@ 00000001800248c8     atls:atlthunk.obj
 0002:000028d8       ??_C@_0BG@GAKFHCBM@AtlThunk_AllocateData@ 00000001800248d8     atls:atlthunk.obj
 0002:000028f0       ??_C@_0BC@JKONFIAH@AtlThunk_InitData@ 00000001800248f0     atls:atlthunk.obj
 0002:00002908       ??_C@_0BE@IAOEELAK@AtlThunk_DataToCode@ 0000000180024908     atls:atlthunk.obj
 0002:00002920       ??_C@_0BC@GBGKAIPI@AtlThunk_FreeData@ 0000000180024920     atls:atlthunk.obj
 0002:00002a20       _pDestructExceptionObject  0000000180024a20     libvcruntime:ehhelpers.obj
 0002:00002a30       ??_7bad_exception@std@@6B@ 0000000180024a30     libvcruntime:frame.obj
 0002:00002a40       ??_C@_0O@DPKOEFFH@bad?5exception@ 0000000180024a40     libvcruntime:frame.obj
 0002:00002d90       ??_C@_08EHJDFFNH@__based?$CI@ 0000000180024d90     libvcruntime:undname.obj
 0002:00002da0       ??_C@_07KOLFKCDI@__cdecl@  0000000180024da0     libvcruntime:undname.obj
 0002:00002da8       ??_C@_08GHMPAG@__pascal@   0000000180024da8     libvcruntime:undname.obj
 0002:00002db8       ??_C@_09IFJBGAPI@__stdcall@ 0000000180024db8     libvcruntime:undname.obj
 0002:00002dc8       ??_C@_0L@NPHFGOKO@__thiscall@ 0000000180024dc8     libvcruntime:undname.obj
 0002:00002dd8       ??_C@_0L@JMKHOMEK@__fastcall@ 0000000180024dd8     libvcruntime:undname.obj
 0002:00002de8       ??_C@_0N@BCKKPABJ@__vectorcall@ 0000000180024de8     libvcruntime:undname.obj
 0002:00002df8       ??_C@_09HIJEGCPM@__clrcall@ 0000000180024df8     libvcruntime:undname.obj
 0002:00002e04       ??_C@_06GHPCKEAG@__eabi@   0000000180024e04     libvcruntime:undname.obj
 0002:00002e10       ??_C@_09IOPIDJLG@__swift_1@ 0000000180024e10     libvcruntime:undname.obj
 0002:00002e20       ??_C@_09KFNFGKHF@__swift_2@ 0000000180024e20     libvcruntime:undname.obj
 0002:00002e30       ??_C@_07JOMMBBKO@__ptr64@  0000000180024e30     libvcruntime:undname.obj
 0002:00002e38       ??_C@_0L@PILCLIHE@__restrict@ 0000000180024e38     libvcruntime:undname.obj
 0002:00002e48       ??_C@_0M@GFIIJFMG@__unaligned@ 0000000180024e48     libvcruntime:undname.obj
 0002:00002e58       ??_C@_09DHDLOLLB@restrict?$CI@ 0000000180024e58     libvcruntime:undname.obj
 0002:00002e62       ??_C@_00CNPNBAHC@@         0000000180024e62     libvcruntime:undname.obj
 0002:00002e64       ??_C@_04NIHEBCM@?5new@     0000000180024e64     libvcruntime:undname.obj
 0002:00002e70       ??_C@_07FPCDHGMM@?5delete@ 0000000180024e70     libvcruntime:undname.obj
 0002:00002e78       ??_C@_01NEMOKFLO@?$DN@     0000000180024e78     libvcruntime:undname.obj
 0002:00002e7c       ??_C@_02GPIOPFAK@?$DO?$DO@ 0000000180024e7c     libvcruntime:undname.obj
 0002:00002e80       ??_C@_02FODMEDOG@?$DM?$DM@ 0000000180024e80     libvcruntime:undname.obj
 0002:00002e84       ??_C@_01DCLJPIOD@?$CB@     0000000180024e84     libvcruntime:undname.obj
 0002:00002e88       ??_C@_02EGOFBIJA@?$DN?$DN@ 0000000180024e88     libvcruntime:undname.obj
 0002:00002e8c       ??_C@_02FDNJECIE@?$CB?$DN@ 0000000180024e8c     libvcruntime:undname.obj
 0002:00002e90       ??_C@_02GPECMEKF@?$FL?$FN@ 0000000180024e90     libvcruntime:undname.obj
 0002:00002e98       ??_C@_08LHJFAFGD@operator@ 0000000180024e98     libvcruntime:undname.obj
 0002:00002ea4       ??_C@_02HBOOOICD@?9?$DO@   0000000180024ea4     libvcruntime:undname.obj
 0002:00002ea8       ??_C@_01NBENCBCI@?$CK@     0000000180024ea8     libvcruntime:undname.obj
 0002:00002eac       ??_C@_02ECNGHCIF@?$CL?$CL@ 0000000180024eac     libvcruntime:undname.obj
 0002:00002eb0       ??_C@_02BAABKJLB@?9?9@     0000000180024eb0     libvcruntime:undname.obj
 0002:00002eb4       ??_C@_01JOAMLHOP@?9@       0000000180024eb4     libvcruntime:undname.obj
 0002:00002eb8       ??_C@_01MIFGBAGJ@?$CL@     0000000180024eb8     libvcruntime:undname.obj
 0002:00002ebc       ??_C@_01HNPIGOCE@?$CG@     0000000180024ebc     libvcruntime:undname.obj
 0002:00002ec0       ??_C@_03MNHNFDLC@?9?$DO?$CK@ 0000000180024ec0     libvcruntime:undname.obj
 0002:00002ec4       ??_C@_01KMDKNFGN@?1@       0000000180024ec4     libvcruntime:undname.obj
 0002:00002ec8       ??_C@_01FGNFDNOH@?$CF@     0000000180024ec8     libvcruntime:undname.obj
 0002:00002ecc       ??_C@_01MNNFJEPP@?$DM@     0000000180024ecc     libvcruntime:undname.obj
 0002:00002ed0       ??_C@_02EHCHHCKH@?$DM?$DN@ 0000000180024ed0     libvcruntime:undname.obj
 0002:00002ed4       ??_C@_01PPODPGHN@?$DO@     0000000180024ed4     libvcruntime:undname.obj
 0002:00002ed8       ??_C@_02EEKDKGMJ@?$DO?$DN@ 0000000180024ed8     libvcruntime:undname.obj
 0002:00002edc       ??_C@_01IHBHIGKO@?0@       0000000180024edc     libvcruntime:undname.obj
 0002:00002ee0       ??_C@_02HCKGKOFO@?$CI?$CJ@ 0000000180024ee0     libvcruntime:undname.obj
 0002:00002ee4       ??_C@_01PJKLJHI@?$HO@      0000000180024ee4     libvcruntime:undname.obj
 0002:00002ee8       ??_C@_01JKBOJNNK@?$FO@     0000000180024ee8     libvcruntime:undname.obj
 0002:00002eec       ??_C@_01DNKMNLPK@?$HM@     0000000180024eec     libvcruntime:undname.obj
 0002:00002ef0       ??_C@_02PPKAJPJL@?$CG?$CG@ 0000000180024ef0     libvcruntime:undname.obj
 0002:00002ef4       ??_C@_02NONPIBCD@?$HM?$HM@ 0000000180024ef4     libvcruntime:undname.obj
 0002:00002ef8       ??_C@_02FPIMKNGF@?$CK?$DN@ 0000000180024ef8     libvcruntime:undname.obj
 0002:00002efc       ??_C@_02FOEOMHFC@?$CL?$DN@ 0000000180024efc     libvcruntime:undname.obj
 0002:00002f00       ??_C@_02FKMDLLOA@?9?$DN@   0000000180024f00     libvcruntime:undname.obj
 0002:00002f04       ??_C@_02FJEHGPIO@?1?$DN@   0000000180024f04     libvcruntime:undname.obj
 0002:00002f08       ??_C@_02FENAOKFI@?$CF?$DN@ 0000000180024f08     libvcruntime:undname.obj
 0002:00002f0c       ??_C@_03IKFCCPFF@?$DO?$DO?$DN@ 0000000180024f0c     libvcruntime:undname.obj
 0002:00002f10       ??_C@_03CDNPDDLA@?$DM?$DM?$DN@ 0000000180024f10     libvcruntime:undname.obj
 0002:00002f14       ??_C@_02FGJGFEAB@?$CG?$DN@ 0000000180024f14     libvcruntime:undname.obj
 0002:00002f18       ??_C@_02DHLNPPGH@?$HM?$DN@ 0000000180024f18     libvcruntime:undname.obj
 0002:00002f1c       ??_C@_02MHEGNOJ@?$FO?$DN@  0000000180024f1c     libvcruntime:undname.obj
 0002:00002f20       ??_C@_09IFPLHPGF@?$GAvftable?8@ 0000000180024f20     libvcruntime:undname.obj
 0002:00002f30       ??_C@_09BLBHBJP@?$GAvbtable?8@ 0000000180024f30     libvcruntime:undname.obj
 0002:00002f40       ??_C@_07FEEIOKP@?$GAvcall?8@ 0000000180024f40     libvcruntime:undname.obj
 0002:00002f48       ??_C@_08LLFFHHDJ@?$GAtypeof?8@ 0000000180024f48     libvcruntime:undname.obj
 0002:00002f58       ??_C@_0BF@KDPPACIK@?$GAlocal?5static?5guard?8@ 0000000180024f58     libvcruntime:undname.obj
 0002:00002f70       ??_C@_08OBABFOLI@?$GAstring?8@ 0000000180024f70     libvcruntime:undname.obj
 0002:00002f80       ??_C@_0BD@JDLKDPAB@?$GAvbase?5destructor?8@ 0000000180024f80     libvcruntime:undname.obj
 0002:00002f98       ??_C@_0BN@DEGPLNFK@?$GAvector?5deleting?5destructor?8@ 0000000180024f98     libvcruntime:undname.obj
 0002:00002fb8       ??_C@_0BO@OBMKPJIG@?$GAdefault?5constructor?5closure?8@ 0000000180024fb8     libvcruntime:undname.obj
 0002:00002fd8       ??_C@_0BN@IMDCHIKM@?$GAscalar?5deleting?5destructor?8@ 0000000180024fd8     libvcruntime:undname.obj
 0002:00002ff8       ??_C@_0BO@PFGOCPJJ@?$GAvector?5constructor?5iterator?8@ 0000000180024ff8     libvcruntime:undname.obj
 0002:00003018       ??_C@_0BN@LFPFMEDL@?$GAvector?5destructor?5iterator?8@ 0000000180025018     libvcruntime:undname.obj
 0002:00003038       ??_C@_0CE@IKBNEHA@?$GAvector?5vbase?5constructor?5itera@ 0000000180025038     libvcruntime:undname.obj
 0002:00003060       ??_C@_0BL@NILFHHPC@?$GAvirtual?5displacement?5map?8@ 0000000180025060     libvcruntime:undname.obj
 0002:00003080       ??_C@_0CB@JONCMFFK@?$GAeh?5vector?5constructor?5iterator@ 0000000180025080     libvcruntime:undname.obj
 0002:000030a8       ??_C@_0CA@GCEOPDGL@?$GAeh?5vector?5destructor?5iterator?8@ 00000001800250a8     libvcruntime:undname.obj
 0002:000030c8       ??_C@_0CH@OOJPLCPH@?$GAeh?5vector?5vbase?5constructor?5it@ 00000001800250c8     libvcruntime:undname.obj
 0002:000030f0       ??_C@_0BL@LLKPOHJI@?$GAcopy?5constructor?5closure?8@ 00000001800250f0     libvcruntime:undname.obj
 0002:00003110       ??_C@_0BA@KBCDOMBN@?$GAudt?5returning?8@ 0000000180025110     libvcruntime:undname.obj
 0002:00003120       ??_C@_03KLGMFNMG@?$GAEH@   0000000180025120     libvcruntime:undname.obj
 0002:00003124       ??_C@_05KHLCHHI@?$GARTTI@  0000000180025124     libvcruntime:undname.obj
 0002:00003130       ??_C@_0BA@KKLDJDLB@?$GAlocal?5vftable?8@ 0000000180025130     libvcruntime:undname.obj
 0002:00003140       ??_C@_0CE@IIHCMGGL@?$GAlocal?5vftable?5constructor?5clos@ 0000000180025140     libvcruntime:undname.obj
 0002:00003164       ??_C@_06FHBGPFGH@?5new?$FL?$FN@ 0000000180025164     libvcruntime:undname.obj
 0002:00003170       ??_C@_09LBNFPBCA@?5delete?$FL?$FN@ 0000000180025170     libvcruntime:undname.obj
 0002:00003180       ??_C@_0P@HJKNJFNN@?$GAomni?5callsig?8@ 0000000180025180     libvcruntime:undname.obj
 0002:00003190       ??_C@_0BL@CNOONJFP@?$GAplacement?5delete?5closure?8@ 0000000180025190     libvcruntime:undname.obj
 0002:000031b0       ??_C@_0BN@CKNJLHMB@?$GAplacement?5delete?$FL?$FN?5closure?8@ 00000001800251b0     libvcruntime:undname.obj
 0002:000031d0       ??_C@_0CG@CFDHKGGD@?$GAmanaged?5vector?5constructor?5ite@ 00000001800251d0     libvcruntime:undname.obj
 0002:000031f8       ??_C@_0CF@IMGKMJNO@?$GAmanaged?5vector?5destructor?5iter@ 00000001800251f8     libvcruntime:undname.obj
 0002:00003220       ??_C@_0CG@HLDDJMAG@?$GAeh?5vector?5copy?5constructor?5ite@ 0000000180025220     libvcruntime:undname.obj
 0002:00003248       ??_C@_0CM@FCBBDIGB@?$GAeh?5vector?5vbase?5copy?5construct@ 0000000180025248     libvcruntime:undname.obj
 0002:00003278       ??_C@_0BL@CLIPGLGB@?$GAdynamic?5initializer?5for?5?8@ 0000000180025278     libvcruntime:undname.obj
 0002:00003298       ??_C@_0CB@PDBIFEP@?$GAdynamic?5atexit?5destructor?5for?5@ 0000000180025298     libvcruntime:undname.obj
 0002:000032c0       ??_C@_0CD@CGAJBKEJ@?$GAvector?5copy?5constructor?5iterat@ 00000001800252c0     libvcruntime:undname.obj
 0002:000032e8       ??_C@_0CJ@GJELGAMM@?$GAvector?5vbase?5copy?5constructor?5@ 00000001800252e8     libvcruntime:undname.obj
 0002:00003318       ??_C@_0CL@FGIJHLCE@?$GAmanaged?5vector?5copy?5constructo@ 0000000180025318     libvcruntime:undname.obj
 0002:00003348       ??_C@_0BM@PMGGMLDN@?$GAlocal?5static?5thread?5guard?8@ 0000000180025348     libvcruntime:undname.obj
 0002:00003368       ??_C@_0N@BDNMDMOL@operator?5?$CC?$CC?5@ 0000000180025368     libvcruntime:undname.obj
 0002:00003378       ??_C@_0BC@GGEBGALA@operator?5co_await@ 0000000180025378     libvcruntime:undname.obj
 0002:00003390       ??_C@_0M@GAAIMMOH@operator?$DM?$DN?$DO@ 0000000180025390     libvcruntime:undname.obj
 0002:000033a0       ??_C@_0BC@DAFEJGAK@?5Type?5Descriptor?8@ 00000001800253a0     libvcruntime:undname.obj
 0002:000033b8       ??_C@_0BM@LDKODKLH@?5Base?5Class?5Descriptor?5at?5?$CI@ 00000001800253b8     libvcruntime:undname.obj
 0002:000033d8       ??_C@_0BD@LGICGFMM@?5Base?5Class?5Array?8@ 00000001800253d8     libvcruntime:undname.obj
 0002:000033f0       ??_C@_0BN@MECKDCOJ@?5Class?5Hierarchy?5Descriptor?8@ 00000001800253f0     libvcruntime:undname.obj
 0002:00003410       ??_C@_0BK@CFCOFLF@?5Complete?5Object?5Locator?8@ 0000000180025410     libvcruntime:undname.obj
 0002:00003448       ??_C@_1DM@KHCHBNEB@?$AAa?$AAp?$AAi?$AA?9?$AAm?$AAs?$AA?9?$AAw?$AAi?$AAn?$AA?9?$AAc?$AAo?$AAr?$AAe@ 0000000180025448     libvcruntime:winapi_downlevel.obj
 0002:00003488       ??_C@_1DK@LPPGFMPP@?$AAa?$AAp?$AAi?$AA?9?$AAm?$AAs?$AA?9?$AAw?$AAi?$AAn?$AA?9?$AAc?$AAo?$AAr?$AAe@ 0000000180025488     libvcruntime:winapi_downlevel.obj
 0002:000034c8       ??_C@_1BC@GDMECMAK@?$AAk?$AAe?$AAr?$AAn?$AAe?$AAl?$AA3?$AA2@ 00000001800254c8     libvcruntime:winapi_downlevel.obj
 0002:000034e0       ??_C@_1BA@PFFKHIOG@?$AAa?$AAp?$AAi?$AA?9?$AAm?$AAs?$AA?9@ 00000001800254e0     libvcruntime:winapi_downlevel.obj
 0002:000034f8       ??_C@_08KNHFBNJ@FlsAlloc@  00000001800254f8     libvcruntime:winapi_downlevel.obj
 0002:00003510       ??_C@_07PEJMOBNF@FlsFree@  0000000180025510     libvcruntime:winapi_downlevel.obj
 0002:00003520       ??_C@_0M@GDNOONDI@FlsGetValue@ 0000000180025520     libvcruntime:winapi_downlevel.obj
 0002:00003538       ??_C@_0M@JCPCPOEF@FlsSetValue@ 0000000180025538     libvcruntime:winapi_downlevel.obj
 0002:00003550       ??_C@_0BM@HCFOFFN@InitializeCriticalSectionEx@ 0000000180025550     libvcruntime:winapi_downlevel.obj
 0002:000036e0       format_validation_lookup_table 00000001800256e0     libucrt:output.obj
 0002:00003740       ??_C@_1O@CEDCILHN@?$AA?$CI?$AAn?$AAu?$AAl?$AAl?$AA?$CJ@ 0000000180025740     libucrt:output.obj
 0002:00003750       ??_C@_06OJHGLDPL@?$CInull?$CJ@ 0000000180025750     libucrt:output.obj
 0002:00003760       __acrt_exception_action_table 0000000180025760     libucrt:exception_filter.obj
 0002:00003820       __acrt_signal_action_table_count 0000000180025820     libucrt:exception_filter.obj
 0002:00003828       __acrt_signal_action_first_fpe_index 0000000180025828     libucrt:exception_filter.obj
 0002:00003830       __acrt_signal_action_fpe_count 0000000180025830     libucrt:exception_filter.obj
 0002:00003838       ??_C@_1BI@BGOHAHKC@?$AAm?$AAs?$AAc?$AAo?$AAr?$AAe?$AAe?$AA?4?$AAd?$AAl?$AAl@ 0000000180025838     libucrt:exit.obj
 0002:00003850       ??_C@_0P@MIGLKIOC@CorExitProcess@ 0000000180025850     libucrt:exit.obj
 0002:00003a00       ??_C@_1EA@JGEFHKEI@?$AAa?$AAp?$AAi?$AA?9?$AAm?$AAs?$AA?9?$AAw?$AAi?$AAn?$AA?9?$AAc?$AAo?$AAr?$AAe@ 0000000180025a00     libucrt:winapi_thunks.obj
 0002:00003a40       ??_C@_1DI@IJCEHOCB@?$AAa?$AAp?$AAi?$AA?9?$AAm?$AAs?$AA?9?$AAw?$AAi?$AAn?$AA?9?$AAc?$AAo?$AAr?$AAe@ 0000000180025a40     libucrt:winapi_thunks.obj
 0002:00003a80       ??_C@_1EI@MPIAOHOC@?$AAa?$AAp?$AAi?$AA?9?$AAm?$AAs?$AA?9?$AAw?$AAi?$AAn?$AA?9?$AAc?$AAo?$AAr?$AAe@ 0000000180025a80     libucrt:winapi_thunks.obj
 0002:00003ad0       ??_C@_1FK@FPHCKFIE@?$AAa?$AAp?$AAi?$AA?9?$AAm?$AAs?$AA?9?$AAw?$AAi?$AAn?$AA?9?$AAc?$AAo?$AAr?$AAe@ 0000000180025ad0     libucrt:winapi_thunks.obj
 0002:00003b30       ??_C@_1EM@DILCGIIO@?$AAa?$AAp?$AAi?$AA?9?$AAm?$AAs?$AA?9?$AAw?$AAi?$AAn?$AA?9?$AAc?$AAo?$AAr?$AAe@ 0000000180025b30     libucrt:winapi_thunks.obj
 0002:00003b80       ??_C@_1DM@LNCGDDPN@?$AAa?$AAp?$AAi?$AA?9?$AAm?$AAs?$AA?9?$AAw?$AAi?$AAn?$AA?9?$AAc?$AAo?$AAr?$AAe@ 0000000180025b80     libucrt:winapi_thunks.obj
 0002:00003bc0       ??_C@_1DO@FPAPJEMD@?$AAa?$AAp?$AAi?$AA?9?$AAm?$AAs?$AA?9?$AAw?$AAi?$AAn?$AA?9?$AAc?$AAo?$AAr?$AAe@ 0000000180025bc0     libucrt:winapi_thunks.obj
 0002:00003c00       ??_C@_1DK@NDHNAHIO@?$AAa?$AAp?$AAi?$AA?9?$AAm?$AAs?$AA?9?$AAw?$AAi?$AAn?$AA?9?$AAc?$AAo?$AAr?$AAe@ 0000000180025c00     libucrt:winapi_thunks.obj
 0002:00003c40       ??_C@_1DM@KGHDGBCM@?$AAa?$AAp?$AAi?$AA?9?$AAm?$AAs?$AA?9?$AAw?$AAi?$AAn?$AA?9?$AAc?$AAo?$AAr?$AAe@ 0000000180025c40     libucrt:winapi_thunks.obj
 0002:00003c80       ??_C@_1EO@IJIOEFOH@?$AAa?$AAp?$AAi?$AA?9?$AAm?$AAs?$AA?9?$AAw?$AAi?$AAn?$AA?9?$AAr?$AAt?$AAc?$AAo@ 0000000180025c80     libucrt:winapi_thunks.obj
 0002:00003cd0       ??_C@_1FG@HHGEKANL@?$AAa?$AAp?$AAi?$AA?9?$AAm?$AAs?$AA?9?$AAw?$AAi?$AAn?$AA?9?$AAs?$AAe?$AAc?$AAu@ 0000000180025cd0     libucrt:winapi_thunks.obj
 0002:00003d30       ??_C@_1EG@DBIOJECG@?$AAe?$AAx?$AAt?$AA?9?$AAm?$AAs?$AA?9?$AAw?$AAi?$AAn?$AA?9?$AAn?$AAt?$AAu?$AAs@ 0000000180025d30     libucrt:winapi_thunks.obj
 0002:00003d80       ??_C@_1EO@FIHMJCLF@?$AAe?$AAx?$AAt?$AA?9?$AAm?$AAs?$AA?9?$AAw?$AAi?$AAn?$AA?9?$AAn?$AAt?$AAu?$AAs@ 0000000180025d80     libucrt:winapi_thunks.obj
 0002:00003dd0       ??_C@_1BC@DNHGCMLG@?$AAa?$AAd?$AAv?$AAa?$AAp?$AAi?$AA3?$AA2@ 0000000180025dd0     libucrt:winapi_thunks.obj
 0002:00003de8       ??_C@_1M@OAIMIKLP@?$AAn?$AAt?$AAd?$AAl?$AAl@ 0000000180025de8     libucrt:winapi_thunks.obj
 0002:00003e00       ??_C@_1EG@DPGNFKGC@?$AAa?$AAp?$AAi?$AA?9?$AAm?$AAs?$AA?9?$AAw?$AAi?$AAn?$AA?9?$AAa?$AAp?$AAp?$AAm@ 0000000180025e00     libucrt:winapi_thunks.obj
 0002:00003e48       ??_C@_1O@BCCLBEOE@?$AAu?$AAs?$AAe?$AAr?$AA3?$AA2@ 0000000180025e48     libucrt:winapi_thunks.obj
 0002:00003e58       ??_C@_1BA@IAIFMGEF@?$AAe?$AAx?$AAt?$AA?9?$AAm?$AAs?$AA?9@ 0000000180025e58     libucrt:winapi_thunks.obj
 0002:00003e70       ??_C@_0BA@FHFNEAED@AreFileApisANSI@ 0000000180025e70     libucrt:winapi_thunks.obj
 0002:00003eb0       ??_C@_0O@KKBNKAPF@LCMapStringEx@ 0000000180025eb0     libucrt:winapi_thunks.obj
 0002:00003ec8       ??_C@_0BB@HBDEELFH@LocaleNameToLCID@ 0000000180025ec8     libucrt:winapi_thunks.obj
 0002:00003ee0       ??_C@_0CF@OJOFEIGO@AppPolicyGetProcessTerminationM@ 0000000180025ee0     libucrt:winapi_thunks.obj
 0002:00003f10       ??_C@_0BI@BKLFFAPO@SetThreadStackGuarantee@ 0000000180025f10     libucrt:winapi_thunks.obj
 0002:00003fb0       ??_C@_03OEIAHPBN@INF@      0000000180025fb0     libucrt:cvt.obj
 0002:00003fb4       ??_C@_03OJHLLCGB@inf@      0000000180025fb4     libucrt:cvt.obj
 0002:00003fb8       ??_C@_03LKNCIKJB@NAN@      0000000180025fb8     libucrt:cvt.obj
 0002:00003fbc       ??_C@_03LHCJEHON@nan@      0000000180025fbc     libucrt:cvt.obj
 0002:00003fc0       ??_C@_09OFJJIMPC@NAN?$CISNAN?$CJ@ 0000000180025fc0     libucrt:cvt.obj
 0002:00003fd0       ??_C@_09IPFBKMDL@nan?$CIsnan?$CJ@ 0000000180025fd0     libucrt:cvt.obj
 0002:00003fe0       ??_C@_08IKHNHAJ@NAN?$CIIND?$CJ@ 0000000180025fe0     libucrt:cvt.obj
 0002:00003ff0       ??_C@_08OFCDMILK@nan?$CIind?$CJ@ 0000000180025ff0     libucrt:cvt.obj
 0002:00003ffc       ??_C@_05KLBDPFGC@e?$CL000@ 0000000180025ffc     libucrt:cvt.obj
 0002:00004010       __lc_time_c                0000000180026010     libucrt:nlsdata.obj
 0002:000042d0       ??_C@_03KOEHGMDN@Sun@      00000001800262d0     libucrt:nlsdata.obj
 0002:000042d4       ??_C@_03PDAGKDH@Mon@       00000001800262d4     libucrt:nlsdata.obj
 0002:000042d8       ??_C@_03NAGEINEP@Tue@      00000001800262d8     libucrt:nlsdata.obj
 0002:000042dc       ??_C@_03MHOMLAJA@Wed@      00000001800262dc     libucrt:nlsdata.obj
 0002:000042e0       ??_C@_03IOFIKPDN@Thu@      00000001800262e0     libucrt:nlsdata.obj
 0002:000042e4       ??_C@_03IDIOELNC@Fri@      00000001800262e4     libucrt:nlsdata.obj
 0002:000042e8       ??_C@_03FEFJNEK@Sat@       00000001800262e8     libucrt:nlsdata.obj
 0002:000042ec       ??_C@_06OOPIFAJ@Sunday@    00000001800262ec     libucrt:nlsdata.obj
 0002:000042f4       ??_C@_06JLEDEDGH@Monday@   00000001800262f4     libucrt:nlsdata.obj
 0002:00004300       ??_C@_07BAAGCFCM@Tuesday@  0000000180026300     libucrt:nlsdata.obj
 0002:00004308       ??_C@_09DLIGFAKA@Wednesday@ 0000000180026308     libucrt:nlsdata.obj
 0002:00004318       ??_C@_08HACCIKIA@Thursday@ 0000000180026318     libucrt:nlsdata.obj
 0002:00004324       ??_C@_06JECMNKMI@Friday@   0000000180026324     libucrt:nlsdata.obj
 0002:00004330       ??_C@_08INBOOONO@Saturday@ 0000000180026330     libucrt:nlsdata.obj
 0002:0000433c       ??_C@_03JIHJHPIE@Jan@      000000018002633c     libucrt:nlsdata.obj
 0002:00004340       ??_C@_03HJBDCHOM@Feb@      0000000180026340     libucrt:nlsdata.obj
 0002:00004344       ??_C@_03ODNJBKGA@Mar@      0000000180026344     libucrt:nlsdata.obj
 0002:00004348       ??_C@_03LEOLGMJP@Apr@      0000000180026348     libucrt:nlsdata.obj
 0002:0000434c       ??_C@_03CNMDKL@May@        000000018002634c     libucrt:nlsdata.obj
 0002:00004350       ??_C@_03IDFGHECI@Jun@      0000000180026350     libucrt:nlsdata.obj
 0002:00004354       ??_C@_03LBGABGKK@Jul@      0000000180026354     libucrt:nlsdata.obj
 0002:00004358       ??_C@_03IFJFEIGA@Aug@      0000000180026358     libucrt:nlsdata.obj
 0002:0000435c       ??_C@_03GGCAPAJC@Sep@      000000018002635c     libucrt:nlsdata.obj
 0002:00004360       ??_C@_03BMAOKBAD@Oct@      0000000180026360     libucrt:nlsdata.obj
 0002:00004364       ??_C@_03JPJOFNIA@Nov@      0000000180026364     libucrt:nlsdata.obj
 0002:00004368       ??_C@_03MKABNOCG@Dec@      0000000180026368     libucrt:nlsdata.obj
 0002:00004370       ??_C@_07CGJPFGJA@January@  0000000180026370     libucrt:nlsdata.obj
 0002:00004378       ??_C@_08GNJGEPFN@February@ 0000000180026378     libucrt:nlsdata.obj
 0002:00004384       ??_C@_05HPCKOFNC@March@    0000000180026384     libucrt:nlsdata.obj
 0002:0000438c       ??_C@_05DMJDNLEJ@April@    000000018002638c     libucrt:nlsdata.obj
 0002:00004394       ??_C@_04CNLMGBGM@June@     0000000180026394     libucrt:nlsdata.obj
 0002:0000439c       ??_C@_04MIEPOIFP@July@     000000018002639c     libucrt:nlsdata.obj
 0002:000043a4       ??_C@_06LBBHFDDG@August@   00000001800263a4     libucrt:nlsdata.obj
 0002:000043b0       ??_C@_09BHHEALKD@September@ 00000001800263b0     libucrt:nlsdata.obj
 0002:000043c0       ??_C@_07JJNFCEND@October@  00000001800263c0     libucrt:nlsdata.obj
 0002:000043c8       ??_C@_08HCHEGEOA@November@ 00000001800263c8     libucrt:nlsdata.obj
 0002:000043d8       ??_C@_08EDHMEBNP@December@ 00000001800263d8     libucrt:nlsdata.obj
 0002:000043e4       ??_C@_02DEDBPAFC@AM@       00000001800263e4     libucrt:nlsdata.obj
 0002:000043e8       ??_C@_02CJNFDJBF@PM@       00000001800263e8     libucrt:nlsdata.obj
 0002:000043f0       ??_C@_08BPBNCDIB@MM?1dd?1yy@ 00000001800263f0     libucrt:nlsdata.obj
 0002:00004400       ??_C@_0BE@CKGJFCPC@dddd?0?5MMMM?5dd?0?5yyyy@ 0000000180026400     libucrt:nlsdata.obj
 0002:00004418       ??_C@_08JCCMCCIL@HH?3mm?3ss@ 0000000180026418     libucrt:nlsdata.obj
 0002:00004428       ??_C@_17MBGCMIPB@?$AAS?$AAu?$AAn@ 0000000180026428     libucrt:nlsdata.obj
 0002:00004430       ??_C@_17KBOMKBF@?$AAM?$AAo?$AAn@ 0000000180026430     libucrt:nlsdata.obj
 0002:00004438       ??_C@_17BMKGEGOJ@?$AAT?$AAu?$AAe@ 0000000180026438     libucrt:nlsdata.obj
 0002:00004440       ??_C@_17CJEDCEPE@?$AAW?$AAe?$AAd@ 0000000180026440     libucrt:nlsdata.obj
 0002:00004448       ??_C@_17PDPHAADD@?$AAT?$AAh?$AAu@ 0000000180026448     libucrt:nlsdata.obj
 0002:00004450       ??_C@_17HFOLPPLP@?$AAF?$AAr?$AAi@ 0000000180026450     libucrt:nlsdata.obj
 0002:00004458       ??_C@_17GGIBDPIH@?$AAS?$AAa?$AAt@ 0000000180026458     libucrt:nlsdata.obj
 0002:00004460       ??_C@_1O@IHNHDHPB@?$AAS?$AAu?$AAn?$AAd?$AAa?$AAy@ 0000000180026460     libucrt:nlsdata.obj
 0002:00004470       ??_C@_1O@MMNBFLIA@?$AAM?$AAo?$AAn?$AAd?$AAa?$AAy@ 0000000180026470     libucrt:nlsdata.obj
 0002:00004480       ??_C@_1BA@ENFBFFEK@?$AAT?$AAu?$AAe?$AAs?$AAd?$AAa?$AAy@ 0000000180026480     libucrt:nlsdata.obj
 0002:00004490       ??_C@_1BE@EBOGMDOH@?$AAW?$AAe?$AAd?$AAn?$AAe?$AAs?$AAd?$AAa?$AAy@ 0000000180026490     libucrt:nlsdata.obj
 0002:000044a8       ??_C@_1BC@HHMNLIHE@?$AAT?$AAh?$AAu?$AAr?$AAs?$AAd?$AAa?$AAy@ 00000001800264a8     libucrt:nlsdata.obj
 0002:000044c0       ??_C@_1O@PDICJHAG@?$AAF?$AAr?$AAi?$AAd?$AAa?$AAy@ 00000001800264c0     libucrt:nlsdata.obj
 0002:000044d0       ??_C@_1BC@ENMNNPAJ@?$AAS?$AAa?$AAt?$AAu?$AAr?$AAd?$AAa?$AAy@ 00000001800264d0     libucrt:nlsdata.obj
 0002:000044e8       ??_C@_17DKNBKCHM@?$AAJ?$AAa?$AAn@ 00000001800264e8     libucrt:nlsdata.obj
 0002:000044f0       ??_C@_17LMDJEKJN@?$AAF?$AAe?$AAb@ 00000001800264f0     libucrt:nlsdata.obj
 0002:000044f8       ??_C@_17CKNLEDEC@?$AAM?$AAa?$AAr@ 00000001800264f8     libucrt:nlsdata.obj
 0002:00004500       ??_C@_17LFPOIHDD@?$AAA?$AAp?$AAr@ 0000000180026500     libucrt:nlsdata.obj
 0002:00004508       ??_C@_17PNNKMEED@?$AAM?$AAa?$AAy@ 0000000180026508     libucrt:nlsdata.obj
 0002:00004510       ??_C@_17KCJGOCPB@?$AAJ?$AAu?$AAn@ 0000000180026510     libucrt:nlsdata.obj
 0002:00004518       ??_C@_17IJPCKHK@?$AAJ?$AAu?$AAl@ 0000000180026518     libucrt:nlsdata.obj
 0002:00004520       ??_C@_17ICPELBCN@?$AAA?$AAu?$AAg@ 0000000180026520     libucrt:nlsdata.obj
 0002:00004528       ??_C@_17HCHCOKMG@?$AAS?$AAe?$AAp@ 0000000180026528     libucrt:nlsdata.obj
 0002:00004530       ??_C@_17FNLKOI@?$AAO?$AAc?$AAt@ 0000000180026530     libucrt:nlsdata.obj
 0002:00004538       ??_C@_17BBDMLCIG@?$AAN?$AAo?$AAv@ 0000000180026538     libucrt:nlsdata.obj
 0002:00004540       ??_C@_17EGKACKIF@?$AAD?$AAe?$AAc@ 0000000180026540     libucrt:nlsdata.obj
 0002:00004548       ??_C@_1BA@EFMEIEBA@?$AAJ?$AAa?$AAn?$AAu?$AAa?$AAr?$AAy@ 0000000180026548     libucrt:nlsdata.obj
 0002:00004558       ??_C@_1BC@JGDDFFAM@?$AAF?$AAe?$AAb?$AAr?$AAu?$AAa?$AAr?$AAy@ 0000000180026558     libucrt:nlsdata.obj
 0002:00004570       ??_C@_1M@IKEENEDF@?$AAM?$AAa?$AAr?$AAc?$AAh@ 0000000180026570     libucrt:nlsdata.obj
 0002:00004580       ??_C@_1M@GJNLMHFD@?$AAA?$AAp?$AAr?$AAi?$AAl@ 0000000180026580     libucrt:nlsdata.obj
 0002:00004590       ??_C@_19EPFLPGAP@?$AAJ?$AAu?$AAn?$AAe@ 0000000180026590     libucrt:nlsdata.obj
 0002:000045a0       ??_C@_19BIFMLPCD@?$AAJ?$AAu?$AAl?$AAy@ 00000001800265a0     libucrt:nlsdata.obj
 0002:000045b0       ??_C@_1O@PAHLKOAC@?$AAA?$AAu?$AAg?$AAu?$AAs?$AAt@ 00000001800265b0     libucrt:nlsdata.obj
 0002:000045c0       ??_C@_1BE@DKAAMBJL@?$AAS?$AAe?$AAp?$AAt?$AAe?$AAm?$AAb?$AAe?$AAr@ 00000001800265c0     libucrt:nlsdata.obj
 0002:000045d8       ??_C@_1BA@EPANDLNG@?$AAO?$AAc?$AAt?$AAo?$AAb?$AAe?$AAr@ 00000001800265d8     libucrt:nlsdata.obj
 0002:000045e8       ??_C@_1BC@BGLIFPF@?$AAN?$AAo?$AAv?$AAe?$AAm?$AAb?$AAe?$AAr@ 00000001800265e8     libucrt:nlsdata.obj
 0002:00004600       ??_C@_1BC@FEMKIFH@?$AAD?$AAe?$AAc?$AAe?$AAm?$AAb?$AAe?$AAr@ 0000000180026600     libucrt:nlsdata.obj
 0002:00004614       ??_C@_15ODEHAHHF@?$AAA?$AAM@ 0000000180026614     libucrt:nlsdata.obj
 0002:0000461c       ??_C@_15CLMNNGEL@?$AAP?$AAM@ 000000018002661c     libucrt:nlsdata.obj
 0002:00004628       ??_C@_1BC@IEBCMHCM@?$AAM?$AAM?$AA?1?$AAd?$AAd?$AA?1?$AAy?$AAy@ 0000000180026628     libucrt:nlsdata.obj
 0002:00004640       ??_C@_1CI@KNAKOEBC@?$AAd?$AAd?$AAd?$AAd?$AA?0?$AA?5?$AAM?$AAM?$AAM?$AAM?$AA?5?$AAd?$AAd?$AA?0?$AA?5@ 0000000180026640     libucrt:nlsdata.obj
 0002:00004668       ??_C@_1BC@GDGBMEMK@?$AAH?$AAH?$AA?3?$AAm?$AAm?$AA?3?$AAs?$AAs@ 0000000180026668     libucrt:nlsdata.obj
 0002:00004680       ??_C@_1M@BMHNFIME@?$AAe?$AAn?$AA?9?$AAU?$AAS@ 0000000180026680     libucrt:nlsdata.obj
 0002:000046b0       ??_C@_1M@HPNHIDJI@?$AAj?$AAa?$AA?9?$AAJ?$AAP@ 00000001800266b0     libucrt:mbctype.obj
 0002:000046c0       ??_C@_1M@BIBDDEMK@?$AAz?$AAh?$AA?9?$AAC?$AAN@ 00000001800266c0     libucrt:mbctype.obj
 0002:000046d0       ??_C@_1M@JLOOOEGK@?$AAk?$AAo?$AA?9?$AAK?$AAR@ 00000001800266d0     libucrt:mbctype.obj
 0002:000046e0       ??_C@_1M@CLNBBOPM@?$AAz?$AAh?$AA?9?$AAT?$AAW@ 00000001800266e0     libucrt:mbctype.obj
 0002:000046f0       __newctype                 00000001800266f0     libucrt:ctype.obj
 0002:000049f0       __newclmap                 00000001800269f0     libucrt:ctype.obj
 0002:00004b70       __newcumap                 0000000180026b70     libucrt:ctype.obj
 0002:00004cf0       _wctype                    0000000180026cf0     libucrt:ctype.obj
 0002:00005d40       ??_C@_15EMKDOKLE@?$AAa?$AAr@ 0000000180027d40     libucrt:lcidtoname_downlevel.obj
 0002:00005d48       ??_C@_15KNPADPLH@?$AAb?$AAg@ 0000000180027d48     libucrt:lcidtoname_downlevel.obj
 0002:00005d50       ??_C@_15EDMHLDMO@?$AAc?$AAa@ 0000000180027d50     libucrt:lcidtoname_downlevel.obj
 0002:00005d58       ??_C@_1O@BPEAJADD@?$AAz?$AAh?$AA?9?$AAC?$AAH?$AAS@ 0000000180027d58     libucrt:lcidtoname_downlevel.obj
 0002:00005d68       ??_C@_15LJNHCMNK@?$AAc?$AAs@ 0000000180027d68     libucrt:lcidtoname_downlevel.obj
 0002:00005d70       ??_C@_15FOMCIDHG@?$AAd?$AAa@ 0000000180027d70     libucrt:lcidtoname_downlevel.obj
 0002:00005d78       ??_C@_15NBKABECB@?$AAd?$AAe@ 0000000180027d78     libucrt:lcidtoname_downlevel.obj
 0002:00005d80       ??_C@_15GHPEIIAO@?$AAe?$AAl@ 0000000180027d80     libucrt:lcidtoname_downlevel.obj
 0002:00005d88       ??_C@_15MNPNEAIF@?$AAe?$AAn@ 0000000180027d88     libucrt:lcidtoname_downlevel.obj
 0002:00005d90       ??_C@_15GPIOMPMH@?$AAe?$AAs@ 0000000180027d90     libucrt:lcidtoname_downlevel.obj
 0002:00005d98       ??_C@_15NGLOAKJC@?$AAf?$AAi@ 0000000180027d98     libucrt:lcidtoname_downlevel.obj
 0002:00005da0       ??_C@_15FBKGNKAM@?$AAf?$AAr@ 0000000180027da0     libucrt:lcidtoname_downlevel.obj
 0002:00005da8       ??_C@_15KGGCNEFK@?$AAh?$AAe@ 0000000180027da8     libucrt:lcidtoname_downlevel.obj
 0002:00005db0       ??_C@_15PGHLIDMF@?$AAh?$AAu@ 0000000180027db0     libucrt:lcidtoname_downlevel.obj
 0002:00005db8       ??_C@_15BIEMAPLM@?$AAi?$AAs@ 0000000180027db8     libucrt:lcidtoname_downlevel.obj
 0002:00005dc0       ??_C@_15IFJLDHAF@?$AAi?$AAt@ 0000000180027dc0     libucrt:lcidtoname_downlevel.obj
 0002:00005dc8       ??_C@_15GEMIOCAG@?$AAj?$AAa@ 0000000180027dc8     libucrt:lcidtoname_downlevel.obj
 0002:00005dd0       ??_C@_15EPELEGJA@?$AAk?$AAo@ 0000000180027dd0     libucrt:lcidtoname_downlevel.obj
 0002:00005dd8       ??_C@_15NDDHIMN@?$AAn?$AAl@ 0000000180027dd8     libucrt:lcidtoname_downlevel.obj
 0002:00005de0       ??_C@_15BPIGNHCD@?$AAn?$AAo@ 0000000180027de0     libucrt:lcidtoname_downlevel.obj
 0002:00005de8       ??_C@_15DEOPBLCG@?$AAp?$AAl@ 0000000180027de8     libucrt:lcidtoname_downlevel.obj
 0002:00005df0       ??_C@_15KBECGEFG@?$AAp?$AAt@ 0000000180027df0     libucrt:lcidtoname_downlevel.obj
 0002:00005df8       ??_C@_15GLJCBFMD@?$AAr?$AAo@ 0000000180027df8     libucrt:lcidtoname_downlevel.obj
 0002:00005e00       ??_C@_15FEDGKCDI@?$AAr?$AAu@ 0000000180027e00     libucrt:lcidtoname_downlevel.obj
 0002:00005e08       ??_C@_15GLKMLLHM@?$AAh?$AAr@ 0000000180027e08     libucrt:lcidtoname_downlevel.obj
 0002:00005e10       ??_C@_15CPKMFBDB@?$AAs?$AAk@ 0000000180027e10     libucrt:lcidtoname_downlevel.obj
 0002:00005e18       ??_C@_15BAAIOGMK@?$AAs?$AAq@ 0000000180027e18     libucrt:lcidtoname_downlevel.obj
 0002:00005e20       ??_C@_15INNPNOHD@?$AAs?$AAv@ 0000000180027e20     libucrt:lcidtoname_downlevel.obj
 0002:00005e28       ??_C@_15CABMMOGH@?$AAt?$AAh@ 0000000180027e28     libucrt:lcidtoname_downlevel.obj
 0002:00005e30       ??_C@_15BPLIHJJM@?$AAt?$AAr@ 0000000180027e30     libucrt:lcidtoname_downlevel.obj
 0002:00005e38       ??_C@_15NEOEKKDJ@?$AAu?$AAr@ 0000000180027e38     libucrt:lcidtoname_downlevel.obj
 0002:00005e40       ??_C@_15NFICGAJK@?$AAi?$AAd@ 0000000180027e40     libucrt:lcidtoname_downlevel.obj
 0002:00005e48       ??_C@_15PJPFLCCM@?$AAu?$AAk@ 0000000180027e48     libucrt:lcidtoname_downlevel.obj
 0002:00005e50       ??_C@_15HPJPHDM@?$AAb?$AAe@ 0000000180027e50     libucrt:lcidtoname_downlevel.obj
 0002:00005e58       ??_C@_15LCHLGJII@?$AAs?$AAl@ 0000000180027e58     libucrt:lcidtoname_downlevel.obj
 0002:00005e60       ??_C@_15PCFJPHHO@?$AAe?$AAt@ 0000000180027e60     libucrt:lcidtoname_downlevel.obj
 0002:00005e68       ??_C@_15HPFPGODN@?$AAl?$AAv@ 0000000180027e68     libucrt:lcidtoname_downlevel.obj
 0002:00005e70       ??_C@_15NFFGKGLG@?$AAl?$AAt@ 0000000180027e70     libucrt:lcidtoname_downlevel.obj
 0002:00005e78       ??_C@_15BDAKCCHN@?$AAf?$AAa@ 0000000180027e78     libucrt:lcidtoname_downlevel.obj
 0002:00005e80       ??_C@_15NFGIAIAJ@?$AAv?$AAi@ 0000000180027e80     libucrt:lcidtoname_downlevel.obj
 0002:00005e88       ??_C@_15LMKNDMHN@?$AAh?$AAy@ 0000000180027e88     libucrt:lcidtoname_downlevel.obj
 0002:00005e90       ??_C@_15IJBHMCFL@?$AAa?$AAz@ 0000000180027e90     libucrt:lcidtoname_downlevel.obj
 0002:00005e98       ??_C@_15EKOFJABL@?$AAe?$AAu@ 0000000180027e98     libucrt:lcidtoname_downlevel.obj
 0002:00005ea0       ??_C@_15BGHADCNK@?$AAm?$AAk@ 0000000180027ea0     libucrt:lcidtoname_downlevel.obj
 0002:00005ea8       ??_C@_15JDNICKHM@?$AAa?$AAf@ 0000000180027ea8     libucrt:lcidtoname_downlevel.obj
 0002:00005eb0       ??_C@_15KPJEDBKD@?$AAk?$AAa@ 0000000180027eb0     libucrt:lcidtoname_downlevel.obj
 0002:00005eb8       ??_C@_15PDNFFFEO@?$AAf?$AAo@ 0000000180027eb8     libucrt:lcidtoname_downlevel.obj
 0002:00005ec0       ??_C@_15OMLEGLOC@?$AAh?$AAi@ 0000000180027ec0     libucrt:lcidtoname_downlevel.obj
 0002:00005ec8       ??_C@_15IDNNENKK@?$AAm?$AAs@ 0000000180027ec8     libucrt:lcidtoname_downlevel.obj
 0002:00005ed0       ??_C@_15MACJNBMH@?$AAk?$AAk@ 0000000180027ed0     libucrt:lcidtoname_downlevel.obj
 0002:00005ed8       ??_C@_15DKDJEOND@?$AAk?$AAy@ 0000000180027ed8     libucrt:lcidtoname_downlevel.obj
 0002:00005ee0       ??_C@_15DFGDLJBG@?$AAs?$AAw@ 0000000180027ee0     libucrt:lcidtoname_downlevel.obj
 0002:00005ee8       ??_C@_15BBFAICNG@?$AAu?$AAz@ 0000000180027ee8     libucrt:lcidtoname_downlevel.obj
 0002:00005ef0       ??_C@_15DKNDCGEA@?$AAt?$AAt@ 0000000180027ef0     libucrt:lcidtoname_downlevel.obj
 0002:00005ef8       ??_C@_15MGIFMDPL@?$AAp?$AAa@ 0000000180027ef8     libucrt:lcidtoname_downlevel.obj
 0002:00005f00       ??_C@_15HCNDBBA@?$AAg?$AAu@ 0000000180027f00     libucrt:lcidtoname_downlevel.obj
 0002:00005f08       ??_C@_15FNBEIBON@?$AAt?$AAa@ 0000000180027f08     libucrt:lcidtoname_downlevel.obj
 0002:00005f10       ??_C@_15NCHGBGLK@?$AAt?$AAe@ 0000000180027f10     libucrt:lcidtoname_downlevel.obj
 0002:00005f18       ??_C@_15PHPHCBPF@?$AAk?$AAn@ 0000000180027f18     libucrt:lcidtoname_downlevel.obj
 0002:00005f20       ??_C@_15DLGBCKMP@?$AAm?$AAr@ 0000000180027f20     libucrt:lcidtoname_downlevel.obj
 0002:00005f28       ??_C@_15EABBLBFF@?$AAs?$AAa@ 0000000180027f28     libucrt:lcidtoname_downlevel.obj
 0002:00005f30       ??_C@_15CBKOMCOI@?$AAm?$AAn@ 0000000180027f30     libucrt:lcidtoname_downlevel.obj
 0002:00005f38       ??_C@_15CKDMCJAF@?$AAg?$AAl@ 0000000180027f38     libucrt:lcidtoname_downlevel.obj
 0002:00005f40       ??_C@_17CNJFBPG@?$AAk?$AAo?$AAk@ 0000000180027f40     libucrt:lcidtoname_downlevel.obj
 0002:00005f48       ??_C@_17FFBJICPL@?$AAs?$AAy?$AAr@ 0000000180027f48     libucrt:lcidtoname_downlevel.obj
 0002:00005f50       ??_C@_17KPNDCPAF@?$AAd?$AAi?$AAv@ 0000000180027f50     libucrt:lcidtoname_downlevel.obj
 0002:00005f58       ??_C@_1M@OKAHONE@?$AAa?$AAr?$AA?9?$AAS?$AAA@ 0000000180027f58     libucrt:lcidtoname_downlevel.obj
 0002:00005f68       ??_C@_1M@FFFIGIGK@?$AAb?$AAg?$AA?9?$AAB?$AAG@ 0000000180027f68     libucrt:lcidtoname_downlevel.obj
 0002:00005f78       ??_C@_1M@BJNKEDC@?$AAc?$AAa?$AA?9?$AAE?$AAS@ 0000000180027f78     libucrt:lcidtoname_downlevel.obj
 0002:00005f88       ??_C@_1M@IJJHFJHA@?$AAc?$AAs?$AA?9?$AAC?$AAZ@ 0000000180027f88     libucrt:lcidtoname_downlevel.obj
 0002:00005f98       ??_C@_1M@CLPEOBGI@?$AAd?$AAa?$AA?9?$AAD?$AAK@ 0000000180027f98     libucrt:lcidtoname_downlevel.obj
 0002:00005fa8       ??_C@_1M@MCMADGCB@?$AAd?$AAe?$AA?9?$AAD?$AAE@ 0000000180027fa8     libucrt:lcidtoname_downlevel.obj
 0002:00005fb8       ??_C@_1M@OOCKEMAM@?$AAe?$AAl?$AA?9?$AAG?$AAR@ 0000000180027fb8     libucrt:lcidtoname_downlevel.obj
 0002:00005fc8       ??_C@_1M@DDNJFGID@?$AAf?$AAi?$AA?9?$AAF?$AAI@ 0000000180027fc8     libucrt:lcidtoname_downlevel.obj
 0002:00005fd8       ??_C@_1M@GLIPPMAC@?$AAf?$AAr?$AA?9?$AAF?$AAR@ 0000000180027fd8     libucrt:lcidtoname_downlevel.obj
 0002:00005fe8       ??_C@_1M@GFMCHPE@?$AAh?$AAe?$AA?9?$AAI?$AAL@ 0000000180027fe8     libucrt:lcidtoname_downlevel.obj
 0002:00005ff8       ??_C@_1M@MHLPGNKM@?$AAh?$AAu?$AA?9?$AAH?$AAU@ 0000000180027ff8     libucrt:lcidtoname_downlevel.obj
 0002:00006008       ??_C@_1M@LPDDNNPN@?$AAi?$AAs?$AA?9?$AAI?$AAS@ 0000000180028008     libucrt:lcidtoname_downlevel.obj
 0002:00006018       ??_C@_1M@MADIPODN@?$AAi?$AAt?$AA?9?$AAI?$AAT@ 0000000180028018     libucrt:lcidtoname_downlevel.obj
 0002:00006028       ??_C@_1M@IHBJJGG@?$AAn?$AAl?$AA?9?$AAN?$AAL@ 0000000180028028     libucrt:lcidtoname_downlevel.obj
 0002:00006038       ??_C@_1M@EANAGDL@?$AAn?$AAb?$AA?9?$AAN?$AAO@ 0000000180028038     libucrt:lcidtoname_downlevel.obj
 0002:00006048       ??_C@_1M@NEIEMEGP@?$AAp?$AAl?$AA?9?$AAP?$AAL@ 0000000180028048     libucrt:lcidtoname_downlevel.obj
 0002:00006058       ??_C@_1M@BOCFIGEP@?$AAp?$AAt?$AA?9?$AAB?$AAR@ 0000000180028058     libucrt:lcidtoname_downlevel.obj
 0002:00006068       ??_C@_1M@IMPFOPBG@?$AAr?$AAo?$AA?9?$AAR?$AAO@ 0000000180028068     libucrt:lcidtoname_downlevel.obj
 0002:00006078       ??_C@_1M@IDNNEJMM@?$AAr?$AAu?$AA?9?$AAR?$AAU@ 0000000180028078     libucrt:lcidtoname_downlevel.obj
 0002:00006088       ??_C@_1M@LILEEOGM@?$AAh?$AAr?$AA?9?$AAH?$AAR@ 0000000180028088     libucrt:lcidtoname_downlevel.obj
 0002:00006098       ??_C@_1M@FKIFEHPB@?$AAs?$AAk?$AA?9?$AAS?$AAK@ 0000000180028098     libucrt:lcidtoname_downlevel.obj
 0002:000060a8       ??_C@_1M@LJMAMNPJ@?$AAs?$AAq?$AA?9?$AAA?$AAL@ 00000001800280a8     libucrt:lcidtoname_downlevel.obj
 0002:000060b8       ??_C@_1M@GIAKDKJK@?$AAs?$AAv?$AA?9?$AAS?$AAE@ 00000001800280b8     libucrt:lcidtoname_downlevel.obj
 0002:000060c8       ??_C@_1M@MKJKIKCL@?$AAt?$AAh?$AA?9?$AAT?$AAH@ 00000001800280c8     libucrt:lcidtoname_downlevel.obj
 0002:000060d8       ??_C@_1M@MFLCCMPB@?$AAt?$AAr?$AA?9?$AAT?$AAR@ 00000001800280d8     libucrt:lcidtoname_downlevel.obj
 0002:000060e8       ??_C@_1M@OIJHDKJN@?$AAu?$AAr?$AA?9?$AAP?$AAK@ 00000001800280e8     libucrt:lcidtoname_downlevel.obj
 0002:000060f8       ??_C@_1M@LHIPCIEK@?$AAi?$AAd?$AA?9?$AAI?$AAD@ 00000001800280f8     libucrt:lcidtoname_downlevel.obj
 0002:00006108       ??_C@_1M@MFMOBGI@?$AAu?$AAk?$AA?9?$AAU?$AAA@ 0000000180028108     libucrt:lcidtoname_downlevel.obj
 0002:00006118       ??_C@_1M@OBGLJIPL@?$AAb?$AAe?$AA?9?$AAB?$AAY@ 0000000180028118     libucrt:lcidtoname_downlevel.obj
 0002:00006128       ??_C@_1M@BCFAJEAD@?$AAs?$AAl?$AA?9?$AAS?$AAI@ 0000000180028128     libucrt:lcidtoname_downlevel.obj
 0002:00006138       ??_C@_1M@FKFFEDDN@?$AAe?$AAt?$AA?9?$AAE?$AAE@ 0000000180028138     libucrt:lcidtoname_downlevel.obj
 0002:00006148       ??_C@_1M@KGKKAACI@?$AAl?$AAv?$AA?9?$AAL?$AAV@ 0000000180028148     libucrt:lcidtoname_downlevel.obj
 0002:00006158       ??_C@_1M@IFGBIJO@?$AAl?$AAt?$AA?9?$AAL?$AAT@ 0000000180028158     libucrt:lcidtoname_downlevel.obj
 0002:00006168       ??_C@_1M@FGEAHEDM@?$AAf?$AAa?$AA?9?$AAI?$AAR@ 0000000180028168     libucrt:lcidtoname_downlevel.obj
 0002:00006178       ??_C@_1M@KBMAIBFN@?$AAv?$AAi?$AA?9?$AAV?$AAN@ 0000000180028178     libucrt:lcidtoname_downlevel.obj
 0002:00006188       ??_C@_1M@GPCBKDJK@?$AAh?$AAy?$AA?9?$AAA?$AAM@ 0000000180028188     libucrt:lcidtoname_downlevel.obj
 0002:00006198       ??_C@_1BG@BECMDDJB@?$AAa?$AAz?$AA?9?$AAA?$AAZ?$AA?9?$AAL?$AAa?$AAt?$AAn@ 0000000180028198     libucrt:lcidtoname_downlevel.obj
 0002:000061b0       ??_C@_1M@MAOFCAEA@?$AAe?$AAu?$AA?9?$AAE?$AAS@ 00000001800281b0     libucrt:lcidtoname_downlevel.obj
 0002:000061c0       ??_C@_1M@IGHABKPI@?$AAm?$AAk?$AA?9?$AAM?$AAK@ 00000001800281c0     libucrt:lcidtoname_downlevel.obj
 0002:000061d0       ??_C@_1M@IAIGNEJG@?$AAt?$AAn?$AA?9?$AAZ?$AAA@ 00000001800281d0     libucrt:lcidtoname_downlevel.obj
 0002:000061e0       ??_C@_1M@IIJCOJFA@?$AAx?$AAh?$AA?9?$AAZ?$AAA@ 00000001800281e0     libucrt:lcidtoname_downlevel.obj
 0002:000061f0       ??_C@_1M@LGPJHNJH@?$AAz?$AAu?$AA?9?$AAZ?$AAA@ 00000001800281f0     libucrt:lcidtoname_downlevel.obj
 0002:00006200       ??_C@_1M@HOKAOIO@?$AAa?$AAf?$AA?9?$AAZ?$AAA@ 0000000180028200     libucrt:lcidtoname_downlevel.obj
 0002:00006210       ??_C@_1M@DPCLHLIE@?$AAk?$AAa?$AA?9?$AAG?$AAE@ 0000000180028210     libucrt:lcidtoname_downlevel.obj
 0002:00006220       ??_C@_1M@BLKMHJBI@?$AAf?$AAo?$AA?9?$AAF?$AAO@ 0000000180028220     libucrt:lcidtoname_downlevel.obj
 0002:00006230       ??_C@_1M@LGGJAPPB@?$AAh?$AAi?$AA?9?$AAI?$AAN@ 0000000180028230     libucrt:lcidtoname_downlevel.obj
 0002:00006240       ??_C@_1M@FIKPIHFE@?$AAm?$AAt?$AA?9?$AAM?$AAT@ 0000000180028240     libucrt:lcidtoname_downlevel.obj
 0002:00006250       ??_C@_1M@HEGGPBFA@?$AAs?$AAe?$AA?9?$AAN?$AAO@ 0000000180028250     libucrt:lcidtoname_downlevel.obj
 0002:00006260       ??_C@_1M@EIBJEEPA@?$AAm?$AAs?$AA?9?$AAM?$AAY@ 0000000180028260     libucrt:lcidtoname_downlevel.obj
 0002:00006270       ??_C@_1M@FHLBGMPP@?$AAk?$AAk?$AA?9?$AAK?$AAZ@ 0000000180028270     libucrt:lcidtoname_downlevel.obj
 0002:00006280       ??_C@_1M@NGJJLCGI@?$AAk?$AAy?$AA?9?$AAK?$AAG@ 0000000180028280     libucrt:lcidtoname_downlevel.obj
 0002:00006290       ??_C@_1M@GIENNBFC@?$AAs?$AAw?$AA?9?$AAK?$AAE@ 0000000180028290     libucrt:lcidtoname_downlevel.obj
 0002:000062a0       ??_C@_1BG@NDGMJIMJ@?$AAu?$AAz?$AA?9?$AAU?$AAZ?$AA?9?$AAL?$AAa?$AAt?$AAn@ 00000001800282a0     libucrt:lcidtoname_downlevel.obj
 0002:000062b8       ??_C@_1M@IDCCIHBC@?$AAt?$AAt?$AA?9?$AAR?$AAU@ 00000001800282b8     libucrt:lcidtoname_downlevel.obj
 0002:000062c8       ??_C@_1M@LOICPMOJ@?$AAb?$AAn?$AA?9?$AAI?$AAN@ 00000001800282c8     libucrt:lcidtoname_downlevel.obj
 0002:000062d8       ??_C@_1M@KPKKNEAH@?$AAp?$AAa?$AA?9?$AAI?$AAN@ 00000001800282d8     libucrt:lcidtoname_downlevel.obj
 0002:000062e8       ??_C@_1M@PJGPPBOG@?$AAg?$AAu?$AA?9?$AAI?$AAN@ 00000001800282e8     libucrt:lcidtoname_downlevel.obj
 0002:000062f8       ??_C@_1M@KMKMOPHI@?$AAt?$AAa?$AA?9?$AAI?$AAN@ 00000001800282f8     libucrt:lcidtoname_downlevel.obj
 0002:00006308       ??_C@_1M@KFEHEPAC@?$AAt?$AAe?$AA?9?$AAI?$AAN@ 0000000180028308     libucrt:lcidtoname_downlevel.obj
 0002:00006318       ??_C@_1M@CDCLMGHI@?$AAk?$AAn?$AA?9?$AAI?$AAN@ 0000000180028318     libucrt:lcidtoname_downlevel.obj
 0002:00006328       ??_C@_1M@MIODLDKF@?$AAm?$AAl?$AA?9?$AAI?$AAN@ 0000000180028328     libucrt:lcidtoname_downlevel.obj
 0002:00006338       ??_C@_1M@PBIEACPO@?$AAm?$AAr?$AA?9?$AAI?$AAN@ 0000000180028338     libucrt:lcidtoname_downlevel.obj
 0002:00006348       ??_C@_1M@NIDEAGPH@?$AAs?$AAa?$AA?9?$AAI?$AAN@ 0000000180028348     libucrt:lcidtoname_downlevel.obj
 0002:00006358       ??_C@_1M@FHIHCBIO@?$AAm?$AAn?$AA?9?$AAM?$AAN@ 0000000180028358     libucrt:lcidtoname_downlevel.obj
 0002:00006368       ??_C@_1M@JAIJPENP@?$AAc?$AAy?$AA?9?$AAG?$AAB@ 0000000180028368     libucrt:lcidtoname_downlevel.obj
 0002:00006378       ??_C@_1M@PHGFBEPN@?$AAg?$AAl?$AA?9?$AAE?$AAS@ 0000000180028378     libucrt:lcidtoname_downlevel.obj
 0002:00006388       ??_C@_1O@KPIPDNCP@?$AAk?$AAo?$AAk?$AA?9?$AAI?$AAN@ 0000000180028388     libucrt:lcidtoname_downlevel.obj
 0002:00006398       ??_C@_1O@KNHJLDJA@?$AAs?$AAy?$AAr?$AA?9?$AAS?$AAY@ 0000000180028398     libucrt:lcidtoname_downlevel.obj
 0002:000063a8       ??_C@_1O@MKEKBLAH@?$AAd?$AAi?$AAv?$AA?9?$AAM?$AAV@ 00000001800283a8     libucrt:lcidtoname_downlevel.obj
 0002:000063b8       ??_C@_1O@OHDCKDDF@?$AAq?$AAu?$AAz?$AA?9?$AAB?$AAO@ 00000001800283b8     libucrt:lcidtoname_downlevel.obj
 0002:000063c8       ??_C@_1M@LEPJNLFD@?$AAn?$AAs?$AA?9?$AAZ?$AAA@ 00000001800283c8     libucrt:lcidtoname_downlevel.obj
 0002:000063d8       ??_C@_1M@OMLEIIJB@?$AAm?$AAi?$AA?9?$AAN?$AAZ@ 00000001800283d8     libucrt:lcidtoname_downlevel.obj
 0002:000063e8       ??_C@_1M@PMPEAILG@?$AAa?$AAr?$AA?9?$AAI?$AAQ@ 00000001800283e8     libucrt:lcidtoname_downlevel.obj
 0002:000063f8       ??_C@_1M@CNKPNOEE@?$AAd?$AAe?$AA?9?$AAC?$AAH@ 00000001800283f8     libucrt:lcidtoname_downlevel.obj
 0002:00006408       ??_C@_1M@LKMGMLKO@?$AAe?$AAn?$AA?9?$AAG?$AAB@ 0000000180028408     libucrt:lcidtoname_downlevel.obj
 0002:00006418       ??_C@_1M@PGKJFFGL@?$AAe?$AAs?$AA?9?$AAM?$AAX@ 0000000180028418     libucrt:lcidtoname_downlevel.obj
 0002:00006428       ??_C@_1M@DNNANBDC@?$AAf?$AAr?$AA?9?$AAB?$AAE@ 0000000180028428     libucrt:lcidtoname_downlevel.obj
 0002:00006438       ??_C@_1M@HLGMDFHM@?$AAi?$AAt?$AA?9?$AAC?$AAH@ 0000000180028438     libucrt:lcidtoname_downlevel.obj
 0002:00006448       ??_C@_1M@CLLBGJH@?$AAn?$AAl?$AA?9?$AAB?$AAE@ 0000000180028448     libucrt:lcidtoname_downlevel.obj
 0002:00006458       ??_C@_1M@BODBOGLF@?$AAn?$AAn?$AA?9?$AAN?$AAO@ 0000000180028458     libucrt:lcidtoname_downlevel.obj
 0002:00006468       ??_C@_1M@HFFAHKAD@?$AAp?$AAt?$AA?9?$AAP?$AAT@ 0000000180028468     libucrt:lcidtoname_downlevel.obj
 0002:00006478       ??_C@_1BG@LNOAKHIE@?$AAs?$AAr?$AA?9?$AAS?$AAP?$AA?9?$AAL?$AAa?$AAt?$AAn@ 0000000180028478     libucrt:lcidtoname_downlevel.obj
 0002:00006490       ??_C@_1M@HBMHBGAK@?$AAs?$AAv?$AA?9?$AAF?$AAI@ 0000000180028490     libucrt:lcidtoname_downlevel.obj
 0002:000064a0       ??_C@_1BG@DGCJGJBE@?$AAa?$AAz?$AA?9?$AAA?$AAZ?$AA?9?$AAC?$AAy?$AAr?$AAl@ 00000001800284a0     libucrt:lcidtoname_downlevel.obj
 0002:000064b8       ??_C@_1M@KEJDAAHB@?$AAs?$AAe?$AA?9?$AAS?$AAE@ 00000001800284b8     libucrt:lcidtoname_downlevel.obj
 0002:000064c8       ??_C@_1M@HEIBJJAD@?$AAm?$AAs?$AA?9?$AAB?$AAN@ 00000001800284c8     libucrt:lcidtoname_downlevel.obj
 0002:000064d8       ??_C@_1BG@PBGJMCEM@?$AAu?$AAz?$AA?9?$AAU?$AAZ?$AA?9?$AAC?$AAy?$AAr?$AAl@ 00000001800284d8     libucrt:lcidtoname_downlevel.obj
 0002:000064f0       ??_C@_1O@LAOBCMDF@?$AAq?$AAu?$AAz?$AA?9?$AAE?$AAC@ 00000001800284f0     libucrt:lcidtoname_downlevel.obj
 0002:00006500       ??_C@_1M@POEEMAIO@?$AAa?$AAr?$AA?9?$AAE?$AAG@ 0000000180028500     libucrt:lcidtoname_downlevel.obj
 0002:00006510       ??_C@_1M@EFAKDEDL@?$AAz?$AAh?$AA?9?$AAH?$AAK@ 0000000180028510     libucrt:lcidtoname_downlevel.obj
 0002:00006520       ??_C@_1M@HKKIJHGI@?$AAd?$AAe?$AA?9?$AAA?$AAT@ 0000000180028520     libucrt:lcidtoname_downlevel.obj
 0002:00006530       ??_C@_1M@KBFBEHJF@?$AAe?$AAn?$AA?9?$AAA?$AAU@ 0000000180028530     libucrt:lcidtoname_downlevel.obj
 0002:00006540       ??_C@_1M@MNPLFAAH@?$AAe?$AAs?$AA?9?$AAE?$AAS@ 0000000180028540     libucrt:lcidtoname_downlevel.obj
 0002:00006550       ??_C@_1M@HJOOJFMA@?$AAf?$AAr?$AA?9?$AAC?$AAA@ 0000000180028550     libucrt:lcidtoname_downlevel.obj
 0002:00006560       ??_C@_1BG@JPOFPNAB@?$AAs?$AAr?$AA?9?$AAS?$AAP?$AA?9?$AAC?$AAy?$AAr?$AAl@ 0000000180028560     libucrt:lcidtoname_downlevel.obj
 0002:00006578       ??_C@_1M@LNFOCMOB@?$AAs?$AAe?$AA?9?$AAF?$AAI@ 0000000180028578     libucrt:lcidtoname_downlevel.obj
 0002:00006588       ??_C@_1O@MGJBOAMB@?$AAq?$AAu?$AAz?$AA?9?$AAP?$AAE@ 0000000180028588     libucrt:lcidtoname_downlevel.obj
 0002:00006598       ??_C@_1M@GJINLBOK@?$AAa?$AAr?$AA?9?$AAL?$AAY@ 0000000180028598     libucrt:lcidtoname_downlevel.obj
 0002:000065a8       ??_C@_1M@GGMNHJNL@?$AAz?$AAh?$AA?9?$AAS?$AAG@ 00000001800285a8     libucrt:lcidtoname_downlevel.obj
 0002:000065b8       ??_C@_1M@HOIKODND@?$AAd?$AAe?$AA?9?$AAL?$AAU@ 00000001800285b8     libucrt:lcidtoname_downlevel.obj
 0002:000065c8       ??_C@_1M@DDOCCGFG@?$AAe?$AAn?$AA?9?$AAC?$AAA@ 00000001800285c8     libucrt:lcidtoname_downlevel.obj
 0002:000065d8       ??_C@_1M@BNOEMJLF@?$AAe?$AAs?$AA?9?$AAG?$AAT@ 00000001800285d8     libucrt:lcidtoname_downlevel.obj
 0002:000065e8       ??_C@_1M@EOGNKEK@?$AAf?$AAr?$AA?9?$AAC?$AAH@ 00000001800285e8     libucrt:lcidtoname_downlevel.obj
 0002:000065f8       ??_C@_1M@FLIDJFHL@?$AAh?$AAr?$AA?9?$AAB?$AAA@ 00000001800285f8     libucrt:lcidtoname_downlevel.obj
 0002:00006608       ??_C@_1O@FMCELNAJ@?$AAs?$AAm?$AAj?$AA?9?$AAN?$AAO@ 0000000180028608     libucrt:lcidtoname_downlevel.obj
 0002:00006618       ??_C@_1M@JHGLJMGJ@?$AAa?$AAr?$AA?9?$AAD?$AAZ@ 0000000180028618     libucrt:lcidtoname_downlevel.obj
 0002:00006628       ??_C@_1M@JKKFDCNP@?$AAz?$AAh?$AA?9?$AAM?$AAO@ 0000000180028628     libucrt:lcidtoname_downlevel.obj
 0002:00006638       ??_C@_1M@GEEFALPE@?$AAd?$AAe?$AA?9?$AAL?$AAI@ 0000000180028638     libucrt:lcidtoname_downlevel.obj
 0002:00006648       ??_C@_1M@IGEOFBG@?$AAe?$AAn?$AA?9?$AAN?$AAZ@ 0000000180028648     libucrt:lcidtoname_downlevel.obj
 0002:00006658       ??_C@_1M@KDBONEHP@?$AAe?$AAs?$AA?9?$AAC?$AAR@ 0000000180028658     libucrt:lcidtoname_downlevel.obj
 0002:00006668       ??_C@_1M@FHMDOHNN@?$AAf?$AAr?$AA?9?$AAL?$AAU@ 0000000180028668     libucrt:lcidtoname_downlevel.obj
 0002:00006678       ??_C@_1BG@NFKKMAFG@?$AAb?$AAs?$AA?9?$AAB?$AAA?$AA?9?$AAL?$AAa?$AAt?$AAn@ 0000000180028678     libucrt:lcidtoname_downlevel.obj
 0002:00006690       ??_C@_1O@IMNBEMCI@?$AAs?$AAm?$AAj?$AA?9?$AAS?$AAE@ 0000000180028690     libucrt:lcidtoname_downlevel.obj
 0002:000066a0       ??_C@_1M@DHHMBNDP@?$AAa?$AAr?$AA?9?$AAM?$AAA@ 00000001800286a0     libucrt:lcidtoname_downlevel.obj
 0002:000066b0       ??_C@_1M@BNBLJCGH@?$AAe?$AAn?$AA?9?$AAI?$AAE@ 00000001800286b0     libucrt:lcidtoname_downlevel.obj
 0002:000066c0       ??_C@_1M@GEPAFMDL@?$AAe?$AAs?$AA?9?$AAP?$AAA@ 00000001800286c0     libucrt:lcidtoname_downlevel.obj
 0002:000066d0       ??_C@_1M@OJONDMDL@?$AAf?$AAr?$AA?9?$AAM?$AAC@ 00000001800286d0     libucrt:lcidtoname_downlevel.obj
 0002:000066e0       ??_C@_1BG@OBCNFJB@?$AAs?$AAr?$AA?9?$AAB?$AAA?$AA?9?$AAL?$AAa?$AAt?$AAn@ 00000001800286e0     libucrt:lcidtoname_downlevel.obj
 0002:000066f8       ??_C@_1O@KEMEEGPO@?$AAs?$AAm?$AAa?$AA?9?$AAN?$AAO@ 00000001800286f8     libucrt:lcidtoname_downlevel.obj
 0002:00006708       ??_C@_1M@ELMGFODK@?$AAa?$AAr?$AA?9?$AAT?$AAN@ 0000000180028708     libucrt:lcidtoname_downlevel.obj
 0002:00006718       ??_C@_1M@BHDLHFAF@?$AAe?$AAn?$AA?9?$AAZ?$AAA@ 0000000180028718     libucrt:lcidtoname_downlevel.obj
 0002:00006728       ??_C@_1M@BMGIGLIF@?$AAe?$AAs?$AA?9?$AAD?$AAO@ 0000000180028728     libucrt:lcidtoname_downlevel.obj
 0002:00006738       ??_C@_1BG@CMBHIPBE@?$AAs?$AAr?$AA?9?$AAB?$AAA?$AA?9?$AAC?$AAy?$AAr?$AAl@ 0000000180028738     libucrt:lcidtoname_downlevel.obj
 0002:00006750       ??_C@_1O@HEDBLHNP@?$AAs?$AAm?$AAa?$AA?9?$AAS?$AAE@ 0000000180028750     libucrt:lcidtoname_downlevel.obj
 0002:00006760       ??_C@_1M@DAGCADIM@?$AAa?$AAr?$AA?9?$AAO?$AAM@ 0000000180028760     libucrt:lcidtoname_downlevel.obj
 0002:00006770       ??_C@_1M@FODLMICG@?$AAe?$AAn?$AA?9?$AAJ?$AAM@ 0000000180028770     libucrt:lcidtoname_downlevel.obj
 0002:00006780       ??_C@_1M@DNMLCIHB@?$AAe?$AAs?$AA?9?$AAV?$AAE@ 0000000180028780     libucrt:lcidtoname_downlevel.obj
 0002:00006790       ??_C@_1O@EOKHMKJK@?$AAs?$AAm?$AAs?$AA?9?$AAF?$AAI@ 0000000180028790     libucrt:lcidtoname_downlevel.obj
 0002:000067a0       ??_C@_1M@CAFJMKOF@?$AAa?$AAr?$AA?9?$AAY?$AAE@ 00000001800287a0     libucrt:lcidtoname_downlevel.obj
 0002:000067b0       ??_C@_1M@CBFHIJLI@?$AAe?$AAn?$AA?9?$AAC?$AAB@ 00000001800287b0     libucrt:lcidtoname_downlevel.obj
 0002:000067c0       ??_C@_1M@BGNFLDN@?$AAe?$AAs?$AA?9?$AAC?$AAO@ 00000001800287c0     libucrt:lcidtoname_downlevel.obj
 0002:000067d0       ??_C@_1O@JMPHMAMC@?$AAs?$AAm?$AAn?$AA?9?$AAF?$AAI@ 00000001800287d0     libucrt:lcidtoname_downlevel.obj
 0002:000067e0       ??_C@_1M@JLANABKE@?$AAa?$AAr?$AA?9?$AAS?$AAY@ 00000001800287e0     libucrt:lcidtoname_downlevel.obj
 0002:000067f0       ??_C@_1M@HPKGCFGN@?$AAe?$AAn?$AA?9?$AAB?$AAZ@ 00000001800287f0     libucrt:lcidtoname_downlevel.obj
 0002:00006800       ??_C@_1M@OLJCMLGM@?$AAe?$AAs?$AA?9?$AAP?$AAE@ 0000000180028800     libucrt:lcidtoname_downlevel.obj
 0002:00006810       ??_C@_1M@MKKGFKLE@?$AAa?$AAr?$AA?9?$AAJ?$AAO@ 0000000180028810     libucrt:lcidtoname_downlevel.obj
 0002:00006820       ??_C@_1M@EKPGLDNI@?$AAe?$AAn?$AA?9?$AAT?$AAT@ 0000000180028820     libucrt:lcidtoname_downlevel.obj
 0002:00006830       ??_C@_1M@OONGHFHE@?$AAe?$AAs?$AA?9?$AAA?$AAR@ 0000000180028830     libucrt:lcidtoname_downlevel.obj
 0002:00006840       ??_C@_1M@OOJFGBHE@?$AAa?$AAr?$AA?9?$AAL?$AAB@ 0000000180028840     libucrt:lcidtoname_downlevel.obj
 0002:00006850       ??_C@_1M@GCEJHNEG@?$AAe?$AAn?$AA?9?$AAZ?$AAW@ 0000000180028850     libucrt:lcidtoname_downlevel.obj
 0002:00006860       ??_C@_1M@JNOCAHJI@?$AAe?$AAs?$AA?9?$AAE?$AAC@ 0000000180028860     libucrt:lcidtoname_downlevel.obj
 0002:00006870       ??_C@_1M@JEFHPGGB@?$AAa?$AAr?$AA?9?$AAK?$AAW@ 0000000180028870     libucrt:lcidtoname_downlevel.obj
 0002:00006880       ??_C@_1M@MLKIBJOJ@?$AAe?$AAn?$AA?9?$AAP?$AAH@ 0000000180028880     libucrt:lcidtoname_downlevel.obj
 0002:00006890       ??_C@_1M@BDNIPEND@?$AAe?$AAs?$AA?9?$AAC?$AAL@ 0000000180028890     libucrt:lcidtoname_downlevel.obj
 0002:000068a0       ??_C@_1M@MPNMEKBD@?$AAa?$AAr?$AA?9?$AAA?$AAE@ 00000001800288a0     libucrt:lcidtoname_downlevel.obj
 0002:000068b0       ??_C@_1M@KBJALCPI@?$AAe?$AAs?$AA?9?$AAU?$AAY@ 00000001800288b0     libucrt:lcidtoname_downlevel.obj
 0002:000068c0       ??_C@_1M@LLCCOAGA@?$AAa?$AAr?$AA?9?$AAB?$AAH@ 00000001800288c0     libucrt:lcidtoname_downlevel.obj
 0002:000068d0       ??_C@_1M@PBFNCDEL@?$AAe?$AAs?$AA?9?$AAP?$AAY@ 00000001800288d0     libucrt:lcidtoname_downlevel.obj
 0002:000068e0       ??_C@_1M@EDGINPNP@?$AAa?$AAr?$AA?9?$AAQ?$AAA@ 00000001800288e0     libucrt:lcidtoname_downlevel.obj
 0002:000068f0       ??_C@_1M@MKDBIIJI@?$AAe?$AAs?$AA?9?$AAB?$AAO@ 00000001800288f0     libucrt:lcidtoname_downlevel.obj
 0002:00006900       ??_C@_1M@CPKKEBLD@?$AAe?$AAs?$AA?9?$AAS?$AAV@ 0000000180028900     libucrt:lcidtoname_downlevel.obj
 0002:00006910       ??_C@_1M@NDBGMMJL@?$AAe?$AAs?$AA?9?$AAH?$AAN@ 0000000180028910     libucrt:lcidtoname_downlevel.obj
 0002:00006920       ??_C@_1M@JIJIBHDP@?$AAe?$AAs?$AA?9?$AAN?$AAI@ 0000000180028920     libucrt:lcidtoname_downlevel.obj
 0002:00006930       ??_C@_1M@CGFMKEEK@?$AAe?$AAs?$AA?9?$AAP?$AAR@ 0000000180028930     libucrt:lcidtoname_downlevel.obj
 0002:00006940       ??_C@_1O@ICJHKIIK@?$AAz?$AAh?$AA?9?$AAC?$AAH?$AAT@ 0000000180028940     libucrt:lcidtoname_downlevel.obj
 0002:00006950       ??_C@_15CLNEJCE@?$AAs?$AAr@ 0000000180028950     libucrt:lcidtoname_downlevel.obj
 0002:000077a0       ??_C@_1M@KAHEKEIG@?$AAa?$AAf?$AA?9?$AAz?$AAa@ 00000001800297a0     libucrt:lcidtoname_downlevel.obj
 0002:000077b0       ??_C@_1M@GIECOABL@?$AAa?$AAr?$AA?9?$AAa?$AAe@ 00000001800297b0     libucrt:lcidtoname_downlevel.obj
 0002:000077c0       ??_C@_1M@BMLMEKGI@?$AAa?$AAr?$AA?9?$AAb?$AAh@ 00000001800297c0     libucrt:lcidtoname_downlevel.obj
 0002:000077d0       ??_C@_1M@DAPFDGGB@?$AAa?$AAr?$AA?9?$AAd?$AAz@ 00000001800297d0     libucrt:lcidtoname_downlevel.obj
 0002:000077e0       ??_C@_1M@FJNKGKIG@?$AAa?$AAr?$AA?9?$AAe?$AAg@ 00000001800297e0     libucrt:lcidtoname_downlevel.obj
 0002:000077f0       ??_C@_1M@FLGKKCLO@?$AAa?$AAr?$AA?9?$AAi?$AAq@ 00000001800297f0     libucrt:lcidtoname_downlevel.obj
 0002:00007800       ??_C@_1M@GNDIPALM@?$AAa?$AAr?$AA?9?$AAj?$AAo@ 0000000180029800     libucrt:lcidtoname_downlevel.obj
 0002:00007810       ??_C@_1M@DDMJFMGJ@?$AAa?$AAr?$AA?9?$AAk?$AAw@ 0000000180029810     libucrt:lcidtoname_downlevel.obj
 0002:00007820       ??_C@_1M@EJALMLHM@?$AAa?$AAr?$AA?9?$AAl?$AAb@ 0000000180029820     libucrt:lcidtoname_downlevel.obj
 0002:00007830       ??_C@_1M@MOBDBLOC@?$AAa?$AAr?$AA?9?$AAl?$AAy@ 0000000180029830     libucrt:lcidtoname_downlevel.obj
 0002:00007840       ??_C@_1M@JAOCLHDH@?$AAa?$AAr?$AA?9?$AAm?$AAa@ 0000000180029840     libucrt:lcidtoname_downlevel.obj
 0002:00007850       ??_C@_1M@JHPMKJIE@?$AAa?$AAr?$AA?9?$AAo?$AAm@ 0000000180029850     libucrt:lcidtoname_downlevel.obj
 0002:00007860       ??_C@_1M@OEPGHFNH@?$AAa?$AAr?$AA?9?$AAq?$AAa@ 0000000180029860     libucrt:lcidtoname_downlevel.obj
 0002:00007870       ??_C@_1M@KJDONENM@?$AAa?$AAr?$AA?9?$AAs?$AAa@ 0000000180029870     libucrt:lcidtoname_downlevel.obj
 0002:00007880       ??_C@_1M@DMJDKLKM@?$AAa?$AAr?$AA?9?$AAs?$AAy@ 0000000180029880     libucrt:lcidtoname_downlevel.obj
 0002:00007890       ??_C@_1M@OMFIPEDC@?$AAa?$AAr?$AA?9?$AAt?$AAn@ 0000000180029890     libucrt:lcidtoname_downlevel.obj
 0002:000078a0       ??_C@_1M@IHMHGAON@?$AAa?$AAr?$AA?9?$AAy?$AAe@ 00000001800298a0     libucrt:lcidtoname_downlevel.obj
 0002:000078b0       ??_C@_1BG@KDCPGJGB@?$AAa?$AAz?$AA?9?$AAa?$AAz?$AA?9?$AAc?$AAy?$AAr?$AAl@ 00000001800298b0     libucrt:lcidtoname_downlevel.obj
 0002:000078c8       ??_C@_1BG@IBCKDDOE@?$AAa?$AAz?$AA?9?$AAa?$AAz?$AA?9?$AAl?$AAa?$AAt?$AAn@ 00000001800298c8     libucrt:lcidtoname_downlevel.obj
 0002:000078e0       ??_C@_1M@EGPFDCPD@?$AAb?$AAe?$AA?9?$AAb?$AAy@ 00000001800298e0     libucrt:lcidtoname_downlevel.obj
 0002:000078f0       ??_C@_1M@PCMGMCGC@?$AAb?$AAg?$AA?9?$AAb?$AAg@ 00000001800298f0     libucrt:lcidtoname_downlevel.obj
 0002:00007900       ??_C@_1M@BJBMFGOB@?$AAb?$AAn?$AA?9?$AAi?$AAn@ 0000000180029900     libucrt:lcidtoname_downlevel.obj
 0002:00007910       ??_C@_1BG@EAKMMACD@?$AAb?$AAs?$AA?9?$AAb?$AAa?$AA?9?$AAl?$AAa?$AAt?$AAn@ 0000000180029910     libucrt:lcidtoname_downlevel.obj
 0002:00007928       ??_C@_1M@KGADAODK@?$AAc?$AAa?$AA?9?$AAe?$AAs@ 0000000180029928     libucrt:lcidtoname_downlevel.obj
 0002:00007938       ??_C@_1M@COAJPDHI@?$AAc?$AAs?$AA?9?$AAc?$AAz@ 0000000180029938     libucrt:lcidtoname_downlevel.obj
 0002:00007948       ??_C@_1M@DHBHFONH@?$AAc?$AAy?$AA?9?$AAg?$AAb@ 0000000180029948     libucrt:lcidtoname_downlevel.obj
 0002:00007958       ??_C@_1M@IMGKELGA@?$AAd?$AAa?$AA?9?$AAd?$AAk@ 0000000180029958     libucrt:lcidtoname_downlevel.obj
 0002:00007968       ??_C@_1M@NNDGDNGA@?$AAd?$AAe?$AA?9?$AAa?$AAt@ 0000000180029968     libucrt:lcidtoname_downlevel.obj
 0002:00007978       ??_C@_1M@IKDBHEEM@?$AAd?$AAe?$AA?9?$AAc?$AAh@ 0000000180029978     libucrt:lcidtoname_downlevel.obj
 0002:00007988       ??_C@_1M@GFFOJMCJ@?$AAd?$AAe?$AA?9?$AAd?$AAe@ 0000000180029988     libucrt:lcidtoname_downlevel.obj
 0002:00007998       ??_C@_1M@MDNLKBPM@?$AAd?$AAe?$AA?9?$AAl?$AAi@ 0000000180029998     libucrt:lcidtoname_downlevel.obj
 0002:000079a8       ??_C@_1M@NJBEEJNL@?$AAd?$AAe?$AA?9?$AAl?$AAu@ 00000001800299a8     libucrt:lcidtoname_downlevel.obj
 0002:000079b8       ??_C@_1O@GNNELBAP@?$AAd?$AAi?$AAv?$AA?9?$AAm?$AAv@ 00000001800299b8     libucrt:lcidtoname_downlevel.obj
 0002:000079c8       ??_C@_1M@EJLEOGAE@?$AAe?$AAl?$AA?9?$AAg?$AAr@ 00000001800299c8     libucrt:lcidtoname_downlevel.obj
 0002:000079d8       ??_C@_1M@GMPONJN@?$AAe?$AAn?$AA?9?$AAa?$AAu@ 00000001800299d8     libucrt:lcidtoname_downlevel.obj
 0002:000079e8       ??_C@_1M@NIDIIPGF@?$AAe?$AAn?$AA?9?$AAb?$AAz@ 00000001800299e8     libucrt:lcidtoname_downlevel.obj
 0002:000079f8       ??_C@_1M@JEHMIMFO@?$AAe?$AAn?$AA?9?$AAc?$AAa@ 00000001800299f8     libucrt:lcidtoname_downlevel.obj
 0002:00007a08       ??_C@_1M@IGMJCDLA@?$AAe?$AAn?$AA?9?$AAc?$AAb@ 0000000180029a08     libucrt:lcidtoname_downlevel.obj
 0002:00007a18       ??_C@_1M@BNFIGBKG@?$AAe?$AAn?$AA?9?$AAg?$AAb@ 0000000180029a18     libucrt:lcidtoname_downlevel.obj
 0002:00007a28       ??_C@_1M@LKIFDIGP@?$AAe?$AAn?$AA?9?$AAi?$AAe@ 0000000180029a28     libucrt:lcidtoname_downlevel.obj
 0002:00007a38       ??_C@_1M@PJKFGCCO@?$AAe?$AAn?$AA?9?$AAj?$AAm@ 0000000180029a38     libucrt:lcidtoname_downlevel.obj
 0002:00007a48       ??_C@_1M@KPPKEPBO@?$AAe?$AAn?$AA?9?$AAn?$AAz@ 0000000180029a48     libucrt:lcidtoname_downlevel.obj
 0002:00007a58       ??_C@_1M@GMDGLDOB@?$AAe?$AAn?$AA?9?$AAp?$AAh@ 0000000180029a58     libucrt:lcidtoname_downlevel.obj
 0002:00007a68       ??_C@_1M@ONGIBJNA@?$AAe?$AAn?$AA?9?$AAt?$AAt@ 0000000180029a68     libucrt:lcidtoname_downlevel.obj
 0002:00007a78       ??_C@_1M@LLODPCMM@?$AAe?$AAn?$AA?9?$AAu?$AAs@ 0000000180029a78     libucrt:lcidtoname_downlevel.obj
 0002:00007a88       ??_C@_1M@LAKFNPAN@?$AAe?$AAn?$AA?9?$AAz?$AAa@ 0000000180029a88     libucrt:lcidtoname_downlevel.obj
 0002:00007a98       ??_C@_1M@MFNHNHEO@?$AAe?$AAn?$AA?9?$AAz?$AAw@ 0000000180029a98     libucrt:lcidtoname_downlevel.obj
 0002:00007aa8       ??_C@_1M@EJEINPHM@?$AAe?$AAs?$AA?9?$AAa?$AAr@ 0000000180029aa8     libucrt:lcidtoname_downlevel.obj
 0002:00007ab8       ??_C@_1M@GNKPCCJA@?$AAe?$AAs?$AA?9?$AAb?$AAo@ 0000000180029ab8     libucrt:lcidtoname_downlevel.obj
 0002:00007ac8       ??_C@_1M@LEEGFONL@?$AAe?$AAs?$AA?9?$AAc?$AAl@ 0000000180029ac8     libucrt:lcidtoname_downlevel.obj
 0002:00007ad8       ??_C@_1M@KGPDPBDF@?$AAe?$AAs?$AA?9?$AAc?$AAo@ 0000000180029ad8     libucrt:lcidtoname_downlevel.obj
 0002:00007ae8       ??_C@_1M@EIAHOHH@?$AAe?$AAs?$AA?9?$AAc?$AAr@ 0000000180029ae8     libucrt:lcidtoname_downlevel.obj
 0002:00007af8       ??_C@_1M@LLPGMBIN@?$AAe?$AAs?$AA?9?$AAd?$AAo@ 0000000180029af8     libucrt:lcidtoname_downlevel.obj
 0002:00007b08       ??_C@_1M@DKHMKNJA@?$AAe?$AAs?$AA?9?$AAe?$AAc@ 0000000180029b08     libucrt:lcidtoname_downlevel.obj
 0002:00007b18       ??_C@_1M@GKGFPKAP@?$AAe?$AAs?$AA?9?$AAe?$AAs@ 0000000180029b18     libucrt:lcidtoname_downlevel.obj
 0002:00007b28       ??_C@_1M@LKHKGDLN@?$AAe?$AAs?$AA?9?$AAg?$AAt@ 0000000180029b28     libucrt:lcidtoname_downlevel.obj
 0002:00007b38       ??_C@_1M@HEIIGGJD@?$AAe?$AAs?$AA?9?$AAh?$AAn@ 0000000180029b38     libucrt:lcidtoname_downlevel.obj
 0002:00007b48       ??_C@_1M@FBDHPPGD@?$AAe?$AAs?$AA?9?$AAm?$AAx@ 0000000180029b48     libucrt:lcidtoname_downlevel.obj
 0002:00007b58       ??_C@_1M@DPAGLNDH@?$AAe?$AAs?$AA?9?$AAn?$AAi@ 0000000180029b58     libucrt:lcidtoname_downlevel.obj
 0002:00007b68       ??_C@_1M@MDGOPGDD@?$AAe?$AAs?$AA?9?$AAp?$AAa@ 0000000180029b68     libucrt:lcidtoname_downlevel.obj
 0002:00007b78       ??_C@_1M@EMAMGBGE@?$AAe?$AAs?$AA?9?$AAp?$AAe@ 0000000180029b78     libucrt:lcidtoname_downlevel.obj
 0002:00007b88       ??_C@_1M@IBMCAOEC@?$AAe?$AAs?$AA?9?$AAp?$AAr@ 0000000180029b88     libucrt:lcidtoname_downlevel.obj
 0002:00007b98       ??_C@_1M@FGMDIJED@?$AAe?$AAs?$AA?9?$AAp?$AAy@ 0000000180029b98     libucrt:lcidtoname_downlevel.obj
 0002:00007ba8       ??_C@_1M@IIDEOLLL@?$AAe?$AAs?$AA?9?$AAs?$AAv@ 0000000180029ba8     libucrt:lcidtoname_downlevel.obj
 0002:00007bb8       ??_C@_1M@GAOBIPA@?$AAe?$AAs?$AA?9?$AAu?$AAy@ 0000000180029bb8     libucrt:lcidtoname_downlevel.obj
 0002:00007bc8       ??_C@_1M@JKFFICHJ@?$AAe?$AAs?$AA?9?$AAv?$AAe@ 0000000180029bc8     libucrt:lcidtoname_downlevel.obj
 0002:00007bd8       ??_C@_1M@PNMLOJDF@?$AAe?$AAt?$AA?9?$AAe?$AAe@ 0000000180029bd8     libucrt:lcidtoname_downlevel.obj
 0002:00007be8       ??_C@_1M@GHHLIKEI@?$AAe?$AAu?$AA?9?$AAe?$AAs@ 0000000180029be8     libucrt:lcidtoname_downlevel.obj
 0002:00007bf8       ??_C@_1M@PBNONODE@?$AAf?$AAa?$AA?9?$AAi?$AAr@ 0000000180029bf8     libucrt:lcidtoname_downlevel.obj
 0002:00007c08       ??_C@_1M@JEEHPMIL@?$AAf?$AAi?$AA?9?$AAf?$AAi@ 0000000180029c08     libucrt:lcidtoname_downlevel.obj
 0002:00007c18       ??_C@_1M@LMDCNDBA@?$AAf?$AAo?$AA?9?$AAf?$AAo@ 0000000180029c18     libucrt:lcidtoname_downlevel.obj
 0002:00007c28       ??_C@_1M@JKEOHLDK@?$AAf?$AAr?$AA?9?$AAb?$AAe@ 0000000180029c28     libucrt:lcidtoname_downlevel.obj
 0002:00007c38       ??_C@_1M@NOHADPMI@?$AAf?$AAr?$AA?9?$AAc?$AAa@ 0000000180029c38     libucrt:lcidtoname_downlevel.obj
 0002:00007c48       ??_C@_1M@KDHIHAEC@?$AAf?$AAr?$AA?9?$AAc?$AAh@ 0000000180029c48     libucrt:lcidtoname_downlevel.obj
 0002:00007c58       ??_C@_1M@MMBBFGAK@?$AAf?$AAr?$AA?9?$AAf?$AAr@ 0000000180029c58     libucrt:lcidtoname_downlevel.obj
 0002:00007c68       ??_C@_1M@PAFNENNF@?$AAf?$AAr?$AA?9?$AAl?$AAu@ 0000000180029c68     libucrt:lcidtoname_downlevel.obj
 0002:00007c78       ??_C@_1M@EOHDJGDD@?$AAf?$AAr?$AA?9?$AAm?$AAc@ 0000000180029c78     libucrt:lcidtoname_downlevel.obj
 0002:00007c88       ??_C@_1M@FAPLLOPF@?$AAg?$AAl?$AA?9?$AAe?$AAs@ 0000000180029c88     libucrt:lcidtoname_downlevel.obj
 0002:00007c98       ??_C@_1M@FOPBFLOO@?$AAg?$AAu?$AA?9?$AAi?$AAn@ 0000000180029c98     libucrt:lcidtoname_downlevel.obj
 0002:00007ca8       ??_C@_1M@KBMCINPM@?$AAh?$AAe?$AA?9?$AAi?$AAl@ 0000000180029ca8     libucrt:lcidtoname_downlevel.obj
 0002:00007cb8       ??_C@_1M@BBPHKFPJ@?$AAh?$AAi?$AA?9?$AAi?$AAn@ 0000000180029cb8     libucrt:lcidtoname_downlevel.obj
 0002:00007cc8       ??_C@_1M@PMBNDPHD@?$AAh?$AAr?$AA?9?$AAb?$AAa@ 0000000180029cc8     libucrt:lcidtoname_downlevel.obj
 0002:00007cd8       ??_C@_1M@BPCKOEGE@?$AAh?$AAr?$AA?9?$AAh?$AAr@ 0000000180029cd8     libucrt:lcidtoname_downlevel.obj
 0002:00007ce8       ??_C@_1M@GACBMHKE@?$AAh?$AAu?$AA?9?$AAh?$AAu@ 0000000180029ce8     libucrt:lcidtoname_downlevel.obj
 0002:00007cf8       ??_C@_1M@MILPAJJC@?$AAh?$AAy?$AA?9?$AAa?$AAm@ 0000000180029cf8     libucrt:lcidtoname_downlevel.obj
 0002:00007d08       ??_C@_1M@BABBICEC@?$AAi?$AAd?$AA?9?$AAi?$AAd@ 0000000180029d08     libucrt:lcidtoname_downlevel.obj
 0002:00007d18       ??_C@_1M@BIKNHHPF@?$AAi?$AAs?$AA?9?$AAi?$AAs@ 0000000180029d18     libucrt:lcidtoname_downlevel.obj
 0002:00007d28       ??_C@_1M@NMPCJPHE@?$AAi?$AAt?$AA?9?$AAc?$AAh@ 0000000180029d28     libucrt:lcidtoname_downlevel.obj
 0002:00007d38       ??_C@_1M@GHKGFEDF@?$AAi?$AAt?$AA?9?$AAi?$AAt@ 0000000180029d38     libucrt:lcidtoname_downlevel.obj
 0002:00007d48       ??_C@_1M@NIEJCJJA@?$AAj?$AAa?$AA?9?$AAj?$AAp@ 0000000180029d48     libucrt:lcidtoname_downlevel.obj
 0002:00007d58       ??_C@_1M@JILFNBIM@?$AAk?$AAa?$AA?9?$AAg?$AAe@ 0000000180029d58     libucrt:lcidtoname_downlevel.obj
 0002:00007d68       ??_C@_1M@PACPMGPH@?$AAk?$AAk?$AA?9?$AAk?$AAz@ 0000000180029d68     libucrt:lcidtoname_downlevel.obj
 0002:00007d78       ??_C@_1M@IELFGMHA@?$AAk?$AAn?$AA?9?$AAi?$AAn@ 0000000180029d78     libucrt:lcidtoname_downlevel.obj
 0002:00007d88       ??_C@_1O@IBBJHCH@?$AAk?$AAo?$AAk?$AA?9?$AAi?$AAn@ 0000000180029d88     libucrt:lcidtoname_downlevel.obj
 0002:00007d98       ??_C@_1M@DMHAEOGC@?$AAk?$AAo?$AA?9?$AAk?$AAr@ 0000000180029d98     libucrt:lcidtoname_downlevel.obj
 0002:00007da8       ??_C@_1M@HBAHBIGA@?$AAk?$AAy?$AA?9?$AAk?$AAg@ 0000000180029da8     libucrt:lcidtoname_downlevel.obj
 0002:00007db8       ??_C@_1M@KPMILCJG@?$AAl?$AAt?$AA?9?$AAl?$AAt@ 0000000180029db8     libucrt:lcidtoname_downlevel.obj
 0002:00007dc8       ??_C@_1M@BDEKKCA@?$AAl?$AAv?$AA?9?$AAl?$AAv@ 0000000180029dc8     libucrt:lcidtoname_downlevel.obj
 0002:00007dd8       ??_C@_1M@ELCKCCJJ@?$AAm?$AAi?$AA?9?$AAn?$AAz@ 0000000180029dd8     libucrt:lcidtoname_downlevel.obj
 0002:00007de8       ??_C@_1M@CBOOLAPA@?$AAm?$AAk?$AA?9?$AAm?$AAk@ 0000000180029de8     libucrt:lcidtoname_downlevel.obj
 0002:00007df8       ??_C@_1M@GPHNBJKN@?$AAm?$AAl?$AA?9?$AAi?$AAn@ 0000000180029df8     libucrt:lcidtoname_downlevel.obj
 0002:00007e08       ??_C@_1M@PABJILIG@?$AAm?$AAn?$AA?9?$AAm?$AAn@ 0000000180029e08     libucrt:lcidtoname_downlevel.obj
 0002:00007e18       ??_C@_1M@FGBKKIPG@?$AAm?$AAr?$AA?9?$AAi?$AAn@ 0000000180029e18     libucrt:lcidtoname_downlevel.obj
 0002:00007e28       ??_C@_1M@NDBPDDAL@?$AAm?$AAs?$AA?9?$AAb?$AAn@ 0000000180029e28     libucrt:lcidtoname_downlevel.obj
 0002:00007e38       ??_C@_1M@OPIHOOPI@?$AAm?$AAs?$AA?9?$AAm?$AAy@ 0000000180029e38     libucrt:lcidtoname_downlevel.obj
 0002:00007e48       ??_C@_1M@PPDBCNFM@?$AAm?$AAt?$AA?9?$AAm?$AAt@ 0000000180029e48     libucrt:lcidtoname_downlevel.obj
 0002:00007e58       ??_C@_1M@KDJDKMDD@?$AAn?$AAb?$AA?9?$AAn?$AAo@ 0000000180029e58     libucrt:lcidtoname_downlevel.obj
 0002:00007e68       ??_C@_1M@KFCFLMJP@?$AAn?$AAl?$AA?9?$AAb?$AAe@ 0000000180029e68     libucrt:lcidtoname_downlevel.obj
 0002:00007e78       ??_C@_1M@KPOPDDGO@?$AAn?$AAl?$AA?9?$AAn?$AAl@ 0000000180029e78     libucrt:lcidtoname_downlevel.obj
 0002:00007e88       ??_C@_1M@LJKPEMLN@?$AAn?$AAn?$AA?9?$AAn?$AAo@ 0000000180029e88     libucrt:lcidtoname_downlevel.obj
 0002:00007e98       ??_C@_1M@BDGHHBFL@?$AAn?$AAs?$AA?9?$AAz?$AAa@ 0000000180029e98     libucrt:lcidtoname_downlevel.obj
 0002:00007ea8       ??_C@_1M@IDEHOAP@?$AAp?$AAa?$AA?9?$AAi?$AAn@ 0000000180029ea8     libucrt:lcidtoname_downlevel.obj
 0002:00007eb8       ??_C@_1M@HDBKGOGH@?$AAp?$AAl?$AA?9?$AAp?$AAl@ 0000000180029eb8     libucrt:lcidtoname_downlevel.obj
 0002:00007ec8       ??_C@_1M@LJLLCMEH@?$AAp?$AAt?$AA?9?$AAb?$AAr@ 0000000180029ec8     libucrt:lcidtoname_downlevel.obj
 0002:00007ed8       ??_C@_1M@NCMONAAL@?$AAp?$AAt?$AA?9?$AAp?$AAt@ 0000000180029ed8     libucrt:lcidtoname_downlevel.obj
 0002:00007ee8       ??_C@_1O@EAKMAJDN@?$AAq?$AAu?$AAz?$AA?9?$AAb?$AAo@ 0000000180029ee8     libucrt:lcidtoname_downlevel.obj
 0002:00007ef8       ??_C@_1O@BHHPIGDN@?$AAq?$AAu?$AAz?$AA?9?$AAe?$AAc@ 0000000180029ef8     libucrt:lcidtoname_downlevel.obj
 0002:00007f08       ??_C@_1O@GBAPEKMJ@?$AAq?$AAu?$AAz?$AA?9?$AAp?$AAe@ 0000000180029f08     libucrt:lcidtoname_downlevel.obj
 0002:00007f18       ??_C@_1M@CLGLEFBO@?$AAr?$AAo?$AA?9?$AAr?$AAo@ 0000000180029f18     libucrt:lcidtoname_downlevel.obj
 0002:00007f28       ??_C@_1M@CEEDODME@?$AAr?$AAu?$AA?9?$AAr?$AAu@ 0000000180029f28     libucrt:lcidtoname_downlevel.obj
 0002:00007f38       ??_C@_1M@HPKKKMPP@?$AAs?$AAa?$AA?9?$AAi?$AAn@ 0000000180029f38     libucrt:lcidtoname_downlevel.obj
 0002:00007f48       ??_C@_1M@BKMAIGOJ@?$AAs?$AAe?$AA?9?$AAf?$AAi@ 0000000180029f48     libucrt:lcidtoname_downlevel.obj
 0002:00007f58       ??_C@_1M@NDPIFLFI@?$AAs?$AAe?$AA?9?$AAn?$AAo@ 0000000180029f58     libucrt:lcidtoname_downlevel.obj
 0002:00007f68       ??_C@_1M@DANKKHJ@?$AAs?$AAe?$AA?9?$AAs?$AAe@ 0000000180029f68     libucrt:lcidtoname_downlevel.obj
 0002:00007f78       ??_C@_1M@PNBLONPJ@?$AAs?$AAk?$AA?9?$AAs?$AAk@ 0000000180029f78     libucrt:lcidtoname_downlevel.obj
 0002:00007f88       ??_C@_1M@LFMODOAL@?$AAs?$AAl?$AA?9?$AAs?$AAi@ 0000000180029f88     libucrt:lcidtoname_downlevel.obj
 0002:00007f98       ??_C@_1O@DFKOMPG@?$AAs?$AAm?$AAa?$AA?9?$AAn?$AAo@ 0000000180029f98     libucrt:lcidtoname_downlevel.obj
 0002:00007fa8       ??_C@_1O@NDKPBNNH@?$AAs?$AAm?$AAa?$AA?9?$AAs?$AAe@ 0000000180029fa8     libucrt:lcidtoname_downlevel.obj
 0002:00007fb8       ??_C@_1O@PLLKBHAB@?$AAs?$AAm?$AAj?$AA?9?$AAn?$AAo@ 0000000180029fb8     libucrt:lcidtoname_downlevel.obj
 0002:00007fc8       ??_C@_1O@CLEPOGCA@?$AAs?$AAm?$AAj?$AA?9?$AAs?$AAe@ 0000000180029fc8     libucrt:lcidtoname_downlevel.obj
 0002:00007fd8       ??_C@_1O@DLGJGKMK@?$AAs?$AAm?$AAn?$AA?9?$AAf?$AAi@ 0000000180029fd8     libucrt:lcidtoname_downlevel.obj
 0002:00007fe8       ??_C@_1O@OJDJGAJC@?$AAs?$AAm?$AAs?$AA?9?$AAf?$AAi@ 0000000180029fe8     libucrt:lcidtoname_downlevel.obj
 0002:00007ff8       ??_C@_1M@BOFOGHPB@?$AAs?$AAq?$AA?9?$AAa?$AAl@ 0000000180029ff8     libucrt:lcidtoname_downlevel.obj
 0002:00008008       ??_C@_1BG@LJBBIPGB@?$AAs?$AAr?$AA?9?$AAb?$AAa?$AA?9?$AAc?$AAy?$AAr?$AAl@ 000000018002a008     libucrt:lcidtoname_downlevel.obj
 0002:00008020       ??_C@_1BG@JLBENFOE@?$AAs?$AAr?$AA?9?$AAb?$AAa?$AA?9?$AAl?$AAa?$AAt?$AAn@ 000000018002a020     libucrt:lcidtoname_downlevel.obj
 0002:00008038       ??_C@_1BG@KODPNHE@?$AAs?$AAr?$AA?9?$AAs?$AAp?$AA?9?$AAc?$AAy?$AAr?$AAl@ 000000018002a038     libucrt:lcidtoname_downlevel.obj
 0002:00008050       ??_C@_1BG@CIOGKHPB@?$AAs?$AAr?$AA?9?$AAs?$AAp?$AA?9?$AAl?$AAa?$AAt?$AAn@ 000000018002a050     libucrt:lcidtoname_downlevel.obj
 0002:00008068       ??_C@_1M@NGFJLMAC@?$AAs?$AAv?$AA?9?$AAf?$AAi@ 000000018002a068     libucrt:lcidtoname_downlevel.obj
 0002:00008078       ??_C@_1M@MPJEJAJC@?$AAs?$AAv?$AA?9?$AAs?$AAe@ 000000018002a078     libucrt:lcidtoname_downlevel.obj
 0002:00008088       ??_C@_1M@MPNDHLFK@?$AAs?$AAw?$AA?9?$AAk?$AAe@ 000000018002a088     libucrt:lcidtoname_downlevel.obj
 0002:00008098       ??_C@_1O@KOHBJJI@?$AAs?$AAy?$AAr?$AA?9?$AAs?$AAy@ 000000018002a098     libucrt:lcidtoname_downlevel.obj
 0002:000080a8       ??_C@_1M@LDCEFHA@?$AAt?$AAa?$AA?9?$AAi?$AAn@ 000000018002a0a8     libucrt:lcidtoname_downlevel.obj
 0002:000080b8       ??_C@_1M@CNJOFAK@?$AAt?$AAe?$AA?9?$AAi?$AAn@ 000000018002a0b8     libucrt:lcidtoname_downlevel.obj
 0002:000080c8       ??_C@_1M@GNAECACD@?$AAt?$AAh?$AA?9?$AAt?$AAh@ 000000018002a0c8     libucrt:lcidtoname_downlevel.obj
 0002:000080d8       ??_C@_1M@CHBIHOJO@?$AAt?$AAn?$AA?9?$AAz?$AAa@ 000000018002a0d8     libucrt:lcidtoname_downlevel.obj
 0002:000080e8       ??_C@_1M@GCCMIGPJ@?$AAt?$AAr?$AA?9?$AAt?$AAr@ 000000018002a0e8     libucrt:lcidtoname_downlevel.obj
 0002:000080f8       ??_C@_1M@CELMCNBK@?$AAt?$AAt?$AA?9?$AAr?$AAu@ 000000018002a0f8     libucrt:lcidtoname_downlevel.obj
 0002:00008108       ??_C@_1M@KLMCELGA@?$AAu?$AAk?$AA?9?$AAu?$AAa@ 000000018002a108     libucrt:lcidtoname_downlevel.obj
 0002:00008118       ??_C@_1M@EPAJJAJF@?$AAu?$AAr?$AA?9?$AAp?$AAk@ 000000018002a118     libucrt:lcidtoname_downlevel.obj
 0002:00008128       ??_C@_1BG@GEGPMCDJ@?$AAu?$AAz?$AA?9?$AAu?$AAz?$AA?9?$AAc?$AAy?$AAr?$AAl@ 000000018002a128     libucrt:lcidtoname_downlevel.obj
 0002:00008140       ??_C@_1BG@EGGKJILM@?$AAu?$AAz?$AA?9?$AAu?$AAz?$AA?9?$AAl?$AAa?$AAt?$AAn@ 000000018002a140     libucrt:lcidtoname_downlevel.obj
 0002:00008158       ??_C@_1M@GFOCLFF@?$AAv?$AAi?$AA?9?$AAv?$AAn@ 000000018002a158     libucrt:lcidtoname_downlevel.obj
 0002:00008168       ??_C@_1M@CPAMEDFI@?$AAx?$AAh?$AA?9?$AAz?$AAa@ 000000018002a168     libucrt:lcidtoname_downlevel.obj
 0002:00008178       ??_C@_1O@EBKIFIGN@?$AAz?$AAh?$AA?9?$AAc?$AAh?$AAs@ 000000018002a178     libucrt:lcidtoname_downlevel.obj
 0002:00008188       ??_C@_1O@NMHPGANE@?$AAz?$AAh?$AA?9?$AAc?$AAh?$AAt@ 000000018002a188     libucrt:lcidtoname_downlevel.obj
 0002:00008198       ??_C@_1M@LPINJOMC@?$AAz?$AAh?$AA?9?$AAc?$AAn@ 000000018002a198     libucrt:lcidtoname_downlevel.obj
 0002:000081a8       ??_C@_1M@OCJEJODD@?$AAz?$AAh?$AA?9?$AAh?$AAk@ 000000018002a1a8     libucrt:lcidtoname_downlevel.obj
 0002:000081b8       ??_C@_1M@DNDLJINH@?$AAz?$AAh?$AA?9?$AAm?$AAo@ 000000018002a1b8     libucrt:lcidtoname_downlevel.obj
 0002:000081c8       ??_C@_1M@MBFDNDND@?$AAz?$AAh?$AA?9?$AAs?$AAg@ 000000018002a1c8     libucrt:lcidtoname_downlevel.obj
 0002:000081d8       ??_C@_1M@IMEPLEPE@?$AAz?$AAh?$AA?9?$AAt?$AAw@ 000000018002a1d8     libucrt:lcidtoname_downlevel.obj
 0002:000081e8       ??_C@_1M@BBGHNHJP@?$AAz?$AAu?$AA?9?$AAz?$AAa@ 000000018002a1e8     libucrt:lcidtoname_downlevel.obj
 0002:00008200       ?large_power_data@?1??multiply_by_power_of_ten@__crt_strtox@@YA_NAEAUbig_integer@2@I@Z@4QBIB 000000018002a200     libucrt:cfout.obj
 0002:00008ba8       ?small_powers_of_ten@?1??multiply_by_power_of_ten@__crt_strtox@@YA_NAEAUbig_integer@2@I@Z@4QBIB 000000018002aba8     libucrt:cfout.obj
 0002:00008bcc       ??_C@_01GBGANLPD@0@        000000018002abcc     libucrt:cfout.obj
 0002:00008bd0       ??_C@_05DNEBIAHO@1?$CDINF@ 000000018002abd0     libucrt:cfout.obj
 0002:00008bd8       ??_C@_06IMKFLFPG@1?$CDQNAN@ 000000018002abd8     libucrt:cfout.obj
 0002:00008be0       ??_C@_06PGGFOGJG@1?$CDSNAN@ 000000018002abe0     libucrt:cfout.obj
 0002:00008be8       ??_C@_05PHHOCPM@1?$CDIND@  000000018002abe8     libucrt:cfout.obj
 0002:00008bf0       __real@3ff0000000000000    000000018002abf0     libucrt:ceil.obj
 0002:00008e50       __log10_256_lead           000000018002ae50     libucrt:log10_256_lead_tail_table.obj
 0002:00009660       __log10_256_tail           000000018002b660     libucrt:log10_256_lead_tail_table.obj
 0002:00009e70       __log_F_inv_qword          000000018002be70     libucrt:log_f_inv_qword_table.obj
 0002:0000a680       ??_C@_05HGHHAHAP@log10@    000000018002c680     libucrt:log_special.obj
 0002:0000a688       ??_C@_1BA@BALFACEM@?$AAC?$AAO?$AAN?$AAO?$AAU?$AAT?$AA$@ 000000018002c688     libucrt:initcon.obj
 0002:0000a710       _load_config_used          000000018002c710     LIBCMT:loadcfg.obj
 0002:0000a818       _tls_used                  000000018002c818     LIBCMT:tlssup.obj
 0002:0000a840       ??_R4exception@std@@6B@    000000018002c840     LIBCMT:throw_bad_alloc.obj
 0002:0000a868       ??_R3exception@std@@8      000000018002c868     LIBCMT:throw_bad_alloc.obj
 0002:0000a880       ??_R2exception@std@@8      000000018002c880     LIBCMT:throw_bad_alloc.obj
 0002:0000a890       ??_R1A@?0A@EA@exception@std@@8 000000018002c890     LIBCMT:throw_bad_alloc.obj
 0002:0000a8b8       ??_R4bad_alloc@std@@6B@    000000018002c8b8     LIBCMT:throw_bad_alloc.obj
 0002:0000a8e0       ??_R3bad_alloc@std@@8      000000018002c8e0     LIBCMT:throw_bad_alloc.obj
 0002:0000a8f8       ??_R2bad_alloc@std@@8      000000018002c8f8     LIBCMT:throw_bad_alloc.obj
 0002:0000a910       ??_R1A@?0A@EA@bad_alloc@std@@8 000000018002c910     LIBCMT:throw_bad_alloc.obj
 0002:0000a938       ??_R4bad_array_new_length@std@@6B@ 000000018002c938     LIBCMT:throw_bad_alloc.obj
 0002:0000a960       ??_R3bad_array_new_length@std@@8 000000018002c960     LIBCMT:throw_bad_alloc.obj
 0002:0000a978       ??_R2bad_array_new_length@std@@8 000000018002c978     LIBCMT:throw_bad_alloc.obj
 0002:0000a998       ??_R1A@?0A@EA@bad_array_new_length@std@@8 000000018002c998     LIBCMT:throw_bad_alloc.obj
 0002:0000a9c0       ??_R4type_info@@6B@        000000018002c9c0     LIBCMT:std_type_info_static.obj
 0002:0000a9e8       ??_R3type_info@@8          000000018002c9e8     LIBCMT:std_type_info_static.obj
 0002:0000aa00       ??_R2type_info@@8          000000018002ca00     LIBCMT:std_type_info_static.obj
 0002:0000aa10       ??_R1A@?0A@EA@type_info@@8 000000018002ca10     LIBCMT:std_type_info_static.obj
 0002:0000aa38       ??_R4bad_exception@std@@6B@ 000000018002ca38     libvcruntime:frame.obj
 0002:0000aa60       ??_R3bad_exception@std@@8  000000018002ca60     libvcruntime:frame.obj
 0002:0000aa78       ??_R2bad_exception@std@@8  000000018002ca78     libvcruntime:frame.obj
 0002:0000aa90       ??_R1A@?0A@EA@bad_exception@std@@8 000000018002ca90     libvcruntime:frame.obj
 0002:0000aec0       __rtc_iaa                  000000018002cec0     LIBCMT:initsect.obj
 0002:0000aec8       __rtc_izz                  000000018002cec8     LIBCMT:initsect.obj
 0002:0000aed0       __rtc_taa                  000000018002ced0     LIBCMT:initsect.obj
 0002:0000aed8       __rtc_tzz                  000000018002ced8     LIBCMT:initsect.obj
 0002:0000aee0       _tls_start                 000000018002cee0     LIBCMT:tlssup.obj
 0002:0000aee4       _Init_thread_epoch         000000018002cee4     LIBCMT:thread_safe_statics.obj
 0002:0000aee8       _tls_end                   000000018002cee8     LIBCMT:tlssup.obj
 0002:0000c508       _TI2?AVbad_alloc@std@@     000000018002e508     LIBCMT:throw_bad_alloc.obj
 0002:0000c528       _CTA2?AVbad_alloc@std@@    000000018002e528     LIBCMT:throw_bad_alloc.obj
 0002:0000c540       _CT??_R0?AVbad_alloc@std@@@8??0bad_alloc@std@@QEAA@AEBV01@@Z24 000000018002e540     LIBCMT:throw_bad_alloc.obj
 0002:0000c568       _CT??_R0?AVexception@std@@@8??0exception@std@@QEAA@AEBV01@@Z24 000000018002e568     LIBCMT:throw_bad_alloc.obj
 0002:0000c590       _TI3?AVbad_array_new_length@std@@ 000000018002e590     LIBCMT:throw_bad_alloc.obj
 0002:0000c5b0       _CTA3?AVbad_array_new_length@std@@ 000000018002e5b0     LIBCMT:throw_bad_alloc.obj
 0002:0000c5d0       _CT??_R0?AVbad_array_new_length@std@@@8??0bad_array_new_length@std@@QEAA@AEBV01@@Z24 000000018002e5d0     LIBCMT:throw_bad_alloc.obj
 0002:0000c5f8       _TI2?AVbad_exception@std@@ 000000018002e5f8     libvcruntime:frame.obj
 0002:0000c618       _CTA2?AVbad_exception@std@@ 000000018002e618     libvcruntime:frame.obj
 0002:0000c630       _CT??_R0?AVbad_exception@std@@@8??0bad_exception@std@@QEAA@AEBV01@@Z24 000000018002e630     libvcruntime:frame.obj
 0002:0000c658       __pobjMapEntryFirst        000000018002e658     OposVariant.obj
 0002:0000c660       __pobjMapEntryLast         000000018002e660     OposVariant.obj
 0002:0000c720       __IMPORT_DESCRIPTOR_KERNEL32 000000018002e720     kernel32:KERNEL32.dll
 0002:0000c734       __IMPORT_DESCRIPTOR_USER32 000000018002e734     user32:USER32.dll
 0002:0000c748       __IMPORT_DESCRIPTOR_GDI32  000000018002e748     gdi32:GDI32.dll
 0002:0000c75c       __IMPORT_DESCRIPTOR_ADVAPI32 000000018002e75c     advapi32:ADVAPI32.dll
 0002:0000c770       __IMPORT_DESCRIPTOR_ole32  000000018002e770     ole32:ole32.dll
 0002:0000c784       __IMPORT_DESCRIPTOR_OLEAUT32 000000018002e784     oleaut32:OLEAUT32.dll
 0002:0000c798       __NULL_IMPORT_DESCRIPTOR   000000018002e798     kernel32:KERNEL32.dll
 0003:00000000       ?wc@?1??GetWndClassInfo@?$CWindowImpl@VCOPOSImageScanner@@VCWindow@ATL@@V?$CWinTraits@$0FGAAAAAA@$0A@@3@@ATL@@SAAEAU_ATL_WNDCLASSINFOW@3@XZ@4U43@A 0000000180030000     ImageScanner.obj
 0003:000000f8       ?rcDefault@CWindow@ATL@@2UtagRECT@@A 00000001800300f8     ImageScanner.obj
 0003:00000108       ?_tih@?$IDispatchImpl@UIOPOSImageScanner@@$1?IID_IOPOSImageScanner@@3U_GUID@@B$1?LIBID_OposImageScanner_CCO@@3U3@B$00$0A@VCComTypeInfoHolder@ATL@@@ATL@@1VCComTypeInfoHolder@2@A 0000000180030108     ImageScanner.obj
 0003:00000140       ?_tih@?$IProvideClassInfo2Impl@$1?CLSID_OPOSImageScanner@@3U_GUID@@B$1?DIID__IOPOSImageScannerEvents@@3U2@B$1?LIBID_OposImageScanner_CCO@@3U2@B$00$0A@VCComTypeInfoHolder@ATL@@@ATL@@1VCComTypeInfoHolder@2@A 0000000180030140     ImageScanner.obj
 0003:00000178       ?vszContents@?6??Save@?$IPersistStorageImpl@VCOPOSImageScanner@@@ATL@@UEAAJPEAUIStorage@@H@Z@4PEB_WEB 0000000180030178     ImageScanner.obj
 0003:00000180       ?s_Claim@?7??GetIDsOfNames@CComTypeInfoHolder@ATL@@QEAAJAEBU_GUID@@PEAPEA_WIKPEAJ@Z@4PA_WA 0000000180030180     ImageScanner.obj
 0003:00000198       ?s_Release@?7??GetIDsOfNames@CComTypeInfoHolder@ATL@@QEAAJAEBU_GUID@@PEAPEA_WIKPEAJ@Z@4PA_WA 0000000180030198     ImageScanner.obj
 0003:00000250       ?g_WindowName@@3PA_WA      0000000180030250     ImageScannerImpl.obj
 0003:00000278       ?g_ControlDescription@@3PADA 0000000180030278     ImageScannerImpl.obj
 0003:000002b0       ?g_ControlVersion@@3JA     00000001800302b0     ImageScannerImpl.obj
 0003:00000368       __scrt_native_dllmain_reason 0000000180030368     LIBCMT:utility.obj
 0003:0000036c       _Init_global_epoch         000000018003036c     LIBCMT:thread_safe_statics.obj
 0003:00000370       __security_cookie_complement 0000000180030370     LIBCMT:gs_cookie.obj
 0003:00000378       __security_cookie          0000000180030378     LIBCMT:gs_cookie.obj
 0003:00000380       __isa_available            0000000180030380     LIBCMT:cpu_disp.obj
 0003:00000384       __isa_enabled              0000000180030384     LIBCMT:cpu_disp.obj
 0003:00000388       __memcpy_nt_iters          0000000180030388     LIBCMT:cpu_disp.obj
 0003:00000390       __memset_nt_iters          0000000180030390     LIBCMT:cpu_disp.obj
 0003:000003b8       __abort_behavior           00000001800303b8     libucrt:abort.obj
 0003:000003d0       _iob                       00000001800303d0     libucrt:_file.obj
 0003:000004e0       __acrt_initial_locale_data 00000001800304e0     libucrt:nlsdata.obj
 0003:00000638       __acrt_initial_locale_pointers 0000000180030638     libucrt:nlsdata.obj
 0003:00000648       __acrt_wide_c_locale_string 0000000180030648     libucrt:nlsdata.obj
 0003:00000650       __acrt_initial_multibyte_data 0000000180030650     libucrt:mbctype.obj
 0003:00000b90       _pwctype                   0000000180030b90     libucrt:ctype.obj
 0003:00000b98       __globallocalestatus       0000000180030b98     libucrt:glstatus.obj
 0003:00000ba0       __acrt_lconv_c             0000000180030ba0     libucrt:localeconv.obj
 0003:00000c38       __acrt_lconv_static_decimal 0000000180030c38     libucrt:localeconv.obj
 0003:00000c3c       __acrt_lconv_static_W_decimal 0000000180030c3c     libucrt:localeconv.obj
 0003:00000c40       _lookuptrailbytes          0000000180030c40     libucrt:read.obj
 0003:00000d54       _fltused                   0000000180030d54     LIBCMT:fltused.obj
 0003:00000d58       ??_R0?AVbad_alloc@std@@@8  0000000180030d58     LIBCMT:throw_bad_alloc.obj
 0003:00000d80       ??_R0?AVexception@std@@@8  0000000180030d80     LIBCMT:throw_bad_alloc.obj
 0003:00000da8       ??_R0?AVbad_array_new_length@std@@@8 0000000180030da8     LIBCMT:throw_bad_alloc.obj
 0003:00000dd8       ??_R0?AVtype_info@@@8      0000000180030dd8     LIBCMT:std_type_info_static.obj
 0003:00000df8       ??_R0?AVbad_exception@std@@@8 0000000180030df8     libvcruntime:frame.obj
 0003:00000e20       ?_pPerfRegFunc@ATL@@3P6AJPEAUHINSTANCE__@@@ZEA 0000000180030e20     OposVariant.obj
 0003:00000e28       ?_pPerfUnRegFunc@ATL@@3P6AJXZEA 0000000180030e28     OposVariant.obj
 0003:00000e30       ?_AtlRegisterPerUser@ATL@@3_NA 0000000180030e30     OposVariant.obj
 0003:00000e38       ?_pAtlModule@ATL@@3PEAVCAtlModule@1@EA 0000000180030e38     OposVariant.obj
 0003:00000e40       ?_pModule@ATL@@3PEAVCComModule@1@EA 0000000180030e40     OposVariant.obj
 0003:00000e48       ?m_bInitFailed@CAtlBaseModule@ATL@@2_NA 0000000180030e48     OposVariant.obj
 0003:00000e50       ?_AtlComModule@ATL@@3VCAtlComModule@1@A 0000000180030e50     OposVariant.obj
 0003:00000ea0       ?_AtlWinModule@ATL@@3VCAtlWinModule@1@A 0000000180030ea0     OposVariant.obj
 0003:00000ee8       ?m_libid@CAtlModule@ATL@@2U_GUID@@A 0000000180030ee8     ImageScanner.obj
 0003:00000ef8       ?_OptionsStorage@?1??__local_stdio_printf_options@@9@4_KA 0000000180030ef8     ImageScanner.obj
 0003:00000f00       ?_entries@?1??GetConnMap@COPOSImageScanner@@SAPEBU_ATL_CONNMAP_ENTRY@ATL@@PEAH@Z@4QBU34@B 0000000180030f00     ImageScanner.obj
 0003:00000f18       ?$TSS0@?1??GetConnMap@COPOSImageScanner@@SAPEBU_ATL_CONNMAP_ENTRY@ATL@@PEAH@Z@4HA 0000000180030f18     ImageScanner.obj
 0003:00000f20       ?pfnRegDeleteKeyEx@?1??DeleteSubKey@CRegKey@ATL@@QEAAJPEB_W@Z@4P6AJPEAUHKEY__@@0KK@ZEA 0000000180030f20     ImageScanner.obj
 0003:00000f28       ?bInitialized@?1??DeleteSubKey@CRegKey@ATL@@QEAAJPEB_W@Z@4_NA 0000000180030f28     ImageScanner.obj
 0003:00000f30       ?_Module@@3VCComModule@ATL@@A 0000000180030f30     ImageScanner.obj
 0003:00000f80       ?pConnMap@?$IConnectionPointContainerImpl@VCOPOSImageScanner@@@ATL@@0PEBU_ATL_CONNMAP_ENTRY@2@EB 0000000180030f80     ImageScanner.obj
 0003:00000f88       ?s_nInstances@COPOSImageScanner@@1HA 0000000180030f88     ImageScannerImpl.obj
 0003:00000f90       __scrt_current_native_startup_state 0000000180030f90     LIBCMT:utility.obj
 0003:00000f98       __scrt_native_startup_lock 0000000180030f98     LIBCMT:utility.obj
 0003:00001590       _tls_index                 0000000180031590     LIBCMT:tlssup.obj
 0003:00001598       __favor                    0000000180031598     LIBCMT:cpu_disp.obj
 0003:0000159c       __scrt_debugger_hook_flag  000000018003159c     LIBCMT:utility_desktop.obj
 0003:000015a0       ?__type_info_root_node@@3U__type_info_node@@A 00000001800315a0     LIBCMT:tncleanup.obj
 0003:000015b0       ?_OptionsStorage@?1??__local_stdio_scanf_options@@9@4_KA 00000001800315b0     LIBCMT:default_local_stdio_options.obj
 0003:000015c0       ?_AtlBaseModule@ATL@@3VCAtlBaseModule@1@A 00000001800315c0     atls:atlbase.obj
 0003:00001620       ?__AtlThunkPool@@3PEAT_SLIST_HEADER@@EA 0000000180031620     atls:atlthunk.obj
 0003:0000164c       __@@_PchSym_@00@UztvmgUPdlipUDUhUrmgvinvwrzgvUexgllohUzgohOmzgrevkilqPBACIAJCBDBUlyqiUznwGEUhgwzucOlyq@4B2008FD98C1DD4 000000018003164c     atls:stdafx.obj
 0003:00001650       __pPurecall                0000000180031650     libvcruntime:purevirt_data.obj
 0003:00001710       ?__WinRTOutOfMemoryExceptionCallback@@3P6APEAXXZEA 0000000180031710     libvcruntime:ehhelpers.obj
 0003:00001718       ?pArgList@UnDecorator@@0PEAVReplicator@@EA 0000000180031718     libvcruntime:undname.obj
 0003:00001720       ?pZNameList@UnDecorator@@0PEAVReplicator@@EA 0000000180031720     libvcruntime:undname.obj
 0003:00001728       ?pTemplateArgList@UnDecorator@@0PEAVReplicator@@EA 0000000180031728     libvcruntime:undname.obj
 0003:00001730       ?gName@UnDecorator@@0PEBDEB 0000000180031730     libvcruntime:undname.obj
 0003:00001738       ?name@UnDecorator@@0PEBDEB 0000000180031738     libvcruntime:undname.obj
 0003:00001740       ?disableFlags@UnDecorator@@0KA 0000000180031740     libvcruntime:undname.obj
 0003:00001744       ?fExplicitTemplateParams@UnDecorator@@0_NA 0000000180031744     libvcruntime:undname.obj
 0003:00001745       ?fGetTemplateArgumentList@UnDecorator@@0_NA 0000000180031745     libvcruntime:undname.obj
 0003:00001748       ?m_pGetParameter@UnDecorator@@0P6APEADJ@ZEA 0000000180031748     libvcruntime:undname.obj
 0003:00001750       ?m_CHPENameOffset@UnDecorator@@0KA 0000000180031750     libvcruntime:undname.obj
 0003:00001754       ?m_recursionLevel@UnDecorator@@0KA 0000000180031754     libvcruntime:undname.obj
 0003:000017d8       ?c_exit_complete@?1???R<lambda_6e4b09c48022b2350581041d5f6b0c4c>@@QEBA@XZ@4_NA 00000001800317d8     libucrt:exit.obj
 0003:000018e8       _environ_table             00000001800318e8     libucrt:environment_initialization.obj
 0003:000018f0       _wenviron_table            00000001800318f0     libucrt:environment_initialization.obj
 0003:000018f8       __dcrt_initial_wide_environment 00000001800318f8     libucrt:environment_initialization.obj
 0003:00001900       __dcrt_initial_narrow_environment 0000000180031900     libucrt:environment_initialization.obj
 0003:00001908       __acrt_atexit_table        0000000180031908     libucrt:onexit.obj
 0003:00001920       __acrt_at_quick_exit_table 0000000180031920     libucrt:onexit.obj
 0003:00001af8       _nstream                   0000000180031af8     libucrt:_file.obj
 0003:00001b00       __piob                     0000000180031b00     libucrt:_file.obj
 0003:00001b10       __acrt_stdout_buffer       0000000180031b10     libucrt:_sftbuf.obj
 0003:00001b18       __acrt_stderr_buffer       0000000180031b18     libucrt:_sftbuf.obj
 0003:00001b20       __acrt_locale_changed_data 0000000180031b20     libucrt:wsetlocale.obj
 0003:00001b28       __acrt_current_locale_data 0000000180031b28     libucrt:nlsdata.obj
 0003:00001b30       __pioinfo                  0000000180031b30     libucrt:ioinit.obj
 0003:00001f30       _nhandle                   0000000180031f30     libucrt:ioinit.obj
 0003:00002178       _mbctype                   0000000180032178     libucrt:mbctype.obj
 0003:00002180       _mbcasemap                 0000000180032180     libucrt:mbctype.obj
 0003:00002188       __acrt_current_multibyte_data 0000000180032188     libucrt:mbctype.obj
 0003:00002198       _pgmptr                    0000000180032198     libucrt:argv_data.obj
 0003:000021a0       __argc                     00000001800321a0     libucrt:argv_data.obj
 0003:000021a8       __argv                     00000001800321a8     libucrt:argv_data.obj
 0003:000021b0       __wargv                    00000001800321b0     libucrt:argv_data.obj
 0003:000021b8       _acmdln                    00000001800321b8     libucrt:argv_data.obj
 0003:000021c0       _wcmdln                    00000001800321c0     libucrt:argv_data.obj
 0003:000021c8       __acrt_heap                00000001800321c8     libucrt:heap_handle.obj
 0003:000021fc       __acrt_lconv_static_null   00000001800321fc     libucrt:localeconv.obj
 0003:00002200       __acrt_lconv_static_W_null 0000000180032200     libucrt:localeconv.obj
 0003:00002214       __fma3_is_available        0000000180032214     libucrt:fma3_available.obj
 0003:00002218       __use_fma3_lib             0000000180032218     libucrt:fma3_available.obj
 0003:00002220       __dyn_tls_init_callback    0000000180032220     <common>
 0003:00002228       __scrt_ucrt_dll_is_in_use  0000000180032228     <common>

 entry point at        0001:0000ecd4

 Static symbols

 0000:fffc4000       .debug$S                   0000000180000000     kernel32:KERNEL32.dll
 0000:fffc4000       .debug$S                   0000000180000000     ole32:ole32.dll
 0000:fffc4000       .debug$S                   0000000180000000     ole32:ole32.dll
 0000:fffc4000       .debug$S                   0000000180000000     ole32:ole32.dll
 0000:fffc4000       .debug$S                   0000000180000000     ole32:ole32.dll
 0000:fffc4000       .debug$S                   0000000180000000     ole32:ole32.dll
 0000:fffc4000       .debug$S                   0000000180000000     user32:USER32.dll
 0000:fffc4000       .debug$S                   0000000180000000     user32:USER32.dll
 0000:fffc4000       .debug$S                   0000000180000000     user32:USER32.dll
 0000:fffc4000       .debug$S                   0000000180000000     user32:USER32.dll
 0000:fffc4000       .debug$S                   0000000180000000     user32:USER32.dll
 0000:fffc4000       .debug$S                   0000000180000000     user32:USER32.dll
 0000:fffc4000       .debug$S                   0000000180000000     user32:USER32.dll
 0000:fffc4000       .debug$S                   0000000180000000     user32:USER32.dll
 0000:fffc4000       .debug$S                   0000000180000000     ole32:ole32.dll
 0000:fffc4000       .debug$S                   0000000180000000     OPOSImageScanner.exp
 0000:fffc4000       .debug$S                   0000000180000000     ole32:ole32.dll
 0000:fffc4000       .debug$S                   0000000180000000     kernel32:KERNEL32.dll
 0000:fffc4000       .debug$S                   0000000180000000     user32:USER32.dll
 0000:fffc4000       .debug$S                   0000000180000000     user32:USER32.dll
 0000:fffc4000       .debug$S                   0000000180000000     user32:USER32.dll
 0000:fffc4000       .debug$S                   0000000180000000     ole32:ole32.dll
 0000:fffc4000       .debug$S                   0000000180000000     user32:USER32.dll
 0000:fffc4000       .debug$S                   0000000180000000     kernel32:KERNEL32.dll
 0000:fffc4000       .debug$S                   0000000180000000     kernel32:KERNEL32.dll
 0000:fffc4000       .debug$S                   0000000180000000     kernel32:KERNEL32.dll
 0000:fffc4000       .debug$S                   0000000180000000     kernel32:KERNEL32.dll
 0000:fffc4000       .debug$S                   0000000180000000     kernel32:KERNEL32.dll
 0000:fffc4000       .debug$S                   0000000180000000     kernel32:KERNEL32.dll
 0000:fffc4000       .debug$S                   0000000180000000     kernel32:KERNEL32.dll
 0000:fffc4000       .debug$S                   0000000180000000     kernel32:KERNEL32.dll
 0000:fffc4000       .debug$S                   0000000180000000     kernel32:KERNEL32.dll
 0000:fffc4000       .debug$S                   0000000180000000     kernel32:KERNEL32.dll
 0000:fffc4000       .debug$S                   0000000180000000     kernel32:KERNEL32.dll
 0000:fffc4000       .debug$S                   0000000180000000     kernel32:KERNEL32.dll
 0000:fffc4000       .debug$S                   0000000180000000     kernel32:KERNEL32.dll
 0000:fffc4000       .debug$S                   0000000180000000     kernel32:KERNEL32.dll
 0000:fffc4000       .debug$S                   0000000180000000     kernel32:KERNEL32.dll
 0000:fffc4000       .debug$S                   0000000180000000     kernel32:KERNEL32.dll
 0000:fffc4000       .debug$S                   0000000180000000     kernel32:KERNEL32.dll
 0000:fffc4000       .debug$S                   0000000180000000     kernel32:KERNEL32.dll
 0000:fffc4000       .debug$S                   0000000180000000     kernel32:KERNEL32.dll
 0000:fffc4000       .debug$S                   0000000180000000     kernel32:KERNEL32.dll
 0000:fffc4000       .debug$S                   0000000180000000     kernel32:KERNEL32.dll
 0000:fffc4000       .debug$S                   0000000180000000     kernel32:KERNEL32.dll
 0000:fffc4000       .debug$S                   0000000180000000     kernel32:KERNEL32.dll
 0000:fffc4000       .debug$S                   0000000180000000     kernel32:KERNEL32.dll
 0000:fffc4000       .debug$S                   0000000180000000     kernel32:KERNEL32.dll
 0000:fffc4000       .debug$S                   0000000180000000     kernel32:KERNEL32.dll
 0000:fffc4000       .debug$S                   0000000180000000     kernel32:KERNEL32.dll
 0000:fffc4000       .debug$S                   0000000180000000     kernel32:KERNEL32.dll
 0000:fffc4000       .debug$S                   0000000180000000     kernel32:KERNEL32.dll
 0000:fffc4000       .debug$S                   0000000180000000     kernel32:KERNEL32.dll
 0000:fffc4000       .debug$S                   0000000180000000     kernel32:KERNEL32.dll
 0000:fffc4000       .debug$S                   0000000180000000     kernel32:KERNEL32.dll
 0000:fffc4000       .debug$S                   0000000180000000     kernel32:KERNEL32.dll
 0000:fffc4000       .debug$S                   0000000180000000     kernel32:KERNEL32.dll
 0000:fffc4000       .debug$S                   0000000180000000     kernel32:KERNEL32.dll
 0000:fffc4000       .debug$S                   0000000180000000     kernel32:KERNEL32.dll
 0000:fffc4000       .debug$S                   0000000180000000     kernel32:KERNEL32.dll
 0000:fffc4000       .debug$S                   0000000180000000     kernel32:KERNEL32.dll
 0000:fffc4000       .debug$S                   0000000180000000     kernel32:KERNEL32.dll
 0000:fffc4000       .debug$S                   0000000180000000     kernel32:KERNEL32.dll
 0000:fffc4000       .debug$S                   0000000180000000     kernel32:KERNEL32.dll
 0000:fffc4000       .debug$S                   0000000180000000     kernel32:KERNEL32.dll
 0000:fffc4000       .debug$S                   0000000180000000     kernel32:KERNEL32.dll
 0000:fffc4000       .debug$S                   0000000180000000     kernel32:KERNEL32.dll
 0000:fffc4000       .debug$S                   0000000180000000     kernel32:KERNEL32.dll
 0000:fffc4000       .debug$S                   0000000180000000     oleaut32:OLEAUT32.dll
 0000:fffc4000       .debug$S                   0000000180000000     kernel32:KERNEL32.dll
 0000:fffc4000       .debug$S                   0000000180000000     kernel32:KERNEL32.dll
 0000:fffc4000       .debug$S                   0000000180000000     kernel32:KERNEL32.dll
 0000:fffc4000       .debug$S                   0000000180000000     kernel32:KERNEL32.dll
 0000:fffc4000       .debug$S                   0000000180000000     kernel32:KERNEL32.dll
 0000:fffc4000       .debug$S                   0000000180000000     kernel32:KERNEL32.dll
 0000:fffc4000       .debug$S                   0000000180000000     kernel32:KERNEL32.dll
 0000:fffc4000       .debug$S                   0000000180000000     kernel32:KERNEL32.dll
 0000:fffc4000       .debug$S                   0000000180000000     kernel32:KERNEL32.dll
 0000:fffc4000       .debug$S                   0000000180000000     kernel32:KERNEL32.dll
 0000:fffc4000       .debug$S                   0000000180000000     kernel32:KERNEL32.dll
 0000:fffc4000       .debug$S                   0000000180000000     kernel32:KERNEL32.dll
 0000:fffc4000       .debug$S                   0000000180000000     kernel32:KERNEL32.dll
 0000:fffc4000       .debug$S                   0000000180000000     kernel32:KERNEL32.dll
 0000:fffc4000       .debug$S                   0000000180000000     kernel32:KERNEL32.dll
 0000:fffc4000       .debug$S                   0000000180000000     kernel32:KERNEL32.dll
 0000:fffc4000       .debug$S                   0000000180000000     kernel32:KERNEL32.dll
 0000:fffc4000       .debug$S                   0000000180000000     kernel32:KERNEL32.dll
 0000:fffc4000       .debug$S                   0000000180000000     kernel32:KERNEL32.dll
 0000:fffc4000       .debug$S                   0000000180000000     kernel32:KERNEL32.dll
 0000:fffc4000       .debug$S                   0000000180000000     kernel32:KERNEL32.dll
 0000:fffc4000       .debug$S                   0000000180000000     kernel32:KERNEL32.dll
 0000:fffc4000       .debug$S                   0000000180000000     kernel32:KERNEL32.dll
 0000:fffc4000       .debug$S                   0000000180000000     kernel32:KERNEL32.dll
 0000:fffc4000       .debug$S                   0000000180000000     kernel32:KERNEL32.dll
 0000:fffc4000       .debug$S                   0000000180000000     kernel32:KERNEL32.dll
 0000:fffc4000       .debug$S                   0000000180000000     kernel32:KERNEL32.dll
 0000:fffc4000       .debug$S                   0000000180000000     kernel32:KERNEL32.dll
 0000:fffc4000       .debug$S                   0000000180000000     kernel32:KERNEL32.dll
 0000:fffc4000       .debug$S                   0000000180000000     advapi32:ADVAPI32.dll
 0000:fffc4000       .debug$S                   0000000180000000     advapi32:ADVAPI32.dll
 0000:fffc4000       .debug$S                   0000000180000000     advapi32:ADVAPI32.dll
 0000:fffc4000       .debug$S                   0000000180000000     advapi32:ADVAPI32.dll
 0000:fffc4000       .debug$S                   0000000180000000     advapi32:ADVAPI32.dll
 0000:fffc4000       .debug$S                   0000000180000000     user32:USER32.dll
 0000:fffc4000       .debug$S                   0000000180000000     user32:USER32.dll
 0000:fffc4000       .debug$S                   0000000180000000     ole32:ole32.dll
 0000:fffc4000       .debug$S                   0000000180000000     ole32:ole32.dll
 0000:fffc4000       .debug$S                   0000000180000000     ole32:ole32.dll
 0000:fffc4000       .debug$S                   0000000180000000     ole32:ole32.dll
 0000:fffc4000       .debug$S                   0000000180000000     ole32:ole32.dll
 0000:fffc4000       .debug$S                   0000000180000000     oleaut32:OLEAUT32.dll
 0000:fffc4000       .debug$S                   0000000180000000     oleaut32:OLEAUT32.dll
 0000:fffc4000       .debug$S                   0000000180000000     oleaut32:OLEAUT32.dll
 0000:fffc4000       .debug$S                   0000000180000000     oleaut32:OLEAUT32.dll
 0000:fffc4000       .debug$S                   0000000180000000     user32:USER32.dll
 0000:fffc4000       .debug$S                   0000000180000000     oleaut32:OLEAUT32.dll
 0000:fffc4000       .debug$S                   0000000180000000     oleaut32:OLEAUT32.dll
 0000:fffc4000       .debug$S                   0000000180000000     oleaut32:OLEAUT32.dll
 0000:fffc4000       .debug$S                   0000000180000000     advapi32:ADVAPI32.dll
 0000:fffc4000       .debug$S                   0000000180000000     advapi32:ADVAPI32.dll
 0000:fffc4000       .debug$S                   0000000180000000     user32:USER32.dll
 0000:fffc4000       .debug$S                   0000000180000000     advapi32:ADVAPI32.dll
 0000:fffc4000       .debug$S                   0000000180000000     user32:USER32.dll
 0000:fffc4000       .debug$S                   0000000180000000     user32:USER32.dll
 0000:fffc4000       .debug$S                   0000000180000000     user32:USER32.dll
 0000:fffc4000       .debug$S                   0000000180000000     advapi32:ADVAPI32.dll
 0000:fffc4000       .debug$S                   0000000180000000     user32:USER32.dll
 0000:fffc4000       .debug$S                   0000000180000000     gdi32:GDI32.dll
 0000:fffc4000       .debug$S                   0000000180000000     user32:USER32.dll
 0000:fffc4000       .debug$S                   0000000180000000     gdi32:GDI32.dll
 0000:fffc4000       .debug$S                   0000000180000000     user32:USER32.dll
 0000:fffc4000       .debug$S                   0000000180000000     gdi32:GDI32.dll
 0000:fffc4000       .debug$S                   0000000180000000     user32:USER32.dll
 0000:fffc4000       .debug$S                   0000000180000000     oleaut32:OLEAUT32.dll
 0000:fffc4000       .debug$S                   0000000180000000     oleaut32:OLEAUT32.dll
 0000:fffc4000       .debug$S                   0000000180000000     gdi32:GDI32.dll
 0000:fffc4000       .debug$S                   0000000180000000     gdi32:GDI32.dll
 0000:fffc4000       .debug$S                   0000000180000000     gdi32:GDI32.dll
 0000:fffc4000       .debug$S                   0000000180000000     oleaut32:OLEAUT32.dll
 0000:fffc4000       .debug$S                   0000000180000000     oleaut32:OLEAUT32.dll
 0000:fffc4000       .debug$S                   0000000180000000     oleaut32:OLEAUT32.dll
 0000:fffc4000       .debug$S                   0000000180000000     oleaut32:OLEAUT32.dll
 0000:fffc4000       .debug$S                   0000000180000000     oleaut32:OLEAUT32.dll
 0000:fffc4000       .debug$S                   0000000180000000     oleaut32:OLEAUT32.dll
 0000:fffc4000       .debug$S                   0000000180000000     gdi32:GDI32.dll
 0000:fffc4000       .debug$S                   0000000180000000     gdi32:GDI32.dll
 0000:fffc4000       .debug$S                   0000000180000000     gdi32:GDI32.dll
 0000:fffc4000       .debug$S                   0000000180000000     user32:USER32.dll
 0000:fffc4000       .debug$S                   0000000180000000     gdi32:GDI32.dll
 0000:fffc4000       .debug$S                   0000000180000000     gdi32:GDI32.dll
 0000:fffc4000       .debug$S                   0000000180000000     gdi32:GDI32.dll
 0000:fffc4000       .debug$S                   0000000180000000     gdi32:GDI32.dll
 0000:fffc4000       .debug$S                   0000000180000000     gdi32:GDI32.dll
 0000:fffc4000       .debug$S                   0000000180000000     gdi32:GDI32.dll
 0000:fffc4000       .debug$S                   0000000180000000     gdi32:GDI32.dll
 0000:fffc4000       .debug$S                   0000000180000000     gdi32:GDI32.dll
 0000:fffc4000       .debug$S                   0000000180000000     user32:USER32.dll
 0000:fffc4000       .debug$S                   0000000180000000     gdi32:GDI32.dll
 0000:fffc4000       .debug$S                   0000000180000000     gdi32:GDI32.dll
 0000:fffc4000       .debug$S                   0000000180000000     user32:USER32.dll
 0000:fffc4000       .debug$S                   0000000180000000     user32:USER32.dll
 0000:fffc4000       .debug$S                   0000000180000000     user32:USER32.dll
 0000:fffc4000       .debug$S                   0000000180000000     user32:USER32.dll
 0000:fffc4000       .debug$S                   0000000180000000     user32:USER32.dll
 0000:fffc4000       .debug$S                   0000000180000000     user32:USER32.dll
 0000:fffc4000       .debug$S                   0000000180000000     user32:USER32.dll
 0000:fffc4000       .debug$S                   0000000180000000     user32:USER32.dll
 0000:fffc4000       .debug$S                   0000000180000000     user32:USER32.dll
 0000:fffc4000       .debug$S                   0000000180000000     kernel32:KERNEL32.dll
 0000:fffc4000       .debug$S                   0000000180000000     kernel32:KERNEL32.dll
 0000:fffc4000       .debug$S                   0000000180000000     kernel32:KERNEL32.dll
 0000:fffc4000       .debug$S                   0000000180000000     kernel32:KERNEL32.dll
 0000:fffc4000       .debug$S                   0000000180000000     kernel32:KERNEL32.dll
 0000:fffc4000       .debug$S                   0000000180000000     kernel32:KERNEL32.dll
 0000:fffc4000       .debug$S                   0000000180000000     kernel32:KERNEL32.dll
 0000:fffc4000       .debug$S                   0000000180000000     kernel32:KERNEL32.dll
 0000:fffc4000       .debug$S                   0000000180000000     kernel32:KERNEL32.dll
 0000:fffc4000       .debug$S                   0000000180000000     kernel32:KERNEL32.dll
 0000:fffc4000       .debug$S                   0000000180000000     kernel32:KERNEL32.dll
 0000:fffc4000       .debug$S                   0000000180000000     kernel32:KERNEL32.dll
 0000:fffc4000       .debug$S                   0000000180000000     kernel32:KERNEL32.dll
 0000:fffc4000       .debug$S                   0000000180000000     kernel32:KERNEL32.dll
 0000:fffc4000       .debug$S                   0000000180000000     kernel32:KERNEL32.dll
 0000:fffc4000       .debug$S                   0000000180000000     kernel32:KERNEL32.dll
 0000:fffc4000       .debug$S                   0000000180000000     kernel32:KERNEL32.dll
 0000:fffc4000       .debug$S                   0000000180000000     kernel32:KERNEL32.dll
 0000:fffc4000       .debug$S                   0000000180000000     kernel32:KERNEL32.dll
 0000:fffc4000       .debug$S                   0000000180000000     kernel32:KERNEL32.dll
 0000:fffc4000       .debug$S                   0000000180000000     kernel32:KERNEL32.dll
 0000:fffc4000       .debug$S                   0000000180000000     kernel32:KERNEL32.dll
 0000:fffc4000       .debug$S                   0000000180000000     kernel32:KERNEL32.dll
 0000:fffc4000       .debug$S                   0000000180000000     ole32:ole32.dll
 0000:fffc4000       .debug$S                   0000000180000000     kernel32:KERNEL32.dll
 0000:fffc4000       .debug$S                   0000000180000000     kernel32:KERNEL32.dll
 0000:fffc4000       .debug$S                   0000000180000000     kernel32:KERNEL32.dll
 0000:fffc4000       .debug$S                   0000000180000000     kernel32:KERNEL32.dll
 0000:fffc4000       .debug$S                   0000000180000000     kernel32:KERNEL32.dll
 0000:fffc4000       .debug$S                   0000000180000000     kernel32:KERNEL32.dll
 0000:fffc4000       .debug$S                   0000000180000000     kernel32:KERNEL32.dll
 0000:fffc4000       .debug$S                   0000000180000000     kernel32:KERNEL32.dll
 0000:fffc4000       .debug$S                   0000000180000000     kernel32:KERNEL32.dll
 0000:fffc4000       .debug$S                   0000000180000000     kernel32:KERNEL32.dll
 0000:fffc4000       .debug$S                   0000000180000000     kernel32:KERNEL32.dll
 0000:fffc4000       .debug$S                   0000000180000000     user32:USER32.dll
 0000:fffc4000       .debug$S                   0000000180000000     kernel32:KERNEL32.dll
 0001:00000000       ??__E_AtlComModule@ATL@@YAXXZ 0000000180001000 f   OposVariant.obj
 0001:00000020       ??__E_AtlWinModule@ATL@@YAXXZ 0000000180001020 f   OposVariant.obj
 0001:00000040       ??__E?pConnMap@?$IConnectionPointContainerImpl@VCOPOSImageScanner@@@ATL@@0PEBU_ATL_CONNMAP_ENTRY@2@EB@@YAXXZ 0000000180001040 f   ImageScanner.obj
 0001:00000058       ??__E_Module@@YAXXZ        0000000180001058 f   ImageScanner.obj
 0001:00000094       ??__E_AtlBaseModule@ATL@@YAXXZ 0000000180001094 f   atls:atlbase.obj
 0001:0000ba4c       memcpy_s                   000000018000ca4c f   libucrt:cfout.obj
 0001:0000ba4c       memcpy_s                   000000018000ca4c f   ImageScanner.obj
 0001:0000e2e0       ?__scrt_initialize_thread_safe_statics@@YAHXZ 000000018000f2e0 f   LIBCMT:thread_safe_statics.obj
 0001:0000e3b0       ?__scrt_uninitialize_thread_safe_statics@@YAXXZ 000000018000f3b0 f   LIBCMT:thread_safe_statics.obj
 0001:0000e700       capture_current_context    000000018000f700 f   LIBCMT:gs_report.obj
 0001:0000e770       capture_previous_context   000000018000f770 f   LIBCMT:gs_report.obj
 0001:0000e910       $$000000                   000000018000f910     LIBCMT:chkstk.obj
 0001:0000e980       $$000000                   000000018000f980     LIBCMT:amdsecgs.obj
 0001:0000e9b4       ?dllmain_crt_dispatch@@YAHQEAUHINSTANCE__@@KQEAX@Z 000000018000f9b4 f   LIBCMT:dll_dllmain.obj
 0001:0000ea04       ?dllmain_crt_process_attach@@YAHQEAUHINSTANCE__@@QEAX@Z 000000018000fa04 f   LIBCMT:dll_dllmain.obj
 0001:0000eb1c       ?dllmain_crt_process_detach@@YAH_N@Z 000000018000fb1c f   LIBCMT:dll_dllmain.obj
 0001:0000eba0       ?dllmain_dispatch@@YAHQEAUHINSTANCE__@@KQEAX@Z 000000018000fba0 f   LIBCMT:dll_dllmain.obj
 0001:0000f438       ??$GetProcAddressAll@P6AP6A_JPEAUHWND__@@I_K_J@ZPEAUAtlThunkData_t@@@Z@@YAP6AP6A_JPEAUHWND__@@I_K_J@ZPEAUAtlThunkData_t@@@ZPEAP6AP6A_J0I12@Z3@Z@Z 0000000180010438 f   atls:atlthunk.obj
 0001:0000f438       ??$GetProcAddressAll@P6APEAUAtlThunkData_t@@XZ@@YAP6APEAUAtlThunkData_t@@XZPEAP6APEAU0@XZ@Z 0000000180010438 f   atls:atlthunk.obj
 0001:0000f438       ??$GetProcAddressAll@P6AXPEAUAtlThunkData_t@@PEAX_K@Z@@YAP6AXPEAUAtlThunkData_t@@PEAX_K@ZPEAP6AX012@Z@Z 0000000180010438 f   atls:atlthunk.obj
 0001:0000f438       ??$GetProcAddressAll@P6AXPEAUAtlThunkData_t@@@Z@@YAP6AXPEAUAtlThunkData_t@@@ZPEAP6AX0@Z@Z 0000000180010438 f   atls:atlthunk.obj
 0001:0000f610       ?__InitializeThunkPool@@YAHXZ 0000000180010610 f   atls:atlthunk.obj
 0001:0000faa0       $$000000                   0000000180010aa0     libvcruntime:memcmp.obj
 0001:0000fb80       $$000000                   0000000180010b80     libvcruntime:memcpy.obj
 0001:0000ff90       $$000000                   0000000180010f90     libvcruntime:memset.obj
 0001:00010da0       $$000000                   0000000180011da0     libvcruntime:notify.obj
 0001:00011040       ??$BuildCatchObjectHelperInternal@V__FrameHandler3@@@@YAHPEAUEHExceptionRecord@@PEAXPEBU_s_HandlerType@@PEBU_s_CatchableType@@@Z 0000000180012040 f   libvcruntime:frame.obj
 0001:00011240       ??$BuildCatchObjectInternal@V__FrameHandler3@@@@YAXPEAUEHExceptionRecord@@PEAXPEBU_s_HandlerType@@PEBU_s_CatchableType@@@Z 0000000180012240 f   libvcruntime:frame.obj
 0001:00011300       ??$CatchIt@V__FrameHandler3@@@@YAXPEAUEHExceptionRecord@@PEA_KPEAU_CONTEXT@@PEAU_xDISPATCHER_CONTEXT@@PEBU_s_FuncInfo@@PEBU_s_HandlerType@@PEBU_s_CatchableType@@PEBU_s_TryBlockMapEntry@@H1EE@Z 0000000180012300 f   libvcruntime:frame.obj
 0001:000113d4       ??$FindHandler@V__FrameHandler3@@@@YAXPEAUEHExceptionRecord@@PEA_KPEAU_CONTEXT@@PEAU_xDISPATCHER_CONTEXT@@PEBU_s_FuncInfo@@EH1@Z 00000001800123d4 f   libvcruntime:frame.obj
 0001:000118b0       ??$FindHandlerForForeignException@V__FrameHandler3@@@@YAXPEAUEHExceptionRecord@@PEA_KPEAU_CONTEXT@@PEAU_xDISPATCHER_CONTEXT@@PEBU_s_FuncInfo@@HH1@Z 00000001800128b0 f   libvcruntime:frame.obj
 0001:00012098       ?ExFilterRethrow@@YAHPEAU_EXCEPTION_POINTERS@@PEAUEHExceptionRecord@@PEAH@Z 0000000180013098 f   libvcruntime:frame.obj
 0001:00012344       ?IsInExceptionSpec@@YAEPEAUEHExceptionRecord@@PEBU_s_ESTypeList@@@Z 0000000180013344 f   libvcruntime:frame.obj
 0001:00012434       ?Is_bad_exception_allowed@@YAEPEBU_s_ESTypeList@@@Z 0000000180013434 f   libvcruntime:frame.obj
 0001:000124d8       ?try_get_function@@YAPEAXW4function_id@?A0x656504f9@@QEBDQEBW4module_id@2@2@Z 00000001800134d8 f   libvcruntime:winapi_downlevel.obj
 0001:000127d0       $$000000                   00000001800137d0     libvcruntime:handlers.obj
 0001:00012fe8       ??$common_vsprintf@Vformat_validation_base@__crt_stdio_output@@_W@@YAH_KQEA_W0QEB_WQEAU__crt_locale_pointers@@QEAD@Z 0000000180013fe8 f   libucrt:output.obj
 0001:00014818       ??$?RV<lambda_d80eeec6fff315bfe5c115232f3240e3>@@AEAV<lambda_6e4b09c48022b2350581041d5f6b0c4c>@@V<lambda_2358e3775559c9db80273638284d5e45>@@@?$__crt_seh_guarded_call@X@@QEAAX$$QEAV<lambda_d80eeec6fff315bfe5c115232f3240e3>@@AEAV<lambda_6e4b09c48022b2350581041d5f6b0c4c>@@$$QEAV<lambda_2358e3775559c9db80273638284d5e45>@@@Z 0000000180015818 f   libucrt:exit.obj
 0001:00014850       ??R<lambda_6e4b09c48022b2350581041d5f6b0c4c>@@QEBA@XZ 0000000180015850 f   libucrt:exit.obj
 0001:00014914       ?atexit_exception_filter@@YAHK@Z 0000000180015914 f   libucrt:exit.obj
 0001:00014920       ?common_exit@@YAXHW4_crt_exit_cleanup_mode@@W4_crt_exit_return_mode@@@Z 0000000180015920 f   libucrt:exit.obj
 0001:000149dc       ?exit_or_terminate_process@@YAXI@Z 00000001800159dc f   libucrt:exit.obj
 0001:00014a28       ?try_cor_exit_process@@YAXI@Z 0000000180015a28 f   libucrt:exit.obj
 0001:00014ab0       ??$parse_command_line@D@@YAXPEADPEAPEAD0PEA_K2@Z 0000000180015ab0 f   libucrt:argv_parsing.obj
 0001:00014e5c       ??$common_initialize_environment_nolock@D@@YAHXZ 0000000180015e5c f   libucrt:environment_initialization.obj
 0001:00014ec8       ??$create_environment@D@@YAQEAPEADQEAD@Z 0000000180015ec8 f   libucrt:environment_initialization.obj
 0001:00014fd0       ??$free_environment@D@@YAXQEAPEAD@Z 0000000180015fd0 f   libucrt:environment_initialization.obj
 0001:00014fd0       ??$free_environment@_W@@YAXQEAPEA_W@Z 0000000180015fd0 f   libucrt:environment_initialization.obj
 0001:00015014       ??$uninitialize_environment_internal@D@@YAXAEAPEAPEAD@Z 0000000180016014 f   libucrt:environment_initialization.obj
 0001:00015030       ??$uninitialize_environment_internal@_W@@YAXAEAPEAPEA_W@Z 0000000180016030 f   libucrt:environment_initialization.obj
 0001:0001508c       ??$?RV<lambda_638799b9deba96c50f710eeac98168cd>@@AEAV<lambda_22ebabd17bc4fa466a2aca6d8deb888d>@@V<lambda_a6f7d7db0129f75315ebf26d50c089f1>@@@?$__crt_seh_guarded_call@H@@QEAAH$$QEAV<lambda_638799b9deba96c50f710eeac98168cd>@@AEAV<lambda_22ebabd17bc4fa466a2aca6d8deb888d>@@$$QEAV<lambda_a6f7d7db0129f75315ebf26d50c089f1>@@@Z 000000018001608c f   libucrt:onexit.obj
 0001:000150c8       ??$?RV<lambda_7777bce6b2f8c936911f934f8298dc43>@@AEAV<lambda_f03950bc5685219e0bcd2087efbe011e>@@V<lambda_3883c3dff614d5e0c5f61bb1ac94921c>@@@?$__crt_seh_guarded_call@H@@QEAAH$$QEAV<lambda_7777bce6b2f8c936911f934f8298dc43>@@AEAV<lambda_f03950bc5685219e0bcd2087efbe011e>@@$$QEAV<lambda_3883c3dff614d5e0c5f61bb1ac94921c>@@@Z 00000001800160c8 f   libucrt:onexit.obj
 0001:00015104       ??R<lambda_22ebabd17bc4fa466a2aca6d8deb888d>@@QEBAHXZ 0000000180016104 f   libucrt:onexit.obj
 0001:000152b4       ??R<lambda_f03950bc5685219e0bcd2087efbe011e>@@QEBAHXZ 00000001800162b4 f   libucrt:onexit.obj
 0001:00015488       initialize_global_variables 0000000180016488 f   libucrt:initialization.obj
 0001:0001549c       initialize_c               000000018001649c f   libucrt:initialization.obj
 0001:000154c0       initialize_global_state_isolation 00000001800164c0 f   libucrt:initialization.obj
 0001:000154c0       uninitialize_global_state_isolation 00000001800164c0 f   libucrt:initialization.obj
 0001:000154c0       report_memory_leaks        00000001800164c0 f   libucrt:initialization.obj
 0001:000154c0       uninitialize_c             00000001800164c0 f   libucrt:initialization.obj
 0001:000154c0       initialize_environment     00000001800164c0 f   libucrt:initialization.obj
 0001:000154c4       uninitialize_environment   00000001800164c4 f   libucrt:initialization.obj
 0001:000154d4       initialize_pointers        00000001800164d4 f   libucrt:initialization.obj
 0001:00015514       uninitialize_vcruntime     0000000180016514 f   libucrt:initialization.obj
 0001:0001551c       uninitialize_allocated_memory 000000018001651c f   libucrt:initialization.obj
 0001:0001555c       uninitialize_allocated_io_buffers 000000018001655c f   libucrt:initialization.obj
 0001:00015ed0       $$000000                   0000000180016ed0     libucrt:strncmp.obj
 0001:00015fcc       ??$?RV<lambda_0ae27a3a962d80f24befdcbee591983d>@@AEAV<lambda_8d0ee55de4b1038c4002e0adecdf1839>@@V<lambda_dc504788e8f1664fe9b84e20bfb512f2>@@@?$__crt_seh_guarded_call@X@@QEAAX$$QEAV<lambda_0ae27a3a962d80f24befdcbee591983d>@@AEAV<lambda_8d0ee55de4b1038c4002e0adecdf1839>@@$$QEAV<lambda_dc504788e8f1664fe9b84e20bfb512f2>@@@Z 0000000180016fcc f   libucrt:per_thread_data.obj
 0001:0001600c       ??$?RV<lambda_2d41944a1d46af3157314b8a01080d33>@@AEAV<lambda_8f455de75cd7d7f24b4096f044d8b9e6>@@V<lambda_aa500f224e6afead328df44964fe2772>@@@?$__crt_seh_guarded_call@X@@QEAAX$$QEAV<lambda_2d41944a1d46af3157314b8a01080d33>@@AEAV<lambda_8f455de75cd7d7f24b4096f044d8b9e6>@@$$QEAV<lambda_aa500f224e6afead328df44964fe2772>@@@Z 000000018001700c f   libucrt:per_thread_data.obj
 0001:0001604c       ??$?RV<lambda_aa87e3671a710a21b5dc78c0bdf72e11>@@AEAV<lambda_92619d2358a28f41a33ba319515a20b9>@@V<lambda_6992ecaafeb10aed2b74cb1fae11a551>@@@?$__crt_seh_guarded_call@X@@QEAAX$$QEAV<lambda_aa87e3671a710a21b5dc78c0bdf72e11>@@AEAV<lambda_92619d2358a28f41a33ba319515a20b9>@@$$QEAV<lambda_6992ecaafeb10aed2b74cb1fae11a551>@@@Z 000000018001704c f   libucrt:per_thread_data.obj
 0001:00016094       ??$?RV<lambda_f2e299630e499de9f9a165e60fcd3db5>@@AEAV<lambda_2ae9d31cdba2644fcbeaf08da7c24588>@@V<lambda_40d01ff24d0e7b3814fdbdcee8eab3c7>@@@?$__crt_seh_guarded_call@X@@QEAAX$$QEAV<lambda_f2e299630e499de9f9a165e60fcd3db5>@@AEAV<lambda_2ae9d31cdba2644fcbeaf08da7c24588>@@$$QEAV<lambda_40d01ff24d0e7b3814fdbdcee8eab3c7>@@@Z 0000000180017094 f   libucrt:per_thread_data.obj
 0001:000160f4       ?construct_ptd_array@@YAXQEAU__acrt_ptd@@@Z 00000001800170f4 f   libucrt:per_thread_data.obj
 0001:000161c4       ?destroy_fls@@YAXPEAX@Z    00000001800171c4 f   libucrt:per_thread_data.obj
 0001:000161e4       ?destroy_ptd_array@@YAXQEAU__acrt_ptd@@@Z 00000001800171e4 f   libucrt:per_thread_data.obj
 0001:000162dc       ?replace_current_thread_locale_nolock@@YAXQEAU__acrt_ptd@@QEAU__crt_locale_data@@@Z 00000001800172dc f   libucrt:per_thread_data.obj
 0001:000167c0       ?try_get_function@@YAPEAXW4function_id@?A0x391cf84c@@QEBDQEBW4module_id@2@2@Z 00000001800177c0 f   libucrt:winapi_thunks.obj
 0001:00017190       ?fp_format_a@@YAHQEBNPEAD_KQEAD2H_NIQEAU__crt_locale_pointers@@@Z 0000000180018190 f   libucrt:cvt.obj
 0001:00017500       ?fp_format_e@@YAHQEBNQEAD_K12H_NIQEAU__crt_locale_pointers@@@Z 0000000180018500 f   libucrt:cvt.obj
 0001:000175dc       ?fp_format_e_internal@@YAHQEAD_KH_NIQEAU_strflt@@2QEAU__crt_locale_pointers@@@Z 00000001800185dc f   libucrt:cvt.obj
 0001:000177b0       ?fp_format_f_internal@@YAHQEAD_KHQEAU_strflt@@_NQEAU__crt_locale_pointers@@@Z 00000001800187b0 f   libucrt:cvt.obj
 0001:000178f4       ?fp_format_g@@YAHQEBNQEAD_K12H_NIQEAU__crt_locale_pointers@@@Z 00000001800188f4 f   libucrt:cvt.obj
 0001:00017f00       ??$?RV<lambda_410d79af7f07d98d83a3f525b3859a53>@@AEAV<lambda_3e16ef9562a7dcce91392c22ab16ea36>@@V<lambda_38119f0e861e05405d8a144b9b982f0a>@@@?$__crt_seh_guarded_call@X@@QEAAX$$QEAV<lambda_410d79af7f07d98d83a3f525b3859a53>@@AEAV<lambda_3e16ef9562a7dcce91392c22ab16ea36>@@$$QEAV<lambda_38119f0e861e05405d8a144b9b982f0a>@@@Z 0000000180018f00 f   libucrt:wsetlocale.obj
 0001:00017fac       ?initialize_inherited_file_handles_nolock@@YAXXZ 0000000180018fac f   libucrt:ioinit.obj
 0001:0001809c       ?initialize_stdio_handles_nolock@@YAXXZ 000000018001909c f   libucrt:ioinit.obj
 0001:00018318       ?<lambda_invoker_cdecl>@<lambda_a1ce4c8ae42411fd470c77163914f50e>@@CAHPEBX0@Z 0000000180019318 f   libucrt:argv_wildcards.obj
 0001:00018630       ??$common_expand_argv_wildcards@D@@YAHQEAPEADQEAPEAPEAD@Z 0000000180019630 f   libucrt:argv_wildcards.obj
 0001:0001883c       ??$copy_and_add_argument_to_buffer@D@@YAHQEBD0_KAEAV?$argument_list@D@?A0x5f5c8891@@@Z 000000018001983c f   libucrt:argv_wildcards.obj
 0001:000189c4       ??$expand_argument_wildcards@D@@YAHQEAD0AEAV?$argument_list@D@?A0x5f5c8891@@@Z 00000001800199c4 f   libucrt:argv_wildcards.obj
 0001:00018f10       ??$?RV<lambda_efdfa57d1f175319df784efa44bb7b81>@@AEAV<lambda_5f0a4c1567f8adc6734073e5d1e1b35c>@@V<lambda_2e8a7d3640ea6ccb4c2413664c2db6fd>@@@?$__crt_seh_guarded_call@X@@QEAAX$$QEAV<lambda_efdfa57d1f175319df784efa44bb7b81>@@AEAV<lambda_5f0a4c1567f8adc6734073e5d1e1b35c>@@$$QEAV<lambda_2e8a7d3640ea6ccb4c2413664c2db6fd>@@@Z 0000000180019f10 f   libucrt:mbctype.obj
 0001:000190cc       ?getSystemCP@@YAHH@Z       000000018001a0cc f   libucrt:mbctype.obj
 0001:0001914c       ?setSBCS@@YAXPEAU__crt_multibyte_data@@@Z 000000018001a14c f   libucrt:mbctype.obj
 0001:000191dc       ?setSBUpLow@@YAXPEAU__crt_multibyte_data@@@Z 000000018001a1dc f   libucrt:mbctype.obj
 0001:000193c0       ?setmbcp_internal@@YAHH_NQEAU__acrt_ptd@@QEAPEAU__crt_multibyte_data@@@Z 000000018001a3c0 f   libucrt:mbctype.obj
 0001:00019584       ?update_thread_multibyte_data_internal@@YAPEAU__crt_multibyte_data@@QEAU__acrt_ptd@@QEAPEAU1@@Z 000000018001a584 f   libucrt:mbctype.obj
 0001:00019974       ?x_ismbbtype_l@@YAHPEAU__crt_locale_pointers@@IHH@Z 000000018001a974 f   libucrt:ismbbyte.obj
 0001:00019d04       ??$?RV<lambda_450d765d439847d4c735a33c368b5fc0>@@AEAV<lambda_44731a7d0e6d81c3e6aa82d741081786>@@V<lambda_601a2a7da3b7a96e9554ac7215c4b07c>@@@?$__crt_seh_guarded_call@P6AXH@Z@@QEAAP6AXH@Z$$QEAV<lambda_450d765d439847d4c735a33c368b5fc0>@@AEAV<lambda_44731a7d0e6d81c3e6aa82d741081786>@@$$QEAV<lambda_601a2a7da3b7a96e9554ac7215c4b07c>@@@Z 000000018001ad04 f   libucrt:signal.obj
 0001:0001a060       ??$?RV<lambda_842d9ff0dc9ef11c61343bbaebe7f885>@@AEAV<lambda_c5860995281e5c4ce005b3de8f5874ee>@@V<lambda_d90129c13df834fdcbf8d2b88dafcf2d>@@@?$__crt_seh_guarded_call@X@@QEAAX$$QEAV<lambda_842d9ff0dc9ef11c61343bbaebe7f885>@@AEAV<lambda_c5860995281e5c4ce005b3de8f5874ee>@@$$QEAV<lambda_d90129c13df834fdcbf8d2b88dafcf2d>@@@Z 000000018001b060 f   libucrt:fflush.obj
 0001:0001a0fc       ??$?RV<lambda_886d6c58226a84441f68b9f2b8217b83>@@AEAV<lambda_ab61a845afdef5b7c387490eaf3616ee>@@V<lambda_f7f22ab5edc0698d5f6905b0d3f44752>@@@?$__crt_seh_guarded_call@X@@QEAAX$$QEAV<lambda_886d6c58226a84441f68b9f2b8217b83>@@AEAV<lambda_ab61a845afdef5b7c387490eaf3616ee>@@$$QEAV<lambda_f7f22ab5edc0698d5f6905b0d3f44752>@@@Z 000000018001b0fc f   libucrt:fflush.obj
 0001:0001a1dc       ?common_flush_all@@YAH_N@Z 000000018001b1dc f   libucrt:fflush.obj
 0001:0001c47c       ?free_crt_array_internal@@YAXQEAPEBX_K@Z 000000018001d47c f   libucrt:inittime.obj
 0001:0001cf14       fallbackMethod             000000018001df14 f   libucrt:strpbrk.obj
 0001:0001d2e4       $LN78                      000000018001e2e4     libucrt:strpbrk.obj
 0001:0001d320       $LN77                      000000018001e320     libucrt:strpbrk.obj
 0001:0001d360       $LN76                      000000018001e360     libucrt:strpbrk.obj
 0001:0001d43c       ?__acrt_LCMapStringA_stat@@YAHPEAU__crt_locale_pointers@@PEB_WKPEBDHPEADHHH@Z 000000018001e43c f   libucrt:lcmapstringa.obj
 0001:0001d7ec       ?initialize_multibyte@@YAHXZ 000000018001e7ec f   libucrt:multibyte_initializer.obj
 0001:0001d804       ??$?RV<lambda_a37b2b86f63e897a80ea819b0eb08c01>@@AEAV<lambda_38ce7e780aa69e748d6df282ebc68efe>@@V<lambda_99fb1378e971ab6e7edea83e3a7a83a2>@@@?$__crt_seh_guarded_call@H@@QEAAH$$QEAV<lambda_a37b2b86f63e897a80ea819b0eb08c01>@@AEAV<lambda_38ce7e780aa69e748d6df282ebc68efe>@@$$QEAV<lambda_99fb1378e971ab6e7edea83e3a7a83a2>@@@Z 000000018001e804 f   libucrt:commit.obj
 0001:0001d924       ?write_double_translated_ansi_nolock@@YA?AUwrite_result@?A0x17268360@@HQEBDI@Z 000000018001e924 f   libucrt:write.obj
 0001:0001ddf4       ?write_text_ansi_nolock@@YA?AUwrite_result@?A0x17268360@@HQEBDI@Z 000000018001edf4 f   libucrt:write.obj
 0001:0001def8       ?write_text_utf16le_nolock@@YA?AUwrite_result@?A0x17268360@@HQEBDI@Z 000000018001eef8 f   libucrt:write.obj
 0001:0001e014       ?write_text_utf8_nolock@@YA?AUwrite_result@?A0x17268360@@HQEBDI@Z 000000018001f014 f   libucrt:write.obj
 0001:0001e900       $$000000                   000000018001f900     libucrt:log10.obj
 0001:0001eeac       ??$common_lseek_nolock@_J@@YA_JH_JH@Z 000000018001feac f   libucrt:lseek.obj
 0001:0001f418       _call_matherr              0000000180020418 f   libucrt:libm_error.obj
 0001:0001f480       _exception_enabled         0000000180020480 f   libucrt:libm_error.obj
 0001:0001f710       _log_special_common        0000000180020710 f   libucrt:log_special.obj
 0001:0001f7a8       ??$?RV<lambda_751a882b2c74d4b022dec766aa51a29a>@@AEAV<lambda_628dfdc04ba53c8bfc02c9951375f3f5>@@V<lambda_f6c7be5f7998530c34de24c7437d6b54>@@@?$__crt_seh_guarded_call@H@@QEAAH$$QEAV<lambda_751a882b2c74d4b022dec766aa51a29a>@@AEAV<lambda_628dfdc04ba53c8bfc02c9951375f3f5>@@$$QEAV<lambda_f6c7be5f7998530c34de24c7437d6b54>@@@Z 00000001800207a8 f   libucrt:close.obj
 0001:0001fad0       $$000000                   0000000180020ad0     libucrt:fpsr.obj
 0001:00020170       $$000000                   0000000180021170     LIBCMT:guard_dispatch.obj
 0001:00020190       ?filt$0@?0??_AtlVerifyStackAvailable@_ATL_SAFE_ALLOCA_IMPL@ATL@@YA_N_K@Z@4HA 0000000180021190 f   ImageScanner.obj
 0001:000201b1       __scrt_is_nonwritable_in_current_image$filt$0 00000001800211b1 f   LIBCMT:utility.obj
 0001:000201c9       ?catch$0@?0???2@YAPEAX_KAEBUnothrow_t@std@@@Z@4HA 00000001800211c9 f   LIBCMT:new_scalar_nothrow.obj
 0001:000201d6       __catch$??2@YAPEAX_KAEBUnothrow_t@std@@@Z$0 00000001800211d6 f   LIBCMT:new_scalar_nothrow.obj
 0001:000201e4       ?fin$0@?0??dllmain_crt_process_attach@@YAHQEAUHINSTANCE__@@QEAX@Z@4HA 00000001800211e4 f   LIBCMT:dll_dllmain.obj
 0001:000201fb       ?fin$0@?0??dllmain_crt_process_detach@@YAH_N@Z@4HA 00000001800211fb f   LIBCMT:dll_dllmain.obj
 0001:00020217       ?filt$0@?0??dllmain_dispatch@@YAHQEAUHINSTANCE__@@KQEAX@Z@4HA 0000000180021217 f   LIBCMT:dll_dllmain.obj
 0001:0002024d       ?filt$0@?0???$_CallSETranslator@V__FrameHandler3@@@@YAHPEAUEHExceptionRecord@@PEA_KPEAU_CONTEXT@@PEAU_xDISPATCHER_CONTEXT@@PEBU_s_FuncInfo@@K1@Z@4HA 000000018002124d f   libvcruntime:risctrnsctrl.obj
 0001:000202de       __DestructExceptionObject$filt$0 00000001800212de f   libvcruntime:ehhelpers.obj
 0001:000202f6       ?filt$0@?0??CxxCallCatchBlock@__FrameHandler3@@SAPEAXPEAU_EXCEPTION_RECORD@@@Z@4HA 00000001800212f6 f   libvcruntime:frame.obj
 0001:0002031b       ?fin$1@?0??CxxCallCatchBlock@__FrameHandler3@@SAPEAXPEAU_EXCEPTION_RECORD@@@Z@4HA 000000018002131b f   libvcruntime:frame.obj
 0001:00020393       ?filt$0@?0??FrameUnwindToState@__FrameHandler3@@SAXPEA_KPEAU_xDISPATCHER_CONTEXT@@PEBU_s_FuncInfo@@H@Z@4HA 0000000180021393 f   libvcruntime:frame.obj
 0001:000203a9       ?fin$1@?0??FrameUnwindToState@__FrameHandler3@@SAXPEA_KPEAU_xDISPATCHER_CONTEXT@@PEBU_s_FuncInfo@@H@Z@4HA 00000001800213a9 f   libvcruntime:frame.obj
 0001:000203cc       ?fin$0@?0???$?RV<lambda_f2e299630e499de9f9a165e60fcd3db5>@@AEAV<lambda_2ae9d31cdba2644fcbeaf08da7c24588>@@V<lambda_40d01ff24d0e7b3814fdbdcee8eab3c7>@@@?$__crt_seh_guarded_call@X@@QEAAX$$QEAV<lambda_f2e299630e499de9f9a165e60fcd3db5>@@AEAV<lambda_2ae9d31cdba2644fcbeaf08da7c24588>@@$$QEAV<lambda_40d01ff24d0e7b3814fdbdcee8eab3c7>@@@Z@4HA 00000001800213cc f   libucrt:per_thread_data.obj
 0001:000203cc       ?fin$0@?0???$?RV<lambda_0ae27a3a962d80f24befdcbee591983d>@@AEAV<lambda_8d0ee55de4b1038c4002e0adecdf1839>@@V<lambda_dc504788e8f1664fe9b84e20bfb512f2>@@@?$__crt_seh_guarded_call@X@@QEAAX$$QEAV<lambda_0ae27a3a962d80f24befdcbee591983d>@@AEAV<lambda_8d0ee55de4b1038c4002e0adecdf1839>@@$$QEAV<lambda_dc504788e8f1664fe9b84e20bfb512f2>@@@Z@4HA 00000001800213cc f   libucrt:per_thread_data.obj
 0001:000203cc       ?fin$0@?0???$?RV<lambda_d80eeec6fff315bfe5c115232f3240e3>@@AEAV<lambda_6e4b09c48022b2350581041d5f6b0c4c>@@V<lambda_2358e3775559c9db80273638284d5e45>@@@?$__crt_seh_guarded_call@X@@QEAAX$$QEAV<lambda_d80eeec6fff315bfe5c115232f3240e3>@@AEAV<lambda_6e4b09c48022b2350581041d5f6b0c4c>@@$$QEAV<lambda_2358e3775559c9db80273638284d5e45>@@@Z@4HA 00000001800213cc f   libucrt:exit.obj
 0001:000203cc       ?fin$0@?0???$?RV<lambda_efdfa57d1f175319df784efa44bb7b81>@@AEAV<lambda_5f0a4c1567f8adc6734073e5d1e1b35c>@@V<lambda_2e8a7d3640ea6ccb4c2413664c2db6fd>@@@?$__crt_seh_guarded_call@X@@QEAAX$$QEAV<lambda_efdfa57d1f175319df784efa44bb7b81>@@AEAV<lambda_5f0a4c1567f8adc6734073e5d1e1b35c>@@$$QEAV<lambda_2e8a7d3640ea6ccb4c2413664c2db6fd>@@@Z@4HA 00000001800213cc f   libucrt:mbctype.obj
 0001:000203cc       ?fin$0@?0???$?RV<lambda_638799b9deba96c50f710eeac98168cd>@@AEAV<lambda_22ebabd17bc4fa466a2aca6d8deb888d>@@V<lambda_a6f7d7db0129f75315ebf26d50c089f1>@@@?$__crt_seh_guarded_call@H@@QEAAH$$QEAV<lambda_638799b9deba96c50f710eeac98168cd>@@AEAV<lambda_22ebabd17bc4fa466a2aca6d8deb888d>@@$$QEAV<lambda_a6f7d7db0129f75315ebf26d50c089f1>@@@Z@4HA 00000001800213cc f   libucrt:onexit.obj
 0001:000203cc       ?fin$0@?0???$?RV<lambda_7777bce6b2f8c936911f934f8298dc43>@@AEAV<lambda_f03950bc5685219e0bcd2087efbe011e>@@V<lambda_3883c3dff614d5e0c5f61bb1ac94921c>@@@?$__crt_seh_guarded_call@H@@QEAAH$$QEAV<lambda_7777bce6b2f8c936911f934f8298dc43>@@AEAV<lambda_f03950bc5685219e0bcd2087efbe011e>@@$$QEAV<lambda_3883c3dff614d5e0c5f61bb1ac94921c>@@@Z@4HA 00000001800213cc f   libucrt:onexit.obj
 0001:000203cc       ?fin$0@?0???$?RV<lambda_450d765d439847d4c735a33c368b5fc0>@@AEAV<lambda_44731a7d0e6d81c3e6aa82d741081786>@@V<lambda_601a2a7da3b7a96e9554ac7215c4b07c>@@@?$__crt_seh_guarded_call@P6AXH@Z@@QEAAP6AXH@Z$$QEAV<lambda_450d765d439847d4c735a33c368b5fc0>@@AEAV<lambda_44731a7d0e6d81c3e6aa82d741081786>@@$$QEAV<lambda_601a2a7da3b7a96e9554ac7215c4b07c>@@@Z@4HA 00000001800213cc f   libucrt:signal.obj
 0001:000203cc       ?fin$0@?0???$?RV<lambda_2d41944a1d46af3157314b8a01080d33>@@AEAV<lambda_8f455de75cd7d7f24b4096f044d8b9e6>@@V<lambda_aa500f224e6afead328df44964fe2772>@@@?$__crt_seh_guarded_call@X@@QEAAX$$QEAV<lambda_2d41944a1d46af3157314b8a01080d33>@@AEAV<lambda_8f455de75cd7d7f24b4096f044d8b9e6>@@$$QEAV<lambda_aa500f224e6afead328df44964fe2772>@@@Z@4HA 00000001800213cc f   libucrt:per_thread_data.obj
 0001:000203cc       ?fin$0@?0???$?RV<lambda_aa87e3671a710a21b5dc78c0bdf72e11>@@AEAV<lambda_92619d2358a28f41a33ba319515a20b9>@@V<lambda_6992ecaafeb10aed2b74cb1fae11a551>@@@?$__crt_seh_guarded_call@X@@QEAAX$$QEAV<lambda_aa87e3671a710a21b5dc78c0bdf72e11>@@AEAV<lambda_92619d2358a28f41a33ba319515a20b9>@@$$QEAV<lambda_6992ecaafeb10aed2b74cb1fae11a551>@@@Z@4HA 00000001800213cc f   libucrt:per_thread_data.obj
 0001:000203e6       ?filt$0@?0???R<lambda_6e4b09c48022b2350581041d5f6b0c4c>@@QEBA@XZ@4HA 00000001800213e6 f   libucrt:exit.obj
 0001:00020401       _query_new_handler$fin$0   0000000180021401 f   libucrt:new_handler.obj
 0001:00020417       ?fin$0@?0???$?RV<lambda_410d79af7f07d98d83a3f525b3859a53>@@AEAV<lambda_3e16ef9562a7dcce91392c22ab16ea36>@@V<lambda_38119f0e861e05405d8a144b9b982f0a>@@@?$__crt_seh_guarded_call@X@@QEAAX$$QEAV<lambda_410d79af7f07d98d83a3f525b3859a53>@@AEAV<lambda_3e16ef9562a7dcce91392c22ab16ea36>@@$$QEAV<lambda_38119f0e861e05405d8a144b9b982f0a>@@@Z@4HA 0000000180021417 f   libucrt:wsetlocale.obj
 0001:00020431       __acrt_initialize_lowio$fin$0 0000000180021431 f   libucrt:ioinit.obj
 0001:00020431       __acrt_lowio_ensure_fh_exists$fin$0 0000000180021431 f   libucrt:osfinfo.obj
 0001:0002044a       ?fin$0@?0??update_thread_multibyte_data_internal@@YAPEAU__crt_multibyte_data@@QEAU__acrt_ptd@@QEAPEAU1@@Z@4HA 000000018002144a f   libucrt:mbctype.obj
 0001:00020463       raise$fin$0                0000000180021463 f   libucrt:signal.obj
 0001:00020484       ?fin$0@?0???$?RV<lambda_842d9ff0dc9ef11c61343bbaebe7f885>@@AEAV<lambda_c5860995281e5c4ce005b3de8f5874ee>@@V<lambda_d90129c13df834fdcbf8d2b88dafcf2d>@@@?$__crt_seh_guarded_call@X@@QEAAX$$QEAV<lambda_842d9ff0dc9ef11c61343bbaebe7f885>@@AEAV<lambda_c5860995281e5c4ce005b3de8f5874ee>@@$$QEAV<lambda_d90129c13df834fdcbf8d2b88dafcf2d>@@@Z@4HA 0000000180021484 f   libucrt:fflush.obj
 0001:0002049f       ?fin$0@?0???$?RV<lambda_886d6c58226a84441f68b9f2b8217b83>@@AEAV<lambda_ab61a845afdef5b7c387490eaf3616ee>@@V<lambda_f7f22ab5edc0698d5f6905b0d3f44752>@@@?$__crt_seh_guarded_call@X@@QEAAX$$QEAV<lambda_886d6c58226a84441f68b9f2b8217b83>@@AEAV<lambda_ab61a845afdef5b7c387490eaf3616ee>@@$$QEAV<lambda_f7f22ab5edc0698d5f6905b0d3f44752>@@@Z@4HA 000000018002149f f   libucrt:fflush.obj
 0001:000204bc       __acrt_update_thread_locale_data$fin$0 00000001800214bc f   libucrt:locale_refcounting.obj
 0001:000204d5       _fcloseall$fin$0           00000001800214d5 f   libucrt:closeall.obj
 0001:000204ee       ?fin$0@?0???$?RV<lambda_a37b2b86f63e897a80ea819b0eb08c01>@@AEAV<lambda_38ce7e780aa69e748d6df282ebc68efe>@@V<lambda_99fb1378e971ab6e7edea83e3a7a83a2>@@@?$__crt_seh_guarded_call@H@@QEAAH$$QEAV<lambda_a37b2b86f63e897a80ea819b0eb08c01>@@AEAV<lambda_38ce7e780aa69e748d6df282ebc68efe>@@$$QEAV<lambda_99fb1378e971ab6e7edea83e3a7a83a2>@@@Z@4HA 00000001800214ee f   libucrt:commit.obj
 0001:000204ee       ?fin$0@?0???$?RV<lambda_751a882b2c74d4b022dec766aa51a29a>@@AEAV<lambda_628dfdc04ba53c8bfc02c9951375f3f5>@@V<lambda_f6c7be5f7998530c34de24c7437d6b54>@@@?$__crt_seh_guarded_call@H@@QEAAH$$QEAV<lambda_751a882b2c74d4b022dec766aa51a29a>@@AEAV<lambda_628dfdc04ba53c8bfc02c9951375f3f5>@@$$QEAV<lambda_f6c7be5f7998530c34de24c7437d6b54>@@@Z@4HA 00000001800214ee f   libucrt:close.obj
 0001:00020508       _write$fin$0               0000000180021508 f   libucrt:write.obj
 0001:0002051f       fclose$fin$0               000000018002151f f   libucrt:fclose.obj
 0001:00020537       _ctrlfp$filt$0             0000000180021537 f   libucrt:fpctrl.obj
 0001:00020570       _IsNonwritableInCurrentImage$filt$0 0000000180021570 f   LIBCMT:pesect.obj
 0001:00020590       ??__F_AtlComModule@ATL@@YAXXZ 0000000180021590 f   OposVariant.obj
 0001:0002059c       ??__F_AtlWinModule@ATL@@YAXXZ 000000018002159c f   OposVariant.obj
 0001:000205e0       ??__F_Module@@YAXXZ        00000001800215e0 f   ImageScanner.obj
 0001:00020644       ??__F_AtlBaseModule@ATL@@YAXXZ 0000000180021644 f   atls:atlbase.obj
 0002:00000630       ?_AtlBaseModule$initializer$@ATL@@3P6AXXZEA 0000000180022630     atls:atlbase.obj
 0002:00000638       ?_AtlComModule$initializer$@ATL@@3P6AXXZEA 0000000180022638     OposVariant.obj
 0002:00000640       ?_AtlWinModule$initializer$@ATL@@3P6AXXZEA 0000000180022640     OposVariant.obj
 0002:00000648       ?_Module$initializer$@@3P6AXXZEA 0000000180022648     ImageScanner.obj
 0002:00000650       ??pConnMap$initializer$@?$IConnectionPointContainerImpl@VCOPOSImageScanner@@@ATL@@0P6AXXZEA@@3P6AXXZEA 0000000180022650     ImageScanner.obj
 0002:00000668       ?__scrt_initialize_tss_var@@3P6AHXZEA 0000000180022668     LIBCMT:thread_safe_statics.obj
 0002:00002758       GS_ExceptionPointers       0000000180024758     LIBCMT:gs_report.obj
 0002:00002768       $cppxdata$??2@YAPEAX_KAEBUnothrow_t@std@@@Z 0000000180024768     LIBCMT:new_scalar_nothrow.obj
 0002:00002940       ?ExceptionTemplate@?1??UnwindNestedFrames@__FrameHandler3@@SAXPEA_KPEAUEHExceptionRecord@@PEAU_CONTEXT@@0PEAXPEBU_s_FuncInfo@@HHPEBU_s_HandlerType@@PEAU_xDISPATCHER_CONTEXT@@E@Z@4U_EXCEPTION_RECORD@@B 0000000180024940     libvcruntime:risctrnsctrl.obj
 0002:000029e0       ?ExceptionTemplate@?1??_CxxThrowException@@9@4UEHExceptionRecord@@B 00000001800249e0     libvcruntime:throw.obj
 0002:00002a50       ?tokenTable@@3QBQEBDB      0000000180024a50     libvcruntime:undname.obj
 0002:00002ad0       ?nameTable@@3QBQEBDB       0000000180024ad0     libvcruntime:undname.obj
 0002:00002d68       ?rttiTable@@3QBQEBDB       0000000180024d68     libvcruntime:undname.obj
 0002:00003430       ?module_names@?A0x656504f9@@3QBQEB_WB 0000000180025430     libvcruntime:winapi_downlevel.obj
 0002:000034f0       ?candidate_modules@?1??try_get_FlsAlloc@@YAP6AKP6AXPEAX@Z@ZXZ@4QBW4module_id@?A0x656504f9@@B 00000001800254f0     libvcruntime:winapi_downlevel.obj
 0002:00003508       ?candidate_modules@?1??try_get_FlsFree@@YAP6AHK@ZXZ@4QBW4module_id@?A0x656504f9@@B 0000000180025508     libvcruntime:winapi_downlevel.obj
 0002:00003518       ?candidate_modules@?1??try_get_FlsGetValue@@YAP6APEAXK@ZXZ@4QBW4module_id@?A0x656504f9@@B 0000000180025518     libvcruntime:winapi_downlevel.obj
 0002:00003530       ?candidate_modules@?1??try_get_FlsSetValue@@YAP6AHKPEAX@ZXZ@4QBW4module_id@?A0x656504f9@@B 0000000180025530     libvcruntime:winapi_downlevel.obj
 0002:00003548       ?candidate_modules@?1??try_get_InitializeCriticalSectionEx@@YAP6AHPEAU_RTL_CRITICAL_SECTION@@KK@ZXZ@4QBW4module_id@?A0x656504f9@@B 0000000180025548     libvcruntime:winapi_downlevel.obj
 0002:00003570       ?errtable@@3QBUerrentry@?A0x31fdb9ec@@B 0000000180025570     libucrt:errno.obj
 0002:00003860       __acrt_initializers        0000000180025860     libucrt:initialization.obj
 0002:00003960       ?module_names@?A0x391cf84c@@3QBQEB_WB 0000000180025960     libucrt:winapi_thunks.obj
 0002:00003e68       ?candidate_modules@?1??try_get_AreFileApisANSI@@YAP6AHXZXZ@4QBW4module_id@?A0x391cf84c@@B 0000000180025e68     libucrt:winapi_thunks.obj
 0002:00003e80       ?candidate_modules@?1??try_get_FlsAlloc@@YAP6AKP6AXPEAX@Z@ZXZ@4QBW4module_id@?A0x391cf84c@@B 0000000180025e80     libucrt:winapi_thunks.obj
 0002:00003e88       ?candidate_modules@?1??try_get_FlsFree@@YAP6AHK@ZXZ@4QBW4module_id@?A0x391cf84c@@B 0000000180025e88     libucrt:winapi_thunks.obj
 0002:00003e90       ?candidate_modules@?1??try_get_FlsGetValue@@YAP6APEAXK@ZXZ@4QBW4module_id@?A0x391cf84c@@B 0000000180025e90     libucrt:winapi_thunks.obj
 0002:00003e98       ?candidate_modules@?1??try_get_FlsSetValue@@YAP6AHKPEAX@ZXZ@4QBW4module_id@?A0x391cf84c@@B 0000000180025e98     libucrt:winapi_thunks.obj
 0002:00003ea0       ?candidate_modules@?1??try_get_InitializeCriticalSectionEx@@YAP6AHPEAU_RTL_CRITICAL_SECTION@@KK@ZXZ@4QBW4module_id@?A0x391cf84c@@B 0000000180025ea0     libucrt:winapi_thunks.obj
 0002:00003ea8       ?candidate_modules@?1??try_get_LCMapStringEx@@YAP6AHPEB_WK0HPEA_WHPEAU_nlsversioninfo@@PEAX_J@ZXZ@4QBW4module_id@?A0x391cf84c@@B 0000000180025ea8     libucrt:winapi_thunks.obj
 0002:00003ec0       ?candidate_modules@?1??try_get_LocaleNameToLCID@@YAP6AKPEB_WK@ZXZ@4QBW4module_id@?A0x391cf84c@@B 0000000180025ec0     libucrt:winapi_thunks.obj
 0002:00003edc       ?candidate_modules@?1??try_get_AppPolicyGetProcessTerminationMethod@@YAP6AJPEAXPEAW4AppPolicyProcessTerminationMethod@@@ZXZ@4QBW4module_id@?A0x391cf84c@@B 0000000180025edc     libucrt:winapi_thunks.obj
 0002:00003f08       ?candidate_modules@?1??try_get_SetThreadStackGuarantee@@YAP6AHPEAK@ZXZ@4QBW4module_id@?A0x391cf84c@@B 0000000180025f08     libucrt:winapi_thunks.obj
 0002:00003f30       ?strings@?1??fp_format_nan_or_infinity@@YAHW4__acrt_fp_class@@_NPEAD_K1@Z@4QAY03QEBDA 0000000180025f30     libucrt:cvt.obj
 0002:00004690       ?_mb_locale_names@@3QBQEB_WB 0000000180026690     libucrt:mbctype.obj
 0002:00004f00       ?LcidToLocaleNameTable@?A0x881e4c05@@3QBULcidToLocaleName@1@B 0000000180026f00     libucrt:lcidtoname_downlevel.obj
 0002:00006960       ?LocaleNameToIndexTable@?A0x881e4c05@@3QBULocaleNameIndex@1@B 0000000180028960     libucrt:lcidtoname_downlevel.obj
 0002:00008b10       ?large_power_indices@?1??multiply_by_power_of_ten@__crt_strtox@@YA_NAEAUbig_integer@2@I@Z@4QBUunpack_index@?1??12@YA_N0I@Z@B 000000018002ab10     libucrt:cfout.obj
 0002:00008c00       __real_ninf                000000018002ac00     libucrt:log10.obj
 0002:00008c10       __real_inf                 000000018002ac10     libucrt:log10.obj
 0002:00008c20       __real_neg_qnan            000000018002ac20     libucrt:log10.obj
 0002:00008c30       __real_qnanbit             000000018002ac30     libucrt:log10.obj
 0002:00008c40       __int_1023                 000000018002ac40     libucrt:log10.obj
 0002:00008c50       __mask_001                 000000018002ac50     libucrt:log10.obj
 0002:00008c60       __mask_mant                000000018002ac60     libucrt:log10.obj
 0002:00008c70       __mask_mant_top8           000000018002ac70     libucrt:log10.obj
 0002:00008c80       __mask_mant9               000000018002ac80     libucrt:log10.obj
 0002:00008c90       __real_log10_e             000000018002ac90     libucrt:log10.obj
 0002:00008ca0       __real_log10_e_lead        000000018002aca0     libucrt:log10.obj
 0002:00008cb0       __real_log10_e_tail        000000018002acb0     libucrt:log10.obj
 0002:00008cc0       __real_log10_2_lead        000000018002acc0     libucrt:log10.obj
 0002:00008cd0       __real_log10_2_tail        000000018002acd0     libucrt:log10.obj
 0002:00008ce0       __real_two                 000000018002ace0     libucrt:log10.obj
 0002:00008cf0       __real_one                 000000018002acf0     libucrt:log10.obj
 0002:00008d00       __real_half                000000018002ad00     libucrt:log10.obj
 0002:00008d10       __mask_100                 000000018002ad10     libucrt:log10.obj
 0002:00008d20       __real_1_over_512          000000018002ad20     libucrt:log10.obj
 0002:00008d30       __real_1_over_2            000000018002ad30     libucrt:log10.obj
 0002:00008d40       __real_1_over_3            000000018002ad40     libucrt:log10.obj
 0002:00008d50       __real_1_over_4            000000018002ad50     libucrt:log10.obj
 0002:00008d60       __real_1_over_5            000000018002ad60     libucrt:log10.obj
 0002:00008d70       __real_1_over_6            000000018002ad70     libucrt:log10.obj
 0002:00008d80       __real_neg_1023            000000018002ad80     libucrt:log10.obj
 0002:00008d90       __mask_2045                000000018002ad90     libucrt:log10.obj
 0002:00008da0       __real_threshold           000000018002ada0     libucrt:log10.obj
 0002:00008db0       __real_near_one_lt         000000018002adb0     libucrt:log10.obj
 0002:00008dc0       __real_near_one_gt         000000018002adc0     libucrt:log10.obj
 0002:00008dd0       __real_min_norm            000000018002add0     libucrt:log10.obj
 0002:00008de0       __real_notsign             000000018002ade0     libucrt:log10.obj
 0002:00008df0       __real_ca1                 000000018002adf0     libucrt:log10.obj
 0002:00008e00       __real_ca2                 000000018002ae00     libucrt:log10.obj
 0002:00008e10       __real_ca3                 000000018002ae10     libucrt:log10.obj
 0002:00008e20       __real_ca4                 000000018002ae20     libucrt:log10.obj
 0002:00008e30       __mask_lower               000000018002ae30     libucrt:log10.obj
 0002:00008e40       __flag_x_zero              000000018002ae40     libucrt:log10.obj
 0002:00008e44       __flag_x_neg               000000018002ae44     libucrt:log10.obj
 0002:00008e48       __flag_x_nan               000000018002ae48     libucrt:log10.obj
 0002:0000a6a0       __real@433fffffffffffff    000000018002c6a0     libucrt:fpsr.obj
 0002:0000a6a8       __real@c33fffffffffffff    000000018002c6a8     libucrt:fpsr.obj
 0002:0000aef0       $unwind$?ProcessWindowMessage@?$CComControl@VCOPOSImageScanner@@V?$CWindowImpl@VCOPOSImageScanner@@VCWindow@ATL@@V?$CWinTraits@$0FGAAAAAA@$0A@@3@@ATL@@@ATL@@UEAAHPEAUHWND__@@I_K_JAEA_JK@Z 000000018002cef0     ImageScanner.obj
 0002:0000aef0       $unwind$?cw_memcpy@@YAHPEA_WPEBDH@Z 000000018002cef0     CWString.obj
 0002:0000aef0       $unwind$wcstol             000000018002cef0     libucrt:strtox.obj
 0002:0000aef0       $unwind$_log10_special     000000018002cef0     libucrt:log_special.obj
 0002:0000aef0       $unwind$_invalid_parameter_noinfo 000000018002cef0     libucrt:invalid_parameter.obj
 0002:0000aef8       $unwind$uninitialize_allocated_io_buffers 000000018002cef8     libucrt:initialization.obj
 0002:0000aef8       $unwind$__acrt_initialize_heap 000000018002cef8     libucrt:heap_handle.obj
 0002:0000aef8       $unwind$?CreateInstance@CComClassFactory@ATL@@UEAAJPEAUIUnknown@@AEBU_GUID@@PEAPEAX@Z 000000018002cef8     ImageScanner.obj
 0002:0000aef8       $unwind$??__E_AtlBaseModule@ATL@@YAXXZ 000000018002cef8     atls:atlbase.obj
 0002:0000aef8       $unwind$?Unadvise@?$IOleObjectImpl@VCOPOSImageScanner@@@ATL@@UEAAJK@Z 000000018002cef8     ImageScanner.obj
 0002:0000aef8       $unwind$?LockServer@CComClassFactory@ATL@@UEAAJH@Z 000000018002cef8     ImageScanner.obj
 0002:0000aef8       $unwind$uninitialize_environment 000000018002cef8     libucrt:initialization.obj
 0002:0000aef8       $unwind$??__F_Module@@YAXXZ 000000018002cef8     ImageScanner.obj
 0002:0000aef8       $unwind$?DefaultReflectionHandler@?$CWindowImplRoot@VCWindow@ATL@@@ATL@@SAHPEAUHWND__@@I_K_JAEA_J@Z 000000018002cef8     ImageScanner.obj
 0002:0000aef8       $unwind$?AtlThrowImpl@ATL@@YAXJ@Z 000000018002cef8     ImageScanner.obj
 0002:0000aef8       $unwind$?get_State@COPOSImageScanner@@UEAAJPEAJ@Z 000000018002cef8     ImageScannerImpl.obj
 0002:0000aef8       $unwind$?get_ResultCode@COPOSImageScanner@@UEAAJPEAJ@Z 000000018002cef8     ImageScannerImpl.obj
 0002:0000aef8       $unwind$__acrt_initialize_multibyte 000000018002cef8     libucrt:mbctype.obj
 0002:0000aef8       $unwind$?FireViewChange@CComControlBase@ATL@@QEAAJXZ 000000018002cef8     ImageScanner.obj
 0002:0000aef8       $unwind$??1OposDispParms@@QEAA@XZ 000000018002cef8     OposVariant.obj
 0002:0000aef8       $unwind$__acrt_update_thread_multibyte_data 000000018002cef8     libucrt:mbctype.obj
 0002:0000aef8       $unwind$__acrt_uninitialize_ptd 000000018002cef8     libucrt:per_thread_data.obj
 0002:0000aef8       $unwind$_get_osfhandle     000000018002cef8     libucrt:osfinfo.obj
 0002:0000aef8       $unwind$_fileno            000000018002cef8     libucrt:fileno.obj
 0002:0000aef8       $unwind$?AtlHresultFromLastError@ATL@@YAJXZ 000000018002cef8     ImageScanner.obj
 0002:0000aef8       $unwind$__acrt_initialize_ptd 000000018002cef8     libucrt:per_thread_data.obj
 0002:0000aef8       $unwind$initialize_c       000000018002cef8     libucrt:initialization.obj
 0002:0000aef8       $unwind$__acrt_thread_detach 000000018002cef8     libucrt:initialization.obj
 0002:0000aef8       $unwind$__acrt_thread_attach 000000018002cef8     libucrt:initialization.obj
 0002:0000aef8       $unwind$__acrt_uninitialize_critical 000000018002cef8     libucrt:initialization.obj
 0002:0000aef8       $unwind$__acrt_uninitialize 000000018002cef8     libucrt:initialization.obj
 0002:0000aef8       $unwind$?GetLONG@OposVariant@@QEAAJXZ 000000018002cef8     OposVariant.obj
 0002:0000aef8       $unwind$?initialize_multibyte@@YAHXZ 000000018002cef8     libucrt:multibyte_initializer.obj
 0002:0000aef8       $unwind$__vcrt_getptd      000000018002cef8     libvcruntime:per_thread_data.obj
 0002:0000aef8       $unwind$??__F_AtlWinModule@ATL@@YAXXZ 000000018002cef8     OposVariant.obj
 0002:0000aef8       $unwind$??__E_AtlWinModule@ATL@@YAXXZ 000000018002cef8     OposVariant.obj
 0002:0000aef8       $unwind$_isatty            000000018002cef8     libucrt:isatty.obj
 0002:0000aef8       $unwind$??__E_AtlComModule@ATL@@YAXXZ 000000018002cef8     OposVariant.obj
 0002:0000aef8       $unwind$_GetImageBase      000000018002cef8     libvcruntime:risctrnsctrl.obj
 0002:0000aef8       $unwind$__vcrt_freefls     000000018002cef8     libvcruntime:per_thread_data.obj
 0002:0000aef8       $unwind$?_LocCPQueryInterface@?$IConnectionPointImpl@VCOPOSImageScanner@@$1?DIID__IOPOSImageScannerEvents@@3U_GUID@@BVCComDynamicUnkArray@ATL@@@ATL@@UEAAJAEBU_GUID@@PEAPEAX@Z 000000018002cef8     ImageScanner.obj
 0002:0000aef8       $unwind$?state_case_size@?$output_processor@_WV?$string_output_adapter@_W@__crt_stdio_output@@V?$format_validation_base@_WV?$string_output_adapter@_W@__crt_stdio_output@@@2@@__crt_stdio_output@@AEAA_NXZ 000000018002cef8     libucrt:output.obj
 0002:0000aef8       $unwind$?FinalConstruct@COPOSImageScanner@@QEAAJXZ 000000018002cef8     ImageScannerImpl.obj
 0002:0000aef8       $unwind$atexit             000000018002cef8     LIBCMT:utility.obj
 0002:0000aef8       $unwind$__scrt_acquire_startup_lock 000000018002cef8     LIBCMT:utility.obj
 0002:0000aef8       $unwind$__scrt_dllmain_before_initialize_c 000000018002cef8     LIBCMT:utility.obj
 0002:0000aef8       $unwind$__scrt_dllmain_after_initialize_c 000000018002cef8     LIBCMT:utility.obj
 0002:0000aef8       $unwind$__scrt_dllmain_uninitialize_c 000000018002cef8     LIBCMT:utility.obj
 0002:0000aef8       $unwind$__scrt_dllmain_uninitialize_critical 000000018002cef8     LIBCMT:utility.obj
 0002:0000aef8       $unwind$__scrt_dllmain_crt_thread_attach 000000018002cef8     LIBCMT:utility.obj
 0002:0000aef8       $unwind$__scrt_dllmain_crt_thread_detach 000000018002cef8     LIBCMT:utility.obj
 0002:0000aef8       $unwind$__vcrt_initialize_locks 000000018002cef8     libvcruntime:locks.obj
 0002:0000aef8       $unwind$__acrt_initialize_command_line 000000018002cef8     libucrt:argv_data.obj
 0002:0000aef8       $unwind$__vcrt_thread_detach 000000018002cef8     libvcruntime:initialization.obj
 0002:0000aef8       $unwind$__vcrt_thread_attach 000000018002cef8     libvcruntime:initialization.obj
 0002:0000aef8       $unwind$_Init_thread_notify 000000018002cef8     LIBCMT:thread_safe_statics.obj
 0002:0000aef8       $unwind$?__scrt_uninitialize_thread_safe_statics@@YAXXZ 000000018002cef8     LIBCMT:thread_safe_statics.obj
 0002:0000aef8       $unwind$__doserrno         000000018002cef8     libucrt:errno.obj
 0002:0000aef8       $unwind$_errno             000000018002cef8     libucrt:errno.obj
 0002:0000aef8       $unwind$__vcrt_uninitialize_critical 000000018002cef8     libvcruntime:initialization.obj
 0002:0000aef8       $unwind$__vcrt_uninitialize 000000018002cef8     libvcruntime:initialization.obj
 0002:0000aef8       $unwind$__vcrt_initialize  000000018002cef8     libvcruntime:initialization.obj
 0002:0000aef8       $unwind$__report_rangecheckfailure 000000018002cef8     LIBCMT:gs_report.obj
 0002:0000aef8       $unwind$?GetAdvise@?$IViewObjectExImpl@VCOPOSImageScanner@@@ATL@@UEAAJPEAK0PEAPEAUIAdviseSink@@@Z 000000018002cef8     ImageScanner.obj
 0002:0000aef8       $unwind$__FrameUnwindFilter 000000018002cef8     libvcruntime:ehhelpers.obj
 0002:0000aef8       $unwind$__vcrt_initialize_ptd 000000018002cef8     libvcruntime:per_thread_data.obj
 0002:0000aef8       $unwind$_purecall          000000018002cef8     libvcruntime:purevirt.obj
 0002:0000aef8       $unwind$__GSHandlerCheck   000000018002cef8     LIBCMT:gshandler.obj
 0002:0000aef8       $unwind$abort              000000018002cef8     libucrt:abort.obj
 0002:0000aef8       $unwind$?cw_strcpy@@YAHPEA_WPEBD@Z 000000018002cef8     CWString.obj
 0002:0000aef8       $unwind$?GetCurrentState@__FrameHandler3@@SAHPEA_KPEAU_xDISPATCHER_CONTEXT@@PEBU_s_FuncInfo@@@Z 000000018002cef8     libvcruntime:ehstate.obj
 0002:0000aef8       $unwind$??$uninitialize_environment_internal@_W@@YAXAEAPEAPEA_W@Z 000000018002cef8     libucrt:environment_initialization.obj
 0002:0000aef8       $unwind$__dcrt_terminate_console_output 000000018002cef8     libucrt:initcon.obj
 0002:0000aef8       $unwind$??$uninitialize_environment_internal@D@@YAXAEAPEAPEAD@Z 000000018002cef8     libucrt:environment_initialization.obj
 0002:0000aef8       $unwind$__dcrt_uninitialize_environments_nolock 000000018002cef8     libucrt:environment_initialization.obj
 0002:0000aef8       $unwind$_msize_base        000000018002cef8     libucrt:msize.obj
 0002:0000aef8       $unwind$?_LocCPQueryInterface@?$IConnectionPointImpl@VCOPOSImageScanner@@$1?IID_IPropertyNotifySink@@3U_GUID@@BVCComDynamicUnkArray@ATL@@@ATL@@UEAAJAEBU_GUID@@PEAPEAX@Z 000000018002cef8     ImageScanner.obj
 0002:0000aef8       $unwind$?OnDocWindowActivate@?$IOleInPlaceActiveObjectImpl@VCOPOSImageScanner@@@ATL@@UEAAJH@Z 000000018002cef8     ImageScanner.obj
 0002:0000aef8       $unwind$_set_errno_from_matherr 000000018002cef8     libucrt:fpexcept.obj
 0002:0000aef8       $unwind$__vcrt_uninitialize_ptd 000000018002cef8     libvcruntime:per_thread_data.obj
 0002:0000aef8       $unwind$__acrt_AreFileApisANSI 000000018002cef8     libucrt:winapi_thunks.obj
 0002:0000aef8       $unwind$_GetThrowImageBase 000000018002cef8     libvcruntime:risctrnsctrl.obj
 0002:0000aef8       $unwind$_statfp            000000018002cef8     libucrt:fpctrl.obj
 0002:0000aef8       $unwind$__acrt_release_locale_ref 000000018002cef8     libucrt:locale_refcounting.obj
 0002:0000aef8       $unwind$?EnumAdvise@?$IOleObjectImpl@VCOPOSImageScanner@@@ATL@@UEAAJPEAPEAUIEnumSTATDATA@@@Z 000000018002cef8     ImageScanner.obj
 0002:0000aef8       $unwind$__pctype_func      000000018002cef8     libucrt:ctype.obj
 0002:0000aef8       $unwind$?dllmain_crt_dispatch@@YAHQEAUHINSTANCE__@@KQEAX@Z 000000018002cef8     LIBCMT:dll_dllmain.obj
 0002:0000aef8       $unwind$__scrt_initialize_default_local_stdio_options 000000018002cef8     LIBCMT:default_local_stdio_options.obj
 0002:0000aef8       $unwind$?AddReplacement@CRegObject@ATL@@UEAAJPEB_W0@Z 000000018002cef8     ImageScanner.obj
 0002:0000aef8       $unwind$??__E?pConnMap@?$IConnectionPointContainerImpl@VCOPOSImageScanner@@@ATL@@0PEBU_ATL_CONNMAP_ENTRY@2@EB@@YAXXZ 000000018002cef8     ImageScanner.obj
 0002:0000aef8       $unwind$_invoke_watson     000000018002cef8     libucrt:invalid_parameter.obj
 0002:0000af00       $unwind$?GetPagesHelper@?$ISpecifyPropertyPagesImpl@VCOPOSImageScanner@@@ATL@@IEAAJPEAUtagCAUUID@@PEBUATL_PROPMAP_ENTRY@2@@Z 000000018002cf00     ImageScanner.obj
 0002:0000af00       $unwind$__acrt_initialize_stdio 000000018002cf00     libucrt:_file.obj
 0002:0000af00       $unwind$?CreateInstance@?$CComCreator@V?$CComAggObject@VCOPOSImageScanner@@@ATL@@@ATL@@SAJPEAXAEBU_GUID@@PEAPEAX@Z 000000018002cf00     ImageScanner.obj
 0002:0000af00       $unwind$?cw_dup@@YAXPEBDAEAHAEAPEA_W1@Z 000000018002cf00     CWString.obj
 0002:0000af00       $unwind$?initialize_stdio_handles_nolock@@YAXXZ 000000018002cf00     libucrt:ioinit.obj
 0002:0000af00       $unwind$__GSHandlerCheck_SEH 000000018002cf00     LIBCMT:gshandlerseh.obj
 0002:0000af00       $unwind$?AtlComModuleRegisterServer@ATL@@YAJPEAU_ATL_COM_MODULE70@1@HPEBU_GUID@@@Z 000000018002cf00     ImageScanner.obj
 0002:0000af00       $unwind$?AtlComModuleUnregisterServer@ATL@@YAJPEAU_ATL_COM_MODULE70@1@HPEBU_GUID@@@Z 000000018002cf00     ImageScanner.obj
 0002:0000af00       $unwind$??$TypeMatchHelper@V__FrameHandler3@@@@YAHPEBU_s_HandlerType@@PEBU_s_CatchableType@@PEBU_s_ThrowInfo@@@Z 000000018002cf00     libvcruntime:frame.obj
 0002:0000af00       $unwind$?AtlModuleAddTermFunc@ATL@@YAJPEAU_ATL_MODULE70@1@P6AX_K@Z1@Z 000000018002cf00     ImageScanner.obj
 0002:0000af00       $unwind$??_Estringdispid@CComTypeInfoHolder@ATL@@QEAAPEAXI@Z 000000018002cf00     OposVariant.obj
 0002:0000af00       $unwind$?CreateInstance@?$CComCreator@V?$CComObjectCached@VCComClassFactory@ATL@@@ATL@@@ATL@@SAJPEAXAEBU_GUID@@PEAPEAX@Z 000000018002cf00     ImageScanner.obj
 0002:0000af18       $unwind$?get_CapUpdateFirmware@COPOSImageScanner@@UEAAJPEAF@Z 000000018002cf18     ImageScannerImpl.obj
 0002:0000af18       $unwind$?get_CapAim@COPOSImageScanner@@UEAAJPEAF@Z 000000018002cf18     ImageScannerImpl.obj
 0002:0000af18       $unwind$__acrt_update_multibyte_info 000000018002cf18     libucrt:locale_update.obj
 0002:0000af18       $unwind$?get_CapDecodeData@COPOSImageScanner@@UEAAJPEAF@Z 000000018002cf18     ImageScannerImpl.obj
 0002:0000af18       $unwind$__acrt_update_locale_info 000000018002cf18     libucrt:locale_update.obj
 0002:0000af18       $unwind$?get_CapHostTriggered@COPOSImageScanner@@UEAAJPEAF@Z 000000018002cf18     ImageScannerImpl.obj
 0002:0000af18       $unwind$?get_CapIlluminate@COPOSImageScanner@@UEAAJPEAF@Z 000000018002cf18     ImageScannerImpl.obj
 0002:0000af18       $unwind$?get_CapImageData@COPOSImageScanner@@UEAAJPEAF@Z 000000018002cf18     ImageScannerImpl.obj
 0002:0000af18       $unwind$?get_CapImageQuality@COPOSImageScanner@@UEAAJPEAF@Z 000000018002cf18     ImageScannerImpl.obj
 0002:0000af18       $unwind$?get_CapVideoData@COPOSImageScanner@@UEAAJPEAF@Z 000000018002cf18     ImageScannerImpl.obj
 0002:0000af18       $unwind$?exit_or_terminate_process@@YAXI@Z 000000018002cf18     libucrt:exit.obj
 0002:0000af18       $unwind$?get_AimMode@COPOSImageScanner@@UEAAJPEAF@Z 000000018002cf18     ImageScannerImpl.obj
 0002:0000af18       $unwind$?try_cor_exit_process@@YAXI@Z 000000018002cf18     libucrt:exit.obj
 0002:0000af18       $unwind$?get_IlluminateMode@COPOSImageScanner@@UEAAJPEAF@Z 000000018002cf18     ImageScannerImpl.obj
 0002:0000af18       $unwind$__acrt_SetThreadStackGuarantee 000000018002cf18     libucrt:winapi_thunks.obj
 0002:0000af18       $unwind$__acrt_AppPolicyGetProcessTerminationMethodInternal 000000018002cf18     libucrt:winapi_thunks.obj
 0002:0000af18       $unwind$__acrt_FlsGetValue 000000018002cf18     libucrt:winapi_thunks.obj
 0002:0000af18       $unwind$__acrt_FlsFree     000000018002cf18     libucrt:winapi_thunks.obj
 0002:0000af18       $unwind$__acrt_FlsAlloc    000000018002cf18     libucrt:winapi_thunks.obj
 0002:0000af18       $unwind$__acrt_uninitialize_winapi_thunks 000000018002cf18     libucrt:winapi_thunks.obj
 0002:0000af18       $unwind$_malloc_base       000000018002cf18     libucrt:malloc_base.obj
 0002:0000af18       $unwind$_calloc_base       000000018002cf18     libucrt:calloc_base.obj
 0002:0000af18       $unwind$__acrt_freeptd     000000018002cf18     libucrt:per_thread_data.obj
 0002:0000af18       $unwind$__acrt_getptd_head 000000018002cf18     libucrt:per_thread_data.obj
 0002:0000af18       $unwind$strcpy_s           000000018002cf18     libucrt:strcpy_s.obj
 0002:0000af18       $unwind$_callnewh          000000018002cf18     libucrt:new_handler.obj
 0002:0000af18       $unwind$uninitialize_allocated_memory 000000018002cf18     libucrt:initialization.obj
 0002:0000af18       $unwind$initialize_pointers 000000018002cf18     libucrt:initialization.obj
 0002:0000af18       $unwind$??1CAtlBaseModule@ATL@@QEAA@XZ 000000018002cf18     atls:atlbase.obj
 0002:0000af18       $unwind$??0bad_exception@std@@QEAA@AEBV01@@Z 000000018002cf18     libvcruntime:frame.obj
 0002:0000af18       $unwind$AtlThunk_AllocateData 000000018002cf18     atls:atlthunk.obj
 0002:0000af18       $unwind$_set_statfp        000000018002cf18     libucrt:fpctrl.obj
 0002:0000af18       $unwind$?GetUnwindTryBlock@__FrameHandler3@@SAHPEA_KPEAU_xDISPATCHER_CONTEXT@@PEBU_s_FuncInfo@@@Z 000000018002cf18     libvcruntime:ehstate.obj
 0002:0000af18       $unwind$?StateFromIp@__FrameHandler3@@SAHPEBU_s_FuncInfo@@PEAU_xDISPATCHER_CONTEXT@@_K@Z 000000018002cf18     libvcruntime:ehstate.obj
 0002:0000af18       $unwind$_IsExceptionObjectToBeDestroyed 000000018002cf18     libvcruntime:ehhelpers.obj
 0002:0000af18       $unwind$__vcrt_uninitialize_locks 000000018002cf18     libvcruntime:locks.obj
 0002:0000af18       $unwind$_clearfp           000000018002cf18     libucrt:ieee.obj
 0002:0000af18       $unwind$?ExecutionInCatch@__FrameHandler3@@SA_NPEAU_xDISPATCHER_CONTEXT@@PEBU_s_FuncInfo@@@Z 000000018002cf18     libvcruntime:risctrnsctrl.obj
 0002:0000af18       $unwind$__vcrt_freeptd     000000018002cf18     libvcruntime:per_thread_data.obj
 0002:0000af18       $unwind$_SetImageBase      000000018002cf18     libvcruntime:risctrnsctrl.obj
 0002:0000af18       $unwind$feholdexcept       000000018002cf18     libucrt:feholdexcept.obj
 0002:0000af18       $unwind$fesetenv           000000018002cf18     libucrt:fesetenv.obj
 0002:0000af18       $unwind$_SetThrowImageBase 000000018002cf18     libvcruntime:risctrnsctrl.obj
 0002:0000af18       $unwind$_onexit            000000018002cf18     LIBCMT:utility.obj
 0002:0000af18       $unwind$fegetenv           000000018002cf18     libucrt:fegetenv.obj
 0002:0000af18       $unwind$__scrt_release_startup_lock 000000018002cf18     LIBCMT:utility.obj
 0002:0000af18       $unwind$__scrt_initialize_crt 000000018002cf18     LIBCMT:utility.obj
 0002:0000af18       $unwind$__scrt_uninitialize_crt 000000018002cf18     LIBCMT:utility.obj
 0002:0000af18       $unwind$__scrt_initialize_onexit_tables 000000018002cf18     LIBCMT:utility.obj
 0002:0000af18       $unwind$_CreateFrameInfo   000000018002cf18     libvcruntime:risctrnsctrl.obj
 0002:0000af18       $unwind$__std_exception_destroy 000000018002cf18     libvcruntime:std_exception.obj
 0002:0000af18       $unwind$?DupWide@_CW@@AEAAXXZ 000000018002cf18     CWString.obj
 0002:0000af18       $unwind$??0CAtlComModule@ATL@@QEAA@XZ 000000018002cf18     OposVariant.obj
 0002:0000af18       $unwind$?EventUninit@COPOSImageScanner@@IEAAXXZ 000000018002cf18     ImageScannerImpl.obj
 0002:0000af18       $unwind$??0CAtlWinModule@ATL@@QEAA@XZ 000000018002cf18     OposVariant.obj
 0002:0000af18       $unwind$__std_type_info_destroy_list 000000018002cf18     libvcruntime:std_type_info.obj
 0002:0000af18       $unwind$__acrt_stdio_free_buffer_nolock 000000018002cf18     libucrt:_freebuf.obj
 0002:0000af18       $unwind$??0CAtlModule@ATL@@QEAA@XZ 000000018002cf18     ImageScanner.obj
 0002:0000af18       $unwind$wcscpy_s           000000018002cf18     libucrt:wcscpy_s.obj
 0002:0000af18       $unwind$?AllocateHeap@?$CTempBuffer@_W$0EAA@VCCRTAllocator@ATL@@@ATL@@AEAAX_K@Z 000000018002cf18     ImageScanner.obj
 0002:0000af18       $unwind$wcscat_s           000000018002cf18     libucrt:wcscat_s.obj
 0002:0000af18       $unwind$_Init_thread_header 000000018002cf18     LIBCMT:thread_safe_statics.obj
 0002:0000af18       $unwind$_Init_thread_footer 000000018002cf18     LIBCMT:thread_safe_statics.obj
 0002:0000af18       $unwind$_Init_thread_wait  000000018002cf18     LIBCMT:thread_safe_statics.obj
 0002:0000af18       $unwind$?AllocateHeap@?$CTempBuffer@_W$0BAA@VCCRTAllocator@ATL@@@ATL@@AEAAX_K@Z 000000018002cf18     ImageScanner.obj
 0002:0000af18       $unwind$?AllocateHeap@?$CTempBuffer@E$0BAA@VCCRTAllocator@ATL@@@ATL@@AEAAX_K@Z 000000018002cf18     ImageScanner.obj
 0002:0000af18       $unwind$?IsEqualObject@?$CComPtrBase@UITypeInfo@@@ATL@@QEAA_NPEAUIUnknown@@@Z 000000018002cf18     ImageScanner.obj
 0002:0000af18       $unwind$_fflush_nolock     000000018002cf18     libucrt:fflush.obj
 0002:0000af18       $unwind$?AtlCreateTargetDC@ATL@@YAPEAUHDC__@@PEAU2@PEAUtagDVTARGETDEVICE@@@Z 000000018002cf18     ImageScanner.obj
 0002:0000af18       $unwind$?IsEqualObject@?$CComPtrBase@UIOleClientSite@@@ATL@@QEAA_NPEAUIUnknown@@@Z 000000018002cf18     ImageScanner.obj
 0002:0000af18       $unwind$?IOleObject_SetExtent@CComControlBase@ATL@@QEAAJKPEAUtagSIZE@@@Z 000000018002cf18     ImageScanner.obj
 0002:0000af18       $unwind$?IOleInPlaceObject_InPlaceDeactivate@CComControlBase@ATL@@QEAAJXZ 000000018002cf18     ImageScanner.obj
 0002:0000af18       $unwind$?GetTypeInfo@?$IDispatchImpl@UIOPOSImageScanner@@$1?IID_IOPOSImageScanner@@3U_GUID@@B$1?LIBID_OposImageScanner_CCO@@3U3@B$00$0A@VCComTypeInfoHolder@ATL@@@ATL@@UEAAJIKPEAPEAUITypeInfo@@@Z 000000018002cf18     ImageScanner.obj
 0002:0000af18       $unwind$__raise_securityfailure 000000018002cf18     LIBCMT:gs_report.obj
 0002:0000af18       $unwind$?Load@?$IPersistStreamInitImpl@VCOPOSImageScanner@@@ATL@@UEAAJPEAUIStream@@@Z 000000018002cf18     ImageScanner.obj
 0002:0000af18       $unwind$?GetClientSite@?$IOleObjectImpl@VCOPOSImageScanner@@@ATL@@UEAAJPEAPEAUIOleClientSite@@@Z 000000018002cf18     ImageScanner.obj
 0002:0000af18       $unwind$?QueryHitPoint@?$IViewObjectExImpl@VCOPOSImageScanner@@@ATL@@UEAAJKPEBUtagRECT@@UtagPOINT@@JPEAK@Z 000000018002cf18     ImageScanner.obj
 0002:0000af18       $unwind$?IPSI_GetIPersistStreamInit@?$IPersistStorageImpl@VCOPOSImageScanner@@@ATL@@AEAAPEAUIPersistStreamInit@@XZ 000000018002cf18     ImageScanner.obj
 0002:0000af18       $unwind$?GetClassInfoW@?$IProvideClassInfo2Impl@$1?CLSID_OPOSImageScanner@@3U_GUID@@B$1?DIID__IOPOSImageScannerEvents@@3U2@B$1?LIBID_OposImageScanner_CCO@@3U2@B$00$0A@VCComTypeInfoHolder@ATL@@@ATL@@UEAAJPEAPEAUITypeInfo@@@Z 000000018002cf18     ImageScanner.obj
 0002:0000af18       $unwind$?Unadvise@?$IConnectionPointImpl@VCOPOSImageScanner@@$1?IID_IPropertyNotifySink@@3U_GUID@@BVCComDynamicUnkArray@ATL@@@ATL@@UEAAJK@Z 000000018002cf18     ImageScanner.obj
 0002:0000af18       $unwind$?Unadvise@?$IConnectionPointImpl@VCOPOSImageScanner@@$1?DIID__IOPOSImageScannerEvents@@3U_GUID@@BVCComDynamicUnkArray@ATL@@@ATL@@UEAAJK@Z 000000018002cf18     ImageScanner.obj
 0002:0000af18       $unwind$?GetConnMap@COPOSImageScanner@@SAPEBU_ATL_CONNMAP_ENTRY@ATL@@PEAH@Z 000000018002cf18     ImageScanner.obj
 0002:0000af18       $unwind$??__E_Module@@YAXXZ 000000018002cf18     ImageScanner.obj
 0002:0000af18       $unwind$_clrfp             000000018002cf18     libucrt:fpctrl.obj
 0002:0000af18       $unwind$?AddRef@?$CComObjectCached@VCComClassFactory@ATL@@@ATL@@UEAAKXZ 000000018002cf18     ImageScanner.obj
 0002:0000af18       $unwind$?Release@?$CComObjectCached@VCComClassFactory@ATL@@@ATL@@UEAAKXZ 000000018002cf18     ImageScanner.obj
 0002:0000af18       $unwind$?QueryInterface@?$CComAggObject@VCOPOSImageScanner@@@ATL@@UEAAJAEBU_GUID@@PEAPEAX@Z 000000018002cf18     ImageScanner.obj
 0002:0000af18       $unwind$??0?$CComObject@VCOPOSImageScanner@@@ATL@@QEAA@PEAX@Z 000000018002cf18     ImageScanner.obj
 0002:0000af18       $unwind$??1?$CComObject@VCOPOSImageScanner@@@ATL@@UEAA@XZ 000000018002cf18     ImageScanner.obj
 0002:0000af18       $unwind$__acrt_get_process_end_policy 000000018002cf18     libucrt:win_policies.obj
 0002:0000af18       $unwind$__acrt_uninitialize_locks 000000018002cf18     libucrt:locks.obj
 0002:0000af18       $unwind$__acrt_initialize_locks 000000018002cf18     libucrt:locks.obj
 0002:0000af18       $unwind$??1CComControlBase@ATL@@UEAA@XZ 000000018002cf18     ImageScannerImpl.obj
 0002:0000af18       $unwind$??1COPOSImageScanner@@UEAA@XZ 000000018002cf18     ImageScannerImpl.obj
 0002:0000af18       $unwind$__vcrt_FlsGetValue 000000018002cf18     libvcruntime:winapi_downlevel.obj
 0002:0000af18       $unwind$?FreezeEvents@COPOSImageScanner@@MEAAJH@Z 000000018002cf18     ImageScannerImpl.obj
 0002:0000af18       $unwind$__vcrt_FlsFree     000000018002cf18     libvcruntime:winapi_downlevel.obj
 0002:0000af18       $unwind$?SOProcessID@COPOSImageScanner@@UEAAJPEAJ@Z 000000018002cf18     ImageScannerImpl.obj
 0002:0000af18       $unwind$__vcrt_FlsAlloc    000000018002cf18     libvcruntime:winapi_downlevel.obj
 0002:0000af18       $unwind$__acrt_uninitialize_stdio 000000018002cf18     libucrt:_file.obj
 0002:0000af18       $unwind$?get_AutoDisable@COPOSImageScanner@@UEAAJPEAF@Z 000000018002cf18     ImageScannerImpl.obj
 0002:0000af18       $unwind$?get_Claimed@COPOSImageScanner@@UEAAJPEAF@Z 000000018002cf18     ImageScannerImpl.obj
 0002:0000af18       $unwind$?get_DataEventEnabled@COPOSImageScanner@@UEAAJPEAF@Z 000000018002cf18     ImageScannerImpl.obj
 0002:0000af18       $unwind$?get_DeviceEnabled@COPOSImageScanner@@UEAAJPEAF@Z 000000018002cf18     ImageScannerImpl.obj
 0002:0000af18       $unwind$?get_FreezeEvents@COPOSImageScanner@@UEAAJPEAF@Z 000000018002cf18     ImageScannerImpl.obj
 0002:0000af18       $unwind$??2@YAPEAX_K@Z     000000018002cf18     LIBCMT:new_scalar.obj
 0002:0000af18       $unwind$?put_FreezeEvents@COPOSImageScanner@@UEAAJF@Z 000000018002cf18     ImageScannerImpl.obj
 0002:0000af18       $unwind$??0exception@std@@QEAA@AEBV01@@Z 000000018002cf18     LIBCMT:throw_bad_alloc.obj
 0002:0000af18       $unwind$??0bad_alloc@std@@QEAA@AEBV01@@Z 000000018002cf18     LIBCMT:throw_bad_alloc.obj
 0002:0000af18       $unwind$?get_CapStatisticsReporting@COPOSImageScanner@@UEAAJPEAF@Z 000000018002cf18     ImageScannerImpl.obj
 0002:0000af18       $unwind$??0bad_array_new_length@std@@QEAA@AEBV01@@Z 000000018002cf18     LIBCMT:throw_bad_alloc.obj
 0002:0000af18       $unwind$__acrt_allocate_buffer_for_argv 000000018002cf18     libucrt:argv_parsing.obj
 0002:0000af18       $unwind$??_Gtype_info@@UEAAPEAXI@Z 000000018002cf18     LIBCMT:std_type_info_static.obj
 0002:0000af18       $unwind$?get_CapUpdateStatistics@COPOSImageScanner@@UEAAJPEAF@Z 000000018002cf18     ImageScannerImpl.obj
 0002:0000af18       $unwind$?get_CapCompareFirmwareVersion@COPOSImageScanner@@UEAAJPEAF@Z 000000018002cf18     ImageScannerImpl.obj
 0002:0000af18       $unwind$?ExFilterRethrow@@YAHPEAU_EXCEPTION_POINTERS@@PEAUEHExceptionRecord@@PEAH@Z 000000018002cf18     libvcruntime:frame.obj
 0002:0000af20       $unwind$?setSBCS@@YAXPEAU__crt_multibyte_data@@@Z 000000018002cf20     libucrt:mbctype.obj
 0002:0000af20       $unwind$?DoEvent@COPOSImageScanner@@IEAAXI_K_J@Z 000000018002cf20     ImageScanner.obj
 0002:0000af20       $unwind$?Next@?$CComEnumImpl@UIEnumConnectionPoints@@$1?_GUID_b196b285_bab4_101a_b69c_00aa00341d07@@3U__s_GUID@@BPEAUIConnectionPoint@@V?$_CopyInterface@UIConnectionPoint@@@ATL@@@ATL@@UEAAJKPEAPEAUIConnectionPoint@@PEAK@Z 000000018002cf20     ImageScanner.obj
 0002:0000af20       $unwind$_initterm          000000018002cf20     libucrt:initterm.obj
 0002:0000af20       $unwind$?Append@CParseBuffer@CRegParser@ATL@@QEAAHPEB_WH@Z 000000018002cf20     ImageScanner.obj
 0002:0000af20       $unwind$?SetControlFocus@CComControlBase@ATL@@QEAAHH@Z 000000018002cf20     ImageScanner.obj
 0002:0000af20       $unwind$?GetHandlerSearchState@__FrameHandler3@@SAHPEA_KPEAU_xDISPATCHER_CONTEXT@@PEBU_s_FuncInfo@@@Z 000000018002cf20     libvcruntime:frame.obj
 0002:0000af20       $unwind$?HKeyFromString@CRegParser@ATL@@KAPEAUHKEY__@@PEA_W@Z 000000018002cf20     ImageScanner.obj
 0002:0000af20       $unwind$?AtlWinModuleTerm@ATL@@YAJPEAU_ATL_WIN_MODULE70@1@PEAUHINSTANCE__@@@Z 000000018002cf20     OposVariant.obj
 0002:0000af20       $unwind$__acrt_free_locale 000000018002cf20     libucrt:locale_refcounting.obj
 0002:0000af20       $unwind$?AtlWinModuleExtractCreateWndData@ATL@@YAPEAXPEAU_ATL_WIN_MODULE70@1@@Z 000000018002cf20     ImageScanner.obj
 0002:0000af20       $unwind$__acrt_lowio_create_handle_array 000000018002cf20     libucrt:osfinfo.obj
 0002:0000af20       $unwind$??$ensure_buffer_is_big_enough@_W@formatting_buffer@__crt_stdio_output@@QEAA_N_K@Z 000000018002cf20     libucrt:output.obj
 0002:0000af20       $unwind$?SODirectIO@COPOSImageScanner@@MEAAJJPEAJPEAPEA_W@Z 000000018002cf20     ImageScanner.obj
 0002:0000af20       $unwind$?CreateInstance@?$CComCreator@V?$CComObject@VCOPOSImageScanner@@@ATL@@@ATL@@SAJPEAXAEBU_GUID@@PEAPEAX@Z 000000018002cf20     ImageScanner.obj
 0002:0000af20       $unwind$_seh_filter_exe    000000018002cf20     libucrt:exception_filter.obj
 0002:0000af20       $unwind$?Next@?$CComEnumImpl@UIEnumConnections@@$1?_GUID_b196b287_bab4_101a_b69c_00aa00341d07@@3U__s_GUID@@BUtagCONNECTDATA@@V?$_Copy@UtagCONNECTDATA@@@ATL@@@ATL@@UEAAJKPEAUtagCONNECTDATA@@PEAK@Z 000000018002cf20     ImageScanner.obj
 0002:0000af20       $unwind$??$ensure_buffer_is_big_enough@D@formatting_buffer@__crt_stdio_output@@QEAA_N_K@Z 000000018002cf20     libucrt:output.obj
 0002:0000af20       $unwind$?Is_bad_exception_allowed@@YAEPEBU_s_ESTypeList@@@Z 000000018002cf20     libvcruntime:frame.obj
 0002:0000af20       $unwind$__scrt_dllmain_exception_filter 000000018002cf20     LIBCMT:utility.obj
 0002:0000af20       $unwind$?DoVerb@?$IOleObjectImpl@VCOPOSImageScanner@@@ATL@@UEAAJJPEAUtagMSG@@PEAUIOleClientSite@@JPEAUHWND__@@PEBUtagRECT@@@Z 000000018002cf20     ImageScanner.obj
 0002:0000af20       $unwind$?s_EventWindowProc@COPOSImageScanner@@KA_JPEAUHWND__@@I_K_J@Z 000000018002cf20     ImageScannerImpl.obj
 0002:0000af20       $unwind$_recalloc_base     000000018002cf20     libucrt:recalloc.obj
 0002:0000af34       $unwind$__acrt_InitializeCriticalSectionEx 000000018002cf34     libucrt:winapi_thunks.obj
 0002:0000af34       $unwind$__vcrt_getptd_noexit 000000018002cf34     libvcruntime:per_thread_data.obj
 0002:0000af34       $unwind$??$common_lseek_nolock@_J@@YA_JH_JH@Z 000000018002cf34     libucrt:lseek.obj
 0002:0000af34       $unwind$?Term@CAtlComModule@ATL@@QEAAXXZ 000000018002cf34     OposVariant.obj
 0002:0000af34       $unwind$?Add@CComDynamicUnkArray@ATL@@QEAAKPEAUIUnknown@@@Z 000000018002cf34     ImageScanner.obj
 0002:0000af34       $unwind$__acrt_stdio_flush_nolock 000000018002cf34     libucrt:fflush.obj
 0002:0000af34       $unwind$memcpy_s           000000018002cf34     libucrt:cfout.obj
 0002:0000af34       $unwind$?AtlCallTermFunc@ATL@@YAXPEAU_ATL_MODULE70@1@@Z 000000018002cf34     ImageScanner.obj
 0002:0000af34       $unwind$?SetLONG_Ptr@OposVariant@@QEAAXPEAJAEAJ@Z 000000018002cf34     OposVariant.obj
 0002:0000af34       $unwind$??0_LocaleUpdate@@QEAA@QEAU__crt_locale_pointers@@@Z 000000018002cf34     libucrt:output.obj
 0002:0000af34       $unwind$?SetBSTR_Copy@OposVariant@@QEAAXPEA_WAEAJ@Z 000000018002cf34     OposVariant.obj
 0002:0000af34       $unwind$?SetBSTR_InOutPtr@OposVariant@@QEAA_NPEAPEA_WAEAJ@Z 000000018002cf34     OposVariant.obj
 0002:0000af34       $unwind$?Add@?$CSimpleArray@GV?$CSimpleArrayEqualHelper@G@ATL@@@ATL@@QEAAHAEBG@Z 000000018002cf34     ImageScanner.obj
 0002:0000af34       $unwind$?SetString@OposVariant@@QEAAXPEB_WAEAJ@Z 000000018002cf34     OposVariant.obj
 0002:0000af34       $unwind$?SetDispatch_Ptr@OposVariant@@QEAAXPEAUIDispatch@@AEAJ@Z 000000018002cf34     OposVariant.obj
 0002:0000af34       $unwind$__acrt_getptd      000000018002cf34     libucrt:per_thread_data.obj
 0002:0000af34       $unwind$??0OposDispParms@@QEAA@PEAVOposVariant@@H@Z 000000018002cf34     OposVariant.obj
 0002:0000af34       $unwind$??_GCRegObject@ATL@@UEAAPEAXI@Z 000000018002cf34     ImageScanner.obj
 0002:0000af34       $unwind$__acrt_getptd_noexit 000000018002cf34     libucrt:per_thread_data.obj
 0002:0000af34       $unwind$?VTFromRegType@CRegParser@ATL@@KAHPEB_WAEAG@Z 000000018002cf34     ImageScanner.obj
 0002:0000af34       $unwind$?type_case_n@?$output_processor@_WV?$string_output_adapter@_W@__crt_stdio_output@@V?$format_validation_base@_WV?$string_output_adapter@_W@__crt_stdio_output@@@2@@__crt_stdio_output@@AEAA_NXZ 000000018002cf34     libucrt:output.obj
 0002:0000af34       $unwind$?ClearReplacements@CExpansionVector@ATL@@QEAAJXZ 000000018002cf34     ImageScanner.obj
 0002:0000af34       $unwind$?Add@?$CSimpleMap@PEA_WPEA_WVCExpansionVectorEqualHelper@ATL@@@ATL@@QEAAHAEBQEA_W0@Z 000000018002cf34     ImageScanner.obj
 0002:0000af34       $unwind$??_GCComModule@ATL@@UEAAPEAXI@Z 000000018002cf34     ImageScanner.obj
 0002:0000af34       $unwind$memcpy_s           000000018002cf34     ImageScanner.obj
 0002:0000af34       $unwind$?free_crt_array_internal@@YAXQEAPEBX_K@Z 000000018002cf34     libucrt:inittime.obj
 0002:0000af34       $unwind$?UnregisterServer@CComModule@ATL@@QEAAJHPEBU_GUID@@@Z 000000018002cf34     ImageScanner.obj
 0002:0000af34       $unwind$?RegisterServer@CComModule@ATL@@QEAAJHPEBU_GUID@@@Z 000000018002cf34     ImageScanner.obj
 0002:0000af34       $unwind$_exception_enabled 000000018002cf34     libucrt:libm_error.obj
 0002:0000af34       $unwind$?type_case_s@?$output_processor@_WV?$string_output_adapter@_W@__crt_stdio_output@@V?$format_validation_base@_WV?$string_output_adapter@_W@__crt_stdio_output@@@2@@__crt_stdio_output@@AEAA_NXZ 000000018002cf34     libucrt:output.obj
 0002:0000af34       $unwind$?CatchTryBlock@__FrameHandler3@@SAPEBU_s_TryBlockMapEntry@@PEBU_s_FuncInfo@@H@Z 000000018002cf34     libvcruntime:risctrnsctrl.obj
 0002:0000af34       $unwind$?type_case_Z@?$output_processor@_WV?$string_output_adapter@_W@__crt_stdio_output@@V?$format_validation_base@_WV?$string_output_adapter@_W@__crt_stdio_output@@@2@@__crt_stdio_output@@AEAA_NXZ 000000018002cf34     libucrt:output.obj
 0002:0000af34       $unwind$?FrameUnwindToEmptyState@__FrameHandler3@@SAXPEA_KPEAU_xDISPATCHER_CONTEXT@@PEBU_s_FuncInfo@@@Z 000000018002cf34     libvcruntime:risctrnsctrl.obj
 0002:0000af34       $unwind$__vcrt_InitializeCriticalSectionEx 000000018002cf34     libvcruntime:winapi_downlevel.obj
 0002:0000af34       $unwind$__acrt_execute_initializers 000000018002cf34     libucrt:shared_initialization.obj
 0002:0000af34       $unwind$?Advise@?$IOleObjectImpl@VCOPOSImageScanner@@@ATL@@UEAAJPEAUIAdviseSink@@PEAK@Z 000000018002cf34     ImageScanner.obj
 0002:0000af34       $unwind$_DllMainCRTStartup 000000018002cf34     LIBCMT:dll_dllmain.obj
 0002:0000af44       $unwind$??_G?$CComObject@VCOPOSImageScanner@@@ATL@@UEAAPEAXI@Z 000000018002cf44     ImageScanner.obj
 0002:0000af44       $unwind$_initterm_e        000000018002cf44     libucrt:initterm.obj
 0002:0000af44       $unwind$?__InitializeThunkPool@@YAHXZ 000000018002cf44     atls:atlthunk.obj
 0002:0000af44       $unwind$?IsDirty@?$IPersistStorageImpl@VCOPOSImageScanner@@@ATL@@UEAAJXZ 000000018002cf44     ImageScanner.obj
 0002:0000af44       $unwind$?__AllocStdCallThunk_cmn@@YAPEAXXZ 000000018002cf44     atls:atlthunk.obj
 0002:0000af44       $unwind$??_GCComClassFactory@ATL@@UEAAPEAXI@Z 000000018002cf44     ImageScanner.obj
 0002:0000af44       $unwind$??$GetProcAddressAll@P6AP6A_JPEAUHWND__@@I_K_J@ZPEAUAtlThunkData_t@@@Z@@YAP6AP6A_JPEAUHWND__@@I_K_J@ZPEAUAtlThunkData_t@@@ZPEAP6AP6A_J0I12@Z3@Z@Z 000000018002cf44     atls:atlthunk.obj
 0002:0000af44       $unwind$?SOStatusUpdate@COPOSImageScanner@@MEAAJJ@Z 000000018002cf44     ImageScanner.obj
 0002:0000af44       $unwind$?SetUnwindTryBlock@__FrameHandler3@@SAXPEA_KPEAU_xDISPATCHER_CONTEXT@@PEBU_s_FuncInfo@@H@Z 000000018002cf44     libvcruntime:ehstate.obj
 0002:0000af44       $unwind$??1?$CComEnumImpl@UIEnumConnections@@$1?_GUID_b196b287_bab4_101a_b69c_00aa00341d07@@3U__s_GUID@@BUtagCONNECTDATA@@V?$_Copy@UtagCONNECTDATA@@@ATL@@@ATL@@UEAA@XZ 000000018002cf44     ImageScanner.obj
 0002:0000af44       $unwind$??_G?$CComObject@V?$CComEnum@UIEnumConnectionPoints@@$1?_GUID_b196b285_bab4_101a_b69c_00aa00341d07@@3U__s_GUID@@BPEAUIConnectionPoint@@V?$_CopyInterface@UIConnectionPoint@@@ATL@@VCComSingleThreadModel@6@@ATL@@@ATL@@UEAAPEAXI@Z 000000018002cf44     ImageScanner.obj
 0002:0000af44       $unwind$??$GetProcAddressAll@P6APEAUAtlThunkData_t@@XZ@@YAP6APEAUAtlThunkData_t@@XZPEAP6APEAU0@XZ@Z 000000018002cf44     atls:atlthunk.obj
 0002:0000af44       $unwind$??1?$CComEnumImpl@UIEnumConnectionPoints@@$1?_GUID_b196b285_bab4_101a_b69c_00aa00341d07@@3U__s_GUID@@BPEAUIConnectionPoint@@V?$_CopyInterface@UIConnectionPoint@@@ATL@@@ATL@@UEAA@XZ 000000018002cf44     ImageScanner.obj
 0002:0000af44       $unwind$?Release@?$CComObject@V?$CComEnum@UIEnumConnections@@$1?_GUID_b196b287_bab4_101a_b69c_00aa00341d07@@3U__s_GUID@@BUtagCONNECTDATA@@V?$_Copy@UtagCONNECTDATA@@@ATL@@VCComSingleThreadModel@6@@ATL@@@ATL@@UEAAKXZ 000000018002cf44     ImageScanner.obj
 0002:0000af44       $unwind$??$GetProcAddressAll@P6AXPEAUAtlThunkData_t@@PEAX_K@Z@@YAP6AXPEAUAtlThunkData_t@@PEAX_K@ZPEAP6AX012@Z@Z 000000018002cf44     atls:atlthunk.obj
 0002:0000af44       $unwind$??$GetProcAddressAll@P6AXPEAUAtlThunkData_t@@@Z@@YAP6AXPEAUAtlThunkData_t@@@ZPEAP6AX0@Z@Z 000000018002cf44     atls:atlthunk.obj
 0002:0000af44       $unwind$_close_nolock      000000018002cf44     libucrt:close.obj
 0002:0000af44       $unwind$?CreateInstance@?$CComObject@V?$CComEnum@UIEnumConnections@@$1?_GUID_b196b287_bab4_101a_b69c_00aa00341d07@@3U__s_GUID@@BUtagCONNECTDATA@@V?$_Copy@UtagCONNECTDATA@@@ATL@@VCComSingleThreadModel@6@@ATL@@@ATL@@SAJPEAPEAV12@@Z 000000018002cf44     ImageScanner.obj
 0002:0000af44       $unwind$??_G?$CComObject@V?$CComEnum@UIEnumConnections@@$1?_GUID_b196b287_bab4_101a_b69c_00aa00341d07@@3U__s_GUID@@BUtagCONNECTDATA@@V?$_Copy@UtagCONNECTDATA@@@ATL@@VCComSingleThreadModel@6@@ATL@@@ATL@@UEAAPEAXI@Z 000000018002cf44     ImageScanner.obj
 0002:0000af44       $unwind$??$common_initialize_environment_nolock@D@@YAHXZ 000000018002cf44     libucrt:environment_initialization.obj
 0002:0000af44       $unwind$__acrt_uninitialize_lowio 000000018002cf44     libucrt:ioinit.obj
 0002:0000af44       $unwind$__acrt_LocaleNameToLCID 000000018002cf44     libucrt:winapi_thunks.obj
 0002:0000af44       $unwind$_updatetlocinfoEx_nolock 000000018002cf44     libucrt:locale_refcounting.obj
 0002:0000af44       $unwind$_fclose_nolock     000000018002cf44     libucrt:fclose.obj
 0002:0000af44       $unwind$?Term@CComModule@ATL@@QEAAXXZ 000000018002cf44     ImageScanner.obj
 0002:0000af44       $unwind$??1?$IConnectionPointImpl@VCOPOSImageScanner@@$1?IID_IPropertyNotifySink@@3U_GUID@@BVCComDynamicUnkArray@ATL@@@ATL@@QEAA@XZ 000000018002cf44     ImageScannerImpl.obj
 0002:0000af44       $unwind$__acrt_fp_strflt_to_string 000000018002cf44     libucrt:_fptostr.obj
 0002:0000af44       $unwind$wcsncpy_s          000000018002cf44     libucrt:wcsncpy_s.obj
 0002:0000af44       $unwind$_realloc_base      000000018002cf44     libucrt:realloc_base.obj
 0002:0000af44       $unwind$?IOleObject_SetClientSite@CComControlBase@ATL@@QEAAJPEAUIOleClientSite@@@Z 000000018002cf44     ImageScanner.obj
 0002:0000af44       $unwind$??0CAtlBaseModule@ATL@@QEAA@XZ 000000018002cf44     atls:atlbase.obj
 0002:0000af44       $unwind$?SetBSTR@OposVariant@@QEAAXPEA_WAEAJ@Z 000000018002cf44     OposVariant.obj
 0002:0000af44       $unwind$?WriteToStream@CComBSTR@ATL@@QEAAJPEAUIStream@@@Z 000000018002cf44     ImageScanner.obj
 0002:0000af44       $unwind$?SetLONG@OposVariant@@QEAAXJ@Z 000000018002cf44     OposVariant.obj
 0002:0000af44       $unwind$??_G?$CComObjectCached@VCComClassFactory@ATL@@@ATL@@UEAAPEAXI@Z 000000018002cf44     ImageScanner.obj
 0002:0000af44       $unwind$??_G?$CComContainedObject@VCOPOSImageScanner@@@ATL@@UEAAPEAXI@Z 000000018002cf44     ImageScanner.obj
 0002:0000af44       $unwind$__acrt_FlsSetValue 000000018002cf44     libucrt:winapi_thunks.obj
 0002:0000af44       $unwind$?SetVARIANT_BOOL@OposVariant@@QEAAXF@Z 000000018002cf44     OposVariant.obj
 0002:0000af44       $unwind$?replace_current_thread_locale_nolock@@YAXQEAU__acrt_ptd@@QEAU__crt_locale_data@@@Z 000000018002cf44     libucrt:per_thread_data.obj
 0002:0000af44       $unwind$AtlThunk_DataToCode 000000018002cf44     atls:atlthunk.obj
 0002:0000af44       $unwind$?InitNew@?$IPersistStorageImpl@VCOPOSImageScanner@@@ATL@@UEAAJPEAUIStorage@@@Z 000000018002cf44     ImageScanner.obj
 0002:0000af44       $unwind$__vcrt_FlsSetValue 000000018002cf44     libvcruntime:winapi_downlevel.obj
 0002:0000af44       $unwind$?DeleteSubKey@CRegKey@ATL@@QEAAJPEB_W@Z 000000018002cf44     ImageScanner.obj
 0002:0000af44       $unwind$?Release@?$CComAggObject@VCOPOSImageScanner@@@ATL@@UEAAKXZ 000000018002cf44     ImageScanner.obj
 0002:0000af44       $unwind$??_Gbad_exception@std@@UEAAPEAXI@Z 000000018002cf44     libvcruntime:frame.obj
 0002:0000af44       $unwind$?SetAdvise@?$IViewObjectExImpl@VCOPOSImageScanner@@@ATL@@UEAAJKKPEAUIAdviseSink@@@Z 000000018002cf44     ImageScanner.obj
 0002:0000af44       $unwind$strncpy_s          000000018002cf44     libucrt:strncpy_s.obj
 0002:0000af44       $unwind$_FindAndUnlinkFrame 000000018002cf44     libvcruntime:risctrnsctrl.obj
 0002:0000af44       $unwind$??0?$CComContainedObject@VCOPOSImageScanner@@@ATL@@QEAA@PEAX@Z 000000018002cf44     ImageScanner.obj
 0002:0000af44       $unwind$DllMain            000000018002cf44     ImageScanner.obj
 0002:0000af44       $unwind$??1?$IConnectionPointImpl@VCOPOSImageScanner@@$1?DIID__IOPOSImageScannerEvents@@3U_GUID@@BVCComDynamicUnkArray@ATL@@@ATL@@QEAA@XZ 000000018002cf44     ImageScannerImpl.obj
 0002:0000af44       $unwind$__acrt_execute_uninitializers 000000018002cf44     libucrt:shared_initialization.obj
 0002:0000af44       $unwind$??_G?$CComAggObject@VCOPOSImageScanner@@@ATL@@UEAAPEAXI@Z 000000018002cf44     ImageScanner.obj
 0002:0000af44       $unwind$_RTC_Initialize    000000018002cf44     LIBCMT:initsect.obj
 0002:0000af44       $unwind$_RTC_Terminate     000000018002cf44     LIBCMT:initsect.obj
 0002:0000af44       $unwind$__acrt_errno_map_os_error 000000018002cf44     libucrt:errno.obj
 0002:0000af44       $unwind$??_Gexception@std@@UEAAPEAXI@Z 000000018002cf44     LIBCMT:throw_bad_alloc.obj
 0002:0000af44       $unwind$??_Gbad_alloc@std@@UEAAPEAXI@Z 000000018002cf44     LIBCMT:throw_bad_alloc.obj
 0002:0000af44       $unwind$?Release@?$CComObject@V?$CComEnum@UIEnumConnectionPoints@@$1?_GUID_b196b285_bab4_101a_b69c_00aa00341d07@@3U__s_GUID@@BPEAUIConnectionPoint@@V?$_CopyInterface@UIConnectionPoint@@@ATL@@VCComSingleThreadModel@6@@ATL@@@ATL@@UEAAKXZ 000000018002cf44     ImageScanner.obj
 0002:0000af44       $unwind$?CreateInstance@?$CComObject@V?$CComEnum@UIEnumConnectionPoints@@$1?_GUID_b196b285_bab4_101a_b69c_00aa00341d07@@3U__s_GUID@@BPEAUIConnectionPoint@@V?$_CopyInterface@UIConnectionPoint@@@ATL@@VCComSingleThreadModel@6@@ATL@@@ATL@@SAJPEAPEAV12@@Z 000000018002cf44     ImageScanner.obj
 0002:0000af44       $unwind$??_Gbad_array_new_length@std@@UEAAPEAXI@Z 000000018002cf44     LIBCMT:throw_bad_alloc.obj
 0002:0000af44       $unwind$?Release@?$CComObject@VCOPOSImageScanner@@@ATL@@UEAAKXZ 000000018002cf44     ImageScanner.obj
 0002:0000af44       $unwind$?SOData@COPOSImageScanner@@MEAAJJ@Z 000000018002cf44     ImageScanner.obj
 0002:0000af44       $unwind$?__scrt_initialize_thread_safe_statics@@YAHXZ 000000018002cf44     LIBCMT:thread_safe_statics.obj
 0002:0000af50       $unwind$?x_ismbbtype_l@@YAHPEAU__crt_locale_pointers@@IHH@Z 000000018002cf50     libucrt:ismbbyte.obj
 0002:0000af50       $unwind$?ChangeBSTR@OposVariant@@QEAAXPEAPEA_WAEAJ@Z 000000018002cf50     OposVariant.obj
 0002:0000af50       $unwind$?ChangeLONG@OposVariant@@QEAAXPEAJAEAJ@Z 000000018002cf50     OposVariant.obj
 0002:0000af60       $unwind$swprintf_s         000000018002cf60     ImageScanner.obj
 0002:0000af70       $unwind$?_AtlVerifyStackAvailable@_ATL_SAFE_ALLOCA_IMPL@ATL@@YA_N_K@Z 000000018002cf70     ImageScanner.obj
 0002:0000af9c       $unwind$_write$fin$0       000000018002cf9c     libucrt:write.obj
 0002:0000af9c       $unwind$?fin$0@?0???$?RV<lambda_d80eeec6fff315bfe5c115232f3240e3>@@AEAV<lambda_6e4b09c48022b2350581041d5f6b0c4c>@@V<lambda_2358e3775559c9db80273638284d5e45>@@@?$__crt_seh_guarded_call@X@@QEAAX$$QEAV<lambda_d80eeec6fff315bfe5c115232f3240e3>@@AEAV<lambda_6e4b09c48022b2350581041d5f6b0c4c>@@$$QEAV<lambda_2358e3775559c9db80273638284d5e45>@@@Z@4HA 000000018002cf9c     libucrt:exit.obj
 0002:0000af9c       $unwind$?fin$0@?0???$?RV<lambda_a37b2b86f63e897a80ea819b0eb08c01>@@AEAV<lambda_38ce7e780aa69e748d6df282ebc68efe>@@V<lambda_99fb1378e971ab6e7edea83e3a7a83a2>@@@?$__crt_seh_guarded_call@H@@QEAAH$$QEAV<lambda_a37b2b86f63e897a80ea819b0eb08c01>@@AEAV<lambda_38ce7e780aa69e748d6df282ebc68efe>@@$$QEAV<lambda_99fb1378e971ab6e7edea83e3a7a83a2>@@@Z@4HA 000000018002cf9c     libucrt:commit.obj
 0002:0000af9c       $unwind$?fin$1@?0??FrameUnwindToState@__FrameHandler3@@SAXPEA_KPEAU_xDISPATCHER_CONTEXT@@PEBU_s_FuncInfo@@H@Z@4HA 000000018002cf9c     libvcruntime:frame.obj
 0002:0000af9c       $unwind$__acrt_initialize_lowio$fin$0 000000018002cf9c     libucrt:ioinit.obj
 0002:0000af9c       $unwind$?fin$0@?0???$?RV<lambda_0ae27a3a962d80f24befdcbee591983d>@@AEAV<lambda_8d0ee55de4b1038c4002e0adecdf1839>@@V<lambda_dc504788e8f1664fe9b84e20bfb512f2>@@@?$__crt_seh_guarded_call@X@@QEAAX$$QEAV<lambda_0ae27a3a962d80f24befdcbee591983d>@@AEAV<lambda_8d0ee55de4b1038c4002e0adecdf1839>@@$$QEAV<lambda_dc504788e8f1664fe9b84e20bfb512f2>@@@Z@4HA 000000018002cf9c     libucrt:per_thread_data.obj
 0002:0000af9c       $unwind$__acrt_lowio_ensure_fh_exists$fin$0 000000018002cf9c     libucrt:osfinfo.obj
 0002:0000af9c       $unwind$?filt$0@?0??CxxCallCatchBlock@__FrameHandler3@@SAPEAXPEAU_EXCEPTION_RECORD@@@Z@4HA 000000018002cf9c     libvcruntime:frame.obj
 0002:0000af9c       $unwind$fclose$fin$0       000000018002cf9c     libucrt:fclose.obj
 0002:0000af9c       $unwind$?fin$0@?0???$?RV<lambda_aa87e3671a710a21b5dc78c0bdf72e11>@@AEAV<lambda_92619d2358a28f41a33ba319515a20b9>@@V<lambda_6992ecaafeb10aed2b74cb1fae11a551>@@@?$__crt_seh_guarded_call@X@@QEAAX$$QEAV<lambda_aa87e3671a710a21b5dc78c0bdf72e11>@@AEAV<lambda_92619d2358a28f41a33ba319515a20b9>@@$$QEAV<lambda_6992ecaafeb10aed2b74cb1fae11a551>@@@Z@4HA 000000018002cf9c     libucrt:per_thread_data.obj
 0002:0000af9c       $unwind$?fin$0@?0??dllmain_crt_process_detach@@YAH_N@Z@4HA 000000018002cf9c     LIBCMT:dll_dllmain.obj
 0002:0000af9c       $unwind$__acrt_update_thread_locale_data$fin$0 000000018002cf9c     libucrt:locale_refcounting.obj
 0002:0000af9c       $unwind$?fin$0@?0??update_thread_multibyte_data_internal@@YAPEAU__crt_multibyte_data@@QEAU__acrt_ptd@@QEAPEAU1@@Z@4HA 000000018002cf9c     libucrt:mbctype.obj
 0002:0000af9c       $unwind$?fin$0@?0???$?RV<lambda_f2e299630e499de9f9a165e60fcd3db5>@@AEAV<lambda_2ae9d31cdba2644fcbeaf08da7c24588>@@V<lambda_40d01ff24d0e7b3814fdbdcee8eab3c7>@@@?$__crt_seh_guarded_call@X@@QEAAX$$QEAV<lambda_f2e299630e499de9f9a165e60fcd3db5>@@AEAV<lambda_2ae9d31cdba2644fcbeaf08da7c24588>@@$$QEAV<lambda_40d01ff24d0e7b3814fdbdcee8eab3c7>@@@Z@4HA 000000018002cf9c     libucrt:per_thread_data.obj
 0002:0000af9c       $unwind$?fin$0@?0???$?RV<lambda_410d79af7f07d98d83a3f525b3859a53>@@AEAV<lambda_3e16ef9562a7dcce91392c22ab16ea36>@@V<lambda_38119f0e861e05405d8a144b9b982f0a>@@@?$__crt_seh_guarded_call@X@@QEAAX$$QEAV<lambda_410d79af7f07d98d83a3f525b3859a53>@@AEAV<lambda_3e16ef9562a7dcce91392c22ab16ea36>@@$$QEAV<lambda_38119f0e861e05405d8a144b9b982f0a>@@@Z@4HA 000000018002cf9c     libucrt:wsetlocale.obj
 0002:0000af9c       $unwind$__DestructExceptionObject$filt$0 000000018002cf9c     libvcruntime:ehhelpers.obj
 0002:0000af9c       $unwind$?fin$0@?0???$?RV<lambda_886d6c58226a84441f68b9f2b8217b83>@@AEAV<lambda_ab61a845afdef5b7c387490eaf3616ee>@@V<lambda_f7f22ab5edc0698d5f6905b0d3f44752>@@@?$__crt_seh_guarded_call@X@@QEAAX$$QEAV<lambda_886d6c58226a84441f68b9f2b8217b83>@@AEAV<lambda_ab61a845afdef5b7c387490eaf3616ee>@@$$QEAV<lambda_f7f22ab5edc0698d5f6905b0d3f44752>@@@Z@4HA 000000018002cf9c     libucrt:fflush.obj
 0002:0000af9c       $unwind$?fin$0@?0???$?RV<lambda_751a882b2c74d4b022dec766aa51a29a>@@AEAV<lambda_628dfdc04ba53c8bfc02c9951375f3f5>@@V<lambda_f6c7be5f7998530c34de24c7437d6b54>@@@?$__crt_seh_guarded_call@H@@QEAAH$$QEAV<lambda_751a882b2c74d4b022dec766aa51a29a>@@AEAV<lambda_628dfdc04ba53c8bfc02c9951375f3f5>@@$$QEAV<lambda_f6c7be5f7998530c34de24c7437d6b54>@@@Z@4HA 000000018002cf9c     libucrt:close.obj
 0002:0000af9c       $unwind$?fin$0@?0???$?RV<lambda_842d9ff0dc9ef11c61343bbaebe7f885>@@AEAV<lambda_c5860995281e5c4ce005b3de8f5874ee>@@V<lambda_d90129c13df834fdcbf8d2b88dafcf2d>@@@?$__crt_seh_guarded_call@X@@QEAAX$$QEAV<lambda_842d9ff0dc9ef11c61343bbaebe7f885>@@AEAV<lambda_c5860995281e5c4ce005b3de8f5874ee>@@$$QEAV<lambda_d90129c13df834fdcbf8d2b88dafcf2d>@@@Z@4HA 000000018002cf9c     libucrt:fflush.obj
 0002:0000af9c       $unwind$_fcloseall$fin$0   000000018002cf9c     libucrt:closeall.obj
 0002:0000af9c       $unwind$?fin$0@?0??dllmain_crt_process_attach@@YAHQEAUHINSTANCE__@@QEAX@Z@4HA 000000018002cf9c     LIBCMT:dll_dllmain.obj
 0002:0000af9c       $unwind$_query_new_handler$fin$0 000000018002cf9c     libucrt:new_handler.obj
 0002:0000af9c       $unwind$?fin$0@?0???$?RV<lambda_efdfa57d1f175319df784efa44bb7b81>@@AEAV<lambda_5f0a4c1567f8adc6734073e5d1e1b35c>@@V<lambda_2e8a7d3640ea6ccb4c2413664c2db6fd>@@@?$__crt_seh_guarded_call@X@@QEAAX$$QEAV<lambda_efdfa57d1f175319df784efa44bb7b81>@@AEAV<lambda_5f0a4c1567f8adc6734073e5d1e1b35c>@@$$QEAV<lambda_2e8a7d3640ea6ccb4c2413664c2db6fd>@@@Z@4HA 000000018002cf9c     libucrt:mbctype.obj
 0002:0000af9c       $unwind$raise$fin$0        000000018002cf9c     libucrt:signal.obj
 0002:0000af9c       $unwind$?fin$0@?0???$?RV<lambda_638799b9deba96c50f710eeac98168cd>@@AEAV<lambda_22ebabd17bc4fa466a2aca6d8deb888d>@@V<lambda_a6f7d7db0129f75315ebf26d50c089f1>@@@?$__crt_seh_guarded_call@H@@QEAAH$$QEAV<lambda_638799b9deba96c50f710eeac98168cd>@@AEAV<lambda_22ebabd17bc4fa466a2aca6d8deb888d>@@$$QEAV<lambda_a6f7d7db0129f75315ebf26d50c089f1>@@@Z@4HA 000000018002cf9c     libucrt:onexit.obj
 0002:0000af9c       $unwind$?fin$0@?0???$?RV<lambda_2d41944a1d46af3157314b8a01080d33>@@AEAV<lambda_8f455de75cd7d7f24b4096f044d8b9e6>@@V<lambda_aa500f224e6afead328df44964fe2772>@@@?$__crt_seh_guarded_call@X@@QEAAX$$QEAV<lambda_2d41944a1d46af3157314b8a01080d33>@@AEAV<lambda_8f455de75cd7d7f24b4096f044d8b9e6>@@$$QEAV<lambda_aa500f224e6afead328df44964fe2772>@@@Z@4HA 000000018002cf9c     libucrt:per_thread_data.obj
 0002:0000af9c       $unwind$_ctrlfp$filt$0     000000018002cf9c     libucrt:fpctrl.obj
 0002:0000af9c       $unwind$?fin$0@?0???$?RV<lambda_7777bce6b2f8c936911f934f8298dc43>@@AEAV<lambda_f03950bc5685219e0bcd2087efbe011e>@@V<lambda_3883c3dff614d5e0c5f61bb1ac94921c>@@@?$__crt_seh_guarded_call@H@@QEAAH$$QEAV<lambda_7777bce6b2f8c936911f934f8298dc43>@@AEAV<lambda_f03950bc5685219e0bcd2087efbe011e>@@$$QEAV<lambda_3883c3dff614d5e0c5f61bb1ac94921c>@@@Z@4HA 000000018002cf9c     libucrt:onexit.obj
 0002:0000af9c       $unwind$?filt$0@?0???R<lambda_6e4b09c48022b2350581041d5f6b0c4c>@@QEBA@XZ@4HA 000000018002cf9c     libucrt:exit.obj
 0002:0000af9c       $unwind$_IsNonwritableInCurrentImage$filt$0 000000018002cf9c     LIBCMT:pesect.obj
 0002:0000af9c       $unwind$?fin$0@?0???$?RV<lambda_450d765d439847d4c735a33c368b5fc0>@@AEAV<lambda_44731a7d0e6d81c3e6aa82d741081786>@@V<lambda_601a2a7da3b7a96e9554ac7215c4b07c>@@@?$__crt_seh_guarded_call@P6AXH@Z@@QEAAP6AXH@Z$$QEAV<lambda_450d765d439847d4c735a33c368b5fc0>@@AEAV<lambda_44731a7d0e6d81c3e6aa82d741081786>@@$$QEAV<lambda_601a2a7da3b7a96e9554ac7215c4b07c>@@@Z@4HA 000000018002cf9c     libucrt:signal.obj
 0002:0000af9c       $unwind$?filt$0@?0??_AtlVerifyStackAvailable@_ATL_SAFE_ALLOCA_IMPL@ATL@@YA_N_K@Z@4HA 000000018002cf9c     ImageScanner.obj
 0002:0000af9c       $unwind$?filt$0@?0??FrameUnwindToState@__FrameHandler3@@SAXPEA_KPEAU_xDISPATCHER_CONTEXT@@PEBU_s_FuncInfo@@H@Z@4HA 000000018002cf9c     libvcruntime:frame.obj
 0002:0000afa4       $unwind$?AtlInternalOleLoadFromStream@ATL@@YAJPEAUIStream@@AEBU_GUID@@PEAPEAXTClassesAllowedInStream@1@K@Z 000000018002cfa4     ImageScanner.obj
 0002:0000afc0       $unwind$?Close@COPOSImageScanner@@UEAAJPEAJ@Z 000000018002cfc0     ImageScannerImpl.obj
 0002:0000afc0       $unwind$?PutProperty@?$CComPtr@UIDispatch@@@ATL@@SAJPEAUIDispatch@@JPEAUtagVARIANT@@@Z 000000018002cfc0     ImageScanner.obj
 0002:0000afcc       $unwind$_configure_narrow_argv 000000018002cfcc     libucrt:argv_parsing.obj
 0002:0000afcc       $unwind$?ReadFromStream@CComBSTR@ATL@@QEAAJPEAUIStream@@@Z 000000018002cfcc     ImageScanner.obj
 0002:0000afe0       $unwind$?WriteToStream@CComVariant@ATL@@QEAAJPEAUIStream@@@Z 000000018002cfe0     ImageScanner.obj
 0002:0000aff4       $unwind$?WriteToStream@CComVariant@ATL@@QEAAJPEAUIStream@@G@Z 000000018002cff4     ImageScanner.obj
 0002:0000aff4       $unwind$??$__acrt_wcs_to_mbs_cp@U__crt_win32_buffer_no_resizing@@@@YAHQEB_WAEAV?$__crt_win32_buffer@DU__crt_win32_buffer_no_resizing@@@@I@Z 000000018002cff4     libucrt:getmodulefilenamea.obj
 0002:0000aff4       $unwind$?RegOpenKeyExW@CAtlTransactionManager@ATL@@QEAAJPEAUHKEY__@@PEB_WKKPEAPEAU3@@Z 000000018002cff4     ImageScanner.obj
 0002:0000aff4       $unwind$__dcrt_write_console 000000018002cff4     libucrt:initcon.obj
 0002:0000b008       $unwind$?ReadFromStream@CComVariant@ATL@@QEAAJPEAUIStream@@GTClassesAllowedInStream@2@K@Z 000000018002d008     ImageScanner.obj
 0002:0000b020       $unwind$?GetSizeMax@CComVariant@ATL@@QEBAJPEAT_ULARGE_INTEGER@@@Z 000000018002d020     ImageScanner.obj
 0002:0000b038       $unwind$__acrt_fp_format   000000018002d038     libucrt:cvt.obj
 0002:0000b038       $unwind$?RegCreateKeyExW@CAtlTransactionManager@ATL@@QEAAJPEAUHKEY__@@PEB_WKPEA_WKKQEAU_SECURITY_ATTRIBUTES@@PEAPEAU3@PEAK@Z 000000018002d038     ImageScanner.obj
 0002:0000b04c       $unwind$?RegDeleteKeyW@CAtlTransactionManager@ATL@@QEAAJPEAUHKEY__@@PEB_W@Z 000000018002d04c     ImageScanner.obj
 0002:0000b04c       $unwind$strpbrk            000000018002d04c     libucrt:strpbrk.obj
 0002:0000b04c       $unwind$?GetGITPtr@CAtlModule@ATL@@UEAAJPEAPEAUIGlobalInterfaceTable@@@Z 000000018002d04c     ImageScanner.obj
 0002:0000b05c       $unwind$?AtlHiMetricToPixel@ATL@@YAXPEBUtagSIZE@@PEAU2@@Z 000000018002d05c     ImageScanner.obj
 0002:0000b05c       $unwind$?AtlInternalQueryInterface@ATL@@YAJPEAXPEBU_ATL_INTMAP_ENTRY@1@AEBU_GUID@@PEAPEAX@Z 000000018002d05c     ImageScanner.obj
 0002:0000b074       $unwind$__acrt_DownlevelLocaleNameToLCID 000000018002d074     libucrt:lcidtoname_downlevel.obj
 0002:0000b074       $unwind$?GetClassObject@CComModule@ATL@@QEAAJAEBU_GUID@@0PEAPEAX@Z 000000018002d074     ImageScanner.obj
 0002:0000b074       $unwind$?NextToken@CRegParser@ATL@@IEAAJPEA_W@Z 000000018002d074     ImageScanner.obj
 0002:0000b074       $unwind$?Init@?$CComEnumImpl@UIEnumConnections@@$1?_GUID_b196b287_bab4_101a_b69c_00aa00341d07@@3U__s_GUID@@BUtagCONNECTDATA@@V?$_Copy@UtagCONNECTDATA@@@ATL@@@ATL@@QEAAJPEAUtagCONNECTDATA@@0PEAUIUnknown@@W4CComEnumFlags@2@@Z 000000018002d074     ImageScanner.obj
 0002:0000b074       $unwind$??R<lambda_f03950bc5685219e0bcd2087efbe011e>@@QEBAHXZ 000000018002d074     libucrt:onexit.obj
 0002:0000b074       $unwind$?AtlComModuleGetClassObject@ATL@@YAJPEAU_ATL_COM_MODULE70@1@AEBU_GUID@@1PEAPEAX@Z 000000018002d074     ImageScanner.obj
 0002:0000b074       $unwind$?type_case_integer@?$output_processor@_WV?$string_output_adapter@_W@__crt_stdio_output@@V?$format_validation_base@_WV?$string_output_adapter@_W@__crt_stdio_output@@@2@@__crt_stdio_output@@AEAA_NI_N@Z 000000018002d074     libucrt:output.obj
 0002:0000b074       $unwind$?Init@?$CComEnumImpl@UIEnumConnectionPoints@@$1?_GUID_b196b285_bab4_101a_b69c_00aa00341d07@@3U__s_GUID@@BPEAUIConnectionPoint@@V?$_CopyInterface@UIConnectionPoint@@@ATL@@@ATL@@QEAAJPEAPEAUIConnectionPoint@@0PEAUIUnknown@@W4CComEnumFlags@2@@Z 000000018002d074     ImageScanner.obj
 0002:0000b08c       $unwind$?AtlRegisterClassCategoriesHelper@ATL@@YAJAEBU_GUID@@PEBU_ATL_CATMAP_ENTRY@1@H@Z 000000018002d08c     ImageScanner.obj
 0002:0000b0b0       $unwind$?AtlLoadTypeLib@ATL@@YAJPEAUHINSTANCE__@@PEB_WPEAPEA_WPEAPEAUITypeLib@@@Z 000000018002d0b0     ImageScanner.obj
 0002:0000b0d0       $unwind$?AtlRegisterTypeLib@ATL@@YAJPEAUHINSTANCE__@@PEB_W@Z 000000018002d0d0     ImageScanner.obj
 0002:0000b0ec       $unwind$?AtlUnRegisterTypeLib@ATL@@YAJPEAUHINSTANCE__@@PEB_W@Z 000000018002d0ec     ImageScanner.obj
 0002:0000b0f4       $unwind$?atlCreate@CRegKey@ATL@@QEAAJPEAUHKEY__@@PEB_WPEA_WKKPEAU_SECURITY_ATTRIBUTES@@PEAK@Z 000000018002d0f4     ImageScanner.obj
 0002:0000b100       $unwind$?Open@CRegKey@ATL@@QEAAJPEAUHKEY__@@PEB_WK@Z 000000018002d100     ImageScanner.obj
 0002:0000b10c       $unwind$?RecurseDeleteKey@CRegKey@ATL@@QEAAJPEB_W@Z 000000018002d10c     ImageScanner.obj
 0002:0000b128       $unwind$?UpdateRegistryFromResource@CAtlModule@ATL@@QEAAJIHPEAU_ATL_REGMAP_ENTRY@2@@Z 000000018002d128     ImageScanner.obj
 0002:0000b128       $unwind$?UpdateRegistryFromResource@CAtlModule@ATL@@QEAAJPEB_WHPEAU_ATL_REGMAP_ENTRY@2@@Z 000000018002d128     ImageScanner.obj
 0002:0000b148       $unwind$?Lookup@?$CSimpleMap@PEA_WPEA_WVCExpansionVectorEqualHelper@ATL@@@ATL@@QEBAPEA_WAEBQEA_W@Z 000000018002d148     ImageScanner.obj
 0002:0000b148       $unwind$_free_osfhnd       000000018002d148     libucrt:osfinfo.obj
 0002:0000b148       $unwind$__std_exception_copy 000000018002d148     libvcruntime:std_exception.obj
 0002:0000b15c       $unwind$?Add@CExpansionVector@ATL@@QEAAHPEB_W0@Z 000000018002d15c     ImageScanner.obj
 0002:0000b174       $unwind$?PreProcessBuffer@CRegParser@ATL@@QEAAJPEA_WPEAPEA_W@Z 000000018002d174     ImageScanner.obj
 0002:0000b198       $unwind$?RegisterBuffer@CRegParser@ATL@@QEAAJPEA_WH@Z 000000018002d198     ImageScanner.obj
 0002:0000b1b8       $unwind$?AddValue@CRegParser@ATL@@IEAAJAEAVCRegKey@2@PEB_WPEA_W@Z 000000018002d1b8     ImageScanner.obj
 0002:0000b1d8       $unwind$?RegisterSubkeys@CRegParser@ATL@@IEAAJPEA_WPEAUHKEY__@@HH@Z 000000018002d1d8     ImageScanner.obj
 0002:0000b1f8       $unwind$?SkipAssignment@CRegParser@ATL@@IEAAJPEA_W@Z 000000018002d1f8     ImageScanner.obj
 0002:0000b210       $unwind$?RegisterFromResource@CRegObject@ATL@@IEAAJPEB_W00H@Z 000000018002d210     ImageScanner.obj
 0002:0000b230       $unwind$?AtlIPersistStreamInit_Load@ATL@@YAJPEAUIStream@@PEBUATL_PROPMAP_ENTRY@1@PEAXPEAUIUnknown@@@Z 000000018002d230     ImageScanner.obj
 0002:0000b248       $unwind$?AtlIPersistStreamInit_Save@ATL@@YAJPEAUIStream@@HPEBUATL_PROPMAP_ENTRY@1@PEAXPEAUIUnknown@@@Z 000000018002d248     ImageScanner.obj
 0002:0000b264       $unwind$?GetTI@CComTypeInfoHolder@ATL@@QEAAJK@Z 000000018002d264     ImageScanner.obj
 0002:0000b284       $unwind$AtlThunk_FreeData  000000018002d284     atls:atlthunk.obj
 0002:0000b284       $unwind$__acrt_locale_free_lc_time_if_unreferenced 000000018002d284     libucrt:locale_refcounting.obj
 0002:0000b284       $unwind$?Cleanup@CComTypeInfoHolder@ATL@@SAX_K@Z 000000018002d284     ImageScanner.obj
 0002:0000b284       $unwind$__acrt_locale_free_numeric 000000018002d284     libucrt:initnum.obj
 0002:0000b284       $unwind$_free_base         000000018002d284     libucrt:free_base.obj
 0002:0000b284       $unwind$?destroy_fls@@YAXPEAX@Z 000000018002d284     libucrt:per_thread_data.obj
 0002:0000b28c       $unwind$?GetIDsOfNames@CComTypeInfoHolder@ATL@@QEAAJAEBU_GUID@@PEAPEA_WIKPEAJ@Z 000000018002d28c     ImageScanner.obj
 0002:0000b2a8       $unwind$?LoadNameCache@CComTypeInfoHolder@ATL@@QEAAJPEAUITypeInfo@@@Z 000000018002d2a8     ImageScanner.obj
 0002:0000b2bc       $unwind$??$parse_command_line@D@@YAXPEADPEAPEAD0PEA_K2@Z 000000018002d2bc     libucrt:argv_parsing.obj
 0002:0000b2bc       $unwind$?StartWindowProc@?$CWindowImplBaseT@VCWindow@ATL@@V?$CWinTraits@$0FGAAAAAA@$0A@@2@@ATL@@SA_JPEAUHWND__@@I_K_J@Z 000000018002d2bc     ImageScanner.obj
 0002:0000b2d8       $unwind$?WindowProc@?$CWindowImplBaseT@VCWindow@ATL@@V?$CWinTraits@$0FGAAAAAA@$0A@@2@@ATL@@SA_JPEAUHWND__@@I_K_J@Z 000000018002d2d8     ImageScanner.obj
 0002:0000b2f0       $unwind$?atlCreate@?$CWindowImplBaseT@VCWindow@ATL@@V?$CWinTraits@$0FGAAAAAA@$0A@@2@@ATL@@QEAAPEAUHWND__@@PEAU3@V_U_RECT@2@PEB_WKKV_U_MENUorID@2@GPEAX@Z 000000018002d2f0     ImageScanner.obj
 0002:0000b308       $unwind$??$AtlModuleRegisterWndClassInfoT@VAtlModuleRegisterWndClassInfoParamW@ATL@@@ATL@@YAGPEAU_ATL_BASE_MODULE70@0@PEAU_ATL_WIN_MODULE70@0@PEAU_ATL_WNDCLASSINFOW@0@PEAP6A_JPEAUHWND__@@I_K_J@ZVAtlModuleRegisterWndClassInfoParamW@0@@Z 000000018002d308     ImageScanner.obj
 0002:0000b328       $unwind$?OnKillFocus@CComControlBase@ATL@@QEAA_JI_K_JAEAH@Z 000000018002d328     ImageScanner.obj
 0002:0000b328       $unwind$?GetZoomInfo@CComControlBase@ATL@@QEAAXAEAUATL_DRAWINFO@@@Z 000000018002d328     ImageScanner.obj
 0002:0000b328       $unwind$iswctype           000000018002d328     libucrt:iswctype.obj
 0002:0000b334       $unwind$?SendOnDataChange@CComControlBase@ATL@@QEAAJK@Z 000000018002d334     ImageScanner.obj
 0002:0000b344       $unwind$?OnSetFocus@CComControlBase@ATL@@QEAA_JI_K_JAEAH@Z 000000018002d344     ImageScanner.obj
 0002:0000b354       $unwind$?OnMouseActivate@CComControlBase@ATL@@QEAA_JI_K_JAEAH@Z 000000018002d354     ImageScanner.obj
 0002:0000b35c       $unwind$?GetAmbientLocaleID@CComControlBase@ATL@@QEAAJAEAK@Z 000000018002d35c     ImageScanner.obj
 0002:0000b35c       $unwind$?GetAmbientUserMode@CComControlBase@ATL@@QEAAJAEAH@Z 000000018002d35c     ImageScanner.obj
 0002:0000b36c       $unwind$?IQuickActivate_QuickActivate@CComControlBase@ATL@@QEAAJPEAUtagQACONTAINER@@PEAUtagQACONTROL@@@Z 000000018002d36c     ImageScanner.obj
 0002:0000b384       $unwind$?DoVerbProperties@CComControlBase@ATL@@QEAAJPEBUtagRECT@@PEAUHWND__@@@Z 000000018002d384     ImageScanner.obj
 0002:0000b39c       $unwind$?InPlaceActivate@CComControlBase@ATL@@QEAAJJPEBUtagRECT@@@Z 000000018002d39c     ImageScanner.obj
 0002:0000b3bc       $unwind$?type_case_c_tchar@?$output_processor@_WV?$string_output_adapter@_W@__crt_stdio_output@@V?$format_validation_base@_WV?$string_output_adapter@_W@__crt_stdio_output@@@2@@__crt_stdio_output@@AEAA_N_W@Z 000000018002d3bc     libucrt:output.obj
 0002:0000b3bc       $unwind$?IOleObject_Close@CComControlBase@ATL@@QEAAJK@Z 000000018002d3bc     ImageScanner.obj
 0002:0000b3cc       $unwind$?IOleInPlaceObject_UIDeactivate@CComControlBase@ATL@@QEAAJXZ 000000018002d3cc     ImageScanner.obj
 0002:0000b3e4       $unwind$?IOleInPlaceObject_SetObjectRects@CComControlBase@ATL@@QEAAJPEBUtagRECT@@0@Z 000000018002d3e4     ImageScanner.obj
 0002:0000b3f8       $unwind$?IViewObject_Draw@CComControlBase@ATL@@QEAAJKJPEAXPEAUtagDVTARGETDEVICE@@PEAUHDC__@@2PEBU_RECTL@@3@Z 000000018002d3f8     ImageScanner.obj
 0002:0000b414       $unwind$?IDataObject_GetData@CComControlBase@ATL@@QEAAJPEAUtagFORMATETC@@PEAUtagSTGMEDIUM@@@Z 000000018002d414     ImageScanner.obj
 0002:0000b434       $unwind$?OnPaint@CComControlBase@ATL@@QEAA_JI_K_JAEAH@Z 000000018002d434     ImageScanner.obj
 0002:0000b450       $unwind$?OnDrawAdvanced@CComControlBase@ATL@@UEAAJAEAUATL_DRAWINFO@@@Z 000000018002d450     ImageScanner.obj
 0002:0000b468       $unwind$?Invoke@?$IDispatchImpl@UIOPOSImageScanner@@$1?IID_IOPOSImageScanner@@3U_GUID@@B$1?LIBID_OposImageScanner_CCO@@3U3@B$00$0A@VCComTypeInfoHolder@ATL@@@ATL@@UEAAJJAEBU_GUID@@KGPEAUtagDISPPARAMS@@PEAUtagVARIANT@@PEAUtagEXCEPINFO@@PEAI@Z 000000018002d468     ImageScanner.obj
 0002:0000b468       $unwind$_mbsdec_l          000000018002d468     libucrt:mbsdec.obj
 0002:0000b468       $unwind$?ReleaseDevice@COPOSImageScanner@@UEAAJPEAJ@Z 000000018002d468     ImageScannerImpl.obj
 0002:0000b474       $unwind$?fp_format_e@@YAHQEBNQEAD_K12H_NIQEAU__crt_locale_pointers@@@Z 000000018002d474     libucrt:cvt.obj
 0002:0000b474       $unwind$?atlCreate@?$CWindowImpl@VCOPOSImageScanner@@VCWindow@ATL@@V?$CWinTraits@$0FGAAAAAA@$0A@@3@@ATL@@QEAAPEAUHWND__@@PEAU3@V_U_RECT@2@PEB_WKKV_U_MENUorID@2@PEAX@Z 000000018002d474     ImageScanner.obj
 0002:0000b474       $unwind$_mbtowc_l          000000018002d474     libucrt:mbtowc.obj
 0002:0000b474       $unwind$__acrt_LCMapStringEx 000000018002d474     libucrt:winapi_thunks.obj
 0002:0000b488       $unwind$?StartSession@COPOSImageScanner@@UEAAJPEAJ@Z 000000018002d488     ImageScannerImpl.obj
 0002:0000b488       $unwind$?ClearInputProperties@COPOSImageScanner@@UEAAJPEAJ@Z 000000018002d488     ImageScannerImpl.obj
 0002:0000b488       $unwind$?ClearInput@COPOSImageScanner@@UEAAJPEAJ@Z 000000018002d488     ImageScannerImpl.obj
 0002:0000b488       $unwind$?__scrt_throw_std_bad_array_new_length@@YAXXZ 000000018002d488     LIBCMT:throw_bad_alloc.obj
 0002:0000b488       $unwind$?__scrt_throw_std_bad_alloc@@YAXXZ 000000018002d488     LIBCMT:throw_bad_alloc.obj
 0002:0000b488       $unwind$_raise_exc         000000018002d488     libucrt:fpexcept.obj
 0002:0000b488       $unwind$?StopSession@COPOSImageScanner@@UEAAJPEAJ@Z 000000018002d488     ImageScannerImpl.obj
 0002:0000b488       $unwind$?CreateControlWindow@?$CComControl@VCOPOSImageScanner@@V?$CWindowImpl@VCOPOSImageScanner@@VCWindow@ATL@@V?$CWinTraits@$0FGAAAAAA@$0A@@3@@ATL@@@ATL@@UEAAPEAUHWND__@@PEAU3@AEAUtagRECT@@@Z 000000018002d488     ImageScanner.obj
 0002:0000b490       $unwind$__stdio_common_vswprintf_s 000000018002d490     libucrt:output.obj
 0002:0000b490       $unwind$?Save@?$IPersistStreamInitImpl@VCOPOSImageScanner@@@ATL@@UEAAJPEAUIStream@@H@Z 000000018002d490     ImageScanner.obj
 0002:0000b49c       $unwind$?GetSizeMax@?$IPersistStreamInitImpl@VCOPOSImageScanner@@@ATL@@UEAAJPEAT_ULARGE_INTEGER@@@Z 000000018002d49c     ImageScanner.obj
 0002:0000b4b4       $unwind$?DoVerbPrimary@?$IOleObjectImpl@VCOPOSImageScanner@@@ATL@@QEAAJPEBUtagRECT@@PEAUHWND__@@@Z 000000018002d4b4     ImageScanner.obj
 0002:0000b4cc       $unwind$?TranslateAcceleratorW@?$IOleInPlaceActiveObjectImpl@VCOPOSImageScanner@@@ATL@@UEAAJPEAUtagMSG@@@Z 000000018002d4cc     ImageScanner.obj
 0002:0000b4d8       $unwind$?Draw@?$IViewObjectExImpl@VCOPOSImageScanner@@@ATL@@UEAAJKJPEAXPEAUtagDVTARGETDEVICE@@PEAUHDC__@@2PEBU_RECTL@@3P6AH_K@Z4@Z 000000018002d4d8     ImageScanner.obj
 0002:0000b4e0       $unwind$?QueryHitRect@?$IViewObjectExImpl@VCOPOSImageScanner@@@ATL@@UEAAJKPEBUtagRECT@@0JPEAK@Z 000000018002d4e0     ImageScanner.obj
 0002:0000b4f0       $unwind$?OnWindowMessage@?$IOleInPlaceObjectWindowlessImpl@VCOPOSImageScanner@@@ATL@@UEAAJI_K_JPEA_J@Z 000000018002d4f0     ImageScanner.obj
 0002:0000b504       $unwind$?EnumConnectionPoints@?$IConnectionPointContainerImpl@VCOPOSImageScanner@@@ATL@@UEAAJPEAPEAUIEnumConnectionPoints@@@Z 000000018002d504     ImageScanner.obj
 0002:0000b52c       $unwind$?FindConnectionPoint@?$IConnectionPointContainerImpl@VCOPOSImageScanner@@@ATL@@UEAAJAEBU_GUID@@PEAPEAUIConnectionPoint@@@Z 000000018002d52c     ImageScanner.obj
 0002:0000b52c       $unwind$?__mbrtoc32_utf8@__crt_mbstring@@YA_KPEA_UPEBD_KPEAU_Mbstatet@@@Z 000000018002d52c     libucrt:mbrtoc32.obj
 0002:0000b548       $unwind$?Load@?$IPersistStorageImpl@VCOPOSImageScanner@@@ATL@@UEAAJPEAUIStorage@@@Z 000000018002d548     ImageScanner.obj
 0002:0000b558       $unwind$?Save@?$IPersistStorageImpl@VCOPOSImageScanner@@@ATL@@UEAAJPEAUIStorage@@H@Z 000000018002d558     ImageScanner.obj
 0002:0000b56c       $unwind$?DAdvise@?$IDataObjectImpl@VCOPOSImageScanner@@@ATL@@UEAAJPEAUtagFORMATETC@@KPEAUIAdviseSink@@PEAK@Z 000000018002d56c     ImageScanner.obj
 0002:0000b56c       $unwind$??$__acrt_mbs_to_wcs_cp@U__crt_win32_buffer_internal_dynamic_resizing@@@@YAHQEBDAEAV?$__crt_win32_buffer@_WU__crt_win32_buffer_internal_dynamic_resizing@@@@I@Z 000000018002d56c     libucrt:argv_wildcards.obj
 0002:0000b584       $unwind$?GetInterfaceSafetyOptions@?$IObjectSafetyImpl@VCOPOSImageScanner@@$02@ATL@@UEAAJAEBU_GUID@@PEAK1@Z 000000018002d584     ImageScanner.obj
 0002:0000b598       $unwind$?SetInterfaceSafetyOptions@?$IObjectSafetyImpl@VCOPOSImageScanner@@$02@ATL@@UEAAJAEBU_GUID@@KK@Z 000000018002d598     ImageScanner.obj
 0002:0000b5ac       $unwind$?Advise@?$IConnectionPointImpl@VCOPOSImageScanner@@$1?IID_IPropertyNotifySink@@3U_GUID@@BVCComDynamicUnkArray@ATL@@@ATL@@UEAAJPEAUIUnknown@@PEAK@Z 000000018002d5ac     ImageScanner.obj
 0002:0000b5ac       $unwind$?Advise@?$IConnectionPointImpl@VCOPOSImageScanner@@$1?DIID__IOPOSImageScannerEvents@@3U_GUID@@BVCComDynamicUnkArray@ATL@@@ATL@@UEAAJPEAUIUnknown@@PEAK@Z 000000018002d5ac     ImageScanner.obj
 0002:0000b5c0       $unwind$??$create_environment@D@@YAQEAPEADQEAD@Z 000000018002d5c0     libucrt:environment_initialization.obj
 0002:0000b5c0       $unwind$?EnumConnections@?$IConnectionPointImpl@VCOPOSImageScanner@@$1?IID_IPropertyNotifySink@@3U_GUID@@BVCComDynamicUnkArray@ATL@@@ATL@@UEAAJPEAPEAUIEnumConnections@@@Z 000000018002d5c0     ImageScanner.obj
 0002:0000b5c0       $unwind$?EnumConnections@?$IConnectionPointImpl@VCOPOSImageScanner@@$1?DIID__IOPOSImageScannerEvents@@3U_GUID@@BVCComDynamicUnkArray@ATL@@@ATL@@UEAAJPEAPEAUIEnumConnections@@@Z 000000018002d5c0     ImageScanner.obj
 0002:0000b5d8       $unwind$??$__InternalCxxFrameHandler@V__FrameHandler3@@@@YA?AW4_EXCEPTION_DISPOSITION@@PEAUEHExceptionRecord@@PEA_KPEAU_CONTEXT@@PEAU_xDISPATCHER_CONTEXT@@PEBU_s_FuncInfo@@H1E@Z 000000018002d5d8     libvcruntime:frame.obj
 0002:0000b5d8       $unwind$?Fire_StatusUpdateEvent@?$CProxy_IOPOSEvents@VCOPOSImageScanner@@@@QEAAXJ@Z 000000018002d5d8     ImageScanner.obj
 0002:0000b5d8       $unwind$?Fire_DataEvent@?$CProxy_IOPOSEvents@VCOPOSImageScanner@@@@QEAAXJ@Z 000000018002d5d8     ImageScanner.obj
 0002:0000b5f0       $unwind$?Fire_DirectIOEvent@?$CProxy_IOPOSEvents@VCOPOSImageScanner@@@@QEAAXJPEAJPEAPEA_W@Z 000000018002d5f0     ImageScanner.obj
 0002:0000b610       $unwind$?Fire_ErrorEvent@?$CProxy_IOPOSEvents@VCOPOSImageScanner@@@@QEAAXJJJPEAJ@Z 000000018002d610     ImageScanner.obj
 0002:0000b630       $unwind$?FireTheEvent@?$CProxy_IOPOSEvents@VCOPOSImageScanner@@@@IEAAXPEAVOposVariant@@IAEAJPEB_WJ@Z 000000018002d630     ImageScanner.obj
 0002:0000b640       $unwind$__dcrt_get_narrow_environment_from_os 000000018002d640     libucrt:get_environment_from_os.obj
 0002:0000b640       $unwind$?fp_format_f_internal@@YAHQEAD_KHQEAU_strflt@@_NQEAU__crt_locale_pointers@@@Z 000000018002d640     libucrt:cvt.obj
 0002:0000b640       $unwind$?ProcessWindowMessage@COPOSImageScanner@@UEAAHPEAUHWND__@@I_K_JAEA_JK@Z 000000018002d640     ImageScanner.obj
 0002:0000b640       $unwind$??$__acrt_wcs_to_mbs_cp@U__crt_win32_buffer_internal_dynamic_resizing@@@@YAHQEB_WAEAV?$__crt_win32_buffer@DU__crt_win32_buffer_internal_dynamic_resizing@@@@I@Z 000000018002d640     libucrt:argv_wildcards.obj
 0002:0000b658       $unwind$_invalid_parameter 000000018002d658     libucrt:invalid_parameter.obj
 0002:0000b658       $unwind$?SOError@COPOSImageScanner@@MEAAJJJJPEAJ@Z 000000018002d658     ImageScanner.obj
 0002:0000b66c       $unwind$?Clone@?$CComEnumImpl@UIEnumConnectionPoints@@$1?_GUID_b196b285_bab4_101a_b69c_00aa00341d07@@3U__s_GUID@@BPEAUIConnectionPoint@@V?$_CopyInterface@UIConnectionPoint@@@ATL@@@ATL@@UEAAJPEAPEAUIEnumConnectionPoints@@@Z 000000018002d66c     ImageScanner.obj
 0002:0000b66c       $unwind$?Clone@?$CComEnumImpl@UIEnumConnections@@$1?_GUID_b196b287_bab4_101a_b69c_00aa00341d07@@3U__s_GUID@@BUtagCONNECTDATA@@V?$_Copy@UtagCONNECTDATA@@@ATL@@@ATL@@UEAAJPEAPEAUIEnumConnections@@@Z 000000018002d66c     ImageScanner.obj
 0002:0000b684       $unwind$?GetOposProp@COPOSImageScanner@@IEAAJJPEAPEA_WJ@Z 000000018002d684     ImageScannerImpl.obj
 0002:0000b684       $unwind$?GetOposProp@COPOSImageScanner@@IEAAJJPEAJJ@Z 000000018002d684     ImageScannerImpl.obj
 0002:0000b69c       $unwind$?SetOposProp@COPOSImageScanner@@IEAAJJJJ@Z 000000018002d69c     ImageScannerImpl.obj
 0002:0000b6bc       $unwind$?DoInvoke@COPOSImageScanner@@IEAAJJPEAVOposVariant@@IHPEAJ_N@Z 000000018002d6bc     ImageScannerImpl.obj
 0002:0000b6d4       $unwind$?SetCOFreezeEvents@COPOSImageScanner@@IEAAXF@Z 000000018002d6d4     ImageScannerImpl.obj
 0002:0000b6e8       $unwind$?OnDraw@COPOSImageScanner@@MEAAJAEAUATL_DRAWINFO@@@Z 000000018002d6e8     ImageScannerImpl.obj
 0002:0000b700       $unwind$?EventInit@COPOSImageScanner@@IEAAJXZ 000000018002d700     ImageScannerImpl.obj
 0002:0000b714       $unwind$?EventWindowProc@COPOSImageScanner@@IEAA_JI_K_J@Z 000000018002d714     ImageScannerImpl.obj
 0002:0000b724       $unwind$_isleadbyte_l      000000018002d724     libucrt:_wctype.obj
 0002:0000b724       $unwind$?getSystemCP@@YAHH@Z 000000018002d724     libucrt:mbctype.obj
 0002:0000b724       $unwind$?get_ControlObjectDescription@COPOSImageScanner@@UEAAJPEAPEA_W@Z 000000018002d724     ImageScannerImpl.obj
 0002:0000b724       $unwind$__dcrt_lowio_ensure_console_output_initialized 000000018002d724     libucrt:initcon.obj
 0002:0000b72c       $unwind$?UpdateFirmware@COPOSImageScanner@@UEAAJPEA_WPEAJ@Z 000000018002d72c     ImageScannerImpl.obj
 0002:0000b72c       $unwind$?UpdateStatistics@COPOSImageScanner@@UEAAJPEA_WPEAJ@Z 000000018002d72c     ImageScannerImpl.obj
 0002:0000b72c       $unwind$?CheckHealth@COPOSImageScanner@@UEAAJJPEAJ@Z 000000018002d72c     ImageScannerImpl.obj
 0002:0000b72c       $unwind$?ResetStatistics@COPOSImageScanner@@UEAAJPEA_WPEAJ@Z 000000018002d72c     ImageScannerImpl.obj
 0002:0000b72c       $unwind$?RetrieveStatistics@COPOSImageScanner@@UEAAJPEAPEA_WPEAJ@Z 000000018002d72c     ImageScannerImpl.obj
 0002:0000b73c       $unwind$?ClaimDevice@COPOSImageScanner@@UEAAJJPEAJ@Z 000000018002d73c     ImageScannerImpl.obj
 0002:0000b74c       $unwind$?DirectIO@COPOSImageScanner@@UEAAJJPEAJPEAPEA_W0@Z 000000018002d74c     ImageScannerImpl.obj
 0002:0000b768       $unwind$?Open@COPOSImageScanner@@UEAAJPEA_WPEAJ@Z 000000018002d768     ImageScannerImpl.obj
 0002:0000b78c       $unwind$?CompareFirmwareVersion@COPOSImageScanner@@UEAAJPEA_WPEAJ1@Z 000000018002d78c     ImageScannerImpl.obj
 0002:0000b78c       $unwind$?initialize_inherited_file_handles_nolock@@YAXXZ 000000018002d78c     libucrt:ioinit.obj
 0002:0000b7a8       $unwind$__scrt_is_nonwritable_in_current_image 000000018002d7a8     LIBCMT:utility.obj
 0002:0000b7c8       $unwind$__scrt_is_nonwritable_in_current_image$filt$0 000000018002d7c8     LIBCMT:utility.obj
 0002:0000b7d0       $unwind$__report_securityfailure 000000018002d7d0     LIBCMT:gs_report.obj
 0002:0000b7d8       $unwind$__report_gsfailure 000000018002d7d8     LIBCMT:gs_report.obj
 0002:0000b7e0       $unwind$capture_current_context 000000018002d7e0     LIBCMT:gs_report.obj
 0002:0000b7ec       $unwind$capture_previous_context 000000018002d7ec     LIBCMT:gs_report.obj
 0002:0000b7f8       $unwind$??2@YAPEAX_KAEBUnothrow_t@std@@@Z 000000018002d7f8     LIBCMT:new_scalar_nothrow.obj
 0002:0000b808       $stateUnwindMap$??2@YAPEAX_KAEBUnothrow_t@std@@@Z 000000018002d808     LIBCMT:new_scalar_nothrow.obj
 0002:0000b818       $tryMap$??2@YAPEAX_KAEBUnothrow_t@std@@@Z 000000018002d818     LIBCMT:new_scalar_nothrow.obj
 0002:0000b82c       $handlerMap$0$??2@YAPEAX_KAEBUnothrow_t@std@@@Z 000000018002d82c     LIBCMT:new_scalar_nothrow.obj
 0002:0000b840       $ip2state$??2@YAPEAX_KAEBUnothrow_t@std@@@Z 000000018002d840     LIBCMT:new_scalar_nothrow.obj
 0002:0000b848       $unwind$?catch$0@?0???2@YAPEAX_KAEBUnothrow_t@std@@@Z@4HA 000000018002d848     LIBCMT:new_scalar_nothrow.obj
 0002:0000b858       $unwind$__acrt_WideCharToMultiByte 000000018002d858     libucrt:widechartomultibyte.obj
 0002:0000b858       $unwind$__GSHandlerCheckCommon 000000018002d858     LIBCMT:gshandler.obj
 0002:0000b860       $xdatasym                  000000018002d860     LIBCMT:chkstk.obj
 0002:0000b868       $xdatasym                  000000018002d868     LIBCMT:amdsecgs.obj
 0002:0000b86c       $unwind$?dllmain_crt_process_attach@@YAHQEAUHINSTANCE__@@QEAX@Z 000000018002d86c     LIBCMT:dll_dllmain.obj
 0002:0000b8a8       $unwind$?dllmain_crt_process_detach@@YAH_N@Z 000000018002d8a8     LIBCMT:dll_dllmain.obj
 0002:0000b8dc       $unwind$?dllmain_dispatch@@YAHQEAUHINSTANCE__@@KQEAX@Z 000000018002d8dc     LIBCMT:dll_dllmain.obj
 0002:0000b904       $unwind$?filt$0@?0??dllmain_dispatch@@YAHQEAUHINSTANCE__@@KQEAX@Z@4HA 000000018002d904     LIBCMT:dll_dllmain.obj
 0002:0000b90c       $unwind$__isa_available_init 000000018002d90c     LIBCMT:cpu_disp.obj
 0002:0000b91c       $unwind$__scrt_fastfail    000000018002d91c     LIBCMT:utility_desktop.obj
 0002:0000b92c       $unwind$__security_init_cookie 000000018002d92c     LIBCMT:gs_support.obj
 0002:0000b938       $xdatasym                  000000018002d938     LIBCMT:guard_dispatch.obj
 0002:0000b93c       $unwind$AtlThunk_InitData  000000018002d93c     atls:atlthunk.obj
 0002:0000b950       $unwind$wcsstr             000000018002d950     libvcruntime:wcsstr.obj
 0002:0000b968       $xdatasym                  000000018002d968     libvcruntime:memcmp.obj
 0002:0000b970       $xdatasym                  000000018002d970     libvcruntime:memcpy.obj
 0002:0000b980       $xdatasym                  000000018002d980     libvcruntime:memset.obj
 0002:0000b990       $unwind$__C_specific_handler 000000018002d990     libvcruntime:riscchandler.obj
 0002:0000b9ac       $unwind$?GetEstablisherFrame@__FrameHandler3@@SAPEA_KPEA_KPEAU_xDISPATCHER_CONTEXT@@PEBU_s_FuncInfo@@0@Z 000000018002d9ac     libvcruntime:risctrnsctrl.obj
 0002:0000b9c4       $unwind$?UnwindNestedFrames@__FrameHandler3@@SAXPEA_KPEAUEHExceptionRecord@@PEAU_CONTEXT@@0PEAXPEBU_s_FuncInfo@@HHPEBU_s_HandlerType@@PEAU_xDISPATCHER_CONTEXT@@E@Z 000000018002d9c4     libvcruntime:risctrnsctrl.obj
 0002:0000b9d8       $unwind$?GetRangeOfTrysToCheck@__FrameHandler3@@SA?AU?$pair@Viterator@TryBlockMap@__FrameHandler3@@V123@@std@@AEAVTryBlockMap@1@HPEAU_xDISPATCHER_CONTEXT@@PEBU_s_FuncInfo@@H@Z 000000018002d9d8     libvcruntime:risctrnsctrl.obj
 0002:0000b9f0       $unwind$__CxxFrameHandler3 000000018002d9f0     libvcruntime:risctrnsctrl.obj
 0002:0000ba04       $unwind$??$_CallSETranslator@V__FrameHandler3@@@@YAHPEAUEHExceptionRecord@@PEA_KPEAU_CONTEXT@@PEAU_xDISPATCHER_CONTEXT@@PEBU_s_FuncInfo@@K1@Z 000000018002da04     libvcruntime:risctrnsctrl.obj
 0002:0000ba24       $unwind$?filt$0@?0???$_CallSETranslator@V__FrameHandler3@@@@YAHPEAUEHExceptionRecord@@PEA_KPEAU_CONTEXT@@PEAU_xDISPATCHER_CONTEXT@@PEBU_s_FuncInfo@@K1@Z@4HA 000000018002da24     libvcruntime:risctrnsctrl.obj
 0002:0000ba30       $unwind$_CxxThrowException 000000018002da30     libvcruntime:throw.obj
 0002:0000ba40       $xdatasym                  000000018002da40     libvcruntime:notify.obj
 0002:0000ba4c       $unwind$__DestructExceptionObject 000000018002da4c     libvcruntime:ehhelpers.obj
 0002:0000ba6c       $unwind$?FrameUnwindToState@__FrameHandler3@@SAXPEA_KPEAU_xDISPATCHER_CONTEXT@@PEBU_s_FuncInfo@@H@Z 000000018002da6c     libvcruntime:frame.obj
 0002:0000bab8       $unwind$?CxxCallCatchBlock@__FrameHandler3@@SAPEAXPEAU_EXCEPTION_RECORD@@@Z 000000018002dab8     libvcruntime:frame.obj
 0002:0000baf4       $unwind$?fin$1@?0??CxxCallCatchBlock@__FrameHandler3@@SAPEAXPEAU_EXCEPTION_RECORD@@@Z@4HA 000000018002daf4     libvcruntime:frame.obj
 0002:0000bb00       $unwind$?IsInExceptionSpec@@YAEPEAUEHExceptionRecord@@PEBU_s_ESTypeList@@@Z 000000018002db00     libvcruntime:frame.obj
 0002:0000bb1c       $unwind$??$BuildCatchObjectHelperInternal@V__FrameHandler3@@@@YAHPEAUEHExceptionRecord@@PEAXPEBU_s_HandlerType@@PEBU_s_CatchableType@@@Z 000000018002db1c     libvcruntime:frame.obj
 0002:0000bb5c       $unwind$??$BuildCatchObjectInternal@V__FrameHandler3@@@@YAXPEAUEHExceptionRecord@@PEAXPEBU_s_HandlerType@@PEBU_s_CatchableType@@@Z 000000018002db5c     libvcruntime:frame.obj
 0002:0000bb88       $unwind$??$FindHandler@V__FrameHandler3@@@@YAXPEAUEHExceptionRecord@@PEA_KPEAU_CONTEXT@@PEAU_xDISPATCHER_CONTEXT@@PEBU_s_FuncInfo@@EH1@Z 000000018002db88     libvcruntime:frame.obj
 0002:0000bba8       $unwind$??$CatchIt@V__FrameHandler3@@@@YAXPEAUEHExceptionRecord@@PEA_KPEAU_CONTEXT@@PEAU_xDISPATCHER_CONTEXT@@PEBU_s_FuncInfo@@PEBU_s_HandlerType@@PEBU_s_CatchableType@@PEBU_s_TryBlockMapEntry@@H1EE@Z 000000018002dba8     libvcruntime:frame.obj
 0002:0000bbc0       $unwind$??$FindHandlerForForeignException@V__FrameHandler3@@@@YAXPEAUEHExceptionRecord@@PEA_KPEAU_CONTEXT@@PEAU_xDISPATCHER_CONTEXT@@PEBU_s_FuncInfo@@HH1@Z 000000018002dbc0     libvcruntime:frame.obj
 0002:0000bbdc       $unwind$?try_get_function@@YAPEAXW4function_id@?A0x391cf84c@@QEBDQEBW4module_id@2@2@Z 000000018002dbdc     libucrt:winapi_thunks.obj
 0002:0000bbdc       $unwind$?try_get_function@@YAPEAXW4function_id@?A0x656504f9@@QEBDQEBW4module_id@2@2@Z 000000018002dbdc     libvcruntime:winapi_downlevel.obj
 0002:0000bbf8       $xdatasym                  000000018002dbf8     libvcruntime:handlers.obj
 0002:0000bc18       $unwind$__acrt_call_reportfault 000000018002dc18     libucrt:invalid_parameter.obj
 0002:0000bc38       $unwind$_resetstkoflw      000000018002dc38     libucrt:resetstk.obj
 0002:0000bc5c       $unwind$?write_string@?$string_output_adapter@_W@__crt_stdio_output@@QEBAXQEB_WHQEAHAEAV__crt_deferred_errno_cache@@@Z 000000018002dc5c     libucrt:output.obj
 0002:0000bc74       $unwind$??$common_vsprintf@Vformat_validation_base@__crt_stdio_output@@_W@@YAH_KQEA_W0QEB_WQEAU__crt_locale_pointers@@QEAD@Z 000000018002dc74     libucrt:output.obj
 0002:0000bc94       $unwind$??$write_multiple_characters@V?$string_output_adapter@_W@__crt_stdio_output@@D@__crt_stdio_output@@YAXAEBV?$string_output_adapter@_W@0@DHQEAH@Z 000000018002dc94     libucrt:output.obj
 0002:0000bca0       $unwind$?process@?$output_processor@_WV?$string_output_adapter@_W@__crt_stdio_output@@V?$format_validation_base@_WV?$string_output_adapter@_W@__crt_stdio_output@@@2@@__crt_stdio_output@@QEAAHXZ 000000018002dca0     libucrt:output.obj
 0002:0000bcb4       $unwind$?parse_int_from_format_string@?$output_processor@_WV?$string_output_adapter@_W@__crt_stdio_output@@V?$format_validation_base@_WV?$string_output_adapter@_W@__crt_stdio_output@@@2@@__crt_stdio_output@@AEAA_NQEAH@Z 000000018002dcb4     libucrt:output.obj
 0002:0000bcc8       $unwind$?state_case_type@?$output_processor@_WV?$string_output_adapter@_W@__crt_stdio_output@@V?$format_validation_base@_WV?$string_output_adapter@_W@__crt_stdio_output@@@2@@__crt_stdio_output@@AEAA_NXZ 000000018002dcc8     libucrt:output.obj
 0002:0000bcec       $unwind$?type_case_a@?$output_processor@_WV?$string_output_adapter@_W@__crt_stdio_output@@V?$format_validation_base@_WV?$string_output_adapter@_W@__crt_stdio_output@@@2@@__crt_stdio_output@@AEAA_NXZ 000000018002dcec     libucrt:output.obj
 0002:0000bcfc       $unwind$?write_stored_string_tchar@?$output_processor@_WV?$string_output_adapter@_W@__crt_stdio_output@@V?$format_validation_base@_WV?$string_output_adapter@_W@__crt_stdio_output@@@2@@__crt_stdio_output@@AEAA_N_W@Z 000000018002dcfc     libucrt:output.obj
 0002:0000bd10       $unwind$??$type_case_integer_parse_into_buffer@I@?$output_processor@_WV?$string_output_adapter@_W@__crt_stdio_output@@V?$format_validation_base@_WV?$string_output_adapter@_W@__crt_stdio_output@@@2@@__crt_stdio_output@@AEAAXII_N@Z 000000018002dd10     libucrt:output.obj
 0002:0000bd10       $unwind$??$type_case_integer_parse_into_buffer@_K@?$output_processor@_WV?$string_output_adapter@_W@__crt_stdio_output@@V?$format_validation_base@_WV?$string_output_adapter@_W@__crt_stdio_output@@@2@@__crt_stdio_output@@AEAAX_KI_N@Z 000000018002dd10     libucrt:output.obj
 0002:0000bd18       $unwind$?common_exit@@YAXHW4_crt_exit_cleanup_mode@@W4_crt_exit_return_mode@@@Z 000000018002dd18     libucrt:exit.obj
 0002:0000bd24       $unwind$??R<lambda_6e4b09c48022b2350581041d5f6b0c4c>@@QEBA@XZ 000000018002dd24     libucrt:exit.obj
 0002:0000bd44       $unwind$??$?RV<lambda_d80eeec6fff315bfe5c115232f3240e3>@@AEAV<lambda_6e4b09c48022b2350581041d5f6b0c4c>@@V<lambda_2358e3775559c9db80273638284d5e45>@@@?$__crt_seh_guarded_call@X@@QEAAX$$QEAV<lambda_d80eeec6fff315bfe5c115232f3240e3>@@AEAV<lambda_6e4b09c48022b2350581041d5f6b0c4c>@@$$QEAV<lambda_2358e3775559c9db80273638284d5e45>@@@Z 000000018002dd44     libucrt:exit.obj
 0002:0000bd68       $unwind$??$free_environment@D@@YAXQEAPEAD@Z 000000018002dd68     libucrt:environment_initialization.obj
 0002:0000bd68       $unwind$??$free_environment@_W@@YAXQEAPEA_W@Z 000000018002dd68     libucrt:environment_initialization.obj
 0002:0000bd74       $unwind$_register_onexit_function 000000018002dd74     libucrt:onexit.obj
 0002:0000bd7c       $unwind$_execute_onexit_table 000000018002dd7c     libucrt:onexit.obj
 0002:0000bd84       $unwind$??R<lambda_22ebabd17bc4fa466a2aca6d8deb888d>@@QEBAHXZ 000000018002dd84     libucrt:onexit.obj
 0002:0000bd9c       $unwind$??$?RV<lambda_638799b9deba96c50f710eeac98168cd>@@AEAV<lambda_22ebabd17bc4fa466a2aca6d8deb888d>@@V<lambda_a6f7d7db0129f75315ebf26d50c089f1>@@@?$__crt_seh_guarded_call@H@@QEAAH$$QEAV<lambda_638799b9deba96c50f710eeac98168cd>@@AEAV<lambda_22ebabd17bc4fa466a2aca6d8deb888d>@@$$QEAV<lambda_a6f7d7db0129f75315ebf26d50c089f1>@@@Z 000000018002dd9c     libucrt:onexit.obj
 0002:0000bdc0       $unwind$??$?RV<lambda_7777bce6b2f8c936911f934f8298dc43>@@AEAV<lambda_f03950bc5685219e0bcd2087efbe011e>@@V<lambda_3883c3dff614d5e0c5f61bb1ac94921c>@@@?$__crt_seh_guarded_call@H@@QEAAH$$QEAV<lambda_7777bce6b2f8c936911f934f8298dc43>@@AEAV<lambda_f03950bc5685219e0bcd2087efbe011e>@@$$QEAV<lambda_3883c3dff614d5e0c5f61bb1ac94921c>@@@Z 000000018002ddc0     libucrt:onexit.obj
 0002:0000bde4       $unwind$_query_new_handler 000000018002dde4     libucrt:new_handler.obj
 0002:0000be04       $unwind$terminate          000000018002de04     libucrt:terminate.obj
 0002:0000be24       $unwind$??$parse_integer@KV?$c_string_character_source@_W@__crt_strtox@@@__crt_strtox@@YAKQEAU__crt_locale_pointers@@V?$c_string_character_source@_W@0@H_N@Z 000000018002de24     libucrt:atox.obj
 0002:0000be40       $xdatasym                  000000018002de40     libucrt:strncmp.obj
 0002:0000be44       $unwind$?construct_ptd_array@@YAXQEAU__acrt_ptd@@@Z 000000018002de44     libucrt:per_thread_data.obj
 0002:0000be4c       $unwind$?destroy_ptd_array@@YAXQEAU__acrt_ptd@@@Z 000000018002de4c     libucrt:per_thread_data.obj
 0002:0000be54       $unwind$??$?RV<lambda_0ae27a3a962d80f24befdcbee591983d>@@AEAV<lambda_8d0ee55de4b1038c4002e0adecdf1839>@@V<lambda_dc504788e8f1664fe9b84e20bfb512f2>@@@?$__crt_seh_guarded_call@X@@QEAAX$$QEAV<lambda_0ae27a3a962d80f24befdcbee591983d>@@AEAV<lambda_8d0ee55de4b1038c4002e0adecdf1839>@@$$QEAV<lambda_dc504788e8f1664fe9b84e20bfb512f2>@@@Z 000000018002de54     libucrt:per_thread_data.obj
 0002:0000be78       $unwind$??$?RV<lambda_aa87e3671a710a21b5dc78c0bdf72e11>@@AEAV<lambda_92619d2358a28f41a33ba319515a20b9>@@V<lambda_6992ecaafeb10aed2b74cb1fae11a551>@@@?$__crt_seh_guarded_call@X@@QEAAX$$QEAV<lambda_aa87e3671a710a21b5dc78c0bdf72e11>@@AEAV<lambda_92619d2358a28f41a33ba319515a20b9>@@$$QEAV<lambda_6992ecaafeb10aed2b74cb1fae11a551>@@@Z 000000018002de78     libucrt:per_thread_data.obj
 0002:0000be9c       $unwind$??$?RV<lambda_f2e299630e499de9f9a165e60fcd3db5>@@AEAV<lambda_2ae9d31cdba2644fcbeaf08da7c24588>@@V<lambda_40d01ff24d0e7b3814fdbdcee8eab3c7>@@@?$__crt_seh_guarded_call@X@@QEAAX$$QEAV<lambda_f2e299630e499de9f9a165e60fcd3db5>@@AEAV<lambda_2ae9d31cdba2644fcbeaf08da7c24588>@@$$QEAV<lambda_40d01ff24d0e7b3814fdbdcee8eab3c7>@@@Z 000000018002de9c     libucrt:per_thread_data.obj
 0002:0000bec0       $unwind$??$?RV<lambda_2d41944a1d46af3157314b8a01080d33>@@AEAV<lambda_8f455de75cd7d7f24b4096f044d8b9e6>@@V<lambda_aa500f224e6afead328df44964fe2772>@@@?$__crt_seh_guarded_call@X@@QEAAX$$QEAV<lambda_2d41944a1d46af3157314b8a01080d33>@@AEAV<lambda_8f455de75cd7d7f24b4096f044d8b9e6>@@$$QEAV<lambda_aa500f224e6afead328df44964fe2772>@@@Z 000000018002dec0     libucrt:per_thread_data.obj
 0002:0000bee4       $unwind$__acrt_initialize_winapi_thunks 000000018002dee4     libucrt:winapi_thunks.obj
 0002:0000beec       $unwind$?fp_format_e_internal@@YAHQEAD_KH_NIQEAU_strflt@@2QEAU__crt_locale_pointers@@@Z 000000018002deec     libucrt:cvt.obj
 0002:0000bf04       $unwind$?fp_format_a@@YAHQEBNPEAD_KQEAD2H_NIQEAU__crt_locale_pointers@@@Z 000000018002df04     libucrt:cvt.obj
 0002:0000bf20       $unwind$?fp_format_g@@YAHQEBNQEAD_K12H_NIQEAU__crt_locale_pointers@@@Z 000000018002df20     libucrt:cvt.obj
 0002:0000bf34       $unwind$__acrt_get_sigabrt_handler 000000018002df34     libucrt:signal.obj
 0002:0000bf34       $unwind$__acrt_uninitialize_locale 000000018002df34     libucrt:wsetlocale.obj
 0002:0000bf3c       $unwind$??$?RV<lambda_410d79af7f07d98d83a3f525b3859a53>@@AEAV<lambda_3e16ef9562a7dcce91392c22ab16ea36>@@V<lambda_38119f0e861e05405d8a144b9b982f0a>@@@?$__crt_seh_guarded_call@X@@QEAAX$$QEAV<lambda_410d79af7f07d98d83a3f525b3859a53>@@AEAV<lambda_3e16ef9562a7dcce91392c22ab16ea36>@@$$QEAV<lambda_38119f0e861e05405d8a144b9b982f0a>@@@Z 000000018002df3c     libucrt:wsetlocale.obj
 0002:0000bf64       $unwind$__acrt_initialize_lowio 000000018002df64     libucrt:ioinit.obj
 0002:0000bf84       $unwind$??$common_expand_argv_wildcards@D@@YAHQEAPEADQEAPEAPEAD@Z 000000018002df84     libucrt:argv_wildcards.obj
 0002:0000bf9c       $unwind$??$copy_and_add_argument_to_buffer@D@@YAHQEBD0_KAEAV?$argument_list@D@?A0x5f5c8891@@@Z 000000018002df9c     libucrt:argv_wildcards.obj
 0002:0000bfb8       $unwind$??$expand_argument_wildcards@D@@YAHQEAD0AEAV?$argument_list@D@?A0x5f5c8891@@@Z 000000018002dfb8     libucrt:argv_wildcards.obj
 0002:0000bfdc       $unwind$__acrt_GetModuleFileNameA 000000018002dfdc     libucrt:getmodulefilenamea.obj
 0002:0000bff8       $unwind$_setmbcp_nolock    000000018002dff8     libucrt:mbctype.obj
 0002:0000c018       $unwind$?update_thread_multibyte_data_internal@@YAPEAU__crt_multibyte_data@@QEAU__acrt_ptd@@QEAPEAU1@@Z 000000018002e018     libucrt:mbctype.obj
 0002:0000c040       $unwind$?setmbcp_internal@@YAHH_NQEAU__acrt_ptd@@QEAPEAU__crt_multibyte_data@@@Z 000000018002e040     libucrt:mbctype.obj
 0002:0000c050       $unwind$?setSBUpLow@@YAXPEAU__crt_multibyte_data@@@Z 000000018002e050     libucrt:mbctype.obj
 0002:0000c06c       $unwind$??$?RV<lambda_efdfa57d1f175319df784efa44bb7b81>@@AEAV<lambda_5f0a4c1567f8adc6734073e5d1e1b35c>@@V<lambda_2e8a7d3640ea6ccb4c2413664c2db6fd>@@@?$__crt_seh_guarded_call@X@@QEAAX$$QEAV<lambda_efdfa57d1f175319df784efa44bb7b81>@@AEAV<lambda_5f0a4c1567f8adc6734073e5d1e1b35c>@@$$QEAV<lambda_2e8a7d3640ea6ccb4c2413664c2db6fd>@@@Z 000000018002e06c     libucrt:mbctype.obj
 0002:0000c090       $unwind$raise              000000018002e090     libucrt:signal.obj
 0002:0000c0cc       $unwind$??$?RV<lambda_450d765d439847d4c735a33c368b5fc0>@@AEAV<lambda_44731a7d0e6d81c3e6aa82d741081786>@@V<lambda_601a2a7da3b7a96e9554ac7215c4b07c>@@@?$__crt_seh_guarded_call@P6AXH@Z@@QEAAP6AXH@Z$$QEAV<lambda_450d765d439847d4c735a33c368b5fc0>@@AEAV<lambda_44731a7d0e6d81c3e6aa82d741081786>@@$$QEAV<lambda_601a2a7da3b7a96e9554ac7215c4b07c>@@@Z 000000018002e0cc     libucrt:signal.obj
 0002:0000c0f0       $unwind$?common_flush_all@@YAH_N@Z 000000018002e0f0     libucrt:fflush.obj
 0002:0000c0f8       $unwind$??$?RV<lambda_842d9ff0dc9ef11c61343bbaebe7f885>@@AEAV<lambda_c5860995281e5c4ce005b3de8f5874ee>@@V<lambda_d90129c13df834fdcbf8d2b88dafcf2d>@@@?$__crt_seh_guarded_call@X@@QEAAX$$QEAV<lambda_842d9ff0dc9ef11c61343bbaebe7f885>@@AEAV<lambda_c5860995281e5c4ce005b3de8f5874ee>@@$$QEAV<lambda_d90129c13df834fdcbf8d2b88dafcf2d>@@@Z 000000018002e0f8     libucrt:fflush.obj
 0002:0000c11c       $unwind$??$?RV<lambda_886d6c58226a84441f68b9f2b8217b83>@@AEAV<lambda_ab61a845afdef5b7c387490eaf3616ee>@@V<lambda_f7f22ab5edc0698d5f6905b0d3f44752>@@@?$__crt_seh_guarded_call@X@@QEAAX$$QEAV<lambda_886d6c58226a84441f68b9f2b8217b83>@@AEAV<lambda_ab61a845afdef5b7c387490eaf3616ee>@@$$QEAV<lambda_f7f22ab5edc0698d5f6905b0d3f44752>@@@Z 000000018002e11c     libucrt:fflush.obj
 0002:0000c144       $unwind$__acrt_update_thread_locale_data 000000018002e144     libucrt:locale_refcounting.obj
 0002:0000c168       $unwind$?__mbrtowc_utf8@__crt_mbstring@@YA_KPEA_WPEBD_KPEAU_Mbstatet@@@Z 000000018002e168     libucrt:mbrtowc.obj
 0002:0000c170       $unwind$?__mbsrtowcs_utf8@__crt_mbstring@@YA_KPEA_WPEAPEBD_KPEAU_Mbstatet@@@Z 000000018002e170     libucrt:mbrtowc.obj
 0002:0000c188       $unwind$__acrt_fltout      000000018002e188     libucrt:cfout.obj
 0002:0000c1a8       $unwind$?divide@__crt_strtox@@YA_KAEAUbig_integer@1@AEBU21@@Z 000000018002e1a8     libucrt:cfout.obj
 0002:0000c1c0       $chain$0$?divide@__crt_strtox@@YA_KAEAUbig_integer@1@AEBU21@@Z 000000018002e1c0     libucrt:cfout.obj
 0002:0000c1d4       $chain$1$?divide@__crt_strtox@@YA_KAEAUbig_integer@1@AEBU21@@Z 000000018002e1d4     libucrt:cfout.obj
 0002:0000c1e4       $unwind$_fcloseall         000000018002e1e4     libucrt:closeall.obj
 0002:0000c208       $unwind$__acrt_locale_free_monetary 000000018002e208     libucrt:initmon.obj
 0002:0000c210       $unwind$__acrt_locale_free_time 000000018002e210     libucrt:inittime.obj
 0002:0000c220       $unwind$__acrt_GetStringTypeA 000000018002e220     libucrt:getstringtypea.obj
 0002:0000c248       $unwind$__acrt_lowio_destroy_handle_array 000000018002e248     libucrt:osfinfo.obj
 0002:0000c258       $unwind$__acrt_lowio_ensure_fh_exists 000000018002e258     libucrt:osfinfo.obj
 0002:0000c284       $unwind$qsort              000000018002e284     libucrt:qsort.obj
 0002:0000c29c       $chain$4$qsort             000000018002e29c     libucrt:qsort.obj
 0002:0000c2c0       $chain$5$qsort             000000018002e2c0     libucrt:qsort.obj
 0002:0000c2d0       $unwind$fallbackMethod     000000018002e2d0     libucrt:strpbrk.obj
 0002:0000c2e0       $unwind$__acrt_LCMapStringA 000000018002e2e0     libucrt:lcmapstringa.obj
 0002:0000c2f0       $unwind$?__acrt_LCMapStringA_stat@@YAHPEAU__crt_locale_pointers@@PEB_WKPEBDHPEADHHH@Z 000000018002e2f0     libucrt:lcmapstringa.obj
 0002:0000c318       $unwind$_close             000000018002e318     libucrt:close.obj
 0002:0000c318       $unwind$_commit            000000018002e318     libucrt:commit.obj
 0002:0000c320       $unwind$??$?RV<lambda_a37b2b86f63e897a80ea819b0eb08c01>@@AEAV<lambda_38ce7e780aa69e748d6df282ebc68efe>@@V<lambda_99fb1378e971ab6e7edea83e3a7a83a2>@@@?$__crt_seh_guarded_call@H@@QEAAH$$QEAV<lambda_a37b2b86f63e897a80ea819b0eb08c01>@@AEAV<lambda_38ce7e780aa69e748d6df282ebc68efe>@@$$QEAV<lambda_99fb1378e971ab6e7edea83e3a7a83a2>@@@Z 000000018002e320     libucrt:commit.obj
 0002:0000c344       $unwind$_write             000000018002e344     libucrt:write.obj
 0002:0000c374       $unwind$_write_nolock      000000018002e374     libucrt:write.obj
 0002:0000c38c       $unwind$?write_double_translated_ansi_nolock@@YA?AUwrite_result@?A0x17268360@@HQEBDI@Z 000000018002e38c     libucrt:write.obj
 0002:0000c3b0       $unwind$?write_text_ansi_nolock@@YA?AUwrite_result@?A0x17268360@@HQEBDI@Z 000000018002e3b0     libucrt:write.obj
 0002:0000c3b0       $unwind$?write_text_utf16le_nolock@@YA?AUwrite_result@?A0x17268360@@HQEBDI@Z 000000018002e3b0     libucrt:write.obj
 0002:0000c3d0       $unwind$?write_text_utf8_nolock@@YA?AUwrite_result@?A0x17268360@@HQEBDI@Z 000000018002e3d0     libucrt:write.obj
 0002:0000c3f8       $xdatasym                  000000018002e3f8     libucrt:log10.obj
 0002:0000c404       $unwind$fclose             000000018002e404     libucrt:fclose.obj
 0002:0000c428       $unwind$_putwch_nolock     000000018002e428     libucrt:putwch.obj
 0002:0000c430       $unwind$__acrt_fenv_set_control 000000018002e430     libucrt:_fenvutils.obj
 0002:0000c440       $unwind$_call_matherr      000000018002e440     libucrt:libm_error.obj
 0002:0000c448       $unwind$_handle_error      000000018002e448     libucrt:libm_error.obj
 0002:0000c468       $unwind$__acrt_initialize_fma3 000000018002e468     libucrt:fma3_available.obj
 0002:0000c470       $unwind$_log_special_common 000000018002e470     libucrt:log_special.obj
 0002:0000c47c       $unwind$??$?RV<lambda_751a882b2c74d4b022dec766aa51a29a>@@AEAV<lambda_628dfdc04ba53c8bfc02c9951375f3f5>@@V<lambda_f6c7be5f7998530c34de24c7437d6b54>@@@?$__crt_seh_guarded_call@H@@QEAAH$$QEAV<lambda_751a882b2c74d4b022dec766aa51a29a>@@AEAV<lambda_628dfdc04ba53c8bfc02c9951375f3f5>@@$$QEAV<lambda_f6c7be5f7998530c34de24c7437d6b54>@@@Z 000000018002e47c     libucrt:close.obj
 0002:0000c4a0       $xdatasym                  000000018002e4a0     libucrt:fpsr.obj
 0002:0000c4a8       $unwind$_raise_exc_ex      000000018002e4a8     libucrt:fpexcept.obj
 0002:0000c4bc       $unwind$_ctrlfp            000000018002e4bc     libucrt:fpctrl.obj
 0002:0000c4e4       $unwind$_IsNonwritableInCurrentImage 000000018002e4e4     LIBCMT:pesect.obj
 0002:0000c670       .edata                     000000018002e670     OPOSImageScanner.exp
 0002:0000c698       rgpv                       000000018002e698     OPOSImageScanner.exp
 0002:0000c6a8       rgszName                   000000018002e6a8     OPOSImageScanner.exp
 0002:0000c6b8       rgwOrd                     000000018002e6b8     OPOSImageScanner.exp
 0002:0000c6c0       szName                     000000018002e6c0     OPOSImageScanner.exp
 0002:0000c6d5       $N00001                    000000018002e6d5     OPOSImageScanner.exp
 0002:0000c6e5       $N00002                    000000018002e6e5     OPOSImageScanner.exp
 0002:0000c6f7       $N00003                    000000018002e6f7     OPOSImageScanner.exp
 0002:0000c709       $N00004                    000000018002e709     OPOSImageScanner.exp
 0002:0000d03a       .idata$6                   000000018002f03a     kernel32:KERNEL32.dll
 0002:0000d252       .idata$6                   000000018002f252     user32:USER32.dll
 0002:0000d386       .idata$6                   000000018002f386     gdi32:GDI32.dll
 0002:0000d42c       .idata$6                   000000018002f42c     advapi32:ADVAPI32.dll
 0002:0000d548       .idata$6                   000000018002f548     ole32:ole32.dll
 0002:0000d552       .idata$6                   000000018002f552     oleaut32:OLEAUT32.dll
 0003:000001c0       ?ObjectMap@@3PAU_ATL_OBJMAP_ENTRY30@ATL@@A 00000001800301c0     ImageScanner.obj
 0003:000002b4       ?s_RequiredMethodsPerRelease@@3PAHA 00000001800302b4     ImageScannerImpl.obj
 0003:000002c0       ?s_SOMethodNames@@3PAPEADA 00000001800302c0     ImageScannerImpl.obj
 0003:000003a0       ?__vcrt_flsindex@@3KA      00000001800303a0     libvcruntime:per_thread_data.obj
 0003:000003b0       ?errno_no_memory@@3HA      00000001800303b0     libucrt:errno.obj
 0003:000003b4       ?doserrno_no_memory@@3KA   00000001800303b4     libucrt:errno.obj
 0003:000003c0       ?__acrt_flsindex@@3KA      00000001800303c0     libucrt:per_thread_data.obj
 0003:00000880       _mbctypes                  0000000180030880     libucrt:mbctype.obj
 0003:00000990       _mbcasemaps                0000000180030990     libucrt:mbctype.obj
 0003:00000a90       ?__rgctypeflag@@3PADA      0000000180030a90     libucrt:mbctype.obj
 0003:00000aa0       ?__rgcode_page_info@@3PAUcode_page_info@@A 0000000180030aa0     libucrt:mbctype.obj
 0003:00000d40       ?__dcrt_lowio_console_output_handle@@3PEAXEA 0000000180030d40     libucrt:initcon.obj
 0003:00000d50       ?dazSupported@?1??_ctrlfp@@9@9 0000000180030d50     libucrt:fpctrl.obj
 0003:00000fa0       ?is_initialized_as_dll@@3_NA 0000000180030fa0     LIBCMT:utility.obj
 0003:00000fa1       ?module_local_atexit_table_initialized@@3_NA 0000000180030fa1     LIBCMT:utility.obj
 0003:00000fa8       ?module_local_atexit_table@@3U_onexit_table_t@@A 0000000180030fa8     LIBCMT:utility.obj
 0003:00000fc0       ?module_local_at_quick_exit_table@@3U_onexit_table_t@@A 0000000180030fc0     LIBCMT:utility.obj
 0003:00000fd8       ?g_tss_cv@@3U_RTL_CONDITION_VARIABLE@@A 0000000180030fd8     LIBCMT:thread_safe_statics.obj
 0003:00000fe0       ?g_tss_event@@3PEAXEA      0000000180030fe0     LIBCMT:thread_safe_statics.obj
 0003:00000fe8       ?g_tss_mutex@@3U_RTL_CRITICAL_SECTION@@A 0000000180030fe8     LIBCMT:thread_safe_statics.obj
 0003:00001010       ?g_sleep_condition_variable_cs@@3P6AHPEAU_RTL_CONDITION_VARIABLE@@PEAU_RTL_CRITICAL_SECTION@@K@ZEA 0000000180031010     LIBCMT:thread_safe_statics.obj
 0003:00001018       ?g_wake_all_condition_variable@@3P6AXPEAU_RTL_CONDITION_VARIABLE@@@ZEA 0000000180031018     LIBCMT:thread_safe_statics.obj
 0003:00001020       GS_ExceptionRecord         0000000180031020     LIBCMT:gs_report.obj
 0003:000010c0       GS_ContextRecord           00000001800310c0     LIBCMT:gs_report.obj
 0003:00001594       ?__proc_attached@@3HA      0000000180031594     LIBCMT:dll_dllmain.obj
 0003:00001628       ?AllocateData@@3P6APEAUAtlThunkData_t@@XZEA 0000000180031628     atls:atlthunk.obj
 0003:00001630       ?InitData@@3P6AXPEAUAtlThunkData_t@@PEAX_K@ZEA 0000000180031630     atls:atlthunk.obj
 0003:00001638       ?DataToCode@@3P6AP6A_JPEAUHWND__@@I_K_J@ZPEAUAtlThunkData_t@@@ZEA 0000000180031638     atls:atlthunk.obj
 0003:00001640       ?FreeData@@3P6AXPEAUAtlThunkData_t@@@ZEA 0000000180031640     atls:atlthunk.obj
 0003:00001648       ?Initialized@@3_NA         0000000180031648     atls:atlthunk.obj
 0003:00001660       ?__vcrt_startup_thread_ptd@@3U__vcrt_ptd@@A 0000000180031660     libvcruntime:per_thread_data.obj
 0003:000016e0       __vcrt_lock_table          00000001800316e0     libvcruntime:locks.obj
 0003:00001708       __vcrt_locks_initialized   0000000180031708     libvcruntime:locks.obj
 0003:00001758       ?heap@@3V_HeapManager@@A   0000000180031758     libvcruntime:undname.obj
 0003:00001780       ?module_handles@@3PAPEAUHINSTANCE__@@A 0000000180031780     libvcruntime:winapi_downlevel.obj
 0003:00001798       ?function_pointers@@3PAPEAXA 0000000180031798     libvcruntime:winapi_downlevel.obj
 0003:000017c0       ?__acrt_invalid_parameter_handler@@3V?$dual_state_global@P6AXPEB_W00I_K@Z@__crt_state_management@@A 00000001800317c0     libucrt:invalid_parameter.obj
 0003:000017c8       ?c_termination_complete@@3JA 00000001800317c8     libucrt:exit.obj
 0003:000017d0       ?thread_local_exit_callback_func@@3P6AXPEAXK0@ZEA 00000001800317d0     libucrt:exit.obj
 0003:000017e0       ?program_name@?1???$common_configure_argv@D@@YAHW4_crt_argv_mode@@@Z@4PADA 00000001800317e0     libucrt:argv_parsing.obj
 0003:00001938       ?__acrt_new_handler@@3V?$dual_state_global@P6AH_K@Z@__crt_state_management@@A 0000000180031938     libucrt:new_handler.obj
 0003:00001940       ?module_handles@@3PAPEAUHINSTANCE__@@A 0000000180031940     libucrt:winapi_thunks.obj
 0003:000019e0       ?encoded_function_pointers@@3PAPEAXA 00000001800319e0     libucrt:winapi_thunks.obj
 0003:00001af0       ?internal_state@?1??_mbtowc_l@@9@4U_Mbstatet@@A 0000000180031af0     libucrt:mbtowc.obj
 0003:00001b08       ?enable_percent_n@@3_KA    0000000180031b08     libucrt:printf_count_output.obj
 0003:00001f40       ?__acrt_lock_table@@3PAU_RTL_CRITICAL_SECTION@@A 0000000180031f40     libucrt:locks.obj
 0003:00002170       ?__acrt_locks_initialized@@3IA 0000000180032170     libucrt:locks.obj
 0003:00002190       ?fSystemSet@@3HA           0000000180032190     libucrt:mbctype.obj
 0003:00002194       ?initialized@?1??__acrt_initialize_multibyte@@9@4_NA 0000000180032194     libucrt:mbctype.obj
 0003:000021d0       ?ctrlc_action@@3V?$dual_state_global@P6AXH@Z@__crt_state_management@@A 00000001800321d0     libucrt:signal.obj
 0003:000021d8       ?ctrlbreak_action@@3V?$dual_state_global@P6AXH@Z@__crt_state_management@@A 00000001800321d8     libucrt:signal.obj
 0003:000021e0       ?abort_action@@3V?$dual_state_global@P6AXH@Z@__crt_state_management@@A 00000001800321e0     libucrt:signal.obj
 0003:000021e8       ?term_action@@3V?$dual_state_global@P6AXH@Z@__crt_state_management@@A 00000001800321e8     libucrt:signal.obj
 0003:000021f0       ?user_matherr@@3V?$dual_state_global@P6AHPEAU_exception@@@Z@__crt_state_management@@A 00000001800321f0     libucrt:matherr.obj
 0003:000021f8       ?__acrt_global_new_mode@@3V?$dual_state_global@J@__crt_state_management@@A 00000001800321f8     libucrt:new_mode.obj
 0003:00002208       ?internal_pst@?1??__mbrtoc32_utf8@__crt_mbstring@@YA_KPEA_UPEBD_KPEAU_Mbstatet@@@Z@4U3@A 0000000180032208     libucrt:mbrtoc32.obj
 0003:00002210       ?__acrt_app_type@@3W4_crt_app_type@@A 0000000180032210     libucrt:report_runtime_error.obj
 0004:00000000       $pdata$?cw_memcpy@@YAHPEA_WPEBDH@Z 0000000180033000     CWString.obj
 0004:0000000c       $pdata$?cw_strcpy@@YAHPEA_WPEBD@Z 000000018003300c     CWString.obj
 0004:00000018       $pdata$?cw_dup@@YAXPEBDAEAHAEAPEA_W1@Z 0000000180033018     CWString.obj
 0004:00000024       $pdata$?DupWide@_CW@@AEAAXXZ 0000000180033024     CWString.obj
 0004:00000030       $pdata$?AtlWinModuleTerm@ATL@@YAJPEAU_ATL_WIN_MODULE70@1@PEAUHINSTANCE__@@@Z 0000000180033030     OposVariant.obj
 0004:0000003c       $pdata$??0CAtlComModule@ATL@@QEAA@XZ 000000018003303c     OposVariant.obj
 0004:00000048       $pdata$?Term@CAtlComModule@ATL@@QEAAXXZ 0000000180033048     OposVariant.obj
 0004:00000054       $pdata$??__E_AtlComModule@ATL@@YAXXZ 0000000180033054     OposVariant.obj
 0004:00000060       $pdata$??0CAtlWinModule@ATL@@QEAA@XZ 0000000180033060     OposVariant.obj
 0004:0000006c       $pdata$??__E_AtlWinModule@ATL@@YAXXZ 000000018003306c     OposVariant.obj
 0004:00000078       $pdata$??__F_AtlWinModule@ATL@@YAXXZ 0000000180033078     OposVariant.obj
 0004:00000084       $pdata$??_Estringdispid@CComTypeInfoHolder@ATL@@QEAAPEAXI@Z 0000000180033084     OposVariant.obj
 0004:00000090       $pdata$?SetVARIANT_BOOL@OposVariant@@QEAAXF@Z 0000000180033090     OposVariant.obj
 0004:0000009c       $pdata$?GetLONG@OposVariant@@QEAAJXZ 000000018003309c     OposVariant.obj
 0004:000000a8       $pdata$?ChangeLONG@OposVariant@@QEAAXPEAJAEAJ@Z 00000001800330a8     OposVariant.obj
 0004:000000b4       $pdata$?SetLONG@OposVariant@@QEAAXJ@Z 00000001800330b4     OposVariant.obj
 0004:000000c0       $pdata$?SetLONG_Ptr@OposVariant@@QEAAXPEAJAEAJ@Z 00000001800330c0     OposVariant.obj
 0004:000000cc       $pdata$?ChangeBSTR@OposVariant@@QEAAXPEAPEA_WAEAJ@Z 00000001800330cc     OposVariant.obj
 0004:000000d8       $pdata$?SetBSTR@OposVariant@@QEAAXPEA_WAEAJ@Z 00000001800330d8     OposVariant.obj
 0004:000000e4       $pdata$?SetBSTR_Copy@OposVariant@@QEAAXPEA_WAEAJ@Z 00000001800330e4     OposVariant.obj
 0004:000000f0       $pdata$?SetBSTR_InOutPtr@OposVariant@@QEAA_NPEAPEA_WAEAJ@Z 00000001800330f0     OposVariant.obj
 0004:000000fc       $pdata$?SetString@OposVariant@@QEAAXPEB_WAEAJ@Z 00000001800330fc     OposVariant.obj
 0004:00000108       $pdata$?SetDispatch_Ptr@OposVariant@@QEAAXPEAUIDispatch@@AEAJ@Z 0000000180033108     OposVariant.obj
 0004:00000114       $pdata$??0OposDispParms@@QEAA@PEAVOposVariant@@H@Z 0000000180033114     OposVariant.obj
 0004:00000120       $pdata$??1OposDispParms@@QEAA@XZ 0000000180033120     OposVariant.obj
 0004:0000012c       $pdata$memcpy_s            000000018003312c     ImageScanner.obj
 0004:0000012c       $pdata$memcpy_s            000000018003312c     libucrt:cfout.obj
 0004:00000138       $pdata$?AtlThrowImpl@ATL@@YAXJ@Z 0000000180033138     ImageScanner.obj
 0004:00000144       $pdata$swprintf_s          0000000180033144     ImageScanner.obj
 0004:00000150       $pdata$?_AtlVerifyStackAvailable@_ATL_SAFE_ALLOCA_IMPL@ATL@@YA_N_K@Z 0000000180033150     ImageScanner.obj
 0004:0000015c       $pdata$?filt$0@?0??_AtlVerifyStackAvailable@_ATL_SAFE_ALLOCA_IMPL@ATL@@YA_N_K@Z@4HA 000000018003315c     ImageScanner.obj
 0004:00000168       $pdata$?AtlHresultFromLastError@ATL@@YAJXZ 0000000180033168     ImageScanner.obj
 0004:00000174       $pdata$?AtlInternalOleLoadFromStream@ATL@@YAJPEAUIStream@@AEBU_GUID@@PEAPEAXTClassesAllowedInStream@1@K@Z 0000000180033174     ImageScanner.obj
 0004:00000180       $pdata$?PutProperty@?$CComPtr@UIDispatch@@@ATL@@SAJPEAUIDispatch@@JPEAUtagVARIANT@@@Z 0000000180033180     ImageScanner.obj
 0004:0000018c       $pdata$?WriteToStream@CComBSTR@ATL@@QEAAJPEAUIStream@@@Z 000000018003318c     ImageScanner.obj
 0004:00000198       $pdata$?ReadFromStream@CComBSTR@ATL@@QEAAJPEAUIStream@@@Z 0000000180033198     ImageScanner.obj
 0004:000001a4       $pdata$?WriteToStream@CComVariant@ATL@@QEAAJPEAUIStream@@@Z 00000001800331a4     ImageScanner.obj
 0004:000001b0       $pdata$?WriteToStream@CComVariant@ATL@@QEAAJPEAUIStream@@G@Z 00000001800331b0     ImageScanner.obj
 0004:000001bc       $pdata$?ReadFromStream@CComVariant@ATL@@QEAAJPEAUIStream@@GTClassesAllowedInStream@2@K@Z 00000001800331bc     ImageScanner.obj
 0004:000001c8       $pdata$?GetSizeMax@CComVariant@ATL@@QEBAJPEAT_ULARGE_INTEGER@@@Z 00000001800331c8     ImageScanner.obj
 0004:000001d4       $pdata$?RegCreateKeyExW@CAtlTransactionManager@ATL@@QEAAJPEAUHKEY__@@PEB_WKPEA_WKKQEAU_SECURITY_ATTRIBUTES@@PEAPEAU3@PEAK@Z 00000001800331d4     ImageScanner.obj
 0004:000001e0       $pdata$?RegOpenKeyExW@CAtlTransactionManager@ATL@@QEAAJPEAUHKEY__@@PEB_WKKPEAPEAU3@@Z 00000001800331e0     ImageScanner.obj
 0004:000001ec       $pdata$?RegDeleteKeyW@CAtlTransactionManager@ATL@@QEAAJPEAUHKEY__@@PEB_W@Z 00000001800331ec     ImageScanner.obj
 0004:000001f8       $pdata$?Add@?$CSimpleArray@GV?$CSimpleArrayEqualHelper@G@ATL@@@ATL@@QEAAHAEBG@Z 00000001800331f8     ImageScanner.obj
 0004:00000204       $pdata$?AtlInternalQueryInterface@ATL@@YAJPEAXPEBU_ATL_INTMAP_ENTRY@1@AEBU_GUID@@PEAPEAX@Z 0000000180033204     ImageScanner.obj
 0004:00000210       $pdata$?AtlComModuleGetClassObject@ATL@@YAJPEAU_ATL_COM_MODULE70@1@AEBU_GUID@@1PEAPEAX@Z 0000000180033210     ImageScanner.obj
 0004:0000021c       $pdata$?AtlRegisterClassCategoriesHelper@ATL@@YAJAEBU_GUID@@PEBU_ATL_CATMAP_ENTRY@1@H@Z 000000018003321c     ImageScanner.obj
 0004:00000228       $pdata$?AtlLoadTypeLib@ATL@@YAJPEAUHINSTANCE__@@PEB_WPEAPEA_WPEAPEAUITypeLib@@@Z 0000000180033228     ImageScanner.obj
 0004:00000234       $pdata$?AtlRegisterTypeLib@ATL@@YAJPEAUHINSTANCE__@@PEB_W@Z 0000000180033234     ImageScanner.obj
 0004:00000240       $pdata$?AtlUnRegisterTypeLib@ATL@@YAJPEAUHINSTANCE__@@PEB_W@Z 0000000180033240     ImageScanner.obj
 0004:0000024c       $pdata$?AtlComModuleRegisterServer@ATL@@YAJPEAU_ATL_COM_MODULE70@1@HPEBU_GUID@@@Z 000000018003324c     ImageScanner.obj
 0004:00000258       $pdata$?AtlComModuleUnregisterServer@ATL@@YAJPEAU_ATL_COM_MODULE70@1@HPEBU_GUID@@@Z 0000000180033258     ImageScanner.obj
 0004:00000264       $pdata$?AtlModuleAddTermFunc@ATL@@YAJPEAU_ATL_MODULE70@1@P6AX_K@Z1@Z 0000000180033264     ImageScanner.obj
 0004:00000270       $pdata$?AtlCallTermFunc@ATL@@YAXPEAU_ATL_MODULE70@1@@Z 0000000180033270     ImageScanner.obj
 0004:0000027c       $pdata$?AtlWinModuleExtractCreateWndData@ATL@@YAPEAXPEAU_ATL_WIN_MODULE70@1@@Z 000000018003327c     ImageScanner.obj
 0004:00000288       $pdata$?atlCreate@CRegKey@ATL@@QEAAJPEAUHKEY__@@PEB_WPEA_WKKPEAU_SECURITY_ATTRIBUTES@@PEAK@Z 0000000180033288     ImageScanner.obj
 0004:00000294       $pdata$?Open@CRegKey@ATL@@QEAAJPEAUHKEY__@@PEB_WK@Z 0000000180033294     ImageScanner.obj
 0004:000002a0       $pdata$?DeleteSubKey@CRegKey@ATL@@QEAAJPEB_W@Z 00000001800332a0     ImageScanner.obj
 0004:000002ac       $pdata$?RecurseDeleteKey@CRegKey@ATL@@QEAAJPEB_W@Z 00000001800332ac     ImageScanner.obj
 0004:000002b8       $pdata$??0CAtlModule@ATL@@QEAA@XZ 00000001800332b8     ImageScanner.obj
 0004:000002c4       $pdata$?GetGITPtr@CAtlModule@ATL@@UEAAJPEAPEAUIGlobalInterfaceTable@@@Z 00000001800332c4     ImageScanner.obj
 0004:000002d0       $pdata$?UpdateRegistryFromResource@CAtlModule@ATL@@QEAAJPEB_WHPEAU_ATL_REGMAP_ENTRY@2@@Z 00000001800332d0     ImageScanner.obj
 0004:000002dc       $pdata$?UpdateRegistryFromResource@CAtlModule@ATL@@QEAAJIHPEAU_ATL_REGMAP_ENTRY@2@@Z 00000001800332dc     ImageScanner.obj
 0004:000002e8       $pdata$?Term@CComModule@ATL@@QEAAXXZ 00000001800332e8     ImageScanner.obj
 0004:000002f4       $pdata$?GetClassObject@CComModule@ATL@@QEAAJAEBU_GUID@@0PEAPEAX@Z 00000001800332f4     ImageScanner.obj
 0004:00000300       $pdata$?RegisterServer@CComModule@ATL@@QEAAJHPEBU_GUID@@@Z 0000000180033300     ImageScanner.obj
 0004:0000030c       $pdata$?UnregisterServer@CComModule@ATL@@QEAAJHPEBU_GUID@@@Z 000000018003330c     ImageScanner.obj
 0004:00000318       $pdata$??_GCComModule@ATL@@UEAAPEAXI@Z 0000000180033318     ImageScanner.obj
 0004:00000324       $pdata$?Add@?$CSimpleMap@PEA_WPEA_WVCExpansionVectorEqualHelper@ATL@@@ATL@@QEAAHAEBQEA_W0@Z 0000000180033324     ImageScanner.obj
 0004:00000330       $pdata$?Lookup@?$CSimpleMap@PEA_WPEA_WVCExpansionVectorEqualHelper@ATL@@@ATL@@QEBAPEA_WAEBQEA_W@Z 0000000180033330     ImageScanner.obj
 0004:0000033c       $pdata$?Add@CExpansionVector@ATL@@QEAAHPEB_W0@Z 000000018003333c     ImageScanner.obj
 0004:00000348       $pdata$?ClearReplacements@CExpansionVector@ATL@@QEAAJXZ 0000000180033348     ImageScanner.obj
 0004:00000354       $pdata$?PreProcessBuffer@CRegParser@ATL@@QEAAJPEA_WPEAPEA_W@Z 0000000180033354     ImageScanner.obj
 0004:00000360       $pdata$?RegisterBuffer@CRegParser@ATL@@QEAAJPEA_WH@Z 0000000180033360     ImageScanner.obj
 0004:0000036c       $pdata$?NextToken@CRegParser@ATL@@IEAAJPEA_W@Z 000000018003336c     ImageScanner.obj
 0004:00000378       $pdata$?AddValue@CRegParser@ATL@@IEAAJAEAVCRegKey@2@PEB_WPEA_W@Z 0000000180033378     ImageScanner.obj
 0004:00000384       $pdata$?RegisterSubkeys@CRegParser@ATL@@IEAAJPEA_WPEAUHKEY__@@HH@Z 0000000180033384     ImageScanner.obj
 0004:00000390       $pdata$?SkipAssignment@CRegParser@ATL@@IEAAJPEA_W@Z 0000000180033390     ImageScanner.obj
 0004:0000039c       $pdata$?HKeyFromString@CRegParser@ATL@@KAPEAUHKEY__@@PEA_W@Z 000000018003339c     ImageScanner.obj
 0004:000003a8       $pdata$?VTFromRegType@CRegParser@ATL@@KAHPEB_WAEAG@Z 00000001800333a8     ImageScanner.obj
 0004:000003b4       $pdata$?Append@CParseBuffer@CRegParser@ATL@@QEAAHPEB_WH@Z 00000001800333b4     ImageScanner.obj
 0004:000003c0       $pdata$?AddReplacement@CRegObject@ATL@@UEAAJPEB_W0@Z 00000001800333c0     ImageScanner.obj
 0004:000003cc       $pdata$?RegisterFromResource@CRegObject@ATL@@IEAAJPEB_W00H@Z 00000001800333cc     ImageScanner.obj
 0004:000003d8       $pdata$??_GCRegObject@ATL@@UEAAPEAXI@Z 00000001800333d8     ImageScanner.obj
 0004:000003e4       $pdata$?AllocateHeap@?$CTempBuffer@_W$0BAA@VCCRTAllocator@ATL@@@ATL@@AEAAX_K@Z 00000001800333e4     ImageScanner.obj
 0004:000003e4       $pdata$?AllocateHeap@?$CTempBuffer@E$0BAA@VCCRTAllocator@ATL@@@ATL@@AEAAX_K@Z 00000001800333e4     ImageScanner.obj
 0004:000003e4       $pdata$?AllocateHeap@?$CTempBuffer@_W$0EAA@VCCRTAllocator@ATL@@@ATL@@AEAAX_K@Z 00000001800333e4     ImageScanner.obj
 0004:000003f0       $pdata$?IsEqualObject@?$CComPtrBase@UIOleClientSite@@@ATL@@QEAA_NPEAUIUnknown@@@Z 00000001800333f0     ImageScanner.obj
 0004:000003f0       $pdata$?IsEqualObject@?$CComPtrBase@UITypeInfo@@@ATL@@QEAA_NPEAUIUnknown@@@Z 00000001800333f0     ImageScanner.obj
 0004:000003fc       $pdata$?AtlIPersistStreamInit_Load@ATL@@YAJPEAUIStream@@PEBUATL_PROPMAP_ENTRY@1@PEAXPEAUIUnknown@@@Z 00000001800333fc     ImageScanner.obj
 0004:00000408       $pdata$?AtlIPersistStreamInit_Save@ATL@@YAJPEAUIStream@@HPEBUATL_PROPMAP_ENTRY@1@PEAXPEAUIUnknown@@@Z 0000000180033408     ImageScanner.obj
 0004:00000414       $pdata$?CreateInstance@CComClassFactory@ATL@@UEAAJPEAUIUnknown@@AEBU_GUID@@PEAPEAX@Z 0000000180033414     ImageScanner.obj
 0004:00000420       $pdata$?LockServer@CComClassFactory@ATL@@UEAAJH@Z 0000000180033420     ImageScanner.obj
 0004:0000042c       $pdata$??_GCComClassFactory@ATL@@UEAAPEAXI@Z 000000018003342c     ImageScanner.obj
 0004:00000438       $pdata$?GetTI@CComTypeInfoHolder@ATL@@QEAAJK@Z 0000000180033438     ImageScanner.obj
 0004:00000444       $pdata$?Cleanup@CComTypeInfoHolder@ATL@@SAX_K@Z 0000000180033444     ImageScanner.obj
 0004:00000450       $pdata$?GetIDsOfNames@CComTypeInfoHolder@ATL@@QEAAJAEBU_GUID@@PEAPEA_WIKPEAJ@Z 0000000180033450     ImageScanner.obj
 0004:0000045c       $pdata$?LoadNameCache@CComTypeInfoHolder@ATL@@QEAAJPEAUITypeInfo@@@Z 000000018003345c     ImageScanner.obj
 0004:00000468       $pdata$?Add@CComDynamicUnkArray@ATL@@QEAAKPEAUIUnknown@@@Z 0000000180033468     ImageScanner.obj
 0004:00000474       $pdata$?AtlCreateTargetDC@ATL@@YAPEAUHDC__@@PEAU2@PEAUtagDVTARGETDEVICE@@@Z 0000000180033474     ImageScanner.obj
 0004:00000480       $pdata$?AtlHiMetricToPixel@ATL@@YAXPEBUtagSIZE@@PEAU2@@Z 0000000180033480     ImageScanner.obj
 0004:0000048c       $pdata$?DefaultReflectionHandler@?$CWindowImplRoot@VCWindow@ATL@@@ATL@@SAHPEAUHWND__@@I_K_JAEA_J@Z 000000018003348c     ImageScanner.obj
 0004:00000498       $pdata$?StartWindowProc@?$CWindowImplBaseT@VCWindow@ATL@@V?$CWinTraits@$0FGAAAAAA@$0A@@2@@ATL@@SA_JPEAUHWND__@@I_K_J@Z 0000000180033498     ImageScanner.obj
 0004:000004a4       $pdata$?WindowProc@?$CWindowImplBaseT@VCWindow@ATL@@V?$CWinTraits@$0FGAAAAAA@$0A@@2@@ATL@@SA_JPEAUHWND__@@I_K_J@Z 00000001800334a4     ImageScanner.obj
 0004:000004b0       $pdata$?atlCreate@?$CWindowImplBaseT@VCWindow@ATL@@V?$CWinTraits@$0FGAAAAAA@$0A@@2@@ATL@@QEAAPEAUHWND__@@PEAU3@V_U_RECT@2@PEB_WKKV_U_MENUorID@2@GPEAX@Z 00000001800334b0     ImageScanner.obj
 0004:000004bc       $pdata$??$AtlModuleRegisterWndClassInfoT@VAtlModuleRegisterWndClassInfoParamW@ATL@@@ATL@@YAGPEAU_ATL_BASE_MODULE70@0@PEAU_ATL_WIN_MODULE70@0@PEAU_ATL_WNDCLASSINFOW@0@PEAP6A_JPEAUHWND__@@I_K_J@ZVAtlModuleRegisterWndClassInfoParamW@0@@Z 00000001800334bc     ImageScanner.obj
 0004:000004c8       $pdata$?GetZoomInfo@CComControlBase@ATL@@QEAAXAEAUATL_DRAWINFO@@@Z 00000001800334c8     ImageScanner.obj
 0004:000004d4       $pdata$?SendOnDataChange@CComControlBase@ATL@@QEAAJK@Z 00000001800334d4     ImageScanner.obj
 0004:000004e0       $pdata$?OnSetFocus@CComControlBase@ATL@@QEAA_JI_K_JAEAH@Z 00000001800334e0     ImageScanner.obj
 0004:000004ec       $pdata$?OnKillFocus@CComControlBase@ATL@@QEAA_JI_K_JAEAH@Z 00000001800334ec     ImageScanner.obj
 0004:000004f8       $pdata$?OnMouseActivate@CComControlBase@ATL@@QEAA_JI_K_JAEAH@Z 00000001800334f8     ImageScanner.obj
 0004:00000504       $pdata$?GetAmbientLocaleID@CComControlBase@ATL@@QEAAJAEAK@Z 0000000180033504     ImageScanner.obj
 0004:00000510       $pdata$?GetAmbientUserMode@CComControlBase@ATL@@QEAAJAEAH@Z 0000000180033510     ImageScanner.obj
 0004:0000051c       $pdata$?SetControlFocus@CComControlBase@ATL@@QEAAHH@Z 000000018003351c     ImageScanner.obj
 0004:00000528       $pdata$?IQuickActivate_QuickActivate@CComControlBase@ATL@@QEAAJPEAUtagQACONTAINER@@PEAUtagQACONTROL@@@Z 0000000180033528     ImageScanner.obj
 0004:00000534       $pdata$?DoVerbProperties@CComControlBase@ATL@@QEAAJPEBUtagRECT@@PEAUHWND__@@@Z 0000000180033534     ImageScanner.obj
 0004:00000540       $pdata$?InPlaceActivate@CComControlBase@ATL@@QEAAJJPEBUtagRECT@@@Z 0000000180033540     ImageScanner.obj
 0004:0000054c       $pdata$?IOleObject_SetClientSite@CComControlBase@ATL@@QEAAJPEAUIOleClientSite@@@Z 000000018003354c     ImageScanner.obj
 0004:00000558       $pdata$?IOleObject_Close@CComControlBase@ATL@@QEAAJK@Z 0000000180033558     ImageScanner.obj
 0004:00000564       $pdata$?IOleObject_SetExtent@CComControlBase@ATL@@QEAAJKPEAUtagSIZE@@@Z 0000000180033564     ImageScanner.obj
 0004:00000570       $pdata$?IOleInPlaceObject_InPlaceDeactivate@CComControlBase@ATL@@QEAAJXZ 0000000180033570     ImageScanner.obj
 0004:0000057c       $pdata$?IOleInPlaceObject_UIDeactivate@CComControlBase@ATL@@QEAAJXZ 000000018003357c     ImageScanner.obj
 0004:00000588       $pdata$?IOleInPlaceObject_SetObjectRects@CComControlBase@ATL@@QEAAJPEBUtagRECT@@0@Z 0000000180033588     ImageScanner.obj
 0004:00000594       $pdata$?IViewObject_Draw@CComControlBase@ATL@@QEAAJKJPEAXPEAUtagDVTARGETDEVICE@@PEAUHDC__@@2PEBU_RECTL@@3@Z 0000000180033594     ImageScanner.obj
 0004:000005a0       $pdata$?IDataObject_GetData@CComControlBase@ATL@@QEAAJPEAUtagFORMATETC@@PEAUtagSTGMEDIUM@@@Z 00000001800335a0     ImageScanner.obj
 0004:000005ac       $pdata$?FireViewChange@CComControlBase@ATL@@QEAAJXZ 00000001800335ac     ImageScanner.obj
 0004:000005b8       $pdata$?OnPaint@CComControlBase@ATL@@QEAA_JI_K_JAEAH@Z 00000001800335b8     ImageScanner.obj
 0004:000005c4       $pdata$?OnDrawAdvanced@CComControlBase@ATL@@UEAAJAEAUATL_DRAWINFO@@@Z 00000001800335c4     ImageScanner.obj
 0004:000005d0       $pdata$?GetTypeInfo@?$IDispatchImpl@UIOPOSImageScanner@@$1?IID_IOPOSImageScanner@@3U_GUID@@B$1?LIBID_OposImageScanner_CCO@@3U3@B$00$0A@VCComTypeInfoHolder@ATL@@@ATL@@UEAAJIKPEAPEAUITypeInfo@@@Z 00000001800335d0     ImageScanner.obj
 0004:000005dc       $pdata$?Invoke@?$IDispatchImpl@UIOPOSImageScanner@@$1?IID_IOPOSImageScanner@@3U_GUID@@B$1?LIBID_OposImageScanner_CCO@@3U3@B$00$0A@VCComTypeInfoHolder@ATL@@@ATL@@UEAAJJAEBU_GUID@@KGPEAUtagDISPPARAMS@@PEAUtagVARIANT@@PEAUtagEXCEPINFO@@PEAI@Z 00000001800335dc     ImageScanner.obj
 0004:000005e8       $pdata$?atlCreate@?$CWindowImpl@VCOPOSImageScanner@@VCWindow@ATL@@V?$CWinTraits@$0FGAAAAAA@$0A@@3@@ATL@@QEAAPEAUHWND__@@PEAU3@V_U_RECT@2@PEB_WKKV_U_MENUorID@2@PEAX@Z 00000001800335e8     ImageScanner.obj
 0004:000005f4       $pdata$?CreateControlWindow@?$CComControl@VCOPOSImageScanner@@V?$CWindowImpl@VCOPOSImageScanner@@VCWindow@ATL@@V?$CWinTraits@$0FGAAAAAA@$0A@@3@@ATL@@@ATL@@UEAAPEAUHWND__@@PEAU3@AEAUtagRECT@@@Z 00000001800335f4     ImageScanner.obj
 0004:00000600       $pdata$?ProcessWindowMessage@?$CComControl@VCOPOSImageScanner@@V?$CWindowImpl@VCOPOSImageScanner@@VCWindow@ATL@@V?$CWinTraits@$0FGAAAAAA@$0A@@3@@ATL@@@ATL@@UEAAHPEAUHWND__@@I_K_JAEA_JK@Z 0000000180033600     ImageScanner.obj
 0004:0000060c       $pdata$?Load@?$IPersistStreamInitImpl@VCOPOSImageScanner@@@ATL@@UEAAJPEAUIStream@@@Z 000000018003360c     ImageScanner.obj
 0004:00000618       $pdata$?Save@?$IPersistStreamInitImpl@VCOPOSImageScanner@@@ATL@@UEAAJPEAUIStream@@H@Z 0000000180033618     ImageScanner.obj
 0004:00000624       $pdata$?GetSizeMax@?$IPersistStreamInitImpl@VCOPOSImageScanner@@@ATL@@UEAAJPEAT_ULARGE_INTEGER@@@Z 0000000180033624     ImageScanner.obj
 0004:00000630       $pdata$?GetClientSite@?$IOleObjectImpl@VCOPOSImageScanner@@@ATL@@UEAAJPEAPEAUIOleClientSite@@@Z 0000000180033630     ImageScanner.obj
 0004:0000063c       $pdata$?DoVerbPrimary@?$IOleObjectImpl@VCOPOSImageScanner@@@ATL@@QEAAJPEBUtagRECT@@PEAUHWND__@@@Z 000000018003363c     ImageScanner.obj
 0004:00000648       $pdata$?DoVerb@?$IOleObjectImpl@VCOPOSImageScanner@@@ATL@@UEAAJJPEAUtagMSG@@PEAUIOleClientSite@@JPEAUHWND__@@PEBUtagRECT@@@Z 0000000180033648     ImageScanner.obj
 0004:00000654       $pdata$?Advise@?$IOleObjectImpl@VCOPOSImageScanner@@@ATL@@UEAAJPEAUIAdviseSink@@PEAK@Z 0000000180033654     ImageScanner.obj
 0004:00000660       $pdata$?Unadvise@?$IOleObjectImpl@VCOPOSImageScanner@@@ATL@@UEAAJK@Z 0000000180033660     ImageScanner.obj
 0004:0000066c       $pdata$?EnumAdvise@?$IOleObjectImpl@VCOPOSImageScanner@@@ATL@@UEAAJPEAPEAUIEnumSTATDATA@@@Z 000000018003366c     ImageScanner.obj
 0004:00000678       $pdata$?TranslateAcceleratorW@?$IOleInPlaceActiveObjectImpl@VCOPOSImageScanner@@@ATL@@UEAAJPEAUtagMSG@@@Z 0000000180033678     ImageScanner.obj
 0004:00000684       $pdata$?OnDocWindowActivate@?$IOleInPlaceActiveObjectImpl@VCOPOSImageScanner@@@ATL@@UEAAJH@Z 0000000180033684     ImageScanner.obj
 0004:00000690       $pdata$?Draw@?$IViewObjectExImpl@VCOPOSImageScanner@@@ATL@@UEAAJKJPEAXPEAUtagDVTARGETDEVICE@@PEAUHDC__@@2PEBU_RECTL@@3P6AH_K@Z4@Z 0000000180033690     ImageScanner.obj
 0004:0000069c       $pdata$?SetAdvise@?$IViewObjectExImpl@VCOPOSImageScanner@@@ATL@@UEAAJKKPEAUIAdviseSink@@@Z 000000018003369c     ImageScanner.obj
 0004:000006a8       $pdata$?GetAdvise@?$IViewObjectExImpl@VCOPOSImageScanner@@@ATL@@UEAAJPEAK0PEAPEAUIAdviseSink@@@Z 00000001800336a8     ImageScanner.obj
 0004:000006b4       $pdata$?QueryHitPoint@?$IViewObjectExImpl@VCOPOSImageScanner@@@ATL@@UEAAJKPEBUtagRECT@@UtagPOINT@@JPEAK@Z 00000001800336b4     ImageScanner.obj
 0004:000006c0       $pdata$?QueryHitRect@?$IViewObjectExImpl@VCOPOSImageScanner@@@ATL@@UEAAJKPEBUtagRECT@@0JPEAK@Z 00000001800336c0     ImageScanner.obj
 0004:000006cc       $pdata$?OnWindowMessage@?$IOleInPlaceObjectWindowlessImpl@VCOPOSImageScanner@@@ATL@@UEAAJI_K_JPEA_J@Z 00000001800336cc     ImageScanner.obj
 0004:000006d8       $pdata$?EnumConnectionPoints@?$IConnectionPointContainerImpl@VCOPOSImageScanner@@@ATL@@UEAAJPEAPEAUIEnumConnectionPoints@@@Z 00000001800336d8     ImageScanner.obj
 0004:000006e4       $pdata$?FindConnectionPoint@?$IConnectionPointContainerImpl@VCOPOSImageScanner@@@ATL@@UEAAJAEBU_GUID@@PEAPEAUIConnectionPoint@@@Z 00000001800336e4     ImageScanner.obj
 0004:000006f0       $pdata$?IsDirty@?$IPersistStorageImpl@VCOPOSImageScanner@@@ATL@@UEAAJXZ 00000001800336f0     ImageScanner.obj
 0004:000006fc       $pdata$?InitNew@?$IPersistStorageImpl@VCOPOSImageScanner@@@ATL@@UEAAJPEAUIStorage@@@Z 00000001800336fc     ImageScanner.obj
 0004:00000708       $pdata$?Load@?$IPersistStorageImpl@VCOPOSImageScanner@@@ATL@@UEAAJPEAUIStorage@@@Z 0000000180033708     ImageScanner.obj
 0004:00000714       $pdata$?Save@?$IPersistStorageImpl@VCOPOSImageScanner@@@ATL@@UEAAJPEAUIStorage@@H@Z 0000000180033714     ImageScanner.obj
 0004:00000720       $pdata$?IPSI_GetIPersistStreamInit@?$IPersistStorageImpl@VCOPOSImageScanner@@@ATL@@AEAAPEAUIPersistStreamInit@@XZ 0000000180033720     ImageScanner.obj
 0004:0000072c       $pdata$?GetPagesHelper@?$ISpecifyPropertyPagesImpl@VCOPOSImageScanner@@@ATL@@IEAAJPEAUtagCAUUID@@PEBUATL_PROPMAP_ENTRY@2@@Z 000000018003372c     ImageScanner.obj
 0004:00000738       $pdata$?DAdvise@?$IDataObjectImpl@VCOPOSImageScanner@@@ATL@@UEAAJPEAUtagFORMATETC@@KPEAUIAdviseSink@@PEAK@Z 0000000180033738     ImageScanner.obj
 0004:00000744       $pdata$?GetClassInfoW@?$IProvideClassInfo2Impl@$1?CLSID_OPOSImageScanner@@3U_GUID@@B$1?DIID__IOPOSImageScannerEvents@@3U2@B$1?LIBID_OposImageScanner_CCO@@3U2@B$00$0A@VCComTypeInfoHolder@ATL@@@ATL@@UEAAJPEAPEAUITypeInfo@@@Z 0000000180033744     ImageScanner.obj
 0004:00000750       $pdata$?GetInterfaceSafetyOptions@?$IObjectSafetyImpl@VCOPOSImageScanner@@$02@ATL@@UEAAJAEBU_GUID@@PEAK1@Z 0000000180033750     ImageScanner.obj
 0004:0000075c       $pdata$?SetInterfaceSafetyOptions@?$IObjectSafetyImpl@VCOPOSImageScanner@@$02@ATL@@UEAAJAEBU_GUID@@KK@Z 000000018003375c     ImageScanner.obj
 0004:00000768       $pdata$?_LocCPQueryInterface@?$IConnectionPointImpl@VCOPOSImageScanner@@$1?IID_IPropertyNotifySink@@3U_GUID@@BVCComDynamicUnkArray@ATL@@@ATL@@UEAAJAEBU_GUID@@PEAPEAX@Z 0000000180033768     ImageScanner.obj
 0004:00000768       $pdata$?_LocCPQueryInterface@?$IConnectionPointImpl@VCOPOSImageScanner@@$1?DIID__IOPOSImageScannerEvents@@3U_GUID@@BVCComDynamicUnkArray@ATL@@@ATL@@UEAAJAEBU_GUID@@PEAPEAX@Z 0000000180033768     ImageScanner.obj
 0004:00000774       $pdata$?Advise@?$IConnectionPointImpl@VCOPOSImageScanner@@$1?DIID__IOPOSImageScannerEvents@@3U_GUID@@BVCComDynamicUnkArray@ATL@@@ATL@@UEAAJPEAUIUnknown@@PEAK@Z 0000000180033774     ImageScanner.obj
 0004:00000774       $pdata$?Advise@?$IConnectionPointImpl@VCOPOSImageScanner@@$1?IID_IPropertyNotifySink@@3U_GUID@@BVCComDynamicUnkArray@ATL@@@ATL@@UEAAJPEAUIUnknown@@PEAK@Z 0000000180033774     ImageScanner.obj
 0004:00000780       $pdata$?Unadvise@?$IConnectionPointImpl@VCOPOSImageScanner@@$1?IID_IPropertyNotifySink@@3U_GUID@@BVCComDynamicUnkArray@ATL@@@ATL@@UEAAJK@Z 0000000180033780     ImageScanner.obj
 0004:00000780       $pdata$?Unadvise@?$IConnectionPointImpl@VCOPOSImageScanner@@$1?DIID__IOPOSImageScannerEvents@@3U_GUID@@BVCComDynamicUnkArray@ATL@@@ATL@@UEAAJK@Z 0000000180033780     ImageScanner.obj
 0004:0000078c       $pdata$?EnumConnections@?$IConnectionPointImpl@VCOPOSImageScanner@@$1?IID_IPropertyNotifySink@@3U_GUID@@BVCComDynamicUnkArray@ATL@@@ATL@@UEAAJPEAPEAUIEnumConnections@@@Z 000000018003378c     ImageScanner.obj
 0004:0000078c       $pdata$?EnumConnections@?$IConnectionPointImpl@VCOPOSImageScanner@@$1?DIID__IOPOSImageScannerEvents@@3U_GUID@@BVCComDynamicUnkArray@ATL@@@ATL@@UEAAJPEAPEAUIEnumConnections@@@Z 000000018003378c     ImageScanner.obj
 0004:00000798       $pdata$?Fire_DataEvent@?$CProxy_IOPOSEvents@VCOPOSImageScanner@@@@QEAAXJ@Z 0000000180033798     ImageScanner.obj
 0004:000007a4       $pdata$?Fire_DirectIOEvent@?$CProxy_IOPOSEvents@VCOPOSImageScanner@@@@QEAAXJPEAJPEAPEA_W@Z 00000001800337a4     ImageScanner.obj
 0004:000007b0       $pdata$?Fire_ErrorEvent@?$CProxy_IOPOSEvents@VCOPOSImageScanner@@@@QEAAXJJJPEAJ@Z 00000001800337b0     ImageScanner.obj
 0004:000007bc       $pdata$?Fire_StatusUpdateEvent@?$CProxy_IOPOSEvents@VCOPOSImageScanner@@@@QEAAXJ@Z 00000001800337bc     ImageScanner.obj
 0004:000007c8       $pdata$?FireTheEvent@?$CProxy_IOPOSEvents@VCOPOSImageScanner@@@@IEAAXPEAVOposVariant@@IAEAJPEB_WJ@Z 00000001800337c8     ImageScanner.obj
 0004:000007d4       $pdata$?GetConnMap@COPOSImageScanner@@SAPEBU_ATL_CONNMAP_ENTRY@ATL@@PEAH@Z 00000001800337d4     ImageScanner.obj
 0004:000007e0       $pdata$?ProcessWindowMessage@COPOSImageScanner@@UEAAHPEAUHWND__@@I_K_JAEA_JK@Z 00000001800337e0     ImageScanner.obj
 0004:000007ec       $pdata$?SOData@COPOSImageScanner@@MEAAJJ@Z 00000001800337ec     ImageScanner.obj
 0004:000007f8       $pdata$?SODirectIO@COPOSImageScanner@@MEAAJJPEAJPEAPEA_W@Z 00000001800337f8     ImageScanner.obj
 0004:00000804       $pdata$?SOError@COPOSImageScanner@@MEAAJJJJPEAJ@Z 0000000180033804     ImageScanner.obj
 0004:00000810       $pdata$?SOStatusUpdate@COPOSImageScanner@@MEAAJJ@Z 0000000180033810     ImageScanner.obj
 0004:0000081c       $pdata$?DoEvent@COPOSImageScanner@@IEAAXI_K_J@Z 000000018003381c     ImageScanner.obj
 0004:00000828       $pdata$??__E_Module@@YAXXZ 0000000180033828     ImageScanner.obj
 0004:00000834       $pdata$??__F_Module@@YAXXZ 0000000180033834     ImageScanner.obj
 0004:00000840       $pdata$?CreateInstance@?$CComCreator@V?$CComObjectCached@VCComClassFactory@ATL@@@ATL@@@ATL@@SAJPEAXAEBU_GUID@@PEAPEAX@Z 0000000180033840     ImageScanner.obj
 0004:0000084c       $pdata$DllMain             000000018003384c     ImageScanner.obj
 0004:00000858       $pdata$?CreateInstance@?$CComCreator@V?$CComObject@VCOPOSImageScanner@@@ATL@@@ATL@@SAJPEAXAEBU_GUID@@PEAPEAX@Z 0000000180033858     ImageScanner.obj
 0004:00000864       $pdata$?CreateInstance@?$CComCreator@V?$CComAggObject@VCOPOSImageScanner@@@ATL@@@ATL@@SAJPEAXAEBU_GUID@@PEAPEAX@Z 0000000180033864     ImageScanner.obj
 0004:00000870       $pdata$??1?$CComEnumImpl@UIEnumConnectionPoints@@$1?_GUID_b196b285_bab4_101a_b69c_00aa00341d07@@3U__s_GUID@@BPEAUIConnectionPoint@@V?$_CopyInterface@UIConnectionPoint@@@ATL@@@ATL@@UEAA@XZ 0000000180033870     ImageScanner.obj
 0004:0000087c       $pdata$?Next@?$CComEnumImpl@UIEnumConnectionPoints@@$1?_GUID_b196b285_bab4_101a_b69c_00aa00341d07@@3U__s_GUID@@BPEAUIConnectionPoint@@V?$_CopyInterface@UIConnectionPoint@@@ATL@@@ATL@@UEAAJKPEAPEAUIConnectionPoint@@PEAK@Z 000000018003387c     ImageScanner.obj
 0004:00000888       $pdata$?Clone@?$CComEnumImpl@UIEnumConnectionPoints@@$1?_GUID_b196b285_bab4_101a_b69c_00aa00341d07@@3U__s_GUID@@BPEAUIConnectionPoint@@V?$_CopyInterface@UIConnectionPoint@@@ATL@@@ATL@@UEAAJPEAPEAUIEnumConnectionPoints@@@Z 0000000180033888     ImageScanner.obj
 0004:00000894       $pdata$?Init@?$CComEnumImpl@UIEnumConnectionPoints@@$1?_GUID_b196b285_bab4_101a_b69c_00aa00341d07@@3U__s_GUID@@BPEAUIConnectionPoint@@V?$_CopyInterface@UIConnectionPoint@@@ATL@@@ATL@@QEAAJPEAPEAUIConnectionPoint@@0PEAUIUnknown@@W4CComEnumFlags@2@@Z 0000000180033894     ImageScanner.obj
 0004:000008a0       $pdata$?Release@?$CComObject@V?$CComEnum@UIEnumConnections@@$1?_GUID_b196b287_bab4_101a_b69c_00aa00341d07@@3U__s_GUID@@BUtagCONNECTDATA@@V?$_Copy@UtagCONNECTDATA@@@ATL@@VCComSingleThreadModel@6@@ATL@@@ATL@@UEAAKXZ 00000001800338a0     ImageScanner.obj
 0004:000008a0       $pdata$?Release@?$CComObject@V?$CComEnum@UIEnumConnectionPoints@@$1?_GUID_b196b285_bab4_101a_b69c_00aa00341d07@@3U__s_GUID@@BPEAUIConnectionPoint@@V?$_CopyInterface@UIConnectionPoint@@@ATL@@VCComSingleThreadModel@6@@ATL@@@ATL@@UEAAKXZ 00000001800338a0     ImageScanner.obj
 0004:000008ac       $pdata$?CreateInstance@?$CComObject@V?$CComEnum@UIEnumConnectionPoints@@$1?_GUID_b196b285_bab4_101a_b69c_00aa00341d07@@3U__s_GUID@@BPEAUIConnectionPoint@@V?$_CopyInterface@UIConnectionPoint@@@ATL@@VCComSingleThreadModel@6@@ATL@@@ATL@@SAJPEAPEAV12@@Z 00000001800338ac     ImageScanner.obj
 0004:000008b8       $pdata$??_G?$CComObject@V?$CComEnum@UIEnumConnectionPoints@@$1?_GUID_b196b285_bab4_101a_b69c_00aa00341d07@@3U__s_GUID@@BPEAUIConnectionPoint@@V?$_CopyInterface@UIConnectionPoint@@@ATL@@VCComSingleThreadModel@6@@ATL@@@ATL@@UEAAPEAXI@Z 00000001800338b8     ImageScanner.obj
 0004:000008c4       $pdata$?AddRef@?$CComObjectCached@VCComClassFactory@ATL@@@ATL@@UEAAKXZ 00000001800338c4     ImageScanner.obj
 0004:000008d0       $pdata$?Release@?$CComObjectCached@VCComClassFactory@ATL@@@ATL@@UEAAKXZ 00000001800338d0     ImageScanner.obj
 0004:000008dc       $pdata$??_G?$CComObjectCached@VCComClassFactory@ATL@@@ATL@@UEAAPEAXI@Z 00000001800338dc     ImageScanner.obj
 0004:000008e8       $pdata$?Release@?$CComAggObject@VCOPOSImageScanner@@@ATL@@UEAAKXZ 00000001800338e8     ImageScanner.obj
 0004:000008f4       $pdata$?QueryInterface@?$CComAggObject@VCOPOSImageScanner@@@ATL@@UEAAJAEBU_GUID@@PEAPEAX@Z 00000001800338f4     ImageScanner.obj
 0004:00000900       $pdata$??0?$CComContainedObject@VCOPOSImageScanner@@@ATL@@QEAA@PEAX@Z 0000000180033900     ImageScanner.obj
 0004:0000090c       $pdata$??_G?$CComContainedObject@VCOPOSImageScanner@@@ATL@@UEAAPEAXI@Z 000000018003390c     ImageScanner.obj
 0004:00000918       $pdata$??_G?$CComAggObject@VCOPOSImageScanner@@@ATL@@UEAAPEAXI@Z 0000000180033918     ImageScanner.obj
 0004:00000924       $pdata$??0?$CComObject@VCOPOSImageScanner@@@ATL@@QEAA@PEAX@Z 0000000180033924     ImageScanner.obj
 0004:00000930       $pdata$??1?$CComObject@VCOPOSImageScanner@@@ATL@@UEAA@XZ 0000000180033930     ImageScanner.obj
 0004:0000093c       $pdata$?Release@?$CComObject@VCOPOSImageScanner@@@ATL@@UEAAKXZ 000000018003393c     ImageScanner.obj
 0004:00000948       $pdata$??_G?$CComObject@VCOPOSImageScanner@@@ATL@@UEAAPEAXI@Z 0000000180033948     ImageScanner.obj
 0004:00000954       $pdata$??__E?pConnMap@?$IConnectionPointContainerImpl@VCOPOSImageScanner@@@ATL@@0PEBU_ATL_CONNMAP_ENTRY@2@EB@@YAXXZ 0000000180033954     ImageScanner.obj
 0004:00000960       $pdata$??1?$CComEnumImpl@UIEnumConnections@@$1?_GUID_b196b287_bab4_101a_b69c_00aa00341d07@@3U__s_GUID@@BUtagCONNECTDATA@@V?$_Copy@UtagCONNECTDATA@@@ATL@@@ATL@@UEAA@XZ 0000000180033960     ImageScanner.obj
 0004:0000096c       $pdata$?Next@?$CComEnumImpl@UIEnumConnections@@$1?_GUID_b196b287_bab4_101a_b69c_00aa00341d07@@3U__s_GUID@@BUtagCONNECTDATA@@V?$_Copy@UtagCONNECTDATA@@@ATL@@@ATL@@UEAAJKPEAUtagCONNECTDATA@@PEAK@Z 000000018003396c     ImageScanner.obj
 0004:00000978       $pdata$?Clone@?$CComEnumImpl@UIEnumConnections@@$1?_GUID_b196b287_bab4_101a_b69c_00aa00341d07@@3U__s_GUID@@BUtagCONNECTDATA@@V?$_Copy@UtagCONNECTDATA@@@ATL@@@ATL@@UEAAJPEAPEAUIEnumConnections@@@Z 0000000180033978     ImageScanner.obj
 0004:00000984       $pdata$?Init@?$CComEnumImpl@UIEnumConnections@@$1?_GUID_b196b287_bab4_101a_b69c_00aa00341d07@@3U__s_GUID@@BUtagCONNECTDATA@@V?$_Copy@UtagCONNECTDATA@@@ATL@@@ATL@@QEAAJPEAUtagCONNECTDATA@@0PEAUIUnknown@@W4CComEnumFlags@2@@Z 0000000180033984     ImageScanner.obj
 0004:00000990       $pdata$?CreateInstance@?$CComObject@V?$CComEnum@UIEnumConnections@@$1?_GUID_b196b287_bab4_101a_b69c_00aa00341d07@@3U__s_GUID@@BUtagCONNECTDATA@@V?$_Copy@UtagCONNECTDATA@@@ATL@@VCComSingleThreadModel@6@@ATL@@@ATL@@SAJPEAPEAV12@@Z 0000000180033990     ImageScanner.obj
 0004:0000099c       $pdata$??_G?$CComObject@V?$CComEnum@UIEnumConnections@@$1?_GUID_b196b287_bab4_101a_b69c_00aa00341d07@@3U__s_GUID@@BUtagCONNECTDATA@@V?$_Copy@UtagCONNECTDATA@@@ATL@@VCComSingleThreadModel@6@@ATL@@@ATL@@UEAAPEAXI@Z 000000018003399c     ImageScanner.obj
 0004:000009a8       $pdata$??1CComControlBase@ATL@@UEAA@XZ 00000001800339a8     ImageScannerImpl.obj
 0004:000009b4       $pdata$??1?$IConnectionPointImpl@VCOPOSImageScanner@@$1?DIID__IOPOSImageScannerEvents@@3U_GUID@@BVCComDynamicUnkArray@ATL@@@ATL@@QEAA@XZ 00000001800339b4     ImageScannerImpl.obj
 0004:000009b4       $pdata$??1?$IConnectionPointImpl@VCOPOSImageScanner@@$1?IID_IPropertyNotifySink@@3U_GUID@@BVCComDynamicUnkArray@ATL@@@ATL@@QEAA@XZ 00000001800339b4     ImageScannerImpl.obj
 0004:000009c0       $pdata$?FinalConstruct@COPOSImageScanner@@QEAAJXZ 00000001800339c0     ImageScannerImpl.obj
 0004:000009cc       $pdata$??1COPOSImageScanner@@UEAA@XZ 00000001800339cc     ImageScannerImpl.obj
 0004:000009d8       $pdata$?GetOposProp@COPOSImageScanner@@IEAAJJPEAJJ@Z 00000001800339d8     ImageScannerImpl.obj
 0004:000009e4       $pdata$?SetOposProp@COPOSImageScanner@@IEAAJJJJ@Z 00000001800339e4     ImageScannerImpl.obj
 0004:000009f0       $pdata$?GetOposProp@COPOSImageScanner@@IEAAJJPEAPEA_WJ@Z 00000001800339f0     ImageScannerImpl.obj
 0004:000009fc       $pdata$?DoInvoke@COPOSImageScanner@@IEAAJJPEAVOposVariant@@IHPEAJ_N@Z 00000001800339fc     ImageScannerImpl.obj
 0004:00000a08       $pdata$?SetCOFreezeEvents@COPOSImageScanner@@IEAAXF@Z 0000000180033a08     ImageScannerImpl.obj
 0004:00000a14       $pdata$?FreezeEvents@COPOSImageScanner@@MEAAJH@Z 0000000180033a14     ImageScannerImpl.obj
 0004:00000a20       $pdata$?OnDraw@COPOSImageScanner@@MEAAJAEAUATL_DRAWINFO@@@Z 0000000180033a20     ImageScannerImpl.obj
 0004:00000a2c       $pdata$?EventInit@COPOSImageScanner@@IEAAJXZ 0000000180033a2c     ImageScannerImpl.obj
 0004:00000a38       $pdata$?EventUninit@COPOSImageScanner@@IEAAXXZ 0000000180033a38     ImageScannerImpl.obj
 0004:00000a44       $pdata$?s_EventWindowProc@COPOSImageScanner@@KA_JPEAUHWND__@@I_K_J@Z 0000000180033a44     ImageScannerImpl.obj
 0004:00000a50       $pdata$?EventWindowProc@COPOSImageScanner@@IEAA_JI_K_J@Z 0000000180033a50     ImageScannerImpl.obj
 0004:00000a5c       $pdata$?SOProcessID@COPOSImageScanner@@UEAAJPEAJ@Z 0000000180033a5c     ImageScannerImpl.obj
 0004:00000a68       $pdata$?get_AutoDisable@COPOSImageScanner@@UEAAJPEAF@Z 0000000180033a68     ImageScannerImpl.obj
 0004:00000a74       $pdata$?get_Claimed@COPOSImageScanner@@UEAAJPEAF@Z 0000000180033a74     ImageScannerImpl.obj
 0004:00000a80       $pdata$?get_DataEventEnabled@COPOSImageScanner@@UEAAJPEAF@Z 0000000180033a80     ImageScannerImpl.obj
 0004:00000a8c       $pdata$?get_DeviceEnabled@COPOSImageScanner@@UEAAJPEAF@Z 0000000180033a8c     ImageScannerImpl.obj
 0004:00000a98       $pdata$?get_FreezeEvents@COPOSImageScanner@@UEAAJPEAF@Z 0000000180033a98     ImageScannerImpl.obj
 0004:00000aa4       $pdata$?put_FreezeEvents@COPOSImageScanner@@UEAAJF@Z 0000000180033aa4     ImageScannerImpl.obj
 0004:00000ab0       $pdata$?get_ResultCode@COPOSImageScanner@@UEAAJPEAJ@Z 0000000180033ab0     ImageScannerImpl.obj
 0004:00000abc       $pdata$?get_State@COPOSImageScanner@@UEAAJPEAJ@Z 0000000180033abc     ImageScannerImpl.obj
 0004:00000ac8       $pdata$?get_ControlObjectDescription@COPOSImageScanner@@UEAAJPEAPEA_W@Z 0000000180033ac8     ImageScannerImpl.obj
 0004:00000ad4       $pdata$?get_CapStatisticsReporting@COPOSImageScanner@@UEAAJPEAF@Z 0000000180033ad4     ImageScannerImpl.obj
 0004:00000ae0       $pdata$?get_CapUpdateStatistics@COPOSImageScanner@@UEAAJPEAF@Z 0000000180033ae0     ImageScannerImpl.obj
 0004:00000aec       $pdata$?get_CapCompareFirmwareVersion@COPOSImageScanner@@UEAAJPEAF@Z 0000000180033aec     ImageScannerImpl.obj
 0004:00000af8       $pdata$?get_CapUpdateFirmware@COPOSImageScanner@@UEAAJPEAF@Z 0000000180033af8     ImageScannerImpl.obj
 0004:00000b04       $pdata$?CheckHealth@COPOSImageScanner@@UEAAJJPEAJ@Z 0000000180033b04     ImageScannerImpl.obj
 0004:00000b10       $pdata$?ClaimDevice@COPOSImageScanner@@UEAAJJPEAJ@Z 0000000180033b10     ImageScannerImpl.obj
 0004:00000b1c       $pdata$?ClearInput@COPOSImageScanner@@UEAAJPEAJ@Z 0000000180033b1c     ImageScannerImpl.obj
 0004:00000b28       $pdata$?Close@COPOSImageScanner@@UEAAJPEAJ@Z 0000000180033b28     ImageScannerImpl.obj
 0004:00000b34       $pdata$?DirectIO@COPOSImageScanner@@UEAAJJPEAJPEAPEA_W0@Z 0000000180033b34     ImageScannerImpl.obj
 0004:00000b40       $pdata$?Open@COPOSImageScanner@@UEAAJPEA_WPEAJ@Z 0000000180033b40     ImageScannerImpl.obj
 0004:00000b4c       $pdata$?ReleaseDevice@COPOSImageScanner@@UEAAJPEAJ@Z 0000000180033b4c     ImageScannerImpl.obj
 0004:00000b58       $pdata$?ResetStatistics@COPOSImageScanner@@UEAAJPEA_WPEAJ@Z 0000000180033b58     ImageScannerImpl.obj
 0004:00000b64       $pdata$?RetrieveStatistics@COPOSImageScanner@@UEAAJPEAPEA_WPEAJ@Z 0000000180033b64     ImageScannerImpl.obj
 0004:00000b70       $pdata$?UpdateStatistics@COPOSImageScanner@@UEAAJPEA_WPEAJ@Z 0000000180033b70     ImageScannerImpl.obj
 0004:00000b7c       $pdata$?CompareFirmwareVersion@COPOSImageScanner@@UEAAJPEA_WPEAJ1@Z 0000000180033b7c     ImageScannerImpl.obj
 0004:00000b88       $pdata$?UpdateFirmware@COPOSImageScanner@@UEAAJPEA_WPEAJ@Z 0000000180033b88     ImageScannerImpl.obj
 0004:00000b94       $pdata$?ClearInputProperties@COPOSImageScanner@@UEAAJPEAJ@Z 0000000180033b94     ImageScannerImpl.obj
 0004:00000ba0       $pdata$?get_CapAim@COPOSImageScanner@@UEAAJPEAF@Z 0000000180033ba0     ImageScannerImpl.obj
 0004:00000bac       $pdata$?get_CapDecodeData@COPOSImageScanner@@UEAAJPEAF@Z 0000000180033bac     ImageScannerImpl.obj
 0004:00000bb8       $pdata$?get_CapHostTriggered@COPOSImageScanner@@UEAAJPEAF@Z 0000000180033bb8     ImageScannerImpl.obj
 0004:00000bc4       $pdata$?get_CapIlluminate@COPOSImageScanner@@UEAAJPEAF@Z 0000000180033bc4     ImageScannerImpl.obj
 0004:00000bd0       $pdata$?get_CapImageData@COPOSImageScanner@@UEAAJPEAF@Z 0000000180033bd0     ImageScannerImpl.obj
 0004:00000bdc       $pdata$?get_CapImageQuality@COPOSImageScanner@@UEAAJPEAF@Z 0000000180033bdc     ImageScannerImpl.obj
 0004:00000be8       $pdata$?get_CapVideoData@COPOSImageScanner@@UEAAJPEAF@Z 0000000180033be8     ImageScannerImpl.obj
 0004:00000bf4       $pdata$?get_AimMode@COPOSImageScanner@@UEAAJPEAF@Z 0000000180033bf4     ImageScannerImpl.obj
 0004:00000c00       $pdata$?get_IlluminateMode@COPOSImageScanner@@UEAAJPEAF@Z 0000000180033c00     ImageScannerImpl.obj
 0004:00000c0c       $pdata$?StartSession@COPOSImageScanner@@UEAAJPEAJ@Z 0000000180033c0c     ImageScannerImpl.obj
 0004:00000c18       $pdata$?StopSession@COPOSImageScanner@@UEAAJPEAJ@Z 0000000180033c18     ImageScannerImpl.obj
 0004:00000c24       $pdata$atexit              0000000180033c24     LIBCMT:utility.obj
 0004:00000c30       $pdata$_onexit             0000000180033c30     LIBCMT:utility.obj
 0004:00000c3c       $pdata$__scrt_is_nonwritable_in_current_image 0000000180033c3c     LIBCMT:utility.obj
 0004:00000c48       $pdata$__scrt_is_nonwritable_in_current_image$filt$0 0000000180033c48     LIBCMT:utility.obj
 0004:00000c54       $pdata$__scrt_acquire_startup_lock 0000000180033c54     LIBCMT:utility.obj
 0004:00000c60       $pdata$__scrt_release_startup_lock 0000000180033c60     LIBCMT:utility.obj
 0004:00000c6c       $pdata$__scrt_initialize_crt 0000000180033c6c     LIBCMT:utility.obj
 0004:00000c78       $pdata$__scrt_uninitialize_crt 0000000180033c78     LIBCMT:utility.obj
 0004:00000c84       $pdata$__scrt_initialize_onexit_tables 0000000180033c84     LIBCMT:utility.obj
 0004:00000c90       $pdata$__scrt_dllmain_exception_filter 0000000180033c90     LIBCMT:utility.obj
 0004:00000c9c       $pdata$__scrt_dllmain_before_initialize_c 0000000180033c9c     LIBCMT:utility.obj
 0004:00000ca8       $pdata$__scrt_dllmain_after_initialize_c 0000000180033ca8     LIBCMT:utility.obj
 0004:00000cb4       $pdata$__scrt_dllmain_uninitialize_c 0000000180033cb4     LIBCMT:utility.obj
 0004:00000cc0       $pdata$__scrt_dllmain_uninitialize_critical 0000000180033cc0     LIBCMT:utility.obj
 0004:00000ccc       $pdata$__scrt_dllmain_crt_thread_attach 0000000180033ccc     LIBCMT:utility.obj
 0004:00000cd8       $pdata$__scrt_dllmain_crt_thread_detach 0000000180033cd8     LIBCMT:utility.obj
 0004:00000ce4       $pdata$_Init_thread_header 0000000180033ce4     LIBCMT:thread_safe_statics.obj
 0004:00000cf0       $pdata$_Init_thread_footer 0000000180033cf0     LIBCMT:thread_safe_statics.obj
 0004:00000cfc       $pdata$_Init_thread_wait   0000000180033cfc     LIBCMT:thread_safe_statics.obj
 0004:00000d08       $pdata$_Init_thread_notify 0000000180033d08     LIBCMT:thread_safe_statics.obj
 0004:00000d14       $pdata$?__scrt_uninitialize_thread_safe_statics@@YAXXZ 0000000180033d14     LIBCMT:thread_safe_statics.obj
 0004:00000d20       $pdata$?__scrt_initialize_thread_safe_statics@@YAHXZ 0000000180033d20     LIBCMT:thread_safe_statics.obj
 0004:00000d2c       $pdata$__report_securityfailure 0000000180033d2c     LIBCMT:gs_report.obj
 0004:00000d38       $pdata$__report_rangecheckfailure 0000000180033d38     LIBCMT:gs_report.obj
 0004:00000d44       $pdata$__report_gsfailure  0000000180033d44     LIBCMT:gs_report.obj
 0004:00000d50       $pdata$capture_current_context 0000000180033d50     LIBCMT:gs_report.obj
 0004:00000d5c       $pdata$capture_previous_context 0000000180033d5c     LIBCMT:gs_report.obj
 0004:00000d68       $pdata$__raise_securityfailure 0000000180033d68     LIBCMT:gs_report.obj
 0004:00000d74       $pdata$??2@YAPEAX_KAEBUnothrow_t@std@@@Z 0000000180033d74     LIBCMT:new_scalar_nothrow.obj
 0004:00000d80       $pdata$?catch$0@?0???2@YAPEAX_KAEBUnothrow_t@std@@@Z@4HA 0000000180033d80     LIBCMT:new_scalar_nothrow.obj
 0004:00000d8c       $pdata$__GSHandlerCheckCommon 0000000180033d8c     LIBCMT:gshandler.obj
 0004:00000d98       $pdata$__GSHandlerCheck    0000000180033d98     LIBCMT:gshandler.obj
 0004:00000da4       $pdata$__GSHandlerCheck_SEH 0000000180033da4     LIBCMT:gshandlerseh.obj
 0004:00000dc8       $pdata$?dllmain_crt_process_attach@@YAHQEAUHINSTANCE__@@QEAX@Z 0000000180033dc8     LIBCMT:dll_dllmain.obj
 0004:00000dd4       $pdata$?fin$0@?0??dllmain_crt_process_attach@@YAHQEAUHINSTANCE__@@QEAX@Z@4HA 0000000180033dd4     LIBCMT:dll_dllmain.obj
 0004:00000de0       $pdata$?dllmain_crt_process_detach@@YAH_N@Z 0000000180033de0     LIBCMT:dll_dllmain.obj
 0004:00000dec       $pdata$?fin$0@?0??dllmain_crt_process_detach@@YAH_N@Z@4HA 0000000180033dec     LIBCMT:dll_dllmain.obj
 0004:00000df8       $pdata$?dllmain_crt_dispatch@@YAHQEAUHINSTANCE__@@KQEAX@Z 0000000180033df8     LIBCMT:dll_dllmain.obj
 0004:00000e04       $pdata$?dllmain_dispatch@@YAHQEAUHINSTANCE__@@KQEAX@Z 0000000180033e04     LIBCMT:dll_dllmain.obj
 0004:00000e10       $pdata$?filt$0@?0??dllmain_dispatch@@YAHQEAUHINSTANCE__@@KQEAX@Z@4HA 0000000180033e10     LIBCMT:dll_dllmain.obj
 0004:00000e1c       $pdata$_DllMainCRTStartup  0000000180033e1c     LIBCMT:dll_dllmain.obj
 0004:00000e28       $pdata$??2@YAPEAX_K@Z      0000000180033e28     LIBCMT:new_scalar.obj
 0004:00000e34       $pdata$__isa_available_init 0000000180033e34     LIBCMT:cpu_disp.obj
 0004:00000e40       $pdata$__scrt_fastfail     0000000180033e40     LIBCMT:utility_desktop.obj
 0004:00000e4c       $pdata$__security_init_cookie 0000000180033e4c     LIBCMT:gs_support.obj
 0004:00000e58       $pdata$__scrt_initialize_default_local_stdio_options 0000000180033e58     LIBCMT:default_local_stdio_options.obj
 0004:00000e64       $pdata$_RTC_Initialize     0000000180033e64     LIBCMT:initsect.obj
 0004:00000e70       $pdata$_RTC_Terminate      0000000180033e70     LIBCMT:initsect.obj
 0004:00000e7c       $pdata$??0exception@std@@QEAA@AEBV01@@Z 0000000180033e7c     LIBCMT:throw_bad_alloc.obj
 0004:00000e88       $pdata$??_Gbad_array_new_length@std@@UEAAPEAXI@Z 0000000180033e88     LIBCMT:throw_bad_alloc.obj
 0004:00000e88       $pdata$??_Gbad_alloc@std@@UEAAPEAXI@Z 0000000180033e88     LIBCMT:throw_bad_alloc.obj
 0004:00000e88       $pdata$??_Gexception@std@@UEAAPEAXI@Z 0000000180033e88     LIBCMT:throw_bad_alloc.obj
 0004:00000e88       $pdata$??_Gbad_exception@std@@UEAAPEAXI@Z 0000000180033e88     libvcruntime:frame.obj
 0004:00000e94       $pdata$??0bad_alloc@std@@QEAA@AEBV01@@Z 0000000180033e94     LIBCMT:throw_bad_alloc.obj
 0004:00000ea0       $pdata$??0bad_array_new_length@std@@QEAA@AEBV01@@Z 0000000180033ea0     LIBCMT:throw_bad_alloc.obj
 0004:00000eac       $pdata$?__scrt_throw_std_bad_alloc@@YAXXZ 0000000180033eac     LIBCMT:throw_bad_alloc.obj
 0004:00000eb8       $pdata$?__scrt_throw_std_bad_array_new_length@@YAXXZ 0000000180033eb8     LIBCMT:throw_bad_alloc.obj
 0004:00000ed0       $pdata$??_Gtype_info@@UEAAPEAXI@Z 0000000180033ed0     LIBCMT:std_type_info_static.obj
 0004:00000edc       $pdata$??0CAtlBaseModule@ATL@@QEAA@XZ 0000000180033edc     atls:atlbase.obj
 0004:00000ee8       $pdata$??1CAtlBaseModule@ATL@@QEAA@XZ 0000000180033ee8     atls:atlbase.obj
 0004:00000ef4       $pdata$??__E_AtlBaseModule@ATL@@YAXXZ 0000000180033ef4     atls:atlbase.obj
 0004:00000f00       $pdata$AtlThunk_AllocateData 0000000180033f00     atls:atlthunk.obj
 0004:00000f0c       $pdata$AtlThunk_InitData   0000000180033f0c     atls:atlthunk.obj
 0004:00000f18       $pdata$AtlThunk_DataToCode 0000000180033f18     atls:atlthunk.obj
 0004:00000f24       $pdata$AtlThunk_FreeData   0000000180033f24     atls:atlthunk.obj
 0004:00000f30       $pdata$?__InitializeThunkPool@@YAHXZ 0000000180033f30     atls:atlthunk.obj
 0004:00000f3c       $pdata$?__AllocStdCallThunk_cmn@@YAPEAXXZ 0000000180033f3c     atls:atlthunk.obj
 0004:00000f48       $pdata$??$GetProcAddressAll@P6AXPEAUAtlThunkData_t@@@Z@@YAP6AXPEAUAtlThunkData_t@@@ZPEAP6AX0@Z@Z 0000000180033f48     atls:atlthunk.obj
 0004:00000f48       $pdata$??$GetProcAddressAll@P6APEAUAtlThunkData_t@@XZ@@YAP6APEAUAtlThunkData_t@@XZPEAP6APEAU0@XZ@Z 0000000180033f48     atls:atlthunk.obj
 0004:00000f48       $pdata$??$GetProcAddressAll@P6AP6A_JPEAUHWND__@@I_K_J@ZPEAUAtlThunkData_t@@@Z@@YAP6AP6A_JPEAUHWND__@@I_K_J@ZPEAUAtlThunkData_t@@@ZPEAP6AP6A_J0I12@Z3@Z@Z 0000000180033f48     atls:atlthunk.obj
 0004:00000f48       $pdata$??$GetProcAddressAll@P6AXPEAUAtlThunkData_t@@PEAX_K@Z@@YAP6AXPEAUAtlThunkData_t@@PEAX_K@ZPEAP6AX012@Z@Z 0000000180033f48     atls:atlthunk.obj
 0004:00000f54       $pdata$_purecall           0000000180033f54     libvcruntime:purevirt.obj
 0004:00000f60       $pdata$wcsstr              0000000180033f60     libvcruntime:wcsstr.obj
 0004:00000fa8       $pdata$__vcrt_initialize   0000000180033fa8     libvcruntime:initialization.obj
 0004:00000fb4       $pdata$__vcrt_uninitialize 0000000180033fb4     libvcruntime:initialization.obj
 0004:00000fc0       $pdata$__vcrt_uninitialize_critical 0000000180033fc0     libvcruntime:initialization.obj
 0004:00000fcc       $pdata$__vcrt_thread_attach 0000000180033fcc     libvcruntime:initialization.obj
 0004:00000fd8       $pdata$__vcrt_thread_detach 0000000180033fd8     libvcruntime:initialization.obj
 0004:00000fe4       $pdata$__C_specific_handler 0000000180033fe4     libvcruntime:riscchandler.obj
 0004:00000ff0       $pdata$?CatchTryBlock@__FrameHandler3@@SAPEBU_s_TryBlockMapEntry@@PEBU_s_FuncInfo@@H@Z 0000000180033ff0     libvcruntime:risctrnsctrl.obj
 0004:00000ffc       $pdata$?ExecutionInCatch@__FrameHandler3@@SA_NPEAU_xDISPATCHER_CONTEXT@@PEBU_s_FuncInfo@@@Z 0000000180033ffc     libvcruntime:risctrnsctrl.obj
 0004:00001008       $pdata$?FrameUnwindToEmptyState@__FrameHandler3@@SAXPEA_KPEAU_xDISPATCHER_CONTEXT@@PEBU_s_FuncInfo@@@Z 0000000180034008     libvcruntime:risctrnsctrl.obj
 0004:00001014       $pdata$?GetEstablisherFrame@__FrameHandler3@@SAPEA_KPEA_KPEAU_xDISPATCHER_CONTEXT@@PEBU_s_FuncInfo@@0@Z 0000000180034014     libvcruntime:risctrnsctrl.obj
 0004:00001020       $pdata$?UnwindNestedFrames@__FrameHandler3@@SAXPEA_KPEAUEHExceptionRecord@@PEAU_CONTEXT@@0PEAXPEBU_s_FuncInfo@@HHPEBU_s_HandlerType@@PEAU_xDISPATCHER_CONTEXT@@E@Z 0000000180034020     libvcruntime:risctrnsctrl.obj
 0004:0000102c       $pdata$?GetRangeOfTrysToCheck@__FrameHandler3@@SA?AU?$pair@Viterator@TryBlockMap@__FrameHandler3@@V123@@std@@AEAVTryBlockMap@1@HPEAU_xDISPATCHER_CONTEXT@@PEBU_s_FuncInfo@@H@Z 000000018003402c     libvcruntime:risctrnsctrl.obj
 0004:00001038       $pdata$_GetImageBase       0000000180034038     libvcruntime:risctrnsctrl.obj
 0004:00001044       $pdata$_SetImageBase       0000000180034044     libvcruntime:risctrnsctrl.obj
 0004:00001050       $pdata$_GetThrowImageBase  0000000180034050     libvcruntime:risctrnsctrl.obj
 0004:0000105c       $pdata$_SetThrowImageBase  000000018003405c     libvcruntime:risctrnsctrl.obj
 0004:00001068       $pdata$_CreateFrameInfo    0000000180034068     libvcruntime:risctrnsctrl.obj
 0004:00001074       $pdata$_FindAndUnlinkFrame 0000000180034074     libvcruntime:risctrnsctrl.obj
 0004:00001080       $pdata$__CxxFrameHandler3  0000000180034080     libvcruntime:risctrnsctrl.obj
 0004:0000108c       $pdata$??$_CallSETranslator@V__FrameHandler3@@@@YAHPEAUEHExceptionRecord@@PEA_KPEAU_CONTEXT@@PEAU_xDISPATCHER_CONTEXT@@PEBU_s_FuncInfo@@K1@Z 000000018003408c     libvcruntime:risctrnsctrl.obj
 0004:00001098       $pdata$?filt$0@?0???$_CallSETranslator@V__FrameHandler3@@@@YAHPEAUEHExceptionRecord@@PEA_KPEAU_CONTEXT@@PEAU_xDISPATCHER_CONTEXT@@PEBU_s_FuncInfo@@K1@Z@4HA 0000000180034098     libvcruntime:risctrnsctrl.obj
 0004:000010a4       $pdata$__std_type_info_destroy_list 00000001800340a4     libvcruntime:std_type_info.obj
 0004:000010b0       $pdata$__std_exception_copy 00000001800340b0     libvcruntime:std_exception.obj
 0004:000010bc       $pdata$__std_exception_destroy 00000001800340bc     libvcruntime:std_exception.obj
 0004:000010c8       $pdata$_CxxThrowException  00000001800340c8     libvcruntime:throw.obj
 0004:000010d4       $pdata$__vcrt_initialize_ptd 00000001800340d4     libvcruntime:per_thread_data.obj
 0004:000010e0       $pdata$__vcrt_uninitialize_ptd 00000001800340e0     libvcruntime:per_thread_data.obj
 0004:000010ec       $pdata$__vcrt_getptd       00000001800340ec     libvcruntime:per_thread_data.obj
 0004:000010f8       $pdata$__vcrt_getptd_noexit 00000001800340f8     libvcruntime:per_thread_data.obj
 0004:00001104       $pdata$__vcrt_freeptd      0000000180034104     libvcruntime:per_thread_data.obj
 0004:00001110       $pdata$__vcrt_freefls      0000000180034110     libvcruntime:per_thread_data.obj
 0004:0000111c       $pdata$__vcrt_initialize_locks 000000018003411c     libvcruntime:locks.obj
 0004:00001128       $pdata$__vcrt_uninitialize_locks 0000000180034128     libvcruntime:locks.obj
 0004:00001158       $pdata$_IsExceptionObjectToBeDestroyed 0000000180034158     libvcruntime:ehhelpers.obj
 0004:00001164       $pdata$__FrameUnwindFilter 0000000180034164     libvcruntime:ehhelpers.obj
 0004:00001170       $pdata$__DestructExceptionObject 0000000180034170     libvcruntime:ehhelpers.obj
 0004:0000117c       $pdata$__DestructExceptionObject$filt$0 000000018003417c     libvcruntime:ehhelpers.obj
 0004:00001188       $pdata$?StateFromIp@__FrameHandler3@@SAHPEBU_s_FuncInfo@@PEAU_xDISPATCHER_CONTEXT@@_K@Z 0000000180034188     libvcruntime:ehstate.obj
 0004:00001194       $pdata$?GetCurrentState@__FrameHandler3@@SAHPEA_KPEAU_xDISPATCHER_CONTEXT@@PEBU_s_FuncInfo@@@Z 0000000180034194     libvcruntime:ehstate.obj
 0004:000011a0       $pdata$?SetUnwindTryBlock@__FrameHandler3@@SAXPEA_KPEAU_xDISPATCHER_CONTEXT@@PEBU_s_FuncInfo@@H@Z 00000001800341a0     libvcruntime:ehstate.obj
 0004:000011ac       $pdata$?GetUnwindTryBlock@__FrameHandler3@@SAHPEA_KPEAU_xDISPATCHER_CONTEXT@@PEBU_s_FuncInfo@@@Z 00000001800341ac     libvcruntime:ehstate.obj
 0004:000011b8       $pdata$?FrameUnwindToState@__FrameHandler3@@SAXPEA_KPEAU_xDISPATCHER_CONTEXT@@PEBU_s_FuncInfo@@H@Z 00000001800341b8     libvcruntime:frame.obj
 0004:000011c4       $pdata$?filt$0@?0??FrameUnwindToState@__FrameHandler3@@SAXPEA_KPEAU_xDISPATCHER_CONTEXT@@PEBU_s_FuncInfo@@H@Z@4HA 00000001800341c4     libvcruntime:frame.obj
 0004:000011d0       $pdata$?fin$1@?0??FrameUnwindToState@__FrameHandler3@@SAXPEA_KPEAU_xDISPATCHER_CONTEXT@@PEBU_s_FuncInfo@@H@Z@4HA 00000001800341d0     libvcruntime:frame.obj
 0004:000011dc       $pdata$?GetHandlerSearchState@__FrameHandler3@@SAHPEA_KPEAU_xDISPATCHER_CONTEXT@@PEBU_s_FuncInfo@@@Z 00000001800341dc     libvcruntime:frame.obj
 0004:000011e8       $pdata$?CxxCallCatchBlock@__FrameHandler3@@SAPEAXPEAU_EXCEPTION_RECORD@@@Z 00000001800341e8     libvcruntime:frame.obj
 0004:000011f4       $pdata$?filt$0@?0??CxxCallCatchBlock@__FrameHandler3@@SAPEAXPEAU_EXCEPTION_RECORD@@@Z@4HA 00000001800341f4     libvcruntime:frame.obj
 0004:00001200       $pdata$?fin$1@?0??CxxCallCatchBlock@__FrameHandler3@@SAPEAXPEAU_EXCEPTION_RECORD@@@Z@4HA 0000000180034200     libvcruntime:frame.obj
 0004:0000120c       $pdata$??0bad_exception@std@@QEAA@AEBV01@@Z 000000018003420c     libvcruntime:frame.obj
 0004:00001218       $pdata$?ExFilterRethrow@@YAHPEAU_EXCEPTION_POINTERS@@PEAUEHExceptionRecord@@PEAH@Z 0000000180034218     libvcruntime:frame.obj
 0004:00001224       $pdata$?IsInExceptionSpec@@YAEPEAUEHExceptionRecord@@PEBU_s_ESTypeList@@@Z 0000000180034224     libvcruntime:frame.obj
 0004:00001230       $pdata$?Is_bad_exception_allowed@@YAEPEBU_s_ESTypeList@@@Z 0000000180034230     libvcruntime:frame.obj
 0004:0000123c       $pdata$??$__InternalCxxFrameHandler@V__FrameHandler3@@@@YA?AW4_EXCEPTION_DISPOSITION@@PEAUEHExceptionRecord@@PEA_KPEAU_CONTEXT@@PEAU_xDISPATCHER_CONTEXT@@PEBU_s_FuncInfo@@H1E@Z 000000018003423c     libvcruntime:frame.obj
 0004:00001248       $pdata$??$TypeMatchHelper@V__FrameHandler3@@@@YAHPEBU_s_HandlerType@@PEBU_s_CatchableType@@PEBU_s_ThrowInfo@@@Z 0000000180034248     libvcruntime:frame.obj
 0004:00001254       $pdata$??$BuildCatchObjectHelperInternal@V__FrameHandler3@@@@YAHPEAUEHExceptionRecord@@PEAXPEBU_s_HandlerType@@PEBU_s_CatchableType@@@Z 0000000180034254     libvcruntime:frame.obj
 0004:00001260       $pdata$??$BuildCatchObjectInternal@V__FrameHandler3@@@@YAXPEAUEHExceptionRecord@@PEAXPEBU_s_HandlerType@@PEBU_s_CatchableType@@@Z 0000000180034260     libvcruntime:frame.obj
 0004:0000126c       $pdata$??$FindHandler@V__FrameHandler3@@@@YAXPEAUEHExceptionRecord@@PEA_KPEAU_CONTEXT@@PEAU_xDISPATCHER_CONTEXT@@PEBU_s_FuncInfo@@EH1@Z 000000018003426c     libvcruntime:frame.obj
 0004:00001278       $pdata$??$CatchIt@V__FrameHandler3@@@@YAXPEAUEHExceptionRecord@@PEA_KPEAU_CONTEXT@@PEAU_xDISPATCHER_CONTEXT@@PEBU_s_FuncInfo@@PEBU_s_HandlerType@@PEBU_s_CatchableType@@PEBU_s_TryBlockMapEntry@@H1EE@Z 0000000180034278     libvcruntime:frame.obj
 0004:00001284       $pdata$??$FindHandlerForForeignException@V__FrameHandler3@@@@YAXPEAUEHExceptionRecord@@PEA_KPEAU_CONTEXT@@PEAU_xDISPATCHER_CONTEXT@@PEBU_s_FuncInfo@@HH1@Z 0000000180034284     libvcruntime:frame.obj
 0004:00001290       $pdata$__vcrt_FlsAlloc     0000000180034290     libvcruntime:winapi_downlevel.obj
 0004:0000129c       $pdata$__vcrt_FlsFree      000000018003429c     libvcruntime:winapi_downlevel.obj
 0004:000012a8       $pdata$__vcrt_FlsGetValue  00000001800342a8     libvcruntime:winapi_downlevel.obj
 0004:000012b4       $pdata$__vcrt_FlsSetValue  00000001800342b4     libvcruntime:winapi_downlevel.obj
 0004:000012c0       $pdata$__vcrt_InitializeCriticalSectionEx 00000001800342c0     libvcruntime:winapi_downlevel.obj
 0004:000012cc       $pdata$?try_get_function@@YAPEAXW4function_id@?A0x656504f9@@QEBDQEBW4module_id@2@2@Z 00000001800342cc     libvcruntime:winapi_downlevel.obj
 0004:00001308       $pdata$_invalid_parameter_noinfo 0000000180034308     libucrt:invalid_parameter.obj
 0004:00001314       $pdata$_invoke_watson      0000000180034314     libucrt:invalid_parameter.obj
 0004:00001320       $pdata$__acrt_call_reportfault 0000000180034320     libucrt:invalid_parameter.obj
 0004:0000132c       $pdata$_invalid_parameter  000000018003432c     libucrt:invalid_parameter.obj
 0004:00001338       $pdata$_errno              0000000180034338     libucrt:errno.obj
 0004:00001344       $pdata$__doserrno          0000000180034344     libucrt:errno.obj
 0004:00001350       $pdata$__acrt_errno_map_os_error 0000000180034350     libucrt:errno.obj
 0004:0000135c       $pdata$_recalloc_base      000000018003435c     libucrt:recalloc.obj
 0004:00001368       $pdata$_resetstkoflw       0000000180034368     libucrt:resetstk.obj
 0004:00001374       $pdata$wcscat_s            0000000180034374     libucrt:wcscat_s.obj
 0004:00001380       $pdata$wcscpy_s            0000000180034380     libucrt:wcscpy_s.obj
 0004:0000138c       $pdata$wcsncpy_s           000000018003438c     libucrt:wcsncpy_s.obj
 0004:00001398       $pdata$??0_LocaleUpdate@@QEAA@QEAU__crt_locale_pointers@@@Z 0000000180034398     libucrt:output.obj
 0004:000013a4       $pdata$__stdio_common_vswprintf_s 00000001800343a4     libucrt:output.obj
 0004:000013b0       $pdata$?write_string@?$string_output_adapter@_W@__crt_stdio_output@@QEBAXQEB_WHQEAHAEAV__crt_deferred_errno_cache@@@Z 00000001800343b0     libucrt:output.obj
 0004:000013bc       $pdata$??$common_vsprintf@Vformat_validation_base@__crt_stdio_output@@_W@@YAH_KQEA_W0QEB_WQEAU__crt_locale_pointers@@QEAD@Z 00000001800343bc     libucrt:output.obj
 0004:000013c8       $pdata$??$write_multiple_characters@V?$string_output_adapter@_W@__crt_stdio_output@@D@__crt_stdio_output@@YAXAEBV?$string_output_adapter@_W@0@DHQEAH@Z 00000001800343c8     libucrt:output.obj
 0004:000013d4       $pdata$??$ensure_buffer_is_big_enough@D@formatting_buffer@__crt_stdio_output@@QEAA_N_K@Z 00000001800343d4     libucrt:output.obj
 0004:000013e0       $pdata$??$ensure_buffer_is_big_enough@_W@formatting_buffer@__crt_stdio_output@@QEAA_N_K@Z 00000001800343e0     libucrt:output.obj
 0004:000013ec       $pdata$?process@?$output_processor@_WV?$string_output_adapter@_W@__crt_stdio_output@@V?$format_validation_base@_WV?$string_output_adapter@_W@__crt_stdio_output@@@2@@__crt_stdio_output@@QEAAHXZ 00000001800343ec     libucrt:output.obj
 0004:000013f8       $pdata$?parse_int_from_format_string@?$output_processor@_WV?$string_output_adapter@_W@__crt_stdio_output@@V?$format_validation_base@_WV?$string_output_adapter@_W@__crt_stdio_output@@@2@@__crt_stdio_output@@AEAA_NQEAH@Z 00000001800343f8     libucrt:output.obj
 0004:00001404       $pdata$?state_case_size@?$output_processor@_WV?$string_output_adapter@_W@__crt_stdio_output@@V?$format_validation_base@_WV?$string_output_adapter@_W@__crt_stdio_output@@@2@@__crt_stdio_output@@AEAA_NXZ 0000000180034404     libucrt:output.obj
 0004:00001410       $pdata$?state_case_type@?$output_processor@_WV?$string_output_adapter@_W@__crt_stdio_output@@V?$format_validation_base@_WV?$string_output_adapter@_W@__crt_stdio_output@@@2@@__crt_stdio_output@@AEAA_NXZ 0000000180034410     libucrt:output.obj
 0004:0000141c       $pdata$?type_case_c_tchar@?$output_processor@_WV?$string_output_adapter@_W@__crt_stdio_output@@V?$format_validation_base@_WV?$string_output_adapter@_W@__crt_stdio_output@@@2@@__crt_stdio_output@@AEAA_N_W@Z 000000018003441c     libucrt:output.obj
 0004:00001428       $pdata$?type_case_Z@?$output_processor@_WV?$string_output_adapter@_W@__crt_stdio_output@@V?$format_validation_base@_WV?$string_output_adapter@_W@__crt_stdio_output@@@2@@__crt_stdio_output@@AEAA_NXZ 0000000180034428     libucrt:output.obj
 0004:00001434       $pdata$?type_case_s@?$output_processor@_WV?$string_output_adapter@_W@__crt_stdio_output@@V?$format_validation_base@_WV?$string_output_adapter@_W@__crt_stdio_output@@@2@@__crt_stdio_output@@AEAA_NXZ 0000000180034434     libucrt:output.obj
 0004:00001440       $pdata$?type_case_a@?$output_processor@_WV?$string_output_adapter@_W@__crt_stdio_output@@V?$format_validation_base@_WV?$string_output_adapter@_W@__crt_stdio_output@@@2@@__crt_stdio_output@@AEAA_NXZ 0000000180034440     libucrt:output.obj
 0004:0000144c       $pdata$?type_case_integer@?$output_processor@_WV?$string_output_adapter@_W@__crt_stdio_output@@V?$format_validation_base@_WV?$string_output_adapter@_W@__crt_stdio_output@@@2@@__crt_stdio_output@@AEAA_NI_N@Z 000000018003444c     libucrt:output.obj
 0004:00001458       $pdata$?type_case_n@?$output_processor@_WV?$string_output_adapter@_W@__crt_stdio_output@@V?$format_validation_base@_WV?$string_output_adapter@_W@__crt_stdio_output@@@2@@__crt_stdio_output@@AEAA_NXZ 0000000180034458     libucrt:output.obj
 0004:00001464       $pdata$?write_stored_string_tchar@?$output_processor@_WV?$string_output_adapter@_W@__crt_stdio_output@@V?$format_validation_base@_WV?$string_output_adapter@_W@__crt_stdio_output@@@2@@__crt_stdio_output@@AEAA_N_W@Z 0000000180034464     libucrt:output.obj
 0004:00001470       $pdata$??$type_case_integer_parse_into_buffer@_K@?$output_processor@_WV?$string_output_adapter@_W@__crt_stdio_output@@V?$format_validation_base@_WV?$string_output_adapter@_W@__crt_stdio_output@@@2@@__crt_stdio_output@@AEAAX_KI_N@Z 0000000180034470     libucrt:output.obj
 0004:0000147c       $pdata$??$type_case_integer_parse_into_buffer@I@?$output_processor@_WV?$string_output_adapter@_W@__crt_stdio_output@@V?$format_validation_base@_WV?$string_output_adapter@_W@__crt_stdio_output@@@2@@__crt_stdio_output@@AEAAXII_N@Z 000000018003447c     libucrt:output.obj
 0004:00001488       $pdata$_seh_filter_exe     0000000180034488     libucrt:exception_filter.obj
 0004:00001494       $pdata$?try_cor_exit_process@@YAXI@Z 0000000180034494     libucrt:exit.obj
 0004:000014a0       $pdata$?exit_or_terminate_process@@YAXI@Z 00000001800344a0     libucrt:exit.obj
 0004:000014ac       $pdata$?common_exit@@YAXHW4_crt_exit_cleanup_mode@@W4_crt_exit_return_mode@@@Z 00000001800344ac     libucrt:exit.obj
 0004:000014b8       $pdata$??R<lambda_6e4b09c48022b2350581041d5f6b0c4c>@@QEBA@XZ 00000001800344b8     libucrt:exit.obj
 0004:000014c4       $pdata$?filt$0@?0???R<lambda_6e4b09c48022b2350581041d5f6b0c4c>@@QEBA@XZ@4HA 00000001800344c4     libucrt:exit.obj
 0004:000014d0       $pdata$??$?RV<lambda_d80eeec6fff315bfe5c115232f3240e3>@@AEAV<lambda_6e4b09c48022b2350581041d5f6b0c4c>@@V<lambda_2358e3775559c9db80273638284d5e45>@@@?$__crt_seh_guarded_call@X@@QEAAX$$QEAV<lambda_d80eeec6fff315bfe5c115232f3240e3>@@AEAV<lambda_6e4b09c48022b2350581041d5f6b0c4c>@@$$QEAV<lambda_2358e3775559c9db80273638284d5e45>@@@Z 00000001800344d0     libucrt:exit.obj
 0004:000014dc       $pdata$?fin$0@?0???$?RV<lambda_d80eeec6fff315bfe5c115232f3240e3>@@AEAV<lambda_6e4b09c48022b2350581041d5f6b0c4c>@@V<lambda_2358e3775559c9db80273638284d5e45>@@@?$__crt_seh_guarded_call@X@@QEAAX$$QEAV<lambda_d80eeec6fff315bfe5c115232f3240e3>@@AEAV<lambda_6e4b09c48022b2350581041d5f6b0c4c>@@$$QEAV<lambda_2358e3775559c9db80273638284d5e45>@@@Z@4HA 00000001800344dc     libucrt:exit.obj
 0004:000014dc       $pdata$?fin$0@?0???$?RV<lambda_0ae27a3a962d80f24befdcbee591983d>@@AEAV<lambda_8d0ee55de4b1038c4002e0adecdf1839>@@V<lambda_dc504788e8f1664fe9b84e20bfb512f2>@@@?$__crt_seh_guarded_call@X@@QEAAX$$QEAV<lambda_0ae27a3a962d80f24befdcbee591983d>@@AEAV<lambda_8d0ee55de4b1038c4002e0adecdf1839>@@$$QEAV<lambda_dc504788e8f1664fe9b84e20bfb512f2>@@@Z@4HA 00000001800344dc     libucrt:per_thread_data.obj
 0004:000014dc       $pdata$?fin$0@?0???$?RV<lambda_aa87e3671a710a21b5dc78c0bdf72e11>@@AEAV<lambda_92619d2358a28f41a33ba319515a20b9>@@V<lambda_6992ecaafeb10aed2b74cb1fae11a551>@@@?$__crt_seh_guarded_call@X@@QEAAX$$QEAV<lambda_aa87e3671a710a21b5dc78c0bdf72e11>@@AEAV<lambda_92619d2358a28f41a33ba319515a20b9>@@$$QEAV<lambda_6992ecaafeb10aed2b74cb1fae11a551>@@@Z@4HA 00000001800344dc     libucrt:per_thread_data.obj
 0004:000014dc       $pdata$?fin$0@?0???$?RV<lambda_f2e299630e499de9f9a165e60fcd3db5>@@AEAV<lambda_2ae9d31cdba2644fcbeaf08da7c24588>@@V<lambda_40d01ff24d0e7b3814fdbdcee8eab3c7>@@@?$__crt_seh_guarded_call@X@@QEAAX$$QEAV<lambda_f2e299630e499de9f9a165e60fcd3db5>@@AEAV<lambda_2ae9d31cdba2644fcbeaf08da7c24588>@@$$QEAV<lambda_40d01ff24d0e7b3814fdbdcee8eab3c7>@@@Z@4HA 00000001800344dc     libucrt:per_thread_data.obj
 0004:000014dc       $pdata$?fin$0@?0???$?RV<lambda_2d41944a1d46af3157314b8a01080d33>@@AEAV<lambda_8f455de75cd7d7f24b4096f044d8b9e6>@@V<lambda_aa500f224e6afead328df44964fe2772>@@@?$__crt_seh_guarded_call@X@@QEAAX$$QEAV<lambda_2d41944a1d46af3157314b8a01080d33>@@AEAV<lambda_8f455de75cd7d7f24b4096f044d8b9e6>@@$$QEAV<lambda_aa500f224e6afead328df44964fe2772>@@@Z@4HA 00000001800344dc     libucrt:per_thread_data.obj
 0004:000014dc       $pdata$?fin$0@?0???$?RV<lambda_450d765d439847d4c735a33c368b5fc0>@@AEAV<lambda_44731a7d0e6d81c3e6aa82d741081786>@@V<lambda_601a2a7da3b7a96e9554ac7215c4b07c>@@@?$__crt_seh_guarded_call@P6AXH@Z@@QEAAP6AXH@Z$$QEAV<lambda_450d765d439847d4c735a33c368b5fc0>@@AEAV<lambda_44731a7d0e6d81c3e6aa82d741081786>@@$$QEAV<lambda_601a2a7da3b7a96e9554ac7215c4b07c>@@@Z@4HA 00000001800344dc     libucrt:signal.obj
 0004:000014dc       $pdata$?fin$0@?0???$?RV<lambda_7777bce6b2f8c936911f934f8298dc43>@@AEAV<lambda_f03950bc5685219e0bcd2087efbe011e>@@V<lambda_3883c3dff614d5e0c5f61bb1ac94921c>@@@?$__crt_seh_guarded_call@H@@QEAAH$$QEAV<lambda_7777bce6b2f8c936911f934f8298dc43>@@AEAV<lambda_f03950bc5685219e0bcd2087efbe011e>@@$$QEAV<lambda_3883c3dff614d5e0c5f61bb1ac94921c>@@@Z@4HA 00000001800344dc     libucrt:onexit.obj
 0004:000014dc       $pdata$?fin$0@?0???$?RV<lambda_638799b9deba96c50f710eeac98168cd>@@AEAV<lambda_22ebabd17bc4fa466a2aca6d8deb888d>@@V<lambda_a6f7d7db0129f75315ebf26d50c089f1>@@@?$__crt_seh_guarded_call@H@@QEAAH$$QEAV<lambda_638799b9deba96c50f710eeac98168cd>@@AEAV<lambda_22ebabd17bc4fa466a2aca6d8deb888d>@@$$QEAV<lambda_a6f7d7db0129f75315ebf26d50c089f1>@@@Z@4HA 00000001800344dc     libucrt:onexit.obj
 0004:000014dc       $pdata$?fin$0@?0???$?RV<lambda_efdfa57d1f175319df784efa44bb7b81>@@AEAV<lambda_5f0a4c1567f8adc6734073e5d1e1b35c>@@V<lambda_2e8a7d3640ea6ccb4c2413664c2db6fd>@@@?$__crt_seh_guarded_call@X@@QEAAX$$QEAV<lambda_efdfa57d1f175319df784efa44bb7b81>@@AEAV<lambda_5f0a4c1567f8adc6734073e5d1e1b35c>@@$$QEAV<lambda_2e8a7d3640ea6ccb4c2413664c2db6fd>@@@Z@4HA 00000001800344dc     libucrt:mbctype.obj
 0004:000014e8       $pdata$_configure_narrow_argv 00000001800344e8     libucrt:argv_parsing.obj
 0004:000014f4       $pdata$__acrt_allocate_buffer_for_argv 00000001800344f4     libucrt:argv_parsing.obj
 0004:00001500       $pdata$??$parse_command_line@D@@YAXPEADPEAPEAD0PEA_K2@Z 0000000180034500     libucrt:argv_parsing.obj
 0004:0000150c       $pdata$__dcrt_uninitialize_environments_nolock 000000018003450c     libucrt:environment_initialization.obj
 0004:00001518       $pdata$??$common_initialize_environment_nolock@D@@YAHXZ 0000000180034518     libucrt:environment_initialization.obj
 0004:00001524       $pdata$??$uninitialize_environment_internal@D@@YAXAEAPEAPEAD@Z 0000000180034524     libucrt:environment_initialization.obj
 0004:00001530       $pdata$??$uninitialize_environment_internal@_W@@YAXAEAPEAPEA_W@Z 0000000180034530     libucrt:environment_initialization.obj
 0004:0000153c       $pdata$??$free_environment@D@@YAXQEAPEAD@Z 000000018003453c     libucrt:environment_initialization.obj
 0004:0000153c       $pdata$??$free_environment@_W@@YAXQEAPEA_W@Z 000000018003453c     libucrt:environment_initialization.obj
 0004:00001548       $pdata$??$create_environment@D@@YAQEAPEADQEAD@Z 0000000180034548     libucrt:environment_initialization.obj
 0004:00001554       $pdata$_register_onexit_function 0000000180034554     libucrt:onexit.obj
 0004:00001560       $pdata$_execute_onexit_table 0000000180034560     libucrt:onexit.obj
 0004:0000156c       $pdata$??R<lambda_22ebabd17bc4fa466a2aca6d8deb888d>@@QEBAHXZ 000000018003456c     libucrt:onexit.obj
 0004:00001578       $pdata$??R<lambda_f03950bc5685219e0bcd2087efbe011e>@@QEBAHXZ 0000000180034578     libucrt:onexit.obj
 0004:00001584       $pdata$??$?RV<lambda_638799b9deba96c50f710eeac98168cd>@@AEAV<lambda_22ebabd17bc4fa466a2aca6d8deb888d>@@V<lambda_a6f7d7db0129f75315ebf26d50c089f1>@@@?$__crt_seh_guarded_call@H@@QEAAH$$QEAV<lambda_638799b9deba96c50f710eeac98168cd>@@AEAV<lambda_22ebabd17bc4fa466a2aca6d8deb888d>@@$$QEAV<lambda_a6f7d7db0129f75315ebf26d50c089f1>@@@Z 0000000180034584     libucrt:onexit.obj
 0004:00001590       $pdata$??$?RV<lambda_7777bce6b2f8c936911f934f8298dc43>@@AEAV<lambda_f03950bc5685219e0bcd2087efbe011e>@@V<lambda_3883c3dff614d5e0c5f61bb1ac94921c>@@@?$__crt_seh_guarded_call@H@@QEAAH$$QEAV<lambda_7777bce6b2f8c936911f934f8298dc43>@@AEAV<lambda_f03950bc5685219e0bcd2087efbe011e>@@$$QEAV<lambda_3883c3dff614d5e0c5f61bb1ac94921c>@@@Z 0000000180034590     libucrt:onexit.obj
 0004:0000159c       $pdata$__acrt_uninitialize 000000018003459c     libucrt:initialization.obj
 0004:000015a8       $pdata$__acrt_uninitialize_critical 00000001800345a8     libucrt:initialization.obj
 0004:000015b4       $pdata$__acrt_thread_attach 00000001800345b4     libucrt:initialization.obj
 0004:000015c0       $pdata$__acrt_thread_detach 00000001800345c0     libucrt:initialization.obj
 0004:000015cc       $pdata$initialize_c        00000001800345cc     libucrt:initialization.obj
 0004:000015d8       $pdata$uninitialize_environment 00000001800345d8     libucrt:initialization.obj
 0004:000015e4       $pdata$initialize_pointers 00000001800345e4     libucrt:initialization.obj
 0004:000015f0       $pdata$uninitialize_allocated_memory 00000001800345f0     libucrt:initialization.obj
 0004:000015fc       $pdata$uninitialize_allocated_io_buffers 00000001800345fc     libucrt:initialization.obj
 0004:00001608       $pdata$_initterm           0000000180034608     libucrt:initterm.obj
 0004:00001614       $pdata$_initterm_e         0000000180034614     libucrt:initterm.obj
 0004:00001620       $pdata$_callnewh           0000000180034620     libucrt:new_handler.obj
 0004:0000162c       $pdata$_query_new_handler  000000018003462c     libucrt:new_handler.obj
 0004:00001638       $pdata$_query_new_handler$fin$0 0000000180034638     libucrt:new_handler.obj
 0004:00001644       $pdata$terminate           0000000180034644     libucrt:terminate.obj
 0004:00001650       $pdata$abort               0000000180034650     libucrt:abort.obj
 0004:0000165c       $pdata$strcpy_s            000000018003465c     libucrt:strcpy_s.obj
 0004:00001668       $pdata$??$parse_integer@KV?$c_string_character_source@_W@__crt_strtox@@@__crt_strtox@@YAKQEAU__crt_locale_pointers@@V?$c_string_character_source@_W@0@H_N@Z 0000000180034668     libucrt:atox.obj
 0004:00001680       $pdata$_free_base          0000000180034680     libucrt:free_base.obj
 0004:0000168c       $pdata$__acrt_initialize_ptd 000000018003468c     libucrt:per_thread_data.obj
 0004:00001698       $pdata$__acrt_uninitialize_ptd 0000000180034698     libucrt:per_thread_data.obj
 0004:000016a4       $pdata$__acrt_getptd       00000001800346a4     libucrt:per_thread_data.obj
 0004:000016b0       $pdata$__acrt_getptd_head  00000001800346b0     libucrt:per_thread_data.obj
 0004:000016bc       $pdata$__acrt_getptd_noexit 00000001800346bc     libucrt:per_thread_data.obj
 0004:000016c8       $pdata$__acrt_freeptd      00000001800346c8     libucrt:per_thread_data.obj
 0004:000016d4       $pdata$?destroy_fls@@YAXPEAX@Z 00000001800346d4     libucrt:per_thread_data.obj
 0004:000016e0       $pdata$?replace_current_thread_locale_nolock@@YAXQEAU__acrt_ptd@@QEAU__crt_locale_data@@@Z 00000001800346e0     libucrt:per_thread_data.obj
 0004:000016ec       $pdata$?construct_ptd_array@@YAXQEAU__acrt_ptd@@@Z 00000001800346ec     libucrt:per_thread_data.obj
 0004:000016f8       $pdata$?destroy_ptd_array@@YAXQEAU__acrt_ptd@@@Z 00000001800346f8     libucrt:per_thread_data.obj
 0004:00001704       $pdata$??$?RV<lambda_0ae27a3a962d80f24befdcbee591983d>@@AEAV<lambda_8d0ee55de4b1038c4002e0adecdf1839>@@V<lambda_dc504788e8f1664fe9b84e20bfb512f2>@@@?$__crt_seh_guarded_call@X@@QEAAX$$QEAV<lambda_0ae27a3a962d80f24befdcbee591983d>@@AEAV<lambda_8d0ee55de4b1038c4002e0adecdf1839>@@$$QEAV<lambda_dc504788e8f1664fe9b84e20bfb512f2>@@@Z 0000000180034704     libucrt:per_thread_data.obj
 0004:00001710       $pdata$??$?RV<lambda_aa87e3671a710a21b5dc78c0bdf72e11>@@AEAV<lambda_92619d2358a28f41a33ba319515a20b9>@@V<lambda_6992ecaafeb10aed2b74cb1fae11a551>@@@?$__crt_seh_guarded_call@X@@QEAAX$$QEAV<lambda_aa87e3671a710a21b5dc78c0bdf72e11>@@AEAV<lambda_92619d2358a28f41a33ba319515a20b9>@@$$QEAV<lambda_6992ecaafeb10aed2b74cb1fae11a551>@@@Z 0000000180034710     libucrt:per_thread_data.obj
 0004:0000171c       $pdata$??$?RV<lambda_f2e299630e499de9f9a165e60fcd3db5>@@AEAV<lambda_2ae9d31cdba2644fcbeaf08da7c24588>@@V<lambda_40d01ff24d0e7b3814fdbdcee8eab3c7>@@@?$__crt_seh_guarded_call@X@@QEAAX$$QEAV<lambda_f2e299630e499de9f9a165e60fcd3db5>@@AEAV<lambda_2ae9d31cdba2644fcbeaf08da7c24588>@@$$QEAV<lambda_40d01ff24d0e7b3814fdbdcee8eab3c7>@@@Z 000000018003471c     libucrt:per_thread_data.obj
 0004:00001728       $pdata$??$?RV<lambda_2d41944a1d46af3157314b8a01080d33>@@AEAV<lambda_8f455de75cd7d7f24b4096f044d8b9e6>@@V<lambda_aa500f224e6afead328df44964fe2772>@@@?$__crt_seh_guarded_call@X@@QEAAX$$QEAV<lambda_2d41944a1d46af3157314b8a01080d33>@@AEAV<lambda_8f455de75cd7d7f24b4096f044d8b9e6>@@$$QEAV<lambda_aa500f224e6afead328df44964fe2772>@@@Z 0000000180034728     libucrt:per_thread_data.obj
 0004:00001734       $pdata$_calloc_base        0000000180034734     libucrt:calloc_base.obj
 0004:00001740       $pdata$_malloc_base        0000000180034740     libucrt:malloc_base.obj
 0004:0000174c       $pdata$_msize_base         000000018003474c     libucrt:msize.obj
 0004:00001758       $pdata$_realloc_base       0000000180034758     libucrt:realloc_base.obj
 0004:00001764       $pdata$__acrt_initialize_winapi_thunks 0000000180034764     libucrt:winapi_thunks.obj
 0004:00001770       $pdata$__acrt_uninitialize_winapi_thunks 0000000180034770     libucrt:winapi_thunks.obj
 0004:0000177c       $pdata$__acrt_AreFileApisANSI 000000018003477c     libucrt:winapi_thunks.obj
 0004:00001788       $pdata$__acrt_FlsAlloc     0000000180034788     libucrt:winapi_thunks.obj
 0004:00001794       $pdata$__acrt_FlsFree      0000000180034794     libucrt:winapi_thunks.obj
 0004:000017a0       $pdata$__acrt_FlsGetValue  00000001800347a0     libucrt:winapi_thunks.obj
 0004:000017ac       $pdata$__acrt_FlsSetValue  00000001800347ac     libucrt:winapi_thunks.obj
 0004:000017b8       $pdata$__acrt_InitializeCriticalSectionEx 00000001800347b8     libucrt:winapi_thunks.obj
 0004:000017c4       $pdata$__acrt_LCMapStringEx 00000001800347c4     libucrt:winapi_thunks.obj
 0004:000017d0       $pdata$__acrt_LocaleNameToLCID 00000001800347d0     libucrt:winapi_thunks.obj
 0004:000017dc       $pdata$__acrt_AppPolicyGetProcessTerminationMethodInternal 00000001800347dc     libucrt:winapi_thunks.obj
 0004:000017e8       $pdata$__acrt_SetThreadStackGuarantee 00000001800347e8     libucrt:winapi_thunks.obj
 0004:000017f4       $pdata$?try_get_function@@YAPEAXW4function_id@?A0x391cf84c@@QEBDQEBW4module_id@2@2@Z 00000001800347f4     libucrt:winapi_thunks.obj
 0004:00001800       $pdata$wcstol              0000000180034800     libucrt:strtox.obj
 0004:0000180c       $pdata$_mbtowc_l           000000018003480c     libucrt:mbtowc.obj
 0004:00001818       $pdata$__acrt_update_locale_info 0000000180034818     libucrt:locale_update.obj
 0004:00001824       $pdata$__acrt_update_multibyte_info 0000000180034824     libucrt:locale_update.obj
 0004:00001830       $pdata$__acrt_fp_format    0000000180034830     libucrt:cvt.obj
 0004:0000183c       $pdata$?fp_format_e_internal@@YAHQEAD_KH_NIQEAU_strflt@@2QEAU__crt_locale_pointers@@@Z 000000018003483c     libucrt:cvt.obj
 0004:00001848       $pdata$?fp_format_e@@YAHQEBNQEAD_K12H_NIQEAU__crt_locale_pointers@@@Z 0000000180034848     libucrt:cvt.obj
 0004:00001854       $pdata$?fp_format_a@@YAHQEBNPEAD_KQEAD2H_NIQEAU__crt_locale_pointers@@@Z 0000000180034854     libucrt:cvt.obj
 0004:00001860       $pdata$?fp_format_f_internal@@YAHQEAD_KHQEAU_strflt@@_NQEAU__crt_locale_pointers@@@Z 0000000180034860     libucrt:cvt.obj
 0004:0000186c       $pdata$?fp_format_g@@YAHQEBNQEAD_K12H_NIQEAU__crt_locale_pointers@@@Z 000000018003486c     libucrt:cvt.obj
 0004:00001878       $pdata$_fileno             0000000180034878     libucrt:fileno.obj
 0004:00001884       $pdata$__acrt_initialize_stdio 0000000180034884     libucrt:_file.obj
 0004:00001890       $pdata$__acrt_uninitialize_stdio 0000000180034890     libucrt:_file.obj
 0004:0000189c       $pdata$__acrt_uninitialize_locale 000000018003489c     libucrt:wsetlocale.obj
 0004:000018a8       $pdata$??$?RV<lambda_410d79af7f07d98d83a3f525b3859a53>@@AEAV<lambda_3e16ef9562a7dcce91392c22ab16ea36>@@V<lambda_38119f0e861e05405d8a144b9b982f0a>@@@?$__crt_seh_guarded_call@X@@QEAAX$$QEAV<lambda_410d79af7f07d98d83a3f525b3859a53>@@AEAV<lambda_3e16ef9562a7dcce91392c22ab16ea36>@@$$QEAV<lambda_38119f0e861e05405d8a144b9b982f0a>@@@Z 00000001800348a8     libucrt:wsetlocale.obj
 0004:000018b4       $pdata$?fin$0@?0???$?RV<lambda_410d79af7f07d98d83a3f525b3859a53>@@AEAV<lambda_3e16ef9562a7dcce91392c22ab16ea36>@@V<lambda_38119f0e861e05405d8a144b9b982f0a>@@@?$__crt_seh_guarded_call@X@@QEAAX$$QEAV<lambda_410d79af7f07d98d83a3f525b3859a53>@@AEAV<lambda_3e16ef9562a7dcce91392c22ab16ea36>@@$$QEAV<lambda_38119f0e861e05405d8a144b9b982f0a>@@@Z@4HA 00000001800348b4     libucrt:wsetlocale.obj
 0004:000018c0       $pdata$__acrt_initialize_lowio 00000001800348c0     libucrt:ioinit.obj
 0004:000018cc       $pdata$__acrt_lowio_ensure_fh_exists$fin$0 00000001800348cc     libucrt:osfinfo.obj
 0004:000018cc       $pdata$__acrt_initialize_lowio$fin$0 00000001800348cc     libucrt:ioinit.obj
 0004:000018d8       $pdata$__acrt_uninitialize_lowio 00000001800348d8     libucrt:ioinit.obj
 0004:000018e4       $pdata$?initialize_inherited_file_handles_nolock@@YAXXZ 00000001800348e4     libucrt:ioinit.obj
 0004:000018f0       $pdata$?initialize_stdio_handles_nolock@@YAXXZ 00000001800348f0     libucrt:ioinit.obj
 0004:000018fc       $pdata$__acrt_initialize_locks 00000001800348fc     libucrt:locks.obj
 0004:00001908       $pdata$__acrt_uninitialize_locks 0000000180034908     libucrt:locks.obj
 0004:00001914       $pdata$__acrt_get_process_end_policy 0000000180034914     libucrt:win_policies.obj
 0004:00001920       $pdata$??$__acrt_mbs_to_wcs_cp@U__crt_win32_buffer_internal_dynamic_resizing@@@@YAHQEBDAEAV?$__crt_win32_buffer@_WU__crt_win32_buffer_internal_dynamic_resizing@@@@I@Z 0000000180034920     libucrt:argv_wildcards.obj
 0004:0000192c       $pdata$??$__acrt_wcs_to_mbs_cp@U__crt_win32_buffer_internal_dynamic_resizing@@@@YAHQEB_WAEAV?$__crt_win32_buffer@DU__crt_win32_buffer_internal_dynamic_resizing@@@@I@Z 000000018003492c     libucrt:argv_wildcards.obj
 0004:00001938       $pdata$??$common_expand_argv_wildcards@D@@YAHQEAPEADQEAPEAPEAD@Z 0000000180034938     libucrt:argv_wildcards.obj
 0004:00001944       $pdata$??$copy_and_add_argument_to_buffer@D@@YAHQEBD0_KAEAV?$argument_list@D@?A0x5f5c8891@@@Z 0000000180034944     libucrt:argv_wildcards.obj
 0004:00001950       $pdata$??$expand_argument_wildcards@D@@YAHQEAD0AEAV?$argument_list@D@?A0x5f5c8891@@@Z 0000000180034950     libucrt:argv_wildcards.obj
 0004:0000195c       $pdata$__acrt_GetModuleFileNameA 000000018003495c     libucrt:getmodulefilenamea.obj
 0004:00001968       $pdata$??$__acrt_wcs_to_mbs_cp@U__crt_win32_buffer_no_resizing@@@@YAHQEB_WAEAV?$__crt_win32_buffer@DU__crt_win32_buffer_no_resizing@@@@I@Z 0000000180034968     libucrt:getmodulefilenamea.obj
 0004:00001974       $pdata$__acrt_update_thread_multibyte_data 0000000180034974     libucrt:mbctype.obj
 0004:00001980       $pdata$__acrt_initialize_multibyte 0000000180034980     libucrt:mbctype.obj
 0004:0000198c       $pdata$_setmbcp_nolock     000000018003498c     libucrt:mbctype.obj
 0004:00001998       $pdata$?getSystemCP@@YAHH@Z 0000000180034998     libucrt:mbctype.obj
 0004:000019a4       $pdata$?setSBCS@@YAXPEAU__crt_multibyte_data@@@Z 00000001800349a4     libucrt:mbctype.obj
 0004:000019b0       $pdata$?update_thread_multibyte_data_internal@@YAPEAU__crt_multibyte_data@@QEAU__acrt_ptd@@QEAPEAU1@@Z 00000001800349b0     libucrt:mbctype.obj
 0004:000019bc       $pdata$?fin$0@?0??update_thread_multibyte_data_internal@@YAPEAU__crt_multibyte_data@@QEAU__acrt_ptd@@QEAPEAU1@@Z@4HA 00000001800349bc     libucrt:mbctype.obj
 0004:000019c8       $pdata$?setmbcp_internal@@YAHH_NQEAU__acrt_ptd@@QEAPEAU__crt_multibyte_data@@@Z 00000001800349c8     libucrt:mbctype.obj
 0004:000019d4       $pdata$?setSBUpLow@@YAXPEAU__crt_multibyte_data@@@Z 00000001800349d4     libucrt:mbctype.obj
 0004:000019e0       $pdata$??$?RV<lambda_efdfa57d1f175319df784efa44bb7b81>@@AEAV<lambda_5f0a4c1567f8adc6734073e5d1e1b35c>@@V<lambda_2e8a7d3640ea6ccb4c2413664c2db6fd>@@@?$__crt_seh_guarded_call@X@@QEAAX$$QEAV<lambda_efdfa57d1f175319df784efa44bb7b81>@@AEAV<lambda_5f0a4c1567f8adc6734073e5d1e1b35c>@@$$QEAV<lambda_2e8a7d3640ea6ccb4c2413664c2db6fd>@@@Z 00000001800349e0     libucrt:mbctype.obj
 0004:000019ec       $pdata$?x_ismbbtype_l@@YAHPEAU__crt_locale_pointers@@IHH@Z 00000001800349ec     libucrt:ismbbyte.obj
 0004:000019f8       $pdata$__acrt_initialize_command_line 00000001800349f8     libucrt:argv_data.obj
 0004:00001a04       $pdata$__acrt_WideCharToMultiByte 0000000180034a04     libucrt:widechartomultibyte.obj
 0004:00001a10       $pdata$__dcrt_get_narrow_environment_from_os 0000000180034a10     libucrt:get_environment_from_os.obj
 0004:00001a1c       $pdata$__acrt_initialize_heap 0000000180034a1c     libucrt:heap_handle.obj
 0004:00001a28       $pdata$__acrt_execute_initializers 0000000180034a28     libucrt:shared_initialization.obj
 0004:00001a34       $pdata$__acrt_execute_uninitializers 0000000180034a34     libucrt:shared_initialization.obj
 0004:00001a40       $pdata$__acrt_get_sigabrt_handler 0000000180034a40     libucrt:signal.obj
 0004:00001a4c       $pdata$raise               0000000180034a4c     libucrt:signal.obj
 0004:00001a58       $pdata$raise$fin$0         0000000180034a58     libucrt:signal.obj
 0004:00001a64       $pdata$??$?RV<lambda_450d765d439847d4c735a33c368b5fc0>@@AEAV<lambda_44731a7d0e6d81c3e6aa82d741081786>@@V<lambda_601a2a7da3b7a96e9554ac7215c4b07c>@@@?$__crt_seh_guarded_call@P6AXH@Z@@QEAAP6AXH@Z$$QEAV<lambda_450d765d439847d4c735a33c368b5fc0>@@AEAV<lambda_44731a7d0e6d81c3e6aa82d741081786>@@$$QEAV<lambda_601a2a7da3b7a96e9554ac7215c4b07c>@@@Z 0000000180034a64     libucrt:signal.obj
 0004:00001a70       $pdata$_fflush_nolock      0000000180034a70     libucrt:fflush.obj
 0004:00001a7c       $pdata$__acrt_stdio_flush_nolock 0000000180034a7c     libucrt:fflush.obj
 0004:00001a88       $pdata$?common_flush_all@@YAH_N@Z 0000000180034a88     libucrt:fflush.obj
 0004:00001a94       $pdata$??$?RV<lambda_842d9ff0dc9ef11c61343bbaebe7f885>@@AEAV<lambda_c5860995281e5c4ce005b3de8f5874ee>@@V<lambda_d90129c13df834fdcbf8d2b88dafcf2d>@@@?$__crt_seh_guarded_call@X@@QEAAX$$QEAV<lambda_842d9ff0dc9ef11c61343bbaebe7f885>@@AEAV<lambda_c5860995281e5c4ce005b3de8f5874ee>@@$$QEAV<lambda_d90129c13df834fdcbf8d2b88dafcf2d>@@@Z 0000000180034a94     libucrt:fflush.obj
 0004:00001aa0       $pdata$?fin$0@?0???$?RV<lambda_842d9ff0dc9ef11c61343bbaebe7f885>@@AEAV<lambda_c5860995281e5c4ce005b3de8f5874ee>@@V<lambda_d90129c13df834fdcbf8d2b88dafcf2d>@@@?$__crt_seh_guarded_call@X@@QEAAX$$QEAV<lambda_842d9ff0dc9ef11c61343bbaebe7f885>@@AEAV<lambda_c5860995281e5c4ce005b3de8f5874ee>@@$$QEAV<lambda_d90129c13df834fdcbf8d2b88dafcf2d>@@@Z@4HA 0000000180034aa0     libucrt:fflush.obj
 0004:00001aac       $pdata$??$?RV<lambda_886d6c58226a84441f68b9f2b8217b83>@@AEAV<lambda_ab61a845afdef5b7c387490eaf3616ee>@@V<lambda_f7f22ab5edc0698d5f6905b0d3f44752>@@@?$__crt_seh_guarded_call@X@@QEAAX$$QEAV<lambda_886d6c58226a84441f68b9f2b8217b83>@@AEAV<lambda_ab61a845afdef5b7c387490eaf3616ee>@@$$QEAV<lambda_f7f22ab5edc0698d5f6905b0d3f44752>@@@Z 0000000180034aac     libucrt:fflush.obj
 0004:00001ab8       $pdata$?fin$0@?0???$?RV<lambda_886d6c58226a84441f68b9f2b8217b83>@@AEAV<lambda_ab61a845afdef5b7c387490eaf3616ee>@@V<lambda_f7f22ab5edc0698d5f6905b0d3f44752>@@@?$__crt_seh_guarded_call@X@@QEAAX$$QEAV<lambda_886d6c58226a84441f68b9f2b8217b83>@@AEAV<lambda_ab61a845afdef5b7c387490eaf3616ee>@@$$QEAV<lambda_f7f22ab5edc0698d5f6905b0d3f44752>@@@Z@4HA 0000000180034ab8     libucrt:fflush.obj
 0004:00001ac4       $pdata$__pctype_func       0000000180034ac4     libucrt:ctype.obj
 0004:00001ad0       $pdata$iswctype            0000000180034ad0     libucrt:iswctype.obj
 0004:00001adc       $pdata$__acrt_release_locale_ref 0000000180034adc     libucrt:locale_refcounting.obj
 0004:00001ae8       $pdata$__acrt_free_locale  0000000180034ae8     libucrt:locale_refcounting.obj
 0004:00001af4       $pdata$__acrt_locale_free_lc_time_if_unreferenced 0000000180034af4     libucrt:locale_refcounting.obj
 0004:00001b00       $pdata$__acrt_update_thread_locale_data 0000000180034b00     libucrt:locale_refcounting.obj
 0004:00001b0c       $pdata$__acrt_update_thread_locale_data$fin$0 0000000180034b0c     libucrt:locale_refcounting.obj
 0004:00001b18       $pdata$_updatetlocinfoEx_nolock 0000000180034b18     libucrt:locale_refcounting.obj
 0004:00001b24       $pdata$__acrt_DownlevelLocaleNameToLCID 0000000180034b24     libucrt:lcidtoname_downlevel.obj
 0004:00001b30       $pdata$_isleadbyte_l       0000000180034b30     libucrt:_wctype.obj
 0004:00001b3c       $pdata$?__mbrtowc_utf8@__crt_mbstring@@YA_KPEA_WPEBD_KPEAU_Mbstatet@@@Z 0000000180034b3c     libucrt:mbrtowc.obj
 0004:00001b48       $pdata$?__mbsrtowcs_utf8@__crt_mbstring@@YA_KPEA_WPEAPEBD_KPEAU_Mbstatet@@@Z 0000000180034b48     libucrt:mbrtowc.obj
 0004:00001b54       $pdata$__acrt_fp_strflt_to_string 0000000180034b54     libucrt:_fptostr.obj
 0004:00001b60       $pdata$__acrt_fltout       0000000180034b60     libucrt:cfout.obj
 0004:00001b6c       $pdata$?divide@__crt_strtox@@YA_KAEAUbig_integer@1@AEBU21@@Z 0000000180034b6c     libucrt:cfout.obj
 0004:00001b78       $pdata$0$?divide@__crt_strtox@@YA_KAEAUbig_integer@1@AEBU21@@Z 0000000180034b78     libucrt:cfout.obj
 0004:00001b84       $pdata$1$?divide@__crt_strtox@@YA_KAEAUbig_integer@1@AEBU21@@Z 0000000180034b84     libucrt:cfout.obj
 0004:00001b90       $pdata$_fcloseall          0000000180034b90     libucrt:closeall.obj
 0004:00001b9c       $pdata$_fcloseall$fin$0    0000000180034b9c     libucrt:closeall.obj
 0004:00001ba8       $pdata$__acrt_stdio_free_buffer_nolock 0000000180034ba8     libucrt:_freebuf.obj
 0004:00001bb4       $pdata$_isatty             0000000180034bb4     libucrt:isatty.obj
 0004:00001bc0       $pdata$__acrt_locale_free_monetary 0000000180034bc0     libucrt:initmon.obj
 0004:00001bcc       $pdata$__acrt_locale_free_numeric 0000000180034bcc     libucrt:initnum.obj
 0004:00001bd8       $pdata$__acrt_locale_free_time 0000000180034bd8     libucrt:inittime.obj
 0004:00001be4       $pdata$?free_crt_array_internal@@YAXQEAPEBX_K@Z 0000000180034be4     libucrt:inittime.obj
 0004:00001bf0       $pdata$__acrt_GetStringTypeA 0000000180034bf0     libucrt:getstringtypea.obj
 0004:00001bfc       $pdata$_get_osfhandle      0000000180034bfc     libucrt:osfinfo.obj
 0004:00001c08       $pdata$_free_osfhnd        0000000180034c08     libucrt:osfinfo.obj
 0004:00001c14       $pdata$__acrt_lowio_create_handle_array 0000000180034c14     libucrt:osfinfo.obj
 0004:00001c20       $pdata$__acrt_lowio_destroy_handle_array 0000000180034c20     libucrt:osfinfo.obj
 0004:00001c2c       $pdata$__acrt_lowio_ensure_fh_exists 0000000180034c2c     libucrt:osfinfo.obj
 0004:00001c38       $pdata$qsort               0000000180034c38     libucrt:qsort.obj
 0004:00001c44       $pdata$4$qsort             0000000180034c44     libucrt:qsort.obj
 0004:00001c50       $pdata$5$qsort             0000000180034c50     libucrt:qsort.obj
 0004:00001c5c       $pdata$strncpy_s           0000000180034c5c     libucrt:strncpy_s.obj
 0004:00001c68       $pdata$strpbrk             0000000180034c68     libucrt:strpbrk.obj
 0004:00001c74       $pdata$fallbackMethod      0000000180034c74     libucrt:strpbrk.obj
 0004:00001c80       $pdata$_mbsdec_l           0000000180034c80     libucrt:mbsdec.obj
 0004:00001c8c       $pdata$__acrt_LCMapStringA 0000000180034c8c     libucrt:lcmapstringa.obj
 0004:00001c98       $pdata$?__acrt_LCMapStringA_stat@@YAHPEAU__crt_locale_pointers@@PEB_WKPEBDHPEADHHH@Z 0000000180034c98     libucrt:lcmapstringa.obj
 0004:00001ca4       $pdata$?initialize_multibyte@@YAHXZ 0000000180034ca4     libucrt:multibyte_initializer.obj
 0004:00001cb0       $pdata$_commit             0000000180034cb0     libucrt:commit.obj
 0004:00001cbc       $pdata$??$?RV<lambda_a37b2b86f63e897a80ea819b0eb08c01>@@AEAV<lambda_38ce7e780aa69e748d6df282ebc68efe>@@V<lambda_99fb1378e971ab6e7edea83e3a7a83a2>@@@?$__crt_seh_guarded_call@H@@QEAAH$$QEAV<lambda_a37b2b86f63e897a80ea819b0eb08c01>@@AEAV<lambda_38ce7e780aa69e748d6df282ebc68efe>@@$$QEAV<lambda_99fb1378e971ab6e7edea83e3a7a83a2>@@@Z 0000000180034cbc     libucrt:commit.obj
 0004:00001cc8       $pdata$?fin$0@?0???$?RV<lambda_751a882b2c74d4b022dec766aa51a29a>@@AEAV<lambda_628dfdc04ba53c8bfc02c9951375f3f5>@@V<lambda_f6c7be5f7998530c34de24c7437d6b54>@@@?$__crt_seh_guarded_call@H@@QEAAH$$QEAV<lambda_751a882b2c74d4b022dec766aa51a29a>@@AEAV<lambda_628dfdc04ba53c8bfc02c9951375f3f5>@@$$QEAV<lambda_f6c7be5f7998530c34de24c7437d6b54>@@@Z@4HA 0000000180034cc8     libucrt:close.obj
 0004:00001cc8       $pdata$?fin$0@?0???$?RV<lambda_a37b2b86f63e897a80ea819b0eb08c01>@@AEAV<lambda_38ce7e780aa69e748d6df282ebc68efe>@@V<lambda_99fb1378e971ab6e7edea83e3a7a83a2>@@@?$__crt_seh_guarded_call@H@@QEAAH$$QEAV<lambda_a37b2b86f63e897a80ea819b0eb08c01>@@AEAV<lambda_38ce7e780aa69e748d6df282ebc68efe>@@$$QEAV<lambda_99fb1378e971ab6e7edea83e3a7a83a2>@@@Z@4HA 0000000180034cc8     libucrt:commit.obj
 0004:00001cd4       $pdata$_write              0000000180034cd4     libucrt:write.obj
 0004:00001ce0       $pdata$_write$fin$0        0000000180034ce0     libucrt:write.obj
 0004:00001cec       $pdata$_write_nolock       0000000180034cec     libucrt:write.obj
 0004:00001cf8       $pdata$?write_double_translated_ansi_nolock@@YA?AUwrite_result@?A0x17268360@@HQEBDI@Z 0000000180034cf8     libucrt:write.obj
 0004:00001d04       $pdata$?write_text_ansi_nolock@@YA?AUwrite_result@?A0x17268360@@HQEBDI@Z 0000000180034d04     libucrt:write.obj
 0004:00001d10       $pdata$?write_text_utf16le_nolock@@YA?AUwrite_result@?A0x17268360@@HQEBDI@Z 0000000180034d10     libucrt:write.obj
 0004:00001d1c       $pdata$?write_text_utf8_nolock@@YA?AUwrite_result@?A0x17268360@@HQEBDI@Z 0000000180034d1c     libucrt:write.obj
 0004:00001d28       $pdata$?__mbrtoc32_utf8@__crt_mbstring@@YA_KPEA_UPEBD_KPEAU_Mbstatet@@@Z 0000000180034d28     libucrt:mbrtoc32.obj
 0004:00001d34       $pdata$fegetenv            0000000180034d34     libucrt:fegetenv.obj
 0004:00001d40       $pdata$fesetenv            0000000180034d40     libucrt:fesetenv.obj
 0004:00001d4c       $pdata$feholdexcept        0000000180034d4c     libucrt:feholdexcept.obj
 0004:00001d64       $pdata$??$common_lseek_nolock@_J@@YA_JH_JH@Z 0000000180034d64     libucrt:lseek.obj
 0004:00001d70       $pdata$fclose              0000000180034d70     libucrt:fclose.obj
 0004:00001d7c       $pdata$fclose$fin$0        0000000180034d7c     libucrt:fclose.obj
 0004:00001d88       $pdata$_fclose_nolock      0000000180034d88     libucrt:fclose.obj
 0004:00001d94       $pdata$_putwch_nolock      0000000180034d94     libucrt:putwch.obj
 0004:00001da0       $pdata$__acrt_fenv_set_control 0000000180034da0     libucrt:_fenvutils.obj
 0004:00001dac       $pdata$_clearfp            0000000180034dac     libucrt:ieee.obj
 0004:00001db8       $pdata$_call_matherr       0000000180034db8     libucrt:libm_error.obj
 0004:00001dc4       $pdata$_exception_enabled  0000000180034dc4     libucrt:libm_error.obj
 0004:00001dd0       $pdata$_handle_error       0000000180034dd0     libucrt:libm_error.obj
 0004:00001ddc       $pdata$__acrt_initialize_fma3 0000000180034ddc     libucrt:fma3_available.obj
 0004:00001de8       $pdata$_log_special_common 0000000180034de8     libucrt:log_special.obj
 0004:00001df4       $pdata$_log10_special      0000000180034df4     libucrt:log_special.obj
 0004:00001e00       $pdata$_close              0000000180034e00     libucrt:close.obj
 0004:00001e0c       $pdata$_close_nolock       0000000180034e0c     libucrt:close.obj
 0004:00001e18       $pdata$??$?RV<lambda_751a882b2c74d4b022dec766aa51a29a>@@AEAV<lambda_628dfdc04ba53c8bfc02c9951375f3f5>@@V<lambda_f6c7be5f7998530c34de24c7437d6b54>@@@?$__crt_seh_guarded_call@H@@QEAAH$$QEAV<lambda_751a882b2c74d4b022dec766aa51a29a>@@AEAV<lambda_628dfdc04ba53c8bfc02c9951375f3f5>@@$$QEAV<lambda_f6c7be5f7998530c34de24c7437d6b54>@@@Z 0000000180034e18     libucrt:close.obj
 0004:00001e24       $pdata$__dcrt_lowio_ensure_console_output_initialized 0000000180034e24     libucrt:initcon.obj
 0004:00001e30       $pdata$__dcrt_write_console 0000000180034e30     libucrt:initcon.obj
 0004:00001e3c       $pdata$__dcrt_terminate_console_output 0000000180034e3c     libucrt:initcon.obj
 0004:00001e54       $pdata$_set_errno_from_matherr 0000000180034e54     libucrt:fpexcept.obj
 0004:00001e60       $pdata$_raise_exc          0000000180034e60     libucrt:fpexcept.obj
 0004:00001e6c       $pdata$_raise_exc_ex       0000000180034e6c     libucrt:fpexcept.obj
 0004:00001e78       $pdata$_clrfp              0000000180034e78     libucrt:fpctrl.obj
 0004:00001e84       $pdata$_ctrlfp             0000000180034e84     libucrt:fpctrl.obj
 0004:00001e90       $pdata$_ctrlfp$filt$0      0000000180034e90     libucrt:fpctrl.obj
 0004:00001e9c       $pdata$_statfp             0000000180034e9c     libucrt:fpctrl.obj
 0004:00001ea8       $pdata$_set_statfp         0000000180034ea8     libucrt:fpctrl.obj
 0004:00001eb4       $pdata$_IsNonwritableInCurrentImage 0000000180034eb4     LIBCMT:pesect.obj
 0004:00001ec0       $pdata$_IsNonwritableInCurrentImage$filt$0 0000000180034ec0     LIBCMT:pesect.obj
 0005:00000000       MoveSmall                  0000000180035000     libvcruntime:memcpy.obj
 0005:00000050       MsetTab                    0000000180035050     libvcruntime:memset.obj
 0006:00000220       $R000000                   0000000180036220     ImageScanner.res
 0006:00000ba0       $R000980                   0000000180036ba0     ImageScanner.res
 0006:00000c88       $R000A68                   0000000180036c88     ImageScanner.res
 0006:00000ef0       $R000CD0                   0000000180036ef0     ImageScanner.res
 0006:000013d0       $R0011B0                   00000001800373d0     ImageScanner.res
 0006:000043b8       $R004198                   000000018003a3b8     ImageScanner.res
 0006:000043f0       $R0041D0                   000000018003a3f0     ImageScanner.res
